


Disassembly of section .text:

00000000000080a0 <_start>:
    80a0:	f3 0f 1e fa          	endbr64 
    80a4:	31 ed                	xor    %ebp,%ebp
    80a6:	49 89 d1             	mov    %rdx,%r9
    80a9:	5e                   	pop    %rsi
    80aa:	48 89 e2             	mov    %rsp,%rdx
    80ad:	48 83 e4 f0          	and    $0xfffffffffffffff0,%rsp
    80b1:	50                   	push   %rax
    80b2:	54                   	push   %rsp
    80b3:	4c 8d 05 b6 f1 00 00 	lea    0xf1b6(%rip),%r8        # 17270 <__libc_csu_fini>
    80ba:	48 8d 0d 3f f1 00 00 	lea    0xf13f(%rip),%rcx        # 17200 <__libc_csu_init>
    80c1:	48 8d 3d f2 bc 00 00 	lea    0xbcf2(%rip),%rdi        # 13dba <main>
    80c8:	ff 15 fa 4e 01 00    	callq  *0x14efa(%rip)        # 1cfc8 <__libc_start_main@GLIBC_2.2.5>
    80ce:	f4                   	hlt    
    80cf:	90                   	nop

00000000000080d0 <deregister_tm_clones>:
    80d0:	48 8d 3d 41 a7 01 00 	lea    0x1a741(%rip),%rdi        # 22818 <__TMC_END__>
    80d7:	48 8d 05 3a a7 01 00 	lea    0x1a73a(%rip),%rax        # 22818 <__TMC_END__>
    80de:	48 39 f8             	cmp    %rdi,%rax
    80e1:	74 15                	je     80f8 <deregister_tm_clones+0x28>
    80e3:	48 8b 05 d6 4e 01 00 	mov    0x14ed6(%rip),%rax        # 1cfc0 <_ITM_deregisterTMCloneTable>
    80ea:	48 85 c0             	test   %rax,%rax
    80ed:	74 09                	je     80f8 <deregister_tm_clones+0x28>
    80ef:	ff e0                	jmpq   *%rax
    80f1:	0f 1f 80 00 00 00 00 	nopl   0x0(%rax)
    80f8:	c3                   	retq   
    80f9:	0f 1f 80 00 00 00 00 	nopl   0x0(%rax)

0000000000008100 <register_tm_clones>:
    8100:	48 8d 3d 11 a7 01 00 	lea    0x1a711(%rip),%rdi        # 22818 <__TMC_END__>
    8107:	48 8d 35 0a a7 01 00 	lea    0x1a70a(%rip),%rsi        # 22818 <__TMC_END__>
    810e:	48 29 fe             	sub    %rdi,%rsi
    8111:	48 89 f0             	mov    %rsi,%rax
    8114:	48 c1 ee 3f          	shr    $0x3f,%rsi
    8118:	48 c1 f8 03          	sar    $0x3,%rax
    811c:	48 01 c6             	add    %rax,%rsi
    811f:	48 d1 fe             	sar    %rsi
    8122:	74 14                	je     8138 <register_tm_clones+0x38>
    8124:	48 8b 05 ad 4e 01 00 	mov    0x14ead(%rip),%rax        # 1cfd8 <_ITM_registerTMCloneTable>
    812b:	48 85 c0             	test   %rax,%rax
    812e:	74 08                	je     8138 <register_tm_clones+0x38>
    8130:	ff e0                	jmpq   *%rax
    8132:	66 0f 1f 44 00 00    	nopw   0x0(%rax,%rax,1)
    8138:	c3                   	retq   
    8139:	0f 1f 80 00 00 00 00 	nopl   0x0(%rax)

0000000000008140 <__do_global_dtors_aux>:
    8140:	f3 0f 1e fa          	endbr64 
    8144:	80 3d d5 a6 01 00 00 	cmpb   $0x0,0x1a6d5(%rip)        # 22820 <completed.8061>
    814b:	75 2b                	jne    8178 <__do_global_dtors_aux+0x38>
    814d:	55                   	push   %rbp
    814e:	48 83 3d 8a 4e 01 00 	cmpq   $0x0,0x14e8a(%rip)        # 1cfe0 <__cxa_finalize@GLIBC_2.2.5>
    8155:	00 
    8156:	48 89 e5             	mov    %rsp,%rbp
    8159:	74 0c                	je     8167 <__do_global_dtors_aux+0x27>
    815b:	48 8b 3d a6 4e 01 00 	mov    0x14ea6(%rip),%rdi        # 1d008 <__dso_handle>
    8162:	e8 f9 fe ff ff       	callq  8060 <__cxa_finalize@plt>
    8167:	e8 64 ff ff ff       	callq  80d0 <deregister_tm_clones>
    816c:	c6 05 ad a6 01 00 01 	movb   $0x1,0x1a6ad(%rip)        # 22820 <completed.8061>
    8173:	5d                   	pop    %rbp
    8174:	c3                   	retq   
    8175:	0f 1f 00             	nopl   (%rax)
    8178:	c3                   	retq   
    8179:	0f 1f 80 00 00 00 00 	nopl   0x0(%rax)

0000000000008180 <frame_dummy>:
    8180:	f3 0f 1e fa          	endbr64 
    8184:	e9 77 ff ff ff       	jmpq   8100 <register_tm_clones>

0000000000008189 <platform_main_begin>:
    8189:	f3 0f 1e fa          	endbr64 
    818d:	55                   	push   %rbp
    818e:	48 89 e5             	mov    %rsp,%rbp
    8191:	90                   	nop
    8192:	5d                   	pop    %rbp
    8193:	c3                   	retq   

0000000000008194 <platform_main_end>:
    8194:	f3 0f 1e fa          	endbr64 
    8198:	55                   	push   %rbp
    8199:	48 89 e5             	mov    %rsp,%rbp
    819c:	48 83 ec 10          	sub    $0x10,%rsp
    81a0:	89 7d fc             	mov    %edi,-0x4(%rbp)
    81a3:	89 75 f8             	mov    %esi,-0x8(%rbp)
    81a6:	8b 45 fc             	mov    -0x4(%rbp),%eax
    81a9:	89 c6                	mov    %eax,%esi
    81ab:	48 8d 3d 6e fe 00 00 	lea    0xfe6e(%rip),%rdi        # 18020 <_IO_stdin_used+0x20>
    81b2:	b8 00 00 00 00       	mov    $0x0,%eax
    81b7:	e8 c4 fe ff ff       	callq  8080 <printf@plt>
    81bc:	90                   	nop
    81bd:	c9                   	leaveq 
    81be:	c3                   	retq   

00000000000081bf <safe_unary_minus_func_int8_t_s>:
    81bf:	f3 0f 1e fa          	endbr64 
    81c3:	55                   	push   %rbp
    81c4:	48 89 e5             	mov    %rsp,%rbp
    81c7:	89 f8                	mov    %edi,%eax
    81c9:	88 45 fc             	mov    %al,-0x4(%rbp)
    81cc:	0f b6 45 fc          	movzbl -0x4(%rbp),%eax
    81d0:	f7 d8                	neg    %eax
    81d2:	5d                   	pop    %rbp
    81d3:	c3                   	retq   

00000000000081d4 <safe_add_func_int8_t_s_s>:
    81d4:	f3 0f 1e fa          	endbr64 
    81d8:	55                   	push   %rbp
    81d9:	48 89 e5             	mov    %rsp,%rbp
    81dc:	89 fa                	mov    %edi,%edx
    81de:	89 f0                	mov    %esi,%eax
    81e0:	88 55 fc             	mov    %dl,-0x4(%rbp)
    81e3:	88 45 f8             	mov    %al,-0x8(%rbp)
    81e6:	0f b6 55 fc          	movzbl -0x4(%rbp),%edx
    81ea:	0f b6 45 f8          	movzbl -0x8(%rbp),%eax
    81ee:	01 d0                	add    %edx,%eax
    81f0:	5d                   	pop    %rbp
    81f1:	c3                   	retq   

00000000000081f2 <safe_sub_func_int8_t_s_s>:
    81f2:	f3 0f 1e fa          	endbr64 
    81f6:	55                   	push   %rbp
    81f7:	48 89 e5             	mov    %rsp,%rbp
    81fa:	89 fa                	mov    %edi,%edx
    81fc:	89 f0                	mov    %esi,%eax
    81fe:	88 55 fc             	mov    %dl,-0x4(%rbp)
    8201:	88 45 f8             	mov    %al,-0x8(%rbp)
    8204:	0f b6 55 fc          	movzbl -0x4(%rbp),%edx
    8208:	0f b6 45 f8          	movzbl -0x8(%rbp),%eax
    820c:	29 c2                	sub    %eax,%edx
    820e:	89 d0                	mov    %edx,%eax
    8210:	5d                   	pop    %rbp
    8211:	c3                   	retq   

0000000000008212 <safe_mul_func_int8_t_s_s>:
    8212:	f3 0f 1e fa          	endbr64 
    8216:	55                   	push   %rbp
    8217:	48 89 e5             	mov    %rsp,%rbp
    821a:	89 fa                	mov    %edi,%edx
    821c:	89 f0                	mov    %esi,%eax
    821e:	88 55 fc             	mov    %dl,-0x4(%rbp)
    8221:	88 45 f8             	mov    %al,-0x8(%rbp)
    8224:	0f b6 45 fc          	movzbl -0x4(%rbp),%eax
    8228:	0f b6 55 f8          	movzbl -0x8(%rbp),%edx
    822c:	0f af c2             	imul   %edx,%eax
    822f:	5d                   	pop    %rbp
    8230:	c3                   	retq   

0000000000008231 <safe_mod_func_int8_t_s_s>:
    8231:	f3 0f 1e fa          	endbr64 
    8235:	55                   	push   %rbp
    8236:	48 89 e5             	mov    %rsp,%rbp
    8239:	89 fa                	mov    %edi,%edx
    823b:	89 f0                	mov    %esi,%eax
    823d:	88 55 fc             	mov    %dl,-0x4(%rbp)
    8240:	88 45 f8             	mov    %al,-0x8(%rbp)
    8243:	80 7d f8 00          	cmpb   $0x0,-0x8(%rbp)
    8247:	74 1b                	je     8264 <safe_mod_func_int8_t_s_s+0x33>
    8249:	80 7d fc 80          	cmpb   $0x80,-0x4(%rbp)
    824d:	75 06                	jne    8255 <safe_mod_func_int8_t_s_s+0x24>
    824f:	80 7d f8 ff          	cmpb   $0xff,-0x8(%rbp)
    8253:	74 0f                	je     8264 <safe_mod_func_int8_t_s_s+0x33>
    8255:	0f be 45 fc          	movsbl -0x4(%rbp),%eax
    8259:	0f be 4d f8          	movsbl -0x8(%rbp),%ecx
    825d:	99                   	cltd   
    825e:	f7 f9                	idiv   %ecx
    8260:	89 d0                	mov    %edx,%eax
    8262:	eb 04                	jmp    8268 <safe_mod_func_int8_t_s_s+0x37>
    8264:	0f b6 45 fc          	movzbl -0x4(%rbp),%eax
    8268:	5d                   	pop    %rbp
    8269:	c3                   	retq   

000000000000826a <safe_div_func_int8_t_s_s>:
    826a:	f3 0f 1e fa          	endbr64 
    826e:	55                   	push   %rbp
    826f:	48 89 e5             	mov    %rsp,%rbp
    8272:	89 fa                	mov    %edi,%edx
    8274:	89 f0                	mov    %esi,%eax
    8276:	88 55 fc             	mov    %dl,-0x4(%rbp)
    8279:	88 45 f8             	mov    %al,-0x8(%rbp)
    827c:	80 7d f8 00          	cmpb   $0x0,-0x8(%rbp)
    8280:	74 19                	je     829b <safe_div_func_int8_t_s_s+0x31>
    8282:	80 7d fc 80          	cmpb   $0x80,-0x4(%rbp)
    8286:	75 06                	jne    828e <safe_div_func_int8_t_s_s+0x24>
    8288:	80 7d f8 ff          	cmpb   $0xff,-0x8(%rbp)
    828c:	74 0d                	je     829b <safe_div_func_int8_t_s_s+0x31>
    828e:	0f be 45 fc          	movsbl -0x4(%rbp),%eax
    8292:	0f be 4d f8          	movsbl -0x8(%rbp),%ecx
    8296:	99                   	cltd   
    8297:	f7 f9                	idiv   %ecx
    8299:	eb 04                	jmp    829f <safe_div_func_int8_t_s_s+0x35>
    829b:	0f b6 45 fc          	movzbl -0x4(%rbp),%eax
    829f:	5d                   	pop    %rbp
    82a0:	c3                   	retq   

00000000000082a1 <safe_lshift_func_int8_t_s_s>:
    82a1:	f3 0f 1e fa          	endbr64 
    82a5:	55                   	push   %rbp
    82a6:	48 89 e5             	mov    %rsp,%rbp
    82a9:	89 f8                	mov    %edi,%eax
    82ab:	89 75 f8             	mov    %esi,-0x8(%rbp)
    82ae:	88 45 fc             	mov    %al,-0x4(%rbp)
    82b1:	80 7d fc 00          	cmpb   $0x0,-0x4(%rbp)
    82b5:	78 31                	js     82e8 <safe_lshift_func_int8_t_s_s+0x47>
    82b7:	83 7d f8 00          	cmpl   $0x0,-0x8(%rbp)
    82bb:	78 2b                	js     82e8 <safe_lshift_func_int8_t_s_s+0x47>
    82bd:	83 7d f8 1f          	cmpl   $0x1f,-0x8(%rbp)
    82c1:	7f 25                	jg     82e8 <safe_lshift_func_int8_t_s_s+0x47>
    82c3:	0f be 55 fc          	movsbl -0x4(%rbp),%edx
    82c7:	8b 45 f8             	mov    -0x8(%rbp),%eax
    82ca:	be 7f 00 00 00       	mov    $0x7f,%esi
    82cf:	89 c1                	mov    %eax,%ecx
    82d1:	d3 fe                	sar    %cl,%esi
    82d3:	89 f0                	mov    %esi,%eax
    82d5:	39 c2                	cmp    %eax,%edx
    82d7:	7f 0f                	jg     82e8 <safe_lshift_func_int8_t_s_s+0x47>
    82d9:	0f be 55 fc          	movsbl -0x4(%rbp),%edx
    82dd:	8b 45 f8             	mov    -0x8(%rbp),%eax
    82e0:	89 c1                	mov    %eax,%ecx
    82e2:	d3 e2                	shl    %cl,%edx
    82e4:	89 d0                	mov    %edx,%eax
    82e6:	eb 04                	jmp    82ec <safe_lshift_func_int8_t_s_s+0x4b>
    82e8:	0f b6 45 fc          	movzbl -0x4(%rbp),%eax
    82ec:	5d                   	pop    %rbp
    82ed:	c3                   	retq   

00000000000082ee <safe_lshift_func_int8_t_s_u>:
    82ee:	f3 0f 1e fa          	endbr64 
    82f2:	55                   	push   %rbp
    82f3:	48 89 e5             	mov    %rsp,%rbp
    82f6:	89 f8                	mov    %edi,%eax
    82f8:	89 75 f8             	mov    %esi,-0x8(%rbp)
    82fb:	88 45 fc             	mov    %al,-0x4(%rbp)
    82fe:	80 7d fc 00          	cmpb   $0x0,-0x4(%rbp)
    8302:	78 2b                	js     832f <safe_lshift_func_int8_t_s_u+0x41>
    8304:	83 7d f8 1f          	cmpl   $0x1f,-0x8(%rbp)
    8308:	77 25                	ja     832f <safe_lshift_func_int8_t_s_u+0x41>
    830a:	0f be 55 fc          	movsbl -0x4(%rbp),%edx
    830e:	8b 45 f8             	mov    -0x8(%rbp),%eax
    8311:	be 7f 00 00 00       	mov    $0x7f,%esi
    8316:	89 c1                	mov    %eax,%ecx
    8318:	d3 fe                	sar    %cl,%esi
    831a:	89 f0                	mov    %esi,%eax
    831c:	39 c2                	cmp    %eax,%edx
    831e:	7f 0f                	jg     832f <safe_lshift_func_int8_t_s_u+0x41>
    8320:	0f be 55 fc          	movsbl -0x4(%rbp),%edx
    8324:	8b 45 f8             	mov    -0x8(%rbp),%eax
    8327:	89 c1                	mov    %eax,%ecx
    8329:	d3 e2                	shl    %cl,%edx
    832b:	89 d0                	mov    %edx,%eax
    832d:	eb 04                	jmp    8333 <safe_lshift_func_int8_t_s_u+0x45>
    832f:	0f b6 45 fc          	movzbl -0x4(%rbp),%eax
    8333:	5d                   	pop    %rbp
    8334:	c3                   	retq   

0000000000008335 <safe_rshift_func_int8_t_s_s>:
    8335:	f3 0f 1e fa          	endbr64 
    8339:	55                   	push   %rbp
    833a:	48 89 e5             	mov    %rsp,%rbp
    833d:	89 f8                	mov    %edi,%eax
    833f:	89 75 f8             	mov    %esi,-0x8(%rbp)
    8342:	88 45 fc             	mov    %al,-0x4(%rbp)
    8345:	80 7d fc 00          	cmpb   $0x0,-0x4(%rbp)
    8349:	78 1b                	js     8366 <safe_rshift_func_int8_t_s_s+0x31>
    834b:	83 7d f8 00          	cmpl   $0x0,-0x8(%rbp)
    834f:	78 15                	js     8366 <safe_rshift_func_int8_t_s_s+0x31>
    8351:	83 7d f8 1f          	cmpl   $0x1f,-0x8(%rbp)
    8355:	7f 0f                	jg     8366 <safe_rshift_func_int8_t_s_s+0x31>
    8357:	0f be 55 fc          	movsbl -0x4(%rbp),%edx
    835b:	8b 45 f8             	mov    -0x8(%rbp),%eax
    835e:	89 c1                	mov    %eax,%ecx
    8360:	d3 fa                	sar    %cl,%edx
    8362:	89 d0                	mov    %edx,%eax
    8364:	eb 04                	jmp    836a <safe_rshift_func_int8_t_s_s+0x35>
    8366:	0f b6 45 fc          	movzbl -0x4(%rbp),%eax
    836a:	5d                   	pop    %rbp
    836b:	c3                   	retq   

000000000000836c <safe_rshift_func_int8_t_s_u>:
    836c:	f3 0f 1e fa          	endbr64 
    8370:	55                   	push   %rbp
    8371:	48 89 e5             	mov    %rsp,%rbp
    8374:	89 f8                	mov    %edi,%eax
    8376:	89 75 f8             	mov    %esi,-0x8(%rbp)
    8379:	88 45 fc             	mov    %al,-0x4(%rbp)
    837c:	80 7d fc 00          	cmpb   $0x0,-0x4(%rbp)
    8380:	78 15                	js     8397 <safe_rshift_func_int8_t_s_u+0x2b>
    8382:	83 7d f8 1f          	cmpl   $0x1f,-0x8(%rbp)
    8386:	77 0f                	ja     8397 <safe_rshift_func_int8_t_s_u+0x2b>
    8388:	0f be 55 fc          	movsbl -0x4(%rbp),%edx
    838c:	8b 45 f8             	mov    -0x8(%rbp),%eax
    838f:	89 c1                	mov    %eax,%ecx
    8391:	d3 fa                	sar    %cl,%edx
    8393:	89 d0                	mov    %edx,%eax
    8395:	eb 04                	jmp    839b <safe_rshift_func_int8_t_s_u+0x2f>
    8397:	0f b6 45 fc          	movzbl -0x4(%rbp),%eax
    839b:	5d                   	pop    %rbp
    839c:	c3                   	retq   

000000000000839d <safe_unary_minus_func_int16_t_s>:
    839d:	f3 0f 1e fa          	endbr64 
    83a1:	55                   	push   %rbp
    83a2:	48 89 e5             	mov    %rsp,%rbp
    83a5:	89 f8                	mov    %edi,%eax
    83a7:	66 89 45 fc          	mov    %ax,-0x4(%rbp)
    83ab:	0f b7 45 fc          	movzwl -0x4(%rbp),%eax
    83af:	f7 d8                	neg    %eax
    83b1:	5d                   	pop    %rbp
    83b2:	c3                   	retq   

00000000000083b3 <safe_add_func_int16_t_s_s>:
    83b3:	f3 0f 1e fa          	endbr64 
    83b7:	55                   	push   %rbp
    83b8:	48 89 e5             	mov    %rsp,%rbp
    83bb:	89 fa                	mov    %edi,%edx
    83bd:	89 f0                	mov    %esi,%eax
    83bf:	66 89 55 fc          	mov    %dx,-0x4(%rbp)
    83c3:	66 89 45 f8          	mov    %ax,-0x8(%rbp)
    83c7:	0f b7 55 fc          	movzwl -0x4(%rbp),%edx
    83cb:	0f b7 45 f8          	movzwl -0x8(%rbp),%eax
    83cf:	01 d0                	add    %edx,%eax
    83d1:	5d                   	pop    %rbp
    83d2:	c3                   	retq   

00000000000083d3 <safe_sub_func_int16_t_s_s>:
    83d3:	f3 0f 1e fa          	endbr64 
    83d7:	55                   	push   %rbp
    83d8:	48 89 e5             	mov    %rsp,%rbp
    83db:	89 fa                	mov    %edi,%edx
    83dd:	89 f0                	mov    %esi,%eax
    83df:	66 89 55 fc          	mov    %dx,-0x4(%rbp)
    83e3:	66 89 45 f8          	mov    %ax,-0x8(%rbp)
    83e7:	0f b7 55 fc          	movzwl -0x4(%rbp),%edx
    83eb:	0f b7 45 f8          	movzwl -0x8(%rbp),%eax
    83ef:	29 c2                	sub    %eax,%edx
    83f1:	89 d0                	mov    %edx,%eax
    83f3:	5d                   	pop    %rbp
    83f4:	c3                   	retq   

00000000000083f5 <safe_mul_func_int16_t_s_s>:
    83f5:	f3 0f 1e fa          	endbr64 
    83f9:	55                   	push   %rbp
    83fa:	48 89 e5             	mov    %rsp,%rbp
    83fd:	89 fa                	mov    %edi,%edx
    83ff:	89 f0                	mov    %esi,%eax
    8401:	66 89 55 fc          	mov    %dx,-0x4(%rbp)
    8405:	66 89 45 f8          	mov    %ax,-0x8(%rbp)
    8409:	0f b7 55 fc          	movzwl -0x4(%rbp),%edx
    840d:	0f b7 45 f8          	movzwl -0x8(%rbp),%eax
    8411:	0f af c2             	imul   %edx,%eax
    8414:	5d                   	pop    %rbp
    8415:	c3                   	retq   

0000000000008416 <safe_mod_func_int16_t_s_s>:
    8416:	f3 0f 1e fa          	endbr64 
    841a:	55                   	push   %rbp
    841b:	48 89 e5             	mov    %rsp,%rbp
    841e:	89 fa                	mov    %edi,%edx
    8420:	89 f0                	mov    %esi,%eax
    8422:	66 89 55 fc          	mov    %dx,-0x4(%rbp)
    8426:	66 89 45 f8          	mov    %ax,-0x8(%rbp)
    842a:	66 83 7d f8 00       	cmpw   $0x0,-0x8(%rbp)
    842f:	74 1e                	je     844f <safe_mod_func_int16_t_s_s+0x39>
    8431:	66 81 7d fc 00 80    	cmpw   $0x8000,-0x4(%rbp)
    8437:	75 07                	jne    8440 <safe_mod_func_int16_t_s_s+0x2a>
    8439:	66 83 7d f8 ff       	cmpw   $0xffff,-0x8(%rbp)
    843e:	74 0f                	je     844f <safe_mod_func_int16_t_s_s+0x39>
    8440:	0f bf 45 fc          	movswl -0x4(%rbp),%eax
    8444:	0f bf 4d f8          	movswl -0x8(%rbp),%ecx
    8448:	99                   	cltd   
    8449:	f7 f9                	idiv   %ecx
    844b:	89 d0                	mov    %edx,%eax
    844d:	eb 04                	jmp    8453 <safe_mod_func_int16_t_s_s+0x3d>
    844f:	0f b7 45 fc          	movzwl -0x4(%rbp),%eax
    8453:	5d                   	pop    %rbp
    8454:	c3                   	retq   

0000000000008455 <safe_div_func_int16_t_s_s>:
    8455:	f3 0f 1e fa          	endbr64 
    8459:	55                   	push   %rbp
    845a:	48 89 e5             	mov    %rsp,%rbp
    845d:	89 fa                	mov    %edi,%edx
    845f:	89 f0                	mov    %esi,%eax
    8461:	66 89 55 fc          	mov    %dx,-0x4(%rbp)
    8465:	66 89 45 f8          	mov    %ax,-0x8(%rbp)
    8469:	66 83 7d f8 00       	cmpw   $0x0,-0x8(%rbp)
    846e:	74 1c                	je     848c <safe_div_func_int16_t_s_s+0x37>
    8470:	66 81 7d fc 00 80    	cmpw   $0x8000,-0x4(%rbp)
    8476:	75 07                	jne    847f <safe_div_func_int16_t_s_s+0x2a>
    8478:	66 83 7d f8 ff       	cmpw   $0xffff,-0x8(%rbp)
    847d:	74 0d                	je     848c <safe_div_func_int16_t_s_s+0x37>
    847f:	0f bf 45 fc          	movswl -0x4(%rbp),%eax
    8483:	0f bf 4d f8          	movswl -0x8(%rbp),%ecx
    8487:	99                   	cltd   
    8488:	f7 f9                	idiv   %ecx
    848a:	eb 04                	jmp    8490 <safe_div_func_int16_t_s_s+0x3b>
    848c:	0f b7 45 fc          	movzwl -0x4(%rbp),%eax
    8490:	5d                   	pop    %rbp
    8491:	c3                   	retq   

0000000000008492 <safe_lshift_func_int16_t_s_s>:
    8492:	f3 0f 1e fa          	endbr64 
    8496:	55                   	push   %rbp
    8497:	48 89 e5             	mov    %rsp,%rbp
    849a:	89 f8                	mov    %edi,%eax
    849c:	89 75 f8             	mov    %esi,-0x8(%rbp)
    849f:	66 89 45 fc          	mov    %ax,-0x4(%rbp)
    84a3:	66 83 7d fc 00       	cmpw   $0x0,-0x4(%rbp)
    84a8:	78 31                	js     84db <safe_lshift_func_int16_t_s_s+0x49>
    84aa:	83 7d f8 00          	cmpl   $0x0,-0x8(%rbp)
    84ae:	78 2b                	js     84db <safe_lshift_func_int16_t_s_s+0x49>
    84b0:	83 7d f8 1f          	cmpl   $0x1f,-0x8(%rbp)
    84b4:	7f 25                	jg     84db <safe_lshift_func_int16_t_s_s+0x49>
    84b6:	0f bf 55 fc          	movswl -0x4(%rbp),%edx
    84ba:	8b 45 f8             	mov    -0x8(%rbp),%eax
    84bd:	be ff 7f 00 00       	mov    $0x7fff,%esi
    84c2:	89 c1                	mov    %eax,%ecx
    84c4:	d3 fe                	sar    %cl,%esi
    84c6:	89 f0                	mov    %esi,%eax
    84c8:	39 c2                	cmp    %eax,%edx
    84ca:	7f 0f                	jg     84db <safe_lshift_func_int16_t_s_s+0x49>
    84cc:	0f bf 55 fc          	movswl -0x4(%rbp),%edx
    84d0:	8b 45 f8             	mov    -0x8(%rbp),%eax
    84d3:	89 c1                	mov    %eax,%ecx
    84d5:	d3 e2                	shl    %cl,%edx
    84d7:	89 d0                	mov    %edx,%eax
    84d9:	eb 04                	jmp    84df <safe_lshift_func_int16_t_s_s+0x4d>
    84db:	0f b7 45 fc          	movzwl -0x4(%rbp),%eax
    84df:	5d                   	pop    %rbp
    84e0:	c3                   	retq   

00000000000084e1 <safe_lshift_func_int16_t_s_u>:
    84e1:	f3 0f 1e fa          	endbr64 
    84e5:	55                   	push   %rbp
    84e6:	48 89 e5             	mov    %rsp,%rbp
    84e9:	89 f8                	mov    %edi,%eax
    84eb:	89 75 f8             	mov    %esi,-0x8(%rbp)
    84ee:	66 89 45 fc          	mov    %ax,-0x4(%rbp)
    84f2:	66 83 7d fc 00       	cmpw   $0x0,-0x4(%rbp)
    84f7:	78 2b                	js     8524 <safe_lshift_func_int16_t_s_u+0x43>
    84f9:	83 7d f8 1f          	cmpl   $0x1f,-0x8(%rbp)
    84fd:	77 25                	ja     8524 <safe_lshift_func_int16_t_s_u+0x43>
    84ff:	0f bf 55 fc          	movswl -0x4(%rbp),%edx
    8503:	8b 45 f8             	mov    -0x8(%rbp),%eax
    8506:	be ff 7f 00 00       	mov    $0x7fff,%esi
    850b:	89 c1                	mov    %eax,%ecx
    850d:	d3 fe                	sar    %cl,%esi
    850f:	89 f0                	mov    %esi,%eax
    8511:	39 c2                	cmp    %eax,%edx
    8513:	7f 0f                	jg     8524 <safe_lshift_func_int16_t_s_u+0x43>
    8515:	0f bf 55 fc          	movswl -0x4(%rbp),%edx
    8519:	8b 45 f8             	mov    -0x8(%rbp),%eax
    851c:	89 c1                	mov    %eax,%ecx
    851e:	d3 e2                	shl    %cl,%edx
    8520:	89 d0                	mov    %edx,%eax
    8522:	eb 04                	jmp    8528 <safe_lshift_func_int16_t_s_u+0x47>
    8524:	0f b7 45 fc          	movzwl -0x4(%rbp),%eax
    8528:	5d                   	pop    %rbp
    8529:	c3                   	retq   

000000000000852a <safe_rshift_func_int16_t_s_s>:
    852a:	f3 0f 1e fa          	endbr64 
    852e:	55                   	push   %rbp
    852f:	48 89 e5             	mov    %rsp,%rbp
    8532:	89 f8                	mov    %edi,%eax
    8534:	89 75 f8             	mov    %esi,-0x8(%rbp)
    8537:	66 89 45 fc          	mov    %ax,-0x4(%rbp)
    853b:	66 83 7d fc 00       	cmpw   $0x0,-0x4(%rbp)
    8540:	78 1b                	js     855d <safe_rshift_func_int16_t_s_s+0x33>
    8542:	83 7d f8 00          	cmpl   $0x0,-0x8(%rbp)
    8546:	78 15                	js     855d <safe_rshift_func_int16_t_s_s+0x33>
    8548:	83 7d f8 1f          	cmpl   $0x1f,-0x8(%rbp)
    854c:	7f 0f                	jg     855d <safe_rshift_func_int16_t_s_s+0x33>
    854e:	0f bf 55 fc          	movswl -0x4(%rbp),%edx
    8552:	8b 45 f8             	mov    -0x8(%rbp),%eax
    8555:	89 c1                	mov    %eax,%ecx
    8557:	d3 fa                	sar    %cl,%edx
    8559:	89 d0                	mov    %edx,%eax
    855b:	eb 04                	jmp    8561 <safe_rshift_func_int16_t_s_s+0x37>
    855d:	0f b7 45 fc          	movzwl -0x4(%rbp),%eax
    8561:	5d                   	pop    %rbp
    8562:	c3                   	retq   

0000000000008563 <safe_rshift_func_int16_t_s_u>:
    8563:	f3 0f 1e fa          	endbr64 
    8567:	55                   	push   %rbp
    8568:	48 89 e5             	mov    %rsp,%rbp
    856b:	89 f8                	mov    %edi,%eax
    856d:	89 75 f8             	mov    %esi,-0x8(%rbp)
    8570:	66 89 45 fc          	mov    %ax,-0x4(%rbp)
    8574:	66 83 7d fc 00       	cmpw   $0x0,-0x4(%rbp)
    8579:	78 15                	js     8590 <safe_rshift_func_int16_t_s_u+0x2d>
    857b:	83 7d f8 1f          	cmpl   $0x1f,-0x8(%rbp)
    857f:	77 0f                	ja     8590 <safe_rshift_func_int16_t_s_u+0x2d>
    8581:	0f bf 55 fc          	movswl -0x4(%rbp),%edx
    8585:	8b 45 f8             	mov    -0x8(%rbp),%eax
    8588:	89 c1                	mov    %eax,%ecx
    858a:	d3 fa                	sar    %cl,%edx
    858c:	89 d0                	mov    %edx,%eax
    858e:	eb 04                	jmp    8594 <safe_rshift_func_int16_t_s_u+0x31>
    8590:	0f b7 45 fc          	movzwl -0x4(%rbp),%eax
    8594:	5d                   	pop    %rbp
    8595:	c3                   	retq   

0000000000008596 <safe_unary_minus_func_int32_t_s>:
    8596:	f3 0f 1e fa          	endbr64 
    859a:	55                   	push   %rbp
    859b:	48 89 e5             	mov    %rsp,%rbp
    859e:	89 7d fc             	mov    %edi,-0x4(%rbp)
    85a1:	81 7d fc 00 00 00 80 	cmpl   $0x80000000,-0x4(%rbp)
    85a8:	74 07                	je     85b1 <safe_unary_minus_func_int32_t_s+0x1b>
    85aa:	8b 45 fc             	mov    -0x4(%rbp),%eax
    85ad:	f7 d8                	neg    %eax
    85af:	eb 03                	jmp    85b4 <safe_unary_minus_func_int32_t_s+0x1e>
    85b1:	8b 45 fc             	mov    -0x4(%rbp),%eax
    85b4:	5d                   	pop    %rbp
    85b5:	c3                   	retq   

00000000000085b6 <safe_add_func_int32_t_s_s>:
    85b6:	f3 0f 1e fa          	endbr64 
    85ba:	55                   	push   %rbp
    85bb:	48 89 e5             	mov    %rsp,%rbp
    85be:	89 7d fc             	mov    %edi,-0x4(%rbp)
    85c1:	89 75 f8             	mov    %esi,-0x8(%rbp)
    85c4:	83 7d fc 00          	cmpl   $0x0,-0x4(%rbp)
    85c8:	7e 13                	jle    85dd <safe_add_func_int32_t_s_s+0x27>
    85ca:	83 7d f8 00          	cmpl   $0x0,-0x8(%rbp)
    85ce:	7e 0d                	jle    85dd <safe_add_func_int32_t_s_s+0x27>
    85d0:	b8 ff ff ff 7f       	mov    $0x7fffffff,%eax
    85d5:	2b 45 f8             	sub    -0x8(%rbp),%eax
    85d8:	39 45 fc             	cmp    %eax,-0x4(%rbp)
    85db:	7f 23                	jg     8600 <safe_add_func_int32_t_s_s+0x4a>
    85dd:	83 7d fc 00          	cmpl   $0x0,-0x4(%rbp)
    85e1:	79 13                	jns    85f6 <safe_add_func_int32_t_s_s+0x40>
    85e3:	83 7d f8 00          	cmpl   $0x0,-0x8(%rbp)
    85e7:	79 0d                	jns    85f6 <safe_add_func_int32_t_s_s+0x40>
    85e9:	b8 00 00 00 80       	mov    $0x80000000,%eax
    85ee:	2b 45 f8             	sub    -0x8(%rbp),%eax
    85f1:	39 45 fc             	cmp    %eax,-0x4(%rbp)
    85f4:	7c 0a                	jl     8600 <safe_add_func_int32_t_s_s+0x4a>
    85f6:	8b 55 fc             	mov    -0x4(%rbp),%edx
    85f9:	8b 45 f8             	mov    -0x8(%rbp),%eax
    85fc:	01 d0                	add    %edx,%eax
    85fe:	eb 03                	jmp    8603 <safe_add_func_int32_t_s_s+0x4d>
    8600:	8b 45 fc             	mov    -0x4(%rbp),%eax
    8603:	5d                   	pop    %rbp
    8604:	c3                   	retq   

0000000000008605 <safe_sub_func_int32_t_s_s>:
    8605:	f3 0f 1e fa          	endbr64 
    8609:	55                   	push   %rbp
    860a:	48 89 e5             	mov    %rsp,%rbp
    860d:	89 7d fc             	mov    %edi,-0x4(%rbp)
    8610:	89 75 f8             	mov    %esi,-0x8(%rbp)
    8613:	8b 45 fc             	mov    -0x4(%rbp),%eax
    8616:	33 45 f8             	xor    -0x8(%rbp),%eax
    8619:	89 c2                	mov    %eax,%edx
    861b:	8b 45 fc             	mov    -0x4(%rbp),%eax
    861e:	33 45 f8             	xor    -0x8(%rbp),%eax
    8621:	25 00 00 00 80       	and    $0x80000000,%eax
    8626:	33 45 fc             	xor    -0x4(%rbp),%eax
    8629:	2b 45 f8             	sub    -0x8(%rbp),%eax
    862c:	33 45 f8             	xor    -0x8(%rbp),%eax
    862f:	21 d0                	and    %edx,%eax
    8631:	85 c0                	test   %eax,%eax
    8633:	78 08                	js     863d <safe_sub_func_int32_t_s_s+0x38>
    8635:	8b 45 fc             	mov    -0x4(%rbp),%eax
    8638:	2b 45 f8             	sub    -0x8(%rbp),%eax
    863b:	eb 03                	jmp    8640 <safe_sub_func_int32_t_s_s+0x3b>
    863d:	8b 45 fc             	mov    -0x4(%rbp),%eax
    8640:	5d                   	pop    %rbp
    8641:	c3                   	retq   

0000000000008642 <safe_mul_func_int32_t_s_s>:
    8642:	f3 0f 1e fa          	endbr64 
    8646:	55                   	push   %rbp
    8647:	48 89 e5             	mov    %rsp,%rbp
    864a:	89 7d fc             	mov    %edi,-0x4(%rbp)
    864d:	89 75 f8             	mov    %esi,-0x8(%rbp)
    8650:	83 7d fc 00          	cmpl   $0x0,-0x4(%rbp)
    8654:	7e 14                	jle    866a <safe_mul_func_int32_t_s_s+0x28>
    8656:	83 7d f8 00          	cmpl   $0x0,-0x8(%rbp)
    865a:	7e 0e                	jle    866a <safe_mul_func_int32_t_s_s+0x28>
    865c:	b8 ff ff ff 7f       	mov    $0x7fffffff,%eax
    8661:	99                   	cltd   
    8662:	f7 7d f8             	idivl  -0x8(%rbp)
    8665:	39 45 fc             	cmp    %eax,-0x4(%rbp)
    8668:	7f 5d                	jg     86c7 <safe_mul_func_int32_t_s_s+0x85>
    866a:	83 7d fc 00          	cmpl   $0x0,-0x4(%rbp)
    866e:	7e 14                	jle    8684 <safe_mul_func_int32_t_s_s+0x42>
    8670:	83 7d f8 00          	cmpl   $0x0,-0x8(%rbp)
    8674:	7f 0e                	jg     8684 <safe_mul_func_int32_t_s_s+0x42>
    8676:	b8 00 00 00 80       	mov    $0x80000000,%eax
    867b:	99                   	cltd   
    867c:	f7 7d fc             	idivl  -0x4(%rbp)
    867f:	39 45 f8             	cmp    %eax,-0x8(%rbp)
    8682:	7c 43                	jl     86c7 <safe_mul_func_int32_t_s_s+0x85>
    8684:	83 7d fc 00          	cmpl   $0x0,-0x4(%rbp)
    8688:	7f 14                	jg     869e <safe_mul_func_int32_t_s_s+0x5c>
    868a:	83 7d f8 00          	cmpl   $0x0,-0x8(%rbp)
    868e:	7e 0e                	jle    869e <safe_mul_func_int32_t_s_s+0x5c>
    8690:	b8 00 00 00 80       	mov    $0x80000000,%eax
    8695:	99                   	cltd   
    8696:	f7 7d f8             	idivl  -0x8(%rbp)
    8699:	39 45 fc             	cmp    %eax,-0x4(%rbp)
    869c:	7c 29                	jl     86c7 <safe_mul_func_int32_t_s_s+0x85>
    869e:	83 7d fc 00          	cmpl   $0x0,-0x4(%rbp)
    86a2:	7f 1a                	jg     86be <safe_mul_func_int32_t_s_s+0x7c>
    86a4:	83 7d f8 00          	cmpl   $0x0,-0x8(%rbp)
    86a8:	7f 14                	jg     86be <safe_mul_func_int32_t_s_s+0x7c>
    86aa:	83 7d fc 00          	cmpl   $0x0,-0x4(%rbp)
    86ae:	74 0e                	je     86be <safe_mul_func_int32_t_s_s+0x7c>
    86b0:	b8 ff ff ff 7f       	mov    $0x7fffffff,%eax
    86b5:	99                   	cltd   
    86b6:	f7 7d fc             	idivl  -0x4(%rbp)
    86b9:	39 45 f8             	cmp    %eax,-0x8(%rbp)
    86bc:	7c 09                	jl     86c7 <safe_mul_func_int32_t_s_s+0x85>
    86be:	8b 45 fc             	mov    -0x4(%rbp),%eax
    86c1:	0f af 45 f8          	imul   -0x8(%rbp),%eax
    86c5:	eb 03                	jmp    86ca <safe_mul_func_int32_t_s_s+0x88>
    86c7:	8b 45 fc             	mov    -0x4(%rbp),%eax
    86ca:	5d                   	pop    %rbp
    86cb:	c3                   	retq   

00000000000086cc <safe_mod_func_int32_t_s_s>:
    86cc:	f3 0f 1e fa          	endbr64 
    86d0:	55                   	push   %rbp
    86d1:	48 89 e5             	mov    %rsp,%rbp
    86d4:	89 7d fc             	mov    %edi,-0x4(%rbp)
    86d7:	89 75 f8             	mov    %esi,-0x8(%rbp)
    86da:	83 7d f8 00          	cmpl   $0x0,-0x8(%rbp)
    86de:	74 1a                	je     86fa <safe_mod_func_int32_t_s_s+0x2e>
    86e0:	81 7d fc 00 00 00 80 	cmpl   $0x80000000,-0x4(%rbp)
    86e7:	75 06                	jne    86ef <safe_mod_func_int32_t_s_s+0x23>
    86e9:	83 7d f8 ff          	cmpl   $0xffffffff,-0x8(%rbp)
    86ed:	74 0b                	je     86fa <safe_mod_func_int32_t_s_s+0x2e>
    86ef:	8b 45 fc             	mov    -0x4(%rbp),%eax
    86f2:	99                   	cltd   
    86f3:	f7 7d f8             	idivl  -0x8(%rbp)
    86f6:	89 d0                	mov    %edx,%eax
    86f8:	eb 03                	jmp    86fd <safe_mod_func_int32_t_s_s+0x31>
    86fa:	8b 45 fc             	mov    -0x4(%rbp),%eax
    86fd:	5d                   	pop    %rbp
    86fe:	c3                   	retq   

00000000000086ff <safe_div_func_int32_t_s_s>:
    86ff:	f3 0f 1e fa          	endbr64 
    8703:	55                   	push   %rbp
    8704:	48 89 e5             	mov    %rsp,%rbp
    8707:	89 7d fc             	mov    %edi,-0x4(%rbp)
    870a:	89 75 f8             	mov    %esi,-0x8(%rbp)
    870d:	83 7d f8 00          	cmpl   $0x0,-0x8(%rbp)
    8711:	74 18                	je     872b <safe_div_func_int32_t_s_s+0x2c>
    8713:	81 7d fc 00 00 00 80 	cmpl   $0x80000000,-0x4(%rbp)
    871a:	75 06                	jne    8722 <safe_div_func_int32_t_s_s+0x23>
    871c:	83 7d f8 ff          	cmpl   $0xffffffff,-0x8(%rbp)
    8720:	74 09                	je     872b <safe_div_func_int32_t_s_s+0x2c>
    8722:	8b 45 fc             	mov    -0x4(%rbp),%eax
    8725:	99                   	cltd   
    8726:	f7 7d f8             	idivl  -0x8(%rbp)
    8729:	eb 03                	jmp    872e <safe_div_func_int32_t_s_s+0x2f>
    872b:	8b 45 fc             	mov    -0x4(%rbp),%eax
    872e:	5d                   	pop    %rbp
    872f:	c3                   	retq   

0000000000008730 <safe_lshift_func_int32_t_s_s>:
    8730:	f3 0f 1e fa          	endbr64 
    8734:	55                   	push   %rbp
    8735:	48 89 e5             	mov    %rsp,%rbp
    8738:	89 7d fc             	mov    %edi,-0x4(%rbp)
    873b:	89 75 f8             	mov    %esi,-0x8(%rbp)
    873e:	83 7d fc 00          	cmpl   $0x0,-0x4(%rbp)
    8742:	78 2d                	js     8771 <safe_lshift_func_int32_t_s_s+0x41>
    8744:	83 7d f8 00          	cmpl   $0x0,-0x8(%rbp)
    8748:	78 27                	js     8771 <safe_lshift_func_int32_t_s_s+0x41>
    874a:	83 7d f8 1f          	cmpl   $0x1f,-0x8(%rbp)
    874e:	7f 21                	jg     8771 <safe_lshift_func_int32_t_s_s+0x41>
    8750:	8b 45 f8             	mov    -0x8(%rbp),%eax
    8753:	ba ff ff ff 7f       	mov    $0x7fffffff,%edx
    8758:	89 c1                	mov    %eax,%ecx
    875a:	d3 fa                	sar    %cl,%edx
    875c:	89 d0                	mov    %edx,%eax
    875e:	39 45 fc             	cmp    %eax,-0x4(%rbp)
    8761:	7f 0e                	jg     8771 <safe_lshift_func_int32_t_s_s+0x41>
    8763:	8b 45 f8             	mov    -0x8(%rbp),%eax
    8766:	8b 55 fc             	mov    -0x4(%rbp),%edx
    8769:	89 c1                	mov    %eax,%ecx
    876b:	d3 e2                	shl    %cl,%edx
    876d:	89 d0                	mov    %edx,%eax
    876f:	eb 03                	jmp    8774 <safe_lshift_func_int32_t_s_s+0x44>
    8771:	8b 45 fc             	mov    -0x4(%rbp),%eax
    8774:	5d                   	pop    %rbp
    8775:	c3                   	retq   

0000000000008776 <safe_lshift_func_int32_t_s_u>:
    8776:	f3 0f 1e fa          	endbr64 
    877a:	55                   	push   %rbp
    877b:	48 89 e5             	mov    %rsp,%rbp
    877e:	89 7d fc             	mov    %edi,-0x4(%rbp)
    8781:	89 75 f8             	mov    %esi,-0x8(%rbp)
    8784:	83 7d fc 00          	cmpl   $0x0,-0x4(%rbp)
    8788:	78 27                	js     87b1 <safe_lshift_func_int32_t_s_u+0x3b>
    878a:	83 7d f8 1f          	cmpl   $0x1f,-0x8(%rbp)
    878e:	77 21                	ja     87b1 <safe_lshift_func_int32_t_s_u+0x3b>
    8790:	8b 45 f8             	mov    -0x8(%rbp),%eax
    8793:	ba ff ff ff 7f       	mov    $0x7fffffff,%edx
    8798:	89 c1                	mov    %eax,%ecx
    879a:	d3 fa                	sar    %cl,%edx
    879c:	89 d0                	mov    %edx,%eax
    879e:	39 45 fc             	cmp    %eax,-0x4(%rbp)
    87a1:	7f 0e                	jg     87b1 <safe_lshift_func_int32_t_s_u+0x3b>
    87a3:	8b 45 f8             	mov    -0x8(%rbp),%eax
    87a6:	8b 55 fc             	mov    -0x4(%rbp),%edx
    87a9:	89 c1                	mov    %eax,%ecx
    87ab:	d3 e2                	shl    %cl,%edx
    87ad:	89 d0                	mov    %edx,%eax
    87af:	eb 03                	jmp    87b4 <safe_lshift_func_int32_t_s_u+0x3e>
    87b1:	8b 45 fc             	mov    -0x4(%rbp),%eax
    87b4:	5d                   	pop    %rbp
    87b5:	c3                   	retq   

00000000000087b6 <safe_rshift_func_int32_t_s_s>:
    87b6:	f3 0f 1e fa          	endbr64 
    87ba:	55                   	push   %rbp
    87bb:	48 89 e5             	mov    %rsp,%rbp
    87be:	89 7d fc             	mov    %edi,-0x4(%rbp)
    87c1:	89 75 f8             	mov    %esi,-0x8(%rbp)
    87c4:	83 7d fc 00          	cmpl   $0x0,-0x4(%rbp)
    87c8:	78 1a                	js     87e4 <safe_rshift_func_int32_t_s_s+0x2e>
    87ca:	83 7d f8 00          	cmpl   $0x0,-0x8(%rbp)
    87ce:	78 14                	js     87e4 <safe_rshift_func_int32_t_s_s+0x2e>
    87d0:	83 7d f8 1f          	cmpl   $0x1f,-0x8(%rbp)
    87d4:	7f 0e                	jg     87e4 <safe_rshift_func_int32_t_s_s+0x2e>
    87d6:	8b 45 f8             	mov    -0x8(%rbp),%eax
    87d9:	8b 55 fc             	mov    -0x4(%rbp),%edx
    87dc:	89 c1                	mov    %eax,%ecx
    87de:	d3 fa                	sar    %cl,%edx
    87e0:	89 d0                	mov    %edx,%eax
    87e2:	eb 03                	jmp    87e7 <safe_rshift_func_int32_t_s_s+0x31>
    87e4:	8b 45 fc             	mov    -0x4(%rbp),%eax
    87e7:	5d                   	pop    %rbp
    87e8:	c3                   	retq   

00000000000087e9 <safe_rshift_func_int32_t_s_u>:
    87e9:	f3 0f 1e fa          	endbr64 
    87ed:	55                   	push   %rbp
    87ee:	48 89 e5             	mov    %rsp,%rbp
    87f1:	89 7d fc             	mov    %edi,-0x4(%rbp)
    87f4:	89 75 f8             	mov    %esi,-0x8(%rbp)
    87f7:	83 7d fc 00          	cmpl   $0x0,-0x4(%rbp)
    87fb:	78 14                	js     8811 <safe_rshift_func_int32_t_s_u+0x28>
    87fd:	83 7d f8 1f          	cmpl   $0x1f,-0x8(%rbp)
    8801:	77 0e                	ja     8811 <safe_rshift_func_int32_t_s_u+0x28>
    8803:	8b 45 f8             	mov    -0x8(%rbp),%eax
    8806:	8b 55 fc             	mov    -0x4(%rbp),%edx
    8809:	89 c1                	mov    %eax,%ecx
    880b:	d3 fa                	sar    %cl,%edx
    880d:	89 d0                	mov    %edx,%eax
    880f:	eb 03                	jmp    8814 <safe_rshift_func_int32_t_s_u+0x2b>
    8811:	8b 45 fc             	mov    -0x4(%rbp),%eax
    8814:	5d                   	pop    %rbp
    8815:	c3                   	retq   

0000000000008816 <safe_unary_minus_func_int64_t_s>:
    8816:	f3 0f 1e fa          	endbr64 
    881a:	55                   	push   %rbp
    881b:	48 89 e5             	mov    %rsp,%rbp
    881e:	48 89 7d f8          	mov    %rdi,-0x8(%rbp)
    8822:	48 b8 00 00 00 00 00 	movabs $0x8000000000000000,%rax
    8829:	00 00 80 
    882c:	48 39 45 f8          	cmp    %rax,-0x8(%rbp)
    8830:	74 09                	je     883b <safe_unary_minus_func_int64_t_s+0x25>
    8832:	48 8b 45 f8          	mov    -0x8(%rbp),%rax
    8836:	48 f7 d8             	neg    %rax
    8839:	eb 04                	jmp    883f <safe_unary_minus_func_int64_t_s+0x29>
    883b:	48 8b 45 f8          	mov    -0x8(%rbp),%rax
    883f:	5d                   	pop    %rbp
    8840:	c3                   	retq   

0000000000008841 <safe_add_func_int64_t_s_s>:
    8841:	f3 0f 1e fa          	endbr64 
    8845:	55                   	push   %rbp
    8846:	48 89 e5             	mov    %rsp,%rbp
    8849:	48 89 7d f8          	mov    %rdi,-0x8(%rbp)
    884d:	48 89 75 f0          	mov    %rsi,-0x10(%rbp)
    8851:	48 83 7d f8 00       	cmpq   $0x0,-0x8(%rbp)
    8856:	7e 1b                	jle    8873 <safe_add_func_int64_t_s_s+0x32>
    8858:	48 83 7d f0 00       	cmpq   $0x0,-0x10(%rbp)
    885d:	7e 14                	jle    8873 <safe_add_func_int64_t_s_s+0x32>
    885f:	48 b8 ff ff ff ff ff 	movabs $0x7fffffffffffffff,%rax
    8866:	ff ff 7f 
    8869:	48 2b 45 f0          	sub    -0x10(%rbp),%rax
    886d:	48 39 45 f8          	cmp    %rax,-0x8(%rbp)
    8871:	7f 2f                	jg     88a2 <safe_add_func_int64_t_s_s+0x61>
    8873:	48 83 7d f8 00       	cmpq   $0x0,-0x8(%rbp)
    8878:	79 1b                	jns    8895 <safe_add_func_int64_t_s_s+0x54>
    887a:	48 83 7d f0 00       	cmpq   $0x0,-0x10(%rbp)
    887f:	79 14                	jns    8895 <safe_add_func_int64_t_s_s+0x54>
    8881:	48 b8 00 00 00 00 00 	movabs $0x8000000000000000,%rax
    8888:	00 00 80 
    888b:	48 2b 45 f0          	sub    -0x10(%rbp),%rax
    888f:	48 39 45 f8          	cmp    %rax,-0x8(%rbp)
    8893:	7c 0d                	jl     88a2 <safe_add_func_int64_t_s_s+0x61>
    8895:	48 8b 55 f8          	mov    -0x8(%rbp),%rdx
    8899:	48 8b 45 f0          	mov    -0x10(%rbp),%rax
    889d:	48 01 d0             	add    %rdx,%rax
    88a0:	eb 04                	jmp    88a6 <safe_add_func_int64_t_s_s+0x65>
    88a2:	48 8b 45 f8          	mov    -0x8(%rbp),%rax
    88a6:	5d                   	pop    %rbp
    88a7:	c3                   	retq   

00000000000088a8 <safe_sub_func_int64_t_s_s>:
    88a8:	f3 0f 1e fa          	endbr64 
    88ac:	55                   	push   %rbp
    88ad:	48 89 e5             	mov    %rsp,%rbp
    88b0:	48 89 7d f8          	mov    %rdi,-0x8(%rbp)
    88b4:	48 89 75 f0          	mov    %rsi,-0x10(%rbp)
    88b8:	48 8b 45 f8          	mov    -0x8(%rbp),%rax
    88bc:	48 33 45 f0          	xor    -0x10(%rbp),%rax
    88c0:	48 89 c2             	mov    %rax,%rdx
    88c3:	48 8b 45 f8          	mov    -0x8(%rbp),%rax
    88c7:	48 33 45 f0          	xor    -0x10(%rbp),%rax
    88cb:	48 b9 00 00 00 00 00 	movabs $0x8000000000000000,%rcx
    88d2:	00 00 80 
    88d5:	48 21 c8             	and    %rcx,%rax
    88d8:	48 33 45 f8          	xor    -0x8(%rbp),%rax
    88dc:	48 2b 45 f0          	sub    -0x10(%rbp),%rax
    88e0:	48 33 45 f0          	xor    -0x10(%rbp),%rax
    88e4:	48 21 d0             	and    %rdx,%rax
    88e7:	48 85 c0             	test   %rax,%rax
    88ea:	78 0a                	js     88f6 <safe_sub_func_int64_t_s_s+0x4e>
    88ec:	48 8b 45 f8          	mov    -0x8(%rbp),%rax
    88f0:	48 2b 45 f0          	sub    -0x10(%rbp),%rax
    88f4:	eb 04                	jmp    88fa <safe_sub_func_int64_t_s_s+0x52>
    88f6:	48 8b 45 f8          	mov    -0x8(%rbp),%rax
    88fa:	5d                   	pop    %rbp
    88fb:	c3                   	retq   

00000000000088fc <safe_mul_func_int64_t_s_s>:
    88fc:	f3 0f 1e fa          	endbr64 
    8900:	55                   	push   %rbp
    8901:	48 89 e5             	mov    %rsp,%rbp
    8904:	48 89 7d f8          	mov    %rdi,-0x8(%rbp)
    8908:	48 89 75 f0          	mov    %rsi,-0x10(%rbp)
    890c:	48 83 7d f8 00       	cmpq   $0x0,-0x8(%rbp)
    8911:	7e 1d                	jle    8930 <safe_mul_func_int64_t_s_s+0x34>
    8913:	48 83 7d f0 00       	cmpq   $0x0,-0x10(%rbp)
    8918:	7e 16                	jle    8930 <safe_mul_func_int64_t_s_s+0x34>
    891a:	48 b8 ff ff ff ff ff 	movabs $0x7fffffffffffffff,%rax
    8921:	ff ff 7f 
    8924:	48 99                	cqto   
    8926:	48 f7 7d f0          	idivq  -0x10(%rbp)
    892a:	48 39 45 f8          	cmp    %rax,-0x8(%rbp)
    892e:	7f 7e                	jg     89ae <safe_mul_func_int64_t_s_s+0xb2>
    8930:	48 83 7d f8 00       	cmpq   $0x0,-0x8(%rbp)
    8935:	7e 1d                	jle    8954 <safe_mul_func_int64_t_s_s+0x58>
    8937:	48 83 7d f0 00       	cmpq   $0x0,-0x10(%rbp)
    893c:	7f 16                	jg     8954 <safe_mul_func_int64_t_s_s+0x58>
    893e:	48 b8 00 00 00 00 00 	movabs $0x8000000000000000,%rax
    8945:	00 00 80 
    8948:	48 99                	cqto   
    894a:	48 f7 7d f8          	idivq  -0x8(%rbp)
    894e:	48 39 45 f0          	cmp    %rax,-0x10(%rbp)
    8952:	7c 5a                	jl     89ae <safe_mul_func_int64_t_s_s+0xb2>
    8954:	48 83 7d f8 00       	cmpq   $0x0,-0x8(%rbp)
    8959:	7f 1d                	jg     8978 <safe_mul_func_int64_t_s_s+0x7c>
    895b:	48 83 7d f0 00       	cmpq   $0x0,-0x10(%rbp)
    8960:	7e 16                	jle    8978 <safe_mul_func_int64_t_s_s+0x7c>
    8962:	48 b8 00 00 00 00 00 	movabs $0x8000000000000000,%rax
    8969:	00 00 80 
    896c:	48 99                	cqto   
    896e:	48 f7 7d f0          	idivq  -0x10(%rbp)
    8972:	48 39 45 f8          	cmp    %rax,-0x8(%rbp)
    8976:	7c 36                	jl     89ae <safe_mul_func_int64_t_s_s+0xb2>
    8978:	48 83 7d f8 00       	cmpq   $0x0,-0x8(%rbp)
    897d:	7f 24                	jg     89a3 <safe_mul_func_int64_t_s_s+0xa7>
    897f:	48 83 7d f0 00       	cmpq   $0x0,-0x10(%rbp)
    8984:	7f 1d                	jg     89a3 <safe_mul_func_int64_t_s_s+0xa7>
    8986:	48 83 7d f8 00       	cmpq   $0x0,-0x8(%rbp)
    898b:	74 16                	je     89a3 <safe_mul_func_int64_t_s_s+0xa7>
    898d:	48 b8 ff ff ff ff ff 	movabs $0x7fffffffffffffff,%rax
    8994:	ff ff 7f 
    8997:	48 99                	cqto   
    8999:	48 f7 7d f8          	idivq  -0x8(%rbp)
    899d:	48 39 45 f0          	cmp    %rax,-0x10(%rbp)
    89a1:	7c 0b                	jl     89ae <safe_mul_func_int64_t_s_s+0xb2>
    89a3:	48 8b 45 f8          	mov    -0x8(%rbp),%rax
    89a7:	48 0f af 45 f0       	imul   -0x10(%rbp),%rax
    89ac:	eb 04                	jmp    89b2 <safe_mul_func_int64_t_s_s+0xb6>
    89ae:	48 8b 45 f8          	mov    -0x8(%rbp),%rax
    89b2:	5d                   	pop    %rbp
    89b3:	c3                   	retq   

00000000000089b4 <safe_mod_func_int64_t_s_s>:
    89b4:	f3 0f 1e fa          	endbr64 
    89b8:	55                   	push   %rbp
    89b9:	48 89 e5             	mov    %rsp,%rbp
    89bc:	48 89 7d f8          	mov    %rdi,-0x8(%rbp)
    89c0:	48 89 75 f0          	mov    %rsi,-0x10(%rbp)
    89c4:	48 83 7d f0 00       	cmpq   $0x0,-0x10(%rbp)
    89c9:	74 26                	je     89f1 <safe_mod_func_int64_t_s_s+0x3d>
    89cb:	48 b8 00 00 00 00 00 	movabs $0x8000000000000000,%rax
    89d2:	00 00 80 
    89d5:	48 39 45 f8          	cmp    %rax,-0x8(%rbp)
    89d9:	75 07                	jne    89e2 <safe_mod_func_int64_t_s_s+0x2e>
    89db:	48 83 7d f0 ff       	cmpq   $0xffffffffffffffff,-0x10(%rbp)
    89e0:	74 0f                	je     89f1 <safe_mod_func_int64_t_s_s+0x3d>
    89e2:	48 8b 45 f8          	mov    -0x8(%rbp),%rax
    89e6:	48 99                	cqto   
    89e8:	48 f7 7d f0          	idivq  -0x10(%rbp)
    89ec:	48 89 d0             	mov    %rdx,%rax
    89ef:	eb 04                	jmp    89f5 <safe_mod_func_int64_t_s_s+0x41>
    89f1:	48 8b 45 f8          	mov    -0x8(%rbp),%rax
    89f5:	5d                   	pop    %rbp
    89f6:	c3                   	retq   

00000000000089f7 <safe_div_func_int64_t_s_s>:
    89f7:	f3 0f 1e fa          	endbr64 
    89fb:	55                   	push   %rbp
    89fc:	48 89 e5             	mov    %rsp,%rbp
    89ff:	48 89 7d f8          	mov    %rdi,-0x8(%rbp)
    8a03:	48 89 75 f0          	mov    %rsi,-0x10(%rbp)
    8a07:	48 83 7d f0 00       	cmpq   $0x0,-0x10(%rbp)
    8a0c:	74 23                	je     8a31 <safe_div_func_int64_t_s_s+0x3a>
    8a0e:	48 b8 00 00 00 00 00 	movabs $0x8000000000000000,%rax
    8a15:	00 00 80 
    8a18:	48 39 45 f8          	cmp    %rax,-0x8(%rbp)
    8a1c:	75 07                	jne    8a25 <safe_div_func_int64_t_s_s+0x2e>
    8a1e:	48 83 7d f0 ff       	cmpq   $0xffffffffffffffff,-0x10(%rbp)
    8a23:	74 0c                	je     8a31 <safe_div_func_int64_t_s_s+0x3a>
    8a25:	48 8b 45 f8          	mov    -0x8(%rbp),%rax
    8a29:	48 99                	cqto   
    8a2b:	48 f7 7d f0          	idivq  -0x10(%rbp)
    8a2f:	eb 04                	jmp    8a35 <safe_div_func_int64_t_s_s+0x3e>
    8a31:	48 8b 45 f8          	mov    -0x8(%rbp),%rax
    8a35:	5d                   	pop    %rbp
    8a36:	c3                   	retq   

0000000000008a37 <safe_lshift_func_int64_t_s_s>:
    8a37:	f3 0f 1e fa          	endbr64 
    8a3b:	55                   	push   %rbp
    8a3c:	48 89 e5             	mov    %rsp,%rbp
    8a3f:	48 89 7d f8          	mov    %rdi,-0x8(%rbp)
    8a43:	89 75 f4             	mov    %esi,-0xc(%rbp)
    8a46:	48 83 7d f8 00       	cmpq   $0x0,-0x8(%rbp)
    8a4b:	78 38                	js     8a85 <safe_lshift_func_int64_t_s_s+0x4e>
    8a4d:	83 7d f4 00          	cmpl   $0x0,-0xc(%rbp)
    8a51:	78 32                	js     8a85 <safe_lshift_func_int64_t_s_s+0x4e>
    8a53:	83 7d f4 1f          	cmpl   $0x1f,-0xc(%rbp)
    8a57:	7f 2c                	jg     8a85 <safe_lshift_func_int64_t_s_s+0x4e>
    8a59:	8b 45 f4             	mov    -0xc(%rbp),%eax
    8a5c:	48 ba ff ff ff ff ff 	movabs $0x7fffffffffffffff,%rdx
    8a63:	ff ff 7f 
    8a66:	89 c1                	mov    %eax,%ecx
    8a68:	48 d3 fa             	sar    %cl,%rdx
    8a6b:	48 89 d0             	mov    %rdx,%rax
    8a6e:	48 39 45 f8          	cmp    %rax,-0x8(%rbp)
    8a72:	7f 11                	jg     8a85 <safe_lshift_func_int64_t_s_s+0x4e>
    8a74:	8b 45 f4             	mov    -0xc(%rbp),%eax
    8a77:	48 8b 55 f8          	mov    -0x8(%rbp),%rdx
    8a7b:	89 c1                	mov    %eax,%ecx
    8a7d:	48 d3 e2             	shl    %cl,%rdx
    8a80:	48 89 d0             	mov    %rdx,%rax
    8a83:	eb 04                	jmp    8a89 <safe_lshift_func_int64_t_s_s+0x52>
    8a85:	48 8b 45 f8          	mov    -0x8(%rbp),%rax
    8a89:	5d                   	pop    %rbp
    8a8a:	c3                   	retq   

0000000000008a8b <safe_lshift_func_int64_t_s_u>:
    8a8b:	f3 0f 1e fa          	endbr64 
    8a8f:	55                   	push   %rbp
    8a90:	48 89 e5             	mov    %rsp,%rbp
    8a93:	48 89 7d f8          	mov    %rdi,-0x8(%rbp)
    8a97:	89 75 f4             	mov    %esi,-0xc(%rbp)
    8a9a:	48 83 7d f8 00       	cmpq   $0x0,-0x8(%rbp)
    8a9f:	78 32                	js     8ad3 <safe_lshift_func_int64_t_s_u+0x48>
    8aa1:	83 7d f4 1f          	cmpl   $0x1f,-0xc(%rbp)
    8aa5:	77 2c                	ja     8ad3 <safe_lshift_func_int64_t_s_u+0x48>
    8aa7:	8b 45 f4             	mov    -0xc(%rbp),%eax
    8aaa:	48 ba ff ff ff ff ff 	movabs $0x7fffffffffffffff,%rdx
    8ab1:	ff ff 7f 
    8ab4:	89 c1                	mov    %eax,%ecx
    8ab6:	48 d3 fa             	sar    %cl,%rdx
    8ab9:	48 89 d0             	mov    %rdx,%rax
    8abc:	48 39 45 f8          	cmp    %rax,-0x8(%rbp)
    8ac0:	7f 11                	jg     8ad3 <safe_lshift_func_int64_t_s_u+0x48>
    8ac2:	8b 45 f4             	mov    -0xc(%rbp),%eax
    8ac5:	48 8b 55 f8          	mov    -0x8(%rbp),%rdx
    8ac9:	89 c1                	mov    %eax,%ecx
    8acb:	48 d3 e2             	shl    %cl,%rdx
    8ace:	48 89 d0             	mov    %rdx,%rax
    8ad1:	eb 04                	jmp    8ad7 <safe_lshift_func_int64_t_s_u+0x4c>
    8ad3:	48 8b 45 f8          	mov    -0x8(%rbp),%rax
    8ad7:	5d                   	pop    %rbp
    8ad8:	c3                   	retq   

0000000000008ad9 <safe_rshift_func_int64_t_s_s>:
    8ad9:	f3 0f 1e fa          	endbr64 
    8add:	55                   	push   %rbp
    8ade:	48 89 e5             	mov    %rsp,%rbp
    8ae1:	48 89 7d f8          	mov    %rdi,-0x8(%rbp)
    8ae5:	89 75 f4             	mov    %esi,-0xc(%rbp)
    8ae8:	48 83 7d f8 00       	cmpq   $0x0,-0x8(%rbp)
    8aed:	78 1d                	js     8b0c <safe_rshift_func_int64_t_s_s+0x33>
    8aef:	83 7d f4 00          	cmpl   $0x0,-0xc(%rbp)
    8af3:	78 17                	js     8b0c <safe_rshift_func_int64_t_s_s+0x33>
    8af5:	83 7d f4 1f          	cmpl   $0x1f,-0xc(%rbp)
    8af9:	7f 11                	jg     8b0c <safe_rshift_func_int64_t_s_s+0x33>
    8afb:	8b 45 f4             	mov    -0xc(%rbp),%eax
    8afe:	48 8b 55 f8          	mov    -0x8(%rbp),%rdx
    8b02:	89 c1                	mov    %eax,%ecx
    8b04:	48 d3 fa             	sar    %cl,%rdx
    8b07:	48 89 d0             	mov    %rdx,%rax
    8b0a:	eb 04                	jmp    8b10 <safe_rshift_func_int64_t_s_s+0x37>
    8b0c:	48 8b 45 f8          	mov    -0x8(%rbp),%rax
    8b10:	5d                   	pop    %rbp
    8b11:	c3                   	retq   

0000000000008b12 <safe_rshift_func_int64_t_s_u>:
    8b12:	f3 0f 1e fa          	endbr64 
    8b16:	55                   	push   %rbp
    8b17:	48 89 e5             	mov    %rsp,%rbp
    8b1a:	48 89 7d f8          	mov    %rdi,-0x8(%rbp)
    8b1e:	89 75 f4             	mov    %esi,-0xc(%rbp)
    8b21:	48 83 7d f8 00       	cmpq   $0x0,-0x8(%rbp)
    8b26:	78 17                	js     8b3f <safe_rshift_func_int64_t_s_u+0x2d>
    8b28:	83 7d f4 1f          	cmpl   $0x1f,-0xc(%rbp)
    8b2c:	77 11                	ja     8b3f <safe_rshift_func_int64_t_s_u+0x2d>
    8b2e:	8b 45 f4             	mov    -0xc(%rbp),%eax
    8b31:	48 8b 55 f8          	mov    -0x8(%rbp),%rdx
    8b35:	89 c1                	mov    %eax,%ecx
    8b37:	48 d3 fa             	sar    %cl,%rdx
    8b3a:	48 89 d0             	mov    %rdx,%rax
    8b3d:	eb 04                	jmp    8b43 <safe_rshift_func_int64_t_s_u+0x31>
    8b3f:	48 8b 45 f8          	mov    -0x8(%rbp),%rax
    8b43:	5d                   	pop    %rbp
    8b44:	c3                   	retq   

0000000000008b45 <safe_unary_minus_func_uint8_t_u>:
    8b45:	f3 0f 1e fa          	endbr64 
    8b49:	55                   	push   %rbp
    8b4a:	48 89 e5             	mov    %rsp,%rbp
    8b4d:	89 f8                	mov    %edi,%eax
    8b4f:	88 45 fc             	mov    %al,-0x4(%rbp)
    8b52:	0f b6 45 fc          	movzbl -0x4(%rbp),%eax
    8b56:	f7 d8                	neg    %eax
    8b58:	5d                   	pop    %rbp
    8b59:	c3                   	retq   

0000000000008b5a <safe_add_func_uint8_t_u_u>:
    8b5a:	f3 0f 1e fa          	endbr64 
    8b5e:	55                   	push   %rbp
    8b5f:	48 89 e5             	mov    %rsp,%rbp
    8b62:	89 fa                	mov    %edi,%edx
    8b64:	89 f0                	mov    %esi,%eax
    8b66:	88 55 fc             	mov    %dl,-0x4(%rbp)
    8b69:	88 45 f8             	mov    %al,-0x8(%rbp)
    8b6c:	0f b6 55 fc          	movzbl -0x4(%rbp),%edx
    8b70:	0f b6 45 f8          	movzbl -0x8(%rbp),%eax
    8b74:	01 d0                	add    %edx,%eax
    8b76:	5d                   	pop    %rbp
    8b77:	c3                   	retq   

0000000000008b78 <safe_sub_func_uint8_t_u_u>:
    8b78:	f3 0f 1e fa          	endbr64 
    8b7c:	55                   	push   %rbp
    8b7d:	48 89 e5             	mov    %rsp,%rbp
    8b80:	89 fa                	mov    %edi,%edx
    8b82:	89 f0                	mov    %esi,%eax
    8b84:	88 55 fc             	mov    %dl,-0x4(%rbp)
    8b87:	88 45 f8             	mov    %al,-0x8(%rbp)
    8b8a:	0f b6 45 fc          	movzbl -0x4(%rbp),%eax
    8b8e:	2a 45 f8             	sub    -0x8(%rbp),%al
    8b91:	5d                   	pop    %rbp
    8b92:	c3                   	retq   

0000000000008b93 <safe_mul_func_uint8_t_u_u>:
    8b93:	f3 0f 1e fa          	endbr64 
    8b97:	55                   	push   %rbp
    8b98:	48 89 e5             	mov    %rsp,%rbp
    8b9b:	89 fa                	mov    %edi,%edx
    8b9d:	89 f0                	mov    %esi,%eax
    8b9f:	88 55 fc             	mov    %dl,-0x4(%rbp)
    8ba2:	88 45 f8             	mov    %al,-0x8(%rbp)
    8ba5:	0f b6 45 fc          	movzbl -0x4(%rbp),%eax
    8ba9:	f6 65 f8             	mulb   -0x8(%rbp)
    8bac:	5d                   	pop    %rbp
    8bad:	c3                   	retq   

0000000000008bae <safe_mod_func_uint8_t_u_u>:
    8bae:	f3 0f 1e fa          	endbr64 
    8bb2:	55                   	push   %rbp
    8bb3:	48 89 e5             	mov    %rsp,%rbp
    8bb6:	89 fa                	mov    %edi,%edx
    8bb8:	89 f0                	mov    %esi,%eax
    8bba:	88 55 fc             	mov    %dl,-0x4(%rbp)
    8bbd:	88 45 f8             	mov    %al,-0x8(%rbp)
    8bc0:	80 7d f8 00          	cmpb   $0x0,-0x8(%rbp)
    8bc4:	74 0f                	je     8bd5 <safe_mod_func_uint8_t_u_u+0x27>
    8bc6:	0f b6 45 fc          	movzbl -0x4(%rbp),%eax
    8bca:	0f b6 c0             	movzbl %al,%eax
    8bcd:	f6 75 f8             	divb   -0x8(%rbp)
    8bd0:	0f b6 c4             	movzbl %ah,%eax
    8bd3:	eb 04                	jmp    8bd9 <safe_mod_func_uint8_t_u_u+0x2b>
    8bd5:	0f b6 45 fc          	movzbl -0x4(%rbp),%eax
    8bd9:	5d                   	pop    %rbp
    8bda:	c3                   	retq   

0000000000008bdb <safe_div_func_uint8_t_u_u>:
    8bdb:	f3 0f 1e fa          	endbr64 
    8bdf:	55                   	push   %rbp
    8be0:	48 89 e5             	mov    %rsp,%rbp
    8be3:	89 fa                	mov    %edi,%edx
    8be5:	89 f0                	mov    %esi,%eax
    8be7:	88 55 fc             	mov    %dl,-0x4(%rbp)
    8bea:	88 45 f8             	mov    %al,-0x8(%rbp)
    8bed:	80 7d f8 00          	cmpb   $0x0,-0x8(%rbp)
    8bf1:	74 0c                	je     8bff <safe_div_func_uint8_t_u_u+0x24>
    8bf3:	0f b6 45 fc          	movzbl -0x4(%rbp),%eax
    8bf7:	0f b6 c0             	movzbl %al,%eax
    8bfa:	f6 75 f8             	divb   -0x8(%rbp)
    8bfd:	eb 04                	jmp    8c03 <safe_div_func_uint8_t_u_u+0x28>
    8bff:	0f b6 45 fc          	movzbl -0x4(%rbp),%eax
    8c03:	5d                   	pop    %rbp
    8c04:	c3                   	retq   

0000000000008c05 <safe_lshift_func_uint8_t_u_s>:
    8c05:	f3 0f 1e fa          	endbr64 
    8c09:	55                   	push   %rbp
    8c0a:	48 89 e5             	mov    %rsp,%rbp
    8c0d:	89 f8                	mov    %edi,%eax
    8c0f:	89 75 f8             	mov    %esi,-0x8(%rbp)
    8c12:	88 45 fc             	mov    %al,-0x4(%rbp)
    8c15:	83 7d f8 00          	cmpl   $0x0,-0x8(%rbp)
    8c19:	78 2b                	js     8c46 <safe_lshift_func_uint8_t_u_s+0x41>
    8c1b:	83 7d f8 1f          	cmpl   $0x1f,-0x8(%rbp)
    8c1f:	7f 25                	jg     8c46 <safe_lshift_func_uint8_t_u_s+0x41>
    8c21:	0f b6 55 fc          	movzbl -0x4(%rbp),%edx
    8c25:	8b 45 f8             	mov    -0x8(%rbp),%eax
    8c28:	be ff 00 00 00       	mov    $0xff,%esi
    8c2d:	89 c1                	mov    %eax,%ecx
    8c2f:	d3 fe                	sar    %cl,%esi
    8c31:	89 f0                	mov    %esi,%eax
    8c33:	39 c2                	cmp    %eax,%edx
    8c35:	7f 0f                	jg     8c46 <safe_lshift_func_uint8_t_u_s+0x41>
    8c37:	0f b6 55 fc          	movzbl -0x4(%rbp),%edx
    8c3b:	8b 45 f8             	mov    -0x8(%rbp),%eax
    8c3e:	89 c1                	mov    %eax,%ecx
    8c40:	d3 e2                	shl    %cl,%edx
    8c42:	89 d0                	mov    %edx,%eax
    8c44:	eb 04                	jmp    8c4a <safe_lshift_func_uint8_t_u_s+0x45>
    8c46:	0f b6 45 fc          	movzbl -0x4(%rbp),%eax
    8c4a:	5d                   	pop    %rbp
    8c4b:	c3                   	retq   

0000000000008c4c <safe_lshift_func_uint8_t_u_u>:
    8c4c:	f3 0f 1e fa          	endbr64 
    8c50:	55                   	push   %rbp
    8c51:	48 89 e5             	mov    %rsp,%rbp
    8c54:	89 f8                	mov    %edi,%eax
    8c56:	89 75 f8             	mov    %esi,-0x8(%rbp)
    8c59:	88 45 fc             	mov    %al,-0x4(%rbp)
    8c5c:	83 7d f8 1f          	cmpl   $0x1f,-0x8(%rbp)
    8c60:	77 25                	ja     8c87 <safe_lshift_func_uint8_t_u_u+0x3b>
    8c62:	0f b6 55 fc          	movzbl -0x4(%rbp),%edx
    8c66:	8b 45 f8             	mov    -0x8(%rbp),%eax
    8c69:	be ff 00 00 00       	mov    $0xff,%esi
    8c6e:	89 c1                	mov    %eax,%ecx
    8c70:	d3 fe                	sar    %cl,%esi
    8c72:	89 f0                	mov    %esi,%eax
    8c74:	39 c2                	cmp    %eax,%edx
    8c76:	7f 0f                	jg     8c87 <safe_lshift_func_uint8_t_u_u+0x3b>
    8c78:	0f b6 55 fc          	movzbl -0x4(%rbp),%edx
    8c7c:	8b 45 f8             	mov    -0x8(%rbp),%eax
    8c7f:	89 c1                	mov    %eax,%ecx
    8c81:	d3 e2                	shl    %cl,%edx
    8c83:	89 d0                	mov    %edx,%eax
    8c85:	eb 04                	jmp    8c8b <safe_lshift_func_uint8_t_u_u+0x3f>
    8c87:	0f b6 45 fc          	movzbl -0x4(%rbp),%eax
    8c8b:	5d                   	pop    %rbp
    8c8c:	c3                   	retq   

0000000000008c8d <safe_rshift_func_uint8_t_u_s>:
    8c8d:	f3 0f 1e fa          	endbr64 
    8c91:	55                   	push   %rbp
    8c92:	48 89 e5             	mov    %rsp,%rbp
    8c95:	89 f8                	mov    %edi,%eax
    8c97:	89 75 f8             	mov    %esi,-0x8(%rbp)
    8c9a:	88 45 fc             	mov    %al,-0x4(%rbp)
    8c9d:	83 7d f8 00          	cmpl   $0x0,-0x8(%rbp)
    8ca1:	78 15                	js     8cb8 <safe_rshift_func_uint8_t_u_s+0x2b>
    8ca3:	83 7d f8 1f          	cmpl   $0x1f,-0x8(%rbp)
    8ca7:	7f 0f                	jg     8cb8 <safe_rshift_func_uint8_t_u_s+0x2b>
    8ca9:	0f b6 55 fc          	movzbl -0x4(%rbp),%edx
    8cad:	8b 45 f8             	mov    -0x8(%rbp),%eax
    8cb0:	89 c1                	mov    %eax,%ecx
    8cb2:	d3 fa                	sar    %cl,%edx
    8cb4:	89 d0                	mov    %edx,%eax
    8cb6:	eb 04                	jmp    8cbc <safe_rshift_func_uint8_t_u_s+0x2f>
    8cb8:	0f b6 45 fc          	movzbl -0x4(%rbp),%eax
    8cbc:	5d                   	pop    %rbp
    8cbd:	c3                   	retq   

0000000000008cbe <safe_rshift_func_uint8_t_u_u>:
    8cbe:	f3 0f 1e fa          	endbr64 
    8cc2:	55                   	push   %rbp
    8cc3:	48 89 e5             	mov    %rsp,%rbp
    8cc6:	89 f8                	mov    %edi,%eax
    8cc8:	89 75 f8             	mov    %esi,-0x8(%rbp)
    8ccb:	88 45 fc             	mov    %al,-0x4(%rbp)
    8cce:	83 7d f8 1f          	cmpl   $0x1f,-0x8(%rbp)
    8cd2:	77 0f                	ja     8ce3 <safe_rshift_func_uint8_t_u_u+0x25>
    8cd4:	0f b6 55 fc          	movzbl -0x4(%rbp),%edx
    8cd8:	8b 45 f8             	mov    -0x8(%rbp),%eax
    8cdb:	89 c1                	mov    %eax,%ecx
    8cdd:	d3 fa                	sar    %cl,%edx
    8cdf:	89 d0                	mov    %edx,%eax
    8ce1:	eb 04                	jmp    8ce7 <safe_rshift_func_uint8_t_u_u+0x29>
    8ce3:	0f b6 45 fc          	movzbl -0x4(%rbp),%eax
    8ce7:	5d                   	pop    %rbp
    8ce8:	c3                   	retq   

0000000000008ce9 <safe_unary_minus_func_uint16_t_u>:
    8ce9:	f3 0f 1e fa          	endbr64 
    8ced:	55                   	push   %rbp
    8cee:	48 89 e5             	mov    %rsp,%rbp
    8cf1:	89 f8                	mov    %edi,%eax
    8cf3:	66 89 45 fc          	mov    %ax,-0x4(%rbp)
    8cf7:	0f b7 45 fc          	movzwl -0x4(%rbp),%eax
    8cfb:	f7 d8                	neg    %eax
    8cfd:	5d                   	pop    %rbp
    8cfe:	c3                   	retq   

0000000000008cff <safe_add_func_uint16_t_u_u>:
    8cff:	f3 0f 1e fa          	endbr64 
    8d03:	55                   	push   %rbp
    8d04:	48 89 e5             	mov    %rsp,%rbp
    8d07:	89 fa                	mov    %edi,%edx
    8d09:	89 f0                	mov    %esi,%eax
    8d0b:	66 89 55 fc          	mov    %dx,-0x4(%rbp)
    8d0f:	66 89 45 f8          	mov    %ax,-0x8(%rbp)
    8d13:	0f b7 55 fc          	movzwl -0x4(%rbp),%edx
    8d17:	0f b7 45 f8          	movzwl -0x8(%rbp),%eax
    8d1b:	01 d0                	add    %edx,%eax
    8d1d:	5d                   	pop    %rbp
    8d1e:	c3                   	retq   

0000000000008d1f <safe_sub_func_uint16_t_u_u>:
    8d1f:	f3 0f 1e fa          	endbr64 
    8d23:	55                   	push   %rbp
    8d24:	48 89 e5             	mov    %rsp,%rbp
    8d27:	89 fa                	mov    %edi,%edx
    8d29:	89 f0                	mov    %esi,%eax
    8d2b:	66 89 55 fc          	mov    %dx,-0x4(%rbp)
    8d2f:	66 89 45 f8          	mov    %ax,-0x8(%rbp)
    8d33:	0f b7 45 fc          	movzwl -0x4(%rbp),%eax
    8d37:	66 2b 45 f8          	sub    -0x8(%rbp),%ax
    8d3b:	5d                   	pop    %rbp
    8d3c:	c3                   	retq   

0000000000008d3d <safe_mul_func_uint16_t_u_u>:
    8d3d:	f3 0f 1e fa          	endbr64 
    8d41:	55                   	push   %rbp
    8d42:	48 89 e5             	mov    %rsp,%rbp
    8d45:	89 fa                	mov    %edi,%edx
    8d47:	89 f0                	mov    %esi,%eax
    8d49:	66 89 55 fc          	mov    %dx,-0x4(%rbp)
    8d4d:	66 89 45 f8          	mov    %ax,-0x8(%rbp)
    8d51:	0f b7 45 fc          	movzwl -0x4(%rbp),%eax
    8d55:	66 0f af 45 f8       	imul   -0x8(%rbp),%ax
    8d5a:	5d                   	pop    %rbp
    8d5b:	c3                   	retq   

0000000000008d5c <safe_mod_func_uint16_t_u_u>:
    8d5c:	f3 0f 1e fa          	endbr64 
    8d60:	55                   	push   %rbp
    8d61:	48 89 e5             	mov    %rsp,%rbp
    8d64:	89 fa                	mov    %edi,%edx
    8d66:	89 f0                	mov    %esi,%eax
    8d68:	66 89 55 fc          	mov    %dx,-0x4(%rbp)
    8d6c:	66 89 45 f8          	mov    %ax,-0x8(%rbp)
    8d70:	66 83 7d f8 00       	cmpw   $0x0,-0x8(%rbp)
    8d75:	74 11                	je     8d88 <safe_mod_func_uint16_t_u_u+0x2c>
    8d77:	0f b7 45 fc          	movzwl -0x4(%rbp),%eax
    8d7b:	ba 00 00 00 00       	mov    $0x0,%edx
    8d80:	66 f7 75 f8          	divw   -0x8(%rbp)
    8d84:	89 d0                	mov    %edx,%eax
    8d86:	eb 04                	jmp    8d8c <safe_mod_func_uint16_t_u_u+0x30>
    8d88:	0f b7 45 fc          	movzwl -0x4(%rbp),%eax
    8d8c:	5d                   	pop    %rbp
    8d8d:	c3                   	retq   

0000000000008d8e <safe_div_func_uint16_t_u_u>:
    8d8e:	f3 0f 1e fa          	endbr64 
    8d92:	55                   	push   %rbp
    8d93:	48 89 e5             	mov    %rsp,%rbp
    8d96:	89 fa                	mov    %edi,%edx
    8d98:	89 f0                	mov    %esi,%eax
    8d9a:	66 89 55 fc          	mov    %dx,-0x4(%rbp)
    8d9e:	66 89 45 f8          	mov    %ax,-0x8(%rbp)
    8da2:	66 83 7d f8 00       	cmpw   $0x0,-0x8(%rbp)
    8da7:	74 0f                	je     8db8 <safe_div_func_uint16_t_u_u+0x2a>
    8da9:	0f b7 45 fc          	movzwl -0x4(%rbp),%eax
    8dad:	ba 00 00 00 00       	mov    $0x0,%edx
    8db2:	66 f7 75 f8          	divw   -0x8(%rbp)
    8db6:	eb 04                	jmp    8dbc <safe_div_func_uint16_t_u_u+0x2e>
    8db8:	0f b7 45 fc          	movzwl -0x4(%rbp),%eax
    8dbc:	5d                   	pop    %rbp
    8dbd:	c3                   	retq   

0000000000008dbe <safe_lshift_func_uint16_t_u_s>:
    8dbe:	f3 0f 1e fa          	endbr64 
    8dc2:	55                   	push   %rbp
    8dc3:	48 89 e5             	mov    %rsp,%rbp
    8dc6:	89 f8                	mov    %edi,%eax
    8dc8:	89 75 f8             	mov    %esi,-0x8(%rbp)
    8dcb:	66 89 45 fc          	mov    %ax,-0x4(%rbp)
    8dcf:	83 7d f8 00          	cmpl   $0x0,-0x8(%rbp)
    8dd3:	78 2b                	js     8e00 <safe_lshift_func_uint16_t_u_s+0x42>
    8dd5:	83 7d f8 1f          	cmpl   $0x1f,-0x8(%rbp)
    8dd9:	7f 25                	jg     8e00 <safe_lshift_func_uint16_t_u_s+0x42>
    8ddb:	0f b7 55 fc          	movzwl -0x4(%rbp),%edx
    8ddf:	8b 45 f8             	mov    -0x8(%rbp),%eax
    8de2:	be ff ff 00 00       	mov    $0xffff,%esi
    8de7:	89 c1                	mov    %eax,%ecx
    8de9:	d3 fe                	sar    %cl,%esi
    8deb:	89 f0                	mov    %esi,%eax
    8ded:	39 c2                	cmp    %eax,%edx
    8def:	7f 0f                	jg     8e00 <safe_lshift_func_uint16_t_u_s+0x42>
    8df1:	0f b7 55 fc          	movzwl -0x4(%rbp),%edx
    8df5:	8b 45 f8             	mov    -0x8(%rbp),%eax
    8df8:	89 c1                	mov    %eax,%ecx
    8dfa:	d3 e2                	shl    %cl,%edx
    8dfc:	89 d0                	mov    %edx,%eax
    8dfe:	eb 04                	jmp    8e04 <safe_lshift_func_uint16_t_u_s+0x46>
    8e00:	0f b7 45 fc          	movzwl -0x4(%rbp),%eax
    8e04:	5d                   	pop    %rbp
    8e05:	c3                   	retq   

0000000000008e06 <safe_lshift_func_uint16_t_u_u>:
    8e06:	f3 0f 1e fa          	endbr64 
    8e0a:	55                   	push   %rbp
    8e0b:	48 89 e5             	mov    %rsp,%rbp
    8e0e:	89 f8                	mov    %edi,%eax
    8e10:	89 75 f8             	mov    %esi,-0x8(%rbp)
    8e13:	66 89 45 fc          	mov    %ax,-0x4(%rbp)
    8e17:	83 7d f8 1f          	cmpl   $0x1f,-0x8(%rbp)
    8e1b:	77 25                	ja     8e42 <safe_lshift_func_uint16_t_u_u+0x3c>
    8e1d:	0f b7 55 fc          	movzwl -0x4(%rbp),%edx
    8e21:	8b 45 f8             	mov    -0x8(%rbp),%eax
    8e24:	be ff ff 00 00       	mov    $0xffff,%esi
    8e29:	89 c1                	mov    %eax,%ecx
    8e2b:	d3 fe                	sar    %cl,%esi
    8e2d:	89 f0                	mov    %esi,%eax
    8e2f:	39 c2                	cmp    %eax,%edx
    8e31:	7f 0f                	jg     8e42 <safe_lshift_func_uint16_t_u_u+0x3c>
    8e33:	0f b7 55 fc          	movzwl -0x4(%rbp),%edx
    8e37:	8b 45 f8             	mov    -0x8(%rbp),%eax
    8e3a:	89 c1                	mov    %eax,%ecx
    8e3c:	d3 e2                	shl    %cl,%edx
    8e3e:	89 d0                	mov    %edx,%eax
    8e40:	eb 04                	jmp    8e46 <safe_lshift_func_uint16_t_u_u+0x40>
    8e42:	0f b7 45 fc          	movzwl -0x4(%rbp),%eax
    8e46:	5d                   	pop    %rbp
    8e47:	c3                   	retq   

0000000000008e48 <safe_rshift_func_uint16_t_u_s>:
    8e48:	f3 0f 1e fa          	endbr64 
    8e4c:	55                   	push   %rbp
    8e4d:	48 89 e5             	mov    %rsp,%rbp
    8e50:	89 f8                	mov    %edi,%eax
    8e52:	89 75 f8             	mov    %esi,-0x8(%rbp)
    8e55:	66 89 45 fc          	mov    %ax,-0x4(%rbp)
    8e59:	83 7d f8 00          	cmpl   $0x0,-0x8(%rbp)
    8e5d:	78 15                	js     8e74 <safe_rshift_func_uint16_t_u_s+0x2c>
    8e5f:	83 7d f8 1f          	cmpl   $0x1f,-0x8(%rbp)
    8e63:	7f 0f                	jg     8e74 <safe_rshift_func_uint16_t_u_s+0x2c>
    8e65:	0f b7 55 fc          	movzwl -0x4(%rbp),%edx
    8e69:	8b 45 f8             	mov    -0x8(%rbp),%eax
    8e6c:	89 c1                	mov    %eax,%ecx
    8e6e:	d3 fa                	sar    %cl,%edx
    8e70:	89 d0                	mov    %edx,%eax
    8e72:	eb 04                	jmp    8e78 <safe_rshift_func_uint16_t_u_s+0x30>
    8e74:	0f b7 45 fc          	movzwl -0x4(%rbp),%eax
    8e78:	5d                   	pop    %rbp
    8e79:	c3                   	retq   

0000000000008e7a <safe_rshift_func_uint16_t_u_u>:
    8e7a:	f3 0f 1e fa          	endbr64 
    8e7e:	55                   	push   %rbp
    8e7f:	48 89 e5             	mov    %rsp,%rbp
    8e82:	89 f8                	mov    %edi,%eax
    8e84:	89 75 f8             	mov    %esi,-0x8(%rbp)
    8e87:	66 89 45 fc          	mov    %ax,-0x4(%rbp)
    8e8b:	83 7d f8 1f          	cmpl   $0x1f,-0x8(%rbp)
    8e8f:	77 0f                	ja     8ea0 <safe_rshift_func_uint16_t_u_u+0x26>
    8e91:	0f b7 55 fc          	movzwl -0x4(%rbp),%edx
    8e95:	8b 45 f8             	mov    -0x8(%rbp),%eax
    8e98:	89 c1                	mov    %eax,%ecx
    8e9a:	d3 fa                	sar    %cl,%edx
    8e9c:	89 d0                	mov    %edx,%eax
    8e9e:	eb 04                	jmp    8ea4 <safe_rshift_func_uint16_t_u_u+0x2a>
    8ea0:	0f b7 45 fc          	movzwl -0x4(%rbp),%eax
    8ea4:	5d                   	pop    %rbp
    8ea5:	c3                   	retq   

0000000000008ea6 <safe_unary_minus_func_uint32_t_u>:
    8ea6:	f3 0f 1e fa          	endbr64 
    8eaa:	55                   	push   %rbp
    8eab:	48 89 e5             	mov    %rsp,%rbp
    8eae:	89 7d fc             	mov    %edi,-0x4(%rbp)
    8eb1:	8b 45 fc             	mov    -0x4(%rbp),%eax
    8eb4:	f7 d8                	neg    %eax
    8eb6:	5d                   	pop    %rbp
    8eb7:	c3                   	retq   

0000000000008eb8 <safe_add_func_uint32_t_u_u>:
    8eb8:	f3 0f 1e fa          	endbr64 
    8ebc:	55                   	push   %rbp
    8ebd:	48 89 e5             	mov    %rsp,%rbp
    8ec0:	89 7d fc             	mov    %edi,-0x4(%rbp)
    8ec3:	89 75 f8             	mov    %esi,-0x8(%rbp)
    8ec6:	8b 55 fc             	mov    -0x4(%rbp),%edx
    8ec9:	8b 45 f8             	mov    -0x8(%rbp),%eax
    8ecc:	01 d0                	add    %edx,%eax
    8ece:	5d                   	pop    %rbp
    8ecf:	c3                   	retq   

0000000000008ed0 <safe_sub_func_uint32_t_u_u>:
    8ed0:	f3 0f 1e fa          	endbr64 
    8ed4:	55                   	push   %rbp
    8ed5:	48 89 e5             	mov    %rsp,%rbp
    8ed8:	89 7d fc             	mov    %edi,-0x4(%rbp)
    8edb:	89 75 f8             	mov    %esi,-0x8(%rbp)
    8ede:	8b 45 fc             	mov    -0x4(%rbp),%eax
    8ee1:	2b 45 f8             	sub    -0x8(%rbp),%eax
    8ee4:	5d                   	pop    %rbp
    8ee5:	c3                   	retq   

0000000000008ee6 <safe_mul_func_uint32_t_u_u>:
    8ee6:	f3 0f 1e fa          	endbr64 
    8eea:	55                   	push   %rbp
    8eeb:	48 89 e5             	mov    %rsp,%rbp
    8eee:	89 7d fc             	mov    %edi,-0x4(%rbp)
    8ef1:	89 75 f8             	mov    %esi,-0x8(%rbp)
    8ef4:	8b 45 fc             	mov    -0x4(%rbp),%eax
    8ef7:	0f af 45 f8          	imul   -0x8(%rbp),%eax
    8efb:	5d                   	pop    %rbp
    8efc:	c3                   	retq   

0000000000008efd <safe_mod_func_uint32_t_u_u>:
    8efd:	f3 0f 1e fa          	endbr64 
    8f01:	55                   	push   %rbp
    8f02:	48 89 e5             	mov    %rsp,%rbp
    8f05:	89 7d fc             	mov    %edi,-0x4(%rbp)
    8f08:	89 75 f8             	mov    %esi,-0x8(%rbp)
    8f0b:	83 7d f8 00          	cmpl   $0x0,-0x8(%rbp)
    8f0f:	74 0f                	je     8f20 <safe_mod_func_uint32_t_u_u+0x23>
    8f11:	8b 45 fc             	mov    -0x4(%rbp),%eax
    8f14:	ba 00 00 00 00       	mov    $0x0,%edx
    8f19:	f7 75 f8             	divl   -0x8(%rbp)
    8f1c:	89 d0                	mov    %edx,%eax
    8f1e:	eb 03                	jmp    8f23 <safe_mod_func_uint32_t_u_u+0x26>
    8f20:	8b 45 fc             	mov    -0x4(%rbp),%eax
    8f23:	5d                   	pop    %rbp
    8f24:	c3                   	retq   

0000000000008f25 <safe_div_func_uint32_t_u_u>:
    8f25:	f3 0f 1e fa          	endbr64 
    8f29:	55                   	push   %rbp
    8f2a:	48 89 e5             	mov    %rsp,%rbp
    8f2d:	89 7d fc             	mov    %edi,-0x4(%rbp)
    8f30:	89 75 f8             	mov    %esi,-0x8(%rbp)
    8f33:	83 7d f8 00          	cmpl   $0x0,-0x8(%rbp)
    8f37:	74 0d                	je     8f46 <safe_div_func_uint32_t_u_u+0x21>
    8f39:	8b 45 fc             	mov    -0x4(%rbp),%eax
    8f3c:	ba 00 00 00 00       	mov    $0x0,%edx
    8f41:	f7 75 f8             	divl   -0x8(%rbp)
    8f44:	eb 03                	jmp    8f49 <safe_div_func_uint32_t_u_u+0x24>
    8f46:	8b 45 fc             	mov    -0x4(%rbp),%eax
    8f49:	5d                   	pop    %rbp
    8f4a:	c3                   	retq   

0000000000008f4b <safe_lshift_func_uint32_t_u_s>:
    8f4b:	f3 0f 1e fa          	endbr64 
    8f4f:	55                   	push   %rbp
    8f50:	48 89 e5             	mov    %rsp,%rbp
    8f53:	89 7d fc             	mov    %edi,-0x4(%rbp)
    8f56:	89 75 f8             	mov    %esi,-0x8(%rbp)
    8f59:	83 7d f8 00          	cmpl   $0x0,-0x8(%rbp)
    8f5d:	78 27                	js     8f86 <safe_lshift_func_uint32_t_u_s+0x3b>
    8f5f:	83 7d f8 1f          	cmpl   $0x1f,-0x8(%rbp)
    8f63:	7f 21                	jg     8f86 <safe_lshift_func_uint32_t_u_s+0x3b>
    8f65:	8b 45 f8             	mov    -0x8(%rbp),%eax
    8f68:	ba ff ff ff ff       	mov    $0xffffffff,%edx
    8f6d:	89 c1                	mov    %eax,%ecx
    8f6f:	d3 ea                	shr    %cl,%edx
    8f71:	89 d0                	mov    %edx,%eax
    8f73:	39 45 fc             	cmp    %eax,-0x4(%rbp)
    8f76:	77 0e                	ja     8f86 <safe_lshift_func_uint32_t_u_s+0x3b>
    8f78:	8b 45 f8             	mov    -0x8(%rbp),%eax
    8f7b:	8b 55 fc             	mov    -0x4(%rbp),%edx
    8f7e:	89 c1                	mov    %eax,%ecx
    8f80:	d3 e2                	shl    %cl,%edx
    8f82:	89 d0                	mov    %edx,%eax
    8f84:	eb 03                	jmp    8f89 <safe_lshift_func_uint32_t_u_s+0x3e>
    8f86:	8b 45 fc             	mov    -0x4(%rbp),%eax
    8f89:	5d                   	pop    %rbp
    8f8a:	c3                   	retq   

0000000000008f8b <safe_lshift_func_uint32_t_u_u>:
    8f8b:	f3 0f 1e fa          	endbr64 
    8f8f:	55                   	push   %rbp
    8f90:	48 89 e5             	mov    %rsp,%rbp
    8f93:	89 7d fc             	mov    %edi,-0x4(%rbp)
    8f96:	89 75 f8             	mov    %esi,-0x8(%rbp)
    8f99:	83 7d f8 1f          	cmpl   $0x1f,-0x8(%rbp)
    8f9d:	77 21                	ja     8fc0 <safe_lshift_func_uint32_t_u_u+0x35>
    8f9f:	8b 45 f8             	mov    -0x8(%rbp),%eax
    8fa2:	ba ff ff ff ff       	mov    $0xffffffff,%edx
    8fa7:	89 c1                	mov    %eax,%ecx
    8fa9:	d3 ea                	shr    %cl,%edx
    8fab:	89 d0                	mov    %edx,%eax
    8fad:	39 45 fc             	cmp    %eax,-0x4(%rbp)
    8fb0:	77 0e                	ja     8fc0 <safe_lshift_func_uint32_t_u_u+0x35>
    8fb2:	8b 45 f8             	mov    -0x8(%rbp),%eax
    8fb5:	8b 55 fc             	mov    -0x4(%rbp),%edx
    8fb8:	89 c1                	mov    %eax,%ecx
    8fba:	d3 e2                	shl    %cl,%edx
    8fbc:	89 d0                	mov    %edx,%eax
    8fbe:	eb 03                	jmp    8fc3 <safe_lshift_func_uint32_t_u_u+0x38>
    8fc0:	8b 45 fc             	mov    -0x4(%rbp),%eax
    8fc3:	5d                   	pop    %rbp
    8fc4:	c3                   	retq   

0000000000008fc5 <safe_rshift_func_uint32_t_u_s>:
    8fc5:	f3 0f 1e fa          	endbr64 
    8fc9:	55                   	push   %rbp
    8fca:	48 89 e5             	mov    %rsp,%rbp
    8fcd:	89 7d fc             	mov    %edi,-0x4(%rbp)
    8fd0:	89 75 f8             	mov    %esi,-0x8(%rbp)
    8fd3:	83 7d f8 00          	cmpl   $0x0,-0x8(%rbp)
    8fd7:	78 14                	js     8fed <safe_rshift_func_uint32_t_u_s+0x28>
    8fd9:	83 7d f8 1f          	cmpl   $0x1f,-0x8(%rbp)
    8fdd:	7f 0e                	jg     8fed <safe_rshift_func_uint32_t_u_s+0x28>
    8fdf:	8b 45 f8             	mov    -0x8(%rbp),%eax
    8fe2:	8b 55 fc             	mov    -0x4(%rbp),%edx
    8fe5:	89 c1                	mov    %eax,%ecx
    8fe7:	d3 ea                	shr    %cl,%edx
    8fe9:	89 d0                	mov    %edx,%eax
    8feb:	eb 03                	jmp    8ff0 <safe_rshift_func_uint32_t_u_s+0x2b>
    8fed:	8b 45 fc             	mov    -0x4(%rbp),%eax
    8ff0:	5d                   	pop    %rbp
    8ff1:	c3                   	retq   

0000000000008ff2 <safe_rshift_func_uint32_t_u_u>:
    8ff2:	f3 0f 1e fa          	endbr64 
    8ff6:	55                   	push   %rbp
    8ff7:	48 89 e5             	mov    %rsp,%rbp
    8ffa:	89 7d fc             	mov    %edi,-0x4(%rbp)
    8ffd:	89 75 f8             	mov    %esi,-0x8(%rbp)
    9000:	83 7d f8 1f          	cmpl   $0x1f,-0x8(%rbp)
    9004:	77 0e                	ja     9014 <safe_rshift_func_uint32_t_u_u+0x22>
    9006:	8b 45 f8             	mov    -0x8(%rbp),%eax
    9009:	8b 55 fc             	mov    -0x4(%rbp),%edx
    900c:	89 c1                	mov    %eax,%ecx
    900e:	d3 ea                	shr    %cl,%edx
    9010:	89 d0                	mov    %edx,%eax
    9012:	eb 03                	jmp    9017 <safe_rshift_func_uint32_t_u_u+0x25>
    9014:	8b 45 fc             	mov    -0x4(%rbp),%eax
    9017:	5d                   	pop    %rbp
    9018:	c3                   	retq   

0000000000009019 <safe_unary_minus_func_uint64_t_u>:
    9019:	f3 0f 1e fa          	endbr64 
    901d:	55                   	push   %rbp
    901e:	48 89 e5             	mov    %rsp,%rbp
    9021:	48 89 7d f8          	mov    %rdi,-0x8(%rbp)
    9025:	48 8b 45 f8          	mov    -0x8(%rbp),%rax
    9029:	48 f7 d8             	neg    %rax
    902c:	5d                   	pop    %rbp
    902d:	c3                   	retq   

000000000000902e <safe_add_func_uint64_t_u_u>:
    902e:	f3 0f 1e fa          	endbr64 
    9032:	55                   	push   %rbp
    9033:	48 89 e5             	mov    %rsp,%rbp
    9036:	48 89 7d f8          	mov    %rdi,-0x8(%rbp)
    903a:	48 89 75 f0          	mov    %rsi,-0x10(%rbp)
    903e:	48 8b 55 f8          	mov    -0x8(%rbp),%rdx
    9042:	48 8b 45 f0          	mov    -0x10(%rbp),%rax
    9046:	48 01 d0             	add    %rdx,%rax
    9049:	5d                   	pop    %rbp
    904a:	c3                   	retq   

000000000000904b <safe_sub_func_uint64_t_u_u>:
    904b:	f3 0f 1e fa          	endbr64 
    904f:	55                   	push   %rbp
    9050:	48 89 e5             	mov    %rsp,%rbp
    9053:	48 89 7d f8          	mov    %rdi,-0x8(%rbp)
    9057:	48 89 75 f0          	mov    %rsi,-0x10(%rbp)
    905b:	48 8b 45 f8          	mov    -0x8(%rbp),%rax
    905f:	48 2b 45 f0          	sub    -0x10(%rbp),%rax
    9063:	5d                   	pop    %rbp
    9064:	c3                   	retq   

0000000000009065 <safe_mul_func_uint64_t_u_u>:
    9065:	f3 0f 1e fa          	endbr64 
    9069:	55                   	push   %rbp
    906a:	48 89 e5             	mov    %rsp,%rbp
    906d:	48 89 7d f8          	mov    %rdi,-0x8(%rbp)
    9071:	48 89 75 f0          	mov    %rsi,-0x10(%rbp)
    9075:	48 8b 45 f8          	mov    -0x8(%rbp),%rax
    9079:	48 0f af 45 f0       	imul   -0x10(%rbp),%rax
    907e:	5d                   	pop    %rbp
    907f:	c3                   	retq   

0000000000009080 <safe_mod_func_uint64_t_u_u>:
    9080:	f3 0f 1e fa          	endbr64 
    9084:	55                   	push   %rbp
    9085:	48 89 e5             	mov    %rsp,%rbp
    9088:	48 89 7d f8          	mov    %rdi,-0x8(%rbp)
    908c:	48 89 75 f0          	mov    %rsi,-0x10(%rbp)
    9090:	48 83 7d f0 00       	cmpq   $0x0,-0x10(%rbp)
    9095:	74 12                	je     90a9 <safe_mod_func_uint64_t_u_u+0x29>
    9097:	48 8b 45 f8          	mov    -0x8(%rbp),%rax
    909b:	ba 00 00 00 00       	mov    $0x0,%edx
    90a0:	48 f7 75 f0          	divq   -0x10(%rbp)
    90a4:	48 89 d0             	mov    %rdx,%rax
    90a7:	eb 04                	jmp    90ad <safe_mod_func_uint64_t_u_u+0x2d>
    90a9:	48 8b 45 f8          	mov    -0x8(%rbp),%rax
    90ad:	5d                   	pop    %rbp
    90ae:	c3                   	retq   

00000000000090af <safe_div_func_uint64_t_u_u>:
    90af:	f3 0f 1e fa          	endbr64 
    90b3:	55                   	push   %rbp
    90b4:	48 89 e5             	mov    %rsp,%rbp
    90b7:	48 89 7d f8          	mov    %rdi,-0x8(%rbp)
    90bb:	48 89 75 f0          	mov    %rsi,-0x10(%rbp)
    90bf:	48 83 7d f0 00       	cmpq   $0x0,-0x10(%rbp)
    90c4:	74 0f                	je     90d5 <safe_div_func_uint64_t_u_u+0x26>
    90c6:	48 8b 45 f8          	mov    -0x8(%rbp),%rax
    90ca:	ba 00 00 00 00       	mov    $0x0,%edx
    90cf:	48 f7 75 f0          	divq   -0x10(%rbp)
    90d3:	eb 04                	jmp    90d9 <safe_div_func_uint64_t_u_u+0x2a>
    90d5:	48 8b 45 f8          	mov    -0x8(%rbp),%rax
    90d9:	5d                   	pop    %rbp
    90da:	c3                   	retq   

00000000000090db <safe_lshift_func_uint64_t_u_s>:
    90db:	f3 0f 1e fa          	endbr64 
    90df:	55                   	push   %rbp
    90e0:	48 89 e5             	mov    %rsp,%rbp
    90e3:	48 89 7d f8          	mov    %rdi,-0x8(%rbp)
    90e7:	89 75 f4             	mov    %esi,-0xc(%rbp)
    90ea:	83 7d f4 00          	cmpl   $0x0,-0xc(%rbp)
    90ee:	78 2f                	js     911f <safe_lshift_func_uint64_t_u_s+0x44>
    90f0:	83 7d f4 1f          	cmpl   $0x1f,-0xc(%rbp)
    90f4:	7f 29                	jg     911f <safe_lshift_func_uint64_t_u_s+0x44>
    90f6:	8b 45 f4             	mov    -0xc(%rbp),%eax
    90f9:	48 c7 c2 ff ff ff ff 	mov    $0xffffffffffffffff,%rdx
    9100:	89 c1                	mov    %eax,%ecx
    9102:	48 d3 ea             	shr    %cl,%rdx
    9105:	48 89 d0             	mov    %rdx,%rax
    9108:	48 39 45 f8          	cmp    %rax,-0x8(%rbp)
    910c:	77 11                	ja     911f <safe_lshift_func_uint64_t_u_s+0x44>
    910e:	8b 45 f4             	mov    -0xc(%rbp),%eax
    9111:	48 8b 55 f8          	mov    -0x8(%rbp),%rdx
    9115:	89 c1                	mov    %eax,%ecx
    9117:	48 d3 e2             	shl    %cl,%rdx
    911a:	48 89 d0             	mov    %rdx,%rax
    911d:	eb 04                	jmp    9123 <safe_lshift_func_uint64_t_u_s+0x48>
    911f:	48 8b 45 f8          	mov    -0x8(%rbp),%rax
    9123:	5d                   	pop    %rbp
    9124:	c3                   	retq   

0000000000009125 <safe_lshift_func_uint64_t_u_u>:
    9125:	f3 0f 1e fa          	endbr64 
    9129:	55                   	push   %rbp
    912a:	48 89 e5             	mov    %rsp,%rbp
    912d:	48 89 7d f8          	mov    %rdi,-0x8(%rbp)
    9131:	89 75 f4             	mov    %esi,-0xc(%rbp)
    9134:	83 7d f4 1f          	cmpl   $0x1f,-0xc(%rbp)
    9138:	77 29                	ja     9163 <safe_lshift_func_uint64_t_u_u+0x3e>
    913a:	8b 45 f4             	mov    -0xc(%rbp),%eax
    913d:	48 c7 c2 ff ff ff ff 	mov    $0xffffffffffffffff,%rdx
    9144:	89 c1                	mov    %eax,%ecx
    9146:	48 d3 ea             	shr    %cl,%rdx
    9149:	48 89 d0             	mov    %rdx,%rax
    914c:	48 39 45 f8          	cmp    %rax,-0x8(%rbp)
    9150:	77 11                	ja     9163 <safe_lshift_func_uint64_t_u_u+0x3e>
    9152:	8b 45 f4             	mov    -0xc(%rbp),%eax
    9155:	48 8b 55 f8          	mov    -0x8(%rbp),%rdx
    9159:	89 c1                	mov    %eax,%ecx
    915b:	48 d3 e2             	shl    %cl,%rdx
    915e:	48 89 d0             	mov    %rdx,%rax
    9161:	eb 04                	jmp    9167 <safe_lshift_func_uint64_t_u_u+0x42>
    9163:	48 8b 45 f8          	mov    -0x8(%rbp),%rax
    9167:	5d                   	pop    %rbp
    9168:	c3                   	retq   

0000000000009169 <safe_rshift_func_uint64_t_u_s>:
    9169:	f3 0f 1e fa          	endbr64 
    916d:	55                   	push   %rbp
    916e:	48 89 e5             	mov    %rsp,%rbp
    9171:	48 89 7d f8          	mov    %rdi,-0x8(%rbp)
    9175:	89 75 f4             	mov    %esi,-0xc(%rbp)
    9178:	83 7d f4 00          	cmpl   $0x0,-0xc(%rbp)
    917c:	78 17                	js     9195 <safe_rshift_func_uint64_t_u_s+0x2c>
    917e:	83 7d f4 1f          	cmpl   $0x1f,-0xc(%rbp)
    9182:	7f 11                	jg     9195 <safe_rshift_func_uint64_t_u_s+0x2c>
    9184:	8b 45 f4             	mov    -0xc(%rbp),%eax
    9187:	48 8b 55 f8          	mov    -0x8(%rbp),%rdx
    918b:	89 c1                	mov    %eax,%ecx
    918d:	48 d3 ea             	shr    %cl,%rdx
    9190:	48 89 d0             	mov    %rdx,%rax
    9193:	eb 04                	jmp    9199 <safe_rshift_func_uint64_t_u_s+0x30>
    9195:	48 8b 45 f8          	mov    -0x8(%rbp),%rax
    9199:	5d                   	pop    %rbp
    919a:	c3                   	retq   

000000000000919b <safe_rshift_func_uint64_t_u_u>:
    919b:	f3 0f 1e fa          	endbr64 
    919f:	55                   	push   %rbp
    91a0:	48 89 e5             	mov    %rsp,%rbp
    91a3:	48 89 7d f8          	mov    %rdi,-0x8(%rbp)
    91a7:	89 75 f4             	mov    %esi,-0xc(%rbp)
    91aa:	83 7d f4 1f          	cmpl   $0x1f,-0xc(%rbp)
    91ae:	77 11                	ja     91c1 <safe_rshift_func_uint64_t_u_u+0x26>
    91b0:	8b 45 f4             	mov    -0xc(%rbp),%eax
    91b3:	48 8b 55 f8          	mov    -0x8(%rbp),%rdx
    91b7:	89 c1                	mov    %eax,%ecx
    91b9:	48 d3 ea             	shr    %cl,%rdx
    91bc:	48 89 d0             	mov    %rdx,%rax
    91bf:	eb 04                	jmp    91c5 <safe_rshift_func_uint64_t_u_u+0x2a>
    91c1:	48 8b 45 f8          	mov    -0x8(%rbp),%rax
    91c5:	5d                   	pop    %rbp
    91c6:	c3                   	retq   

00000000000091c7 <safe_add_func_float_f_f>:
    91c7:	f3 0f 1e fa          	endbr64 
    91cb:	55                   	push   %rbp
    91cc:	48 89 e5             	mov    %rsp,%rbp
    91cf:	f3 0f 11 45 fc       	movss  %xmm0,-0x4(%rbp)
    91d4:	f3 0f 11 4d f8       	movss  %xmm1,-0x8(%rbp)
    91d9:	f3 0f 10 4d fc       	movss  -0x4(%rbp),%xmm1
    91de:	f3 0f 10 05 4e 10 01 	movss  0x1104e(%rip),%xmm0        # 1a234 <l_931.4546+0x6>
    91e5:	00 
    91e6:	f3 0f 59 c8          	mulss  %xmm0,%xmm1
    91ea:	f3 0f 10 55 f8       	movss  -0x8(%rbp),%xmm2
    91ef:	f3 0f 10 05 3d 10 01 	movss  0x1103d(%rip),%xmm0        # 1a234 <l_931.4546+0x6>
    91f6:	00 
    91f7:	f3 0f 59 c2          	mulss  %xmm2,%xmm0
    91fb:	f3 0f 58 c1          	addss  %xmm1,%xmm0
    91ff:	f3 0f 10 0d 39 10 01 	movss  0x11039(%rip),%xmm1        # 1a240 <l_931.4546+0x12>
    9206:	00 
    9207:	0f 54 c1             	andps  %xmm1,%xmm0
    920a:	0f 2f 05 3f 10 01 00 	comiss 0x1103f(%rip),%xmm0        # 1a250 <l_931.4546+0x22>
    9211:	76 07                	jbe    921a <safe_add_func_float_f_f+0x53>
    9213:	f3 0f 10 45 fc       	movss  -0x4(%rbp),%xmm0
    9218:	eb 0a                	jmp    9224 <safe_add_func_float_f_f+0x5d>
    921a:	f3 0f 10 45 fc       	movss  -0x4(%rbp),%xmm0
    921f:	f3 0f 58 45 f8       	addss  -0x8(%rbp),%xmm0
    9224:	5d                   	pop    %rbp
    9225:	c3                   	retq   

0000000000009226 <safe_sub_func_float_f_f>:
    9226:	f3 0f 1e fa          	endbr64 
    922a:	55                   	push   %rbp
    922b:	48 89 e5             	mov    %rsp,%rbp
    922e:	f3 0f 11 45 fc       	movss  %xmm0,-0x4(%rbp)
    9233:	f3 0f 11 4d f8       	movss  %xmm1,-0x8(%rbp)
    9238:	f3 0f 10 4d fc       	movss  -0x4(%rbp),%xmm1
    923d:	f3 0f 10 05 ef 0f 01 	movss  0x10fef(%rip),%xmm0        # 1a234 <l_931.4546+0x6>
    9244:	00 
    9245:	f3 0f 59 c1          	mulss  %xmm1,%xmm0
    9249:	f3 0f 10 55 f8       	movss  -0x8(%rbp),%xmm2
    924e:	f3 0f 10 0d de 0f 01 	movss  0x10fde(%rip),%xmm1        # 1a234 <l_931.4546+0x6>
    9255:	00 
    9256:	f3 0f 59 ca          	mulss  %xmm2,%xmm1
    925a:	f3 0f 5c c1          	subss  %xmm1,%xmm0
    925e:	f3 0f 10 0d da 0f 01 	movss  0x10fda(%rip),%xmm1        # 1a240 <l_931.4546+0x12>
    9265:	00 
    9266:	0f 54 c1             	andps  %xmm1,%xmm0
    9269:	0f 2f 05 e0 0f 01 00 	comiss 0x10fe0(%rip),%xmm0        # 1a250 <l_931.4546+0x22>
    9270:	76 07                	jbe    9279 <safe_sub_func_float_f_f+0x53>
    9272:	f3 0f 10 45 fc       	movss  -0x4(%rbp),%xmm0
    9277:	eb 0a                	jmp    9283 <safe_sub_func_float_f_f+0x5d>
    9279:	f3 0f 10 45 fc       	movss  -0x4(%rbp),%xmm0
    927e:	f3 0f 5c 45 f8       	subss  -0x8(%rbp),%xmm0
    9283:	5d                   	pop    %rbp
    9284:	c3                   	retq   

0000000000009285 <safe_mul_func_float_f_f>:
    9285:	f3 0f 1e fa          	endbr64 
    9289:	55                   	push   %rbp
    928a:	48 89 e5             	mov    %rsp,%rbp
    928d:	f3 0f 11 45 fc       	movss  %xmm0,-0x4(%rbp)
    9292:	f3 0f 11 4d f8       	movss  %xmm1,-0x8(%rbp)
    9297:	f3 0f 10 4d fc       	movss  -0x4(%rbp),%xmm1
    929c:	f3 0f 10 05 b0 0f 01 	movss  0x10fb0(%rip),%xmm0        # 1a254 <l_931.4546+0x26>
    92a3:	00 
    92a4:	f3 0f 59 c8          	mulss  %xmm0,%xmm1
    92a8:	f3 0f 10 55 f8       	movss  -0x8(%rbp),%xmm2
    92ad:	f3 0f 10 05 a3 0f 01 	movss  0x10fa3(%rip),%xmm0        # 1a258 <l_931.4546+0x2a>
    92b4:	00 
    92b5:	f3 0f 59 c2          	mulss  %xmm2,%xmm0
    92b9:	f3 0f 59 c1          	mulss  %xmm1,%xmm0
    92bd:	f3 0f 10 0d 7b 0f 01 	movss  0x10f7b(%rip),%xmm1        # 1a240 <l_931.4546+0x12>
    92c4:	00 
    92c5:	0f 54 c1             	andps  %xmm1,%xmm0
    92c8:	0f 2f 05 8d 0f 01 00 	comiss 0x10f8d(%rip),%xmm0        # 1a25c <l_931.4546+0x2e>
    92cf:	76 07                	jbe    92d8 <safe_mul_func_float_f_f+0x53>
    92d1:	f3 0f 10 45 fc       	movss  -0x4(%rbp),%xmm0
    92d6:	eb 0a                	jmp    92e2 <safe_mul_func_float_f_f+0x5d>
    92d8:	f3 0f 10 45 fc       	movss  -0x4(%rbp),%xmm0
    92dd:	f3 0f 59 45 f8       	mulss  -0x8(%rbp),%xmm0
    92e2:	5d                   	pop    %rbp
    92e3:	c3                   	retq   

00000000000092e4 <safe_div_func_float_f_f>:
    92e4:	f3 0f 1e fa          	endbr64 
    92e8:	55                   	push   %rbp
    92e9:	48 89 e5             	mov    %rsp,%rbp
    92ec:	f3 0f 11 45 fc       	movss  %xmm0,-0x4(%rbp)
    92f1:	f3 0f 11 4d f8       	movss  %xmm1,-0x8(%rbp)
    92f6:	f3 0f 10 45 f8       	movss  -0x8(%rbp),%xmm0
    92fb:	f3 0f 10 0d 3d 0f 01 	movss  0x10f3d(%rip),%xmm1        # 1a240 <l_931.4546+0x12>
    9302:	00 
    9303:	0f 54 c8             	andps  %xmm0,%xmm1
    9306:	f3 0f 10 05 52 0f 01 	movss  0x10f52(%rip),%xmm0        # 1a260 <l_931.4546+0x32>
    930d:	00 
    930e:	0f 2f c1             	comiss %xmm1,%xmm0
    9311:	0f 97 c0             	seta   %al
    9314:	83 f0 01             	xor    $0x1,%eax
    9317:	84 c0                	test   %al,%al
    9319:	75 56                	jne    9371 <safe_div_func_float_f_f+0x8d>
    931b:	66 0f ef c0          	pxor   %xmm0,%xmm0
    931f:	0f 2e 45 f8          	ucomiss -0x8(%rbp),%xmm0
    9323:	7a 0a                	jp     932f <safe_div_func_float_f_f+0x4b>
    9325:	66 0f ef c0          	pxor   %xmm0,%xmm0
    9329:	0f 2e 45 f8          	ucomiss -0x8(%rbp),%xmm0
    932d:	74 4e                	je     937d <safe_div_func_float_f_f+0x99>
    932f:	f3 0f 10 4d fc       	movss  -0x4(%rbp),%xmm1
    9334:	f3 0f 10 05 28 0f 01 	movss  0x10f28(%rip),%xmm0        # 1a264 <l_931.4546+0x36>
    933b:	00 
    933c:	f3 0f 59 c1          	mulss  %xmm1,%xmm0
    9340:	f3 0f 10 55 f8       	movss  -0x8(%rbp),%xmm2
    9345:	f3 0f 10 0d 1b 0f 01 	movss  0x10f1b(%rip),%xmm1        # 1a268 <l_931.4546+0x3a>
    934c:	00 
    934d:	f3 0f 59 ca          	mulss  %xmm2,%xmm1
    9351:	f3 0f 5e c1          	divss  %xmm1,%xmm0
    9355:	f3 0f 10 0d e3 0e 01 	movss  0x10ee3(%rip),%xmm1        # 1a240 <l_931.4546+0x12>
    935c:	00 
    935d:	0f 54 c1             	andps  %xmm1,%xmm0
    9360:	0f 2f 05 05 0f 01 00 	comiss 0x10f05(%rip),%xmm0        # 1a26c <l_931.4546+0x3e>
    9367:	0f 97 c0             	seta   %al
    936a:	83 f0 01             	xor    $0x1,%eax
    936d:	84 c0                	test   %al,%al
    936f:	74 0c                	je     937d <safe_div_func_float_f_f+0x99>
    9371:	f3 0f 10 45 fc       	movss  -0x4(%rbp),%xmm0
    9376:	f3 0f 5e 45 f8       	divss  -0x8(%rbp),%xmm0
    937b:	eb 05                	jmp    9382 <safe_div_func_float_f_f+0x9e>
    937d:	f3 0f 10 45 fc       	movss  -0x4(%rbp),%xmm0
    9382:	5d                   	pop    %rbp
    9383:	c3                   	retq   

0000000000009384 <safe_add_func_double_f_f>:
    9384:	f3 0f 1e fa          	endbr64 
    9388:	55                   	push   %rbp
    9389:	48 89 e5             	mov    %rsp,%rbp
    938c:	f2 0f 11 45 f8       	movsd  %xmm0,-0x8(%rbp)
    9391:	f2 0f 11 4d f0       	movsd  %xmm1,-0x10(%rbp)
    9396:	f2 0f 10 4d f8       	movsd  -0x8(%rbp),%xmm1
    939b:	f2 0f 10 05 cd 0e 01 	movsd  0x10ecd(%rip),%xmm0        # 1a270 <l_931.4546+0x42>
    93a2:	00 
    93a3:	f2 0f 59 c8          	mulsd  %xmm0,%xmm1
    93a7:	f2 0f 10 55 f0       	movsd  -0x10(%rbp),%xmm2
    93ac:	f2 0f 10 05 bc 0e 01 	movsd  0x10ebc(%rip),%xmm0        # 1a270 <l_931.4546+0x42>
    93b3:	00 
    93b4:	f2 0f 59 c2          	mulsd  %xmm2,%xmm0
    93b8:	f2 0f 58 c1          	addsd  %xmm1,%xmm0
    93bc:	f3 0f 7e 0d bc 0e 01 	movq   0x10ebc(%rip),%xmm1        # 1a280 <l_931.4546+0x52>
    93c3:	00 
    93c4:	66 0f 54 c1          	andpd  %xmm1,%xmm0
    93c8:	66 0f 2f 05 c0 0e 01 	comisd 0x10ec0(%rip),%xmm0        # 1a290 <l_931.4546+0x62>
    93cf:	00 
    93d0:	76 07                	jbe    93d9 <safe_add_func_double_f_f+0x55>
    93d2:	f2 0f 10 45 f8       	movsd  -0x8(%rbp),%xmm0
    93d7:	eb 0a                	jmp    93e3 <safe_add_func_double_f_f+0x5f>
    93d9:	f2 0f 10 45 f8       	movsd  -0x8(%rbp),%xmm0
    93de:	f2 0f 58 45 f0       	addsd  -0x10(%rbp),%xmm0
    93e3:	5d                   	pop    %rbp
    93e4:	c3                   	retq   

00000000000093e5 <safe_sub_func_double_f_f>:
    93e5:	f3 0f 1e fa          	endbr64 
    93e9:	55                   	push   %rbp
    93ea:	48 89 e5             	mov    %rsp,%rbp
    93ed:	f2 0f 11 45 f8       	movsd  %xmm0,-0x8(%rbp)
    93f2:	f2 0f 11 4d f0       	movsd  %xmm1,-0x10(%rbp)
    93f7:	f2 0f 10 4d f8       	movsd  -0x8(%rbp),%xmm1
    93fc:	f2 0f 10 05 6c 0e 01 	movsd  0x10e6c(%rip),%xmm0        # 1a270 <l_931.4546+0x42>
    9403:	00 
    9404:	f2 0f 59 c1          	mulsd  %xmm1,%xmm0
    9408:	f2 0f 10 55 f0       	movsd  -0x10(%rbp),%xmm2
    940d:	f2 0f 10 0d 5b 0e 01 	movsd  0x10e5b(%rip),%xmm1        # 1a270 <l_931.4546+0x42>
    9414:	00 
    9415:	f2 0f 59 ca          	mulsd  %xmm2,%xmm1
    9419:	f2 0f 5c c1          	subsd  %xmm1,%xmm0
    941d:	f3 0f 7e 0d 5b 0e 01 	movq   0x10e5b(%rip),%xmm1        # 1a280 <l_931.4546+0x52>
    9424:	00 
    9425:	66 0f 54 c1          	andpd  %xmm1,%xmm0
    9429:	66 0f 2f 05 5f 0e 01 	comisd 0x10e5f(%rip),%xmm0        # 1a290 <l_931.4546+0x62>
    9430:	00 
    9431:	76 07                	jbe    943a <safe_sub_func_double_f_f+0x55>
    9433:	f2 0f 10 45 f8       	movsd  -0x8(%rbp),%xmm0
    9438:	eb 0a                	jmp    9444 <safe_sub_func_double_f_f+0x5f>
    943a:	f2 0f 10 45 f8       	movsd  -0x8(%rbp),%xmm0
    943f:	f2 0f 5c 45 f0       	subsd  -0x10(%rbp),%xmm0
    9444:	5d                   	pop    %rbp
    9445:	c3                   	retq   

0000000000009446 <safe_mul_func_double_f_f>:
    9446:	f3 0f 1e fa          	endbr64 
    944a:	55                   	push   %rbp
    944b:	48 89 e5             	mov    %rsp,%rbp
    944e:	f2 0f 11 45 f8       	movsd  %xmm0,-0x8(%rbp)
    9453:	f2 0f 11 4d f0       	movsd  %xmm1,-0x10(%rbp)
    9458:	f2 0f 10 4d f8       	movsd  -0x8(%rbp),%xmm1
    945d:	f2 0f 10 05 33 0e 01 	movsd  0x10e33(%rip),%xmm0        # 1a298 <l_931.4546+0x6a>
    9464:	00 
    9465:	f2 0f 59 c8          	mulsd  %xmm0,%xmm1
    9469:	f2 0f 10 55 f0       	movsd  -0x10(%rbp),%xmm2
    946e:	f2 0f 10 05 2a 0e 01 	movsd  0x10e2a(%rip),%xmm0        # 1a2a0 <l_931.4546+0x72>
    9475:	00 
    9476:	f2 0f 59 c2          	mulsd  %xmm2,%xmm0
    947a:	f2 0f 59 c1          	mulsd  %xmm1,%xmm0
    947e:	f3 0f 7e 0d fa 0d 01 	movq   0x10dfa(%rip),%xmm1        # 1a280 <l_931.4546+0x52>
    9485:	00 
    9486:	66 0f 54 c1          	andpd  %xmm1,%xmm0
    948a:	66 0f 2f 05 16 0e 01 	comisd 0x10e16(%rip),%xmm0        # 1a2a8 <l_931.4546+0x7a>
    9491:	00 
    9492:	76 07                	jbe    949b <safe_mul_func_double_f_f+0x55>
    9494:	f2 0f 10 45 f8       	movsd  -0x8(%rbp),%xmm0
    9499:	eb 0a                	jmp    94a5 <safe_mul_func_double_f_f+0x5f>
    949b:	f2 0f 10 45 f8       	movsd  -0x8(%rbp),%xmm0
    94a0:	f2 0f 59 45 f0       	mulsd  -0x10(%rbp),%xmm0
    94a5:	5d                   	pop    %rbp
    94a6:	c3                   	retq   

00000000000094a7 <safe_div_func_double_f_f>:
    94a7:	f3 0f 1e fa          	endbr64 
    94ab:	55                   	push   %rbp
    94ac:	48 89 e5             	mov    %rsp,%rbp
    94af:	f2 0f 11 45 f8       	movsd  %xmm0,-0x8(%rbp)
    94b4:	f2 0f 11 4d f0       	movsd  %xmm1,-0x10(%rbp)
    94b9:	f2 0f 10 45 f0       	movsd  -0x10(%rbp),%xmm0
    94be:	f3 0f 7e 0d ba 0d 01 	movq   0x10dba(%rip),%xmm1        # 1a280 <l_931.4546+0x52>
    94c5:	00 
    94c6:	66 0f 54 c8          	andpd  %xmm0,%xmm1
    94ca:	f2 0f 10 05 de 0d 01 	movsd  0x10dde(%rip),%xmm0        # 1a2b0 <l_931.4546+0x82>
    94d1:	00 
    94d2:	66 0f 2f c1          	comisd %xmm1,%xmm0
    94d6:	0f 97 c0             	seta   %al
    94d9:	83 f0 01             	xor    $0x1,%eax
    94dc:	84 c0                	test   %al,%al
    94de:	75 5a                	jne    953a <safe_div_func_double_f_f+0x93>
    94e0:	66 0f ef c0          	pxor   %xmm0,%xmm0
    94e4:	66 0f 2e 45 f0       	ucomisd -0x10(%rbp),%xmm0
    94e9:	7a 0b                	jp     94f6 <safe_div_func_double_f_f+0x4f>
    94eb:	66 0f ef c0          	pxor   %xmm0,%xmm0
    94ef:	66 0f 2e 45 f0       	ucomisd -0x10(%rbp),%xmm0
    94f4:	74 50                	je     9546 <safe_div_func_double_f_f+0x9f>
    94f6:	f2 0f 10 4d f8       	movsd  -0x8(%rbp),%xmm1
    94fb:	f2 0f 10 05 b5 0d 01 	movsd  0x10db5(%rip),%xmm0        # 1a2b8 <l_931.4546+0x8a>
    9502:	00 
    9503:	f2 0f 59 c1          	mulsd  %xmm1,%xmm0
    9507:	f2 0f 10 55 f0       	movsd  -0x10(%rbp),%xmm2
    950c:	f2 0f 10 0d ac 0d 01 	movsd  0x10dac(%rip),%xmm1        # 1a2c0 <l_931.4546+0x92>
    9513:	00 
    9514:	f2 0f 59 ca          	mulsd  %xmm2,%xmm1
    9518:	f2 0f 5e c1          	divsd  %xmm1,%xmm0
    951c:	f3 0f 7e 0d 5c 0d 01 	movq   0x10d5c(%rip),%xmm1        # 1a280 <l_931.4546+0x52>
    9523:	00 
    9524:	66 0f 54 c1          	andpd  %xmm1,%xmm0
    9528:	66 0f 2f 05 98 0d 01 	comisd 0x10d98(%rip),%xmm0        # 1a2c8 <l_931.4546+0x9a>
    952f:	00 
    9530:	0f 97 c0             	seta   %al
    9533:	83 f0 01             	xor    $0x1,%eax
    9536:	84 c0                	test   %al,%al
    9538:	74 0c                	je     9546 <safe_div_func_double_f_f+0x9f>
    953a:	f2 0f 10 45 f8       	movsd  -0x8(%rbp),%xmm0
    953f:	f2 0f 5e 45 f0       	divsd  -0x10(%rbp),%xmm0
    9544:	eb 05                	jmp    954b <safe_div_func_double_f_f+0xa4>
    9546:	f2 0f 10 45 f8       	movsd  -0x8(%rbp),%xmm0
    954b:	5d                   	pop    %rbp
    954c:	c3                   	retq   

000000000000954d <safe_convert_func_float_to_int32_t>:
    954d:	f3 0f 1e fa          	endbr64 
    9551:	55                   	push   %rbp
    9552:	48 89 e5             	mov    %rsp,%rbp
    9555:	f3 0f 11 45 fc       	movss  %xmm0,-0x4(%rbp)
    955a:	f3 0f 10 05 6e 0d 01 	movss  0x10d6e(%rip),%xmm0        # 1a2d0 <l_931.4546+0xa2>
    9561:	00 
    9562:	0f 2f 45 fc          	comiss -0x4(%rbp),%xmm0
    9566:	0f 93 c0             	setae  %al
    9569:	83 f0 01             	xor    $0x1,%eax
    956c:	84 c0                	test   %al,%al
    956e:	74 21                	je     9591 <safe_convert_func_float_to_int32_t+0x44>
    9570:	f3 0f 10 45 fc       	movss  -0x4(%rbp),%xmm0
    9575:	0f 2f 05 58 0d 01 00 	comiss 0x10d58(%rip),%xmm0        # 1a2d4 <l_931.4546+0xa6>
    957c:	0f 93 c0             	setae  %al
    957f:	83 f0 01             	xor    $0x1,%eax
    9582:	84 c0                	test   %al,%al
    9584:	74 0b                	je     9591 <safe_convert_func_float_to_int32_t+0x44>
    9586:	f3 0f 10 45 fc       	movss  -0x4(%rbp),%xmm0
    958b:	f3 0f 2c c0          	cvttss2si %xmm0,%eax
    958f:	eb 05                	jmp    9596 <safe_convert_func_float_to_int32_t+0x49>
    9591:	b8 ff ff ff 7f       	mov    $0x7fffffff,%eax
    9596:	5d                   	pop    %rbp
    9597:	c3                   	retq   

0000000000009598 <crc32_gentab>:
    9598:	f3 0f 1e fa          	endbr64 
    959c:	55                   	push   %rbp
    959d:	48 89 e5             	mov    %rsp,%rbp
    95a0:	c7 45 fc 20 83 b8 ed 	movl   $0xedb88320,-0x4(%rbp)
    95a7:	c7 45 f4 00 00 00 00 	movl   $0x0,-0xc(%rbp)
    95ae:	eb 51                	jmp    9601 <crc32_gentab+0x69>
    95b0:	8b 45 f4             	mov    -0xc(%rbp),%eax
    95b3:	89 45 f0             	mov    %eax,-0x10(%rbp)
    95b6:	c7 45 f8 08 00 00 00 	movl   $0x8,-0x8(%rbp)
    95bd:	eb 1e                	jmp    95dd <crc32_gentab+0x45>
    95bf:	8b 45 f0             	mov    -0x10(%rbp),%eax
    95c2:	83 e0 01             	and    $0x1,%eax
    95c5:	85 c0                	test   %eax,%eax
    95c7:	74 0d                	je     95d6 <crc32_gentab+0x3e>
    95c9:	8b 45 f0             	mov    -0x10(%rbp),%eax
    95cc:	d1 e8                	shr    %eax
    95ce:	33 45 fc             	xor    -0x4(%rbp),%eax
    95d1:	89 45 f0             	mov    %eax,-0x10(%rbp)
    95d4:	eb 03                	jmp    95d9 <crc32_gentab+0x41>
    95d6:	d1 6d f0             	shrl   -0x10(%rbp)
    95d9:	83 6d f8 01          	subl   $0x1,-0x8(%rbp)
    95dd:	83 7d f8 00          	cmpl   $0x0,-0x8(%rbp)
    95e1:	7f dc                	jg     95bf <crc32_gentab+0x27>
    95e3:	8b 45 f4             	mov    -0xc(%rbp),%eax
    95e6:	48 98                	cltq   
    95e8:	48 8d 0c 85 00 00 00 	lea    0x0(,%rax,4),%rcx
    95ef:	00 
    95f0:	48 8d 15 49 92 01 00 	lea    0x19249(%rip),%rdx        # 22840 <crc32_tab>
    95f7:	8b 45 f0             	mov    -0x10(%rbp),%eax
    95fa:	89 04 11             	mov    %eax,(%rcx,%rdx,1)
    95fd:	83 45 f4 01          	addl   $0x1,-0xc(%rbp)
    9601:	81 7d f4 ff 00 00 00 	cmpl   $0xff,-0xc(%rbp)
    9608:	7e a6                	jle    95b0 <crc32_gentab+0x18>
    960a:	90                   	nop
    960b:	90                   	nop
    960c:	5d                   	pop    %rbp
    960d:	c3                   	retq   

000000000000960e <crc32_byte>:
    960e:	f3 0f 1e fa          	endbr64 
    9612:	55                   	push   %rbp
    9613:	48 89 e5             	mov    %rsp,%rbp
    9616:	89 f8                	mov    %edi,%eax
    9618:	88 45 fc             	mov    %al,-0x4(%rbp)
    961b:	8b 05 ff 39 01 00    	mov    0x139ff(%rip),%eax        # 1d020 <crc32_context>
    9621:	c1 e8 08             	shr    $0x8,%eax
    9624:	89 c1                	mov    %eax,%ecx
    9626:	0f b6 55 fc          	movzbl -0x4(%rbp),%edx
    962a:	8b 05 f0 39 01 00    	mov    0x139f0(%rip),%eax        # 1d020 <crc32_context>
    9630:	31 d0                	xor    %edx,%eax
    9632:	0f b6 c0             	movzbl %al,%eax
    9635:	89 c0                	mov    %eax,%eax
    9637:	48 8d 14 85 00 00 00 	lea    0x0(,%rax,4),%rdx
    963e:	00 
    963f:	48 8d 05 fa 91 01 00 	lea    0x191fa(%rip),%rax        # 22840 <crc32_tab>
    9646:	8b 04 02             	mov    (%rdx,%rax,1),%eax
    9649:	31 c8                	xor    %ecx,%eax
    964b:	89 05 cf 39 01 00    	mov    %eax,0x139cf(%rip)        # 1d020 <crc32_context>
    9651:	90                   	nop
    9652:	5d                   	pop    %rbp
    9653:	c3                   	retq   

0000000000009654 <crc32_8bytes>:
    9654:	f3 0f 1e fa          	endbr64 
    9658:	55                   	push   %rbp
    9659:	48 89 e5             	mov    %rsp,%rbp
    965c:	48 83 ec 08          	sub    $0x8,%rsp
    9660:	48 89 7d f8          	mov    %rdi,-0x8(%rbp)
    9664:	48 8b 45 f8          	mov    -0x8(%rbp),%rax
    9668:	0f b6 c0             	movzbl %al,%eax
    966b:	89 c7                	mov    %eax,%edi
    966d:	e8 9c ff ff ff       	callq  960e <crc32_byte>
    9672:	48 8b 45 f8          	mov    -0x8(%rbp),%rax
    9676:	48 c1 e8 08          	shr    $0x8,%rax
    967a:	0f b6 c0             	movzbl %al,%eax
    967d:	89 c7                	mov    %eax,%edi
    967f:	e8 8a ff ff ff       	callq  960e <crc32_byte>
    9684:	48 8b 45 f8          	mov    -0x8(%rbp),%rax
    9688:	48 c1 e8 10          	shr    $0x10,%rax
    968c:	0f b6 c0             	movzbl %al,%eax
    968f:	89 c7                	mov    %eax,%edi
    9691:	e8 78 ff ff ff       	callq  960e <crc32_byte>
    9696:	48 8b 45 f8          	mov    -0x8(%rbp),%rax
    969a:	48 c1 e8 18          	shr    $0x18,%rax
    969e:	0f b6 c0             	movzbl %al,%eax
    96a1:	89 c7                	mov    %eax,%edi
    96a3:	e8 66 ff ff ff       	callq  960e <crc32_byte>
    96a8:	48 8b 45 f8          	mov    -0x8(%rbp),%rax
    96ac:	48 c1 e8 20          	shr    $0x20,%rax
    96b0:	0f b6 c0             	movzbl %al,%eax
    96b3:	89 c7                	mov    %eax,%edi
    96b5:	e8 54 ff ff ff       	callq  960e <crc32_byte>
    96ba:	48 8b 45 f8          	mov    -0x8(%rbp),%rax
    96be:	48 c1 e8 28          	shr    $0x28,%rax
    96c2:	0f b6 c0             	movzbl %al,%eax
    96c5:	89 c7                	mov    %eax,%edi
    96c7:	e8 42 ff ff ff       	callq  960e <crc32_byte>
    96cc:	48 8b 45 f8          	mov    -0x8(%rbp),%rax
    96d0:	48 c1 e8 30          	shr    $0x30,%rax
    96d4:	0f b6 c0             	movzbl %al,%eax
    96d7:	89 c7                	mov    %eax,%edi
    96d9:	e8 30 ff ff ff       	callq  960e <crc32_byte>
    96de:	48 8b 45 f8          	mov    -0x8(%rbp),%rax
    96e2:	48 c1 e8 38          	shr    $0x38,%rax
    96e6:	0f b6 c0             	movzbl %al,%eax
    96e9:	89 c7                	mov    %eax,%edi
    96eb:	e8 1e ff ff ff       	callq  960e <crc32_byte>
    96f0:	90                   	nop
    96f1:	c9                   	leaveq 
    96f2:	c3                   	retq   

00000000000096f3 <transparent_crc>:
    96f3:	f3 0f 1e fa          	endbr64 
    96f7:	55                   	push   %rbp
    96f8:	48 89 e5             	mov    %rsp,%rbp
    96fb:	48 83 ec 20          	sub    $0x20,%rsp
    96ff:	48 89 7d f8          	mov    %rdi,-0x8(%rbp)
    9703:	48 89 75 f0          	mov    %rsi,-0x10(%rbp)
    9707:	89 55 ec             	mov    %edx,-0x14(%rbp)
    970a:	48 8b 45 f8          	mov    -0x8(%rbp),%rax
    970e:	48 89 c7             	mov    %rax,%rdi
    9711:	e8 3e ff ff ff       	callq  9654 <crc32_8bytes>
    9716:	83 7d ec 00          	cmpl   $0x0,-0x14(%rbp)
    971a:	74 22                	je     973e <transparent_crc+0x4b>
    971c:	8b 05 fe 38 01 00    	mov    0x138fe(%rip),%eax        # 1d020 <crc32_context>
    9722:	f7 d0                	not    %eax
    9724:	89 c2                	mov    %eax,%edx
    9726:	48 8b 45 f0          	mov    -0x10(%rbp),%rax
    972a:	48 89 c6             	mov    %rax,%rsi
    972d:	48 8d 3d fc e8 00 00 	lea    0xe8fc(%rip),%rdi        # 18030 <_IO_stdin_used+0x30>
    9734:	b8 00 00 00 00       	mov    $0x0,%eax
    9739:	e8 42 e9 ff ff       	callq  8080 <printf@plt>
    973e:	90                   	nop
    973f:	c9                   	leaveq 
    9740:	c3                   	retq   

0000000000009741 <transparent_crc_bytes>:
    9741:	f3 0f 1e fa          	endbr64 
    9745:	55                   	push   %rbp
    9746:	48 89 e5             	mov    %rsp,%rbp
    9749:	48 83 ec 30          	sub    $0x30,%rsp
    974d:	48 89 7d e8          	mov    %rdi,-0x18(%rbp)
    9751:	89 75 e4             	mov    %esi,-0x1c(%rbp)
    9754:	48 89 55 d8          	mov    %rdx,-0x28(%rbp)
    9758:	89 4d e0             	mov    %ecx,-0x20(%rbp)
    975b:	c7 45 fc 00 00 00 00 	movl   $0x0,-0x4(%rbp)
    9762:	eb 1e                	jmp    9782 <transparent_crc_bytes+0x41>
    9764:	8b 45 fc             	mov    -0x4(%rbp),%eax
    9767:	48 63 d0             	movslq %eax,%rdx
    976a:	48 8b 45 e8          	mov    -0x18(%rbp),%rax
    976e:	48 01 d0             	add    %rdx,%rax
    9771:	0f b6 00             	movzbl (%rax),%eax
    9774:	0f b6 c0             	movzbl %al,%eax
    9777:	89 c7                	mov    %eax,%edi
    9779:	e8 90 fe ff ff       	callq  960e <crc32_byte>
    977e:	83 45 fc 01          	addl   $0x1,-0x4(%rbp)
    9782:	8b 45 fc             	mov    -0x4(%rbp),%eax
    9785:	3b 45 e4             	cmp    -0x1c(%rbp),%eax
    9788:	7c da                	jl     9764 <transparent_crc_bytes+0x23>
    978a:	83 7d e0 00          	cmpl   $0x0,-0x20(%rbp)
    978e:	74 22                	je     97b2 <transparent_crc_bytes+0x71>
    9790:	8b 05 8a 38 01 00    	mov    0x1388a(%rip),%eax        # 1d020 <crc32_context>
    9796:	f7 d0                	not    %eax
    9798:	89 c2                	mov    %eax,%edx
    979a:	48 8b 45 d8          	mov    -0x28(%rbp),%rax
    979e:	48 89 c6             	mov    %rax,%rsi
    97a1:	48 8d 3d 88 e8 00 00 	lea    0xe888(%rip),%rdi        # 18030 <_IO_stdin_used+0x30>
    97a8:	b8 00 00 00 00       	mov    $0x0,%eax
    97ad:	e8 ce e8 ff ff       	callq  8080 <printf@plt>
    97b2:	90                   	nop
    97b3:	c9                   	leaveq 
    97b4:	c3                   	retq   

00000000000097b5 <func_1>:
    97b5:	f3 0f 1e fa          	endbr64 
    97b9:	55                   	push   %rbp
    97ba:	48 89 e5             	mov    %rsp,%rbp
    97bd:	41 57                	push   %r15
    97bf:	41 56                	push   %r14
    97c1:	41 55                	push   %r13
    97c3:	41 54                	push   %r12
    97c5:	53                   	push   %rbx
    97c6:	48 81 ec 00 10 00 00 	sub    $0x1000,%rsp
    97cd:	48 83 0c 24 00       	orq    $0x0,(%rsp)
    97d2:	48 81 ec 08 0d 00 00 	sub    $0xd08,%rsp
    97d9:	64 48 8b 04 25 28 00 	mov    %fs:0x28,%rax
    97e0:	00 00 
    97e2:	48 89 45 c8          	mov    %rax,-0x38(%rbp)
    97e6:	31 c0                	xor    %eax,%eax
    97e8:	48 8d 05 39 38 01 00 	lea    0x13839(%rip),%rax        # 1d028 <g_10>
    97ef:	48 89 85 b0 e3 ff ff 	mov    %rax,-0x1c50(%rbp)
    97f6:	c7 85 f0 e2 ff ff 57 	movl   $0xd0357257,-0x1d10(%rbp)
    97fd:	72 35 d0 
    9800:	c7 85 80 e6 ff ff 02 	movl   $0xc0902002,-0x1980(%rbp)
    9807:	20 90 c0 
    980a:	c7 85 84 e6 ff ff 33 	movl   $0x2891f433,-0x197c(%rbp)
    9811:	f4 91 28 
    9814:	c7 85 88 e6 ff ff 02 	movl   $0xc0902002,-0x1978(%rbp)
    981b:	20 90 c0 
    981e:	c7 85 8c e6 ff ff 28 	movl   $0x73e70d28,-0x1974(%rbp)
    9825:	0d e7 73 
    9828:	c7 85 90 e6 ff ff 28 	movl   $0x73e70d28,-0x1970(%rbp)
    982f:	0d e7 73 
    9832:	c7 85 94 e6 ff ff 28 	movl   $0x73e70d28,-0x196c(%rbp)
    9839:	0d e7 73 
    983c:	c7 85 98 e6 ff ff 02 	movl   $0xc0902002,-0x1968(%rbp)
    9843:	20 90 c0 
    9846:	c7 85 9c e6 ff ff 33 	movl   $0x2891f433,-0x1964(%rbp)
    984d:	f4 91 28 
    9850:	c7 85 a0 e6 ff ff 02 	movl   $0xc0902002,-0x1960(%rbp)
    9857:	20 90 c0 
    985a:	c7 85 a4 e6 ff ff 28 	movl   $0x73e70d28,-0x195c(%rbp)
    9861:	0d e7 73 
    9864:	c7 85 a8 e6 ff ff 28 	movl   $0x73e70d28,-0x1958(%rbp)
    986b:	0d e7 73 
    986e:	c7 85 ac e6 ff ff 28 	movl   $0x73e70d28,-0x1954(%rbp)
    9875:	0d e7 73 
    9878:	c7 85 b0 e6 ff ff 02 	movl   $0xc0902002,-0x1950(%rbp)
    987f:	20 90 c0 
    9882:	c7 85 b4 e6 ff ff 33 	movl   $0x2891f433,-0x194c(%rbp)
    9889:	f4 91 28 
    988c:	c7 85 b8 e6 ff ff 02 	movl   $0xc0902002,-0x1948(%rbp)
    9893:	20 90 c0 
    9896:	c7 85 bc e6 ff ff 28 	movl   $0x73e70d28,-0x1944(%rbp)
    989d:	0d e7 73 
    98a0:	c7 85 c0 e6 ff ff 28 	movl   $0x73e70d28,-0x1940(%rbp)
    98a7:	0d e7 73 
    98aa:	c7 85 c4 e6 ff ff 28 	movl   $0x73e70d28,-0x193c(%rbp)
    98b1:	0d e7 73 
    98b4:	c7 85 c8 e6 ff ff 02 	movl   $0xc0902002,-0x1938(%rbp)
    98bb:	20 90 c0 
    98be:	c7 85 cc e6 ff ff 33 	movl   $0x2891f433,-0x1934(%rbp)
    98c5:	f4 91 28 
    98c8:	c7 85 d0 e6 ff ff 02 	movl   $0xc0902002,-0x1930(%rbp)
    98cf:	20 90 c0 
    98d2:	66 c7 85 30 e6 ff ff 	movw   $0xca05,-0x19d0(%rbp)
    98d9:	05 ca 
    98db:	66 c7 85 32 e6 ff ff 	movw   $0x29ee,-0x19ce(%rbp)
    98e2:	ee 29 
    98e4:	66 c7 85 34 e6 ff ff 	movw   $0xca05,-0x19cc(%rbp)
    98eb:	05 ca 
    98ed:	66 c7 85 36 e6 ff ff 	movw   $0xef31,-0x19ca(%rbp)
    98f4:	31 ef 
    98f6:	66 c7 85 38 e6 ff ff 	movw   $0x2c02,-0x19c8(%rbp)
    98fd:	02 2c 
    98ff:	66 c7 85 3a e6 ff ff 	movw   $0x5,-0x19c6(%rbp)
    9906:	05 00 
    9908:	66 c7 85 3c e6 ff ff 	movw   $0xa907,-0x19c4(%rbp)
    990f:	07 a9 
    9911:	66 c7 85 3e e6 ff ff 	movw   $0xca05,-0x19c2(%rbp)
    9918:	05 ca 
    991a:	66 c7 85 40 e6 ff ff 	movw   $0xca05,-0x19c0(%rbp)
    9921:	05 ca 
    9923:	66 c7 85 42 e6 ff ff 	movw   $0x5,-0x19be(%rbp)
    992a:	05 00 
    992c:	66 c7 85 44 e6 ff ff 	movw   $0xef31,-0x19bc(%rbp)
    9933:	31 ef 
    9935:	66 c7 85 46 e6 ff ff 	movw   $0x1,-0x19ba(%rbp)
    993c:	01 00 
    993e:	66 c7 85 48 e6 ff ff 	movw   $0xfb8d,-0x19b8(%rbp)
    9945:	8d fb 
    9947:	66 c7 85 4a e6 ff ff 	movw   $0xa907,-0x19b6(%rbp)
    994e:	07 a9 
    9950:	66 c7 85 4c e6 ff ff 	movw   $0xfff8,-0x19b4(%rbp)
    9957:	f8 ff 
    9959:	66 c7 85 4e e6 ff ff 	movw   $0x5,-0x19b2(%rbp)
    9960:	05 00 
    9962:	66 c7 85 50 e6 ff ff 	movw   $0x5,-0x19b0(%rbp)
    9969:	05 00 
    996b:	66 c7 85 52 e6 ff ff 	movw   $0xdb0b,-0x19ae(%rbp)
    9972:	0b db 
    9974:	66 c7 85 54 e6 ff ff 	movw   $0xa907,-0x19ac(%rbp)
    997b:	07 a9 
    997d:	66 c7 85 56 e6 ff ff 	movw   $0xfb8d,-0x19aa(%rbp)
    9984:	8d fb 
    9986:	66 c7 85 58 e6 ff ff 	movw   $0xe35d,-0x19a8(%rbp)
    998d:	5d e3 
    998f:	66 c7 85 5a e6 ff ff 	movw   $0xef31,-0x19a6(%rbp)
    9996:	31 ef 
    9998:	66 c7 85 5c e6 ff ff 	movw   $0x5,-0x19a4(%rbp)
    999f:	05 00 
    99a1:	66 c7 85 5e e6 ff ff 	movw   $0xef31,-0x19a2(%rbp)
    99a8:	31 ef 
    99aa:	66 c7 85 60 e6 ff ff 	movw   $0xca05,-0x19a0(%rbp)
    99b1:	05 ca 
    99b3:	66 c7 85 62 e6 ff ff 	movw   $0xa907,-0x199e(%rbp)
    99ba:	07 a9 
    99bc:	66 c7 85 64 e6 ff ff 	movw   $0x29ee,-0x199c(%rbp)
    99c3:	ee 29 
    99c5:	66 c7 85 66 e6 ff ff 	movw   $0x2c02,-0x199a(%rbp)
    99cc:	02 2c 
    99ce:	66 c7 85 68 e6 ff ff 	movw   $0xef31,-0x1998(%rbp)
    99d5:	31 ef 
    99d7:	66 c7 85 6a e6 ff ff 	movw   $0xef31,-0x1996(%rbp)
    99de:	31 ef 
    99e0:	66 c7 85 6c e6 ff ff 	movw   $0x29ee,-0x1994(%rbp)
    99e7:	ee 29 
    99e9:	66 c7 85 6e e6 ff ff 	movw   $0xca05,-0x1992(%rbp)
    99f0:	05 ca 
    99f2:	66 c7 85 70 e6 ff ff 	movw   $0xe35d,-0x1990(%rbp)
    99f9:	5d e3 
    99fb:	66 c7 85 72 e6 ff ff 	movw   $0xa1f7,-0x198e(%rbp)
    9a02:	f7 a1 
    9a04:	66 c7 85 74 e6 ff ff 	movw   $0x2c02,-0x198c(%rbp)
    9a0b:	02 2c 
    9a0d:	66 c7 85 76 e6 ff ff 	movw   $0xdb0b,-0x198a(%rbp)
    9a14:	0b db 
    9a16:	c7 85 f4 e2 ff ff 02 	movl   $0x2,-0x1d0c(%rbp)
    9a1d:	00 00 00 
    9a20:	c6 85 e3 e2 ff ff 01 	movb   $0x1,-0x1d1d(%rbp)
    9a27:	c7 85 f8 e2 ff ff 00 	movl   $0x0,-0x1d08(%rbp)
    9a2e:	00 00 00 
    9a31:	c7 85 fc e2 ff ff fa 	movl   $0xfffffffa,-0x1d04(%rbp)
    9a38:	ff ff ff 
    9a3b:	c7 85 00 e3 ff ff 21 	movl   $0x91ffe321,-0x1d00(%rbp)
    9a42:	e3 ff 91 
    9a45:	48 c7 85 70 e3 ff ff 	movq   $0x0,-0x1c90(%rbp)
    9a4c:	00 00 00 00 
    9a50:	48 8d 85 70 e3 ff ff 	lea    -0x1c90(%rbp),%rax
    9a57:	48 89 85 b8 e3 ff ff 	mov    %rax,-0x1c48(%rbp)
    9a5e:	48 8d 05 43 92 01 00 	lea    0x19243(%rip),%rax        # 22ca8 <g_1599>
    9a65:	48 89 85 78 e3 ff ff 	mov    %rax,-0x1c88(%rbp)
    9a6c:	c7 85 34 e3 ff ff 01 	movl   $0x1,-0x1ccc(%rbp)
    9a73:	00 00 00 
    9a76:	48 b8 f6 3e d9 fe 23 	movabs $0x66523123fed93ef6,%rax
    9a7d:	31 52 66 
    9a80:	48 89 85 a8 e3 ff ff 	mov    %rax,-0x1c58(%rbp)
    9a87:	48 8d 05 f2 91 01 00 	lea    0x191f2(%rip),%rax        # 22c80 <g_708>
    9a8e:	48 89 85 c0 e3 ff ff 	mov    %rax,-0x1c40(%rbp)
    9a95:	48 c7 85 c8 e3 ff ff 	movq   $0x0,-0x1c38(%rbp)
    9a9c:	00 00 00 00 
    9aa0:	48 8d 85 fc e2 ff ff 	lea    -0x1d04(%rbp),%rax
    9aa7:	48 89 85 80 e3 ff ff 	mov    %rax,-0x1c80(%rbp)
    9aae:	48 8d 85 80 e3 ff ff 	lea    -0x1c80(%rbp),%rax
    9ab5:	48 89 85 f0 e5 ff ff 	mov    %rax,-0x1a10(%rbp)
    9abc:	48 8d 85 80 e3 ff ff 	lea    -0x1c80(%rbp),%rax
    9ac3:	48 89 85 f8 e5 ff ff 	mov    %rax,-0x1a08(%rbp)
    9aca:	48 8d 85 80 e3 ff ff 	lea    -0x1c80(%rbp),%rax
    9ad1:	48 89 85 00 e6 ff ff 	mov    %rax,-0x1a00(%rbp)
    9ad8:	48 8d 85 80 e3 ff ff 	lea    -0x1c80(%rbp),%rax
    9adf:	48 89 85 08 e6 ff ff 	mov    %rax,-0x19f8(%rbp)
    9ae6:	48 8d 85 80 e3 ff ff 	lea    -0x1c80(%rbp),%rax
    9aed:	48 89 85 10 e6 ff ff 	mov    %rax,-0x19f0(%rbp)
    9af4:	48 8d 85 80 e3 ff ff 	lea    -0x1c80(%rbp),%rax
    9afb:	48 89 85 18 e6 ff ff 	mov    %rax,-0x19e8(%rbp)
    9b02:	48 8d 85 80 e3 ff ff 	lea    -0x1c80(%rbp),%rax
    9b09:	48 89 85 20 e6 ff ff 	mov    %rax,-0x19e0(%rbp)
    9b10:	48 8d 85 80 e3 ff ff 	lea    -0x1c80(%rbp),%rax
    9b17:	48 89 85 28 e6 ff ff 	mov    %rax,-0x19d8(%rbp)
    9b1e:	48 8d 85 00 e3 ff ff 	lea    -0x1d00(%rbp),%rax
    9b25:	48 89 85 d0 e3 ff ff 	mov    %rax,-0x1c30(%rbp)
    9b2c:	c6 85 e4 e2 ff ff fb 	movb   $0xfb,-0x1d1c(%rbp)
    9b33:	c7 85 2c e3 ff ff 00 	movl   $0x0,-0x1cd4(%rbp)
    9b3a:	00 00 00 
    9b3d:	eb 1a                	jmp    9b59 <func_1+0x3a4>
    9b3f:	8b 85 2c e3 ff ff    	mov    -0x1cd4(%rbp),%eax
    9b45:	48 98                	cltq   
    9b47:	c7 84 85 b0 e5 ff ff 	movl   $0x1630463,-0x1a50(%rbp,%rax,4)
    9b4e:	63 04 63 01 
    9b52:	83 85 2c e3 ff ff 01 	addl   $0x1,-0x1cd4(%rbp)
    9b59:	83 bd 2c e3 ff ff 06 	cmpl   $0x6,-0x1cd4(%rbp)
    9b60:	7e dd                	jle    9b3f <func_1+0x38a>
    9b62:	c7 85 2c e3 ff ff 00 	movl   $0x0,-0x1cd4(%rbp)
    9b69:	00 00 00 
    9b6c:	eb 1e                	jmp    9b8c <func_1+0x3d7>
    9b6e:	8b 85 2c e3 ff ff    	mov    -0x1cd4(%rbp),%eax
    9b74:	48 98                	cltq   
    9b76:	48 8d 95 fc e2 ff ff 	lea    -0x1d04(%rbp),%rdx
    9b7d:	48 89 94 c5 90 e5 ff 	mov    %rdx,-0x1a70(%rbp,%rax,8)
    9b84:	ff 
    9b85:	83 85 2c e3 ff ff 01 	addl   $0x1,-0x1cd4(%rbp)
    9b8c:	83 bd 2c e3 ff ff 02 	cmpl   $0x2,-0x1cd4(%rbp)
    9b93:	7e d9                	jle    9b6e <func_1+0x3b9>
    9b95:	8b 85 f0 e2 ff ff    	mov    -0x1d10(%rbp),%eax
    9b9b:	0f b7 c0             	movzwl %ax,%eax
    9b9e:	be 0a 00 00 00       	mov    $0xa,%esi
    9ba3:	89 c7                	mov    %eax,%edi
    9ba5:	e8 5c f2 ff ff       	callq  8e06 <safe_lshift_func_uint16_t_u_u>
    9baa:	0f be d8             	movsbl %al,%ebx
    9bad:	0f b7 05 70 34 01 00 	movzwl 0x13470(%rip),%eax        # 1d024 <g_8>
    9bb4:	0f b7 d0             	movzwl %ax,%edx
    9bb7:	48 8b 85 b0 e3 ff ff 	mov    -0x1c50(%rbp),%rax
    9bbe:	48 8b 08             	mov    (%rax),%rcx
    9bc1:	0f b7 05 5c 34 01 00 	movzwl 0x1345c(%rip),%eax        # 1d024 <g_8>
    9bc8:	0f b7 c0             	movzwl %ax,%eax
    9bcb:	48 31 c1             	xor    %rax,%rcx
    9bce:	48 8b 85 b0 e3 ff ff 	mov    -0x1c50(%rbp),%rax
    9bd5:	48 89 08             	mov    %rcx,(%rax)
    9bd8:	48 8b 85 b0 e3 ff ff 	mov    -0x1c50(%rbp),%rax
    9bdf:	48 8b 00             	mov    (%rax),%rax
    9be2:	48 89 d6             	mov    %rdx,%rsi
    9be5:	48 89 c7             	mov    %rax,%rdi
    9be8:	e8 93 f4 ff ff       	callq  9080 <safe_mod_func_uint64_t_u_u>
    9bed:	be 6f 1f 5e 13       	mov    $0x135e1f6f,%esi
    9bf2:	89 c7                	mov    %eax,%edi
    9bf4:	e8 bd e9 ff ff       	callq  85b6 <safe_add_func_int32_t_s_s>
    9bf9:	0f be c0             	movsbl %al,%eax
    9bfc:	89 de                	mov    %ebx,%esi
    9bfe:	89 c7                	mov    %eax,%edi
    9c00:	e8 cf e5 ff ff       	callq  81d4 <safe_add_func_int8_t_s_s>
    9c05:	84 c0                	test   %al,%al
    9c07:	74 3c                	je     9c45 <func_1+0x490>
    9c09:	48 8d 85 f0 e2 ff ff 	lea    -0x1d10(%rbp),%rax
    9c10:	48 89 85 e0 e3 ff ff 	mov    %rax,-0x1c20(%rbp)
    9c17:	48 8b 85 e0 e3 ff ff 	mov    -0x1c20(%rbp),%rax
    9c1e:	8b 00                	mov    (%rax),%eax
    9c20:	89 c2                	mov    %eax,%edx
    9c22:	48 8b 05 ff 33 01 00 	mov    0x133ff(%rip),%rax        # 1d028 <g_10>
    9c29:	09 d0                	or     %edx,%eax
    9c2b:	89 c2                	mov    %eax,%edx
    9c2d:	48 8b 85 e0 e3 ff ff 	mov    -0x1c20(%rbp),%rax
    9c34:	89 10                	mov    %edx,(%rax)
    9c36:	c7 85 f0 e2 ff ff f8 	movl   $0xfffffff8,-0x1d10(%rbp)
    9c3d:	ff ff ff 
    9c40:	e9 05 03 00 00       	jmpq   9f4a <func_1+0x795>
    9c45:	48 8d 85 f0 e2 ff ff 	lea    -0x1d10(%rbp),%rax
    9c4c:	48 89 85 d8 e3 ff ff 	mov    %rax,-0x1c28(%rbp)
    9c53:	0f b7 05 ca 33 01 00 	movzwl 0x133ca(%rip),%eax        # 1d024 <g_8>
    9c5a:	0f b7 d0             	movzwl %ax,%edx
    9c5d:	48 8b 85 d8 e3 ff ff 	mov    -0x1c28(%rbp),%rax
    9c64:	89 10                	mov    %edx,(%rax)
    9c66:	48 8b 05 bb 33 01 00 	mov    0x133bb(%rip),%rax        # 1d028 <g_10>
    9c6d:	e9 30 2d 00 00       	jmpq   c9a2 <func_1+0x31ed>
    9c72:	48 8d 05 d7 8f 01 00 	lea    0x18fd7(%rip),%rax        # 22c50 <g_22>
    9c79:	48 89 85 58 e5 ff ff 	mov    %rax,-0x1aa8(%rbp)
    9c80:	c7 85 68 e3 ff ff f9 	movl   $0xfffffff9,-0x1c98(%rbp)
    9c87:	ff ff ff 
    9c8a:	48 8d 05 d7 e5 00 00 	lea    0xe5d7(%rip),%rax        # 18268 <g_1750+0x1c8>
    9c91:	48 89 85 60 e5 ff ff 	mov    %rax,-0x1aa0(%rbp)
    9c98:	c7 85 20 e3 ff ff 00 	movl   $0x0,-0x1ce0(%rbp)
    9c9f:	00 00 00 
    9ca2:	eb 1e                	jmp    9cc2 <func_1+0x50d>
    9ca4:	8b 85 20 e3 ff ff    	mov    -0x1ce0(%rbp),%eax
    9caa:	48 98                	cltq   
    9cac:	48 8d 15 6d 7e 01 00 	lea    0x17e6d(%rip),%rdx        # 21b20 <g_54>
    9cb3:	48 89 94 c5 20 fa ff 	mov    %rdx,-0x5e0(%rbp,%rax,8)
    9cba:	ff 
    9cbb:	83 85 20 e3 ff ff 01 	addl   $0x1,-0x1ce0(%rbp)
    9cc2:	83 bd 20 e3 ff ff 02 	cmpl   $0x2,-0x1ce0(%rbp)
    9cc9:	7e d9                	jle    9ca4 <func_1+0x4ef>
    9ccb:	0f b7 05 52 33 01 00 	movzwl 0x13352(%rip),%eax        # 1d024 <g_8>
    9cd2:	0f b6 c0             	movzbl %al,%eax
    9cd5:	89 c6                	mov    %eax,%esi
    9cd7:	bf f8 00 00 00       	mov    $0xf8,%edi
    9cdc:	e8 cd ee ff ff       	callq  8bae <safe_mod_func_uint8_t_u_u>
    9ce1:	0f b6 d0             	movzbl %al,%edx
    9ce4:	48 8b 85 58 e5 ff ff 	mov    -0x1aa8(%rbp),%rax
    9ceb:	89 10                	mov    %edx,(%rax)
    9ced:	48 8b 85 58 e5 ff ff 	mov    -0x1aa8(%rbp),%rax
    9cf4:	8b 00                	mov    (%rax),%eax
    9cf6:	85 c0                	test   %eax,%eax
    9cf8:	0f 84 45 01 00 00    	je     9e43 <func_1+0x68e>
    9cfe:	48 8d 05 45 33 01 00 	lea    0x13345(%rip),%rax        # 1d04a <g_31+0xa>
    9d05:	48 89 85 68 e5 ff ff 	mov    %rax,-0x1a98(%rbp)
    9d0c:	48 b8 60 5a 03 69 e7 	movabs $0x52783de769035a60,%rax
    9d13:	3d 78 52 
    9d16:	48 89 85 70 e5 ff ff 	mov    %rax,-0x1a90(%rbp)
    9d1d:	c7 85 6c e3 ff ff 16 	movl   $0x2f69a016,-0x1c94(%rbp)
    9d24:	a0 69 2f 
    9d27:	48 c7 85 78 e5 ff ff 	movq   $0x0,-0x1a88(%rbp)
    9d2e:	00 00 00 00 
    9d32:	48 8d 05 3f 33 01 00 	lea    0x1333f(%rip),%rax        # 1d078 <g_44>
    9d39:	48 89 85 80 e5 ff ff 	mov    %rax,-0x1a80(%rbp)
    9d40:	8b 05 0a 8f 01 00    	mov    0x18f0a(%rip),%eax        # 22c50 <g_22>
    9d46:	4c 63 f0             	movslq %eax,%r14
    9d49:	48 8b 85 58 e5 ff ff 	mov    -0x1aa8(%rbp),%rax
    9d50:	8b 00                	mov    (%rax),%eax
    9d52:	48 63 d8             	movslq %eax,%rbx
    9d55:	0f b7 05 c8 32 01 00 	movzwl 0x132c8(%rip),%eax        # 1d024 <g_8>
    9d5c:	44 0f b7 e0          	movzwl %ax,%r12d
    9d60:	8b 85 84 e6 ff ff    	mov    -0x197c(%rbp),%eax
    9d66:	89 c0                	mov    %eax,%eax
    9d68:	48 83 c8 fa          	or     $0xfffffffffffffffa,%rax
    9d6c:	48 f7 d0             	not    %rax
    9d6f:	48 39 85 70 e5 ff ff 	cmp    %rax,-0x1a90(%rbp)
    9d76:	0f 94 c0             	sete   %al
    9d79:	0f b6 d0             	movzbl %al,%edx
    9d7c:	8b 05 ce 8e 01 00    	mov    0x18ece(%rip),%eax        # 22c50 <g_22>
    9d82:	39 c2                	cmp    %eax,%edx
    9d84:	0f 9d c0             	setge  %al
    9d87:	0f b6 c0             	movzbl %al,%eax
    9d8a:	8b 95 6c e3 ff ff    	mov    -0x1c94(%rbp),%edx
    9d90:	89 d6                	mov    %edx,%esi
    9d92:	89 c7                	mov    %eax,%edi
    9d94:	e8 08 e5 ff ff       	callq  82a1 <safe_lshift_func_int8_t_s_s>
    9d99:	4c 0f be e8          	movsbq %al,%r13
    9d9d:	48 8b 85 68 e5 ff ff 	mov    -0x1a98(%rbp),%rax
    9da4:	c6 00 6f             	movb   $0x6f,(%rax)
    9da7:	48 8b 85 68 e5 ff ff 	mov    -0x1a98(%rbp),%rax
    9dae:	0f b6 00             	movzbl (%rax),%eax
    9db1:	44 0f b6 f8          	movzbl %al,%r15d
    9db5:	0f b7 05 68 32 01 00 	movzwl 0x13268(%rip),%eax        # 1d024 <g_8>
    9dbc:	0f bf d0             	movswl %ax,%edx
    9dbf:	8b 05 8b 8e 01 00    	mov    0x18e8b(%rip),%eax        # 22c50 <g_22>
    9dc5:	66 0d 13 7f          	or     $0x7f13,%ax
    9dc9:	98                   	cwtl   
    9dca:	89 d6                	mov    %edx,%esi
    9dcc:	89 c7                	mov    %eax,%edi
    9dce:	e8 22 e6 ff ff       	callq  83f5 <safe_mul_func_int16_t_s_s>
    9dd3:	98                   	cwtl   
    9dd4:	44 21 f8             	and    %r15d,%eax
    9dd7:	48 98                	cltq   
    9dd9:	4c 89 ee             	mov    %r13,%rsi
    9ddc:	48 89 c7             	mov    %rax,%rdi
    9ddf:	e8 c4 ea ff ff       	callq  88a8 <safe_sub_func_int64_t_s_s>
    9de4:	8b 85 f0 e2 ff ff    	mov    -0x1d10(%rbp),%eax
    9dea:	0f b6 c0             	movzbl %al,%eax
    9ded:	44 89 e6             	mov    %r12d,%esi
    9df0:	89 c7                	mov    %eax,%edi
    9df2:	e8 96 ee ff ff       	callq  8c8d <safe_rshift_func_uint8_t_u_s>
    9df7:	0f b6 c0             	movzbl %al,%eax
    9dfa:	48 89 05 6f 32 01 00 	mov    %rax,0x1326f(%rip)        # 1d070 <g_40>
    9e01:	8b 85 a4 e6 ff ff    	mov    -0x195c(%rbp),%eax
    9e07:	89 c7                	mov    %eax,%edi
    9e09:	e8 88 e7 ff ff       	callq  8596 <safe_unary_minus_func_int32_t_s>
    9e0e:	48 98                	cltq   
    9e10:	48 89 de             	mov    %rbx,%rsi
    9e13:	48 89 c7             	mov    %rax,%rdi
    9e16:	e8 26 ea ff ff       	callq  8841 <safe_add_func_int64_t_s_s>
    9e1b:	49 39 c6             	cmp    %rax,%r14
    9e1e:	0f 94 c0             	sete   %al
    9e21:	0f b6 d0             	movzbl %al,%edx
    9e24:	48 8b 85 80 e5 ff ff 	mov    -0x1a80(%rbp),%rax
    9e2b:	8b 00                	mov    (%rax),%eax
    9e2d:	09 c2                	or     %eax,%edx
    9e2f:	48 8b 85 80 e5 ff ff 	mov    -0x1a80(%rbp),%rax
    9e36:	89 10                	mov    %edx,(%rax)
    9e38:	8b 85 68 e3 ff ff    	mov    -0x1c98(%rbp),%eax
    9e3e:	e9 5f 2b 00 00       	jmpq   c9a2 <func_1+0x31ed>
    9e43:	48 8b 85 58 e5 ff ff 	mov    -0x1aa8(%rbp),%rax
    9e4a:	c7 00 bb c8 65 9a    	movl   $0x9a65c8bb,(%rax)
    9e50:	8b 85 84 e6 ff ff    	mov    -0x197c(%rbp),%eax
    9e56:	41 89 c4             	mov    %eax,%r12d
    9e59:	48 8b 15 c0 7c 01 00 	mov    0x17cc0(%rip),%rdx        # 21b20 <g_54>
    9e60:	48 8b 05 c1 31 01 00 	mov    0x131c1(%rip),%rax        # 1d028 <g_10>
    9e67:	0f be c0             	movsbl %al,%eax
    9e6a:	48 89 d6             	mov    %rdx,%rsi
    9e6d:	89 c7                	mov    %eax,%edi
    9e6f:	e8 7d 2b 00 00       	callq  c9f1 <func_51>
    9e74:	0f b7 85 56 e6 ff ff 	movzwl -0x19aa(%rbp),%eax
    9e7b:	0f bf c8             	movswl %ax,%ecx
    9e7e:	48 8b 05 cb 7e 01 00 	mov    0x17ecb(%rip),%rax        # 21d50 <g_436>
    9e85:	48 8b 10             	mov    (%rax),%rdx
    9e88:	48 8b 05 11 88 01 00 	mov    0x18811(%rip),%rax        # 226a0 <g_1646>
    9e8f:	48 8b 00             	mov    (%rax),%rax
    9e92:	0f b7 12             	movzwl (%rdx),%edx
    9e95:	66 89 10             	mov    %dx,(%rax)
    9e98:	0f b7 00             	movzwl (%rax),%eax
    9e9b:	0f b7 c0             	movzwl %ax,%eax
    9e9e:	09 c8                	or     %ecx,%eax
    9ea0:	48 63 d8             	movslq %eax,%rbx
    9ea3:	48 8b 05 4e 55 01 00 	mov    0x1554e(%rip),%rax        # 1f3f8 <g_1600+0x78>
    9eaa:	48 c1 e8 34          	shr    $0x34,%rax
    9eae:	48 89 c2             	mov    %rax,%rdx
    9eb1:	48 8b 05 48 55 01 00 	mov    0x15548(%rip),%rax        # 1f400 <g_1600+0x80>
    9eb8:	25 ff 01 00 00       	and    $0x1ff,%eax
    9ebd:	48 c1 e0 0c          	shl    $0xc,%rax
    9ec1:	48 09 d0             	or     %rdx,%rax
    9ec4:	41 89 c5             	mov    %eax,%r13d
    9ec7:	0f b6 05 3c 34 01 00 	movzbl 0x1343c(%rip),%eax        # 1d30a <g_801+0x2>
    9ece:	0f be c0             	movsbl %al,%eax
    9ed1:	be 01 00 00 00       	mov    $0x1,%esi
    9ed6:	89 c7                	mov    %eax,%edi
    9ed8:	e8 c4 e3 ff ff       	callq  82a1 <safe_lshift_func_int8_t_s_s>
    9edd:	0f be c0             	movsbl %al,%eax
    9ee0:	be b6 fd 2f af       	mov    $0xaf2ffdb6,%esi
    9ee5:	89 c7                	mov    %eax,%edi
    9ee7:	e8 cc ef ff ff       	callq  8eb8 <safe_add_func_uint32_t_u_u>
    9eec:	44 31 e8             	xor    %r13d,%eax
    9eef:	89 c2                	mov    %eax,%edx
    9ef1:	48 8b 85 b0 e3 ff ff 	mov    -0x1c50(%rbp),%rax
    9ef8:	48 89 10             	mov    %rdx,(%rax)
    9efb:	48 8b 85 b0 e3 ff ff 	mov    -0x1c50(%rbp),%rax
    9f02:	48 8b 00             	mov    (%rax),%rax
    9f05:	48 89 de             	mov    %rbx,%rsi
    9f08:	48 89 c7             	mov    %rax,%rdi
    9f0b:	e8 70 f1 ff ff       	callq  9080 <safe_mod_func_uint64_t_u_u>
    9f10:	0f b6 c0             	movzbl %al,%eax
    9f13:	48 8b 95 60 e5 ff ff 	mov    -0x1aa0(%rbp),%rdx
    9f1a:	44 89 e1             	mov    %r12d,%ecx
    9f1d:	48 8d 35 dc 33 01 00 	lea    0x133dc(%rip),%rsi        # 1d300 <g_794>
    9f24:	89 c7                	mov    %eax,%edi
    9f26:	e8 9d 2a 00 00       	callq  c9c8 <func_46>
    9f2b:	48 89 05 ee 7b 01 00 	mov    %rax,0x17bee(%rip)        # 21b20 <g_54>
    9f32:	8b 85 f0 e2 ff ff    	mov    -0x1d10(%rbp),%eax
    9f38:	be 06 00 00 00       	mov    $0x6,%esi
    9f3d:	89 c7                	mov    %eax,%edi
    9f3f:	e8 c1 e6 ff ff       	callq  8605 <safe_sub_func_int32_t_s_s>
    9f44:	89 85 f0 e2 ff ff    	mov    %eax,-0x1d10(%rbp)
    9f4a:	8b 85 f0 e2 ff ff    	mov    -0x1d10(%rbp),%eax
    9f50:	83 f8 ed             	cmp    $0xffffffed,%eax
    9f53:	0f 8c 19 fd ff ff    	jl     9c72 <func_1+0x4bd>
    9f59:	66 c7 05 c2 30 01 00 	movw   $0xfff0,0x130c2(%rip)        # 1d024 <g_8>
    9f60:	f0 ff 
    9f62:	e9 d2 28 00 00       	jmpq   c839 <func_1+0x3084>
    9f67:	48 c7 85 e8 e3 ff ff 	movq   $0x0,-0x1c18(%rbp)
    9f6e:	00 00 00 00 
    9f72:	48 8d 05 d7 8c 01 00 	lea    0x18cd7(%rip),%rax        # 22c50 <g_22>
    9f79:	48 89 85 88 e3 ff ff 	mov    %rax,-0x1c78(%rbp)
    9f80:	66 c7 85 ea e2 ff ff 	movw   $0x0,-0x1d16(%rbp)
    9f87:	00 00 
    9f89:	48 c7 85 f0 e3 ff ff 	movq   $0xffffffffffffffff,-0x1c10(%rbp)
    9f90:	ff ff ff ff 
    9f94:	c6 85 e5 e2 ff ff 5e 	movb   $0x5e,-0x1d1b(%rbp)
    9f9b:	48 8d 05 a6 7c 01 00 	lea    0x17ca6(%rip),%rax        # 21c48 <g_274+0x48>
    9fa2:	48 89 85 90 e3 ff ff 	mov    %rax,-0x1c70(%rbp)
    9fa9:	c7 85 04 e3 ff ff 11 	movl   $0x6b1bdb11,-0x1cfc(%rbp)
    9fb0:	db 1b 6b 
    9fb3:	c7 85 08 e3 ff ff ee 	movl   $0xf225c5ee,-0x1cf8(%rbp)
    9fba:	c5 25 f2 
    9fbd:	c7 85 38 e3 ff ff c6 	movl   $0x8df32c6,-0x1cc8(%rbp)
    9fc4:	32 df 08 
    9fc7:	c7 85 3c e3 ff ff 04 	movl   $0x4,-0x1cc4(%rbp)
    9fce:	00 00 00 
    9fd1:	c7 85 40 e3 ff ff 31 	movl   $0x479f5e31,-0x1cc0(%rbp)
    9fd8:	5e 9f 47 
    9fdb:	c7 85 44 e3 ff ff 84 	movl   $0xf9965984,-0x1cbc(%rbp)
    9fe2:	59 96 f9 
    9fe5:	c7 85 0c e3 ff ff 20 	movl   $0x24720320,-0x1cf4(%rbp)
    9fec:	03 72 24 
    9fef:	c7 85 10 e3 ff ff ff 	movl   $0xffffffff,-0x1cf0(%rbp)
    9ff6:	ff ff ff 
    9ff9:	48 8d 05 09 33 01 00 	lea    0x13309(%rip),%rax        # 1d309 <g_801+0x1>
    a000:	48 89 85 d0 e5 ff ff 	mov    %rax,-0x1a30(%rbp)
    a007:	48 8d 05 fb 32 01 00 	lea    0x132fb(%rip),%rax        # 1d309 <g_801+0x1>
    a00e:	48 89 85 d8 e5 ff ff 	mov    %rax,-0x1a28(%rbp)
    a015:	48 8d 05 ed 32 01 00 	lea    0x132ed(%rip),%rax        # 1d309 <g_801+0x1>
    a01c:	48 89 85 e0 e5 ff ff 	mov    %rax,-0x1a20(%rbp)
    a023:	48 8d 05 df 32 01 00 	lea    0x132df(%rip),%rax        # 1d309 <g_801+0x1>
    a02a:	48 89 85 e8 e5 ff ff 	mov    %rax,-0x1a18(%rbp)
    a031:	48 8d 85 d0 e5 ff ff 	lea    -0x1a30(%rbp),%rax
    a038:	48 83 c0 18          	add    $0x18,%rax
    a03c:	48 89 85 98 e3 ff ff 	mov    %rax,-0x1c68(%rbp)
    a043:	48 8d 85 98 e3 ff ff 	lea    -0x1c68(%rbp),%rax
    a04a:	48 89 85 e0 f4 ff ff 	mov    %rax,-0xb20(%rbp)
    a051:	48 8d 85 98 e3 ff ff 	lea    -0x1c68(%rbp),%rax
    a058:	48 89 85 e8 f4 ff ff 	mov    %rax,-0xb18(%rbp)
    a05f:	48 8d 85 98 e3 ff ff 	lea    -0x1c68(%rbp),%rax
    a066:	48 89 85 f0 f4 ff ff 	mov    %rax,-0xb10(%rbp)
    a06d:	48 c7 85 f8 f4 ff ff 	movq   $0x0,-0xb08(%rbp)
    a074:	00 00 00 00 
    a078:	48 c7 85 00 f5 ff ff 	movq   $0x0,-0xb00(%rbp)
    a07f:	00 00 00 00 
    a083:	48 8d 85 98 e3 ff ff 	lea    -0x1c68(%rbp),%rax
    a08a:	48 89 85 08 f5 ff ff 	mov    %rax,-0xaf8(%rbp)
    a091:	48 8d 85 98 e3 ff ff 	lea    -0x1c68(%rbp),%rax
    a098:	48 89 85 10 f5 ff ff 	mov    %rax,-0xaf0(%rbp)
    a09f:	48 8d 85 98 e3 ff ff 	lea    -0x1c68(%rbp),%rax
    a0a6:	48 89 85 18 f5 ff ff 	mov    %rax,-0xae8(%rbp)
    a0ad:	48 c7 85 20 f5 ff ff 	movq   $0x0,-0xae0(%rbp)
    a0b4:	00 00 00 00 
    a0b8:	48 8d 85 98 e3 ff ff 	lea    -0x1c68(%rbp),%rax
    a0bf:	48 89 85 28 f5 ff ff 	mov    %rax,-0xad8(%rbp)
    a0c6:	48 c7 85 30 f5 ff ff 	movq   $0x0,-0xad0(%rbp)
    a0cd:	00 00 00 00 
    a0d1:	48 8d 85 98 e3 ff ff 	lea    -0x1c68(%rbp),%rax
    a0d8:	48 89 85 38 f5 ff ff 	mov    %rax,-0xac8(%rbp)
    a0df:	48 8d 85 98 e3 ff ff 	lea    -0x1c68(%rbp),%rax
    a0e6:	48 89 85 40 f5 ff ff 	mov    %rax,-0xac0(%rbp)
    a0ed:	48 8d 85 98 e3 ff ff 	lea    -0x1c68(%rbp),%rax
    a0f4:	48 89 85 48 f5 ff ff 	mov    %rax,-0xab8(%rbp)
    a0fb:	48 8d 85 98 e3 ff ff 	lea    -0x1c68(%rbp),%rax
    a102:	48 89 85 50 f5 ff ff 	mov    %rax,-0xab0(%rbp)
    a109:	48 8d 85 98 e3 ff ff 	lea    -0x1c68(%rbp),%rax
    a110:	48 89 85 58 f5 ff ff 	mov    %rax,-0xaa8(%rbp)
    a117:	48 8d 85 98 e3 ff ff 	lea    -0x1c68(%rbp),%rax
    a11e:	48 89 85 60 f5 ff ff 	mov    %rax,-0xaa0(%rbp)
    a125:	48 c7 85 68 f5 ff ff 	movq   $0x0,-0xa98(%rbp)
    a12c:	00 00 00 00 
    a130:	48 c7 85 70 f5 ff ff 	movq   $0x0,-0xa90(%rbp)
    a137:	00 00 00 00 
    a13b:	48 8d 85 98 e3 ff ff 	lea    -0x1c68(%rbp),%rax
    a142:	48 89 85 78 f5 ff ff 	mov    %rax,-0xa88(%rbp)
    a149:	48 8d 85 98 e3 ff ff 	lea    -0x1c68(%rbp),%rax
    a150:	48 89 85 80 f5 ff ff 	mov    %rax,-0xa80(%rbp)
    a157:	48 8d 85 98 e3 ff ff 	lea    -0x1c68(%rbp),%rax
    a15e:	48 89 85 88 f5 ff ff 	mov    %rax,-0xa78(%rbp)
    a165:	48 8d 85 98 e3 ff ff 	lea    -0x1c68(%rbp),%rax
    a16c:	48 89 85 90 f5 ff ff 	mov    %rax,-0xa70(%rbp)
    a173:	48 c7 85 98 f5 ff ff 	movq   $0x0,-0xa68(%rbp)
    a17a:	00 00 00 00 
    a17e:	48 c7 85 a0 f5 ff ff 	movq   $0x0,-0xa60(%rbp)
    a185:	00 00 00 00 
    a189:	48 8d 85 98 e3 ff ff 	lea    -0x1c68(%rbp),%rax
    a190:	48 89 85 a8 f5 ff ff 	mov    %rax,-0xa58(%rbp)
    a197:	48 8d 85 98 e3 ff ff 	lea    -0x1c68(%rbp),%rax
    a19e:	48 89 85 b0 f5 ff ff 	mov    %rax,-0xa50(%rbp)
    a1a5:	48 8d 85 98 e3 ff ff 	lea    -0x1c68(%rbp),%rax
    a1ac:	48 89 85 b8 f5 ff ff 	mov    %rax,-0xa48(%rbp)
    a1b3:	48 8d 85 98 e3 ff ff 	lea    -0x1c68(%rbp),%rax
    a1ba:	48 89 85 c0 f5 ff ff 	mov    %rax,-0xa40(%rbp)
    a1c1:	48 8d 85 98 e3 ff ff 	lea    -0x1c68(%rbp),%rax
    a1c8:	48 89 85 c8 f5 ff ff 	mov    %rax,-0xa38(%rbp)
    a1cf:	48 8d 85 98 e3 ff ff 	lea    -0x1c68(%rbp),%rax
    a1d6:	48 89 85 d0 f5 ff ff 	mov    %rax,-0xa30(%rbp)
    a1dd:	48 8d 85 98 e3 ff ff 	lea    -0x1c68(%rbp),%rax
    a1e4:	48 89 85 d8 f5 ff ff 	mov    %rax,-0xa28(%rbp)
    a1eb:	48 c7 85 e0 f5 ff ff 	movq   $0x0,-0xa20(%rbp)
    a1f2:	00 00 00 00 
    a1f6:	48 8d 85 98 e3 ff ff 	lea    -0x1c68(%rbp),%rax
    a1fd:	48 89 85 e8 f5 ff ff 	mov    %rax,-0xa18(%rbp)
    a204:	48 8d 85 98 e3 ff ff 	lea    -0x1c68(%rbp),%rax
    a20b:	48 89 85 f0 f5 ff ff 	mov    %rax,-0xa10(%rbp)
    a212:	48 c7 85 f8 f5 ff ff 	movq   $0x0,-0xa08(%rbp)
    a219:	00 00 00 00 
    a21d:	48 c7 85 00 f6 ff ff 	movq   $0x0,-0xa00(%rbp)
    a224:	00 00 00 00 
    a228:	48 8d 85 98 e3 ff ff 	lea    -0x1c68(%rbp),%rax
    a22f:	48 89 85 08 f6 ff ff 	mov    %rax,-0x9f8(%rbp)
    a236:	48 8d 85 98 e3 ff ff 	lea    -0x1c68(%rbp),%rax
    a23d:	48 89 85 10 f6 ff ff 	mov    %rax,-0x9f0(%rbp)
    a244:	48 8d 85 98 e3 ff ff 	lea    -0x1c68(%rbp),%rax
    a24b:	48 89 85 18 f6 ff ff 	mov    %rax,-0x9e8(%rbp)
    a252:	48 8d 85 98 e3 ff ff 	lea    -0x1c68(%rbp),%rax
    a259:	48 89 85 20 f6 ff ff 	mov    %rax,-0x9e0(%rbp)
    a260:	48 8d 85 98 e3 ff ff 	lea    -0x1c68(%rbp),%rax
    a267:	48 89 85 28 f6 ff ff 	mov    %rax,-0x9d8(%rbp)
    a26e:	48 8d 85 98 e3 ff ff 	lea    -0x1c68(%rbp),%rax
    a275:	48 89 85 30 f6 ff ff 	mov    %rax,-0x9d0(%rbp)
    a27c:	48 c7 85 38 f6 ff ff 	movq   $0x0,-0x9c8(%rbp)
    a283:	00 00 00 00 
    a287:	48 8d 85 98 e3 ff ff 	lea    -0x1c68(%rbp),%rax
    a28e:	48 89 85 40 f6 ff ff 	mov    %rax,-0x9c0(%rbp)
    a295:	48 c7 85 48 f6 ff ff 	movq   $0x0,-0x9b8(%rbp)
    a29c:	00 00 00 00 
    a2a0:	48 8d 85 98 e3 ff ff 	lea    -0x1c68(%rbp),%rax
    a2a7:	48 89 85 50 f6 ff ff 	mov    %rax,-0x9b0(%rbp)
    a2ae:	48 8d 85 98 e3 ff ff 	lea    -0x1c68(%rbp),%rax
    a2b5:	48 89 85 58 f6 ff ff 	mov    %rax,-0x9a8(%rbp)
    a2bc:	48 8d 85 98 e3 ff ff 	lea    -0x1c68(%rbp),%rax
    a2c3:	48 89 85 60 f6 ff ff 	mov    %rax,-0x9a0(%rbp)
    a2ca:	48 c7 85 68 f6 ff ff 	movq   $0x0,-0x998(%rbp)
    a2d1:	00 00 00 00 
    a2d5:	48 8d 85 98 e3 ff ff 	lea    -0x1c68(%rbp),%rax
    a2dc:	48 89 85 70 f6 ff ff 	mov    %rax,-0x990(%rbp)
    a2e3:	48 c7 85 78 f6 ff ff 	movq   $0x0,-0x988(%rbp)
    a2ea:	00 00 00 00 
    a2ee:	48 8d 85 98 e3 ff ff 	lea    -0x1c68(%rbp),%rax
    a2f5:	48 89 85 80 f6 ff ff 	mov    %rax,-0x980(%rbp)
    a2fc:	48 8d 85 98 e3 ff ff 	lea    -0x1c68(%rbp),%rax
    a303:	48 89 85 88 f6 ff ff 	mov    %rax,-0x978(%rbp)
    a30a:	48 c7 85 90 f6 ff ff 	movq   $0x0,-0x970(%rbp)
    a311:	00 00 00 00 
    a315:	48 8d 85 98 e3 ff ff 	lea    -0x1c68(%rbp),%rax
    a31c:	48 89 85 98 f6 ff ff 	mov    %rax,-0x968(%rbp)
    a323:	48 c7 85 a0 f6 ff ff 	movq   $0x0,-0x960(%rbp)
    a32a:	00 00 00 00 
    a32e:	48 8d 85 98 e3 ff ff 	lea    -0x1c68(%rbp),%rax
    a335:	48 89 85 a8 f6 ff ff 	mov    %rax,-0x958(%rbp)
    a33c:	48 8d 85 98 e3 ff ff 	lea    -0x1c68(%rbp),%rax
    a343:	48 89 85 b0 f6 ff ff 	mov    %rax,-0x950(%rbp)
    a34a:	48 8d 85 98 e3 ff ff 	lea    -0x1c68(%rbp),%rax
    a351:	48 89 85 b8 f6 ff ff 	mov    %rax,-0x948(%rbp)
    a358:	48 8d 85 98 e3 ff ff 	lea    -0x1c68(%rbp),%rax
    a35f:	48 89 85 c0 f6 ff ff 	mov    %rax,-0x940(%rbp)
    a366:	48 c7 85 c8 f6 ff ff 	movq   $0x0,-0x938(%rbp)
    a36d:	00 00 00 00 
    a371:	48 c7 85 d0 f6 ff ff 	movq   $0x0,-0x930(%rbp)
    a378:	00 00 00 00 
    a37c:	48 8d 85 98 e3 ff ff 	lea    -0x1c68(%rbp),%rax
    a383:	48 89 85 d8 f6 ff ff 	mov    %rax,-0x928(%rbp)
    a38a:	48 c7 85 e0 f6 ff ff 	movq   $0x0,-0x920(%rbp)
    a391:	00 00 00 00 
    a395:	48 8d 85 98 e3 ff ff 	lea    -0x1c68(%rbp),%rax
    a39c:	48 89 85 e8 f6 ff ff 	mov    %rax,-0x918(%rbp)
    a3a3:	48 8d 85 98 e3 ff ff 	lea    -0x1c68(%rbp),%rax
    a3aa:	48 89 85 f0 f6 ff ff 	mov    %rax,-0x910(%rbp)
    a3b1:	48 8d 85 98 e3 ff ff 	lea    -0x1c68(%rbp),%rax
    a3b8:	48 89 85 f8 f6 ff ff 	mov    %rax,-0x908(%rbp)
    a3bf:	48 8d 85 98 e3 ff ff 	lea    -0x1c68(%rbp),%rax
    a3c6:	48 89 85 00 f7 ff ff 	mov    %rax,-0x900(%rbp)
    a3cd:	48 8d 85 98 e3 ff ff 	lea    -0x1c68(%rbp),%rax
    a3d4:	48 89 85 08 f7 ff ff 	mov    %rax,-0x8f8(%rbp)
    a3db:	48 8d 85 98 e3 ff ff 	lea    -0x1c68(%rbp),%rax
    a3e2:	48 89 85 10 f7 ff ff 	mov    %rax,-0x8f0(%rbp)
    a3e9:	48 8d 85 98 e3 ff ff 	lea    -0x1c68(%rbp),%rax
    a3f0:	48 89 85 18 f7 ff ff 	mov    %rax,-0x8e8(%rbp)
    a3f7:	48 8d 85 98 e3 ff ff 	lea    -0x1c68(%rbp),%rax
    a3fe:	48 89 85 20 f7 ff ff 	mov    %rax,-0x8e0(%rbp)
    a405:	48 8d 85 98 e3 ff ff 	lea    -0x1c68(%rbp),%rax
    a40c:	48 89 85 28 f7 ff ff 	mov    %rax,-0x8d8(%rbp)
    a413:	48 8d 85 98 e3 ff ff 	lea    -0x1c68(%rbp),%rax
    a41a:	48 89 85 30 f7 ff ff 	mov    %rax,-0x8d0(%rbp)
    a421:	48 8d 85 98 e3 ff ff 	lea    -0x1c68(%rbp),%rax
    a428:	48 89 85 38 f7 ff ff 	mov    %rax,-0x8c8(%rbp)
    a42f:	48 8d 85 98 e3 ff ff 	lea    -0x1c68(%rbp),%rax
    a436:	48 89 85 40 f7 ff ff 	mov    %rax,-0x8c0(%rbp)
    a43d:	48 8d 85 98 e3 ff ff 	lea    -0x1c68(%rbp),%rax
    a444:	48 89 85 48 f7 ff ff 	mov    %rax,-0x8b8(%rbp)
    a44b:	48 8d 85 98 e3 ff ff 	lea    -0x1c68(%rbp),%rax
    a452:	48 89 85 50 f7 ff ff 	mov    %rax,-0x8b0(%rbp)
    a459:	48 c7 85 58 f7 ff ff 	movq   $0x0,-0x8a8(%rbp)
    a460:	00 00 00 00 
    a464:	48 8d 85 98 e3 ff ff 	lea    -0x1c68(%rbp),%rax
    a46b:	48 89 85 60 f7 ff ff 	mov    %rax,-0x8a0(%rbp)
    a472:	48 8d 85 98 e3 ff ff 	lea    -0x1c68(%rbp),%rax
    a479:	48 89 85 68 f7 ff ff 	mov    %rax,-0x898(%rbp)
    a480:	48 8d 85 98 e3 ff ff 	lea    -0x1c68(%rbp),%rax
    a487:	48 89 85 70 f7 ff ff 	mov    %rax,-0x890(%rbp)
    a48e:	48 8d 85 98 e3 ff ff 	lea    -0x1c68(%rbp),%rax
    a495:	48 89 85 78 f7 ff ff 	mov    %rax,-0x888(%rbp)
    a49c:	48 8d 85 98 e3 ff ff 	lea    -0x1c68(%rbp),%rax
    a4a3:	48 89 85 80 f7 ff ff 	mov    %rax,-0x880(%rbp)
    a4aa:	48 8d 85 98 e3 ff ff 	lea    -0x1c68(%rbp),%rax
    a4b1:	48 89 85 88 f7 ff ff 	mov    %rax,-0x878(%rbp)
    a4b8:	48 8d 85 98 e3 ff ff 	lea    -0x1c68(%rbp),%rax
    a4bf:	48 89 85 90 f7 ff ff 	mov    %rax,-0x870(%rbp)
    a4c6:	48 8d 85 98 e3 ff ff 	lea    -0x1c68(%rbp),%rax
    a4cd:	48 89 85 98 f7 ff ff 	mov    %rax,-0x868(%rbp)
    a4d4:	48 8d 85 98 e3 ff ff 	lea    -0x1c68(%rbp),%rax
    a4db:	48 89 85 a0 f7 ff ff 	mov    %rax,-0x860(%rbp)
    a4e2:	48 8d 85 98 e3 ff ff 	lea    -0x1c68(%rbp),%rax
    a4e9:	48 89 85 a8 f7 ff ff 	mov    %rax,-0x858(%rbp)
    a4f0:	48 8d 85 98 e3 ff ff 	lea    -0x1c68(%rbp),%rax
    a4f7:	48 89 85 b0 f7 ff ff 	mov    %rax,-0x850(%rbp)
    a4fe:	48 8d 85 98 e3 ff ff 	lea    -0x1c68(%rbp),%rax
    a505:	48 89 85 b8 f7 ff ff 	mov    %rax,-0x848(%rbp)
    a50c:	48 8d 85 98 e3 ff ff 	lea    -0x1c68(%rbp),%rax
    a513:	48 89 85 c0 f7 ff ff 	mov    %rax,-0x840(%rbp)
    a51a:	48 8d 85 98 e3 ff ff 	lea    -0x1c68(%rbp),%rax
    a521:	48 89 85 c8 f7 ff ff 	mov    %rax,-0x838(%rbp)
    a528:	48 8d 85 98 e3 ff ff 	lea    -0x1c68(%rbp),%rax
    a52f:	48 89 85 d0 f7 ff ff 	mov    %rax,-0x830(%rbp)
    a536:	48 8d 85 98 e3 ff ff 	lea    -0x1c68(%rbp),%rax
    a53d:	48 89 85 d8 f7 ff ff 	mov    %rax,-0x828(%rbp)
    a544:	48 8d 85 98 e3 ff ff 	lea    -0x1c68(%rbp),%rax
    a54b:	48 89 85 e0 f7 ff ff 	mov    %rax,-0x820(%rbp)
    a552:	48 8d 85 98 e3 ff ff 	lea    -0x1c68(%rbp),%rax
    a559:	48 89 85 e8 f7 ff ff 	mov    %rax,-0x818(%rbp)
    a560:	48 c7 85 f0 f7 ff ff 	movq   $0x0,-0x810(%rbp)
    a567:	00 00 00 00 
    a56b:	48 c7 85 f8 f7 ff ff 	movq   $0x0,-0x808(%rbp)
    a572:	00 00 00 00 
    a576:	48 c7 85 00 f8 ff ff 	movq   $0x0,-0x800(%rbp)
    a57d:	00 00 00 00 
    a581:	48 c7 85 08 f8 ff ff 	movq   $0x0,-0x7f8(%rbp)
    a588:	00 00 00 00 
    a58c:	48 8d 85 98 e3 ff ff 	lea    -0x1c68(%rbp),%rax
    a593:	48 89 85 10 f8 ff ff 	mov    %rax,-0x7f0(%rbp)
    a59a:	48 8d 85 98 e3 ff ff 	lea    -0x1c68(%rbp),%rax
    a5a1:	48 89 85 18 f8 ff ff 	mov    %rax,-0x7e8(%rbp)
    a5a8:	48 8d 85 98 e3 ff ff 	lea    -0x1c68(%rbp),%rax
    a5af:	48 89 85 20 f8 ff ff 	mov    %rax,-0x7e0(%rbp)
    a5b6:	48 8d 85 98 e3 ff ff 	lea    -0x1c68(%rbp),%rax
    a5bd:	48 89 85 28 f8 ff ff 	mov    %rax,-0x7d8(%rbp)
    a5c4:	48 c7 85 30 f8 ff ff 	movq   $0x0,-0x7d0(%rbp)
    a5cb:	00 00 00 00 
    a5cf:	48 8d 85 98 e3 ff ff 	lea    -0x1c68(%rbp),%rax
    a5d6:	48 89 85 38 f8 ff ff 	mov    %rax,-0x7c8(%rbp)
    a5dd:	48 8d 85 98 e3 ff ff 	lea    -0x1c68(%rbp),%rax
    a5e4:	48 89 85 40 f8 ff ff 	mov    %rax,-0x7c0(%rbp)
    a5eb:	48 c7 85 48 f8 ff ff 	movq   $0x0,-0x7b8(%rbp)
    a5f2:	00 00 00 00 
    a5f6:	48 8d 85 98 e3 ff ff 	lea    -0x1c68(%rbp),%rax
    a5fd:	48 89 85 50 f8 ff ff 	mov    %rax,-0x7b0(%rbp)
    a604:	48 8d 85 98 e3 ff ff 	lea    -0x1c68(%rbp),%rax
    a60b:	48 89 85 58 f8 ff ff 	mov    %rax,-0x7a8(%rbp)
    a612:	48 8d 85 98 e3 ff ff 	lea    -0x1c68(%rbp),%rax
    a619:	48 89 85 60 f8 ff ff 	mov    %rax,-0x7a0(%rbp)
    a620:	48 8d 85 98 e3 ff ff 	lea    -0x1c68(%rbp),%rax
    a627:	48 89 85 68 f8 ff ff 	mov    %rax,-0x798(%rbp)
    a62e:	48 8d 85 98 e3 ff ff 	lea    -0x1c68(%rbp),%rax
    a635:	48 89 85 70 f8 ff ff 	mov    %rax,-0x790(%rbp)
    a63c:	48 8d 85 98 e3 ff ff 	lea    -0x1c68(%rbp),%rax
    a643:	48 89 85 78 f8 ff ff 	mov    %rax,-0x788(%rbp)
    a64a:	48 8d 85 98 e3 ff ff 	lea    -0x1c68(%rbp),%rax
    a651:	48 89 85 80 f8 ff ff 	mov    %rax,-0x780(%rbp)
    a658:	48 8d 85 98 e3 ff ff 	lea    -0x1c68(%rbp),%rax
    a65f:	48 89 85 88 f8 ff ff 	mov    %rax,-0x778(%rbp)
    a666:	48 8d 85 98 e3 ff ff 	lea    -0x1c68(%rbp),%rax
    a66d:	48 89 85 90 f8 ff ff 	mov    %rax,-0x770(%rbp)
    a674:	48 c7 85 98 f8 ff ff 	movq   $0x0,-0x768(%rbp)
    a67b:	00 00 00 00 
    a67f:	48 8d 85 98 e3 ff ff 	lea    -0x1c68(%rbp),%rax
    a686:	48 89 85 a0 f8 ff ff 	mov    %rax,-0x760(%rbp)
    a68d:	48 8d 85 98 e3 ff ff 	lea    -0x1c68(%rbp),%rax
    a694:	48 89 85 a8 f8 ff ff 	mov    %rax,-0x758(%rbp)
    a69b:	48 8d 85 98 e3 ff ff 	lea    -0x1c68(%rbp),%rax
    a6a2:	48 89 85 b0 f8 ff ff 	mov    %rax,-0x750(%rbp)
    a6a9:	48 8d 85 98 e3 ff ff 	lea    -0x1c68(%rbp),%rax
    a6b0:	48 89 85 b8 f8 ff ff 	mov    %rax,-0x748(%rbp)
    a6b7:	48 c7 85 c0 f8 ff ff 	movq   $0x0,-0x740(%rbp)
    a6be:	00 00 00 00 
    a6c2:	48 8d 85 98 e3 ff ff 	lea    -0x1c68(%rbp),%rax
    a6c9:	48 89 85 c8 f8 ff ff 	mov    %rax,-0x738(%rbp)
    a6d0:	48 c7 85 d0 f8 ff ff 	movq   $0x0,-0x730(%rbp)
    a6d7:	00 00 00 00 
    a6db:	48 8d 85 98 e3 ff ff 	lea    -0x1c68(%rbp),%rax
    a6e2:	48 89 85 d8 f8 ff ff 	mov    %rax,-0x728(%rbp)
    a6e9:	48 c7 85 e0 f8 ff ff 	movq   $0x0,-0x720(%rbp)
    a6f0:	00 00 00 00 
    a6f4:	48 8d 85 98 e3 ff ff 	lea    -0x1c68(%rbp),%rax
    a6fb:	48 89 85 e8 f8 ff ff 	mov    %rax,-0x718(%rbp)
    a702:	48 c7 85 f0 f8 ff ff 	movq   $0x0,-0x710(%rbp)
    a709:	00 00 00 00 
    a70d:	48 8d 85 98 e3 ff ff 	lea    -0x1c68(%rbp),%rax
    a714:	48 89 85 f8 f8 ff ff 	mov    %rax,-0x708(%rbp)
    a71b:	48 8d 85 98 e3 ff ff 	lea    -0x1c68(%rbp),%rax
    a722:	48 89 85 00 f9 ff ff 	mov    %rax,-0x700(%rbp)
    a729:	48 8d 85 98 e3 ff ff 	lea    -0x1c68(%rbp),%rax
    a730:	48 89 85 08 f9 ff ff 	mov    %rax,-0x6f8(%rbp)
    a737:	48 c7 85 10 f9 ff ff 	movq   $0x0,-0x6f0(%rbp)
    a73e:	00 00 00 00 
    a742:	48 8d 85 98 e3 ff ff 	lea    -0x1c68(%rbp),%rax
    a749:	48 89 85 18 f9 ff ff 	mov    %rax,-0x6e8(%rbp)
    a750:	48 8d 85 98 e3 ff ff 	lea    -0x1c68(%rbp),%rax
    a757:	48 89 85 20 f9 ff ff 	mov    %rax,-0x6e0(%rbp)
    a75e:	48 8d 85 98 e3 ff ff 	lea    -0x1c68(%rbp),%rax
    a765:	48 89 85 28 f9 ff ff 	mov    %rax,-0x6d8(%rbp)
    a76c:	48 c7 85 30 f9 ff ff 	movq   $0x0,-0x6d0(%rbp)
    a773:	00 00 00 00 
    a777:	48 8d 85 98 e3 ff ff 	lea    -0x1c68(%rbp),%rax
    a77e:	48 89 85 38 f9 ff ff 	mov    %rax,-0x6c8(%rbp)
    a785:	48 8d 85 98 e3 ff ff 	lea    -0x1c68(%rbp),%rax
    a78c:	48 89 85 40 f9 ff ff 	mov    %rax,-0x6c0(%rbp)
    a793:	48 8d 85 98 e3 ff ff 	lea    -0x1c68(%rbp),%rax
    a79a:	48 89 85 48 f9 ff ff 	mov    %rax,-0x6b8(%rbp)
    a7a1:	48 8d 85 98 e3 ff ff 	lea    -0x1c68(%rbp),%rax
    a7a8:	48 89 85 50 f9 ff ff 	mov    %rax,-0x6b0(%rbp)
    a7af:	48 8d 85 98 e3 ff ff 	lea    -0x1c68(%rbp),%rax
    a7b6:	48 89 85 58 f9 ff ff 	mov    %rax,-0x6a8(%rbp)
    a7bd:	48 8d 85 98 e3 ff ff 	lea    -0x1c68(%rbp),%rax
    a7c4:	48 89 85 60 f9 ff ff 	mov    %rax,-0x6a0(%rbp)
    a7cb:	48 8d 85 98 e3 ff ff 	lea    -0x1c68(%rbp),%rax
    a7d2:	48 89 85 68 f9 ff ff 	mov    %rax,-0x698(%rbp)
    a7d9:	48 8d 85 98 e3 ff ff 	lea    -0x1c68(%rbp),%rax
    a7e0:	48 89 85 70 f9 ff ff 	mov    %rax,-0x690(%rbp)
    a7e7:	48 c7 85 78 f9 ff ff 	movq   $0x0,-0x688(%rbp)
    a7ee:	00 00 00 00 
    a7f2:	48 8d 85 98 e3 ff ff 	lea    -0x1c68(%rbp),%rax
    a7f9:	48 89 85 80 f9 ff ff 	mov    %rax,-0x680(%rbp)
    a800:	48 8d 85 98 e3 ff ff 	lea    -0x1c68(%rbp),%rax
    a807:	48 89 85 88 f9 ff ff 	mov    %rax,-0x678(%rbp)
    a80e:	48 8d 85 98 e3 ff ff 	lea    -0x1c68(%rbp),%rax
    a815:	48 89 85 90 f9 ff ff 	mov    %rax,-0x670(%rbp)
    a81c:	48 8d 85 98 e3 ff ff 	lea    -0x1c68(%rbp),%rax
    a823:	48 89 85 98 f9 ff ff 	mov    %rax,-0x668(%rbp)
    a82a:	48 c7 85 a0 f9 ff ff 	movq   $0x0,-0x660(%rbp)
    a831:	00 00 00 00 
    a835:	48 8d 85 98 e3 ff ff 	lea    -0x1c68(%rbp),%rax
    a83c:	48 89 85 a8 f9 ff ff 	mov    %rax,-0x658(%rbp)
    a843:	48 8d 85 98 e3 ff ff 	lea    -0x1c68(%rbp),%rax
    a84a:	48 89 85 b0 f9 ff ff 	mov    %rax,-0x650(%rbp)
    a851:	48 c7 85 b8 f9 ff ff 	movq   $0x0,-0x648(%rbp)
    a858:	00 00 00 00 
    a85c:	48 c7 85 c0 f9 ff ff 	movq   $0x0,-0x640(%rbp)
    a863:	00 00 00 00 
    a867:	48 c7 85 c8 f9 ff ff 	movq   $0x0,-0x638(%rbp)
    a86e:	00 00 00 00 
    a872:	48 8d 85 98 e3 ff ff 	lea    -0x1c68(%rbp),%rax
    a879:	48 89 85 d0 f9 ff ff 	mov    %rax,-0x630(%rbp)
    a880:	48 8d 85 98 e3 ff ff 	lea    -0x1c68(%rbp),%rax
    a887:	48 89 85 d8 f9 ff ff 	mov    %rax,-0x628(%rbp)
    a88e:	48 8d 85 98 e3 ff ff 	lea    -0x1c68(%rbp),%rax
    a895:	48 89 85 e0 f9 ff ff 	mov    %rax,-0x620(%rbp)
    a89c:	48 c7 85 e8 f9 ff ff 	movq   $0x0,-0x618(%rbp)
    a8a3:	00 00 00 00 
    a8a7:	48 c7 85 f0 f9 ff ff 	movq   $0x0,-0x610(%rbp)
    a8ae:	00 00 00 00 
    a8b2:	48 c7 85 f8 f9 ff ff 	movq   $0x0,-0x608(%rbp)
    a8b9:	00 00 00 00 
    a8bd:	48 8d 85 98 e3 ff ff 	lea    -0x1c68(%rbp),%rax
    a8c4:	48 89 85 00 fa ff ff 	mov    %rax,-0x600(%rbp)
    a8cb:	48 8d 85 98 e3 ff ff 	lea    -0x1c68(%rbp),%rax
    a8d2:	48 89 85 08 fa ff ff 	mov    %rax,-0x5f8(%rbp)
    a8d9:	48 8d 85 98 e3 ff ff 	lea    -0x1c68(%rbp),%rax
    a8e0:	48 89 85 10 fa ff ff 	mov    %rax,-0x5f0(%rbp)
    a8e7:	48 8d 85 98 e3 ff ff 	lea    -0x1c68(%rbp),%rax
    a8ee:	48 89 85 18 fa ff ff 	mov    %rax,-0x5e8(%rbp)
    a8f5:	48 8b 85 88 e3 ff ff 	mov    -0x1c78(%rbp),%rax
    a8fc:	c7 00 00 00 00 00    	movl   $0x0,(%rax)
    a902:	c7 05 34 44 01 00 04 	movl   $0x4,0x14434(%rip)        # 1ed40 <g_1148>
    a909:	00 00 00 
    a90c:	eb 59                	jmp    a967 <func_1+0x11b2>
    a90e:	66 c7 85 ee e2 ff ff 	movw   $0xffff,-0x1d12(%rbp)
    a915:	ff ff 
    a917:	48 8b 15 c2 72 01 00 	mov    0x172c2(%rip),%rdx        # 21be0 <g_105>
    a91e:	48 8b 05 83 7d 01 00 	mov    0x17d83(%rip),%rax        # 226a8 <g_1760>
    a925:	48 8b 12             	mov    (%rdx),%rdx
    a928:	48 89 10             	mov    %rdx,(%rax)
    a92b:	c7 05 4b 27 01 00 00 	movl   $0x0,0x1274b(%rip)        # 1d080 <g_55>
    a932:	00 00 00 
    a935:	90                   	nop
    a936:	8b 05 44 27 01 00    	mov    0x12744(%rip),%eax        # 1d080 <g_55>
    a93c:	83 f8 19             	cmp    $0x19,%eax
    a93f:	7f 0c                	jg     a94d <func_1+0x1198>
    a941:	0f bf 85 ee e2 ff ff 	movswl -0x1d12(%rbp),%eax
    a948:	e9 55 20 00 00       	jmpq   c9a2 <func_1+0x31ed>
    a94d:	8b 05 ed 43 01 00    	mov    0x143ed(%rip),%eax        # 1ed40 <g_1148>
    a953:	98                   	cwtl   
    a954:	be 01 00 00 00       	mov    $0x1,%esi
    a959:	89 c7                	mov    %eax,%edi
    a95b:	e8 73 da ff ff       	callq  83d3 <safe_sub_func_int16_t_s_s>
    a960:	98                   	cwtl   
    a961:	89 05 d9 43 01 00    	mov    %eax,0x143d9(%rip)        # 1ed40 <g_1148>
    a967:	8b 05 d3 43 01 00    	mov    0x143d3(%rip),%eax        # 1ed40 <g_1148>
    a96d:	83 f8 e4             	cmp    $0xffffffe4,%eax
    a970:	75 9c                	jne    a90e <func_1+0x1159>
    a972:	48 8b 85 88 e3 ff ff 	mov    -0x1c78(%rbp),%rax
    a979:	8b 00                	mov    (%rax),%eax
    a97b:	89 c3                	mov    %eax,%ebx
    a97d:	48 8b 85 88 e3 ff ff 	mov    -0x1c78(%rbp),%rax
    a984:	8b 00                	mov    (%rax),%eax
    a986:	89 c2                	mov    %eax,%edx
    a988:	48 8b 05 a9 7c 01 00 	mov    0x17ca9(%rip),%rax        # 22638 <g_957>
    a98f:	48 8b 00             	mov    (%rax),%rax
    a992:	8b 00                	mov    (%rax),%eax
    a994:	89 d6                	mov    %edx,%esi
    a996:	89 c7                	mov    %eax,%edi
    a998:	e8 1b e5 ff ff       	callq  8eb8 <safe_add_func_uint32_t_u_u>
    a99d:	31 c3                	xor    %eax,%ebx
    a99f:	89 da                	mov    %ebx,%edx
    a9a1:	48 8b 85 88 e3 ff ff 	mov    -0x1c78(%rbp),%rax
    a9a8:	89 10                	mov    %edx,(%rax)
    a9aa:	8b 00                	mov    (%rax),%eax
    a9ac:	85 c0                	test   %eax,%eax
    a9ae:	0f 84 a4 1c 00 00    	je     c658 <func_1+0x2ea3>
    a9b4:	48 c7 85 18 e4 ff ff 	movq   $0x0,-0x1be8(%rbp)
    a9bb:	00 00 00 00 
    a9bf:	48 8d 05 da 28 01 00 	lea    0x128da(%rip),%rax        # 1d2a0 <g_548>
    a9c6:	48 89 85 20 e4 ff ff 	mov    %rax,-0x1be0(%rbp)
    a9cd:	48 b8 24 90 fc f6 fd 	movabs $0x64e34bfdf6fc9024,%rax
    a9d4:	4b e3 64 
    a9d7:	48 89 85 28 e4 ff ff 	mov    %rax,-0x1bd8(%rbp)
    a9de:	48 8d 05 83 28 01 00 	lea    0x12883(%rip),%rax        # 1d268 <g_404>
    a9e5:	48 89 85 30 e4 ff ff 	mov    %rax,-0x1bd0(%rbp)
    a9ec:	48 c7 85 38 e4 ff ff 	movq   $0x0,-0x1bc8(%rbp)
    a9f3:	00 00 00 00 
    a9f7:	c7 85 14 e3 ff ff 01 	movl   $0x1,-0x1cec(%rbp)
    a9fe:	00 00 00 
    aa01:	c7 85 18 e3 ff ff e1 	movl   $0xcf3266e1,-0x1ce8(%rbp)
    aa08:	66 32 cf 
    aa0b:	c6 85 e2 e2 ff ff 50 	movb   $0x50,-0x1d1e(%rbp)
    aa12:	c7 85 4c e3 ff ff 1d 	movl   $0xfc31291d,-0x1cb4(%rbp)
    aa19:	29 31 fc 
    aa1c:	c7 85 50 e3 ff ff 8a 	movl   $0xd38108a,-0x1cb0(%rbp)
    aa23:	10 38 0d 
    aa26:	48 8d 85 c0 e7 ff ff 	lea    -0x1840(%rbp),%rax
    aa2d:	48 8d 15 8c d9 00 00 	lea    0xd98c(%rip),%rdx        # 183c0 <g_1750+0x320>
    aa34:	b9 78 00 00 00       	mov    $0x78,%ecx
    aa39:	48 89 c7             	mov    %rax,%rdi
    aa3c:	48 89 d6             	mov    %rdx,%rsi
    aa3f:	f3 48 a5             	rep movsq %ds:(%rsi),%es:(%rdi)
    aa42:	48 8d 05 5f 82 01 00 	lea    0x1825f(%rip),%rax        # 22ca8 <g_1599>
    aa49:	48 89 85 40 e4 ff ff 	mov    %rax,-0x1bc0(%rbp)
    aa50:	48 8b 85 88 e3 ff ff 	mov    -0x1c78(%rbp),%rax
    aa57:	44 8b 30             	mov    (%rax),%r14d
    aa5a:	0f b7 85 68 e6 ff ff 	movzwl -0x1998(%rbp),%eax
    aa61:	44 0f bf f8          	movswl %ax,%r15d
    aa65:	8b 85 f4 e2 ff ff    	mov    -0x1d0c(%rbp),%eax
    aa6b:	0f bf d8             	movswl %ax,%ebx
    aa6e:	48 8b 05 83 49 01 00 	mov    0x14983(%rip),%rax        # 1f3f8 <g_1600+0x78>
    aa75:	48 c1 e8 0a          	shr    $0xa,%rax
    aa79:	25 ff ff 7f 00       	and    $0x7fffff,%eax
    aa7e:	44 0f b6 e0          	movzbl %al,%r12d
    aa82:	48 8b 85 28 e4 ff ff 	mov    -0x1bd8(%rbp),%rax
    aa89:	89 85 dc e2 ff ff    	mov    %eax,-0x1d24(%rbp)
    aa8f:	8b 85 f0 e2 ff ff    	mov    -0x1d10(%rbp),%eax
    aa95:	44 0f b7 e8          	movzwl %ax,%r13d
    aa99:	8b 85 84 e6 ff ff    	mov    -0x197c(%rbp),%eax
    aa9f:	89 85 d8 e2 ff ff    	mov    %eax,-0x1d28(%rbp)
    aaa5:	0f b7 85 60 e6 ff ff 	movzwl -0x19a0(%rbp),%eax
    aaac:	0f bf d0             	movswl %ax,%edx
    aaaf:	48 8b 85 88 e3 ff ff 	mov    -0x1c78(%rbp),%rax
    aab6:	8b 00                	mov    (%rax),%eax
    aab8:	89 d6                	mov    %edx,%esi
    aaba:	89 c7                	mov    %eax,%edi
    aabc:	e8 f5 da ff ff       	callq  85b6 <safe_add_func_int32_t_s_s>
    aac1:	39 85 d8 e2 ff ff    	cmp    %eax,-0x1d28(%rbp)
    aac7:	0f 93 c0             	setae  %al
    aaca:	0f b6 d0             	movzbl %al,%edx
    aacd:	48 8b 85 88 e3 ff ff 	mov    -0x1c78(%rbp),%rax
    aad4:	8b 00                	mov    (%rax),%eax
    aad6:	39 c2                	cmp    %eax,%edx
    aad8:	0f 9c c0             	setl   %al
    aadb:	0f b6 d0             	movzbl %al,%edx
    aade:	48 8b 05 5b 7b 01 00 	mov    0x17b5b(%rip),%rax        # 22640 <g_974>
    aae5:	0f b6 00             	movzbl (%rax),%eax
    aae8:	0f b6 c0             	movzbl %al,%eax
    aaeb:	39 c2                	cmp    %eax,%edx
    aaed:	0f 9f c0             	setg   %al
    aaf0:	0f b6 c0             	movzbl %al,%eax
    aaf3:	66 33 85 ea e2 ff ff 	xor    -0x1d16(%rbp),%ax
    aafa:	0f b7 c0             	movzwl %ax,%eax
    aafd:	be 01 00 00 00       	mov    $0x1,%esi
    ab02:	89 c7                	mov    %eax,%edi
    ab04:	e8 34 e2 ff ff       	callq  8d3d <safe_mul_func_uint16_t_u_u>
    ab09:	48 8b 95 20 e4 ff ff 	mov    -0x1be0(%rbp),%rdx
    ab10:	0f b7 12             	movzwl (%rdx),%edx
    ab13:	31 c2                	xor    %eax,%edx
    ab15:	48 8b 85 20 e4 ff ff 	mov    -0x1be0(%rbp),%rax
    ab1c:	66 89 10             	mov    %dx,(%rax)
    ab1f:	48 8b 85 20 e4 ff ff 	mov    -0x1be0(%rbp),%rax
    ab26:	0f b7 00             	movzwl (%rax),%eax
    ab29:	0f b7 c0             	movzwl %ax,%eax
    ab2c:	44 89 ee             	mov    %r13d,%esi
    ab2f:	89 c7                	mov    %eax,%edi
    ab31:	e8 07 e2 ff ff       	callq  8d3d <safe_mul_func_uint16_t_u_u>
    ab36:	0f b7 c0             	movzwl %ax,%eax
    ab39:	8b b5 dc e2 ff ff    	mov    -0x1d24(%rbp),%esi
    ab3f:	89 c7                	mov    %eax,%edi
    ab41:	e8 72 e3 ff ff       	callq  8eb8 <safe_add_func_uint32_t_u_u>
    ab46:	98                   	cwtl   
    ab47:	be 00 00 00 00       	mov    $0x0,%esi
    ab4c:	89 c7                	mov    %eax,%edi
    ab4e:	e8 d7 d9 ff ff       	callq  852a <safe_rshift_func_int16_t_s_s>
    ab53:	0f b7 c0             	movzwl %ax,%eax
    ab56:	be 47 61 00 00       	mov    $0x6147,%esi
    ab5b:	89 c7                	mov    %eax,%edi
    ab5d:	e8 9d e1 ff ff       	callq  8cff <safe_add_func_uint16_t_u_u>
    ab62:	89 c2                	mov    %eax,%edx
    ab64:	8b 85 84 e6 ff ff    	mov    -0x197c(%rbp),%eax
    ab6a:	31 d0                	xor    %edx,%eax
    ab6c:	0f b6 c0             	movzbl %al,%eax
    ab6f:	44 89 e6             	mov    %r12d,%esi
    ab72:	89 c7                	mov    %eax,%edi
    ab74:	e8 ff df ff ff       	callq  8b78 <safe_sub_func_uint8_t_u_u>
    ab79:	0f b6 c0             	movzbl %al,%eax
    ab7c:	89 de                	mov    %ebx,%esi
    ab7e:	89 c7                	mov    %eax,%edi
    ab80:	e8 70 d8 ff ff       	callq  83f5 <safe_mul_func_int16_t_s_s>
    ab85:	0f b6 c0             	movzbl %al,%eax
    ab88:	be 04 00 00 00       	mov    $0x4,%esi
    ab8d:	89 c7                	mov    %eax,%edi
    ab8f:	e8 b8 e0 ff ff       	callq  8c4c <safe_lshift_func_uint8_t_u_u>
    ab94:	be 01 00 00 00       	mov    $0x1,%esi
    ab99:	bf 89 8e af 0f       	mov    $0xfaf8e89,%edi
    ab9e:	e8 13 da ff ff       	callq  85b6 <safe_add_func_int32_t_s_s>
    aba3:	34 ff                	xor    $0xff,%al
    aba5:	be fa ff ff ff       	mov    $0xfffffffa,%esi
    abaa:	89 c7                	mov    %eax,%edi
    abac:	e8 4e db ff ff       	callq  86ff <safe_div_func_int32_t_s_s>
    abb1:	48 98                	cltq   
    abb3:	48 39 85 f0 e3 ff ff 	cmp    %rax,-0x1c10(%rbp)
    abba:	0f 9d c0             	setge  %al
    abbd:	0f b6 c0             	movzbl %al,%eax
    abc0:	41 39 c7             	cmp    %eax,%r15d
    abc3:	0f 95 c0             	setne  %al
    abc6:	0f b6 c0             	movzbl %al,%eax
    abc9:	41 39 c6             	cmp    %eax,%r14d
    abcc:	0f 9e c0             	setle  %al
    abcf:	0f b6 d0             	movzbl %al,%edx
    abd2:	48 8b 85 30 e4 ff ff 	mov    -0x1bd0(%rbp),%rax
    abd9:	66 89 10             	mov    %dx,(%rax)
    abdc:	48 8b 85 30 e4 ff ff 	mov    -0x1bd0(%rbp),%rax
    abe3:	0f b7 00             	movzwl (%rax),%eax
    abe6:	0f bf d0             	movswl %ax,%edx
    abe9:	48 8b 85 88 e3 ff ff 	mov    -0x1c78(%rbp),%rax
    abf0:	81 e2 f9 ff 00 00    	and    $0xfff9,%edx
    abf6:	89 10                	mov    %edx,(%rax)
    abf8:	80 bd e3 e2 ff ff 00 	cmpb   $0x0,-0x1d1d(%rbp)
    abff:	0f 94 c2             	sete   %dl
    ac02:	48 8b 85 88 e3 ff ff 	mov    -0x1c78(%rbp),%rax
    ac09:	0f b6 d2             	movzbl %dl,%edx
    ac0c:	89 10                	mov    %edx,(%rax)
    ac0e:	8b 00                	mov    (%rax),%eax
    ac10:	85 c0                	test   %eax,%eax
    ac12:	74 32                	je     ac46 <func_1+0x1491>
    ac14:	48 8d 05 55 80 01 00 	lea    0x18055(%rip),%rax        # 22c70 <g_516>
    ac1b:	48 89 85 a0 e3 ff ff 	mov    %rax,-0x1c60(%rbp)
    ac22:	48 8d 85 a0 e3 ff ff 	lea    -0x1c60(%rbp),%rax
    ac29:	48 89 85 50 e5 ff ff 	mov    %rax,-0x1ab0(%rbp)
    ac30:	48 8b 85 50 e5 ff ff 	mov    -0x1ab0(%rbp),%rax
    ac37:	48 8d 15 32 80 01 00 	lea    0x18032(%rip),%rdx        # 22c70 <g_516>
    ac3e:	48 89 10             	mov    %rdx,(%rax)
    ac41:	e9 d7 1b 00 00       	jmpq   c81d <func_1+0x3068>
    ac46:	c6 85 e6 e2 ff ff 07 	movb   $0x7,-0x1d1a(%rbp)
    ac4d:	48 c7 85 48 e4 ff ff 	movq   $0x0,-0x1bb8(%rbp)
    ac54:	00 00 00 00 
    ac58:	48 c7 85 50 e4 ff ff 	movq   $0x0,-0x1bb0(%rbp)
    ac5f:	00 00 00 00 
    ac63:	48 c7 85 58 e4 ff ff 	movq   $0x0,-0x1ba8(%rbp)
    ac6a:	00 00 00 00 
    ac6e:	48 8d 85 88 e3 ff ff 	lea    -0x1c78(%rbp),%rax
    ac75:	48 89 85 60 e4 ff ff 	mov    %rax,-0x1ba0(%rbp)
    ac7c:	c7 85 a0 e3 ff ff ba 	movl   $0xc17b42ba,-0x1c60(%rbp)
    ac83:	42 7b c1 
    ac86:	48 b8 a9 31 b1 e5 4d 	movabs $0xeac6974de5b131a9,%rax
    ac8d:	97 c6 ea 
    ac90:	48 89 85 68 e4 ff ff 	mov    %rax,-0x1b98(%rbp)
    ac97:	48 8d 85 e0 f4 ff ff 	lea    -0xb20(%rbp),%rax
    ac9e:	48 83 c0 58          	add    $0x58,%rax
    aca2:	48 89 85 70 e4 ff ff 	mov    %rax,-0x1b90(%rbp)
    aca9:	48 8d 85 78 e3 ff ff 	lea    -0x1c88(%rbp),%rax
    acb0:	48 89 85 20 fa ff ff 	mov    %rax,-0x5e0(%rbp)
    acb7:	48 8d 85 78 e3 ff ff 	lea    -0x1c88(%rbp),%rax
    acbe:	48 89 85 28 fa ff ff 	mov    %rax,-0x5d8(%rbp)
    acc5:	48 8d 85 78 e3 ff ff 	lea    -0x1c88(%rbp),%rax
    accc:	48 89 85 30 fa ff ff 	mov    %rax,-0x5d0(%rbp)
    acd3:	48 c7 85 38 fa ff ff 	movq   $0x0,-0x5c8(%rbp)
    acda:	00 00 00 00 
    acde:	48 8d 85 78 e3 ff ff 	lea    -0x1c88(%rbp),%rax
    ace5:	48 89 85 40 fa ff ff 	mov    %rax,-0x5c0(%rbp)
    acec:	48 8d 85 78 e3 ff ff 	lea    -0x1c88(%rbp),%rax
    acf3:	48 89 85 48 fa ff ff 	mov    %rax,-0x5b8(%rbp)
    acfa:	48 8d 85 78 e3 ff ff 	lea    -0x1c88(%rbp),%rax
    ad01:	48 89 85 50 fa ff ff 	mov    %rax,-0x5b0(%rbp)
    ad08:	48 c7 85 58 fa ff ff 	movq   $0x0,-0x5a8(%rbp)
    ad0f:	00 00 00 00 
    ad13:	48 8d 85 78 e3 ff ff 	lea    -0x1c88(%rbp),%rax
    ad1a:	48 89 85 60 fa ff ff 	mov    %rax,-0x5a0(%rbp)
    ad21:	48 8d 85 78 e3 ff ff 	lea    -0x1c88(%rbp),%rax
    ad28:	48 89 85 68 fa ff ff 	mov    %rax,-0x598(%rbp)
    ad2f:	48 8d 85 78 e3 ff ff 	lea    -0x1c88(%rbp),%rax
    ad36:	48 89 85 70 fa ff ff 	mov    %rax,-0x590(%rbp)
    ad3d:	48 8d 85 78 e3 ff ff 	lea    -0x1c88(%rbp),%rax
    ad44:	48 89 85 78 fa ff ff 	mov    %rax,-0x588(%rbp)
    ad4b:	48 8d 85 78 e3 ff ff 	lea    -0x1c88(%rbp),%rax
    ad52:	48 89 85 80 fa ff ff 	mov    %rax,-0x580(%rbp)
    ad59:	48 8d 85 78 e3 ff ff 	lea    -0x1c88(%rbp),%rax
    ad60:	48 89 85 88 fa ff ff 	mov    %rax,-0x578(%rbp)
    ad67:	48 8d 85 78 e3 ff ff 	lea    -0x1c88(%rbp),%rax
    ad6e:	48 89 85 90 fa ff ff 	mov    %rax,-0x570(%rbp)
    ad75:	48 c7 85 98 fa ff ff 	movq   $0x0,-0x568(%rbp)
    ad7c:	00 00 00 00 
    ad80:	48 c7 85 a0 fa ff ff 	movq   $0x0,-0x560(%rbp)
    ad87:	00 00 00 00 
    ad8b:	48 c7 85 a8 fa ff ff 	movq   $0x0,-0x558(%rbp)
    ad92:	00 00 00 00 
    ad96:	48 8d 85 78 e3 ff ff 	lea    -0x1c88(%rbp),%rax
    ad9d:	48 89 85 b0 fa ff ff 	mov    %rax,-0x550(%rbp)
    ada4:	48 8d 85 78 e3 ff ff 	lea    -0x1c88(%rbp),%rax
    adab:	48 89 85 b8 fa ff ff 	mov    %rax,-0x548(%rbp)
    adb2:	48 8d 85 78 e3 ff ff 	lea    -0x1c88(%rbp),%rax
    adb9:	48 89 85 c0 fa ff ff 	mov    %rax,-0x540(%rbp)
    adc0:	48 8d 85 78 e3 ff ff 	lea    -0x1c88(%rbp),%rax
    adc7:	48 89 85 c8 fa ff ff 	mov    %rax,-0x538(%rbp)
    adce:	48 8d 85 78 e3 ff ff 	lea    -0x1c88(%rbp),%rax
    add5:	48 89 85 d0 fa ff ff 	mov    %rax,-0x530(%rbp)
    addc:	48 8d 85 78 e3 ff ff 	lea    -0x1c88(%rbp),%rax
    ade3:	48 89 85 d8 fa ff ff 	mov    %rax,-0x528(%rbp)
    adea:	48 8d 85 78 e3 ff ff 	lea    -0x1c88(%rbp),%rax
    adf1:	48 89 85 e0 fa ff ff 	mov    %rax,-0x520(%rbp)
    adf8:	48 8d 85 78 e3 ff ff 	lea    -0x1c88(%rbp),%rax
    adff:	48 89 85 e8 fa ff ff 	mov    %rax,-0x518(%rbp)
    ae06:	48 8d 85 78 e3 ff ff 	lea    -0x1c88(%rbp),%rax
    ae0d:	48 89 85 f0 fa ff ff 	mov    %rax,-0x510(%rbp)
    ae14:	48 8d 85 78 e3 ff ff 	lea    -0x1c88(%rbp),%rax
    ae1b:	48 89 85 f8 fa ff ff 	mov    %rax,-0x508(%rbp)
    ae22:	48 c7 85 00 fb ff ff 	movq   $0x0,-0x500(%rbp)
    ae29:	00 00 00 00 
    ae2d:	48 8d 85 78 e3 ff ff 	lea    -0x1c88(%rbp),%rax
    ae34:	48 89 85 08 fb ff ff 	mov    %rax,-0x4f8(%rbp)
    ae3b:	48 c7 85 10 fb ff ff 	movq   $0x0,-0x4f0(%rbp)
    ae42:	00 00 00 00 
    ae46:	48 8d 85 78 e3 ff ff 	lea    -0x1c88(%rbp),%rax
    ae4d:	48 89 85 18 fb ff ff 	mov    %rax,-0x4e8(%rbp)
    ae54:	48 8d 85 78 e3 ff ff 	lea    -0x1c88(%rbp),%rax
    ae5b:	48 89 85 20 fb ff ff 	mov    %rax,-0x4e0(%rbp)
    ae62:	48 8d 85 78 e3 ff ff 	lea    -0x1c88(%rbp),%rax
    ae69:	48 89 85 28 fb ff ff 	mov    %rax,-0x4d8(%rbp)
    ae70:	48 c7 85 30 fb ff ff 	movq   $0x0,-0x4d0(%rbp)
    ae77:	00 00 00 00 
    ae7b:	48 8d 85 78 e3 ff ff 	lea    -0x1c88(%rbp),%rax
    ae82:	48 89 85 38 fb ff ff 	mov    %rax,-0x4c8(%rbp)
    ae89:	48 8d 85 78 e3 ff ff 	lea    -0x1c88(%rbp),%rax
    ae90:	48 89 85 40 fb ff ff 	mov    %rax,-0x4c0(%rbp)
    ae97:	48 c7 85 48 fb ff ff 	movq   $0x0,-0x4b8(%rbp)
    ae9e:	00 00 00 00 
    aea2:	48 8d 85 78 e3 ff ff 	lea    -0x1c88(%rbp),%rax
    aea9:	48 89 85 50 fb ff ff 	mov    %rax,-0x4b0(%rbp)
    aeb0:	48 8d 85 78 e3 ff ff 	lea    -0x1c88(%rbp),%rax
    aeb7:	48 89 85 58 fb ff ff 	mov    %rax,-0x4a8(%rbp)
    aebe:	48 8d 85 78 e3 ff ff 	lea    -0x1c88(%rbp),%rax
    aec5:	48 89 85 60 fb ff ff 	mov    %rax,-0x4a0(%rbp)
    aecc:	48 8d 85 78 e3 ff ff 	lea    -0x1c88(%rbp),%rax
    aed3:	48 89 85 68 fb ff ff 	mov    %rax,-0x498(%rbp)
    aeda:	48 8d 85 78 e3 ff ff 	lea    -0x1c88(%rbp),%rax
    aee1:	48 89 85 70 fb ff ff 	mov    %rax,-0x490(%rbp)
    aee8:	48 c7 85 78 fb ff ff 	movq   $0x0,-0x488(%rbp)
    aeef:	00 00 00 00 
    aef3:	48 8d 85 78 e3 ff ff 	lea    -0x1c88(%rbp),%rax
    aefa:	48 89 85 80 fb ff ff 	mov    %rax,-0x480(%rbp)
    af01:	48 8d 85 78 e3 ff ff 	lea    -0x1c88(%rbp),%rax
    af08:	48 89 85 88 fb ff ff 	mov    %rax,-0x478(%rbp)
    af0f:	48 8d 85 78 e3 ff ff 	lea    -0x1c88(%rbp),%rax
    af16:	48 89 85 90 fb ff ff 	mov    %rax,-0x470(%rbp)
    af1d:	48 8d 85 78 e3 ff ff 	lea    -0x1c88(%rbp),%rax
    af24:	48 89 85 98 fb ff ff 	mov    %rax,-0x468(%rbp)
    af2b:	48 8d 85 78 e3 ff ff 	lea    -0x1c88(%rbp),%rax
    af32:	48 89 85 a0 fb ff ff 	mov    %rax,-0x460(%rbp)
    af39:	48 8d 85 78 e3 ff ff 	lea    -0x1c88(%rbp),%rax
    af40:	48 89 85 a8 fb ff ff 	mov    %rax,-0x458(%rbp)
    af47:	48 8d 85 78 e3 ff ff 	lea    -0x1c88(%rbp),%rax
    af4e:	48 89 85 b0 fb ff ff 	mov    %rax,-0x450(%rbp)
    af55:	48 8d 85 78 e3 ff ff 	lea    -0x1c88(%rbp),%rax
    af5c:	48 89 85 b8 fb ff ff 	mov    %rax,-0x448(%rbp)
    af63:	48 8d 85 78 e3 ff ff 	lea    -0x1c88(%rbp),%rax
    af6a:	48 89 85 c0 fb ff ff 	mov    %rax,-0x440(%rbp)
    af71:	48 8d 85 78 e3 ff ff 	lea    -0x1c88(%rbp),%rax
    af78:	48 89 85 c8 fb ff ff 	mov    %rax,-0x438(%rbp)
    af7f:	48 c7 85 d0 fb ff ff 	movq   $0x0,-0x430(%rbp)
    af86:	00 00 00 00 
    af8a:	48 c7 85 d8 fb ff ff 	movq   $0x0,-0x428(%rbp)
    af91:	00 00 00 00 
    af95:	48 8d 85 78 e3 ff ff 	lea    -0x1c88(%rbp),%rax
    af9c:	48 89 85 e0 fb ff ff 	mov    %rax,-0x420(%rbp)
    afa3:	48 c7 85 e8 fb ff ff 	movq   $0x0,-0x418(%rbp)
    afaa:	00 00 00 00 
    afae:	48 8d 85 78 e3 ff ff 	lea    -0x1c88(%rbp),%rax
    afb5:	48 89 85 f0 fb ff ff 	mov    %rax,-0x410(%rbp)
    afbc:	48 8d 85 78 e3 ff ff 	lea    -0x1c88(%rbp),%rax
    afc3:	48 89 85 f8 fb ff ff 	mov    %rax,-0x408(%rbp)
    afca:	48 8d 85 78 e3 ff ff 	lea    -0x1c88(%rbp),%rax
    afd1:	48 89 85 00 fc ff ff 	mov    %rax,-0x400(%rbp)
    afd8:	48 8d 85 78 e3 ff ff 	lea    -0x1c88(%rbp),%rax
    afdf:	48 89 85 08 fc ff ff 	mov    %rax,-0x3f8(%rbp)
    afe6:	48 8d 85 78 e3 ff ff 	lea    -0x1c88(%rbp),%rax
    afed:	48 89 85 10 fc ff ff 	mov    %rax,-0x3f0(%rbp)
    aff4:	48 8d 85 78 e3 ff ff 	lea    -0x1c88(%rbp),%rax
    affb:	48 89 85 18 fc ff ff 	mov    %rax,-0x3e8(%rbp)
    b002:	48 c7 85 20 fc ff ff 	movq   $0x0,-0x3e0(%rbp)
    b009:	00 00 00 00 
    b00d:	48 8d 85 78 e3 ff ff 	lea    -0x1c88(%rbp),%rax
    b014:	48 89 85 28 fc ff ff 	mov    %rax,-0x3d8(%rbp)
    b01b:	48 8d 85 78 e3 ff ff 	lea    -0x1c88(%rbp),%rax
    b022:	48 89 85 30 fc ff ff 	mov    %rax,-0x3d0(%rbp)
    b029:	48 8d 85 78 e3 ff ff 	lea    -0x1c88(%rbp),%rax
    b030:	48 89 85 38 fc ff ff 	mov    %rax,-0x3c8(%rbp)
    b037:	48 8d 85 78 e3 ff ff 	lea    -0x1c88(%rbp),%rax
    b03e:	48 89 85 40 fc ff ff 	mov    %rax,-0x3c0(%rbp)
    b045:	48 8d 85 78 e3 ff ff 	lea    -0x1c88(%rbp),%rax
    b04c:	48 89 85 48 fc ff ff 	mov    %rax,-0x3b8(%rbp)
    b053:	48 8d 85 78 e3 ff ff 	lea    -0x1c88(%rbp),%rax
    b05a:	48 89 85 50 fc ff ff 	mov    %rax,-0x3b0(%rbp)
    b061:	48 8d 85 78 e3 ff ff 	lea    -0x1c88(%rbp),%rax
    b068:	48 89 85 58 fc ff ff 	mov    %rax,-0x3a8(%rbp)
    b06f:	48 8d 85 78 e3 ff ff 	lea    -0x1c88(%rbp),%rax
    b076:	48 89 85 60 fc ff ff 	mov    %rax,-0x3a0(%rbp)
    b07d:	48 c7 85 68 fc ff ff 	movq   $0x0,-0x398(%rbp)
    b084:	00 00 00 00 
    b088:	48 8d 85 78 e3 ff ff 	lea    -0x1c88(%rbp),%rax
    b08f:	48 89 85 70 fc ff ff 	mov    %rax,-0x390(%rbp)
    b096:	48 c7 85 78 fc ff ff 	movq   $0x0,-0x388(%rbp)
    b09d:	00 00 00 00 
    b0a1:	48 8d 85 78 e3 ff ff 	lea    -0x1c88(%rbp),%rax
    b0a8:	48 89 85 80 fc ff ff 	mov    %rax,-0x380(%rbp)
    b0af:	48 8d 85 78 e3 ff ff 	lea    -0x1c88(%rbp),%rax
    b0b6:	48 89 85 88 fc ff ff 	mov    %rax,-0x378(%rbp)
    b0bd:	48 8d 85 78 e3 ff ff 	lea    -0x1c88(%rbp),%rax
    b0c4:	48 89 85 90 fc ff ff 	mov    %rax,-0x370(%rbp)
    b0cb:	48 8d 85 78 e3 ff ff 	lea    -0x1c88(%rbp),%rax
    b0d2:	48 89 85 98 fc ff ff 	mov    %rax,-0x368(%rbp)
    b0d9:	48 8d 85 78 e3 ff ff 	lea    -0x1c88(%rbp),%rax
    b0e0:	48 89 85 a0 fc ff ff 	mov    %rax,-0x360(%rbp)
    b0e7:	48 8d 85 78 e3 ff ff 	lea    -0x1c88(%rbp),%rax
    b0ee:	48 89 85 a8 fc ff ff 	mov    %rax,-0x358(%rbp)
    b0f5:	48 8d 85 78 e3 ff ff 	lea    -0x1c88(%rbp),%rax
    b0fc:	48 89 85 b0 fc ff ff 	mov    %rax,-0x350(%rbp)
    b103:	48 8d 85 78 e3 ff ff 	lea    -0x1c88(%rbp),%rax
    b10a:	48 89 85 b8 fc ff ff 	mov    %rax,-0x348(%rbp)
    b111:	48 8d 85 78 e3 ff ff 	lea    -0x1c88(%rbp),%rax
    b118:	48 89 85 c0 fc ff ff 	mov    %rax,-0x340(%rbp)
    b11f:	48 8d 85 78 e3 ff ff 	lea    -0x1c88(%rbp),%rax
    b126:	48 89 85 c8 fc ff ff 	mov    %rax,-0x338(%rbp)
    b12d:	48 8d 85 78 e3 ff ff 	lea    -0x1c88(%rbp),%rax
    b134:	48 89 85 d0 fc ff ff 	mov    %rax,-0x330(%rbp)
    b13b:	48 8d 85 78 e3 ff ff 	lea    -0x1c88(%rbp),%rax
    b142:	48 89 85 d8 fc ff ff 	mov    %rax,-0x328(%rbp)
    b149:	48 8d 85 78 e3 ff ff 	lea    -0x1c88(%rbp),%rax
    b150:	48 89 85 e0 fc ff ff 	mov    %rax,-0x320(%rbp)
    b157:	48 8d 85 78 e3 ff ff 	lea    -0x1c88(%rbp),%rax
    b15e:	48 89 85 e8 fc ff ff 	mov    %rax,-0x318(%rbp)
    b165:	48 8d 85 78 e3 ff ff 	lea    -0x1c88(%rbp),%rax
    b16c:	48 89 85 f0 fc ff ff 	mov    %rax,-0x310(%rbp)
    b173:	48 8d 85 78 e3 ff ff 	lea    -0x1c88(%rbp),%rax
    b17a:	48 89 85 f8 fc ff ff 	mov    %rax,-0x308(%rbp)
    b181:	48 8d 85 78 e3 ff ff 	lea    -0x1c88(%rbp),%rax
    b188:	48 89 85 00 fd ff ff 	mov    %rax,-0x300(%rbp)
    b18f:	48 8d 85 78 e3 ff ff 	lea    -0x1c88(%rbp),%rax
    b196:	48 89 85 08 fd ff ff 	mov    %rax,-0x2f8(%rbp)
    b19d:	48 8d 85 78 e3 ff ff 	lea    -0x1c88(%rbp),%rax
    b1a4:	48 89 85 10 fd ff ff 	mov    %rax,-0x2f0(%rbp)
    b1ab:	48 8d 85 78 e3 ff ff 	lea    -0x1c88(%rbp),%rax
    b1b2:	48 89 85 18 fd ff ff 	mov    %rax,-0x2e8(%rbp)
    b1b9:	48 8d 85 78 e3 ff ff 	lea    -0x1c88(%rbp),%rax
    b1c0:	48 89 85 20 fd ff ff 	mov    %rax,-0x2e0(%rbp)
    b1c7:	48 8d 85 78 e3 ff ff 	lea    -0x1c88(%rbp),%rax
    b1ce:	48 89 85 28 fd ff ff 	mov    %rax,-0x2d8(%rbp)
    b1d5:	48 8d 85 78 e3 ff ff 	lea    -0x1c88(%rbp),%rax
    b1dc:	48 89 85 30 fd ff ff 	mov    %rax,-0x2d0(%rbp)
    b1e3:	48 8d 85 78 e3 ff ff 	lea    -0x1c88(%rbp),%rax
    b1ea:	48 89 85 38 fd ff ff 	mov    %rax,-0x2c8(%rbp)
    b1f1:	48 8d 85 78 e3 ff ff 	lea    -0x1c88(%rbp),%rax
    b1f8:	48 89 85 40 fd ff ff 	mov    %rax,-0x2c0(%rbp)
    b1ff:	48 8d 85 78 e3 ff ff 	lea    -0x1c88(%rbp),%rax
    b206:	48 89 85 48 fd ff ff 	mov    %rax,-0x2b8(%rbp)
    b20d:	48 c7 85 50 fd ff ff 	movq   $0x0,-0x2b0(%rbp)
    b214:	00 00 00 00 
    b218:	48 8d 85 78 e3 ff ff 	lea    -0x1c88(%rbp),%rax
    b21f:	48 89 85 58 fd ff ff 	mov    %rax,-0x2a8(%rbp)
    b226:	48 8d 85 78 e3 ff ff 	lea    -0x1c88(%rbp),%rax
    b22d:	48 89 85 60 fd ff ff 	mov    %rax,-0x2a0(%rbp)
    b234:	48 8d 85 78 e3 ff ff 	lea    -0x1c88(%rbp),%rax
    b23b:	48 89 85 68 fd ff ff 	mov    %rax,-0x298(%rbp)
    b242:	48 8d 85 78 e3 ff ff 	lea    -0x1c88(%rbp),%rax
    b249:	48 89 85 70 fd ff ff 	mov    %rax,-0x290(%rbp)
    b250:	48 c7 85 78 fd ff ff 	movq   $0x0,-0x288(%rbp)
    b257:	00 00 00 00 
    b25b:	48 8d 85 78 e3 ff ff 	lea    -0x1c88(%rbp),%rax
    b262:	48 89 85 80 fd ff ff 	mov    %rax,-0x280(%rbp)
    b269:	48 8d 85 78 e3 ff ff 	lea    -0x1c88(%rbp),%rax
    b270:	48 89 85 88 fd ff ff 	mov    %rax,-0x278(%rbp)
    b277:	48 8d 85 78 e3 ff ff 	lea    -0x1c88(%rbp),%rax
    b27e:	48 89 85 90 fd ff ff 	mov    %rax,-0x270(%rbp)
    b285:	48 8d 85 78 e3 ff ff 	lea    -0x1c88(%rbp),%rax
    b28c:	48 89 85 98 fd ff ff 	mov    %rax,-0x268(%rbp)
    b293:	48 8d 85 78 e3 ff ff 	lea    -0x1c88(%rbp),%rax
    b29a:	48 89 85 a0 fd ff ff 	mov    %rax,-0x260(%rbp)
    b2a1:	48 8d 85 78 e3 ff ff 	lea    -0x1c88(%rbp),%rax
    b2a8:	48 89 85 a8 fd ff ff 	mov    %rax,-0x258(%rbp)
    b2af:	48 8d 85 78 e3 ff ff 	lea    -0x1c88(%rbp),%rax
    b2b6:	48 89 85 b0 fd ff ff 	mov    %rax,-0x250(%rbp)
    b2bd:	48 8d 85 78 e3 ff ff 	lea    -0x1c88(%rbp),%rax
    b2c4:	48 89 85 b8 fd ff ff 	mov    %rax,-0x248(%rbp)
    b2cb:	48 8d 85 78 e3 ff ff 	lea    -0x1c88(%rbp),%rax
    b2d2:	48 89 85 c0 fd ff ff 	mov    %rax,-0x240(%rbp)
    b2d9:	48 8d 85 78 e3 ff ff 	lea    -0x1c88(%rbp),%rax
    b2e0:	48 89 85 c8 fd ff ff 	mov    %rax,-0x238(%rbp)
    b2e7:	48 8d 85 78 e3 ff ff 	lea    -0x1c88(%rbp),%rax
    b2ee:	48 89 85 d0 fd ff ff 	mov    %rax,-0x230(%rbp)
    b2f5:	48 8d 85 78 e3 ff ff 	lea    -0x1c88(%rbp),%rax
    b2fc:	48 89 85 d8 fd ff ff 	mov    %rax,-0x228(%rbp)
    b303:	48 c7 85 e0 fd ff ff 	movq   $0x0,-0x220(%rbp)
    b30a:	00 00 00 00 
    b30e:	48 8d 85 78 e3 ff ff 	lea    -0x1c88(%rbp),%rax
    b315:	48 89 85 e8 fd ff ff 	mov    %rax,-0x218(%rbp)
    b31c:	48 8d 85 78 e3 ff ff 	lea    -0x1c88(%rbp),%rax
    b323:	48 89 85 f0 fd ff ff 	mov    %rax,-0x210(%rbp)
    b32a:	48 c7 85 f8 fd ff ff 	movq   $0x0,-0x208(%rbp)
    b331:	00 00 00 00 
    b335:	48 8d 85 78 e3 ff ff 	lea    -0x1c88(%rbp),%rax
    b33c:	48 89 85 00 fe ff ff 	mov    %rax,-0x200(%rbp)
    b343:	48 8d 85 78 e3 ff ff 	lea    -0x1c88(%rbp),%rax
    b34a:	48 89 85 08 fe ff ff 	mov    %rax,-0x1f8(%rbp)
    b351:	48 8d 85 78 e3 ff ff 	lea    -0x1c88(%rbp),%rax
    b358:	48 89 85 10 fe ff ff 	mov    %rax,-0x1f0(%rbp)
    b35f:	48 8d 85 78 e3 ff ff 	lea    -0x1c88(%rbp),%rax
    b366:	48 89 85 18 fe ff ff 	mov    %rax,-0x1e8(%rbp)
    b36d:	48 8d 85 78 e3 ff ff 	lea    -0x1c88(%rbp),%rax
    b374:	48 89 85 20 fe ff ff 	mov    %rax,-0x1e0(%rbp)
    b37b:	48 8d 85 78 e3 ff ff 	lea    -0x1c88(%rbp),%rax
    b382:	48 89 85 28 fe ff ff 	mov    %rax,-0x1d8(%rbp)
    b389:	48 8d 85 78 e3 ff ff 	lea    -0x1c88(%rbp),%rax
    b390:	48 89 85 30 fe ff ff 	mov    %rax,-0x1d0(%rbp)
    b397:	48 8d 85 78 e3 ff ff 	lea    -0x1c88(%rbp),%rax
    b39e:	48 89 85 38 fe ff ff 	mov    %rax,-0x1c8(%rbp)
    b3a5:	48 8d 85 78 e3 ff ff 	lea    -0x1c88(%rbp),%rax
    b3ac:	48 89 85 40 fe ff ff 	mov    %rax,-0x1c0(%rbp)
    b3b3:	48 8d 85 78 e3 ff ff 	lea    -0x1c88(%rbp),%rax
    b3ba:	48 89 85 48 fe ff ff 	mov    %rax,-0x1b8(%rbp)
    b3c1:	48 8d 85 78 e3 ff ff 	lea    -0x1c88(%rbp),%rax
    b3c8:	48 89 85 50 fe ff ff 	mov    %rax,-0x1b0(%rbp)
    b3cf:	48 8d 85 78 e3 ff ff 	lea    -0x1c88(%rbp),%rax
    b3d6:	48 89 85 58 fe ff ff 	mov    %rax,-0x1a8(%rbp)
    b3dd:	48 8d 85 78 e3 ff ff 	lea    -0x1c88(%rbp),%rax
    b3e4:	48 89 85 60 fe ff ff 	mov    %rax,-0x1a0(%rbp)
    b3eb:	48 8d 85 78 e3 ff ff 	lea    -0x1c88(%rbp),%rax
    b3f2:	48 89 85 68 fe ff ff 	mov    %rax,-0x198(%rbp)
    b3f9:	48 c7 85 70 fe ff ff 	movq   $0x0,-0x190(%rbp)
    b400:	00 00 00 00 
    b404:	48 c7 85 78 fe ff ff 	movq   $0x0,-0x188(%rbp)
    b40b:	00 00 00 00 
    b40f:	48 8d 85 78 e3 ff ff 	lea    -0x1c88(%rbp),%rax
    b416:	48 89 85 80 fe ff ff 	mov    %rax,-0x180(%rbp)
    b41d:	48 8d 85 78 e3 ff ff 	lea    -0x1c88(%rbp),%rax
    b424:	48 89 85 88 fe ff ff 	mov    %rax,-0x178(%rbp)
    b42b:	48 8d 85 78 e3 ff ff 	lea    -0x1c88(%rbp),%rax
    b432:	48 89 85 90 fe ff ff 	mov    %rax,-0x170(%rbp)
    b439:	48 8d 85 78 e3 ff ff 	lea    -0x1c88(%rbp),%rax
    b440:	48 89 85 98 fe ff ff 	mov    %rax,-0x168(%rbp)
    b447:	48 8d 85 78 e3 ff ff 	lea    -0x1c88(%rbp),%rax
    b44e:	48 89 85 a0 fe ff ff 	mov    %rax,-0x160(%rbp)
    b455:	48 8d 85 78 e3 ff ff 	lea    -0x1c88(%rbp),%rax
    b45c:	48 89 85 a8 fe ff ff 	mov    %rax,-0x158(%rbp)
    b463:	48 8d 85 78 e3 ff ff 	lea    -0x1c88(%rbp),%rax
    b46a:	48 89 85 b0 fe ff ff 	mov    %rax,-0x150(%rbp)
    b471:	48 8d 85 78 e3 ff ff 	lea    -0x1c88(%rbp),%rax
    b478:	48 89 85 b8 fe ff ff 	mov    %rax,-0x148(%rbp)
    b47f:	48 8d 85 78 e3 ff ff 	lea    -0x1c88(%rbp),%rax
    b486:	48 89 85 c0 fe ff ff 	mov    %rax,-0x140(%rbp)
    b48d:	48 8d 85 78 e3 ff ff 	lea    -0x1c88(%rbp),%rax
    b494:	48 89 85 c8 fe ff ff 	mov    %rax,-0x138(%rbp)
    b49b:	48 c7 85 d0 fe ff ff 	movq   $0x0,-0x130(%rbp)
    b4a2:	00 00 00 00 
    b4a6:	48 8d 85 78 e3 ff ff 	lea    -0x1c88(%rbp),%rax
    b4ad:	48 89 85 d8 fe ff ff 	mov    %rax,-0x128(%rbp)
    b4b4:	48 8d 85 78 e3 ff ff 	lea    -0x1c88(%rbp),%rax
    b4bb:	48 89 85 e0 fe ff ff 	mov    %rax,-0x120(%rbp)
    b4c2:	48 8d 85 78 e3 ff ff 	lea    -0x1c88(%rbp),%rax
    b4c9:	48 89 85 e8 fe ff ff 	mov    %rax,-0x118(%rbp)
    b4d0:	48 8d 85 78 e3 ff ff 	lea    -0x1c88(%rbp),%rax
    b4d7:	48 89 85 f0 fe ff ff 	mov    %rax,-0x110(%rbp)
    b4de:	48 8d 85 78 e3 ff ff 	lea    -0x1c88(%rbp),%rax
    b4e5:	48 89 85 f8 fe ff ff 	mov    %rax,-0x108(%rbp)
    b4ec:	48 8d 85 78 e3 ff ff 	lea    -0x1c88(%rbp),%rax
    b4f3:	48 89 85 00 ff ff ff 	mov    %rax,-0x100(%rbp)
    b4fa:	48 8d 85 78 e3 ff ff 	lea    -0x1c88(%rbp),%rax
    b501:	48 89 85 08 ff ff ff 	mov    %rax,-0xf8(%rbp)
    b508:	48 8d 85 78 e3 ff ff 	lea    -0x1c88(%rbp),%rax
    b50f:	48 89 85 10 ff ff ff 	mov    %rax,-0xf0(%rbp)
    b516:	48 8d 85 78 e3 ff ff 	lea    -0x1c88(%rbp),%rax
    b51d:	48 89 85 18 ff ff ff 	mov    %rax,-0xe8(%rbp)
    b524:	48 8d 85 78 e3 ff ff 	lea    -0x1c88(%rbp),%rax
    b52b:	48 89 85 20 ff ff ff 	mov    %rax,-0xe0(%rbp)
    b532:	48 8d 85 78 e3 ff ff 	lea    -0x1c88(%rbp),%rax
    b539:	48 89 85 28 ff ff ff 	mov    %rax,-0xd8(%rbp)
    b540:	48 8d 85 78 e3 ff ff 	lea    -0x1c88(%rbp),%rax
    b547:	48 89 85 30 ff ff ff 	mov    %rax,-0xd0(%rbp)
    b54e:	48 8d 85 78 e3 ff ff 	lea    -0x1c88(%rbp),%rax
    b555:	48 89 85 38 ff ff ff 	mov    %rax,-0xc8(%rbp)
    b55c:	48 8d 85 78 e3 ff ff 	lea    -0x1c88(%rbp),%rax
    b563:	48 89 85 40 ff ff ff 	mov    %rax,-0xc0(%rbp)
    b56a:	48 8d 85 78 e3 ff ff 	lea    -0x1c88(%rbp),%rax
    b571:	48 89 85 48 ff ff ff 	mov    %rax,-0xb8(%rbp)
    b578:	48 c7 85 50 ff ff ff 	movq   $0x0,-0xb0(%rbp)
    b57f:	00 00 00 00 
    b583:	48 8d 85 78 e3 ff ff 	lea    -0x1c88(%rbp),%rax
    b58a:	48 89 85 58 ff ff ff 	mov    %rax,-0xa8(%rbp)
    b591:	48 c7 85 60 ff ff ff 	movq   $0x0,-0xa0(%rbp)
    b598:	00 00 00 00 
    b59c:	48 8d 85 78 e3 ff ff 	lea    -0x1c88(%rbp),%rax
    b5a3:	48 89 85 68 ff ff ff 	mov    %rax,-0x98(%rbp)
    b5aa:	48 8d 85 78 e3 ff ff 	lea    -0x1c88(%rbp),%rax
    b5b1:	48 89 85 70 ff ff ff 	mov    %rax,-0x90(%rbp)
    b5b8:	48 8d 85 78 e3 ff ff 	lea    -0x1c88(%rbp),%rax
    b5bf:	48 89 85 78 ff ff ff 	mov    %rax,-0x88(%rbp)
    b5c6:	48 8d 85 78 e3 ff ff 	lea    -0x1c88(%rbp),%rax
    b5cd:	48 89 45 80          	mov    %rax,-0x80(%rbp)
    b5d1:	48 8d 85 78 e3 ff ff 	lea    -0x1c88(%rbp),%rax
    b5d8:	48 89 45 88          	mov    %rax,-0x78(%rbp)
    b5dc:	48 8d 85 78 e3 ff ff 	lea    -0x1c88(%rbp),%rax
    b5e3:	48 89 45 90          	mov    %rax,-0x70(%rbp)
    b5e7:	48 8d 85 78 e3 ff ff 	lea    -0x1c88(%rbp),%rax
    b5ee:	48 89 45 98          	mov    %rax,-0x68(%rbp)
    b5f2:	48 8d 85 78 e3 ff ff 	lea    -0x1c88(%rbp),%rax
    b5f9:	48 89 45 a0          	mov    %rax,-0x60(%rbp)
    b5fd:	48 8d 85 78 e3 ff ff 	lea    -0x1c88(%rbp),%rax
    b604:	48 89 45 a8          	mov    %rax,-0x58(%rbp)
    b608:	48 8d 85 78 e3 ff ff 	lea    -0x1c88(%rbp),%rax
    b60f:	48 89 45 b0          	mov    %rax,-0x50(%rbp)
    b613:	48 c7 45 b8 00 00 00 	movq   $0x0,-0x48(%rbp)
    b61a:	00 
    b61b:	48 8d 85 fc e2 ff ff 	lea    -0x1d04(%rbp),%rax
    b622:	48 89 85 78 e4 ff ff 	mov    %rax,-0x1b88(%rbp)
    b629:	66 c7 85 ec e2 ff ff 	movw   $0xb8e2,-0x1d14(%rbp)
    b630:	e2 b8 
    b632:	48 8d 85 b0 e5 ff ff 	lea    -0x1a50(%rbp),%rax
    b639:	48 83 c0 18          	add    $0x18,%rax
    b63d:	48 89 85 80 e4 ff ff 	mov    %rax,-0x1b80(%rbp)
    b644:	c7 85 24 e3 ff ff 00 	movl   $0x0,-0x1cdc(%rbp)
    b64b:	00 00 00 
    b64e:	eb 1a                	jmp    b66a <func_1+0x1eb5>
    b650:	8b 85 24 e3 ff ff    	mov    -0x1cdc(%rbp),%eax
    b656:	48 98                	cltq   
    b658:	c7 84 85 88 e5 ff ff 	movl   $0x3,-0x1a78(%rbp,%rax,4)
    b65f:	03 00 00 00 
    b663:	83 85 24 e3 ff ff 01 	addl   $0x1,-0x1cdc(%rbp)
    b66a:	83 bd 24 e3 ff ff 01 	cmpl   $0x1,-0x1cdc(%rbp)
    b671:	7e dd                	jle    b650 <func_1+0x1e9b>
    b673:	66 c7 05 c4 3c 01 00 	movw   $0x13,0x13cc4(%rip)        # 1f340 <g_1528>
    b67a:	13 00 
    b67c:	e9 15 01 00 00       	jmpq   b796 <func_1+0x1fe1>
    b681:	48 c7 85 30 e5 ff ff 	movq   $0x5,-0x1ad0(%rbp)
    b688:	05 00 00 00 
    b68c:	c7 85 60 e3 ff ff 01 	movl   $0x1,-0x1ca0(%rbp)
    b693:	00 00 00 
    b696:	c7 05 c0 1b 01 00 00 	movl   $0x0,0x11bc0(%rip)        # 1d260 <g_386>
    b69d:	00 00 00 
    b6a0:	eb 31                	jmp    b6d3 <func_1+0x1f1e>
    b6a2:	48 8d 85 88 e3 ff ff 	lea    -0x1c78(%rbp),%rax
    b6a9:	48 89 85 48 e5 ff ff 	mov    %rax,-0x1ab8(%rbp)
    b6b0:	48 8b 05 f1 6f 01 00 	mov    0x16ff1(%rip),%rax        # 226a8 <g_1760>
    b6b7:	48 8b 10             	mov    (%rax),%rdx
    b6ba:	48 8b 85 48 e5 ff ff 	mov    -0x1ab8(%rbp),%rax
    b6c1:	48 89 10             	mov    %rdx,(%rax)
    b6c4:	8b 05 96 1b 01 00    	mov    0x11b96(%rip),%eax        # 1d260 <g_386>
    b6ca:	83 c0 01             	add    $0x1,%eax
    b6cd:	89 05 8d 1b 01 00    	mov    %eax,0x11b8d(%rip)        # 1d260 <g_386>
    b6d3:	8b 05 87 1b 01 00    	mov    0x11b87(%rip),%eax        # 1d260 <g_386>
    b6d9:	83 f8 01             	cmp    $0x1,%eax
    b6dc:	7e c4                	jle    b6a2 <func_1+0x1eed>
    b6de:	c7 85 f0 e2 ff ff 00 	movl   $0x0,-0x1d10(%rbp)
    b6e5:	00 00 00 
    b6e8:	eb 7b                	jmp    b765 <func_1+0x1fb0>
    b6ea:	c7 85 64 e3 ff ff f0 	movl   $0x76ef5bf0,-0x1c9c(%rbp)
    b6f1:	5b ef 76 
    b6f4:	48 8d 05 a5 65 01 00 	lea    0x165a5(%rip),%rax        # 21ca0 <g_274+0xa0>
    b6fb:	48 89 85 38 e5 ff ff 	mov    %rax,-0x1ac8(%rbp)
    b702:	48 8d 85 90 e3 ff ff 	lea    -0x1c70(%rbp),%rax
    b709:	48 89 85 40 e5 ff ff 	mov    %rax,-0x1ac0(%rbp)
    b710:	83 bd 64 e3 ff ff 00 	cmpl   $0x0,-0x1c9c(%rbp)
    b717:	75 5d                	jne    b776 <func_1+0x1fc1>
    b719:	48 8d 05 78 65 01 00 	lea    0x16578(%rip),%rax        # 21c98 <g_274+0x98>
    b720:	48 89 85 38 e5 ff ff 	mov    %rax,-0x1ac8(%rbp)
    b727:	48 8b 95 90 e3 ff ff 	mov    -0x1c70(%rbp),%rdx
    b72e:	48 8b 85 40 e5 ff ff 	mov    -0x1ac0(%rbp),%rax
    b735:	48 89 10             	mov    %rdx,(%rax)
    b738:	c7 85 60 e3 ff ff 01 	movl   $0x1,-0x1ca0(%rbp)
    b73f:	00 00 00 
    b742:	48 8b 15 47 6f 01 00 	mov    0x16f47(%rip),%rdx        # 22690 <g_1386>
    b749:	48 8b 05 60 6f 01 00 	mov    0x16f60(%rip),%rax        # 226b0 <g_1814>
    b750:	48 8b 12             	mov    (%rdx),%rdx
    b753:	48 89 10             	mov    %rdx,(%rax)
    b756:	8b 85 f0 e2 ff ff    	mov    -0x1d10(%rbp),%eax
    b75c:	83 e8 01             	sub    $0x1,%eax
    b75f:	89 85 f0 e2 ff ff    	mov    %eax,-0x1d10(%rbp)
    b765:	8b 85 f0 e2 ff ff    	mov    -0x1d10(%rbp),%eax
    b76b:	83 f8 f0             	cmp    $0xfffffff0,%eax
    b76e:	0f 85 76 ff ff ff    	jne    b6ea <func_1+0x1f35>
    b774:	eb 01                	jmp    b777 <func_1+0x1fc2>
    b776:	90                   	nop
    b777:	0f b7 05 c2 3b 01 00 	movzwl 0x13bc2(%rip),%eax        # 1f340 <g_1528>
    b77e:	0f be c0             	movsbl %al,%eax
    b781:	be 01 00 00 00       	mov    $0x1,%esi
    b786:	89 c7                	mov    %eax,%edi
    b788:	e8 47 ca ff ff       	callq  81d4 <safe_add_func_int8_t_s_s>
    b78d:	66 98                	cbtw   
    b78f:	66 89 05 aa 3b 01 00 	mov    %ax,0x13baa(%rip)        # 1f340 <g_1528>
    b796:	0f b7 05 a3 3b 01 00 	movzwl 0x13ba3(%rip),%eax        # 1f340 <g_1528>
    b79d:	66 83 f8 35          	cmp    $0x35,%ax
    b7a1:	0f 86 da fe ff ff    	jbe    b681 <func_1+0x1ecc>
    b7a7:	48 8b 85 60 e4 ff ff 	mov    -0x1ba0(%rbp),%rax
    b7ae:	48 8d 95 f0 e2 ff ff 	lea    -0x1d10(%rbp),%rdx
    b7b5:	48 89 10             	mov    %rdx,(%rax)
    b7b8:	48 83 bd 28 e4 ff ff 	cmpq   $0x0,-0x1bd8(%rbp)
    b7bf:	00 
    b7c0:	74 2d                	je     b7ef <func_1+0x203a>
    b7c2:	c7 85 58 e3 ff ff ff 	movl   $0xffffffff,-0x1ca8(%rbp)
    b7c9:	ff ff ff 
    b7cc:	83 bd 58 e3 ff ff 00 	cmpl   $0x0,-0x1ca8(%rbp)
    b7d3:	0f 85 73 10 00 00    	jne    c84c <func_1+0x3097>
    b7d9:	48 8b 85 60 e4 ff ff 	mov    -0x1ba0(%rbp),%rax
    b7e0:	48 8d 95 f4 e2 ff ff 	lea    -0x1d0c(%rbp),%rdx
    b7e7:	48 89 10             	mov    %rdx,(%rax)
    b7ea:	e9 0a 0c 00 00       	jmpq   c3f9 <func_1+0x2c44>
    b7ef:	66 c7 85 e8 e2 ff ff 	movw   $0x9,-0x1d18(%rbp)
    b7f6:	09 00 
    b7f8:	c7 85 e0 e6 ff ff fc 	movl   $0xfffffffc,-0x1920(%rbp)
    b7ff:	ff ff ff 
    b802:	c7 85 e4 e6 ff ff 81 	movl   $0x6947f081,-0x191c(%rbp)
    b809:	f0 47 69 
    b80c:	c7 85 e8 e6 ff ff fc 	movl   $0xfffffffc,-0x1918(%rbp)
    b813:	ff ff ff 
    b816:	c7 85 ec e6 ff ff fc 	movl   $0xfffffffc,-0x1914(%rbp)
    b81d:	ff ff ff 
    b820:	c7 85 f0 e6 ff ff 81 	movl   $0x6947f081,-0x1910(%rbp)
    b827:	f0 47 69 
    b82a:	c7 85 f4 e6 ff ff fc 	movl   $0xfffffffc,-0x190c(%rbp)
    b831:	ff ff ff 
    b834:	c7 85 f8 e6 ff ff fc 	movl   $0xfffffffc,-0x1908(%rbp)
    b83b:	ff ff ff 
    b83e:	c7 85 fc e6 ff ff 81 	movl   $0x6947f081,-0x1904(%rbp)
    b845:	f0 47 69 
    b848:	c7 85 00 e7 ff ff 81 	movl   $0x6947f081,-0x1900(%rbp)
    b84f:	f0 47 69 
    b852:	c7 85 04 e7 ff ff 01 	movl   $0x1,-0x18fc(%rbp)
    b859:	00 00 00 
    b85c:	c7 85 08 e7 ff ff 81 	movl   $0x6947f081,-0x18f8(%rbp)
    b863:	f0 47 69 
    b866:	c7 85 0c e7 ff ff 81 	movl   $0x6947f081,-0x18f4(%rbp)
    b86d:	f0 47 69 
    b870:	c7 85 10 e7 ff ff 01 	movl   $0x1,-0x18f0(%rbp)
    b877:	00 00 00 
    b87a:	c7 85 14 e7 ff ff 81 	movl   $0x6947f081,-0x18ec(%rbp)
    b881:	f0 47 69 
    b884:	c7 85 18 e7 ff ff 81 	movl   $0x6947f081,-0x18e8(%rbp)
    b88b:	f0 47 69 
    b88e:	c7 85 1c e7 ff ff fc 	movl   $0xfffffffc,-0x18e4(%rbp)
    b895:	ff ff ff 
    b898:	c7 85 20 e7 ff ff fc 	movl   $0xfffffffc,-0x18e0(%rbp)
    b89f:	ff ff ff 
    b8a2:	c7 85 24 e7 ff ff 81 	movl   $0x6947f081,-0x18dc(%rbp)
    b8a9:	f0 47 69 
    b8ac:	c7 85 28 e7 ff ff fc 	movl   $0xfffffffc,-0x18d8(%rbp)
    b8b3:	ff ff ff 
    b8b6:	c7 85 2c e7 ff ff fc 	movl   $0xfffffffc,-0x18d4(%rbp)
    b8bd:	ff ff ff 
    b8c0:	c7 85 30 e7 ff ff 81 	movl   $0x6947f081,-0x18d0(%rbp)
    b8c7:	f0 47 69 
    b8ca:	c7 85 34 e7 ff ff fc 	movl   $0xfffffffc,-0x18cc(%rbp)
    b8d1:	ff ff ff 
    b8d4:	c7 85 38 e7 ff ff 81 	movl   $0x6947f081,-0x18c8(%rbp)
    b8db:	f0 47 69 
    b8de:	c7 85 3c e7 ff ff fc 	movl   $0xfffffffc,-0x18c4(%rbp)
    b8e5:	ff ff ff 
    b8e8:	c7 85 40 e7 ff ff fc 	movl   $0xfffffffc,-0x18c0(%rbp)
    b8ef:	ff ff ff 
    b8f2:	c7 85 44 e7 ff ff 81 	movl   $0x6947f081,-0x18bc(%rbp)
    b8f9:	f0 47 69 
    b8fc:	c7 85 48 e7 ff ff fc 	movl   $0xfffffffc,-0x18b8(%rbp)
    b903:	ff ff ff 
    b906:	c7 85 4c e7 ff ff fc 	movl   $0xfffffffc,-0x18b4(%rbp)
    b90d:	ff ff ff 
    b910:	c7 85 50 e7 ff ff 81 	movl   $0x6947f081,-0x18b0(%rbp)
    b917:	f0 47 69 
    b91a:	c7 85 54 e7 ff ff 81 	movl   $0x6947f081,-0x18ac(%rbp)
    b921:	f0 47 69 
    b924:	c7 85 58 e7 ff ff 01 	movl   $0x1,-0x18a8(%rbp)
    b92b:	00 00 00 
    b92e:	c7 85 5c e7 ff ff 81 	movl   $0x6947f081,-0x18a4(%rbp)
    b935:	f0 47 69 
    b938:	c7 85 60 e7 ff ff 81 	movl   $0x6947f081,-0x18a0(%rbp)
    b93f:	f0 47 69 
    b942:	c7 85 64 e7 ff ff 01 	movl   $0x1,-0x189c(%rbp)
    b949:	00 00 00 
    b94c:	c7 85 68 e7 ff ff 81 	movl   $0x6947f081,-0x1898(%rbp)
    b953:	f0 47 69 
    b956:	c7 85 6c e7 ff ff 81 	movl   $0x6947f081,-0x1894(%rbp)
    b95d:	f0 47 69 
    b960:	c7 85 70 e7 ff ff fc 	movl   $0xfffffffc,-0x1890(%rbp)
    b967:	ff ff ff 
    b96a:	c7 85 74 e7 ff ff fc 	movl   $0xfffffffc,-0x188c(%rbp)
    b971:	ff ff ff 
    b974:	c7 85 78 e7 ff ff 81 	movl   $0x6947f081,-0x1888(%rbp)
    b97b:	f0 47 69 
    b97e:	c7 85 7c e7 ff ff fc 	movl   $0xfffffffc,-0x1884(%rbp)
    b985:	ff ff ff 
    b988:	c7 85 80 e7 ff ff fc 	movl   $0xfffffffc,-0x1880(%rbp)
    b98f:	ff ff ff 
    b992:	c7 85 84 e7 ff ff 81 	movl   $0x6947f081,-0x187c(%rbp)
    b999:	f0 47 69 
    b99c:	c7 85 88 e7 ff ff fc 	movl   $0xfffffffc,-0x1878(%rbp)
    b9a3:	ff ff ff 
    b9a6:	c7 85 8c e7 ff ff 81 	movl   $0x6947f081,-0x1874(%rbp)
    b9ad:	f0 47 69 
    b9b0:	c7 85 90 e7 ff ff fc 	movl   $0xfffffffc,-0x1870(%rbp)
    b9b7:	ff ff ff 
    b9ba:	c7 85 94 e7 ff ff fc 	movl   $0xfffffffc,-0x186c(%rbp)
    b9c1:	ff ff ff 
    b9c4:	c7 85 98 e7 ff ff 81 	movl   $0x6947f081,-0x1868(%rbp)
    b9cb:	f0 47 69 
    b9ce:	c7 85 9c e7 ff ff fc 	movl   $0xfffffffc,-0x1864(%rbp)
    b9d5:	ff ff ff 
    b9d8:	c7 85 a0 e7 ff ff fc 	movl   $0xfffffffc,-0x1860(%rbp)
    b9df:	ff ff ff 
    b9e2:	c7 85 a4 e7 ff ff 81 	movl   $0x6947f081,-0x185c(%rbp)
    b9e9:	f0 47 69 
    b9ec:	c7 85 a8 e7 ff ff 81 	movl   $0x6947f081,-0x1858(%rbp)
    b9f3:	f0 47 69 
    b9f6:	c7 85 ac e7 ff ff 01 	movl   $0x1,-0x1854(%rbp)
    b9fd:	00 00 00 
    ba00:	c7 85 b0 e7 ff ff 81 	movl   $0x6947f081,-0x1850(%rbp)
    ba07:	f0 47 69 
    ba0a:	c7 85 b4 e7 ff ff 81 	movl   $0x6947f081,-0x184c(%rbp)
    ba11:	f0 47 69 
    ba14:	c7 85 b8 e7 ff ff 01 	movl   $0x1,-0x1848(%rbp)
    ba1b:	00 00 00 
    ba1e:	c7 85 bc e7 ff ff 81 	movl   $0x6947f081,-0x1844(%rbp)
    ba25:	f0 47 69 
    ba28:	48 8d 85 f8 e2 ff ff 	lea    -0x1d08(%rbp),%rax
    ba2f:	48 89 85 88 e4 ff ff 	mov    %rax,-0x1b78(%rbp)
    ba36:	48 8d 05 03 33 01 00 	lea    0x13303(%rip),%rax        # 1ed40 <g_1148>
    ba3d:	48 89 85 90 e4 ff ff 	mov    %rax,-0x1b70(%rbp)
    ba44:	48 8d 05 05 72 01 00 	lea    0x17205(%rip),%rax        # 22c50 <g_22>
    ba4b:	48 89 85 98 e4 ff ff 	mov    %rax,-0x1b68(%rbp)
    ba52:	48 8d 85 e0 e6 ff ff 	lea    -0x1920(%rbp),%rax
    ba59:	48 89 85 a0 e4 ff ff 	mov    %rax,-0x1b60(%rbp)
    ba60:	48 8d 05 f9 17 01 00 	lea    0x117f9(%rip),%rax        # 1d260 <g_386>
    ba67:	48 89 85 a8 e4 ff ff 	mov    %rax,-0x1b58(%rbp)
    ba6e:	48 8d 85 14 e3 ff ff 	lea    -0x1cec(%rbp),%rax
    ba75:	48 89 85 b0 e4 ff ff 	mov    %rax,-0x1b50(%rbp)
    ba7c:	48 8d 05 f5 35 01 00 	lea    0x135f5(%rip),%rax        # 1f078 <g_1450+0x1d8>
    ba83:	48 89 85 b8 e4 ff ff 	mov    %rax,-0x1b48(%rbp)
    ba8a:	48 8d 85 04 e3 ff ff 	lea    -0x1cfc(%rbp),%rax
    ba91:	48 89 85 c0 e4 ff ff 	mov    %rax,-0x1b40(%rbp)
    ba98:	48 c7 85 80 eb ff ff 	movq   $0x0,-0x1480(%rbp)
    ba9f:	00 00 00 00 
    baa3:	48 c7 85 88 eb ff ff 	movq   $0x0,-0x1478(%rbp)
    baaa:	00 00 00 00 
    baae:	48 8d 85 f0 e2 ff ff 	lea    -0x1d10(%rbp),%rax
    bab5:	48 89 85 90 eb ff ff 	mov    %rax,-0x1470(%rbp)
    babc:	48 8d 05 9d 17 01 00 	lea    0x1179d(%rip),%rax        # 1d260 <g_386>
    bac3:	48 89 85 98 eb ff ff 	mov    %rax,-0x1468(%rbp)
    baca:	48 8d 05 a7 35 01 00 	lea    0x135a7(%rip),%rax        # 1f078 <g_1450+0x1d8>
    bad1:	48 89 85 a0 eb ff ff 	mov    %rax,-0x1460(%rbp)
    bad8:	48 8d 85 14 e3 ff ff 	lea    -0x1cec(%rbp),%rax
    badf:	48 89 85 a8 eb ff ff 	mov    %rax,-0x1458(%rbp)
    bae6:	48 8d 05 4b 38 01 00 	lea    0x1384b(%rip),%rax        # 1f338 <g_1452>
    baed:	48 89 85 b0 eb ff ff 	mov    %rax,-0x1450(%rbp)
    baf4:	48 8d 85 f4 e2 ff ff 	lea    -0x1d0c(%rbp),%rax
    bafb:	48 89 85 b8 eb ff ff 	mov    %rax,-0x1448(%rbp)
    bb02:	48 8d 85 f4 e2 ff ff 	lea    -0x1d0c(%rbp),%rax
    bb09:	48 89 85 c0 eb ff ff 	mov    %rax,-0x1440(%rbp)
    bb10:	48 8d 85 f0 e2 ff ff 	lea    -0x1d10(%rbp),%rax
    bb17:	48 89 85 c8 eb ff ff 	mov    %rax,-0x1438(%rbp)
    bb1e:	48 8d 85 e0 e6 ff ff 	lea    -0x1920(%rbp),%rax
    bb25:	48 05 b0 00 00 00    	add    $0xb0,%rax
    bb2b:	48 89 85 d0 eb ff ff 	mov    %rax,-0x1430(%rbp)
    bb32:	48 8d 05 57 17 01 00 	lea    0x11757(%rip),%rax        # 1d290 <g_448>
    bb39:	48 89 85 d8 eb ff ff 	mov    %rax,-0x1428(%rbp)
    bb40:	48 c7 85 e0 eb ff ff 	movq   $0x0,-0x1420(%rbp)
    bb47:	00 00 00 00 
    bb4b:	48 c7 85 e8 eb ff ff 	movq   $0x0,-0x1418(%rbp)
    bb52:	00 00 00 00 
    bb56:	48 8d 85 18 e3 ff ff 	lea    -0x1ce8(%rbp),%rax
    bb5d:	48 89 85 f0 eb ff ff 	mov    %rax,-0x1410(%rbp)
    bb64:	48 8d 05 d5 31 01 00 	lea    0x131d5(%rip),%rax        # 1ed40 <g_1148>
    bb6b:	48 89 85 f8 eb ff ff 	mov    %rax,-0x1408(%rbp)
    bb72:	48 8d 05 d7 70 01 00 	lea    0x170d7(%rip),%rax        # 22c50 <g_22>
    bb79:	48 89 85 00 ec ff ff 	mov    %rax,-0x1400(%rbp)
    bb80:	48 c7 85 08 ec ff ff 	movq   $0x0,-0x13f8(%rbp)
    bb87:	00 00 00 00 
    bb8b:	48 8d 85 f8 e2 ff ff 	lea    -0x1d08(%rbp),%rax
    bb92:	48 89 85 10 ec ff ff 	mov    %rax,-0x13f0(%rbp)
    bb99:	48 8d 05 e0 14 01 00 	lea    0x114e0(%rip),%rax        # 1d080 <g_55>
    bba0:	48 89 85 18 ec ff ff 	mov    %rax,-0x13e8(%rbp)
    bba7:	48 8d 85 08 e3 ff ff 	lea    -0x1cf8(%rbp),%rax
    bbae:	48 89 85 20 ec ff ff 	mov    %rax,-0x13e0(%rbp)
    bbb5:	48 8d 85 18 e3 ff ff 	lea    -0x1ce8(%rbp),%rax
    bbbc:	48 89 85 28 ec ff ff 	mov    %rax,-0x13d8(%rbp)
    bbc3:	48 8d 05 86 70 01 00 	lea    0x17086(%rip),%rax        # 22c50 <g_22>
    bbca:	48 89 85 30 ec ff ff 	mov    %rax,-0x13d0(%rbp)
    bbd1:	48 c7 85 38 ec ff ff 	movq   $0x0,-0x13c8(%rbp)
    bbd8:	00 00 00 00 
    bbdc:	48 8d 85 f4 e2 ff ff 	lea    -0x1d0c(%rbp),%rax
    bbe3:	48 89 85 40 ec ff ff 	mov    %rax,-0x13c0(%rbp)
    bbea:	48 c7 85 48 ec ff ff 	movq   $0x0,-0x13b8(%rbp)
    bbf1:	00 00 00 00 
    bbf5:	48 8d 05 3c 37 01 00 	lea    0x1373c(%rip),%rax        # 1f338 <g_1452>
    bbfc:	48 89 85 50 ec ff ff 	mov    %rax,-0x13b0(%rbp)
    bc03:	48 8d 85 e0 e6 ff ff 	lea    -0x1920(%rbp),%rax
    bc0a:	48 05 b0 00 00 00    	add    $0xb0,%rax
    bc10:	48 89 85 58 ec ff ff 	mov    %rax,-0x13a8(%rbp)
    bc17:	48 8d 85 e0 e6 ff ff 	lea    -0x1920(%rbp),%rax
    bc1e:	48 05 b0 00 00 00    	add    $0xb0,%rax
    bc24:	48 89 85 60 ec ff ff 	mov    %rax,-0x13a0(%rbp)
    bc2b:	48 8d 05 1e 70 01 00 	lea    0x1701e(%rip),%rax        # 22c50 <g_22>
    bc32:	48 89 85 68 ec ff ff 	mov    %rax,-0x1398(%rbp)
    bc39:	48 8d 85 08 e3 ff ff 	lea    -0x1cf8(%rbp),%rax
    bc40:	48 89 85 70 ec ff ff 	mov    %rax,-0x1390(%rbp)
    bc47:	48 8d 85 f4 e2 ff ff 	lea    -0x1d0c(%rbp),%rax
    bc4e:	48 89 85 78 ec ff ff 	mov    %rax,-0x1388(%rbp)
    bc55:	48 8d 05 24 14 01 00 	lea    0x11424(%rip),%rax        # 1d080 <g_55>
    bc5c:	48 89 85 80 ec ff ff 	mov    %rax,-0x1380(%rbp)
    bc63:	48 8d 85 04 e3 ff ff 	lea    -0x1cfc(%rbp),%rax
    bc6a:	48 89 85 88 ec ff ff 	mov    %rax,-0x1378(%rbp)
    bc71:	48 8d 05 00 34 01 00 	lea    0x13400(%rip),%rax        # 1f078 <g_1450+0x1d8>
    bc78:	48 89 85 90 ec ff ff 	mov    %rax,-0x1370(%rbp)
    bc7f:	48 8d 85 f8 e2 ff ff 	lea    -0x1d08(%rbp),%rax
    bc86:	48 89 85 98 ec ff ff 	mov    %rax,-0x1368(%rbp)
    bc8d:	48 8d 05 ec 13 01 00 	lea    0x113ec(%rip),%rax        # 1d080 <g_55>
    bc94:	48 89 85 a0 ec ff ff 	mov    %rax,-0x1360(%rbp)
    bc9b:	48 c7 85 a8 ec ff ff 	movq   $0x0,-0x1358(%rbp)
    bca2:	00 00 00 00 
    bca6:	48 8d 85 f4 e2 ff ff 	lea    -0x1d0c(%rbp),%rax
    bcad:	48 89 85 b0 ec ff ff 	mov    %rax,-0x1350(%rbp)
    bcb4:	48 c7 85 b8 ec ff ff 	movq   $0x0,-0x1348(%rbp)
    bcbb:	00 00 00 00 
    bcbf:	48 8d 85 04 e3 ff ff 	lea    -0x1cfc(%rbp),%rax
    bcc6:	48 89 85 c0 ec ff ff 	mov    %rax,-0x1340(%rbp)
    bccd:	48 8d 85 f8 e2 ff ff 	lea    -0x1d08(%rbp),%rax
    bcd4:	48 89 85 c8 ec ff ff 	mov    %rax,-0x1338(%rbp)
    bcdb:	48 8d 85 18 e3 ff ff 	lea    -0x1ce8(%rbp),%rax
    bce2:	48 89 85 d0 ec ff ff 	mov    %rax,-0x1330(%rbp)
    bce9:	48 8d 05 70 15 01 00 	lea    0x11570(%rip),%rax        # 1d260 <g_386>
    bcf0:	48 89 85 d8 ec ff ff 	mov    %rax,-0x1328(%rbp)
    bcf7:	48 8d 05 82 13 01 00 	lea    0x11382(%rip),%rax        # 1d080 <g_55>
    bcfe:	48 89 85 e0 ec ff ff 	mov    %rax,-0x1320(%rbp)
    bd05:	48 8d 05 44 6f 01 00 	lea    0x16f44(%rip),%rax        # 22c50 <g_22>
    bd0c:	48 89 85 e8 ec ff ff 	mov    %rax,-0x1318(%rbp)
    bd13:	48 8d 05 46 15 01 00 	lea    0x11546(%rip),%rax        # 1d260 <g_386>
    bd1a:	48 89 85 f0 ec ff ff 	mov    %rax,-0x1310(%rbp)
    bd21:	48 8d 05 28 6f 01 00 	lea    0x16f28(%rip),%rax        # 22c50 <g_22>
    bd28:	48 89 85 f8 ec ff ff 	mov    %rax,-0x1308(%rbp)
    bd2f:	48 8d 05 5a 15 01 00 	lea    0x1155a(%rip),%rax        # 1d290 <g_448>
    bd36:	48 89 85 00 ed ff ff 	mov    %rax,-0x1300(%rbp)
    bd3d:	48 8d 05 3c 13 01 00 	lea    0x1133c(%rip),%rax        # 1d080 <g_55>
    bd44:	48 89 85 08 ed ff ff 	mov    %rax,-0x12f8(%rbp)
    bd4b:	48 8d 05 e6 35 01 00 	lea    0x135e6(%rip),%rax        # 1f338 <g_1452>
    bd52:	48 89 85 10 ed ff ff 	mov    %rax,-0x12f0(%rbp)
    bd59:	48 8d 85 18 e3 ff ff 	lea    -0x1ce8(%rbp),%rax
    bd60:	48 89 85 18 ed ff ff 	mov    %rax,-0x12e8(%rbp)
    bd67:	48 c7 85 20 ed ff ff 	movq   $0x0,-0x12e0(%rbp)
    bd6e:	00 00 00 00 
    bd72:	48 c7 85 28 ed ff ff 	movq   $0x0,-0x12d8(%rbp)
    bd79:	00 00 00 00 
    bd7d:	48 8d 05 fc 12 01 00 	lea    0x112fc(%rip),%rax        # 1d080 <g_55>
    bd84:	48 89 85 30 ed ff ff 	mov    %rax,-0x12d0(%rbp)
    bd8b:	48 8d 85 f4 e2 ff ff 	lea    -0x1d0c(%rbp),%rax
    bd92:	48 89 85 38 ed ff ff 	mov    %rax,-0x12c8(%rbp)
    bd99:	48 8d 85 08 e3 ff ff 	lea    -0x1cf8(%rbp),%rax
    bda0:	48 89 85 40 ed ff ff 	mov    %rax,-0x12c0(%rbp)
    bda7:	48 8d 05 92 2f 01 00 	lea    0x12f92(%rip),%rax        # 1ed40 <g_1148>
    bdae:	48 89 85 48 ed ff ff 	mov    %rax,-0x12b8(%rbp)
    bdb5:	48 c7 85 50 ed ff ff 	movq   $0x0,-0x12b0(%rbp)
    bdbc:	00 00 00 00 
    bdc0:	48 c7 85 58 ed ff ff 	movq   $0x0,-0x12a8(%rbp)
    bdc7:	00 00 00 00 
    bdcb:	48 8d 05 ae 12 01 00 	lea    0x112ae(%rip),%rax        # 1d080 <g_55>
    bdd2:	48 89 85 60 ed ff ff 	mov    %rax,-0x12a0(%rbp)
    bdd9:	48 c7 85 68 ed ff ff 	movq   $0x0,-0x1298(%rbp)
    bde0:	00 00 00 00 
    bde4:	48 8d 85 18 e3 ff ff 	lea    -0x1ce8(%rbp),%rax
    bdeb:	48 89 85 70 ed ff ff 	mov    %rax,-0x1290(%rbp)
    bdf2:	48 8d 85 18 e3 ff ff 	lea    -0x1ce8(%rbp),%rax
    bdf9:	48 89 85 78 ed ff ff 	mov    %rax,-0x1288(%rbp)
    be00:	48 8d 05 89 14 01 00 	lea    0x11489(%rip),%rax        # 1d290 <g_448>
    be07:	48 89 85 80 ed ff ff 	mov    %rax,-0x1280(%rbp)
    be0e:	48 8d 05 7b 14 01 00 	lea    0x1147b(%rip),%rax        # 1d290 <g_448>
    be15:	48 89 85 88 ed ff ff 	mov    %rax,-0x1278(%rbp)
    be1c:	48 8d 05 6d 14 01 00 	lea    0x1146d(%rip),%rax        # 1d290 <g_448>
    be23:	48 89 85 90 ed ff ff 	mov    %rax,-0x1270(%rbp)
    be2a:	48 8d 85 08 e3 ff ff 	lea    -0x1cf8(%rbp),%rax
    be31:	48 89 85 98 ed ff ff 	mov    %rax,-0x1268(%rbp)
    be38:	48 8d 85 f4 e2 ff ff 	lea    -0x1d0c(%rbp),%rax
    be3f:	48 89 85 a0 ed ff ff 	mov    %rax,-0x1260(%rbp)
    be46:	48 8d 05 03 6e 01 00 	lea    0x16e03(%rip),%rax        # 22c50 <g_22>
    be4d:	48 89 85 a8 ed ff ff 	mov    %rax,-0x1258(%rbp)
    be54:	48 8d 05 e5 2e 01 00 	lea    0x12ee5(%rip),%rax        # 1ed40 <g_1148>
    be5b:	48 89 85 b0 ed ff ff 	mov    %rax,-0x1250(%rbp)
    be62:	48 8d 85 14 e3 ff ff 	lea    -0x1cec(%rbp),%rax
    be69:	48 89 85 b8 ed ff ff 	mov    %rax,-0x1248(%rbp)
    be70:	48 8d 85 18 e3 ff ff 	lea    -0x1ce8(%rbp),%rax
    be77:	48 89 85 c0 ed ff ff 	mov    %rax,-0x1240(%rbp)
    be7e:	48 c7 85 c8 ed ff ff 	movq   $0x0,-0x1238(%rbp)
    be85:	00 00 00 00 
    be89:	48 8d 85 f0 e2 ff ff 	lea    -0x1d10(%rbp),%rax
    be90:	48 89 85 d0 ed ff ff 	mov    %rax,-0x1230(%rbp)
    be97:	48 c7 85 d8 ed ff ff 	movq   $0x0,-0x1228(%rbp)
    be9e:	00 00 00 00 
    bea2:	48 8d 05 97 2e 01 00 	lea    0x12e97(%rip),%rax        # 1ed40 <g_1148>
    bea9:	48 89 85 e0 ed ff ff 	mov    %rax,-0x1220(%rbp)
    beb0:	48 8d 85 e0 e6 ff ff 	lea    -0x1920(%rbp),%rax
    beb7:	48 05 b0 00 00 00    	add    $0xb0,%rax
    bebd:	48 89 85 e8 ed ff ff 	mov    %rax,-0x1218(%rbp)
    bec4:	48 8d 05 b5 11 01 00 	lea    0x111b5(%rip),%rax        # 1d080 <g_55>
    becb:	48 89 85 f0 ed ff ff 	mov    %rax,-0x1210(%rbp)
    bed2:	48 c7 85 f8 ed ff ff 	movq   $0x0,-0x1208(%rbp)
    bed9:	00 00 00 00 
    bedd:	48 c7 85 00 ee ff ff 	movq   $0x0,-0x1200(%rbp)
    bee4:	00 00 00 00 
    bee8:	48 8d 85 04 e3 ff ff 	lea    -0x1cfc(%rbp),%rax
    beef:	48 89 85 08 ee ff ff 	mov    %rax,-0x11f8(%rbp)
    bef6:	48 8d 05 43 2e 01 00 	lea    0x12e43(%rip),%rax        # 1ed40 <g_1148>
    befd:	48 89 85 10 ee ff ff 	mov    %rax,-0x11f0(%rbp)
    bf04:	48 8d 85 18 e3 ff ff 	lea    -0x1ce8(%rbp),%rax
    bf0b:	48 89 85 18 ee ff ff 	mov    %rax,-0x11e8(%rbp)
    bf12:	48 8d 85 08 e3 ff ff 	lea    -0x1cf8(%rbp),%rax
    bf19:	48 89 85 20 ee ff ff 	mov    %rax,-0x11e0(%rbp)
    bf20:	48 8d 85 f8 e2 ff ff 	lea    -0x1d08(%rbp),%rax
    bf27:	48 89 85 28 ee ff ff 	mov    %rax,-0x11d8(%rbp)
    bf2e:	48 8d 05 5b 13 01 00 	lea    0x1135b(%rip),%rax        # 1d290 <g_448>
    bf35:	48 89 85 30 ee ff ff 	mov    %rax,-0x11d0(%rbp)
    bf3c:	48 c7 85 38 ee ff ff 	movq   $0x0,-0x11c8(%rbp)
    bf43:	00 00 00 00 
    bf47:	48 8d 85 e0 e6 ff ff 	lea    -0x1920(%rbp),%rax
    bf4e:	48 05 b0 00 00 00    	add    $0xb0,%rax
    bf54:	48 89 85 40 ee ff ff 	mov    %rax,-0x11c0(%rbp)
    bf5b:	48 8d 85 18 e3 ff ff 	lea    -0x1ce8(%rbp),%rax
    bf62:	48 89 85 48 ee ff ff 	mov    %rax,-0x11b8(%rbp)
    bf69:	48 c7 85 50 ee ff ff 	movq   $0x0,-0x11b0(%rbp)
    bf70:	00 00 00 00 
    bf74:	48 8d 85 18 e3 ff ff 	lea    -0x1ce8(%rbp),%rax
    bf7b:	48 89 85 58 ee ff ff 	mov    %rax,-0x11a8(%rbp)
    bf82:	48 8d 05 f7 10 01 00 	lea    0x110f7(%rip),%rax        # 1d080 <g_55>
    bf89:	48 89 85 60 ee ff ff 	mov    %rax,-0x11a0(%rbp)
    bf90:	48 8d 85 18 e3 ff ff 	lea    -0x1ce8(%rbp),%rax
    bf97:	48 89 85 68 ee ff ff 	mov    %rax,-0x1198(%rbp)
    bf9e:	48 8d 05 9b 2d 01 00 	lea    0x12d9b(%rip),%rax        # 1ed40 <g_1148>
    bfa5:	48 89 85 70 ee ff ff 	mov    %rax,-0x1190(%rbp)
    bfac:	48 8d 05 8d 2d 01 00 	lea    0x12d8d(%rip),%rax        # 1ed40 <g_1148>
    bfb3:	48 89 85 78 ee ff ff 	mov    %rax,-0x1188(%rbp)
    bfba:	48 8d 85 f0 e2 ff ff 	lea    -0x1d10(%rbp),%rax
    bfc1:	48 89 85 80 ee ff ff 	mov    %rax,-0x1180(%rbp)
    bfc8:	48 c7 85 88 ee ff ff 	movq   $0x0,-0x1178(%rbp)
    bfcf:	00 00 00 00 
    bfd3:	48 8d 05 a6 10 01 00 	lea    0x110a6(%rip),%rax        # 1d080 <g_55>
    bfda:	48 89 85 90 ee ff ff 	mov    %rax,-0x1170(%rbp)
    bfe1:	48 c7 85 98 ee ff ff 	movq   $0x0,-0x1168(%rbp)
    bfe8:	00 00 00 00 
    bfec:	48 8d 05 4d 2d 01 00 	lea    0x12d4d(%rip),%rax        # 1ed40 <g_1148>
    bff3:	48 89 85 a0 ee ff ff 	mov    %rax,-0x1160(%rbp)
    bffa:	48 8d 85 18 e3 ff ff 	lea    -0x1ce8(%rbp),%rax
    c001:	48 89 85 a8 ee ff ff 	mov    %rax,-0x1158(%rbp)
    c008:	48 8d 05 81 12 01 00 	lea    0x11281(%rip),%rax        # 1d290 <g_448>
    c00f:	48 89 85 b0 ee ff ff 	mov    %rax,-0x1150(%rbp)
    c016:	48 c7 85 b8 ee ff ff 	movq   $0x0,-0x1148(%rbp)
    c01d:	00 00 00 00 
    c021:	48 8d 05 68 12 01 00 	lea    0x11268(%rip),%rax        # 1d290 <g_448>
    c028:	48 89 85 c0 ee ff ff 	mov    %rax,-0x1140(%rbp)
    c02f:	48 8d 05 42 30 01 00 	lea    0x13042(%rip),%rax        # 1f078 <g_1450+0x1d8>
    c036:	48 89 85 c8 ee ff ff 	mov    %rax,-0x1138(%rbp)
    c03d:	48 c7 85 d0 ee ff ff 	movq   $0x0,-0x1130(%rbp)
    c044:	00 00 00 00 
    c048:	48 8d 05 01 6c 01 00 	lea    0x16c01(%rip),%rax        # 22c50 <g_22>
    c04f:	48 89 85 d8 ee ff ff 	mov    %rax,-0x1128(%rbp)
    c056:	48 c7 85 e0 ee ff ff 	movq   $0x0,-0x1120(%rbp)
    c05d:	00 00 00 00 
    c061:	48 8d 05 18 10 01 00 	lea    0x11018(%rip),%rax        # 1d080 <g_55>
    c068:	48 89 85 e8 ee ff ff 	mov    %rax,-0x1118(%rbp)
    c06f:	48 8d 85 18 e3 ff ff 	lea    -0x1ce8(%rbp),%rax
    c076:	48 89 85 f0 ee ff ff 	mov    %rax,-0x1110(%rbp)
    c07d:	48 c7 85 f8 ee ff ff 	movq   $0x0,-0x1108(%rbp)
    c084:	00 00 00 00 
    c088:	48 8d 05 b1 2c 01 00 	lea    0x12cb1(%rip),%rax        # 1ed40 <g_1148>
    c08f:	48 89 85 00 ef ff ff 	mov    %rax,-0x1100(%rbp)
    c096:	48 c7 85 08 ef ff ff 	movq   $0x0,-0x10f8(%rbp)
    c09d:	00 00 00 00 
    c0a1:	48 8d 85 f4 e2 ff ff 	lea    -0x1d0c(%rbp),%rax
    c0a8:	48 89 85 10 ef ff ff 	mov    %rax,-0x10f0(%rbp)
    c0af:	48 8d 85 18 e3 ff ff 	lea    -0x1ce8(%rbp),%rax
    c0b6:	48 89 85 18 ef ff ff 	mov    %rax,-0x10e8(%rbp)
    c0bd:	48 8d 05 bc 0f 01 00 	lea    0x10fbc(%rip),%rax        # 1d080 <g_55>
    c0c4:	48 89 85 20 ef ff ff 	mov    %rax,-0x10e0(%rbp)
    c0cb:	48 c7 85 28 ef ff ff 	movq   $0x0,-0x10d8(%rbp)
    c0d2:	00 00 00 00 
    c0d6:	48 8d 85 14 e3 ff ff 	lea    -0x1cec(%rbp),%rax
    c0dd:	48 89 85 30 ef ff ff 	mov    %rax,-0x10d0(%rbp)
    c0e4:	48 8d 85 04 e3 ff ff 	lea    -0x1cfc(%rbp),%rax
    c0eb:	48 89 85 38 ef ff ff 	mov    %rax,-0x10c8(%rbp)
    c0f2:	48 c7 85 40 ef ff ff 	movq   $0x0,-0x10c0(%rbp)
    c0f9:	00 00 00 00 
    c0fd:	48 8d 85 08 e3 ff ff 	lea    -0x1cf8(%rbp),%rax
    c104:	48 89 85 48 ef ff ff 	mov    %rax,-0x10b8(%rbp)
    c10b:	48 8d 85 08 e3 ff ff 	lea    -0x1cf8(%rbp),%rax
    c112:	48 89 85 50 ef ff ff 	mov    %rax,-0x10b0(%rbp)
    c119:	48 8d 05 58 2f 01 00 	lea    0x12f58(%rip),%rax        # 1f078 <g_1450+0x1d8>
    c120:	48 89 85 58 ef ff ff 	mov    %rax,-0x10a8(%rbp)
    c127:	48 c7 85 60 ef ff ff 	movq   $0x0,-0x10a0(%rbp)
    c12e:	00 00 00 00 
    c132:	48 8d 85 e0 e6 ff ff 	lea    -0x1920(%rbp),%rax
    c139:	48 05 b0 00 00 00    	add    $0xb0,%rax
    c13f:	48 89 85 68 ef ff ff 	mov    %rax,-0x1098(%rbp)
    c146:	48 8d 05 43 11 01 00 	lea    0x11143(%rip),%rax        # 1d290 <g_448>
    c14d:	48 89 85 70 ef ff ff 	mov    %rax,-0x1090(%rbp)
    c154:	48 8d 85 f4 e2 ff ff 	lea    -0x1d0c(%rbp),%rax
    c15b:	48 89 85 78 ef ff ff 	mov    %rax,-0x1088(%rbp)
    c162:	48 8d 85 f4 e2 ff ff 	lea    -0x1d0c(%rbp),%rax
    c169:	48 89 85 80 ef ff ff 	mov    %rax,-0x1080(%rbp)
    c170:	48 c7 85 88 ef ff ff 	movq   $0x0,-0x1078(%rbp)
    c177:	00 00 00 00 
    c17b:	48 8d 85 f0 e2 ff ff 	lea    -0x1d10(%rbp),%rax
    c182:	48 89 85 90 ef ff ff 	mov    %rax,-0x1070(%rbp)
    c189:	48 8d 85 18 e3 ff ff 	lea    -0x1ce8(%rbp),%rax
    c190:	48 89 85 98 ef ff ff 	mov    %rax,-0x1068(%rbp)
    c197:	48 8d 85 f0 e2 ff ff 	lea    -0x1d10(%rbp),%rax
    c19e:	48 89 85 a0 ef ff ff 	mov    %rax,-0x1060(%rbp)
    c1a5:	48 c7 85 a8 ef ff ff 	movq   $0x0,-0x1058(%rbp)
    c1ac:	00 00 00 00 
    c1b0:	48 8d 85 f8 e2 ff ff 	lea    -0x1d08(%rbp),%rax
    c1b7:	48 89 85 b0 ef ff ff 	mov    %rax,-0x1050(%rbp)
    c1be:	48 8d 85 18 e3 ff ff 	lea    -0x1ce8(%rbp),%rax
    c1c5:	48 89 85 b8 ef ff ff 	mov    %rax,-0x1048(%rbp)
    c1cc:	48 8d 85 f0 e2 ff ff 	lea    -0x1d10(%rbp),%rax
    c1d3:	48 89 85 c0 ef ff ff 	mov    %rax,-0x1040(%rbp)
    c1da:	48 8d 05 5f 2b 01 00 	lea    0x12b5f(%rip),%rax        # 1ed40 <g_1148>
    c1e1:	48 89 85 c8 ef ff ff 	mov    %rax,-0x1038(%rbp)
    c1e8:	48 c7 85 d0 ef ff ff 	movq   $0x0,-0x1030(%rbp)
    c1ef:	00 00 00 00 
    c1f3:	48 8d 85 f4 e2 ff ff 	lea    -0x1d0c(%rbp),%rax
    c1fa:	48 89 85 d8 ef ff ff 	mov    %rax,-0x1028(%rbp)
    c201:	48 c7 85 e0 ef ff ff 	movq   $0x0,-0x1020(%rbp)
    c208:	00 00 00 00 
    c20c:	48 c7 85 e8 ef ff ff 	movq   $0x0,-0x1018(%rbp)
    c213:	00 00 00 00 
    c217:	48 c7 85 f0 ef ff ff 	movq   $0x0,-0x1010(%rbp)
    c21e:	00 00 00 00 
    c222:	48 8d 85 f0 e2 ff ff 	lea    -0x1d10(%rbp),%rax
    c229:	48 89 85 f8 ef ff ff 	mov    %rax,-0x1008(%rbp)
    c230:	48 8d 85 f8 e2 ff ff 	lea    -0x1d08(%rbp),%rax
    c237:	48 89 85 00 f0 ff ff 	mov    %rax,-0x1000(%rbp)
    c23e:	48 8d 85 08 e3 ff ff 	lea    -0x1cf8(%rbp),%rax
    c245:	48 89 85 08 f0 ff ff 	mov    %rax,-0xff8(%rbp)
    c24c:	48 8d 05 e5 30 01 00 	lea    0x130e5(%rip),%rax        # 1f338 <g_1452>
    c253:	48 89 85 10 f0 ff ff 	mov    %rax,-0xff0(%rbp)
    c25a:	48 8d 05 df 2a 01 00 	lea    0x12adf(%rip),%rax        # 1ed40 <g_1148>
    c261:	48 89 85 18 f0 ff ff 	mov    %rax,-0xfe8(%rbp)
    c268:	48 8d 85 14 e3 ff ff 	lea    -0x1cec(%rbp),%rax
    c26f:	48 89 85 20 f0 ff ff 	mov    %rax,-0xfe0(%rbp)
    c276:	48 8d 05 e3 0f 01 00 	lea    0x10fe3(%rip),%rax        # 1d260 <g_386>
    c27d:	48 89 85 28 f0 ff ff 	mov    %rax,-0xfd8(%rbp)
    c284:	c6 85 e7 e2 ff ff f7 	movb   $0xf7,-0x1d19(%rbp)
    c28b:	66 c7 05 d4 0f 01 00 	movw   $0x1,0x10fd4(%rip)        # 1d268 <g_404>
    c292:	01 00 
    c294:	e9 c7 00 00 00       	jmpq   c360 <func_1+0x2bab>
    c299:	48 c7 85 d8 e4 ff ff 	movq   $0x0,-0x1b28(%rbp)
    c2a0:	00 00 00 00 
    c2a4:	c7 85 54 e3 ff ff fd 	movl   $0xfffffffd,-0x1cac(%rbp)
    c2ab:	ff ff ff 
    c2ae:	48 c7 85 e0 e4 ff ff 	movq   $0x0,-0x1b20(%rbp)
    c2b5:	00 00 00 00 
    c2b9:	48 8d 05 80 2a 01 00 	lea    0x12a80(%rip),%rax        # 1ed40 <g_1148>
    c2c0:	48 89 85 e8 e4 ff ff 	mov    %rax,-0x1b18(%rbp)
    c2c7:	48 8d 85 30 f0 ff ff 	lea    -0xfd0(%rbp),%rax
    c2ce:	48 8d 15 0b 38 01 00 	lea    0x1380b(%rip),%rdx        # 1fae0 <g_1954+0x140>
    c2d5:	b9 96 00 00 00       	mov    $0x96,%ecx
    c2da:	48 89 c7             	mov    %rax,%rdi
    c2dd:	48 89 d6             	mov    %rdx,%rsi
    c2e0:	f3 48 a5             	rep movsq %ds:(%rsi),%es:(%rdi)
    c2e3:	48 8b 05 e6 64 01 00 	mov    0x164e6(%rip),%rax        # 227d0 <g_1824>
    c2ea:	48 8b 95 38 e4 ff ff 	mov    -0x1bc8(%rbp),%rdx
    c2f1:	48 89 10             	mov    %rdx,(%rax)
    c2f4:	48 8b 95 88 e3 ff ff 	mov    -0x1c78(%rbp),%rdx
    c2fb:	48 8b 85 60 e4 ff ff 	mov    -0x1ba0(%rbp),%rax
    c302:	48 8b 00             	mov    (%rax),%rax
    c305:	8b 12                	mov    (%rdx),%edx
    c307:	89 10                	mov    %edx,(%rax)
    c309:	0f b7 85 e8 e2 ff ff 	movzwl -0x1d18(%rbp),%eax
    c310:	83 e8 01             	sub    $0x1,%eax
    c313:	66 89 85 e8 e2 ff ff 	mov    %ax,-0x1d18(%rbp)
    c31a:	48 8b 05 47 5a 01 00 	mov    0x15a47(%rip),%rax        # 21d68 <g_513>
    c321:	48 8b 00             	mov    (%rax),%rax
    c324:	48 8b 08             	mov    (%rax),%rcx
    c327:	48 8b 58 08          	mov    0x8(%rax),%rbx
    c32b:	48 89 0d 20 36 01 00 	mov    %rcx,0x13620(%rip)        # 1f952 <g_1834+0x2f2>
    c332:	48 89 1d 21 36 01 00 	mov    %rbx,0x13621(%rip)        # 1f95a <g_1834+0x2fa>
    c339:	48 8b 50 10          	mov    0x10(%rax),%rdx
    c33d:	48 89 15 1e 36 01 00 	mov    %rdx,0x1361e(%rip)        # 1f962 <g_1834+0x302>
    c344:	0f b7 40 18          	movzwl 0x18(%rax),%eax
    c348:	66 89 05 1b 36 01 00 	mov    %ax,0x1361b(%rip)        # 1f96a <g_1834+0x30a>
    c34f:	0f b7 05 12 0f 01 00 	movzwl 0x10f12(%rip),%eax        # 1d268 <g_404>
    c356:	83 e8 01             	sub    $0x1,%eax
    c359:	66 89 05 08 0f 01 00 	mov    %ax,0x10f08(%rip)        # 1d268 <g_404>
    c360:	0f b7 05 01 0f 01 00 	movzwl 0x10f01(%rip),%eax        # 1d268 <g_404>
    c367:	66 85 c0             	test   %ax,%ax
    c36a:	0f 89 29 ff ff ff    	jns    c299 <func_1+0x2ae4>
    c370:	c7 05 32 29 01 00 01 	movl   $0x1,0x12932(%rip)        # 1ecac <g_1026>
    c377:	00 00 00 
    c37a:	eb 62                	jmp    c3de <func_1+0x2c29>
    c37c:	48 c7 85 c8 e4 ff ff 	movq   $0x0,-0x1b38(%rbp)
    c383:	00 00 00 00 
    c387:	48 8d 05 ea 0c 01 00 	lea    0x10cea(%rip),%rax        # 1d078 <g_44>
    c38e:	48 89 85 d0 e4 ff ff 	mov    %rax,-0x1b30(%rbp)
    c395:	c7 85 28 e3 ff ff 00 	movl   $0x0,-0x1cd8(%rbp)
    c39c:	00 00 00 
    c39f:	eb 1e                	jmp    c3bf <func_1+0x2c0a>
    c3a1:	8b 85 28 e3 ff ff    	mov    -0x1cd8(%rbp),%eax
    c3a7:	48 98                	cltq   
    c3a9:	48 8d 15 90 29 01 00 	lea    0x12990(%rip),%rdx        # 1ed40 <g_1148>
    c3b0:	48 89 94 c5 30 f0 ff 	mov    %rdx,-0xfd0(%rbp,%rax,8)
    c3b7:	ff 
    c3b8:	83 85 28 e3 ff ff 01 	addl   $0x1,-0x1cd8(%rbp)
    c3bf:	83 bd 28 e3 ff ff 05 	cmpl   $0x5,-0x1cd8(%rbp)
    c3c6:	7e d9                	jle    c3a1 <func_1+0x2bec>
    c3c8:	80 ad e2 e2 ff ff 01 	subb   $0x1,-0x1d1e(%rbp)
    c3cf:	8b 05 d7 28 01 00    	mov    0x128d7(%rip),%eax        # 1ecac <g_1026>
    c3d5:	83 c0 01             	add    $0x1,%eax
    c3d8:	89 05 ce 28 01 00    	mov    %eax,0x128ce(%rip)        # 1ecac <g_1026>
    c3de:	8b 05 c8 28 01 00    	mov    0x128c8(%rip),%eax        # 1ecac <g_1026>
    c3e4:	83 f8 04             	cmp    $0x4,%eax
    c3e7:	76 93                	jbe    c37c <func_1+0x2bc7>
    c3e9:	0f b6 85 e7 e2 ff ff 	movzbl -0x1d19(%rbp),%eax
    c3f0:	83 e8 01             	sub    $0x1,%eax
    c3f3:	88 85 e7 e2 ff ff    	mov    %al,-0x1d19(%rbp)
    c3f9:	48 8b 05 88 62 01 00 	mov    0x16288(%rip),%rax        # 22688 <g_1387>
    c400:	48 8b 95 38 f5 ff ff 	mov    -0xac8(%rbp),%rdx
    c407:	48 89 10             	mov    %rdx,(%rax)
    c40a:	48 8b 10             	mov    (%rax),%rdx
    c40d:	48 8b 85 70 e4 ff ff 	mov    -0x1b90(%rbp),%rax
    c414:	48 89 10             	mov    %rdx,(%rax)
    c417:	48 8b 85 70 e4 ff ff 	mov    -0x1b90(%rbp),%rax
    c41e:	48 8b 00             	mov    (%rax),%rax
    c421:	48 8b 15 88 68 01 00 	mov    0x16888(%rip),%rdx        # 22cb0 <g_1879>
    c428:	48 89 95 b8 e3 ff ff 	mov    %rdx,-0x1c48(%rbp)
    c42f:	48 39 85 b8 e3 ff ff 	cmp    %rax,-0x1c48(%rbp)
    c436:	0f 94 c0             	sete   %al
    c439:	0f b6 c0             	movzbl %al,%eax
    c43c:	48 89 c7             	mov    %rax,%rdi
    c43f:	e8 d2 c3 ff ff       	callq  8816 <safe_unary_minus_func_int64_t_s>
    c444:	48 89 c2             	mov    %rax,%rdx
    c447:	48 8b 85 88 e3 ff ff 	mov    -0x1c78(%rbp),%rax
    c44e:	89 10                	mov    %edx,(%rax)
    c450:	8b 00                	mov    (%rax),%eax
    c452:	85 c0                	test   %eax,%eax
    c454:	0f 84 80 00 00 00    	je     c4da <func_1+0x2d25>
    c45a:	48 8b 85 78 e3 ff ff 	mov    -0x1c88(%rbp),%rax
    c461:	48 89 05 70 63 01 00 	mov    %rax,0x16370(%rip)        # 227d8 <g_1884>
    c468:	48 8b 05 69 63 01 00 	mov    0x16369(%rip),%rax        # 227d8 <g_1884>
    c46f:	48 39 85 40 e4 ff ff 	cmp    %rax,-0x1bc0(%rbp)
    c476:	0f 94 c0             	sete   %al
    c479:	44 0f b6 e0          	movzbl %al,%r12d
    c47d:	0f b7 9d ec e2 ff ff 	movzwl -0x1d14(%rbp),%ebx
    c484:	48 8b 85 78 e4 ff ff 	mov    -0x1b88(%rbp),%rax
    c48b:	8b 10                	mov    (%rax),%edx
    c48d:	8b 85 b8 e5 ff ff    	mov    -0x1a48(%rbp),%eax
    c493:	09 c2                	or     %eax,%edx
    c495:	48 8b 85 78 e4 ff ff 	mov    -0x1b88(%rbp),%rax
    c49c:	89 10                	mov    %edx,(%rax)
    c49e:	48 83 bd 48 e4 ff ff 	cmpq   $0x0,-0x1bb8(%rbp)
    c4a5:	00 
    c4a6:	0f 95 c0             	setne  %al
    c4a9:	0f b6 c0             	movzbl %al,%eax
    c4ac:	89 c7                	mov    %eax,%edi
    c4ae:	e8 0c bd ff ff       	callq  81bf <safe_unary_minus_func_int8_t_s>
    c4b3:	89 c2                	mov    %eax,%edx
    c4b5:	8b 85 34 e3 ff ff    	mov    -0x1ccc(%rbp),%eax
    c4bb:	21 d0                	and    %edx,%eax
    c4bd:	0f b6 c0             	movzbl %al,%eax
    c4c0:	89 de                	mov    %ebx,%esi
    c4c2:	89 c7                	mov    %eax,%edi
    c4c4:	e8 83 c7 ff ff       	callq  8c4c <safe_lshift_func_uint8_t_u_u>
    c4c9:	0f b6 c0             	movzbl %al,%eax
    c4cc:	44 09 e0             	or     %r12d,%eax
    c4cf:	85 c0                	test   %eax,%eax
    c4d1:	74 07                	je     c4da <func_1+0x2d25>
    c4d3:	b8 01 00 00 00       	mov    $0x1,%eax
    c4d8:	eb 05                	jmp    c4df <func_1+0x2d2a>
    c4da:	b8 00 00 00 00       	mov    $0x0,%eax
    c4df:	be 06 00 00 00       	mov    $0x6,%esi
    c4e4:	89 c7                	mov    %eax,%edi
    c4e6:	e8 e1 c1 ff ff       	callq  86cc <safe_mod_func_int32_t_s_s>
    c4eb:	48 8b 95 80 e4 ff ff 	mov    -0x1b80(%rbp),%rdx
    c4f2:	89 02                	mov    %eax,(%rdx)
    c4f4:	48 8b 85 80 e4 ff ff 	mov    -0x1b80(%rbp),%rax
    c4fb:	8b 00                	mov    (%rax),%eax
    c4fd:	85 c0                	test   %eax,%eax
    c4ff:	74 54                	je     c555 <func_1+0x2da0>
    c501:	c7 85 5c e3 ff ff 57 	movl   $0x216af057,-0x1ca4(%rbp)
    c508:	f0 6a 21 
    c50b:	c7 05 23 2e 01 00 00 	movl   $0x0,0x12e23(%rip)        # 1f338 <g_1452>
    c512:	00 00 00 
    c515:	eb 22                	jmp    c539 <func_1+0x2d84>
    c517:	8b 05 1b 2e 01 00    	mov    0x12e1b(%rip),%eax        # 1f338 <g_1452>
    c51d:	89 c0                	mov    %eax,%eax
    c51f:	c7 84 85 88 e5 ff ff 	movl   $0xfffffffe,-0x1a78(%rbp,%rax,4)
    c526:	fe ff ff ff 
    c52a:	8b 05 08 2e 01 00    	mov    0x12e08(%rip),%eax        # 1f338 <g_1452>
    c530:	83 c0 01             	add    $0x1,%eax
    c533:	89 05 ff 2d 01 00    	mov    %eax,0x12dff(%rip)        # 1f338 <g_1452>
    c539:	8b 05 f9 2d 01 00    	mov    0x12df9(%rip),%eax        # 1f338 <g_1452>
    c53f:	83 f8 01             	cmp    $0x1,%eax
    c542:	76 d3                	jbe    c517 <func_1+0x2d62>
    c544:	8b 85 c8 e5 ff ff    	mov    -0x1a38(%rbp),%eax
    c54a:	31 85 5c e3 ff ff    	xor    %eax,-0x1ca4(%rbp)
    c550:	e9 c8 02 00 00       	jmpq   c81d <func_1+0x3068>
    c555:	66 c7 05 0c 0d 01 00 	movw   $0x0,0x10d0c(%rip)        # 1d26a <g_406>
    c55c:	00 00 
    c55e:	e9 c3 00 00 00       	jmpq   c626 <func_1+0x2e71>
    c563:	48 c7 85 f0 e4 ff ff 	movq   $0x0,-0x1b10(%rbp)
    c56a:	00 00 00 00 
    c56e:	48 8d 85 10 e3 ff ff 	lea    -0x1cf0(%rbp),%rax
    c575:	48 89 85 f8 e4 ff ff 	mov    %rax,-0x1b08(%rbp)
    c57c:	48 8d 05 0d 0d 01 00 	lea    0x10d0d(%rip),%rax        # 1d290 <g_448>
    c583:	48 89 85 00 e5 ff ff 	mov    %rax,-0x1b00(%rbp)
    c58a:	48 8d 85 b0 e5 ff ff 	lea    -0x1a50(%rbp),%rax
    c591:	48 83 c0 18          	add    $0x18,%rax
    c595:	48 89 85 08 e5 ff ff 	mov    %rax,-0x1af8(%rbp)
    c59c:	48 8d 85 0c e3 ff ff 	lea    -0x1cf4(%rbp),%rax
    c5a3:	48 89 85 10 e5 ff ff 	mov    %rax,-0x1af0(%rbp)
    c5aa:	48 8d 85 08 e3 ff ff 	lea    -0x1cf8(%rbp),%rax
    c5b1:	48 89 85 18 e5 ff ff 	mov    %rax,-0x1ae8(%rbp)
    c5b8:	48 8d 85 c0 e7 ff ff 	lea    -0x1840(%rbp),%rax
    c5bf:	48 05 28 01 00 00    	add    $0x128,%rax
    c5c5:	48 89 85 20 e5 ff ff 	mov    %rax,-0x1ae0(%rbp)
    c5cc:	48 8d 85 a0 e3 ff ff 	lea    -0x1c60(%rbp),%rax
    c5d3:	48 89 85 28 e5 ff ff 	mov    %rax,-0x1ad8(%rbp)
    c5da:	c7 85 1c e3 ff ff 00 	movl   $0x0,-0x1ce4(%rbp)
    c5e1:	00 00 00 
    c5e4:	eb 1e                	jmp    c604 <func_1+0x2e4f>
    c5e6:	8b 85 1c e3 ff ff    	mov    -0x1ce4(%rbp),%eax
    c5ec:	48 98                	cltq   
    c5ee:	48 8d 95 00 e3 ff ff 	lea    -0x1d00(%rbp),%rdx
    c5f5:	48 89 94 c5 30 f0 ff 	mov    %rdx,-0xfd0(%rbp,%rax,8)
    c5fc:	ff 
    c5fd:	83 85 1c e3 ff ff 01 	addl   $0x1,-0x1ce4(%rbp)
    c604:	83 bd 1c e3 ff ff 04 	cmpl   $0x4,-0x1ce4(%rbp)
    c60b:	7e d9                	jle    c5e6 <func_1+0x2e31>
    c60d:	48 83 85 a8 e3 ff ff 	addq   $0x1,-0x1c58(%rbp)
    c614:	01 
    c615:	0f b7 05 4e 0c 01 00 	movzwl 0x10c4e(%rip),%eax        # 1d26a <g_406>
    c61c:	83 e8 01             	sub    $0x1,%eax
    c61f:	66 89 05 44 0c 01 00 	mov    %ax,0x10c44(%rip)        # 1d26a <g_406>
    c626:	0f b7 05 3d 0c 01 00 	movzwl 0x10c3d(%rip),%eax        # 1d26a <g_406>
    c62d:	66 85 c0             	test   %ax,%ax
    c630:	0f 89 2d ff ff ff    	jns    c563 <func_1+0x2dae>
    c636:	48 8b 85 80 e4 ff ff 	mov    -0x1b80(%rbp),%rax
    c63d:	8b 10                	mov    (%rax),%edx
    c63f:	48 8b 85 88 e3 ff ff 	mov    -0x1c78(%rbp),%rax
    c646:	8b 00                	mov    (%rax),%eax
    c648:	31 c2                	xor    %eax,%edx
    c64a:	48 8b 85 80 e4 ff ff 	mov    -0x1b80(%rbp),%rax
    c651:	89 10                	mov    %edx,(%rax)
    c653:	e9 c5 01 00 00       	jmpq   c81d <func_1+0x3068>
    c658:	48 c7 85 f8 e3 ff ff 	movq   $0xffffffffffffffff,-0x1c08(%rbp)
    c65f:	ff ff ff ff 
    c663:	c7 85 30 e3 ff ff 01 	movl   $0x1,-0x1cd0(%rbp)
    c66a:	00 00 00 
    c66d:	48 83 bd f8 e3 ff ff 	cmpq   $0x0,-0x1c08(%rbp)
    c674:	00 
    c675:	74 5c                	je     c6d3 <func_1+0x2f1e>
    c677:	c7 85 0c e3 ff ff 0b 	movl   $0xb,-0x1cf4(%rbp)
    c67e:	00 00 00 
    c681:	90                   	nop
    c682:	8b 85 0c e3 ff ff    	mov    -0x1cf4(%rbp),%eax
    c688:	83 f8 fc             	cmp    $0xfffffffc,%eax
    c68b:	0f 84 6a 01 00 00    	je     c7fb <func_1+0x3046>
    c691:	48 c7 05 d4 09 01 00 	movq   $0xffffffffffffffe6,0x109d4(%rip)        # 1d070 <g_40>
    c698:	e6 ff ff ff 
    c69c:	90                   	nop
    c69d:	48 8b 05 cc 09 01 00 	mov    0x109cc(%rip),%rax        # 1d070 <g_40>
    c6a4:	48 83 f8 eb          	cmp    $0xffffffffffffffeb,%rax
    c6a8:	7d 1d                	jge    c6c7 <func_1+0x2f12>
    c6aa:	48 b8 46 9d b3 53 42 	movabs $0x6538da4253b39d46,%rax
    c6b1:	da 38 65 
    c6b4:	48 89 85 10 e4 ff ff 	mov    %rax,-0x1bf0(%rbp)
    c6bb:	48 8b 85 10 e4 ff ff 	mov    -0x1bf0(%rbp),%rax
    c6c2:	e9 db 02 00 00       	jmpq   c9a2 <func_1+0x31ed>
    c6c7:	48 8b 85 f8 e3 ff ff 	mov    -0x1c08(%rbp),%rax
    c6ce:	e9 cf 02 00 00       	jmpq   c9a2 <func_1+0x31ed>
    c6d3:	c7 85 48 e3 ff ff dd 	movl   $0xb6a5d6dd,-0x1cb8(%rbp)
    c6da:	d6 a5 b6 
    c6dd:	48 8d 05 f4 0b 01 00 	lea    0x10bf4(%rip),%rax        # 1d2d8 <g_659+0x8>
    c6e4:	48 89 85 00 e4 ff ff 	mov    %rax,-0x1c00(%rbp)
    c6eb:	48 8d 05 86 09 01 00 	lea    0x10986(%rip),%rax        # 1d078 <g_44>
    c6f2:	48 89 85 08 e4 ff ff 	mov    %rax,-0x1bf8(%rbp)
    c6f9:	8b 85 48 e3 ff ff    	mov    -0x1cb8(%rbp),%eax
    c6ff:	0f be d8             	movsbl %al,%ebx
    c702:	8b 85 f0 e2 ff ff    	mov    -0x1d10(%rbp),%eax
    c708:	0f be c0             	movsbl %al,%eax
    c70b:	89 c6                	mov    %eax,%esi
    c70d:	bf 01 00 00 00       	mov    $0x1,%edi
    c712:	e8 fb ba ff ff       	callq  8212 <safe_mul_func_int8_t_s_s>
    c717:	84 c0                	test   %al,%al
    c719:	74 10                	je     c72b <func_1+0x2f76>
    c71b:	83 bd 48 e3 ff ff 00 	cmpl   $0x0,-0x1cb8(%rbp)
    c722:	74 07                	je     c72b <func_1+0x2f76>
    c724:	b8 01 00 00 00       	mov    $0x1,%eax
    c729:	eb 05                	jmp    c730 <func_1+0x2f7b>
    c72b:	b8 00 00 00 00       	mov    $0x0,%eax
    c730:	0f be c0             	movsbl %al,%eax
    c733:	89 de                	mov    %ebx,%esi
    c735:	89 c7                	mov    %eax,%edi
    c737:	e8 b6 ba ff ff       	callq  81f2 <safe_sub_func_int8_t_s_s>
    c73c:	0f be c0             	movsbl %al,%eax
    c73f:	be 8e ff ff ff       	mov    $0xffffff8e,%esi
    c744:	89 c7                	mov    %eax,%edi
    c746:	e8 1f bb ff ff       	callq  826a <safe_div_func_int8_t_s_s>
    c74b:	48 0f be c0          	movsbq %al,%rax
    c74f:	48 39 85 f8 e3 ff ff 	cmp    %rax,-0x1c08(%rbp)
    c756:	7c 10                	jl     c768 <func_1+0x2fb3>
    c758:	48 8b 05 01 b9 00 00 	mov    0xb901(%rip),%rax        # 18060 <g_151>
    c75f:	25 ff ff 7f 00       	and    $0x7fffff,%eax
    c764:	85 c0                	test   %eax,%eax
    c766:	74 07                	je     c76f <func_1+0x2fba>
    c768:	b8 01 00 00 00       	mov    $0x1,%eax
    c76d:	eb 05                	jmp    c774 <func_1+0x2fbf>
    c76f:	b8 00 00 00 00       	mov    $0x0,%eax
    c774:	0f b6 c0             	movzbl %al,%eax
    c777:	89 c6                	mov    %eax,%esi
    c779:	bf 40 00 00 00       	mov    $0x40,%edi
    c77e:	e8 f5 c3 ff ff       	callq  8b78 <safe_sub_func_uint8_t_u_u>
    c783:	48 83 bd f8 e3 ff ff 	cmpq   $0x1,-0x1c08(%rbp)
    c78a:	01 
    c78b:	0f 9e c0             	setle  %al
    c78e:	0f b6 c0             	movzbl %al,%eax
    c791:	39 85 48 e3 ff ff    	cmp    %eax,-0x1cb8(%rbp)
    c797:	0f 9f c0             	setg   %al
    c79a:	0f b6 c0             	movzbl %al,%eax
    c79d:	be 05 00 00 00       	mov    $0x5,%esi
    c7a2:	89 c7                	mov    %eax,%edi
    c7a4:	e8 15 c5 ff ff       	callq  8cbe <safe_rshift_func_uint8_t_u_u>
    c7a9:	48 83 bd f8 e3 ff ff 	cmpq   $0x1,-0x1c08(%rbp)
    c7b0:	01 
    c7b1:	0f 95 c0             	setne  %al
    c7b4:	0f b6 c0             	movzbl %al,%eax
    c7b7:	89 85 30 e3 ff ff    	mov    %eax,-0x1cd0(%rbp)
    c7bd:	48 8b 85 88 e3 ff ff 	mov    -0x1c78(%rbp),%rax
    c7c4:	8b 10                	mov    (%rax),%edx
    c7c6:	48 8b 85 f8 e3 ff ff 	mov    -0x1c08(%rbp),%rax
    c7cd:	89 c1                	mov    %eax,%ecx
    c7cf:	48 8b 85 88 e3 ff ff 	mov    -0x1c78(%rbp),%rax
    c7d6:	21 ca                	and    %ecx,%edx
    c7d8:	89 10                	mov    %edx,(%rax)
    c7da:	48 8b 15 0f 54 01 00 	mov    0x1540f(%rip),%rdx        # 21bf0 <g_263>
    c7e1:	48 8b 05 20 60 01 00 	mov    0x16020(%rip),%rax        # 22808 <g_1931>
    c7e8:	48 8b 12             	mov    (%rdx),%rdx
    c7eb:	48 89 10             	mov    %rdx,(%rax)
    c7ee:	48 8b 85 08 e4 ff ff 	mov    -0x1bf8(%rbp),%rax
    c7f5:	c7 00 ff ff ff ff    	movl   $0xffffffff,(%rax)
    c7fb:	48 8b 85 88 e3 ff ff 	mov    -0x1c78(%rbp),%rax
    c802:	8b 10                	mov    (%rax),%edx
    c804:	48 8b 85 88 e3 ff ff 	mov    -0x1c78(%rbp),%rax
    c80b:	23 95 30 e3 ff ff    	and    -0x1cd0(%rbp),%edx
    c811:	89 10                	mov    %edx,(%rax)
    c813:	48 83 bd a8 e3 ff ff 	cmpq   $0x0,-0x1c58(%rbp)
    c81a:	00 
    c81b:	75 32                	jne    c84f <func_1+0x309a>
    c81d:	48 8b 85 88 e3 ff ff 	mov    -0x1c78(%rbp),%rax
    c824:	8b 00                	mov    (%rax),%eax
    c826:	85 c0                	test   %eax,%eax
    c828:	0f b7 05 f5 07 01 00 	movzwl 0x107f5(%rip),%eax        # 1d024 <g_8>
    c82f:	83 c0 01             	add    $0x1,%eax
    c832:	66 89 05 eb 07 01 00 	mov    %ax,0x107eb(%rip)        # 1d024 <g_8>
    c839:	0f b7 05 e4 07 01 00 	movzwl 0x107e4(%rip),%eax        # 1d024 <g_8>
    c840:	66 83 f8 09          	cmp    $0x9,%ax
    c844:	0f 87 1d d7 ff ff    	ja     9f67 <func_1+0x7b2>
    c84a:	eb 04                	jmp    c850 <func_1+0x309b>
    c84c:	90                   	nop
    c84d:	eb 01                	jmp    c850 <func_1+0x309b>
    c84f:	90                   	nop
    c850:	8b 9d 88 e6 ff ff    	mov    -0x1978(%rbp),%ebx
    c856:	0f b7 85 56 e6 ff ff 	movzwl -0x19aa(%rbp),%eax
    c85d:	4c 0f bf e8          	movswq %ax,%r13
    c861:	48 8b 05 a8 24 01 00 	mov    0x124a8(%rip),%rax        # 1ed10 <g_1126+0x10>
    c868:	48 c1 e8 0a          	shr    $0xa,%rax
    c86c:	25 ff ff 7f 00       	and    $0x7fffff,%eax
    c871:	41 89 c6             	mov    %eax,%r14d
    c874:	48 8d 85 fc e2 ff ff 	lea    -0x1d04(%rbp),%rax
    c87b:	48 89 85 a0 e5 ff ff 	mov    %rax,-0x1a60(%rbp)
    c882:	4c 8b a5 a0 e5 ff ff 	mov    -0x1a60(%rbp),%r12
    c889:	be ce fa c3 07       	mov    $0x7c3face,%esi
    c88e:	bf 89 b8 26 33       	mov    $0x3326b889,%edi
    c893:	e8 67 be ff ff       	callq  86ff <safe_div_func_int32_t_s_s>
    c898:	48 8b 05 01 53 01 00 	mov    0x15301(%rip),%rax        # 21ba0 <g_106+0x60>
    c89f:	48 89 05 6a 5f 01 00 	mov    %rax,0x15f6a(%rip)        # 22810 <g_1953>
    c8a6:	48 8b 05 63 5f 01 00 	mov    0x15f63(%rip),%rax        # 22810 <g_1953>
    c8ad:	49 39 c4             	cmp    %rax,%r12
    c8b0:	0f 94 c0             	sete   %al
    c8b3:	0f b6 d0             	movzbl %al,%edx
    c8b6:	0f b6 85 e3 e2 ff ff 	movzbl -0x1d1d(%rbp),%eax
    c8bd:	89 d6                	mov    %edx,%esi
    c8bf:	89 c7                	mov    %eax,%edi
    c8c1:	e8 f0 bc ff ff       	callq  85b6 <safe_add_func_int32_t_s_s>
    c8c6:	48 98                	cltq   
    c8c8:	48 89 c6             	mov    %rax,%rsi
    c8cb:	48 c7 c7 fc ff ff ff 	mov    $0xfffffffffffffffc,%rdi
    c8d2:	e8 57 c7 ff ff       	callq  902e <safe_add_func_uint64_t_u_u>
    c8d7:	44 0f be e0          	movsbl %al,%r12d
    c8db:	48 8b 05 66 2d 01 00 	mov    0x12d66(%rip),%rax        # 1f648 <g_1741+0x8>
    c8e2:	48 c1 e8 18          	shr    $0x18,%rax
    c8e6:	25 ff ff ff 00       	and    $0xffffff,%eax
    c8eb:	0f be c0             	movsbl %al,%eax
    c8ee:	be 07 00 00 00       	mov    $0x7,%esi
    c8f3:	89 c7                	mov    %eax,%edi
    c8f5:	e8 3b ba ff ff       	callq  8335 <safe_rshift_func_int8_t_s_s>
    c8fa:	0f be c0             	movsbl %al,%eax
    c8fd:	44 89 e6             	mov    %r12d,%esi
    c900:	89 c7                	mov    %eax,%edi
    c902:	e8 0b b9 ff ff       	callq  8212 <safe_mul_func_int8_t_s_s>
    c907:	84 c0                	test   %al,%al
    c909:	74 11                	je     c91c <func_1+0x3167>
    c90b:	8b 85 9c e6 ff ff    	mov    -0x1964(%rbp),%eax
    c911:	85 c0                	test   %eax,%eax
    c913:	74 07                	je     c91c <func_1+0x3167>
    c915:	b8 01 00 00 00       	mov    $0x1,%eax
    c91a:	eb 05                	jmp    c921 <func_1+0x316c>
    c91c:	b8 00 00 00 00       	mov    $0x0,%eax
    c921:	85 c0                	test   %eax,%eax
    c923:	74 19                	je     c93e <func_1+0x3189>
    c925:	48 8b 05 24 54 01 00 	mov    0x15424(%rip),%rax        # 21d50 <g_436>
    c92c:	48 8b 00             	mov    (%rax),%rax
    c92f:	0f b7 00             	movzwl (%rax),%eax
    c932:	66 85 c0             	test   %ax,%ax
    c935:	74 07                	je     c93e <func_1+0x3189>
    c937:	b8 01 00 00 00       	mov    $0x1,%eax
    c93c:	eb 05                	jmp    c943 <func_1+0x318e>
    c93e:	b8 00 00 00 00       	mov    $0x0,%eax
    c943:	48 98                	cltq   
    c945:	48 89 c7             	mov    %rax,%rdi
    c948:	e8 c9 be ff ff       	callq  8816 <safe_unary_minus_func_int64_t_s>
    c94d:	48 8b 05 24 54 01 00 	mov    0x15424(%rip),%rax        # 21d78 <g_511>
    c954:	48 8b 00             	mov    (%rax),%rax
    c957:	48 8b 00             	mov    (%rax),%rax
    c95a:	48 39 85 c0 e3 ff ff 	cmp    %rax,-0x1c40(%rbp)
    c961:	0f 94 c0             	sete   %al
    c964:	0f b6 c0             	movzbl %al,%eax
    c967:	4c 89 f6             	mov    %r14,%rsi
    c96a:	48 89 c7             	mov    %rax,%rdi
    c96d:	e8 3d c7 ff ff       	callq  90af <safe_div_func_uint64_t_u_u>
    c972:	49 39 c5             	cmp    %rax,%r13
    c975:	0f 94 c0             	sete   %al
    c978:	0f b6 c0             	movzbl %al,%eax
    c97b:	89 de                	mov    %ebx,%esi
    c97d:	89 c7                	mov    %eax,%edi
    c97f:	e8 e8 b9 ff ff       	callq  836c <safe_rshift_func_int8_t_s_u>
    c984:	48 8b 95 d0 e3 ff ff 	mov    -0x1c30(%rbp),%rdx
    c98b:	8b 12                	mov    (%rdx),%edx
    c98d:	0f be c0             	movsbl %al,%eax
    c990:	21 c2                	and    %eax,%edx
    c992:	48 8b 85 d0 e3 ff ff 	mov    -0x1c30(%rbp),%rax
    c999:	89 10                	mov    %edx,(%rax)
    c99b:	0f b6 85 e4 e2 ff ff 	movzbl -0x1d1c(%rbp),%eax
    c9a2:	48 8b 4d c8          	mov    -0x38(%rbp),%rcx
    c9a6:	64 48 33 0c 25 28 00 	xor    %fs:0x28,%rcx
    c9ad:	00 00 
    c9af:	74 05                	je     c9b6 <func_1+0x3201>
    c9b1:	e8 ba b6 ff ff       	callq  8070 <__stack_chk_fail@plt>
    c9b6:	48 81 c4 08 1d 00 00 	add    $0x1d08,%rsp
    c9bd:	5b                   	pop    %rbx
    c9be:	41 5c                	pop    %r12
    c9c0:	41 5d                	pop    %r13
    c9c2:	41 5e                	pop    %r14
    c9c4:	41 5f                	pop    %r15
    c9c6:	5d                   	pop    %rbp
    c9c7:	c3                   	retq   

000000000000c9c8 <func_46>:
    c9c8:	f3 0f 1e fa          	endbr64 
    c9cc:	55                   	push   %rbp
    c9cd:	48 89 e5             	mov    %rsp,%rbp
    c9d0:	89 f8                	mov    %edi,%eax
    c9d2:	48 89 75 e0          	mov    %rsi,-0x20(%rbp)
    c9d6:	48 89 55 d8          	mov    %rdx,-0x28(%rbp)
    c9da:	89 4d e8             	mov    %ecx,-0x18(%rbp)
    c9dd:	88 45 ec             	mov    %al,-0x14(%rbp)
    c9e0:	48 8d 05 11 28 01 00 	lea    0x12811(%rip),%rax        # 1f1f8 <g_1450+0x358>
    c9e7:	48 89 45 f8          	mov    %rax,-0x8(%rbp)
    c9eb:	48 8b 45 f8          	mov    -0x8(%rbp),%rax
    c9ef:	5d                   	pop    %rbp
    c9f0:	c3                   	retq   

000000000000c9f1 <func_51>:
    c9f1:	f3 0f 1e fa          	endbr64 
    c9f5:	55                   	push   %rbp
    c9f6:	48 89 e5             	mov    %rsp,%rbp
    c9f9:	41 56                	push   %r14
    c9fb:	41 55                	push   %r13
    c9fd:	41 54                	push   %r12
    c9ff:	53                   	push   %rbx
    ca00:	48 81 ec b0 0e 00 00 	sub    $0xeb0,%rsp
    ca07:	89 f8                	mov    %edi,%eax
    ca09:	48 89 b5 30 f1 ff ff 	mov    %rsi,-0xed0(%rbp)
    ca10:	88 85 3c f1 ff ff    	mov    %al,-0xec4(%rbp)
    ca16:	64 48 8b 04 25 28 00 	mov    %fs:0x28,%rax
    ca1d:	00 00 
    ca1f:	48 89 45 d8          	mov    %rax,-0x28(%rbp)
    ca23:	31 c0                	xor    %eax,%eax
    ca25:	48 8d 05 fc 05 01 00 	lea    0x105fc(%rip),%rax        # 1d028 <g_10>
    ca2c:	48 89 85 e8 f1 ff ff 	mov    %rax,-0xe18(%rbp)
    ca33:	c7 85 70 f1 ff ff 00 	movl   $0x0,-0xe90(%rbp)
    ca3a:	00 00 00 
    ca3d:	c7 85 5c f1 ff ff 00 	movl   $0x0,-0xea4(%rbp)
    ca44:	00 00 00 
    ca47:	48 c7 85 f0 f1 ff ff 	movq   $0x0,-0xe10(%rbp)
    ca4e:	00 00 00 00 
    ca52:	66 c7 85 52 f1 ff ff 	movw   $0x86a4,-0xeae(%rbp)
    ca59:	a4 86 
    ca5b:	c7 85 74 f1 ff ff 6a 	movl   $0x144cbd6a,-0xe8c(%rbp)
    ca62:	bd 4c 14 
    ca65:	48 c7 85 f8 f1 ff ff 	movq   $0xfffffffffffffffc,-0xe08(%rbp)
    ca6c:	fc ff ff ff 
    ca70:	c7 85 78 f1 ff ff b3 	movl   $0x5d1fb3,-0xe88(%rbp)
    ca77:	1f 5d 00 
    ca7a:	48 c7 85 00 f2 ff ff 	movq   $0x0,-0xe00(%rbp)
    ca81:	00 00 00 00 
    ca85:	48 8d 05 7f 08 01 00 	lea    0x1087f(%rip),%rax        # 1d30b <g_801+0x3>
    ca8c:	48 89 85 08 f2 ff ff 	mov    %rax,-0xdf8(%rbp)
    ca93:	c6 85 4b f1 ff ff ec 	movb   $0xec,-0xeb5(%rbp)
    ca9a:	66 c7 85 50 f1 ff ff 	movw   $0x5,-0xeb0(%rbp)
    caa1:	05 00 
    caa3:	48 8d 85 90 fa ff ff 	lea    -0x570(%rbp),%rax
    caaa:	48 8d 15 ef 34 01 00 	lea    0x134ef(%rip),%rdx        # 1ffa0 <g_1954+0x600>
    cab1:	b9 a8 00 00 00       	mov    $0xa8,%ecx
    cab6:	48 89 c7             	mov    %rax,%rdi
    cab9:	48 89 d6             	mov    %rdx,%rsi
    cabc:	f3 48 a5             	rep movsq %ds:(%rsi),%es:(%rdi)
    cabf:	48 8d 85 50 f6 ff ff 	lea    -0x9b0(%rbp),%rax
    cac6:	48 8d 15 b3 bc 00 00 	lea    0xbcb3(%rip),%rdx        # 18780 <g_1750+0x6e0>
    cacd:	b9 87 00 00 00       	mov    $0x87,%ecx
    cad2:	48 89 c7             	mov    %rax,%rdi
    cad5:	48 89 d6             	mov    %rdx,%rsi
    cad8:	f3 48 a5             	rep movsq %ds:(%rsi),%es:(%rdi)
    cadb:	c7 85 7c f1 ff ff c2 	movl   $0xc4d3dec2,-0xe84(%rbp)
    cae2:	de d3 c4 
    cae5:	c7 85 80 f1 ff ff 01 	movl   $0x1,-0xe80(%rbp)
    caec:	00 00 00 
    caef:	c7 85 84 f1 ff ff 00 	movl   $0x0,-0xe7c(%rbp)
    caf6:	00 00 00 
    caf9:	c7 85 88 f1 ff ff 00 	movl   $0x0,-0xe78(%rbp)
    cb00:	00 00 00 
    cb03:	c7 85 8c f1 ff ff 77 	movl   $0xf97b9577,-0xe74(%rbp)
    cb0a:	95 7b f9 
    cb0d:	c7 85 90 f1 ff ff f6 	movl   $0xc581aaf6,-0xe70(%rbp)
    cb14:	aa 81 c5 
    cb17:	c7 85 94 f1 ff ff fa 	movl   $0xfffffffa,-0xe6c(%rbp)
    cb1e:	ff ff ff 
    cb21:	c7 85 98 f1 ff ff 4b 	movl   $0xf029dd4b,-0xe68(%rbp)
    cb28:	dd 29 f0 
    cb2b:	c7 85 64 f1 ff ff 5c 	movl   $0x1b84ca5c,-0xe9c(%rbp)
    cb32:	ca 84 1b 
    cb35:	c7 85 60 f1 ff ff 00 	movl   $0x0,-0xea0(%rbp)
    cb3c:	00 00 00 
    cb3f:	c7 85 9c f1 ff ff 04 	movl   $0x4,-0xe64(%rbp)
    cb46:	00 00 00 
    cb49:	48 8d 05 bb 07 01 00 	lea    0x107bb(%rip),%rax        # 1d30b <g_801+0x3>
    cb50:	48 89 85 b0 f1 ff ff 	mov    %rax,-0xe50(%rbp)
    cb57:	48 8d 05 ec 04 01 00 	lea    0x104ec(%rip),%rax        # 1d04a <g_31+0xa>
    cb5e:	48 89 85 10 f2 ff ff 	mov    %rax,-0xdf0(%rbp)
    cb65:	48 8d 05 9f 07 01 00 	lea    0x1079f(%rip),%rax        # 1d30b <g_801+0x3>
    cb6c:	48 89 85 b8 f1 ff ff 	mov    %rax,-0xe48(%rbp)
    cb73:	48 8d 05 91 07 01 00 	lea    0x10791(%rip),%rax        # 1d30b <g_801+0x3>
    cb7a:	48 89 85 18 f2 ff ff 	mov    %rax,-0xde8(%rbp)
    cb81:	48 8d 05 c2 04 01 00 	lea    0x104c2(%rip),%rax        # 1d04a <g_31+0xa>
    cb88:	48 89 85 20 f2 ff ff 	mov    %rax,-0xde0(%rbp)
    cb8f:	48 c7 85 28 f2 ff ff 	movq   $0x0,-0xdd8(%rbp)
    cb96:	00 00 00 00 
    cb9a:	48 8d 05 67 07 01 00 	lea    0x10767(%rip),%rax        # 1d308 <g_801>
    cba1:	48 89 85 c0 f1 ff ff 	mov    %rax,-0xe40(%rbp)
    cba8:	48 8d 85 c0 f1 ff ff 	lea    -0xe40(%rbp),%rax
    cbaf:	48 89 85 30 f5 ff ff 	mov    %rax,-0xad0(%rbp)
    cbb6:	48 8d 85 b0 f1 ff ff 	lea    -0xe50(%rbp),%rax
    cbbd:	48 89 85 38 f5 ff ff 	mov    %rax,-0xac8(%rbp)
    cbc4:	48 8d 85 c0 f1 ff ff 	lea    -0xe40(%rbp),%rax
    cbcb:	48 89 85 40 f5 ff ff 	mov    %rax,-0xac0(%rbp)
    cbd2:	48 8d 85 b0 f1 ff ff 	lea    -0xe50(%rbp),%rax
    cbd9:	48 89 85 48 f5 ff ff 	mov    %rax,-0xab8(%rbp)
    cbe0:	48 8d 85 c0 f1 ff ff 	lea    -0xe40(%rbp),%rax
    cbe7:	48 89 85 50 f5 ff ff 	mov    %rax,-0xab0(%rbp)
    cbee:	48 8d 85 b0 f1 ff ff 	lea    -0xe50(%rbp),%rax
    cbf5:	48 89 85 58 f5 ff ff 	mov    %rax,-0xaa8(%rbp)
    cbfc:	48 8d 85 b8 f1 ff ff 	lea    -0xe48(%rbp),%rax
    cc03:	48 89 85 60 f5 ff ff 	mov    %rax,-0xaa0(%rbp)
    cc0a:	48 8d 85 b0 f1 ff ff 	lea    -0xe50(%rbp),%rax
    cc11:	48 89 85 68 f5 ff ff 	mov    %rax,-0xa98(%rbp)
    cc18:	48 8d 85 b8 f1 ff ff 	lea    -0xe48(%rbp),%rax
    cc1f:	48 89 85 70 f5 ff ff 	mov    %rax,-0xa90(%rbp)
    cc26:	48 8d 85 b0 f1 ff ff 	lea    -0xe50(%rbp),%rax
    cc2d:	48 89 85 78 f5 ff ff 	mov    %rax,-0xa88(%rbp)
    cc34:	48 8d 85 b8 f1 ff ff 	lea    -0xe48(%rbp),%rax
    cc3b:	48 89 85 80 f5 ff ff 	mov    %rax,-0xa80(%rbp)
    cc42:	48 8d 85 b0 f1 ff ff 	lea    -0xe50(%rbp),%rax
    cc49:	48 89 85 88 f5 ff ff 	mov    %rax,-0xa78(%rbp)
    cc50:	48 8d 85 c0 f1 ff ff 	lea    -0xe40(%rbp),%rax
    cc57:	48 89 85 90 f5 ff ff 	mov    %rax,-0xa70(%rbp)
    cc5e:	48 8d 85 b0 f1 ff ff 	lea    -0xe50(%rbp),%rax
    cc65:	48 89 85 98 f5 ff ff 	mov    %rax,-0xa68(%rbp)
    cc6c:	48 8d 85 c0 f1 ff ff 	lea    -0xe40(%rbp),%rax
    cc73:	48 89 85 a0 f5 ff ff 	mov    %rax,-0xa60(%rbp)
    cc7a:	48 8d 85 b0 f1 ff ff 	lea    -0xe50(%rbp),%rax
    cc81:	48 89 85 a8 f5 ff ff 	mov    %rax,-0xa58(%rbp)
    cc88:	48 8d 85 c0 f1 ff ff 	lea    -0xe40(%rbp),%rax
    cc8f:	48 89 85 b0 f5 ff ff 	mov    %rax,-0xa50(%rbp)
    cc96:	48 8d 85 b0 f1 ff ff 	lea    -0xe50(%rbp),%rax
    cc9d:	48 89 85 b8 f5 ff ff 	mov    %rax,-0xa48(%rbp)
    cca4:	48 8d 85 b8 f1 ff ff 	lea    -0xe48(%rbp),%rax
    ccab:	48 89 85 c0 f5 ff ff 	mov    %rax,-0xa40(%rbp)
    ccb2:	48 8d 85 b0 f1 ff ff 	lea    -0xe50(%rbp),%rax
    ccb9:	48 89 85 c8 f5 ff ff 	mov    %rax,-0xa38(%rbp)
    ccc0:	48 8d 85 b8 f1 ff ff 	lea    -0xe48(%rbp),%rax
    ccc7:	48 89 85 d0 f5 ff ff 	mov    %rax,-0xa30(%rbp)
    ccce:	48 8d 85 b0 f1 ff ff 	lea    -0xe50(%rbp),%rax
    ccd5:	48 89 85 d8 f5 ff ff 	mov    %rax,-0xa28(%rbp)
    ccdc:	48 8d 85 b8 f1 ff ff 	lea    -0xe48(%rbp),%rax
    cce3:	48 89 85 e0 f5 ff ff 	mov    %rax,-0xa20(%rbp)
    ccea:	48 8d 85 b0 f1 ff ff 	lea    -0xe50(%rbp),%rax
    ccf1:	48 89 85 e8 f5 ff ff 	mov    %rax,-0xa18(%rbp)
    ccf8:	48 8d 85 c0 f1 ff ff 	lea    -0xe40(%rbp),%rax
    ccff:	48 89 85 f0 f5 ff ff 	mov    %rax,-0xa10(%rbp)
    cd06:	48 8d 85 b0 f1 ff ff 	lea    -0xe50(%rbp),%rax
    cd0d:	48 89 85 f8 f5 ff ff 	mov    %rax,-0xa08(%rbp)
    cd14:	48 8d 85 c0 f1 ff ff 	lea    -0xe40(%rbp),%rax
    cd1b:	48 89 85 00 f6 ff ff 	mov    %rax,-0xa00(%rbp)
    cd22:	48 8d 85 b0 f1 ff ff 	lea    -0xe50(%rbp),%rax
    cd29:	48 89 85 08 f6 ff ff 	mov    %rax,-0x9f8(%rbp)
    cd30:	48 8d 85 c0 f1 ff ff 	lea    -0xe40(%rbp),%rax
    cd37:	48 89 85 10 f6 ff ff 	mov    %rax,-0x9f0(%rbp)
    cd3e:	48 8d 85 b0 f1 ff ff 	lea    -0xe50(%rbp),%rax
    cd45:	48 89 85 18 f6 ff ff 	mov    %rax,-0x9e8(%rbp)
    cd4c:	48 8d 85 b8 f1 ff ff 	lea    -0xe48(%rbp),%rax
    cd53:	48 89 85 20 f6 ff ff 	mov    %rax,-0x9e0(%rbp)
    cd5a:	48 8d 85 b0 f1 ff ff 	lea    -0xe50(%rbp),%rax
    cd61:	48 89 85 28 f6 ff ff 	mov    %rax,-0x9d8(%rbp)
    cd68:	48 8d 85 b8 f1 ff ff 	lea    -0xe48(%rbp),%rax
    cd6f:	48 89 85 30 f6 ff ff 	mov    %rax,-0x9d0(%rbp)
    cd76:	48 8d 85 b0 f1 ff ff 	lea    -0xe50(%rbp),%rax
    cd7d:	48 89 85 38 f6 ff ff 	mov    %rax,-0x9c8(%rbp)
    cd84:	48 8d 85 b8 f1 ff ff 	lea    -0xe48(%rbp),%rax
    cd8b:	48 89 85 40 f6 ff ff 	mov    %rax,-0x9c0(%rbp)
    cd92:	48 8d 85 b0 f1 ff ff 	lea    -0xe50(%rbp),%rax
    cd99:	48 89 85 48 f6 ff ff 	mov    %rax,-0x9b8(%rbp)
    cda0:	48 8d 85 30 f5 ff ff 	lea    -0xad0(%rbp),%rax
    cda7:	48 05 f0 00 00 00    	add    $0xf0,%rax
    cdad:	48 89 85 30 f2 ff ff 	mov    %rax,-0xdd0(%rbp)
    cdb4:	48 c7 85 c8 f1 ff ff 	movq   $0x0,-0xe38(%rbp)
    cdbb:	00 00 00 00 
    cdbf:	48 8d 85 c8 f1 ff ff 	lea    -0xe38(%rbp),%rax
    cdc6:	48 89 85 38 f2 ff ff 	mov    %rax,-0xdc8(%rbp)
    cdcd:	c7 85 a0 f1 ff ff 92 	movl   $0x16a58792,-0xe60(%rbp)
    cdd4:	87 a5 16 
    cdd7:	c7 85 20 f3 ff ff ff 	movl   $0xb00e7ff,-0xce0(%rbp)
    cdde:	e7 00 0b 
    cde1:	66 c7 85 24 f3 ff ff 	movw   $0xb,-0xcdc(%rbp)
    cde8:	0b 00 
    cdea:	c7 85 26 f3 ff ff d4 	movl   $0xb03d4d4,-0xcda(%rbp)
    cdf1:	d4 03 0b 
    cdf4:	66 c7 85 2a f3 ff ff 	movw   $0x5ce7,-0xcd6(%rbp)
    cdfb:	e7 5c 
    cdfd:	c7 85 2c f3 ff ff ff 	movl   $0x5cff03ff,-0xcd4(%rbp)
    ce04:	03 ff 5c 
    ce07:	66 c7 85 30 f3 ff ff 	movw   $0x3ff,-0xcd0(%rbp)
    ce0e:	ff 03 
    ce10:	c7 85 32 f3 ff ff 9f 	movl   $0x300c69f,-0xcce(%rbp)
    ce17:	c6 00 03 
    ce1a:	66 c7 85 36 f3 ff ff 	movw   $0xff5c,-0xcca(%rbp)
    ce21:	5c ff 
    ce23:	c7 85 38 f3 ff ff 0b 	movl   $0xd4d4030b,-0xcc8(%rbp)
    ce2a:	03 d4 d4 
    ce2d:	66 c7 85 3c f3 ff ff 	movw   $0xb03,-0xcc4(%rbp)
    ce34:	03 0b 
    ce36:	c7 85 3e f3 ff ff d4 	movl   $0xe70b03d4,-0xcc2(%rbp)
    ce3d:	03 0b e7 
    ce40:	66 c7 85 42 f3 ff ff 	movw   $0x5c,-0xcbe(%rbp)
    ce47:	5c 00 
    ce49:	c7 85 44 f3 ff ff 00 	movl   $0xc69fc600,-0xcbc(%rbp)
    ce50:	c6 9f c6 
    ce53:	66 c7 85 48 f3 ff ff 	movw   $0x300,-0xcb8(%rbp)
    ce5a:	00 03 
    ce5c:	c7 85 4a f3 ff ff 00 	movl   $0xe7c6d400,-0xcb6(%rbp)
    ce63:	d4 c6 e7 
    ce66:	66 c7 85 4e f3 ff ff 	movw   $0xffff,-0xcb2(%rbp)
    ce6d:	ff ff 
    ce6f:	c7 85 50 f3 ff ff d4 	movl   $0xd45c5cd4,-0xcb0(%rbp)
    ce76:	5c 5c d4 
    ce79:	66 c7 85 54 f3 ff ff 	movw   $0xff9f,-0xcac(%rbp)
    ce80:	9f ff 
    ce82:	c7 85 a4 f1 ff ff fe 	movl   $0xfffffffe,-0xe5c(%rbp)
    ce89:	ff ff ff 
    ce8c:	48 c7 85 d0 f1 ff ff 	movq   $0x0,-0xe30(%rbp)
    ce93:	00 00 00 00 
    ce97:	48 8d 85 d0 f1 ff ff 	lea    -0xe30(%rbp),%rax
    ce9e:	48 89 85 40 f2 ff ff 	mov    %rax,-0xdc0(%rbp)
    cea5:	48 8d 05 c4 5d 01 00 	lea    0x15dc4(%rip),%rax        # 22c70 <g_516>
    ceac:	48 89 85 d8 f1 ff ff 	mov    %rax,-0xe28(%rbp)
    ceb3:	48 8d 85 d8 f1 ff ff 	lea    -0xe28(%rbp),%rax
    ceba:	48 89 85 48 f2 ff ff 	mov    %rax,-0xdb8(%rbp)
    cec1:	c7 85 68 f1 ff ff 00 	movl   $0x0,-0xe98(%rbp)
    cec8:	00 00 00 
    cecb:	eb 1e                	jmp    ceeb <func_51+0x4fa>
    cecd:	8b 85 68 f1 ff ff    	mov    -0xe98(%rbp),%eax
    ced3:	48 98                	cltq   
    ced5:	48 8d 15 5c 24 01 00 	lea    0x1245c(%rip),%rdx        # 1f338 <g_1452>
    cedc:	48 89 94 c5 00 f3 ff 	mov    %rdx,-0xd00(%rbp,%rax,8)
    cee3:	ff 
    cee4:	83 85 68 f1 ff ff 01 	addl   $0x1,-0xe98(%rbp)
    ceeb:	83 bd 68 f1 ff ff 02 	cmpl   $0x2,-0xe98(%rbp)
    cef2:	7e d9                	jle    cecd <func_51+0x4dc>
    cef4:	c7 05 82 01 01 00 00 	movl   $0x0,0x10182(%rip)        # 1d080 <g_55>
    cefb:	00 00 00 
    cefe:	e9 bd 00 00 00       	jmpq   cfc0 <func_51+0x5cf>
    cf03:	c6 85 4f f1 ff ff ee 	movb   $0xee,-0xeb1(%rbp)
    cf0a:	48 8d 05 17 01 01 00 	lea    0x10117(%rip),%rax        # 1d028 <g_10>
    cf11:	48 89 85 d0 f2 ff ff 	mov    %rax,-0xd30(%rbp)
    cf18:	48 8d 05 e1 03 01 00 	lea    0x103e1(%rip),%rax        # 1d300 <g_794>
    cf1f:	48 89 85 d8 f2 ff ff 	mov    %rax,-0xd28(%rbp)
    cf26:	c7 85 a8 f1 ff ff 8f 	movl   $0xc50a9b8f,-0xe58(%rbp)
    cf2d:	9b 0a c5 
    cf30:	48 8d 05 e9 4b 01 00 	lea    0x14be9(%rip),%rax        # 21b20 <g_54>
    cf37:	48 89 85 e0 f2 ff ff 	mov    %rax,-0xd20(%rbp)
    cf3e:	48 8d 05 c6 03 01 00 	lea    0x103c6(%rip),%rax        # 1d30b <g_801+0x3>
    cf45:	48 89 85 e8 f2 ff ff 	mov    %rax,-0xd18(%rbp)
    cf4c:	48 8d 05 15 4e 01 00 	lea    0x14e15(%rip),%rax        # 21d68 <g_513>
    cf53:	48 89 85 f0 f2 ff ff 	mov    %rax,-0xd10(%rbp)
    cf5a:	48 b8 e2 48 b5 13 ce 	movabs $0x53cd9ece13b548e2,%rax
    cf61:	9e cd 53 
    cf64:	48 89 85 f8 f2 ff ff 	mov    %rax,-0xd08(%rbp)
    cf6b:	66 c7 85 5a f1 ff ff 	movw   $0xaa1,-0xea6(%rbp)
    cf72:	a1 0a 
    cf74:	c7 85 ac f1 ff ff ef 	movl   $0x2b572aef,-0xe54(%rbp)
    cf7b:	2a 57 2b 
    cf7e:	c7 85 6c f1 ff ff 00 	movl   $0x0,-0xe94(%rbp)
    cf85:	00 00 00 
    cf88:	eb 1e                	jmp    cfa8 <func_51+0x5b7>
    cf8a:	8b 85 6c f1 ff ff    	mov    -0xe94(%rbp),%eax
    cf90:	48 98                	cltq   
    cf92:	48 8d 15 d1 02 01 00 	lea    0x102d1(%rip),%rdx        # 1d26a <g_406>
    cf99:	48 89 94 c5 70 f4 ff 	mov    %rdx,-0xb90(%rbp,%rax,8)
    cfa0:	ff 
    cfa1:	83 85 6c f1 ff ff 01 	addl   $0x1,-0xe94(%rbp)
    cfa8:	83 bd 6c f1 ff ff 05 	cmpl   $0x5,-0xe94(%rbp)
    cfaf:	7e d9                	jle    cf8a <func_51+0x599>
    cfb1:	8b 05 c9 00 01 00    	mov    0x100c9(%rip),%eax        # 1d080 <g_55>
    cfb7:	83 c0 01             	add    $0x1,%eax
    cfba:	89 05 c0 00 01 00    	mov    %eax,0x100c0(%rip)        # 1d080 <g_55>
    cfc0:	8b 05 ba 00 01 00    	mov    0x100ba(%rip),%eax        # 1d080 <g_55>
    cfc6:	83 f8 0a             	cmp    $0xa,%eax
    cfc9:	0f 84 34 ff ff ff    	je     cf03 <func_51+0x512>
    cfcf:	0f be 9d 3c f1 ff ff 	movsbl -0xec4(%rbp),%ebx
    cfd6:	48 8b 05 73 4d 01 00 	mov    0x14d73(%rip),%rax        # 21d50 <g_436>
    cfdd:	48 8b 00             	mov    (%rax),%rax
    cfe0:	0f b7 00             	movzwl (%rax),%eax
    cfe3:	44 0f b7 e0          	movzwl %ax,%r12d
    cfe7:	83 bd 74 f1 ff ff 00 	cmpl   $0x0,-0xe8c(%rbp)
    cfee:	0f 84 d8 00 00 00    	je     d0cc <func_51+0x6db>
    cff4:	48 8b 05 55 4d 01 00 	mov    0x14d55(%rip),%rax        # 21d50 <g_436>
    cffb:	48 8b 00             	mov    (%rax),%rax
    cffe:	44 0f be ad 4b f1 ff 	movsbl -0xeb5(%rbp),%r13d
    d005:	ff 
    d006:	83 bd 70 f1 ff ff 00 	cmpl   $0x0,-0xe90(%rbp)
    d00d:	74 3e                	je     d04d <func_51+0x65c>
    d00f:	80 bd 3c f1 ff ff 00 	cmpb   $0x0,-0xec4(%rbp)
    d016:	75 16                	jne    d02e <func_51+0x63d>
    d018:	48 8b 05 39 56 01 00 	mov    0x15639(%rip),%rax        # 22658 <g_979>
    d01f:	48 8b 10             	mov    (%rax),%rdx
    d022:	0f b6 02             	movzbl (%rdx),%eax
    d025:	8d 48 ff             	lea    -0x1(%rax),%ecx
    d028:	88 0a                	mov    %cl,(%rdx)
    d02a:	84 c0                	test   %al,%al
    d02c:	74 07                	je     d035 <func_51+0x644>
    d02e:	ba 01 00 00 00       	mov    $0x1,%edx
    d033:	eb 05                	jmp    d03a <func_51+0x649>
    d035:	ba 00 00 00 00       	mov    $0x0,%edx
    d03a:	0f be 85 3c f1 ff ff 	movsbl -0xec4(%rbp),%eax
    d041:	39 c2                	cmp    %eax,%edx
    d043:	74 08                	je     d04d <func_51+0x65c>
    d045:	41 be 01 00 00 00    	mov    $0x1,%r14d
    d04b:	eb 06                	jmp    d053 <func_51+0x662>
    d04d:	41 be 00 00 00 00    	mov    $0x0,%r14d
    d053:	8b 85 78 f1 ff ff    	mov    -0xe88(%rbp),%eax
    d059:	89 c6                	mov    %eax,%esi
    d05b:	bf 00 00 00 00       	mov    $0x0,%edi
    d060:	e8 59 bd ff ff       	callq  8dbe <safe_lshift_func_uint16_t_u_s>
    d065:	0f b7 d0             	movzwl %ax,%edx
    d068:	0f bf 85 52 f1 ff ff 	movswl -0xeae(%rbp),%eax
    d06f:	09 d0                	or     %edx,%eax
    d071:	83 f8 fc             	cmp    $0xfffffffc,%eax
    d074:	0f 9d c0             	setge  %al
    d077:	0f b6 c0             	movzbl %al,%eax
    d07a:	41 39 c6             	cmp    %eax,%r14d
    d07d:	0f 9d c0             	setge  %al
    d080:	0f b6 d0             	movzbl %al,%edx
    d083:	0f be 85 3c f1 ff ff 	movsbl -0xec4(%rbp),%eax
    d08a:	39 c2                	cmp    %eax,%edx
    d08c:	0f 9f c0             	setg   %al
    d08f:	89 c2                	mov    %eax,%edx
    d091:	48 8b 85 08 f2 ff ff 	mov    -0xdf8(%rbp),%rax
    d098:	88 10                	mov    %dl,(%rax)
    d09a:	48 8b 85 08 f2 ff ff 	mov    -0xdf8(%rbp),%rax
    d0a1:	0f b6 00             	movzbl (%rax),%eax
    d0a4:	0f b6 c0             	movzbl %al,%eax
    d0a7:	48 39 85 f8 f1 ff ff 	cmp    %rax,-0xe08(%rbp)
    d0ae:	80 bd 3c f1 ff ff 59 	cmpb   $0x59,-0xec4(%rbp)
    d0b5:	0f 95 c0             	setne  %al
    d0b8:	0f b6 c0             	movzbl %al,%eax
    d0bb:	44 89 ee             	mov    %r13d,%esi
    d0be:	89 c7                	mov    %eax,%edi
    d0c0:	e8 70 b2 ff ff       	callq  8335 <safe_rshift_func_int8_t_s_s>
    d0c5:	b8 01 00 00 00       	mov    $0x1,%eax
    d0ca:	eb 05                	jmp    d0d1 <func_51+0x6e0>
    d0cc:	b8 00 00 00 00       	mov    $0x0,%eax
    d0d1:	48 98                	cltq   
    d0d3:	48 89 85 00 f8 ff ff 	mov    %rax,-0x800(%rbp)
    d0da:	44 89 e6             	mov    %r12d,%esi
    d0dd:	bf 01 00 00 00       	mov    $0x1,%edi
    d0e2:	e8 fa b3 ff ff       	callq  84e1 <safe_lshift_func_int16_t_s_u>
    d0e7:	0f b7 c0             	movzwl %ax,%eax
    d0ea:	89 de                	mov    %ebx,%esi
    d0ec:	89 c7                	mov    %eax,%edi
    d0ee:	e8 cb bc ff ff       	callq  8dbe <safe_lshift_func_uint16_t_u_s>
    d0f3:	66 85 c0             	test   %ax,%ax
    d0f6:	74 0e                	je     d106 <func_51+0x715>
    d0f8:	48 8b 05 31 55 01 00 	mov    0x15531(%rip),%rax        # 22630 <g_958>
    d0ff:	8b 00                	mov    (%rax),%eax
    d101:	e9 bd 06 00 00       	jmpq   d7c3 <func_51+0xdd2>
    d106:	48 8b 05 83 55 01 00 	mov    0x15583(%rip),%rax        # 22690 <g_1386>
    d10d:	48 8d 15 7c 5b 01 00 	lea    0x15b7c(%rip),%rdx        # 22c90 <g_1307>
    d114:	48 89 10             	mov    %rdx,(%rax)
    d117:	c6 85 4b f1 ff ff 00 	movb   $0x0,-0xeb5(%rbp)
    d11e:	e9 8a 06 00 00       	jmpq   d7ad <func_51+0xdbc>
    d123:	48 8d 05 56 ff 00 00 	lea    0xff56(%rip),%rax        # 1d080 <g_55>
    d12a:	48 89 85 50 f2 ff ff 	mov    %rax,-0xdb0(%rbp)
    d131:	48 8d 05 18 5b 01 00 	lea    0x15b18(%rip),%rax        # 22c50 <g_22>
    d138:	48 89 85 58 f2 ff ff 	mov    %rax,-0xda8(%rbp)
    d13f:	48 8d 85 5c f1 ff ff 	lea    -0xea4(%rbp),%rax
    d146:	48 89 85 60 f2 ff ff 	mov    %rax,-0xda0(%rbp)
    d14d:	48 8d 05 2c ff 00 00 	lea    0xff2c(%rip),%rax        # 1d080 <g_55>
    d154:	48 89 85 68 f2 ff ff 	mov    %rax,-0xd98(%rbp)
    d15b:	48 c7 85 e0 f3 ff ff 	movq   $0x0,-0xc20(%rbp)
    d162:	00 00 00 00 
    d166:	48 c7 85 e8 f3 ff ff 	movq   $0x0,-0xc18(%rbp)
    d16d:	00 00 00 00 
    d171:	48 c7 85 f0 f3 ff ff 	movq   $0x0,-0xc10(%rbp)
    d178:	00 00 00 00 
    d17c:	48 8d 05 bd 1b 01 00 	lea    0x11bbd(%rip),%rax        # 1ed40 <g_1148>
    d183:	48 89 85 f8 f3 ff ff 	mov    %rax,-0xc08(%rbp)
    d18a:	48 8d 05 af 1b 01 00 	lea    0x11baf(%rip),%rax        # 1ed40 <g_1148>
    d191:	48 89 85 00 f4 ff ff 	mov    %rax,-0xc00(%rbp)
    d198:	48 8d 05 a1 1b 01 00 	lea    0x11ba1(%rip),%rax        # 1ed40 <g_1148>
    d19f:	48 89 85 08 f4 ff ff 	mov    %rax,-0xbf8(%rbp)
    d1a6:	48 c7 85 10 f4 ff ff 	movq   $0x0,-0xbf0(%rbp)
    d1ad:	00 00 00 00 
    d1b1:	48 c7 85 18 f4 ff ff 	movq   $0x0,-0xbe8(%rbp)
    d1b8:	00 00 00 00 
    d1bc:	48 c7 85 20 f4 ff ff 	movq   $0x0,-0xbe0(%rbp)
    d1c3:	00 00 00 00 
    d1c7:	48 8d 05 72 1b 01 00 	lea    0x11b72(%rip),%rax        # 1ed40 <g_1148>
    d1ce:	48 89 85 28 f4 ff ff 	mov    %rax,-0xbd8(%rbp)
    d1d5:	48 8d 05 64 1b 01 00 	lea    0x11b64(%rip),%rax        # 1ed40 <g_1148>
    d1dc:	48 89 85 30 f4 ff ff 	mov    %rax,-0xbd0(%rbp)
    d1e3:	48 8d 05 56 1b 01 00 	lea    0x11b56(%rip),%rax        # 1ed40 <g_1148>
    d1ea:	48 89 85 38 f4 ff ff 	mov    %rax,-0xbc8(%rbp)
    d1f1:	48 c7 85 40 f4 ff ff 	movq   $0x0,-0xbc0(%rbp)
    d1f8:	00 00 00 00 
    d1fc:	48 c7 85 48 f4 ff ff 	movq   $0x0,-0xbb8(%rbp)
    d203:	00 00 00 00 
    d207:	48 c7 85 50 f4 ff ff 	movq   $0x0,-0xbb0(%rbp)
    d20e:	00 00 00 00 
    d212:	48 8d 05 27 1b 01 00 	lea    0x11b27(%rip),%rax        # 1ed40 <g_1148>
    d219:	48 89 85 58 f4 ff ff 	mov    %rax,-0xba8(%rbp)
    d220:	48 8d 05 19 1b 01 00 	lea    0x11b19(%rip),%rax        # 1ed40 <g_1148>
    d227:	48 89 85 60 f4 ff ff 	mov    %rax,-0xba0(%rbp)
    d22e:	48 8d 05 0b 1b 01 00 	lea    0x11b0b(%rip),%rax        # 1ed40 <g_1148>
    d235:	48 89 85 68 f4 ff ff 	mov    %rax,-0xb98(%rbp)
    d23c:	c6 85 4c f1 ff ff cc 	movb   $0xcc,-0xeb4(%rbp)
    d243:	48 8d 05 36 5a 01 00 	lea    0x15a36(%rip),%rax        # 22c80 <g_708>
    d24a:	48 89 85 70 f2 ff ff 	mov    %rax,-0xd90(%rbp)
    d251:	48 c7 85 78 f2 ff ff 	movq   $0x0,-0xd88(%rbp)
    d258:	00 00 00 00 
    d25c:	48 c7 85 e0 f1 ff ff 	movq   $0x0,-0xe20(%rbp)
    d263:	00 00 00 00 
    d267:	48 8d 85 e0 f1 ff ff 	lea    -0xe20(%rbp),%rax
    d26e:	48 89 85 80 f2 ff ff 	mov    %rax,-0xd80(%rbp)
    d275:	48 8d 85 50 f1 ff ff 	lea    -0xeb0(%rbp),%rax
    d27c:	48 89 85 88 f2 ff ff 	mov    %rax,-0xd78(%rbp)
    d283:	48 c7 85 90 f2 ff ff 	movq   $0x0,-0xd70(%rbp)
    d28a:	00 00 00 00 
    d28e:	48 c7 85 98 f2 ff ff 	movq   $0xffffffffffffffff,-0xd68(%rbp)
    d295:	ff ff ff ff 
    d299:	66 c7 85 54 f1 ff ff 	movw   $0xffff,-0xeac(%rbp)
    d2a0:	ff ff 
    d2a2:	48 8d 05 a7 ff 00 00 	lea    0xffa7(%rip),%rax        # 1d250 <g_333>
    d2a9:	48 89 85 a0 f2 ff ff 	mov    %rax,-0xd60(%rbp)
    d2b0:	48 c7 85 a8 f2 ff ff 	movq   $0x0,-0xd58(%rbp)
    d2b7:	00 00 00 00 
    d2bb:	66 c7 85 56 f1 ff ff 	movw   $0xfffb,-0xeaa(%rbp)
    d2c2:	fb ff 
    d2c4:	66 c7 85 58 f1 ff ff 	movw   $0xed4c,-0xea8(%rbp)
    d2cb:	4c ed 
    d2cd:	c6 85 4d f1 ff ff b9 	movb   $0xb9,-0xeb3(%rbp)
    d2d4:	0f b7 05 bd 59 01 00 	movzwl 0x159bd(%rip),%eax        # 22c98 <g_1405>
    d2db:	83 e8 01             	sub    $0x1,%eax
    d2de:	66 89 05 b3 59 01 00 	mov    %ax,0x159b3(%rip)        # 22c98 <g_1405>
    d2e5:	c7 85 64 f1 ff ff 04 	movl   $0x4,-0xe9c(%rbp)
    d2ec:	00 00 00 
    d2ef:	e9 9c 04 00 00       	jmpq   d790 <func_51+0xd9f>
    d2f4:	c7 85 60 f3 ff ff 1a 	movl   $0xf572481a,-0xca0(%rbp)
    d2fb:	48 72 f5 
    d2fe:	c7 85 64 f3 ff ff 1a 	movl   $0xf572481a,-0xc9c(%rbp)
    d305:	48 72 f5 
    d308:	c7 85 68 f3 ff ff 46 	movl   $0x857e1946,-0xc98(%rbp)
    d30f:	19 7e 85 
    d312:	c7 85 6c f3 ff ff 01 	movl   $0x1,-0xc94(%rbp)
    d319:	00 00 00 
    d31c:	c7 85 70 f3 ff ff 46 	movl   $0x857e1946,-0xc90(%rbp)
    d323:	19 7e 85 
    d326:	c7 85 74 f3 ff ff 1a 	movl   $0xf572481a,-0xc8c(%rbp)
    d32d:	48 72 f5 
    d330:	c7 85 78 f3 ff ff 46 	movl   $0x857e1946,-0xc88(%rbp)
    d337:	19 7e 85 
    d33a:	c7 85 7c f3 ff ff 01 	movl   $0x1,-0xc84(%rbp)
    d341:	00 00 00 
    d344:	c7 85 80 f3 ff ff 01 	movl   $0x1,-0xc80(%rbp)
    d34b:	00 00 00 
    d34e:	c7 85 84 f3 ff ff 01 	movl   $0x1,-0xc7c(%rbp)
    d355:	00 00 00 
    d358:	c7 85 88 f3 ff ff 01 	movl   $0x1,-0xc78(%rbp)
    d35f:	00 00 00 
    d362:	c7 85 8c f3 ff ff 46 	movl   $0x857e1946,-0xc74(%rbp)
    d369:	19 7e 85 
    d36c:	c7 85 90 f3 ff ff 1a 	movl   $0xf572481a,-0xc70(%rbp)
    d373:	48 72 f5 
    d376:	c7 85 94 f3 ff ff 46 	movl   $0x857e1946,-0xc6c(%rbp)
    d37d:	19 7e 85 
    d380:	c7 85 98 f3 ff ff 01 	movl   $0x1,-0xc68(%rbp)
    d387:	00 00 00 
    d38a:	c7 85 9c f3 ff ff 46 	movl   $0x857e1946,-0xc64(%rbp)
    d391:	19 7e 85 
    d394:	c7 85 a0 f3 ff ff 1a 	movl   $0xf572481a,-0xc60(%rbp)
    d39b:	48 72 f5 
    d39e:	c7 85 a4 f3 ff ff 1a 	movl   $0xf572481a,-0xc5c(%rbp)
    d3a5:	48 72 f5 
    d3a8:	c7 85 a8 f3 ff ff 05 	movl   $0x5,-0xc58(%rbp)
    d3af:	00 00 00 
    d3b2:	c7 85 ac f3 ff ff 46 	movl   $0x857e1946,-0xc54(%rbp)
    d3b9:	19 7e 85 
    d3bc:	c7 85 b0 f3 ff ff 46 	movl   $0x857e1946,-0xc50(%rbp)
    d3c3:	19 7e 85 
    d3c6:	c7 85 b4 f3 ff ff 05 	movl   $0x5,-0xc4c(%rbp)
    d3cd:	00 00 00 
    d3d0:	c7 85 b8 f3 ff ff 01 	movl   $0x1,-0xc48(%rbp)
    d3d7:	00 00 00 
    d3da:	c7 85 bc f3 ff ff 05 	movl   $0x5,-0xc44(%rbp)
    d3e1:	00 00 00 
    d3e4:	c7 85 c0 f3 ff ff 05 	movl   $0x5,-0xc40(%rbp)
    d3eb:	00 00 00 
    d3ee:	c7 85 c4 f3 ff ff 01 	movl   $0x1,-0xc3c(%rbp)
    d3f5:	00 00 00 
    d3f8:	c7 85 c8 f3 ff ff 05 	movl   $0x5,-0xc38(%rbp)
    d3ff:	00 00 00 
    d402:	c7 85 cc f3 ff ff 46 	movl   $0x857e1946,-0xc34(%rbp)
    d409:	19 7e 85 
    d40c:	c7 85 d0 f3 ff ff 46 	movl   $0x857e1946,-0xc30(%rbp)
    d413:	19 7e 85 
    d416:	c7 85 d4 f3 ff ff 05 	movl   $0x5,-0xc2c(%rbp)
    d41d:	00 00 00 
    d420:	c6 85 4e f1 ff ff 7c 	movb   $0x7c,-0xeb2(%rbp)
    d427:	48 8d 05 4a 1c 01 00 	lea    0x11c4a(%rip),%rax        # 1f078 <g_1450+0x1d8>
    d42e:	48 89 85 b0 f2 ff ff 	mov    %rax,-0xd50(%rbp)
    d435:	48 8d 85 e0 f1 ff ff 	lea    -0xe20(%rbp),%rax
    d43c:	48 89 85 b8 f2 ff ff 	mov    %rax,-0xd48(%rbp)
    d443:	48 8d 85 60 f1 ff ff 	lea    -0xea0(%rbp),%rax
    d44a:	48 89 85 c0 f2 ff ff 	mov    %rax,-0xd40(%rbp)
    d451:	66 c7 85 70 f4 ff ff 	movw   $0x101,-0xb90(%rbp)
    d458:	01 01 
    d45a:	66 c7 85 72 f4 ff ff 	movw   $0xff01,-0xb8e(%rbp)
    d461:	01 ff 
    d463:	66 c7 85 74 f4 ff ff 	movw   $0xff02,-0xb8c(%rbp)
    d46a:	02 ff 
    d46c:	66 c7 85 76 f4 ff ff 	movw   $0xffff,-0xb8a(%rbp)
    d473:	ff ff 
    d475:	66 c7 85 78 f4 ff ff 	movw   $0xff02,-0xb88(%rbp)
    d47c:	02 ff 
    d47e:	66 c7 85 7a f4 ff ff 	movw   $0x101,-0xb86(%rbp)
    d485:	01 01 
    d487:	66 c7 85 7c f4 ff ff 	movw   $0xff01,-0xb84(%rbp)
    d48e:	01 ff 
    d490:	66 c7 85 7e f4 ff ff 	movw   $0xff02,-0xb82(%rbp)
    d497:	02 ff 
    d499:	66 c7 85 80 f4 ff ff 	movw   $0xffff,-0xb80(%rbp)
    d4a0:	ff ff 
    d4a2:	66 c7 85 82 f4 ff ff 	movw   $0xff02,-0xb7e(%rbp)
    d4a9:	02 ff 
    d4ab:	66 c7 85 84 f4 ff ff 	movw   $0x101,-0xb7c(%rbp)
    d4b2:	01 01 
    d4b4:	66 c7 85 86 f4 ff ff 	movw   $0xff01,-0xb7a(%rbp)
    d4bb:	01 ff 
    d4bd:	66 c7 85 88 f4 ff ff 	movw   $0xff02,-0xb78(%rbp)
    d4c4:	02 ff 
    d4c6:	66 c7 85 8a f4 ff ff 	movw   $0xffff,-0xb76(%rbp)
    d4cd:	ff ff 
    d4cf:	66 c7 85 8c f4 ff ff 	movw   $0xff02,-0xb74(%rbp)
    d4d6:	02 ff 
    d4d8:	66 c7 85 8e f4 ff ff 	movw   $0x101,-0xb72(%rbp)
    d4df:	01 01 
    d4e1:	66 c7 85 90 f4 ff ff 	movw   $0xff01,-0xb70(%rbp)
    d4e8:	01 ff 
    d4ea:	66 c7 85 92 f4 ff ff 	movw   $0xff02,-0xb6e(%rbp)
    d4f1:	02 ff 
    d4f3:	66 c7 85 94 f4 ff ff 	movw   $0xffff,-0xb6c(%rbp)
    d4fa:	ff ff 
    d4fc:	66 c7 85 96 f4 ff ff 	movw   $0xff02,-0xb6a(%rbp)
    d503:	02 ff 
    d505:	66 c7 85 98 f4 ff ff 	movw   $0x101,-0xb68(%rbp)
    d50c:	01 01 
    d50e:	66 c7 85 9a f4 ff ff 	movw   $0xff01,-0xb66(%rbp)
    d515:	01 ff 
    d517:	66 c7 85 9c f4 ff ff 	movw   $0xff02,-0xb64(%rbp)
    d51e:	02 ff 
    d520:	66 c7 85 9e f4 ff ff 	movw   $0x1ff,-0xb62(%rbp)
    d527:	ff 01 
    d529:	66 c7 85 a0 f4 ff ff 	movw   $0x26b,-0xb60(%rbp)
    d530:	6b 02 
    d532:	66 c7 85 a2 f4 ff ff 	movw   $0xffff,-0xb5e(%rbp)
    d539:	ff ff 
    d53b:	66 c7 85 a4 f4 ff ff 	movw   $0x2ff,-0xb5c(%rbp)
    d542:	ff 02 
    d544:	66 c7 85 a6 f4 ff ff 	movw   $0x16b,-0xb5a(%rbp)
    d54b:	6b 01 
    d54d:	66 c7 85 a8 f4 ff ff 	movw   $0x102,-0xb58(%rbp)
    d554:	02 01 
    d556:	66 c7 85 aa f4 ff ff 	movw   $0x26b,-0xb56(%rbp)
    d55d:	6b 02 
    d55f:	66 c7 85 ac f4 ff ff 	movw   $0xffff,-0xb54(%rbp)
    d566:	ff ff 
    d568:	66 c7 85 ae f4 ff ff 	movw   $0x2ff,-0xb52(%rbp)
    d56f:	ff 02 
    d571:	66 c7 85 b0 f4 ff ff 	movw   $0x16b,-0xb50(%rbp)
    d578:	6b 01 
    d57a:	66 c7 85 b2 f4 ff ff 	movw   $0x102,-0xb4e(%rbp)
    d581:	02 01 
    d583:	66 c7 85 b4 f4 ff ff 	movw   $0x26b,-0xb4c(%rbp)
    d58a:	6b 02 
    d58c:	66 c7 85 b6 f4 ff ff 	movw   $0xffff,-0xb4a(%rbp)
    d593:	ff ff 
    d595:	66 c7 85 b8 f4 ff ff 	movw   $0x2ff,-0xb48(%rbp)
    d59c:	ff 02 
    d59e:	66 c7 85 ba f4 ff ff 	movw   $0x16b,-0xb46(%rbp)
    d5a5:	6b 01 
    d5a7:	66 c7 85 bc f4 ff ff 	movw   $0x102,-0xb44(%rbp)
    d5ae:	02 01 
    d5b0:	66 c7 85 be f4 ff ff 	movw   $0x26b,-0xb42(%rbp)
    d5b7:	6b 02 
    d5b9:	66 c7 85 c0 f4 ff ff 	movw   $0xffff,-0xb40(%rbp)
    d5c0:	ff ff 
    d5c2:	66 c7 85 c2 f4 ff ff 	movw   $0x2ff,-0xb3e(%rbp)
    d5c9:	ff 02 
    d5cb:	66 c7 85 c4 f4 ff ff 	movw   $0x16b,-0xb3c(%rbp)
    d5d2:	6b 01 
    d5d4:	66 c7 85 c6 f4 ff ff 	movw   $0x102,-0xb3a(%rbp)
    d5db:	02 01 
    d5dd:	66 c7 85 c8 f4 ff ff 	movw   $0x26b,-0xb38(%rbp)
    d5e4:	6b 02 
    d5e6:	66 c7 85 ca f4 ff ff 	movw   $0xffff,-0xb36(%rbp)
    d5ed:	ff ff 
    d5ef:	66 c7 85 cc f4 ff ff 	movw   $0x2ff,-0xb34(%rbp)
    d5f6:	ff 02 
    d5f8:	66 c7 85 ce f4 ff ff 	movw   $0x16b,-0xb32(%rbp)
    d5ff:	6b 01 
    d601:	66 c7 85 d0 f4 ff ff 	movw   $0x102,-0xb30(%rbp)
    d608:	02 01 
    d60a:	66 c7 85 d2 f4 ff ff 	movw   $0x26b,-0xb2e(%rbp)
    d611:	6b 02 
    d613:	66 c7 85 d4 f4 ff ff 	movw   $0xffff,-0xb2c(%rbp)
    d61a:	ff ff 
    d61c:	66 c7 85 d6 f4 ff ff 	movw   $0x2ff,-0xb2a(%rbp)
    d623:	ff 02 
    d625:	66 c7 85 d8 f4 ff ff 	movw   $0x16b,-0xb28(%rbp)
    d62c:	6b 01 
    d62e:	66 c7 85 da f4 ff ff 	movw   $0x102,-0xb26(%rbp)
    d635:	02 01 
    d637:	66 c7 85 dc f4 ff ff 	movw   $0x26b,-0xb24(%rbp)
    d63e:	6b 02 
    d640:	66 c7 85 de f4 ff ff 	movw   $0xffff,-0xb22(%rbp)
    d647:	ff ff 
    d649:	66 c7 85 e0 f4 ff ff 	movw   $0x2ff,-0xb20(%rbp)
    d650:	ff 02 
    d652:	66 c7 85 e2 f4 ff ff 	movw   $0x16b,-0xb1e(%rbp)
    d659:	6b 01 
    d65b:	66 c7 85 e4 f4 ff ff 	movw   $0x102,-0xb1c(%rbp)
    d662:	02 01 
    d664:	66 c7 85 e6 f4 ff ff 	movw   $0x26b,-0xb1a(%rbp)
    d66b:	6b 02 
    d66d:	66 c7 85 e8 f4 ff ff 	movw   $0xffff,-0xb18(%rbp)
    d674:	ff ff 
    d676:	66 c7 85 ea f4 ff ff 	movw   $0x2ff,-0xb16(%rbp)
    d67d:	ff 02 
    d67f:	66 c7 85 ec f4 ff ff 	movw   $0x16b,-0xb14(%rbp)
    d686:	6b 01 
    d688:	66 c7 85 ee f4 ff ff 	movw   $0x102,-0xb12(%rbp)
    d68f:	02 01 
    d691:	66 c7 85 f0 f4 ff ff 	movw   $0x26b,-0xb10(%rbp)
    d698:	6b 02 
    d69a:	66 c7 85 f2 f4 ff ff 	movw   $0xffff,-0xb0e(%rbp)
    d6a1:	ff ff 
    d6a3:	66 c7 85 f4 f4 ff ff 	movw   $0x2ff,-0xb0c(%rbp)
    d6aa:	ff 02 
    d6ac:	66 c7 85 f6 f4 ff ff 	movw   $0x16b,-0xb0a(%rbp)
    d6b3:	6b 01 
    d6b5:	66 c7 85 f8 f4 ff ff 	movw   $0x102,-0xb08(%rbp)
    d6bc:	02 01 
    d6be:	66 c7 85 fa f4 ff ff 	movw   $0x26b,-0xb06(%rbp)
    d6c5:	6b 02 
    d6c7:	66 c7 85 fc f4 ff ff 	movw   $0xffff,-0xb04(%rbp)
    d6ce:	ff ff 
    d6d0:	66 c7 85 fe f4 ff ff 	movw   $0x2ff,-0xb02(%rbp)
    d6d7:	ff 02 
    d6d9:	66 c7 85 00 f5 ff ff 	movw   $0x16b,-0xb00(%rbp)
    d6e0:	6b 01 
    d6e2:	66 c7 85 02 f5 ff ff 	movw   $0x102,-0xafe(%rbp)
    d6e9:	02 01 
    d6eb:	66 c7 85 04 f5 ff ff 	movw   $0x26b,-0xafc(%rbp)
    d6f2:	6b 02 
    d6f4:	66 c7 85 06 f5 ff ff 	movw   $0xffff,-0xafa(%rbp)
    d6fb:	ff ff 
    d6fd:	66 c7 85 08 f5 ff ff 	movw   $0x2ff,-0xaf8(%rbp)
    d704:	ff 02 
    d706:	66 c7 85 0a f5 ff ff 	movw   $0x16b,-0xaf6(%rbp)
    d70d:	6b 01 
    d70f:	66 c7 85 0c f5 ff ff 	movw   $0x102,-0xaf4(%rbp)
    d716:	02 01 
    d718:	66 c7 85 0e f5 ff ff 	movw   $0x26b,-0xaf2(%rbp)
    d71f:	6b 02 
    d721:	66 c7 85 10 f5 ff ff 	movw   $0xffff,-0xaf0(%rbp)
    d728:	ff ff 
    d72a:	66 c7 85 12 f5 ff ff 	movw   $0x2ff,-0xaee(%rbp)
    d731:	ff 02 
    d733:	66 c7 85 14 f5 ff ff 	movw   $0x16b,-0xaec(%rbp)
    d73a:	6b 01 
    d73c:	66 c7 85 16 f5 ff ff 	movw   $0x102,-0xaea(%rbp)
    d743:	02 01 
    d745:	66 c7 85 18 f5 ff ff 	movw   $0x26b,-0xae8(%rbp)
    d74c:	6b 02 
    d74e:	66 c7 85 1a f5 ff ff 	movw   $0xffff,-0xae6(%rbp)
    d755:	ff ff 
    d757:	66 c7 85 1c f5 ff ff 	movw   $0x2ff,-0xae4(%rbp)
    d75e:	ff 02 
    d760:	66 c7 85 1e f5 ff ff 	movw   $0x16b,-0xae2(%rbp)
    d767:	6b 01 
    d769:	66 c7 85 20 f5 ff ff 	movw   $0x102,-0xae0(%rbp)
    d770:	02 01 
    d772:	66 c7 85 22 f5 ff ff 	movw   $0x26b,-0xade(%rbp)
    d779:	6b 02 
    d77b:	48 8d 05 ee 54 01 00 	lea    0x154ee(%rip),%rax        # 22c70 <g_516>
    d782:	48 89 85 c8 f2 ff ff 	mov    %rax,-0xd38(%rbp)
    d789:	83 ad 64 f1 ff ff 01 	subl   $0x1,-0xe9c(%rbp)
    d790:	83 bd 64 f1 ff ff 00 	cmpl   $0x0,-0xe9c(%rbp)
    d797:	0f 89 57 fb ff ff    	jns    d2f4 <func_51+0x903>
    d79d:	0f b6 85 4b f1 ff ff 	movzbl -0xeb5(%rbp),%eax
    d7a4:	83 c0 01             	add    $0x1,%eax
    d7a7:	88 85 4b f1 ff ff    	mov    %al,-0xeb5(%rbp)
    d7ad:	80 bd 4b f1 ff ff 04 	cmpb   $0x4,-0xeb5(%rbp)
    d7b4:	0f 8e 69 f9 ff ff    	jle    d123 <func_51+0x732>
    d7ba:	48 8b 05 6f 4e 01 00 	mov    0x14e6f(%rip),%rax        # 22630 <g_958>
    d7c1:	8b 00                	mov    (%rax),%eax
    d7c3:	48 8b 5d d8          	mov    -0x28(%rbp),%rbx
    d7c7:	64 48 33 1c 25 28 00 	xor    %fs:0x28,%rbx
    d7ce:	00 00 
    d7d0:	74 05                	je     d7d7 <func_51+0xde6>
    d7d2:	e8 99 a8 ff ff       	callq  8070 <__stack_chk_fail@plt>
    d7d7:	48 81 c4 b0 0e 00 00 	add    $0xeb0,%rsp
    d7de:	5b                   	pop    %rbx
    d7df:	41 5c                	pop    %r12
    d7e1:	41 5d                	pop    %r13
    d7e3:	41 5e                	pop    %r14
    d7e5:	5d                   	pop    %rbp
    d7e6:	c3                   	retq   

000000000000d7e7 <func_58>:
    d7e7:	f3 0f 1e fa          	endbr64 
    d7eb:	55                   	push   %rbp
    d7ec:	48 89 e5             	mov    %rsp,%rbp
    d7ef:	41 57                	push   %r15
    d7f1:	41 56                	push   %r14
    d7f3:	41 55                	push   %r13
    d7f5:	41 54                	push   %r12
    d7f7:	53                   	push   %rbx
    d7f8:	48 81 ec 00 10 00 00 	sub    $0x1000,%rsp
    d7ff:	48 83 0c 24 00       	orq    $0x0,(%rsp)
    d804:	48 81 ec 78 0d 00 00 	sub    $0xd78,%rsp
    d80b:	48 89 bd 78 e2 ff ff 	mov    %rdi,-0x1d88(%rbp)
    d812:	89 f0                	mov    %esi,%eax
    d814:	48 89 95 68 e2 ff ff 	mov    %rdx,-0x1d98(%rbp)
    d81b:	66 89 85 74 e2 ff ff 	mov    %ax,-0x1d8c(%rbp)
    d822:	64 48 8b 04 25 28 00 	mov    %fs:0x28,%rax
    d829:	00 00 
    d82b:	48 89 45 c8          	mov    %rax,-0x38(%rbp)
    d82f:	31 c0                	xor    %eax,%eax
    d831:	48 c7 85 b0 e3 ff ff 	movq   $0x0,-0x1c50(%rbp)
    d838:	00 00 00 00 
    d83c:	c7 85 98 e2 ff ff 5f 	movl   $0x48111b5f,-0x1d68(%rbp)
    d843:	1b 11 48 
    d846:	48 8d 05 33 f8 00 00 	lea    0xf833(%rip),%rax        # 1d080 <g_55>
    d84d:	48 89 85 b8 e3 ff ff 	mov    %rax,-0x1c48(%rbp)
    d854:	48 8d 05 c5 42 01 00 	lea    0x142c5(%rip),%rax        # 21b20 <g_54>
    d85b:	48 89 85 c0 e3 ff ff 	mov    %rax,-0x1c40(%rbp)
    d862:	48 c7 85 50 e3 ff ff 	movq   $0x0,-0x1cb0(%rbp)
    d869:	00 00 00 00 
    d86d:	48 8d 85 50 e3 ff ff 	lea    -0x1cb0(%rbp),%rax
    d874:	48 89 85 c8 e3 ff ff 	mov    %rax,-0x1c38(%rbp)
    d87b:	48 8d 85 50 e3 ff ff 	lea    -0x1cb0(%rbp),%rax
    d882:	48 89 85 d0 e3 ff ff 	mov    %rax,-0x1c30(%rbp)
    d889:	48 8d 05 48 fa 00 00 	lea    0xfa48(%rip),%rax        # 1d2d8 <g_659+0x8>
    d890:	48 89 85 d8 e3 ff ff 	mov    %rax,-0x1c28(%rbp)
    d897:	48 8d 85 e0 ec ff ff 	lea    -0x1320(%rbp),%rax
    d89e:	48 8d 15 1b b3 00 00 	lea    0xb31b(%rip),%rdx        # 18bc0 <g_1750+0xb20>
    d8a5:	b9 5a 00 00 00       	mov    $0x5a,%ecx
    d8aa:	48 89 c7             	mov    %rax,%rdi
    d8ad:	48 89 d6             	mov    %rdx,%rsi
    d8b0:	f3 48 a5             	rep movsq %ds:(%rsi),%es:(%rdi)
    d8b3:	48 8d 05 a6 f9 00 00 	lea    0xf9a6(%rip),%rax        # 1d260 <g_386>
    d8ba:	48 89 85 58 e3 ff ff 	mov    %rax,-0x1ca8(%rbp)
    d8c1:	48 8d 85 b0 e7 ff ff 	lea    -0x1850(%rbp),%rax
    d8c8:	48 8d 15 d1 b5 00 00 	lea    0xb5d1(%rip),%rdx        # 18ea0 <g_1750+0xe00>
    d8cf:	b9 28 00 00 00       	mov    $0x28,%ecx
    d8d4:	48 89 c7             	mov    %rax,%rdi
    d8d7:	48 89 d6             	mov    %rdx,%rsi
    d8da:	f3 48 a5             	rep movsq %ds:(%rsi),%es:(%rdi)
    d8dd:	48 8d 05 78 f8 00 00 	lea    0xf878(%rip),%rax        # 1d15c <g_162+0x9c>
    d8e4:	48 89 85 60 e3 ff ff 	mov    %rax,-0x1ca0(%rbp)
    d8eb:	48 8d 05 58 f7 00 00 	lea    0xf758(%rip),%rax        # 1d04a <g_31+0xa>
    d8f2:	48 89 85 68 e3 ff ff 	mov    %rax,-0x1c98(%rbp)
    d8f9:	48 8d 85 68 e3 ff ff 	lea    -0x1c98(%rbp),%rax
    d900:	48 89 85 70 e3 ff ff 	mov    %rax,-0x1c90(%rbp)
    d907:	66 c7 85 90 e2 ff ff 	movw   $0x6,-0x1d70(%rbp)
    d90e:	06 00 
    d910:	48 8d 05 69 f7 00 00 	lea    0xf769(%rip),%rax        # 1d080 <g_55>
    d917:	48 89 85 e0 e3 ff ff 	mov    %rax,-0x1c20(%rbp)
    d91e:	c7 85 e4 e2 ff ff 00 	movl   $0x0,-0x1d1c(%rbp)
    d925:	00 00 00 
    d928:	c7 85 e8 e2 ff ff 4e 	movl   $0x47f1dd4e,-0x1d18(%rbp)
    d92f:	dd f1 47 
    d932:	c7 85 9c e2 ff ff 00 	movl   $0x0,-0x1d64(%rbp)
    d939:	00 00 00 
    d93c:	eb 1a                	jmp    d958 <func_58+0x171>
    d93e:	8b 85 9c e2 ff ff    	mov    -0x1d64(%rbp),%eax
    d944:	48 98                	cltq   
    d946:	c7 84 85 50 e5 ff ff 	movl   $0x0,-0x1ab0(%rbp,%rax,4)
    d94d:	00 00 00 00 
    d951:	83 85 9c e2 ff ff 01 	addl   $0x1,-0x1d64(%rbp)
    d958:	83 bd 9c e2 ff ff 08 	cmpl   $0x8,-0x1d64(%rbp)
    d95f:	7e dd                	jle    d93e <func_58+0x157>
    d961:	66 83 bd 74 e2 ff ff 	cmpw   $0x1,-0x1d8c(%rbp)
    d968:	01 
    d969:	0f 95 c0             	setne  %al
    d96c:	0f b6 c0             	movzbl %al,%eax
    d96f:	89 85 98 e2 ff ff    	mov    %eax,-0x1d68(%rbp)
    d975:	0f bf 9d 74 e2 ff ff 	movswl -0x1d8c(%rbp),%ebx
    d97c:	48 8d 85 50 e3 ff ff 	lea    -0x1cb0(%rbp),%rax
    d983:	48 89 85 d0 e3 ff ff 	mov    %rax,-0x1c30(%rbp)
    d98a:	48 8b 85 d0 e3 ff ff 	mov    -0x1c30(%rbp),%rax
    d991:	48 3b 85 c8 e3 ff ff 	cmp    -0x1c38(%rbp),%rax
    d998:	0f 95 c0             	setne  %al
    d99b:	44 0f b6 e8          	movzbl %al,%r13d
    d99f:	8b 05 d3 f6 00 00    	mov    0xf6d3(%rip),%eax        # 1d078 <g_44>
    d9a5:	85 c0                	test   %eax,%eax
    d9a7:	75 43                	jne    d9ec <func_58+0x205>
    d9a9:	48 8b 05 c3 f8 00 00 	mov    0xf8c3(%rip),%rax        # 1d273 <g_415+0x3>
    d9b0:	44 0f bf e0          	movswl %ax,%r12d
    d9b4:	8b 85 98 e2 ff ff    	mov    -0x1d68(%rbp),%eax
    d9ba:	89 c6                	mov    %eax,%esi
    d9bc:	bf f1 ff ff ff       	mov    $0xfffffff1,%edi
    d9c1:	e8 6f a9 ff ff       	callq  8335 <safe_rshift_func_int8_t_s_s>
    d9c6:	0f be c0             	movsbl %al,%eax
    d9c9:	44 89 e6             	mov    %r12d,%esi
    d9cc:	89 c7                	mov    %eax,%edi
    d9ce:	e8 22 aa ff ff       	callq  83f5 <safe_mul_func_int16_t_s_s>
    d9d3:	0f bf d0             	movswl %ax,%edx
    d9d6:	48 8b 85 d8 e3 ff ff 	mov    -0x1c28(%rbp),%rax
    d9dd:	89 10                	mov    %edx,(%rax)
    d9df:	48 8b 85 d8 e3 ff ff 	mov    -0x1c28(%rbp),%rax
    d9e6:	8b 00                	mov    (%rax),%eax
    d9e8:	85 c0                	test   %eax,%eax
    d9ea:	74 07                	je     d9f3 <func_58+0x20c>
    d9ec:	ba 01 00 00 00       	mov    $0x1,%edx
    d9f1:	eb 05                	jmp    d9f8 <func_58+0x211>
    d9f3:	ba 00 00 00 00       	mov    $0x0,%edx
    d9f8:	8b 85 98 e2 ff ff    	mov    -0x1d68(%rbp),%eax
    d9fe:	39 c2                	cmp    %eax,%edx
    da00:	0f 95 c0             	setne  %al
    da03:	0f b6 c0             	movzbl %al,%eax
    da06:	41 39 c5             	cmp    %eax,%r13d
    da09:	7f 11                	jg     da1c <func_58+0x235>
    da0b:	8b 85 2c ed ff ff    	mov    -0x12d4(%rbp),%eax
    da11:	85 c0                	test   %eax,%eax
    da13:	74 07                	je     da1c <func_58+0x235>
    da15:	b8 01 00 00 00       	mov    $0x1,%eax
    da1a:	eb 05                	jmp    da21 <func_58+0x23a>
    da1c:	b8 00 00 00 00       	mov    $0x0,%eax
    da21:	0d ff ff 00 00       	or     $0xffff,%eax
    da26:	89 de                	mov    %ebx,%esi
    da28:	89 c7                	mov    %eax,%edi
    da2a:	e8 f6 b4 ff ff       	callq  8f25 <safe_div_func_uint32_t_u_u>
    da2f:	89 c6                	mov    %eax,%esi
    da31:	bf fb ff ff ff       	mov    $0xfffffffb,%edi
    da36:	e8 ea b4 ff ff       	callq  8f25 <safe_div_func_uint32_t_u_u>
    da3b:	89 85 98 e2 ff ff    	mov    %eax,-0x1d68(%rbp)
    da41:	8b 85 98 e2 ff ff    	mov    -0x1d68(%rbp),%eax
    da47:	0f b7 c0             	movzwl %ax,%eax
    da4a:	be 0f 00 00 00       	mov    $0xf,%esi
    da4f:	89 c7                	mov    %eax,%edi
    da51:	e8 68 b3 ff ff       	callq  8dbe <safe_lshift_func_uint16_t_u_s>
    da56:	89 c2                	mov    %eax,%edx
    da58:	48 8b 85 68 e2 ff ff 	mov    -0x1d98(%rbp),%rax
    da5f:	0f b6 00             	movzbl (%rax),%eax
    da62:	09 c2                	or     %eax,%edx
    da64:	48 8b 85 68 e2 ff ff 	mov    -0x1d98(%rbp),%rax
    da6b:	88 10                	mov    %dl,(%rax)
    da6d:	48 8b 05 1f f6 00 00 	mov    0xf61f(%rip),%rax        # 1d093 <g_153+0x3>
    da74:	89 c2                	mov    %eax,%edx
    da76:	0f bf 85 74 e2 ff ff 	movswl -0x1d8c(%rbp),%eax
    da7d:	89 d6                	mov    %edx,%esi
    da7f:	89 c7                	mov    %eax,%edi
    da81:	e8 4a b4 ff ff       	callq  8ed0 <safe_sub_func_uint32_t_u_u>
    da86:	48 8b 85 c0 e3 ff ff 	mov    -0x1c40(%rbp),%rax
    da8d:	48 8b 95 b8 e3 ff ff 	mov    -0x1c48(%rbp),%rdx
    da94:	48 89 10             	mov    %rdx,(%rax)
    da97:	8b 95 2c ed ff ff    	mov    -0x12d4(%rbp),%edx
    da9d:	48 8b 85 58 e3 ff ff 	mov    -0x1ca8(%rbp),%rax
    daa4:	89 10                	mov    %edx,(%rax)
    daa6:	8b 00                	mov    (%rax),%eax
    daa8:	85 c0                	test   %eax,%eax
    daaa:	0f 84 e4 03 00 00    	je     de94 <func_58+0x6ad>
    dab0:	48 8d 05 d9 f7 00 00 	lea    0xf7d9(%rip),%rax        # 1d290 <g_448>
    dab7:	48 89 85 b8 e4 ff ff 	mov    %rax,-0x1b48(%rbp)
    dabe:	48 8d 05 03 41 01 00 	lea    0x14103(%rip),%rax        # 21bc8 <g_106+0x88>
    dac5:	48 89 85 c0 e4 ff ff 	mov    %rax,-0x1b40(%rbp)
    dacc:	48 8d 85 58 e3 ff ff 	lea    -0x1ca8(%rbp),%rax
    dad3:	48 89 85 c8 e4 ff ff 	mov    %rax,-0x1b38(%rbp)
    dada:	66 c7 85 96 e2 ff ff 	movw   $0x855c,-0x1d6a(%rbp)
    dae1:	5c 85 
    dae3:	48 8d 05 61 f5 00 00 	lea    0xf561(%rip),%rax        # 1d04b <g_31+0xb>
    daea:	48 89 85 d0 e4 ff ff 	mov    %rax,-0x1b30(%rbp)
    daf1:	48 8d 85 b0 e7 ff ff 	lea    -0x1850(%rbp),%rax
    daf8:	48 05 f8 00 00 00    	add    $0xf8,%rax
    dafe:	48 89 85 d8 e4 ff ff 	mov    %rax,-0x1b28(%rbp)
    db05:	48 8d 05 5e f7 00 00 	lea    0xf75e(%rip),%rax        # 1d26a <g_406>
    db0c:	48 89 85 e0 e4 ff ff 	mov    %rax,-0x1b20(%rbp)
    db13:	48 b8 4a d0 aa 80 f5 	movabs $0xc0e0ddf580aad04a,%rax
    db1a:	dd e0 c0 
    db1d:	48 89 85 e8 e4 ff ff 	mov    %rax,-0x1b18(%rbp)
    db24:	c7 85 a0 e2 ff ff 00 	movl   $0x0,-0x1d60(%rbp)
    db2b:	00 00 00 
    db2e:	eb 1e                	jmp    db4e <func_58+0x367>
    db30:	8b 85 a0 e2 ff ff    	mov    -0x1d60(%rbp),%eax
    db36:	48 98                	cltq   
    db38:	48 8d 15 07 f7 00 00 	lea    0xf707(%rip),%rdx        # 1d246 <g_329>
    db3f:	48 89 94 c5 20 f8 ff 	mov    %rdx,-0x7e0(%rbp,%rax,8)
    db46:	ff 
    db47:	83 85 a0 e2 ff ff 01 	addl   $0x1,-0x1d60(%rbp)
    db4e:	83 bd a0 e2 ff ff 01 	cmpl   $0x1,-0x1d60(%rbp)
    db55:	7e d9                	jle    db30 <func_58+0x349>
    db57:	48 8b 05 02 a5 00 00 	mov    0xa502(%rip),%rax        # 18060 <g_151>
    db5e:	25 ff ff 7f 00       	and    $0x7fffff,%eax
    db63:	0f b6 c0             	movzbl %al,%eax
    db66:	be 07 00 00 00       	mov    $0x7,%esi
    db6b:	89 c7                	mov    %eax,%edi
    db6d:	e8 4c b1 ff ff       	callq  8cbe <safe_rshift_func_uint8_t_u_u>
    db72:	84 c0                	test   %al,%al
    db74:	0f 84 a1 00 00 00    	je     dc1b <func_58+0x434>
    db7a:	0f bf 9d 74 e2 ff ff 	movswl -0x1d8c(%rbp),%ebx
    db81:	8b 05 f1 f4 00 00    	mov    0xf4f1(%rip),%eax        # 1d078 <g_44>
    db87:	85 c0                	test   %eax,%eax
    db89:	75 3f                	jne    dbca <func_58+0x3e3>
    db8b:	44 0f bf a5 74 e2 ff 	movswl -0x1d8c(%rbp),%r12d
    db92:	ff 
    db93:	8b 85 98 e2 ff ff    	mov    -0x1d68(%rbp),%eax
    db99:	98                   	cwtl   
    db9a:	be bd 2b 00 00       	mov    $0x2bbd,%esi
    db9f:	89 c7                	mov    %eax,%edi
    dba1:	e8 0d a8 ff ff       	callq  83b3 <safe_add_func_int16_t_s_s>
    dba6:	8b 05 fc f6 00 00    	mov    0xf6fc(%rip),%eax        # 1d2a8 <g_587>
    dbac:	0f b6 05 58 f7 00 00 	movzbl 0xf758(%rip),%eax        # 1d30b <g_801+0x3>
    dbb3:	0f b6 c0             	movzbl %al,%eax
    dbb6:	44 89 e6             	mov    %r12d,%esi
    dbb9:	89 c7                	mov    %eax,%edi
    dbbb:	e8 56 a8 ff ff       	callq  8416 <safe_mod_func_int16_t_s_s>
    dbc0:	66 23 85 74 e2 ff ff 	and    -0x1d8c(%rbp),%ax
    dbc7:	66 85 c0             	test   %ax,%ax
    dbca:	66 c7 85 96 e2 ff ff 	movw   $0x0,-0x1d6a(%rbp)
    dbd1:	00 00 
    dbd3:	0f b7 85 96 e2 ff ff 	movzwl -0x1d6a(%rbp),%eax
    dbda:	0f be c0             	movsbl %al,%eax
    dbdd:	be 02 00 00 00       	mov    $0x2,%esi
    dbe2:	89 c7                	mov    %eax,%edi
    dbe4:	e8 05 a7 ff ff       	callq  82ee <safe_lshift_func_int8_t_s_u>
    dbe9:	0f be d0             	movsbl %al,%edx
    dbec:	0f b7 05 ad f6 00 00 	movzwl 0xf6ad(%rip),%eax        # 1d2a0 <g_548>
    dbf3:	0f b7 c0             	movzwl %ax,%eax
    dbf6:	39 c2                	cmp    %eax,%edx
    dbf8:	0f 95 c0             	setne  %al
    dbfb:	0f b6 c0             	movzbl %al,%eax
    dbfe:	89 de                	mov    %ebx,%esi
    dc00:	89 c7                	mov    %eax,%edi
    dc02:	e8 ff b1 ff ff       	callq  8e06 <safe_lshift_func_uint16_t_u_u>
    dc07:	0f b7 d0             	movzwl %ax,%edx
    dc0a:	8b 85 98 e2 ff ff    	mov    -0x1d68(%rbp),%eax
    dc10:	39 c2                	cmp    %eax,%edx
    dc12:	74 07                	je     dc1b <func_58+0x434>
    dc14:	b8 01 00 00 00       	mov    $0x1,%eax
    dc19:	eb 05                	jmp    dc20 <func_58+0x439>
    dc1b:	b8 00 00 00 00       	mov    $0x0,%eax
    dc20:	89 c6                	mov    %eax,%esi
    dc22:	bf 01 00 00 00       	mov    $0x1,%edi
    dc27:	e8 f9 b2 ff ff       	callq  8f25 <safe_div_func_uint32_t_u_u>
    dc2c:	48 8b 85 b8 e4 ff ff 	mov    -0x1b48(%rbp),%rax
    dc33:	8b 00                	mov    (%rax),%eax
    dc35:	89 85 98 e2 ff ff    	mov    %eax,-0x1d68(%rbp)
    dc3b:	8b 95 98 e2 ff ff    	mov    -0x1d68(%rbp),%edx
    dc41:	48 8b 85 c8 e4 ff ff 	mov    -0x1b38(%rbp),%rax
    dc48:	48 8d 8d 98 e2 ff ff 	lea    -0x1d68(%rbp),%rcx
    dc4f:	48 89 08             	mov    %rcx,(%rax)
    dc52:	48 8b 85 c8 e4 ff ff 	mov    -0x1b38(%rbp),%rax
    dc59:	48 8b 00             	mov    (%rax),%rax
    dc5c:	48 39 85 b8 e4 ff ff 	cmp    %rax,-0x1b48(%rbp)
    dc63:	0f 94 c0             	sete   %al
    dc66:	0f b6 c0             	movzbl %al,%eax
    dc69:	89 d6                	mov    %edx,%esi
    dc6b:	89 c7                	mov    %eax,%edi
    dc6d:	e8 93 a9 ff ff       	callq  8605 <safe_sub_func_int32_t_s_s>
    dc72:	8b 95 a8 e8 ff ff    	mov    -0x1758(%rbp),%edx
    dc78:	09 d0                	or     %edx,%eax
    dc7a:	89 85 a8 e8 ff ff    	mov    %eax,-0x1758(%rbp)
    dc80:	48 8b 85 58 e3 ff ff 	mov    -0x1ca8(%rbp),%rax
    dc87:	8b 00                	mov    (%rax),%eax
    dc89:	0f b6 d8             	movzbl %al,%ebx
    dc8c:	4c 0f bf bd 74 e2 ff 	movswq -0x1d8c(%rbp),%r15
    dc93:	ff 
    dc94:	48 8b 05 4d f6 00 00 	mov    0xf64d(%rip),%rax        # 1d2e8 <g_727+0x8>
    dc9b:	48 c1 e8 18          	shr    $0x18,%rax
    dc9f:	25 ff ff ff 00       	and    $0xffffff,%eax
    dca4:	89 c0                	mov    %eax,%eax
    dca6:	48 89 85 60 e2 ff ff 	mov    %rax,-0x1da0(%rbp)
    dcad:	66 83 bd 74 e2 ff ff 	cmpw   $0x0,-0x1d8c(%rbp)
    dcb4:	00 
    dcb5:	0f 84 40 01 00 00    	je     ddfb <func_58+0x614>
    dcbb:	48 8b 05 8e 40 01 00 	mov    0x1408e(%rip),%rax        # 21d50 <g_436>
    dcc2:	48 8b 00             	mov    (%rax),%rax
    dcc5:	0f b7 00             	movzwl (%rax),%eax
    dcc8:	44 0f b7 e0          	movzwl %ax,%r12d
    dccc:	44 0f bf ad 74 e2 ff 	movswl -0x1d8c(%rbp),%r13d
    dcd3:	ff 
    dcd4:	48 8b 85 58 e3 ff ff 	mov    -0x1ca8(%rbp),%rax
    dcdb:	8b 00                	mov    (%rax),%eax
    dcdd:	44 0f be f0          	movsbl %al,%r14d
    dce1:	8b 05 c1 f5 00 00    	mov    0xf5c1(%rip),%eax        # 1d2a8 <g_587>
    dce7:	89 c2                	mov    %eax,%edx
    dce9:	0f b7 85 74 e2 ff ff 	movzwl -0x1d8c(%rbp),%eax
    dcf0:	0f be c0             	movsbl %al,%eax
    dcf3:	89 d6                	mov    %edx,%esi
    dcf5:	89 c7                	mov    %eax,%edi
    dcf7:	e8 70 a6 ff ff       	callq  836c <safe_rshift_func_int8_t_s_u>
    dcfc:	0f be c0             	movsbl %al,%eax
    dcff:	44 89 f6             	mov    %r14d,%esi
    dd02:	89 c7                	mov    %eax,%edi
    dd04:	e8 09 a5 ff ff       	callq  8212 <safe_mul_func_int8_t_s_s>
    dd09:	66 98                	cbtw   
    dd0b:	66 89 05 56 f5 00 00 	mov    %ax,0xf556(%rip)        # 1d268 <g_404>
    dd12:	0f b7 05 4f f5 00 00 	movzwl 0xf54f(%rip),%eax        # 1d268 <g_404>
    dd19:	98                   	cwtl   
    dd1a:	44 89 ee             	mov    %r13d,%esi
    dd1d:	89 c7                	mov    %eax,%edi
    dd1f:	e8 3f a8 ff ff       	callq  8563 <safe_rshift_func_int16_t_s_u>
    dd24:	48 c7 c6 ff ff ff ff 	mov    $0xffffffffffffffff,%rsi
    dd2b:	48 bf 32 c1 7a bc 7c 	movabs $0xcce60e7cbc7ac132,%rdi
    dd32:	0e e6 cc 
    dd35:	e8 6e ab ff ff       	callq  88a8 <safe_sub_func_int64_t_s_s>
    dd3a:	48 8b 95 58 e3 ff ff 	mov    -0x1ca8(%rbp),%rdx
    dd41:	8b 12                	mov    (%rdx),%edx
    dd43:	48 63 d2             	movslq %edx,%rdx
    dd46:	48 39 d0             	cmp    %rdx,%rax
    dd49:	0f 95 c0             	setne  %al
    dd4c:	0f b6 d0             	movzbl %al,%edx
    dd4f:	48 8b 85 d8 e4 ff ff 	mov    -0x1b28(%rbp),%rax
    dd56:	8b 00                	mov    (%rax),%eax
    dd58:	09 c2                	or     %eax,%edx
    dd5a:	48 8b 85 d8 e4 ff ff 	mov    -0x1b28(%rbp),%rax
    dd61:	89 10                	mov    %edx,(%rax)
    dd63:	48 8b 85 e0 e4 ff ff 	mov    -0x1b20(%rbp),%rax
    dd6a:	66 c7 00 64 a1       	movw   $0xa164,(%rax)
    dd6f:	48 0f bf 85 74 e2 ff 	movswq -0x1d8c(%rbp),%rax
    dd76:	ff 
    dd77:	be 01 00 00 00       	mov    $0x1,%esi
    dd7c:	48 89 c7             	mov    %rax,%rdi
    dd7f:	e8 2b b3 ff ff       	callq  90af <safe_div_func_uint64_t_u_u>
    dd84:	8b 15 c6 4e 01 00    	mov    0x14ec6(%rip),%edx        # 22c50 <g_22>
    dd8a:	48 63 d2             	movslq %edx,%rdx
    dd8d:	48 39 d0             	cmp    %rdx,%rax
    dd90:	75 0a                	jne    dd9c <func_58+0x5b5>
    dd92:	48 83 bd e8 e4 ff ff 	cmpq   $0x0,-0x1b18(%rbp)
    dd99:	00 
    dd9a:	74 07                	je     dda3 <func_58+0x5bc>
    dd9c:	b8 01 00 00 00       	mov    $0x1,%eax
    dda1:	eb 05                	jmp    dda8 <func_58+0x5c1>
    dda3:	b8 00 00 00 00       	mov    $0x0,%eax
    dda8:	98                   	cwtl   
    dda9:	44 89 e6             	mov    %r12d,%esi
    ddac:	89 c7                	mov    %eax,%edi
    ddae:	e8 2e a7 ff ff       	callq  84e1 <safe_lshift_func_int16_t_s_u>
    ddb3:	88 05 23 f5 00 00    	mov    %al,0xf523(%rip)        # 1d2dc <g_700>
    ddb9:	0f b6 05 1c f5 00 00 	movzbl 0xf51c(%rip),%eax        # 1d2dc <g_700>
    ddc0:	66 98                	cbtw   
    ddc2:	66 39 85 74 e2 ff ff 	cmp    %ax,-0x1d8c(%rbp)
    ddc9:	0f 9c c0             	setl   %al
    ddcc:	0f b6 c0             	movzbl %al,%eax
    ddcf:	be 07 00 00 00       	mov    $0x7,%esi
    ddd4:	89 c7                	mov    %eax,%edi
    ddd6:	e8 c6 a4 ff ff       	callq  82a1 <safe_lshift_func_int8_t_s_s>
    dddb:	0f be c0             	movsbl %al,%eax
    ddde:	89 c6                	mov    %eax,%esi
    dde0:	bf 1a 24 ad 4b       	mov    $0x4bad241a,%edi
    dde5:	e8 e2 a8 ff ff       	callq  86cc <safe_mod_func_int32_t_s_s>
    ddea:	66 83 bd 74 e2 ff ff 	cmpw   $0x0,-0x1d8c(%rbp)
    ddf1:	00 
    ddf2:	74 07                	je     ddfb <func_58+0x614>
    ddf4:	b8 01 00 00 00       	mov    $0x1,%eax
    ddf9:	eb 05                	jmp    de00 <func_58+0x619>
    ddfb:	b8 00 00 00 00       	mov    $0x0,%eax
    de00:	48 98                	cltq   
    de02:	48 8b b5 60 e2 ff ff 	mov    -0x1da0(%rbp),%rsi
    de09:	48 89 c7             	mov    %rax,%rdi
    de0c:	e8 9e b2 ff ff       	callq  90af <safe_div_func_uint64_t_u_u>
    de11:	49 39 c7             	cmp    %rax,%r15
    de14:	0f 96 c0             	setbe  %al
    de17:	0f b6 d0             	movzbl %al,%edx
    de1a:	48 8b 85 d0 e4 ff ff 	mov    -0x1b30(%rbp),%rax
    de21:	0f b6 00             	movzbl (%rax),%eax
    de24:	89 c1                	mov    %eax,%ecx
    de26:	48 8b 85 c8 e4 ff ff 	mov    -0x1b38(%rbp),%rax
    de2d:	48 8b 00             	mov    (%rax),%rax
    de30:	8b 00                	mov    (%rax),%eax
    de32:	21 c8                	and    %ecx,%eax
    de34:	89 c1                	mov    %eax,%ecx
    de36:	48 8b 85 d0 e4 ff ff 	mov    -0x1b30(%rbp),%rax
    de3d:	88 08                	mov    %cl,(%rax)
    de3f:	48 8b 85 d0 e4 ff ff 	mov    -0x1b30(%rbp),%rax
    de46:	0f b6 00             	movzbl (%rax),%eax
    de49:	0f b6 c0             	movzbl %al,%eax
    de4c:	89 d6                	mov    %edx,%esi
    de4e:	89 c7                	mov    %eax,%edi
    de50:	e8 f7 ad ff ff       	callq  8c4c <safe_lshift_func_uint8_t_u_u>
    de55:	84 c0                	test   %al,%al
    de57:	75 0c                	jne    de65 <func_58+0x67e>
    de59:	48 8b 85 68 e2 ff ff 	mov    -0x1d98(%rbp),%rax
    de60:	0f b6 00             	movzbl (%rax),%eax
    de63:	84 c0                	test   %al,%al
    de65:	89 de                	mov    %ebx,%esi
    de67:	bf 00 00 00 00       	mov    $0x0,%edi
    de6c:	e8 22 ad ff ff       	callq  8b93 <safe_mul_func_uint8_t_u_u>
    de71:	0f b6 d0             	movzbl %al,%edx
    de74:	48 8b 85 b8 e4 ff ff 	mov    -0x1b48(%rbp),%rax
    de7b:	89 10                	mov    %edx,(%rax)
    de7d:	48 8b 85 b8 e4 ff ff 	mov    -0x1b48(%rbp),%rax
    de84:	8b 10                	mov    (%rax),%edx
    de86:	48 8b 85 d8 e4 ff ff 	mov    -0x1b28(%rbp),%rax
    de8d:	89 10                	mov    %edx,(%rax)
    de8f:	e9 9a 27 00 00       	jmpq   1062e <func_58+0x2e47>
    de94:	c6 85 89 e2 ff ff bf 	movb   $0xbf,-0x1d77(%rbp)
    de9b:	48 8d 85 80 f2 ff ff 	lea    -0xd80(%rbp),%rax
    dea2:	48 8d 15 37 26 01 00 	lea    0x12637(%rip),%rdx        # 204e0 <g_1954+0xb40>
    dea9:	b9 b4 00 00 00       	mov    $0xb4,%ecx
    deae:	48 89 c7             	mov    %rax,%rdi
    deb1:	48 89 d6             	mov    %rdx,%rsi
    deb4:	f3 48 a5             	rep movsq %ds:(%rsi),%es:(%rdi)
    deb7:	48 8d 05 d2 f3 00 00 	lea    0xf3d2(%rip),%rax        # 1d290 <g_448>
    debe:	48 89 85 e8 e3 ff ff 	mov    %rax,-0x1c18(%rbp)
    dec5:	c7 85 a4 e2 ff ff 06 	movl   $0x6,-0x1d5c(%rbp)
    decc:	00 00 00 
    decf:	48 c7 85 78 e3 ff ff 	movq   $0x0,-0x1c88(%rbp)
    ded6:	00 00 00 00 
    deda:	48 8d 85 78 e3 ff ff 	lea    -0x1c88(%rbp),%rax
    dee1:	48 89 85 30 e5 ff ff 	mov    %rax,-0x1ad0(%rbp)
    dee8:	48 8d 85 78 e3 ff ff 	lea    -0x1c88(%rbp),%rax
    deef:	48 89 85 38 e5 ff ff 	mov    %rax,-0x1ac8(%rbp)
    def6:	48 8d 85 78 e3 ff ff 	lea    -0x1c88(%rbp),%rax
    defd:	48 89 85 40 e5 ff ff 	mov    %rax,-0x1ac0(%rbp)
    df04:	48 8d 85 78 e3 ff ff 	lea    -0x1c88(%rbp),%rax
    df0b:	48 89 85 48 e5 ff ff 	mov    %rax,-0x1ab8(%rbp)
    df12:	c7 85 ec e2 ff ff ff 	movl   $0xffffffff,-0x1d14(%rbp)
    df19:	ff ff ff 
    df1c:	c7 85 f0 e2 ff ff 00 	movl   $0x0,-0x1d10(%rbp)
    df23:	00 00 00 
    df26:	66 c7 85 8c e2 ff ff 	movw   $0x78d8,-0x1d74(%rbp)
    df2d:	d8 78 
    df2f:	c7 85 a8 e2 ff ff ff 	movl   $0xffffffff,-0x1d58(%rbp)
    df36:	ff ff ff 
    df39:	c7 85 f4 e2 ff ff e1 	movl   $0x5b3053e1,-0x1d0c(%rbp)
    df40:	53 30 5b 
    df43:	c7 85 ac e2 ff ff af 	movl   $0x8a879faf,-0x1d54(%rbp)
    df4a:	9f 87 8a 
    df4d:	c7 85 f8 e2 ff ff 9e 	movl   $0x7ca23d9e,-0x1d08(%rbp)
    df54:	3d a2 7c 
    df57:	48 8d 05 0a 3e 01 00 	lea    0x13e0a(%rip),%rax        # 21d68 <g_513>
    df5e:	48 89 85 f0 e3 ff ff 	mov    %rax,-0x1c10(%rbp)
    df65:	66 83 bd 74 e2 ff ff 	cmpw   $0x0,-0x1d8c(%rbp)
    df6c:	00 
    df6d:	0f 84 5b 08 00 00    	je     e7ce <func_58+0xfe7>
    df73:	48 8d 05 e2 f1 00 00 	lea    0xf1e2(%rip),%rax        # 1d15c <g_162+0x9c>
    df7a:	48 89 85 58 e4 ff ff 	mov    %rax,-0x1ba8(%rbp)
    df81:	48 8d 85 60 e3 ff ff 	lea    -0x1ca0(%rbp),%rax
    df88:	48 89 85 60 e4 ff ff 	mov    %rax,-0x1ba0(%rbp)
    df8f:	48 8d 05 46 f3 00 00 	lea    0xf346(%rip),%rax        # 1d2dc <g_700>
    df96:	48 89 85 68 e4 ff ff 	mov    %rax,-0x1b98(%rbp)
    df9d:	48 8d 05 b4 f2 00 00 	lea    0xf2b4(%rip),%rax        # 1d258 <g_343>
    dfa4:	48 89 85 70 e4 ff ff 	mov    %rax,-0x1b90(%rbp)
    dfab:	48 c7 85 78 e4 ff ff 	movq   $0x0,-0x1b88(%rbp)
    dfb2:	00 00 00 00 
    dfb6:	48 8d 05 89 f2 00 00 	lea    0xf289(%rip),%rax        # 1d246 <g_329>
    dfbd:	48 89 85 80 e4 ff ff 	mov    %rax,-0x1b80(%rbp)
    dfc4:	48 8d 05 85 f2 00 00 	lea    0xf285(%rip),%rax        # 1d250 <g_333>
    dfcb:	48 89 85 80 ea ff ff 	mov    %rax,-0x1580(%rbp)
    dfd2:	48 8d 05 77 f2 00 00 	lea    0xf277(%rip),%rax        # 1d250 <g_333>
    dfd9:	48 89 85 88 ea ff ff 	mov    %rax,-0x1578(%rbp)
    dfe0:	48 8d 05 69 f2 00 00 	lea    0xf269(%rip),%rax        # 1d250 <g_333>
    dfe7:	48 89 85 90 ea ff ff 	mov    %rax,-0x1570(%rbp)
    dfee:	48 8d 05 5b f2 00 00 	lea    0xf25b(%rip),%rax        # 1d250 <g_333>
    dff5:	48 89 85 98 ea ff ff 	mov    %rax,-0x1568(%rbp)
    dffc:	48 8d 05 4d f2 00 00 	lea    0xf24d(%rip),%rax        # 1d250 <g_333>
    e003:	48 89 85 a0 ea ff ff 	mov    %rax,-0x1560(%rbp)
    e00a:	48 8d 05 7f f2 00 00 	lea    0xf27f(%rip),%rax        # 1d290 <g_448>
    e011:	48 89 85 80 e3 ff ff 	mov    %rax,-0x1c80(%rbp)
    e018:	48 8d 05 a5 f2 00 00 	lea    0xf2a5(%rip),%rax        # 1d2c4 <g_646+0x4>
    e01f:	48 89 85 88 e3 ff ff 	mov    %rax,-0x1c78(%rbp)
    e026:	c7 85 b0 e2 ff ff 00 	movl   $0x0,-0x1d50(%rbp)
    e02d:	00 00 00 
    e030:	eb 1a                	jmp    e04c <func_58+0x865>
    e032:	8b 85 b0 e2 ff ff    	mov    -0x1d50(%rbp),%eax
    e038:	48 98                	cltq   
    e03a:	c7 84 85 30 e6 ff ff 	movl   $0x1,-0x19d0(%rbp,%rax,4)
    e041:	01 00 00 00 
    e045:	83 85 b0 e2 ff ff 01 	addl   $0x1,-0x1d50(%rbp)
    e04c:	83 bd b0 e2 ff ff 02 	cmpl   $0x2,-0x1d50(%rbp)
    e053:	7e dd                	jle    e032 <func_58+0x84b>
    e055:	48 8b 85 68 e2 ff ff 	mov    -0x1d98(%rbp),%rax
    e05c:	0f b6 18             	movzbl (%rax),%ebx
    e05f:	be 07 00 00 00       	mov    $0x7,%esi
    e064:	bf 01 00 00 00       	mov    $0x1,%edi
    e069:	e8 40 ab ff ff       	callq  8bae <safe_mod_func_uint8_t_u_u>
    e06e:	38 c3                	cmp    %al,%bl
    e070:	0f 96 c0             	setbe  %al
    e073:	0f b6 c0             	movzbl %al,%eax
    e076:	48 c7 c6 ff ff ff ff 	mov    $0xffffffffffffffff,%rsi
    e07d:	48 89 c7             	mov    %rax,%rdi
    e080:	e8 2f a9 ff ff       	callq  89b4 <safe_mod_func_int64_t_s_s>
    e085:	89 85 30 e6 ff ff    	mov    %eax,-0x19d0(%rbp)
    e08b:	66 c7 85 74 e2 ff ff 	movw   $0xfffb,-0x1d8c(%rbp)
    e092:	fb ff 
    e094:	e9 22 07 00 00       	jmpq   e7bb <func_58+0xfd4>
    e099:	48 8d 05 40 f2 00 00 	lea    0xf240(%rip),%rax        # 1d2e0 <g_727>
    e0a0:	48 89 85 88 e4 ff ff 	mov    %rax,-0x1b78(%rbp)
    e0a7:	c7 85 48 e3 ff ff 3b 	movl   $0x415f0c3b,-0x1cb8(%rbp)
    e0ae:	0c 5f 41 
    e0b1:	c7 85 4c e3 ff ff 01 	movl   $0x1,-0x1cb4(%rbp)
    e0b8:	00 00 00 
    e0bb:	48 8d 85 20 f8 ff ff 	lea    -0x7e0(%rbp),%rax
    e0c2:	48 8d 15 b7 29 01 00 	lea    0x129b7(%rip),%rdx        # 20a80 <g_1954+0x10e0>
    e0c9:	b9 f3 00 00 00       	mov    $0xf3,%ecx
    e0ce:	48 89 c7             	mov    %rax,%rdi
    e0d1:	48 89 d6             	mov    %rdx,%rsi
    e0d4:	f3 48 a5             	rep movsq %ds:(%rsi),%es:(%rdi)
    e0d7:	c7 85 b4 e2 ff ff 00 	movl   $0x0,-0x1d4c(%rbp)
    e0de:	00 00 00 
    e0e1:	eb 1a                	jmp    e0fd <func_58+0x916>
    e0e3:	8b 85 b4 e2 ff ff    	mov    -0x1d4c(%rbp),%eax
    e0e9:	48 98                	cltq   
    e0eb:	c7 84 85 b0 e6 ff ff 	movl   $0x0,-0x1950(%rbp,%rax,4)
    e0f2:	00 00 00 00 
    e0f6:	83 85 b4 e2 ff ff 01 	addl   $0x1,-0x1d4c(%rbp)
    e0fd:	83 bd b4 e2 ff ff 02 	cmpl   $0x2,-0x1d4c(%rbp)
    e104:	7e dd                	jle    e0e3 <func_58+0x8fc>
    e106:	66 0f be 85 89 e2 ff 	movsbw -0x1d77(%rbp),%ax
    e10d:	ff 
    e10e:	0f b7 d8             	movzwl %ax,%ebx
    e111:	4c 0f bf a5 74 e2 ff 	movswq -0x1d8c(%rbp),%r12
    e118:	ff 
    e119:	0f b6 05 ea f1 00 00 	movzbl 0xf1ea(%rip),%eax        # 1d30a <g_801+0x2>
    e120:	44 0f b6 e8          	movzbl %al,%r13d
    e124:	48 8b 85 b8 f3 ff ff 	mov    -0xc48(%rbp),%rax
    e12b:	48 85 c0             	test   %rax,%rax
    e12e:	0f 95 c0             	setne  %al
    e131:	89 c2                	mov    %eax,%edx
    e133:	48 8b 85 68 e4 ff ff 	mov    -0x1b98(%rbp),%rax
    e13a:	88 10                	mov    %dl,(%rax)
    e13c:	48 8b 85 68 e4 ff ff 	mov    -0x1b98(%rbp),%rax
    e143:	0f b6 00             	movzbl (%rax),%eax
    e146:	0f be c0             	movsbl %al,%eax
    e149:	89 85 48 e3 ff ff    	mov    %eax,-0x1cb8(%rbp)
    e14f:	0f bf 95 74 e2 ff ff 	movswl -0x1d8c(%rbp),%edx
    e156:	0f bf 85 74 e2 ff ff 	movswl -0x1d8c(%rbp),%eax
    e15d:	89 d6                	mov    %edx,%esi
    e15f:	89 c7                	mov    %eax,%edi
    e161:	e8 2c a3 ff ff       	callq  8492 <safe_lshift_func_int16_t_s_s>
    e166:	98                   	cwtl   
    e167:	39 85 48 e3 ff ff    	cmp    %eax,-0x1cb8(%rbp)
    e16d:	0f 9e c0             	setle  %al
    e170:	0f b6 c0             	movzbl %al,%eax
    e173:	4c 89 ee             	mov    %r13,%rsi
    e176:	48 89 c7             	mov    %rax,%rdi
    e179:	e8 2a a7 ff ff       	callq  88a8 <safe_sub_func_int64_t_s_s>
    e17e:	4c 89 e6             	mov    %r12,%rsi
    e181:	48 89 c7             	mov    %rax,%rdi
    e184:	e8 2b a8 ff ff       	callq  89b4 <safe_mod_func_int64_t_s_s>
    e189:	48 85 c0             	test   %rax,%rax
    e18c:	75 0a                	jne    e198 <func_58+0x9b1>
    e18e:	66 83 bd 74 e2 ff ff 	cmpw   $0x0,-0x1d8c(%rbp)
    e195:	00 
    e196:	74 07                	je     e19f <func_58+0x9b8>
    e198:	b8 01 00 00 00       	mov    $0x1,%eax
    e19d:	eb 05                	jmp    e1a4 <func_58+0x9bd>
    e19f:	b8 00 00 00 00       	mov    $0x0,%eax
    e1a4:	0f b7 c0             	movzwl %ax,%eax
    e1a7:	89 de                	mov    %ebx,%esi
    e1a9:	89 c7                	mov    %eax,%edi
    e1ab:	e8 8d ab ff ff       	callq  8d3d <safe_mul_func_uint16_t_u_u>
    e1b0:	48 8b 85 58 e3 ff ff 	mov    -0x1ca8(%rbp),%rax
    e1b7:	8b 10                	mov    (%rax),%edx
    e1b9:	48 8b 85 60 e3 ff ff 	mov    -0x1ca0(%rbp),%rax
    e1c0:	48 39 85 88 e4 ff ff 	cmp    %rax,-0x1b78(%rbp)
    e1c7:	0f 94 c0             	sete   %al
    e1ca:	0f b6 c0             	movzbl %al,%eax
    e1cd:	39 c2                	cmp    %eax,%edx
    e1cf:	0f 9e c1             	setle  %cl
    e1d2:	48 8b 85 58 e3 ff ff 	mov    -0x1ca8(%rbp),%rax
    e1d9:	8b 10                	mov    (%rax),%edx
    e1db:	0f bf 85 74 e2 ff ff 	movswl -0x1d8c(%rbp),%eax
    e1e2:	39 c2                	cmp    %eax,%edx
    e1e4:	0f 9f c0             	setg   %al
    e1e7:	31 c8                	xor    %ecx,%eax
    e1e9:	0f b6 c0             	movzbl %al,%eax
    e1ec:	8b 95 4c e3 ff ff    	mov    -0x1cb4(%rbp),%edx
    e1f2:	89 d6                	mov    %edx,%esi
    e1f4:	89 c7                	mov    %eax,%edi
    e1f6:	e8 92 aa ff ff       	callq  8c8d <safe_rshift_func_uint8_t_u_s>
    e1fb:	0f b7 85 74 e2 ff ff 	movzwl -0x1d8c(%rbp),%eax
    e202:	8b 95 b8 e6 ff ff    	mov    -0x1948(%rbp),%edx
    e208:	98                   	cwtl   
    e209:	21 d0                	and    %edx,%eax
    e20b:	89 85 b8 e6 ff ff    	mov    %eax,-0x1948(%rbp)
    e211:	0f b7 85 74 e2 ff ff 	movzwl -0x1d8c(%rbp),%eax
    e218:	66 83 f8 01          	cmp    $0x1,%ax
    e21c:	0f 86 b7 04 00 00    	jbe    e6d9 <func_58+0xef2>
    e222:	c7 45 c2 3c 3c 3c 3c 	movl   $0x3c3c3c3c,-0x3e(%rbp)
    e229:	66 c7 45 c6 3c 3c    	movw   $0x3c3c,-0x3a(%rbp)
    e22f:	48 8d 05 3a 4a 01 00 	lea    0x14a3a(%rip),%rax        # 22c70 <g_516>
    e236:	48 89 85 90 e4 ff ff 	mov    %rax,-0x1b70(%rbp)
    e23d:	c6 05 02 f0 00 00 00 	movb   $0x0,0xf002(%rip)        # 1d246 <g_329>
    e244:	e9 34 02 00 00       	jmpq   e47d <func_58+0xc96>
    e249:	66 c7 85 b0 ef ff ff 	movw   $0xb1db,-0x1050(%rbp)
    e250:	db b1 
    e252:	66 c7 85 b2 ef ff ff 	movw   $0x8,-0x104e(%rbp)
    e259:	08 00 
    e25b:	66 c7 85 b4 ef ff ff 	movw   $0x8,-0x104c(%rbp)
    e262:	08 00 
    e264:	66 c7 85 b6 ef ff ff 	movw   $0xc0eb,-0x104a(%rbp)
    e26b:	eb c0 
    e26d:	66 c7 85 b8 ef ff ff 	movw   $0x8,-0x1048(%rbp)
    e274:	08 00 
    e276:	66 c7 85 ba ef ff ff 	movw   $0x34d4,-0x1046(%rbp)
    e27d:	d4 34 
    e27f:	66 c7 85 bc ef ff ff 	movw   $0x1,-0x1044(%rbp)
    e286:	01 00 
    e288:	66 c7 85 be ef ff ff 	movw   $0xb1db,-0x1042(%rbp)
    e28f:	db b1 
    e291:	66 c7 85 c0 ef ff ff 	movw   $0xfff9,-0x1040(%rbp)
    e298:	f9 ff 
    e29a:	66 c7 85 c2 ef ff ff 	movw   $0xc0eb,-0x103e(%rbp)
    e2a1:	eb c0 
    e2a3:	66 c7 85 c4 ef ff ff 	movw   $0xc0eb,-0x103c(%rbp)
    e2aa:	eb c0 
    e2ac:	66 c7 85 c6 ef ff ff 	movw   $0xfff9,-0x103a(%rbp)
    e2b3:	f9 ff 
    e2b5:	66 c7 85 c8 ef ff ff 	movw   $0xb1db,-0x1038(%rbp)
    e2bc:	db b1 
    e2be:	66 c7 85 ca ef ff ff 	movw   $0x1,-0x1036(%rbp)
    e2c5:	01 00 
    e2c7:	66 c7 85 cc ef ff ff 	movw   $0x34d4,-0x1034(%rbp)
    e2ce:	d4 34 
    e2d0:	66 c7 85 ce ef ff ff 	movw   $0x8,-0x1032(%rbp)
    e2d7:	08 00 
    e2d9:	66 c7 85 d0 ef ff ff 	movw   $0xc0eb,-0x1030(%rbp)
    e2e0:	eb c0 
    e2e2:	66 c7 85 d2 ef ff ff 	movw   $0x8,-0x102e(%rbp)
    e2e9:	08 00 
    e2eb:	66 c7 85 d4 ef ff ff 	movw   $0x8,-0x102c(%rbp)
    e2f2:	08 00 
    e2f4:	66 c7 85 d6 ef ff ff 	movw   $0xb1db,-0x102a(%rbp)
    e2fb:	db b1 
    e2fd:	66 c7 85 d8 ef ff ff 	movw   $0xc0eb,-0x1028(%rbp)
    e304:	eb c0 
    e306:	48 8d 45 c2          	lea    -0x3e(%rbp),%rax
    e30a:	48 83 c0 03          	add    $0x3,%rax
    e30e:	48 89 85 a0 e3 ff ff 	mov    %rax,-0x1c60(%rbp)
    e315:	48 c7 85 98 e4 ff ff 	movq   $0x0,-0x1b68(%rbp)
    e31c:	00 00 00 00 
    e320:	48 c7 85 a0 e4 ff ff 	movq   $0x0,-0x1b60(%rbp)
    e327:	00 00 00 00 
    e32b:	c7 85 b8 e2 ff ff 00 	movl   $0x0,-0x1d48(%rbp)
    e332:	00 00 00 
    e335:	eb 1e                	jmp    e355 <func_58+0xb6e>
    e337:	8b 85 b8 e2 ff ff    	mov    -0x1d48(%rbp),%eax
    e33d:	48 98                	cltq   
    e33f:	48 8d 95 a0 e3 ff ff 	lea    -0x1c60(%rbp),%rdx
    e346:	48 89 94 c5 f0 e8 ff 	mov    %rdx,-0x1710(%rbp,%rax,8)
    e34d:	ff 
    e34e:	83 85 b8 e2 ff ff 01 	addl   $0x1,-0x1d48(%rbp)
    e355:	83 bd b8 e2 ff ff 02 	cmpl   $0x2,-0x1d48(%rbp)
    e35c:	7e d9                	jle    e337 <func_58+0xb50>
    e35e:	48 8b 05 0b 49 01 00 	mov    0x1490b(%rip),%rax        # 22c70 <g_516>
    e365:	48 8b 95 78 e2 ff ff 	mov    -0x1d88(%rbp),%rdx
    e36c:	48 89 10             	mov    %rdx,(%rax)
    e36f:	0f b7 05 b8 be 00 00 	movzwl 0xbeb8(%rip),%eax        # 1a22e <l_931.4546>
    e376:	0f b7 d8             	movzwl %ax,%ebx
    e379:	48 8d 05 e4 ec 00 00 	lea    0xece4(%rip),%rax        # 1d064 <g_31+0x24>
    e380:	48 89 85 c8 f9 ff ff 	mov    %rax,-0x638(%rbp)
    e387:	48 8b 85 c8 f9 ff ff 	mov    -0x638(%rbp),%rax
    e38e:	48 8d 55 c2          	lea    -0x3e(%rbp),%rdx
    e392:	48 83 c2 01          	add    $0x1,%rdx
    e396:	48 39 d0             	cmp    %rdx,%rax
    e399:	0f 94 c0             	sete   %al
    e39c:	89 c2                	mov    %eax,%edx
    e39e:	48 8b 85 70 e4 ff ff 	mov    -0x1b90(%rbp),%rax
    e3a5:	88 10                	mov    %dl,(%rax)
    e3a7:	48 8b 85 68 e2 ff ff 	mov    -0x1d98(%rbp),%rax
    e3ae:	0f b6 00             	movzbl (%rax),%eax
    e3b1:	8d 48 ff             	lea    -0x1(%rax),%ecx
    e3b4:	48 8b 95 68 e2 ff ff 	mov    -0x1d98(%rbp),%rdx
    e3bb:	88 0a                	mov    %cl,(%rdx)
    e3bd:	0f b6 d0             	movzbl %al,%edx
    e3c0:	66 83 bd 74 e2 ff ff 	cmpw   $0x1,-0x1d8c(%rbp)
    e3c7:	01 
    e3c8:	0f 9f c0             	setg   %al
    e3cb:	0f b6 c0             	movzbl %al,%eax
    e3ce:	09 c2                	or     %eax,%edx
    e3d0:	0f b6 45 c2          	movzbl -0x3e(%rbp),%eax
    e3d4:	0f b6 c0             	movzbl %al,%eax
    e3d7:	09 d0                	or     %edx,%eax
    e3d9:	89 c2                	mov    %eax,%edx
    e3db:	0f b6 45 c5          	movzbl -0x3b(%rbp),%eax
    e3df:	0f b6 c0             	movzbl %al,%eax
    e3e2:	89 d6                	mov    %edx,%esi
    e3e4:	89 c7                	mov    %eax,%edi
    e3e6:	e8 cd aa ff ff       	callq  8eb8 <safe_add_func_uint32_t_u_u>
    e3eb:	0f b7 c0             	movzwl %ax,%eax
    e3ee:	89 de                	mov    %ebx,%esi
    e3f0:	89 c7                	mov    %eax,%edi
    e3f2:	e8 65 a9 ff ff       	callq  8d5c <safe_mod_func_uint16_t_u_u>
    e3f7:	0f b7 d0             	movzwl %ax,%edx
    e3fa:	48 8b 85 58 e3 ff ff 	mov    -0x1ca8(%rbp),%rax
    e401:	8b 00                	mov    (%rax),%eax
    e403:	39 c2                	cmp    %eax,%edx
    e405:	7e 13                	jle    e41a <func_58+0xc33>
    e407:	48 8b 05 42 ee 00 00 	mov    0xee42(%rip),%rax        # 1d250 <g_333>
    e40e:	48 85 c0             	test   %rax,%rax
    e411:	74 07                	je     e41a <func_58+0xc33>
    e413:	b8 01 00 00 00       	mov    $0x1,%eax
    e418:	eb 05                	jmp    e41f <func_58+0xc38>
    e41a:	b8 00 00 00 00       	mov    $0x0,%eax
    e41f:	be 07 00 00 00       	mov    $0x7,%esi
    e424:	89 c7                	mov    %eax,%edi
    e426:	e8 a5 aa ff ff       	callq  8ed0 <safe_sub_func_uint32_t_u_u>
    e42b:	89 c2                	mov    %eax,%edx
    e42d:	48 8b 85 58 e3 ff ff 	mov    -0x1ca8(%rbp),%rax
    e434:	89 10                	mov    %edx,(%rax)
    e436:	8b 85 b4 e6 ff ff    	mov    -0x194c(%rbp),%eax
    e43c:	85 c0                	test   %eax,%eax
    e43e:	75 4e                	jne    e48e <func_58+0xca7>
    e440:	48 8b 85 58 e3 ff ff 	mov    -0x1ca8(%rbp),%rax
    e447:	8b 08                	mov    (%rax),%ecx
    e449:	80 bd 89 e2 ff ff 00 	cmpb   $0x0,-0x1d77(%rbp)
    e450:	0f 94 c0             	sete   %al
    e453:	0f b6 d0             	movzbl %al,%edx
    e456:	48 8b 85 58 e3 ff ff 	mov    -0x1ca8(%rbp),%rax
    e45d:	09 ca                	or     %ecx,%edx
    e45f:	89 10                	mov    %edx,(%rax)
    e461:	0f b6 05 de ed 00 00 	movzbl 0xedde(%rip),%eax        # 1d246 <g_329>
    e468:	0f be c0             	movsbl %al,%eax
    e46b:	be 01 00 00 00       	mov    $0x1,%esi
    e470:	89 c7                	mov    %eax,%edi
    e472:	e8 41 aa ff ff       	callq  8eb8 <safe_add_func_uint32_t_u_u>
    e477:	88 05 c9 ed 00 00    	mov    %al,0xedc9(%rip)        # 1d246 <g_329>
    e47d:	0f b6 05 c2 ed 00 00 	movzbl 0xedc2(%rip),%eax        # 1d246 <g_329>
    e484:	3c 07                	cmp    $0x7,%al
    e486:	0f 8e bd fd ff ff    	jle    e249 <func_58+0xa62>
    e48c:	eb 01                	jmp    e48f <func_58+0xca8>
    e48e:	90                   	nop
    e48f:	48 c7 05 8e eb 00 00 	movq   $0xffffffffffffffef,0xeb8e(%rip)        # 1d028 <g_10>
    e496:	ef ff ff ff 
    e49a:	e9 1d 02 00 00       	jmpq   e6bc <func_58+0xed5>
    e49f:	48 8d 85 30 e6 ff ff 	lea    -0x19d0(%rbp),%rax
    e4a6:	48 83 c0 04          	add    $0x4,%rax
    e4aa:	48 89 85 90 e3 ff ff 	mov    %rax,-0x1c70(%rbp)
    e4b1:	48 8d 85 90 e3 ff ff 	lea    -0x1c70(%rbp),%rax
    e4b8:	48 89 85 98 e3 ff ff 	mov    %rax,-0x1c68(%rbp)
    e4bf:	48 8d 85 98 e3 ff ff 	lea    -0x1c68(%rbp),%rax
    e4c6:	48 89 85 a0 e3 ff ff 	mov    %rax,-0x1c60(%rbp)
    e4cd:	48 8d 85 a0 e3 ff ff 	lea    -0x1c60(%rbp),%rax
    e4d4:	48 89 85 a8 e4 ff ff 	mov    %rax,-0x1b58(%rbp)
    e4db:	48 8d 85 88 e3 ff ff 	lea    -0x1c78(%rbp),%rax
    e4e2:	48 89 85 b0 e4 ff ff 	mov    %rax,-0x1b50(%rbp)
    e4e9:	c7 85 bc e2 ff ff 00 	movl   $0x0,-0x1d44(%rbp)
    e4f0:	00 00 00 
    e4f3:	eb 1e                	jmp    e513 <func_58+0xd2c>
    e4f5:	8b 85 bc e2 ff ff    	mov    -0x1d44(%rbp),%eax
    e4fb:	48 98                	cltq   
    e4fd:	48 8d 95 80 e3 ff ff 	lea    -0x1c80(%rbp),%rdx
    e504:	48 89 94 c5 b0 ef ff 	mov    %rdx,-0x1050(%rbp,%rax,8)
    e50b:	ff 
    e50c:	83 85 bc e2 ff ff 01 	addl   $0x1,-0x1d44(%rbp)
    e513:	83 bd bc e2 ff ff 04 	cmpl   $0x4,-0x1d44(%rbp)
    e51a:	7e d9                	jle    e4f5 <func_58+0xd0e>
    e51c:	48 8b 85 58 e3 ff ff 	mov    -0x1ca8(%rbp),%rax
    e523:	8b 08                	mov    (%rax),%ecx
    e525:	0f b6 45 c5          	movzbl -0x3b(%rbp),%eax
    e529:	0f b6 d0             	movzbl %al,%edx
    e52c:	48 8b 85 58 e3 ff ff 	mov    -0x1ca8(%rbp),%rax
    e533:	09 ca                	or     %ecx,%edx
    e535:	89 10                	mov    %edx,(%rax)
    e537:	8b 15 6b ed 00 00    	mov    0xed6b(%rip),%edx        # 1d2a8 <g_587>
    e53d:	48 8b 85 a8 e4 ff ff 	mov    -0x1b58(%rbp),%rax
    e544:	48 8d 0d 25 47 01 00 	lea    0x14725(%rip),%rcx        # 22c70 <g_516>
    e54b:	48 89 08             	mov    %rcx,(%rax)
    e54e:	48 8b 85 a8 e4 ff ff 	mov    -0x1b58(%rbp),%rax
    e555:	48 8b 00             	mov    (%rax),%rax
    e558:	48 39 85 90 e4 ff ff 	cmp    %rax,-0x1b70(%rbp)
    e55f:	0f 95 c0             	setne  %al
    e562:	0f b6 c0             	movzbl %al,%eax
    e565:	39 c2                	cmp    %eax,%edx
    e567:	75 20                	jne    e589 <func_58+0xda2>
    e569:	8b 05 fd eb 00 00    	mov    0xebfd(%rip),%eax        # 1d16c <g_162+0xac>
    e56f:	c1 e8 0a             	shr    $0xa,%eax
    e572:	89 c2                	mov    %eax,%edx
    e574:	0f b6 05 f5 eb 00 00 	movzbl 0xebf5(%rip),%eax        # 1d170 <g_162+0xb0>
    e57b:	83 e0 01             	and    $0x1,%eax
    e57e:	48 c1 e0 16          	shl    $0x16,%rax
    e582:	48 09 d0             	or     %rdx,%rax
    e585:	85 c0                	test   %eax,%eax
    e587:	75 0c                	jne    e595 <func_58+0xdae>
    e589:	48 8b 85 98 ea ff ff 	mov    -0x1568(%rbp),%rax
    e590:	48 85 c0             	test   %rax,%rax
    e593:	74 07                	je     e59c <func_58+0xdb5>
    e595:	b8 01 00 00 00       	mov    $0x1,%eax
    e59a:	eb 05                	jmp    e5a1 <func_58+0xdba>
    e59c:	b8 00 00 00 00       	mov    $0x0,%eax
    e5a1:	89 c2                	mov    %eax,%edx
    e5a3:	48 8b 85 d8 e3 ff ff 	mov    -0x1c28(%rbp),%rax
    e5aa:	89 10                	mov    %edx,(%rax)
    e5ac:	48 8b 85 d8 e3 ff ff 	mov    -0x1c28(%rbp),%rax
    e5b3:	8b 00                	mov    (%rax),%eax
    e5b5:	83 f8 01             	cmp    $0x1,%eax
    e5b8:	0f 95 c0             	setne  %al
    e5bb:	0f b6 c8             	movzbl %al,%ecx
    e5be:	48 8b 85 98 e3 ff ff 	mov    -0x1c68(%rbp),%rax
    e5c5:	48 8b 00             	mov    (%rax),%rax
    e5c8:	8b 10                	mov    (%rax),%edx
    e5ca:	48 8b 85 98 e3 ff ff 	mov    -0x1c68(%rbp),%rax
    e5d1:	48 8b 00             	mov    (%rax),%rax
    e5d4:	09 ca                	or     %ecx,%edx
    e5d6:	89 10                	mov    %edx,(%rax)
    e5d8:	48 8b 05 59 40 01 00 	mov    0x14059(%rip),%rax        # 22638 <g_957>
    e5df:	be 00 00 00 00       	mov    $0x0,%esi
    e5e4:	bf 01 00 00 00       	mov    $0x1,%edi
    e5e9:	e8 8a a5 ff ff       	callq  8b78 <safe_sub_func_uint8_t_u_u>
    e5ee:	0f b6 d0             	movzbl %al,%edx
    e5f1:	0f b7 05 36 bc 00 00 	movzwl 0xbc36(%rip),%eax        # 1a22e <l_931.4546>
    e5f8:	98                   	cwtl   
    e5f9:	89 d6                	mov    %edx,%esi
    e5fb:	89 c7                	mov    %eax,%edi
    e5fd:	e8 53 9e ff ff       	callq  8455 <safe_div_func_int16_t_s_s>
    e602:	48 8b 05 47 37 01 00 	mov    0x13747(%rip),%rax        # 21d50 <g_436>
    e609:	48 8b 00             	mov    (%rax),%rax
    e60c:	0f b7 10             	movzwl (%rax),%edx
    e60f:	83 ea 01             	sub    $0x1,%edx
    e612:	66 89 10             	mov    %dx,(%rax)
    e615:	0f b7 00             	movzwl (%rax),%eax
    e618:	66 83 f8 01          	cmp    $0x1,%ax
    e61c:	8b 05 62 06 01 00    	mov    0x10662(%rip),%eax        # 1ec84 <g_959>
    e622:	48 8b 95 88 e3 ff ff 	mov    -0x1c78(%rbp),%rdx
    e629:	48 8b 85 b0 e4 ff ff 	mov    -0x1b50(%rbp),%rax
    e630:	48 89 10             	mov    %rdx,(%rax)
    e633:	48 8b 85 b0 e4 ff ff 	mov    -0x1b50(%rbp),%rax
    e63a:	48 8b 00             	mov    (%rax),%rax
    e63d:	48 85 c0             	test   %rax,%rax
    e640:	0f 95 c0             	setne  %al
    e643:	0f b6 c0             	movzbl %al,%eax
    e646:	89 85 38 e6 ff ff    	mov    %eax,-0x19c8(%rbp)
    e64c:	8b 85 38 e6 ff ff    	mov    -0x19c8(%rbp),%eax
    e652:	89 c2                	mov    %eax,%edx
    e654:	0f b7 85 74 e2 ff ff 	movzwl -0x1d8c(%rbp),%eax
    e65b:	09 d0                	or     %edx,%eax
    e65d:	0f b6 d0             	movzbl %al,%edx
    e660:	48 8b 85 c0 e3 ff ff 	mov    -0x1c40(%rbp),%rax
    e667:	48 8d 0d 12 ea 00 00 	lea    0xea12(%rip),%rcx        # 1d080 <g_55>
    e66e:	48 89 08             	mov    %rcx,(%rax)
    e671:	48 8b 85 c0 e3 ff ff 	mov    -0x1c40(%rbp),%rax
    e678:	48 8b 00             	mov    (%rax),%rax
    e67b:	48 8b 8d 80 e3 ff ff 	mov    -0x1c80(%rbp),%rcx
    e682:	48 89 8d e8 e3 ff ff 	mov    %rcx,-0x1c18(%rbp)
    e689:	48 39 85 e8 e3 ff ff 	cmp    %rax,-0x1c18(%rbp)
    e690:	0f 94 c0             	sete   %al
    e693:	0f b6 c0             	movzbl %al,%eax
    e696:	89 d6                	mov    %edx,%esi
    e698:	89 c7                	mov    %eax,%edi
    e69a:	e8 bb a4 ff ff       	callq  8b5a <safe_add_func_uint8_t_u_u>
    e69f:	48 c7 85 48 e5 ff ff 	movq   $0x0,-0x1ab8(%rbp)
    e6a6:	00 00 00 00 
    e6aa:	48 8b 05 77 e9 00 00 	mov    0xe977(%rip),%rax        # 1d028 <g_10>
    e6b1:	48 83 c0 01          	add    $0x1,%rax
    e6b5:	48 89 05 6c e9 00 00 	mov    %rax,0xe96c(%rip)        # 1d028 <g_10>
    e6bc:	48 8b 05 65 e9 00 00 	mov    0xe965(%rip),%rax        # 1d028 <g_10>
    e6c3:	48 83 f8 02          	cmp    $0x2,%rax
    e6c7:	0f 87 d2 fd ff ff    	ja     e49f <func_58+0xcb8>
    e6cd:	48 8b 85 78 e2 ff ff 	mov    -0x1d88(%rbp),%rax
    e6d4:	e9 5c 1f 00 00       	jmpq   10635 <func_58+0x2e4e>
    e6d9:	66 c7 85 b0 ef ff ff 	movw   $0x22e8,-0x1050(%rbp)
    e6e0:	e8 22 
    e6e2:	66 c7 85 b2 ef ff ff 	movw   $0xfae2,-0x104e(%rbp)
    e6e9:	e2 fa 
    e6eb:	66 c7 85 b4 ef ff ff 	movw   $0x22e8,-0x104c(%rbp)
    e6f2:	e8 22 
    e6f4:	66 c7 85 b6 ef ff ff 	movw   $0x22e8,-0x104a(%rbp)
    e6fb:	e8 22 
    e6fd:	66 c7 85 b8 ef ff ff 	movw   $0xfae2,-0x1048(%rbp)
    e704:	e2 fa 
    e706:	66 c7 85 ba ef ff ff 	movw   $0xfae2,-0x1046(%rbp)
    e70d:	e2 fa 
    e70f:	66 c7 85 bc ef ff ff 	movw   $0x22e8,-0x1044(%rbp)
    e716:	e8 22 
    e718:	66 c7 85 be ef ff ff 	movw   $0x22e8,-0x1042(%rbp)
    e71f:	e8 22 
    e721:	66 c7 85 c0 ef ff ff 	movw   $0xfae2,-0x1040(%rbp)
    e728:	e2 fa 
    e72a:	66 c7 85 c2 ef ff ff 	movw   $0x22e8,-0x103e(%rbp)
    e731:	e8 22 
    e733:	66 c7 85 c4 ef ff ff 	movw   $0xfae2,-0x103c(%rbp)
    e73a:	e2 fa 
    e73c:	66 c7 85 c6 ef ff ff 	movw   $0xfae2,-0x103a(%rbp)
    e743:	e2 fa 
    e745:	66 c7 85 c8 ef ff ff 	movw   $0x0,-0x1038(%rbp)
    e74c:	00 00 
    e74e:	66 c7 85 ca ef ff ff 	movw   $0xfae2,-0x1036(%rbp)
    e755:	e2 fa 
    e757:	66 c7 85 cc ef ff ff 	movw   $0xfae2,-0x1034(%rbp)
    e75e:	e2 fa 
    e760:	48 8b 85 58 e3 ff ff 	mov    -0x1ca8(%rbp),%rax
    e767:	8b 08                	mov    (%rax),%ecx
    e769:	0f b7 85 b4 ef ff ff 	movzwl -0x104c(%rbp),%eax
    e770:	0f bf d0             	movswl %ax,%edx
    e773:	48 8b 85 58 e3 ff ff 	mov    -0x1ca8(%rbp),%rax
    e77a:	31 ca                	xor    %ecx,%edx
    e77c:	89 10                	mov    %edx,(%rax)
    e77e:	48 8b 15 63 34 01 00 	mov    0x13463(%rip),%rdx        # 21be8 <g_152>
    e785:	48 8b 05 d4 35 01 00 	mov    0x135d4(%rip),%rax        # 21d60 <g_514>
    e78c:	48 8b 0a             	mov    (%rdx),%rcx
    e78f:	48 8b 5a 08          	mov    0x8(%rdx),%rbx
    e793:	48 89 08             	mov    %rcx,(%rax)
    e796:	48 89 58 08          	mov    %rbx,0x8(%rax)
    e79a:	48 8b 4a 10          	mov    0x10(%rdx),%rcx
    e79e:	48 89 48 10          	mov    %rcx,0x10(%rax)
    e7a2:	0f b7 52 18          	movzwl 0x18(%rdx),%edx
    e7a6:	66 89 50 18          	mov    %dx,0x18(%rax)
    e7aa:	0f b7 85 74 e2 ff ff 	movzwl -0x1d8c(%rbp),%eax
    e7b1:	83 e8 01             	sub    $0x1,%eax
    e7b4:	66 89 85 74 e2 ff ff 	mov    %ax,-0x1d8c(%rbp)
    e7bb:	66 83 bd 74 e2 ff ff 	cmpw   $0xfff4,-0x1d8c(%rbp)
    e7c2:	f4 
    e7c3:	0f 8c d0 f8 ff ff    	jl     e099 <func_58+0x8b2>
    e7c9:	e9 8d 1d 00 00       	jmpq   1055b <func_58+0x2d74>
    e7ce:	66 c7 85 b0 e5 ff ff 	movw   $0x1,-0x1a50(%rbp)
    e7d5:	01 00 
    e7d7:	66 c7 85 b2 e5 ff ff 	movw   $0x0,-0x1a4e(%rbp)
    e7de:	00 00 
    e7e0:	66 c7 85 b4 e5 ff ff 	movw   $0x1,-0x1a4c(%rbp)
    e7e7:	01 00 
    e7e9:	66 c7 85 b6 e5 ff ff 	movw   $0x1,-0x1a4a(%rbp)
    e7f0:	01 00 
    e7f2:	66 c7 85 b8 e5 ff ff 	movw   $0x0,-0x1a48(%rbp)
    e7f9:	00 00 
    e7fb:	66 c7 85 ba e5 ff ff 	movw   $0x1,-0x1a46(%rbp)
    e802:	01 00 
    e804:	66 c7 85 bc e5 ff ff 	movw   $0x1,-0x1a44(%rbp)
    e80b:	01 00 
    e80d:	66 c7 85 be e5 ff ff 	movw   $0x0,-0x1a42(%rbp)
    e814:	00 00 
    e816:	66 c7 85 c0 e5 ff ff 	movw   $0x0,-0x1a40(%rbp)
    e81d:	00 00 
    e81f:	66 c7 85 c2 e5 ff ff 	movw   $0x751d,-0x1a3e(%rbp)
    e826:	1d 75 
    e828:	66 c7 85 c4 e5 ff ff 	movw   $0x0,-0x1a3c(%rbp)
    e82f:	00 00 
    e831:	66 c7 85 c6 e5 ff ff 	movw   $0x0,-0x1a3a(%rbp)
    e838:	00 00 
    e83a:	66 c7 85 c8 e5 ff ff 	movw   $0x751d,-0x1a38(%rbp)
    e841:	1d 75 
    e843:	66 c7 85 ca e5 ff ff 	movw   $0x0,-0x1a36(%rbp)
    e84a:	00 00 
    e84c:	66 c7 85 cc e5 ff ff 	movw   $0x0,-0x1a34(%rbp)
    e853:	00 00 
    e855:	66 c7 85 ce e5 ff ff 	movw   $0x1,-0x1a32(%rbp)
    e85c:	01 00 
    e85e:	66 c7 85 d0 e5 ff ff 	movw   $0x1,-0x1a30(%rbp)
    e865:	01 00 
    e867:	66 c7 85 d2 e5 ff ff 	movw   $0x0,-0x1a2e(%rbp)
    e86e:	00 00 
    e870:	66 c7 85 d4 e5 ff ff 	movw   $0x1,-0x1a2c(%rbp)
    e877:	01 00 
    e879:	66 c7 85 d6 e5 ff ff 	movw   $0x1,-0x1a2a(%rbp)
    e880:	01 00 
    e882:	66 c7 85 d8 e5 ff ff 	movw   $0x0,-0x1a28(%rbp)
    e889:	00 00 
    e88b:	66 c7 85 da e5 ff ff 	movw   $0x1,-0x1a26(%rbp)
    e892:	01 00 
    e894:	66 c7 85 dc e5 ff ff 	movw   $0x0,-0x1a24(%rbp)
    e89b:	00 00 
    e89d:	66 c7 85 de e5 ff ff 	movw   $0x1,-0x1a22(%rbp)
    e8a4:	01 00 
    e8a6:	66 c7 85 e0 e5 ff ff 	movw   $0x1,-0x1a20(%rbp)
    e8ad:	01 00 
    e8af:	66 c7 85 e2 e5 ff ff 	movw   $0x0,-0x1a1e(%rbp)
    e8b6:	00 00 
    e8b8:	66 c7 85 e4 e5 ff ff 	movw   $0x1,-0x1a1c(%rbp)
    e8bf:	01 00 
    e8c1:	66 c7 85 e6 e5 ff ff 	movw   $0x1,-0x1a1a(%rbp)
    e8c8:	01 00 
    e8ca:	48 8d 85 b0 ef ff ff 	lea    -0x1050(%rbp),%rax
    e8d1:	48 8d 15 08 a7 00 00 	lea    0xa708(%rip),%rdx        # 18fe0 <g_1750+0xf40>
    e8d8:	b9 5a 00 00 00       	mov    $0x5a,%ecx
    e8dd:	48 89 c7             	mov    %rax,%rdi
    e8e0:	48 89 d6             	mov    %rdx,%rsi
    e8e3:	f3 48 a5             	rep movsq %ds:(%rsi),%es:(%rdi)
    e8e6:	48 8d 05 13 ea 00 00 	lea    0xea13(%rip),%rax        # 1d300 <g_794>
    e8ed:	48 89 85 f8 e3 ff ff 	mov    %rax,-0x1c08(%rbp)
    e8f4:	48 8d 85 70 e3 ff ff 	lea    -0x1c90(%rbp),%rax
    e8fb:	48 89 85 f0 e8 ff ff 	mov    %rax,-0x1710(%rbp)
    e902:	48 8d 85 70 e3 ff ff 	lea    -0x1c90(%rbp),%rax
    e909:	48 89 85 f8 e8 ff ff 	mov    %rax,-0x1708(%rbp)
    e910:	48 8d 85 70 e3 ff ff 	lea    -0x1c90(%rbp),%rax
    e917:	48 89 85 00 e9 ff ff 	mov    %rax,-0x1700(%rbp)
    e91e:	48 c7 85 08 e9 ff ff 	movq   $0x0,-0x16f8(%rbp)
    e925:	00 00 00 00 
    e929:	48 8d 85 70 e3 ff ff 	lea    -0x1c90(%rbp),%rax
    e930:	48 89 85 10 e9 ff ff 	mov    %rax,-0x16f0(%rbp)
    e937:	48 c7 85 18 e9 ff ff 	movq   $0x0,-0x16e8(%rbp)
    e93e:	00 00 00 00 
    e942:	48 8d 85 70 e3 ff ff 	lea    -0x1c90(%rbp),%rax
    e949:	48 89 85 20 e9 ff ff 	mov    %rax,-0x16e0(%rbp)
    e950:	48 c7 85 28 e9 ff ff 	movq   $0x0,-0x16d8(%rbp)
    e957:	00 00 00 00 
    e95b:	48 c7 85 30 e9 ff ff 	movq   $0x0,-0x16d0(%rbp)
    e962:	00 00 00 00 
    e966:	48 8d 85 70 e3 ff ff 	lea    -0x1c90(%rbp),%rax
    e96d:	48 89 85 38 e9 ff ff 	mov    %rax,-0x16c8(%rbp)
    e974:	48 8d 85 70 e3 ff ff 	lea    -0x1c90(%rbp),%rax
    e97b:	48 89 85 40 e9 ff ff 	mov    %rax,-0x16c0(%rbp)
    e982:	48 8d 85 70 e3 ff ff 	lea    -0x1c90(%rbp),%rax
    e989:	48 89 85 48 e9 ff ff 	mov    %rax,-0x16b8(%rbp)
    e990:	48 8d 85 70 e3 ff ff 	lea    -0x1c90(%rbp),%rax
    e997:	48 89 85 50 e9 ff ff 	mov    %rax,-0x16b0(%rbp)
    e99e:	48 8d 85 70 e3 ff ff 	lea    -0x1c90(%rbp),%rax
    e9a5:	48 89 85 58 e9 ff ff 	mov    %rax,-0x16a8(%rbp)
    e9ac:	48 8d 85 70 e3 ff ff 	lea    -0x1c90(%rbp),%rax
    e9b3:	48 89 85 60 e9 ff ff 	mov    %rax,-0x16a0(%rbp)
    e9ba:	48 c7 85 68 e9 ff ff 	movq   $0x0,-0x1698(%rbp)
    e9c1:	00 00 00 00 
    e9c5:	48 8d 85 70 e3 ff ff 	lea    -0x1c90(%rbp),%rax
    e9cc:	48 89 85 70 e9 ff ff 	mov    %rax,-0x1690(%rbp)
    e9d3:	48 8d 85 70 e3 ff ff 	lea    -0x1c90(%rbp),%rax
    e9da:	48 89 85 78 e9 ff ff 	mov    %rax,-0x1688(%rbp)
    e9e1:	48 c7 85 80 e9 ff ff 	movq   $0x0,-0x1680(%rbp)
    e9e8:	00 00 00 00 
    e9ec:	48 8d 85 70 e3 ff ff 	lea    -0x1c90(%rbp),%rax
    e9f3:	48 89 85 88 e9 ff ff 	mov    %rax,-0x1678(%rbp)
    e9fa:	48 8d 85 70 e3 ff ff 	lea    -0x1c90(%rbp),%rax
    ea01:	48 89 85 90 e9 ff ff 	mov    %rax,-0x1670(%rbp)
    ea08:	48 c7 85 98 e9 ff ff 	movq   $0x0,-0x1668(%rbp)
    ea0f:	00 00 00 00 
    ea13:	48 8d 85 70 e3 ff ff 	lea    -0x1c90(%rbp),%rax
    ea1a:	48 89 85 a0 e9 ff ff 	mov    %rax,-0x1660(%rbp)
    ea21:	48 8d 85 70 e3 ff ff 	lea    -0x1c90(%rbp),%rax
    ea28:	48 89 85 a8 e9 ff ff 	mov    %rax,-0x1658(%rbp)
    ea2f:	48 8d 85 70 e3 ff ff 	lea    -0x1c90(%rbp),%rax
    ea36:	48 89 85 b0 e9 ff ff 	mov    %rax,-0x1650(%rbp)
    ea3d:	48 8d 85 70 e3 ff ff 	lea    -0x1c90(%rbp),%rax
    ea44:	48 89 85 b8 e9 ff ff 	mov    %rax,-0x1648(%rbp)
    ea4b:	48 8d 85 70 e3 ff ff 	lea    -0x1c90(%rbp),%rax
    ea52:	48 89 85 c0 e9 ff ff 	mov    %rax,-0x1640(%rbp)
    ea59:	48 8d 85 70 e3 ff ff 	lea    -0x1c90(%rbp),%rax
    ea60:	48 89 85 c8 e9 ff ff 	mov    %rax,-0x1638(%rbp)
    ea67:	48 8d 85 70 e3 ff ff 	lea    -0x1c90(%rbp),%rax
    ea6e:	48 89 85 d0 e9 ff ff 	mov    %rax,-0x1630(%rbp)
    ea75:	48 8d 85 70 e3 ff ff 	lea    -0x1c90(%rbp),%rax
    ea7c:	48 89 85 d8 e9 ff ff 	mov    %rax,-0x1628(%rbp)
    ea83:	48 8d 85 70 e3 ff ff 	lea    -0x1c90(%rbp),%rax
    ea8a:	48 89 85 e0 e9 ff ff 	mov    %rax,-0x1620(%rbp)
    ea91:	48 8d 85 70 e3 ff ff 	lea    -0x1c90(%rbp),%rax
    ea98:	48 89 85 e8 e9 ff ff 	mov    %rax,-0x1618(%rbp)
    ea9f:	48 8d 85 70 e3 ff ff 	lea    -0x1c90(%rbp),%rax
    eaa6:	48 89 85 f0 e9 ff ff 	mov    %rax,-0x1610(%rbp)
    eaad:	48 8d 85 70 e3 ff ff 	lea    -0x1c90(%rbp),%rax
    eab4:	48 89 85 f8 e9 ff ff 	mov    %rax,-0x1608(%rbp)
    eabb:	48 8d 85 70 e3 ff ff 	lea    -0x1c90(%rbp),%rax
    eac2:	48 89 85 00 ea ff ff 	mov    %rax,-0x1600(%rbp)
    eac9:	48 8d 85 70 e3 ff ff 	lea    -0x1c90(%rbp),%rax
    ead0:	48 89 85 08 ea ff ff 	mov    %rax,-0x15f8(%rbp)
    ead7:	48 8d 85 70 e3 ff ff 	lea    -0x1c90(%rbp),%rax
    eade:	48 89 85 10 ea ff ff 	mov    %rax,-0x15f0(%rbp)
    eae5:	48 c7 85 18 ea ff ff 	movq   $0x0,-0x15e8(%rbp)
    eaec:	00 00 00 00 
    eaf0:	48 8d 85 70 e3 ff ff 	lea    -0x1c90(%rbp),%rax
    eaf7:	48 89 85 20 ea ff ff 	mov    %rax,-0x15e0(%rbp)
    eafe:	48 c7 85 28 ea ff ff 	movq   $0x0,-0x15d8(%rbp)
    eb05:	00 00 00 00 
    eb09:	48 8d 85 70 e3 ff ff 	lea    -0x1c90(%rbp),%rax
    eb10:	48 89 85 30 ea ff ff 	mov    %rax,-0x15d0(%rbp)
    eb17:	48 8d 85 70 e3 ff ff 	lea    -0x1c90(%rbp),%rax
    eb1e:	48 89 85 38 ea ff ff 	mov    %rax,-0x15c8(%rbp)
    eb25:	48 8d 85 70 e3 ff ff 	lea    -0x1c90(%rbp),%rax
    eb2c:	48 89 85 40 ea ff ff 	mov    %rax,-0x15c0(%rbp)
    eb33:	48 c7 85 48 ea ff ff 	movq   $0x0,-0x15b8(%rbp)
    eb3a:	00 00 00 00 
    eb3e:	48 8d 85 70 e3 ff ff 	lea    -0x1c90(%rbp),%rax
    eb45:	48 89 85 50 ea ff ff 	mov    %rax,-0x15b0(%rbp)
    eb4c:	48 8d 85 70 e3 ff ff 	lea    -0x1c90(%rbp),%rax
    eb53:	48 89 85 58 ea ff ff 	mov    %rax,-0x15a8(%rbp)
    eb5a:	48 c7 85 60 ea ff ff 	movq   $0x0,-0x15a0(%rbp)
    eb61:	00 00 00 00 
    eb65:	48 8d 85 70 e3 ff ff 	lea    -0x1c90(%rbp),%rax
    eb6c:	48 89 85 68 ea ff ff 	mov    %rax,-0x1598(%rbp)
    eb73:	48 c7 85 70 ea ff ff 	movq   $0x0,-0x1590(%rbp)
    eb7a:	00 00 00 00 
    eb7e:	66 c7 85 8e e2 ff ff 	movw   $0x1,-0x1d72(%rbp)
    eb85:	01 00 
    eb87:	48 c7 85 00 e4 ff ff 	movq   $0xffffffffffffffff,-0x1c00(%rbp)
    eb8e:	ff ff ff ff 
    eb92:	c6 85 8a e2 ff ff fc 	movb   $0xfc,-0x1d76(%rbp)
    eb99:	c7 85 fc e2 ff ff 10 	movl   $0x5d91b210,-0x1d04(%rbp)
    eba0:	b2 91 5d 
    eba3:	48 c7 85 a0 e3 ff ff 	movq   $0x0,-0x1c60(%rbp)
    ebaa:	00 00 00 00 
    ebae:	48 8d 85 a0 e3 ff ff 	lea    -0x1c60(%rbp),%rax
    ebb5:	48 89 85 80 ea ff ff 	mov    %rax,-0x1580(%rbp)
    ebbc:	48 8d 85 a0 e3 ff ff 	lea    -0x1c60(%rbp),%rax
    ebc3:	48 89 85 88 ea ff ff 	mov    %rax,-0x1578(%rbp)
    ebca:	48 c7 85 90 ea ff ff 	movq   $0x0,-0x1570(%rbp)
    ebd1:	00 00 00 00 
    ebd5:	48 c7 85 98 ea ff ff 	movq   $0x0,-0x1568(%rbp)
    ebdc:	00 00 00 00 
    ebe0:	48 c7 85 a0 ea ff ff 	movq   $0x0,-0x1560(%rbp)
    ebe7:	00 00 00 00 
    ebeb:	48 8d 85 a0 e3 ff ff 	lea    -0x1c60(%rbp),%rax
    ebf2:	48 89 85 a8 ea ff ff 	mov    %rax,-0x1558(%rbp)
    ebf9:	48 8d 85 a0 e3 ff ff 	lea    -0x1c60(%rbp),%rax
    ec00:	48 89 85 b0 ea ff ff 	mov    %rax,-0x1550(%rbp)
    ec07:	48 c7 85 b8 ea ff ff 	movq   $0x0,-0x1548(%rbp)
    ec0e:	00 00 00 00 
    ec12:	48 8d 85 a0 e3 ff ff 	lea    -0x1c60(%rbp),%rax
    ec19:	48 89 85 c0 ea ff ff 	mov    %rax,-0x1540(%rbp)
    ec20:	48 8d 85 a0 e3 ff ff 	lea    -0x1c60(%rbp),%rax
    ec27:	48 89 85 c8 ea ff ff 	mov    %rax,-0x1538(%rbp)
    ec2e:	48 8d 85 a0 e3 ff ff 	lea    -0x1c60(%rbp),%rax
    ec35:	48 89 85 d0 ea ff ff 	mov    %rax,-0x1530(%rbp)
    ec3c:	48 c7 85 d8 ea ff ff 	movq   $0x0,-0x1528(%rbp)
    ec43:	00 00 00 00 
    ec47:	48 8d 85 a0 e3 ff ff 	lea    -0x1c60(%rbp),%rax
    ec4e:	48 89 85 e0 ea ff ff 	mov    %rax,-0x1520(%rbp)
    ec55:	48 8d 85 a0 e3 ff ff 	lea    -0x1c60(%rbp),%rax
    ec5c:	48 89 85 e8 ea ff ff 	mov    %rax,-0x1518(%rbp)
    ec63:	48 8d 85 a0 e3 ff ff 	lea    -0x1c60(%rbp),%rax
    ec6a:	48 89 85 f0 ea ff ff 	mov    %rax,-0x1510(%rbp)
    ec71:	48 c7 85 f8 ea ff ff 	movq   $0x0,-0x1508(%rbp)
    ec78:	00 00 00 00 
    ec7c:	48 8d 85 a0 e3 ff ff 	lea    -0x1c60(%rbp),%rax
    ec83:	48 89 85 00 eb ff ff 	mov    %rax,-0x1500(%rbp)
    ec8a:	48 c7 85 08 eb ff ff 	movq   $0x0,-0x14f8(%rbp)
    ec91:	00 00 00 00 
    ec95:	48 c7 85 10 eb ff ff 	movq   $0x0,-0x14f0(%rbp)
    ec9c:	00 00 00 00 
    eca0:	48 8d 85 a0 e3 ff ff 	lea    -0x1c60(%rbp),%rax
    eca7:	48 89 85 18 eb ff ff 	mov    %rax,-0x14e8(%rbp)
    ecae:	48 8d 85 a0 e3 ff ff 	lea    -0x1c60(%rbp),%rax
    ecb5:	48 89 85 20 eb ff ff 	mov    %rax,-0x14e0(%rbp)
    ecbc:	48 8d 85 a0 e3 ff ff 	lea    -0x1c60(%rbp),%rax
    ecc3:	48 89 85 28 eb ff ff 	mov    %rax,-0x14d8(%rbp)
    ecca:	48 8d 85 a0 e3 ff ff 	lea    -0x1c60(%rbp),%rax
    ecd1:	48 89 85 30 eb ff ff 	mov    %rax,-0x14d0(%rbp)
    ecd8:	48 8d 85 a0 e3 ff ff 	lea    -0x1c60(%rbp),%rax
    ecdf:	48 89 85 38 eb ff ff 	mov    %rax,-0x14c8(%rbp)
    ece6:	48 8d 85 a0 e3 ff ff 	lea    -0x1c60(%rbp),%rax
    eced:	48 89 85 40 eb ff ff 	mov    %rax,-0x14c0(%rbp)
    ecf4:	48 8d 85 a0 e3 ff ff 	lea    -0x1c60(%rbp),%rax
    ecfb:	48 89 85 48 eb ff ff 	mov    %rax,-0x14b8(%rbp)
    ed02:	48 8d 85 a0 e3 ff ff 	lea    -0x1c60(%rbp),%rax
    ed09:	48 89 85 50 eb ff ff 	mov    %rax,-0x14b0(%rbp)
    ed10:	48 c7 85 58 eb ff ff 	movq   $0x0,-0x14a8(%rbp)
    ed17:	00 00 00 00 
    ed1b:	48 8d 85 a0 e3 ff ff 	lea    -0x1c60(%rbp),%rax
    ed22:	48 89 85 60 eb ff ff 	mov    %rax,-0x14a0(%rbp)
    ed29:	48 8d 85 a0 e3 ff ff 	lea    -0x1c60(%rbp),%rax
    ed30:	48 89 85 68 eb ff ff 	mov    %rax,-0x1498(%rbp)
    ed37:	48 8d 85 a0 e3 ff ff 	lea    -0x1c60(%rbp),%rax
    ed3e:	48 89 85 70 eb ff ff 	mov    %rax,-0x1490(%rbp)
    ed45:	48 8d 85 a0 e3 ff ff 	lea    -0x1c60(%rbp),%rax
    ed4c:	48 89 85 78 eb ff ff 	mov    %rax,-0x1488(%rbp)
    ed53:	48 8d 85 a0 e3 ff ff 	lea    -0x1c60(%rbp),%rax
    ed5a:	48 89 85 80 eb ff ff 	mov    %rax,-0x1480(%rbp)
    ed61:	48 8d 85 a0 e3 ff ff 	lea    -0x1c60(%rbp),%rax
    ed68:	48 89 85 88 eb ff ff 	mov    %rax,-0x1478(%rbp)
    ed6f:	48 8d 85 a0 e3 ff ff 	lea    -0x1c60(%rbp),%rax
    ed76:	48 89 85 90 eb ff ff 	mov    %rax,-0x1470(%rbp)
    ed7d:	48 8d 85 a0 e3 ff ff 	lea    -0x1c60(%rbp),%rax
    ed84:	48 89 85 98 eb ff ff 	mov    %rax,-0x1468(%rbp)
    ed8b:	48 8d 85 a0 e3 ff ff 	lea    -0x1c60(%rbp),%rax
    ed92:	48 89 85 a0 eb ff ff 	mov    %rax,-0x1460(%rbp)
    ed99:	48 8d 85 a0 e3 ff ff 	lea    -0x1c60(%rbp),%rax
    eda0:	48 89 85 a8 eb ff ff 	mov    %rax,-0x1458(%rbp)
    eda7:	48 8d 85 a0 e3 ff ff 	lea    -0x1c60(%rbp),%rax
    edae:	48 89 85 b0 eb ff ff 	mov    %rax,-0x1450(%rbp)
    edb5:	48 8d 85 a0 e3 ff ff 	lea    -0x1c60(%rbp),%rax
    edbc:	48 89 85 b8 eb ff ff 	mov    %rax,-0x1448(%rbp)
    edc3:	48 8d 85 a0 e3 ff ff 	lea    -0x1c60(%rbp),%rax
    edca:	48 89 85 c0 eb ff ff 	mov    %rax,-0x1440(%rbp)
    edd1:	48 8d 85 a0 e3 ff ff 	lea    -0x1c60(%rbp),%rax
    edd8:	48 89 85 c8 eb ff ff 	mov    %rax,-0x1438(%rbp)
    eddf:	48 c7 85 d0 eb ff ff 	movq   $0x0,-0x1430(%rbp)
    ede6:	00 00 00 00 
    edea:	48 8d 85 a0 e3 ff ff 	lea    -0x1c60(%rbp),%rax
    edf1:	48 89 85 d8 eb ff ff 	mov    %rax,-0x1428(%rbp)
    edf8:	48 8d 85 a0 e3 ff ff 	lea    -0x1c60(%rbp),%rax
    edff:	48 89 85 e0 eb ff ff 	mov    %rax,-0x1420(%rbp)
    ee06:	48 8d 85 a0 e3 ff ff 	lea    -0x1c60(%rbp),%rax
    ee0d:	48 89 85 e8 eb ff ff 	mov    %rax,-0x1418(%rbp)
    ee14:	48 8d 85 a0 e3 ff ff 	lea    -0x1c60(%rbp),%rax
    ee1b:	48 89 85 f0 eb ff ff 	mov    %rax,-0x1410(%rbp)
    ee22:	48 8d 85 a0 e3 ff ff 	lea    -0x1c60(%rbp),%rax
    ee29:	48 89 85 f8 eb ff ff 	mov    %rax,-0x1408(%rbp)
    ee30:	48 8d 85 a0 e3 ff ff 	lea    -0x1c60(%rbp),%rax
    ee37:	48 89 85 00 ec ff ff 	mov    %rax,-0x1400(%rbp)
    ee3e:	48 8d 85 a0 e3 ff ff 	lea    -0x1c60(%rbp),%rax
    ee45:	48 89 85 08 ec ff ff 	mov    %rax,-0x13f8(%rbp)
    ee4c:	48 8d 85 a0 e3 ff ff 	lea    -0x1c60(%rbp),%rax
    ee53:	48 89 85 10 ec ff ff 	mov    %rax,-0x13f0(%rbp)
    ee5a:	48 8d 85 a0 e3 ff ff 	lea    -0x1c60(%rbp),%rax
    ee61:	48 89 85 18 ec ff ff 	mov    %rax,-0x13e8(%rbp)
    ee68:	48 c7 85 20 ec ff ff 	movq   $0x0,-0x13e0(%rbp)
    ee6f:	00 00 00 00 
    ee73:	48 8d 85 a0 e3 ff ff 	lea    -0x1c60(%rbp),%rax
    ee7a:	48 89 85 28 ec ff ff 	mov    %rax,-0x13d8(%rbp)
    ee81:	48 c7 85 30 ec ff ff 	movq   $0x0,-0x13d0(%rbp)
    ee88:	00 00 00 00 
    ee8c:	48 c7 85 38 ec ff ff 	movq   $0x0,-0x13c8(%rbp)
    ee93:	00 00 00 00 
    ee97:	48 8d 85 a0 e3 ff ff 	lea    -0x1c60(%rbp),%rax
    ee9e:	48 89 85 40 ec ff ff 	mov    %rax,-0x13c0(%rbp)
    eea5:	48 8d 85 a0 e3 ff ff 	lea    -0x1c60(%rbp),%rax
    eeac:	48 89 85 48 ec ff ff 	mov    %rax,-0x13b8(%rbp)
    eeb3:	48 c7 85 50 ec ff ff 	movq   $0x0,-0x13b0(%rbp)
    eeba:	00 00 00 00 
    eebe:	48 8d 85 a0 e3 ff ff 	lea    -0x1c60(%rbp),%rax
    eec5:	48 89 85 58 ec ff ff 	mov    %rax,-0x13a8(%rbp)
    eecc:	48 8d 85 a0 e3 ff ff 	lea    -0x1c60(%rbp),%rax
    eed3:	48 89 85 60 ec ff ff 	mov    %rax,-0x13a0(%rbp)
    eeda:	48 c7 85 68 ec ff ff 	movq   $0x0,-0x1398(%rbp)
    eee1:	00 00 00 00 
    eee5:	48 c7 85 70 ec ff ff 	movq   $0x0,-0x1390(%rbp)
    eeec:	00 00 00 00 
    eef0:	48 8d 85 a0 e3 ff ff 	lea    -0x1c60(%rbp),%rax
    eef7:	48 89 85 78 ec ff ff 	mov    %rax,-0x1388(%rbp)
    eefe:	48 8d 85 a0 e3 ff ff 	lea    -0x1c60(%rbp),%rax
    ef05:	48 89 85 80 ec ff ff 	mov    %rax,-0x1380(%rbp)
    ef0c:	48 8d 85 a0 e3 ff ff 	lea    -0x1c60(%rbp),%rax
    ef13:	48 89 85 88 ec ff ff 	mov    %rax,-0x1378(%rbp)
    ef1a:	48 8d 85 a0 e3 ff ff 	lea    -0x1c60(%rbp),%rax
    ef21:	48 89 85 90 ec ff ff 	mov    %rax,-0x1370(%rbp)
    ef28:	48 8d 85 a0 e3 ff ff 	lea    -0x1c60(%rbp),%rax
    ef2f:	48 89 85 98 ec ff ff 	mov    %rax,-0x1368(%rbp)
    ef36:	48 c7 85 a0 ec ff ff 	movq   $0x0,-0x1360(%rbp)
    ef3d:	00 00 00 00 
    ef41:	48 c7 85 a8 ec ff ff 	movq   $0x0,-0x1358(%rbp)
    ef48:	00 00 00 00 
    ef4c:	48 8d 85 a0 e3 ff ff 	lea    -0x1c60(%rbp),%rax
    ef53:	48 89 85 b0 ec ff ff 	mov    %rax,-0x1350(%rbp)
    ef5a:	48 8d 85 a0 e3 ff ff 	lea    -0x1c60(%rbp),%rax
    ef61:	48 89 85 b8 ec ff ff 	mov    %rax,-0x1348(%rbp)
    ef68:	48 8d 85 a0 e3 ff ff 	lea    -0x1c60(%rbp),%rax
    ef6f:	48 89 85 c0 ec ff ff 	mov    %rax,-0x1340(%rbp)
    ef76:	48 8d 85 a0 e3 ff ff 	lea    -0x1c60(%rbp),%rax
    ef7d:	48 89 85 c8 ec ff ff 	mov    %rax,-0x1338(%rbp)
    ef84:	48 8d 85 a0 e3 ff ff 	lea    -0x1c60(%rbp),%rax
    ef8b:	48 89 85 d0 ec ff ff 	mov    %rax,-0x1330(%rbp)
    ef92:	48 8d 85 80 ea ff ff 	lea    -0x1580(%rbp),%rax
    ef99:	48 05 00 02 00 00    	add    $0x200,%rax
    ef9f:	48 89 85 08 e4 ff ff 	mov    %rax,-0x1bf8(%rbp)
    efa6:	c7 85 c0 e2 ff ff 00 	movl   $0x0,-0x1d40(%rbp)
    efad:	00 00 00 
    efb0:	eb 46                	jmp    eff8 <func_58+0x1811>
    efb2:	c7 85 c4 e2 ff ff 00 	movl   $0x0,-0x1d3c(%rbp)
    efb9:	00 00 00 
    efbc:	eb 2a                	jmp    efe8 <func_58+0x1801>
    efbe:	8b 85 c4 e2 ff ff    	mov    -0x1d3c(%rbp),%eax
    efc4:	48 63 d0             	movslq %eax,%rdx
    efc7:	8b 85 c0 e2 ff ff    	mov    -0x1d40(%rbp),%eax
    efcd:	48 98                	cltq   
    efcf:	48 01 d0             	add    %rdx,%rax
    efd2:	48 8d 15 87 e2 00 00 	lea    0xe287(%rip),%rdx        # 1d260 <g_386>
    efd9:	48 89 94 c5 f0 e4 ff 	mov    %rdx,-0x1b10(%rbp,%rax,8)
    efe0:	ff 
    efe1:	83 85 c4 e2 ff ff 01 	addl   $0x1,-0x1d3c(%rbp)
    efe8:	83 bd c4 e2 ff ff 00 	cmpl   $0x0,-0x1d3c(%rbp)
    efef:	7e cd                	jle    efbe <func_58+0x17d7>
    eff1:	83 85 c0 e2 ff ff 01 	addl   $0x1,-0x1d40(%rbp)
    eff8:	83 bd c0 e2 ff ff 02 	cmpl   $0x2,-0x1d40(%rbp)
    efff:	7e b1                	jle    efb2 <func_58+0x17cb>
    f001:	48 8b 05 28 36 01 00 	mov    0x13628(%rip),%rax        # 22630 <g_958>
    f008:	8b 00                	mov    (%rax),%eax
    f00a:	85 c0                	test   %eax,%eax
    f00c:	0f 84 47 01 00 00    	je     f159 <func_58+0x1972>
    f012:	48 83 bd f8 e3 ff ff 	cmpq   $0x0,-0x1c08(%rbp)
    f019:	00 
    f01a:	0f 94 c1             	sete   %cl
    f01d:	48 8b 85 70 e3 ff ff 	mov    -0x1c90(%rbp),%rax
    f024:	48 89 05 2d 36 01 00 	mov    %rax,0x1362d(%rip)        # 22658 <g_979>
    f02b:	48 8b 05 26 36 01 00 	mov    0x13626(%rip),%rax        # 22658 <g_979>
    f032:	48 89 05 37 36 01 00 	mov    %rax,0x13637(%rip)        # 22670 <g_981+0x10>
    f039:	48 8b 15 30 36 01 00 	mov    0x13630(%rip),%rdx        # 22670 <g_981+0x10>
    f040:	48 8b 05 01 36 01 00 	mov    0x13601(%rip),%rax        # 22648 <g_973>
    f047:	48 39 c2             	cmp    %rax,%rdx
    f04a:	0f 95 c0             	setne  %al
    f04d:	31 c8                	xor    %ecx,%eax
    f04f:	0f b6 c0             	movzbl %al,%eax
    f052:	be ff ff ff ff       	mov    $0xffffffff,%esi
    f057:	89 c7                	mov    %eax,%edi
    f059:	e8 76 91 ff ff       	callq  81d4 <safe_add_func_int8_t_s_s>
    f05e:	0f be d0             	movsbl %al,%edx
    f061:	0f bf 85 74 e2 ff ff 	movswl -0x1d8c(%rbp),%eax
    f068:	21 c2                	and    %eax,%edx
    f06a:	48 8b 85 58 e3 ff ff 	mov    -0x1ca8(%rbp),%rax
    f071:	8b 00                	mov    (%rax),%eax
    f073:	39 c2                	cmp    %eax,%edx
    f075:	0f 9e c0             	setle  %al
    f078:	0f b6 c0             	movzbl %al,%eax
    f07b:	be 4f 0a ee 8c       	mov    $0x8cee0a4f,%esi
    f080:	89 c7                	mov    %eax,%edi
    f082:	e8 9e 9e ff ff       	callq  8f25 <safe_div_func_uint32_t_u_u>
    f087:	8b 95 ec e2 ff ff    	mov    -0x1d14(%rbp),%edx
    f08d:	21 d0                	and    %edx,%eax
    f08f:	89 85 ec e2 ff ff    	mov    %eax,-0x1d14(%rbp)
    f095:	0f b7 05 cc e1 00 00 	movzwl 0xe1cc(%rip),%eax        # 1d268 <g_404>
    f09c:	98                   	cwtl   
    f09d:	23 85 ec e2 ff ff    	and    -0x1d14(%rbp),%eax
    f0a3:	85 c0                	test   %eax,%eax
    f0a5:	75 0b                	jne    f0b2 <func_58+0x18cb>
    f0a7:	48 8b 85 58 e3 ff ff 	mov    -0x1ca8(%rbp),%rax
    f0ae:	8b 00                	mov    (%rax),%eax
    f0b0:	85 c0                	test   %eax,%eax
    f0b2:	48 8b 85 58 e3 ff ff 	mov    -0x1ca8(%rbp),%rax
    f0b9:	8b 00                	mov    (%rax),%eax
    f0bb:	85 c0                	test   %eax,%eax
    f0bd:	74 08                	je     f0c7 <func_58+0x18e0>
    f0bf:	41 bc 01 00 00 00    	mov    $0x1,%r12d
    f0c5:	eb 06                	jmp    f0cd <func_58+0x18e6>
    f0c7:	41 bc 00 00 00 00    	mov    $0x0,%r12d
    f0cd:	0f be 9d 89 e2 ff ff 	movsbl -0x1d77(%rbp),%ebx
    f0d4:	8b 85 a4 e2 ff ff    	mov    -0x1d5c(%rbp),%eax
    f0da:	0f bf d0             	movswl %ax,%edx
    f0dd:	48 8b 05 8c df 00 00 	mov    0xdf8c(%rip),%rax        # 1d070 <g_40>
    f0e4:	98                   	cwtl   
    f0e5:	89 d6                	mov    %edx,%esi
    f0e7:	89 c7                	mov    %eax,%edi
    f0e9:	e8 67 93 ff ff       	callq  8455 <safe_div_func_int16_t_s_s>
    f0ee:	66 89 85 b6 e5 ff ff 	mov    %ax,-0x1a4a(%rbp)
    f0f5:	0f b7 85 b6 e5 ff ff 	movzwl -0x1a4a(%rbp),%eax
    f0fc:	0f bf d0             	movswl %ax,%edx
    f0ff:	8b 85 44 f0 ff ff    	mov    -0xfbc(%rbp),%eax
    f105:	39 c2                	cmp    %eax,%edx
    f107:	0f 9f c1             	setg   %cl
    f10a:	48 8b 05 3f 35 01 00 	mov    0x1353f(%rip),%rax        # 22650 <g_980>
    f111:	0f b6 00             	movzbl (%rax),%eax
    f114:	89 c2                	mov    %eax,%edx
    f116:	44 89 e0             	mov    %r12d,%eax
    f119:	21 c2                	and    %eax,%edx
    f11b:	48 8b 05 2e 35 01 00 	mov    0x1352e(%rip),%rax        # 22650 <g_980>
    f122:	88 10                	mov    %dl,(%rax)
    f124:	0f b6 00             	movzbl (%rax),%eax
    f127:	0f b6 d0             	movzbl %al,%edx
    f12a:	0f bf 85 74 e2 ff ff 	movswl -0x1d8c(%rbp),%eax
    f131:	39 c2                	cmp    %eax,%edx
    f133:	0f 95 c0             	setne  %al
    f136:	09 c8                	or     %ecx,%eax
    f138:	0f b6 c0             	movzbl %al,%eax
    f13b:	09 c3                	or     %eax,%ebx
    f13d:	89 da                	mov    %ebx,%edx
    f13f:	48 8b 85 68 e2 ff ff 	mov    -0x1d98(%rbp),%rax
    f146:	0f b6 00             	movzbl (%rax),%eax
    f149:	0f b6 c0             	movzbl %al,%eax
    f14c:	21 d0                	and    %edx,%eax
    f14e:	85 c0                	test   %eax,%eax
    f150:	74 07                	je     f159 <func_58+0x1972>
    f152:	b8 01 00 00 00       	mov    $0x1,%eax
    f157:	eb 05                	jmp    f15e <func_58+0x1977>
    f159:	b8 00 00 00 00       	mov    $0x0,%eax
    f15e:	0f b6 c0             	movzbl %al,%eax
    f161:	89 c7                	mov    %eax,%edi
    f163:	e8 dd 99 ff ff       	callq  8b45 <safe_unary_minus_func_uint8_t_u>
    f168:	83 f0 01             	xor    $0x1,%eax
    f16b:	0f b6 c0             	movzbl %al,%eax
    f16e:	09 85 f0 e2 ff ff    	or     %eax,-0x1d10(%rbp)
    f174:	66 83 ad 8e e2 ff ff 	subw   $0x1,-0x1d72(%rbp)
    f17b:	01 
    f17c:	c7 05 f2 de 00 00 ec 	movl   $0xffffffec,0xdef2(%rip)        # 1d078 <g_44>
    f183:	ff ff ff 
    f186:	eb 68                	jmp    f1f0 <func_58+0x1a09>
    f188:	66 c7 85 94 e2 ff ff 	movw   $0xfff9,-0x1d6c(%rbp)
    f18f:	f9 ff 
    f191:	c7 85 28 e3 ff ff ff 	movl   $0xffffffff,-0x1cd8(%rbp)
    f198:	ff ff ff 
    f19b:	c7 85 2c e3 ff ff d3 	movl   $0x6afc1cd3,-0x1cd4(%rbp)
    f1a2:	1c fc 6a 
    f1a5:	c7 85 30 e3 ff ff c5 	movl   $0x23fa80c5,-0x1cd0(%rbp)
    f1ac:	80 fa 23 
    f1af:	c7 85 34 e3 ff ff fe 	movl   $0xe2490efe,-0x1ccc(%rbp)
    f1b6:	0e 49 e2 
    f1b9:	c7 85 38 e3 ff ff ff 	movl   $0xffffffff,-0x1cc8(%rbp)
    f1c0:	ff ff ff 
    f1c3:	c7 85 3c e3 ff ff ee 	movl   $0x7315d0ee,-0x1cc4(%rbp)
    f1ca:	d0 15 73 
    f1cd:	c7 85 40 e3 ff ff a1 	movl   $0xa1bfc1a1,-0x1cc0(%rbp)
    f1d4:	c1 bf a1 
    f1d7:	c7 85 44 e3 ff ff 00 	movl   $0x0,-0x1cbc(%rbp)
    f1de:	00 00 00 
    f1e1:	8b 05 91 de 00 00    	mov    0xde91(%rip),%eax        # 1d078 <g_44>
    f1e7:	83 c0 01             	add    $0x1,%eax
    f1ea:	89 05 88 de 00 00    	mov    %eax,0xde88(%rip)        # 1d078 <g_44>
    f1f0:	8b 05 82 de 00 00    	mov    0xde82(%rip),%eax        # 1d078 <g_44>
    f1f6:	83 f8 10             	cmp    $0x10,%eax
    f1f9:	7f 8d                	jg     f188 <func_58+0x19a1>
    f1fb:	66 c7 05 20 de 00 00 	movw   $0x0,0xde20(%rip)        # 1d024 <g_8>
    f202:	00 00 
    f204:	e9 41 13 00 00       	jmpq   1054a <func_58+0x2d63>
    f209:	c7 85 00 e3 ff ff 43 	movl   $0x48c83843,-0x1d00(%rbp)
    f210:	38 c8 48 
    f213:	c7 85 30 e6 ff ff 5c 	movl   $0x81f7aa5c,-0x19d0(%rbp)
    f21a:	aa f7 81 
    f21d:	c7 85 34 e6 ff ff 00 	movl   $0x0,-0x19cc(%rbp)
    f224:	00 00 00 
    f227:	c7 85 38 e6 ff ff 00 	movl   $0x0,-0x19c8(%rbp)
    f22e:	00 00 00 
    f231:	c7 85 3c e6 ff ff 5c 	movl   $0x81f7aa5c,-0x19c4(%rbp)
    f238:	aa f7 81 
    f23b:	c7 85 40 e6 ff ff 00 	movl   $0x0,-0x19c0(%rbp)
    f242:	00 00 00 
    f245:	c7 85 44 e6 ff ff 5c 	movl   $0x81f7aa5c,-0x19bc(%rbp)
    f24c:	aa f7 81 
    f24f:	c7 85 48 e6 ff ff 5c 	movl   $0x81f7aa5c,-0x19b8(%rbp)
    f256:	aa f7 81 
    f259:	c7 85 4c e6 ff ff ff 	movl   $0xffffffff,-0x19b4(%rbp)
    f260:	ff ff ff 
    f263:	c7 85 50 e6 ff ff 5c 	movl   $0x81f7aa5c,-0x19b0(%rbp)
    f26a:	aa f7 81 
    f26d:	c7 85 54 e6 ff ff 5c 	movl   $0x81f7aa5c,-0x19ac(%rbp)
    f274:	aa f7 81 
    f277:	c7 85 58 e6 ff ff 00 	movl   $0x0,-0x19a8(%rbp)
    f27e:	00 00 00 
    f281:	c7 85 5c e6 ff ff 5c 	movl   $0x81f7aa5c,-0x19a4(%rbp)
    f288:	aa f7 81 
    f28b:	c7 85 60 e6 ff ff 00 	movl   $0x0,-0x19a0(%rbp)
    f292:	00 00 00 
    f295:	c7 85 64 e6 ff ff 00 	movl   $0x0,-0x199c(%rbp)
    f29c:	00 00 00 
    f29f:	c7 85 68 e6 ff ff 5c 	movl   $0x81f7aa5c,-0x1998(%rbp)
    f2a6:	aa f7 81 
    f2a9:	c7 85 6c e6 ff ff 5c 	movl   $0x81f7aa5c,-0x1994(%rbp)
    f2b0:	aa f7 81 
    f2b3:	c7 85 70 e6 ff ff 00 	movl   $0x0,-0x1990(%rbp)
    f2ba:	00 00 00 
    f2bd:	c7 85 74 e6 ff ff 00 	movl   $0x0,-0x198c(%rbp)
    f2c4:	00 00 00 
    f2c7:	c7 85 78 e6 ff ff 5c 	movl   $0x81f7aa5c,-0x1988(%rbp)
    f2ce:	aa f7 81 
    f2d1:	c7 85 7c e6 ff ff 00 	movl   $0x0,-0x1984(%rbp)
    f2d8:	00 00 00 
    f2db:	c7 85 80 e6 ff ff 5c 	movl   $0x81f7aa5c,-0x1980(%rbp)
    f2e2:	aa f7 81 
    f2e5:	c7 85 84 e6 ff ff 5c 	movl   $0x81f7aa5c,-0x197c(%rbp)
    f2ec:	aa f7 81 
    f2ef:	c7 85 88 e6 ff ff ff 	movl   $0xffffffff,-0x1978(%rbp)
    f2f6:	ff ff ff 
    f2f9:	c7 85 8c e6 ff ff 5c 	movl   $0x81f7aa5c,-0x1974(%rbp)
    f300:	aa f7 81 
    f303:	c7 85 90 e6 ff ff 5c 	movl   $0x81f7aa5c,-0x1970(%rbp)
    f30a:	aa f7 81 
    f30d:	c7 85 94 e6 ff ff 00 	movl   $0x0,-0x196c(%rbp)
    f314:	00 00 00 
    f317:	c7 85 98 e6 ff ff 5c 	movl   $0x81f7aa5c,-0x1968(%rbp)
    f31e:	aa f7 81 
    f321:	c7 85 9c e6 ff ff 00 	movl   $0x0,-0x1964(%rbp)
    f328:	00 00 00 
    f32b:	c7 85 a0 e6 ff ff 00 	movl   $0x0,-0x1960(%rbp)
    f332:	00 00 00 
    f335:	c7 85 a4 e6 ff ff 5c 	movl   $0x81f7aa5c,-0x195c(%rbp)
    f33c:	aa f7 81 
    f33f:	66 c7 85 92 e2 ff ff 	movw   $0x9,-0x1d6e(%rbp)
    f346:	09 00 
    f348:	c7 85 c8 e2 ff ff 00 	movl   $0x0,-0x1d38(%rbp)
    f34f:	00 00 00 
    f352:	eb 43                	jmp    f397 <func_58+0x1bb0>
    f354:	c7 85 cc e2 ff ff 00 	movl   $0x0,-0x1d34(%rbp)
    f35b:	00 00 00 
    f35e:	eb 27                	jmp    f387 <func_58+0x1ba0>
    f360:	8b 85 cc e2 ff ff    	mov    -0x1d34(%rbp),%eax
    f366:	48 63 d0             	movslq %eax,%rdx
    f369:	8b 85 c8 e2 ff ff    	mov    -0x1d38(%rbp),%eax
    f36f:	48 98                	cltq   
    f371:	48 01 d0             	add    %rdx,%rax
    f374:	48 c7 84 c5 10 e5 ff 	movq   $0x1,-0x1af0(%rbp,%rax,8)
    f37b:	ff 01 00 00 00 
    f380:	83 85 cc e2 ff ff 01 	addl   $0x1,-0x1d34(%rbp)
    f387:	83 bd cc e2 ff ff 00 	cmpl   $0x0,-0x1d34(%rbp)
    f38e:	7e d0                	jle    f360 <func_58+0x1b79>
    f390:	83 85 c8 e2 ff ff 01 	addl   $0x1,-0x1d38(%rbp)
    f397:	83 bd c8 e2 ff ff 02 	cmpl   $0x2,-0x1d38(%rbp)
    f39e:	7e b4                	jle    f354 <func_58+0x1b6d>
    f3a0:	48 8b 85 c0 e3 ff ff 	mov    -0x1c40(%rbp),%rax
    f3a7:	48 8b 95 e0 e3 ff ff 	mov    -0x1c20(%rbp),%rdx
    f3ae:	48 89 10             	mov    %rdx,(%rax)
    f3b1:	48 8b 85 58 e3 ff ff 	mov    -0x1ca8(%rbp),%rax
    f3b8:	c7 00 c9 c6 95 47    	movl   $0x4795c6c9,(%rax)
    f3be:	c7 85 ac e2 ff ff 01 	movl   $0x1,-0x1d54(%rbp)
    f3c5:	00 00 00 
    f3c8:	e9 0f 0d 00 00       	jmpq   100dc <func_58+0x28f5>
    f3cd:	48 b8 95 55 b7 91 e0 	movabs $0x631e41e091b75595,%rax
    f3d4:	41 1e 63 
    f3d7:	48 89 85 28 e4 ff ff 	mov    %rax,-0x1bd8(%rbp)
    f3de:	c7 85 08 e3 ff ff 06 	movl   $0x6,-0x1cf8(%rbp)
    f3e5:	00 00 00 
    f3e8:	c7 85 0c e3 ff ff f8 	movl   $0xfffffff8,-0x1cf4(%rbp)
    f3ef:	ff ff ff 
    f3f2:	c7 85 10 e3 ff ff ff 	movl   $0xffffffff,-0x1cf0(%rbp)
    f3f9:	ff ff ff 
    f3fc:	c7 85 14 e3 ff ff 81 	movl   $0xb7691781,-0x1cec(%rbp)
    f403:	17 69 b7 
    f406:	c7 85 18 e3 ff ff 01 	movl   $0x1,-0x1ce8(%rbp)
    f40d:	00 00 00 
    f410:	c6 85 8b e2 ff ff ff 	movb   $0xff,-0x1d75(%rbp)
    f417:	48 8d 05 32 32 01 00 	lea    0x13232(%rip),%rax        # 22650 <g_980>
    f41e:	48 89 85 30 e4 ff ff 	mov    %rax,-0x1bd0(%rbp)
    f425:	c7 85 d0 e2 ff ff 00 	movl   $0x0,-0x1d30(%rbp)
    f42c:	00 00 00 
    f42f:	eb 4d                	jmp    f47e <func_58+0x1c97>
    f431:	c7 85 d4 e2 ff ff 00 	movl   $0x0,-0x1d2c(%rbp)
    f438:	00 00 00 
    f43b:	eb 31                	jmp    f46e <func_58+0x1c87>
    f43d:	8b 85 d4 e2 ff ff    	mov    -0x1d2c(%rbp),%eax
    f443:	48 63 c8             	movslq %eax,%rcx
    f446:	8b 85 d0 e2 ff ff    	mov    -0x1d30(%rbp),%eax
    f44c:	48 63 d0             	movslq %eax,%rdx
    f44f:	48 89 d0             	mov    %rdx,%rax
    f452:	48 c1 e0 02          	shl    $0x2,%rax
    f456:	48 01 d0             	add    %rdx,%rax
    f459:	48 01 c8             	add    %rcx,%rax
    f45c:	c7 84 85 f0 e5 ff ff 	movl   $0x6668575d,-0x1a10(%rbp,%rax,4)
    f463:	5d 57 68 66 
    f467:	83 85 d4 e2 ff ff 01 	addl   $0x1,-0x1d2c(%rbp)
    f46e:	83 bd d4 e2 ff ff 04 	cmpl   $0x4,-0x1d2c(%rbp)
    f475:	7e c6                	jle    f43d <func_58+0x1c56>
    f477:	83 85 d0 e2 ff ff 01 	addl   $0x1,-0x1d30(%rbp)
    f47e:	83 bd d0 e2 ff ff 02 	cmpl   $0x2,-0x1d30(%rbp)
    f485:	7e aa                	jle    f431 <func_58+0x1c4a>
    f487:	c7 85 d0 e2 ff ff 00 	movl   $0x0,-0x1d30(%rbp)
    f48e:	00 00 00 
    f491:	eb 1e                	jmp    f4b1 <func_58+0x1cca>
    f493:	8b 85 d0 e2 ff ff    	mov    -0x1d30(%rbp),%eax
    f499:	48 98                	cltq   
    f49b:	48 8d 15 32 de 00 00 	lea    0xde32(%rip),%rdx        # 1d2d4 <g_659+0x4>
    f4a2:	48 89 94 c5 80 e5 ff 	mov    %rdx,-0x1a80(%rbp,%rax,8)
    f4a9:	ff 
    f4aa:	83 85 d0 e2 ff ff 01 	addl   $0x1,-0x1d30(%rbp)
    f4b1:	83 bd d0 e2 ff ff 04 	cmpl   $0x4,-0x1d30(%rbp)
    f4b8:	7e d9                	jle    f493 <func_58+0x1cac>
    f4ba:	c7 85 a4 e2 ff ff 00 	movl   $0x0,-0x1d5c(%rbp)
    f4c1:	00 00 00 
    f4c4:	eb 4c                	jmp    f512 <func_58+0x1d2b>
    f4c6:	48 8b 85 58 e3 ff ff 	mov    -0x1ca8(%rbp),%rax
    f4cd:	8b 00                	mov    (%rax),%eax
    f4cf:	89 c2                	mov    %eax,%edx
    f4d1:	48 8b 85 28 e4 ff ff 	mov    -0x1bd8(%rbp),%rax
    f4d8:	09 c2                	or     %eax,%edx
    f4da:	48 8b 85 58 e3 ff ff 	mov    -0x1ca8(%rbp),%rax
    f4e1:	89 10                	mov    %edx,(%rax)
    f4e3:	48 8b 85 58 e3 ff ff 	mov    -0x1ca8(%rbp),%rax
    f4ea:	c7 00 ff ff ff ff    	movl   $0xffffffff,(%rax)
    f4f0:	66 83 bd 74 e2 ff ff 	cmpw   $0x0,-0x1d8c(%rbp)
    f4f7:	00 
    f4f8:	75 23                	jne    f51d <func_58+0x1d36>
    f4fa:	48 8b 05 6f 37 01 00 	mov    0x1376f(%rip),%rax        # 22c70 <g_516>
    f501:	48 8b 95 78 e2 ff ff 	mov    -0x1d88(%rbp),%rdx
    f508:	48 89 10             	mov    %rdx,(%rax)
    f50b:	83 85 a4 e2 ff ff 01 	addl   $0x1,-0x1d5c(%rbp)
    f512:	83 bd a4 e2 ff ff 00 	cmpl   $0x0,-0x1d5c(%rbp)
    f519:	7e ab                	jle    f4c6 <func_58+0x1cdf>
    f51b:	eb 01                	jmp    f51e <func_58+0x1d37>
    f51d:	90                   	nop
    f51e:	48 c7 05 d7 dd 00 00 	movq   $0x0,0xddd7(%rip)        # 1d300 <g_794>
    f525:	00 00 00 00 
    f529:	e9 8c 00 00 00       	jmpq   f5ba <func_58+0x1dd3>
    f52e:	c7 85 1c e3 ff ff 3e 	movl   $0x9151ab3e,-0x1ce4(%rbp)
    f535:	ab 51 91 
    f538:	c7 85 20 e3 ff ff d2 	movl   $0x9e6371d2,-0x1ce0(%rbp)
    f53f:	71 63 9e 
    f542:	c7 85 24 e3 ff ff fb 	movl   $0xfffffffb,-0x1cdc(%rbp)
    f549:	ff ff ff 
    f54c:	80 bd 89 e2 ff ff 00 	cmpb   $0x0,-0x1d77(%rbp)
    f553:	74 05                	je     f55a <func_58+0x1d73>
    f555:	e9 1a fc ff ff       	jmpq   f174 <func_58+0x198d>
    f55a:	83 85 24 e3 ff ff 01 	addl   $0x1,-0x1cdc(%rbp)
    f561:	0f b6 05 f0 dc 00 00 	movzbl 0xdcf0(%rip),%eax        # 1d258 <g_343>
    f568:	66 98                	cbtw   
    f56a:	0f b7 c0             	movzwl %ax,%eax
    f56d:	48 8b 15 bc 30 01 00 	mov    0x130bc(%rip),%rdx        # 22630 <g_958>
    f574:	8b 12                	mov    (%rdx),%edx
    f576:	89 c6                	mov    %eax,%esi
    f578:	bf 01 00 00 00       	mov    $0x1,%edi
    f57d:	e8 0c 98 ff ff       	callq  8d8e <safe_div_func_uint16_t_u_u>
    f582:	0f b6 c0             	movzbl %al,%eax
    f585:	89 c6                	mov    %eax,%esi
    f587:	bf 65 00 00 00       	mov    $0x65,%edi
    f58c:	e8 e7 95 ff ff       	callq  8b78 <safe_sub_func_uint8_t_u_u>
    f591:	48 8b 95 58 e3 ff ff 	mov    -0x1ca8(%rbp),%rdx
    f598:	8b 0a                	mov    (%rdx),%ecx
    f59a:	0f b6 d0             	movzbl %al,%edx
    f59d:	48 8b 85 58 e3 ff ff 	mov    -0x1ca8(%rbp),%rax
    f5a4:	09 ca                	or     %ecx,%edx
    f5a6:	89 10                	mov    %edx,(%rax)
    f5a8:	48 8b 05 51 dd 00 00 	mov    0xdd51(%rip),%rax        # 1d300 <g_794>
    f5af:	48 83 c0 01          	add    $0x1,%rax
    f5b3:	48 89 05 46 dd 00 00 	mov    %rax,0xdd46(%rip)        # 1d300 <g_794>
    f5ba:	48 8b 05 3f dd 00 00 	mov    0xdd3f(%rip),%rax        # 1d300 <g_794>
    f5c1:	48 83 f8 01          	cmp    $0x1,%rax
    f5c5:	0f 86 63 ff ff ff    	jbe    f52e <func_58+0x1d47>
    f5cb:	c7 05 d7 f6 00 00 00 	movl   $0x0,0xf6d7(%rip)        # 1ecac <g_1026>
    f5d2:	00 00 00 
    f5d5:	e9 ec 0a 00 00       	jmpq   100c6 <func_58+0x28df>
    f5da:	48 8d 05 89 dc 00 00 	lea    0xdc89(%rip),%rax        # 1d26a <g_406>
    f5e1:	48 89 85 38 e4 ff ff 	mov    %rax,-0x1bc8(%rbp)
    f5e8:	48 8d 85 b0 e5 ff ff 	lea    -0x1a50(%rbp),%rax
    f5ef:	48 83 c0 06          	add    $0x6,%rax
    f5f3:	48 89 85 20 f8 ff ff 	mov    %rax,-0x7e0(%rbp)
    f5fa:	48 8d 05 67 dc 00 00 	lea    0xdc67(%rip),%rax        # 1d268 <g_404>
    f601:	48 89 85 28 f8 ff ff 	mov    %rax,-0x7d8(%rbp)
    f608:	48 8d 05 59 dc 00 00 	lea    0xdc59(%rip),%rax        # 1d268 <g_404>
    f60f:	48 89 85 30 f8 ff ff 	mov    %rax,-0x7d0(%rbp)
    f616:	48 8d 85 b0 e5 ff ff 	lea    -0x1a50(%rbp),%rax
    f61d:	48 83 c0 06          	add    $0x6,%rax
    f621:	48 89 85 38 f8 ff ff 	mov    %rax,-0x7c8(%rbp)
    f628:	48 8d 85 b0 e5 ff ff 	lea    -0x1a50(%rbp),%rax
    f62f:	48 83 c0 06          	add    $0x6,%rax
    f633:	48 89 85 40 f8 ff ff 	mov    %rax,-0x7c0(%rbp)
    f63a:	48 8d 85 b0 e5 ff ff 	lea    -0x1a50(%rbp),%rax
    f641:	48 83 c0 06          	add    $0x6,%rax
    f645:	48 89 85 48 f8 ff ff 	mov    %rax,-0x7b8(%rbp)
    f64c:	48 8d 85 b0 e5 ff ff 	lea    -0x1a50(%rbp),%rax
    f653:	48 83 c0 06          	add    $0x6,%rax
    f657:	48 89 85 50 f8 ff ff 	mov    %rax,-0x7b0(%rbp)
    f65e:	48 8d 05 03 dc 00 00 	lea    0xdc03(%rip),%rax        # 1d268 <g_404>
    f665:	48 89 85 58 f8 ff ff 	mov    %rax,-0x7a8(%rbp)
    f66c:	48 8d 05 f5 db 00 00 	lea    0xdbf5(%rip),%rax        # 1d268 <g_404>
    f673:	48 89 85 60 f8 ff ff 	mov    %rax,-0x7a0(%rbp)
    f67a:	48 8d 85 b0 e5 ff ff 	lea    -0x1a50(%rbp),%rax
    f681:	48 83 c0 16          	add    $0x16,%rax
    f685:	48 89 85 68 f8 ff ff 	mov    %rax,-0x798(%rbp)
    f68c:	48 8d 85 b0 e5 ff ff 	lea    -0x1a50(%rbp),%rax
    f693:	48 83 c0 06          	add    $0x6,%rax
    f697:	48 89 85 70 f8 ff ff 	mov    %rax,-0x790(%rbp)
    f69e:	48 8d 05 c3 db 00 00 	lea    0xdbc3(%rip),%rax        # 1d268 <g_404>
    f6a5:	48 89 85 78 f8 ff ff 	mov    %rax,-0x788(%rbp)
    f6ac:	48 8d 85 8c e2 ff ff 	lea    -0x1d74(%rbp),%rax
    f6b3:	48 89 85 80 f8 ff ff 	mov    %rax,-0x780(%rbp)
    f6ba:	48 8d 05 a7 db 00 00 	lea    0xdba7(%rip),%rax        # 1d268 <g_404>
    f6c1:	48 89 85 88 f8 ff ff 	mov    %rax,-0x778(%rbp)
    f6c8:	48 8d 85 b0 e5 ff ff 	lea    -0x1a50(%rbp),%rax
    f6cf:	48 83 c0 06          	add    $0x6,%rax
    f6d3:	48 89 85 90 f8 ff ff 	mov    %rax,-0x770(%rbp)
    f6da:	48 8d 85 b0 e5 ff ff 	lea    -0x1a50(%rbp),%rax
    f6e1:	48 83 c0 16          	add    $0x16,%rax
    f6e5:	48 89 85 98 f8 ff ff 	mov    %rax,-0x768(%rbp)
    f6ec:	48 8d 05 75 db 00 00 	lea    0xdb75(%rip),%rax        # 1d268 <g_404>
    f6f3:	48 89 85 a0 f8 ff ff 	mov    %rax,-0x760(%rbp)
    f6fa:	48 c7 85 a8 f8 ff ff 	movq   $0x0,-0x758(%rbp)
    f701:	00 00 00 00 
    f705:	48 8d 85 b0 e5 ff ff 	lea    -0x1a50(%rbp),%rax
    f70c:	48 83 c0 28          	add    $0x28,%rax
    f710:	48 89 85 b0 f8 ff ff 	mov    %rax,-0x750(%rbp)
    f717:	48 8d 05 4a db 00 00 	lea    0xdb4a(%rip),%rax        # 1d268 <g_404>
    f71e:	48 89 85 b8 f8 ff ff 	mov    %rax,-0x748(%rbp)
    f725:	48 c7 85 c0 f8 ff ff 	movq   $0x0,-0x740(%rbp)
    f72c:	00 00 00 00 
    f730:	48 8d 85 b0 e5 ff ff 	lea    -0x1a50(%rbp),%rax
    f737:	48 83 c0 06          	add    $0x6,%rax
    f73b:	48 89 85 c8 f8 ff ff 	mov    %rax,-0x738(%rbp)
    f742:	48 8d 85 b0 e5 ff ff 	lea    -0x1a50(%rbp),%rax
    f749:	48 83 c0 06          	add    $0x6,%rax
    f74d:	48 89 85 d0 f8 ff ff 	mov    %rax,-0x730(%rbp)
    f754:	48 8d 85 b0 e5 ff ff 	lea    -0x1a50(%rbp),%rax
    f75b:	48 83 c0 1e          	add    $0x1e,%rax
    f75f:	48 89 85 d8 f8 ff ff 	mov    %rax,-0x728(%rbp)
    f766:	48 8d 85 b0 e5 ff ff 	lea    -0x1a50(%rbp),%rax
    f76d:	48 83 c0 28          	add    $0x28,%rax
    f771:	48 89 85 e0 f8 ff ff 	mov    %rax,-0x720(%rbp)
    f778:	48 8d 05 e9 da 00 00 	lea    0xdae9(%rip),%rax        # 1d268 <g_404>
    f77f:	48 89 85 e8 f8 ff ff 	mov    %rax,-0x718(%rbp)
    f786:	48 8d 85 8c e2 ff ff 	lea    -0x1d74(%rbp),%rax
    f78d:	48 89 85 f0 f8 ff ff 	mov    %rax,-0x710(%rbp)
    f794:	48 8d 85 8c e2 ff ff 	lea    -0x1d74(%rbp),%rax
    f79b:	48 89 85 f8 f8 ff ff 	mov    %rax,-0x708(%rbp)
    f7a2:	48 8d 85 b0 e5 ff ff 	lea    -0x1a50(%rbp),%rax
    f7a9:	48 83 c0 06          	add    $0x6,%rax
    f7ad:	48 89 85 00 f9 ff ff 	mov    %rax,-0x700(%rbp)
    f7b4:	48 8d 85 b0 e5 ff ff 	lea    -0x1a50(%rbp),%rax
    f7bb:	48 83 c0 06          	add    $0x6,%rax
    f7bf:	48 89 85 08 f9 ff ff 	mov    %rax,-0x6f8(%rbp)
    f7c6:	48 8d 85 b0 e5 ff ff 	lea    -0x1a50(%rbp),%rax
    f7cd:	48 83 c0 16          	add    $0x16,%rax
    f7d1:	48 89 85 10 f9 ff ff 	mov    %rax,-0x6f0(%rbp)
    f7d8:	48 8d 05 89 da 00 00 	lea    0xda89(%rip),%rax        # 1d268 <g_404>
    f7df:	48 89 85 18 f9 ff ff 	mov    %rax,-0x6e8(%rbp)
    f7e6:	48 c7 85 20 f9 ff ff 	movq   $0x0,-0x6e0(%rbp)
    f7ed:	00 00 00 00 
    f7f1:	48 8d 85 8c e2 ff ff 	lea    -0x1d74(%rbp),%rax
    f7f8:	48 89 85 28 f9 ff ff 	mov    %rax,-0x6d8(%rbp)
    f7ff:	48 8d 05 62 da 00 00 	lea    0xda62(%rip),%rax        # 1d268 <g_404>
    f806:	48 89 85 30 f9 ff ff 	mov    %rax,-0x6d0(%rbp)
    f80d:	48 8d 05 54 da 00 00 	lea    0xda54(%rip),%rax        # 1d268 <g_404>
    f814:	48 89 85 38 f9 ff ff 	mov    %rax,-0x6c8(%rbp)
    f81b:	48 8d 85 b0 e5 ff ff 	lea    -0x1a50(%rbp),%rax
    f822:	48 83 c0 06          	add    $0x6,%rax
    f826:	48 89 85 40 f9 ff ff 	mov    %rax,-0x6c0(%rbp)
    f82d:	48 8d 05 34 da 00 00 	lea    0xda34(%rip),%rax        # 1d268 <g_404>
    f834:	48 89 85 48 f9 ff ff 	mov    %rax,-0x6b8(%rbp)
    f83b:	48 8d 85 b0 e5 ff ff 	lea    -0x1a50(%rbp),%rax
    f842:	48 83 c0 06          	add    $0x6,%rax
    f846:	48 89 85 50 f9 ff ff 	mov    %rax,-0x6b0(%rbp)
    f84d:	48 8d 85 b0 e5 ff ff 	lea    -0x1a50(%rbp),%rax
    f854:	48 83 c0 28          	add    $0x28,%rax
    f858:	48 89 85 58 f9 ff ff 	mov    %rax,-0x6a8(%rbp)
    f85f:	48 8d 85 b0 e5 ff ff 	lea    -0x1a50(%rbp),%rax
    f866:	48 83 c0 06          	add    $0x6,%rax
    f86a:	48 89 85 60 f9 ff ff 	mov    %rax,-0x6a0(%rbp)
    f871:	48 8d 05 f0 d9 00 00 	lea    0xd9f0(%rip),%rax        # 1d268 <g_404>
    f878:	48 89 85 68 f9 ff ff 	mov    %rax,-0x698(%rbp)
    f87f:	48 8d 85 b0 e5 ff ff 	lea    -0x1a50(%rbp),%rax
    f886:	48 83 c0 06          	add    $0x6,%rax
    f88a:	48 89 85 70 f9 ff ff 	mov    %rax,-0x690(%rbp)
    f891:	48 8d 05 d0 d9 00 00 	lea    0xd9d0(%rip),%rax        # 1d268 <g_404>
    f898:	48 89 85 78 f9 ff ff 	mov    %rax,-0x688(%rbp)
    f89f:	48 c7 85 80 f9 ff ff 	movq   $0x0,-0x680(%rbp)
    f8a6:	00 00 00 00 
    f8aa:	48 8d 85 8c e2 ff ff 	lea    -0x1d74(%rbp),%rax
    f8b1:	48 89 85 88 f9 ff ff 	mov    %rax,-0x678(%rbp)
    f8b8:	48 8d 85 b0 e5 ff ff 	lea    -0x1a50(%rbp),%rax
    f8bf:	48 83 c0 06          	add    $0x6,%rax
    f8c3:	48 89 85 90 f9 ff ff 	mov    %rax,-0x670(%rbp)
    f8ca:	48 8d 05 97 d9 00 00 	lea    0xd997(%rip),%rax        # 1d268 <g_404>
    f8d1:	48 89 85 98 f9 ff ff 	mov    %rax,-0x668(%rbp)
    f8d8:	48 8d 85 8c e2 ff ff 	lea    -0x1d74(%rbp),%rax
    f8df:	48 89 85 a0 f9 ff ff 	mov    %rax,-0x660(%rbp)
    f8e6:	48 8d 05 7b d9 00 00 	lea    0xd97b(%rip),%rax        # 1d268 <g_404>
    f8ed:	48 89 85 a8 f9 ff ff 	mov    %rax,-0x658(%rbp)
    f8f4:	48 8d 85 8c e2 ff ff 	lea    -0x1d74(%rbp),%rax
    f8fb:	48 89 85 b0 f9 ff ff 	mov    %rax,-0x650(%rbp)
    f902:	48 8d 85 8c e2 ff ff 	lea    -0x1d74(%rbp),%rax
    f909:	48 89 85 b8 f9 ff ff 	mov    %rax,-0x648(%rbp)
    f910:	48 8d 05 51 d9 00 00 	lea    0xd951(%rip),%rax        # 1d268 <g_404>
    f917:	48 89 85 c0 f9 ff ff 	mov    %rax,-0x640(%rbp)
    f91e:	48 8d 85 b0 e5 ff ff 	lea    -0x1a50(%rbp),%rax
    f925:	48 83 c0 14          	add    $0x14,%rax
    f929:	48 89 85 c8 f9 ff ff 	mov    %rax,-0x638(%rbp)
    f930:	48 8d 85 b0 e5 ff ff 	lea    -0x1a50(%rbp),%rax
    f937:	48 83 c0 06          	add    $0x6,%rax
    f93b:	48 89 85 d0 f9 ff ff 	mov    %rax,-0x630(%rbp)
    f942:	48 8d 05 1f d9 00 00 	lea    0xd91f(%rip),%rax        # 1d268 <g_404>
    f949:	48 89 85 d8 f9 ff ff 	mov    %rax,-0x628(%rbp)
    f950:	48 8d 05 11 d9 00 00 	lea    0xd911(%rip),%rax        # 1d268 <g_404>
    f957:	48 89 85 e0 f9 ff ff 	mov    %rax,-0x620(%rbp)
    f95e:	48 8d 85 b0 e5 ff ff 	lea    -0x1a50(%rbp),%rax
    f965:	48 83 c0 06          	add    $0x6,%rax
    f969:	48 89 85 e8 f9 ff ff 	mov    %rax,-0x618(%rbp)
    f970:	48 8d 85 b0 e5 ff ff 	lea    -0x1a50(%rbp),%rax
    f977:	48 83 c0 06          	add    $0x6,%rax
    f97b:	48 89 85 f0 f9 ff ff 	mov    %rax,-0x610(%rbp)
    f982:	48 8d 85 b0 e5 ff ff 	lea    -0x1a50(%rbp),%rax
    f989:	48 83 c0 06          	add    $0x6,%rax
    f98d:	48 89 85 f8 f9 ff ff 	mov    %rax,-0x608(%rbp)
    f994:	48 8d 85 b0 e5 ff ff 	lea    -0x1a50(%rbp),%rax
    f99b:	48 83 c0 06          	add    $0x6,%rax
    f99f:	48 89 85 00 fa ff ff 	mov    %rax,-0x600(%rbp)
    f9a6:	48 8d 05 bb d8 00 00 	lea    0xd8bb(%rip),%rax        # 1d268 <g_404>
    f9ad:	48 89 85 08 fa ff ff 	mov    %rax,-0x5f8(%rbp)
    f9b4:	48 8d 05 ad d8 00 00 	lea    0xd8ad(%rip),%rax        # 1d268 <g_404>
    f9bb:	48 89 85 10 fa ff ff 	mov    %rax,-0x5f0(%rbp)
    f9c2:	48 8d 85 b0 e5 ff ff 	lea    -0x1a50(%rbp),%rax
    f9c9:	48 83 c0 16          	add    $0x16,%rax
    f9cd:	48 89 85 18 fa ff ff 	mov    %rax,-0x5e8(%rbp)
    f9d4:	48 8d 85 b0 e5 ff ff 	lea    -0x1a50(%rbp),%rax
    f9db:	48 83 c0 06          	add    $0x6,%rax
    f9df:	48 89 85 20 fa ff ff 	mov    %rax,-0x5e0(%rbp)
    f9e6:	48 8d 05 7b d8 00 00 	lea    0xd87b(%rip),%rax        # 1d268 <g_404>
    f9ed:	48 89 85 28 fa ff ff 	mov    %rax,-0x5d8(%rbp)
    f9f4:	48 8d 85 8c e2 ff ff 	lea    -0x1d74(%rbp),%rax
    f9fb:	48 89 85 30 fa ff ff 	mov    %rax,-0x5d0(%rbp)
    fa02:	48 8d 05 5f d8 00 00 	lea    0xd85f(%rip),%rax        # 1d268 <g_404>
    fa09:	48 89 85 38 fa ff ff 	mov    %rax,-0x5c8(%rbp)
    fa10:	48 8d 85 b0 e5 ff ff 	lea    -0x1a50(%rbp),%rax
    fa17:	48 83 c0 06          	add    $0x6,%rax
    fa1b:	48 89 85 40 fa ff ff 	mov    %rax,-0x5c0(%rbp)
    fa22:	48 8d 85 b0 e5 ff ff 	lea    -0x1a50(%rbp),%rax
    fa29:	48 83 c0 16          	add    $0x16,%rax
    fa2d:	48 89 85 48 fa ff ff 	mov    %rax,-0x5b8(%rbp)
    fa34:	48 8d 05 2d d8 00 00 	lea    0xd82d(%rip),%rax        # 1d268 <g_404>
    fa3b:	48 89 85 50 fa ff ff 	mov    %rax,-0x5b0(%rbp)
    fa42:	48 c7 85 58 fa ff ff 	movq   $0x0,-0x5a8(%rbp)
    fa49:	00 00 00 00 
    fa4d:	48 8d 85 b0 e5 ff ff 	lea    -0x1a50(%rbp),%rax
    fa54:	48 83 c0 28          	add    $0x28,%rax
    fa58:	48 89 85 60 fa ff ff 	mov    %rax,-0x5a0(%rbp)
    fa5f:	48 8d 05 02 d8 00 00 	lea    0xd802(%rip),%rax        # 1d268 <g_404>
    fa66:	48 89 85 68 fa ff ff 	mov    %rax,-0x598(%rbp)
    fa6d:	48 c7 85 70 fa ff ff 	movq   $0x0,-0x590(%rbp)
    fa74:	00 00 00 00 
    fa78:	48 8d 85 b0 e5 ff ff 	lea    -0x1a50(%rbp),%rax
    fa7f:	48 83 c0 06          	add    $0x6,%rax
    fa83:	48 89 85 78 fa ff ff 	mov    %rax,-0x588(%rbp)
    fa8a:	48 8d 85 b0 e5 ff ff 	lea    -0x1a50(%rbp),%rax
    fa91:	48 83 c0 06          	add    $0x6,%rax
    fa95:	48 89 85 80 fa ff ff 	mov    %rax,-0x580(%rbp)
    fa9c:	48 8d 85 b0 e5 ff ff 	lea    -0x1a50(%rbp),%rax
    faa3:	48 83 c0 1e          	add    $0x1e,%rax
    faa7:	48 89 85 88 fa ff ff 	mov    %rax,-0x578(%rbp)
    faae:	48 8d 85 b0 e5 ff ff 	lea    -0x1a50(%rbp),%rax
    fab5:	48 83 c0 28          	add    $0x28,%rax
    fab9:	48 89 85 90 fa ff ff 	mov    %rax,-0x570(%rbp)
    fac0:	48 8d 05 a1 d7 00 00 	lea    0xd7a1(%rip),%rax        # 1d268 <g_404>
    fac7:	48 89 85 98 fa ff ff 	mov    %rax,-0x568(%rbp)
    face:	48 8d 85 8c e2 ff ff 	lea    -0x1d74(%rbp),%rax
    fad5:	48 89 85 a0 fa ff ff 	mov    %rax,-0x560(%rbp)
    fadc:	48 8d 85 8c e2 ff ff 	lea    -0x1d74(%rbp),%rax
    fae3:	48 89 85 a8 fa ff ff 	mov    %rax,-0x558(%rbp)
    faea:	48 8d 85 b0 e5 ff ff 	lea    -0x1a50(%rbp),%rax
    faf1:	48 83 c0 06          	add    $0x6,%rax
    faf5:	48 89 85 b0 fa ff ff 	mov    %rax,-0x550(%rbp)
    fafc:	48 8d 85 b0 e5 ff ff 	lea    -0x1a50(%rbp),%rax
    fb03:	48 83 c0 06          	add    $0x6,%rax
    fb07:	48 89 85 b8 fa ff ff 	mov    %rax,-0x548(%rbp)
    fb0e:	48 8d 85 b0 e5 ff ff 	lea    -0x1a50(%rbp),%rax
    fb15:	48 83 c0 16          	add    $0x16,%rax
    fb19:	48 89 85 c0 fa ff ff 	mov    %rax,-0x540(%rbp)
    fb20:	48 8d 05 41 d7 00 00 	lea    0xd741(%rip),%rax        # 1d268 <g_404>
    fb27:	48 89 85 c8 fa ff ff 	mov    %rax,-0x538(%rbp)
    fb2e:	48 c7 85 d0 fa ff ff 	movq   $0x0,-0x530(%rbp)
    fb35:	00 00 00 00 
    fb39:	48 8d 85 8c e2 ff ff 	lea    -0x1d74(%rbp),%rax
    fb40:	48 89 85 d8 fa ff ff 	mov    %rax,-0x528(%rbp)
    fb47:	48 8d 05 1a d7 00 00 	lea    0xd71a(%rip),%rax        # 1d268 <g_404>
    fb4e:	48 89 85 e0 fa ff ff 	mov    %rax,-0x520(%rbp)
    fb55:	48 8d 05 0c d7 00 00 	lea    0xd70c(%rip),%rax        # 1d268 <g_404>
    fb5c:	48 89 85 e8 fa ff ff 	mov    %rax,-0x518(%rbp)
    fb63:	48 8d 85 b0 e5 ff ff 	lea    -0x1a50(%rbp),%rax
    fb6a:	48 83 c0 06          	add    $0x6,%rax
    fb6e:	48 89 85 f0 fa ff ff 	mov    %rax,-0x510(%rbp)
    fb75:	48 8d 05 ec d6 00 00 	lea    0xd6ec(%rip),%rax        # 1d268 <g_404>
    fb7c:	48 89 85 f8 fa ff ff 	mov    %rax,-0x508(%rbp)
    fb83:	48 8d 85 b0 e5 ff ff 	lea    -0x1a50(%rbp),%rax
    fb8a:	48 83 c0 06          	add    $0x6,%rax
    fb8e:	48 89 85 00 fb ff ff 	mov    %rax,-0x500(%rbp)
    fb95:	48 8d 85 b0 e5 ff ff 	lea    -0x1a50(%rbp),%rax
    fb9c:	48 83 c0 28          	add    $0x28,%rax
    fba0:	48 89 85 08 fb ff ff 	mov    %rax,-0x4f8(%rbp)
    fba7:	48 8d 85 b0 e5 ff ff 	lea    -0x1a50(%rbp),%rax
    fbae:	48 83 c0 06          	add    $0x6,%rax
    fbb2:	48 89 85 10 fb ff ff 	mov    %rax,-0x4f0(%rbp)
    fbb9:	48 8d 05 a8 d6 00 00 	lea    0xd6a8(%rip),%rax        # 1d268 <g_404>
    fbc0:	48 89 85 18 fb ff ff 	mov    %rax,-0x4e8(%rbp)
    fbc7:	48 8d 85 b0 e5 ff ff 	lea    -0x1a50(%rbp),%rax
    fbce:	48 83 c0 06          	add    $0x6,%rax
    fbd2:	48 89 85 20 fb ff ff 	mov    %rax,-0x4e0(%rbp)
    fbd9:	48 8d 05 88 d6 00 00 	lea    0xd688(%rip),%rax        # 1d268 <g_404>
    fbe0:	48 89 85 28 fb ff ff 	mov    %rax,-0x4d8(%rbp)
    fbe7:	48 c7 85 30 fb ff ff 	movq   $0x0,-0x4d0(%rbp)
    fbee:	00 00 00 00 
    fbf2:	48 8d 85 8c e2 ff ff 	lea    -0x1d74(%rbp),%rax
    fbf9:	48 89 85 38 fb ff ff 	mov    %rax,-0x4c8(%rbp)
    fc00:	48 8d 85 b0 e5 ff ff 	lea    -0x1a50(%rbp),%rax
    fc07:	48 83 c0 06          	add    $0x6,%rax
    fc0b:	48 89 85 40 fb ff ff 	mov    %rax,-0x4c0(%rbp)
    fc12:	48 8d 05 4f d6 00 00 	lea    0xd64f(%rip),%rax        # 1d268 <g_404>
    fc19:	48 89 85 48 fb ff ff 	mov    %rax,-0x4b8(%rbp)
    fc20:	48 8d 85 8c e2 ff ff 	lea    -0x1d74(%rbp),%rax
    fc27:	48 89 85 50 fb ff ff 	mov    %rax,-0x4b0(%rbp)
    fc2e:	48 8d 05 33 d6 00 00 	lea    0xd633(%rip),%rax        # 1d268 <g_404>
    fc35:	48 89 85 58 fb ff ff 	mov    %rax,-0x4a8(%rbp)
    fc3c:	48 8d 85 b0 e5 ff ff 	lea    -0x1a50(%rbp),%rax
    fc43:	48 83 c0 06          	add    $0x6,%rax
    fc47:	48 89 85 60 fb ff ff 	mov    %rax,-0x4a0(%rbp)
    fc4e:	48 8d 05 13 d6 00 00 	lea    0xd613(%rip),%rax        # 1d268 <g_404>
    fc55:	48 89 85 68 fb ff ff 	mov    %rax,-0x498(%rbp)
    fc5c:	48 8d 05 05 d6 00 00 	lea    0xd605(%rip),%rax        # 1d268 <g_404>
    fc63:	48 89 85 70 fb ff ff 	mov    %rax,-0x490(%rbp)
    fc6a:	48 8d 85 b0 e5 ff ff 	lea    -0x1a50(%rbp),%rax
    fc71:	48 83 c0 06          	add    $0x6,%rax
    fc75:	48 89 85 78 fb ff ff 	mov    %rax,-0x488(%rbp)
    fc7c:	48 8d 85 8c e2 ff ff 	lea    -0x1d74(%rbp),%rax
    fc83:	48 89 85 80 fb ff ff 	mov    %rax,-0x480(%rbp)
    fc8a:	48 8d 85 b0 e5 ff ff 	lea    -0x1a50(%rbp),%rax
    fc91:	48 83 c0 06          	add    $0x6,%rax
    fc95:	48 89 85 88 fb ff ff 	mov    %rax,-0x478(%rbp)
    fc9c:	48 c7 85 90 fb ff ff 	movq   $0x0,-0x470(%rbp)
    fca3:	00 00 00 00 
    fca7:	48 c7 85 98 fb ff ff 	movq   $0x0,-0x468(%rbp)
    fcae:	00 00 00 00 
    fcb2:	48 8d 05 af d5 00 00 	lea    0xd5af(%rip),%rax        # 1d268 <g_404>
    fcb9:	48 89 85 a0 fb ff ff 	mov    %rax,-0x460(%rbp)
    fcc0:	48 8d 85 b0 e5 ff ff 	lea    -0x1a50(%rbp),%rax
    fcc7:	48 83 c0 06          	add    $0x6,%rax
    fccb:	48 89 85 a8 fb ff ff 	mov    %rax,-0x458(%rbp)
    fcd2:	48 8d 85 8c e2 ff ff 	lea    -0x1d74(%rbp),%rax
    fcd9:	48 89 85 b0 fb ff ff 	mov    %rax,-0x450(%rbp)
    fce0:	48 c7 85 b8 fb ff ff 	movq   $0x0,-0x448(%rbp)
    fce7:	00 00 00 00 
    fceb:	48 c7 85 c0 fb ff ff 	movq   $0x0,-0x440(%rbp)
    fcf2:	00 00 00 00 
    fcf6:	48 c7 85 c8 fb ff ff 	movq   $0x0,-0x438(%rbp)
    fcfd:	00 00 00 00 
    fd01:	48 8d 85 b0 e5 ff ff 	lea    -0x1a50(%rbp),%rax
    fd08:	48 83 c0 06          	add    $0x6,%rax
    fd0c:	48 89 85 d0 fb ff ff 	mov    %rax,-0x430(%rbp)
    fd13:	48 8d 05 4e d5 00 00 	lea    0xd54e(%rip),%rax        # 1d268 <g_404>
    fd1a:	48 89 85 d8 fb ff ff 	mov    %rax,-0x428(%rbp)
    fd21:	48 8d 05 40 d5 00 00 	lea    0xd540(%rip),%rax        # 1d268 <g_404>
    fd28:	48 89 85 e0 fb ff ff 	mov    %rax,-0x420(%rbp)
    fd2f:	48 8d 05 32 d5 00 00 	lea    0xd532(%rip),%rax        # 1d268 <g_404>
    fd36:	48 89 85 e8 fb ff ff 	mov    %rax,-0x418(%rbp)
    fd3d:	48 8d 85 b0 e5 ff ff 	lea    -0x1a50(%rbp),%rax
    fd44:	48 83 c0 06          	add    $0x6,%rax
    fd48:	48 89 85 f0 fb ff ff 	mov    %rax,-0x410(%rbp)
    fd4f:	48 c7 85 f8 fb ff ff 	movq   $0x0,-0x408(%rbp)
    fd56:	00 00 00 00 
    fd5a:	48 8d 05 07 d5 00 00 	lea    0xd507(%rip),%rax        # 1d268 <g_404>
    fd61:	48 89 85 00 fc ff ff 	mov    %rax,-0x400(%rbp)
    fd68:	48 8d 85 8c e2 ff ff 	lea    -0x1d74(%rbp),%rax
    fd6f:	48 89 85 08 fc ff ff 	mov    %rax,-0x3f8(%rbp)
    fd76:	48 8d 05 23 d5 00 00 	lea    0xd523(%rip),%rax        # 1d2a0 <g_548>
    fd7d:	48 89 85 40 e4 ff ff 	mov    %rax,-0x1bc0(%rbp)
    fd84:	48 8d 85 b0 e6 ff ff 	lea    -0x1950(%rbp),%rax
    fd8b:	48 05 f8 00 00 00    	add    $0xf8,%rax
    fd91:	48 89 85 48 e4 ff ff 	mov    %rax,-0x1bb8(%rbp)
    fd98:	48 c7 85 50 e4 ff ff 	movq   $0xfffffffffffffffd,-0x1bb0(%rbp)
    fd9f:	fd ff ff ff 
    fda3:	c7 85 d8 e2 ff ff 00 	movl   $0x0,-0x1d28(%rbp)
    fdaa:	00 00 00 
    fdad:	eb 73                	jmp    fe22 <func_58+0x263b>
    fdaf:	c7 85 dc e2 ff ff 00 	movl   $0x0,-0x1d24(%rbp)
    fdb6:	00 00 00 
    fdb9:	eb 57                	jmp    fe12 <func_58+0x262b>
    fdbb:	c7 85 e0 e2 ff ff 00 	movl   $0x0,-0x1d20(%rbp)
    fdc2:	00 00 00 
    fdc5:	eb 3b                	jmp    fe02 <func_58+0x261b>
    fdc7:	8b 85 e0 e2 ff ff    	mov    -0x1d20(%rbp),%eax
    fdcd:	48 98                	cltq   
    fdcf:	8b 95 d8 e2 ff ff    	mov    -0x1d28(%rbp),%edx
    fdd5:	48 63 ca             	movslq %edx,%rcx
    fdd8:	8b 95 dc e2 ff ff    	mov    -0x1d24(%rbp),%edx
    fdde:	48 63 d2             	movslq %edx,%rdx
    fde1:	48 c1 e1 03          	shl    $0x3,%rcx
    fde5:	48 01 ca             	add    %rcx,%rdx
    fde8:	48 c1 e2 02          	shl    $0x2,%rdx
    fdec:	48 01 d0             	add    %rdx,%rax
    fdef:	48 c7 84 c5 b0 e6 ff 	movq   $0x0,-0x1950(%rbp,%rax,8)
    fdf6:	ff 00 00 00 00 
    fdfb:	83 85 e0 e2 ff ff 01 	addl   $0x1,-0x1d20(%rbp)
    fe02:	83 bd e0 e2 ff ff 03 	cmpl   $0x3,-0x1d20(%rbp)
    fe09:	7e bc                	jle    fdc7 <func_58+0x25e0>
    fe0b:	83 85 dc e2 ff ff 01 	addl   $0x1,-0x1d24(%rbp)
    fe12:	83 bd dc e2 ff ff 07 	cmpl   $0x7,-0x1d24(%rbp)
    fe19:	7e a0                	jle    fdbb <func_58+0x25d4>
    fe1b:	83 85 d8 e2 ff ff 01 	addl   $0x1,-0x1d28(%rbp)
    fe22:	83 bd d8 e2 ff ff 00 	cmpl   $0x0,-0x1d28(%rbp)
    fe29:	7e 84                	jle    fdaf <func_58+0x25c8>
    fe2b:	0f b6 9d 8b e2 ff ff 	movzbl -0x1d75(%rbp),%ebx
    fe32:	48 8b 05 1f d3 00 00 	mov    0xd31f(%rip),%rax        # 1d158 <g_162+0x98>
    fe39:	48 8b 05 28 1f 01 00 	mov    0x11f28(%rip),%rax        # 21d68 <g_513>
    fe40:	48 8b 00             	mov    (%rax),%rax
    fe43:	48 85 c0             	test   %rax,%rax
    fe46:	8b 85 ac e2 ff ff    	mov    -0x1d54(%rbp),%eax
    fe4c:	89 c2                	mov    %eax,%edx
    fe4e:	48 8b 85 38 e4 ff ff 	mov    -0x1bc8(%rbp),%rax
    fe55:	66 89 10             	mov    %dx,(%rax)
    fe58:	48 8b 85 38 e4 ff ff 	mov    -0x1bc8(%rbp),%rax
    fe5f:	0f b7 00             	movzwl (%rax),%eax
    fe62:	98                   	cwtl   
    fe63:	89 85 08 e3 ff ff    	mov    %eax,-0x1cf8(%rbp)
    fe69:	8b 05 21 d4 00 00    	mov    0xd421(%rip),%eax        # 1d290 <g_448>
    fe6f:	83 f8 4d             	cmp    $0x4d,%eax
    fe72:	0f 9f c0             	setg   %al
    fe75:	0f b6 c0             	movzbl %al,%eax
    fe78:	be 09 00 00 00       	mov    $0x9,%esi
    fe7d:	89 c7                	mov    %eax,%edi
    fe7f:	e8 82 8f ff ff       	callq  8e06 <safe_lshift_func_uint16_t_u_u>
    fe84:	66 85 c0             	test   %ax,%ax
    fe87:	75 0b                	jne    fe94 <func_58+0x26ad>
    fe89:	48 8b 85 58 e3 ff ff 	mov    -0x1ca8(%rbp),%rax
    fe90:	8b 00                	mov    (%rax),%eax
    fe92:	85 c0                	test   %eax,%eax
    fe94:	0f b7 85 74 e2 ff ff 	movzwl -0x1d8c(%rbp),%eax
    fe9b:	0f b7 d0             	movzwl %ax,%edx
    fe9e:	0f b7 85 74 e2 ff ff 	movzwl -0x1d8c(%rbp),%eax
    fea5:	0f b7 c0             	movzwl %ax,%eax
    fea8:	89 d6                	mov    %edx,%esi
    feaa:	89 c7                	mov    %eax,%edi
    feac:	e8 8c 8e ff ff       	callq  8d3d <safe_mul_func_uint16_t_u_u>
    feb1:	66 85 c0             	test   %ax,%ax
    feb4:	8b 85 fc e2 ff ff    	mov    -0x1d04(%rbp),%eax
    feba:	0f b7 c0             	movzwl %ax,%eax
    febd:	be 01 00 00 00       	mov    $0x1,%esi
    fec2:	89 c7                	mov    %eax,%edi
    fec4:	e8 56 8e ff ff       	callq  8d1f <safe_sub_func_uint16_t_u_u>
    fec9:	89 de                	mov    %ebx,%esi
    fecb:	bf 00 00 00 00       	mov    $0x0,%edi
    fed0:	e8 e1 86 ff ff       	callq  85b6 <safe_add_func_int32_t_s_s>
    fed5:	89 c2                	mov    %eax,%edx
    fed7:	48 8b 85 40 e4 ff ff 	mov    -0x1bc0(%rbp),%rax
    fede:	66 89 10             	mov    %dx,(%rax)
    fee1:	48 8b 85 40 e4 ff ff 	mov    -0x1bc0(%rbp),%rax
    fee8:	0f b7 00             	movzwl (%rax),%eax
    feeb:	0f b7 c0             	movzwl %ax,%eax
    feee:	89 c6                	mov    %eax,%esi
    fef0:	bf f9 ff 00 00       	mov    $0xfff9,%edi
    fef5:	e8 94 8e ff ff       	callq  8d8e <safe_div_func_uint16_t_u_u>
    fefa:	89 c2                	mov    %eax,%edx
    fefc:	48 8b 85 58 e3 ff ff 	mov    -0x1ca8(%rbp),%rax
    ff03:	0f b7 d2             	movzwl %dx,%edx
    ff06:	89 10                	mov    %edx,(%rax)
    ff08:	48 8b 85 58 e3 ff ff 	mov    -0x1ca8(%rbp),%rax
    ff0f:	8b 18                	mov    (%rax),%ebx
    ff11:	0f b6 05 40 d3 00 00 	movzbl 0xd340(%rip),%eax        # 1d258 <g_343>
    ff18:	4c 0f be e0          	movsbq %al,%r12
    ff1c:	48 8b 05 40 81 00 00 	mov    0x8140(%rip),%rax        # 18063 <g_151+0x3>
    ff23:	0f be c0             	movsbl %al,%eax
    ff26:	be 01 00 00 00       	mov    $0x1,%esi
    ff2b:	89 c7                	mov    %eax,%edi
    ff2d:	e8 bc 83 ff ff       	callq  82ee <safe_lshift_func_int8_t_s_u>
    ff32:	84 c0                	test   %al,%al
    ff34:	0f 85 9c 00 00 00    	jne    ffd6 <func_58+0x27ef>
    ff3a:	48 8b 05 af ed 00 00 	mov    0xedaf(%rip),%rax        # 1ecf0 <g_1115>
    ff41:	0f bf 8d 74 e2 ff ff 	movswl -0x1d8c(%rbp),%ecx
    ff48:	48 8b 85 48 e4 ff ff 	mov    -0x1bb8(%rbp),%rax
    ff4f:	48 8b 95 78 e2 ff ff 	mov    -0x1d88(%rbp),%rdx
    ff56:	48 89 10             	mov    %rdx,(%rax)
    ff59:	48 8b 85 48 e4 ff ff 	mov    -0x1bb8(%rbp),%rax
    ff60:	48 8b 00             	mov    (%rax),%rax
    ff63:	48 8d 15 de d2 00 00 	lea    0xd2de(%rip),%rdx        # 1d248 <g_331>
    ff6a:	48 39 d0             	cmp    %rdx,%rax
    ff6d:	0f 94 c0             	sete   %al
    ff70:	0f b6 c0             	movzbl %al,%eax
    ff73:	39 c1                	cmp    %eax,%ecx
    ff75:	74 38                	je     ffaf <func_58+0x27c8>
    ff77:	be 5b 45 00 00       	mov    $0x455b,%esi
    ff7c:	bf 50 6b 00 00       	mov    $0x6b50,%edi
    ff81:	e8 6f 84 ff ff       	callq  83f5 <safe_mul_func_int16_t_s_s>
    ff86:	48 8b 95 d8 e3 ff ff 	mov    -0x1c28(%rbp),%rdx
    ff8d:	8b 12                	mov    (%rdx),%edx
    ff8f:	98                   	cwtl   
    ff90:	09 c2                	or     %eax,%edx
    ff92:	48 8b 85 d8 e3 ff ff 	mov    -0x1c28(%rbp),%rax
    ff99:	89 10                	mov    %edx,(%rax)
    ff9b:	48 8b 85 d8 e3 ff ff 	mov    -0x1c28(%rbp),%rax
    ffa2:	8b 00                	mov    (%rax),%eax
    ffa4:	85 c0                	test   %eax,%eax
    ffa6:	74 07                	je     ffaf <func_58+0x27c8>
    ffa8:	b8 01 00 00 00       	mov    $0x1,%eax
    ffad:	eb 05                	jmp    ffb4 <func_58+0x27cd>
    ffaf:	b8 00 00 00 00       	mov    $0x0,%eax
    ffb4:	66 89 85 74 e2 ff ff 	mov    %ax,-0x1d8c(%rbp)
    ffbb:	0f b7 85 74 e2 ff ff 	movzwl -0x1d8c(%rbp),%eax
    ffc2:	0f b7 c0             	movzwl %ax,%eax
    ffc5:	89 c6                	mov    %eax,%esi
    ffc7:	bf 36 63 00 00       	mov    $0x6336,%edi
    ffcc:	e8 6c 8d ff ff       	callq  8d3d <safe_mul_func_uint16_t_u_u>
    ffd1:	66 85 c0             	test   %ax,%ax
    ffd4:	74 11                	je     ffe7 <func_58+0x2800>
    ffd6:	48 83 bd 50 e4 ff ff 	cmpq   $0x0,-0x1bb0(%rbp)
    ffdd:	00 
    ffde:	74 07                	je     ffe7 <func_58+0x2800>
    ffe0:	ba 01 00 00 00       	mov    $0x1,%edx
    ffe5:	eb 05                	jmp    ffec <func_58+0x2805>
    ffe7:	ba 00 00 00 00       	mov    $0x0,%edx
    ffec:	0f b6 05 57 d0 00 00 	movzbl 0xd057(%rip),%eax        # 1d04a <g_31+0xa>
    fff3:	0f b6 c0             	movzbl %al,%eax
    fff6:	39 c2                	cmp    %eax,%edx
    fff8:	7f 08                	jg     10002 <func_58+0x281b>
    fffa:	66 83 bd 92 e2 ff ff 	cmpw   $0x0,-0x1d6e(%rbp)
   10001:	00 
   10002:	48 8b 85 38 e4 ff ff 	mov    -0x1bc8(%rbp),%rax
   10009:	0f b7 00             	movzwl (%rax),%eax
   1000c:	66 35 ef f7          	xor    $0xf7ef,%ax
   10010:	89 c2                	mov    %eax,%edx
   10012:	48 8b 85 38 e4 ff ff 	mov    -0x1bc8(%rbp),%rax
   10019:	66 89 10             	mov    %dx,(%rax)
   1001c:	48 8b 85 38 e4 ff ff 	mov    -0x1bc8(%rbp),%rax
   10023:	0f b7 00             	movzwl (%rax),%eax
   10026:	98                   	cwtl   
   10027:	be 0d 00 00 00       	mov    $0xd,%esi
   1002c:	89 c7                	mov    %eax,%edi
   1002e:	e8 30 85 ff ff       	callq  8563 <safe_rshift_func_int16_t_s_u>
   10033:	66 85 c0             	test   %ax,%ax
   10036:	0f 9e c0             	setle  %al
   10039:	0f b6 c0             	movzbl %al,%eax
   1003c:	4c 89 e6             	mov    %r12,%rsi
   1003f:	48 89 c7             	mov    %rax,%rdi
   10042:	e8 e7 8f ff ff       	callq  902e <safe_add_func_uint64_t_u_u>
   10047:	83 f0 f9             	xor    $0xfffffff9,%eax
   1004a:	98                   	cwtl   
   1004b:	89 de                	mov    %ebx,%esi
   1004d:	89 c7                	mov    %eax,%edi
   1004f:	e8 3e 84 ff ff       	callq  8492 <safe_lshift_func_int16_t_s_s>
   10054:	48 0f bf c0          	movswq %ax,%rax
   10058:	be 02 00 00 00       	mov    $0x2,%esi
   1005d:	48 89 c7             	mov    %rax,%rdi
   10060:	e8 1b 90 ff ff       	callq  9080 <safe_mod_func_uint64_t_u_u>
   10065:	48 8b 85 58 e3 ff ff 	mov    -0x1ca8(%rbp),%rax
   1006c:	c7 00 fd ff ff ff    	movl   $0xfffffffd,(%rax)
   10072:	8b 85 04 e6 ff ff    	mov    -0x19fc(%rbp),%eax
   10078:	85 c0                	test   %eax,%eax
   1007a:	75 3a                	jne    100b6 <func_58+0x28cf>
   1007c:	48 8b 05 7d ec 00 00 	mov    0xec7d(%rip),%rax        # 1ed00 <g_1126>
   10083:	48 8b 15 7e ec 00 00 	mov    0xec7e(%rip),%rdx        # 1ed08 <g_1126+0x8>
   1008a:	48 89 05 8f ec 00 00 	mov    %rax,0xec8f(%rip)        # 1ed20 <g_1127>
   10091:	48 89 15 90 ec 00 00 	mov    %rdx,0xec90(%rip)        # 1ed28 <g_1127+0x8>
   10098:	48 8b 05 71 ec 00 00 	mov    0xec71(%rip),%rax        # 1ed10 <g_1126+0x10>
   1009f:	48 89 05 8a ec 00 00 	mov    %rax,0xec8a(%rip)        # 1ed30 <g_1127+0x10>
   100a6:	0f b7 05 6b ec 00 00 	movzwl 0xec6b(%rip),%eax        # 1ed18 <g_1126+0x18>
   100ad:	66 89 05 84 ec 00 00 	mov    %ax,0xec84(%rip)        # 1ed38 <g_1127+0x18>
   100b4:	eb 01                	jmp    100b7 <func_58+0x28d0>
   100b6:	90                   	nop
   100b7:	8b 05 ef eb 00 00    	mov    0xebef(%rip),%eax        # 1ecac <g_1026>
   100bd:	83 c0 01             	add    $0x1,%eax
   100c0:	89 05 e6 eb 00 00    	mov    %eax,0xebe6(%rip)        # 1ecac <g_1026>
   100c6:	8b 05 e0 eb 00 00    	mov    0xebe0(%rip),%eax        # 1ecac <g_1026>
   100cc:	83 f8 01             	cmp    $0x1,%eax
   100cf:	0f 86 05 f5 ff ff    	jbe    f5da <func_58+0x1df3>
   100d5:	83 ad ac e2 ff ff 01 	subl   $0x1,-0x1d54(%rbp)
   100dc:	83 bd ac e2 ff ff 00 	cmpl   $0x0,-0x1d54(%rbp)
   100e3:	0f 89 e4 f2 ff ff    	jns    f3cd <func_58+0x1be6>
   100e9:	c7 05 85 cf 00 00 04 	movl   $0x4,0xcf85(%rip)        # 1d078 <g_44>
   100f0:	00 00 00 
   100f3:	90                   	nop
   100f4:	8b 05 7e cf 00 00    	mov    0xcf7e(%rip),%eax        # 1d078 <g_44>
   100fa:	85 c0                	test   %eax,%eax
   100fc:	0f 8e 37 04 00 00    	jle    10539 <func_58+0x2d52>
   10102:	48 c7 85 a8 e3 ff ff 	movq   $0x0,-0x1c58(%rbp)
   10109:	00 00 00 00 
   1010d:	48 8d 85 78 e3 ff ff 	lea    -0x1c88(%rbp),%rax
   10114:	48 89 85 10 e4 ff ff 	mov    %rax,-0x1bf0(%rbp)
   1011b:	c7 85 04 e3 ff ff 6d 	movl   $0x6a879a6d,-0x1cfc(%rbp)
   10122:	9a 87 6a 
   10125:	c7 85 a8 e2 ff ff 04 	movl   $0x4,-0x1d58(%rbp)
   1012c:	00 00 00 
   1012f:	e9 ec 03 00 00       	jmpq   10520 <func_58+0x2d39>
   10134:	48 8d 85 10 e5 ff ff 	lea    -0x1af0(%rbp),%rax
   1013b:	48 83 c0 10          	add    $0x10,%rax
   1013f:	48 89 85 18 e4 ff ff 	mov    %rax,-0x1be8(%rbp)
   10146:	48 8d 05 1d d1 00 00 	lea    0xd11d(%rip),%rax        # 1d26a <g_406>
   1014d:	48 89 85 20 e4 ff ff 	mov    %rax,-0x1be0(%rbp)
   10154:	0f b7 05 c9 ce 00 00 	movzwl 0xcec9(%rip),%eax        # 1d024 <g_8>
   1015b:	0f b7 d0             	movzwl %ax,%edx
   1015e:	0f b7 05 bf ce 00 00 	movzwl 0xcebf(%rip),%eax        # 1d024 <g_8>
   10165:	0f b7 c0             	movzwl %ax,%eax
   10168:	0f b7 0d b5 ce 00 00 	movzwl 0xceb5(%rip),%ecx        # 1d024 <g_8>
   1016f:	0f b7 c9             	movzwl %cx,%ecx
   10172:	83 c1 03             	add    $0x3,%ecx
   10175:	48 63 f1             	movslq %ecx,%rsi
   10178:	48 63 d2             	movslq %edx,%rdx
   1017b:	48 63 c8             	movslq %eax,%rcx
   1017e:	48 89 d0             	mov    %rdx,%rax
   10181:	48 01 c0             	add    %rax,%rax
   10184:	48 01 d0             	add    %rdx,%rax
   10187:	48 89 c2             	mov    %rax,%rdx
   1018a:	48 c1 e2 04          	shl    $0x4,%rdx
   1018e:	48 29 c2             	sub    %rax,%rdx
   10191:	48 89 c8             	mov    %rcx,%rax
   10194:	48 c1 e0 03          	shl    $0x3,%rax
   10198:	48 01 c8             	add    %rcx,%rax
   1019b:	48 01 d0             	add    %rdx,%rax
   1019e:	48 01 f0             	add    %rsi,%rax
   101a1:	8b 84 85 b0 ef ff ff 	mov    -0x1050(%rbp,%rax,4),%eax
   101a8:	89 c2                	mov    %eax,%edx
   101aa:	8b 05 c8 ce 00 00    	mov    0xcec8(%rip),%eax        # 1d078 <g_44>
   101b0:	83 c0 01             	add    $0x1,%eax
   101b3:	48 98                	cltq   
   101b5:	8b 84 85 50 e5 ff ff 	mov    -0x1ab0(%rbp,%rax,4),%eax
   101bc:	89 d6                	mov    %edx,%esi
   101be:	21 c6                	and    %eax,%esi
   101c0:	0f b7 05 5d ce 00 00 	movzwl 0xce5d(%rip),%eax        # 1d024 <g_8>
   101c7:	0f b7 d0             	movzwl %ax,%edx
   101ca:	0f b7 05 53 ce 00 00 	movzwl 0xce53(%rip),%eax        # 1d024 <g_8>
   101d1:	0f b7 c0             	movzwl %ax,%eax
   101d4:	0f b7 0d 49 ce 00 00 	movzwl 0xce49(%rip),%ecx        # 1d024 <g_8>
   101db:	0f b7 c9             	movzwl %cx,%ecx
   101de:	83 c1 03             	add    $0x3,%ecx
   101e1:	89 f7                	mov    %esi,%edi
   101e3:	48 63 f1             	movslq %ecx,%rsi
   101e6:	48 63 d2             	movslq %edx,%rdx
   101e9:	48 63 c8             	movslq %eax,%rcx
   101ec:	48 89 d0             	mov    %rdx,%rax
   101ef:	48 01 c0             	add    %rax,%rax
   101f2:	48 01 d0             	add    %rdx,%rax
   101f5:	48 89 c2             	mov    %rax,%rdx
   101f8:	48 c1 e2 04          	shl    $0x4,%rdx
   101fc:	48 29 c2             	sub    %rax,%rdx
   101ff:	48 89 c8             	mov    %rcx,%rax
   10202:	48 c1 e0 03          	shl    $0x3,%rax
   10206:	48 01 c8             	add    %rcx,%rax
   10209:	48 01 d0             	add    %rdx,%rax
   1020c:	48 01 f0             	add    %rsi,%rax
   1020f:	89 bc 85 b0 ef ff ff 	mov    %edi,-0x1050(%rbp,%rax,4)
   10216:	0f b7 05 07 ce 00 00 	movzwl 0xce07(%rip),%eax        # 1d024 <g_8>
   1021d:	0f b7 c0             	movzwl %ax,%eax
   10220:	8b 15 52 ce 00 00    	mov    0xce52(%rip),%edx        # 1d078 <g_44>
   10226:	83 c2 02             	add    $0x2,%edx
   10229:	48 8b 35 40 2a 01 00 	mov    0x12a40(%rip),%rsi        # 22c70 <g_516>
   10230:	48 8d bd b0 ef ff ff 	lea    -0x1050(%rbp),%rdi
   10237:	4c 63 c2             	movslq %edx,%r8
   1023a:	48 63 d0             	movslq %eax,%rdx
   1023d:	48 89 d0             	mov    %rdx,%rax
   10240:	48 01 c0             	add    %rax,%rax
   10243:	48 01 d0             	add    %rdx,%rax
   10246:	48 89 c2             	mov    %rax,%rdx
   10249:	48 c1 e2 04          	shl    $0x4,%rdx
   1024d:	48 29 c2             	sub    %rax,%rdx
   10250:	8b 85 a8 e2 ff ff    	mov    -0x1d58(%rbp),%eax
   10256:	48 63 c8             	movslq %eax,%rcx
   10259:	48 89 c8             	mov    %rcx,%rax
   1025c:	48 c1 e0 03          	shl    $0x3,%rax
   10260:	48 01 c8             	add    %rcx,%rax
   10263:	48 01 d0             	add    %rdx,%rax
   10266:	4c 01 c0             	add    %r8,%rax
   10269:	48 c1 e0 02          	shl    $0x2,%rax
   1026d:	48 01 f8             	add    %rdi,%rax
   10270:	48 89 06             	mov    %rax,(%rsi)
   10273:	0f bf 9d 74 e2 ff ff 	movswl -0x1d8c(%rbp),%ebx
   1027a:	8b 85 04 e3 ff ff    	mov    -0x1cfc(%rbp),%eax
   10280:	44 0f bf e0          	movswl %ax,%r12d
   10284:	66 83 bd 74 e2 ff ff 	cmpw   $0x0,-0x1d8c(%rbp)
   1028b:	00 
   1028c:	74 4b                	je     102d9 <func_58+0x2af2>
   1028e:	48 8b 85 18 e4 ff ff 	mov    -0x1be8(%rbp),%rax
   10295:	48 8b 10             	mov    (%rax),%rdx
   10298:	8b 85 38 e6 ff ff    	mov    -0x19c8(%rbp),%eax
   1029e:	48 98                	cltq   
   102a0:	48 09 c2             	or     %rax,%rdx
   102a3:	48 8b 85 18 e4 ff ff 	mov    -0x1be8(%rbp),%rax
   102aa:	48 89 10             	mov    %rdx,(%rax)
   102ad:	48 8b 85 18 e4 ff ff 	mov    -0x1be8(%rbp),%rax
   102b4:	48 8b 00             	mov    (%rax),%rax
   102b7:	48 09 85 a8 e3 ff ff 	or     %rax,-0x1c58(%rbp)
   102be:	48 83 bd a8 e3 ff ff 	cmpq   $0x0,-0x1c58(%rbp)
   102c5:	00 
   102c6:	74 11                	je     102d9 <func_58+0x2af2>
   102c8:	48 83 bd a8 e3 ff ff 	cmpq   $0x0,-0x1c58(%rbp)
   102cf:	00 
   102d0:	74 07                	je     102d9 <func_58+0x2af2>
   102d2:	b8 01 00 00 00       	mov    $0x1,%eax
   102d7:	eb 05                	jmp    102de <func_58+0x2af7>
   102d9:	b8 00 00 00 00       	mov    $0x0,%eax
   102de:	f7 d0                	not    %eax
   102e0:	89 c6                	mov    %eax,%esi
   102e2:	48 8d 05 5f 29 01 00 	lea    0x1295f(%rip),%rax        # 22c48 <g_11>
   102e9:	48 39 85 10 e4 ff ff 	cmp    %rax,-0x1bf0(%rbp)
   102f0:	0f 94 c0             	sete   %al
   102f3:	0f b6 d0             	movzbl %al,%edx
   102f6:	0f bf 85 74 e2 ff ff 	movswl -0x1d8c(%rbp),%eax
   102fd:	39 c2                	cmp    %eax,%edx
   102ff:	0f 9f c0             	setg   %al
   10302:	89 c2                	mov    %eax,%edx
   10304:	b8 ca 05 00 00       	mov    $0x5ca,%eax
   10309:	09 c2                	or     %eax,%edx
   1030b:	0f b7 05 12 cd 00 00 	movzwl 0xcd12(%rip),%eax        # 1d024 <g_8>
   10312:	0f b7 c0             	movzwl %ax,%eax
   10315:	89 d7                	mov    %edx,%edi
   10317:	48 63 d0             	movslq %eax,%rdx
   1031a:	48 8d 0d e7 cf 00 00 	lea    0xcfe7(%rip),%rcx        # 1d308 <g_801>
   10321:	40 88 3c 0a          	mov    %dil,(%rdx,%rcx,1)
   10325:	48 98                	cltq   
   10327:	48 8d 15 da cf 00 00 	lea    0xcfda(%rip),%rdx        # 1d308 <g_801>
   1032e:	0f b6 04 10          	movzbl (%rax,%rdx,1),%eax
   10332:	3c e3                	cmp    $0xe3,%al
   10334:	74 0a                	je     10340 <func_58+0x2b59>
   10336:	66 83 bd 74 e2 ff ff 	cmpw   $0x0,-0x1d8c(%rbp)
   1033d:	00 
   1033e:	74 07                	je     10347 <func_58+0x2b60>
   10340:	b8 01 00 00 00       	mov    $0x1,%eax
   10345:	eb 05                	jmp    1034c <func_58+0x2b65>
   10347:	b8 00 00 00 00       	mov    $0x0,%eax
   1034c:	39 f0                	cmp    %esi,%eax
   1034e:	74 18                	je     10368 <func_58+0x2b81>
   10350:	48 8b 05 f1 22 01 00 	mov    0x122f1(%rip),%rax        # 22648 <g_973>
   10357:	48 8b 00             	mov    (%rax),%rax
   1035a:	0f b6 00             	movzbl (%rax),%eax
   1035d:	84 c0                	test   %al,%al
   1035f:	74 07                	je     10368 <func_58+0x2b81>
   10361:	b8 01 00 00 00       	mov    $0x1,%eax
   10366:	eb 05                	jmp    1036d <func_58+0x2b86>
   10368:	b8 00 00 00 00       	mov    $0x0,%eax
   1036d:	83 f8 ff             	cmp    $0xffffffff,%eax
   10370:	74 07                	je     10379 <func_58+0x2b92>
   10372:	ba 01 00 00 00       	mov    $0x1,%edx
   10377:	eb 05                	jmp    1037e <func_58+0x2b97>
   10379:	ba 00 00 00 00       	mov    $0x0,%edx
   1037e:	0f bf 85 74 e2 ff ff 	movswl -0x1d8c(%rbp),%eax
   10385:	09 d0                	or     %edx,%eax
   10387:	4c 63 e8             	movslq %eax,%r13
   1038a:	be 08 00 00 00       	mov    $0x8,%esi
   1038f:	48 c7 c7 ff ff ff ff 	mov    $0xffffffffffffffff,%rdi
   10396:	e8 0d 85 ff ff       	callq  88a8 <safe_sub_func_int64_t_s_s>
   1039b:	48 f7 d0             	not    %rax
   1039e:	4c 89 ee             	mov    %r13,%rsi
   103a1:	48 89 c7             	mov    %rax,%rdi
   103a4:	e8 d7 8c ff ff       	callq  9080 <safe_mod_func_uint64_t_u_u>
   103a9:	48 0f bf 95 74 e2 ff 	movswq -0x1d8c(%rbp),%rdx
   103b0:	ff 
   103b1:	48 39 d0             	cmp    %rdx,%rax
   103b4:	0f 94 c0             	sete   %al
   103b7:	0f b6 c0             	movzbl %al,%eax
   103ba:	be 00 00 00 00       	mov    $0x0,%esi
   103bf:	89 c7                	mov    %eax,%edi
   103c1:	e8 3f 88 ff ff       	callq  8c05 <safe_lshift_func_uint8_t_u_s>
   103c6:	0f b6 c0             	movzbl %al,%eax
   103c9:	44 89 e6             	mov    %r12d,%esi
   103cc:	89 c7                	mov    %eax,%edi
   103ce:	e8 e0 7f ff ff       	callq  83b3 <safe_add_func_int16_t_s_s>
   103d3:	be 01 00 00 00       	mov    $0x1,%esi
   103d8:	48 c7 c7 ff ff ff ff 	mov    $0xffffffffffffffff,%rdi
   103df:	e8 5d 84 ff ff       	callq  8841 <safe_add_func_int64_t_s_s>
   103e4:	48 c7 c2 ff ff ff ff 	mov    $0xffffffffffffffff,%rdx
   103eb:	48 8b 85 20 e4 ff ff 	mov    -0x1be0(%rbp),%rax
   103f2:	0f b7 00             	movzwl (%rax),%eax
   103f5:	31 c2                	xor    %eax,%edx
   103f7:	48 8b 85 20 e4 ff ff 	mov    -0x1be0(%rbp),%rax
   103fe:	66 89 10             	mov    %dx,(%rax)
   10401:	48 8b 85 20 e4 ff ff 	mov    -0x1be0(%rbp),%rax
   10408:	0f b7 00             	movzwl (%rax),%eax
   1040b:	98                   	cwtl   
   1040c:	be 08 00 00 00       	mov    $0x8,%esi
   10411:	89 c7                	mov    %eax,%edi
   10413:	e8 c9 80 ff ff       	callq  84e1 <safe_lshift_func_int16_t_s_u>
   10418:	66 85 c0             	test   %ax,%ax
   1041b:	74 07                	je     10424 <func_58+0x2c3d>
   1041d:	ba 01 00 00 00       	mov    $0x1,%edx
   10422:	eb 05                	jmp    10429 <func_58+0x2c42>
   10424:	ba 00 00 00 00       	mov    $0x0,%edx
   10429:	48 8b 85 58 e3 ff ff 	mov    -0x1ca8(%rbp),%rax
   10430:	8b 00                	mov    (%rax),%eax
   10432:	39 c2                	cmp    %eax,%edx
   10434:	0f 9c c0             	setl   %al
   10437:	0f b6 c0             	movzbl %al,%eax
   1043a:	ba 33 01 00 00       	mov    $0x133,%edx
   1043f:	39 d0                	cmp    %edx,%eax
   10441:	0f 9e c0             	setle  %al
   10444:	0f b6 d0             	movzbl %al,%edx
   10447:	48 8b 85 58 e3 ff ff 	mov    -0x1ca8(%rbp),%rax
   1044e:	8b 00                	mov    (%rax),%eax
   10450:	39 c2                	cmp    %eax,%edx
   10452:	0f 9f c0             	setg   %al
   10455:	0f b6 c0             	movzbl %al,%eax
   10458:	89 de                	mov    %ebx,%esi
   1045a:	89 c7                	mov    %eax,%edi
   1045c:	e8 80 80 ff ff       	callq  84e1 <safe_lshift_func_int16_t_s_u>
   10461:	89 c6                	mov    %eax,%esi
   10463:	0f b7 05 ba cb 00 00 	movzwl 0xcbba(%rip),%eax        # 1d024 <g_8>
   1046a:	0f b7 c0             	movzwl %ax,%eax
   1046d:	0f b7 15 b0 cb 00 00 	movzwl 0xcbb0(%rip),%edx        # 1d024 <g_8>
   10474:	0f b7 d2             	movzwl %dx,%edx
   10477:	8d 4a 01             	lea    0x1(%rdx),%ecx
   1047a:	0f b7 15 a3 cb 00 00 	movzwl 0xcba3(%rip),%edx        # 1d024 <g_8>
   10481:	0f b7 d2             	movzwl %dx,%edx
   10484:	83 c2 03             	add    $0x3,%edx
   10487:	48 63 fa             	movslq %edx,%rdi
   1048a:	48 63 d0             	movslq %eax,%rdx
   1048d:	48 63 c9             	movslq %ecx,%rcx
   10490:	48 89 d0             	mov    %rdx,%rax
   10493:	48 01 c0             	add    %rax,%rax
   10496:	48 01 d0             	add    %rdx,%rax
   10499:	48 89 c2             	mov    %rax,%rdx
   1049c:	48 c1 e2 04          	shl    $0x4,%rdx
   104a0:	48 29 c2             	sub    %rax,%rdx
   104a3:	48 89 c8             	mov    %rcx,%rax
   104a6:	48 c1 e0 03          	shl    $0x3,%rax
   104aa:	48 01 c8             	add    %rcx,%rax
   104ad:	48 01 d0             	add    %rdx,%rax
   104b0:	48 01 f8             	add    %rdi,%rax
   104b3:	8b 8c 85 b0 ef ff ff 	mov    -0x1050(%rbp,%rax,4),%ecx
   104ba:	0f bf d6             	movswl %si,%edx
   104bd:	0f b7 05 60 cb 00 00 	movzwl 0xcb60(%rip),%eax        # 1d024 <g_8>
   104c4:	0f b7 c0             	movzwl %ax,%eax
   104c7:	0f b7 35 56 cb 00 00 	movzwl 0xcb56(%rip),%esi        # 1d024 <g_8>
   104ce:	0f b7 f6             	movzwl %si,%esi
   104d1:	44 8d 46 01          	lea    0x1(%rsi),%r8d
   104d5:	0f b7 35 48 cb 00 00 	movzwl 0xcb48(%rip),%esi        # 1d024 <g_8>
   104dc:	0f b7 f6             	movzwl %si,%esi
   104df:	8d 7e 03             	lea    0x3(%rsi),%edi
   104e2:	31 d1                	xor    %edx,%ecx
   104e4:	89 ce                	mov    %ecx,%esi
   104e6:	48 63 ff             	movslq %edi,%rdi
   104e9:	48 63 d0             	movslq %eax,%rdx
   104ec:	49 63 c8             	movslq %r8d,%rcx
   104ef:	48 89 d0             	mov    %rdx,%rax
   104f2:	48 01 c0             	add    %rax,%rax
   104f5:	48 01 d0             	add    %rdx,%rax
   104f8:	48 89 c2             	mov    %rax,%rdx
   104fb:	48 c1 e2 04          	shl    $0x4,%rdx
   104ff:	48 29 c2             	sub    %rax,%rdx
   10502:	48 89 c8             	mov    %rcx,%rax
   10505:	48 c1 e0 03          	shl    $0x3,%rax
   10509:	48 01 c8             	add    %rcx,%rax
   1050c:	48 01 d0             	add    %rdx,%rax
   1050f:	48 01 f8             	add    %rdi,%rax
   10512:	89 b4 85 b0 ef ff ff 	mov    %esi,-0x1050(%rbp,%rax,4)
   10519:	83 ad a8 e2 ff ff 01 	subl   $0x1,-0x1d58(%rbp)
   10520:	83 bd a8 e2 ff ff 00 	cmpl   $0x0,-0x1d58(%rbp)
   10527:	0f 89 07 fc ff ff    	jns    10134 <func_58+0x294d>
   1052d:	48 8b 85 78 e2 ff ff 	mov    -0x1d88(%rbp),%rax
   10534:	e9 fc 00 00 00       	jmpq   10635 <func_58+0x2e4e>
   10539:	0f b7 05 e4 ca 00 00 	movzwl 0xcae4(%rip),%eax        # 1d024 <g_8>
   10540:	83 c0 01             	add    $0x1,%eax
   10543:	66 89 05 da ca 00 00 	mov    %ax,0xcada(%rip)        # 1d024 <g_8>
   1054a:	0f b7 05 d3 ca 00 00 	movzwl 0xcad3(%rip),%eax        # 1d024 <g_8>
   10551:	66 83 f8 03          	cmp    $0x3,%ax
   10555:	0f 86 ae ec ff ff    	jbe    f209 <func_58+0x1a22>
   1055b:	bf 05 00 00 00       	mov    $0x5,%edi
   10560:	e8 41 89 ff ff       	callq  8ea6 <safe_unary_minus_func_uint32_t_u>
   10565:	48 8b 85 58 e3 ff ff 	mov    -0x1ca8(%rbp),%rax
   1056c:	44 8b 28             	mov    (%rax),%r13d
   1056f:	48 8b 05 02 18 01 00 	mov    0x11802(%rip),%rax        # 21d78 <g_511>
   10576:	48 8b 00             	mov    (%rax),%rax
   10579:	48 39 85 f0 e3 ff ff 	cmp    %rax,-0x1c10(%rbp)
   10580:	0f 95 c0             	setne  %al
   10583:	44 0f b6 f0          	movzbl %al,%r14d
   10587:	0f b6 05 bb e7 00 00 	movzbl 0xe7bb(%rip),%eax        # 1ed49 <g_1165+0x1>
   1058e:	0f be d8             	movsbl %al,%ebx
   10591:	4c 0f bf a5 74 e2 ff 	movswq -0x1d8c(%rbp),%r12
   10598:	ff 
   10599:	48 8b 05 b0 20 01 00 	mov    0x120b0(%rip),%rax        # 22650 <g_980>
   105a0:	0f b6 00             	movzbl (%rax),%eax
   105a3:	0f b6 c0             	movzbl %al,%eax
   105a6:	be 03 00 00 00       	mov    $0x3,%esi
   105ab:	89 c7                	mov    %eax,%edi
   105ad:	e8 db 86 ff ff       	callq  8c8d <safe_rshift_func_uint8_t_u_s>
   105b2:	8b 85 e8 e2 ff ff    	mov    -0x1d18(%rbp),%eax
   105b8:	0f b7 c0             	movzwl %ax,%eax
   105bb:	be 0c 00 00 00       	mov    $0xc,%esi
   105c0:	89 c7                	mov    %eax,%edi
   105c2:	e8 b3 88 ff ff       	callq  8e7a <safe_rshift_func_uint16_t_u_u>
   105c7:	0f b7 c0             	movzwl %ax,%eax
   105ca:	4c 89 e6             	mov    %r12,%rsi
   105cd:	48 89 c7             	mov    %rax,%rdi
   105d0:	e8 6c 82 ff ff       	callq  8841 <safe_add_func_int64_t_s_s>
   105d5:	48 8b 95 58 e3 ff ff 	mov    -0x1ca8(%rbp),%rdx
   105dc:	8b 12                	mov    (%rdx),%edx
   105de:	48 63 d2             	movslq %edx,%rdx
   105e1:	48 09 c2             	or     %rax,%rdx
   105e4:	48 8b 85 58 e3 ff ff 	mov    -0x1ca8(%rbp),%rax
   105eb:	8b 00                	mov    (%rax),%eax
   105ed:	48 98                	cltq   
   105ef:	48 39 c2             	cmp    %rax,%rdx
   105f2:	0f 9e c0             	setle  %al
   105f5:	0f b6 c0             	movzbl %al,%eax
   105f8:	39 85 e4 e2 ff ff    	cmp    %eax,-0x1d1c(%rbp)
   105fe:	0f 9d c0             	setge  %al
   10601:	0f b6 c0             	movzbl %al,%eax
   10604:	89 de                	mov    %ebx,%esi
   10606:	89 c7                	mov    %eax,%edi
   10608:	e8 48 7e ff ff       	callq  8455 <safe_div_func_int16_t_s_s>
   1060d:	98                   	cwtl   
   1060e:	41 39 c6             	cmp    %eax,%r14d
   10611:	0f 94 c0             	sete   %al
   10614:	0f b6 c0             	movzbl %al,%eax
   10617:	41 39 c5             	cmp    %eax,%r13d
   1061a:	0f 95 c0             	setne  %al
   1061d:	0f b6 d0             	movzbl %al,%edx
   10620:	8b 85 1c e8 ff ff    	mov    -0x17e4(%rbp),%eax
   10626:	21 d0                	and    %edx,%eax
   10628:	89 85 1c e8 ff ff    	mov    %eax,-0x17e4(%rbp)
   1062e:	48 8b 85 78 e2 ff ff 	mov    -0x1d88(%rbp),%rax
   10635:	48 8b 5d c8          	mov    -0x38(%rbp),%rbx
   10639:	64 48 33 1c 25 28 00 	xor    %fs:0x28,%rbx
   10640:	00 00 
   10642:	74 05                	je     10649 <func_58+0x2e62>
   10644:	e8 27 7a ff ff       	callq  8070 <__stack_chk_fail@plt>
   10649:	48 81 c4 78 1d 00 00 	add    $0x1d78,%rsp
   10650:	5b                   	pop    %rbx
   10651:	41 5c                	pop    %r12
   10653:	41 5d                	pop    %r13
   10655:	41 5e                	pop    %r14
   10657:	41 5f                	pop    %r15
   10659:	5d                   	pop    %rbp
   1065a:	c3                   	retq   

000000000001065b <func_62>:
   1065b:	f3 0f 1e fa          	endbr64 
   1065f:	55                   	push   %rbp
   10660:	48 89 e5             	mov    %rsp,%rbp
   10663:	48 83 ec 40          	sub    $0x40,%rsp
   10667:	89 f9                	mov    %edi,%ecx
   10669:	48 89 75 c0          	mov    %rsi,-0x40(%rbp)
   1066d:	89 d0                	mov    %edx,%eax
   1066f:	89 ca                	mov    %ecx,%edx
   10671:	66 89 55 cc          	mov    %dx,-0x34(%rbp)
   10675:	66 89 45 c8          	mov    %ax,-0x38(%rbp)
   10679:	64 48 8b 04 25 28 00 	mov    %fs:0x28,%rax
   10680:	00 00 
   10682:	48 89 45 f8          	mov    %rax,-0x8(%rbp)
   10686:	31 c0                	xor    %eax,%eax
   10688:	c7 45 d0 00 f8 ee 01 	movl   $0x1eef800,-0x30(%rbp)
   1068f:	66 c7 45 d4 ee f8    	movw   $0xf8ee,-0x2c(%rbp)
   10695:	c6 45 d6 00          	movb   $0x0,-0x2a(%rbp)
   10699:	c7 45 d7 4e 00 4e 4e 	movl   $0x4e4e004e,-0x29(%rbp)
   106a0:	66 c7 45 db 00 4e    	movw   $0x4e00,-0x25(%rbp)
   106a6:	c6 45 dd 4e          	movb   $0x4e,-0x23(%rbp)
   106aa:	c7 45 de 00 01 05 01 	movl   $0x1050100,-0x22(%rbp)
   106b1:	66 c7 45 e2 00 9a    	movw   $0x9a00,-0x1e(%rbp)
   106b7:	c6 45 e4 00          	movb   $0x0,-0x1c(%rbp)
   106bb:	c7 45 e5 00 4e 4e 00 	movl   $0x4e4e00,-0x1b(%rbp)
   106c2:	66 c7 45 e9 4e 4e    	movw   $0x4e4e,-0x17(%rbp)
   106c8:	c6 45 eb 00          	movb   $0x0,-0x15(%rbp)
   106cc:	c7 45 ec ee 01 ee f8 	movl   $0xf8ee01ee,-0x14(%rbp)
   106d3:	66 c7 45 f0 00 f8    	movw   $0xf800,-0x10(%rbp)
   106d9:	c6 45 f2 ee          	movb   $0xee,-0xe(%rbp)
   106dd:	0f b6 45 f0          	movzbl -0x10(%rbp),%eax
   106e1:	0f b6 c0             	movzbl %al,%eax
   106e4:	48 8b 75 f8          	mov    -0x8(%rbp),%rsi
   106e8:	64 48 33 34 25 28 00 	xor    %fs:0x28,%rsi
   106ef:	00 00 
   106f1:	74 05                	je     106f8 <func_62+0x9d>
   106f3:	e8 78 79 ff ff       	callq  8070 <__stack_chk_fail@plt>
   106f8:	c9                   	leaveq 
   106f9:	c3                   	retq   

00000000000106fa <func_66>:
   106fa:	f3 0f 1e fa          	endbr64 
   106fe:	55                   	push   %rbp
   106ff:	48 89 e5             	mov    %rsp,%rbp
   10702:	41 57                	push   %r15
   10704:	41 56                	push   %r14
   10706:	41 55                	push   %r13
   10708:	41 54                	push   %r12
   1070a:	53                   	push   %rbx
   1070b:	48 81 ec b8 0b 00 00 	sub    $0xbb8,%rsp
   10712:	48 89 bd 38 f4 ff ff 	mov    %rdi,-0xbc8(%rbp)
   10719:	48 89 b5 30 f4 ff ff 	mov    %rsi,-0xbd0(%rbp)
   10720:	89 95 2c f4 ff ff    	mov    %edx,-0xbd4(%rbp)
   10726:	89 8d 28 f4 ff ff    	mov    %ecx,-0xbd8(%rbp)
   1072c:	64 48 8b 04 25 28 00 	mov    %fs:0x28,%rax
   10733:	00 00 
   10735:	48 89 45 c8          	mov    %rax,-0x38(%rbp)
   10739:	31 c0                	xor    %eax,%eax
   1073b:	c7 85 60 f4 ff ff 3d 	movl   $0xc570b93d,-0xba0(%rbp)
   10742:	b9 70 c5 
   10745:	66 c7 85 54 f4 ff ff 	movw   $0x0,-0xbac(%rbp)
   1074c:	00 00 
   1074e:	48 8d 05 d3 c8 00 00 	lea    0xc8d3(%rip),%rax        # 1d028 <g_10>
   10755:	48 89 85 08 f5 ff ff 	mov    %rax,-0xaf8(%rbp)
   1075c:	48 8d 85 10 f9 ff ff 	lea    -0x6f0(%rbp),%rax
   10763:	48 8d 15 b6 0a 01 00 	lea    0x10ab6(%rip),%rdx        # 21220 <g_1954+0x1880>
   1076a:	b9 48 00 00 00       	mov    $0x48,%ecx
   1076f:	48 89 c7             	mov    %rax,%rdi
   10772:	48 89 d6             	mov    %rdx,%rsi
   10775:	f3 48 a5             	rep movsq %ds:(%rsi),%es:(%rdi)
   10778:	48 8d 05 f1 24 01 00 	lea    0x124f1(%rip),%rax        # 22c70 <g_516>
   1077f:	48 89 85 10 f5 ff ff 	mov    %rax,-0xaf0(%rbp)
   10786:	48 c7 85 18 f5 ff ff 	movq   $0x0,-0xae8(%rbp)
   1078d:	00 00 00 00 
   10791:	c7 85 84 f4 ff ff 01 	movl   $0x1,-0xb7c(%rbp)
   10798:	00 00 00 
   1079b:	c6 85 4c f4 ff ff 2c 	movb   $0x2c,-0xbb4(%rbp)
   107a2:	66 c7 85 56 f4 ff ff 	movw   $0x0,-0xbaa(%rbp)
   107a9:	00 00 
   107ab:	c6 85 4d f4 ff ff 2e 	movb   $0x2e,-0xbb3(%rbp)
   107b2:	c7 85 64 f4 ff ff 00 	movl   $0x0,-0xb9c(%rbp)
   107b9:	00 00 00 
   107bc:	eb 76                	jmp    10834 <func_66+0x13a>
   107be:	c7 85 68 f4 ff ff 00 	movl   $0x0,-0xb98(%rbp)
   107c5:	00 00 00 
   107c8:	eb 5a                	jmp    10824 <func_66+0x12a>
   107ca:	c7 85 6c f4 ff ff 00 	movl   $0x0,-0xb94(%rbp)
   107d1:	00 00 00 
   107d4:	eb 3e                	jmp    10814 <func_66+0x11a>
   107d6:	8b 85 6c f4 ff ff    	mov    -0xb94(%rbp),%eax
   107dc:	48 63 f0             	movslq %eax,%rsi
   107df:	8b 85 68 f4 ff ff    	mov    -0xb98(%rbp),%eax
   107e5:	48 63 c8             	movslq %eax,%rcx
   107e8:	8b 85 64 f4 ff ff    	mov    -0xb9c(%rbp),%eax
   107ee:	48 63 d0             	movslq %eax,%rdx
   107f1:	48 89 d0             	mov    %rdx,%rax
   107f4:	48 c1 e0 03          	shl    $0x3,%rax
   107f8:	48 01 d0             	add    %rdx,%rax
   107fb:	48 01 f0             	add    %rsi,%rax
   107fe:	48 01 c8             	add    %rcx,%rax
   10801:	48 c7 84 c5 b0 f6 ff 	movq   $0x0,-0x950(%rbp,%rax,8)
   10808:	ff 00 00 00 00 
   1080d:	83 85 6c f4 ff ff 01 	addl   $0x1,-0xb94(%rbp)
   10814:	83 bd 6c f4 ff ff 00 	cmpl   $0x0,-0xb94(%rbp)
   1081b:	7e b9                	jle    107d6 <func_66+0xdc>
   1081d:	83 85 68 f4 ff ff 01 	addl   $0x1,-0xb98(%rbp)
   10824:	83 bd 68 f4 ff ff 08 	cmpl   $0x8,-0xb98(%rbp)
   1082b:	7e 9d                	jle    107ca <func_66+0xd0>
   1082d:	83 85 64 f4 ff ff 01 	addl   $0x1,-0xb9c(%rbp)
   10834:	83 bd 64 f4 ff ff 00 	cmpl   $0x0,-0xb9c(%rbp)
   1083b:	7e 81                	jle    107be <func_66+0xc4>
   1083d:	c7 85 64 f4 ff ff 00 	movl   $0x0,-0xb9c(%rbp)
   10844:	00 00 00 
   10847:	eb 4a                	jmp    10893 <func_66+0x199>
   10849:	c7 85 68 f4 ff ff 00 	movl   $0x0,-0xb98(%rbp)
   10850:	00 00 00 
   10853:	eb 2e                	jmp    10883 <func_66+0x189>
   10855:	8b 85 68 f4 ff ff    	mov    -0xb98(%rbp),%eax
   1085b:	48 98                	cltq   
   1085d:	8b 95 64 f4 ff ff    	mov    -0xb9c(%rbp),%edx
   10863:	48 63 d2             	movslq %edx,%rdx
   10866:	48 c1 e2 03          	shl    $0x3,%rdx
   1086a:	48 01 d0             	add    %rdx,%rax
   1086d:	48 8d 15 1c 13 01 00 	lea    0x1131c(%rip),%rdx        # 21b90 <g_106+0x50>
   10874:	48 89 94 c5 50 f7 ff 	mov    %rdx,-0x8b0(%rbp,%rax,8)
   1087b:	ff 
   1087c:	83 85 68 f4 ff ff 01 	addl   $0x1,-0xb98(%rbp)
   10883:	83 bd 68 f4 ff ff 07 	cmpl   $0x7,-0xb98(%rbp)
   1088a:	7e c9                	jle    10855 <func_66+0x15b>
   1088c:	83 85 64 f4 ff ff 01 	addl   $0x1,-0xb9c(%rbp)
   10893:	83 bd 64 f4 ff ff 06 	cmpl   $0x6,-0xb9c(%rbp)
   1089a:	7e ad                	jle    10849 <func_66+0x14f>
   1089c:	48 c7 05 81 c7 00 00 	movq   $0xd,0xc781(%rip)        # 1d028 <g_10>
   108a3:	0d 00 00 00 
   108a7:	eb 40                	jmp    108e9 <func_66+0x1ef>
   108a9:	48 8d 85 60 f4 ff ff 	lea    -0xba0(%rbp),%rax
   108b0:	48 89 85 08 f6 ff ff 	mov    %rax,-0x9f8(%rbp)
   108b7:	8b 95 60 f4 ff ff    	mov    -0xba0(%rbp),%edx
   108bd:	48 8b 85 08 f6 ff ff 	mov    -0x9f8(%rbp),%rax
   108c4:	89 10                	mov    %edx,(%rax)
   108c6:	48 8b 05 13 13 01 00 	mov    0x11313(%rip),%rax        # 21be0 <g_105>
   108cd:	48 8d 15 7c 23 01 00 	lea    0x1237c(%rip),%rdx        # 22c50 <g_22>
   108d4:	48 89 10             	mov    %rdx,(%rax)
   108d7:	48 8b 05 4a c7 00 00 	mov    0xc74a(%rip),%rax        # 1d028 <g_10>
   108de:	48 83 c0 01          	add    $0x1,%rax
   108e2:	48 89 05 3f c7 00 00 	mov    %rax,0xc73f(%rip)        # 1d028 <g_10>
   108e9:	48 8b 05 38 c7 00 00 	mov    0xc738(%rip),%rax        # 1d028 <g_10>
   108f0:	48 83 f8 20          	cmp    $0x20,%rax
   108f4:	76 b3                	jbe    108a9 <func_66+0x1af>
   108f6:	b8 2a 00 00 00       	mov    $0x2a,%eax
   108fb:	0f bf d8             	movswl %ax,%ebx
   108fe:	8b 05 7c c7 00 00    	mov    0xc77c(%rip),%eax        # 1d080 <g_55>
   10904:	41 89 c6             	mov    %eax,%r14d
   10907:	48 8b 85 38 f4 ff ff 	mov    -0xbc8(%rbp),%rax
   1090e:	44 0f bf e8          	movswl %ax,%r13d
   10912:	8b 85 28 f4 ff ff    	mov    -0xbd8(%rbp),%eax
   10918:	44 0f be e0          	movsbl %al,%r12d
   1091c:	48 8b 8d 18 f9 ff ff 	mov    -0x6e8(%rbp),%rcx
   10923:	0f b6 05 20 c7 00 00 	movzbl 0xc720(%rip),%eax        # 1d04a <g_31+0xa>
   1092a:	0f b6 d0             	movzbl %al,%edx
   1092d:	48 8b 85 f8 f8 ff ff 	mov    -0x708(%rbp),%rax
   10934:	48 8d 35 ed c6 00 00 	lea    0xc6ed(%rip),%rsi        # 1d028 <g_10>
   1093b:	48 89 c7             	mov    %rax,%rdi
   1093e:	e8 df 31 00 00       	callq  13b22 <func_123>
   10943:	48 89 c6             	mov    %rax,%rsi
   10946:	0f b6 05 fd c6 00 00 	movzbl 0xc6fd(%rip),%eax        # 1d04a <g_31+0xa>
   1094d:	0f b6 c0             	movzbl %al,%eax
   10950:	48 8b 95 08 f5 ff ff 	mov    -0xaf8(%rbp),%rdx
   10957:	49 89 d0             	mov    %rdx,%r8
   1095a:	44 89 e9             	mov    %r13d,%ecx
   1095d:	44 89 e2             	mov    %r12d,%edx
   10960:	89 c7                	mov    %eax,%edi
   10962:	e8 33 1a 00 00       	callq  1239a <func_72>
   10967:	89 c2                	mov    %eax,%edx
   10969:	8b 05 19 c7 00 00    	mov    0xc719(%rip),%eax        # 1d088 <g_120>
   1096f:	83 e8 01             	sub    $0x1,%eax
   10972:	89 05 10 c7 00 00    	mov    %eax,0xc710(%rip)        # 1d088 <g_120>
   10978:	89 d6                	mov    %edx,%esi
   1097a:	bf 00 00 00 00       	mov    $0x0,%edi
   1097f:	e8 a1 85 ff ff       	callq  8f25 <safe_div_func_uint32_t_u_u>
   10984:	89 c6                	mov    %eax,%esi
   10986:	48 8b 85 08 f5 ff ff 	mov    -0xaf8(%rbp),%rax
   1098d:	89 d9                	mov    %ebx,%ecx
   1098f:	44 89 f2             	mov    %r14d,%edx
   10992:	48 89 c7             	mov    %rax,%rdi
   10995:	e8 33 27 00 00       	callq  130cd <func_111>
   1099a:	89 85 28 f4 ff ff    	mov    %eax,-0xbd8(%rbp)
   109a0:	8b 85 28 f4 ff ff    	mov    -0xbd8(%rbp),%eax
   109a6:	85 c0                	test   %eax,%eax
   109a8:	75 25                	jne    109cf <func_66+0x2d5>
   109aa:	48 8b 05 bf 76 00 00 	mov    0x76bf(%rip),%rax        # 18070 <g_151+0x10>
   109b1:	48 c1 e8 34          	shr    $0x34,%rax
   109b5:	48 89 c2             	mov    %rax,%rdx
   109b8:	48 8b 05 b9 76 00 00 	mov    0x76b9(%rip),%rax        # 18078 <g_151+0x18>
   109bf:	25 ff 01 00 00       	and    $0x1ff,%eax
   109c4:	48 c1 e0 0c          	shl    $0xc,%rax
   109c8:	48 09 d0             	or     %rdx,%rax
   109cb:	85 c0                	test   %eax,%eax
   109cd:	74 07                	je     109d6 <func_66+0x2dc>
   109cf:	b8 01 00 00 00       	mov    $0x1,%eax
   109d4:	eb 05                	jmp    109db <func_66+0x2e1>
   109d6:	b8 00 00 00 00       	mov    $0x0,%eax
   109db:	48 63 d0             	movslq %eax,%rdx
   109de:	48 0f bf 85 54 f4 ff 	movswq -0xbac(%rbp),%rax
   109e5:	ff 
   109e6:	48 89 d6             	mov    %rdx,%rsi
   109e9:	48 89 c7             	mov    %rax,%rdi
   109ec:	e8 2c 1b 00 00       	callq  1251d <func_107>
   109f1:	48 8b 95 10 f5 ff ff 	mov    -0xaf0(%rbp),%rdx
   109f8:	48 89 02             	mov    %rax,(%rdx)
   109fb:	66 c7 05 20 c6 00 00 	movw   $0x1a,0xc620(%rip)        # 1d024 <g_8>
   10a02:	1a 00 
   10a04:	e9 53 19 00 00       	jmpq   1235c <func_66+0x1c62>
   10a09:	66 c7 85 52 f4 ff ff 	movw   $0x1,-0xbae(%rbp)
   10a10:	01 00 
   10a12:	48 8d 05 47 13 01 00 	lea    0x11347(%rip),%rax        # 21d60 <g_514>
   10a19:	48 89 85 e0 f4 ff ff 	mov    %rax,-0xb20(%rbp)
   10a20:	48 8d 85 e0 f4 ff ff 	lea    -0xb20(%rbp),%rax
   10a27:	48 89 85 e8 f4 ff ff 	mov    %rax,-0xb18(%rbp)
   10a2e:	48 8d 85 e8 f4 ff ff 	lea    -0xb18(%rbp),%rax
   10a35:	48 89 85 20 f5 ff ff 	mov    %rax,-0xae0(%rbp)
   10a3c:	c7 85 70 f4 ff ff 1f 	movl   $0xbda35f1f,-0xb90(%rbp)
   10a43:	5f a3 bd 
   10a46:	c7 85 88 f4 ff ff 01 	movl   $0x1,-0xb78(%rbp)
   10a4d:	00 00 00 
   10a50:	48 c7 85 28 f5 ff ff 	movq   $0xffffffffffffffff,-0xad8(%rbp)
   10a57:	ff ff ff ff 
   10a5b:	c7 85 00 f7 ff ff 1b 	movl   $0x7c84231b,-0x900(%rbp)
   10a62:	23 84 7c 
   10a65:	c7 85 04 f7 ff ff 1b 	movl   $0x7c84231b,-0x8fc(%rbp)
   10a6c:	23 84 7c 
   10a6f:	c7 85 08 f7 ff ff 01 	movl   $0x1,-0x8f8(%rbp)
   10a76:	00 00 00 
   10a79:	c7 85 0c f7 ff ff 1b 	movl   $0x7c84231b,-0x8f4(%rbp)
   10a80:	23 84 7c 
   10a83:	c7 85 10 f7 ff ff 1b 	movl   $0x7c84231b,-0x8f0(%rbp)
   10a8a:	23 84 7c 
   10a8d:	c7 85 14 f7 ff ff 01 	movl   $0x1,-0x8ec(%rbp)
   10a94:	00 00 00 
   10a97:	c7 85 18 f7 ff ff 1b 	movl   $0x7c84231b,-0x8e8(%rbp)
   10a9e:	23 84 7c 
   10aa1:	c7 85 1c f7 ff ff 1b 	movl   $0x7c84231b,-0x8e4(%rbp)
   10aa8:	23 84 7c 
   10aab:	c7 85 20 f7 ff ff 01 	movl   $0x1,-0x8e0(%rbp)
   10ab2:	00 00 00 
   10ab5:	c7 85 24 f7 ff ff 1b 	movl   $0x7c84231b,-0x8dc(%rbp)
   10abc:	23 84 7c 
   10abf:	c7 85 28 f7 ff ff 1b 	movl   $0x7c84231b,-0x8d8(%rbp)
   10ac6:	23 84 7c 
   10ac9:	c7 85 2c f7 ff ff 01 	movl   $0x1,-0x8d4(%rbp)
   10ad0:	00 00 00 
   10ad3:	c7 85 30 f7 ff ff 1b 	movl   $0x7c84231b,-0x8d0(%rbp)
   10ada:	23 84 7c 
   10add:	c7 85 34 f7 ff ff 1b 	movl   $0x7c84231b,-0x8cc(%rbp)
   10ae4:	23 84 7c 
   10ae7:	c7 85 38 f7 ff ff 01 	movl   $0x1,-0x8c8(%rbp)
   10aee:	00 00 00 
   10af1:	c7 85 3c f7 ff ff 1b 	movl   $0x7c84231b,-0x8c4(%rbp)
   10af8:	23 84 7c 
   10afb:	c7 85 40 f7 ff ff 1b 	movl   $0x7c84231b,-0x8c0(%rbp)
   10b02:	23 84 7c 
   10b05:	c7 85 44 f7 ff ff 01 	movl   $0x1,-0x8bc(%rbp)
   10b0c:	00 00 00 
   10b0f:	c7 85 48 f7 ff ff 1b 	movl   $0x7c84231b,-0x8b8(%rbp)
   10b16:	23 84 7c 
   10b19:	c7 85 4c f7 ff ff 1b 	movl   $0x7c84231b,-0x8b4(%rbp)
   10b20:	23 84 7c 
   10b23:	66 c7 85 58 f4 ff ff 	movw   $0xcb9c,-0xba8(%rbp)
   10b2a:	9c cb 
   10b2c:	66 c7 85 5a f4 ff ff 	movw   $0x1193,-0xba6(%rbp)
   10b33:	93 11 
   10b35:	48 c7 85 30 f5 ff ff 	movq   $0x0,-0xad0(%rbp)
   10b3c:	00 00 00 00 
   10b40:	48 8d 85 4c f4 ff ff 	lea    -0xbb4(%rbp),%rax
   10b47:	48 89 85 38 f5 ff ff 	mov    %rax,-0xac8(%rbp)
   10b4e:	48 c7 85 40 f5 ff ff 	movq   $0x0,-0xac0(%rbp)
   10b55:	00 00 00 00 
   10b59:	c7 85 8c f4 ff ff cd 	movl   $0x7c1a42cd,-0xb74(%rbp)
   10b60:	42 1a 7c 
   10b63:	c7 85 90 f4 ff ff 04 	movl   $0x4,-0xb70(%rbp)
   10b6a:	00 00 00 
   10b6d:	48 b8 b1 7b d2 54 65 	movabs $0xcec1aa6554d27bb1,%rax
   10b74:	aa c1 ce 
   10b77:	48 89 85 48 f5 ff ff 	mov    %rax,-0xab8(%rbp)
   10b7e:	c7 85 94 f4 ff ff 04 	movl   $0x4,-0xb6c(%rbp)
   10b85:	00 00 00 
   10b88:	66 c7 05 fb c4 00 00 	movw   $0x0,0xc4fb(%rip)        # 1d08c <g_148>
   10b8f:	00 00 
   10b91:	e9 61 17 00 00       	jmpq   122f7 <func_66+0x1bfd>
   10b96:	48 c7 85 50 f5 ff ff 	movq   $0x0,-0xab0(%rbp)
   10b9d:	00 00 00 00 
   10ba1:	48 c7 85 f0 f4 ff ff 	movq   $0xfffffffffffffffc,-0xb10(%rbp)
   10ba8:	fc ff ff ff 
   10bac:	c7 85 98 f4 ff ff ff 	movl   $0xffffffff,-0xb68(%rbp)
   10bb3:	ff ff ff 
   10bb6:	48 8d 85 b0 f6 ff ff 	lea    -0x950(%rbp),%rax
   10bbd:	48 83 c0 18          	add    $0x18,%rax
   10bc1:	48 89 85 58 f5 ff ff 	mov    %rax,-0xaa8(%rbp)
   10bc8:	c7 85 50 f6 ff ff 01 	movl   $0x1,-0x9b0(%rbp)
   10bcf:	00 00 00 
   10bd2:	c7 85 54 f6 ff ff 02 	movl   $0x2,-0x9ac(%rbp)
   10bd9:	00 00 00 
   10bdc:	c7 85 58 f6 ff ff 01 	movl   $0x1,-0x9a8(%rbp)
   10be3:	00 00 00 
   10be6:	c7 85 5c f6 ff ff 01 	movl   $0x1,-0x9a4(%rbp)
   10bed:	00 00 00 
   10bf0:	c7 85 60 f6 ff ff 02 	movl   $0x2,-0x9a0(%rbp)
   10bf7:	00 00 00 
   10bfa:	c7 85 64 f6 ff ff 01 	movl   $0x1,-0x99c(%rbp)
   10c01:	00 00 00 
   10c04:	c7 85 68 f6 ff ff 01 	movl   $0x1,-0x998(%rbp)
   10c0b:	00 00 00 
   10c0e:	c7 85 6c f6 ff ff 02 	movl   $0x2,-0x994(%rbp)
   10c15:	00 00 00 
   10c18:	c7 85 70 f6 ff ff 01 	movl   $0x1,-0x990(%rbp)
   10c1f:	00 00 00 
   10c22:	c7 85 80 f6 ff ff fb 	movl   $0xfffffffb,-0x980(%rbp)
   10c29:	ff ff ff 
   10c2c:	c7 85 84 f6 ff ff fb 	movl   $0xfffffffb,-0x97c(%rbp)
   10c33:	ff ff ff 
   10c36:	c7 85 88 f6 ff ff fb 	movl   $0xfffffffb,-0x978(%rbp)
   10c3d:	ff ff ff 
   10c40:	c7 85 8c f6 ff ff fb 	movl   $0xfffffffb,-0x974(%rbp)
   10c47:	ff ff ff 
   10c4a:	c7 85 90 f6 ff ff fb 	movl   $0xfffffffb,-0x970(%rbp)
   10c51:	ff ff ff 
   10c54:	c7 85 94 f6 ff ff fb 	movl   $0xfffffffb,-0x96c(%rbp)
   10c5b:	ff ff ff 
   10c5e:	c7 85 98 f6 ff ff fb 	movl   $0xfffffffb,-0x968(%rbp)
   10c65:	ff ff ff 
   10c68:	c7 85 9c f6 ff ff fb 	movl   $0xfffffffb,-0x964(%rbp)
   10c6f:	ff ff ff 
   10c72:	c7 85 a0 f6 ff ff fb 	movl   $0xfffffffb,-0x960(%rbp)
   10c79:	ff ff ff 
   10c7c:	48 8d 85 10 f9 ff ff 	lea    -0x6f0(%rbp),%rax
   10c83:	48 83 c0 08          	add    $0x8,%rax
   10c87:	48 89 85 60 f5 ff ff 	mov    %rax,-0xaa0(%rbp)
   10c8e:	c7 85 9c f4 ff ff ff 	movl   $0xffffffff,-0xb64(%rbp)
   10c95:	ff ff ff 
   10c98:	48 8d 05 d1 c3 00 00 	lea    0xc3d1(%rip),%rax        # 1d070 <g_40>
   10c9f:	48 89 85 68 f5 ff ff 	mov    %rax,-0xa98(%rbp)
   10ca6:	48 8d 85 50 f7 ff ff 	lea    -0x8b0(%rbp),%rax
   10cad:	48 05 b8 01 00 00    	add    $0x1b8,%rax
   10cb3:	48 89 85 70 f5 ff ff 	mov    %rax,-0xa90(%rbp)
   10cba:	48 8d 85 50 f7 ff ff 	lea    -0x8b0(%rbp),%rax
   10cc1:	48 89 85 f8 f4 ff ff 	mov    %rax,-0xb08(%rbp)
   10cc8:	c7 85 74 f4 ff ff 00 	movl   $0x0,-0xb8c(%rbp)
   10ccf:	00 00 00 
   10cd2:	eb 1e                	jmp    10cf2 <func_66+0x5f8>
   10cd4:	8b 85 74 f4 ff ff    	mov    -0xb8c(%rbp),%eax
   10cda:	48 98                	cltq   
   10cdc:	48 8d 95 f8 f4 ff ff 	lea    -0xb08(%rbp),%rdx
   10ce3:	48 89 94 c5 10 f6 ff 	mov    %rdx,-0x9f0(%rbp,%rax,8)
   10cea:	ff 
   10ceb:	83 85 74 f4 ff ff 01 	addl   $0x1,-0xb8c(%rbp)
   10cf2:	83 bd 74 f4 ff ff 02 	cmpl   $0x2,-0xb8c(%rbp)
   10cf9:	7e d9                	jle    10cd4 <func_66+0x5da>
   10cfb:	48 c7 85 50 f5 ff ff 	movq   $0x0,-0xab0(%rbp)
   10d02:	00 00 00 00 
   10d06:	0f b7 85 52 f4 ff ff 	movzwl -0xbae(%rbp),%eax
   10d0d:	0f bf d0             	movswl %ax,%edx
   10d10:	0f b7 85 52 f4 ff ff 	movzwl -0xbae(%rbp),%eax
   10d17:	98                   	cwtl   
   10d18:	89 d6                	mov    %edx,%esi
   10d1a:	89 c7                	mov    %eax,%edi
   10d1c:	e8 d4 76 ff ff       	callq  83f5 <safe_mul_func_int16_t_s_s>
   10d21:	48 0f bf d8          	movswq %ax,%rbx
   10d25:	48 8b 85 30 f4 ff ff 	mov    -0xbd0(%rbp),%rax
   10d2c:	48 be a2 a0 d8 86 26 	movabs $0xadc18c2686d8a0a2,%rsi
   10d33:	8c c1 ad 
   10d36:	48 89 c7             	mov    %rax,%rdi
   10d39:	e8 76 7c ff ff       	callq  89b4 <safe_mod_func_int64_t_s_s>
   10d3e:	8b 95 2c f4 ff ff    	mov    -0xbd4(%rbp),%edx
   10d44:	89 d2                	mov    %edx,%edx
   10d46:	48 21 d0             	and    %rdx,%rax
   10d49:	48 39 c3             	cmp    %rax,%rbx
   10d4c:	0f 84 23 09 00 00    	je     11675 <func_66+0xf7b>
   10d52:	c7 85 d4 f4 ff ff fb 	movl   $0xfffffffb,-0xb2c(%rbp)
   10d59:	ff ff ff 
   10d5c:	c7 85 d8 f4 ff ff ff 	movl   $0xffffffff,-0xb28(%rbp)
   10d63:	ff ff ff 
   10d66:	83 ad d4 f4 ff ff 01 	subl   $0x1,-0xb2c(%rbp)
   10d6d:	c7 85 28 f4 ff ff 00 	movl   $0x0,-0xbd8(%rbp)
   10d74:	00 00 00 
   10d77:	c6 05 c8 c4 00 00 00 	movb   $0x0,0xc4c8(%rip)        # 1d246 <g_329>
   10d7e:	e9 de 08 00 00       	jmpq   11661 <func_66+0xf67>
   10d83:	48 c7 85 f0 f5 ff ff 	movq   $0x7,-0xa10(%rbp)
   10d8a:	07 00 00 00 
   10d8e:	48 8d 05 0b c5 00 00 	lea    0xc50b(%rip),%rax        # 1d2a0 <g_548>
   10d95:	48 89 85 f8 f5 ff ff 	mov    %rax,-0xa08(%rbp)
   10d9c:	c7 85 00 f5 ff ff f7 	movl   $0xfffffff7,-0xb00(%rbp)
   10da3:	ff ff ff 
   10da6:	48 8d 05 d3 c2 00 00 	lea    0xc2d3(%rip),%rax        # 1d080 <g_55>
   10dad:	48 89 85 50 fb ff ff 	mov    %rax,-0x4b0(%rbp)
   10db4:	48 8d 05 a5 c4 00 00 	lea    0xc4a5(%rip),%rax        # 1d260 <g_386>
   10dbb:	48 89 85 58 fb ff ff 	mov    %rax,-0x4a8(%rbp)
   10dc2:	48 8d 05 87 1e 01 00 	lea    0x11e87(%rip),%rax        # 22c50 <g_22>
   10dc9:	48 89 85 60 fb ff ff 	mov    %rax,-0x4a0(%rbp)
   10dd0:	48 c7 85 68 fb ff ff 	movq   $0x0,-0x498(%rbp)
   10dd7:	00 00 00 00 
   10ddb:	48 8d 85 60 f4 ff ff 	lea    -0xba0(%rbp),%rax
   10de2:	48 89 85 70 fb ff ff 	mov    %rax,-0x490(%rbp)
   10de9:	48 c7 85 78 fb ff ff 	movq   $0x0,-0x488(%rbp)
   10df0:	00 00 00 00 
   10df4:	48 8d 05 65 c4 00 00 	lea    0xc465(%rip),%rax        # 1d260 <g_386>
   10dfb:	48 89 85 80 fb ff ff 	mov    %rax,-0x480(%rbp)
   10e02:	48 8d 85 60 f4 ff ff 	lea    -0xba0(%rbp),%rax
   10e09:	48 89 85 88 fb ff ff 	mov    %rax,-0x478(%rbp)
   10e10:	48 c7 85 90 fb ff ff 	movq   $0x0,-0x470(%rbp)
   10e17:	00 00 00 00 
   10e1b:	48 8d 05 5e c2 00 00 	lea    0xc25e(%rip),%rax        # 1d080 <g_55>
   10e22:	48 89 85 98 fb ff ff 	mov    %rax,-0x468(%rbp)
   10e29:	48 c7 85 a0 fb ff ff 	movq   $0x0,-0x460(%rbp)
   10e30:	00 00 00 00 
   10e34:	48 8d 85 60 f4 ff ff 	lea    -0xba0(%rbp),%rax
   10e3b:	48 89 85 a8 fb ff ff 	mov    %rax,-0x458(%rbp)
   10e42:	48 8d 05 17 c4 00 00 	lea    0xc417(%rip),%rax        # 1d260 <g_386>
   10e49:	48 89 85 b0 fb ff ff 	mov    %rax,-0x450(%rbp)
   10e50:	48 c7 85 b8 fb ff ff 	movq   $0x0,-0x448(%rbp)
   10e57:	00 00 00 00 
   10e5b:	48 8d 85 60 f4 ff ff 	lea    -0xba0(%rbp),%rax
   10e62:	48 89 85 c0 fb ff ff 	mov    %rax,-0x440(%rbp)
   10e69:	48 c7 85 c8 fb ff ff 	movq   $0x0,-0x438(%rbp)
   10e70:	00 00 00 00 
   10e74:	48 8d 05 d5 1d 01 00 	lea    0x11dd5(%rip),%rax        # 22c50 <g_22>
   10e7b:	48 89 85 d0 fb ff ff 	mov    %rax,-0x430(%rbp)
   10e82:	48 8d 05 d7 c3 00 00 	lea    0xc3d7(%rip),%rax        # 1d260 <g_386>
   10e89:	48 89 85 d8 fb ff ff 	mov    %rax,-0x428(%rbp)
   10e90:	48 8d 05 e9 c1 00 00 	lea    0xc1e9(%rip),%rax        # 1d080 <g_55>
   10e97:	48 89 85 e0 fb ff ff 	mov    %rax,-0x420(%rbp)
   10e9e:	48 c7 85 e8 fb ff ff 	movq   $0x0,-0x418(%rbp)
   10ea5:	00 00 00 00 
   10ea9:	48 c7 85 f0 fb ff ff 	movq   $0x0,-0x410(%rbp)
   10eb0:	00 00 00 00 
   10eb4:	48 8d 05 c5 c1 00 00 	lea    0xc1c5(%rip),%rax        # 1d080 <g_55>
   10ebb:	48 89 85 f8 fb ff ff 	mov    %rax,-0x408(%rbp)
   10ec2:	48 8d 05 87 1d 01 00 	lea    0x11d87(%rip),%rax        # 22c50 <g_22>
   10ec9:	48 89 85 00 fc ff ff 	mov    %rax,-0x400(%rbp)
   10ed0:	48 8d 05 79 1d 01 00 	lea    0x11d79(%rip),%rax        # 22c50 <g_22>
   10ed7:	48 89 85 08 fc ff ff 	mov    %rax,-0x3f8(%rbp)
   10ede:	48 8d 05 93 c1 00 00 	lea    0xc193(%rip),%rax        # 1d078 <g_44>
   10ee5:	48 89 85 10 fc ff ff 	mov    %rax,-0x3f0(%rbp)
   10eec:	48 8d 85 60 f4 ff ff 	lea    -0xba0(%rbp),%rax
   10ef3:	48 89 85 18 fc ff ff 	mov    %rax,-0x3e8(%rbp)
   10efa:	48 c7 85 20 fc ff ff 	movq   $0x0,-0x3e0(%rbp)
   10f01:	00 00 00 00 
   10f05:	48 8d 05 74 c1 00 00 	lea    0xc174(%rip),%rax        # 1d080 <g_55>
   10f0c:	48 89 85 28 fc ff ff 	mov    %rax,-0x3d8(%rbp)
   10f13:	48 c7 85 30 fc ff ff 	movq   $0x0,-0x3d0(%rbp)
   10f1a:	00 00 00 00 
   10f1e:	48 8d 05 2b 1d 01 00 	lea    0x11d2b(%rip),%rax        # 22c50 <g_22>
   10f25:	48 89 85 38 fc ff ff 	mov    %rax,-0x3c8(%rbp)
   10f2c:	48 8d 05 45 c1 00 00 	lea    0xc145(%rip),%rax        # 1d078 <g_44>
   10f33:	48 89 85 40 fc ff ff 	mov    %rax,-0x3c0(%rbp)
   10f3a:	48 8d 85 00 f5 ff ff 	lea    -0xb00(%rbp),%rax
   10f41:	48 89 85 48 fc ff ff 	mov    %rax,-0x3b8(%rbp)
   10f48:	48 c7 85 50 fc ff ff 	movq   $0x0,-0x3b0(%rbp)
   10f4f:	00 00 00 00 
   10f53:	48 8d 05 1e c1 00 00 	lea    0xc11e(%rip),%rax        # 1d078 <g_44>
   10f5a:	48 89 85 58 fc ff ff 	mov    %rax,-0x3a8(%rbp)
   10f61:	48 c7 85 60 fc ff ff 	movq   $0x0,-0x3a0(%rbp)
   10f68:	00 00 00 00 
   10f6c:	48 c7 85 68 fc ff ff 	movq   $0x0,-0x398(%rbp)
   10f73:	00 00 00 00 
   10f77:	48 8d 85 00 f5 ff ff 	lea    -0xb00(%rbp),%rax
   10f7e:	48 89 85 70 fc ff ff 	mov    %rax,-0x390(%rbp)
   10f85:	48 c7 85 78 fc ff ff 	movq   $0x0,-0x388(%rbp)
   10f8c:	00 00 00 00 
   10f90:	48 8d 05 e9 c0 00 00 	lea    0xc0e9(%rip),%rax        # 1d080 <g_55>
   10f97:	48 89 85 80 fc ff ff 	mov    %rax,-0x380(%rbp)
   10f9e:	48 8d 05 ab 1c 01 00 	lea    0x11cab(%rip),%rax        # 22c50 <g_22>
   10fa5:	48 89 85 88 fc ff ff 	mov    %rax,-0x378(%rbp)
   10fac:	48 8d 05 9d 1c 01 00 	lea    0x11c9d(%rip),%rax        # 22c50 <g_22>
   10fb3:	48 89 85 90 fc ff ff 	mov    %rax,-0x370(%rbp)
   10fba:	48 8d 05 8f 1c 01 00 	lea    0x11c8f(%rip),%rax        # 22c50 <g_22>
   10fc1:	48 89 85 98 fc ff ff 	mov    %rax,-0x368(%rbp)
   10fc8:	48 8d 05 b1 c0 00 00 	lea    0xc0b1(%rip),%rax        # 1d080 <g_55>
   10fcf:	48 89 85 a0 fc ff ff 	mov    %rax,-0x360(%rbp)
   10fd6:	48 c7 85 a8 fc ff ff 	movq   $0x0,-0x358(%rbp)
   10fdd:	00 00 00 00 
   10fe1:	48 8d 85 00 f5 ff ff 	lea    -0xb00(%rbp),%rax
   10fe8:	48 89 85 b0 fc ff ff 	mov    %rax,-0x350(%rbp)
   10fef:	48 c7 85 b8 fc ff ff 	movq   $0x0,-0x348(%rbp)
   10ff6:	00 00 00 00 
   10ffa:	48 c7 85 c0 fc ff ff 	movq   $0x0,-0x340(%rbp)
   11001:	00 00 00 00 
   11005:	48 8d 05 6c c0 00 00 	lea    0xc06c(%rip),%rax        # 1d078 <g_44>
   1100c:	48 89 85 c8 fc ff ff 	mov    %rax,-0x338(%rbp)
   11013:	48 c7 85 d0 fc ff ff 	movq   $0x0,-0x330(%rbp)
   1101a:	00 00 00 00 
   1101e:	48 8d 85 00 f5 ff ff 	lea    -0xb00(%rbp),%rax
   11025:	48 89 85 d8 fc ff ff 	mov    %rax,-0x328(%rbp)
   1102c:	48 8d 05 45 c0 00 00 	lea    0xc045(%rip),%rax        # 1d078 <g_44>
   11033:	48 89 85 e0 fc ff ff 	mov    %rax,-0x320(%rbp)
   1103a:	48 8d 05 0f 1c 01 00 	lea    0x11c0f(%rip),%rax        # 22c50 <g_22>
   11041:	48 89 85 e8 fc ff ff 	mov    %rax,-0x318(%rbp)
   11048:	48 c7 85 f0 fc ff ff 	movq   $0x0,-0x310(%rbp)
   1104f:	00 00 00 00 
   11053:	48 8d 05 26 c0 00 00 	lea    0xc026(%rip),%rax        # 1d080 <g_55>
   1105a:	48 89 85 f8 fc ff ff 	mov    %rax,-0x308(%rbp)
   11061:	48 c7 85 00 fd ff ff 	movq   $0x0,-0x300(%rbp)
   11068:	00 00 00 00 
   1106c:	48 8d 85 60 f4 ff ff 	lea    -0xba0(%rbp),%rax
   11073:	48 89 85 08 fd ff ff 	mov    %rax,-0x2f8(%rbp)
   1107a:	48 8d 05 f7 bf 00 00 	lea    0xbff7(%rip),%rax        # 1d078 <g_44>
   11081:	48 89 85 10 fd ff ff 	mov    %rax,-0x2f0(%rbp)
   11088:	48 8d 05 c1 1b 01 00 	lea    0x11bc1(%rip),%rax        # 22c50 <g_22>
   1108f:	48 89 85 18 fd ff ff 	mov    %rax,-0x2e8(%rbp)
   11096:	48 8d 05 e3 bf 00 00 	lea    0xbfe3(%rip),%rax        # 1d080 <g_55>
   1109d:	48 89 85 20 fd ff ff 	mov    %rax,-0x2e0(%rbp)
   110a4:	48 c7 85 28 fd ff ff 	movq   $0x0,-0x2d8(%rbp)
   110ab:	00 00 00 00 
   110af:	48 c7 85 30 fd ff ff 	movq   $0x0,-0x2d0(%rbp)
   110b6:	00 00 00 00 
   110ba:	48 c7 85 38 fd ff ff 	movq   $0x0,-0x2c8(%rbp)
   110c1:	00 00 00 00 
   110c5:	48 8d 05 b4 bf 00 00 	lea    0xbfb4(%rip),%rax        # 1d080 <g_55>
   110cc:	48 89 85 40 fd ff ff 	mov    %rax,-0x2c0(%rbp)
   110d3:	48 8d 05 a6 bf 00 00 	lea    0xbfa6(%rip),%rax        # 1d080 <g_55>
   110da:	48 89 85 48 fd ff ff 	mov    %rax,-0x2b8(%rbp)
   110e1:	48 8d 05 68 1b 01 00 	lea    0x11b68(%rip),%rax        # 22c50 <g_22>
   110e8:	48 89 85 50 fd ff ff 	mov    %rax,-0x2b0(%rbp)
   110ef:	48 8d 85 00 f5 ff ff 	lea    -0xb00(%rbp),%rax
   110f6:	48 89 85 58 fd ff ff 	mov    %rax,-0x2a8(%rbp)
   110fd:	48 8d 05 7c bf 00 00 	lea    0xbf7c(%rip),%rax        # 1d080 <g_55>
   11104:	48 89 85 60 fd ff ff 	mov    %rax,-0x2a0(%rbp)
   1110b:	48 8d 05 6e bf 00 00 	lea    0xbf6e(%rip),%rax        # 1d080 <g_55>
   11112:	48 89 85 68 fd ff ff 	mov    %rax,-0x298(%rbp)
   11119:	48 8d 85 00 f5 ff ff 	lea    -0xb00(%rbp),%rax
   11120:	48 89 85 70 fd ff ff 	mov    %rax,-0x290(%rbp)
   11127:	48 8d 05 52 bf 00 00 	lea    0xbf52(%rip),%rax        # 1d080 <g_55>
   1112e:	48 89 85 78 fd ff ff 	mov    %rax,-0x288(%rbp)
   11135:	48 c7 85 80 fd ff ff 	movq   $0x0,-0x280(%rbp)
   1113c:	00 00 00 00 
   11140:	48 8d 05 09 1b 01 00 	lea    0x11b09(%rip),%rax        # 22c50 <g_22>
   11147:	48 89 85 88 fd ff ff 	mov    %rax,-0x278(%rbp)
   1114e:	48 c7 85 90 fd ff ff 	movq   $0x0,-0x270(%rbp)
   11155:	00 00 00 00 
   11159:	48 8d 05 20 bf 00 00 	lea    0xbf20(%rip),%rax        # 1d080 <g_55>
   11160:	48 89 85 98 fd ff ff 	mov    %rax,-0x268(%rbp)
   11167:	48 8d 85 00 f5 ff ff 	lea    -0xb00(%rbp),%rax
   1116e:	48 89 85 a0 fd ff ff 	mov    %rax,-0x260(%rbp)
   11175:	48 8d 05 04 bf 00 00 	lea    0xbf04(%rip),%rax        # 1d080 <g_55>
   1117c:	48 89 85 a8 fd ff ff 	mov    %rax,-0x258(%rbp)
   11183:	48 8d 05 f6 be 00 00 	lea    0xbef6(%rip),%rax        # 1d080 <g_55>
   1118a:	48 89 85 b0 fd ff ff 	mov    %rax,-0x250(%rbp)
   11191:	48 8d 85 00 f5 ff ff 	lea    -0xb00(%rbp),%rax
   11198:	48 89 85 b8 fd ff ff 	mov    %rax,-0x248(%rbp)
   1119f:	48 8d 05 aa 1a 01 00 	lea    0x11aaa(%rip),%rax        # 22c50 <g_22>
   111a6:	48 89 85 c0 fd ff ff 	mov    %rax,-0x240(%rbp)
   111ad:	48 8d 05 cc be 00 00 	lea    0xbecc(%rip),%rax        # 1d080 <g_55>
   111b4:	48 89 85 c8 fd ff ff 	mov    %rax,-0x238(%rbp)
   111bb:	48 8d 05 be be 00 00 	lea    0xbebe(%rip),%rax        # 1d080 <g_55>
   111c2:	48 89 85 d0 fd ff ff 	mov    %rax,-0x230(%rbp)
   111c9:	48 c7 85 d8 fd ff ff 	movq   $0x0,-0x228(%rbp)
   111d0:	00 00 00 00 
   111d4:	48 c7 85 e0 fd ff ff 	movq   $0x0,-0x220(%rbp)
   111db:	00 00 00 00 
   111df:	48 c7 85 e8 fd ff ff 	movq   $0x0,-0x218(%rbp)
   111e6:	00 00 00 00 
   111ea:	48 8d 05 8f be 00 00 	lea    0xbe8f(%rip),%rax        # 1d080 <g_55>
   111f1:	48 89 85 f0 fd ff ff 	mov    %rax,-0x210(%rbp)
   111f8:	48 8d 05 51 1a 01 00 	lea    0x11a51(%rip),%rax        # 22c50 <g_22>
   111ff:	48 89 85 f8 fd ff ff 	mov    %rax,-0x208(%rbp)
   11206:	48 8d 05 6b be 00 00 	lea    0xbe6b(%rip),%rax        # 1d078 <g_44>
   1120d:	48 89 85 00 fe ff ff 	mov    %rax,-0x200(%rbp)
   11214:	48 8d 85 60 f4 ff ff 	lea    -0xba0(%rbp),%rax
   1121b:	48 89 85 08 fe ff ff 	mov    %rax,-0x1f8(%rbp)
   11222:	48 c7 85 10 fe ff ff 	movq   $0x0,-0x1f0(%rbp)
   11229:	00 00 00 00 
   1122d:	48 8d 05 4c be 00 00 	lea    0xbe4c(%rip),%rax        # 1d080 <g_55>
   11234:	48 89 85 18 fe ff ff 	mov    %rax,-0x1e8(%rbp)
   1123b:	48 c7 85 20 fe ff ff 	movq   $0x0,-0x1e0(%rbp)
   11242:	00 00 00 00 
   11246:	48 8d 05 03 1a 01 00 	lea    0x11a03(%rip),%rax        # 22c50 <g_22>
   1124d:	48 89 85 28 fe ff ff 	mov    %rax,-0x1d8(%rbp)
   11254:	48 8d 05 1d be 00 00 	lea    0xbe1d(%rip),%rax        # 1d078 <g_44>
   1125b:	48 89 85 30 fe ff ff 	mov    %rax,-0x1d0(%rbp)
   11262:	48 8d 85 00 f5 ff ff 	lea    -0xb00(%rbp),%rax
   11269:	48 89 85 38 fe ff ff 	mov    %rax,-0x1c8(%rbp)
   11270:	48 c7 85 40 fe ff ff 	movq   $0x0,-0x1c0(%rbp)
   11277:	00 00 00 00 
   1127b:	48 8d 05 f6 bd 00 00 	lea    0xbdf6(%rip),%rax        # 1d078 <g_44>
   11282:	48 89 85 48 fe ff ff 	mov    %rax,-0x1b8(%rbp)
   11289:	48 c7 85 50 fe ff ff 	movq   $0x0,-0x1b0(%rbp)
   11290:	00 00 00 00 
   11294:	48 c7 85 58 fe ff ff 	movq   $0x0,-0x1a8(%rbp)
   1129b:	00 00 00 00 
   1129f:	48 8d 85 00 f5 ff ff 	lea    -0xb00(%rbp),%rax
   112a6:	48 89 85 60 fe ff ff 	mov    %rax,-0x1a0(%rbp)
   112ad:	48 c7 85 68 fe ff ff 	movq   $0x0,-0x198(%rbp)
   112b4:	00 00 00 00 
   112b8:	48 8d 05 c1 bd 00 00 	lea    0xbdc1(%rip),%rax        # 1d080 <g_55>
   112bf:	48 89 85 70 fe ff ff 	mov    %rax,-0x190(%rbp)
   112c6:	48 8d 05 83 19 01 00 	lea    0x11983(%rip),%rax        # 22c50 <g_22>
   112cd:	48 89 85 78 fe ff ff 	mov    %rax,-0x188(%rbp)
   112d4:	48 8d 05 75 19 01 00 	lea    0x11975(%rip),%rax        # 22c50 <g_22>
   112db:	48 89 85 80 fe ff ff 	mov    %rax,-0x180(%rbp)
   112e2:	48 8d 05 67 19 01 00 	lea    0x11967(%rip),%rax        # 22c50 <g_22>
   112e9:	48 89 85 88 fe ff ff 	mov    %rax,-0x178(%rbp)
   112f0:	48 8d 05 89 bd 00 00 	lea    0xbd89(%rip),%rax        # 1d080 <g_55>
   112f7:	48 89 85 90 fe ff ff 	mov    %rax,-0x170(%rbp)
   112fe:	48 c7 85 98 fe ff ff 	movq   $0x0,-0x168(%rbp)
   11305:	00 00 00 00 
   11309:	48 8d 85 00 f5 ff ff 	lea    -0xb00(%rbp),%rax
   11310:	48 89 85 a0 fe ff ff 	mov    %rax,-0x160(%rbp)
   11317:	48 c7 85 a8 fe ff ff 	movq   $0x0,-0x158(%rbp)
   1131e:	00 00 00 00 
   11322:	48 c7 85 b0 fe ff ff 	movq   $0x0,-0x150(%rbp)
   11329:	00 00 00 00 
   1132d:	48 8d 05 44 bd 00 00 	lea    0xbd44(%rip),%rax        # 1d078 <g_44>
   11334:	48 89 85 b8 fe ff ff 	mov    %rax,-0x148(%rbp)
   1133b:	48 c7 85 c0 fe ff ff 	movq   $0x0,-0x140(%rbp)
   11342:	00 00 00 00 
   11346:	48 8d 85 00 f5 ff ff 	lea    -0xb00(%rbp),%rax
   1134d:	48 89 85 c8 fe ff ff 	mov    %rax,-0x138(%rbp)
   11354:	48 8d 05 1d bd 00 00 	lea    0xbd1d(%rip),%rax        # 1d078 <g_44>
   1135b:	48 89 85 d0 fe ff ff 	mov    %rax,-0x130(%rbp)
   11362:	48 8d 05 e7 18 01 00 	lea    0x118e7(%rip),%rax        # 22c50 <g_22>
   11369:	48 89 85 d8 fe ff ff 	mov    %rax,-0x128(%rbp)
   11370:	48 c7 85 e0 fe ff ff 	movq   $0x0,-0x120(%rbp)
   11377:	00 00 00 00 
   1137b:	48 8d 05 fe bc 00 00 	lea    0xbcfe(%rip),%rax        # 1d080 <g_55>
   11382:	48 89 85 e8 fe ff ff 	mov    %rax,-0x118(%rbp)
   11389:	48 c7 85 f0 fe ff ff 	movq   $0x0,-0x110(%rbp)
   11390:	00 00 00 00 
   11394:	48 8d 85 60 f4 ff ff 	lea    -0xba0(%rbp),%rax
   1139b:	48 89 85 f8 fe ff ff 	mov    %rax,-0x108(%rbp)
   113a2:	48 8d 05 cf bc 00 00 	lea    0xbccf(%rip),%rax        # 1d078 <g_44>
   113a9:	48 89 85 00 ff ff ff 	mov    %rax,-0x100(%rbp)
   113b0:	48 8d 05 99 18 01 00 	lea    0x11899(%rip),%rax        # 22c50 <g_22>
   113b7:	48 89 85 08 ff ff ff 	mov    %rax,-0xf8(%rbp)
   113be:	48 8d 05 bb bc 00 00 	lea    0xbcbb(%rip),%rax        # 1d080 <g_55>
   113c5:	48 89 85 10 ff ff ff 	mov    %rax,-0xf0(%rbp)
   113cc:	48 c7 85 18 ff ff ff 	movq   $0x0,-0xe8(%rbp)
   113d3:	00 00 00 00 
   113d7:	48 c7 85 20 ff ff ff 	movq   $0x0,-0xe0(%rbp)
   113de:	00 00 00 00 
   113e2:	48 c7 85 28 ff ff ff 	movq   $0x0,-0xd8(%rbp)
   113e9:	00 00 00 00 
   113ed:	48 8d 05 8c bc 00 00 	lea    0xbc8c(%rip),%rax        # 1d080 <g_55>
   113f4:	48 89 85 30 ff ff ff 	mov    %rax,-0xd0(%rbp)
   113fb:	48 8d 05 7e bc 00 00 	lea    0xbc7e(%rip),%rax        # 1d080 <g_55>
   11402:	48 89 85 38 ff ff ff 	mov    %rax,-0xc8(%rbp)
   11409:	48 8d 05 40 18 01 00 	lea    0x11840(%rip),%rax        # 22c50 <g_22>
   11410:	48 89 85 40 ff ff ff 	mov    %rax,-0xc0(%rbp)
   11417:	48 8d 85 00 f5 ff ff 	lea    -0xb00(%rbp),%rax
   1141e:	48 89 85 48 ff ff ff 	mov    %rax,-0xb8(%rbp)
   11425:	48 8d 05 54 bc 00 00 	lea    0xbc54(%rip),%rax        # 1d080 <g_55>
   1142c:	48 89 85 50 ff ff ff 	mov    %rax,-0xb0(%rbp)
   11433:	48 8d 05 46 bc 00 00 	lea    0xbc46(%rip),%rax        # 1d080 <g_55>
   1143a:	48 89 85 58 ff ff ff 	mov    %rax,-0xa8(%rbp)
   11441:	48 8d 85 00 f5 ff ff 	lea    -0xb00(%rbp),%rax
   11448:	48 89 85 60 ff ff ff 	mov    %rax,-0xa0(%rbp)
   1144f:	48 8d 05 2a bc 00 00 	lea    0xbc2a(%rip),%rax        # 1d080 <g_55>
   11456:	48 89 85 68 ff ff ff 	mov    %rax,-0x98(%rbp)
   1145d:	48 c7 85 70 ff ff ff 	movq   $0x0,-0x90(%rbp)
   11464:	00 00 00 00 
   11468:	48 8d 05 e1 17 01 00 	lea    0x117e1(%rip),%rax        # 22c50 <g_22>
   1146f:	48 89 85 78 ff ff ff 	mov    %rax,-0x88(%rbp)
   11476:	48 c7 45 80 00 00 00 	movq   $0x0,-0x80(%rbp)
   1147d:	00 
   1147e:	48 8d 05 fb bb 00 00 	lea    0xbbfb(%rip),%rax        # 1d080 <g_55>
   11485:	48 89 45 88          	mov    %rax,-0x78(%rbp)
   11489:	48 8d 85 00 f5 ff ff 	lea    -0xb00(%rbp),%rax
   11490:	48 89 45 90          	mov    %rax,-0x70(%rbp)
   11494:	48 8d 05 e5 bb 00 00 	lea    0xbbe5(%rip),%rax        # 1d080 <g_55>
   1149b:	48 89 45 98          	mov    %rax,-0x68(%rbp)
   1149f:	48 8d 05 da bb 00 00 	lea    0xbbda(%rip),%rax        # 1d080 <g_55>
   114a6:	48 89 45 a0          	mov    %rax,-0x60(%rbp)
   114aa:	48 8d 85 00 f5 ff ff 	lea    -0xb00(%rbp),%rax
   114b1:	48 89 45 a8          	mov    %rax,-0x58(%rbp)
   114b5:	c7 85 dc f4 ff ff ff 	movl   $0xffffffff,-0xb24(%rbp)
   114bc:	ff ff ff 
   114bf:	48 8b 85 10 f5 ff ff 	mov    -0xaf0(%rbp),%rax
   114c6:	48 8b 00             	mov    (%rax),%rax
   114c9:	48 8d 95 28 f4 ff ff 	lea    -0xbd8(%rbp),%rdx
   114d0:	48 89 10             	mov    %rdx,(%rax)
   114d3:	48 83 ad f0 f5 ff ff 	subq   $0x1,-0xa10(%rbp)
   114da:	01 
   114db:	48 83 bd f0 f5 ff ff 	cmpq   $0x0,-0xa10(%rbp)
   114e2:	00 
   114e3:	0f 85 fc 00 00 00    	jne    115e5 <func_66+0xeeb>
   114e9:	48 8b 85 f0 f4 ff ff 	mov    -0xb10(%rbp),%rax
   114f0:	89 c2                	mov    %eax,%edx
   114f2:	8b 85 d4 f4 ff ff    	mov    -0xb2c(%rbp),%eax
   114f8:	89 d6                	mov    %edx,%esi
   114fa:	89 c7                	mov    %eax,%edi
   114fc:	e8 04 71 ff ff       	callq  8605 <safe_sub_func_int32_t_s_s>
   11501:	48 8b 05 70 17 01 00 	mov    0x11770(%rip),%rax        # 22c78 <g_536>
   11508:	48 89 05 69 17 01 00 	mov    %rax,0x11769(%rip)        # 22c78 <g_536>
   1150f:	48 8b 05 62 17 01 00 	mov    0x11762(%rip),%rax        # 22c78 <g_536>
   11516:	48 39 85 20 f5 ff ff 	cmp    %rax,-0xae0(%rbp)
   1151d:	41 0f 94 c5          	sete   %r13b
   11521:	8b 85 28 f4 ff ff    	mov    -0xbd8(%rbp),%eax
   11527:	4c 63 e0             	movslq %eax,%r12
   1152a:	48 8b 85 30 f4 ff ff 	mov    -0xbd0(%rbp),%rax
   11531:	89 c3                	mov    %eax,%ebx
   11533:	48 8b 05 46 bd 00 00 	mov    0xbd46(%rip),%rax        # 1d280 <g_415+0x10>
   1153a:	48 8b 05 5f bb 00 00 	mov    0xbb5f(%rip),%rax        # 1d0a0 <g_153+0x10>
   11541:	48 c1 e8 0a          	shr    $0xa,%rax
   11545:	25 ff ff 7f 00       	and    $0x7fffff,%eax
   1154a:	0f b6 c0             	movzbl %al,%eax
   1154d:	be 01 00 00 00       	mov    $0x1,%esi
   11552:	89 c7                	mov    %eax,%edi
   11554:	e8 82 76 ff ff       	callq  8bdb <safe_div_func_uint8_t_u_u>
   11559:	8b 15 31 bd 00 00    	mov    0xbd31(%rip),%edx        # 1d290 <g_448>
   1155f:	8b 85 28 f4 ff ff    	mov    -0xbd8(%rbp),%eax
   11565:	39 c2                	cmp    %eax,%edx
   11567:	0f 9c c0             	setl   %al
   1156a:	0f b6 c0             	movzbl %al,%eax
   1156d:	89 de                	mov    %ebx,%esi
   1156f:	89 c7                	mov    %eax,%edi
   11571:	e8 40 70 ff ff       	callq  85b6 <safe_add_func_int32_t_s_s>
   11576:	48 98                	cltq   
   11578:	be 03 00 00 00       	mov    $0x3,%esi
   1157d:	48 89 c7             	mov    %rax,%rdi
   11580:	e8 72 74 ff ff       	callq  89f7 <safe_div_func_int64_t_s_s>
   11585:	0f b6 d8             	movzbl %al,%ebx
   11588:	48 8b 85 f8 f5 ff ff 	mov    -0xa08(%rbp),%rax
   1158f:	66 c7 00 01 00       	movw   $0x1,(%rax)
   11594:	be 01 00 00 00       	mov    $0x1,%esi
   11599:	bf 01 00 00 00       	mov    $0x1,%edi
   1159e:	e8 d7 78 ff ff       	callq  8e7a <safe_rshift_func_uint16_t_u_u>
   115a3:	0f b6 c0             	movzbl %al,%eax
   115a6:	89 de                	mov    %ebx,%esi
   115a8:	89 c7                	mov    %eax,%edi
   115aa:	e8 c9 75 ff ff       	callq  8b78 <safe_sub_func_uint8_t_u_u>
   115af:	0f b6 c0             	movzbl %al,%eax
   115b2:	48 89 05 b7 ba 00 00 	mov    %rax,0xbab7(%rip)        # 1d070 <g_40>
   115b9:	48 8b 05 b0 ba 00 00 	mov    0xbab0(%rip),%rax        # 1d070 <g_40>
   115c0:	49 39 c4             	cmp    %rax,%r12
   115c3:	0f 9c c0             	setl   %al
   115c6:	0f b6 d0             	movzbl %al,%edx
   115c9:	48 8b 05 80 07 01 00 	mov    0x10780(%rip),%rax        # 21d50 <g_436>
   115d0:	48 8b 00             	mov    (%rax),%rax
   115d3:	0f b7 00             	movzwl (%rax),%eax
   115d6:	0f b7 c0             	movzwl %ax,%eax
   115d9:	39 c2                	cmp    %eax,%edx
   115db:	0f 95 c0             	setne  %al
   115de:	44 31 e8             	xor    %r13d,%eax
   115e1:	84 c0                	test   %al,%al
   115e3:	74 3b                	je     11620 <func_66+0xf26>
   115e5:	c6 85 51 f4 ff ff 14 	movb   $0x14,-0xbaf(%rbp)
   115ec:	48 8d 05 2d 05 01 00 	lea    0x1052d(%rip),%rax        # 21b20 <g_54>
   115f3:	48 89 85 00 f6 ff ff 	mov    %rax,-0xa00(%rbp)
   115fa:	80 ad 51 f4 ff ff 01 	subb   $0x1,-0xbaf(%rbp)
   11601:	8b 85 28 f4 ff ff    	mov    -0xbd8(%rbp),%eax
   11607:	89 85 28 f4 ff ff    	mov    %eax,-0xbd8(%rbp)
   1160d:	48 8b 85 00 f6 ff ff 	mov    -0xa00(%rbp),%rax
   11614:	48 8b 95 18 f5 ff ff 	mov    -0xae8(%rbp),%rdx
   1161b:	48 89 10             	mov    %rdx,(%rax)
   1161e:	eb 1e                	jmp    1163e <func_66+0xf44>
   11620:	48 8b 85 30 f4 ff ff 	mov    -0xbd0(%rbp),%rax
   11627:	89 85 28 f4 ff ff    	mov    %eax,-0xbd8(%rbp)
   1162d:	48 8b 85 10 f5 ff ff 	mov    -0xaf0(%rbp),%rax
   11634:	48 8b 00             	mov    (%rax),%rax
   11637:	48 8b 55 80          	mov    -0x80(%rbp),%rdx
   1163b:	48 89 10             	mov    %rdx,(%rax)
   1163e:	83 85 dc f4 ff ff 01 	addl   $0x1,-0xb24(%rbp)
   11645:	0f b6 05 fa bb 00 00 	movzbl 0xbbfa(%rip),%eax        # 1d246 <g_329>
   1164c:	0f be c0             	movsbl %al,%eax
   1164f:	be 09 00 00 00       	mov    $0x9,%esi
   11654:	89 c7                	mov    %eax,%edi
   11656:	e8 75 78 ff ff       	callq  8ed0 <safe_sub_func_uint32_t_u_u>
   1165b:	88 05 e5 bb 00 00    	mov    %al,0xbbe5(%rip)        # 1d246 <g_329>
   11661:	0f b6 05 de bb 00 00 	movzbl 0xbbde(%rip),%eax        # 1d246 <g_329>
   11668:	3c ec                	cmp    $0xec,%al
   1166a:	0f 8c 13 f7 ff ff    	jl     10d83 <func_66+0x689>
   11670:	e9 00 0b 00 00       	jmpq   12175 <func_66+0x1a7b>
   11675:	48 b8 0c f8 77 e0 e0 	movabs $0x2b777e0e077f80c,%rax
   1167c:	77 b7 02 
   1167f:	48 89 85 78 f5 ff ff 	mov    %rax,-0xa88(%rbp)
   11686:	c7 85 a0 f4 ff ff f9 	movl   $0xfffffff9,-0xb60(%rbp)
   1168d:	ff ff ff 
   11690:	c7 85 a4 f4 ff ff 11 	movl   $0x252f9711,-0xb5c(%rbp)
   11697:	97 2f 25 
   1169a:	c7 85 a8 f4 ff ff 01 	movl   $0x1,-0xb58(%rbp)
   116a1:	00 00 00 
   116a4:	66 c7 85 5c f4 ff ff 	movw   $0xb768,-0xba4(%rbp)
   116ab:	68 b7 
   116ad:	c6 85 4e f4 ff ff 7b 	movb   $0x7b,-0xbb2(%rbp)
   116b4:	c6 85 4f f4 ff ff dc 	movb   $0xdc,-0xbb1(%rbp)
   116bb:	66 c7 05 dc bb 00 00 	movw   $0x0,0xbbdc(%rip)        # 1d2a0 <g_548>
   116c2:	00 00 
   116c4:	e9 f3 03 00 00       	jmpq   11abc <func_66+0x13c2>
   116c9:	48 8d 85 f0 f4 ff ff 	lea    -0xb10(%rbp),%rax
   116d0:	48 89 85 b0 f5 ff ff 	mov    %rax,-0xa50(%rbp)
   116d7:	c7 85 b8 f4 ff ff 01 	movl   $0x1,-0xb48(%rbp)
   116de:	00 00 00 
   116e1:	c7 85 bc f4 ff ff ff 	movl   $0xffffffff,-0xb44(%rbp)
   116e8:	ff ff ff 
   116eb:	48 8d 05 78 bb 00 00 	lea    0xbb78(%rip),%rax        # 1d26a <g_406>
   116f2:	48 89 85 b8 f5 ff ff 	mov    %rax,-0xa48(%rbp)
   116f9:	c7 85 c0 f4 ff ff 04 	movl   $0x5372da04,-0xb40(%rbp)
   11700:	da 72 53 
   11703:	c7 85 c4 f4 ff ff 01 	movl   $0x6c2a7901,-0xb3c(%rbp)
   1170a:	79 2a 6c 
   1170d:	c7 85 78 f4 ff ff 00 	movl   $0x0,-0xb88(%rbp)
   11714:	00 00 00 
   11717:	eb 14                	jmp    1172d <func_66+0x1033>
   11719:	8b 85 78 f4 ff ff    	mov    -0xb88(%rbp),%eax
   1171f:	48 98                	cltq   
   11721:	c6 44 05 be 00       	movb   $0x0,-0x42(%rbp,%rax,1)
   11726:	83 85 78 f4 ff ff 01 	addl   $0x1,-0xb88(%rbp)
   1172d:	83 bd 78 f4 ff ff 02 	cmpl   $0x2,-0xb88(%rbp)
   11734:	7e e3                	jle    11719 <func_66+0x101f>
   11736:	c7 05 50 bb 00 00 fe 	movl   $0xfffffffe,0xbb50(%rip)        # 1d290 <g_448>
   1173d:	ff ff ff 
   11740:	e9 90 01 00 00       	jmpq   118d5 <func_66+0x11db>
   11745:	c7 85 50 fb ff ff ac 	movl   $0xd67b30ac,-0x4b0(%rbp)
   1174c:	30 7b d6 
   1174f:	c7 85 54 fb ff ff 00 	movl   $0x0,-0x4ac(%rbp)
   11756:	00 00 00 
   11759:	c7 85 58 fb ff ff ac 	movl   $0xd67b30ac,-0x4a8(%rbp)
   11760:	30 7b d6 
   11763:	c7 85 5c fb ff ff 00 	movl   $0x0,-0x4a4(%rbp)
   1176a:	00 00 00 
   1176d:	c7 85 60 fb ff ff ac 	movl   $0xd67b30ac,-0x4a0(%rbp)
   11774:	30 7b d6 
   11777:	c7 85 64 fb ff ff 00 	movl   $0x0,-0x49c(%rbp)
   1177e:	00 00 00 
   11781:	c7 85 68 fb ff ff ac 	movl   $0xd67b30ac,-0x498(%rbp)
   11788:	30 7b d6 
   1178b:	48 c7 85 c0 f5 ff ff 	movq   $0x0,-0xa40(%rbp)
   11792:	00 00 00 00 
   11796:	48 8d 05 d3 b8 00 00 	lea    0xb8d3(%rip),%rax        # 1d070 <g_40>
   1179d:	48 89 85 c8 f5 ff ff 	mov    %rax,-0xa38(%rbp)
   117a4:	48 8d 85 10 f9 ff ff 	lea    -0x6f0(%rbp),%rax
   117ab:	48 05 58 01 00 00    	add    $0x158,%rax
   117b1:	48 89 85 d0 f5 ff ff 	mov    %rax,-0xa30(%rbp)
   117b8:	48 8d 05 8b b8 00 00 	lea    0xb88b(%rip),%rax        # 1d04a <g_31+0xa>
   117bf:	48 89 85 00 f5 ff ff 	mov    %rax,-0xb00(%rbp)
   117c6:	48 8d 85 00 f5 ff ff 	lea    -0xb00(%rbp),%rax
   117cd:	48 89 85 d8 f5 ff ff 	mov    %rax,-0xa28(%rbp)
   117d4:	8b 85 28 f4 ff ff    	mov    -0xbd8(%rbp),%eax
   117da:	85 c0                	test   %eax,%eax
   117dc:	0f 85 04 01 00 00    	jne    118e6 <func_66+0x11ec>
   117e2:	48 8b 15 ff 03 01 00 	mov    0x103ff(%rip),%rdx        # 21be8 <g_152>
   117e9:	48 8b 85 e8 f4 ff ff 	mov    -0xb18(%rbp),%rax
   117f0:	48 8b 00             	mov    (%rax),%rax
   117f3:	48 8b 00             	mov    (%rax),%rax
   117f6:	48 8b 0a             	mov    (%rdx),%rcx
   117f9:	48 8b 5a 08          	mov    0x8(%rdx),%rbx
   117fd:	48 89 08             	mov    %rcx,(%rax)
   11800:	48 89 58 08          	mov    %rbx,0x8(%rax)
   11804:	48 8b 4a 10          	mov    0x10(%rdx),%rcx
   11808:	48 89 48 10          	mov    %rcx,0x10(%rax)
   1180c:	0f b7 52 18          	movzwl 0x18(%rdx),%edx
   11810:	66 89 50 18          	mov    %dx,0x18(%rax)
   11814:	8b 85 54 fb ff ff    	mov    -0x4ac(%rbp),%eax
   1181a:	85 c0                	test   %eax,%eax
   1181c:	0f 85 a3 00 00 00    	jne    118c5 <func_66+0x11cb>
   11822:	8b 05 68 ba 00 00    	mov    0xba68(%rip),%eax        # 1d290 <g_448>
   11828:	0f be d8             	movsbl %al,%ebx
   1182b:	48 8b 85 d0 f5 ff ff 	mov    -0xa30(%rbp),%rax
   11832:	48 8d 15 11 b8 00 00 	lea    0xb811(%rip),%rdx        # 1d04a <g_31+0xa>
   11839:	48 89 10             	mov    %rdx,(%rax)
   1183c:	48 8b 85 d0 f5 ff ff 	mov    -0xa30(%rbp),%rax
   11843:	48 8b 10             	mov    (%rax),%rdx
   11846:	48 8b 85 d8 f5 ff ff 	mov    -0xa28(%rbp),%rax
   1184d:	48 89 10             	mov    %rdx,(%rax)
   11850:	48 8b 85 d8 f5 ff ff 	mov    -0xa28(%rbp),%rax
   11857:	48 8b 00             	mov    (%rax),%rax
   1185a:	48 8d 15 e9 b7 00 00 	lea    0xb7e9(%rip),%rdx        # 1d04a <g_31+0xa>
   11861:	48 39 d0             	cmp    %rdx,%rax
   11864:	0f 95 c0             	setne  %al
   11867:	0f b6 c0             	movzbl %al,%eax
   1186a:	be 97 f1 58 16       	mov    $0x1658f197,%esi
   1186f:	89 c7                	mov    %eax,%edi
   11871:	e8 8f 6d ff ff       	callq  8605 <safe_sub_func_int32_t_s_s>
   11876:	85 c0                	test   %eax,%eax
   11878:	75 0a                	jne    11884 <func_66+0x118a>
   1187a:	8b 85 28 f4 ff ff    	mov    -0xbd8(%rbp),%eax
   11880:	85 c0                	test   %eax,%eax
   11882:	74 07                	je     1188b <func_66+0x1191>
   11884:	b8 01 00 00 00       	mov    $0x1,%eax
   11889:	eb 05                	jmp    11890 <func_66+0x1196>
   1188b:	b8 00 00 00 00       	mov    $0x0,%eax
   11890:	0f be c0             	movsbl %al,%eax
   11893:	89 de                	mov    %ebx,%esi
   11895:	89 c7                	mov    %eax,%edi
   11897:	e8 38 69 ff ff       	callq  81d4 <safe_add_func_int8_t_s_s>
   1189c:	48 8b 85 c8 f5 ff ff 	mov    -0xa38(%rbp),%rax
   118a3:	48 c7 00 01 00 00 00 	movq   $0x1,(%rax)
   118aa:	48 8b 85 c8 f5 ff ff 	mov    -0xa38(%rbp),%rax
   118b1:	48 8b 00             	mov    (%rax),%rax
   118b4:	48 85 c0             	test   %rax,%rax
   118b7:	0f 9f c0             	setg   %al
   118ba:	0f b6 c0             	movzbl %al,%eax
   118bd:	21 85 70 f4 ff ff    	and    %eax,-0xb90(%rbp)
   118c3:	eb 01                	jmp    118c6 <func_66+0x11cc>
   118c5:	90                   	nop
   118c6:	8b 05 c4 b9 00 00    	mov    0xb9c4(%rip),%eax        # 1d290 <g_448>
   118cc:	83 c0 01             	add    $0x1,%eax
   118cf:	89 05 bb b9 00 00    	mov    %eax,0xb9bb(%rip)        # 1d290 <g_448>
   118d5:	8b 05 b5 b9 00 00    	mov    0xb9b5(%rip),%eax        # 1d290 <g_448>
   118db:	83 f8 11             	cmp    $0x11,%eax
   118de:	0f 8f 61 fe ff ff    	jg     11745 <func_66+0x104b>
   118e4:	eb 01                	jmp    118e7 <func_66+0x11ed>
   118e6:	90                   	nop
   118e7:	48 8b 05 ba b9 00 00 	mov    0xb9ba(%rip),%rax        # 1d2a8 <g_587>
   118ee:	8b 9d 28 f4 ff ff    	mov    -0xbd8(%rbp),%ebx
   118f4:	0f b6 05 5d b9 00 00 	movzbl 0xb95d(%rip),%eax        # 1d258 <g_343>
   118fb:	44 0f be e0          	movsbl %al,%r12d
   118ff:	44 8b ad 28 f4 ff ff 	mov    -0xbd8(%rbp),%r13d
   11906:	8b 85 bc f4 ff ff    	mov    -0xb44(%rbp),%eax
   1190c:	48 63 d0             	movslq %eax,%rdx
   1190f:	48 8b 85 78 f5 ff ff 	mov    -0xa88(%rbp),%rax
   11916:	48 89 d6             	mov    %rdx,%rsi
   11919:	48 89 c7             	mov    %rax,%rdi
   1191c:	e8 8e 77 ff ff       	callq  90af <safe_div_func_uint64_t_u_u>
   11921:	8b 95 2c f4 ff ff    	mov    -0xbd4(%rbp),%edx
   11927:	89 d2                	mov    %edx,%edx
   11929:	48 39 d0             	cmp    %rdx,%rax
   1192c:	0f 93 c0             	setae  %al
   1192f:	0f b6 d0             	movzbl %al,%edx
   11932:	48 8b 85 b8 f5 ff ff 	mov    -0xa48(%rbp),%rax
   11939:	66 89 10             	mov    %dx,(%rax)
   1193c:	48 8b 85 b8 f5 ff ff 	mov    -0xa48(%rbp),%rax
   11943:	0f b7 00             	movzwl (%rax),%eax
   11946:	98                   	cwtl   
   11947:	be 0f 00 00 00       	mov    $0xf,%esi
   1194c:	89 c7                	mov    %eax,%edi
   1194e:	e8 10 6c ff ff       	callq  8563 <safe_rshift_func_int16_t_s_u>
   11953:	0f b7 c0             	movzwl %ax,%eax
   11956:	44 89 ee             	mov    %r13d,%esi
   11959:	89 c7                	mov    %eax,%edi
   1195b:	e8 5e 74 ff ff       	callq  8dbe <safe_lshift_func_uint16_t_u_s>
   11960:	0f be c0             	movsbl %al,%eax
   11963:	44 89 e6             	mov    %r12d,%esi
   11966:	89 c7                	mov    %eax,%edi
   11968:	e8 fd 68 ff ff       	callq  826a <safe_div_func_int8_t_s_s>
   1196d:	0f be c0             	movsbl %al,%eax
   11970:	89 de                	mov    %ebx,%esi
   11972:	89 c7                	mov    %eax,%edi
   11974:	e8 3d 6c ff ff       	callq  85b6 <safe_add_func_int32_t_s_s>
   11979:	48 8d 05 28 b9 00 00 	lea    0xb928(%rip),%rax        # 1d2a8 <g_587>
   11980:	48 89 85 00 f5 ff ff 	mov    %rax,-0xb00(%rbp)
   11987:	48 8d 85 00 f5 ff ff 	lea    -0xb00(%rbp),%rax
   1198e:	48 89 85 e0 f5 ff ff 	mov    %rax,-0xa20(%rbp)
   11995:	48 8d 05 28 b9 00 00 	lea    0xb928(%rip),%rax        # 1d2c4 <g_646+0x4>
   1199c:	48 89 85 e8 f5 ff ff 	mov    %rax,-0xa18(%rbp)
   119a3:	c7 85 50 fb ff ff f6 	movl   $0xfffffff6,-0x4b0(%rbp)
   119aa:	ff ff ff 
   119ad:	c7 85 54 fb ff ff f6 	movl   $0xfffffff6,-0x4ac(%rbp)
   119b4:	ff ff ff 
   119b7:	c7 85 58 fb ff ff f6 	movl   $0xfffffff6,-0x4a8(%rbp)
   119be:	ff ff ff 
   119c1:	c7 85 5c fb ff ff f6 	movl   $0xfffffff6,-0x4a4(%rbp)
   119c8:	ff ff ff 
   119cb:	c7 85 60 fb ff ff f6 	movl   $0xfffffff6,-0x4a0(%rbp)
   119d2:	ff ff ff 
   119d5:	c7 85 64 fb ff ff f6 	movl   $0xfffffff6,-0x49c(%rbp)
   119dc:	ff ff ff 
   119df:	c7 85 c8 f4 ff ff 91 	movl   $0xa0946391,-0xb38(%rbp)
   119e6:	63 94 a0 
   119e9:	48 8b 85 e0 f5 ff ff 	mov    -0xa20(%rbp),%rax
   119f0:	48 8d 15 b1 b8 00 00 	lea    0xb8b1(%rip),%rdx        # 1d2a8 <g_587>
   119f7:	48 89 10             	mov    %rdx,(%rax)
   119fa:	8b 85 c8 f4 ff ff    	mov    -0xb38(%rbp),%eax
   11a00:	0f be d8             	movsbl %al,%ebx
   11a03:	8b 85 c8 f4 ff ff    	mov    -0xb38(%rbp),%eax
   11a09:	89 c6                	mov    %eax,%esi
   11a0b:	bf 01 00 00 00       	mov    $0x1,%edi
   11a10:	e8 f1 73 ff ff       	callq  8e06 <safe_lshift_func_uint16_t_u_u>
   11a15:	89 c2                	mov    %eax,%edx
   11a17:	8b 85 2c f4 ff ff    	mov    -0xbd4(%rbp),%eax
   11a1d:	31 d0                	xor    %edx,%eax
   11a1f:	0f be c0             	movsbl %al,%eax
   11a22:	89 de                	mov    %ebx,%esi
   11a24:	89 c7                	mov    %eax,%edi
   11a26:	e8 a9 67 ff ff       	callq  81d4 <safe_add_func_int8_t_s_s>
   11a2b:	0f b6 c0             	movzbl %al,%eax
   11a2e:	be 00 00 00 00       	mov    $0x0,%esi
   11a33:	89 c7                	mov    %eax,%edi
   11a35:	e8 84 72 ff ff       	callq  8cbe <safe_rshift_func_uint8_t_u_u>
   11a3a:	c7 85 5c fb ff ff 01 	movl   $0x1,-0x4a4(%rbp)
   11a41:	00 00 00 
   11a44:	48 c7 85 38 f4 ff ff 	movq   $0x9,-0xbc8(%rbp)
   11a4b:	09 00 00 00 
   11a4f:	eb 44                	jmp    11a95 <func_66+0x139b>
   11a51:	c7 85 cc f4 ff ff 00 	movl   $0x0,-0xb34(%rbp)
   11a58:	00 00 00 
   11a5b:	c7 85 d0 f4 ff ff ff 	movl   $0xffffffff,-0xb30(%rbp)
   11a62:	ff ff ff 
   11a65:	0f b6 85 4c f4 ff ff 	movzbl -0xbb4(%rbp),%eax
   11a6c:	83 e8 01             	sub    $0x1,%eax
   11a6f:	88 85 4c f4 ff ff    	mov    %al,-0xbb4(%rbp)
   11a75:	48 8b 85 38 f4 ff ff 	mov    -0xbc8(%rbp),%rax
   11a7c:	0f b6 c0             	movzbl %al,%eax
   11a7f:	be 06 00 00 00       	mov    $0x6,%esi
   11a84:	89 c7                	mov    %eax,%edi
   11a86:	e8 ed 70 ff ff       	callq  8b78 <safe_sub_func_uint8_t_u_u>
   11a8b:	0f b6 c0             	movzbl %al,%eax
   11a8e:	48 89 85 38 f4 ff ff 	mov    %rax,-0xbc8(%rbp)
   11a95:	48 83 bd 38 f4 ff ff 	cmpq   $0xffffffffffffffeb,-0xbc8(%rbp)
   11a9c:	eb 
   11a9d:	7c b2                	jl     11a51 <func_66+0x1357>
   11a9f:	0f b7 05 fa b7 00 00 	movzwl 0xb7fa(%rip),%eax        # 1d2a0 <g_548>
   11aa6:	0f b7 c0             	movzwl %ax,%eax
   11aa9:	be 08 00 00 00       	mov    $0x8,%esi
   11aae:	89 c7                	mov    %eax,%edi
   11ab0:	e8 01 6b ff ff       	callq  85b6 <safe_add_func_int32_t_s_s>
   11ab5:	66 89 05 e4 b7 00 00 	mov    %ax,0xb7e4(%rip)        # 1d2a0 <g_548>
   11abc:	0f b7 05 dd b7 00 00 	movzwl 0xb7dd(%rip),%eax        # 1d2a0 <g_548>
   11ac3:	66 83 f8 10          	cmp    $0x10,%ax
   11ac7:	0f 85 fc fb ff ff    	jne    116c9 <func_66+0xfcf>
   11acd:	c7 05 79 11 01 00 00 	movl   $0x0,0x11179(%rip)        # 22c50 <g_22>
   11ad4:	00 00 00 
   11ad7:	e9 8a 06 00 00       	jmpq   12166 <func_66+0x1a6c>
   11adc:	66 c7 85 5e f4 ff ff 	movw   $0xfffd,-0xba2(%rbp)
   11ae3:	fd ff 
   11ae5:	48 8d 05 6c b7 00 00 	lea    0xb76c(%rip),%rax        # 1d258 <g_343>
   11aec:	48 89 85 80 f5 ff ff 	mov    %rax,-0xa80(%rbp)
   11af3:	48 8d 85 52 f4 ff ff 	lea    -0xbae(%rbp),%rax
   11afa:	48 89 85 88 f5 ff ff 	mov    %rax,-0xa78(%rbp)
   11b01:	c7 85 7c f4 ff ff 04 	movl   $0x4,-0xb84(%rbp)
   11b08:	00 00 00 
   11b0b:	48 c7 85 90 f5 ff ff 	movq   $0x2,-0xa70(%rbp)
   11b12:	02 00 00 00 
   11b16:	48 c7 85 98 f5 ff ff 	movq   $0x0,-0xa68(%rbp)
   11b1d:	00 00 00 00 
   11b21:	c7 85 30 f6 ff ff 00 	movl   $0x0,-0x9d0(%rbp)
   11b28:	00 00 00 
   11b2b:	c7 85 34 f6 ff ff 00 	movl   $0x0,-0x9cc(%rbp)
   11b32:	00 00 00 
   11b35:	c7 85 38 f6 ff ff fc 	movl   $0xfffffffc,-0x9c8(%rbp)
   11b3c:	ff ff ff 
   11b3f:	c7 85 3c f6 ff ff 00 	movl   $0x0,-0x9c4(%rbp)
   11b46:	00 00 00 
   11b49:	c7 85 40 f6 ff ff 00 	movl   $0x0,-0x9c0(%rbp)
   11b50:	00 00 00 
   11b53:	c7 85 44 f6 ff ff fc 	movl   $0xfffffffc,-0x9bc(%rbp)
   11b5a:	ff ff ff 
   11b5d:	c7 85 48 f6 ff ff 00 	movl   $0x0,-0x9b8(%rbp)
   11b64:	00 00 00 
   11b67:	c6 85 50 f4 ff ff 28 	movb   $0x28,-0xbb0(%rbp)
   11b6e:	48 8b 85 28 f5 ff ff 	mov    -0xad8(%rbp),%rax
   11b75:	0f b7 d8             	movzwl %ax,%ebx
   11b78:	48 8b 05 01 b7 00 00 	mov    0xb701(%rip),%rax        # 1d280 <g_415+0x10>
   11b7f:	48 c1 e0 18          	shl    $0x18,%rax
   11b83:	48 c1 f8 39          	sar    $0x39,%rax
   11b87:	0f be d0             	movsbl %al,%edx
   11b8a:	8b 85 2c f4 ff ff    	mov    -0xbd4(%rbp),%eax
   11b90:	39 c2                	cmp    %eax,%edx
   11b92:	0f 97 c0             	seta   %al
   11b95:	44 0f b6 f8          	movzbl %al,%r15d
   11b99:	8b 85 28 f4 ff ff    	mov    -0xbd8(%rbp),%eax
   11b9f:	44 0f bf e0          	movswl %ax,%r12d
   11ba3:	0f b7 05 1a b7 00 00 	movzwl 0xb71a(%rip),%eax        # 1d2c4 <g_646+0x4>
   11baa:	44 0f b7 e8          	movzwl %ax,%r13d
   11bae:	8b 85 a4 f4 ff ff    	mov    -0xb5c(%rbp),%eax
   11bb4:	44 0f be f0          	movsbl %al,%r14d
   11bb8:	48 8b 05 f1 b6 00 00 	mov    0xb6f1(%rip),%rax        # 1d2b0 <g_605>
   11bbf:	89 85 24 f4 ff ff    	mov    %eax,-0xbdc(%rbp)
   11bc5:	0f b7 85 5e f4 ff ff 	movzwl -0xba2(%rbp),%eax
   11bcc:	89 c2                	mov    %eax,%edx
   11bce:	48 8b 85 80 f5 ff ff 	mov    -0xa80(%rbp),%rax
   11bd5:	88 10                	mov    %dl,(%rax)
   11bd7:	48 8b 85 38 f4 ff ff 	mov    -0xbc8(%rbp),%rax
   11bde:	89 c2                	mov    %eax,%edx
   11be0:	48 8b 85 88 f5 ff ff 	mov    -0xa78(%rbp),%rax
   11be7:	66 89 10             	mov    %dx,(%rax)
   11bea:	48 8b 85 88 f5 ff ff 	mov    -0xa78(%rbp),%rax
   11bf1:	0f b7 00             	movzwl (%rax),%eax
   11bf4:	98                   	cwtl   
   11bf5:	8b 95 88 f4 ff ff    	mov    -0xb78(%rbp),%edx
   11bfb:	89 d6                	mov    %edx,%esi
   11bfd:	89 c7                	mov    %eax,%edi
   11bff:	e8 26 69 ff ff       	callq  852a <safe_rshift_func_int16_t_s_s>
   11c04:	98                   	cwtl   
   11c05:	39 85 70 f4 ff ff    	cmp    %eax,-0xb90(%rbp)
   11c0b:	be 06 00 00 00       	mov    $0x6,%esi
   11c10:	bf 23 00 00 00       	mov    $0x23,%edi
   11c15:	e8 32 70 ff ff       	callq  8c4c <safe_lshift_func_uint8_t_u_u>
   11c1a:	89 c2                	mov    %eax,%edx
   11c1c:	48 8b 85 38 f4 ff ff 	mov    -0xbc8(%rbp),%rax
   11c23:	21 d0                	and    %edx,%eax
   11c25:	88 05 b1 b6 00 00    	mov    %al,0xb6b1(%rip)        # 1d2dc <g_700>
   11c2b:	0f b6 05 aa b6 00 00 	movzbl 0xb6aa(%rip),%eax        # 1d2dc <g_700>
   11c32:	84 c0                	test   %al,%al
   11c34:	0f 95 c0             	setne  %al
   11c37:	0f b6 d0             	movzbl %al,%edx
   11c3a:	48 8b 85 30 f4 ff ff 	mov    -0xbd0(%rbp),%rax
   11c41:	0f be c0             	movsbl %al,%eax
   11c44:	89 d6                	mov    %edx,%esi
   11c46:	89 c7                	mov    %eax,%edi
   11c48:	e8 a5 65 ff ff       	callq  81f2 <safe_sub_func_int8_t_s_s>
   11c4d:	84 c0                	test   %al,%al
   11c4f:	74 13                	je     11c64 <func_66+0x156a>
   11c51:	0f b7 05 48 b6 00 00 	movzwl 0xb648(%rip),%eax        # 1d2a0 <g_548>
   11c58:	66 85 c0             	test   %ax,%ax
   11c5b:	74 07                	je     11c64 <func_66+0x156a>
   11c5d:	b8 01 00 00 00       	mov    $0x1,%eax
   11c62:	eb 05                	jmp    11c69 <func_66+0x156f>
   11c64:	b8 00 00 00 00       	mov    $0x0,%eax
   11c69:	0f be d0             	movsbl %al,%edx
   11c6c:	0f b7 85 5e f4 ff ff 	movzwl -0xba2(%rbp),%eax
   11c73:	0f be c0             	movsbl %al,%eax
   11c76:	89 d6                	mov    %edx,%esi
   11c78:	89 c7                	mov    %eax,%edi
   11c7a:	e8 eb 65 ff ff       	callq  826a <safe_div_func_int8_t_s_s>
   11c7f:	0f be c0             	movsbl %al,%eax
   11c82:	8b b5 24 f4 ff ff    	mov    -0xbdc(%rbp),%esi
   11c88:	89 c7                	mov    %eax,%edi
   11c8a:	e8 a6 66 ff ff       	callq  8335 <safe_rshift_func_int8_t_s_s>
   11c8f:	0f be c0             	movsbl %al,%eax
   11c92:	44 89 f6             	mov    %r14d,%esi
   11c95:	89 c7                	mov    %eax,%edi
   11c97:	e8 56 65 ff ff       	callq  81f2 <safe_sub_func_int8_t_s_s>
   11c9c:	0f b7 95 52 f4 ff ff 	movzwl -0xbae(%rbp),%edx
   11ca3:	0f b7 05 c0 b5 00 00 	movzwl 0xb5c0(%rip),%eax        # 1d26a <g_406>
   11caa:	66 39 c2             	cmp    %ax,%dx
   11cad:	0f 95 c0             	setne  %al
   11cb0:	0f b6 c0             	movzbl %al,%eax
   11cb3:	44 89 ee             	mov    %r13d,%esi
   11cb6:	89 c7                	mov    %eax,%edi
   11cb8:	e8 9f 70 ff ff       	callq  8d5c <safe_mod_func_uint16_t_u_u>
   11cbd:	98                   	cwtl   
   11cbe:	44 89 e6             	mov    %r12d,%esi
   11cc1:	89 c7                	mov    %eax,%edi
   11cc3:	e8 2d 67 ff ff       	callq  83f5 <safe_mul_func_int16_t_s_s>
   11cc8:	0f be c0             	movsbl %al,%eax
   11ccb:	be 04 00 00 00       	mov    $0x4,%esi
   11cd0:	89 c7                	mov    %eax,%edi
   11cd2:	e8 5e 66 ff ff       	callq  8335 <safe_rshift_func_int8_t_s_s>
   11cd7:	8b 95 28 f4 ff ff    	mov    -0xbd8(%rbp),%edx
   11cdd:	31 d0                	xor    %edx,%eax
   11cdf:	0f b6 d0             	movzbl %al,%edx
   11ce2:	8b 05 90 b3 00 00    	mov    0xb390(%rip),%eax        # 1d078 <g_44>
   11ce8:	0f b6 c0             	movzbl %al,%eax
   11ceb:	89 d6                	mov    %edx,%esi
   11ced:	89 c7                	mov    %eax,%edi
   11cef:	e8 ba 6e ff ff       	callq  8bae <safe_mod_func_uint8_t_u_u>
   11cf4:	0f be c0             	movsbl %al,%eax
   11cf7:	be 32 00 00 00       	mov    $0x32,%esi
   11cfc:	89 c7                	mov    %eax,%edi
   11cfe:	e8 ef 64 ff ff       	callq  81f2 <safe_sub_func_int8_t_s_s>
   11d03:	48 0f be c0          	movsbq %al,%rax
   11d07:	48 39 85 38 f4 ff ff 	cmp    %rax,-0xbc8(%rbp)
   11d0e:	0f 95 c0             	setne  %al
   11d11:	0f b6 c0             	movzbl %al,%eax
   11d14:	41 39 c7             	cmp    %eax,%r15d
   11d17:	0f 9c c0             	setl   %al
   11d1a:	0f b6 c0             	movzbl %al,%eax
   11d1d:	89 de                	mov    %ebx,%esi
   11d1f:	89 c7                	mov    %eax,%edi
   11d21:	e8 36 70 ff ff       	callq  8d5c <safe_mod_func_uint16_t_u_u>
   11d26:	66 81 bd 5c f4 ff ff 	cmpw   $0x6c6d,-0xba4(%rbp)
   11d2d:	6d 6c 
   11d2f:	74 78                	je     11da9 <func_66+0x16af>
   11d31:	c7 85 ac f4 ff ff 00 	movl   $0x0,-0xb54(%rbp)
   11d38:	00 00 00 
   11d3b:	48 8d 05 98 b3 00 00 	lea    0xb398(%rip),%rax        # 1d0da <g_162+0x1a>
   11d42:	48 89 85 50 fb ff ff 	mov    %rax,-0x4b0(%rbp)
   11d49:	48 8d 05 8a b3 00 00 	lea    0xb38a(%rip),%rax        # 1d0da <g_162+0x1a>
   11d50:	48 89 85 58 fb ff ff 	mov    %rax,-0x4a8(%rbp)
   11d57:	48 8d 05 7c b3 00 00 	lea    0xb37c(%rip),%rax        # 1d0da <g_162+0x1a>
   11d5e:	48 89 85 60 fb ff ff 	mov    %rax,-0x4a0(%rbp)
   11d65:	48 8d 05 6e b3 00 00 	lea    0xb36e(%rip),%rax        # 1d0da <g_162+0x1a>
   11d6c:	48 89 85 68 fb ff ff 	mov    %rax,-0x498(%rbp)
   11d73:	48 8d 85 50 fb ff ff 	lea    -0x4b0(%rbp),%rax
   11d7a:	48 89 85 a0 f5 ff ff 	mov    %rax,-0xa60(%rbp)
   11d81:	83 85 ac f4 ff ff 01 	addl   $0x1,-0xb54(%rbp)
   11d88:	48 83 bd 30 f4 ff ff 	cmpq   $0x0,-0xbd0(%rbp)
   11d8f:	00 
   11d90:	0f 85 df 03 00 00    	jne    12175 <func_66+0x1a7b>
   11d96:	48 8b 95 58 fb ff ff 	mov    -0x4a8(%rbp),%rdx
   11d9d:	48 8b 85 a0 f5 ff ff 	mov    -0xa60(%rbp),%rax
   11da4:	48 89 10             	mov    %rdx,(%rax)
   11da7:	eb 66                	jmp    11e0f <func_66+0x1715>
   11da9:	c7 85 80 f4 ff ff 00 	movl   $0x0,-0xb80(%rbp)
   11db0:	00 00 00 
   11db3:	eb 14                	jmp    11dc9 <func_66+0x16cf>
   11db5:	8b 85 80 f4 ff ff    	mov    -0xb80(%rbp),%eax
   11dbb:	48 98                	cltq   
   11dbd:	c6 44 05 be 01       	movb   $0x1,-0x42(%rbp,%rax,1)
   11dc2:	83 85 80 f4 ff ff 01 	addl   $0x1,-0xb80(%rbp)
   11dc9:	83 bd 80 f4 ff ff 09 	cmpl   $0x9,-0xb80(%rbp)
   11dd0:	7e e3                	jle    11db5 <func_66+0x16bb>
   11dd2:	0f b6 45 c2          	movzbl -0x3e(%rbp),%eax
   11dd6:	0f b7 95 58 f4 ff ff 	movzwl -0xba8(%rbp),%edx
   11ddd:	31 d0                	xor    %edx,%eax
   11ddf:	88 45 c2             	mov    %al,-0x3e(%rbp)
   11de2:	8b 85 28 f4 ff ff    	mov    -0xbd8(%rbp),%eax
   11de8:	31 85 7c f4 ff ff    	xor    %eax,-0xb84(%rbp)
   11dee:	0f b7 85 5a f4 ff ff 	movzwl -0xba6(%rbp),%eax
   11df5:	89 85 28 f4 ff ff    	mov    %eax,-0xbd8(%rbp)
   11dfb:	48 8b 85 10 f5 ff ff 	mov    -0xaf0(%rbp),%rax
   11e02:	48 8b 00             	mov    (%rax),%rax
   11e05:	48 8d 95 28 f4 ff ff 	lea    -0xbd8(%rbp),%rdx
   11e0c:	48 89 10             	mov    %rdx,(%rax)
   11e0f:	c7 85 7c f4 ff ff 00 	movl   $0x0,-0xb84(%rbp)
   11e16:	00 00 00 
   11e19:	e9 2c 03 00 00       	jmpq   1214a <func_66+0x1a50>
   11e1e:	48 8d 05 73 fe 00 00 	lea    0xfe73(%rip),%rax        # 21c98 <g_274+0x98>
   11e25:	48 89 85 50 fb ff ff 	mov    %rax,-0x4b0(%rbp)
   11e2c:	48 8d 05 65 fe 00 00 	lea    0xfe65(%rip),%rax        # 21c98 <g_274+0x98>
   11e33:	48 89 85 58 fb ff ff 	mov    %rax,-0x4a8(%rbp)
   11e3a:	48 8d 05 57 fe 00 00 	lea    0xfe57(%rip),%rax        # 21c98 <g_274+0x98>
   11e41:	48 89 85 60 fb ff ff 	mov    %rax,-0x4a0(%rbp)
   11e48:	48 8d 05 49 fe 00 00 	lea    0xfe49(%rip),%rax        # 21c98 <g_274+0x98>
   11e4f:	48 89 85 68 fb ff ff 	mov    %rax,-0x498(%rbp)
   11e56:	48 8d 05 3b fe 00 00 	lea    0xfe3b(%rip),%rax        # 21c98 <g_274+0x98>
   11e5d:	48 89 85 70 fb ff ff 	mov    %rax,-0x490(%rbp)
   11e64:	48 8d 05 2d fe 00 00 	lea    0xfe2d(%rip),%rax        # 21c98 <g_274+0x98>
   11e6b:	48 89 85 78 fb ff ff 	mov    %rax,-0x488(%rbp)
   11e72:	48 8d 05 1f fe 00 00 	lea    0xfe1f(%rip),%rax        # 21c98 <g_274+0x98>
   11e79:	48 89 85 80 fb ff ff 	mov    %rax,-0x480(%rbp)
   11e80:	48 8d 05 11 fe 00 00 	lea    0xfe11(%rip),%rax        # 21c98 <g_274+0x98>
   11e87:	48 89 85 88 fb ff ff 	mov    %rax,-0x478(%rbp)
   11e8e:	48 8d 85 50 fb ff ff 	lea    -0x4b0(%rbp),%rax
   11e95:	48 83 c0 30          	add    $0x30,%rax
   11e99:	48 89 85 a8 f5 ff ff 	mov    %rax,-0xa58(%rbp)
   11ea0:	c7 85 b0 f4 ff ff 1d 	movl   $0x735c11d,-0xb50(%rbp)
   11ea7:	c1 35 07 
   11eaa:	c7 85 b4 f4 ff ff d8 	movl   $0x205f35d8,-0xb4c(%rbp)
   11eb1:	35 5f 20 
   11eb4:	48 8b 85 90 f5 ff ff 	mov    -0xa70(%rbp),%rax
   11ebb:	41 89 c7             	mov    %eax,%r15d
   11ebe:	48 8b 85 38 f4 ff ff 	mov    -0xbc8(%rbp),%rax
   11ec5:	0f be d8             	movsbl %al,%ebx
   11ec8:	8b 85 2c f4 ff ff    	mov    -0xbd4(%rbp),%eax
   11ece:	44 0f b7 e0          	movzwl %ax,%r12d
   11ed2:	48 83 bd a8 f5 ff ff 	cmpq   $0x0,-0xa58(%rbp)
   11ed9:	00 
   11eda:	0f 95 c0             	setne  %al
   11edd:	44 0f b6 f0          	movzbl %al,%r14d
   11ee1:	8b 85 28 f4 ff ff    	mov    -0xbd8(%rbp),%eax
   11ee7:	48 98                	cltq   
   11ee9:	48 89 85 30 f4 ff ff 	mov    %rax,-0xbd0(%rbp)
   11ef0:	48 8b 85 38 f4 ff ff 	mov    -0xbc8(%rbp),%rax
   11ef7:	89 c2                	mov    %eax,%edx
   11ef9:	81 bd 88 f4 ff ff c8 	cmpl   $0xd3c8,-0xb78(%rbp)
   11f00:	d3 00 00 
   11f03:	75 1b                	jne    11f20 <func_66+0x1826>
   11f05:	48 8b 05 dc b3 00 00 	mov    0xb3dc(%rip),%rax        # 1d2e8 <g_727+0x8>
   11f0c:	48 c1 e8 18          	shr    $0x18,%rax
   11f10:	25 ff ff ff 00       	and    $0xffffff,%eax
   11f15:	85 c0                	test   %eax,%eax
   11f17:	74 07                	je     11f20 <func_66+0x1826>
   11f19:	b8 01 00 00 00       	mov    $0x1,%eax
   11f1e:	eb 05                	jmp    11f25 <func_66+0x182b>
   11f20:	b8 00 00 00 00       	mov    $0x0,%eax
   11f25:	48 98                	cltq   
   11f27:	48 0b 85 38 f4 ff ff 	or     -0xbc8(%rbp),%rax
   11f2e:	48 83 f8 04          	cmp    $0x4,%rax
   11f32:	0f 9e c0             	setle  %al
   11f35:	0f b6 c0             	movzbl %al,%eax
   11f38:	89 d6                	mov    %edx,%esi
   11f3a:	89 c7                	mov    %eax,%edi
   11f3c:	e8 e4 6f ff ff       	callq  8f25 <safe_div_func_uint32_t_u_u>
   11f41:	4c 0f be ad 4f f4 ff 	movsbq -0xbb1(%rbp),%r13
   11f48:	ff 
   11f49:	8b 85 28 f7 ff ff    	mov    -0x8d8(%rbp),%eax
   11f4f:	0f b7 d0             	movzwl %ax,%edx
   11f52:	66 83 bd 5e f4 ff ff 	cmpw   $0x7,-0xba2(%rbp)
   11f59:	07 
   11f5a:	0f 96 c1             	setbe  %cl
   11f5d:	8b 85 7c f4 ff ff    	mov    -0xb84(%rbp),%eax
   11f63:	83 c0 02             	add    $0x2,%eax
   11f66:	0f b6 c9             	movzbl %cl,%ecx
   11f69:	48 63 f0             	movslq %eax,%rsi
   11f6c:	8b bd 7c f4 ff ff    	mov    -0xb84(%rbp),%edi
   11f72:	48 63 ff             	movslq %edi,%rdi
   11f75:	48 c1 e7 02          	shl    $0x2,%rdi
   11f79:	48 01 fe             	add    %rdi,%rsi
   11f7c:	48 8d 3c 36          	lea    (%rsi,%rsi,1),%rdi
   11f80:	48 8d 35 39 b3 00 00 	lea    0xb339(%rip),%rsi        # 1d2c0 <g_646>
   11f87:	66 89 0c 37          	mov    %cx,(%rdi,%rsi,1)
   11f8b:	48 98                	cltq   
   11f8d:	8b 8d 7c f4 ff ff    	mov    -0xb84(%rbp),%ecx
   11f93:	48 63 c9             	movslq %ecx,%rcx
   11f96:	48 c1 e1 02          	shl    $0x2,%rcx
   11f9a:	48 01 c8             	add    %rcx,%rax
   11f9d:	48 8d 0c 00          	lea    (%rax,%rax,1),%rcx
   11fa1:	48 8d 05 18 b3 00 00 	lea    0xb318(%rip),%rax        # 1d2c0 <g_646>
   11fa8:	0f b7 04 01          	movzwl (%rcx,%rax,1),%eax
   11fac:	0f b7 c0             	movzwl %ax,%eax
   11faf:	89 d6                	mov    %edx,%esi
   11fb1:	89 c7                	mov    %eax,%edi
   11fb3:	e8 67 6d ff ff       	callq  8d1f <safe_sub_func_uint16_t_u_u>
   11fb8:	0f b7 c0             	movzwl %ax,%eax
   11fbb:	4c 89 ee             	mov    %r13,%rsi
   11fbe:	48 89 c7             	mov    %rax,%rdi
   11fc1:	e8 e2 68 ff ff       	callq  88a8 <safe_sub_func_int64_t_s_s>
   11fc6:	49 39 c6             	cmp    %rax,%r14
   11fc9:	0f 95 c0             	setne  %al
   11fcc:	0f b6 c0             	movzbl %al,%eax
   11fcf:	48 39 85 78 f5 ff ff 	cmp    %rax,-0xa88(%rbp)
   11fd6:	0f 97 c0             	seta   %al
   11fd9:	0f b6 c0             	movzbl %al,%eax
   11fdc:	44 89 e6             	mov    %r12d,%esi
   11fdf:	89 c7                	mov    %eax,%edi
   11fe1:	e8 57 6d ff ff       	callq  8d3d <safe_mul_func_uint16_t_u_u>
   11fe6:	89 c2                	mov    %eax,%edx
   11fe8:	8b 85 2c f4 ff ff    	mov    -0xbd4(%rbp),%eax
   11fee:	21 d0                	and    %edx,%eax
   11ff0:	83 c8 96             	or     $0xffffff96,%eax
   11ff3:	0f be c0             	movsbl %al,%eax
   11ff6:	89 de                	mov    %ebx,%esi
   11ff8:	89 c7                	mov    %eax,%edi
   11ffa:	e8 6b 62 ff ff       	callq  826a <safe_div_func_int8_t_s_s>
   11fff:	66 98                	cbtw   
   12001:	0f b7 c0             	movzwl %ax,%eax
   12004:	44 89 fe             	mov    %r15d,%esi
   12007:	89 c7                	mov    %eax,%edi
   12009:	e8 b0 6d ff ff       	callq  8dbe <safe_lshift_func_uint16_t_u_s>
   1200e:	0f b7 c0             	movzwl %ax,%eax
   12011:	89 85 28 f4 ff ff    	mov    %eax,-0xbd8(%rbp)
   12017:	0f b7 05 a4 b2 00 00 	movzwl 0xb2a4(%rip),%eax        # 1d2c2 <g_646+0x2>
   1201e:	0f b7 d8             	movzwl %ax,%ebx
   12021:	44 0f be a5 4e f4 ff 	movsbl -0xbb2(%rbp),%r12d
   12028:	ff 
   12029:	0f b6 05 16 b2 00 00 	movzbl 0xb216(%rip),%eax        # 1d246 <g_329>
   12030:	48 0f be d0          	movsbq %al,%rdx
   12034:	8b 85 98 f6 ff ff    	mov    -0x968(%rbp),%eax
   1203a:	85 c0                	test   %eax,%eax
   1203c:	0f 95 c0             	setne  %al
   1203f:	0f b6 c0             	movzbl %al,%eax
   12042:	48 89 d6             	mov    %rdx,%rsi
   12045:	48 89 c7             	mov    %rax,%rdi
   12048:	e8 fe 6f ff ff       	callq  904b <safe_sub_func_uint64_t_u_u>
   1204d:	48 85 c0             	test   %rax,%rax
   12050:	75 2f                	jne    12081 <func_66+0x1987>
   12052:	8b 85 7c f4 ff ff    	mov    -0xb84(%rbp),%eax
   12058:	83 c0 02             	add    $0x2,%eax
   1205b:	48 98                	cltq   
   1205d:	8b 95 7c f4 ff ff    	mov    -0xb84(%rbp),%edx
   12063:	48 63 d2             	movslq %edx,%rdx
   12066:	48 c1 e2 02          	shl    $0x2,%rdx
   1206a:	48 01 d0             	add    %rdx,%rax
   1206d:	48 8d 14 00          	lea    (%rax,%rax,1),%rdx
   12071:	48 8d 05 48 b2 00 00 	lea    0xb248(%rip),%rax        # 1d2c0 <g_646>
   12078:	0f b7 04 02          	movzwl (%rdx,%rax,1),%eax
   1207c:	66 85 c0             	test   %ax,%ax
   1207f:	74 07                	je     12088 <func_66+0x198e>
   12081:	b8 01 00 00 00       	mov    $0x1,%eax
   12086:	eb 05                	jmp    1208d <func_66+0x1993>
   12088:	b8 00 00 00 00       	mov    $0x0,%eax
   1208d:	98                   	cwtl   
   1208e:	44 89 e6             	mov    %r12d,%esi
   12091:	89 c7                	mov    %eax,%edi
   12093:	e8 7e 63 ff ff       	callq  8416 <safe_mod_func_int16_t_s_s>
   12098:	8b 85 7c f4 ff ff    	mov    -0xb84(%rbp),%eax
   1209e:	98                   	cwtl   
   1209f:	be 00 00 00 00       	mov    $0x0,%esi
   120a4:	89 c7                	mov    %eax,%edi
   120a6:	e8 6b 63 ff ff       	callq  8416 <safe_mod_func_int16_t_s_s>
   120ab:	83 e0 fe             	and    $0xfffffffe,%eax
   120ae:	48 0f bf c0          	movswq %ax,%rax
   120b2:	48 8b 95 30 f4 ff ff 	mov    -0xbd0(%rbp),%rdx
   120b9:	48 89 d6             	mov    %rdx,%rsi
   120bc:	48 89 c7             	mov    %rax,%rdi
   120bf:	e8 6a 6f ff ff       	callq  902e <safe_add_func_uint64_t_u_u>
   120c4:	0f bf d0             	movswl %ax,%edx
   120c7:	8b 05 db b1 00 00    	mov    0xb1db(%rip),%eax        # 1d2a8 <g_587>
   120cd:	98                   	cwtl   
   120ce:	89 d6                	mov    %edx,%esi
   120d0:	89 c7                	mov    %eax,%edi
   120d2:	e8 fc 62 ff ff       	callq  83d3 <safe_sub_func_int16_t_s_s>
   120d7:	0f bf d0             	movswl %ax,%edx
   120da:	8b 85 2c f4 ff ff    	mov    -0xbd4(%rbp),%eax
   120e0:	21 d0                	and    %edx,%eax
   120e2:	89 c0                	mov    %eax,%eax
   120e4:	48 be 25 e5 d1 41 4c 	movabs $0xcd62164c41d1e525,%rsi
   120eb:	16 62 cd 
   120ee:	48 89 c7             	mov    %rax,%rdi
   120f1:	e8 8a 6f ff ff       	callq  9080 <safe_mod_func_uint64_t_u_u>
   120f6:	48 89 de             	mov    %rbx,%rsi
   120f9:	48 89 c7             	mov    %rax,%rdi
   120fc:	e8 40 67 ff ff       	callq  8841 <safe_add_func_int64_t_s_s>
   12101:	8b 95 48 f6 ff ff    	mov    -0x9b8(%rbp),%edx
   12107:	09 d0                	or     %edx,%eax
   12109:	89 85 48 f6 ff ff    	mov    %eax,-0x9b8(%rbp)
   1210f:	0f b6 95 50 f4 ff ff 	movzbl -0xbb0(%rbp),%edx
   12116:	8b 85 70 f4 ff ff    	mov    -0xb90(%rbp),%eax
   1211c:	48 98                	cltq   
   1211e:	48 39 85 30 f4 ff ff 	cmp    %rax,-0xbd0(%rbp)
   12125:	0f 94 c0             	sete   %al
   12128:	0f b6 c0             	movzbl %al,%eax
   1212b:	48 89 d6             	mov    %rdx,%rsi
   1212e:	48 89 c7             	mov    %rax,%rdi
   12131:	e8 f8 6e ff ff       	callq  902e <safe_add_func_uint64_t_u_u>
   12136:	89 85 28 f4 ff ff    	mov    %eax,-0xbd8(%rbp)
   1213c:	83 85 b4 f4 ff ff 01 	addl   $0x1,-0xb4c(%rbp)
   12143:	83 85 7c f4 ff ff 01 	addl   $0x1,-0xb84(%rbp)
   1214a:	83 bd 7c f4 ff ff 01 	cmpl   $0x1,-0xb84(%rbp)
   12151:	0f 8e c7 fc ff ff    	jle    11e1e <func_66+0x1724>
   12157:	8b 05 f3 0a 01 00    	mov    0x10af3(%rip),%eax        # 22c50 <g_22>
   1215d:	83 e8 01             	sub    $0x1,%eax
   12160:	89 05 ea 0a 01 00    	mov    %eax,0x10aea(%rip)        # 22c50 <g_22>
   12166:	8b 05 e4 0a 01 00    	mov    0x10ae4(%rip),%eax        # 22c50 <g_22>
   1216c:	83 f8 ee             	cmp    $0xffffffee,%eax
   1216f:	0f 8c 67 f9 ff ff    	jl     11adc <func_66+0x13e2>
   12175:	8b 9d 88 f4 ff ff    	mov    -0xb78(%rbp),%ebx
   1217b:	48 8b 85 60 f5 ff ff 	mov    -0xaa0(%rbp),%rax
   12182:	48 8d 15 c1 ae 00 00 	lea    0xaec1(%rip),%rdx        # 1d04a <g_31+0xa>
   12189:	48 89 10             	mov    %rdx,(%rax)
   1218c:	48 8b 85 60 f5 ff ff 	mov    -0xaa0(%rbp),%rax
   12193:	48 8b 00             	mov    (%rax),%rax
   12196:	48 39 85 38 f5 ff ff 	cmp    %rax,-0xac8(%rbp)
   1219d:	0f 94 c0             	sete   %al
   121a0:	0f b6 c0             	movzbl %al,%eax
   121a3:	8b 95 9c f4 ff ff    	mov    -0xb64(%rbp),%edx
   121a9:	89 d6                	mov    %edx,%esi
   121ab:	89 c7                	mov    %eax,%edi
   121ad:	e8 e0 62 ff ff       	callq  8492 <safe_lshift_func_int16_t_s_s>
   121b2:	98                   	cwtl   
   121b3:	89 de                	mov    %ebx,%esi
   121b5:	89 c7                	mov    %eax,%edi
   121b7:	e8 14 6d ff ff       	callq  8ed0 <safe_sub_func_uint32_t_u_u>
   121bc:	89 c0                	mov    %eax,%eax
   121be:	48 33 85 30 f4 ff ff 	xor    -0xbd0(%rbp),%rax
   121c5:	48 89 c3             	mov    %rax,%rbx
   121c8:	8b 85 28 f4 ff ff    	mov    -0xbd8(%rbp),%eax
   121ce:	48 63 d0             	movslq %eax,%rdx
   121d1:	48 8b 85 68 f5 ff ff 	mov    -0xa98(%rbp),%rax
   121d8:	48 89 10             	mov    %rdx,(%rax)
   121db:	48 8b 85 68 f5 ff ff 	mov    -0xa98(%rbp),%rax
   121e2:	48 8b 00             	mov    (%rax),%rax
   121e5:	48 85 c0             	test   %rax,%rax
   121e8:	74 72                	je     1225c <func_66+0x1b62>
   121ea:	48 8b 85 38 f4 ff ff 	mov    -0xbc8(%rbp),%rax
   121f1:	0f bf d0             	movswl %ax,%edx
   121f4:	48 8b 85 f8 f4 ff ff 	mov    -0xb08(%rbp),%rax
   121fb:	48 89 85 40 f5 ff ff 	mov    %rax,-0xac0(%rbp)
   12202:	48 8b 85 40 f5 ff ff 	mov    -0xac0(%rbp),%rax
   12209:	48 3b 85 70 f5 ff ff 	cmp    -0xa90(%rbp),%rax
   12210:	0f 94 c0             	sete   %al
   12213:	0f b6 c0             	movzbl %al,%eax
   12216:	89 d6                	mov    %edx,%esi
   12218:	89 c7                	mov    %eax,%edi
   1221a:	e8 d6 61 ff ff       	callq  83f5 <safe_mul_func_int16_t_s_s>
   1221f:	48 8b 85 68 f5 ff ff 	mov    -0xa98(%rbp),%rax
   12226:	48 8b 95 38 f4 ff ff 	mov    -0xbc8(%rbp),%rdx
   1222d:	48 89 10             	mov    %rdx,(%rax)
   12230:	48 8b 85 68 f5 ff ff 	mov    -0xa98(%rbp),%rax
   12237:	48 8b 00             	mov    (%rax),%rax
   1223a:	48 8b 15 3f b0 00 00 	mov    0xb03f(%rip),%rdx        # 1d280 <g_415+0x10>
   12241:	48 c1 ea 0a          	shr    $0xa,%rdx
   12245:	81 e2 ff ff 7f 00    	and    $0x7fffff,%edx
   1224b:	89 d2                	mov    %edx,%edx
   1224d:	48 09 d0             	or     %rdx,%rax
   12250:	48 85 c0             	test   %rax,%rax
   12253:	74 07                	je     1225c <func_66+0x1b62>
   12255:	b8 01 00 00 00       	mov    $0x1,%eax
   1225a:	eb 05                	jmp    12261 <func_66+0x1b67>
   1225c:	b8 00 00 00 00       	mov    $0x0,%eax
   12261:	48 98                	cltq   
   12263:	48 39 c3             	cmp    %rax,%rbx
   12266:	0f 94 c0             	sete   %al
   12269:	0f b6 d0             	movzbl %al,%edx
   1226c:	0f b7 05 2d b0 00 00 	movzwl 0xb02d(%rip),%eax        # 1d2a0 <g_548>
   12273:	0f b7 c0             	movzwl %ax,%eax
   12276:	09 d0                	or     %edx,%eax
   12278:	89 c6                	mov    %eax,%esi
   1227a:	bf 04 00 00 00       	mov    $0x4,%edi
   1227f:	e8 32 63 ff ff       	callq  85b6 <safe_add_func_int32_t_s_s>
   12284:	8b 95 28 f4 ff ff    	mov    -0xbd8(%rbp),%edx
   1228a:	39 d0                	cmp    %edx,%eax
   1228c:	7d 16                	jge    122a4 <func_66+0x1baa>
   1228e:	8b 85 2c f4 ff ff    	mov    -0xbd4(%rbp),%eax
   12294:	89 85 28 f4 ff ff    	mov    %eax,-0xbd8(%rbp)
   1229a:	8b 85 2c f4 ff ff    	mov    -0xbd4(%rbp),%eax
   122a0:	85 c0                	test   %eax,%eax
   122a2:	eb 34                	jmp    122d8 <func_66+0x1bde>
   122a4:	8b 95 28 f7 ff ff    	mov    -0x8d8(%rbp),%edx
   122aa:	8b 85 28 f4 ff ff    	mov    -0xbd8(%rbp),%eax
   122b0:	48 63 c8             	movslq %eax,%rcx
   122b3:	48 8b 05 f6 af 00 00 	mov    0xaff6(%rip),%rax        # 1d2b0 <g_605>
   122ba:	48 39 c1             	cmp    %rax,%rcx
   122bd:	0f 92 c0             	setb   %al
   122c0:	0f b6 c0             	movzbl %al,%eax
   122c3:	31 d0                	xor    %edx,%eax
   122c5:	89 85 28 f7 ff ff    	mov    %eax,-0x8d8(%rbp)
   122cb:	8b 85 2c f4 ff ff    	mov    -0xbd4(%rbp),%eax
   122d1:	89 c0                	mov    %eax,%eax
   122d3:	e9 9c 00 00 00       	jmpq   12374 <func_66+0x1c7a>
   122d8:	0f b7 05 ad ad 00 00 	movzwl 0xadad(%rip),%eax        # 1d08c <g_148>
   122df:	0f be c0             	movsbl %al,%eax
   122e2:	be 01 00 00 00       	mov    $0x1,%esi
   122e7:	89 c7                	mov    %eax,%edi
   122e9:	e8 e6 5e ff ff       	callq  81d4 <safe_add_func_int8_t_s_s>
   122ee:	66 98                	cbtw   
   122f0:	66 89 05 95 ad 00 00 	mov    %ax,0xad95(%rip)        # 1d08c <g_148>
   122f7:	0f b7 05 8e ad 00 00 	movzwl 0xad8e(%rip),%eax        # 1d08c <g_148>
   122fe:	66 83 f8 02          	cmp    $0x2,%ax
   12302:	0f 85 8e e8 ff ff    	jne    10b96 <func_66+0x49c>
   12308:	0f b7 85 58 f4 ff ff 	movzwl -0xba8(%rbp),%eax
   1230f:	89 85 28 f4 ff ff    	mov    %eax,-0xbd8(%rbp)
   12315:	83 ad 94 f4 ff ff 01 	subl   $0x1,-0xb6c(%rbp)
   1231c:	c7 05 22 af 00 00 01 	movl   $0x1,0xaf22(%rip)        # 1d248 <g_331>
   12323:	00 00 00 
   12326:	90                   	nop
   12327:	8b 05 1b af 00 00    	mov    0xaf1b(%rip),%eax        # 1d248 <g_331>
   1232d:	83 f8 04             	cmp    $0x4,%eax
   12330:	77 19                	ja     1234b <func_66+0x1c51>
   12332:	0f b6 05 2e ae 00 00 	movzbl 0xae2e(%rip),%eax        # 1d167 <g_162+0xa7>
   12339:	0f b7 15 28 ae 00 00 	movzwl 0xae28(%rip),%edx        # 1d168 <g_162+0xa8>
   12340:	48 c1 e2 08          	shl    $0x8,%rdx
   12344:	48 09 d0             	or     %rdx,%rax
   12347:	89 c0                	mov    %eax,%eax
   12349:	eb 29                	jmp    12374 <func_66+0x1c7a>
   1234b:	0f b7 05 d2 ac 00 00 	movzwl 0xacd2(%rip),%eax        # 1d024 <g_8>
   12352:	83 e8 01             	sub    $0x1,%eax
   12355:	66 89 05 c8 ac 00 00 	mov    %ax,0xacc8(%rip)        # 1d024 <g_8>
   1235c:	0f b7 05 c1 ac 00 00 	movzwl 0xacc1(%rip),%eax        # 1d024 <g_8>
   12363:	66 83 f8 08          	cmp    $0x8,%ax
   12367:	0f 86 9c e6 ff ff    	jbe    10a09 <func_66+0x30f>
   1236d:	48 8b 85 30 f4 ff ff 	mov    -0xbd0(%rbp),%rax
   12374:	48 8b 5d c8          	mov    -0x38(%rbp),%rbx
   12378:	64 48 33 1c 25 28 00 	xor    %fs:0x28,%rbx
   1237f:	00 00 
   12381:	74 05                	je     12388 <func_66+0x1c8e>
   12383:	e8 e8 5c ff ff       	callq  8070 <__stack_chk_fail@plt>
   12388:	48 81 c4 b8 0b 00 00 	add    $0xbb8,%rsp
   1238f:	5b                   	pop    %rbx
   12390:	41 5c                	pop    %r12
   12392:	41 5d                	pop    %r13
   12394:	41 5e                	pop    %r14
   12396:	41 5f                	pop    %r15
   12398:	5d                   	pop    %rbp
   12399:	c3                   	retq   

000000000001239a <func_72>:
   1239a:	f3 0f 1e fa          	endbr64 
   1239e:	55                   	push   %rbp
   1239f:	48 89 e5             	mov    %rsp,%rbp
   123a2:	48 81 ec e0 00 00 00 	sub    $0xe0,%rsp
   123a9:	89 bd 3c ff ff ff    	mov    %edi,-0xc4(%rbp)
   123af:	48 89 b5 30 ff ff ff 	mov    %rsi,-0xd0(%rbp)
   123b6:	89 c8                	mov    %ecx,%eax
   123b8:	4c 89 85 20 ff ff ff 	mov    %r8,-0xe0(%rbp)
   123bf:	88 95 38 ff ff ff    	mov    %dl,-0xc8(%rbp)
   123c5:	66 89 85 2c ff ff ff 	mov    %ax,-0xd4(%rbp)
   123cc:	64 48 8b 04 25 28 00 	mov    %fs:0x28,%rax
   123d3:	00 00 
   123d5:	48 89 45 f8          	mov    %rax,-0x8(%rbp)
   123d9:	31 c0                	xor    %eax,%eax
   123db:	48 8d 05 6e 08 01 00 	lea    0x1086e(%rip),%rax        # 22c50 <g_22>
   123e2:	48 89 85 50 ff ff ff 	mov    %rax,-0xb0(%rbp)
   123e9:	48 8d 05 88 ac 00 00 	lea    0xac88(%rip),%rax        # 1d078 <g_44>
   123f0:	48 89 85 58 ff ff ff 	mov    %rax,-0xa8(%rbp)
   123f7:	48 8d 05 52 08 01 00 	lea    0x10852(%rip),%rax        # 22c50 <g_22>
   123fe:	48 89 85 60 ff ff ff 	mov    %rax,-0xa0(%rbp)
   12405:	c7 85 44 ff ff ff fc 	movl   $0xfffffffc,-0xbc(%rbp)
   1240c:	ff ff ff 
   1240f:	48 8d 85 44 ff ff ff 	lea    -0xbc(%rbp),%rax
   12416:	48 89 85 68 ff ff ff 	mov    %rax,-0x98(%rbp)
   1241d:	48 8d 05 54 ac 00 00 	lea    0xac54(%rip),%rax        # 1d078 <g_44>
   12424:	48 89 85 70 ff ff ff 	mov    %rax,-0x90(%rbp)
   1242b:	48 c7 85 78 ff ff ff 	movq   $0x0,-0x88(%rbp)
   12432:	00 00 00 00 
   12436:	48 8d 85 44 ff ff ff 	lea    -0xbc(%rbp),%rax
   1243d:	48 89 45 80          	mov    %rax,-0x80(%rbp)
   12441:	48 8d 05 30 ac 00 00 	lea    0xac30(%rip),%rax        # 1d078 <g_44>
   12448:	48 89 45 88          	mov    %rax,-0x78(%rbp)
   1244c:	48 8d 05 25 ac 00 00 	lea    0xac25(%rip),%rax        # 1d078 <g_44>
   12453:	48 89 45 90          	mov    %rax,-0x70(%rbp)
   12457:	48 8d 05 f2 07 01 00 	lea    0x107f2(%rip),%rax        # 22c50 <g_22>
   1245e:	48 89 45 98          	mov    %rax,-0x68(%rbp)
   12462:	48 8d 05 e7 07 01 00 	lea    0x107e7(%rip),%rax        # 22c50 <g_22>
   12469:	48 89 45 a0          	mov    %rax,-0x60(%rbp)
   1246d:	48 8d 85 44 ff ff ff 	lea    -0xbc(%rbp),%rax
   12474:	48 89 45 a8          	mov    %rax,-0x58(%rbp)
   12478:	c7 45 d0 f6 e7 bb ca 	movl   $0xcabbe7f6,-0x30(%rbp)
   1247f:	c7 45 d4 01 00 00 00 	movl   $0x1,-0x2c(%rbp)
   12486:	c7 45 d8 00 00 00 00 	movl   $0x0,-0x28(%rbp)
   1248d:	c7 45 dc 00 00 00 00 	movl   $0x0,-0x24(%rbp)
   12494:	c7 45 e0 01 00 00 00 	movl   $0x1,-0x20(%rbp)
   1249b:	c7 45 e4 f6 e7 bb ca 	movl   $0xcabbe7f6,-0x1c(%rbp)
   124a2:	c7 45 e8 01 00 00 00 	movl   $0x1,-0x18(%rbp)
   124a9:	c7 45 ec 00 00 00 00 	movl   $0x0,-0x14(%rbp)
   124b0:	c7 45 f0 00 00 00 00 	movl   $0x0,-0x10(%rbp)
   124b7:	c7 45 f4 01 00 00 00 	movl   $0x1,-0xc(%rbp)
   124be:	c7 85 4c ff ff ff 23 	movl   $0x175e0423,-0xb4(%rbp)
   124c5:	04 5e 17 
   124c8:	c7 85 48 ff ff ff 00 	movl   $0x0,-0xb8(%rbp)
   124cf:	00 00 00 
   124d2:	eb 1c                	jmp    124f0 <func_72+0x156>
   124d4:	8b 85 48 ff ff ff    	mov    -0xb8(%rbp),%eax
   124da:	48 98                	cltq   
   124dc:	48 8d 55 d0          	lea    -0x30(%rbp),%rdx
   124e0:	48 83 c2 04          	add    $0x4,%rdx
   124e4:	48 89 54 c5 b0       	mov    %rdx,-0x50(%rbp,%rax,8)
   124e9:	83 85 48 ff ff ff 01 	addl   $0x1,-0xb8(%rbp)
   124f0:	83 bd 48 ff ff ff 03 	cmpl   $0x3,-0xb8(%rbp)
   124f7:	7e db                	jle    124d4 <func_72+0x13a>
   124f9:	83 ad 4c ff ff ff 01 	subl   $0x1,-0xb4(%rbp)
   12500:	48 8b 05 21 ab 00 00 	mov    0xab21(%rip),%rax        # 1d028 <g_10>
   12507:	48 8b 4d f8          	mov    -0x8(%rbp),%rcx
   1250b:	64 48 33 0c 25 28 00 	xor    %fs:0x28,%rcx
   12512:	00 00 
   12514:	74 05                	je     1251b <func_72+0x181>
   12516:	e8 55 5b ff ff       	callq  8070 <__stack_chk_fail@plt>
   1251b:	c9                   	leaveq 
   1251c:	c3                   	retq   

000000000001251d <func_107>:
   1251d:	f3 0f 1e fa          	endbr64 
   12521:	55                   	push   %rbp
   12522:	48 89 e5             	mov    %rsp,%rbp
   12525:	41 57                	push   %r15
   12527:	41 56                	push   %r14
   12529:	41 55                	push   %r13
   1252b:	41 54                	push   %r12
   1252d:	53                   	push   %rbx
   1252e:	48 81 ec 08 0a 00 00 	sub    $0xa08,%rsp
   12535:	48 89 bd d8 f5 ff ff 	mov    %rdi,-0xa28(%rbp)
   1253c:	48 89 b5 d0 f5 ff ff 	mov    %rsi,-0xa30(%rbp)
   12543:	64 48 8b 04 25 28 00 	mov    %fs:0x28,%rax
   1254a:	00 00 
   1254c:	48 89 45 c8          	mov    %rax,-0x38(%rbp)
   12550:	31 c0                	xor    %eax,%eax
   12552:	c6 85 e2 f5 ff ff 30 	movb   $0x30,-0xa1e(%rbp)
   12559:	48 8d 85 00 f9 ff ff 	lea    -0x700(%rbp),%rax
   12560:	48 8d 15 f9 ee 00 00 	lea    0xeef9(%rip),%rdx        # 21460 <g_1954+0x1ac0>
   12567:	b9 d8 00 00 00       	mov    $0xd8,%ecx
   1256c:	48 89 c7             	mov    %rax,%rdi
   1256f:	48 89 d6             	mov    %rdx,%rsi
   12572:	f3 48 a5             	rep movsq %ds:(%rsi),%es:(%rdi)
   12575:	48 8d 05 a8 aa 00 00 	lea    0xaaa8(%rip),%rax        # 1d024 <g_8>
   1257c:	48 89 85 f0 f6 ff ff 	mov    %rax,-0x910(%rbp)
   12583:	48 8d 05 9a aa 00 00 	lea    0xaa9a(%rip),%rax        # 1d024 <g_8>
   1258a:	48 89 85 f8 f6 ff ff 	mov    %rax,-0x908(%rbp)
   12591:	48 8d 05 8c aa 00 00 	lea    0xaa8c(%rip),%rax        # 1d024 <g_8>
   12598:	48 89 85 00 f7 ff ff 	mov    %rax,-0x900(%rbp)
   1259f:	48 8d 05 7e aa 00 00 	lea    0xaa7e(%rip),%rax        # 1d024 <g_8>
   125a6:	48 89 85 08 f7 ff ff 	mov    %rax,-0x8f8(%rbp)
   125ad:	48 8d 05 70 aa 00 00 	lea    0xaa70(%rip),%rax        # 1d024 <g_8>
   125b4:	48 89 85 10 f7 ff ff 	mov    %rax,-0x8f0(%rbp)
   125bb:	48 8d 05 62 aa 00 00 	lea    0xaa62(%rip),%rax        # 1d024 <g_8>
   125c2:	48 89 85 18 f7 ff ff 	mov    %rax,-0x8e8(%rbp)
   125c9:	48 8d 05 54 aa 00 00 	lea    0xaa54(%rip),%rax        # 1d024 <g_8>
   125d0:	48 89 85 20 f7 ff ff 	mov    %rax,-0x8e0(%rbp)
   125d7:	48 8d 05 46 aa 00 00 	lea    0xaa46(%rip),%rax        # 1d024 <g_8>
   125de:	48 89 85 28 f7 ff ff 	mov    %rax,-0x8d8(%rbp)
   125e5:	48 8d 05 38 aa 00 00 	lea    0xaa38(%rip),%rax        # 1d024 <g_8>
   125ec:	48 89 85 30 f7 ff ff 	mov    %rax,-0x8d0(%rbp)
   125f3:	48 8d 85 f0 f6 ff ff 	lea    -0x910(%rbp),%rax
   125fa:	48 83 c0 38          	add    $0x38,%rax
   125fe:	48 89 85 f8 f5 ff ff 	mov    %rax,-0xa08(%rbp)
   12605:	c7 85 f0 f5 ff ff a8 	movl   $0xe501cda8,-0xa10(%rbp)
   1260c:	cd 01 e5 
   1260f:	c7 85 e4 f5 ff ff ff 	movl   $0xffffffff,-0xa1c(%rbp)
   12616:	ff ff ff 
   12619:	c7 85 40 f7 ff ff 01 	movl   $0x1,-0x8c0(%rbp)
   12620:	00 00 00 
   12623:	c7 85 44 f7 ff ff 01 	movl   $0x1,-0x8bc(%rbp)
   1262a:	00 00 00 
   1262d:	c7 85 48 f7 ff ff 01 	movl   $0x1,-0x8b8(%rbp)
   12634:	00 00 00 
   12637:	c7 85 4c f7 ff ff d7 	movl   $0x775938d7,-0x8b4(%rbp)
   1263e:	38 59 77 
   12641:	c7 85 50 f7 ff ff d7 	movl   $0x775938d7,-0x8b0(%rbp)
   12648:	38 59 77 
   1264b:	c7 85 54 f7 ff ff d7 	movl   $0x775938d7,-0x8ac(%rbp)
   12652:	38 59 77 
   12655:	c7 85 58 f7 ff ff 01 	movl   $0x1,-0x8a8(%rbp)
   1265c:	00 00 00 
   1265f:	c7 85 5c f7 ff ff 01 	movl   $0x1,-0x8a4(%rbp)
   12666:	00 00 00 
   12669:	c7 85 60 f7 ff ff 01 	movl   $0x1,-0x8a0(%rbp)
   12670:	00 00 00 
   12673:	c7 85 64 f7 ff ff d7 	movl   $0x775938d7,-0x89c(%rbp)
   1267a:	38 59 77 
   1267d:	c7 85 68 f7 ff ff d7 	movl   $0x775938d7,-0x898(%rbp)
   12684:	38 59 77 
   12687:	c7 85 6c f7 ff ff d7 	movl   $0x775938d7,-0x894(%rbp)
   1268e:	38 59 77 
   12691:	c7 85 70 f7 ff ff 01 	movl   $0x1,-0x890(%rbp)
   12698:	00 00 00 
   1269b:	c7 85 74 f7 ff ff 01 	movl   $0x1,-0x88c(%rbp)
   126a2:	00 00 00 
   126a5:	c7 85 78 f7 ff ff 01 	movl   $0x1,-0x888(%rbp)
   126ac:	00 00 00 
   126af:	c7 85 7c f7 ff ff d7 	movl   $0x775938d7,-0x884(%rbp)
   126b6:	38 59 77 
   126b9:	c7 85 80 f7 ff ff d7 	movl   $0x775938d7,-0x880(%rbp)
   126c0:	38 59 77 
   126c3:	c7 85 84 f7 ff ff d7 	movl   $0x775938d7,-0x87c(%rbp)
   126ca:	38 59 77 
   126cd:	48 8d 05 74 f4 00 00 	lea    0xf474(%rip),%rax        # 21b48 <g_106+0x8>
   126d4:	48 89 85 10 f6 ff ff 	mov    %rax,-0x9f0(%rbp)
   126db:	48 8d 05 8e a9 00 00 	lea    0xa98e(%rip),%rax        # 1d070 <g_40>
   126e2:	48 89 85 00 f6 ff ff 	mov    %rax,-0xa00(%rbp)
   126e9:	48 8d 85 00 f6 ff ff 	lea    -0xa00(%rbp),%rax
   126f0:	48 89 85 18 f6 ff ff 	mov    %rax,-0x9e8(%rbp)
   126f7:	48 b8 a7 f8 fe 2a 11 	movabs $0x5b0c7e112afef8a7,%rax
   126fe:	7e 0c 5b 
   12701:	48 89 85 20 f6 ff ff 	mov    %rax,-0x9e0(%rbp)
   12708:	48 8d 85 e0 f7 ff ff 	lea    -0x820(%rbp),%rax
   1270f:	48 8d 15 aa 6b 00 00 	lea    0x6baa(%rip),%rdx        # 192c0 <g_1750+0x1220>
   12716:	b9 24 00 00 00       	mov    $0x24,%ecx
   1271b:	48 89 c7             	mov    %rax,%rdi
   1271e:	48 89 d6             	mov    %rdx,%rsi
   12721:	f3 48 a5             	rep movsq %ds:(%rsi),%es:(%rdi)
   12724:	48 c7 85 28 f6 ff ff 	movq   $0x0,-0x9d8(%rbp)
   1272b:	00 00 00 00 
   1272f:	48 83 bd d8 f5 ff ff 	cmpq   $0x0,-0xa28(%rbp)
   12736:	00 
   12737:	0f 84 d1 02 00 00    	je     12a0e <func_107+0x4f1>
   1273d:	48 c7 85 58 f6 ff ff 	movq   $0x0,-0x9a8(%rbp)
   12744:	00 00 00 00 
   12748:	48 c7 85 60 f6 ff ff 	movq   $0x0,-0x9a0(%rbp)
   1274f:	00 00 00 00 
   12753:	48 8d 85 00 f9 ff ff 	lea    -0x700(%rbp),%rax
   1275a:	48 05 68 04 00 00    	add    $0x468,%rax
   12760:	48 89 85 68 f6 ff ff 	mov    %rax,-0x998(%rbp)
   12767:	48 8d 85 f8 f5 ff ff 	lea    -0xa08(%rbp),%rax
   1276e:	48 89 85 70 f6 ff ff 	mov    %rax,-0x990(%rbp)
   12775:	48 8d 05 a8 a8 00 00 	lea    0xa8a8(%rip),%rax        # 1d024 <g_8>
   1277c:	48 89 85 78 f6 ff ff 	mov    %rax,-0x988(%rbp)
   12783:	48 8d 05 02 a9 00 00 	lea    0xa902(%rip),%rax        # 1d08c <g_148>
   1278a:	48 89 85 80 f6 ff ff 	mov    %rax,-0x980(%rbp)
   12791:	48 8d 05 d2 aa 00 00 	lea    0xaad2(%rip),%rax        # 1d26a <g_406>
   12798:	48 89 85 88 f6 ff ff 	mov    %rax,-0x978(%rbp)
   1279f:	48 8d 05 82 a8 00 00 	lea    0xa882(%rip),%rax        # 1d028 <g_10>
   127a6:	48 89 85 90 f7 ff ff 	mov    %rax,-0x870(%rbp)
   127ad:	48 8d 05 74 a8 00 00 	lea    0xa874(%rip),%rax        # 1d028 <g_10>
   127b4:	48 89 85 98 f7 ff ff 	mov    %rax,-0x868(%rbp)
   127bb:	48 8d 05 66 a8 00 00 	lea    0xa866(%rip),%rax        # 1d028 <g_10>
   127c2:	48 89 85 a0 f7 ff ff 	mov    %rax,-0x860(%rbp)
   127c9:	48 8d 05 58 a8 00 00 	lea    0xa858(%rip),%rax        # 1d028 <g_10>
   127d0:	48 89 85 a8 f7 ff ff 	mov    %rax,-0x858(%rbp)
   127d7:	c6 85 e3 f5 ff ff 01 	movb   $0x1,-0xa1d(%rbp)
   127de:	48 8d 85 e4 f5 ff ff 	lea    -0xa1c(%rbp),%rax
   127e5:	48 89 85 90 f6 ff ff 	mov    %rax,-0x970(%rbp)
   127ec:	c7 85 e8 f5 ff ff 00 	movl   $0x0,-0xa18(%rbp)
   127f3:	00 00 00 
   127f6:	eb 1e                	jmp    12816 <func_107+0x2f9>
   127f8:	8b 85 e8 f5 ff ff    	mov    -0xa18(%rbp),%eax
   127fe:	48 98                	cltq   
   12800:	48 8d 15 71 a8 00 00 	lea    0xa871(%rip),%rdx        # 1d078 <g_44>
   12807:	48 89 94 c5 d0 f6 ff 	mov    %rdx,-0x930(%rbp,%rax,8)
   1280e:	ff 
   1280f:	83 85 e8 f5 ff ff 01 	addl   $0x1,-0xa18(%rbp)
   12816:	83 bd e8 f5 ff ff 03 	cmpl   $0x3,-0xa18(%rbp)
   1281d:	7e d9                	jle    127f8 <func_107+0x2db>
   1281f:	c6 85 e2 f5 ff ff f9 	movb   $0xf9,-0xa1e(%rbp)
   12826:	48 8b 95 68 fd ff ff 	mov    -0x298(%rbp),%rdx
   1282d:	48 8b 85 68 f6 ff ff 	mov    -0x998(%rbp),%rax
   12834:	48 89 10             	mov    %rdx,(%rax)
   12837:	48 8b 85 68 f6 ff ff 	mov    -0x998(%rbp),%rax
   1283e:	48 8b 08             	mov    (%rax),%rcx
   12841:	48 8b 95 f8 f5 ff ff 	mov    -0xa08(%rbp),%rdx
   12848:	48 8b 85 70 f6 ff ff 	mov    -0x990(%rbp),%rax
   1284f:	48 89 10             	mov    %rdx,(%rax)
   12852:	48 8b 85 70 f6 ff ff 	mov    -0x990(%rbp),%rax
   12859:	48 8b 00             	mov    (%rax),%rax
   1285c:	48 39 c1             	cmp    %rax,%rcx
   1285f:	0f 94 c0             	sete   %al
   12862:	44 0f b6 e0          	movzbl %al,%r12d
   12866:	48 83 bd 58 f6 ff ff 	cmpq   $0x0,-0x9a8(%rbp)
   1286d:	00 
   1286e:	0f 95 c0             	setne  %al
   12871:	0f b6 d8             	movzbl %al,%ebx
   12874:	8b 05 fe a7 00 00    	mov    0xa7fe(%rip),%eax        # 1d078 <g_44>
   1287a:	89 c2                	mov    %eax,%edx
   1287c:	48 8b 85 d8 f5 ff ff 	mov    -0xa28(%rbp),%rax
   12883:	0f be c0             	movsbl %al,%eax
   12886:	89 d6                	mov    %edx,%esi
   12888:	89 c7                	mov    %eax,%edi
   1288a:	e8 5f 5a ff ff       	callq  82ee <safe_lshift_func_int8_t_s_u>
   1288f:	44 0f be e8          	movsbl %al,%r13d
   12893:	8b 05 e7 a7 00 00    	mov    0xa7e7(%rip),%eax        # 1d080 <g_55>
   12899:	89 c1                	mov    %eax,%ecx
   1289b:	48 8b 85 78 f6 ff ff 	mov    -0x988(%rbp),%rax
   128a2:	0f b7 00             	movzwl (%rax),%eax
   128a5:	8d 50 01             	lea    0x1(%rax),%edx
   128a8:	48 8b 85 78 f6 ff ff 	mov    -0x988(%rbp),%rax
   128af:	66 89 10             	mov    %dx,(%rax)
   128b2:	48 8b 85 d0 f5 ff ff 	mov    -0xa30(%rbp),%rax
   128b9:	89 c2                	mov    %eax,%edx
   128bb:	48 8b 85 80 f6 ff ff 	mov    -0x980(%rbp),%rax
   128c2:	66 89 10             	mov    %dx,(%rax)
   128c5:	66 c7 05 9a a9 00 00 	movw   $0x1,0xa99a(%rip)        # 1d268 <g_404>
   128cc:	01 00 
   128ce:	89 ce                	mov    %ecx,%esi
   128d0:	bf 01 00 00 00       	mov    $0x1,%edi
   128d5:	e8 f2 5d ff ff       	callq  86cc <safe_mod_func_int32_t_s_s>
   128da:	44 21 e8             	and    %r13d,%eax
   128dd:	48 98                	cltq   
   128df:	48 39 85 d0 f5 ff ff 	cmp    %rax,-0xa30(%rbp)
   128e6:	0f 96 c0             	setbe  %al
   128e9:	0f b6 d0             	movzbl %al,%edx
   128ec:	48 8b 85 88 f6 ff ff 	mov    -0x978(%rbp),%rax
   128f3:	66 89 10             	mov    %dx,(%rax)
   128f6:	48 8b 85 88 f6 ff ff 	mov    -0x978(%rbp),%rax
   128fd:	0f b7 00             	movzwl (%rax),%eax
   12900:	98                   	cwtl   
   12901:	89 85 f0 f5 ff ff    	mov    %eax,-0xa10(%rbp)
   12907:	39 9d f0 f5 ff ff    	cmp    %ebx,-0xa10(%rbp)
   1290d:	0f 9d c0             	setge  %al
   12910:	0f b6 c0             	movzbl %al,%eax
   12913:	44 31 e0             	xor    %r12d,%eax
   12916:	89 85 e4 f5 ff ff    	mov    %eax,-0xa1c(%rbp)
   1291c:	8b 95 e4 f5 ff ff    	mov    -0xa1c(%rbp),%edx
   12922:	8b 85 50 f7 ff ff    	mov    -0x8b0(%rbp),%eax
   12928:	21 d0                	and    %edx,%eax
   1292a:	89 85 50 f7 ff ff    	mov    %eax,-0x8b0(%rbp)
   12930:	48 83 bd d0 f5 ff ff 	cmpq   $0x0,-0xa30(%rbp)
   12937:	00 
   12938:	75 59                	jne    12993 <func_107+0x476>
   1293a:	8b 05 48 a7 00 00    	mov    0xa748(%rip),%eax        # 1d088 <g_120>
   12940:	88 05 17 a7 00 00    	mov    %al,0xa717(%rip)        # 1d05d <g_31+0x1d>
   12946:	0f b6 05 10 a7 00 00 	movzbl 0xa710(%rip),%eax        # 1d05d <g_31+0x1d>
   1294d:	0f b6 c8             	movzbl %al,%ecx
   12950:	48 83 bd d0 f5 ff ff 	cmpq   $0x0,-0xa30(%rbp)
   12957:	00 
   12958:	0f 95 c0             	setne  %al
   1295b:	0f b6 d0             	movzbl %al,%edx
   1295e:	48 8b 85 88 f6 ff ff 	mov    -0x978(%rbp),%rax
   12965:	66 89 10             	mov    %dx,(%rax)
   12968:	48 8b 85 88 f6 ff ff 	mov    -0x978(%rbp),%rax
   1296f:	0f b7 00             	movzwl (%rax),%eax
   12972:	0f bf d0             	movswl %ax,%edx
   12975:	8b 85 e4 f5 ff ff    	mov    -0xa1c(%rbp),%eax
   1297b:	39 c2                	cmp    %eax,%edx
   1297d:	0f 9d c0             	setge  %al
   12980:	0f b6 c0             	movzbl %al,%eax
   12983:	21 c8                	and    %ecx,%eax
   12985:	48 98                	cltq   
   12987:	48 23 85 d0 f5 ff ff 	and    -0xa30(%rbp),%rax
   1298e:	48 85 c0             	test   %rax,%rax
   12991:	74 07                	je     1299a <func_107+0x47d>
   12993:	b8 01 00 00 00       	mov    $0x1,%eax
   12998:	eb 05                	jmp    1299f <func_107+0x482>
   1299a:	b8 00 00 00 00       	mov    $0x0,%eax
   1299f:	83 c8 fc             	or     $0xfffffffc,%eax
   129a2:	0f b6 c0             	movzbl %al,%eax
   129a5:	89 c6                	mov    %eax,%esi
   129a7:	bf 28 00 00 00       	mov    $0x28,%edi
   129ac:	e8 e2 61 ff ff       	callq  8b93 <safe_mul_func_uint8_t_u_u>
   129b1:	84 c0                	test   %al,%al
   129b3:	0f 94 c0             	sete   %al
   129b6:	0f b6 c0             	movzbl %al,%eax
   129b9:	be 00 00 00 00       	mov    $0x0,%esi
   129be:	89 c7                	mov    %eax,%edi
   129c0:	e8 70 59 ff ff       	callq  8335 <safe_rshift_func_int8_t_s_s>
   129c5:	0f b6 95 e3 f5 ff ff 	movzbl -0xa1d(%rbp),%edx
   129cc:	21 d0                	and    %edx,%eax
   129ce:	88 85 e3 f5 ff ff    	mov    %al,-0xa1d(%rbp)
   129d4:	0f b6 85 e3 f5 ff ff 	movzbl -0xa1d(%rbp),%eax
   129db:	48 39 85 d8 f5 ff ff 	cmp    %rax,-0xa28(%rbp)
   129e2:	0f 9f c0             	setg   %al
   129e5:	0f b6 c0             	movzbl %al,%eax
   129e8:	89 85 50 f7 ff ff    	mov    %eax,-0x8b0(%rbp)
   129ee:	48 8b 05 fb f1 00 00 	mov    0xf1fb(%rip),%rax        # 21bf0 <g_263>
   129f5:	48 8b 00             	mov    (%rax),%rax
   129f8:	48 89 85 90 f6 ff ff 	mov    %rax,-0x970(%rbp)
   129ff:	c7 05 47 02 01 00 00 	movl   $0x0,0x10247(%rip)        # 22c50 <g_22>
   12a06:	00 00 00 
   12a09:	e9 83 06 00 00       	jmpq   13091 <func_107+0xb74>
   12a0e:	48 8d 05 4b a8 00 00 	lea    0xa84b(%rip),%rax        # 1d260 <g_386>
   12a15:	48 89 85 08 f6 ff ff 	mov    %rax,-0x9f8(%rbp)
   12a1c:	48 8d 85 08 f6 ff ff 	lea    -0x9f8(%rbp),%rax
   12a23:	48 89 85 30 f6 ff ff 	mov    %rax,-0x9d0(%rbp)
   12a2a:	48 8d 05 37 f1 00 00 	lea    0xf137(%rip),%rax        # 21b68 <g_106+0x28>
   12a31:	48 89 85 38 f6 ff ff 	mov    %rax,-0x9c8(%rbp)
   12a38:	48 8d 05 51 a8 00 00 	lea    0xa851(%rip),%rax        # 1d290 <g_448>
   12a3f:	48 89 85 40 f6 ff ff 	mov    %rax,-0x9c0(%rbp)
   12a46:	48 8d 05 fd a5 00 00 	lea    0xa5fd(%rip),%rax        # 1d04a <g_31+0xa>
   12a4d:	48 89 85 48 f6 ff ff 	mov    %rax,-0x9b8(%rbp)
   12a54:	48 8d 05 35 a8 00 00 	lea    0xa835(%rip),%rax        # 1d290 <g_448>
   12a5b:	48 89 85 50 f6 ff ff 	mov    %rax,-0x9b0(%rbp)
   12a62:	48 8b 95 08 f6 ff ff 	mov    -0x9f8(%rbp),%rdx
   12a69:	48 8b 85 30 f6 ff ff 	mov    -0x9d0(%rbp),%rax
   12a70:	48 89 10             	mov    %rdx,(%rax)
   12a73:	48 8b 85 30 f6 ff ff 	mov    -0x9d0(%rbp),%rax
   12a7a:	48 8b 10             	mov    (%rax),%rdx
   12a7d:	48 8b 85 38 f6 ff ff 	mov    -0x9c8(%rbp),%rax
   12a84:	48 8d 8d 40 f7 ff ff 	lea    -0x8c0(%rbp),%rcx
   12a8b:	48 83 c1 10          	add    $0x10,%rcx
   12a8f:	48 89 08             	mov    %rcx,(%rax)
   12a92:	48 8b 85 38 f6 ff ff 	mov    -0x9c8(%rbp),%rax
   12a99:	48 8b 00             	mov    (%rax),%rax
   12a9c:	48 39 c2             	cmp    %rax,%rdx
   12a9f:	0f 94 c0             	sete   %al
   12aa2:	44 0f b6 e8          	movzbl %al,%r13d
   12aa6:	8b 05 a4 01 01 00    	mov    0x101a4(%rip),%eax        # 22c50 <g_22>
   12aac:	0f b6 d8             	movzbl %al,%ebx
   12aaf:	48 83 bd d0 f5 ff ff 	cmpq   $0x0,-0xa30(%rbp)
   12ab6:	00 
   12ab7:	0f 84 ec 00 00 00    	je     12ba9 <func_107+0x68c>
   12abd:	48 8b 85 d0 f5 ff ff 	mov    -0xa30(%rbp),%rax
   12ac4:	44 0f b7 e0          	movzwl %ax,%r12d
   12ac8:	0f b6 95 e2 f5 ff ff 	movzbl -0xa1e(%rbp),%edx
   12acf:	b8 ca 05 00 00       	mov    $0x5ca,%eax
   12ad4:	89 c1                	mov    %eax,%ecx
   12ad6:	8b 85 e4 f5 ff ff    	mov    -0xa1c(%rbp),%eax
   12adc:	21 c1                	and    %eax,%ecx
   12ade:	b8 2a 00 00 00       	mov    $0x2a,%eax
   12ae3:	98                   	cwtl   
   12ae4:	39 c1                	cmp    %eax,%ecx
   12ae6:	0f 9f c0             	setg   %al
   12ae9:	0f b6 c0             	movzbl %al,%eax
   12aec:	89 d6                	mov    %edx,%esi
   12aee:	89 c7                	mov    %eax,%edi
   12af0:	e8 c3 63 ff ff       	callq  8eb8 <safe_add_func_uint32_t_u_u>
   12af5:	48 8b 05 24 f0 00 00 	mov    0xf024(%rip),%rax        # 21b20 <g_54>
   12afc:	48 39 85 40 f6 ff ff 	cmp    %rax,-0x9c0(%rbp)
   12b03:	0f 95 c0             	setne  %al
   12b06:	0f b6 c0             	movzbl %al,%eax
   12b09:	48 8b 15 90 a5 00 00 	mov    0xa590(%rip),%rdx        # 1d0a0 <g_153+0x10>
   12b10:	48 c1 ea 0a          	shr    $0xa,%rdx
   12b14:	81 e2 ff ff 7f 00    	and    $0x7fffff,%edx
   12b1a:	09 d0                	or     %edx,%eax
   12b1c:	48 98                	cltq   
   12b1e:	48 39 85 d0 f5 ff ff 	cmp    %rax,-0xa30(%rbp)
   12b25:	0f 95 c0             	setne  %al
   12b28:	0f b6 c0             	movzbl %al,%eax
   12b2b:	89 85 40 f7 ff ff    	mov    %eax,-0x8c0(%rbp)
   12b31:	8b 85 40 f7 ff ff    	mov    -0x8c0(%rbp),%eax
   12b37:	0f b7 c0             	movzwl %ax,%eax
   12b3a:	44 89 e6             	mov    %r12d,%esi
   12b3d:	89 c7                	mov    %eax,%edi
   12b3f:	e8 bb 61 ff ff       	callq  8cff <safe_add_func_uint16_t_u_u>
   12b44:	0f b7 c0             	movzwl %ax,%eax
   12b47:	48 c7 c6 ff ff ff ff 	mov    $0xffffffffffffffff,%rsi
   12b4e:	48 89 c7             	mov    %rax,%rdi
   12b51:	e8 a1 5e ff ff       	callq  89f7 <safe_div_func_int64_t_s_s>
   12b56:	be be ce b3 ca       	mov    $0xcab3cebe,%esi
   12b5b:	89 c7                	mov    %eax,%edi
   12b5d:	e8 54 5a ff ff       	callq  85b6 <safe_add_func_int32_t_s_s>
   12b62:	48 98                	cltq   
   12b64:	48 39 85 d8 f5 ff ff 	cmp    %rax,-0xa28(%rbp)
   12b6b:	0f 94 c0             	sete   %al
   12b6e:	0f b6 c0             	movzbl %al,%eax
   12b71:	be 01 00 00 00       	mov    $0x1,%esi
   12b76:	89 c7                	mov    %eax,%edi
   12b78:	e8 24 57 ff ff       	callq  82a1 <safe_lshift_func_int8_t_s_s>
   12b7d:	3c 01                	cmp    $0x1,%al
   12b7f:	0f 94 c0             	sete   %al
   12b82:	0f b6 d0             	movzbl %al,%edx
   12b85:	48 8b 05 cc f1 00 00 	mov    0xf1cc(%rip),%rax        # 21d58 <g_435>
   12b8c:	48 85 c0             	test   %rax,%rax
   12b8f:	0f 94 c0             	sete   %al
   12b92:	0f b6 c0             	movzbl %al,%eax
   12b95:	89 d6                	mov    %edx,%esi
   12b97:	89 c7                	mov    %eax,%edi
   12b99:	e8 ce 57 ff ff       	callq  836c <safe_rshift_func_int8_t_s_u>
   12b9e:	84 c0                	test   %al,%al
   12ba0:	74 07                	je     12ba9 <func_107+0x68c>
   12ba2:	b8 01 00 00 00       	mov    $0x1,%eax
   12ba7:	eb 05                	jmp    12bae <func_107+0x691>
   12ba9:	b8 00 00 00 00       	mov    $0x0,%eax
   12bae:	0f b6 c0             	movzbl %al,%eax
   12bb1:	89 de                	mov    %ebx,%esi
   12bb3:	89 c7                	mov    %eax,%edi
   12bb5:	e8 a0 5f ff ff       	callq  8b5a <safe_add_func_uint8_t_u_u>
   12bba:	0f b6 c0             	movzbl %al,%eax
   12bbd:	44 09 e8             	or     %r13d,%eax
   12bc0:	85 c0                	test   %eax,%eax
   12bc2:	74 11                	je     12bd5 <func_107+0x6b8>
   12bc4:	8b 85 e4 f5 ff ff    	mov    -0xa1c(%rbp),%eax
   12bca:	85 c0                	test   %eax,%eax
   12bcc:	74 07                	je     12bd5 <func_107+0x6b8>
   12bce:	b8 01 00 00 00       	mov    $0x1,%eax
   12bd3:	eb 05                	jmp    12bda <func_107+0x6bd>
   12bd5:	b8 00 00 00 00       	mov    $0x0,%eax
   12bda:	0f b6 d8             	movzbl %al,%ebx
   12bdd:	be 05 00 00 00       	mov    $0x5,%esi
   12be2:	bf b9 0b 00 00       	mov    $0xbb9,%edi
   12be7:	e8 77 59 ff ff       	callq  8563 <safe_rshift_func_int16_t_s_u>
   12bec:	0f b6 c0             	movzbl %al,%eax
   12bef:	89 de                	mov    %ebx,%esi
   12bf1:	89 c7                	mov    %eax,%edi
   12bf3:	e8 62 5f ff ff       	callq  8b5a <safe_add_func_uint8_t_u_u>
   12bf8:	0f b6 c0             	movzbl %al,%eax
   12bfb:	be 05 00 00 00       	mov    $0x5,%esi
   12c00:	89 c7                	mov    %eax,%edi
   12c02:	e8 fe 5f ff ff       	callq  8c05 <safe_lshift_func_uint8_t_u_s>
   12c07:	0f b6 c0             	movzbl %al,%eax
   12c0a:	8b 95 f0 f5 ff ff    	mov    -0xa10(%rbp),%edx
   12c10:	89 d6                	mov    %edx,%esi
   12c12:	89 c7                	mov    %eax,%edi
   12c14:	e8 79 58 ff ff       	callq  8492 <safe_lshift_func_int16_t_s_s>
   12c19:	89 c2                	mov    %eax,%edx
   12c1b:	48 8b 85 48 f6 ff ff 	mov    -0x9b8(%rbp),%rax
   12c22:	88 10                	mov    %dl,(%rax)
   12c24:	ba 00 00 00 00       	mov    $0x0,%edx
   12c29:	48 8b 85 50 f6 ff ff 	mov    -0x9b0(%rbp),%rax
   12c30:	8b 00                	mov    (%rax),%eax
   12c32:	31 c2                	xor    %eax,%edx
   12c34:	48 8b 85 50 f6 ff ff 	mov    -0x9b0(%rbp),%rax
   12c3b:	89 10                	mov    %edx,(%rax)
   12c3d:	48 8d 05 5c ef 00 00 	lea    0xef5c(%rip),%rax        # 21ba0 <g_106+0x60>
   12c44:	e9 5e 04 00 00       	jmpq   130a7 <func_107+0xb8a>
   12c49:	48 8d 05 f6 a5 00 00 	lea    0xa5f6(%rip),%rax        # 1d246 <g_329>
   12c50:	48 89 85 98 f6 ff ff 	mov    %rax,-0x968(%rbp)
   12c57:	48 8d 05 32 a4 00 00 	lea    0xa432(%rip),%rax        # 1d090 <g_153>
   12c5e:	48 89 85 a0 f6 ff ff 	mov    %rax,-0x960(%rbp)
   12c65:	48 8d 05 04 a4 00 00 	lea    0xa404(%rip),%rax        # 1d070 <g_40>
   12c6c:	48 89 85 90 f7 ff ff 	mov    %rax,-0x870(%rbp)
   12c73:	48 c7 85 98 f7 ff ff 	movq   $0x0,-0x868(%rbp)
   12c7a:	00 00 00 00 
   12c7e:	48 8d 05 eb a3 00 00 	lea    0xa3eb(%rip),%rax        # 1d070 <g_40>
   12c85:	48 89 85 a0 f7 ff ff 	mov    %rax,-0x860(%rbp)
   12c8c:	48 c7 85 a8 f7 ff ff 	movq   $0x0,-0x858(%rbp)
   12c93:	00 00 00 00 
   12c97:	48 8d 05 d2 a3 00 00 	lea    0xa3d2(%rip),%rax        # 1d070 <g_40>
   12c9e:	48 89 85 b0 f7 ff ff 	mov    %rax,-0x850(%rbp)
   12ca5:	48 c7 85 b8 f7 ff ff 	movq   $0x0,-0x848(%rbp)
   12cac:	00 00 00 00 
   12cb0:	48 8d 05 b9 a3 00 00 	lea    0xa3b9(%rip),%rax        # 1d070 <g_40>
   12cb7:	48 89 85 c0 f7 ff ff 	mov    %rax,-0x840(%rbp)
   12cbe:	48 c7 85 c8 f7 ff ff 	movq   $0x0,-0x838(%rbp)
   12cc5:	00 00 00 00 
   12cc9:	48 8d 05 a0 a3 00 00 	lea    0xa3a0(%rip),%rax        # 1d070 <g_40>
   12cd0:	48 89 85 d0 f7 ff ff 	mov    %rax,-0x830(%rbp)
   12cd7:	48 c7 85 d8 f7 ff ff 	movq   $0x0,-0x828(%rbp)
   12cde:	00 00 00 00 
   12ce2:	c7 85 f4 f5 ff ff 00 	movl   $0x0,-0xa0c(%rbp)
   12ce9:	00 00 00 
   12cec:	48 8d 05 95 a3 00 00 	lea    0xa395(%rip),%rax        # 1d088 <g_120>
   12cf3:	48 89 85 a8 f6 ff ff 	mov    %rax,-0x958(%rbp)
   12cfa:	48 b8 18 2d 7f e2 51 	movabs $0xbabd9f51e27f2d18,%rax
   12d01:	9f bd ba 
   12d04:	48 89 85 b0 f6 ff ff 	mov    %rax,-0x950(%rbp)
   12d0b:	48 c7 85 b8 f6 ff ff 	movq   $0x0,-0x948(%rbp)
   12d12:	00 00 00 00 
   12d16:	48 8d 05 73 a5 00 00 	lea    0xa573(%rip),%rax        # 1d290 <g_448>
   12d1d:	48 89 85 c0 f6 ff ff 	mov    %rax,-0x940(%rbp)
   12d24:	48 8d 05 3d a5 00 00 	lea    0xa53d(%rip),%rax        # 1d268 <g_404>
   12d2b:	48 89 85 c8 f6 ff ff 	mov    %rax,-0x938(%rbp)
   12d32:	c7 85 ec f5 ff ff 00 	movl   $0x0,-0xa14(%rbp)
   12d39:	00 00 00 
   12d3c:	eb 22                	jmp    12d60 <func_107+0x843>
   12d3e:	8b 85 ec f5 ff ff    	mov    -0xa14(%rbp),%eax
   12d44:	48 98                	cltq   
   12d46:	48 8d 95 90 f7 ff ff 	lea    -0x870(%rbp),%rdx
   12d4d:	48 83 c2 18          	add    $0x18,%rdx
   12d51:	48 89 94 c5 d0 f6 ff 	mov    %rdx,-0x930(%rbp,%rax,8)
   12d58:	ff 
   12d59:	83 85 ec f5 ff ff 01 	addl   $0x1,-0xa14(%rbp)
   12d60:	83 bd ec f5 ff ff 00 	cmpl   $0x0,-0xa14(%rbp)
   12d67:	7e d5                	jle    12d3e <func_107+0x821>
   12d69:	48 8b 05 70 ee 00 00 	mov    0xee70(%rip),%rax        # 21be0 <g_105>
   12d70:	48 8b 10             	mov    (%rax),%rdx
   12d73:	48 8b 85 10 f6 ff ff 	mov    -0x9f0(%rbp),%rax
   12d7a:	48 89 10             	mov    %rdx,(%rax)
   12d7d:	48 8b 05 5c ee 00 00 	mov    0xee5c(%rip),%rax        # 21be0 <g_105>
   12d84:	48 8b 10             	mov    (%rax),%rdx
   12d87:	48 8b 85 10 f6 ff ff 	mov    -0x9f0(%rbp),%rax
   12d8e:	48 89 10             	mov    %rdx,(%rax)
   12d91:	be 0d 00 00 00       	mov    $0xd,%esi
   12d96:	bf 1f 00 00 00       	mov    $0x1f,%edi
   12d9b:	e8 a8 60 ff ff       	callq  8e48 <safe_rshift_func_uint16_t_u_s>
   12da0:	66 85 c0             	test   %ax,%ax
   12da3:	0f 85 30 01 00 00    	jne    12ed9 <func_107+0x9bc>
   12da9:	8b 85 f4 f5 ff ff    	mov    -0xa0c(%rbp),%eax
   12daf:	48 63 d8             	movslq %eax,%rbx
   12db2:	8b 05 b8 a3 00 00    	mov    0xa3b8(%rip),%eax        # 1d170 <g_162+0xb0>
   12db8:	c1 e0 0c             	shl    $0xc,%eax
   12dbb:	c1 f8 14             	sar    $0x14,%eax
   12dbe:	44 0f bf e0          	movswl %ax,%r12d
   12dc2:	48 8b 05 cf a4 00 00 	mov    0xa4cf(%rip),%rax        # 1d298 <g_473>
   12dc9:	48 8b 85 d0 f6 ff ff 	mov    -0x930(%rbp),%rax
   12dd0:	48 39 85 18 f6 ff ff 	cmp    %rax,-0x9e8(%rbp)
   12dd7:	0f 95 c0             	setne  %al
   12dda:	44 0f b6 f8          	movzbl %al,%r15d
   12dde:	48 8b 85 d0 f5 ff ff 	mov    -0xa30(%rbp),%rax
   12de5:	44 0f b7 e8          	movzwl %ax,%r13d
   12de9:	44 8b b5 f4 f5 ff ff 	mov    -0xa0c(%rbp),%r14d
   12df0:	48 8b 85 20 f6 ff ff 	mov    -0x9e0(%rbp),%rax
   12df7:	98                   	cwtl   
   12df8:	89 c6                	mov    %eax,%esi
   12dfa:	bf 01 00 00 00       	mov    $0x1,%edi
   12dff:	e8 51 56 ff ff       	callq  8455 <safe_div_func_int16_t_s_s>
   12e04:	48 0f bf c0          	movswq %ax,%rax
   12e08:	48 39 85 d8 f5 ff ff 	cmp    %rax,-0xa28(%rbp)
   12e0f:	0f 9f c0             	setg   %al
   12e12:	0f b6 c0             	movzbl %al,%eax
   12e15:	44 89 f6             	mov    %r14d,%esi
   12e18:	89 c7                	mov    %eax,%edi
   12e1a:	e8 06 61 ff ff       	callq  8f25 <safe_div_func_uint32_t_u_u>
   12e1f:	8b 95 f4 f5 ff ff    	mov    -0xa0c(%rbp),%edx
   12e25:	39 d0                	cmp    %edx,%eax
   12e27:	0f 92 c0             	setb   %al
   12e2a:	0f b6 c0             	movzbl %al,%eax
   12e2d:	44 89 ee             	mov    %r13d,%esi
   12e30:	89 c7                	mov    %eax,%edi
   12e32:	e8 57 5f ff ff       	callq  8d8e <safe_div_func_uint16_t_u_u>
   12e37:	0f b7 c0             	movzwl %ax,%eax
   12e3a:	41 39 c7             	cmp    %eax,%r15d
   12e3d:	0f 94 c0             	sete   %al
   12e40:	0f b6 d0             	movzbl %al,%edx
   12e43:	48 8b 85 a8 f6 ff ff 	mov    -0x958(%rbp),%rax
   12e4a:	8b 00                	mov    (%rax),%eax
   12e4c:	09 c2                	or     %eax,%edx
   12e4e:	48 8b 85 a8 f6 ff ff 	mov    -0x958(%rbp),%rax
   12e55:	89 10                	mov    %edx,(%rax)
   12e57:	48 8b 85 a8 f6 ff ff 	mov    -0x958(%rbp),%rax
   12e5e:	8b 00                	mov    (%rax),%eax
   12e60:	89 c2                	mov    %eax,%edx
   12e62:	48 8b 85 b0 f6 ff ff 	mov    -0x950(%rbp),%rax
   12e69:	31 d0                	xor    %edx,%eax
   12e6b:	0f be c0             	movsbl %al,%eax
   12e6e:	44 89 e6             	mov    %r12d,%esi
   12e71:	89 c7                	mov    %eax,%edi
   12e73:	e8 f4 54 ff ff       	callq  836c <safe_rshift_func_int8_t_s_u>
   12e78:	0f be c0             	movsbl %al,%eax
   12e7b:	be 08 00 00 00       	mov    $0x8,%esi
   12e80:	89 c7                	mov    %eax,%edi
   12e82:	e8 9e 60 ff ff       	callq  8f25 <safe_div_func_uint32_t_u_u>
   12e87:	44 0f be e0          	movsbl %al,%r12d
   12e8b:	48 8b 85 d0 f5 ff ff 	mov    -0xa30(%rbp),%rax
   12e92:	89 c2                	mov    %eax,%edx
   12e94:	48 8b 85 98 f6 ff ff 	mov    -0x968(%rbp),%rax
   12e9b:	88 10                	mov    %dl,(%rax)
   12e9d:	48 8b 85 98 f6 ff ff 	mov    -0x968(%rbp),%rax
   12ea4:	0f b6 00             	movzbl (%rax),%eax
   12ea7:	0f be c0             	movsbl %al,%eax
   12eaa:	be 01 00 00 00       	mov    $0x1,%esi
   12eaf:	89 c7                	mov    %eax,%edi
   12eb1:	e8 5c 53 ff ff       	callq  8212 <safe_mul_func_int8_t_s_s>
   12eb6:	0f be c0             	movsbl %al,%eax
   12eb9:	44 89 e6             	mov    %r12d,%esi
   12ebc:	89 c7                	mov    %eax,%edi
   12ebe:	e8 11 53 ff ff       	callq  81d4 <safe_add_func_int8_t_s_s>
   12ec3:	48 0f be c0          	movsbq %al,%rax
   12ec7:	48 89 de             	mov    %rbx,%rsi
   12eca:	48 89 c7             	mov    %rax,%rdi
   12ecd:	e8 ae 61 ff ff       	callq  9080 <safe_mod_func_uint64_t_u_u>
   12ed2:	b8 00 00 00 00       	mov    $0x0,%eax
   12ed7:	eb 05                	jmp    12ede <func_107+0x9c1>
   12ed9:	b8 01 00 00 00       	mov    $0x1,%eax
   12ede:	83 f8 ff             	cmp    $0xffffffff,%eax
   12ee1:	0f 9d c0             	setge  %al
   12ee4:	0f b6 c0             	movzbl %al,%eax
   12ee7:	48 39 85 d0 f5 ff ff 	cmp    %rax,-0xa30(%rbp)
   12eee:	0f 96 c0             	setbe  %al
   12ef1:	0f b6 c0             	movzbl %al,%eax
   12ef4:	48 33 85 d8 f5 ff ff 	xor    -0xa28(%rbp),%rax
   12efb:	48 c7 c6 f6 ff ff ff 	mov    $0xfffffffffffffff6,%rsi
   12f02:	48 89 c7             	mov    %rax,%rdi
   12f05:	e8 a5 61 ff ff       	callq  90af <safe_div_func_uint64_t_u_u>
   12f0a:	0f be c0             	movsbl %al,%eax
   12f0d:	be 01 00 00 00       	mov    $0x1,%esi
   12f12:	89 c7                	mov    %eax,%edi
   12f14:	e8 1c 54 ff ff       	callq  8335 <safe_rshift_func_int8_t_s_s>
   12f19:	ba 01 00 00 00       	mov    $0x1,%edx
   12f1e:	48 8b 85 c0 f6 ff ff 	mov    -0x940(%rbp),%rax
   12f25:	89 10                	mov    %edx,(%rax)
   12f27:	48 8b 85 d0 f5 ff ff 	mov    -0xa30(%rbp),%rax
   12f2e:	0f bf d8             	movswl %ax,%ebx
   12f31:	48 8b 05 60 a1 00 00 	mov    0xa160(%rip),%rax        # 1d098 <g_153+0x8>
   12f38:	48 c1 e8 18          	shr    $0x18,%rax
   12f3c:	25 ff ff ff 00       	and    $0xffffff,%eax
   12f41:	44 0f b6 e0          	movzbl %al,%r12d
   12f45:	48 8b 85 d0 f5 ff ff 	mov    -0xa30(%rbp),%rax
   12f4c:	44 0f be e8          	movsbl %al,%r13d
   12f50:	b8 ca 05 00 00       	mov    $0x5ca,%eax
   12f55:	89 c2                	mov    %eax,%edx
   12f57:	48 8b 85 78 f8 ff ff 	mov    -0x788(%rbp),%rax
   12f5e:	89 c1                	mov    %eax,%ecx
   12f60:	48 8b 85 a8 f6 ff ff 	mov    -0x958(%rbp),%rax
   12f67:	89 08                	mov    %ecx,(%rax)
   12f69:	48 8b 85 a8 f6 ff ff 	mov    -0x958(%rbp),%rax
   12f70:	8b 00                	mov    (%rax),%eax
   12f72:	89 d6                	mov    %edx,%esi
   12f74:	89 c7                	mov    %eax,%edi
   12f76:	e8 55 5f ff ff       	callq  8ed0 <safe_sub_func_uint32_t_u_u>
   12f7b:	83 c8 fd             	or     $0xfffffffd,%eax
   12f7e:	0f b6 d0             	movzbl %al,%edx
   12f81:	0f b6 05 c2 a0 00 00 	movzbl 0xa0c2(%rip),%eax        # 1d04a <g_31+0xa>
   12f88:	0f b6 c0             	movzbl %al,%eax
   12f8b:	89 d6                	mov    %edx,%esi
   12f8d:	89 c7                	mov    %eax,%edi
   12f8f:	e8 e4 5b ff ff       	callq  8b78 <safe_sub_func_uint8_t_u_u>
   12f94:	8b 05 c6 a2 00 00    	mov    0xa2c6(%rip),%eax        # 1d260 <g_386>
   12f9a:	98                   	cwtl   
   12f9b:	89 c7                	mov    %eax,%edi
   12f9d:	e8 fb 53 ff ff       	callq  839d <safe_unary_minus_func_int16_t_s>
   12fa2:	0f b6 85 e2 f5 ff ff 	movzbl -0xa1e(%rbp),%eax
   12fa9:	48 23 85 d8 f5 ff ff 	and    -0xa28(%rbp),%rax
   12fb0:	48 89 c2             	mov    %rax,%rdx
   12fb3:	48 8b 85 c8 f6 ff ff 	mov    -0x938(%rbp),%rax
   12fba:	0f b7 00             	movzwl (%rax),%eax
   12fbd:	09 c2                	or     %eax,%edx
   12fbf:	48 8b 85 c8 f6 ff ff 	mov    -0x938(%rbp),%rax
   12fc6:	66 89 10             	mov    %dx,(%rax)
   12fc9:	48 8b 85 10 f6 ff ff 	mov    -0x9f0(%rbp),%rax
   12fd0:	48 8d 15 79 fc 00 00 	lea    0xfc79(%rip),%rdx        # 22c50 <g_22>
   12fd7:	48 89 10             	mov    %rdx,(%rax)
   12fda:	be 03 00 00 00       	mov    $0x3,%esi
   12fdf:	bf 01 00 00 00       	mov    $0x1,%edi
   12fe4:	e8 1c 5c ff ff       	callq  8c05 <safe_lshift_func_uint8_t_u_s>
   12fe9:	84 c0                	test   %al,%al
   12feb:	0f 95 c0             	setne  %al
   12fee:	0f b6 c0             	movzbl %al,%eax
   12ff1:	44 89 ee             	mov    %r13d,%esi
   12ff4:	89 c7                	mov    %eax,%edi
   12ff6:	e8 17 52 ff ff       	callq  8212 <safe_mul_func_int8_t_s_s>
   12ffb:	48 8b 85 d0 f5 ff ff 	mov    -0xa30(%rbp),%rax
   13002:	89 c2                	mov    %eax,%edx
   13004:	48 8b 85 c0 f6 ff ff 	mov    -0x940(%rbp),%rax
   1300b:	89 10                	mov    %edx,(%rax)
   1300d:	48 8b 85 c0 f6 ff ff 	mov    -0x940(%rbp),%rax
   13014:	8b 00                	mov    (%rax),%eax
   13016:	be 14 6d 7b c4       	mov    $0xc47b6d14,%esi
   1301b:	89 c7                	mov    %eax,%edi
   1301d:	e8 aa 56 ff ff       	callq  86cc <safe_mod_func_int32_t_s_s>
   13022:	89 c2                	mov    %eax,%edx
   13024:	48 8b 05 2d ed 00 00 	mov    0xed2d(%rip),%rax        # 21d58 <g_435>
   1302b:	48 8b 00             	mov    (%rax),%rax
   1302e:	48 8b 00             	mov    (%rax),%rax
   13031:	66 89 10             	mov    %dx,(%rax)
   13034:	0f b7 00             	movzwl (%rax),%eax
   13037:	0f bf d0             	movswl %ax,%edx
   1303a:	0f b6 05 00 a0 00 00 	movzbl 0xa000(%rip),%eax        # 1d041 <g_31+0x1>
   13041:	0f b6 c0             	movzbl %al,%eax
   13044:	89 d6                	mov    %edx,%esi
   13046:	89 c7                	mov    %eax,%edi
   13048:	e8 a8 53 ff ff       	callq  83f5 <safe_mul_func_int16_t_s_s>
   1304d:	8b 05 45 a2 00 00    	mov    0xa245(%rip),%eax        # 1d298 <g_473>
   13053:	0f b6 c0             	movzbl %al,%eax
   13056:	44 89 e6             	mov    %r12d,%esi
   13059:	89 c7                	mov    %eax,%edi
   1305b:	e8 7b 5b ff ff       	callq  8bdb <safe_div_func_uint8_t_u_u>
   13060:	3c 01                	cmp    $0x1,%al
   13062:	0f 97 c0             	seta   %al
   13065:	0f b6 c0             	movzbl %al,%eax
   13068:	89 de                	mov    %ebx,%esi
   1306a:	89 c7                	mov    %eax,%edi
   1306c:	e8 84 53 ff ff       	callq  83f5 <safe_mul_func_int16_t_s_s>
   13071:	48 8b 05 00 ed 00 00 	mov    0xed00(%rip),%rax        # 21d78 <g_511>
   13078:	48 8b 95 28 f6 ff ff 	mov    -0x9d8(%rbp),%rdx
   1307f:	48 89 10             	mov    %rdx,(%rax)
   13082:	8b 05 c8 fb 00 00    	mov    0xfbc8(%rip),%eax        # 22c50 <g_22>
   13088:	83 c0 01             	add    $0x1,%eax
   1308b:	89 05 bf fb 00 00    	mov    %eax,0xfbbf(%rip)        # 22c50 <g_22>
   13091:	8b 05 b9 fb 00 00    	mov    0xfbb9(%rip),%eax        # 22c50 <g_22>
   13097:	83 f8 1c             	cmp    $0x1c,%eax
   1309a:	0f 8f a9 fb ff ff    	jg     12c49 <func_107+0x72c>
   130a0:	48 8b 85 10 f6 ff ff 	mov    -0x9f0(%rbp),%rax
   130a7:	48 8b 5d c8          	mov    -0x38(%rbp),%rbx
   130ab:	64 48 33 1c 25 28 00 	xor    %fs:0x28,%rbx
   130b2:	00 00 
   130b4:	74 05                	je     130bb <func_107+0xb9e>
   130b6:	e8 b5 4f ff ff       	callq  8070 <__stack_chk_fail@plt>
   130bb:	48 81 c4 08 0a 00 00 	add    $0xa08,%rsp
   130c2:	5b                   	pop    %rbx
   130c3:	41 5c                	pop    %r12
   130c5:	41 5d                	pop    %r13
   130c7:	41 5e                	pop    %r14
   130c9:	41 5f                	pop    %r15
   130cb:	5d                   	pop    %rbp
   130cc:	c3                   	retq   

00000000000130cd <func_111>:
   130cd:	f3 0f 1e fa          	endbr64 
   130d1:	55                   	push   %rbp
   130d2:	48 89 e5             	mov    %rsp,%rbp
   130d5:	41 54                	push   %r12
   130d7:	53                   	push   %rbx
   130d8:	48 81 ec 70 06 00 00 	sub    $0x670,%rsp
   130df:	48 89 bd 98 f9 ff ff 	mov    %rdi,-0x668(%rbp)
   130e6:	89 b5 94 f9 ff ff    	mov    %esi,-0x66c(%rbp)
   130ec:	89 95 90 f9 ff ff    	mov    %edx,-0x670(%rbp)
   130f2:	89 c8                	mov    %ecx,%eax
   130f4:	66 89 85 8c f9 ff ff 	mov    %ax,-0x674(%rbp)
   130fb:	64 48 8b 04 25 28 00 	mov    %fs:0x28,%rax
   13102:	00 00 
   13104:	48 89 45 e8          	mov    %rax,-0x18(%rbp)
   13108:	31 c0                	xor    %eax,%eax
   1310a:	48 8d 05 5f 9f 00 00 	lea    0x9f5f(%rip),%rax        # 1d070 <g_40>
   13111:	48 89 85 30 fa ff ff 	mov    %rax,-0x5d0(%rbp)
   13118:	48 8d 85 30 fa ff ff 	lea    -0x5d0(%rbp),%rax
   1311f:	48 89 85 50 fa ff ff 	mov    %rax,-0x5b0(%rbp)
   13126:	48 c7 85 58 fa ff ff 	movq   $0x0,-0x5a8(%rbp)
   1312d:	00 00 00 00 
   13131:	48 8d 05 18 fb 00 00 	lea    0xfb18(%rip),%rax        # 22c50 <g_22>
   13138:	48 89 85 20 fb ff ff 	mov    %rax,-0x4e0(%rbp)
   1313f:	48 c7 85 28 fb ff ff 	movq   $0x0,-0x4d8(%rbp)
   13146:	00 00 00 00 
   1314a:	48 8d 05 ff fa 00 00 	lea    0xfaff(%rip),%rax        # 22c50 <g_22>
   13151:	48 89 85 30 fb ff ff 	mov    %rax,-0x4d0(%rbp)
   13158:	48 8d 05 f1 fa 00 00 	lea    0xfaf1(%rip),%rax        # 22c50 <g_22>
   1315f:	48 89 85 38 fb ff ff 	mov    %rax,-0x4c8(%rbp)
   13166:	48 c7 85 40 fb ff ff 	movq   $0x0,-0x4c0(%rbp)
   1316d:	00 00 00 00 
   13171:	48 8d 05 d8 fa 00 00 	lea    0xfad8(%rip),%rax        # 22c50 <g_22>
   13178:	48 89 85 48 fb ff ff 	mov    %rax,-0x4b8(%rbp)
   1317f:	48 8d 05 ca fa 00 00 	lea    0xfaca(%rip),%rax        # 22c50 <g_22>
   13186:	48 89 85 50 fb ff ff 	mov    %rax,-0x4b0(%rbp)
   1318d:	48 c7 85 58 fb ff ff 	movq   $0x0,-0x4a8(%rbp)
   13194:	00 00 00 00 
   13198:	48 8d 85 20 fb ff ff 	lea    -0x4e0(%rbp),%rax
   1319f:	48 83 c0 08          	add    $0x8,%rax
   131a3:	48 89 85 60 fa ff ff 	mov    %rax,-0x5a0(%rbp)
   131aa:	48 8d 05 99 9e 00 00 	lea    0x9e99(%rip),%rax        # 1d04a <g_31+0xa>
   131b1:	48 89 85 68 fa ff ff 	mov    %rax,-0x598(%rbp)
   131b8:	48 8d 05 b9 9e 00 00 	lea    0x9eb9(%rip),%rax        # 1d078 <g_44>
   131bf:	48 89 85 e0 fa ff ff 	mov    %rax,-0x520(%rbp)
   131c6:	48 8d 05 ab 9e 00 00 	lea    0x9eab(%rip),%rax        # 1d078 <g_44>
   131cd:	48 89 85 e8 fa ff ff 	mov    %rax,-0x518(%rbp)
   131d4:	48 8d 05 9d 9e 00 00 	lea    0x9e9d(%rip),%rax        # 1d078 <g_44>
   131db:	48 89 85 f0 fa ff ff 	mov    %rax,-0x510(%rbp)
   131e2:	48 8d 05 8f 9e 00 00 	lea    0x9e8f(%rip),%rax        # 1d078 <g_44>
   131e9:	48 89 85 f8 fa ff ff 	mov    %rax,-0x508(%rbp)
   131f0:	48 c7 85 38 fa ff ff 	movq   $0x1,-0x5c8(%rbp)
   131f7:	01 00 00 00 
   131fb:	c7 85 c8 f9 ff ff ff 	movl   $0xffffffff,-0x638(%rbp)
   13202:	ff ff ff 
   13205:	66 c7 85 aa f9 ff ff 	movw   $0x0,-0x656(%rbp)
   1320c:	00 00 
   1320e:	c6 85 a8 f9 ff ff 60 	movb   $0x60,-0x658(%rbp)
   13215:	c7 85 ac f9 ff ff 00 	movl   $0x0,-0x654(%rbp)
   1321c:	00 00 00 
   1321f:	eb 14                	jmp    13235 <func_111+0x168>
   13221:	8b 85 ac f9 ff ff    	mov    -0x654(%rbp),%eax
   13227:	48 98                	cltq   
   13229:	c6 44 05 e5 1c       	movb   $0x1c,-0x1b(%rbp,%rax,1)
   1322e:	83 85 ac f9 ff ff 01 	addl   $0x1,-0x654(%rbp)
   13235:	83 bd ac f9 ff ff 02 	cmpl   $0x2,-0x654(%rbp)
   1323c:	7e e3                	jle    13221 <func_111+0x154>
   1323e:	bf 66 6d 00 00       	mov    $0x6d66,%edi
   13243:	e8 55 51 ff ff       	callq  839d <safe_unary_minus_func_int16_t_s>
   13248:	98                   	cwtl   
   13249:	be fa ff ff ff       	mov    $0xfffffffa,%esi
   1324e:	89 c7                	mov    %eax,%edi
   13250:	e8 c1 51 ff ff       	callq  8416 <safe_mod_func_int16_t_s_s>
   13255:	48 be c9 38 52 35 81 	movabs $0x66949881355238c9,%rsi
   1325c:	98 94 66 
   1325f:	bf 01 00 00 00       	mov    $0x1,%edi
   13264:	e8 c5 5d ff ff       	callq  902e <safe_add_func_uint64_t_u_u>
   13269:	98                   	cwtl   
   1326a:	be 02 00 00 00       	mov    $0x2,%esi
   1326f:	89 c7                	mov    %eax,%edi
   13271:	e8 7f 51 ff ff       	callq  83f5 <safe_mul_func_int16_t_s_s>
   13276:	66 3d 61 0a          	cmp    $0xa61,%ax
   1327a:	0f 9f c0             	setg   %al
   1327d:	0f b6 c0             	movzbl %al,%eax
   13280:	48 c7 c6 fc ff ff ff 	mov    $0xfffffffffffffffc,%rsi
   13287:	48 89 c7             	mov    %rax,%rdi
   1328a:	e8 b2 55 ff ff       	callq  8841 <safe_add_func_int64_t_s_s>
   1328f:	89 c2                	mov    %eax,%edx
   13291:	48 8b 85 68 fa ff ff 	mov    -0x598(%rbp),%rax
   13298:	88 10                	mov    %dl,(%rax)
   1329a:	48 8b 85 68 fa ff ff 	mov    -0x598(%rbp),%rax
   132a1:	0f b6 00             	movzbl (%rax),%eax
   132a4:	0f be d0             	movsbl %al,%edx
   132a7:	48 8b 85 50 fa ff ff 	mov    -0x5b0(%rbp),%rax
   132ae:	48 8b 8d 98 f9 ff ff 	mov    -0x668(%rbp),%rcx
   132b5:	48 89 08             	mov    %rcx,(%rax)
   132b8:	48 8b 85 50 fa ff ff 	mov    -0x5b0(%rbp),%rax
   132bf:	48 8b 00             	mov    (%rax),%rax
   132c2:	48 39 85 98 f9 ff ff 	cmp    %rax,-0x668(%rbp)
   132c9:	0f 94 c0             	sete   %al
   132cc:	0f b6 c0             	movzbl %al,%eax
   132cf:	89 d6                	mov    %edx,%esi
   132d1:	89 c7                	mov    %eax,%edi
   132d3:	e8 59 4f ff ff       	callq  8231 <safe_mod_func_int8_t_s_s>
   132d8:	66 98                	cbtw   
   132da:	66 39 85 8c f9 ff ff 	cmp    %ax,-0x674(%rbp)
   132e1:	0f 9d c0             	setge  %al
   132e4:	0f b6 c0             	movzbl %al,%eax
   132e7:	48 63 d0             	movslq %eax,%rdx
   132ea:	48 8b 85 38 fa ff ff 	mov    -0x5c8(%rbp),%rax
   132f1:	48 31 d0             	xor    %rdx,%rax
   132f4:	48 89 85 38 fa ff ff 	mov    %rax,-0x5c8(%rbp)
   132fb:	66 c7 05 88 9d 00 00 	movw   $0x0,0x9d88(%rip)        # 1d08c <g_148>
   13302:	00 00 
   13304:	e9 e3 07 00 00       	jmpq   13aec <func_111+0xa1f>
   13309:	48 8d 05 14 9d 00 00 	lea    0x9d14(%rip),%rax        # 1d024 <g_8>
   13310:	48 89 85 70 fa ff ff 	mov    %rax,-0x590(%rbp)
   13317:	48 c7 85 78 fa ff ff 	movq   $0x0,-0x588(%rbp)
   1331e:	00 00 00 00 
   13322:	48 8d 05 7f e8 00 00 	lea    0xe87f(%rip),%rax        # 21ba8 <g_106+0x68>
   13329:	48 89 85 40 fa ff ff 	mov    %rax,-0x5c0(%rbp)
   13330:	48 8d 85 40 fa ff ff 	lea    -0x5c0(%rbp),%rax
   13337:	48 89 85 80 fa ff ff 	mov    %rax,-0x580(%rbp)
   1333e:	66 c7 85 60 fb ff ff 	movw   $0xceab,-0x4a0(%rbp)
   13345:	ab ce 
   13347:	66 c7 85 62 fb ff ff 	movw   $0x45c8,-0x49e(%rbp)
   1334e:	c8 45 
   13350:	66 c7 85 64 fb ff ff 	movw   $0x2f5c,-0x49c(%rbp)
   13357:	5c 2f 
   13359:	66 c7 85 66 fb ff ff 	movw   $0xfffc,-0x49a(%rbp)
   13360:	fc ff 
   13362:	66 c7 85 68 fb ff ff 	movw   $0x2f5c,-0x498(%rbp)
   13369:	5c 2f 
   1336b:	66 c7 85 6a fb ff ff 	movw   $0xfffc,-0x496(%rbp)
   13372:	fc ff 
   13374:	66 c7 85 6c fb ff ff 	movw   $0x2f5c,-0x494(%rbp)
   1337b:	5c 2f 
   1337d:	66 c7 85 6e fb ff ff 	movw   $0x45c8,-0x492(%rbp)
   13384:	c8 45 
   13386:	66 c7 85 70 fb ff ff 	movw   $0xceab,-0x490(%rbp)
   1338d:	ab ce 
   1338f:	66 c7 85 72 fb ff ff 	movw   $0xfffc,-0x48e(%rbp)
   13396:	fc ff 
   13398:	66 c7 85 74 fb ff ff 	movw   $0xfba,-0x48c(%rbp)
   1339f:	ba 0f 
   133a1:	66 c7 85 76 fb ff ff 	movw   $0xfffc,-0x48a(%rbp)
   133a8:	fc ff 
   133aa:	66 c7 85 78 fb ff ff 	movw   $0xceab,-0x488(%rbp)
   133b1:	ab ce 
   133b3:	66 c7 85 7a fb ff ff 	movw   $0x45c8,-0x486(%rbp)
   133ba:	c8 45 
   133bc:	66 c7 85 7c fb ff ff 	movw   $0x2f5c,-0x484(%rbp)
   133c3:	5c 2f 
   133c5:	66 c7 85 7e fb ff ff 	movw   $0xfffc,-0x482(%rbp)
   133cc:	fc ff 
   133ce:	66 c7 85 80 fb ff ff 	movw   $0x2f5c,-0x480(%rbp)
   133d5:	5c 2f 
   133d7:	66 c7 85 82 fb ff ff 	movw   $0xfffc,-0x47e(%rbp)
   133de:	fc ff 
   133e0:	66 c7 85 84 fb ff ff 	movw   $0x2f5c,-0x47c(%rbp)
   133e7:	5c 2f 
   133e9:	66 c7 85 86 fb ff ff 	movw   $0x45c8,-0x47a(%rbp)
   133f0:	c8 45 
   133f2:	66 c7 85 88 fb ff ff 	movw   $0xceab,-0x478(%rbp)
   133f9:	ab ce 
   133fb:	66 c7 85 8a fb ff ff 	movw   $0xfffc,-0x476(%rbp)
   13402:	fc ff 
   13404:	66 c7 85 8c fb ff ff 	movw   $0xfba,-0x474(%rbp)
   1340b:	ba 0f 
   1340d:	66 c7 85 8e fb ff ff 	movw   $0xfffc,-0x472(%rbp)
   13414:	fc ff 
   13416:	66 c7 85 90 fb ff ff 	movw   $0xceab,-0x470(%rbp)
   1341d:	ab ce 
   1341f:	66 c7 85 92 fb ff ff 	movw   $0x45c8,-0x46e(%rbp)
   13426:	c8 45 
   13428:	66 c7 85 94 fb ff ff 	movw   $0x2f5c,-0x46c(%rbp)
   1342f:	5c 2f 
   13431:	66 c7 85 96 fb ff ff 	movw   $0xfffc,-0x46a(%rbp)
   13438:	fc ff 
   1343a:	66 c7 85 98 fb ff ff 	movw   $0x2f5c,-0x468(%rbp)
   13441:	5c 2f 
   13443:	66 c7 85 9a fb ff ff 	movw   $0xfffc,-0x466(%rbp)
   1344a:	fc ff 
   1344c:	66 c7 85 9c fb ff ff 	movw   $0x2f5c,-0x464(%rbp)
   13453:	5c 2f 
   13455:	66 c7 85 9e fb ff ff 	movw   $0x45c8,-0x462(%rbp)
   1345c:	c8 45 
   1345e:	c7 85 b0 f9 ff ff 00 	movl   $0x0,-0x650(%rbp)
   13465:	00 00 00 
   13468:	eb 1a                	jmp    13484 <func_111+0x3b7>
   1346a:	8b 85 b0 f9 ff ff    	mov    -0x650(%rbp),%eax
   13470:	48 98                	cltq   
   13472:	c7 84 85 a0 fa ff ff 	movl   $0xf6d7aaf5,-0x560(%rbp,%rax,4)
   13479:	f5 aa d7 f6 
   1347d:	83 85 b0 f9 ff ff 01 	addl   $0x1,-0x650(%rbp)
   13484:	83 bd b0 f9 ff ff 00 	cmpl   $0x0,-0x650(%rbp)
   1348b:	7e dd                	jle    1346a <func_111+0x39d>
   1348d:	c7 85 b0 f9 ff ff 00 	movl   $0x0,-0x650(%rbp)
   13494:	00 00 00 
   13497:	eb 1a                	jmp    134b3 <func_111+0x3e6>
   13499:	8b 85 b0 f9 ff ff    	mov    -0x650(%rbp),%eax
   1349f:	48 98                	cltq   
   134a1:	c7 84 85 a4 fa ff ff 	movl   $0xe3233a39,-0x55c(%rbp,%rax,4)
   134a8:	39 3a 23 e3 
   134ac:	83 85 b0 f9 ff ff 01 	addl   $0x1,-0x650(%rbp)
   134b3:	83 bd b0 f9 ff ff 00 	cmpl   $0x0,-0x650(%rbp)
   134ba:	7e dd                	jle    13499 <func_111+0x3cc>
   134bc:	c7 85 b0 f9 ff ff 00 	movl   $0x0,-0x650(%rbp)
   134c3:	00 00 00 
   134c6:	eb 1e                	jmp    134e6 <func_111+0x419>
   134c8:	8b 85 b0 f9 ff ff    	mov    -0x650(%rbp),%eax
   134ce:	48 98                	cltq   
   134d0:	48 8d 95 38 fa ff ff 	lea    -0x5c8(%rbp),%rdx
   134d7:	48 89 94 c5 a8 fa ff 	mov    %rdx,-0x558(%rbp,%rax,8)
   134de:	ff 
   134df:	83 85 b0 f9 ff ff 01 	addl   $0x1,-0x650(%rbp)
   134e6:	83 bd b0 f9 ff ff 00 	cmpl   $0x0,-0x650(%rbp)
   134ed:	7e d9                	jle    134c8 <func_111+0x3fb>
   134ef:	48 8b 85 98 f9 ff ff 	mov    -0x668(%rbp),%rax
   134f6:	48 8b 18             	mov    (%rax),%rbx
   134f9:	48 8b 05 e0 e6 00 00 	mov    0xe6e0(%rip),%rax        # 21be0 <g_105>
   13500:	48 8b 10             	mov    (%rax),%rdx
   13503:	48 8b 85 60 fa ff ff 	mov    -0x5a0(%rbp),%rax
   1350a:	48 8b 00             	mov    (%rax),%rax
   1350d:	48 39 c2             	cmp    %rax,%rdx
   13510:	0f 95 c0             	setne  %al
   13513:	0f b6 d0             	movzbl %al,%edx
   13516:	48 8b 85 70 fa ff ff 	mov    -0x590(%rbp),%rax
   1351d:	66 89 10             	mov    %dx,(%rax)
   13520:	48 8b 85 70 fa ff ff 	mov    -0x590(%rbp),%rax
   13527:	0f b7 00             	movzwl (%rax),%eax
   1352a:	66 85 c0             	test   %ax,%ax
   1352d:	0f 84 8e 00 00 00    	je     135c1 <func_111+0x4f4>
   13533:	48 8b 85 70 fa ff ff 	mov    -0x590(%rbp),%rax
   1353a:	66 c7 00 ec 51       	movw   $0x51ec,(%rax)
   1353f:	0f b6 45 e6          	movzbl -0x1a(%rbp),%eax
   13543:	44 0f b6 e0          	movzbl %al,%r12d
   13547:	48 8b 05 92 e6 00 00 	mov    0xe692(%rip),%rax        # 21be0 <g_105>
   1354e:	48 8b 10             	mov    (%rax),%rdx
   13551:	48 8d 85 a0 fa ff ff 	lea    -0x560(%rbp),%rax
   13558:	48 39 c2             	cmp    %rax,%rdx
   1355b:	0f 94 c0             	sete   %al
   1355e:	0f b6 c0             	movzbl %al,%eax
   13561:	be 01 00 00 00       	mov    $0x1,%esi
   13566:	89 c7                	mov    %eax,%edi
   13568:	e8 c4 4c ff ff       	callq  8231 <safe_mod_func_int8_t_s_s>
   1356d:	0f be c0             	movsbl %al,%eax
   13570:	41 39 c4             	cmp    %eax,%r12d
   13573:	66 81 bd 8c f9 ff ff 	cmpw   $0x51ec,-0x674(%rbp)
   1357a:	ec 51 
   1357c:	be ff 00 00 00       	mov    $0xff,%esi
   13581:	bf a1 00 00 00       	mov    $0xa1,%edi
   13586:	e8 08 56 ff ff       	callq  8b93 <safe_mul_func_uint8_t_u_u>
   1358b:	8b 85 90 f9 ff ff    	mov    -0x670(%rbp),%eax
   13591:	0f be c0             	movsbl %al,%eax
   13594:	be 05 00 00 00       	mov    $0x5,%esi
   13599:	89 c7                	mov    %eax,%edi
   1359b:	e8 4e 4d ff ff       	callq  82ee <safe_lshift_func_int8_t_s_u>
   135a0:	66 83 bd 8c f9 ff ff 	cmpw   $0x0,-0x674(%rbp)
   135a7:	00 
   135a8:	7f 07                	jg     135b1 <func_111+0x4e4>
   135aa:	b8 01 00 00 00       	mov    $0x1,%eax
   135af:	eb 05                	jmp    135b6 <func_111+0x4e9>
   135b1:	b8 00 00 00 00       	mov    $0x0,%eax
   135b6:	84 c0                	test   %al,%al
   135b8:	74 07                	je     135c1 <func_111+0x4f4>
   135ba:	b8 01 00 00 00       	mov    $0x1,%eax
   135bf:	eb 05                	jmp    135c6 <func_111+0x4f9>
   135c1:	b8 00 00 00 00       	mov    $0x0,%eax
   135c6:	0f be c0             	movsbl %al,%eax
   135c9:	be 08 00 00 00       	mov    $0x8,%esi
   135ce:	89 c7                	mov    %eax,%edi
   135d0:	e8 3d 4c ff ff       	callq  8212 <safe_mul_func_int8_t_s_s>
   135d5:	48 89 de             	mov    %rbx,%rsi
   135d8:	48 bf c6 01 82 7f 87 	movabs $0x1a5239877f8201c6,%rdi
   135df:	39 52 1a 
   135e2:	e8 64 5a ff ff       	callq  904b <safe_sub_func_uint64_t_u_u>
   135e7:	48 85 c0             	test   %rax,%rax
   135ea:	0f 84 0f 01 00 00    	je     136ff <func_111+0x632>
   135f0:	c7 85 d0 f9 ff ff fc 	movl   $0xfffffffc,-0x630(%rbp)
   135f7:	ff ff ff 
   135fa:	c7 85 d4 f9 ff ff fa 	movl   $0xfffffffa,-0x62c(%rbp)
   13601:	ff ff ff 
   13604:	c7 85 d8 f9 ff ff 1d 	movl   $0x76ed3a1d,-0x628(%rbp)
   1360b:	3a ed 76 
   1360e:	c7 85 dc f9 ff ff dd 	movl   $0xab7dfdd,-0x624(%rbp)
   13615:	df b7 0a 
   13618:	c7 85 e0 f9 ff ff 04 	movl   $0x4,-0x620(%rbp)
   1361f:	00 00 00 
   13622:	c7 85 e4 f9 ff ff 86 	movl   $0x8903686,-0x61c(%rbp)
   13629:	36 90 08 
   1362c:	c7 85 e8 f9 ff ff 03 	movl   $0x3,-0x618(%rbp)
   13633:	00 00 00 
   13636:	c7 85 ec f9 ff ff 07 	movl   $0x7,-0x614(%rbp)
   1363d:	00 00 00 
   13640:	c7 85 a0 fb ff ff f8 	movl   $0xfffffff8,-0x460(%rbp)
   13647:	ff ff ff 
   1364a:	c7 85 a4 fb ff ff f8 	movl   $0xfffffff8,-0x45c(%rbp)
   13651:	ff ff ff 
   13654:	c7 85 a8 fb ff ff 29 	movl   $0x99e99429,-0x458(%rbp)
   1365b:	94 e9 99 
   1365e:	c7 85 ac fb ff ff f8 	movl   $0xfffffff8,-0x454(%rbp)
   13665:	ff ff ff 
   13668:	c7 85 b0 fb ff ff f8 	movl   $0xfffffff8,-0x450(%rbp)
   1366f:	ff ff ff 
   13672:	c7 85 b4 fb ff ff 29 	movl   $0x99e99429,-0x44c(%rbp)
   13679:	94 e9 99 
   1367c:	c7 85 b8 fb ff ff f8 	movl   $0xfffffff8,-0x448(%rbp)
   13683:	ff ff ff 
   13686:	c7 85 b4 f9 ff ff 00 	movl   $0x0,-0x64c(%rbp)
   1368d:	00 00 00 
   13690:	eb 46                	jmp    136d8 <func_111+0x60b>
   13692:	c7 85 b8 f9 ff ff 00 	movl   $0x0,-0x648(%rbp)
   13699:	00 00 00 
   1369c:	eb 2a                	jmp    136c8 <func_111+0x5fb>
   1369e:	8b 85 b8 f9 ff ff    	mov    -0x648(%rbp),%eax
   136a4:	48 98                	cltq   
   136a6:	8b 95 b4 f9 ff ff    	mov    -0x64c(%rbp),%edx
   136ac:	48 63 d2             	movslq %edx,%rdx
   136af:	48 c1 e2 03          	shl    $0x3,%rdx
   136b3:	48 01 d0             	add    %rdx,%rax
   136b6:	c7 84 85 f0 fb ff ff 	movl   $0xf68449cd,-0x410(%rbp,%rax,4)
   136bd:	cd 49 84 f6 
   136c1:	83 85 b8 f9 ff ff 01 	addl   $0x1,-0x648(%rbp)
   136c8:	83 bd b8 f9 ff ff 07 	cmpl   $0x7,-0x648(%rbp)
   136cf:	7e cd                	jle    1369e <func_111+0x5d1>
   136d1:	83 85 b4 f9 ff ff 01 	addl   $0x1,-0x64c(%rbp)
   136d8:	83 bd b4 f9 ff ff 04 	cmpl   $0x4,-0x64c(%rbp)
   136df:	7e b1                	jle    13692 <func_111+0x5c5>
   136e1:	8b 85 a4 fa ff ff    	mov    -0x55c(%rbp),%eax
   136e7:	83 c0 01             	add    $0x1,%eax
   136ea:	89 85 a4 fa ff ff    	mov    %eax,-0x55c(%rbp)
   136f0:	c7 85 94 f9 ff ff 00 	movl   $0x0,-0x66c(%rbp)
   136f7:	00 00 00 
   136fa:	e9 cc 03 00 00       	jmpq   13acb <func_111+0x9fe>
   136ff:	c7 85 cc f9 ff ff fa 	movl   $0xfffffffa,-0x634(%rbp)
   13706:	ff ff ff 
   13709:	8b 85 cc f9 ff ff    	mov    -0x634(%rbp),%eax
   1370f:	e9 ee 03 00 00       	jmpq   13b02 <func_111+0xa35>
   13714:	c7 85 f0 f9 ff ff ad 	movl   $0x9957daad,-0x610(%rbp)
   1371b:	da 57 99 
   1371e:	c7 85 f4 f9 ff ff 01 	movl   $0x1,-0x60c(%rbp)
   13725:	00 00 00 
   13728:	c7 85 f8 f9 ff ff 00 	movl   $0x0,-0x608(%rbp)
   1372f:	00 00 00 
   13732:	c7 85 fc f9 ff ff ec 	movl   $0xd4112dec,-0x604(%rbp)
   13739:	2d 11 d4 
   1373c:	c7 85 00 fa ff ff 00 	movl   $0x0,-0x600(%rbp)
   13743:	00 00 00 
   13746:	c7 85 04 fa ff ff de 	movl   $0x4a671ede,-0x5fc(%rbp)
   1374d:	1e 67 4a 
   13750:	c7 85 08 fa ff ff 02 	movl   $0x2,-0x5f8(%rbp)
   13757:	00 00 00 
   1375a:	c7 85 0c fa ff ff ff 	movl   $0xffffffff,-0x5f4(%rbp)
   13761:	ff ff ff 
   13764:	48 c7 85 88 fa ff ff 	movq   $0x0,-0x578(%rbp)
   1376b:	00 00 00 00 
   1376f:	48 8d 85 20 fb ff ff 	lea    -0x4e0(%rbp),%rax
   13776:	48 83 c0 20          	add    $0x20,%rax
   1377a:	48 89 85 90 fa ff ff 	mov    %rax,-0x570(%rbp)
   13781:	c7 85 c0 fa ff ff 00 	movl   $0x0,-0x540(%rbp)
   13788:	00 00 00 
   1378b:	c7 85 c4 fa ff ff f6 	movl   $0x43fec4f6,-0x53c(%rbp)
   13792:	c4 fe 43 
   13795:	c7 85 c8 fa ff ff f6 	movl   $0x43fec4f6,-0x538(%rbp)
   1379c:	c4 fe 43 
   1379f:	c7 85 cc fa ff ff 00 	movl   $0x0,-0x534(%rbp)
   137a6:	00 00 00 
   137a9:	c7 85 d0 fa ff ff f6 	movl   $0x43fec4f6,-0x530(%rbp)
   137b0:	c4 fe 43 
   137b3:	c7 85 d4 fa ff ff f6 	movl   $0x43fec4f6,-0x52c(%rbp)
   137ba:	c4 fe 43 
   137bd:	c7 85 00 fb ff ff 01 	movl   $0x1,-0x500(%rbp)
   137c4:	00 00 00 
   137c7:	c7 85 04 fb ff ff 09 	movl   $0x9,-0x4fc(%rbp)
   137ce:	00 00 00 
   137d1:	c7 85 08 fb ff ff 01 	movl   $0x1,-0x4f8(%rbp)
   137d8:	00 00 00 
   137db:	c7 85 0c fb ff ff 09 	movl   $0x9,-0x4f4(%rbp)
   137e2:	00 00 00 
   137e5:	c7 85 10 fb ff ff 01 	movl   $0x1,-0x4f0(%rbp)
   137ec:	00 00 00 
   137ef:	c7 85 14 fb ff ff 09 	movl   $0x9,-0x4ec(%rbp)
   137f6:	00 00 00 
   137f9:	c7 85 18 fb ff ff 01 	movl   $0x1,-0x4e8(%rbp)
   13800:	00 00 00 
   13803:	c7 85 1c fb ff ff 09 	movl   $0x9,-0x4e4(%rbp)
   1380a:	00 00 00 
   1380d:	c7 85 10 fa ff ff 02 	movl   $0x2,-0x5f0(%rbp)
   13814:	00 00 00 
   13817:	48 8d 85 38 fa ff ff 	lea    -0x5c8(%rbp),%rax
   1381e:	48 89 85 98 fa ff ff 	mov    %rax,-0x568(%rbp)
   13825:	c7 85 bc f9 ff ff 00 	movl   $0x0,-0x644(%rbp)
   1382c:	00 00 00 
   1382f:	eb 14                	jmp    13845 <func_111+0x778>
   13831:	8b 85 bc f9 ff ff    	mov    -0x644(%rbp),%eax
   13837:	48 98                	cltq   
   13839:	c6 44 05 e1 08       	movb   $0x8,-0x1f(%rbp,%rax,1)
   1383e:	83 85 bc f9 ff ff 01 	addl   $0x1,-0x644(%rbp)
   13845:	83 bd bc f9 ff ff 01 	cmpl   $0x1,-0x644(%rbp)
   1384c:	7e e3                	jle    13831 <func_111+0x764>
   1384e:	c7 85 bc f9 ff ff 00 	movl   $0x0,-0x644(%rbp)
   13855:	00 00 00 
   13858:	eb 4d                	jmp    138a7 <func_111+0x7da>
   1385a:	c7 85 c0 f9 ff ff 00 	movl   $0x0,-0x640(%rbp)
   13861:	00 00 00 
   13864:	eb 31                	jmp    13897 <func_111+0x7ca>
   13866:	8b 85 c0 f9 ff ff    	mov    -0x640(%rbp),%eax
   1386c:	48 63 c8             	movslq %eax,%rcx
   1386f:	8b 85 bc f9 ff ff    	mov    -0x644(%rbp),%eax
   13875:	48 63 d0             	movslq %eax,%rdx
   13878:	48 89 d0             	mov    %rdx,%rax
   1387b:	48 01 c0             	add    %rax,%rax
   1387e:	48 01 d0             	add    %rdx,%rax
   13881:	48 01 c8             	add    %rcx,%rax
   13884:	48 c7 84 c5 a0 fb ff 	movq   $0x0,-0x460(%rbp,%rax,8)
   1388b:	ff 00 00 00 00 
   13890:	83 85 c0 f9 ff ff 01 	addl   $0x1,-0x640(%rbp)
   13897:	83 bd c0 f9 ff ff 02 	cmpl   $0x2,-0x640(%rbp)
   1389e:	7e c6                	jle    13866 <func_111+0x799>
   138a0:	83 85 bc f9 ff ff 01 	addl   $0x1,-0x644(%rbp)
   138a7:	83 bd bc f9 ff ff 02 	cmpl   $0x2,-0x644(%rbp)
   138ae:	7e aa                	jle    1385a <func_111+0x78d>
   138b0:	48 c7 05 b5 97 00 00 	movq   $0x0,0x97b5(%rip)        # 1d070 <g_40>
   138b7:	00 00 00 00 
   138bb:	90                   	nop
   138bc:	48 8b 05 ad 97 00 00 	mov    0x97ad(%rip),%rax        # 1d070 <g_40>
   138c3:	48 85 c0             	test   %rax,%rax
   138c6:	0f 88 ef 01 00 00    	js     13abb <func_111+0x9ee>
   138cc:	c6 85 a9 f9 ff ff 32 	movb   $0x32,-0x657(%rbp)
   138d3:	c7 85 14 fa ff ff fa 	movl   $0x77cd82fa,-0x5ec(%rbp)
   138da:	82 cd 77 
   138dd:	c7 85 18 fa ff ff 01 	movl   $0x1,-0x5e8(%rbp)
   138e4:	00 00 00 
   138e7:	c7 85 1c fa ff ff fd 	movl   $0xfffffffd,-0x5e4(%rbp)
   138ee:	ff ff ff 
   138f1:	c7 85 20 fa ff ff 02 	movl   $0x2,-0x5e0(%rbp)
   138f8:	00 00 00 
   138fb:	c7 85 24 fa ff ff 25 	movl   $0xf0176f25,-0x5dc(%rbp)
   13902:	6f 17 f0 
   13905:	c7 85 28 fa ff ff cc 	movl   $0xd36743cc,-0x5d8(%rbp)
   1390c:	43 67 d3 
   1390f:	c7 85 2c fa ff ff 00 	movl   $0x0,-0x5d4(%rbp)
   13916:	00 00 00 
   13919:	48 8d 85 f0 fb ff ff 	lea    -0x410(%rbp),%rax
   13920:	48 8d 15 b9 5a 00 00 	lea    0x5ab9(%rip),%rdx        # 193e0 <g_1750+0x1340>
   13927:	b9 7e 00 00 00       	mov    $0x7e,%ecx
   1392c:	48 89 c7             	mov    %rax,%rdi
   1392f:	48 89 d6             	mov    %rdx,%rsi
   13932:	f3 48 a5             	rep movsq %ds:(%rsi),%es:(%rdi)
   13935:	48 c7 05 e8 96 00 00 	movq   $0x0,0x96e8(%rip)        # 1d028 <g_10>
   1393c:	00 00 00 00 
   13940:	e9 4d 01 00 00       	jmpq   13a92 <func_111+0x9c5>
   13945:	0f b7 05 40 97 00 00 	movzwl 0x9740(%rip),%eax        # 1d08c <g_148>
   1394c:	0f b7 c0             	movzwl %ax,%eax
   1394f:	8d 48 03             	lea    0x3(%rax),%ecx
   13952:	0f b7 05 33 97 00 00 	movzwl 0x9733(%rip),%eax        # 1d08c <g_148>
   13959:	0f b7 c0             	movzwl %ax,%eax
   1395c:	0f b7 15 29 97 00 00 	movzwl 0x9729(%rip),%edx        # 1d08c <g_148>
   13963:	0f b7 d2             	movzwl %dx,%edx
   13966:	48 63 d2             	movslq %edx,%rdx
   13969:	48 98                	cltq   
   1396b:	48 01 c2             	add    %rax,%rdx
   1396e:	48 89 d0             	mov    %rdx,%rax
   13971:	48 01 c0             	add    %rax,%rax
   13974:	48 01 d0             	add    %rdx,%rax
   13977:	48 c1 e0 02          	shl    $0x2,%rax
   1397b:	48 01 d0             	add    %rdx,%rax
   1397e:	48 01 c0             	add    %rax,%rax
   13981:	48 63 d1             	movslq %ecx,%rdx
   13984:	48 6b d2 4e          	imul   $0x4e,%rdx,%rdx
   13988:	48 01 c2             	add    %rax,%rdx
   1398b:	48 8d 05 2e 97 00 00 	lea    0x972e(%rip),%rax        # 1d0c0 <g_162>
   13992:	48 01 d0             	add    %rdx,%rax
   13995:	48 89 85 48 fa ff ff 	mov    %rax,-0x5b8(%rbp)
   1399c:	c7 85 c4 f9 ff ff 00 	movl   $0x0,-0x63c(%rbp)
   139a3:	00 00 00 
   139a6:	eb 1e                	jmp    139c6 <func_111+0x8f9>
   139a8:	8b 85 c4 f9 ff ff    	mov    -0x63c(%rbp),%eax
   139ae:	48 98                	cltq   
   139b0:	48 8d 95 48 fa ff ff 	lea    -0x5b8(%rbp),%rdx
   139b7:	48 89 94 c5 b0 fa ff 	mov    %rdx,-0x550(%rbp,%rax,8)
   139be:	ff 
   139bf:	83 85 c4 f9 ff ff 01 	addl   $0x1,-0x63c(%rbp)
   139c6:	83 bd c4 f9 ff ff 01 	cmpl   $0x1,-0x63c(%rbp)
   139cd:	7e d9                	jle    139a8 <func_111+0x8db>
   139cf:	c7 85 c4 f9 ff ff 00 	movl   $0x0,-0x63c(%rbp)
   139d6:	00 00 00 
   139d9:	eb 14                	jmp    139ef <func_111+0x922>
   139db:	8b 85 c4 f9 ff ff    	mov    -0x63c(%rbp),%eax
   139e1:	48 98                	cltq   
   139e3:	c6 44 05 e3 ff       	movb   $0xff,-0x1d(%rbp,%rax,1)
   139e8:	83 85 c4 f9 ff ff 01 	addl   $0x1,-0x63c(%rbp)
   139ef:	83 bd c4 f9 ff ff 01 	cmpl   $0x1,-0x63c(%rbp)
   139f6:	7e e3                	jle    139db <func_111+0x90e>
   139f8:	0f b7 05 8d 96 00 00 	movzwl 0x968d(%rip),%eax        # 1d08c <g_148>
   139ff:	0f b7 c0             	movzwl %ax,%eax
   13a02:	8d 48 03             	lea    0x3(%rax),%ecx
   13a05:	0f b7 05 80 96 00 00 	movzwl 0x9680(%rip),%eax        # 1d08c <g_148>
   13a0c:	0f b7 c0             	movzwl %ax,%eax
   13a0f:	0f b7 15 76 96 00 00 	movzwl 0x9676(%rip),%edx        # 1d08c <g_148>
   13a16:	0f b7 d2             	movzwl %dx,%edx
   13a19:	48 63 d2             	movslq %edx,%rdx
   13a1c:	48 98                	cltq   
   13a1e:	48 01 c2             	add    %rax,%rdx
   13a21:	48 89 d0             	mov    %rdx,%rax
   13a24:	48 01 c0             	add    %rax,%rax
   13a27:	48 01 d0             	add    %rdx,%rax
   13a2a:	48 c1 e0 02          	shl    $0x2,%rax
   13a2e:	48 01 d0             	add    %rdx,%rax
   13a31:	48 01 c0             	add    %rax,%rax
   13a34:	48 63 d1             	movslq %ecx,%rdx
   13a37:	48 6b d2 4e          	imul   $0x4e,%rdx,%rdx
   13a3b:	48 01 c2             	add    %rax,%rdx
   13a3e:	48 8d 05 7b 96 00 00 	lea    0x967b(%rip),%rax        # 1d0c0 <g_162>
   13a45:	48 01 d0             	add    %rdx,%rax
   13a48:	48 89 85 78 fa ff ff 	mov    %rax,-0x588(%rbp)
   13a4f:	48 8b 85 30 fa ff ff 	mov    -0x5d0(%rbp),%rax
   13a56:	48 85 c0             	test   %rax,%rax
   13a59:	0f 95 c0             	setne  %al
   13a5c:	0f b6 d8             	movzbl %al,%ebx
   13a5f:	0f b6 45 e4          	movzbl -0x1c(%rbp),%eax
   13a63:	0f b6 c0             	movzbl %al,%eax
   13a66:	be 00 00 00 00       	mov    $0x0,%esi
   13a6b:	89 c7                	mov    %eax,%edi
   13a6d:	e8 4c 52 ff ff       	callq  8cbe <safe_rshift_func_uint8_t_u_u>
   13a72:	0f b6 c0             	movzbl %al,%eax
   13a75:	39 c3                	cmp    %eax,%ebx
   13a77:	0f 9f c0             	setg   %al
   13a7a:	88 85 a9 f9 ff ff    	mov    %al,-0x657(%rbp)
   13a80:	48 8b 05 a1 95 00 00 	mov    0x95a1(%rip),%rax        # 1d028 <g_10>
   13a87:	48 83 c0 01          	add    $0x1,%rax
   13a8b:	48 89 05 96 95 00 00 	mov    %rax,0x9596(%rip)        # 1d028 <g_10>
   13a92:	48 8b 05 8f 95 00 00 	mov    0x958f(%rip),%rax        # 1d028 <g_10>
   13a99:	48 85 c0             	test   %rax,%rax
   13a9c:	0f 84 a3 fe ff ff    	je     13945 <func_111+0x878>
   13aa2:	0f b7 85 aa f9 ff ff 	movzwl -0x656(%rbp),%eax
   13aa9:	83 e8 01             	sub    $0x1,%eax
   13aac:	66 89 85 aa f9 ff ff 	mov    %ax,-0x656(%rbp)
   13ab3:	8b 85 a0 fa ff ff    	mov    -0x560(%rbp),%eax
   13ab9:	eb 47                	jmp    13b02 <func_111+0xa35>
   13abb:	83 bd 94 f9 ff ff 00 	cmpl   $0x0,-0x66c(%rbp)
   13ac2:	75 16                	jne    13ada <func_111+0xa0d>
   13ac4:	83 85 94 f9 ff ff 01 	addl   $0x1,-0x66c(%rbp)
   13acb:	83 bd 94 f9 ff ff 00 	cmpl   $0x0,-0x66c(%rbp)
   13ad2:	0f 8e 3c fc ff ff    	jle    13714 <func_111+0x647>
   13ad8:	eb 01                	jmp    13adb <func_111+0xa0e>
   13ada:	90                   	nop
   13adb:	0f b7 05 aa 95 00 00 	movzwl 0x95aa(%rip),%eax        # 1d08c <g_148>
   13ae2:	83 c0 01             	add    $0x1,%eax
   13ae5:	66 89 05 a0 95 00 00 	mov    %ax,0x95a0(%rip)        # 1d08c <g_148>
   13aec:	0f b7 05 99 95 00 00 	movzwl 0x9599(%rip),%eax        # 1d08c <g_148>
   13af3:	66 85 c0             	test   %ax,%ax
   13af6:	0f 84 0d f8 ff ff    	je     13309 <func_111+0x23c>
   13afc:	8b 85 94 f9 ff ff    	mov    -0x66c(%rbp),%eax
   13b02:	48 8b 5d e8          	mov    -0x18(%rbp),%rbx
   13b06:	64 48 33 1c 25 28 00 	xor    %fs:0x28,%rbx
   13b0d:	00 00 
   13b0f:	74 05                	je     13b16 <func_111+0xa49>
   13b11:	e8 5a 45 ff ff       	callq  8070 <__stack_chk_fail@plt>
   13b16:	48 81 c4 70 06 00 00 	add    $0x670,%rsp
   13b1d:	5b                   	pop    %rbx
   13b1e:	41 5c                	pop    %r12
   13b20:	5d                   	pop    %rbp
   13b21:	c3                   	retq   

0000000000013b22 <func_123>:
   13b22:	f3 0f 1e fa          	endbr64 
   13b26:	55                   	push   %rbp
   13b27:	48 89 e5             	mov    %rsp,%rbp
   13b2a:	41 55                	push   %r13
   13b2c:	41 54                	push   %r12
   13b2e:	53                   	push   %rbx
   13b2f:	48 83 ec 40          	sub    $0x40,%rsp
   13b33:	48 89 7d c0          	mov    %rdi,-0x40(%rbp)
   13b37:	48 89 75 b8          	mov    %rsi,-0x48(%rbp)
   13b3b:	89 55 b4             	mov    %edx,-0x4c(%rbp)
   13b3e:	48 89 4d a8          	mov    %rcx,-0x58(%rbp)
   13b42:	c7 45 d4 a8 4a f4 e9 	movl   $0xe9f44aa8,-0x2c(%rbp)
   13b49:	48 8d 05 20 95 00 00 	lea    0x9520(%rip),%rax        # 1d070 <g_40>
   13b50:	48 89 45 d8          	mov    %rax,-0x28(%rbp)
   13b54:	8b 45 d4             	mov    -0x2c(%rbp),%eax
   13b57:	48 98                	cltq   
   13b59:	be 04 00 00 00       	mov    $0x4,%esi
   13b5e:	48 89 c7             	mov    %rax,%rdi
   13b61:	e8 e5 54 ff ff       	callq  904b <safe_sub_func_uint64_t_u_u>
   13b66:	41 89 c5             	mov    %eax,%r13d
   13b69:	8b 05 11 95 00 00    	mov    0x9511(%rip),%eax        # 1d080 <g_55>
   13b6f:	41 89 c4             	mov    %eax,%r12d
   13b72:	8b 5d b4             	mov    -0x4c(%rbp),%ebx
   13b75:	8b 45 d4             	mov    -0x2c(%rbp),%eax
   13b78:	98                   	cwtl   
   13b79:	89 c7                	mov    %eax,%edi
   13b7b:	e8 1d 48 ff ff       	callq  839d <safe_unary_minus_func_int16_t_s>
   13b80:	48 0f bf d0          	movswq %ax,%rdx
   13b84:	48 8b 45 b8          	mov    -0x48(%rbp),%rax
   13b88:	48 8b 00             	mov    (%rax),%rax
   13b8b:	48 39 c2             	cmp    %rax,%rdx
   13b8e:	0f 95 c0             	setne  %al
   13b91:	0f b6 d0             	movzbl %al,%edx
   13b94:	8b 45 b4             	mov    -0x4c(%rbp),%eax
   13b97:	0f b6 c0             	movzbl %al,%eax
   13b9a:	89 d6                	mov    %edx,%esi
   13b9c:	89 c7                	mov    %eax,%edi
   13b9e:	e8 f0 4f ff ff       	callq  8b93 <safe_mul_func_uint8_t_u_u>
   13ba3:	0f b6 d0             	movzbl %al,%edx
   13ba6:	48 8b 45 d8          	mov    -0x28(%rbp),%rax
   13baa:	48 89 10             	mov    %rdx,(%rax)
   13bad:	8b 05 cd 94 00 00    	mov    0x94cd(%rip),%eax        # 1d080 <g_55>
   13bb3:	83 7d b4 00          	cmpl   $0x0,-0x4c(%rbp)
   13bb7:	75 07                	jne    13bc0 <func_123+0x9e>
   13bb9:	b8 01 00 00 00       	mov    $0x1,%eax
   13bbe:	eb 05                	jmp    13bc5 <func_123+0xa3>
   13bc0:	b8 00 00 00 00       	mov    $0x0,%eax
   13bc5:	0f be c0             	movsbl %al,%eax
   13bc8:	89 c7                	mov    %eax,%edi
   13bca:	e8 f0 45 ff ff       	callq  81bf <safe_unary_minus_func_int8_t_s>
   13bcf:	48 0f be c0          	movsbq %al,%rax
   13bd3:	48 89 de             	mov    %rbx,%rsi
   13bd6:	48 89 c7             	mov    %rax,%rdi
   13bd9:	e8 6d 54 ff ff       	callq  904b <safe_sub_func_uint64_t_u_u>
   13bde:	48 83 f8 ff          	cmp    $0xffffffffffffffff,%rax
   13be2:	0f 94 c0             	sete   %al
   13be5:	0f b6 c0             	movzbl %al,%eax
   13be8:	89 c2                	mov    %eax,%edx
   13bea:	0f b7 05 9b 94 00 00 	movzwl 0x949b(%rip),%eax        # 1d08c <g_148>
   13bf1:	31 d0                	xor    %edx,%eax
   13bf3:	66 89 05 92 94 00 00 	mov    %ax,0x9492(%rip)        # 1d08c <g_148>
   13bfa:	0f b7 05 8b 94 00 00 	movzwl 0x948b(%rip),%eax        # 1d08c <g_148>
   13c01:	0f b7 c0             	movzwl %ax,%eax
   13c04:	44 89 e6             	mov    %r12d,%esi
   13c07:	89 c7                	mov    %eax,%edi
   13c09:	e8 c2 52 ff ff       	callq  8ed0 <safe_sub_func_uint32_t_u_u>
   13c0e:	89 c2                	mov    %eax,%edx
   13c10:	8b 45 b4             	mov    -0x4c(%rbp),%eax
   13c13:	89 c6                	mov    %eax,%esi
   13c15:	89 d7                	mov    %edx,%edi
   13c17:	e8 b4 52 ff ff       	callq  8ed0 <safe_sub_func_uint32_t_u_u>
   13c1c:	33 45 b4             	xor    -0x4c(%rbp),%eax
   13c1f:	44 31 e8             	xor    %r13d,%eax
   13c22:	89 c3                	mov    %eax,%ebx
   13c24:	8b 05 26 f0 00 00    	mov    0xf026(%rip),%eax        # 22c50 <g_22>
   13c2a:	0f be c0             	movsbl %al,%eax
   13c2d:	89 c6                	mov    %eax,%esi
   13c2f:	bf a1 ff ff ff       	mov    $0xffffffa1,%edi
   13c34:	e8 d9 45 ff ff       	callq  8212 <safe_mul_func_int8_t_s_s>
   13c39:	0f be c0             	movsbl %al,%eax
   13c3c:	89 de                	mov    %ebx,%esi
   13c3e:	89 c7                	mov    %eax,%edi
   13c40:	e8 71 49 ff ff       	callq  85b6 <safe_add_func_int32_t_s_s>
   13c45:	85 c0                	test   %eax,%eax
   13c47:	0f 84 5b 01 00 00    	je     13da8 <func_123+0x286>
   13c4d:	48 8d 05 2c 94 00 00 	lea    0x942c(%rip),%rax        # 1d080 <g_55>
   13c54:	48 89 45 e0          	mov    %rax,-0x20(%rbp)
   13c58:	48 c7 05 c5 93 00 00 	movq   $0xfffffffffffffff4,0x93c5(%rip)        # 1d028 <g_10>
   13c5f:	f4 ff ff ff 
   13c63:	e9 29 01 00 00       	jmpq   13d91 <func_123+0x26f>
   13c68:	48 8b 05 79 df 00 00 	mov    0xdf79(%rip),%rax        # 21be8 <g_152>
   13c6f:	0f b6 10             	movzbl (%rax),%edx
   13c72:	83 e2 00             	and    $0x0,%edx
   13c75:	83 ca 84             	or     $0xffffff84,%edx
   13c78:	88 10                	mov    %dl,(%rax)
   13c7a:	0f b6 50 01          	movzbl 0x1(%rax),%edx
   13c7e:	83 e2 00             	and    $0x0,%edx
   13c81:	83 ca 05             	or     $0x5,%edx
   13c84:	88 50 01             	mov    %dl,0x1(%rax)
   13c87:	0f b6 50 02          	movzbl 0x2(%rax),%edx
   13c8b:	83 e2 80             	and    $0xffffff80,%edx
   13c8e:	88 50 02             	mov    %dl,0x2(%rax)
   13c91:	48 b9 02 4f f9 97 34 	movabs $0x828d0e3497f94f02,%rcx
   13c98:	0e 8d 82 
   13c9b:	48 89 48 03          	mov    %rcx,0x3(%rax)
   13c9f:	0f b6 50 0b          	movzbl 0xb(%rax),%edx
   13ca3:	83 e2 00             	and    $0x0,%edx
   13ca6:	83 ca 33             	or     $0x33,%edx
   13ca9:	88 50 0b             	mov    %dl,0xb(%rax)
   13cac:	0f b6 50 0c          	movzbl 0xc(%rax),%edx
   13cb0:	83 e2 00             	and    $0x0,%edx
   13cb3:	83 ca 01             	or     $0x1,%edx
   13cb6:	88 50 0c             	mov    %dl,0xc(%rax)
   13cb9:	0f b6 50 0d          	movzbl 0xd(%rax),%edx
   13cbd:	83 e2 00             	and    $0x0,%edx
   13cc0:	88 50 0d             	mov    %dl,0xd(%rax)
   13cc3:	0f b6 50 0e          	movzbl 0xe(%rax),%edx
   13cc7:	83 e2 00             	and    $0x0,%edx
   13cca:	83 ca 9c             	or     $0xffffff9c,%edx
   13ccd:	88 50 0e             	mov    %dl,0xe(%rax)
   13cd0:	0f b6 50 0f          	movzbl 0xf(%rax),%edx
   13cd4:	83 e2 00             	and    $0x0,%edx
   13cd7:	83 ca 0e             	or     $0xe,%edx
   13cda:	88 50 0f             	mov    %dl,0xf(%rax)
   13cdd:	0f b6 50 10          	movzbl 0x10(%rax),%edx
   13ce1:	83 e2 00             	and    $0x0,%edx
   13ce4:	88 50 10             	mov    %dl,0x10(%rax)
   13ce7:	0f b6 50 11          	movzbl 0x11(%rax),%edx
   13ceb:	83 e2 fc             	and    $0xfffffffc,%edx
   13cee:	88 50 11             	mov    %dl,0x11(%rax)
   13cf1:	0f b6 50 11          	movzbl 0x11(%rax),%edx
   13cf5:	83 e2 03             	and    $0x3,%edx
   13cf8:	83 ca 28             	or     $0x28,%edx
   13cfb:	88 50 11             	mov    %dl,0x11(%rax)
   13cfe:	0f b6 50 12          	movzbl 0x12(%rax),%edx
   13d02:	83 e2 00             	and    $0x0,%edx
   13d05:	83 ca 17             	or     $0x17,%edx
   13d08:	88 50 12             	mov    %dl,0x12(%rax)
   13d0b:	0f b6 50 13          	movzbl 0x13(%rax),%edx
   13d0f:	83 e2 00             	and    $0x0,%edx
   13d12:	88 50 13             	mov    %dl,0x13(%rax)
   13d15:	0f b6 50 14          	movzbl 0x14(%rax),%edx
   13d19:	83 e2 fe             	and    $0xfffffffe,%edx
   13d1c:	88 50 14             	mov    %dl,0x14(%rax)
   13d1f:	0f b6 50 14          	movzbl 0x14(%rax),%edx
   13d23:	83 e2 01             	and    $0x1,%edx
   13d26:	83 ca 08             	or     $0x8,%edx
   13d29:	88 50 14             	mov    %dl,0x14(%rax)
   13d2c:	0f b6 50 15          	movzbl 0x15(%rax),%edx
   13d30:	83 e2 00             	and    $0x0,%edx
   13d33:	83 ca 2a             	or     $0x2a,%edx
   13d36:	88 50 15             	mov    %dl,0x15(%rax)
   13d39:	0f b6 50 16          	movzbl 0x16(%rax),%edx
   13d3d:	83 e2 f0             	and    $0xfffffff0,%edx
   13d40:	88 50 16             	mov    %dl,0x16(%rax)
   13d43:	0f b6 50 16          	movzbl 0x16(%rax),%edx
   13d47:	83 e2 0f             	and    $0xf,%edx
   13d4a:	83 ca 50             	or     $0x50,%edx
   13d4d:	88 50 16             	mov    %dl,0x16(%rax)
   13d50:	0f b6 50 17          	movzbl 0x17(%rax),%edx
   13d54:	83 e2 00             	and    $0x0,%edx
   13d57:	83 ca 37             	or     $0x37,%edx
   13d5a:	88 50 17             	mov    %dl,0x17(%rax)
   13d5d:	0f b6 50 18          	movzbl 0x18(%rax),%edx
   13d61:	83 e2 00             	and    $0x0,%edx
   13d64:	88 50 18             	mov    %dl,0x18(%rax)
   13d67:	0f b6 50 19          	movzbl 0x19(%rax),%edx
   13d6b:	83 e2 fe             	and    $0xfffffffe,%edx
   13d6e:	88 50 19             	mov    %dl,0x19(%rax)
   13d71:	48 8b 05 b0 92 00 00 	mov    0x92b0(%rip),%rax        # 1d028 <g_10>
   13d78:	0f b7 c0             	movzwl %ax,%eax
   13d7b:	be 07 00 00 00       	mov    $0x7,%esi
   13d80:	89 c7                	mov    %eax,%edi
   13d82:	e8 78 4f ff ff       	callq  8cff <safe_add_func_uint16_t_u_u>
   13d87:	0f b7 c0             	movzwl %ax,%eax
   13d8a:	48 89 05 97 92 00 00 	mov    %rax,0x9297(%rip)        # 1d028 <g_10>
   13d91:	48 8b 05 90 92 00 00 	mov    0x9290(%rip),%rax        # 1d028 <g_10>
   13d98:	48 83 f8 0d          	cmp    $0xd,%rax
   13d9c:	0f 87 c6 fe ff ff    	ja     13c68 <func_123+0x146>
   13da2:	48 8b 45 e0          	mov    -0x20(%rbp),%rax
   13da6:	eb 07                	jmp    13daf <func_123+0x28d>
   13da8:	48 8d 05 d1 92 00 00 	lea    0x92d1(%rip),%rax        # 1d080 <g_55>
   13daf:	48 83 c4 40          	add    $0x40,%rsp
   13db3:	5b                   	pop    %rbx
   13db4:	41 5c                	pop    %r12
   13db6:	41 5d                	pop    %r13
   13db8:	5d                   	pop    %rbp
   13db9:	c3                   	retq   

0000000000013dba <main>:
   13dba:	f3 0f 1e fa          	endbr64 
   13dbe:	55                   	push   %rbp
   13dbf:	48 89 e5             	mov    %rsp,%rbp
   13dc2:	48 83 ec 20          	sub    $0x20,%rsp
   13dc6:	89 7d ec             	mov    %edi,-0x14(%rbp)
   13dc9:	48 89 75 e0          	mov    %rsi,-0x20(%rbp)
   13dcd:	c7 45 fc 00 00 00 00 	movl   $0x0,-0x4(%rbp)
   13dd4:	83 7d ec 02          	cmpl   $0x2,-0x14(%rbp)
   13dd8:	75 25                	jne    13dff <main+0x45>
   13dda:	48 8b 45 e0          	mov    -0x20(%rbp),%rax
   13dde:	48 83 c0 08          	add    $0x8,%rax
   13de2:	48 8b 00             	mov    (%rax),%rax
   13de5:	48 8d 35 e4 59 00 00 	lea    0x59e4(%rip),%rsi        # 197d0 <g_1750+0x1730>
   13dec:	48 89 c7             	mov    %rax,%rdi
   13def:	e8 9c 42 ff ff       	callq  8090 <strcmp@plt>
   13df4:	85 c0                	test   %eax,%eax
   13df6:	75 07                	jne    13dff <main+0x45>
   13df8:	c7 45 fc 01 00 00 00 	movl   $0x1,-0x4(%rbp)
   13dff:	e8 85 43 ff ff       	callq  8189 <platform_main_begin>
   13e04:	e8 8f 57 ff ff       	callq  9598 <crc32_gentab>
   13e09:	e8 a7 59 ff ff       	callq  97b5 <func_1>
   13e0e:	0f b7 05 0f 92 00 00 	movzwl 0x920f(%rip),%eax        # 1d024 <g_8>
   13e15:	0f b7 c0             	movzwl %ax,%eax
   13e18:	8b 55 fc             	mov    -0x4(%rbp),%edx
   13e1b:	48 8d 35 b0 59 00 00 	lea    0x59b0(%rip),%rsi        # 197d2 <g_1750+0x1732>
   13e22:	48 89 c7             	mov    %rax,%rdi
   13e25:	e8 c9 58 ff ff       	callq  96f3 <transparent_crc>
   13e2a:	48 8b 05 f7 91 00 00 	mov    0x91f7(%rip),%rax        # 1d028 <g_10>
   13e31:	8b 55 fc             	mov    -0x4(%rbp),%edx
   13e34:	48 8d 35 9b 59 00 00 	lea    0x599b(%rip),%rsi        # 197d6 <g_1750+0x1736>
   13e3b:	48 89 c7             	mov    %rax,%rdi
   13e3e:	e8 b0 58 ff ff       	callq  96f3 <transparent_crc>
   13e43:	8b 05 07 ee 00 00    	mov    0xee07(%rip),%eax        # 22c50 <g_22>
   13e49:	48 98                	cltq   
   13e4b:	8b 55 fc             	mov    -0x4(%rbp),%edx
   13e4e:	48 8d 35 86 59 00 00 	lea    0x5986(%rip),%rsi        # 197db <g_1750+0x173b>
   13e55:	48 89 c7             	mov    %rax,%rdi
   13e58:	e8 96 58 ff ff       	callq  96f3 <transparent_crc>
   13e5d:	c7 45 f0 00 00 00 00 	movl   $0x0,-0x10(%rbp)
   13e64:	eb 72                	jmp    13ed8 <main+0x11e>
   13e66:	c7 45 f4 00 00 00 00 	movl   $0x0,-0xc(%rbp)
   13e6d:	eb 5f                	jmp    13ece <main+0x114>
   13e6f:	8b 45 f4             	mov    -0xc(%rbp),%eax
   13e72:	48 63 c8             	movslq %eax,%rcx
   13e75:	8b 45 f0             	mov    -0x10(%rbp),%eax
   13e78:	48 63 d0             	movslq %eax,%rdx
   13e7b:	48 89 d0             	mov    %rdx,%rax
   13e7e:	48 c1 e0 02          	shl    $0x2,%rax
   13e82:	48 01 d0             	add    %rdx,%rax
   13e85:	48 8d 14 08          	lea    (%rax,%rcx,1),%rdx
   13e89:	48 8d 05 b0 91 00 00 	lea    0x91b0(%rip),%rax        # 1d040 <g_31>
   13e90:	48 01 d0             	add    %rdx,%rax
   13e93:	0f b6 00             	movzbl (%rax),%eax
   13e96:	0f b6 c0             	movzbl %al,%eax
   13e99:	8b 55 fc             	mov    -0x4(%rbp),%edx
   13e9c:	48 8d 35 3d 59 00 00 	lea    0x593d(%rip),%rsi        # 197e0 <g_1750+0x1740>
   13ea3:	48 89 c7             	mov    %rax,%rdi
   13ea6:	e8 48 58 ff ff       	callq  96f3 <transparent_crc>
   13eab:	83 7d fc 00          	cmpl   $0x0,-0x4(%rbp)
   13eaf:	74 19                	je     13eca <main+0x110>
   13eb1:	8b 55 f4             	mov    -0xc(%rbp),%edx
   13eb4:	8b 45 f0             	mov    -0x10(%rbp),%eax
   13eb7:	89 c6                	mov    %eax,%esi
   13eb9:	48 8d 3d 2b 59 00 00 	lea    0x592b(%rip),%rdi        # 197eb <g_1750+0x174b>
   13ec0:	b8 00 00 00 00       	mov    $0x0,%eax
   13ec5:	e8 b6 41 ff ff       	callq  8080 <printf@plt>
   13eca:	83 45 f4 01          	addl   $0x1,-0xc(%rbp)
   13ece:	83 7d f4 04          	cmpl   $0x4,-0xc(%rbp)
   13ed2:	7e 9b                	jle    13e6f <main+0xb5>
   13ed4:	83 45 f0 01          	addl   $0x1,-0x10(%rbp)
   13ed8:	83 7d f0 08          	cmpl   $0x8,-0x10(%rbp)
   13edc:	7e 88                	jle    13e66 <main+0xac>
   13ede:	48 8b 05 8b 91 00 00 	mov    0x918b(%rip),%rax        # 1d070 <g_40>
   13ee5:	48 89 c1             	mov    %rax,%rcx
   13ee8:	8b 45 fc             	mov    -0x4(%rbp),%eax
   13eeb:	89 c2                	mov    %eax,%edx
   13eed:	48 8d 35 09 59 00 00 	lea    0x5909(%rip),%rsi        # 197fd <g_1750+0x175d>
   13ef4:	48 89 cf             	mov    %rcx,%rdi
   13ef7:	e8 f7 57 ff ff       	callq  96f3 <transparent_crc>
   13efc:	8b 05 76 91 00 00    	mov    0x9176(%rip),%eax        # 1d078 <g_44>
   13f02:	48 98                	cltq   
   13f04:	8b 55 fc             	mov    -0x4(%rbp),%edx
   13f07:	48 8d 35 f4 58 00 00 	lea    0x58f4(%rip),%rsi        # 19802 <g_1750+0x1762>
   13f0e:	48 89 c7             	mov    %rax,%rdi
   13f11:	e8 dd 57 ff ff       	callq  96f3 <transparent_crc>
   13f16:	8b 05 64 91 00 00    	mov    0x9164(%rip),%eax        # 1d080 <g_55>
   13f1c:	89 c1                	mov    %eax,%ecx
   13f1e:	8b 45 fc             	mov    -0x4(%rbp),%eax
   13f21:	89 c2                	mov    %eax,%edx
   13f23:	48 8d 35 dd 58 00 00 	lea    0x58dd(%rip),%rsi        # 19807 <g_1750+0x1767>
   13f2a:	48 89 cf             	mov    %rcx,%rdi
   13f2d:	e8 c1 57 ff ff       	callq  96f3 <transparent_crc>
   13f32:	8b 05 48 91 00 00    	mov    0x9148(%rip),%eax        # 1d080 <g_55>
   13f38:	48 98                	cltq   
   13f3a:	8b 55 fc             	mov    -0x4(%rbp),%edx
   13f3d:	48 8d 35 cb 58 00 00 	lea    0x58cb(%rip),%rsi        # 1980f <g_1750+0x176f>
   13f44:	48 89 c7             	mov    %rax,%rdi
   13f47:	e8 a7 57 ff ff       	callq  96f3 <transparent_crc>
   13f4c:	8b 05 36 91 00 00    	mov    0x9136(%rip),%eax        # 1d088 <g_120>
   13f52:	89 c1                	mov    %eax,%ecx
   13f54:	8b 45 fc             	mov    -0x4(%rbp),%eax
   13f57:	89 c2                	mov    %eax,%edx
   13f59:	48 8d 35 b7 58 00 00 	lea    0x58b7(%rip),%rsi        # 19817 <g_1750+0x1777>
   13f60:	48 89 cf             	mov    %rcx,%rdi
   13f63:	e8 8b 57 ff ff       	callq  96f3 <transparent_crc>
   13f68:	0f b7 05 1d 91 00 00 	movzwl 0x911d(%rip),%eax        # 1d08c <g_148>
   13f6f:	0f b7 c0             	movzwl %ax,%eax
   13f72:	8b 55 fc             	mov    -0x4(%rbp),%edx
   13f75:	48 8d 35 a1 58 00 00 	lea    0x58a1(%rip),%rsi        # 1981d <g_1750+0x177d>
   13f7c:	48 89 c7             	mov    %rax,%rdi
   13f7f:	e8 6f 57 ff ff       	callq  96f3 <transparent_crc>
   13f84:	48 8b 05 d5 40 00 00 	mov    0x40d5(%rip),%rax        # 18060 <g_151>
   13f8b:	25 ff ff 7f 00       	and    $0x7fffff,%eax
   13f90:	89 c1                	mov    %eax,%ecx
   13f92:	8b 45 fc             	mov    -0x4(%rbp),%eax
   13f95:	89 c2                	mov    %eax,%edx
   13f97:	48 8d 35 85 58 00 00 	lea    0x5885(%rip),%rsi        # 19823 <g_1750+0x1783>
   13f9e:	48 89 cf             	mov    %rcx,%rdi
   13fa1:	e8 4d 57 ff ff       	callq  96f3 <transparent_crc>
   13fa6:	48 8b 05 b6 40 00 00 	mov    0x40b6(%rip),%rax        # 18063 <g_151+0x3>
   13fad:	48 89 c1             	mov    %rax,%rcx
   13fb0:	8b 45 fc             	mov    -0x4(%rbp),%eax
   13fb3:	89 c2                	mov    %eax,%edx
   13fb5:	48 8d 35 70 58 00 00 	lea    0x5870(%rip),%rsi        # 1982c <g_1750+0x178c>
   13fbc:	48 89 cf             	mov    %rcx,%rdi
   13fbf:	e8 2f 57 ff ff       	callq  96f3 <transparent_crc>
   13fc4:	b8 33 01 00 00       	mov    $0x133,%eax
   13fc9:	89 c1                	mov    %eax,%ecx
   13fcb:	8b 45 fc             	mov    -0x4(%rbp),%eax
   13fce:	89 c2                	mov    %eax,%edx
   13fd0:	48 8d 35 5e 58 00 00 	lea    0x585e(%rip),%rsi        # 19835 <g_1750+0x1795>
   13fd7:	48 89 cf             	mov    %rcx,%rdi
   13fda:	e8 14 57 ff ff       	callq  96f3 <transparent_crc>
   13fdf:	48 8b 05 82 40 00 00 	mov    0x4082(%rip),%rax        # 18068 <g_151+0x8>
   13fe6:	48 c1 e8 30          	shr    $0x30,%rax
   13fea:	48 89 c2             	mov    %rax,%rdx
   13fed:	48 8b 05 7c 40 00 00 	mov    0x407c(%rip),%rax        # 18070 <g_151+0x10>
   13ff4:	25 ff 03 00 00       	and    $0x3ff,%eax
   13ff9:	48 c1 e0 10          	shl    $0x10,%rax
   13ffd:	48 09 d0             	or     %rdx,%rax
   14000:	89 c1                	mov    %eax,%ecx
   14002:	8b 45 fc             	mov    -0x4(%rbp),%eax
   14005:	89 c2                	mov    %eax,%edx
   14007:	48 8d 35 30 58 00 00 	lea    0x5830(%rip),%rsi        # 1983e <g_1750+0x179e>
   1400e:	48 89 cf             	mov    %rcx,%rdi
   14011:	e8 dd 56 ff ff       	callq  96f3 <transparent_crc>
   14016:	b8 ca 05 00 00       	mov    $0x5ca,%eax
   1401b:	89 c1                	mov    %eax,%ecx
   1401d:	8b 45 fc             	mov    -0x4(%rbp),%eax
   14020:	89 c2                	mov    %eax,%edx
   14022:	48 8d 35 1e 58 00 00 	lea    0x581e(%rip),%rsi        # 19847 <g_1750+0x17a7>
   14029:	48 89 cf             	mov    %rcx,%rdi
   1402c:	e8 c2 56 ff ff       	callq  96f3 <transparent_crc>
   14031:	48 8b 05 38 40 00 00 	mov    0x4038(%rip),%rax        # 18070 <g_151+0x10>
   14038:	48 c1 e0 18          	shl    $0x18,%rax
   1403c:	48 c1 f8 39          	sar    $0x39,%rax
   14040:	48 0f be c0          	movsbq %al,%rax
   14044:	8b 55 fc             	mov    -0x4(%rbp),%edx
   14047:	48 8d 35 02 58 00 00 	lea    0x5802(%rip),%rsi        # 19850 <g_1750+0x17b0>
   1404e:	48 89 c7             	mov    %rax,%rdi
   14051:	e8 9d 56 ff ff       	callq  96f3 <transparent_crc>
   14056:	b8 2a 00 00 00       	mov    $0x2a,%eax
   1405b:	48 0f bf c0          	movswq %ax,%rax
   1405f:	8b 55 fc             	mov    -0x4(%rbp),%edx
   14062:	48 8d 35 f0 57 00 00 	lea    0x57f0(%rip),%rsi        # 19859 <g_1750+0x17b9>
   14069:	48 89 c7             	mov    %rax,%rdi
   1406c:	e8 82 56 ff ff       	callq  96f3 <transparent_crc>
   14071:	48 8b 05 f8 3f 00 00 	mov    0x3ff8(%rip),%rax        # 18070 <g_151+0x10>
   14078:	48 c1 e8 34          	shr    $0x34,%rax
   1407c:	48 89 c2             	mov    %rax,%rdx
   1407f:	48 8b 05 f2 3f 00 00 	mov    0x3ff2(%rip),%rax        # 18078 <g_151+0x18>
   14086:	25 ff 01 00 00       	and    $0x1ff,%eax
   1408b:	48 c1 e0 0c          	shl    $0xc,%rax
   1408f:	48 09 d0             	or     %rdx,%rax
   14092:	89 c1                	mov    %eax,%ecx
   14094:	8b 45 fc             	mov    -0x4(%rbp),%eax
   14097:	89 c2                	mov    %eax,%edx
   14099:	48 8d 35 c2 57 00 00 	lea    0x57c2(%rip),%rsi        # 19862 <g_1750+0x17c2>
   140a0:	48 89 cf             	mov    %rcx,%rdi
   140a3:	e8 4b 56 ff ff       	callq  96f3 <transparent_crc>
   140a8:	48 8b 05 e1 8f 00 00 	mov    0x8fe1(%rip),%rax        # 1d090 <g_153>
   140af:	25 ff ff 7f 00       	and    $0x7fffff,%eax
   140b4:	89 c1                	mov    %eax,%ecx
   140b6:	8b 45 fc             	mov    -0x4(%rbp),%eax
   140b9:	89 c2                	mov    %eax,%edx
   140bb:	48 8d 35 a9 57 00 00 	lea    0x57a9(%rip),%rsi        # 1986b <g_1750+0x17cb>
   140c2:	48 89 cf             	mov    %rcx,%rdi
   140c5:	e8 29 56 ff ff       	callq  96f3 <transparent_crc>
   140ca:	48 8b 05 c2 8f 00 00 	mov    0x8fc2(%rip),%rax        # 1d093 <g_153+0x3>
   140d1:	48 89 c1             	mov    %rax,%rcx
   140d4:	8b 45 fc             	mov    -0x4(%rbp),%eax
   140d7:	89 c2                	mov    %eax,%edx
   140d9:	48 8d 35 94 57 00 00 	lea    0x5794(%rip),%rsi        # 19874 <g_1750+0x17d4>
   140e0:	48 89 cf             	mov    %rcx,%rdi
   140e3:	e8 0b 56 ff ff       	callq  96f3 <transparent_crc>
   140e8:	48 8b 05 a9 8f 00 00 	mov    0x8fa9(%rip),%rax        # 1d098 <g_153+0x8>
   140ef:	48 c1 e8 18          	shr    $0x18,%rax
   140f3:	25 ff ff ff 00       	and    $0xffffff,%eax
   140f8:	89 c1                	mov    %eax,%ecx
   140fa:	8b 45 fc             	mov    -0x4(%rbp),%eax
   140fd:	89 c2                	mov    %eax,%edx
   140ff:	48 8d 35 77 57 00 00 	lea    0x5777(%rip),%rsi        # 1987d <g_1750+0x17dd>
   14106:	48 89 cf             	mov    %rcx,%rdi
   14109:	e8 e5 55 ff ff       	callq  96f3 <transparent_crc>
   1410e:	48 8b 05 83 8f 00 00 	mov    0x8f83(%rip),%rax        # 1d098 <g_153+0x8>
   14115:	48 c1 e8 30          	shr    $0x30,%rax
   14119:	48 89 c2             	mov    %rax,%rdx
   1411c:	48 8b 05 7d 8f 00 00 	mov    0x8f7d(%rip),%rax        # 1d0a0 <g_153+0x10>
   14123:	25 ff 03 00 00       	and    $0x3ff,%eax
   14128:	48 c1 e0 10          	shl    $0x10,%rax
   1412c:	48 09 d0             	or     %rdx,%rax
   1412f:	89 c1                	mov    %eax,%ecx
   14131:	8b 45 fc             	mov    -0x4(%rbp),%eax
   14134:	89 c2                	mov    %eax,%edx
   14136:	48 8d 35 49 57 00 00 	lea    0x5749(%rip),%rsi        # 19886 <g_1750+0x17e6>
   1413d:	48 89 cf             	mov    %rcx,%rdi
   14140:	e8 ae 55 ff ff       	callq  96f3 <transparent_crc>
   14145:	48 8b 05 54 8f 00 00 	mov    0x8f54(%rip),%rax        # 1d0a0 <g_153+0x10>
   1414c:	48 c1 e8 0a          	shr    $0xa,%rax
   14150:	25 ff ff 7f 00       	and    $0x7fffff,%eax
   14155:	89 c1                	mov    %eax,%ecx
   14157:	8b 45 fc             	mov    -0x4(%rbp),%eax
   1415a:	89 c2                	mov    %eax,%edx
   1415c:	48 8d 35 2c 57 00 00 	lea    0x572c(%rip),%rsi        # 1988f <g_1750+0x17ef>
   14163:	48 89 cf             	mov    %rcx,%rdi
   14166:	e8 88 55 ff ff       	callq  96f3 <transparent_crc>
   1416b:	48 8b 05 2e 8f 00 00 	mov    0x8f2e(%rip),%rax        # 1d0a0 <g_153+0x10>
   14172:	48 c1 e0 18          	shl    $0x18,%rax
   14176:	48 c1 f8 39          	sar    $0x39,%rax
   1417a:	48 0f be c0          	movsbq %al,%rax
   1417e:	8b 55 fc             	mov    -0x4(%rbp),%edx
   14181:	48 8d 35 10 57 00 00 	lea    0x5710(%rip),%rsi        # 19898 <g_1750+0x17f8>
   14188:	48 89 c7             	mov    %rax,%rdi
   1418b:	e8 63 55 ff ff       	callq  96f3 <transparent_crc>
   14190:	8b 05 0e 8f 00 00    	mov    0x8f0e(%rip),%eax        # 1d0a4 <g_153+0x14>
   14196:	c1 e0 0c             	shl    $0xc,%eax
   14199:	c1 f8 14             	sar    $0x14,%eax
   1419c:	48 0f bf c0          	movswq %ax,%rax
   141a0:	8b 55 fc             	mov    -0x4(%rbp),%edx
   141a3:	48 8d 35 f7 56 00 00 	lea    0x56f7(%rip),%rsi        # 198a1 <g_1750+0x1801>
   141aa:	48 89 c7             	mov    %rax,%rdi
   141ad:	e8 41 55 ff ff       	callq  96f3 <transparent_crc>
   141b2:	48 8b 05 e7 8e 00 00 	mov    0x8ee7(%rip),%rax        # 1d0a0 <g_153+0x10>
   141b9:	48 c1 e8 34          	shr    $0x34,%rax
   141bd:	48 89 c2             	mov    %rax,%rdx
   141c0:	48 8b 05 e1 8e 00 00 	mov    0x8ee1(%rip),%rax        # 1d0a8 <g_153+0x18>
   141c7:	25 ff 01 00 00       	and    $0x1ff,%eax
   141cc:	48 c1 e0 0c          	shl    $0xc,%rax
   141d0:	48 09 d0             	or     %rdx,%rax
   141d3:	89 c1                	mov    %eax,%ecx
   141d5:	8b 45 fc             	mov    -0x4(%rbp),%eax
   141d8:	89 c2                	mov    %eax,%edx
   141da:	48 8d 35 c9 56 00 00 	lea    0x56c9(%rip),%rsi        # 198aa <g_1750+0x180a>
   141e1:	48 89 cf             	mov    %rcx,%rdi
   141e4:	e8 0a 55 ff ff       	callq  96f3 <transparent_crc>
   141e9:	c7 45 f0 00 00 00 00 	movl   $0x0,-0x10(%rbp)
   141f0:	e9 70 03 00 00       	jmpq   14565 <main+0x7ab>
   141f5:	c7 45 f4 00 00 00 00 	movl   $0x0,-0xc(%rbp)
   141fc:	e9 56 03 00 00       	jmpq   14557 <main+0x79d>
   14201:	c7 45 f8 00 00 00 00 	movl   $0x0,-0x8(%rbp)
   14208:	e9 3c 03 00 00       	jmpq   14549 <main+0x78f>
   1420d:	8b 45 f8             	mov    -0x8(%rbp),%eax
   14210:	48 63 d0             	movslq %eax,%rdx
   14213:	8b 45 f4             	mov    -0xc(%rbp),%eax
   14216:	48 98                	cltq   
   14218:	48 01 c2             	add    %rax,%rdx
   1421b:	8b 45 f0             	mov    -0x10(%rbp),%eax
   1421e:	48 63 c8             	movslq %eax,%rcx
   14221:	48 89 d0             	mov    %rdx,%rax
   14224:	48 01 c0             	add    %rax,%rax
   14227:	48 01 d0             	add    %rdx,%rax
   1422a:	48 c1 e0 02          	shl    $0x2,%rax
   1422e:	48 01 d0             	add    %rdx,%rax
   14231:	48 01 c0             	add    %rax,%rax
   14234:	48 6b d1 4e          	imul   $0x4e,%rcx,%rdx
   14238:	48 01 c2             	add    %rax,%rdx
   1423b:	48 8d 05 7e 8e 00 00 	lea    0x8e7e(%rip),%rax        # 1d0c0 <g_162>
   14242:	48 01 d0             	add    %rdx,%rax
   14245:	0f b7 10             	movzwl (%rax),%edx
   14248:	0f b7 d2             	movzwl %dx,%edx
   1424b:	0f b7 40 02          	movzwl 0x2(%rax),%eax
   1424f:	0f b7 c0             	movzwl %ax,%eax
   14252:	83 e0 7f             	and    $0x7f,%eax
   14255:	48 c1 e0 10          	shl    $0x10,%rax
   14259:	48 09 d0             	or     %rdx,%rax
   1425c:	89 c1                	mov    %eax,%ecx
   1425e:	8b 45 fc             	mov    -0x4(%rbp),%eax
   14261:	89 c2                	mov    %eax,%edx
   14263:	48 8d 35 49 56 00 00 	lea    0x5649(%rip),%rsi        # 198b3 <g_1750+0x1813>
   1426a:	48 89 cf             	mov    %rcx,%rdi
   1426d:	e8 81 54 ff ff       	callq  96f3 <transparent_crc>
   14272:	8b 45 f8             	mov    -0x8(%rbp),%eax
   14275:	48 63 d0             	movslq %eax,%rdx
   14278:	8b 45 f4             	mov    -0xc(%rbp),%eax
   1427b:	48 98                	cltq   
   1427d:	48 01 c2             	add    %rax,%rdx
   14280:	8b 45 f0             	mov    -0x10(%rbp),%eax
   14283:	48 63 c8             	movslq %eax,%rcx
   14286:	48 89 d0             	mov    %rdx,%rax
   14289:	48 01 c0             	add    %rax,%rax
   1428c:	48 01 d0             	add    %rdx,%rax
   1428f:	48 c1 e0 02          	shl    $0x2,%rax
   14293:	48 01 d0             	add    %rdx,%rax
   14296:	48 01 c0             	add    %rax,%rax
   14299:	48 6b d1 4e          	imul   $0x4e,%rcx,%rdx
   1429d:	48 01 c2             	add    %rax,%rdx
   142a0:	48 8d 05 19 8e 00 00 	lea    0x8e19(%rip),%rax        # 1d0c0 <g_162>
   142a7:	48 01 d0             	add    %rdx,%rax
   142aa:	48 8b 40 03          	mov    0x3(%rax),%rax
   142ae:	48 89 c1             	mov    %rax,%rcx
   142b1:	8b 45 fc             	mov    -0x4(%rbp),%eax
   142b4:	89 c2                	mov    %eax,%edx
   142b6:	48 8d 35 08 56 00 00 	lea    0x5608(%rip),%rsi        # 198c5 <g_1750+0x1825>
   142bd:	48 89 cf             	mov    %rcx,%rdi
   142c0:	e8 2e 54 ff ff       	callq  96f3 <transparent_crc>
   142c5:	8b 45 f8             	mov    -0x8(%rbp),%eax
   142c8:	48 63 d0             	movslq %eax,%rdx
   142cb:	8b 45 f4             	mov    -0xc(%rbp),%eax
   142ce:	48 98                	cltq   
   142d0:	48 01 c2             	add    %rax,%rdx
   142d3:	8b 45 f0             	mov    -0x10(%rbp),%eax
   142d6:	48 63 c8             	movslq %eax,%rcx
   142d9:	48 89 d0             	mov    %rdx,%rax
   142dc:	48 01 c0             	add    %rax,%rax
   142df:	48 01 d0             	add    %rdx,%rax
   142e2:	48 c1 e0 02          	shl    $0x2,%rax
   142e6:	48 01 d0             	add    %rdx,%rax
   142e9:	48 01 c0             	add    %rax,%rax
   142ec:	48 6b d1 4e          	imul   $0x4e,%rcx,%rdx
   142f0:	48 01 c2             	add    %rax,%rdx
   142f3:	48 8d 05 c6 8d 00 00 	lea    0x8dc6(%rip),%rax        # 1d0c0 <g_162>
   142fa:	48 01 d0             	add    %rdx,%rax
   142fd:	0f b6 50 0b          	movzbl 0xb(%rax),%edx
   14301:	0f b7 40 0c          	movzwl 0xc(%rax),%eax
   14305:	48 c1 e0 08          	shl    $0x8,%rax
   14309:	48 09 d0             	or     %rdx,%rax
   1430c:	89 c1                	mov    %eax,%ecx
   1430e:	8b 45 fc             	mov    -0x4(%rbp),%eax
   14311:	89 c2                	mov    %eax,%edx
   14313:	48 8d 35 bd 55 00 00 	lea    0x55bd(%rip),%rsi        # 198d7 <g_1750+0x1837>
   1431a:	48 89 cf             	mov    %rcx,%rdi
   1431d:	e8 d1 53 ff ff       	callq  96f3 <transparent_crc>
   14322:	8b 45 f8             	mov    -0x8(%rbp),%eax
   14325:	48 63 d0             	movslq %eax,%rdx
   14328:	8b 45 f4             	mov    -0xc(%rbp),%eax
   1432b:	48 98                	cltq   
   1432d:	48 01 c2             	add    %rax,%rdx
   14330:	8b 45 f0             	mov    -0x10(%rbp),%eax
   14333:	48 63 c8             	movslq %eax,%rcx
   14336:	48 89 d0             	mov    %rdx,%rax
   14339:	48 01 c0             	add    %rax,%rax
   1433c:	48 01 d0             	add    %rdx,%rax
   1433f:	48 c1 e0 02          	shl    $0x2,%rax
   14343:	48 01 d0             	add    %rdx,%rax
   14346:	48 01 c0             	add    %rax,%rax
   14349:	48 6b d1 4e          	imul   $0x4e,%rcx,%rdx
   1434d:	48 01 c2             	add    %rax,%rdx
   14350:	48 8d 05 69 8d 00 00 	lea    0x8d69(%rip),%rax        # 1d0c0 <g_162>
   14357:	48 01 d0             	add    %rdx,%rax
   1435a:	0f b7 50 0e          	movzwl 0xe(%rax),%edx
   1435e:	0f b7 d2             	movzwl %dx,%edx
   14361:	0f b7 40 10          	movzwl 0x10(%rax),%eax
   14365:	0f b7 c0             	movzwl %ax,%eax
   14368:	25 ff 03 00 00       	and    $0x3ff,%eax
   1436d:	48 c1 e0 10          	shl    $0x10,%rax
   14371:	48 09 d0             	or     %rdx,%rax
   14374:	89 c1                	mov    %eax,%ecx
   14376:	8b 45 fc             	mov    -0x4(%rbp),%eax
   14379:	89 c2                	mov    %eax,%edx
   1437b:	48 8d 35 67 55 00 00 	lea    0x5567(%rip),%rsi        # 198e9 <g_1750+0x1849>
   14382:	48 89 cf             	mov    %rcx,%rdi
   14385:	e8 69 53 ff ff       	callq  96f3 <transparent_crc>
   1438a:	8b 45 f8             	mov    -0x8(%rbp),%eax
   1438d:	48 63 d0             	movslq %eax,%rdx
   14390:	8b 45 f4             	mov    -0xc(%rbp),%eax
   14393:	48 98                	cltq   
   14395:	48 01 c2             	add    %rax,%rdx
   14398:	8b 45 f0             	mov    -0x10(%rbp),%eax
   1439b:	48 63 c8             	movslq %eax,%rcx
   1439e:	48 89 d0             	mov    %rdx,%rax
   143a1:	48 01 c0             	add    %rax,%rax
   143a4:	48 01 d0             	add    %rdx,%rax
   143a7:	48 c1 e0 02          	shl    $0x2,%rax
   143ab:	48 01 d0             	add    %rdx,%rax
   143ae:	48 01 c0             	add    %rax,%rax
   143b1:	48 6b d1 4e          	imul   $0x4e,%rcx,%rdx
   143b5:	48 01 c2             	add    %rax,%rdx
   143b8:	48 8d 05 11 8d 00 00 	lea    0x8d11(%rip),%rax        # 1d0d0 <g_162+0x10>
   143bf:	48 01 d0             	add    %rdx,%rax
   143c2:	0f b6 50 01          	movzbl 0x1(%rax),%edx
   143c6:	c0 ea 02             	shr    $0x2,%dl
   143c9:	0f b6 d2             	movzbl %dl,%edx
   143cc:	0f b7 48 02          	movzwl 0x2(%rax),%ecx
   143d0:	48 c1 e1 06          	shl    $0x6,%rcx
   143d4:	48 09 ca             	or     %rcx,%rdx
   143d7:	0f b6 40 04          	movzbl 0x4(%rax),%eax
   143db:	83 e0 01             	and    $0x1,%eax
   143de:	48 c1 e0 16          	shl    $0x16,%rax
   143e2:	48 09 d0             	or     %rdx,%rax
   143e5:	89 c1                	mov    %eax,%ecx
   143e7:	8b 45 fc             	mov    -0x4(%rbp),%eax
   143ea:	89 c2                	mov    %eax,%edx
   143ec:	48 8d 35 08 55 00 00 	lea    0x5508(%rip),%rsi        # 198fb <g_1750+0x185b>
   143f3:	48 89 cf             	mov    %rcx,%rdi
   143f6:	e8 f8 52 ff ff       	callq  96f3 <transparent_crc>
   143fb:	8b 45 f8             	mov    -0x8(%rbp),%eax
   143fe:	48 63 d0             	movslq %eax,%rdx
   14401:	8b 45 f4             	mov    -0xc(%rbp),%eax
   14404:	48 98                	cltq   
   14406:	48 01 c2             	add    %rax,%rdx
   14409:	8b 45 f0             	mov    -0x10(%rbp),%eax
   1440c:	48 63 c8             	movslq %eax,%rcx
   1440f:	48 89 d0             	mov    %rdx,%rax
   14412:	48 01 c0             	add    %rax,%rax
   14415:	48 01 d0             	add    %rdx,%rax
   14418:	48 c1 e0 02          	shl    $0x2,%rax
   1441c:	48 01 d0             	add    %rdx,%rax
   1441f:	48 01 c0             	add    %rax,%rax
   14422:	48 6b d1 4e          	imul   $0x4e,%rcx,%rdx
   14426:	48 01 c2             	add    %rax,%rdx
   14429:	48 8d 05 a0 8c 00 00 	lea    0x8ca0(%rip),%rax        # 1d0d0 <g_162+0x10>
   14430:	48 01 d0             	add    %rdx,%rax
   14433:	0f b7 40 04          	movzwl 0x4(%rax),%eax
   14437:	d0 f8                	sar    %al
   14439:	48 0f be c0          	movsbq %al,%rax
   1443d:	8b 55 fc             	mov    -0x4(%rbp),%edx
   14440:	48 8d 35 c6 54 00 00 	lea    0x54c6(%rip),%rsi        # 1990d <g_1750+0x186d>
   14447:	48 89 c7             	mov    %rax,%rdi
   1444a:	e8 a4 52 ff ff       	callq  96f3 <transparent_crc>
   1444f:	8b 45 f8             	mov    -0x8(%rbp),%eax
   14452:	48 63 d0             	movslq %eax,%rdx
   14455:	8b 45 f4             	mov    -0xc(%rbp),%eax
   14458:	48 98                	cltq   
   1445a:	48 01 c2             	add    %rax,%rdx
   1445d:	8b 45 f0             	mov    -0x10(%rbp),%eax
   14460:	48 63 c8             	movslq %eax,%rcx
   14463:	48 89 d0             	mov    %rdx,%rax
   14466:	48 01 c0             	add    %rax,%rax
   14469:	48 01 d0             	add    %rdx,%rax
   1446c:	48 c1 e0 02          	shl    $0x2,%rax
   14470:	48 01 d0             	add    %rdx,%rax
   14473:	48 01 c0             	add    %rax,%rax
   14476:	48 6b d1 4e          	imul   $0x4e,%rcx,%rdx
   1447a:	48 01 c2             	add    %rax,%rdx
   1447d:	48 8d 05 4c 8c 00 00 	lea    0x8c4c(%rip),%rax        # 1d0d0 <g_162+0x10>
   14484:	48 01 d0             	add    %rdx,%rax
   14487:	0f b6 50 05          	movzbl 0x5(%rax),%edx
   1448b:	0f b6 40 06          	movzbl 0x6(%rax),%eax
   1448f:	83 e0 0f             	and    $0xf,%eax
   14492:	48 c1 e0 08          	shl    $0x8,%rax
   14496:	48 09 d0             	or     %rdx,%rax
   14499:	48 c1 e0 34          	shl    $0x34,%rax
   1449d:	48 c1 f8 34          	sar    $0x34,%rax
   144a1:	48 0f bf c0          	movswq %ax,%rax
   144a5:	8b 55 fc             	mov    -0x4(%rbp),%edx
   144a8:	48 8d 35 70 54 00 00 	lea    0x5470(%rip),%rsi        # 1991f <g_1750+0x187f>
   144af:	48 89 c7             	mov    %rax,%rdi
   144b2:	e8 3c 52 ff ff       	callq  96f3 <transparent_crc>
   144b7:	8b 45 f8             	mov    -0x8(%rbp),%eax
   144ba:	48 63 d0             	movslq %eax,%rdx
   144bd:	8b 45 f4             	mov    -0xc(%rbp),%eax
   144c0:	48 98                	cltq   
   144c2:	48 01 c2             	add    %rax,%rdx
   144c5:	8b 45 f0             	mov    -0x10(%rbp),%eax
   144c8:	48 63 c8             	movslq %eax,%rcx
   144cb:	48 89 d0             	mov    %rdx,%rax
   144ce:	48 01 c0             	add    %rax,%rax
   144d1:	48 01 d0             	add    %rdx,%rax
   144d4:	48 c1 e0 02          	shl    $0x2,%rax
   144d8:	48 01 d0             	add    %rdx,%rax
   144db:	48 01 c0             	add    %rax,%rax
   144de:	48 6b d1 4e          	imul   $0x4e,%rcx,%rdx
   144e2:	48 01 c2             	add    %rax,%rdx
   144e5:	48 8d 05 e4 8b 00 00 	lea    0x8be4(%rip),%rax        # 1d0d0 <g_162+0x10>
   144ec:	48 01 d0             	add    %rdx,%rax
   144ef:	0f b7 50 06          	movzwl 0x6(%rax),%edx
   144f3:	66 c1 ea 04          	shr    $0x4,%dx
   144f7:	0f b7 d2             	movzwl %dx,%edx
   144fa:	0f b7 40 08          	movzwl 0x8(%rax),%eax
   144fe:	0f b7 c0             	movzwl %ax,%eax
   14501:	25 ff 01 00 00       	and    $0x1ff,%eax
   14506:	48 c1 e0 0c          	shl    $0xc,%rax
   1450a:	48 09 d0             	or     %rdx,%rax
   1450d:	89 c1                	mov    %eax,%ecx
   1450f:	8b 45 fc             	mov    -0x4(%rbp),%eax
   14512:	89 c2                	mov    %eax,%edx
   14514:	48 8d 35 16 54 00 00 	lea    0x5416(%rip),%rsi        # 19931 <g_1750+0x1891>
   1451b:	48 89 cf             	mov    %rcx,%rdi
   1451e:	e8 d0 51 ff ff       	callq  96f3 <transparent_crc>
   14523:	83 7d fc 00          	cmpl   $0x0,-0x4(%rbp)
   14527:	74 1c                	je     14545 <main+0x78b>
   14529:	8b 4d f8             	mov    -0x8(%rbp),%ecx
   1452c:	8b 55 f4             	mov    -0xc(%rbp),%edx
   1452f:	8b 45 f0             	mov    -0x10(%rbp),%eax
   14532:	89 c6                	mov    %eax,%esi
   14534:	48 8d 3d 08 54 00 00 	lea    0x5408(%rip),%rdi        # 19943 <g_1750+0x18a3>
   1453b:	b8 00 00 00 00       	mov    $0x0,%eax
   14540:	e8 3b 3b ff ff       	callq  8080 <printf@plt>
   14545:	83 45 f8 01          	addl   $0x1,-0x8(%rbp)
   14549:	83 7d f8 00          	cmpl   $0x0,-0x8(%rbp)
   1454d:	0f 8e ba fc ff ff    	jle    1420d <main+0x453>
   14553:	83 45 f4 01          	addl   $0x1,-0xc(%rbp)
   14557:	83 7d f4 02          	cmpl   $0x2,-0xc(%rbp)
   1455b:	0f 8e a0 fc ff ff    	jle    14201 <main+0x447>
   14561:	83 45 f0 01          	addl   $0x1,-0x10(%rbp)
   14565:	83 7d f0 04          	cmpl   $0x4,-0x10(%rbp)
   14569:	0f 8e 86 fc ff ff    	jle    141f5 <main+0x43b>
   1456f:	0f b6 05 d0 8c 00 00 	movzbl 0x8cd0(%rip),%eax        # 1d246 <g_329>
   14576:	48 0f be c0          	movsbq %al,%rax
   1457a:	8b 55 fc             	mov    -0x4(%rbp),%edx
   1457d:	48 8d 35 d5 53 00 00 	lea    0x53d5(%rip),%rsi        # 19959 <g_1750+0x18b9>
   14584:	48 89 c7             	mov    %rax,%rdi
   14587:	e8 67 51 ff ff       	callq  96f3 <transparent_crc>
   1458c:	8b 05 b6 8c 00 00    	mov    0x8cb6(%rip),%eax        # 1d248 <g_331>
   14592:	89 c1                	mov    %eax,%ecx
   14594:	8b 45 fc             	mov    -0x4(%rbp),%eax
   14597:	89 c2                	mov    %eax,%edx
   14599:	48 8d 35 bf 53 00 00 	lea    0x53bf(%rip),%rsi        # 1995f <g_1750+0x18bf>
   145a0:	48 89 cf             	mov    %rcx,%rdi
   145a3:	e8 4b 51 ff ff       	callq  96f3 <transparent_crc>
   145a8:	48 8b 05 a1 8c 00 00 	mov    0x8ca1(%rip),%rax        # 1d250 <g_333>
   145af:	48 89 c1             	mov    %rax,%rcx
   145b2:	8b 45 fc             	mov    -0x4(%rbp),%eax
   145b5:	89 c2                	mov    %eax,%edx
   145b7:	48 8d 35 a7 53 00 00 	lea    0x53a7(%rip),%rsi        # 19965 <g_1750+0x18c5>
   145be:	48 89 cf             	mov    %rcx,%rdi
   145c1:	e8 2d 51 ff ff       	callq  96f3 <transparent_crc>
   145c6:	0f b6 05 8b 8c 00 00 	movzbl 0x8c8b(%rip),%eax        # 1d258 <g_343>
   145cd:	48 0f be c0          	movsbq %al,%rax
   145d1:	8b 55 fc             	mov    -0x4(%rbp),%edx
   145d4:	48 8d 35 90 53 00 00 	lea    0x5390(%rip),%rsi        # 1996b <g_1750+0x18cb>
   145db:	48 89 c7             	mov    %rax,%rdi
   145de:	e8 10 51 ff ff       	callq  96f3 <transparent_crc>
   145e3:	8b 05 77 8c 00 00    	mov    0x8c77(%rip),%eax        # 1d260 <g_386>
   145e9:	89 c1                	mov    %eax,%ecx
   145eb:	8b 45 fc             	mov    -0x4(%rbp),%eax
   145ee:	89 c2                	mov    %eax,%edx
   145f0:	48 8d 35 7a 53 00 00 	lea    0x537a(%rip),%rsi        # 19971 <g_1750+0x18d1>
   145f7:	48 89 cf             	mov    %rcx,%rdi
   145fa:	e8 f4 50 ff ff       	callq  96f3 <transparent_crc>
   145ff:	8b 05 5b 8c 00 00    	mov    0x8c5b(%rip),%eax        # 1d260 <g_386>
   14605:	48 98                	cltq   
   14607:	8b 55 fc             	mov    -0x4(%rbp),%edx
   1460a:	48 8d 35 69 53 00 00 	lea    0x5369(%rip),%rsi        # 1997a <g_1750+0x18da>
   14611:	48 89 c7             	mov    %rax,%rdi
   14614:	e8 da 50 ff ff       	callq  96f3 <transparent_crc>
   14619:	0f b7 05 48 8c 00 00 	movzwl 0x8c48(%rip),%eax        # 1d268 <g_404>
   14620:	48 0f bf c0          	movswq %ax,%rax
   14624:	8b 55 fc             	mov    -0x4(%rbp),%edx
   14627:	48 8d 35 55 53 00 00 	lea    0x5355(%rip),%rsi        # 19983 <g_1750+0x18e3>
   1462e:	48 89 c7             	mov    %rax,%rdi
   14631:	e8 bd 50 ff ff       	callq  96f3 <transparent_crc>
   14636:	0f b7 05 2d 8c 00 00 	movzwl 0x8c2d(%rip),%eax        # 1d26a <g_406>
   1463d:	48 0f bf c0          	movswq %ax,%rax
   14641:	8b 55 fc             	mov    -0x4(%rbp),%edx
   14644:	48 8d 35 3e 53 00 00 	lea    0x533e(%rip),%rsi        # 19989 <g_1750+0x18e9>
   1464b:	48 89 c7             	mov    %rax,%rdi
   1464e:	e8 a0 50 ff ff       	callq  96f3 <transparent_crc>
   14653:	48 8b 05 16 8c 00 00 	mov    0x8c16(%rip),%rax        # 1d270 <g_415>
   1465a:	25 ff ff 7f 00       	and    $0x7fffff,%eax
   1465f:	89 c1                	mov    %eax,%ecx
   14661:	8b 45 fc             	mov    -0x4(%rbp),%eax
   14664:	89 c2                	mov    %eax,%edx
   14666:	48 8d 35 22 53 00 00 	lea    0x5322(%rip),%rsi        # 1998f <g_1750+0x18ef>
   1466d:	48 89 cf             	mov    %rcx,%rdi
   14670:	e8 7e 50 ff ff       	callq  96f3 <transparent_crc>
   14675:	48 8b 05 f7 8b 00 00 	mov    0x8bf7(%rip),%rax        # 1d273 <g_415+0x3>
   1467c:	48 89 c1             	mov    %rax,%rcx
   1467f:	8b 45 fc             	mov    -0x4(%rbp),%eax
   14682:	89 c2                	mov    %eax,%edx
   14684:	48 8d 35 0d 53 00 00 	lea    0x530d(%rip),%rsi        # 19998 <g_1750+0x18f8>
   1468b:	48 89 cf             	mov    %rcx,%rdi
   1468e:	e8 60 50 ff ff       	callq  96f3 <transparent_crc>
   14693:	48 8b 05 de 8b 00 00 	mov    0x8bde(%rip),%rax        # 1d278 <g_415+0x8>
   1469a:	48 c1 e8 18          	shr    $0x18,%rax
   1469e:	25 ff ff ff 00       	and    $0xffffff,%eax
   146a3:	89 c1                	mov    %eax,%ecx
   146a5:	8b 45 fc             	mov    -0x4(%rbp),%eax
   146a8:	89 c2                	mov    %eax,%edx
   146aa:	48 8d 35 f0 52 00 00 	lea    0x52f0(%rip),%rsi        # 199a1 <g_1750+0x1901>
   146b1:	48 89 cf             	mov    %rcx,%rdi
   146b4:	e8 3a 50 ff ff       	callq  96f3 <transparent_crc>
   146b9:	48 8b 05 b8 8b 00 00 	mov    0x8bb8(%rip),%rax        # 1d278 <g_415+0x8>
   146c0:	48 c1 e8 30          	shr    $0x30,%rax
   146c4:	48 89 c2             	mov    %rax,%rdx
   146c7:	48 8b 05 b2 8b 00 00 	mov    0x8bb2(%rip),%rax        # 1d280 <g_415+0x10>
   146ce:	25 ff 03 00 00       	and    $0x3ff,%eax
   146d3:	48 c1 e0 10          	shl    $0x10,%rax
   146d7:	48 09 d0             	or     %rdx,%rax
   146da:	89 c1                	mov    %eax,%ecx
   146dc:	8b 45 fc             	mov    -0x4(%rbp),%eax
   146df:	89 c2                	mov    %eax,%edx
   146e1:	48 8d 35 c2 52 00 00 	lea    0x52c2(%rip),%rsi        # 199aa <g_1750+0x190a>
   146e8:	48 89 cf             	mov    %rcx,%rdi
   146eb:	e8 03 50 ff ff       	callq  96f3 <transparent_crc>
   146f0:	48 8b 05 89 8b 00 00 	mov    0x8b89(%rip),%rax        # 1d280 <g_415+0x10>
   146f7:	48 c1 e8 0a          	shr    $0xa,%rax
   146fb:	25 ff ff 7f 00       	and    $0x7fffff,%eax
   14700:	89 c1                	mov    %eax,%ecx
   14702:	8b 45 fc             	mov    -0x4(%rbp),%eax
   14705:	89 c2                	mov    %eax,%edx
   14707:	48 8d 35 a5 52 00 00 	lea    0x52a5(%rip),%rsi        # 199b3 <g_1750+0x1913>
   1470e:	48 89 cf             	mov    %rcx,%rdi
   14711:	e8 dd 4f ff ff       	callq  96f3 <transparent_crc>
   14716:	48 8b 05 63 8b 00 00 	mov    0x8b63(%rip),%rax        # 1d280 <g_415+0x10>
   1471d:	48 c1 e0 18          	shl    $0x18,%rax
   14721:	48 c1 f8 39          	sar    $0x39,%rax
   14725:	48 0f be c0          	movsbq %al,%rax
   14729:	8b 55 fc             	mov    -0x4(%rbp),%edx
   1472c:	48 8d 35 89 52 00 00 	lea    0x5289(%rip),%rsi        # 199bc <g_1750+0x191c>
   14733:	48 89 c7             	mov    %rax,%rdi
   14736:	e8 b8 4f ff ff       	callq  96f3 <transparent_crc>
   1473b:	48 8b 05 3e 8b 00 00 	mov    0x8b3e(%rip),%rax        # 1d280 <g_415+0x10>
   14742:	48 c1 e0 0c          	shl    $0xc,%rax
   14746:	48 c1 f8 34          	sar    $0x34,%rax
   1474a:	48 0f bf c0          	movswq %ax,%rax
   1474e:	8b 55 fc             	mov    -0x4(%rbp),%edx
   14751:	48 8d 35 6d 52 00 00 	lea    0x526d(%rip),%rsi        # 199c5 <g_1750+0x1925>
   14758:	48 89 c7             	mov    %rax,%rdi
   1475b:	e8 93 4f ff ff       	callq  96f3 <transparent_crc>
   14760:	48 8b 05 19 8b 00 00 	mov    0x8b19(%rip),%rax        # 1d280 <g_415+0x10>
   14767:	48 c1 e8 34          	shr    $0x34,%rax
   1476b:	48 89 c2             	mov    %rax,%rdx
   1476e:	48 8b 05 13 8b 00 00 	mov    0x8b13(%rip),%rax        # 1d288 <g_415+0x18>
   14775:	25 ff 01 00 00       	and    $0x1ff,%eax
   1477a:	48 c1 e0 0c          	shl    $0xc,%rax
   1477e:	48 09 d0             	or     %rdx,%rax
   14781:	89 c1                	mov    %eax,%ecx
   14783:	8b 45 fc             	mov    -0x4(%rbp),%eax
   14786:	89 c2                	mov    %eax,%edx
   14788:	48 8d 35 3f 52 00 00 	lea    0x523f(%rip),%rsi        # 199ce <g_1750+0x192e>
   1478f:	48 89 cf             	mov    %rcx,%rdi
   14792:	e8 5c 4f ff ff       	callq  96f3 <transparent_crc>
   14797:	48 8b 05 f2 8a 00 00 	mov    0x8af2(%rip),%rax        # 1d290 <g_448>
   1479e:	48 89 c1             	mov    %rax,%rcx
   147a1:	8b 45 fc             	mov    -0x4(%rbp),%eax
   147a4:	89 c2                	mov    %eax,%edx
   147a6:	48 8d 35 2a 52 00 00 	lea    0x522a(%rip),%rsi        # 199d7 <g_1750+0x1937>
   147ad:	48 89 cf             	mov    %rcx,%rdi
   147b0:	e8 3e 4f ff ff       	callq  96f3 <transparent_crc>
   147b5:	8b 05 d5 8a 00 00    	mov    0x8ad5(%rip),%eax        # 1d290 <g_448>
   147bb:	89 c1                	mov    %eax,%ecx
   147bd:	8b 45 fc             	mov    -0x4(%rbp),%eax
   147c0:	89 c2                	mov    %eax,%edx
   147c2:	48 8d 35 17 52 00 00 	lea    0x5217(%rip),%rsi        # 199e0 <g_1750+0x1940>
   147c9:	48 89 cf             	mov    %rcx,%rdi
   147cc:	e8 22 4f ff ff       	callq  96f3 <transparent_crc>
   147d1:	8b 05 b9 8a 00 00    	mov    0x8ab9(%rip),%eax        # 1d290 <g_448>
   147d7:	48 98                	cltq   
   147d9:	8b 55 fc             	mov    -0x4(%rbp),%edx
   147dc:	48 8d 35 06 52 00 00 	lea    0x5206(%rip),%rsi        # 199e9 <g_1750+0x1949>
   147e3:	48 89 c7             	mov    %rax,%rdi
   147e6:	e8 08 4f ff ff       	callq  96f3 <transparent_crc>
   147eb:	48 8b 05 a6 8a 00 00 	mov    0x8aa6(%rip),%rax        # 1d298 <g_473>
   147f2:	48 89 c1             	mov    %rax,%rcx
   147f5:	8b 45 fc             	mov    -0x4(%rbp),%eax
   147f8:	89 c2                	mov    %eax,%edx
   147fa:	48 8d 35 f1 51 00 00 	lea    0x51f1(%rip),%rsi        # 199f2 <g_1750+0x1952>
   14801:	48 89 cf             	mov    %rcx,%rdi
   14804:	e8 ea 4e ff ff       	callq  96f3 <transparent_crc>
   14809:	8b 05 89 8a 00 00    	mov    0x8a89(%rip),%eax        # 1d298 <g_473>
   1480f:	89 c1                	mov    %eax,%ecx
   14811:	8b 45 fc             	mov    -0x4(%rbp),%eax
   14814:	89 c2                	mov    %eax,%edx
   14816:	48 8d 35 de 51 00 00 	lea    0x51de(%rip),%rsi        # 199fb <g_1750+0x195b>
   1481d:	48 89 cf             	mov    %rcx,%rdi
   14820:	e8 ce 4e ff ff       	callq  96f3 <transparent_crc>
   14825:	8b 05 6d 8a 00 00    	mov    0x8a6d(%rip),%eax        # 1d298 <g_473>
   1482b:	48 98                	cltq   
   1482d:	8b 55 fc             	mov    -0x4(%rbp),%edx
   14830:	48 8d 35 cd 51 00 00 	lea    0x51cd(%rip),%rsi        # 19a04 <g_1750+0x1964>
   14837:	48 89 c7             	mov    %rax,%rdi
   1483a:	e8 b4 4e ff ff       	callq  96f3 <transparent_crc>
   1483f:	0f b7 05 5a 8a 00 00 	movzwl 0x8a5a(%rip),%eax        # 1d2a0 <g_548>
   14846:	0f b7 c0             	movzwl %ax,%eax
   14849:	8b 55 fc             	mov    -0x4(%rbp),%edx
   1484c:	48 8d 35 ba 51 00 00 	lea    0x51ba(%rip),%rsi        # 19a0d <g_1750+0x196d>
   14853:	48 89 c7             	mov    %rax,%rdi
   14856:	e8 98 4e ff ff       	callq  96f3 <transparent_crc>
   1485b:	48 8b 05 46 8a 00 00 	mov    0x8a46(%rip),%rax        # 1d2a8 <g_587>
   14862:	48 89 c1             	mov    %rax,%rcx
   14865:	8b 45 fc             	mov    -0x4(%rbp),%eax
   14868:	89 c2                	mov    %eax,%edx
   1486a:	48 8d 35 a2 51 00 00 	lea    0x51a2(%rip),%rsi        # 19a13 <g_1750+0x1973>
   14871:	48 89 cf             	mov    %rcx,%rdi
   14874:	e8 7a 4e ff ff       	callq  96f3 <transparent_crc>
   14879:	8b 05 29 8a 00 00    	mov    0x8a29(%rip),%eax        # 1d2a8 <g_587>
   1487f:	89 c1                	mov    %eax,%ecx
   14881:	8b 45 fc             	mov    -0x4(%rbp),%eax
   14884:	89 c2                	mov    %eax,%edx
   14886:	48 8d 35 8f 51 00 00 	lea    0x518f(%rip),%rsi        # 19a1c <g_1750+0x197c>
   1488d:	48 89 cf             	mov    %rcx,%rdi
   14890:	e8 5e 4e ff ff       	callq  96f3 <transparent_crc>
   14895:	8b 05 0d 8a 00 00    	mov    0x8a0d(%rip),%eax        # 1d2a8 <g_587>
   1489b:	48 98                	cltq   
   1489d:	8b 55 fc             	mov    -0x4(%rbp),%edx
   148a0:	48 8d 35 7e 51 00 00 	lea    0x517e(%rip),%rsi        # 19a25 <g_1750+0x1985>
   148a7:	48 89 c7             	mov    %rax,%rdi
   148aa:	e8 44 4e ff ff       	callq  96f3 <transparent_crc>
   148af:	48 8b 05 fa 89 00 00 	mov    0x89fa(%rip),%rax        # 1d2b0 <g_605>
   148b6:	8b 55 fc             	mov    -0x4(%rbp),%edx
   148b9:	48 8d 35 6e 51 00 00 	lea    0x516e(%rip),%rsi        # 19a2e <g_1750+0x198e>
   148c0:	48 89 c7             	mov    %rax,%rdi
   148c3:	e8 2b 4e ff ff       	callq  96f3 <transparent_crc>
   148c8:	c7 45 f0 00 00 00 00 	movl   $0x0,-0x10(%rbp)
   148cf:	eb 6c                	jmp    1493d <main+0xb83>
   148d1:	c7 45 f4 00 00 00 00 	movl   $0x0,-0xc(%rbp)
   148d8:	eb 59                	jmp    14933 <main+0xb79>
   148da:	8b 45 f4             	mov    -0xc(%rbp),%eax
   148dd:	48 98                	cltq   
   148df:	8b 55 f0             	mov    -0x10(%rbp),%edx
   148e2:	48 63 d2             	movslq %edx,%rdx
   148e5:	48 c1 e2 02          	shl    $0x2,%rdx
   148e9:	48 01 d0             	add    %rdx,%rax
   148ec:	48 8d 14 00          	lea    (%rax,%rax,1),%rdx
   148f0:	48 8d 05 c9 89 00 00 	lea    0x89c9(%rip),%rax        # 1d2c0 <g_646>
   148f7:	0f b7 04 02          	movzwl (%rdx,%rax,1),%eax
   148fb:	0f b7 c0             	movzwl %ax,%eax
   148fe:	8b 55 fc             	mov    -0x4(%rbp),%edx
   14901:	48 8d 35 2c 51 00 00 	lea    0x512c(%rip),%rsi        # 19a34 <g_1750+0x1994>
   14908:	48 89 c7             	mov    %rax,%rdi
   1490b:	e8 e3 4d ff ff       	callq  96f3 <transparent_crc>
   14910:	83 7d fc 00          	cmpl   $0x0,-0x4(%rbp)
   14914:	74 19                	je     1492f <main+0xb75>
   14916:	8b 55 f4             	mov    -0xc(%rbp),%edx
   14919:	8b 45 f0             	mov    -0x10(%rbp),%eax
   1491c:	89 c6                	mov    %eax,%esi
   1491e:	48 8d 3d c6 4e 00 00 	lea    0x4ec6(%rip),%rdi        # 197eb <g_1750+0x174b>
   14925:	b8 00 00 00 00       	mov    $0x0,%eax
   1492a:	e8 51 37 ff ff       	callq  8080 <printf@plt>
   1492f:	83 45 f4 01          	addl   $0x1,-0xc(%rbp)
   14933:	83 7d f4 03          	cmpl   $0x3,-0xc(%rbp)
   14937:	7e a1                	jle    148da <main+0xb20>
   14939:	83 45 f0 01          	addl   $0x1,-0x10(%rbp)
   1493d:	83 7d f0 01          	cmpl   $0x1,-0x10(%rbp)
   14941:	7e 8e                	jle    148d1 <main+0xb17>
   14943:	c7 45 f0 00 00 00 00 	movl   $0x0,-0x10(%rbp)
   1494a:	eb 4d                	jmp    14999 <main+0xbdf>
   1494c:	8b 45 f0             	mov    -0x10(%rbp),%eax
   1494f:	48 98                	cltq   
   14951:	48 8d 14 85 00 00 00 	lea    0x0(,%rax,4),%rdx
   14958:	00 
   14959:	48 8d 05 70 89 00 00 	lea    0x8970(%rip),%rax        # 1d2d0 <g_659>
   14960:	8b 04 02             	mov    (%rdx,%rax,1),%eax
   14963:	89 c1                	mov    %eax,%ecx
   14965:	8b 45 fc             	mov    -0x4(%rbp),%eax
   14968:	89 c2                	mov    %eax,%edx
   1496a:	48 8d 35 cf 50 00 00 	lea    0x50cf(%rip),%rsi        # 19a40 <g_1750+0x19a0>
   14971:	48 89 cf             	mov    %rcx,%rdi
   14974:	e8 7a 4d ff ff       	callq  96f3 <transparent_crc>
   14979:	83 7d fc 00          	cmpl   $0x0,-0x4(%rbp)
   1497d:	74 16                	je     14995 <main+0xbdb>
   1497f:	8b 45 f0             	mov    -0x10(%rbp),%eax
   14982:	89 c6                	mov    %eax,%esi
   14984:	48 8d 3d be 50 00 00 	lea    0x50be(%rip),%rdi        # 19a49 <g_1750+0x19a9>
   1498b:	b8 00 00 00 00       	mov    $0x0,%eax
   14990:	e8 eb 36 ff ff       	callq  8080 <printf@plt>
   14995:	83 45 f0 01          	addl   $0x1,-0x10(%rbp)
   14999:	83 7d f0 02          	cmpl   $0x2,-0x10(%rbp)
   1499d:	7e ad                	jle    1494c <main+0xb92>
   1499f:	0f b6 05 36 89 00 00 	movzbl 0x8936(%rip),%eax        # 1d2dc <g_700>
   149a6:	48 0f be c0          	movsbq %al,%rax
   149aa:	8b 55 fc             	mov    -0x4(%rbp),%edx
   149ad:	48 8d 35 a3 50 00 00 	lea    0x50a3(%rip),%rsi        # 19a57 <g_1750+0x19b7>
   149b4:	48 89 c7             	mov    %rax,%rdi
   149b7:	e8 37 4d ff ff       	callq  96f3 <transparent_crc>
   149bc:	48 8b 05 1d 89 00 00 	mov    0x891d(%rip),%rax        # 1d2e0 <g_727>
   149c3:	25 ff ff 7f 00       	and    $0x7fffff,%eax
   149c8:	89 c1                	mov    %eax,%ecx
   149ca:	8b 45 fc             	mov    -0x4(%rbp),%eax
   149cd:	89 c2                	mov    %eax,%edx
   149cf:	48 8d 35 87 50 00 00 	lea    0x5087(%rip),%rsi        # 19a5d <g_1750+0x19bd>
   149d6:	48 89 cf             	mov    %rcx,%rdi
   149d9:	e8 15 4d ff ff       	callq  96f3 <transparent_crc>
   149de:	48 8b 05 fe 88 00 00 	mov    0x88fe(%rip),%rax        # 1d2e3 <g_727+0x3>
   149e5:	48 89 c1             	mov    %rax,%rcx
   149e8:	8b 45 fc             	mov    -0x4(%rbp),%eax
   149eb:	89 c2                	mov    %eax,%edx
   149ed:	48 8d 35 72 50 00 00 	lea    0x5072(%rip),%rsi        # 19a66 <g_1750+0x19c6>
   149f4:	48 89 cf             	mov    %rcx,%rdi
   149f7:	e8 f7 4c ff ff       	callq  96f3 <transparent_crc>
   149fc:	48 8b 05 e5 88 00 00 	mov    0x88e5(%rip),%rax        # 1d2e8 <g_727+0x8>
   14a03:	48 c1 e8 18          	shr    $0x18,%rax
   14a07:	25 ff ff ff 00       	and    $0xffffff,%eax
   14a0c:	89 c1                	mov    %eax,%ecx
   14a0e:	8b 45 fc             	mov    -0x4(%rbp),%eax
   14a11:	89 c2                	mov    %eax,%edx
   14a13:	48 8d 35 55 50 00 00 	lea    0x5055(%rip),%rsi        # 19a6f <g_1750+0x19cf>
   14a1a:	48 89 cf             	mov    %rcx,%rdi
   14a1d:	e8 d1 4c ff ff       	callq  96f3 <transparent_crc>
   14a22:	48 8b 05 bf 88 00 00 	mov    0x88bf(%rip),%rax        # 1d2e8 <g_727+0x8>
   14a29:	48 c1 e8 30          	shr    $0x30,%rax
   14a2d:	48 89 c2             	mov    %rax,%rdx
   14a30:	48 8b 05 b9 88 00 00 	mov    0x88b9(%rip),%rax        # 1d2f0 <g_727+0x10>
   14a37:	25 ff 03 00 00       	and    $0x3ff,%eax
   14a3c:	48 c1 e0 10          	shl    $0x10,%rax
   14a40:	48 09 d0             	or     %rdx,%rax
   14a43:	89 c1                	mov    %eax,%ecx
   14a45:	8b 45 fc             	mov    -0x4(%rbp),%eax
   14a48:	89 c2                	mov    %eax,%edx
   14a4a:	48 8d 35 27 50 00 00 	lea    0x5027(%rip),%rsi        # 19a78 <g_1750+0x19d8>
   14a51:	48 89 cf             	mov    %rcx,%rdi
   14a54:	e8 9a 4c ff ff       	callq  96f3 <transparent_crc>
   14a59:	48 8b 05 90 88 00 00 	mov    0x8890(%rip),%rax        # 1d2f0 <g_727+0x10>
   14a60:	48 c1 e8 0a          	shr    $0xa,%rax
   14a64:	25 ff ff 7f 00       	and    $0x7fffff,%eax
   14a69:	89 c1                	mov    %eax,%ecx
   14a6b:	8b 45 fc             	mov    -0x4(%rbp),%eax
   14a6e:	89 c2                	mov    %eax,%edx
   14a70:	48 8d 35 0a 50 00 00 	lea    0x500a(%rip),%rsi        # 19a81 <g_1750+0x19e1>
   14a77:	48 89 cf             	mov    %rcx,%rdi
   14a7a:	e8 74 4c ff ff       	callq  96f3 <transparent_crc>
   14a7f:	48 8b 05 6a 88 00 00 	mov    0x886a(%rip),%rax        # 1d2f0 <g_727+0x10>
   14a86:	48 c1 e0 18          	shl    $0x18,%rax
   14a8a:	48 c1 f8 39          	sar    $0x39,%rax
   14a8e:	48 0f be c0          	movsbq %al,%rax
   14a92:	8b 55 fc             	mov    -0x4(%rbp),%edx
   14a95:	48 8d 35 ee 4f 00 00 	lea    0x4fee(%rip),%rsi        # 19a8a <g_1750+0x19ea>
   14a9c:	48 89 c7             	mov    %rax,%rdi
   14a9f:	e8 4f 4c ff ff       	callq  96f3 <transparent_crc>
   14aa4:	8b 05 4a 88 00 00    	mov    0x884a(%rip),%eax        # 1d2f4 <g_727+0x14>
   14aaa:	c1 e0 0c             	shl    $0xc,%eax
   14aad:	c1 f8 14             	sar    $0x14,%eax
   14ab0:	48 0f bf c0          	movswq %ax,%rax
   14ab4:	8b 55 fc             	mov    -0x4(%rbp),%edx
   14ab7:	48 8d 35 d5 4f 00 00 	lea    0x4fd5(%rip),%rsi        # 19a93 <g_1750+0x19f3>
   14abe:	48 89 c7             	mov    %rax,%rdi
   14ac1:	e8 2d 4c ff ff       	callq  96f3 <transparent_crc>
   14ac6:	48 8b 05 23 88 00 00 	mov    0x8823(%rip),%rax        # 1d2f0 <g_727+0x10>
   14acd:	48 c1 e8 34          	shr    $0x34,%rax
   14ad1:	48 89 c2             	mov    %rax,%rdx
   14ad4:	48 8b 05 1d 88 00 00 	mov    0x881d(%rip),%rax        # 1d2f8 <g_727+0x18>
   14adb:	25 ff 01 00 00       	and    $0x1ff,%eax
   14ae0:	48 c1 e0 0c          	shl    $0xc,%rax
   14ae4:	48 09 d0             	or     %rdx,%rax
   14ae7:	89 c1                	mov    %eax,%ecx
   14ae9:	8b 45 fc             	mov    -0x4(%rbp),%eax
   14aec:	89 c2                	mov    %eax,%edx
   14aee:	48 8d 35 a7 4f 00 00 	lea    0x4fa7(%rip),%rsi        # 19a9c <g_1750+0x19fc>
   14af5:	48 89 cf             	mov    %rcx,%rdi
   14af8:	e8 f6 4b ff ff       	callq  96f3 <transparent_crc>
   14afd:	48 8b 05 fc 87 00 00 	mov    0x87fc(%rip),%rax        # 1d300 <g_794>
   14b04:	8b 55 fc             	mov    -0x4(%rbp),%edx
   14b07:	48 8d 35 97 4f 00 00 	lea    0x4f97(%rip),%rsi        # 19aa5 <g_1750+0x1a05>
   14b0e:	48 89 c7             	mov    %rax,%rdi
   14b11:	e8 dd 4b ff ff       	callq  96f3 <transparent_crc>
   14b16:	c7 45 f0 00 00 00 00 	movl   $0x0,-0x10(%rbp)
   14b1d:	eb 45                	jmp    14b64 <main+0xdaa>
   14b1f:	8b 45 f0             	mov    -0x10(%rbp),%eax
   14b22:	48 98                	cltq   
   14b24:	48 8d 15 dd 87 00 00 	lea    0x87dd(%rip),%rdx        # 1d308 <g_801>
   14b2b:	0f b6 04 10          	movzbl (%rax,%rdx,1),%eax
   14b2f:	0f b6 c0             	movzbl %al,%eax
   14b32:	8b 55 fc             	mov    -0x4(%rbp),%edx
   14b35:	48 8d 35 6f 4f 00 00 	lea    0x4f6f(%rip),%rsi        # 19aab <g_1750+0x1a0b>
   14b3c:	48 89 c7             	mov    %rax,%rdi
   14b3f:	e8 af 4b ff ff       	callq  96f3 <transparent_crc>
   14b44:	83 7d fc 00          	cmpl   $0x0,-0x4(%rbp)
   14b48:	74 16                	je     14b60 <main+0xda6>
   14b4a:	8b 45 f0             	mov    -0x10(%rbp),%eax
   14b4d:	89 c6                	mov    %eax,%esi
   14b4f:	48 8d 3d f3 4e 00 00 	lea    0x4ef3(%rip),%rdi        # 19a49 <g_1750+0x19a9>
   14b56:	b8 00 00 00 00       	mov    $0x0,%eax
   14b5b:	e8 20 35 ff ff       	callq  8080 <printf@plt>
   14b60:	83 45 f0 01          	addl   $0x1,-0x10(%rbp)
   14b64:	83 7d f0 03          	cmpl   $0x3,-0x10(%rbp)
   14b68:	7e b5                	jle    14b1f <main+0xd65>
   14b6a:	48 8b 05 0f 35 00 00 	mov    0x350f(%rip),%rax        # 18080 <g_894>
   14b71:	48 89 c1             	mov    %rax,%rcx
   14b74:	8b 45 fc             	mov    -0x4(%rbp),%eax
   14b77:	89 c2                	mov    %eax,%edx
   14b79:	48 8d 35 34 4f 00 00 	lea    0x4f34(%rip),%rsi        # 19ab4 <g_1750+0x1a14>
   14b80:	48 89 cf             	mov    %rcx,%rdi
   14b83:	e8 6b 4b ff ff       	callq  96f3 <transparent_crc>
   14b88:	8b 05 f2 34 00 00    	mov    0x34f2(%rip),%eax        # 18080 <g_894>
   14b8e:	89 c1                	mov    %eax,%ecx
   14b90:	8b 45 fc             	mov    -0x4(%rbp),%eax
   14b93:	89 c2                	mov    %eax,%edx
   14b95:	48 8d 35 21 4f 00 00 	lea    0x4f21(%rip),%rsi        # 19abd <g_1750+0x1a1d>
   14b9c:	48 89 cf             	mov    %rcx,%rdi
   14b9f:	e8 4f 4b ff ff       	callq  96f3 <transparent_crc>
   14ba4:	b8 01 00 00 00       	mov    $0x1,%eax
   14ba9:	48 98                	cltq   
   14bab:	8b 55 fc             	mov    -0x4(%rbp),%edx
   14bae:	48 8d 35 11 4f 00 00 	lea    0x4f11(%rip),%rsi        # 19ac6 <g_1750+0x1a26>
   14bb5:	48 89 c7             	mov    %rax,%rdi
   14bb8:	e8 36 4b ff ff       	callq  96f3 <transparent_crc>
   14bbd:	c7 45 f0 00 00 00 00 	movl   $0x0,-0x10(%rbp)
   14bc4:	e9 f8 03 00 00       	jmpq   14fc1 <main+0x1207>
   14bc9:	c7 45 f4 00 00 00 00 	movl   $0x0,-0xc(%rbp)
   14bd0:	e9 de 03 00 00       	jmpq   14fb3 <main+0x11f9>
   14bd5:	c7 45 f8 00 00 00 00 	movl   $0x0,-0x8(%rbp)
   14bdc:	e9 c4 03 00 00       	jmpq   14fa5 <main+0x11eb>
   14be1:	8b 45 f8             	mov    -0x8(%rbp),%eax
   14be4:	48 63 d0             	movslq %eax,%rdx
   14be7:	8b 45 f4             	mov    -0xc(%rbp),%eax
   14bea:	48 63 c8             	movslq %eax,%rcx
   14bed:	8b 45 f0             	mov    -0x10(%rbp),%eax
   14bf0:	48 63 f0             	movslq %eax,%rsi
   14bf3:	48 89 d0             	mov    %rdx,%rax
   14bf6:	48 01 c0             	add    %rax,%rax
   14bf9:	48 01 d0             	add    %rdx,%rax
   14bfc:	48 c1 e0 02          	shl    $0x2,%rax
   14c00:	48 01 d0             	add    %rdx,%rax
   14c03:	48 01 c0             	add    %rax,%rax
   14c06:	48 89 ca             	mov    %rcx,%rdx
   14c09:	48 c1 e2 06          	shl    $0x6,%rdx
   14c0d:	48 01 ca             	add    %rcx,%rdx
   14c10:	48 01 d2             	add    %rdx,%rdx
   14c13:	48 01 c2             	add    %rax,%rdx
   14c16:	48 69 c6 14 05 00 00 	imul   $0x514,%rsi,%rax
   14c1d:	48 01 c2             	add    %rax,%rdx
   14c20:	48 8d 05 f9 86 00 00 	lea    0x86f9(%rip),%rax        # 1d320 <g_905>
   14c27:	48 01 d0             	add    %rdx,%rax
   14c2a:	0f b7 10             	movzwl (%rax),%edx
   14c2d:	0f b7 d2             	movzwl %dx,%edx
   14c30:	0f b7 40 02          	movzwl 0x2(%rax),%eax
   14c34:	0f b7 c0             	movzwl %ax,%eax
   14c37:	83 e0 7f             	and    $0x7f,%eax
   14c3a:	48 c1 e0 10          	shl    $0x10,%rax
   14c3e:	48 09 d0             	or     %rdx,%rax
   14c41:	89 c1                	mov    %eax,%ecx
   14c43:	8b 45 fc             	mov    -0x4(%rbp),%eax
   14c46:	89 c2                	mov    %eax,%edx
   14c48:	48 8d 35 80 4e 00 00 	lea    0x4e80(%rip),%rsi        # 19acf <g_1750+0x1a2f>
   14c4f:	48 89 cf             	mov    %rcx,%rdi
   14c52:	e8 9c 4a ff ff       	callq  96f3 <transparent_crc>
   14c57:	8b 45 f8             	mov    -0x8(%rbp),%eax
   14c5a:	48 63 d0             	movslq %eax,%rdx
   14c5d:	8b 45 f4             	mov    -0xc(%rbp),%eax
   14c60:	48 63 c8             	movslq %eax,%rcx
   14c63:	8b 45 f0             	mov    -0x10(%rbp),%eax
   14c66:	48 63 f0             	movslq %eax,%rsi
   14c69:	48 89 d0             	mov    %rdx,%rax
   14c6c:	48 01 c0             	add    %rax,%rax
   14c6f:	48 01 d0             	add    %rdx,%rax
   14c72:	48 c1 e0 02          	shl    $0x2,%rax
   14c76:	48 01 d0             	add    %rdx,%rax
   14c79:	48 01 c0             	add    %rax,%rax
   14c7c:	48 89 ca             	mov    %rcx,%rdx
   14c7f:	48 c1 e2 06          	shl    $0x6,%rdx
   14c83:	48 01 ca             	add    %rcx,%rdx
   14c86:	48 01 d2             	add    %rdx,%rdx
   14c89:	48 01 c2             	add    %rax,%rdx
   14c8c:	48 69 c6 14 05 00 00 	imul   $0x514,%rsi,%rax
   14c93:	48 01 c2             	add    %rax,%rdx
   14c96:	48 8d 05 83 86 00 00 	lea    0x8683(%rip),%rax        # 1d320 <g_905>
   14c9d:	48 01 d0             	add    %rdx,%rax
   14ca0:	48 8b 40 03          	mov    0x3(%rax),%rax
   14ca4:	48 89 c1             	mov    %rax,%rcx
   14ca7:	8b 45 fc             	mov    -0x4(%rbp),%eax
   14caa:	89 c2                	mov    %eax,%edx
   14cac:	48 8d 35 2e 4e 00 00 	lea    0x4e2e(%rip),%rsi        # 19ae1 <g_1750+0x1a41>
   14cb3:	48 89 cf             	mov    %rcx,%rdi
   14cb6:	e8 38 4a ff ff       	callq  96f3 <transparent_crc>
   14cbb:	8b 45 f8             	mov    -0x8(%rbp),%eax
   14cbe:	48 63 d0             	movslq %eax,%rdx
   14cc1:	8b 45 f4             	mov    -0xc(%rbp),%eax
   14cc4:	48 63 c8             	movslq %eax,%rcx
   14cc7:	8b 45 f0             	mov    -0x10(%rbp),%eax
   14cca:	48 63 f0             	movslq %eax,%rsi
   14ccd:	48 89 d0             	mov    %rdx,%rax
   14cd0:	48 01 c0             	add    %rax,%rax
   14cd3:	48 01 d0             	add    %rdx,%rax
   14cd6:	48 c1 e0 02          	shl    $0x2,%rax
   14cda:	48 01 d0             	add    %rdx,%rax
   14cdd:	48 01 c0             	add    %rax,%rax
   14ce0:	48 89 ca             	mov    %rcx,%rdx
   14ce3:	48 c1 e2 06          	shl    $0x6,%rdx
   14ce7:	48 01 ca             	add    %rcx,%rdx
   14cea:	48 01 d2             	add    %rdx,%rdx
   14ced:	48 01 c2             	add    %rax,%rdx
   14cf0:	48 69 c6 14 05 00 00 	imul   $0x514,%rsi,%rax
   14cf7:	48 01 c2             	add    %rax,%rdx
   14cfa:	48 8d 05 1f 86 00 00 	lea    0x861f(%rip),%rax        # 1d320 <g_905>
   14d01:	48 01 d0             	add    %rdx,%rax
   14d04:	0f b6 50 0b          	movzbl 0xb(%rax),%edx
   14d08:	0f b7 40 0c          	movzwl 0xc(%rax),%eax
   14d0c:	48 c1 e0 08          	shl    $0x8,%rax
   14d10:	48 09 d0             	or     %rdx,%rax
   14d13:	89 c1                	mov    %eax,%ecx
   14d15:	8b 45 fc             	mov    -0x4(%rbp),%eax
   14d18:	89 c2                	mov    %eax,%edx
   14d1a:	48 8d 35 d2 4d 00 00 	lea    0x4dd2(%rip),%rsi        # 19af3 <g_1750+0x1a53>
   14d21:	48 89 cf             	mov    %rcx,%rdi
   14d24:	e8 ca 49 ff ff       	callq  96f3 <transparent_crc>
   14d29:	8b 45 f8             	mov    -0x8(%rbp),%eax
   14d2c:	48 63 d0             	movslq %eax,%rdx
   14d2f:	8b 45 f4             	mov    -0xc(%rbp),%eax
   14d32:	48 63 c8             	movslq %eax,%rcx
   14d35:	8b 45 f0             	mov    -0x10(%rbp),%eax
   14d38:	48 63 f0             	movslq %eax,%rsi
   14d3b:	48 89 d0             	mov    %rdx,%rax
   14d3e:	48 01 c0             	add    %rax,%rax
   14d41:	48 01 d0             	add    %rdx,%rax
   14d44:	48 c1 e0 02          	shl    $0x2,%rax
   14d48:	48 01 d0             	add    %rdx,%rax
   14d4b:	48 01 c0             	add    %rax,%rax
   14d4e:	48 89 ca             	mov    %rcx,%rdx
   14d51:	48 c1 e2 06          	shl    $0x6,%rdx
   14d55:	48 01 ca             	add    %rcx,%rdx
   14d58:	48 01 d2             	add    %rdx,%rdx
   14d5b:	48 01 c2             	add    %rax,%rdx
   14d5e:	48 69 c6 14 05 00 00 	imul   $0x514,%rsi,%rax
   14d65:	48 01 c2             	add    %rax,%rdx
   14d68:	48 8d 05 b1 85 00 00 	lea    0x85b1(%rip),%rax        # 1d320 <g_905>
   14d6f:	48 01 d0             	add    %rdx,%rax
   14d72:	0f b7 50 0e          	movzwl 0xe(%rax),%edx
   14d76:	0f b7 d2             	movzwl %dx,%edx
   14d79:	0f b7 40 10          	movzwl 0x10(%rax),%eax
   14d7d:	0f b7 c0             	movzwl %ax,%eax
   14d80:	25 ff 03 00 00       	and    $0x3ff,%eax
   14d85:	48 c1 e0 10          	shl    $0x10,%rax
   14d89:	48 09 d0             	or     %rdx,%rax
   14d8c:	89 c1                	mov    %eax,%ecx
   14d8e:	8b 45 fc             	mov    -0x4(%rbp),%eax
   14d91:	89 c2                	mov    %eax,%edx
   14d93:	48 8d 35 6b 4d 00 00 	lea    0x4d6b(%rip),%rsi        # 19b05 <g_1750+0x1a65>
   14d9a:	48 89 cf             	mov    %rcx,%rdi
   14d9d:	e8 51 49 ff ff       	callq  96f3 <transparent_crc>
   14da2:	8b 45 f8             	mov    -0x8(%rbp),%eax
   14da5:	48 63 d0             	movslq %eax,%rdx
   14da8:	8b 45 f4             	mov    -0xc(%rbp),%eax
   14dab:	48 63 c8             	movslq %eax,%rcx
   14dae:	8b 45 f0             	mov    -0x10(%rbp),%eax
   14db1:	48 63 f0             	movslq %eax,%rsi
   14db4:	48 89 d0             	mov    %rdx,%rax
   14db7:	48 01 c0             	add    %rax,%rax
   14dba:	48 01 d0             	add    %rdx,%rax
   14dbd:	48 c1 e0 02          	shl    $0x2,%rax
   14dc1:	48 01 d0             	add    %rdx,%rax
   14dc4:	48 01 c0             	add    %rax,%rax
   14dc7:	48 69 d6 14 05 00 00 	imul   $0x514,%rsi,%rdx
   14dce:	48 01 c2             	add    %rax,%rdx
   14dd1:	48 89 c8             	mov    %rcx,%rax
   14dd4:	48 c1 e0 06          	shl    $0x6,%rax
   14dd8:	48 01 c8             	add    %rcx,%rax
   14ddb:	48 01 c0             	add    %rax,%rax
   14dde:	48 01 c2             	add    %rax,%rdx
   14de1:	48 8d 05 48 85 00 00 	lea    0x8548(%rip),%rax        # 1d330 <g_905+0x10>
   14de8:	48 01 d0             	add    %rdx,%rax
   14deb:	0f b6 50 01          	movzbl 0x1(%rax),%edx
   14def:	c0 ea 02             	shr    $0x2,%dl
   14df2:	0f b6 d2             	movzbl %dl,%edx
   14df5:	0f b7 48 02          	movzwl 0x2(%rax),%ecx
   14df9:	48 c1 e1 06          	shl    $0x6,%rcx
   14dfd:	48 09 ca             	or     %rcx,%rdx
   14e00:	0f b6 40 04          	movzbl 0x4(%rax),%eax
   14e04:	83 e0 01             	and    $0x1,%eax
   14e07:	48 c1 e0 16          	shl    $0x16,%rax
   14e0b:	48 09 d0             	or     %rdx,%rax
   14e0e:	89 c1                	mov    %eax,%ecx
   14e10:	8b 45 fc             	mov    -0x4(%rbp),%eax
   14e13:	89 c2                	mov    %eax,%edx
   14e15:	48 8d 35 fb 4c 00 00 	lea    0x4cfb(%rip),%rsi        # 19b17 <g_1750+0x1a77>
   14e1c:	48 89 cf             	mov    %rcx,%rdi
   14e1f:	e8 cf 48 ff ff       	callq  96f3 <transparent_crc>
   14e24:	8b 45 f8             	mov    -0x8(%rbp),%eax
   14e27:	48 63 d0             	movslq %eax,%rdx
   14e2a:	8b 45 f4             	mov    -0xc(%rbp),%eax
   14e2d:	48 63 c8             	movslq %eax,%rcx
   14e30:	8b 45 f0             	mov    -0x10(%rbp),%eax
   14e33:	48 63 f0             	movslq %eax,%rsi
   14e36:	48 89 d0             	mov    %rdx,%rax
   14e39:	48 01 c0             	add    %rax,%rax
   14e3c:	48 01 d0             	add    %rdx,%rax
   14e3f:	48 c1 e0 02          	shl    $0x2,%rax
   14e43:	48 01 d0             	add    %rdx,%rax
   14e46:	48 01 c0             	add    %rax,%rax
   14e49:	48 69 d6 14 05 00 00 	imul   $0x514,%rsi,%rdx
   14e50:	48 01 c2             	add    %rax,%rdx
   14e53:	48 89 c8             	mov    %rcx,%rax
   14e56:	48 c1 e0 06          	shl    $0x6,%rax
   14e5a:	48 01 c8             	add    %rcx,%rax
   14e5d:	48 01 c0             	add    %rax,%rax
   14e60:	48 01 c2             	add    %rax,%rdx
   14e63:	48 8d 05 c6 84 00 00 	lea    0x84c6(%rip),%rax        # 1d330 <g_905+0x10>
   14e6a:	48 01 d0             	add    %rdx,%rax
   14e6d:	0f b7 40 04          	movzwl 0x4(%rax),%eax
   14e71:	d0 f8                	sar    %al
   14e73:	48 0f be c0          	movsbq %al,%rax
   14e77:	8b 55 fc             	mov    -0x4(%rbp),%edx
   14e7a:	48 8d 35 a8 4c 00 00 	lea    0x4ca8(%rip),%rsi        # 19b29 <g_1750+0x1a89>
   14e81:	48 89 c7             	mov    %rax,%rdi
   14e84:	e8 6a 48 ff ff       	callq  96f3 <transparent_crc>
   14e89:	8b 45 f8             	mov    -0x8(%rbp),%eax
   14e8c:	48 63 d0             	movslq %eax,%rdx
   14e8f:	8b 45 f4             	mov    -0xc(%rbp),%eax
   14e92:	48 63 c8             	movslq %eax,%rcx
   14e95:	8b 45 f0             	mov    -0x10(%rbp),%eax
   14e98:	48 63 f0             	movslq %eax,%rsi
   14e9b:	48 89 d0             	mov    %rdx,%rax
   14e9e:	48 01 c0             	add    %rax,%rax
   14ea1:	48 01 d0             	add    %rdx,%rax
   14ea4:	48 c1 e0 02          	shl    $0x2,%rax
   14ea8:	48 01 d0             	add    %rdx,%rax
   14eab:	48 01 c0             	add    %rax,%rax
   14eae:	48 69 d6 14 05 00 00 	imul   $0x514,%rsi,%rdx
   14eb5:	48 01 c2             	add    %rax,%rdx
   14eb8:	48 89 c8             	mov    %rcx,%rax
   14ebb:	48 c1 e0 06          	shl    $0x6,%rax
   14ebf:	48 01 c8             	add    %rcx,%rax
   14ec2:	48 01 c0             	add    %rax,%rax
   14ec5:	48 01 c2             	add    %rax,%rdx
   14ec8:	48 8d 05 61 84 00 00 	lea    0x8461(%rip),%rax        # 1d330 <g_905+0x10>
   14ecf:	48 01 d0             	add    %rdx,%rax
   14ed2:	0f b6 50 05          	movzbl 0x5(%rax),%edx
   14ed6:	0f b6 40 06          	movzbl 0x6(%rax),%eax
   14eda:	83 e0 0f             	and    $0xf,%eax
   14edd:	48 c1 e0 08          	shl    $0x8,%rax
   14ee1:	48 09 d0             	or     %rdx,%rax
   14ee4:	48 c1 e0 34          	shl    $0x34,%rax
   14ee8:	48 c1 f8 34          	sar    $0x34,%rax
   14eec:	48 0f bf c0          	movswq %ax,%rax
   14ef0:	8b 55 fc             	mov    -0x4(%rbp),%edx
   14ef3:	48 8d 35 41 4c 00 00 	lea    0x4c41(%rip),%rsi        # 19b3b <g_1750+0x1a9b>
   14efa:	48 89 c7             	mov    %rax,%rdi
   14efd:	e8 f1 47 ff ff       	callq  96f3 <transparent_crc>
   14f02:	8b 45 f8             	mov    -0x8(%rbp),%eax
   14f05:	48 63 d0             	movslq %eax,%rdx
   14f08:	8b 45 f4             	mov    -0xc(%rbp),%eax
   14f0b:	48 63 c8             	movslq %eax,%rcx
   14f0e:	8b 45 f0             	mov    -0x10(%rbp),%eax
   14f11:	48 63 f0             	movslq %eax,%rsi
   14f14:	48 89 d0             	mov    %rdx,%rax
   14f17:	48 01 c0             	add    %rax,%rax
   14f1a:	48 01 d0             	add    %rdx,%rax
   14f1d:	48 c1 e0 02          	shl    $0x2,%rax
   14f21:	48 01 d0             	add    %rdx,%rax
   14f24:	48 01 c0             	add    %rax,%rax
   14f27:	48 69 d6 14 05 00 00 	imul   $0x514,%rsi,%rdx
   14f2e:	48 01 c2             	add    %rax,%rdx
   14f31:	48 89 c8             	mov    %rcx,%rax
   14f34:	48 c1 e0 06          	shl    $0x6,%rax
   14f38:	48 01 c8             	add    %rcx,%rax
   14f3b:	48 01 c0             	add    %rax,%rax
   14f3e:	48 01 c2             	add    %rax,%rdx
   14f41:	48 8d 05 e8 83 00 00 	lea    0x83e8(%rip),%rax        # 1d330 <g_905+0x10>
   14f48:	48 01 d0             	add    %rdx,%rax
   14f4b:	0f b7 50 06          	movzwl 0x6(%rax),%edx
   14f4f:	66 c1 ea 04          	shr    $0x4,%dx
   14f53:	0f b7 d2             	movzwl %dx,%edx
   14f56:	0f b7 40 08          	movzwl 0x8(%rax),%eax
   14f5a:	0f b7 c0             	movzwl %ax,%eax
   14f5d:	25 ff 01 00 00       	and    $0x1ff,%eax
   14f62:	48 c1 e0 0c          	shl    $0xc,%rax
   14f66:	48 09 d0             	or     %rdx,%rax
   14f69:	89 c1                	mov    %eax,%ecx
   14f6b:	8b 45 fc             	mov    -0x4(%rbp),%eax
   14f6e:	89 c2                	mov    %eax,%edx
   14f70:	48 8d 35 d6 4b 00 00 	lea    0x4bd6(%rip),%rsi        # 19b4d <g_1750+0x1aad>
   14f77:	48 89 cf             	mov    %rcx,%rdi
   14f7a:	e8 74 47 ff ff       	callq  96f3 <transparent_crc>
   14f7f:	83 7d fc 00          	cmpl   $0x0,-0x4(%rbp)
   14f83:	74 1c                	je     14fa1 <main+0x11e7>
   14f85:	8b 4d f8             	mov    -0x8(%rbp),%ecx
   14f88:	8b 55 f4             	mov    -0xc(%rbp),%edx
   14f8b:	8b 45 f0             	mov    -0x10(%rbp),%eax
   14f8e:	89 c6                	mov    %eax,%esi
   14f90:	48 8d 3d ac 49 00 00 	lea    0x49ac(%rip),%rdi        # 19943 <g_1750+0x18a3>
   14f97:	b8 00 00 00 00       	mov    $0x0,%eax
   14f9c:	e8 df 30 ff ff       	callq  8080 <printf@plt>
   14fa1:	83 45 f8 01          	addl   $0x1,-0x8(%rbp)
   14fa5:	83 7d f8 04          	cmpl   $0x4,-0x8(%rbp)
   14fa9:	0f 8e 32 fc ff ff    	jle    14be1 <main+0xe27>
   14faf:	83 45 f4 01          	addl   $0x1,-0xc(%rbp)
   14fb3:	83 7d f4 09          	cmpl   $0x9,-0xc(%rbp)
   14fb7:	0f 8e 18 fc ff ff    	jle    14bd5 <main+0xe1b>
   14fbd:	83 45 f0 01          	addl   $0x1,-0x10(%rbp)
   14fc1:	83 7d f0 04          	cmpl   $0x4,-0x10(%rbp)
   14fc5:	0f 8e fe fb ff ff    	jle    14bc9 <main+0xe0f>
   14fcb:	8b 05 b3 9c 00 00    	mov    0x9cb3(%rip),%eax        # 1ec84 <g_959>
   14fd1:	89 c1                	mov    %eax,%ecx
   14fd3:	8b 45 fc             	mov    -0x4(%rbp),%eax
   14fd6:	89 c2                	mov    %eax,%edx
   14fd8:	48 8d 35 80 4b 00 00 	lea    0x4b80(%rip),%rsi        # 19b5f <g_1750+0x1abf>
   14fdf:	48 89 cf             	mov    %rcx,%rdi
   14fe2:	e8 0c 47 ff ff       	callq  96f3 <transparent_crc>
   14fe7:	0f b6 05 9a dc 00 00 	movzbl 0xdc9a(%rip),%eax        # 22c88 <g_975>
   14fee:	0f b6 c0             	movzbl %al,%eax
   14ff1:	8b 55 fc             	mov    -0x4(%rbp),%edx
   14ff4:	48 8d 35 6a 4b 00 00 	lea    0x4b6a(%rip),%rsi        # 19b65 <g_1750+0x1ac5>
   14ffb:	48 89 c7             	mov    %rax,%rdi
   14ffe:	e8 f0 46 ff ff       	callq  96f3 <transparent_crc>
   15003:	48 8b 05 86 9c 00 00 	mov    0x9c86(%rip),%rax        # 1ec90 <g_1022>
   1500a:	25 ff ff 7f 00       	and    $0x7fffff,%eax
   1500f:	89 c1                	mov    %eax,%ecx
   15011:	8b 45 fc             	mov    -0x4(%rbp),%eax
   15014:	89 c2                	mov    %eax,%edx
   15016:	48 8d 35 4e 4b 00 00 	lea    0x4b4e(%rip),%rsi        # 19b6b <g_1750+0x1acb>
   1501d:	48 89 cf             	mov    %rcx,%rdi
   15020:	e8 ce 46 ff ff       	callq  96f3 <transparent_crc>
   15025:	48 8b 05 67 9c 00 00 	mov    0x9c67(%rip),%rax        # 1ec93 <g_1022+0x3>
   1502c:	48 89 c1             	mov    %rax,%rcx
   1502f:	8b 45 fc             	mov    -0x4(%rbp),%eax
   15032:	89 c2                	mov    %eax,%edx
   15034:	48 8d 35 3a 4b 00 00 	lea    0x4b3a(%rip),%rsi        # 19b75 <g_1750+0x1ad5>
   1503b:	48 89 cf             	mov    %rcx,%rdi
   1503e:	e8 b0 46 ff ff       	callq  96f3 <transparent_crc>
   15043:	48 8b 05 4e 9c 00 00 	mov    0x9c4e(%rip),%rax        # 1ec98 <g_1022+0x8>
   1504a:	48 c1 e8 18          	shr    $0x18,%rax
   1504e:	25 ff ff ff 00       	and    $0xffffff,%eax
   15053:	89 c1                	mov    %eax,%ecx
   15055:	8b 45 fc             	mov    -0x4(%rbp),%eax
   15058:	89 c2                	mov    %eax,%edx
   1505a:	48 8d 35 1e 4b 00 00 	lea    0x4b1e(%rip),%rsi        # 19b7f <g_1750+0x1adf>
   15061:	48 89 cf             	mov    %rcx,%rdi
   15064:	e8 8a 46 ff ff       	callq  96f3 <transparent_crc>
   15069:	48 8b 05 28 9c 00 00 	mov    0x9c28(%rip),%rax        # 1ec98 <g_1022+0x8>
   15070:	48 c1 e8 30          	shr    $0x30,%rax
   15074:	48 89 c2             	mov    %rax,%rdx
   15077:	48 8b 05 22 9c 00 00 	mov    0x9c22(%rip),%rax        # 1eca0 <g_1022+0x10>
   1507e:	25 ff 03 00 00       	and    $0x3ff,%eax
   15083:	48 c1 e0 10          	shl    $0x10,%rax
   15087:	48 09 d0             	or     %rdx,%rax
   1508a:	89 c1                	mov    %eax,%ecx
   1508c:	8b 45 fc             	mov    -0x4(%rbp),%eax
   1508f:	89 c2                	mov    %eax,%edx
   15091:	48 8d 35 f1 4a 00 00 	lea    0x4af1(%rip),%rsi        # 19b89 <g_1750+0x1ae9>
   15098:	48 89 cf             	mov    %rcx,%rdi
   1509b:	e8 53 46 ff ff       	callq  96f3 <transparent_crc>
   150a0:	48 8b 05 f9 9b 00 00 	mov    0x9bf9(%rip),%rax        # 1eca0 <g_1022+0x10>
   150a7:	48 c1 e8 0a          	shr    $0xa,%rax
   150ab:	25 ff ff 7f 00       	and    $0x7fffff,%eax
   150b0:	89 c1                	mov    %eax,%ecx
   150b2:	8b 45 fc             	mov    -0x4(%rbp),%eax
   150b5:	89 c2                	mov    %eax,%edx
   150b7:	48 8d 35 d5 4a 00 00 	lea    0x4ad5(%rip),%rsi        # 19b93 <g_1750+0x1af3>
   150be:	48 89 cf             	mov    %rcx,%rdi
   150c1:	e8 2d 46 ff ff       	callq  96f3 <transparent_crc>
   150c6:	48 8b 05 d3 9b 00 00 	mov    0x9bd3(%rip),%rax        # 1eca0 <g_1022+0x10>
   150cd:	48 c1 e0 18          	shl    $0x18,%rax
   150d1:	48 c1 f8 39          	sar    $0x39,%rax
   150d5:	48 0f be c0          	movsbq %al,%rax
   150d9:	8b 55 fc             	mov    -0x4(%rbp),%edx
   150dc:	48 8d 35 ba 4a 00 00 	lea    0x4aba(%rip),%rsi        # 19b9d <g_1750+0x1afd>
   150e3:	48 89 c7             	mov    %rax,%rdi
   150e6:	e8 08 46 ff ff       	callq  96f3 <transparent_crc>
   150eb:	48 8b 05 ae 9b 00 00 	mov    0x9bae(%rip),%rax        # 1eca0 <g_1022+0x10>
   150f2:	48 c1 e0 0c          	shl    $0xc,%rax
   150f6:	48 c1 f8 34          	sar    $0x34,%rax
   150fa:	48 0f bf c0          	movswq %ax,%rax
   150fe:	8b 55 fc             	mov    -0x4(%rbp),%edx
   15101:	48 8d 35 9f 4a 00 00 	lea    0x4a9f(%rip),%rsi        # 19ba7 <g_1750+0x1b07>
   15108:	48 89 c7             	mov    %rax,%rdi
   1510b:	e8 e3 45 ff ff       	callq  96f3 <transparent_crc>
   15110:	48 8b 05 89 9b 00 00 	mov    0x9b89(%rip),%rax        # 1eca0 <g_1022+0x10>
   15117:	48 c1 e8 34          	shr    $0x34,%rax
   1511b:	48 89 c2             	mov    %rax,%rdx
   1511e:	48 8b 05 83 9b 00 00 	mov    0x9b83(%rip),%rax        # 1eca8 <g_1022+0x18>
   15125:	25 ff 01 00 00       	and    $0x1ff,%eax
   1512a:	48 c1 e0 0c          	shl    $0xc,%rax
   1512e:	48 09 d0             	or     %rdx,%rax
   15131:	89 c1                	mov    %eax,%ecx
   15133:	8b 45 fc             	mov    -0x4(%rbp),%eax
   15136:	89 c2                	mov    %eax,%edx
   15138:	48 8d 35 72 4a 00 00 	lea    0x4a72(%rip),%rsi        # 19bb1 <g_1750+0x1b11>
   1513f:	48 89 cf             	mov    %rcx,%rdi
   15142:	e8 ac 45 ff ff       	callq  96f3 <transparent_crc>
   15147:	8b 05 5f 9b 00 00    	mov    0x9b5f(%rip),%eax        # 1ecac <g_1026>
   1514d:	89 c1                	mov    %eax,%ecx
   1514f:	8b 45 fc             	mov    -0x4(%rbp),%eax
   15152:	89 c2                	mov    %eax,%edx
   15154:	48 8d 35 60 4a 00 00 	lea    0x4a60(%rip),%rsi        # 19bbb <g_1750+0x1b1b>
   1515b:	48 89 cf             	mov    %rcx,%rdi
   1515e:	e8 90 45 ff ff       	callq  96f3 <transparent_crc>
   15163:	48 8b 05 1e 2f 00 00 	mov    0x2f1e(%rip),%rax        # 18088 <g_1034>
   1516a:	48 89 c1             	mov    %rax,%rcx
   1516d:	8b 45 fc             	mov    -0x4(%rbp),%eax
   15170:	89 c2                	mov    %eax,%edx
   15172:	48 8d 35 49 4a 00 00 	lea    0x4a49(%rip),%rsi        # 19bc2 <g_1750+0x1b22>
   15179:	48 89 cf             	mov    %rcx,%rdi
   1517c:	e8 72 45 ff ff       	callq  96f3 <transparent_crc>
   15181:	8b 05 01 2f 00 00    	mov    0x2f01(%rip),%eax        # 18088 <g_1034>
   15187:	89 c1                	mov    %eax,%ecx
   15189:	8b 45 fc             	mov    -0x4(%rbp),%eax
   1518c:	89 c2                	mov    %eax,%edx
   1518e:	48 8d 35 37 4a 00 00 	lea    0x4a37(%rip),%rsi        # 19bcc <g_1750+0x1b2c>
   15195:	48 89 cf             	mov    %rcx,%rdi
   15198:	e8 56 45 ff ff       	callq  96f3 <transparent_crc>
   1519d:	b8 ff ff ff ff       	mov    $0xffffffff,%eax
   151a2:	48 98                	cltq   
   151a4:	8b 55 fc             	mov    -0x4(%rbp),%edx
   151a7:	48 8d 35 28 4a 00 00 	lea    0x4a28(%rip),%rsi        # 19bd6 <g_1750+0x1b36>
   151ae:	48 89 c7             	mov    %rax,%rdi
   151b1:	e8 3d 45 ff ff       	callq  96f3 <transparent_crc>
   151b6:	48 8b 05 f3 9a 00 00 	mov    0x9af3(%rip),%rax        # 1ecb0 <g_1081>
   151bd:	25 ff ff 7f 00       	and    $0x7fffff,%eax
   151c2:	89 c1                	mov    %eax,%ecx
   151c4:	8b 45 fc             	mov    -0x4(%rbp),%eax
   151c7:	89 c2                	mov    %eax,%edx
   151c9:	48 8d 35 10 4a 00 00 	lea    0x4a10(%rip),%rsi        # 19be0 <g_1750+0x1b40>
   151d0:	48 89 cf             	mov    %rcx,%rdi
   151d3:	e8 1b 45 ff ff       	callq  96f3 <transparent_crc>
   151d8:	48 8b 05 d4 9a 00 00 	mov    0x9ad4(%rip),%rax        # 1ecb3 <g_1081+0x3>
   151df:	48 89 c1             	mov    %rax,%rcx
   151e2:	8b 45 fc             	mov    -0x4(%rbp),%eax
   151e5:	89 c2                	mov    %eax,%edx
   151e7:	48 8d 35 fc 49 00 00 	lea    0x49fc(%rip),%rsi        # 19bea <g_1750+0x1b4a>
   151ee:	48 89 cf             	mov    %rcx,%rdi
   151f1:	e8 fd 44 ff ff       	callq  96f3 <transparent_crc>
   151f6:	48 8b 05 bb 9a 00 00 	mov    0x9abb(%rip),%rax        # 1ecb8 <g_1081+0x8>
   151fd:	48 c1 e8 18          	shr    $0x18,%rax
   15201:	25 ff ff ff 00       	and    $0xffffff,%eax
   15206:	89 c1                	mov    %eax,%ecx
   15208:	8b 45 fc             	mov    -0x4(%rbp),%eax
   1520b:	89 c2                	mov    %eax,%edx
   1520d:	48 8d 35 e0 49 00 00 	lea    0x49e0(%rip),%rsi        # 19bf4 <g_1750+0x1b54>
   15214:	48 89 cf             	mov    %rcx,%rdi
   15217:	e8 d7 44 ff ff       	callq  96f3 <transparent_crc>
   1521c:	48 8b 05 95 9a 00 00 	mov    0x9a95(%rip),%rax        # 1ecb8 <g_1081+0x8>
   15223:	48 c1 e8 30          	shr    $0x30,%rax
   15227:	48 89 c2             	mov    %rax,%rdx
   1522a:	48 8b 05 8f 9a 00 00 	mov    0x9a8f(%rip),%rax        # 1ecc0 <g_1081+0x10>
   15231:	25 ff 03 00 00       	and    $0x3ff,%eax
   15236:	48 c1 e0 10          	shl    $0x10,%rax
   1523a:	48 09 d0             	or     %rdx,%rax
   1523d:	89 c1                	mov    %eax,%ecx
   1523f:	8b 45 fc             	mov    -0x4(%rbp),%eax
   15242:	89 c2                	mov    %eax,%edx
   15244:	48 8d 35 b3 49 00 00 	lea    0x49b3(%rip),%rsi        # 19bfe <g_1750+0x1b5e>
   1524b:	48 89 cf             	mov    %rcx,%rdi
   1524e:	e8 a0 44 ff ff       	callq  96f3 <transparent_crc>
   15253:	48 8b 05 66 9a 00 00 	mov    0x9a66(%rip),%rax        # 1ecc0 <g_1081+0x10>
   1525a:	48 c1 e8 0a          	shr    $0xa,%rax
   1525e:	25 ff ff 7f 00       	and    $0x7fffff,%eax
   15263:	89 c1                	mov    %eax,%ecx
   15265:	8b 45 fc             	mov    -0x4(%rbp),%eax
   15268:	89 c2                	mov    %eax,%edx
   1526a:	48 8d 35 97 49 00 00 	lea    0x4997(%rip),%rsi        # 19c08 <g_1750+0x1b68>
   15271:	48 89 cf             	mov    %rcx,%rdi
   15274:	e8 7a 44 ff ff       	callq  96f3 <transparent_crc>
   15279:	48 8b 05 40 9a 00 00 	mov    0x9a40(%rip),%rax        # 1ecc0 <g_1081+0x10>
   15280:	48 c1 e0 18          	shl    $0x18,%rax
   15284:	48 c1 f8 39          	sar    $0x39,%rax
   15288:	48 0f be c0          	movsbq %al,%rax
   1528c:	8b 55 fc             	mov    -0x4(%rbp),%edx
   1528f:	48 8d 35 7c 49 00 00 	lea    0x497c(%rip),%rsi        # 19c12 <g_1750+0x1b72>
   15296:	48 89 c7             	mov    %rax,%rdi
   15299:	e8 55 44 ff ff       	callq  96f3 <transparent_crc>
   1529e:	8b 05 20 9a 00 00    	mov    0x9a20(%rip),%eax        # 1ecc4 <g_1081+0x14>
   152a4:	c1 e0 0c             	shl    $0xc,%eax
   152a7:	c1 f8 14             	sar    $0x14,%eax
   152aa:	48 0f bf c0          	movswq %ax,%rax
   152ae:	8b 55 fc             	mov    -0x4(%rbp),%edx
   152b1:	48 8d 35 64 49 00 00 	lea    0x4964(%rip),%rsi        # 19c1c <g_1750+0x1b7c>
   152b8:	48 89 c7             	mov    %rax,%rdi
   152bb:	e8 33 44 ff ff       	callq  96f3 <transparent_crc>
   152c0:	48 8b 05 f9 99 00 00 	mov    0x99f9(%rip),%rax        # 1ecc0 <g_1081+0x10>
   152c7:	48 c1 e8 34          	shr    $0x34,%rax
   152cb:	48 89 c2             	mov    %rax,%rdx
   152ce:	48 8b 05 f3 99 00 00 	mov    0x99f3(%rip),%rax        # 1ecc8 <g_1081+0x18>
   152d5:	25 ff 01 00 00       	and    $0x1ff,%eax
   152da:	48 c1 e0 0c          	shl    $0xc,%rax
   152de:	48 09 d0             	or     %rdx,%rax
   152e1:	89 c1                	mov    %eax,%ecx
   152e3:	8b 45 fc             	mov    -0x4(%rbp),%eax
   152e6:	89 c2                	mov    %eax,%edx
   152e8:	48 8d 35 37 49 00 00 	lea    0x4937(%rip),%rsi        # 19c26 <g_1750+0x1b86>
   152ef:	48 89 cf             	mov    %rcx,%rdi
   152f2:	e8 fc 43 ff ff       	callq  96f3 <transparent_crc>
   152f7:	48 8b 05 d2 99 00 00 	mov    0x99d2(%rip),%rax        # 1ecd0 <g_1082>
   152fe:	25 ff ff 7f 00       	and    $0x7fffff,%eax
   15303:	89 c1                	mov    %eax,%ecx
   15305:	8b 45 fc             	mov    -0x4(%rbp),%eax
   15308:	89 c2                	mov    %eax,%edx
   1530a:	48 8d 35 1f 49 00 00 	lea    0x491f(%rip),%rsi        # 19c30 <g_1750+0x1b90>
   15311:	48 89 cf             	mov    %rcx,%rdi
   15314:	e8 da 43 ff ff       	callq  96f3 <transparent_crc>
   15319:	48 8b 05 b3 99 00 00 	mov    0x99b3(%rip),%rax        # 1ecd3 <g_1082+0x3>
   15320:	48 89 c1             	mov    %rax,%rcx
   15323:	8b 45 fc             	mov    -0x4(%rbp),%eax
   15326:	89 c2                	mov    %eax,%edx
   15328:	48 8d 35 0b 49 00 00 	lea    0x490b(%rip),%rsi        # 19c3a <g_1750+0x1b9a>
   1532f:	48 89 cf             	mov    %rcx,%rdi
   15332:	e8 bc 43 ff ff       	callq  96f3 <transparent_crc>
   15337:	48 8b 05 9a 99 00 00 	mov    0x999a(%rip),%rax        # 1ecd8 <g_1082+0x8>
   1533e:	48 c1 e8 18          	shr    $0x18,%rax
   15342:	25 ff ff ff 00       	and    $0xffffff,%eax
   15347:	89 c1                	mov    %eax,%ecx
   15349:	8b 45 fc             	mov    -0x4(%rbp),%eax
   1534c:	89 c2                	mov    %eax,%edx
   1534e:	48 8d 35 ef 48 00 00 	lea    0x48ef(%rip),%rsi        # 19c44 <g_1750+0x1ba4>
   15355:	48 89 cf             	mov    %rcx,%rdi
   15358:	e8 96 43 ff ff       	callq  96f3 <transparent_crc>
   1535d:	48 8b 05 74 99 00 00 	mov    0x9974(%rip),%rax        # 1ecd8 <g_1082+0x8>
   15364:	48 c1 e8 30          	shr    $0x30,%rax
   15368:	48 89 c2             	mov    %rax,%rdx
   1536b:	48 8b 05 6e 99 00 00 	mov    0x996e(%rip),%rax        # 1ece0 <g_1082+0x10>
   15372:	25 ff 03 00 00       	and    $0x3ff,%eax
   15377:	48 c1 e0 10          	shl    $0x10,%rax
   1537b:	48 09 d0             	or     %rdx,%rax
   1537e:	89 c1                	mov    %eax,%ecx
   15380:	8b 45 fc             	mov    -0x4(%rbp),%eax
   15383:	89 c2                	mov    %eax,%edx
   15385:	48 8d 35 c2 48 00 00 	lea    0x48c2(%rip),%rsi        # 19c4e <g_1750+0x1bae>
   1538c:	48 89 cf             	mov    %rcx,%rdi
   1538f:	e8 5f 43 ff ff       	callq  96f3 <transparent_crc>
   15394:	48 8b 05 45 99 00 00 	mov    0x9945(%rip),%rax        # 1ece0 <g_1082+0x10>
   1539b:	48 c1 e8 0a          	shr    $0xa,%rax
   1539f:	25 ff ff 7f 00       	and    $0x7fffff,%eax
   153a4:	89 c1                	mov    %eax,%ecx
   153a6:	8b 45 fc             	mov    -0x4(%rbp),%eax
   153a9:	89 c2                	mov    %eax,%edx
   153ab:	48 8d 35 a6 48 00 00 	lea    0x48a6(%rip),%rsi        # 19c58 <g_1750+0x1bb8>
   153b2:	48 89 cf             	mov    %rcx,%rdi
   153b5:	e8 39 43 ff ff       	callq  96f3 <transparent_crc>
   153ba:	48 8b 05 1f 99 00 00 	mov    0x991f(%rip),%rax        # 1ece0 <g_1082+0x10>
   153c1:	48 c1 e0 18          	shl    $0x18,%rax
   153c5:	48 c1 f8 39          	sar    $0x39,%rax
   153c9:	48 0f be c0          	movsbq %al,%rax
   153cd:	8b 55 fc             	mov    -0x4(%rbp),%edx
   153d0:	48 8d 35 8b 48 00 00 	lea    0x488b(%rip),%rsi        # 19c62 <g_1750+0x1bc2>
   153d7:	48 89 c7             	mov    %rax,%rdi
   153da:	e8 14 43 ff ff       	callq  96f3 <transparent_crc>
   153df:	8b 05 ff 98 00 00    	mov    0x98ff(%rip),%eax        # 1ece4 <g_1082+0x14>
   153e5:	c1 e0 0c             	shl    $0xc,%eax
   153e8:	c1 f8 14             	sar    $0x14,%eax
   153eb:	48 0f bf c0          	movswq %ax,%rax
   153ef:	8b 55 fc             	mov    -0x4(%rbp),%edx
   153f2:	48 8d 35 73 48 00 00 	lea    0x4873(%rip),%rsi        # 19c6c <g_1750+0x1bcc>
   153f9:	48 89 c7             	mov    %rax,%rdi
   153fc:	e8 f2 42 ff ff       	callq  96f3 <transparent_crc>
   15401:	48 8b 05 d8 98 00 00 	mov    0x98d8(%rip),%rax        # 1ece0 <g_1082+0x10>
   15408:	48 c1 e8 34          	shr    $0x34,%rax
   1540c:	48 89 c2             	mov    %rax,%rdx
   1540f:	48 8b 05 d2 98 00 00 	mov    0x98d2(%rip),%rax        # 1ece8 <g_1082+0x18>
   15416:	25 ff 01 00 00       	and    $0x1ff,%eax
   1541b:	48 c1 e0 0c          	shl    $0xc,%rax
   1541f:	48 09 d0             	or     %rdx,%rax
   15422:	89 c1                	mov    %eax,%ecx
   15424:	8b 45 fc             	mov    -0x4(%rbp),%eax
   15427:	89 c2                	mov    %eax,%edx
   15429:	48 8d 35 46 48 00 00 	lea    0x4846(%rip),%rsi        # 19c76 <g_1750+0x1bd6>
   15430:	48 89 cf             	mov    %rcx,%rdi
   15433:	e8 bb 42 ff ff       	callq  96f3 <transparent_crc>
   15438:	48 8b 05 b1 98 00 00 	mov    0x98b1(%rip),%rax        # 1ecf0 <g_1115>
   1543f:	48 89 c1             	mov    %rax,%rcx
   15442:	8b 45 fc             	mov    -0x4(%rbp),%eax
   15445:	89 c2                	mov    %eax,%edx
   15447:	48 8d 35 32 48 00 00 	lea    0x4832(%rip),%rsi        # 19c80 <g_1750+0x1be0>
   1544e:	48 89 cf             	mov    %rcx,%rdi
   15451:	e8 9d 42 ff ff       	callq  96f3 <transparent_crc>
   15456:	8b 05 94 98 00 00    	mov    0x9894(%rip),%eax        # 1ecf0 <g_1115>
   1545c:	89 c1                	mov    %eax,%ecx
   1545e:	8b 45 fc             	mov    -0x4(%rbp),%eax
   15461:	89 c2                	mov    %eax,%edx
   15463:	48 8d 35 20 48 00 00 	lea    0x4820(%rip),%rsi        # 19c8a <g_1750+0x1bea>
   1546a:	48 89 cf             	mov    %rcx,%rdi
   1546d:	e8 81 42 ff ff       	callq  96f3 <transparent_crc>
   15472:	8b 05 78 98 00 00    	mov    0x9878(%rip),%eax        # 1ecf0 <g_1115>
   15478:	48 98                	cltq   
   1547a:	8b 55 fc             	mov    -0x4(%rbp),%edx
   1547d:	48 8d 35 10 48 00 00 	lea    0x4810(%rip),%rsi        # 19c94 <g_1750+0x1bf4>
   15484:	48 89 c7             	mov    %rax,%rdi
   15487:	e8 67 42 ff ff       	callq  96f3 <transparent_crc>
   1548c:	48 8b 05 6d 98 00 00 	mov    0x986d(%rip),%rax        # 1ed00 <g_1126>
   15493:	25 ff ff 7f 00       	and    $0x7fffff,%eax
   15498:	89 c1                	mov    %eax,%ecx
   1549a:	8b 45 fc             	mov    -0x4(%rbp),%eax
   1549d:	89 c2                	mov    %eax,%edx
   1549f:	48 8d 35 f8 47 00 00 	lea    0x47f8(%rip),%rsi        # 19c9e <g_1750+0x1bfe>
   154a6:	48 89 cf             	mov    %rcx,%rdi
   154a9:	e8 45 42 ff ff       	callq  96f3 <transparent_crc>
   154ae:	48 8b 05 4e 98 00 00 	mov    0x984e(%rip),%rax        # 1ed03 <g_1126+0x3>
   154b5:	48 89 c1             	mov    %rax,%rcx
   154b8:	8b 45 fc             	mov    -0x4(%rbp),%eax
   154bb:	89 c2                	mov    %eax,%edx
   154bd:	48 8d 35 e4 47 00 00 	lea    0x47e4(%rip),%rsi        # 19ca8 <g_1750+0x1c08>
   154c4:	48 89 cf             	mov    %rcx,%rdi
   154c7:	e8 27 42 ff ff       	callq  96f3 <transparent_crc>
   154cc:	48 8b 05 35 98 00 00 	mov    0x9835(%rip),%rax        # 1ed08 <g_1126+0x8>
   154d3:	48 c1 e8 18          	shr    $0x18,%rax
   154d7:	25 ff ff ff 00       	and    $0xffffff,%eax
   154dc:	89 c1                	mov    %eax,%ecx
   154de:	8b 45 fc             	mov    -0x4(%rbp),%eax
   154e1:	89 c2                	mov    %eax,%edx
   154e3:	48 8d 35 c8 47 00 00 	lea    0x47c8(%rip),%rsi        # 19cb2 <g_1750+0x1c12>
   154ea:	48 89 cf             	mov    %rcx,%rdi
   154ed:	e8 01 42 ff ff       	callq  96f3 <transparent_crc>
   154f2:	48 8b 05 0f 98 00 00 	mov    0x980f(%rip),%rax        # 1ed08 <g_1126+0x8>
   154f9:	48 c1 e8 30          	shr    $0x30,%rax
   154fd:	48 89 c2             	mov    %rax,%rdx
   15500:	48 8b 05 09 98 00 00 	mov    0x9809(%rip),%rax        # 1ed10 <g_1126+0x10>
   15507:	25 ff 03 00 00       	and    $0x3ff,%eax
   1550c:	48 c1 e0 10          	shl    $0x10,%rax
   15510:	48 09 d0             	or     %rdx,%rax
   15513:	89 c1                	mov    %eax,%ecx
   15515:	8b 45 fc             	mov    -0x4(%rbp),%eax
   15518:	89 c2                	mov    %eax,%edx
   1551a:	48 8d 35 9b 47 00 00 	lea    0x479b(%rip),%rsi        # 19cbc <g_1750+0x1c1c>
   15521:	48 89 cf             	mov    %rcx,%rdi
   15524:	e8 ca 41 ff ff       	callq  96f3 <transparent_crc>
   15529:	48 8b 05 e0 97 00 00 	mov    0x97e0(%rip),%rax        # 1ed10 <g_1126+0x10>
   15530:	48 c1 e8 0a          	shr    $0xa,%rax
   15534:	25 ff ff 7f 00       	and    $0x7fffff,%eax
   15539:	89 c1                	mov    %eax,%ecx
   1553b:	8b 45 fc             	mov    -0x4(%rbp),%eax
   1553e:	89 c2                	mov    %eax,%edx
   15540:	48 8d 35 7f 47 00 00 	lea    0x477f(%rip),%rsi        # 19cc6 <g_1750+0x1c26>
   15547:	48 89 cf             	mov    %rcx,%rdi
   1554a:	e8 a4 41 ff ff       	callq  96f3 <transparent_crc>
   1554f:	48 8b 05 ba 97 00 00 	mov    0x97ba(%rip),%rax        # 1ed10 <g_1126+0x10>
   15556:	48 c1 e0 18          	shl    $0x18,%rax
   1555a:	48 c1 f8 39          	sar    $0x39,%rax
   1555e:	48 0f be c0          	movsbq %al,%rax
   15562:	8b 55 fc             	mov    -0x4(%rbp),%edx
   15565:	48 8d 35 64 47 00 00 	lea    0x4764(%rip),%rsi        # 19cd0 <g_1750+0x1c30>
   1556c:	48 89 c7             	mov    %rax,%rdi
   1556f:	e8 7f 41 ff ff       	callq  96f3 <transparent_crc>
   15574:	8b 05 9a 97 00 00    	mov    0x979a(%rip),%eax        # 1ed14 <g_1126+0x14>
   1557a:	c1 e0 0c             	shl    $0xc,%eax
   1557d:	c1 f8 14             	sar    $0x14,%eax
   15580:	48 0f bf c0          	movswq %ax,%rax
   15584:	8b 55 fc             	mov    -0x4(%rbp),%edx
   15587:	48 8d 35 4c 47 00 00 	lea    0x474c(%rip),%rsi        # 19cda <g_1750+0x1c3a>
   1558e:	48 89 c7             	mov    %rax,%rdi
   15591:	e8 5d 41 ff ff       	callq  96f3 <transparent_crc>
   15596:	48 8b 05 73 97 00 00 	mov    0x9773(%rip),%rax        # 1ed10 <g_1126+0x10>
   1559d:	48 c1 e8 34          	shr    $0x34,%rax
   155a1:	48 89 c2             	mov    %rax,%rdx
   155a4:	48 8b 05 6d 97 00 00 	mov    0x976d(%rip),%rax        # 1ed18 <g_1126+0x18>
   155ab:	25 ff 01 00 00       	and    $0x1ff,%eax
   155b0:	48 c1 e0 0c          	shl    $0xc,%rax
   155b4:	48 09 d0             	or     %rdx,%rax
   155b7:	89 c1                	mov    %eax,%ecx
   155b9:	8b 45 fc             	mov    -0x4(%rbp),%eax
   155bc:	89 c2                	mov    %eax,%edx
   155be:	48 8d 35 1f 47 00 00 	lea    0x471f(%rip),%rsi        # 19ce4 <g_1750+0x1c44>
   155c5:	48 89 cf             	mov    %rcx,%rdi
   155c8:	e8 26 41 ff ff       	callq  96f3 <transparent_crc>
   155cd:	48 8b 05 4c 97 00 00 	mov    0x974c(%rip),%rax        # 1ed20 <g_1127>
   155d4:	25 ff ff 7f 00       	and    $0x7fffff,%eax
   155d9:	89 c1                	mov    %eax,%ecx
   155db:	8b 45 fc             	mov    -0x4(%rbp),%eax
   155de:	89 c2                	mov    %eax,%edx
   155e0:	48 8d 35 07 47 00 00 	lea    0x4707(%rip),%rsi        # 19cee <g_1750+0x1c4e>
   155e7:	48 89 cf             	mov    %rcx,%rdi
   155ea:	e8 04 41 ff ff       	callq  96f3 <transparent_crc>
   155ef:	48 8b 05 2d 97 00 00 	mov    0x972d(%rip),%rax        # 1ed23 <g_1127+0x3>
   155f6:	48 89 c1             	mov    %rax,%rcx
   155f9:	8b 45 fc             	mov    -0x4(%rbp),%eax
   155fc:	89 c2                	mov    %eax,%edx
   155fe:	48 8d 35 f3 46 00 00 	lea    0x46f3(%rip),%rsi        # 19cf8 <g_1750+0x1c58>
   15605:	48 89 cf             	mov    %rcx,%rdi
   15608:	e8 e6 40 ff ff       	callq  96f3 <transparent_crc>
   1560d:	48 8b 05 14 97 00 00 	mov    0x9714(%rip),%rax        # 1ed28 <g_1127+0x8>
   15614:	48 c1 e8 18          	shr    $0x18,%rax
   15618:	25 ff ff ff 00       	and    $0xffffff,%eax
   1561d:	89 c1                	mov    %eax,%ecx
   1561f:	8b 45 fc             	mov    -0x4(%rbp),%eax
   15622:	89 c2                	mov    %eax,%edx
   15624:	48 8d 35 d7 46 00 00 	lea    0x46d7(%rip),%rsi        # 19d02 <g_1750+0x1c62>
   1562b:	48 89 cf             	mov    %rcx,%rdi
   1562e:	e8 c0 40 ff ff       	callq  96f3 <transparent_crc>
   15633:	48 8b 05 ee 96 00 00 	mov    0x96ee(%rip),%rax        # 1ed28 <g_1127+0x8>
   1563a:	48 c1 e8 30          	shr    $0x30,%rax
   1563e:	48 89 c2             	mov    %rax,%rdx
   15641:	48 8b 05 e8 96 00 00 	mov    0x96e8(%rip),%rax        # 1ed30 <g_1127+0x10>
   15648:	25 ff 03 00 00       	and    $0x3ff,%eax
   1564d:	48 c1 e0 10          	shl    $0x10,%rax
   15651:	48 09 d0             	or     %rdx,%rax
   15654:	89 c1                	mov    %eax,%ecx
   15656:	8b 45 fc             	mov    -0x4(%rbp),%eax
   15659:	89 c2                	mov    %eax,%edx
   1565b:	48 8d 35 aa 46 00 00 	lea    0x46aa(%rip),%rsi        # 19d0c <g_1750+0x1c6c>
   15662:	48 89 cf             	mov    %rcx,%rdi
   15665:	e8 89 40 ff ff       	callq  96f3 <transparent_crc>
   1566a:	48 8b 05 bf 96 00 00 	mov    0x96bf(%rip),%rax        # 1ed30 <g_1127+0x10>
   15671:	48 c1 e8 0a          	shr    $0xa,%rax
   15675:	25 ff ff 7f 00       	and    $0x7fffff,%eax
   1567a:	89 c1                	mov    %eax,%ecx
   1567c:	8b 45 fc             	mov    -0x4(%rbp),%eax
   1567f:	89 c2                	mov    %eax,%edx
   15681:	48 8d 35 8e 46 00 00 	lea    0x468e(%rip),%rsi        # 19d16 <g_1750+0x1c76>
   15688:	48 89 cf             	mov    %rcx,%rdi
   1568b:	e8 63 40 ff ff       	callq  96f3 <transparent_crc>
   15690:	48 8b 05 99 96 00 00 	mov    0x9699(%rip),%rax        # 1ed30 <g_1127+0x10>
   15697:	48 c1 e0 18          	shl    $0x18,%rax
   1569b:	48 c1 f8 39          	sar    $0x39,%rax
   1569f:	48 0f be c0          	movsbq %al,%rax
   156a3:	8b 55 fc             	mov    -0x4(%rbp),%edx
   156a6:	48 8d 35 73 46 00 00 	lea    0x4673(%rip),%rsi        # 19d20 <g_1750+0x1c80>
   156ad:	48 89 c7             	mov    %rax,%rdi
   156b0:	e8 3e 40 ff ff       	callq  96f3 <transparent_crc>
   156b5:	8b 05 79 96 00 00    	mov    0x9679(%rip),%eax        # 1ed34 <g_1127+0x14>
   156bb:	c1 e0 0c             	shl    $0xc,%eax
   156be:	c1 f8 14             	sar    $0x14,%eax
   156c1:	48 0f bf c0          	movswq %ax,%rax
   156c5:	8b 55 fc             	mov    -0x4(%rbp),%edx
   156c8:	48 8d 35 5b 46 00 00 	lea    0x465b(%rip),%rsi        # 19d2a <g_1750+0x1c8a>
   156cf:	48 89 c7             	mov    %rax,%rdi
   156d2:	e8 1c 40 ff ff       	callq  96f3 <transparent_crc>
   156d7:	48 8b 05 52 96 00 00 	mov    0x9652(%rip),%rax        # 1ed30 <g_1127+0x10>
   156de:	48 c1 e8 34          	shr    $0x34,%rax
   156e2:	48 89 c2             	mov    %rax,%rdx
   156e5:	48 8b 05 4c 96 00 00 	mov    0x964c(%rip),%rax        # 1ed38 <g_1127+0x18>
   156ec:	25 ff 01 00 00       	and    $0x1ff,%eax
   156f1:	48 c1 e0 0c          	shl    $0xc,%rax
   156f5:	48 09 d0             	or     %rdx,%rax
   156f8:	89 c1                	mov    %eax,%ecx
   156fa:	8b 45 fc             	mov    -0x4(%rbp),%eax
   156fd:	89 c2                	mov    %eax,%edx
   156ff:	48 8d 35 2e 46 00 00 	lea    0x462e(%rip),%rsi        # 19d34 <g_1750+0x1c94>
   15706:	48 89 cf             	mov    %rcx,%rdi
   15709:	e8 e5 3f ff ff       	callq  96f3 <transparent_crc>
   1570e:	8b 05 2c 96 00 00    	mov    0x962c(%rip),%eax        # 1ed40 <g_1148>
   15714:	89 c1                	mov    %eax,%ecx
   15716:	8b 45 fc             	mov    -0x4(%rbp),%eax
   15719:	89 c2                	mov    %eax,%edx
   1571b:	48 8d 35 1c 46 00 00 	lea    0x461c(%rip),%rsi        # 19d3e <g_1750+0x1c9e>
   15722:	48 89 cf             	mov    %rcx,%rdi
   15725:	e8 c9 3f ff ff       	callq  96f3 <transparent_crc>
   1572a:	8b 05 10 96 00 00    	mov    0x9610(%rip),%eax        # 1ed40 <g_1148>
   15730:	48 98                	cltq   
   15732:	8b 55 fc             	mov    -0x4(%rbp),%edx
   15735:	48 8d 35 0c 46 00 00 	lea    0x460c(%rip),%rsi        # 19d48 <g_1750+0x1ca8>
   1573c:	48 89 c7             	mov    %rax,%rdi
   1573f:	e8 af 3f ff ff       	callq  96f3 <transparent_crc>
   15744:	c7 45 f0 00 00 00 00 	movl   $0x0,-0x10(%rbp)
   1574b:	eb 46                	jmp    15793 <main+0x19d9>
   1574d:	8b 45 f0             	mov    -0x10(%rbp),%eax
   15750:	48 98                	cltq   
   15752:	48 8d 15 ef 95 00 00 	lea    0x95ef(%rip),%rdx        # 1ed48 <g_1165>
   15759:	0f b6 04 10          	movzbl (%rax,%rdx,1),%eax
   1575d:	48 0f be c0          	movsbq %al,%rax
   15761:	8b 55 fc             	mov    -0x4(%rbp),%edx
   15764:	48 8d 35 e7 45 00 00 	lea    0x45e7(%rip),%rsi        # 19d52 <g_1750+0x1cb2>
   1576b:	48 89 c7             	mov    %rax,%rdi
   1576e:	e8 80 3f ff ff       	callq  96f3 <transparent_crc>
   15773:	83 7d fc 00          	cmpl   $0x0,-0x4(%rbp)
   15777:	74 16                	je     1578f <main+0x19d5>
   15779:	8b 45 f0             	mov    -0x10(%rbp),%eax
   1577c:	89 c6                	mov    %eax,%esi
   1577e:	48 8d 3d c4 42 00 00 	lea    0x42c4(%rip),%rdi        # 19a49 <g_1750+0x19a9>
   15785:	b8 00 00 00 00       	mov    $0x0,%eax
   1578a:	e8 f1 28 ff ff       	callq  8080 <printf@plt>
   1578f:	83 45 f0 01          	addl   $0x1,-0x10(%rbp)
   15793:	83 7d f0 02          	cmpl   $0x2,-0x10(%rbp)
   15797:	7e b4                	jle    1574d <main+0x1993>
   15799:	48 c7 c0 fa ff ff ff 	mov    $0xfffffffffffffffa,%rax
   157a0:	48 89 c1             	mov    %rax,%rcx
   157a3:	8b 45 fc             	mov    -0x4(%rbp),%eax
   157a6:	89 c2                	mov    %eax,%edx
   157a8:	48 8d 35 ad 45 00 00 	lea    0x45ad(%rip),%rsi        # 19d5c <g_1750+0x1cbc>
   157af:	48 89 cf             	mov    %rcx,%rdi
   157b2:	e8 3c 3f ff ff       	callq  96f3 <transparent_crc>
   157b7:	c7 45 f0 00 00 00 00 	movl   $0x0,-0x10(%rbp)
   157be:	eb 4d                	jmp    1580d <main+0x1a53>
   157c0:	8b 45 f0             	mov    -0x10(%rbp),%eax
   157c3:	48 98                	cltq   
   157c5:	48 8d 14 85 00 00 00 	lea    0x0(,%rax,4),%rdx
   157cc:	00 
   157cd:	48 8d 05 7c 95 00 00 	lea    0x957c(%rip),%rax        # 1ed50 <g_1220>
   157d4:	8b 04 02             	mov    (%rdx,%rax,1),%eax
   157d7:	89 c1                	mov    %eax,%ecx
   157d9:	8b 45 fc             	mov    -0x4(%rbp),%eax
   157dc:	89 c2                	mov    %eax,%edx
   157de:	48 8d 35 7e 45 00 00 	lea    0x457e(%rip),%rsi        # 19d63 <g_1750+0x1cc3>
   157e5:	48 89 cf             	mov    %rcx,%rdi
   157e8:	e8 06 3f ff ff       	callq  96f3 <transparent_crc>
   157ed:	83 7d fc 00          	cmpl   $0x0,-0x4(%rbp)
   157f1:	74 16                	je     15809 <main+0x1a4f>
   157f3:	8b 45 f0             	mov    -0x10(%rbp),%eax
   157f6:	89 c6                	mov    %eax,%esi
   157f8:	48 8d 3d 4a 42 00 00 	lea    0x424a(%rip),%rdi        # 19a49 <g_1750+0x19a9>
   157ff:	b8 00 00 00 00       	mov    $0x0,%eax
   15804:	e8 77 28 ff ff       	callq  8080 <printf@plt>
   15809:	83 45 f0 01          	addl   $0x1,-0x10(%rbp)
   1580d:	83 7d f0 02          	cmpl   $0x2,-0x10(%rbp)
   15811:	7e ad                	jle    157c0 <main+0x1a06>
   15813:	48 8b 05 46 95 00 00 	mov    0x9546(%rip),%rax        # 1ed60 <g_1227>
   1581a:	25 ff ff 7f 00       	and    $0x7fffff,%eax
   1581f:	89 c1                	mov    %eax,%ecx
   15821:	8b 45 fc             	mov    -0x4(%rbp),%eax
   15824:	89 c2                	mov    %eax,%edx
   15826:	48 8d 35 40 45 00 00 	lea    0x4540(%rip),%rsi        # 19d6d <g_1750+0x1ccd>
   1582d:	48 89 cf             	mov    %rcx,%rdi
   15830:	e8 be 3e ff ff       	callq  96f3 <transparent_crc>
   15835:	48 8b 05 27 95 00 00 	mov    0x9527(%rip),%rax        # 1ed63 <g_1227+0x3>
   1583c:	48 89 c1             	mov    %rax,%rcx
   1583f:	8b 45 fc             	mov    -0x4(%rbp),%eax
   15842:	89 c2                	mov    %eax,%edx
   15844:	48 8d 35 2c 45 00 00 	lea    0x452c(%rip),%rsi        # 19d77 <g_1750+0x1cd7>
   1584b:	48 89 cf             	mov    %rcx,%rdi
   1584e:	e8 a0 3e ff ff       	callq  96f3 <transparent_crc>
   15853:	48 8b 05 0e 95 00 00 	mov    0x950e(%rip),%rax        # 1ed68 <g_1227+0x8>
   1585a:	48 c1 e8 18          	shr    $0x18,%rax
   1585e:	25 ff ff ff 00       	and    $0xffffff,%eax
   15863:	89 c1                	mov    %eax,%ecx
   15865:	8b 45 fc             	mov    -0x4(%rbp),%eax
   15868:	89 c2                	mov    %eax,%edx
   1586a:	48 8d 35 10 45 00 00 	lea    0x4510(%rip),%rsi        # 19d81 <g_1750+0x1ce1>
   15871:	48 89 cf             	mov    %rcx,%rdi
   15874:	e8 7a 3e ff ff       	callq  96f3 <transparent_crc>
   15879:	48 8b 05 e8 94 00 00 	mov    0x94e8(%rip),%rax        # 1ed68 <g_1227+0x8>
   15880:	48 c1 e8 30          	shr    $0x30,%rax
   15884:	48 89 c2             	mov    %rax,%rdx
   15887:	48 8b 05 e2 94 00 00 	mov    0x94e2(%rip),%rax        # 1ed70 <g_1227+0x10>
   1588e:	25 ff 03 00 00       	and    $0x3ff,%eax
   15893:	48 c1 e0 10          	shl    $0x10,%rax
   15897:	48 09 d0             	or     %rdx,%rax
   1589a:	89 c1                	mov    %eax,%ecx
   1589c:	8b 45 fc             	mov    -0x4(%rbp),%eax
   1589f:	89 c2                	mov    %eax,%edx
   158a1:	48 8d 35 e3 44 00 00 	lea    0x44e3(%rip),%rsi        # 19d8b <g_1750+0x1ceb>
   158a8:	48 89 cf             	mov    %rcx,%rdi
   158ab:	e8 43 3e ff ff       	callq  96f3 <transparent_crc>
   158b0:	48 8b 05 b9 94 00 00 	mov    0x94b9(%rip),%rax        # 1ed70 <g_1227+0x10>
   158b7:	48 c1 e8 0a          	shr    $0xa,%rax
   158bb:	25 ff ff 7f 00       	and    $0x7fffff,%eax
   158c0:	89 c1                	mov    %eax,%ecx
   158c2:	8b 45 fc             	mov    -0x4(%rbp),%eax
   158c5:	89 c2                	mov    %eax,%edx
   158c7:	48 8d 35 c7 44 00 00 	lea    0x44c7(%rip),%rsi        # 19d95 <g_1750+0x1cf5>
   158ce:	48 89 cf             	mov    %rcx,%rdi
   158d1:	e8 1d 3e ff ff       	callq  96f3 <transparent_crc>
   158d6:	48 8b 05 93 94 00 00 	mov    0x9493(%rip),%rax        # 1ed70 <g_1227+0x10>
   158dd:	48 c1 e0 18          	shl    $0x18,%rax
   158e1:	48 c1 f8 39          	sar    $0x39,%rax
   158e5:	48 0f be c0          	movsbq %al,%rax
   158e9:	8b 55 fc             	mov    -0x4(%rbp),%edx
   158ec:	48 8d 35 ac 44 00 00 	lea    0x44ac(%rip),%rsi        # 19d9f <g_1750+0x1cff>
   158f3:	48 89 c7             	mov    %rax,%rdi
   158f6:	e8 f8 3d ff ff       	callq  96f3 <transparent_crc>
   158fb:	48 8b 05 6e 94 00 00 	mov    0x946e(%rip),%rax        # 1ed70 <g_1227+0x10>
   15902:	48 c1 e0 0c          	shl    $0xc,%rax
   15906:	48 c1 f8 34          	sar    $0x34,%rax
   1590a:	48 0f bf c0          	movswq %ax,%rax
   1590e:	8b 55 fc             	mov    -0x4(%rbp),%edx
   15911:	48 8d 35 91 44 00 00 	lea    0x4491(%rip),%rsi        # 19da9 <g_1750+0x1d09>
   15918:	48 89 c7             	mov    %rax,%rdi
   1591b:	e8 d3 3d ff ff       	callq  96f3 <transparent_crc>
   15920:	48 8b 05 49 94 00 00 	mov    0x9449(%rip),%rax        # 1ed70 <g_1227+0x10>
   15927:	48 c1 e8 34          	shr    $0x34,%rax
   1592b:	48 89 c2             	mov    %rax,%rdx
   1592e:	48 8b 05 43 94 00 00 	mov    0x9443(%rip),%rax        # 1ed78 <g_1227+0x18>
   15935:	25 ff 01 00 00       	and    $0x1ff,%eax
   1593a:	48 c1 e0 0c          	shl    $0xc,%rax
   1593e:	48 09 d0             	or     %rdx,%rax
   15941:	89 c1                	mov    %eax,%ecx
   15943:	8b 45 fc             	mov    -0x4(%rbp),%eax
   15946:	89 c2                	mov    %eax,%edx
   15948:	48 8d 35 64 44 00 00 	lea    0x4464(%rip),%rsi        # 19db3 <g_1750+0x1d13>
   1594f:	48 89 cf             	mov    %rcx,%rdi
   15952:	e8 9c 3d ff ff       	callq  96f3 <transparent_crc>
   15957:	c7 45 f0 00 00 00 00 	movl   $0x0,-0x10(%rbp)
   1595e:	e9 b7 02 00 00       	jmpq   15c1a <main+0x1e60>
   15963:	8b 45 f0             	mov    -0x10(%rbp),%eax
   15966:	48 63 d0             	movslq %eax,%rdx
   15969:	48 89 d0             	mov    %rdx,%rax
   1596c:	48 01 c0             	add    %rax,%rax
   1596f:	48 01 d0             	add    %rdx,%rax
   15972:	48 c1 e0 02          	shl    $0x2,%rax
   15976:	48 01 d0             	add    %rdx,%rax
   15979:	48 01 c0             	add    %rax,%rax
   1597c:	48 89 c2             	mov    %rax,%rdx
   1597f:	48 8d 05 fa 93 00 00 	lea    0x93fa(%rip),%rax        # 1ed80 <g_1305>
   15986:	0f b7 0c 02          	movzwl (%rdx,%rax,1),%ecx
   1598a:	0f b7 c9             	movzwl %cx,%ecx
   1598d:	0f b7 44 02 02       	movzwl 0x2(%rdx,%rax,1),%eax
   15992:	0f b7 c0             	movzwl %ax,%eax
   15995:	83 e0 7f             	and    $0x7f,%eax
   15998:	48 c1 e0 10          	shl    $0x10,%rax
   1599c:	48 09 c8             	or     %rcx,%rax
   1599f:	89 c1                	mov    %eax,%ecx
   159a1:	8b 45 fc             	mov    -0x4(%rbp),%eax
   159a4:	89 c2                	mov    %eax,%edx
   159a6:	48 8d 35 10 44 00 00 	lea    0x4410(%rip),%rsi        # 19dbd <g_1750+0x1d1d>
   159ad:	48 89 cf             	mov    %rcx,%rdi
   159b0:	e8 3e 3d ff ff       	callq  96f3 <transparent_crc>
   159b5:	8b 45 f0             	mov    -0x10(%rbp),%eax
   159b8:	48 63 d0             	movslq %eax,%rdx
   159bb:	48 89 d0             	mov    %rdx,%rax
   159be:	48 01 c0             	add    %rax,%rax
   159c1:	48 01 d0             	add    %rdx,%rax
   159c4:	48 c1 e0 02          	shl    $0x2,%rax
   159c8:	48 01 d0             	add    %rdx,%rax
   159cb:	48 01 c0             	add    %rax,%rax
   159ce:	48 89 c2             	mov    %rax,%rdx
   159d1:	48 8d 05 a8 93 00 00 	lea    0x93a8(%rip),%rax        # 1ed80 <g_1305>
   159d8:	48 8b 44 02 03       	mov    0x3(%rdx,%rax,1),%rax
   159dd:	48 89 c1             	mov    %rax,%rcx
   159e0:	8b 45 fc             	mov    -0x4(%rbp),%eax
   159e3:	89 c2                	mov    %eax,%edx
   159e5:	48 8d 35 de 43 00 00 	lea    0x43de(%rip),%rsi        # 19dca <g_1750+0x1d2a>
   159ec:	48 89 cf             	mov    %rcx,%rdi
   159ef:	e8 ff 3c ff ff       	callq  96f3 <transparent_crc>
   159f4:	8b 45 f0             	mov    -0x10(%rbp),%eax
   159f7:	48 63 d0             	movslq %eax,%rdx
   159fa:	48 89 d0             	mov    %rdx,%rax
   159fd:	48 01 c0             	add    %rax,%rax
   15a00:	48 01 d0             	add    %rdx,%rax
   15a03:	48 c1 e0 02          	shl    $0x2,%rax
   15a07:	48 01 d0             	add    %rdx,%rax
   15a0a:	48 01 c0             	add    %rax,%rax
   15a0d:	48 89 c2             	mov    %rax,%rdx
   15a10:	48 8d 05 69 93 00 00 	lea    0x9369(%rip),%rax        # 1ed80 <g_1305>
   15a17:	0f b7 4c 02 0a       	movzwl 0xa(%rdx,%rax,1),%ecx
   15a1c:	66 c1 e9 08          	shr    $0x8,%cx
   15a20:	0f b7 c9             	movzwl %cx,%ecx
   15a23:	0f b7 44 02 0c       	movzwl 0xc(%rdx,%rax,1),%eax
   15a28:	0f b7 c0             	movzwl %ax,%eax
   15a2b:	48 c1 e0 08          	shl    $0x8,%rax
   15a2f:	48 09 c8             	or     %rcx,%rax
   15a32:	89 c1                	mov    %eax,%ecx
   15a34:	8b 45 fc             	mov    -0x4(%rbp),%eax
   15a37:	89 c2                	mov    %eax,%edx
   15a39:	48 8d 35 97 43 00 00 	lea    0x4397(%rip),%rsi        # 19dd7 <g_1750+0x1d37>
   15a40:	48 89 cf             	mov    %rcx,%rdi
   15a43:	e8 ab 3c ff ff       	callq  96f3 <transparent_crc>
   15a48:	8b 45 f0             	mov    -0x10(%rbp),%eax
   15a4b:	48 63 d0             	movslq %eax,%rdx
   15a4e:	48 89 d0             	mov    %rdx,%rax
   15a51:	48 01 c0             	add    %rax,%rax
   15a54:	48 01 d0             	add    %rdx,%rax
   15a57:	48 c1 e0 02          	shl    $0x2,%rax
   15a5b:	48 01 d0             	add    %rdx,%rax
   15a5e:	48 01 c0             	add    %rax,%rax
   15a61:	48 89 c2             	mov    %rax,%rdx
   15a64:	48 8d 05 15 93 00 00 	lea    0x9315(%rip),%rax        # 1ed80 <g_1305>
   15a6b:	0f b7 4c 02 0e       	movzwl 0xe(%rdx,%rax,1),%ecx
   15a70:	0f b7 c9             	movzwl %cx,%ecx
   15a73:	0f b7 44 02 10       	movzwl 0x10(%rdx,%rax,1),%eax
   15a78:	0f b7 c0             	movzwl %ax,%eax
   15a7b:	25 ff 03 00 00       	and    $0x3ff,%eax
   15a80:	48 c1 e0 10          	shl    $0x10,%rax
   15a84:	48 09 c8             	or     %rcx,%rax
   15a87:	89 c1                	mov    %eax,%ecx
   15a89:	8b 45 fc             	mov    -0x4(%rbp),%eax
   15a8c:	89 c2                	mov    %eax,%edx
   15a8e:	48 8d 35 4f 43 00 00 	lea    0x434f(%rip),%rsi        # 19de4 <g_1750+0x1d44>
   15a95:	48 89 cf             	mov    %rcx,%rdi
   15a98:	e8 56 3c ff ff       	callq  96f3 <transparent_crc>
   15a9d:	8b 45 f0             	mov    -0x10(%rbp),%eax
   15aa0:	48 63 d0             	movslq %eax,%rdx
   15aa3:	48 89 d0             	mov    %rdx,%rax
   15aa6:	48 01 c0             	add    %rax,%rax
   15aa9:	48 01 d0             	add    %rdx,%rax
   15aac:	48 c1 e0 02          	shl    $0x2,%rax
   15ab0:	48 01 d0             	add    %rdx,%rax
   15ab3:	48 01 c0             	add    %rax,%rax
   15ab6:	48 89 c2             	mov    %rax,%rdx
   15ab9:	48 8d 05 d0 92 00 00 	lea    0x92d0(%rip),%rax        # 1ed90 <g_1305+0x10>
   15ac0:	0f b7 0c 02          	movzwl (%rdx,%rax,1),%ecx
   15ac4:	66 c1 e9 0a          	shr    $0xa,%cx
   15ac8:	0f b7 c9             	movzwl %cx,%ecx
   15acb:	0f b7 74 02 02       	movzwl 0x2(%rdx,%rax,1),%esi
   15ad0:	0f b7 f6             	movzwl %si,%esi
   15ad3:	48 c1 e6 06          	shl    $0x6,%rsi
   15ad7:	48 09 f1             	or     %rsi,%rcx
   15ada:	0f b7 44 02 04       	movzwl 0x4(%rdx,%rax,1),%eax
   15adf:	0f b7 c0             	movzwl %ax,%eax
   15ae2:	83 e0 01             	and    $0x1,%eax
   15ae5:	48 c1 e0 16          	shl    $0x16,%rax
   15ae9:	48 09 c8             	or     %rcx,%rax
   15aec:	89 c1                	mov    %eax,%ecx
   15aee:	8b 45 fc             	mov    -0x4(%rbp),%eax
   15af1:	89 c2                	mov    %eax,%edx
   15af3:	48 8d 35 f7 42 00 00 	lea    0x42f7(%rip),%rsi        # 19df1 <g_1750+0x1d51>
   15afa:	48 89 cf             	mov    %rcx,%rdi
   15afd:	e8 f1 3b ff ff       	callq  96f3 <transparent_crc>
   15b02:	8b 45 f0             	mov    -0x10(%rbp),%eax
   15b05:	48 63 d0             	movslq %eax,%rdx
   15b08:	48 89 d0             	mov    %rdx,%rax
   15b0b:	48 01 c0             	add    %rax,%rax
   15b0e:	48 01 d0             	add    %rdx,%rax
   15b11:	48 c1 e0 02          	shl    $0x2,%rax
   15b15:	48 01 d0             	add    %rdx,%rax
   15b18:	48 01 c0             	add    %rax,%rax
   15b1b:	48 89 c2             	mov    %rax,%rdx
   15b1e:	48 8d 05 6b 92 00 00 	lea    0x926b(%rip),%rax        # 1ed90 <g_1305+0x10>
   15b25:	0f b7 44 02 04       	movzwl 0x4(%rdx,%rax,1),%eax
   15b2a:	d0 f8                	sar    %al
   15b2c:	48 0f be c0          	movsbq %al,%rax
   15b30:	8b 55 fc             	mov    -0x4(%rbp),%edx
   15b33:	48 8d 35 c4 42 00 00 	lea    0x42c4(%rip),%rsi        # 19dfe <g_1750+0x1d5e>
   15b3a:	48 89 c7             	mov    %rax,%rdi
   15b3d:	e8 b1 3b ff ff       	callq  96f3 <transparent_crc>
   15b42:	8b 45 f0             	mov    -0x10(%rbp),%eax
   15b45:	48 63 d0             	movslq %eax,%rdx
   15b48:	48 89 d0             	mov    %rdx,%rax
   15b4b:	48 01 c0             	add    %rax,%rax
   15b4e:	48 01 d0             	add    %rdx,%rax
   15b51:	48 c1 e0 02          	shl    $0x2,%rax
   15b55:	48 01 d0             	add    %rdx,%rax
   15b58:	48 01 c0             	add    %rax,%rax
   15b5b:	48 89 c2             	mov    %rax,%rdx
   15b5e:	48 8d 05 2b 92 00 00 	lea    0x922b(%rip),%rax        # 1ed90 <g_1305+0x10>
   15b65:	0f b7 4c 02 04       	movzwl 0x4(%rdx,%rax,1),%ecx
   15b6a:	66 c1 e9 08          	shr    $0x8,%cx
   15b6e:	0f b7 c9             	movzwl %cx,%ecx
   15b71:	0f b7 44 02 06       	movzwl 0x6(%rdx,%rax,1),%eax
   15b76:	0f b7 c0             	movzwl %ax,%eax
   15b79:	83 e0 0f             	and    $0xf,%eax
   15b7c:	48 c1 e0 08          	shl    $0x8,%rax
   15b80:	48 09 c8             	or     %rcx,%rax
   15b83:	48 c1 e0 34          	shl    $0x34,%rax
   15b87:	48 c1 f8 34          	sar    $0x34,%rax
   15b8b:	48 0f bf c0          	movswq %ax,%rax
   15b8f:	8b 55 fc             	mov    -0x4(%rbp),%edx
   15b92:	48 8d 35 72 42 00 00 	lea    0x4272(%rip),%rsi        # 19e0b <g_1750+0x1d6b>
   15b99:	48 89 c7             	mov    %rax,%rdi
   15b9c:	e8 52 3b ff ff       	callq  96f3 <transparent_crc>
   15ba1:	8b 45 f0             	mov    -0x10(%rbp),%eax
   15ba4:	48 63 d0             	movslq %eax,%rdx
   15ba7:	48 89 d0             	mov    %rdx,%rax
   15baa:	48 01 c0             	add    %rax,%rax
   15bad:	48 01 d0             	add    %rdx,%rax
   15bb0:	48 c1 e0 02          	shl    $0x2,%rax
   15bb4:	48 01 d0             	add    %rdx,%rax
   15bb7:	48 01 c0             	add    %rax,%rax
   15bba:	48 89 c2             	mov    %rax,%rdx
   15bbd:	48 8d 05 cc 91 00 00 	lea    0x91cc(%rip),%rax        # 1ed90 <g_1305+0x10>
   15bc4:	0f b7 4c 02 06       	movzwl 0x6(%rdx,%rax,1),%ecx
   15bc9:	66 c1 e9 04          	shr    $0x4,%cx
   15bcd:	0f b7 c9             	movzwl %cx,%ecx
   15bd0:	0f b7 44 02 08       	movzwl 0x8(%rdx,%rax,1),%eax
   15bd5:	0f b7 c0             	movzwl %ax,%eax
   15bd8:	25 ff 01 00 00       	and    $0x1ff,%eax
   15bdd:	48 c1 e0 0c          	shl    $0xc,%rax
   15be1:	48 09 c8             	or     %rcx,%rax
   15be4:	89 c1                	mov    %eax,%ecx
   15be6:	8b 45 fc             	mov    -0x4(%rbp),%eax
   15be9:	89 c2                	mov    %eax,%edx
   15beb:	48 8d 35 26 42 00 00 	lea    0x4226(%rip),%rsi        # 19e18 <g_1750+0x1d78>
   15bf2:	48 89 cf             	mov    %rcx,%rdi
   15bf5:	e8 f9 3a ff ff       	callq  96f3 <transparent_crc>
   15bfa:	83 7d fc 00          	cmpl   $0x0,-0x4(%rbp)
   15bfe:	74 16                	je     15c16 <main+0x1e5c>
   15c00:	8b 45 f0             	mov    -0x10(%rbp),%eax
   15c03:	89 c6                	mov    %eax,%esi
   15c05:	48 8d 3d 3d 3e 00 00 	lea    0x3e3d(%rip),%rdi        # 19a49 <g_1750+0x19a9>
   15c0c:	b8 00 00 00 00       	mov    $0x0,%eax
   15c11:	e8 6a 24 ff ff       	callq  8080 <printf@plt>
   15c16:	83 45 f0 01          	addl   $0x1,-0x10(%rbp)
   15c1a:	83 7d f0 03          	cmpl   $0x3,-0x10(%rbp)
   15c1e:	0f 8e 3f fd ff ff    	jle    15963 <main+0x1ba9>
   15c24:	48 8b 05 c5 91 00 00 	mov    0x91c5(%rip),%rax        # 1edf0 <g_1359>
   15c2b:	25 ff ff 7f 00       	and    $0x7fffff,%eax
   15c30:	89 c1                	mov    %eax,%ecx
   15c32:	8b 45 fc             	mov    -0x4(%rbp),%eax
   15c35:	89 c2                	mov    %eax,%edx
   15c37:	48 8d 35 e7 41 00 00 	lea    0x41e7(%rip),%rsi        # 19e25 <g_1750+0x1d85>
   15c3e:	48 89 cf             	mov    %rcx,%rdi
   15c41:	e8 ad 3a ff ff       	callq  96f3 <transparent_crc>
   15c46:	48 8b 05 a6 91 00 00 	mov    0x91a6(%rip),%rax        # 1edf3 <g_1359+0x3>
   15c4d:	48 89 c1             	mov    %rax,%rcx
   15c50:	8b 45 fc             	mov    -0x4(%rbp),%eax
   15c53:	89 c2                	mov    %eax,%edx
   15c55:	48 8d 35 d3 41 00 00 	lea    0x41d3(%rip),%rsi        # 19e2f <g_1750+0x1d8f>
   15c5c:	48 89 cf             	mov    %rcx,%rdi
   15c5f:	e8 8f 3a ff ff       	callq  96f3 <transparent_crc>
   15c64:	48 8b 05 8d 91 00 00 	mov    0x918d(%rip),%rax        # 1edf8 <g_1359+0x8>
   15c6b:	48 c1 e8 18          	shr    $0x18,%rax
   15c6f:	25 ff ff ff 00       	and    $0xffffff,%eax
   15c74:	89 c1                	mov    %eax,%ecx
   15c76:	8b 45 fc             	mov    -0x4(%rbp),%eax
   15c79:	89 c2                	mov    %eax,%edx
   15c7b:	48 8d 35 b7 41 00 00 	lea    0x41b7(%rip),%rsi        # 19e39 <g_1750+0x1d99>
   15c82:	48 89 cf             	mov    %rcx,%rdi
   15c85:	e8 69 3a ff ff       	callq  96f3 <transparent_crc>
   15c8a:	48 8b 05 67 91 00 00 	mov    0x9167(%rip),%rax        # 1edf8 <g_1359+0x8>
   15c91:	48 c1 e8 30          	shr    $0x30,%rax
   15c95:	48 89 c2             	mov    %rax,%rdx
   15c98:	48 8b 05 61 91 00 00 	mov    0x9161(%rip),%rax        # 1ee00 <g_1359+0x10>
   15c9f:	25 ff 03 00 00       	and    $0x3ff,%eax
   15ca4:	48 c1 e0 10          	shl    $0x10,%rax
   15ca8:	48 09 d0             	or     %rdx,%rax
   15cab:	89 c1                	mov    %eax,%ecx
   15cad:	8b 45 fc             	mov    -0x4(%rbp),%eax
   15cb0:	89 c2                	mov    %eax,%edx
   15cb2:	48 8d 35 8a 41 00 00 	lea    0x418a(%rip),%rsi        # 19e43 <g_1750+0x1da3>
   15cb9:	48 89 cf             	mov    %rcx,%rdi
   15cbc:	e8 32 3a ff ff       	callq  96f3 <transparent_crc>
   15cc1:	48 8b 05 38 91 00 00 	mov    0x9138(%rip),%rax        # 1ee00 <g_1359+0x10>
   15cc8:	48 c1 e8 0a          	shr    $0xa,%rax
   15ccc:	25 ff ff 7f 00       	and    $0x7fffff,%eax
   15cd1:	89 c1                	mov    %eax,%ecx
   15cd3:	8b 45 fc             	mov    -0x4(%rbp),%eax
   15cd6:	89 c2                	mov    %eax,%edx
   15cd8:	48 8d 35 6e 41 00 00 	lea    0x416e(%rip),%rsi        # 19e4d <g_1750+0x1dad>
   15cdf:	48 89 cf             	mov    %rcx,%rdi
   15ce2:	e8 0c 3a ff ff       	callq  96f3 <transparent_crc>
   15ce7:	48 8b 05 12 91 00 00 	mov    0x9112(%rip),%rax        # 1ee00 <g_1359+0x10>
   15cee:	48 c1 e0 18          	shl    $0x18,%rax
   15cf2:	48 c1 f8 39          	sar    $0x39,%rax
   15cf6:	48 0f be c0          	movsbq %al,%rax
   15cfa:	8b 55 fc             	mov    -0x4(%rbp),%edx
   15cfd:	48 8d 35 53 41 00 00 	lea    0x4153(%rip),%rsi        # 19e57 <g_1750+0x1db7>
   15d04:	48 89 c7             	mov    %rax,%rdi
   15d07:	e8 e7 39 ff ff       	callq  96f3 <transparent_crc>
   15d0c:	48 8b 05 ed 90 00 00 	mov    0x90ed(%rip),%rax        # 1ee00 <g_1359+0x10>
   15d13:	48 c1 e0 0c          	shl    $0xc,%rax
   15d17:	48 c1 f8 34          	sar    $0x34,%rax
   15d1b:	48 0f bf c0          	movswq %ax,%rax
   15d1f:	8b 55 fc             	mov    -0x4(%rbp),%edx
   15d22:	48 8d 35 38 41 00 00 	lea    0x4138(%rip),%rsi        # 19e61 <g_1750+0x1dc1>
   15d29:	48 89 c7             	mov    %rax,%rdi
   15d2c:	e8 c2 39 ff ff       	callq  96f3 <transparent_crc>
   15d31:	48 8b 05 c8 90 00 00 	mov    0x90c8(%rip),%rax        # 1ee00 <g_1359+0x10>
   15d38:	48 c1 e8 34          	shr    $0x34,%rax
   15d3c:	48 89 c2             	mov    %rax,%rdx
   15d3f:	48 8b 05 c2 90 00 00 	mov    0x90c2(%rip),%rax        # 1ee08 <g_1359+0x18>
   15d46:	25 ff 01 00 00       	and    $0x1ff,%eax
   15d4b:	48 c1 e0 0c          	shl    $0xc,%rax
   15d4f:	48 09 d0             	or     %rdx,%rax
   15d52:	89 c1                	mov    %eax,%ecx
   15d54:	8b 45 fc             	mov    -0x4(%rbp),%eax
   15d57:	89 c2                	mov    %eax,%edx
   15d59:	48 8d 35 0b 41 00 00 	lea    0x410b(%rip),%rsi        # 19e6b <g_1750+0x1dcb>
   15d60:	48 89 cf             	mov    %rcx,%rdi
   15d63:	e8 8b 39 ff ff       	callq  96f3 <transparent_crc>
   15d68:	48 8b 05 a1 90 00 00 	mov    0x90a1(%rip),%rax        # 1ee10 <g_1360>
   15d6f:	25 ff ff 7f 00       	and    $0x7fffff,%eax
   15d74:	89 c1                	mov    %eax,%ecx
   15d76:	8b 45 fc             	mov    -0x4(%rbp),%eax
   15d79:	89 c2                	mov    %eax,%edx
   15d7b:	48 8d 35 f3 40 00 00 	lea    0x40f3(%rip),%rsi        # 19e75 <g_1750+0x1dd5>
   15d82:	48 89 cf             	mov    %rcx,%rdi
   15d85:	e8 69 39 ff ff       	callq  96f3 <transparent_crc>
   15d8a:	48 8b 05 82 90 00 00 	mov    0x9082(%rip),%rax        # 1ee13 <g_1360+0x3>
   15d91:	48 89 c1             	mov    %rax,%rcx
   15d94:	8b 45 fc             	mov    -0x4(%rbp),%eax
   15d97:	89 c2                	mov    %eax,%edx
   15d99:	48 8d 35 df 40 00 00 	lea    0x40df(%rip),%rsi        # 19e7f <g_1750+0x1ddf>
   15da0:	48 89 cf             	mov    %rcx,%rdi
   15da3:	e8 4b 39 ff ff       	callq  96f3 <transparent_crc>
   15da8:	48 8b 05 69 90 00 00 	mov    0x9069(%rip),%rax        # 1ee18 <g_1360+0x8>
   15daf:	48 c1 e8 18          	shr    $0x18,%rax
   15db3:	25 ff ff ff 00       	and    $0xffffff,%eax
   15db8:	89 c1                	mov    %eax,%ecx
   15dba:	8b 45 fc             	mov    -0x4(%rbp),%eax
   15dbd:	89 c2                	mov    %eax,%edx
   15dbf:	48 8d 35 c3 40 00 00 	lea    0x40c3(%rip),%rsi        # 19e89 <g_1750+0x1de9>
   15dc6:	48 89 cf             	mov    %rcx,%rdi
   15dc9:	e8 25 39 ff ff       	callq  96f3 <transparent_crc>
   15dce:	48 8b 05 43 90 00 00 	mov    0x9043(%rip),%rax        # 1ee18 <g_1360+0x8>
   15dd5:	48 c1 e8 30          	shr    $0x30,%rax
   15dd9:	48 89 c2             	mov    %rax,%rdx
   15ddc:	48 8b 05 3d 90 00 00 	mov    0x903d(%rip),%rax        # 1ee20 <g_1360+0x10>
   15de3:	25 ff 03 00 00       	and    $0x3ff,%eax
   15de8:	48 c1 e0 10          	shl    $0x10,%rax
   15dec:	48 09 d0             	or     %rdx,%rax
   15def:	89 c1                	mov    %eax,%ecx
   15df1:	8b 45 fc             	mov    -0x4(%rbp),%eax
   15df4:	89 c2                	mov    %eax,%edx
   15df6:	48 8d 35 96 40 00 00 	lea    0x4096(%rip),%rsi        # 19e93 <g_1750+0x1df3>
   15dfd:	48 89 cf             	mov    %rcx,%rdi
   15e00:	e8 ee 38 ff ff       	callq  96f3 <transparent_crc>
   15e05:	48 8b 05 14 90 00 00 	mov    0x9014(%rip),%rax        # 1ee20 <g_1360+0x10>
   15e0c:	48 c1 e8 0a          	shr    $0xa,%rax
   15e10:	25 ff ff 7f 00       	and    $0x7fffff,%eax
   15e15:	89 c1                	mov    %eax,%ecx
   15e17:	8b 45 fc             	mov    -0x4(%rbp),%eax
   15e1a:	89 c2                	mov    %eax,%edx
   15e1c:	48 8d 35 7a 40 00 00 	lea    0x407a(%rip),%rsi        # 19e9d <g_1750+0x1dfd>
   15e23:	48 89 cf             	mov    %rcx,%rdi
   15e26:	e8 c8 38 ff ff       	callq  96f3 <transparent_crc>
   15e2b:	48 8b 05 ee 8f 00 00 	mov    0x8fee(%rip),%rax        # 1ee20 <g_1360+0x10>
   15e32:	48 c1 e0 18          	shl    $0x18,%rax
   15e36:	48 c1 f8 39          	sar    $0x39,%rax
   15e3a:	48 0f be c0          	movsbq %al,%rax
   15e3e:	8b 55 fc             	mov    -0x4(%rbp),%edx
   15e41:	48 8d 35 5f 40 00 00 	lea    0x405f(%rip),%rsi        # 19ea7 <g_1750+0x1e07>
   15e48:	48 89 c7             	mov    %rax,%rdi
   15e4b:	e8 a3 38 ff ff       	callq  96f3 <transparent_crc>
   15e50:	8b 05 ce 8f 00 00    	mov    0x8fce(%rip),%eax        # 1ee24 <g_1360+0x14>
   15e56:	c1 e0 0c             	shl    $0xc,%eax
   15e59:	c1 f8 14             	sar    $0x14,%eax
   15e5c:	48 0f bf c0          	movswq %ax,%rax
   15e60:	8b 55 fc             	mov    -0x4(%rbp),%edx
   15e63:	48 8d 35 47 40 00 00 	lea    0x4047(%rip),%rsi        # 19eb1 <g_1750+0x1e11>
   15e6a:	48 89 c7             	mov    %rax,%rdi
   15e6d:	e8 81 38 ff ff       	callq  96f3 <transparent_crc>
   15e72:	48 8b 05 a7 8f 00 00 	mov    0x8fa7(%rip),%rax        # 1ee20 <g_1360+0x10>
   15e79:	48 c1 e8 34          	shr    $0x34,%rax
   15e7d:	48 89 c2             	mov    %rax,%rdx
   15e80:	48 8b 05 a1 8f 00 00 	mov    0x8fa1(%rip),%rax        # 1ee28 <g_1360+0x18>
   15e87:	25 ff 01 00 00       	and    $0x1ff,%eax
   15e8c:	48 c1 e0 0c          	shl    $0xc,%rax
   15e90:	48 09 d0             	or     %rdx,%rax
   15e93:	89 c1                	mov    %eax,%ecx
   15e95:	8b 45 fc             	mov    -0x4(%rbp),%eax
   15e98:	89 c2                	mov    %eax,%edx
   15e9a:	48 8d 35 1a 40 00 00 	lea    0x401a(%rip),%rsi        # 19ebb <g_1750+0x1e1b>
   15ea1:	48 89 cf             	mov    %rcx,%rdi
   15ea4:	e8 4a 38 ff ff       	callq  96f3 <transparent_crc>
   15ea9:	48 8b 05 80 8f 00 00 	mov    0x8f80(%rip),%rax        # 1ee30 <g_1361>
   15eb0:	25 ff ff 7f 00       	and    $0x7fffff,%eax
   15eb5:	89 c1                	mov    %eax,%ecx
   15eb7:	8b 45 fc             	mov    -0x4(%rbp),%eax
   15eba:	89 c2                	mov    %eax,%edx
   15ebc:	48 8d 35 02 40 00 00 	lea    0x4002(%rip),%rsi        # 19ec5 <g_1750+0x1e25>
   15ec3:	48 89 cf             	mov    %rcx,%rdi
   15ec6:	e8 28 38 ff ff       	callq  96f3 <transparent_crc>
   15ecb:	48 8b 05 61 8f 00 00 	mov    0x8f61(%rip),%rax        # 1ee33 <g_1361+0x3>
   15ed2:	48 89 c1             	mov    %rax,%rcx
   15ed5:	8b 45 fc             	mov    -0x4(%rbp),%eax
   15ed8:	89 c2                	mov    %eax,%edx
   15eda:	48 8d 35 ee 3f 00 00 	lea    0x3fee(%rip),%rsi        # 19ecf <g_1750+0x1e2f>
   15ee1:	48 89 cf             	mov    %rcx,%rdi
   15ee4:	e8 0a 38 ff ff       	callq  96f3 <transparent_crc>
   15ee9:	48 8b 05 48 8f 00 00 	mov    0x8f48(%rip),%rax        # 1ee38 <g_1361+0x8>
   15ef0:	48 c1 e8 18          	shr    $0x18,%rax
   15ef4:	25 ff ff ff 00       	and    $0xffffff,%eax
   15ef9:	89 c1                	mov    %eax,%ecx
   15efb:	8b 45 fc             	mov    -0x4(%rbp),%eax
   15efe:	89 c2                	mov    %eax,%edx
   15f00:	48 8d 35 d2 3f 00 00 	lea    0x3fd2(%rip),%rsi        # 19ed9 <g_1750+0x1e39>
   15f07:	48 89 cf             	mov    %rcx,%rdi
   15f0a:	e8 e4 37 ff ff       	callq  96f3 <transparent_crc>
   15f0f:	48 8b 05 22 8f 00 00 	mov    0x8f22(%rip),%rax        # 1ee38 <g_1361+0x8>
   15f16:	48 c1 e8 30          	shr    $0x30,%rax
   15f1a:	48 89 c2             	mov    %rax,%rdx
   15f1d:	48 8b 05 1c 8f 00 00 	mov    0x8f1c(%rip),%rax        # 1ee40 <g_1361+0x10>
   15f24:	25 ff 03 00 00       	and    $0x3ff,%eax
   15f29:	48 c1 e0 10          	shl    $0x10,%rax
   15f2d:	48 09 d0             	or     %rdx,%rax
   15f30:	89 c1                	mov    %eax,%ecx
   15f32:	8b 45 fc             	mov    -0x4(%rbp),%eax
   15f35:	89 c2                	mov    %eax,%edx
   15f37:	48 8d 35 a5 3f 00 00 	lea    0x3fa5(%rip),%rsi        # 19ee3 <g_1750+0x1e43>
   15f3e:	48 89 cf             	mov    %rcx,%rdi
   15f41:	e8 ad 37 ff ff       	callq  96f3 <transparent_crc>
   15f46:	48 8b 05 f3 8e 00 00 	mov    0x8ef3(%rip),%rax        # 1ee40 <g_1361+0x10>
   15f4d:	48 c1 e8 0a          	shr    $0xa,%rax
   15f51:	25 ff ff 7f 00       	and    $0x7fffff,%eax
   15f56:	89 c1                	mov    %eax,%ecx
   15f58:	8b 45 fc             	mov    -0x4(%rbp),%eax
   15f5b:	89 c2                	mov    %eax,%edx
   15f5d:	48 8d 35 89 3f 00 00 	lea    0x3f89(%rip),%rsi        # 19eed <g_1750+0x1e4d>
   15f64:	48 89 cf             	mov    %rcx,%rdi
   15f67:	e8 87 37 ff ff       	callq  96f3 <transparent_crc>
   15f6c:	48 8b 05 cd 8e 00 00 	mov    0x8ecd(%rip),%rax        # 1ee40 <g_1361+0x10>
   15f73:	48 c1 e0 18          	shl    $0x18,%rax
   15f77:	48 c1 f8 39          	sar    $0x39,%rax
   15f7b:	48 0f be c0          	movsbq %al,%rax
   15f7f:	8b 55 fc             	mov    -0x4(%rbp),%edx
   15f82:	48 8d 35 6e 3f 00 00 	lea    0x3f6e(%rip),%rsi        # 19ef7 <g_1750+0x1e57>
   15f89:	48 89 c7             	mov    %rax,%rdi
   15f8c:	e8 62 37 ff ff       	callq  96f3 <transparent_crc>
   15f91:	8b 05 ad 8e 00 00    	mov    0x8ead(%rip),%eax        # 1ee44 <g_1361+0x14>
   15f97:	c1 e0 0c             	shl    $0xc,%eax
   15f9a:	c1 f8 14             	sar    $0x14,%eax
   15f9d:	48 0f bf c0          	movswq %ax,%rax
   15fa1:	8b 55 fc             	mov    -0x4(%rbp),%edx
   15fa4:	48 8d 35 56 3f 00 00 	lea    0x3f56(%rip),%rsi        # 19f01 <g_1750+0x1e61>
   15fab:	48 89 c7             	mov    %rax,%rdi
   15fae:	e8 40 37 ff ff       	callq  96f3 <transparent_crc>
   15fb3:	48 8b 05 86 8e 00 00 	mov    0x8e86(%rip),%rax        # 1ee40 <g_1361+0x10>
   15fba:	48 c1 e8 34          	shr    $0x34,%rax
   15fbe:	48 89 c2             	mov    %rax,%rdx
   15fc1:	48 8b 05 80 8e 00 00 	mov    0x8e80(%rip),%rax        # 1ee48 <g_1361+0x18>
   15fc8:	25 ff 01 00 00       	and    $0x1ff,%eax
   15fcd:	48 c1 e0 0c          	shl    $0xc,%rax
   15fd1:	48 09 d0             	or     %rdx,%rax
   15fd4:	89 c1                	mov    %eax,%ecx
   15fd6:	8b 45 fc             	mov    -0x4(%rbp),%eax
   15fd9:	89 c2                	mov    %eax,%edx
   15fdb:	48 8d 35 29 3f 00 00 	lea    0x3f29(%rip),%rsi        # 19f0b <g_1750+0x1e6b>
   15fe2:	48 89 cf             	mov    %rcx,%rdi
   15fe5:	e8 09 37 ff ff       	callq  96f3 <transparent_crc>
   15fea:	c7 45 f0 00 00 00 00 	movl   $0x0,-0x10(%rbp)
   15ff1:	e9 b7 02 00 00       	jmpq   162ad <main+0x24f3>
   15ff6:	8b 45 f0             	mov    -0x10(%rbp),%eax
   15ff9:	48 63 d0             	movslq %eax,%rdx
   15ffc:	48 89 d0             	mov    %rdx,%rax
   15fff:	48 01 c0             	add    %rax,%rax
   16002:	48 01 d0             	add    %rdx,%rax
   16005:	48 c1 e0 02          	shl    $0x2,%rax
   16009:	48 01 d0             	add    %rdx,%rax
   1600c:	48 01 c0             	add    %rax,%rax
   1600f:	48 89 c2             	mov    %rax,%rdx
   16012:	48 8d 05 47 8e 00 00 	lea    0x8e47(%rip),%rax        # 1ee60 <g_1362>
   16019:	0f b7 0c 02          	movzwl (%rdx,%rax,1),%ecx
   1601d:	0f b7 c9             	movzwl %cx,%ecx
   16020:	0f b7 44 02 02       	movzwl 0x2(%rdx,%rax,1),%eax
   16025:	0f b7 c0             	movzwl %ax,%eax
   16028:	83 e0 7f             	and    $0x7f,%eax
   1602b:	48 c1 e0 10          	shl    $0x10,%rax
   1602f:	48 09 c8             	or     %rcx,%rax
   16032:	89 c1                	mov    %eax,%ecx
   16034:	8b 45 fc             	mov    -0x4(%rbp),%eax
   16037:	89 c2                	mov    %eax,%edx
   16039:	48 8d 35 d5 3e 00 00 	lea    0x3ed5(%rip),%rsi        # 19f15 <g_1750+0x1e75>
   16040:	48 89 cf             	mov    %rcx,%rdi
   16043:	e8 ab 36 ff ff       	callq  96f3 <transparent_crc>
   16048:	8b 45 f0             	mov    -0x10(%rbp),%eax
   1604b:	48 63 d0             	movslq %eax,%rdx
   1604e:	48 89 d0             	mov    %rdx,%rax
   16051:	48 01 c0             	add    %rax,%rax
   16054:	48 01 d0             	add    %rdx,%rax
   16057:	48 c1 e0 02          	shl    $0x2,%rax
   1605b:	48 01 d0             	add    %rdx,%rax
   1605e:	48 01 c0             	add    %rax,%rax
   16061:	48 89 c2             	mov    %rax,%rdx
   16064:	48 8d 05 f5 8d 00 00 	lea    0x8df5(%rip),%rax        # 1ee60 <g_1362>
   1606b:	48 8b 44 02 03       	mov    0x3(%rdx,%rax,1),%rax
   16070:	48 89 c1             	mov    %rax,%rcx
   16073:	8b 45 fc             	mov    -0x4(%rbp),%eax
   16076:	89 c2                	mov    %eax,%edx
   16078:	48 8d 35 a3 3e 00 00 	lea    0x3ea3(%rip),%rsi        # 19f22 <g_1750+0x1e82>
   1607f:	48 89 cf             	mov    %rcx,%rdi
   16082:	e8 6c 36 ff ff       	callq  96f3 <transparent_crc>
   16087:	8b 45 f0             	mov    -0x10(%rbp),%eax
   1608a:	48 63 d0             	movslq %eax,%rdx
   1608d:	48 89 d0             	mov    %rdx,%rax
   16090:	48 01 c0             	add    %rax,%rax
   16093:	48 01 d0             	add    %rdx,%rax
   16096:	48 c1 e0 02          	shl    $0x2,%rax
   1609a:	48 01 d0             	add    %rdx,%rax
   1609d:	48 01 c0             	add    %rax,%rax
   160a0:	48 89 c2             	mov    %rax,%rdx
   160a3:	48 8d 05 b6 8d 00 00 	lea    0x8db6(%rip),%rax        # 1ee60 <g_1362>
   160aa:	0f b7 4c 02 0a       	movzwl 0xa(%rdx,%rax,1),%ecx
   160af:	66 c1 e9 08          	shr    $0x8,%cx
   160b3:	0f b7 c9             	movzwl %cx,%ecx
   160b6:	0f b7 44 02 0c       	movzwl 0xc(%rdx,%rax,1),%eax
   160bb:	0f b7 c0             	movzwl %ax,%eax
   160be:	48 c1 e0 08          	shl    $0x8,%rax
   160c2:	48 09 c8             	or     %rcx,%rax
   160c5:	89 c1                	mov    %eax,%ecx
   160c7:	8b 45 fc             	mov    -0x4(%rbp),%eax
   160ca:	89 c2                	mov    %eax,%edx
   160cc:	48 8d 35 5c 3e 00 00 	lea    0x3e5c(%rip),%rsi        # 19f2f <g_1750+0x1e8f>
   160d3:	48 89 cf             	mov    %rcx,%rdi
   160d6:	e8 18 36 ff ff       	callq  96f3 <transparent_crc>
   160db:	8b 45 f0             	mov    -0x10(%rbp),%eax
   160de:	48 63 d0             	movslq %eax,%rdx
   160e1:	48 89 d0             	mov    %rdx,%rax
   160e4:	48 01 c0             	add    %rax,%rax
   160e7:	48 01 d0             	add    %rdx,%rax
   160ea:	48 c1 e0 02          	shl    $0x2,%rax
   160ee:	48 01 d0             	add    %rdx,%rax
   160f1:	48 01 c0             	add    %rax,%rax
   160f4:	48 89 c2             	mov    %rax,%rdx
   160f7:	48 8d 05 62 8d 00 00 	lea    0x8d62(%rip),%rax        # 1ee60 <g_1362>
   160fe:	0f b7 4c 02 0e       	movzwl 0xe(%rdx,%rax,1),%ecx
   16103:	0f b7 c9             	movzwl %cx,%ecx
   16106:	0f b7 44 02 10       	movzwl 0x10(%rdx,%rax,1),%eax
   1610b:	0f b7 c0             	movzwl %ax,%eax
   1610e:	25 ff 03 00 00       	and    $0x3ff,%eax
   16113:	48 c1 e0 10          	shl    $0x10,%rax
   16117:	48 09 c8             	or     %rcx,%rax
   1611a:	89 c1                	mov    %eax,%ecx
   1611c:	8b 45 fc             	mov    -0x4(%rbp),%eax
   1611f:	89 c2                	mov    %eax,%edx
   16121:	48 8d 35 14 3e 00 00 	lea    0x3e14(%rip),%rsi        # 19f3c <g_1750+0x1e9c>
   16128:	48 89 cf             	mov    %rcx,%rdi
   1612b:	e8 c3 35 ff ff       	callq  96f3 <transparent_crc>
   16130:	8b 45 f0             	mov    -0x10(%rbp),%eax
   16133:	48 63 d0             	movslq %eax,%rdx
   16136:	48 89 d0             	mov    %rdx,%rax
   16139:	48 01 c0             	add    %rax,%rax
   1613c:	48 01 d0             	add    %rdx,%rax
   1613f:	48 c1 e0 02          	shl    $0x2,%rax
   16143:	48 01 d0             	add    %rdx,%rax
   16146:	48 01 c0             	add    %rax,%rax
   16149:	48 89 c2             	mov    %rax,%rdx
   1614c:	48 8d 05 1d 8d 00 00 	lea    0x8d1d(%rip),%rax        # 1ee70 <g_1362+0x10>
   16153:	0f b7 0c 02          	movzwl (%rdx,%rax,1),%ecx
   16157:	66 c1 e9 0a          	shr    $0xa,%cx
   1615b:	0f b7 c9             	movzwl %cx,%ecx
   1615e:	0f b7 74 02 02       	movzwl 0x2(%rdx,%rax,1),%esi
   16163:	0f b7 f6             	movzwl %si,%esi
   16166:	48 c1 e6 06          	shl    $0x6,%rsi
   1616a:	48 09 f1             	or     %rsi,%rcx
   1616d:	0f b7 44 02 04       	movzwl 0x4(%rdx,%rax,1),%eax
   16172:	0f b7 c0             	movzwl %ax,%eax
   16175:	83 e0 01             	and    $0x1,%eax
   16178:	48 c1 e0 16          	shl    $0x16,%rax
   1617c:	48 09 c8             	or     %rcx,%rax
   1617f:	89 c1                	mov    %eax,%ecx
   16181:	8b 45 fc             	mov    -0x4(%rbp),%eax
   16184:	89 c2                	mov    %eax,%edx
   16186:	48 8d 35 bc 3d 00 00 	lea    0x3dbc(%rip),%rsi        # 19f49 <g_1750+0x1ea9>
   1618d:	48 89 cf             	mov    %rcx,%rdi
   16190:	e8 5e 35 ff ff       	callq  96f3 <transparent_crc>
   16195:	8b 45 f0             	mov    -0x10(%rbp),%eax
   16198:	48 63 d0             	movslq %eax,%rdx
   1619b:	48 89 d0             	mov    %rdx,%rax
   1619e:	48 01 c0             	add    %rax,%rax
   161a1:	48 01 d0             	add    %rdx,%rax
   161a4:	48 c1 e0 02          	shl    $0x2,%rax
   161a8:	48 01 d0             	add    %rdx,%rax
   161ab:	48 01 c0             	add    %rax,%rax
   161ae:	48 89 c2             	mov    %rax,%rdx
   161b1:	48 8d 05 b8 8c 00 00 	lea    0x8cb8(%rip),%rax        # 1ee70 <g_1362+0x10>
   161b8:	0f b7 44 02 04       	movzwl 0x4(%rdx,%rax,1),%eax
   161bd:	d0 f8                	sar    %al
   161bf:	48 0f be c0          	movsbq %al,%rax
   161c3:	8b 55 fc             	mov    -0x4(%rbp),%edx
   161c6:	48 8d 35 89 3d 00 00 	lea    0x3d89(%rip),%rsi        # 19f56 <g_1750+0x1eb6>
   161cd:	48 89 c7             	mov    %rax,%rdi
   161d0:	e8 1e 35 ff ff       	callq  96f3 <transparent_crc>
   161d5:	8b 45 f0             	mov    -0x10(%rbp),%eax
   161d8:	48 63 d0             	movslq %eax,%rdx
   161db:	48 89 d0             	mov    %rdx,%rax
   161de:	48 01 c0             	add    %rax,%rax
   161e1:	48 01 d0             	add    %rdx,%rax
   161e4:	48 c1 e0 02          	shl    $0x2,%rax
   161e8:	48 01 d0             	add    %rdx,%rax
   161eb:	48 01 c0             	add    %rax,%rax
   161ee:	48 89 c2             	mov    %rax,%rdx
   161f1:	48 8d 05 78 8c 00 00 	lea    0x8c78(%rip),%rax        # 1ee70 <g_1362+0x10>
   161f8:	0f b7 4c 02 04       	movzwl 0x4(%rdx,%rax,1),%ecx
   161fd:	66 c1 e9 08          	shr    $0x8,%cx
   16201:	0f b7 c9             	movzwl %cx,%ecx
   16204:	0f b7 44 02 06       	movzwl 0x6(%rdx,%rax,1),%eax
   16209:	0f b7 c0             	movzwl %ax,%eax
   1620c:	83 e0 0f             	and    $0xf,%eax
   1620f:	48 c1 e0 08          	shl    $0x8,%rax
   16213:	48 09 c8             	or     %rcx,%rax
   16216:	48 c1 e0 34          	shl    $0x34,%rax
   1621a:	48 c1 f8 34          	sar    $0x34,%rax
   1621e:	48 0f bf c0          	movswq %ax,%rax
   16222:	8b 55 fc             	mov    -0x4(%rbp),%edx
   16225:	48 8d 35 37 3d 00 00 	lea    0x3d37(%rip),%rsi        # 19f63 <g_1750+0x1ec3>
   1622c:	48 89 c7             	mov    %rax,%rdi
   1622f:	e8 bf 34 ff ff       	callq  96f3 <transparent_crc>
   16234:	8b 45 f0             	mov    -0x10(%rbp),%eax
   16237:	48 63 d0             	movslq %eax,%rdx
   1623a:	48 89 d0             	mov    %rdx,%rax
   1623d:	48 01 c0             	add    %rax,%rax
   16240:	48 01 d0             	add    %rdx,%rax
   16243:	48 c1 e0 02          	shl    $0x2,%rax
   16247:	48 01 d0             	add    %rdx,%rax
   1624a:	48 01 c0             	add    %rax,%rax
   1624d:	48 89 c2             	mov    %rax,%rdx
   16250:	48 8d 05 19 8c 00 00 	lea    0x8c19(%rip),%rax        # 1ee70 <g_1362+0x10>
   16257:	0f b7 4c 02 06       	movzwl 0x6(%rdx,%rax,1),%ecx
   1625c:	66 c1 e9 04          	shr    $0x4,%cx
   16260:	0f b7 c9             	movzwl %cx,%ecx
   16263:	0f b7 44 02 08       	movzwl 0x8(%rdx,%rax,1),%eax
   16268:	0f b7 c0             	movzwl %ax,%eax
   1626b:	25 ff 01 00 00       	and    $0x1ff,%eax
   16270:	48 c1 e0 0c          	shl    $0xc,%rax
   16274:	48 09 c8             	or     %rcx,%rax
   16277:	89 c1                	mov    %eax,%ecx
   16279:	8b 45 fc             	mov    -0x4(%rbp),%eax
   1627c:	89 c2                	mov    %eax,%edx
   1627e:	48 8d 35 eb 3c 00 00 	lea    0x3ceb(%rip),%rsi        # 19f70 <g_1750+0x1ed0>
   16285:	48 89 cf             	mov    %rcx,%rdi
   16288:	e8 66 34 ff ff       	callq  96f3 <transparent_crc>
   1628d:	83 7d fc 00          	cmpl   $0x0,-0x4(%rbp)
   16291:	74 16                	je     162a9 <main+0x24ef>
   16293:	8b 45 f0             	mov    -0x10(%rbp),%eax
   16296:	89 c6                	mov    %eax,%esi
   16298:	48 8d 3d aa 37 00 00 	lea    0x37aa(%rip),%rdi        # 19a49 <g_1750+0x19a9>
   1629f:	b8 00 00 00 00       	mov    $0x0,%eax
   162a4:	e8 d7 1d ff ff       	callq  8080 <printf@plt>
   162a9:	83 45 f0 01          	addl   $0x1,-0x10(%rbp)
   162ad:	83 7d f0 01          	cmpl   $0x1,-0x10(%rbp)
   162b1:	0f 8e 3f fd ff ff    	jle    15ff6 <main+0x223c>
   162b7:	0f b7 05 da c9 00 00 	movzwl 0xc9da(%rip),%eax        # 22c98 <g_1405>
   162be:	0f b7 c0             	movzwl %ax,%eax
   162c1:	8b 55 fc             	mov    -0x4(%rbp),%edx
   162c4:	48 8d 35 b2 3c 00 00 	lea    0x3cb2(%rip),%rsi        # 19f7d <g_1750+0x1edd>
   162cb:	48 89 c7             	mov    %rax,%rdi
   162ce:	e8 20 34 ff ff       	callq  96f3 <transparent_crc>
   162d3:	48 8b 05 be 8b 00 00 	mov    0x8bbe(%rip),%rax        # 1ee98 <g_1408>
   162da:	48 89 c1             	mov    %rax,%rcx
   162dd:	8b 45 fc             	mov    -0x4(%rbp),%eax
   162e0:	89 c2                	mov    %eax,%edx
   162e2:	48 8d 35 9b 3c 00 00 	lea    0x3c9b(%rip),%rsi        # 19f84 <g_1750+0x1ee4>
   162e9:	48 89 cf             	mov    %rcx,%rdi
   162ec:	e8 02 34 ff ff       	callq  96f3 <transparent_crc>
   162f1:	8b 05 a1 8b 00 00    	mov    0x8ba1(%rip),%eax        # 1ee98 <g_1408>
   162f7:	89 c1                	mov    %eax,%ecx
   162f9:	8b 45 fc             	mov    -0x4(%rbp),%eax
   162fc:	89 c2                	mov    %eax,%edx
   162fe:	48 8d 35 89 3c 00 00 	lea    0x3c89(%rip),%rsi        # 19f8e <g_1750+0x1eee>
   16305:	48 89 cf             	mov    %rcx,%rdi
   16308:	e8 e6 33 ff ff       	callq  96f3 <transparent_crc>
   1630d:	8b 05 85 8b 00 00    	mov    0x8b85(%rip),%eax        # 1ee98 <g_1408>
   16313:	48 98                	cltq   
   16315:	8b 55 fc             	mov    -0x4(%rbp),%edx
   16318:	48 8d 35 79 3c 00 00 	lea    0x3c79(%rip),%rsi        # 19f98 <g_1750+0x1ef8>
   1631f:	48 89 c7             	mov    %rax,%rdi
   16322:	e8 cc 33 ff ff       	callq  96f3 <transparent_crc>
   16327:	c7 45 f0 00 00 00 00 	movl   $0x0,-0x10(%rbp)
   1632e:	e9 6b 01 00 00       	jmpq   1649e <main+0x26e4>
   16333:	c7 45 f4 00 00 00 00 	movl   $0x0,-0xc(%rbp)
   1633a:	e9 51 01 00 00       	jmpq   16490 <main+0x26d6>
   1633f:	c7 45 f8 00 00 00 00 	movl   $0x0,-0x8(%rbp)
   16346:	e9 37 01 00 00       	jmpq   16482 <main+0x26c8>
   1634b:	8b 45 f8             	mov    -0x8(%rbp),%eax
   1634e:	48 63 f0             	movslq %eax,%rsi
   16351:	8b 45 f0             	mov    -0x10(%rbp),%eax
   16354:	48 63 d0             	movslq %eax,%rdx
   16357:	8b 45 f4             	mov    -0xc(%rbp),%eax
   1635a:	48 63 c8             	movslq %eax,%rcx
   1635d:	48 89 d0             	mov    %rdx,%rax
   16360:	48 c1 e0 02          	shl    $0x2,%rax
   16364:	48 01 d0             	add    %rdx,%rax
   16367:	48 c1 e0 02          	shl    $0x2,%rax
   1636b:	48 01 d0             	add    %rdx,%rax
   1636e:	48 89 ca             	mov    %rcx,%rdx
   16371:	48 c1 e2 03          	shl    $0x3,%rdx
   16375:	48 29 ca             	sub    %rcx,%rdx
   16378:	48 01 d0             	add    %rdx,%rax
   1637b:	48 01 f0             	add    %rsi,%rax
   1637e:	48 8d 14 c5 00 00 00 	lea    0x0(,%rax,8),%rdx
   16385:	00 
   16386:	48 8d 05 13 8b 00 00 	lea    0x8b13(%rip),%rax        # 1eea0 <g_1450>
   1638d:	48 8b 04 02          	mov    (%rdx,%rax,1),%rax
   16391:	48 89 c1             	mov    %rax,%rcx
   16394:	8b 45 fc             	mov    -0x4(%rbp),%eax
   16397:	89 c2                	mov    %eax,%edx
   16399:	48 8d 35 02 3c 00 00 	lea    0x3c02(%rip),%rsi        # 19fa2 <g_1750+0x1f02>
   163a0:	48 89 cf             	mov    %rcx,%rdi
   163a3:	e8 4b 33 ff ff       	callq  96f3 <transparent_crc>
   163a8:	8b 45 f8             	mov    -0x8(%rbp),%eax
   163ab:	48 63 f0             	movslq %eax,%rsi
   163ae:	8b 45 f0             	mov    -0x10(%rbp),%eax
   163b1:	48 63 d0             	movslq %eax,%rdx
   163b4:	8b 45 f4             	mov    -0xc(%rbp),%eax
   163b7:	48 63 c8             	movslq %eax,%rcx
   163ba:	48 89 d0             	mov    %rdx,%rax
   163bd:	48 c1 e0 02          	shl    $0x2,%rax
   163c1:	48 01 d0             	add    %rdx,%rax
   163c4:	48 c1 e0 02          	shl    $0x2,%rax
   163c8:	48 01 d0             	add    %rdx,%rax
   163cb:	48 89 ca             	mov    %rcx,%rdx
   163ce:	48 c1 e2 03          	shl    $0x3,%rdx
   163d2:	48 29 ca             	sub    %rcx,%rdx
   163d5:	48 01 d0             	add    %rdx,%rax
   163d8:	48 01 f0             	add    %rsi,%rax
   163db:	48 8d 14 c5 00 00 00 	lea    0x0(,%rax,8),%rdx
   163e2:	00 
   163e3:	48 8d 05 b6 8a 00 00 	lea    0x8ab6(%rip),%rax        # 1eea0 <g_1450>
   163ea:	8b 04 02             	mov    (%rdx,%rax,1),%eax
   163ed:	89 c1                	mov    %eax,%ecx
   163ef:	8b 45 fc             	mov    -0x4(%rbp),%eax
   163f2:	89 c2                	mov    %eax,%edx
   163f4:	48 8d 35 ba 3b 00 00 	lea    0x3bba(%rip),%rsi        # 19fb5 <g_1750+0x1f15>
   163fb:	48 89 cf             	mov    %rcx,%rdi
   163fe:	e8 f0 32 ff ff       	callq  96f3 <transparent_crc>
   16403:	8b 45 f8             	mov    -0x8(%rbp),%eax
   16406:	48 63 f0             	movslq %eax,%rsi
   16409:	8b 45 f0             	mov    -0x10(%rbp),%eax
   1640c:	48 63 d0             	movslq %eax,%rdx
   1640f:	8b 45 f4             	mov    -0xc(%rbp),%eax
   16412:	48 63 c8             	movslq %eax,%rcx
   16415:	48 89 d0             	mov    %rdx,%rax
   16418:	48 c1 e0 02          	shl    $0x2,%rax
   1641c:	48 01 d0             	add    %rdx,%rax
   1641f:	48 c1 e0 02          	shl    $0x2,%rax
   16423:	48 01 d0             	add    %rdx,%rax
   16426:	48 89 ca             	mov    %rcx,%rdx
   16429:	48 c1 e2 03          	shl    $0x3,%rdx
   1642d:	48 29 ca             	sub    %rcx,%rdx
   16430:	48 01 d0             	add    %rdx,%rax
   16433:	48 01 f0             	add    %rsi,%rax
   16436:	48 8d 14 c5 00 00 00 	lea    0x0(,%rax,8),%rdx
   1643d:	00 
   1643e:	48 8d 05 5b 8a 00 00 	lea    0x8a5b(%rip),%rax        # 1eea0 <g_1450>
   16445:	8b 04 02             	mov    (%rdx,%rax,1),%eax
   16448:	48 98                	cltq   
   1644a:	8b 55 fc             	mov    -0x4(%rbp),%edx
   1644d:	48 8d 35 74 3b 00 00 	lea    0x3b74(%rip),%rsi        # 19fc8 <g_1750+0x1f28>
   16454:	48 89 c7             	mov    %rax,%rdi
   16457:	e8 97 32 ff ff       	callq  96f3 <transparent_crc>
   1645c:	83 7d fc 00          	cmpl   $0x0,-0x4(%rbp)
   16460:	74 1c                	je     1647e <main+0x26c4>
   16462:	8b 4d f8             	mov    -0x8(%rbp),%ecx
   16465:	8b 55 f4             	mov    -0xc(%rbp),%edx
   16468:	8b 45 f0             	mov    -0x10(%rbp),%eax
   1646b:	89 c6                	mov    %eax,%esi
   1646d:	48 8d 3d cf 34 00 00 	lea    0x34cf(%rip),%rdi        # 19943 <g_1750+0x18a3>
   16474:	b8 00 00 00 00       	mov    $0x0,%eax
   16479:	e8 02 1c ff ff       	callq  8080 <printf@plt>
   1647e:	83 45 f8 01          	addl   $0x1,-0x8(%rbp)
   16482:	83 7d f8 06          	cmpl   $0x6,-0x8(%rbp)
   16486:	0f 8e bf fe ff ff    	jle    1634b <main+0x2591>
   1648c:	83 45 f4 01          	addl   $0x1,-0xc(%rbp)
   16490:	83 7d f4 02          	cmpl   $0x2,-0xc(%rbp)
   16494:	0f 8e a5 fe ff ff    	jle    1633f <main+0x2585>
   1649a:	83 45 f0 01          	addl   $0x1,-0x10(%rbp)
   1649e:	83 7d f0 06          	cmpl   $0x6,-0x10(%rbp)
   164a2:	0f 8e 8b fe ff ff    	jle    16333 <main+0x2579>
   164a8:	48 8b 05 89 8e 00 00 	mov    0x8e89(%rip),%rax        # 1f338 <g_1452>
   164af:	48 89 c1             	mov    %rax,%rcx
   164b2:	8b 45 fc             	mov    -0x4(%rbp),%eax
   164b5:	89 c2                	mov    %eax,%edx
   164b7:	48 8d 35 1d 3b 00 00 	lea    0x3b1d(%rip),%rsi        # 19fdb <g_1750+0x1f3b>
   164be:	48 89 cf             	mov    %rcx,%rdi
   164c1:	e8 2d 32 ff ff       	callq  96f3 <transparent_crc>
   164c6:	8b 05 6c 8e 00 00    	mov    0x8e6c(%rip),%eax        # 1f338 <g_1452>
   164cc:	89 c1                	mov    %eax,%ecx
   164ce:	8b 45 fc             	mov    -0x4(%rbp),%eax
   164d1:	89 c2                	mov    %eax,%edx
   164d3:	48 8d 35 0b 3b 00 00 	lea    0x3b0b(%rip),%rsi        # 19fe5 <g_1750+0x1f45>
   164da:	48 89 cf             	mov    %rcx,%rdi
   164dd:	e8 11 32 ff ff       	callq  96f3 <transparent_crc>
   164e2:	8b 05 50 8e 00 00    	mov    0x8e50(%rip),%eax        # 1f338 <g_1452>
   164e8:	48 98                	cltq   
   164ea:	8b 55 fc             	mov    -0x4(%rbp),%edx
   164ed:	48 8d 35 fb 3a 00 00 	lea    0x3afb(%rip),%rsi        # 19fef <g_1750+0x1f4f>
   164f4:	48 89 c7             	mov    %rax,%rdi
   164f7:	e8 f7 31 ff ff       	callq  96f3 <transparent_crc>
   164fc:	0f b7 05 3d 8e 00 00 	movzwl 0x8e3d(%rip),%eax        # 1f340 <g_1528>
   16503:	0f b7 c0             	movzwl %ax,%eax
   16506:	8b 55 fc             	mov    -0x4(%rbp),%edx
   16509:	48 8d 35 e9 3a 00 00 	lea    0x3ae9(%rip),%rsi        # 19ff9 <g_1750+0x1f59>
   16510:	48 89 c7             	mov    %rax,%rdi
   16513:	e8 db 31 ff ff       	callq  96f3 <transparent_crc>
   16518:	c7 45 f0 00 00 00 00 	movl   $0x0,-0x10(%rbp)
   1651f:	eb 4d                	jmp    1656e <main+0x27b4>
   16521:	8b 45 f0             	mov    -0x10(%rbp),%eax
   16524:	48 98                	cltq   
   16526:	48 8d 14 85 00 00 00 	lea    0x0(,%rax,4),%rdx
   1652d:	00 
   1652e:	48 8d 05 1b 8e 00 00 	lea    0x8e1b(%rip),%rax        # 1f350 <g_1581>
   16535:	8b 04 02             	mov    (%rdx,%rax,1),%eax
   16538:	89 c1                	mov    %eax,%ecx
   1653a:	8b 45 fc             	mov    -0x4(%rbp),%eax
   1653d:	89 c2                	mov    %eax,%edx
   1653f:	48 8d 35 ba 3a 00 00 	lea    0x3aba(%rip),%rsi        # 1a000 <g_1750+0x1f60>
   16546:	48 89 cf             	mov    %rcx,%rdi
   16549:	e8 a5 31 ff ff       	callq  96f3 <transparent_crc>
   1654e:	83 7d fc 00          	cmpl   $0x0,-0x4(%rbp)
   16552:	74 16                	je     1656a <main+0x27b0>
   16554:	8b 45 f0             	mov    -0x10(%rbp),%eax
   16557:	89 c6                	mov    %eax,%esi
   16559:	48 8d 3d e9 34 00 00 	lea    0x34e9(%rip),%rdi        # 19a49 <g_1750+0x19a9>
   16560:	b8 00 00 00 00       	mov    $0x0,%eax
   16565:	e8 16 1b ff ff       	callq  8080 <printf@plt>
   1656a:	83 45 f0 01          	addl   $0x1,-0x10(%rbp)
   1656e:	83 7d f0 04          	cmpl   $0x4,-0x10(%rbp)
   16572:	7e ad                	jle    16521 <main+0x2767>
   16574:	c7 45 f0 00 00 00 00 	movl   $0x0,-0x10(%rbp)
   1657b:	e9 70 03 00 00       	jmpq   168f0 <main+0x2b36>
   16580:	c7 45 f4 00 00 00 00 	movl   $0x0,-0xc(%rbp)
   16587:	e9 56 03 00 00       	jmpq   168e2 <main+0x2b28>
   1658c:	c7 45 f8 00 00 00 00 	movl   $0x0,-0x8(%rbp)
   16593:	e9 3c 03 00 00       	jmpq   168d4 <main+0x2b1a>
   16598:	8b 45 f8             	mov    -0x8(%rbp),%eax
   1659b:	48 63 d0             	movslq %eax,%rdx
   1659e:	8b 45 f4             	mov    -0xc(%rbp),%eax
   165a1:	48 98                	cltq   
   165a3:	48 01 c2             	add    %rax,%rdx
   165a6:	8b 45 f0             	mov    -0x10(%rbp),%eax
   165a9:	48 63 c8             	movslq %eax,%rcx
   165ac:	48 89 d0             	mov    %rdx,%rax
   165af:	48 01 c0             	add    %rax,%rax
   165b2:	48 01 d0             	add    %rdx,%rax
   165b5:	48 c1 e0 02          	shl    $0x2,%rax
   165b9:	48 01 d0             	add    %rdx,%rax
   165bc:	48 01 c0             	add    %rax,%rax
   165bf:	48 6b d1 4e          	imul   $0x4e,%rcx,%rdx
   165c3:	48 01 c2             	add    %rax,%rdx
   165c6:	48 8d 05 b3 8d 00 00 	lea    0x8db3(%rip),%rax        # 1f380 <g_1600>
   165cd:	48 01 d0             	add    %rdx,%rax
   165d0:	0f b7 10             	movzwl (%rax),%edx
   165d3:	0f b7 d2             	movzwl %dx,%edx
   165d6:	0f b7 40 02          	movzwl 0x2(%rax),%eax
   165da:	0f b7 c0             	movzwl %ax,%eax
   165dd:	83 e0 7f             	and    $0x7f,%eax
   165e0:	48 c1 e0 10          	shl    $0x10,%rax
   165e4:	48 09 d0             	or     %rdx,%rax
   165e7:	89 c1                	mov    %eax,%ecx
   165e9:	8b 45 fc             	mov    -0x4(%rbp),%eax
   165ec:	89 c2                	mov    %eax,%edx
   165ee:	48 8d 35 15 3a 00 00 	lea    0x3a15(%rip),%rsi        # 1a00a <g_1750+0x1f6a>
   165f5:	48 89 cf             	mov    %rcx,%rdi
   165f8:	e8 f6 30 ff ff       	callq  96f3 <transparent_crc>
   165fd:	8b 45 f8             	mov    -0x8(%rbp),%eax
   16600:	48 63 d0             	movslq %eax,%rdx
   16603:	8b 45 f4             	mov    -0xc(%rbp),%eax
   16606:	48 98                	cltq   
   16608:	48 01 c2             	add    %rax,%rdx
   1660b:	8b 45 f0             	mov    -0x10(%rbp),%eax
   1660e:	48 63 c8             	movslq %eax,%rcx
   16611:	48 89 d0             	mov    %rdx,%rax
   16614:	48 01 c0             	add    %rax,%rax
   16617:	48 01 d0             	add    %rdx,%rax
   1661a:	48 c1 e0 02          	shl    $0x2,%rax
   1661e:	48 01 d0             	add    %rdx,%rax
   16621:	48 01 c0             	add    %rax,%rax
   16624:	48 6b d1 4e          	imul   $0x4e,%rcx,%rdx
   16628:	48 01 c2             	add    %rax,%rdx
   1662b:	48 8d 05 4e 8d 00 00 	lea    0x8d4e(%rip),%rax        # 1f380 <g_1600>
   16632:	48 01 d0             	add    %rdx,%rax
   16635:	48 8b 40 03          	mov    0x3(%rax),%rax
   16639:	48 89 c1             	mov    %rax,%rcx
   1663c:	8b 45 fc             	mov    -0x4(%rbp),%eax
   1663f:	89 c2                	mov    %eax,%edx
   16641:	48 8d 35 d5 39 00 00 	lea    0x39d5(%rip),%rsi        # 1a01d <g_1750+0x1f7d>
   16648:	48 89 cf             	mov    %rcx,%rdi
   1664b:	e8 a3 30 ff ff       	callq  96f3 <transparent_crc>
   16650:	8b 45 f8             	mov    -0x8(%rbp),%eax
   16653:	48 63 d0             	movslq %eax,%rdx
   16656:	8b 45 f4             	mov    -0xc(%rbp),%eax
   16659:	48 98                	cltq   
   1665b:	48 01 c2             	add    %rax,%rdx
   1665e:	8b 45 f0             	mov    -0x10(%rbp),%eax
   16661:	48 63 c8             	movslq %eax,%rcx
   16664:	48 89 d0             	mov    %rdx,%rax
   16667:	48 01 c0             	add    %rax,%rax
   1666a:	48 01 d0             	add    %rdx,%rax
   1666d:	48 c1 e0 02          	shl    $0x2,%rax
   16671:	48 01 d0             	add    %rdx,%rax
   16674:	48 01 c0             	add    %rax,%rax
   16677:	48 6b d1 4e          	imul   $0x4e,%rcx,%rdx
   1667b:	48 01 c2             	add    %rax,%rdx
   1667e:	48 8d 05 fb 8c 00 00 	lea    0x8cfb(%rip),%rax        # 1f380 <g_1600>
   16685:	48 01 d0             	add    %rdx,%rax
   16688:	0f b6 50 0b          	movzbl 0xb(%rax),%edx
   1668c:	0f b7 40 0c          	movzwl 0xc(%rax),%eax
   16690:	48 c1 e0 08          	shl    $0x8,%rax
   16694:	48 09 d0             	or     %rdx,%rax
   16697:	89 c1                	mov    %eax,%ecx
   16699:	8b 45 fc             	mov    -0x4(%rbp),%eax
   1669c:	89 c2                	mov    %eax,%edx
   1669e:	48 8d 35 8b 39 00 00 	lea    0x398b(%rip),%rsi        # 1a030 <g_1750+0x1f90>
   166a5:	48 89 cf             	mov    %rcx,%rdi
   166a8:	e8 46 30 ff ff       	callq  96f3 <transparent_crc>
   166ad:	8b 45 f8             	mov    -0x8(%rbp),%eax
   166b0:	48 63 d0             	movslq %eax,%rdx
   166b3:	8b 45 f4             	mov    -0xc(%rbp),%eax
   166b6:	48 98                	cltq   
   166b8:	48 01 c2             	add    %rax,%rdx
   166bb:	8b 45 f0             	mov    -0x10(%rbp),%eax
   166be:	48 63 c8             	movslq %eax,%rcx
   166c1:	48 89 d0             	mov    %rdx,%rax
   166c4:	48 01 c0             	add    %rax,%rax
   166c7:	48 01 d0             	add    %rdx,%rax
   166ca:	48 c1 e0 02          	shl    $0x2,%rax
   166ce:	48 01 d0             	add    %rdx,%rax
   166d1:	48 01 c0             	add    %rax,%rax
   166d4:	48 6b d1 4e          	imul   $0x4e,%rcx,%rdx
   166d8:	48 01 c2             	add    %rax,%rdx
   166db:	48 8d 05 9e 8c 00 00 	lea    0x8c9e(%rip),%rax        # 1f380 <g_1600>
   166e2:	48 01 d0             	add    %rdx,%rax
   166e5:	0f b7 50 0e          	movzwl 0xe(%rax),%edx
   166e9:	0f b7 d2             	movzwl %dx,%edx
   166ec:	0f b7 40 10          	movzwl 0x10(%rax),%eax
   166f0:	0f b7 c0             	movzwl %ax,%eax
   166f3:	25 ff 03 00 00       	and    $0x3ff,%eax
   166f8:	48 c1 e0 10          	shl    $0x10,%rax
   166fc:	48 09 d0             	or     %rdx,%rax
   166ff:	89 c1                	mov    %eax,%ecx
   16701:	8b 45 fc             	mov    -0x4(%rbp),%eax
   16704:	89 c2                	mov    %eax,%edx
   16706:	48 8d 35 36 39 00 00 	lea    0x3936(%rip),%rsi        # 1a043 <g_1750+0x1fa3>
   1670d:	48 89 cf             	mov    %rcx,%rdi
   16710:	e8 de 2f ff ff       	callq  96f3 <transparent_crc>
   16715:	8b 45 f8             	mov    -0x8(%rbp),%eax
   16718:	48 63 d0             	movslq %eax,%rdx
   1671b:	8b 45 f4             	mov    -0xc(%rbp),%eax
   1671e:	48 98                	cltq   
   16720:	48 01 c2             	add    %rax,%rdx
   16723:	8b 45 f0             	mov    -0x10(%rbp),%eax
   16726:	48 63 c8             	movslq %eax,%rcx
   16729:	48 89 d0             	mov    %rdx,%rax
   1672c:	48 01 c0             	add    %rax,%rax
   1672f:	48 01 d0             	add    %rdx,%rax
   16732:	48 c1 e0 02          	shl    $0x2,%rax
   16736:	48 01 d0             	add    %rdx,%rax
   16739:	48 01 c0             	add    %rax,%rax
   1673c:	48 6b d1 4e          	imul   $0x4e,%rcx,%rdx
   16740:	48 01 c2             	add    %rax,%rdx
   16743:	48 8d 05 46 8c 00 00 	lea    0x8c46(%rip),%rax        # 1f390 <g_1600+0x10>
   1674a:	48 01 d0             	add    %rdx,%rax
   1674d:	0f b6 50 01          	movzbl 0x1(%rax),%edx
   16751:	c0 ea 02             	shr    $0x2,%dl
   16754:	0f b6 d2             	movzbl %dl,%edx
   16757:	0f b7 48 02          	movzwl 0x2(%rax),%ecx
   1675b:	48 c1 e1 06          	shl    $0x6,%rcx
   1675f:	48 09 ca             	or     %rcx,%rdx
   16762:	0f b6 40 04          	movzbl 0x4(%rax),%eax
   16766:	83 e0 01             	and    $0x1,%eax
   16769:	48 c1 e0 16          	shl    $0x16,%rax
   1676d:	48 09 d0             	or     %rdx,%rax
   16770:	89 c1                	mov    %eax,%ecx
   16772:	8b 45 fc             	mov    -0x4(%rbp),%eax
   16775:	89 c2                	mov    %eax,%edx
   16777:	48 8d 35 d8 38 00 00 	lea    0x38d8(%rip),%rsi        # 1a056 <g_1750+0x1fb6>
   1677e:	48 89 cf             	mov    %rcx,%rdi
   16781:	e8 6d 2f ff ff       	callq  96f3 <transparent_crc>
   16786:	8b 45 f8             	mov    -0x8(%rbp),%eax
   16789:	48 63 d0             	movslq %eax,%rdx
   1678c:	8b 45 f4             	mov    -0xc(%rbp),%eax
   1678f:	48 98                	cltq   
   16791:	48 01 c2             	add    %rax,%rdx
   16794:	8b 45 f0             	mov    -0x10(%rbp),%eax
   16797:	48 63 c8             	movslq %eax,%rcx
   1679a:	48 89 d0             	mov    %rdx,%rax
   1679d:	48 01 c0             	add    %rax,%rax
   167a0:	48 01 d0             	add    %rdx,%rax
   167a3:	48 c1 e0 02          	shl    $0x2,%rax
   167a7:	48 01 d0             	add    %rdx,%rax
   167aa:	48 01 c0             	add    %rax,%rax
   167ad:	48 6b d1 4e          	imul   $0x4e,%rcx,%rdx
   167b1:	48 01 c2             	add    %rax,%rdx
   167b4:	48 8d 05 d5 8b 00 00 	lea    0x8bd5(%rip),%rax        # 1f390 <g_1600+0x10>
   167bb:	48 01 d0             	add    %rdx,%rax
   167be:	0f b7 40 04          	movzwl 0x4(%rax),%eax
   167c2:	d0 f8                	sar    %al
   167c4:	48 0f be c0          	movsbq %al,%rax
   167c8:	8b 55 fc             	mov    -0x4(%rbp),%edx
   167cb:	48 8d 35 97 38 00 00 	lea    0x3897(%rip),%rsi        # 1a069 <g_1750+0x1fc9>
   167d2:	48 89 c7             	mov    %rax,%rdi
   167d5:	e8 19 2f ff ff       	callq  96f3 <transparent_crc>
   167da:	8b 45 f8             	mov    -0x8(%rbp),%eax
   167dd:	48 63 d0             	movslq %eax,%rdx
   167e0:	8b 45 f4             	mov    -0xc(%rbp),%eax
   167e3:	48 98                	cltq   
   167e5:	48 01 c2             	add    %rax,%rdx
   167e8:	8b 45 f0             	mov    -0x10(%rbp),%eax
   167eb:	48 63 c8             	movslq %eax,%rcx
   167ee:	48 89 d0             	mov    %rdx,%rax
   167f1:	48 01 c0             	add    %rax,%rax
   167f4:	48 01 d0             	add    %rdx,%rax
   167f7:	48 c1 e0 02          	shl    $0x2,%rax
   167fb:	48 01 d0             	add    %rdx,%rax
   167fe:	48 01 c0             	add    %rax,%rax
   16801:	48 6b d1 4e          	imul   $0x4e,%rcx,%rdx
   16805:	48 01 c2             	add    %rax,%rdx
   16808:	48 8d 05 81 8b 00 00 	lea    0x8b81(%rip),%rax        # 1f390 <g_1600+0x10>
   1680f:	48 01 d0             	add    %rdx,%rax
   16812:	0f b6 50 05          	movzbl 0x5(%rax),%edx
   16816:	0f b6 40 06          	movzbl 0x6(%rax),%eax
   1681a:	83 e0 0f             	and    $0xf,%eax
   1681d:	48 c1 e0 08          	shl    $0x8,%rax
   16821:	48 09 d0             	or     %rdx,%rax
   16824:	48 c1 e0 34          	shl    $0x34,%rax
   16828:	48 c1 f8 34          	sar    $0x34,%rax
   1682c:	48 0f bf c0          	movswq %ax,%rax
   16830:	8b 55 fc             	mov    -0x4(%rbp),%edx
   16833:	48 8d 35 42 38 00 00 	lea    0x3842(%rip),%rsi        # 1a07c <g_1750+0x1fdc>
   1683a:	48 89 c7             	mov    %rax,%rdi
   1683d:	e8 b1 2e ff ff       	callq  96f3 <transparent_crc>
   16842:	8b 45 f8             	mov    -0x8(%rbp),%eax
   16845:	48 63 d0             	movslq %eax,%rdx
   16848:	8b 45 f4             	mov    -0xc(%rbp),%eax
   1684b:	48 98                	cltq   
   1684d:	48 01 c2             	add    %rax,%rdx
   16850:	8b 45 f0             	mov    -0x10(%rbp),%eax
   16853:	48 63 c8             	movslq %eax,%rcx
   16856:	48 89 d0             	mov    %rdx,%rax
   16859:	48 01 c0             	add    %rax,%rax
   1685c:	48 01 d0             	add    %rdx,%rax
   1685f:	48 c1 e0 02          	shl    $0x2,%rax
   16863:	48 01 d0             	add    %rdx,%rax
   16866:	48 01 c0             	add    %rax,%rax
   16869:	48 6b d1 4e          	imul   $0x4e,%rcx,%rdx
   1686d:	48 01 c2             	add    %rax,%rdx
   16870:	48 8d 05 19 8b 00 00 	lea    0x8b19(%rip),%rax        # 1f390 <g_1600+0x10>
   16877:	48 01 d0             	add    %rdx,%rax
   1687a:	0f b7 50 06          	movzwl 0x6(%rax),%edx
   1687e:	66 c1 ea 04          	shr    $0x4,%dx
   16882:	0f b7 d2             	movzwl %dx,%edx
   16885:	0f b7 40 08          	movzwl 0x8(%rax),%eax
   16889:	0f b7 c0             	movzwl %ax,%eax
   1688c:	25 ff 01 00 00       	and    $0x1ff,%eax
   16891:	48 c1 e0 0c          	shl    $0xc,%rax
   16895:	48 09 d0             	or     %rdx,%rax
   16898:	89 c1                	mov    %eax,%ecx
   1689a:	8b 45 fc             	mov    -0x4(%rbp),%eax
   1689d:	89 c2                	mov    %eax,%edx
   1689f:	48 8d 35 e9 37 00 00 	lea    0x37e9(%rip),%rsi        # 1a08f <g_1750+0x1fef>
   168a6:	48 89 cf             	mov    %rcx,%rdi
   168a9:	e8 45 2e ff ff       	callq  96f3 <transparent_crc>
   168ae:	83 7d fc 00          	cmpl   $0x0,-0x4(%rbp)
   168b2:	74 1c                	je     168d0 <main+0x2b16>
   168b4:	8b 4d f8             	mov    -0x8(%rbp),%ecx
   168b7:	8b 55 f4             	mov    -0xc(%rbp),%edx
   168ba:	8b 45 f0             	mov    -0x10(%rbp),%eax
   168bd:	89 c6                	mov    %eax,%esi
   168bf:	48 8d 3d 7d 30 00 00 	lea    0x307d(%rip),%rdi        # 19943 <g_1750+0x18a3>
   168c6:	b8 00 00 00 00       	mov    $0x0,%eax
   168cb:	e8 b0 17 ff ff       	callq  8080 <printf@plt>
   168d0:	83 45 f8 01          	addl   $0x1,-0x8(%rbp)
   168d4:	83 7d f8 00          	cmpl   $0x0,-0x8(%rbp)
   168d8:	0f 8e ba fc ff ff    	jle    16598 <main+0x27de>
   168de:	83 45 f4 01          	addl   $0x1,-0xc(%rbp)
   168e2:	83 7d f4 02          	cmpl   $0x2,-0xc(%rbp)
   168e6:	0f 8e a0 fc ff ff    	jle    1658c <main+0x27d2>
   168ec:	83 45 f0 01          	addl   $0x1,-0x10(%rbp)
   168f0:	83 7d f0 08          	cmpl   $0x8,-0x10(%rbp)
   168f4:	0f 8e 86 fc ff ff    	jle    16580 <main+0x27c6>
   168fa:	0f b6 05 3d 8d 00 00 	movzbl 0x8d3d(%rip),%eax        # 1f63e <g_1648>
   16901:	48 0f be c0          	movsbq %al,%rax
   16905:	8b 55 fc             	mov    -0x4(%rbp),%edx
   16908:	48 8d 35 93 37 00 00 	lea    0x3793(%rip),%rsi        # 1a0a2 <g_1750+0x2002>
   1690f:	48 89 c7             	mov    %rax,%rdi
   16912:	e8 dc 2d ff ff       	callq  96f3 <transparent_crc>
   16917:	b8 f9 ff ff ff       	mov    $0xfffffff9,%eax
   1691c:	48 0f bf c0          	movswq %ax,%rax
   16920:	8b 55 fc             	mov    -0x4(%rbp),%edx
   16923:	48 8d 35 7f 37 00 00 	lea    0x377f(%rip),%rsi        # 1a0a9 <g_1750+0x2009>
   1692a:	48 89 c7             	mov    %rax,%rdi
   1692d:	e8 c1 2d ff ff       	callq  96f3 <transparent_crc>
   16932:	48 8b 05 07 8d 00 00 	mov    0x8d07(%rip),%rax        # 1f640 <g_1741>
   16939:	25 ff ff 7f 00       	and    $0x7fffff,%eax
   1693e:	89 c1                	mov    %eax,%ecx
   16940:	8b 45 fc             	mov    -0x4(%rbp),%eax
   16943:	89 c2                	mov    %eax,%edx
   16945:	48 8d 35 64 37 00 00 	lea    0x3764(%rip),%rsi        # 1a0b0 <g_1750+0x2010>
   1694c:	48 89 cf             	mov    %rcx,%rdi
   1694f:	e8 9f 2d ff ff       	callq  96f3 <transparent_crc>
   16954:	48 8b 05 e8 8c 00 00 	mov    0x8ce8(%rip),%rax        # 1f643 <g_1741+0x3>
   1695b:	48 89 c1             	mov    %rax,%rcx
   1695e:	8b 45 fc             	mov    -0x4(%rbp),%eax
   16961:	89 c2                	mov    %eax,%edx
   16963:	48 8d 35 50 37 00 00 	lea    0x3750(%rip),%rsi        # 1a0ba <g_1750+0x201a>
   1696a:	48 89 cf             	mov    %rcx,%rdi
   1696d:	e8 81 2d ff ff       	callq  96f3 <transparent_crc>
   16972:	48 8b 05 cf 8c 00 00 	mov    0x8ccf(%rip),%rax        # 1f648 <g_1741+0x8>
   16979:	48 c1 e8 18          	shr    $0x18,%rax
   1697d:	25 ff ff ff 00       	and    $0xffffff,%eax
   16982:	89 c1                	mov    %eax,%ecx
   16984:	8b 45 fc             	mov    -0x4(%rbp),%eax
   16987:	89 c2                	mov    %eax,%edx
   16989:	48 8d 35 34 37 00 00 	lea    0x3734(%rip),%rsi        # 1a0c4 <g_1750+0x2024>
   16990:	48 89 cf             	mov    %rcx,%rdi
   16993:	e8 5b 2d ff ff       	callq  96f3 <transparent_crc>
   16998:	48 8b 05 a9 8c 00 00 	mov    0x8ca9(%rip),%rax        # 1f648 <g_1741+0x8>
   1699f:	48 c1 e8 30          	shr    $0x30,%rax
   169a3:	48 89 c2             	mov    %rax,%rdx
   169a6:	48 8b 05 a3 8c 00 00 	mov    0x8ca3(%rip),%rax        # 1f650 <g_1741+0x10>
   169ad:	25 ff 03 00 00       	and    $0x3ff,%eax
   169b2:	48 c1 e0 10          	shl    $0x10,%rax
   169b6:	48 09 d0             	or     %rdx,%rax
   169b9:	89 c1                	mov    %eax,%ecx
   169bb:	8b 45 fc             	mov    -0x4(%rbp),%eax
   169be:	89 c2                	mov    %eax,%edx
   169c0:	48 8d 35 07 37 00 00 	lea    0x3707(%rip),%rsi        # 1a0ce <g_1750+0x202e>
   169c7:	48 89 cf             	mov    %rcx,%rdi
   169ca:	e8 24 2d ff ff       	callq  96f3 <transparent_crc>
   169cf:	48 8b 05 7a 8c 00 00 	mov    0x8c7a(%rip),%rax        # 1f650 <g_1741+0x10>
   169d6:	48 c1 e8 0a          	shr    $0xa,%rax
   169da:	25 ff ff 7f 00       	and    $0x7fffff,%eax
   169df:	89 c1                	mov    %eax,%ecx
   169e1:	8b 45 fc             	mov    -0x4(%rbp),%eax
   169e4:	89 c2                	mov    %eax,%edx
   169e6:	48 8d 35 eb 36 00 00 	lea    0x36eb(%rip),%rsi        # 1a0d8 <g_1750+0x2038>
   169ed:	48 89 cf             	mov    %rcx,%rdi
   169f0:	e8 fe 2c ff ff       	callq  96f3 <transparent_crc>
   169f5:	48 8b 05 54 8c 00 00 	mov    0x8c54(%rip),%rax        # 1f650 <g_1741+0x10>
   169fc:	48 c1 e0 18          	shl    $0x18,%rax
   16a00:	48 c1 f8 39          	sar    $0x39,%rax
   16a04:	48 0f be c0          	movsbq %al,%rax
   16a08:	8b 55 fc             	mov    -0x4(%rbp),%edx
   16a0b:	48 8d 35 d0 36 00 00 	lea    0x36d0(%rip),%rsi        # 1a0e2 <g_1750+0x2042>
   16a12:	48 89 c7             	mov    %rax,%rdi
   16a15:	e8 d9 2c ff ff       	callq  96f3 <transparent_crc>
   16a1a:	8b 05 34 8c 00 00    	mov    0x8c34(%rip),%eax        # 1f654 <g_1741+0x14>
   16a20:	c1 e0 0c             	shl    $0xc,%eax
   16a23:	c1 f8 14             	sar    $0x14,%eax
   16a26:	48 0f bf c0          	movswq %ax,%rax
   16a2a:	8b 55 fc             	mov    -0x4(%rbp),%edx
   16a2d:	48 8d 35 b8 36 00 00 	lea    0x36b8(%rip),%rsi        # 1a0ec <g_1750+0x204c>
   16a34:	48 89 c7             	mov    %rax,%rdi
   16a37:	e8 b7 2c ff ff       	callq  96f3 <transparent_crc>
   16a3c:	48 8b 05 0d 8c 00 00 	mov    0x8c0d(%rip),%rax        # 1f650 <g_1741+0x10>
   16a43:	48 c1 e8 34          	shr    $0x34,%rax
   16a47:	48 89 c2             	mov    %rax,%rdx
   16a4a:	48 8b 05 07 8c 00 00 	mov    0x8c07(%rip),%rax        # 1f658 <g_1741+0x18>
   16a51:	25 ff 01 00 00       	and    $0x1ff,%eax
   16a56:	48 c1 e0 0c          	shl    $0xc,%rax
   16a5a:	48 09 d0             	or     %rdx,%rax
   16a5d:	89 c1                	mov    %eax,%ecx
   16a5f:	8b 45 fc             	mov    -0x4(%rbp),%eax
   16a62:	89 c2                	mov    %eax,%edx
   16a64:	48 8d 35 8b 36 00 00 	lea    0x368b(%rip),%rsi        # 1a0f6 <g_1750+0x2056>
   16a6b:	48 89 cf             	mov    %rcx,%rdi
   16a6e:	e8 80 2c ff ff       	callq  96f3 <transparent_crc>
   16a73:	c7 45 f0 00 00 00 00 	movl   $0x0,-0x10(%rbp)
   16a7a:	e9 4a 01 00 00       	jmpq   16bc9 <main+0x2e0f>
   16a7f:	c7 45 f4 00 00 00 00 	movl   $0x0,-0xc(%rbp)
   16a86:	e9 30 01 00 00       	jmpq   16bbb <main+0x2e01>
   16a8b:	c7 45 f8 00 00 00 00 	movl   $0x0,-0x8(%rbp)
   16a92:	e9 16 01 00 00       	jmpq   16bad <main+0x2df3>
   16a97:	8b 45 f8             	mov    -0x8(%rbp),%eax
   16a9a:	48 63 c8             	movslq %eax,%rcx
   16a9d:	8b 45 f0             	mov    -0x10(%rbp),%eax
   16aa0:	48 63 d0             	movslq %eax,%rdx
   16aa3:	8b 45 f4             	mov    -0xc(%rbp),%eax
   16aa6:	48 63 f0             	movslq %eax,%rsi
   16aa9:	48 89 d0             	mov    %rdx,%rax
   16aac:	48 c1 e0 02          	shl    $0x2,%rax
   16ab0:	48 01 d0             	add    %rdx,%rax
   16ab3:	48 01 c0             	add    %rax,%rax
   16ab6:	48 01 f0             	add    %rsi,%rax
   16ab9:	48 01 c0             	add    %rax,%rax
   16abc:	48 01 c8             	add    %rcx,%rax
   16abf:	48 8d 14 c5 00 00 00 	lea    0x0(,%rax,8),%rdx
   16ac6:	00 
   16ac7:	48 8d 05 d2 15 00 00 	lea    0x15d2(%rip),%rax        # 180a0 <g_1750>
   16ace:	48 8b 04 02          	mov    (%rdx,%rax,1),%rax
   16ad2:	48 89 c1             	mov    %rax,%rcx
   16ad5:	8b 45 fc             	mov    -0x4(%rbp),%eax
   16ad8:	89 c2                	mov    %eax,%edx
   16ada:	48 8d 35 1f 36 00 00 	lea    0x361f(%rip),%rsi        # 1a100 <g_1750+0x2060>
   16ae1:	48 89 cf             	mov    %rcx,%rdi
   16ae4:	e8 0a 2c ff ff       	callq  96f3 <transparent_crc>
   16ae9:	8b 45 f8             	mov    -0x8(%rbp),%eax
   16aec:	48 63 c8             	movslq %eax,%rcx
   16aef:	8b 45 f0             	mov    -0x10(%rbp),%eax
   16af2:	48 63 d0             	movslq %eax,%rdx
   16af5:	8b 45 f4             	mov    -0xc(%rbp),%eax
   16af8:	48 63 f0             	movslq %eax,%rsi
   16afb:	48 89 d0             	mov    %rdx,%rax
   16afe:	48 c1 e0 02          	shl    $0x2,%rax
   16b02:	48 01 d0             	add    %rdx,%rax
   16b05:	48 01 c0             	add    %rax,%rax
   16b08:	48 01 f0             	add    %rsi,%rax
   16b0b:	48 01 c0             	add    %rax,%rax
   16b0e:	48 01 c8             	add    %rcx,%rax
   16b11:	48 8d 14 c5 00 00 00 	lea    0x0(,%rax,8),%rdx
   16b18:	00 
   16b19:	48 8d 05 80 15 00 00 	lea    0x1580(%rip),%rax        # 180a0 <g_1750>
   16b20:	8b 04 02             	mov    (%rdx,%rax,1),%eax
   16b23:	89 c1                	mov    %eax,%ecx
   16b25:	8b 45 fc             	mov    -0x4(%rbp),%eax
   16b28:	89 c2                	mov    %eax,%edx
   16b2a:	48 8d 35 e2 35 00 00 	lea    0x35e2(%rip),%rsi        # 1a113 <g_1750+0x2073>
   16b31:	48 89 cf             	mov    %rcx,%rdi
   16b34:	e8 ba 2b ff ff       	callq  96f3 <transparent_crc>
   16b39:	8b 45 f8             	mov    -0x8(%rbp),%eax
   16b3c:	48 63 c8             	movslq %eax,%rcx
   16b3f:	8b 45 f0             	mov    -0x10(%rbp),%eax
   16b42:	48 63 d0             	movslq %eax,%rdx
   16b45:	8b 45 f4             	mov    -0xc(%rbp),%eax
   16b48:	48 63 f0             	movslq %eax,%rsi
   16b4b:	48 89 d0             	mov    %rdx,%rax
   16b4e:	48 c1 e0 02          	shl    $0x2,%rax
   16b52:	48 01 d0             	add    %rdx,%rax
   16b55:	48 01 c0             	add    %rax,%rax
   16b58:	48 01 f0             	add    %rsi,%rax
   16b5b:	48 01 c0             	add    %rax,%rax
   16b5e:	48 01 c8             	add    %rcx,%rax
   16b61:	48 8d 14 c5 00 00 00 	lea    0x0(,%rax,8),%rdx
   16b68:	00 
   16b69:	48 8d 05 30 15 00 00 	lea    0x1530(%rip),%rax        # 180a0 <g_1750>
   16b70:	8b 04 02             	mov    (%rdx,%rax,1),%eax
   16b73:	48 98                	cltq   
   16b75:	8b 55 fc             	mov    -0x4(%rbp),%edx
   16b78:	48 8d 35 a7 35 00 00 	lea    0x35a7(%rip),%rsi        # 1a126 <g_1750+0x2086>
   16b7f:	48 89 c7             	mov    %rax,%rdi
   16b82:	e8 6c 2b ff ff       	callq  96f3 <transparent_crc>
   16b87:	83 7d fc 00          	cmpl   $0x0,-0x4(%rbp)
   16b8b:	74 1c                	je     16ba9 <main+0x2def>
   16b8d:	8b 4d f8             	mov    -0x8(%rbp),%ecx
   16b90:	8b 55 f4             	mov    -0xc(%rbp),%edx
   16b93:	8b 45 f0             	mov    -0x10(%rbp),%eax
   16b96:	89 c6                	mov    %eax,%esi
   16b98:	48 8d 3d a4 2d 00 00 	lea    0x2da4(%rip),%rdi        # 19943 <g_1750+0x18a3>
   16b9f:	b8 00 00 00 00       	mov    $0x0,%eax
   16ba4:	e8 d7 14 ff ff       	callq  8080 <printf@plt>
   16ba9:	83 45 f8 01          	addl   $0x1,-0x8(%rbp)
   16bad:	83 7d f8 01          	cmpl   $0x1,-0x8(%rbp)
   16bb1:	0f 8e e0 fe ff ff    	jle    16a97 <main+0x2cdd>
   16bb7:	83 45 f4 01          	addl   $0x1,-0xc(%rbp)
   16bbb:	83 7d f4 09          	cmpl   $0x9,-0xc(%rbp)
   16bbf:	0f 8e c6 fe ff ff    	jle    16a8b <main+0x2cd1>
   16bc5:	83 45 f0 01          	addl   $0x1,-0x10(%rbp)
   16bc9:	83 7d f0 04          	cmpl   $0x4,-0x10(%rbp)
   16bcd:	0f 8e ac fe ff ff    	jle    16a7f <main+0x2cc5>
   16bd3:	c7 45 f0 00 00 00 00 	movl   $0x0,-0x10(%rbp)
   16bda:	e9 28 04 00 00       	jmpq   17007 <main+0x324d>
   16bdf:	c7 45 f4 00 00 00 00 	movl   $0x0,-0xc(%rbp)
   16be6:	e9 0e 04 00 00       	jmpq   16ff9 <main+0x323f>
   16beb:	c7 45 f8 00 00 00 00 	movl   $0x0,-0x8(%rbp)
   16bf2:	e9 f4 03 00 00       	jmpq   16feb <main+0x3231>
   16bf7:	8b 45 f8             	mov    -0x8(%rbp),%eax
   16bfa:	48 63 d0             	movslq %eax,%rdx
   16bfd:	8b 45 f4             	mov    -0xc(%rbp),%eax
   16c00:	48 63 f0             	movslq %eax,%rsi
   16c03:	8b 45 f0             	mov    -0x10(%rbp),%eax
   16c06:	48 63 c8             	movslq %eax,%rcx
   16c09:	48 89 d0             	mov    %rdx,%rax
   16c0c:	48 01 c0             	add    %rax,%rax
   16c0f:	48 01 d0             	add    %rdx,%rax
   16c12:	48 c1 e0 02          	shl    $0x2,%rax
   16c16:	48 01 d0             	add    %rdx,%rax
   16c19:	48 01 c0             	add    %rax,%rax
   16c1c:	48 89 f2             	mov    %rsi,%rdx
   16c1f:	48 c1 e2 06          	shl    $0x6,%rdx
   16c23:	48 01 f2             	add    %rsi,%rdx
   16c26:	48 01 d2             	add    %rdx,%rdx
   16c29:	48 01 c2             	add    %rax,%rdx
   16c2c:	48 89 c8             	mov    %rcx,%rax
   16c2f:	48 c1 e0 06          	shl    $0x6,%rax
   16c33:	48 01 c8             	add    %rcx,%rax
   16c36:	48 01 c0             	add    %rax,%rax
   16c39:	48 01 c2             	add    %rax,%rdx
   16c3c:	48 8d 05 1d 8a 00 00 	lea    0x8a1d(%rip),%rax        # 1f660 <g_1834>
   16c43:	48 01 d0             	add    %rdx,%rax
   16c46:	0f b7 10             	movzwl (%rax),%edx
   16c49:	0f b7 d2             	movzwl %dx,%edx
   16c4c:	0f b7 40 02          	movzwl 0x2(%rax),%eax
   16c50:	0f b7 c0             	movzwl %ax,%eax
   16c53:	83 e0 7f             	and    $0x7f,%eax
   16c56:	48 c1 e0 10          	shl    $0x10,%rax
   16c5a:	48 09 d0             	or     %rdx,%rax
   16c5d:	89 c1                	mov    %eax,%ecx
   16c5f:	8b 45 fc             	mov    -0x4(%rbp),%eax
   16c62:	89 c2                	mov    %eax,%edx
   16c64:	48 8d 35 ce 34 00 00 	lea    0x34ce(%rip),%rsi        # 1a139 <g_1750+0x2099>
   16c6b:	48 89 cf             	mov    %rcx,%rdi
   16c6e:	e8 80 2a ff ff       	callq  96f3 <transparent_crc>
   16c73:	8b 45 f8             	mov    -0x8(%rbp),%eax
   16c76:	48 63 d0             	movslq %eax,%rdx
   16c79:	8b 45 f4             	mov    -0xc(%rbp),%eax
   16c7c:	48 63 f0             	movslq %eax,%rsi
   16c7f:	8b 45 f0             	mov    -0x10(%rbp),%eax
   16c82:	48 63 c8             	movslq %eax,%rcx
   16c85:	48 89 d0             	mov    %rdx,%rax
   16c88:	48 01 c0             	add    %rax,%rax
   16c8b:	48 01 d0             	add    %rdx,%rax
   16c8e:	48 c1 e0 02          	shl    $0x2,%rax
   16c92:	48 01 d0             	add    %rdx,%rax
   16c95:	48 01 c0             	add    %rax,%rax
   16c98:	48 89 f2             	mov    %rsi,%rdx
   16c9b:	48 c1 e2 06          	shl    $0x6,%rdx
   16c9f:	48 01 f2             	add    %rsi,%rdx
   16ca2:	48 01 d2             	add    %rdx,%rdx
   16ca5:	48 01 c2             	add    %rax,%rdx
   16ca8:	48 89 c8             	mov    %rcx,%rax
   16cab:	48 c1 e0 06          	shl    $0x6,%rax
   16caf:	48 01 c8             	add    %rcx,%rax
   16cb2:	48 01 c0             	add    %rax,%rax
   16cb5:	48 01 c2             	add    %rax,%rdx
   16cb8:	48 8d 05 a1 89 00 00 	lea    0x89a1(%rip),%rax        # 1f660 <g_1834>
   16cbf:	48 01 d0             	add    %rdx,%rax
   16cc2:	48 8b 40 03          	mov    0x3(%rax),%rax
   16cc6:	48 89 c1             	mov    %rax,%rcx
   16cc9:	8b 45 fc             	mov    -0x4(%rbp),%eax
   16ccc:	89 c2                	mov    %eax,%edx
   16cce:	48 8d 35 77 34 00 00 	lea    0x3477(%rip),%rsi        # 1a14c <g_1750+0x20ac>
   16cd5:	48 89 cf             	mov    %rcx,%rdi
   16cd8:	e8 16 2a ff ff       	callq  96f3 <transparent_crc>
   16cdd:	8b 45 f8             	mov    -0x8(%rbp),%eax
   16ce0:	48 63 d0             	movslq %eax,%rdx
   16ce3:	8b 45 f4             	mov    -0xc(%rbp),%eax
   16ce6:	48 63 f0             	movslq %eax,%rsi
   16ce9:	8b 45 f0             	mov    -0x10(%rbp),%eax
   16cec:	48 63 c8             	movslq %eax,%rcx
   16cef:	48 89 d0             	mov    %rdx,%rax
   16cf2:	48 01 c0             	add    %rax,%rax
   16cf5:	48 01 d0             	add    %rdx,%rax
   16cf8:	48 c1 e0 02          	shl    $0x2,%rax
   16cfc:	48 01 d0             	add    %rdx,%rax
   16cff:	48 01 c0             	add    %rax,%rax
   16d02:	48 89 f2             	mov    %rsi,%rdx
   16d05:	48 c1 e2 06          	shl    $0x6,%rdx
   16d09:	48 01 f2             	add    %rsi,%rdx
   16d0c:	48 01 d2             	add    %rdx,%rdx
   16d0f:	48 01 c2             	add    %rax,%rdx
   16d12:	48 89 c8             	mov    %rcx,%rax
   16d15:	48 c1 e0 06          	shl    $0x6,%rax
   16d19:	48 01 c8             	add    %rcx,%rax
   16d1c:	48 01 c0             	add    %rax,%rax
   16d1f:	48 01 c2             	add    %rax,%rdx
   16d22:	48 8d 05 37 89 00 00 	lea    0x8937(%rip),%rax        # 1f660 <g_1834>
   16d29:	48 01 d0             	add    %rdx,%rax
   16d2c:	0f b6 50 0b          	movzbl 0xb(%rax),%edx
   16d30:	0f b7 40 0c          	movzwl 0xc(%rax),%eax
   16d34:	48 c1 e0 08          	shl    $0x8,%rax
   16d38:	48 09 d0             	or     %rdx,%rax
   16d3b:	89 c1                	mov    %eax,%ecx
   16d3d:	8b 45 fc             	mov    -0x4(%rbp),%eax
   16d40:	89 c2                	mov    %eax,%edx
   16d42:	48 8d 35 16 34 00 00 	lea    0x3416(%rip),%rsi        # 1a15f <g_1750+0x20bf>
   16d49:	48 89 cf             	mov    %rcx,%rdi
   16d4c:	e8 a2 29 ff ff       	callq  96f3 <transparent_crc>
   16d51:	8b 45 f8             	mov    -0x8(%rbp),%eax
   16d54:	48 63 d0             	movslq %eax,%rdx
   16d57:	8b 45 f4             	mov    -0xc(%rbp),%eax
   16d5a:	48 63 f0             	movslq %eax,%rsi
   16d5d:	8b 45 f0             	mov    -0x10(%rbp),%eax
   16d60:	48 63 c8             	movslq %eax,%rcx
   16d63:	48 89 d0             	mov    %rdx,%rax
   16d66:	48 01 c0             	add    %rax,%rax
   16d69:	48 01 d0             	add    %rdx,%rax
   16d6c:	48 c1 e0 02          	shl    $0x2,%rax
   16d70:	48 01 d0             	add    %rdx,%rax
   16d73:	48 01 c0             	add    %rax,%rax
   16d76:	48 89 f2             	mov    %rsi,%rdx
   16d79:	48 c1 e2 06          	shl    $0x6,%rdx
   16d7d:	48 01 f2             	add    %rsi,%rdx
   16d80:	48 01 d2             	add    %rdx,%rdx
   16d83:	48 01 c2             	add    %rax,%rdx
   16d86:	48 89 c8             	mov    %rcx,%rax
   16d89:	48 c1 e0 06          	shl    $0x6,%rax
   16d8d:	48 01 c8             	add    %rcx,%rax
   16d90:	48 01 c0             	add    %rax,%rax
   16d93:	48 01 c2             	add    %rax,%rdx
   16d96:	48 8d 05 c3 88 00 00 	lea    0x88c3(%rip),%rax        # 1f660 <g_1834>
   16d9d:	48 01 d0             	add    %rdx,%rax
   16da0:	0f b7 50 0e          	movzwl 0xe(%rax),%edx
   16da4:	0f b7 d2             	movzwl %dx,%edx
   16da7:	0f b7 40 10          	movzwl 0x10(%rax),%eax
   16dab:	0f b7 c0             	movzwl %ax,%eax
   16dae:	25 ff 03 00 00       	and    $0x3ff,%eax
   16db3:	48 c1 e0 10          	shl    $0x10,%rax
   16db7:	48 09 d0             	or     %rdx,%rax
   16dba:	89 c1                	mov    %eax,%ecx
   16dbc:	8b 45 fc             	mov    -0x4(%rbp),%eax
   16dbf:	89 c2                	mov    %eax,%edx
   16dc1:	48 8d 35 aa 33 00 00 	lea    0x33aa(%rip),%rsi        # 1a172 <g_1750+0x20d2>
   16dc8:	48 89 cf             	mov    %rcx,%rdi
   16dcb:	e8 23 29 ff ff       	callq  96f3 <transparent_crc>
   16dd0:	8b 45 f8             	mov    -0x8(%rbp),%eax
   16dd3:	48 63 d0             	movslq %eax,%rdx
   16dd6:	8b 45 f4             	mov    -0xc(%rbp),%eax
   16dd9:	48 63 c8             	movslq %eax,%rcx
   16ddc:	8b 45 f0             	mov    -0x10(%rbp),%eax
   16ddf:	48 63 f0             	movslq %eax,%rsi
   16de2:	48 89 d0             	mov    %rdx,%rax
   16de5:	48 01 c0             	add    %rax,%rax
   16de8:	48 01 d0             	add    %rdx,%rax
   16deb:	48 c1 e0 02          	shl    $0x2,%rax
   16def:	48 01 d0             	add    %rdx,%rax
   16df2:	48 01 c0             	add    %rax,%rax
   16df5:	48 89 f2             	mov    %rsi,%rdx
   16df8:	48 c1 e2 06          	shl    $0x6,%rdx
   16dfc:	48 01 f2             	add    %rsi,%rdx
   16dff:	48 01 d2             	add    %rdx,%rdx
   16e02:	48 01 c2             	add    %rax,%rdx
   16e05:	48 89 c8             	mov    %rcx,%rax
   16e08:	48 c1 e0 06          	shl    $0x6,%rax
   16e0c:	48 01 c8             	add    %rcx,%rax
   16e0f:	48 01 c0             	add    %rax,%rax
   16e12:	48 01 c2             	add    %rax,%rdx
   16e15:	48 8d 05 54 88 00 00 	lea    0x8854(%rip),%rax        # 1f670 <g_1834+0x10>
   16e1c:	48 01 d0             	add    %rdx,%rax
   16e1f:	0f b6 50 01          	movzbl 0x1(%rax),%edx
   16e23:	c0 ea 02             	shr    $0x2,%dl
   16e26:	0f b6 d2             	movzbl %dl,%edx
   16e29:	0f b7 48 02          	movzwl 0x2(%rax),%ecx
   16e2d:	48 c1 e1 06          	shl    $0x6,%rcx
   16e31:	48 09 ca             	or     %rcx,%rdx
   16e34:	0f b6 40 04          	movzbl 0x4(%rax),%eax
   16e38:	83 e0 01             	and    $0x1,%eax
   16e3b:	48 c1 e0 16          	shl    $0x16,%rax
   16e3f:	48 09 d0             	or     %rdx,%rax
   16e42:	89 c1                	mov    %eax,%ecx
   16e44:	8b 45 fc             	mov    -0x4(%rbp),%eax
   16e47:	89 c2                	mov    %eax,%edx
   16e49:	48 8d 35 35 33 00 00 	lea    0x3335(%rip),%rsi        # 1a185 <g_1750+0x20e5>
   16e50:	48 89 cf             	mov    %rcx,%rdi
   16e53:	e8 9b 28 ff ff       	callq  96f3 <transparent_crc>
   16e58:	8b 45 f8             	mov    -0x8(%rbp),%eax
   16e5b:	48 63 d0             	movslq %eax,%rdx
   16e5e:	8b 45 f4             	mov    -0xc(%rbp),%eax
   16e61:	48 63 c8             	movslq %eax,%rcx
   16e64:	8b 45 f0             	mov    -0x10(%rbp),%eax
   16e67:	48 63 f0             	movslq %eax,%rsi
   16e6a:	48 89 d0             	mov    %rdx,%rax
   16e6d:	48 01 c0             	add    %rax,%rax
   16e70:	48 01 d0             	add    %rdx,%rax
   16e73:	48 c1 e0 02          	shl    $0x2,%rax
   16e77:	48 01 d0             	add    %rdx,%rax
   16e7a:	48 01 c0             	add    %rax,%rax
   16e7d:	48 89 f2             	mov    %rsi,%rdx
   16e80:	48 c1 e2 06          	shl    $0x6,%rdx
   16e84:	48 01 f2             	add    %rsi,%rdx
   16e87:	48 01 d2             	add    %rdx,%rdx
   16e8a:	48 01 c2             	add    %rax,%rdx
   16e8d:	48 89 c8             	mov    %rcx,%rax
   16e90:	48 c1 e0 06          	shl    $0x6,%rax
   16e94:	48 01 c8             	add    %rcx,%rax
   16e97:	48 01 c0             	add    %rax,%rax
   16e9a:	48 01 c2             	add    %rax,%rdx
   16e9d:	48 8d 05 cc 87 00 00 	lea    0x87cc(%rip),%rax        # 1f670 <g_1834+0x10>
   16ea4:	48 01 d0             	add    %rdx,%rax
   16ea7:	0f b7 40 04          	movzwl 0x4(%rax),%eax
   16eab:	d0 f8                	sar    %al
   16ead:	48 0f be c0          	movsbq %al,%rax
   16eb1:	8b 55 fc             	mov    -0x4(%rbp),%edx
   16eb4:	48 8d 35 dd 32 00 00 	lea    0x32dd(%rip),%rsi        # 1a198 <g_1750+0x20f8>
   16ebb:	48 89 c7             	mov    %rax,%rdi
   16ebe:	e8 30 28 ff ff       	callq  96f3 <transparent_crc>
   16ec3:	8b 45 f8             	mov    -0x8(%rbp),%eax
   16ec6:	48 63 d0             	movslq %eax,%rdx
   16ec9:	8b 45 f4             	mov    -0xc(%rbp),%eax
   16ecc:	48 63 c8             	movslq %eax,%rcx
   16ecf:	8b 45 f0             	mov    -0x10(%rbp),%eax
   16ed2:	48 63 f0             	movslq %eax,%rsi
   16ed5:	48 89 d0             	mov    %rdx,%rax
   16ed8:	48 01 c0             	add    %rax,%rax
   16edb:	48 01 d0             	add    %rdx,%rax
   16ede:	48 c1 e0 02          	shl    $0x2,%rax
   16ee2:	48 01 d0             	add    %rdx,%rax
   16ee5:	48 01 c0             	add    %rax,%rax
   16ee8:	48 89 f2             	mov    %rsi,%rdx
   16eeb:	48 c1 e2 06          	shl    $0x6,%rdx
   16eef:	48 01 f2             	add    %rsi,%rdx
   16ef2:	48 01 d2             	add    %rdx,%rdx
   16ef5:	48 01 c2             	add    %rax,%rdx
   16ef8:	48 89 c8             	mov    %rcx,%rax
   16efb:	48 c1 e0 06          	shl    $0x6,%rax
   16eff:	48 01 c8             	add    %rcx,%rax
   16f02:	48 01 c0             	add    %rax,%rax
   16f05:	48 01 c2             	add    %rax,%rdx
   16f08:	48 8d 05 61 87 00 00 	lea    0x8761(%rip),%rax        # 1f670 <g_1834+0x10>
   16f0f:	48 01 d0             	add    %rdx,%rax
   16f12:	0f b6 50 05          	movzbl 0x5(%rax),%edx
   16f16:	0f b6 40 06          	movzbl 0x6(%rax),%eax
   16f1a:	83 e0 0f             	and    $0xf,%eax
   16f1d:	48 c1 e0 08          	shl    $0x8,%rax
   16f21:	48 09 d0             	or     %rdx,%rax
   16f24:	48 c1 e0 34          	shl    $0x34,%rax
   16f28:	48 c1 f8 34          	sar    $0x34,%rax
   16f2c:	48 0f bf c0          	movswq %ax,%rax
   16f30:	8b 55 fc             	mov    -0x4(%rbp),%edx
   16f33:	48 8d 35 71 32 00 00 	lea    0x3271(%rip),%rsi        # 1a1ab <g_1750+0x210b>
   16f3a:	48 89 c7             	mov    %rax,%rdi
   16f3d:	e8 b1 27 ff ff       	callq  96f3 <transparent_crc>
   16f42:	8b 45 f8             	mov    -0x8(%rbp),%eax
   16f45:	48 63 d0             	movslq %eax,%rdx
   16f48:	8b 45 f4             	mov    -0xc(%rbp),%eax
   16f4b:	48 63 c8             	movslq %eax,%rcx
   16f4e:	8b 45 f0             	mov    -0x10(%rbp),%eax
   16f51:	48 63 f0             	movslq %eax,%rsi
   16f54:	48 89 d0             	mov    %rdx,%rax
   16f57:	48 01 c0             	add    %rax,%rax
   16f5a:	48 01 d0             	add    %rdx,%rax
   16f5d:	48 c1 e0 02          	shl    $0x2,%rax
   16f61:	48 01 d0             	add    %rdx,%rax
   16f64:	48 01 c0             	add    %rax,%rax
   16f67:	48 89 f2             	mov    %rsi,%rdx
   16f6a:	48 c1 e2 06          	shl    $0x6,%rdx
   16f6e:	48 01 f2             	add    %rsi,%rdx
   16f71:	48 01 d2             	add    %rdx,%rdx
   16f74:	48 01 c2             	add    %rax,%rdx
   16f77:	48 89 c8             	mov    %rcx,%rax
   16f7a:	48 c1 e0 06          	shl    $0x6,%rax
   16f7e:	48 01 c8             	add    %rcx,%rax
   16f81:	48 01 c0             	add    %rax,%rax
   16f84:	48 01 c2             	add    %rax,%rdx
   16f87:	48 8d 05 e2 86 00 00 	lea    0x86e2(%rip),%rax        # 1f670 <g_1834+0x10>
   16f8e:	48 01 d0             	add    %rdx,%rax
   16f91:	0f b7 50 06          	movzwl 0x6(%rax),%edx
   16f95:	66 c1 ea 04          	shr    $0x4,%dx
   16f99:	0f b7 d2             	movzwl %dx,%edx
   16f9c:	0f b7 40 08          	movzwl 0x8(%rax),%eax
   16fa0:	0f b7 c0             	movzwl %ax,%eax
   16fa3:	25 ff 01 00 00       	and    $0x1ff,%eax
   16fa8:	48 c1 e0 0c          	shl    $0xc,%rax
   16fac:	48 09 d0             	or     %rdx,%rax
   16faf:	89 c1                	mov    %eax,%ecx
   16fb1:	8b 45 fc             	mov    -0x4(%rbp),%eax
   16fb4:	89 c2                	mov    %eax,%edx
   16fb6:	48 8d 35 01 32 00 00 	lea    0x3201(%rip),%rsi        # 1a1be <g_1750+0x211e>
   16fbd:	48 89 cf             	mov    %rcx,%rdi
   16fc0:	e8 2e 27 ff ff       	callq  96f3 <transparent_crc>
   16fc5:	83 7d fc 00          	cmpl   $0x0,-0x4(%rbp)
   16fc9:	74 1c                	je     16fe7 <main+0x322d>
   16fcb:	8b 4d f8             	mov    -0x8(%rbp),%ecx
   16fce:	8b 55 f4             	mov    -0xc(%rbp),%edx
   16fd1:	8b 45 f0             	mov    -0x10(%rbp),%eax
   16fd4:	89 c6                	mov    %eax,%esi
   16fd6:	48 8d 3d 66 29 00 00 	lea    0x2966(%rip),%rdi        # 19943 <g_1750+0x18a3>
   16fdd:	b8 00 00 00 00       	mov    $0x0,%eax
   16fe2:	e8 99 10 ff ff       	callq  8080 <printf@plt>
   16fe7:	83 45 f8 01          	addl   $0x1,-0x8(%rbp)
   16feb:	83 7d f8 04          	cmpl   $0x4,-0x8(%rbp)
   16fef:	0f 8e 02 fc ff ff    	jle    16bf7 <main+0x2e3d>
   16ff5:	83 45 f4 01          	addl   $0x1,-0xc(%rbp)
   16ff9:	83 7d f4 00          	cmpl   $0x0,-0xc(%rbp)
   16ffd:	0f 8e e8 fb ff ff    	jle    16beb <main+0x2e31>
   17003:	83 45 f0 01          	addl   $0x1,-0x10(%rbp)
   17007:	83 7d f0 05          	cmpl   $0x5,-0x10(%rbp)
   1700b:	0f 8e ce fb ff ff    	jle    16bdf <main+0x2e25>
   17011:	48 8b 05 58 89 00 00 	mov    0x8958(%rip),%rax        # 1f970 <g_1914>
   17018:	25 ff ff 7f 00       	and    $0x7fffff,%eax
   1701d:	89 c1                	mov    %eax,%ecx
   1701f:	8b 45 fc             	mov    -0x4(%rbp),%eax
   17022:	89 c2                	mov    %eax,%edx
   17024:	48 8d 35 a6 31 00 00 	lea    0x31a6(%rip),%rsi        # 1a1d1 <g_1750+0x2131>
   1702b:	48 89 cf             	mov    %rcx,%rdi
   1702e:	e8 c0 26 ff ff       	callq  96f3 <transparent_crc>
   17033:	48 8b 05 39 89 00 00 	mov    0x8939(%rip),%rax        # 1f973 <g_1914+0x3>
   1703a:	48 89 c1             	mov    %rax,%rcx
   1703d:	8b 45 fc             	mov    -0x4(%rbp),%eax
   17040:	89 c2                	mov    %eax,%edx
   17042:	48 8d 35 92 31 00 00 	lea    0x3192(%rip),%rsi        # 1a1db <g_1750+0x213b>
   17049:	48 89 cf             	mov    %rcx,%rdi
   1704c:	e8 a2 26 ff ff       	callq  96f3 <transparent_crc>
   17051:	48 8b 05 20 89 00 00 	mov    0x8920(%rip),%rax        # 1f978 <g_1914+0x8>
   17058:	48 c1 e8 18          	shr    $0x18,%rax
   1705c:	25 ff ff ff 00       	and    $0xffffff,%eax
   17061:	89 c1                	mov    %eax,%ecx
   17063:	8b 45 fc             	mov    -0x4(%rbp),%eax
   17066:	89 c2                	mov    %eax,%edx
   17068:	48 8d 35 76 31 00 00 	lea    0x3176(%rip),%rsi        # 1a1e5 <g_1750+0x2145>
   1706f:	48 89 cf             	mov    %rcx,%rdi
   17072:	e8 7c 26 ff ff       	callq  96f3 <transparent_crc>
   17077:	48 8b 05 fa 88 00 00 	mov    0x88fa(%rip),%rax        # 1f978 <g_1914+0x8>
   1707e:	48 c1 e8 30          	shr    $0x30,%rax
   17082:	48 89 c2             	mov    %rax,%rdx
   17085:	48 8b 05 f4 88 00 00 	mov    0x88f4(%rip),%rax        # 1f980 <g_1914+0x10>
   1708c:	25 ff 03 00 00       	and    $0x3ff,%eax
   17091:	48 c1 e0 10          	shl    $0x10,%rax
   17095:	48 09 d0             	or     %rdx,%rax
   17098:	89 c1                	mov    %eax,%ecx
   1709a:	8b 45 fc             	mov    -0x4(%rbp),%eax
   1709d:	89 c2                	mov    %eax,%edx
   1709f:	48 8d 35 49 31 00 00 	lea    0x3149(%rip),%rsi        # 1a1ef <g_1750+0x214f>
   170a6:	48 89 cf             	mov    %rcx,%rdi
   170a9:	e8 45 26 ff ff       	callq  96f3 <transparent_crc>
   170ae:	48 8b 05 cb 88 00 00 	mov    0x88cb(%rip),%rax        # 1f980 <g_1914+0x10>
   170b5:	48 c1 e8 0a          	shr    $0xa,%rax
   170b9:	25 ff ff 7f 00       	and    $0x7fffff,%eax
   170be:	89 c1                	mov    %eax,%ecx
   170c0:	8b 45 fc             	mov    -0x4(%rbp),%eax
   170c3:	89 c2                	mov    %eax,%edx
   170c5:	48 8d 35 2d 31 00 00 	lea    0x312d(%rip),%rsi        # 1a1f9 <g_1750+0x2159>
   170cc:	48 89 cf             	mov    %rcx,%rdi
   170cf:	e8 1f 26 ff ff       	callq  96f3 <transparent_crc>
   170d4:	48 8b 05 a5 88 00 00 	mov    0x88a5(%rip),%rax        # 1f980 <g_1914+0x10>
   170db:	48 c1 e0 18          	shl    $0x18,%rax
   170df:	48 c1 f8 39          	sar    $0x39,%rax
   170e3:	48 0f be c0          	movsbq %al,%rax
   170e7:	8b 55 fc             	mov    -0x4(%rbp),%edx
   170ea:	48 8d 35 12 31 00 00 	lea    0x3112(%rip),%rsi        # 1a203 <g_1750+0x2163>
   170f1:	48 89 c7             	mov    %rax,%rdi
   170f4:	e8 fa 25 ff ff       	callq  96f3 <transparent_crc>
   170f9:	8b 05 85 88 00 00    	mov    0x8885(%rip),%eax        # 1f984 <g_1914+0x14>
   170ff:	c1 e0 0c             	shl    $0xc,%eax
   17102:	c1 f8 14             	sar    $0x14,%eax
   17105:	48 0f bf c0          	movswq %ax,%rax
   17109:	8b 55 fc             	mov    -0x4(%rbp),%edx
   1710c:	48 8d 35 fa 30 00 00 	lea    0x30fa(%rip),%rsi        # 1a20d <g_1750+0x216d>
   17113:	48 89 c7             	mov    %rax,%rdi
   17116:	e8 d8 25 ff ff       	callq  96f3 <transparent_crc>
   1711b:	48 8b 05 5e 88 00 00 	mov    0x885e(%rip),%rax        # 1f980 <g_1914+0x10>
   17122:	48 c1 e8 34          	shr    $0x34,%rax
   17126:	48 89 c2             	mov    %rax,%rdx
   17129:	48 8b 05 58 88 00 00 	mov    0x8858(%rip),%rax        # 1f988 <g_1914+0x18>
   17130:	25 ff 01 00 00       	and    $0x1ff,%eax
   17135:	48 c1 e0 0c          	shl    $0xc,%rax
   17139:	48 09 d0             	or     %rdx,%rax
   1713c:	89 c1                	mov    %eax,%ecx
   1713e:	8b 45 fc             	mov    -0x4(%rbp),%eax
   17141:	89 c2                	mov    %eax,%edx
   17143:	48 8d 35 cd 30 00 00 	lea    0x30cd(%rip),%rsi        # 1a217 <g_1750+0x2177>
   1714a:	48 89 cf             	mov    %rcx,%rdi
   1714d:	e8 a1 25 ff ff       	callq  96f3 <transparent_crc>
   17152:	c7 45 f0 00 00 00 00 	movl   $0x0,-0x10(%rbp)
   17159:	eb 78                	jmp    171d3 <main+0x3419>
   1715b:	c7 45 f4 00 00 00 00 	movl   $0x0,-0xc(%rbp)
   17162:	eb 65                	jmp    171c9 <main+0x340f>
   17164:	8b 45 f4             	mov    -0xc(%rbp),%eax
   17167:	48 63 c8             	movslq %eax,%rcx
   1716a:	8b 45 f0             	mov    -0x10(%rbp),%eax
   1716d:	48 63 d0             	movslq %eax,%rdx
   17170:	48 89 d0             	mov    %rdx,%rax
   17173:	48 c1 e0 02          	shl    $0x2,%rax
   17177:	48 01 d0             	add    %rdx,%rax
   1717a:	48 01 c0             	add    %rax,%rax
   1717d:	48 01 c8             	add    %rcx,%rax
   17180:	48 8d 14 85 00 00 00 	lea    0x0(,%rax,4),%rdx
   17187:	00 
   17188:	48 8d 05 11 88 00 00 	lea    0x8811(%rip),%rax        # 1f9a0 <g_1954>
   1718f:	8b 04 02             	mov    (%rdx,%rax,1),%eax
   17192:	48 98                	cltq   
   17194:	8b 55 fc             	mov    -0x4(%rbp),%edx
   17197:	48 8d 35 83 30 00 00 	lea    0x3083(%rip),%rsi        # 1a221 <g_1750+0x2181>
   1719e:	48 89 c7             	mov    %rax,%rdi
   171a1:	e8 4d 25 ff ff       	callq  96f3 <transparent_crc>
   171a6:	83 7d fc 00          	cmpl   $0x0,-0x4(%rbp)
   171aa:	74 19                	je     171c5 <main+0x340b>
   171ac:	8b 55 f4             	mov    -0xc(%rbp),%edx
   171af:	8b 45 f0             	mov    -0x10(%rbp),%eax
   171b2:	89 c6                	mov    %eax,%esi
   171b4:	48 8d 3d 30 26 00 00 	lea    0x2630(%rip),%rdi        # 197eb <g_1750+0x174b>
   171bb:	b8 00 00 00 00       	mov    $0x0,%eax
   171c0:	e8 bb 0e ff ff       	callq  8080 <printf@plt>
   171c5:	83 45 f4 01          	addl   $0x1,-0xc(%rbp)
   171c9:	83 7d f4 09          	cmpl   $0x9,-0xc(%rbp)
   171cd:	7e 95                	jle    17164 <main+0x33aa>
   171cf:	83 45 f0 01          	addl   $0x1,-0x10(%rbp)
   171d3:	83 7d f0 07          	cmpl   $0x7,-0x10(%rbp)
   171d7:	7e 82                	jle    1715b <main+0x33a1>
   171d9:	8b 05 41 5e 00 00    	mov    0x5e41(%rip),%eax        # 1d020 <crc32_context>
   171df:	f7 d0                	not    %eax
   171e1:	89 c2                	mov    %eax,%edx
   171e3:	8b 45 fc             	mov    -0x4(%rbp),%eax
   171e6:	89 c6                	mov    %eax,%esi
   171e8:	89 d7                	mov    %edx,%edi
   171ea:	e8 a5 0f ff ff       	callq  8194 <platform_main_end>
   171ef:	b8 00 00 00 00       	mov    $0x0,%eax
   171f4:	c9                   	leaveq 
   171f5:	c3                   	retq   
   171f6:	66 2e 0f 1f 84 00 00 	nopw   %cs:0x0(%rax,%rax,1)
   171fd:	00 00 00 

0000000000017200 <__libc_csu_init>:
   17200:	f3 0f 1e fa          	endbr64 
   17204:	41 57                	push   %r15
   17206:	4c 8d 3d a3 59 00 00 	lea    0x59a3(%rip),%r15        # 1cbb0 <__frame_dummy_init_array_entry>
   1720d:	41 56                	push   %r14
   1720f:	49 89 d6             	mov    %rdx,%r14
   17212:	41 55                	push   %r13
   17214:	49 89 f5             	mov    %rsi,%r13
   17217:	41 54                	push   %r12
   17219:	41 89 fc             	mov    %edi,%r12d
   1721c:	55                   	push   %rbp
   1721d:	48 8d 2d 94 59 00 00 	lea    0x5994(%rip),%rbp        # 1cbb8 <__do_global_dtors_aux_fini_array_entry>
   17224:	53                   	push   %rbx
   17225:	4c 29 fd             	sub    %r15,%rbp
   17228:	48 83 ec 08          	sub    $0x8,%rsp
   1722c:	e8 cf 0d ff ff       	callq  8000 <_init>
   17231:	48 c1 fd 03          	sar    $0x3,%rbp
   17235:	74 1f                	je     17256 <__libc_csu_init+0x56>
   17237:	31 db                	xor    %ebx,%ebx
   17239:	0f 1f 80 00 00 00 00 	nopl   0x0(%rax)
   17240:	4c 89 f2             	mov    %r14,%rdx
   17243:	4c 89 ee             	mov    %r13,%rsi
   17246:	44 89 e7             	mov    %r12d,%edi
   17249:	41 ff 14 df          	callq  *(%r15,%rbx,8)
   1724d:	48 83 c3 01          	add    $0x1,%rbx
   17251:	48 39 dd             	cmp    %rbx,%rbp
   17254:	75 ea                	jne    17240 <__libc_csu_init+0x40>
   17256:	48 83 c4 08          	add    $0x8,%rsp
   1725a:	5b                   	pop    %rbx
   1725b:	5d                   	pop    %rbp
   1725c:	41 5c                	pop    %r12
   1725e:	41 5d                	pop    %r13
   17260:	41 5e                	pop    %r14
   17262:	41 5f                	pop    %r15
   17264:	c3                   	retq   
   17265:	66 66 2e 0f 1f 84 00 	data16 nopw %cs:0x0(%rax,%rax,1)
   1726c:	00 00 00 00 

0000000000017270 <__libc_csu_fini>:
   17270:	f3 0f 1e fa          	endbr64 
   17274:	c3                   	retq   
