


Disassembly of section .text:

00000000000040a0 <_start>:
    40a0:	f3 0f 1e fa          	endbr64 
    40a4:	31 ed                	xor    %ebp,%ebp
    40a6:	49 89 d1             	mov    %rdx,%r9
    40a9:	5e                   	pop    %rsi
    40aa:	48 89 e2             	mov    %rsp,%rdx
    40ad:	48 83 e4 f0          	and    $0xfffffffffffffff0,%rsp
    40b1:	50                   	push   %rax
    40b2:	54                   	push   %rsp
    40b3:	4c 8d 05 a6 9d 00 00 	lea    0x9da6(%rip),%r8        # de60 <__libc_csu_fini>
    40ba:	48 8d 0d 2f 9d 00 00 	lea    0x9d2f(%rip),%rcx        # ddf0 <__libc_csu_init>
    40c1:	48 8d 3d 3c 94 00 00 	lea    0x943c(%rip),%rdi        # d504 <main>
    40c8:	ff 15 12 cf 00 00    	callq  *0xcf12(%rip)        # 10fe0 <__libc_start_main@GLIBC_2.2.5>
    40ce:	f4                   	hlt    
    40cf:	90                   	nop

00000000000040d0 <deregister_tm_clones>:
    40d0:	48 8d 3d 51 ef 00 00 	lea    0xef51(%rip),%rdi        # 13028 <__TMC_END__>
    40d7:	48 8d 05 4a ef 00 00 	lea    0xef4a(%rip),%rax        # 13028 <__TMC_END__>
    40de:	48 39 f8             	cmp    %rdi,%rax
    40e1:	74 15                	je     40f8 <deregister_tm_clones+0x28>
    40e3:	48 8b 05 ee ce 00 00 	mov    0xceee(%rip),%rax        # 10fd8 <_ITM_deregisterTMCloneTable>
    40ea:	48 85 c0             	test   %rax,%rax
    40ed:	74 09                	je     40f8 <deregister_tm_clones+0x28>
    40ef:	ff e0                	jmpq   *%rax
    40f1:	0f 1f 80 00 00 00 00 	nopl   0x0(%rax)
    40f8:	c3                   	retq   
    40f9:	0f 1f 80 00 00 00 00 	nopl   0x0(%rax)

0000000000004100 <register_tm_clones>:
    4100:	48 8d 3d 21 ef 00 00 	lea    0xef21(%rip),%rdi        # 13028 <__TMC_END__>
    4107:	48 8d 35 1a ef 00 00 	lea    0xef1a(%rip),%rsi        # 13028 <__TMC_END__>
    410e:	48 29 fe             	sub    %rdi,%rsi
    4111:	48 89 f0             	mov    %rsi,%rax
    4114:	48 c1 ee 3f          	shr    $0x3f,%rsi
    4118:	48 c1 f8 03          	sar    $0x3,%rax
    411c:	48 01 c6             	add    %rax,%rsi
    411f:	48 d1 fe             	sar    %rsi
    4122:	74 14                	je     4138 <register_tm_clones+0x38>
    4124:	48 8b 05 c5 ce 00 00 	mov    0xcec5(%rip),%rax        # 10ff0 <_ITM_registerTMCloneTable>
    412b:	48 85 c0             	test   %rax,%rax
    412e:	74 08                	je     4138 <register_tm_clones+0x38>
    4130:	ff e0                	jmpq   *%rax
    4132:	66 0f 1f 44 00 00    	nopw   0x0(%rax,%rax,1)
    4138:	c3                   	retq   
    4139:	0f 1f 80 00 00 00 00 	nopl   0x0(%rax)

0000000000004140 <__do_global_dtors_aux>:
    4140:	f3 0f 1e fa          	endbr64 
    4144:	80 3d f5 ee 00 00 00 	cmpb   $0x0,0xeef5(%rip)        # 13040 <completed.8061>
    414b:	75 2b                	jne    4178 <__do_global_dtors_aux+0x38>
    414d:	55                   	push   %rbp
    414e:	48 83 3d a2 ce 00 00 	cmpq   $0x0,0xcea2(%rip)        # 10ff8 <__cxa_finalize@GLIBC_2.2.5>
    4155:	00 
    4156:	48 89 e5             	mov    %rsp,%rbp
    4159:	74 0c                	je     4167 <__do_global_dtors_aux+0x27>
    415b:	48 8b 3d a6 ce 00 00 	mov    0xcea6(%rip),%rdi        # 11008 <__dso_handle>
    4162:	e8 f9 fe ff ff       	callq  4060 <__cxa_finalize@plt>
    4167:	e8 64 ff ff ff       	callq  40d0 <deregister_tm_clones>
    416c:	c6 05 cd ee 00 00 01 	movb   $0x1,0xeecd(%rip)        # 13040 <completed.8061>
    4173:	5d                   	pop    %rbp
    4174:	c3                   	retq   
    4175:	0f 1f 00             	nopl   (%rax)
    4178:	c3                   	retq   
    4179:	0f 1f 80 00 00 00 00 	nopl   0x0(%rax)

0000000000004180 <frame_dummy>:
    4180:	f3 0f 1e fa          	endbr64 
    4184:	e9 77 ff ff ff       	jmpq   4100 <register_tm_clones>

0000000000004189 <platform_main_begin>:
    4189:	f3 0f 1e fa          	endbr64 
    418d:	55                   	push   %rbp
    418e:	48 89 e5             	mov    %rsp,%rbp
    4191:	90                   	nop
    4192:	5d                   	pop    %rbp
    4193:	c3                   	retq   

0000000000004194 <platform_main_end>:
    4194:	f3 0f 1e fa          	endbr64 
    4198:	55                   	push   %rbp
    4199:	48 89 e5             	mov    %rsp,%rbp
    419c:	48 83 ec 10          	sub    $0x10,%rsp
    41a0:	89 7d fc             	mov    %edi,-0x4(%rbp)
    41a3:	89 75 f8             	mov    %esi,-0x8(%rbp)
    41a6:	8b 45 fc             	mov    -0x4(%rbp),%eax
    41a9:	89 c6                	mov    %eax,%esi
    41ab:	48 8d 3d 6e 9e 00 00 	lea    0x9e6e(%rip),%rdi        # e020 <_IO_stdin_used+0x20>
    41b2:	b8 00 00 00 00       	mov    $0x0,%eax
    41b7:	e8 c4 fe ff ff       	callq  4080 <printf@plt>
    41bc:	90                   	nop
    41bd:	c9                   	leaveq 
    41be:	c3                   	retq   

00000000000041bf <safe_unary_minus_func_int8_t_s>:
    41bf:	f3 0f 1e fa          	endbr64 
    41c3:	55                   	push   %rbp
    41c4:	48 89 e5             	mov    %rsp,%rbp
    41c7:	89 f8                	mov    %edi,%eax
    41c9:	88 45 fc             	mov    %al,-0x4(%rbp)
    41cc:	0f b6 45 fc          	movzbl -0x4(%rbp),%eax
    41d0:	f7 d8                	neg    %eax
    41d2:	5d                   	pop    %rbp
    41d3:	c3                   	retq   

00000000000041d4 <safe_add_func_int8_t_s_s>:
    41d4:	f3 0f 1e fa          	endbr64 
    41d8:	55                   	push   %rbp
    41d9:	48 89 e5             	mov    %rsp,%rbp
    41dc:	89 fa                	mov    %edi,%edx
    41de:	89 f0                	mov    %esi,%eax
    41e0:	88 55 fc             	mov    %dl,-0x4(%rbp)
    41e3:	88 45 f8             	mov    %al,-0x8(%rbp)
    41e6:	0f b6 55 fc          	movzbl -0x4(%rbp),%edx
    41ea:	0f b6 45 f8          	movzbl -0x8(%rbp),%eax
    41ee:	01 d0                	add    %edx,%eax
    41f0:	5d                   	pop    %rbp
    41f1:	c3                   	retq   

00000000000041f2 <safe_sub_func_int8_t_s_s>:
    41f2:	f3 0f 1e fa          	endbr64 
    41f6:	55                   	push   %rbp
    41f7:	48 89 e5             	mov    %rsp,%rbp
    41fa:	89 fa                	mov    %edi,%edx
    41fc:	89 f0                	mov    %esi,%eax
    41fe:	88 55 fc             	mov    %dl,-0x4(%rbp)
    4201:	88 45 f8             	mov    %al,-0x8(%rbp)
    4204:	0f b6 55 fc          	movzbl -0x4(%rbp),%edx
    4208:	0f b6 45 f8          	movzbl -0x8(%rbp),%eax
    420c:	29 c2                	sub    %eax,%edx
    420e:	89 d0                	mov    %edx,%eax
    4210:	5d                   	pop    %rbp
    4211:	c3                   	retq   

0000000000004212 <safe_mul_func_int8_t_s_s>:
    4212:	f3 0f 1e fa          	endbr64 
    4216:	55                   	push   %rbp
    4217:	48 89 e5             	mov    %rsp,%rbp
    421a:	89 fa                	mov    %edi,%edx
    421c:	89 f0                	mov    %esi,%eax
    421e:	88 55 fc             	mov    %dl,-0x4(%rbp)
    4221:	88 45 f8             	mov    %al,-0x8(%rbp)
    4224:	0f b6 45 fc          	movzbl -0x4(%rbp),%eax
    4228:	0f b6 55 f8          	movzbl -0x8(%rbp),%edx
    422c:	0f af c2             	imul   %edx,%eax
    422f:	5d                   	pop    %rbp
    4230:	c3                   	retq   

0000000000004231 <safe_mod_func_int8_t_s_s>:
    4231:	f3 0f 1e fa          	endbr64 
    4235:	55                   	push   %rbp
    4236:	48 89 e5             	mov    %rsp,%rbp
    4239:	89 fa                	mov    %edi,%edx
    423b:	89 f0                	mov    %esi,%eax
    423d:	88 55 fc             	mov    %dl,-0x4(%rbp)
    4240:	88 45 f8             	mov    %al,-0x8(%rbp)
    4243:	80 7d f8 00          	cmpb   $0x0,-0x8(%rbp)
    4247:	74 1b                	je     4264 <safe_mod_func_int8_t_s_s+0x33>
    4249:	80 7d fc 80          	cmpb   $0x80,-0x4(%rbp)
    424d:	75 06                	jne    4255 <safe_mod_func_int8_t_s_s+0x24>
    424f:	80 7d f8 ff          	cmpb   $0xff,-0x8(%rbp)
    4253:	74 0f                	je     4264 <safe_mod_func_int8_t_s_s+0x33>
    4255:	0f be 45 fc          	movsbl -0x4(%rbp),%eax
    4259:	0f be 4d f8          	movsbl -0x8(%rbp),%ecx
    425d:	99                   	cltd   
    425e:	f7 f9                	idiv   %ecx
    4260:	89 d0                	mov    %edx,%eax
    4262:	eb 04                	jmp    4268 <safe_mod_func_int8_t_s_s+0x37>
    4264:	0f b6 45 fc          	movzbl -0x4(%rbp),%eax
    4268:	5d                   	pop    %rbp
    4269:	c3                   	retq   

000000000000426a <safe_div_func_int8_t_s_s>:
    426a:	f3 0f 1e fa          	endbr64 
    426e:	55                   	push   %rbp
    426f:	48 89 e5             	mov    %rsp,%rbp
    4272:	89 fa                	mov    %edi,%edx
    4274:	89 f0                	mov    %esi,%eax
    4276:	88 55 fc             	mov    %dl,-0x4(%rbp)
    4279:	88 45 f8             	mov    %al,-0x8(%rbp)
    427c:	80 7d f8 00          	cmpb   $0x0,-0x8(%rbp)
    4280:	74 19                	je     429b <safe_div_func_int8_t_s_s+0x31>
    4282:	80 7d fc 80          	cmpb   $0x80,-0x4(%rbp)
    4286:	75 06                	jne    428e <safe_div_func_int8_t_s_s+0x24>
    4288:	80 7d f8 ff          	cmpb   $0xff,-0x8(%rbp)
    428c:	74 0d                	je     429b <safe_div_func_int8_t_s_s+0x31>
    428e:	0f be 45 fc          	movsbl -0x4(%rbp),%eax
    4292:	0f be 4d f8          	movsbl -0x8(%rbp),%ecx
    4296:	99                   	cltd   
    4297:	f7 f9                	idiv   %ecx
    4299:	eb 04                	jmp    429f <safe_div_func_int8_t_s_s+0x35>
    429b:	0f b6 45 fc          	movzbl -0x4(%rbp),%eax
    429f:	5d                   	pop    %rbp
    42a0:	c3                   	retq   

00000000000042a1 <safe_lshift_func_int8_t_s_s>:
    42a1:	f3 0f 1e fa          	endbr64 
    42a5:	55                   	push   %rbp
    42a6:	48 89 e5             	mov    %rsp,%rbp
    42a9:	89 f8                	mov    %edi,%eax
    42ab:	89 75 f8             	mov    %esi,-0x8(%rbp)
    42ae:	88 45 fc             	mov    %al,-0x4(%rbp)
    42b1:	80 7d fc 00          	cmpb   $0x0,-0x4(%rbp)
    42b5:	78 31                	js     42e8 <safe_lshift_func_int8_t_s_s+0x47>
    42b7:	83 7d f8 00          	cmpl   $0x0,-0x8(%rbp)
    42bb:	78 2b                	js     42e8 <safe_lshift_func_int8_t_s_s+0x47>
    42bd:	83 7d f8 1f          	cmpl   $0x1f,-0x8(%rbp)
    42c1:	7f 25                	jg     42e8 <safe_lshift_func_int8_t_s_s+0x47>
    42c3:	0f be 55 fc          	movsbl -0x4(%rbp),%edx
    42c7:	8b 45 f8             	mov    -0x8(%rbp),%eax
    42ca:	be 7f 00 00 00       	mov    $0x7f,%esi
    42cf:	89 c1                	mov    %eax,%ecx
    42d1:	d3 fe                	sar    %cl,%esi
    42d3:	89 f0                	mov    %esi,%eax
    42d5:	39 c2                	cmp    %eax,%edx
    42d7:	7f 0f                	jg     42e8 <safe_lshift_func_int8_t_s_s+0x47>
    42d9:	0f be 55 fc          	movsbl -0x4(%rbp),%edx
    42dd:	8b 45 f8             	mov    -0x8(%rbp),%eax
    42e0:	89 c1                	mov    %eax,%ecx
    42e2:	d3 e2                	shl    %cl,%edx
    42e4:	89 d0                	mov    %edx,%eax
    42e6:	eb 04                	jmp    42ec <safe_lshift_func_int8_t_s_s+0x4b>
    42e8:	0f b6 45 fc          	movzbl -0x4(%rbp),%eax
    42ec:	5d                   	pop    %rbp
    42ed:	c3                   	retq   

00000000000042ee <safe_lshift_func_int8_t_s_u>:
    42ee:	f3 0f 1e fa          	endbr64 
    42f2:	55                   	push   %rbp
    42f3:	48 89 e5             	mov    %rsp,%rbp
    42f6:	89 f8                	mov    %edi,%eax
    42f8:	89 75 f8             	mov    %esi,-0x8(%rbp)
    42fb:	88 45 fc             	mov    %al,-0x4(%rbp)
    42fe:	80 7d fc 00          	cmpb   $0x0,-0x4(%rbp)
    4302:	78 2b                	js     432f <safe_lshift_func_int8_t_s_u+0x41>
    4304:	83 7d f8 1f          	cmpl   $0x1f,-0x8(%rbp)
    4308:	77 25                	ja     432f <safe_lshift_func_int8_t_s_u+0x41>
    430a:	0f be 55 fc          	movsbl -0x4(%rbp),%edx
    430e:	8b 45 f8             	mov    -0x8(%rbp),%eax
    4311:	be 7f 00 00 00       	mov    $0x7f,%esi
    4316:	89 c1                	mov    %eax,%ecx
    4318:	d3 fe                	sar    %cl,%esi
    431a:	89 f0                	mov    %esi,%eax
    431c:	39 c2                	cmp    %eax,%edx
    431e:	7f 0f                	jg     432f <safe_lshift_func_int8_t_s_u+0x41>
    4320:	0f be 55 fc          	movsbl -0x4(%rbp),%edx
    4324:	8b 45 f8             	mov    -0x8(%rbp),%eax
    4327:	89 c1                	mov    %eax,%ecx
    4329:	d3 e2                	shl    %cl,%edx
    432b:	89 d0                	mov    %edx,%eax
    432d:	eb 04                	jmp    4333 <safe_lshift_func_int8_t_s_u+0x45>
    432f:	0f b6 45 fc          	movzbl -0x4(%rbp),%eax
    4333:	5d                   	pop    %rbp
    4334:	c3                   	retq   

0000000000004335 <safe_rshift_func_int8_t_s_s>:
    4335:	f3 0f 1e fa          	endbr64 
    4339:	55                   	push   %rbp
    433a:	48 89 e5             	mov    %rsp,%rbp
    433d:	89 f8                	mov    %edi,%eax
    433f:	89 75 f8             	mov    %esi,-0x8(%rbp)
    4342:	88 45 fc             	mov    %al,-0x4(%rbp)
    4345:	80 7d fc 00          	cmpb   $0x0,-0x4(%rbp)
    4349:	78 1b                	js     4366 <safe_rshift_func_int8_t_s_s+0x31>
    434b:	83 7d f8 00          	cmpl   $0x0,-0x8(%rbp)
    434f:	78 15                	js     4366 <safe_rshift_func_int8_t_s_s+0x31>
    4351:	83 7d f8 1f          	cmpl   $0x1f,-0x8(%rbp)
    4355:	7f 0f                	jg     4366 <safe_rshift_func_int8_t_s_s+0x31>
    4357:	0f be 55 fc          	movsbl -0x4(%rbp),%edx
    435b:	8b 45 f8             	mov    -0x8(%rbp),%eax
    435e:	89 c1                	mov    %eax,%ecx
    4360:	d3 fa                	sar    %cl,%edx
    4362:	89 d0                	mov    %edx,%eax
    4364:	eb 04                	jmp    436a <safe_rshift_func_int8_t_s_s+0x35>
    4366:	0f b6 45 fc          	movzbl -0x4(%rbp),%eax
    436a:	5d                   	pop    %rbp
    436b:	c3                   	retq   

000000000000436c <safe_rshift_func_int8_t_s_u>:
    436c:	f3 0f 1e fa          	endbr64 
    4370:	55                   	push   %rbp
    4371:	48 89 e5             	mov    %rsp,%rbp
    4374:	89 f8                	mov    %edi,%eax
    4376:	89 75 f8             	mov    %esi,-0x8(%rbp)
    4379:	88 45 fc             	mov    %al,-0x4(%rbp)
    437c:	80 7d fc 00          	cmpb   $0x0,-0x4(%rbp)
    4380:	78 15                	js     4397 <safe_rshift_func_int8_t_s_u+0x2b>
    4382:	83 7d f8 1f          	cmpl   $0x1f,-0x8(%rbp)
    4386:	77 0f                	ja     4397 <safe_rshift_func_int8_t_s_u+0x2b>
    4388:	0f be 55 fc          	movsbl -0x4(%rbp),%edx
    438c:	8b 45 f8             	mov    -0x8(%rbp),%eax
    438f:	89 c1                	mov    %eax,%ecx
    4391:	d3 fa                	sar    %cl,%edx
    4393:	89 d0                	mov    %edx,%eax
    4395:	eb 04                	jmp    439b <safe_rshift_func_int8_t_s_u+0x2f>
    4397:	0f b6 45 fc          	movzbl -0x4(%rbp),%eax
    439b:	5d                   	pop    %rbp
    439c:	c3                   	retq   

000000000000439d <safe_unary_minus_func_int16_t_s>:
    439d:	f3 0f 1e fa          	endbr64 
    43a1:	55                   	push   %rbp
    43a2:	48 89 e5             	mov    %rsp,%rbp
    43a5:	89 f8                	mov    %edi,%eax
    43a7:	66 89 45 fc          	mov    %ax,-0x4(%rbp)
    43ab:	0f b7 45 fc          	movzwl -0x4(%rbp),%eax
    43af:	f7 d8                	neg    %eax
    43b1:	5d                   	pop    %rbp
    43b2:	c3                   	retq   

00000000000043b3 <safe_add_func_int16_t_s_s>:
    43b3:	f3 0f 1e fa          	endbr64 
    43b7:	55                   	push   %rbp
    43b8:	48 89 e5             	mov    %rsp,%rbp
    43bb:	89 fa                	mov    %edi,%edx
    43bd:	89 f0                	mov    %esi,%eax
    43bf:	66 89 55 fc          	mov    %dx,-0x4(%rbp)
    43c3:	66 89 45 f8          	mov    %ax,-0x8(%rbp)
    43c7:	0f b7 55 fc          	movzwl -0x4(%rbp),%edx
    43cb:	0f b7 45 f8          	movzwl -0x8(%rbp),%eax
    43cf:	01 d0                	add    %edx,%eax
    43d1:	5d                   	pop    %rbp
    43d2:	c3                   	retq   

00000000000043d3 <safe_sub_func_int16_t_s_s>:
    43d3:	f3 0f 1e fa          	endbr64 
    43d7:	55                   	push   %rbp
    43d8:	48 89 e5             	mov    %rsp,%rbp
    43db:	89 fa                	mov    %edi,%edx
    43dd:	89 f0                	mov    %esi,%eax
    43df:	66 89 55 fc          	mov    %dx,-0x4(%rbp)
    43e3:	66 89 45 f8          	mov    %ax,-0x8(%rbp)
    43e7:	0f b7 55 fc          	movzwl -0x4(%rbp),%edx
    43eb:	0f b7 45 f8          	movzwl -0x8(%rbp),%eax
    43ef:	29 c2                	sub    %eax,%edx
    43f1:	89 d0                	mov    %edx,%eax
    43f3:	5d                   	pop    %rbp
    43f4:	c3                   	retq   

00000000000043f5 <safe_mul_func_int16_t_s_s>:
    43f5:	f3 0f 1e fa          	endbr64 
    43f9:	55                   	push   %rbp
    43fa:	48 89 e5             	mov    %rsp,%rbp
    43fd:	89 fa                	mov    %edi,%edx
    43ff:	89 f0                	mov    %esi,%eax
    4401:	66 89 55 fc          	mov    %dx,-0x4(%rbp)
    4405:	66 89 45 f8          	mov    %ax,-0x8(%rbp)
    4409:	0f b7 55 fc          	movzwl -0x4(%rbp),%edx
    440d:	0f b7 45 f8          	movzwl -0x8(%rbp),%eax
    4411:	0f af c2             	imul   %edx,%eax
    4414:	5d                   	pop    %rbp
    4415:	c3                   	retq   

0000000000004416 <safe_mod_func_int16_t_s_s>:
    4416:	f3 0f 1e fa          	endbr64 
    441a:	55                   	push   %rbp
    441b:	48 89 e5             	mov    %rsp,%rbp
    441e:	89 fa                	mov    %edi,%edx
    4420:	89 f0                	mov    %esi,%eax
    4422:	66 89 55 fc          	mov    %dx,-0x4(%rbp)
    4426:	66 89 45 f8          	mov    %ax,-0x8(%rbp)
    442a:	66 83 7d f8 00       	cmpw   $0x0,-0x8(%rbp)
    442f:	74 1e                	je     444f <safe_mod_func_int16_t_s_s+0x39>
    4431:	66 81 7d fc 00 80    	cmpw   $0x8000,-0x4(%rbp)
    4437:	75 07                	jne    4440 <safe_mod_func_int16_t_s_s+0x2a>
    4439:	66 83 7d f8 ff       	cmpw   $0xffff,-0x8(%rbp)
    443e:	74 0f                	je     444f <safe_mod_func_int16_t_s_s+0x39>
    4440:	0f bf 45 fc          	movswl -0x4(%rbp),%eax
    4444:	0f bf 4d f8          	movswl -0x8(%rbp),%ecx
    4448:	99                   	cltd   
    4449:	f7 f9                	idiv   %ecx
    444b:	89 d0                	mov    %edx,%eax
    444d:	eb 04                	jmp    4453 <safe_mod_func_int16_t_s_s+0x3d>
    444f:	0f b7 45 fc          	movzwl -0x4(%rbp),%eax
    4453:	5d                   	pop    %rbp
    4454:	c3                   	retq   

0000000000004455 <safe_div_func_int16_t_s_s>:
    4455:	f3 0f 1e fa          	endbr64 
    4459:	55                   	push   %rbp
    445a:	48 89 e5             	mov    %rsp,%rbp
    445d:	89 fa                	mov    %edi,%edx
    445f:	89 f0                	mov    %esi,%eax
    4461:	66 89 55 fc          	mov    %dx,-0x4(%rbp)
    4465:	66 89 45 f8          	mov    %ax,-0x8(%rbp)
    4469:	66 83 7d f8 00       	cmpw   $0x0,-0x8(%rbp)
    446e:	74 1c                	je     448c <safe_div_func_int16_t_s_s+0x37>
    4470:	66 81 7d fc 00 80    	cmpw   $0x8000,-0x4(%rbp)
    4476:	75 07                	jne    447f <safe_div_func_int16_t_s_s+0x2a>
    4478:	66 83 7d f8 ff       	cmpw   $0xffff,-0x8(%rbp)
    447d:	74 0d                	je     448c <safe_div_func_int16_t_s_s+0x37>
    447f:	0f bf 45 fc          	movswl -0x4(%rbp),%eax
    4483:	0f bf 4d f8          	movswl -0x8(%rbp),%ecx
    4487:	99                   	cltd   
    4488:	f7 f9                	idiv   %ecx
    448a:	eb 04                	jmp    4490 <safe_div_func_int16_t_s_s+0x3b>
    448c:	0f b7 45 fc          	movzwl -0x4(%rbp),%eax
    4490:	5d                   	pop    %rbp
    4491:	c3                   	retq   

0000000000004492 <safe_lshift_func_int16_t_s_s>:
    4492:	f3 0f 1e fa          	endbr64 
    4496:	55                   	push   %rbp
    4497:	48 89 e5             	mov    %rsp,%rbp
    449a:	89 f8                	mov    %edi,%eax
    449c:	89 75 f8             	mov    %esi,-0x8(%rbp)
    449f:	66 89 45 fc          	mov    %ax,-0x4(%rbp)
    44a3:	66 83 7d fc 00       	cmpw   $0x0,-0x4(%rbp)
    44a8:	78 31                	js     44db <safe_lshift_func_int16_t_s_s+0x49>
    44aa:	83 7d f8 00          	cmpl   $0x0,-0x8(%rbp)
    44ae:	78 2b                	js     44db <safe_lshift_func_int16_t_s_s+0x49>
    44b0:	83 7d f8 1f          	cmpl   $0x1f,-0x8(%rbp)
    44b4:	7f 25                	jg     44db <safe_lshift_func_int16_t_s_s+0x49>
    44b6:	0f bf 55 fc          	movswl -0x4(%rbp),%edx
    44ba:	8b 45 f8             	mov    -0x8(%rbp),%eax
    44bd:	be ff 7f 00 00       	mov    $0x7fff,%esi
    44c2:	89 c1                	mov    %eax,%ecx
    44c4:	d3 fe                	sar    %cl,%esi
    44c6:	89 f0                	mov    %esi,%eax
    44c8:	39 c2                	cmp    %eax,%edx
    44ca:	7f 0f                	jg     44db <safe_lshift_func_int16_t_s_s+0x49>
    44cc:	0f bf 55 fc          	movswl -0x4(%rbp),%edx
    44d0:	8b 45 f8             	mov    -0x8(%rbp),%eax
    44d3:	89 c1                	mov    %eax,%ecx
    44d5:	d3 e2                	shl    %cl,%edx
    44d7:	89 d0                	mov    %edx,%eax
    44d9:	eb 04                	jmp    44df <safe_lshift_func_int16_t_s_s+0x4d>
    44db:	0f b7 45 fc          	movzwl -0x4(%rbp),%eax
    44df:	5d                   	pop    %rbp
    44e0:	c3                   	retq   

00000000000044e1 <safe_lshift_func_int16_t_s_u>:
    44e1:	f3 0f 1e fa          	endbr64 
    44e5:	55                   	push   %rbp
    44e6:	48 89 e5             	mov    %rsp,%rbp
    44e9:	89 f8                	mov    %edi,%eax
    44eb:	89 75 f8             	mov    %esi,-0x8(%rbp)
    44ee:	66 89 45 fc          	mov    %ax,-0x4(%rbp)
    44f2:	66 83 7d fc 00       	cmpw   $0x0,-0x4(%rbp)
    44f7:	78 2b                	js     4524 <safe_lshift_func_int16_t_s_u+0x43>
    44f9:	83 7d f8 1f          	cmpl   $0x1f,-0x8(%rbp)
    44fd:	77 25                	ja     4524 <safe_lshift_func_int16_t_s_u+0x43>
    44ff:	0f bf 55 fc          	movswl -0x4(%rbp),%edx
    4503:	8b 45 f8             	mov    -0x8(%rbp),%eax
    4506:	be ff 7f 00 00       	mov    $0x7fff,%esi
    450b:	89 c1                	mov    %eax,%ecx
    450d:	d3 fe                	sar    %cl,%esi
    450f:	89 f0                	mov    %esi,%eax
    4511:	39 c2                	cmp    %eax,%edx
    4513:	7f 0f                	jg     4524 <safe_lshift_func_int16_t_s_u+0x43>
    4515:	0f bf 55 fc          	movswl -0x4(%rbp),%edx
    4519:	8b 45 f8             	mov    -0x8(%rbp),%eax
    451c:	89 c1                	mov    %eax,%ecx
    451e:	d3 e2                	shl    %cl,%edx
    4520:	89 d0                	mov    %edx,%eax
    4522:	eb 04                	jmp    4528 <safe_lshift_func_int16_t_s_u+0x47>
    4524:	0f b7 45 fc          	movzwl -0x4(%rbp),%eax
    4528:	5d                   	pop    %rbp
    4529:	c3                   	retq   

000000000000452a <safe_rshift_func_int16_t_s_s>:
    452a:	f3 0f 1e fa          	endbr64 
    452e:	55                   	push   %rbp
    452f:	48 89 e5             	mov    %rsp,%rbp
    4532:	89 f8                	mov    %edi,%eax
    4534:	89 75 f8             	mov    %esi,-0x8(%rbp)
    4537:	66 89 45 fc          	mov    %ax,-0x4(%rbp)
    453b:	66 83 7d fc 00       	cmpw   $0x0,-0x4(%rbp)
    4540:	78 1b                	js     455d <safe_rshift_func_int16_t_s_s+0x33>
    4542:	83 7d f8 00          	cmpl   $0x0,-0x8(%rbp)
    4546:	78 15                	js     455d <safe_rshift_func_int16_t_s_s+0x33>
    4548:	83 7d f8 1f          	cmpl   $0x1f,-0x8(%rbp)
    454c:	7f 0f                	jg     455d <safe_rshift_func_int16_t_s_s+0x33>
    454e:	0f bf 55 fc          	movswl -0x4(%rbp),%edx
    4552:	8b 45 f8             	mov    -0x8(%rbp),%eax
    4555:	89 c1                	mov    %eax,%ecx
    4557:	d3 fa                	sar    %cl,%edx
    4559:	89 d0                	mov    %edx,%eax
    455b:	eb 04                	jmp    4561 <safe_rshift_func_int16_t_s_s+0x37>
    455d:	0f b7 45 fc          	movzwl -0x4(%rbp),%eax
    4561:	5d                   	pop    %rbp
    4562:	c3                   	retq   

0000000000004563 <safe_rshift_func_int16_t_s_u>:
    4563:	f3 0f 1e fa          	endbr64 
    4567:	55                   	push   %rbp
    4568:	48 89 e5             	mov    %rsp,%rbp
    456b:	89 f8                	mov    %edi,%eax
    456d:	89 75 f8             	mov    %esi,-0x8(%rbp)
    4570:	66 89 45 fc          	mov    %ax,-0x4(%rbp)
    4574:	66 83 7d fc 00       	cmpw   $0x0,-0x4(%rbp)
    4579:	78 15                	js     4590 <safe_rshift_func_int16_t_s_u+0x2d>
    457b:	83 7d f8 1f          	cmpl   $0x1f,-0x8(%rbp)
    457f:	77 0f                	ja     4590 <safe_rshift_func_int16_t_s_u+0x2d>
    4581:	0f bf 55 fc          	movswl -0x4(%rbp),%edx
    4585:	8b 45 f8             	mov    -0x8(%rbp),%eax
    4588:	89 c1                	mov    %eax,%ecx
    458a:	d3 fa                	sar    %cl,%edx
    458c:	89 d0                	mov    %edx,%eax
    458e:	eb 04                	jmp    4594 <safe_rshift_func_int16_t_s_u+0x31>
    4590:	0f b7 45 fc          	movzwl -0x4(%rbp),%eax
    4594:	5d                   	pop    %rbp
    4595:	c3                   	retq   

0000000000004596 <safe_unary_minus_func_int32_t_s>:
    4596:	f3 0f 1e fa          	endbr64 
    459a:	55                   	push   %rbp
    459b:	48 89 e5             	mov    %rsp,%rbp
    459e:	89 7d fc             	mov    %edi,-0x4(%rbp)
    45a1:	81 7d fc 00 00 00 80 	cmpl   $0x80000000,-0x4(%rbp)
    45a8:	74 07                	je     45b1 <safe_unary_minus_func_int32_t_s+0x1b>
    45aa:	8b 45 fc             	mov    -0x4(%rbp),%eax
    45ad:	f7 d8                	neg    %eax
    45af:	eb 03                	jmp    45b4 <safe_unary_minus_func_int32_t_s+0x1e>
    45b1:	8b 45 fc             	mov    -0x4(%rbp),%eax
    45b4:	5d                   	pop    %rbp
    45b5:	c3                   	retq   

00000000000045b6 <safe_add_func_int32_t_s_s>:
    45b6:	f3 0f 1e fa          	endbr64 
    45ba:	55                   	push   %rbp
    45bb:	48 89 e5             	mov    %rsp,%rbp
    45be:	89 7d fc             	mov    %edi,-0x4(%rbp)
    45c1:	89 75 f8             	mov    %esi,-0x8(%rbp)
    45c4:	83 7d fc 00          	cmpl   $0x0,-0x4(%rbp)
    45c8:	7e 13                	jle    45dd <safe_add_func_int32_t_s_s+0x27>
    45ca:	83 7d f8 00          	cmpl   $0x0,-0x8(%rbp)
    45ce:	7e 0d                	jle    45dd <safe_add_func_int32_t_s_s+0x27>
    45d0:	b8 ff ff ff 7f       	mov    $0x7fffffff,%eax
    45d5:	2b 45 f8             	sub    -0x8(%rbp),%eax
    45d8:	39 45 fc             	cmp    %eax,-0x4(%rbp)
    45db:	7f 23                	jg     4600 <safe_add_func_int32_t_s_s+0x4a>
    45dd:	83 7d fc 00          	cmpl   $0x0,-0x4(%rbp)
    45e1:	79 13                	jns    45f6 <safe_add_func_int32_t_s_s+0x40>
    45e3:	83 7d f8 00          	cmpl   $0x0,-0x8(%rbp)
    45e7:	79 0d                	jns    45f6 <safe_add_func_int32_t_s_s+0x40>
    45e9:	b8 00 00 00 80       	mov    $0x80000000,%eax
    45ee:	2b 45 f8             	sub    -0x8(%rbp),%eax
    45f1:	39 45 fc             	cmp    %eax,-0x4(%rbp)
    45f4:	7c 0a                	jl     4600 <safe_add_func_int32_t_s_s+0x4a>
    45f6:	8b 55 fc             	mov    -0x4(%rbp),%edx
    45f9:	8b 45 f8             	mov    -0x8(%rbp),%eax
    45fc:	01 d0                	add    %edx,%eax
    45fe:	eb 03                	jmp    4603 <safe_add_func_int32_t_s_s+0x4d>
    4600:	8b 45 fc             	mov    -0x4(%rbp),%eax
    4603:	5d                   	pop    %rbp
    4604:	c3                   	retq   

0000000000004605 <safe_sub_func_int32_t_s_s>:
    4605:	f3 0f 1e fa          	endbr64 
    4609:	55                   	push   %rbp
    460a:	48 89 e5             	mov    %rsp,%rbp
    460d:	89 7d fc             	mov    %edi,-0x4(%rbp)
    4610:	89 75 f8             	mov    %esi,-0x8(%rbp)
    4613:	8b 45 fc             	mov    -0x4(%rbp),%eax
    4616:	33 45 f8             	xor    -0x8(%rbp),%eax
    4619:	89 c2                	mov    %eax,%edx
    461b:	8b 45 fc             	mov    -0x4(%rbp),%eax
    461e:	33 45 f8             	xor    -0x8(%rbp),%eax
    4621:	25 00 00 00 80       	and    $0x80000000,%eax
    4626:	33 45 fc             	xor    -0x4(%rbp),%eax
    4629:	2b 45 f8             	sub    -0x8(%rbp),%eax
    462c:	33 45 f8             	xor    -0x8(%rbp),%eax
    462f:	21 d0                	and    %edx,%eax
    4631:	85 c0                	test   %eax,%eax
    4633:	78 08                	js     463d <safe_sub_func_int32_t_s_s+0x38>
    4635:	8b 45 fc             	mov    -0x4(%rbp),%eax
    4638:	2b 45 f8             	sub    -0x8(%rbp),%eax
    463b:	eb 03                	jmp    4640 <safe_sub_func_int32_t_s_s+0x3b>
    463d:	8b 45 fc             	mov    -0x4(%rbp),%eax
    4640:	5d                   	pop    %rbp
    4641:	c3                   	retq   

0000000000004642 <safe_mul_func_int32_t_s_s>:
    4642:	f3 0f 1e fa          	endbr64 
    4646:	55                   	push   %rbp
    4647:	48 89 e5             	mov    %rsp,%rbp
    464a:	89 7d fc             	mov    %edi,-0x4(%rbp)
    464d:	89 75 f8             	mov    %esi,-0x8(%rbp)
    4650:	83 7d fc 00          	cmpl   $0x0,-0x4(%rbp)
    4654:	7e 14                	jle    466a <safe_mul_func_int32_t_s_s+0x28>
    4656:	83 7d f8 00          	cmpl   $0x0,-0x8(%rbp)
    465a:	7e 0e                	jle    466a <safe_mul_func_int32_t_s_s+0x28>
    465c:	b8 ff ff ff 7f       	mov    $0x7fffffff,%eax
    4661:	99                   	cltd   
    4662:	f7 7d f8             	idivl  -0x8(%rbp)
    4665:	39 45 fc             	cmp    %eax,-0x4(%rbp)
    4668:	7f 5d                	jg     46c7 <safe_mul_func_int32_t_s_s+0x85>
    466a:	83 7d fc 00          	cmpl   $0x0,-0x4(%rbp)
    466e:	7e 14                	jle    4684 <safe_mul_func_int32_t_s_s+0x42>
    4670:	83 7d f8 00          	cmpl   $0x0,-0x8(%rbp)
    4674:	7f 0e                	jg     4684 <safe_mul_func_int32_t_s_s+0x42>
    4676:	b8 00 00 00 80       	mov    $0x80000000,%eax
    467b:	99                   	cltd   
    467c:	f7 7d fc             	idivl  -0x4(%rbp)
    467f:	39 45 f8             	cmp    %eax,-0x8(%rbp)
    4682:	7c 43                	jl     46c7 <safe_mul_func_int32_t_s_s+0x85>
    4684:	83 7d fc 00          	cmpl   $0x0,-0x4(%rbp)
    4688:	7f 14                	jg     469e <safe_mul_func_int32_t_s_s+0x5c>
    468a:	83 7d f8 00          	cmpl   $0x0,-0x8(%rbp)
    468e:	7e 0e                	jle    469e <safe_mul_func_int32_t_s_s+0x5c>
    4690:	b8 00 00 00 80       	mov    $0x80000000,%eax
    4695:	99                   	cltd   
    4696:	f7 7d f8             	idivl  -0x8(%rbp)
    4699:	39 45 fc             	cmp    %eax,-0x4(%rbp)
    469c:	7c 29                	jl     46c7 <safe_mul_func_int32_t_s_s+0x85>
    469e:	83 7d fc 00          	cmpl   $0x0,-0x4(%rbp)
    46a2:	7f 1a                	jg     46be <safe_mul_func_int32_t_s_s+0x7c>
    46a4:	83 7d f8 00          	cmpl   $0x0,-0x8(%rbp)
    46a8:	7f 14                	jg     46be <safe_mul_func_int32_t_s_s+0x7c>
    46aa:	83 7d fc 00          	cmpl   $0x0,-0x4(%rbp)
    46ae:	74 0e                	je     46be <safe_mul_func_int32_t_s_s+0x7c>
    46b0:	b8 ff ff ff 7f       	mov    $0x7fffffff,%eax
    46b5:	99                   	cltd   
    46b6:	f7 7d fc             	idivl  -0x4(%rbp)
    46b9:	39 45 f8             	cmp    %eax,-0x8(%rbp)
    46bc:	7c 09                	jl     46c7 <safe_mul_func_int32_t_s_s+0x85>
    46be:	8b 45 fc             	mov    -0x4(%rbp),%eax
    46c1:	0f af 45 f8          	imul   -0x8(%rbp),%eax
    46c5:	eb 03                	jmp    46ca <safe_mul_func_int32_t_s_s+0x88>
    46c7:	8b 45 fc             	mov    -0x4(%rbp),%eax
    46ca:	5d                   	pop    %rbp
    46cb:	c3                   	retq   

00000000000046cc <safe_mod_func_int32_t_s_s>:
    46cc:	f3 0f 1e fa          	endbr64 
    46d0:	55                   	push   %rbp
    46d1:	48 89 e5             	mov    %rsp,%rbp
    46d4:	89 7d fc             	mov    %edi,-0x4(%rbp)
    46d7:	89 75 f8             	mov    %esi,-0x8(%rbp)
    46da:	83 7d f8 00          	cmpl   $0x0,-0x8(%rbp)
    46de:	74 1a                	je     46fa <safe_mod_func_int32_t_s_s+0x2e>
    46e0:	81 7d fc 00 00 00 80 	cmpl   $0x80000000,-0x4(%rbp)
    46e7:	75 06                	jne    46ef <safe_mod_func_int32_t_s_s+0x23>
    46e9:	83 7d f8 ff          	cmpl   $0xffffffff,-0x8(%rbp)
    46ed:	74 0b                	je     46fa <safe_mod_func_int32_t_s_s+0x2e>
    46ef:	8b 45 fc             	mov    -0x4(%rbp),%eax
    46f2:	99                   	cltd   
    46f3:	f7 7d f8             	idivl  -0x8(%rbp)
    46f6:	89 d0                	mov    %edx,%eax
    46f8:	eb 03                	jmp    46fd <safe_mod_func_int32_t_s_s+0x31>
    46fa:	8b 45 fc             	mov    -0x4(%rbp),%eax
    46fd:	5d                   	pop    %rbp
    46fe:	c3                   	retq   

00000000000046ff <safe_div_func_int32_t_s_s>:
    46ff:	f3 0f 1e fa          	endbr64 
    4703:	55                   	push   %rbp
    4704:	48 89 e5             	mov    %rsp,%rbp
    4707:	89 7d fc             	mov    %edi,-0x4(%rbp)
    470a:	89 75 f8             	mov    %esi,-0x8(%rbp)
    470d:	83 7d f8 00          	cmpl   $0x0,-0x8(%rbp)
    4711:	74 18                	je     472b <safe_div_func_int32_t_s_s+0x2c>
    4713:	81 7d fc 00 00 00 80 	cmpl   $0x80000000,-0x4(%rbp)
    471a:	75 06                	jne    4722 <safe_div_func_int32_t_s_s+0x23>
    471c:	83 7d f8 ff          	cmpl   $0xffffffff,-0x8(%rbp)
    4720:	74 09                	je     472b <safe_div_func_int32_t_s_s+0x2c>
    4722:	8b 45 fc             	mov    -0x4(%rbp),%eax
    4725:	99                   	cltd   
    4726:	f7 7d f8             	idivl  -0x8(%rbp)
    4729:	eb 03                	jmp    472e <safe_div_func_int32_t_s_s+0x2f>
    472b:	8b 45 fc             	mov    -0x4(%rbp),%eax
    472e:	5d                   	pop    %rbp
    472f:	c3                   	retq   

0000000000004730 <safe_lshift_func_int32_t_s_s>:
    4730:	f3 0f 1e fa          	endbr64 
    4734:	55                   	push   %rbp
    4735:	48 89 e5             	mov    %rsp,%rbp
    4738:	89 7d fc             	mov    %edi,-0x4(%rbp)
    473b:	89 75 f8             	mov    %esi,-0x8(%rbp)
    473e:	83 7d fc 00          	cmpl   $0x0,-0x4(%rbp)
    4742:	78 2d                	js     4771 <safe_lshift_func_int32_t_s_s+0x41>
    4744:	83 7d f8 00          	cmpl   $0x0,-0x8(%rbp)
    4748:	78 27                	js     4771 <safe_lshift_func_int32_t_s_s+0x41>
    474a:	83 7d f8 1f          	cmpl   $0x1f,-0x8(%rbp)
    474e:	7f 21                	jg     4771 <safe_lshift_func_int32_t_s_s+0x41>
    4750:	8b 45 f8             	mov    -0x8(%rbp),%eax
    4753:	ba ff ff ff 7f       	mov    $0x7fffffff,%edx
    4758:	89 c1                	mov    %eax,%ecx
    475a:	d3 fa                	sar    %cl,%edx
    475c:	89 d0                	mov    %edx,%eax
    475e:	39 45 fc             	cmp    %eax,-0x4(%rbp)
    4761:	7f 0e                	jg     4771 <safe_lshift_func_int32_t_s_s+0x41>
    4763:	8b 45 f8             	mov    -0x8(%rbp),%eax
    4766:	8b 55 fc             	mov    -0x4(%rbp),%edx
    4769:	89 c1                	mov    %eax,%ecx
    476b:	d3 e2                	shl    %cl,%edx
    476d:	89 d0                	mov    %edx,%eax
    476f:	eb 03                	jmp    4774 <safe_lshift_func_int32_t_s_s+0x44>
    4771:	8b 45 fc             	mov    -0x4(%rbp),%eax
    4774:	5d                   	pop    %rbp
    4775:	c3                   	retq   

0000000000004776 <safe_lshift_func_int32_t_s_u>:
    4776:	f3 0f 1e fa          	endbr64 
    477a:	55                   	push   %rbp
    477b:	48 89 e5             	mov    %rsp,%rbp
    477e:	89 7d fc             	mov    %edi,-0x4(%rbp)
    4781:	89 75 f8             	mov    %esi,-0x8(%rbp)
    4784:	83 7d fc 00          	cmpl   $0x0,-0x4(%rbp)
    4788:	78 27                	js     47b1 <safe_lshift_func_int32_t_s_u+0x3b>
    478a:	83 7d f8 1f          	cmpl   $0x1f,-0x8(%rbp)
    478e:	77 21                	ja     47b1 <safe_lshift_func_int32_t_s_u+0x3b>
    4790:	8b 45 f8             	mov    -0x8(%rbp),%eax
    4793:	ba ff ff ff 7f       	mov    $0x7fffffff,%edx
    4798:	89 c1                	mov    %eax,%ecx
    479a:	d3 fa                	sar    %cl,%edx
    479c:	89 d0                	mov    %edx,%eax
    479e:	39 45 fc             	cmp    %eax,-0x4(%rbp)
    47a1:	7f 0e                	jg     47b1 <safe_lshift_func_int32_t_s_u+0x3b>
    47a3:	8b 45 f8             	mov    -0x8(%rbp),%eax
    47a6:	8b 55 fc             	mov    -0x4(%rbp),%edx
    47a9:	89 c1                	mov    %eax,%ecx
    47ab:	d3 e2                	shl    %cl,%edx
    47ad:	89 d0                	mov    %edx,%eax
    47af:	eb 03                	jmp    47b4 <safe_lshift_func_int32_t_s_u+0x3e>
    47b1:	8b 45 fc             	mov    -0x4(%rbp),%eax
    47b4:	5d                   	pop    %rbp
    47b5:	c3                   	retq   

00000000000047b6 <safe_rshift_func_int32_t_s_s>:
    47b6:	f3 0f 1e fa          	endbr64 
    47ba:	55                   	push   %rbp
    47bb:	48 89 e5             	mov    %rsp,%rbp
    47be:	89 7d fc             	mov    %edi,-0x4(%rbp)
    47c1:	89 75 f8             	mov    %esi,-0x8(%rbp)
    47c4:	83 7d fc 00          	cmpl   $0x0,-0x4(%rbp)
    47c8:	78 1a                	js     47e4 <safe_rshift_func_int32_t_s_s+0x2e>
    47ca:	83 7d f8 00          	cmpl   $0x0,-0x8(%rbp)
    47ce:	78 14                	js     47e4 <safe_rshift_func_int32_t_s_s+0x2e>
    47d0:	83 7d f8 1f          	cmpl   $0x1f,-0x8(%rbp)
    47d4:	7f 0e                	jg     47e4 <safe_rshift_func_int32_t_s_s+0x2e>
    47d6:	8b 45 f8             	mov    -0x8(%rbp),%eax
    47d9:	8b 55 fc             	mov    -0x4(%rbp),%edx
    47dc:	89 c1                	mov    %eax,%ecx
    47de:	d3 fa                	sar    %cl,%edx
    47e0:	89 d0                	mov    %edx,%eax
    47e2:	eb 03                	jmp    47e7 <safe_rshift_func_int32_t_s_s+0x31>
    47e4:	8b 45 fc             	mov    -0x4(%rbp),%eax
    47e7:	5d                   	pop    %rbp
    47e8:	c3                   	retq   

00000000000047e9 <safe_rshift_func_int32_t_s_u>:
    47e9:	f3 0f 1e fa          	endbr64 
    47ed:	55                   	push   %rbp
    47ee:	48 89 e5             	mov    %rsp,%rbp
    47f1:	89 7d fc             	mov    %edi,-0x4(%rbp)
    47f4:	89 75 f8             	mov    %esi,-0x8(%rbp)
    47f7:	83 7d fc 00          	cmpl   $0x0,-0x4(%rbp)
    47fb:	78 14                	js     4811 <safe_rshift_func_int32_t_s_u+0x28>
    47fd:	83 7d f8 1f          	cmpl   $0x1f,-0x8(%rbp)
    4801:	77 0e                	ja     4811 <safe_rshift_func_int32_t_s_u+0x28>
    4803:	8b 45 f8             	mov    -0x8(%rbp),%eax
    4806:	8b 55 fc             	mov    -0x4(%rbp),%edx
    4809:	89 c1                	mov    %eax,%ecx
    480b:	d3 fa                	sar    %cl,%edx
    480d:	89 d0                	mov    %edx,%eax
    480f:	eb 03                	jmp    4814 <safe_rshift_func_int32_t_s_u+0x2b>
    4811:	8b 45 fc             	mov    -0x4(%rbp),%eax
    4814:	5d                   	pop    %rbp
    4815:	c3                   	retq   

0000000000004816 <safe_unary_minus_func_int64_t_s>:
    4816:	f3 0f 1e fa          	endbr64 
    481a:	55                   	push   %rbp
    481b:	48 89 e5             	mov    %rsp,%rbp
    481e:	48 89 7d f8          	mov    %rdi,-0x8(%rbp)
    4822:	48 b8 00 00 00 00 00 	movabs $0x8000000000000000,%rax
    4829:	00 00 80 
    482c:	48 39 45 f8          	cmp    %rax,-0x8(%rbp)
    4830:	74 09                	je     483b <safe_unary_minus_func_int64_t_s+0x25>
    4832:	48 8b 45 f8          	mov    -0x8(%rbp),%rax
    4836:	48 f7 d8             	neg    %rax
    4839:	eb 04                	jmp    483f <safe_unary_minus_func_int64_t_s+0x29>
    483b:	48 8b 45 f8          	mov    -0x8(%rbp),%rax
    483f:	5d                   	pop    %rbp
    4840:	c3                   	retq   

0000000000004841 <safe_add_func_int64_t_s_s>:
    4841:	f3 0f 1e fa          	endbr64 
    4845:	55                   	push   %rbp
    4846:	48 89 e5             	mov    %rsp,%rbp
    4849:	48 89 7d f8          	mov    %rdi,-0x8(%rbp)
    484d:	48 89 75 f0          	mov    %rsi,-0x10(%rbp)
    4851:	48 83 7d f8 00       	cmpq   $0x0,-0x8(%rbp)
    4856:	7e 1b                	jle    4873 <safe_add_func_int64_t_s_s+0x32>
    4858:	48 83 7d f0 00       	cmpq   $0x0,-0x10(%rbp)
    485d:	7e 14                	jle    4873 <safe_add_func_int64_t_s_s+0x32>
    485f:	48 b8 ff ff ff ff ff 	movabs $0x7fffffffffffffff,%rax
    4866:	ff ff 7f 
    4869:	48 2b 45 f0          	sub    -0x10(%rbp),%rax
    486d:	48 39 45 f8          	cmp    %rax,-0x8(%rbp)
    4871:	7f 2f                	jg     48a2 <safe_add_func_int64_t_s_s+0x61>
    4873:	48 83 7d f8 00       	cmpq   $0x0,-0x8(%rbp)
    4878:	79 1b                	jns    4895 <safe_add_func_int64_t_s_s+0x54>
    487a:	48 83 7d f0 00       	cmpq   $0x0,-0x10(%rbp)
    487f:	79 14                	jns    4895 <safe_add_func_int64_t_s_s+0x54>
    4881:	48 b8 00 00 00 00 00 	movabs $0x8000000000000000,%rax
    4888:	00 00 80 
    488b:	48 2b 45 f0          	sub    -0x10(%rbp),%rax
    488f:	48 39 45 f8          	cmp    %rax,-0x8(%rbp)
    4893:	7c 0d                	jl     48a2 <safe_add_func_int64_t_s_s+0x61>
    4895:	48 8b 55 f8          	mov    -0x8(%rbp),%rdx
    4899:	48 8b 45 f0          	mov    -0x10(%rbp),%rax
    489d:	48 01 d0             	add    %rdx,%rax
    48a0:	eb 04                	jmp    48a6 <safe_add_func_int64_t_s_s+0x65>
    48a2:	48 8b 45 f8          	mov    -0x8(%rbp),%rax
    48a6:	5d                   	pop    %rbp
    48a7:	c3                   	retq   

00000000000048a8 <safe_sub_func_int64_t_s_s>:
    48a8:	f3 0f 1e fa          	endbr64 
    48ac:	55                   	push   %rbp
    48ad:	48 89 e5             	mov    %rsp,%rbp
    48b0:	48 89 7d f8          	mov    %rdi,-0x8(%rbp)
    48b4:	48 89 75 f0          	mov    %rsi,-0x10(%rbp)
    48b8:	48 8b 45 f8          	mov    -0x8(%rbp),%rax
    48bc:	48 33 45 f0          	xor    -0x10(%rbp),%rax
    48c0:	48 89 c2             	mov    %rax,%rdx
    48c3:	48 8b 45 f8          	mov    -0x8(%rbp),%rax
    48c7:	48 33 45 f0          	xor    -0x10(%rbp),%rax
    48cb:	48 b9 00 00 00 00 00 	movabs $0x8000000000000000,%rcx
    48d2:	00 00 80 
    48d5:	48 21 c8             	and    %rcx,%rax
    48d8:	48 33 45 f8          	xor    -0x8(%rbp),%rax
    48dc:	48 2b 45 f0          	sub    -0x10(%rbp),%rax
    48e0:	48 33 45 f0          	xor    -0x10(%rbp),%rax
    48e4:	48 21 d0             	and    %rdx,%rax
    48e7:	48 85 c0             	test   %rax,%rax
    48ea:	78 0a                	js     48f6 <safe_sub_func_int64_t_s_s+0x4e>
    48ec:	48 8b 45 f8          	mov    -0x8(%rbp),%rax
    48f0:	48 2b 45 f0          	sub    -0x10(%rbp),%rax
    48f4:	eb 04                	jmp    48fa <safe_sub_func_int64_t_s_s+0x52>
    48f6:	48 8b 45 f8          	mov    -0x8(%rbp),%rax
    48fa:	5d                   	pop    %rbp
    48fb:	c3                   	retq   

00000000000048fc <safe_mul_func_int64_t_s_s>:
    48fc:	f3 0f 1e fa          	endbr64 
    4900:	55                   	push   %rbp
    4901:	48 89 e5             	mov    %rsp,%rbp
    4904:	48 89 7d f8          	mov    %rdi,-0x8(%rbp)
    4908:	48 89 75 f0          	mov    %rsi,-0x10(%rbp)
    490c:	48 83 7d f8 00       	cmpq   $0x0,-0x8(%rbp)
    4911:	7e 1d                	jle    4930 <safe_mul_func_int64_t_s_s+0x34>
    4913:	48 83 7d f0 00       	cmpq   $0x0,-0x10(%rbp)
    4918:	7e 16                	jle    4930 <safe_mul_func_int64_t_s_s+0x34>
    491a:	48 b8 ff ff ff ff ff 	movabs $0x7fffffffffffffff,%rax
    4921:	ff ff 7f 
    4924:	48 99                	cqto   
    4926:	48 f7 7d f0          	idivq  -0x10(%rbp)
    492a:	48 39 45 f8          	cmp    %rax,-0x8(%rbp)
    492e:	7f 7e                	jg     49ae <safe_mul_func_int64_t_s_s+0xb2>
    4930:	48 83 7d f8 00       	cmpq   $0x0,-0x8(%rbp)
    4935:	7e 1d                	jle    4954 <safe_mul_func_int64_t_s_s+0x58>
    4937:	48 83 7d f0 00       	cmpq   $0x0,-0x10(%rbp)
    493c:	7f 16                	jg     4954 <safe_mul_func_int64_t_s_s+0x58>
    493e:	48 b8 00 00 00 00 00 	movabs $0x8000000000000000,%rax
    4945:	00 00 80 
    4948:	48 99                	cqto   
    494a:	48 f7 7d f8          	idivq  -0x8(%rbp)
    494e:	48 39 45 f0          	cmp    %rax,-0x10(%rbp)
    4952:	7c 5a                	jl     49ae <safe_mul_func_int64_t_s_s+0xb2>
    4954:	48 83 7d f8 00       	cmpq   $0x0,-0x8(%rbp)
    4959:	7f 1d                	jg     4978 <safe_mul_func_int64_t_s_s+0x7c>
    495b:	48 83 7d f0 00       	cmpq   $0x0,-0x10(%rbp)
    4960:	7e 16                	jle    4978 <safe_mul_func_int64_t_s_s+0x7c>
    4962:	48 b8 00 00 00 00 00 	movabs $0x8000000000000000,%rax
    4969:	00 00 80 
    496c:	48 99                	cqto   
    496e:	48 f7 7d f0          	idivq  -0x10(%rbp)
    4972:	48 39 45 f8          	cmp    %rax,-0x8(%rbp)
    4976:	7c 36                	jl     49ae <safe_mul_func_int64_t_s_s+0xb2>
    4978:	48 83 7d f8 00       	cmpq   $0x0,-0x8(%rbp)
    497d:	7f 24                	jg     49a3 <safe_mul_func_int64_t_s_s+0xa7>
    497f:	48 83 7d f0 00       	cmpq   $0x0,-0x10(%rbp)
    4984:	7f 1d                	jg     49a3 <safe_mul_func_int64_t_s_s+0xa7>
    4986:	48 83 7d f8 00       	cmpq   $0x0,-0x8(%rbp)
    498b:	74 16                	je     49a3 <safe_mul_func_int64_t_s_s+0xa7>
    498d:	48 b8 ff ff ff ff ff 	movabs $0x7fffffffffffffff,%rax
    4994:	ff ff 7f 
    4997:	48 99                	cqto   
    4999:	48 f7 7d f8          	idivq  -0x8(%rbp)
    499d:	48 39 45 f0          	cmp    %rax,-0x10(%rbp)
    49a1:	7c 0b                	jl     49ae <safe_mul_func_int64_t_s_s+0xb2>
    49a3:	48 8b 45 f8          	mov    -0x8(%rbp),%rax
    49a7:	48 0f af 45 f0       	imul   -0x10(%rbp),%rax
    49ac:	eb 04                	jmp    49b2 <safe_mul_func_int64_t_s_s+0xb6>
    49ae:	48 8b 45 f8          	mov    -0x8(%rbp),%rax
    49b2:	5d                   	pop    %rbp
    49b3:	c3                   	retq   

00000000000049b4 <safe_mod_func_int64_t_s_s>:
    49b4:	f3 0f 1e fa          	endbr64 
    49b8:	55                   	push   %rbp
    49b9:	48 89 e5             	mov    %rsp,%rbp
    49bc:	48 89 7d f8          	mov    %rdi,-0x8(%rbp)
    49c0:	48 89 75 f0          	mov    %rsi,-0x10(%rbp)
    49c4:	48 83 7d f0 00       	cmpq   $0x0,-0x10(%rbp)
    49c9:	74 26                	je     49f1 <safe_mod_func_int64_t_s_s+0x3d>
    49cb:	48 b8 00 00 00 00 00 	movabs $0x8000000000000000,%rax
    49d2:	00 00 80 
    49d5:	48 39 45 f8          	cmp    %rax,-0x8(%rbp)
    49d9:	75 07                	jne    49e2 <safe_mod_func_int64_t_s_s+0x2e>
    49db:	48 83 7d f0 ff       	cmpq   $0xffffffffffffffff,-0x10(%rbp)
    49e0:	74 0f                	je     49f1 <safe_mod_func_int64_t_s_s+0x3d>
    49e2:	48 8b 45 f8          	mov    -0x8(%rbp),%rax
    49e6:	48 99                	cqto   
    49e8:	48 f7 7d f0          	idivq  -0x10(%rbp)
    49ec:	48 89 d0             	mov    %rdx,%rax
    49ef:	eb 04                	jmp    49f5 <safe_mod_func_int64_t_s_s+0x41>
    49f1:	48 8b 45 f8          	mov    -0x8(%rbp),%rax
    49f5:	5d                   	pop    %rbp
    49f6:	c3                   	retq   

00000000000049f7 <safe_div_func_int64_t_s_s>:
    49f7:	f3 0f 1e fa          	endbr64 
    49fb:	55                   	push   %rbp
    49fc:	48 89 e5             	mov    %rsp,%rbp
    49ff:	48 89 7d f8          	mov    %rdi,-0x8(%rbp)
    4a03:	48 89 75 f0          	mov    %rsi,-0x10(%rbp)
    4a07:	48 83 7d f0 00       	cmpq   $0x0,-0x10(%rbp)
    4a0c:	74 23                	je     4a31 <safe_div_func_int64_t_s_s+0x3a>
    4a0e:	48 b8 00 00 00 00 00 	movabs $0x8000000000000000,%rax
    4a15:	00 00 80 
    4a18:	48 39 45 f8          	cmp    %rax,-0x8(%rbp)
    4a1c:	75 07                	jne    4a25 <safe_div_func_int64_t_s_s+0x2e>
    4a1e:	48 83 7d f0 ff       	cmpq   $0xffffffffffffffff,-0x10(%rbp)
    4a23:	74 0c                	je     4a31 <safe_div_func_int64_t_s_s+0x3a>
    4a25:	48 8b 45 f8          	mov    -0x8(%rbp),%rax
    4a29:	48 99                	cqto   
    4a2b:	48 f7 7d f0          	idivq  -0x10(%rbp)
    4a2f:	eb 04                	jmp    4a35 <safe_div_func_int64_t_s_s+0x3e>
    4a31:	48 8b 45 f8          	mov    -0x8(%rbp),%rax
    4a35:	5d                   	pop    %rbp
    4a36:	c3                   	retq   

0000000000004a37 <safe_lshift_func_int64_t_s_s>:
    4a37:	f3 0f 1e fa          	endbr64 
    4a3b:	55                   	push   %rbp
    4a3c:	48 89 e5             	mov    %rsp,%rbp
    4a3f:	48 89 7d f8          	mov    %rdi,-0x8(%rbp)
    4a43:	89 75 f4             	mov    %esi,-0xc(%rbp)
    4a46:	48 83 7d f8 00       	cmpq   $0x0,-0x8(%rbp)
    4a4b:	78 38                	js     4a85 <safe_lshift_func_int64_t_s_s+0x4e>
    4a4d:	83 7d f4 00          	cmpl   $0x0,-0xc(%rbp)
    4a51:	78 32                	js     4a85 <safe_lshift_func_int64_t_s_s+0x4e>
    4a53:	83 7d f4 1f          	cmpl   $0x1f,-0xc(%rbp)
    4a57:	7f 2c                	jg     4a85 <safe_lshift_func_int64_t_s_s+0x4e>
    4a59:	8b 45 f4             	mov    -0xc(%rbp),%eax
    4a5c:	48 ba ff ff ff ff ff 	movabs $0x7fffffffffffffff,%rdx
    4a63:	ff ff 7f 
    4a66:	89 c1                	mov    %eax,%ecx
    4a68:	48 d3 fa             	sar    %cl,%rdx
    4a6b:	48 89 d0             	mov    %rdx,%rax
    4a6e:	48 39 45 f8          	cmp    %rax,-0x8(%rbp)
    4a72:	7f 11                	jg     4a85 <safe_lshift_func_int64_t_s_s+0x4e>
    4a74:	8b 45 f4             	mov    -0xc(%rbp),%eax
    4a77:	48 8b 55 f8          	mov    -0x8(%rbp),%rdx
    4a7b:	89 c1                	mov    %eax,%ecx
    4a7d:	48 d3 e2             	shl    %cl,%rdx
    4a80:	48 89 d0             	mov    %rdx,%rax
    4a83:	eb 04                	jmp    4a89 <safe_lshift_func_int64_t_s_s+0x52>
    4a85:	48 8b 45 f8          	mov    -0x8(%rbp),%rax
    4a89:	5d                   	pop    %rbp
    4a8a:	c3                   	retq   

0000000000004a8b <safe_lshift_func_int64_t_s_u>:
    4a8b:	f3 0f 1e fa          	endbr64 
    4a8f:	55                   	push   %rbp
    4a90:	48 89 e5             	mov    %rsp,%rbp
    4a93:	48 89 7d f8          	mov    %rdi,-0x8(%rbp)
    4a97:	89 75 f4             	mov    %esi,-0xc(%rbp)
    4a9a:	48 83 7d f8 00       	cmpq   $0x0,-0x8(%rbp)
    4a9f:	78 32                	js     4ad3 <safe_lshift_func_int64_t_s_u+0x48>
    4aa1:	83 7d f4 1f          	cmpl   $0x1f,-0xc(%rbp)
    4aa5:	77 2c                	ja     4ad3 <safe_lshift_func_int64_t_s_u+0x48>
    4aa7:	8b 45 f4             	mov    -0xc(%rbp),%eax
    4aaa:	48 ba ff ff ff ff ff 	movabs $0x7fffffffffffffff,%rdx
    4ab1:	ff ff 7f 
    4ab4:	89 c1                	mov    %eax,%ecx
    4ab6:	48 d3 fa             	sar    %cl,%rdx
    4ab9:	48 89 d0             	mov    %rdx,%rax
    4abc:	48 39 45 f8          	cmp    %rax,-0x8(%rbp)
    4ac0:	7f 11                	jg     4ad3 <safe_lshift_func_int64_t_s_u+0x48>
    4ac2:	8b 45 f4             	mov    -0xc(%rbp),%eax
    4ac5:	48 8b 55 f8          	mov    -0x8(%rbp),%rdx
    4ac9:	89 c1                	mov    %eax,%ecx
    4acb:	48 d3 e2             	shl    %cl,%rdx
    4ace:	48 89 d0             	mov    %rdx,%rax
    4ad1:	eb 04                	jmp    4ad7 <safe_lshift_func_int64_t_s_u+0x4c>
    4ad3:	48 8b 45 f8          	mov    -0x8(%rbp),%rax
    4ad7:	5d                   	pop    %rbp
    4ad8:	c3                   	retq   

0000000000004ad9 <safe_rshift_func_int64_t_s_s>:
    4ad9:	f3 0f 1e fa          	endbr64 
    4add:	55                   	push   %rbp
    4ade:	48 89 e5             	mov    %rsp,%rbp
    4ae1:	48 89 7d f8          	mov    %rdi,-0x8(%rbp)
    4ae5:	89 75 f4             	mov    %esi,-0xc(%rbp)
    4ae8:	48 83 7d f8 00       	cmpq   $0x0,-0x8(%rbp)
    4aed:	78 1d                	js     4b0c <safe_rshift_func_int64_t_s_s+0x33>
    4aef:	83 7d f4 00          	cmpl   $0x0,-0xc(%rbp)
    4af3:	78 17                	js     4b0c <safe_rshift_func_int64_t_s_s+0x33>
    4af5:	83 7d f4 1f          	cmpl   $0x1f,-0xc(%rbp)
    4af9:	7f 11                	jg     4b0c <safe_rshift_func_int64_t_s_s+0x33>
    4afb:	8b 45 f4             	mov    -0xc(%rbp),%eax
    4afe:	48 8b 55 f8          	mov    -0x8(%rbp),%rdx
    4b02:	89 c1                	mov    %eax,%ecx
    4b04:	48 d3 fa             	sar    %cl,%rdx
    4b07:	48 89 d0             	mov    %rdx,%rax
    4b0a:	eb 04                	jmp    4b10 <safe_rshift_func_int64_t_s_s+0x37>
    4b0c:	48 8b 45 f8          	mov    -0x8(%rbp),%rax
    4b10:	5d                   	pop    %rbp
    4b11:	c3                   	retq   

0000000000004b12 <safe_rshift_func_int64_t_s_u>:
    4b12:	f3 0f 1e fa          	endbr64 
    4b16:	55                   	push   %rbp
    4b17:	48 89 e5             	mov    %rsp,%rbp
    4b1a:	48 89 7d f8          	mov    %rdi,-0x8(%rbp)
    4b1e:	89 75 f4             	mov    %esi,-0xc(%rbp)
    4b21:	48 83 7d f8 00       	cmpq   $0x0,-0x8(%rbp)
    4b26:	78 17                	js     4b3f <safe_rshift_func_int64_t_s_u+0x2d>
    4b28:	83 7d f4 1f          	cmpl   $0x1f,-0xc(%rbp)
    4b2c:	77 11                	ja     4b3f <safe_rshift_func_int64_t_s_u+0x2d>
    4b2e:	8b 45 f4             	mov    -0xc(%rbp),%eax
    4b31:	48 8b 55 f8          	mov    -0x8(%rbp),%rdx
    4b35:	89 c1                	mov    %eax,%ecx
    4b37:	48 d3 fa             	sar    %cl,%rdx
    4b3a:	48 89 d0             	mov    %rdx,%rax
    4b3d:	eb 04                	jmp    4b43 <safe_rshift_func_int64_t_s_u+0x31>
    4b3f:	48 8b 45 f8          	mov    -0x8(%rbp),%rax
    4b43:	5d                   	pop    %rbp
    4b44:	c3                   	retq   

0000000000004b45 <safe_unary_minus_func_uint8_t_u>:
    4b45:	f3 0f 1e fa          	endbr64 
    4b49:	55                   	push   %rbp
    4b4a:	48 89 e5             	mov    %rsp,%rbp
    4b4d:	89 f8                	mov    %edi,%eax
    4b4f:	88 45 fc             	mov    %al,-0x4(%rbp)
    4b52:	0f b6 45 fc          	movzbl -0x4(%rbp),%eax
    4b56:	f7 d8                	neg    %eax
    4b58:	5d                   	pop    %rbp
    4b59:	c3                   	retq   

0000000000004b5a <safe_add_func_uint8_t_u_u>:
    4b5a:	f3 0f 1e fa          	endbr64 
    4b5e:	55                   	push   %rbp
    4b5f:	48 89 e5             	mov    %rsp,%rbp
    4b62:	89 fa                	mov    %edi,%edx
    4b64:	89 f0                	mov    %esi,%eax
    4b66:	88 55 fc             	mov    %dl,-0x4(%rbp)
    4b69:	88 45 f8             	mov    %al,-0x8(%rbp)
    4b6c:	0f b6 55 fc          	movzbl -0x4(%rbp),%edx
    4b70:	0f b6 45 f8          	movzbl -0x8(%rbp),%eax
    4b74:	01 d0                	add    %edx,%eax
    4b76:	5d                   	pop    %rbp
    4b77:	c3                   	retq   

0000000000004b78 <safe_sub_func_uint8_t_u_u>:
    4b78:	f3 0f 1e fa          	endbr64 
    4b7c:	55                   	push   %rbp
    4b7d:	48 89 e5             	mov    %rsp,%rbp
    4b80:	89 fa                	mov    %edi,%edx
    4b82:	89 f0                	mov    %esi,%eax
    4b84:	88 55 fc             	mov    %dl,-0x4(%rbp)
    4b87:	88 45 f8             	mov    %al,-0x8(%rbp)
    4b8a:	0f b6 45 fc          	movzbl -0x4(%rbp),%eax
    4b8e:	2a 45 f8             	sub    -0x8(%rbp),%al
    4b91:	5d                   	pop    %rbp
    4b92:	c3                   	retq   

0000000000004b93 <safe_mul_func_uint8_t_u_u>:
    4b93:	f3 0f 1e fa          	endbr64 
    4b97:	55                   	push   %rbp
    4b98:	48 89 e5             	mov    %rsp,%rbp
    4b9b:	89 fa                	mov    %edi,%edx
    4b9d:	89 f0                	mov    %esi,%eax
    4b9f:	88 55 fc             	mov    %dl,-0x4(%rbp)
    4ba2:	88 45 f8             	mov    %al,-0x8(%rbp)
    4ba5:	0f b6 45 fc          	movzbl -0x4(%rbp),%eax
    4ba9:	f6 65 f8             	mulb   -0x8(%rbp)
    4bac:	5d                   	pop    %rbp
    4bad:	c3                   	retq   

0000000000004bae <safe_mod_func_uint8_t_u_u>:
    4bae:	f3 0f 1e fa          	endbr64 
    4bb2:	55                   	push   %rbp
    4bb3:	48 89 e5             	mov    %rsp,%rbp
    4bb6:	89 fa                	mov    %edi,%edx
    4bb8:	89 f0                	mov    %esi,%eax
    4bba:	88 55 fc             	mov    %dl,-0x4(%rbp)
    4bbd:	88 45 f8             	mov    %al,-0x8(%rbp)
    4bc0:	80 7d f8 00          	cmpb   $0x0,-0x8(%rbp)
    4bc4:	74 0f                	je     4bd5 <safe_mod_func_uint8_t_u_u+0x27>
    4bc6:	0f b6 45 fc          	movzbl -0x4(%rbp),%eax
    4bca:	0f b6 c0             	movzbl %al,%eax
    4bcd:	f6 75 f8             	divb   -0x8(%rbp)
    4bd0:	0f b6 c4             	movzbl %ah,%eax
    4bd3:	eb 04                	jmp    4bd9 <safe_mod_func_uint8_t_u_u+0x2b>
    4bd5:	0f b6 45 fc          	movzbl -0x4(%rbp),%eax
    4bd9:	5d                   	pop    %rbp
    4bda:	c3                   	retq   

0000000000004bdb <safe_div_func_uint8_t_u_u>:
    4bdb:	f3 0f 1e fa          	endbr64 
    4bdf:	55                   	push   %rbp
    4be0:	48 89 e5             	mov    %rsp,%rbp
    4be3:	89 fa                	mov    %edi,%edx
    4be5:	89 f0                	mov    %esi,%eax
    4be7:	88 55 fc             	mov    %dl,-0x4(%rbp)
    4bea:	88 45 f8             	mov    %al,-0x8(%rbp)
    4bed:	80 7d f8 00          	cmpb   $0x0,-0x8(%rbp)
    4bf1:	74 0c                	je     4bff <safe_div_func_uint8_t_u_u+0x24>
    4bf3:	0f b6 45 fc          	movzbl -0x4(%rbp),%eax
    4bf7:	0f b6 c0             	movzbl %al,%eax
    4bfa:	f6 75 f8             	divb   -0x8(%rbp)
    4bfd:	eb 04                	jmp    4c03 <safe_div_func_uint8_t_u_u+0x28>
    4bff:	0f b6 45 fc          	movzbl -0x4(%rbp),%eax
    4c03:	5d                   	pop    %rbp
    4c04:	c3                   	retq   

0000000000004c05 <safe_lshift_func_uint8_t_u_s>:
    4c05:	f3 0f 1e fa          	endbr64 
    4c09:	55                   	push   %rbp
    4c0a:	48 89 e5             	mov    %rsp,%rbp
    4c0d:	89 f8                	mov    %edi,%eax
    4c0f:	89 75 f8             	mov    %esi,-0x8(%rbp)
    4c12:	88 45 fc             	mov    %al,-0x4(%rbp)
    4c15:	83 7d f8 00          	cmpl   $0x0,-0x8(%rbp)
    4c19:	78 2b                	js     4c46 <safe_lshift_func_uint8_t_u_s+0x41>
    4c1b:	83 7d f8 1f          	cmpl   $0x1f,-0x8(%rbp)
    4c1f:	7f 25                	jg     4c46 <safe_lshift_func_uint8_t_u_s+0x41>
    4c21:	0f b6 55 fc          	movzbl -0x4(%rbp),%edx
    4c25:	8b 45 f8             	mov    -0x8(%rbp),%eax
    4c28:	be ff 00 00 00       	mov    $0xff,%esi
    4c2d:	89 c1                	mov    %eax,%ecx
    4c2f:	d3 fe                	sar    %cl,%esi
    4c31:	89 f0                	mov    %esi,%eax
    4c33:	39 c2                	cmp    %eax,%edx
    4c35:	7f 0f                	jg     4c46 <safe_lshift_func_uint8_t_u_s+0x41>
    4c37:	0f b6 55 fc          	movzbl -0x4(%rbp),%edx
    4c3b:	8b 45 f8             	mov    -0x8(%rbp),%eax
    4c3e:	89 c1                	mov    %eax,%ecx
    4c40:	d3 e2                	shl    %cl,%edx
    4c42:	89 d0                	mov    %edx,%eax
    4c44:	eb 04                	jmp    4c4a <safe_lshift_func_uint8_t_u_s+0x45>
    4c46:	0f b6 45 fc          	movzbl -0x4(%rbp),%eax
    4c4a:	5d                   	pop    %rbp
    4c4b:	c3                   	retq   

0000000000004c4c <safe_lshift_func_uint8_t_u_u>:
    4c4c:	f3 0f 1e fa          	endbr64 
    4c50:	55                   	push   %rbp
    4c51:	48 89 e5             	mov    %rsp,%rbp
    4c54:	89 f8                	mov    %edi,%eax
    4c56:	89 75 f8             	mov    %esi,-0x8(%rbp)
    4c59:	88 45 fc             	mov    %al,-0x4(%rbp)
    4c5c:	83 7d f8 1f          	cmpl   $0x1f,-0x8(%rbp)
    4c60:	77 25                	ja     4c87 <safe_lshift_func_uint8_t_u_u+0x3b>
    4c62:	0f b6 55 fc          	movzbl -0x4(%rbp),%edx
    4c66:	8b 45 f8             	mov    -0x8(%rbp),%eax
    4c69:	be ff 00 00 00       	mov    $0xff,%esi
    4c6e:	89 c1                	mov    %eax,%ecx
    4c70:	d3 fe                	sar    %cl,%esi
    4c72:	89 f0                	mov    %esi,%eax
    4c74:	39 c2                	cmp    %eax,%edx
    4c76:	7f 0f                	jg     4c87 <safe_lshift_func_uint8_t_u_u+0x3b>
    4c78:	0f b6 55 fc          	movzbl -0x4(%rbp),%edx
    4c7c:	8b 45 f8             	mov    -0x8(%rbp),%eax
    4c7f:	89 c1                	mov    %eax,%ecx
    4c81:	d3 e2                	shl    %cl,%edx
    4c83:	89 d0                	mov    %edx,%eax
    4c85:	eb 04                	jmp    4c8b <safe_lshift_func_uint8_t_u_u+0x3f>
    4c87:	0f b6 45 fc          	movzbl -0x4(%rbp),%eax
    4c8b:	5d                   	pop    %rbp
    4c8c:	c3                   	retq   

0000000000004c8d <safe_rshift_func_uint8_t_u_s>:
    4c8d:	f3 0f 1e fa          	endbr64 
    4c91:	55                   	push   %rbp
    4c92:	48 89 e5             	mov    %rsp,%rbp
    4c95:	89 f8                	mov    %edi,%eax
    4c97:	89 75 f8             	mov    %esi,-0x8(%rbp)
    4c9a:	88 45 fc             	mov    %al,-0x4(%rbp)
    4c9d:	83 7d f8 00          	cmpl   $0x0,-0x8(%rbp)
    4ca1:	78 15                	js     4cb8 <safe_rshift_func_uint8_t_u_s+0x2b>
    4ca3:	83 7d f8 1f          	cmpl   $0x1f,-0x8(%rbp)
    4ca7:	7f 0f                	jg     4cb8 <safe_rshift_func_uint8_t_u_s+0x2b>
    4ca9:	0f b6 55 fc          	movzbl -0x4(%rbp),%edx
    4cad:	8b 45 f8             	mov    -0x8(%rbp),%eax
    4cb0:	89 c1                	mov    %eax,%ecx
    4cb2:	d3 fa                	sar    %cl,%edx
    4cb4:	89 d0                	mov    %edx,%eax
    4cb6:	eb 04                	jmp    4cbc <safe_rshift_func_uint8_t_u_s+0x2f>
    4cb8:	0f b6 45 fc          	movzbl -0x4(%rbp),%eax
    4cbc:	5d                   	pop    %rbp
    4cbd:	c3                   	retq   

0000000000004cbe <safe_rshift_func_uint8_t_u_u>:
    4cbe:	f3 0f 1e fa          	endbr64 
    4cc2:	55                   	push   %rbp
    4cc3:	48 89 e5             	mov    %rsp,%rbp
    4cc6:	89 f8                	mov    %edi,%eax
    4cc8:	89 75 f8             	mov    %esi,-0x8(%rbp)
    4ccb:	88 45 fc             	mov    %al,-0x4(%rbp)
    4cce:	83 7d f8 1f          	cmpl   $0x1f,-0x8(%rbp)
    4cd2:	77 0f                	ja     4ce3 <safe_rshift_func_uint8_t_u_u+0x25>
    4cd4:	0f b6 55 fc          	movzbl -0x4(%rbp),%edx
    4cd8:	8b 45 f8             	mov    -0x8(%rbp),%eax
    4cdb:	89 c1                	mov    %eax,%ecx
    4cdd:	d3 fa                	sar    %cl,%edx
    4cdf:	89 d0                	mov    %edx,%eax
    4ce1:	eb 04                	jmp    4ce7 <safe_rshift_func_uint8_t_u_u+0x29>
    4ce3:	0f b6 45 fc          	movzbl -0x4(%rbp),%eax
    4ce7:	5d                   	pop    %rbp
    4ce8:	c3                   	retq   

0000000000004ce9 <safe_unary_minus_func_uint16_t_u>:
    4ce9:	f3 0f 1e fa          	endbr64 
    4ced:	55                   	push   %rbp
    4cee:	48 89 e5             	mov    %rsp,%rbp
    4cf1:	89 f8                	mov    %edi,%eax
    4cf3:	66 89 45 fc          	mov    %ax,-0x4(%rbp)
    4cf7:	0f b7 45 fc          	movzwl -0x4(%rbp),%eax
    4cfb:	f7 d8                	neg    %eax
    4cfd:	5d                   	pop    %rbp
    4cfe:	c3                   	retq   

0000000000004cff <safe_add_func_uint16_t_u_u>:
    4cff:	f3 0f 1e fa          	endbr64 
    4d03:	55                   	push   %rbp
    4d04:	48 89 e5             	mov    %rsp,%rbp
    4d07:	89 fa                	mov    %edi,%edx
    4d09:	89 f0                	mov    %esi,%eax
    4d0b:	66 89 55 fc          	mov    %dx,-0x4(%rbp)
    4d0f:	66 89 45 f8          	mov    %ax,-0x8(%rbp)
    4d13:	0f b7 55 fc          	movzwl -0x4(%rbp),%edx
    4d17:	0f b7 45 f8          	movzwl -0x8(%rbp),%eax
    4d1b:	01 d0                	add    %edx,%eax
    4d1d:	5d                   	pop    %rbp
    4d1e:	c3                   	retq   

0000000000004d1f <safe_sub_func_uint16_t_u_u>:
    4d1f:	f3 0f 1e fa          	endbr64 
    4d23:	55                   	push   %rbp
    4d24:	48 89 e5             	mov    %rsp,%rbp
    4d27:	89 fa                	mov    %edi,%edx
    4d29:	89 f0                	mov    %esi,%eax
    4d2b:	66 89 55 fc          	mov    %dx,-0x4(%rbp)
    4d2f:	66 89 45 f8          	mov    %ax,-0x8(%rbp)
    4d33:	0f b7 45 fc          	movzwl -0x4(%rbp),%eax
    4d37:	66 2b 45 f8          	sub    -0x8(%rbp),%ax
    4d3b:	5d                   	pop    %rbp
    4d3c:	c3                   	retq   

0000000000004d3d <safe_mul_func_uint16_t_u_u>:
    4d3d:	f3 0f 1e fa          	endbr64 
    4d41:	55                   	push   %rbp
    4d42:	48 89 e5             	mov    %rsp,%rbp
    4d45:	89 fa                	mov    %edi,%edx
    4d47:	89 f0                	mov    %esi,%eax
    4d49:	66 89 55 fc          	mov    %dx,-0x4(%rbp)
    4d4d:	66 89 45 f8          	mov    %ax,-0x8(%rbp)
    4d51:	0f b7 45 fc          	movzwl -0x4(%rbp),%eax
    4d55:	66 0f af 45 f8       	imul   -0x8(%rbp),%ax
    4d5a:	5d                   	pop    %rbp
    4d5b:	c3                   	retq   

0000000000004d5c <safe_mod_func_uint16_t_u_u>:
    4d5c:	f3 0f 1e fa          	endbr64 
    4d60:	55                   	push   %rbp
    4d61:	48 89 e5             	mov    %rsp,%rbp
    4d64:	89 fa                	mov    %edi,%edx
    4d66:	89 f0                	mov    %esi,%eax
    4d68:	66 89 55 fc          	mov    %dx,-0x4(%rbp)
    4d6c:	66 89 45 f8          	mov    %ax,-0x8(%rbp)
    4d70:	66 83 7d f8 00       	cmpw   $0x0,-0x8(%rbp)
    4d75:	74 11                	je     4d88 <safe_mod_func_uint16_t_u_u+0x2c>
    4d77:	0f b7 45 fc          	movzwl -0x4(%rbp),%eax
    4d7b:	ba 00 00 00 00       	mov    $0x0,%edx
    4d80:	66 f7 75 f8          	divw   -0x8(%rbp)
    4d84:	89 d0                	mov    %edx,%eax
    4d86:	eb 04                	jmp    4d8c <safe_mod_func_uint16_t_u_u+0x30>
    4d88:	0f b7 45 fc          	movzwl -0x4(%rbp),%eax
    4d8c:	5d                   	pop    %rbp
    4d8d:	c3                   	retq   

0000000000004d8e <safe_div_func_uint16_t_u_u>:
    4d8e:	f3 0f 1e fa          	endbr64 
    4d92:	55                   	push   %rbp
    4d93:	48 89 e5             	mov    %rsp,%rbp
    4d96:	89 fa                	mov    %edi,%edx
    4d98:	89 f0                	mov    %esi,%eax
    4d9a:	66 89 55 fc          	mov    %dx,-0x4(%rbp)
    4d9e:	66 89 45 f8          	mov    %ax,-0x8(%rbp)
    4da2:	66 83 7d f8 00       	cmpw   $0x0,-0x8(%rbp)
    4da7:	74 0f                	je     4db8 <safe_div_func_uint16_t_u_u+0x2a>
    4da9:	0f b7 45 fc          	movzwl -0x4(%rbp),%eax
    4dad:	ba 00 00 00 00       	mov    $0x0,%edx
    4db2:	66 f7 75 f8          	divw   -0x8(%rbp)
    4db6:	eb 04                	jmp    4dbc <safe_div_func_uint16_t_u_u+0x2e>
    4db8:	0f b7 45 fc          	movzwl -0x4(%rbp),%eax
    4dbc:	5d                   	pop    %rbp
    4dbd:	c3                   	retq   

0000000000004dbe <safe_lshift_func_uint16_t_u_s>:
    4dbe:	f3 0f 1e fa          	endbr64 
    4dc2:	55                   	push   %rbp
    4dc3:	48 89 e5             	mov    %rsp,%rbp
    4dc6:	89 f8                	mov    %edi,%eax
    4dc8:	89 75 f8             	mov    %esi,-0x8(%rbp)
    4dcb:	66 89 45 fc          	mov    %ax,-0x4(%rbp)
    4dcf:	83 7d f8 00          	cmpl   $0x0,-0x8(%rbp)
    4dd3:	78 2b                	js     4e00 <safe_lshift_func_uint16_t_u_s+0x42>
    4dd5:	83 7d f8 1f          	cmpl   $0x1f,-0x8(%rbp)
    4dd9:	7f 25                	jg     4e00 <safe_lshift_func_uint16_t_u_s+0x42>
    4ddb:	0f b7 55 fc          	movzwl -0x4(%rbp),%edx
    4ddf:	8b 45 f8             	mov    -0x8(%rbp),%eax
    4de2:	be ff ff 00 00       	mov    $0xffff,%esi
    4de7:	89 c1                	mov    %eax,%ecx
    4de9:	d3 fe                	sar    %cl,%esi
    4deb:	89 f0                	mov    %esi,%eax
    4ded:	39 c2                	cmp    %eax,%edx
    4def:	7f 0f                	jg     4e00 <safe_lshift_func_uint16_t_u_s+0x42>
    4df1:	0f b7 55 fc          	movzwl -0x4(%rbp),%edx
    4df5:	8b 45 f8             	mov    -0x8(%rbp),%eax
    4df8:	89 c1                	mov    %eax,%ecx
    4dfa:	d3 e2                	shl    %cl,%edx
    4dfc:	89 d0                	mov    %edx,%eax
    4dfe:	eb 04                	jmp    4e04 <safe_lshift_func_uint16_t_u_s+0x46>
    4e00:	0f b7 45 fc          	movzwl -0x4(%rbp),%eax
    4e04:	5d                   	pop    %rbp
    4e05:	c3                   	retq   

0000000000004e06 <safe_lshift_func_uint16_t_u_u>:
    4e06:	f3 0f 1e fa          	endbr64 
    4e0a:	55                   	push   %rbp
    4e0b:	48 89 e5             	mov    %rsp,%rbp
    4e0e:	89 f8                	mov    %edi,%eax
    4e10:	89 75 f8             	mov    %esi,-0x8(%rbp)
    4e13:	66 89 45 fc          	mov    %ax,-0x4(%rbp)
    4e17:	83 7d f8 1f          	cmpl   $0x1f,-0x8(%rbp)
    4e1b:	77 25                	ja     4e42 <safe_lshift_func_uint16_t_u_u+0x3c>
    4e1d:	0f b7 55 fc          	movzwl -0x4(%rbp),%edx
    4e21:	8b 45 f8             	mov    -0x8(%rbp),%eax
    4e24:	be ff ff 00 00       	mov    $0xffff,%esi
    4e29:	89 c1                	mov    %eax,%ecx
    4e2b:	d3 fe                	sar    %cl,%esi
    4e2d:	89 f0                	mov    %esi,%eax
    4e2f:	39 c2                	cmp    %eax,%edx
    4e31:	7f 0f                	jg     4e42 <safe_lshift_func_uint16_t_u_u+0x3c>
    4e33:	0f b7 55 fc          	movzwl -0x4(%rbp),%edx
    4e37:	8b 45 f8             	mov    -0x8(%rbp),%eax
    4e3a:	89 c1                	mov    %eax,%ecx
    4e3c:	d3 e2                	shl    %cl,%edx
    4e3e:	89 d0                	mov    %edx,%eax
    4e40:	eb 04                	jmp    4e46 <safe_lshift_func_uint16_t_u_u+0x40>
    4e42:	0f b7 45 fc          	movzwl -0x4(%rbp),%eax
    4e46:	5d                   	pop    %rbp
    4e47:	c3                   	retq   

0000000000004e48 <safe_rshift_func_uint16_t_u_s>:
    4e48:	f3 0f 1e fa          	endbr64 
    4e4c:	55                   	push   %rbp
    4e4d:	48 89 e5             	mov    %rsp,%rbp
    4e50:	89 f8                	mov    %edi,%eax
    4e52:	89 75 f8             	mov    %esi,-0x8(%rbp)
    4e55:	66 89 45 fc          	mov    %ax,-0x4(%rbp)
    4e59:	83 7d f8 00          	cmpl   $0x0,-0x8(%rbp)
    4e5d:	78 15                	js     4e74 <safe_rshift_func_uint16_t_u_s+0x2c>
    4e5f:	83 7d f8 1f          	cmpl   $0x1f,-0x8(%rbp)
    4e63:	7f 0f                	jg     4e74 <safe_rshift_func_uint16_t_u_s+0x2c>
    4e65:	0f b7 55 fc          	movzwl -0x4(%rbp),%edx
    4e69:	8b 45 f8             	mov    -0x8(%rbp),%eax
    4e6c:	89 c1                	mov    %eax,%ecx
    4e6e:	d3 fa                	sar    %cl,%edx
    4e70:	89 d0                	mov    %edx,%eax
    4e72:	eb 04                	jmp    4e78 <safe_rshift_func_uint16_t_u_s+0x30>
    4e74:	0f b7 45 fc          	movzwl -0x4(%rbp),%eax
    4e78:	5d                   	pop    %rbp
    4e79:	c3                   	retq   

0000000000004e7a <safe_rshift_func_uint16_t_u_u>:
    4e7a:	f3 0f 1e fa          	endbr64 
    4e7e:	55                   	push   %rbp
    4e7f:	48 89 e5             	mov    %rsp,%rbp
    4e82:	89 f8                	mov    %edi,%eax
    4e84:	89 75 f8             	mov    %esi,-0x8(%rbp)
    4e87:	66 89 45 fc          	mov    %ax,-0x4(%rbp)
    4e8b:	83 7d f8 1f          	cmpl   $0x1f,-0x8(%rbp)
    4e8f:	77 0f                	ja     4ea0 <safe_rshift_func_uint16_t_u_u+0x26>
    4e91:	0f b7 55 fc          	movzwl -0x4(%rbp),%edx
    4e95:	8b 45 f8             	mov    -0x8(%rbp),%eax
    4e98:	89 c1                	mov    %eax,%ecx
    4e9a:	d3 fa                	sar    %cl,%edx
    4e9c:	89 d0                	mov    %edx,%eax
    4e9e:	eb 04                	jmp    4ea4 <safe_rshift_func_uint16_t_u_u+0x2a>
    4ea0:	0f b7 45 fc          	movzwl -0x4(%rbp),%eax
    4ea4:	5d                   	pop    %rbp
    4ea5:	c3                   	retq   

0000000000004ea6 <safe_unary_minus_func_uint32_t_u>:
    4ea6:	f3 0f 1e fa          	endbr64 
    4eaa:	55                   	push   %rbp
    4eab:	48 89 e5             	mov    %rsp,%rbp
    4eae:	89 7d fc             	mov    %edi,-0x4(%rbp)
    4eb1:	8b 45 fc             	mov    -0x4(%rbp),%eax
    4eb4:	f7 d8                	neg    %eax
    4eb6:	5d                   	pop    %rbp
    4eb7:	c3                   	retq   

0000000000004eb8 <safe_add_func_uint32_t_u_u>:
    4eb8:	f3 0f 1e fa          	endbr64 
    4ebc:	55                   	push   %rbp
    4ebd:	48 89 e5             	mov    %rsp,%rbp
    4ec0:	89 7d fc             	mov    %edi,-0x4(%rbp)
    4ec3:	89 75 f8             	mov    %esi,-0x8(%rbp)
    4ec6:	8b 55 fc             	mov    -0x4(%rbp),%edx
    4ec9:	8b 45 f8             	mov    -0x8(%rbp),%eax
    4ecc:	01 d0                	add    %edx,%eax
    4ece:	5d                   	pop    %rbp
    4ecf:	c3                   	retq   

0000000000004ed0 <safe_sub_func_uint32_t_u_u>:
    4ed0:	f3 0f 1e fa          	endbr64 
    4ed4:	55                   	push   %rbp
    4ed5:	48 89 e5             	mov    %rsp,%rbp
    4ed8:	89 7d fc             	mov    %edi,-0x4(%rbp)
    4edb:	89 75 f8             	mov    %esi,-0x8(%rbp)
    4ede:	8b 45 fc             	mov    -0x4(%rbp),%eax
    4ee1:	2b 45 f8             	sub    -0x8(%rbp),%eax
    4ee4:	5d                   	pop    %rbp
    4ee5:	c3                   	retq   

0000000000004ee6 <safe_mul_func_uint32_t_u_u>:
    4ee6:	f3 0f 1e fa          	endbr64 
    4eea:	55                   	push   %rbp
    4eeb:	48 89 e5             	mov    %rsp,%rbp
    4eee:	89 7d fc             	mov    %edi,-0x4(%rbp)
    4ef1:	89 75 f8             	mov    %esi,-0x8(%rbp)
    4ef4:	8b 45 fc             	mov    -0x4(%rbp),%eax
    4ef7:	0f af 45 f8          	imul   -0x8(%rbp),%eax
    4efb:	5d                   	pop    %rbp
    4efc:	c3                   	retq   

0000000000004efd <safe_mod_func_uint32_t_u_u>:
    4efd:	f3 0f 1e fa          	endbr64 
    4f01:	55                   	push   %rbp
    4f02:	48 89 e5             	mov    %rsp,%rbp
    4f05:	89 7d fc             	mov    %edi,-0x4(%rbp)
    4f08:	89 75 f8             	mov    %esi,-0x8(%rbp)
    4f0b:	83 7d f8 00          	cmpl   $0x0,-0x8(%rbp)
    4f0f:	74 0f                	je     4f20 <safe_mod_func_uint32_t_u_u+0x23>
    4f11:	8b 45 fc             	mov    -0x4(%rbp),%eax
    4f14:	ba 00 00 00 00       	mov    $0x0,%edx
    4f19:	f7 75 f8             	divl   -0x8(%rbp)
    4f1c:	89 d0                	mov    %edx,%eax
    4f1e:	eb 03                	jmp    4f23 <safe_mod_func_uint32_t_u_u+0x26>
    4f20:	8b 45 fc             	mov    -0x4(%rbp),%eax
    4f23:	5d                   	pop    %rbp
    4f24:	c3                   	retq   

0000000000004f25 <safe_div_func_uint32_t_u_u>:
    4f25:	f3 0f 1e fa          	endbr64 
    4f29:	55                   	push   %rbp
    4f2a:	48 89 e5             	mov    %rsp,%rbp
    4f2d:	89 7d fc             	mov    %edi,-0x4(%rbp)
    4f30:	89 75 f8             	mov    %esi,-0x8(%rbp)
    4f33:	83 7d f8 00          	cmpl   $0x0,-0x8(%rbp)
    4f37:	74 0d                	je     4f46 <safe_div_func_uint32_t_u_u+0x21>
    4f39:	8b 45 fc             	mov    -0x4(%rbp),%eax
    4f3c:	ba 00 00 00 00       	mov    $0x0,%edx
    4f41:	f7 75 f8             	divl   -0x8(%rbp)
    4f44:	eb 03                	jmp    4f49 <safe_div_func_uint32_t_u_u+0x24>
    4f46:	8b 45 fc             	mov    -0x4(%rbp),%eax
    4f49:	5d                   	pop    %rbp
    4f4a:	c3                   	retq   

0000000000004f4b <safe_lshift_func_uint32_t_u_s>:
    4f4b:	f3 0f 1e fa          	endbr64 
    4f4f:	55                   	push   %rbp
    4f50:	48 89 e5             	mov    %rsp,%rbp
    4f53:	89 7d fc             	mov    %edi,-0x4(%rbp)
    4f56:	89 75 f8             	mov    %esi,-0x8(%rbp)
    4f59:	83 7d f8 00          	cmpl   $0x0,-0x8(%rbp)
    4f5d:	78 27                	js     4f86 <safe_lshift_func_uint32_t_u_s+0x3b>
    4f5f:	83 7d f8 1f          	cmpl   $0x1f,-0x8(%rbp)
    4f63:	7f 21                	jg     4f86 <safe_lshift_func_uint32_t_u_s+0x3b>
    4f65:	8b 45 f8             	mov    -0x8(%rbp),%eax
    4f68:	ba ff ff ff ff       	mov    $0xffffffff,%edx
    4f6d:	89 c1                	mov    %eax,%ecx
    4f6f:	d3 ea                	shr    %cl,%edx
    4f71:	89 d0                	mov    %edx,%eax
    4f73:	39 45 fc             	cmp    %eax,-0x4(%rbp)
    4f76:	77 0e                	ja     4f86 <safe_lshift_func_uint32_t_u_s+0x3b>
    4f78:	8b 45 f8             	mov    -0x8(%rbp),%eax
    4f7b:	8b 55 fc             	mov    -0x4(%rbp),%edx
    4f7e:	89 c1                	mov    %eax,%ecx
    4f80:	d3 e2                	shl    %cl,%edx
    4f82:	89 d0                	mov    %edx,%eax
    4f84:	eb 03                	jmp    4f89 <safe_lshift_func_uint32_t_u_s+0x3e>
    4f86:	8b 45 fc             	mov    -0x4(%rbp),%eax
    4f89:	5d                   	pop    %rbp
    4f8a:	c3                   	retq   

0000000000004f8b <safe_lshift_func_uint32_t_u_u>:
    4f8b:	f3 0f 1e fa          	endbr64 
    4f8f:	55                   	push   %rbp
    4f90:	48 89 e5             	mov    %rsp,%rbp
    4f93:	89 7d fc             	mov    %edi,-0x4(%rbp)
    4f96:	89 75 f8             	mov    %esi,-0x8(%rbp)
    4f99:	83 7d f8 1f          	cmpl   $0x1f,-0x8(%rbp)
    4f9d:	77 21                	ja     4fc0 <safe_lshift_func_uint32_t_u_u+0x35>
    4f9f:	8b 45 f8             	mov    -0x8(%rbp),%eax
    4fa2:	ba ff ff ff ff       	mov    $0xffffffff,%edx
    4fa7:	89 c1                	mov    %eax,%ecx
    4fa9:	d3 ea                	shr    %cl,%edx
    4fab:	89 d0                	mov    %edx,%eax
    4fad:	39 45 fc             	cmp    %eax,-0x4(%rbp)
    4fb0:	77 0e                	ja     4fc0 <safe_lshift_func_uint32_t_u_u+0x35>
    4fb2:	8b 45 f8             	mov    -0x8(%rbp),%eax
    4fb5:	8b 55 fc             	mov    -0x4(%rbp),%edx
    4fb8:	89 c1                	mov    %eax,%ecx
    4fba:	d3 e2                	shl    %cl,%edx
    4fbc:	89 d0                	mov    %edx,%eax
    4fbe:	eb 03                	jmp    4fc3 <safe_lshift_func_uint32_t_u_u+0x38>
    4fc0:	8b 45 fc             	mov    -0x4(%rbp),%eax
    4fc3:	5d                   	pop    %rbp
    4fc4:	c3                   	retq   

0000000000004fc5 <safe_rshift_func_uint32_t_u_s>:
    4fc5:	f3 0f 1e fa          	endbr64 
    4fc9:	55                   	push   %rbp
    4fca:	48 89 e5             	mov    %rsp,%rbp
    4fcd:	89 7d fc             	mov    %edi,-0x4(%rbp)
    4fd0:	89 75 f8             	mov    %esi,-0x8(%rbp)
    4fd3:	83 7d f8 00          	cmpl   $0x0,-0x8(%rbp)
    4fd7:	78 14                	js     4fed <safe_rshift_func_uint32_t_u_s+0x28>
    4fd9:	83 7d f8 1f          	cmpl   $0x1f,-0x8(%rbp)
    4fdd:	7f 0e                	jg     4fed <safe_rshift_func_uint32_t_u_s+0x28>
    4fdf:	8b 45 f8             	mov    -0x8(%rbp),%eax
    4fe2:	8b 55 fc             	mov    -0x4(%rbp),%edx
    4fe5:	89 c1                	mov    %eax,%ecx
    4fe7:	d3 ea                	shr    %cl,%edx
    4fe9:	89 d0                	mov    %edx,%eax
    4feb:	eb 03                	jmp    4ff0 <safe_rshift_func_uint32_t_u_s+0x2b>
    4fed:	8b 45 fc             	mov    -0x4(%rbp),%eax
    4ff0:	5d                   	pop    %rbp
    4ff1:	c3                   	retq   

0000000000004ff2 <safe_rshift_func_uint32_t_u_u>:
    4ff2:	f3 0f 1e fa          	endbr64 
    4ff6:	55                   	push   %rbp
    4ff7:	48 89 e5             	mov    %rsp,%rbp
    4ffa:	89 7d fc             	mov    %edi,-0x4(%rbp)
    4ffd:	89 75 f8             	mov    %esi,-0x8(%rbp)
    5000:	83 7d f8 1f          	cmpl   $0x1f,-0x8(%rbp)
    5004:	77 0e                	ja     5014 <safe_rshift_func_uint32_t_u_u+0x22>
    5006:	8b 45 f8             	mov    -0x8(%rbp),%eax
    5009:	8b 55 fc             	mov    -0x4(%rbp),%edx
    500c:	89 c1                	mov    %eax,%ecx
    500e:	d3 ea                	shr    %cl,%edx
    5010:	89 d0                	mov    %edx,%eax
    5012:	eb 03                	jmp    5017 <safe_rshift_func_uint32_t_u_u+0x25>
    5014:	8b 45 fc             	mov    -0x4(%rbp),%eax
    5017:	5d                   	pop    %rbp
    5018:	c3                   	retq   

0000000000005019 <safe_unary_minus_func_uint64_t_u>:
    5019:	f3 0f 1e fa          	endbr64 
    501d:	55                   	push   %rbp
    501e:	48 89 e5             	mov    %rsp,%rbp
    5021:	48 89 7d f8          	mov    %rdi,-0x8(%rbp)
    5025:	48 8b 45 f8          	mov    -0x8(%rbp),%rax
    5029:	48 f7 d8             	neg    %rax
    502c:	5d                   	pop    %rbp
    502d:	c3                   	retq   

000000000000502e <safe_add_func_uint64_t_u_u>:
    502e:	f3 0f 1e fa          	endbr64 
    5032:	55                   	push   %rbp
    5033:	48 89 e5             	mov    %rsp,%rbp
    5036:	48 89 7d f8          	mov    %rdi,-0x8(%rbp)
    503a:	48 89 75 f0          	mov    %rsi,-0x10(%rbp)
    503e:	48 8b 55 f8          	mov    -0x8(%rbp),%rdx
    5042:	48 8b 45 f0          	mov    -0x10(%rbp),%rax
    5046:	48 01 d0             	add    %rdx,%rax
    5049:	5d                   	pop    %rbp
    504a:	c3                   	retq   

000000000000504b <safe_sub_func_uint64_t_u_u>:
    504b:	f3 0f 1e fa          	endbr64 
    504f:	55                   	push   %rbp
    5050:	48 89 e5             	mov    %rsp,%rbp
    5053:	48 89 7d f8          	mov    %rdi,-0x8(%rbp)
    5057:	48 89 75 f0          	mov    %rsi,-0x10(%rbp)
    505b:	48 8b 45 f8          	mov    -0x8(%rbp),%rax
    505f:	48 2b 45 f0          	sub    -0x10(%rbp),%rax
    5063:	5d                   	pop    %rbp
    5064:	c3                   	retq   

0000000000005065 <safe_mul_func_uint64_t_u_u>:
    5065:	f3 0f 1e fa          	endbr64 
    5069:	55                   	push   %rbp
    506a:	48 89 e5             	mov    %rsp,%rbp
    506d:	48 89 7d f8          	mov    %rdi,-0x8(%rbp)
    5071:	48 89 75 f0          	mov    %rsi,-0x10(%rbp)
    5075:	48 8b 45 f8          	mov    -0x8(%rbp),%rax
    5079:	48 0f af 45 f0       	imul   -0x10(%rbp),%rax
    507e:	5d                   	pop    %rbp
    507f:	c3                   	retq   

0000000000005080 <safe_mod_func_uint64_t_u_u>:
    5080:	f3 0f 1e fa          	endbr64 
    5084:	55                   	push   %rbp
    5085:	48 89 e5             	mov    %rsp,%rbp
    5088:	48 89 7d f8          	mov    %rdi,-0x8(%rbp)
    508c:	48 89 75 f0          	mov    %rsi,-0x10(%rbp)
    5090:	48 83 7d f0 00       	cmpq   $0x0,-0x10(%rbp)
    5095:	74 12                	je     50a9 <safe_mod_func_uint64_t_u_u+0x29>
    5097:	48 8b 45 f8          	mov    -0x8(%rbp),%rax
    509b:	ba 00 00 00 00       	mov    $0x0,%edx
    50a0:	48 f7 75 f0          	divq   -0x10(%rbp)
    50a4:	48 89 d0             	mov    %rdx,%rax
    50a7:	eb 04                	jmp    50ad <safe_mod_func_uint64_t_u_u+0x2d>
    50a9:	48 8b 45 f8          	mov    -0x8(%rbp),%rax
    50ad:	5d                   	pop    %rbp
    50ae:	c3                   	retq   

00000000000050af <safe_div_func_uint64_t_u_u>:
    50af:	f3 0f 1e fa          	endbr64 
    50b3:	55                   	push   %rbp
    50b4:	48 89 e5             	mov    %rsp,%rbp
    50b7:	48 89 7d f8          	mov    %rdi,-0x8(%rbp)
    50bb:	48 89 75 f0          	mov    %rsi,-0x10(%rbp)
    50bf:	48 83 7d f0 00       	cmpq   $0x0,-0x10(%rbp)
    50c4:	74 0f                	je     50d5 <safe_div_func_uint64_t_u_u+0x26>
    50c6:	48 8b 45 f8          	mov    -0x8(%rbp),%rax
    50ca:	ba 00 00 00 00       	mov    $0x0,%edx
    50cf:	48 f7 75 f0          	divq   -0x10(%rbp)
    50d3:	eb 04                	jmp    50d9 <safe_div_func_uint64_t_u_u+0x2a>
    50d5:	48 8b 45 f8          	mov    -0x8(%rbp),%rax
    50d9:	5d                   	pop    %rbp
    50da:	c3                   	retq   

00000000000050db <safe_lshift_func_uint64_t_u_s>:
    50db:	f3 0f 1e fa          	endbr64 
    50df:	55                   	push   %rbp
    50e0:	48 89 e5             	mov    %rsp,%rbp
    50e3:	48 89 7d f8          	mov    %rdi,-0x8(%rbp)
    50e7:	89 75 f4             	mov    %esi,-0xc(%rbp)
    50ea:	83 7d f4 00          	cmpl   $0x0,-0xc(%rbp)
    50ee:	78 2f                	js     511f <safe_lshift_func_uint64_t_u_s+0x44>
    50f0:	83 7d f4 1f          	cmpl   $0x1f,-0xc(%rbp)
    50f4:	7f 29                	jg     511f <safe_lshift_func_uint64_t_u_s+0x44>
    50f6:	8b 45 f4             	mov    -0xc(%rbp),%eax
    50f9:	48 c7 c2 ff ff ff ff 	mov    $0xffffffffffffffff,%rdx
    5100:	89 c1                	mov    %eax,%ecx
    5102:	48 d3 ea             	shr    %cl,%rdx
    5105:	48 89 d0             	mov    %rdx,%rax
    5108:	48 39 45 f8          	cmp    %rax,-0x8(%rbp)
    510c:	77 11                	ja     511f <safe_lshift_func_uint64_t_u_s+0x44>
    510e:	8b 45 f4             	mov    -0xc(%rbp),%eax
    5111:	48 8b 55 f8          	mov    -0x8(%rbp),%rdx
    5115:	89 c1                	mov    %eax,%ecx
    5117:	48 d3 e2             	shl    %cl,%rdx
    511a:	48 89 d0             	mov    %rdx,%rax
    511d:	eb 04                	jmp    5123 <safe_lshift_func_uint64_t_u_s+0x48>
    511f:	48 8b 45 f8          	mov    -0x8(%rbp),%rax
    5123:	5d                   	pop    %rbp
    5124:	c3                   	retq   

0000000000005125 <safe_lshift_func_uint64_t_u_u>:
    5125:	f3 0f 1e fa          	endbr64 
    5129:	55                   	push   %rbp
    512a:	48 89 e5             	mov    %rsp,%rbp
    512d:	48 89 7d f8          	mov    %rdi,-0x8(%rbp)
    5131:	89 75 f4             	mov    %esi,-0xc(%rbp)
    5134:	83 7d f4 1f          	cmpl   $0x1f,-0xc(%rbp)
    5138:	77 29                	ja     5163 <safe_lshift_func_uint64_t_u_u+0x3e>
    513a:	8b 45 f4             	mov    -0xc(%rbp),%eax
    513d:	48 c7 c2 ff ff ff ff 	mov    $0xffffffffffffffff,%rdx
    5144:	89 c1                	mov    %eax,%ecx
    5146:	48 d3 ea             	shr    %cl,%rdx
    5149:	48 89 d0             	mov    %rdx,%rax
    514c:	48 39 45 f8          	cmp    %rax,-0x8(%rbp)
    5150:	77 11                	ja     5163 <safe_lshift_func_uint64_t_u_u+0x3e>
    5152:	8b 45 f4             	mov    -0xc(%rbp),%eax
    5155:	48 8b 55 f8          	mov    -0x8(%rbp),%rdx
    5159:	89 c1                	mov    %eax,%ecx
    515b:	48 d3 e2             	shl    %cl,%rdx
    515e:	48 89 d0             	mov    %rdx,%rax
    5161:	eb 04                	jmp    5167 <safe_lshift_func_uint64_t_u_u+0x42>
    5163:	48 8b 45 f8          	mov    -0x8(%rbp),%rax
    5167:	5d                   	pop    %rbp
    5168:	c3                   	retq   

0000000000005169 <safe_rshift_func_uint64_t_u_s>:
    5169:	f3 0f 1e fa          	endbr64 
    516d:	55                   	push   %rbp
    516e:	48 89 e5             	mov    %rsp,%rbp
    5171:	48 89 7d f8          	mov    %rdi,-0x8(%rbp)
    5175:	89 75 f4             	mov    %esi,-0xc(%rbp)
    5178:	83 7d f4 00          	cmpl   $0x0,-0xc(%rbp)
    517c:	78 17                	js     5195 <safe_rshift_func_uint64_t_u_s+0x2c>
    517e:	83 7d f4 1f          	cmpl   $0x1f,-0xc(%rbp)
    5182:	7f 11                	jg     5195 <safe_rshift_func_uint64_t_u_s+0x2c>
    5184:	8b 45 f4             	mov    -0xc(%rbp),%eax
    5187:	48 8b 55 f8          	mov    -0x8(%rbp),%rdx
    518b:	89 c1                	mov    %eax,%ecx
    518d:	48 d3 ea             	shr    %cl,%rdx
    5190:	48 89 d0             	mov    %rdx,%rax
    5193:	eb 04                	jmp    5199 <safe_rshift_func_uint64_t_u_s+0x30>
    5195:	48 8b 45 f8          	mov    -0x8(%rbp),%rax
    5199:	5d                   	pop    %rbp
    519a:	c3                   	retq   

000000000000519b <safe_rshift_func_uint64_t_u_u>:
    519b:	f3 0f 1e fa          	endbr64 
    519f:	55                   	push   %rbp
    51a0:	48 89 e5             	mov    %rsp,%rbp
    51a3:	48 89 7d f8          	mov    %rdi,-0x8(%rbp)
    51a7:	89 75 f4             	mov    %esi,-0xc(%rbp)
    51aa:	83 7d f4 1f          	cmpl   $0x1f,-0xc(%rbp)
    51ae:	77 11                	ja     51c1 <safe_rshift_func_uint64_t_u_u+0x26>
    51b0:	8b 45 f4             	mov    -0xc(%rbp),%eax
    51b3:	48 8b 55 f8          	mov    -0x8(%rbp),%rdx
    51b7:	89 c1                	mov    %eax,%ecx
    51b9:	48 d3 ea             	shr    %cl,%rdx
    51bc:	48 89 d0             	mov    %rdx,%rax
    51bf:	eb 04                	jmp    51c5 <safe_rshift_func_uint64_t_u_u+0x2a>
    51c1:	48 8b 45 f8          	mov    -0x8(%rbp),%rax
    51c5:	5d                   	pop    %rbp
    51c6:	c3                   	retq   

00000000000051c7 <safe_add_func_float_f_f>:
    51c7:	f3 0f 1e fa          	endbr64 
    51cb:	55                   	push   %rbp
    51cc:	48 89 e5             	mov    %rsp,%rbp
    51cf:	f3 0f 11 45 fc       	movss  %xmm0,-0x4(%rbp)
    51d4:	f3 0f 11 4d f8       	movss  %xmm1,-0x8(%rbp)
    51d9:	f3 0f 10 4d fc       	movss  -0x4(%rbp),%xmm1
    51de:	f3 0f 10 05 7a 98 00 	movss  0x987a(%rip),%xmm0        # ea60 <l_485.4970+0x10>
    51e5:	00 
    51e6:	f3 0f 59 c8          	mulss  %xmm0,%xmm1
    51ea:	f3 0f 10 55 f8       	movss  -0x8(%rbp),%xmm2
    51ef:	f3 0f 10 05 69 98 00 	movss  0x9869(%rip),%xmm0        # ea60 <l_485.4970+0x10>
    51f6:	00 
    51f7:	f3 0f 59 c2          	mulss  %xmm2,%xmm0
    51fb:	f3 0f 58 c1          	addss  %xmm1,%xmm0
    51ff:	f3 0f 10 0d 69 98 00 	movss  0x9869(%rip),%xmm1        # ea70 <l_485.4970+0x20>
    5206:	00 
    5207:	0f 54 c1             	andps  %xmm1,%xmm0
    520a:	0f 2f 05 6f 98 00 00 	comiss 0x986f(%rip),%xmm0        # ea80 <l_485.4970+0x30>
    5211:	76 07                	jbe    521a <safe_add_func_float_f_f+0x53>
    5213:	f3 0f 10 45 fc       	movss  -0x4(%rbp),%xmm0
    5218:	eb 0a                	jmp    5224 <safe_add_func_float_f_f+0x5d>
    521a:	f3 0f 10 45 fc       	movss  -0x4(%rbp),%xmm0
    521f:	f3 0f 58 45 f8       	addss  -0x8(%rbp),%xmm0
    5224:	5d                   	pop    %rbp
    5225:	c3                   	retq   

0000000000005226 <safe_sub_func_float_f_f>:
    5226:	f3 0f 1e fa          	endbr64 
    522a:	55                   	push   %rbp
    522b:	48 89 e5             	mov    %rsp,%rbp
    522e:	f3 0f 11 45 fc       	movss  %xmm0,-0x4(%rbp)
    5233:	f3 0f 11 4d f8       	movss  %xmm1,-0x8(%rbp)
    5238:	f3 0f 10 4d fc       	movss  -0x4(%rbp),%xmm1
    523d:	f3 0f 10 05 1b 98 00 	movss  0x981b(%rip),%xmm0        # ea60 <l_485.4970+0x10>
    5244:	00 
    5245:	f3 0f 59 c1          	mulss  %xmm1,%xmm0
    5249:	f3 0f 10 55 f8       	movss  -0x8(%rbp),%xmm2
    524e:	f3 0f 10 0d 0a 98 00 	movss  0x980a(%rip),%xmm1        # ea60 <l_485.4970+0x10>
    5255:	00 
    5256:	f3 0f 59 ca          	mulss  %xmm2,%xmm1
    525a:	f3 0f 5c c1          	subss  %xmm1,%xmm0
    525e:	f3 0f 10 0d 0a 98 00 	movss  0x980a(%rip),%xmm1        # ea70 <l_485.4970+0x20>
    5265:	00 
    5266:	0f 54 c1             	andps  %xmm1,%xmm0
    5269:	0f 2f 05 10 98 00 00 	comiss 0x9810(%rip),%xmm0        # ea80 <l_485.4970+0x30>
    5270:	76 07                	jbe    5279 <safe_sub_func_float_f_f+0x53>
    5272:	f3 0f 10 45 fc       	movss  -0x4(%rbp),%xmm0
    5277:	eb 0a                	jmp    5283 <safe_sub_func_float_f_f+0x5d>
    5279:	f3 0f 10 45 fc       	movss  -0x4(%rbp),%xmm0
    527e:	f3 0f 5c 45 f8       	subss  -0x8(%rbp),%xmm0
    5283:	5d                   	pop    %rbp
    5284:	c3                   	retq   

0000000000005285 <safe_mul_func_float_f_f>:
    5285:	f3 0f 1e fa          	endbr64 
    5289:	55                   	push   %rbp
    528a:	48 89 e5             	mov    %rsp,%rbp
    528d:	f3 0f 11 45 fc       	movss  %xmm0,-0x4(%rbp)
    5292:	f3 0f 11 4d f8       	movss  %xmm1,-0x8(%rbp)
    5297:	f3 0f 10 4d fc       	movss  -0x4(%rbp),%xmm1
    529c:	f3 0f 10 05 e0 97 00 	movss  0x97e0(%rip),%xmm0        # ea84 <l_485.4970+0x34>
    52a3:	00 
    52a4:	f3 0f 59 c8          	mulss  %xmm0,%xmm1
    52a8:	f3 0f 10 55 f8       	movss  -0x8(%rbp),%xmm2
    52ad:	f3 0f 10 05 d3 97 00 	movss  0x97d3(%rip),%xmm0        # ea88 <l_485.4970+0x38>
    52b4:	00 
    52b5:	f3 0f 59 c2          	mulss  %xmm2,%xmm0
    52b9:	f3 0f 59 c1          	mulss  %xmm1,%xmm0
    52bd:	f3 0f 10 0d ab 97 00 	movss  0x97ab(%rip),%xmm1        # ea70 <l_485.4970+0x20>
    52c4:	00 
    52c5:	0f 54 c1             	andps  %xmm1,%xmm0
    52c8:	0f 2f 05 bd 97 00 00 	comiss 0x97bd(%rip),%xmm0        # ea8c <l_485.4970+0x3c>
    52cf:	76 07                	jbe    52d8 <safe_mul_func_float_f_f+0x53>
    52d1:	f3 0f 10 45 fc       	movss  -0x4(%rbp),%xmm0
    52d6:	eb 0a                	jmp    52e2 <safe_mul_func_float_f_f+0x5d>
    52d8:	f3 0f 10 45 fc       	movss  -0x4(%rbp),%xmm0
    52dd:	f3 0f 59 45 f8       	mulss  -0x8(%rbp),%xmm0
    52e2:	5d                   	pop    %rbp
    52e3:	c3                   	retq   

00000000000052e4 <safe_div_func_float_f_f>:
    52e4:	f3 0f 1e fa          	endbr64 
    52e8:	55                   	push   %rbp
    52e9:	48 89 e5             	mov    %rsp,%rbp
    52ec:	f3 0f 11 45 fc       	movss  %xmm0,-0x4(%rbp)
    52f1:	f3 0f 11 4d f8       	movss  %xmm1,-0x8(%rbp)
    52f6:	f3 0f 10 45 f8       	movss  -0x8(%rbp),%xmm0
    52fb:	f3 0f 10 0d 6d 97 00 	movss  0x976d(%rip),%xmm1        # ea70 <l_485.4970+0x20>
    5302:	00 
    5303:	0f 54 c8             	andps  %xmm0,%xmm1
    5306:	f3 0f 10 05 82 97 00 	movss  0x9782(%rip),%xmm0        # ea90 <l_485.4970+0x40>
    530d:	00 
    530e:	0f 2f c1             	comiss %xmm1,%xmm0
    5311:	0f 97 c0             	seta   %al
    5314:	83 f0 01             	xor    $0x1,%eax
    5317:	84 c0                	test   %al,%al
    5319:	75 56                	jne    5371 <safe_div_func_float_f_f+0x8d>
    531b:	66 0f ef c0          	pxor   %xmm0,%xmm0
    531f:	0f 2e 45 f8          	ucomiss -0x8(%rbp),%xmm0
    5323:	7a 0a                	jp     532f <safe_div_func_float_f_f+0x4b>
    5325:	66 0f ef c0          	pxor   %xmm0,%xmm0
    5329:	0f 2e 45 f8          	ucomiss -0x8(%rbp),%xmm0
    532d:	74 4e                	je     537d <safe_div_func_float_f_f+0x99>
    532f:	f3 0f 10 4d fc       	movss  -0x4(%rbp),%xmm1
    5334:	f3 0f 10 05 58 97 00 	movss  0x9758(%rip),%xmm0        # ea94 <l_485.4970+0x44>
    533b:	00 
    533c:	f3 0f 59 c1          	mulss  %xmm1,%xmm0
    5340:	f3 0f 10 55 f8       	movss  -0x8(%rbp),%xmm2
    5345:	f3 0f 10 0d 4b 97 00 	movss  0x974b(%rip),%xmm1        # ea98 <l_485.4970+0x48>
    534c:	00 
    534d:	f3 0f 59 ca          	mulss  %xmm2,%xmm1
    5351:	f3 0f 5e c1          	divss  %xmm1,%xmm0
    5355:	f3 0f 10 0d 13 97 00 	movss  0x9713(%rip),%xmm1        # ea70 <l_485.4970+0x20>
    535c:	00 
    535d:	0f 54 c1             	andps  %xmm1,%xmm0
    5360:	0f 2f 05 35 97 00 00 	comiss 0x9735(%rip),%xmm0        # ea9c <l_485.4970+0x4c>
    5367:	0f 97 c0             	seta   %al
    536a:	83 f0 01             	xor    $0x1,%eax
    536d:	84 c0                	test   %al,%al
    536f:	74 0c                	je     537d <safe_div_func_float_f_f+0x99>
    5371:	f3 0f 10 45 fc       	movss  -0x4(%rbp),%xmm0
    5376:	f3 0f 5e 45 f8       	divss  -0x8(%rbp),%xmm0
    537b:	eb 05                	jmp    5382 <safe_div_func_float_f_f+0x9e>
    537d:	f3 0f 10 45 fc       	movss  -0x4(%rbp),%xmm0
    5382:	5d                   	pop    %rbp
    5383:	c3                   	retq   

0000000000005384 <safe_add_func_double_f_f>:
    5384:	f3 0f 1e fa          	endbr64 
    5388:	55                   	push   %rbp
    5389:	48 89 e5             	mov    %rsp,%rbp
    538c:	f2 0f 11 45 f8       	movsd  %xmm0,-0x8(%rbp)
    5391:	f2 0f 11 4d f0       	movsd  %xmm1,-0x10(%rbp)
    5396:	f2 0f 10 4d f8       	movsd  -0x8(%rbp),%xmm1
    539b:	f2 0f 10 05 fd 96 00 	movsd  0x96fd(%rip),%xmm0        # eaa0 <l_485.4970+0x50>
    53a2:	00 
    53a3:	f2 0f 59 c8          	mulsd  %xmm0,%xmm1
    53a7:	f2 0f 10 55 f0       	movsd  -0x10(%rbp),%xmm2
    53ac:	f2 0f 10 05 ec 96 00 	movsd  0x96ec(%rip),%xmm0        # eaa0 <l_485.4970+0x50>
    53b3:	00 
    53b4:	f2 0f 59 c2          	mulsd  %xmm2,%xmm0
    53b8:	f2 0f 58 c1          	addsd  %xmm1,%xmm0
    53bc:	f3 0f 7e 0d ec 96 00 	movq   0x96ec(%rip),%xmm1        # eab0 <l_485.4970+0x60>
    53c3:	00 
    53c4:	66 0f 54 c1          	andpd  %xmm1,%xmm0
    53c8:	66 0f 2f 05 f0 96 00 	comisd 0x96f0(%rip),%xmm0        # eac0 <l_485.4970+0x70>
    53cf:	00 
    53d0:	76 07                	jbe    53d9 <safe_add_func_double_f_f+0x55>
    53d2:	f2 0f 10 45 f8       	movsd  -0x8(%rbp),%xmm0
    53d7:	eb 0a                	jmp    53e3 <safe_add_func_double_f_f+0x5f>
    53d9:	f2 0f 10 45 f8       	movsd  -0x8(%rbp),%xmm0
    53de:	f2 0f 58 45 f0       	addsd  -0x10(%rbp),%xmm0
    53e3:	5d                   	pop    %rbp
    53e4:	c3                   	retq   

00000000000053e5 <safe_sub_func_double_f_f>:
    53e5:	f3 0f 1e fa          	endbr64 
    53e9:	55                   	push   %rbp
    53ea:	48 89 e5             	mov    %rsp,%rbp
    53ed:	f2 0f 11 45 f8       	movsd  %xmm0,-0x8(%rbp)
    53f2:	f2 0f 11 4d f0       	movsd  %xmm1,-0x10(%rbp)
    53f7:	f2 0f 10 4d f8       	movsd  -0x8(%rbp),%xmm1
    53fc:	f2 0f 10 05 9c 96 00 	movsd  0x969c(%rip),%xmm0        # eaa0 <l_485.4970+0x50>
    5403:	00 
    5404:	f2 0f 59 c1          	mulsd  %xmm1,%xmm0
    5408:	f2 0f 10 55 f0       	movsd  -0x10(%rbp),%xmm2
    540d:	f2 0f 10 0d 8b 96 00 	movsd  0x968b(%rip),%xmm1        # eaa0 <l_485.4970+0x50>
    5414:	00 
    5415:	f2 0f 59 ca          	mulsd  %xmm2,%xmm1
    5419:	f2 0f 5c c1          	subsd  %xmm1,%xmm0
    541d:	f3 0f 7e 0d 8b 96 00 	movq   0x968b(%rip),%xmm1        # eab0 <l_485.4970+0x60>
    5424:	00 
    5425:	66 0f 54 c1          	andpd  %xmm1,%xmm0
    5429:	66 0f 2f 05 8f 96 00 	comisd 0x968f(%rip),%xmm0        # eac0 <l_485.4970+0x70>
    5430:	00 
    5431:	76 07                	jbe    543a <safe_sub_func_double_f_f+0x55>
    5433:	f2 0f 10 45 f8       	movsd  -0x8(%rbp),%xmm0
    5438:	eb 0a                	jmp    5444 <safe_sub_func_double_f_f+0x5f>
    543a:	f2 0f 10 45 f8       	movsd  -0x8(%rbp),%xmm0
    543f:	f2 0f 5c 45 f0       	subsd  -0x10(%rbp),%xmm0
    5444:	5d                   	pop    %rbp
    5445:	c3                   	retq   

0000000000005446 <safe_mul_func_double_f_f>:
    5446:	f3 0f 1e fa          	endbr64 
    544a:	55                   	push   %rbp
    544b:	48 89 e5             	mov    %rsp,%rbp
    544e:	f2 0f 11 45 f8       	movsd  %xmm0,-0x8(%rbp)
    5453:	f2 0f 11 4d f0       	movsd  %xmm1,-0x10(%rbp)
    5458:	f2 0f 10 4d f8       	movsd  -0x8(%rbp),%xmm1
    545d:	f2 0f 10 05 63 96 00 	movsd  0x9663(%rip),%xmm0        # eac8 <l_485.4970+0x78>
    5464:	00 
    5465:	f2 0f 59 c8          	mulsd  %xmm0,%xmm1
    5469:	f2 0f 10 55 f0       	movsd  -0x10(%rbp),%xmm2
    546e:	f2 0f 10 05 5a 96 00 	movsd  0x965a(%rip),%xmm0        # ead0 <l_485.4970+0x80>
    5475:	00 
    5476:	f2 0f 59 c2          	mulsd  %xmm2,%xmm0
    547a:	f2 0f 59 c1          	mulsd  %xmm1,%xmm0
    547e:	f3 0f 7e 0d 2a 96 00 	movq   0x962a(%rip),%xmm1        # eab0 <l_485.4970+0x60>
    5485:	00 
    5486:	66 0f 54 c1          	andpd  %xmm1,%xmm0
    548a:	66 0f 2f 05 46 96 00 	comisd 0x9646(%rip),%xmm0        # ead8 <l_485.4970+0x88>
    5491:	00 
    5492:	76 07                	jbe    549b <safe_mul_func_double_f_f+0x55>
    5494:	f2 0f 10 45 f8       	movsd  -0x8(%rbp),%xmm0
    5499:	eb 0a                	jmp    54a5 <safe_mul_func_double_f_f+0x5f>
    549b:	f2 0f 10 45 f8       	movsd  -0x8(%rbp),%xmm0
    54a0:	f2 0f 59 45 f0       	mulsd  -0x10(%rbp),%xmm0
    54a5:	5d                   	pop    %rbp
    54a6:	c3                   	retq   

00000000000054a7 <safe_div_func_double_f_f>:
    54a7:	f3 0f 1e fa          	endbr64 
    54ab:	55                   	push   %rbp
    54ac:	48 89 e5             	mov    %rsp,%rbp
    54af:	f2 0f 11 45 f8       	movsd  %xmm0,-0x8(%rbp)
    54b4:	f2 0f 11 4d f0       	movsd  %xmm1,-0x10(%rbp)
    54b9:	f2 0f 10 45 f0       	movsd  -0x10(%rbp),%xmm0
    54be:	f3 0f 7e 0d ea 95 00 	movq   0x95ea(%rip),%xmm1        # eab0 <l_485.4970+0x60>
    54c5:	00 
    54c6:	66 0f 54 c8          	andpd  %xmm0,%xmm1
    54ca:	f2 0f 10 05 0e 96 00 	movsd  0x960e(%rip),%xmm0        # eae0 <l_485.4970+0x90>
    54d1:	00 
    54d2:	66 0f 2f c1          	comisd %xmm1,%xmm0
    54d6:	0f 97 c0             	seta   %al
    54d9:	83 f0 01             	xor    $0x1,%eax
    54dc:	84 c0                	test   %al,%al
    54de:	75 5a                	jne    553a <safe_div_func_double_f_f+0x93>
    54e0:	66 0f ef c0          	pxor   %xmm0,%xmm0
    54e4:	66 0f 2e 45 f0       	ucomisd -0x10(%rbp),%xmm0
    54e9:	7a 0b                	jp     54f6 <safe_div_func_double_f_f+0x4f>
    54eb:	66 0f ef c0          	pxor   %xmm0,%xmm0
    54ef:	66 0f 2e 45 f0       	ucomisd -0x10(%rbp),%xmm0
    54f4:	74 50                	je     5546 <safe_div_func_double_f_f+0x9f>
    54f6:	f2 0f 10 4d f8       	movsd  -0x8(%rbp),%xmm1
    54fb:	f2 0f 10 05 e5 95 00 	movsd  0x95e5(%rip),%xmm0        # eae8 <l_485.4970+0x98>
    5502:	00 
    5503:	f2 0f 59 c1          	mulsd  %xmm1,%xmm0
    5507:	f2 0f 10 55 f0       	movsd  -0x10(%rbp),%xmm2
    550c:	f2 0f 10 0d dc 95 00 	movsd  0x95dc(%rip),%xmm1        # eaf0 <l_485.4970+0xa0>
    5513:	00 
    5514:	f2 0f 59 ca          	mulsd  %xmm2,%xmm1
    5518:	f2 0f 5e c1          	divsd  %xmm1,%xmm0
    551c:	f3 0f 7e 0d 8c 95 00 	movq   0x958c(%rip),%xmm1        # eab0 <l_485.4970+0x60>
    5523:	00 
    5524:	66 0f 54 c1          	andpd  %xmm1,%xmm0
    5528:	66 0f 2f 05 c8 95 00 	comisd 0x95c8(%rip),%xmm0        # eaf8 <l_485.4970+0xa8>
    552f:	00 
    5530:	0f 97 c0             	seta   %al
    5533:	83 f0 01             	xor    $0x1,%eax
    5536:	84 c0                	test   %al,%al
    5538:	74 0c                	je     5546 <safe_div_func_double_f_f+0x9f>
    553a:	f2 0f 10 45 f8       	movsd  -0x8(%rbp),%xmm0
    553f:	f2 0f 5e 45 f0       	divsd  -0x10(%rbp),%xmm0
    5544:	eb 05                	jmp    554b <safe_div_func_double_f_f+0xa4>
    5546:	f2 0f 10 45 f8       	movsd  -0x8(%rbp),%xmm0
    554b:	5d                   	pop    %rbp
    554c:	c3                   	retq   

000000000000554d <safe_convert_func_float_to_int32_t>:
    554d:	f3 0f 1e fa          	endbr64 
    5551:	55                   	push   %rbp
    5552:	48 89 e5             	mov    %rsp,%rbp
    5555:	f3 0f 11 45 fc       	movss  %xmm0,-0x4(%rbp)
    555a:	f3 0f 10 05 9e 95 00 	movss  0x959e(%rip),%xmm0        # eb00 <l_485.4970+0xb0>
    5561:	00 
    5562:	0f 2f 45 fc          	comiss -0x4(%rbp),%xmm0
    5566:	0f 93 c0             	setae  %al
    5569:	83 f0 01             	xor    $0x1,%eax
    556c:	84 c0                	test   %al,%al
    556e:	74 21                	je     5591 <safe_convert_func_float_to_int32_t+0x44>
    5570:	f3 0f 10 45 fc       	movss  -0x4(%rbp),%xmm0
    5575:	0f 2f 05 88 95 00 00 	comiss 0x9588(%rip),%xmm0        # eb04 <l_485.4970+0xb4>
    557c:	0f 93 c0             	setae  %al
    557f:	83 f0 01             	xor    $0x1,%eax
    5582:	84 c0                	test   %al,%al
    5584:	74 0b                	je     5591 <safe_convert_func_float_to_int32_t+0x44>
    5586:	f3 0f 10 45 fc       	movss  -0x4(%rbp),%xmm0
    558b:	f3 0f 2c c0          	cvttss2si %xmm0,%eax
    558f:	eb 05                	jmp    5596 <safe_convert_func_float_to_int32_t+0x49>
    5591:	b8 ff ff ff 7f       	mov    $0x7fffffff,%eax
    5596:	5d                   	pop    %rbp
    5597:	c3                   	retq   

0000000000005598 <crc32_gentab>:
    5598:	f3 0f 1e fa          	endbr64 
    559c:	55                   	push   %rbp
    559d:	48 89 e5             	mov    %rsp,%rbp
    55a0:	c7 45 fc 20 83 b8 ed 	movl   $0xedb88320,-0x4(%rbp)
    55a7:	c7 45 f4 00 00 00 00 	movl   $0x0,-0xc(%rbp)
    55ae:	eb 51                	jmp    5601 <crc32_gentab+0x69>
    55b0:	8b 45 f4             	mov    -0xc(%rbp),%eax
    55b3:	89 45 f0             	mov    %eax,-0x10(%rbp)
    55b6:	c7 45 f8 08 00 00 00 	movl   $0x8,-0x8(%rbp)
    55bd:	eb 1e                	jmp    55dd <crc32_gentab+0x45>
    55bf:	8b 45 f0             	mov    -0x10(%rbp),%eax
    55c2:	83 e0 01             	and    $0x1,%eax
    55c5:	85 c0                	test   %eax,%eax
    55c7:	74 0d                	je     55d6 <crc32_gentab+0x3e>
    55c9:	8b 45 f0             	mov    -0x10(%rbp),%eax
    55cc:	d1 e8                	shr    %eax
    55ce:	33 45 fc             	xor    -0x4(%rbp),%eax
    55d1:	89 45 f0             	mov    %eax,-0x10(%rbp)
    55d4:	eb 03                	jmp    55d9 <crc32_gentab+0x41>
    55d6:	d1 6d f0             	shrl   -0x10(%rbp)
    55d9:	83 6d f8 01          	subl   $0x1,-0x8(%rbp)
    55dd:	83 7d f8 00          	cmpl   $0x0,-0x8(%rbp)
    55e1:	7f dc                	jg     55bf <crc32_gentab+0x27>
    55e3:	8b 45 f4             	mov    -0xc(%rbp),%eax
    55e6:	48 98                	cltq   
    55e8:	48 8d 0c 85 00 00 00 	lea    0x0(,%rax,4),%rcx
    55ef:	00 
    55f0:	48 8d 15 69 da 00 00 	lea    0xda69(%rip),%rdx        # 13060 <crc32_tab>
    55f7:	8b 45 f0             	mov    -0x10(%rbp),%eax
    55fa:	89 04 11             	mov    %eax,(%rcx,%rdx,1)
    55fd:	83 45 f4 01          	addl   $0x1,-0xc(%rbp)
    5601:	81 7d f4 ff 00 00 00 	cmpl   $0xff,-0xc(%rbp)
    5608:	7e a6                	jle    55b0 <crc32_gentab+0x18>
    560a:	90                   	nop
    560b:	90                   	nop
    560c:	5d                   	pop    %rbp
    560d:	c3                   	retq   

000000000000560e <crc32_byte>:
    560e:	f3 0f 1e fa          	endbr64 
    5612:	55                   	push   %rbp
    5613:	48 89 e5             	mov    %rsp,%rbp
    5616:	89 f8                	mov    %edi,%eax
    5618:	88 45 fc             	mov    %al,-0x4(%rbp)
    561b:	8b 05 ff b9 00 00    	mov    0xb9ff(%rip),%eax        # 11020 <crc32_context>
    5621:	c1 e8 08             	shr    $0x8,%eax
    5624:	89 c1                	mov    %eax,%ecx
    5626:	0f b6 55 fc          	movzbl -0x4(%rbp),%edx
    562a:	8b 05 f0 b9 00 00    	mov    0xb9f0(%rip),%eax        # 11020 <crc32_context>
    5630:	31 d0                	xor    %edx,%eax
    5632:	0f b6 c0             	movzbl %al,%eax
    5635:	89 c0                	mov    %eax,%eax
    5637:	48 8d 14 85 00 00 00 	lea    0x0(,%rax,4),%rdx
    563e:	00 
    563f:	48 8d 05 1a da 00 00 	lea    0xda1a(%rip),%rax        # 13060 <crc32_tab>
    5646:	8b 04 02             	mov    (%rdx,%rax,1),%eax
    5649:	31 c8                	xor    %ecx,%eax
    564b:	89 05 cf b9 00 00    	mov    %eax,0xb9cf(%rip)        # 11020 <crc32_context>
    5651:	90                   	nop
    5652:	5d                   	pop    %rbp
    5653:	c3                   	retq   

0000000000005654 <crc32_8bytes>:
    5654:	f3 0f 1e fa          	endbr64 
    5658:	55                   	push   %rbp
    5659:	48 89 e5             	mov    %rsp,%rbp
    565c:	48 83 ec 08          	sub    $0x8,%rsp
    5660:	48 89 7d f8          	mov    %rdi,-0x8(%rbp)
    5664:	48 8b 45 f8          	mov    -0x8(%rbp),%rax
    5668:	0f b6 c0             	movzbl %al,%eax
    566b:	89 c7                	mov    %eax,%edi
    566d:	e8 9c ff ff ff       	callq  560e <crc32_byte>
    5672:	48 8b 45 f8          	mov    -0x8(%rbp),%rax
    5676:	48 c1 e8 08          	shr    $0x8,%rax
    567a:	0f b6 c0             	movzbl %al,%eax
    567d:	89 c7                	mov    %eax,%edi
    567f:	e8 8a ff ff ff       	callq  560e <crc32_byte>
    5684:	48 8b 45 f8          	mov    -0x8(%rbp),%rax
    5688:	48 c1 e8 10          	shr    $0x10,%rax
    568c:	0f b6 c0             	movzbl %al,%eax
    568f:	89 c7                	mov    %eax,%edi
    5691:	e8 78 ff ff ff       	callq  560e <crc32_byte>
    5696:	48 8b 45 f8          	mov    -0x8(%rbp),%rax
    569a:	48 c1 e8 18          	shr    $0x18,%rax
    569e:	0f b6 c0             	movzbl %al,%eax
    56a1:	89 c7                	mov    %eax,%edi
    56a3:	e8 66 ff ff ff       	callq  560e <crc32_byte>
    56a8:	48 8b 45 f8          	mov    -0x8(%rbp),%rax
    56ac:	48 c1 e8 20          	shr    $0x20,%rax
    56b0:	0f b6 c0             	movzbl %al,%eax
    56b3:	89 c7                	mov    %eax,%edi
    56b5:	e8 54 ff ff ff       	callq  560e <crc32_byte>
    56ba:	48 8b 45 f8          	mov    -0x8(%rbp),%rax
    56be:	48 c1 e8 28          	shr    $0x28,%rax
    56c2:	0f b6 c0             	movzbl %al,%eax
    56c5:	89 c7                	mov    %eax,%edi
    56c7:	e8 42 ff ff ff       	callq  560e <crc32_byte>
    56cc:	48 8b 45 f8          	mov    -0x8(%rbp),%rax
    56d0:	48 c1 e8 30          	shr    $0x30,%rax
    56d4:	0f b6 c0             	movzbl %al,%eax
    56d7:	89 c7                	mov    %eax,%edi
    56d9:	e8 30 ff ff ff       	callq  560e <crc32_byte>
    56de:	48 8b 45 f8          	mov    -0x8(%rbp),%rax
    56e2:	48 c1 e8 38          	shr    $0x38,%rax
    56e6:	0f b6 c0             	movzbl %al,%eax
    56e9:	89 c7                	mov    %eax,%edi
    56eb:	e8 1e ff ff ff       	callq  560e <crc32_byte>
    56f0:	90                   	nop
    56f1:	c9                   	leaveq 
    56f2:	c3                   	retq   

00000000000056f3 <transparent_crc>:
    56f3:	f3 0f 1e fa          	endbr64 
    56f7:	55                   	push   %rbp
    56f8:	48 89 e5             	mov    %rsp,%rbp
    56fb:	48 83 ec 20          	sub    $0x20,%rsp
    56ff:	48 89 7d f8          	mov    %rdi,-0x8(%rbp)
    5703:	48 89 75 f0          	mov    %rsi,-0x10(%rbp)
    5707:	89 55 ec             	mov    %edx,-0x14(%rbp)
    570a:	48 8b 45 f8          	mov    -0x8(%rbp),%rax
    570e:	48 89 c7             	mov    %rax,%rdi
    5711:	e8 3e ff ff ff       	callq  5654 <crc32_8bytes>
    5716:	83 7d ec 00          	cmpl   $0x0,-0x14(%rbp)
    571a:	74 22                	je     573e <transparent_crc+0x4b>
    571c:	8b 05 fe b8 00 00    	mov    0xb8fe(%rip),%eax        # 11020 <crc32_context>
    5722:	f7 d0                	not    %eax
    5724:	89 c2                	mov    %eax,%edx
    5726:	48 8b 45 f0          	mov    -0x10(%rbp),%rax
    572a:	48 89 c6             	mov    %rax,%rsi
    572d:	48 8d 3d fc 88 00 00 	lea    0x88fc(%rip),%rdi        # e030 <_IO_stdin_used+0x30>
    5734:	b8 00 00 00 00       	mov    $0x0,%eax
    5739:	e8 42 e9 ff ff       	callq  4080 <printf@plt>
    573e:	90                   	nop
    573f:	c9                   	leaveq 
    5740:	c3                   	retq   

0000000000005741 <transparent_crc_bytes>:
    5741:	f3 0f 1e fa          	endbr64 
    5745:	55                   	push   %rbp
    5746:	48 89 e5             	mov    %rsp,%rbp
    5749:	48 83 ec 30          	sub    $0x30,%rsp
    574d:	48 89 7d e8          	mov    %rdi,-0x18(%rbp)
    5751:	89 75 e4             	mov    %esi,-0x1c(%rbp)
    5754:	48 89 55 d8          	mov    %rdx,-0x28(%rbp)
    5758:	89 4d e0             	mov    %ecx,-0x20(%rbp)
    575b:	c7 45 fc 00 00 00 00 	movl   $0x0,-0x4(%rbp)
    5762:	eb 1e                	jmp    5782 <transparent_crc_bytes+0x41>
    5764:	8b 45 fc             	mov    -0x4(%rbp),%eax
    5767:	48 63 d0             	movslq %eax,%rdx
    576a:	48 8b 45 e8          	mov    -0x18(%rbp),%rax
    576e:	48 01 d0             	add    %rdx,%rax
    5771:	0f b6 00             	movzbl (%rax),%eax
    5774:	0f b6 c0             	movzbl %al,%eax
    5777:	89 c7                	mov    %eax,%edi
    5779:	e8 90 fe ff ff       	callq  560e <crc32_byte>
    577e:	83 45 fc 01          	addl   $0x1,-0x4(%rbp)
    5782:	8b 45 fc             	mov    -0x4(%rbp),%eax
    5785:	3b 45 e4             	cmp    -0x1c(%rbp),%eax
    5788:	7c da                	jl     5764 <transparent_crc_bytes+0x23>
    578a:	83 7d e0 00          	cmpl   $0x0,-0x20(%rbp)
    578e:	74 22                	je     57b2 <transparent_crc_bytes+0x71>
    5790:	8b 05 8a b8 00 00    	mov    0xb88a(%rip),%eax        # 11020 <crc32_context>
    5796:	f7 d0                	not    %eax
    5798:	89 c2                	mov    %eax,%edx
    579a:	48 8b 45 d8          	mov    -0x28(%rbp),%rax
    579e:	48 89 c6             	mov    %rax,%rsi
    57a1:	48 8d 3d 88 88 00 00 	lea    0x8888(%rip),%rdi        # e030 <_IO_stdin_used+0x30>
    57a8:	b8 00 00 00 00       	mov    $0x0,%eax
    57ad:	e8 ce e8 ff ff       	callq  4080 <printf@plt>
    57b2:	90                   	nop
    57b3:	c9                   	leaveq 
    57b4:	c3                   	retq   

00000000000057b5 <func_1>:
    57b5:	f3 0f 1e fa          	endbr64 
    57b9:	55                   	push   %rbp
    57ba:	48 89 e5             	mov    %rsp,%rbp
    57bd:	41 57                	push   %r15
    57bf:	41 56                	push   %r14
    57c1:	41 55                	push   %r13
    57c3:	41 54                	push   %r12
    57c5:	53                   	push   %rbx
    57c6:	48 81 ec 78 02 00 00 	sub    $0x278,%rsp
    57cd:	64 48 8b 04 25 28 00 	mov    %fs:0x28,%rax
    57d4:	00 00 
    57d6:	48 89 45 c8          	mov    %rax,-0x38(%rbp)
    57da:	31 c0                	xor    %eax,%eax
    57dc:	c7 85 98 fd ff ff ff 	movl   $0xffffffff,-0x268(%rbp)
    57e3:	ff ff ff 
    57e6:	c7 85 90 fd ff ff 00 	movl   $0x0,-0x270(%rbp)
    57ed:	00 00 00 
    57f0:	66 c7 85 90 fd ff ff 	movw   $0xfff7,-0x270(%rbp)
    57f7:	f7 ff 
    57f9:	48 c7 85 a8 fd ff ff 	movq   $0x0,-0x258(%rbp)
    5800:	00 00 00 00 
    5804:	66 c7 85 c2 fd ff ff 	movw   $0x8,-0x23e(%rbp)
    580b:	08 00 
    580d:	66 c7 85 c4 fd ff ff 	movw   $0x8,-0x23c(%rbp)
    5814:	08 00 
    5816:	66 c7 85 c6 fd ff ff 	movw   $0x8,-0x23a(%rbp)
    581d:	08 00 
    581f:	66 c7 85 c8 fd ff ff 	movw   $0x8,-0x238(%rbp)
    5826:	08 00 
    5828:	66 c7 85 ca fd ff ff 	movw   $0x8,-0x236(%rbp)
    582f:	08 00 
    5831:	66 c7 85 cc fd ff ff 	movw   $0x8,-0x234(%rbp)
    5838:	08 00 
    583a:	66 c7 85 ce fd ff ff 	movw   $0x8,-0x232(%rbp)
    5841:	08 00 
    5843:	66 c7 85 8c fd ff ff 	movw   $0x8f37,-0x274(%rbp)
    584a:	37 8f 
    584c:	c7 85 d0 fd ff ff 05 	movl   $0x5,-0x230(%rbp)
    5853:	00 00 00 
    5856:	c7 85 d4 fd ff ff 01 	movl   $0x1,-0x22c(%rbp)
    585d:	00 00 00 
    5860:	c7 85 d8 fd ff ff 05 	movl   $0x5,-0x228(%rbp)
    5867:	00 00 00 
    586a:	c7 85 dc fd ff ff 01 	movl   $0x1,-0x224(%rbp)
    5871:	00 00 00 
    5874:	c7 85 e0 fd ff ff 05 	movl   $0x5,-0x220(%rbp)
    587b:	00 00 00 
    587e:	c7 85 e4 fd ff ff 01 	movl   $0x1,-0x21c(%rbp)
    5885:	00 00 00 
    5888:	c7 85 e8 fd ff ff 05 	movl   $0x5,-0x218(%rbp)
    588f:	00 00 00 
    5892:	c7 85 ec fd ff ff 01 	movl   $0x1,-0x214(%rbp)
    5899:	00 00 00 
    589c:	c6 85 8b fd ff ff 01 	movb   $0x1,-0x275(%rbp)
    58a3:	48 8d 85 30 fe ff ff 	lea    -0x1d0(%rbp),%rax
    58aa:	48 8d 15 2f be 00 00 	lea    0xbe2f(%rip),%rdx        # 116e0 <g_1180+0x18>
    58b1:	b9 32 00 00 00       	mov    $0x32,%ecx
    58b6:	48 89 c7             	mov    %rax,%rdi
    58b9:	48 89 d6             	mov    %rdx,%rsi
    58bc:	f3 48 a5             	rep movsq %ds:(%rsi),%es:(%rdi)
    58bf:	c7 85 9c fd ff ff 08 	movl   $0x8,-0x264(%rbp)
    58c6:	00 00 00 
    58c9:	c7 85 a0 fd ff ff 5e 	movl   $0xc04b3c5e,-0x260(%rbp)
    58d0:	3c 4b c0 
    58d3:	c7 85 a4 fd ff ff 85 	movl   $0xfd9f5285,-0x25c(%rbp)
    58da:	52 9f fd 
    58dd:	66 c7 85 b8 fd ff ff 	movw   $0xfff8,-0x248(%rbp)
    58e4:	f8 ff 
    58e6:	66 c7 85 ba fd ff ff 	movw   $0xfff8,-0x246(%rbp)
    58ed:	f8 ff 
    58ef:	66 c7 85 bc fd ff ff 	movw   $0xfff8,-0x244(%rbp)
    58f6:	f8 ff 
    58f8:	66 c7 85 be fd ff ff 	movw   $0xfff8,-0x242(%rbp)
    58ff:	f8 ff 
    5901:	66 c7 85 c0 fd ff ff 	movw   $0xfff8,-0x240(%rbp)
    5908:	f8 ff 
    590a:	66 c7 85 8e fd ff ff 	movw   $0x2,-0x272(%rbp)
    5911:	02 00 
    5913:	c7 85 94 fd ff ff 00 	movl   $0x0,-0x26c(%rbp)
    591a:	00 00 00 
    591d:	eb 1e                	jmp    593d <func_1+0x188>
    591f:	8b 85 94 fd ff ff    	mov    -0x26c(%rbp),%eax
    5925:	48 98                	cltq   
    5927:	48 8d 15 f2 d6 00 00 	lea    0xd6f2(%rip),%rdx        # 13020 <g_1263>
    592e:	48 89 94 c5 f0 fd ff 	mov    %rdx,-0x210(%rbp,%rax,8)
    5935:	ff 
    5936:	83 85 94 fd ff ff 01 	addl   $0x1,-0x26c(%rbp)
    593d:	83 bd 94 fd ff ff 07 	cmpl   $0x7,-0x26c(%rbp)
    5944:	7e d9                	jle    591f <func_1+0x16a>
    5946:	c7 85 94 fd ff ff 00 	movl   $0x0,-0x26c(%rbp)
    594d:	00 00 00 
    5950:	eb 1e                	jmp    5970 <func_1+0x1bb>
    5952:	8b 85 94 fd ff ff    	mov    -0x26c(%rbp),%eax
    5958:	48 98                	cltq   
    595a:	48 8d 15 c7 d5 00 00 	lea    0xd5c7(%rip),%rdx        # 12f28 <g_1264+0xc8>
    5961:	48 89 94 c5 b0 fd ff 	mov    %rdx,-0x250(%rbp,%rax,8)
    5968:	ff 
    5969:	83 85 94 fd ff ff 01 	addl   $0x1,-0x26c(%rbp)
    5970:	83 bd 94 fd ff ff 00 	cmpl   $0x0,-0x26c(%rbp)
    5977:	7e d9                	jle    5952 <func_1+0x19d>
    5979:	8b 85 ec fd ff ff    	mov    -0x214(%rbp),%eax
    597f:	0f b6 d8             	movzbl %al,%ebx
    5982:	0f b6 05 df da 00 00 	movzbl 0xdadf(%rip),%eax        # 13468 <g_5>
    5989:	0f b6 c0             	movzbl %al,%eax
    598c:	89 85 7c fd ff ff    	mov    %eax,-0x284(%rbp)
    5992:	8b 85 ec fd ff ff    	mov    -0x214(%rbp),%eax
    5998:	44 0f be e0          	movsbl %al,%r12d
    599c:	0f b7 85 c2 fd ff ff 	movzwl -0x23e(%rbp),%eax
    59a3:	44 0f b7 f0          	movzwl %ax,%r14d
    59a7:	8b 85 98 fd ff ff    	mov    -0x268(%rbp),%eax
    59ad:	44 0f bf e8          	movswl %ax,%r13d
    59b1:	0f b7 05 c4 ba 00 00 	movzwl 0xbac4(%rip),%eax        # 1147c <g_160+0xbc>
    59b8:	44 0f b6 f8          	movzbl %al,%r15d
    59bc:	8b b5 98 fd ff ff    	mov    -0x268(%rbp),%esi
    59c2:	48 89 b5 70 fd ff ff 	mov    %rsi,-0x290(%rbp)
    59c9:	0f b7 85 c6 fd ff ff 	movzwl -0x23a(%rbp),%eax
    59d0:	0f b7 f8             	movzwl %ax,%edi
    59d3:	48 89 bd 68 fd ff ff 	mov    %rdi,-0x298(%rbp)
    59da:	0f b7 85 c6 fd ff ff 	movzwl -0x23a(%rbp),%eax
    59e1:	44 0f b7 d0          	movzwl %ax,%r10d
    59e5:	44 89 95 78 fd ff ff 	mov    %r10d,-0x288(%rbp)
    59ec:	0f b7 85 c2 fd ff ff 	movzwl -0x23e(%rbp),%eax
    59f3:	0f be d0             	movsbl %al,%edx
    59f6:	48 8b 85 a8 fd ff ff 	mov    -0x258(%rbp),%rax
    59fd:	0f b6 c8             	movzbl %al,%ecx
    5a00:	0f b6 05 61 da 00 00 	movzbl 0xda61(%rip),%eax        # 13468 <g_5>
    5a07:	0f b6 c0             	movzbl %al,%eax
    5a0a:	89 85 90 fd ff ff    	mov    %eax,-0x270(%rbp)
    5a10:	8b 85 90 fd ff ff    	mov    -0x270(%rbp),%eax
    5a16:	89 ce                	mov    %ecx,%esi
    5a18:	89 c7                	mov    %eax,%edi
    5a1a:	e8 56 1c 00 00       	callq  7675 <func_35>
    5a1f:	89 c7                	mov    %eax,%edi
    5a21:	48 8b 05 90 bc 00 00 	mov    0xbc90(%rip),%rax        # 116b8 <g_948>
    5a28:	8b 15 92 bc 00 00    	mov    0xbc92(%rip),%edx        # 116c0 <g_948+0x8>
    5a2e:	4c 8b 8d 70 fd ff ff 	mov    -0x290(%rbp),%r9
    5a35:	48 89 c1             	mov    %rax,%rcx
    5a38:	41 89 d0             	mov    %edx,%r8d
    5a3b:	48 8b 95 68 fd ff ff 	mov    -0x298(%rbp),%rdx
    5a42:	8b b5 78 fd ff ff    	mov    -0x288(%rbp),%esi
    5a48:	e8 26 1b 00 00       	callq  7573 <func_29>
    5a4d:	0f b7 85 90 fd ff ff 	movzwl -0x270(%rbp),%eax
    5a54:	0f b6 c0             	movzbl %al,%eax
    5a57:	44 89 fe             	mov    %r15d,%esi
    5a5a:	89 c7                	mov    %eax,%edi
    5a5c:	e8 f9 f0 ff ff       	callq  4b5a <safe_add_func_uint8_t_u_u>
    5a61:	0f b6 c0             	movzbl %al,%eax
    5a64:	48 8b 95 a8 fd ff ff 	mov    -0x258(%rbp),%rdx
    5a6b:	31 d0                	xor    %edx,%eax
    5a6d:	0f b7 d0             	movzwl %ax,%edx
    5a70:	0f b6 05 f1 d9 00 00 	movzbl 0xd9f1(%rip),%eax        # 13468 <g_5>
    5a77:	0f b6 c0             	movzbl %al,%eax
    5a7a:	89 d6                	mov    %edx,%esi
    5a7c:	89 c7                	mov    %eax,%edi
    5a7e:	e8 ba f2 ff ff       	callq  4d3d <safe_mul_func_uint16_t_u_u>
    5a83:	0f be c0             	movsbl %al,%eax
    5a86:	be 05 00 00 00       	mov    $0x5,%esi
    5a8b:	89 c7                	mov    %eax,%edi
    5a8d:	e8 5c e8 ff ff       	callq  42ee <safe_lshift_func_int8_t_s_u>
    5a92:	0f be c0             	movsbl %al,%eax
    5a95:	44 89 ee             	mov    %r13d,%esi
    5a98:	89 c7                	mov    %eax,%edi
    5a9a:	e8 b6 e9 ff ff       	callq  4455 <safe_div_func_int16_t_s_s>
    5a9f:	0f be c0             	movsbl %al,%eax
    5aa2:	be bb ff ff ff       	mov    $0xffffffbb,%esi
    5aa7:	89 c7                	mov    %eax,%edi
    5aa9:	e8 26 e7 ff ff       	callq  41d4 <safe_add_func_int8_t_s_s>
    5aae:	44 0f be e8          	movsbl %al,%r13d
    5ab2:	be 07 00 00 00       	mov    $0x7,%esi
    5ab7:	bf 76 00 00 00       	mov    $0x76,%edi
    5abc:	e8 8b f1 ff ff       	callq  4c4c <safe_lshift_func_uint8_t_u_u>
    5ac1:	0f b6 f0             	movzbl %al,%esi
    5ac4:	0f b6 05 9d d9 00 00 	movzbl 0xd99d(%rip),%eax        # 13468 <g_5>
    5acb:	0f b6 c0             	movzbl %al,%eax
    5ace:	44 89 f1             	mov    %r14d,%ecx
    5ad1:	44 89 ea             	mov    %r13d,%edx
    5ad4:	89 c7                	mov    %eax,%edi
    5ad6:	e8 b5 04 00 00       	callq  5f90 <func_10>
    5adb:	0f b7 85 8c fd ff ff 	movzwl -0x274(%rbp),%eax
    5ae2:	0f be c0             	movsbl %al,%eax
    5ae5:	44 89 e6             	mov    %r12d,%esi
    5ae8:	89 c7                	mov    %eax,%edi
    5aea:	e8 23 e7 ff ff       	callq  4212 <safe_mul_func_int8_t_s_s>
    5aef:	0f be c0             	movsbl %al,%eax
    5af2:	39 85 7c fd ff ff    	cmp    %eax,-0x284(%rbp)
    5af8:	0f 9e c0             	setle  %al
    5afb:	0f b6 c0             	movzbl %al,%eax
    5afe:	89 de                	mov    %ebx,%esi
    5b00:	89 c7                	mov    %eax,%edi
    5b02:	e8 d4 f0 ff ff       	callq  4bdb <safe_div_func_uint8_t_u_u>
    5b07:	0f b6 d0             	movzbl %al,%edx
    5b0a:	0f b6 05 57 d9 00 00 	movzbl 0xd957(%rip),%eax        # 13468 <g_5>
    5b11:	0f b6 c0             	movzbl %al,%eax
    5b14:	89 d6                	mov    %edx,%esi
    5b16:	48 89 c7             	mov    %rax,%rdi
    5b19:	e8 4f 01 00 00       	callq  5c6d <func_2>
    5b1e:	0f b7 95 c2 fd ff ff 	movzwl -0x23e(%rbp),%edx
    5b25:	0f b7 d2             	movzwl %dx,%edx
    5b28:	48 39 d0             	cmp    %rdx,%rax
    5b2b:	0f 9d c0             	setge  %al
    5b2e:	0f b6 d0             	movzbl %al,%edx
    5b31:	0f be 85 8b fd ff ff 	movsbl -0x275(%rbp),%eax
    5b38:	39 c2                	cmp    %eax,%edx
    5b3a:	0f 94 c2             	sete   %dl
    5b3d:	48 8b 05 b4 d2 00 00 	mov    0xd2b4(%rip),%rax        # 12df8 <g_1255>
    5b44:	0f b6 d2             	movzbl %dl,%edx
    5b47:	89 10                	mov    %edx,(%rax)
    5b49:	c7 85 90 fd ff ff 04 	movl   $0x40ca9504,-0x270(%rbp)
    5b50:	95 ca 40 
    5b53:	0f b7 85 be fd ff ff 	movzwl -0x242(%rbp),%eax
    5b5a:	0f b7 d8             	movzwl %ax,%ebx
    5b5d:	0f b6 05 eb b4 00 00 	movzbl 0xb4eb(%rip),%eax        # 1104f <g_92+0xf>
    5b64:	0f b6 c0             	movzbl %al,%eax
    5b67:	8b 95 a4 fd ff ff    	mov    -0x25c(%rbp),%edx
    5b6d:	66 89 15 ec b4 00 00 	mov    %dx,0xb4ec(%rip)        # 11060 <g_104>
    5b74:	0f b7 15 e5 b4 00 00 	movzwl 0xb4e5(%rip),%edx        # 11060 <g_104>
    5b7b:	66 85 d2             	test   %dx,%dx
    5b7e:	75 0d                	jne    5b8d <func_1+0x3d8>
    5b80:	48 8b 15 51 d0 00 00 	mov    0xd051(%rip),%rdx        # 12bd8 <g_204>
    5b87:	0f b7 12             	movzwl (%rdx),%edx
    5b8a:	66 85 d2             	test   %dx,%dx
    5b8d:	48 8b 15 34 d0 00 00 	mov    0xd034(%rip),%rdx        # 12bc8 <g_107>
    5b94:	48 8b 12             	mov    (%rdx),%rdx
    5b97:	89 c6                	mov    %eax,%esi
    5b99:	bf 00 00 00 00       	mov    $0x0,%edi
    5b9e:	e8 0b f0 ff ff       	callq  4bae <safe_mod_func_uint8_t_u_u>
    5ba3:	89 de                	mov    %ebx,%esi
    5ba5:	bf 00 00 00 00       	mov    $0x0,%edi
    5baa:	e8 56 ea ff ff       	callq  4605 <safe_sub_func_int32_t_s_s>
    5baf:	0f b6 c0             	movzbl %al,%eax
    5bb2:	89 c6                	mov    %eax,%esi
    5bb4:	bf 02 00 00 00       	mov    $0x2,%edi
    5bb9:	e8 d5 ef ff ff       	callq  4b93 <safe_mul_func_uint8_t_u_u>
    5bbe:	48 8b 05 1b d1 00 00 	mov    0xd11b(%rip),%rax        # 12ce0 <g_673>
    5bc5:	48 8b 95 28 ff ff ff 	mov    -0xd8(%rbp),%rdx
    5bcc:	48 89 10             	mov    %rdx,(%rax)
    5bcf:	48 8b 10             	mov    (%rax),%rdx
    5bd2:	48 8b 05 47 d4 00 00 	mov    0xd447(%rip),%rax        # 13020 <g_1263>
    5bd9:	48 89 85 b0 fd ff ff 	mov    %rax,-0x250(%rbp)
    5be0:	48 8b 85 b0 fd ff ff 	mov    -0x250(%rbp),%rax
    5be7:	48 39 c2             	cmp    %rax,%rdx
    5bea:	0f 94 c0             	sete   %al
    5bed:	0f b6 d8             	movzbl %al,%ebx
    5bf0:	8b 85 d8 fd ff ff    	mov    -0x228(%rbp),%eax
    5bf6:	0f b6 c0             	movzbl %al,%eax
    5bf9:	be 9f 00 00 00       	mov    $0x9f,%esi
    5bfe:	89 c7                	mov    %eax,%edi
    5c00:	e8 8e ef ff ff       	callq  4b93 <safe_mul_func_uint8_t_u_u>
    5c05:	0f b6 c0             	movzbl %al,%eax
    5c08:	89 de                	mov    %ebx,%esi
    5c0a:	89 c7                	mov    %eax,%edi
    5c0c:	e8 a2 e7 ff ff       	callq  43b3 <safe_add_func_int16_t_s_s>
    5c11:	48 0f bf d0          	movswq %ax,%rdx
    5c15:	8b 85 9c fd ff ff    	mov    -0x264(%rbp),%eax
    5c1b:	48 98                	cltq   
    5c1d:	48 39 c2             	cmp    %rax,%rdx
    5c20:	0f 94 c0             	sete   %al
    5c23:	0f b6 c0             	movzbl %al,%eax
    5c26:	be ea 29 00 00       	mov    $0x29ea,%esi
    5c2b:	89 c7                	mov    %eax,%edi
    5c2d:	e8 ed f0 ff ff       	callq  4d1f <safe_sub_func_uint16_t_u_u>
    5c32:	89 c2                	mov    %eax,%edx
    5c34:	48 8b 05 85 cf 00 00 	mov    0xcf85(%rip),%rax        # 12bc0 <g_48>
    5c3b:	0f b7 d2             	movzwl %dx,%edx
    5c3e:	89 10                	mov    %edx,(%rax)
    5c40:	0f bf 85 8e fd ff ff 	movswl -0x272(%rbp),%eax
    5c47:	48 8b 5d c8          	mov    -0x38(%rbp),%rbx
    5c4b:	64 48 33 1c 25 28 00 	xor    %fs:0x28,%rbx
    5c52:	00 00 
    5c54:	74 05                	je     5c5b <func_1+0x4a6>
    5c56:	e8 15 e4 ff ff       	callq  4070 <__stack_chk_fail@plt>
    5c5b:	48 81 c4 78 02 00 00 	add    $0x278,%rsp
    5c62:	5b                   	pop    %rbx
    5c63:	41 5c                	pop    %r12
    5c65:	41 5d                	pop    %r13
    5c67:	41 5e                	pop    %r14
    5c69:	41 5f                	pop    %r15
    5c6b:	5d                   	pop    %rbp
    5c6c:	c3                   	retq   

0000000000005c6d <func_2>:
    5c6d:	f3 0f 1e fa          	endbr64 
    5c71:	55                   	push   %rbp
    5c72:	48 89 e5             	mov    %rsp,%rbp
    5c75:	41 55                	push   %r13
    5c77:	41 54                	push   %r12
    5c79:	53                   	push   %rbx
    5c7a:	48 81 ec 98 00 00 00 	sub    $0x98,%rsp
    5c81:	48 89 bd 58 ff ff ff 	mov    %rdi,-0xa8(%rbp)
    5c88:	89 f0                	mov    %esi,%eax
    5c8a:	66 89 85 54 ff ff ff 	mov    %ax,-0xac(%rbp)
    5c91:	64 48 8b 04 25 28 00 	mov    %fs:0x28,%rax
    5c98:	00 00 
    5c9a:	48 89 45 d8          	mov    %rax,-0x28(%rbp)
    5c9e:	31 c0                	xor    %eax,%eax
    5ca0:	c7 85 70 ff ff ff 78 	movl   $0x1adbc878,-0x90(%rbp)
    5ca7:	c8 db 1a 
    5caa:	48 8d 05 13 ba 00 00 	lea    0xba13(%rip),%rax        # 116c4 <g_1073>
    5cb1:	48 89 45 80          	mov    %rax,-0x80(%rbp)
    5cb5:	c7 85 74 ff ff ff b6 	movl   $0xfa063db6,-0x8c(%rbp)
    5cbc:	3d 06 fa 
    5cbf:	48 c7 45 88 01 00 00 	movq   $0x1,-0x78(%rbp)
    5cc6:	00 
    5cc7:	48 8d 05 5a b3 00 00 	lea    0xb35a(%rip),%rax        # 11028 <g_47>
    5cce:	48 89 45 90          	mov    %rax,-0x70(%rbp)
    5cd2:	c7 85 6c ff ff ff 00 	movl   $0x0,-0x94(%rbp)
    5cd9:	00 00 00 
    5cdc:	eb 17                	jmp    5cf5 <func_2+0x88>
    5cde:	8b 85 6c ff ff ff    	mov    -0x94(%rbp),%eax
    5ce4:	48 98                	cltq   
    5ce6:	c7 44 85 d4 00 00 00 	movl   $0x0,-0x2c(%rbp,%rax,4)
    5ced:	00 
    5cee:	83 85 6c ff ff ff 01 	addl   $0x1,-0x94(%rbp)
    5cf5:	83 bd 6c ff ff ff 00 	cmpl   $0x0,-0x94(%rbp)
    5cfc:	7e e0                	jle    5cde <func_2+0x71>
    5cfe:	8b 45 d4             	mov    -0x2c(%rbp),%eax
    5d01:	33 85 70 ff ff ff    	xor    -0x90(%rbp),%eax
    5d07:	89 45 d4             	mov    %eax,-0x2c(%rbp)
    5d0a:	0f b7 85 54 ff ff ff 	movzwl -0xac(%rbp),%eax
    5d11:	0f b6 c0             	movzbl %al,%eax
    5d14:	89 c6                	mov    %eax,%esi
    5d16:	bf 01 00 00 00       	mov    $0x1,%edi
    5d1b:	e8 58 ee ff ff       	callq  4b78 <safe_sub_func_uint8_t_u_u>
    5d20:	0f b6 c0             	movzbl %al,%eax
    5d23:	f7 d0                	not    %eax
    5d25:	33 85 70 ff ff ff    	xor    -0x90(%rbp),%eax
    5d2b:	48 63 d0             	movslq %eax,%rdx
    5d2e:	48 8b 85 58 ff ff ff 	mov    -0xa8(%rbp),%rax
    5d35:	48 39 c2             	cmp    %rax,%rdx
    5d38:	0f 9d c0             	setge  %al
    5d3b:	0f b6 c0             	movzbl %al,%eax
    5d3e:	be 18 48 00 00       	mov    $0x4818,%esi
    5d43:	89 c7                	mov    %eax,%edi
    5d45:	e8 d5 ef ff ff       	callq  4d1f <safe_sub_func_uint16_t_u_u>
    5d4a:	0f b7 c0             	movzwl %ax,%eax
    5d4d:	be ff ff ff ff       	mov    $0xffffffff,%esi
    5d52:	89 c7                	mov    %eax,%edi
    5d54:	e8 5d e8 ff ff       	callq  45b6 <safe_add_func_int32_t_s_s>
    5d59:	48 63 d0             	movslq %eax,%rdx
    5d5c:	48 8b 85 58 ff ff ff 	mov    -0xa8(%rbp),%rax
    5d63:	48 09 c2             	or     %rax,%rdx
    5d66:	0f b7 85 54 ff ff ff 	movzwl -0xac(%rbp),%eax
    5d6d:	48 39 c2             	cmp    %rax,%rdx
    5d70:	0f 9e c0             	setle  %al
    5d73:	0f b6 d0             	movzbl %al,%edx
    5d76:	48 8b 85 58 ff ff ff 	mov    -0xa8(%rbp),%rax
    5d7d:	48 39 c2             	cmp    %rax,%rdx
    5d80:	0f 9e c2             	setle  %dl
    5d83:	48 8b 05 36 ce 00 00 	mov    0xce36(%rip),%rax        # 12bc0 <g_48>
    5d8a:	0f b6 d2             	movzbl %dl,%edx
    5d8d:	89 10                	mov    %edx,(%rax)
    5d8f:	8b 45 d4             	mov    -0x2c(%rbp),%eax
    5d92:	35 9e de 87 8f       	xor    $0x8f87de9e,%eax
    5d97:	89 45 d4             	mov    %eax,-0x2c(%rbp)
    5d9a:	c7 05 80 b2 00 00 f2 	movl   $0xfffffff2,0xb280(%rip)        # 11024 <g_43>
    5da1:	ff ff ff 
    5da4:	e9 a4 01 00 00       	jmpq   5f4d <func_2+0x2e0>
    5da9:	48 8d 05 c0 b8 00 00 	lea    0xb8c0(%rip),%rax        # 11670 <g_526>
    5db0:	48 89 45 98          	mov    %rax,-0x68(%rbp)
    5db4:	48 8d 05 fd b8 00 00 	lea    0xb8fd(%rip),%rax        # 116b8 <g_948>
    5dbb:	48 89 85 78 ff ff ff 	mov    %rax,-0x88(%rbp)
    5dc2:	48 8d 85 78 ff ff ff 	lea    -0x88(%rbp),%rax
    5dc9:	48 89 45 a0          	mov    %rax,-0x60(%rbp)
    5dcd:	48 c7 45 a8 00 00 00 	movq   $0x0,-0x58(%rbp)
    5dd4:	00 
    5dd5:	48 8d 05 84 d7 00 00 	lea    0xd784(%rip),%rax        # 13560 <g_1051+0x80>
    5ddc:	48 89 45 b0          	mov    %rax,-0x50(%rbp)
    5de0:	48 8d 05 99 b7 00 00 	lea    0xb799(%rip),%rax        # 11580 <g_161>
    5de7:	48 89 45 b8          	mov    %rax,-0x48(%rbp)
    5deb:	c7 85 68 ff ff ff bd 	movl   $0x5e9807bd,-0x98(%rbp)
    5df2:	07 98 5e 
    5df5:	48 b8 9f aa 35 9a 45 	movabs $0xab3ced459a35aa9f,%rax
    5dfc:	ed 3c ab 
    5dff:	48 89 45 c0          	mov    %rax,-0x40(%rbp)
    5e03:	48 8d 05 ae b2 00 00 	lea    0xb2ae(%rip),%rax        # 110b8 <g_106+0x38>
    5e0a:	48 89 45 c8          	mov    %rax,-0x38(%rbp)
    5e0e:	0f b7 9d 54 ff ff ff 	movzwl -0xac(%rbp),%ebx
    5e15:	8b 85 68 ff ff ff    	mov    -0x98(%rbp),%eax
    5e1b:	41 89 c5             	mov    %eax,%r13d
    5e1e:	48 8b 45 b0          	mov    -0x50(%rbp),%rax
    5e22:	48 8d 95 78 ff ff ff 	lea    -0x88(%rbp),%rdx
    5e29:	48 89 10             	mov    %rdx,(%rax)
    5e2c:	48 8b 45 b8          	mov    -0x48(%rbp),%rax
    5e30:	48 c7 00 01 00 00 00 	movq   $0x1,(%rax)
    5e37:	44 8b a5 68 ff ff ff 	mov    -0x98(%rbp),%r12d
    5e3e:	48 8b 05 83 cd 00 00 	mov    0xcd83(%rip),%rax        # 12bc8 <g_107>
    5e45:	48 8b 38             	mov    (%rax),%rdi
    5e48:	8b 85 68 ff ff ff    	mov    -0x98(%rbp),%eax
    5e4e:	0f b7 c0             	movzwl %ax,%eax
    5e51:	8b 95 68 ff ff ff    	mov    -0x98(%rbp),%edx
    5e57:	41 89 d2             	mov    %edx,%r10d
    5e5a:	48 8b 0d 87 87 00 00 	mov    0x8787(%rip),%rcx        # e5e8 <l_1206.4140>
    5e61:	8b 35 89 87 00 00    	mov    0x8789(%rip),%esi        # e5f0 <l_1206.4140+0x8>
    5e67:	48 8b 55 c0          	mov    -0x40(%rbp),%rdx
    5e6b:	49 89 f9             	mov    %rdi,%r9
    5e6e:	41 89 f0             	mov    %esi,%r8d
    5e71:	89 c6                	mov    %eax,%esi
    5e73:	44 89 d7             	mov    %r10d,%edi
    5e76:	e8 f8 16 00 00       	callq  7573 <func_29>
    5e7b:	0f b7 95 54 ff ff ff 	movzwl -0xac(%rbp),%edx
    5e82:	48 8b 05 37 cd 00 00 	mov    0xcd37(%rip),%rax        # 12bc0 <g_48>
    5e89:	81 e2 a3 06 1e 5a    	and    $0x5a1e06a3,%edx
    5e8f:	89 10                	mov    %edx,(%rax)
    5e91:	8b 10                	mov    (%rax),%edx
    5e93:	8b 45 d4             	mov    -0x2c(%rbp),%eax
    5e96:	21 d0                	and    %edx,%eax
    5e98:	89 45 d4             	mov    %eax,-0x2c(%rbp)
    5e9b:	8b 45 d4             	mov    -0x2c(%rbp),%eax
    5e9e:	44 89 e6             	mov    %r12d,%esi
    5ea1:	89 c7                	mov    %eax,%edi
    5ea3:	e8 0e e7 ff ff       	callq  45b6 <safe_add_func_int32_t_s_s>
    5ea8:	48 63 d0             	movslq %eax,%rdx
    5eab:	48 8b 45 c8          	mov    -0x38(%rbp),%rax
    5eaf:	48 89 10             	mov    %rdx,(%rax)
    5eb2:	b8 01 00 00 00       	mov    $0x1,%eax
    5eb7:	89 c2                	mov    %eax,%edx
    5eb9:	48 8b 45 98          	mov    -0x68(%rbp),%rax
    5ebd:	c7 00 ee eb 0a 49    	movl   $0x490aebee,(%rax)
    5ec3:	48 8b 45 98          	mov    -0x68(%rbp),%rax
    5ec7:	8b 00                	mov    (%rax),%eax
    5ec9:	89 d6                	mov    %edx,%esi
    5ecb:	89 c7                	mov    %eax,%edi
    5ecd:	e8 53 f0 ff ff       	callq  4f25 <safe_div_func_uint32_t_u_u>
    5ed2:	0f b6 c0             	movzbl %al,%eax
    5ed5:	44 89 ee             	mov    %r13d,%esi
    5ed8:	89 c7                	mov    %eax,%edi
    5eda:	e8 6d ed ff ff       	callq  4c4c <safe_lshift_func_uint8_t_u_u>
    5edf:	0f b6 c0             	movzbl %al,%eax
    5ee2:	89 de                	mov    %ebx,%esi
    5ee4:	89 c7                	mov    %eax,%edi
    5ee6:	e8 3a f0 ff ff       	callq  4f25 <safe_div_func_uint32_t_u_u>
    5eeb:	89 c2                	mov    %eax,%edx
    5eed:	48 8b 05 e4 cc 00 00 	mov    0xcce4(%rip),%rax        # 12bd8 <g_204>
    5ef4:	66 89 10             	mov    %dx,(%rax)
    5ef7:	0f b7 00             	movzwl (%rax),%eax
    5efa:	0f b7 c0             	movzwl %ax,%eax
    5efd:	be 05 00 00 00       	mov    $0x5,%esi
    5f02:	89 c7                	mov    %eax,%edi
    5f04:	e8 fd ee ff ff       	callq  4e06 <safe_lshift_func_uint16_t_u_u>
    5f09:	48 8b 85 58 ff ff ff 	mov    -0xa8(%rbp),%rax
    5f10:	48 f7 d0             	not    %rax
    5f13:	48 c1 e8 3f          	shr    $0x3f,%rax
    5f17:	0f b6 c0             	movzbl %al,%eax
    5f1a:	89 85 70 ff ff ff    	mov    %eax,-0x90(%rbp)
    5f20:	48 8b 05 b1 cd 00 00 	mov    0xcdb1(%rip),%rax        # 12cd8 <g_674>
    5f27:	48 8b 00             	mov    (%rax),%rax
    5f2a:	48 8b 00             	mov    (%rax),%rax
    5f2d:	48 8d 95 68 ff ff ff 	lea    -0x98(%rbp),%rdx
    5f34:	48 89 10             	mov    %rdx,(%rax)
    5f37:	48 8b 00             	mov    (%rax),%rax
    5f3a:	48 89 45 90          	mov    %rax,-0x70(%rbp)
    5f3e:	8b 05 e0 b0 00 00    	mov    0xb0e0(%rip),%eax        # 11024 <g_43>
    5f44:	83 c0 01             	add    $0x1,%eax
    5f47:	89 05 d7 b0 00 00    	mov    %eax,0xb0d7(%rip)        # 11024 <g_43>
    5f4d:	8b 05 d1 b0 00 00    	mov    0xb0d1(%rip),%eax        # 11024 <g_43>
    5f53:	83 f8 15             	cmp    $0x15,%eax
    5f56:	0f 87 4d fe ff ff    	ja     5da9 <func_2+0x13c>
    5f5c:	0f b7 05 8d 86 00 00 	movzwl 0x868d(%rip),%eax        # e5f0 <l_1206.4140+0x8>
    5f63:	c1 e0 07             	shl    $0x7,%eax
    5f66:	66 c1 f8 07          	sar    $0x7,%ax
    5f6a:	48 0f bf c0          	movswq %ax,%rax
    5f6e:	48 8b 5d d8          	mov    -0x28(%rbp),%rbx
    5f72:	64 48 33 1c 25 28 00 	xor    %fs:0x28,%rbx
    5f79:	00 00 
    5f7b:	74 05                	je     5f82 <func_2+0x315>
    5f7d:	e8 ee e0 ff ff       	callq  4070 <__stack_chk_fail@plt>
    5f82:	48 81 c4 98 00 00 00 	add    $0x98,%rsp
    5f89:	5b                   	pop    %rbx
    5f8a:	41 5c                	pop    %r12
    5f8c:	41 5d                	pop    %r13
    5f8e:	5d                   	pop    %rbp
    5f8f:	c3                   	retq   

0000000000005f90 <func_10>:
    5f90:	f3 0f 1e fa          	endbr64 
    5f94:	55                   	push   %rbp
    5f95:	48 89 e5             	mov    %rsp,%rbp
    5f98:	41 57                	push   %r15
    5f9a:	41 56                	push   %r14
    5f9c:	41 55                	push   %r13
    5f9e:	41 54                	push   %r12
    5fa0:	53                   	push   %rbx
    5fa1:	48 81 ec 78 0a 00 00 	sub    $0xa78,%rsp
    5fa8:	89 bd 6c f5 ff ff    	mov    %edi,-0xa94(%rbp)
    5fae:	89 b5 68 f5 ff ff    	mov    %esi,-0xa98(%rbp)
    5fb4:	89 d0                	mov    %edx,%eax
    5fb6:	89 8d 60 f5 ff ff    	mov    %ecx,-0xaa0(%rbp)
    5fbc:	66 89 85 64 f5 ff ff 	mov    %ax,-0xa9c(%rbp)
    5fc3:	64 48 8b 04 25 28 00 	mov    %fs:0x28,%rax
    5fca:	00 00 
    5fcc:	48 89 45 c8          	mov    %rax,-0x38(%rbp)
    5fd0:	31 c0                	xor    %eax,%eax
    5fd2:	48 8d 05 e3 b6 00 00 	lea    0xb6e3(%rip),%rax        # 116bc <g_948+0x4>
    5fd9:	48 89 85 00 f6 ff ff 	mov    %rax,-0xa00(%rbp)
    5fe0:	c7 85 84 f5 ff ff ff 	movl   $0xffffffff,-0xa7c(%rbp)
    5fe7:	ff ff ff 
    5fea:	48 8d 05 b7 cc 00 00 	lea    0xccb7(%rip),%rax        # 12ca8 <g_353>
    5ff1:	48 89 85 d8 f5 ff ff 	mov    %rax,-0xa28(%rbp)
    5ff8:	48 8d 85 d8 f5 ff ff 	lea    -0xa28(%rbp),%rax
    5fff:	48 89 85 08 f6 ff ff 	mov    %rax,-0x9f8(%rbp)
    6006:	48 8d 05 53 b6 00 00 	lea    0xb653(%rip),%rax        # 11660 <g_423+0x40>
    600d:	48 89 85 e0 f5 ff ff 	mov    %rax,-0xa20(%rbp)
    6014:	48 8d 85 e0 f5 ff ff 	lea    -0xa20(%rbp),%rax
    601b:	48 89 85 10 f6 ff ff 	mov    %rax,-0x9f0(%rbp)
    6022:	66 c7 85 72 f5 ff ff 	movw   $0x98ec,-0xa8e(%rbp)
    6029:	ec 98 
    602b:	c7 85 9c f5 ff ff 0a 	movl   $0xa2cf2a0a,-0xa64(%rbp)
    6032:	2a cf a2 
    6035:	c7 85 a0 f5 ff ff 51 	movl   $0xcbb68151,-0xa60(%rbp)
    603c:	81 b6 cb 
    603f:	c7 85 60 f7 ff ff 00 	movl   $0x0,-0x8a0(%rbp)
    6046:	00 00 00 
    6049:	c7 85 64 f7 ff ff 98 	movl   $0x8f36db98,-0x89c(%rbp)
    6050:	db 36 8f 
    6053:	c7 85 68 f7 ff ff 98 	movl   $0x8f36db98,-0x898(%rbp)
    605a:	db 36 8f 
    605d:	c7 85 6c f7 ff ff 00 	movl   $0x0,-0x894(%rbp)
    6064:	00 00 00 
    6067:	c7 85 70 f7 ff ff da 	movl   $0x841e5dda,-0x890(%rbp)
    606e:	5d 1e 84 
    6071:	c7 85 74 f7 ff ff 00 	movl   $0x0,-0x88c(%rbp)
    6078:	00 00 00 
    607b:	c7 85 78 f7 ff ff 98 	movl   $0x8f36db98,-0x888(%rbp)
    6082:	db 36 8f 
    6085:	c7 85 7c f7 ff ff 01 	movl   $0x1,-0x884(%rbp)
    608c:	00 00 00 
    608f:	c7 85 80 f7 ff ff 01 	movl   $0x1,-0x880(%rbp)
    6096:	00 00 00 
    6099:	c7 85 84 f7 ff ff 98 	movl   $0x8f36db98,-0x87c(%rbp)
    60a0:	db 36 8f 
    60a3:	c7 85 88 f7 ff ff 66 	movl   $0x84b73c66,-0x878(%rbp)
    60aa:	3c b7 84 
    60ad:	c7 85 8c f7 ff ff 98 	movl   $0x8f36db98,-0x874(%rbp)
    60b4:	db 36 8f 
    60b7:	c7 85 90 f7 ff ff 01 	movl   $0x1,-0x870(%rbp)
    60be:	00 00 00 
    60c1:	c7 85 94 f7 ff ff 01 	movl   $0x1,-0x86c(%rbp)
    60c8:	00 00 00 
    60cb:	c7 85 88 f5 ff ff 54 	movl   $0xfe31ad54,-0xa78(%rbp)
    60d2:	ad 31 fe 
    60d5:	c7 05 4d af 00 00 00 	movl   $0x0,0xaf4d(%rip)        # 1102c <g_49>
    60dc:	00 00 00 
    60df:	e9 38 14 00 00       	jmpq   751c <func_10+0x158c>
    60e4:	48 8d 05 8d b5 00 00 	lea    0xb58d(%rip),%rax        # 11678 <g_534>
    60eb:	48 89 85 e8 f5 ff ff 	mov    %rax,-0xa18(%rbp)
    60f2:	0f b7 85 e4 f6 ff ff 	movzwl -0x91c(%rbp),%eax
    60f9:	66 25 00 f0          	and    $0xf000,%ax
    60fd:	83 c8 1f             	or     $0x1f,%eax
    6100:	66 89 85 e4 f6 ff ff 	mov    %ax,-0x91c(%rbp)
    6107:	c7 85 e8 f6 ff ff 01 	movl   $0x1,-0x918(%rbp)
    610e:	00 00 00 
    6111:	0f b7 85 ec f6 ff ff 	movzwl -0x914(%rbp),%eax
    6118:	66 25 00 fe          	and    $0xfe00,%ax
    611c:	83 c8 07             	or     $0x7,%eax
    611f:	66 89 85 ec f6 ff ff 	mov    %ax,-0x914(%rbp)
    6126:	48 c7 85 f0 f5 ff ff 	movq   $0x0,-0xa10(%rbp)
    612d:	00 00 00 00 
    6131:	66 c7 85 f0 f5 ff ff 	movw   $0x1,-0xa10(%rbp)
    6138:	01 00 
    613a:	48 8d 85 f0 f8 ff ff 	lea    -0x710(%rbp),%rax
    6141:	48 8d 15 38 b7 00 00 	lea    0xb738(%rip),%rdx        # 11880 <g_1180+0x1b8>
    6148:	b9 24 00 00 00       	mov    $0x24,%ecx
    614d:	48 89 c7             	mov    %rax,%rdi
    6150:	48 89 d6             	mov    %rdx,%rsi
    6153:	f3 48 a5             	rep movsq %ds:(%rsi),%es:(%rdi)
    6156:	48 8d 05 f8 ae 00 00 	lea    0xaef8(%rip),%rax        # 11055 <g_92+0x15>
    615d:	48 89 85 18 f6 ff ff 	mov    %rax,-0x9e8(%rbp)
    6164:	c7 85 78 f5 ff ff bd 	movl   $0x9b899bd,-0xa88(%rbp)
    616b:	99 b8 09 
    616e:	48 8d 05 4f b5 00 00 	lea    0xb54f(%rip),%rax        # 116c4 <g_1073>
    6175:	48 89 85 f0 f7 ff ff 	mov    %rax,-0x810(%rbp)
    617c:	48 8d 05 41 b5 00 00 	lea    0xb541(%rip),%rax        # 116c4 <g_1073>
    6183:	48 89 85 f8 f7 ff ff 	mov    %rax,-0x808(%rbp)
    618a:	48 8d 05 33 b5 00 00 	lea    0xb533(%rip),%rax        # 116c4 <g_1073>
    6191:	48 89 85 00 f8 ff ff 	mov    %rax,-0x800(%rbp)
    6198:	48 8d 05 25 b5 00 00 	lea    0xb525(%rip),%rax        # 116c4 <g_1073>
    619f:	48 89 85 08 f8 ff ff 	mov    %rax,-0x7f8(%rbp)
    61a6:	48 8d 05 17 b5 00 00 	lea    0xb517(%rip),%rax        # 116c4 <g_1073>
    61ad:	48 89 85 10 f8 ff ff 	mov    %rax,-0x7f0(%rbp)
    61b4:	48 8d 05 09 b5 00 00 	lea    0xb509(%rip),%rax        # 116c4 <g_1073>
    61bb:	48 89 85 18 f8 ff ff 	mov    %rax,-0x7e8(%rbp)
    61c2:	48 8d 05 fb b4 00 00 	lea    0xb4fb(%rip),%rax        # 116c4 <g_1073>
    61c9:	48 89 85 20 f8 ff ff 	mov    %rax,-0x7e0(%rbp)
    61d0:	48 8d 05 ed b4 00 00 	lea    0xb4ed(%rip),%rax        # 116c4 <g_1073>
    61d7:	48 89 85 28 f8 ff ff 	mov    %rax,-0x7d8(%rbp)
    61de:	48 8d 05 df b4 00 00 	lea    0xb4df(%rip),%rax        # 116c4 <g_1073>
    61e5:	48 89 85 30 f8 ff ff 	mov    %rax,-0x7d0(%rbp)
    61ec:	48 8d 05 d1 b4 00 00 	lea    0xb4d1(%rip),%rax        # 116c4 <g_1073>
    61f3:	48 89 85 38 f8 ff ff 	mov    %rax,-0x7c8(%rbp)
    61fa:	48 8d 05 c3 b4 00 00 	lea    0xb4c3(%rip),%rax        # 116c4 <g_1073>
    6201:	48 89 85 40 f8 ff ff 	mov    %rax,-0x7c0(%rbp)
    6208:	48 8d 05 b5 b4 00 00 	lea    0xb4b5(%rip),%rax        # 116c4 <g_1073>
    620f:	48 89 85 48 f8 ff ff 	mov    %rax,-0x7b8(%rbp)
    6216:	48 8d 05 a7 b4 00 00 	lea    0xb4a7(%rip),%rax        # 116c4 <g_1073>
    621d:	48 89 85 50 f8 ff ff 	mov    %rax,-0x7b0(%rbp)
    6224:	48 8d 05 99 b4 00 00 	lea    0xb499(%rip),%rax        # 116c4 <g_1073>
    622b:	48 89 85 58 f8 ff ff 	mov    %rax,-0x7a8(%rbp)
    6232:	48 8d 05 8b b4 00 00 	lea    0xb48b(%rip),%rax        # 116c4 <g_1073>
    6239:	48 89 85 60 f8 ff ff 	mov    %rax,-0x7a0(%rbp)
    6240:	48 8d 05 7d b4 00 00 	lea    0xb47d(%rip),%rax        # 116c4 <g_1073>
    6247:	48 89 85 68 f8 ff ff 	mov    %rax,-0x798(%rbp)
    624e:	48 8d 85 f0 f5 ff ff 	lea    -0xa10(%rbp),%rax
    6255:	48 89 85 20 f6 ff ff 	mov    %rax,-0x9e0(%rbp)
    625c:	c7 85 a4 f5 ff ff 90 	movl   $0x6e69c190,-0xa5c(%rbp)
    6263:	c1 69 6e 
    6266:	c7 85 a8 f5 ff ff 06 	movl   $0x6,-0xa58(%rbp)
    626d:	00 00 00 
    6270:	48 c7 85 28 f6 ff ff 	movq   $0x0,-0x9d8(%rbp)
    6277:	00 00 00 00 
    627b:	48 c7 05 fa b2 00 00 	movq   $0x3,0xb2fa(%rip)        # 11580 <g_161>
    6282:	03 00 00 00 
    6286:	e9 fa 07 00 00       	jmpq   6a85 <func_10+0xaf5>
    628b:	48 8d 05 e6 b3 00 00 	lea    0xb3e6(%rip),%rax        # 11678 <g_534>
    6292:	48 89 85 a8 f6 ff ff 	mov    %rax,-0x958(%rbp)
    6299:	c7 85 8c f5 ff ff f7 	movl   $0xfffffff7,-0xa74(%rbp)
    62a0:	ff ff ff 
    62a3:	c6 05 e4 b3 00 00 00 	movb   $0x0,0xb3e4(%rip)        # 1168e <g_724>
    62aa:	e9 b2 07 00 00       	jmpq   6a61 <func_10+0xad1>
    62af:	48 c7 85 b0 f6 ff ff 	movq   $0x0,-0x950(%rbp)
    62b6:	00 00 00 00 
    62ba:	48 8d 05 f7 b3 00 00 	lea    0xb3f7(%rip),%rax        # 116b8 <g_948>
    62c1:	48 89 85 f0 f6 ff ff 	mov    %rax,-0x910(%rbp)
    62c8:	48 8d 85 f0 f6 ff ff 	lea    -0x910(%rbp),%rax
    62cf:	48 89 85 b8 f6 ff ff 	mov    %rax,-0x948(%rbp)
    62d6:	48 8d 05 db b3 00 00 	lea    0xb3db(%rip),%rax        # 116b8 <g_948>
    62dd:	48 89 85 00 f7 ff ff 	mov    %rax,-0x900(%rbp)
    62e4:	c7 85 90 f5 ff ff 00 	movl   $0x0,-0xa70(%rbp)
    62eb:	00 00 00 
    62ee:	eb 1e                	jmp    630e <func_10+0x37e>
    62f0:	8b 85 90 f5 ff ff    	mov    -0xa70(%rbp),%eax
    62f6:	48 98                	cltq   
    62f8:	48 8d 95 00 f7 ff ff 	lea    -0x900(%rbp),%rdx
    62ff:	48 89 94 c5 70 f8 ff 	mov    %rdx,-0x790(%rbp,%rax,8)
    6306:	ff 
    6307:	83 85 90 f5 ff ff 01 	addl   $0x1,-0xa70(%rbp)
    630e:	83 bd 90 f5 ff ff 03 	cmpl   $0x3,-0xa70(%rbp)
    6315:	7e d9                	jle    62f0 <func_10+0x360>
    6317:	8b 05 0f ad 00 00    	mov    0xad0f(%rip),%eax        # 1102c <g_49>
    631d:	8b 15 09 ad 00 00    	mov    0xad09(%rip),%edx        # 1102c <g_49>
    6323:	48 63 d2             	movslq %edx,%rdx
    6326:	48 98                	cltq   
    6328:	48 01 d0             	add    %rdx,%rax
    632b:	48 8d 14 c5 00 00 00 	lea    0x0(,%rax,8),%rdx
    6332:	00 
    6333:	48 8d 05 46 ad 00 00 	lea    0xad46(%rip),%rax        # 11080 <g_106>
    633a:	48 8b 14 02          	mov    (%rdx,%rax,1),%rdx
    633e:	48 8b 05 ab c9 00 00 	mov    0xc9ab(%rip),%rax        # 12cf0 <g_1026>
    6345:	89 10                	mov    %edx,(%rax)
    6347:	0f b6 05 40 b3 00 00 	movzbl 0xb340(%rip),%eax        # 1168e <g_724>
    634e:	0f b6 d0             	movzbl %al,%edx
    6351:	0f b6 05 36 b3 00 00 	movzbl 0xb336(%rip),%eax        # 1168e <g_724>
    6358:	0f b6 c0             	movzbl %al,%eax
    635b:	48 98                	cltq   
    635d:	48 63 d2             	movslq %edx,%rdx
    6360:	48 c1 e2 03          	shl    $0x3,%rdx
    6364:	48 01 d0             	add    %rdx,%rax
    6367:	48 8d 14 85 00 00 00 	lea    0x0(,%rax,4),%rdx
    636e:	00 
    636f:	48 8d 05 2a b2 00 00 	lea    0xb22a(%rip),%rax        # 115a0 <g_359>
    6376:	8b 04 02             	mov    (%rdx,%rax,1),%eax
    6379:	85 c0                	test   %eax,%eax
    637b:	0f 85 f1 06 00 00    	jne    6a72 <func_10+0xae2>
    6381:	c7 05 e5 b2 00 00 00 	movl   $0x0,0xb2e5(%rip)        # 11670 <g_526>
    6388:	00 00 00 
    638b:	e9 b0 06 00 00       	jmpq   6a40 <func_10+0xab0>
    6390:	c7 85 d4 f5 ff ff cf 	movl   $0xdbec3bcf,-0xa2c(%rbp)
    6397:	3b ec db 
    639a:	48 8d 05 87 ac 00 00 	lea    0xac87(%rip),%rax        # 11028 <g_47>
    63a1:	48 89 85 c0 f6 ff ff 	mov    %rax,-0x940(%rbp)
    63a8:	48 8b 85 e8 f5 ff ff 	mov    -0xa18(%rbp),%rax
    63af:	48 39 85 a8 f6 ff ff 	cmp    %rax,-0x958(%rbp)
    63b6:	0f 84 a1 00 00 00    	je     645d <func_10+0x4cd>
    63bc:	48 8b 05 15 ca 00 00 	mov    0xca15(%rip),%rax        # 12dd8 <g_1029>
    63c3:	48 8d 15 c6 d0 00 00 	lea    0xd0c6(%rip),%rdx        # 13490 <g_529>
    63ca:	48 89 10             	mov    %rdx,(%rax)
    63cd:	0f b6 05 ba b2 00 00 	movzbl 0xb2ba(%rip),%eax        # 1168e <g_724>
    63d4:	0f b6 d0             	movzbl %al,%edx
    63d7:	8b 05 4f ac 00 00    	mov    0xac4f(%rip),%eax        # 1102c <g_49>
    63dd:	83 c0 07             	add    $0x7,%eax
    63e0:	48 98                	cltq   
    63e2:	48 63 d2             	movslq %edx,%rdx
    63e5:	48 c1 e2 03          	shl    $0x3,%rdx
    63e9:	48 01 c2             	add    %rax,%rdx
    63ec:	48 8d 05 4d ac 00 00 	lea    0xac4d(%rip),%rax        # 11040 <g_92>
    63f3:	48 01 d0             	add    %rdx,%rax
    63f6:	0f b6 00             	movzbl (%rax),%eax
    63f9:	84 c0                	test   %al,%al
    63fb:	0f 85 2f 06 00 00    	jne    6a30 <func_10+0xaa0>
    6401:	8b 85 d4 f5 ff ff    	mov    -0xa2c(%rbp),%eax
    6407:	83 f0 f9             	xor    $0xfffffff9,%eax
    640a:	0f b6 d0             	movzbl %al,%edx
    640d:	48 8b 05 c4 c7 00 00 	mov    0xc7c4(%rip),%rax        # 12bd8 <g_204>
    6414:	0f b7 00             	movzwl (%rax),%eax
    6417:	66 85 c0             	test   %ax,%ax
    641a:	75 13                	jne    642f <func_10+0x49f>
    641c:	8b 05 ea 81 00 00    	mov    0x81ea(%rip),%eax        # e60c <l_1033.4181+0xc>
    6422:	85 c0                	test   %eax,%eax
    6424:	75 09                	jne    642f <func_10+0x49f>
    6426:	83 bd 8c f5 ff ff 00 	cmpl   $0x0,-0xa74(%rbp)
    642d:	74 07                	je     6436 <func_10+0x4a6>
    642f:	b8 01 00 00 00       	mov    $0x1,%eax
    6434:	eb 05                	jmp    643b <func_10+0x4ab>
    6436:	b8 00 00 00 00       	mov    $0x0,%eax
    643b:	0f b6 c0             	movzbl %al,%eax
    643e:	89 d6                	mov    %edx,%esi
    6440:	89 c7                	mov    %eax,%edi
    6442:	e8 4c e7 ff ff       	callq  4b93 <safe_mul_func_uint8_t_u_u>
    6447:	0f b6 d0             	movzbl %al,%edx
    644a:	8b 85 6c f5 ff ff    	mov    -0xa94(%rbp),%eax
    6450:	21 d0                	and    %edx,%eax
    6452:	89 85 6c f5 ff ff    	mov    %eax,-0xa94(%rbp)
    6458:	e9 16 01 00 00       	jmpq   6573 <func_10+0x5e3>
    645d:	48 8d 05 54 d0 00 00 	lea    0xd054(%rip),%rax        # 134b8 <g_817>
    6464:	48 89 85 60 fc ff ff 	mov    %rax,-0x3a0(%rbp)
    646b:	48 8d 05 46 d0 00 00 	lea    0xd046(%rip),%rax        # 134b8 <g_817>
    6472:	48 89 85 68 fc ff ff 	mov    %rax,-0x398(%rbp)
    6479:	48 8d 05 38 d0 00 00 	lea    0xd038(%rip),%rax        # 134b8 <g_817>
    6480:	48 89 85 70 fc ff ff 	mov    %rax,-0x390(%rbp)
    6487:	48 8d 05 2a d0 00 00 	lea    0xd02a(%rip),%rax        # 134b8 <g_817>
    648e:	48 89 85 78 fc ff ff 	mov    %rax,-0x388(%rbp)
    6495:	48 8d 05 1c d0 00 00 	lea    0xd01c(%rip),%rax        # 134b8 <g_817>
    649c:	48 89 85 80 fc ff ff 	mov    %rax,-0x380(%rbp)
    64a3:	48 8d 05 0e d0 00 00 	lea    0xd00e(%rip),%rax        # 134b8 <g_817>
    64aa:	48 89 85 88 fc ff ff 	mov    %rax,-0x378(%rbp)
    64b1:	48 8d 05 00 d0 00 00 	lea    0xd000(%rip),%rax        # 134b8 <g_817>
    64b8:	48 89 85 90 fc ff ff 	mov    %rax,-0x370(%rbp)
    64bf:	48 8d 05 f2 cf 00 00 	lea    0xcff2(%rip),%rax        # 134b8 <g_817>
    64c6:	48 89 85 98 fc ff ff 	mov    %rax,-0x368(%rbp)
    64cd:	0f b6 05 ba b1 00 00 	movzbl 0xb1ba(%rip),%eax        # 1168e <g_724>
    64d4:	0f b6 d0             	movzbl %al,%edx
    64d7:	0f b6 05 b0 b1 00 00 	movzbl 0xb1b0(%rip),%eax        # 1168e <g_724>
    64de:	0f b6 c0             	movzbl %al,%eax
    64e1:	83 c0 02             	add    $0x2,%eax
    64e4:	48 98                	cltq   
    64e6:	48 63 d2             	movslq %edx,%rdx
    64e9:	48 c1 e2 03          	shl    $0x3,%rdx
    64ed:	48 01 c2             	add    %rax,%rdx
    64f0:	48 8d 05 49 ab 00 00 	lea    0xab49(%rip),%rax        # 11040 <g_92>
    64f7:	48 01 d0             	add    %rdx,%rax
    64fa:	0f b6 08             	movzbl (%rax),%ecx
    64fd:	0f b6 05 85 b0 00 00 	movzbl 0xb085(%rip),%eax        # 11589 <g_162+0x1>
    6504:	89 c6                	mov    %eax,%esi
    6506:	0f b6 05 81 b1 00 00 	movzbl 0xb181(%rip),%eax        # 1168e <g_724>
    650d:	0f b6 d0             	movzbl %al,%edx
    6510:	0f b6 05 77 b1 00 00 	movzbl 0xb177(%rip),%eax        # 1168e <g_724>
    6517:	0f b6 c0             	movzbl %al,%eax
    651a:	83 c0 02             	add    $0x2,%eax
    651d:	09 f1                	or     %esi,%ecx
    651f:	48 98                	cltq   
    6521:	48 63 d2             	movslq %edx,%rdx
    6524:	48 c1 e2 03          	shl    $0x3,%rdx
    6528:	48 01 c2             	add    %rax,%rdx
    652b:	48 8d 05 0e ab 00 00 	lea    0xab0e(%rip),%rax        # 11040 <g_92>
    6532:	48 01 d0             	add    %rdx,%rax
    6535:	88 08                	mov    %cl,(%rax)
    6537:	48 8b 05 b2 c7 00 00 	mov    0xc7b2(%rip),%rax        # 12cf0 <g_1026>
    653e:	c7 00 01 00 00 00    	movl   $0x1,(%rax)
    6544:	48 8b 15 9d c7 00 00 	mov    0xc79d(%rip),%rdx        # 12ce8 <g_816>
    654b:	48 8b 05 96 c7 00 00 	mov    0xc796(%rip),%rax        # 12ce8 <g_816>
    6552:	48 8b 12             	mov    (%rdx),%rdx
    6555:	48 89 10             	mov    %rdx,(%rax)
    6558:	0f b7 05 27 b1 00 00 	movzwl 0xb127(%rip),%eax        # 11686 <g_647+0x6>
    655f:	98                   	cwtl   
    6560:	89 c6                	mov    %eax,%esi
    6562:	bf 06 00 00 00       	mov    $0x6,%edi
    6567:	e8 47 de ff ff       	callq  43b3 <safe_add_func_int16_t_s_s>
    656c:	98                   	cwtl   
    656d:	89 85 6c f5 ff ff    	mov    %eax,-0xa94(%rbp)
    6573:	48 83 bd a8 f6 ff ff 	cmpq   $0x0,-0x958(%rbp)
    657a:	00 
    657b:	0f 94 c0             	sete   %al
    657e:	44 0f b6 f0          	movzbl %al,%r14d
    6582:	0f bf 9d 64 f5 ff ff 	movswl -0xa9c(%rbp),%ebx
    6589:	8b 85 8c f5 ff ff    	mov    -0xa74(%rbp),%eax
    658f:	44 0f bf e0          	movswl %ax,%r12d
    6593:	8b 05 73 80 00 00    	mov    0x8073(%rip),%eax        # e60c <l_1033.4181+0xc>
    6599:	41 89 c7             	mov    %eax,%r15d
    659c:	8b 05 1a b1 00 00    	mov    0xb11a(%rip),%eax        # 116bc <g_948+0x4>
    65a2:	44 0f be e8          	movsbl %al,%r13d
    65a6:	8b 85 60 f5 ff ff    	mov    -0xaa0(%rbp),%eax
    65ac:	48 63 f8             	movslq %eax,%rdi
    65af:	8b 85 6c f5 ff ff    	mov    -0xa94(%rbp),%eax
    65b5:	48 63 d0             	movslq %eax,%rdx
    65b8:	8b 05 b2 b0 00 00    	mov    0xb0b2(%rip),%eax        # 11670 <g_526>
    65be:	44 8d 40 01          	lea    0x1(%rax),%r8d
    65c2:	8b 05 a8 b0 00 00    	mov    0xb0a8(%rip),%eax        # 11670 <g_526>
    65c8:	44 8d 48 01          	lea    0x1(%rax),%r9d
    65cc:	44 89 c9             	mov    %r9d,%ecx
    65cf:	44 89 c0             	mov    %r8d,%eax
    65d2:	48 01 c0             	add    %rax,%rax
    65d5:	48 01 c8             	add    %rcx,%rax
    65d8:	48 8d 0c 00          	lea    (%rax,%rax,1),%rcx
    65dc:	48 8d 05 9d b0 00 00 	lea    0xb09d(%rip),%rax        # 11680 <g_647>
    65e3:	0f b7 04 01          	movzwl (%rcx,%rax,1),%eax
    65e7:	8d 70 ff             	lea    -0x1(%rax),%esi
    65ea:	44 89 c9             	mov    %r9d,%ecx
    65ed:	44 89 c0             	mov    %r8d,%eax
    65f0:	48 01 c0             	add    %rax,%rax
    65f3:	48 01 c8             	add    %rcx,%rax
    65f6:	48 8d 0c 00          	lea    (%rax,%rax,1),%rcx
    65fa:	48 8d 05 7f b0 00 00 	lea    0xb07f(%rip),%rax        # 11680 <g_647>
    6601:	66 89 34 01          	mov    %si,(%rcx,%rax,1)
    6605:	48 8b 85 00 f6 ff ff 	mov    -0xa00(%rbp),%rax
    660c:	48 3b 85 b0 f6 ff ff 	cmp    -0x950(%rbp),%rax
    6613:	0f 94 c0             	sete   %al
    6616:	0f b6 c0             	movzbl %al,%eax
    6619:	8b 0d ed 7f 00 00    	mov    0x7fed(%rip),%ecx        # e60c <l_1033.4181+0xc>
    661f:	41 89 ca             	mov    %ecx,%r10d
    6622:	48 8b 8d e4 f6 ff ff 	mov    -0x91c(%rbp),%rcx
    6629:	8b b5 ec f6 ff ff    	mov    -0x914(%rbp),%esi
    662f:	49 89 f9             	mov    %rdi,%r9
    6632:	41 89 f0             	mov    %esi,%r8d
    6635:	89 c6                	mov    %eax,%esi
    6637:	44 89 d7             	mov    %r10d,%edi
    663a:	e8 34 0f 00 00       	callq  7573 <func_29>
    663f:	8b 85 8c f5 ff ff    	mov    -0xa74(%rbp),%eax
    6645:	0f be c0             	movsbl %al,%eax
    6648:	44 89 ee             	mov    %r13d,%esi
    664b:	89 c7                	mov    %eax,%edi
    664d:	e8 c0 db ff ff       	callq  4212 <safe_mul_func_int8_t_s_s>
    6652:	0f be d0             	movsbl %al,%edx
    6655:	48 8b 85 c0 f6 ff ff 	mov    -0x940(%rbp),%rax
    665c:	89 10                	mov    %edx,(%rax)
    665e:	48 8b 85 c0 f6 ff ff 	mov    -0x940(%rbp),%rax
    6665:	8b 00                	mov    (%rax),%eax
    6667:	85 c0                	test   %eax,%eax
    6669:	75 0a                	jne    6675 <func_10+0x6e5>
    666b:	66 83 bd 64 f5 ff ff 	cmpw   $0x0,-0xa9c(%rbp)
    6672:	00 
    6673:	74 07                	je     667c <func_10+0x6ec>
    6675:	b8 01 00 00 00       	mov    $0x1,%eax
    667a:	eb 05                	jmp    6681 <func_10+0x6f1>
    667c:	b8 00 00 00 00       	mov    $0x0,%eax
    6681:	0f b7 d0             	movzwl %ax,%edx
    6684:	48 8b 05 d5 ce 00 00 	mov    0xced5(%rip),%rax        # 13560 <g_1051+0x80>
    668b:	48 89 85 78 f8 ff ff 	mov    %rax,-0x788(%rbp)
    6692:	48 8b 85 78 f8 ff ff 	mov    -0x788(%rbp),%rax
    6699:	48 39 85 b8 f6 ff ff 	cmp    %rax,-0x948(%rbp)
    66a0:	0f 95 c0             	setne  %al
    66a3:	0f b6 c0             	movzbl %al,%eax
    66a6:	89 d6                	mov    %edx,%esi
    66a8:	89 c7                	mov    %eax,%edi
    66aa:	e8 ad e6 ff ff       	callq  4d5c <safe_mod_func_uint16_t_u_u>
    66af:	0f b7 c0             	movzwl %ax,%eax
    66b2:	be 01 00 00 00       	mov    $0x1,%esi
    66b7:	89 c7                	mov    %eax,%edi
    66b9:	e8 3f e8 ff ff       	callq  4efd <safe_mod_func_uint32_t_u_u>
    66be:	8b 85 6c f5 ff ff    	mov    -0xa94(%rbp),%eax
    66c4:	85 c0                	test   %eax,%eax
    66c6:	75 0b                	jne    66d3 <func_10+0x743>
    66c8:	0f b6 05 63 a9 00 00 	movzbl 0xa963(%rip),%eax        # 11032 <g_90>
    66cf:	84 c0                	test   %al,%al
    66d1:	74 07                	je     66da <func_10+0x74a>
    66d3:	b8 01 00 00 00       	mov    $0x1,%eax
    66d8:	eb 05                	jmp    66df <func_10+0x74f>
    66da:	b8 00 00 00 00       	mov    $0x0,%eax
    66df:	89 c2                	mov    %eax,%edx
    66e1:	8b 85 d4 f5 ff ff    	mov    -0xa2c(%rbp),%eax
    66e7:	21 d0                	and    %edx,%eax
    66e9:	0f b7 c0             	movzwl %ax,%eax
    66ec:	44 89 fe             	mov    %r15d,%esi
    66ef:	89 c7                	mov    %eax,%edi
    66f1:	e8 84 e7 ff ff       	callq  4e7a <safe_rshift_func_uint16_t_u_u>
    66f6:	0f b7 d0             	movzwl %ax,%edx
    66f9:	8b 05 71 af 00 00    	mov    0xaf71(%rip),%eax        # 11670 <g_526>
    66ff:	39 c2                	cmp    %eax,%edx
    6701:	74 10                	je     6713 <func_10+0x783>
    6703:	83 bd 8c f5 ff ff 00 	cmpl   $0x0,-0xa74(%rbp)
    670a:	74 07                	je     6713 <func_10+0x783>
    670c:	b8 01 00 00 00       	mov    $0x1,%eax
    6711:	eb 05                	jmp    6718 <func_10+0x788>
    6713:	b8 00 00 00 00       	mov    $0x0,%eax
    6718:	48 98                	cltq   
    671a:	83 e0 03             	and    $0x3,%eax
    671d:	48 89 c2             	mov    %rax,%rdx
    6720:	8b 85 68 f5 ff ff    	mov    -0xa98(%rbp),%eax
    6726:	48 39 c2             	cmp    %rax,%rdx
    6729:	74 08                	je     6733 <func_10+0x7a3>
    672b:	8b 85 60 f5 ff ff    	mov    -0xaa0(%rbp),%eax
    6731:	85 c0                	test   %eax,%eax
    6733:	83 bd 68 f5 ff ff 05 	cmpl   $0x5,-0xa98(%rbp)
    673a:	0f 95 c0             	setne  %al
    673d:	0f b6 c0             	movzbl %al,%eax
    6740:	44 89 e6             	mov    %r12d,%esi
    6743:	89 c7                	mov    %eax,%edi
    6745:	e8 ab dc ff ff       	callq  43f5 <safe_mul_func_int16_t_s_s>
    674a:	89 c7                	mov    %eax,%edi
    674c:	8b 05 1e af 00 00    	mov    0xaf1e(%rip),%eax        # 11670 <g_526>
    6752:	8d 50 01             	lea    0x1(%rax),%edx
    6755:	8b 05 d1 a8 00 00    	mov    0xa8d1(%rip),%eax        # 1102c <g_49>
    675b:	8d 48 01             	lea    0x1(%rax),%ecx
    675e:	8b 05 0c af 00 00    	mov    0xaf0c(%rip),%eax        # 11670 <g_526>
    6764:	83 c0 01             	add    $0x1,%eax
    6767:	89 c6                	mov    %eax,%esi
    6769:	89 d2                	mov    %edx,%edx
    676b:	48 63 c9             	movslq %ecx,%rcx
    676e:	48 89 d0             	mov    %rdx,%rax
    6771:	48 c1 e0 03          	shl    $0x3,%rax
    6775:	48 29 d0             	sub    %rdx,%rax
    6778:	48 c1 e0 02          	shl    $0x2,%rax
    677c:	48 89 ca             	mov    %rcx,%rdx
    677f:	48 c1 e2 03          	shl    $0x3,%rdx
    6783:	48 29 ca             	sub    %rcx,%rdx
    6786:	48 01 d0             	add    %rdx,%rax
    6789:	48 01 f0             	add    %rsi,%rax
    678c:	48 8d 14 00          	lea    (%rax,%rax,1),%rdx
    6790:	48 8d 05 29 ac 00 00 	lea    0xac29(%rip),%rax        # 113c0 <g_160>
    6797:	0f b7 04 02          	movzwl (%rdx,%rax,1),%eax
    679b:	8b 15 cf ae 00 00    	mov    0xaecf(%rip),%edx        # 11670 <g_526>
    67a1:	44 8d 4a 01          	lea    0x1(%rdx),%r9d
    67a5:	8b 15 81 a8 00 00    	mov    0xa881(%rip),%edx        # 1102c <g_49>
    67ab:	8d 72 01             	lea    0x1(%rdx),%esi
    67ae:	8b 15 bc ae 00 00    	mov    0xaebc(%rip),%edx        # 11670 <g_526>
    67b4:	44 8d 52 01          	lea    0x1(%rdx),%r10d
    67b8:	31 c7                	xor    %eax,%edi
    67ba:	45 89 d0             	mov    %r10d,%r8d
    67bd:	44 89 ca             	mov    %r9d,%edx
    67c0:	48 63 ce             	movslq %esi,%rcx
    67c3:	48 89 d0             	mov    %rdx,%rax
    67c6:	48 c1 e0 03          	shl    $0x3,%rax
    67ca:	48 29 d0             	sub    %rdx,%rax
    67cd:	48 c1 e0 02          	shl    $0x2,%rax
    67d1:	48 89 ca             	mov    %rcx,%rdx
    67d4:	48 c1 e2 03          	shl    $0x3,%rdx
    67d8:	48 29 ca             	sub    %rcx,%rdx
    67db:	48 01 d0             	add    %rdx,%rax
    67de:	4c 01 c0             	add    %r8,%rax
    67e1:	48 8d 14 00          	lea    (%rax,%rax,1),%rdx
    67e5:	48 8d 05 d4 ab 00 00 	lea    0xabd4(%rip),%rax        # 113c0 <g_160>
    67ec:	66 89 3c 02          	mov    %di,(%rdx,%rax,1)
    67f0:	44 89 d7             	mov    %r10d,%edi
    67f3:	44 89 ca             	mov    %r9d,%edx
    67f6:	48 63 ce             	movslq %esi,%rcx
    67f9:	48 89 d0             	mov    %rdx,%rax
    67fc:	48 c1 e0 03          	shl    $0x3,%rax
    6800:	48 29 d0             	sub    %rdx,%rax
    6803:	48 c1 e0 02          	shl    $0x2,%rax
    6807:	48 89 ca             	mov    %rcx,%rdx
    680a:	48 c1 e2 03          	shl    $0x3,%rdx
    680e:	48 29 ca             	sub    %rcx,%rdx
    6811:	48 01 d0             	add    %rdx,%rax
    6814:	48 01 f8             	add    %rdi,%rax
    6817:	48 8d 14 00          	lea    (%rax,%rax,1),%rdx
    681b:	48 8d 05 9e ab 00 00 	lea    0xab9e(%rip),%rax        # 113c0 <g_160>
    6822:	0f b7 04 02          	movzwl (%rdx,%rax,1),%eax
    6826:	98                   	cwtl   
    6827:	89 de                	mov    %ebx,%esi
    6829:	89 c7                	mov    %eax,%edi
    682b:	e8 b1 dc ff ff       	callq  44e1 <safe_lshift_func_int16_t_s_u>
    6830:	98                   	cwtl   
    6831:	41 39 c6             	cmp    %eax,%r14d
    6834:	0f 8c be 01 00 00    	jl     69f8 <func_10+0xa68>
    683a:	48 8d 85 60 fc ff ff 	lea    -0x3a0(%rbp),%rax
    6841:	48 8d 15 58 b1 00 00 	lea    0xb158(%rip),%rdx        # 119a0 <g_1180+0x2d8>
    6848:	b9 3c 00 00 00       	mov    $0x3c,%ecx
    684d:	48 89 c7             	mov    %rax,%rdi
    6850:	48 89 d6             	mov    %rdx,%rsi
    6853:	f3 48 a5             	rep movsq %ds:(%rsi),%es:(%rdi)
    6856:	48 8d 85 60 fc ff ff 	lea    -0x3a0(%rbp),%rax
    685d:	48 05 a8 01 00 00    	add    $0x1a8,%rax
    6863:	48 89 85 d0 f6 ff ff 	mov    %rax,-0x930(%rbp)
    686a:	48 8d 05 18 ad 00 00 	lea    0xad18(%rip),%rax        # 11589 <g_162+0x1>
    6871:	48 89 85 d8 f6 ff ff 	mov    %rax,-0x928(%rbp)
    6878:	c7 85 10 fa ff ff 04 	movl   $0x78942b04,-0x5f0(%rbp)
    687f:	2b 94 78 
    6882:	c7 85 14 fa ff ff 04 	movl   $0x78942b04,-0x5ec(%rbp)
    6889:	2b 94 78 
    688c:	c7 85 18 fa ff ff 04 	movl   $0x78942b04,-0x5e8(%rbp)
    6893:	2b 94 78 
    6896:	c7 85 1c fa ff ff 04 	movl   $0x78942b04,-0x5e4(%rbp)
    689d:	2b 94 78 
    68a0:	c7 85 20 fa ff ff 04 	movl   $0x78942b04,-0x5e0(%rbp)
    68a7:	2b 94 78 
    68aa:	c7 85 24 fa ff ff 04 	movl   $0x78942b04,-0x5dc(%rbp)
    68b1:	2b 94 78 
    68b4:	c7 85 28 fa ff ff 04 	movl   $0x78942b04,-0x5d8(%rbp)
    68bb:	2b 94 78 
    68be:	c7 85 2c fa ff ff 04 	movl   $0x78942b04,-0x5d4(%rbp)
    68c5:	2b 94 78 
    68c8:	48 83 bd d0 f6 ff ff 	cmpq   $0x0,-0x930(%rbp)
    68cf:	00 
    68d0:	0f 94 c0             	sete   %al
    68d3:	0f b6 d0             	movzbl %al,%edx
    68d6:	48 8b 85 d8 f6 ff ff 	mov    -0x928(%rbp),%rax
    68dd:	0f b6 00             	movzbl (%rax),%eax
    68e0:	83 f0 01             	xor    $0x1,%eax
    68e3:	89 c1                	mov    %eax,%ecx
    68e5:	48 8b 85 d8 f6 ff ff 	mov    -0x928(%rbp),%rax
    68ec:	88 08                	mov    %cl,(%rax)
    68ee:	48 8b 85 d8 f6 ff ff 	mov    -0x928(%rbp),%rax
    68f5:	0f b6 00             	movzbl (%rax),%eax
    68f8:	0f b6 c0             	movzbl %al,%eax
    68fb:	39 c2                	cmp    %eax,%edx
    68fd:	0f 94 c0             	sete   %al
    6900:	0f b6 d8             	movzbl %al,%ebx
    6903:	48 8b 85 c0 f6 ff ff 	mov    -0x940(%rbp),%rax
    690a:	8b 00                	mov    (%rax),%eax
    690c:	4c 63 e0             	movslq %eax,%r12
    690f:	be 09 00 00 00       	mov    $0x9,%esi
    6914:	bf 8c d9 ff ff       	mov    $0xffffd98c,%edi
    6919:	e8 45 dc ff ff       	callq  4563 <safe_rshift_func_int16_t_s_u>
    691e:	48 0f bf c0          	movswq %ax,%rax
    6922:	4c 89 e6             	mov    %r12,%rsi
    6925:	48 89 c7             	mov    %rax,%rdi
    6928:	e8 7b df ff ff       	callq  48a8 <safe_sub_func_int64_t_s_s>
    692d:	0f b7 c0             	movzwl %ax,%eax
    6930:	89 de                	mov    %ebx,%esi
    6932:	89 c7                	mov    %eax,%edi
    6934:	e8 0f e5 ff ff       	callq  4e48 <safe_rshift_func_uint16_t_u_s>
    6939:	44 0f b7 e8          	movzwl %ax,%r13d
    693d:	0f bf 9d 64 f5 ff ff 	movswl -0xa9c(%rbp),%ebx
    6944:	0f b6 05 e7 a6 00 00 	movzbl 0xa6e7(%rip),%eax        # 11032 <g_90>
    694b:	44 0f be e0          	movsbl %al,%r12d
    694f:	0f bf 95 64 f5 ff ff 	movswl -0xa9c(%rbp),%edx
    6956:	8b 85 6c f5 ff ff    	mov    -0xa94(%rbp),%eax
    695c:	39 c2                	cmp    %eax,%edx
    695e:	0f 9c c0             	setl   %al
    6961:	0f b6 c0             	movzbl %al,%eax
    6964:	be fb ff 00 00       	mov    $0xfffb,%esi
    6969:	89 c7                	mov    %eax,%edi
    696b:	e8 8f e3 ff ff       	callq  4cff <safe_add_func_uint16_t_u_u>
    6970:	f7 d0                	not    %eax
    6972:	98                   	cwtl   
    6973:	44 89 e6             	mov    %r12d,%esi
    6976:	89 c7                	mov    %eax,%edi
    6978:	e8 36 da ff ff       	callq  43b3 <safe_add_func_int16_t_s_s>
    697d:	98                   	cwtl   
    697e:	89 de                	mov    %ebx,%esi
    6980:	89 c7                	mov    %eax,%edi
    6982:	e8 78 dd ff ff       	callq  46ff <safe_div_func_int32_t_s_s>
    6987:	41 39 c5             	cmp    %eax,%r13d
    698a:	0f 9d c0             	setge  %al
    698d:	0f b6 c0             	movzbl %al,%eax
    6990:	be 39 24 96 14       	mov    $0x14962439,%esi
    6995:	89 c7                	mov    %eax,%edi
    6997:	e8 69 dc ff ff       	callq  4605 <safe_sub_func_int32_t_s_s>
    699c:	48 63 d0             	movslq %eax,%rdx
    699f:	48 8b 05 9a ac 00 00 	mov    0xac9a(%rip),%rax        # 11640 <g_423+0x20>
    69a6:	48 39 c2             	cmp    %rax,%rdx
    69a9:	0f 95 c0             	setne  %al
    69ac:	0f b6 d0             	movzbl %al,%edx
    69af:	8b 85 60 f5 ff ff    	mov    -0xaa0(%rbp),%eax
    69b5:	21 c2                	and    %eax,%edx
    69b7:	0f bf 85 64 f5 ff ff 	movswl -0xa9c(%rbp),%eax
    69be:	39 c2                	cmp    %eax,%edx
    69c0:	0f 9d c0             	setge  %al
    69c3:	0f b6 d0             	movzbl %al,%edx
    69c6:	8b 85 60 f5 ff ff    	mov    -0xaa0(%rbp),%eax
    69cc:	39 c2                	cmp    %eax,%edx
    69ce:	0f 95 c0             	setne  %al
    69d1:	0f b6 c0             	movzbl %al,%eax
    69d4:	8b 95 2c fa ff ff    	mov    -0x5d4(%rbp),%edx
    69da:	21 d0                	and    %edx,%eax
    69dc:	0f b7 c0             	movzwl %ax,%eax
    69df:	be 00 00 00 00       	mov    $0x0,%esi
    69e4:	89 c7                	mov    %eax,%edi
    69e6:	e8 14 e3 ff ff       	callq  4cff <safe_add_func_uint16_t_u_u>
    69eb:	b8 01 00 00 00       	mov    $0x1,%eax
    69f0:	31 85 84 f5 ff ff    	xor    %eax,-0xa7c(%rbp)
    69f6:	eb 2c                	jmp    6a24 <func_10+0xa94>
    69f8:	48 b8 07 e6 ac 89 bd 	movabs $0x571257bd89ace607,%rax
    69ff:	57 12 57 
    6a02:	48 89 85 c8 f6 ff ff 	mov    %rax,-0x938(%rbp)
    6a09:	48 0f bf 85 64 f5 ff 	movswq -0xa9c(%rbp),%rax
    6a10:	ff 
    6a11:	48 39 85 c8 f6 ff ff 	cmp    %rax,-0x938(%rbp)
    6a18:	0f 97 c0             	seta   %al
    6a1b:	0f b6 c0             	movzbl %al,%eax
    6a1e:	89 85 8c f5 ff ff    	mov    %eax,-0xa74(%rbp)
    6a24:	8b 85 6c f5 ff ff    	mov    -0xa94(%rbp),%eax
    6a2a:	85 c0                	test   %eax,%eax
    6a2c:	75 22                	jne    6a50 <func_10+0xac0>
    6a2e:	eb 01                	jmp    6a31 <func_10+0xaa1>
    6a30:	90                   	nop
    6a31:	8b 05 39 ac 00 00    	mov    0xac39(%rip),%eax        # 11670 <g_526>
    6a37:	83 c0 01             	add    $0x1,%eax
    6a3a:	89 05 30 ac 00 00    	mov    %eax,0xac30(%rip)        # 11670 <g_526>
    6a40:	8b 05 2a ac 00 00    	mov    0xac2a(%rip),%eax        # 11670 <g_526>
    6a46:	85 c0                	test   %eax,%eax
    6a48:	0f 84 42 f9 ff ff    	je     6390 <func_10+0x400>
    6a4e:	eb 01                	jmp    6a51 <func_10+0xac1>
    6a50:	90                   	nop
    6a51:	0f b6 05 36 ac 00 00 	movzbl 0xac36(%rip),%eax        # 1168e <g_724>
    6a58:	83 c0 01             	add    $0x1,%eax
    6a5b:	88 05 2d ac 00 00    	mov    %al,0xac2d(%rip)        # 1168e <g_724>
    6a61:	0f b6 05 26 ac 00 00 	movzbl 0xac26(%rip),%eax        # 1168e <g_724>
    6a68:	3c 02                	cmp    $0x2,%al
    6a6a:	0f 86 3f f8 ff ff    	jbe    62af <func_10+0x31f>
    6a70:	eb 01                	jmp    6a73 <func_10+0xae3>
    6a72:	90                   	nop
    6a73:	48 8b 05 06 ab 00 00 	mov    0xab06(%rip),%rax        # 11580 <g_161>
    6a7a:	48 83 e8 01          	sub    $0x1,%rax
    6a7e:	48 89 05 fb aa 00 00 	mov    %rax,0xaafb(%rip)        # 11580 <g_161>
    6a85:	48 8b 05 f4 aa 00 00 	mov    0xaaf4(%rip),%rax        # 11580 <g_161>
    6a8c:	48 85 c0             	test   %rax,%rax
    6a8f:	0f 89 f6 f7 ff ff    	jns    628b <func_10+0x2fb>
    6a95:	bf 01 00 00 00       	mov    $0x1,%edi
    6a9a:	e8 a6 e0 ff ff       	callq  4b45 <safe_unary_minus_func_uint8_t_u>
    6a9f:	84 c0                	test   %al,%al
    6aa1:	75 0a                	jne    6aad <func_10+0xb1d>
    6aa3:	8b 05 63 7b 00 00    	mov    0x7b63(%rip),%eax        # e60c <l_1033.4181+0xc>
    6aa9:	85 c0                	test   %eax,%eax
    6aab:	74 07                	je     6ab4 <func_10+0xb24>
    6aad:	b8 01 00 00 00       	mov    $0x1,%eax
    6ab2:	eb 05                	jmp    6ab9 <func_10+0xb29>
    6ab4:	b8 00 00 00 00       	mov    $0x0,%eax
    6ab9:	48 63 d8             	movslq %eax,%rbx
    6abc:	48 c7 05 f1 a5 00 00 	movq   $0xffffffffffffffff,0xa5f1(%rip)        # 110b8 <g_106+0x38>
    6ac3:	ff ff ff ff 
    6ac7:	48 83 bd 08 f6 ff ff 	cmpq   $0x0,-0x9f8(%rbp)
    6ace:	00 
    6acf:	0f 95 c0             	setne  %al
    6ad2:	89 c2                	mov    %eax,%edx
    6ad4:	8b 85 84 f5 ff ff    	mov    -0xa7c(%rbp),%eax
    6ada:	21 d0                	and    %edx,%eax
    6adc:	0f be c0             	movsbl %al,%eax
    6adf:	be 03 00 00 00       	mov    $0x3,%esi
    6ae4:	89 c7                	mov    %eax,%edi
    6ae6:	e8 46 d7 ff ff       	callq  4231 <safe_mod_func_int8_t_s_s>
    6aeb:	48 8b 95 18 f6 ff ff 	mov    -0x9e8(%rbp),%rdx
    6af2:	88 02                	mov    %al,(%rdx)
    6af4:	48 8b 85 18 f6 ff ff 	mov    -0x9e8(%rbp),%rax
    6afb:	0f b6 00             	movzbl (%rax),%eax
    6afe:	44 0f be e0          	movsbl %al,%r12d
    6b02:	48 8b 05 cf c0 00 00 	mov    0xc0cf(%rip),%rax        # 12bd8 <g_204>
    6b09:	0f b7 10             	movzwl (%rax),%edx
    6b0c:	8d 4a 01             	lea    0x1(%rdx),%ecx
    6b0f:	66 89 08             	mov    %cx,(%rax)
    6b12:	0f b7 c2             	movzwl %dx,%eax
    6b15:	be 08 00 00 00       	mov    $0x8,%esi
    6b1a:	89 c7                	mov    %eax,%edi
    6b1c:	e8 59 e3 ff ff       	callq  4e7a <safe_rshift_func_uint16_t_u_u>
    6b21:	0f b7 c0             	movzwl %ax,%eax
    6b24:	41 39 c4             	cmp    %eax,%r12d
    6b27:	0f 9d c0             	setge  %al
    6b2a:	0f b6 c0             	movzbl %al,%eax
    6b2d:	48 89 de             	mov    %rbx,%rsi
    6b30:	48 89 c7             	mov    %rax,%rdi
    6b33:	e8 f6 e4 ff ff       	callq  502e <safe_add_func_uint64_t_u_u>
    6b38:	89 c2                	mov    %eax,%edx
    6b3a:	8b 85 78 f5 ff ff    	mov    -0xa88(%rbp),%eax
    6b40:	09 d0                	or     %edx,%eax
    6b42:	89 85 78 f5 ff ff    	mov    %eax,-0xa88(%rbp)
    6b48:	c7 05 d6 a4 00 00 01 	movl   $0x1,0xa4d6(%rip)        # 11028 <g_47>
    6b4f:	00 00 00 
    6b52:	e9 a8 09 00 00       	jmpq   74ff <func_10+0x156f>
    6b57:	48 c7 85 70 f8 ff ff 	movq   $0xffffffffffffffff,-0x790(%rbp)
    6b5e:	ff ff ff ff 
    6b62:	48 c7 85 78 f8 ff ff 	movq   $0xffffffffffffffff,-0x788(%rbp)
    6b69:	ff ff ff ff 
    6b6d:	48 c7 85 80 f8 ff ff 	movq   $0xffffffffffffffff,-0x780(%rbp)
    6b74:	ff ff ff ff 
    6b78:	48 c7 85 88 f8 ff ff 	movq   $0xffffffffffffffff,-0x778(%rbp)
    6b7f:	ff ff ff ff 
    6b83:	48 c7 85 90 f8 ff ff 	movq   $0xffffffffffffffff,-0x770(%rbp)
    6b8a:	ff ff ff ff 
    6b8e:	48 c7 85 98 f8 ff ff 	movq   $0xffffffffffffffff,-0x768(%rbp)
    6b95:	ff ff ff ff 
    6b99:	48 c7 85 a0 f8 ff ff 	movq   $0xffffffffffffffff,-0x760(%rbp)
    6ba0:	ff ff ff ff 
    6ba4:	48 c7 85 a8 f8 ff ff 	movq   $0xffffffffffffffff,-0x758(%rbp)
    6bab:	ff ff ff ff 
    6baf:	48 c7 85 b0 f8 ff ff 	movq   $0xffffffffffffffff,-0x750(%rbp)
    6bb6:	ff ff ff ff 
    6bba:	48 c7 85 b8 f8 ff ff 	movq   $0xffffffffffffffff,-0x748(%rbp)
    6bc1:	ff ff ff ff 
    6bc5:	48 c7 85 c0 f8 ff ff 	movq   $0xffffffffffffffff,-0x740(%rbp)
    6bcc:	ff ff ff ff 
    6bd0:	48 c7 85 c8 f8 ff ff 	movq   $0xffffffffffffffff,-0x738(%rbp)
    6bd7:	ff ff ff ff 
    6bdb:	48 c7 85 d0 f8 ff ff 	movq   $0xffffffffffffffff,-0x730(%rbp)
    6be2:	ff ff ff ff 
    6be6:	48 c7 85 d8 f8 ff ff 	movq   $0xffffffffffffffff,-0x728(%rbp)
    6bed:	ff ff ff ff 
    6bf1:	48 c7 85 e0 f8 ff ff 	movq   $0xffffffffffffffff,-0x720(%rbp)
    6bf8:	ff ff ff ff 
    6bfc:	48 c7 85 e8 f8 ff ff 	movq   $0xffffffffffffffff,-0x718(%rbp)
    6c03:	ff ff ff ff 
    6c07:	66 c7 85 74 f5 ff ff 	movw   $0xffff,-0xa8c(%rbp)
    6c0e:	ff ff 
    6c10:	0f b7 85 f0 f6 ff ff 	movzwl -0x910(%rbp),%eax
    6c17:	66 25 00 f0          	and    $0xf000,%ax
    6c1b:	83 c8 2f             	or     $0x2f,%eax
    6c1e:	66 89 85 f0 f6 ff ff 	mov    %ax,-0x910(%rbp)
    6c25:	c7 85 f4 f6 ff ff ff 	movl   $0xffffffff,-0x90c(%rbp)
    6c2c:	ff ff ff 
    6c2f:	0f b7 85 f8 f6 ff ff 	movzwl -0x908(%rbp),%eax
    6c36:	66 25 00 fe          	and    $0xfe00,%ax
    6c3a:	66 0d fa 01          	or     $0x1fa,%ax
    6c3e:	66 89 85 f8 f6 ff ff 	mov    %ax,-0x908(%rbp)
    6c45:	c7 85 7c f5 ff ff b5 	movl   $0xb0fae0b5,-0xa84(%rbp)
    6c4c:	e0 fa b0 
    6c4f:	c7 85 ac f5 ff ff ff 	movl   $0xffffffff,-0xa54(%rbp)
    6c56:	ff ff ff 
    6c59:	c7 85 b0 f5 ff ff 73 	movl   $0x3056c573,-0xa50(%rbp)
    6c60:	c5 56 30 
    6c63:	c7 85 b4 f5 ff ff 72 	movl   $0xe310c072,-0xa4c(%rbp)
    6c6a:	c0 10 e3 
    6c6d:	c7 85 b8 f5 ff ff 84 	movl   $0xd02cfa84,-0xa48(%rbp)
    6c74:	fa 2c d0 
    6c77:	c7 85 bc f5 ff ff ff 	movl   $0xffffffff,-0xa44(%rbp)
    6c7e:	ff ff ff 
    6c81:	48 b8 3c dc 27 f6 3f 	movabs $0x9e973d3ff627dc3c,%rax
    6c88:	3d 97 9e 
    6c8b:	48 89 85 30 f6 ff ff 	mov    %rax,-0x9d0(%rbp)
    6c92:	66 c7 05 c5 a3 00 00 	movw   $0x1,0xa3c5(%rip)        # 11060 <g_104>
    6c99:	01 00 
    6c9b:	e9 cc 00 00 00       	jmpq   6d6c <func_10+0xddc>
    6ca0:	0f b7 05 b9 a3 00 00 	movzwl 0xa3b9(%rip),%eax        # 11060 <g_104>
    6ca7:	98                   	cwtl   
    6ca8:	8d 48 02             	lea    0x2(%rax),%ecx
    6cab:	8b 05 7b a3 00 00    	mov    0xa37b(%rip),%eax        # 1102c <g_49>
    6cb1:	48 63 d0             	movslq %eax,%rdx
    6cb4:	48 63 c1             	movslq %ecx,%rax
    6cb7:	48 01 d0             	add    %rdx,%rax
    6cba:	48 8d 14 c5 00 00 00 	lea    0x0(,%rax,8),%rdx
    6cc1:	00 
    6cc2:	48 8d 05 b7 a3 00 00 	lea    0xa3b7(%rip),%rax        # 11080 <g_106>
    6cc9:	48 8b 1c 02          	mov    (%rdx,%rax,1),%rbx
    6ccd:	0f b7 05 8c a3 00 00 	movzwl 0xa38c(%rip),%eax        # 11060 <g_104>
    6cd4:	98                   	cwtl   
    6cd5:	8d 48 02             	lea    0x2(%rax),%ecx
    6cd8:	8b 05 4e a3 00 00    	mov    0xa34e(%rip),%eax        # 1102c <g_49>
    6cde:	48 63 d0             	movslq %eax,%rdx
    6ce1:	48 63 c1             	movslq %ecx,%rax
    6ce4:	48 01 d0             	add    %rdx,%rax
    6ce7:	48 8d 14 c5 00 00 00 	lea    0x0(,%rax,8),%rdx
    6cee:	00 
    6cef:	48 8d 05 8a a3 00 00 	lea    0xa38a(%rip),%rax        # 11080 <g_106>
    6cf6:	48 8b 04 02          	mov    (%rdx,%rax,1),%rax
    6cfa:	48 83 f8 f8          	cmp    $0xfffffffffffffff8,%rax
    6cfe:	0f 95 c0             	setne  %al
    6d01:	0f b6 c0             	movzbl %al,%eax
    6d04:	8b 95 68 f5 ff ff    	mov    -0xa98(%rbp),%edx
    6d0a:	89 d6                	mov    %edx,%esi
    6d0c:	89 c7                	mov    %eax,%edi
    6d0e:	e8 f3 e0 ff ff       	callq  4e06 <safe_lshift_func_uint16_t_u_u>
    6d13:	48 8b 05 ae be 00 00 	mov    0xbeae(%rip),%rax        # 12bc8 <g_107>
    6d1a:	48 8b 00             	mov    (%rax),%rax
    6d1d:	48 c1 e8 3f          	shr    $0x3f,%rax
    6d21:	89 c2                	mov    %eax,%edx
    6d23:	48 8b 85 e8 f5 ff ff 	mov    -0xa18(%rbp),%rax
    6d2a:	0f b6 d2             	movzbl %dl,%edx
    6d2d:	48 89 10             	mov    %rdx,(%rax)
    6d30:	48 8b 00             	mov    (%rax),%rax
    6d33:	48 83 f8 ff          	cmp    $0xffffffffffffffff,%rax
    6d37:	0f 94 c0             	sete   %al
    6d3a:	0f b6 d0             	movzbl %al,%edx
    6d3d:	0f bf 85 64 f5 ff ff 	movswl -0xa9c(%rbp),%eax
    6d44:	39 c2                	cmp    %eax,%edx
    6d46:	0f 95 c0             	setne  %al
    6d49:	0f b6 c0             	movzbl %al,%eax
    6d4c:	48 39 c3             	cmp    %rax,%rbx
    6d4f:	0f 94 c0             	sete   %al
    6d52:	0f b6 c0             	movzbl %al,%eax
    6d55:	89 85 6c f5 ff ff    	mov    %eax,-0xa94(%rbp)
    6d5b:	0f b7 05 fe a2 00 00 	movzwl 0xa2fe(%rip),%eax        # 11060 <g_104>
    6d62:	83 e8 01             	sub    $0x1,%eax
    6d65:	66 89 05 f4 a2 00 00 	mov    %ax,0xa2f4(%rip)        # 11060 <g_104>
    6d6c:	0f b7 05 ed a2 00 00 	movzwl 0xa2ed(%rip),%eax        # 11060 <g_104>
    6d73:	66 85 c0             	test   %ax,%ax
    6d76:	0f 89 24 ff ff ff    	jns    6ca0 <func_10+0xd10>
    6d7c:	48 8b 05 fd be 00 00 	mov    0xbefd(%rip),%rax        # 12c80 <g_213>
    6d83:	48 8d 95 78 f5 ff ff 	lea    -0xa88(%rbp),%rdx
    6d8a:	48 89 10             	mov    %rdx,(%rax)
    6d8d:	c7 05 29 c7 00 00 00 	movl   $0x0,0xc729(%rip)        # 134c0 <g_872>
    6d94:	00 00 00 
    6d97:	e9 82 00 00 00       	jmpq   6e1e <func_10+0xe8e>
    6d9c:	48 c7 05 21 a3 00 00 	movq   $0x7,0xa321(%rip)        # 110c8 <g_110>
    6da3:	07 00 00 00 
    6da7:	eb 2c                	jmp    6dd5 <func_10+0xe45>
    6da9:	66 c7 85 76 f5 ff ff 	movw   $0x1,-0xa8a(%rbp)
    6db0:	01 00 
    6db2:	0f b7 85 76 f5 ff ff 	movzwl -0xa8a(%rbp),%eax
    6db9:	83 c0 01             	add    $0x1,%eax
    6dbc:	66 89 85 76 f5 ff ff 	mov    %ax,-0xa8a(%rbp)
    6dc3:	48 8b 05 fe a2 00 00 	mov    0xa2fe(%rip),%rax        # 110c8 <g_110>
    6dca:	48 83 e8 01          	sub    $0x1,%rax
    6dce:	48 89 05 f3 a2 00 00 	mov    %rax,0xa2f3(%rip)        # 110c8 <g_110>
    6dd5:	48 8b 05 ec a2 00 00 	mov    0xa2ec(%rip),%rax        # 110c8 <g_110>
    6ddc:	48 85 c0             	test   %rax,%rax
    6ddf:	7f c8                	jg     6da9 <func_10+0xe19>
    6de1:	48 8b 05 f8 be 00 00 	mov    0xbef8(%rip),%rax        # 12ce0 <g_673>
    6de8:	48 8b 00             	mov    (%rax),%rax
    6deb:	48 8b 00             	mov    (%rax),%rax
    6dee:	48 8b 00             	mov    (%rax),%rax
    6df1:	48 8d 95 6c f5 ff ff 	lea    -0xa94(%rbp),%rdx
    6df8:	48 89 10             	mov    %rdx,(%rax)
    6dfb:	48 8b 15 96 be 00 00 	mov    0xbe96(%rip),%rdx        # 12c98 <g_309>
    6e02:	48 8b 05 d7 bf 00 00 	mov    0xbfd7(%rip),%rax        # 12de0 <g_1106>
    6e09:	48 8b 12             	mov    (%rdx),%rdx
    6e0c:	48 89 10             	mov    %rdx,(%rax)
    6e0f:	8b 05 ab c6 00 00    	mov    0xc6ab(%rip),%eax        # 134c0 <g_872>
    6e15:	83 e8 01             	sub    $0x1,%eax
    6e18:	89 05 a2 c6 00 00    	mov    %eax,0xc6a2(%rip)        # 134c0 <g_872>
    6e1e:	8b 05 9c c6 00 00    	mov    0xc69c(%rip),%eax        # 134c0 <g_872>
    6e24:	85 c0                	test   %eax,%eax
    6e26:	0f 89 70 ff ff ff    	jns    6d9c <func_10+0xe0c>
    6e2c:	66 c7 05 5b a8 00 00 	movw   $0x0,0xa85b(%rip)        # 11690 <g_815>
    6e33:	00 00 
    6e35:	e9 a6 06 00 00       	jmpq   74e0 <func_10+0x1550>
    6e3a:	66 c7 85 70 f5 ff ff 	movw   $0x0,-0xa90(%rbp)
    6e41:	00 00 
    6e43:	48 8d 85 e8 f5 ff ff 	lea    -0xa18(%rbp),%rax
    6e4a:	48 89 85 38 f6 ff ff 	mov    %rax,-0x9c8(%rbp)
    6e51:	c7 85 c0 f5 ff ff e2 	movl   $0x991e7ae2,-0xa40(%rbp)
    6e58:	7a 1e 99 
    6e5b:	48 8d 85 10 fa ff ff 	lea    -0x5f0(%rbp),%rax
    6e62:	48 8d 15 17 72 00 00 	lea    0x7217(%rip),%rdx        # e080 <g_67+0x20>
    6e69:	b9 49 00 00 00       	mov    $0x49,%ecx
    6e6e:	48 89 c7             	mov    %rax,%rdi
    6e71:	48 89 d6             	mov    %rdx,%rsi
    6e74:	f3 48 a5             	rep movsq %ds:(%rsi),%es:(%rdi)
    6e77:	48 89 f2             	mov    %rsi,%rdx
    6e7a:	48 89 f8             	mov    %rdi,%rax
    6e7d:	8b 0a                	mov    (%rdx),%ecx
    6e7f:	89 08                	mov    %ecx,(%rax)
    6e81:	48 8d 40 04          	lea    0x4(%rax),%rax
    6e85:	48 8d 52 04          	lea    0x4(%rdx),%rdx
    6e89:	0f b7 85 00 f7 ff ff 	movzwl -0x900(%rbp),%eax
    6e90:	66 25 00 f0          	and    $0xf000,%ax
    6e94:	66 0d df 0f          	or     $0xfdf,%ax
    6e98:	66 89 85 00 f7 ff ff 	mov    %ax,-0x900(%rbp)
    6e9f:	c7 85 04 f7 ff ff 09 	movl   $0x9,-0x8fc(%rbp)
    6ea6:	00 00 00 
    6ea9:	0f b7 85 08 f7 ff ff 	movzwl -0x8f8(%rbp),%eax
    6eb0:	66 25 00 fe          	and    $0xfe00,%ax
    6eb4:	83 c8 12             	or     $0x12,%eax
    6eb7:	66 89 85 08 f7 ff ff 	mov    %ax,-0x8f8(%rbp)
    6ebe:	c7 85 10 f7 ff ff 78 	movl   $0x79db6378,-0x8f0(%rbp)
    6ec5:	63 db 79 
    6ec8:	c7 85 14 f7 ff ff 04 	movl   $0x4,-0x8ec(%rbp)
    6ecf:	00 00 00 
    6ed2:	c7 85 18 f7 ff ff 04 	movl   $0x4,-0x8e8(%rbp)
    6ed9:	00 00 00 
    6edc:	c7 85 1c f7 ff ff 78 	movl   $0x79db6378,-0x8e4(%rbp)
    6ee3:	63 db 79 
    6ee6:	c7 85 20 f7 ff ff 04 	movl   $0x4,-0x8e0(%rbp)
    6eed:	00 00 00 
    6ef0:	c7 85 24 f7 ff ff 04 	movl   $0x4,-0x8dc(%rbp)
    6ef7:	00 00 00 
    6efa:	c7 85 28 f7 ff ff 78 	movl   $0x79db6378,-0x8d8(%rbp)
    6f01:	63 db 79 
    6f04:	c7 85 2c f7 ff ff 04 	movl   $0x4,-0x8d4(%rbp)
    6f0b:	00 00 00 
    6f0e:	c7 85 e8 f6 ff ff 00 	movl   $0x0,-0x918(%rbp)
    6f15:	00 00 00 
    6f18:	90                   	nop
    6f19:	8b 85 e8 f6 ff ff    	mov    -0x918(%rbp),%eax
    6f1f:	83 f8 01             	cmp    $0x1,%eax
    6f22:	0f 8f 94 03 00 00    	jg     72bc <func_10+0x132c>
    6f28:	48 8d 05 41 a7 00 00 	lea    0xa741(%rip),%rax        # 11670 <g_526>
    6f2f:	48 89 85 a0 f7 ff ff 	mov    %rax,-0x860(%rbp)
    6f36:	48 8d 05 33 a7 00 00 	lea    0xa733(%rip),%rax        # 11670 <g_526>
    6f3d:	48 89 85 a8 f7 ff ff 	mov    %rax,-0x858(%rbp)
    6f44:	48 8d 05 d9 a0 00 00 	lea    0xa0d9(%rip),%rax        # 11024 <g_43>
    6f4b:	48 89 85 b0 f7 ff ff 	mov    %rax,-0x850(%rbp)
    6f52:	48 8d 05 17 a7 00 00 	lea    0xa717(%rip),%rax        # 11670 <g_526>
    6f59:	48 89 85 b8 f7 ff ff 	mov    %rax,-0x848(%rbp)
    6f60:	48 8d 05 09 a7 00 00 	lea    0xa709(%rip),%rax        # 11670 <g_526>
    6f67:	48 89 85 c0 f7 ff ff 	mov    %rax,-0x840(%rbp)
    6f6e:	48 8d 05 af a0 00 00 	lea    0xa0af(%rip),%rax        # 11024 <g_43>
    6f75:	48 89 85 c8 f7 ff ff 	mov    %rax,-0x838(%rbp)
    6f7c:	48 8d 05 ed a6 00 00 	lea    0xa6ed(%rip),%rax        # 11670 <g_526>
    6f83:	48 89 85 d0 f7 ff ff 	mov    %rax,-0x830(%rbp)
    6f8a:	48 8d 05 df a6 00 00 	lea    0xa6df(%rip),%rax        # 11670 <g_526>
    6f91:	48 89 85 d8 f7 ff ff 	mov    %rax,-0x828(%rbp)
    6f98:	48 8d 05 85 a0 00 00 	lea    0xa085(%rip),%rax        # 11024 <g_43>
    6f9f:	48 89 85 e0 f7 ff ff 	mov    %rax,-0x820(%rbp)
    6fa6:	48 8d 85 70 f5 ff ff 	lea    -0xa90(%rbp),%rax
    6fad:	48 89 85 60 fc ff ff 	mov    %rax,-0x3a0(%rbp)
    6fb4:	48 8d 85 70 f5 ff ff 	lea    -0xa90(%rbp),%rax
    6fbb:	48 89 85 68 fc ff ff 	mov    %rax,-0x398(%rbp)
    6fc2:	48 8d 05 97 a0 00 00 	lea    0xa097(%rip),%rax        # 11060 <g_104>
    6fc9:	48 89 85 70 fc ff ff 	mov    %rax,-0x390(%rbp)
    6fd0:	48 8d 85 70 f5 ff ff 	lea    -0xa90(%rbp),%rax
    6fd7:	48 89 85 78 fc ff ff 	mov    %rax,-0x388(%rbp)
    6fde:	48 8d 85 70 f5 ff ff 	lea    -0xa90(%rbp),%rax
    6fe5:	48 89 85 80 fc ff ff 	mov    %rax,-0x380(%rbp)
    6fec:	48 8d 05 6d a0 00 00 	lea    0xa06d(%rip),%rax        # 11060 <g_104>
    6ff3:	48 89 85 88 fc ff ff 	mov    %rax,-0x378(%rbp)
    6ffa:	48 8d 85 70 f5 ff ff 	lea    -0xa90(%rbp),%rax
    7001:	48 89 85 90 fc ff ff 	mov    %rax,-0x370(%rbp)
    7008:	48 8d 85 70 f5 ff ff 	lea    -0xa90(%rbp),%rax
    700f:	48 89 85 98 fc ff ff 	mov    %rax,-0x368(%rbp)
    7016:	48 8d 05 43 a0 00 00 	lea    0xa043(%rip),%rax        # 11060 <g_104>
    701d:	48 89 85 a0 fc ff ff 	mov    %rax,-0x360(%rbp)
    7024:	c7 85 80 f5 ff ff 00 	movl   $0x0,-0xa80(%rbp)
    702b:	00 00 00 
    702e:	66 c7 85 80 f5 ff ff 	movw   $0xef6f,-0xa80(%rbp)
    7035:	6f ef 
    7037:	c7 85 94 f5 ff ff 00 	movl   $0x0,-0xa6c(%rbp)
    703e:	00 00 00 
    7041:	eb 22                	jmp    7065 <func_10+0x10d5>
    7043:	8b 85 94 f5 ff ff    	mov    -0xa6c(%rbp),%eax
    7049:	48 98                	cltq   
    704b:	48 8d 95 60 fc ff ff 	lea    -0x3a0(%rbp),%rdx
    7052:	48 83 c2 30          	add    $0x30,%rdx
    7056:	48 89 94 c5 30 f7 ff 	mov    %rdx,-0x8d0(%rbp,%rax,8)
    705d:	ff 
    705e:	83 85 94 f5 ff ff 01 	addl   $0x1,-0xa6c(%rbp)
    7065:	83 bd 94 f5 ff ff 04 	cmpl   $0x4,-0xa6c(%rbp)
    706c:	7e d5                	jle    7043 <func_10+0x10b3>
    706e:	66 c7 05 b9 9f 00 00 	movw   $0x0,0x9fb9(%rip)        # 11030 <g_84>
    7075:	00 00 
    7077:	e9 a2 00 00 00       	jmpq   711e <func_10+0x118e>
    707c:	0f b7 05 0d a6 00 00 	movzwl 0xa60d(%rip),%eax        # 11690 <g_815>
    7083:	0f b7 c0             	movzwl %ax,%eax
    7086:	8d 48 07             	lea    0x7(%rax),%ecx
    7089:	8b 05 9d 9f 00 00    	mov    0x9f9d(%rip),%eax        # 1102c <g_49>
    708f:	48 63 d0             	movslq %eax,%rdx
    7092:	48 63 c1             	movslq %ecx,%rax
    7095:	48 01 d0             	add    %rdx,%rax
    7098:	48 8d 14 c5 00 00 00 	lea    0x0(,%rax,8),%rdx
    709f:	00 
    70a0:	48 8d 05 d9 9f 00 00 	lea    0x9fd9(%rip),%rax        # 11080 <g_106>
    70a7:	48 8b 14 02          	mov    (%rdx,%rax,1),%rdx
    70ab:	48 8b 05 fe bb 00 00 	mov    0xbbfe(%rip),%rax        # 12cb0 <g_515>
    70b2:	48 8b 00             	mov    (%rax),%rax
    70b5:	89 10                	mov    %edx,(%rax)
    70b7:	0f b7 05 72 9f 00 00 	movzwl 0x9f72(%rip),%eax        # 11030 <g_84>
    70be:	0f b7 c0             	movzwl %ax,%eax
    70c1:	8d 50 04             	lea    0x4(%rax),%edx
    70c4:	8b 85 e8 f6 ff ff    	mov    -0x918(%rbp),%eax
    70ca:	83 c0 06             	add    $0x6,%eax
    70cd:	48 63 c8             	movslq %eax,%rcx
    70d0:	48 63 d2             	movslq %edx,%rdx
    70d3:	48 89 d0             	mov    %rdx,%rax
    70d6:	48 c1 e0 03          	shl    $0x3,%rax
    70da:	48 01 d0             	add    %rdx,%rax
    70dd:	48 01 c8             	add    %rcx,%rax
    70e0:	48 8d 14 c5 00 00 00 	lea    0x0(,%rax,8),%rdx
    70e7:	00 
    70e8:	48 8d 05 f1 9f 00 00 	lea    0x9ff1(%rip),%rax        # 110e0 <g_134>
    70ef:	48 8b 04 02          	mov    (%rdx,%rax,1),%rax
    70f3:	48 85 c0             	test   %rax,%rax
    70f6:	75 38                	jne    7130 <func_10+0x11a0>
    70f8:	48 8b 05 d1 bb 00 00 	mov    0xbbd1(%rip),%rax        # 12cd0 <g_675>
    70ff:	48 8b 00             	mov    (%rax),%rax
    7102:	48 8b 00             	mov    (%rax),%rax
    7105:	8b 95 60 f5 ff ff    	mov    -0xaa0(%rbp),%edx
    710b:	89 10                	mov    %edx,(%rax)
    710d:	0f b7 05 1c 9f 00 00 	movzwl 0x9f1c(%rip),%eax        # 11030 <g_84>
    7114:	83 c0 01             	add    $0x1,%eax
    7117:	66 89 05 12 9f 00 00 	mov    %ax,0x9f12(%rip)        # 11030 <g_84>
    711e:	0f b7 05 0b 9f 00 00 	movzwl 0x9f0b(%rip),%eax        # 11030 <g_84>
    7125:	66 85 c0             	test   %ax,%ax
    7128:	0f 84 4e ff ff ff    	je     707c <func_10+0x10ec>
    712e:	eb 01                	jmp    7131 <func_10+0x11a1>
    7130:	90                   	nop
    7131:	48 8b 85 c8 f8 ff ff 	mov    -0x738(%rbp),%rax
    7138:	0f b7 c0             	movzwl %ax,%eax
    713b:	89 c7                	mov    %eax,%edi
    713d:	e8 a7 db ff ff       	callq  4ce9 <safe_unary_minus_func_uint16_t_u>
    7142:	48 8b 05 57 bb 00 00 	mov    0xbb57(%rip),%rax        # 12ca0 <g_321>
    7149:	48 8b 00             	mov    (%rax),%rax
    714c:	48 39 85 10 f6 ff ff 	cmp    %rax,-0x9f0(%rbp)
    7153:	74 0a                	je     715f <func_10+0x11cf>
    7155:	66 83 bd 64 f5 ff ff 	cmpw   $0x0,-0xa9c(%rbp)
    715c:	00 
    715d:	74 07                	je     7166 <func_10+0x11d6>
    715f:	be 01 00 00 00       	mov    $0x1,%esi
    7164:	eb 05                	jmp    716b <func_10+0x11db>
    7166:	be 00 00 00 00       	mov    $0x0,%esi
    716b:	8b 05 b7 9e 00 00    	mov    0x9eb7(%rip),%eax        # 11028 <g_47>
    7171:	8d 48 06             	lea    0x6(%rax),%ecx
    7174:	0f b7 05 15 a5 00 00 	movzwl 0xa515(%rip),%eax        # 11690 <g_815>
    717b:	0f b7 c0             	movzwl %ax,%eax
    717e:	48 63 d0             	movslq %eax,%rdx
    7181:	48 63 c1             	movslq %ecx,%rax
    7184:	48 01 d0             	add    %rdx,%rax
    7187:	48 8d 14 c5 00 00 00 	lea    0x0(,%rax,8),%rdx
    718e:	00 
    718f:	48 8d 05 ea 9e 00 00 	lea    0x9eea(%rip),%rax        # 11080 <g_106>
    7196:	48 8b 04 02          	mov    (%rdx,%rax,1),%rax
    719a:	48 3d 38 01 ad 61    	cmp    $0x61ad0138,%rax
    71a0:	0f 95 c0             	setne  %al
    71a3:	0f b6 d0             	movzbl %al,%edx
    71a6:	0f b7 85 70 f5 ff ff 	movzwl -0xa90(%rbp),%eax
    71ad:	98                   	cwtl   
    71ae:	39 c2                	cmp    %eax,%edx
    71b0:	0f 9e c0             	setle  %al
    71b3:	0f b6 d0             	movzbl %al,%edx
    71b6:	48 8b 05 3b a0 00 00 	mov    0xa03b(%rip),%rax        # 111f8 <g_134+0x118>
    71bd:	48 39 c2             	cmp    %rax,%rdx
    71c0:	74 0a                	je     71cc <func_10+0x123c>
    71c2:	8b 85 60 f5 ff ff    	mov    -0xaa0(%rbp),%eax
    71c8:	85 c0                	test   %eax,%eax
    71ca:	74 07                	je     71d3 <func_10+0x1243>
    71cc:	b8 01 00 00 00       	mov    $0x1,%eax
    71d1:	eb 05                	jmp    71d8 <func_10+0x1248>
    71d3:	b8 00 00 00 00       	mov    $0x0,%eax
    71d8:	66 89 85 72 f5 ff ff 	mov    %ax,-0xa8e(%rbp)
    71df:	66 83 bd 72 f5 ff ff 	cmpw   $0x0,-0xa8e(%rbp)
    71e6:	00 
    71e7:	48 c7 05 f6 bb 00 00 	movq   $0x0,0xbbf6(%rip)        # 12de8 <g_1120>
    71ee:	00 00 00 00 
    71f2:	48 8b 05 ef bb 00 00 	mov    0xbbef(%rip),%rax        # 12de8 <g_1120>
    71f9:	48 89 05 f0 bb 00 00 	mov    %rax,0xbbf0(%rip)        # 12df0 <g_1121>
    7200:	48 8b 15 e9 bb 00 00 	mov    0xbbe9(%rip),%rdx        # 12df0 <g_1121>
    7207:	48 8b 85 50 f8 ff ff 	mov    -0x7b0(%rbp),%rax
    720e:	48 39 c2             	cmp    %rax,%rdx
    7211:	0f 95 c0             	setne  %al
    7214:	0f b6 c0             	movzbl %al,%eax
    7217:	39 c6                	cmp    %eax,%esi
    7219:	7e 07                	jle    7222 <func_10+0x1292>
    721b:	b8 01 00 00 00       	mov    $0x1,%eax
    7220:	eb 05                	jmp    7227 <func_10+0x1297>
    7222:	b8 00 00 00 00       	mov    $0x0,%eax
    7227:	84 c0                	test   %al,%al
    7229:	74 1a                	je     7245 <func_10+0x12b5>
    722b:	66 83 bd 74 f5 ff ff 	cmpw   $0x0,-0xa8c(%rbp)
    7232:	00 
    7233:	74 10                	je     7245 <func_10+0x12b5>
    7235:	83 bd 68 f5 ff ff 00 	cmpl   $0x0,-0xa98(%rbp)
    723c:	74 07                	je     7245 <func_10+0x12b5>
    723e:	b8 01 00 00 00       	mov    $0x1,%eax
    7243:	eb 05                	jmp    724a <func_10+0x12ba>
    7245:	b8 00 00 00 00       	mov    $0x0,%eax
    724a:	83 f8 05             	cmp    $0x5,%eax
    724d:	0f 95 c0             	setne  %al
    7250:	0f b6 c0             	movzbl %al,%eax
    7253:	be 06 00 00 00       	mov    $0x6,%esi
    7258:	89 c7                	mov    %eax,%edi
    725a:	e8 d6 d0 ff ff       	callq  4335 <safe_rshift_func_int8_t_s_s>
    725f:	66 98                	cbtw   
    7261:	66 39 85 64 f5 ff ff 	cmp    %ax,-0xa9c(%rbp)
    7268:	0f 95 c0             	setne  %al
    726b:	0f b6 c0             	movzbl %al,%eax
    726e:	48 89 05 53 9e 00 00 	mov    %rax,0x9e53(%rip)        # 110c8 <g_110>
    7275:	83 bd 68 f5 ff ff 00 	cmpl   $0x0,-0xa98(%rbp)
    727c:	74 0b                	je     7289 <func_10+0x12f9>
    727e:	8b 85 80 f5 ff ff    	mov    -0xa80(%rbp),%eax
    7284:	e9 c4 02 00 00       	jmpq   754d <func_10+0x15bd>
    7289:	c7 85 f8 f5 ff ff 00 	movl   $0x0,-0xa08(%rbp)
    7290:	00 00 00 
    7293:	66 c7 85 f8 f5 ff ff 	movw   $0x7109,-0xa08(%rbp)
    729a:	09 71 
    729c:	0f bf 95 64 f5 ff ff 	movswl -0xa9c(%rbp),%edx
    72a3:	8b 85 6c f5 ff ff    	mov    -0xa94(%rbp),%eax
    72a9:	21 d0                	and    %edx,%eax
    72ab:	89 85 6c f5 ff ff    	mov    %eax,-0xa94(%rbp)
    72b1:	8b 85 f8 f5 ff ff    	mov    -0xa08(%rbp),%eax
    72b7:	e9 91 02 00 00       	jmpq   754d <func_10+0x15bd>
    72bc:	66 c7 05 9b 9d 00 00 	movw   $0x0,0x9d9b(%rip)        # 11060 <g_104>
    72c3:	00 00 
    72c5:	e9 f4 01 00 00       	jmpq   74be <func_10+0x152e>
    72ca:	c7 85 c4 f5 ff ff c3 	movl   $0xde8f22c3,-0xa3c(%rbp)
    72d1:	22 8f de 
    72d4:	c7 85 c8 f5 ff ff ff 	movl   $0xffffffff,-0xa38(%rbp)
    72db:	ff ff ff 
    72de:	48 8d 85 7c f5 ff ff 	lea    -0xa84(%rbp),%rax
    72e5:	48 89 85 40 f6 ff ff 	mov    %rax,-0x9c0(%rbp)
    72ec:	48 8d 05 d1 a3 00 00 	lea    0xa3d1(%rip),%rax        # 116c4 <g_1073>
    72f3:	48 89 85 48 f6 ff ff 	mov    %rax,-0x9b8(%rbp)
    72fa:	48 c7 85 50 f6 ff ff 	movq   $0x0,-0x9b0(%rbp)
    7301:	00 00 00 00 
    7305:	48 c7 85 58 f6 ff ff 	movq   $0x0,-0x9a8(%rbp)
    730c:	00 00 00 00 
    7310:	48 c7 85 60 f6 ff ff 	movq   $0x0,-0x9a0(%rbp)
    7317:	00 00 00 00 
    731b:	48 8d 85 7c f5 ff ff 	lea    -0xa84(%rbp),%rax
    7322:	48 89 85 68 f6 ff ff 	mov    %rax,-0x998(%rbp)
    7329:	48 c7 85 70 f6 ff ff 	movq   $0x0,-0x990(%rbp)
    7330:	00 00 00 00 
    7334:	48 c7 85 78 f6 ff ff 	movq   $0x0,-0x988(%rbp)
    733b:	00 00 00 00 
    733f:	c7 85 98 f5 ff ff 00 	movl   $0x0,-0xa68(%rbp)
    7346:	00 00 00 
    7349:	eb 1e                	jmp    7369 <func_10+0x13d9>
    734b:	8b 85 98 f5 ff ff    	mov    -0xa68(%rbp),%eax
    7351:	48 98                	cltq   
    7353:	48 8d 95 78 f5 ff ff 	lea    -0xa88(%rbp),%rdx
    735a:	48 89 94 c5 a0 f7 ff 	mov    %rdx,-0x860(%rbp,%rax,8)
    7361:	ff 
    7362:	83 85 98 f5 ff ff 01 	addl   $0x1,-0xa68(%rbp)
    7369:	83 bd 98 f5 ff ff 02 	cmpl   $0x2,-0xa68(%rbp)
    7370:	7e d9                	jle    734b <func_10+0x13bb>
    7372:	0f b7 85 70 f5 ff ff 	movzwl -0xa90(%rbp),%eax
    7379:	66 85 c0             	test   %ax,%ax
    737c:	0f 95 c0             	setne  %al
    737f:	0f b6 d0             	movzbl %al,%edx
    7382:	8b 85 7c f5 ff ff    	mov    -0xa84(%rbp),%eax
    7388:	21 d0                	and    %edx,%eax
    738a:	89 85 7c f5 ff ff    	mov    %eax,-0xa84(%rbp)
    7390:	8b 85 7c f5 ff ff    	mov    -0xa84(%rbp),%eax
    7396:	c1 e0 0f             	shl    $0xf,%eax
    7399:	c1 f8 0f             	sar    $0xf,%eax
    739c:	25 ff ff 01 00       	and    $0x1ffff,%eax
    73a1:	89 c2                	mov    %eax,%edx
    73a3:	8b 85 f0 f5 ff ff    	mov    -0xa10(%rbp),%eax
    73a9:	25 00 00 fe ff       	and    $0xfffe0000,%eax
    73ae:	09 d0                	or     %edx,%eax
    73b0:	89 85 f0 f5 ff ff    	mov    %eax,-0xa10(%rbp)
    73b6:	c7 05 00 c1 00 00 00 	movl   $0x0,0xc100(%rip)        # 134c0 <g_872>
    73bd:	00 00 00 
    73c0:	eb 29                	jmp    73eb <func_10+0x145b>
    73c2:	48 8b 05 a7 c0 00 00 	mov    0xc0a7(%rip),%rax        # 13470 <g_174>
    73c9:	8b 08                	mov    (%rax),%ecx
    73cb:	8b 95 60 f5 ff ff    	mov    -0xaa0(%rbp),%edx
    73d1:	48 8b 05 98 c0 00 00 	mov    0xc098(%rip),%rax        # 13470 <g_174>
    73d8:	31 ca                	xor    %ecx,%edx
    73da:	89 10                	mov    %edx,(%rax)
    73dc:	8b 05 de c0 00 00    	mov    0xc0de(%rip),%eax        # 134c0 <g_872>
    73e2:	83 c0 01             	add    $0x1,%eax
    73e5:	89 05 d5 c0 00 00    	mov    %eax,0xc0d5(%rip)        # 134c0 <g_872>
    73eb:	8b 05 cf c0 00 00    	mov    0xc0cf(%rip),%eax        # 134c0 <g_872>
    73f1:	83 f8 01             	cmp    $0x1,%eax
    73f4:	7e cc                	jle    73c2 <func_10+0x1432>
    73f6:	83 ad 88 f5 ff ff 01 	subl   $0x1,-0xa78(%rbp)
    73fd:	66 c7 05 be a2 00 00 	movw   $0x1,0xa2be(%rip)        # 116c4 <g_1073>
    7404:	01 00 
    7406:	e9 92 00 00 00       	jmpq   749d <func_10+0x150d>
    740b:	c7 85 cc f5 ff ff fa 	movl   $0xfffffffa,-0xa34(%rbp)
    7412:	ff ff ff 
    7415:	48 8d 05 6f a2 00 00 	lea    0xa26f(%rip),%rax        # 1168b <g_722+0x3>
    741c:	48 89 85 80 f6 ff ff 	mov    %rax,-0x980(%rbp)
    7423:	48 8d 05 08 9c 00 00 	lea    0x9c08(%rip),%rax        # 11032 <g_90>
    742a:	48 89 85 88 f6 ff ff 	mov    %rax,-0x978(%rbp)
    7431:	48 8d 85 60 fc ff ff 	lea    -0x3a0(%rbp),%rax
    7438:	48 8d 15 41 a7 00 00 	lea    0xa741(%rip),%rdx        # 11b80 <g_1180+0x4b8>
    743f:	b9 6c 00 00 00       	mov    $0x6c,%ecx
    7444:	48 89 c7             	mov    %rax,%rdi
    7447:	48 89 d6             	mov    %rdx,%rsi
    744a:	f3 48 a5             	rep movsq %ds:(%rsi),%es:(%rdi)
    744d:	c7 85 d0 f5 ff ff 91 	movl   $0x85e56b91,-0xa30(%rbp)
    7454:	6b e5 85 
    7457:	48 8d 05 66 a2 00 00 	lea    0xa266(%rip),%rax        # 116c4 <g_1073>
    745e:	48 89 85 f8 f5 ff ff 	mov    %rax,-0xa08(%rbp)
    7465:	48 c7 85 90 f6 ff ff 	movq   $0x0,-0x970(%rbp)
    746c:	00 00 00 00 
    7470:	48 8d 85 f8 f5 ff ff 	lea    -0xa08(%rbp),%rax
    7477:	48 89 85 98 f6 ff ff 	mov    %rax,-0x968(%rbp)
    747e:	48 8d 05 0b b8 00 00 	lea    0xb80b(%rip),%rax        # 12c90 <g_310>
    7485:	48 89 85 a0 f6 ff ff 	mov    %rax,-0x960(%rbp)
    748c:	0f b7 05 31 a2 00 00 	movzwl 0xa231(%rip),%eax        # 116c4 <g_1073>
    7493:	83 e8 01             	sub    $0x1,%eax
    7496:	66 89 05 27 a2 00 00 	mov    %ax,0xa227(%rip)        # 116c4 <g_1073>
    749d:	0f b7 05 20 a2 00 00 	movzwl 0xa220(%rip),%eax        # 116c4 <g_1073>
    74a4:	66 85 c0             	test   %ax,%ax
    74a7:	0f 89 5e ff ff ff    	jns    740b <func_10+0x147b>
    74ad:	0f b7 05 ac 9b 00 00 	movzwl 0x9bac(%rip),%eax        # 11060 <g_104>
    74b4:	83 c0 01             	add    $0x1,%eax
    74b7:	66 89 05 a2 9b 00 00 	mov    %ax,0x9ba2(%rip)        # 11060 <g_104>
    74be:	0f b7 05 9b 9b 00 00 	movzwl 0x9b9b(%rip),%eax        # 11060 <g_104>
    74c5:	66 83 f8 01          	cmp    $0x1,%ax
    74c9:	0f 8e fb fd ff ff    	jle    72ca <func_10+0x133a>
    74cf:	0f b7 05 ba a1 00 00 	movzwl 0xa1ba(%rip),%eax        # 11690 <g_815>
    74d6:	83 c0 01             	add    $0x1,%eax
    74d9:	66 89 05 b0 a1 00 00 	mov    %ax,0xa1b0(%rip)        # 11690 <g_815>
    74e0:	0f b7 05 a9 a1 00 00 	movzwl 0xa1a9(%rip),%eax        # 11690 <g_815>
    74e7:	66 85 c0             	test   %ax,%ax
    74ea:	0f 84 4a f9 ff ff    	je     6e3a <func_10+0xeaa>
    74f0:	8b 05 32 9b 00 00    	mov    0x9b32(%rip),%eax        # 11028 <g_47>
    74f6:	83 e8 01             	sub    $0x1,%eax
    74f9:	89 05 29 9b 00 00    	mov    %eax,0x9b29(%rip)        # 11028 <g_47>
    74ff:	8b 05 23 9b 00 00    	mov    0x9b23(%rip),%eax        # 11028 <g_47>
    7505:	85 c0                	test   %eax,%eax
    7507:	0f 89 4a f6 ff ff    	jns    6b57 <func_10+0xbc7>
    750d:	8b 05 19 9b 00 00    	mov    0x9b19(%rip),%eax        # 1102c <g_49>
    7513:	83 c0 01             	add    $0x1,%eax
    7516:	89 05 10 9b 00 00    	mov    %eax,0x9b10(%rip)        # 1102c <g_49>
    751c:	8b 05 0a 9b 00 00    	mov    0x9b0a(%rip),%eax        # 1102c <g_49>
    7522:	85 c0                	test   %eax,%eax
    7524:	0f 8e ba eb ff ff    	jle    60e4 <func_10+0x154>
    752a:	48 8b 05 a7 b7 00 00 	mov    0xb7a7(%rip),%rax        # 12cd8 <g_674>
    7531:	48 8b 00             	mov    (%rax),%rax
    7534:	48 8b 00             	mov    (%rax),%rax
    7537:	48 8d 95 6c f5 ff ff 	lea    -0xa94(%rbp),%rdx
    753e:	48 89 10             	mov    %rdx,(%rax)
    7541:	48 8b 05 50 b7 00 00 	mov    0xb750(%rip),%rax        # 12c98 <g_309>
    7548:	48 8b 00             	mov    (%rax),%rax
    754b:	8b 00                	mov    (%rax),%eax
    754d:	48 8b 5d c8          	mov    -0x38(%rbp),%rbx
    7551:	64 48 33 1c 25 28 00 	xor    %fs:0x28,%rbx
    7558:	00 00 
    755a:	74 05                	je     7561 <func_10+0x15d1>
    755c:	e8 0f cb ff ff       	callq  4070 <__stack_chk_fail@plt>
    7561:	48 81 c4 78 0a 00 00 	add    $0xa78,%rsp
    7568:	5b                   	pop    %rbx
    7569:	41 5c                	pop    %r12
    756b:	41 5d                	pop    %r13
    756d:	41 5e                	pop    %r14
    756f:	41 5f                	pop    %r15
    7571:	5d                   	pop    %rbp
    7572:	c3                   	retq   

0000000000007573 <func_29>:
    7573:	f3 0f 1e fa          	endbr64 
    7577:	55                   	push   %rbp
    7578:	48 89 e5             	mov    %rsp,%rbp
    757b:	48 83 ec 70          	sub    $0x70,%rsp
    757f:	89 7d cc             	mov    %edi,-0x34(%rbp)
    7582:	48 89 55 c0          	mov    %rdx,-0x40(%rbp)
    7586:	48 89 c8             	mov    %rcx,%rax
    7589:	44 89 c2             	mov    %r8d,%edx
    758c:	4c 89 4d a8          	mov    %r9,-0x58(%rbp)
    7590:	89 f1                	mov    %esi,%ecx
    7592:	66 89 4d c8          	mov    %cx,-0x38(%rbp)
    7596:	48 89 45 b0          	mov    %rax,-0x50(%rbp)
    759a:	89 55 b8             	mov    %edx,-0x48(%rbp)
    759d:	48 8d 05 ec a0 00 00 	lea    0xa0ec(%rip),%rax        # 11690 <g_815>
    75a4:	48 89 45 d8          	mov    %rax,-0x28(%rbp)
    75a8:	c7 45 d4 00 00 00 00 	movl   $0x0,-0x2c(%rbp)
    75af:	48 8d 05 22 b7 00 00 	lea    0xb722(%rip),%rax        # 12cd8 <g_674>
    75b6:	48 89 45 e0          	mov    %rax,-0x20(%rbp)
    75ba:	0f b7 45 e8          	movzwl -0x18(%rbp),%eax
    75be:	66 25 00 f0          	and    $0xf000,%ax
    75c2:	66 0d d3 0f          	or     $0xfd3,%ax
    75c6:	66 89 45 e8          	mov    %ax,-0x18(%rbp)
    75ca:	c7 45 ec e4 87 5f 30 	movl   $0x305f87e4,-0x14(%rbp)
    75d1:	0f b7 45 f0          	movzwl -0x10(%rbp),%eax
    75d5:	66 25 00 fe          	and    $0xfe00,%ax
    75d9:	66 0d eb 01          	or     $0x1eb,%ax
    75dd:	66 89 45 f0          	mov    %ax,-0x10(%rbp)
    75e1:	48 83 7d d8 00       	cmpq   $0x0,-0x28(%rbp)
    75e6:	74 06                	je     75ee <func_29+0x7b>
    75e8:	83 7d d4 00          	cmpl   $0x0,-0x2c(%rbp)
    75ec:	74 07                	je     75f5 <func_29+0x82>
    75ee:	b8 01 00 00 00       	mov    $0x1,%eax
    75f3:	eb 05                	jmp    75fa <func_29+0x87>
    75f5:	b8 00 00 00 00       	mov    $0x0,%eax
    75fa:	48 63 d0             	movslq %eax,%rdx
    75fd:	48 8b 05 c4 b5 00 00 	mov    0xb5c4(%rip),%rax        # 12bc8 <g_107>
    7604:	48 8b 00             	mov    (%rax),%rax
    7607:	48 21 d0             	and    %rdx,%rax
    760a:	48 89 c2             	mov    %rax,%rdx
    760d:	48 b8 e1 33 9f a2 82 	movabs $0xf31df482a29f33e1,%rax
    7614:	f4 1d f3 
    7617:	48 39 c2             	cmp    %rax,%rdx
    761a:	0f 97 c0             	seta   %al
    761d:	0f b6 d0             	movzbl %al,%edx
    7620:	0f b7 45 c8          	movzwl -0x38(%rbp),%eax
    7624:	39 c2                	cmp    %eax,%edx
    7626:	74 24                	je     764c <func_29+0xd9>
    7628:	be 07 00 00 00       	mov    $0x7,%esi
    762d:	bf 00 00 00 00       	mov    $0x0,%edi
    7632:	e8 5b ce ff ff       	callq  4492 <safe_lshift_func_int16_t_s_s>
    7637:	0f bf d0             	movswl %ax,%edx
    763a:	0f b7 45 b0          	movzwl -0x50(%rbp),%eax
    763e:	c1 e0 04             	shl    $0x4,%eax
    7641:	66 c1 f8 04          	sar    $0x4,%ax
    7645:	98                   	cwtl   
    7646:	21 d0                	and    %edx,%eax
    7648:	85 c0                	test   %eax,%eax
    764a:	74 07                	je     7653 <func_29+0xe0>
    764c:	b8 01 00 00 00       	mov    $0x1,%eax
    7651:	eb 05                	jmp    7658 <func_29+0xe5>
    7653:	b8 00 00 00 00       	mov    $0x0,%eax
    7658:	89 45 d4             	mov    %eax,-0x2c(%rbp)
    765b:	48 8b 45 e8          	mov    -0x18(%rbp),%rax
    765f:	48 89 45 f4          	mov    %rax,-0xc(%rbp)
    7663:	8b 45 f0             	mov    -0x10(%rbp),%eax
    7666:	89 45 fc             	mov    %eax,-0x4(%rbp)
    7669:	48 8b 45 f4          	mov    -0xc(%rbp),%rax
    766d:	8b 4d fc             	mov    -0x4(%rbp),%ecx
    7670:	48 89 ca             	mov    %rcx,%rdx
    7673:	c9                   	leaveq 
    7674:	c3                   	retq   

0000000000007675 <func_35>:
    7675:	f3 0f 1e fa          	endbr64 
    7679:	55                   	push   %rbp
    767a:	48 89 e5             	mov    %rsp,%rbp
    767d:	48 81 ec e0 00 00 00 	sub    $0xe0,%rsp
    7684:	89 bd 2c ff ff ff    	mov    %edi,-0xd4(%rbp)
    768a:	89 f1                	mov    %esi,%ecx
    768c:	89 d0                	mov    %edx,%eax
    768e:	89 ca                	mov    %ecx,%edx
    7690:	88 95 28 ff ff ff    	mov    %dl,-0xd8(%rbp)
    7696:	88 85 24 ff ff ff    	mov    %al,-0xdc(%rbp)
    769c:	64 48 8b 04 25 28 00 	mov    %fs:0x28,%rax
    76a3:	00 00 
    76a5:	48 89 45 f8          	mov    %rax,-0x8(%rbp)
    76a9:	31 c0                	xor    %eax,%eax
    76ab:	48 c7 85 58 ff ff ff 	movq   $0x0,-0xa8(%rbp)
    76b2:	00 00 00 00 
    76b6:	48 8d 05 67 99 00 00 	lea    0x9967(%rip),%rax        # 11024 <g_43>
    76bd:	48 89 85 60 ff ff ff 	mov    %rax,-0xa0(%rbp)
    76c4:	48 8d 05 5d 99 00 00 	lea    0x995d(%rip),%rax        # 11028 <g_47>
    76cb:	48 89 85 68 ff ff ff 	mov    %rax,-0x98(%rbp)
    76d2:	48 8d 05 b7 9f 00 00 	lea    0x9fb7(%rip),%rax        # 11690 <g_815>
    76d9:	48 89 85 40 ff ff ff 	mov    %rax,-0xc0(%rbp)
    76e0:	48 8d 45 80          	lea    -0x80(%rbp),%rax
    76e4:	48 83 c0 10          	add    $0x10,%rax
    76e8:	48 89 45 a0          	mov    %rax,-0x60(%rbp)
    76ec:	48 8d 45 80          	lea    -0x80(%rbp),%rax
    76f0:	48 83 c0 10          	add    $0x10,%rax
    76f4:	48 89 45 a8          	mov    %rax,-0x58(%rbp)
    76f8:	48 c7 45 b0 00 00 00 	movq   $0x0,-0x50(%rbp)
    76ff:	00 
    7700:	48 8d 45 80          	lea    -0x80(%rbp),%rax
    7704:	48 83 c0 10          	add    $0x10,%rax
    7708:	48 89 45 b8          	mov    %rax,-0x48(%rbp)
    770c:	48 8d 45 80          	lea    -0x80(%rbp),%rax
    7710:	48 83 c0 10          	add    $0x10,%rax
    7714:	48 89 45 c0          	mov    %rax,-0x40(%rbp)
    7718:	48 c7 45 c8 00 00 00 	movq   $0x0,-0x38(%rbp)
    771f:	00 
    7720:	48 8d 45 80          	lea    -0x80(%rbp),%rax
    7724:	48 83 c0 10          	add    $0x10,%rax
    7728:	48 89 45 d0          	mov    %rax,-0x30(%rbp)
    772c:	48 8d 45 80          	lea    -0x80(%rbp),%rax
    7730:	48 83 c0 10          	add    $0x10,%rax
    7734:	48 89 45 d8          	mov    %rax,-0x28(%rbp)
    7738:	48 c7 45 e0 00 00 00 	movq   $0x0,-0x20(%rbp)
    773f:	00 
    7740:	48 8d 45 80          	lea    -0x80(%rbp),%rax
    7744:	48 83 c0 10          	add    $0x10,%rax
    7748:	48 89 45 e8          	mov    %rax,-0x18(%rbp)
    774c:	c7 85 38 ff ff ff 00 	movl   $0x0,-0xc8(%rbp)
    7753:	00 00 00 
    7756:	66 c7 85 38 ff ff ff 	movw   $0x1,-0xc8(%rbp)
    775d:	01 00 
    775f:	48 c7 85 70 ff ff ff 	movq   $0x0,-0x90(%rbp)
    7766:	00 00 00 00 
    776a:	66 c7 85 36 ff ff ff 	movw   $0x3eb8,-0xca(%rbp)
    7771:	b8 3e 
    7773:	c7 85 3c ff ff ff 00 	movl   $0x0,-0xc4(%rbp)
    777a:	00 00 00 
    777d:	eb 14                	jmp    7793 <func_35+0x11e>
    777f:	8b 85 3c ff ff ff    	mov    -0xc4(%rbp),%eax
    7785:	48 98                	cltq   
    7787:	c6 44 05 f7 00       	movb   $0x0,-0x9(%rbp,%rax,1)
    778c:	83 85 3c ff ff ff 01 	addl   $0x1,-0xc4(%rbp)
    7793:	83 bd 3c ff ff ff 00 	cmpl   $0x0,-0xc4(%rbp)
    779a:	7e e3                	jle    777f <func_35+0x10a>
    779c:	c7 85 3c ff ff ff 00 	movl   $0x0,-0xc4(%rbp)
    77a3:	00 00 00 
    77a6:	eb 1b                	jmp    77c3 <func_35+0x14e>
    77a8:	8b 85 3c ff ff ff    	mov    -0xc4(%rbp),%eax
    77ae:	48 98                	cltq   
    77b0:	48 8d 95 40 ff ff ff 	lea    -0xc0(%rbp),%rdx
    77b7:	48 89 54 c5 80       	mov    %rdx,-0x80(%rbp,%rax,8)
    77bc:	83 85 3c ff ff ff 01 	addl   $0x1,-0xc4(%rbp)
    77c3:	83 bd 3c ff ff ff 02 	cmpl   $0x2,-0xc4(%rbp)
    77ca:	7e dc                	jle    77a8 <func_35+0x133>
    77cc:	48 8b 85 60 ff ff ff 	mov    -0xa0(%rbp),%rax
    77d3:	8b 00                	mov    (%rax),%eax
    77d5:	8d 50 ff             	lea    -0x1(%rax),%edx
    77d8:	48 8b 85 60 ff ff ff 	mov    -0xa0(%rbp),%rax
    77df:	89 10                	mov    %edx,(%rax)
    77e1:	48 8b 85 60 ff ff ff 	mov    -0xa0(%rbp),%rax
    77e8:	8b 00                	mov    (%rax),%eax
    77ea:	35 24 05 ee dc       	xor    $0xdcee0524,%eax
    77ef:	89 c2                	mov    %eax,%edx
    77f1:	48 8b 85 68 ff ff ff 	mov    -0x98(%rbp),%rax
    77f8:	8b 00                	mov    (%rax),%eax
    77fa:	09 c2                	or     %eax,%edx
    77fc:	48 8b 85 68 ff ff ff 	mov    -0x98(%rbp),%rax
    7803:	89 10                	mov    %edx,(%rax)
    7805:	48 8b 05 b4 b3 00 00 	mov    0xb3b4(%rip),%rax        # 12bc0 <g_48>
    780c:	48 8b 95 68 ff ff ff 	mov    -0x98(%rbp),%rdx
    7813:	8b 12                	mov    (%rdx),%edx
    7815:	89 10                	mov    %edx,(%rax)
    7817:	c7 05 03 98 00 00 00 	movl   $0x0,0x9803(%rip)        # 11024 <g_43>
    781e:	00 00 00 
    7821:	eb 51                	jmp    7874 <func_35+0x1ff>
    7823:	48 8d 05 66 9e 00 00 	lea    0x9e66(%rip),%rax        # 11690 <g_815>
    782a:	48 89 85 48 ff ff ff 	mov    %rax,-0xb8(%rbp)
    7831:	48 8d 85 48 ff ff ff 	lea    -0xb8(%rbp),%rax
    7838:	48 89 85 50 ff ff ff 	mov    %rax,-0xb0(%rbp)
    783f:	48 8d 85 50 ff ff ff 	lea    -0xb0(%rbp),%rax
    7846:	48 89 85 78 ff ff ff 	mov    %rax,-0x88(%rbp)
    784d:	c6 85 35 ff ff ff 01 	movb   $0x1,-0xcb(%rbp)
    7854:	8b 05 ca 97 00 00    	mov    0x97ca(%rip),%eax        # 11024 <g_43>
    785a:	89 c0                	mov    %eax,%eax
    785c:	0f b6 44 05 f7       	movzbl -0x9(%rbp,%rax,1),%eax
    7861:	84 c0                	test   %al,%al
    7863:	75 1b                	jne    7880 <func_35+0x20b>
    7865:	8b 05 b9 97 00 00    	mov    0x97b9(%rip),%eax        # 11024 <g_43>
    786b:	83 c0 01             	add    $0x1,%eax
    786e:	89 05 b0 97 00 00    	mov    %eax,0x97b0(%rip)        # 11024 <g_43>
    7874:	8b 05 aa 97 00 00    	mov    0x97aa(%rip),%eax        # 11024 <g_43>
    787a:	85 c0                	test   %eax,%eax
    787c:	74 a5                	je     7823 <func_35+0x1ae>
    787e:	eb 01                	jmp    7881 <func_35+0x20c>
    7880:	90                   	nop
    7881:	48 8b 85 68 ff ff ff 	mov    -0x98(%rbp),%rax
    7888:	8b 00                	mov    (%rax),%eax
    788a:	48 8b 75 f8          	mov    -0x8(%rbp),%rsi
    788e:	64 48 33 34 25 28 00 	xor    %fs:0x28,%rsi
    7895:	00 00 
    7897:	74 05                	je     789e <func_35+0x229>
    7899:	e8 d2 c7 ff ff       	callq  4070 <__stack_chk_fail@plt>
    789e:	c9                   	leaveq 
    789f:	c3                   	retq   

00000000000078a0 <func_51>:
    78a0:	f3 0f 1e fa          	endbr64 
    78a4:	55                   	push   %rbp
    78a5:	48 89 e5             	mov    %rsp,%rbp
    78a8:	48 83 ec 30          	sub    $0x30,%rsp
    78ac:	89 f8                	mov    %edi,%eax
    78ae:	66 89 45 dc          	mov    %ax,-0x24(%rbp)
    78b2:	48 8d 05 6b 97 00 00 	lea    0x976b(%rip),%rax        # 11024 <g_43>
    78b9:	48 89 45 f0          	mov    %rax,-0x10(%rbp)
    78bd:	c7 45 e4 fb ff ff ff 	movl   $0xfffffffb,-0x1c(%rbp)
    78c4:	48 8d 05 df 9d 00 00 	lea    0x9ddf(%rip),%rax        # 116aa <g_931+0xa>
    78cb:	48 89 45 f8          	mov    %rax,-0x8(%rbp)
    78cf:	c7 45 e8 3e 9f c6 e2 	movl   $0xe2c69f3e,-0x18(%rbp)
    78d6:	c7 45 ec ff ff ff ff 	movl   $0xffffffff,-0x14(%rbp)
    78dd:	8b 15 81 67 00 00    	mov    0x6781(%rip),%edx        # e064 <g_67+0x4>
    78e3:	48 8b 45 f0          	mov    -0x10(%rbp),%rax
    78e7:	89 d6                	mov    %edx,%esi
    78e9:	48 89 c7             	mov    %rax,%rdi
    78ec:	e8 c5 29 00 00       	callq  a2b6 <func_63>
    78f1:	48 89 c2             	mov    %rax,%rdx
    78f4:	48 8b 45 f0          	mov    -0x10(%rbp),%rax
    78f8:	48 89 c6             	mov    %rax,%rsi
    78fb:	48 89 d7             	mov    %rdx,%rdi
    78fe:	e8 58 28 00 00       	callq  a15b <func_60>
    7903:	48 89 c7             	mov    %rax,%rdi
    7906:	e8 33 06 00 00       	callq  7f3e <func_58>
    790b:	98                   	cwtl   
    790c:	09 45 e4             	or     %eax,-0x1c(%rbp)
    790f:	8b 55 e4             	mov    -0x1c(%rbp),%edx
    7912:	48 8b 45 f8          	mov    -0x8(%rbp),%rax
    7916:	0f b7 00             	movzwl (%rax),%eax
    7919:	31 c2                	xor    %eax,%edx
    791b:	48 8b 45 f8          	mov    -0x8(%rbp),%rax
    791f:	66 89 10             	mov    %dx,(%rax)
    7922:	48 8b 45 f8          	mov    -0x8(%rbp),%rax
    7926:	0f b7 00             	movzwl (%rax),%eax
    7929:	66 83 f8 01          	cmp    $0x1,%ax
    792d:	0f 9e c0             	setle  %al
    7930:	0f b6 c0             	movzbl %al,%eax
    7933:	48 8b 4d f0          	mov    -0x10(%rbp),%rcx
    7937:	48 8b 55 f0          	mov    -0x10(%rbp),%rdx
    793b:	8b 75 e8             	mov    -0x18(%rbp),%esi
    793e:	89 c7                	mov    %eax,%edi
    7940:	e8 1e 00 00 00       	callq  7963 <func_53>
    7945:	84 c0                	test   %al,%al
    7947:	74 0d                	je     7956 <func_51+0xb6>
    7949:	83 7d e4 00          	cmpl   $0x0,-0x1c(%rbp)
    794d:	74 07                	je     7956 <func_51+0xb6>
    794f:	b8 01 00 00 00       	mov    $0x1,%eax
    7954:	eb 05                	jmp    795b <func_51+0xbb>
    7956:	b8 00 00 00 00       	mov    $0x0,%eax
    795b:	89 45 ec             	mov    %eax,-0x14(%rbp)
    795e:	8b 45 e8             	mov    -0x18(%rbp),%eax
    7961:	c9                   	leaveq 
    7962:	c3                   	retq   

0000000000007963 <func_53>:
    7963:	f3 0f 1e fa          	endbr64 
    7967:	55                   	push   %rbp
    7968:	48 89 e5             	mov    %rsp,%rbp
    796b:	53                   	push   %rbx
    796c:	48 81 ec 68 03 00 00 	sub    $0x368,%rsp
    7973:	89 bd ac fc ff ff    	mov    %edi,-0x354(%rbp)
    7979:	89 b5 a8 fc ff ff    	mov    %esi,-0x358(%rbp)
    797f:	48 89 95 a0 fc ff ff 	mov    %rdx,-0x360(%rbp)
    7986:	48 89 8d 98 fc ff ff 	mov    %rcx,-0x368(%rbp)
    798d:	64 48 8b 04 25 28 00 	mov    %fs:0x28,%rax
    7994:	00 00 
    7996:	48 89 45 e8          	mov    %rax,-0x18(%rbp)
    799a:	31 c0                	xor    %eax,%eax
    799c:	c6 85 b3 fc ff ff 57 	movb   $0x57,-0x34d(%rbp)
    79a3:	48 8d 05 df 9b 00 00 	lea    0x9bdf(%rip),%rax        # 11589 <g_162+0x1>
    79aa:	48 89 85 c8 fc ff ff 	mov    %rax,-0x338(%rbp)
    79b1:	48 8d 85 c8 fc ff ff 	lea    -0x338(%rbp),%rax
    79b8:	48 89 85 d8 fc ff ff 	mov    %rax,-0x328(%rbp)
    79bf:	c7 85 b4 fc ff ff 00 	movl   $0x0,-0x34c(%rbp)
    79c6:	00 00 00 
    79c9:	eb 42                	jmp    7a0d <func_53+0xaa>
    79cb:	c7 85 b8 fc ff ff 00 	movl   $0x0,-0x348(%rbp)
    79d2:	00 00 00 
    79d5:	eb 26                	jmp    79fd <func_53+0x9a>
    79d7:	8b 85 b8 fc ff ff    	mov    -0x348(%rbp),%eax
    79dd:	48 63 d0             	movslq %eax,%rdx
    79e0:	8b 85 b4 fc ff ff    	mov    -0x34c(%rbp),%eax
    79e6:	48 98                	cltq   
    79e8:	48 01 d0             	add    %rdx,%rax
    79eb:	c7 84 85 f8 fc ff ff 	movl   $0x8,-0x308(%rbp,%rax,4)
    79f2:	08 00 00 00 
    79f6:	83 85 b8 fc ff ff 01 	addl   $0x1,-0x348(%rbp)
    79fd:	83 bd b8 fc ff ff 00 	cmpl   $0x0,-0x348(%rbp)
    7a04:	7e d1                	jle    79d7 <func_53+0x74>
    7a06:	83 85 b4 fc ff ff 01 	addl   $0x1,-0x34c(%rbp)
    7a0d:	83 bd b4 fc ff ff 01 	cmpl   $0x1,-0x34c(%rbp)
    7a14:	7e b5                	jle    79cb <func_53+0x68>
    7a16:	80 bd b3 fc ff ff 00 	cmpb   $0x0,-0x34d(%rbp)
    7a1d:	0f 84 92 04 00 00    	je     7eb5 <func_53+0x552>
    7a23:	c7 85 c0 fc ff ff 02 	movl   $0x2,-0x340(%rbp)
    7a2a:	00 00 00 
    7a2d:	48 8d 05 84 9c 00 00 	lea    0x9c84(%rip),%rax        # 116b8 <g_948>
    7a34:	48 89 85 d0 fc ff ff 	mov    %rax,-0x330(%rbp)
    7a3b:	c7 85 70 fd ff ff f8 	movl   $0xfffffff8,-0x290(%rbp)
    7a42:	ff ff ff 
    7a45:	c7 85 74 fd ff ff 58 	movl   $0xf27c1f58,-0x28c(%rbp)
    7a4c:	1f 7c f2 
    7a4f:	c7 85 78 fd ff ff 01 	movl   $0x1,-0x288(%rbp)
    7a56:	00 00 00 
    7a59:	c7 85 7c fd ff ff 01 	movl   $0x1,-0x284(%rbp)
    7a60:	00 00 00 
    7a63:	c7 85 80 fd ff ff a9 	movl   $0xdf9331a9,-0x280(%rbp)
    7a6a:	31 93 df 
    7a6d:	c7 85 84 fd ff ff 01 	movl   $0x1,-0x27c(%rbp)
    7a74:	00 00 00 
    7a77:	c7 85 88 fd ff ff f8 	movl   $0xfffffff8,-0x278(%rbp)
    7a7e:	ff ff ff 
    7a81:	c7 85 8c fd ff ff 03 	movl   $0x3,-0x274(%rbp)
    7a88:	00 00 00 
    7a8b:	c7 85 90 fd ff ff 9c 	movl   $0x5620c49c,-0x270(%rbp)
    7a92:	c4 20 56 
    7a95:	c7 85 94 fd ff ff 01 	movl   $0x1,-0x26c(%rbp)
    7a9c:	00 00 00 
    7a9f:	c7 85 98 fd ff ff 2d 	movl   $0xcbc2c32d,-0x268(%rbp)
    7aa6:	c3 c2 cb 
    7aa9:	c7 85 9c fd ff ff 90 	movl   $0x7bcad190,-0x264(%rbp)
    7ab0:	d1 ca 7b 
    7ab3:	c7 85 a0 fd ff ff a9 	movl   $0xdf9331a9,-0x260(%rbp)
    7aba:	31 93 df 
    7abd:	c7 85 a4 fd ff ff 07 	movl   $0x7,-0x25c(%rbp)
    7ac4:	00 00 00 
    7ac7:	c7 85 a8 fd ff ff a3 	movl   $0xf6f3dea3,-0x258(%rbp)
    7ace:	de f3 f6 
    7ad1:	c7 85 ac fd ff ff 01 	movl   $0x1,-0x254(%rbp)
    7ad8:	00 00 00 
    7adb:	c7 85 b0 fd ff ff 07 	movl   $0x7,-0x250(%rbp)
    7ae2:	00 00 00 
    7ae5:	c7 85 b4 fd ff ff f7 	movl   $0xfffffff7,-0x24c(%rbp)
    7aec:	ff ff ff 
    7aef:	c7 85 b8 fd ff ff a3 	movl   $0xf6f3dea3,-0x248(%rbp)
    7af6:	de f3 f6 
    7af9:	c7 85 bc fd ff ff f7 	movl   $0xfffffff7,-0x244(%rbp)
    7b00:	ff ff ff 
    7b03:	c7 85 c0 fd ff ff f8 	movl   $0xfffffff8,-0x240(%rbp)
    7b0a:	ff ff ff 
    7b0d:	c7 85 c4 fd ff ff f8 	movl   $0xfffffff8,-0x23c(%rbp)
    7b14:	ff ff ff 
    7b17:	c7 85 c8 fd ff ff 59 	movl   $0x630f9959,-0x238(%rbp)
    7b1e:	99 0f 63 
    7b21:	c7 85 cc fd ff ff a3 	movl   $0xf6f3dea3,-0x234(%rbp)
    7b28:	de f3 f6 
    7b2b:	c7 85 d0 fd ff ff c2 	movl   $0xd73832c2,-0x230(%rbp)
    7b32:	32 38 d7 
    7b35:	c7 85 d4 fd ff ff 07 	movl   $0x7,-0x22c(%rbp)
    7b3c:	00 00 00 
    7b3f:	c7 85 d8 fd ff ff 01 	movl   $0x1,-0x228(%rbp)
    7b46:	00 00 00 
    7b49:	c7 85 dc fd ff ff 58 	movl   $0xf27c1f58,-0x224(%rbp)
    7b50:	1f 7c f2 
    7b53:	c7 85 e0 fd ff ff 07 	movl   $0x7,-0x220(%rbp)
    7b5a:	00 00 00 
    7b5d:	c7 85 e4 fd ff ff f8 	movl   $0xfffffff8,-0x21c(%rbp)
    7b64:	ff ff ff 
    7b67:	c7 85 e8 fd ff ff 90 	movl   $0x7bcad190,-0x218(%rbp)
    7b6e:	d1 ca 7b 
    7b71:	c7 85 ec fd ff ff 2d 	movl   $0xcbc2c32d,-0x214(%rbp)
    7b78:	c3 c2 cb 
    7b7b:	c7 85 f0 fd ff ff 01 	movl   $0x1,-0x210(%rbp)
    7b82:	00 00 00 
    7b85:	c7 85 f4 fd ff ff 9c 	movl   $0x5620c49c,-0x20c(%rbp)
    7b8c:	c4 20 56 
    7b8f:	c7 85 f8 fd ff ff 2d 	movl   $0xcbc2c32d,-0x208(%rbp)
    7b96:	c3 c2 cb 
    7b99:	c7 85 fc fd ff ff f8 	movl   $0xfffffff8,-0x204(%rbp)
    7ba0:	ff ff ff 
    7ba3:	c7 85 00 fe ff ff 01 	movl   $0x1,-0x200(%rbp)
    7baa:	00 00 00 
    7bad:	c7 85 04 fe ff ff 00 	movl   $0x0,-0x1fc(%rbp)
    7bb4:	00 00 00 
    7bb7:	c7 85 08 fe ff ff 01 	movl   $0x1,-0x1f8(%rbp)
    7bbe:	00 00 00 
    7bc1:	c7 85 0c fe ff ff 01 	movl   $0x1,-0x1f4(%rbp)
    7bc8:	00 00 00 
    7bcb:	c7 85 10 fe ff ff 58 	movl   $0xf27c1f58,-0x1f0(%rbp)
    7bd2:	1f 7c f2 
    7bd5:	c7 85 14 fe ff ff f8 	movl   $0xfffffff8,-0x1ec(%rbp)
    7bdc:	ff ff ff 
    7bdf:	c7 85 18 fe ff ff 58 	movl   $0xf27c1f58,-0x1e8(%rbp)
    7be6:	1f 7c f2 
    7be9:	c7 85 1c fe ff ff 01 	movl   $0x1,-0x1e4(%rbp)
    7bf0:	00 00 00 
    7bf3:	c7 85 20 fe ff ff 01 	movl   $0x1,-0x1e0(%rbp)
    7bfa:	00 00 00 
    7bfd:	c7 85 24 fe ff ff a3 	movl   $0xf6f3dea3,-0x1dc(%rbp)
    7c04:	de f3 f6 
    7c07:	c7 85 28 fe ff ff 07 	movl   $0x7,-0x1d8(%rbp)
    7c0e:	00 00 00 
    7c11:	c7 85 2c fe ff ff a9 	movl   $0xdf9331a9,-0x1d4(%rbp)
    7c18:	31 93 df 
    7c1b:	c7 85 30 fe ff ff 90 	movl   $0x7bcad190,-0x1d0(%rbp)
    7c22:	d1 ca 7b 
    7c25:	c7 85 34 fe ff ff 2d 	movl   $0xcbc2c32d,-0x1cc(%rbp)
    7c2c:	c3 c2 cb 
    7c2f:	c7 85 38 fe ff ff 01 	movl   $0x1,-0x1c8(%rbp)
    7c36:	00 00 00 
    7c39:	c7 85 3c fe ff ff 90 	movl   $0x7bcad190,-0x1c4(%rbp)
    7c40:	d1 ca 7b 
    7c43:	c7 85 40 fe ff ff f7 	movl   $0xfffffff7,-0x1c0(%rbp)
    7c4a:	ff ff ff 
    7c4d:	c7 85 44 fe ff ff a3 	movl   $0xf6f3dea3,-0x1bc(%rbp)
    7c54:	de f3 f6 
    7c57:	c7 85 48 fe ff ff f8 	movl   $0xfffffff8,-0x1b8(%rbp)
    7c5e:	ff ff ff 
    7c61:	c7 85 4c fe ff ff f7 	movl   $0xfffffff7,-0x1b4(%rbp)
    7c68:	ff ff ff 
    7c6b:	c7 85 50 fe ff ff f8 	movl   $0xfffffff8,-0x1b0(%rbp)
    7c72:	ff ff ff 
    7c75:	c7 85 54 fe ff ff a9 	movl   $0xdf9331a9,-0x1ac(%rbp)
    7c7c:	31 93 df 
    7c7f:	c7 85 58 fe ff ff 2d 	movl   $0xcbc2c32d,-0x1a8(%rbp)
    7c86:	c3 c2 cb 
    7c89:	c7 85 5c fe ff ff c2 	movl   $0xd73832c2,-0x1a4(%rbp)
    7c90:	32 38 d7 
    7c93:	c7 85 c4 fc ff ff bd 	movl   $0xb0bc33bd,-0x33c(%rbp)
    7c9a:	33 bc b0 
    7c9d:	48 c7 05 d8 98 00 00 	movq   $0x0,0x98d8(%rip)        # 11580 <g_161>
    7ca4:	00 00 00 00 
    7ca8:	e9 ee 01 00 00       	jmpq   7e9b <func_53+0x538>
    7cad:	48 8d 05 44 95 00 00 	lea    0x9544(%rip),%rax        # 111f8 <g_134+0x118>
    7cb4:	48 89 85 30 fd ff ff 	mov    %rax,-0x2d0(%rbp)
    7cbb:	48 8d 05 7e 99 00 00 	lea    0x997e(%rip),%rax        # 11640 <g_423+0x20>
    7cc2:	48 89 85 38 fd ff ff 	mov    %rax,-0x2c8(%rbp)
    7cc9:	48 8d 05 70 99 00 00 	lea    0x9970(%rip),%rax        # 11640 <g_423+0x20>
    7cd0:	48 89 85 40 fd ff ff 	mov    %rax,-0x2c0(%rbp)
    7cd7:	48 8d 05 1a 95 00 00 	lea    0x951a(%rip),%rax        # 111f8 <g_134+0x118>
    7cde:	48 89 85 48 fd ff ff 	mov    %rax,-0x2b8(%rbp)
    7ce5:	48 8d 05 54 99 00 00 	lea    0x9954(%rip),%rax        # 11640 <g_423+0x20>
    7cec:	48 89 85 50 fd ff ff 	mov    %rax,-0x2b0(%rbp)
    7cf3:	48 8d 05 46 99 00 00 	lea    0x9946(%rip),%rax        # 11640 <g_423+0x20>
    7cfa:	48 89 85 58 fd ff ff 	mov    %rax,-0x2a8(%rbp)
    7d01:	48 8d 05 f0 94 00 00 	lea    0x94f0(%rip),%rax        # 111f8 <g_134+0x118>
    7d08:	48 89 85 60 fd ff ff 	mov    %rax,-0x2a0(%rbp)
    7d0f:	48 8d 85 60 fe ff ff 	lea    -0x1a0(%rbp),%rax
    7d16:	48 8d 15 c3 a1 00 00 	lea    0xa1c3(%rip),%rdx        # 11ee0 <g_1180+0x818>
    7d1d:	b9 30 00 00 00       	mov    $0x30,%ecx
    7d22:	48 89 c7             	mov    %rax,%rdi
    7d25:	48 89 d6             	mov    %rdx,%rsi
    7d28:	f3 48 a5             	rep movsq %ds:(%rsi),%es:(%rdi)
    7d2b:	48 8d 05 96 93 00 00 	lea    0x9396(%rip),%rax        # 110c8 <g_110>
    7d32:	48 89 85 e8 fc ff ff 	mov    %rax,-0x318(%rbp)
    7d39:	48 8d 85 d0 fc ff ff 	lea    -0x330(%rbp),%rax
    7d40:	48 89 85 f0 fc ff ff 	mov    %rax,-0x310(%rbp)
    7d47:	48 8d 85 f8 fc ff ff 	lea    -0x308(%rbp),%rax
    7d4e:	48 83 c0 04          	add    $0x4,%rax
    7d52:	48 89 85 00 fd ff ff 	mov    %rax,-0x300(%rbp)
    7d59:	48 8d 85 f8 fc ff ff 	lea    -0x308(%rbp),%rax
    7d60:	48 83 c0 04          	add    $0x4,%rax
    7d64:	48 89 85 08 fd ff ff 	mov    %rax,-0x2f8(%rbp)
    7d6b:	48 8d 85 f8 fc ff ff 	lea    -0x308(%rbp),%rax
    7d72:	48 83 c0 04          	add    $0x4,%rax
    7d76:	48 89 85 10 fd ff ff 	mov    %rax,-0x2f0(%rbp)
    7d7d:	48 8d 85 f8 fc ff ff 	lea    -0x308(%rbp),%rax
    7d84:	48 83 c0 04          	add    $0x4,%rax
    7d88:	48 89 85 18 fd ff ff 	mov    %rax,-0x2e8(%rbp)
    7d8f:	48 8d 85 f8 fc ff ff 	lea    -0x308(%rbp),%rax
    7d96:	48 83 c0 04          	add    $0x4,%rax
    7d9a:	48 89 85 20 fd ff ff 	mov    %rax,-0x2e0(%rbp)
    7da1:	48 8d 85 f8 fc ff ff 	lea    -0x308(%rbp),%rax
    7da8:	48 83 c0 04          	add    $0x4,%rax
    7dac:	48 89 85 28 fd ff ff 	mov    %rax,-0x2d8(%rbp)
    7db3:	0f be 95 b3 fc ff ff 	movsbl -0x34d(%rbp),%edx
    7dba:	48 8b 85 98 fc ff ff 	mov    -0x368(%rbp),%rax
    7dc1:	8b 00                	mov    (%rax),%eax
    7dc3:	39 c2                	cmp    %eax,%edx
    7dc5:	0f 93 c0             	setae  %al
    7dc8:	0f b6 d8             	movzbl %al,%ebx
    7dcb:	8b 85 a8 fc ff ff    	mov    -0x358(%rbp),%eax
    7dd1:	0f be c0             	movsbl %al,%eax
    7dd4:	be 07 00 00 00       	mov    $0x7,%esi
    7dd9:	89 c7                	mov    %eax,%edi
    7ddb:	e8 c1 c4 ff ff       	callq  42a1 <safe_lshift_func_int8_t_s_s>
    7de0:	0f be c0             	movsbl %al,%eax
    7de3:	39 c3                	cmp    %eax,%ebx
    7de5:	0f 9e c0             	setle  %al
    7de8:	0f b6 d0             	movzbl %al,%edx
    7deb:	8b 85 ac fc ff ff    	mov    -0x354(%rbp),%eax
    7df1:	88 05 bb 98 00 00    	mov    %al,0x98bb(%rip)        # 116b2 <g_937>
    7df7:	8b 85 fc fc ff ff    	mov    -0x304(%rbp),%eax
    7dfd:	09 d0                	or     %edx,%eax
    7dff:	89 85 fc fc ff ff    	mov    %eax,-0x304(%rbp)
    7e05:	48 83 bd d8 fc ff ff 	cmpq   $0x0,-0x328(%rbp)
    7e0c:	00 
    7e0d:	0f 95 c0             	setne  %al
    7e10:	0f b6 c8             	movzbl %al,%ecx
    7e13:	48 8b 85 98 fc ff ff 	mov    -0x368(%rbp),%rax
    7e1a:	8b 00                	mov    (%rax),%eax
    7e1c:	3d 7d 87 2a 50       	cmp    $0x502a877d,%eax
    7e21:	0f 96 c0             	setbe  %al
    7e24:	0f b6 d0             	movzbl %al,%edx
    7e27:	48 8b 85 e8 fc ff ff 	mov    -0x318(%rbp),%rax
    7e2e:	48 89 10             	mov    %rdx,(%rax)
    7e31:	48 8b 85 e8 fc ff ff 	mov    -0x318(%rbp),%rax
    7e38:	48 8b 00             	mov    (%rax),%rax
    7e3b:	48 31 c1             	xor    %rax,%rcx
    7e3e:	48 89 ca             	mov    %rcx,%rdx
    7e41:	8b 85 a8 fc ff ff    	mov    -0x358(%rbp),%eax
    7e47:	48 98                	cltq   
    7e49:	48 39 c2             	cmp    %rax,%rdx
    7e4c:	0f 9c c0             	setl   %al
    7e4f:	0f b6 c0             	movzbl %al,%eax
    7e52:	39 85 ac fc ff ff    	cmp    %eax,-0x354(%rbp)
    7e58:	48 8b 95 d0 fc ff ff 	mov    -0x330(%rbp),%rdx
    7e5f:	48 8b 85 f0 fc ff ff 	mov    -0x310(%rbp),%rax
    7e66:	48 89 10             	mov    %rdx,(%rax)
    7e69:	48 8b 05 60 b6 00 00 	mov    0xb660(%rip),%rax        # 134d0 <g_953>
    7e70:	48 83 c0 01          	add    $0x1,%rax
    7e74:	48 89 05 55 b6 00 00 	mov    %rax,0xb655(%rip)        # 134d0 <g_953>
    7e7b:	48 8b 05 fe 96 00 00 	mov    0x96fe(%rip),%rax        # 11580 <g_161>
    7e82:	0f b6 c0             	movzbl %al,%eax
    7e85:	be 07 00 00 00       	mov    $0x7,%esi
    7e8a:	89 c7                	mov    %eax,%edi
    7e8c:	e8 e7 cc ff ff       	callq  4b78 <safe_sub_func_uint8_t_u_u>
    7e91:	0f b6 c0             	movzbl %al,%eax
    7e94:	48 89 05 e5 96 00 00 	mov    %rax,0x96e5(%rip)        # 11580 <g_161>
    7e9b:	48 8b 05 de 96 00 00 	mov    0x96de(%rip),%rax        # 11580 <g_161>
    7ea2:	48 83 f8 f1          	cmp    $0xfffffffffffffff1,%rax
    7ea6:	0f 8d 01 fe ff ff    	jge    7cad <func_53+0x34a>
    7eac:	0f b6 85 b3 fc ff ff 	movzbl -0x34d(%rbp),%eax
    7eb3:	eb 6b                	jmp    7f20 <func_53+0x5bd>
    7eb5:	c7 85 bc fc ff ff ff 	movl   $0xffffffff,-0x344(%rbp)
    7ebc:	ff ff ff 
    7ebf:	48 8d 05 f2 97 00 00 	lea    0x97f2(%rip),%rax        # 116b8 <g_948>
    7ec6:	48 89 85 d0 fc ff ff 	mov    %rax,-0x330(%rbp)
    7ecd:	48 8d 85 d0 fc ff ff 	lea    -0x330(%rbp),%rax
    7ed4:	48 89 85 e0 fc ff ff 	mov    %rax,-0x320(%rbp)
    7edb:	48 8b 05 e6 ac 00 00 	mov    0xace6(%rip),%rax        # 12bc8 <g_107>
    7ee2:	48 8b 00             	mov    (%rax),%rax
    7ee5:	8b 85 bc fc ff ff    	mov    -0x344(%rbp),%eax
    7eeb:	48 98                	cltq   
    7eed:	48 c7 c6 fc ff ff ff 	mov    $0xfffffffffffffffc,%rsi
    7ef4:	48 89 c7             	mov    %rax,%rdi
    7ef7:	e8 32 d1 ff ff       	callq  502e <safe_add_func_uint64_t_u_u>
    7efc:	81 bd ac fc ff ff c1 	cmpl   $0xc1,-0x354(%rbp)
    7f03:	00 00 00 
    7f06:	0f 97 c0             	seta   %al
    7f09:	0f b6 d0             	movzbl %al,%edx
    7f0c:	8b 85 f8 fc ff ff    	mov    -0x308(%rbp),%eax
    7f12:	21 d0                	and    %edx,%eax
    7f14:	89 85 f8 fc ff ff    	mov    %eax,-0x308(%rbp)
    7f1a:	8b 85 ac fc ff ff    	mov    -0x354(%rbp),%eax
    7f20:	48 8b 5d e8          	mov    -0x18(%rbp),%rbx
    7f24:	64 48 33 1c 25 28 00 	xor    %fs:0x28,%rbx
    7f2b:	00 00 
    7f2d:	74 05                	je     7f34 <func_53+0x5d1>
    7f2f:	e8 3c c1 ff ff       	callq  4070 <__stack_chk_fail@plt>
    7f34:	48 81 c4 68 03 00 00 	add    $0x368,%rsp
    7f3b:	5b                   	pop    %rbx
    7f3c:	5d                   	pop    %rbp
    7f3d:	c3                   	retq   

0000000000007f3e <func_58>:
    7f3e:	f3 0f 1e fa          	endbr64 
    7f42:	55                   	push   %rbp
    7f43:	48 89 e5             	mov    %rsp,%rbp
    7f46:	41 57                	push   %r15
    7f48:	41 56                	push   %r14
    7f4a:	41 55                	push   %r13
    7f4c:	41 54                	push   %r12
    7f4e:	53                   	push   %rbx
    7f4f:	48 81 ec 00 10 00 00 	sub    $0x1000,%rsp
    7f56:	48 83 0c 24 00       	orq    $0x0,(%rsp)
    7f5b:	48 83 ec 68          	sub    $0x68,%rsp
    7f5f:	48 89 bd 78 ef ff ff 	mov    %rdi,-0x1088(%rbp)
    7f66:	64 48 8b 04 25 28 00 	mov    %fs:0x28,%rax
    7f6d:	00 00 
    7f6f:	48 89 45 c8          	mov    %rax,-0x38(%rbp)
    7f73:	31 c0                	xor    %eax,%eax
    7f75:	48 b8 95 19 6b 77 ec 	movabs $0x195a06ec776b1995,%rax
    7f7c:	06 5a 19 
    7f7f:	48 89 85 60 f0 ff ff 	mov    %rax,-0xfa0(%rbp)
    7f86:	c7 85 ec ef ff ff 3c 	movl   $0xbaec4a3c,-0x1014(%rbp)
    7f8d:	4a ec ba 
    7f90:	c7 85 9c ef ff ff 41 	movl   $0x7680e541,-0x1064(%rbp)
    7f97:	e5 80 76 
    7f9a:	c7 85 f0 ef ff ff 00 	movl   $0x0,-0x1010(%rbp)
    7fa1:	00 00 00 
    7fa4:	c7 85 ac ef ff ff 00 	movl   $0x0,-0x1054(%rbp)
    7fab:	00 00 00 
    7fae:	48 8d 85 30 f6 ff ff 	lea    -0x9d0(%rbp),%rax
    7fb5:	48 8d 15 24 63 00 00 	lea    0x6324(%rip),%rdx        # e2e0 <g_67+0x280>
    7fbc:	b9 30 00 00 00       	mov    $0x30,%ecx
    7fc1:	48 89 c7             	mov    %rax,%rdi
    7fc4:	48 89 d6             	mov    %rdx,%rsi
    7fc7:	f3 48 a5             	rep movsq %ds:(%rsi),%es:(%rdi)
    7fca:	48 c7 85 90 f0 ff ff 	movq   $0x0,-0xf70(%rbp)
    7fd1:	00 00 00 00 
    7fd5:	48 c7 85 98 f0 ff ff 	movq   $0x0,-0xf68(%rbp)
    7fdc:	00 00 00 00 
    7fe0:	66 c7 85 86 ef ff ff 	movw   $0x3,-0x107a(%rbp)
    7fe7:	03 00 
    7fe9:	c6 85 82 ef ff ff 01 	movb   $0x1,-0x107e(%rbp)
    7ff0:	66 c7 85 88 ef ff ff 	movw   $0x0,-0x1078(%rbp)
    7ff7:	00 00 
    7ff9:	48 b8 fa 07 6a 00 01 	movabs $0x1b7b701006a07fa,%rax
    8000:	b7 b7 01 
    8003:	48 89 85 90 f2 ff ff 	mov    %rax,-0xd70(%rbp)
    800a:	c6 85 98 f2 ff ff 00 	movb   $0x0,-0xd68(%rbp)
    8011:	48 b8 3c 77 3c 07 00 	movabs $0xff7e0200073c773c,%rax
    8018:	02 7e ff 
    801b:	48 89 85 99 f2 ff ff 	mov    %rax,-0xd67(%rbp)
    8022:	c6 85 a1 f2 ff ff ff 	movb   $0xff,-0xd5f(%rbp)
    8029:	48 b8 6a 07 fa 07 6a 	movabs $0xb701006a07fa076a,%rax
    8030:	00 01 b7 
    8033:	48 89 85 a2 f2 ff ff 	mov    %rax,-0xd5e(%rbp)
    803a:	c6 85 aa f2 ff ff b7 	movb   $0xb7,-0xd56(%rbp)
    8041:	48 b8 01 34 ff 07 ff 	movabs $0x9d0134ff07ff3401,%rax
    8048:	34 01 9d 
    804b:	48 89 85 ab f2 ff ff 	mov    %rax,-0xd55(%rbp)
    8052:	c6 85 b3 f2 ff ff df 	movb   $0xdf,-0xd4d(%rbp)
    8059:	48 b8 fa a7 07 00 fc 	movabs $0xa70700fc0007a7fa,%rax
    8060:	00 07 a7 
    8063:	48 89 85 b4 f2 ff ff 	mov    %rax,-0xd4c(%rbp)
    806a:	c6 85 bc f2 ff ff fa 	movb   $0xfa,-0xd44(%rbp)
    8071:	48 b8 00 03 7e 9d fa 	movabs $0x9dfa02fa9d7e0300,%rax
    8078:	02 fa 9d 
    807b:	48 89 85 bd f2 ff ff 	mov    %rax,-0xd43(%rbp)
    8082:	c6 85 c5 f2 ff ff 7e 	movb   $0x7e,-0xd3b(%rbp)
    8089:	48 b8 01 b7 01 00 6a 	movabs $0x7fa076a0001b701,%rax
    8090:	07 fa 07 
    8093:	48 89 85 c6 f2 ff ff 	mov    %rax,-0xd3a(%rbp)
    809a:	c6 85 ce f2 ff ff 6a 	movb   $0x6a,-0xd32(%rbp)
    80a1:	48 b8 fa 07 ff fc 00 	movabs $0xf8010200fcff07fa,%rax
    80a8:	02 01 f8 
    80ab:	48 89 85 cf f2 ff ff 	mov    %rax,-0xd31(%rbp)
    80b2:	c6 85 d7 f2 ff ff 01 	movb   $0x1,-0xd29(%rbp)
    80b9:	48 b8 fa 31 01 01 31 	movabs $0xb7a7fa31010131fa,%rax
    80c0:	fa a7 b7 
    80c3:	48 89 85 d8 f2 ff ff 	mov    %rax,-0xd28(%rbp)
    80ca:	c6 85 e0 f2 ff ff fa 	movb   $0xfa,-0xd20(%rbp)
    80d1:	48 b8 00 02 3c 03 00 	movabs $0x77fff800033c0200,%rax
    80d8:	f8 ff 77 
    80db:	48 89 85 e1 f2 ff ff 	mov    %rax,-0xd1f(%rbp)
    80e2:	c6 85 e9 f2 ff ff 00 	movb   $0x0,-0xd17(%rbp)
    80e9:	c6 85 81 ef ff ff f6 	movb   $0xf6,-0x107f(%rbp)
    80f0:	48 c7 85 a0 f0 ff ff 	movq   $0x0,-0xf60(%rbp)
    80f7:	00 00 00 00 
    80fb:	48 8d 05 66 b3 00 00 	lea    0xb366(%rip),%rax        # 13468 <g_5>
    8102:	48 89 85 68 f0 ff ff 	mov    %rax,-0xf98(%rbp)
    8109:	48 8d 85 68 f0 ff ff 	lea    -0xf98(%rbp),%rax
    8110:	48 89 85 a8 f0 ff ff 	mov    %rax,-0xf58(%rbp)
    8117:	48 c7 85 b0 f0 ff ff 	movq   $0x0,-0xf50(%rbp)
    811e:	00 00 00 00 
    8122:	c6 85 83 ef ff ff ff 	movb   $0xff,-0x107d(%rbp)
    8129:	c7 85 b0 ef ff ff 00 	movl   $0x0,-0x1050(%rbp)
    8130:	00 00 00 
    8133:	eb 46                	jmp    817b <func_58+0x23d>
    8135:	c7 85 b4 ef ff ff 00 	movl   $0x0,-0x104c(%rbp)
    813c:	00 00 00 
    813f:	eb 2a                	jmp    816b <func_58+0x22d>
    8141:	8b 85 b4 ef ff ff    	mov    -0x104c(%rbp),%eax
    8147:	48 63 d0             	movslq %eax,%rdx
    814a:	8b 85 b0 ef ff ff    	mov    -0x1050(%rbp),%eax
    8150:	48 98                	cltq   
    8152:	48 01 d0             	add    %rdx,%rax
    8155:	48 8d 15 54 8f 00 00 	lea    0x8f54(%rip),%rdx        # 110b0 <g_106+0x30>
    815c:	48 89 94 c5 f0 f1 ff 	mov    %rdx,-0xe10(%rbp,%rax,8)
    8163:	ff 
    8164:	83 85 b4 ef ff ff 01 	addl   $0x1,-0x104c(%rbp)
    816b:	83 bd b4 ef ff ff 00 	cmpl   $0x0,-0x104c(%rbp)
    8172:	7e cd                	jle    8141 <func_58+0x203>
    8174:	83 85 b0 ef ff ff 01 	addl   $0x1,-0x1050(%rbp)
    817b:	83 bd b0 ef ff ff 08 	cmpl   $0x8,-0x1050(%rbp)
    8182:	7e b1                	jle    8135 <func_58+0x1f7>
    8184:	c7 05 9e 8e 00 00 00 	movl   $0x0,0x8e9e(%rip)        # 1102c <g_49>
    818b:	00 00 00 
    818e:	e9 d9 1e 00 00       	jmpq   a06c <func_58+0x212e>
    8193:	66 c7 85 8c ef ff ff 	movw   $0x55ce,-0x1074(%rbp)
    819a:	ce 55 
    819c:	48 8d 05 a0 8e 00 00 	lea    0x8ea0(%rip),%rax        # 11043 <g_92+0x3>
    81a3:	48 89 85 b8 f0 ff ff 	mov    %rax,-0xf48(%rbp)
    81aa:	48 8d 05 cf 94 00 00 	lea    0x94cf(%rip),%rax        # 11680 <g_647>
    81b1:	48 89 85 c0 f0 ff ff 	mov    %rax,-0xf40(%rbp)
    81b8:	48 8d 05 e1 8e 00 00 	lea    0x8ee1(%rip),%rax        # 110a0 <g_106+0x20>
    81bf:	48 89 85 c8 f0 ff ff 	mov    %rax,-0xf38(%rbp)
    81c6:	48 8d 05 c3 93 00 00 	lea    0x93c3(%rip),%rax        # 11590 <g_260>
    81cd:	48 89 85 d0 f0 ff ff 	mov    %rax,-0xf30(%rbp)
    81d4:	48 8d 85 f0 f4 ff ff 	lea    -0xb10(%rbp),%rax
    81db:	48 8d 15 7e 9e 00 00 	lea    0x9e7e(%rip),%rdx        # 12060 <g_1180+0x998>
    81e2:	b9 28 00 00 00       	mov    $0x28,%ecx
    81e7:	48 89 c7             	mov    %rax,%rdi
    81ea:	48 89 d6             	mov    %rdx,%rsi
    81ed:	f3 48 a5             	rep movsq %ds:(%rsi),%es:(%rdi)
    81f0:	48 b8 06 fb 9e 9e 59 	movabs $0x8f5f01599e9efb06,%rax
    81f7:	01 5f 8f 
    81fa:	48 89 85 d8 f0 ff ff 	mov    %rax,-0xf28(%rbp)
    8201:	66 c7 85 8a ef ff ff 	movw   $0xf809,-0x1076(%rbp)
    8208:	09 f8 
    820a:	c7 85 b8 ef ff ff 93 	movl   $0xefb14b93,-0x1048(%rbp)
    8211:	4b b1 ef 
    8214:	48 8d 05 75 94 00 00 	lea    0x9475(%rip),%rax        # 11690 <g_815>
    821b:	48 89 85 70 f0 ff ff 	mov    %rax,-0xf90(%rbp)
    8222:	c7 85 f4 ef ff ff 67 	movl   $0x83bae167,-0x100c(%rbp)
    8229:	e1 ba 83 
    822c:	66 c7 45 bf ff ff    	movw   $0xffff,-0x41(%rbp)
    8232:	48 8d 85 d0 f3 ff ff 	lea    -0xc30(%rbp),%rax
    8239:	48 8d 15 60 9f 00 00 	lea    0x9f60(%rip),%rdx        # 121a0 <g_1180+0xad8>
    8240:	b9 24 00 00 00       	mov    $0x24,%ecx
    8245:	48 89 c7             	mov    %rax,%rdi
    8248:	48 89 d6             	mov    %rdx,%rsi
    824b:	f3 48 a5             	rep movsq %ds:(%rsi),%es:(%rdi)
    824e:	c7 85 bc ef ff ff 00 	movl   $0x0,-0x1044(%rbp)
    8255:	00 00 00 
    8258:	e9 88 00 00 00       	jmpq   82e5 <func_58+0x3a7>
    825d:	c7 85 c0 ef ff ff 00 	movl   $0x0,-0x1040(%rbp)
    8264:	00 00 00 
    8267:	eb 6c                	jmp    82d5 <func_58+0x397>
    8269:	c7 85 c4 ef ff ff 00 	movl   $0x0,-0x103c(%rbp)
    8270:	00 00 00 
    8273:	eb 50                	jmp    82c5 <func_58+0x387>
    8275:	8b 85 c4 ef ff ff    	mov    -0x103c(%rbp),%eax
    827b:	48 63 f0             	movslq %eax,%rsi
    827e:	8b 85 bc ef ff ff    	mov    -0x1044(%rbp),%eax
    8284:	48 98                	cltq   
    8286:	8b 95 c0 ef ff ff    	mov    -0x1040(%rbp),%edx
    828c:	48 63 ca             	movslq %edx,%rcx
    828f:	48 89 c2             	mov    %rax,%rdx
    8292:	48 c1 e2 04          	shl    $0x4,%rdx
    8296:	48 29 c2             	sub    %rax,%rdx
    8299:	48 89 c8             	mov    %rcx,%rax
    829c:	48 01 c0             	add    %rax,%rax
    829f:	48 01 c8             	add    %rcx,%rax
    82a2:	48 01 d0             	add    %rdx,%rax
    82a5:	48 01 f0             	add    %rsi,%rax
    82a8:	48 8d 95 d0 f3 ff ff 	lea    -0xc30(%rbp),%rdx
    82af:	48 81 c2 e0 00 00 00 	add    $0xe0,%rdx
    82b6:	48 89 94 c5 50 f3 ff 	mov    %rdx,-0xcb0(%rbp,%rax,8)
    82bd:	ff 
    82be:	83 85 c4 ef ff ff 01 	addl   $0x1,-0x103c(%rbp)
    82c5:	83 bd c4 ef ff ff 02 	cmpl   $0x2,-0x103c(%rbp)
    82cc:	7e a7                	jle    8275 <func_58+0x337>
    82ce:	83 85 c0 ef ff ff 01 	addl   $0x1,-0x1040(%rbp)
    82d5:	83 bd c0 ef ff ff 04 	cmpl   $0x4,-0x1040(%rbp)
    82dc:	7e 8b                	jle    8269 <func_58+0x32b>
    82de:	83 85 bc ef ff ff 01 	addl   $0x1,-0x1044(%rbp)
    82e5:	83 bd bc ef ff ff 00 	cmpl   $0x0,-0x1044(%rbp)
    82ec:	0f 8e 6b ff ff ff    	jle    825d <func_58+0x31f>
    82f2:	4c 8b 35 47 93 00 00 	mov    0x9347(%rip),%r14        # 11640 <g_423+0x20>
    82f9:	48 8b 05 c8 a8 00 00 	mov    0xa8c8(%rip),%rax        # 12bc8 <g_107>
    8300:	48 8b 18             	mov    (%rax),%rbx
    8303:	48 8b 05 36 93 00 00 	mov    0x9336(%rip),%rax        # 11640 <g_423+0x20>
    830a:	44 0f bf e0          	movswl %ax,%r12d
    830e:	0f b7 85 8c ef ff ff 	movzwl -0x1074(%rbp),%eax
    8315:	0f b6 d0             	movzbl %al,%edx
    8318:	48 8b 85 60 f0 ff ff 	mov    -0xfa0(%rbp),%rax
    831f:	0f b6 c0             	movzbl %al,%eax
    8322:	89 d6                	mov    %edx,%esi
    8324:	89 c7                	mov    %eax,%edi
    8326:	e8 68 c8 ff ff       	callq  4b93 <safe_mul_func_uint8_t_u_u>
    832b:	44 0f b6 f8          	movzbl %al,%r15d
    832f:	48 8b 85 60 f0 ff ff 	mov    -0xfa0(%rbp),%rax
    8336:	44 0f b6 e8          	movzbl %al,%r13d
    833a:	48 8b 85 60 f0 ff ff 	mov    -0xfa0(%rbp),%rax
    8341:	0f bf d0             	movswl %ax,%edx
    8344:	0f bf 85 8c ef ff ff 	movswl -0x1074(%rbp),%eax
    834b:	89 d6                	mov    %edx,%esi
    834d:	89 c7                	mov    %eax,%edi
    834f:	e8 01 c1 ff ff       	callq  4455 <safe_div_func_int16_t_s_s>
    8354:	48 8b 85 60 f0 ff ff 	mov    -0xfa0(%rbp),%rax
    835b:	89 c2                	mov    %eax,%edx
    835d:	48 8b 85 b8 f0 ff ff 	mov    -0xf48(%rbp),%rax
    8364:	88 10                	mov    %dl,(%rax)
    8366:	48 8b 85 b8 f0 ff ff 	mov    -0xf48(%rbp),%rax
    836d:	0f b6 00             	movzbl (%rax),%eax
    8370:	0f b6 c0             	movzbl %al,%eax
    8373:	89 c6                	mov    %eax,%esi
    8375:	bf 3b 00 00 00       	mov    $0x3b,%edi
    837a:	e8 db c7 ff ff       	callq  4b5a <safe_add_func_uint8_t_u_u>
    837f:	0f b6 d0             	movzbl %al,%edx
    8382:	48 8b 85 60 f0 ff ff 	mov    -0xfa0(%rbp),%rax
    8389:	48 39 c2             	cmp    %rax,%rdx
    838c:	74 0f                	je     839d <func_58+0x45f>
    838e:	48 8b 05 43 a8 00 00 	mov    0xa843(%rip),%rax        # 12bd8 <g_204>
    8395:	0f b7 00             	movzwl (%rax),%eax
    8398:	66 85 c0             	test   %ax,%ax
    839b:	74 07                	je     83a4 <func_58+0x466>
    839d:	b8 01 00 00 00       	mov    $0x1,%eax
    83a2:	eb 05                	jmp    83a9 <func_58+0x46b>
    83a4:	b8 00 00 00 00       	mov    $0x0,%eax
    83a9:	48 98                	cltq   
    83ab:	48 89 c7             	mov    %rax,%rdi
    83ae:	e8 63 c4 ff ff       	callq  4816 <safe_unary_minus_func_int64_t_s>
    83b3:	48 0f bf 95 8c ef ff 	movswq -0x1074(%rbp),%rdx
    83ba:	ff 
    83bb:	48 39 d0             	cmp    %rdx,%rax
    83be:	0f 9e c0             	setle  %al
    83c1:	0f b6 d0             	movzbl %al,%edx
    83c4:	0f bf 85 8c ef ff ff 	movswl -0x1074(%rbp),%eax
    83cb:	31 d0                	xor    %edx,%eax
    83cd:	83 f8 05             	cmp    $0x5,%eax
    83d0:	0f 96 c0             	setbe  %al
    83d3:	0f b6 c0             	movzbl %al,%eax
    83d6:	89 85 74 ef ff ff    	mov    %eax,-0x108c(%rbp)
    83dc:	0f b7 05 4d 8c 00 00 	movzwl 0x8c4d(%rip),%eax        # 11030 <g_84>
    83e3:	98                   	cwtl   
    83e4:	be 08 00 00 00       	mov    $0x8,%esi
    83e9:	89 c7                	mov    %eax,%edi
    83eb:	e8 73 c1 ff ff       	callq  4563 <safe_rshift_func_int16_t_s_u>
    83f0:	48 0f bf d0          	movswq %ax,%rdx
    83f4:	48 0f bf 8d 8c ef ff 	movswq -0x1074(%rbp),%rcx
    83fb:	ff 
    83fc:	48 8b 85 c0 f0 ff ff 	mov    -0xf40(%rbp),%rax
    8403:	0f b7 00             	movzwl (%rax),%eax
    8406:	89 c6                	mov    %eax,%esi
    8408:	0f b7 85 74 ef ff ff 	movzwl -0x108c(%rbp),%eax
    840f:	31 f0                	xor    %esi,%eax
    8411:	89 c6                	mov    %eax,%esi
    8413:	48 8b 85 c0 f0 ff ff 	mov    -0xf40(%rbp),%rax
    841a:	66 89 30             	mov    %si,(%rax)
    841d:	48 8b 85 c0 f0 ff ff 	mov    -0xf40(%rbp),%rax
    8424:	0f b7 00             	movzwl (%rax),%eax
    8427:	83 f0 04             	xor    $0x4,%eax
    842a:	0f b7 c0             	movzwl %ax,%eax
    842d:	48 31 c8             	xor    %rcx,%rax
    8430:	48 21 c2             	and    %rax,%rdx
    8433:	48 0f bf 85 8c ef ff 	movswq -0x1074(%rbp),%rax
    843a:	ff 
    843b:	48 39 c2             	cmp    %rax,%rdx
    843e:	72 0a                	jb     844a <func_58+0x50c>
    8440:	66 83 bd 8c ef ff ff 	cmpw   $0x0,-0x1074(%rbp)
    8447:	00 
    8448:	74 07                	je     8451 <func_58+0x513>
    844a:	ba 01 00 00 00       	mov    $0x1,%edx
    844f:	eb 05                	jmp    8456 <func_58+0x518>
    8451:	ba 00 00 00 00       	mov    $0x0,%edx
    8456:	48 8b 05 7b a7 00 00 	mov    0xa77b(%rip),%rax        # 12bd8 <g_204>
    845d:	66 89 10             	mov    %dx,(%rax)
    8460:	44 89 ee             	mov    %r13d,%esi
    8463:	bf 01 00 00 00       	mov    $0x1,%edi
    8468:	e8 6e c7 ff ff       	callq  4bdb <safe_div_func_uint8_t_u_u>
    846d:	84 c0                	test   %al,%al
    846f:	0f 94 c0             	sete   %al
    8472:	0f b6 c0             	movzbl %al,%eax
    8475:	44 31 f8             	xor    %r15d,%eax
    8478:	48 63 d0             	movslq %eax,%rdx
    847b:	48 8b 85 c8 f0 ff ff 	mov    -0xf38(%rbp),%rax
    8482:	48 89 10             	mov    %rdx,(%rax)
    8485:	48 8b 85 c8 f0 ff ff 	mov    -0xf38(%rbp),%rax
    848c:	48 8b 00             	mov    (%rax),%rax
    848f:	48 85 c0             	test   %rax,%rax
    8492:	75 0a                	jne    849e <func_58+0x560>
    8494:	66 83 bd 8c ef ff ff 	cmpw   $0x0,-0x1074(%rbp)
    849b:	00 
    849c:	74 07                	je     84a5 <func_58+0x567>
    849e:	ba 01 00 00 00       	mov    $0x1,%edx
    84a3:	eb 05                	jmp    84aa <func_58+0x56c>
    84a5:	ba 00 00 00 00       	mov    $0x0,%edx
    84aa:	48 8b 85 d0 f0 ff ff 	mov    -0xf30(%rbp),%rax
    84b1:	89 10                	mov    %edx,(%rax)
    84b3:	48 8b 85 d0 f0 ff ff 	mov    -0xf30(%rbp),%rax
    84ba:	8b 00                	mov    (%rax),%eax
    84bc:	83 f8 06             	cmp    $0x6,%eax
    84bf:	0f 94 c0             	sete   %al
    84c2:	0f b6 c0             	movzbl %al,%eax
    84c5:	44 89 e6             	mov    %r12d,%esi
    84c8:	89 c7                	mov    %eax,%edi
    84ca:	e8 26 bf ff ff       	callq  43f5 <safe_mul_func_int16_t_s_s>
    84cf:	48 0f bf c0          	movswq %ax,%rax
    84d3:	48 89 de             	mov    %rbx,%rsi
    84d6:	48 89 c7             	mov    %rax,%rdi
    84d9:	e8 63 c3 ff ff       	callq  4841 <safe_add_func_int64_t_s_s>
    84de:	4c 09 f0             	or     %r14,%rax
    84e1:	48 85 c0             	test   %rax,%rax
    84e4:	0f 84 f8 13 00 00    	je     98e2 <func_58+0x19a4>
    84ea:	c7 85 a0 ef ff ff 00 	movl   $0x0,-0x1060(%rbp)
    84f1:	00 00 00 
    84f4:	66 c7 85 a0 ef ff ff 	movw   $0xfff6,-0x1060(%rbp)
    84fb:	f6 ff 
    84fd:	c7 85 f0 f2 ff ff d8 	movl   $0xb2027dd8,-0xd10(%rbp)
    8504:	7d 02 b2 
    8507:	c7 85 f4 f2 ff ff 1b 	movl   $0xbe34fe1b,-0xd0c(%rbp)
    850e:	fe 34 be 
    8511:	c7 85 f8 f2 ff ff d8 	movl   $0xb2027dd8,-0xd08(%rbp)
    8518:	7d 02 b2 
    851b:	c7 85 fc f2 ff ff d8 	movl   $0xb2027dd8,-0xd04(%rbp)
    8522:	7d 02 b2 
    8525:	c7 85 00 f3 ff ff 1b 	movl   $0xbe34fe1b,-0xd00(%rbp)
    852c:	fe 34 be 
    852f:	c7 85 04 f3 ff ff d8 	movl   $0xb2027dd8,-0xcfc(%rbp)
    8536:	7d 02 b2 
    8539:	c7 85 08 f3 ff ff d8 	movl   $0xb2027dd8,-0xcf8(%rbp)
    8540:	7d 02 b2 
    8543:	c7 85 0c f3 ff ff 1b 	movl   $0xbe34fe1b,-0xcf4(%rbp)
    854a:	fe 34 be 
    854d:	c7 85 10 f3 ff ff d8 	movl   $0xb2027dd8,-0xcf0(%rbp)
    8554:	7d 02 b2 
    8557:	c7 85 14 f3 ff ff d8 	movl   $0xb2027dd8,-0xcec(%rbp)
    855e:	7d 02 b2 
    8561:	c7 85 18 f3 ff ff 1b 	movl   $0xbe34fe1b,-0xce8(%rbp)
    8568:	fe 34 be 
    856b:	c7 85 1c f3 ff ff d8 	movl   $0xb2027dd8,-0xce4(%rbp)
    8572:	7d 02 b2 
    8575:	c7 85 20 f3 ff ff d8 	movl   $0xb2027dd8,-0xce0(%rbp)
    857c:	7d 02 b2 
    857f:	c7 85 24 f3 ff ff 1b 	movl   $0xbe34fe1b,-0xcdc(%rbp)
    8586:	fe 34 be 
    8589:	c7 85 28 f3 ff ff d8 	movl   $0xb2027dd8,-0xcd8(%rbp)
    8590:	7d 02 b2 
    8593:	c7 85 2c f3 ff ff d8 	movl   $0xb2027dd8,-0xcd4(%rbp)
    859a:	7d 02 b2 
    859d:	c7 85 30 f3 ff ff 1b 	movl   $0xbe34fe1b,-0xcd0(%rbp)
    85a4:	fe 34 be 
    85a7:	c7 85 34 f3 ff ff d8 	movl   $0xb2027dd8,-0xccc(%rbp)
    85ae:	7d 02 b2 
    85b1:	c7 85 38 f3 ff ff d8 	movl   $0xb2027dd8,-0xcc8(%rbp)
    85b8:	7d 02 b2 
    85bb:	c7 85 3c f3 ff ff 1b 	movl   $0xbe34fe1b,-0xcc4(%rbp)
    85c2:	fe 34 be 
    85c5:	c7 85 40 f3 ff ff d8 	movl   $0xb2027dd8,-0xcc0(%rbp)
    85cc:	7d 02 b2 
    85cf:	c7 85 44 f3 ff ff d8 	movl   $0xb2027dd8,-0xcbc(%rbp)
    85d6:	7d 02 b2 
    85d9:	c7 85 48 f3 ff ff 1b 	movl   $0xbe34fe1b,-0xcb8(%rbp)
    85e0:	fe 34 be 
    85e3:	c7 85 4c f3 ff ff d8 	movl   $0xb2027dd8,-0xcb4(%rbp)
    85ea:	7d 02 b2 
    85ed:	48 c7 85 78 f0 ff ff 	movq   $0x0,-0xf88(%rbp)
    85f4:	00 00 00 00 
    85f8:	48 8d 85 78 f0 ff ff 	lea    -0xf88(%rbp),%rax
    85ff:	48 89 85 00 f1 ff ff 	mov    %rax,-0xf00(%rbp)
    8606:	48 8d 85 f0 f2 ff ff 	lea    -0xd10(%rbp),%rax
    860d:	48 83 c0 08          	add    $0x8,%rax
    8611:	48 89 85 08 f1 ff ff 	mov    %rax,-0xef8(%rbp)
    8618:	48 b8 39 84 39 4a ec 	movabs $0x290f47ec4a398439,%rax
    861f:	47 0f 29 
    8622:	48 89 85 10 f1 ff ff 	mov    %rax,-0xef0(%rbp)
    8629:	48 c7 85 18 f1 ff ff 	movq   $0xfffffffffffffffc,-0xee8(%rbp)
    8630:	fc ff ff ff 
    8634:	c7 85 fc ef ff ff fc 	movl   $0x7c2d14fc,-0x1004(%rbp)
    863b:	14 2d 7c 
    863e:	48 c7 85 20 f1 ff ff 	movq   $0xfffffffffffffff9,-0xee0(%rbp)
    8645:	f9 ff ff ff 
    8649:	c7 85 c8 ef ff ff ff 	movl   $0xffffffff,-0x1038(%rbp)
    8650:	ff ff ff 
    8653:	48 c7 85 80 f0 ff ff 	movq   $0x0,-0xf80(%rbp)
    865a:	00 00 00 00 
    865e:	66 c7 85 80 f0 ff ff 	movw   $0xffff,-0xf80(%rbp)
    8665:	ff ff 
    8667:	48 c7 05 0e 8f 00 00 	movq   $0x5,0x8f0e(%rip)        # 11580 <g_161>
    866e:	05 00 00 00 
    8672:	e9 cf 07 00 00       	jmpq   8e46 <func_58+0xf08>
    8677:	c7 45 c1 da 92 da da 	movl   $0xdada92da,-0x3f(%rbp)
    867e:	66 c7 45 c5 92 da    	movw   $0xda92,-0x3b(%rbp)
    8684:	c6 45 c7 da          	movb   $0xda,-0x39(%rbp)
    8688:	c7 85 00 f0 ff ff ff 	movl   $0xffffffff,-0x1000(%rbp)
    868f:	ff ff ff 
    8692:	48 8d 85 78 f0 ff ff 	lea    -0xf88(%rbp),%rax
    8699:	48 89 85 28 f1 ff ff 	mov    %rax,-0xed8(%rbp)
    86a0:	48 c7 85 30 f1 ff ff 	movq   $0x0,-0xed0(%rbp)
    86a7:	00 00 00 00 
    86ab:	c7 85 cc ef ff ff 00 	movl   $0x0,-0x1034(%rbp)
    86b2:	00 00 00 
    86b5:	eb 1e                	jmp    86d5 <func_58+0x797>
    86b7:	8b 85 cc ef ff ff    	mov    -0x1034(%rbp),%eax
    86bd:	48 98                	cltq   
    86bf:	48 8d 15 26 8d 00 00 	lea    0x8d26(%rip),%rdx        # 113ec <g_160+0x2c>
    86c6:	48 89 94 c5 40 f2 ff 	mov    %rdx,-0xdc0(%rbp,%rax,8)
    86cd:	ff 
    86ce:	83 85 cc ef ff ff 01 	addl   $0x1,-0x1034(%rbp)
    86d5:	83 bd cc ef ff ff 05 	cmpl   $0x5,-0x1034(%rbp)
    86dc:	7e d9                	jle    86b7 <func_58+0x779>
    86de:	0f b6 45 c6          	movzbl -0x3a(%rbp),%eax
    86e2:	84 c0                	test   %al,%al
    86e4:	0f 85 6e 07 00 00    	jne    8e58 <func_58+0xf1a>
    86ea:	b8 64 e2 ff ff       	mov    $0xffffe264,%eax
    86ef:	48 0f bf d8          	movswq %ax,%rbx
    86f3:	0f b6 45 c6          	movzbl -0x3a(%rbp),%eax
    86f7:	44 0f be e0          	movsbl %al,%r12d
    86fb:	48 8b 85 60 f0 ff ff 	mov    -0xfa0(%rbp),%rax
    8702:	98                   	cwtl   
    8703:	c7 85 00 f0 ff ff 00 	movl   $0x0,-0x1000(%rbp)
    870a:	00 00 00 
    870d:	89 c6                	mov    %eax,%esi
    870f:	bf 00 00 00 00       	mov    $0x0,%edi
    8714:	e8 dc bc ff ff       	callq  43f5 <safe_mul_func_int16_t_s_s>
    8719:	0f be d0             	movsbl %al,%edx
    871c:	48 8b 05 5d 8e 00 00 	mov    0x8e5d(%rip),%rax        # 11580 <g_161>
    8723:	0f be c0             	movsbl %al,%eax
    8726:	89 d6                	mov    %edx,%esi
    8728:	89 c7                	mov    %eax,%edi
    872a:	e8 3b bb ff ff       	callq  426a <safe_div_func_int8_t_s_s>
    872f:	48 8b 05 7a ad 00 00 	mov    0xad7a(%rip),%rax        # 134b0 <g_661+0x10>
    8736:	48 85 c0             	test   %rax,%rax
    8739:	0f 95 c0             	setne  %al
    873c:	0f b6 c0             	movzbl %al,%eax
    873f:	be 00 00 00 00       	mov    $0x0,%esi
    8744:	48 89 c7             	mov    %rax,%rdi
    8747:	e8 f5 c0 ff ff       	callq  4841 <safe_add_func_int64_t_s_s>
    874c:	48 f7 d0             	not    %rax
    874f:	48 89 c2             	mov    %rax,%rdx
    8752:	8b 85 f0 f2 ff ff    	mov    -0xd10(%rbp),%eax
    8758:	48 98                	cltq   
    875a:	48 39 c2             	cmp    %rax,%rdx
    875d:	0f 9e c0             	setle  %al
    8760:	0f b6 c0             	movzbl %al,%eax
    8763:	66 89 05 f6 88 00 00 	mov    %ax,0x88f6(%rip)        # 11060 <g_104>
    876a:	0f b7 05 ef 88 00 00 	movzwl 0x88ef(%rip),%eax        # 11060 <g_104>
    8771:	98                   	cwtl   
    8772:	44 89 e6             	mov    %r12d,%esi
    8775:	89 c7                	mov    %eax,%edi
    8777:	e8 d9 bc ff ff       	callq  4455 <safe_div_func_int16_t_s_s>
    877c:	48 8b 85 00 f1 ff ff 	mov    -0xf00(%rbp),%rax
    8783:	48 3b 85 28 f1 ff ff 	cmp    -0xed8(%rbp),%rax
    878a:	75 0a                	jne    8796 <func_58+0x858>
    878c:	8b 85 f0 f2 ff ff    	mov    -0xd10(%rbp),%eax
    8792:	85 c0                	test   %eax,%eax
    8794:	74 07                	je     879d <func_58+0x85f>
    8796:	b8 01 00 00 00       	mov    $0x1,%eax
    879b:	eb 05                	jmp    87a2 <func_58+0x864>
    879d:	b8 00 00 00 00       	mov    $0x0,%eax
    87a2:	98                   	cwtl   
    87a3:	be fa ff ff ff       	mov    $0xfffffffa,%esi
    87a8:	89 c7                	mov    %eax,%edi
    87aa:	e8 04 bc ff ff       	callq  43b3 <safe_add_func_int16_t_s_s>
    87af:	48 0f bf c0          	movswq %ax,%rax
    87b3:	48 89 de             	mov    %rbx,%rsi
    87b6:	48 89 c7             	mov    %rax,%rdi
    87b9:	e8 f1 c8 ff ff       	callq  50af <safe_div_func_uint64_t_u_u>
    87be:	48 3d 80 61 19 4b    	cmp    $0x4b196180,%rax
    87c4:	0f 96 c0             	setbe  %al
    87c7:	0f b6 d0             	movzbl %al,%edx
    87ca:	48 8b 85 60 f0 ff ff 	mov    -0xfa0(%rbp),%rax
    87d1:	48 39 c2             	cmp    %rax,%rdx
    87d4:	7e 33                	jle    8809 <func_58+0x8cb>
    87d6:	48 8b 05 d3 a4 00 00 	mov    0xa4d3(%rip),%rax        # 12cb0 <g_515>
    87dd:	48 8b 95 78 ef ff ff 	mov    -0x1088(%rbp),%rdx
    87e4:	48 89 10             	mov    %rdx,(%rax)
    87e7:	c7 85 00 f0 ff ff 00 	movl   $0x0,-0x1000(%rbp)
    87ee:	00 00 00 
    87f1:	83 bd 00 f0 ff ff 03 	cmpl   $0x3,-0x1000(%rbp)
    87f8:	0f 8f 90 01 00 00    	jg     898e <func_58+0xa50>
    87fe:	8b 85 10 f3 ff ff    	mov    -0xcf0(%rbp),%eax
    8804:	e9 2c 19 00 00       	jmpq   a135 <func_58+0x21f7>
    8809:	48 c7 85 38 f1 ff ff 	movq   $0x9,-0xec8(%rbp)
    8810:	09 00 00 00 
    8814:	c7 85 04 f0 ff ff 1b 	movl   $0xb2e5081b,-0xffc(%rbp)
    881b:	08 e5 b2 
    881e:	48 8d 05 6b 8d 00 00 	lea    0x8d6b(%rip),%rax        # 11590 <g_260>
    8825:	48 89 85 40 f1 ff ff 	mov    %rax,-0xec0(%rbp)
    882c:	c7 85 d0 ef ff ff 00 	movl   $0x0,-0x1030(%rbp)
    8833:	00 00 00 
    8836:	eb 1a                	jmp    8852 <func_58+0x914>
    8838:	8b 85 d0 ef ff ff    	mov    -0x1030(%rbp),%eax
    883e:	48 98                	cltq   
    8840:	c7 84 85 d0 f1 ff ff 	movl   $0x8,-0xe30(%rbp,%rax,4)
    8847:	08 00 00 00 
    884b:	83 85 d0 ef ff ff 01 	addl   $0x1,-0x1030(%rbp)
    8852:	83 bd d0 ef ff ff 02 	cmpl   $0x2,-0x1030(%rbp)
    8859:	7e dd                	jle    8838 <func_58+0x8fa>
    885b:	48 c7 85 60 f0 ff ff 	movq   $0x8,-0xfa0(%rbp)
    8862:	08 00 00 00 
    8866:	e9 10 01 00 00       	jmpq   897b <func_58+0xa3d>
    886b:	66 c7 85 94 ef ff ff 	movw   $0xb453,-0x106c(%rbp)
    8872:	53 b4 
    8874:	c7 85 b0 f7 ff ff e2 	movl   $0xf8180ce2,-0x850(%rbp)
    887b:	0c 18 f8 
    887e:	c7 85 b4 f7 ff ff e2 	movl   $0xf8180ce2,-0x84c(%rbp)
    8885:	0c 18 f8 
    8888:	c7 85 b8 f7 ff ff 09 	movl   $0xb203a109,-0x848(%rbp)
    888f:	a1 03 b2 
    8892:	c7 85 bc f7 ff ff e2 	movl   $0xf8180ce2,-0x844(%rbp)
    8899:	0c 18 f8 
    889c:	c7 85 c0 f7 ff ff e2 	movl   $0xf8180ce2,-0x840(%rbp)
    88a3:	0c 18 f8 
    88a6:	c7 85 c4 f7 ff ff 09 	movl   $0xb203a109,-0x83c(%rbp)
    88ad:	a1 03 b2 
    88b0:	c7 85 c8 f7 ff ff e2 	movl   $0xf8180ce2,-0x838(%rbp)
    88b7:	0c 18 f8 
    88ba:	c7 85 cc f7 ff ff e2 	movl   $0xf8180ce2,-0x834(%rbp)
    88c1:	0c 18 f8 
    88c4:	48 8b 05 15 a4 00 00 	mov    0xa415(%rip),%rax        # 12ce0 <g_673>
    88cb:	48 89 85 f0 f5 ff ff 	mov    %rax,-0xa10(%rbp)
    88d2:	48 8b 85 f0 f5 ff ff 	mov    -0xa10(%rbp),%rax
    88d9:	48 39 85 30 f1 ff ff 	cmp    %rax,-0xed0(%rbp)
    88e0:	0f 94 c0             	sete   %al
    88e3:	0f b6 c0             	movzbl %al,%eax
    88e6:	48 39 85 38 f1 ff ff 	cmp    %rax,-0xec8(%rbp)
    88ed:	0f 9f c0             	setg   %al
    88f0:	0f b6 d0             	movzbl %al,%edx
    88f3:	48 8b 85 d0 f0 ff ff 	mov    -0xf30(%rbp),%rax
    88fa:	8b 00                	mov    (%rax),%eax
    88fc:	31 c2                	xor    %eax,%edx
    88fe:	48 8b 85 d0 f0 ff ff 	mov    -0xf30(%rbp),%rax
    8905:	89 10                	mov    %edx,(%rax)
    8907:	48 8b 85 d0 f0 ff ff 	mov    -0xf30(%rbp),%rax
    890e:	8b 00                	mov    (%rax),%eax
    8910:	89 85 d4 f1 ff ff    	mov    %eax,-0xe2c(%rbp)
    8916:	8b 85 d4 f1 ff ff    	mov    -0xe2c(%rbp),%eax
    891c:	89 85 04 f0 ff ff    	mov    %eax,-0xffc(%rbp)
    8922:	48 8b 95 78 ef ff ff 	mov    -0x1088(%rbp),%rdx
    8929:	48 8b 85 78 ef ff ff 	mov    -0x1088(%rbp),%rax
    8930:	48 89 d6             	mov    %rdx,%rsi
    8933:	48 89 c7             	mov    %rax,%rdi
    8936:	e8 20 18 00 00       	callq  a15b <func_60>
    893b:	48 89 c2             	mov    %rax,%rdx
    893e:	48 8b 85 40 f1 ff ff 	mov    -0xec0(%rbp),%rax
    8945:	48 89 c6             	mov    %rax,%rsi
    8948:	48 89 d7             	mov    %rdx,%rdi
    894b:	e8 0b 18 00 00       	callq  a15b <func_60>
    8950:	48 89 85 08 f1 ff ff 	mov    %rax,-0xef8(%rbp)
    8957:	66 83 85 8a ef ff ff 	addw   $0x1,-0x1076(%rbp)
    895e:	01 
    895f:	8b 85 cc f7 ff ff    	mov    -0x834(%rbp),%eax
    8965:	85 c0                	test   %eax,%eax
    8967:	75 24                	jne    898d <func_58+0xa4f>
    8969:	48 8b 85 60 f0 ff ff 	mov    -0xfa0(%rbp),%rax
    8970:	48 83 e8 01          	sub    $0x1,%rax
    8974:	48 89 85 60 f0 ff ff 	mov    %rax,-0xfa0(%rbp)
    897b:	48 8b 85 60 f0 ff ff 	mov    -0xfa0(%rbp),%rax
    8982:	48 85 c0             	test   %rax,%rax
    8985:	0f 89 e0 fe ff ff    	jns    886b <func_58+0x92d>
    898b:	eb 01                	jmp    898e <func_58+0xa50>
    898d:	90                   	nop
    898e:	48 8b 05 23 a3 00 00 	mov    0xa323(%rip),%rax        # 12cb8 <g_514>
    8995:	48 8b 00             	mov    (%rax),%rax
    8998:	48 8d 95 9c ef ff ff 	lea    -0x1064(%rbp),%rdx
    899f:	48 89 10             	mov    %rdx,(%rax)
    89a2:	66 c7 85 8a ef ff ff 	movw   $0x0,-0x1076(%rbp)
    89a9:	00 00 
    89ab:	e9 ea 01 00 00       	jmpq   8b9a <func_58+0xc5c>
    89b0:	66 c7 85 98 ef ff ff 	movw   $0xd1c4,-0x1068(%rbp)
    89b7:	c4 d1 
    89b9:	48 8b 85 d0 f0 ff ff 	mov    -0xf30(%rbp),%rax
    89c0:	8b 10                	mov    (%rax),%edx
    89c2:	48 8b 05 a7 aa 00 00 	mov    0xaaa7(%rip),%rax        # 13470 <g_174>
    89c9:	8b 00                	mov    (%rax),%eax
    89cb:	09 c2                	or     %eax,%edx
    89cd:	48 8b 85 d0 f0 ff ff 	mov    -0xf30(%rbp),%rax
    89d4:	89 10                	mov    %edx,(%rax)
    89d6:	c7 05 48 86 00 00 00 	movl   $0x0,0x8648(%rip)        # 11028 <g_47>
    89dd:	00 00 00 
    89e0:	90                   	nop
    89e1:	8b 05 41 86 00 00    	mov    0x8641(%rip),%eax        # 11028 <g_47>
    89e7:	83 f8 06             	cmp    $0x6,%eax
    89ea:	0f 8f 5b 01 00 00    	jg     8b4b <func_58+0xc0d>
    89f0:	48 c7 85 b0 f7 ff ff 	movq   $0x0,-0x850(%rbp)
    89f7:	00 00 00 00 
    89fb:	48 b8 6f bb 02 d0 3d 	movabs $0x16a5273dd002bb6f,%rax
    8a02:	27 a5 16 
    8a05:	48 89 85 b8 f7 ff ff 	mov    %rax,-0x848(%rbp)
    8a0c:	48 c7 85 c0 f7 ff ff 	movq   $0x0,-0x840(%rbp)
    8a13:	00 00 00 00 
    8a17:	48 c7 85 c8 f7 ff ff 	movq   $0x0,-0x838(%rbp)
    8a1e:	00 00 00 00 
    8a22:	48 89 85 d0 f7 ff ff 	mov    %rax,-0x830(%rbp)
    8a29:	48 c7 85 d8 f7 ff ff 	movq   $0x0,-0x828(%rbp)
    8a30:	00 00 00 00 
    8a34:	48 c7 85 e0 f7 ff ff 	movq   $0x0,-0x820(%rbp)
    8a3b:	00 00 00 00 
    8a3f:	48 89 85 e8 f7 ff ff 	mov    %rax,-0x818(%rbp)
    8a46:	c7 85 08 f0 ff ff 02 	movl   $0x2,-0xff8(%rbp)
    8a4d:	00 00 00 
    8a50:	c7 85 d4 ef ff ff 00 	movl   $0x0,-0x102c(%rbp)
    8a57:	00 00 00 
    8a5a:	eb 1a                	jmp    8a76 <func_58+0xb38>
    8a5c:	8b 85 d4 ef ff ff    	mov    -0x102c(%rbp),%eax
    8a62:	48 98                	cltq   
    8a64:	c7 84 85 c0 f1 ff ff 	movl   $0x33d0d5ca,-0xe40(%rbp,%rax,4)
    8a6b:	ca d5 d0 33 
    8a6f:	83 85 d4 ef ff ff 01 	addl   $0x1,-0x102c(%rbp)
    8a76:	83 bd d4 ef ff ff 02 	cmpl   $0x2,-0x102c(%rbp)
    8a7d:	7e dd                	jle    8a5c <func_58+0xb1e>
    8a7f:	c7 85 d4 ef ff ff 00 	movl   $0x0,-0x102c(%rbp)
    8a86:	00 00 00 
    8a89:	eb 1b                	jmp    8aa6 <func_58+0xb68>
    8a8b:	8b 85 d4 ef ff ff    	mov    -0x102c(%rbp),%eax
    8a91:	48 98                	cltq   
    8a93:	48 c7 84 c5 d0 f1 ff 	movq   $0x0,-0xe30(%rbp,%rax,8)
    8a9a:	ff 00 00 00 00 
    8a9f:	83 85 d4 ef ff ff 01 	addl   $0x1,-0x102c(%rbp)
    8aa6:	83 bd d4 ef ff ff 02 	cmpl   $0x2,-0x102c(%rbp)
    8aad:	7e dc                	jle    8a8b <func_58+0xb4d>
    8aaf:	0f b7 85 98 ef ff ff 	movzwl -0x1068(%rbp),%eax
    8ab6:	83 e8 01             	sub    $0x1,%eax
    8ab9:	66 89 85 98 ef ff ff 	mov    %ax,-0x1068(%rbp)
    8ac0:	0f b7 9d 98 ef ff ff 	movzwl -0x1068(%rbp),%ebx
    8ac7:	48 83 bd 90 f0 ff ff 	cmpq   $0x0,-0xf70(%rbp)
    8ace:	00 
    8acf:	0f 94 c0             	sete   %al
    8ad2:	0f b6 d0             	movzbl %al,%edx
    8ad5:	48 8b 05 d4 a9 00 00 	mov    0xa9d4(%rip),%rax        # 134b0 <g_661+0x10>
    8adc:	48 85 c0             	test   %rax,%rax
    8adf:	0f 95 c0             	setne  %al
    8ae2:	0f b6 c0             	movzbl %al,%eax
    8ae5:	39 c2                	cmp    %eax,%edx
    8ae7:	0f 9c c0             	setl   %al
    8aea:	0f b6 d0             	movzbl %al,%edx
    8aed:	48 8b 85 e0 f1 ff ff 	mov    -0xe20(%rbp),%rax
    8af4:	48 85 c0             	test   %rax,%rax
    8af7:	0f 94 c0             	sete   %al
    8afa:	0f b6 c0             	movzbl %al,%eax
    8afd:	48 89 d6             	mov    %rdx,%rsi
    8b00:	48 89 c7             	mov    %rax,%rdi
    8b03:	e8 39 bd ff ff       	callq  4841 <safe_add_func_int64_t_s_s>
    8b08:	0f be c0             	movsbl %al,%eax
    8b0b:	be 36 00 00 00       	mov    $0x36,%esi
    8b10:	89 c7                	mov    %eax,%edi
    8b12:	e8 53 b7 ff ff       	callq  426a <safe_div_func_int8_t_s_s>
    8b17:	0f be d0             	movsbl %al,%edx
    8b1a:	8b 85 9c ef ff ff    	mov    -0x1064(%rbp),%eax
    8b20:	31 d0                	xor    %edx,%eax
    8b22:	39 c3                	cmp    %eax,%ebx
    8b24:	0f 9d c0             	setge  %al
    8b27:	0f b6 c0             	movzbl %al,%eax
    8b2a:	be 05 00 00 00       	mov    $0x5,%esi
    8b2f:	89 c7                	mov    %eax,%edi
    8b31:	e8 36 b8 ff ff       	callq  436c <safe_rshift_func_int8_t_s_u>
    8b36:	0f be c0             	movsbl %al,%eax
    8b39:	21 85 08 f0 ff ff    	and    %eax,-0xff8(%rbp)
    8b3f:	48 8b 85 e8 f7 ff ff 	mov    -0x818(%rbp),%rax
    8b46:	e9 ea 15 00 00       	jmpq   a135 <func_58+0x21f7>
    8b4b:	48 c7 85 60 f0 ff ff 	movq   $0x0,-0xfa0(%rbp)
    8b52:	00 00 00 00 
    8b56:	eb 2d                	jmp    8b85 <func_58+0xc47>
    8b58:	48 8b 05 51 a1 00 00 	mov    0xa151(%rip),%rax        # 12cb0 <g_515>
    8b5f:	48 8b 00             	mov    (%rax),%rax
    8b62:	8b 10                	mov    (%rax),%edx
    8b64:	48 8b 05 45 a1 00 00 	mov    0xa145(%rip),%rax        # 12cb0 <g_515>
    8b6b:	48 8b 00             	mov    (%rax),%rax
    8b6e:	83 e2 01             	and    $0x1,%edx
    8b71:	89 10                	mov    %edx,(%rax)
    8b73:	48 8b 85 60 f0 ff ff 	mov    -0xfa0(%rbp),%rax
    8b7a:	48 83 c0 01          	add    $0x1,%rax
    8b7e:	48 89 85 60 f0 ff ff 	mov    %rax,-0xfa0(%rbp)
    8b85:	48 8b 85 60 f0 ff ff 	mov    -0xfa0(%rbp),%rax
    8b8c:	48 83 f8 03          	cmp    $0x3,%rax
    8b90:	7e c6                	jle    8b58 <func_58+0xc1a>
    8b92:	66 83 85 8a ef ff ff 	addw   $0x1,-0x1076(%rbp)
    8b99:	01 
    8b9a:	66 83 bd 8a ef ff ff 	cmpw   $0x6,-0x1076(%rbp)
    8ba1:	06 
    8ba2:	0f 86 08 fe ff ff    	jbe    89b0 <func_58+0xa72>
    8ba8:	c7 05 de 89 00 00 05 	movl   $0x5,0x89de(%rip)        # 11590 <g_260>
    8baf:	00 00 00 
    8bb2:	e9 6f 02 00 00       	jmpq   8e26 <func_58+0xee8>
    8bb7:	48 8d 05 cd 8a 00 00 	lea    0x8acd(%rip),%rax        # 1168b <g_722+0x3>
    8bbe:	48 89 85 48 f1 ff ff 	mov    %rax,-0xeb8(%rbp)
    8bc5:	48 8d 05 c2 8a 00 00 	lea    0x8ac2(%rip),%rax        # 1168e <g_724>
    8bcc:	48 89 85 50 f1 ff ff 	mov    %rax,-0xeb0(%rbp)
    8bd3:	c7 85 b0 f7 ff ff f6 	movl   $0xfffffff6,-0x850(%rbp)
    8bda:	ff ff ff 
    8bdd:	c7 85 b4 f7 ff ff 11 	movl   $0x51d8e311,-0x84c(%rbp)
    8be4:	e3 d8 51 
    8be7:	c7 85 b8 f7 ff ff 11 	movl   $0x51d8e311,-0x848(%rbp)
    8bee:	e3 d8 51 
    8bf1:	c7 85 bc f7 ff ff f6 	movl   $0xfffffff6,-0x844(%rbp)
    8bf8:	ff ff ff 
    8bfb:	c7 85 c0 f7 ff ff 11 	movl   $0x51d8e311,-0x840(%rbp)
    8c02:	e3 d8 51 
    8c05:	c7 85 c4 f7 ff ff 11 	movl   $0x51d8e311,-0x83c(%rbp)
    8c0c:	e3 d8 51 
    8c0f:	c7 85 c8 f7 ff ff f6 	movl   $0xfffffff6,-0x838(%rbp)
    8c16:	ff ff ff 
    8c19:	66 c7 85 96 ef ff ff 	movw   $0x1,-0x106a(%rbp)
    8c20:	01 00 
    8c22:	48 8b 05 f7 89 00 00 	mov    0x89f7(%rip),%rax        # 11620 <g_423>
    8c29:	0f be d8             	movsbl %al,%ebx
    8c2c:	8b 85 30 f6 ff ff    	mov    -0x9d0(%rbp),%eax
    8c32:	44 0f be e0          	movsbl %al,%r12d
    8c36:	48 8b 85 c0 f0 ff ff 	mov    -0xf40(%rbp),%rax
    8c3d:	66 c7 00 fc ff       	movw   $0xfffc,(%rax)
    8c42:	8b 85 c4 f7 ff ff    	mov    -0x83c(%rbp),%eax
    8c48:	35 fc ff 00 00       	xor    $0xfffc,%eax
    8c4d:	41 89 c6             	mov    %eax,%r14d
    8c50:	be f7 ff 00 00       	mov    $0xfff7,%esi
    8c55:	bf fa ff 00 00       	mov    $0xfffa,%edi
    8c5a:	e8 2f c1 ff ff       	callq  4d8e <safe_div_func_uint16_t_u_u>
    8c5f:	89 c2                	mov    %eax,%edx
    8c61:	48 8b 85 b8 f0 ff ff 	mov    -0xf48(%rbp),%rax
    8c68:	88 10                	mov    %dl,(%rax)
    8c6a:	48 8b 85 b8 f0 ff ff 	mov    -0xf48(%rbp),%rax
    8c71:	0f b6 00             	movzbl (%rax),%eax
    8c74:	44 0f be e8          	movsbl %al,%r13d
    8c78:	0f b7 05 b1 83 00 00 	movzwl 0x83b1(%rip),%eax        # 11030 <g_84>
    8c7f:	0f b7 f0             	movzwl %ax,%esi
    8c82:	8b 15 08 89 00 00    	mov    0x8908(%rip),%edx        # 11590 <g_260>
    8c88:	8b 05 9e 83 00 00    	mov    0x839e(%rip),%eax        # 1102c <g_49>
    8c8e:	8b 0d 98 83 00 00    	mov    0x8398(%rip),%ecx        # 1102c <g_49>
    8c94:	48 63 f9             	movslq %ecx,%rdi
    8c97:	48 63 d2             	movslq %edx,%rdx
    8c9a:	48 63 c8             	movslq %eax,%rcx
    8c9d:	48 89 d0             	mov    %rdx,%rax
    8ca0:	48 c1 e0 03          	shl    $0x3,%rax
    8ca4:	48 29 d0             	sub    %rdx,%rax
    8ca7:	48 c1 e0 02          	shl    $0x2,%rax
    8cab:	48 89 ca             	mov    %rcx,%rdx
    8cae:	48 c1 e2 03          	shl    $0x3,%rdx
    8cb2:	48 29 ca             	sub    %rcx,%rdx
    8cb5:	48 01 d0             	add    %rdx,%rax
    8cb8:	48 01 f8             	add    %rdi,%rax
    8cbb:	48 8d 14 00          	lea    (%rax,%rax,1),%rdx
    8cbf:	48 8d 05 fa 86 00 00 	lea    0x86fa(%rip),%rax        # 113c0 <g_160>
    8cc6:	66 c7 04 02 00 00    	movw   $0x0,(%rdx,%rax,1)
    8ccc:	bf 00 00 00 00       	mov    $0x0,%edi
    8cd1:	e8 bc b7 ff ff       	callq  4492 <safe_lshift_func_int16_t_s_s>
    8cd6:	98                   	cwtl   
    8cd7:	44 21 e8             	and    %r13d,%eax
    8cda:	44 31 f0             	xor    %r14d,%eax
    8cdd:	3d dc b6 00 00       	cmp    $0xb6dc,%eax
    8ce2:	0f 9e c0             	setle  %al
    8ce5:	44 0f b6 e8          	movzbl %al,%r13d
    8ce9:	48 8b 05 d8 83 00 00 	mov    0x83d8(%rip),%rax        # 110c8 <g_110>
    8cf0:	49 89 c6             	mov    %rax,%r14
    8cf3:	48 8b 85 48 f1 ff ff 	mov    -0xeb8(%rbp),%rax
    8cfa:	c6 00 00             	movb   $0x0,(%rax)
    8cfd:	48 8b 85 48 f1 ff ff 	mov    -0xeb8(%rbp),%rax
    8d04:	0f b6 10             	movzbl (%rax),%edx
    8d07:	48 8b 85 50 f1 ff ff 	mov    -0xeb0(%rbp),%rax
    8d0e:	0f b6 00             	movzbl (%rax),%eax
    8d11:	09 c2                	or     %eax,%edx
    8d13:	48 8b 85 50 f1 ff ff 	mov    -0xeb0(%rbp),%rax
    8d1a:	88 10                	mov    %dl,(%rax)
    8d1c:	48 8b 85 50 f1 ff ff 	mov    -0xeb0(%rbp),%rax
    8d23:	0f b6 00             	movzbl (%rax),%eax
    8d26:	0f b6 c8             	movzbl %al,%ecx
    8d29:	8b 15 61 88 00 00    	mov    0x8861(%rip),%edx        # 11590 <g_260>
    8d2f:	48 63 c2             	movslq %edx,%rax
    8d32:	48 8d 35 4f 88 00 00 	lea    0x884f(%rip),%rsi        # 11588 <g_162>
    8d39:	0f b6 04 30          	movzbl (%rax,%rsi,1),%eax
    8d3d:	8d 70 01             	lea    0x1(%rax),%esi
    8d40:	48 63 d2             	movslq %edx,%rdx
    8d43:	48 8d 3d 3e 88 00 00 	lea    0x883e(%rip),%rdi        # 11588 <g_162>
    8d4a:	40 88 34 3a          	mov    %sil,(%rdx,%rdi,1)
    8d4e:	0f b6 c0             	movzbl %al,%eax
    8d51:	89 ce                	mov    %ecx,%esi
    8d53:	89 c7                	mov    %eax,%edi
    8d55:	e8 00 be ff ff       	callq  4b5a <safe_add_func_uint8_t_u_u>
    8d5a:	0f b6 c0             	movzbl %al,%eax
    8d5d:	4c 89 f6             	mov    %r14,%rsi
    8d60:	48 89 c7             	mov    %rax,%rdi
    8d63:	e8 c6 c2 ff ff       	callq  502e <safe_add_func_uint64_t_u_u>
    8d68:	0f b6 c0             	movzbl %al,%eax
    8d6b:	44 89 ee             	mov    %r13d,%esi
    8d6e:	89 c7                	mov    %eax,%edi
    8d70:	e8 d7 be ff ff       	callq  4c4c <safe_lshift_func_uint8_t_u_u>
    8d75:	0f b6 c0             	movzbl %al,%eax
    8d78:	66 09 85 96 ef ff ff 	or     %ax,-0x106a(%rbp)
    8d7f:	66 83 bd 96 ef ff ff 	cmpw   $0x0,-0x106a(%rbp)
    8d86:	00 
    8d87:	74 11                	je     8d9a <func_58+0xe5c>
    8d89:	66 83 bd 96 ef ff ff 	cmpw   $0x0,-0x106a(%rbp)
    8d90:	00 
    8d91:	74 07                	je     8d9a <func_58+0xe5c>
    8d93:	ba 01 00 00 00       	mov    $0x1,%edx
    8d98:	eb 05                	jmp    8d9f <func_58+0xe61>
    8d9a:	ba 00 00 00 00       	mov    $0x0,%edx
    8d9f:	48 8b 05 1a 9f 00 00 	mov    0x9f1a(%rip),%rax        # 12cc0 <g_513>
    8da6:	48 8b 00             	mov    (%rax),%rax
    8da9:	48 8b 00             	mov    (%rax),%rax
    8dac:	48 8b 00             	mov    (%rax),%rax
    8daf:	8b 00                	mov    (%rax),%eax
    8db1:	39 c2                	cmp    %eax,%edx
    8db3:	0f b7 05 76 82 00 00 	movzwl 0x8276(%rip),%eax        # 11030 <g_84>
    8dba:	0f be c0             	movsbl %al,%eax
    8dbd:	44 89 e6             	mov    %r12d,%esi
    8dc0:	89 c7                	mov    %eax,%edi
    8dc2:	e8 4b b4 ff ff       	callq  4212 <safe_mul_func_int8_t_s_s>
    8dc7:	48 8b 05 fa 9d 00 00 	mov    0x9dfa(%rip),%rax        # 12bc8 <g_107>
    8dce:	48 8b 00             	mov    (%rax),%rax
    8dd1:	48 83 f8 07          	cmp    $0x7,%rax
    8dd5:	0f 9f c0             	setg   %al
    8dd8:	0f b6 d0             	movzbl %al,%edx
    8ddb:	48 8b 85 c8 f0 ff ff 	mov    -0xf38(%rbp),%rax
    8de2:	48 89 10             	mov    %rdx,(%rax)
    8de5:	48 8b 85 c8 f0 ff ff 	mov    -0xf38(%rbp),%rax
    8dec:	48 8b 00             	mov    (%rax),%rax
    8def:	89 c2                	mov    %eax,%edx
    8df1:	8b 85 c4 f7 ff ff    	mov    -0x83c(%rbp),%eax
    8df7:	21 d0                	and    %edx,%eax
    8df9:	0f be c0             	movsbl %al,%eax
    8dfc:	89 de                	mov    %ebx,%esi
    8dfe:	89 c7                	mov    %eax,%edi
    8e00:	e8 65 b4 ff ff       	callq  426a <safe_div_func_int8_t_s_s>
    8e05:	48 8b 05 4c 82 00 00 	mov    0x824c(%rip),%rax        # 11058 <g_94>
    8e0c:	b8 79 00 00 00       	mov    $0x79,%eax
    8e11:	21 85 ac ef ff ff    	and    %eax,-0x1054(%rbp)
    8e17:	8b 05 73 87 00 00    	mov    0x8773(%rip),%eax        # 11590 <g_260>
    8e1d:	83 e8 01             	sub    $0x1,%eax
    8e20:	89 05 6a 87 00 00    	mov    %eax,0x876a(%rip)        # 11590 <g_260>
    8e26:	8b 05 64 87 00 00    	mov    0x8764(%rip),%eax        # 11590 <g_260>
    8e2c:	85 c0                	test   %eax,%eax
    8e2e:	0f 8f 83 fd ff ff    	jg     8bb7 <func_58+0xc79>
    8e34:	48 8b 05 45 87 00 00 	mov    0x8745(%rip),%rax        # 11580 <g_161>
    8e3b:	48 83 e8 01          	sub    $0x1,%rax
    8e3f:	48 89 05 3a 87 00 00 	mov    %rax,0x873a(%rip)        # 11580 <g_161>
    8e46:	48 8b 05 33 87 00 00 	mov    0x8733(%rip),%rax        # 11580 <g_161>
    8e4d:	48 85 c0             	test   %rax,%rax
    8e50:	0f 89 21 f8 ff ff    	jns    8677 <func_58+0x739>
    8e56:	eb 01                	jmp    8e59 <func_58+0xf1b>
    8e58:	90                   	nop
    8e59:	c7 85 ac ef ff ff 01 	movl   $0x1,-0x1054(%rbp)
    8e60:	00 00 00 
    8e63:	e9 7e 06 00 00       	jmpq   94e6 <func_58+0x15a8>
    8e68:	48 c7 85 58 f1 ff ff 	movq   $0x0,-0xea8(%rbp)
    8e6f:	00 00 00 00 
    8e73:	48 8d 85 b0 f7 ff ff 	lea    -0x850(%rbp),%rax
    8e7a:	48 8d 15 3f 94 00 00 	lea    0x943f(%rip),%rdx        # 122c0 <g_1180+0xbf8>
    8e81:	b9 6c 00 00 00       	mov    $0x6c,%ecx
    8e86:	48 89 c7             	mov    %rax,%rdi
    8e89:	48 89 d6             	mov    %rdx,%rsi
    8e8c:	f3 48 a5             	rep movsq %ds:(%rsi),%es:(%rdi)
    8e8f:	c7 85 0c f0 ff ff 61 	movl   $0x2b117a61,-0xff4(%rbp)
    8e96:	7a 11 2b 
    8e99:	c7 85 d8 ef ff ff ff 	movl   $0xffffffff,-0x1028(%rbp)
    8ea0:	ff ff ff 
    8ea3:	c7 85 10 f0 ff ff 1a 	movl   $0x4bd0511a,-0xff0(%rbp)
    8eaa:	51 d0 4b 
    8ead:	c7 85 14 f0 ff ff ac 	movl   $0x1ca106ac,-0xfec(%rbp)
    8eb4:	06 a1 1c 
    8eb7:	48 8d 85 a0 ef ff ff 	lea    -0x1060(%rbp),%rax
    8ebe:	48 89 85 60 f1 ff ff 	mov    %rax,-0xea0(%rbp)
    8ec5:	c7 85 a4 ef ff ff 4d 	movl   $0x9928024d,-0x105c(%rbp)
    8ecc:	02 28 99 
    8ecf:	c7 85 a8 ef ff ff 00 	movl   $0x0,-0x1058(%rbp)
    8ed6:	00 00 00 
    8ed9:	66 c7 85 a8 ef ff ff 	movw   $0x7,-0x1058(%rbp)
    8ee0:	07 00 
    8ee2:	c7 85 dc ef ff ff 00 	movl   $0x0,-0x1024(%rbp)
    8ee9:	00 00 00 
    8eec:	eb 1e                	jmp    8f0c <func_58+0xfce>
    8eee:	8b 85 dc ef ff ff    	mov    -0x1024(%rbp),%eax
    8ef4:	48 98                	cltq   
    8ef6:	48 8d 15 8f 86 00 00 	lea    0x868f(%rip),%rdx        # 1158c <g_162+0x4>
    8efd:	48 89 94 c5 c0 f1 ff 	mov    %rdx,-0xe40(%rbp,%rax,8)
    8f04:	ff 
    8f05:	83 85 dc ef ff ff 01 	addl   $0x1,-0x1024(%rbp)
    8f0c:	83 bd dc ef ff ff 01 	cmpl   $0x1,-0x1024(%rbp)
    8f13:	7e d9                	jle    8eee <func_58+0xfb0>
    8f15:	c7 85 dc ef ff ff 00 	movl   $0x0,-0x1024(%rbp)
    8f1c:	00 00 00 
    8f1f:	eb 1a                	jmp    8f3b <func_58+0xffd>
    8f21:	8b 85 dc ef ff ff    	mov    -0x1024(%rbp),%eax
    8f27:	48 98                	cltq   
    8f29:	c7 84 85 d0 f1 ff ff 	movl   $0x1,-0xe30(%rbp,%rax,4)
    8f30:	01 00 00 00 
    8f34:	83 85 dc ef ff ff 01 	addl   $0x1,-0x1024(%rbp)
    8f3b:	83 bd dc ef ff ff 03 	cmpl   $0x3,-0x1024(%rbp)
    8f42:	7e dd                	jle    8f21 <func_58+0xfe3>
    8f44:	48 8b 85 10 f1 ff ff 	mov    -0xef0(%rbp),%rax
    8f4b:	41 89 c4             	mov    %eax,%r12d
    8f4e:	8b 85 0c f0 ff ff    	mov    -0xff4(%rbp),%eax
    8f54:	0f b7 d8             	movzwl %ax,%ebx
    8f57:	48 8b 85 70 f9 ff ff 	mov    -0x690(%rbp),%rax
    8f5e:	48 89 85 98 f0 ff ff 	mov    %rax,-0xf68(%rbp)
    8f65:	48 8d 85 30 f6 ff ff 	lea    -0x9d0(%rbp),%rax
    8f6c:	48 05 64 01 00 00    	add    $0x164,%rax
    8f72:	48 89 85 78 ef ff ff 	mov    %rax,-0x1088(%rbp)
    8f79:	48 8b 85 78 ef ff ff 	mov    -0x1088(%rbp),%rax
    8f80:	48 8b 95 98 f0 ff ff 	mov    -0xf68(%rbp),%rdx
    8f87:	48 89 d6             	mov    %rdx,%rsi
    8f8a:	48 89 c7             	mov    %rax,%rdi
    8f8d:	e8 c9 11 00 00       	callq  a15b <func_60>
    8f92:	48 89 c2             	mov    %rax,%rdx
    8f95:	48 8b 85 58 f1 ff ff 	mov    -0xea8(%rbp),%rax
    8f9c:	48 89 d6             	mov    %rdx,%rsi
    8f9f:	48 89 c7             	mov    %rax,%rdi
    8fa2:	e8 b4 11 00 00       	callq  a15b <func_60>
    8fa7:	48 89 85 08 f1 ff ff 	mov    %rax,-0xef8(%rbp)
    8fae:	48 8b 85 08 f1 ff ff 	mov    -0xef8(%rbp),%rax
    8fb5:	48 3b 85 58 f1 ff ff 	cmp    -0xea8(%rbp),%rax
    8fbc:	0f 94 c0             	sete   %al
    8fbf:	0f b6 c0             	movzbl %al,%eax
    8fc2:	8b 95 0c f0 ff ff    	mov    -0xff4(%rbp),%edx
    8fc8:	89 d6                	mov    %edx,%esi
    8fca:	89 c7                	mov    %eax,%edi
    8fcc:	e8 e5 b5 ff ff       	callq  45b6 <safe_add_func_int32_t_s_s>
    8fd1:	8b 95 fc f6 ff ff    	mov    -0x904(%rbp),%edx
    8fd7:	39 d0                	cmp    %edx,%eax
    8fd9:	0f 9f c0             	setg   %al
    8fdc:	89 c2                	mov    %eax,%edx
    8fde:	48 8b 85 10 f1 ff ff 	mov    -0xef0(%rbp),%rax
    8fe5:	31 d0                	xor    %edx,%eax
    8fe7:	88 05 9e 86 00 00    	mov    %al,0x869e(%rip)        # 1168b <g_722+0x3>
    8fed:	0f b6 05 97 86 00 00 	movzbl 0x8697(%rip),%eax        # 1168b <g_722+0x3>
    8ff4:	0f b6 d0             	movzbl %al,%edx
    8ff7:	0f b7 05 64 84 00 00 	movzwl 0x8464(%rip),%eax        # 11462 <g_160+0xa2>
    8ffe:	98                   	cwtl   
    8fff:	39 c2                	cmp    %eax,%edx
    9001:	0f 9f c0             	setg   %al
    9004:	0f b6 c0             	movzbl %al,%eax
    9007:	89 de                	mov    %ebx,%esi
    9009:	89 c7                	mov    %eax,%edi
    900b:	e8 7e bd ff ff       	callq  4d8e <safe_div_func_uint16_t_u_u>
    9010:	0f b7 c0             	movzwl %ax,%eax
    9013:	44 89 e6             	mov    %r12d,%esi
    9016:	89 c7                	mov    %eax,%edi
    9018:	e8 b3 be ff ff       	callq  4ed0 <safe_sub_func_uint32_t_u_u>
    901d:	0f b7 95 a0 ef ff ff 	movzwl -0x1060(%rbp),%edx
    9024:	0f bf d2             	movswl %dx,%edx
    9027:	39 d0                	cmp    %edx,%eax
    9029:	0f 92 c0             	setb   %al
    902c:	0f b6 d0             	movzbl %al,%edx
    902f:	0f b7 85 a0 ef ff ff 	movzwl -0x1060(%rbp),%eax
    9036:	98                   	cwtl   
    9037:	39 c2                	cmp    %eax,%edx
    9039:	0f 95 c0             	setne  %al
    903c:	0f b6 d0             	movzbl %al,%edx
    903f:	48 8b 85 d0 f0 ff ff 	mov    -0xf30(%rbp),%rax
    9046:	8b 00                	mov    (%rax),%eax
    9048:	31 d0                	xor    %edx,%eax
    904a:	89 c2                	mov    %eax,%edx
    904c:	8b 85 ac ef ff ff    	mov    -0x1054(%rbp),%eax
    9052:	89 85 24 f3 ff ff    	mov    %eax,-0xcdc(%rbp)
    9058:	8b 85 24 f3 ff ff    	mov    -0xcdc(%rbp),%eax
    905e:	89 d6                	mov    %edx,%esi
    9060:	89 c7                	mov    %eax,%edi
    9062:	e8 96 be ff ff       	callq  4efd <safe_mod_func_uint32_t_u_u>
    9067:	8b 85 0c f0 ff ff    	mov    -0xff4(%rbp),%eax
    906d:	3b 85 ac ef ff ff    	cmp    -0x1054(%rbp),%eax
    9073:	7f 53                	jg     90c8 <func_58+0x118a>
    9075:	c7 85 40 f2 ff ff 90 	movl   $0xfae48190,-0xdc0(%rbp)
    907c:	81 e4 fa 
    907f:	c7 85 44 f2 ff ff 90 	movl   $0xfae48190,-0xdbc(%rbp)
    9086:	81 e4 fa 
    9089:	c7 85 48 f2 ff ff 90 	movl   $0xfae48190,-0xdb8(%rbp)
    9090:	81 e4 fa 
    9093:	c7 85 4c f2 ff ff 90 	movl   $0xfae48190,-0xdb4(%rbp)
    909a:	81 e4 fa 
    909d:	48 b8 f1 ee 59 3a ef 	movabs $0xe85d51ef3a59eef1,%rax
    90a4:	51 5d e8 
    90a7:	48 89 85 78 f1 ff ff 	mov    %rax,-0xe88(%rbp)
    90ae:	48 83 ad 78 f1 ff ff 	subq   $0x1,-0xe88(%rbp)
    90b5:	01 
    90b6:	83 bd d8 ef ff ff 00 	cmpl   $0x0,-0x1028(%rbp)
    90bd:	0f 84 51 02 00 00    	je     9314 <func_58+0x13d6>
    90c3:	e9 2e 04 00 00       	jmpq   94f6 <func_58+0x15b8>
    90c8:	48 8d 85 86 ef ff ff 	lea    -0x107a(%rbp),%rax
    90cf:	48 89 85 68 f1 ff ff 	mov    %rax,-0xe98(%rbp)
    90d6:	48 c7 85 70 f1 ff ff 	movq   $0xfffffffffffffffd,-0xe90(%rbp)
    90dd:	fd ff ff ff 
    90e1:	66 c7 85 9a ef ff ff 	movw   $0xffff,-0x1066(%rbp)
    90e8:	ff ff 
    90ea:	c7 05 7c 85 00 00 16 	movl   $0x16,0x857c(%rip)        # 11670 <g_526>
    90f1:	00 00 00 
    90f4:	90                   	nop
    90f5:	8b 05 75 85 00 00    	mov    0x8575(%rip),%eax        # 11670 <g_526>
    90fb:	83 f8 24             	cmp    $0x24,%eax
    90fe:	75 19                	jne    9119 <func_58+0x11db>
    9100:	48 8b 85 78 ef ff ff 	mov    -0x1088(%rbp),%rax
    9107:	8b 00                	mov    (%rax),%eax
    9109:	85 c0                	test   %eax,%eax
    910b:	75 0b                	jne    9118 <func_58+0x11da>
    910d:	8b 85 d8 f1 ff ff    	mov    -0xe28(%rbp),%eax
    9113:	e9 1d 10 00 00       	jmpq   a135 <func_58+0x21f7>
    9118:	90                   	nop
    9119:	48 8b 95 78 ef ff ff 	mov    -0x1088(%rbp),%rdx
    9120:	48 8b 85 78 ef ff ff 	mov    -0x1088(%rbp),%rax
    9127:	48 89 d6             	mov    %rdx,%rsi
    912a:	48 89 c7             	mov    %rax,%rdi
    912d:	e8 29 10 00 00       	callq  a15b <func_60>
    9132:	48 89 85 78 ef ff ff 	mov    %rax,-0x1088(%rbp)
    9139:	48 8b 85 c8 f0 ff ff 	mov    -0xf38(%rbp),%rax
    9140:	48 bb d1 ce ba 72 2f 	movabs $0x749dc52f72baced1,%rbx
    9147:	c5 9d 74 
    914a:	48 89 18             	mov    %rbx,(%rax)
    914d:	48 8b 85 c8 f0 ff ff 	mov    -0xf38(%rbp),%rax
    9154:	4c 8b 38             	mov    (%rax),%r15
    9157:	8b 05 93 56 00 00    	mov    0x5693(%rip),%eax        # e7f0 <l_774.4576+0x190>
    915d:	0f be d8             	movsbl %al,%ebx
    9160:	8b 85 d8 ef ff ff    	mov    -0x1028(%rbp),%eax
    9166:	44 0f b7 e0          	movzwl %ax,%r12d
    916a:	44 0f bf ad 88 ef ff 	movswl -0x1078(%rbp),%r13d
    9171:	ff 
    9172:	48 8b 05 df 7e 00 00 	mov    0x7edf(%rip),%rax        # 11058 <g_94>
    9179:	48 8d 85 a0 ef ff ff 	lea    -0x1060(%rbp),%rax
    9180:	48 39 85 60 f1 ff ff 	cmp    %rax,-0xea0(%rbp)
    9187:	0f 94 c0             	sete   %al
    918a:	88 85 74 ef ff ff    	mov    %al,-0x108c(%rbp)
    9190:	8b 85 d0 f1 ff ff    	mov    -0xe30(%rbp),%eax
    9196:	4c 63 f0             	movslq %eax,%r14
    9199:	0f b7 05 54 56 00 00 	movzwl 0x5654(%rip),%eax        # e7f4 <l_774.4576+0x194>
    91a0:	c1 e0 07             	shl    $0x7,%eax
    91a3:	66 c1 f8 07          	sar    $0x7,%ax
    91a7:	0f bf d0             	movswl %ax,%edx
    91aa:	48 83 bd 98 f0 ff ff 	cmpq   $0x0,-0xf68(%rbp)
    91b1:	00 
    91b2:	74 07                	je     91bb <func_58+0x127d>
    91b4:	b9 7d f7 ff ff       	mov    $0xfffff77d,%ecx
    91b9:	eb 05                	jmp    91c0 <func_58+0x1282>
    91bb:	b9 7c f7 ff ff       	mov    $0xfffff77c,%ecx
    91c0:	48 8b 85 68 f1 ff ff 	mov    -0xe98(%rbp),%rax
    91c7:	66 89 08             	mov    %cx,(%rax)
    91ca:	0f b7 05 1b 56 00 00 	movzwl 0x561b(%rip),%eax        # e7ec <l_774.4576+0x18c>
    91d1:	c1 e0 04             	shl    $0x4,%eax
    91d4:	66 c1 f8 04          	sar    $0x4,%ax
    91d8:	98                   	cwtl   
    91d9:	0d d2 fa 00 00       	or     $0xfad2,%eax
    91de:	89 d6                	mov    %edx,%esi
    91e0:	89 c7                	mov    %eax,%edi
    91e2:	e8 cf b3 ff ff       	callq  45b6 <safe_add_func_int32_t_s_s>
    91e7:	48 8b 85 d0 f0 ff ff 	mov    -0xf30(%rbp),%rax
    91ee:	8b 00                	mov    (%rax),%eax
    91f0:	48 98                	cltq   
    91f2:	48 33 85 70 f1 ff ff 	xor    -0xe90(%rbp),%rax
    91f9:	4c 89 f6             	mov    %r14,%rsi
    91fc:	48 89 c7             	mov    %rax,%rdi
    91ff:	e8 f3 b7 ff ff       	callq  49f7 <safe_div_func_int64_t_s_s>
    9204:	32 85 74 ef ff ff    	xor    -0x108c(%rbp),%al
    920a:	0f be c0             	movsbl %al,%eax
    920d:	44 89 ee             	mov    %r13d,%esi
    9210:	89 c7                	mov    %eax,%edi
    9212:	e8 55 b1 ff ff       	callq  436c <safe_rshift_func_int8_t_s_u>
    9217:	0f be c0             	movsbl %al,%eax
    921a:	be 09 00 00 00       	mov    $0x9,%esi
    921f:	89 c7                	mov    %eax,%edi
    9221:	e8 bb b2 ff ff       	callq  44e1 <safe_lshift_func_int16_t_s_u>
    9226:	0f bf d0             	movswl %ax,%edx
    9229:	8b 05 c1 55 00 00    	mov    0x55c1(%rip),%eax        # e7f0 <l_774.4576+0x190>
    922f:	39 c2                	cmp    %eax,%edx
    9231:	0f 9c c0             	setl   %al
    9234:	0f b6 c0             	movzbl %al,%eax
    9237:	48 8b 95 70 f1 ff ff 	mov    -0xe90(%rbp),%rdx
    923e:	31 d0                	xor    %edx,%eax
    9240:	0f b7 c0             	movzwl %ax,%eax
    9243:	44 89 e6             	mov    %r12d,%esi
    9246:	89 c7                	mov    %eax,%edi
    9248:	e8 41 bb ff ff       	callq  4d8e <safe_div_func_uint16_t_u_u>
    924d:	0f b7 d0             	movzwl %ax,%edx
    9250:	48 8b 85 d0 f0 ff ff 	mov    -0xf30(%rbp),%rax
    9257:	89 10                	mov    %edx,(%rax)
    9259:	48 8b 85 d0 f0 ff ff 	mov    -0xf30(%rbp),%rax
    9260:	8b 00                	mov    (%rax),%eax
    9262:	be 82 f6 c2 89       	mov    $0x89c2f682,%esi
    9267:	89 c7                	mov    %eax,%edi
    9269:	e8 48 b3 ff ff       	callq  45b6 <safe_add_func_int32_t_s_s>
    926e:	f7 d0                	not    %eax
    9270:	c1 e8 1f             	shr    $0x1f,%eax
    9273:	89 c2                	mov    %eax,%edx
    9275:	8b 85 d4 f1 ff ff    	mov    -0xe2c(%rbp),%eax
    927b:	31 d0                	xor    %edx,%eax
    927d:	0f be c0             	movsbl %al,%eax
    9280:	89 de                	mov    %ebx,%esi
    9282:	89 c7                	mov    %eax,%edi
    9284:	e8 a8 af ff ff       	callq  4231 <safe_mod_func_int8_t_s_s>
    9289:	48 0f be c0          	movsbq %al,%rax
    928d:	49 39 c7             	cmp    %rax,%r15
    9290:	74 35                	je     92c7 <func_58+0x1389>
    9292:	c7 85 18 f0 ff ff 62 	movl   $0xd474d962,-0xfe8(%rbp)
    9299:	d9 74 d4 
    929c:	48 8b 85 d0 f0 ff ff 	mov    -0xf30(%rbp),%rax
    92a3:	8b 00                	mov    (%rax),%eax
    92a5:	85 c0                	test   %eax,%eax
    92a7:	0f 85 48 02 00 00    	jne    94f5 <func_58+0x15b7>
    92ad:	8b 85 18 f0 ff ff    	mov    -0xfe8(%rbp),%eax
    92b3:	89 85 d8 ef ff ff    	mov    %eax,-0x1028(%rbp)
    92b9:	83 bd 18 f0 ff ff 00 	cmpl   $0x0,-0xfe8(%rbp)
    92c0:	74 26                	je     92e8 <func_58+0x13aa>
    92c2:	e9 2f 02 00 00       	jmpq   94f6 <func_58+0x15b8>
    92c7:	48 b8 2c 2c 2c 2c 2c 	movabs $0x2c2c2c2c2c2c2c2c,%rax
    92ce:	2c 2c 2c 
    92d1:	48 89 85 40 f2 ff ff 	mov    %rax,-0xdc0(%rbp)
    92d8:	0f b6 85 45 f2 ff ff 	movzbl -0xdbb(%rbp),%eax
    92df:	83 e8 01             	sub    $0x1,%eax
    92e2:	88 85 45 f2 ff ff    	mov    %al,-0xdbb(%rbp)
    92e8:	c7 85 0c f0 ff ff 00 	movl   $0x0,-0xff4(%rbp)
    92ef:	00 00 00 
    92f2:	83 bd 0c f0 ff ff 08 	cmpl   $0x8,-0xff4(%rbp)
    92f9:	7e 19                	jle    9314 <func_58+0x13d6>
    92fb:	8b 85 14 f0 ff ff    	mov    -0xfec(%rbp),%eax
    9301:	66 89 85 9a ef ff ff 	mov    %ax,-0x1066(%rbp)
    9308:	48 8b 05 b9 7f 00 00 	mov    0x7fb9(%rip),%rax        # 112c8 <g_134+0x1e8>
    930f:	e9 21 0e 00 00       	jmpq   a135 <func_58+0x21f7>
    9314:	66 c7 85 a0 ef ff ff 	movw   $0x0,-0x1060(%rbp)
    931b:	00 00 
    931d:	e9 ac 01 00 00       	jmpq   94ce <func_58+0x1590>
    9322:	c6 85 80 ef ff ff ff 	movb   $0xff,-0x1080(%rbp)
    9329:	c7 85 1c f0 ff ff 84 	movl   $0x1ff44384,-0xfe4(%rbp)
    9330:	43 f4 1f 
    9333:	48 8d 85 80 ef ff ff 	lea    -0x1080(%rbp),%rax
    933a:	48 89 85 88 f0 ff ff 	mov    %rax,-0xf78(%rbp)
    9341:	48 8d 85 88 f0 ff ff 	lea    -0xf78(%rbp),%rax
    9348:	48 89 85 80 f1 ff ff 	mov    %rax,-0xe80(%rbp)
    934f:	48 8d 85 a4 ef ff ff 	lea    -0x105c(%rbp),%rax
    9356:	48 89 85 88 f1 ff ff 	mov    %rax,-0xe78(%rbp)
    935d:	c7 85 e0 ef ff ff 00 	movl   $0x0,-0x1020(%rbp)
    9364:	00 00 00 
    9367:	eb 1a                	jmp    9383 <func_58+0x1445>
    9369:	8b 85 e0 ef ff ff    	mov    -0x1020(%rbp),%eax
    936f:	48 98                	cltq   
    9371:	c7 84 85 40 f2 ff ff 	movl   $0x1,-0xdc0(%rbp,%rax,4)
    9378:	01 00 00 00 
    937c:	83 85 e0 ef ff ff 01 	addl   $0x1,-0x1020(%rbp)
    9383:	83 bd e0 ef ff ff 02 	cmpl   $0x2,-0x1020(%rbp)
    938a:	7e dd                	jle    9369 <func_58+0x142b>
    938c:	83 ad b8 ef ff ff 01 	subl   $0x1,-0x1048(%rbp)
    9393:	48 8b 05 3e 98 00 00 	mov    0x983e(%rip),%rax        # 12bd8 <g_204>
    939a:	0f b7 00             	movzwl (%rax),%eax
    939d:	0f b7 d8             	movzwl %ax,%ebx
    93a0:	8b 85 d8 ef ff ff    	mov    -0x1028(%rbp),%eax
    93a6:	44 0f bf e0          	movswl %ax,%r12d
    93aa:	8b 85 a4 ef ff ff    	mov    -0x105c(%rbp),%eax
    93b0:	0f bf d0             	movswl %ax,%edx
    93b3:	0f b6 85 80 ef ff ff 	movzbl -0x1080(%rbp),%eax
    93ba:	0f b6 c0             	movzbl %al,%eax
    93bd:	89 d6                	mov    %edx,%esi
    93bf:	89 c7                	mov    %eax,%edi
    93c1:	e8 2f b0 ff ff       	callq  43f5 <safe_mul_func_int16_t_s_s>
    93c6:	98                   	cwtl   
    93c7:	44 89 e6             	mov    %r12d,%esi
    93ca:	89 c7                	mov    %eax,%edi
    93cc:	e8 02 b0 ff ff       	callq  43d3 <safe_sub_func_int16_t_s_s>
    93d1:	8b 85 fc ef ff ff    	mov    -0x1004(%rbp),%eax
    93d7:	48 63 d0             	movslq %eax,%rdx
    93da:	48 8b 05 9f 81 00 00 	mov    0x819f(%rip),%rax        # 11580 <g_161>
    93e1:	48 83 f8 01          	cmp    $0x1,%rax
    93e5:	0f 97 c0             	seta   %al
    93e8:	0f b6 c0             	movzbl %al,%eax
    93eb:	48 89 d6             	mov    %rdx,%rsi
    93ee:	48 89 c7             	mov    %rax,%rdi
    93f1:	e8 8a bc ff ff       	callq  5080 <safe_mod_func_uint64_t_u_u>
    93f6:	8b 85 30 f6 ff ff    	mov    -0x9d0(%rbp),%eax
    93fc:	85 c0                	test   %eax,%eax
    93fe:	0f 94 c0             	sete   %al
    9401:	0f b6 c0             	movzbl %al,%eax
    9404:	89 c7                	mov    %eax,%edi
    9406:	e8 b4 ad ff ff       	callq  41bf <safe_unary_minus_func_int8_t_s>
    940b:	8b 95 40 f2 ff ff    	mov    -0xdc0(%rbp),%edx
    9411:	0f be c0             	movsbl %al,%eax
    9414:	31 d0                	xor    %edx,%eax
    9416:	89 85 40 f2 ff ff    	mov    %eax,-0xdc0(%rbp)
    941c:	8b 85 40 f2 ff ff    	mov    -0xdc0(%rbp),%eax
    9422:	0f b6 c0             	movzbl %al,%eax
    9425:	be 05 00 00 00       	mov    $0x5,%esi
    942a:	89 c7                	mov    %eax,%edi
    942c:	e8 d4 b7 ff ff       	callq  4c05 <safe_lshift_func_uint8_t_u_s>
    9431:	0f be c0             	movsbl %al,%eax
    9434:	be 02 00 00 00       	mov    $0x2,%esi
    9439:	89 c7                	mov    %eax,%edi
    943b:	e8 2c af ff ff       	callq  436c <safe_rshift_func_int8_t_s_u>
    9440:	66 98                	cbtw   
    9442:	66 35 cf ee          	xor    $0xeecf,%ax
    9446:	89 c2                	mov    %eax,%edx
    9448:	0f b7 05 31 82 00 00 	movzwl 0x8231(%rip),%eax        # 11680 <g_647>
    944f:	21 d0                	and    %edx,%eax
    9451:	0f b7 c0             	movzwl %ax,%eax
    9454:	89 de                	mov    %ebx,%esi
    9456:	89 c7                	mov    %eax,%edi
    9458:	e8 ff b8 ff ff       	callq  4d5c <safe_mod_func_uint16_t_u_u>
    945d:	8b 95 40 f2 ff ff    	mov    -0xdc0(%rbp),%edx
    9463:	8b 85 f0 f2 ff ff    	mov    -0xd10(%rbp),%eax
    9469:	09 d0                	or     %edx,%eax
    946b:	48 63 d0             	movslq %eax,%rdx
    946e:	48 8b 05 43 7c 00 00 	mov    0x7c43(%rip),%rax        # 110b8 <g_106+0x38>
    9475:	48 21 d0             	and    %rdx,%rax
    9478:	09 85 1c f0 ff ff    	or     %eax,-0xfe4(%rbp)
    947e:	48 8b 8d c8 f1 ff ff 	mov    -0xe38(%rbp),%rcx
    9485:	48 8b 85 80 f1 ff ff 	mov    -0xe80(%rbp),%rax
    948c:	48 8d 95 80 ef ff ff 	lea    -0x1080(%rbp),%rdx
    9493:	48 89 10             	mov    %rdx,(%rax)
    9496:	48 8b 85 80 f1 ff ff 	mov    -0xe80(%rbp),%rax
    949d:	48 8b 00             	mov    (%rax),%rax
    94a0:	48 39 c1             	cmp    %rax,%rcx
    94a3:	74 07                	je     94ac <func_58+0x156e>
    94a5:	48 8b 05 0c 7f 00 00 	mov    0x7f0c(%rip),%rax        # 113b8 <g_149+0x8>
    94ac:	48 8b 05 35 98 00 00 	mov    0x9835(%rip),%rax        # 12ce8 <g_816>
    94b3:	48 8b 95 70 f0 ff ff 	mov    -0xf90(%rbp),%rdx
    94ba:	48 89 10             	mov    %rdx,(%rax)
    94bd:	0f b7 85 a0 ef ff ff 	movzwl -0x1060(%rbp),%eax
    94c4:	83 c0 01             	add    $0x1,%eax
    94c7:	66 89 85 a0 ef ff ff 	mov    %ax,-0x1060(%rbp)
    94ce:	0f b7 85 a0 ef ff ff 	movzwl -0x1060(%rbp),%eax
    94d5:	66 83 f8 02          	cmp    $0x2,%ax
    94d9:	0f 8e 43 fe ff ff    	jle    9322 <func_58+0x13e4>
    94df:	83 ad ac ef ff ff 01 	subl   $0x1,-0x1054(%rbp)
    94e6:	83 bd ac ef ff ff 00 	cmpl   $0x0,-0x1054(%rbp)
    94ed:	0f 89 75 f9 ff ff    	jns    8e68 <func_58+0xf2a>
    94f3:	eb 01                	jmp    94f6 <func_58+0x15b8>
    94f5:	90                   	nop
    94f6:	83 bd f0 ef ff ff 00 	cmpl   $0x0,-0x1010(%rbp)
    94fd:	0f 84 62 03 00 00    	je     9865 <func_58+0x1927>
    9503:	c7 85 20 f0 ff ff 05 	movl   $0x5,-0xfe0(%rbp)
    950a:	00 00 00 
    950d:	c7 85 24 f0 ff ff 00 	movl   $0x0,-0xfdc(%rbp)
    9514:	00 00 00 
    9517:	c7 85 28 f0 ff ff 31 	movl   $0x796ac931,-0xfd8(%rbp)
    951e:	c9 6a 79 
    9521:	c7 85 2c f0 ff ff 52 	movl   $0xbc485f52,-0xfd4(%rbp)
    9528:	5f 48 bc 
    952b:	48 c7 85 88 f0 ff ff 	movq   $0x0,-0xf78(%rbp)
    9532:	00 00 00 00 
    9536:	66 c7 85 88 f0 ff ff 	movw   $0x8,-0xf78(%rbp)
    953d:	08 00 
    953f:	83 bd 20 f0 ff ff 00 	cmpl   $0x0,-0xfe0(%rbp)
    9546:	0f 85 2f 0b 00 00    	jne    a07b <func_58+0x213d>
    954c:	48 83 bd d0 f0 ff ff 	cmpq   $0x0,-0xf30(%rbp)
    9553:	00 
    9554:	0f 95 c0             	setne  %al
    9557:	0f b6 d0             	movzbl %al,%edx
    955a:	8b 85 20 f0 ff ff    	mov    -0xfe0(%rbp),%eax
    9560:	0f b7 c0             	movzwl %ax,%eax
    9563:	89 d6                	mov    %edx,%esi
    9565:	89 c7                	mov    %eax,%edi
    9567:	e8 d1 b7 ff ff       	callq  4d3d <safe_mul_func_uint16_t_u_u>
    956c:	0f b7 c0             	movzwl %ax,%eax
    956f:	89 85 20 f0 ff ff    	mov    %eax,-0xfe0(%rbp)
    9575:	48 8b 85 d0 f0 ff ff 	mov    -0xf30(%rbp),%rax
    957c:	8b 00                	mov    (%rax),%eax
    957e:	0b 85 f0 ef ff ff    	or     -0x1010(%rbp),%eax
    9584:	89 c2                	mov    %eax,%edx
    9586:	48 8b 85 d0 f0 ff ff 	mov    -0xf30(%rbp),%rax
    958d:	89 10                	mov    %edx,(%rax)
    958f:	c6 85 82 ef ff ff 01 	movb   $0x1,-0x107e(%rbp)
    9596:	e9 bb 02 00 00       	jmpq   9856 <func_58+0x1918>
    959b:	48 bb 00 b5 57 4a 60 	movabs $0x5d2287604a57b500,%rbx
    95a2:	87 22 5d 
    95a5:	48 89 9d b0 f7 ff ff 	mov    %rbx,-0x850(%rbp)
    95ac:	48 b8 7b 7c 37 72 e4 	movabs $0xb4e589e472377c7b,%rax
    95b3:	89 e5 b4 
    95b6:	48 89 85 b8 f7 ff ff 	mov    %rax,-0x848(%rbp)
    95bd:	48 c7 85 c0 f7 ff ff 	movq   $0x1,-0x840(%rbp)
    95c4:	01 00 00 00 
    95c8:	48 89 85 c8 f7 ff ff 	mov    %rax,-0x838(%rbp)
    95cf:	48 89 9d d0 f7 ff ff 	mov    %rbx,-0x830(%rbp)
    95d6:	48 c7 85 d8 f7 ff ff 	movq   $0x1,-0x828(%rbp)
    95dd:	01 00 00 00 
    95e1:	48 c7 85 e0 f7 ff ff 	movq   $0x5,-0x820(%rbp)
    95e8:	05 00 00 00 
    95ec:	48 c7 85 e8 f7 ff ff 	movq   $0x5,-0x818(%rbp)
    95f3:	05 00 00 00 
    95f7:	48 c7 85 f0 f7 ff ff 	movq   $0x5,-0x810(%rbp)
    95fe:	05 00 00 00 
    9602:	48 c7 85 f8 f7 ff ff 	movq   $0x1,-0x808(%rbp)
    9609:	01 00 00 00 
    960d:	48 89 9d 00 f8 ff ff 	mov    %rbx,-0x800(%rbp)
    9614:	48 89 85 08 f8 ff ff 	mov    %rax,-0x7f8(%rbp)
    961b:	48 c7 85 10 f8 ff ff 	movq   $0x1,-0x7f0(%rbp)
    9622:	01 00 00 00 
    9626:	48 89 85 18 f8 ff ff 	mov    %rax,-0x7e8(%rbp)
    962d:	c7 85 30 f0 ff ff fd 	movl   $0xfffffffd,-0xfd0(%rbp)
    9634:	ff ff ff 
    9637:	c7 85 34 f0 ff ff f0 	movl   $0x188bd1f0,-0xfcc(%rbp)
    963e:	d1 8b 18 
    9641:	c7 85 38 f0 ff ff ff 	movl   $0xffffffff,-0xfc8(%rbp)
    9648:	ff ff ff 
    964b:	c7 85 3c f0 ff ff 40 	movl   $0xe49f1840,-0xfc4(%rbp)
    9652:	18 9f e4 
    9655:	c7 85 40 f0 ff ff 5b 	movl   $0x9f87ca5b,-0xfc0(%rbp)
    965c:	ca 87 9f 
    965f:	48 b8 ee d2 5b 06 13 	movabs $0x2b32b913065bd2ee,%rax
    9666:	b9 32 2b 
    9669:	48 89 85 90 f1 ff ff 	mov    %rax,-0xe70(%rbp)
    9670:	c7 85 44 f0 ff ff 2c 	movl   $0xcff0ea2c,-0xfbc(%rbp)
    9677:	ea f0 cf 
    967a:	c7 85 48 f0 ff ff 02 	movl   $0x2,-0xfb8(%rbp)
    9681:	00 00 00 
    9684:	83 85 c8 ef ff ff 01 	addl   $0x1,-0x1038(%rbp)
    968b:	c7 85 ac ef ff ff 02 	movl   $0x2,-0x1054(%rbp)
    9692:	00 00 00 
    9695:	e9 9f 01 00 00       	jmpq   9839 <func_58+0x18fb>
    969a:	48 8d 85 40 f2 ff ff 	lea    -0xdc0(%rbp),%rax
    96a1:	48 83 c0 10          	add    $0x10,%rax
    96a5:	48 89 85 98 f1 ff ff 	mov    %rax,-0xe68(%rbp)
    96ac:	48 b8 c4 e1 ce ce 2c 	movabs $0x8558482ccecee1c4,%rax
    96b3:	48 58 85 
    96b6:	48 89 85 a0 f1 ff ff 	mov    %rax,-0xe60(%rbp)
    96bd:	c7 85 4c f0 ff ff ff 	movl   $0xffffffff,-0xfb4(%rbp)
    96c4:	ff ff ff 
    96c7:	c7 85 e4 ef ff ff 00 	movl   $0x0,-0x101c(%rbp)
    96ce:	00 00 00 
    96d1:	eb 1b                	jmp    96ee <func_58+0x17b0>
    96d3:	8b 85 e4 ef ff ff    	mov    -0x101c(%rbp),%eax
    96d9:	48 98                	cltq   
    96db:	48 c7 84 c5 40 f2 ff 	movq   $0x0,-0xdc0(%rbp,%rax,8)
    96e2:	ff 00 00 00 00 
    96e7:	83 85 e4 ef ff ff 01 	addl   $0x1,-0x101c(%rbp)
    96ee:	83 bd e4 ef ff ff 08 	cmpl   $0x8,-0x101c(%rbp)
    96f5:	7e dc                	jle    96d3 <func_58+0x1795>
    96f7:	c7 85 38 f0 ff ff 9e 	movl   $0x9cc349e,-0xfc8(%rbp)
    96fe:	34 cc 09 
    9701:	0f be 95 82 ef ff ff 	movsbl -0x107e(%rbp),%edx
    9708:	8b 05 1e 79 00 00    	mov    0x791e(%rip),%eax        # 1102c <g_49>
    970e:	83 c0 02             	add    $0x2,%eax
    9711:	48 98                	cltq   
    9713:	48 63 d2             	movslq %edx,%rdx
    9716:	48 c1 e2 03          	shl    $0x3,%rdx
    971a:	48 01 c2             	add    %rax,%rdx
    971d:	48 8d 05 1c 79 00 00 	lea    0x791c(%rip),%rax        # 11040 <g_92>
    9724:	48 01 d0             	add    %rdx,%rax
    9727:	0f b6 00             	movzbl (%rax),%eax
    972a:	84 c0                	test   %al,%al
    972c:	0f 85 ff 00 00 00    	jne    9831 <func_58+0x18f3>
    9732:	48 8b 85 98 f1 ff ff 	mov    -0xe68(%rbp),%rax
    9739:	48 8d 95 60 f0 ff ff 	lea    -0xfa0(%rbp),%rdx
    9740:	48 89 10             	mov    %rdx,(%rax)
    9743:	0f be 95 82 ef ff ff 	movsbl -0x107e(%rbp),%edx
    974a:	8b 05 dc 78 00 00    	mov    0x78dc(%rip),%eax        # 1102c <g_49>
    9750:	83 c0 02             	add    $0x2,%eax
    9753:	48 98                	cltq   
    9755:	48 63 d2             	movslq %edx,%rdx
    9758:	48 c1 e2 03          	shl    $0x3,%rdx
    975c:	48 01 c2             	add    %rax,%rdx
    975f:	48 8d 05 da 78 00 00 	lea    0x78da(%rip),%rax        # 11040 <g_92>
    9766:	48 01 d0             	add    %rdx,%rax
    9769:	0f b6 00             	movzbl (%rax),%eax
    976c:	0f be d8             	movsbl %al,%ebx
    976f:	48 8b 85 a0 f1 ff ff 	mov    -0xe60(%rbp),%rax
    9776:	0f b7 c0             	movzwl %ax,%eax
    9779:	48 8b 15 48 94 00 00 	mov    0x9448(%rip),%rdx        # 12bc8 <g_107>
    9780:	48 8b 12             	mov    (%rdx),%rdx
    9783:	0f b7 d2             	movzwl %dx,%edx
    9786:	81 e2 4b f5 00 00    	and    $0xf54b,%edx
    978c:	89 c6                	mov    %eax,%esi
    978e:	89 d7                	mov    %edx,%edi
    9790:	e8 c7 b5 ff ff       	callq  4d5c <safe_mod_func_uint16_t_u_u>
    9795:	0f b7 d0             	movzwl %ax,%edx
    9798:	0f b6 05 a4 78 00 00 	movzbl 0x78a4(%rip),%eax        # 11043 <g_92+0x3>
    979f:	0f be c0             	movsbl %al,%eax
    97a2:	39 c2                	cmp    %eax,%edx
    97a4:	0f 9e c0             	setle  %al
    97a7:	0f b6 c0             	movzbl %al,%eax
    97aa:	89 de                	mov    %ebx,%esi
    97ac:	89 c7                	mov    %eax,%edi
    97ae:	e8 63 ac ff ff       	callq  4416 <safe_mod_func_int16_t_s_s>
    97b3:	89 c6                	mov    %eax,%esi
    97b5:	48 8b 05 fc 78 00 00 	mov    0x78fc(%rip),%rax        # 110b8 <g_106+0x38>
    97bc:	89 c1                	mov    %eax,%ecx
    97be:	0f be 85 82 ef ff ff 	movsbl -0x107e(%rbp),%eax
    97c5:	8b 15 61 78 00 00    	mov    0x7861(%rip),%edx        # 1102c <g_49>
    97cb:	83 c2 02             	add    $0x2,%edx
    97ce:	21 ce                	and    %ecx,%esi
    97d0:	48 63 ca             	movslq %edx,%rcx
    97d3:	48 63 f8             	movslq %eax,%rdi
    97d6:	48 c1 e7 03          	shl    $0x3,%rdi
    97da:	48 01 cf             	add    %rcx,%rdi
    97dd:	48 8d 0d 5c 78 00 00 	lea    0x785c(%rip),%rcx        # 11040 <g_92>
    97e4:	48 01 f9             	add    %rdi,%rcx
    97e7:	40 88 31             	mov    %sil,(%rcx)
    97ea:	48 63 d2             	movslq %edx,%rdx
    97ed:	48 98                	cltq   
    97ef:	48 c1 e0 03          	shl    $0x3,%rax
    97f3:	48 01 c2             	add    %rax,%rdx
    97f6:	48 8d 05 43 78 00 00 	lea    0x7843(%rip),%rax        # 11040 <g_92>
    97fd:	48 01 d0             	add    %rdx,%rax
    9800:	0f b6 00             	movzbl (%rax),%eax
    9803:	0f be d0             	movsbl %al,%edx
    9806:	0f b7 05 23 78 00 00 	movzwl 0x7823(%rip),%eax        # 11030 <g_84>
    980d:	0f be c0             	movsbl %al,%eax
    9810:	89 d6                	mov    %edx,%esi
    9812:	89 c7                	mov    %eax,%edi
    9814:	e8 f9 a9 ff ff       	callq  4212 <safe_mul_func_int8_t_s_s>
    9819:	c7 85 20 f0 ff ff 00 	movl   $0x0,-0xfe0(%rbp)
    9820:	00 00 00 
    9823:	8b 85 20 f0 ff ff    	mov    -0xfe0(%rbp),%eax
    9829:	31 85 4c f0 ff ff    	xor    %eax,-0xfb4(%rbp)
    982f:	eb 01                	jmp    9832 <func_58+0x18f4>
    9831:	90                   	nop
    9832:	83 ad ac ef ff ff 01 	subl   $0x1,-0x1054(%rbp)
    9839:	83 bd ac ef ff ff 00 	cmpl   $0x0,-0x1054(%rbp)
    9840:	0f 89 54 fe ff ff    	jns    969a <func_58+0x175c>
    9846:	0f b6 85 82 ef ff ff 	movzbl -0x107e(%rbp),%eax
    984d:	83 e8 01             	sub    $0x1,%eax
    9850:	88 85 82 ef ff ff    	mov    %al,-0x107e(%rbp)
    9856:	80 bd 82 ef ff ff 00 	cmpb   $0x0,-0x107e(%rbp)
    985d:	0f 89 38 fd ff ff    	jns    959b <func_58+0x165d>
    9863:	eb 68                	jmp    98cd <func_58+0x198f>
    9865:	c7 85 e8 ef ff ff 00 	movl   $0x0,-0x1018(%rbp)
    986c:	00 00 00 
    986f:	66 c7 05 e8 77 00 00 	movw   $0x3,0x77e8(%rip)        # 11060 <g_104>
    9876:	03 00 
    9878:	eb 47                	jmp    98c1 <func_58+0x1983>
    987a:	83 85 e8 ef ff ff 01 	addl   $0x1,-0x1018(%rbp)
    9881:	8b 15 a5 77 00 00    	mov    0x77a5(%rip),%edx        # 1102c <g_49>
    9887:	8b 05 9f 77 00 00    	mov    0x779f(%rip),%eax        # 1102c <g_49>
    988d:	83 c0 03             	add    $0x3,%eax
    9890:	48 98                	cltq   
    9892:	48 63 d2             	movslq %edx,%rdx
    9895:	48 c1 e2 03          	shl    $0x3,%rdx
    9899:	48 01 d0             	add    %rdx,%rax
    989c:	48 8d 14 85 00 00 00 	lea    0x0(,%rax,4),%rdx
    98a3:	00 
    98a4:	48 8d 05 f5 7c 00 00 	lea    0x7cf5(%rip),%rax        # 115a0 <g_359>
    98ab:	8b 04 02             	mov    (%rdx,%rax,1),%eax
    98ae:	85 c0                	test   %eax,%eax
    98b0:	0f b7 05 a9 77 00 00 	movzwl 0x77a9(%rip),%eax        # 11060 <g_104>
    98b7:	83 e8 01             	sub    $0x1,%eax
    98ba:	66 89 05 9f 77 00 00 	mov    %ax,0x779f(%rip)        # 11060 <g_104>
    98c1:	0f b7 05 98 77 00 00 	movzwl 0x7798(%rip),%eax        # 11060 <g_104>
    98c8:	66 85 c0             	test   %ax,%ax
    98cb:	79 ad                	jns    987a <func_58+0x193c>
    98cd:	0f b7 85 a0 ef ff ff 	movzwl -0x1060(%rbp),%eax
    98d4:	66 85 c0             	test   %ax,%ax
    98d7:	0f 84 ac 03 00 00    	je     9c89 <func_58+0x1d4b>
    98dd:	e9 7b 07 00 00       	jmpq   a05d <func_58+0x211f>
    98e2:	48 c7 85 80 f0 ff ff 	movq   $0x0,-0xf80(%rbp)
    98e9:	00 00 00 00 
    98ed:	66 c7 85 80 f0 ff ff 	movw   $0x1,-0xf80(%rbp)
    98f4:	01 00 
    98f6:	48 8d 05 d3 93 00 00 	lea    0x93d3(%rip),%rax        # 12cd0 <g_675>
    98fd:	48 89 85 f0 f2 ff ff 	mov    %rax,-0xd10(%rbp)
    9904:	48 8d 05 c5 93 00 00 	lea    0x93c5(%rip),%rax        # 12cd0 <g_675>
    990b:	48 89 85 f8 f2 ff ff 	mov    %rax,-0xd08(%rbp)
    9912:	48 8d 05 b7 93 00 00 	lea    0x93b7(%rip),%rax        # 12cd0 <g_675>
    9919:	48 89 85 00 f3 ff ff 	mov    %rax,-0xd00(%rbp)
    9920:	48 8d 05 a9 93 00 00 	lea    0x93a9(%rip),%rax        # 12cd0 <g_675>
    9927:	48 89 85 08 f3 ff ff 	mov    %rax,-0xcf8(%rbp)
    992e:	48 8d 05 9b 93 00 00 	lea    0x939b(%rip),%rax        # 12cd0 <g_675>
    9935:	48 89 85 10 f3 ff ff 	mov    %rax,-0xcf0(%rbp)
    993c:	48 8d 05 8d 93 00 00 	lea    0x938d(%rip),%rax        # 12cd0 <g_675>
    9943:	48 89 85 18 f3 ff ff 	mov    %rax,-0xce8(%rbp)
    994a:	48 8d 85 70 f0 ff ff 	lea    -0xf90(%rbp),%rax
    9951:	48 89 85 88 f0 ff ff 	mov    %rax,-0xf78(%rbp)
    9958:	0f b7 85 86 ef ff ff 	movzwl -0x107a(%rbp),%eax
    995f:	66 85 c0             	test   %ax,%ax
    9962:	74 15                	je     9979 <func_58+0x1a3b>
    9964:	66 c7 85 92 ef ff ff 	movw   $0x0,-0x106e(%rbp)
    996b:	00 00 
    996d:	0f b7 85 92 ef ff ff 	movzwl -0x106e(%rbp),%eax
    9974:	e9 bc 07 00 00       	jmpq   a135 <func_58+0x21f7>
    9979:	66 c7 85 8e ef ff ff 	movw   $0x6a84,-0x1072(%rbp)
    9980:	84 6a 
    9982:	48 8d 85 86 ef ff ff 	lea    -0x107a(%rbp),%rax
    9989:	48 89 85 e0 f0 ff ff 	mov    %rax,-0xf20(%rbp)
    9990:	48 8d 05 39 93 00 00 	lea    0x9339(%rip),%rax        # 12cd0 <g_675>
    9997:	48 89 85 e8 f0 ff ff 	mov    %rax,-0xf18(%rbp)
    999e:	c6 85 84 ef ff ff ee 	movb   $0xee,-0x107c(%rbp)
    99a5:	48 8d 05 bc 79 00 00 	lea    0x79bc(%rip),%rax        # 11368 <g_134+0x288>
    99ac:	48 89 85 f0 f0 ff ff 	mov    %rax,-0xf10(%rbp)
    99b3:	c6 85 85 ef ff ff ed 	movb   $0xed,-0x107b(%rbp)
    99ba:	0f bf 9d 8e ef ff ff 	movswl -0x1072(%rbp),%ebx
    99c1:	0f b6 45 bf          	movzbl -0x41(%rbp),%eax
    99c5:	44 0f be e0          	movsbl %al,%r12d
    99c9:	44 0f bf ad 8e ef ff 	movswl -0x1072(%rbp),%r13d
    99d0:	ff 
    99d1:	0f b6 05 b3 7c 00 00 	movzbl 0x7cb3(%rip),%eax        # 1168b <g_722+0x3>
    99d8:	0f b6 d0             	movzbl %al,%edx
    99db:	48 8b 85 e0 f0 ff ff 	mov    -0xf20(%rbp),%rax
    99e2:	66 89 10             	mov    %dx,(%rax)
    99e5:	48 8b 85 d0 f0 ff ff 	mov    -0xf30(%rbp),%rax
    99ec:	8b 10                	mov    (%rax),%edx
    99ee:	48 8b 85 18 f3 ff ff 	mov    -0xce8(%rbp),%rax
    99f5:	48 39 85 e8 f0 ff ff 	cmp    %rax,-0xf18(%rbp)
    99fc:	0f 95 c0             	setne  %al
    99ff:	0f b6 c8             	movzbl %al,%ecx
    9a02:	0f bf 85 8e ef ff ff 	movswl -0x1072(%rbp),%eax
    9a09:	39 c1                	cmp    %eax,%ecx
    9a0b:	0f 94 c0             	sete   %al
    9a0e:	0f b6 c0             	movzbl %al,%eax
    9a11:	39 c2                	cmp    %eax,%edx
    9a13:	0f 9f c0             	setg   %al
    9a16:	0f b6 c0             	movzbl %al,%eax
    9a19:	be 00 00 00 00       	mov    $0x0,%esi
    9a1e:	89 c7                	mov    %eax,%edi
    9a20:	e8 e0 ab ff ff       	callq  4605 <safe_sub_func_int32_t_s_s>
    9a25:	41 39 c5             	cmp    %eax,%r13d
    9a28:	0f 94 c0             	sete   %al
    9a2b:	0f b6 c0             	movzbl %al,%eax
    9a2e:	44 89 e6             	mov    %r12d,%esi
    9a31:	89 c7                	mov    %eax,%edi
    9a33:	e8 c5 b4 ff ff       	callq  4efd <safe_mod_func_uint32_t_u_u>
    9a38:	48 8b 85 d0 f0 ff ff 	mov    -0xf30(%rbp),%rax
    9a3f:	8b 00                	mov    (%rax),%eax
    9a41:	48 98                	cltq   
    9a43:	be 01 00 00 00       	mov    $0x1,%esi
    9a48:	48 89 c7             	mov    %rax,%rdi
    9a4b:	e8 58 ae ff ff       	callq  48a8 <safe_sub_func_int64_t_s_s>
    9a50:	89 c2                	mov    %eax,%edx
    9a52:	48 8b 85 b8 f0 ff ff 	mov    -0xf48(%rbp),%rax
    9a59:	88 10                	mov    %dl,(%rax)
    9a5b:	48 8b 85 b8 f0 ff ff 	mov    -0xf48(%rbp),%rax
    9a62:	0f b6 00             	movzbl (%rax),%eax
    9a65:	66 98                	cbtw   
    9a67:	8b 15 03 7c 00 00    	mov    0x7c03(%rip),%edx        # 11670 <g_526>
    9a6d:	31 d0                	xor    %edx,%eax
    9a6f:	98                   	cwtl   
    9a70:	89 de                	mov    %ebx,%esi
    9a72:	89 c7                	mov    %eax,%edi
    9a74:	e8 9d a9 ff ff       	callq  4416 <safe_mod_func_int16_t_s_s>
    9a79:	48 0f bf d0          	movswq %ax,%rdx
    9a7d:	48 8b 85 f0 f0 ff ff 	mov    -0xf10(%rbp),%rax
    9a84:	48 89 10             	mov    %rdx,(%rax)
    9a87:	48 8b 85 f0 f0 ff ff 	mov    -0xf10(%rbp),%rax
    9a8e:	48 8b 00             	mov    (%rax),%rax
    9a91:	48 85 c0             	test   %rax,%rax
    9a94:	75 0e                	jne    9aa4 <func_58+0x1b66>
    9a96:	8b 05 24 9a 00 00    	mov    0x9a24(%rip),%eax        # 134c0 <g_872>
    9a9c:	85 c0                	test   %eax,%eax
    9a9e:	0f 84 c8 00 00 00    	je     9b6c <func_58+0x1c2e>
    9aa4:	66 c7 85 90 ef ff ff 	movw   $0x6,-0x1070(%rbp)
    9aab:	06 00 
    9aad:	c7 85 f8 ef ff ff e9 	movl   $0x3359bae9,-0x1008(%rbp)
    9ab4:	ba 59 33 
    9ab7:	48 8b 05 1a 91 00 00 	mov    0x911a(%rip),%rax        # 12bd8 <g_204>
    9abe:	0f b7 10             	movzwl (%rax),%edx
    9ac1:	83 c2 01             	add    $0x1,%edx
    9ac4:	66 89 10             	mov    %dx,(%rax)
    9ac7:	0f b7 00             	movzwl (%rax),%eax
    9aca:	0f b7 d0             	movzwl %ax,%edx
    9acd:	8b 05 f1 7a 00 00    	mov    0x7af1(%rip),%eax        # 115c4 <g_359+0x24>
    9ad3:	98                   	cwtl   
    9ad4:	89 d6                	mov    %edx,%esi
    9ad6:	89 c7                	mov    %eax,%edi
    9ad8:	e8 86 aa ff ff       	callq  4563 <safe_rshift_func_int16_t_s_u>
    9add:	98                   	cwtl   
    9ade:	89 85 f8 ef ff ff    	mov    %eax,-0x1008(%rbp)
    9ae4:	c6 05 a3 7b 00 00 00 	movb   $0x0,0x7ba3(%rip)        # 1168e <g_724>
    9aeb:	eb 6f                	jmp    9b5c <func_58+0x1c1e>
    9aed:	48 8d 05 bc 91 00 00 	lea    0x91bc(%rip),%rax        # 12cb0 <g_515>
    9af4:	48 89 85 f8 f0 ff ff 	mov    %rax,-0xf08(%rbp)
    9afb:	48 8b 05 be 91 00 00 	mov    0x91be(%rip),%rax        # 12cc0 <g_513>
    9b02:	48 8b 00             	mov    (%rax),%rax
    9b05:	48 8b 10             	mov    (%rax),%rdx
    9b08:	48 8b 85 f8 f0 ff ff 	mov    -0xf08(%rbp),%rax
    9b0f:	48 89 10             	mov    %rdx,(%rax)
    9b12:	0f b6 05 75 7b 00 00 	movzbl 0x7b75(%rip),%eax        # 1168e <g_724>
    9b19:	0f b6 d0             	movzbl %al,%edx
    9b1c:	0f b6 05 6b 7b 00 00 	movzbl 0x7b6b(%rip),%eax        # 1168e <g_724>
    9b23:	0f b6 c0             	movzbl %al,%eax
    9b26:	48 98                	cltq   
    9b28:	48 63 d2             	movslq %edx,%rdx
    9b2b:	48 01 d2             	add    %rdx,%rdx
    9b2e:	48 01 d0             	add    %rdx,%rax
    9b31:	48 8d 14 00          	lea    (%rax,%rax,1),%rdx
    9b35:	48 8d 05 44 7b 00 00 	lea    0x7b44(%rip),%rax        # 11680 <g_647>
    9b3c:	0f b7 04 02          	movzwl (%rdx,%rax,1),%eax
    9b40:	0f b7 d0             	movzwl %ax,%edx
    9b43:	48 8b 85 d0 f0 ff ff 	mov    -0xf30(%rbp),%rax
    9b4a:	89 10                	mov    %edx,(%rax)
    9b4c:	0f b6 05 3b 7b 00 00 	movzbl 0x7b3b(%rip),%eax        # 1168e <g_724>
    9b53:	83 c0 01             	add    $0x1,%eax
    9b56:	88 05 32 7b 00 00    	mov    %al,0x7b32(%rip)        # 1168e <g_724>
    9b5c:	0f b6 05 2b 7b 00 00 	movzbl 0x7b2b(%rip),%eax        # 1168e <g_724>
    9b63:	3c 01                	cmp    $0x1,%al
    9b65:	76 86                	jbe    9aed <func_58+0x1baf>
    9b67:	e9 11 01 00 00       	jmpq   9c7d <func_58+0x1d3f>
    9b6c:	48 c7 85 b0 f7 ff ff 	movq   $0x0,-0x850(%rbp)
    9b73:	00 00 00 00 
    9b77:	48 8d 85 88 f0 ff ff 	lea    -0xf78(%rbp),%rax
    9b7e:	48 89 85 b8 f7 ff ff 	mov    %rax,-0x848(%rbp)
    9b85:	48 c7 85 c0 f7 ff ff 	movq   $0x0,-0x840(%rbp)
    9b8c:	00 00 00 00 
    9b90:	48 8d 85 88 f0 ff ff 	lea    -0xf78(%rbp),%rax
    9b97:	48 89 85 c8 f7 ff ff 	mov    %rax,-0x838(%rbp)
    9b9e:	48 c7 85 d0 f7 ff ff 	movq   $0x0,-0x830(%rbp)
    9ba5:	00 00 00 00 
    9ba9:	48 8d 85 88 f0 ff ff 	lea    -0xf78(%rbp),%rax
    9bb0:	48 89 85 d8 f7 ff ff 	mov    %rax,-0x828(%rbp)
    9bb7:	48 c7 85 e0 f7 ff ff 	movq   $0x0,-0x820(%rbp)
    9bbe:	00 00 00 00 
    9bc2:	48 8d 85 88 f0 ff ff 	lea    -0xf78(%rbp),%rax
    9bc9:	48 89 85 e8 f7 ff ff 	mov    %rax,-0x818(%rbp)
    9bd0:	48 c7 85 f0 f7 ff ff 	movq   $0x0,-0x810(%rbp)
    9bd7:	00 00 00 00 
    9bdb:	48 8d 85 88 f0 ff ff 	lea    -0xf78(%rbp),%rax
    9be2:	48 89 85 f8 f7 ff ff 	mov    %rax,-0x808(%rbp)
    9be9:	48 c7 85 00 f8 ff ff 	movq   $0x0,-0x800(%rbp)
    9bf0:	00 00 00 00 
    9bf4:	48 8d 85 88 f0 ff ff 	lea    -0xf78(%rbp),%rax
    9bfb:	48 89 85 08 f8 ff ff 	mov    %rax,-0x7f8(%rbp)
    9c02:	48 c7 85 10 f8 ff ff 	movq   $0x0,-0x7f0(%rbp)
    9c09:	00 00 00 00 
    9c0d:	48 8d 85 88 f0 ff ff 	lea    -0xf78(%rbp),%rax
    9c14:	48 89 85 18 f8 ff ff 	mov    %rax,-0x7e8(%rbp)
    9c1b:	48 c7 85 20 f8 ff ff 	movq   $0x0,-0x7e0(%rbp)
    9c22:	00 00 00 00 
    9c26:	48 8d 85 88 f0 ff ff 	lea    -0xf78(%rbp),%rax
    9c2d:	48 89 85 28 f8 ff ff 	mov    %rax,-0x7d8(%rbp)
    9c34:	c6 85 81 ef ff ff 01 	movb   $0x1,-0x107f(%rbp)
    9c3b:	eb 29                	jmp    9c66 <func_58+0x1d28>
    9c3d:	48 8b 85 d0 f0 ff ff 	mov    -0xf30(%rbp),%rax
    9c44:	8b 00                	mov    (%rax),%eax
    9c46:	25 91 3c 00 00       	and    $0x3c91,%eax
    9c4b:	89 c2                	mov    %eax,%edx
    9c4d:	48 8b 85 d0 f0 ff ff 	mov    -0xf30(%rbp),%rax
    9c54:	89 10                	mov    %edx,(%rax)
    9c56:	0f b6 85 81 ef ff ff 	movzbl -0x107f(%rbp),%eax
    9c5d:	83 e8 01             	sub    $0x1,%eax
    9c60:	88 85 81 ef ff ff    	mov    %al,-0x107f(%rbp)
    9c66:	80 bd 81 ef ff ff 00 	cmpb   $0x0,-0x107f(%rbp)
    9c6d:	79 ce                	jns    9c3d <func_58+0x1cff>
    9c6f:	48 8b 85 88 f0 ff ff 	mov    -0xf78(%rbp),%rax
    9c76:	48 89 05 6b 90 00 00 	mov    %rax,0x906b(%rip)        # 12ce8 <g_816>
    9c7d:	0f b6 85 85 ef ff ff 	movzbl -0x107b(%rbp),%eax
    9c84:	e9 ac 04 00 00       	jmpq   a135 <func_58+0x21f7>
    9c89:	66 c7 85 88 ef ff ff 	movw   $0x0,-0x1078(%rbp)
    9c90:	00 00 
    9c92:	e9 b8 03 00 00       	jmpq   a04f <func_58+0x2111>
    9c97:	48 8d 05 f2 79 00 00 	lea    0x79f2(%rip),%rax        # 11690 <g_815>
    9c9e:	48 89 85 a8 f1 ff ff 	mov    %rax,-0xe58(%rbp)
    9ca5:	c7 85 50 f0 ff ff b9 	movl   $0x94beddb9,-0xfb0(%rbp)
    9cac:	dd be 94 
    9caf:	48 b8 06 af 11 ab fc 	movabs $0xffff88fcab11af06,%rax
    9cb6:	88 ff ff 
    9cb9:	48 89 85 b0 f7 ff ff 	mov    %rax,-0x850(%rbp)
    9cc0:	66 c7 85 b8 f7 ff ff 	movw   $0x88ff,-0x848(%rbp)
    9cc7:	ff 88 
    9cc9:	48 b8 5a f9 0b f9 5a 	movabs $0x100885af90bf95a,%rax
    9cd0:	88 00 01 
    9cd3:	48 89 85 ba f7 ff ff 	mov    %rax,-0x846(%rbp)
    9cda:	66 c7 85 c2 f7 ff ff 	movw   $0xabf9,-0x83e(%rbp)
    9ce1:	f9 ab 
    9ce3:	48 b8 06 ff fc 88 fe 	movabs $0x1b0688fe88fcff06,%rax
    9cea:	88 06 1b 
    9ced:	48 89 85 c4 f7 ff ff 	mov    %rax,-0x83c(%rbp)
    9cf4:	66 c7 85 cc f7 ff ff 	movw   $0xff13,-0x834(%rbp)
    9cfb:	13 ff 
    9cfd:	48 b8 ba 88 0b ab 00 	movabs $0xaf93af00ab0b88ba,%rax
    9d04:	af 93 af 
    9d07:	48 89 85 ce f7 ff ff 	mov    %rax,-0x832(%rbp)
    9d0e:	66 c7 85 d6 f7 ff ff 	movw   $0xab00,-0x82a(%rbp)
    9d15:	00 ab 
    9d17:	48 b8 00 1b 00 ab 06 	movabs $0x1fcff06ab001b00,%rax
    9d1e:	ff fc 01 
    9d21:	48 89 85 d8 f7 ff ff 	mov    %rax,-0x828(%rbp)
    9d28:	66 c7 85 e0 f7 ff ff 	movw   $0x113,-0x820(%rbp)
    9d2f:	13 01 
    9d31:	48 b8 5a af 01 88 01 	movabs $0x15aaf018801af5a,%rax
    9d38:	af 5a 01 
    9d3b:	48 89 85 e2 f7 ff ff 	mov    %rax,-0x81e(%rbp)
    9d42:	66 c7 85 ea f7 ff ff 	movw   $0x1bba,-0x816(%rbp)
    9d49:	ba 1b 
    9d4b:	48 b8 ff 01 00 af 13 	movabs $0xaf138813af0001ff,%rax
    9d52:	88 13 af 
    9d55:	48 89 85 ec f7 ff ff 	mov    %rax,-0x814(%rbp)
    9d5c:	66 c7 85 f4 f7 ff ff 	movw   $0x100,-0x80c(%rbp)
    9d63:	00 01 
    9d65:	48 b8 01 01 0b ff 93 	movabs $0x1b5aab93ff0b0101,%rax
    9d6c:	ab 5a 1b 
    9d6f:	48 89 85 f6 f7 ff ff 	mov    %rax,-0x80a(%rbp)
    9d76:	66 c7 85 fe f7 ff ff 	movw   $0xab5a,-0x802(%rbp)
    9d7d:	5a ab 
    9d7f:	48 b8 11 af 06 af 11 	movabs $0x88fcab11af06af11,%rax
    9d86:	ab fc 88 
    9d89:	48 89 85 00 f8 ff ff 	mov    %rax,-0x800(%rbp)
    9d90:	66 c7 85 08 f8 ff ff 	movw   $0xffff,-0x7f8(%rbp)
    9d97:	ff ff 
    9d99:	48 b8 01 1b 93 88 f9 	movabs $0x1b9388f988931b01,%rax
    9da0:	88 93 1b 
    9da3:	48 89 85 0a f8 ff ff 	mov    %rax,-0x7f6(%rbp)
    9daa:	66 c7 85 12 f8 ff ff 	movw   $0xff01,-0x7ee(%rbp)
    9db1:	01 ff 
    9db3:	48 b8 ff 88 fc ab 11 	movabs $0xaf06af11abfc88ff,%rax
    9dba:	af 06 af 
    9dbd:	48 89 85 14 f8 ff ff 	mov    %rax,-0x7ec(%rbp)
    9dc4:	66 c7 85 1c f8 ff ff 	movw   $0xab11,-0x7e4(%rbp)
    9dcb:	11 ab 
    9dcd:	48 b8 5a 1b 5a ab 93 	movabs $0x10bff93ab5a1b5a,%rax
    9dd4:	ff 0b 01 
    9dd7:	48 89 85 1e f8 ff ff 	mov    %rax,-0x7e2(%rbp)
    9dde:	66 c7 85 26 f8 ff ff 	movw   $0x101,-0x7da(%rbp)
    9de5:	01 01 
    9de7:	c7 85 54 f0 ff ff 03 	movl   $0x3,-0xfac(%rbp)
    9dee:	00 00 00 
    9df1:	c7 05 75 78 00 00 00 	movl   $0x0,0x7875(%rip)        # 11670 <g_526>
    9df8:	00 00 00 
    9dfb:	e9 2d 02 00 00       	jmpq   a02d <func_58+0x20ef>
    9e00:	48 8d 05 c1 96 00 00 	lea    0x96c1(%rip),%rax        # 134c8 <g_886>
    9e07:	48 89 85 f0 f2 ff ff 	mov    %rax,-0xd10(%rbp)
    9e0e:	48 8d 05 b3 96 00 00 	lea    0x96b3(%rip),%rax        # 134c8 <g_886>
    9e15:	48 89 85 f8 f2 ff ff 	mov    %rax,-0xd08(%rbp)
    9e1c:	48 8d 05 a5 96 00 00 	lea    0x96a5(%rip),%rax        # 134c8 <g_886>
    9e23:	48 89 85 00 f3 ff ff 	mov    %rax,-0xd00(%rbp)
    9e2a:	48 8d 05 97 96 00 00 	lea    0x9697(%rip),%rax        # 134c8 <g_886>
    9e31:	48 89 85 08 f3 ff ff 	mov    %rax,-0xcf8(%rbp)
    9e38:	48 8d 05 89 96 00 00 	lea    0x9689(%rip),%rax        # 134c8 <g_886>
    9e3f:	48 89 85 10 f3 ff ff 	mov    %rax,-0xcf0(%rbp)
    9e46:	48 8d 05 7b 96 00 00 	lea    0x967b(%rip),%rax        # 134c8 <g_886>
    9e4d:	48 89 85 18 f3 ff ff 	mov    %rax,-0xce8(%rbp)
    9e54:	48 8d 05 d7 71 00 00 	lea    0x71d7(%rip),%rax        # 11032 <g_90>
    9e5b:	48 89 85 b0 f1 ff ff 	mov    %rax,-0xe50(%rbp)
    9e62:	c7 85 58 f0 ff ff 04 	movl   $0x4,-0xfa8(%rbp)
    9e69:	00 00 00 
    9e6c:	c7 85 5c f0 ff ff fa 	movl   $0xfffffffa,-0xfa4(%rbp)
    9e73:	ff ff ff 
    9e76:	48 8b 05 4b 96 00 00 	mov    0x964b(%rip),%rax        # 134c8 <g_886>
    9e7d:	48 89 85 88 f3 ff ff 	mov    %rax,-0xc78(%rbp)
    9e84:	48 8b 85 88 f3 ff ff 	mov    -0xc78(%rbp),%rax
    9e8b:	48 89 85 a0 f0 ff ff 	mov    %rax,-0xf60(%rbp)
    9e92:	48 8b 85 a0 f0 ff ff 	mov    -0xf60(%rbp),%rax
    9e99:	48 3b 85 a8 f0 ff ff 	cmp    -0xf58(%rbp),%rax
    9ea0:	0f 94 c0             	sete   %al
    9ea3:	0f b6 c0             	movzbl %al,%eax
    9ea6:	89 c6                	mov    %eax,%esi
    9ea8:	bf 18 e7 9c 5f       	mov    $0x5f9ce718,%edi
    9ead:	e8 06 b0 ff ff       	callq  4eb8 <safe_add_func_uint32_t_u_u>
    9eb2:	8b 9d 50 f0 ff ff    	mov    -0xfb0(%rbp),%ebx
    9eb8:	8b 85 50 f0 ff ff    	mov    -0xfb0(%rbp),%eax
    9ebe:	4c 63 e0             	movslq %eax,%r12
    9ec1:	48 8b 05 10 8d 00 00 	mov    0x8d10(%rip),%rax        # 12bd8 <g_204>
    9ec8:	0f b7 00             	movzwl (%rax),%eax
    9ecb:	44 0f b7 e8          	movzwl %ax,%r13d
    9ecf:	8b 35 9b 77 00 00    	mov    0x779b(%rip),%esi        # 11670 <g_526>
    9ed5:	8b 05 51 71 00 00    	mov    0x7151(%rip),%eax        # 1102c <g_49>
    9edb:	8d 78 02             	lea    0x2(%rax),%edi
    9ede:	8b 05 48 71 00 00    	mov    0x7148(%rip),%eax        # 1102c <g_49>
    9ee4:	48 8d 95 30 f6 ff ff 	lea    -0x9d0(%rbp),%rdx
    9eeb:	48 63 c8             	movslq %eax,%rcx
    9eee:	89 f6                	mov    %esi,%esi
    9ef0:	48 89 f0             	mov    %rsi,%rax
    9ef3:	48 01 c0             	add    %rax,%rax
    9ef6:	48 01 f0             	add    %rsi,%rax
    9ef9:	48 01 c0             	add    %rax,%rax
    9efc:	48 63 f7             	movslq %edi,%rsi
    9eff:	48 01 f0             	add    %rsi,%rax
    9f02:	48 c1 e0 03          	shl    $0x3,%rax
    9f06:	48 01 c8             	add    %rcx,%rax
    9f09:	48 c1 e0 02          	shl    $0x2,%rax
    9f0d:	4c 8d 34 02          	lea    (%rdx,%rax,1),%r14
    9f11:	0f bf 95 88 ef ff ff 	movswl -0x1078(%rbp),%edx
    9f18:	8b 05 0e 71 00 00    	mov    0x710e(%rip),%eax        # 1102c <g_49>
    9f1e:	83 c0 04             	add    $0x4,%eax
    9f21:	48 98                	cltq   
    9f23:	48 63 d2             	movslq %edx,%rdx
    9f26:	48 c1 e2 03          	shl    $0x3,%rdx
    9f2a:	48 01 d0             	add    %rdx,%rax
    9f2d:	48 8d 14 85 00 00 00 	lea    0x0(,%rax,4),%rdx
    9f34:	00 
    9f35:	48 8d 05 64 76 00 00 	lea    0x7664(%rip),%rax        # 115a0 <g_359>
    9f3c:	8b 04 02             	mov    (%rdx,%rax,1),%eax
    9f3f:	48 8b 95 78 ef ff ff 	mov    -0x1088(%rbp),%rdx
    9f46:	48 8b 85 78 ef ff ff 	mov    -0x1088(%rbp),%rax
    9f4d:	48 89 d6             	mov    %rdx,%rsi
    9f50:	48 89 c7             	mov    %rax,%rdi
    9f53:	e8 03 02 00 00       	callq  a15b <func_60>
    9f58:	48 89 85 78 ef ff ff 	mov    %rax,-0x1088(%rbp)
    9f5f:	48 8b 85 78 ef ff ff 	mov    -0x1088(%rbp),%rax
    9f66:	49 39 c6             	cmp    %rax,%r14
    9f69:	0f 95 c0             	setne  %al
    9f6c:	0f b6 c0             	movzbl %al,%eax
    9f6f:	44 89 ee             	mov    %r13d,%esi
    9f72:	89 c7                	mov    %eax,%edi
    9f74:	e8 ea a5 ff ff       	callq  4563 <safe_rshift_func_int16_t_s_u>
    9f79:	98                   	cwtl   
    9f7a:	be 08 00 00 00       	mov    $0x8,%esi
    9f7f:	89 c7                	mov    %eax,%edi
    9f81:	e8 5b a5 ff ff       	callq  44e1 <safe_lshift_func_int16_t_s_u>
    9f86:	4c 89 e6             	mov    %r12,%rsi
    9f89:	48 bf b0 6e 05 31 db 	movabs $0x2d54ebdb31056eb0,%rdi
    9f90:	eb 54 2d 
    9f93:	e8 a9 a8 ff ff       	callq  4841 <safe_add_func_int64_t_s_s>
    9f98:	48 83 bd a8 f1 ff ff 	cmpq   $0x0,-0xe58(%rbp)
    9f9f:	00 
    9fa0:	0f 94 c0             	sete   %al
    9fa3:	0f b6 c0             	movzbl %al,%eax
    9fa6:	3d cc 00 00 00       	cmp    $0xcc,%eax
    9fab:	7e 0d                	jle    9fba <func_58+0x207c>
    9fad:	48 8b 85 d0 f0 ff ff 	mov    -0xf30(%rbp),%rax
    9fb4:	8b 00                	mov    (%rax),%eax
    9fb6:	85 c0                	test   %eax,%eax
    9fb8:	74 07                	je     9fc1 <func_58+0x2083>
    9fba:	b8 01 00 00 00       	mov    $0x1,%eax
    9fbf:	eb 05                	jmp    9fc6 <func_58+0x2088>
    9fc1:	b8 00 00 00 00       	mov    $0x0,%eax
    9fc6:	0f b6 c0             	movzbl %al,%eax
    9fc9:	89 de                	mov    %ebx,%esi
    9fcb:	89 c7                	mov    %eax,%edi
    9fcd:	e8 ec ac ff ff       	callq  4cbe <safe_rshift_func_uint8_t_u_u>
    9fd2:	89 c2                	mov    %eax,%edx
    9fd4:	48 8b 85 b8 f0 ff ff 	mov    -0xf48(%rbp),%rax
    9fdb:	0f b6 00             	movzbl (%rax),%eax
    9fde:	31 c2                	xor    %eax,%edx
    9fe0:	48 8b 85 b8 f0 ff ff 	mov    -0xf48(%rbp),%rax
    9fe7:	88 10                	mov    %dl,(%rax)
    9fe9:	48 8b 85 b8 f0 ff ff 	mov    -0xf48(%rbp),%rax
    9ff0:	0f b6 10             	movzbl (%rax),%edx
    9ff3:	48 8b 85 b0 f1 ff ff 	mov    -0xe50(%rbp),%rax
    9ffa:	88 10                	mov    %dl,(%rax)
    9ffc:	48 b8 af 40 88 d5 ad 	movabs $0x799c5badd58840af,%rax
    a003:	5b 9c 79 
    a006:	48 89 85 b8 f1 ff ff 	mov    %rax,-0xe48(%rbp)
    a00d:	48 83 bd b8 f1 ff ff 	cmpq   $0x0,-0xe48(%rbp)
    a014:	00 
    a015:	75 26                	jne    a03d <func_58+0x20ff>
    a017:	83 bd 58 f0 ff ff 00 	cmpl   $0x0,-0xfa8(%rbp)
    a01e:	8b 05 4c 76 00 00    	mov    0x764c(%rip),%eax        # 11670 <g_526>
    a024:	83 c0 01             	add    $0x1,%eax
    a027:	89 05 43 76 00 00    	mov    %eax,0x7643(%rip)        # 11670 <g_526>
    a02d:	8b 05 3d 76 00 00    	mov    0x763d(%rip),%eax        # 11670 <g_526>
    a033:	85 c0                	test   %eax,%eax
    a035:	0f 84 c5 fd ff ff    	je     9e00 <func_58+0x1ec2>
    a03b:	eb 01                	jmp    a03e <func_58+0x2100>
    a03d:	90                   	nop
    a03e:	0f b7 85 88 ef ff ff 	movzwl -0x1078(%rbp),%eax
    a045:	83 c0 01             	add    $0x1,%eax
    a048:	66 89 85 88 ef ff ff 	mov    %ax,-0x1078(%rbp)
    a04f:	66 83 bd 88 ef ff ff 	cmpw   $0x1,-0x1078(%rbp)
    a056:	01 
    a057:	0f 8e 3a fc ff ff    	jle    9c97 <func_58+0x1d59>
    a05d:	8b 05 c9 6f 00 00    	mov    0x6fc9(%rip),%eax        # 1102c <g_49>
    a063:	83 c0 01             	add    $0x1,%eax
    a066:	89 05 c0 6f 00 00    	mov    %eax,0x6fc0(%rip)        # 1102c <g_49>
    a06c:	8b 05 ba 6f 00 00    	mov    0x6fba(%rip),%eax        # 1102c <g_49>
    a072:	83 f8 03             	cmp    $0x3,%eax
    a075:	0f 8e 18 e1 ff ff    	jle    8193 <func_58+0x255>
    a07b:	48 8b 05 5e 8c 00 00 	mov    0x8c5e(%rip),%rax        # 12ce0 <g_673>
    a082:	48 8b 00             	mov    (%rax),%rax
    a085:	48 8b 00             	mov    (%rax),%rax
    a088:	48 8d 95 78 ef ff ff 	lea    -0x1088(%rbp),%rdx
    a08f:	48 89 10             	mov    %rdx,(%rax)
    a092:	8b 85 98 f7 ff ff    	mov    -0x868(%rbp),%eax
    a098:	89 c3                	mov    %eax,%ebx
    a09a:	48 0f bf 95 88 ef ff 	movswq -0x1078(%rbp),%rdx
    a0a1:	ff 
    a0a2:	8b 85 08 f7 ff ff    	mov    -0x8f8(%rbp),%eax
    a0a8:	48 98                	cltq   
    a0aa:	48 89 d6             	mov    %rdx,%rsi
    a0ad:	48 89 c7             	mov    %rax,%rdi
    a0b0:	e8 ff a8 ff ff       	callq  49b4 <safe_mod_func_int64_t_s_s>
    a0b5:	31 d8                	xor    %ebx,%eax
    a0b7:	88 85 83 ef ff ff    	mov    %al,-0x107d(%rbp)
    a0bd:	48 8b 05 04 8b 00 00 	mov    0x8b04(%rip),%rax        # 12bc8 <g_107>
    a0c4:	48 8b 00             	mov    (%rax),%rax
    a0c7:	be 88 72 00 00       	mov    $0x7288,%esi
    a0cc:	bf 00 00 00 00       	mov    $0x0,%edi
    a0d1:	e8 40 a3 ff ff       	callq  4416 <safe_mod_func_int16_t_s_s>
    a0d6:	66 0f be 95 81 ef ff 	movsbw -0x107f(%rbp),%dx
    a0dd:	ff 
    a0de:	66 39 d0             	cmp    %dx,%ax
    a0e1:	0f 9d c0             	setge  %al
    a0e4:	0f b6 c0             	movzbl %al,%eax
    a0e7:	89 c6                	mov    %eax,%esi
    a0e9:	bf f8 ff ff ff       	mov    $0xfffffff8,%edi
    a0ee:	e8 1f a1 ff ff       	callq  4212 <safe_mul_func_int8_t_s_s>
    a0f3:	48 0f be d0          	movsbq %al,%rdx
    a0f7:	48 0f bf 85 88 ef ff 	movswq -0x1078(%rbp),%rax
    a0fe:	ff 
    a0ff:	48 89 d6             	mov    %rdx,%rsi
    a102:	48 89 c7             	mov    %rax,%rdi
    a105:	e8 ed a8 ff ff       	callq  49f7 <safe_div_func_int64_t_s_s>
    a10a:	ba 01 00 00 00       	mov    $0x1,%edx
    a10f:	8b 85 9c ef ff ff    	mov    -0x1064(%rbp),%eax
    a115:	21 d0                	and    %edx,%eax
    a117:	89 85 9c ef ff ff    	mov    %eax,-0x1064(%rbp)
    a11d:	48 8b 05 9c 8a 00 00 	mov    0x8a9c(%rip),%rax        # 12bc0 <g_48>
    a124:	8b 10                	mov    (%rax),%edx
    a126:	23 95 ac ef ff ff    	and    -0x1054(%rbp),%edx
    a12c:	89 10                	mov    %edx,(%rax)
    a12e:	0f b7 05 23 6f 00 00 	movzwl 0x6f23(%rip),%eax        # 11058 <g_94>
    a135:	48 8b 5d c8          	mov    -0x38(%rbp),%rbx
    a139:	64 48 33 1c 25 28 00 	xor    %fs:0x28,%rbx
    a140:	00 00 
    a142:	74 05                	je     a149 <func_58+0x220b>
    a144:	e8 27 9f ff ff       	callq  4070 <__stack_chk_fail@plt>
    a149:	48 81 c4 68 10 00 00 	add    $0x1068,%rsp
    a150:	5b                   	pop    %rbx
    a151:	41 5c                	pop    %r12
    a153:	41 5d                	pop    %r13
    a155:	41 5e                	pop    %r14
    a157:	41 5f                	pop    %r15
    a159:	5d                   	pop    %rbp
    a15a:	c3                   	retq   

000000000000a15b <func_60>:
    a15b:	f3 0f 1e fa          	endbr64 
    a15f:	55                   	push   %rbp
    a160:	48 89 e5             	mov    %rsp,%rbp
    a163:	48 81 ec c0 00 00 00 	sub    $0xc0,%rsp
    a16a:	48 89 bd 48 ff ff ff 	mov    %rdi,-0xb8(%rbp)
    a171:	48 89 b5 40 ff ff ff 	mov    %rsi,-0xc0(%rbp)
    a178:	64 48 8b 04 25 28 00 	mov    %fs:0x28,%rax
    a17f:	00 00 
    a181:	48 89 45 f8          	mov    %rax,-0x8(%rbp)
    a185:	31 c0                	xor    %eax,%eax
    a187:	66 c7 85 56 ff ff ff 	movw   $0xfffc,-0xaa(%rbp)
    a18e:	fc ff 
    a190:	48 8d 05 95 6e 00 00 	lea    0x6e95(%rip),%rax        # 1102c <g_49>
    a197:	48 89 85 60 ff ff ff 	mov    %rax,-0xa0(%rbp)
    a19e:	48 8d 05 eb 73 00 00 	lea    0x73eb(%rip),%rax        # 11590 <g_260>
    a1a5:	48 89 85 68 ff ff ff 	mov    %rax,-0x98(%rbp)
    a1ac:	48 8d 05 79 6e 00 00 	lea    0x6e79(%rip),%rax        # 1102c <g_49>
    a1b3:	48 89 85 70 ff ff ff 	mov    %rax,-0x90(%rbp)
    a1ba:	48 8d 05 cf 73 00 00 	lea    0x73cf(%rip),%rax        # 11590 <g_260>
    a1c1:	48 89 85 78 ff ff ff 	mov    %rax,-0x88(%rbp)
    a1c8:	48 8d 05 5d 6e 00 00 	lea    0x6e5d(%rip),%rax        # 1102c <g_49>
    a1cf:	48 89 45 80          	mov    %rax,-0x80(%rbp)
    a1d3:	48 8d 05 b6 73 00 00 	lea    0x73b6(%rip),%rax        # 11590 <g_260>
    a1da:	48 89 45 88          	mov    %rax,-0x78(%rbp)
    a1de:	48 8d 05 47 6e 00 00 	lea    0x6e47(%rip),%rax        # 1102c <g_49>
    a1e5:	48 89 45 90          	mov    %rax,-0x70(%rbp)
    a1e9:	48 8d 05 a0 73 00 00 	lea    0x73a0(%rip),%rax        # 11590 <g_260>
    a1f0:	48 89 45 98          	mov    %rax,-0x68(%rbp)
    a1f4:	48 8d 05 31 6e 00 00 	lea    0x6e31(%rip),%rax        # 1102c <g_49>
    a1fb:	48 89 45 a0          	mov    %rax,-0x60(%rbp)
    a1ff:	48 8d 05 8a 73 00 00 	lea    0x738a(%rip),%rax        # 11590 <g_260>
    a206:	48 89 45 a8          	mov    %rax,-0x58(%rbp)
    a20a:	48 8d 05 1b 6e 00 00 	lea    0x6e1b(%rip),%rax        # 1102c <g_49>
    a211:	48 89 45 b0          	mov    %rax,-0x50(%rbp)
    a215:	48 8d 05 74 73 00 00 	lea    0x7374(%rip),%rax        # 11590 <g_260>
    a21c:	48 89 45 b8          	mov    %rax,-0x48(%rbp)
    a220:	48 8d 05 05 6e 00 00 	lea    0x6e05(%rip),%rax        # 1102c <g_49>
    a227:	48 89 45 c0          	mov    %rax,-0x40(%rbp)
    a22b:	48 8d 05 5e 73 00 00 	lea    0x735e(%rip),%rax        # 11590 <g_260>
    a232:	48 89 45 c8          	mov    %rax,-0x38(%rbp)
    a236:	48 8d 05 ef 6d 00 00 	lea    0x6def(%rip),%rax        # 1102c <g_49>
    a23d:	48 89 45 d0          	mov    %rax,-0x30(%rbp)
    a241:	48 8d 05 48 73 00 00 	lea    0x7348(%rip),%rax        # 11590 <g_260>
    a248:	48 89 45 d8          	mov    %rax,-0x28(%rbp)
    a24c:	48 8d 05 d9 6d 00 00 	lea    0x6dd9(%rip),%rax        # 1102c <g_49>
    a253:	48 89 45 e0          	mov    %rax,-0x20(%rbp)
    a257:	48 8d 05 32 73 00 00 	lea    0x7332(%rip),%rax        # 11590 <g_260>
    a25e:	48 89 45 e8          	mov    %rax,-0x18(%rbp)
    a262:	66 83 bd 56 ff ff ff 	cmpw   $0x0,-0xaa(%rbp)
    a269:	00 
    a26a:	74 06                	je     a272 <func_60+0x117>
    a26c:	48 8b 45 e0          	mov    -0x20(%rbp),%rax
    a270:	eb 2e                	jmp    a2a0 <func_60+0x145>
    a272:	c6 05 b9 6d 00 00 00 	movb   $0x0,0x6db9(%rip)        # 11032 <g_90>
    a279:	90                   	nop
    a27a:	0f b6 05 b1 6d 00 00 	movzbl 0x6db1(%rip),%eax        # 11032 <g_90>
    a281:	3c 08                	cmp    $0x8,%al
    a283:	7e 17                	jle    a29c <func_60+0x141>
    a285:	48 8d 05 9c 6d 00 00 	lea    0x6d9c(%rip),%rax        # 11028 <g_47>
    a28c:	48 89 85 58 ff ff ff 	mov    %rax,-0xa8(%rbp)
    a293:	48 8b 85 58 ff ff ff 	mov    -0xa8(%rbp),%rax
    a29a:	eb 04                	jmp    a2a0 <func_60+0x145>
    a29c:	48 8b 45 e0          	mov    -0x20(%rbp),%rax
    a2a0:	48 8b 55 f8          	mov    -0x8(%rbp),%rdx
    a2a4:	64 48 33 14 25 28 00 	xor    %fs:0x28,%rdx
    a2ab:	00 00 
    a2ad:	74 05                	je     a2b4 <func_60+0x159>
    a2af:	e8 bc 9d ff ff       	callq  4070 <__stack_chk_fail@plt>
    a2b4:	c9                   	leaveq 
    a2b5:	c3                   	retq   

000000000000a2b6 <func_63>:
    a2b6:	f3 0f 1e fa          	endbr64 
    a2ba:	55                   	push   %rbp
    a2bb:	48 89 e5             	mov    %rsp,%rbp
    a2be:	41 57                	push   %r15
    a2c0:	41 56                	push   %r14
    a2c2:	41 55                	push   %r13
    a2c4:	41 54                	push   %r12
    a2c6:	53                   	push   %rbx
    a2c7:	48 81 ec 38 0f 00 00 	sub    $0xf38,%rsp
    a2ce:	48 89 bd b8 f0 ff ff 	mov    %rdi,-0xf48(%rbp)
    a2d5:	89 b5 b4 f0 ff ff    	mov    %esi,-0xf4c(%rbp)
    a2db:	64 48 8b 04 25 28 00 	mov    %fs:0x28,%rax
    a2e2:	00 00 
    a2e4:	48 89 45 c8          	mov    %rax,-0x38(%rbp)
    a2e8:	31 c0                	xor    %eax,%eax
    a2ea:	48 8d 05 37 6d 00 00 	lea    0x6d37(%rip),%rax        # 11028 <g_47>
    a2f1:	48 89 85 78 f1 ff ff 	mov    %rax,-0xe88(%rbp)
    a2f8:	0f b7 85 b0 f3 ff ff 	movzwl -0xc50(%rbp),%eax
    a2ff:	66 25 00 f0          	and    $0xf000,%ax
    a303:	83 c8 10             	or     $0x10,%eax
    a306:	66 89 85 b0 f3 ff ff 	mov    %ax,-0xc50(%rbp)
    a30d:	c7 85 b4 f3 ff ff 00 	movl   $0x0,-0xc4c(%rbp)
    a314:	00 00 00 
    a317:	0f b7 85 b8 f3 ff ff 	movzwl -0xc48(%rbp),%eax
    a31e:	66 25 00 fe          	and    $0xfe00,%ax
    a322:	66 0d f5 01          	or     $0x1f5,%ax
    a326:	66 89 85 b8 f3 ff ff 	mov    %ax,-0xc48(%rbp)
    a32d:	0f b7 85 bc f3 ff ff 	movzwl -0xc44(%rbp),%eax
    a334:	66 25 00 f0          	and    $0xf000,%ax
    a338:	83 c8 19             	or     $0x19,%eax
    a33b:	66 89 85 bc f3 ff ff 	mov    %ax,-0xc44(%rbp)
    a342:	c7 85 c0 f3 ff ff 31 	movl   $0x9fc65f31,-0xc40(%rbp)
    a349:	5f c6 9f 
    a34c:	0f b7 85 c4 f3 ff ff 	movzwl -0xc3c(%rbp),%eax
    a353:	66 25 00 fe          	and    $0xfe00,%ax
    a357:	66 0d f3 01          	or     $0x1f3,%ax
    a35b:	66 89 85 c4 f3 ff ff 	mov    %ax,-0xc3c(%rbp)
    a362:	0f b7 85 c8 f3 ff ff 	movzwl -0xc38(%rbp),%eax
    a369:	66 25 00 f0          	and    $0xf000,%ax
    a36d:	83 c8 10             	or     $0x10,%eax
    a370:	66 89 85 c8 f3 ff ff 	mov    %ax,-0xc38(%rbp)
    a377:	c7 85 cc f3 ff ff 00 	movl   $0x0,-0xc34(%rbp)
    a37e:	00 00 00 
    a381:	0f b7 85 d0 f3 ff ff 	movzwl -0xc30(%rbp),%eax
    a388:	66 25 00 fe          	and    $0xfe00,%ax
    a38c:	66 0d f5 01          	or     $0x1f5,%ax
    a390:	66 89 85 d0 f3 ff ff 	mov    %ax,-0xc30(%rbp)
    a397:	0f b7 85 d4 f3 ff ff 	movzwl -0xc2c(%rbp),%eax
    a39e:	66 25 00 f0          	and    $0xf000,%ax
    a3a2:	83 c8 19             	or     $0x19,%eax
    a3a5:	66 89 85 d4 f3 ff ff 	mov    %ax,-0xc2c(%rbp)
    a3ac:	c7 85 d8 f3 ff ff 31 	movl   $0x9fc65f31,-0xc28(%rbp)
    a3b3:	5f c6 9f 
    a3b6:	0f b7 85 dc f3 ff ff 	movzwl -0xc24(%rbp),%eax
    a3bd:	66 25 00 fe          	and    $0xfe00,%ax
    a3c1:	66 0d f3 01          	or     $0x1f3,%ax
    a3c5:	66 89 85 dc f3 ff ff 	mov    %ax,-0xc24(%rbp)
    a3cc:	0f b7 85 e0 f3 ff ff 	movzwl -0xc20(%rbp),%eax
    a3d3:	66 25 00 f0          	and    $0xf000,%ax
    a3d7:	83 c8 10             	or     $0x10,%eax
    a3da:	66 89 85 e0 f3 ff ff 	mov    %ax,-0xc20(%rbp)
    a3e1:	c7 85 e4 f3 ff ff 00 	movl   $0x0,-0xc1c(%rbp)
    a3e8:	00 00 00 
    a3eb:	0f b7 85 e8 f3 ff ff 	movzwl -0xc18(%rbp),%eax
    a3f2:	66 25 00 fe          	and    $0xfe00,%ax
    a3f6:	66 0d f5 01          	or     $0x1f5,%ax
    a3fa:	66 89 85 e8 f3 ff ff 	mov    %ax,-0xc18(%rbp)
    a401:	0f b7 85 ec f3 ff ff 	movzwl -0xc14(%rbp),%eax
    a408:	66 25 00 f0          	and    $0xf000,%ax
    a40c:	83 c8 19             	or     $0x19,%eax
    a40f:	66 89 85 ec f3 ff ff 	mov    %ax,-0xc14(%rbp)
    a416:	c7 85 f0 f3 ff ff 31 	movl   $0x9fc65f31,-0xc10(%rbp)
    a41d:	5f c6 9f 
    a420:	0f b7 85 f4 f3 ff ff 	movzwl -0xc0c(%rbp),%eax
    a427:	66 25 00 fe          	and    $0xfe00,%ax
    a42b:	66 0d f3 01          	or     $0x1f3,%ax
    a42f:	66 89 85 f4 f3 ff ff 	mov    %ax,-0xc0c(%rbp)
    a436:	0f b7 85 f8 f3 ff ff 	movzwl -0xc08(%rbp),%eax
    a43d:	66 25 00 f0          	and    $0xf000,%ax
    a441:	83 c8 10             	or     $0x10,%eax
    a444:	66 89 85 f8 f3 ff ff 	mov    %ax,-0xc08(%rbp)
    a44b:	c7 85 fc f3 ff ff 00 	movl   $0x0,-0xc04(%rbp)
    a452:	00 00 00 
    a455:	0f b7 85 00 f4 ff ff 	movzwl -0xc00(%rbp),%eax
    a45c:	66 25 00 fe          	and    $0xfe00,%ax
    a460:	66 0d f5 01          	or     $0x1f5,%ax
    a464:	66 89 85 00 f4 ff ff 	mov    %ax,-0xc00(%rbp)
    a46b:	0f b7 85 04 f4 ff ff 	movzwl -0xbfc(%rbp),%eax
    a472:	66 25 00 f0          	and    $0xf000,%ax
    a476:	83 c8 19             	or     $0x19,%eax
    a479:	66 89 85 04 f4 ff ff 	mov    %ax,-0xbfc(%rbp)
    a480:	c7 85 08 f4 ff ff 31 	movl   $0x9fc65f31,-0xbf8(%rbp)
    a487:	5f c6 9f 
    a48a:	0f b7 85 0c f4 ff ff 	movzwl -0xbf4(%rbp),%eax
    a491:	66 25 00 fe          	and    $0xfe00,%ax
    a495:	66 0d f3 01          	or     $0x1f3,%ax
    a499:	66 89 85 0c f4 ff ff 	mov    %ax,-0xbf4(%rbp)
    a4a0:	0f b7 85 10 f4 ff ff 	movzwl -0xbf0(%rbp),%eax
    a4a7:	66 25 00 f0          	and    $0xf000,%ax
    a4ab:	83 c8 10             	or     $0x10,%eax
    a4ae:	66 89 85 10 f4 ff ff 	mov    %ax,-0xbf0(%rbp)
    a4b5:	c7 85 14 f4 ff ff 00 	movl   $0x0,-0xbec(%rbp)
    a4bc:	00 00 00 
    a4bf:	0f b7 85 18 f4 ff ff 	movzwl -0xbe8(%rbp),%eax
    a4c6:	66 25 00 fe          	and    $0xfe00,%ax
    a4ca:	66 0d f5 01          	or     $0x1f5,%ax
    a4ce:	66 89 85 18 f4 ff ff 	mov    %ax,-0xbe8(%rbp)
    a4d5:	0f b7 85 1c f4 ff ff 	movzwl -0xbe4(%rbp),%eax
    a4dc:	66 25 00 f0          	and    $0xf000,%ax
    a4e0:	83 c8 19             	or     $0x19,%eax
    a4e3:	66 89 85 1c f4 ff ff 	mov    %ax,-0xbe4(%rbp)
    a4ea:	c7 85 20 f4 ff ff 31 	movl   $0x9fc65f31,-0xbe0(%rbp)
    a4f1:	5f c6 9f 
    a4f4:	0f b7 85 24 f4 ff ff 	movzwl -0xbdc(%rbp),%eax
    a4fb:	66 25 00 fe          	and    $0xfe00,%ax
    a4ff:	66 0d f3 01          	or     $0x1f3,%ax
    a503:	66 89 85 24 f4 ff ff 	mov    %ax,-0xbdc(%rbp)
    a50a:	c7 85 d0 f0 ff ff d0 	movl   $0x89d357d0,-0xf30(%rbp)
    a511:	57 d3 89 
    a514:	48 8d 05 61 6f 00 00 	lea    0x6f61(%rip),%rax        # 1147c <g_160+0xbc>
    a51b:	48 89 85 b8 f1 ff ff 	mov    %rax,-0xe48(%rbp)
    a522:	48 8d 05 07 6b 00 00 	lea    0x6b07(%rip),%rax        # 11030 <g_84>
    a529:	48 89 85 80 f1 ff ff 	mov    %rax,-0xe80(%rbp)
    a530:	c7 85 d4 f0 ff ff ff 	movl   $0xffffffff,-0xf2c(%rbp)
    a537:	ff ff ff 
    a53a:	c7 85 28 f1 ff ff 19 	movl   $0xed449519,-0xed8(%rbp)
    a541:	95 44 ed 
    a544:	c7 85 d8 f0 ff ff 47 	movl   $0x9a675d47,-0xf28(%rbp)
    a54b:	5d 67 9a 
    a54e:	c7 85 dc f0 ff ff ff 	movl   $0xffffffff,-0xf24(%rbp)
    a555:	ff ff ff 
    a558:	66 c7 85 c4 f0 ff ff 	movw   $0x6379,-0xf3c(%rbp)
    a55f:	79 63 
    a561:	48 8d 05 70 86 00 00 	lea    0x8670(%rip),%rax        # 12bd8 <g_204>
    a568:	48 89 85 c0 f1 ff ff 	mov    %rax,-0xe40(%rbp)
    a56f:	48 8d 05 82 6c 00 00 	lea    0x6c82(%rip),%rax        # 111f8 <g_134+0x118>
    a576:	48 89 85 88 f1 ff ff 	mov    %rax,-0xe78(%rbp)
    a57d:	c7 85 e0 f0 ff ff 00 	movl   $0x0,-0xf20(%rbp)
    a584:	00 00 00 
    a587:	66 c7 85 e0 f0 ff ff 	movw   $0x1,-0xf20(%rbp)
    a58e:	01 00 
    a590:	48 8d 85 78 f1 ff ff 	lea    -0xe88(%rbp),%rax
    a597:	48 89 85 90 f1 ff ff 	mov    %rax,-0xe70(%rbp)
    a59e:	48 8d 85 90 f1 ff ff 	lea    -0xe70(%rbp),%rax
    a5a5:	48 89 85 70 f6 ff ff 	mov    %rax,-0x990(%rbp)
    a5ac:	48 8d 85 90 f1 ff ff 	lea    -0xe70(%rbp),%rax
    a5b3:	48 89 85 78 f6 ff ff 	mov    %rax,-0x988(%rbp)
    a5ba:	48 8d 85 90 f1 ff ff 	lea    -0xe70(%rbp),%rax
    a5c1:	48 89 85 80 f6 ff ff 	mov    %rax,-0x980(%rbp)
    a5c8:	48 8d 85 90 f1 ff ff 	lea    -0xe70(%rbp),%rax
    a5cf:	48 89 85 88 f6 ff ff 	mov    %rax,-0x978(%rbp)
    a5d6:	48 8d 85 90 f1 ff ff 	lea    -0xe70(%rbp),%rax
    a5dd:	48 89 85 90 f6 ff ff 	mov    %rax,-0x970(%rbp)
    a5e4:	48 8d 85 90 f1 ff ff 	lea    -0xe70(%rbp),%rax
    a5eb:	48 89 85 98 f6 ff ff 	mov    %rax,-0x968(%rbp)
    a5f2:	48 8d 85 90 f1 ff ff 	lea    -0xe70(%rbp),%rax
    a5f9:	48 89 85 a0 f6 ff ff 	mov    %rax,-0x960(%rbp)
    a600:	48 8d 85 90 f1 ff ff 	lea    -0xe70(%rbp),%rax
    a607:	48 89 85 a8 f6 ff ff 	mov    %rax,-0x958(%rbp)
    a60e:	48 8d 85 90 f1 ff ff 	lea    -0xe70(%rbp),%rax
    a615:	48 89 85 b0 f6 ff ff 	mov    %rax,-0x950(%rbp)
    a61c:	48 8d 85 90 f1 ff ff 	lea    -0xe70(%rbp),%rax
    a623:	48 89 85 b8 f6 ff ff 	mov    %rax,-0x948(%rbp)
    a62a:	48 c7 85 c0 f6 ff ff 	movq   $0x0,-0x940(%rbp)
    a631:	00 00 00 00 
    a635:	48 8d 85 90 f1 ff ff 	lea    -0xe70(%rbp),%rax
    a63c:	48 89 85 c8 f6 ff ff 	mov    %rax,-0x938(%rbp)
    a643:	48 8d 85 90 f1 ff ff 	lea    -0xe70(%rbp),%rax
    a64a:	48 89 85 d0 f6 ff ff 	mov    %rax,-0x930(%rbp)
    a651:	48 c7 85 d8 f6 ff ff 	movq   $0x0,-0x928(%rbp)
    a658:	00 00 00 00 
    a65c:	48 8d 85 90 f1 ff ff 	lea    -0xe70(%rbp),%rax
    a663:	48 89 85 e0 f6 ff ff 	mov    %rax,-0x920(%rbp)
    a66a:	48 8d 85 90 f1 ff ff 	lea    -0xe70(%rbp),%rax
    a671:	48 89 85 e8 f6 ff ff 	mov    %rax,-0x918(%rbp)
    a678:	48 8d 85 90 f1 ff ff 	lea    -0xe70(%rbp),%rax
    a67f:	48 89 85 f0 f6 ff ff 	mov    %rax,-0x910(%rbp)
    a686:	48 8d 85 90 f1 ff ff 	lea    -0xe70(%rbp),%rax
    a68d:	48 89 85 f8 f6 ff ff 	mov    %rax,-0x908(%rbp)
    a694:	48 8d 85 90 f1 ff ff 	lea    -0xe70(%rbp),%rax
    a69b:	48 89 85 00 f7 ff ff 	mov    %rax,-0x900(%rbp)
    a6a2:	48 8d 85 90 f1 ff ff 	lea    -0xe70(%rbp),%rax
    a6a9:	48 89 85 08 f7 ff ff 	mov    %rax,-0x8f8(%rbp)
    a6b0:	48 8d 85 90 f1 ff ff 	lea    -0xe70(%rbp),%rax
    a6b7:	48 89 85 10 f7 ff ff 	mov    %rax,-0x8f0(%rbp)
    a6be:	48 8d 85 90 f1 ff ff 	lea    -0xe70(%rbp),%rax
    a6c5:	48 89 85 18 f7 ff ff 	mov    %rax,-0x8e8(%rbp)
    a6cc:	48 8d 85 90 f1 ff ff 	lea    -0xe70(%rbp),%rax
    a6d3:	48 89 85 20 f7 ff ff 	mov    %rax,-0x8e0(%rbp)
    a6da:	48 8d 85 90 f1 ff ff 	lea    -0xe70(%rbp),%rax
    a6e1:	48 89 85 28 f7 ff ff 	mov    %rax,-0x8d8(%rbp)
    a6e8:	48 8d 85 90 f1 ff ff 	lea    -0xe70(%rbp),%rax
    a6ef:	48 89 85 30 f7 ff ff 	mov    %rax,-0x8d0(%rbp)
    a6f6:	48 8d 85 90 f1 ff ff 	lea    -0xe70(%rbp),%rax
    a6fd:	48 89 85 38 f7 ff ff 	mov    %rax,-0x8c8(%rbp)
    a704:	48 8d 85 90 f1 ff ff 	lea    -0xe70(%rbp),%rax
    a70b:	48 89 85 40 f7 ff ff 	mov    %rax,-0x8c0(%rbp)
    a712:	48 8d 85 90 f1 ff ff 	lea    -0xe70(%rbp),%rax
    a719:	48 89 85 48 f7 ff ff 	mov    %rax,-0x8b8(%rbp)
    a720:	48 8d 85 90 f1 ff ff 	lea    -0xe70(%rbp),%rax
    a727:	48 89 85 50 f7 ff ff 	mov    %rax,-0x8b0(%rbp)
    a72e:	48 8d 85 90 f1 ff ff 	lea    -0xe70(%rbp),%rax
    a735:	48 89 85 58 f7 ff ff 	mov    %rax,-0x8a8(%rbp)
    a73c:	48 8d 85 90 f1 ff ff 	lea    -0xe70(%rbp),%rax
    a743:	48 89 85 60 f7 ff ff 	mov    %rax,-0x8a0(%rbp)
    a74a:	48 8d 85 90 f1 ff ff 	lea    -0xe70(%rbp),%rax
    a751:	48 89 85 68 f7 ff ff 	mov    %rax,-0x898(%rbp)
    a758:	48 8d 85 90 f1 ff ff 	lea    -0xe70(%rbp),%rax
    a75f:	48 89 85 70 f7 ff ff 	mov    %rax,-0x890(%rbp)
    a766:	48 c7 85 78 f7 ff ff 	movq   $0x0,-0x888(%rbp)
    a76d:	00 00 00 00 
    a771:	48 8d 85 90 f1 ff ff 	lea    -0xe70(%rbp),%rax
    a778:	48 89 85 80 f7 ff ff 	mov    %rax,-0x880(%rbp)
    a77f:	48 8d 85 90 f1 ff ff 	lea    -0xe70(%rbp),%rax
    a786:	48 89 85 88 f7 ff ff 	mov    %rax,-0x878(%rbp)
    a78d:	48 8d 85 90 f1 ff ff 	lea    -0xe70(%rbp),%rax
    a794:	48 89 85 90 f7 ff ff 	mov    %rax,-0x870(%rbp)
    a79b:	48 8d 85 90 f1 ff ff 	lea    -0xe70(%rbp),%rax
    a7a2:	48 89 85 98 f7 ff ff 	mov    %rax,-0x868(%rbp)
    a7a9:	48 8d 85 90 f1 ff ff 	lea    -0xe70(%rbp),%rax
    a7b0:	48 89 85 a0 f7 ff ff 	mov    %rax,-0x860(%rbp)
    a7b7:	48 8d 85 90 f1 ff ff 	lea    -0xe70(%rbp),%rax
    a7be:	48 89 85 a8 f7 ff ff 	mov    %rax,-0x858(%rbp)
    a7c5:	48 8d 85 90 f1 ff ff 	lea    -0xe70(%rbp),%rax
    a7cc:	48 89 85 b0 f7 ff ff 	mov    %rax,-0x850(%rbp)
    a7d3:	48 c7 85 b8 f7 ff ff 	movq   $0x0,-0x848(%rbp)
    a7da:	00 00 00 00 
    a7de:	48 8d 85 90 f1 ff ff 	lea    -0xe70(%rbp),%rax
    a7e5:	48 89 85 c0 f7 ff ff 	mov    %rax,-0x840(%rbp)
    a7ec:	48 8d 85 90 f1 ff ff 	lea    -0xe70(%rbp),%rax
    a7f3:	48 89 85 c8 f7 ff ff 	mov    %rax,-0x838(%rbp)
    a7fa:	48 8d 85 90 f1 ff ff 	lea    -0xe70(%rbp),%rax
    a801:	48 89 85 d0 f7 ff ff 	mov    %rax,-0x830(%rbp)
    a808:	48 c7 85 d8 f7 ff ff 	movq   $0x0,-0x828(%rbp)
    a80f:	00 00 00 00 
    a813:	48 8d 85 90 f1 ff ff 	lea    -0xe70(%rbp),%rax
    a81a:	48 89 85 e0 f7 ff ff 	mov    %rax,-0x820(%rbp)
    a821:	48 8d 85 90 f1 ff ff 	lea    -0xe70(%rbp),%rax
    a828:	48 89 85 e8 f7 ff ff 	mov    %rax,-0x818(%rbp)
    a82f:	48 8d 85 90 f1 ff ff 	lea    -0xe70(%rbp),%rax
    a836:	48 89 85 f0 f7 ff ff 	mov    %rax,-0x810(%rbp)
    a83d:	48 8d 85 90 f1 ff ff 	lea    -0xe70(%rbp),%rax
    a844:	48 89 85 f8 f7 ff ff 	mov    %rax,-0x808(%rbp)
    a84b:	48 8d 85 90 f1 ff ff 	lea    -0xe70(%rbp),%rax
    a852:	48 89 85 00 f8 ff ff 	mov    %rax,-0x800(%rbp)
    a859:	48 8d 85 90 f1 ff ff 	lea    -0xe70(%rbp),%rax
    a860:	48 89 85 08 f8 ff ff 	mov    %rax,-0x7f8(%rbp)
    a867:	48 8d 85 90 f1 ff ff 	lea    -0xe70(%rbp),%rax
    a86e:	48 89 85 10 f8 ff ff 	mov    %rax,-0x7f0(%rbp)
    a875:	48 8d 85 90 f1 ff ff 	lea    -0xe70(%rbp),%rax
    a87c:	48 89 85 18 f8 ff ff 	mov    %rax,-0x7e8(%rbp)
    a883:	48 8d 85 90 f1 ff ff 	lea    -0xe70(%rbp),%rax
    a88a:	48 89 85 20 f8 ff ff 	mov    %rax,-0x7e0(%rbp)
    a891:	48 8d 85 90 f1 ff ff 	lea    -0xe70(%rbp),%rax
    a898:	48 89 85 28 f8 ff ff 	mov    %rax,-0x7d8(%rbp)
    a89f:	48 8d 85 90 f1 ff ff 	lea    -0xe70(%rbp),%rax
    a8a6:	48 89 85 30 f8 ff ff 	mov    %rax,-0x7d0(%rbp)
    a8ad:	48 8d 85 90 f1 ff ff 	lea    -0xe70(%rbp),%rax
    a8b4:	48 89 85 38 f8 ff ff 	mov    %rax,-0x7c8(%rbp)
    a8bb:	48 8d 85 90 f1 ff ff 	lea    -0xe70(%rbp),%rax
    a8c2:	48 89 85 40 f8 ff ff 	mov    %rax,-0x7c0(%rbp)
    a8c9:	48 8d 85 90 f1 ff ff 	lea    -0xe70(%rbp),%rax
    a8d0:	48 89 85 48 f8 ff ff 	mov    %rax,-0x7b8(%rbp)
    a8d7:	48 8d 85 90 f1 ff ff 	lea    -0xe70(%rbp),%rax
    a8de:	48 89 85 50 f8 ff ff 	mov    %rax,-0x7b0(%rbp)
    a8e5:	48 8d 85 90 f1 ff ff 	lea    -0xe70(%rbp),%rax
    a8ec:	48 89 85 58 f8 ff ff 	mov    %rax,-0x7a8(%rbp)
    a8f3:	48 8d 85 90 f1 ff ff 	lea    -0xe70(%rbp),%rax
    a8fa:	48 89 85 60 f8 ff ff 	mov    %rax,-0x7a0(%rbp)
    a901:	48 8d 85 90 f1 ff ff 	lea    -0xe70(%rbp),%rax
    a908:	48 89 85 68 f8 ff ff 	mov    %rax,-0x798(%rbp)
    a90f:	48 8d 85 90 f1 ff ff 	lea    -0xe70(%rbp),%rax
    a916:	48 89 85 70 f8 ff ff 	mov    %rax,-0x790(%rbp)
    a91d:	48 8d 85 90 f1 ff ff 	lea    -0xe70(%rbp),%rax
    a924:	48 89 85 78 f8 ff ff 	mov    %rax,-0x788(%rbp)
    a92b:	48 8d 85 90 f1 ff ff 	lea    -0xe70(%rbp),%rax
    a932:	48 89 85 80 f8 ff ff 	mov    %rax,-0x780(%rbp)
    a939:	48 8d 85 90 f1 ff ff 	lea    -0xe70(%rbp),%rax
    a940:	48 89 85 88 f8 ff ff 	mov    %rax,-0x778(%rbp)
    a947:	48 8d 85 90 f1 ff ff 	lea    -0xe70(%rbp),%rax
    a94e:	48 89 85 90 f8 ff ff 	mov    %rax,-0x770(%rbp)
    a955:	48 8d 85 90 f1 ff ff 	lea    -0xe70(%rbp),%rax
    a95c:	48 89 85 98 f8 ff ff 	mov    %rax,-0x768(%rbp)
    a963:	48 8d 85 90 f1 ff ff 	lea    -0xe70(%rbp),%rax
    a96a:	48 89 85 a0 f8 ff ff 	mov    %rax,-0x760(%rbp)
    a971:	48 c7 85 a8 f8 ff ff 	movq   $0x0,-0x758(%rbp)
    a978:	00 00 00 00 
    a97c:	48 8d 85 90 f1 ff ff 	lea    -0xe70(%rbp),%rax
    a983:	48 89 85 b0 f8 ff ff 	mov    %rax,-0x750(%rbp)
    a98a:	48 8d 85 90 f1 ff ff 	lea    -0xe70(%rbp),%rax
    a991:	48 89 85 b8 f8 ff ff 	mov    %rax,-0x748(%rbp)
    a998:	48 8d 85 90 f1 ff ff 	lea    -0xe70(%rbp),%rax
    a99f:	48 89 85 c0 f8 ff ff 	mov    %rax,-0x740(%rbp)
    a9a6:	48 8d 85 90 f1 ff ff 	lea    -0xe70(%rbp),%rax
    a9ad:	48 89 85 c8 f8 ff ff 	mov    %rax,-0x738(%rbp)
    a9b4:	48 8d 85 90 f1 ff ff 	lea    -0xe70(%rbp),%rax
    a9bb:	48 89 85 d0 f8 ff ff 	mov    %rax,-0x730(%rbp)
    a9c2:	48 8d 85 90 f1 ff ff 	lea    -0xe70(%rbp),%rax
    a9c9:	48 89 85 d8 f8 ff ff 	mov    %rax,-0x728(%rbp)
    a9d0:	48 c7 85 e0 f8 ff ff 	movq   $0x0,-0x720(%rbp)
    a9d7:	00 00 00 00 
    a9db:	48 8d 85 90 f1 ff ff 	lea    -0xe70(%rbp),%rax
    a9e2:	48 89 85 e8 f8 ff ff 	mov    %rax,-0x718(%rbp)
    a9e9:	48 8d 85 70 f6 ff ff 	lea    -0x990(%rbp),%rax
    a9f0:	48 05 f8 00 00 00    	add    $0xf8,%rax
    a9f6:	48 89 85 c8 f1 ff ff 	mov    %rax,-0xe38(%rbp)
    a9fd:	c6 85 c0 f0 ff ff ff 	movb   $0xff,-0xf40(%rbp)
    aa04:	48 8d 05 35 6c 00 00 	lea    0x6c35(%rip),%rax        # 11640 <g_423+0x20>
    aa0b:	48 89 85 98 f1 ff ff 	mov    %rax,-0xe68(%rbp)
    aa12:	48 8d 85 98 f1 ff ff 	lea    -0xe68(%rbp),%rax
    aa19:	48 89 85 d0 f1 ff ff 	mov    %rax,-0xe30(%rbp)
    aa20:	c7 85 2c f1 ff ff 38 	movl   $0x7dba4238,-0xed4(%rbp)
    aa27:	42 ba 7d 
    aa2a:	c7 45 bb 4c 4c 4c 4c 	movl   $0x4c4c4c4c,-0x45(%rbp)
    aa31:	c6 45 bf 4c          	movb   $0x4c,-0x41(%rbp)
    aa35:	48 8d 85 70 f6 ff ff 	lea    -0x990(%rbp),%rax
    aa3c:	48 05 f8 00 00 00    	add    $0xf8,%rax
    aa42:	48 89 85 d8 f1 ff ff 	mov    %rax,-0xe28(%rbp)
    aa49:	48 8d 85 dc f0 ff ff 	lea    -0xf24(%rbp),%rax
    aa50:	48 89 85 e0 f1 ff ff 	mov    %rax,-0xe20(%rbp)
    aa57:	c7 85 30 f1 ff ff 4d 	movl   $0x2ae2b14d,-0xed0(%rbp)
    aa5e:	b1 e2 2a 
    aa61:	c7 85 34 f1 ff ff 7b 	movl   $0x280dec7b,-0xecc(%rbp)
    aa68:	ec 0d 28 
    aa6b:	c7 85 1c f1 ff ff 00 	movl   $0x0,-0xee4(%rbp)
    aa72:	00 00 00 
    aa75:	eb 1a                	jmp    aa91 <func_63+0x7db>
    aa77:	8b 85 1c f1 ff ff    	mov    -0xee4(%rbp),%eax
    aa7d:	48 98                	cltq   
    aa7f:	c7 84 85 00 f3 ff ff 	movl   $0xffffffff,-0xd00(%rbp,%rax,4)
    aa86:	ff ff ff ff 
    aa8a:	83 85 1c f1 ff ff 01 	addl   $0x1,-0xee4(%rbp)
    aa91:	83 bd 1c f1 ff ff 03 	cmpl   $0x3,-0xee4(%rbp)
    aa98:	7e dd                	jle    aa77 <func_63+0x7c1>
    aa9a:	90                   	nop
    aa9b:	48 8b 85 78 f1 ff ff 	mov    -0xe88(%rbp),%rax
    aaa2:	8b 10                	mov    (%rax),%edx
    aaa4:	48 8b 85 78 f1 ff ff 	mov    -0xe88(%rbp),%rax
    aaab:	81 f2 1f a8 c9 bd    	xor    $0xbdc9a81f,%edx
    aab1:	89 10                	mov    %edx,(%rax)
    aab3:	c7 05 6f 65 00 00 e6 	movl   $0xffffffe6,0x656f(%rip)        # 1102c <g_49>
    aaba:	ff ff ff 
    aabd:	e9 30 13 00 00       	jmpq   bdf2 <func_63+0x1b3c>
    aac2:	48 8d 05 67 65 00 00 	lea    0x6567(%rip),%rax        # 11030 <g_84>
    aac9:	48 89 85 a8 f1 ff ff 	mov    %rax,-0xe58(%rbp)
    aad0:	48 8d 05 5b 65 00 00 	lea    0x655b(%rip),%rax        # 11032 <g_90>
    aad7:	48 89 85 e8 f1 ff ff 	mov    %rax,-0xe18(%rbp)
    aade:	c7 85 e8 f0 ff ff 25 	movl   $0x8693c25,-0xf18(%rbp)
    aae5:	3c 69 08 
    aae8:	48 8d 05 d9 65 00 00 	lea    0x65d9(%rip),%rax        # 110c8 <g_110>
    aaef:	48 89 85 f0 f1 ff ff 	mov    %rax,-0xe10(%rbp)
    aaf6:	48 8d 05 9b 65 00 00 	lea    0x659b(%rip),%rax        # 11098 <g_106+0x18>
    aafd:	48 89 85 f8 f1 ff ff 	mov    %rax,-0xe08(%rbp)
    ab04:	48 c7 85 00 f2 ff ff 	movq   $0xffffffffffffffff,-0xe00(%rbp)
    ab0b:	ff ff ff ff 
    ab0f:	c7 85 38 f1 ff ff ff 	movl   $0xffffffff,-0xec8(%rbp)
    ab16:	ff ff ff 
    ab19:	c7 85 3c f1 ff ff 14 	movl   $0x97953b14,-0xec4(%rbp)
    ab20:	3b 95 97 
    ab23:	c7 85 40 f1 ff ff 11 	movl   $0x1b148711,-0xec0(%rbp)
    ab2a:	87 14 1b 
    ab2d:	c7 85 20 f1 ff ff 00 	movl   $0x0,-0xee0(%rbp)
    ab34:	00 00 00 
    ab37:	eb 1e                	jmp    ab57 <func_63+0x8a1>
    ab39:	8b 85 20 f1 ff ff    	mov    -0xee0(%rbp),%eax
    ab3f:	48 98                	cltq   
    ab41:	48 8d 15 fe 64 00 00 	lea    0x64fe(%rip),%rdx        # 11046 <g_92+0x6>
    ab48:	48 89 94 c5 10 f3 ff 	mov    %rdx,-0xcf0(%rbp,%rax,8)
    ab4f:	ff 
    ab50:	83 85 20 f1 ff ff 01 	addl   $0x1,-0xee0(%rbp)
    ab57:	83 bd 20 f1 ff ff 01 	cmpl   $0x1,-0xee0(%rbp)
    ab5e:	7e d9                	jle    ab39 <func_63+0x883>
    ab60:	8b 05 c2 64 00 00    	mov    0x64c2(%rip),%eax        # 11028 <g_47>
    ab66:	98                   	cwtl   
    ab67:	be 0d 00 00 00       	mov    $0xd,%esi
    ab6c:	89 c7                	mov    %eax,%edi
    ab6e:	e8 6e 99 ff ff       	callq  44e1 <safe_lshift_func_int16_t_s_u>
    ab73:	0f bf d8             	movswl %ax,%ebx
    ab76:	48 8b 85 78 f1 ff ff 	mov    -0xe88(%rbp),%rax
    ab7d:	8b 00                	mov    (%rax),%eax
    ab7f:	98                   	cwtl   
    ab80:	be 00 00 00 00       	mov    $0x0,%esi
    ab85:	89 c7                	mov    %eax,%edi
    ab87:	e8 55 99 ff ff       	callq  44e1 <safe_lshift_func_int16_t_s_u>
    ab8c:	0f b6 c0             	movzbl %al,%eax
    ab8f:	be 03 00 00 00       	mov    $0x3,%esi
    ab94:	89 c7                	mov    %eax,%edi
    ab96:	e8 b1 a0 ff ff       	callq  4c4c <safe_lshift_func_uint8_t_u_u>
    ab9b:	0f b6 d0             	movzbl %al,%edx
    ab9e:	8b 05 80 64 00 00    	mov    0x6480(%rip),%eax        # 11024 <g_43>
    aba4:	39 c2                	cmp    %eax,%edx
    aba6:	0f 94 c0             	sete   %al
    aba9:	0f b6 d0             	movzbl %al,%edx
    abac:	48 8b 85 78 f1 ff ff 	mov    -0xe88(%rbp),%rax
    abb3:	8b 08                	mov    (%rax),%ecx
    abb5:	48 8b 05 04 80 00 00 	mov    0x8004(%rip),%rax        # 12bc0 <g_48>
    abbc:	8b 00                	mov    (%rax),%eax
    abbe:	39 c1                	cmp    %eax,%ecx
    abc0:	0f 9f c0             	setg   %al
    abc3:	0f b6 c0             	movzbl %al,%eax
    abc6:	89 d6                	mov    %edx,%esi
    abc8:	89 c7                	mov    %eax,%edi
    abca:	e8 50 a1 ff ff       	callq  4d1f <safe_sub_func_uint16_t_u_u>
    abcf:	48 8b 85 a8 f1 ff ff 	mov    -0xe58(%rbp),%rax
    abd6:	0f b7 10             	movzwl (%rax),%edx
    abd9:	83 c2 01             	add    $0x1,%edx
    abdc:	66 89 10             	mov    %dx,(%rax)
    abdf:	0f b7 00             	movzwl (%rax),%eax
    abe2:	0f bf d0             	movswl %ax,%edx
    abe5:	0f b7 85 b4 f0 ff ff 	movzwl -0xf4c(%rbp),%eax
    abec:	98                   	cwtl   
    abed:	89 d6                	mov    %edx,%esi
    abef:	89 c7                	mov    %eax,%edi
    abf1:	e8 20 98 ff ff       	callq  4416 <safe_mod_func_int16_t_s_s>
    abf6:	48 0f bf d0          	movswq %ax,%rdx
    abfa:	48 83 bd b8 f0 ff ff 	cmpq   $0x0,-0xf48(%rbp)
    ac01:	00 
    ac02:	0f 95 c0             	setne  %al
    ac05:	0f b6 c0             	movzbl %al,%eax
    ac08:	48 89 d6             	mov    %rdx,%rsi
    ac0b:	48 89 c7             	mov    %rax,%rdi
    ac0e:	e8 e4 9d ff ff       	callq  49f7 <safe_div_func_int64_t_s_s>
    ac13:	0f b7 85 b4 f0 ff ff 	movzwl -0xf4c(%rbp),%eax
    ac1a:	0f be d0             	movsbl %al,%edx
    ac1d:	48 8b 05 9c 7f 00 00 	mov    0x7f9c(%rip),%rax        # 12bc0 <g_48>
    ac24:	8b 00                	mov    (%rax),%eax
    ac26:	83 c8 53             	or     $0x53,%eax
    ac29:	0f be c0             	movsbl %al,%eax
    ac2c:	89 d6                	mov    %edx,%esi
    ac2e:	89 c7                	mov    %eax,%edi
    ac30:	e8 fc 95 ff ff       	callq  4231 <safe_mod_func_int8_t_s_s>
    ac35:	48 8b 95 e8 f1 ff ff 	mov    -0xe18(%rbp),%rdx
    ac3c:	88 02                	mov    %al,(%rdx)
    ac3e:	48 8b 85 e8 f1 ff ff 	mov    -0xe18(%rbp),%rax
    ac45:	0f b6 00             	movzbl (%rax),%eax
    ac48:	0f be c0             	movsbl %al,%eax
    ac4b:	89 85 e8 f0 ff ff    	mov    %eax,-0xf18(%rbp)
    ac51:	8b 85 e8 f0 ff ff    	mov    -0xf18(%rbp),%eax
    ac57:	21 d8                	and    %ebx,%eax
    ac59:	85 c0                	test   %eax,%eax
    ac5b:	0f 84 6f 10 00 00    	je     bcd0 <func_63+0x1a1a>
    ac61:	48 c7 85 10 f2 ff ff 	movq   $0x0,-0xdf0(%rbp)
    ac68:	00 00 00 00 
    ac6c:	48 8d 05 ed 63 00 00 	lea    0x63ed(%rip),%rax        # 11060 <g_104>
    ac73:	48 89 85 18 f2 ff ff 	mov    %rax,-0xde8(%rbp)
    ac7a:	48 8d 05 37 64 00 00 	lea    0x6437(%rip),%rax        # 110b8 <g_106+0x38>
    ac81:	48 89 85 20 f2 ff ff 	mov    %rax,-0xde0(%rbp)
    ac88:	c6 85 e4 f0 ff ff 01 	movb   $0x1,-0xf1c(%rbp)
    ac8f:	48 8d 85 e8 f0 ff ff 	lea    -0xf18(%rbp),%rax
    ac96:	48 89 85 b0 f1 ff ff 	mov    %rax,-0xe50(%rbp)
    ac9d:	48 bb b3 5d 68 55 c7 	movabs $0x149cd5c755685db3,%rbx
    aca4:	d5 9c 14 
    aca7:	48 89 9d 60 f3 ff ff 	mov    %rbx,-0xca0(%rbp)
    acae:	48 b8 47 ea 8e 1c 01 	movabs $0xb6ed011c8eea47,%rax
    acb5:	ed b6 00 
    acb8:	48 89 85 68 f3 ff ff 	mov    %rax,-0xc98(%rbp)
    acbf:	48 89 85 70 f3 ff ff 	mov    %rax,-0xc90(%rbp)
    acc6:	48 89 9d 78 f3 ff ff 	mov    %rbx,-0xc88(%rbp)
    accd:	48 89 85 80 f3 ff ff 	mov    %rax,-0xc80(%rbp)
    acd4:	48 89 85 88 f3 ff ff 	mov    %rax,-0xc78(%rbp)
    acdb:	48 89 9d 90 f3 ff ff 	mov    %rbx,-0xc70(%rbp)
    ace2:	48 89 85 98 f3 ff ff 	mov    %rax,-0xc68(%rbp)
    ace9:	48 89 85 a0 f3 ff ff 	mov    %rax,-0xc60(%rbp)
    acf0:	48 89 9d a8 f3 ff ff 	mov    %rbx,-0xc58(%rbp)
    acf7:	48 8b 05 5a 63 00 00 	mov    0x635a(%rip),%rax        # 11058 <g_94>
    acfe:	48 8b 85 78 f1 ff ff 	mov    -0xe88(%rbp),%rax
    ad05:	8b 18                	mov    (%rax),%ebx
    ad07:	0f b6 05 38 63 00 00 	movzbl 0x6338(%rip),%eax        # 11046 <g_92+0x6>
    ad0e:	44 0f b6 e0          	movzbl %al,%r12d
    ad12:	0f b7 95 b4 f0 ff ff 	movzwl -0xf4c(%rbp),%edx
    ad19:	48 8b 85 18 f2 ff ff 	mov    -0xde8(%rbp),%rax
    ad20:	66 89 10             	mov    %dx,(%rax)
    ad23:	48 8b 85 18 f2 ff ff 	mov    -0xde8(%rbp),%rax
    ad2a:	0f b7 00             	movzwl (%rax),%eax
    ad2d:	48 0f bf d0          	movswq %ax,%rdx
    ad31:	48 8b 85 20 f2 ff ff 	mov    -0xde0(%rbp),%rax
    ad38:	48 89 10             	mov    %rdx,(%rax)
    ad3b:	48 8b 05 86 7e 00 00 	mov    0x7e86(%rip),%rax        # 12bc8 <g_107>
    ad42:	48 39 85 f0 f1 ff ff 	cmp    %rax,-0xe10(%rbp)
    ad49:	0f b6 05 04 63 00 00 	movzbl 0x6304(%rip),%eax        # 11054 <g_92+0x14>
    ad50:	4c 0f be e8          	movsbq %al,%r13
    ad54:	0f b7 85 b4 f0 ff ff 	movzwl -0xf4c(%rbp),%eax
    ad5b:	0f bf d0             	movswl %ax,%edx
    ad5e:	48 8b 85 78 f1 ff ff 	mov    -0xe88(%rbp),%rax
    ad65:	8b 00                	mov    (%rax),%eax
    ad67:	21 c2                	and    %eax,%edx
    ad69:	0f b7 85 b4 f0 ff ff 	movzwl -0xf4c(%rbp),%eax
    ad70:	98                   	cwtl   
    ad71:	39 c2                	cmp    %eax,%edx
    ad73:	7d 14                	jge    ad89 <func_63+0xad3>
    ad75:	48 8b 85 b8 f0 ff ff 	mov    -0xf48(%rbp),%rax
    ad7c:	8b 00                	mov    (%rax),%eax
    ad7e:	85 c0                	test   %eax,%eax
    ad80:	74 07                	je     ad89 <func_63+0xad3>
    ad82:	b8 01 00 00 00       	mov    $0x1,%eax
    ad87:	eb 05                	jmp    ad8e <func_63+0xad8>
    ad89:	b8 00 00 00 00       	mov    $0x0,%eax
    ad8e:	48 98                	cltq   
    ad90:	48 89 c7             	mov    %rax,%rdi
    ad93:	e8 7e 9a ff ff       	callq  4816 <safe_unary_minus_func_int64_t_s>
    ad98:	25 87 7c 00 00       	and    $0x7c87,%eax
    ad9d:	4c 89 ee             	mov    %r13,%rsi
    ada0:	48 89 c7             	mov    %rax,%rdi
    ada3:	e8 4f 9c ff ff       	callq  49f7 <safe_div_func_int64_t_s_s>
    ada8:	89 85 e8 f0 ff ff    	mov    %eax,-0xf18(%rbp)
    adae:	8b 85 e8 f0 ff ff    	mov    -0xf18(%rbp),%eax
    adb4:	0f be d0             	movsbl %al,%edx
    adb7:	48 83 bd f8 f1 ff ff 	cmpq   $0x0,-0xe08(%rbp)
    adbe:	00 
    adbf:	0f 94 c0             	sete   %al
    adc2:	0f b6 c0             	movzbl %al,%eax
    adc5:	89 d6                	mov    %edx,%esi
    adc7:	89 c7                	mov    %eax,%edi
    adc9:	e8 44 94 ff ff       	callq  4212 <safe_mul_func_int8_t_s_s>
    adce:	48 0f be c0          	movsbq %al,%rax
    add2:	48 89 c7             	mov    %rax,%rdi
    add5:	e8 3f a2 ff ff       	callq  5019 <safe_unary_minus_func_uint64_t_u>
    adda:	b8 00 00 00 00       	mov    $0x0,%eax
    addf:	0f b6 c0             	movzbl %al,%eax
    ade2:	44 89 e6             	mov    %r12d,%esi
    ade5:	89 c7                	mov    %eax,%edi
    ade7:	e8 ef 9d ff ff       	callq  4bdb <safe_div_func_uint8_t_u_u>
    adec:	0f b6 c0             	movzbl %al,%eax
    adef:	89 de                	mov    %ebx,%esi
    adf1:	89 c7                	mov    %eax,%edi
    adf3:	e8 50 a0 ff ff       	callq  4e48 <safe_rshift_func_uint16_t_u_s>
    adf8:	0f b7 95 b4 f0 ff ff 	movzwl -0xf4c(%rbp),%edx
    adff:	48 8b 85 78 f1 ff ff 	mov    -0xe88(%rbp),%rax
    ae06:	0f bf d2             	movswl %dx,%edx
    ae09:	89 10                	mov    %edx,(%rax)
    ae0b:	8b 10                	mov    (%rax),%edx
    ae0d:	0f b7 85 b4 f0 ff ff 	movzwl -0xf4c(%rbp),%eax
    ae14:	98                   	cwtl   
    ae15:	31 d0                	xor    %edx,%eax
    ae17:	83 f8 ff             	cmp    $0xffffffff,%eax
    ae1a:	0f 85 0c 01 00 00    	jne    af2c <func_63+0xc76>
    ae20:	c7 85 5c f1 ff ff 93 	movl   $0x58dd5d93,-0xea4(%rbp)
    ae27:	5d dd 58 
    ae2a:	48 8b 05 27 62 00 00 	mov    0x6227(%rip),%rax        # 11058 <g_94>
    ae31:	8b 85 e8 f0 ff ff    	mov    -0xf18(%rbp),%eax
    ae37:	98                   	cwtl   
    ae38:	be 00 00 00 00       	mov    $0x0,%esi
    ae3d:	89 c7                	mov    %eax,%edi
    ae3f:	e8 d2 95 ff ff       	callq  4416 <safe_mod_func_int16_t_s_s>
    ae44:	0f b6 c0             	movzbl %al,%eax
    ae47:	89 c6                	mov    %eax,%esi
    ae49:	bf 34 00 00 00       	mov    $0x34,%edi
    ae4e:	e8 07 9d ff ff       	callq  4b5a <safe_add_func_uint8_t_u_u>
    ae53:	8b 05 cb 61 00 00    	mov    0x61cb(%rip),%eax        # 11024 <g_43>
    ae59:	0f b7 d8             	movzwl %ax,%ebx
    ae5c:	0f b7 05 fd 61 00 00 	movzwl 0x61fd(%rip),%eax        # 11060 <g_104>
    ae63:	44 0f bf e0          	movswl %ax,%r12d
    ae67:	8b 05 b7 61 00 00    	mov    0x61b7(%rip),%eax        # 11024 <g_43>
    ae6d:	89 c2                	mov    %eax,%edx
    ae6f:	0f b7 85 b4 f0 ff ff 	movzwl -0xf4c(%rbp),%eax
    ae76:	98                   	cwtl   
    ae77:	89 d6                	mov    %edx,%esi
    ae79:	89 c7                	mov    %eax,%edi
    ae7b:	e8 12 96 ff ff       	callq  4492 <safe_lshift_func_int16_t_s_s>
    ae80:	0f bf d0             	movswl %ax,%edx
    ae83:	48 8b 85 78 f1 ff ff 	mov    -0xe88(%rbp),%rax
    ae8a:	8b 00                	mov    (%rax),%eax
    ae8c:	39 c2                	cmp    %eax,%edx
    ae8e:	7d 0c                	jge    ae9c <func_63+0xbe6>
    ae90:	0f b7 85 b4 f0 ff ff 	movzwl -0xf4c(%rbp),%eax
    ae97:	66 85 c0             	test   %ax,%ax
    ae9a:	74 07                	je     aea3 <func_63+0xbed>
    ae9c:	b8 01 00 00 00       	mov    $0x1,%eax
    aea1:	eb 05                	jmp    aea8 <func_63+0xbf2>
    aea3:	b8 00 00 00 00       	mov    $0x0,%eax
    aea8:	44 39 e0             	cmp    %r12d,%eax
    aeab:	0f 95 c0             	setne  %al
    aeae:	0f b6 c0             	movzbl %al,%eax
    aeb1:	be fd ff ff ff       	mov    $0xfffffffd,%esi
    aeb6:	89 c7                	mov    %eax,%edi
    aeb8:	e8 f6 94 ff ff       	callq  43b3 <safe_add_func_int16_t_s_s>
    aebd:	f7 d0                	not    %eax
    aebf:	0f b7 c0             	movzwl %ax,%eax
    aec2:	89 de                	mov    %ebx,%esi
    aec4:	89 c7                	mov    %eax,%edi
    aec6:	e8 54 9e ff ff       	callq  4d1f <safe_sub_func_uint16_t_u_u>
    aecb:	0f b7 c0             	movzwl %ax,%eax
    aece:	48 89 05 23 63 00 00 	mov    %rax,0x6323(%rip)        # 111f8 <g_134+0x118>
    aed5:	0f b6 85 e4 f0 ff ff 	movzbl -0xf1c(%rbp),%eax
    aedc:	0f be d0             	movsbl %al,%edx
    aedf:	48 8b 85 78 f1 ff ff 	mov    -0xe88(%rbp),%rax
    aee6:	8b 08                	mov    (%rax),%ecx
    aee8:	0f b7 85 b4 f0 ff ff 	movzwl -0xf4c(%rbp),%eax
    aeef:	98                   	cwtl   
    aef0:	21 c8                	and    %ecx,%eax
    aef2:	39 c2                	cmp    %eax,%edx
    aef4:	0f 95 c0             	setne  %al
    aef7:	0f b6 d0             	movzbl %al,%edx
    aefa:	8b 85 5c f1 ff ff    	mov    -0xea4(%rbp),%eax
    af00:	98                   	cwtl   
    af01:	89 d6                	mov    %edx,%esi
    af03:	89 c7                	mov    %eax,%edi
    af05:	e8 20 96 ff ff       	callq  452a <safe_rshift_func_int16_t_s_s>
    af0a:	48 8b 15 af 7c 00 00 	mov    0x7caf(%rip),%rdx        # 12bc0 <g_48>
    af11:	48 8b 85 78 f1 ff ff 	mov    -0xe88(%rbp),%rax
    af18:	8b 12                	mov    (%rdx),%edx
    af1a:	89 10                	mov    %edx,(%rax)
    af1c:	48 8b 05 9d 7c 00 00 	mov    0x7c9d(%rip),%rax        # 12bc0 <g_48>
    af23:	8b 00                	mov    (%rax),%eax
    af25:	85 c0                	test   %eax,%eax
    af27:	e9 ae 0e 00 00       	jmpq   bdda <func_63+0x1b24>
    af2c:	c7 85 48 f1 ff ff 6c 	movl   $0xd83cb06c,-0xeb8(%rbp)
    af33:	b0 3c d8 
    af36:	c7 85 4c f1 ff ff 00 	movl   $0x0,-0xeb4(%rbp)
    af3d:	00 00 00 
    af40:	48 8d 05 dd 60 00 00 	lea    0x60dd(%rip),%rax        # 11024 <g_43>
    af47:	48 89 85 28 f2 ff ff 	mov    %rax,-0xdd8(%rbp)
    af4e:	c7 85 50 f1 ff ff ff 	movl   $0xffffffff,-0xeb0(%rbp)
    af55:	ff ff ff 
    af58:	48 c7 85 30 f2 ff ff 	movq   $0x0,-0xdd0(%rbp)
    af5f:	00 00 00 00 
    af63:	c7 85 54 f1 ff ff 30 	movl   $0x4d3c6530,-0xeac(%rbp)
    af6a:	65 3c 4d 
    af6d:	48 8d 05 1c 66 00 00 	lea    0x661c(%rip),%rax        # 11590 <g_260>
    af74:	48 89 85 38 f2 ff ff 	mov    %rax,-0xdc8(%rbp)
    af7b:	c7 85 24 f1 ff ff 00 	movl   $0x0,-0xedc(%rbp)
    af82:	00 00 00 
    af85:	eb 1e                	jmp    afa5 <func_63+0xcef>
    af87:	8b 85 24 f1 ff ff    	mov    -0xedc(%rbp),%eax
    af8d:	48 98                	cltq   
    af8f:	48 8d 15 f5 65 00 00 	lea    0x65f5(%rip),%rdx        # 1158b <g_162+0x3>
    af96:	48 89 94 c5 30 f3 ff 	mov    %rdx,-0xcd0(%rbp,%rax,8)
    af9d:	ff 
    af9e:	83 85 24 f1 ff ff 01 	addl   $0x1,-0xedc(%rbp)
    afa5:	83 bd 24 f1 ff ff 04 	cmpl   $0x4,-0xedc(%rbp)
    afac:	7e d9                	jle    af87 <func_63+0xcd1>
    afae:	48 8b 85 78 f1 ff ff 	mov    -0xe88(%rbp),%rax
    afb5:	48 89 85 b0 f1 ff ff 	mov    %rax,-0xe50(%rbp)
    afbc:	8b 95 e8 f0 ff ff    	mov    -0xf18(%rbp),%edx
    afc2:	8b 8d e8 f0 ff ff    	mov    -0xf18(%rbp),%ecx
    afc8:	48 8b 85 b0 f1 ff ff 	mov    -0xe50(%rbp),%rax
    afcf:	80 c9 ea             	or     $0xea,%cl
    afd2:	89 08                	mov    %ecx,(%rax)
    afd4:	8b 00                	mov    (%rax),%eax
    afd6:	89 d6                	mov    %edx,%esi
    afd8:	89 c7                	mov    %eax,%edi
    afda:	e8 20 97 ff ff       	callq  46ff <safe_div_func_int32_t_s_s>
    afdf:	0f b6 05 82 84 00 00 	movzbl 0x8482(%rip),%eax        # 13468 <g_5>
    afe6:	0f b6 d8             	movzbl %al,%ebx
    afe9:	8b 85 48 f1 ff ff    	mov    -0xeb8(%rbp),%eax
    afef:	89 c2                	mov    %eax,%edx
    aff1:	48 8b 85 18 f2 ff ff 	mov    -0xde8(%rbp),%rax
    aff8:	66 89 10             	mov    %dx,(%rax)
    affb:	48 8b 85 18 f2 ff ff 	mov    -0xde8(%rbp),%rax
    b002:	0f b7 00             	movzwl (%rax),%eax
    b005:	0f bf d0             	movswl %ax,%edx
    b008:	48 8b 85 78 f1 ff ff 	mov    -0xe88(%rbp),%rax
    b00f:	8b 00                	mov    (%rax),%eax
    b011:	31 c2                	xor    %eax,%edx
    b013:	41 89 d5             	mov    %edx,%r13d
    b016:	44 8b a5 e8 f0 ff ff 	mov    -0xf18(%rbp),%r12d
    b01d:	8b 85 e8 f0 ff ff    	mov    -0xf18(%rbp),%eax
    b023:	89 c2                	mov    %eax,%edx
    b025:	8b 85 d0 f0 ff ff    	mov    -0xf30(%rbp),%eax
    b02b:	21 c2                	and    %eax,%edx
    b02d:	8b 85 48 f1 ff ff    	mov    -0xeb8(%rbp),%eax
    b033:	39 c2                	cmp    %eax,%edx
    b035:	76 07                	jbe    b03e <func_63+0xd88>
    b037:	ba 03 00 00 00       	mov    $0x3,%edx
    b03c:	eb 05                	jmp    b043 <func_63+0xd8d>
    b03e:	ba 02 00 00 00       	mov    $0x2,%edx
    b043:	0f b7 05 e6 5f 00 00 	movzwl 0x5fe6(%rip),%eax        # 11030 <g_84>
    b04a:	0f b7 c0             	movzwl %ax,%eax
    b04d:	48 31 d0             	xor    %rdx,%rax
    b050:	48 3d fe 00 00 00    	cmp    $0xfe,%rax
    b056:	0f 97 c0             	seta   %al
    b059:	0f b6 d0             	movzbl %al,%edx
    b05c:	48 8b 05 95 61 00 00 	mov    0x6195(%rip),%rax        # 111f8 <g_134+0x118>
    b063:	48 89 d6             	mov    %rdx,%rsi
    b066:	48 89 c7             	mov    %rax,%rdi
    b069:	e8 c0 9f ff ff       	callq  502e <safe_add_func_uint64_t_u_u>
    b06e:	48 0d fe ff 00 00    	or     $0xfffe,%rax
    b074:	48 3d ab 15 00 00    	cmp    $0x15ab,%rax
    b07a:	0f 97 c0             	seta   %al
    b07d:	0f b6 c0             	movzbl %al,%eax
    b080:	be ff ff ff ff       	mov    $0xffffffff,%esi
    b085:	89 c7                	mov    %eax,%edi
    b087:	e8 66 91 ff ff       	callq  41f2 <safe_sub_func_int8_t_s_s>
    b08c:	0f be d0             	movsbl %al,%edx
    b08f:	8b 05 93 5f 00 00    	mov    0x5f93(%rip),%eax        # 11028 <g_47>
    b095:	09 d0                	or     %edx,%eax
    b097:	35 45 79 20 20       	xor    $0x20207945,%eax
    b09c:	44 89 e6             	mov    %r12d,%esi
    b09f:	89 c7                	mov    %eax,%edi
    b0a1:	e8 5f 95 ff ff       	callq  4605 <safe_sub_func_int32_t_s_s>
    b0a6:	41 39 c5             	cmp    %eax,%r13d
    b0a9:	0f 94 c0             	sete   %al
    b0ac:	89 c2                	mov    %eax,%edx
    b0ae:	0f b6 05 7d 5f 00 00 	movzbl 0x5f7d(%rip),%eax        # 11032 <g_90>
    b0b5:	31 d0                	xor    %edx,%eax
    b0b7:	0f be c0             	movsbl %al,%eax
    b0ba:	be ff ff ff ff       	mov    $0xffffffff,%esi
    b0bf:	89 c7                	mov    %eax,%edi
    b0c1:	e8 4c 91 ff ff       	callq  4212 <safe_mul_func_int8_t_s_s>
    b0c6:	66 0f be d0          	movsbw %al,%dx
    b0ca:	0f b7 85 b4 f0 ff ff 	movzwl -0xf4c(%rbp),%eax
    b0d1:	66 39 c2             	cmp    %ax,%dx
    b0d4:	0f 94 c0             	sete   %al
    b0d7:	0f b6 c8             	movzbl %al,%ecx
    b0da:	48 8b 85 f8 f1 ff ff 	mov    -0xe08(%rbp),%rax
    b0e1:	48 8b 10             	mov    (%rax),%rdx
    b0e4:	48 63 c1             	movslq %ecx,%rax
    b0e7:	48 09 c2             	or     %rax,%rdx
    b0ea:	48 8b 85 f8 f1 ff ff 	mov    -0xe08(%rbp),%rax
    b0f1:	48 89 10             	mov    %rdx,(%rax)
    b0f4:	48 8b 85 f8 f1 ff ff 	mov    -0xe08(%rbp),%rax
    b0fb:	48 8b 10             	mov    (%rax),%rdx
    b0fe:	8b 85 48 f1 ff ff    	mov    -0xeb8(%rbp),%eax
    b104:	48 98                	cltq   
    b106:	48 39 c2             	cmp    %rax,%rdx
    b109:	74 07                	je     b112 <func_63+0xe5c>
    b10b:	b8 01 00 00 00       	mov    $0x1,%eax
    b110:	eb 05                	jmp    b117 <func_63+0xe61>
    b112:	b8 00 00 00 00       	mov    $0x0,%eax
    b117:	85 c0                	test   %eax,%eax
    b119:	74 07                	je     b122 <func_63+0xe6c>
    b11b:	b8 01 00 00 00       	mov    $0x1,%eax
    b120:	eb 05                	jmp    b127 <func_63+0xe71>
    b122:	b8 00 00 00 00       	mov    $0x0,%eax
    b127:	48 63 d0             	movslq %eax,%rdx
    b12a:	48 8b 05 c7 60 00 00 	mov    0x60c7(%rip),%rax        # 111f8 <g_134+0x118>
    b131:	48 39 c2             	cmp    %rax,%rdx
    b134:	75 0d                	jne    b143 <func_63+0xe8d>
    b136:	48 8b 85 b0 f1 ff ff 	mov    -0xe50(%rbp),%rax
    b13d:	8b 00                	mov    (%rax),%eax
    b13f:	85 c0                	test   %eax,%eax
    b141:	74 07                	je     b14a <func_63+0xe94>
    b143:	b8 01 00 00 00       	mov    $0x1,%eax
    b148:	eb 05                	jmp    b14f <func_63+0xe99>
    b14a:	b8 00 00 00 00       	mov    $0x0,%eax
    b14f:	89 85 4c f1 ff ff    	mov    %eax,-0xeb4(%rbp)
    b155:	8b 85 4c f1 ff ff    	mov    -0xeb4(%rbp),%eax
    b15b:	89 de                	mov    %ebx,%esi
    b15d:	89 c7                	mov    %eax,%edi
    b15f:	e8 54 9d ff ff       	callq  4eb8 <safe_add_func_uint32_t_u_u>
    b164:	85 c0                	test   %eax,%eax
    b166:	0f 84 f0 07 00 00    	je     b95c <func_63+0x16a6>
    b16c:	48 c7 85 40 f2 ff ff 	movq   $0x0,-0xdc0(%rbp)
    b173:	00 00 00 00 
    b177:	48 8d 85 f0 f8 ff ff 	lea    -0x710(%rbp),%rax
    b17e:	48 8d 15 9b 74 00 00 	lea    0x749b(%rip),%rdx        # 12620 <g_1180+0xf58>
    b185:	b9 b4 00 00 00       	mov    $0xb4,%ecx
    b18a:	48 89 c7             	mov    %rax,%rdi
    b18d:	48 89 d6             	mov    %rdx,%rsi
    b190:	f3 48 a5             	rep movsq %ds:(%rsi),%es:(%rdi)
    b193:	c7 85 ec f0 ff ff ff 	movl   $0xffffffff,-0xf14(%rbp)
    b19a:	ff ff ff 
    b19d:	c7 85 a0 f1 ff ff 1e 	movl   $0xfce81a1e,-0xe60(%rbp)
    b1a4:	1a e8 fc 
    b1a7:	66 c7 85 c6 f0 ff ff 	movw   $0x1,-0xf3a(%rbp)
    b1ae:	01 00 
    b1b0:	0f b6 05 7b 5e 00 00 	movzbl 0x5e7b(%rip),%eax        # 11032 <g_90>
    b1b7:	44 0f be e8          	movsbl %al,%r13d
    b1bb:	48 8b 15 fe 79 00 00 	mov    0x79fe(%rip),%rdx        # 12bc0 <g_48>
    b1c2:	48 8b 85 b0 f1 ff ff 	mov    -0xe50(%rbp),%rax
    b1c9:	8b 12                	mov    (%rdx),%edx
    b1cb:	89 10                	mov    %edx,(%rax)
    b1cd:	8b 00                	mov    (%rax),%eax
    b1cf:	85 c0                	test   %eax,%eax
    b1d1:	0f 85 43 01 00 00    	jne    b31a <func_63+0x1064>
    b1d7:	0f b7 85 b4 f0 ff ff 	movzwl -0xf4c(%rbp),%eax
    b1de:	0f b7 d8             	movzwl %ax,%ebx
    b1e1:	48 8b 85 90 f3 ff ff 	mov    -0xc70(%rbp),%rax
    b1e8:	41 89 c6             	mov    %eax,%r14d
    b1eb:	0f b6 05 97 63 00 00 	movzbl 0x6397(%rip),%eax        # 11589 <g_162+0x1>
    b1f2:	83 e8 01             	sub    $0x1,%eax
    b1f5:	88 05 8e 63 00 00    	mov    %al,0x638e(%rip)        # 11589 <g_162+0x1>
    b1fb:	0f b6 05 87 63 00 00 	movzbl 0x6387(%rip),%eax        # 11589 <g_162+0x1>
    b202:	84 c0                	test   %al,%al
    b204:	0f 85 9b 00 00 00    	jne    b2a5 <func_63+0xfef>
    b20a:	0f b7 85 b4 f0 ff ff 	movzwl -0xf4c(%rbp),%eax
    b211:	4c 0f bf e0          	movswq %ax,%r12
    b215:	48 8b 85 78 f1 ff ff 	mov    -0xe88(%rbp),%rax
    b21c:	8b 10                	mov    (%rax),%edx
    b21e:	48 8b 05 93 5e 00 00 	mov    0x5e93(%rip),%rax        # 110b8 <g_106+0x38>
    b225:	89 85 ec f0 ff ff    	mov    %eax,-0xf14(%rbp)
    b22b:	0f b7 85 b4 f0 ff ff 	movzwl -0xf4c(%rbp),%eax
    b232:	98                   	cwtl   
    b233:	39 85 ec f0 ff ff    	cmp    %eax,-0xf14(%rbp)
    b239:	75 13                	jne    b24e <func_63+0xf98>
    b23b:	48 8b 05 5e 5e 00 00 	mov    0x5e5e(%rip),%rax        # 110a0 <g_106+0x20>
    b242:	48 85 c0             	test   %rax,%rax
    b245:	74 07                	je     b24e <func_63+0xf98>
    b247:	b8 01 00 00 00       	mov    $0x1,%eax
    b24c:	eb 05                	jmp    b253 <func_63+0xf9d>
    b24e:	b8 00 00 00 00       	mov    $0x0,%eax
    b253:	0f b6 c0             	movzbl %al,%eax
    b256:	89 d6                	mov    %edx,%esi
    b258:	89 c7                	mov    %eax,%edi
    b25a:	e8 2e 9a ff ff       	callq  4c8d <safe_rshift_func_uint8_t_u_s>
    b25f:	0f b6 c0             	movzbl %al,%eax
    b262:	4c 89 e6             	mov    %r12,%rsi
    b265:	48 89 c7             	mov    %rax,%rdi
    b268:	e8 d4 95 ff ff       	callq  4841 <safe_add_func_int64_t_s_s>
    b26d:	c7 85 a0 f1 ff ff 00 	movl   $0x0,-0xe60(%rbp)
    b274:	00 00 00 
    b277:	8b 85 a0 f1 ff ff    	mov    -0xe60(%rbp),%eax
    b27d:	85 c0                	test   %eax,%eax
    b27f:	74 13                	je     b294 <func_63+0xfde>
    b281:	0f b7 85 b4 f0 ff ff 	movzwl -0xf4c(%rbp),%eax
    b288:	66 85 c0             	test   %ax,%ax
    b28b:	74 07                	je     b294 <func_63+0xfde>
    b28d:	ba 01 00 00 00       	mov    $0x1,%edx
    b292:	eb 05                	jmp    b299 <func_63+0xfe3>
    b294:	ba 00 00 00 00       	mov    $0x0,%edx
    b299:	0f b7 85 b4 f0 ff ff 	movzwl -0xf4c(%rbp),%eax
    b2a0:	98                   	cwtl   
    b2a1:	39 c2                	cmp    %eax,%edx
    b2a3:	7f 07                	jg     b2ac <func_63+0xff6>
    b2a5:	b8 01 00 00 00       	mov    $0x1,%eax
    b2aa:	eb 05                	jmp    b2b1 <func_63+0xffb>
    b2ac:	b8 00 00 00 00       	mov    $0x0,%eax
    b2b1:	83 f8 06             	cmp    $0x6,%eax
    b2b4:	0f 9e c0             	setle  %al
    b2b7:	0f b6 d0             	movzbl %al,%edx
    b2ba:	48 8b 05 bf 62 00 00 	mov    0x62bf(%rip),%rax        # 11580 <g_161>
    b2c1:	48 39 c2             	cmp    %rax,%rdx
    b2c4:	0f 9f c0             	setg   %al
    b2c7:	0f b6 d0             	movzbl %al,%edx
    b2ca:	48 8b 85 b8 f0 ff ff 	mov    -0xf48(%rbp),%rax
    b2d1:	8b 00                	mov    (%rax),%eax
    b2d3:	39 c2                	cmp    %eax,%edx
    b2d5:	0f 95 c0             	setne  %al
    b2d8:	0f b6 c0             	movzbl %al,%eax
    b2db:	44 89 f6             	mov    %r14d,%esi
    b2de:	89 c7                	mov    %eax,%edi
    b2e0:	e8 d9 9a ff ff       	callq  4dbe <safe_lshift_func_uint16_t_u_s>
    b2e5:	89 de                	mov    %ebx,%esi
    b2e7:	bf 06 3d 00 00       	mov    $0x3d06,%edi
    b2ec:	e8 0e 9a ff ff       	callq  4cff <safe_add_func_uint16_t_u_u>
    b2f1:	be 08 00 00 00       	mov    $0x8,%esi
    b2f6:	bf 00 00 00 00       	mov    $0x0,%edi
    b2fb:	e8 d4 8e ff ff       	callq  41d4 <safe_add_func_int8_t_s_s>
    b300:	48 8b 05 c1 78 00 00 	mov    0x78c1(%rip),%rax        # 12bc8 <g_107>
    b307:	48 8b 00             	mov    (%rax),%rax
    b30a:	48 8b 85 28 f2 ff ff 	mov    -0xdd8(%rbp),%rax
    b311:	48 3b 85 b8 f0 ff ff 	cmp    -0xf48(%rbp),%rax
    b318:	74 07                	je     b321 <func_63+0x106b>
    b31a:	b8 01 00 00 00       	mov    $0x1,%eax
    b31f:	eb 05                	jmp    b326 <func_63+0x1070>
    b321:	b8 00 00 00 00       	mov    $0x0,%eax
    b326:	85 c0                	test   %eax,%eax
    b328:	0f 94 c0             	sete   %al
    b32b:	0f b6 c0             	movzbl %al,%eax
    b32e:	41 39 c5             	cmp    %eax,%r13d
    b331:	0f 9c c0             	setl   %al
    b334:	0f b6 c0             	movzbl %al,%eax
    b337:	39 85 4c f1 ff ff    	cmp    %eax,-0xeb4(%rbp)
    b33d:	0f 95 c0             	setne  %al
    b340:	0f b6 d0             	movzbl %al,%edx
    b343:	48 8b 05 6e 5d 00 00 	mov    0x5d6e(%rip),%rax        # 110b8 <g_106+0x38>
    b34a:	48 39 c2             	cmp    %rax,%rdx
    b34d:	0f 84 f6 03 00 00    	je     b749 <func_63+0x1493>
    b353:	48 8d 85 b0 f1 ff ff 	lea    -0xe50(%rbp),%rax
    b35a:	48 89 85 30 f4 ff ff 	mov    %rax,-0xbd0(%rbp)
    b361:	48 8d 85 b0 f1 ff ff 	lea    -0xe50(%rbp),%rax
    b368:	48 89 85 38 f4 ff ff 	mov    %rax,-0xbc8(%rbp)
    b36f:	48 8d 85 b0 f1 ff ff 	lea    -0xe50(%rbp),%rax
    b376:	48 89 85 40 f4 ff ff 	mov    %rax,-0xbc0(%rbp)
    b37d:	48 8d 85 b0 f1 ff ff 	lea    -0xe50(%rbp),%rax
    b384:	48 89 85 48 f4 ff ff 	mov    %rax,-0xbb8(%rbp)
    b38b:	48 8d 85 b0 f1 ff ff 	lea    -0xe50(%rbp),%rax
    b392:	48 89 85 50 f4 ff ff 	mov    %rax,-0xbb0(%rbp)
    b399:	48 8d 85 b0 f1 ff ff 	lea    -0xe50(%rbp),%rax
    b3a0:	48 89 85 58 f4 ff ff 	mov    %rax,-0xba8(%rbp)
    b3a7:	48 8d 85 b0 f1 ff ff 	lea    -0xe50(%rbp),%rax
    b3ae:	48 89 85 60 f4 ff ff 	mov    %rax,-0xba0(%rbp)
    b3b5:	48 8d 85 b0 f1 ff ff 	lea    -0xe50(%rbp),%rax
    b3bc:	48 89 85 68 f4 ff ff 	mov    %rax,-0xb98(%rbp)
    b3c3:	48 8d 85 b0 f1 ff ff 	lea    -0xe50(%rbp),%rax
    b3ca:	48 89 85 70 f4 ff ff 	mov    %rax,-0xb90(%rbp)
    b3d1:	48 c7 85 78 f4 ff ff 	movq   $0x0,-0xb88(%rbp)
    b3d8:	00 00 00 00 
    b3dc:	48 8d 85 78 f1 ff ff 	lea    -0xe88(%rbp),%rax
    b3e3:	48 89 85 80 f4 ff ff 	mov    %rax,-0xb80(%rbp)
    b3ea:	48 c7 85 88 f4 ff ff 	movq   $0x0,-0xb78(%rbp)
    b3f1:	00 00 00 00 
    b3f5:	48 8d 85 78 f1 ff ff 	lea    -0xe88(%rbp),%rax
    b3fc:	48 89 85 90 f4 ff ff 	mov    %rax,-0xb70(%rbp)
    b403:	48 c7 85 98 f4 ff ff 	movq   $0x0,-0xb68(%rbp)
    b40a:	00 00 00 00 
    b40e:	48 8d 85 78 f1 ff ff 	lea    -0xe88(%rbp),%rax
    b415:	48 89 85 a0 f4 ff ff 	mov    %rax,-0xb60(%rbp)
    b41c:	48 c7 85 a8 f4 ff ff 	movq   $0x0,-0xb58(%rbp)
    b423:	00 00 00 00 
    b427:	48 8d 85 78 f1 ff ff 	lea    -0xe88(%rbp),%rax
    b42e:	48 89 85 b0 f4 ff ff 	mov    %rax,-0xb50(%rbp)
    b435:	48 c7 85 b8 f4 ff ff 	movq   $0x0,-0xb48(%rbp)
    b43c:	00 00 00 00 
    b440:	48 8d 85 b0 f1 ff ff 	lea    -0xe50(%rbp),%rax
    b447:	48 89 85 c0 f4 ff ff 	mov    %rax,-0xb40(%rbp)
    b44e:	48 8d 85 b0 f1 ff ff 	lea    -0xe50(%rbp),%rax
    b455:	48 89 85 c8 f4 ff ff 	mov    %rax,-0xb38(%rbp)
    b45c:	48 8d 85 b0 f1 ff ff 	lea    -0xe50(%rbp),%rax
    b463:	48 89 85 d0 f4 ff ff 	mov    %rax,-0xb30(%rbp)
    b46a:	48 8d 85 b0 f1 ff ff 	lea    -0xe50(%rbp),%rax
    b471:	48 89 85 d8 f4 ff ff 	mov    %rax,-0xb28(%rbp)
    b478:	48 8d 85 b0 f1 ff ff 	lea    -0xe50(%rbp),%rax
    b47f:	48 89 85 e0 f4 ff ff 	mov    %rax,-0xb20(%rbp)
    b486:	48 8d 85 b0 f1 ff ff 	lea    -0xe50(%rbp),%rax
    b48d:	48 89 85 e8 f4 ff ff 	mov    %rax,-0xb18(%rbp)
    b494:	48 8d 85 b0 f1 ff ff 	lea    -0xe50(%rbp),%rax
    b49b:	48 89 85 f0 f4 ff ff 	mov    %rax,-0xb10(%rbp)
    b4a2:	48 8d 85 b0 f1 ff ff 	lea    -0xe50(%rbp),%rax
    b4a9:	48 89 85 f8 f4 ff ff 	mov    %rax,-0xb08(%rbp)
    b4b0:	48 8d 85 b0 f1 ff ff 	lea    -0xe50(%rbp),%rax
    b4b7:	48 89 85 00 f5 ff ff 	mov    %rax,-0xb00(%rbp)
    b4be:	48 c7 85 08 f5 ff ff 	movq   $0x0,-0xaf8(%rbp)
    b4c5:	00 00 00 00 
    b4c9:	48 8d 85 78 f1 ff ff 	lea    -0xe88(%rbp),%rax
    b4d0:	48 89 85 10 f5 ff ff 	mov    %rax,-0xaf0(%rbp)
    b4d7:	48 c7 85 18 f5 ff ff 	movq   $0x0,-0xae8(%rbp)
    b4de:	00 00 00 00 
    b4e2:	48 8d 85 78 f1 ff ff 	lea    -0xe88(%rbp),%rax
    b4e9:	48 89 85 20 f5 ff ff 	mov    %rax,-0xae0(%rbp)
    b4f0:	48 c7 85 28 f5 ff ff 	movq   $0x0,-0xad8(%rbp)
    b4f7:	00 00 00 00 
    b4fb:	48 8d 85 78 f1 ff ff 	lea    -0xe88(%rbp),%rax
    b502:	48 89 85 30 f5 ff ff 	mov    %rax,-0xad0(%rbp)
    b509:	48 c7 85 38 f5 ff ff 	movq   $0x0,-0xac8(%rbp)
    b510:	00 00 00 00 
    b514:	48 8d 85 78 f1 ff ff 	lea    -0xe88(%rbp),%rax
    b51b:	48 89 85 40 f5 ff ff 	mov    %rax,-0xac0(%rbp)
    b522:	48 c7 85 48 f5 ff ff 	movq   $0x0,-0xab8(%rbp)
    b529:	00 00 00 00 
    b52d:	48 8d 85 b0 f1 ff ff 	lea    -0xe50(%rbp),%rax
    b534:	48 89 85 50 f5 ff ff 	mov    %rax,-0xab0(%rbp)
    b53b:	48 8d 85 b0 f1 ff ff 	lea    -0xe50(%rbp),%rax
    b542:	48 89 85 58 f5 ff ff 	mov    %rax,-0xaa8(%rbp)
    b549:	48 8d 85 b0 f1 ff ff 	lea    -0xe50(%rbp),%rax
    b550:	48 89 85 60 f5 ff ff 	mov    %rax,-0xaa0(%rbp)
    b557:	48 8d 85 b0 f1 ff ff 	lea    -0xe50(%rbp),%rax
    b55e:	48 89 85 68 f5 ff ff 	mov    %rax,-0xa98(%rbp)
    b565:	48 8d 85 b0 f1 ff ff 	lea    -0xe50(%rbp),%rax
    b56c:	48 89 85 70 f5 ff ff 	mov    %rax,-0xa90(%rbp)
    b573:	48 8d 85 b0 f1 ff ff 	lea    -0xe50(%rbp),%rax
    b57a:	48 89 85 78 f5 ff ff 	mov    %rax,-0xa88(%rbp)
    b581:	48 8d 85 b0 f1 ff ff 	lea    -0xe50(%rbp),%rax
    b588:	48 89 85 80 f5 ff ff 	mov    %rax,-0xa80(%rbp)
    b58f:	48 8d 85 b0 f1 ff ff 	lea    -0xe50(%rbp),%rax
    b596:	48 89 85 88 f5 ff ff 	mov    %rax,-0xa78(%rbp)
    b59d:	48 8d 85 b0 f1 ff ff 	lea    -0xe50(%rbp),%rax
    b5a4:	48 89 85 90 f5 ff ff 	mov    %rax,-0xa70(%rbp)
    b5ab:	48 c7 85 98 f5 ff ff 	movq   $0x0,-0xa68(%rbp)
    b5b2:	00 00 00 00 
    b5b6:	48 8d 85 78 f1 ff ff 	lea    -0xe88(%rbp),%rax
    b5bd:	48 89 85 a0 f5 ff ff 	mov    %rax,-0xa60(%rbp)
    b5c4:	48 c7 85 a8 f5 ff ff 	movq   $0x0,-0xa58(%rbp)
    b5cb:	00 00 00 00 
    b5cf:	48 8d 85 78 f1 ff ff 	lea    -0xe88(%rbp),%rax
    b5d6:	48 89 85 b0 f5 ff ff 	mov    %rax,-0xa50(%rbp)
    b5dd:	48 c7 85 b8 f5 ff ff 	movq   $0x0,-0xa48(%rbp)
    b5e4:	00 00 00 00 
    b5e8:	48 8d 85 78 f1 ff ff 	lea    -0xe88(%rbp),%rax
    b5ef:	48 89 85 c0 f5 ff ff 	mov    %rax,-0xa40(%rbp)
    b5f6:	48 c7 85 c8 f5 ff ff 	movq   $0x0,-0xa38(%rbp)
    b5fd:	00 00 00 00 
    b601:	48 8d 85 78 f1 ff ff 	lea    -0xe88(%rbp),%rax
    b608:	48 89 85 d0 f5 ff ff 	mov    %rax,-0xa30(%rbp)
    b60f:	48 c7 85 d8 f5 ff ff 	movq   $0x0,-0xa28(%rbp)
    b616:	00 00 00 00 
    b61a:	48 8d 85 b0 f1 ff ff 	lea    -0xe50(%rbp),%rax
    b621:	48 89 85 e0 f5 ff ff 	mov    %rax,-0xa20(%rbp)
    b628:	48 8d 85 b0 f1 ff ff 	lea    -0xe50(%rbp),%rax
    b62f:	48 89 85 e8 f5 ff ff 	mov    %rax,-0xa18(%rbp)
    b636:	48 8d 85 b0 f1 ff ff 	lea    -0xe50(%rbp),%rax
    b63d:	48 89 85 f0 f5 ff ff 	mov    %rax,-0xa10(%rbp)
    b644:	48 8d 85 b0 f1 ff ff 	lea    -0xe50(%rbp),%rax
    b64b:	48 89 85 f8 f5 ff ff 	mov    %rax,-0xa08(%rbp)
    b652:	48 8d 85 b0 f1 ff ff 	lea    -0xe50(%rbp),%rax
    b659:	48 89 85 00 f6 ff ff 	mov    %rax,-0xa00(%rbp)
    b660:	48 8d 85 b0 f1 ff ff 	lea    -0xe50(%rbp),%rax
    b667:	48 89 85 08 f6 ff ff 	mov    %rax,-0x9f8(%rbp)
    b66e:	48 8d 85 b0 f1 ff ff 	lea    -0xe50(%rbp),%rax
    b675:	48 89 85 10 f6 ff ff 	mov    %rax,-0x9f0(%rbp)
    b67c:	48 8d 85 b0 f1 ff ff 	lea    -0xe50(%rbp),%rax
    b683:	48 89 85 18 f6 ff ff 	mov    %rax,-0x9e8(%rbp)
    b68a:	48 8d 85 b0 f1 ff ff 	lea    -0xe50(%rbp),%rax
    b691:	48 89 85 20 f6 ff ff 	mov    %rax,-0x9e0(%rbp)
    b698:	48 c7 85 28 f6 ff ff 	movq   $0x0,-0x9d8(%rbp)
    b69f:	00 00 00 00 
    b6a3:	48 8d 85 78 f1 ff ff 	lea    -0xe88(%rbp),%rax
    b6aa:	48 89 85 30 f6 ff ff 	mov    %rax,-0x9d0(%rbp)
    b6b1:	48 c7 85 38 f6 ff ff 	movq   $0x0,-0x9c8(%rbp)
    b6b8:	00 00 00 00 
    b6bc:	48 8d 85 78 f1 ff ff 	lea    -0xe88(%rbp),%rax
    b6c3:	48 89 85 40 f6 ff ff 	mov    %rax,-0x9c0(%rbp)
    b6ca:	48 c7 85 48 f6 ff ff 	movq   $0x0,-0x9b8(%rbp)
    b6d1:	00 00 00 00 
    b6d5:	48 8d 85 78 f1 ff ff 	lea    -0xe88(%rbp),%rax
    b6dc:	48 89 85 50 f6 ff ff 	mov    %rax,-0x9b0(%rbp)
    b6e3:	48 c7 85 58 f6 ff ff 	movq   $0x0,-0x9a8(%rbp)
    b6ea:	00 00 00 00 
    b6ee:	48 8d 85 78 f1 ff ff 	lea    -0xe88(%rbp),%rax
    b6f5:	48 89 85 60 f6 ff ff 	mov    %rax,-0x9a0(%rbp)
    b6fc:	48 c7 85 68 f6 ff ff 	movq   $0x0,-0x998(%rbp)
    b703:	00 00 00 00 
    b707:	48 8b 05 c2 74 00 00 	mov    0x74c2(%rip),%rax        # 12bd0 <g_173>
    b70e:	48 8d 15 17 59 00 00 	lea    0x5917(%rip),%rdx        # 1102c <g_49>
    b715:	48 89 10             	mov    %rdx,(%rax)
    b718:	48 8b 05 a1 74 00 00 	mov    0x74a1(%rip),%rax        # 12bc0 <g_48>
    b71f:	8b 00                	mov    (%rax),%eax
    b721:	85 c0                	test   %eax,%eax
    b723:	0f 85 d8 06 00 00    	jne    be01 <func_63+0x1b4b>
    b729:	83 bd ec f0 ff ff 00 	cmpl   $0x0,-0xf14(%rbp)
    b730:	0f 85 a4 06 00 00    	jne    bdda <func_63+0x1b24>
    b736:	48 8b 85 78 f1 ff ff 	mov    -0xe88(%rbp),%rax
    b73d:	48 89 85 78 f1 ff ff 	mov    %rax,-0xe88(%rbp)
    b744:	e9 22 02 00 00       	jmpq   b96b <func_63+0x16b5>
    b749:	48 8d 85 a0 f1 ff ff 	lea    -0xe60(%rbp),%rax
    b750:	48 89 85 48 f2 ff ff 	mov    %rax,-0xdb8(%rbp)
    b757:	48 8d 05 12 7d 00 00 	lea    0x7d12(%rip),%rax        # 13470 <g_174>
    b75e:	48 89 85 50 f2 ff ff 	mov    %rax,-0xdb0(%rbp)
    b765:	48 8d 85 a8 f1 ff ff 	lea    -0xe58(%rbp),%rax
    b76c:	48 89 85 58 f2 ff ff 	mov    %rax,-0xda8(%rbp)
    b773:	c6 85 c1 f0 ff ff 00 	movb   $0x0,-0xf3f(%rbp)
    b77a:	48 8d 85 e4 f0 ff ff 	lea    -0xf1c(%rbp),%rax
    b781:	48 89 85 60 f2 ff ff 	mov    %rax,-0xda0(%rbp)
    b788:	48 8b 85 78 f1 ff ff 	mov    -0xe88(%rbp),%rax
    b78f:	c7 00 01 00 00 00    	movl   $0x1,(%rax)
    b795:	8b 10                	mov    (%rax),%edx
    b797:	48 8b 85 48 f2 ff ff 	mov    -0xdb8(%rbp),%rax
    b79e:	89 10                	mov    %edx,(%rax)
    b7a0:	48 8b 95 b0 f1 ff ff 	mov    -0xe50(%rbp),%rdx
    b7a7:	48 8b 85 50 f2 ff ff 	mov    -0xdb0(%rbp),%rax
    b7ae:	48 89 10             	mov    %rdx,(%rax)
    b7b1:	48 8b 85 b0 f1 ff ff 	mov    -0xe50(%rbp),%rax
    b7b8:	8b 00                	mov    (%rax),%eax
    b7ba:	0f b6 d8             	movzbl %al,%ebx
    b7bd:	44 0f bf a5 c6 f0 ff 	movswl -0xf3a(%rbp),%r12d
    b7c4:	ff 
    b7c5:	0f b7 05 64 58 00 00 	movzwl 0x5864(%rip),%eax        # 11030 <g_84>
    b7cc:	8d 50 01             	lea    0x1(%rax),%edx
    b7cf:	66 89 15 5a 58 00 00 	mov    %dx,0x585a(%rip)        # 11030 <g_84>
    b7d6:	0f b7 c0             	movzwl %ax,%eax
    b7d9:	be ca 3d 00 00       	mov    $0x3dca,%esi
    b7de:	89 c7                	mov    %eax,%edi
    b7e0:	e8 77 95 ff ff       	callq  4d5c <safe_mod_func_uint16_t_u_u>
    b7e5:	66 85 c0             	test   %ax,%ax
    b7e8:	0f 85 94 00 00 00    	jne    b882 <func_63+0x15cc>
    b7ee:	be 06 00 00 00       	mov    $0x6,%esi
    b7f3:	bf 67 00 00 00       	mov    $0x67,%edi
    b7f8:	e8 a4 8a ff ff       	callq  42a1 <safe_lshift_func_int8_t_s_s>
    b7fd:	0f be c0             	movsbl %al,%eax
    b800:	89 c7                	mov    %eax,%edi
    b802:	e8 8f 8d ff ff       	callq  4596 <safe_unary_minus_func_int32_t_s>
    b807:	48 ba 72 f4 10 4e 2a 	movabs $0xbfacf2a4e10f472,%rdx
    b80e:	cf fa 0b 
    b811:	48 8b 85 20 f2 ff ff 	mov    -0xde0(%rbp),%rax
    b818:	48 8b 00             	mov    (%rax),%rax
    b81b:	48 09 c2             	or     %rax,%rdx
    b81e:	48 8b 85 20 f2 ff ff 	mov    -0xde0(%rbp),%rax
    b825:	48 89 10             	mov    %rdx,(%rax)
    b828:	48 8b 85 20 f2 ff ff 	mov    -0xde0(%rbp),%rax
    b82f:	48 8b 10             	mov    (%rax),%rdx
    b832:	48 8b 05 47 5d 00 00 	mov    0x5d47(%rip),%rax        # 11580 <g_161>
    b839:	48 21 d0             	and    %rdx,%rax
    b83c:	48 89 05 3d 5d 00 00 	mov    %rax,0x5d3d(%rip)        # 11580 <g_161>
    b843:	48 8b 15 36 5d 00 00 	mov    0x5d36(%rip),%rdx        # 11580 <g_161>
    b84a:	0f b7 05 0f 58 00 00 	movzwl 0x580f(%rip),%eax        # 11060 <g_104>
    b851:	48 0f bf c0          	movswq %ax,%rax
    b855:	48 39 c2             	cmp    %rax,%rdx
    b858:	0f 94 c0             	sete   %al
    b85b:	0f b6 d0             	movzbl %al,%edx
    b85e:	0f b6 05 e9 57 00 00 	movzbl 0x57e9(%rip),%eax        # 1104e <g_92+0xe>
    b865:	66 98                	cbtw   
    b867:	0f b7 c0             	movzwl %ax,%eax
    b86a:	89 d6                	mov    %edx,%esi
    b86c:	89 c7                	mov    %eax,%edi
    b86e:	e8 ac 94 ff ff       	callq  4d1f <safe_sub_func_uint16_t_u_u>
    b873:	48 8b 05 56 73 00 00 	mov    0x7356(%rip),%rax        # 12bd0 <g_173>
    b87a:	48 8b 00             	mov    (%rax),%rax
    b87d:	8b 00                	mov    (%rax),%eax
    b87f:	83 f8 03             	cmp    $0x3,%eax
    b882:	be 0f 00 00 00       	mov    $0xf,%esi
    b887:	bf 00 00 00 00       	mov    $0x0,%edi
    b88c:	e8 d2 8c ff ff       	callq  4563 <safe_rshift_func_int16_t_s_u>
    b891:	98                   	cwtl   
    b892:	be 0c 00 00 00       	mov    $0xc,%esi
    b897:	89 c7                	mov    %eax,%edi
    b899:	e8 f4 8b ff ff       	callq  4492 <safe_lshift_func_int16_t_s_s>
    b89e:	0f b7 95 b4 f0 ff ff 	movzwl -0xf4c(%rbp),%edx
    b8a5:	21 d0                	and    %edx,%eax
    b8a7:	48 0f bf d0          	movswq %ax,%rdx
    b8ab:	48 8b 05 46 58 00 00 	mov    0x5846(%rip),%rax        # 110f8 <g_134+0x18>
    b8b2:	48 39 c2             	cmp    %rax,%rdx
    b8b5:	0f 93 c0             	setae  %al
    b8b8:	0f b6 c0             	movzbl %al,%eax
    b8bb:	44 89 e6             	mov    %r12d,%esi
    b8be:	89 c7                	mov    %eax,%edi
    b8c0:	e8 40 93 ff ff       	callq  4c05 <safe_lshift_func_uint8_t_u_s>
    b8c5:	0f b6 c0             	movzbl %al,%eax
    b8c8:	89 de                	mov    %ebx,%esi
    b8ca:	89 c7                	mov    %eax,%edi
    b8cc:	e8 89 92 ff ff       	callq  4b5a <safe_add_func_uint8_t_u_u>
    b8d1:	0f b6 d0             	movzbl %al,%edx
    b8d4:	0f b7 85 b4 f0 ff ff 	movzwl -0xf4c(%rbp),%eax
    b8db:	98                   	cwtl   
    b8dc:	39 c2                	cmp    %eax,%edx
    b8de:	0f 9d c0             	setge  %al
    b8e1:	0f b6 d0             	movzbl %al,%edx
    b8e4:	48 8b 85 48 f2 ff ff 	mov    -0xdb8(%rbp),%rax
    b8eb:	8b 00                	mov    (%rax),%eax
    b8ed:	21 c2                	and    %eax,%edx
    b8ef:	48 8b 85 48 f2 ff ff 	mov    -0xdb8(%rbp),%rax
    b8f6:	89 10                	mov    %edx,(%rax)
    b8f8:	48 8d 85 e4 f0 ff ff 	lea    -0xf1c(%rbp),%rax
    b8ff:	48 39 85 60 f2 ff ff 	cmp    %rax,-0xda0(%rbp)
    b906:	0f 95 c0             	setne  %al
    b909:	0f b6 d0             	movzbl %al,%edx
    b90c:	48 8b 85 58 f2 ff ff 	mov    -0xda8(%rbp),%rax
    b913:	48 c7 00 00 00 00 00 	movq   $0x0,(%rax)
    b91a:	48 8b 85 58 f2 ff ff 	mov    -0xda8(%rbp),%rax
    b921:	48 8b 00             	mov    (%rax),%rax
    b924:	48 85 c0             	test   %rax,%rax
    b927:	0f 94 c0             	sete   %al
    b92a:	88 05 16 57 00 00    	mov    %al,0x5716(%rip)        # 11046 <g_92+0x6>
    b930:	0f b6 05 0f 57 00 00 	movzbl 0x570f(%rip),%eax        # 11046 <g_92+0x6>
    b937:	0f be c0             	movsbl %al,%eax
    b93a:	89 d6                	mov    %edx,%esi
    b93c:	89 c7                	mov    %eax,%edi
    b93e:	e8 af 88 ff ff       	callq  41f2 <safe_sub_func_int8_t_s_s>
    b943:	48 8b 95 78 f1 ff ff 	mov    -0xe88(%rbp),%rdx
    b94a:	8b 0a                	mov    (%rdx),%ecx
    b94c:	0f be d0             	movsbl %al,%edx
    b94f:	48 8b 85 78 f1 ff ff 	mov    -0xe88(%rbp),%rax
    b956:	21 ca                	and    %ecx,%edx
    b958:	89 10                	mov    %edx,(%rax)
    b95a:	eb 0f                	jmp    b96b <func_63+0x16b5>
    b95c:	48 8b 05 6d 72 00 00 	mov    0x726d(%rip),%rax        # 12bd0 <g_173>
    b963:	48 8b 00             	mov    (%rax),%rax
    b966:	e9 73 1b 00 00       	jmpq   d4de <func_63+0x3228>
    b96b:	48 c7 05 52 57 00 00 	movq   $0x0,0x5752(%rip)        # 110c8 <g_110>
    b972:	00 00 00 00 
    b976:	e9 3b 01 00 00       	jmpq   bab6 <func_63+0x1800>
    b97b:	c7 85 58 f1 ff ff 05 	movl   $0x5,-0xea8(%rbp)
    b982:	00 00 00 
    b985:	c7 85 d0 f0 ff ff 00 	movl   $0x0,-0xf30(%rbp)
    b98c:	00 00 00 
    b98f:	eb 1d                	jmp    b9ae <func_63+0x16f8>
    b991:	48 8b 05 70 72 00 00 	mov    0x7270(%rip),%rax        # 12c08 <g_203+0x28>
    b998:	48 89 05 69 72 00 00 	mov    %rax,0x7269(%rip)        # 12c08 <g_203+0x28>
    b99f:	8b 85 d0 f0 ff ff    	mov    -0xf30(%rbp),%eax
    b9a5:	83 c0 01             	add    $0x1,%eax
    b9a8:	89 85 d0 f0 ff ff    	mov    %eax,-0xf30(%rbp)
    b9ae:	8b 85 d0 f0 ff ff    	mov    -0xf30(%rbp),%eax
    b9b4:	85 c0                	test   %eax,%eax
    b9b6:	74 d9                	je     b991 <func_63+0x16db>
    b9b8:	48 8b 05 c1 72 00 00 	mov    0x72c1(%rip),%rax        # 12c80 <g_213>
    b9bf:	48 8b 95 78 f1 ff ff 	mov    -0xe88(%rbp),%rdx
    b9c6:	48 89 10             	mov    %rdx,(%rax)
    b9c9:	48 8b 15 b0 72 00 00 	mov    0x72b0(%rip),%rdx        # 12c80 <g_213>
    b9d0:	48 8b 05 b1 72 00 00 	mov    0x72b1(%rip),%rax        # 12c88 <g_214>
    b9d7:	48 8b 12             	mov    (%rdx),%rdx
    b9da:	48 89 10             	mov    %rdx,(%rax)
    b9dd:	66 c7 05 7a 56 00 00 	movw   $0x0,0x567a(%rip)        # 11060 <g_104>
    b9e4:	00 00 
    b9e6:	e9 9b 00 00 00       	jmpq   ba86 <func_63+0x17d0>
    b9eb:	c6 85 c2 f0 ff ff f6 	movb   $0xf6,-0xf3e(%rbp)
    b9f2:	48 8b 05 cf 71 00 00 	mov    0x71cf(%rip),%rax        # 12bc8 <g_107>
    b9f9:	48 8b 18             	mov    (%rax),%rbx
    b9fc:	48 8b 15 d5 71 00 00 	mov    0x71d5(%rip),%rdx        # 12bd8 <g_204>
    ba03:	0f b7 02             	movzwl (%rdx),%eax
    ba06:	8d 48 ff             	lea    -0x1(%rax),%ecx
    ba09:	66 89 0a             	mov    %cx,(%rdx)
    ba0c:	66 85 c0             	test   %ax,%ax
    ba0f:	0f 94 c0             	sete   %al
    ba12:	44 0f b6 e0          	movzbl %al,%r12d
    ba16:	48 8b 85 00 f2 ff ff 	mov    -0xe00(%rbp),%rax
    ba1d:	41 89 c5             	mov    %eax,%r13d
    ba20:	8b 85 4c f1 ff ff    	mov    -0xeb4(%rbp),%eax
    ba26:	89 c6                	mov    %eax,%esi
    ba28:	bf 01 00 00 00       	mov    $0x1,%edi
    ba2d:	e8 cb 94 ff ff       	callq  4efd <safe_mod_func_uint32_t_u_u>
    ba32:	0f be c0             	movsbl %al,%eax
    ba35:	44 89 ee             	mov    %r13d,%esi
    ba38:	89 c7                	mov    %eax,%edi
    ba3a:	e8 2d 89 ff ff       	callq  436c <safe_rshift_func_int8_t_s_u>
    ba3f:	0f be c0             	movsbl %al,%eax
    ba42:	41 39 c4             	cmp    %eax,%r12d
    ba45:	0f 9f c0             	setg   %al
    ba48:	0f b6 c0             	movzbl %al,%eax
    ba4b:	48 39 c3             	cmp    %rax,%rbx
    ba4e:	0f 9c c2             	setl   %dl
    ba51:	48 8b 85 78 f1 ff ff 	mov    -0xe88(%rbp),%rax
    ba58:	0f b6 d2             	movzbl %dl,%edx
    ba5b:	89 10                	mov    %edx,(%rax)
    ba5d:	8b 00                	mov    (%rax),%eax
    ba5f:	88 85 c2 f0 ff ff    	mov    %al,-0xf3e(%rbp)
    ba65:	0f b6 05 fc 79 00 00 	movzbl 0x79fc(%rip),%eax        # 13468 <g_5>
    ba6c:	84 c0                	test   %al,%al
    ba6e:	74 05                	je     ba75 <func_63+0x17bf>
    ba70:	e9 26 f0 ff ff       	jmpq   aa9b <func_63+0x7e5>
    ba75:	0f b7 05 e4 55 00 00 	movzwl 0x55e4(%rip),%eax        # 11060 <g_104>
    ba7c:	83 c0 01             	add    $0x1,%eax
    ba7f:	66 89 05 da 55 00 00 	mov    %ax,0x55da(%rip)        # 11060 <g_104>
    ba86:	0f b7 05 d3 55 00 00 	movzwl 0x55d3(%rip),%eax        # 11060 <g_104>
    ba8d:	66 83 f8 0b          	cmp    $0xb,%ax
    ba91:	0f 84 54 ff ff ff    	je     b9eb <func_63+0x1735>
    ba97:	48 8b 05 2a 56 00 00 	mov    0x562a(%rip),%rax        # 110c8 <g_110>
    ba9e:	98                   	cwtl   
    ba9f:	be 03 00 00 00       	mov    $0x3,%esi
    baa4:	89 c7                	mov    %eax,%edi
    baa6:	e8 08 89 ff ff       	callq  43b3 <safe_add_func_int16_t_s_s>
    baab:	48 0f bf c0          	movswq %ax,%rax
    baaf:	48 89 05 12 56 00 00 	mov    %rax,0x5612(%rip)        # 110c8 <g_110>
    bab6:	48 8b 05 0b 56 00 00 	mov    0x560b(%rip),%rax        # 110c8 <g_110>
    babd:	48 83 f8 11          	cmp    $0x11,%rax
    bac1:	0f 84 b4 fe ff ff    	je     b97b <func_63+0x16c5>
    bac7:	0f b7 85 b4 f0 ff ff 	movzwl -0xf4c(%rbp),%eax
    bace:	0f bf d8             	movswl %ax,%ebx
    bad1:	0f b7 85 b4 f0 ff ff 	movzwl -0xf4c(%rbp),%eax
    bad8:	44 0f b7 e0          	movzwl %ax,%r12d
    badc:	0f b7 85 b4 f0 ff ff 	movzwl -0xf4c(%rbp),%eax
    bae3:	44 0f bf e8          	movswl %ax,%r13d
    bae7:	0f b7 85 b4 f0 ff ff 	movzwl -0xf4c(%rbp),%eax
    baee:	44 0f b6 f0          	movzbl %al,%r14d
    baf2:	0f b7 85 b4 f0 ff ff 	movzwl -0xf4c(%rbp),%eax
    baf9:	44 0f bf f8          	movswl %ax,%r15d
    bafd:	0f b7 85 b4 f0 ff ff 	movzwl -0xf4c(%rbp),%eax
    bb04:	98                   	cwtl   
    bb05:	89 85 b0 f0 ff ff    	mov    %eax,-0xf50(%rbp)
    bb0b:	8b 85 54 f1 ff ff    	mov    -0xeac(%rbp),%eax
    bb11:	89 85 ac f0 ff ff    	mov    %eax,-0xf54(%rbp)
    bb17:	0f b7 85 b4 f0 ff ff 	movzwl -0xf4c(%rbp),%eax
    bb1e:	66 85 c0             	test   %ax,%ax
    bb21:	0f 85 d7 00 00 00    	jne    bbfe <func_63+0x1948>
    bb27:	8b 85 e8 f0 ff ff    	mov    -0xf18(%rbp),%eax
    bb2d:	0f b7 c0             	movzwl %ax,%eax
    bb30:	89 85 a8 f0 ff ff    	mov    %eax,-0xf58(%rbp)
    bb36:	48 8b 85 18 f2 ff ff 	mov    -0xde8(%rbp),%rax
    bb3d:	48 89 85 b8 f1 ff ff 	mov    %rax,-0xe48(%rbp)
    bb44:	48 83 bd b8 f1 ff ff 	cmpq   $0x0,-0xe48(%rbp)
    bb4b:	00 
    bb4c:	74 5c                	je     bbaa <func_63+0x18f4>
    bb4e:	8b 85 e8 f0 ff ff    	mov    -0xf18(%rbp),%eax
    bb54:	0f b6 c0             	movzbl %al,%eax
    bb57:	89 85 a4 f0 ff ff    	mov    %eax,-0xf5c(%rbp)
    bb5d:	0f b6 05 e2 54 00 00 	movzbl 0x54e2(%rip),%eax        # 11046 <g_92+0x6>
    bb64:	0f b6 d0             	movzbl %al,%edx
    bb67:	0f b7 85 b4 f0 ff ff 	movzwl -0xf4c(%rbp),%eax
    bb6e:	34 ff                	xor    $0xff,%al
    bb70:	98                   	cwtl   
    bb71:	89 85 4c f1 ff ff    	mov    %eax,-0xeb4(%rbp)
    bb77:	8b 85 4c f1 ff ff    	mov    -0xeb4(%rbp),%eax
    bb7d:	0f b6 c0             	movzbl %al,%eax
    bb80:	89 d6                	mov    %edx,%esi
    bb82:	89 c7                	mov    %eax,%edi
    bb84:	e8 0a 90 ff ff       	callq  4b93 <safe_mul_func_uint8_t_u_u>
    bb89:	0f b6 c0             	movzbl %al,%eax
    bb8c:	89 85 50 f1 ff ff    	mov    %eax,-0xeb0(%rbp)
    bb92:	8b 85 50 f1 ff ff    	mov    -0xeb0(%rbp),%eax
    bb98:	0f b6 c0             	movzbl %al,%eax
    bb9b:	8b b5 a4 f0 ff ff    	mov    -0xf5c(%rbp),%esi
    bba1:	89 c7                	mov    %eax,%edi
    bba3:	e8 eb 8f ff ff       	callq  4b93 <safe_mul_func_uint8_t_u_u>
    bba8:	84 c0                	test   %al,%al
    bbaa:	48 8b 85 80 f1 ff ff 	mov    -0xe80(%rbp),%rax
    bbb1:	48 39 85 30 f2 ff ff 	cmp    %rax,-0xdd0(%rbp)
    bbb8:	0f 94 c0             	sete   %al
    bbbb:	0f b6 c8             	movzbl %al,%ecx
    bbbe:	48 8b 85 78 f1 ff ff 	mov    -0xe88(%rbp),%rax
    bbc5:	8b 10                	mov    (%rax),%edx
    bbc7:	48 8b 85 78 f1 ff ff 	mov    -0xe88(%rbp),%rax
    bbce:	21 ca                	and    %ecx,%edx
    bbd0:	89 10                	mov    %edx,(%rax)
    bbd2:	8b 00                	mov    (%rax),%eax
    bbd4:	0f b7 c0             	movzwl %ax,%eax
    bbd7:	8b b5 a8 f0 ff ff    	mov    -0xf58(%rbp),%esi
    bbdd:	89 c7                	mov    %eax,%edi
    bbdf:	e8 1b 91 ff ff       	callq  4cff <safe_add_func_uint16_t_u_u>
    bbe4:	0f b7 c0             	movzwl %ax,%eax
    bbe7:	48 89 c6             	mov    %rax,%rsi
    bbea:	48 bf b7 bd b5 f7 fb 	movabs $0x9e90acfbf7b5bdb7,%rdi
    bbf1:	ac 90 9e 
    bbf4:	e8 fe 8d ff ff       	callq  49f7 <safe_div_func_int64_t_s_s>
    bbf9:	48 85 c0             	test   %rax,%rax
    bbfc:	74 07                	je     bc05 <func_63+0x194f>
    bbfe:	ba 01 00 00 00       	mov    $0x1,%edx
    bc03:	eb 05                	jmp    bc0a <func_63+0x1954>
    bc05:	ba 00 00 00 00       	mov    $0x0,%edx
    bc0a:	48 8b 05 c7 6f 00 00 	mov    0x6fc7(%rip),%rax        # 12bd8 <g_204>
    bc11:	66 89 10             	mov    %dx,(%rax)
    bc14:	0f b7 85 b4 f0 ff ff 	movzwl -0xf4c(%rbp),%eax
    bc1b:	66 85 c0             	test   %ax,%ax
    bc1e:	74 0c                	je     bc2c <func_63+0x1976>
    bc20:	0f b7 85 b4 f0 ff ff 	movzwl -0xf4c(%rbp),%eax
    bc27:	66 85 c0             	test   %ax,%ax
    bc2a:	75 0b                	jne    bc37 <func_63+0x1981>
    bc2c:	0f b6 05 ff 53 00 00 	movzbl 0x53ff(%rip),%eax        # 11032 <g_90>
    bc33:	84 c0                	test   %al,%al
    bc35:	74 07                	je     bc3e <func_63+0x1988>
    bc37:	b8 01 00 00 00       	mov    $0x1,%eax
    bc3c:	eb 05                	jmp    bc43 <func_63+0x198d>
    bc3e:	b8 00 00 00 00       	mov    $0x0,%eax
    bc43:	8b b5 ac f0 ff ff    	mov    -0xf54(%rbp),%esi
    bc49:	89 c7                	mov    %eax,%edi
    bc4b:	e8 68 92 ff ff       	callq  4eb8 <safe_add_func_uint32_t_u_u>
    bc50:	98                   	cwtl   
    bc51:	8b b5 b0 f0 ff ff    	mov    -0xf50(%rbp),%esi
    bc57:	89 c7                	mov    %eax,%edi
    bc59:	e8 97 87 ff ff       	callq  43f5 <safe_mul_func_int16_t_s_s>
    bc5e:	66 83 f8 01          	cmp    $0x1,%ax
    bc62:	0f 94 c0             	sete   %al
    bc65:	0f b6 c0             	movzbl %al,%eax
    bc68:	44 89 fe             	mov    %r15d,%esi
    bc6b:	89 c7                	mov    %eax,%edi
    bc6d:	e8 4c 91 ff ff       	callq  4dbe <safe_lshift_func_uint16_t_u_s>
    bc72:	0f b6 c0             	movzbl %al,%eax
    bc75:	44 89 f6             	mov    %r14d,%esi
    bc78:	89 c7                	mov    %eax,%edi
    bc7a:	e8 2f 8f ff ff       	callq  4bae <safe_mod_func_uint8_t_u_u>
    bc7f:	44 89 ee             	mov    %r13d,%esi
    bc82:	bf 00 00 00 00       	mov    $0x0,%edi
    bc87:	e8 79 8f ff ff       	callq  4c05 <safe_lshift_func_uint8_t_u_s>
    bc8c:	0f b6 d0             	movzbl %al,%edx
    bc8f:	48 8b 05 22 54 00 00 	mov    0x5422(%rip),%rax        # 110b8 <g_106+0x38>
    bc96:	48 39 c2             	cmp    %rax,%rdx
    bc99:	0f 95 c0             	setne  %al
    bc9c:	0f b6 c0             	movzbl %al,%eax
    bc9f:	44 89 e6             	mov    %r12d,%esi
    bca2:	89 c7                	mov    %eax,%edi
    bca4:	e8 e5 90 ff ff       	callq  4d8e <safe_div_func_uint16_t_u_u>
    bca9:	0f b7 c0             	movzwl %ax,%eax
    bcac:	89 de                	mov    %ebx,%esi
    bcae:	89 c7                	mov    %eax,%edi
    bcb0:	e8 1b 92 ff ff       	callq  4ed0 <safe_sub_func_uint32_t_u_u>
    bcb5:	48 8b 95 38 f2 ff ff 	mov    -0xdc8(%rbp),%rdx
    bcbc:	8b 12                	mov    (%rdx),%edx
    bcbe:	09 d0                	or     %edx,%eax
    bcc0:	89 c2                	mov    %eax,%edx
    bcc2:	48 8b 85 38 f2 ff ff 	mov    -0xdc8(%rbp),%rax
    bcc9:	89 10                	mov    %edx,(%rax)
    bccb:	e9 0a 01 00 00       	jmpq   bdda <func_63+0x1b24>
    bcd0:	48 c7 85 08 f2 ff ff 	movq   $0x0,-0xdf8(%rbp)
    bcd7:	00 00 00 00 
    bcdb:	c7 85 44 f1 ff ff aa 	movl   $0x76b1bdaa,-0xebc(%rbp)
    bce2:	bd b1 76 
    bce5:	48 c7 05 90 58 00 00 	movq   $0x0,0x5890(%rip)        # 11580 <g_161>
    bcec:	00 00 00 00 
    bcf0:	e9 d4 00 00 00       	jmpq   bdc9 <func_63+0x1b13>
    bcf5:	c7 85 f0 f0 ff ff 00 	movl   $0x0,-0xf10(%rbp)
    bcfc:	00 00 00 
    bcff:	e9 8c 00 00 00       	jmpq   bd90 <func_63+0x1ada>
    bd04:	c7 85 f4 f0 ff ff 00 	movl   $0x0,-0xf0c(%rbp)
    bd0b:	00 00 00 
    bd0e:	eb 70                	jmp    bd80 <func_63+0x1aca>
    bd10:	c7 85 f8 f0 ff ff 00 	movl   $0x0,-0xf08(%rbp)
    bd17:	00 00 00 
    bd1a:	eb 54                	jmp    bd70 <func_63+0x1aba>
    bd1c:	8b 85 f8 f0 ff ff    	mov    -0xf08(%rbp),%eax
    bd22:	48 63 f0             	movslq %eax,%rsi
    bd25:	8b 85 f0 f0 ff ff    	mov    -0xf10(%rbp),%eax
    bd2b:	48 63 d0             	movslq %eax,%rdx
    bd2e:	8b 85 f4 f0 ff ff    	mov    -0xf0c(%rbp),%eax
    bd34:	48 63 c8             	movslq %eax,%rcx
    bd37:	48 89 d0             	mov    %rdx,%rax
    bd3a:	48 01 c0             	add    %rax,%rax
    bd3d:	48 01 d0             	add    %rdx,%rax
    bd40:	48 8d 14 c5 00 00 00 	lea    0x0(,%rax,8),%rdx
    bd47:	00 
    bd48:	48 01 d0             	add    %rdx,%rax
    bd4b:	48 89 ca             	mov    %rcx,%rdx
    bd4e:	48 01 d2             	add    %rdx,%rdx
    bd51:	48 01 ca             	add    %rcx,%rdx
    bd54:	48 01 d0             	add    %rdx,%rax
    bd57:	48 01 f0             	add    %rsi,%rax
    bd5a:	48 8d 15 2f 58 00 00 	lea    0x582f(%rip),%rdx        # 11590 <g_260>
    bd61:	48 89 94 c5 f0 f8 ff 	mov    %rdx,-0x710(%rbp,%rax,8)
    bd68:	ff 
    bd69:	83 85 f8 f0 ff ff 01 	addl   $0x1,-0xf08(%rbp)
    bd70:	83 bd f8 f0 ff ff 02 	cmpl   $0x2,-0xf08(%rbp)
    bd77:	7e a3                	jle    bd1c <func_63+0x1a66>
    bd79:	83 85 f4 f0 ff ff 01 	addl   $0x1,-0xf0c(%rbp)
    bd80:	83 bd f4 f0 ff ff 08 	cmpl   $0x8,-0xf0c(%rbp)
    bd87:	7e 87                	jle    bd10 <func_63+0x1a5a>
    bd89:	83 85 f0 f0 ff ff 01 	addl   $0x1,-0xf10(%rbp)
    bd90:	83 bd f0 f0 ff ff 07 	cmpl   $0x7,-0xf10(%rbp)
    bd97:	0f 8e 67 ff ff ff    	jle    bd04 <func_63+0x1a4e>
    bd9d:	0f b6 05 f0 57 00 00 	movzbl 0x57f0(%rip),%eax        # 11594 <g_273>
    bda4:	83 e8 01             	sub    $0x1,%eax
    bda7:	88 05 e7 57 00 00    	mov    %al,0x57e7(%rip)        # 11594 <g_273>
    bdad:	48 8b 05 cc 57 00 00 	mov    0x57cc(%rip),%rax        # 11580 <g_161>
    bdb4:	be 07 00 00 00       	mov    $0x7,%esi
    bdb9:	89 c7                	mov    %eax,%edi
    bdbb:	e8 f8 90 ff ff       	callq  4eb8 <safe_add_func_uint32_t_u_u>
    bdc0:	89 c0                	mov    %eax,%eax
    bdc2:	48 89 05 b7 57 00 00 	mov    %rax,0x57b7(%rip)        # 11580 <g_161>
    bdc9:	48 8b 05 b0 57 00 00 	mov    0x57b0(%rip),%rax        # 11580 <g_161>
    bdd0:	48 83 f8 15          	cmp    $0x15,%rax
    bdd4:	0f 8f 1b ff ff ff    	jg     bcf5 <func_63+0x1a3f>
    bdda:	8b 05 4c 52 00 00    	mov    0x524c(%rip),%eax        # 1102c <g_49>
    bde0:	be 01 00 00 00       	mov    $0x1,%esi
    bde5:	89 c7                	mov    %eax,%edi
    bde7:	e8 cc 90 ff ff       	callq  4eb8 <safe_add_func_uint32_t_u_u>
    bdec:	89 05 3a 52 00 00    	mov    %eax,0x523a(%rip)        # 1102c <g_49>
    bdf2:	8b 05 34 52 00 00    	mov    0x5234(%rip),%eax        # 1102c <g_49>
    bdf8:	83 f8 ec             	cmp    $0xffffffec,%eax
    bdfb:	0f 8c c1 ec ff ff    	jl     aac2 <func_63+0x80c>
    be01:	0f b7 85 b4 f0 ff ff 	movzwl -0xf4c(%rbp),%eax
    be08:	66 85 c0             	test   %ax,%ax
    be0b:	0f 84 c8 0c 00 00    	je     cad9 <func_63+0x2823>
    be11:	c7 85 e4 f0 ff ff 00 	movl   $0x0,-0xf1c(%rbp)
    be18:	00 00 00 
    be1b:	66 c7 85 e4 f0 ff ff 	movw   $0x92fd,-0xf1c(%rbp)
    be22:	fd 92 
    be24:	48 8d 85 00 f3 ff ff 	lea    -0xd00(%rbp),%rax
    be2b:	48 83 c0 0c          	add    $0xc,%rax
    be2f:	48 89 85 30 f4 ff ff 	mov    %rax,-0xbd0(%rbp)
    be36:	48 c7 85 38 f4 ff ff 	movq   $0x0,-0xbc8(%rbp)
    be3d:	00 00 00 00 
    be41:	48 8d 85 00 f3 ff ff 	lea    -0xd00(%rbp),%rax
    be48:	48 83 c0 0c          	add    $0xc,%rax
    be4c:	48 89 85 40 f4 ff ff 	mov    %rax,-0xbc0(%rbp)
    be53:	48 c7 85 48 f4 ff ff 	movq   $0x0,-0xbb8(%rbp)
    be5a:	00 00 00 00 
    be5e:	48 8d 85 00 f3 ff ff 	lea    -0xd00(%rbp),%rax
    be65:	48 83 c0 0c          	add    $0xc,%rax
    be69:	48 89 85 50 f4 ff ff 	mov    %rax,-0xbb0(%rbp)
    be70:	48 8d 05 b5 51 00 00 	lea    0x51b5(%rip),%rax        # 1102c <g_49>
    be77:	48 89 85 58 f4 ff ff 	mov    %rax,-0xba8(%rbp)
    be7e:	48 8d 05 a7 51 00 00 	lea    0x51a7(%rip),%rax        # 1102c <g_49>
    be85:	48 89 85 60 f4 ff ff 	mov    %rax,-0xba0(%rbp)
    be8c:	48 c7 85 68 f4 ff ff 	movq   $0x0,-0xb98(%rbp)
    be93:	00 00 00 00 
    be97:	48 8d 85 d8 f0 ff ff 	lea    -0xf28(%rbp),%rax
    be9e:	48 89 85 70 f4 ff ff 	mov    %rax,-0xb90(%rbp)
    bea5:	48 8d 85 00 f3 ff ff 	lea    -0xd00(%rbp),%rax
    beac:	48 83 c0 0c          	add    $0xc,%rax
    beb0:	48 89 85 78 f4 ff ff 	mov    %rax,-0xb88(%rbp)
    beb7:	48 c7 85 80 f4 ff ff 	movq   $0x0,-0xb80(%rbp)
    bebe:	00 00 00 00 
    bec2:	48 8d 85 00 f3 ff ff 	lea    -0xd00(%rbp),%rax
    bec9:	48 83 c0 0c          	add    $0xc,%rax
    becd:	48 89 85 88 f4 ff ff 	mov    %rax,-0xb78(%rbp)
    bed4:	48 8d 85 00 f3 ff ff 	lea    -0xd00(%rbp),%rax
    bedb:	48 83 c0 0c          	add    $0xc,%rax
    bedf:	48 89 85 90 f4 ff ff 	mov    %rax,-0xb70(%rbp)
    bee6:	48 c7 85 98 f4 ff ff 	movq   $0x0,-0xb68(%rbp)
    beed:	00 00 00 00 
    bef1:	48 8d 85 00 f3 ff ff 	lea    -0xd00(%rbp),%rax
    bef8:	48 83 c0 0c          	add    $0xc,%rax
    befc:	48 89 85 a0 f4 ff ff 	mov    %rax,-0xb60(%rbp)
    bf03:	48 c7 85 a8 f4 ff ff 	movq   $0x0,-0xb58(%rbp)
    bf0a:	00 00 00 00 
    bf0e:	48 8d 85 d8 f0 ff ff 	lea    -0xf28(%rbp),%rax
    bf15:	48 89 85 b0 f4 ff ff 	mov    %rax,-0xb50(%rbp)
    bf1c:	48 8d 05 05 51 00 00 	lea    0x5105(%rip),%rax        # 11028 <g_47>
    bf23:	48 89 85 b8 f4 ff ff 	mov    %rax,-0xb48(%rbp)
    bf2a:	48 8d 05 f7 50 00 00 	lea    0x50f7(%rip),%rax        # 11028 <g_47>
    bf31:	48 89 85 c0 f4 ff ff 	mov    %rax,-0xb40(%rbp)
    bf38:	48 8d 85 d8 f0 ff ff 	lea    -0xf28(%rbp),%rax
    bf3f:	48 89 85 c8 f4 ff ff 	mov    %rax,-0xb38(%rbp)
    bf46:	48 8d 85 00 f3 ff ff 	lea    -0xd00(%rbp),%rax
    bf4d:	48 83 c0 0c          	add    $0xc,%rax
    bf51:	48 89 85 d0 f4 ff ff 	mov    %rax,-0xb30(%rbp)
    bf58:	48 8d 85 00 f3 ff ff 	lea    -0xd00(%rbp),%rax
    bf5f:	48 83 c0 0c          	add    $0xc,%rax
    bf63:	48 89 85 d8 f4 ff ff 	mov    %rax,-0xb28(%rbp)
    bf6a:	48 c7 85 e0 f4 ff ff 	movq   $0x0,-0xb20(%rbp)
    bf71:	00 00 00 00 
    bf75:	48 8d 85 d8 f0 ff ff 	lea    -0xf28(%rbp),%rax
    bf7c:	48 89 85 e8 f4 ff ff 	mov    %rax,-0xb18(%rbp)
    bf83:	48 8d 85 d8 f0 ff ff 	lea    -0xf28(%rbp),%rax
    bf8a:	48 89 85 f0 f4 ff ff 	mov    %rax,-0xb10(%rbp)
    bf91:	48 8d 85 d4 f0 ff ff 	lea    -0xf2c(%rbp),%rax
    bf98:	48 89 85 f8 f4 ff ff 	mov    %rax,-0xb08(%rbp)
    bf9f:	48 8d 05 86 50 00 00 	lea    0x5086(%rip),%rax        # 1102c <g_49>
    bfa6:	48 89 85 00 f5 ff ff 	mov    %rax,-0xb00(%rbp)
    bfad:	48 8d 85 d4 f0 ff ff 	lea    -0xf2c(%rbp),%rax
    bfb4:	48 89 85 08 f5 ff ff 	mov    %rax,-0xaf8(%rbp)
    bfbb:	48 8d 05 66 50 00 00 	lea    0x5066(%rip),%rax        # 11028 <g_47>
    bfc2:	48 89 85 10 f5 ff ff 	mov    %rax,-0xaf0(%rbp)
    bfc9:	48 8d 05 5c 50 00 00 	lea    0x505c(%rip),%rax        # 1102c <g_49>
    bfd0:	48 89 85 18 f5 ff ff 	mov    %rax,-0xae8(%rbp)
    bfd7:	48 c7 85 20 f5 ff ff 	movq   $0x0,-0xae0(%rbp)
    bfde:	00 00 00 00 
    bfe2:	48 8d 85 00 f3 ff ff 	lea    -0xd00(%rbp),%rax
    bfe9:	48 83 c0 0c          	add    $0xc,%rax
    bfed:	48 89 85 28 f5 ff ff 	mov    %rax,-0xad8(%rbp)
    bff4:	48 8d 85 00 f3 ff ff 	lea    -0xd00(%rbp),%rax
    bffb:	48 83 c0 0c          	add    $0xc,%rax
    bfff:	48 89 85 30 f5 ff ff 	mov    %rax,-0xad0(%rbp)
    c006:	48 8d 85 00 f3 ff ff 	lea    -0xd00(%rbp),%rax
    c00d:	48 83 c0 0c          	add    $0xc,%rax
    c011:	48 89 85 38 f5 ff ff 	mov    %rax,-0xac8(%rbp)
    c018:	48 c7 85 40 f5 ff ff 	movq   $0x0,-0xac0(%rbp)
    c01f:	00 00 00 00 
    c023:	48 8d 85 d8 f0 ff ff 	lea    -0xf28(%rbp),%rax
    c02a:	48 89 85 48 f5 ff ff 	mov    %rax,-0xab8(%rbp)
    c031:	48 8d 85 d4 f0 ff ff 	lea    -0xf2c(%rbp),%rax
    c038:	48 89 85 50 f5 ff ff 	mov    %rax,-0xab0(%rbp)
    c03f:	48 8d 85 00 f3 ff ff 	lea    -0xd00(%rbp),%rax
    c046:	48 83 c0 0c          	add    $0xc,%rax
    c04a:	48 89 85 58 f5 ff ff 	mov    %rax,-0xaa8(%rbp)
    c051:	48 8d 05 d0 4f 00 00 	lea    0x4fd0(%rip),%rax        # 11028 <g_47>
    c058:	48 89 85 60 f5 ff ff 	mov    %rax,-0xaa0(%rbp)
    c05f:	48 8d 85 00 f3 ff ff 	lea    -0xd00(%rbp),%rax
    c066:	48 83 c0 0c          	add    $0xc,%rax
    c06a:	48 89 85 68 f5 ff ff 	mov    %rax,-0xa98(%rbp)
    c071:	48 8d 85 d4 f0 ff ff 	lea    -0xf2c(%rbp),%rax
    c078:	48 89 85 70 f5 ff ff 	mov    %rax,-0xa90(%rbp)
    c07f:	48 8d 85 d4 f0 ff ff 	lea    -0xf2c(%rbp),%rax
    c086:	48 89 85 78 f5 ff ff 	mov    %rax,-0xa88(%rbp)
    c08d:	48 8d 85 00 f3 ff ff 	lea    -0xd00(%rbp),%rax
    c094:	48 83 c0 0c          	add    $0xc,%rax
    c098:	48 89 85 80 f5 ff ff 	mov    %rax,-0xa80(%rbp)
    c09f:	48 c7 85 88 f5 ff ff 	movq   $0x0,-0xa78(%rbp)
    c0a6:	00 00 00 00 
    c0aa:	48 c7 85 90 f5 ff ff 	movq   $0x0,-0xa70(%rbp)
    c0b1:	00 00 00 00 
    c0b5:	48 8d 85 d4 f0 ff ff 	lea    -0xf2c(%rbp),%rax
    c0bc:	48 89 85 98 f5 ff ff 	mov    %rax,-0xa68(%rbp)
    c0c3:	48 8d 85 d8 f0 ff ff 	lea    -0xf28(%rbp),%rax
    c0ca:	48 89 85 a0 f5 ff ff 	mov    %rax,-0xa60(%rbp)
    c0d1:	48 8d 85 d8 f0 ff ff 	lea    -0xf28(%rbp),%rax
    c0d8:	48 89 85 a8 f5 ff ff 	mov    %rax,-0xa58(%rbp)
    c0df:	48 8d 85 d4 f0 ff ff 	lea    -0xf2c(%rbp),%rax
    c0e6:	48 89 85 b0 f5 ff ff 	mov    %rax,-0xa50(%rbp)
    c0ed:	48 8d 85 00 f3 ff ff 	lea    -0xd00(%rbp),%rax
    c0f4:	48 83 c0 0c          	add    $0xc,%rax
    c0f8:	48 89 85 b8 f5 ff ff 	mov    %rax,-0xa48(%rbp)
    c0ff:	48 8d 85 00 f3 ff ff 	lea    -0xd00(%rbp),%rax
    c106:	48 83 c0 0c          	add    $0xc,%rax
    c10a:	48 89 85 c0 f5 ff ff 	mov    %rax,-0xa40(%rbp)
    c111:	48 c7 85 c8 f5 ff ff 	movq   $0x0,-0xa38(%rbp)
    c118:	00 00 00 00 
    c11c:	48 8d 85 d8 f0 ff ff 	lea    -0xf28(%rbp),%rax
    c123:	48 89 85 d0 f5 ff ff 	mov    %rax,-0xa30(%rbp)
    c12a:	48 8d 85 d8 f0 ff ff 	lea    -0xf28(%rbp),%rax
    c131:	48 89 85 d8 f5 ff ff 	mov    %rax,-0xa28(%rbp)
    c138:	48 c7 85 e0 f5 ff ff 	movq   $0x0,-0xa20(%rbp)
    c13f:	00 00 00 00 
    c143:	48 8d 85 00 f3 ff ff 	lea    -0xd00(%rbp),%rax
    c14a:	48 83 c0 0c          	add    $0xc,%rax
    c14e:	48 89 85 e8 f5 ff ff 	mov    %rax,-0xa18(%rbp)
    c155:	48 8d 85 d8 f0 ff ff 	lea    -0xf28(%rbp),%rax
    c15c:	48 89 85 f0 f5 ff ff 	mov    %rax,-0xa10(%rbp)
    c163:	48 c7 85 f8 f5 ff ff 	movq   $0x0,-0xa08(%rbp)
    c16a:	00 00 00 00 
    c16e:	48 8d 05 b7 4e 00 00 	lea    0x4eb7(%rip),%rax        # 1102c <g_49>
    c175:	48 89 85 00 f6 ff ff 	mov    %rax,-0xa00(%rbp)
    c17c:	48 8d 05 a9 4e 00 00 	lea    0x4ea9(%rip),%rax        # 1102c <g_49>
    c183:	48 89 85 08 f6 ff ff 	mov    %rax,-0x9f8(%rbp)
    c18a:	48 c7 85 10 f6 ff ff 	movq   $0x0,-0x9f0(%rbp)
    c191:	00 00 00 00 
    c195:	48 8d 85 d4 f0 ff ff 	lea    -0xf2c(%rbp),%rax
    c19c:	48 89 85 18 f6 ff ff 	mov    %rax,-0x9e8(%rbp)
    c1a3:	48 c7 85 20 f6 ff ff 	movq   $0x0,-0x9e0(%rbp)
    c1aa:	00 00 00 00 
    c1ae:	48 8d 85 d8 f0 ff ff 	lea    -0xf28(%rbp),%rax
    c1b5:	48 89 85 28 f6 ff ff 	mov    %rax,-0x9d8(%rbp)
    c1bc:	48 8d 85 00 f3 ff ff 	lea    -0xd00(%rbp),%rax
    c1c3:	48 83 c0 0c          	add    $0xc,%rax
    c1c7:	48 89 85 30 f6 ff ff 	mov    %rax,-0x9d0(%rbp)
    c1ce:	48 8d 05 53 4e 00 00 	lea    0x4e53(%rip),%rax        # 11028 <g_47>
    c1d5:	48 89 85 38 f6 ff ff 	mov    %rax,-0x9c8(%rbp)
    c1dc:	48 8d 85 d4 f0 ff ff 	lea    -0xf2c(%rbp),%rax
    c1e3:	48 89 85 40 f6 ff ff 	mov    %rax,-0x9c0(%rbp)
    c1ea:	48 8d 05 3b 4e 00 00 	lea    0x4e3b(%rip),%rax        # 1102c <g_49>
    c1f1:	48 89 85 48 f6 ff ff 	mov    %rax,-0x9b8(%rbp)
    c1f8:	48 8d 85 d4 f0 ff ff 	lea    -0xf2c(%rbp),%rax
    c1ff:	48 89 85 50 f6 ff ff 	mov    %rax,-0x9b0(%rbp)
    c206:	48 8d 05 1b 4e 00 00 	lea    0x4e1b(%rip),%rax        # 11028 <g_47>
    c20d:	48 89 85 58 f6 ff ff 	mov    %rax,-0x9a8(%rbp)
    c214:	48 8d 05 15 4e 00 00 	lea    0x4e15(%rip),%rax        # 11030 <g_84>
    c21b:	48 89 85 a0 f1 ff ff 	mov    %rax,-0xe60(%rbp)
    c222:	48 8d 85 a0 f1 ff ff 	lea    -0xe60(%rbp),%rax
    c229:	48 89 85 d0 f2 ff ff 	mov    %rax,-0xd30(%rbp)
    c230:	48 8d 85 60 f3 ff ff 	lea    -0xca0(%rbp),%rax
    c237:	48 83 c0 20          	add    $0x20,%rax
    c23b:	48 89 85 d8 f2 ff ff 	mov    %rax,-0xd28(%rbp)
    c242:	48 8d 05 af 4f 00 00 	lea    0x4faf(%rip),%rax        # 111f8 <g_134+0x118>
    c249:	48 89 85 a8 f1 ff ff 	mov    %rax,-0xe58(%rbp)
    c250:	48 8d 85 a8 f1 ff ff 	lea    -0xe58(%rbp),%rax
    c257:	48 89 85 b0 f1 ff ff 	mov    %rax,-0xe50(%rbp)
    c25e:	c7 85 e8 f0 ff ff 00 	movl   $0x0,-0xf18(%rbp)
    c265:	00 00 00 
    c268:	66 c7 85 e8 f0 ff ff 	movw   $0x478,-0xf18(%rbp)
    c26f:	78 04 
    c271:	c7 85 70 f1 ff ff fd 	movl   $0xe1c998fd,-0xe90(%rbp)
    c278:	98 c9 e1 
    c27b:	c7 85 fc f0 ff ff 00 	movl   $0x0,-0xf04(%rbp)
    c282:	00 00 00 
    c285:	eb 78                	jmp    c2ff <func_63+0x2049>
    c287:	c7 85 00 f1 ff ff 00 	movl   $0x0,-0xf00(%rbp)
    c28e:	00 00 00 
    c291:	eb 5c                	jmp    c2ef <func_63+0x2039>
    c293:	c7 85 04 f1 ff ff 00 	movl   $0x0,-0xefc(%rbp)
    c29a:	00 00 00 
    c29d:	eb 40                	jmp    c2df <func_63+0x2029>
    c29f:	8b 85 04 f1 ff ff    	mov    -0xefc(%rbp),%eax
    c2a5:	48 63 f0             	movslq %eax,%rsi
    c2a8:	8b 85 00 f1 ff ff    	mov    -0xf00(%rbp),%eax
    c2ae:	48 63 c8             	movslq %eax,%rcx
    c2b1:	8b 85 fc f0 ff ff    	mov    -0xf04(%rbp),%eax
    c2b7:	48 63 d0             	movslq %eax,%rdx
    c2ba:	48 89 d0             	mov    %rdx,%rax
    c2bd:	48 01 c0             	add    %rax,%rax
    c2c0:	48 01 d0             	add    %rdx,%rax
    c2c3:	48 01 c0             	add    %rax,%rax
    c2c6:	48 01 f0             	add    %rsi,%rax
    c2c9:	48 01 c8             	add    %rcx,%rax
    c2cc:	48 c7 84 c5 60 f3 ff 	movq   $0x0,-0xca0(%rbp,%rax,8)
    c2d3:	ff 00 00 00 00 
    c2d8:	83 85 04 f1 ff ff 01 	addl   $0x1,-0xefc(%rbp)
    c2df:	83 bd 04 f1 ff ff 00 	cmpl   $0x0,-0xefc(%rbp)
    c2e6:	7e b7                	jle    c29f <func_63+0x1fe9>
    c2e8:	83 85 00 f1 ff ff 01 	addl   $0x1,-0xf00(%rbp)
    c2ef:	83 bd 00 f1 ff ff 05 	cmpl   $0x5,-0xf00(%rbp)
    c2f6:	7e 9b                	jle    c293 <func_63+0x1fdd>
    c2f8:	83 85 fc f0 ff ff 01 	addl   $0x1,-0xf04(%rbp)
    c2ff:	83 bd fc f0 ff ff 00 	cmpl   $0x0,-0xf04(%rbp)
    c306:	0f 8e 7b ff ff ff    	jle    c287 <func_63+0x1fd1>
    c30c:	c7 85 d0 f0 ff ff 00 	movl   $0x0,-0xf30(%rbp)
    c313:	00 00 00 
    c316:	90                   	nop
    c317:	8b 85 d0 f0 ff ff    	mov    -0xf30(%rbp),%eax
    c31d:	83 f8 0e             	cmp    $0xe,%eax
    c320:	0f 86 a7 07 00 00    	jbe    cacd <func_63+0x2817>
    c326:	48 c7 85 f0 f8 ff ff 	movq   $0x0,-0x710(%rbp)
    c32d:	00 00 00 00 
    c331:	48 c7 85 f8 f8 ff ff 	movq   $0x0,-0x708(%rbp)
    c338:	00 00 00 00 
    c33c:	48 8d 05 95 68 00 00 	lea    0x6895(%rip),%rax        # 12bd8 <g_204>
    c343:	48 89 85 00 f9 ff ff 	mov    %rax,-0x700(%rbp)
    c34a:	48 c7 85 08 f9 ff ff 	movq   $0x0,-0x6f8(%rbp)
    c351:	00 00 00 00 
    c355:	48 c7 85 10 f9 ff ff 	movq   $0x0,-0x6f0(%rbp)
    c35c:	00 00 00 00 
    c360:	48 8d 85 80 f1 ff ff 	lea    -0xe80(%rbp),%rax
    c367:	48 89 85 18 f9 ff ff 	mov    %rax,-0x6e8(%rbp)
    c36e:	48 c7 85 20 f9 ff ff 	movq   $0x0,-0x6e0(%rbp)
    c375:	00 00 00 00 
    c379:	48 c7 85 28 f9 ff ff 	movq   $0x0,-0x6d8(%rbp)
    c380:	00 00 00 00 
    c384:	48 8d 85 80 f1 ff ff 	lea    -0xe80(%rbp),%rax
    c38b:	48 89 85 30 f9 ff ff 	mov    %rax,-0x6d0(%rbp)
    c392:	48 c7 85 38 f9 ff ff 	movq   $0x0,-0x6c8(%rbp)
    c399:	00 00 00 00 
    c39d:	48 8d 85 80 f1 ff ff 	lea    -0xe80(%rbp),%rax
    c3a4:	48 89 85 40 f9 ff ff 	mov    %rax,-0x6c0(%rbp)
    c3ab:	48 8d 85 80 f1 ff ff 	lea    -0xe80(%rbp),%rax
    c3b2:	48 89 85 48 f9 ff ff 	mov    %rax,-0x6b8(%rbp)
    c3b9:	48 c7 85 50 f9 ff ff 	movq   $0x0,-0x6b0(%rbp)
    c3c0:	00 00 00 00 
    c3c4:	48 8d 85 80 f1 ff ff 	lea    -0xe80(%rbp),%rax
    c3cb:	48 89 85 58 f9 ff ff 	mov    %rax,-0x6a8(%rbp)
    c3d2:	48 c7 85 60 f9 ff ff 	movq   $0x0,-0x6a0(%rbp)
    c3d9:	00 00 00 00 
    c3dd:	48 c7 85 68 f9 ff ff 	movq   $0x0,-0x698(%rbp)
    c3e4:	00 00 00 00 
    c3e8:	48 c7 85 70 f9 ff ff 	movq   $0x0,-0x690(%rbp)
    c3ef:	00 00 00 00 
    c3f3:	48 8d 85 80 f1 ff ff 	lea    -0xe80(%rbp),%rax
    c3fa:	48 89 85 78 f9 ff ff 	mov    %rax,-0x688(%rbp)
    c401:	48 c7 85 80 f9 ff ff 	movq   $0x0,-0x680(%rbp)
    c408:	00 00 00 00 
    c40c:	48 c7 85 88 f9 ff ff 	movq   $0x0,-0x678(%rbp)
    c413:	00 00 00 00 
    c417:	48 8d 05 ba 67 00 00 	lea    0x67ba(%rip),%rax        # 12bd8 <g_204>
    c41e:	48 89 85 90 f9 ff ff 	mov    %rax,-0x670(%rbp)
    c425:	48 8d 85 80 f1 ff ff 	lea    -0xe80(%rbp),%rax
    c42c:	48 89 85 98 f9 ff ff 	mov    %rax,-0x668(%rbp)
    c433:	48 8d 85 80 f1 ff ff 	lea    -0xe80(%rbp),%rax
    c43a:	48 89 85 a0 f9 ff ff 	mov    %rax,-0x660(%rbp)
    c441:	48 8d 05 90 67 00 00 	lea    0x6790(%rip),%rax        # 12bd8 <g_204>
    c448:	48 89 85 a8 f9 ff ff 	mov    %rax,-0x658(%rbp)
    c44f:	48 c7 85 b0 f9 ff ff 	movq   $0x0,-0x650(%rbp)
    c456:	00 00 00 00 
    c45a:	48 c7 85 b8 f9 ff ff 	movq   $0x0,-0x648(%rbp)
    c461:	00 00 00 00 
    c465:	48 8d 05 6c 67 00 00 	lea    0x676c(%rip),%rax        # 12bd8 <g_204>
    c46c:	48 89 85 c0 f9 ff ff 	mov    %rax,-0x640(%rbp)
    c473:	48 c7 85 c8 f9 ff ff 	movq   $0x0,-0x638(%rbp)
    c47a:	00 00 00 00 
    c47e:	48 c7 85 d0 f9 ff ff 	movq   $0x0,-0x630(%rbp)
    c485:	00 00 00 00 
    c489:	48 8d 85 80 f1 ff ff 	lea    -0xe80(%rbp),%rax
    c490:	48 89 85 d8 f9 ff ff 	mov    %rax,-0x628(%rbp)
    c497:	48 c7 85 e0 f9 ff ff 	movq   $0x0,-0x620(%rbp)
    c49e:	00 00 00 00 
    c4a2:	48 c7 85 e8 f9 ff ff 	movq   $0x0,-0x618(%rbp)
    c4a9:	00 00 00 00 
    c4ad:	48 8d 85 80 f1 ff ff 	lea    -0xe80(%rbp),%rax
    c4b4:	48 89 85 f0 f9 ff ff 	mov    %rax,-0x610(%rbp)
    c4bb:	48 c7 85 f8 f9 ff ff 	movq   $0x0,-0x608(%rbp)
    c4c2:	00 00 00 00 
    c4c6:	48 8d 85 80 f1 ff ff 	lea    -0xe80(%rbp),%rax
    c4cd:	48 89 85 00 fa ff ff 	mov    %rax,-0x600(%rbp)
    c4d4:	48 8d 85 80 f1 ff ff 	lea    -0xe80(%rbp),%rax
    c4db:	48 89 85 08 fa ff ff 	mov    %rax,-0x5f8(%rbp)
    c4e2:	48 8d 85 80 f1 ff ff 	lea    -0xe80(%rbp),%rax
    c4e9:	48 89 85 10 fa ff ff 	mov    %rax,-0x5f0(%rbp)
    c4f0:	48 c7 85 18 fa ff ff 	movq   $0x0,-0x5e8(%rbp)
    c4f7:	00 00 00 00 
    c4fb:	48 8d 85 80 f1 ff ff 	lea    -0xe80(%rbp),%rax
    c502:	48 89 85 20 fa ff ff 	mov    %rax,-0x5e0(%rbp)
    c509:	48 c7 85 28 fa ff ff 	movq   $0x0,-0x5d8(%rbp)
    c510:	00 00 00 00 
    c514:	48 c7 85 30 fa ff ff 	movq   $0x0,-0x5d0(%rbp)
    c51b:	00 00 00 00 
    c51f:	48 8d 85 80 f1 ff ff 	lea    -0xe80(%rbp),%rax
    c526:	48 89 85 38 fa ff ff 	mov    %rax,-0x5c8(%rbp)
    c52d:	48 c7 85 40 fa ff ff 	movq   $0x0,-0x5c0(%rbp)
    c534:	00 00 00 00 
    c538:	48 c7 85 48 fa ff ff 	movq   $0x0,-0x5b8(%rbp)
    c53f:	00 00 00 00 
    c543:	48 8d 05 8e 66 00 00 	lea    0x668e(%rip),%rax        # 12bd8 <g_204>
    c54a:	48 89 85 50 fa ff ff 	mov    %rax,-0x5b0(%rbp)
    c551:	48 8d 05 80 66 00 00 	lea    0x6680(%rip),%rax        # 12bd8 <g_204>
    c558:	48 89 85 58 fa ff ff 	mov    %rax,-0x5a8(%rbp)
    c55f:	48 8d 85 80 f1 ff ff 	lea    -0xe80(%rbp),%rax
    c566:	48 89 85 60 fa ff ff 	mov    %rax,-0x5a0(%rbp)
    c56d:	48 8d 85 80 f1 ff ff 	lea    -0xe80(%rbp),%rax
    c574:	48 89 85 68 fa ff ff 	mov    %rax,-0x598(%rbp)
    c57b:	48 c7 85 70 fa ff ff 	movq   $0x0,-0x590(%rbp)
    c582:	00 00 00 00 
    c586:	48 c7 85 78 fa ff ff 	movq   $0x0,-0x588(%rbp)
    c58d:	00 00 00 00 
    c591:	48 8d 85 80 f1 ff ff 	lea    -0xe80(%rbp),%rax
    c598:	48 89 85 80 fa ff ff 	mov    %rax,-0x580(%rbp)
    c59f:	48 8d 85 80 f1 ff ff 	lea    -0xe80(%rbp),%rax
    c5a6:	48 89 85 88 fa ff ff 	mov    %rax,-0x578(%rbp)
    c5ad:	48 8d 85 80 f1 ff ff 	lea    -0xe80(%rbp),%rax
    c5b4:	48 89 85 90 fa ff ff 	mov    %rax,-0x570(%rbp)
    c5bb:	48 8d 85 80 f1 ff ff 	lea    -0xe80(%rbp),%rax
    c5c2:	48 89 85 98 fa ff ff 	mov    %rax,-0x568(%rbp)
    c5c9:	48 c7 85 a0 fa ff ff 	movq   $0x0,-0x560(%rbp)
    c5d0:	00 00 00 00 
    c5d4:	48 c7 85 a8 fa ff ff 	movq   $0x0,-0x558(%rbp)
    c5db:	00 00 00 00 
    c5df:	48 8d 85 80 f1 ff ff 	lea    -0xe80(%rbp),%rax
    c5e6:	48 89 85 b0 fa ff ff 	mov    %rax,-0x550(%rbp)
    c5ed:	48 c7 85 b8 fa ff ff 	movq   $0x0,-0x548(%rbp)
    c5f4:	00 00 00 00 
    c5f8:	48 8d 85 80 f1 ff ff 	lea    -0xe80(%rbp),%rax
    c5ff:	48 89 85 c0 fa ff ff 	mov    %rax,-0x540(%rbp)
    c606:	48 8d 05 cb 65 00 00 	lea    0x65cb(%rip),%rax        # 12bd8 <g_204>
    c60d:	48 89 85 c8 fa ff ff 	mov    %rax,-0x538(%rbp)
    c614:	48 c7 85 d0 fa ff ff 	movq   $0x0,-0x530(%rbp)
    c61b:	00 00 00 00 
    c61f:	48 8d 85 80 f1 ff ff 	lea    -0xe80(%rbp),%rax
    c626:	48 89 85 d8 fa ff ff 	mov    %rax,-0x528(%rbp)
    c62d:	48 8d 85 80 f1 ff ff 	lea    -0xe80(%rbp),%rax
    c634:	48 89 85 e0 fa ff ff 	mov    %rax,-0x520(%rbp)
    c63b:	48 c7 85 e8 fa ff ff 	movq   $0x0,-0x518(%rbp)
    c642:	00 00 00 00 
    c646:	48 c7 85 f0 fa ff ff 	movq   $0x0,-0x510(%rbp)
    c64d:	00 00 00 00 
    c651:	48 8d 05 80 65 00 00 	lea    0x6580(%rip),%rax        # 12bd8 <g_204>
    c658:	48 89 85 f8 fa ff ff 	mov    %rax,-0x508(%rbp)
    c65f:	48 8d 85 80 f1 ff ff 	lea    -0xe80(%rbp),%rax
    c666:	48 89 85 00 fb ff ff 	mov    %rax,-0x500(%rbp)
    c66d:	48 8d 85 80 f1 ff ff 	lea    -0xe80(%rbp),%rax
    c674:	48 89 85 08 fb ff ff 	mov    %rax,-0x4f8(%rbp)
    c67b:	48 8d 05 56 65 00 00 	lea    0x6556(%rip),%rax        # 12bd8 <g_204>
    c682:	48 89 85 10 fb ff ff 	mov    %rax,-0x4f0(%rbp)
    c689:	48 8d 85 80 f1 ff ff 	lea    -0xe80(%rbp),%rax
    c690:	48 89 85 18 fb ff ff 	mov    %rax,-0x4e8(%rbp)
    c697:	48 8d 85 80 f1 ff ff 	lea    -0xe80(%rbp),%rax
    c69e:	48 89 85 20 fb ff ff 	mov    %rax,-0x4e0(%rbp)
    c6a5:	48 8d 85 80 f1 ff ff 	lea    -0xe80(%rbp),%rax
    c6ac:	48 89 85 28 fb ff ff 	mov    %rax,-0x4d8(%rbp)
    c6b3:	48 c7 85 30 fb ff ff 	movq   $0x0,-0x4d0(%rbp)
    c6ba:	00 00 00 00 
    c6be:	48 c7 85 38 fb ff ff 	movq   $0x0,-0x4c8(%rbp)
    c6c5:	00 00 00 00 
    c6c9:	48 8d 85 80 f1 ff ff 	lea    -0xe80(%rbp),%rax
    c6d0:	48 89 85 40 fb ff ff 	mov    %rax,-0x4c0(%rbp)
    c6d7:	48 c7 85 48 fb ff ff 	movq   $0x0,-0x4b8(%rbp)
    c6de:	00 00 00 00 
    c6e2:	48 c7 85 50 fb ff ff 	movq   $0x0,-0x4b0(%rbp)
    c6e9:	00 00 00 00 
    c6ed:	48 8d 85 80 f1 ff ff 	lea    -0xe80(%rbp),%rax
    c6f4:	48 89 85 58 fb ff ff 	mov    %rax,-0x4a8(%rbp)
    c6fb:	48 8d 85 80 f1 ff ff 	lea    -0xe80(%rbp),%rax
    c702:	48 89 85 60 fb ff ff 	mov    %rax,-0x4a0(%rbp)
    c709:	48 c7 85 68 fb ff ff 	movq   $0x0,-0x498(%rbp)
    c710:	00 00 00 00 
    c714:	48 8d 85 80 f1 ff ff 	lea    -0xe80(%rbp),%rax
    c71b:	48 89 85 70 fb ff ff 	mov    %rax,-0x490(%rbp)
    c722:	48 c7 85 78 fb ff ff 	movq   $0x0,-0x488(%rbp)
    c729:	00 00 00 00 
    c72d:	48 8d 85 80 f1 ff ff 	lea    -0xe80(%rbp),%rax
    c734:	48 89 85 80 fb ff ff 	mov    %rax,-0x480(%rbp)
    c73b:	48 8d 85 80 f1 ff ff 	lea    -0xe80(%rbp),%rax
    c742:	48 89 85 88 fb ff ff 	mov    %rax,-0x478(%rbp)
    c749:	48 c7 85 90 fb ff ff 	movq   $0x0,-0x470(%rbp)
    c750:	00 00 00 00 
    c754:	48 8d 05 7d 64 00 00 	lea    0x647d(%rip),%rax        # 12bd8 <g_204>
    c75b:	48 89 85 98 fb ff ff 	mov    %rax,-0x468(%rbp)
    c762:	48 8d 85 80 f1 ff ff 	lea    -0xe80(%rbp),%rax
    c769:	48 89 85 a0 fb ff ff 	mov    %rax,-0x460(%rbp)
    c770:	48 c7 85 a8 fb ff ff 	movq   $0x0,-0x458(%rbp)
    c777:	00 00 00 00 
    c77b:	48 c7 85 b0 fb ff ff 	movq   $0x0,-0x450(%rbp)
    c782:	00 00 00 00 
    c786:	48 8d 85 80 f1 ff ff 	lea    -0xe80(%rbp),%rax
    c78d:	48 89 85 b8 fb ff ff 	mov    %rax,-0x448(%rbp)
    c794:	48 8d 85 80 f1 ff ff 	lea    -0xe80(%rbp),%rax
    c79b:	48 89 85 c0 fb ff ff 	mov    %rax,-0x440(%rbp)
    c7a2:	48 8d 85 80 f1 ff ff 	lea    -0xe80(%rbp),%rax
    c7a9:	48 89 85 c8 fb ff ff 	mov    %rax,-0x438(%rbp)
    c7b0:	48 c7 85 d0 fb ff ff 	movq   $0x0,-0x430(%rbp)
    c7b7:	00 00 00 00 
    c7bb:	48 c7 85 d8 fb ff ff 	movq   $0x0,-0x428(%rbp)
    c7c2:	00 00 00 00 
    c7c6:	48 8d 85 80 f1 ff ff 	lea    -0xe80(%rbp),%rax
    c7cd:	48 89 85 e0 fb ff ff 	mov    %rax,-0x420(%rbp)
    c7d4:	48 8d 85 80 f1 ff ff 	lea    -0xe80(%rbp),%rax
    c7db:	48 89 85 e8 fb ff ff 	mov    %rax,-0x418(%rbp)
    c7e2:	48 c7 85 f0 fb ff ff 	movq   $0x0,-0x410(%rbp)
    c7e9:	00 00 00 00 
    c7ed:	48 c7 85 f8 fb ff ff 	movq   $0x0,-0x408(%rbp)
    c7f4:	00 00 00 00 
    c7f8:	48 8d 85 80 f1 ff ff 	lea    -0xe80(%rbp),%rax
    c7ff:	48 89 85 00 fc ff ff 	mov    %rax,-0x400(%rbp)
    c806:	48 c7 85 08 fc ff ff 	movq   $0x0,-0x3f8(%rbp)
    c80d:	00 00 00 00 
    c811:	48 8d 05 c0 63 00 00 	lea    0x63c0(%rip),%rax        # 12bd8 <g_204>
    c818:	48 89 85 10 fc ff ff 	mov    %rax,-0x3f0(%rbp)
    c81f:	48 8d 85 80 f1 ff ff 	lea    -0xe80(%rbp),%rax
    c826:	48 89 85 18 fc ff ff 	mov    %rax,-0x3e8(%rbp)
    c82d:	48 8d 85 80 f1 ff ff 	lea    -0xe80(%rbp),%rax
    c834:	48 89 85 20 fc ff ff 	mov    %rax,-0x3e0(%rbp)
    c83b:	48 c7 85 28 fc ff ff 	movq   $0x0,-0x3d8(%rbp)
    c842:	00 00 00 00 
    c846:	48 8d 85 80 f1 ff ff 	lea    -0xe80(%rbp),%rax
    c84d:	48 89 85 30 fc ff ff 	mov    %rax,-0x3d0(%rbp)
    c854:	48 c7 85 38 fc ff ff 	movq   $0x0,-0x3c8(%rbp)
    c85b:	00 00 00 00 
    c85f:	48 8d 85 80 f1 ff ff 	lea    -0xe80(%rbp),%rax
    c866:	48 89 85 40 fc ff ff 	mov    %rax,-0x3c0(%rbp)
    c86d:	48 c7 85 48 fc ff ff 	movq   $0x0,-0x3b8(%rbp)
    c874:	00 00 00 00 
    c878:	48 8d 85 80 f1 ff ff 	lea    -0xe80(%rbp),%rax
    c87f:	48 89 85 50 fc ff ff 	mov    %rax,-0x3b0(%rbp)
    c886:	48 8d 85 80 f1 ff ff 	lea    -0xe80(%rbp),%rax
    c88d:	48 89 85 58 fc ff ff 	mov    %rax,-0x3a8(%rbp)
    c894:	48 8d 85 80 f1 ff ff 	lea    -0xe80(%rbp),%rax
    c89b:	48 89 85 60 fc ff ff 	mov    %rax,-0x3a0(%rbp)
    c8a2:	48 c7 85 68 fc ff ff 	movq   $0x0,-0x398(%rbp)
    c8a9:	00 00 00 00 
    c8ad:	48 8d 05 e4 49 00 00 	lea    0x49e4(%rip),%rax        # 11298 <g_134+0x1b8>
    c8b4:	48 89 85 e0 f2 ff ff 	mov    %rax,-0xd20(%rbp)
    c8bb:	c7 85 74 f1 ff ff b8 	movl   $0xe579ffb8,-0xe8c(%rbp)
    c8c2:	ff 79 e5 
    c8c5:	c7 85 10 f3 ff ff 00 	movl   $0xff000600,-0xcf0(%rbp)
    c8cc:	06 00 ff 
    c8cf:	66 c7 85 14 f3 ff ff 	movw   $0xff,-0xcec(%rbp)
    c8d6:	ff 00 
    c8d8:	c7 85 16 f3 ff ff 09 	movl   $0x4aff0909,-0xcea(%rbp)
    c8df:	09 ff 4a 
    c8e2:	66 c7 85 1a f3 ff ff 	movw   $0x9ff,-0xce6(%rbp)
    c8e9:	ff 09 
    c8eb:	c7 85 1c f3 ff ff ff 	movl   $0x4a4a06ff,-0xce4(%rbp)
    c8f2:	06 4a 4a 
    c8f5:	66 c7 85 20 f3 ff ff 	movw   $0xff06,-0xce0(%rbp)
    c8fc:	06 ff 
    c8fe:	c7 85 22 f3 ff ff 09 	movl   $0xff4aff09,-0xcde(%rbp)
    c905:	ff 4a ff 
    c908:	66 c7 85 26 f3 ff ff 	movw   $0x909,-0xcda(%rbp)
    c90f:	09 09 
    c911:	48 8d 05 2e 47 00 00 	lea    0x472e(%rip),%rax        # 11046 <g_92+0x6>
    c918:	48 89 85 e8 f2 ff ff 	mov    %rax,-0xd18(%rbp)
    c91f:	48 8b 85 50 fb ff ff 	mov    -0x4b0(%rbp),%rax
    c926:	48 85 c0             	test   %rax,%rax
    c929:	0f 95 c0             	setne  %al
    c92c:	44 0f b6 f0          	movzbl %al,%r14d
    c930:	0f b7 85 b4 f0 ff ff 	movzwl -0xf4c(%rbp),%eax
    c937:	0f bf d8             	movswl %ax,%ebx
    c93a:	0f b7 85 e4 f0 ff ff 	movzwl -0xf1c(%rbp),%eax
    c941:	44 0f be e0          	movsbl %al,%r12d
    c945:	0f b7 85 b4 f0 ff ff 	movzwl -0xf4c(%rbp),%eax
    c94c:	48 0f bf d0          	movswq %ax,%rdx
    c950:	8b 05 d2 46 00 00    	mov    0x46d2(%rip),%eax        # 11028 <g_47>
    c956:	83 c8 01             	or     $0x1,%eax
    c959:	48 98                	cltq   
    c95b:	48 89 d6             	mov    %rdx,%rsi
    c95e:	48 89 c7             	mov    %rax,%rdi
    c961:	e8 42 7f ff ff       	callq  48a8 <safe_sub_func_int64_t_s_s>
    c966:	8b 85 74 f1 ff ff    	mov    -0xe8c(%rbp),%eax
    c96c:	f7 d0                	not    %eax
    c96e:	4c 63 e8             	movslq %eax,%r13
    c971:	be 04 00 00 00       	mov    $0x4,%esi
    c976:	bf 21 00 00 00       	mov    $0x21,%edi
    c97b:	e8 85 82 ff ff       	callq  4c05 <safe_lshift_func_uint8_t_u_s>
    c980:	3c 8f                	cmp    $0x8f,%al
    c982:	0f 97 c0             	seta   %al
    c985:	0f b6 d0             	movzbl %al,%edx
    c988:	48 8b 85 e0 f2 ff ff 	mov    -0xd20(%rbp),%rax
    c98f:	48 89 10             	mov    %rdx,(%rax)
    c992:	48 8b 85 e0 f2 ff ff 	mov    -0xd20(%rbp),%rax
    c999:	48 8b 00             	mov    (%rax),%rax
    c99c:	4c 89 ee             	mov    %r13,%rsi
    c99f:	48 89 c7             	mov    %rax,%rdi
    c9a2:	e8 08 87 ff ff       	callq  50af <safe_div_func_uint64_t_u_u>
    c9a7:	83 f0 7a             	xor    $0x7a,%eax
    c9aa:	0f be c0             	movsbl %al,%eax
    c9ad:	44 89 e6             	mov    %r12d,%esi
    c9b0:	89 c7                	mov    %eax,%edi
    c9b2:	e8 1d 78 ff ff       	callq  41d4 <safe_add_func_int8_t_s_s>
    c9b7:	0f b7 05 a2 46 00 00 	movzwl 0x46a2(%rip),%eax        # 11060 <g_104>
    c9be:	0f be c0             	movsbl %al,%eax
    c9c1:	be 00 00 00 00       	mov    $0x0,%esi
    c9c6:	89 c7                	mov    %eax,%edi
    c9c8:	e8 45 78 ff ff       	callq  4212 <safe_mul_func_int8_t_s_s>
    c9cd:	0f be c0             	movsbl %al,%eax
    c9d0:	89 de                	mov    %ebx,%esi
    c9d2:	89 c7                	mov    %eax,%edi
    c9d4:	e8 fa 79 ff ff       	callq  43d3 <safe_sub_func_int16_t_s_s>
    c9d9:	89 c2                	mov    %eax,%edx
    c9db:	48 8b 85 78 f1 ff ff 	mov    -0xe88(%rbp),%rax
    c9e2:	0f bf d2             	movswl %dx,%edx
    c9e5:	89 10                	mov    %edx,(%rax)
    c9e7:	8b 00                	mov    (%rax),%eax
    c9e9:	41 39 c6             	cmp    %eax,%r14d
    c9ec:	7d 09                	jge    c9f7 <func_63+0x2741>
    c9ee:	0f b6 85 1b f3 ff ff 	movzbl -0xce5(%rbp),%eax
    c9f5:	84 c0                	test   %al,%al
    c9f7:	c7 85 08 f1 ff ff 00 	movl   $0x0,-0xef8(%rbp)
    c9fe:	00 00 00 
    ca01:	eb 1e                	jmp    ca21 <func_63+0x276b>
    ca03:	8b 85 08 f1 ff ff    	mov    -0xef8(%rbp),%eax
    ca09:	48 98                	cltq   
    ca0b:	48 8d 15 1a 46 00 00 	lea    0x461a(%rip),%rdx        # 1102c <g_49>
    ca12:	48 89 94 c5 30 f3 ff 	mov    %rdx,-0xcd0(%rbp,%rax,8)
    ca19:	ff 
    ca1a:	83 85 08 f1 ff ff 01 	addl   $0x1,-0xef8(%rbp)
    ca21:	83 bd 08 f1 ff ff 03 	cmpl   $0x3,-0xef8(%rbp)
    ca28:	7e d9                	jle    ca03 <func_63+0x274d>
    ca2a:	66 c7 05 fd 45 00 00 	movw   $0x0,0x45fd(%rip)        # 11030 <g_84>
    ca31:	00 00 
    ca33:	eb 78                	jmp    caad <func_63+0x27f7>
    ca35:	0f b7 85 b4 f0 ff ff 	movzwl -0xf4c(%rbp),%eax
    ca3c:	66 85 c0             	test   %ax,%ax
    ca3f:	75 7f                	jne    cac0 <func_63+0x280a>
    ca41:	c7 85 28 f1 ff ff 00 	movl   $0x0,-0xed8(%rbp)
    ca48:	00 00 00 
    ca4b:	eb 46                	jmp    ca93 <func_63+0x27dd>
    ca4d:	48 8d 85 78 f1 ff ff 	lea    -0xe88(%rbp),%rax
    ca54:	48 89 85 f0 f2 ff ff 	mov    %rax,-0xd10(%rbp)
    ca5b:	48 8d 85 d8 f0 ff ff 	lea    -0xf28(%rbp),%rax
    ca62:	48 89 85 f8 f2 ff ff 	mov    %rax,-0xd08(%rbp)
    ca69:	48 8b 85 f0 f2 ff ff 	mov    -0xd10(%rbp),%rax
    ca70:	48 8b 95 b8 f0 ff ff 	mov    -0xf48(%rbp),%rdx
    ca77:	48 89 10             	mov    %rdx,(%rax)
    ca7a:	48 8b 85 78 f1 ff ff 	mov    -0xe88(%rbp),%rax
    ca81:	8b 10                	mov    (%rax),%edx
    ca83:	48 8b 85 f8 f2 ff ff 	mov    -0xd08(%rbp),%rax
    ca8a:	89 10                	mov    %edx,(%rax)
    ca8c:	83 ad 28 f1 ff ff 01 	subl   $0x1,-0xed8(%rbp)
    ca93:	83 bd 28 f1 ff ff f1 	cmpl   $0xfffffff1,-0xed8(%rbp)
    ca9a:	7c b1                	jl     ca4d <func_63+0x2797>
    ca9c:	0f b7 05 8d 45 00 00 	movzwl 0x458d(%rip),%eax        # 11030 <g_84>
    caa3:	83 c0 01             	add    $0x1,%eax
    caa6:	66 89 05 83 45 00 00 	mov    %ax,0x4583(%rip)        # 11030 <g_84>
    caad:	0f b7 05 7c 45 00 00 	movzwl 0x457c(%rip),%eax        # 11030 <g_84>
    cab4:	66 83 f8 06          	cmp    $0x6,%ax
    cab8:	0f 86 77 ff ff ff    	jbe    ca35 <func_63+0x277f>
    cabe:	eb 01                	jmp    cac1 <func_63+0x280b>
    cac0:	90                   	nop
    cac1:	48 8b 85 38 f3 ff ff 	mov    -0xcc8(%rbp),%rax
    cac8:	e9 11 0a 00 00       	jmpq   d4de <func_63+0x3228>
    cacd:	48 8b 85 b8 f0 ff ff 	mov    -0xf48(%rbp),%rax
    cad4:	e9 05 0a 00 00       	jmpq   d4de <func_63+0x3228>
    cad9:	48 8d 85 78 f1 ff ff 	lea    -0xe88(%rbp),%rax
    cae0:	48 89 85 a0 f1 ff ff 	mov    %rax,-0xe60(%rbp)
    cae7:	48 8d 85 60 f3 ff ff 	lea    -0xca0(%rbp),%rax
    caee:	48 83 c0 08          	add    $0x8,%rax
    caf2:	48 89 85 68 f2 ff ff 	mov    %rax,-0xd98(%rbp)
    caf9:	c7 85 60 f1 ff ff fc 	movl   $0xfffffffc,-0xea0(%rbp)
    cb00:	ff ff ff 
    cb03:	66 c7 85 c8 f0 ff ff 	movw   $0x9,-0xf38(%rbp)
    cb0a:	09 00 
    cb0c:	48 8d 85 88 f1 ff ff 	lea    -0xe78(%rbp),%rax
    cb13:	48 89 85 f0 f8 ff ff 	mov    %rax,-0x710(%rbp)
    cb1a:	48 8d 85 88 f1 ff ff 	lea    -0xe78(%rbp),%rax
    cb21:	48 89 85 f8 f8 ff ff 	mov    %rax,-0x708(%rbp)
    cb28:	48 c7 85 00 f9 ff ff 	movq   $0x0,-0x700(%rbp)
    cb2f:	00 00 00 00 
    cb33:	48 8d 85 88 f1 ff ff 	lea    -0xe78(%rbp),%rax
    cb3a:	48 89 85 08 f9 ff ff 	mov    %rax,-0x6f8(%rbp)
    cb41:	48 8d 85 88 f1 ff ff 	lea    -0xe78(%rbp),%rax
    cb48:	48 89 85 10 f9 ff ff 	mov    %rax,-0x6f0(%rbp)
    cb4f:	48 8d 85 88 f1 ff ff 	lea    -0xe78(%rbp),%rax
    cb56:	48 89 85 18 f9 ff ff 	mov    %rax,-0x6e8(%rbp)
    cb5d:	48 8d 85 88 f1 ff ff 	lea    -0xe78(%rbp),%rax
    cb64:	48 89 85 20 f9 ff ff 	mov    %rax,-0x6e0(%rbp)
    cb6b:	48 8d 85 88 f1 ff ff 	lea    -0xe78(%rbp),%rax
    cb72:	48 89 85 28 f9 ff ff 	mov    %rax,-0x6d8(%rbp)
    cb79:	48 c7 85 30 f9 ff ff 	movq   $0x0,-0x6d0(%rbp)
    cb80:	00 00 00 00 
    cb84:	48 8d 85 88 f1 ff ff 	lea    -0xe78(%rbp),%rax
    cb8b:	48 89 85 38 f9 ff ff 	mov    %rax,-0x6c8(%rbp)
    cb92:	48 8d 85 88 f1 ff ff 	lea    -0xe78(%rbp),%rax
    cb99:	48 89 85 40 f9 ff ff 	mov    %rax,-0x6c0(%rbp)
    cba0:	48 8d 85 88 f1 ff ff 	lea    -0xe78(%rbp),%rax
    cba7:	48 89 85 48 f9 ff ff 	mov    %rax,-0x6b8(%rbp)
    cbae:	48 8d 85 88 f1 ff ff 	lea    -0xe78(%rbp),%rax
    cbb5:	48 89 85 50 f9 ff ff 	mov    %rax,-0x6b0(%rbp)
    cbbc:	48 8d 85 88 f1 ff ff 	lea    -0xe78(%rbp),%rax
    cbc3:	48 89 85 58 f9 ff ff 	mov    %rax,-0x6a8(%rbp)
    cbca:	48 c7 85 60 f9 ff ff 	movq   $0x0,-0x6a0(%rbp)
    cbd1:	00 00 00 00 
    cbd5:	48 8d 85 88 f1 ff ff 	lea    -0xe78(%rbp),%rax
    cbdc:	48 89 85 68 f9 ff ff 	mov    %rax,-0x698(%rbp)
    cbe3:	48 8d 85 88 f1 ff ff 	lea    -0xe78(%rbp),%rax
    cbea:	48 89 85 70 f9 ff ff 	mov    %rax,-0x690(%rbp)
    cbf1:	48 8d 85 88 f1 ff ff 	lea    -0xe78(%rbp),%rax
    cbf8:	48 89 85 78 f9 ff ff 	mov    %rax,-0x688(%rbp)
    cbff:	48 8d 85 88 f1 ff ff 	lea    -0xe78(%rbp),%rax
    cc06:	48 89 85 80 f9 ff ff 	mov    %rax,-0x680(%rbp)
    cc0d:	48 8d 85 88 f1 ff ff 	lea    -0xe78(%rbp),%rax
    cc14:	48 89 85 88 f9 ff ff 	mov    %rax,-0x678(%rbp)
    cc1b:	48 c7 85 90 f9 ff ff 	movq   $0x0,-0x670(%rbp)
    cc22:	00 00 00 00 
    cc26:	48 8d 85 88 f1 ff ff 	lea    -0xe78(%rbp),%rax
    cc2d:	48 89 85 98 f9 ff ff 	mov    %rax,-0x668(%rbp)
    cc34:	48 8d 85 88 f1 ff ff 	lea    -0xe78(%rbp),%rax
    cc3b:	48 89 85 a0 f9 ff ff 	mov    %rax,-0x660(%rbp)
    cc42:	48 8d 85 88 f1 ff ff 	lea    -0xe78(%rbp),%rax
    cc49:	48 89 85 a8 f9 ff ff 	mov    %rax,-0x658(%rbp)
    cc50:	c7 85 64 f1 ff ff ff 	movl   $0xffffffff,-0xe9c(%rbp)
    cc57:	ff ff ff 
    cc5a:	66 c7 85 ca f0 ff ff 	movw   $0xa31,-0xf36(%rbp)
    cc61:	31 0a 
    cc63:	48 8d 85 e0 f0 ff ff 	lea    -0xf20(%rbp),%rax
    cc6a:	48 89 85 a8 f1 ff ff 	mov    %rax,-0xe58(%rbp)
    cc71:	66 c7 85 cc f0 ff ff 	movw   $0x4c67,-0xf34(%rbp)
    cc78:	67 4c 
    cc7a:	c7 85 68 f1 ff ff f6 	movl   $0xfffffff6,-0xe98(%rbp)
    cc81:	ff ff ff 
    cc84:	c7 85 0c f1 ff ff 00 	movl   $0x0,-0xef4(%rbp)
    cc8b:	00 00 00 
    cc8e:	eb 1e                	jmp    ccae <func_63+0x29f8>
    cc90:	8b 85 0c f1 ff ff    	mov    -0xef4(%rbp),%eax
    cc96:	48 98                	cltq   
    cc98:	48 8d 95 a0 f1 ff ff 	lea    -0xe60(%rbp),%rdx
    cc9f:	48 89 94 c5 60 f3 ff 	mov    %rdx,-0xca0(%rbp,%rax,8)
    cca6:	ff 
    cca7:	83 85 0c f1 ff ff 01 	addl   $0x1,-0xef4(%rbp)
    ccae:	83 bd 0c f1 ff ff 01 	cmpl   $0x1,-0xef4(%rbp)
    ccb5:	7e d9                	jle    cc90 <func_63+0x29da>
    ccb7:	0f b7 85 b4 f0 ff ff 	movzwl -0xf4c(%rbp),%eax
    ccbe:	0f be d8             	movsbl %al,%ebx
    ccc1:	48 8b 95 68 f3 ff ff 	mov    -0xc98(%rbp),%rdx
    ccc8:	48 8b 85 68 f2 ff ff 	mov    -0xd98(%rbp),%rax
    cccf:	48 89 10             	mov    %rdx,(%rax)
    ccd2:	48 83 bd c0 f1 ff ff 	cmpq   $0x0,-0xe40(%rbp)
    ccd9:	00 
    ccda:	0f 94 c2             	sete   %dl
    ccdd:	48 8b 85 88 f1 ff ff 	mov    -0xe78(%rbp),%rax
    cce4:	48 85 c0             	test   %rax,%rax
    cce7:	0f 94 c0             	sete   %al
    ccea:	09 d0                	or     %edx,%eax
    ccec:	84 c0                	test   %al,%al
    ccee:	75 0c                	jne    ccfc <func_63+0x2a46>
    ccf0:	0f b7 85 b4 f0 ff ff 	movzwl -0xf4c(%rbp),%eax
    ccf7:	66 85 c0             	test   %ax,%ax
    ccfa:	74 07                	je     cd03 <func_63+0x2a4d>
    ccfc:	b8 01 00 00 00       	mov    $0x1,%eax
    cd01:	eb 05                	jmp    cd08 <func_63+0x2a52>
    cd03:	b8 00 00 00 00       	mov    $0x0,%eax
    cd08:	83 f8 fe             	cmp    $0xfffffffe,%eax
    cd0b:	0f 9c c0             	setl   %al
    cd0e:	0f b6 d0             	movzbl %al,%edx
    cd11:	0f b7 85 b4 f0 ff ff 	movzwl -0xf4c(%rbp),%eax
    cd18:	98                   	cwtl   
    cd19:	39 c2                	cmp    %eax,%edx
    cd1b:	0f 9c c0             	setl   %al
    cd1e:	0f b6 c0             	movzbl %al,%eax
    cd21:	89 c6                	mov    %eax,%esi
    cd23:	bf cb 00 00 00       	mov    $0xcb,%edi
    cd28:	e8 60 7f ff ff       	callq  4c8d <safe_rshift_func_uint8_t_u_s>
    cd2d:	0f be c0             	movsbl %al,%eax
    cd30:	89 de                	mov    %ebx,%esi
    cd32:	89 c7                	mov    %eax,%edi
    cd34:	e8 f8 74 ff ff       	callq  4231 <safe_mod_func_int8_t_s_s>
    cd39:	89 c2                	mov    %eax,%edx
    cd3b:	48 8b 85 88 f1 ff ff 	mov    -0xe78(%rbp),%rax
    cd42:	48 0f be d2          	movsbq %dl,%rdx
    cd46:	48 89 10             	mov    %rdx,(%rax)
    cd49:	48 8b 00             	mov    (%rax),%rax
    cd4c:	48 89 c6             	mov    %rax,%rsi
    cd4f:	48 bf 12 db 4a e2 90 	movabs $0x327d8690e24adb12,%rdi
    cd56:	86 7d 32 
    cd59:	e8 22 83 ff ff       	callq  5080 <safe_mod_func_uint64_t_u_u>
    cd5e:	48 85 c0             	test   %rax,%rax
    cd61:	74 2a                	je     cd8d <func_63+0x2ad7>
    cd63:	48 8b 85 78 f1 ff ff 	mov    -0xe88(%rbp),%rax
    cd6a:	8b 08                	mov    (%rax),%ecx
    cd6c:	0f b7 85 b4 f0 ff ff 	movzwl -0xf4c(%rbp),%eax
    cd73:	0f bf d0             	movswl %ax,%edx
    cd76:	48 8b 85 78 f1 ff ff 	mov    -0xe88(%rbp),%rax
    cd7d:	09 ca                	or     %ecx,%edx
    cd7f:	89 10                	mov    %edx,(%rax)
    cd81:	48 8b 85 b8 f0 ff ff 	mov    -0xf48(%rbp),%rax
    cd88:	e9 51 07 00 00       	jmpq   d4de <func_63+0x3228>
    cd8d:	48 8d 85 e0 f0 ff ff 	lea    -0xf20(%rbp),%rax
    cd94:	48 89 85 70 f2 ff ff 	mov    %rax,-0xd90(%rbp)
    cd9b:	48 8d 85 d0 f0 ff ff 	lea    -0xf30(%rbp),%rax
    cda2:	48 89 85 78 f2 ff ff 	mov    %rax,-0xd88(%rbp)
    cda9:	48 c7 85 80 f2 ff ff 	movq   $0x0,-0xd80(%rbp)
    cdb0:	00 00 00 00 
    cdb4:	48 c7 85 30 f4 ff ff 	movq   $0x0,-0xbd0(%rbp)
    cdbb:	00 00 00 00 
    cdbf:	48 c7 85 38 f4 ff ff 	movq   $0x0,-0xbc8(%rbp)
    cdc6:	00 00 00 00 
    cdca:	48 c7 85 40 f4 ff ff 	movq   $0x0,-0xbc0(%rbp)
    cdd1:	00 00 00 00 
    cdd5:	48 c7 85 48 f4 ff ff 	movq   $0x0,-0xbb8(%rbp)
    cddc:	00 00 00 00 
    cde0:	48 c7 85 50 f4 ff ff 	movq   $0x0,-0xbb0(%rbp)
    cde7:	00 00 00 00 
    cdeb:	48 c7 85 58 f4 ff ff 	movq   $0x0,-0xba8(%rbp)
    cdf2:	00 00 00 00 
    cdf6:	66 c7 85 30 f4 ff ff 	movw   $0x33dd,-0xbd0(%rbp)
    cdfd:	dd 33 
    cdff:	66 c7 85 38 f4 ff ff 	movw   $0x33dd,-0xbc8(%rbp)
    ce06:	dd 33 
    ce08:	66 c7 85 48 f4 ff ff 	movw   $0x33dd,-0xbb8(%rbp)
    ce0f:	dd 33 
    ce11:	66 c7 85 50 f4 ff ff 	movw   $0x33dd,-0xbb0(%rbp)
    ce18:	dd 33 
    ce1a:	c7 85 10 f1 ff ff 00 	movl   $0x0,-0xef0(%rbp)
    ce21:	00 00 00 
    ce24:	eb 19                	jmp    ce3f <func_63+0x2b89>
    ce26:	8b 85 10 f1 ff ff    	mov    -0xef0(%rbp),%eax
    ce2c:	48 98                	cltq   
    ce2e:	66 c7 84 45 30 f3 ff 	movw   $0xc0bd,-0xcd0(%rbp,%rax,2)
    ce35:	ff bd c0 
    ce38:	83 85 10 f1 ff ff 01 	addl   $0x1,-0xef0(%rbp)
    ce3f:	83 bd 10 f1 ff ff 00 	cmpl   $0x0,-0xef0(%rbp)
    ce46:	7e de                	jle    ce26 <func_63+0x2b70>
    ce48:	90                   	nop
    ce49:	0f b7 85 b4 f0 ff ff 	movzwl -0xf4c(%rbp),%eax
    ce50:	98                   	cwtl   
    ce51:	48 8b 95 70 f2 ff ff 	mov    -0xd90(%rbp),%rdx
    ce58:	8b 8d e0 f0 ff ff    	mov    -0xf20(%rbp),%ecx
    ce5e:	89 0a                	mov    %ecx,(%rdx)
    ce60:	89 c6                	mov    %eax,%esi
    ce62:	bf 01 00 00 00       	mov    $0x1,%edi
    ce67:	e8 99 77 ff ff       	callq  4605 <safe_sub_func_int32_t_s_s>
    ce6c:	48 63 d8             	movslq %eax,%rbx
    ce6f:	0f b7 85 b4 f0 ff ff 	movzwl -0xf4c(%rbp),%eax
    ce76:	48 0f bf d0          	movswq %ax,%rdx
    ce7a:	48 8b 05 c7 42 00 00 	mov    0x42c7(%rip),%rax        # 11148 <g_134+0x68>
    ce81:	48 39 c2             	cmp    %rax,%rdx
    ce84:	0f 96 c0             	setbe  %al
    ce87:	0f b6 c0             	movzbl %al,%eax
    ce8a:	89 c7                	mov    %eax,%edi
    ce8c:	e8 15 80 ff ff       	callq  4ea6 <safe_unary_minus_func_uint32_t_u>
    ce91:	89 c0                	mov    %eax,%eax
    ce93:	48 89 de             	mov    %rbx,%rsi
    ce96:	48 89 c7             	mov    %rax,%rdi
    ce99:	e8 59 7b ff ff       	callq  49f7 <safe_div_func_int64_t_s_s>
    ce9e:	48 85 c0             	test   %rax,%rax
    cea1:	0f 95 c0             	setne  %al
    cea4:	0f b6 d0             	movzbl %al,%edx
    cea7:	0f b7 85 b4 f0 ff ff 	movzwl -0xf4c(%rbp),%eax
    ceae:	98                   	cwtl   
    ceaf:	39 c2                	cmp    %eax,%edx
    ceb1:	0f 95 c0             	setne  %al
    ceb4:	0f b6 d0             	movzbl %al,%edx
    ceb7:	48 8b 85 78 f2 ff ff 	mov    -0xd88(%rbp),%rax
    cebe:	89 10                	mov    %edx,(%rax)
    cec0:	48 8b 85 78 f2 ff ff 	mov    -0xd88(%rbp),%rax
    cec7:	8b 00                	mov    (%rax),%eax
    cec9:	89 c2                	mov    %eax,%edx
    cecb:	48 8b 05 06 5d 00 00 	mov    0x5d06(%rip),%rax        # 12bd8 <g_204>
    ced2:	66 81 f2 05 fb       	xor    $0xfb05,%dx
    ced7:	66 89 10             	mov    %dx,(%rax)
    ceda:	0f b7 00             	movzwl (%rax),%eax
    cedd:	0f b7 c0             	movzwl %ax,%eax
    cee0:	39 85 60 f1 ff ff    	cmp    %eax,-0xea0(%rbp)
    cee6:	0f 93 c0             	setae  %al
    cee9:	0f b6 c0             	movzbl %al,%eax
    ceec:	be ce ff ff ff       	mov    $0xffffffce,%esi
    cef1:	89 c7                	mov    %eax,%edi
    cef3:	e8 1a 73 ff ff       	callq  4212 <safe_mul_func_int8_t_s_s>
    cef8:	48 8b 85 c8 f1 ff ff 	mov    -0xe38(%rbp),%rax
    ceff:	48 3b 85 80 f2 ff ff 	cmp    -0xd80(%rbp),%rax
    cf06:	0f 95 c0             	setne  %al
    cf09:	0f b6 d0             	movzbl %al,%edx
    cf0c:	48 8b 05 a5 43 00 00 	mov    0x43a5(%rip),%rax        # 112b8 <g_134+0x1d8>
    cf13:	48 39 c2             	cmp    %rax,%rdx
    cf16:	0f 95 c0             	setne  %al
    cf19:	0f b6 d0             	movzbl %al,%edx
    cf1c:	0f b6 85 c0 f0 ff ff 	movzbl -0xf40(%rbp),%eax
    cf23:	39 c2                	cmp    %eax,%edx
    cf25:	0f 9e c0             	setle  %al
    cf28:	0f b6 d0             	movzbl %al,%edx
    cf2b:	0f b7 85 b4 f0 ff ff 	movzwl -0xf4c(%rbp),%eax
    cf32:	98                   	cwtl   
    cf33:	39 c2                	cmp    %eax,%edx
    cf35:	0f 95 c0             	setne  %al
    cf38:	0f b6 d0             	movzbl %al,%edx
    cf3b:	0f b7 85 b4 f0 ff ff 	movzwl -0xf4c(%rbp),%eax
    cf42:	98                   	cwtl   
    cf43:	09 c2                	or     %eax,%edx
    cf45:	0f bf 85 c8 f0 ff ff 	movswl -0xf38(%rbp),%eax
    cf4c:	39 c2                	cmp    %eax,%edx
    cf4e:	48 8b 05 63 44 00 00 	mov    0x4463(%rip),%rax        # 113b8 <g_149+0x8>
    cf55:	c1 e0 07             	shl    $0x7,%eax
    cf58:	66 c1 f8 07          	sar    $0x7,%ax
    cf5c:	0f bf d0             	movswl %ax,%edx
    cf5f:	48 8b 85 a0 f1 ff ff 	mov    -0xe60(%rbp),%rax
    cf66:	48 8b 00             	mov    (%rax),%rax
    cf69:	83 e2 71             	and    $0x71,%edx
    cf6c:	89 10                	mov    %edx,(%rax)
    cf6e:	0f b7 85 b4 f0 ff ff 	movzwl -0xf4c(%rbp),%eax
    cf75:	66 85 c0             	test   %ax,%ax
    cf78:	0f 84 b0 01 00 00    	je     d12e <func_63+0x2e78>
    cf7e:	48 c7 85 88 f2 ff ff 	movq   $0x0,-0xd78(%rbp)
    cf85:	00 00 00 00 
    cf89:	48 8d 05 f9 45 00 00 	lea    0x45f9(%rip),%rax        # 11589 <g_162+0x1>
    cf90:	48 89 85 90 f2 ff ff 	mov    %rax,-0xd70(%rbp)
    cf97:	c7 85 6c f1 ff ff 01 	movl   $0x1,-0xe94(%rbp)
    cf9e:	00 00 00 
    cfa1:	c6 05 8a 40 00 00 00 	movb   $0x0,0x408a(%rip)        # 11032 <g_90>
    cfa8:	90                   	nop
    cfa9:	0f b6 05 82 40 00 00 	movzbl 0x4082(%rip),%eax        # 11032 <g_90>
    cfb0:	3c 03                	cmp    $0x3,%al
    cfb2:	7e 0c                	jle    cfc0 <func_63+0x2d0a>
    cfb4:	48 8b 85 b8 f0 ff ff 	mov    -0xf48(%rbp),%rax
    cfbb:	e9 1e 05 00 00       	jmpq   d4de <func_63+0x3228>
    cfc0:	8b 9d 6c f1 ff ff    	mov    -0xe94(%rbp),%ebx
    cfc6:	0f b7 85 b4 f0 ff ff 	movzwl -0xf4c(%rbp),%eax
    cfcd:	4c 0f bf e0          	movswq %ax,%r12
    cfd1:	48 8b 85 b8 f0 ff ff 	mov    -0xf48(%rbp),%rax
    cfd8:	8b 10                	mov    (%rax),%edx
    cfda:	0f b6 05 a9 45 00 00 	movzbl 0x45a9(%rip),%eax        # 1158a <g_162+0x2>
    cfe1:	0f b6 c0             	movzbl %al,%eax
    cfe4:	39 c2                	cmp    %eax,%edx
    cfe6:	0f 92 c0             	setb   %al
    cfe9:	0f b6 c0             	movzbl %al,%eax
    cfec:	89 c7                	mov    %eax,%edi
    cfee:	e8 f6 7c ff ff       	callq  4ce9 <safe_unary_minus_func_uint16_t_u>
    cff3:	66 85 c0             	test   %ax,%ax
    cff6:	0f 84 f5 00 00 00    	je     d0f1 <func_63+0x2e3b>
    cffc:	48 8b 05 9d 40 00 00 	mov    0x409d(%rip),%rax        # 110a0 <g_106+0x20>
    d003:	49 89 c7             	mov    %rax,%r15
    d006:	44 8b ad 64 f1 ff ff 	mov    -0xe9c(%rbp),%r13d
    d00d:	48 8b 85 90 f2 ff ff 	mov    -0xd70(%rbp),%rax
    d014:	0f b6 00             	movzbl (%rax),%eax
    d017:	8d 50 01             	lea    0x1(%rax),%edx
    d01a:	48 8b 85 90 f2 ff ff 	mov    -0xd70(%rbp),%rax
    d021:	88 10                	mov    %dl,(%rax)
    d023:	48 8b 85 90 f2 ff ff 	mov    -0xd70(%rbp),%rax
    d02a:	0f b6 00             	movzbl (%rax),%eax
    d02d:	44 0f b6 f0          	movzbl %al,%r14d
    d031:	0f b6 05 5c 45 00 00 	movzbl 0x455c(%rip),%eax        # 11594 <g_273>
    d038:	0f b6 c8             	movzbl %al,%ecx
    d03b:	0f b7 95 b4 f0 ff ff 	movzwl -0xf4c(%rbp),%edx
    d042:	48 8b 85 78 f1 ff ff 	mov    -0xe88(%rbp),%rax
    d049:	0f bf d2             	movswl %dx,%edx
    d04c:	89 10                	mov    %edx,(%rax)
    d04e:	8b 00                	mov    (%rax),%eax
    d050:	39 c1                	cmp    %eax,%ecx
    d052:	0f 9f c0             	setg   %al
    d055:	0f b6 c0             	movzbl %al,%eax
    d058:	be 03 00 00 00       	mov    $0x3,%esi
    d05d:	89 c7                	mov    %eax,%edi
    d05f:	e8 3d 72 ff ff       	callq  42a1 <safe_lshift_func_int8_t_s_s>
    d064:	84 c0                	test   %al,%al
    d066:	75 0c                	jne    d074 <func_63+0x2dbe>
    d068:	0f b7 85 b4 f0 ff ff 	movzwl -0xf4c(%rbp),%eax
    d06f:	66 85 c0             	test   %ax,%ax
    d072:	74 07                	je     d07b <func_63+0x2dc5>
    d074:	b8 01 00 00 00       	mov    $0x1,%eax
    d079:	eb 05                	jmp    d080 <func_63+0x2dca>
    d07b:	b8 00 00 00 00       	mov    $0x0,%eax
    d080:	3d e2 00 00 00       	cmp    $0xe2,%eax
    d085:	0f 95 c0             	setne  %al
    d088:	0f b6 d0             	movzbl %al,%edx
    d08b:	0f b7 85 b4 f0 ff ff 	movzwl -0xf4c(%rbp),%eax
    d092:	98                   	cwtl   
    d093:	39 c2                	cmp    %eax,%edx
    d095:	0f 95 c0             	setne  %al
    d098:	0f b6 c0             	movzbl %al,%eax
    d09b:	41 39 c6             	cmp    %eax,%r14d
    d09e:	0f 95 c0             	setne  %al
    d0a1:	0f b6 c0             	movzbl %al,%eax
    d0a4:	4c 89 ee             	mov    %r13,%rsi
    d0a7:	48 89 c7             	mov    %rax,%rdi
    d0aa:	e8 48 79 ff ff       	callq  49f7 <safe_div_func_int64_t_s_s>
    d0af:	be 03 00 00 00       	mov    $0x3,%esi
    d0b4:	bf 00 00 00 00       	mov    $0x0,%edi
    d0b9:	e8 00 7c ff ff       	callq  4cbe <safe_rshift_func_uint8_t_u_u>
    d0be:	0f b6 c0             	movzbl %al,%eax
    d0c1:	4c 89 fe             	mov    %r15,%rsi
    d0c4:	48 89 c7             	mov    %rax,%rdi
    d0c7:	e8 7f 7f ff ff       	callq  504b <safe_sub_func_uint64_t_u_u>
    d0cc:	48 8b 85 a0 f9 ff ff 	mov    -0x660(%rbp),%rax
    d0d3:	48 89 85 d0 f1 ff ff 	mov    %rax,-0xe30(%rbp)
    d0da:	48 8b 85 a0 f9 ff ff 	mov    -0x660(%rbp),%rax
    d0e1:	48 39 85 d0 f1 ff ff 	cmp    %rax,-0xe30(%rbp)
    d0e8:	75 07                	jne    d0f1 <func_63+0x2e3b>
    d0ea:	ba 01 00 00 00       	mov    $0x1,%edx
    d0ef:	eb 05                	jmp    d0f6 <func_63+0x2e40>
    d0f1:	ba 00 00 00 00       	mov    $0x0,%edx
    d0f6:	48 8b 85 88 f1 ff ff 	mov    -0xe78(%rbp),%rax
    d0fd:	48 63 d2             	movslq %edx,%rdx
    d100:	48 89 10             	mov    %rdx,(%rax)
    d103:	48 8b 00             	mov    (%rax),%rax
    d106:	4c 89 e6             	mov    %r12,%rsi
    d109:	48 89 c7             	mov    %rax,%rdi
    d10c:	e8 9e 7f ff ff       	callq  50af <safe_div_func_uint64_t_u_u>
    d111:	83 e0 01             	and    $0x1,%eax
    d114:	89 de                	mov    %ebx,%esi
    d116:	89 c7                	mov    %eax,%edi
    d118:	e8 9b 7d ff ff       	callq  4eb8 <safe_add_func_uint32_t_u_u>
    d11d:	b8 01 00 00 00       	mov    $0x1,%eax
    d122:	66 09 85 ca f0 ff ff 	or     %ax,-0xf36(%rbp)
    d129:	e9 dc 01 00 00       	jmpq   d30a <func_63+0x3054>
    d12e:	0f b7 05 fb 3e 00 00 	movzwl 0x3efb(%rip),%eax        # 11030 <g_84>
    d135:	66 85 c0             	test   %ax,%ax
    d138:	74 05                	je     d13f <func_63+0x2e89>
    d13a:	e9 0a fd ff ff       	jmpq   ce49 <func_63+0x2b93>
    d13f:	0f b7 85 b4 f0 ff ff 	movzwl -0xf4c(%rbp),%eax
    d146:	66 85 c0             	test   %ax,%ax
    d149:	74 4f                	je     d19a <func_63+0x2ee4>
    d14b:	c6 85 c3 f0 ff ff dc 	movb   $0xdc,-0xf3d(%rbp)
    d152:	c7 85 e0 f0 ff ff 00 	movl   $0x0,-0xf20(%rbp)
    d159:	00 00 00 
    d15c:	90                   	nop
    d15d:	8b 85 e0 f0 ff ff    	mov    -0xf20(%rbp),%eax
    d163:	83 f8 08             	cmp    $0x8,%eax
    d166:	7f 0f                	jg     d177 <func_63+0x2ec1>
    d168:	48 8b 05 11 5b 00 00 	mov    0x5b11(%rip),%rax        # 12c80 <g_213>
    d16f:	48 8b 00             	mov    (%rax),%rax
    d172:	e9 67 03 00 00       	jmpq   d4de <func_63+0x3228>
    d177:	48 8b 85 a0 f1 ff ff 	mov    -0xe60(%rbp),%rax
    d17e:	48 8b 95 b8 f0 ff ff 	mov    -0xf48(%rbp),%rdx
    d185:	48 89 10             	mov    %rdx,(%rax)
    d188:	0f b6 85 c3 f0 ff ff 	movzbl -0xf3d(%rbp),%eax
    d18f:	83 c0 01             	add    $0x1,%eax
    d192:	88 85 c3 f0 ff ff    	mov    %al,-0xf3d(%rbp)
    d198:	eb 6c                	jmp    d206 <func_63+0x2f50>
    d19a:	c7 85 d8 f0 ff ff 00 	movl   $0x0,-0xf28(%rbp)
    d1a1:	00 00 00 
    d1a4:	eb 25                	jmp    d1cb <func_63+0x2f15>
    d1a6:	0f b7 95 b4 f0 ff ff 	movzwl -0xf4c(%rbp),%edx
    d1ad:	48 8b 85 90 f1 ff ff 	mov    -0xe70(%rbp),%rax
    d1b4:	48 8b 00             	mov    (%rax),%rax
    d1b7:	0f bf d2             	movswl %dx,%edx
    d1ba:	89 10                	mov    %edx,(%rax)
    d1bc:	8b 85 d8 f0 ff ff    	mov    -0xf28(%rbp),%eax
    d1c2:	83 c0 01             	add    $0x1,%eax
    d1c5:	89 85 d8 f0 ff ff    	mov    %eax,-0xf28(%rbp)
    d1cb:	8b 85 d8 f0 ff ff    	mov    -0xf28(%rbp),%eax
    d1d1:	83 f8 18             	cmp    $0x18,%eax
    d1d4:	7f d0                	jg     d1a6 <func_63+0x2ef0>
    d1d6:	48 8b 85 68 f2 ff ff 	mov    -0xd98(%rbp),%rax
    d1dd:	48 8b 00             	mov    (%rax),%rax
    d1e0:	48 8b 00             	mov    (%rax),%rax
    d1e3:	48 8b 00             	mov    (%rax),%rax
    d1e6:	8b 08                	mov    (%rax),%ecx
    d1e8:	0f b7 85 b4 f0 ff ff 	movzwl -0xf4c(%rbp),%eax
    d1ef:	0f bf d0             	movswl %ax,%edx
    d1f2:	48 8b 85 68 f2 ff ff 	mov    -0xd98(%rbp),%rax
    d1f9:	48 8b 00             	mov    (%rax),%rax
    d1fc:	48 8b 00             	mov    (%rax),%rax
    d1ff:	48 8b 00             	mov    (%rax),%rax
    d202:	09 ca                	or     %ecx,%edx
    d204:	89 10                	mov    %edx,(%rax)
    d206:	0f b6 05 7c 43 00 00 	movzbl 0x437c(%rip),%eax        # 11589 <g_162+0x1>
    d20d:	0f be d8             	movsbl %al,%ebx
    d210:	48 8b 85 a0 f1 ff ff 	mov    -0xe60(%rbp),%rax
    d217:	48 8b 00             	mov    (%rax),%rax
    d21a:	8b 00                	mov    (%rax),%eax
    d21c:	44 0f b7 e0          	movzwl %ax,%r12d
    d220:	0f b6 05 2a 3e 00 00 	movzbl 0x3e2a(%rip),%eax        # 11051 <g_92+0x11>
    d227:	44 0f be e8          	movsbl %al,%r13d
    d22b:	48 8b 05 96 59 00 00 	mov    0x5996(%rip),%rax        # 12bc8 <g_107>
    d232:	48 8b 00             	mov    (%rax),%rax
    d235:	48 85 c0             	test   %rax,%rax
    d238:	74 5b                	je     d295 <func_63+0x2fdf>
    d23a:	0f b7 85 b4 f0 ff ff 	movzwl -0xf4c(%rbp),%eax
    d241:	66 85 c0             	test   %ax,%ax
    d244:	74 4f                	je     d295 <func_63+0x2fdf>
    d246:	48 8b 05 7b 3e 00 00 	mov    0x3e7b(%rip),%rax        # 110c8 <g_110>
    d24d:	0f be d0             	movsbl %al,%edx
    d250:	48 8b 05 61 41 00 00 	mov    0x4161(%rip),%rax        # 113b8 <g_149+0x8>
    d257:	c1 e0 07             	shl    $0x7,%eax
    d25a:	66 c1 f8 07          	sar    $0x7,%ax
    d25e:	0f be c0             	movsbl %al,%eax
    d261:	89 d6                	mov    %edx,%esi
    d263:	89 c7                	mov    %eax,%edi
    d265:	e8 c7 6f ff ff       	callq  4231 <safe_mod_func_int8_t_s_s>
    d26a:	48 0f be d0          	movsbq %al,%rdx
    d26e:	48 8b 05 bb 40 00 00 	mov    0x40bb(%rip),%rax        # 11330 <g_134+0x250>
    d275:	48 39 c2             	cmp    %rax,%rdx
    d278:	0f 92 c0             	setb   %al
    d27b:	0f b6 c0             	movzbl %al,%eax
    d27e:	be 97 1e ba 45       	mov    $0x45ba1e97,%esi
    d283:	89 c7                	mov    %eax,%edi
    d285:	e8 2e 7c ff ff       	callq  4eb8 <safe_add_func_uint32_t_u_u>
    d28a:	85 c0                	test   %eax,%eax
    d28c:	74 07                	je     d295 <func_63+0x2fdf>
    d28e:	b8 01 00 00 00       	mov    $0x1,%eax
    d293:	eb 05                	jmp    d29a <func_63+0x2fe4>
    d295:	b8 00 00 00 00       	mov    $0x0,%eax
    d29a:	85 c0                	test   %eax,%eax
    d29c:	0f 9f c0             	setg   %al
    d29f:	0f b6 c0             	movzbl %al,%eax
    d2a2:	44 89 ee             	mov    %r13d,%esi
    d2a5:	89 c7                	mov    %eax,%edi
    d2a7:	e8 66 6f ff ff       	callq  4212 <safe_mul_func_int8_t_s_s>
    d2ac:	84 c0                	test   %al,%al
    d2ae:	75 09                	jne    d2b9 <func_63+0x3003>
    d2b0:	83 bd 2c f1 ff ff 00 	cmpl   $0x0,-0xed4(%rbp)
    d2b7:	74 07                	je     d2c0 <func_63+0x300a>
    d2b9:	ba 01 00 00 00       	mov    $0x1,%edx
    d2be:	eb 05                	jmp    d2c5 <func_63+0x300f>
    d2c0:	ba 00 00 00 00       	mov    $0x0,%edx
    d2c5:	0f b7 85 b4 f0 ff ff 	movzwl -0xf4c(%rbp),%eax
    d2cc:	98                   	cwtl   
    d2cd:	39 c2                	cmp    %eax,%edx
    d2cf:	0f 9e c0             	setle  %al
    d2d2:	0f b6 c0             	movzbl %al,%eax
    d2d5:	44 89 e6             	mov    %r12d,%esi
    d2d8:	89 c7                	mov    %eax,%edi
    d2da:	e8 7d 7a ff ff       	callq  4d5c <safe_mod_func_uint16_t_u_u>
    d2df:	0f be c0             	movsbl %al,%eax
    d2e2:	89 de                	mov    %ebx,%esi
    d2e4:	89 c7                	mov    %eax,%edi
    d2e6:	e8 07 6f ff ff       	callq  41f2 <safe_sub_func_int8_t_s_s>
    d2eb:	0f b7 85 b4 f0 ff ff 	movzwl -0xf4c(%rbp),%eax
    d2f2:	98                   	cwtl   
    d2f3:	89 c7                	mov    %eax,%edi
    d2f5:	e8 9c 72 ff ff       	callq  4596 <safe_unary_minus_func_int32_t_s>
    d2fa:	0f b7 95 30 f3 ff ff 	movzwl -0xcd0(%rbp),%edx
    d301:	31 d0                	xor    %edx,%eax
    d303:	66 89 85 30 f3 ff ff 	mov    %ax,-0xcd0(%rbp)
    d30a:	0f b7 95 b4 f0 ff ff 	movzwl -0xf4c(%rbp),%edx
    d311:	48 8b 05 a8 58 00 00 	mov    0x58a8(%rip),%rax        # 12bc0 <g_48>
    d318:	0f bf d2             	movswl %dx,%edx
    d31b:	89 10                	mov    %edx,(%rax)
    d31d:	66 c7 85 c4 f0 ff ff 	movw   $0xffec,-0xf3c(%rbp)
    d324:	ec ff 
    d326:	e9 9b 01 00 00       	jmpq   d4c6 <func_63+0x3210>
    d32b:	48 8d 85 a8 f1 ff ff 	lea    -0xe58(%rbp),%rax
    d332:	48 89 85 98 f2 ff ff 	mov    %rax,-0xd68(%rbp)
    d339:	48 c7 85 a0 f2 ff ff 	movq   $0x0,-0xd60(%rbp)
    d340:	00 00 00 00 
    d344:	48 8d 05 07 3d 00 00 	lea    0x3d07(%rip),%rax        # 11052 <g_92+0x12>
    d34b:	48 89 85 a8 f2 ff ff 	mov    %rax,-0xd58(%rbp)
    d352:	48 8d 05 d9 3c 00 00 	lea    0x3cd9(%rip),%rax        # 11032 <g_90>
    d359:	48 89 85 b0 f2 ff ff 	mov    %rax,-0xd50(%rbp)
    d360:	66 c7 85 ce f0 ff ff 	movw   $0x0,-0xf32(%rbp)
    d367:	00 00 
    d369:	48 8d 85 a0 f1 ff ff 	lea    -0xe60(%rbp),%rax
    d370:	48 89 85 b0 f1 ff ff 	mov    %rax,-0xe50(%rbp)
    d377:	48 8d 85 b0 f1 ff ff 	lea    -0xe50(%rbp),%rax
    d37e:	48 89 85 b8 f2 ff ff 	mov    %rax,-0xd48(%rbp)
    d385:	48 8d 85 d8 f0 ff ff 	lea    -0xf28(%rbp),%rax
    d38c:	48 89 85 c0 f2 ff ff 	mov    %rax,-0xd40(%rbp)
    d393:	48 8d 85 e0 f0 ff ff 	lea    -0xf20(%rbp),%rax
    d39a:	48 89 85 c8 f2 ff ff 	mov    %rax,-0xd38(%rbp)
    d3a1:	48 b8 87 87 87 87 87 	movabs $0x8787878787878787,%rax
    d3a8:	87 87 87 
    d3ab:	48 89 45 c0          	mov    %rax,-0x40(%rbp)
    d3af:	c7 85 14 f1 ff ff 00 	movl   $0x0,-0xeec(%rbp)
    d3b6:	00 00 00 
    d3b9:	eb 46                	jmp    d401 <func_63+0x314b>
    d3bb:	c7 85 18 f1 ff ff 00 	movl   $0x0,-0xee8(%rbp)
    d3c2:	00 00 00 
    d3c5:	eb 2a                	jmp    d3f1 <func_63+0x313b>
    d3c7:	8b 85 18 f1 ff ff    	mov    -0xee8(%rbp),%eax
    d3cd:	48 98                	cltq   
    d3cf:	8b 95 14 f1 ff ff    	mov    -0xeec(%rbp),%edx
    d3d5:	48 63 d2             	movslq %edx,%rdx
    d3d8:	48 c1 e2 03          	shl    $0x3,%rdx
    d3dc:	48 01 d0             	add    %rdx,%rax
    d3df:	c7 84 85 30 f4 ff ff 	movl   $0xffffffff,-0xbd0(%rbp,%rax,4)
    d3e6:	ff ff ff ff 
    d3ea:	83 85 18 f1 ff ff 01 	addl   $0x1,-0xee8(%rbp)
    d3f1:	83 bd 18 f1 ff ff 07 	cmpl   $0x7,-0xee8(%rbp)
    d3f8:	7e cd                	jle    d3c7 <func_63+0x3111>
    d3fa:	83 85 14 f1 ff ff 01 	addl   $0x1,-0xeec(%rbp)
    d401:	83 bd 14 f1 ff ff 00 	cmpl   $0x0,-0xeec(%rbp)
    d408:	7e b1                	jle    d3bb <func_63+0x3105>
    d40a:	48 8b 85 68 f2 ff ff 	mov    -0xd98(%rbp),%rax
    d411:	48 8b 00             	mov    (%rax),%rax
    d414:	48 8b 00             	mov    (%rax),%rax
    d417:	48 8b 95 b8 f0 ff ff 	mov    -0xf48(%rbp),%rdx
    d41e:	48 89 10             	mov    %rdx,(%rax)
    d421:	48 8b 95 a8 f1 ff ff 	mov    -0xe58(%rbp),%rdx
    d428:	48 8b 85 98 f2 ff ff 	mov    -0xd68(%rbp),%rax
    d42f:	48 89 10             	mov    %rdx,(%rax)
    d432:	c7 05 54 41 00 00 00 	movl   $0x0,0x4154(%rip)        # 11590 <g_260>
    d439:	00 00 00 
    d43c:	eb 63                	jmp    d4a1 <func_63+0x31eb>
    d43e:	c7 05 e4 3b 00 00 00 	movl   $0x0,0x3be4(%rip)        # 1102c <g_49>
    d445:	00 00 00 
    d448:	eb 3d                	jmp    d487 <func_63+0x31d1>
    d44a:	8b 15 40 41 00 00    	mov    0x4140(%rip),%edx        # 11590 <g_260>
    d450:	8b 05 d6 3b 00 00    	mov    0x3bd6(%rip),%eax        # 1102c <g_49>
    d456:	48 98                	cltq   
    d458:	48 63 d2             	movslq %edx,%rdx
    d45b:	48 c1 e2 03          	shl    $0x3,%rdx
    d45f:	48 01 d0             	add    %rdx,%rax
    d462:	48 8d 14 85 00 00 00 	lea    0x0(,%rax,4),%rdx
    d469:	00 
    d46a:	48 8d 05 2f 41 00 00 	lea    0x412f(%rip),%rax        # 115a0 <g_359>
    d471:	c7 04 02 05 00 00 00 	movl   $0x5,(%rdx,%rax,1)
    d478:	8b 05 ae 3b 00 00    	mov    0x3bae(%rip),%eax        # 1102c <g_49>
    d47e:	83 c0 01             	add    $0x1,%eax
    d481:	89 05 a5 3b 00 00    	mov    %eax,0x3ba5(%rip)        # 1102c <g_49>
    d487:	8b 05 9f 3b 00 00    	mov    0x3b9f(%rip),%eax        # 1102c <g_49>
    d48d:	83 f8 07             	cmp    $0x7,%eax
    d490:	7e b8                	jle    d44a <func_63+0x3194>
    d492:	8b 05 f8 40 00 00    	mov    0x40f8(%rip),%eax        # 11590 <g_260>
    d498:	83 c0 01             	add    $0x1,%eax
    d49b:	89 05 ef 40 00 00    	mov    %eax,0x40ef(%rip)        # 11590 <g_260>
    d4a1:	8b 05 e9 40 00 00    	mov    0x40e9(%rip),%eax        # 11590 <g_260>
    d4a7:	83 f8 03             	cmp    $0x3,%eax
    d4aa:	7e 92                	jle    d43e <func_63+0x3188>
    d4ac:	0f b7 85 c4 f0 ff ff 	movzwl -0xf3c(%rbp),%eax
    d4b3:	be 03 00 00 00       	mov    $0x3,%esi
    d4b8:	89 c7                	mov    %eax,%edi
    d4ba:	e8 f7 70 ff ff       	callq  45b6 <safe_add_func_int32_t_s_s>
    d4bf:	66 89 85 c4 f0 ff ff 	mov    %ax,-0xf3c(%rbp)
    d4c6:	66 83 bd c4 f0 ff ff 	cmpw   $0x24,-0xf3c(%rbp)
    d4cd:	24 
    d4ce:	0f 86 57 fe ff ff    	jbe    d32b <func_63+0x3075>
    d4d4:	48 8b 05 d5 57 00 00 	mov    0x57d5(%rip),%rax        # 12cb0 <g_515>
    d4db:	48 8b 00             	mov    (%rax),%rax
    d4de:	48 8b 4d c8          	mov    -0x38(%rbp),%rcx
    d4e2:	64 48 33 0c 25 28 00 	xor    %fs:0x28,%rcx
    d4e9:	00 00 
    d4eb:	74 05                	je     d4f2 <func_63+0x323c>
    d4ed:	e8 7e 6b ff ff       	callq  4070 <__stack_chk_fail@plt>
    d4f2:	48 81 c4 38 0f 00 00 	add    $0xf38,%rsp
    d4f9:	5b                   	pop    %rbx
    d4fa:	41 5c                	pop    %r12
    d4fc:	41 5d                	pop    %r13
    d4fe:	41 5e                	pop    %r14
    d500:	41 5f                	pop    %r15
    d502:	5d                   	pop    %rbp
    d503:	c3                   	retq   

000000000000d504 <main>:
    d504:	f3 0f 1e fa          	endbr64 
    d508:	55                   	push   %rbp
    d509:	48 89 e5             	mov    %rsp,%rbp
    d50c:	48 83 ec 20          	sub    $0x20,%rsp
    d510:	89 7d ec             	mov    %edi,-0x14(%rbp)
    d513:	48 89 75 e0          	mov    %rsi,-0x20(%rbp)
    d517:	c7 45 fc 00 00 00 00 	movl   $0x0,-0x4(%rbp)
    d51e:	83 7d ec 02          	cmpl   $0x2,-0x14(%rbp)
    d522:	75 25                	jne    d549 <main+0x45>
    d524:	48 8b 45 e0          	mov    -0x20(%rbp),%rax
    d528:	48 83 c0 08          	add    $0x8,%rax
    d52c:	48 8b 00             	mov    (%rax),%rax
    d52f:	48 8d 35 2a 0f 00 00 	lea    0xf2a(%rip),%rsi        # e460 <g_67+0x400>
    d536:	48 89 c7             	mov    %rax,%rdi
    d539:	e8 52 6b ff ff       	callq  4090 <strcmp@plt>
    d53e:	85 c0                	test   %eax,%eax
    d540:	75 07                	jne    d549 <main+0x45>
    d542:	c7 45 fc 01 00 00 00 	movl   $0x1,-0x4(%rbp)
    d549:	e8 3b 6c ff ff       	callq  4189 <platform_main_begin>
    d54e:	e8 45 80 ff ff       	callq  5598 <crc32_gentab>
    d553:	e8 5d 82 ff ff       	callq  57b5 <func_1>
    d558:	0f b6 05 09 5f 00 00 	movzbl 0x5f09(%rip),%eax        # 13468 <g_5>
    d55f:	0f b6 c0             	movzbl %al,%eax
    d562:	8b 55 fc             	mov    -0x4(%rbp),%edx
    d565:	48 8d 35 f6 0e 00 00 	lea    0xef6(%rip),%rsi        # e462 <g_67+0x402>
    d56c:	48 89 c7             	mov    %rax,%rdi
    d56f:	e8 7f 81 ff ff       	callq  56f3 <transparent_crc>
    d574:	8b 05 aa 3a 00 00    	mov    0x3aaa(%rip),%eax        # 11024 <g_43>
    d57a:	89 c1                	mov    %eax,%ecx
    d57c:	8b 45 fc             	mov    -0x4(%rbp),%eax
    d57f:	89 c2                	mov    %eax,%edx
    d581:	48 8d 35 de 0e 00 00 	lea    0xede(%rip),%rsi        # e466 <g_67+0x406>
    d588:	48 89 cf             	mov    %rcx,%rdi
    d58b:	e8 63 81 ff ff       	callq  56f3 <transparent_crc>
    d590:	8b 05 92 3a 00 00    	mov    0x3a92(%rip),%eax        # 11028 <g_47>
    d596:	48 98                	cltq   
    d598:	8b 55 fc             	mov    -0x4(%rbp),%edx
    d59b:	48 8d 35 c9 0e 00 00 	lea    0xec9(%rip),%rsi        # e46b <g_67+0x40b>
    d5a2:	48 89 c7             	mov    %rax,%rdi
    d5a5:	e8 49 81 ff ff       	callq  56f3 <transparent_crc>
    d5aa:	8b 05 7c 3a 00 00    	mov    0x3a7c(%rip),%eax        # 1102c <g_49>
    d5b0:	48 98                	cltq   
    d5b2:	8b 55 fc             	mov    -0x4(%rbp),%edx
    d5b5:	48 8d 35 b4 0e 00 00 	lea    0xeb4(%rip),%rsi        # e470 <g_67+0x410>
    d5bc:	48 89 c7             	mov    %rax,%rdi
    d5bf:	e8 2f 81 ff ff       	callq  56f3 <transparent_crc>
    d5c4:	c7 45 f0 00 00 00 00 	movl   $0x0,-0x10(%rbp)
    d5cb:	eb 4e                	jmp    d61b <main+0x117>
    d5cd:	8b 45 f0             	mov    -0x10(%rbp),%eax
    d5d0:	48 98                	cltq   
    d5d2:	48 8d 14 85 00 00 00 	lea    0x0(,%rax,4),%rdx
    d5d9:	00 
    d5da:	48 8d 05 7f 0a 00 00 	lea    0xa7f(%rip),%rax        # e060 <g_67>
    d5e1:	0f b7 04 02          	movzwl (%rdx,%rax,1),%eax
    d5e5:	48 0f bf c0          	movswq %ax,%rax
    d5e9:	8b 55 fc             	mov    -0x4(%rbp),%edx
    d5ec:	48 8d 35 82 0e 00 00 	lea    0xe82(%rip),%rsi        # e475 <g_67+0x415>
    d5f3:	48 89 c7             	mov    %rax,%rdi
    d5f6:	e8 f8 80 ff ff       	callq  56f3 <transparent_crc>
    d5fb:	83 7d fc 00          	cmpl   $0x0,-0x4(%rbp)
    d5ff:	74 16                	je     d617 <main+0x113>
    d601:	8b 45 f0             	mov    -0x10(%rbp),%eax
    d604:	89 c6                	mov    %eax,%esi
    d606:	48 8d 3d 73 0e 00 00 	lea    0xe73(%rip),%rdi        # e480 <g_67+0x420>
    d60d:	b8 00 00 00 00       	mov    $0x0,%eax
    d612:	e8 69 6a ff ff       	callq  4080 <printf@plt>
    d617:	83 45 f0 01          	addl   $0x1,-0x10(%rbp)
    d61b:	83 7d f0 04          	cmpl   $0x4,-0x10(%rbp)
    d61f:	7e ac                	jle    d5cd <main+0xc9>
    d621:	0f b7 05 08 3a 00 00 	movzwl 0x3a08(%rip),%eax        # 11030 <g_84>
    d628:	0f b7 c0             	movzwl %ax,%eax
    d62b:	8b 55 fc             	mov    -0x4(%rbp),%edx
    d62e:	48 8d 35 59 0e 00 00 	lea    0xe59(%rip),%rsi        # e48e <g_67+0x42e>
    d635:	48 89 c7             	mov    %rax,%rdi
    d638:	e8 b6 80 ff ff       	callq  56f3 <transparent_crc>
    d63d:	0f b6 05 ee 39 00 00 	movzbl 0x39ee(%rip),%eax        # 11032 <g_90>
    d644:	48 0f be c0          	movsbq %al,%rax
    d648:	8b 55 fc             	mov    -0x4(%rbp),%edx
    d64b:	48 8d 35 41 0e 00 00 	lea    0xe41(%rip),%rsi        # e493 <g_67+0x433>
    d652:	48 89 c7             	mov    %rax,%rdi
    d655:	e8 99 80 ff ff       	callq  56f3 <transparent_crc>
    d65a:	c7 45 f0 00 00 00 00 	movl   $0x0,-0x10(%rbp)
    d661:	eb 6b                	jmp    d6ce <main+0x1ca>
    d663:	c7 45 f4 00 00 00 00 	movl   $0x0,-0xc(%rbp)
    d66a:	eb 58                	jmp    d6c4 <main+0x1c0>
    d66c:	8b 45 f4             	mov    -0xc(%rbp),%eax
    d66f:	48 98                	cltq   
    d671:	8b 55 f0             	mov    -0x10(%rbp),%edx
    d674:	48 63 d2             	movslq %edx,%rdx
    d677:	48 c1 e2 03          	shl    $0x3,%rdx
    d67b:	48 01 c2             	add    %rax,%rdx
    d67e:	48 8d 05 bb 39 00 00 	lea    0x39bb(%rip),%rax        # 11040 <g_92>
    d685:	48 01 d0             	add    %rdx,%rax
    d688:	0f b6 00             	movzbl (%rax),%eax
    d68b:	48 0f be c0          	movsbq %al,%rax
    d68f:	8b 55 fc             	mov    -0x4(%rbp),%edx
    d692:	48 8d 35 ff 0d 00 00 	lea    0xdff(%rip),%rsi        # e498 <g_67+0x438>
    d699:	48 89 c7             	mov    %rax,%rdi
    d69c:	e8 52 80 ff ff       	callq  56f3 <transparent_crc>
    d6a1:	83 7d fc 00          	cmpl   $0x0,-0x4(%rbp)
    d6a5:	74 19                	je     d6c0 <main+0x1bc>
    d6a7:	8b 55 f4             	mov    -0xc(%rbp),%edx
    d6aa:	8b 45 f0             	mov    -0x10(%rbp),%eax
    d6ad:	89 c6                	mov    %eax,%esi
    d6af:	48 8d 3d ed 0d 00 00 	lea    0xded(%rip),%rdi        # e4a3 <g_67+0x443>
    d6b6:	b8 00 00 00 00       	mov    $0x0,%eax
    d6bb:	e8 c0 69 ff ff       	callq  4080 <printf@plt>
    d6c0:	83 45 f4 01          	addl   $0x1,-0xc(%rbp)
    d6c4:	83 7d f4 07          	cmpl   $0x7,-0xc(%rbp)
    d6c8:	7e a2                	jle    d66c <main+0x168>
    d6ca:	83 45 f0 01          	addl   $0x1,-0x10(%rbp)
    d6ce:	83 7d f0 02          	cmpl   $0x2,-0x10(%rbp)
    d6d2:	7e 8f                	jle    d663 <main+0x15f>
    d6d4:	0f b7 05 7d 39 00 00 	movzwl 0x397d(%rip),%eax        # 11058 <g_94>
    d6db:	0f b7 c0             	movzwl %ax,%eax
    d6de:	8b 55 fc             	mov    -0x4(%rbp),%edx
    d6e1:	48 8d 35 cd 0d 00 00 	lea    0xdcd(%rip),%rsi        # e4b5 <g_67+0x455>
    d6e8:	48 89 c7             	mov    %rax,%rdi
    d6eb:	e8 03 80 ff ff       	callq  56f3 <transparent_crc>
    d6f0:	0f b7 05 61 39 00 00 	movzwl 0x3961(%rip),%eax        # 11058 <g_94>
    d6f7:	0f b7 c0             	movzwl %ax,%eax
    d6fa:	8b 55 fc             	mov    -0x4(%rbp),%edx
    d6fd:	48 8d 35 b9 0d 00 00 	lea    0xdb9(%rip),%rsi        # e4bd <g_67+0x45d>
    d704:	48 89 c7             	mov    %rax,%rdi
    d707:	e8 e7 7f ff ff       	callq  56f3 <transparent_crc>
    d70c:	0f b7 05 4d 39 00 00 	movzwl 0x394d(%rip),%eax        # 11060 <g_104>
    d713:	48 0f bf c0          	movswq %ax,%rax
    d717:	8b 55 fc             	mov    -0x4(%rbp),%edx
    d71a:	48 8d 35 a4 0d 00 00 	lea    0xda4(%rip),%rsi        # e4c5 <g_67+0x465>
    d721:	48 89 c7             	mov    %rax,%rdi
    d724:	e8 ca 7f ff ff       	callq  56f3 <transparent_crc>
    d729:	c7 45 f0 00 00 00 00 	movl   $0x0,-0x10(%rbp)
    d730:	eb 6e                	jmp    d7a0 <main+0x29c>
    d732:	c7 45 f4 00 00 00 00 	movl   $0x0,-0xc(%rbp)
    d739:	eb 5b                	jmp    d796 <main+0x292>
    d73b:	8b 45 f4             	mov    -0xc(%rbp),%eax
    d73e:	48 63 d0             	movslq %eax,%rdx
    d741:	8b 45 f0             	mov    -0x10(%rbp),%eax
    d744:	48 98                	cltq   
    d746:	48 01 d0             	add    %rdx,%rax
    d749:	48 8d 14 c5 00 00 00 	lea    0x0(,%rax,8),%rdx
    d750:	00 
    d751:	48 8d 05 28 39 00 00 	lea    0x3928(%rip),%rax        # 11080 <g_106>
    d758:	48 8b 04 02          	mov    (%rdx,%rax,1),%rax
    d75c:	48 89 c1             	mov    %rax,%rcx
    d75f:	8b 45 fc             	mov    -0x4(%rbp),%eax
    d762:	89 c2                	mov    %eax,%edx
    d764:	48 8d 35 60 0d 00 00 	lea    0xd60(%rip),%rsi        # e4cb <g_67+0x46b>
    d76b:	48 89 cf             	mov    %rcx,%rdi
    d76e:	e8 80 7f ff ff       	callq  56f3 <transparent_crc>
    d773:	83 7d fc 00          	cmpl   $0x0,-0x4(%rbp)
    d777:	74 19                	je     d792 <main+0x28e>
    d779:	8b 55 f4             	mov    -0xc(%rbp),%edx
    d77c:	8b 45 f0             	mov    -0x10(%rbp),%eax
    d77f:	89 c6                	mov    %eax,%esi
    d781:	48 8d 3d 1b 0d 00 00 	lea    0xd1b(%rip),%rdi        # e4a3 <g_67+0x443>
    d788:	b8 00 00 00 00       	mov    $0x0,%eax
    d78d:	e8 ee 68 ff ff       	callq  4080 <printf@plt>
    d792:	83 45 f4 01          	addl   $0x1,-0xc(%rbp)
    d796:	83 7d f4 00          	cmpl   $0x0,-0xc(%rbp)
    d79a:	7e 9f                	jle    d73b <main+0x237>
    d79c:	83 45 f0 01          	addl   $0x1,-0x10(%rbp)
    d7a0:	83 7d f0 07          	cmpl   $0x7,-0x10(%rbp)
    d7a4:	7e 8c                	jle    d732 <main+0x22e>
    d7a6:	48 8b 05 13 39 00 00 	mov    0x3913(%rip),%rax        # 110c0 <g_108>
    d7ad:	48 89 c1             	mov    %rax,%rcx
    d7b0:	8b 45 fc             	mov    -0x4(%rbp),%eax
    d7b3:	89 c2                	mov    %eax,%edx
    d7b5:	48 8d 35 1b 0d 00 00 	lea    0xd1b(%rip),%rsi        # e4d7 <g_67+0x477>
    d7bc:	48 89 cf             	mov    %rcx,%rdi
    d7bf:	e8 2f 7f ff ff       	callq  56f3 <transparent_crc>
    d7c4:	48 8b 05 fd 38 00 00 	mov    0x38fd(%rip),%rax        # 110c8 <g_110>
    d7cb:	48 89 c1             	mov    %rax,%rcx
    d7ce:	8b 45 fc             	mov    -0x4(%rbp),%eax
    d7d1:	89 c2                	mov    %eax,%edx
    d7d3:	48 8d 35 03 0d 00 00 	lea    0xd03(%rip),%rsi        # e4dd <g_67+0x47d>
    d7da:	48 89 cf             	mov    %rcx,%rdi
    d7dd:	e8 11 7f ff ff       	callq  56f3 <transparent_crc>
    d7e2:	c7 45 f0 00 00 00 00 	movl   $0x0,-0x10(%rbp)
    d7e9:	eb 74                	jmp    d85f <main+0x35b>
    d7eb:	c7 45 f4 00 00 00 00 	movl   $0x0,-0xc(%rbp)
    d7f2:	eb 61                	jmp    d855 <main+0x351>
    d7f4:	8b 45 f4             	mov    -0xc(%rbp),%eax
    d7f7:	48 63 c8             	movslq %eax,%rcx
    d7fa:	8b 45 f0             	mov    -0x10(%rbp),%eax
    d7fd:	48 63 d0             	movslq %eax,%rdx
    d800:	48 89 d0             	mov    %rdx,%rax
    d803:	48 c1 e0 03          	shl    $0x3,%rax
    d807:	48 01 d0             	add    %rdx,%rax
    d80a:	48 01 c8             	add    %rcx,%rax
    d80d:	48 8d 14 c5 00 00 00 	lea    0x0(,%rax,8),%rdx
    d814:	00 
    d815:	48 8d 05 c4 38 00 00 	lea    0x38c4(%rip),%rax        # 110e0 <g_134>
    d81c:	48 8b 04 02          	mov    (%rdx,%rax,1),%rax
    d820:	8b 55 fc             	mov    -0x4(%rbp),%edx
    d823:	48 8d 35 b9 0c 00 00 	lea    0xcb9(%rip),%rsi        # e4e3 <g_67+0x483>
    d82a:	48 89 c7             	mov    %rax,%rdi
    d82d:	e8 c1 7e ff ff       	callq  56f3 <transparent_crc>
    d832:	83 7d fc 00          	cmpl   $0x0,-0x4(%rbp)
    d836:	74 19                	je     d851 <main+0x34d>
    d838:	8b 55 f4             	mov    -0xc(%rbp),%edx
    d83b:	8b 45 f0             	mov    -0x10(%rbp),%eax
    d83e:	89 c6                	mov    %eax,%esi
    d840:	48 8d 3d 5c 0c 00 00 	lea    0xc5c(%rip),%rdi        # e4a3 <g_67+0x443>
    d847:	b8 00 00 00 00       	mov    $0x0,%eax
    d84c:	e8 2f 68 ff ff       	callq  4080 <printf@plt>
    d851:	83 45 f4 01          	addl   $0x1,-0xc(%rbp)
    d855:	83 7d f4 08          	cmpl   $0x8,-0xc(%rbp)
    d859:	7e 99                	jle    d7f4 <main+0x2f0>
    d85b:	83 45 f0 01          	addl   $0x1,-0x10(%rbp)
    d85f:	83 7d f0 09          	cmpl   $0x9,-0x10(%rbp)
    d863:	7e 86                	jle    d7eb <main+0x2e7>
    d865:	48 8b 05 44 3b 00 00 	mov    0x3b44(%rip),%rax        # 113b0 <g_149>
    d86c:	c1 e0 04             	shl    $0x4,%eax
    d86f:	66 c1 f8 04          	sar    $0x4,%ax
    d873:	48 0f bf c0          	movswq %ax,%rax
    d877:	8b 55 fc             	mov    -0x4(%rbp),%edx
    d87a:	48 8d 35 6e 0c 00 00 	lea    0xc6e(%rip),%rsi        # e4ef <g_67+0x48f>
    d881:	48 89 c7             	mov    %rax,%rdi
    d884:	e8 6a 7e ff ff       	callq  56f3 <transparent_crc>
    d889:	8b 05 25 3b 00 00    	mov    0x3b25(%rip),%eax        # 113b4 <g_149+0x4>
    d88f:	48 98                	cltq   
    d891:	8b 55 fc             	mov    -0x4(%rbp),%edx
    d894:	48 8d 35 5d 0c 00 00 	lea    0xc5d(%rip),%rsi        # e4f8 <g_67+0x498>
    d89b:	48 89 c7             	mov    %rax,%rdi
    d89e:	e8 50 7e ff ff       	callq  56f3 <transparent_crc>
    d8a3:	48 8b 05 0e 3b 00 00 	mov    0x3b0e(%rip),%rax        # 113b8 <g_149+0x8>
    d8aa:	c1 e0 07             	shl    $0x7,%eax
    d8ad:	66 c1 f8 07          	sar    $0x7,%ax
    d8b1:	48 0f bf c0          	movswq %ax,%rax
    d8b5:	8b 55 fc             	mov    -0x4(%rbp),%edx
    d8b8:	48 8d 35 42 0c 00 00 	lea    0xc42(%rip),%rsi        # e501 <g_67+0x4a1>
    d8bf:	48 89 c7             	mov    %rax,%rdi
    d8c2:	e8 2c 7e ff ff       	callq  56f3 <transparent_crc>
    d8c7:	c7 45 f0 00 00 00 00 	movl   $0x0,-0x10(%rbp)
    d8ce:	e9 ac 00 00 00       	jmpq   d97f <main+0x47b>
    d8d3:	c7 45 f4 00 00 00 00 	movl   $0x0,-0xc(%rbp)
    d8da:	e9 92 00 00 00       	jmpq   d971 <main+0x46d>
    d8df:	c7 45 f8 00 00 00 00 	movl   $0x0,-0x8(%rbp)
    d8e6:	eb 7b                	jmp    d963 <main+0x45f>
    d8e8:	8b 45 f8             	mov    -0x8(%rbp),%eax
    d8eb:	48 63 f0             	movslq %eax,%rsi
    d8ee:	8b 45 f0             	mov    -0x10(%rbp),%eax
    d8f1:	48 63 d0             	movslq %eax,%rdx
    d8f4:	8b 45 f4             	mov    -0xc(%rbp),%eax
    d8f7:	48 63 c8             	movslq %eax,%rcx
    d8fa:	48 89 d0             	mov    %rdx,%rax
    d8fd:	48 c1 e0 03          	shl    $0x3,%rax
    d901:	48 29 d0             	sub    %rdx,%rax
    d904:	48 c1 e0 02          	shl    $0x2,%rax
    d908:	48 89 ca             	mov    %rcx,%rdx
    d90b:	48 c1 e2 03          	shl    $0x3,%rdx
    d90f:	48 29 ca             	sub    %rcx,%rdx
    d912:	48 01 d0             	add    %rdx,%rax
    d915:	48 01 f0             	add    %rsi,%rax
    d918:	48 8d 14 00          	lea    (%rax,%rax,1),%rdx
    d91c:	48 8d 05 9d 3a 00 00 	lea    0x3a9d(%rip),%rax        # 113c0 <g_160>
    d923:	0f b7 04 02          	movzwl (%rdx,%rax,1),%eax
    d927:	48 0f bf c0          	movswq %ax,%rax
    d92b:	8b 55 fc             	mov    -0x4(%rbp),%edx
    d92e:	48 8d 35 d5 0b 00 00 	lea    0xbd5(%rip),%rsi        # e50a <g_67+0x4aa>
    d935:	48 89 c7             	mov    %rax,%rdi
    d938:	e8 b6 7d ff ff       	callq  56f3 <transparent_crc>
    d93d:	83 7d fc 00          	cmpl   $0x0,-0x4(%rbp)
    d941:	74 1c                	je     d95f <main+0x45b>
    d943:	8b 4d f8             	mov    -0x8(%rbp),%ecx
    d946:	8b 55 f4             	mov    -0xc(%rbp),%edx
    d949:	8b 45 f0             	mov    -0x10(%rbp),%eax
    d94c:	89 c6                	mov    %eax,%esi
    d94e:	48 8d 3d c4 0b 00 00 	lea    0xbc4(%rip),%rdi        # e519 <g_67+0x4b9>
    d955:	b8 00 00 00 00       	mov    $0x0,%eax
    d95a:	e8 21 67 ff ff       	callq  4080 <printf@plt>
    d95f:	83 45 f8 01          	addl   $0x1,-0x8(%rbp)
    d963:	83 7d f8 06          	cmpl   $0x6,-0x8(%rbp)
    d967:	0f 8e 7b ff ff ff    	jle    d8e8 <main+0x3e4>
    d96d:	83 45 f4 01          	addl   $0x1,-0xc(%rbp)
    d971:	83 7d f4 03          	cmpl   $0x3,-0xc(%rbp)
    d975:	0f 8e 64 ff ff ff    	jle    d8df <main+0x3db>
    d97b:	83 45 f0 01          	addl   $0x1,-0x10(%rbp)
    d97f:	83 7d f0 07          	cmpl   $0x7,-0x10(%rbp)
    d983:	0f 8e 4a ff ff ff    	jle    d8d3 <main+0x3cf>
    d989:	48 8b 05 f0 3b 00 00 	mov    0x3bf0(%rip),%rax        # 11580 <g_161>
    d990:	48 89 c1             	mov    %rax,%rcx
    d993:	8b 45 fc             	mov    -0x4(%rbp),%eax
    d996:	89 c2                	mov    %eax,%edx
    d998:	48 8d 35 90 0b 00 00 	lea    0xb90(%rip),%rsi        # e52f <g_67+0x4cf>
    d99f:	48 89 cf             	mov    %rcx,%rdi
    d9a2:	e8 4c 7d ff ff       	callq  56f3 <transparent_crc>
    d9a7:	c7 45 f0 00 00 00 00 	movl   $0x0,-0x10(%rbp)
    d9ae:	eb 45                	jmp    d9f5 <main+0x4f1>
    d9b0:	8b 45 f0             	mov    -0x10(%rbp),%eax
    d9b3:	48 98                	cltq   
    d9b5:	48 8d 15 cc 3b 00 00 	lea    0x3bcc(%rip),%rdx        # 11588 <g_162>
    d9bc:	0f b6 04 10          	movzbl (%rax,%rdx,1),%eax
    d9c0:	0f b6 c0             	movzbl %al,%eax
    d9c3:	8b 55 fc             	mov    -0x4(%rbp),%edx
    d9c6:	48 8d 35 68 0b 00 00 	lea    0xb68(%rip),%rsi        # e535 <g_67+0x4d5>
    d9cd:	48 89 c7             	mov    %rax,%rdi
    d9d0:	e8 1e 7d ff ff       	callq  56f3 <transparent_crc>
    d9d5:	83 7d fc 00          	cmpl   $0x0,-0x4(%rbp)
    d9d9:	74 16                	je     d9f1 <main+0x4ed>
    d9db:	8b 45 f0             	mov    -0x10(%rbp),%eax
    d9de:	89 c6                	mov    %eax,%esi
    d9e0:	48 8d 3d 99 0a 00 00 	lea    0xa99(%rip),%rdi        # e480 <g_67+0x420>
    d9e7:	b8 00 00 00 00       	mov    $0x0,%eax
    d9ec:	e8 8f 66 ff ff       	callq  4080 <printf@plt>
    d9f1:	83 45 f0 01          	addl   $0x1,-0x10(%rbp)
    d9f5:	83 7d f0 06          	cmpl   $0x6,-0x10(%rbp)
    d9f9:	7e b5                	jle    d9b0 <main+0x4ac>
    d9fb:	8b 05 8f 3b 00 00    	mov    0x3b8f(%rip),%eax        # 11590 <g_260>
    da01:	48 98                	cltq   
    da03:	8b 55 fc             	mov    -0x4(%rbp),%edx
    da06:	48 8d 35 31 0b 00 00 	lea    0xb31(%rip),%rsi        # e53e <g_67+0x4de>
    da0d:	48 89 c7             	mov    %rax,%rdi
    da10:	e8 de 7c ff ff       	callq  56f3 <transparent_crc>
    da15:	0f b6 05 78 3b 00 00 	movzbl 0x3b78(%rip),%eax        # 11594 <g_273>
    da1c:	0f b6 c0             	movzbl %al,%eax
    da1f:	8b 55 fc             	mov    -0x4(%rbp),%edx
    da22:	48 8d 35 1b 0b 00 00 	lea    0xb1b(%rip),%rsi        # e544 <g_67+0x4e4>
    da29:	48 89 c7             	mov    %rax,%rdi
    da2c:	e8 c2 7c ff ff       	callq  56f3 <transparent_crc>
    da31:	c7 45 f0 00 00 00 00 	movl   $0x0,-0x10(%rbp)
    da38:	eb 70                	jmp    daaa <main+0x5a6>
    da3a:	c7 45 f4 00 00 00 00 	movl   $0x0,-0xc(%rbp)
    da41:	eb 5d                	jmp    daa0 <main+0x59c>
    da43:	8b 45 f4             	mov    -0xc(%rbp),%eax
    da46:	48 98                	cltq   
    da48:	8b 55 f0             	mov    -0x10(%rbp),%edx
    da4b:	48 63 d2             	movslq %edx,%rdx
    da4e:	48 c1 e2 03          	shl    $0x3,%rdx
    da52:	48 01 d0             	add    %rdx,%rax
    da55:	48 8d 14 85 00 00 00 	lea    0x0(,%rax,4),%rdx
    da5c:	00 
    da5d:	48 8d 05 3c 3b 00 00 	lea    0x3b3c(%rip),%rax        # 115a0 <g_359>
    da64:	8b 04 02             	mov    (%rdx,%rax,1),%eax
    da67:	89 c1                	mov    %eax,%ecx
    da69:	8b 45 fc             	mov    -0x4(%rbp),%eax
    da6c:	89 c2                	mov    %eax,%edx
    da6e:	48 8d 35 d5 0a 00 00 	lea    0xad5(%rip),%rsi        # e54a <g_67+0x4ea>
    da75:	48 89 cf             	mov    %rcx,%rdi
    da78:	e8 76 7c ff ff       	callq  56f3 <transparent_crc>
    da7d:	83 7d fc 00          	cmpl   $0x0,-0x4(%rbp)
    da81:	74 19                	je     da9c <main+0x598>
    da83:	8b 55 f4             	mov    -0xc(%rbp),%edx
    da86:	8b 45 f0             	mov    -0x10(%rbp),%eax
    da89:	89 c6                	mov    %eax,%esi
    da8b:	48 8d 3d 11 0a 00 00 	lea    0xa11(%rip),%rdi        # e4a3 <g_67+0x443>
    da92:	b8 00 00 00 00       	mov    $0x0,%eax
    da97:	e8 e4 65 ff ff       	callq  4080 <printf@plt>
    da9c:	83 45 f4 01          	addl   $0x1,-0xc(%rbp)
    daa0:	83 7d f4 07          	cmpl   $0x7,-0xc(%rbp)
    daa4:	7e 9d                	jle    da43 <main+0x53f>
    daa6:	83 45 f0 01          	addl   $0x1,-0x10(%rbp)
    daaa:	83 7d f0 03          	cmpl   $0x3,-0x10(%rbp)
    daae:	7e 8a                	jle    da3a <main+0x536>
    dab0:	c7 45 f0 00 00 00 00 	movl   $0x0,-0x10(%rbp)
    dab7:	eb 4a                	jmp    db03 <main+0x5ff>
    dab9:	8b 45 f0             	mov    -0x10(%rbp),%eax
    dabc:	48 98                	cltq   
    dabe:	48 8d 14 c5 00 00 00 	lea    0x0(,%rax,8),%rdx
    dac5:	00 
    dac6:	48 8d 05 53 3b 00 00 	lea    0x3b53(%rip),%rax        # 11620 <g_423>
    dacd:	48 8b 04 02          	mov    (%rdx,%rax,1),%rax
    dad1:	8b 55 fc             	mov    -0x4(%rbp),%edx
    dad4:	48 8d 35 7b 0a 00 00 	lea    0xa7b(%rip),%rsi        # e556 <g_67+0x4f6>
    dadb:	48 89 c7             	mov    %rax,%rdi
    dade:	e8 10 7c ff ff       	callq  56f3 <transparent_crc>
    dae3:	83 7d fc 00          	cmpl   $0x0,-0x4(%rbp)
    dae7:	74 16                	je     daff <main+0x5fb>
    dae9:	8b 45 f0             	mov    -0x10(%rbp),%eax
    daec:	89 c6                	mov    %eax,%esi
    daee:	48 8d 3d 8b 09 00 00 	lea    0x98b(%rip),%rdi        # e480 <g_67+0x420>
    daf5:	b8 00 00 00 00       	mov    $0x0,%eax
    dafa:	e8 81 65 ff ff       	callq  4080 <printf@plt>
    daff:	83 45 f0 01          	addl   $0x1,-0x10(%rbp)
    db03:	83 7d f0 09          	cmpl   $0x9,-0x10(%rbp)
    db07:	7e b0                	jle    dab9 <main+0x5b5>
    db09:	8b 05 61 3b 00 00    	mov    0x3b61(%rip),%eax        # 11670 <g_526>
    db0f:	89 c1                	mov    %eax,%ecx
    db11:	8b 45 fc             	mov    -0x4(%rbp),%eax
    db14:	89 c2                	mov    %eax,%edx
    db16:	48 8d 35 42 0a 00 00 	lea    0xa42(%rip),%rsi        # e55f <g_67+0x4ff>
    db1d:	48 89 cf             	mov    %rcx,%rdi
    db20:	e8 ce 7b ff ff       	callq  56f3 <transparent_crc>
    db25:	48 8b 05 4c 3b 00 00 	mov    0x3b4c(%rip),%rax        # 11678 <g_534>
    db2c:	8b 55 fc             	mov    -0x4(%rbp),%edx
    db2f:	48 8d 35 2f 0a 00 00 	lea    0xa2f(%rip),%rsi        # e565 <g_67+0x505>
    db36:	48 89 c7             	mov    %rax,%rdi
    db39:	e8 b5 7b ff ff       	callq  56f3 <transparent_crc>
    db3e:	c7 45 f0 00 00 00 00 	movl   $0x0,-0x10(%rbp)
    db45:	eb 6b                	jmp    dbb2 <main+0x6ae>
    db47:	c7 45 f4 00 00 00 00 	movl   $0x0,-0xc(%rbp)
    db4e:	eb 58                	jmp    dba8 <main+0x6a4>
    db50:	8b 45 f4             	mov    -0xc(%rbp),%eax
    db53:	48 98                	cltq   
    db55:	8b 55 f0             	mov    -0x10(%rbp),%edx
    db58:	48 63 d2             	movslq %edx,%rdx
    db5b:	48 01 d2             	add    %rdx,%rdx
    db5e:	48 01 d0             	add    %rdx,%rax
    db61:	48 8d 14 00          	lea    (%rax,%rax,1),%rdx
    db65:	48 8d 05 14 3b 00 00 	lea    0x3b14(%rip),%rax        # 11680 <g_647>
    db6c:	0f b7 04 02          	movzwl (%rdx,%rax,1),%eax
    db70:	0f b7 c0             	movzwl %ax,%eax
    db73:	8b 55 fc             	mov    -0x4(%rbp),%edx
    db76:	48 8d 35 ee 09 00 00 	lea    0x9ee(%rip),%rsi        # e56b <g_67+0x50b>
    db7d:	48 89 c7             	mov    %rax,%rdi
    db80:	e8 6e 7b ff ff       	callq  56f3 <transparent_crc>
    db85:	83 7d fc 00          	cmpl   $0x0,-0x4(%rbp)
    db89:	74 19                	je     dba4 <main+0x6a0>
    db8b:	8b 55 f4             	mov    -0xc(%rbp),%edx
    db8e:	8b 45 f0             	mov    -0x10(%rbp),%eax
    db91:	89 c6                	mov    %eax,%esi
    db93:	48 8d 3d 09 09 00 00 	lea    0x909(%rip),%rdi        # e4a3 <g_67+0x443>
    db9a:	b8 00 00 00 00       	mov    $0x0,%eax
    db9f:	e8 dc 64 ff ff       	callq  4080 <printf@plt>
    dba4:	83 45 f4 01          	addl   $0x1,-0xc(%rbp)
    dba8:	83 7d f4 01          	cmpl   $0x1,-0xc(%rbp)
    dbac:	7e a2                	jle    db50 <main+0x64c>
    dbae:	83 45 f0 01          	addl   $0x1,-0x10(%rbp)
    dbb2:	83 7d f0 01          	cmpl   $0x1,-0x10(%rbp)
    dbb6:	7e 8f                	jle    db47 <main+0x643>
    dbb8:	c7 45 f0 00 00 00 00 	movl   $0x0,-0x10(%rbp)
    dbbf:	eb 71                	jmp    dc32 <main+0x72e>
    dbc1:	c7 45 f4 00 00 00 00 	movl   $0x0,-0xc(%rbp)
    dbc8:	eb 5e                	jmp    dc28 <main+0x724>
    dbca:	8b 45 f4             	mov    -0xc(%rbp),%eax
    dbcd:	48 63 c8             	movslq %eax,%rcx
    dbd0:	8b 45 f0             	mov    -0x10(%rbp),%eax
    dbd3:	48 63 d0             	movslq %eax,%rdx
    dbd6:	48 89 d0             	mov    %rdx,%rax
    dbd9:	48 01 c0             	add    %rax,%rax
    dbdc:	48 01 d0             	add    %rdx,%rax
    dbdf:	48 8d 14 08          	lea    (%rax,%rcx,1),%rdx
    dbe3:	48 8d 05 9e 3a 00 00 	lea    0x3a9e(%rip),%rax        # 11688 <g_722>
    dbea:	48 01 d0             	add    %rdx,%rax
    dbed:	0f b6 00             	movzbl (%rax),%eax
    dbf0:	0f b6 c0             	movzbl %al,%eax
    dbf3:	8b 55 fc             	mov    -0x4(%rbp),%edx
    dbf6:	48 8d 35 7a 09 00 00 	lea    0x97a(%rip),%rsi        # e577 <g_67+0x517>
    dbfd:	48 89 c7             	mov    %rax,%rdi
    dc00:	e8 ee 7a ff ff       	callq  56f3 <transparent_crc>
    dc05:	83 7d fc 00          	cmpl   $0x0,-0x4(%rbp)
    dc09:	74 19                	je     dc24 <main+0x720>
    dc0b:	8b 55 f4             	mov    -0xc(%rbp),%edx
    dc0e:	8b 45 f0             	mov    -0x10(%rbp),%eax
    dc11:	89 c6                	mov    %eax,%esi
    dc13:	48 8d 3d 89 08 00 00 	lea    0x889(%rip),%rdi        # e4a3 <g_67+0x443>
    dc1a:	b8 00 00 00 00       	mov    $0x0,%eax
    dc1f:	e8 5c 64 ff ff       	callq  4080 <printf@plt>
    dc24:	83 45 f4 01          	addl   $0x1,-0xc(%rbp)
    dc28:	83 7d f4 02          	cmpl   $0x2,-0xc(%rbp)
    dc2c:	7e 9c                	jle    dbca <main+0x6c6>
    dc2e:	83 45 f0 01          	addl   $0x1,-0x10(%rbp)
    dc32:	83 7d f0 01          	cmpl   $0x1,-0x10(%rbp)
    dc36:	7e 89                	jle    dbc1 <main+0x6bd>
    dc38:	0f b6 05 4f 3a 00 00 	movzbl 0x3a4f(%rip),%eax        # 1168e <g_724>
    dc3f:	0f b6 c0             	movzbl %al,%eax
    dc42:	8b 55 fc             	mov    -0x4(%rbp),%edx
    dc45:	48 8d 35 37 09 00 00 	lea    0x937(%rip),%rsi        # e583 <g_67+0x523>
    dc4c:	48 89 c7             	mov    %rax,%rdi
    dc4f:	e8 9f 7a ff ff       	callq  56f3 <transparent_crc>
    dc54:	0f b7 05 35 3a 00 00 	movzwl 0x3a35(%rip),%eax        # 11690 <g_815>
    dc5b:	0f b7 c0             	movzwl %ax,%eax
    dc5e:	8b 55 fc             	mov    -0x4(%rbp),%edx
    dc61:	48 8d 35 21 09 00 00 	lea    0x921(%rip),%rsi        # e589 <g_67+0x529>
    dc68:	48 89 c7             	mov    %rax,%rdi
    dc6b:	e8 83 7a ff ff       	callq  56f3 <transparent_crc>
    dc70:	0f b7 05 19 3a 00 00 	movzwl 0x3a19(%rip),%eax        # 11690 <g_815>
    dc77:	0f b7 c0             	movzwl %ax,%eax
    dc7a:	8b 55 fc             	mov    -0x4(%rbp),%edx
    dc7d:	48 8d 35 0e 09 00 00 	lea    0x90e(%rip),%rsi        # e592 <g_67+0x532>
    dc84:	48 89 c7             	mov    %rax,%rdi
    dc87:	e8 67 7a ff ff       	callq  56f3 <transparent_crc>
    dc8c:	8b 05 2e 58 00 00    	mov    0x582e(%rip),%eax        # 134c0 <g_872>
    dc92:	48 98                	cltq   
    dc94:	8b 55 fc             	mov    -0x4(%rbp),%edx
    dc97:	48 8d 35 fd 08 00 00 	lea    0x8fd(%rip),%rsi        # e59b <g_67+0x53b>
    dc9e:	48 89 c7             	mov    %rax,%rdi
    dca1:	e8 4d 7a ff ff       	callq  56f3 <transparent_crc>
    dca6:	c7 45 f0 00 00 00 00 	movl   $0x0,-0x10(%rbp)
    dcad:	eb 4a                	jmp    dcf9 <main+0x7f5>
    dcaf:	8b 45 f0             	mov    -0x10(%rbp),%eax
    dcb2:	48 98                	cltq   
    dcb4:	48 8d 14 00          	lea    (%rax,%rax,1),%rdx
    dcb8:	48 8d 05 e1 39 00 00 	lea    0x39e1(%rip),%rax        # 116a0 <g_931>
    dcbf:	0f b7 04 02          	movzwl (%rdx,%rax,1),%eax
    dcc3:	48 0f bf c0          	movswq %ax,%rax
    dcc7:	8b 55 fc             	mov    -0x4(%rbp),%edx
    dcca:	48 8d 35 d0 08 00 00 	lea    0x8d0(%rip),%rsi        # e5a1 <g_67+0x541>
    dcd1:	48 89 c7             	mov    %rax,%rdi
    dcd4:	e8 1a 7a ff ff       	callq  56f3 <transparent_crc>
    dcd9:	83 7d fc 00          	cmpl   $0x0,-0x4(%rbp)
    dcdd:	74 16                	je     dcf5 <main+0x7f1>
    dcdf:	8b 45 f0             	mov    -0x10(%rbp),%eax
    dce2:	89 c6                	mov    %eax,%esi
    dce4:	48 8d 3d 95 07 00 00 	lea    0x795(%rip),%rdi        # e480 <g_67+0x420>
    dceb:	b8 00 00 00 00       	mov    $0x0,%eax
    dcf0:	e8 8b 63 ff ff       	callq  4080 <printf@plt>
    dcf5:	83 45 f0 01          	addl   $0x1,-0x10(%rbp)
    dcf9:	83 7d f0 08          	cmpl   $0x8,-0x10(%rbp)
    dcfd:	7e b0                	jle    dcaf <main+0x7ab>
    dcff:	0f b6 05 ac 39 00 00 	movzbl 0x39ac(%rip),%eax        # 116b2 <g_937>
    dd06:	0f b6 c0             	movzbl %al,%eax
    dd09:	8b 55 fc             	mov    -0x4(%rbp),%edx
    dd0c:	48 8d 35 97 08 00 00 	lea    0x897(%rip),%rsi        # e5aa <g_67+0x54a>
    dd13:	48 89 c7             	mov    %rax,%rdi
    dd16:	e8 d8 79 ff ff       	callq  56f3 <transparent_crc>
    dd1b:	0f b7 05 96 39 00 00 	movzwl 0x3996(%rip),%eax        # 116b8 <g_948>
    dd22:	c1 e0 04             	shl    $0x4,%eax
    dd25:	66 c1 f8 04          	sar    $0x4,%ax
    dd29:	48 0f bf c0          	movswq %ax,%rax
    dd2d:	8b 55 fc             	mov    -0x4(%rbp),%edx
    dd30:	48 8d 35 79 08 00 00 	lea    0x879(%rip),%rsi        # e5b0 <g_67+0x550>
    dd37:	48 89 c7             	mov    %rax,%rdi
    dd3a:	e8 b4 79 ff ff       	callq  56f3 <transparent_crc>
    dd3f:	8b 05 77 39 00 00    	mov    0x3977(%rip),%eax        # 116bc <g_948+0x4>
    dd45:	48 98                	cltq   
    dd47:	8b 55 fc             	mov    -0x4(%rbp),%edx
    dd4a:	48 8d 35 68 08 00 00 	lea    0x868(%rip),%rsi        # e5b9 <g_67+0x559>
    dd51:	48 89 c7             	mov    %rax,%rdi
    dd54:	e8 9a 79 ff ff       	callq  56f3 <transparent_crc>
    dd59:	0f b7 05 60 39 00 00 	movzwl 0x3960(%rip),%eax        # 116c0 <g_948+0x8>
    dd60:	c1 e0 07             	shl    $0x7,%eax
    dd63:	66 c1 f8 07          	sar    $0x7,%ax
    dd67:	48 0f bf c0          	movswq %ax,%rax
    dd6b:	8b 55 fc             	mov    -0x4(%rbp),%edx
    dd6e:	48 8d 35 4d 08 00 00 	lea    0x84d(%rip),%rsi        # e5c2 <g_67+0x562>
    dd75:	48 89 c7             	mov    %rax,%rdi
    dd78:	e8 76 79 ff ff       	callq  56f3 <transparent_crc>
    dd7d:	48 8b 05 4c 57 00 00 	mov    0x574c(%rip),%rax        # 134d0 <g_953>
    dd84:	8b 55 fc             	mov    -0x4(%rbp),%edx
    dd87:	48 8d 35 3d 08 00 00 	lea    0x83d(%rip),%rsi        # e5cb <g_67+0x56b>
    dd8e:	48 89 c7             	mov    %rax,%rdi
    dd91:	e8 5d 79 ff ff       	callq  56f3 <transparent_crc>
    dd96:	0f b7 05 27 39 00 00 	movzwl 0x3927(%rip),%eax        # 116c4 <g_1073>
    dd9d:	48 0f bf c0          	movswq %ax,%rax
    dda1:	8b 55 fc             	mov    -0x4(%rbp),%edx
    dda4:	48 8d 35 26 08 00 00 	lea    0x826(%rip),%rsi        # e5d1 <g_67+0x571>
    ddab:	48 89 c7             	mov    %rax,%rdi
    ddae:	e8 40 79 ff ff       	callq  56f3 <transparent_crc>
    ddb3:	8b 05 0f 39 00 00    	mov    0x390f(%rip),%eax        # 116c8 <g_1180>
    ddb9:	89 c1                	mov    %eax,%ecx
    ddbb:	8b 45 fc             	mov    -0x4(%rbp),%eax
    ddbe:	89 c2                	mov    %eax,%edx
    ddc0:	48 8d 35 14 08 00 00 	lea    0x814(%rip),%rsi        # e5db <g_67+0x57b>
    ddc7:	48 89 cf             	mov    %rcx,%rdi
    ddca:	e8 24 79 ff ff       	callq  56f3 <transparent_crc>
    ddcf:	8b 05 4b 32 00 00    	mov    0x324b(%rip),%eax        # 11020 <crc32_context>
    ddd5:	f7 d0                	not    %eax
    ddd7:	89 c2                	mov    %eax,%edx
    ddd9:	8b 45 fc             	mov    -0x4(%rbp),%eax
    dddc:	89 c6                	mov    %eax,%esi
    ddde:	89 d7                	mov    %edx,%edi
    dde0:	e8 af 63 ff ff       	callq  4194 <platform_main_end>
    dde5:	b8 00 00 00 00       	mov    $0x0,%eax
    ddea:	c9                   	leaveq 
    ddeb:	c3                   	retq   
    ddec:	0f 1f 40 00          	nopl   0x0(%rax)

000000000000ddf0 <__libc_csu_init>:
    ddf0:	f3 0f 1e fa          	endbr64 
    ddf4:	41 57                	push   %r15
    ddf6:	4c 8d 3d ab 2f 00 00 	lea    0x2fab(%rip),%r15        # 10da8 <__frame_dummy_init_array_entry>
    ddfd:	41 56                	push   %r14
    ddff:	49 89 d6             	mov    %rdx,%r14
    de02:	41 55                	push   %r13
    de04:	49 89 f5             	mov    %rsi,%r13
    de07:	41 54                	push   %r12
    de09:	41 89 fc             	mov    %edi,%r12d
    de0c:	55                   	push   %rbp
    de0d:	48 8d 2d 9c 2f 00 00 	lea    0x2f9c(%rip),%rbp        # 10db0 <__do_global_dtors_aux_fini_array_entry>
    de14:	53                   	push   %rbx
    de15:	4c 29 fd             	sub    %r15,%rbp
    de18:	48 83 ec 08          	sub    $0x8,%rsp
    de1c:	e8 df 61 ff ff       	callq  4000 <_init>
    de21:	48 c1 fd 03          	sar    $0x3,%rbp
    de25:	74 1f                	je     de46 <__libc_csu_init+0x56>
    de27:	31 db                	xor    %ebx,%ebx
    de29:	0f 1f 80 00 00 00 00 	nopl   0x0(%rax)
    de30:	4c 89 f2             	mov    %r14,%rdx
    de33:	4c 89 ee             	mov    %r13,%rsi
    de36:	44 89 e7             	mov    %r12d,%edi
    de39:	41 ff 14 df          	callq  *(%r15,%rbx,8)
    de3d:	48 83 c3 01          	add    $0x1,%rbx
    de41:	48 39 dd             	cmp    %rbx,%rbp
    de44:	75 ea                	jne    de30 <__libc_csu_init+0x40>
    de46:	48 83 c4 08          	add    $0x8,%rsp
    de4a:	5b                   	pop    %rbx
    de4b:	5d                   	pop    %rbp
    de4c:	41 5c                	pop    %r12
    de4e:	41 5d                	pop    %r13
    de50:	41 5e                	pop    %r14
    de52:	41 5f                	pop    %r15
    de54:	c3                   	retq   
    de55:	66 66 2e 0f 1f 84 00 	data16 nopw %cs:0x0(%rax,%rax,1)
    de5c:	00 00 00 00 

000000000000de60 <__libc_csu_fini>:
    de60:	f3 0f 1e fa          	endbr64 
    de64:	c3                   	retq   
