


Disassembly of section .text:

00000000000080a0 <_start>:
    80a0:	f3 0f 1e fa          	endbr64 
    80a4:	31 ed                	xor    %ebp,%ebp
    80a6:	49 89 d1             	mov    %rdx,%r9
    80a9:	5e                   	pop    %rsi
    80aa:	48 89 e2             	mov    %rsp,%rdx
    80ad:	48 83 e4 f0          	and    $0xfffffffffffffff0,%rsp
    80b1:	50                   	push   %rax
    80b2:	54                   	push   %rsp
    80b3:	4c 8d 05 96 92 00 00 	lea    0x9296(%rip),%r8        # 11350 <__libc_csu_fini>
    80ba:	48 8d 0d 1f 92 00 00 	lea    0x921f(%rip),%rcx        # 112e0 <__libc_csu_init>
    80c1:	48 8d 3d 42 85 00 00 	lea    0x8542(%rip),%rdi        # 1060a <main>
    80c8:	ff 15 fa de 00 00    	callq  *0xdefa(%rip)        # 15fc8 <__libc_start_main@GLIBC_2.2.5>
    80ce:	f4                   	hlt    
    80cf:	90                   	nop

00000000000080d0 <deregister_tm_clones>:
    80d0:	48 8d 3d 41 12 01 00 	lea    0x11241(%rip),%rdi        # 19318 <__TMC_END__>
    80d7:	48 8d 05 3a 12 01 00 	lea    0x1123a(%rip),%rax        # 19318 <__TMC_END__>
    80de:	48 39 f8             	cmp    %rdi,%rax
    80e1:	74 15                	je     80f8 <deregister_tm_clones+0x28>
    80e3:	48 8b 05 d6 de 00 00 	mov    0xded6(%rip),%rax        # 15fc0 <_ITM_deregisterTMCloneTable>
    80ea:	48 85 c0             	test   %rax,%rax
    80ed:	74 09                	je     80f8 <deregister_tm_clones+0x28>
    80ef:	ff e0                	jmpq   *%rax
    80f1:	0f 1f 80 00 00 00 00 	nopl   0x0(%rax)
    80f8:	c3                   	retq   
    80f9:	0f 1f 80 00 00 00 00 	nopl   0x0(%rax)

0000000000008100 <register_tm_clones>:
    8100:	48 8d 3d 11 12 01 00 	lea    0x11211(%rip),%rdi        # 19318 <__TMC_END__>
    8107:	48 8d 35 0a 12 01 00 	lea    0x1120a(%rip),%rsi        # 19318 <__TMC_END__>
    810e:	48 29 fe             	sub    %rdi,%rsi
    8111:	48 89 f0             	mov    %rsi,%rax
    8114:	48 c1 ee 3f          	shr    $0x3f,%rsi
    8118:	48 c1 f8 03          	sar    $0x3,%rax
    811c:	48 01 c6             	add    %rax,%rsi
    811f:	48 d1 fe             	sar    %rsi
    8122:	74 14                	je     8138 <register_tm_clones+0x38>
    8124:	48 8b 05 ad de 00 00 	mov    0xdead(%rip),%rax        # 15fd8 <_ITM_registerTMCloneTable>
    812b:	48 85 c0             	test   %rax,%rax
    812e:	74 08                	je     8138 <register_tm_clones+0x38>
    8130:	ff e0                	jmpq   *%rax
    8132:	66 0f 1f 44 00 00    	nopw   0x0(%rax,%rax,1)
    8138:	c3                   	retq   
    8139:	0f 1f 80 00 00 00 00 	nopl   0x0(%rax)

0000000000008140 <__do_global_dtors_aux>:
    8140:	f3 0f 1e fa          	endbr64 
    8144:	80 3d d5 11 01 00 00 	cmpb   $0x0,0x111d5(%rip)        # 19320 <completed.8061>
    814b:	75 2b                	jne    8178 <__do_global_dtors_aux+0x38>
    814d:	55                   	push   %rbp
    814e:	48 83 3d 8a de 00 00 	cmpq   $0x0,0xde8a(%rip)        # 15fe0 <__cxa_finalize@GLIBC_2.2.5>
    8155:	00 
    8156:	48 89 e5             	mov    %rsp,%rbp
    8159:	74 0c                	je     8167 <__do_global_dtors_aux+0x27>
    815b:	48 8b 3d a6 de 00 00 	mov    0xdea6(%rip),%rdi        # 16008 <__dso_handle>
    8162:	e8 f9 fe ff ff       	callq  8060 <__cxa_finalize@plt>
    8167:	e8 64 ff ff ff       	callq  80d0 <deregister_tm_clones>
    816c:	c6 05 ad 11 01 00 01 	movb   $0x1,0x111ad(%rip)        # 19320 <completed.8061>
    8173:	5d                   	pop    %rbp
    8174:	c3                   	retq   
    8175:	0f 1f 00             	nopl   (%rax)
    8178:	c3                   	retq   
    8179:	0f 1f 80 00 00 00 00 	nopl   0x0(%rax)

0000000000008180 <frame_dummy>:
    8180:	f3 0f 1e fa          	endbr64 
    8184:	e9 77 ff ff ff       	jmpq   8100 <register_tm_clones>

0000000000008189 <platform_main_begin>:
    8189:	f3 0f 1e fa          	endbr64 
    818d:	55                   	push   %rbp
    818e:	48 89 e5             	mov    %rsp,%rbp
    8191:	90                   	nop
    8192:	5d                   	pop    %rbp
    8193:	c3                   	retq   

0000000000008194 <platform_main_end>:
    8194:	f3 0f 1e fa          	endbr64 
    8198:	55                   	push   %rbp
    8199:	48 89 e5             	mov    %rsp,%rbp
    819c:	48 83 ec 10          	sub    $0x10,%rsp
    81a0:	89 7d fc             	mov    %edi,-0x4(%rbp)
    81a3:	89 75 f8             	mov    %esi,-0x8(%rbp)
    81a6:	8b 45 fc             	mov    -0x4(%rbp),%eax
    81a9:	89 c6                	mov    %eax,%esi
    81ab:	48 8d 3d 6e 9e 00 00 	lea    0x9e6e(%rip),%rdi        # 12020 <_IO_stdin_used+0x20>
    81b2:	b8 00 00 00 00       	mov    $0x0,%eax
    81b7:	e8 c4 fe ff ff       	callq  8080 <printf@plt>
    81bc:	90                   	nop
    81bd:	c9                   	leaveq 
    81be:	c3                   	retq   

00000000000081bf <safe_unary_minus_func_int8_t_s>:
    81bf:	f3 0f 1e fa          	endbr64 
    81c3:	55                   	push   %rbp
    81c4:	48 89 e5             	mov    %rsp,%rbp
    81c7:	89 f8                	mov    %edi,%eax
    81c9:	88 45 fc             	mov    %al,-0x4(%rbp)
    81cc:	0f b6 45 fc          	movzbl -0x4(%rbp),%eax
    81d0:	f7 d8                	neg    %eax
    81d2:	5d                   	pop    %rbp
    81d3:	c3                   	retq   

00000000000081d4 <safe_add_func_int8_t_s_s>:
    81d4:	f3 0f 1e fa          	endbr64 
    81d8:	55                   	push   %rbp
    81d9:	48 89 e5             	mov    %rsp,%rbp
    81dc:	89 fa                	mov    %edi,%edx
    81de:	89 f0                	mov    %esi,%eax
    81e0:	88 55 fc             	mov    %dl,-0x4(%rbp)
    81e3:	88 45 f8             	mov    %al,-0x8(%rbp)
    81e6:	0f b6 55 fc          	movzbl -0x4(%rbp),%edx
    81ea:	0f b6 45 f8          	movzbl -0x8(%rbp),%eax
    81ee:	01 d0                	add    %edx,%eax
    81f0:	5d                   	pop    %rbp
    81f1:	c3                   	retq   

00000000000081f2 <safe_sub_func_int8_t_s_s>:
    81f2:	f3 0f 1e fa          	endbr64 
    81f6:	55                   	push   %rbp
    81f7:	48 89 e5             	mov    %rsp,%rbp
    81fa:	89 fa                	mov    %edi,%edx
    81fc:	89 f0                	mov    %esi,%eax
    81fe:	88 55 fc             	mov    %dl,-0x4(%rbp)
    8201:	88 45 f8             	mov    %al,-0x8(%rbp)
    8204:	0f b6 55 fc          	movzbl -0x4(%rbp),%edx
    8208:	0f b6 45 f8          	movzbl -0x8(%rbp),%eax
    820c:	29 c2                	sub    %eax,%edx
    820e:	89 d0                	mov    %edx,%eax
    8210:	5d                   	pop    %rbp
    8211:	c3                   	retq   

0000000000008212 <safe_mul_func_int8_t_s_s>:
    8212:	f3 0f 1e fa          	endbr64 
    8216:	55                   	push   %rbp
    8217:	48 89 e5             	mov    %rsp,%rbp
    821a:	89 fa                	mov    %edi,%edx
    821c:	89 f0                	mov    %esi,%eax
    821e:	88 55 fc             	mov    %dl,-0x4(%rbp)
    8221:	88 45 f8             	mov    %al,-0x8(%rbp)
    8224:	0f b6 45 fc          	movzbl -0x4(%rbp),%eax
    8228:	0f b6 55 f8          	movzbl -0x8(%rbp),%edx
    822c:	0f af c2             	imul   %edx,%eax
    822f:	5d                   	pop    %rbp
    8230:	c3                   	retq   

0000000000008231 <safe_mod_func_int8_t_s_s>:
    8231:	f3 0f 1e fa          	endbr64 
    8235:	55                   	push   %rbp
    8236:	48 89 e5             	mov    %rsp,%rbp
    8239:	89 fa                	mov    %edi,%edx
    823b:	89 f0                	mov    %esi,%eax
    823d:	88 55 fc             	mov    %dl,-0x4(%rbp)
    8240:	88 45 f8             	mov    %al,-0x8(%rbp)
    8243:	80 7d f8 00          	cmpb   $0x0,-0x8(%rbp)
    8247:	74 1b                	je     8264 <safe_mod_func_int8_t_s_s+0x33>
    8249:	80 7d fc 80          	cmpb   $0x80,-0x4(%rbp)
    824d:	75 06                	jne    8255 <safe_mod_func_int8_t_s_s+0x24>
    824f:	80 7d f8 ff          	cmpb   $0xff,-0x8(%rbp)
    8253:	74 0f                	je     8264 <safe_mod_func_int8_t_s_s+0x33>
    8255:	0f be 45 fc          	movsbl -0x4(%rbp),%eax
    8259:	0f be 4d f8          	movsbl -0x8(%rbp),%ecx
    825d:	99                   	cltd   
    825e:	f7 f9                	idiv   %ecx
    8260:	89 d0                	mov    %edx,%eax
    8262:	eb 04                	jmp    8268 <safe_mod_func_int8_t_s_s+0x37>
    8264:	0f b6 45 fc          	movzbl -0x4(%rbp),%eax
    8268:	5d                   	pop    %rbp
    8269:	c3                   	retq   

000000000000826a <safe_div_func_int8_t_s_s>:
    826a:	f3 0f 1e fa          	endbr64 
    826e:	55                   	push   %rbp
    826f:	48 89 e5             	mov    %rsp,%rbp
    8272:	89 fa                	mov    %edi,%edx
    8274:	89 f0                	mov    %esi,%eax
    8276:	88 55 fc             	mov    %dl,-0x4(%rbp)
    8279:	88 45 f8             	mov    %al,-0x8(%rbp)
    827c:	80 7d f8 00          	cmpb   $0x0,-0x8(%rbp)
    8280:	74 19                	je     829b <safe_div_func_int8_t_s_s+0x31>
    8282:	80 7d fc 80          	cmpb   $0x80,-0x4(%rbp)
    8286:	75 06                	jne    828e <safe_div_func_int8_t_s_s+0x24>
    8288:	80 7d f8 ff          	cmpb   $0xff,-0x8(%rbp)
    828c:	74 0d                	je     829b <safe_div_func_int8_t_s_s+0x31>
    828e:	0f be 45 fc          	movsbl -0x4(%rbp),%eax
    8292:	0f be 4d f8          	movsbl -0x8(%rbp),%ecx
    8296:	99                   	cltd   
    8297:	f7 f9                	idiv   %ecx
    8299:	eb 04                	jmp    829f <safe_div_func_int8_t_s_s+0x35>
    829b:	0f b6 45 fc          	movzbl -0x4(%rbp),%eax
    829f:	5d                   	pop    %rbp
    82a0:	c3                   	retq   

00000000000082a1 <safe_lshift_func_int8_t_s_s>:
    82a1:	f3 0f 1e fa          	endbr64 
    82a5:	55                   	push   %rbp
    82a6:	48 89 e5             	mov    %rsp,%rbp
    82a9:	89 f8                	mov    %edi,%eax
    82ab:	89 75 f8             	mov    %esi,-0x8(%rbp)
    82ae:	88 45 fc             	mov    %al,-0x4(%rbp)
    82b1:	80 7d fc 00          	cmpb   $0x0,-0x4(%rbp)
    82b5:	78 31                	js     82e8 <safe_lshift_func_int8_t_s_s+0x47>
    82b7:	83 7d f8 00          	cmpl   $0x0,-0x8(%rbp)
    82bb:	78 2b                	js     82e8 <safe_lshift_func_int8_t_s_s+0x47>
    82bd:	83 7d f8 1f          	cmpl   $0x1f,-0x8(%rbp)
    82c1:	7f 25                	jg     82e8 <safe_lshift_func_int8_t_s_s+0x47>
    82c3:	0f be 55 fc          	movsbl -0x4(%rbp),%edx
    82c7:	8b 45 f8             	mov    -0x8(%rbp),%eax
    82ca:	be 7f 00 00 00       	mov    $0x7f,%esi
    82cf:	89 c1                	mov    %eax,%ecx
    82d1:	d3 fe                	sar    %cl,%esi
    82d3:	89 f0                	mov    %esi,%eax
    82d5:	39 c2                	cmp    %eax,%edx
    82d7:	7f 0f                	jg     82e8 <safe_lshift_func_int8_t_s_s+0x47>
    82d9:	0f be 55 fc          	movsbl -0x4(%rbp),%edx
    82dd:	8b 45 f8             	mov    -0x8(%rbp),%eax
    82e0:	89 c1                	mov    %eax,%ecx
    82e2:	d3 e2                	shl    %cl,%edx
    82e4:	89 d0                	mov    %edx,%eax
    82e6:	eb 04                	jmp    82ec <safe_lshift_func_int8_t_s_s+0x4b>
    82e8:	0f b6 45 fc          	movzbl -0x4(%rbp),%eax
    82ec:	5d                   	pop    %rbp
    82ed:	c3                   	retq   

00000000000082ee <safe_lshift_func_int8_t_s_u>:
    82ee:	f3 0f 1e fa          	endbr64 
    82f2:	55                   	push   %rbp
    82f3:	48 89 e5             	mov    %rsp,%rbp
    82f6:	89 f8                	mov    %edi,%eax
    82f8:	89 75 f8             	mov    %esi,-0x8(%rbp)
    82fb:	88 45 fc             	mov    %al,-0x4(%rbp)
    82fe:	80 7d fc 00          	cmpb   $0x0,-0x4(%rbp)
    8302:	78 2b                	js     832f <safe_lshift_func_int8_t_s_u+0x41>
    8304:	83 7d f8 1f          	cmpl   $0x1f,-0x8(%rbp)
    8308:	77 25                	ja     832f <safe_lshift_func_int8_t_s_u+0x41>
    830a:	0f be 55 fc          	movsbl -0x4(%rbp),%edx
    830e:	8b 45 f8             	mov    -0x8(%rbp),%eax
    8311:	be 7f 00 00 00       	mov    $0x7f,%esi
    8316:	89 c1                	mov    %eax,%ecx
    8318:	d3 fe                	sar    %cl,%esi
    831a:	89 f0                	mov    %esi,%eax
    831c:	39 c2                	cmp    %eax,%edx
    831e:	7f 0f                	jg     832f <safe_lshift_func_int8_t_s_u+0x41>
    8320:	0f be 55 fc          	movsbl -0x4(%rbp),%edx
    8324:	8b 45 f8             	mov    -0x8(%rbp),%eax
    8327:	89 c1                	mov    %eax,%ecx
    8329:	d3 e2                	shl    %cl,%edx
    832b:	89 d0                	mov    %edx,%eax
    832d:	eb 04                	jmp    8333 <safe_lshift_func_int8_t_s_u+0x45>
    832f:	0f b6 45 fc          	movzbl -0x4(%rbp),%eax
    8333:	5d                   	pop    %rbp
    8334:	c3                   	retq   

0000000000008335 <safe_rshift_func_int8_t_s_s>:
    8335:	f3 0f 1e fa          	endbr64 
    8339:	55                   	push   %rbp
    833a:	48 89 e5             	mov    %rsp,%rbp
    833d:	89 f8                	mov    %edi,%eax
    833f:	89 75 f8             	mov    %esi,-0x8(%rbp)
    8342:	88 45 fc             	mov    %al,-0x4(%rbp)
    8345:	80 7d fc 00          	cmpb   $0x0,-0x4(%rbp)
    8349:	78 1b                	js     8366 <safe_rshift_func_int8_t_s_s+0x31>
    834b:	83 7d f8 00          	cmpl   $0x0,-0x8(%rbp)
    834f:	78 15                	js     8366 <safe_rshift_func_int8_t_s_s+0x31>
    8351:	83 7d f8 1f          	cmpl   $0x1f,-0x8(%rbp)
    8355:	7f 0f                	jg     8366 <safe_rshift_func_int8_t_s_s+0x31>
    8357:	0f be 55 fc          	movsbl -0x4(%rbp),%edx
    835b:	8b 45 f8             	mov    -0x8(%rbp),%eax
    835e:	89 c1                	mov    %eax,%ecx
    8360:	d3 fa                	sar    %cl,%edx
    8362:	89 d0                	mov    %edx,%eax
    8364:	eb 04                	jmp    836a <safe_rshift_func_int8_t_s_s+0x35>
    8366:	0f b6 45 fc          	movzbl -0x4(%rbp),%eax
    836a:	5d                   	pop    %rbp
    836b:	c3                   	retq   

000000000000836c <safe_rshift_func_int8_t_s_u>:
    836c:	f3 0f 1e fa          	endbr64 
    8370:	55                   	push   %rbp
    8371:	48 89 e5             	mov    %rsp,%rbp
    8374:	89 f8                	mov    %edi,%eax
    8376:	89 75 f8             	mov    %esi,-0x8(%rbp)
    8379:	88 45 fc             	mov    %al,-0x4(%rbp)
    837c:	80 7d fc 00          	cmpb   $0x0,-0x4(%rbp)
    8380:	78 15                	js     8397 <safe_rshift_func_int8_t_s_u+0x2b>
    8382:	83 7d f8 1f          	cmpl   $0x1f,-0x8(%rbp)
    8386:	77 0f                	ja     8397 <safe_rshift_func_int8_t_s_u+0x2b>
    8388:	0f be 55 fc          	movsbl -0x4(%rbp),%edx
    838c:	8b 45 f8             	mov    -0x8(%rbp),%eax
    838f:	89 c1                	mov    %eax,%ecx
    8391:	d3 fa                	sar    %cl,%edx
    8393:	89 d0                	mov    %edx,%eax
    8395:	eb 04                	jmp    839b <safe_rshift_func_int8_t_s_u+0x2f>
    8397:	0f b6 45 fc          	movzbl -0x4(%rbp),%eax
    839b:	5d                   	pop    %rbp
    839c:	c3                   	retq   

000000000000839d <safe_unary_minus_func_int16_t_s>:
    839d:	f3 0f 1e fa          	endbr64 
    83a1:	55                   	push   %rbp
    83a2:	48 89 e5             	mov    %rsp,%rbp
    83a5:	89 f8                	mov    %edi,%eax
    83a7:	66 89 45 fc          	mov    %ax,-0x4(%rbp)
    83ab:	0f b7 45 fc          	movzwl -0x4(%rbp),%eax
    83af:	f7 d8                	neg    %eax
    83b1:	5d                   	pop    %rbp
    83b2:	c3                   	retq   

00000000000083b3 <safe_add_func_int16_t_s_s>:
    83b3:	f3 0f 1e fa          	endbr64 
    83b7:	55                   	push   %rbp
    83b8:	48 89 e5             	mov    %rsp,%rbp
    83bb:	89 fa                	mov    %edi,%edx
    83bd:	89 f0                	mov    %esi,%eax
    83bf:	66 89 55 fc          	mov    %dx,-0x4(%rbp)
    83c3:	66 89 45 f8          	mov    %ax,-0x8(%rbp)
    83c7:	0f b7 55 fc          	movzwl -0x4(%rbp),%edx
    83cb:	0f b7 45 f8          	movzwl -0x8(%rbp),%eax
    83cf:	01 d0                	add    %edx,%eax
    83d1:	5d                   	pop    %rbp
    83d2:	c3                   	retq   

00000000000083d3 <safe_sub_func_int16_t_s_s>:
    83d3:	f3 0f 1e fa          	endbr64 
    83d7:	55                   	push   %rbp
    83d8:	48 89 e5             	mov    %rsp,%rbp
    83db:	89 fa                	mov    %edi,%edx
    83dd:	89 f0                	mov    %esi,%eax
    83df:	66 89 55 fc          	mov    %dx,-0x4(%rbp)
    83e3:	66 89 45 f8          	mov    %ax,-0x8(%rbp)
    83e7:	0f b7 55 fc          	movzwl -0x4(%rbp),%edx
    83eb:	0f b7 45 f8          	movzwl -0x8(%rbp),%eax
    83ef:	29 c2                	sub    %eax,%edx
    83f1:	89 d0                	mov    %edx,%eax
    83f3:	5d                   	pop    %rbp
    83f4:	c3                   	retq   

00000000000083f5 <safe_mul_func_int16_t_s_s>:
    83f5:	f3 0f 1e fa          	endbr64 
    83f9:	55                   	push   %rbp
    83fa:	48 89 e5             	mov    %rsp,%rbp
    83fd:	89 fa                	mov    %edi,%edx
    83ff:	89 f0                	mov    %esi,%eax
    8401:	66 89 55 fc          	mov    %dx,-0x4(%rbp)
    8405:	66 89 45 f8          	mov    %ax,-0x8(%rbp)
    8409:	0f b7 55 fc          	movzwl -0x4(%rbp),%edx
    840d:	0f b7 45 f8          	movzwl -0x8(%rbp),%eax
    8411:	0f af c2             	imul   %edx,%eax
    8414:	5d                   	pop    %rbp
    8415:	c3                   	retq   

0000000000008416 <safe_mod_func_int16_t_s_s>:
    8416:	f3 0f 1e fa          	endbr64 
    841a:	55                   	push   %rbp
    841b:	48 89 e5             	mov    %rsp,%rbp
    841e:	89 fa                	mov    %edi,%edx
    8420:	89 f0                	mov    %esi,%eax
    8422:	66 89 55 fc          	mov    %dx,-0x4(%rbp)
    8426:	66 89 45 f8          	mov    %ax,-0x8(%rbp)
    842a:	66 83 7d f8 00       	cmpw   $0x0,-0x8(%rbp)
    842f:	74 1e                	je     844f <safe_mod_func_int16_t_s_s+0x39>
    8431:	66 81 7d fc 00 80    	cmpw   $0x8000,-0x4(%rbp)
    8437:	75 07                	jne    8440 <safe_mod_func_int16_t_s_s+0x2a>
    8439:	66 83 7d f8 ff       	cmpw   $0xffff,-0x8(%rbp)
    843e:	74 0f                	je     844f <safe_mod_func_int16_t_s_s+0x39>
    8440:	0f bf 45 fc          	movswl -0x4(%rbp),%eax
    8444:	0f bf 4d f8          	movswl -0x8(%rbp),%ecx
    8448:	99                   	cltd   
    8449:	f7 f9                	idiv   %ecx
    844b:	89 d0                	mov    %edx,%eax
    844d:	eb 04                	jmp    8453 <safe_mod_func_int16_t_s_s+0x3d>
    844f:	0f b7 45 fc          	movzwl -0x4(%rbp),%eax
    8453:	5d                   	pop    %rbp
    8454:	c3                   	retq   

0000000000008455 <safe_div_func_int16_t_s_s>:
    8455:	f3 0f 1e fa          	endbr64 
    8459:	55                   	push   %rbp
    845a:	48 89 e5             	mov    %rsp,%rbp
    845d:	89 fa                	mov    %edi,%edx
    845f:	89 f0                	mov    %esi,%eax
    8461:	66 89 55 fc          	mov    %dx,-0x4(%rbp)
    8465:	66 89 45 f8          	mov    %ax,-0x8(%rbp)
    8469:	66 83 7d f8 00       	cmpw   $0x0,-0x8(%rbp)
    846e:	74 1c                	je     848c <safe_div_func_int16_t_s_s+0x37>
    8470:	66 81 7d fc 00 80    	cmpw   $0x8000,-0x4(%rbp)
    8476:	75 07                	jne    847f <safe_div_func_int16_t_s_s+0x2a>
    8478:	66 83 7d f8 ff       	cmpw   $0xffff,-0x8(%rbp)
    847d:	74 0d                	je     848c <safe_div_func_int16_t_s_s+0x37>
    847f:	0f bf 45 fc          	movswl -0x4(%rbp),%eax
    8483:	0f bf 4d f8          	movswl -0x8(%rbp),%ecx
    8487:	99                   	cltd   
    8488:	f7 f9                	idiv   %ecx
    848a:	eb 04                	jmp    8490 <safe_div_func_int16_t_s_s+0x3b>
    848c:	0f b7 45 fc          	movzwl -0x4(%rbp),%eax
    8490:	5d                   	pop    %rbp
    8491:	c3                   	retq   

0000000000008492 <safe_lshift_func_int16_t_s_s>:
    8492:	f3 0f 1e fa          	endbr64 
    8496:	55                   	push   %rbp
    8497:	48 89 e5             	mov    %rsp,%rbp
    849a:	89 f8                	mov    %edi,%eax
    849c:	89 75 f8             	mov    %esi,-0x8(%rbp)
    849f:	66 89 45 fc          	mov    %ax,-0x4(%rbp)
    84a3:	66 83 7d fc 00       	cmpw   $0x0,-0x4(%rbp)
    84a8:	78 31                	js     84db <safe_lshift_func_int16_t_s_s+0x49>
    84aa:	83 7d f8 00          	cmpl   $0x0,-0x8(%rbp)
    84ae:	78 2b                	js     84db <safe_lshift_func_int16_t_s_s+0x49>
    84b0:	83 7d f8 1f          	cmpl   $0x1f,-0x8(%rbp)
    84b4:	7f 25                	jg     84db <safe_lshift_func_int16_t_s_s+0x49>
    84b6:	0f bf 55 fc          	movswl -0x4(%rbp),%edx
    84ba:	8b 45 f8             	mov    -0x8(%rbp),%eax
    84bd:	be ff 7f 00 00       	mov    $0x7fff,%esi
    84c2:	89 c1                	mov    %eax,%ecx
    84c4:	d3 fe                	sar    %cl,%esi
    84c6:	89 f0                	mov    %esi,%eax
    84c8:	39 c2                	cmp    %eax,%edx
    84ca:	7f 0f                	jg     84db <safe_lshift_func_int16_t_s_s+0x49>
    84cc:	0f bf 55 fc          	movswl -0x4(%rbp),%edx
    84d0:	8b 45 f8             	mov    -0x8(%rbp),%eax
    84d3:	89 c1                	mov    %eax,%ecx
    84d5:	d3 e2                	shl    %cl,%edx
    84d7:	89 d0                	mov    %edx,%eax
    84d9:	eb 04                	jmp    84df <safe_lshift_func_int16_t_s_s+0x4d>
    84db:	0f b7 45 fc          	movzwl -0x4(%rbp),%eax
    84df:	5d                   	pop    %rbp
    84e0:	c3                   	retq   

00000000000084e1 <safe_lshift_func_int16_t_s_u>:
    84e1:	f3 0f 1e fa          	endbr64 
    84e5:	55                   	push   %rbp
    84e6:	48 89 e5             	mov    %rsp,%rbp
    84e9:	89 f8                	mov    %edi,%eax
    84eb:	89 75 f8             	mov    %esi,-0x8(%rbp)
    84ee:	66 89 45 fc          	mov    %ax,-0x4(%rbp)
    84f2:	66 83 7d fc 00       	cmpw   $0x0,-0x4(%rbp)
    84f7:	78 2b                	js     8524 <safe_lshift_func_int16_t_s_u+0x43>
    84f9:	83 7d f8 1f          	cmpl   $0x1f,-0x8(%rbp)
    84fd:	77 25                	ja     8524 <safe_lshift_func_int16_t_s_u+0x43>
    84ff:	0f bf 55 fc          	movswl -0x4(%rbp),%edx
    8503:	8b 45 f8             	mov    -0x8(%rbp),%eax
    8506:	be ff 7f 00 00       	mov    $0x7fff,%esi
    850b:	89 c1                	mov    %eax,%ecx
    850d:	d3 fe                	sar    %cl,%esi
    850f:	89 f0                	mov    %esi,%eax
    8511:	39 c2                	cmp    %eax,%edx
    8513:	7f 0f                	jg     8524 <safe_lshift_func_int16_t_s_u+0x43>
    8515:	0f bf 55 fc          	movswl -0x4(%rbp),%edx
    8519:	8b 45 f8             	mov    -0x8(%rbp),%eax
    851c:	89 c1                	mov    %eax,%ecx
    851e:	d3 e2                	shl    %cl,%edx
    8520:	89 d0                	mov    %edx,%eax
    8522:	eb 04                	jmp    8528 <safe_lshift_func_int16_t_s_u+0x47>
    8524:	0f b7 45 fc          	movzwl -0x4(%rbp),%eax
    8528:	5d                   	pop    %rbp
    8529:	c3                   	retq   

000000000000852a <safe_rshift_func_int16_t_s_s>:
    852a:	f3 0f 1e fa          	endbr64 
    852e:	55                   	push   %rbp
    852f:	48 89 e5             	mov    %rsp,%rbp
    8532:	89 f8                	mov    %edi,%eax
    8534:	89 75 f8             	mov    %esi,-0x8(%rbp)
    8537:	66 89 45 fc          	mov    %ax,-0x4(%rbp)
    853b:	66 83 7d fc 00       	cmpw   $0x0,-0x4(%rbp)
    8540:	78 1b                	js     855d <safe_rshift_func_int16_t_s_s+0x33>
    8542:	83 7d f8 00          	cmpl   $0x0,-0x8(%rbp)
    8546:	78 15                	js     855d <safe_rshift_func_int16_t_s_s+0x33>
    8548:	83 7d f8 1f          	cmpl   $0x1f,-0x8(%rbp)
    854c:	7f 0f                	jg     855d <safe_rshift_func_int16_t_s_s+0x33>
    854e:	0f bf 55 fc          	movswl -0x4(%rbp),%edx
    8552:	8b 45 f8             	mov    -0x8(%rbp),%eax
    8555:	89 c1                	mov    %eax,%ecx
    8557:	d3 fa                	sar    %cl,%edx
    8559:	89 d0                	mov    %edx,%eax
    855b:	eb 04                	jmp    8561 <safe_rshift_func_int16_t_s_s+0x37>
    855d:	0f b7 45 fc          	movzwl -0x4(%rbp),%eax
    8561:	5d                   	pop    %rbp
    8562:	c3                   	retq   

0000000000008563 <safe_rshift_func_int16_t_s_u>:
    8563:	f3 0f 1e fa          	endbr64 
    8567:	55                   	push   %rbp
    8568:	48 89 e5             	mov    %rsp,%rbp
    856b:	89 f8                	mov    %edi,%eax
    856d:	89 75 f8             	mov    %esi,-0x8(%rbp)
    8570:	66 89 45 fc          	mov    %ax,-0x4(%rbp)
    8574:	66 83 7d fc 00       	cmpw   $0x0,-0x4(%rbp)
    8579:	78 15                	js     8590 <safe_rshift_func_int16_t_s_u+0x2d>
    857b:	83 7d f8 1f          	cmpl   $0x1f,-0x8(%rbp)
    857f:	77 0f                	ja     8590 <safe_rshift_func_int16_t_s_u+0x2d>
    8581:	0f bf 55 fc          	movswl -0x4(%rbp),%edx
    8585:	8b 45 f8             	mov    -0x8(%rbp),%eax
    8588:	89 c1                	mov    %eax,%ecx
    858a:	d3 fa                	sar    %cl,%edx
    858c:	89 d0                	mov    %edx,%eax
    858e:	eb 04                	jmp    8594 <safe_rshift_func_int16_t_s_u+0x31>
    8590:	0f b7 45 fc          	movzwl -0x4(%rbp),%eax
    8594:	5d                   	pop    %rbp
    8595:	c3                   	retq   

0000000000008596 <safe_unary_minus_func_int32_t_s>:
    8596:	f3 0f 1e fa          	endbr64 
    859a:	55                   	push   %rbp
    859b:	48 89 e5             	mov    %rsp,%rbp
    859e:	89 7d fc             	mov    %edi,-0x4(%rbp)
    85a1:	81 7d fc 00 00 00 80 	cmpl   $0x80000000,-0x4(%rbp)
    85a8:	74 07                	je     85b1 <safe_unary_minus_func_int32_t_s+0x1b>
    85aa:	8b 45 fc             	mov    -0x4(%rbp),%eax
    85ad:	f7 d8                	neg    %eax
    85af:	eb 03                	jmp    85b4 <safe_unary_minus_func_int32_t_s+0x1e>
    85b1:	8b 45 fc             	mov    -0x4(%rbp),%eax
    85b4:	5d                   	pop    %rbp
    85b5:	c3                   	retq   

00000000000085b6 <safe_add_func_int32_t_s_s>:
    85b6:	f3 0f 1e fa          	endbr64 
    85ba:	55                   	push   %rbp
    85bb:	48 89 e5             	mov    %rsp,%rbp
    85be:	89 7d fc             	mov    %edi,-0x4(%rbp)
    85c1:	89 75 f8             	mov    %esi,-0x8(%rbp)
    85c4:	83 7d fc 00          	cmpl   $0x0,-0x4(%rbp)
    85c8:	7e 13                	jle    85dd <safe_add_func_int32_t_s_s+0x27>
    85ca:	83 7d f8 00          	cmpl   $0x0,-0x8(%rbp)
    85ce:	7e 0d                	jle    85dd <safe_add_func_int32_t_s_s+0x27>
    85d0:	b8 ff ff ff 7f       	mov    $0x7fffffff,%eax
    85d5:	2b 45 f8             	sub    -0x8(%rbp),%eax
    85d8:	39 45 fc             	cmp    %eax,-0x4(%rbp)
    85db:	7f 23                	jg     8600 <safe_add_func_int32_t_s_s+0x4a>
    85dd:	83 7d fc 00          	cmpl   $0x0,-0x4(%rbp)
    85e1:	79 13                	jns    85f6 <safe_add_func_int32_t_s_s+0x40>
    85e3:	83 7d f8 00          	cmpl   $0x0,-0x8(%rbp)
    85e7:	79 0d                	jns    85f6 <safe_add_func_int32_t_s_s+0x40>
    85e9:	b8 00 00 00 80       	mov    $0x80000000,%eax
    85ee:	2b 45 f8             	sub    -0x8(%rbp),%eax
    85f1:	39 45 fc             	cmp    %eax,-0x4(%rbp)
    85f4:	7c 0a                	jl     8600 <safe_add_func_int32_t_s_s+0x4a>
    85f6:	8b 55 fc             	mov    -0x4(%rbp),%edx
    85f9:	8b 45 f8             	mov    -0x8(%rbp),%eax
    85fc:	01 d0                	add    %edx,%eax
    85fe:	eb 03                	jmp    8603 <safe_add_func_int32_t_s_s+0x4d>
    8600:	8b 45 fc             	mov    -0x4(%rbp),%eax
    8603:	5d                   	pop    %rbp
    8604:	c3                   	retq   

0000000000008605 <safe_sub_func_int32_t_s_s>:
    8605:	f3 0f 1e fa          	endbr64 
    8609:	55                   	push   %rbp
    860a:	48 89 e5             	mov    %rsp,%rbp
    860d:	89 7d fc             	mov    %edi,-0x4(%rbp)
    8610:	89 75 f8             	mov    %esi,-0x8(%rbp)
    8613:	8b 45 fc             	mov    -0x4(%rbp),%eax
    8616:	33 45 f8             	xor    -0x8(%rbp),%eax
    8619:	89 c2                	mov    %eax,%edx
    861b:	8b 45 fc             	mov    -0x4(%rbp),%eax
    861e:	33 45 f8             	xor    -0x8(%rbp),%eax
    8621:	25 00 00 00 80       	and    $0x80000000,%eax
    8626:	33 45 fc             	xor    -0x4(%rbp),%eax
    8629:	2b 45 f8             	sub    -0x8(%rbp),%eax
    862c:	33 45 f8             	xor    -0x8(%rbp),%eax
    862f:	21 d0                	and    %edx,%eax
    8631:	85 c0                	test   %eax,%eax
    8633:	78 08                	js     863d <safe_sub_func_int32_t_s_s+0x38>
    8635:	8b 45 fc             	mov    -0x4(%rbp),%eax
    8638:	2b 45 f8             	sub    -0x8(%rbp),%eax
    863b:	eb 03                	jmp    8640 <safe_sub_func_int32_t_s_s+0x3b>
    863d:	8b 45 fc             	mov    -0x4(%rbp),%eax
    8640:	5d                   	pop    %rbp
    8641:	c3                   	retq   

0000000000008642 <safe_mul_func_int32_t_s_s>:
    8642:	f3 0f 1e fa          	endbr64 
    8646:	55                   	push   %rbp
    8647:	48 89 e5             	mov    %rsp,%rbp
    864a:	89 7d fc             	mov    %edi,-0x4(%rbp)
    864d:	89 75 f8             	mov    %esi,-0x8(%rbp)
    8650:	83 7d fc 00          	cmpl   $0x0,-0x4(%rbp)
    8654:	7e 14                	jle    866a <safe_mul_func_int32_t_s_s+0x28>
    8656:	83 7d f8 00          	cmpl   $0x0,-0x8(%rbp)
    865a:	7e 0e                	jle    866a <safe_mul_func_int32_t_s_s+0x28>
    865c:	b8 ff ff ff 7f       	mov    $0x7fffffff,%eax
    8661:	99                   	cltd   
    8662:	f7 7d f8             	idivl  -0x8(%rbp)
    8665:	39 45 fc             	cmp    %eax,-0x4(%rbp)
    8668:	7f 5d                	jg     86c7 <safe_mul_func_int32_t_s_s+0x85>
    866a:	83 7d fc 00          	cmpl   $0x0,-0x4(%rbp)
    866e:	7e 14                	jle    8684 <safe_mul_func_int32_t_s_s+0x42>
    8670:	83 7d f8 00          	cmpl   $0x0,-0x8(%rbp)
    8674:	7f 0e                	jg     8684 <safe_mul_func_int32_t_s_s+0x42>
    8676:	b8 00 00 00 80       	mov    $0x80000000,%eax
    867b:	99                   	cltd   
    867c:	f7 7d fc             	idivl  -0x4(%rbp)
    867f:	39 45 f8             	cmp    %eax,-0x8(%rbp)
    8682:	7c 43                	jl     86c7 <safe_mul_func_int32_t_s_s+0x85>
    8684:	83 7d fc 00          	cmpl   $0x0,-0x4(%rbp)
    8688:	7f 14                	jg     869e <safe_mul_func_int32_t_s_s+0x5c>
    868a:	83 7d f8 00          	cmpl   $0x0,-0x8(%rbp)
    868e:	7e 0e                	jle    869e <safe_mul_func_int32_t_s_s+0x5c>
    8690:	b8 00 00 00 80       	mov    $0x80000000,%eax
    8695:	99                   	cltd   
    8696:	f7 7d f8             	idivl  -0x8(%rbp)
    8699:	39 45 fc             	cmp    %eax,-0x4(%rbp)
    869c:	7c 29                	jl     86c7 <safe_mul_func_int32_t_s_s+0x85>
    869e:	83 7d fc 00          	cmpl   $0x0,-0x4(%rbp)
    86a2:	7f 1a                	jg     86be <safe_mul_func_int32_t_s_s+0x7c>
    86a4:	83 7d f8 00          	cmpl   $0x0,-0x8(%rbp)
    86a8:	7f 14                	jg     86be <safe_mul_func_int32_t_s_s+0x7c>
    86aa:	83 7d fc 00          	cmpl   $0x0,-0x4(%rbp)
    86ae:	74 0e                	je     86be <safe_mul_func_int32_t_s_s+0x7c>
    86b0:	b8 ff ff ff 7f       	mov    $0x7fffffff,%eax
    86b5:	99                   	cltd   
    86b6:	f7 7d fc             	idivl  -0x4(%rbp)
    86b9:	39 45 f8             	cmp    %eax,-0x8(%rbp)
    86bc:	7c 09                	jl     86c7 <safe_mul_func_int32_t_s_s+0x85>
    86be:	8b 45 fc             	mov    -0x4(%rbp),%eax
    86c1:	0f af 45 f8          	imul   -0x8(%rbp),%eax
    86c5:	eb 03                	jmp    86ca <safe_mul_func_int32_t_s_s+0x88>
    86c7:	8b 45 fc             	mov    -0x4(%rbp),%eax
    86ca:	5d                   	pop    %rbp
    86cb:	c3                   	retq   

00000000000086cc <safe_mod_func_int32_t_s_s>:
    86cc:	f3 0f 1e fa          	endbr64 
    86d0:	55                   	push   %rbp
    86d1:	48 89 e5             	mov    %rsp,%rbp
    86d4:	89 7d fc             	mov    %edi,-0x4(%rbp)
    86d7:	89 75 f8             	mov    %esi,-0x8(%rbp)
    86da:	83 7d f8 00          	cmpl   $0x0,-0x8(%rbp)
    86de:	74 1a                	je     86fa <safe_mod_func_int32_t_s_s+0x2e>
    86e0:	81 7d fc 00 00 00 80 	cmpl   $0x80000000,-0x4(%rbp)
    86e7:	75 06                	jne    86ef <safe_mod_func_int32_t_s_s+0x23>
    86e9:	83 7d f8 ff          	cmpl   $0xffffffff,-0x8(%rbp)
    86ed:	74 0b                	je     86fa <safe_mod_func_int32_t_s_s+0x2e>
    86ef:	8b 45 fc             	mov    -0x4(%rbp),%eax
    86f2:	99                   	cltd   
    86f3:	f7 7d f8             	idivl  -0x8(%rbp)
    86f6:	89 d0                	mov    %edx,%eax
    86f8:	eb 03                	jmp    86fd <safe_mod_func_int32_t_s_s+0x31>
    86fa:	8b 45 fc             	mov    -0x4(%rbp),%eax
    86fd:	5d                   	pop    %rbp
    86fe:	c3                   	retq   

00000000000086ff <safe_div_func_int32_t_s_s>:
    86ff:	f3 0f 1e fa          	endbr64 
    8703:	55                   	push   %rbp
    8704:	48 89 e5             	mov    %rsp,%rbp
    8707:	89 7d fc             	mov    %edi,-0x4(%rbp)
    870a:	89 75 f8             	mov    %esi,-0x8(%rbp)
    870d:	83 7d f8 00          	cmpl   $0x0,-0x8(%rbp)
    8711:	74 18                	je     872b <safe_div_func_int32_t_s_s+0x2c>
    8713:	81 7d fc 00 00 00 80 	cmpl   $0x80000000,-0x4(%rbp)
    871a:	75 06                	jne    8722 <safe_div_func_int32_t_s_s+0x23>
    871c:	83 7d f8 ff          	cmpl   $0xffffffff,-0x8(%rbp)
    8720:	74 09                	je     872b <safe_div_func_int32_t_s_s+0x2c>
    8722:	8b 45 fc             	mov    -0x4(%rbp),%eax
    8725:	99                   	cltd   
    8726:	f7 7d f8             	idivl  -0x8(%rbp)
    8729:	eb 03                	jmp    872e <safe_div_func_int32_t_s_s+0x2f>
    872b:	8b 45 fc             	mov    -0x4(%rbp),%eax
    872e:	5d                   	pop    %rbp
    872f:	c3                   	retq   

0000000000008730 <safe_lshift_func_int32_t_s_s>:
    8730:	f3 0f 1e fa          	endbr64 
    8734:	55                   	push   %rbp
    8735:	48 89 e5             	mov    %rsp,%rbp
    8738:	89 7d fc             	mov    %edi,-0x4(%rbp)
    873b:	89 75 f8             	mov    %esi,-0x8(%rbp)
    873e:	83 7d fc 00          	cmpl   $0x0,-0x4(%rbp)
    8742:	78 2d                	js     8771 <safe_lshift_func_int32_t_s_s+0x41>
    8744:	83 7d f8 00          	cmpl   $0x0,-0x8(%rbp)
    8748:	78 27                	js     8771 <safe_lshift_func_int32_t_s_s+0x41>
    874a:	83 7d f8 1f          	cmpl   $0x1f,-0x8(%rbp)
    874e:	7f 21                	jg     8771 <safe_lshift_func_int32_t_s_s+0x41>
    8750:	8b 45 f8             	mov    -0x8(%rbp),%eax
    8753:	ba ff ff ff 7f       	mov    $0x7fffffff,%edx
    8758:	89 c1                	mov    %eax,%ecx
    875a:	d3 fa                	sar    %cl,%edx
    875c:	89 d0                	mov    %edx,%eax
    875e:	39 45 fc             	cmp    %eax,-0x4(%rbp)
    8761:	7f 0e                	jg     8771 <safe_lshift_func_int32_t_s_s+0x41>
    8763:	8b 45 f8             	mov    -0x8(%rbp),%eax
    8766:	8b 55 fc             	mov    -0x4(%rbp),%edx
    8769:	89 c1                	mov    %eax,%ecx
    876b:	d3 e2                	shl    %cl,%edx
    876d:	89 d0                	mov    %edx,%eax
    876f:	eb 03                	jmp    8774 <safe_lshift_func_int32_t_s_s+0x44>
    8771:	8b 45 fc             	mov    -0x4(%rbp),%eax
    8774:	5d                   	pop    %rbp
    8775:	c3                   	retq   

0000000000008776 <safe_lshift_func_int32_t_s_u>:
    8776:	f3 0f 1e fa          	endbr64 
    877a:	55                   	push   %rbp
    877b:	48 89 e5             	mov    %rsp,%rbp
    877e:	89 7d fc             	mov    %edi,-0x4(%rbp)
    8781:	89 75 f8             	mov    %esi,-0x8(%rbp)
    8784:	83 7d fc 00          	cmpl   $0x0,-0x4(%rbp)
    8788:	78 27                	js     87b1 <safe_lshift_func_int32_t_s_u+0x3b>
    878a:	83 7d f8 1f          	cmpl   $0x1f,-0x8(%rbp)
    878e:	77 21                	ja     87b1 <safe_lshift_func_int32_t_s_u+0x3b>
    8790:	8b 45 f8             	mov    -0x8(%rbp),%eax
    8793:	ba ff ff ff 7f       	mov    $0x7fffffff,%edx
    8798:	89 c1                	mov    %eax,%ecx
    879a:	d3 fa                	sar    %cl,%edx
    879c:	89 d0                	mov    %edx,%eax
    879e:	39 45 fc             	cmp    %eax,-0x4(%rbp)
    87a1:	7f 0e                	jg     87b1 <safe_lshift_func_int32_t_s_u+0x3b>
    87a3:	8b 45 f8             	mov    -0x8(%rbp),%eax
    87a6:	8b 55 fc             	mov    -0x4(%rbp),%edx
    87a9:	89 c1                	mov    %eax,%ecx
    87ab:	d3 e2                	shl    %cl,%edx
    87ad:	89 d0                	mov    %edx,%eax
    87af:	eb 03                	jmp    87b4 <safe_lshift_func_int32_t_s_u+0x3e>
    87b1:	8b 45 fc             	mov    -0x4(%rbp),%eax
    87b4:	5d                   	pop    %rbp
    87b5:	c3                   	retq   

00000000000087b6 <safe_rshift_func_int32_t_s_s>:
    87b6:	f3 0f 1e fa          	endbr64 
    87ba:	55                   	push   %rbp
    87bb:	48 89 e5             	mov    %rsp,%rbp
    87be:	89 7d fc             	mov    %edi,-0x4(%rbp)
    87c1:	89 75 f8             	mov    %esi,-0x8(%rbp)
    87c4:	83 7d fc 00          	cmpl   $0x0,-0x4(%rbp)
    87c8:	78 1a                	js     87e4 <safe_rshift_func_int32_t_s_s+0x2e>
    87ca:	83 7d f8 00          	cmpl   $0x0,-0x8(%rbp)
    87ce:	78 14                	js     87e4 <safe_rshift_func_int32_t_s_s+0x2e>
    87d0:	83 7d f8 1f          	cmpl   $0x1f,-0x8(%rbp)
    87d4:	7f 0e                	jg     87e4 <safe_rshift_func_int32_t_s_s+0x2e>
    87d6:	8b 45 f8             	mov    -0x8(%rbp),%eax
    87d9:	8b 55 fc             	mov    -0x4(%rbp),%edx
    87dc:	89 c1                	mov    %eax,%ecx
    87de:	d3 fa                	sar    %cl,%edx
    87e0:	89 d0                	mov    %edx,%eax
    87e2:	eb 03                	jmp    87e7 <safe_rshift_func_int32_t_s_s+0x31>
    87e4:	8b 45 fc             	mov    -0x4(%rbp),%eax
    87e7:	5d                   	pop    %rbp
    87e8:	c3                   	retq   

00000000000087e9 <safe_rshift_func_int32_t_s_u>:
    87e9:	f3 0f 1e fa          	endbr64 
    87ed:	55                   	push   %rbp
    87ee:	48 89 e5             	mov    %rsp,%rbp
    87f1:	89 7d fc             	mov    %edi,-0x4(%rbp)
    87f4:	89 75 f8             	mov    %esi,-0x8(%rbp)
    87f7:	83 7d fc 00          	cmpl   $0x0,-0x4(%rbp)
    87fb:	78 14                	js     8811 <safe_rshift_func_int32_t_s_u+0x28>
    87fd:	83 7d f8 1f          	cmpl   $0x1f,-0x8(%rbp)
    8801:	77 0e                	ja     8811 <safe_rshift_func_int32_t_s_u+0x28>
    8803:	8b 45 f8             	mov    -0x8(%rbp),%eax
    8806:	8b 55 fc             	mov    -0x4(%rbp),%edx
    8809:	89 c1                	mov    %eax,%ecx
    880b:	d3 fa                	sar    %cl,%edx
    880d:	89 d0                	mov    %edx,%eax
    880f:	eb 03                	jmp    8814 <safe_rshift_func_int32_t_s_u+0x2b>
    8811:	8b 45 fc             	mov    -0x4(%rbp),%eax
    8814:	5d                   	pop    %rbp
    8815:	c3                   	retq   

0000000000008816 <safe_unary_minus_func_int64_t_s>:
    8816:	f3 0f 1e fa          	endbr64 
    881a:	55                   	push   %rbp
    881b:	48 89 e5             	mov    %rsp,%rbp
    881e:	48 89 7d f8          	mov    %rdi,-0x8(%rbp)
    8822:	48 b8 00 00 00 00 00 	movabs $0x8000000000000000,%rax
    8829:	00 00 80 
    882c:	48 39 45 f8          	cmp    %rax,-0x8(%rbp)
    8830:	74 09                	je     883b <safe_unary_minus_func_int64_t_s+0x25>
    8832:	48 8b 45 f8          	mov    -0x8(%rbp),%rax
    8836:	48 f7 d8             	neg    %rax
    8839:	eb 04                	jmp    883f <safe_unary_minus_func_int64_t_s+0x29>
    883b:	48 8b 45 f8          	mov    -0x8(%rbp),%rax
    883f:	5d                   	pop    %rbp
    8840:	c3                   	retq   

0000000000008841 <safe_add_func_int64_t_s_s>:
    8841:	f3 0f 1e fa          	endbr64 
    8845:	55                   	push   %rbp
    8846:	48 89 e5             	mov    %rsp,%rbp
    8849:	48 89 7d f8          	mov    %rdi,-0x8(%rbp)
    884d:	48 89 75 f0          	mov    %rsi,-0x10(%rbp)
    8851:	48 83 7d f8 00       	cmpq   $0x0,-0x8(%rbp)
    8856:	7e 1b                	jle    8873 <safe_add_func_int64_t_s_s+0x32>
    8858:	48 83 7d f0 00       	cmpq   $0x0,-0x10(%rbp)
    885d:	7e 14                	jle    8873 <safe_add_func_int64_t_s_s+0x32>
    885f:	48 b8 ff ff ff ff ff 	movabs $0x7fffffffffffffff,%rax
    8866:	ff ff 7f 
    8869:	48 2b 45 f0          	sub    -0x10(%rbp),%rax
    886d:	48 39 45 f8          	cmp    %rax,-0x8(%rbp)
    8871:	7f 2f                	jg     88a2 <safe_add_func_int64_t_s_s+0x61>
    8873:	48 83 7d f8 00       	cmpq   $0x0,-0x8(%rbp)
    8878:	79 1b                	jns    8895 <safe_add_func_int64_t_s_s+0x54>
    887a:	48 83 7d f0 00       	cmpq   $0x0,-0x10(%rbp)
    887f:	79 14                	jns    8895 <safe_add_func_int64_t_s_s+0x54>
    8881:	48 b8 00 00 00 00 00 	movabs $0x8000000000000000,%rax
    8888:	00 00 80 
    888b:	48 2b 45 f0          	sub    -0x10(%rbp),%rax
    888f:	48 39 45 f8          	cmp    %rax,-0x8(%rbp)
    8893:	7c 0d                	jl     88a2 <safe_add_func_int64_t_s_s+0x61>
    8895:	48 8b 55 f8          	mov    -0x8(%rbp),%rdx
    8899:	48 8b 45 f0          	mov    -0x10(%rbp),%rax
    889d:	48 01 d0             	add    %rdx,%rax
    88a0:	eb 04                	jmp    88a6 <safe_add_func_int64_t_s_s+0x65>
    88a2:	48 8b 45 f8          	mov    -0x8(%rbp),%rax
    88a6:	5d                   	pop    %rbp
    88a7:	c3                   	retq   

00000000000088a8 <safe_sub_func_int64_t_s_s>:
    88a8:	f3 0f 1e fa          	endbr64 
    88ac:	55                   	push   %rbp
    88ad:	48 89 e5             	mov    %rsp,%rbp
    88b0:	48 89 7d f8          	mov    %rdi,-0x8(%rbp)
    88b4:	48 89 75 f0          	mov    %rsi,-0x10(%rbp)
    88b8:	48 8b 45 f8          	mov    -0x8(%rbp),%rax
    88bc:	48 33 45 f0          	xor    -0x10(%rbp),%rax
    88c0:	48 89 c2             	mov    %rax,%rdx
    88c3:	48 8b 45 f8          	mov    -0x8(%rbp),%rax
    88c7:	48 33 45 f0          	xor    -0x10(%rbp),%rax
    88cb:	48 b9 00 00 00 00 00 	movabs $0x8000000000000000,%rcx
    88d2:	00 00 80 
    88d5:	48 21 c8             	and    %rcx,%rax
    88d8:	48 33 45 f8          	xor    -0x8(%rbp),%rax
    88dc:	48 2b 45 f0          	sub    -0x10(%rbp),%rax
    88e0:	48 33 45 f0          	xor    -0x10(%rbp),%rax
    88e4:	48 21 d0             	and    %rdx,%rax
    88e7:	48 85 c0             	test   %rax,%rax
    88ea:	78 0a                	js     88f6 <safe_sub_func_int64_t_s_s+0x4e>
    88ec:	48 8b 45 f8          	mov    -0x8(%rbp),%rax
    88f0:	48 2b 45 f0          	sub    -0x10(%rbp),%rax
    88f4:	eb 04                	jmp    88fa <safe_sub_func_int64_t_s_s+0x52>
    88f6:	48 8b 45 f8          	mov    -0x8(%rbp),%rax
    88fa:	5d                   	pop    %rbp
    88fb:	c3                   	retq   

00000000000088fc <safe_mul_func_int64_t_s_s>:
    88fc:	f3 0f 1e fa          	endbr64 
    8900:	55                   	push   %rbp
    8901:	48 89 e5             	mov    %rsp,%rbp
    8904:	48 89 7d f8          	mov    %rdi,-0x8(%rbp)
    8908:	48 89 75 f0          	mov    %rsi,-0x10(%rbp)
    890c:	48 83 7d f8 00       	cmpq   $0x0,-0x8(%rbp)
    8911:	7e 1d                	jle    8930 <safe_mul_func_int64_t_s_s+0x34>
    8913:	48 83 7d f0 00       	cmpq   $0x0,-0x10(%rbp)
    8918:	7e 16                	jle    8930 <safe_mul_func_int64_t_s_s+0x34>
    891a:	48 b8 ff ff ff ff ff 	movabs $0x7fffffffffffffff,%rax
    8921:	ff ff 7f 
    8924:	48 99                	cqto   
    8926:	48 f7 7d f0          	idivq  -0x10(%rbp)
    892a:	48 39 45 f8          	cmp    %rax,-0x8(%rbp)
    892e:	7f 7e                	jg     89ae <safe_mul_func_int64_t_s_s+0xb2>
    8930:	48 83 7d f8 00       	cmpq   $0x0,-0x8(%rbp)
    8935:	7e 1d                	jle    8954 <safe_mul_func_int64_t_s_s+0x58>
    8937:	48 83 7d f0 00       	cmpq   $0x0,-0x10(%rbp)
    893c:	7f 16                	jg     8954 <safe_mul_func_int64_t_s_s+0x58>
    893e:	48 b8 00 00 00 00 00 	movabs $0x8000000000000000,%rax
    8945:	00 00 80 
    8948:	48 99                	cqto   
    894a:	48 f7 7d f8          	idivq  -0x8(%rbp)
    894e:	48 39 45 f0          	cmp    %rax,-0x10(%rbp)
    8952:	7c 5a                	jl     89ae <safe_mul_func_int64_t_s_s+0xb2>
    8954:	48 83 7d f8 00       	cmpq   $0x0,-0x8(%rbp)
    8959:	7f 1d                	jg     8978 <safe_mul_func_int64_t_s_s+0x7c>
    895b:	48 83 7d f0 00       	cmpq   $0x0,-0x10(%rbp)
    8960:	7e 16                	jle    8978 <safe_mul_func_int64_t_s_s+0x7c>
    8962:	48 b8 00 00 00 00 00 	movabs $0x8000000000000000,%rax
    8969:	00 00 80 
    896c:	48 99                	cqto   
    896e:	48 f7 7d f0          	idivq  -0x10(%rbp)
    8972:	48 39 45 f8          	cmp    %rax,-0x8(%rbp)
    8976:	7c 36                	jl     89ae <safe_mul_func_int64_t_s_s+0xb2>
    8978:	48 83 7d f8 00       	cmpq   $0x0,-0x8(%rbp)
    897d:	7f 24                	jg     89a3 <safe_mul_func_int64_t_s_s+0xa7>
    897f:	48 83 7d f0 00       	cmpq   $0x0,-0x10(%rbp)
    8984:	7f 1d                	jg     89a3 <safe_mul_func_int64_t_s_s+0xa7>
    8986:	48 83 7d f8 00       	cmpq   $0x0,-0x8(%rbp)
    898b:	74 16                	je     89a3 <safe_mul_func_int64_t_s_s+0xa7>
    898d:	48 b8 ff ff ff ff ff 	movabs $0x7fffffffffffffff,%rax
    8994:	ff ff 7f 
    8997:	48 99                	cqto   
    8999:	48 f7 7d f8          	idivq  -0x8(%rbp)
    899d:	48 39 45 f0          	cmp    %rax,-0x10(%rbp)
    89a1:	7c 0b                	jl     89ae <safe_mul_func_int64_t_s_s+0xb2>
    89a3:	48 8b 45 f8          	mov    -0x8(%rbp),%rax
    89a7:	48 0f af 45 f0       	imul   -0x10(%rbp),%rax
    89ac:	eb 04                	jmp    89b2 <safe_mul_func_int64_t_s_s+0xb6>
    89ae:	48 8b 45 f8          	mov    -0x8(%rbp),%rax
    89b2:	5d                   	pop    %rbp
    89b3:	c3                   	retq   

00000000000089b4 <safe_mod_func_int64_t_s_s>:
    89b4:	f3 0f 1e fa          	endbr64 
    89b8:	55                   	push   %rbp
    89b9:	48 89 e5             	mov    %rsp,%rbp
    89bc:	48 89 7d f8          	mov    %rdi,-0x8(%rbp)
    89c0:	48 89 75 f0          	mov    %rsi,-0x10(%rbp)
    89c4:	48 83 7d f0 00       	cmpq   $0x0,-0x10(%rbp)
    89c9:	74 26                	je     89f1 <safe_mod_func_int64_t_s_s+0x3d>
    89cb:	48 b8 00 00 00 00 00 	movabs $0x8000000000000000,%rax
    89d2:	00 00 80 
    89d5:	48 39 45 f8          	cmp    %rax,-0x8(%rbp)
    89d9:	75 07                	jne    89e2 <safe_mod_func_int64_t_s_s+0x2e>
    89db:	48 83 7d f0 ff       	cmpq   $0xffffffffffffffff,-0x10(%rbp)
    89e0:	74 0f                	je     89f1 <safe_mod_func_int64_t_s_s+0x3d>
    89e2:	48 8b 45 f8          	mov    -0x8(%rbp),%rax
    89e6:	48 99                	cqto   
    89e8:	48 f7 7d f0          	idivq  -0x10(%rbp)
    89ec:	48 89 d0             	mov    %rdx,%rax
    89ef:	eb 04                	jmp    89f5 <safe_mod_func_int64_t_s_s+0x41>
    89f1:	48 8b 45 f8          	mov    -0x8(%rbp),%rax
    89f5:	5d                   	pop    %rbp
    89f6:	c3                   	retq   

00000000000089f7 <safe_div_func_int64_t_s_s>:
    89f7:	f3 0f 1e fa          	endbr64 
    89fb:	55                   	push   %rbp
    89fc:	48 89 e5             	mov    %rsp,%rbp
    89ff:	48 89 7d f8          	mov    %rdi,-0x8(%rbp)
    8a03:	48 89 75 f0          	mov    %rsi,-0x10(%rbp)
    8a07:	48 83 7d f0 00       	cmpq   $0x0,-0x10(%rbp)
    8a0c:	74 23                	je     8a31 <safe_div_func_int64_t_s_s+0x3a>
    8a0e:	48 b8 00 00 00 00 00 	movabs $0x8000000000000000,%rax
    8a15:	00 00 80 
    8a18:	48 39 45 f8          	cmp    %rax,-0x8(%rbp)
    8a1c:	75 07                	jne    8a25 <safe_div_func_int64_t_s_s+0x2e>
    8a1e:	48 83 7d f0 ff       	cmpq   $0xffffffffffffffff,-0x10(%rbp)
    8a23:	74 0c                	je     8a31 <safe_div_func_int64_t_s_s+0x3a>
    8a25:	48 8b 45 f8          	mov    -0x8(%rbp),%rax
    8a29:	48 99                	cqto   
    8a2b:	48 f7 7d f0          	idivq  -0x10(%rbp)
    8a2f:	eb 04                	jmp    8a35 <safe_div_func_int64_t_s_s+0x3e>
    8a31:	48 8b 45 f8          	mov    -0x8(%rbp),%rax
    8a35:	5d                   	pop    %rbp
    8a36:	c3                   	retq   

0000000000008a37 <safe_lshift_func_int64_t_s_s>:
    8a37:	f3 0f 1e fa          	endbr64 
    8a3b:	55                   	push   %rbp
    8a3c:	48 89 e5             	mov    %rsp,%rbp
    8a3f:	48 89 7d f8          	mov    %rdi,-0x8(%rbp)
    8a43:	89 75 f4             	mov    %esi,-0xc(%rbp)
    8a46:	48 83 7d f8 00       	cmpq   $0x0,-0x8(%rbp)
    8a4b:	78 38                	js     8a85 <safe_lshift_func_int64_t_s_s+0x4e>
    8a4d:	83 7d f4 00          	cmpl   $0x0,-0xc(%rbp)
    8a51:	78 32                	js     8a85 <safe_lshift_func_int64_t_s_s+0x4e>
    8a53:	83 7d f4 1f          	cmpl   $0x1f,-0xc(%rbp)
    8a57:	7f 2c                	jg     8a85 <safe_lshift_func_int64_t_s_s+0x4e>
    8a59:	8b 45 f4             	mov    -0xc(%rbp),%eax
    8a5c:	48 ba ff ff ff ff ff 	movabs $0x7fffffffffffffff,%rdx
    8a63:	ff ff 7f 
    8a66:	89 c1                	mov    %eax,%ecx
    8a68:	48 d3 fa             	sar    %cl,%rdx
    8a6b:	48 89 d0             	mov    %rdx,%rax
    8a6e:	48 39 45 f8          	cmp    %rax,-0x8(%rbp)
    8a72:	7f 11                	jg     8a85 <safe_lshift_func_int64_t_s_s+0x4e>
    8a74:	8b 45 f4             	mov    -0xc(%rbp),%eax
    8a77:	48 8b 55 f8          	mov    -0x8(%rbp),%rdx
    8a7b:	89 c1                	mov    %eax,%ecx
    8a7d:	48 d3 e2             	shl    %cl,%rdx
    8a80:	48 89 d0             	mov    %rdx,%rax
    8a83:	eb 04                	jmp    8a89 <safe_lshift_func_int64_t_s_s+0x52>
    8a85:	48 8b 45 f8          	mov    -0x8(%rbp),%rax
    8a89:	5d                   	pop    %rbp
    8a8a:	c3                   	retq   

0000000000008a8b <safe_lshift_func_int64_t_s_u>:
    8a8b:	f3 0f 1e fa          	endbr64 
    8a8f:	55                   	push   %rbp
    8a90:	48 89 e5             	mov    %rsp,%rbp
    8a93:	48 89 7d f8          	mov    %rdi,-0x8(%rbp)
    8a97:	89 75 f4             	mov    %esi,-0xc(%rbp)
    8a9a:	48 83 7d f8 00       	cmpq   $0x0,-0x8(%rbp)
    8a9f:	78 32                	js     8ad3 <safe_lshift_func_int64_t_s_u+0x48>
    8aa1:	83 7d f4 1f          	cmpl   $0x1f,-0xc(%rbp)
    8aa5:	77 2c                	ja     8ad3 <safe_lshift_func_int64_t_s_u+0x48>
    8aa7:	8b 45 f4             	mov    -0xc(%rbp),%eax
    8aaa:	48 ba ff ff ff ff ff 	movabs $0x7fffffffffffffff,%rdx
    8ab1:	ff ff 7f 
    8ab4:	89 c1                	mov    %eax,%ecx
    8ab6:	48 d3 fa             	sar    %cl,%rdx
    8ab9:	48 89 d0             	mov    %rdx,%rax
    8abc:	48 39 45 f8          	cmp    %rax,-0x8(%rbp)
    8ac0:	7f 11                	jg     8ad3 <safe_lshift_func_int64_t_s_u+0x48>
    8ac2:	8b 45 f4             	mov    -0xc(%rbp),%eax
    8ac5:	48 8b 55 f8          	mov    -0x8(%rbp),%rdx
    8ac9:	89 c1                	mov    %eax,%ecx
    8acb:	48 d3 e2             	shl    %cl,%rdx
    8ace:	48 89 d0             	mov    %rdx,%rax
    8ad1:	eb 04                	jmp    8ad7 <safe_lshift_func_int64_t_s_u+0x4c>
    8ad3:	48 8b 45 f8          	mov    -0x8(%rbp),%rax
    8ad7:	5d                   	pop    %rbp
    8ad8:	c3                   	retq   

0000000000008ad9 <safe_rshift_func_int64_t_s_s>:
    8ad9:	f3 0f 1e fa          	endbr64 
    8add:	55                   	push   %rbp
    8ade:	48 89 e5             	mov    %rsp,%rbp
    8ae1:	48 89 7d f8          	mov    %rdi,-0x8(%rbp)
    8ae5:	89 75 f4             	mov    %esi,-0xc(%rbp)
    8ae8:	48 83 7d f8 00       	cmpq   $0x0,-0x8(%rbp)
    8aed:	78 1d                	js     8b0c <safe_rshift_func_int64_t_s_s+0x33>
    8aef:	83 7d f4 00          	cmpl   $0x0,-0xc(%rbp)
    8af3:	78 17                	js     8b0c <safe_rshift_func_int64_t_s_s+0x33>
    8af5:	83 7d f4 1f          	cmpl   $0x1f,-0xc(%rbp)
    8af9:	7f 11                	jg     8b0c <safe_rshift_func_int64_t_s_s+0x33>
    8afb:	8b 45 f4             	mov    -0xc(%rbp),%eax
    8afe:	48 8b 55 f8          	mov    -0x8(%rbp),%rdx
    8b02:	89 c1                	mov    %eax,%ecx
    8b04:	48 d3 fa             	sar    %cl,%rdx
    8b07:	48 89 d0             	mov    %rdx,%rax
    8b0a:	eb 04                	jmp    8b10 <safe_rshift_func_int64_t_s_s+0x37>
    8b0c:	48 8b 45 f8          	mov    -0x8(%rbp),%rax
    8b10:	5d                   	pop    %rbp
    8b11:	c3                   	retq   

0000000000008b12 <safe_rshift_func_int64_t_s_u>:
    8b12:	f3 0f 1e fa          	endbr64 
    8b16:	55                   	push   %rbp
    8b17:	48 89 e5             	mov    %rsp,%rbp
    8b1a:	48 89 7d f8          	mov    %rdi,-0x8(%rbp)
    8b1e:	89 75 f4             	mov    %esi,-0xc(%rbp)
    8b21:	48 83 7d f8 00       	cmpq   $0x0,-0x8(%rbp)
    8b26:	78 17                	js     8b3f <safe_rshift_func_int64_t_s_u+0x2d>
    8b28:	83 7d f4 1f          	cmpl   $0x1f,-0xc(%rbp)
    8b2c:	77 11                	ja     8b3f <safe_rshift_func_int64_t_s_u+0x2d>
    8b2e:	8b 45 f4             	mov    -0xc(%rbp),%eax
    8b31:	48 8b 55 f8          	mov    -0x8(%rbp),%rdx
    8b35:	89 c1                	mov    %eax,%ecx
    8b37:	48 d3 fa             	sar    %cl,%rdx
    8b3a:	48 89 d0             	mov    %rdx,%rax
    8b3d:	eb 04                	jmp    8b43 <safe_rshift_func_int64_t_s_u+0x31>
    8b3f:	48 8b 45 f8          	mov    -0x8(%rbp),%rax
    8b43:	5d                   	pop    %rbp
    8b44:	c3                   	retq   

0000000000008b45 <safe_unary_minus_func_uint8_t_u>:
    8b45:	f3 0f 1e fa          	endbr64 
    8b49:	55                   	push   %rbp
    8b4a:	48 89 e5             	mov    %rsp,%rbp
    8b4d:	89 f8                	mov    %edi,%eax
    8b4f:	88 45 fc             	mov    %al,-0x4(%rbp)
    8b52:	0f b6 45 fc          	movzbl -0x4(%rbp),%eax
    8b56:	f7 d8                	neg    %eax
    8b58:	5d                   	pop    %rbp
    8b59:	c3                   	retq   

0000000000008b5a <safe_add_func_uint8_t_u_u>:
    8b5a:	f3 0f 1e fa          	endbr64 
    8b5e:	55                   	push   %rbp
    8b5f:	48 89 e5             	mov    %rsp,%rbp
    8b62:	89 fa                	mov    %edi,%edx
    8b64:	89 f0                	mov    %esi,%eax
    8b66:	88 55 fc             	mov    %dl,-0x4(%rbp)
    8b69:	88 45 f8             	mov    %al,-0x8(%rbp)
    8b6c:	0f b6 55 fc          	movzbl -0x4(%rbp),%edx
    8b70:	0f b6 45 f8          	movzbl -0x8(%rbp),%eax
    8b74:	01 d0                	add    %edx,%eax
    8b76:	5d                   	pop    %rbp
    8b77:	c3                   	retq   

0000000000008b78 <safe_sub_func_uint8_t_u_u>:
    8b78:	f3 0f 1e fa          	endbr64 
    8b7c:	55                   	push   %rbp
    8b7d:	48 89 e5             	mov    %rsp,%rbp
    8b80:	89 fa                	mov    %edi,%edx
    8b82:	89 f0                	mov    %esi,%eax
    8b84:	88 55 fc             	mov    %dl,-0x4(%rbp)
    8b87:	88 45 f8             	mov    %al,-0x8(%rbp)
    8b8a:	0f b6 45 fc          	movzbl -0x4(%rbp),%eax
    8b8e:	2a 45 f8             	sub    -0x8(%rbp),%al
    8b91:	5d                   	pop    %rbp
    8b92:	c3                   	retq   

0000000000008b93 <safe_mul_func_uint8_t_u_u>:
    8b93:	f3 0f 1e fa          	endbr64 
    8b97:	55                   	push   %rbp
    8b98:	48 89 e5             	mov    %rsp,%rbp
    8b9b:	89 fa                	mov    %edi,%edx
    8b9d:	89 f0                	mov    %esi,%eax
    8b9f:	88 55 fc             	mov    %dl,-0x4(%rbp)
    8ba2:	88 45 f8             	mov    %al,-0x8(%rbp)
    8ba5:	0f b6 45 fc          	movzbl -0x4(%rbp),%eax
    8ba9:	f6 65 f8             	mulb   -0x8(%rbp)
    8bac:	5d                   	pop    %rbp
    8bad:	c3                   	retq   

0000000000008bae <safe_mod_func_uint8_t_u_u>:
    8bae:	f3 0f 1e fa          	endbr64 
    8bb2:	55                   	push   %rbp
    8bb3:	48 89 e5             	mov    %rsp,%rbp
    8bb6:	89 fa                	mov    %edi,%edx
    8bb8:	89 f0                	mov    %esi,%eax
    8bba:	88 55 fc             	mov    %dl,-0x4(%rbp)
    8bbd:	88 45 f8             	mov    %al,-0x8(%rbp)
    8bc0:	80 7d f8 00          	cmpb   $0x0,-0x8(%rbp)
    8bc4:	74 0f                	je     8bd5 <safe_mod_func_uint8_t_u_u+0x27>
    8bc6:	0f b6 45 fc          	movzbl -0x4(%rbp),%eax
    8bca:	0f b6 c0             	movzbl %al,%eax
    8bcd:	f6 75 f8             	divb   -0x8(%rbp)
    8bd0:	0f b6 c4             	movzbl %ah,%eax
    8bd3:	eb 04                	jmp    8bd9 <safe_mod_func_uint8_t_u_u+0x2b>
    8bd5:	0f b6 45 fc          	movzbl -0x4(%rbp),%eax
    8bd9:	5d                   	pop    %rbp
    8bda:	c3                   	retq   

0000000000008bdb <safe_div_func_uint8_t_u_u>:
    8bdb:	f3 0f 1e fa          	endbr64 
    8bdf:	55                   	push   %rbp
    8be0:	48 89 e5             	mov    %rsp,%rbp
    8be3:	89 fa                	mov    %edi,%edx
    8be5:	89 f0                	mov    %esi,%eax
    8be7:	88 55 fc             	mov    %dl,-0x4(%rbp)
    8bea:	88 45 f8             	mov    %al,-0x8(%rbp)
    8bed:	80 7d f8 00          	cmpb   $0x0,-0x8(%rbp)
    8bf1:	74 0c                	je     8bff <safe_div_func_uint8_t_u_u+0x24>
    8bf3:	0f b6 45 fc          	movzbl -0x4(%rbp),%eax
    8bf7:	0f b6 c0             	movzbl %al,%eax
    8bfa:	f6 75 f8             	divb   -0x8(%rbp)
    8bfd:	eb 04                	jmp    8c03 <safe_div_func_uint8_t_u_u+0x28>
    8bff:	0f b6 45 fc          	movzbl -0x4(%rbp),%eax
    8c03:	5d                   	pop    %rbp
    8c04:	c3                   	retq   

0000000000008c05 <safe_lshift_func_uint8_t_u_s>:
    8c05:	f3 0f 1e fa          	endbr64 
    8c09:	55                   	push   %rbp
    8c0a:	48 89 e5             	mov    %rsp,%rbp
    8c0d:	89 f8                	mov    %edi,%eax
    8c0f:	89 75 f8             	mov    %esi,-0x8(%rbp)
    8c12:	88 45 fc             	mov    %al,-0x4(%rbp)
    8c15:	83 7d f8 00          	cmpl   $0x0,-0x8(%rbp)
    8c19:	78 2b                	js     8c46 <safe_lshift_func_uint8_t_u_s+0x41>
    8c1b:	83 7d f8 1f          	cmpl   $0x1f,-0x8(%rbp)
    8c1f:	7f 25                	jg     8c46 <safe_lshift_func_uint8_t_u_s+0x41>
    8c21:	0f b6 55 fc          	movzbl -0x4(%rbp),%edx
    8c25:	8b 45 f8             	mov    -0x8(%rbp),%eax
    8c28:	be ff 00 00 00       	mov    $0xff,%esi
    8c2d:	89 c1                	mov    %eax,%ecx
    8c2f:	d3 fe                	sar    %cl,%esi
    8c31:	89 f0                	mov    %esi,%eax
    8c33:	39 c2                	cmp    %eax,%edx
    8c35:	7f 0f                	jg     8c46 <safe_lshift_func_uint8_t_u_s+0x41>
    8c37:	0f b6 55 fc          	movzbl -0x4(%rbp),%edx
    8c3b:	8b 45 f8             	mov    -0x8(%rbp),%eax
    8c3e:	89 c1                	mov    %eax,%ecx
    8c40:	d3 e2                	shl    %cl,%edx
    8c42:	89 d0                	mov    %edx,%eax
    8c44:	eb 04                	jmp    8c4a <safe_lshift_func_uint8_t_u_s+0x45>
    8c46:	0f b6 45 fc          	movzbl -0x4(%rbp),%eax
    8c4a:	5d                   	pop    %rbp
    8c4b:	c3                   	retq   

0000000000008c4c <safe_lshift_func_uint8_t_u_u>:
    8c4c:	f3 0f 1e fa          	endbr64 
    8c50:	55                   	push   %rbp
    8c51:	48 89 e5             	mov    %rsp,%rbp
    8c54:	89 f8                	mov    %edi,%eax
    8c56:	89 75 f8             	mov    %esi,-0x8(%rbp)
    8c59:	88 45 fc             	mov    %al,-0x4(%rbp)
    8c5c:	83 7d f8 1f          	cmpl   $0x1f,-0x8(%rbp)
    8c60:	77 25                	ja     8c87 <safe_lshift_func_uint8_t_u_u+0x3b>
    8c62:	0f b6 55 fc          	movzbl -0x4(%rbp),%edx
    8c66:	8b 45 f8             	mov    -0x8(%rbp),%eax
    8c69:	be ff 00 00 00       	mov    $0xff,%esi
    8c6e:	89 c1                	mov    %eax,%ecx
    8c70:	d3 fe                	sar    %cl,%esi
    8c72:	89 f0                	mov    %esi,%eax
    8c74:	39 c2                	cmp    %eax,%edx
    8c76:	7f 0f                	jg     8c87 <safe_lshift_func_uint8_t_u_u+0x3b>
    8c78:	0f b6 55 fc          	movzbl -0x4(%rbp),%edx
    8c7c:	8b 45 f8             	mov    -0x8(%rbp),%eax
    8c7f:	89 c1                	mov    %eax,%ecx
    8c81:	d3 e2                	shl    %cl,%edx
    8c83:	89 d0                	mov    %edx,%eax
    8c85:	eb 04                	jmp    8c8b <safe_lshift_func_uint8_t_u_u+0x3f>
    8c87:	0f b6 45 fc          	movzbl -0x4(%rbp),%eax
    8c8b:	5d                   	pop    %rbp
    8c8c:	c3                   	retq   

0000000000008c8d <safe_rshift_func_uint8_t_u_s>:
    8c8d:	f3 0f 1e fa          	endbr64 
    8c91:	55                   	push   %rbp
    8c92:	48 89 e5             	mov    %rsp,%rbp
    8c95:	89 f8                	mov    %edi,%eax
    8c97:	89 75 f8             	mov    %esi,-0x8(%rbp)
    8c9a:	88 45 fc             	mov    %al,-0x4(%rbp)
    8c9d:	83 7d f8 00          	cmpl   $0x0,-0x8(%rbp)
    8ca1:	78 15                	js     8cb8 <safe_rshift_func_uint8_t_u_s+0x2b>
    8ca3:	83 7d f8 1f          	cmpl   $0x1f,-0x8(%rbp)
    8ca7:	7f 0f                	jg     8cb8 <safe_rshift_func_uint8_t_u_s+0x2b>
    8ca9:	0f b6 55 fc          	movzbl -0x4(%rbp),%edx
    8cad:	8b 45 f8             	mov    -0x8(%rbp),%eax
    8cb0:	89 c1                	mov    %eax,%ecx
    8cb2:	d3 fa                	sar    %cl,%edx
    8cb4:	89 d0                	mov    %edx,%eax
    8cb6:	eb 04                	jmp    8cbc <safe_rshift_func_uint8_t_u_s+0x2f>
    8cb8:	0f b6 45 fc          	movzbl -0x4(%rbp),%eax
    8cbc:	5d                   	pop    %rbp
    8cbd:	c3                   	retq   

0000000000008cbe <safe_rshift_func_uint8_t_u_u>:
    8cbe:	f3 0f 1e fa          	endbr64 
    8cc2:	55                   	push   %rbp
    8cc3:	48 89 e5             	mov    %rsp,%rbp
    8cc6:	89 f8                	mov    %edi,%eax
    8cc8:	89 75 f8             	mov    %esi,-0x8(%rbp)
    8ccb:	88 45 fc             	mov    %al,-0x4(%rbp)
    8cce:	83 7d f8 1f          	cmpl   $0x1f,-0x8(%rbp)
    8cd2:	77 0f                	ja     8ce3 <safe_rshift_func_uint8_t_u_u+0x25>
    8cd4:	0f b6 55 fc          	movzbl -0x4(%rbp),%edx
    8cd8:	8b 45 f8             	mov    -0x8(%rbp),%eax
    8cdb:	89 c1                	mov    %eax,%ecx
    8cdd:	d3 fa                	sar    %cl,%edx
    8cdf:	89 d0                	mov    %edx,%eax
    8ce1:	eb 04                	jmp    8ce7 <safe_rshift_func_uint8_t_u_u+0x29>
    8ce3:	0f b6 45 fc          	movzbl -0x4(%rbp),%eax
    8ce7:	5d                   	pop    %rbp
    8ce8:	c3                   	retq   

0000000000008ce9 <safe_unary_minus_func_uint16_t_u>:
    8ce9:	f3 0f 1e fa          	endbr64 
    8ced:	55                   	push   %rbp
    8cee:	48 89 e5             	mov    %rsp,%rbp
    8cf1:	89 f8                	mov    %edi,%eax
    8cf3:	66 89 45 fc          	mov    %ax,-0x4(%rbp)
    8cf7:	0f b7 45 fc          	movzwl -0x4(%rbp),%eax
    8cfb:	f7 d8                	neg    %eax
    8cfd:	5d                   	pop    %rbp
    8cfe:	c3                   	retq   

0000000000008cff <safe_add_func_uint16_t_u_u>:
    8cff:	f3 0f 1e fa          	endbr64 
    8d03:	55                   	push   %rbp
    8d04:	48 89 e5             	mov    %rsp,%rbp
    8d07:	89 fa                	mov    %edi,%edx
    8d09:	89 f0                	mov    %esi,%eax
    8d0b:	66 89 55 fc          	mov    %dx,-0x4(%rbp)
    8d0f:	66 89 45 f8          	mov    %ax,-0x8(%rbp)
    8d13:	0f b7 55 fc          	movzwl -0x4(%rbp),%edx
    8d17:	0f b7 45 f8          	movzwl -0x8(%rbp),%eax
    8d1b:	01 d0                	add    %edx,%eax
    8d1d:	5d                   	pop    %rbp
    8d1e:	c3                   	retq   

0000000000008d1f <safe_sub_func_uint16_t_u_u>:
    8d1f:	f3 0f 1e fa          	endbr64 
    8d23:	55                   	push   %rbp
    8d24:	48 89 e5             	mov    %rsp,%rbp
    8d27:	89 fa                	mov    %edi,%edx
    8d29:	89 f0                	mov    %esi,%eax
    8d2b:	66 89 55 fc          	mov    %dx,-0x4(%rbp)
    8d2f:	66 89 45 f8          	mov    %ax,-0x8(%rbp)
    8d33:	0f b7 45 fc          	movzwl -0x4(%rbp),%eax
    8d37:	66 2b 45 f8          	sub    -0x8(%rbp),%ax
    8d3b:	5d                   	pop    %rbp
    8d3c:	c3                   	retq   

0000000000008d3d <safe_mul_func_uint16_t_u_u>:
    8d3d:	f3 0f 1e fa          	endbr64 
    8d41:	55                   	push   %rbp
    8d42:	48 89 e5             	mov    %rsp,%rbp
    8d45:	89 fa                	mov    %edi,%edx
    8d47:	89 f0                	mov    %esi,%eax
    8d49:	66 89 55 fc          	mov    %dx,-0x4(%rbp)
    8d4d:	66 89 45 f8          	mov    %ax,-0x8(%rbp)
    8d51:	0f b7 45 fc          	movzwl -0x4(%rbp),%eax
    8d55:	66 0f af 45 f8       	imul   -0x8(%rbp),%ax
    8d5a:	5d                   	pop    %rbp
    8d5b:	c3                   	retq   

0000000000008d5c <safe_mod_func_uint16_t_u_u>:
    8d5c:	f3 0f 1e fa          	endbr64 
    8d60:	55                   	push   %rbp
    8d61:	48 89 e5             	mov    %rsp,%rbp
    8d64:	89 fa                	mov    %edi,%edx
    8d66:	89 f0                	mov    %esi,%eax
    8d68:	66 89 55 fc          	mov    %dx,-0x4(%rbp)
    8d6c:	66 89 45 f8          	mov    %ax,-0x8(%rbp)
    8d70:	66 83 7d f8 00       	cmpw   $0x0,-0x8(%rbp)
    8d75:	74 11                	je     8d88 <safe_mod_func_uint16_t_u_u+0x2c>
    8d77:	0f b7 45 fc          	movzwl -0x4(%rbp),%eax
    8d7b:	ba 00 00 00 00       	mov    $0x0,%edx
    8d80:	66 f7 75 f8          	divw   -0x8(%rbp)
    8d84:	89 d0                	mov    %edx,%eax
    8d86:	eb 04                	jmp    8d8c <safe_mod_func_uint16_t_u_u+0x30>
    8d88:	0f b7 45 fc          	movzwl -0x4(%rbp),%eax
    8d8c:	5d                   	pop    %rbp
    8d8d:	c3                   	retq   

0000000000008d8e <safe_div_func_uint16_t_u_u>:
    8d8e:	f3 0f 1e fa          	endbr64 
    8d92:	55                   	push   %rbp
    8d93:	48 89 e5             	mov    %rsp,%rbp
    8d96:	89 fa                	mov    %edi,%edx
    8d98:	89 f0                	mov    %esi,%eax
    8d9a:	66 89 55 fc          	mov    %dx,-0x4(%rbp)
    8d9e:	66 89 45 f8          	mov    %ax,-0x8(%rbp)
    8da2:	66 83 7d f8 00       	cmpw   $0x0,-0x8(%rbp)
    8da7:	74 0f                	je     8db8 <safe_div_func_uint16_t_u_u+0x2a>
    8da9:	0f b7 45 fc          	movzwl -0x4(%rbp),%eax
    8dad:	ba 00 00 00 00       	mov    $0x0,%edx
    8db2:	66 f7 75 f8          	divw   -0x8(%rbp)
    8db6:	eb 04                	jmp    8dbc <safe_div_func_uint16_t_u_u+0x2e>
    8db8:	0f b7 45 fc          	movzwl -0x4(%rbp),%eax
    8dbc:	5d                   	pop    %rbp
    8dbd:	c3                   	retq   

0000000000008dbe <safe_lshift_func_uint16_t_u_s>:
    8dbe:	f3 0f 1e fa          	endbr64 
    8dc2:	55                   	push   %rbp
    8dc3:	48 89 e5             	mov    %rsp,%rbp
    8dc6:	89 f8                	mov    %edi,%eax
    8dc8:	89 75 f8             	mov    %esi,-0x8(%rbp)
    8dcb:	66 89 45 fc          	mov    %ax,-0x4(%rbp)
    8dcf:	83 7d f8 00          	cmpl   $0x0,-0x8(%rbp)
    8dd3:	78 2b                	js     8e00 <safe_lshift_func_uint16_t_u_s+0x42>
    8dd5:	83 7d f8 1f          	cmpl   $0x1f,-0x8(%rbp)
    8dd9:	7f 25                	jg     8e00 <safe_lshift_func_uint16_t_u_s+0x42>
    8ddb:	0f b7 55 fc          	movzwl -0x4(%rbp),%edx
    8ddf:	8b 45 f8             	mov    -0x8(%rbp),%eax
    8de2:	be ff ff 00 00       	mov    $0xffff,%esi
    8de7:	89 c1                	mov    %eax,%ecx
    8de9:	d3 fe                	sar    %cl,%esi
    8deb:	89 f0                	mov    %esi,%eax
    8ded:	39 c2                	cmp    %eax,%edx
    8def:	7f 0f                	jg     8e00 <safe_lshift_func_uint16_t_u_s+0x42>
    8df1:	0f b7 55 fc          	movzwl -0x4(%rbp),%edx
    8df5:	8b 45 f8             	mov    -0x8(%rbp),%eax
    8df8:	89 c1                	mov    %eax,%ecx
    8dfa:	d3 e2                	shl    %cl,%edx
    8dfc:	89 d0                	mov    %edx,%eax
    8dfe:	eb 04                	jmp    8e04 <safe_lshift_func_uint16_t_u_s+0x46>
    8e00:	0f b7 45 fc          	movzwl -0x4(%rbp),%eax
    8e04:	5d                   	pop    %rbp
    8e05:	c3                   	retq   

0000000000008e06 <safe_lshift_func_uint16_t_u_u>:
    8e06:	f3 0f 1e fa          	endbr64 
    8e0a:	55                   	push   %rbp
    8e0b:	48 89 e5             	mov    %rsp,%rbp
    8e0e:	89 f8                	mov    %edi,%eax
    8e10:	89 75 f8             	mov    %esi,-0x8(%rbp)
    8e13:	66 89 45 fc          	mov    %ax,-0x4(%rbp)
    8e17:	83 7d f8 1f          	cmpl   $0x1f,-0x8(%rbp)
    8e1b:	77 25                	ja     8e42 <safe_lshift_func_uint16_t_u_u+0x3c>
    8e1d:	0f b7 55 fc          	movzwl -0x4(%rbp),%edx
    8e21:	8b 45 f8             	mov    -0x8(%rbp),%eax
    8e24:	be ff ff 00 00       	mov    $0xffff,%esi
    8e29:	89 c1                	mov    %eax,%ecx
    8e2b:	d3 fe                	sar    %cl,%esi
    8e2d:	89 f0                	mov    %esi,%eax
    8e2f:	39 c2                	cmp    %eax,%edx
    8e31:	7f 0f                	jg     8e42 <safe_lshift_func_uint16_t_u_u+0x3c>
    8e33:	0f b7 55 fc          	movzwl -0x4(%rbp),%edx
    8e37:	8b 45 f8             	mov    -0x8(%rbp),%eax
    8e3a:	89 c1                	mov    %eax,%ecx
    8e3c:	d3 e2                	shl    %cl,%edx
    8e3e:	89 d0                	mov    %edx,%eax
    8e40:	eb 04                	jmp    8e46 <safe_lshift_func_uint16_t_u_u+0x40>
    8e42:	0f b7 45 fc          	movzwl -0x4(%rbp),%eax
    8e46:	5d                   	pop    %rbp
    8e47:	c3                   	retq   

0000000000008e48 <safe_rshift_func_uint16_t_u_s>:
    8e48:	f3 0f 1e fa          	endbr64 
    8e4c:	55                   	push   %rbp
    8e4d:	48 89 e5             	mov    %rsp,%rbp
    8e50:	89 f8                	mov    %edi,%eax
    8e52:	89 75 f8             	mov    %esi,-0x8(%rbp)
    8e55:	66 89 45 fc          	mov    %ax,-0x4(%rbp)
    8e59:	83 7d f8 00          	cmpl   $0x0,-0x8(%rbp)
    8e5d:	78 15                	js     8e74 <safe_rshift_func_uint16_t_u_s+0x2c>
    8e5f:	83 7d f8 1f          	cmpl   $0x1f,-0x8(%rbp)
    8e63:	7f 0f                	jg     8e74 <safe_rshift_func_uint16_t_u_s+0x2c>
    8e65:	0f b7 55 fc          	movzwl -0x4(%rbp),%edx
    8e69:	8b 45 f8             	mov    -0x8(%rbp),%eax
    8e6c:	89 c1                	mov    %eax,%ecx
    8e6e:	d3 fa                	sar    %cl,%edx
    8e70:	89 d0                	mov    %edx,%eax
    8e72:	eb 04                	jmp    8e78 <safe_rshift_func_uint16_t_u_s+0x30>
    8e74:	0f b7 45 fc          	movzwl -0x4(%rbp),%eax
    8e78:	5d                   	pop    %rbp
    8e79:	c3                   	retq   

0000000000008e7a <safe_rshift_func_uint16_t_u_u>:
    8e7a:	f3 0f 1e fa          	endbr64 
    8e7e:	55                   	push   %rbp
    8e7f:	48 89 e5             	mov    %rsp,%rbp
    8e82:	89 f8                	mov    %edi,%eax
    8e84:	89 75 f8             	mov    %esi,-0x8(%rbp)
    8e87:	66 89 45 fc          	mov    %ax,-0x4(%rbp)
    8e8b:	83 7d f8 1f          	cmpl   $0x1f,-0x8(%rbp)
    8e8f:	77 0f                	ja     8ea0 <safe_rshift_func_uint16_t_u_u+0x26>
    8e91:	0f b7 55 fc          	movzwl -0x4(%rbp),%edx
    8e95:	8b 45 f8             	mov    -0x8(%rbp),%eax
    8e98:	89 c1                	mov    %eax,%ecx
    8e9a:	d3 fa                	sar    %cl,%edx
    8e9c:	89 d0                	mov    %edx,%eax
    8e9e:	eb 04                	jmp    8ea4 <safe_rshift_func_uint16_t_u_u+0x2a>
    8ea0:	0f b7 45 fc          	movzwl -0x4(%rbp),%eax
    8ea4:	5d                   	pop    %rbp
    8ea5:	c3                   	retq   

0000000000008ea6 <safe_unary_minus_func_uint32_t_u>:
    8ea6:	f3 0f 1e fa          	endbr64 
    8eaa:	55                   	push   %rbp
    8eab:	48 89 e5             	mov    %rsp,%rbp
    8eae:	89 7d fc             	mov    %edi,-0x4(%rbp)
    8eb1:	8b 45 fc             	mov    -0x4(%rbp),%eax
    8eb4:	f7 d8                	neg    %eax
    8eb6:	5d                   	pop    %rbp
    8eb7:	c3                   	retq   

0000000000008eb8 <safe_add_func_uint32_t_u_u>:
    8eb8:	f3 0f 1e fa          	endbr64 
    8ebc:	55                   	push   %rbp
    8ebd:	48 89 e5             	mov    %rsp,%rbp
    8ec0:	89 7d fc             	mov    %edi,-0x4(%rbp)
    8ec3:	89 75 f8             	mov    %esi,-0x8(%rbp)
    8ec6:	8b 55 fc             	mov    -0x4(%rbp),%edx
    8ec9:	8b 45 f8             	mov    -0x8(%rbp),%eax
    8ecc:	01 d0                	add    %edx,%eax
    8ece:	5d                   	pop    %rbp
    8ecf:	c3                   	retq   

0000000000008ed0 <safe_sub_func_uint32_t_u_u>:
    8ed0:	f3 0f 1e fa          	endbr64 
    8ed4:	55                   	push   %rbp
    8ed5:	48 89 e5             	mov    %rsp,%rbp
    8ed8:	89 7d fc             	mov    %edi,-0x4(%rbp)
    8edb:	89 75 f8             	mov    %esi,-0x8(%rbp)
    8ede:	8b 45 fc             	mov    -0x4(%rbp),%eax
    8ee1:	2b 45 f8             	sub    -0x8(%rbp),%eax
    8ee4:	5d                   	pop    %rbp
    8ee5:	c3                   	retq   

0000000000008ee6 <safe_mul_func_uint32_t_u_u>:
    8ee6:	f3 0f 1e fa          	endbr64 
    8eea:	55                   	push   %rbp
    8eeb:	48 89 e5             	mov    %rsp,%rbp
    8eee:	89 7d fc             	mov    %edi,-0x4(%rbp)
    8ef1:	89 75 f8             	mov    %esi,-0x8(%rbp)
    8ef4:	8b 45 fc             	mov    -0x4(%rbp),%eax
    8ef7:	0f af 45 f8          	imul   -0x8(%rbp),%eax
    8efb:	5d                   	pop    %rbp
    8efc:	c3                   	retq   

0000000000008efd <safe_mod_func_uint32_t_u_u>:
    8efd:	f3 0f 1e fa          	endbr64 
    8f01:	55                   	push   %rbp
    8f02:	48 89 e5             	mov    %rsp,%rbp
    8f05:	89 7d fc             	mov    %edi,-0x4(%rbp)
    8f08:	89 75 f8             	mov    %esi,-0x8(%rbp)
    8f0b:	83 7d f8 00          	cmpl   $0x0,-0x8(%rbp)
    8f0f:	74 0f                	je     8f20 <safe_mod_func_uint32_t_u_u+0x23>
    8f11:	8b 45 fc             	mov    -0x4(%rbp),%eax
    8f14:	ba 00 00 00 00       	mov    $0x0,%edx
    8f19:	f7 75 f8             	divl   -0x8(%rbp)
    8f1c:	89 d0                	mov    %edx,%eax
    8f1e:	eb 03                	jmp    8f23 <safe_mod_func_uint32_t_u_u+0x26>
    8f20:	8b 45 fc             	mov    -0x4(%rbp),%eax
    8f23:	5d                   	pop    %rbp
    8f24:	c3                   	retq   

0000000000008f25 <safe_div_func_uint32_t_u_u>:
    8f25:	f3 0f 1e fa          	endbr64 
    8f29:	55                   	push   %rbp
    8f2a:	48 89 e5             	mov    %rsp,%rbp
    8f2d:	89 7d fc             	mov    %edi,-0x4(%rbp)
    8f30:	89 75 f8             	mov    %esi,-0x8(%rbp)
    8f33:	83 7d f8 00          	cmpl   $0x0,-0x8(%rbp)
    8f37:	74 0d                	je     8f46 <safe_div_func_uint32_t_u_u+0x21>
    8f39:	8b 45 fc             	mov    -0x4(%rbp),%eax
    8f3c:	ba 00 00 00 00       	mov    $0x0,%edx
    8f41:	f7 75 f8             	divl   -0x8(%rbp)
    8f44:	eb 03                	jmp    8f49 <safe_div_func_uint32_t_u_u+0x24>
    8f46:	8b 45 fc             	mov    -0x4(%rbp),%eax
    8f49:	5d                   	pop    %rbp
    8f4a:	c3                   	retq   

0000000000008f4b <safe_lshift_func_uint32_t_u_s>:
    8f4b:	f3 0f 1e fa          	endbr64 
    8f4f:	55                   	push   %rbp
    8f50:	48 89 e5             	mov    %rsp,%rbp
    8f53:	89 7d fc             	mov    %edi,-0x4(%rbp)
    8f56:	89 75 f8             	mov    %esi,-0x8(%rbp)
    8f59:	83 7d f8 00          	cmpl   $0x0,-0x8(%rbp)
    8f5d:	78 27                	js     8f86 <safe_lshift_func_uint32_t_u_s+0x3b>
    8f5f:	83 7d f8 1f          	cmpl   $0x1f,-0x8(%rbp)
    8f63:	7f 21                	jg     8f86 <safe_lshift_func_uint32_t_u_s+0x3b>
    8f65:	8b 45 f8             	mov    -0x8(%rbp),%eax
    8f68:	ba ff ff ff ff       	mov    $0xffffffff,%edx
    8f6d:	89 c1                	mov    %eax,%ecx
    8f6f:	d3 ea                	shr    %cl,%edx
    8f71:	89 d0                	mov    %edx,%eax
    8f73:	39 45 fc             	cmp    %eax,-0x4(%rbp)
    8f76:	77 0e                	ja     8f86 <safe_lshift_func_uint32_t_u_s+0x3b>
    8f78:	8b 45 f8             	mov    -0x8(%rbp),%eax
    8f7b:	8b 55 fc             	mov    -0x4(%rbp),%edx
    8f7e:	89 c1                	mov    %eax,%ecx
    8f80:	d3 e2                	shl    %cl,%edx
    8f82:	89 d0                	mov    %edx,%eax
    8f84:	eb 03                	jmp    8f89 <safe_lshift_func_uint32_t_u_s+0x3e>
    8f86:	8b 45 fc             	mov    -0x4(%rbp),%eax
    8f89:	5d                   	pop    %rbp
    8f8a:	c3                   	retq   

0000000000008f8b <safe_lshift_func_uint32_t_u_u>:
    8f8b:	f3 0f 1e fa          	endbr64 
    8f8f:	55                   	push   %rbp
    8f90:	48 89 e5             	mov    %rsp,%rbp
    8f93:	89 7d fc             	mov    %edi,-0x4(%rbp)
    8f96:	89 75 f8             	mov    %esi,-0x8(%rbp)
    8f99:	83 7d f8 1f          	cmpl   $0x1f,-0x8(%rbp)
    8f9d:	77 21                	ja     8fc0 <safe_lshift_func_uint32_t_u_u+0x35>
    8f9f:	8b 45 f8             	mov    -0x8(%rbp),%eax
    8fa2:	ba ff ff ff ff       	mov    $0xffffffff,%edx
    8fa7:	89 c1                	mov    %eax,%ecx
    8fa9:	d3 ea                	shr    %cl,%edx
    8fab:	89 d0                	mov    %edx,%eax
    8fad:	39 45 fc             	cmp    %eax,-0x4(%rbp)
    8fb0:	77 0e                	ja     8fc0 <safe_lshift_func_uint32_t_u_u+0x35>
    8fb2:	8b 45 f8             	mov    -0x8(%rbp),%eax
    8fb5:	8b 55 fc             	mov    -0x4(%rbp),%edx
    8fb8:	89 c1                	mov    %eax,%ecx
    8fba:	d3 e2                	shl    %cl,%edx
    8fbc:	89 d0                	mov    %edx,%eax
    8fbe:	eb 03                	jmp    8fc3 <safe_lshift_func_uint32_t_u_u+0x38>
    8fc0:	8b 45 fc             	mov    -0x4(%rbp),%eax
    8fc3:	5d                   	pop    %rbp
    8fc4:	c3                   	retq   

0000000000008fc5 <safe_rshift_func_uint32_t_u_s>:
    8fc5:	f3 0f 1e fa          	endbr64 
    8fc9:	55                   	push   %rbp
    8fca:	48 89 e5             	mov    %rsp,%rbp
    8fcd:	89 7d fc             	mov    %edi,-0x4(%rbp)
    8fd0:	89 75 f8             	mov    %esi,-0x8(%rbp)
    8fd3:	83 7d f8 00          	cmpl   $0x0,-0x8(%rbp)
    8fd7:	78 14                	js     8fed <safe_rshift_func_uint32_t_u_s+0x28>
    8fd9:	83 7d f8 1f          	cmpl   $0x1f,-0x8(%rbp)
    8fdd:	7f 0e                	jg     8fed <safe_rshift_func_uint32_t_u_s+0x28>
    8fdf:	8b 45 f8             	mov    -0x8(%rbp),%eax
    8fe2:	8b 55 fc             	mov    -0x4(%rbp),%edx
    8fe5:	89 c1                	mov    %eax,%ecx
    8fe7:	d3 ea                	shr    %cl,%edx
    8fe9:	89 d0                	mov    %edx,%eax
    8feb:	eb 03                	jmp    8ff0 <safe_rshift_func_uint32_t_u_s+0x2b>
    8fed:	8b 45 fc             	mov    -0x4(%rbp),%eax
    8ff0:	5d                   	pop    %rbp
    8ff1:	c3                   	retq   

0000000000008ff2 <safe_rshift_func_uint32_t_u_u>:
    8ff2:	f3 0f 1e fa          	endbr64 
    8ff6:	55                   	push   %rbp
    8ff7:	48 89 e5             	mov    %rsp,%rbp
    8ffa:	89 7d fc             	mov    %edi,-0x4(%rbp)
    8ffd:	89 75 f8             	mov    %esi,-0x8(%rbp)
    9000:	83 7d f8 1f          	cmpl   $0x1f,-0x8(%rbp)
    9004:	77 0e                	ja     9014 <safe_rshift_func_uint32_t_u_u+0x22>
    9006:	8b 45 f8             	mov    -0x8(%rbp),%eax
    9009:	8b 55 fc             	mov    -0x4(%rbp),%edx
    900c:	89 c1                	mov    %eax,%ecx
    900e:	d3 ea                	shr    %cl,%edx
    9010:	89 d0                	mov    %edx,%eax
    9012:	eb 03                	jmp    9017 <safe_rshift_func_uint32_t_u_u+0x25>
    9014:	8b 45 fc             	mov    -0x4(%rbp),%eax
    9017:	5d                   	pop    %rbp
    9018:	c3                   	retq   

0000000000009019 <safe_unary_minus_func_uint64_t_u>:
    9019:	f3 0f 1e fa          	endbr64 
    901d:	55                   	push   %rbp
    901e:	48 89 e5             	mov    %rsp,%rbp
    9021:	48 89 7d f8          	mov    %rdi,-0x8(%rbp)
    9025:	48 8b 45 f8          	mov    -0x8(%rbp),%rax
    9029:	48 f7 d8             	neg    %rax
    902c:	5d                   	pop    %rbp
    902d:	c3                   	retq   

000000000000902e <safe_add_func_uint64_t_u_u>:
    902e:	f3 0f 1e fa          	endbr64 
    9032:	55                   	push   %rbp
    9033:	48 89 e5             	mov    %rsp,%rbp
    9036:	48 89 7d f8          	mov    %rdi,-0x8(%rbp)
    903a:	48 89 75 f0          	mov    %rsi,-0x10(%rbp)
    903e:	48 8b 55 f8          	mov    -0x8(%rbp),%rdx
    9042:	48 8b 45 f0          	mov    -0x10(%rbp),%rax
    9046:	48 01 d0             	add    %rdx,%rax
    9049:	5d                   	pop    %rbp
    904a:	c3                   	retq   

000000000000904b <safe_sub_func_uint64_t_u_u>:
    904b:	f3 0f 1e fa          	endbr64 
    904f:	55                   	push   %rbp
    9050:	48 89 e5             	mov    %rsp,%rbp
    9053:	48 89 7d f8          	mov    %rdi,-0x8(%rbp)
    9057:	48 89 75 f0          	mov    %rsi,-0x10(%rbp)
    905b:	48 8b 45 f8          	mov    -0x8(%rbp),%rax
    905f:	48 2b 45 f0          	sub    -0x10(%rbp),%rax
    9063:	5d                   	pop    %rbp
    9064:	c3                   	retq   

0000000000009065 <safe_mul_func_uint64_t_u_u>:
    9065:	f3 0f 1e fa          	endbr64 
    9069:	55                   	push   %rbp
    906a:	48 89 e5             	mov    %rsp,%rbp
    906d:	48 89 7d f8          	mov    %rdi,-0x8(%rbp)
    9071:	48 89 75 f0          	mov    %rsi,-0x10(%rbp)
    9075:	48 8b 45 f8          	mov    -0x8(%rbp),%rax
    9079:	48 0f af 45 f0       	imul   -0x10(%rbp),%rax
    907e:	5d                   	pop    %rbp
    907f:	c3                   	retq   

0000000000009080 <safe_mod_func_uint64_t_u_u>:
    9080:	f3 0f 1e fa          	endbr64 
    9084:	55                   	push   %rbp
    9085:	48 89 e5             	mov    %rsp,%rbp
    9088:	48 89 7d f8          	mov    %rdi,-0x8(%rbp)
    908c:	48 89 75 f0          	mov    %rsi,-0x10(%rbp)
    9090:	48 83 7d f0 00       	cmpq   $0x0,-0x10(%rbp)
    9095:	74 12                	je     90a9 <safe_mod_func_uint64_t_u_u+0x29>
    9097:	48 8b 45 f8          	mov    -0x8(%rbp),%rax
    909b:	ba 00 00 00 00       	mov    $0x0,%edx
    90a0:	48 f7 75 f0          	divq   -0x10(%rbp)
    90a4:	48 89 d0             	mov    %rdx,%rax
    90a7:	eb 04                	jmp    90ad <safe_mod_func_uint64_t_u_u+0x2d>
    90a9:	48 8b 45 f8          	mov    -0x8(%rbp),%rax
    90ad:	5d                   	pop    %rbp
    90ae:	c3                   	retq   

00000000000090af <safe_div_func_uint64_t_u_u>:
    90af:	f3 0f 1e fa          	endbr64 
    90b3:	55                   	push   %rbp
    90b4:	48 89 e5             	mov    %rsp,%rbp
    90b7:	48 89 7d f8          	mov    %rdi,-0x8(%rbp)
    90bb:	48 89 75 f0          	mov    %rsi,-0x10(%rbp)
    90bf:	48 83 7d f0 00       	cmpq   $0x0,-0x10(%rbp)
    90c4:	74 0f                	je     90d5 <safe_div_func_uint64_t_u_u+0x26>
    90c6:	48 8b 45 f8          	mov    -0x8(%rbp),%rax
    90ca:	ba 00 00 00 00       	mov    $0x0,%edx
    90cf:	48 f7 75 f0          	divq   -0x10(%rbp)
    90d3:	eb 04                	jmp    90d9 <safe_div_func_uint64_t_u_u+0x2a>
    90d5:	48 8b 45 f8          	mov    -0x8(%rbp),%rax
    90d9:	5d                   	pop    %rbp
    90da:	c3                   	retq   

00000000000090db <safe_lshift_func_uint64_t_u_s>:
    90db:	f3 0f 1e fa          	endbr64 
    90df:	55                   	push   %rbp
    90e0:	48 89 e5             	mov    %rsp,%rbp
    90e3:	48 89 7d f8          	mov    %rdi,-0x8(%rbp)
    90e7:	89 75 f4             	mov    %esi,-0xc(%rbp)
    90ea:	83 7d f4 00          	cmpl   $0x0,-0xc(%rbp)
    90ee:	78 2f                	js     911f <safe_lshift_func_uint64_t_u_s+0x44>
    90f0:	83 7d f4 1f          	cmpl   $0x1f,-0xc(%rbp)
    90f4:	7f 29                	jg     911f <safe_lshift_func_uint64_t_u_s+0x44>
    90f6:	8b 45 f4             	mov    -0xc(%rbp),%eax
    90f9:	48 c7 c2 ff ff ff ff 	mov    $0xffffffffffffffff,%rdx
    9100:	89 c1                	mov    %eax,%ecx
    9102:	48 d3 ea             	shr    %cl,%rdx
    9105:	48 89 d0             	mov    %rdx,%rax
    9108:	48 39 45 f8          	cmp    %rax,-0x8(%rbp)
    910c:	77 11                	ja     911f <safe_lshift_func_uint64_t_u_s+0x44>
    910e:	8b 45 f4             	mov    -0xc(%rbp),%eax
    9111:	48 8b 55 f8          	mov    -0x8(%rbp),%rdx
    9115:	89 c1                	mov    %eax,%ecx
    9117:	48 d3 e2             	shl    %cl,%rdx
    911a:	48 89 d0             	mov    %rdx,%rax
    911d:	eb 04                	jmp    9123 <safe_lshift_func_uint64_t_u_s+0x48>
    911f:	48 8b 45 f8          	mov    -0x8(%rbp),%rax
    9123:	5d                   	pop    %rbp
    9124:	c3                   	retq   

0000000000009125 <safe_lshift_func_uint64_t_u_u>:
    9125:	f3 0f 1e fa          	endbr64 
    9129:	55                   	push   %rbp
    912a:	48 89 e5             	mov    %rsp,%rbp
    912d:	48 89 7d f8          	mov    %rdi,-0x8(%rbp)
    9131:	89 75 f4             	mov    %esi,-0xc(%rbp)
    9134:	83 7d f4 1f          	cmpl   $0x1f,-0xc(%rbp)
    9138:	77 29                	ja     9163 <safe_lshift_func_uint64_t_u_u+0x3e>
    913a:	8b 45 f4             	mov    -0xc(%rbp),%eax
    913d:	48 c7 c2 ff ff ff ff 	mov    $0xffffffffffffffff,%rdx
    9144:	89 c1                	mov    %eax,%ecx
    9146:	48 d3 ea             	shr    %cl,%rdx
    9149:	48 89 d0             	mov    %rdx,%rax
    914c:	48 39 45 f8          	cmp    %rax,-0x8(%rbp)
    9150:	77 11                	ja     9163 <safe_lshift_func_uint64_t_u_u+0x3e>
    9152:	8b 45 f4             	mov    -0xc(%rbp),%eax
    9155:	48 8b 55 f8          	mov    -0x8(%rbp),%rdx
    9159:	89 c1                	mov    %eax,%ecx
    915b:	48 d3 e2             	shl    %cl,%rdx
    915e:	48 89 d0             	mov    %rdx,%rax
    9161:	eb 04                	jmp    9167 <safe_lshift_func_uint64_t_u_u+0x42>
    9163:	48 8b 45 f8          	mov    -0x8(%rbp),%rax
    9167:	5d                   	pop    %rbp
    9168:	c3                   	retq   

0000000000009169 <safe_rshift_func_uint64_t_u_s>:
    9169:	f3 0f 1e fa          	endbr64 
    916d:	55                   	push   %rbp
    916e:	48 89 e5             	mov    %rsp,%rbp
    9171:	48 89 7d f8          	mov    %rdi,-0x8(%rbp)
    9175:	89 75 f4             	mov    %esi,-0xc(%rbp)
    9178:	83 7d f4 00          	cmpl   $0x0,-0xc(%rbp)
    917c:	78 17                	js     9195 <safe_rshift_func_uint64_t_u_s+0x2c>
    917e:	83 7d f4 1f          	cmpl   $0x1f,-0xc(%rbp)
    9182:	7f 11                	jg     9195 <safe_rshift_func_uint64_t_u_s+0x2c>
    9184:	8b 45 f4             	mov    -0xc(%rbp),%eax
    9187:	48 8b 55 f8          	mov    -0x8(%rbp),%rdx
    918b:	89 c1                	mov    %eax,%ecx
    918d:	48 d3 ea             	shr    %cl,%rdx
    9190:	48 89 d0             	mov    %rdx,%rax
    9193:	eb 04                	jmp    9199 <safe_rshift_func_uint64_t_u_s+0x30>
    9195:	48 8b 45 f8          	mov    -0x8(%rbp),%rax
    9199:	5d                   	pop    %rbp
    919a:	c3                   	retq   

000000000000919b <safe_rshift_func_uint64_t_u_u>:
    919b:	f3 0f 1e fa          	endbr64 
    919f:	55                   	push   %rbp
    91a0:	48 89 e5             	mov    %rsp,%rbp
    91a3:	48 89 7d f8          	mov    %rdi,-0x8(%rbp)
    91a7:	89 75 f4             	mov    %esi,-0xc(%rbp)
    91aa:	83 7d f4 1f          	cmpl   $0x1f,-0xc(%rbp)
    91ae:	77 11                	ja     91c1 <safe_rshift_func_uint64_t_u_u+0x26>
    91b0:	8b 45 f4             	mov    -0xc(%rbp),%eax
    91b3:	48 8b 55 f8          	mov    -0x8(%rbp),%rdx
    91b7:	89 c1                	mov    %eax,%ecx
    91b9:	48 d3 ea             	shr    %cl,%rdx
    91bc:	48 89 d0             	mov    %rdx,%rax
    91bf:	eb 04                	jmp    91c5 <safe_rshift_func_uint64_t_u_u+0x2a>
    91c1:	48 8b 45 f8          	mov    -0x8(%rbp),%rax
    91c5:	5d                   	pop    %rbp
    91c6:	c3                   	retq   

00000000000091c7 <safe_add_func_float_f_f>:
    91c7:	f3 0f 1e fa          	endbr64 
    91cb:	55                   	push   %rbp
    91cc:	48 89 e5             	mov    %rsp,%rbp
    91cf:	f3 0f 11 45 fc       	movss  %xmm0,-0x4(%rbp)
    91d4:	f3 0f 11 4d f8       	movss  %xmm1,-0x8(%rbp)
    91d9:	f3 0f 10 4d fc       	movss  -0x4(%rbp),%xmm1
    91de:	f3 0f 10 05 92 99 00 	movss  0x9992(%rip),%xmm0        # 12b78 <l_1163.4442+0x118>
    91e5:	00 
    91e6:	f3 0f 59 c8          	mulss  %xmm0,%xmm1
    91ea:	f3 0f 10 55 f8       	movss  -0x8(%rbp),%xmm2
    91ef:	f3 0f 10 05 81 99 00 	movss  0x9981(%rip),%xmm0        # 12b78 <l_1163.4442+0x118>
    91f6:	00 
    91f7:	f3 0f 59 c2          	mulss  %xmm2,%xmm0
    91fb:	f3 0f 58 c1          	addss  %xmm1,%xmm0
    91ff:	f3 0f 10 0d 79 99 00 	movss  0x9979(%rip),%xmm1        # 12b80 <l_1163.4442+0x120>
    9206:	00 
    9207:	0f 54 c1             	andps  %xmm1,%xmm0
    920a:	0f 2f 05 7f 99 00 00 	comiss 0x997f(%rip),%xmm0        # 12b90 <l_1163.4442+0x130>
    9211:	76 07                	jbe    921a <safe_add_func_float_f_f+0x53>
    9213:	f3 0f 10 45 fc       	movss  -0x4(%rbp),%xmm0
    9218:	eb 0a                	jmp    9224 <safe_add_func_float_f_f+0x5d>
    921a:	f3 0f 10 45 fc       	movss  -0x4(%rbp),%xmm0
    921f:	f3 0f 58 45 f8       	addss  -0x8(%rbp),%xmm0
    9224:	5d                   	pop    %rbp
    9225:	c3                   	retq   

0000000000009226 <safe_sub_func_float_f_f>:
    9226:	f3 0f 1e fa          	endbr64 
    922a:	55                   	push   %rbp
    922b:	48 89 e5             	mov    %rsp,%rbp
    922e:	f3 0f 11 45 fc       	movss  %xmm0,-0x4(%rbp)
    9233:	f3 0f 11 4d f8       	movss  %xmm1,-0x8(%rbp)
    9238:	f3 0f 10 4d fc       	movss  -0x4(%rbp),%xmm1
    923d:	f3 0f 10 05 33 99 00 	movss  0x9933(%rip),%xmm0        # 12b78 <l_1163.4442+0x118>
    9244:	00 
    9245:	f3 0f 59 c1          	mulss  %xmm1,%xmm0
    9249:	f3 0f 10 55 f8       	movss  -0x8(%rbp),%xmm2
    924e:	f3 0f 10 0d 22 99 00 	movss  0x9922(%rip),%xmm1        # 12b78 <l_1163.4442+0x118>
    9255:	00 
    9256:	f3 0f 59 ca          	mulss  %xmm2,%xmm1
    925a:	f3 0f 5c c1          	subss  %xmm1,%xmm0
    925e:	f3 0f 10 0d 1a 99 00 	movss  0x991a(%rip),%xmm1        # 12b80 <l_1163.4442+0x120>
    9265:	00 
    9266:	0f 54 c1             	andps  %xmm1,%xmm0
    9269:	0f 2f 05 20 99 00 00 	comiss 0x9920(%rip),%xmm0        # 12b90 <l_1163.4442+0x130>
    9270:	76 07                	jbe    9279 <safe_sub_func_float_f_f+0x53>
    9272:	f3 0f 10 45 fc       	movss  -0x4(%rbp),%xmm0
    9277:	eb 0a                	jmp    9283 <safe_sub_func_float_f_f+0x5d>
    9279:	f3 0f 10 45 fc       	movss  -0x4(%rbp),%xmm0
    927e:	f3 0f 5c 45 f8       	subss  -0x8(%rbp),%xmm0
    9283:	5d                   	pop    %rbp
    9284:	c3                   	retq   

0000000000009285 <safe_mul_func_float_f_f>:
    9285:	f3 0f 1e fa          	endbr64 
    9289:	55                   	push   %rbp
    928a:	48 89 e5             	mov    %rsp,%rbp
    928d:	f3 0f 11 45 fc       	movss  %xmm0,-0x4(%rbp)
    9292:	f3 0f 11 4d f8       	movss  %xmm1,-0x8(%rbp)
    9297:	f3 0f 10 4d fc       	movss  -0x4(%rbp),%xmm1
    929c:	f3 0f 10 05 f0 98 00 	movss  0x98f0(%rip),%xmm0        # 12b94 <l_1163.4442+0x134>
    92a3:	00 
    92a4:	f3 0f 59 c8          	mulss  %xmm0,%xmm1
    92a8:	f3 0f 10 55 f8       	movss  -0x8(%rbp),%xmm2
    92ad:	f3 0f 10 05 e3 98 00 	movss  0x98e3(%rip),%xmm0        # 12b98 <l_1163.4442+0x138>
    92b4:	00 
    92b5:	f3 0f 59 c2          	mulss  %xmm2,%xmm0
    92b9:	f3 0f 59 c1          	mulss  %xmm1,%xmm0
    92bd:	f3 0f 10 0d bb 98 00 	movss  0x98bb(%rip),%xmm1        # 12b80 <l_1163.4442+0x120>
    92c4:	00 
    92c5:	0f 54 c1             	andps  %xmm1,%xmm0
    92c8:	0f 2f 05 cd 98 00 00 	comiss 0x98cd(%rip),%xmm0        # 12b9c <l_1163.4442+0x13c>
    92cf:	76 07                	jbe    92d8 <safe_mul_func_float_f_f+0x53>
    92d1:	f3 0f 10 45 fc       	movss  -0x4(%rbp),%xmm0
    92d6:	eb 0a                	jmp    92e2 <safe_mul_func_float_f_f+0x5d>
    92d8:	f3 0f 10 45 fc       	movss  -0x4(%rbp),%xmm0
    92dd:	f3 0f 59 45 f8       	mulss  -0x8(%rbp),%xmm0
    92e2:	5d                   	pop    %rbp
    92e3:	c3                   	retq   

00000000000092e4 <safe_div_func_float_f_f>:
    92e4:	f3 0f 1e fa          	endbr64 
    92e8:	55                   	push   %rbp
    92e9:	48 89 e5             	mov    %rsp,%rbp
    92ec:	f3 0f 11 45 fc       	movss  %xmm0,-0x4(%rbp)
    92f1:	f3 0f 11 4d f8       	movss  %xmm1,-0x8(%rbp)
    92f6:	f3 0f 10 45 f8       	movss  -0x8(%rbp),%xmm0
    92fb:	f3 0f 10 0d 7d 98 00 	movss  0x987d(%rip),%xmm1        # 12b80 <l_1163.4442+0x120>
    9302:	00 
    9303:	0f 54 c8             	andps  %xmm0,%xmm1
    9306:	f3 0f 10 05 92 98 00 	movss  0x9892(%rip),%xmm0        # 12ba0 <l_1163.4442+0x140>
    930d:	00 
    930e:	0f 2f c1             	comiss %xmm1,%xmm0
    9311:	0f 97 c0             	seta   %al
    9314:	83 f0 01             	xor    $0x1,%eax
    9317:	84 c0                	test   %al,%al
    9319:	75 56                	jne    9371 <safe_div_func_float_f_f+0x8d>
    931b:	66 0f ef c0          	pxor   %xmm0,%xmm0
    931f:	0f 2e 45 f8          	ucomiss -0x8(%rbp),%xmm0
    9323:	7a 0a                	jp     932f <safe_div_func_float_f_f+0x4b>
    9325:	66 0f ef c0          	pxor   %xmm0,%xmm0
    9329:	0f 2e 45 f8          	ucomiss -0x8(%rbp),%xmm0
    932d:	74 4e                	je     937d <safe_div_func_float_f_f+0x99>
    932f:	f3 0f 10 4d fc       	movss  -0x4(%rbp),%xmm1
    9334:	f3 0f 10 05 68 98 00 	movss  0x9868(%rip),%xmm0        # 12ba4 <l_1163.4442+0x144>
    933b:	00 
    933c:	f3 0f 59 c1          	mulss  %xmm1,%xmm0
    9340:	f3 0f 10 55 f8       	movss  -0x8(%rbp),%xmm2
    9345:	f3 0f 10 0d 5b 98 00 	movss  0x985b(%rip),%xmm1        # 12ba8 <l_1163.4442+0x148>
    934c:	00 
    934d:	f3 0f 59 ca          	mulss  %xmm2,%xmm1
    9351:	f3 0f 5e c1          	divss  %xmm1,%xmm0
    9355:	f3 0f 10 0d 23 98 00 	movss  0x9823(%rip),%xmm1        # 12b80 <l_1163.4442+0x120>
    935c:	00 
    935d:	0f 54 c1             	andps  %xmm1,%xmm0
    9360:	0f 2f 05 45 98 00 00 	comiss 0x9845(%rip),%xmm0        # 12bac <l_1163.4442+0x14c>
    9367:	0f 97 c0             	seta   %al
    936a:	83 f0 01             	xor    $0x1,%eax
    936d:	84 c0                	test   %al,%al
    936f:	74 0c                	je     937d <safe_div_func_float_f_f+0x99>
    9371:	f3 0f 10 45 fc       	movss  -0x4(%rbp),%xmm0
    9376:	f3 0f 5e 45 f8       	divss  -0x8(%rbp),%xmm0
    937b:	eb 05                	jmp    9382 <safe_div_func_float_f_f+0x9e>
    937d:	f3 0f 10 45 fc       	movss  -0x4(%rbp),%xmm0
    9382:	5d                   	pop    %rbp
    9383:	c3                   	retq   

0000000000009384 <safe_add_func_double_f_f>:
    9384:	f3 0f 1e fa          	endbr64 
    9388:	55                   	push   %rbp
    9389:	48 89 e5             	mov    %rsp,%rbp
    938c:	f2 0f 11 45 f8       	movsd  %xmm0,-0x8(%rbp)
    9391:	f2 0f 11 4d f0       	movsd  %xmm1,-0x10(%rbp)
    9396:	f2 0f 10 4d f8       	movsd  -0x8(%rbp),%xmm1
    939b:	f2 0f 10 05 0d 98 00 	movsd  0x980d(%rip),%xmm0        # 12bb0 <l_1163.4442+0x150>
    93a2:	00 
    93a3:	f2 0f 59 c8          	mulsd  %xmm0,%xmm1
    93a7:	f2 0f 10 55 f0       	movsd  -0x10(%rbp),%xmm2
    93ac:	f2 0f 10 05 fc 97 00 	movsd  0x97fc(%rip),%xmm0        # 12bb0 <l_1163.4442+0x150>
    93b3:	00 
    93b4:	f2 0f 59 c2          	mulsd  %xmm2,%xmm0
    93b8:	f2 0f 58 c1          	addsd  %xmm1,%xmm0
    93bc:	f3 0f 7e 0d fc 97 00 	movq   0x97fc(%rip),%xmm1        # 12bc0 <l_1163.4442+0x160>
    93c3:	00 
    93c4:	66 0f 54 c1          	andpd  %xmm1,%xmm0
    93c8:	66 0f 2f 05 00 98 00 	comisd 0x9800(%rip),%xmm0        # 12bd0 <l_1163.4442+0x170>
    93cf:	00 
    93d0:	76 07                	jbe    93d9 <safe_add_func_double_f_f+0x55>
    93d2:	f2 0f 10 45 f8       	movsd  -0x8(%rbp),%xmm0
    93d7:	eb 0a                	jmp    93e3 <safe_add_func_double_f_f+0x5f>
    93d9:	f2 0f 10 45 f8       	movsd  -0x8(%rbp),%xmm0
    93de:	f2 0f 58 45 f0       	addsd  -0x10(%rbp),%xmm0
    93e3:	5d                   	pop    %rbp
    93e4:	c3                   	retq   

00000000000093e5 <safe_sub_func_double_f_f>:
    93e5:	f3 0f 1e fa          	endbr64 
    93e9:	55                   	push   %rbp
    93ea:	48 89 e5             	mov    %rsp,%rbp
    93ed:	f2 0f 11 45 f8       	movsd  %xmm0,-0x8(%rbp)
    93f2:	f2 0f 11 4d f0       	movsd  %xmm1,-0x10(%rbp)
    93f7:	f2 0f 10 4d f8       	movsd  -0x8(%rbp),%xmm1
    93fc:	f2 0f 10 05 ac 97 00 	movsd  0x97ac(%rip),%xmm0        # 12bb0 <l_1163.4442+0x150>
    9403:	00 
    9404:	f2 0f 59 c1          	mulsd  %xmm1,%xmm0
    9408:	f2 0f 10 55 f0       	movsd  -0x10(%rbp),%xmm2
    940d:	f2 0f 10 0d 9b 97 00 	movsd  0x979b(%rip),%xmm1        # 12bb0 <l_1163.4442+0x150>
    9414:	00 
    9415:	f2 0f 59 ca          	mulsd  %xmm2,%xmm1
    9419:	f2 0f 5c c1          	subsd  %xmm1,%xmm0
    941d:	f3 0f 7e 0d 9b 97 00 	movq   0x979b(%rip),%xmm1        # 12bc0 <l_1163.4442+0x160>
    9424:	00 
    9425:	66 0f 54 c1          	andpd  %xmm1,%xmm0
    9429:	66 0f 2f 05 9f 97 00 	comisd 0x979f(%rip),%xmm0        # 12bd0 <l_1163.4442+0x170>
    9430:	00 
    9431:	76 07                	jbe    943a <safe_sub_func_double_f_f+0x55>
    9433:	f2 0f 10 45 f8       	movsd  -0x8(%rbp),%xmm0
    9438:	eb 0a                	jmp    9444 <safe_sub_func_double_f_f+0x5f>
    943a:	f2 0f 10 45 f8       	movsd  -0x8(%rbp),%xmm0
    943f:	f2 0f 5c 45 f0       	subsd  -0x10(%rbp),%xmm0
    9444:	5d                   	pop    %rbp
    9445:	c3                   	retq   

0000000000009446 <safe_mul_func_double_f_f>:
    9446:	f3 0f 1e fa          	endbr64 
    944a:	55                   	push   %rbp
    944b:	48 89 e5             	mov    %rsp,%rbp
    944e:	f2 0f 11 45 f8       	movsd  %xmm0,-0x8(%rbp)
    9453:	f2 0f 11 4d f0       	movsd  %xmm1,-0x10(%rbp)
    9458:	f2 0f 10 4d f8       	movsd  -0x8(%rbp),%xmm1
    945d:	f2 0f 10 05 73 97 00 	movsd  0x9773(%rip),%xmm0        # 12bd8 <l_1163.4442+0x178>
    9464:	00 
    9465:	f2 0f 59 c8          	mulsd  %xmm0,%xmm1
    9469:	f2 0f 10 55 f0       	movsd  -0x10(%rbp),%xmm2
    946e:	f2 0f 10 05 6a 97 00 	movsd  0x976a(%rip),%xmm0        # 12be0 <l_1163.4442+0x180>
    9475:	00 
    9476:	f2 0f 59 c2          	mulsd  %xmm2,%xmm0
    947a:	f2 0f 59 c1          	mulsd  %xmm1,%xmm0
    947e:	f3 0f 7e 0d 3a 97 00 	movq   0x973a(%rip),%xmm1        # 12bc0 <l_1163.4442+0x160>
    9485:	00 
    9486:	66 0f 54 c1          	andpd  %xmm1,%xmm0
    948a:	66 0f 2f 05 56 97 00 	comisd 0x9756(%rip),%xmm0        # 12be8 <l_1163.4442+0x188>
    9491:	00 
    9492:	76 07                	jbe    949b <safe_mul_func_double_f_f+0x55>
    9494:	f2 0f 10 45 f8       	movsd  -0x8(%rbp),%xmm0
    9499:	eb 0a                	jmp    94a5 <safe_mul_func_double_f_f+0x5f>
    949b:	f2 0f 10 45 f8       	movsd  -0x8(%rbp),%xmm0
    94a0:	f2 0f 59 45 f0       	mulsd  -0x10(%rbp),%xmm0
    94a5:	5d                   	pop    %rbp
    94a6:	c3                   	retq   

00000000000094a7 <safe_div_func_double_f_f>:
    94a7:	f3 0f 1e fa          	endbr64 
    94ab:	55                   	push   %rbp
    94ac:	48 89 e5             	mov    %rsp,%rbp
    94af:	f2 0f 11 45 f8       	movsd  %xmm0,-0x8(%rbp)
    94b4:	f2 0f 11 4d f0       	movsd  %xmm1,-0x10(%rbp)
    94b9:	f2 0f 10 45 f0       	movsd  -0x10(%rbp),%xmm0
    94be:	f3 0f 7e 0d fa 96 00 	movq   0x96fa(%rip),%xmm1        # 12bc0 <l_1163.4442+0x160>
    94c5:	00 
    94c6:	66 0f 54 c8          	andpd  %xmm0,%xmm1
    94ca:	f2 0f 10 05 1e 97 00 	movsd  0x971e(%rip),%xmm0        # 12bf0 <l_1163.4442+0x190>
    94d1:	00 
    94d2:	66 0f 2f c1          	comisd %xmm1,%xmm0
    94d6:	0f 97 c0             	seta   %al
    94d9:	83 f0 01             	xor    $0x1,%eax
    94dc:	84 c0                	test   %al,%al
    94de:	75 5a                	jne    953a <safe_div_func_double_f_f+0x93>
    94e0:	66 0f ef c0          	pxor   %xmm0,%xmm0
    94e4:	66 0f 2e 45 f0       	ucomisd -0x10(%rbp),%xmm0
    94e9:	7a 0b                	jp     94f6 <safe_div_func_double_f_f+0x4f>
    94eb:	66 0f ef c0          	pxor   %xmm0,%xmm0
    94ef:	66 0f 2e 45 f0       	ucomisd -0x10(%rbp),%xmm0
    94f4:	74 50                	je     9546 <safe_div_func_double_f_f+0x9f>
    94f6:	f2 0f 10 4d f8       	movsd  -0x8(%rbp),%xmm1
    94fb:	f2 0f 10 05 f5 96 00 	movsd  0x96f5(%rip),%xmm0        # 12bf8 <l_1163.4442+0x198>
    9502:	00 
    9503:	f2 0f 59 c1          	mulsd  %xmm1,%xmm0
    9507:	f2 0f 10 55 f0       	movsd  -0x10(%rbp),%xmm2
    950c:	f2 0f 10 0d ec 96 00 	movsd  0x96ec(%rip),%xmm1        # 12c00 <l_1163.4442+0x1a0>
    9513:	00 
    9514:	f2 0f 59 ca          	mulsd  %xmm2,%xmm1
    9518:	f2 0f 5e c1          	divsd  %xmm1,%xmm0
    951c:	f3 0f 7e 0d 9c 96 00 	movq   0x969c(%rip),%xmm1        # 12bc0 <l_1163.4442+0x160>
    9523:	00 
    9524:	66 0f 54 c1          	andpd  %xmm1,%xmm0
    9528:	66 0f 2f 05 d8 96 00 	comisd 0x96d8(%rip),%xmm0        # 12c08 <l_1163.4442+0x1a8>
    952f:	00 
    9530:	0f 97 c0             	seta   %al
    9533:	83 f0 01             	xor    $0x1,%eax
    9536:	84 c0                	test   %al,%al
    9538:	74 0c                	je     9546 <safe_div_func_double_f_f+0x9f>
    953a:	f2 0f 10 45 f8       	movsd  -0x8(%rbp),%xmm0
    953f:	f2 0f 5e 45 f0       	divsd  -0x10(%rbp),%xmm0
    9544:	eb 05                	jmp    954b <safe_div_func_double_f_f+0xa4>
    9546:	f2 0f 10 45 f8       	movsd  -0x8(%rbp),%xmm0
    954b:	5d                   	pop    %rbp
    954c:	c3                   	retq   

000000000000954d <safe_convert_func_float_to_int32_t>:
    954d:	f3 0f 1e fa          	endbr64 
    9551:	55                   	push   %rbp
    9552:	48 89 e5             	mov    %rsp,%rbp
    9555:	f3 0f 11 45 fc       	movss  %xmm0,-0x4(%rbp)
    955a:	f3 0f 10 05 ae 96 00 	movss  0x96ae(%rip),%xmm0        # 12c10 <l_1163.4442+0x1b0>
    9561:	00 
    9562:	0f 2f 45 fc          	comiss -0x4(%rbp),%xmm0
    9566:	0f 93 c0             	setae  %al
    9569:	83 f0 01             	xor    $0x1,%eax
    956c:	84 c0                	test   %al,%al
    956e:	74 21                	je     9591 <safe_convert_func_float_to_int32_t+0x44>
    9570:	f3 0f 10 45 fc       	movss  -0x4(%rbp),%xmm0
    9575:	0f 2f 05 98 96 00 00 	comiss 0x9698(%rip),%xmm0        # 12c14 <l_1163.4442+0x1b4>
    957c:	0f 93 c0             	setae  %al
    957f:	83 f0 01             	xor    $0x1,%eax
    9582:	84 c0                	test   %al,%al
    9584:	74 0b                	je     9591 <safe_convert_func_float_to_int32_t+0x44>
    9586:	f3 0f 10 45 fc       	movss  -0x4(%rbp),%xmm0
    958b:	f3 0f 2c c0          	cvttss2si %xmm0,%eax
    958f:	eb 05                	jmp    9596 <safe_convert_func_float_to_int32_t+0x49>
    9591:	b8 ff ff ff 7f       	mov    $0x7fffffff,%eax
    9596:	5d                   	pop    %rbp
    9597:	c3                   	retq   

0000000000009598 <crc32_gentab>:
    9598:	f3 0f 1e fa          	endbr64 
    959c:	55                   	push   %rbp
    959d:	48 89 e5             	mov    %rsp,%rbp
    95a0:	c7 45 fc 20 83 b8 ed 	movl   $0xedb88320,-0x4(%rbp)
    95a7:	c7 45 f4 00 00 00 00 	movl   $0x0,-0xc(%rbp)
    95ae:	eb 51                	jmp    9601 <crc32_gentab+0x69>
    95b0:	8b 45 f4             	mov    -0xc(%rbp),%eax
    95b3:	89 45 f0             	mov    %eax,-0x10(%rbp)
    95b6:	c7 45 f8 08 00 00 00 	movl   $0x8,-0x8(%rbp)
    95bd:	eb 1e                	jmp    95dd <crc32_gentab+0x45>
    95bf:	8b 45 f0             	mov    -0x10(%rbp),%eax
    95c2:	83 e0 01             	and    $0x1,%eax
    95c5:	85 c0                	test   %eax,%eax
    95c7:	74 0d                	je     95d6 <crc32_gentab+0x3e>
    95c9:	8b 45 f0             	mov    -0x10(%rbp),%eax
    95cc:	d1 e8                	shr    %eax
    95ce:	33 45 fc             	xor    -0x4(%rbp),%eax
    95d1:	89 45 f0             	mov    %eax,-0x10(%rbp)
    95d4:	eb 03                	jmp    95d9 <crc32_gentab+0x41>
    95d6:	d1 6d f0             	shrl   -0x10(%rbp)
    95d9:	83 6d f8 01          	subl   $0x1,-0x8(%rbp)
    95dd:	83 7d f8 00          	cmpl   $0x0,-0x8(%rbp)
    95e1:	7f dc                	jg     95bf <crc32_gentab+0x27>
    95e3:	8b 45 f4             	mov    -0xc(%rbp),%eax
    95e6:	48 98                	cltq   
    95e8:	48 8d 0c 85 00 00 00 	lea    0x0(,%rax,4),%rcx
    95ef:	00 
    95f0:	48 8d 15 49 fd 00 00 	lea    0xfd49(%rip),%rdx        # 19340 <crc32_tab>
    95f7:	8b 45 f0             	mov    -0x10(%rbp),%eax
    95fa:	89 04 11             	mov    %eax,(%rcx,%rdx,1)
    95fd:	83 45 f4 01          	addl   $0x1,-0xc(%rbp)
    9601:	81 7d f4 ff 00 00 00 	cmpl   $0xff,-0xc(%rbp)
    9608:	7e a6                	jle    95b0 <crc32_gentab+0x18>
    960a:	90                   	nop
    960b:	90                   	nop
    960c:	5d                   	pop    %rbp
    960d:	c3                   	retq   

000000000000960e <crc32_byte>:
    960e:	f3 0f 1e fa          	endbr64 
    9612:	55                   	push   %rbp
    9613:	48 89 e5             	mov    %rsp,%rbp
    9616:	89 f8                	mov    %edi,%eax
    9618:	88 45 fc             	mov    %al,-0x4(%rbp)
    961b:	8b 05 ff c9 00 00    	mov    0xc9ff(%rip),%eax        # 16020 <crc32_context>
    9621:	c1 e8 08             	shr    $0x8,%eax
    9624:	89 c1                	mov    %eax,%ecx
    9626:	0f b6 55 fc          	movzbl -0x4(%rbp),%edx
    962a:	8b 05 f0 c9 00 00    	mov    0xc9f0(%rip),%eax        # 16020 <crc32_context>
    9630:	31 d0                	xor    %edx,%eax
    9632:	0f b6 c0             	movzbl %al,%eax
    9635:	89 c0                	mov    %eax,%eax
    9637:	48 8d 14 85 00 00 00 	lea    0x0(,%rax,4),%rdx
    963e:	00 
    963f:	48 8d 05 fa fc 00 00 	lea    0xfcfa(%rip),%rax        # 19340 <crc32_tab>
    9646:	8b 04 02             	mov    (%rdx,%rax,1),%eax
    9649:	31 c8                	xor    %ecx,%eax
    964b:	89 05 cf c9 00 00    	mov    %eax,0xc9cf(%rip)        # 16020 <crc32_context>
    9651:	90                   	nop
    9652:	5d                   	pop    %rbp
    9653:	c3                   	retq   

0000000000009654 <crc32_8bytes>:
    9654:	f3 0f 1e fa          	endbr64 
    9658:	55                   	push   %rbp
    9659:	48 89 e5             	mov    %rsp,%rbp
    965c:	48 83 ec 08          	sub    $0x8,%rsp
    9660:	48 89 7d f8          	mov    %rdi,-0x8(%rbp)
    9664:	48 8b 45 f8          	mov    -0x8(%rbp),%rax
    9668:	0f b6 c0             	movzbl %al,%eax
    966b:	89 c7                	mov    %eax,%edi
    966d:	e8 9c ff ff ff       	callq  960e <crc32_byte>
    9672:	48 8b 45 f8          	mov    -0x8(%rbp),%rax
    9676:	48 c1 e8 08          	shr    $0x8,%rax
    967a:	0f b6 c0             	movzbl %al,%eax
    967d:	89 c7                	mov    %eax,%edi
    967f:	e8 8a ff ff ff       	callq  960e <crc32_byte>
    9684:	48 8b 45 f8          	mov    -0x8(%rbp),%rax
    9688:	48 c1 e8 10          	shr    $0x10,%rax
    968c:	0f b6 c0             	movzbl %al,%eax
    968f:	89 c7                	mov    %eax,%edi
    9691:	e8 78 ff ff ff       	callq  960e <crc32_byte>
    9696:	48 8b 45 f8          	mov    -0x8(%rbp),%rax
    969a:	48 c1 e8 18          	shr    $0x18,%rax
    969e:	0f b6 c0             	movzbl %al,%eax
    96a1:	89 c7                	mov    %eax,%edi
    96a3:	e8 66 ff ff ff       	callq  960e <crc32_byte>
    96a8:	48 8b 45 f8          	mov    -0x8(%rbp),%rax
    96ac:	48 c1 e8 20          	shr    $0x20,%rax
    96b0:	0f b6 c0             	movzbl %al,%eax
    96b3:	89 c7                	mov    %eax,%edi
    96b5:	e8 54 ff ff ff       	callq  960e <crc32_byte>
    96ba:	48 8b 45 f8          	mov    -0x8(%rbp),%rax
    96be:	48 c1 e8 28          	shr    $0x28,%rax
    96c2:	0f b6 c0             	movzbl %al,%eax
    96c5:	89 c7                	mov    %eax,%edi
    96c7:	e8 42 ff ff ff       	callq  960e <crc32_byte>
    96cc:	48 8b 45 f8          	mov    -0x8(%rbp),%rax
    96d0:	48 c1 e8 30          	shr    $0x30,%rax
    96d4:	0f b6 c0             	movzbl %al,%eax
    96d7:	89 c7                	mov    %eax,%edi
    96d9:	e8 30 ff ff ff       	callq  960e <crc32_byte>
    96de:	48 8b 45 f8          	mov    -0x8(%rbp),%rax
    96e2:	48 c1 e8 38          	shr    $0x38,%rax
    96e6:	0f b6 c0             	movzbl %al,%eax
    96e9:	89 c7                	mov    %eax,%edi
    96eb:	e8 1e ff ff ff       	callq  960e <crc32_byte>
    96f0:	90                   	nop
    96f1:	c9                   	leaveq 
    96f2:	c3                   	retq   

00000000000096f3 <transparent_crc>:
    96f3:	f3 0f 1e fa          	endbr64 
    96f7:	55                   	push   %rbp
    96f8:	48 89 e5             	mov    %rsp,%rbp
    96fb:	48 83 ec 20          	sub    $0x20,%rsp
    96ff:	48 89 7d f8          	mov    %rdi,-0x8(%rbp)
    9703:	48 89 75 f0          	mov    %rsi,-0x10(%rbp)
    9707:	89 55 ec             	mov    %edx,-0x14(%rbp)
    970a:	48 8b 45 f8          	mov    -0x8(%rbp),%rax
    970e:	48 89 c7             	mov    %rax,%rdi
    9711:	e8 3e ff ff ff       	callq  9654 <crc32_8bytes>
    9716:	83 7d ec 00          	cmpl   $0x0,-0x14(%rbp)
    971a:	74 22                	je     973e <transparent_crc+0x4b>
    971c:	8b 05 fe c8 00 00    	mov    0xc8fe(%rip),%eax        # 16020 <crc32_context>
    9722:	f7 d0                	not    %eax
    9724:	89 c2                	mov    %eax,%edx
    9726:	48 8b 45 f0          	mov    -0x10(%rbp),%rax
    972a:	48 89 c6             	mov    %rax,%rsi
    972d:	48 8d 3d fc 88 00 00 	lea    0x88fc(%rip),%rdi        # 12030 <_IO_stdin_used+0x30>
    9734:	b8 00 00 00 00       	mov    $0x0,%eax
    9739:	e8 42 e9 ff ff       	callq  8080 <printf@plt>
    973e:	90                   	nop
    973f:	c9                   	leaveq 
    9740:	c3                   	retq   

0000000000009741 <transparent_crc_bytes>:
    9741:	f3 0f 1e fa          	endbr64 
    9745:	55                   	push   %rbp
    9746:	48 89 e5             	mov    %rsp,%rbp
    9749:	48 83 ec 30          	sub    $0x30,%rsp
    974d:	48 89 7d e8          	mov    %rdi,-0x18(%rbp)
    9751:	89 75 e4             	mov    %esi,-0x1c(%rbp)
    9754:	48 89 55 d8          	mov    %rdx,-0x28(%rbp)
    9758:	89 4d e0             	mov    %ecx,-0x20(%rbp)
    975b:	c7 45 fc 00 00 00 00 	movl   $0x0,-0x4(%rbp)
    9762:	eb 1e                	jmp    9782 <transparent_crc_bytes+0x41>
    9764:	8b 45 fc             	mov    -0x4(%rbp),%eax
    9767:	48 63 d0             	movslq %eax,%rdx
    976a:	48 8b 45 e8          	mov    -0x18(%rbp),%rax
    976e:	48 01 d0             	add    %rdx,%rax
    9771:	0f b6 00             	movzbl (%rax),%eax
    9774:	0f b6 c0             	movzbl %al,%eax
    9777:	89 c7                	mov    %eax,%edi
    9779:	e8 90 fe ff ff       	callq  960e <crc32_byte>
    977e:	83 45 fc 01          	addl   $0x1,-0x4(%rbp)
    9782:	8b 45 fc             	mov    -0x4(%rbp),%eax
    9785:	3b 45 e4             	cmp    -0x1c(%rbp),%eax
    9788:	7c da                	jl     9764 <transparent_crc_bytes+0x23>
    978a:	83 7d e0 00          	cmpl   $0x0,-0x20(%rbp)
    978e:	74 22                	je     97b2 <transparent_crc_bytes+0x71>
    9790:	8b 05 8a c8 00 00    	mov    0xc88a(%rip),%eax        # 16020 <crc32_context>
    9796:	f7 d0                	not    %eax
    9798:	89 c2                	mov    %eax,%edx
    979a:	48 8b 45 d8          	mov    -0x28(%rbp),%rax
    979e:	48 89 c6             	mov    %rax,%rsi
    97a1:	48 8d 3d 88 88 00 00 	lea    0x8888(%rip),%rdi        # 12030 <_IO_stdin_used+0x30>
    97a8:	b8 00 00 00 00       	mov    $0x0,%eax
    97ad:	e8 ce e8 ff ff       	callq  8080 <printf@plt>
    97b2:	90                   	nop
    97b3:	c9                   	leaveq 
    97b4:	c3                   	retq   

00000000000097b5 <func_1>:
    97b5:	f3 0f 1e fa          	endbr64 
    97b9:	55                   	push   %rbp
    97ba:	48 89 e5             	mov    %rsp,%rbp
    97bd:	48 81 ec b0 09 00 00 	sub    $0x9b0,%rsp
    97c4:	64 48 8b 04 25 28 00 	mov    %fs:0x28,%rax
    97cb:	00 00 
    97cd:	48 89 45 f8          	mov    %rax,-0x8(%rbp)
    97d1:	31 c0                	xor    %eax,%eax
    97d3:	48 8d 85 60 fa ff ff 	lea    -0x5a0(%rbp),%rax
    97da:	48 8d 15 1f cc 00 00 	lea    0xcc1f(%rip),%rdx        # 16400 <g_1797+0x8>
    97e1:	b9 51 00 00 00       	mov    $0x51,%ecx
    97e6:	48 89 c7             	mov    %rax,%rdi
    97e9:	48 89 d6             	mov    %rdx,%rsi
    97ec:	f3 48 a5             	rep movsq %ds:(%rsi),%es:(%rdi)
    97ef:	48 8d 05 32 c8 00 00 	lea    0xc832(%rip),%rax        # 16028 <g_8>
    97f6:	48 89 85 b0 f6 ff ff 	mov    %rax,-0x950(%rbp)
    97fd:	c7 85 68 f6 ff ff c1 	movl   $0xe58399c1,-0x998(%rbp)
    9804:	99 83 e5 
    9807:	48 b8 29 ab 70 7e a1 	movabs $0xa90030a17e70ab29,%rax
    980e:	30 00 a9 
    9811:	48 89 85 b8 f6 ff ff 	mov    %rax,-0x948(%rbp)
    9818:	c7 85 84 f6 ff ff f6 	movl   $0xfffffff6,-0x97c(%rbp)
    981f:	ff ff ff 
    9822:	48 8d 05 67 cb 00 00 	lea    0xcb67(%rip),%rax        # 16390 <g_1428>
    9829:	48 89 85 c0 f6 ff ff 	mov    %rax,-0x940(%rbp)
    9830:	48 8d 05 61 ca 00 00 	lea    0xca61(%rip),%rax        # 16298 <g_599>
    9837:	48 89 85 c8 f6 ff ff 	mov    %rax,-0x938(%rbp)
    983e:	48 8d 05 83 ee 00 00 	lea    0xee83(%rip),%rax        # 186c8 <g_1005+0x108>
    9845:	48 89 85 d0 f6 ff ff 	mov    %rax,-0x930(%rbp)
    984c:	48 c7 85 d8 f6 ff ff 	movq   $0x0,-0x928(%rbp)
    9853:	00 00 00 00 
    9857:	48 8d 05 5a eb 00 00 	lea    0xeb5a(%rip),%rax        # 183b8 <g_592>
    985e:	48 89 85 a8 f6 ff ff 	mov    %rax,-0x958(%rbp)
    9865:	c6 85 55 f6 ff ff 25 	movb   $0x25,-0x9ab(%rbp)
    986c:	c6 85 56 f6 ff ff c2 	movb   $0xc2,-0x9aa(%rbp)
    9873:	c7 85 88 f6 ff ff 03 	movl   $0x3,-0x978(%rbp)
    987a:	00 00 00 
    987d:	c7 85 6c f6 ff ff 00 	movl   $0x0,-0x994(%rbp)
    9884:	00 00 00 
    9887:	c7 85 8c f6 ff ff 98 	movl   $0xe2e11498,-0x974(%rbp)
    988e:	14 e1 e2 
    9891:	66 c7 85 5e f6 ff ff 	movw   $0xd7e7,-0x9a2(%rbp)
    9898:	e7 d7 
    989a:	66 c7 85 60 f6 ff ff 	movw   $0xeedb,-0x9a0(%rbp)
    98a1:	db ee 
    98a3:	c7 85 90 f6 ff ff 00 	movl   $0x0,-0x970(%rbp)
    98aa:	00 00 00 
    98ad:	66 c7 85 62 f6 ff ff 	movw   $0xffff,-0x99e(%rbp)
    98b4:	ff ff 
    98b6:	c7 85 78 f6 ff ff 00 	movl   $0x0,-0x988(%rbp)
    98bd:	00 00 00 
    98c0:	eb 49                	jmp    990b <func_1+0x156>
    98c2:	c7 85 7c f6 ff ff 00 	movl   $0x0,-0x984(%rbp)
    98c9:	00 00 00 
    98cc:	eb 2d                	jmp    98fb <func_1+0x146>
    98ce:	8b 85 7c f6 ff ff    	mov    -0x984(%rbp),%eax
    98d4:	48 98                	cltq   
    98d6:	8b 95 78 f6 ff ff    	mov    -0x988(%rbp),%edx
    98dc:	48 63 d2             	movslq %edx,%rdx
    98df:	48 01 d2             	add    %rdx,%rdx
    98e2:	48 01 c2             	add    %rax,%rdx
    98e5:	48 8d 85 a8 f6 ff ff 	lea    -0x958(%rbp),%rax
    98ec:	48 89 84 d5 a0 f7 ff 	mov    %rax,-0x860(%rbp,%rdx,8)
    98f3:	ff 
    98f4:	83 85 7c f6 ff ff 01 	addl   $0x1,-0x984(%rbp)
    98fb:	83 bd 7c f6 ff ff 01 	cmpl   $0x1,-0x984(%rbp)
    9902:	7e ca                	jle    98ce <func_1+0x119>
    9904:	83 85 78 f6 ff ff 01 	addl   $0x1,-0x988(%rbp)
    990b:	83 bd 78 f6 ff ff 01 	cmpl   $0x1,-0x988(%rbp)
    9912:	7e ae                	jle    98c2 <func_1+0x10d>
    9914:	48 8b 05 0d e9 00 00 	mov    0xe90d(%rip),%rax        # 18228 <g_4>
    991b:	48 8b 15 fe e8 00 00 	mov    0xe8fe(%rip),%rdx        # 18220 <g_2>
    9922:	48 89 10             	mov    %rdx,(%rax)
    9925:	8b 05 f9 c6 00 00    	mov    0xc6f9(%rip),%eax        # 16024 <g_3>
    992b:	98                   	cwtl   
    992c:	be 0b 00 00 00       	mov    $0xb,%esi
    9931:	89 c7                	mov    %eax,%edi
    9933:	e8 a9 eb ff ff       	callq  84e1 <safe_lshift_func_int16_t_s_u>
    9938:	98                   	cwtl   
    9939:	89 05 e9 c6 00 00    	mov    %eax,0xc6e9(%rip)        # 16028 <g_8>
    993f:	8b 05 e3 c6 00 00    	mov    0xc6e3(%rip),%eax        # 16028 <g_8>
    9945:	66 89 05 ee c6 00 00 	mov    %ax,0xc6ee(%rip)        # 1603a <g_9+0xa>
    994c:	c7 05 d2 c6 00 00 00 	movl   $0x0,0xc6d2(%rip)        # 16028 <g_8>
    9953:	00 00 00 
    9956:	e9 08 06 00 00       	jmpq   9f63 <func_1+0x7ae>
    995b:	66 c7 85 5c f6 ff ff 	movw   $0x63b8,-0x9a4(%rbp)
    9962:	b8 63 
    9964:	48 8d 85 60 fa ff ff 	lea    -0x5a0(%rbp),%rax
    996b:	48 05 f0 00 00 00    	add    $0xf0,%rax
    9971:	48 89 85 e0 f6 ff ff 	mov    %rax,-0x920(%rbp)
    9978:	66 c7 85 40 f8 ff ff 	movw   $0x284d,-0x7c0(%rbp)
    997f:	4d 28 
    9981:	66 c7 85 42 f8 ff ff 	movw   $0x20b2,-0x7be(%rbp)
    9988:	b2 20 
    998a:	66 c7 85 44 f8 ff ff 	movw   $0x284d,-0x7bc(%rbp)
    9991:	4d 28 
    9993:	66 c7 85 46 f8 ff ff 	movw   $0x400,-0x7ba(%rbp)
    999a:	00 04 
    999c:	66 c7 85 48 f8 ff ff 	movw   $0x0,-0x7b8(%rbp)
    99a3:	00 00 
    99a5:	66 c7 85 4a f8 ff ff 	movw   $0x0,-0x7b6(%rbp)
    99ac:	00 00 
    99ae:	66 c7 85 4c f8 ff ff 	movw   $0xfffb,-0x7b4(%rbp)
    99b5:	fb ff 
    99b7:	66 c7 85 4e f8 ff ff 	movw   $0xffff,-0x7b2(%rbp)
    99be:	ff ff 
    99c0:	66 c7 85 50 f8 ff ff 	movw   $0x17fc,-0x7b0(%rbp)
    99c7:	fc 17 
    99c9:	66 c7 85 52 f8 ff ff 	movw   $0x0,-0x7ae(%rbp)
    99d0:	00 00 
    99d2:	66 c7 85 54 f8 ff ff 	movw   $0xffff,-0x7ac(%rbp)
    99d9:	ff ff 
    99db:	66 c7 85 56 f8 ff ff 	movw   $0x7,-0x7aa(%rbp)
    99e2:	07 00 
    99e4:	66 c7 85 58 f8 ff ff 	movw   $0x7,-0x7a8(%rbp)
    99eb:	07 00 
    99ed:	66 c7 85 5a f8 ff ff 	movw   $0xffff,-0x7a6(%rbp)
    99f4:	ff ff 
    99f6:	66 c7 85 5c f8 ff ff 	movw   $0x284d,-0x7a4(%rbp)
    99fd:	4d 28 
    99ff:	66 c7 85 5e f8 ff ff 	movw   $0xef03,-0x7a2(%rbp)
    9a06:	03 ef 
    9a08:	66 c7 85 60 f8 ff ff 	movw   $0xffff,-0x7a0(%rbp)
    9a0f:	ff ff 
    9a11:	66 c7 85 62 f8 ff ff 	movw   $0xffff,-0x79e(%rbp)
    9a18:	ff ff 
    9a1a:	66 c7 85 64 f8 ff ff 	movw   $0x0,-0x79c(%rbp)
    9a21:	00 00 
    9a23:	66 c7 85 66 f8 ff ff 	movw   $0xfffb,-0x79a(%rbp)
    9a2a:	fb ff 
    9a2c:	66 c7 85 68 f8 ff ff 	movw   $0xef03,-0x798(%rbp)
    9a33:	03 ef 
    9a35:	66 c7 85 6a f8 ff ff 	movw   $0xffff,-0x796(%rbp)
    9a3c:	ff ff 
    9a3e:	66 c7 85 6c f8 ff ff 	movw   $0x284d,-0x794(%rbp)
    9a45:	4d 28 
    9a47:	66 c7 85 6e f8 ff ff 	movw   $0xffff,-0x792(%rbp)
    9a4e:	ff ff 
    9a50:	66 c7 85 70 f8 ff ff 	movw   $0xef03,-0x790(%rbp)
    9a57:	03 ef 
    9a59:	66 c7 85 72 f8 ff ff 	movw   $0xffff,-0x78e(%rbp)
    9a60:	ff ff 
    9a62:	66 c7 85 74 f8 ff ff 	movw   $0x17fc,-0x78c(%rbp)
    9a69:	fc 17 
    9a6b:	66 c7 85 76 f8 ff ff 	movw   $0x0,-0x78a(%rbp)
    9a72:	00 00 
    9a74:	66 c7 85 78 f8 ff ff 	movw   $0x0,-0x788(%rbp)
    9a7b:	00 00 
    9a7d:	66 c7 85 7a f8 ff ff 	movw   $0x7,-0x786(%rbp)
    9a84:	07 00 
    9a86:	c6 85 57 f6 ff ff a9 	movb   $0xa9,-0x9a9(%rbp)
    9a8d:	48 c7 85 e8 f6 ff ff 	movq   $0xffffffffffffffff,-0x918(%rbp)
    9a94:	ff ff ff ff 
    9a98:	66 c7 85 64 f6 ff ff 	movw   $0x0,-0x99c(%rbp)
    9a9f:	00 00 
    9aa1:	c6 85 58 f6 ff ff de 	movb   $0xde,-0x9a8(%rbp)
    9aa8:	48 8d 05 31 ef 00 00 	lea    0xef31(%rip),%rax        # 189e0 <g_1096>
    9aaf:	48 89 85 f0 f6 ff ff 	mov    %rax,-0x910(%rbp)
    9ab6:	48 c7 85 f8 f6 ff ff 	movq   $0x4,-0x908(%rbp)
    9abd:	04 00 00 00 
    9ac1:	48 8d 05 d0 c7 00 00 	lea    0xc7d0(%rip),%rax        # 16298 <g_599>
    9ac8:	48 89 85 00 f7 ff ff 	mov    %rax,-0x900(%rbp)
    9acf:	66 c7 85 66 f6 ff ff 	movw   $0x3d58,-0x99a(%rbp)
    9ad6:	58 3d 
    9ad8:	c6 85 59 f6 ff ff 42 	movb   $0x42,-0x9a7(%rbp)
    9adf:	c6 85 5a f6 ff ff 04 	movb   $0x4,-0x9a6(%rbp)
    9ae6:	c7 85 70 f6 ff ff a7 	movl   $0x5fe476a7,-0x990(%rbp)
    9aed:	76 e4 5f 
    9af0:	c7 85 94 f6 ff ff a1 	movl   $0x1c8736a1,-0x96c(%rbp)
    9af7:	36 87 1c 
    9afa:	66 c7 85 70 f7 ff ff 	movw   $0x1,-0x890(%rbp)
    9b01:	01 00 
    9b03:	66 c7 85 72 f7 ff ff 	movw   $0x1,-0x88e(%rbp)
    9b0a:	01 00 
    9b0c:	66 c7 85 74 f7 ff ff 	movw   $0x9118,-0x88c(%rbp)
    9b13:	18 91 
    9b15:	66 c7 85 76 f7 ff ff 	movw   $0x1,-0x88a(%rbp)
    9b1c:	01 00 
    9b1e:	66 c7 85 78 f7 ff ff 	movw   $0x1,-0x888(%rbp)
    9b25:	01 00 
    9b27:	66 c7 85 7a f7 ff ff 	movw   $0x9118,-0x886(%rbp)
    9b2e:	18 91 
    9b30:	66 c7 85 7c f7 ff ff 	movw   $0x1,-0x884(%rbp)
    9b37:	01 00 
    9b39:	66 c7 85 7e f7 ff ff 	movw   $0x1,-0x882(%rbp)
    9b40:	01 00 
    9b42:	c7 85 74 f6 ff ff e6 	movl   $0x2f3a1de6,-0x98c(%rbp)
    9b49:	1d 3a 2f 
    9b4c:	48 b8 87 90 a4 94 30 	movabs $0xfb895d3094a49087,%rax
    9b53:	5d 89 fb 
    9b56:	48 89 85 08 f7 ff ff 	mov    %rax,-0x8f8(%rbp)
    9b5d:	48 8d 85 70 f6 ff ff 	lea    -0x990(%rbp),%rax
    9b64:	48 89 85 10 f7 ff ff 	mov    %rax,-0x8f0(%rbp)
    9b6b:	48 c7 85 18 f7 ff ff 	movq   $0x0,-0x8e8(%rbp)
    9b72:	00 00 00 00 
    9b76:	c7 85 98 f6 ff ff cf 	movl   $0xa118bdcf,-0x968(%rbp)
    9b7d:	bd 18 a1 
    9b80:	c7 85 9c f6 ff ff e3 	movl   $0x69b112e3,-0x964(%rbp)
    9b87:	12 b1 69 
    9b8a:	c7 85 80 f7 ff ff ea 	movl   $0x38608fea,-0x880(%rbp)
    9b91:	8f 60 38 
    9b94:	c7 85 84 f7 ff ff 00 	movl   $0x9935c400,-0x87c(%rbp)
    9b9b:	c4 35 99 
    9b9e:	c7 85 88 f7 ff ff 00 	movl   $0x9935c400,-0x878(%rbp)
    9ba5:	c4 35 99 
    9ba8:	c7 85 8c f7 ff ff ea 	movl   $0x38608fea,-0x874(%rbp)
    9baf:	8f 60 38 
    9bb2:	c7 85 90 f7 ff ff 00 	movl   $0x9935c400,-0x870(%rbp)
    9bb9:	c4 35 99 
    9bbc:	c7 85 94 f7 ff ff 00 	movl   $0x9935c400,-0x86c(%rbp)
    9bc3:	c4 35 99 
    9bc6:	48 c7 85 20 f7 ff ff 	movq   $0xffffffffffffffff,-0x8e0(%rbp)
    9bcd:	ff ff ff ff 
    9bd1:	48 8d 85 60 f9 ff ff 	lea    -0x6a0(%rbp),%rax
    9bd8:	48 8d 15 e1 85 00 00 	lea    0x85e1(%rip),%rdx        # 121c0 <g_1362+0x8>
    9bdf:	b9 1e 00 00 00       	mov    $0x1e,%ecx
    9be4:	48 89 c7             	mov    %rax,%rdi
    9be7:	48 89 d6             	mov    %rdx,%rsi
    9bea:	f3 48 a5             	rep movsq %ds:(%rsi),%es:(%rdi)
    9bed:	48 89 f2             	mov    %rsi,%rdx
    9bf0:	48 89 f8             	mov    %rdi,%rax
    9bf3:	0f b7 0a             	movzwl (%rdx),%ecx
    9bf6:	66 89 08             	mov    %cx,(%rax)
    9bf9:	48 8d 40 02          	lea    0x2(%rax),%rax
    9bfd:	48 8d 52 02          	lea    0x2(%rdx),%rdx
    9c01:	0f b6 0a             	movzbl (%rdx),%ecx
    9c04:	88 08                	mov    %cl,(%rax)
    9c06:	48 8d 40 01          	lea    0x1(%rax),%rax
    9c0a:	48 8d 52 01          	lea    0x1(%rdx),%rdx
    9c0e:	c7 85 a0 f6 ff ff 16 	movl   $0x1aaac816,-0x960(%rbp)
    9c15:	c8 aa 1a 
    9c18:	c7 85 80 f6 ff ff 00 	movl   $0x0,-0x980(%rbp)
    9c1f:	00 00 00 
    9c22:	eb 1b                	jmp    9c3f <func_1+0x48a>
    9c24:	8b 85 80 f6 ff ff    	mov    -0x980(%rbp),%eax
    9c2a:	48 98                	cltq   
    9c2c:	48 c7 84 c5 c0 f7 ff 	movq   $0x3,-0x840(%rbp,%rax,8)
    9c33:	ff 03 00 00 00 
    9c38:	83 85 80 f6 ff ff 01 	addl   $0x1,-0x980(%rbp)
    9c3f:	83 bd 80 f6 ff ff 03 	cmpl   $0x3,-0x980(%rbp)
    9c46:	7e dc                	jle    9c24 <func_1+0x46f>
    9c48:	c7 05 f2 c3 00 00 00 	movl   $0x0,0xc3f2(%rip)        # 16044 <g_13>
    9c4f:	00 00 00 
    9c52:	e9 e5 02 00 00       	jmpq   9f3c <func_1+0x787>
    9c57:	c6 85 5b f6 ff ff 03 	movb   $0x3,-0x9a5(%rbp)
    9c5e:	48 8d 05 cb e5 00 00 	lea    0xe5cb(%rip),%rax        # 18230 <g_25>
    9c65:	48 89 85 28 f7 ff ff 	mov    %rax,-0x8d8(%rbp)
    9c6c:	48 8d 05 4d c4 00 00 	lea    0xc44d(%rip),%rax        # 160c0 <g_88>
    9c73:	48 89 85 30 f7 ff ff 	mov    %rax,-0x8d0(%rbp)
    9c7a:	48 c7 85 38 f7 ff ff 	movq   $0x0,-0x8c8(%rbp)
    9c81:	00 00 00 00 
    9c85:	48 8d 05 1c e7 00 00 	lea    0xe71c(%rip),%rax        # 183a8 <g_525>
    9c8c:	48 89 85 80 f8 ff ff 	mov    %rax,-0x780(%rbp)
    9c93:	48 8d 05 0e e7 00 00 	lea    0xe70e(%rip),%rax        # 183a8 <g_525>
    9c9a:	48 89 85 88 f8 ff ff 	mov    %rax,-0x778(%rbp)
    9ca1:	48 8d 05 00 e7 00 00 	lea    0xe700(%rip),%rax        # 183a8 <g_525>
    9ca8:	48 89 85 90 f8 ff ff 	mov    %rax,-0x770(%rbp)
    9caf:	48 8d 05 f2 e6 00 00 	lea    0xe6f2(%rip),%rax        # 183a8 <g_525>
    9cb6:	48 89 85 98 f8 ff ff 	mov    %rax,-0x768(%rbp)
    9cbd:	48 8d 05 e4 e6 00 00 	lea    0xe6e4(%rip),%rax        # 183a8 <g_525>
    9cc4:	48 89 85 a0 f8 ff ff 	mov    %rax,-0x760(%rbp)
    9ccb:	48 8d 05 d6 e6 00 00 	lea    0xe6d6(%rip),%rax        # 183a8 <g_525>
    9cd2:	48 89 85 a8 f8 ff ff 	mov    %rax,-0x758(%rbp)
    9cd9:	48 8d 05 c8 e6 00 00 	lea    0xe6c8(%rip),%rax        # 183a8 <g_525>
    9ce0:	48 89 85 b0 f8 ff ff 	mov    %rax,-0x750(%rbp)
    9ce7:	48 8d 05 ba e6 00 00 	lea    0xe6ba(%rip),%rax        # 183a8 <g_525>
    9cee:	48 89 85 b8 f8 ff ff 	mov    %rax,-0x748(%rbp)
    9cf5:	48 8d 05 ac e6 00 00 	lea    0xe6ac(%rip),%rax        # 183a8 <g_525>
    9cfc:	48 89 85 c0 f8 ff ff 	mov    %rax,-0x740(%rbp)
    9d03:	48 8d 05 9e e6 00 00 	lea    0xe69e(%rip),%rax        # 183a8 <g_525>
    9d0a:	48 89 85 c8 f8 ff ff 	mov    %rax,-0x738(%rbp)
    9d11:	48 8d 05 90 e6 00 00 	lea    0xe690(%rip),%rax        # 183a8 <g_525>
    9d18:	48 89 85 d0 f8 ff ff 	mov    %rax,-0x730(%rbp)
    9d1f:	48 8d 05 82 e6 00 00 	lea    0xe682(%rip),%rax        # 183a8 <g_525>
    9d26:	48 89 85 d8 f8 ff ff 	mov    %rax,-0x728(%rbp)
    9d2d:	48 8d 05 74 e6 00 00 	lea    0xe674(%rip),%rax        # 183a8 <g_525>
    9d34:	48 89 85 e0 f8 ff ff 	mov    %rax,-0x720(%rbp)
    9d3b:	48 8d 05 66 e6 00 00 	lea    0xe666(%rip),%rax        # 183a8 <g_525>
    9d42:	48 89 85 e8 f8 ff ff 	mov    %rax,-0x718(%rbp)
    9d49:	48 8d 05 58 e6 00 00 	lea    0xe658(%rip),%rax        # 183a8 <g_525>
    9d50:	48 89 85 f0 f8 ff ff 	mov    %rax,-0x710(%rbp)
    9d57:	48 8d 05 4a e6 00 00 	lea    0xe64a(%rip),%rax        # 183a8 <g_525>
    9d5e:	48 89 85 f8 f8 ff ff 	mov    %rax,-0x708(%rbp)
    9d65:	48 8d 05 3c e6 00 00 	lea    0xe63c(%rip),%rax        # 183a8 <g_525>
    9d6c:	48 89 85 00 f9 ff ff 	mov    %rax,-0x700(%rbp)
    9d73:	48 8d 05 2e e6 00 00 	lea    0xe62e(%rip),%rax        # 183a8 <g_525>
    9d7a:	48 89 85 08 f9 ff ff 	mov    %rax,-0x6f8(%rbp)
    9d81:	48 8d 05 20 e6 00 00 	lea    0xe620(%rip),%rax        # 183a8 <g_525>
    9d88:	48 89 85 10 f9 ff ff 	mov    %rax,-0x6f0(%rbp)
    9d8f:	48 8d 05 12 e6 00 00 	lea    0xe612(%rip),%rax        # 183a8 <g_525>
    9d96:	48 89 85 18 f9 ff ff 	mov    %rax,-0x6e8(%rbp)
    9d9d:	48 8d 05 04 e6 00 00 	lea    0xe604(%rip),%rax        # 183a8 <g_525>
    9da4:	48 89 85 20 f9 ff ff 	mov    %rax,-0x6e0(%rbp)
    9dab:	48 8d 05 f6 e5 00 00 	lea    0xe5f6(%rip),%rax        # 183a8 <g_525>
    9db2:	48 89 85 28 f9 ff ff 	mov    %rax,-0x6d8(%rbp)
    9db9:	48 8d 05 e8 e5 00 00 	lea    0xe5e8(%rip),%rax        # 183a8 <g_525>
    9dc0:	48 89 85 30 f9 ff ff 	mov    %rax,-0x6d0(%rbp)
    9dc7:	48 8d 05 da e5 00 00 	lea    0xe5da(%rip),%rax        # 183a8 <g_525>
    9dce:	48 89 85 38 f9 ff ff 	mov    %rax,-0x6c8(%rbp)
    9dd5:	48 8d 05 cc e5 00 00 	lea    0xe5cc(%rip),%rax        # 183a8 <g_525>
    9ddc:	48 89 85 40 f9 ff ff 	mov    %rax,-0x6c0(%rbp)
    9de3:	48 8d 05 be e5 00 00 	lea    0xe5be(%rip),%rax        # 183a8 <g_525>
    9dea:	48 89 85 48 f9 ff ff 	mov    %rax,-0x6b8(%rbp)
    9df1:	48 8d 05 b0 e5 00 00 	lea    0xe5b0(%rip),%rax        # 183a8 <g_525>
    9df8:	48 89 85 50 f9 ff ff 	mov    %rax,-0x6b0(%rbp)
    9dff:	48 c7 85 40 f7 ff ff 	movq   $0x1,-0x8c0(%rbp)
    9e06:	01 00 00 00 
    9e0a:	48 c7 85 48 f7 ff ff 	movq   $0x0,-0x8b8(%rbp)
    9e11:	00 00 00 00 
    9e15:	48 8d 05 d4 c2 00 00 	lea    0xc2d4(%rip),%rax        # 160f0 <g_261>
    9e1c:	48 89 85 50 f7 ff ff 	mov    %rax,-0x8b0(%rbp)
    9e23:	48 8d 05 4e c5 00 00 	lea    0xc54e(%rip),%rax        # 16378 <g_1319>
    9e2a:	48 89 85 58 f7 ff ff 	mov    %rax,-0x8a8(%rbp)
    9e31:	48 8d 05 a8 c4 00 00 	lea    0xc4a8(%rip),%rax        # 162e0 <g_1107>
    9e38:	48 89 85 60 f7 ff ff 	mov    %rax,-0x8a0(%rbp)
    9e3f:	48 8d 85 f0 fc ff ff 	lea    -0x310(%rbp),%rax
    9e46:	48 8d 15 53 c8 00 00 	lea    0xc853(%rip),%rdx        # 166a0 <g_1797+0x2a8>
    9e4d:	b9 60 00 00 00       	mov    $0x60,%ecx
    9e52:	48 89 c7             	mov    %rax,%rdi
    9e55:	48 89 d6             	mov    %rdx,%rsi
    9e58:	f3 48 a5             	rep movsq %ds:(%rsi),%es:(%rdi)
    9e5b:	48 8d 85 5c f6 ff ff 	lea    -0x9a4(%rbp),%rax
    9e62:	48 89 85 68 f7 ff ff 	mov    %rax,-0x898(%rbp)
    9e69:	c7 45 f1 e6 e6 e6 e6 	movl   $0xe6e6e6e6,-0xf(%rbp)
    9e70:	66 c7 45 f5 e6 e6    	movw   $0xe6e6,-0xb(%rbp)
    9e76:	c6 45 f7 e6          	movb   $0xe6,-0x9(%rbp)
    9e7a:	48 8d 85 70 f6 ff ff 	lea    -0x990(%rbp),%rax
    9e81:	48 89 85 10 f8 ff ff 	mov    %rax,-0x7f0(%rbp)
    9e88:	48 8d 85 70 f6 ff ff 	lea    -0x990(%rbp),%rax
    9e8f:	48 89 85 18 f8 ff ff 	mov    %rax,-0x7e8(%rbp)
    9e96:	48 8d 05 a7 c1 00 00 	lea    0xc1a7(%rip),%rax        # 16044 <g_13>
    9e9d:	48 89 85 20 f8 ff ff 	mov    %rax,-0x7e0(%rbp)
    9ea4:	48 8d 85 70 f6 ff ff 	lea    -0x990(%rbp),%rax
    9eab:	48 89 85 28 f8 ff ff 	mov    %rax,-0x7d8(%rbp)
    9eb2:	48 8d 85 70 f6 ff ff 	lea    -0x990(%rbp),%rax
    9eb9:	48 89 85 30 f8 ff ff 	mov    %rax,-0x7d0(%rbp)
    9ec0:	48 8d 05 7d c1 00 00 	lea    0xc17d(%rip),%rax        # 16044 <g_13>
    9ec7:	48 89 85 38 f8 ff ff 	mov    %rax,-0x7c8(%rbp)
    9ece:	48 8d 05 db e3 00 00 	lea    0xe3db(%rip),%rax        # 182b0 <g_128>
    9ed5:	48 89 85 e0 f7 ff ff 	mov    %rax,-0x820(%rbp)
    9edc:	48 8d 05 cd e3 00 00 	lea    0xe3cd(%rip),%rax        # 182b0 <g_128>
    9ee3:	48 89 85 e8 f7 ff ff 	mov    %rax,-0x818(%rbp)
    9eea:	48 8d 05 bf e3 00 00 	lea    0xe3bf(%rip),%rax        # 182b0 <g_128>
    9ef1:	48 89 85 f0 f7 ff ff 	mov    %rax,-0x810(%rbp)
    9ef8:	48 8d 05 b1 e3 00 00 	lea    0xe3b1(%rip),%rax        # 182b0 <g_128>
    9eff:	48 89 85 f8 f7 ff ff 	mov    %rax,-0x808(%rbp)
    9f06:	48 8d 05 a3 e3 00 00 	lea    0xe3a3(%rip),%rax        # 182b0 <g_128>
    9f0d:	48 89 85 00 f8 ff ff 	mov    %rax,-0x800(%rbp)
    9f14:	c7 85 a4 f6 ff ff 86 	movl   $0xf2bd0686,-0x95c(%rbp)
    9f1b:	06 bd f2 
    9f1e:	8b 05 20 c1 00 00    	mov    0xc120(%rip),%eax        # 16044 <g_13>
    9f24:	0f be c0             	movsbl %al,%eax
    9f27:	be 07 00 00 00       	mov    $0x7,%esi
    9f2c:	89 c7                	mov    %eax,%edi
    9f2e:	e8 bf e2 ff ff       	callq  81f2 <safe_sub_func_int8_t_s_s>
    9f33:	0f be c0             	movsbl %al,%eax
    9f36:	89 05 08 c1 00 00    	mov    %eax,0xc108(%rip)        # 16044 <g_13>
    9f3c:	8b 05 02 c1 00 00    	mov    0xc102(%rip),%eax        # 16044 <g_13>
    9f42:	83 f8 f8             	cmp    $0xfffffff8,%eax
    9f45:	0f 8c 0c fd ff ff    	jl     9c57 <func_1+0x4a2>
    9f4b:	8b 05 d7 c0 00 00    	mov    0xc0d7(%rip),%eax        # 16028 <g_8>
    9f51:	be 05 00 00 00       	mov    $0x5,%esi
    9f56:	89 c7                	mov    %eax,%edi
    9f58:	e8 73 ef ff ff       	callq  8ed0 <safe_sub_func_uint32_t_u_u>
    9f5d:	89 05 c5 c0 00 00    	mov    %eax,0xc0c5(%rip)        # 16028 <g_8>
    9f63:	8b 05 bf c0 00 00    	mov    0xc0bf(%rip),%eax        # 16028 <g_8>
    9f69:	83 f8 e3             	cmp    $0xffffffe3,%eax
    9f6c:	0f 8d e9 f9 ff ff    	jge    995b <func_1+0x1a6>
    9f72:	48 8b 05 77 f3 00 00 	mov    0xf377(%rip),%rax        # 192f0 <g_1665>
    9f79:	48 8b 00             	mov    (%rax),%rax
    9f7c:	48 8b 00             	mov    (%rax),%rax
    9f7f:	8b 00                	mov    (%rax),%eax
    9f81:	48 8b 4d f8          	mov    -0x8(%rbp),%rcx
    9f85:	64 48 33 0c 25 28 00 	xor    %fs:0x28,%rcx
    9f8c:	00 00 
    9f8e:	74 05                	je     9f95 <func_1+0x7e0>
    9f90:	e8 db e0 ff ff       	callq  8070 <__stack_chk_fail@plt>
    9f95:	c9                   	leaveq 
    9f96:	c3                   	retq   

0000000000009f97 <func_19>:
    9f97:	f3 0f 1e fa          	endbr64 
    9f9b:	55                   	push   %rbp
    9f9c:	48 89 e5             	mov    %rsp,%rbp
    9f9f:	48 81 ec 60 05 00 00 	sub    $0x560,%rsp
    9fa6:	48 89 bd b8 fa ff ff 	mov    %rdi,-0x548(%rbp)
    9fad:	48 89 b5 b0 fa ff ff 	mov    %rsi,-0x550(%rbp)
    9fb4:	89 95 ac fa ff ff    	mov    %edx,-0x554(%rbp)
    9fba:	89 8d a8 fa ff ff    	mov    %ecx,-0x558(%rbp)
    9fc0:	64 48 8b 04 25 28 00 	mov    %fs:0x28,%rax
    9fc7:	00 00 
    9fc9:	48 89 45 f8          	mov    %rax,-0x8(%rbp)
    9fcd:	31 c0                	xor    %eax,%eax
    9fcf:	c6 85 cb fa ff ff 01 	movb   $0x1,-0x535(%rbp)
    9fd6:	48 8d 05 df c0 00 00 	lea    0xc0df(%rip),%rax        # 160bc <g_82>
    9fdd:	48 89 85 d0 fa ff ff 	mov    %rax,-0x530(%rbp)
    9fe4:	48 8d 05 09 c3 00 00 	lea    0xc309(%rip),%rax        # 162f4 <g_1185>
    9feb:	48 89 85 d8 fa ff ff 	mov    %rax,-0x528(%rbp)
    9ff2:	48 8d 05 fb c2 00 00 	lea    0xc2fb(%rip),%rax        # 162f4 <g_1185>
    9ff9:	48 89 85 e0 fa ff ff 	mov    %rax,-0x520(%rbp)
    a000:	48 8d 05 ed c2 00 00 	lea    0xc2ed(%rip),%rax        # 162f4 <g_1185>
    a007:	48 89 85 e8 fa ff ff 	mov    %rax,-0x518(%rbp)
    a00e:	48 8d 85 f0 fa ff ff 	lea    -0x510(%rbp),%rax
    a015:	48 8d 15 84 c9 00 00 	lea    0xc984(%rip),%rdx        # 169a0 <g_1797+0x5a8>
    a01c:	b9 a0 00 00 00       	mov    $0xa0,%ecx
    a021:	48 89 c7             	mov    %rax,%rdi
    a024:	48 89 d6             	mov    %rdx,%rsi
    a027:	f3 48 a5             	rep movsq %ds:(%rsi),%es:(%rdi)
    a02a:	c7 85 cc fa ff ff 3b 	movl   $0xf670eb3b,-0x534(%rbp)
    a031:	eb 70 f6 
    a034:	83 85 cc fa ff ff 01 	addl   $0x1,-0x534(%rbp)
    a03b:	b8 00 00 00 00       	mov    $0x0,%eax
    a040:	48 25 00 00 c0 ff    	and    $0xffffffffffc00000,%rax
    a046:	48 0d ce db 29 00    	or     $0x29dbce,%rax
    a04c:	48 8b 55 f8          	mov    -0x8(%rbp),%rdx
    a050:	64 48 33 14 25 28 00 	xor    %fs:0x28,%rdx
    a057:	00 00 
    a059:	74 05                	je     a060 <func_19+0xc9>
    a05b:	e8 10 e0 ff ff       	callq  8070 <__stack_chk_fail@plt>
    a060:	c9                   	leaveq 
    a061:	c3                   	retq   

000000000000a062 <func_26>:
    a062:	f3 0f 1e fa          	endbr64 
    a066:	55                   	push   %rbp
    a067:	48 89 e5             	mov    %rsp,%rbp
    a06a:	41 56                	push   %r14
    a06c:	41 55                	push   %r13
    a06e:	41 54                	push   %r12
    a070:	53                   	push   %rbx
    a071:	48 81 ec 00 10 00 00 	sub    $0x1000,%rsp
    a078:	48 83 0c 24 00       	orq    $0x0,(%rsp)
    a07d:	48 81 ec b0 06 00 00 	sub    $0x6b0,%rsp
    a084:	48 89 bd 48 e9 ff ff 	mov    %rdi,-0x16b8(%rbp)
    a08b:	48 89 b5 40 e9 ff ff 	mov    %rsi,-0x16c0(%rbp)
    a092:	48 89 95 38 e9 ff ff 	mov    %rdx,-0x16c8(%rbp)
    a099:	64 48 8b 04 25 28 00 	mov    %fs:0x28,%rax
    a0a0:	00 00 
    a0a2:	48 89 45 d8          	mov    %rax,-0x28(%rbp)
    a0a6:	31 c0                	xor    %eax,%eax
    a0a8:	c7 85 64 e9 ff ff 4c 	movl   $0xf7df524c,-0x169c(%rbp)
    a0af:	52 df f7 
    a0b2:	c7 85 e0 eb ff ff 61 	movl   $0xac71d761,-0x1420(%rbp)
    a0b9:	d7 71 ac 
    a0bc:	c7 85 e4 eb ff ff fd 	movl   $0xfffffffd,-0x141c(%rbp)
    a0c3:	ff ff ff 
    a0c6:	c7 85 e8 eb ff ff 58 	movl   $0xd9b80a58,-0x1418(%rbp)
    a0cd:	0a b8 d9 
    a0d0:	c7 85 ec eb ff ff fd 	movl   $0xfffffffd,-0x1414(%rbp)
    a0d7:	ff ff ff 
    a0da:	c7 85 f0 eb ff ff 61 	movl   $0xac71d761,-0x1410(%rbp)
    a0e1:	d7 71 ac 
    a0e4:	c7 85 f4 eb ff ff 58 	movl   $0xd9b80a58,-0x140c(%rbp)
    a0eb:	0a b8 d9 
    a0ee:	c7 85 f8 eb ff ff 06 	movl   $0x6,-0x1408(%rbp)
    a0f5:	00 00 00 
    a0f8:	c7 85 fc eb ff ff 06 	movl   $0x6,-0x1404(%rbp)
    a0ff:	00 00 00 
    a102:	c7 85 00 ec ff ff 06 	movl   $0x6,-0x1400(%rbp)
    a109:	00 00 00 
    a10c:	c7 85 04 ec ff ff 58 	movl   $0xd9b80a58,-0x13fc(%rbp)
    a113:	0a b8 d9 
    a116:	c7 85 68 e9 ff ff fd 	movl   $0xfffffffd,-0x1698(%rbp)
    a11d:	ff ff ff 
    a120:	48 c7 85 48 ea ff ff 	movq   $0x0,-0x15b8(%rbp)
    a127:	00 00 00 00 
    a12b:	c7 85 a0 eb ff ff 54 	movl   $0xefb24e54,-0x1460(%rbp)
    a132:	4e b2 ef 
    a135:	c7 85 a4 eb ff ff 00 	movl   $0x0,-0x145c(%rbp)
    a13c:	00 00 00 
    a13f:	c7 85 a8 eb ff ff 54 	movl   $0xefb24e54,-0x1458(%rbp)
    a146:	4e b2 ef 
    a149:	c7 85 ac eb ff ff 00 	movl   $0x0,-0x1454(%rbp)
    a150:	00 00 00 
    a153:	c7 85 b0 eb ff ff 54 	movl   $0xefb24e54,-0x1450(%rbp)
    a15a:	4e b2 ef 
    a15d:	c7 85 b4 eb ff ff 00 	movl   $0x0,-0x144c(%rbp)
    a164:	00 00 00 
    a167:	c7 85 b8 eb ff ff 54 	movl   $0xefb24e54,-0x1448(%rbp)
    a16e:	4e b2 ef 
    a171:	c7 85 bc eb ff ff 00 	movl   $0x0,-0x1444(%rbp)
    a178:	00 00 00 
    a17b:	c6 85 57 e9 ff ff cd 	movb   $0xcd,-0x16a9(%rbp)
    a182:	48 8d 05 47 bf 00 00 	lea    0xbf47(%rip),%rax        # 160d0 <g_157>
    a189:	48 89 85 50 ea ff ff 	mov    %rax,-0x15b0(%rbp)
    a190:	48 c7 85 00 ea ff ff 	movq   $0x0,-0x1600(%rbp)
    a197:	00 00 00 00 
    a19b:	48 8d 85 00 ea ff ff 	lea    -0x1600(%rbp),%rax
    a1a2:	48 89 85 08 ea ff ff 	mov    %rax,-0x15f8(%rbp)
    a1a9:	48 8d 05 14 bf 00 00 	lea    0xbf14(%rip),%rax        # 160c4 <g_119>
    a1b0:	48 89 85 10 ea ff ff 	mov    %rax,-0x15f0(%rbp)
    a1b7:	48 8d 85 10 ea ff ff 	lea    -0x15f0(%rbp),%rax
    a1be:	48 89 85 58 ea ff ff 	mov    %rax,-0x15a8(%rbp)
    a1c5:	48 8d 05 64 e0 00 00 	lea    0xe064(%rip),%rax        # 18230 <g_25>
    a1cc:	48 89 85 18 ea ff ff 	mov    %rax,-0x15e8(%rbp)
    a1d3:	48 8d 05 56 e0 00 00 	lea    0xe056(%rip),%rax        # 18230 <g_25>
    a1da:	48 89 85 60 ea ff ff 	mov    %rax,-0x15a0(%rbp)
    a1e1:	66 c7 85 5e e9 ff ff 	movw   $0xe4cf,-0x16a2(%rbp)
    a1e8:	cf e4 
    a1ea:	48 b8 6d 0e a0 37 71 	movabs $0x5ad04c7137a00e6d,%rax
    a1f1:	4c d0 5a 
    a1f4:	48 89 85 60 ec ff ff 	mov    %rax,-0x13a0(%rbp)
    a1fb:	48 c7 85 68 ec ff ff 	movq   $0x8,-0x1398(%rbp)
    a202:	08 00 00 00 
    a206:	48 c7 85 70 ec ff ff 	movq   $0x1,-0x1390(%rbp)
    a20d:	01 00 00 00 
    a211:	48 c7 85 78 ec ff ff 	movq   $0x8,-0x1388(%rbp)
    a218:	08 00 00 00 
    a21c:	48 89 85 80 ec ff ff 	mov    %rax,-0x1380(%rbp)
    a223:	48 c7 85 88 ec ff ff 	movq   $0x8,-0x1378(%rbp)
    a22a:	08 00 00 00 
    a22e:	48 c7 85 90 ec ff ff 	movq   $0x1,-0x1370(%rbp)
    a235:	01 00 00 00 
    a239:	48 c7 85 98 ec ff ff 	movq   $0x8,-0x1368(%rbp)
    a240:	08 00 00 00 
    a244:	48 89 85 a0 ec ff ff 	mov    %rax,-0x1360(%rbp)
    a24b:	48 c7 85 a8 ec ff ff 	movq   $0x8,-0x1358(%rbp)
    a252:	08 00 00 00 
    a256:	48 c7 85 b0 ec ff ff 	movq   $0x1,-0x1350(%rbp)
    a25d:	01 00 00 00 
    a261:	48 c7 85 b8 ec ff ff 	movq   $0x8,-0x1348(%rbp)
    a268:	08 00 00 00 
    a26c:	48 89 85 c0 ec ff ff 	mov    %rax,-0x1340(%rbp)
    a273:	48 c7 85 c8 ec ff ff 	movq   $0x8,-0x1338(%rbp)
    a27a:	08 00 00 00 
    a27e:	48 c7 85 d0 ec ff ff 	movq   $0x1,-0x1330(%rbp)
    a285:	01 00 00 00 
    a289:	48 c7 85 d8 ec ff ff 	movq   $0x8,-0x1328(%rbp)
    a290:	08 00 00 00 
    a294:	48 89 85 e0 ec ff ff 	mov    %rax,-0x1320(%rbp)
    a29b:	48 c7 85 e8 ec ff ff 	movq   $0x8,-0x1318(%rbp)
    a2a2:	08 00 00 00 
    a2a6:	48 c7 85 f0 ec ff ff 	movq   $0x1,-0x1310(%rbp)
    a2ad:	01 00 00 00 
    a2b1:	48 c7 85 f8 ec ff ff 	movq   $0x8,-0x1308(%rbp)
    a2b8:	08 00 00 00 
    a2bc:	48 89 85 00 ed ff ff 	mov    %rax,-0x1300(%rbp)
    a2c3:	48 c7 85 08 ed ff ff 	movq   $0x8,-0x12f8(%rbp)
    a2ca:	08 00 00 00 
    a2ce:	48 c7 85 10 ed ff ff 	movq   $0x1,-0x12f0(%rbp)
    a2d5:	01 00 00 00 
    a2d9:	48 c7 85 18 ed ff ff 	movq   $0x8,-0x12e8(%rbp)
    a2e0:	08 00 00 00 
    a2e4:	48 89 85 20 ed ff ff 	mov    %rax,-0x12e0(%rbp)
    a2eb:	48 8d 85 90 f1 ff ff 	lea    -0xe70(%rbp),%rax
    a2f2:	48 8d 15 a7 cb 00 00 	lea    0xcba7(%rip),%rdx        # 16ea0 <g_1797+0xaa8>
    a2f9:	b9 d8 00 00 00       	mov    $0xd8,%ecx
    a2fe:	48 89 c7             	mov    %rax,%rdi
    a301:	48 89 d6             	mov    %rdx,%rsi
    a304:	f3 48 a5             	rep movsq %ds:(%rsi),%es:(%rdi)
    a307:	c6 85 56 e9 ff ff 46 	movb   $0x46,-0x16aa(%rbp)
    a30e:	48 b8 c0 eb 61 37 b4 	movabs $0x3552fab43761ebc0,%rax
    a315:	fa 52 35 
    a318:	48 89 85 40 ea ff ff 	mov    %rax,-0x15c0(%rbp)
    a31f:	48 c7 85 68 ea ff ff 	movq   $0x0,-0x1598(%rbp)
    a326:	00 00 00 00 
    a32a:	48 8d 05 9f e0 00 00 	lea    0xe09f(%rip),%rax        # 183d0 <g_598>
    a331:	48 89 85 70 ea ff ff 	mov    %rax,-0x1590(%rbp)
    a338:	c7 85 6c e9 ff ff d9 	movl   $0xb67e45d9,-0x1694(%rbp)
    a33f:	45 7e b6 
    a342:	c7 85 a0 e9 ff ff 27 	movl   $0x40365d27,-0x1660(%rbp)
    a349:	5d 36 40 
    a34c:	c6 85 58 e9 ff ff 29 	movb   $0x29,-0x16a8(%rbp)
    a353:	c7 05 5f be 00 00 ea 	movl   $0xffffffea,0xbe5f(%rip)        # 161bc <g_417>
    a35a:	ff ff ff 
    a35d:	e9 1a 01 00 00       	jmpq   a47c <func_26+0x41a>
    a362:	c6 85 5d e9 ff ff b6 	movb   $0xb6,-0x16a3(%rbp)
    a369:	48 c7 85 38 ea ff ff 	movq   $0x0,-0x15c8(%rbp)
    a370:	00 00 00 00 
    a374:	48 8d 85 38 ea ff ff 	lea    -0x15c8(%rbp),%rax
    a37b:	48 89 85 70 eb ff ff 	mov    %rax,-0x1490(%rbp)
    a382:	c7 85 80 e9 ff ff 00 	movl   $0x0,-0x1680(%rbp)
    a389:	00 00 00 
    a38c:	eb 1e                	jmp    a3ac <func_26+0x34a>
    a38e:	8b 85 80 e9 ff ff    	mov    -0x1680(%rbp),%eax
    a394:	48 98                	cltq   
    a396:	48 8d 15 1f bd 00 00 	lea    0xbd1f(%rip),%rdx        # 160bc <g_82>
    a39d:	48 89 94 c5 50 f8 ff 	mov    %rdx,-0x7b0(%rbp,%rax,8)
    a3a4:	ff 
    a3a5:	83 85 80 e9 ff ff 01 	addl   $0x1,-0x1680(%rbp)
    a3ac:	83 bd 80 e9 ff ff 02 	cmpl   $0x2,-0x1680(%rbp)
    a3b3:	7e d9                	jle    a38e <func_26+0x32c>
    a3b5:	c7 85 68 e9 ff ff 00 	movl   $0x0,-0x1698(%rbp)
    a3bc:	00 00 00 
    a3bf:	0f be 85 5d e9 ff ff 	movsbl -0x16a3(%rbp),%eax
    a3c6:	be 00 00 00 00       	mov    $0x0,%esi
    a3cb:	89 c7                	mov    %eax,%edi
    a3cd:	e8 0f e1 ff ff       	callq  84e1 <safe_lshift_func_int16_t_s_u>
    a3d2:	98                   	cwtl   
    a3d3:	be 93 a8 70 38       	mov    $0x3870a893,%esi
    a3d8:	89 c7                	mov    %eax,%edi
    a3da:	e8 d7 e1 ff ff       	callq  85b6 <safe_add_func_int32_t_s_s>
    a3df:	48 8d 05 82 e1 00 00 	lea    0xe182(%rip),%rax        # 18568 <g_715>
    a3e6:	48 8b 00             	mov    (%rax),%rax
    a3e9:	48 8b 00             	mov    (%rax),%rax
    a3ec:	48 85 c0             	test   %rax,%rax
    a3ef:	74 07                	je     a3f8 <func_26+0x396>
    a3f1:	b8 01 00 00 00       	mov    $0x1,%eax
    a3f6:	eb 05                	jmp    a3fd <func_26+0x39b>
    a3f8:	b8 00 00 00 00       	mov    $0x0,%eax
    a3fd:	0f bf d8             	movswl %ax,%ebx
    a400:	0f b6 05 51 be 00 00 	movzbl 0xbe51(%rip),%eax        # 16258 <g_468+0x98>
    a407:	44 0f be e0          	movsbl %al,%r12d
    a40b:	8b 85 64 e9 ff ff    	mov    -0x169c(%rbp),%eax
    a411:	85 c0                	test   %eax,%eax
    a413:	0f 94 c0             	sete   %al
    a416:	0f b6 d0             	movzbl %al,%edx
    a419:	48 8b 05 48 e1 00 00 	mov    0xe148(%rip),%rax        # 18568 <g_715>
    a420:	48 8b 00             	mov    (%rax),%rax
    a423:	48 39 c2             	cmp    %rax,%rdx
    a426:	0f 94 c0             	sete   %al
    a429:	0f b6 c0             	movzbl %al,%eax
    a42c:	89 c6                	mov    %eax,%esi
    a42e:	bf ee d8 86 68       	mov    $0x6886d8ee,%edi
    a433:	e8 80 ea ff ff       	callq  8eb8 <safe_add_func_uint32_t_u_u>
    a438:	41 39 c4             	cmp    %eax,%r12d
    a43b:	0f 93 c0             	setae  %al
    a43e:	0f b6 c0             	movzbl %al,%eax
    a441:	89 85 f8 eb ff ff    	mov    %eax,-0x1408(%rbp)
    a447:	8b 85 f8 eb ff ff    	mov    -0x1408(%rbp),%eax
    a44d:	98                   	cwtl   
    a44e:	89 de                	mov    %ebx,%esi
    a450:	89 c7                	mov    %eax,%edi
    a452:	e8 9e df ff ff       	callq  83f5 <safe_mul_func_int16_t_s_s>
    a457:	98                   	cwtl   
    a458:	ba 00 00 00 00       	mov    $0x0,%edx
    a45d:	31 c2                	xor    %eax,%edx
    a45f:	8b 85 a0 eb ff ff    	mov    -0x1460(%rbp),%eax
    a465:	21 d0                	and    %edx,%eax
    a467:	89 85 a0 eb ff ff    	mov    %eax,-0x1460(%rbp)
    a46d:	8b 05 49 bd 00 00    	mov    0xbd49(%rip),%eax        # 161bc <g_417>
    a473:	83 c0 01             	add    $0x1,%eax
    a476:	89 05 40 bd 00 00    	mov    %eax,0xbd40(%rip)        # 161bc <g_417>
    a47c:	8b 05 3a bd 00 00    	mov    0xbd3a(%rip),%eax        # 161bc <g_417>
    a482:	83 f8 f3             	cmp    $0xfffffff3,%eax
    a485:	0f 8c d7 fe ff ff    	jl     a362 <func_26+0x300>
    a48b:	c6 05 5e bc 00 00 00 	movb   $0x0,0xbc5e(%rip)        # 160f0 <g_261>
    a492:	e9 86 02 00 00       	jmpq   a71d <func_26+0x6bb>
    a497:	c7 85 f8 e9 ff ff 01 	movl   $0x1,-0x1608(%rbp)
    a49e:	00 00 00 
    a4a1:	48 8d 85 64 e9 ff ff 	lea    -0x169c(%rbp),%rax
    a4a8:	48 89 85 50 eb ff ff 	mov    %rax,-0x14b0(%rbp)
    a4af:	48 8d 05 22 bc 00 00 	lea    0xbc22(%rip),%rax        # 160d8 <g_168>
    a4b6:	48 89 85 58 eb ff ff 	mov    %rax,-0x14a8(%rbp)
    a4bd:	48 8d 05 fc bb 00 00 	lea    0xbbfc(%rip),%rax        # 160c0 <g_88>
    a4c4:	48 89 85 60 eb ff ff 	mov    %rax,-0x14a0(%rbp)
    a4cb:	48 8d 05 fe bb 00 00 	lea    0xbbfe(%rip),%rax        # 160d0 <g_157>
    a4d2:	48 89 85 68 eb ff ff 	mov    %rax,-0x1498(%rbp)
    a4d9:	c7 85 fc e9 ff ff 06 	movl   $0x6,-0x1604(%rbp)
    a4e0:	00 00 00 
    a4e3:	48 8d 85 50 f8 ff ff 	lea    -0x7b0(%rbp),%rax
    a4ea:	48 8d 15 cf 7d 00 00 	lea    0x7dcf(%rip),%rdx        # 122c0 <g_1362+0x108>
    a4f1:	b9 79 00 00 00       	mov    $0x79,%ecx
    a4f6:	48 89 c7             	mov    %rax,%rdi
    a4f9:	48 89 d6             	mov    %rdx,%rsi
    a4fc:	f3 48 a5             	rep movsq %ds:(%rsi),%es:(%rdi)
    a4ff:	48 89 f2             	mov    %rsi,%rdx
    a502:	48 89 f8             	mov    %rdi,%rax
    a505:	8b 0a                	mov    (%rdx),%ecx
    a507:	89 08                	mov    %ecx,(%rax)
    a509:	48 8d 40 04          	lea    0x4(%rax),%rax
    a50d:	48 8d 52 04          	lea    0x4(%rdx),%rdx
    a511:	c7 85 84 e9 ff ff 00 	movl   $0x0,-0x167c(%rbp)
    a518:	00 00 00 
    a51b:	eb 19                	jmp    a536 <func_26+0x4d4>
    a51d:	8b 85 84 e9 ff ff    	mov    -0x167c(%rbp),%eax
    a523:	48 98                	cltq   
    a525:	66 c7 84 45 30 ed ff 	movw   $0x43e2,-0x12d0(%rbp,%rax,2)
    a52c:	ff e2 43 
    a52f:	83 85 84 e9 ff ff 01 	addl   $0x1,-0x167c(%rbp)
    a536:	83 bd 84 e9 ff ff 05 	cmpl   $0x5,-0x167c(%rbp)
    a53d:	7e de                	jle    a51d <func_26+0x4bb>
    a53f:	c7 85 84 e9 ff ff 00 	movl   $0x0,-0x167c(%rbp)
    a546:	00 00 00 
    a549:	eb 22                	jmp    a56d <func_26+0x50b>
    a54b:	8b 85 84 e9 ff ff    	mov    -0x167c(%rbp),%eax
    a551:	48 98                	cltq   
    a553:	48 8d 95 30 ed ff ff 	lea    -0x12d0(%rbp),%rdx
    a55a:	48 83 c2 0a          	add    $0xa,%rdx
    a55e:	48 89 94 c5 70 ee ff 	mov    %rdx,-0x1190(%rbp,%rax,8)
    a565:	ff 
    a566:	83 85 84 e9 ff ff 01 	addl   $0x1,-0x167c(%rbp)
    a56d:	83 bd 84 e9 ff ff 02 	cmpl   $0x2,-0x167c(%rbp)
    a574:	7e d5                	jle    a54b <func_26+0x4e9>
    a576:	0f b7 85 3a ed ff ff 	movzwl -0x12c6(%rbp),%eax
    a57d:	83 e8 01             	sub    $0x1,%eax
    a580:	66 89 85 3a ed ff ff 	mov    %ax,-0x12c6(%rbp)
    a587:	48 8b 05 0a e0 00 00 	mov    0xe00a(%rip),%rax        # 18598 <g_949>
    a58e:	48 8d 15 13 bc 00 00 	lea    0xbc13(%rip),%rdx        # 161a8 <g_327>
    a595:	48 89 10             	mov    %rdx,(%rax)
    a598:	0f b6 85 57 e9 ff ff 	movzbl -0x16a9(%rbp),%eax
    a59f:	89 85 f8 e9 ff ff    	mov    %eax,-0x1608(%rbp)
    a5a5:	0f b6 05 44 bb 00 00 	movzbl 0xbb44(%rip),%eax        # 160f0 <g_261>
    a5ac:	0f be c0             	movsbl %al,%eax
    a5af:	39 85 f8 e9 ff ff    	cmp    %eax,-0x1608(%rbp)
    a5b5:	0f 9f c0             	setg   %al
    a5b8:	44 0f b6 e8          	movzbl %al,%r13d
    a5bc:	48 8b 05 ad dc 00 00 	mov    0xdcad(%rip),%rax        # 18270 <g_51>
    a5c3:	0f b6 00             	movzbl (%rax),%eax
    a5c6:	0f b6 d8             	movzbl %al,%ebx
    a5c9:	48 8b 85 38 e9 ff ff 	mov    -0x16c8(%rbp),%rax
    a5d0:	0f b6 00             	movzbl (%rax),%eax
    a5d3:	44 0f be e0          	movsbl %al,%r12d
    a5d7:	be 01 00 00 00       	mov    $0x1,%esi
    a5dc:	bf 00 00 00 00       	mov    $0x0,%edi
    a5e1:	e8 a7 e6 ff ff       	callq  8c8d <safe_rshift_func_uint8_t_u_s>
    a5e6:	0f be c0             	movsbl %al,%eax
    a5e9:	44 89 e6             	mov    %r12d,%esi
    a5ec:	89 c7                	mov    %eax,%edi
    a5ee:	e8 1f dc ff ff       	callq  8212 <safe_mul_func_int8_t_s_s>
    a5f3:	66 98                	cbtw   
    a5f5:	0f b7 c0             	movzwl %ax,%eax
    a5f8:	89 c7                	mov    %eax,%edi
    a5fa:	e8 ea e6 ff ff       	callq  8ce9 <safe_unary_minus_func_uint16_t_u>
    a5ff:	0f b6 c0             	movzbl %al,%eax
    a602:	89 de                	mov    %ebx,%esi
    a604:	89 c7                	mov    %eax,%edi
    a606:	e8 6d e5 ff ff       	callq  8b78 <safe_sub_func_uint8_t_u_u>
    a60b:	0f be d0             	movsbl %al,%edx
    a60e:	48 8b 85 68 eb ff ff 	mov    -0x1498(%rbp),%rax
    a615:	48 3b 85 50 ea ff ff 	cmp    -0x15b0(%rbp),%rax
    a61c:	0f 94 c0             	sete   %al
    a61f:	0f b6 c0             	movzbl %al,%eax
    a622:	89 d6                	mov    %edx,%esi
    a624:	89 c7                	mov    %eax,%edi
    a626:	e8 e7 db ff ff       	callq  8212 <safe_mul_func_int8_t_s_s>
    a62b:	0f be c0             	movsbl %al,%eax
    a62e:	89 85 fc e9 ff ff    	mov    %eax,-0x1604(%rbp)
    a634:	48 8b 85 58 eb ff ff 	mov    -0x14a8(%rbp),%rax
    a63b:	0f b6 00             	movzbl (%rax),%eax
    a63e:	8d 50 ff             	lea    -0x1(%rax),%edx
    a641:	48 8b 85 58 eb ff ff 	mov    -0x14a8(%rbp),%rax
    a648:	88 10                	mov    %dl,(%rax)
    a64a:	48 8b 85 58 eb ff ff 	mov    -0x14a8(%rbp),%rax
    a651:	0f b6 10             	movzbl (%rax),%edx
    a654:	48 8b 85 60 eb ff ff 	mov    -0x14a0(%rbp),%rax
    a65b:	88 10                	mov    %dl,(%rax)
    a65d:	c7 85 60 f9 ff ff 01 	movl   $0x1,-0x6a0(%rbp)
    a664:	00 00 00 
    a667:	8b 95 60 f9 ff ff    	mov    -0x6a0(%rbp),%edx
    a66d:	48 8b 85 38 e9 ff ff 	mov    -0x16c8(%rbp),%rax
    a674:	0f b6 00             	movzbl (%rax),%eax
    a677:	0f be c0             	movsbl %al,%eax
    a67a:	31 c2                	xor    %eax,%edx
    a67c:	8b 85 ac eb ff ff    	mov    -0x1454(%rbp),%eax
    a682:	39 c2                	cmp    %eax,%edx
    a684:	0f 9d c0             	setge  %al
    a687:	0f b6 d8             	movzbl %al,%ebx
    a68a:	48 8b 85 50 eb ff ff 	mov    -0x14b0(%rbp),%rax
    a691:	8b 00                	mov    (%rax),%eax
    a693:	8d 48 ff             	lea    -0x1(%rax),%ecx
    a696:	48 8b 95 50 eb ff ff 	mov    -0x14b0(%rbp),%rdx
    a69d:	89 0a                	mov    %ecx,(%rdx)
    a69f:	89 c7                	mov    %eax,%edi
    a6a1:	e8 00 e8 ff ff       	callq  8ea6 <safe_unary_minus_func_uint32_t_u>
    a6a6:	89 c0                	mov    %eax,%eax
    a6a8:	48 89 de             	mov    %rbx,%rsi
    a6ab:	48 89 c7             	mov    %rax,%rdi
    a6ae:	e8 98 e9 ff ff       	callq  904b <safe_sub_func_uint64_t_u_u>
    a6b3:	48 8b 95 38 e9 ff ff 	mov    -0x16c8(%rbp),%rdx
    a6ba:	0f b6 12             	movzbl (%rdx),%edx
    a6bd:	48 0f be d2          	movsbq %dl,%rdx
    a6c1:	48 39 d0             	cmp    %rdx,%rax
    a6c4:	0f 97 c0             	seta   %al
    a6c7:	0f b6 c0             	movzbl %al,%eax
    a6ca:	be 05 00 00 00       	mov    $0x5,%esi
    a6cf:	89 c7                	mov    %eax,%edi
    a6d1:	e8 5f dc ff ff       	callq  8335 <safe_rshift_func_int8_t_s_s>
    a6d6:	0f be c0             	movsbl %al,%eax
    a6d9:	89 c6                	mov    %eax,%esi
    a6db:	bf ff ff 00 00       	mov    $0xffff,%edi
    a6e0:	e8 95 e7 ff ff       	callq  8e7a <safe_rshift_func_uint16_t_u_u>
    a6e5:	0f b7 c0             	movzwl %ax,%eax
    a6e8:	41 39 c5             	cmp    %eax,%r13d
    a6eb:	0f 94 c0             	sete   %al
    a6ee:	0f b6 d0             	movzbl %al,%edx
    a6f1:	8b 85 68 e9 ff ff    	mov    -0x1698(%rbp),%eax
    a6f7:	31 d0                	xor    %edx,%eax
    a6f9:	89 85 68 e9 ff ff    	mov    %eax,-0x1698(%rbp)
    a6ff:	0f b6 05 ea b9 00 00 	movzbl 0xb9ea(%rip),%eax        # 160f0 <g_261>
    a706:	48 0f be c0          	movsbq %al,%rax
    a70a:	be 01 00 00 00       	mov    $0x1,%esi
    a70f:	48 89 c7             	mov    %rax,%rdi
    a712:	e8 17 e9 ff ff       	callq  902e <safe_add_func_uint64_t_u_u>
    a717:	88 05 d3 b9 00 00    	mov    %al,0xb9d3(%rip)        # 160f0 <g_261>
    a71d:	0f b6 05 cc b9 00 00 	movzbl 0xb9cc(%rip),%eax        # 160f0 <g_261>
    a724:	3c 0a                	cmp    $0xa,%al
    a726:	0f 8f 6b fd ff ff    	jg     a497 <func_26+0x435>
    a72c:	c6 05 6d bb 00 00 00 	movb   $0x0,0xbb6d(%rip)        # 162a0 <g_704>
    a733:	e9 c6 21 00 00       	jmpq   c8fe <func_26+0x289c>
    a738:	48 8d 85 08 ea ff ff 	lea    -0x15f8(%rbp),%rax
    a73f:	48 89 85 78 ea ff ff 	mov    %rax,-0x1588(%rbp)
    a746:	c7 85 80 eb ff ff 05 	movl   $0xd7352c05,-0x1480(%rbp)
    a74d:	2c 35 d7 
    a750:	c7 85 84 eb ff ff 05 	movl   $0xd7352c05,-0x147c(%rbp)
    a757:	2c 35 d7 
    a75a:	c7 85 88 eb ff ff 05 	movl   $0xd7352c05,-0x1478(%rbp)
    a761:	2c 35 d7 
    a764:	c7 85 8c eb ff ff 05 	movl   $0xd7352c05,-0x1474(%rbp)
    a76b:	2c 35 d7 
    a76e:	48 8d 05 63 b9 00 00 	lea    0xb963(%rip),%rax        # 160d8 <g_168>
    a775:	48 89 85 20 ea ff ff 	mov    %rax,-0x15e0(%rbp)
    a77c:	c7 85 78 eb ff ff 01 	movl   $0x1,-0x1488(%rbp)
    a783:	00 00 00 
    a786:	c7 85 7c eb ff ff 01 	movl   $0x1,-0x1484(%rbp)
    a78d:	00 00 00 
    a790:	c7 85 70 e9 ff ff 36 	movl   $0x6ae55536,-0x1690(%rbp)
    a797:	55 e5 6a 
    a79a:	c7 85 88 e9 ff ff 01 	movl   $0x1,-0x1678(%rbp)
    a7a1:	00 00 00 
    a7a4:	c6 85 59 e9 ff ff 09 	movb   $0x9,-0x16a7(%rbp)
    a7ab:	8b 95 8c eb ff ff    	mov    -0x1474(%rbp),%edx
    a7b1:	48 8b 85 20 ea ff ff 	mov    -0x15e0(%rbp),%rax
    a7b8:	88 10                	mov    %dl,(%rax)
    a7ba:	0f b6 00             	movzbl (%rax),%eax
    a7bd:	0f be d0             	movsbl %al,%edx
    a7c0:	48 8b 8d 08 ea ff ff 	mov    -0x15f8(%rbp),%rcx
    a7c7:	48 8b 85 78 ea ff ff 	mov    -0x1588(%rbp),%rax
    a7ce:	48 89 08             	mov    %rcx,(%rax)
    a7d1:	48 8b 85 78 ea ff ff 	mov    -0x1588(%rbp),%rax
    a7d8:	48 8b 00             	mov    (%rax),%rax
    a7db:	48 85 c0             	test   %rax,%rax
    a7de:	0f 95 c0             	setne  %al
    a7e1:	0f b6 c0             	movzbl %al,%eax
    a7e4:	89 d6                	mov    %edx,%esi
    a7e6:	89 c7                	mov    %eax,%edi
    a7e8:	e8 e7 d9 ff ff       	callq  81d4 <safe_add_func_int8_t_s_s>
    a7ed:	84 c0                	test   %al,%al
    a7ef:	0f 84 4a 02 00 00    	je     aa3f <func_26+0x9dd>
    a7f5:	48 8d 05 b6 b9 00 00 	lea    0xb9b6(%rip),%rax        # 161b2 <g_371>
    a7fc:	48 89 85 f8 ea ff ff 	mov    %rax,-0x1508(%rbp)
    a803:	48 8d 05 76 df 00 00 	lea    0xdf76(%rip),%rax        # 18780 <g_1005+0x1c0>
    a80a:	48 89 85 00 eb ff ff 	mov    %rax,-0x1500(%rbp)
    a811:	48 8d 85 80 eb ff ff 	lea    -0x1480(%rbp),%rax
    a818:	48 83 c0 0c          	add    $0xc,%rax
    a81c:	48 89 85 70 ee ff ff 	mov    %rax,-0x1190(%rbp)
    a823:	48 8d 85 80 eb ff ff 	lea    -0x1480(%rbp),%rax
    a82a:	48 83 c0 0c          	add    $0xc,%rax
    a82e:	48 89 85 78 ee ff ff 	mov    %rax,-0x1188(%rbp)
    a835:	48 8d 85 80 eb ff ff 	lea    -0x1480(%rbp),%rax
    a83c:	48 83 c0 0c          	add    $0xc,%rax
    a840:	48 89 85 80 ee ff ff 	mov    %rax,-0x1180(%rbp)
    a847:	48 8d 85 80 eb ff ff 	lea    -0x1480(%rbp),%rax
    a84e:	48 83 c0 0c          	add    $0xc,%rax
    a852:	48 89 85 88 ee ff ff 	mov    %rax,-0x1178(%rbp)
    a859:	c7 85 8c e9 ff ff 00 	movl   $0x0,-0x1674(%rbp)
    a860:	00 00 00 
    a863:	eb 1a                	jmp    a87f <func_26+0x81d>
    a865:	8b 85 8c e9 ff ff    	mov    -0x1674(%rbp),%eax
    a86b:	48 98                	cltq   
    a86d:	c7 84 85 30 ed ff ff 	movl   $0xfffffffe,-0x12d0(%rbp,%rax,4)
    a874:	fe ff ff ff 
    a878:	83 85 8c e9 ff ff 01 	addl   $0x1,-0x1674(%rbp)
    a87f:	83 bd 8c e9 ff ff 06 	cmpl   $0x6,-0x1674(%rbp)
    a886:	7e dd                	jle    a865 <func_26+0x803>
    a888:	48 8b 9d 18 ea ff ff 	mov    -0x15e8(%rbp),%rbx
    a88f:	8b 85 48 ed ff ff    	mov    -0x12b8(%rbp),%eax
    a895:	44 0f be e0          	movsbl %al,%r12d
    a899:	0f b6 05 48 b8 00 00 	movzbl 0xb848(%rip),%eax        # 160e8 <g_173>
    a8a0:	44 0f be e8          	movsbl %al,%r13d
    a8a4:	48 8b 85 38 e9 ff ff 	mov    -0x16c8(%rbp),%rax
    a8ab:	0f b6 00             	movzbl (%rax),%eax
    a8ae:	0f b6 c0             	movzbl %al,%eax
    a8b1:	89 c6                	mov    %eax,%esi
    a8b3:	bf d6 00 00 00       	mov    $0xd6,%edi
    a8b8:	e8 1e e3 ff ff       	callq  8bdb <safe_div_func_uint8_t_u_u>
    a8bd:	48 8b 15 04 de 00 00 	mov    0xde04(%rip),%rdx        # 186c8 <g_1005+0x108>
    a8c4:	48 8b 85 00 eb ff ff 	mov    -0x1500(%rbp),%rax
    a8cb:	48 89 10             	mov    %rdx,(%rax)
    a8ce:	48 8b 85 00 eb ff ff 	mov    -0x1500(%rbp),%rax
    a8d5:	48 8b 00             	mov    (%rax),%rax
    a8d8:	48 39 85 58 ea ff ff 	cmp    %rax,-0x15a8(%rbp)
    a8df:	0f 94 c0             	sete   %al
    a8e2:	44 0f b6 f0          	movzbl %al,%r14d
    a8e6:	8b 85 8c eb ff ff    	mov    -0x1474(%rbp),%eax
    a8ec:	0f b6 c0             	movzbl %al,%eax
    a8ef:	be 10 00 00 00       	mov    $0x10,%esi
    a8f4:	89 c7                	mov    %eax,%edi
    a8f6:	e8 98 e2 ff ff       	callq  8b93 <safe_mul_func_uint8_t_u_u>
    a8fb:	0f b6 d0             	movzbl %al,%edx
    a8fe:	8b 85 f8 eb ff ff    	mov    -0x1408(%rbp),%eax
    a904:	09 d0                	or     %edx,%eax
    a906:	44 21 f0             	and    %r14d,%eax
    a909:	3d 9b 00 00 00       	cmp    $0x9b,%eax
    a90e:	0f 9f c0             	setg   %al
    a911:	0f b6 c0             	movzbl %al,%eax
    a914:	44 89 ee             	mov    %r13d,%esi
    a917:	89 c7                	mov    %eax,%edi
    a919:	e8 f4 d8 ff ff       	callq  8212 <safe_mul_func_int8_t_s_s>
    a91e:	0f be c0             	movsbl %al,%eax
    a921:	44 89 e6             	mov    %r12d,%esi
    a924:	89 c7                	mov    %eax,%edi
    a926:	e8 06 d9 ff ff       	callq  8231 <safe_mod_func_int8_t_s_s>
    a92b:	84 c0                	test   %al,%al
    a92d:	0f b7 05 9e b9 00 00 	movzwl 0xb99e(%rip),%eax        # 162d2 <g_995>
    a934:	0f bf d0             	movswl %ax,%edx
    a937:	8b 05 87 b7 00 00    	mov    0xb787(%rip),%eax        # 160c4 <g_119>
    a93d:	89 c1                	mov    %eax,%ecx
    a93f:	48 8b 85 f8 ea ff ff 	mov    -0x1508(%rbp),%rax
    a946:	66 89 08             	mov    %cx,(%rax)
    a949:	48 8b 85 f8 ea ff ff 	mov    -0x1508(%rbp),%rax
    a950:	0f b7 00             	movzwl (%rax),%eax
    a953:	98                   	cwtl   
    a954:	f7 d0                	not    %eax
    a956:	39 c2                	cmp    %eax,%edx
    a958:	0f 9d c0             	setge  %al
    a95b:	0f b6 d0             	movzbl %al,%edx
    a95e:	8b 85 e0 eb ff ff    	mov    -0x1420(%rbp),%eax
    a964:	39 c2                	cmp    %eax,%edx
    a966:	75 07                	jne    a96f <func_26+0x90d>
    a968:	b8 01 00 00 00       	mov    $0x1,%eax
    a96d:	eb 05                	jmp    a974 <func_26+0x912>
    a96f:	b8 00 00 00 00       	mov    $0x0,%eax
    a974:	0f b6 c0             	movzbl %al,%eax
    a977:	89 c7                	mov    %eax,%edi
    a979:	e8 c7 e1 ff ff       	callq  8b45 <safe_unary_minus_func_uint8_t_u>
    a97e:	0f b6 c0             	movzbl %al,%eax
    a981:	be 02 00 00 00       	mov    $0x2,%esi
    a986:	89 c7                	mov    %eax,%edi
    a988:	e8 31 e3 ff ff       	callq  8cbe <safe_rshift_func_uint8_t_u_u>
    a98d:	0f b6 c0             	movzbl %al,%eax
    a990:	4c 8b 25 29 e0 00 00 	mov    0xe029(%rip),%r12        # 189c0 <g_1016>
    a997:	48 8b 95 60 ea ff ff 	mov    -0x15a0(%rbp),%rdx
    a99e:	48 89 de             	mov    %rbx,%rsi
    a9a1:	89 c7                	mov    %eax,%edi
    a9a3:	e8 80 5a 00 00       	callq  10428 <func_54>
    a9a8:	49 89 04 24          	mov    %rax,(%r12)
    a9ac:	8b 85 44 ed ff ff    	mov    -0x12bc(%rbp),%eax
    a9b2:	85 c0                	test   %eax,%eax
    a9b4:	74 69                	je     aa1f <func_26+0x9bd>
    a9b6:	c7 85 90 e9 ff ff 00 	movl   $0x0,-0x1670(%rbp)
    a9bd:	00 00 00 
    a9c0:	eb 22                	jmp    a9e4 <func_26+0x982>
    a9c2:	8b 85 90 e9 ff ff    	mov    -0x1670(%rbp),%eax
    a9c8:	48 98                	cltq   
    a9ca:	48 8d 95 e0 eb ff ff 	lea    -0x1420(%rbp),%rdx
    a9d1:	48 83 c2 10          	add    $0x10,%rdx
    a9d5:	48 89 94 c5 50 f8 ff 	mov    %rdx,-0x7b0(%rbp,%rax,8)
    a9dc:	ff 
    a9dd:	83 85 90 e9 ff ff 01 	addl   $0x1,-0x1670(%rbp)
    a9e4:	83 bd 90 e9 ff ff 05 	cmpl   $0x5,-0x1670(%rbp)
    a9eb:	7e d5                	jle    a9c2 <func_26+0x960>
    a9ed:	c7 85 ac eb ff ff 01 	movl   $0x1,-0x1454(%rbp)
    a9f4:	00 00 00 
    a9f7:	c7 05 bb b6 00 00 03 	movl   $0x3,0xb6bb(%rip)        # 160bc <g_82>
    a9fe:	00 00 00 
    aa01:	90                   	nop
    aa02:	8b 05 b4 b6 00 00    	mov    0xb6b4(%rip),%eax        # 160bc <g_82>
    aa08:	85 c0                	test   %eax,%eax
    aa0a:	0f 88 c2 1e 00 00    	js     c8d2 <func_26+0x2870>
    aa10:	48 8b 85 48 e9 ff ff 	mov    -0x16b8(%rbp),%rax
    aa17:	48 8b 00             	mov    (%rax),%rax
    aa1a:	e9 19 21 00 00       	jmpq   cb38 <func_26+0x2ad6>
    aa1f:	48 8b 05 9a df 00 00 	mov    0xdf9a(%rip),%rax        # 189c0 <g_1016>
    aa26:	48 8b 95 70 ee ff ff 	mov    -0x1190(%rbp),%rdx
    aa2d:	48 89 10             	mov    %rdx,(%rax)
    aa30:	48 8b 85 48 e9 ff ff 	mov    -0x16b8(%rbp),%rax
    aa37:	48 8b 00             	mov    (%rax),%rax
    aa3a:	e9 f9 20 00 00       	jmpq   cb38 <func_26+0x2ad6>
    aa3f:	48 8d 05 86 b6 00 00 	lea    0xb686(%rip),%rax        # 160cc <g_129>
    aa46:	48 89 85 80 ea ff ff 	mov    %rax,-0x1580(%rbp)
    aa4d:	c7 85 74 e9 ff ff 20 	movl   $0x1f04b820,-0x168c(%rbp)
    aa54:	b8 04 1f 
    aa57:	48 8d 85 18 ea ff ff 	lea    -0x15e8(%rbp),%rax
    aa5e:	48 89 85 10 ec ff ff 	mov    %rax,-0x13f0(%rbp)
    aa65:	48 c7 85 18 ec ff ff 	movq   $0x0,-0x13e8(%rbp)
    aa6c:	00 00 00 00 
    aa70:	48 c7 85 20 ec ff ff 	movq   $0x0,-0x13e0(%rbp)
    aa77:	00 00 00 00 
    aa7b:	48 8d 85 18 ea ff ff 	lea    -0x15e8(%rbp),%rax
    aa82:	48 89 85 28 ec ff ff 	mov    %rax,-0x13d8(%rbp)
    aa89:	48 8d 05 30 d8 00 00 	lea    0xd830(%rip),%rax        # 182c0 <g_196>
    aa90:	48 89 85 30 ec ff ff 	mov    %rax,-0x13d0(%rbp)
    aa97:	48 8d 05 22 d8 00 00 	lea    0xd822(%rip),%rax        # 182c0 <g_196>
    aa9e:	48 89 85 38 ec ff ff 	mov    %rax,-0x13c8(%rbp)
    aaa5:	48 8d 05 14 d8 00 00 	lea    0xd814(%rip),%rax        # 182c0 <g_196>
    aaac:	48 89 85 40 ec ff ff 	mov    %rax,-0x13c0(%rbp)
    aab3:	48 8d 85 18 ea ff ff 	lea    -0x15e8(%rbp),%rax
    aaba:	48 89 85 48 ec ff ff 	mov    %rax,-0x13b8(%rbp)
    aac1:	48 c7 85 50 ec ff ff 	movq   $0x0,-0x13b0(%rbp)
    aac8:	00 00 00 00 
    aacc:	48 c7 85 58 ec ff ff 	movq   $0x0,-0x13a8(%rbp)
    aad3:	00 00 00 00 
    aad7:	48 8d 85 10 ec ff ff 	lea    -0x13f0(%rbp),%rax
    aade:	48 83 c0 30          	add    $0x30,%rax
    aae2:	48 89 85 88 ea ff ff 	mov    %rax,-0x1578(%rbp)
    aae9:	c7 85 a4 e9 ff ff 00 	movl   $0x0,-0x165c(%rbp)
    aaf0:	00 00 00 
    aaf3:	c7 85 78 e9 ff ff 07 	movl   $0x7,-0x1688(%rbp)
    aafa:	00 00 00 
    aafd:	66 c7 85 60 e9 ff ff 	movw   $0xfff7,-0x16a0(%rbp)
    ab04:	f7 ff 
    ab06:	c7 85 94 e9 ff ff 00 	movl   $0x0,-0x166c(%rbp)
    ab0d:	00 00 00 
    ab10:	eb 1e                	jmp    ab30 <func_26+0xace>
    ab12:	8b 85 94 e9 ff ff    	mov    -0x166c(%rbp),%eax
    ab18:	48 98                	cltq   
    ab1a:	48 8d 15 93 b6 00 00 	lea    0xb693(%rip),%rdx        # 161b4 <g_374>
    ab21:	48 89 94 c5 90 eb ff 	mov    %rdx,-0x1470(%rbp,%rax,8)
    ab28:	ff 
    ab29:	83 85 94 e9 ff ff 01 	addl   $0x1,-0x166c(%rbp)
    ab30:	83 bd 94 e9 ff ff 01 	cmpl   $0x1,-0x166c(%rbp)
    ab37:	7e d9                	jle    ab12 <func_26+0xab0>
    ab39:	48 8b 05 30 d7 00 00 	mov    0xd730(%rip),%rax        # 18270 <g_51>
    ab40:	0f b6 00             	movzbl (%rax),%eax
    ab43:	0f be c8             	movsbl %al,%ecx
    ab46:	48 8b 85 58 ea ff ff 	mov    -0x15a8(%rbp),%rax
    ab4d:	48 8b 00             	mov    (%rax),%rax
    ab50:	8b 10                	mov    (%rax),%edx
    ab52:	8d 72 ff             	lea    -0x1(%rdx),%esi
    ab55:	89 30                	mov    %esi,(%rax)
    ab57:	48 83 bd 88 ea ff ff 	cmpq   $0x0,-0x1578(%rbp)
    ab5e:	00 
    ab5f:	0f 95 c0             	setne  %al
    ab62:	0f b6 c0             	movzbl %al,%eax
    ab65:	39 c2                	cmp    %eax,%edx
    ab67:	0f 96 c0             	setbe  %al
    ab6a:	0f b6 c0             	movzbl %al,%eax
    ab6d:	89 ce                	mov    %ecx,%esi
    ab6f:	89 c7                	mov    %eax,%edi
    ab71:	e8 2b d7 ff ff       	callq  82a1 <safe_lshift_func_int8_t_s_s>
    ab76:	be 04 00 00 00       	mov    $0x4,%esi
    ab7b:	bf ff ff ff ff       	mov    $0xffffffff,%edi
    ab80:	e8 b0 d7 ff ff       	callq  8335 <safe_rshift_func_int8_t_s_s>
    ab85:	89 c2                	mov    %eax,%edx
    ab87:	48 8b 85 20 ea ff ff 	mov    -0x15e0(%rbp),%rax
    ab8e:	88 10                	mov    %dl,(%rax)
    ab90:	48 8b 05 11 d8 00 00 	mov    0xd811(%rip),%rax        # 183a8 <g_525>
    ab97:	48 8b 95 80 ea ff ff 	mov    -0x1580(%rbp),%rdx
    ab9e:	48 89 10             	mov    %rdx,(%rax)
    aba1:	48 8b 00             	mov    (%rax),%rax
    aba4:	48 39 85 80 ea ff ff 	cmp    %rax,-0x1580(%rbp)
    abab:	0f 95 c0             	setne  %al
    abae:	0f b6 d0             	movzbl %al,%edx
    abb1:	0f b6 05 30 b5 00 00 	movzbl 0xb530(%rip),%eax        # 160e8 <g_173>
    abb8:	84 c0                	test   %al,%al
    abba:	0f 94 c0             	sete   %al
    abbd:	0f b6 c0             	movzbl %al,%eax
    abc0:	48 63 c8             	movslq %eax,%rcx
    abc3:	48 8d 05 9e d9 00 00 	lea    0xd99e(%rip),%rax        # 18568 <g_715>
    abca:	48 8b 00             	mov    (%rax),%rax
    abcd:	48 8b 00             	mov    (%rax),%rax
    abd0:	48 39 c1             	cmp    %rax,%rcx
    abd3:	0f 94 c0             	sete   %al
    abd6:	0f b6 c8             	movzbl %al,%ecx
    abd9:	48 8b 85 60 ea ff ff 	mov    -0x15a0(%rbp),%rax
    abe0:	48 8b 00             	mov    (%rax),%rax
    abe3:	8b 00                	mov    (%rax),%eax
    abe5:	21 c8                	and    %ecx,%eax
    abe7:	31 c2                	xor    %eax,%edx
    abe9:	48 8b 05 b8 b6 00 00 	mov    0xb6b8(%rip),%rax        # 162a8 <g_726>
    abf0:	25 ff ff 0f 00       	and    $0xfffff,%eax
    abf5:	31 d0                	xor    %edx,%eax
    abf7:	83 f8 06             	cmp    $0x6,%eax
    abfa:	0f 84 d0 15 00 00    	je     c1d0 <func_26+0x216e>
    ac00:	c7 85 98 e9 ff ff bf 	movl   $0xb1e226bf,-0x1668(%rbp)
    ac07:	26 e2 b1 
    ac0a:	48 c7 85 28 ea ff ff 	movq   $0x0,-0x15d8(%rbp)
    ac11:	00 00 00 00 
    ac15:	48 8d 85 28 ea ff ff 	lea    -0x15d8(%rbp),%rax
    ac1c:	48 89 85 a8 ea ff ff 	mov    %rax,-0x1558(%rbp)
    ac23:	48 8d 05 88 b5 00 00 	lea    0xb588(%rip),%rax        # 161b2 <g_371>
    ac2a:	48 89 85 30 ea ff ff 	mov    %rax,-0x15d0(%rbp)
    ac31:	48 8d 85 30 ea ff ff 	lea    -0x15d0(%rbp),%rax
    ac38:	48 89 85 b0 ea ff ff 	mov    %rax,-0x1550(%rbp)
    ac3f:	48 c7 85 b8 ea ff ff 	movq   $0x0,-0x1548(%rbp)
    ac46:	00 00 00 00 
    ac4a:	48 8d 05 47 b6 00 00 	lea    0xb647(%rip),%rax        # 16298 <g_599>
    ac51:	48 89 85 c0 ea ff ff 	mov    %rax,-0x1540(%rbp)
    ac58:	c7 85 7c e9 ff ff 00 	movl   $0x0,-0x1684(%rbp)
    ac5f:	00 00 00 
    ac62:	48 8d 05 f7 ea 00 00 	lea    0xeaf7(%rip),%rax        # 19760 <g_203>
    ac69:	48 89 85 38 ea ff ff 	mov    %rax,-0x15c8(%rbp)
    ac70:	48 8d 85 38 ea ff ff 	lea    -0x15c8(%rbp),%rax
    ac77:	48 89 85 c8 ea ff ff 	mov    %rax,-0x1538(%rbp)
    ac7e:	48 8d 05 53 dd 00 00 	lea    0xdd53(%rip),%rax        # 189d8 <g_1086>
    ac85:	48 89 85 d0 ea ff ff 	mov    %rax,-0x1530(%rbp)
    ac8c:	48 8d 05 15 d7 00 00 	lea    0xd715(%rip),%rax        # 183a8 <g_525>
    ac93:	48 89 85 30 ed ff ff 	mov    %rax,-0x12d0(%rbp)
    ac9a:	48 8d 05 07 d7 00 00 	lea    0xd707(%rip),%rax        # 183a8 <g_525>
    aca1:	48 89 85 38 ed ff ff 	mov    %rax,-0x12c8(%rbp)
    aca8:	48 8d 05 f9 d6 00 00 	lea    0xd6f9(%rip),%rax        # 183a8 <g_525>
    acaf:	48 89 85 40 ed ff ff 	mov    %rax,-0x12c0(%rbp)
    acb6:	48 8d 05 eb d6 00 00 	lea    0xd6eb(%rip),%rax        # 183a8 <g_525>
    acbd:	48 89 85 48 ed ff ff 	mov    %rax,-0x12b8(%rbp)
    acc4:	48 8d 05 dd d6 00 00 	lea    0xd6dd(%rip),%rax        # 183a8 <g_525>
    accb:	48 89 85 50 ed ff ff 	mov    %rax,-0x12b0(%rbp)
    acd2:	48 8d 05 cf d6 00 00 	lea    0xd6cf(%rip),%rax        # 183a8 <g_525>
    acd9:	48 89 85 58 ed ff ff 	mov    %rax,-0x12a8(%rbp)
    ace0:	48 8d 05 c1 d6 00 00 	lea    0xd6c1(%rip),%rax        # 183a8 <g_525>
    ace7:	48 89 85 60 ed ff ff 	mov    %rax,-0x12a0(%rbp)
    acee:	48 8d 05 b3 d6 00 00 	lea    0xd6b3(%rip),%rax        # 183a8 <g_525>
    acf5:	48 89 85 68 ed ff ff 	mov    %rax,-0x1298(%rbp)
    acfc:	48 8d 05 a5 d6 00 00 	lea    0xd6a5(%rip),%rax        # 183a8 <g_525>
    ad03:	48 89 85 70 ed ff ff 	mov    %rax,-0x1290(%rbp)
    ad0a:	48 8d 05 97 d6 00 00 	lea    0xd697(%rip),%rax        # 183a8 <g_525>
    ad11:	48 89 85 78 ed ff ff 	mov    %rax,-0x1288(%rbp)
    ad18:	48 8d 05 89 d6 00 00 	lea    0xd689(%rip),%rax        # 183a8 <g_525>
    ad1f:	48 89 85 80 ed ff ff 	mov    %rax,-0x1280(%rbp)
    ad26:	48 c7 85 88 ed ff ff 	movq   $0x0,-0x1278(%rbp)
    ad2d:	00 00 00 00 
    ad31:	48 c7 85 90 ed ff ff 	movq   $0x0,-0x1270(%rbp)
    ad38:	00 00 00 00 
    ad3c:	48 8d 05 65 d6 00 00 	lea    0xd665(%rip),%rax        # 183a8 <g_525>
    ad43:	48 89 85 98 ed ff ff 	mov    %rax,-0x1268(%rbp)
    ad4a:	48 c7 85 a0 ed ff ff 	movq   $0x0,-0x1260(%rbp)
    ad51:	00 00 00 00 
    ad55:	48 8d 05 4c d6 00 00 	lea    0xd64c(%rip),%rax        # 183a8 <g_525>
    ad5c:	48 89 85 a8 ed ff ff 	mov    %rax,-0x1258(%rbp)
    ad63:	48 8d 05 3e d6 00 00 	lea    0xd63e(%rip),%rax        # 183a8 <g_525>
    ad6a:	48 89 85 b0 ed ff ff 	mov    %rax,-0x1250(%rbp)
    ad71:	48 8d 05 30 d6 00 00 	lea    0xd630(%rip),%rax        # 183a8 <g_525>
    ad78:	48 89 85 b8 ed ff ff 	mov    %rax,-0x1248(%rbp)
    ad7f:	48 c7 85 c0 ed ff ff 	movq   $0x0,-0x1240(%rbp)
    ad86:	00 00 00 00 
    ad8a:	48 8d 05 17 d6 00 00 	lea    0xd617(%rip),%rax        # 183a8 <g_525>
    ad91:	48 89 85 c8 ed ff ff 	mov    %rax,-0x1238(%rbp)
    ad98:	48 8d 05 09 d6 00 00 	lea    0xd609(%rip),%rax        # 183a8 <g_525>
    ad9f:	48 89 85 d0 ed ff ff 	mov    %rax,-0x1230(%rbp)
    ada6:	48 8d 05 fb d5 00 00 	lea    0xd5fb(%rip),%rax        # 183a8 <g_525>
    adad:	48 89 85 d8 ed ff ff 	mov    %rax,-0x1228(%rbp)
    adb4:	48 8d 05 ed d5 00 00 	lea    0xd5ed(%rip),%rax        # 183a8 <g_525>
    adbb:	48 89 85 e0 ed ff ff 	mov    %rax,-0x1220(%rbp)
    adc2:	48 c7 85 e8 ed ff ff 	movq   $0x0,-0x1218(%rbp)
    adc9:	00 00 00 00 
    adcd:	48 8d 05 d4 d5 00 00 	lea    0xd5d4(%rip),%rax        # 183a8 <g_525>
    add4:	48 89 85 f0 ed ff ff 	mov    %rax,-0x1210(%rbp)
    addb:	48 c7 85 f8 ed ff ff 	movq   $0x0,-0x1208(%rbp)
    ade2:	00 00 00 00 
    ade6:	48 c7 85 00 ee ff ff 	movq   $0x0,-0x1200(%rbp)
    aded:	00 00 00 00 
    adf1:	48 8d 05 b0 d5 00 00 	lea    0xd5b0(%rip),%rax        # 183a8 <g_525>
    adf8:	48 89 85 08 ee ff ff 	mov    %rax,-0x11f8(%rbp)
    adff:	48 c7 85 10 ee ff ff 	movq   $0x0,-0x11f0(%rbp)
    ae06:	00 00 00 00 
    ae0a:	48 8d 05 97 d5 00 00 	lea    0xd597(%rip),%rax        # 183a8 <g_525>
    ae11:	48 89 85 18 ee ff ff 	mov    %rax,-0x11e8(%rbp)
    ae18:	48 8d 85 30 ed ff ff 	lea    -0x12d0(%rbp),%rax
    ae1f:	48 83 c0 38          	add    $0x38,%rax
    ae23:	48 89 85 d8 ea ff ff 	mov    %rax,-0x1528(%rbp)
    ae2a:	48 8d 85 70 ee ff ff 	lea    -0x1190(%rbp),%rax
    ae31:	48 8d 15 28 c7 00 00 	lea    0xc728(%rip),%rdx        # 17560 <g_1797+0x1168>
    ae38:	b9 64 00 00 00       	mov    $0x64,%ecx
    ae3d:	48 89 c7             	mov    %rax,%rdi
    ae40:	48 89 d6             	mov    %rdx,%rsi
    ae43:	f3 48 a5             	rep movsq %ds:(%rsi),%es:(%rdi)
    ae46:	48 8d 85 70 ee ff ff 	lea    -0x1190(%rbp),%rax
    ae4d:	48 05 a0 02 00 00    	add    $0x2a0,%rax
    ae53:	48 89 85 e0 ea ff ff 	mov    %rax,-0x1520(%rbp)
    ae5a:	48 8d 85 20 ea ff ff 	lea    -0x15e0(%rbp),%rax
    ae61:	48 89 85 c0 eb ff ff 	mov    %rax,-0x1440(%rbp)
    ae68:	48 8d 85 20 ea ff ff 	lea    -0x15e0(%rbp),%rax
    ae6f:	48 89 85 c8 eb ff ff 	mov    %rax,-0x1438(%rbp)
    ae76:	48 8d 85 20 ea ff ff 	lea    -0x15e0(%rbp),%rax
    ae7d:	48 89 85 d0 eb ff ff 	mov    %rax,-0x1430(%rbp)
    ae84:	48 8d 85 20 ea ff ff 	lea    -0x15e0(%rbp),%rax
    ae8b:	48 89 85 d8 eb ff ff 	mov    %rax,-0x1428(%rbp)
    ae92:	c7 85 64 e9 ff ff ff 	movl   $0xffffffff,-0x169c(%rbp)
    ae99:	ff ff ff 
    ae9c:	eb 7f                	jmp    af1d <func_26+0xebb>
    ae9e:	c7 85 e4 e9 ff ff 03 	movl   $0xc4b53e03,-0x161c(%rbp)
    aea5:	3e b5 c4 
    aea8:	48 8b 15 f9 d4 00 00 	mov    0xd4f9(%rip),%rdx        # 183a8 <g_525>
    aeaf:	48 8b 05 f2 d4 00 00 	mov    0xd4f2(%rip),%rax        # 183a8 <g_525>
    aeb6:	48 8b 12             	mov    (%rdx),%rdx
    aeb9:	48 89 10             	mov    %rdx,(%rax)
    aebc:	48 8b 05 f5 d3 00 00 	mov    0xd3f5(%rip),%rax        # 182b8 <g_177>
    aec3:	8b 08                	mov    (%rax),%ecx
    aec5:	48 8b 95 60 ea ff ff 	mov    -0x15a0(%rbp),%rdx
    aecc:	48 8b 12             	mov    (%rdx),%rdx
    aecf:	8b 12                	mov    (%rdx),%edx
    aed1:	31 ca                	xor    %ecx,%edx
    aed3:	89 10                	mov    %edx,(%rax)
    aed5:	c6 05 d4 b2 00 00 00 	movb   $0x0,0xb2d4(%rip)        # 161b0 <g_338>
    aedc:	eb 25                	jmp    af03 <func_26+0xea1>
    aede:	c6 85 5b e9 ff ff f7 	movb   $0xf7,-0x16a5(%rbp)
    aee5:	80 85 5b e9 ff ff 01 	addb   $0x1,-0x16a5(%rbp)
    aeec:	83 85 98 e9 ff ff 01 	addl   $0x1,-0x1668(%rbp)
    aef3:	0f b6 05 b6 b2 00 00 	movzbl 0xb2b6(%rip),%eax        # 161b0 <g_338>
    aefa:	83 c0 01             	add    $0x1,%eax
    aefd:	88 05 ad b2 00 00    	mov    %al,0xb2ad(%rip)        # 161b0 <g_338>
    af03:	0f b6 05 a6 b2 00 00 	movzbl 0xb2a6(%rip),%eax        # 161b0 <g_338>
    af0a:	3c 01                	cmp    $0x1,%al
    af0c:	76 d0                	jbe    aede <func_26+0xe7c>
    af0e:	8b 85 64 e9 ff ff    	mov    -0x169c(%rbp),%eax
    af14:	83 c0 01             	add    $0x1,%eax
    af17:	89 85 64 e9 ff ff    	mov    %eax,-0x169c(%rbp)
    af1d:	8b 85 64 e9 ff ff    	mov    -0x169c(%rbp),%eax
    af23:	83 f8 35             	cmp    $0x35,%eax
    af26:	0f 87 72 ff ff ff    	ja     ae9e <func_26+0xe3c>
    af2c:	48 8b 85 48 e9 ff ff 	mov    -0x16b8(%rbp),%rax
    af33:	48 8b 10             	mov    (%rax),%rdx
    af36:	48 8b 85 48 e9 ff ff 	mov    -0x16b8(%rbp),%rax
    af3d:	48 89 10             	mov    %rdx,(%rax)
    af40:	8b 95 7c eb ff ff    	mov    -0x1484(%rbp),%edx
    af46:	48 8b 85 60 ea ff ff 	mov    -0x15a0(%rbp),%rax
    af4d:	48 8b 00             	mov    (%rax),%rax
    af50:	8b 00                	mov    (%rax),%eax
    af52:	85 c0                	test   %eax,%eax
    af54:	0f 94 c0             	sete   %al
    af57:	0f b6 c0             	movzbl %al,%eax
    af5a:	89 d3                	mov    %edx,%ebx
    af5c:	31 c3                	xor    %eax,%ebx
    af5e:	48 8b 05 0b d3 00 00 	mov    0xd30b(%rip),%rax        # 18270 <g_51>
    af65:	0f b6 00             	movzbl (%rax),%eax
    af68:	3c 7d                	cmp    $0x7d,%al
    af6a:	0f 9e c0             	setle  %al
    af6d:	0f b6 d0             	movzbl %al,%edx
    af70:	48 8b 85 48 e9 ff ff 	mov    -0x16b8(%rbp),%rax
    af77:	48 8b 00             	mov    (%rax),%rax
    af7a:	8b 00                	mov    (%rax),%eax
    af7c:	39 c2                	cmp    %eax,%edx
    af7e:	0f 95 c0             	setne  %al
    af81:	0f b6 d0             	movzbl %al,%edx
    af84:	48 8b 8d 38 ea ff ff 	mov    -0x15c8(%rbp),%rcx
    af8b:	48 8b 85 c8 ea ff ff 	mov    -0x1538(%rbp),%rax
    af92:	48 89 08             	mov    %rcx,(%rax)
    af95:	48 8b 0d 3c da 00 00 	mov    0xda3c(%rip),%rcx        # 189d8 <g_1086>
    af9c:	48 8b 85 d0 ea ff ff 	mov    -0x1530(%rbp),%rax
    afa3:	48 89 08             	mov    %rcx,(%rax)
    afa6:	48 8b 85 d8 ea ff ff 	mov    -0x1528(%rbp),%rax
    afad:	48 8d 0d f4 d3 00 00 	lea    0xd3f4(%rip),%rcx        # 183a8 <g_525>
    afb4:	48 89 08             	mov    %rcx,(%rax)
    afb7:	48 8b 85 08 ea ff ff 	mov    -0x15f8(%rbp),%rax
    afbe:	48 8b 00             	mov    (%rax),%rax
    afc1:	48 8d 0d e0 d3 00 00 	lea    0xd3e0(%rip),%rcx        # 183a8 <g_525>
    afc8:	48 39 c8             	cmp    %rcx,%rax
    afcb:	0f 94 c0             	sete   %al
    afce:	0f b6 c0             	movzbl %al,%eax
    afd1:	89 d6                	mov    %edx,%esi
    afd3:	89 c7                	mov    %eax,%edi
    afd5:	e8 c7 d2 ff ff       	callq  82a1 <safe_lshift_func_int8_t_s_s>
    afda:	48 8b 95 10 f1 ff ff 	mov    -0xef0(%rbp),%rdx
    afe1:	48 8b 85 e0 ea ff ff 	mov    -0x1520(%rbp),%rax
    afe8:	48 89 10             	mov    %rdx,(%rax)
    afeb:	48 8b 85 e0 ea ff ff 	mov    -0x1520(%rbp),%rax
    aff2:	48 8b 00             	mov    (%rax),%rax
    aff5:	48 8d 15 94 e7 00 00 	lea    0xe794(%rip),%rdx        # 19790 <g_950>
    affc:	48 39 d0             	cmp    %rdx,%rax
    afff:	0f 95 c0             	setne  %al
    b002:	0f b6 c0             	movzbl %al,%eax
    b005:	39 c3                	cmp    %eax,%ebx
    b007:	0f 95 c0             	setne  %al
    b00a:	0f b6 d0             	movzbl %al,%edx
    b00d:	8b 85 70 e9 ff ff    	mov    -0x1690(%rbp),%eax
    b013:	21 d0                	and    %edx,%eax
    b015:	89 85 70 e9 ff ff    	mov    %eax,-0x1690(%rbp)
    b01b:	48 8d 05 46 d5 00 00 	lea    0xd546(%rip),%rax        # 18568 <g_715>
    b022:	48 8b 00             	mov    (%rax),%rax
    b025:	48 8b 10             	mov    (%rax),%rdx
    b028:	48 8b 85 38 e9 ff ff 	mov    -0x16c8(%rbp),%rax
    b02f:	48 89 05 aa d9 00 00 	mov    %rax,0xd9aa(%rip)        # 189e0 <g_1096>
    b036:	48 8b 05 a3 d9 00 00 	mov    0xd9a3(%rip),%rax        # 189e0 <g_1096>
    b03d:	48 8d 0d 7c b0 00 00 	lea    0xb07c(%rip),%rcx        # 160c0 <g_88>
    b044:	48 39 c8             	cmp    %rcx,%rax
    b047:	0f 95 c0             	setne  %al
    b04a:	0f b6 c0             	movzbl %al,%eax
    b04d:	48 21 d0             	and    %rdx,%rax
    b050:	48 85 c0             	test   %rax,%rax
    b053:	0f 84 4c 0e 00 00    	je     bea5 <func_26+0x1e43>
    b059:	48 8d 05 58 b2 00 00 	lea    0xb258(%rip),%rax        # 162b8 <g_763>
    b060:	48 89 85 f0 ea ff ff 	mov    %rax,-0x1510(%rbp)
    b067:	c6 05 42 b1 00 00 ec 	movb   $0xec,0xb142(%rip)        # 161b0 <g_338>
    b06e:	e9 17 0e 00 00       	jmpq   be8a <func_26+0x1e28>
    b073:	48 8d 85 a0 eb ff ff 	lea    -0x1460(%rbp),%rax
    b07a:	48 89 85 50 f8 ff ff 	mov    %rax,-0x7b0(%rbp)
    b081:	48 8d 05 a0 af 00 00 	lea    0xafa0(%rip),%rax        # 16028 <g_8>
    b088:	48 89 85 58 f8 ff ff 	mov    %rax,-0x7a8(%rbp)
    b08f:	48 8d 85 80 eb ff ff 	lea    -0x1480(%rbp),%rax
    b096:	48 83 c0 04          	add    $0x4,%rax
    b09a:	48 89 85 60 f8 ff ff 	mov    %rax,-0x7a0(%rbp)
    b0a1:	48 8d 05 9c af 00 00 	lea    0xaf9c(%rip),%rax        # 16044 <g_13>
    b0a8:	48 89 85 68 f8 ff ff 	mov    %rax,-0x798(%rbp)
    b0af:	48 8d 85 7c e9 ff ff 	lea    -0x1684(%rbp),%rax
    b0b6:	48 89 85 70 f8 ff ff 	mov    %rax,-0x790(%rbp)
    b0bd:	48 8d 05 f4 b1 00 00 	lea    0xb1f4(%rip),%rax        # 162b8 <g_763>
    b0c4:	48 89 85 78 f8 ff ff 	mov    %rax,-0x788(%rbp)
    b0cb:	48 8d 05 56 af 00 00 	lea    0xaf56(%rip),%rax        # 16028 <g_8>
    b0d2:	48 89 85 80 f8 ff ff 	mov    %rax,-0x780(%rbp)
    b0d9:	48 8d 85 80 eb ff ff 	lea    -0x1480(%rbp),%rax
    b0e0:	48 83 c0 0c          	add    $0xc,%rax
    b0e4:	48 89 85 88 f8 ff ff 	mov    %rax,-0x778(%rbp)
    b0eb:	48 8d 85 68 e9 ff ff 	lea    -0x1698(%rbp),%rax
    b0f2:	48 89 85 90 f8 ff ff 	mov    %rax,-0x770(%rbp)
    b0f9:	48 8d 85 e0 eb ff ff 	lea    -0x1420(%rbp),%rax
    b100:	48 83 c0 18          	add    $0x18,%rax
    b104:	48 89 85 98 f8 ff ff 	mov    %rax,-0x768(%rbp)
    b10b:	48 8d 85 80 eb ff ff 	lea    -0x1480(%rbp),%rax
    b112:	48 83 c0 08          	add    $0x8,%rax
    b116:	48 89 85 a0 f8 ff ff 	mov    %rax,-0x760(%rbp)
    b11d:	48 8d 05 20 af 00 00 	lea    0xaf20(%rip),%rax        # 16044 <g_13>
    b124:	48 89 85 a8 f8 ff ff 	mov    %rax,-0x758(%rbp)
    b12b:	48 8d 85 70 e9 ff ff 	lea    -0x1690(%rbp),%rax
    b132:	48 89 85 b0 f8 ff ff 	mov    %rax,-0x750(%rbp)
    b139:	48 8d 05 78 b1 00 00 	lea    0xb178(%rip),%rax        # 162b8 <g_763>
    b140:	48 89 85 b8 f8 ff ff 	mov    %rax,-0x748(%rbp)
    b147:	48 8d 05 6a b1 00 00 	lea    0xb16a(%rip),%rax        # 162b8 <g_763>
    b14e:	48 89 85 c0 f8 ff ff 	mov    %rax,-0x740(%rbp)
    b155:	48 8d 85 e0 eb ff ff 	lea    -0x1420(%rbp),%rax
    b15c:	48 83 c0 0c          	add    $0xc,%rax
    b160:	48 89 85 c8 f8 ff ff 	mov    %rax,-0x738(%rbp)
    b167:	48 8d 85 7c e9 ff ff 	lea    -0x1684(%rbp),%rax
    b16e:	48 89 85 d0 f8 ff ff 	mov    %rax,-0x730(%rbp)
    b175:	48 8d 85 68 e9 ff ff 	lea    -0x1698(%rbp),%rax
    b17c:	48 89 85 d8 f8 ff ff 	mov    %rax,-0x728(%rbp)
    b183:	48 8d 85 80 eb ff ff 	lea    -0x1480(%rbp),%rax
    b18a:	48 83 c0 08          	add    $0x8,%rax
    b18e:	48 89 85 e0 f8 ff ff 	mov    %rax,-0x720(%rbp)
    b195:	48 8d 85 e0 eb ff ff 	lea    -0x1420(%rbp),%rax
    b19c:	48 83 c0 1c          	add    $0x1c,%rax
    b1a0:	48 89 85 e8 f8 ff ff 	mov    %rax,-0x718(%rbp)
    b1a7:	48 8d 85 68 e9 ff ff 	lea    -0x1698(%rbp),%rax
    b1ae:	48 89 85 f0 f8 ff ff 	mov    %rax,-0x710(%rbp)
    b1b5:	48 8d 85 7c e9 ff ff 	lea    -0x1684(%rbp),%rax
    b1bc:	48 89 85 f8 f8 ff ff 	mov    %rax,-0x708(%rbp)
    b1c3:	48 c7 85 00 f9 ff ff 	movq   $0x0,-0x700(%rbp)
    b1ca:	00 00 00 00 
    b1ce:	48 8d 85 80 eb ff ff 	lea    -0x1480(%rbp),%rax
    b1d5:	48 83 c0 0c          	add    $0xc,%rax
    b1d9:	48 89 85 08 f9 ff ff 	mov    %rax,-0x6f8(%rbp)
    b1e0:	48 8d 85 e0 eb ff ff 	lea    -0x1420(%rbp),%rax
    b1e7:	48 83 c0 0c          	add    $0xc,%rax
    b1eb:	48 89 85 10 f9 ff ff 	mov    %rax,-0x6f0(%rbp)
    b1f2:	48 8d 85 68 e9 ff ff 	lea    -0x1698(%rbp),%rax
    b1f9:	48 89 85 18 f9 ff ff 	mov    %rax,-0x6e8(%rbp)
    b200:	48 8d 85 7c e9 ff ff 	lea    -0x1684(%rbp),%rax
    b207:	48 89 85 20 f9 ff ff 	mov    %rax,-0x6e0(%rbp)
    b20e:	48 8d 85 a0 eb ff ff 	lea    -0x1460(%rbp),%rax
    b215:	48 89 85 28 f9 ff ff 	mov    %rax,-0x6d8(%rbp)
    b21c:	48 8d 85 80 eb ff ff 	lea    -0x1480(%rbp),%rax
    b223:	48 83 c0 04          	add    $0x4,%rax
    b227:	48 89 85 30 f9 ff ff 	mov    %rax,-0x6d0(%rbp)
    b22e:	48 c7 85 38 f9 ff ff 	movq   $0x0,-0x6c8(%rbp)
    b235:	00 00 00 00 
    b239:	48 8d 85 7c e9 ff ff 	lea    -0x1684(%rbp),%rax
    b240:	48 89 85 40 f9 ff ff 	mov    %rax,-0x6c0(%rbp)
    b247:	48 8d 85 70 e9 ff ff 	lea    -0x1690(%rbp),%rax
    b24e:	48 89 85 48 f9 ff ff 	mov    %rax,-0x6b8(%rbp)
    b255:	48 8d 05 60 ae 00 00 	lea    0xae60(%rip),%rax        # 160bc <g_82>
    b25c:	48 89 85 50 f9 ff ff 	mov    %rax,-0x6b0(%rbp)
    b263:	48 8d 85 7c e9 ff ff 	lea    -0x1684(%rbp),%rax
    b26a:	48 89 85 58 f9 ff ff 	mov    %rax,-0x6a8(%rbp)
    b271:	48 8d 85 80 eb ff ff 	lea    -0x1480(%rbp),%rax
    b278:	48 83 c0 0c          	add    $0xc,%rax
    b27c:	48 89 85 60 f9 ff ff 	mov    %rax,-0x6a0(%rbp)
    b283:	48 8d 85 a0 eb ff ff 	lea    -0x1460(%rbp),%rax
    b28a:	48 89 85 68 f9 ff ff 	mov    %rax,-0x698(%rbp)
    b291:	48 8d 05 20 b0 00 00 	lea    0xb020(%rip),%rax        # 162b8 <g_763>
    b298:	48 89 85 70 f9 ff ff 	mov    %rax,-0x690(%rbp)
    b29f:	48 8d 85 e0 eb ff ff 	lea    -0x1420(%rbp),%rax
    b2a6:	48 83 c0 18          	add    $0x18,%rax
    b2aa:	48 89 85 78 f9 ff ff 	mov    %rax,-0x688(%rbp)
    b2b1:	48 8d 85 80 eb ff ff 	lea    -0x1480(%rbp),%rax
    b2b8:	48 83 c0 04          	add    $0x4,%rax
    b2bc:	48 89 85 80 f9 ff ff 	mov    %rax,-0x680(%rbp)
    b2c3:	48 c7 85 88 f9 ff ff 	movq   $0x0,-0x678(%rbp)
    b2ca:	00 00 00 00 
    b2ce:	48 8d 85 a0 eb ff ff 	lea    -0x1460(%rbp),%rax
    b2d5:	48 89 85 90 f9 ff ff 	mov    %rax,-0x670(%rbp)
    b2dc:	48 8d 85 80 eb ff ff 	lea    -0x1480(%rbp),%rax
    b2e3:	48 83 c0 0c          	add    $0xc,%rax
    b2e7:	48 89 85 98 f9 ff ff 	mov    %rax,-0x668(%rbp)
    b2ee:	48 8d 05 33 ad 00 00 	lea    0xad33(%rip),%rax        # 16028 <g_8>
    b2f5:	48 89 85 a0 f9 ff ff 	mov    %rax,-0x660(%rbp)
    b2fc:	48 c7 85 a8 f9 ff ff 	movq   $0x0,-0x658(%rbp)
    b303:	00 00 00 00 
    b307:	48 8d 05 36 ad 00 00 	lea    0xad36(%rip),%rax        # 16044 <g_13>
    b30e:	48 89 85 b0 f9 ff ff 	mov    %rax,-0x650(%rbp)
    b315:	48 8d 85 68 e9 ff ff 	lea    -0x1698(%rbp),%rax
    b31c:	48 89 85 b8 f9 ff ff 	mov    %rax,-0x648(%rbp)
    b323:	48 8d 85 70 e9 ff ff 	lea    -0x1690(%rbp),%rax
    b32a:	48 89 85 c0 f9 ff ff 	mov    %rax,-0x640(%rbp)
    b331:	48 8d 85 74 e9 ff ff 	lea    -0x168c(%rbp),%rax
    b338:	48 89 85 c8 f9 ff ff 	mov    %rax,-0x638(%rbp)
    b33f:	48 8d 85 80 eb ff ff 	lea    -0x1480(%rbp),%rax
    b346:	48 83 c0 0c          	add    $0xc,%rax
    b34a:	48 89 85 d0 f9 ff ff 	mov    %rax,-0x630(%rbp)
    b351:	48 8d 85 7c e9 ff ff 	lea    -0x1684(%rbp),%rax
    b358:	48 89 85 d8 f9 ff ff 	mov    %rax,-0x628(%rbp)
    b35f:	48 8d 85 e0 eb ff ff 	lea    -0x1420(%rbp),%rax
    b366:	48 83 c0 18          	add    $0x18,%rax
    b36a:	48 89 85 e0 f9 ff ff 	mov    %rax,-0x620(%rbp)
    b371:	48 8d 85 e0 eb ff ff 	lea    -0x1420(%rbp),%rax
    b378:	48 83 c0 18          	add    $0x18,%rax
    b37c:	48 89 85 e8 f9 ff ff 	mov    %rax,-0x618(%rbp)
    b383:	48 c7 85 f0 f9 ff ff 	movq   $0x0,-0x610(%rbp)
    b38a:	00 00 00 00 
    b38e:	48 8d 05 af ac 00 00 	lea    0xacaf(%rip),%rax        # 16044 <g_13>
    b395:	48 89 85 f8 f9 ff ff 	mov    %rax,-0x608(%rbp)
    b39c:	48 8d 85 80 eb ff ff 	lea    -0x1480(%rbp),%rax
    b3a3:	48 83 c0 0c          	add    $0xc,%rax
    b3a7:	48 89 85 00 fa ff ff 	mov    %rax,-0x600(%rbp)
    b3ae:	48 8d 85 70 e9 ff ff 	lea    -0x1690(%rbp),%rax
    b3b5:	48 89 85 08 fa ff ff 	mov    %rax,-0x5f8(%rbp)
    b3bc:	48 8d 85 74 e9 ff ff 	lea    -0x168c(%rbp),%rax
    b3c3:	48 89 85 10 fa ff ff 	mov    %rax,-0x5f0(%rbp)
    b3ca:	48 8d 85 a0 eb ff ff 	lea    -0x1460(%rbp),%rax
    b3d1:	48 83 c0 08          	add    $0x8,%rax
    b3d5:	48 89 85 18 fa ff ff 	mov    %rax,-0x5e8(%rbp)
    b3dc:	48 8d 85 80 eb ff ff 	lea    -0x1480(%rbp),%rax
    b3e3:	48 83 c0 04          	add    $0x4,%rax
    b3e7:	48 89 85 20 fa ff ff 	mov    %rax,-0x5e0(%rbp)
    b3ee:	48 8d 05 c3 ae 00 00 	lea    0xaec3(%rip),%rax        # 162b8 <g_763>
    b3f5:	48 89 85 28 fa ff ff 	mov    %rax,-0x5d8(%rbp)
    b3fc:	48 8d 05 b5 ae 00 00 	lea    0xaeb5(%rip),%rax        # 162b8 <g_763>
    b403:	48 89 85 30 fa ff ff 	mov    %rax,-0x5d0(%rbp)
    b40a:	48 8d 85 e0 eb ff ff 	lea    -0x1420(%rbp),%rax
    b411:	48 83 c0 18          	add    $0x18,%rax
    b415:	48 89 85 38 fa ff ff 	mov    %rax,-0x5c8(%rbp)
    b41c:	48 8d 85 80 eb ff ff 	lea    -0x1480(%rbp),%rax
    b423:	48 83 c0 08          	add    $0x8,%rax
    b427:	48 89 85 40 fa ff ff 	mov    %rax,-0x5c0(%rbp)
    b42e:	48 8d 05 0f ac 00 00 	lea    0xac0f(%rip),%rax        # 16044 <g_13>
    b435:	48 89 85 48 fa ff ff 	mov    %rax,-0x5b8(%rbp)
    b43c:	48 8d 05 01 ac 00 00 	lea    0xac01(%rip),%rax        # 16044 <g_13>
    b443:	48 89 85 50 fa ff ff 	mov    %rax,-0x5b0(%rbp)
    b44a:	48 8d 85 70 e9 ff ff 	lea    -0x1690(%rbp),%rax
    b451:	48 89 85 58 fa ff ff 	mov    %rax,-0x5a8(%rbp)
    b458:	48 8d 85 e0 eb ff ff 	lea    -0x1420(%rbp),%rax
    b45f:	48 83 c0 1c          	add    $0x1c,%rax
    b463:	48 89 85 60 fa ff ff 	mov    %rax,-0x5a0(%rbp)
    b46a:	48 c7 85 68 fa ff ff 	movq   $0x0,-0x598(%rbp)
    b471:	00 00 00 00 
    b475:	48 8d 85 e0 eb ff ff 	lea    -0x1420(%rbp),%rax
    b47c:	48 83 c0 1c          	add    $0x1c,%rax
    b480:	48 89 85 70 fa ff ff 	mov    %rax,-0x590(%rbp)
    b487:	48 8d 85 70 e9 ff ff 	lea    -0x1690(%rbp),%rax
    b48e:	48 89 85 78 fa ff ff 	mov    %rax,-0x588(%rbp)
    b495:	48 8d 05 a8 ab 00 00 	lea    0xaba8(%rip),%rax        # 16044 <g_13>
    b49c:	48 89 85 80 fa ff ff 	mov    %rax,-0x580(%rbp)
    b4a3:	48 8d 85 e0 eb ff ff 	lea    -0x1420(%rbp),%rax
    b4aa:	48 83 c0 18          	add    $0x18,%rax
    b4ae:	48 89 85 88 fa ff ff 	mov    %rax,-0x578(%rbp)
    b4b5:	48 8d 85 68 e9 ff ff 	lea    -0x1698(%rbp),%rax
    b4bc:	48 89 85 90 fa ff ff 	mov    %rax,-0x570(%rbp)
    b4c3:	48 8d 05 ee ad 00 00 	lea    0xadee(%rip),%rax        # 162b8 <g_763>
    b4ca:	48 89 85 98 fa ff ff 	mov    %rax,-0x568(%rbp)
    b4d1:	48 8d 05 e4 ab 00 00 	lea    0xabe4(%rip),%rax        # 160bc <g_82>
    b4d8:	48 89 85 a0 fa ff ff 	mov    %rax,-0x560(%rbp)
    b4df:	48 8d 05 42 ab 00 00 	lea    0xab42(%rip),%rax        # 16028 <g_8>
    b4e6:	48 89 85 a8 fa ff ff 	mov    %rax,-0x558(%rbp)
    b4ed:	48 c7 85 b0 fa ff ff 	movq   $0x0,-0x550(%rbp)
    b4f4:	00 00 00 00 
    b4f8:	48 8d 85 e0 eb ff ff 	lea    -0x1420(%rbp),%rax
    b4ff:	48 83 c0 18          	add    $0x18,%rax
    b503:	48 89 85 b8 fa ff ff 	mov    %rax,-0x548(%rbp)
    b50a:	48 c7 85 c0 fa ff ff 	movq   $0x0,-0x540(%rbp)
    b511:	00 00 00 00 
    b515:	48 8d 05 0c ab 00 00 	lea    0xab0c(%rip),%rax        # 16028 <g_8>
    b51c:	48 89 85 c8 fa ff ff 	mov    %rax,-0x538(%rbp)
    b523:	48 8d 85 74 e9 ff ff 	lea    -0x168c(%rbp),%rax
    b52a:	48 89 85 d0 fa ff ff 	mov    %rax,-0x530(%rbp)
    b531:	48 8d 85 70 e9 ff ff 	lea    -0x1690(%rbp),%rax
    b538:	48 89 85 d8 fa ff ff 	mov    %rax,-0x528(%rbp)
    b53f:	48 8d 05 e2 aa 00 00 	lea    0xaae2(%rip),%rax        # 16028 <g_8>
    b546:	48 89 85 e0 fa ff ff 	mov    %rax,-0x520(%rbp)
    b54d:	48 c7 85 e8 fa ff ff 	movq   $0x0,-0x518(%rbp)
    b554:	00 00 00 00 
    b558:	48 c7 85 f0 fa ff ff 	movq   $0x0,-0x510(%rbp)
    b55f:	00 00 00 00 
    b563:	48 8d 85 74 e9 ff ff 	lea    -0x168c(%rbp),%rax
    b56a:	48 89 85 f8 fa ff ff 	mov    %rax,-0x508(%rbp)
    b571:	48 8d 85 80 eb ff ff 	lea    -0x1480(%rbp),%rax
    b578:	48 83 c0 08          	add    $0x8,%rax
    b57c:	48 89 85 00 fb ff ff 	mov    %rax,-0x500(%rbp)
    b583:	48 c7 85 08 fb ff ff 	movq   $0x0,-0x4f8(%rbp)
    b58a:	00 00 00 00 
    b58e:	48 8d 85 68 e9 ff ff 	lea    -0x1698(%rbp),%rax
    b595:	48 89 85 10 fb ff ff 	mov    %rax,-0x4f0(%rbp)
    b59c:	48 8d 85 80 eb ff ff 	lea    -0x1480(%rbp),%rax
    b5a3:	48 83 c0 04          	add    $0x4,%rax
    b5a7:	48 89 85 18 fb ff ff 	mov    %rax,-0x4e8(%rbp)
    b5ae:	48 8d 05 8f aa 00 00 	lea    0xaa8f(%rip),%rax        # 16044 <g_13>
    b5b5:	48 89 85 20 fb ff ff 	mov    %rax,-0x4e0(%rbp)
    b5bc:	48 8d 05 65 aa 00 00 	lea    0xaa65(%rip),%rax        # 16028 <g_8>
    b5c3:	48 89 85 28 fb ff ff 	mov    %rax,-0x4d8(%rbp)
    b5ca:	48 8d 85 e0 eb ff ff 	lea    -0x1420(%rbp),%rax
    b5d1:	48 83 c0 1c          	add    $0x1c,%rax
    b5d5:	48 89 85 30 fb ff ff 	mov    %rax,-0x4d0(%rbp)
    b5dc:	48 8d 85 a0 eb ff ff 	lea    -0x1460(%rbp),%rax
    b5e3:	48 83 c0 08          	add    $0x8,%rax
    b5e7:	48 89 85 38 fb ff ff 	mov    %rax,-0x4c8(%rbp)
    b5ee:	48 8d 05 33 aa 00 00 	lea    0xaa33(%rip),%rax        # 16028 <g_8>
    b5f5:	48 89 85 40 fb ff ff 	mov    %rax,-0x4c0(%rbp)
    b5fc:	48 8d 85 7c e9 ff ff 	lea    -0x1684(%rbp),%rax
    b603:	48 89 85 48 fb ff ff 	mov    %rax,-0x4b8(%rbp)
    b60a:	48 8d 05 33 aa 00 00 	lea    0xaa33(%rip),%rax        # 16044 <g_13>
    b611:	48 89 85 50 fb ff ff 	mov    %rax,-0x4b0(%rbp)
    b618:	48 8d 85 a0 eb ff ff 	lea    -0x1460(%rbp),%rax
    b61f:	48 89 85 58 fb ff ff 	mov    %rax,-0x4a8(%rbp)
    b626:	48 8d 05 8b ac 00 00 	lea    0xac8b(%rip),%rax        # 162b8 <g_763>
    b62d:	48 89 85 60 fb ff ff 	mov    %rax,-0x4a0(%rbp)
    b634:	48 8d 85 68 e9 ff ff 	lea    -0x1698(%rbp),%rax
    b63b:	48 89 85 68 fb ff ff 	mov    %rax,-0x498(%rbp)
    b642:	48 8d 05 6f ac 00 00 	lea    0xac6f(%rip),%rax        # 162b8 <g_763>
    b649:	48 89 85 70 fb ff ff 	mov    %rax,-0x490(%rbp)
    b650:	48 8d 85 a0 eb ff ff 	lea    -0x1460(%rbp),%rax
    b657:	48 89 85 78 fb ff ff 	mov    %rax,-0x488(%rbp)
    b65e:	48 8d 85 68 e9 ff ff 	lea    -0x1698(%rbp),%rax
    b665:	48 89 85 80 fb ff ff 	mov    %rax,-0x480(%rbp)
    b66c:	48 8d 85 74 e9 ff ff 	lea    -0x168c(%rbp),%rax
    b673:	48 89 85 88 fb ff ff 	mov    %rax,-0x478(%rbp)
    b67a:	48 8d 85 74 e9 ff ff 	lea    -0x168c(%rbp),%rax
    b681:	48 89 85 90 fb ff ff 	mov    %rax,-0x470(%rbp)
    b688:	48 c7 85 98 fb ff ff 	movq   $0x0,-0x468(%rbp)
    b68f:	00 00 00 00 
    b693:	48 8d 85 a0 eb ff ff 	lea    -0x1460(%rbp),%rax
    b69a:	48 83 c0 08          	add    $0x8,%rax
    b69e:	48 89 85 a0 fb ff ff 	mov    %rax,-0x460(%rbp)
    b6a5:	48 8d 85 e0 eb ff ff 	lea    -0x1420(%rbp),%rax
    b6ac:	48 89 85 a8 fb ff ff 	mov    %rax,-0x458(%rbp)
    b6b3:	48 c7 85 b0 fb ff ff 	movq   $0x0,-0x450(%rbp)
    b6ba:	00 00 00 00 
    b6be:	48 8d 05 7f a9 00 00 	lea    0xa97f(%rip),%rax        # 16044 <g_13>
    b6c5:	48 89 85 b8 fb ff ff 	mov    %rax,-0x448(%rbp)
    b6cc:	48 8d 05 55 a9 00 00 	lea    0xa955(%rip),%rax        # 16028 <g_8>
    b6d3:	48 89 85 c0 fb ff ff 	mov    %rax,-0x440(%rbp)
    b6da:	48 8d 85 68 e9 ff ff 	lea    -0x1698(%rbp),%rax
    b6e1:	48 89 85 c8 fb ff ff 	mov    %rax,-0x438(%rbp)
    b6e8:	48 8d 85 80 eb ff ff 	lea    -0x1480(%rbp),%rax
    b6ef:	48 83 c0 0c          	add    $0xc,%rax
    b6f3:	48 89 85 d0 fb ff ff 	mov    %rax,-0x430(%rbp)
    b6fa:	48 8d 85 80 eb ff ff 	lea    -0x1480(%rbp),%rax
    b701:	48 83 c0 08          	add    $0x8,%rax
    b705:	48 89 85 d8 fb ff ff 	mov    %rax,-0x428(%rbp)
    b70c:	48 8d 85 68 e9 ff ff 	lea    -0x1698(%rbp),%rax
    b713:	48 89 85 e0 fb ff ff 	mov    %rax,-0x420(%rbp)
    b71a:	48 8d 05 97 ab 00 00 	lea    0xab97(%rip),%rax        # 162b8 <g_763>
    b721:	48 89 85 e8 fb ff ff 	mov    %rax,-0x418(%rbp)
    b728:	48 8d 05 15 a9 00 00 	lea    0xa915(%rip),%rax        # 16044 <g_13>
    b72f:	48 89 85 f0 fb ff ff 	mov    %rax,-0x410(%rbp)
    b736:	48 8d 85 80 eb ff ff 	lea    -0x1480(%rbp),%rax
    b73d:	48 83 c0 04          	add    $0x4,%rax
    b741:	48 89 85 f8 fb ff ff 	mov    %rax,-0x408(%rbp)
    b748:	48 8d 85 a0 eb ff ff 	lea    -0x1460(%rbp),%rax
    b74f:	48 89 85 00 fc ff ff 	mov    %rax,-0x400(%rbp)
    b756:	48 8d 05 e7 a8 00 00 	lea    0xa8e7(%rip),%rax        # 16044 <g_13>
    b75d:	48 89 85 08 fc ff ff 	mov    %rax,-0x3f8(%rbp)
    b764:	48 8d 85 a0 eb ff ff 	lea    -0x1460(%rbp),%rax
    b76b:	48 89 85 10 fc ff ff 	mov    %rax,-0x3f0(%rbp)
    b772:	48 8d 85 a0 eb ff ff 	lea    -0x1460(%rbp),%rax
    b779:	48 89 85 18 fc ff ff 	mov    %rax,-0x3e8(%rbp)
    b780:	48 8d 85 70 e9 ff ff 	lea    -0x1690(%rbp),%rax
    b787:	48 89 85 20 fc ff ff 	mov    %rax,-0x3e0(%rbp)
    b78e:	48 8d 85 68 e9 ff ff 	lea    -0x1698(%rbp),%rax
    b795:	48 89 85 28 fc ff ff 	mov    %rax,-0x3d8(%rbp)
    b79c:	48 8d 05 15 ab 00 00 	lea    0xab15(%rip),%rax        # 162b8 <g_763>
    b7a3:	48 89 85 30 fc ff ff 	mov    %rax,-0x3d0(%rbp)
    b7aa:	48 8d 85 e0 eb ff ff 	lea    -0x1420(%rbp),%rax
    b7b1:	48 83 c0 18          	add    $0x18,%rax
    b7b5:	48 89 85 38 fc ff ff 	mov    %rax,-0x3c8(%rbp)
    b7bc:	48 8d 85 74 e9 ff ff 	lea    -0x168c(%rbp),%rax
    b7c3:	48 89 85 40 fc ff ff 	mov    %rax,-0x3c0(%rbp)
    b7ca:	48 8d 85 7c e9 ff ff 	lea    -0x1684(%rbp),%rax
    b7d1:	48 89 85 48 fc ff ff 	mov    %rax,-0x3b8(%rbp)
    b7d8:	48 8d 05 dd a8 00 00 	lea    0xa8dd(%rip),%rax        # 160bc <g_82>
    b7df:	48 89 85 50 fc ff ff 	mov    %rax,-0x3b0(%rbp)
    b7e6:	48 8d 85 74 e9 ff ff 	lea    -0x168c(%rbp),%rax
    b7ed:	48 89 85 58 fc ff ff 	mov    %rax,-0x3a8(%rbp)
    b7f4:	48 8d 85 7c e9 ff ff 	lea    -0x1684(%rbp),%rax
    b7fb:	48 89 85 60 fc ff ff 	mov    %rax,-0x3a0(%rbp)
    b802:	48 8d 05 3b a8 00 00 	lea    0xa83b(%rip),%rax        # 16044 <g_13>
    b809:	48 89 85 68 fc ff ff 	mov    %rax,-0x398(%rbp)
    b810:	48 8d 85 80 eb ff ff 	lea    -0x1480(%rbp),%rax
    b817:	48 83 c0 04          	add    $0x4,%rax
    b81b:	48 89 85 70 fc ff ff 	mov    %rax,-0x390(%rbp)
    b822:	48 8d 05 ff a7 00 00 	lea    0xa7ff(%rip),%rax        # 16028 <g_8>
    b829:	48 89 85 78 fc ff ff 	mov    %rax,-0x388(%rbp)
    b830:	48 8d 85 a0 eb ff ff 	lea    -0x1460(%rbp),%rax
    b837:	48 89 85 80 fc ff ff 	mov    %rax,-0x380(%rbp)
    b83e:	48 8d 85 a0 eb ff ff 	lea    -0x1460(%rbp),%rax
    b845:	48 89 85 88 fc ff ff 	mov    %rax,-0x378(%rbp)
    b84c:	48 8d 85 e0 eb ff ff 	lea    -0x1420(%rbp),%rax
    b853:	48 83 c0 0c          	add    $0xc,%rax
    b857:	48 89 85 90 fc ff ff 	mov    %rax,-0x370(%rbp)
    b85e:	48 8d 85 68 e9 ff ff 	lea    -0x1698(%rbp),%rax
    b865:	48 89 85 98 fc ff ff 	mov    %rax,-0x368(%rbp)
    b86c:	48 8d 85 74 e9 ff ff 	lea    -0x168c(%rbp),%rax
    b873:	48 89 85 a0 fc ff ff 	mov    %rax,-0x360(%rbp)
    b87a:	48 8d 85 74 e9 ff ff 	lea    -0x168c(%rbp),%rax
    b881:	48 89 85 a8 fc ff ff 	mov    %rax,-0x358(%rbp)
    b888:	48 8d 85 68 e9 ff ff 	lea    -0x1698(%rbp),%rax
    b88f:	48 89 85 b0 fc ff ff 	mov    %rax,-0x350(%rbp)
    b896:	48 8d 85 e0 eb ff ff 	lea    -0x1420(%rbp),%rax
    b89d:	48 83 c0 0c          	add    $0xc,%rax
    b8a1:	48 89 85 b8 fc ff ff 	mov    %rax,-0x348(%rbp)
    b8a8:	48 c7 85 c0 fc ff ff 	movq   $0x0,-0x340(%rbp)
    b8af:	00 00 00 00 
    b8b3:	48 8d 85 e0 eb ff ff 	lea    -0x1420(%rbp),%rax
    b8ba:	48 89 85 c8 fc ff ff 	mov    %rax,-0x338(%rbp)
    b8c1:	48 8d 85 7c e9 ff ff 	lea    -0x1684(%rbp),%rax
    b8c8:	48 89 85 d0 fc ff ff 	mov    %rax,-0x330(%rbp)
    b8cf:	48 8d 85 e0 eb ff ff 	lea    -0x1420(%rbp),%rax
    b8d6:	48 83 c0 18          	add    $0x18,%rax
    b8da:	48 89 85 d8 fc ff ff 	mov    %rax,-0x328(%rbp)
    b8e1:	48 8d 85 a0 eb ff ff 	lea    -0x1460(%rbp),%rax
    b8e8:	48 89 85 e0 fc ff ff 	mov    %rax,-0x320(%rbp)
    b8ef:	48 8d 85 68 e9 ff ff 	lea    -0x1698(%rbp),%rax
    b8f6:	48 89 85 e8 fc ff ff 	mov    %rax,-0x318(%rbp)
    b8fd:	48 8d 85 70 e9 ff ff 	lea    -0x1690(%rbp),%rax
    b904:	48 89 85 f0 fc ff ff 	mov    %rax,-0x310(%rbp)
    b90b:	48 8d 85 e0 eb ff ff 	lea    -0x1420(%rbp),%rax
    b912:	48 83 c0 18          	add    $0x18,%rax
    b916:	48 89 85 f8 fc ff ff 	mov    %rax,-0x308(%rbp)
    b91d:	48 8d 05 98 a7 00 00 	lea    0xa798(%rip),%rax        # 160bc <g_82>
    b924:	48 89 85 00 fd ff ff 	mov    %rax,-0x300(%rbp)
    b92b:	48 8d 05 8a a7 00 00 	lea    0xa78a(%rip),%rax        # 160bc <g_82>
    b932:	48 89 85 08 fd ff ff 	mov    %rax,-0x2f8(%rbp)
    b939:	48 8d 85 68 e9 ff ff 	lea    -0x1698(%rbp),%rax
    b940:	48 89 85 10 fd ff ff 	mov    %rax,-0x2f0(%rbp)
    b947:	48 c7 85 18 fd ff ff 	movq   $0x0,-0x2e8(%rbp)
    b94e:	00 00 00 00 
    b952:	48 8d 85 a0 eb ff ff 	lea    -0x1460(%rbp),%rax
    b959:	48 83 c0 08          	add    $0x8,%rax
    b95d:	48 89 85 20 fd ff ff 	mov    %rax,-0x2e0(%rbp)
    b964:	48 8d 85 68 e9 ff ff 	lea    -0x1698(%rbp),%rax
    b96b:	48 89 85 28 fd ff ff 	mov    %rax,-0x2d8(%rbp)
    b972:	48 8d 85 80 eb ff ff 	lea    -0x1480(%rbp),%rax
    b979:	48 83 c0 08          	add    $0x8,%rax
    b97d:	48 89 85 30 fd ff ff 	mov    %rax,-0x2d0(%rbp)
    b984:	48 8d 85 a0 eb ff ff 	lea    -0x1460(%rbp),%rax
    b98b:	48 89 85 38 fd ff ff 	mov    %rax,-0x2c8(%rbp)
    b992:	48 8d 85 e0 eb ff ff 	lea    -0x1420(%rbp),%rax
    b999:	48 83 c0 18          	add    $0x18,%rax
    b99d:	48 89 85 40 fd ff ff 	mov    %rax,-0x2c0(%rbp)
    b9a4:	48 8d 85 e0 eb ff ff 	lea    -0x1420(%rbp),%rax
    b9ab:	48 89 85 48 fd ff ff 	mov    %rax,-0x2b8(%rbp)
    b9b2:	48 8d 85 a0 eb ff ff 	lea    -0x1460(%rbp),%rax
    b9b9:	48 83 c0 08          	add    $0x8,%rax
    b9bd:	48 89 85 50 fd ff ff 	mov    %rax,-0x2b0(%rbp)
    b9c4:	48 8d 85 80 eb ff ff 	lea    -0x1480(%rbp),%rax
    b9cb:	48 83 c0 08          	add    $0x8,%rax
    b9cf:	48 89 85 58 fd ff ff 	mov    %rax,-0x2a8(%rbp)
    b9d6:	48 8d 05 4b a6 00 00 	lea    0xa64b(%rip),%rax        # 16028 <g_8>
    b9dd:	48 89 85 60 fd ff ff 	mov    %rax,-0x2a0(%rbp)
    b9e4:	48 8d 85 74 e9 ff ff 	lea    -0x168c(%rbp),%rax
    b9eb:	48 89 85 68 fd ff ff 	mov    %rax,-0x298(%rbp)
    b9f2:	48 8d 05 4b a6 00 00 	lea    0xa64b(%rip),%rax        # 16044 <g_13>
    b9f9:	48 89 85 70 fd ff ff 	mov    %rax,-0x290(%rbp)
    ba00:	48 c7 85 78 fd ff ff 	movq   $0x0,-0x288(%rbp)
    ba07:	00 00 00 00 
    ba0b:	48 8d 85 a0 eb ff ff 	lea    -0x1460(%rbp),%rax
    ba12:	48 89 85 80 fd ff ff 	mov    %rax,-0x280(%rbp)
    ba19:	48 8d 85 a0 eb ff ff 	lea    -0x1460(%rbp),%rax
    ba20:	48 89 85 88 fd ff ff 	mov    %rax,-0x278(%rbp)
    ba27:	48 c7 85 90 fd ff ff 	movq   $0x0,-0x270(%rbp)
    ba2e:	00 00 00 00 
    ba32:	48 c7 85 98 fd ff ff 	movq   $0x0,-0x268(%rbp)
    ba39:	00 00 00 00 
    ba3d:	48 8d 85 80 eb ff ff 	lea    -0x1480(%rbp),%rax
    ba44:	48 83 c0 08          	add    $0x8,%rax
    ba48:	48 89 85 a0 fd ff ff 	mov    %rax,-0x260(%rbp)
    ba4f:	48 8d 05 ee a5 00 00 	lea    0xa5ee(%rip),%rax        # 16044 <g_13>
    ba56:	48 89 85 a8 fd ff ff 	mov    %rax,-0x258(%rbp)
    ba5d:	48 8d 85 e0 eb ff ff 	lea    -0x1420(%rbp),%rax
    ba64:	48 89 85 b0 fd ff ff 	mov    %rax,-0x250(%rbp)
    ba6b:	48 c7 85 b8 fd ff ff 	movq   $0x0,-0x248(%rbp)
    ba72:	00 00 00 00 
    ba76:	48 c7 85 c0 fd ff ff 	movq   $0x0,-0x240(%rbp)
    ba7d:	00 00 00 00 
    ba81:	48 8d 85 7c e9 ff ff 	lea    -0x1684(%rbp),%rax
    ba88:	48 89 85 c8 fd ff ff 	mov    %rax,-0x238(%rbp)
    ba8f:	48 8d 85 e0 eb ff ff 	lea    -0x1420(%rbp),%rax
    ba96:	48 83 c0 18          	add    $0x18,%rax
    ba9a:	48 89 85 d0 fd ff ff 	mov    %rax,-0x230(%rbp)
    baa1:	48 8d 85 e0 eb ff ff 	lea    -0x1420(%rbp),%rax
    baa8:	48 83 c0 18          	add    $0x18,%rax
    baac:	48 89 85 d8 fd ff ff 	mov    %rax,-0x228(%rbp)
    bab3:	48 8d 85 e0 eb ff ff 	lea    -0x1420(%rbp),%rax
    baba:	48 83 c0 18          	add    $0x18,%rax
    babe:	48 89 85 e0 fd ff ff 	mov    %rax,-0x220(%rbp)
    bac5:	48 8d 85 68 e9 ff ff 	lea    -0x1698(%rbp),%rax
    bacc:	48 89 85 e8 fd ff ff 	mov    %rax,-0x218(%rbp)
    bad3:	48 8d 85 68 e9 ff ff 	lea    -0x1698(%rbp),%rax
    bada:	48 89 85 f0 fd ff ff 	mov    %rax,-0x210(%rbp)
    bae1:	48 8d 85 80 eb ff ff 	lea    -0x1480(%rbp),%rax
    bae8:	48 83 c0 04          	add    $0x4,%rax
    baec:	48 89 85 f8 fd ff ff 	mov    %rax,-0x208(%rbp)
    baf3:	48 8d 05 4a a5 00 00 	lea    0xa54a(%rip),%rax        # 16044 <g_13>
    bafa:	48 89 85 00 fe ff ff 	mov    %rax,-0x200(%rbp)
    bb01:	48 8d 05 3c a5 00 00 	lea    0xa53c(%rip),%rax        # 16044 <g_13>
    bb08:	48 89 85 08 fe ff ff 	mov    %rax,-0x1f8(%rbp)
    bb0f:	48 c7 85 10 fe ff ff 	movq   $0x0,-0x1f0(%rbp)
    bb16:	00 00 00 00 
    bb1a:	48 c7 85 18 fe ff ff 	movq   $0x0,-0x1e8(%rbp)
    bb21:	00 00 00 00 
    bb25:	48 8d 05 fc a4 00 00 	lea    0xa4fc(%rip),%rax        # 16028 <g_8>
    bb2c:	48 89 85 20 fe ff ff 	mov    %rax,-0x1e0(%rbp)
    bb33:	48 8d 05 7e a7 00 00 	lea    0xa77e(%rip),%rax        # 162b8 <g_763>
    bb3a:	48 89 85 28 fe ff ff 	mov    %rax,-0x1d8(%rbp)
    bb41:	48 8d 85 80 eb ff ff 	lea    -0x1480(%rbp),%rax
    bb48:	48 83 c0 08          	add    $0x8,%rax
    bb4c:	48 89 85 30 fe ff ff 	mov    %rax,-0x1d0(%rbp)
    bb53:	48 c7 85 38 fe ff ff 	movq   $0x0,-0x1c8(%rbp)
    bb5a:	00 00 00 00 
    bb5e:	48 8d 05 53 a7 00 00 	lea    0xa753(%rip),%rax        # 162b8 <g_763>
    bb65:	48 89 85 40 fe ff ff 	mov    %rax,-0x1c0(%rbp)
    bb6c:	48 8d 85 68 e9 ff ff 	lea    -0x1698(%rbp),%rax
    bb73:	48 89 85 48 fe ff ff 	mov    %rax,-0x1b8(%rbp)
    bb7a:	48 8d 05 a7 a4 00 00 	lea    0xa4a7(%rip),%rax        # 16028 <g_8>
    bb81:	48 89 85 50 fe ff ff 	mov    %rax,-0x1b0(%rbp)
    bb88:	48 8d 85 a0 eb ff ff 	lea    -0x1460(%rbp),%rax
    bb8f:	48 83 c0 08          	add    $0x8,%rax
    bb93:	48 89 85 58 fe ff ff 	mov    %rax,-0x1a8(%rbp)
    bb9a:	48 8d 05 1b a5 00 00 	lea    0xa51b(%rip),%rax        # 160bc <g_82>
    bba1:	48 89 85 60 fe ff ff 	mov    %rax,-0x1a0(%rbp)
    bba8:	48 8d 85 74 e9 ff ff 	lea    -0x168c(%rbp),%rax
    bbaf:	48 89 85 68 fe ff ff 	mov    %rax,-0x198(%rbp)
    bbb6:	48 8d 85 a0 eb ff ff 	lea    -0x1460(%rbp),%rax
    bbbd:	48 83 c0 08          	add    $0x8,%rax
    bbc1:	48 89 85 70 fe ff ff 	mov    %rax,-0x190(%rbp)
    bbc8:	48 8d 85 80 eb ff ff 	lea    -0x1480(%rbp),%rax
    bbcf:	48 83 c0 04          	add    $0x4,%rax
    bbd3:	48 89 85 78 fe ff ff 	mov    %rax,-0x188(%rbp)
    bbda:	48 8d 05 d7 a6 00 00 	lea    0xa6d7(%rip),%rax        # 162b8 <g_763>
    bbe1:	48 89 85 80 fe ff ff 	mov    %rax,-0x180(%rbp)
    bbe8:	48 8d 05 c9 a6 00 00 	lea    0xa6c9(%rip),%rax        # 162b8 <g_763>
    bbef:	48 89 85 88 fe ff ff 	mov    %rax,-0x178(%rbp)
    bbf6:	48 8d 85 7c e9 ff ff 	lea    -0x1684(%rbp),%rax
    bbfd:	48 89 85 90 fe ff ff 	mov    %rax,-0x170(%rbp)
    bc04:	48 8d 85 e0 eb ff ff 	lea    -0x1420(%rbp),%rax
    bc0b:	48 83 c0 1c          	add    $0x1c,%rax
    bc0f:	48 89 85 98 fe ff ff 	mov    %rax,-0x168(%rbp)
    bc16:	48 8d 05 9f a4 00 00 	lea    0xa49f(%rip),%rax        # 160bc <g_82>
    bc1d:	48 89 85 a0 fe ff ff 	mov    %rax,-0x160(%rbp)
    bc24:	48 8d 85 68 e9 ff ff 	lea    -0x1698(%rbp),%rax
    bc2b:	48 89 85 a8 fe ff ff 	mov    %rax,-0x158(%rbp)
    bc32:	48 8d 85 7c e9 ff ff 	lea    -0x1684(%rbp),%rax
    bc39:	48 89 85 b0 fe ff ff 	mov    %rax,-0x150(%rbp)
    bc40:	48 8d 85 80 eb ff ff 	lea    -0x1480(%rbp),%rax
    bc47:	48 83 c0 08          	add    $0x8,%rax
    bc4b:	48 89 85 b8 fe ff ff 	mov    %rax,-0x148(%rbp)
    bc52:	48 8d 05 cf a3 00 00 	lea    0xa3cf(%rip),%rax        # 16028 <g_8>
    bc59:	48 89 85 c0 fe ff ff 	mov    %rax,-0x140(%rbp)
    bc60:	48 8d 85 80 eb ff ff 	lea    -0x1480(%rbp),%rax
    bc67:	48 83 c0 08          	add    $0x8,%rax
    bc6b:	48 89 85 c8 fe ff ff 	mov    %rax,-0x138(%rbp)
    bc72:	48 8d 85 80 eb ff ff 	lea    -0x1480(%rbp),%rax
    bc79:	48 83 c0 08          	add    $0x8,%rax
    bc7d:	48 89 85 d0 fe ff ff 	mov    %rax,-0x130(%rbp)
    bc84:	48 8d 05 2d a6 00 00 	lea    0xa62d(%rip),%rax        # 162b8 <g_763>
    bc8b:	48 89 85 d8 fe ff ff 	mov    %rax,-0x128(%rbp)
    bc92:	48 c7 85 e0 fe ff ff 	movq   $0x0,-0x120(%rbp)
    bc99:	00 00 00 00 
    bc9d:	48 8d 05 14 a6 00 00 	lea    0xa614(%rip),%rax        # 162b8 <g_763>
    bca4:	48 89 85 e8 fe ff ff 	mov    %rax,-0x118(%rbp)
    bcab:	48 8d 85 80 eb ff ff 	lea    -0x1480(%rbp),%rax
    bcb2:	48 83 c0 08          	add    $0x8,%rax
    bcb6:	48 89 85 f0 fe ff ff 	mov    %rax,-0x110(%rbp)
    bcbd:	48 8d 85 7c e9 ff ff 	lea    -0x1684(%rbp),%rax
    bcc4:	48 89 85 f8 fe ff ff 	mov    %rax,-0x108(%rbp)
    bccb:	48 8d 85 a0 eb ff ff 	lea    -0x1460(%rbp),%rax
    bcd2:	48 89 85 00 ff ff ff 	mov    %rax,-0x100(%rbp)
    bcd9:	48 8d 05 d8 a5 00 00 	lea    0xa5d8(%rip),%rax        # 162b8 <g_763>
    bce0:	48 89 85 08 ff ff ff 	mov    %rax,-0xf8(%rbp)
    bce7:	48 8d 85 e0 eb ff ff 	lea    -0x1420(%rbp),%rax
    bcee:	48 83 c0 1c          	add    $0x1c,%rax
    bcf2:	48 89 85 10 ff ff ff 	mov    %rax,-0xf0(%rbp)
    bcf9:	48 c7 85 18 ff ff ff 	movq   $0x0,-0xe8(%rbp)
    bd00:	00 00 00 00 
    bd04:	48 8d 85 80 eb ff ff 	lea    -0x1480(%rbp),%rax
    bd0b:	48 83 c0 0c          	add    $0xc,%rax
    bd0f:	48 89 85 20 ff ff ff 	mov    %rax,-0xe0(%rbp)
    bd16:	48 8d 85 a0 eb ff ff 	lea    -0x1460(%rbp),%rax
    bd1d:	48 89 85 28 ff ff ff 	mov    %rax,-0xd8(%rbp)
    bd24:	48 8d 85 e0 eb ff ff 	lea    -0x1420(%rbp),%rax
    bd2b:	48 83 c0 18          	add    $0x18,%rax
    bd2f:	48 89 85 30 ff ff ff 	mov    %rax,-0xd0(%rbp)
    bd36:	48 c7 85 38 ff ff ff 	movq   $0x0,-0xc8(%rbp)
    bd3d:	00 00 00 00 
    bd41:	48 c7 85 40 ff ff ff 	movq   $0x0,-0xc0(%rbp)
    bd48:	00 00 00 00 
    bd4c:	48 8d 05 65 a5 00 00 	lea    0xa565(%rip),%rax        # 162b8 <g_763>
    bd53:	48 89 85 48 ff ff ff 	mov    %rax,-0xb8(%rbp)
    bd5a:	48 8d 85 68 e9 ff ff 	lea    -0x1698(%rbp),%rax
    bd61:	48 89 85 50 ff ff ff 	mov    %rax,-0xb0(%rbp)
    bd68:	48 8d 85 e0 eb ff ff 	lea    -0x1420(%rbp),%rax
    bd6f:	48 83 c0 18          	add    $0x18,%rax
    bd73:	48 89 85 58 ff ff ff 	mov    %rax,-0xa8(%rbp)
    bd7a:	48 8d 85 80 eb ff ff 	lea    -0x1480(%rbp),%rax
    bd81:	48 83 c0 0c          	add    $0xc,%rax
    bd85:	48 89 85 60 ff ff ff 	mov    %rax,-0xa0(%rbp)
    bd8c:	48 8d 85 68 e9 ff ff 	lea    -0x1698(%rbp),%rax
    bd93:	48 89 85 68 ff ff ff 	mov    %rax,-0x98(%rbp)
    bd9a:	48 8d 05 a3 a2 00 00 	lea    0xa2a3(%rip),%rax        # 16044 <g_13>
    bda1:	48 89 85 70 ff ff ff 	mov    %rax,-0x90(%rbp)
    bda8:	48 8d 05 79 a2 00 00 	lea    0xa279(%rip),%rax        # 16028 <g_8>
    bdaf:	48 89 85 78 ff ff ff 	mov    %rax,-0x88(%rbp)
    bdb6:	48 8d 85 a0 eb ff ff 	lea    -0x1460(%rbp),%rax
    bdbd:	48 89 45 80          	mov    %rax,-0x80(%rbp)
    bdc1:	48 8d 05 60 a2 00 00 	lea    0xa260(%rip),%rax        # 16028 <g_8>
    bdc8:	48 89 45 88          	mov    %rax,-0x78(%rbp)
    bdcc:	48 8d 85 e0 eb ff ff 	lea    -0x1420(%rbp),%rax
    bdd3:	48 83 c0 18          	add    $0x18,%rax
    bdd7:	48 89 45 90          	mov    %rax,-0x70(%rbp)
    bddb:	48 8d 05 46 a2 00 00 	lea    0xa246(%rip),%rax        # 16028 <g_8>
    bde2:	48 89 45 98          	mov    %rax,-0x68(%rbp)
    bde6:	48 c7 45 a0 00 00 00 	movq   $0x0,-0x60(%rbp)
    bded:	00 
    bdee:	48 8d 05 c3 a4 00 00 	lea    0xa4c3(%rip),%rax        # 162b8 <g_763>
    bdf5:	48 89 45 a8          	mov    %rax,-0x58(%rbp)
    bdf9:	48 8d 05 b8 a4 00 00 	lea    0xa4b8(%rip),%rax        # 162b8 <g_763>
    be00:	48 89 45 b0          	mov    %rax,-0x50(%rbp)
    be04:	48 8d 85 e0 eb ff ff 	lea    -0x1420(%rbp),%rax
    be0b:	48 83 c0 18          	add    $0x18,%rax
    be0f:	48 89 45 b8          	mov    %rax,-0x48(%rbp)
    be13:	48 8d 05 0e a2 00 00 	lea    0xa20e(%rip),%rax        # 16028 <g_8>
    be1a:	48 89 45 c0          	mov    %rax,-0x40(%rbp)
    be1e:	48 8d 05 1f a2 00 00 	lea    0xa21f(%rip),%rax        # 16044 <g_13>
    be25:	48 89 45 c8          	mov    %rax,-0x38(%rbp)
    be29:	48 8b 05 98 c4 00 00 	mov    0xc498(%rip),%rax        # 182c8 <g_195>
    be30:	48 8b 00             	mov    (%rax),%rax
    be33:	48 8b 95 48 e9 ff ff 	mov    -0x16b8(%rbp),%rdx
    be3a:	48 8b 12             	mov    (%rdx),%rdx
    be3d:	48 89 10             	mov    %rdx,(%rax)
    be40:	48 8b 05 29 c4 00 00 	mov    0xc429(%rip),%rax        # 18270 <g_51>
    be47:	0f b6 10             	movzbl (%rax),%edx
    be4a:	48 8b 85 38 e9 ff ff 	mov    -0x16c8(%rbp),%rax
    be51:	88 10                	mov    %dl,(%rax)
    be53:	48 8b 85 d0 ea ff ff 	mov    -0x1530(%rbp),%rax
    be5a:	48 8b 00             	mov    (%rax),%rax
    be5d:	48 8b 00             	mov    (%rax),%rax
    be60:	48 8b 00             	mov    (%rax),%rax
    be63:	48 8b 95 80 fc ff ff 	mov    -0x380(%rbp),%rdx
    be6a:	48 89 10             	mov    %rdx,(%rax)
    be6d:	0f b6 05 3c a3 00 00 	movzbl 0xa33c(%rip),%eax        # 161b0 <g_338>
    be74:	0f b6 c0             	movzbl %al,%eax
    be77:	be 04 00 00 00       	mov    $0x4,%esi
    be7c:	48 89 c7             	mov    %rax,%rdi
    be7f:	e8 bd c9 ff ff       	callq  8841 <safe_add_func_int64_t_s_s>
    be84:	88 05 26 a3 00 00    	mov    %al,0xa326(%rip)        # 161b0 <g_338>
    be8a:	0f b6 05 1f a3 00 00 	movzbl 0xa31f(%rip),%eax        # 161b0 <g_338>
    be91:	3c 18                	cmp    $0x18,%al
    be93:	0f 87 da f1 ff ff    	ja     b073 <func_26+0x1011>
    be99:	48 8b 85 f0 ea ff ff 	mov    -0x1510(%rbp),%rax
    bea0:	e9 93 0c 00 00       	jmpq   cb38 <func_26+0x2ad6>
    bea5:	66 c7 85 62 e9 ff ff 	movw   $0x3d67,-0x169e(%rbp)
    beac:	67 3d 
    beae:	48 8d 05 1b a4 00 00 	lea    0xa41b(%rip),%rax        # 162d0 <g_905>
    beb5:	48 89 85 e8 ea ff ff 	mov    %rax,-0x1518(%rbp)
    bebc:	c7 85 dc e9 ff ff 00 	movl   $0x0,-0x1624(%rbp)
    bec3:	00 00 00 
    bec6:	48 8b 85 20 ea ff ff 	mov    -0x15e0(%rbp),%rax
    becd:	c6 00 01             	movb   $0x1,(%rax)
    bed0:	0f b7 85 62 e9 ff ff 	movzwl -0x169e(%rbp),%eax
    bed7:	0f b6 c0             	movzbl %al,%eax
    beda:	89 c6                	mov    %eax,%esi
    bedc:	bf 00 00 00 00       	mov    $0x0,%edi
    bee1:	e8 ad cc ff ff       	callq  8b93 <safe_mul_func_uint8_t_u_u>
    bee6:	0f be c0             	movsbl %al,%eax
    bee9:	be 01 00 00 00       	mov    $0x1,%esi
    beee:	89 c7                	mov    %eax,%edi
    bef0:	e8 77 c4 ff ff       	callq  836c <safe_rshift_func_int8_t_s_u>
    bef5:	48 0f be c0          	movsbq %al,%rax
    bef9:	48 89 85 90 ec ff ff 	mov    %rax,-0x1370(%rbp)
    bf00:	c7 05 ba a1 00 00 00 	movl   $0x0,0xa1ba(%rip)        # 160c4 <g_119>
    bf07:	00 00 00 
    bf0a:	e9 ad 02 00 00       	jmpq   c1bc <func_26+0x215a>
    bf0f:	c7 85 e0 e9 ff ff 88 	movl   $0x3531a188,-0x1620(%rbp)
    bf16:	a1 31 35 
    bf19:	48 8b 05 00 c3 00 00 	mov    0xc300(%rip),%rax        # 18220 <g_2>
    bf20:	8b 10                	mov    (%rax),%edx
    bf22:	8b 85 68 e9 ff ff    	mov    -0x1698(%rbp),%eax
    bf28:	31 d0                	xor    %edx,%eax
    bf2a:	89 85 68 e9 ff ff    	mov    %eax,-0x1698(%rbp)
    bf30:	48 8b 85 60 ea ff ff 	mov    -0x15a0(%rbp),%rax
    bf37:	48 8b 00             	mov    (%rax),%rax
    bf3a:	8b 00                	mov    (%rax),%eax
    bf3c:	0f bf d8             	movswl %ax,%ebx
    bf3f:	48 8b 05 8a ca 00 00 	mov    0xca8a(%rip),%rax        # 189d0 <g_1087>
    bf46:	48 8b 00             	mov    (%rax),%rax
    bf49:	48 8b 00             	mov    (%rax),%rax
    bf4c:	44 8b 20             	mov    (%rax),%r12d
    bf4f:	48 8b 85 60 ea ff ff 	mov    -0x15a0(%rbp),%rax
    bf56:	48 8b 00             	mov    (%rax),%rax
    bf59:	8b 00                	mov    (%rax),%eax
    bf5b:	0f b7 c0             	movzwl %ax,%eax
    bf5e:	be ff ff 00 00       	mov    $0xffff,%esi
    bf63:	89 c7                	mov    %eax,%edi
    bf65:	e8 95 cd ff ff       	callq  8cff <safe_add_func_uint16_t_u_u>
    bf6a:	0f b7 d0             	movzwl %ax,%edx
    bf6d:	48 8b 05 b4 c2 00 00 	mov    0xc2b4(%rip),%rax        # 18228 <g_4>
    bf74:	48 8b 00             	mov    (%rax),%rax
    bf77:	8b 08                	mov    (%rax),%ecx
    bf79:	48 83 bd e8 ea ff ff 	cmpq   $0x0,-0x1518(%rbp)
    bf80:	00 
    bf81:	74 17                	je     bf9a <func_26+0x1f38>
    bf83:	48 8b 85 d0 ea ff ff 	mov    -0x1530(%rbp),%rax
    bf8a:	48 8b 00             	mov    (%rax),%rax
    bf8d:	48 8b 00             	mov    (%rax),%rax
    bf90:	48 8b 00             	mov    (%rax),%rax
    bf93:	48 8b 00             	mov    (%rax),%rax
    bf96:	8b 00                	mov    (%rax),%eax
    bf98:	85 c0                	test   %eax,%eax
    bf9a:	b8 01 00 00 00       	mov    $0x1,%eax
    bf9f:	39 c8                	cmp    %ecx,%eax
    bfa1:	74 07                	je     bfaa <func_26+0x1f48>
    bfa3:	b8 01 00 00 00       	mov    $0x1,%eax
    bfa8:	eb 05                	jmp    bfaf <func_26+0x1f4d>
    bfaa:	b8 00 00 00 00       	mov    $0x0,%eax
    bfaf:	39 d0                	cmp    %edx,%eax
    bfb1:	0f 94 c0             	sete   %al
    bfb4:	0f b6 d0             	movzbl %al,%edx
    bfb7:	8b 85 7c eb ff ff    	mov    -0x1484(%rbp),%eax
    bfbd:	21 d0                	and    %edx,%eax
    bfbf:	89 85 e0 e9 ff ff    	mov    %eax,-0x1620(%rbp)
    bfc5:	8b 85 e0 e9 ff ff    	mov    -0x1620(%rbp),%eax
    bfcb:	44 89 e6             	mov    %r12d,%esi
    bfce:	89 c7                	mov    %eax,%edi
    bfd0:	e8 30 c6 ff ff       	callq  8605 <safe_sub_func_int32_t_s_s>
    bfd5:	48 8b 95 38 e9 ff ff 	mov    -0x16c8(%rbp),%rdx
    bfdc:	0f b6 12             	movzbl (%rdx),%edx
    bfdf:	0f be d2             	movsbl %dl,%edx
    bfe2:	09 d0                	or     %edx,%eax
    bfe4:	89 c2                	mov    %eax,%edx
    bfe6:	48 8b 05 83 c2 00 00 	mov    0xc283(%rip),%rax        # 18270 <g_51>
    bfed:	0f b6 00             	movzbl (%rax),%eax
    bff0:	0f be c0             	movsbl %al,%eax
    bff3:	89 d6                	mov    %edx,%esi
    bff5:	89 c7                	mov    %eax,%edi
    bff7:	e8 70 c3 ff ff       	callq  836c <safe_rshift_func_int8_t_s_u>
    bffc:	84 c0                	test   %al,%al
    bffe:	74 11                	je     c011 <func_26+0x1faf>
    c000:	8b 85 8c eb ff ff    	mov    -0x1474(%rbp),%eax
    c006:	85 c0                	test   %eax,%eax
    c008:	74 07                	je     c011 <func_26+0x1faf>
    c00a:	b8 01 00 00 00       	mov    $0x1,%eax
    c00f:	eb 05                	jmp    c016 <func_26+0x1fb4>
    c011:	b8 00 00 00 00       	mov    $0x0,%eax
    c016:	98                   	cwtl   
    c017:	89 de                	mov    %ebx,%esi
    c019:	89 c7                	mov    %eax,%edi
    c01b:	e8 d5 c3 ff ff       	callq  83f5 <safe_mul_func_int16_t_s_s>
    c020:	66 85 c0             	test   %ax,%ax
    c023:	75 10                	jne    c035 <func_26+0x1fd3>
    c025:	48 8b 05 4c a1 00 00 	mov    0xa14c(%rip),%rax        # 16178 <g_324+0x78>
    c02c:	25 ff ff 3f 00       	and    $0x3fffff,%eax
    c031:	85 c0                	test   %eax,%eax
    c033:	74 07                	je     c03c <func_26+0x1fda>
    c035:	b8 01 00 00 00       	mov    $0x1,%eax
    c03a:	eb 05                	jmp    c041 <func_26+0x1fdf>
    c03c:	b8 00 00 00 00       	mov    $0x0,%eax
    c041:	0f b7 d0             	movzwl %ax,%edx
    c044:	0f b7 85 62 e9 ff ff 	movzwl -0x169e(%rbp),%eax
    c04b:	0f b7 c0             	movzwl %ax,%eax
    c04e:	89 d6                	mov    %edx,%esi
    c050:	89 c7                	mov    %eax,%edi
    c052:	e8 c8 cc ff ff       	callq  8d1f <safe_sub_func_uint16_t_u_u>
    c057:	48 8b 85 48 e9 ff ff 	mov    -0x16b8(%rbp),%rax
    c05e:	48 8b 00             	mov    (%rax),%rax
    c061:	8b 00                	mov    (%rax),%eax
    c063:	89 85 88 eb ff ff    	mov    %eax,-0x1478(%rbp)
    c069:	0f b7 85 62 e9 ff ff 	movzwl -0x169e(%rbp),%eax
    c070:	0f bf d8             	movswl %ax,%ebx
    c073:	be 02 00 00 00       	mov    $0x2,%esi
    c078:	bf 04 00 00 00       	mov    $0x4,%edi
    c07d:	e8 a8 c4 ff ff       	callq  852a <safe_rshift_func_int16_t_s_s>
    c082:	48 8b 05 57 c9 00 00 	mov    0xc957(%rip),%rax        # 189e0 <g_1096>
    c089:	0f b6 00             	movzbl (%rax),%eax
    c08c:	44 0f b6 e0          	movzbl %al,%r12d
    c090:	0f b7 05 a1 9f 00 00 	movzwl 0x9fa1(%rip),%eax        # 16038 <g_9+0x8>
    c097:	44 0f bf e8          	movswl %ax,%r13d
    c09b:	48 8b 05 ce c1 00 00 	mov    0xc1ce(%rip),%rax        # 18270 <g_51>
    c0a2:	0f b6 10             	movzbl (%rax),%edx
    c0a5:	48 8b 85 40 e9 ff ff 	mov    -0x16c0(%rbp),%rax
    c0ac:	88 10                	mov    %dl,(%rax)
    c0ae:	48 8b 05 bb c1 00 00 	mov    0xc1bb(%rip),%rax        # 18270 <g_51>
    c0b5:	0f b6 00             	movzbl (%rax),%eax
    c0b8:	0f be d0             	movsbl %al,%edx
    c0bb:	48 8b 05 26 a2 00 00 	mov    0xa226(%rip),%rax        # 162e8 <g_1144>
    c0c2:	48 8b 05 d7 d6 00 00 	mov    0xd6d7(%rip),%rax        # 197a0 <g_1145>
    c0c9:	83 bd e0 e9 ff ff 00 	cmpl   $0x0,-0x1620(%rbp)
    c0d0:	0f 94 c0             	sete   %al
    c0d3:	0f b6 c0             	movzbl %al,%eax
    c0d6:	89 d6                	mov    %edx,%esi
    c0d8:	89 c7                	mov    %eax,%edi
    c0da:	e8 13 c1 ff ff       	callq  81f2 <safe_sub_func_int8_t_s_s>
    c0df:	81 bd e0 e9 ff ff 8c 	cmpl   $0x3f8c,-0x1620(%rbp)
    c0e6:	3f 00 00 
    c0e9:	0f 9e c0             	setle  %al
    c0ec:	0f b6 c0             	movzbl %al,%eax
    c0ef:	be 03 00 00 00       	mov    $0x3,%esi
    c0f4:	89 c7                	mov    %eax,%edi
    c0f6:	e8 7f cd ff ff       	callq  8e7a <safe_rshift_func_uint16_t_u_u>
    c0fb:	98                   	cwtl   
    c0fc:	44 89 ee             	mov    %r13d,%esi
    c0ff:	89 c7                	mov    %eax,%edi
    c101:	e8 10 c3 ff ff       	callq  8416 <safe_mod_func_int16_t_s_s>
    c106:	0f b6 c0             	movzbl %al,%eax
    c109:	44 89 e6             	mov    %r12d,%esi
    c10c:	89 c7                	mov    %eax,%edi
    c10e:	e8 47 ca ff ff       	callq  8b5a <safe_add_func_uint8_t_u_u>
    c113:	8b 05 87 a0 00 00    	mov    0xa087(%rip),%eax        # 161a0 <g_325>
    c119:	83 f8 08             	cmp    $0x8,%eax
    c11c:	0f 94 c0             	sete   %al
    c11f:	0f b6 d0             	movzbl %al,%edx
    c122:	8b 85 84 eb ff ff    	mov    -0x147c(%rbp),%eax
    c128:	0f b7 c0             	movzwl %ax,%eax
    c12b:	89 d6                	mov    %edx,%esi
    c12d:	89 c7                	mov    %eax,%edi
    c12f:	e8 d2 cc ff ff       	callq  8e06 <safe_lshift_func_uint16_t_u_u>
    c134:	0f b7 c0             	movzwl %ax,%eax
    c137:	21 85 88 e9 ff ff    	and    %eax,-0x1678(%rbp)
    c13d:	8b 85 88 e9 ff ff    	mov    -0x1678(%rbp),%eax
    c143:	89 c1                	mov    %eax,%ecx
    c145:	0f b7 85 62 e9 ff ff 	movzwl -0x169e(%rbp),%eax
    c14c:	89 c2                	mov    %eax,%edx
    c14e:	48 8b 05 1b c1 00 00 	mov    0xc11b(%rip),%rax        # 18270 <g_51>
    c155:	21 ca                	and    %ecx,%edx
    c157:	88 10                	mov    %dl,(%rax)
    c159:	be 05 00 00 00       	mov    $0x5,%esi
    c15e:	bf ff ff 00 00       	mov    $0xffff,%edi
    c163:	e8 9e cc ff ff       	callq  8e06 <safe_lshift_func_uint16_t_u_u>
    c168:	8b 05 4a a1 00 00    	mov    0xa14a(%rip),%eax        # 162b8 <g_763>
    c16e:	89 c2                	mov    %eax,%edx
    c170:	48 8b 85 e8 ea ff ff 	mov    -0x1518(%rbp),%rax
    c177:	66 89 10             	mov    %dx,(%rax)
    c17a:	48 8b 85 e8 ea ff ff 	mov    -0x1518(%rbp),%rax
    c181:	0f b7 00             	movzwl (%rax),%eax
    c184:	0f b7 c0             	movzwl %ax,%eax
    c187:	89 de                	mov    %ebx,%esi
    c189:	89 c7                	mov    %eax,%edi
    c18b:	e8 ea cc ff ff       	callq  8e7a <safe_rshift_func_uint16_t_u_u>
    c190:	0f b7 c0             	movzwl %ax,%eax
    c193:	89 85 dc e9 ff ff    	mov    %eax,-0x1624(%rbp)
    c199:	48 8b 85 48 e9 ff ff 	mov    -0x16b8(%rbp),%rax
    c1a0:	48 8b 00             	mov    (%rax),%rax
    c1a3:	8b 00                	mov    (%rax),%eax
    c1a5:	85 c0                	test   %eax,%eax
    c1a7:	0f 85 24 07 00 00    	jne    c8d1 <func_26+0x286f>
    c1ad:	8b 05 11 9f 00 00    	mov    0x9f11(%rip),%eax        # 160c4 <g_119>
    c1b3:	83 c0 01             	add    $0x1,%eax
    c1b6:	89 05 08 9f 00 00    	mov    %eax,0x9f08(%rip)        # 160c4 <g_119>
    c1bc:	8b 05 02 9f 00 00    	mov    0x9f02(%rip),%eax        # 160c4 <g_119>
    c1c2:	83 f8 0e             	cmp    $0xe,%eax
    c1c5:	0f 86 44 fd ff ff    	jbe    bf0f <func_26+0x1ead>
    c1cb:	e9 02 07 00 00       	jmpq   c8d2 <func_26+0x2870>
    c1d0:	c6 85 5a e9 ff ff 01 	movb   $0x1,-0x16a6(%rbp)
    c1d7:	c7 85 9c e9 ff ff ff 	movl   $0xffffffff,-0x1664(%rbp)
    c1de:	ff ff ff 
    c1e1:	c7 85 a8 e9 ff ff ee 	movl   $0xb37612ee,-0x1658(%rbp)
    c1e8:	12 76 b3 
    c1eb:	c7 85 ac e9 ff ff f9 	movl   $0xfffffff9,-0x1654(%rbp)
    c1f2:	ff ff ff 
    c1f5:	c7 85 b0 e9 ff ff 02 	movl   $0x2,-0x1650(%rbp)
    c1fc:	00 00 00 
    c1ff:	c7 85 b4 e9 ff ff ff 	movl   $0xffffffff,-0x164c(%rbp)
    c206:	ff ff ff 
    c209:	c7 85 b8 e9 ff ff f4 	movl   $0x27a6f0f4,-0x1648(%rbp)
    c210:	f0 a6 27 
    c213:	c7 85 bc e9 ff ff 01 	movl   $0x1,-0x1644(%rbp)
    c21a:	00 00 00 
    c21d:	c7 85 c0 e9 ff ff ab 	movl   $0xf13832ab,-0x1640(%rbp)
    c224:	32 38 f1 
    c227:	c7 85 70 ee ff ff d0 	movl   $0xbafde5d0,-0x1190(%rbp)
    c22e:	e5 fd ba 
    c231:	c7 85 74 ee ff ff d0 	movl   $0xbafde5d0,-0x118c(%rbp)
    c238:	e5 fd ba 
    c23b:	c7 85 78 ee ff ff d0 	movl   $0xbafde5d0,-0x1188(%rbp)
    c242:	e5 fd ba 
    c245:	c7 85 7c ee ff ff d0 	movl   $0xbafde5d0,-0x1184(%rbp)
    c24c:	e5 fd ba 
    c24f:	c7 85 80 ee ff ff d0 	movl   $0xbafde5d0,-0x1180(%rbp)
    c256:	e5 fd ba 
    c259:	c7 85 84 ee ff ff d0 	movl   $0xbafde5d0,-0x117c(%rbp)
    c260:	e5 fd ba 
    c263:	c7 85 88 ee ff ff d0 	movl   $0xbafde5d0,-0x1178(%rbp)
    c26a:	e5 fd ba 
    c26d:	48 8b 85 48 e9 ff ff 	mov    -0x16b8(%rbp),%rax
    c274:	48 8b 00             	mov    (%rax),%rax
    c277:	8b 00                	mov    (%rax),%eax
    c279:	89 c2                	mov    %eax,%edx
    c27b:	0f b6 85 5a e9 ff ff 	movzbl -0x16a6(%rbp),%eax
    c282:	31 d0                	xor    %edx,%eax
    c284:	88 85 5a e9 ff ff    	mov    %al,-0x16a6(%rbp)
    c28a:	c7 05 28 9f 00 00 00 	movl   $0x0,0x9f28(%rip)        # 161bc <g_417>
    c291:	00 00 00 
    c294:	e9 16 06 00 00       	jmpq   c8af <func_26+0x284d>
    c299:	c7 85 30 ea ff ff 95 	movl   $0xb5eb4395,-0x15d0(%rbp)
    c2a0:	43 eb b5 
    c2a3:	c7 85 c4 e9 ff ff 07 	movl   $0x7,-0x163c(%rbp)
    c2aa:	00 00 00 
    c2ad:	c7 85 c8 e9 ff ff 01 	movl   $0x1,-0x1638(%rbp)
    c2b4:	00 00 00 
    c2b7:	c7 85 cc e9 ff ff 00 	movl   $0x0,-0x1634(%rbp)
    c2be:	00 00 00 
    c2c1:	c7 85 30 ed ff ff 90 	movl   $0x5c05d90,-0x12d0(%rbp)
    c2c8:	5d c0 05 
    c2cb:	c7 85 34 ed ff ff 90 	movl   $0x5c05d90,-0x12cc(%rbp)
    c2d2:	5d c0 05 
    c2d5:	c7 85 38 ed ff ff 90 	movl   $0x5c05d90,-0x12c8(%rbp)
    c2dc:	5d c0 05 
    c2df:	c7 85 3c ed ff ff 90 	movl   $0x5c05d90,-0x12c4(%rbp)
    c2e6:	5d c0 05 
    c2e9:	48 8d 05 90 bf 00 00 	lea    0xbf90(%rip),%rax        # 18280 <g_97>
    c2f0:	48 89 85 90 ea ff ff 	mov    %rax,-0x1570(%rbp)
    c2f7:	48 8d 85 30 ea ff ff 	lea    -0x15d0(%rbp),%rax
    c2fe:	48 89 85 38 ea ff ff 	mov    %rax,-0x15c8(%rbp)
    c305:	48 8d 85 38 ea ff ff 	lea    -0x15c8(%rbp),%rax
    c30c:	48 89 85 98 ea ff ff 	mov    %rax,-0x1568(%rbp)
    c313:	c6 05 c6 9f 00 00 00 	movb   $0x0,0x9fc6(%rip)        # 162e0 <g_1107>
    c31a:	e9 42 05 00 00       	jmpq   c861 <func_26+0x27ff>
    c31f:	48 8d 85 90 eb ff ff 	lea    -0x1470(%rbp),%rax
    c326:	48 83 c0 08          	add    $0x8,%rax
    c32a:	48 89 85 50 f8 ff ff 	mov    %rax,-0x7b0(%rbp)
    c331:	48 8d 85 90 eb ff ff 	lea    -0x1470(%rbp),%rax
    c338:	48 89 85 58 f8 ff ff 	mov    %rax,-0x7a8(%rbp)
    c33f:	48 8d 85 90 eb ff ff 	lea    -0x1470(%rbp),%rax
    c346:	48 83 c0 08          	add    $0x8,%rax
    c34a:	48 89 85 60 f8 ff ff 	mov    %rax,-0x7a0(%rbp)
    c351:	48 8d 85 90 eb ff ff 	lea    -0x1470(%rbp),%rax
    c358:	48 83 c0 08          	add    $0x8,%rax
    c35c:	48 89 85 68 f8 ff ff 	mov    %rax,-0x798(%rbp)
    c363:	48 8d 85 90 eb ff ff 	lea    -0x1470(%rbp),%rax
    c36a:	48 83 c0 08          	add    $0x8,%rax
    c36e:	48 89 85 70 f8 ff ff 	mov    %rax,-0x790(%rbp)
    c375:	48 c7 85 78 f8 ff ff 	movq   $0x0,-0x788(%rbp)
    c37c:	00 00 00 00 
    c380:	48 c7 85 80 f8 ff ff 	movq   $0x0,-0x780(%rbp)
    c387:	00 00 00 00 
    c38b:	48 8d 85 90 eb ff ff 	lea    -0x1470(%rbp),%rax
    c392:	48 83 c0 08          	add    $0x8,%rax
    c396:	48 89 85 88 f8 ff ff 	mov    %rax,-0x778(%rbp)
    c39d:	48 8d 85 90 eb ff ff 	lea    -0x1470(%rbp),%rax
    c3a4:	48 89 85 90 f8 ff ff 	mov    %rax,-0x770(%rbp)
    c3ab:	48 c7 85 98 f8 ff ff 	movq   $0x0,-0x768(%rbp)
    c3b2:	00 00 00 00 
    c3b6:	48 8d 85 90 eb ff ff 	lea    -0x1470(%rbp),%rax
    c3bd:	48 83 c0 08          	add    $0x8,%rax
    c3c1:	48 89 85 a0 f8 ff ff 	mov    %rax,-0x760(%rbp)
    c3c8:	48 8d 85 90 eb ff ff 	lea    -0x1470(%rbp),%rax
    c3cf:	48 83 c0 08          	add    $0x8,%rax
    c3d3:	48 89 85 a8 f8 ff ff 	mov    %rax,-0x758(%rbp)
    c3da:	48 8d 85 90 eb ff ff 	lea    -0x1470(%rbp),%rax
    c3e1:	48 83 c0 08          	add    $0x8,%rax
    c3e5:	48 89 85 b0 f8 ff ff 	mov    %rax,-0x750(%rbp)
    c3ec:	48 8d 85 90 eb ff ff 	lea    -0x1470(%rbp),%rax
    c3f3:	48 83 c0 08          	add    $0x8,%rax
    c3f7:	48 89 85 b8 f8 ff ff 	mov    %rax,-0x748(%rbp)
    c3fe:	48 c7 85 c0 f8 ff ff 	movq   $0x0,-0x740(%rbp)
    c405:	00 00 00 00 
    c409:	48 8d 85 90 eb ff ff 	lea    -0x1470(%rbp),%rax
    c410:	48 89 85 c8 f8 ff ff 	mov    %rax,-0x738(%rbp)
    c417:	48 8d 85 90 eb ff ff 	lea    -0x1470(%rbp),%rax
    c41e:	48 83 c0 08          	add    $0x8,%rax
    c422:	48 89 85 d0 f8 ff ff 	mov    %rax,-0x730(%rbp)
    c429:	48 c7 85 d8 f8 ff ff 	movq   $0x0,-0x728(%rbp)
    c430:	00 00 00 00 
    c434:	48 c7 85 e0 f8 ff ff 	movq   $0x0,-0x720(%rbp)
    c43b:	00 00 00 00 
    c43f:	48 8d 85 90 eb ff ff 	lea    -0x1470(%rbp),%rax
    c446:	48 83 c0 08          	add    $0x8,%rax
    c44a:	48 89 85 e8 f8 ff ff 	mov    %rax,-0x718(%rbp)
    c451:	48 8d 85 90 eb ff ff 	lea    -0x1470(%rbp),%rax
    c458:	48 83 c0 08          	add    $0x8,%rax
    c45c:	48 89 85 f0 f8 ff ff 	mov    %rax,-0x710(%rbp)
    c463:	48 8d 85 90 eb ff ff 	lea    -0x1470(%rbp),%rax
    c46a:	48 83 c0 08          	add    $0x8,%rax
    c46e:	48 89 85 f8 f8 ff ff 	mov    %rax,-0x708(%rbp)
    c475:	48 8d 85 90 eb ff ff 	lea    -0x1470(%rbp),%rax
    c47c:	48 89 85 00 f9 ff ff 	mov    %rax,-0x700(%rbp)
    c483:	48 8d 85 90 eb ff ff 	lea    -0x1470(%rbp),%rax
    c48a:	48 83 c0 08          	add    $0x8,%rax
    c48e:	48 89 85 08 f9 ff ff 	mov    %rax,-0x6f8(%rbp)
    c495:	48 8d 85 90 eb ff ff 	lea    -0x1470(%rbp),%rax
    c49c:	48 89 85 10 f9 ff ff 	mov    %rax,-0x6f0(%rbp)
    c4a3:	48 8d 85 90 eb ff ff 	lea    -0x1470(%rbp),%rax
    c4aa:	48 83 c0 08          	add    $0x8,%rax
    c4ae:	48 89 85 18 f9 ff ff 	mov    %rax,-0x6e8(%rbp)
    c4b5:	48 8d 85 90 eb ff ff 	lea    -0x1470(%rbp),%rax
    c4bc:	48 83 c0 08          	add    $0x8,%rax
    c4c0:	48 89 85 20 f9 ff ff 	mov    %rax,-0x6e0(%rbp)
    c4c7:	48 8d 85 90 eb ff ff 	lea    -0x1470(%rbp),%rax
    c4ce:	48 83 c0 08          	add    $0x8,%rax
    c4d2:	48 89 85 28 f9 ff ff 	mov    %rax,-0x6d8(%rbp)
    c4d9:	48 c7 85 30 f9 ff ff 	movq   $0x0,-0x6d0(%rbp)
    c4e0:	00 00 00 00 
    c4e4:	48 c7 85 38 f9 ff ff 	movq   $0x0,-0x6c8(%rbp)
    c4eb:	00 00 00 00 
    c4ef:	48 8d 85 90 eb ff ff 	lea    -0x1470(%rbp),%rax
    c4f6:	48 83 c0 08          	add    $0x8,%rax
    c4fa:	48 89 85 40 f9 ff ff 	mov    %rax,-0x6c0(%rbp)
    c501:	48 8d 85 90 eb ff ff 	lea    -0x1470(%rbp),%rax
    c508:	48 89 85 48 f9 ff ff 	mov    %rax,-0x6b8(%rbp)
    c50f:	48 c7 85 50 f9 ff ff 	movq   $0x0,-0x6b0(%rbp)
    c516:	00 00 00 00 
    c51a:	48 8d 85 90 eb ff ff 	lea    -0x1470(%rbp),%rax
    c521:	48 83 c0 08          	add    $0x8,%rax
    c525:	48 89 85 58 f9 ff ff 	mov    %rax,-0x6a8(%rbp)
    c52c:	48 8d 85 90 eb ff ff 	lea    -0x1470(%rbp),%rax
    c533:	48 83 c0 08          	add    $0x8,%rax
    c537:	48 89 85 60 f9 ff ff 	mov    %rax,-0x6a0(%rbp)
    c53e:	48 8d 85 90 eb ff ff 	lea    -0x1470(%rbp),%rax
    c545:	48 83 c0 08          	add    $0x8,%rax
    c549:	48 89 85 68 f9 ff ff 	mov    %rax,-0x698(%rbp)
    c550:	48 8d 85 90 eb ff ff 	lea    -0x1470(%rbp),%rax
    c557:	48 83 c0 08          	add    $0x8,%rax
    c55b:	48 89 85 70 f9 ff ff 	mov    %rax,-0x690(%rbp)
    c562:	48 c7 85 78 f9 ff ff 	movq   $0x0,-0x688(%rbp)
    c569:	00 00 00 00 
    c56d:	48 8d 85 90 eb ff ff 	lea    -0x1470(%rbp),%rax
    c574:	48 89 85 80 f9 ff ff 	mov    %rax,-0x680(%rbp)
    c57b:	48 8d 85 90 eb ff ff 	lea    -0x1470(%rbp),%rax
    c582:	48 83 c0 08          	add    $0x8,%rax
    c586:	48 89 85 88 f9 ff ff 	mov    %rax,-0x678(%rbp)
    c58d:	48 c7 85 90 f9 ff ff 	movq   $0x0,-0x670(%rbp)
    c594:	00 00 00 00 
    c598:	48 c7 85 98 f9 ff ff 	movq   $0x0,-0x668(%rbp)
    c59f:	00 00 00 00 
    c5a3:	48 8d 85 90 eb ff ff 	lea    -0x1470(%rbp),%rax
    c5aa:	48 83 c0 08          	add    $0x8,%rax
    c5ae:	48 89 85 a0 f9 ff ff 	mov    %rax,-0x660(%rbp)
    c5b5:	48 8d 85 90 eb ff ff 	lea    -0x1470(%rbp),%rax
    c5bc:	48 83 c0 08          	add    $0x8,%rax
    c5c0:	48 89 85 a8 f9 ff ff 	mov    %rax,-0x658(%rbp)
    c5c7:	48 8d 85 90 eb ff ff 	lea    -0x1470(%rbp),%rax
    c5ce:	48 83 c0 08          	add    $0x8,%rax
    c5d2:	48 89 85 b0 f9 ff ff 	mov    %rax,-0x650(%rbp)
    c5d9:	48 8d 85 90 eb ff ff 	lea    -0x1470(%rbp),%rax
    c5e0:	48 89 85 b8 f9 ff ff 	mov    %rax,-0x648(%rbp)
    c5e7:	48 8d 85 90 eb ff ff 	lea    -0x1470(%rbp),%rax
    c5ee:	48 83 c0 08          	add    $0x8,%rax
    c5f2:	48 89 85 c0 f9 ff ff 	mov    %rax,-0x640(%rbp)
    c5f9:	48 8d 85 90 eb ff ff 	lea    -0x1470(%rbp),%rax
    c600:	48 89 85 c8 f9 ff ff 	mov    %rax,-0x638(%rbp)
    c607:	48 8d 85 90 eb ff ff 	lea    -0x1470(%rbp),%rax
    c60e:	48 83 c0 08          	add    $0x8,%rax
    c612:	48 89 85 d0 f9 ff ff 	mov    %rax,-0x630(%rbp)
    c619:	48 8d 85 90 eb ff ff 	lea    -0x1470(%rbp),%rax
    c620:	48 83 c0 08          	add    $0x8,%rax
    c624:	48 89 85 d8 f9 ff ff 	mov    %rax,-0x628(%rbp)
    c62b:	48 8d 85 90 eb ff ff 	lea    -0x1470(%rbp),%rax
    c632:	48 83 c0 08          	add    $0x8,%rax
    c636:	48 89 85 e0 f9 ff ff 	mov    %rax,-0x620(%rbp)
    c63d:	48 c7 85 e8 f9 ff ff 	movq   $0x0,-0x618(%rbp)
    c644:	00 00 00 00 
    c648:	48 c7 85 f0 f9 ff ff 	movq   $0x0,-0x610(%rbp)
    c64f:	00 00 00 00 
    c653:	48 8d 85 90 eb ff ff 	lea    -0x1470(%rbp),%rax
    c65a:	48 83 c0 08          	add    $0x8,%rax
    c65e:	48 89 85 f8 f9 ff ff 	mov    %rax,-0x608(%rbp)
    c665:	48 8d 85 90 eb ff ff 	lea    -0x1470(%rbp),%rax
    c66c:	48 89 85 00 fa ff ff 	mov    %rax,-0x600(%rbp)
    c673:	48 c7 85 08 fa ff ff 	movq   $0x0,-0x5f8(%rbp)
    c67a:	00 00 00 00 
    c67e:	48 8d 85 10 ea ff ff 	lea    -0x15f0(%rbp),%rax
    c685:	48 89 85 a0 ea ff ff 	mov    %rax,-0x1560(%rbp)
    c68c:	c7 85 d0 e9 ff ff ee 	movl   $0x421113ee,-0x1630(%rbp)
    c693:	13 11 42 
    c696:	c7 85 d4 e9 ff ff 01 	movl   $0x1,-0x162c(%rbp)
    c69d:	00 00 00 
    c6a0:	c7 85 d8 e9 ff ff 01 	movl   $0x1,-0x1628(%rbp)
    c6a7:	00 00 00 
    c6aa:	48 8b 85 48 e9 ff ff 	mov    -0x16b8(%rbp),%rax
    c6b1:	48 8b 00             	mov    (%rax),%rax
    c6b4:	8b 00                	mov    (%rax),%eax
    c6b6:	09 85 9c e9 ff ff    	or     %eax,-0x1664(%rbp)
    c6bc:	8b 05 82 99 00 00    	mov    0x9982(%rip),%eax        # 16044 <g_13>
    c6c2:	0f bf d8             	movswl %ax,%ebx
    c6c5:	0f b6 05 14 9c 00 00 	movzbl 0x9c14(%rip),%eax        # 162e0 <g_1107>
    c6cc:	0f be c0             	movsbl %al,%eax
    c6cf:	0f b6 15 0a 9c 00 00 	movzbl 0x9c0a(%rip),%edx        # 162e0 <g_1107>
    c6d6:	0f be d2             	movsbl %dl,%edx
    c6d9:	83 c2 07             	add    $0x7,%edx
    c6dc:	48 63 ca             	movslq %edx,%rcx
    c6df:	48 63 d0             	movslq %eax,%rdx
    c6e2:	48 89 d0             	mov    %rdx,%rax
    c6e5:	48 c1 e0 02          	shl    $0x2,%rax
    c6e9:	48 01 d0             	add    %rdx,%rax
    c6ec:	48 01 c0             	add    %rax,%rax
    c6ef:	48 01 c8             	add    %rcx,%rax
    c6f2:	48 8d 14 c5 00 00 00 	lea    0x0(,%rax,8),%rdx
    c6f9:	00 
    c6fa:	48 8d 05 ff 99 00 00 	lea    0x99ff(%rip),%rax        # 16100 <g_324>
    c701:	48 8b 04 02          	mov    (%rdx,%rax,1),%rax
    c705:	8b 05 1d 99 00 00    	mov    0x991d(%rip),%eax        # 16028 <g_8>
    c70b:	4c 63 e0             	movslq %eax,%r12
    c70e:	be 04 00 00 00       	mov    $0x4,%esi
    c713:	bf a0 00 00 00       	mov    $0xa0,%edi
    c718:	e8 a1 c5 ff ff       	callq  8cbe <safe_rshift_func_uint8_t_u_u>
    c71d:	48 8b 85 60 ea ff ff 	mov    -0x15a0(%rbp),%rax
    c724:	48 8b 00             	mov    (%rax),%rax
    c727:	8b 00                	mov    (%rax),%eax
    c729:	83 f8 01             	cmp    $0x1,%eax
    c72c:	48 8b 85 38 e9 ff ff 	mov    -0x16c8(%rbp),%rax
    c733:	0f b6 10             	movzbl (%rax),%edx
    c736:	48 8b 85 38 e9 ff ff 	mov    -0x16c8(%rbp),%rax
    c73d:	88 10                	mov    %dl,(%rax)
    c73f:	48 8b 85 38 e9 ff ff 	mov    -0x16c8(%rbp),%rax
    c746:	0f b6 00             	movzbl (%rax),%eax
    c749:	0f be d0             	movsbl %al,%edx
    c74c:	48 8d 05 4d be 00 00 	lea    0xbe4d(%rip),%rax        # 185a0 <g_1006>
    c753:	48 39 85 a0 ea ff ff 	cmp    %rax,-0x1560(%rbp)
    c75a:	0f 95 c0             	setne  %al
    c75d:	0f b6 c0             	movzbl %al,%eax
    c760:	39 c2                	cmp    %eax,%edx
    c762:	7e 07                	jle    c76b <func_26+0x2709>
    c764:	ba 01 00 00 00       	mov    $0x1,%edx
    c769:	eb 05                	jmp    c770 <func_26+0x270e>
    c76b:	ba 00 00 00 00       	mov    $0x0,%edx
    c770:	8b 05 7e 63 00 00    	mov    0x637e(%rip),%eax        # 12af4 <l_1163.4442+0x94>
    c776:	0f b7 c0             	movzwl %ax,%eax
    c779:	89 d6                	mov    %edx,%esi
    c77b:	89 c7                	mov    %eax,%edi
    c77d:	e8 bb c5 ff ff       	callq  8d3d <safe_mul_func_uint16_t_u_u>
    c782:	0f b7 c0             	movzwl %ax,%eax
    c785:	89 85 8c eb ff ff    	mov    %eax,-0x1474(%rbp)
    c78b:	8b 85 8c eb ff ff    	mov    -0x1474(%rbp),%eax
    c791:	48 98                	cltq   
    c793:	4c 89 e6             	mov    %r12,%rsi
    c796:	48 89 c7             	mov    %rax,%rdi
    c799:	e8 90 c8 ff ff       	callq  902e <safe_add_func_uint64_t_u_u>
    c79e:	0f b6 c0             	movzbl %al,%eax
    c7a1:	89 c6                	mov    %eax,%esi
    c7a3:	bf a6 00 00 00       	mov    $0xa6,%edi
    c7a8:	e8 ad c3 ff ff       	callq  8b5a <safe_add_func_uint8_t_u_u>
    c7ad:	0f b6 05 2c 9b 00 00 	movzbl 0x9b2c(%rip),%eax        # 162e0 <g_1107>
    c7b4:	0f be c0             	movsbl %al,%eax
    c7b7:	0f b6 15 22 9b 00 00 	movzbl 0x9b22(%rip),%edx        # 162e0 <g_1107>
    c7be:	0f be d2             	movsbl %dl,%edx
    c7c1:	83 c2 07             	add    $0x7,%edx
    c7c4:	48 63 ca             	movslq %edx,%rcx
    c7c7:	48 63 d0             	movslq %eax,%rdx
    c7ca:	48 89 d0             	mov    %rdx,%rax
    c7cd:	48 c1 e0 02          	shl    $0x2,%rax
    c7d1:	48 01 d0             	add    %rdx,%rax
    c7d4:	48 01 c0             	add    %rax,%rax
    c7d7:	48 01 c8             	add    %rcx,%rax
    c7da:	48 8d 14 c5 00 00 00 	lea    0x0(,%rax,8),%rdx
    c7e1:	00 
    c7e2:	48 8d 05 17 99 00 00 	lea    0x9917(%rip),%rax        # 16100 <g_324>
    c7e9:	48 8b 04 02          	mov    (%rdx,%rax,1),%rax
    c7ed:	25 ff ff 3f 00       	and    $0x3fffff,%eax
    c7f2:	83 f8 27             	cmp    $0x27,%eax
    c7f5:	0f 96 c0             	setbe  %al
    c7f8:	0f b6 c0             	movzbl %al,%eax
    c7fb:	8b 95 d0 e9 ff ff    	mov    -0x1630(%rbp),%edx
    c801:	31 d0                	xor    %edx,%eax
    c803:	98                   	cwtl   
    c804:	89 de                	mov    %ebx,%esi
    c806:	89 c7                	mov    %eax,%edi
    c808:	e8 e8 bb ff ff       	callq  83f5 <safe_mul_func_int16_t_s_s>
    c80d:	0f bf d0             	movswl %ax,%edx
    c810:	48 8b 85 98 eb ff ff 	mov    -0x1468(%rbp),%rax
    c817:	48 89 85 30 f5 ff ff 	mov    %rax,-0xad0(%rbp)
    c81e:	48 8b 85 30 f5 ff ff 	mov    -0xad0(%rbp),%rax
    c825:	48 8d 0d a6 9a 00 00 	lea    0x9aa6(%rip),%rcx        # 162d2 <g_995>
    c82c:	48 39 c8             	cmp    %rcx,%rax
    c82f:	0f 95 c0             	setne  %al
    c832:	0f b6 c0             	movzbl %al,%eax
    c835:	89 d6                	mov    %edx,%esi
    c837:	89 c7                	mov    %eax,%edi
    c839:	e8 b7 bb ff ff       	callq  83f5 <safe_mul_func_int16_t_s_s>
    c83e:	98                   	cwtl   
    c83f:	09 85 d4 e9 ff ff    	or     %eax,-0x162c(%rbp)
    c845:	8b 85 d4 e9 ff ff    	mov    -0x162c(%rbp),%eax
    c84b:	09 85 d8 e9 ff ff    	or     %eax,-0x1628(%rbp)
    c851:	0f b6 05 88 9a 00 00 	movzbl 0x9a88(%rip),%eax        # 162e0 <g_1107>
    c858:	83 c0 01             	add    $0x1,%eax
    c85b:	88 05 7f 9a 00 00    	mov    %al,0x9a7f(%rip)        # 162e0 <g_1107>
    c861:	0f b6 05 78 9a 00 00 	movzbl 0x9a78(%rip),%eax        # 162e0 <g_1107>
    c868:	3c 01                	cmp    $0x1,%al
    c86a:	0f 8e af fa ff ff    	jle    c31f <func_26+0x22bd>
    c870:	80 ad 56 e9 ff ff 01 	subb   $0x1,-0x16aa(%rbp)
    c877:	48 8b 85 90 ea ff ff 	mov    -0x1570(%rbp),%rax
    c87e:	48 8d 95 30 ed ff ff 	lea    -0x12d0(%rbp),%rdx
    c885:	48 83 c2 0c          	add    $0xc,%rdx
    c889:	48 89 10             	mov    %rdx,(%rax)
    c88c:	48 8b 85 90 ea ff ff 	mov    -0x1570(%rbp),%rax
    c893:	48 8b 10             	mov    (%rax),%rdx
    c896:	48 8b 85 98 ea ff ff 	mov    -0x1568(%rbp),%rax
    c89d:	48 89 10             	mov    %rdx,(%rax)
    c8a0:	8b 05 16 99 00 00    	mov    0x9916(%rip),%eax        # 161bc <g_417>
    c8a6:	83 c0 01             	add    $0x1,%eax
    c8a9:	89 05 0d 99 00 00    	mov    %eax,0x990d(%rip)        # 161bc <g_417>
    c8af:	8b 05 07 99 00 00    	mov    0x9907(%rip),%eax        # 161bc <g_417>
    c8b5:	83 f8 01             	cmp    $0x1,%eax
    c8b8:	0f 8e db f9 ff ff    	jle    c299 <func_26+0x2237>
    c8be:	83 bd b4 e9 ff ff 00 	cmpl   $0x0,-0x164c(%rbp)
    c8c5:	75 1b                	jne    c8e2 <func_26+0x2880>
    c8c7:	48 83 85 40 ea ff ff 	addq   $0x1,-0x15c0(%rbp)
    c8ce:	01 
    c8cf:	eb 01                	jmp    c8d2 <func_26+0x2870>
    c8d1:	90                   	nop
    c8d2:	48 8b 85 18 ea ff ff 	mov    -0x15e8(%rbp),%rax
    c8d9:	48 8b 00             	mov    (%rax),%rax
    c8dc:	8b 00                	mov    (%rax),%eax
    c8de:	85 c0                	test   %eax,%eax
    c8e0:	75 2d                	jne    c90f <func_26+0x28ad>
    c8e2:	0f b6 05 b7 99 00 00 	movzbl 0x99b7(%rip),%eax        # 162a0 <g_704>
    c8e9:	0f be c0             	movsbl %al,%eax
    c8ec:	be 07 00 00 00       	mov    $0x7,%esi
    c8f1:	89 c7                	mov    %eax,%edi
    c8f3:	e8 bb ba ff ff       	callq  83b3 <safe_add_func_int16_t_s_s>
    c8f8:	88 05 a2 99 00 00    	mov    %al,0x99a2(%rip)        # 162a0 <g_704>
    c8fe:	0f b6 05 9b 99 00 00 	movzbl 0x999b(%rip),%eax        # 162a0 <g_704>
    c905:	3c 15                	cmp    $0x15,%al
    c907:	0f 8e 2b de ff ff    	jle    a738 <func_26+0x6d6>
    c90d:	eb 01                	jmp    c910 <func_26+0x28ae>
    c90f:	90                   	nop
    c910:	48 c7 05 d5 97 00 00 	movq   $0x0,0x97d5(%rip)        # 160f0 <g_261>
    c917:	00 00 00 00 
    c91b:	e9 fd 01 00 00       	jmpq   cb1d <func_26+0x2abb>
    c920:	c6 85 5c e9 ff ff 07 	movb   $0x7,-0x16a4(%rbp)
    c927:	c7 85 e8 e9 ff ff ff 	movl   $0xffffffff,-0x1618(%rbp)
    c92e:	ff ff ff 
    c931:	c7 85 ec e9 ff ff a9 	movl   $0x71b6f9a9,-0x1614(%rbp)
    c938:	f9 b6 71 
    c93b:	48 8d 05 66 98 00 00 	lea    0x9866(%rip),%rax        # 161a8 <g_327>
    c942:	48 89 85 30 ea ff ff 	mov    %rax,-0x15d0(%rbp)
    c949:	48 8d 85 30 ea ff ff 	lea    -0x15d0(%rbp),%rax
    c950:	48 89 85 08 eb ff ff 	mov    %rax,-0x14f8(%rbp)
    c957:	48 8d 85 30 ed ff ff 	lea    -0x12d0(%rbp),%rax
    c95e:	48 8d 15 1b af 00 00 	lea    0xaf1b(%rip),%rdx        # 17880 <g_1797+0x1488>
    c965:	b9 28 00 00 00       	mov    $0x28,%ecx
    c96a:	48 89 c7             	mov    %rax,%rdi
    c96d:	48 89 d6             	mov    %rdx,%rsi
    c970:	f3 48 a5             	rep movsq %ds:(%rsi),%es:(%rdi)
    c973:	48 8d 85 30 ed ff ff 	lea    -0x12d0(%rbp),%rax
    c97a:	48 05 f0 00 00 00    	add    $0xf0,%rax
    c980:	48 89 85 10 eb ff ff 	mov    %rax,-0x14f0(%rbp)
    c987:	c7 85 f0 e9 ff ff 2c 	movl   $0xc706992c,-0x1610(%rbp)
    c98e:	99 06 c7 
    c991:	48 c7 85 18 eb ff ff 	movq   $0x0,-0x14e8(%rbp)
    c998:	00 00 00 00 
    c99c:	48 8d 05 0d ba 00 00 	lea    0xba0d(%rip),%rax        # 183b0 <g_524>
    c9a3:	48 89 85 20 eb ff ff 	mov    %rax,-0x14e0(%rbp)
    c9aa:	c7 05 04 99 00 00 00 	movl   $0x0,0x9904(%rip)        # 162b8 <g_763>
    c9b1:	00 00 00 
    c9b4:	e9 43 01 00 00       	jmpq   cafc <func_26+0x2a9a>
    c9b9:	48 8d 85 68 e9 ff ff 	lea    -0x1698(%rbp),%rax
    c9c0:	48 89 85 28 eb ff ff 	mov    %rax,-0x14d8(%rbp)
    c9c7:	48 8d 85 50 f8 ff ff 	lea    -0x7b0(%rbp),%rax
    c9ce:	48 8d 15 eb af 00 00 	lea    0xafeb(%rip),%rdx        # 179c0 <g_1797+0x15c8>
    c9d5:	b9 a2 00 00 00       	mov    $0xa2,%ecx
    c9da:	48 89 c7             	mov    %rax,%rdi
    c9dd:	48 89 d6             	mov    %rdx,%rsi
    c9e0:	f3 48 a5             	rep movsq %ds:(%rsi),%es:(%rdi)
    c9e3:	48 c7 85 38 ea ff ff 	movq   $0x0,-0x15c8(%rbp)
    c9ea:	00 00 00 00 
    c9ee:	48 8d 85 38 ea ff ff 	lea    -0x15c8(%rbp),%rax
    c9f5:	48 89 85 30 eb ff ff 	mov    %rax,-0x14d0(%rbp)
    c9fc:	66 c7 85 90 eb ff ff 	movw   $0x1,-0x1470(%rbp)
    ca03:	01 00 
    ca05:	48 8d 05 1c 96 00 00 	lea    0x961c(%rip),%rax        # 16028 <g_8>
    ca0c:	48 89 85 38 eb ff ff 	mov    %rax,-0x14c8(%rbp)
    ca13:	48 8d 85 e0 eb ff ff 	lea    -0x1420(%rbp),%rax
    ca1a:	48 83 c0 04          	add    $0x4,%rax
    ca1e:	48 89 85 40 eb ff ff 	mov    %rax,-0x14c0(%rbp)
    ca25:	66 c7 85 10 ec ff ff 	movw   $0x7fe5,-0x13f0(%rbp)
    ca2c:	e5 7f 
    ca2e:	66 c7 85 12 ec ff ff 	movw   $0x7fe5,-0x13ee(%rbp)
    ca35:	e5 7f 
    ca37:	66 c7 85 14 ec ff ff 	movw   $0x7fe5,-0x13ec(%rbp)
    ca3e:	e5 7f 
    ca40:	66 c7 85 16 ec ff ff 	movw   $0x3e21,-0x13ea(%rbp)
    ca47:	21 3e 
    ca49:	66 c7 85 18 ec ff ff 	movw   $0x3e21,-0x13e8(%rbp)
    ca50:	21 3e 
    ca52:	66 c7 85 1a ec ff ff 	movw   $0x3e21,-0x13e6(%rbp)
    ca59:	21 3e 
    ca5b:	66 c7 85 1c ec ff ff 	movw   $0x7fe5,-0x13e4(%rbp)
    ca62:	e5 7f 
    ca64:	66 c7 85 1e ec ff ff 	movw   $0x7fe5,-0x13e2(%rbp)
    ca6b:	e5 7f 
    ca6d:	66 c7 85 20 ec ff ff 	movw   $0x7fe5,-0x13e0(%rbp)
    ca74:	e5 7f 
    ca76:	48 8d 85 70 ee ff ff 	lea    -0x1190(%rbp),%rax
    ca7d:	48 8d 15 5c b4 00 00 	lea    0xb45c(%rip),%rdx        # 17ee0 <g_1797+0x1ae8>
    ca84:	b9 2a 00 00 00       	mov    $0x2a,%ecx
    ca89:	48 89 c7             	mov    %rax,%rdi
    ca8c:	48 89 d6             	mov    %rdx,%rsi
    ca8f:	f3 48 a5             	rep movsq %ds:(%rsi),%es:(%rdi)
    ca92:	c6 85 c0 eb ff ff 02 	movb   $0x2,-0x1440(%rbp)
    ca99:	c6 85 c1 eb ff ff 00 	movb   $0x0,-0x143f(%rbp)
    caa0:	c6 85 c2 eb ff ff 02 	movb   $0x2,-0x143e(%rbp)
    caa7:	c6 85 c3 eb ff ff 00 	movb   $0x0,-0x143d(%rbp)
    caae:	c6 85 c4 eb ff ff 02 	movb   $0x2,-0x143c(%rbp)
    cab5:	c6 85 c5 eb ff ff 00 	movb   $0x0,-0x143b(%rbp)
    cabc:	c6 85 c6 eb ff ff 02 	movb   $0x2,-0x143a(%rbp)
    cac3:	c6 85 c7 eb ff ff 00 	movb   $0x0,-0x1439(%rbp)
    caca:	c6 85 c8 eb ff ff 02 	movb   $0x2,-0x1438(%rbp)
    cad1:	c6 85 c9 eb ff ff 00 	movb   $0x0,-0x1437(%rbp)
    cad8:	c7 85 f4 e9 ff ff 00 	movl   $0x0,-0x160c(%rbp)
    cadf:	00 00 00 
    cae2:	48 c7 85 48 eb ff ff 	movq   $0x0,-0x14b8(%rbp)
    cae9:	00 00 00 00 
    caed:	8b 05 c5 97 00 00    	mov    0x97c5(%rip),%eax        # 162b8 <g_763>
    caf3:	83 e8 01             	sub    $0x1,%eax
    caf6:	89 05 bc 97 00 00    	mov    %eax,0x97bc(%rip)        # 162b8 <g_763>
    cafc:	8b 05 b6 97 00 00    	mov    0x97b6(%rip),%eax        # 162b8 <g_763>
    cb02:	83 f8 e9             	cmp    $0xffffffe9,%eax
    cb05:	0f 8c ae fe ff ff    	jl     c9b9 <func_26+0x2957>
    cb0b:	48 8b 05 de 95 00 00 	mov    0x95de(%rip),%rax        # 160f0 <g_261>
    cb12:	48 83 e8 01          	sub    $0x1,%rax
    cb16:	48 89 05 d3 95 00 00 	mov    %rax,0x95d3(%rip)        # 160f0 <g_261>
    cb1d:	48 8b 05 cc 95 00 00 	mov    0x95cc(%rip),%rax        # 160f0 <g_261>
    cb24:	48 83 f8 eb          	cmp    $0xffffffffffffffeb,%rax
    cb28:	0f 85 f2 fd ff ff    	jne    c920 <func_26+0x28be>
    cb2e:	48 8b 85 18 ea ff ff 	mov    -0x15e8(%rbp),%rax
    cb35:	48 8b 00             	mov    (%rax),%rax
    cb38:	48 8b 5d d8          	mov    -0x28(%rbp),%rbx
    cb3c:	64 48 33 1c 25 28 00 	xor    %fs:0x28,%rbx
    cb43:	00 00 
    cb45:	74 05                	je     cb4c <func_26+0x2aea>
    cb47:	e8 24 b5 ff ff       	callq  8070 <__stack_chk_fail@plt>
    cb4c:	48 81 c4 b0 16 00 00 	add    $0x16b0,%rsp
    cb53:	5b                   	pop    %rbx
    cb54:	41 5c                	pop    %r12
    cb56:	41 5d                	pop    %r13
    cb58:	41 5e                	pop    %r14
    cb5a:	5d                   	pop    %rbp
    cb5b:	c3                   	retq   

000000000000cb5c <func_30>:
    cb5c:	f3 0f 1e fa          	endbr64 
    cb60:	55                   	push   %rbp
    cb61:	48 89 e5             	mov    %rsp,%rbp
    cb64:	41 55                	push   %r13
    cb66:	41 54                	push   %r12
    cb68:	53                   	push   %rbx
    cb69:	48 81 ec c8 09 00 00 	sub    $0x9c8,%rsp
    cb70:	48 89 bd 28 f6 ff ff 	mov    %rdi,-0x9d8(%rbp)
    cb77:	48 89 b5 20 f6 ff ff 	mov    %rsi,-0x9e0(%rbp)
    cb7e:	64 48 8b 04 25 28 00 	mov    %fs:0x28,%rax
    cb85:	00 00 
    cb87:	48 89 45 d8          	mov    %rax,-0x28(%rbp)
    cb8b:	31 c0                	xor    %eax,%eax
    cb8d:	48 b8 3e 2c 9f 62 a9 	movabs $0x8b1e72a9629f2c3e,%rax
    cb94:	72 1e 8b 
    cb97:	48 89 85 48 f6 ff ff 	mov    %rax,-0x9b8(%rbp)
    cb9e:	48 8d 05 13 b8 00 00 	lea    0xb813(%rip),%rax        # 183b8 <g_592>
    cba5:	48 89 85 d0 f6 ff ff 	mov    %rax,-0x930(%rbp)
    cbac:	48 8d 05 05 b8 00 00 	lea    0xb805(%rip),%rax        # 183b8 <g_592>
    cbb3:	48 89 85 d8 f6 ff ff 	mov    %rax,-0x928(%rbp)
    cbba:	48 8d 05 f7 b7 00 00 	lea    0xb7f7(%rip),%rax        # 183b8 <g_592>
    cbc1:	48 89 85 e0 f6 ff ff 	mov    %rax,-0x920(%rbp)
    cbc8:	48 8d 05 e9 b7 00 00 	lea    0xb7e9(%rip),%rax        # 183b8 <g_592>
    cbcf:	48 89 85 e8 f6 ff ff 	mov    %rax,-0x918(%rbp)
    cbd6:	48 8d 05 db b7 00 00 	lea    0xb7db(%rip),%rax        # 183b8 <g_592>
    cbdd:	48 89 85 f0 f6 ff ff 	mov    %rax,-0x910(%rbp)
    cbe4:	48 8d 05 cd b7 00 00 	lea    0xb7cd(%rip),%rax        # 183b8 <g_592>
    cbeb:	48 89 85 f8 f6 ff ff 	mov    %rax,-0x908(%rbp)
    cbf2:	48 8d 05 bf b7 00 00 	lea    0xb7bf(%rip),%rax        # 183b8 <g_592>
    cbf9:	48 89 85 00 f7 ff ff 	mov    %rax,-0x900(%rbp)
    cc00:	48 8d 05 b1 b7 00 00 	lea    0xb7b1(%rip),%rax        # 183b8 <g_592>
    cc07:	48 89 85 08 f7 ff ff 	mov    %rax,-0x8f8(%rbp)
    cc0e:	48 8d 05 a3 b7 00 00 	lea    0xb7a3(%rip),%rax        # 183b8 <g_592>
    cc15:	48 89 85 10 f7 ff ff 	mov    %rax,-0x8f0(%rbp)
    cc1c:	c7 85 38 f6 ff ff ff 	movl   $0xffffffff,-0x9c8(%rbp)
    cc23:	ff ff ff 
    cc26:	c7 85 34 f6 ff ff c7 	movl   $0xbe258dc7,-0x9cc(%rbp)
    cc2d:	8d 25 be 
    cc30:	48 8d 05 f9 b5 00 00 	lea    0xb5f9(%rip),%rax        # 18230 <g_25>
    cc37:	48 89 85 50 f6 ff ff 	mov    %rax,-0x9b0(%rbp)
    cc3e:	48 8d 85 34 f6 ff ff 	lea    -0x9cc(%rbp),%rax
    cc45:	48 89 85 58 f6 ff ff 	mov    %rax,-0x9a8(%rbp)
    cc4c:	48 8d 05 65 96 00 00 	lea    0x9665(%rip),%rax        # 162b8 <g_763>
    cc53:	48 89 85 60 f6 ff ff 	mov    %rax,-0x9a0(%rbp)
    cc5a:	48 8d 05 57 96 00 00 	lea    0x9657(%rip),%rax        # 162b8 <g_763>
    cc61:	48 89 85 68 f6 ff ff 	mov    %rax,-0x998(%rbp)
    cc68:	48 c7 85 70 f6 ff ff 	movq   $0x0,-0x990(%rbp)
    cc6f:	00 00 00 00 
    cc73:	c7 85 3c f6 ff ff fa 	movl   $0xfffffffa,-0x9c4(%rbp)
    cc7a:	ff ff ff 
    cc7d:	48 8d 05 34 96 00 00 	lea    0x9634(%rip),%rax        # 162b8 <g_763>
    cc84:	48 89 85 20 f7 ff ff 	mov    %rax,-0x8e0(%rbp)
    cc8b:	48 8d 05 b2 93 00 00 	lea    0x93b2(%rip),%rax        # 16044 <g_13>
    cc92:	48 89 85 28 f7 ff ff 	mov    %rax,-0x8d8(%rbp)
    cc99:	48 c7 85 30 f7 ff ff 	movq   $0x0,-0x8d0(%rbp)
    cca0:	00 00 00 00 
    cca4:	48 8d 05 11 94 00 00 	lea    0x9411(%rip),%rax        # 160bc <g_82>
    ccab:	48 89 85 38 f7 ff ff 	mov    %rax,-0x8c8(%rbp)
    ccb2:	48 8d 05 03 94 00 00 	lea    0x9403(%rip),%rax        # 160bc <g_82>
    ccb9:	48 89 85 40 f7 ff ff 	mov    %rax,-0x8c0(%rbp)
    ccc0:	48 c7 85 48 f7 ff ff 	movq   $0x0,-0x8b8(%rbp)
    ccc7:	00 00 00 00 
    cccb:	48 8d 05 72 93 00 00 	lea    0x9372(%rip),%rax        # 16044 <g_13>
    ccd2:	48 89 85 50 f7 ff ff 	mov    %rax,-0x8b0(%rbp)
    ccd9:	48 8d 05 d8 95 00 00 	lea    0x95d8(%rip),%rax        # 162b8 <g_763>
    cce0:	48 89 85 58 f7 ff ff 	mov    %rax,-0x8a8(%rbp)
    cce7:	48 8d 05 56 93 00 00 	lea    0x9356(%rip),%rax        # 16044 <g_13>
    ccee:	48 89 85 60 f7 ff ff 	mov    %rax,-0x8a0(%rbp)
    ccf5:	48 8d 05 bc 95 00 00 	lea    0x95bc(%rip),%rax        # 162b8 <g_763>
    ccfc:	48 89 85 68 f7 ff ff 	mov    %rax,-0x898(%rbp)
    cd03:	48 8d 05 b2 93 00 00 	lea    0x93b2(%rip),%rax        # 160bc <g_82>
    cd0a:	48 89 85 70 f7 ff ff 	mov    %rax,-0x890(%rbp)
    cd11:	48 c7 85 78 f7 ff ff 	movq   $0x0,-0x888(%rbp)
    cd18:	00 00 00 00 
    cd1c:	48 c7 85 80 f7 ff ff 	movq   $0x0,-0x880(%rbp)
    cd23:	00 00 00 00 
    cd27:	48 8d 05 8e 93 00 00 	lea    0x938e(%rip),%rax        # 160bc <g_82>
    cd2e:	48 89 85 88 f7 ff ff 	mov    %rax,-0x878(%rbp)
    cd35:	48 8d 05 7c 95 00 00 	lea    0x957c(%rip),%rax        # 162b8 <g_763>
    cd3c:	48 89 85 90 f7 ff ff 	mov    %rax,-0x870(%rbp)
    cd43:	48 8d 05 6e 95 00 00 	lea    0x956e(%rip),%rax        # 162b8 <g_763>
    cd4a:	48 89 85 98 f7 ff ff 	mov    %rax,-0x868(%rbp)
    cd51:	48 8d 05 60 95 00 00 	lea    0x9560(%rip),%rax        # 162b8 <g_763>
    cd58:	48 89 85 a0 f7 ff ff 	mov    %rax,-0x860(%rbp)
    cd5f:	48 8d 05 56 93 00 00 	lea    0x9356(%rip),%rax        # 160bc <g_82>
    cd66:	48 89 85 a8 f7 ff ff 	mov    %rax,-0x858(%rbp)
    cd6d:	48 8d 05 44 95 00 00 	lea    0x9544(%rip),%rax        # 162b8 <g_763>
    cd74:	48 89 85 b0 f7 ff ff 	mov    %rax,-0x850(%rbp)
    cd7b:	48 8d 05 c2 92 00 00 	lea    0x92c2(%rip),%rax        # 16044 <g_13>
    cd82:	48 89 85 b8 f7 ff ff 	mov    %rax,-0x848(%rbp)
    cd89:	48 8d 05 b4 92 00 00 	lea    0x92b4(%rip),%rax        # 16044 <g_13>
    cd90:	48 89 85 c0 f7 ff ff 	mov    %rax,-0x840(%rbp)
    cd97:	48 8d 05 1a 95 00 00 	lea    0x951a(%rip),%rax        # 162b8 <g_763>
    cd9e:	48 89 85 c8 f7 ff ff 	mov    %rax,-0x838(%rbp)
    cda5:	48 8d 05 0c 95 00 00 	lea    0x950c(%rip),%rax        # 162b8 <g_763>
    cdac:	48 89 85 d0 f7 ff ff 	mov    %rax,-0x830(%rbp)
    cdb3:	48 8d 85 34 f6 ff ff 	lea    -0x9cc(%rbp),%rax
    cdba:	48 89 85 d8 f7 ff ff 	mov    %rax,-0x828(%rbp)
    cdc1:	48 8d 05 f0 94 00 00 	lea    0x94f0(%rip),%rax        # 162b8 <g_763>
    cdc8:	48 89 85 e0 f7 ff ff 	mov    %rax,-0x820(%rbp)
    cdcf:	48 8d 05 e2 94 00 00 	lea    0x94e2(%rip),%rax        # 162b8 <g_763>
    cdd6:	48 89 85 e8 f7 ff ff 	mov    %rax,-0x818(%rbp)
    cddd:	48 8d 05 60 92 00 00 	lea    0x9260(%rip),%rax        # 16044 <g_13>
    cde4:	48 89 85 f0 f7 ff ff 	mov    %rax,-0x810(%rbp)
    cdeb:	48 8d 05 52 92 00 00 	lea    0x9252(%rip),%rax        # 16044 <g_13>
    cdf2:	48 89 85 f8 f7 ff ff 	mov    %rax,-0x808(%rbp)
    cdf9:	48 8d 05 44 92 00 00 	lea    0x9244(%rip),%rax        # 16044 <g_13>
    ce00:	48 89 85 00 f8 ff ff 	mov    %rax,-0x800(%rbp)
    ce07:	48 8d 05 aa 94 00 00 	lea    0x94aa(%rip),%rax        # 162b8 <g_763>
    ce0e:	48 89 85 08 f8 ff ff 	mov    %rax,-0x7f8(%rbp)
    ce15:	48 8d 05 a0 92 00 00 	lea    0x92a0(%rip),%rax        # 160bc <g_82>
    ce1c:	48 89 85 10 f8 ff ff 	mov    %rax,-0x7f0(%rbp)
    ce23:	48 8d 05 1a 92 00 00 	lea    0x921a(%rip),%rax        # 16044 <g_13>
    ce2a:	48 89 85 18 f8 ff ff 	mov    %rax,-0x7e8(%rbp)
    ce31:	48 8d 05 84 92 00 00 	lea    0x9284(%rip),%rax        # 160bc <g_82>
    ce38:	48 89 85 20 f8 ff ff 	mov    %rax,-0x7e0(%rbp)
    ce3f:	48 8d 05 72 94 00 00 	lea    0x9472(%rip),%rax        # 162b8 <g_763>
    ce46:	48 89 85 28 f8 ff ff 	mov    %rax,-0x7d8(%rbp)
    ce4d:	48 8d 05 f0 91 00 00 	lea    0x91f0(%rip),%rax        # 16044 <g_13>
    ce54:	48 89 85 30 f8 ff ff 	mov    %rax,-0x7d0(%rbp)
    ce5b:	48 8d 05 e2 91 00 00 	lea    0x91e2(%rip),%rax        # 16044 <g_13>
    ce62:	48 89 85 38 f8 ff ff 	mov    %rax,-0x7c8(%rbp)
    ce69:	c7 85 40 f6 ff ff dd 	movl   $0x15b3e5dd,-0x9c0(%rbp)
    ce70:	e5 b3 15 
    ce73:	48 8d 85 20 f7 ff ff 	lea    -0x8e0(%rbp),%rax
    ce7a:	48 83 c0 08          	add    $0x8,%rax
    ce7e:	48 89 85 78 f6 ff ff 	mov    %rax,-0x988(%rbp)
    ce85:	8b 05 39 92 00 00    	mov    0x9239(%rip),%eax        # 160c4 <g_119>
    ce8b:	0f b7 d0             	movzwl %ax,%edx
    ce8e:	48 8b 85 48 f6 ff ff 	mov    -0x9b8(%rbp),%rax
    ce95:	0f b7 c0             	movzwl %ax,%eax
    ce98:	89 d6                	mov    %edx,%esi
    ce9a:	89 c7                	mov    %eax,%edi
    ce9c:	e8 5e be ff ff       	callq  8cff <safe_add_func_uint16_t_u_u>
    cea1:	48 8b 85 48 f6 ff ff 	mov    -0x9b8(%rbp),%rax
    cea8:	0f b6 15 a9 93 00 00 	movzbl 0x93a9(%rip),%edx        # 16258 <g_468+0x98>
    ceaf:	0f b6 15 12 92 00 00 	movzbl 0x9212(%rip),%edx        # 160c8 <g_126>
    ceb6:	89 c6                	mov    %eax,%esi
    ceb8:	bf 01 00 00 00       	mov    $0x1,%edi
    cebd:	e8 43 bd ff ff       	callq  8c05 <safe_lshift_func_uint8_t_u_s>
    cec2:	48 8b 85 48 f6 ff ff 	mov    -0x9b8(%rbp),%rax
    cec9:	48 f7 d0             	not    %rax
    cecc:	48 c1 e8 3f          	shr    $0x3f,%rax
    ced0:	0f b6 c0             	movzbl %al,%eax
    ced3:	48 f7 d0             	not    %rax
    ced6:	48 23 85 48 f6 ff ff 	and    -0x9b8(%rbp),%rax
    cedd:	48 85 c0             	test   %rax,%rax
    cee0:	0f 84 57 13 00 00    	je     e23d <func_30+0x16e1>
    cee6:	c7 85 44 f6 ff ff 2b 	movl   $0x5938432b,-0x9bc(%rbp)
    ceed:	43 38 59 
    cef0:	48 8d 05 b9 92 00 00 	lea    0x92b9(%rip),%rax        # 161b0 <g_338>
    cef7:	48 89 85 80 f6 ff ff 	mov    %rax,-0x980(%rbp)
    cefe:	48 8d 85 d0 f6 ff ff 	lea    -0x930(%rbp),%rax
    cf05:	48 83 c0 20          	add    $0x20,%rax
    cf09:	48 89 85 40 f8 ff ff 	mov    %rax,-0x7c0(%rbp)
    cf10:	48 8d 85 d0 f6 ff ff 	lea    -0x930(%rbp),%rax
    cf17:	48 83 c0 20          	add    $0x20,%rax
    cf1b:	48 89 85 48 f8 ff ff 	mov    %rax,-0x7b8(%rbp)
    cf22:	48 8d 85 d0 f6 ff ff 	lea    -0x930(%rbp),%rax
    cf29:	48 83 c0 20          	add    $0x20,%rax
    cf2d:	48 89 85 50 f8 ff ff 	mov    %rax,-0x7b0(%rbp)
    cf34:	48 8d 85 d0 f6 ff ff 	lea    -0x930(%rbp),%rax
    cf3b:	48 83 c0 20          	add    $0x20,%rax
    cf3f:	48 89 85 58 f8 ff ff 	mov    %rax,-0x7a8(%rbp)
    cf46:	48 8d 85 d0 f6 ff ff 	lea    -0x930(%rbp),%rax
    cf4d:	48 83 c0 20          	add    $0x20,%rax
    cf51:	48 89 85 60 f8 ff ff 	mov    %rax,-0x7a0(%rbp)
    cf58:	48 8d 85 d0 f6 ff ff 	lea    -0x930(%rbp),%rax
    cf5f:	48 83 c0 20          	add    $0x20,%rax
    cf63:	48 89 85 68 f8 ff ff 	mov    %rax,-0x798(%rbp)
    cf6a:	48 8d 85 d0 f6 ff ff 	lea    -0x930(%rbp),%rax
    cf71:	48 83 c0 28          	add    $0x28,%rax
    cf75:	48 89 85 70 f8 ff ff 	mov    %rax,-0x790(%rbp)
    cf7c:	48 8d 85 d0 f6 ff ff 	lea    -0x930(%rbp),%rax
    cf83:	48 83 c0 20          	add    $0x20,%rax
    cf87:	48 89 85 78 f8 ff ff 	mov    %rax,-0x788(%rbp)
    cf8e:	48 8d 85 d0 f6 ff ff 	lea    -0x930(%rbp),%rax
    cf95:	48 83 c0 20          	add    $0x20,%rax
    cf99:	48 89 85 80 f8 ff ff 	mov    %rax,-0x780(%rbp)
    cfa0:	48 8d 85 d0 f6 ff ff 	lea    -0x930(%rbp),%rax
    cfa7:	48 83 c0 20          	add    $0x20,%rax
    cfab:	48 89 85 88 f8 ff ff 	mov    %rax,-0x778(%rbp)
    cfb2:	48 8d 85 d0 f6 ff ff 	lea    -0x930(%rbp),%rax
    cfb9:	48 83 c0 20          	add    $0x20,%rax
    cfbd:	48 89 85 90 f8 ff ff 	mov    %rax,-0x770(%rbp)
    cfc4:	48 8d 85 d0 f6 ff ff 	lea    -0x930(%rbp),%rax
    cfcb:	48 83 c0 20          	add    $0x20,%rax
    cfcf:	48 89 85 98 f8 ff ff 	mov    %rax,-0x768(%rbp)
    cfd6:	48 8d 85 d0 f6 ff ff 	lea    -0x930(%rbp),%rax
    cfdd:	48 83 c0 20          	add    $0x20,%rax
    cfe1:	48 89 85 a0 f8 ff ff 	mov    %rax,-0x760(%rbp)
    cfe8:	48 8d 85 d0 f6 ff ff 	lea    -0x930(%rbp),%rax
    cfef:	48 83 c0 20          	add    $0x20,%rax
    cff3:	48 89 85 a8 f8 ff ff 	mov    %rax,-0x758(%rbp)
    cffa:	48 8d 85 d0 f6 ff ff 	lea    -0x930(%rbp),%rax
    d001:	48 83 c0 20          	add    $0x20,%rax
    d005:	48 89 85 b0 f8 ff ff 	mov    %rax,-0x750(%rbp)
    d00c:	48 8d 85 d0 f6 ff ff 	lea    -0x930(%rbp),%rax
    d013:	48 83 c0 20          	add    $0x20,%rax
    d017:	48 89 85 b8 f8 ff ff 	mov    %rax,-0x748(%rbp)
    d01e:	48 8d 85 d0 f6 ff ff 	lea    -0x930(%rbp),%rax
    d025:	48 83 c0 20          	add    $0x20,%rax
    d029:	48 89 85 c0 f8 ff ff 	mov    %rax,-0x740(%rbp)
    d030:	48 8d 85 d0 f6 ff ff 	lea    -0x930(%rbp),%rax
    d037:	48 83 c0 20          	add    $0x20,%rax
    d03b:	48 89 85 c8 f8 ff ff 	mov    %rax,-0x738(%rbp)
    d042:	48 8d 85 d0 f6 ff ff 	lea    -0x930(%rbp),%rax
    d049:	48 83 c0 28          	add    $0x28,%rax
    d04d:	48 89 85 d0 f8 ff ff 	mov    %rax,-0x730(%rbp)
    d054:	48 8d 85 d0 f6 ff ff 	lea    -0x930(%rbp),%rax
    d05b:	48 83 c0 20          	add    $0x20,%rax
    d05f:	48 89 85 d8 f8 ff ff 	mov    %rax,-0x728(%rbp)
    d066:	48 8d 85 d0 f6 ff ff 	lea    -0x930(%rbp),%rax
    d06d:	48 83 c0 20          	add    $0x20,%rax
    d071:	48 89 85 e0 f8 ff ff 	mov    %rax,-0x720(%rbp)
    d078:	48 8d 85 d0 f6 ff ff 	lea    -0x930(%rbp),%rax
    d07f:	48 83 c0 20          	add    $0x20,%rax
    d083:	48 89 85 e8 f8 ff ff 	mov    %rax,-0x718(%rbp)
    d08a:	48 8d 85 d0 f6 ff ff 	lea    -0x930(%rbp),%rax
    d091:	48 83 c0 20          	add    $0x20,%rax
    d095:	48 89 85 f0 f8 ff ff 	mov    %rax,-0x710(%rbp)
    d09c:	48 8d 85 d0 f6 ff ff 	lea    -0x930(%rbp),%rax
    d0a3:	48 83 c0 20          	add    $0x20,%rax
    d0a7:	48 89 85 f8 f8 ff ff 	mov    %rax,-0x708(%rbp)
    d0ae:	48 8d 85 d0 f6 ff ff 	lea    -0x930(%rbp),%rax
    d0b5:	48 83 c0 20          	add    $0x20,%rax
    d0b9:	48 89 85 00 f9 ff ff 	mov    %rax,-0x700(%rbp)
    d0c0:	48 8d 85 d0 f6 ff ff 	lea    -0x930(%rbp),%rax
    d0c7:	48 83 c0 20          	add    $0x20,%rax
    d0cb:	48 89 85 08 f9 ff ff 	mov    %rax,-0x6f8(%rbp)
    d0d2:	48 8d 85 d0 f6 ff ff 	lea    -0x930(%rbp),%rax
    d0d9:	48 83 c0 20          	add    $0x20,%rax
    d0dd:	48 89 85 10 f9 ff ff 	mov    %rax,-0x6f0(%rbp)
    d0e4:	48 8d 85 d0 f6 ff ff 	lea    -0x930(%rbp),%rax
    d0eb:	48 83 c0 20          	add    $0x20,%rax
    d0ef:	48 89 85 18 f9 ff ff 	mov    %rax,-0x6e8(%rbp)
    d0f6:	48 8d 85 d0 f6 ff ff 	lea    -0x930(%rbp),%rax
    d0fd:	48 83 c0 20          	add    $0x20,%rax
    d101:	48 89 85 20 f9 ff ff 	mov    %rax,-0x6e0(%rbp)
    d108:	48 8d 85 d0 f6 ff ff 	lea    -0x930(%rbp),%rax
    d10f:	48 83 c0 20          	add    $0x20,%rax
    d113:	48 89 85 28 f9 ff ff 	mov    %rax,-0x6d8(%rbp)
    d11a:	48 8d 85 d0 f6 ff ff 	lea    -0x930(%rbp),%rax
    d121:	48 83 c0 28          	add    $0x28,%rax
    d125:	48 89 85 30 f9 ff ff 	mov    %rax,-0x6d0(%rbp)
    d12c:	48 8d 85 d0 f6 ff ff 	lea    -0x930(%rbp),%rax
    d133:	48 83 c0 20          	add    $0x20,%rax
    d137:	48 89 85 38 f9 ff ff 	mov    %rax,-0x6c8(%rbp)
    d13e:	48 8d 85 d0 f6 ff ff 	lea    -0x930(%rbp),%rax
    d145:	48 83 c0 20          	add    $0x20,%rax
    d149:	48 89 85 40 f9 ff ff 	mov    %rax,-0x6c0(%rbp)
    d150:	48 8d 85 d0 f6 ff ff 	lea    -0x930(%rbp),%rax
    d157:	48 83 c0 20          	add    $0x20,%rax
    d15b:	48 89 85 48 f9 ff ff 	mov    %rax,-0x6b8(%rbp)
    d162:	48 8d 85 d0 f6 ff ff 	lea    -0x930(%rbp),%rax
    d169:	48 83 c0 20          	add    $0x20,%rax
    d16d:	48 89 85 50 f9 ff ff 	mov    %rax,-0x6b0(%rbp)
    d174:	48 8d 85 d0 f6 ff ff 	lea    -0x930(%rbp),%rax
    d17b:	48 83 c0 20          	add    $0x20,%rax
    d17f:	48 89 85 58 f9 ff ff 	mov    %rax,-0x6a8(%rbp)
    d186:	48 8d 85 d0 f6 ff ff 	lea    -0x930(%rbp),%rax
    d18d:	48 83 c0 20          	add    $0x20,%rax
    d191:	48 89 85 60 f9 ff ff 	mov    %rax,-0x6a0(%rbp)
    d198:	48 8d 85 d0 f6 ff ff 	lea    -0x930(%rbp),%rax
    d19f:	48 83 c0 20          	add    $0x20,%rax
    d1a3:	48 89 85 68 f9 ff ff 	mov    %rax,-0x698(%rbp)
    d1aa:	48 8d 85 d0 f6 ff ff 	lea    -0x930(%rbp),%rax
    d1b1:	48 83 c0 20          	add    $0x20,%rax
    d1b5:	48 89 85 70 f9 ff ff 	mov    %rax,-0x690(%rbp)
    d1bc:	48 8d 85 d0 f6 ff ff 	lea    -0x930(%rbp),%rax
    d1c3:	48 83 c0 20          	add    $0x20,%rax
    d1c7:	48 89 85 78 f9 ff ff 	mov    %rax,-0x688(%rbp)
    d1ce:	48 8d 85 d0 f6 ff ff 	lea    -0x930(%rbp),%rax
    d1d5:	48 83 c0 20          	add    $0x20,%rax
    d1d9:	48 89 85 80 f9 ff ff 	mov    %rax,-0x680(%rbp)
    d1e0:	48 8d 85 d0 f6 ff ff 	lea    -0x930(%rbp),%rax
    d1e7:	48 83 c0 20          	add    $0x20,%rax
    d1eb:	48 89 85 88 f9 ff ff 	mov    %rax,-0x678(%rbp)
    d1f2:	48 8d 85 d0 f6 ff ff 	lea    -0x930(%rbp),%rax
    d1f9:	48 83 c0 28          	add    $0x28,%rax
    d1fd:	48 89 85 90 f9 ff ff 	mov    %rax,-0x670(%rbp)
    d204:	48 8d 85 d0 f6 ff ff 	lea    -0x930(%rbp),%rax
    d20b:	48 83 c0 20          	add    $0x20,%rax
    d20f:	48 89 85 98 f9 ff ff 	mov    %rax,-0x668(%rbp)
    d216:	48 8d 85 d0 f6 ff ff 	lea    -0x930(%rbp),%rax
    d21d:	48 83 c0 20          	add    $0x20,%rax
    d221:	48 89 85 a0 f9 ff ff 	mov    %rax,-0x660(%rbp)
    d228:	48 8d 85 d0 f6 ff ff 	lea    -0x930(%rbp),%rax
    d22f:	48 83 c0 20          	add    $0x20,%rax
    d233:	48 89 85 a8 f9 ff ff 	mov    %rax,-0x658(%rbp)
    d23a:	48 8d 85 d0 f6 ff ff 	lea    -0x930(%rbp),%rax
    d241:	48 83 c0 20          	add    $0x20,%rax
    d245:	48 89 85 b0 f9 ff ff 	mov    %rax,-0x650(%rbp)
    d24c:	48 8d 85 d0 f6 ff ff 	lea    -0x930(%rbp),%rax
    d253:	48 83 c0 20          	add    $0x20,%rax
    d257:	48 89 85 b8 f9 ff ff 	mov    %rax,-0x648(%rbp)
    d25e:	48 8d 85 d0 f6 ff ff 	lea    -0x930(%rbp),%rax
    d265:	48 83 c0 20          	add    $0x20,%rax
    d269:	48 89 85 c0 f9 ff ff 	mov    %rax,-0x640(%rbp)
    d270:	48 8d 85 d0 f6 ff ff 	lea    -0x930(%rbp),%rax
    d277:	48 83 c0 20          	add    $0x20,%rax
    d27b:	48 89 85 c8 f9 ff ff 	mov    %rax,-0x638(%rbp)
    d282:	48 8d 85 d0 f6 ff ff 	lea    -0x930(%rbp),%rax
    d289:	48 83 c0 20          	add    $0x20,%rax
    d28d:	48 89 85 d0 f9 ff ff 	mov    %rax,-0x630(%rbp)
    d294:	48 8d 85 d0 f6 ff ff 	lea    -0x930(%rbp),%rax
    d29b:	48 83 c0 20          	add    $0x20,%rax
    d29f:	48 89 85 d8 f9 ff ff 	mov    %rax,-0x628(%rbp)
    d2a6:	48 8d 85 d0 f6 ff ff 	lea    -0x930(%rbp),%rax
    d2ad:	48 83 c0 20          	add    $0x20,%rax
    d2b1:	48 89 85 e0 f9 ff ff 	mov    %rax,-0x620(%rbp)
    d2b8:	48 8d 85 d0 f6 ff ff 	lea    -0x930(%rbp),%rax
    d2bf:	48 83 c0 20          	add    $0x20,%rax
    d2c3:	48 89 85 e8 f9 ff ff 	mov    %rax,-0x618(%rbp)
    d2ca:	48 8d 85 d0 f6 ff ff 	lea    -0x930(%rbp),%rax
    d2d1:	48 83 c0 28          	add    $0x28,%rax
    d2d5:	48 89 85 f0 f9 ff ff 	mov    %rax,-0x610(%rbp)
    d2dc:	48 8d 85 d0 f6 ff ff 	lea    -0x930(%rbp),%rax
    d2e3:	48 83 c0 20          	add    $0x20,%rax
    d2e7:	48 89 85 f8 f9 ff ff 	mov    %rax,-0x608(%rbp)
    d2ee:	48 8d 85 d0 f6 ff ff 	lea    -0x930(%rbp),%rax
    d2f5:	48 83 c0 20          	add    $0x20,%rax
    d2f9:	48 89 85 00 fa ff ff 	mov    %rax,-0x600(%rbp)
    d300:	48 8d 85 d0 f6 ff ff 	lea    -0x930(%rbp),%rax
    d307:	48 83 c0 20          	add    $0x20,%rax
    d30b:	48 89 85 08 fa ff ff 	mov    %rax,-0x5f8(%rbp)
    d312:	48 8d 85 d0 f6 ff ff 	lea    -0x930(%rbp),%rax
    d319:	48 83 c0 20          	add    $0x20,%rax
    d31d:	48 89 85 10 fa ff ff 	mov    %rax,-0x5f0(%rbp)
    d324:	48 8d 85 d0 f6 ff ff 	lea    -0x930(%rbp),%rax
    d32b:	48 83 c0 20          	add    $0x20,%rax
    d32f:	48 89 85 18 fa ff ff 	mov    %rax,-0x5e8(%rbp)
    d336:	48 8d 85 d0 f6 ff ff 	lea    -0x930(%rbp),%rax
    d33d:	48 83 c0 20          	add    $0x20,%rax
    d341:	48 89 85 20 fa ff ff 	mov    %rax,-0x5e0(%rbp)
    d348:	48 8d 85 d0 f6 ff ff 	lea    -0x930(%rbp),%rax
    d34f:	48 83 c0 20          	add    $0x20,%rax
    d353:	48 89 85 28 fa ff ff 	mov    %rax,-0x5d8(%rbp)
    d35a:	48 8d 85 d0 f6 ff ff 	lea    -0x930(%rbp),%rax
    d361:	48 83 c0 20          	add    $0x20,%rax
    d365:	48 89 85 30 fa ff ff 	mov    %rax,-0x5d0(%rbp)
    d36c:	48 8d 85 d0 f6 ff ff 	lea    -0x930(%rbp),%rax
    d373:	48 83 c0 20          	add    $0x20,%rax
    d377:	48 89 85 38 fa ff ff 	mov    %rax,-0x5c8(%rbp)
    d37e:	48 8d 85 d0 f6 ff ff 	lea    -0x930(%rbp),%rax
    d385:	48 83 c0 20          	add    $0x20,%rax
    d389:	48 89 85 40 fa ff ff 	mov    %rax,-0x5c0(%rbp)
    d390:	48 8d 85 d0 f6 ff ff 	lea    -0x930(%rbp),%rax
    d397:	48 83 c0 20          	add    $0x20,%rax
    d39b:	48 89 85 48 fa ff ff 	mov    %rax,-0x5b8(%rbp)
    d3a2:	48 8d 85 d0 f6 ff ff 	lea    -0x930(%rbp),%rax
    d3a9:	48 83 c0 28          	add    $0x28,%rax
    d3ad:	48 89 85 50 fa ff ff 	mov    %rax,-0x5b0(%rbp)
    d3b4:	48 8d 85 d0 f6 ff ff 	lea    -0x930(%rbp),%rax
    d3bb:	48 83 c0 20          	add    $0x20,%rax
    d3bf:	48 89 85 58 fa ff ff 	mov    %rax,-0x5a8(%rbp)
    d3c6:	48 8d 85 d0 f6 ff ff 	lea    -0x930(%rbp),%rax
    d3cd:	48 83 c0 20          	add    $0x20,%rax
    d3d1:	48 89 85 60 fa ff ff 	mov    %rax,-0x5a0(%rbp)
    d3d8:	48 8d 85 d0 f6 ff ff 	lea    -0x930(%rbp),%rax
    d3df:	48 83 c0 20          	add    $0x20,%rax
    d3e3:	48 89 85 68 fa ff ff 	mov    %rax,-0x598(%rbp)
    d3ea:	48 8d 85 d0 f6 ff ff 	lea    -0x930(%rbp),%rax
    d3f1:	48 83 c0 20          	add    $0x20,%rax
    d3f5:	48 89 85 70 fa ff ff 	mov    %rax,-0x590(%rbp)
    d3fc:	48 8d 85 d0 f6 ff ff 	lea    -0x930(%rbp),%rax
    d403:	48 83 c0 20          	add    $0x20,%rax
    d407:	48 89 85 78 fa ff ff 	mov    %rax,-0x588(%rbp)
    d40e:	48 8d 85 d0 f6 ff ff 	lea    -0x930(%rbp),%rax
    d415:	48 83 c0 20          	add    $0x20,%rax
    d419:	48 89 85 80 fa ff ff 	mov    %rax,-0x580(%rbp)
    d420:	48 8d 85 d0 f6 ff ff 	lea    -0x930(%rbp),%rax
    d427:	48 83 c0 20          	add    $0x20,%rax
    d42b:	48 89 85 88 fa ff ff 	mov    %rax,-0x578(%rbp)
    d432:	48 8d 85 d0 f6 ff ff 	lea    -0x930(%rbp),%rax
    d439:	48 83 c0 20          	add    $0x20,%rax
    d43d:	48 89 85 90 fa ff ff 	mov    %rax,-0x570(%rbp)
    d444:	48 8d 85 d0 f6 ff ff 	lea    -0x930(%rbp),%rax
    d44b:	48 83 c0 20          	add    $0x20,%rax
    d44f:	48 89 85 98 fa ff ff 	mov    %rax,-0x568(%rbp)
    d456:	48 8d 85 d0 f6 ff ff 	lea    -0x930(%rbp),%rax
    d45d:	48 83 c0 20          	add    $0x20,%rax
    d461:	48 89 85 a0 fa ff ff 	mov    %rax,-0x560(%rbp)
    d468:	48 8d 85 d0 f6 ff ff 	lea    -0x930(%rbp),%rax
    d46f:	48 83 c0 20          	add    $0x20,%rax
    d473:	48 89 85 a8 fa ff ff 	mov    %rax,-0x558(%rbp)
    d47a:	48 8d 85 d0 f6 ff ff 	lea    -0x930(%rbp),%rax
    d481:	48 83 c0 28          	add    $0x28,%rax
    d485:	48 89 85 b0 fa ff ff 	mov    %rax,-0x550(%rbp)
    d48c:	48 8d 85 d0 f6 ff ff 	lea    -0x930(%rbp),%rax
    d493:	48 83 c0 20          	add    $0x20,%rax
    d497:	48 89 85 b8 fa ff ff 	mov    %rax,-0x548(%rbp)
    d49e:	48 8d 85 d0 f6 ff ff 	lea    -0x930(%rbp),%rax
    d4a5:	48 83 c0 20          	add    $0x20,%rax
    d4a9:	48 89 85 c0 fa ff ff 	mov    %rax,-0x540(%rbp)
    d4b0:	48 8d 85 d0 f6 ff ff 	lea    -0x930(%rbp),%rax
    d4b7:	48 83 c0 20          	add    $0x20,%rax
    d4bb:	48 89 85 c8 fa ff ff 	mov    %rax,-0x538(%rbp)
    d4c2:	48 8d 85 d0 f6 ff ff 	lea    -0x930(%rbp),%rax
    d4c9:	48 83 c0 20          	add    $0x20,%rax
    d4cd:	48 89 85 d0 fa ff ff 	mov    %rax,-0x530(%rbp)
    d4d4:	48 8d 85 d0 f6 ff ff 	lea    -0x930(%rbp),%rax
    d4db:	48 83 c0 20          	add    $0x20,%rax
    d4df:	48 89 85 d8 fa ff ff 	mov    %rax,-0x528(%rbp)
    d4e6:	48 8d 85 d0 f6 ff ff 	lea    -0x930(%rbp),%rax
    d4ed:	48 83 c0 20          	add    $0x20,%rax
    d4f1:	48 89 85 e0 fa ff ff 	mov    %rax,-0x520(%rbp)
    d4f8:	48 8d 85 d0 f6 ff ff 	lea    -0x930(%rbp),%rax
    d4ff:	48 83 c0 20          	add    $0x20,%rax
    d503:	48 89 85 e8 fa ff ff 	mov    %rax,-0x518(%rbp)
    d50a:	48 8d 85 d0 f6 ff ff 	lea    -0x930(%rbp),%rax
    d511:	48 83 c0 20          	add    $0x20,%rax
    d515:	48 89 85 f0 fa ff ff 	mov    %rax,-0x510(%rbp)
    d51c:	48 8d 85 d0 f6 ff ff 	lea    -0x930(%rbp),%rax
    d523:	48 83 c0 20          	add    $0x20,%rax
    d527:	48 89 85 f8 fa ff ff 	mov    %rax,-0x508(%rbp)
    d52e:	48 8d 85 d0 f6 ff ff 	lea    -0x930(%rbp),%rax
    d535:	48 83 c0 20          	add    $0x20,%rax
    d539:	48 89 85 00 fb ff ff 	mov    %rax,-0x500(%rbp)
    d540:	48 8d 85 d0 f6 ff ff 	lea    -0x930(%rbp),%rax
    d547:	48 83 c0 20          	add    $0x20,%rax
    d54b:	48 89 85 08 fb ff ff 	mov    %rax,-0x4f8(%rbp)
    d552:	48 8d 85 d0 f6 ff ff 	lea    -0x930(%rbp),%rax
    d559:	48 83 c0 28          	add    $0x28,%rax
    d55d:	48 89 85 10 fb ff ff 	mov    %rax,-0x4f0(%rbp)
    d564:	48 8d 85 d0 f6 ff ff 	lea    -0x930(%rbp),%rax
    d56b:	48 83 c0 20          	add    $0x20,%rax
    d56f:	48 89 85 18 fb ff ff 	mov    %rax,-0x4e8(%rbp)
    d576:	48 8d 85 d0 f6 ff ff 	lea    -0x930(%rbp),%rax
    d57d:	48 83 c0 20          	add    $0x20,%rax
    d581:	48 89 85 20 fb ff ff 	mov    %rax,-0x4e0(%rbp)
    d588:	48 8d 85 d0 f6 ff ff 	lea    -0x930(%rbp),%rax
    d58f:	48 83 c0 20          	add    $0x20,%rax
    d593:	48 89 85 28 fb ff ff 	mov    %rax,-0x4d8(%rbp)
    d59a:	48 8d 85 d0 f6 ff ff 	lea    -0x930(%rbp),%rax
    d5a1:	48 83 c0 20          	add    $0x20,%rax
    d5a5:	48 89 85 30 fb ff ff 	mov    %rax,-0x4d0(%rbp)
    d5ac:	48 8d 85 d0 f6 ff ff 	lea    -0x930(%rbp),%rax
    d5b3:	48 83 c0 20          	add    $0x20,%rax
    d5b7:	48 89 85 38 fb ff ff 	mov    %rax,-0x4c8(%rbp)
    d5be:	48 8d 85 d0 f6 ff ff 	lea    -0x930(%rbp),%rax
    d5c5:	48 83 c0 20          	add    $0x20,%rax
    d5c9:	48 89 85 40 fb ff ff 	mov    %rax,-0x4c0(%rbp)
    d5d0:	48 8d 85 d0 f6 ff ff 	lea    -0x930(%rbp),%rax
    d5d7:	48 83 c0 20          	add    $0x20,%rax
    d5db:	48 89 85 48 fb ff ff 	mov    %rax,-0x4b8(%rbp)
    d5e2:	48 8d 85 d0 f6 ff ff 	lea    -0x930(%rbp),%rax
    d5e9:	48 83 c0 20          	add    $0x20,%rax
    d5ed:	48 89 85 50 fb ff ff 	mov    %rax,-0x4b0(%rbp)
    d5f4:	48 8d 85 d0 f6 ff ff 	lea    -0x930(%rbp),%rax
    d5fb:	48 83 c0 20          	add    $0x20,%rax
    d5ff:	48 89 85 58 fb ff ff 	mov    %rax,-0x4a8(%rbp)
    d606:	48 8d 85 d0 f6 ff ff 	lea    -0x930(%rbp),%rax
    d60d:	48 83 c0 20          	add    $0x20,%rax
    d611:	48 89 85 60 fb ff ff 	mov    %rax,-0x4a0(%rbp)
    d618:	48 8d 85 d0 f6 ff ff 	lea    -0x930(%rbp),%rax
    d61f:	48 83 c0 20          	add    $0x20,%rax
    d623:	48 89 85 68 fb ff ff 	mov    %rax,-0x498(%rbp)
    d62a:	48 8d 85 d0 f6 ff ff 	lea    -0x930(%rbp),%rax
    d631:	48 83 c0 28          	add    $0x28,%rax
    d635:	48 89 85 70 fb ff ff 	mov    %rax,-0x490(%rbp)
    d63c:	48 8d 85 d0 f6 ff ff 	lea    -0x930(%rbp),%rax
    d643:	48 83 c0 20          	add    $0x20,%rax
    d647:	48 89 85 78 fb ff ff 	mov    %rax,-0x488(%rbp)
    d64e:	48 8d 85 d0 f6 ff ff 	lea    -0x930(%rbp),%rax
    d655:	48 83 c0 20          	add    $0x20,%rax
    d659:	48 89 85 80 fb ff ff 	mov    %rax,-0x480(%rbp)
    d660:	48 8d 85 d0 f6 ff ff 	lea    -0x930(%rbp),%rax
    d667:	48 83 c0 20          	add    $0x20,%rax
    d66b:	48 89 85 88 fb ff ff 	mov    %rax,-0x478(%rbp)
    d672:	48 8d 85 d0 f6 ff ff 	lea    -0x930(%rbp),%rax
    d679:	48 83 c0 20          	add    $0x20,%rax
    d67d:	48 89 85 90 fb ff ff 	mov    %rax,-0x470(%rbp)
    d684:	48 8d 85 d0 f6 ff ff 	lea    -0x930(%rbp),%rax
    d68b:	48 83 c0 20          	add    $0x20,%rax
    d68f:	48 89 85 98 fb ff ff 	mov    %rax,-0x468(%rbp)
    d696:	48 8d 85 d0 f6 ff ff 	lea    -0x930(%rbp),%rax
    d69d:	48 83 c0 20          	add    $0x20,%rax
    d6a1:	48 89 85 a0 fb ff ff 	mov    %rax,-0x460(%rbp)
    d6a8:	48 8d 85 d0 f6 ff ff 	lea    -0x930(%rbp),%rax
    d6af:	48 83 c0 20          	add    $0x20,%rax
    d6b3:	48 89 85 a8 fb ff ff 	mov    %rax,-0x458(%rbp)
    d6ba:	48 8d 85 d0 f6 ff ff 	lea    -0x930(%rbp),%rax
    d6c1:	48 83 c0 20          	add    $0x20,%rax
    d6c5:	48 89 85 b0 fb ff ff 	mov    %rax,-0x450(%rbp)
    d6cc:	48 8d 85 d0 f6 ff ff 	lea    -0x930(%rbp),%rax
    d6d3:	48 83 c0 20          	add    $0x20,%rax
    d6d7:	48 89 85 b8 fb ff ff 	mov    %rax,-0x448(%rbp)
    d6de:	48 8d 85 d0 f6 ff ff 	lea    -0x930(%rbp),%rax
    d6e5:	48 83 c0 20          	add    $0x20,%rax
    d6e9:	48 89 85 c0 fb ff ff 	mov    %rax,-0x440(%rbp)
    d6f0:	48 8d 85 d0 f6 ff ff 	lea    -0x930(%rbp),%rax
    d6f7:	48 83 c0 20          	add    $0x20,%rax
    d6fb:	48 89 85 c8 fb ff ff 	mov    %rax,-0x438(%rbp)
    d702:	48 8d 85 d0 f6 ff ff 	lea    -0x930(%rbp),%rax
    d709:	48 83 c0 28          	add    $0x28,%rax
    d70d:	48 89 85 d0 fb ff ff 	mov    %rax,-0x430(%rbp)
    d714:	48 8d 85 d0 f6 ff ff 	lea    -0x930(%rbp),%rax
    d71b:	48 83 c0 20          	add    $0x20,%rax
    d71f:	48 89 85 d8 fb ff ff 	mov    %rax,-0x428(%rbp)
    d726:	48 8d 85 d0 f6 ff ff 	lea    -0x930(%rbp),%rax
    d72d:	48 83 c0 20          	add    $0x20,%rax
    d731:	48 89 85 e0 fb ff ff 	mov    %rax,-0x420(%rbp)
    d738:	48 8d 85 d0 f6 ff ff 	lea    -0x930(%rbp),%rax
    d73f:	48 83 c0 20          	add    $0x20,%rax
    d743:	48 89 85 e8 fb ff ff 	mov    %rax,-0x418(%rbp)
    d74a:	48 8d 85 d0 f6 ff ff 	lea    -0x930(%rbp),%rax
    d751:	48 83 c0 20          	add    $0x20,%rax
    d755:	48 89 85 f0 fb ff ff 	mov    %rax,-0x410(%rbp)
    d75c:	48 8d 85 d0 f6 ff ff 	lea    -0x930(%rbp),%rax
    d763:	48 83 c0 20          	add    $0x20,%rax
    d767:	48 89 85 f8 fb ff ff 	mov    %rax,-0x408(%rbp)
    d76e:	48 8d 85 d0 f6 ff ff 	lea    -0x930(%rbp),%rax
    d775:	48 83 c0 20          	add    $0x20,%rax
    d779:	48 89 85 00 fc ff ff 	mov    %rax,-0x400(%rbp)
    d780:	48 8d 85 d0 f6 ff ff 	lea    -0x930(%rbp),%rax
    d787:	48 83 c0 20          	add    $0x20,%rax
    d78b:	48 89 85 08 fc ff ff 	mov    %rax,-0x3f8(%rbp)
    d792:	48 8d 85 d0 f6 ff ff 	lea    -0x930(%rbp),%rax
    d799:	48 83 c0 20          	add    $0x20,%rax
    d79d:	48 89 85 10 fc ff ff 	mov    %rax,-0x3f0(%rbp)
    d7a4:	48 8d 85 d0 f6 ff ff 	lea    -0x930(%rbp),%rax
    d7ab:	48 83 c0 20          	add    $0x20,%rax
    d7af:	48 89 85 18 fc ff ff 	mov    %rax,-0x3e8(%rbp)
    d7b6:	48 8d 85 d0 f6 ff ff 	lea    -0x930(%rbp),%rax
    d7bd:	48 83 c0 20          	add    $0x20,%rax
    d7c1:	48 89 85 20 fc ff ff 	mov    %rax,-0x3e0(%rbp)
    d7c8:	48 8d 85 d0 f6 ff ff 	lea    -0x930(%rbp),%rax
    d7cf:	48 83 c0 20          	add    $0x20,%rax
    d7d3:	48 89 85 28 fc ff ff 	mov    %rax,-0x3d8(%rbp)
    d7da:	48 8d 85 d0 f6 ff ff 	lea    -0x930(%rbp),%rax
    d7e1:	48 83 c0 28          	add    $0x28,%rax
    d7e5:	48 89 85 30 fc ff ff 	mov    %rax,-0x3d0(%rbp)
    d7ec:	48 8d 85 d0 f6 ff ff 	lea    -0x930(%rbp),%rax
    d7f3:	48 83 c0 20          	add    $0x20,%rax
    d7f7:	48 89 85 38 fc ff ff 	mov    %rax,-0x3c8(%rbp)
    d7fe:	48 8d 85 d0 f6 ff ff 	lea    -0x930(%rbp),%rax
    d805:	48 83 c0 20          	add    $0x20,%rax
    d809:	48 89 85 40 fc ff ff 	mov    %rax,-0x3c0(%rbp)
    d810:	48 8d 85 d0 f6 ff ff 	lea    -0x930(%rbp),%rax
    d817:	48 83 c0 20          	add    $0x20,%rax
    d81b:	48 89 85 48 fc ff ff 	mov    %rax,-0x3b8(%rbp)
    d822:	48 8d 85 d0 f6 ff ff 	lea    -0x930(%rbp),%rax
    d829:	48 83 c0 20          	add    $0x20,%rax
    d82d:	48 89 85 50 fc ff ff 	mov    %rax,-0x3b0(%rbp)
    d834:	48 8d 85 d0 f6 ff ff 	lea    -0x930(%rbp),%rax
    d83b:	48 83 c0 20          	add    $0x20,%rax
    d83f:	48 89 85 58 fc ff ff 	mov    %rax,-0x3a8(%rbp)
    d846:	48 8d 85 d0 f6 ff ff 	lea    -0x930(%rbp),%rax
    d84d:	48 83 c0 20          	add    $0x20,%rax
    d851:	48 89 85 60 fc ff ff 	mov    %rax,-0x3a0(%rbp)
    d858:	48 8d 85 d0 f6 ff ff 	lea    -0x930(%rbp),%rax
    d85f:	48 83 c0 20          	add    $0x20,%rax
    d863:	48 89 85 68 fc ff ff 	mov    %rax,-0x398(%rbp)
    d86a:	48 8d 85 d0 f6 ff ff 	lea    -0x930(%rbp),%rax
    d871:	48 83 c0 20          	add    $0x20,%rax
    d875:	48 89 85 70 fc ff ff 	mov    %rax,-0x390(%rbp)
    d87c:	48 8d 85 d0 f6 ff ff 	lea    -0x930(%rbp),%rax
    d883:	48 83 c0 20          	add    $0x20,%rax
    d887:	48 89 85 78 fc ff ff 	mov    %rax,-0x388(%rbp)
    d88e:	48 8d 85 d0 f6 ff ff 	lea    -0x930(%rbp),%rax
    d895:	48 83 c0 20          	add    $0x20,%rax
    d899:	48 89 85 80 fc ff ff 	mov    %rax,-0x380(%rbp)
    d8a0:	48 8d 85 d0 f6 ff ff 	lea    -0x930(%rbp),%rax
    d8a7:	48 83 c0 20          	add    $0x20,%rax
    d8ab:	48 89 85 88 fc ff ff 	mov    %rax,-0x378(%rbp)
    d8b2:	48 8d 85 d0 f6 ff ff 	lea    -0x930(%rbp),%rax
    d8b9:	48 83 c0 28          	add    $0x28,%rax
    d8bd:	48 89 85 90 fc ff ff 	mov    %rax,-0x370(%rbp)
    d8c4:	48 8d 85 d0 f6 ff ff 	lea    -0x930(%rbp),%rax
    d8cb:	48 83 c0 20          	add    $0x20,%rax
    d8cf:	48 89 85 98 fc ff ff 	mov    %rax,-0x368(%rbp)
    d8d6:	48 8d 85 d0 f6 ff ff 	lea    -0x930(%rbp),%rax
    d8dd:	48 83 c0 20          	add    $0x20,%rax
    d8e1:	48 89 85 a0 fc ff ff 	mov    %rax,-0x360(%rbp)
    d8e8:	48 8d 85 d0 f6 ff ff 	lea    -0x930(%rbp),%rax
    d8ef:	48 83 c0 20          	add    $0x20,%rax
    d8f3:	48 89 85 a8 fc ff ff 	mov    %rax,-0x358(%rbp)
    d8fa:	48 8d 85 d0 f6 ff ff 	lea    -0x930(%rbp),%rax
    d901:	48 83 c0 20          	add    $0x20,%rax
    d905:	48 89 85 b0 fc ff ff 	mov    %rax,-0x350(%rbp)
    d90c:	48 8d 85 d0 f6 ff ff 	lea    -0x930(%rbp),%rax
    d913:	48 83 c0 20          	add    $0x20,%rax
    d917:	48 89 85 b8 fc ff ff 	mov    %rax,-0x348(%rbp)
    d91e:	48 8d 85 d0 f6 ff ff 	lea    -0x930(%rbp),%rax
    d925:	48 83 c0 20          	add    $0x20,%rax
    d929:	48 89 85 c0 fc ff ff 	mov    %rax,-0x340(%rbp)
    d930:	48 8d 85 d0 f6 ff ff 	lea    -0x930(%rbp),%rax
    d937:	48 83 c0 20          	add    $0x20,%rax
    d93b:	48 89 85 c8 fc ff ff 	mov    %rax,-0x338(%rbp)
    d942:	48 8d 85 d0 f6 ff ff 	lea    -0x930(%rbp),%rax
    d949:	48 83 c0 20          	add    $0x20,%rax
    d94d:	48 89 85 d0 fc ff ff 	mov    %rax,-0x330(%rbp)
    d954:	48 8d 85 d0 f6 ff ff 	lea    -0x930(%rbp),%rax
    d95b:	48 83 c0 20          	add    $0x20,%rax
    d95f:	48 89 85 d8 fc ff ff 	mov    %rax,-0x328(%rbp)
    d966:	48 8d 85 d0 f6 ff ff 	lea    -0x930(%rbp),%rax
    d96d:	48 83 c0 20          	add    $0x20,%rax
    d971:	48 89 85 e0 fc ff ff 	mov    %rax,-0x320(%rbp)
    d978:	48 8d 85 d0 f6 ff ff 	lea    -0x930(%rbp),%rax
    d97f:	48 83 c0 20          	add    $0x20,%rax
    d983:	48 89 85 e8 fc ff ff 	mov    %rax,-0x318(%rbp)
    d98a:	48 8d 85 d0 f6 ff ff 	lea    -0x930(%rbp),%rax
    d991:	48 83 c0 28          	add    $0x28,%rax
    d995:	48 89 85 f0 fc ff ff 	mov    %rax,-0x310(%rbp)
    d99c:	48 8d 85 d0 f6 ff ff 	lea    -0x930(%rbp),%rax
    d9a3:	48 83 c0 20          	add    $0x20,%rax
    d9a7:	48 89 85 f8 fc ff ff 	mov    %rax,-0x308(%rbp)
    d9ae:	48 8d 85 d0 f6 ff ff 	lea    -0x930(%rbp),%rax
    d9b5:	48 83 c0 20          	add    $0x20,%rax
    d9b9:	48 89 85 00 fd ff ff 	mov    %rax,-0x300(%rbp)
    d9c0:	48 8d 85 d0 f6 ff ff 	lea    -0x930(%rbp),%rax
    d9c7:	48 83 c0 20          	add    $0x20,%rax
    d9cb:	48 89 85 08 fd ff ff 	mov    %rax,-0x2f8(%rbp)
    d9d2:	48 8d 85 d0 f6 ff ff 	lea    -0x930(%rbp),%rax
    d9d9:	48 83 c0 20          	add    $0x20,%rax
    d9dd:	48 89 85 10 fd ff ff 	mov    %rax,-0x2f0(%rbp)
    d9e4:	48 8d 85 d0 f6 ff ff 	lea    -0x930(%rbp),%rax
    d9eb:	48 83 c0 20          	add    $0x20,%rax
    d9ef:	48 89 85 18 fd ff ff 	mov    %rax,-0x2e8(%rbp)
    d9f6:	48 8d 85 d0 f6 ff ff 	lea    -0x930(%rbp),%rax
    d9fd:	48 83 c0 20          	add    $0x20,%rax
    da01:	48 89 85 20 fd ff ff 	mov    %rax,-0x2e0(%rbp)
    da08:	48 8d 85 d0 f6 ff ff 	lea    -0x930(%rbp),%rax
    da0f:	48 83 c0 20          	add    $0x20,%rax
    da13:	48 89 85 28 fd ff ff 	mov    %rax,-0x2d8(%rbp)
    da1a:	48 8d 85 d0 f6 ff ff 	lea    -0x930(%rbp),%rax
    da21:	48 83 c0 20          	add    $0x20,%rax
    da25:	48 89 85 30 fd ff ff 	mov    %rax,-0x2d0(%rbp)
    da2c:	48 8d 85 d0 f6 ff ff 	lea    -0x930(%rbp),%rax
    da33:	48 83 c0 20          	add    $0x20,%rax
    da37:	48 89 85 38 fd ff ff 	mov    %rax,-0x2c8(%rbp)
    da3e:	48 8d 85 d0 f6 ff ff 	lea    -0x930(%rbp),%rax
    da45:	48 83 c0 20          	add    $0x20,%rax
    da49:	48 89 85 40 fd ff ff 	mov    %rax,-0x2c0(%rbp)
    da50:	48 8d 85 d0 f6 ff ff 	lea    -0x930(%rbp),%rax
    da57:	48 83 c0 20          	add    $0x20,%rax
    da5b:	48 89 85 48 fd ff ff 	mov    %rax,-0x2b8(%rbp)
    da62:	48 8d 85 d0 f6 ff ff 	lea    -0x930(%rbp),%rax
    da69:	48 83 c0 28          	add    $0x28,%rax
    da6d:	48 89 85 50 fd ff ff 	mov    %rax,-0x2b0(%rbp)
    da74:	48 8d 85 d0 f6 ff ff 	lea    -0x930(%rbp),%rax
    da7b:	48 83 c0 20          	add    $0x20,%rax
    da7f:	48 89 85 58 fd ff ff 	mov    %rax,-0x2a8(%rbp)
    da86:	48 8d 85 d0 f6 ff ff 	lea    -0x930(%rbp),%rax
    da8d:	48 83 c0 20          	add    $0x20,%rax
    da91:	48 89 85 60 fd ff ff 	mov    %rax,-0x2a0(%rbp)
    da98:	48 8d 85 d0 f6 ff ff 	lea    -0x930(%rbp),%rax
    da9f:	48 83 c0 20          	add    $0x20,%rax
    daa3:	48 89 85 68 fd ff ff 	mov    %rax,-0x298(%rbp)
    daaa:	48 8d 85 d0 f6 ff ff 	lea    -0x930(%rbp),%rax
    dab1:	48 83 c0 20          	add    $0x20,%rax
    dab5:	48 89 85 70 fd ff ff 	mov    %rax,-0x290(%rbp)
    dabc:	48 8d 85 d0 f6 ff ff 	lea    -0x930(%rbp),%rax
    dac3:	48 83 c0 20          	add    $0x20,%rax
    dac7:	48 89 85 78 fd ff ff 	mov    %rax,-0x288(%rbp)
    dace:	48 8d 85 d0 f6 ff ff 	lea    -0x930(%rbp),%rax
    dad5:	48 83 c0 20          	add    $0x20,%rax
    dad9:	48 89 85 80 fd ff ff 	mov    %rax,-0x280(%rbp)
    dae0:	48 8d 85 d0 f6 ff ff 	lea    -0x930(%rbp),%rax
    dae7:	48 83 c0 20          	add    $0x20,%rax
    daeb:	48 89 85 88 fd ff ff 	mov    %rax,-0x278(%rbp)
    daf2:	48 8d 85 d0 f6 ff ff 	lea    -0x930(%rbp),%rax
    daf9:	48 83 c0 20          	add    $0x20,%rax
    dafd:	48 89 85 90 fd ff ff 	mov    %rax,-0x270(%rbp)
    db04:	48 8d 85 d0 f6 ff ff 	lea    -0x930(%rbp),%rax
    db0b:	48 83 c0 20          	add    $0x20,%rax
    db0f:	48 89 85 98 fd ff ff 	mov    %rax,-0x268(%rbp)
    db16:	48 8d 85 d0 f6 ff ff 	lea    -0x930(%rbp),%rax
    db1d:	48 83 c0 20          	add    $0x20,%rax
    db21:	48 89 85 a0 fd ff ff 	mov    %rax,-0x260(%rbp)
    db28:	48 8d 85 d0 f6 ff ff 	lea    -0x930(%rbp),%rax
    db2f:	48 83 c0 20          	add    $0x20,%rax
    db33:	48 89 85 a8 fd ff ff 	mov    %rax,-0x258(%rbp)
    db3a:	48 8d 85 d0 f6 ff ff 	lea    -0x930(%rbp),%rax
    db41:	48 83 c0 28          	add    $0x28,%rax
    db45:	48 89 85 b0 fd ff ff 	mov    %rax,-0x250(%rbp)
    db4c:	48 8d 85 d0 f6 ff ff 	lea    -0x930(%rbp),%rax
    db53:	48 83 c0 20          	add    $0x20,%rax
    db57:	48 89 85 b8 fd ff ff 	mov    %rax,-0x248(%rbp)
    db5e:	48 8d 85 d0 f6 ff ff 	lea    -0x930(%rbp),%rax
    db65:	48 83 c0 20          	add    $0x20,%rax
    db69:	48 89 85 c0 fd ff ff 	mov    %rax,-0x240(%rbp)
    db70:	48 8d 85 d0 f6 ff ff 	lea    -0x930(%rbp),%rax
    db77:	48 83 c0 20          	add    $0x20,%rax
    db7b:	48 89 85 c8 fd ff ff 	mov    %rax,-0x238(%rbp)
    db82:	48 8d 85 d0 f6 ff ff 	lea    -0x930(%rbp),%rax
    db89:	48 83 c0 20          	add    $0x20,%rax
    db8d:	48 89 85 d0 fd ff ff 	mov    %rax,-0x230(%rbp)
    db94:	48 8d 85 d0 f6 ff ff 	lea    -0x930(%rbp),%rax
    db9b:	48 83 c0 20          	add    $0x20,%rax
    db9f:	48 89 85 d8 fd ff ff 	mov    %rax,-0x228(%rbp)
    dba6:	48 8d 85 d0 f6 ff ff 	lea    -0x930(%rbp),%rax
    dbad:	48 83 c0 20          	add    $0x20,%rax
    dbb1:	48 89 85 e0 fd ff ff 	mov    %rax,-0x220(%rbp)
    dbb8:	48 8d 85 d0 f6 ff ff 	lea    -0x930(%rbp),%rax
    dbbf:	48 83 c0 20          	add    $0x20,%rax
    dbc3:	48 89 85 e8 fd ff ff 	mov    %rax,-0x218(%rbp)
    dbca:	48 8d 85 d0 f6 ff ff 	lea    -0x930(%rbp),%rax
    dbd1:	48 83 c0 20          	add    $0x20,%rax
    dbd5:	48 89 85 f0 fd ff ff 	mov    %rax,-0x210(%rbp)
    dbdc:	48 8d 85 d0 f6 ff ff 	lea    -0x930(%rbp),%rax
    dbe3:	48 83 c0 20          	add    $0x20,%rax
    dbe7:	48 89 85 f8 fd ff ff 	mov    %rax,-0x208(%rbp)
    dbee:	48 8d 85 d0 f6 ff ff 	lea    -0x930(%rbp),%rax
    dbf5:	48 83 c0 20          	add    $0x20,%rax
    dbf9:	48 89 85 00 fe ff ff 	mov    %rax,-0x200(%rbp)
    dc00:	48 8d 85 d0 f6 ff ff 	lea    -0x930(%rbp),%rax
    dc07:	48 83 c0 20          	add    $0x20,%rax
    dc0b:	48 89 85 08 fe ff ff 	mov    %rax,-0x1f8(%rbp)
    dc12:	48 8d 85 d0 f6 ff ff 	lea    -0x930(%rbp),%rax
    dc19:	48 83 c0 28          	add    $0x28,%rax
    dc1d:	48 89 85 10 fe ff ff 	mov    %rax,-0x1f0(%rbp)
    dc24:	48 8d 85 d0 f6 ff ff 	lea    -0x930(%rbp),%rax
    dc2b:	48 83 c0 20          	add    $0x20,%rax
    dc2f:	48 89 85 18 fe ff ff 	mov    %rax,-0x1e8(%rbp)
    dc36:	48 8d 85 d0 f6 ff ff 	lea    -0x930(%rbp),%rax
    dc3d:	48 83 c0 20          	add    $0x20,%rax
    dc41:	48 89 85 20 fe ff ff 	mov    %rax,-0x1e0(%rbp)
    dc48:	48 8d 85 d0 f6 ff ff 	lea    -0x930(%rbp),%rax
    dc4f:	48 83 c0 20          	add    $0x20,%rax
    dc53:	48 89 85 28 fe ff ff 	mov    %rax,-0x1d8(%rbp)
    dc5a:	48 8d 85 d0 f6 ff ff 	lea    -0x930(%rbp),%rax
    dc61:	48 83 c0 20          	add    $0x20,%rax
    dc65:	48 89 85 30 fe ff ff 	mov    %rax,-0x1d0(%rbp)
    dc6c:	48 8d 85 d0 f6 ff ff 	lea    -0x930(%rbp),%rax
    dc73:	48 83 c0 20          	add    $0x20,%rax
    dc77:	48 89 85 38 fe ff ff 	mov    %rax,-0x1c8(%rbp)
    dc7e:	48 8d 85 d0 f6 ff ff 	lea    -0x930(%rbp),%rax
    dc85:	48 83 c0 20          	add    $0x20,%rax
    dc89:	48 89 85 40 fe ff ff 	mov    %rax,-0x1c0(%rbp)
    dc90:	48 8d 85 d0 f6 ff ff 	lea    -0x930(%rbp),%rax
    dc97:	48 83 c0 20          	add    $0x20,%rax
    dc9b:	48 89 85 48 fe ff ff 	mov    %rax,-0x1b8(%rbp)
    dca2:	48 8d 85 d0 f6 ff ff 	lea    -0x930(%rbp),%rax
    dca9:	48 83 c0 20          	add    $0x20,%rax
    dcad:	48 89 85 50 fe ff ff 	mov    %rax,-0x1b0(%rbp)
    dcb4:	48 8d 85 d0 f6 ff ff 	lea    -0x930(%rbp),%rax
    dcbb:	48 83 c0 20          	add    $0x20,%rax
    dcbf:	48 89 85 58 fe ff ff 	mov    %rax,-0x1a8(%rbp)
    dcc6:	48 8d 85 d0 f6 ff ff 	lea    -0x930(%rbp),%rax
    dccd:	48 83 c0 20          	add    $0x20,%rax
    dcd1:	48 89 85 60 fe ff ff 	mov    %rax,-0x1a0(%rbp)
    dcd8:	48 8d 85 d0 f6 ff ff 	lea    -0x930(%rbp),%rax
    dcdf:	48 83 c0 20          	add    $0x20,%rax
    dce3:	48 89 85 68 fe ff ff 	mov    %rax,-0x198(%rbp)
    dcea:	48 8d 85 d0 f6 ff ff 	lea    -0x930(%rbp),%rax
    dcf1:	48 83 c0 28          	add    $0x28,%rax
    dcf5:	48 89 85 70 fe ff ff 	mov    %rax,-0x190(%rbp)
    dcfc:	48 8d 85 d0 f6 ff ff 	lea    -0x930(%rbp),%rax
    dd03:	48 83 c0 20          	add    $0x20,%rax
    dd07:	48 89 85 78 fe ff ff 	mov    %rax,-0x188(%rbp)
    dd0e:	48 8d 85 d0 f6 ff ff 	lea    -0x930(%rbp),%rax
    dd15:	48 83 c0 20          	add    $0x20,%rax
    dd19:	48 89 85 80 fe ff ff 	mov    %rax,-0x180(%rbp)
    dd20:	48 8d 85 d0 f6 ff ff 	lea    -0x930(%rbp),%rax
    dd27:	48 83 c0 20          	add    $0x20,%rax
    dd2b:	48 89 85 88 fe ff ff 	mov    %rax,-0x178(%rbp)
    dd32:	48 8d 85 d0 f6 ff ff 	lea    -0x930(%rbp),%rax
    dd39:	48 83 c0 20          	add    $0x20,%rax
    dd3d:	48 89 85 90 fe ff ff 	mov    %rax,-0x170(%rbp)
    dd44:	48 8d 85 d0 f6 ff ff 	lea    -0x930(%rbp),%rax
    dd4b:	48 83 c0 20          	add    $0x20,%rax
    dd4f:	48 89 85 98 fe ff ff 	mov    %rax,-0x168(%rbp)
    dd56:	48 8d 85 d0 f6 ff ff 	lea    -0x930(%rbp),%rax
    dd5d:	48 83 c0 20          	add    $0x20,%rax
    dd61:	48 89 85 a0 fe ff ff 	mov    %rax,-0x160(%rbp)
    dd68:	48 8d 85 d0 f6 ff ff 	lea    -0x930(%rbp),%rax
    dd6f:	48 83 c0 20          	add    $0x20,%rax
    dd73:	48 89 85 a8 fe ff ff 	mov    %rax,-0x158(%rbp)
    dd7a:	48 8d 85 d0 f6 ff ff 	lea    -0x930(%rbp),%rax
    dd81:	48 83 c0 20          	add    $0x20,%rax
    dd85:	48 89 85 b0 fe ff ff 	mov    %rax,-0x150(%rbp)
    dd8c:	48 8d 85 d0 f6 ff ff 	lea    -0x930(%rbp),%rax
    dd93:	48 83 c0 20          	add    $0x20,%rax
    dd97:	48 89 85 b8 fe ff ff 	mov    %rax,-0x148(%rbp)
    dd9e:	48 8d 85 d0 f6 ff ff 	lea    -0x930(%rbp),%rax
    dda5:	48 83 c0 20          	add    $0x20,%rax
    dda9:	48 89 85 c0 fe ff ff 	mov    %rax,-0x140(%rbp)
    ddb0:	48 8d 85 d0 f6 ff ff 	lea    -0x930(%rbp),%rax
    ddb7:	48 83 c0 20          	add    $0x20,%rax
    ddbb:	48 89 85 c8 fe ff ff 	mov    %rax,-0x138(%rbp)
    ddc2:	48 8d 85 d0 f6 ff ff 	lea    -0x930(%rbp),%rax
    ddc9:	48 83 c0 28          	add    $0x28,%rax
    ddcd:	48 89 85 d0 fe ff ff 	mov    %rax,-0x130(%rbp)
    ddd4:	48 8d 85 d0 f6 ff ff 	lea    -0x930(%rbp),%rax
    dddb:	48 83 c0 20          	add    $0x20,%rax
    dddf:	48 89 85 d8 fe ff ff 	mov    %rax,-0x128(%rbp)
    dde6:	48 8d 85 d0 f6 ff ff 	lea    -0x930(%rbp),%rax
    dded:	48 83 c0 20          	add    $0x20,%rax
    ddf1:	48 89 85 e0 fe ff ff 	mov    %rax,-0x120(%rbp)
    ddf8:	48 8d 85 d0 f6 ff ff 	lea    -0x930(%rbp),%rax
    ddff:	48 83 c0 20          	add    $0x20,%rax
    de03:	48 89 85 e8 fe ff ff 	mov    %rax,-0x118(%rbp)
    de0a:	48 8d 85 d0 f6 ff ff 	lea    -0x930(%rbp),%rax
    de11:	48 83 c0 20          	add    $0x20,%rax
    de15:	48 89 85 f0 fe ff ff 	mov    %rax,-0x110(%rbp)
    de1c:	48 8d 85 d0 f6 ff ff 	lea    -0x930(%rbp),%rax
    de23:	48 83 c0 20          	add    $0x20,%rax
    de27:	48 89 85 f8 fe ff ff 	mov    %rax,-0x108(%rbp)
    de2e:	48 8d 85 d0 f6 ff ff 	lea    -0x930(%rbp),%rax
    de35:	48 83 c0 20          	add    $0x20,%rax
    de39:	48 89 85 00 ff ff ff 	mov    %rax,-0x100(%rbp)
    de40:	48 8d 85 d0 f6 ff ff 	lea    -0x930(%rbp),%rax
    de47:	48 83 c0 20          	add    $0x20,%rax
    de4b:	48 89 85 08 ff ff ff 	mov    %rax,-0xf8(%rbp)
    de52:	48 8d 85 d0 f6 ff ff 	lea    -0x930(%rbp),%rax
    de59:	48 83 c0 20          	add    $0x20,%rax
    de5d:	48 89 85 10 ff ff ff 	mov    %rax,-0xf0(%rbp)
    de64:	48 8d 85 d0 f6 ff ff 	lea    -0x930(%rbp),%rax
    de6b:	48 83 c0 20          	add    $0x20,%rax
    de6f:	48 89 85 18 ff ff ff 	mov    %rax,-0xe8(%rbp)
    de76:	48 8d 85 d0 f6 ff ff 	lea    -0x930(%rbp),%rax
    de7d:	48 83 c0 20          	add    $0x20,%rax
    de81:	48 89 85 20 ff ff ff 	mov    %rax,-0xe0(%rbp)
    de88:	48 8d 85 d0 f6 ff ff 	lea    -0x930(%rbp),%rax
    de8f:	48 83 c0 20          	add    $0x20,%rax
    de93:	48 89 85 28 ff ff ff 	mov    %rax,-0xd8(%rbp)
    de9a:	48 8d 85 d0 f6 ff ff 	lea    -0x930(%rbp),%rax
    dea1:	48 83 c0 28          	add    $0x28,%rax
    dea5:	48 89 85 30 ff ff ff 	mov    %rax,-0xd0(%rbp)
    deac:	48 8d 85 d0 f6 ff ff 	lea    -0x930(%rbp),%rax
    deb3:	48 83 c0 20          	add    $0x20,%rax
    deb7:	48 89 85 38 ff ff ff 	mov    %rax,-0xc8(%rbp)
    debe:	48 8d 85 d0 f6 ff ff 	lea    -0x930(%rbp),%rax
    dec5:	48 83 c0 20          	add    $0x20,%rax
    dec9:	48 89 85 40 ff ff ff 	mov    %rax,-0xc0(%rbp)
    ded0:	48 8d 85 d0 f6 ff ff 	lea    -0x930(%rbp),%rax
    ded7:	48 83 c0 20          	add    $0x20,%rax
    dedb:	48 89 85 48 ff ff ff 	mov    %rax,-0xb8(%rbp)
    dee2:	48 8d 85 d0 f6 ff ff 	lea    -0x930(%rbp),%rax
    dee9:	48 83 c0 20          	add    $0x20,%rax
    deed:	48 89 85 50 ff ff ff 	mov    %rax,-0xb0(%rbp)
    def4:	48 8d 85 d0 f6 ff ff 	lea    -0x930(%rbp),%rax
    defb:	48 83 c0 20          	add    $0x20,%rax
    deff:	48 89 85 58 ff ff ff 	mov    %rax,-0xa8(%rbp)
    df06:	48 8d 85 d0 f6 ff ff 	lea    -0x930(%rbp),%rax
    df0d:	48 83 c0 20          	add    $0x20,%rax
    df11:	48 89 85 60 ff ff ff 	mov    %rax,-0xa0(%rbp)
    df18:	48 8d 85 d0 f6 ff ff 	lea    -0x930(%rbp),%rax
    df1f:	48 83 c0 20          	add    $0x20,%rax
    df23:	48 89 85 68 ff ff ff 	mov    %rax,-0x98(%rbp)
    df2a:	48 8d 85 d0 f6 ff ff 	lea    -0x930(%rbp),%rax
    df31:	48 83 c0 20          	add    $0x20,%rax
    df35:	48 89 85 70 ff ff ff 	mov    %rax,-0x90(%rbp)
    df3c:	48 8d 85 d0 f6 ff ff 	lea    -0x930(%rbp),%rax
    df43:	48 83 c0 20          	add    $0x20,%rax
    df47:	48 89 85 78 ff ff ff 	mov    %rax,-0x88(%rbp)
    df4e:	48 8d 85 d0 f6 ff ff 	lea    -0x930(%rbp),%rax
    df55:	48 83 c0 20          	add    $0x20,%rax
    df59:	48 89 45 80          	mov    %rax,-0x80(%rbp)
    df5d:	48 8d 85 d0 f6 ff ff 	lea    -0x930(%rbp),%rax
    df64:	48 83 c0 20          	add    $0x20,%rax
    df68:	48 89 45 88          	mov    %rax,-0x78(%rbp)
    df6c:	48 8d 85 d0 f6 ff ff 	lea    -0x930(%rbp),%rax
    df73:	48 83 c0 28          	add    $0x28,%rax
    df77:	48 89 45 90          	mov    %rax,-0x70(%rbp)
    df7b:	48 8d 85 d0 f6 ff ff 	lea    -0x930(%rbp),%rax
    df82:	48 83 c0 20          	add    $0x20,%rax
    df86:	48 89 45 98          	mov    %rax,-0x68(%rbp)
    df8a:	48 8d 85 d0 f6 ff ff 	lea    -0x930(%rbp),%rax
    df91:	48 83 c0 20          	add    $0x20,%rax
    df95:	48 89 45 a0          	mov    %rax,-0x60(%rbp)
    df99:	48 8d 85 d0 f6 ff ff 	lea    -0x930(%rbp),%rax
    dfa0:	48 83 c0 20          	add    $0x20,%rax
    dfa4:	48 89 45 a8          	mov    %rax,-0x58(%rbp)
    dfa8:	48 8d 85 d0 f6 ff ff 	lea    -0x930(%rbp),%rax
    dfaf:	48 83 c0 20          	add    $0x20,%rax
    dfb3:	48 89 45 b0          	mov    %rax,-0x50(%rbp)
    dfb7:	48 8d 85 d0 f6 ff ff 	lea    -0x930(%rbp),%rax
    dfbe:	48 83 c0 20          	add    $0x20,%rax
    dfc2:	48 89 45 b8          	mov    %rax,-0x48(%rbp)
    dfc6:	48 8d 85 d0 f6 ff ff 	lea    -0x930(%rbp),%rax
    dfcd:	48 83 c0 20          	add    $0x20,%rax
    dfd1:	48 89 45 c0          	mov    %rax,-0x40(%rbp)
    dfd5:	48 8d 85 d0 f6 ff ff 	lea    -0x930(%rbp),%rax
    dfdc:	48 83 c0 20          	add    $0x20,%rax
    dfe0:	48 89 45 c8          	mov    %rax,-0x38(%rbp)
    dfe4:	48 8d 85 d0 f6 ff ff 	lea    -0x930(%rbp),%rax
    dfeb:	48 83 c0 20          	add    $0x20,%rax
    dfef:	48 89 45 d0          	mov    %rax,-0x30(%rbp)
    dff3:	66 c7 85 a4 f6 ff ff 	movw   $0x1,-0x95c(%rbp)
    dffa:	01 00 
    dffc:	66 c7 85 a6 f6 ff ff 	movw   $0xde2f,-0x95a(%rbp)
    e003:	2f de 
    e005:	66 c7 85 a8 f6 ff ff 	movw   $0xde2f,-0x958(%rbp)
    e00c:	2f de 
    e00e:	66 c7 85 aa f6 ff ff 	movw   $0x1,-0x956(%rbp)
    e015:	01 00 
    e017:	66 c7 85 ac f6 ff ff 	movw   $0xde2f,-0x954(%rbp)
    e01e:	2f de 
    e020:	66 c7 85 ae f6 ff ff 	movw   $0xde2f,-0x952(%rbp)
    e027:	2f de 
    e029:	48 8d 05 0a 80 00 00 	lea    0x800a(%rip),%rax        # 1603a <g_9+0xa>
    e030:	48 89 85 88 f6 ff ff 	mov    %rax,-0x978(%rbp)
    e037:	48 8d 05 6a 81 00 00 	lea    0x816a(%rip),%rax        # 161a8 <g_327>
    e03e:	48 89 85 b0 f6 ff ff 	mov    %rax,-0x950(%rbp)
    e045:	48 8d 05 5c 81 00 00 	lea    0x815c(%rip),%rax        # 161a8 <g_327>
    e04c:	48 89 85 b8 f6 ff ff 	mov    %rax,-0x948(%rbp)
    e053:	48 8d 05 4e 81 00 00 	lea    0x814e(%rip),%rax        # 161a8 <g_327>
    e05a:	48 89 85 c0 f6 ff ff 	mov    %rax,-0x940(%rbp)
    e061:	48 8d 05 40 81 00 00 	lea    0x8140(%rip),%rax        # 161a8 <g_327>
    e068:	48 89 85 c8 f6 ff ff 	mov    %rax,-0x938(%rbp)
    e06f:	48 8d 85 b0 f6 ff ff 	lea    -0x950(%rbp),%rax
    e076:	48 89 85 90 f6 ff ff 	mov    %rax,-0x970(%rbp)
    e07d:	48 8d 05 4c 82 00 00 	lea    0x824c(%rip),%rax        # 162d0 <g_905>
    e084:	48 89 85 98 f6 ff ff 	mov    %rax,-0x968(%rbp)
    e08b:	48 8b 05 16 a3 00 00 	mov    0xa316(%rip),%rax        # 183a8 <g_525>
    e092:	48 c7 00 00 00 00 00 	movq   $0x0,(%rax)
    e099:	8b 05 01 81 00 00    	mov    0x8101(%rip),%eax        # 161a0 <g_325>
    e09f:	39 85 44 f6 ff ff    	cmp    %eax,-0x9bc(%rbp)
    e0a5:	0f 9f c0             	setg   %al
    e0a8:	89 c2                	mov    %eax,%edx
    e0aa:	48 8b 85 80 f6 ff ff 	mov    -0x980(%rbp),%rax
    e0b1:	88 10                	mov    %dl,(%rax)
    e0b3:	48 8b 85 80 f6 ff ff 	mov    -0x980(%rbp),%rax
    e0ba:	0f b6 00             	movzbl (%rax),%eax
    e0bd:	0f b6 d0             	movzbl %al,%edx
    e0c0:	48 8b 85 f0 f6 ff ff 	mov    -0x910(%rbp),%rax
    e0c7:	48 89 85 f0 f6 ff ff 	mov    %rax,-0x910(%rbp)
    e0ce:	48 8b 85 f0 f6 ff ff 	mov    -0x910(%rbp),%rax
    e0d5:	48 85 c0             	test   %rax,%rax
    e0d8:	0f 95 c0             	setne  %al
    e0db:	0f b6 c0             	movzbl %al,%eax
    e0de:	39 c2                	cmp    %eax,%edx
    e0e0:	8b 9d 44 f6 ff ff    	mov    -0x9bc(%rbp),%ebx
    e0e6:	48 8b 85 48 f6 ff ff 	mov    -0x9b8(%rbp),%rax
    e0ed:	41 89 c5             	mov    %eax,%r13d
    e0f0:	4c 8b a5 48 f6 ff ff 	mov    -0x9b8(%rbp),%r12
    e0f7:	48 8b 05 d2 a2 00 00 	mov    0xa2d2(%rip),%rax        # 183d0 <g_598>
    e0fe:	0f b7 95 a8 f6 ff ff 	movzwl -0x958(%rbp),%edx
    e105:	66 89 10             	mov    %dx,(%rax)
    e108:	48 8b 05 c1 7f 00 00 	mov    0x7fc1(%rip),%rax        # 160d0 <g_157>
    e10f:	98                   	cwtl   
    e110:	c7 85 38 f6 ff ff 04 	movl   $0x4,-0x9c8(%rbp)
    e117:	00 00 00 
    e11a:	89 c6                	mov    %eax,%esi
    e11c:	bf 04 00 00 00       	mov    $0x4,%edi
    e121:	e8 cf a2 ff ff       	callq  83f5 <safe_mul_func_int16_t_s_s>
    e126:	98                   	cwtl   
    e127:	89 c6                	mov    %eax,%esi
    e129:	bf 00 00 00 00       	mov    $0x0,%edi
    e12e:	e8 80 a2 ff ff       	callq  83b3 <safe_add_func_int16_t_s_s>
    e133:	0f bf d0             	movswl %ax,%edx
    e136:	0f b7 05 fd 7e 00 00 	movzwl 0x7efd(%rip),%eax        # 1603a <g_9+0xa>
    e13d:	0f b7 c0             	movzwl %ax,%eax
    e140:	39 c2                	cmp    %eax,%edx
    e142:	0f 95 c0             	setne  %al
    e145:	0f b6 d0             	movzbl %al,%edx
    e148:	48 8b 85 88 f6 ff ff 	mov    -0x978(%rbp),%rax
    e14f:	66 89 10             	mov    %dx,(%rax)
    e152:	48 8b 85 88 f6 ff ff 	mov    -0x978(%rbp),%rax
    e159:	0f b7 00             	movzwl (%rax),%eax
    e15c:	0f b7 c0             	movzwl %ax,%eax
    e15f:	89 c6                	mov    %eax,%esi
    e161:	bf fa ff 00 00       	mov    $0xfffa,%edi
    e166:	e8 d2 ab ff ff       	callq  8d3d <safe_mul_func_uint16_t_u_u>
    e16b:	0f b7 c0             	movzwl %ax,%eax
    e16e:	4c 89 e6             	mov    %r12,%rsi
    e171:	48 89 c7             	mov    %rax,%rdi
    e174:	e8 07 af ff ff       	callq  9080 <safe_mod_func_uint64_t_u_u>
    e179:	44 89 ee             	mov    %r13d,%esi
    e17c:	bf 01 00 00 00       	mov    $0x1,%edi
    e181:	e8 80 ac ff ff       	callq  8e06 <safe_lshift_func_uint16_t_u_u>
    e186:	66 85 c0             	test   %ax,%ax
    e189:	75 07                	jne    e192 <func_30+0x1636>
    e18b:	83 bd 44 f6 ff ff 00 	cmpl   $0x0,-0x9bc(%rbp)
    e192:	8b 95 44 f6 ff ff    	mov    -0x9bc(%rbp),%edx
    e198:	8b 85 44 f6 ff ff    	mov    -0x9bc(%rbp),%eax
    e19e:	89 d6                	mov    %edx,%esi
    e1a0:	89 c7                	mov    %eax,%edi
    e1a2:	e8 5e a4 ff ff       	callq  8605 <safe_sub_func_int32_t_s_s>
    e1a7:	0f be c0             	movsbl %al,%eax
    e1aa:	89 de                	mov    %ebx,%esi
    e1ac:	89 c7                	mov    %eax,%edi
    e1ae:	e8 b9 a1 ff ff       	callq  836c <safe_rshift_func_int8_t_s_u>
    e1b3:	66 98                	cbtw   
    e1b5:	0f b7 c0             	movzwl %ax,%eax
    e1b8:	89 c6                	mov    %eax,%esi
    e1ba:	bf 02 00 00 00       	mov    $0x2,%edi
    e1bf:	e8 79 ab ff ff       	callq  8d3d <safe_mul_func_uint16_t_u_u>
    e1c4:	66 83 f8 01          	cmp    $0x1,%ax
    e1c8:	0f 94 c0             	sete   %al
    e1cb:	0f b6 c0             	movzbl %al,%eax
    e1ce:	89 c7                	mov    %eax,%edi
    e1d0:	e8 c1 a3 ff ff       	callq  8596 <safe_unary_minus_func_int32_t_s>
    e1d5:	48 8b 85 90 f6 ff ff 	mov    -0x970(%rbp),%rax
    e1dc:	48 c7 00 00 00 00 00 	movq   $0x0,(%rax)
    e1e3:	48 8b 85 88 f6 ff ff 	mov    -0x978(%rbp),%rax
    e1ea:	0f b7 00             	movzwl (%rax),%eax
    e1ed:	8d 50 ff             	lea    -0x1(%rax),%edx
    e1f0:	48 8b 85 88 f6 ff ff 	mov    -0x978(%rbp),%rax
    e1f7:	66 89 10             	mov    %dx,(%rax)
    e1fa:	48 8b 85 88 f6 ff ff 	mov    -0x978(%rbp),%rax
    e201:	0f b7 10             	movzwl (%rax),%edx
    e204:	48 8b 85 98 f6 ff ff 	mov    -0x968(%rbp),%rax
    e20b:	66 89 10             	mov    %dx,(%rax)
    e20e:	48 8b 85 98 f6 ff ff 	mov    -0x968(%rbp),%rax
    e215:	0f b7 00             	movzwl (%rax),%eax
    e218:	66 83 f8 ff          	cmp    $0xffff,%ax
    e21c:	0f 95 c0             	setne  %al
    e21f:	0f b6 c0             	movzbl %al,%eax
    e222:	89 85 34 f6 ff ff    	mov    %eax,-0x9cc(%rbp)
    e228:	8b 8d 34 f6 ff ff    	mov    -0x9cc(%rbp),%ecx
    e22e:	48 8b 05 5b a3 00 00 	mov    0xa35b(%rip),%rax        # 18590 <g_907>
    e235:	8b 10                	mov    (%rax),%edx
    e237:	21 ca                	and    %ecx,%edx
    e239:	89 10                	mov    %edx,(%rax)
    e23b:	eb 1f                	jmp    e25c <func_30+0x1700>
    e23d:	c7 05 75 7f 00 00 00 	movl   $0x0,0x7f75(%rip)        # 161bc <g_417>
    e244:	00 00 00 
    e247:	90                   	nop
    e248:	8b 05 6e 7f 00 00    	mov    0x7f6e(%rip),%eax        # 161bc <g_417>
    e24e:	83 f8 e6             	cmp    $0xffffffe6,%eax
    e251:	7c 09                	jl     e25c <func_30+0x1700>
    e253:	48 8b 85 50 f6 ff ff 	mov    -0x9b0(%rbp),%rax
    e25a:	eb 11                	jmp    e26d <func_30+0x1711>
    e25c:	83 ad 40 f6 ff ff 01 	subl   $0x1,-0x9c0(%rbp)
    e263:	48 8b 05 5e a0 00 00 	mov    0xa05e(%rip),%rax        # 182c8 <g_195>
    e26a:	48 8b 00             	mov    (%rax),%rax
    e26d:	48 8b 4d d8          	mov    -0x28(%rbp),%rcx
    e271:	64 48 33 0c 25 28 00 	xor    %fs:0x28,%rcx
    e278:	00 00 
    e27a:	74 05                	je     e281 <func_30+0x1725>
    e27c:	e8 ef 9d ff ff       	callq  8070 <__stack_chk_fail@plt>
    e281:	48 81 c4 c8 09 00 00 	add    $0x9c8,%rsp
    e288:	5b                   	pop    %rbx
    e289:	41 5c                	pop    %r12
    e28b:	41 5d                	pop    %r13
    e28d:	5d                   	pop    %rbp
    e28e:	c3                   	retq   

000000000000e28f <func_33>:
    e28f:	f3 0f 1e fa          	endbr64 
    e293:	55                   	push   %rbp
    e294:	48 89 e5             	mov    %rsp,%rbp
    e297:	41 54                	push   %r12
    e299:	53                   	push   %rbx
    e29a:	48 83 c4 80          	add    $0xffffffffffffff80,%rsp
    e29e:	48 89 bd 78 ff ff ff 	mov    %rdi,-0x88(%rbp)
    e2a5:	89 f0                	mov    %esi,%eax
    e2a7:	88 85 74 ff ff ff    	mov    %al,-0x8c(%rbp)
    e2ad:	64 48 8b 04 25 28 00 	mov    %fs:0x28,%rax
    e2b4:	00 00 
    e2b6:	48 89 45 e8          	mov    %rax,-0x18(%rbp)
    e2ba:	31 c0                	xor    %eax,%eax
    e2bc:	48 8d 05 81 7d 00 00 	lea    0x7d81(%rip),%rax        # 16044 <g_13>
    e2c3:	48 89 45 80          	mov    %rax,-0x80(%rbp)
    e2c7:	48 c7 45 88 00 00 00 	movq   $0x0,-0x78(%rbp)
    e2ce:	00 
    e2cf:	c6 05 da 7f 00 00 00 	movb   $0x0,0x7fda(%rip)        # 162b0 <g_732>
    e2d6:	eb 36                	jmp    e30e <func_33+0x7f>
    e2d8:	0f b6 05 d1 7f 00 00 	movzbl 0x7fd1(%rip),%eax        # 162b0 <g_732>
    e2df:	0f be c0             	movsbl %al,%eax
    e2e2:	48 98                	cltq   
    e2e4:	48 8d 14 c5 00 00 00 	lea    0x0(,%rax,8),%rdx
    e2eb:	00 
    e2ec:	48 8d 05 9d 9f 00 00 	lea    0x9f9d(%rip),%rax        # 18290 <g_96>
    e2f3:	48 8d 0d 86 9f 00 00 	lea    0x9f86(%rip),%rcx        # 18280 <g_97>
    e2fa:	48 89 0c 02          	mov    %rcx,(%rdx,%rax,1)
    e2fe:	0f b6 05 ab 7f 00 00 	movzbl 0x7fab(%rip),%eax        # 162b0 <g_732>
    e305:	83 c0 01             	add    $0x1,%eax
    e308:	88 05 a2 7f 00 00    	mov    %al,0x7fa2(%rip)        # 162b0 <g_732>
    e30e:	0f b6 05 9b 7f 00 00 	movzbl 0x7f9b(%rip),%eax        # 162b0 <g_732>
    e315:	3c 02                	cmp    $0x2,%al
    e317:	7e bf                	jle    e2d8 <func_33+0x49>
    e319:	48 c7 05 7c 7e 00 00 	movq   $0x0,0x7e7c(%rip)        # 161a0 <g_325>
    e320:	00 00 00 00 
    e324:	e9 f4 01 00 00       	jmpq   e51d <func_33+0x28e>
    e329:	66 c7 45 a0 05 00    	movw   $0x5,-0x60(%rbp)
    e32f:	66 c7 45 a2 05 00    	movw   $0x5,-0x5e(%rbp)
    e335:	66 c7 45 a4 05 00    	movw   $0x5,-0x5c(%rbp)
    e33b:	66 c7 45 a6 05 00    	movw   $0x5,-0x5a(%rbp)
    e341:	66 c7 45 a8 05 00    	movw   $0x5,-0x58(%rbp)
    e347:	66 c7 45 aa 05 00    	movw   $0x5,-0x56(%rbp)
    e34d:	66 c7 45 ac 05 00    	movw   $0x5,-0x54(%rbp)
    e353:	66 c7 45 ae 05 00    	movw   $0x5,-0x52(%rbp)
    e359:	66 c7 45 b0 05 00    	movw   $0x5,-0x50(%rbp)
    e35f:	66 c7 45 b2 05 00    	movw   $0x5,-0x4e(%rbp)
    e365:	66 c7 45 b4 05 00    	movw   $0x5,-0x4c(%rbp)
    e36b:	66 c7 45 b6 05 00    	movw   $0x5,-0x4a(%rbp)
    e371:	66 c7 45 b8 05 00    	movw   $0x5,-0x48(%rbp)
    e377:	66 c7 45 ba 05 00    	movw   $0x5,-0x46(%rbp)
    e37d:	66 c7 45 bc 05 00    	movw   $0x5,-0x44(%rbp)
    e383:	66 c7 45 be 05 00    	movw   $0x5,-0x42(%rbp)
    e389:	66 c7 45 c0 05 00    	movw   $0x5,-0x40(%rbp)
    e38f:	66 c7 45 c2 05 00    	movw   $0x5,-0x3e(%rbp)
    e395:	66 c7 45 c4 05 00    	movw   $0x5,-0x3c(%rbp)
    e39b:	66 c7 45 c6 05 00    	movw   $0x5,-0x3a(%rbp)
    e3a1:	66 c7 45 c8 05 00    	movw   $0x5,-0x38(%rbp)
    e3a7:	66 c7 45 ca 05 00    	movw   $0x5,-0x36(%rbp)
    e3ad:	66 c7 45 cc 05 00    	movw   $0x5,-0x34(%rbp)
    e3b3:	66 c7 45 ce 05 00    	movw   $0x5,-0x32(%rbp)
    e3b9:	66 c7 45 d0 05 00    	movw   $0x5,-0x30(%rbp)
    e3bf:	66 c7 45 d2 05 00    	movw   $0x5,-0x2e(%rbp)
    e3c5:	66 c7 45 d4 05 00    	movw   $0x5,-0x2c(%rbp)
    e3cb:	66 c7 45 d6 05 00    	movw   $0x5,-0x2a(%rbp)
    e3d1:	66 c7 45 d8 05 00    	movw   $0x5,-0x28(%rbp)
    e3d7:	66 c7 45 da 05 00    	movw   $0x5,-0x26(%rbp)
    e3dd:	66 c7 45 dc 05 00    	movw   $0x5,-0x24(%rbp)
    e3e3:	66 c7 45 de 05 00    	movw   $0x5,-0x22(%rbp)
    e3e9:	48 8d 05 c8 7e 00 00 	lea    0x7ec8(%rip),%rax        # 162b8 <g_763>
    e3f0:	48 89 45 90          	mov    %rax,-0x70(%rbp)
    e3f4:	48 8d 05 c1 7c 00 00 	lea    0x7cc1(%rip),%rax        # 160bc <g_82>
    e3fb:	48 89 45 98          	mov    %rax,-0x68(%rbp)
    e3ff:	c7 05 b3 7c 00 00 e5 	movl   $0xffffffe5,0x7cb3(%rip)        # 160bc <g_82>
    e406:	ff ff ff 
    e409:	eb 28                	jmp    e433 <func_33+0x1a4>
    e40b:	48 8b 05 76 a1 00 00 	mov    0xa176(%rip),%rax        # 18588 <g_849>
    e412:	48 8b 55 80          	mov    -0x80(%rbp),%rdx
    e416:	48 89 10             	mov    %rdx,(%rax)
    e419:	8b 05 9d 7c 00 00    	mov    0x7c9d(%rip),%eax        # 160bc <g_82>
    e41f:	98                   	cwtl   
    e420:	be 06 00 00 00       	mov    $0x6,%esi
    e425:	89 c7                	mov    %eax,%edi
    e427:	e8 87 9f ff ff       	callq  83b3 <safe_add_func_int16_t_s_s>
    e42c:	98                   	cwtl   
    e42d:	89 05 89 7c 00 00    	mov    %eax,0x7c89(%rip)        # 160bc <g_82>
    e433:	8b 05 83 7c 00 00    	mov    0x7c83(%rip),%eax        # 160bc <g_82>
    e439:	83 f8 1c             	cmp    $0x1c,%eax
    e43c:	74 cd                	je     e40b <func_33+0x17c>
    e43e:	8b 05 78 7c 00 00    	mov    0x7c78(%rip),%eax        # 160bc <g_82>
    e444:	89 c3                	mov    %eax,%ebx
    e446:	0f b6 85 74 ff ff ff 	movzbl -0x8c(%rbp),%eax
    e44d:	be 01 00 00 00       	mov    $0x1,%esi
    e452:	89 c7                	mov    %eax,%edi
    e454:	e8 34 a8 ff ff       	callq  8c8d <safe_rshift_func_uint8_t_u_s>
    e459:	48 8b 85 78 ff ff ff 	mov    -0x88(%rbp),%rax
    e460:	41 89 c4             	mov    %eax,%r12d
    e463:	48 8b 05 c6 9d 00 00 	mov    0x9dc6(%rip),%rax        # 18230 <g_25>
    e46a:	8b 00                	mov    (%rax),%eax
    e46c:	89 c6                	mov    %eax,%esi
    e46e:	bf 01 00 00 00       	mov    $0x1,%edi
    e473:	e8 85 aa ff ff       	callq  8efd <safe_mod_func_uint32_t_u_u>
    e478:	89 c2                	mov    %eax,%edx
    e47a:	80 bd 74 ff ff ff 00 	cmpb   $0x0,-0x8c(%rbp)
    e481:	0f 95 c0             	setne  %al
    e484:	0f b6 c0             	movzbl %al,%eax
    e487:	48 89 d6             	mov    %rdx,%rsi
    e48a:	48 89 c7             	mov    %rax,%rdi
    e48d:	e8 16 a4 ff ff       	callq  88a8 <safe_sub_func_int64_t_s_s>
    e492:	44 89 e6             	mov    %r12d,%esi
    e495:	89 c7                	mov    %eax,%edi
    e497:	e8 34 aa ff ff       	callq  8ed0 <safe_sub_func_uint32_t_u_u>
    e49c:	83 f8 05             	cmp    $0x5,%eax
    e49f:	0f b6 05 26 7c 00 00 	movzbl 0x7c26(%rip),%eax        # 160cc <g_129>
    e4a6:	0f be c0             	movsbl %al,%eax
    e4a9:	be 01 00 00 00       	mov    $0x1,%esi
    e4ae:	89 c7                	mov    %eax,%edi
    e4b0:	e8 fe 9e ff ff       	callq  83b3 <safe_add_func_int16_t_s_s>
    e4b5:	0f bf d0             	movswl %ax,%edx
    e4b8:	48 8b 85 78 ff ff ff 	mov    -0x88(%rbp),%rax
    e4bf:	98                   	cwtl   
    e4c0:	89 d6                	mov    %edx,%esi
    e4c2:	89 c7                	mov    %eax,%edi
    e4c4:	e8 2c 9f ff ff       	callq  83f5 <safe_mul_func_int16_t_s_s>
    e4c9:	48 8b 55 90          	mov    -0x70(%rbp),%rdx
    e4cd:	8b 12                	mov    (%rdx),%edx
    e4cf:	98                   	cwtl   
    e4d0:	09 c2                	or     %eax,%edx
    e4d2:	48 8b 45 90          	mov    -0x70(%rbp),%rax
    e4d6:	89 10                	mov    %edx,(%rax)
    e4d8:	48 8b 45 90          	mov    -0x70(%rbp),%rax
    e4dc:	8b 00                	mov    (%rax),%eax
    e4de:	48 98                	cltq   
    e4e0:	25 ef 4a 9c d3       	and    $0xd39c4aef,%eax
    e4e5:	48 89 c2             	mov    %rax,%rdx
    e4e8:	48 8b 45 80          	mov    -0x80(%rbp),%rax
    e4ec:	8b 00                	mov    (%rax),%eax
    e4ee:	48 98                	cltq   
    e4f0:	48 39 c2             	cmp    %rax,%rdx
    e4f3:	0f 94 c0             	sete   %al
    e4f6:	0f b6 c0             	movzbl %al,%eax
    e4f9:	89 de                	mov    %ebx,%esi
    e4fb:	89 c7                	mov    %eax,%edi
    e4fd:	e8 61 a0 ff ff       	callq  8563 <safe_rshift_func_int16_t_s_u>
    e502:	0f bf d0             	movswl %ax,%edx
    e505:	48 8b 45 98          	mov    -0x68(%rbp),%rax
    e509:	89 10                	mov    %edx,(%rax)
    e50b:	48 8b 05 8e 7c 00 00 	mov    0x7c8e(%rip),%rax        # 161a0 <g_325>
    e512:	48 83 e8 01          	sub    $0x1,%rax
    e516:	48 89 05 83 7c 00 00 	mov    %rax,0x7c83(%rip)        # 161a0 <g_325>
    e51d:	48 8b 05 7c 7c 00 00 	mov    0x7c7c(%rip),%rax        # 161a0 <g_325>
    e524:	48 83 f8 e3          	cmp    $0xffffffffffffffe3,%rax
    e528:	0f 85 fb fd ff ff    	jne    e329 <func_33+0x9a>
    e52e:	48 8b 45 88          	mov    -0x78(%rbp),%rax
    e532:	48 8b 4d e8          	mov    -0x18(%rbp),%rcx
    e536:	64 48 33 0c 25 28 00 	xor    %fs:0x28,%rcx
    e53d:	00 00 
    e53f:	74 05                	je     e546 <func_33+0x2b7>
    e541:	e8 2a 9b ff ff       	callq  8070 <__stack_chk_fail@plt>
    e546:	48 83 ec 80          	sub    $0xffffffffffffff80,%rsp
    e54a:	5b                   	pop    %rbx
    e54b:	41 5c                	pop    %r12
    e54d:	5d                   	pop    %rbp
    e54e:	c3                   	retq   

000000000000e54f <func_36>:
    e54f:	f3 0f 1e fa          	endbr64 
    e553:	55                   	push   %rbp
    e554:	48 89 e5             	mov    %rsp,%rbp
    e557:	41 54                	push   %r12
    e559:	53                   	push   %rbx
    e55a:	48 81 ec 90 06 00 00 	sub    $0x690,%rsp
    e561:	48 89 bd 78 f9 ff ff 	mov    %rdi,-0x688(%rbp)
    e568:	48 89 b5 70 f9 ff ff 	mov    %rsi,-0x690(%rbp)
    e56f:	89 d0                	mov    %edx,%eax
    e571:	88 85 6c f9 ff ff    	mov    %al,-0x694(%rbp)
    e577:	64 48 8b 04 25 28 00 	mov    %fs:0x28,%rax
    e57e:	00 00 
    e580:	48 89 45 e8          	mov    %rax,-0x18(%rbp)
    e584:	31 c0                	xor    %eax,%eax
    e586:	c7 85 90 f9 ff ff 01 	movl   $0x1,-0x670(%rbp)
    e58d:	00 00 00 
    e590:	66 c7 85 d0 f9 ff ff 	movw   $0xffff,-0x630(%rbp)
    e597:	ff ff 
    e599:	66 c7 85 d2 f9 ff ff 	movw   $0xffff,-0x62e(%rbp)
    e5a0:	ff ff 
    e5a2:	66 c7 85 d4 f9 ff ff 	movw   $0xffff,-0x62c(%rbp)
    e5a9:	ff ff 
    e5ab:	66 c7 85 d6 f9 ff ff 	movw   $0xffff,-0x62a(%rbp)
    e5b2:	ff ff 
    e5b4:	66 c7 85 d8 f9 ff ff 	movw   $0xffff,-0x628(%rbp)
    e5bb:	ff ff 
    e5bd:	66 c7 85 da f9 ff ff 	movw   $0xffff,-0x626(%rbp)
    e5c4:	ff ff 
    e5c6:	66 c7 85 dc f9 ff ff 	movw   $0xffff,-0x624(%rbp)
    e5cd:	ff ff 
    e5cf:	66 c7 85 de f9 ff ff 	movw   $0xffff,-0x622(%rbp)
    e5d6:	ff ff 
    e5d8:	48 8d 05 d9 9d 00 00 	lea    0x9dd9(%rip),%rax        # 183b8 <g_592>
    e5df:	48 89 85 a8 f9 ff ff 	mov    %rax,-0x658(%rbp)
    e5e6:	48 8d 05 d3 7c 00 00 	lea    0x7cd3(%rip),%rax        # 162c0 <g_814>
    e5ed:	48 89 85 b0 f9 ff ff 	mov    %rax,-0x650(%rbp)
    e5f4:	c7 85 94 f9 ff ff cf 	movl   $0x2f0929cf,-0x66c(%rbp)
    e5fb:	29 09 2f 
    e5fe:	48 8d 85 d0 f9 ff ff 	lea    -0x630(%rbp),%rax
    e605:	48 83 c0 02          	add    $0x2,%rax
    e609:	48 89 85 98 f9 ff ff 	mov    %rax,-0x668(%rbp)
    e610:	48 8d 85 98 f9 ff ff 	lea    -0x668(%rbp),%rax
    e617:	48 89 85 b8 f9 ff ff 	mov    %rax,-0x648(%rbp)
    e61e:	48 c7 85 a0 f9 ff ff 	movq   $0x0,-0x660(%rbp)
    e625:	00 00 00 00 
    e629:	48 8d 05 04 7a 00 00 	lea    0x7a04(%rip),%rax        # 16034 <g_9+0x4>
    e630:	48 89 85 c0 f9 ff ff 	mov    %rax,-0x640(%rbp)
    e637:	48 c7 85 c8 f9 ff ff 	movq   $0x0,-0x638(%rbp)
    e63e:	00 00 00 00 
    e642:	48 8d 05 69 7b 00 00 	lea    0x7b69(%rip),%rax        # 161b2 <g_371>
    e649:	48 89 85 e0 f9 ff ff 	mov    %rax,-0x620(%rbp)
    e650:	48 c7 85 e8 f9 ff ff 	movq   $0x0,-0x618(%rbp)
    e657:	00 00 00 00 
    e65b:	48 8d 85 d0 f9 ff ff 	lea    -0x630(%rbp),%rax
    e662:	48 83 c0 02          	add    $0x2,%rax
    e666:	48 89 85 f0 f9 ff ff 	mov    %rax,-0x610(%rbp)
    e66d:	48 c7 85 f8 f9 ff ff 	movq   $0x0,-0x608(%rbp)
    e674:	00 00 00 00 
    e678:	48 8d 85 d0 f9 ff ff 	lea    -0x630(%rbp),%rax
    e67f:	48 83 c0 02          	add    $0x2,%rax
    e683:	48 89 85 00 fa ff ff 	mov    %rax,-0x600(%rbp)
    e68a:	48 8d 05 21 7b 00 00 	lea    0x7b21(%rip),%rax        # 161b2 <g_371>
    e691:	48 89 85 08 fa ff ff 	mov    %rax,-0x5f8(%rbp)
    e698:	48 c7 85 10 fa ff ff 	movq   $0x0,-0x5f0(%rbp)
    e69f:	00 00 00 00 
    e6a3:	48 c7 85 18 fa ff ff 	movq   $0x0,-0x5e8(%rbp)
    e6aa:	00 00 00 00 
    e6ae:	48 8d 05 fd 7a 00 00 	lea    0x7afd(%rip),%rax        # 161b2 <g_371>
    e6b5:	48 89 85 20 fa ff ff 	mov    %rax,-0x5e0(%rbp)
    e6bc:	48 c7 85 28 fa ff ff 	movq   $0x0,-0x5d8(%rbp)
    e6c3:	00 00 00 00 
    e6c7:	48 8d 05 ca 7b 00 00 	lea    0x7bca(%rip),%rax        # 16298 <g_599>
    e6ce:	48 89 85 30 fa ff ff 	mov    %rax,-0x5d0(%rbp)
    e6d5:	48 8d 05 bc 7b 00 00 	lea    0x7bbc(%rip),%rax        # 16298 <g_599>
    e6dc:	48 89 85 38 fa ff ff 	mov    %rax,-0x5c8(%rbp)
    e6e3:	48 c7 85 40 fa ff ff 	movq   $0x0,-0x5c0(%rbp)
    e6ea:	00 00 00 00 
    e6ee:	48 8d 05 bd 7a 00 00 	lea    0x7abd(%rip),%rax        # 161b2 <g_371>
    e6f5:	48 89 85 48 fa ff ff 	mov    %rax,-0x5b8(%rbp)
    e6fc:	48 8d 85 d0 f9 ff ff 	lea    -0x630(%rbp),%rax
    e703:	48 83 c0 02          	add    $0x2,%rax
    e707:	48 89 85 50 fa ff ff 	mov    %rax,-0x5b0(%rbp)
    e70e:	48 c7 85 58 fa ff ff 	movq   $0x0,-0x5a8(%rbp)
    e715:	00 00 00 00 
    e719:	48 c7 85 60 fa ff ff 	movq   $0x0,-0x5a0(%rbp)
    e720:	00 00 00 00 
    e724:	48 8d 05 8f 79 00 00 	lea    0x798f(%rip),%rax        # 160ba <g_79>
    e72b:	48 89 85 68 fa ff ff 	mov    %rax,-0x598(%rbp)
    e732:	48 8d 05 79 7a 00 00 	lea    0x7a79(%rip),%rax        # 161b2 <g_371>
    e739:	48 89 85 70 fa ff ff 	mov    %rax,-0x590(%rbp)
    e740:	48 8d 85 d0 f9 ff ff 	lea    -0x630(%rbp),%rax
    e747:	48 83 c0 02          	add    $0x2,%rax
    e74b:	48 89 85 78 fa ff ff 	mov    %rax,-0x588(%rbp)
    e752:	48 8d 85 d0 f9 ff ff 	lea    -0x630(%rbp),%rax
    e759:	48 83 c0 02          	add    $0x2,%rax
    e75d:	48 89 85 80 fa ff ff 	mov    %rax,-0x580(%rbp)
    e764:	48 8d 05 49 7a 00 00 	lea    0x7a49(%rip),%rax        # 161b4 <g_374>
    e76b:	48 89 85 88 fa ff ff 	mov    %rax,-0x578(%rbp)
    e772:	48 8d 85 d0 f9 ff ff 	lea    -0x630(%rbp),%rax
    e779:	48 83 c0 02          	add    $0x2,%rax
    e77d:	48 89 85 90 fa ff ff 	mov    %rax,-0x570(%rbp)
    e784:	48 c7 85 98 fa ff ff 	movq   $0x0,-0x568(%rbp)
    e78b:	00 00 00 00 
    e78f:	48 8d 85 d0 f9 ff ff 	lea    -0x630(%rbp),%rax
    e796:	48 83 c0 02          	add    $0x2,%rax
    e79a:	48 89 85 a0 fa ff ff 	mov    %rax,-0x560(%rbp)
    e7a1:	48 c7 85 a8 fa ff ff 	movq   $0x0,-0x558(%rbp)
    e7a8:	00 00 00 00 
    e7ac:	48 8d 05 01 7a 00 00 	lea    0x7a01(%rip),%rax        # 161b4 <g_374>
    e7b3:	48 89 85 b0 fa ff ff 	mov    %rax,-0x550(%rbp)
    e7ba:	48 8d 85 d0 f9 ff ff 	lea    -0x630(%rbp),%rax
    e7c1:	48 83 c0 02          	add    $0x2,%rax
    e7c5:	48 89 85 b8 fa ff ff 	mov    %rax,-0x548(%rbp)
    e7cc:	48 8d 05 df 79 00 00 	lea    0x79df(%rip),%rax        # 161b2 <g_371>
    e7d3:	48 89 85 c0 fa ff ff 	mov    %rax,-0x540(%rbp)
    e7da:	48 8d 85 d0 f9 ff ff 	lea    -0x630(%rbp),%rax
    e7e1:	48 83 c0 02          	add    $0x2,%rax
    e7e5:	48 89 85 c8 fa ff ff 	mov    %rax,-0x538(%rbp)
    e7ec:	48 8d 05 c1 79 00 00 	lea    0x79c1(%rip),%rax        # 161b4 <g_374>
    e7f3:	48 89 85 d0 fa ff ff 	mov    %rax,-0x530(%rbp)
    e7fa:	48 c7 85 d8 fa ff ff 	movq   $0x0,-0x528(%rbp)
    e801:	00 00 00 00 
    e805:	48 8d 85 d0 f9 ff ff 	lea    -0x630(%rbp),%rax
    e80c:	48 83 c0 02          	add    $0x2,%rax
    e810:	48 89 85 e0 fa ff ff 	mov    %rax,-0x520(%rbp)
    e817:	48 8d 05 94 79 00 00 	lea    0x7994(%rip),%rax        # 161b2 <g_371>
    e81e:	48 89 85 e8 fa ff ff 	mov    %rax,-0x518(%rbp)
    e825:	48 c7 85 f0 fa ff ff 	movq   $0x0,-0x510(%rbp)
    e82c:	00 00 00 00 
    e830:	48 8d 05 61 7a 00 00 	lea    0x7a61(%rip),%rax        # 16298 <g_599>
    e837:	48 89 85 f8 fa ff ff 	mov    %rax,-0x508(%rbp)
    e83e:	48 c7 85 00 fb ff ff 	movq   $0x0,-0x500(%rbp)
    e845:	00 00 00 00 
    e849:	48 c7 85 08 fb ff ff 	movq   $0x0,-0x4f8(%rbp)
    e850:	00 00 00 00 
    e854:	48 8d 85 d0 f9 ff ff 	lea    -0x630(%rbp),%rax
    e85b:	48 83 c0 02          	add    $0x2,%rax
    e85f:	48 89 85 10 fb ff ff 	mov    %rax,-0x4f0(%rbp)
    e866:	48 c7 85 18 fb ff ff 	movq   $0x0,-0x4e8(%rbp)
    e86d:	00 00 00 00 
    e871:	48 8d 05 20 7a 00 00 	lea    0x7a20(%rip),%rax        # 16298 <g_599>
    e878:	48 89 85 20 fb ff ff 	mov    %rax,-0x4e0(%rbp)
    e87f:	48 c7 85 28 fb ff ff 	movq   $0x0,-0x4d8(%rbp)
    e886:	00 00 00 00 
    e88a:	48 c7 85 30 fb ff ff 	movq   $0x0,-0x4d0(%rbp)
    e891:	00 00 00 00 
    e895:	48 c7 85 38 fb ff ff 	movq   $0x0,-0x4c8(%rbp)
    e89c:	00 00 00 00 
    e8a0:	48 8d 85 d0 f9 ff ff 	lea    -0x630(%rbp),%rax
    e8a7:	48 83 c0 02          	add    $0x2,%rax
    e8ab:	48 89 85 40 fb ff ff 	mov    %rax,-0x4c0(%rbp)
    e8b2:	48 8d 85 d0 f9 ff ff 	lea    -0x630(%rbp),%rax
    e8b9:	48 83 c0 02          	add    $0x2,%rax
    e8bd:	48 89 85 48 fb ff ff 	mov    %rax,-0x4b8(%rbp)
    e8c4:	48 8d 85 d0 f9 ff ff 	lea    -0x630(%rbp),%rax
    e8cb:	48 83 c0 02          	add    $0x2,%rax
    e8cf:	48 89 85 50 fb ff ff 	mov    %rax,-0x4b0(%rbp)
    e8d6:	48 8d 85 d0 f9 ff ff 	lea    -0x630(%rbp),%rax
    e8dd:	48 83 c0 02          	add    $0x2,%rax
    e8e1:	48 89 85 58 fb ff ff 	mov    %rax,-0x4a8(%rbp)
    e8e8:	48 c7 85 60 fb ff ff 	movq   $0x0,-0x4a0(%rbp)
    e8ef:	00 00 00 00 
    e8f3:	48 c7 85 68 fb ff ff 	movq   $0x0,-0x498(%rbp)
    e8fa:	00 00 00 00 
    e8fe:	48 c7 85 70 fb ff ff 	movq   $0x0,-0x490(%rbp)
    e905:	00 00 00 00 
    e909:	48 c7 85 78 fb ff ff 	movq   $0x0,-0x488(%rbp)
    e910:	00 00 00 00 
    e914:	48 c7 85 80 fb ff ff 	movq   $0x0,-0x480(%rbp)
    e91b:	00 00 00 00 
    e91f:	48 c7 85 88 fb ff ff 	movq   $0x0,-0x478(%rbp)
    e926:	00 00 00 00 
    e92a:	48 8d 05 83 78 00 00 	lea    0x7883(%rip),%rax        # 161b4 <g_374>
    e931:	48 89 85 90 fb ff ff 	mov    %rax,-0x470(%rbp)
    e938:	48 8d 05 73 78 00 00 	lea    0x7873(%rip),%rax        # 161b2 <g_371>
    e93f:	48 89 85 98 fb ff ff 	mov    %rax,-0x468(%rbp)
    e946:	48 c7 85 a0 fb ff ff 	movq   $0x0,-0x460(%rbp)
    e94d:	00 00 00 00 
    e951:	48 c7 85 a8 fb ff ff 	movq   $0x0,-0x458(%rbp)
    e958:	00 00 00 00 
    e95c:	48 8d 05 51 78 00 00 	lea    0x7851(%rip),%rax        # 161b4 <g_374>
    e963:	48 89 85 b0 fb ff ff 	mov    %rax,-0x450(%rbp)
    e96a:	48 8d 05 41 78 00 00 	lea    0x7841(%rip),%rax        # 161b2 <g_371>
    e971:	48 89 85 b8 fb ff ff 	mov    %rax,-0x448(%rbp)
    e978:	48 c7 85 c0 fb ff ff 	movq   $0x0,-0x440(%rbp)
    e97f:	00 00 00 00 
    e983:	48 c7 85 c8 fb ff ff 	movq   $0x0,-0x438(%rbp)
    e98a:	00 00 00 00 
    e98e:	48 8d 85 d0 f9 ff ff 	lea    -0x630(%rbp),%rax
    e995:	48 83 c0 02          	add    $0x2,%rax
    e999:	48 89 85 d0 fb ff ff 	mov    %rax,-0x430(%rbp)
    e9a0:	48 c7 85 d8 fb ff ff 	movq   $0x0,-0x428(%rbp)
    e9a7:	00 00 00 00 
    e9ab:	48 8d 85 d0 f9 ff ff 	lea    -0x630(%rbp),%rax
    e9b2:	48 83 c0 02          	add    $0x2,%rax
    e9b6:	48 89 85 e0 fb ff ff 	mov    %rax,-0x420(%rbp)
    e9bd:	48 c7 85 e8 fb ff ff 	movq   $0x0,-0x418(%rbp)
    e9c4:	00 00 00 00 
    e9c8:	48 8d 05 e3 77 00 00 	lea    0x77e3(%rip),%rax        # 161b2 <g_371>
    e9cf:	48 89 85 f0 fb ff ff 	mov    %rax,-0x410(%rbp)
    e9d6:	48 8d 85 d0 f9 ff ff 	lea    -0x630(%rbp),%rax
    e9dd:	48 83 c0 02          	add    $0x2,%rax
    e9e1:	48 89 85 f8 fb ff ff 	mov    %rax,-0x408(%rbp)
    e9e8:	48 8d 05 c3 77 00 00 	lea    0x77c3(%rip),%rax        # 161b2 <g_371>
    e9ef:	48 89 85 00 fc ff ff 	mov    %rax,-0x400(%rbp)
    e9f6:	48 c7 85 08 fc ff ff 	movq   $0x0,-0x3f8(%rbp)
    e9fd:	00 00 00 00 
    ea01:	48 8d 85 d0 f9 ff ff 	lea    -0x630(%rbp),%rax
    ea08:	48 83 c0 02          	add    $0x2,%rax
    ea0c:	48 89 85 10 fc ff ff 	mov    %rax,-0x3f0(%rbp)
    ea13:	48 8d 05 7e 78 00 00 	lea    0x787e(%rip),%rax        # 16298 <g_599>
    ea1a:	48 89 85 18 fc ff ff 	mov    %rax,-0x3e8(%rbp)
    ea21:	48 8d 05 8a 77 00 00 	lea    0x778a(%rip),%rax        # 161b2 <g_371>
    ea28:	48 89 85 20 fc ff ff 	mov    %rax,-0x3e0(%rbp)
    ea2f:	48 c7 85 28 fc ff ff 	movq   $0x0,-0x3d8(%rbp)
    ea36:	00 00 00 00 
    ea3a:	48 8d 05 57 78 00 00 	lea    0x7857(%rip),%rax        # 16298 <g_599>
    ea41:	48 89 85 30 fc ff ff 	mov    %rax,-0x3d0(%rbp)
    ea48:	48 c7 85 38 fc ff ff 	movq   $0x0,-0x3c8(%rbp)
    ea4f:	00 00 00 00 
    ea53:	48 c7 85 40 fc ff ff 	movq   $0x0,-0x3c0(%rbp)
    ea5a:	00 00 00 00 
    ea5e:	48 8d 85 d0 f9 ff ff 	lea    -0x630(%rbp),%rax
    ea65:	48 83 c0 02          	add    $0x2,%rax
    ea69:	48 89 85 48 fc ff ff 	mov    %rax,-0x3b8(%rbp)
    ea70:	48 c7 85 50 fc ff ff 	movq   $0x0,-0x3b0(%rbp)
    ea77:	00 00 00 00 
    ea7b:	48 8d 05 38 76 00 00 	lea    0x7638(%rip),%rax        # 160ba <g_79>
    ea82:	48 89 85 58 fc ff ff 	mov    %rax,-0x3a8(%rbp)
    ea89:	48 8d 05 2a 76 00 00 	lea    0x762a(%rip),%rax        # 160ba <g_79>
    ea90:	48 89 85 60 fc ff ff 	mov    %rax,-0x3a0(%rbp)
    ea97:	48 c7 85 68 fc ff ff 	movq   $0x0,-0x398(%rbp)
    ea9e:	00 00 00 00 
    eaa2:	48 8d 85 d0 f9 ff ff 	lea    -0x630(%rbp),%rax
    eaa9:	48 83 c0 02          	add    $0x2,%rax
    eaad:	48 89 85 70 fc ff ff 	mov    %rax,-0x390(%rbp)
    eab4:	48 c7 85 78 fc ff ff 	movq   $0x0,-0x388(%rbp)
    eabb:	00 00 00 00 
    eabf:	48 c7 85 80 fc ff ff 	movq   $0x0,-0x380(%rbp)
    eac6:	00 00 00 00 
    eaca:	48 c7 85 88 fc ff ff 	movq   $0x0,-0x378(%rbp)
    ead1:	00 00 00 00 
    ead5:	48 c7 85 90 fc ff ff 	movq   $0x0,-0x370(%rbp)
    eadc:	00 00 00 00 
    eae0:	48 8d 85 d0 f9 ff ff 	lea    -0x630(%rbp),%rax
    eae7:	48 83 c0 02          	add    $0x2,%rax
    eaeb:	48 89 85 98 fc ff ff 	mov    %rax,-0x368(%rbp)
    eaf2:	48 8d 05 b9 76 00 00 	lea    0x76b9(%rip),%rax        # 161b2 <g_371>
    eaf9:	48 89 85 a0 fc ff ff 	mov    %rax,-0x360(%rbp)
    eb00:	48 8d 05 ab 76 00 00 	lea    0x76ab(%rip),%rax        # 161b2 <g_371>
    eb07:	48 89 85 a8 fc ff ff 	mov    %rax,-0x358(%rbp)
    eb0e:	48 c7 85 b0 fc ff ff 	movq   $0x0,-0x350(%rbp)
    eb15:	00 00 00 00 
    eb19:	48 8d 05 9a 75 00 00 	lea    0x759a(%rip),%rax        # 160ba <g_79>
    eb20:	48 89 85 b8 fc ff ff 	mov    %rax,-0x348(%rbp)
    eb27:	48 8d 05 84 76 00 00 	lea    0x7684(%rip),%rax        # 161b2 <g_371>
    eb2e:	48 89 85 c0 fc ff ff 	mov    %rax,-0x340(%rbp)
    eb35:	48 8d 85 d0 f9 ff ff 	lea    -0x630(%rbp),%rax
    eb3c:	48 83 c0 02          	add    $0x2,%rax
    eb40:	48 89 85 c8 fc ff ff 	mov    %rax,-0x338(%rbp)
    eb47:	48 8d 85 d0 f9 ff ff 	lea    -0x630(%rbp),%rax
    eb4e:	48 83 c0 02          	add    $0x2,%rax
    eb52:	48 89 85 d0 fc ff ff 	mov    %rax,-0x330(%rbp)
    eb59:	48 8d 05 54 76 00 00 	lea    0x7654(%rip),%rax        # 161b4 <g_374>
    eb60:	48 89 85 d8 fc ff ff 	mov    %rax,-0x328(%rbp)
    eb67:	48 8d 85 d0 f9 ff ff 	lea    -0x630(%rbp),%rax
    eb6e:	48 83 c0 02          	add    $0x2,%rax
    eb72:	48 89 85 e0 fc ff ff 	mov    %rax,-0x320(%rbp)
    eb79:	48 c7 85 e8 fc ff ff 	movq   $0x0,-0x318(%rbp)
    eb80:	00 00 00 00 
    eb84:	48 8d 05 27 76 00 00 	lea    0x7627(%rip),%rax        # 161b2 <g_371>
    eb8b:	48 89 85 f0 fc ff ff 	mov    %rax,-0x310(%rbp)
    eb92:	48 8d 05 19 76 00 00 	lea    0x7619(%rip),%rax        # 161b2 <g_371>
    eb99:	48 89 85 f8 fc ff ff 	mov    %rax,-0x308(%rbp)
    eba0:	48 c7 85 00 fd ff ff 	movq   $0x0,-0x300(%rbp)
    eba7:	00 00 00 00 
    ebab:	48 8d 05 02 76 00 00 	lea    0x7602(%rip),%rax        # 161b4 <g_374>
    ebb2:	48 89 85 08 fd ff ff 	mov    %rax,-0x2f8(%rbp)
    ebb9:	48 c7 85 10 fd ff ff 	movq   $0x0,-0x2f0(%rbp)
    ebc0:	00 00 00 00 
    ebc4:	48 8d 05 e9 75 00 00 	lea    0x75e9(%rip),%rax        # 161b4 <g_374>
    ebcb:	48 89 85 18 fd ff ff 	mov    %rax,-0x2e8(%rbp)
    ebd2:	48 c7 85 20 fd ff ff 	movq   $0x0,-0x2e0(%rbp)
    ebd9:	00 00 00 00 
    ebdd:	48 8d 05 d6 74 00 00 	lea    0x74d6(%rip),%rax        # 160ba <g_79>
    ebe4:	48 89 85 28 fd ff ff 	mov    %rax,-0x2d8(%rbp)
    ebeb:	48 c7 85 30 fd ff ff 	movq   $0x0,-0x2d0(%rbp)
    ebf2:	00 00 00 00 
    ebf6:	48 8d 05 bd 74 00 00 	lea    0x74bd(%rip),%rax        # 160ba <g_79>
    ebfd:	48 89 85 38 fd ff ff 	mov    %rax,-0x2c8(%rbp)
    ec04:	48 c7 85 40 fd ff ff 	movq   $0x0,-0x2c0(%rbp)
    ec0b:	00 00 00 00 
    ec0f:	48 8d 05 9c 75 00 00 	lea    0x759c(%rip),%rax        # 161b2 <g_371>
    ec16:	48 89 85 48 fd ff ff 	mov    %rax,-0x2b8(%rbp)
    ec1d:	48 c7 85 50 fd ff ff 	movq   $0x0,-0x2b0(%rbp)
    ec24:	00 00 00 00 
    ec28:	48 8d 85 d0 f9 ff ff 	lea    -0x630(%rbp),%rax
    ec2f:	48 83 c0 02          	add    $0x2,%rax
    ec33:	48 89 85 58 fd ff ff 	mov    %rax,-0x2a8(%rbp)
    ec3a:	48 c7 85 60 fd ff ff 	movq   $0x0,-0x2a0(%rbp)
    ec41:	00 00 00 00 
    ec45:	48 c7 85 68 fd ff ff 	movq   $0x0,-0x298(%rbp)
    ec4c:	00 00 00 00 
    ec50:	48 c7 85 70 fd ff ff 	movq   $0x0,-0x290(%rbp)
    ec57:	00 00 00 00 
    ec5b:	48 c7 85 78 fd ff ff 	movq   $0x0,-0x288(%rbp)
    ec62:	00 00 00 00 
    ec66:	48 8d 85 d0 f9 ff ff 	lea    -0x630(%rbp),%rax
    ec6d:	48 83 c0 02          	add    $0x2,%rax
    ec71:	48 89 85 80 fd ff ff 	mov    %rax,-0x280(%rbp)
    ec78:	48 8d 05 33 75 00 00 	lea    0x7533(%rip),%rax        # 161b2 <g_371>
    ec7f:	48 89 85 88 fd ff ff 	mov    %rax,-0x278(%rbp)
    ec86:	48 8d 05 0b 76 00 00 	lea    0x760b(%rip),%rax        # 16298 <g_599>
    ec8d:	48 89 85 90 fd ff ff 	mov    %rax,-0x270(%rbp)
    ec94:	48 8d 05 1f 74 00 00 	lea    0x741f(%rip),%rax        # 160ba <g_79>
    ec9b:	48 89 85 98 fd ff ff 	mov    %rax,-0x268(%rbp)
    eca2:	48 8d 05 ef 75 00 00 	lea    0x75ef(%rip),%rax        # 16298 <g_599>
    eca9:	48 89 85 a0 fd ff ff 	mov    %rax,-0x260(%rbp)
    ecb0:	48 c7 85 a8 fd ff ff 	movq   $0x0,-0x258(%rbp)
    ecb7:	00 00 00 00 
    ecbb:	48 c7 85 b0 fd ff ff 	movq   $0x0,-0x250(%rbp)
    ecc2:	00 00 00 00 
    ecc6:	48 c7 85 b8 fd ff ff 	movq   $0x0,-0x248(%rbp)
    eccd:	00 00 00 00 
    ecd1:	48 c7 85 c0 fd ff ff 	movq   $0x0,-0x240(%rbp)
    ecd8:	00 00 00 00 
    ecdc:	48 c7 85 c8 fd ff ff 	movq   $0x0,-0x238(%rbp)
    ece3:	00 00 00 00 
    ece7:	48 c7 85 d0 fd ff ff 	movq   $0x0,-0x230(%rbp)
    ecee:	00 00 00 00 
    ecf2:	48 8d 05 9f 75 00 00 	lea    0x759f(%rip),%rax        # 16298 <g_599>
    ecf9:	48 89 85 d8 fd ff ff 	mov    %rax,-0x228(%rbp)
    ed00:	48 8d 85 d0 f9 ff ff 	lea    -0x630(%rbp),%rax
    ed07:	48 83 c0 02          	add    $0x2,%rax
    ed0b:	48 89 85 e0 fd ff ff 	mov    %rax,-0x220(%rbp)
    ed12:	48 8d 85 d0 f9 ff ff 	lea    -0x630(%rbp),%rax
    ed19:	48 83 c0 02          	add    $0x2,%rax
    ed1d:	48 89 85 e8 fd ff ff 	mov    %rax,-0x218(%rbp)
    ed24:	48 c7 85 f0 fd ff ff 	movq   $0x0,-0x210(%rbp)
    ed2b:	00 00 00 00 
    ed2f:	48 8d 85 d0 f9 ff ff 	lea    -0x630(%rbp),%rax
    ed36:	48 83 c0 02          	add    $0x2,%rax
    ed3a:	48 89 85 f8 fd ff ff 	mov    %rax,-0x208(%rbp)
    ed41:	48 8d 05 6a 74 00 00 	lea    0x746a(%rip),%rax        # 161b2 <g_371>
    ed48:	48 89 85 00 fe ff ff 	mov    %rax,-0x200(%rbp)
    ed4f:	48 c7 85 08 fe ff ff 	movq   $0x0,-0x1f8(%rbp)
    ed56:	00 00 00 00 
    ed5a:	48 c7 85 10 fe ff ff 	movq   $0x0,-0x1f0(%rbp)
    ed61:	00 00 00 00 
    ed65:	48 c7 85 18 fe ff ff 	movq   $0x0,-0x1e8(%rbp)
    ed6c:	00 00 00 00 
    ed70:	48 8d 85 d0 f9 ff ff 	lea    -0x630(%rbp),%rax
    ed77:	48 83 c0 02          	add    $0x2,%rax
    ed7b:	48 89 85 20 fe ff ff 	mov    %rax,-0x1e0(%rbp)
    ed82:	48 c7 85 28 fe ff ff 	movq   $0x0,-0x1d8(%rbp)
    ed89:	00 00 00 00 
    ed8d:	48 8d 05 1e 74 00 00 	lea    0x741e(%rip),%rax        # 161b2 <g_371>
    ed94:	48 89 85 30 fe ff ff 	mov    %rax,-0x1d0(%rbp)
    ed9b:	48 8d 05 10 74 00 00 	lea    0x7410(%rip),%rax        # 161b2 <g_371>
    eda2:	48 89 85 38 fe ff ff 	mov    %rax,-0x1c8(%rbp)
    eda9:	48 8d 85 d0 f9 ff ff 	lea    -0x630(%rbp),%rax
    edb0:	48 83 c0 02          	add    $0x2,%rax
    edb4:	48 89 85 40 fe ff ff 	mov    %rax,-0x1c0(%rbp)
    edbb:	48 c7 85 48 fe ff ff 	movq   $0x0,-0x1b8(%rbp)
    edc2:	00 00 00 00 
    edc6:	48 8d 85 d0 f9 ff ff 	lea    -0x630(%rbp),%rax
    edcd:	48 83 c0 02          	add    $0x2,%rax
    edd1:	48 89 85 50 fe ff ff 	mov    %rax,-0x1b0(%rbp)
    edd8:	48 8d 05 d3 73 00 00 	lea    0x73d3(%rip),%rax        # 161b2 <g_371>
    eddf:	48 89 85 58 fe ff ff 	mov    %rax,-0x1a8(%rbp)
    ede6:	48 c7 85 60 fe ff ff 	movq   $0x0,-0x1a0(%rbp)
    eded:	00 00 00 00 
    edf1:	48 8d 85 d0 f9 ff ff 	lea    -0x630(%rbp),%rax
    edf8:	48 83 c0 02          	add    $0x2,%rax
    edfc:	48 89 85 68 fe ff ff 	mov    %rax,-0x198(%rbp)
    ee03:	48 c7 85 70 fe ff ff 	movq   $0x0,-0x190(%rbp)
    ee0a:	00 00 00 00 
    ee0e:	48 c7 85 78 fe ff ff 	movq   $0x0,-0x188(%rbp)
    ee15:	00 00 00 00 
    ee19:	48 c7 85 80 fe ff ff 	movq   $0x0,-0x180(%rbp)
    ee20:	00 00 00 00 
    ee24:	48 c7 85 88 fe ff ff 	movq   $0x0,-0x178(%rbp)
    ee2b:	00 00 00 00 
    ee2f:	48 c7 85 90 fe ff ff 	movq   $0x0,-0x170(%rbp)
    ee36:	00 00 00 00 
    ee3a:	48 8d 85 d0 f9 ff ff 	lea    -0x630(%rbp),%rax
    ee41:	48 83 c0 02          	add    $0x2,%rax
    ee45:	48 89 85 98 fe ff ff 	mov    %rax,-0x168(%rbp)
    ee4c:	48 8d 05 5f 73 00 00 	lea    0x735f(%rip),%rax        # 161b2 <g_371>
    ee53:	48 89 85 a0 fe ff ff 	mov    %rax,-0x160(%rbp)
    ee5a:	48 c7 85 a8 fe ff ff 	movq   $0x0,-0x158(%rbp)
    ee61:	00 00 00 00 
    ee65:	48 8d 85 d0 f9 ff ff 	lea    -0x630(%rbp),%rax
    ee6c:	48 83 c0 02          	add    $0x2,%rax
    ee70:	48 89 85 b0 fe ff ff 	mov    %rax,-0x150(%rbp)
    ee77:	48 c7 85 b8 fe ff ff 	movq   $0x0,-0x148(%rbp)
    ee7e:	00 00 00 00 
    ee82:	48 8d 85 d0 f9 ff ff 	lea    -0x630(%rbp),%rax
    ee89:	48 83 c0 02          	add    $0x2,%rax
    ee8d:	48 89 85 c0 fe ff ff 	mov    %rax,-0x140(%rbp)
    ee94:	48 8d 05 17 73 00 00 	lea    0x7317(%rip),%rax        # 161b2 <g_371>
    ee9b:	48 89 85 c8 fe ff ff 	mov    %rax,-0x138(%rbp)
    eea2:	48 c7 85 d0 fe ff ff 	movq   $0x0,-0x130(%rbp)
    eea9:	00 00 00 00 
    eead:	48 c7 85 d8 fe ff ff 	movq   $0x0,-0x128(%rbp)
    eeb4:	00 00 00 00 
    eeb8:	48 8d 05 f3 72 00 00 	lea    0x72f3(%rip),%rax        # 161b2 <g_371>
    eebf:	48 89 85 e0 fe ff ff 	mov    %rax,-0x120(%rbp)
    eec6:	48 c7 85 e8 fe ff ff 	movq   $0x0,-0x118(%rbp)
    eecd:	00 00 00 00 
    eed1:	48 8d 05 c0 73 00 00 	lea    0x73c0(%rip),%rax        # 16298 <g_599>
    eed8:	48 89 85 f0 fe ff ff 	mov    %rax,-0x110(%rbp)
    eedf:	48 8d 05 b2 73 00 00 	lea    0x73b2(%rip),%rax        # 16298 <g_599>
    eee6:	48 89 85 f8 fe ff ff 	mov    %rax,-0x108(%rbp)
    eeed:	48 c7 85 00 ff ff ff 	movq   $0x0,-0x100(%rbp)
    eef4:	00 00 00 00 
    eef8:	48 8d 05 b3 72 00 00 	lea    0x72b3(%rip),%rax        # 161b2 <g_371>
    eeff:	48 89 85 08 ff ff ff 	mov    %rax,-0xf8(%rbp)
    ef06:	48 8d 85 d0 f9 ff ff 	lea    -0x630(%rbp),%rax
    ef0d:	48 83 c0 02          	add    $0x2,%rax
    ef11:	48 89 85 10 ff ff ff 	mov    %rax,-0xf0(%rbp)
    ef18:	48 c7 85 18 ff ff ff 	movq   $0x0,-0xe8(%rbp)
    ef1f:	00 00 00 00 
    ef23:	48 c7 85 20 ff ff ff 	movq   $0x0,-0xe0(%rbp)
    ef2a:	00 00 00 00 
    ef2e:	48 8d 05 85 71 00 00 	lea    0x7185(%rip),%rax        # 160ba <g_79>
    ef35:	48 89 85 28 ff ff ff 	mov    %rax,-0xd8(%rbp)
    ef3c:	48 c7 85 30 ff ff ff 	movq   $0x0,-0xd0(%rbp)
    ef43:	00 00 00 00 
    ef47:	48 c7 85 38 ff ff ff 	movq   $0x0,-0xc8(%rbp)
    ef4e:	00 00 00 00 
    ef52:	48 8d 05 3f 73 00 00 	lea    0x733f(%rip),%rax        # 16298 <g_599>
    ef59:	48 89 85 40 ff ff ff 	mov    %rax,-0xc0(%rbp)
    ef60:	48 8d 85 d0 f9 ff ff 	lea    -0x630(%rbp),%rax
    ef67:	48 83 c0 02          	add    $0x2,%rax
    ef6b:	48 89 85 48 ff ff ff 	mov    %rax,-0xb8(%rbp)
    ef72:	48 c7 85 50 ff ff ff 	movq   $0x0,-0xb0(%rbp)
    ef79:	00 00 00 00 
    ef7d:	48 8d 05 2e 72 00 00 	lea    0x722e(%rip),%rax        # 161b2 <g_371>
    ef84:	48 89 85 58 ff ff ff 	mov    %rax,-0xa8(%rbp)
    ef8b:	48 8d 05 06 73 00 00 	lea    0x7306(%rip),%rax        # 16298 <g_599>
    ef92:	48 89 85 60 ff ff ff 	mov    %rax,-0xa0(%rbp)
    ef99:	48 8d 05 1a 71 00 00 	lea    0x711a(%rip),%rax        # 160ba <g_79>
    efa0:	48 89 85 68 ff ff ff 	mov    %rax,-0x98(%rbp)
    efa7:	48 8d 85 d0 f9 ff ff 	lea    -0x630(%rbp),%rax
    efae:	48 83 c0 02          	add    $0x2,%rax
    efb2:	48 89 85 70 ff ff ff 	mov    %rax,-0x90(%rbp)
    efb9:	48 c7 85 78 ff ff ff 	movq   $0x0,-0x88(%rbp)
    efc0:	00 00 00 00 
    efc4:	48 8d 85 d0 f9 ff ff 	lea    -0x630(%rbp),%rax
    efcb:	48 83 c0 02          	add    $0x2,%rax
    efcf:	48 89 45 80          	mov    %rax,-0x80(%rbp)
    efd3:	48 c7 45 88 00 00 00 	movq   $0x0,-0x78(%rbp)
    efda:	00 
    efdb:	48 8d 85 d0 f9 ff ff 	lea    -0x630(%rbp),%rax
    efe2:	48 83 c0 02          	add    $0x2,%rax
    efe6:	48 89 45 90          	mov    %rax,-0x70(%rbp)
    efea:	48 8d 05 c9 70 00 00 	lea    0x70c9(%rip),%rax        # 160ba <g_79>
    eff1:	48 89 45 98          	mov    %rax,-0x68(%rbp)
    eff5:	48 c7 45 a0 00 00 00 	movq   $0x0,-0x60(%rbp)
    effc:	00 
    effd:	48 8d 85 d0 f9 ff ff 	lea    -0x630(%rbp),%rax
    f004:	48 83 c0 02          	add    $0x2,%rax
    f008:	48 89 45 a8          	mov    %rax,-0x58(%rbp)
    f00c:	48 8d 05 9f 71 00 00 	lea    0x719f(%rip),%rax        # 161b2 <g_371>
    f013:	48 89 45 b0          	mov    %rax,-0x50(%rbp)
    f017:	48 c7 45 b8 00 00 00 	movq   $0x0,-0x48(%rbp)
    f01e:	00 
    f01f:	48 8d 05 8c 71 00 00 	lea    0x718c(%rip),%rax        # 161b2 <g_371>
    f026:	48 89 45 c0          	mov    %rax,-0x40(%rbp)
    f02a:	48 c7 45 c8 00 00 00 	movq   $0x0,-0x38(%rbp)
    f031:	00 
    f032:	48 8d 05 5f 72 00 00 	lea    0x725f(%rip),%rax        # 16298 <g_599>
    f039:	48 89 45 d0          	mov    %rax,-0x30(%rbp)
    f03d:	48 c7 45 d8 00 00 00 	movq   $0x0,-0x28(%rbp)
    f044:	00 
    f045:	c6 85 8f f9 ff ff b0 	movb   $0xb0,-0x671(%rbp)
    f04c:	b8 01 00 00 00       	mov    $0x1,%eax
    f051:	0f be d0             	movsbl %al,%edx
    f054:	48 8b 05 65 93 00 00 	mov    0x9365(%rip),%rax        # 183c0 <g_591>
    f05b:	48 8b 08             	mov    (%rax),%rcx
    f05e:	48 8b 85 a8 f9 ff ff 	mov    -0x658(%rbp),%rax
    f065:	48 89 08             	mov    %rcx,(%rax)
    f068:	48 8b 85 a8 f9 ff ff 	mov    -0x658(%rbp),%rax
    f06f:	48 8b 00             	mov    (%rax),%rax
    f072:	48 39 85 b0 f9 ff ff 	cmp    %rax,-0x650(%rbp)
    f079:	0f 95 c0             	setne  %al
    f07c:	0f b6 c0             	movzbl %al,%eax
    f07f:	89 d6                	mov    %edx,%esi
    f081:	89 c7                	mov    %eax,%edi
    f083:	e8 e2 91 ff ff       	callq  826a <safe_div_func_int8_t_s_s>
    f088:	0f be d0             	movsbl %al,%edx
    f08b:	8b 85 90 f9 ff ff    	mov    -0x670(%rbp),%eax
    f091:	39 c2                	cmp    %eax,%edx
    f093:	0f 9f c0             	setg   %al
    f096:	0f b6 d0             	movzbl %al,%edx
    f099:	0f b7 85 d2 f9 ff ff 	movzwl -0x62e(%rbp),%eax
    f0a0:	98                   	cwtl   
    f0a1:	89 d6                	mov    %edx,%esi
    f0a3:	89 c7                	mov    %eax,%edi
    f0a5:	e8 37 94 ff ff       	callq  84e1 <safe_lshift_func_int16_t_s_u>
    f0aa:	66 85 c0             	test   %ax,%ax
    f0ad:	75 0e                	jne    f0bd <func_36+0xb6e>
    f0af:	48 8b 05 0a 92 00 00 	mov    0x920a(%rip),%rax        # 182c0 <g_196>
    f0b6:	48 8b 00             	mov    (%rax),%rax
    f0b9:	8b 00                	mov    (%rax),%eax
    f0bb:	85 c0                	test   %eax,%eax
    f0bd:	b8 82 8c bd 76       	mov    $0x76bd8c82,%eax
    f0c2:	85 c0                	test   %eax,%eax
    f0c4:	75 0a                	jne    f0d0 <func_36+0xb81>
    f0c6:	8b 85 90 f9 ff ff    	mov    -0x670(%rbp),%eax
    f0cc:	85 c0                	test   %eax,%eax
    f0ce:	74 07                	je     f0d7 <func_36+0xb88>
    f0d0:	b8 01 00 00 00       	mov    $0x1,%eax
    f0d5:	eb 05                	jmp    f0dc <func_36+0xb8d>
    f0d7:	b8 00 00 00 00       	mov    $0x0,%eax
    f0dc:	66 89 05 4f 6f 00 00 	mov    %ax,0x6f4f(%rip)        # 16032 <g_9+0x2>
    f0e3:	0f b7 05 48 6f 00 00 	movzwl 0x6f48(%rip),%eax        # 16032 <g_9+0x2>
    f0ea:	0f b7 c0             	movzwl %ax,%eax
    f0ed:	89 c6                	mov    %eax,%esi
    f0ef:	bf 0c 84 1e 63       	mov    $0x631e840c,%edi
    f0f4:	e8 2c 9e ff ff       	callq  8f25 <safe_div_func_uint32_t_u_u>
    f0f9:	8b 95 94 f9 ff ff    	mov    -0x66c(%rbp),%edx
    f0ff:	31 d0                	xor    %edx,%eax
    f101:	89 85 94 f9 ff ff    	mov    %eax,-0x66c(%rbp)
    f107:	48 8b 85 78 f9 ff ff 	mov    -0x688(%rbp),%rax
    f10e:	0f bf d0             	movswl %ax,%edx
    f111:	48 8b 05 d8 6f 00 00 	mov    0x6fd8(%rip),%rax        # 160f0 <g_261>
    f118:	25 ff ff 0f 00       	and    $0xfffff,%eax
    f11d:	98                   	cwtl   
    f11e:	89 d6                	mov    %edx,%esi
    f120:	89 c7                	mov    %eax,%edi
    f122:	e8 2e 93 ff ff       	callq  8455 <safe_div_func_int16_t_s_s>
    f127:	0f be d0             	movsbl %al,%edx
    f12a:	48 83 bd b8 f9 ff ff 	cmpq   $0x0,-0x648(%rbp)
    f131:	00 
    f132:	0f 95 c0             	setne  %al
    f135:	0f b6 c0             	movzbl %al,%eax
    f138:	89 d6                	mov    %edx,%esi
    f13a:	89 c7                	mov    %eax,%edi
    f13c:	e8 93 90 ff ff       	callq  81d4 <safe_add_func_int8_t_s_s>
    f141:	0f be c0             	movsbl %al,%eax
    f144:	89 c6                	mov    %eax,%esi
    f146:	bf 00 00 00 00       	mov    $0x0,%edi
    f14b:	e8 6e 9c ff ff       	callq  8dbe <safe_lshift_func_uint16_t_u_s>
    f150:	89 c2                	mov    %eax,%edx
    f152:	48 8b 05 27 94 00 00 	mov    0x9427(%rip),%rax        # 18580 <g_825>
    f159:	0f b7 d2             	movzwl %dx,%edx
    f15c:	89 10                	mov    %edx,(%rax)
    f15e:	48 8b 05 1b 94 00 00 	mov    0x941b(%rip),%rax        # 18580 <g_825>
    f165:	c7 00 00 00 00 00    	movl   $0x0,(%rax)
    f16b:	66 0f be 85 6c f9 ff 	movsbw -0x694(%rbp),%ax
    f172:	ff 
    f173:	66 89 05 1e 71 00 00 	mov    %ax,0x711e(%rip)        # 16298 <g_599>
    f17a:	0f b7 05 17 71 00 00 	movzwl 0x7117(%rip),%eax        # 16298 <g_599>
    f181:	66 83 f8 ff          	cmp    $0xffff,%ax
    f185:	0f 8d a5 00 00 00    	jge    f230 <func_36+0xce1>
    f18b:	48 8b 85 78 f9 ff ff 	mov    -0x688(%rbp),%rax
    f192:	0f be d8             	movsbl %al,%ebx
    f195:	48 8b 85 78 f9 ff ff 	mov    -0x688(%rbp),%rax
    f19c:	44 0f b6 e0          	movzbl %al,%r12d
    f1a0:	48 8b 05 09 92 00 00 	mov    0x9209(%rip),%rax        # 183b0 <g_524>
    f1a7:	48 8b 00             	mov    (%rax),%rax
    f1aa:	48 85 c0             	test   %rax,%rax
    f1ad:	0f 95 c0             	setne  %al
    f1b0:	0f b6 c0             	movzbl %al,%eax
    f1b3:	be 04 00 00 00       	mov    $0x4,%esi
    f1b8:	89 c7                	mov    %eax,%edi
    f1ba:	e8 ad 91 ff ff       	callq  836c <safe_rshift_func_int8_t_s_u>
    f1bf:	83 c8 f9             	or     $0xfffffff9,%eax
    f1c2:	0f be c0             	movsbl %al,%eax
    f1c5:	89 c6                	mov    %eax,%esi
    f1c7:	bf 76 de d1 ea       	mov    $0xead1de76,%edi
    f1cc:	e8 2c 9d ff ff       	callq  8efd <safe_mod_func_uint32_t_u_u>
    f1d1:	0f b6 c0             	movzbl %al,%eax
    f1d4:	44 89 e6             	mov    %r12d,%esi
    f1d7:	89 c7                	mov    %eax,%edi
    f1d9:	e8 d0 99 ff ff       	callq  8bae <safe_mod_func_uint8_t_u_u>
    f1de:	84 c0                	test   %al,%al
    f1e0:	74 17                	je     f1f9 <func_36+0xcaa>
    f1e2:	48 8b 05 07 6f 00 00 	mov    0x6f07(%rip),%rax        # 160f0 <g_261>
    f1e9:	25 ff ff 0f 00       	and    $0xfffff,%eax
    f1ee:	85 c0                	test   %eax,%eax
    f1f0:	74 07                	je     f1f9 <func_36+0xcaa>
    f1f2:	ba 01 00 00 00       	mov    $0x1,%edx
    f1f7:	eb 05                	jmp    f1fe <func_36+0xcaf>
    f1f9:	ba 00 00 00 00       	mov    $0x0,%edx
    f1fe:	0f be 85 6c f9 ff ff 	movsbl -0x694(%rbp),%eax
    f205:	09 c2                	or     %eax,%edx
    f207:	48 8b 05 72 90 00 00 	mov    0x9072(%rip),%rax        # 18280 <g_97>
    f20e:	8b 00                	mov    (%rax),%eax
    f210:	39 c2                	cmp    %eax,%edx
    f212:	0f 94 c0             	sete   %al
    f215:	0f b6 c0             	movzbl %al,%eax
    f218:	89 de                	mov    %ebx,%esi
    f21a:	89 c7                	mov    %eax,%edi
    f21c:	e8 d1 8f ff ff       	callq  81f2 <safe_sub_func_int8_t_s_s>
    f221:	38 85 6c f9 ff ff    	cmp    %al,-0x694(%rbp)
    f227:	74 07                	je     f230 <func_36+0xce1>
    f229:	b8 01 00 00 00       	mov    $0x1,%eax
    f22e:	eb 05                	jmp    f235 <func_36+0xce6>
    f230:	b8 00 00 00 00       	mov    $0x0,%eax
    f235:	48 98                	cltq   
    f237:	be 01 00 00 00       	mov    $0x1,%esi
    f23c:	48 89 c7             	mov    %rax,%rdi
    f23f:	e8 3c 9e ff ff       	callq  9080 <safe_mod_func_uint64_t_u_u>
    f244:	80 bd 6c f9 ff ff 00 	cmpb   $0x0,-0x694(%rbp)
    f24b:	7f 07                	jg     f254 <func_36+0xd05>
    f24d:	b8 01 00 00 00       	mov    $0x1,%eax
    f252:	eb 05                	jmp    f259 <func_36+0xd0a>
    f254:	b8 00 00 00 00       	mov    $0x0,%eax
    f259:	0f b6 c0             	movzbl %al,%eax
    f25c:	be cb 00 00 00       	mov    $0xcb,%esi
    f261:	89 c7                	mov    %eax,%edi
    f263:	e8 f2 98 ff ff       	callq  8b5a <safe_add_func_uint8_t_u_u>
    f268:	20 85 8f f9 ff ff    	and    %al,-0x671(%rbp)
    f26e:	48 8b 05 53 90 00 00 	mov    0x9053(%rip),%rax        # 182c8 <g_195>
    f275:	48 8b 00             	mov    (%rax),%rax
    f278:	48 8b 00             	mov    (%rax),%rax
    f27b:	48 8b 4d e8          	mov    -0x18(%rbp),%rcx
    f27f:	64 48 33 0c 25 28 00 	xor    %fs:0x28,%rcx
    f286:	00 00 
    f288:	74 05                	je     f28f <func_36+0xd40>
    f28a:	e8 e1 8d ff ff       	callq  8070 <__stack_chk_fail@plt>
    f28f:	48 81 c4 90 06 00 00 	add    $0x690,%rsp
    f296:	5b                   	pop    %rbx
    f297:	41 5c                	pop    %r12
    f299:	5d                   	pop    %rbp
    f29a:	c3                   	retq   

000000000000f29b <func_41>:
    f29b:	f3 0f 1e fa          	endbr64 
    f29f:	55                   	push   %rbp
    f2a0:	48 89 e5             	mov    %rsp,%rbp
    f2a3:	41 57                	push   %r15
    f2a5:	41 56                	push   %r14
    f2a7:	41 55                	push   %r13
    f2a9:	41 54                	push   %r12
    f2ab:	53                   	push   %rbx
    f2ac:	48 81 ec c8 03 00 00 	sub    $0x3c8,%rsp
    f2b3:	48 89 bd 18 fc ff ff 	mov    %rdi,-0x3e8(%rbp)
    f2ba:	89 b5 14 fc ff ff    	mov    %esi,-0x3ec(%rbp)
    f2c0:	89 d0                	mov    %edx,%eax
    f2c2:	66 89 85 10 fc ff ff 	mov    %ax,-0x3f0(%rbp)
    f2c9:	64 48 8b 04 25 28 00 	mov    %fs:0x28,%rax
    f2d0:	00 00 
    f2d2:	48 89 45 c8          	mov    %rax,-0x38(%rbp)
    f2d6:	31 c0                	xor    %eax,%eax
    f2d8:	48 8d 05 bd 6f 00 00 	lea    0x6fbd(%rip),%rax        # 1629c <g_654>
    f2df:	48 89 85 58 fc ff ff 	mov    %rax,-0x3a8(%rbp)
    f2e6:	48 8d 85 58 fc ff ff 	lea    -0x3a8(%rbp),%rax
    f2ed:	48 89 85 78 fc ff ff 	mov    %rax,-0x388(%rbp)
    f2f4:	66 c7 85 06 fd ff ff 	movw   $0x1,-0x2fa(%rbp)
    f2fb:	01 00 
    f2fd:	66 c7 85 08 fd ff ff 	movw   $0x1,-0x2f8(%rbp)
    f304:	01 00 
    f306:	48 8d 05 cb 6d 00 00 	lea    0x6dcb(%rip),%rax        # 160d8 <g_168>
    f30d:	48 89 85 80 fc ff ff 	mov    %rax,-0x380(%rbp)
    f314:	48 8d 05 1d 6d 00 00 	lea    0x6d1d(%rip),%rax        # 16038 <g_9+0x8>
    f31b:	48 89 85 88 fc ff ff 	mov    %rax,-0x378(%rbp)
    f322:	c7 85 28 fc ff ff f6 	movl   $0xfffffff6,-0x3d8(%rbp)
    f329:	ff ff ff 
    f32c:	c7 85 2c fc ff ff 44 	movl   $0x13f9644,-0x3d4(%rbp)
    f333:	96 3f 01 
    f336:	48 8d 05 83 6d 00 00 	lea    0x6d83(%rip),%rax        # 160c0 <g_88>
    f33d:	48 89 85 90 fc ff ff 	mov    %rax,-0x370(%rbp)
    f344:	48 b8 5e 68 73 ed ff 	movabs $0x95e9cffed73685e,%rax
    f34b:	9c 5e 09 
    f34e:	48 89 85 60 fc ff ff 	mov    %rax,-0x3a0(%rbp)
    f355:	48 8d 05 8c 6d 00 00 	lea    0x6d8c(%rip),%rax        # 160e8 <g_173>
    f35c:	48 89 85 c0 fd ff ff 	mov    %rax,-0x240(%rbp)
    f363:	48 8d 05 7e 6d 00 00 	lea    0x6d7e(%rip),%rax        # 160e8 <g_173>
    f36a:	48 89 85 c8 fd ff ff 	mov    %rax,-0x238(%rbp)
    f371:	48 8d 05 70 6d 00 00 	lea    0x6d70(%rip),%rax        # 160e8 <g_173>
    f378:	48 89 85 d0 fd ff ff 	mov    %rax,-0x230(%rbp)
    f37f:	48 8d 05 62 6d 00 00 	lea    0x6d62(%rip),%rax        # 160e8 <g_173>
    f386:	48 89 85 d8 fd ff ff 	mov    %rax,-0x228(%rbp)
    f38d:	48 8d 05 54 6d 00 00 	lea    0x6d54(%rip),%rax        # 160e8 <g_173>
    f394:	48 89 85 e0 fd ff ff 	mov    %rax,-0x220(%rbp)
    f39b:	48 8d 05 46 6d 00 00 	lea    0x6d46(%rip),%rax        # 160e8 <g_173>
    f3a2:	48 89 85 e8 fd ff ff 	mov    %rax,-0x218(%rbp)
    f3a9:	48 8d 05 38 6d 00 00 	lea    0x6d38(%rip),%rax        # 160e8 <g_173>
    f3b0:	48 89 85 f0 fd ff ff 	mov    %rax,-0x210(%rbp)
    f3b7:	48 8d 05 2a 6d 00 00 	lea    0x6d2a(%rip),%rax        # 160e8 <g_173>
    f3be:	48 89 85 f8 fd ff ff 	mov    %rax,-0x208(%rbp)
    f3c5:	48 8d 05 1c 6d 00 00 	lea    0x6d1c(%rip),%rax        # 160e8 <g_173>
    f3cc:	48 89 85 00 fe ff ff 	mov    %rax,-0x200(%rbp)
    f3d3:	48 8d 05 0e 6d 00 00 	lea    0x6d0e(%rip),%rax        # 160e8 <g_173>
    f3da:	48 89 85 08 fe ff ff 	mov    %rax,-0x1f8(%rbp)
    f3e1:	48 c7 85 98 fc ff ff 	movq   $0x4,-0x368(%rbp)
    f3e8:	04 00 00 00 
    f3ec:	66 c7 85 10 fd ff ff 	movw   $0xfff6,-0x2f0(%rbp)
    f3f3:	f6 ff 
    f3f5:	66 c7 85 12 fd ff ff 	movw   $0xfff6,-0x2ee(%rbp)
    f3fc:	f6 ff 
    f3fe:	66 c7 85 14 fd ff ff 	movw   $0xfff6,-0x2ec(%rbp)
    f405:	f6 ff 
    f407:	66 c7 85 16 fd ff ff 	movw   $0xfff6,-0x2ea(%rbp)
    f40e:	f6 ff 
    f410:	66 c7 85 18 fd ff ff 	movw   $0xfff6,-0x2e8(%rbp)
    f417:	f6 ff 
    f419:	66 c7 85 1a fd ff ff 	movw   $0xfff6,-0x2e6(%rbp)
    f420:	f6 ff 
    f422:	66 c7 85 1c fd ff ff 	movw   $0xfff6,-0x2e4(%rbp)
    f429:	f6 ff 
    f42b:	66 c7 85 1e fd ff ff 	movw   $0xfff6,-0x2e2(%rbp)
    f432:	f6 ff 
    f434:	66 c7 85 20 fd ff ff 	movw   $0xfff6,-0x2e0(%rbp)
    f43b:	f6 ff 
    f43d:	48 8d 05 24 91 00 00 	lea    0x9124(%rip),%rax        # 18568 <g_715>
    f444:	48 89 85 68 fc ff ff 	mov    %rax,-0x398(%rbp)
    f44b:	48 8d 85 68 fc ff ff 	lea    -0x398(%rbp),%rax
    f452:	48 89 85 30 fd ff ff 	mov    %rax,-0x2d0(%rbp)
    f459:	48 c7 85 38 fd ff ff 	movq   $0x0,-0x2c8(%rbp)
    f460:	00 00 00 00 
    f464:	48 8d 85 68 fc ff ff 	lea    -0x398(%rbp),%rax
    f46b:	48 89 85 40 fd ff ff 	mov    %rax,-0x2c0(%rbp)
    f472:	48 c7 85 48 fd ff ff 	movq   $0x0,-0x2b8(%rbp)
    f479:	00 00 00 00 
    f47d:	48 8d 05 18 6e 00 00 	lea    0x6e18(%rip),%rax        # 1629c <g_654>
    f484:	48 89 85 a0 fc ff ff 	mov    %rax,-0x360(%rbp)
    f48b:	48 8d 05 3e 8f 00 00 	lea    0x8f3e(%rip),%rax        # 183d0 <g_598>
    f492:	48 89 85 a8 fc ff ff 	mov    %rax,-0x358(%rbp)
    f499:	c7 85 40 fc ff ff a1 	movl   $0x273b2da1,-0x3c0(%rbp)
    f4a0:	2d 3b 27 
    f4a3:	c7 85 30 fc ff ff 00 	movl   $0x0,-0x3d0(%rbp)
    f4aa:	00 00 00 
    f4ad:	eb 1b                	jmp    f4ca <func_41+0x22f>
    f4af:	8b 85 30 fc ff ff    	mov    -0x3d0(%rbp),%eax
    f4b5:	48 98                	cltq   
    f4b7:	48 c7 84 c5 50 fd ff 	movq   $0x0,-0x2b0(%rbp,%rax,8)
    f4be:	ff 00 00 00 00 
    f4c3:	83 85 30 fc ff ff 01 	addl   $0x1,-0x3d0(%rbp)
    f4ca:	83 bd 30 fc ff ff 05 	cmpl   $0x5,-0x3d0(%rbp)
    f4d1:	7e dc                	jle    f4af <func_41+0x214>
    f4d3:	8b 9d 28 fc ff ff    	mov    -0x3d8(%rbp),%ebx
    f4d9:	44 8b a5 14 fc ff ff 	mov    -0x3ec(%rbp),%r12d
    f4e0:	48 8b 85 18 fc ff ff 	mov    -0x3e8(%rbp),%rax
    f4e7:	8b 00                	mov    (%rax),%eax
    f4e9:	85 c0                	test   %eax,%eax
    f4eb:	0f 84 34 01 00 00    	je     f625 <func_41+0x38a>
    f4f1:	8b 05 cd 6b 00 00    	mov    0x6bcd(%rip),%eax        # 160c4 <g_119>
    f4f7:	41 89 c7             	mov    %eax,%r15d
    f4fa:	0f b7 85 08 fd ff ff 	movzwl -0x2f8(%rbp),%eax
    f501:	66 89 85 06 fd ff ff 	mov    %ax,-0x2fa(%rbp)
    f508:	8b 85 14 fc ff ff    	mov    -0x3ec(%rbp),%eax
    f50e:	44 0f bf e8          	movswl %ax,%r13d
    f512:	44 0f bf b5 10 fc ff 	movswl -0x3f0(%rbp),%r14d
    f519:	ff 
    f51a:	8b 85 28 fc ff ff    	mov    -0x3d8(%rbp),%eax
    f520:	98                   	cwtl   
    f521:	be 01 00 00 00       	mov    $0x1,%esi
    f526:	89 c7                	mov    %eax,%edi
    f528:	e8 c8 8e ff ff       	callq  83f5 <safe_mul_func_int16_t_s_s>
    f52d:	48 8b 05 bc 6b 00 00 	mov    0x6bbc(%rip),%rax        # 160f0 <g_261>
    f534:	25 ff ff 0f 00       	and    $0xfffff,%eax
    f539:	0f b6 c0             	movzbl %al,%eax
    f53c:	44 89 f6             	mov    %r14d,%esi
    f53f:	89 c7                	mov    %eax,%edi
    f541:	e8 06 97 ff ff       	callq  8c4c <safe_lshift_func_uint8_t_u_u>
    f546:	0f b6 c0             	movzbl %al,%eax
    f549:	44 89 ee             	mov    %r13d,%esi
    f54c:	89 c7                	mov    %eax,%edi
    f54e:	e8 a2 8e ff ff       	callq  83f5 <safe_mul_func_int16_t_s_s>
    f553:	0f bf d0             	movswl %ax,%edx
    f556:	48 8b 85 88 fc ff ff 	mov    -0x378(%rbp),%rax
    f55d:	0f b7 00             	movzwl (%rax),%eax
    f560:	8d 70 01             	lea    0x1(%rax),%esi
    f563:	48 8b 8d 88 fc ff ff 	mov    -0x378(%rbp),%rcx
    f56a:	66 89 31             	mov    %si,(%rcx)
    f56d:	0f b7 c0             	movzwl %ax,%eax
    f570:	89 d6                	mov    %edx,%esi
    f572:	89 c7                	mov    %eax,%edi
    f574:	e8 01 99 ff ff       	callq  8e7a <safe_rshift_func_uint16_t_u_u>
    f579:	66 85 c0             	test   %ax,%ax
    f57c:	74 14                	je     f592 <func_41+0x2f7>
    f57e:	48 8b 85 18 fc ff ff 	mov    -0x3e8(%rbp),%rax
    f585:	8b 00                	mov    (%rax),%eax
    f587:	85 c0                	test   %eax,%eax
    f589:	74 07                	je     f592 <func_41+0x2f7>
    f58b:	ba 01 00 00 00       	mov    $0x1,%edx
    f590:	eb 05                	jmp    f597 <func_41+0x2fc>
    f592:	ba 00 00 00 00       	mov    $0x0,%edx
    f597:	8b 85 2c fc ff ff    	mov    -0x3d4(%rbp),%eax
    f59d:	21 d0                	and    %edx,%eax
    f59f:	89 85 2c fc ff ff    	mov    %eax,-0x3d4(%rbp)
    f5a5:	8b 85 2c fc ff ff    	mov    -0x3d4(%rbp),%eax
    f5ab:	44 0f be e8          	movsbl %al,%r13d
    f5af:	48 8b 85 80 fc ff ff 	mov    -0x380(%rbp),%rax
    f5b6:	0f b6 00             	movzbl (%rax),%eax
    f5b9:	8d 48 ff             	lea    -0x1(%rax),%ecx
    f5bc:	48 8b 95 80 fc ff ff 	mov    -0x380(%rbp),%rdx
    f5c3:	88 0a                	mov    %cl,(%rdx)
    f5c5:	0f b6 c0             	movzbl %al,%eax
    f5c8:	be 00 00 00 00       	mov    $0x0,%esi
    f5cd:	89 c7                	mov    %eax,%edi
    f5cf:	e8 78 96 ff ff       	callq  8c4c <safe_lshift_func_uint8_t_u_u>
    f5d4:	0f be c0             	movsbl %al,%eax
    f5d7:	44 89 ee             	mov    %r13d,%esi
    f5da:	89 c7                	mov    %eax,%edi
    f5dc:	e8 f3 8b ff ff       	callq  81d4 <safe_add_func_int8_t_s_s>
    f5e1:	8b 85 14 fc ff ff    	mov    -0x3ec(%rbp),%eax
    f5e7:	48 98                	cltq   
    f5e9:	4c 89 fe             	mov    %r15,%rsi
    f5ec:	48 89 c7             	mov    %rax,%rdi
    f5ef:	e8 bb 9a ff ff       	callq  90af <safe_div_func_uint64_t_u_u>
    f5f4:	48 8d 05 8d 8d 00 00 	lea    0x8d8d(%rip),%rax        # 18388 <g_312+0x28>
    f5fb:	48 39 85 78 fc ff ff 	cmp    %rax,-0x388(%rbp)
    f602:	0f 94 c0             	sete   %al
    f605:	0f b6 d0             	movzbl %al,%edx
    f608:	8b 85 14 fc ff ff    	mov    -0x3ec(%rbp),%eax
    f60e:	09 d0                	or     %edx,%eax
    f610:	85 c0                	test   %eax,%eax
    f612:	74 11                	je     f625 <func_41+0x38a>
    f614:	8b 85 2c fc ff ff    	mov    -0x3d4(%rbp),%eax
    f61a:	85 c0                	test   %eax,%eax
    f61c:	74 07                	je     f625 <func_41+0x38a>
    f61e:	b8 01 00 00 00       	mov    $0x1,%eax
    f623:	eb 05                	jmp    f62a <func_41+0x38f>
    f625:	b8 00 00 00 00       	mov    $0x0,%eax
    f62a:	89 c2                	mov    %eax,%edx
    f62c:	8b 85 28 fc ff ff    	mov    -0x3d8(%rbp),%eax
    f632:	39 c2                	cmp    %eax,%edx
    f634:	0f 93 c0             	setae  %al
    f637:	44 0f b6 e8          	movzbl %al,%r13d
    f63b:	48 c7 c7 ff ff ff ff 	mov    $0xffffffffffffffff,%rdi
    f642:	e8 cf 91 ff ff       	callq  8816 <safe_unary_minus_func_int64_t_s>
    f647:	0f be c0             	movsbl %al,%eax
    f64a:	44 89 ee             	mov    %r13d,%esi
    f64d:	89 c7                	mov    %eax,%edi
    f64f:	e8 be 8b ff ff       	callq  8212 <safe_mul_func_int8_t_s_s>
    f654:	66 98                	cbtw   
    f656:	0f b7 c0             	movzwl %ax,%eax
    f659:	25 b3 00 00 00       	and    $0xb3,%eax
    f65e:	44 89 e6             	mov    %r12d,%esi
    f661:	89 c7                	mov    %eax,%edi
    f663:	e8 e0 97 ff ff       	callq  8e48 <safe_rshift_func_uint16_t_u_s>
    f668:	89 c2                	mov    %eax,%edx
    f66a:	48 8b 85 90 fc ff ff 	mov    -0x370(%rbp),%rax
    f671:	88 10                	mov    %dl,(%rax)
    f673:	be 08 00 00 00       	mov    $0x8,%esi
    f678:	bf 09 00 00 00       	mov    $0x9,%edi
    f67d:	e8 84 97 ff ff       	callq  8e06 <safe_lshift_func_uint16_t_u_u>
    f682:	0f be c0             	movsbl %al,%eax
    f685:	89 de                	mov    %ebx,%esi
    f687:	89 c7                	mov    %eax,%edi
    f689:	e8 de 8c ff ff       	callq  836c <safe_rshift_func_int8_t_s_u>
    f68e:	84 c0                	test   %al,%al
    f690:	74 0c                	je     f69e <func_41+0x403>
    f692:	48 8b 85 80 fc ff ff 	mov    -0x380(%rbp),%rax
    f699:	e9 45 0a 00 00       	jmpq   100e3 <func_41+0xe48>
    f69e:	48 8d 85 06 fd ff ff 	lea    -0x2fa(%rbp),%rax
    f6a5:	48 89 85 10 fe ff ff 	mov    %rax,-0x1f0(%rbp)
    f6ac:	48 8d 85 06 fd ff ff 	lea    -0x2fa(%rbp),%rax
    f6b3:	48 83 c0 02          	add    $0x2,%rax
    f6b7:	48 89 85 18 fe ff ff 	mov    %rax,-0x1e8(%rbp)
    f6be:	48 8d 85 06 fd ff ff 	lea    -0x2fa(%rbp),%rax
    f6c5:	48 83 c0 02          	add    $0x2,%rax
    f6c9:	48 89 85 20 fe ff ff 	mov    %rax,-0x1e0(%rbp)
    f6d0:	48 8d 85 06 fd ff ff 	lea    -0x2fa(%rbp),%rax
    f6d7:	48 83 c0 02          	add    $0x2,%rax
    f6db:	48 89 85 28 fe ff ff 	mov    %rax,-0x1d8(%rbp)
    f6e2:	48 8d 85 06 fd ff ff 	lea    -0x2fa(%rbp),%rax
    f6e9:	48 83 c0 02          	add    $0x2,%rax
    f6ed:	48 89 85 30 fe ff ff 	mov    %rax,-0x1d0(%rbp)
    f6f4:	48 8d 85 06 fd ff ff 	lea    -0x2fa(%rbp),%rax
    f6fb:	48 89 85 38 fe ff ff 	mov    %rax,-0x1c8(%rbp)
    f702:	48 8d 85 06 fd ff ff 	lea    -0x2fa(%rbp),%rax
    f709:	48 83 c0 02          	add    $0x2,%rax
    f70d:	48 89 85 40 fe ff ff 	mov    %rax,-0x1c0(%rbp)
    f714:	48 8d 05 7d 6b 00 00 	lea    0x6b7d(%rip),%rax        # 16298 <g_599>
    f71b:	48 89 85 48 fe ff ff 	mov    %rax,-0x1b8(%rbp)
    f722:	48 8d 85 06 fd ff ff 	lea    -0x2fa(%rbp),%rax
    f729:	48 89 85 50 fe ff ff 	mov    %rax,-0x1b0(%rbp)
    f730:	48 c7 85 58 fe ff ff 	movq   $0x0,-0x1a8(%rbp)
    f737:	00 00 00 00 
    f73b:	48 8d 05 56 6b 00 00 	lea    0x6b56(%rip),%rax        # 16298 <g_599>
    f742:	48 89 85 60 fe ff ff 	mov    %rax,-0x1a0(%rbp)
    f749:	48 8d 85 06 fd ff ff 	lea    -0x2fa(%rbp),%rax
    f750:	48 83 c0 02          	add    $0x2,%rax
    f754:	48 89 85 68 fe ff ff 	mov    %rax,-0x198(%rbp)
    f75b:	48 8d 85 06 fd ff ff 	lea    -0x2fa(%rbp),%rax
    f762:	48 83 c0 02          	add    $0x2,%rax
    f766:	48 89 85 70 fe ff ff 	mov    %rax,-0x190(%rbp)
    f76d:	48 8d 85 06 fd ff ff 	lea    -0x2fa(%rbp),%rax
    f774:	48 89 85 78 fe ff ff 	mov    %rax,-0x188(%rbp)
    f77b:	48 8d 05 16 6b 00 00 	lea    0x6b16(%rip),%rax        # 16298 <g_599>
    f782:	48 89 85 80 fe ff ff 	mov    %rax,-0x180(%rbp)
    f789:	48 8d 85 06 fd ff ff 	lea    -0x2fa(%rbp),%rax
    f790:	48 83 c0 02          	add    $0x2,%rax
    f794:	48 89 85 88 fe ff ff 	mov    %rax,-0x178(%rbp)
    f79b:	48 c7 85 90 fe ff ff 	movq   $0x0,-0x170(%rbp)
    f7a2:	00 00 00 00 
    f7a6:	48 8d 85 06 fd ff ff 	lea    -0x2fa(%rbp),%rax
    f7ad:	48 83 c0 02          	add    $0x2,%rax
    f7b1:	48 89 85 98 fe ff ff 	mov    %rax,-0x168(%rbp)
    f7b8:	48 8d 85 06 fd ff ff 	lea    -0x2fa(%rbp),%rax
    f7bf:	48 83 c0 02          	add    $0x2,%rax
    f7c3:	48 89 85 a0 fe ff ff 	mov    %rax,-0x160(%rbp)
    f7ca:	48 8d 05 c7 6a 00 00 	lea    0x6ac7(%rip),%rax        # 16298 <g_599>
    f7d1:	48 89 85 a8 fe ff ff 	mov    %rax,-0x158(%rbp)
    f7d8:	48 8d 85 06 fd ff ff 	lea    -0x2fa(%rbp),%rax
    f7df:	48 83 c0 02          	add    $0x2,%rax
    f7e3:	48 89 85 b0 fe ff ff 	mov    %rax,-0x150(%rbp)
    f7ea:	48 c7 85 b8 fe ff ff 	movq   $0x0,-0x148(%rbp)
    f7f1:	00 00 00 00 
    f7f5:	48 8d 05 9c 6a 00 00 	lea    0x6a9c(%rip),%rax        # 16298 <g_599>
    f7fc:	48 89 85 c0 fe ff ff 	mov    %rax,-0x140(%rbp)
    f803:	48 c7 85 c8 fe ff ff 	movq   $0x0,-0x138(%rbp)
    f80a:	00 00 00 00 
    f80e:	48 8d 85 06 fd ff ff 	lea    -0x2fa(%rbp),%rax
    f815:	48 83 c0 02          	add    $0x2,%rax
    f819:	48 89 85 d0 fe ff ff 	mov    %rax,-0x130(%rbp)
    f820:	48 8d 05 71 6a 00 00 	lea    0x6a71(%rip),%rax        # 16298 <g_599>
    f827:	48 89 85 d8 fe ff ff 	mov    %rax,-0x128(%rbp)
    f82e:	48 c7 85 e0 fe ff ff 	movq   $0x0,-0x120(%rbp)
    f835:	00 00 00 00 
    f839:	48 8d 85 06 fd ff ff 	lea    -0x2fa(%rbp),%rax
    f840:	48 83 c0 02          	add    $0x2,%rax
    f844:	48 89 85 e8 fe ff ff 	mov    %rax,-0x118(%rbp)
    f84b:	48 c7 85 f0 fe ff ff 	movq   $0x0,-0x110(%rbp)
    f852:	00 00 00 00 
    f856:	48 8d 05 3b 6a 00 00 	lea    0x6a3b(%rip),%rax        # 16298 <g_599>
    f85d:	48 89 85 f8 fe ff ff 	mov    %rax,-0x108(%rbp)
    f864:	48 8d 85 06 fd ff ff 	lea    -0x2fa(%rbp),%rax
    f86b:	48 89 85 00 ff ff ff 	mov    %rax,-0x100(%rbp)
    f872:	48 c7 85 08 ff ff ff 	movq   $0x0,-0xf8(%rbp)
    f879:	00 00 00 00 
    f87d:	48 c7 85 10 ff ff ff 	movq   $0x0,-0xf0(%rbp)
    f884:	00 00 00 00 
    f888:	48 8d 85 06 fd ff ff 	lea    -0x2fa(%rbp),%rax
    f88f:	48 89 85 18 ff ff ff 	mov    %rax,-0xe8(%rbp)
    f896:	48 c7 85 20 ff ff ff 	movq   $0x0,-0xe0(%rbp)
    f89d:	00 00 00 00 
    f8a1:	48 8d 85 06 fd ff ff 	lea    -0x2fa(%rbp),%rax
    f8a8:	48 89 85 28 ff ff ff 	mov    %rax,-0xd8(%rbp)
    f8af:	48 8d 85 06 fd ff ff 	lea    -0x2fa(%rbp),%rax
    f8b6:	48 83 c0 02          	add    $0x2,%rax
    f8ba:	48 89 85 30 ff ff ff 	mov    %rax,-0xd0(%rbp)
    f8c1:	48 c7 85 38 ff ff ff 	movq   $0x0,-0xc8(%rbp)
    f8c8:	00 00 00 00 
    f8cc:	48 c7 85 40 ff ff ff 	movq   $0x0,-0xc0(%rbp)
    f8d3:	00 00 00 00 
    f8d7:	48 8d 05 ba 69 00 00 	lea    0x69ba(%rip),%rax        # 16298 <g_599>
    f8de:	48 89 85 48 ff ff ff 	mov    %rax,-0xb8(%rbp)
    f8e5:	48 8d 05 ac 69 00 00 	lea    0x69ac(%rip),%rax        # 16298 <g_599>
    f8ec:	48 89 85 50 ff ff ff 	mov    %rax,-0xb0(%rbp)
    f8f3:	48 8d 05 9e 69 00 00 	lea    0x699e(%rip),%rax        # 16298 <g_599>
    f8fa:	48 89 85 58 ff ff ff 	mov    %rax,-0xa8(%rbp)
    f901:	48 8d 85 06 fd ff ff 	lea    -0x2fa(%rbp),%rax
    f908:	48 83 c0 02          	add    $0x2,%rax
    f90c:	48 89 85 60 ff ff ff 	mov    %rax,-0xa0(%rbp)
    f913:	48 c7 85 68 ff ff ff 	movq   $0x0,-0x98(%rbp)
    f91a:	00 00 00 00 
    f91e:	48 8d 05 73 69 00 00 	lea    0x6973(%rip),%rax        # 16298 <g_599>
    f925:	48 89 85 70 ff ff ff 	mov    %rax,-0x90(%rbp)
    f92c:	48 8d 85 06 fd ff ff 	lea    -0x2fa(%rbp),%rax
    f933:	48 83 c0 02          	add    $0x2,%rax
    f937:	48 89 85 78 ff ff ff 	mov    %rax,-0x88(%rbp)
    f93e:	48 c7 45 80 00 00 00 	movq   $0x0,-0x80(%rbp)
    f945:	00 
    f946:	48 8d 85 06 fd ff ff 	lea    -0x2fa(%rbp),%rax
    f94d:	48 83 c0 02          	add    $0x2,%rax
    f951:	48 89 45 88          	mov    %rax,-0x78(%rbp)
    f955:	48 c7 45 90 00 00 00 	movq   $0x0,-0x70(%rbp)
    f95c:	00 
    f95d:	48 c7 45 98 00 00 00 	movq   $0x0,-0x68(%rbp)
    f964:	00 
    f965:	48 8d 85 06 fd ff ff 	lea    -0x2fa(%rbp),%rax
    f96c:	48 83 c0 02          	add    $0x2,%rax
    f970:	48 89 45 a0          	mov    %rax,-0x60(%rbp)
    f974:	48 c7 45 a8 00 00 00 	movq   $0x0,-0x58(%rbp)
    f97b:	00 
    f97c:	48 c7 45 b0 00 00 00 	movq   $0x0,-0x50(%rbp)
    f983:	00 
    f984:	48 8d 85 06 fd ff ff 	lea    -0x2fa(%rbp),%rax
    f98b:	48 83 c0 02          	add    $0x2,%rax
    f98f:	48 89 45 b8          	mov    %rax,-0x48(%rbp)
    f993:	c7 85 44 fc ff ff fc 	movl   $0xfffffffc,-0x3bc(%rbp)
    f99a:	ff ff ff 
    f99d:	48 b8 51 16 78 77 71 	movabs $0x5a32107177781651,%rax
    f9a4:	10 32 5a 
    f9a7:	48 89 85 b0 fc ff ff 	mov    %rax,-0x350(%rbp)
    f9ae:	c7 85 34 fc ff ff 00 	movl   $0x0,-0x3cc(%rbp)
    f9b5:	00 00 00 
    f9b8:	eb 19                	jmp    f9d3 <func_41+0x738>
    f9ba:	8b 85 34 fc ff ff    	mov    -0x3cc(%rbp),%eax
    f9c0:	48 98                	cltq   
    f9c2:	66 c7 84 45 0a fd ff 	movw   $0x4469,-0x2f6(%rbp,%rax,2)
    f9c9:	ff 69 44 
    f9cc:	83 85 34 fc ff ff 01 	addl   $0x1,-0x3cc(%rbp)
    f9d3:	83 bd 34 fc ff ff 02 	cmpl   $0x2,-0x3cc(%rbp)
    f9da:	7e de                	jle    f9ba <func_41+0x71f>
    f9dc:	48 8b 85 b0 fc ff ff 	mov    -0x350(%rbp),%rax
    f9e3:	0f be d8             	movsbl %al,%ebx
    f9e6:	8b 85 44 fc ff ff    	mov    -0x3bc(%rbp),%eax
    f9ec:	44 0f b6 e0          	movzbl %al,%r12d
    f9f0:	48 8b 45 98          	mov    -0x68(%rbp),%rax
    f9f4:	48 85 c0             	test   %rax,%rax
    f9f7:	0f 95 c2             	setne  %dl
    f9fa:	8b 05 bc 66 00 00    	mov    0x66bc(%rip),%eax        # 160bc <g_82>
    fa00:	85 c0                	test   %eax,%eax
    fa02:	0f 95 c0             	setne  %al
    fa05:	09 d0                	or     %edx,%eax
    fa07:	0f b6 c0             	movzbl %al,%eax
    fa0a:	0d 02 05 00 00       	or     $0x502,%eax
    fa0f:	48 63 d0             	movslq %eax,%rdx
    fa12:	8b 05 84 68 00 00    	mov    0x6884(%rip),%eax        # 1629c <g_654>
    fa18:	48 98                	cltq   
    fa1a:	48 89 d6             	mov    %rdx,%rsi
    fa1d:	48 89 c7             	mov    %rax,%rdi
    fa20:	e8 8f 8f ff ff       	callq  89b4 <safe_mod_func_int64_t_s_s>
    fa25:	48 83 f8 03          	cmp    $0x3,%rax
    fa29:	0f 97 c0             	seta   %al
    fa2c:	0f b6 c0             	movzbl %al,%eax
    fa2f:	44 89 e6             	mov    %r12d,%esi
    fa32:	89 c7                	mov    %eax,%edi
    fa34:	e8 a2 91 ff ff       	callq  8bdb <safe_div_func_uint8_t_u_u>
    fa39:	0f b6 d0             	movzbl %al,%edx
    fa3c:	8b 85 2c fc ff ff    	mov    -0x3d4(%rbp),%eax
    fa42:	09 d0                	or     %edx,%eax
    fa44:	89 85 2c fc ff ff    	mov    %eax,-0x3d4(%rbp)
    fa4a:	8b 85 2c fc ff ff    	mov    -0x3d4(%rbp),%eax
    fa50:	48 98                	cltq   
    fa52:	48 89 85 60 fc ff ff 	mov    %rax,-0x3a0(%rbp)
    fa59:	48 8b 85 60 fc ff ff 	mov    -0x3a0(%rbp),%rax
    fa60:	48 85 c0             	test   %rax,%rax
    fa63:	0f 94 c0             	sete   %al
    fa66:	0f b6 c0             	movzbl %al,%eax
    fa69:	89 de                	mov    %ebx,%esi
    fa6b:	89 c7                	mov    %eax,%edi
    fa6d:	e8 a0 87 ff ff       	callq  8212 <safe_mul_func_int8_t_s_s>
    fa72:	be 01 00 00 00       	mov    $0x1,%esi
    fa77:	bf 00 00 00 00       	mov    $0x0,%edi
    fa7c:	e8 91 87 ff ff       	callq  8212 <safe_mul_func_int8_t_s_s>
    fa81:	0f b7 85 0c fd ff ff 	movzwl -0x2f4(%rbp),%eax
    fa88:	0f b6 c0             	movzbl %al,%eax
    fa8b:	be 02 00 00 00       	mov    $0x2,%esi
    fa90:	89 c7                	mov    %eax,%edi
    fa92:	e8 f6 91 ff ff       	callq  8c8d <safe_rshift_func_uint8_t_u_s>
    fa97:	0f b6 c0             	movzbl %al,%eax
    fa9a:	89 85 44 fc ff ff    	mov    %eax,-0x3bc(%rbp)
    faa0:	c7 85 14 fc ff ff ee 	movl   $0xffffffee,-0x3ec(%rbp)
    faa7:	ff ff ff 
    faaa:	e9 2c 01 00 00       	jmpq   fbdb <func_41+0x940>
    faaf:	48 c7 85 b8 fc ff ff 	movq   $0x0,-0x348(%rbp)
    fab6:	00 00 00 00 
    faba:	48 c7 85 70 fc ff ff 	movq   $0x0,-0x390(%rbp)
    fac1:	00 00 00 00 
    fac5:	48 8d 85 80 fd ff ff 	lea    -0x280(%rbp),%rax
    facc:	48 83 c0 10          	add    $0x10,%rax
    fad0:	48 89 85 c0 fc ff ff 	mov    %rax,-0x340(%rbp)
    fad7:	48 8d 85 60 fc ff ff 	lea    -0x3a0(%rbp),%rax
    fade:	48 89 85 c8 fc ff ff 	mov    %rax,-0x338(%rbp)
    fae5:	48 8d 05 d0 65 00 00 	lea    0x65d0(%rip),%rax        # 160bc <g_82>
    faec:	48 89 85 d0 fc ff ff 	mov    %rax,-0x330(%rbp)
    faf3:	c7 85 38 fc ff ff 00 	movl   $0x0,-0x3c8(%rbp)
    fafa:	00 00 00 
    fafd:	eb 1e                	jmp    fb1d <func_41+0x882>
    faff:	8b 85 38 fc ff ff    	mov    -0x3c8(%rbp),%eax
    fb05:	48 98                	cltq   
    fb07:	48 8d 95 70 fc ff ff 	lea    -0x390(%rbp),%rdx
    fb0e:	48 89 94 c5 80 fd ff 	mov    %rdx,-0x280(%rbp,%rax,8)
    fb15:	ff 
    fb16:	83 85 38 fc ff ff 01 	addl   $0x1,-0x3c8(%rbp)
    fb1d:	83 bd 38 fc ff ff 03 	cmpl   $0x3,-0x3c8(%rbp)
    fb24:	7e d9                	jle    faff <func_41+0x864>
    fb26:	ba 00 00 00 00       	mov    $0x0,%edx
    fb2b:	48 8b 85 c0 fc ff ff 	mov    -0x340(%rbp),%rax
    fb32:	48 89 10             	mov    %rdx,(%rax)
    fb35:	8b 05 ed 64 00 00    	mov    0x64ed(%rip),%eax        # 16028 <g_8>
    fb3b:	85 c0                	test   %eax,%eax
    fb3d:	74 72                	je     fbb1 <func_41+0x916>
    fb3f:	48 c7 05 26 8a 00 00 	movq   $0x0,0x8a26(%rip)        # 18570 <g_713>
    fb46:	00 00 00 00 
    fb4a:	48 8b 85 c0 fc ff ff 	mov    -0x340(%rbp),%rax
    fb51:	48 8b 00             	mov    (%rax),%rax
    fb54:	48 85 c0             	test   %rax,%rax
    fb57:	0f 95 c0             	setne  %al
    fb5a:	0f b6 d8             	movzbl %al,%ebx
    fb5d:	48 8b 85 c8 fc ff ff 	mov    -0x338(%rbp),%rax
    fb64:	48 8b 00             	mov    (%rax),%rax
    fb67:	48 8d 50 ff          	lea    -0x1(%rax),%rdx
    fb6b:	48 8b 85 c8 fc ff ff 	mov    -0x338(%rbp),%rax
    fb72:	48 89 10             	mov    %rdx,(%rax)
    fb75:	48 8b 85 c8 fc ff ff 	mov    -0x338(%rbp),%rax
    fb7c:	48 8b 10             	mov    (%rax),%rdx
    fb7f:	48 8b 85 d8 fd ff ff 	mov    -0x228(%rbp),%rax
    fb86:	48 85 c0             	test   %rax,%rax
    fb89:	0f 94 c0             	sete   %al
    fb8c:	0f b6 c0             	movzbl %al,%eax
    fb8f:	48 89 d6             	mov    %rdx,%rsi
    fb92:	48 89 c7             	mov    %rax,%rdi
    fb95:	e8 b1 94 ff ff       	callq  904b <safe_sub_func_uint64_t_u_u>
    fb9a:	0f be c0             	movsbl %al,%eax
    fb9d:	89 de                	mov    %ebx,%esi
    fb9f:	89 c7                	mov    %eax,%edi
    fba1:	e8 6c 86 ff ff       	callq  8212 <safe_mul_func_int8_t_s_s>
    fba6:	84 c0                	test   %al,%al
    fba8:	74 07                	je     fbb1 <func_41+0x916>
    fbaa:	ba 01 00 00 00       	mov    $0x1,%edx
    fbaf:	eb 05                	jmp    fbb6 <func_41+0x91b>
    fbb1:	ba 00 00 00 00       	mov    $0x0,%edx
    fbb6:	48 8b 85 d0 fc ff ff 	mov    -0x330(%rbp),%rax
    fbbd:	89 10                	mov    %edx,(%rax)
    fbbf:	48 8b 85 18 fc ff ff 	mov    -0x3e8(%rbp),%rax
    fbc6:	8b 00                	mov    (%rax),%eax
    fbc8:	85 c0                	test   %eax,%eax
    fbca:	75 20                	jne    fbec <func_41+0x951>
    fbcc:	8b 85 14 fc ff ff    	mov    -0x3ec(%rbp),%eax
    fbd2:	83 c0 01             	add    $0x1,%eax
    fbd5:	89 85 14 fc ff ff    	mov    %eax,-0x3ec(%rbp)
    fbdb:	8b 85 14 fc ff ff    	mov    -0x3ec(%rbp),%eax
    fbe1:	83 f8 f7             	cmp    $0xfffffff7,%eax
    fbe4:	0f 8c c5 fe ff ff    	jl     faaf <func_41+0x814>
    fbea:	eb 01                	jmp    fbed <func_41+0x952>
    fbec:	90                   	nop
    fbed:	66 c7 05 c4 64 00 00 	movw   $0x1,0x64c4(%rip)        # 160ba <g_79>
    fbf4:	01 00 
    fbf6:	e9 65 01 00 00       	jmpq   fd60 <func_41+0xac5>
    fbfb:	c7 85 70 fc ff ff b8 	movl   $0xa00b94b8,-0x390(%rbp)
    fc02:	94 0b a0 
    fc05:	48 8d 85 2c fc ff ff 	lea    -0x3d4(%rbp),%rax
    fc0c:	48 89 85 80 fd ff ff 	mov    %rax,-0x280(%rbp)
    fc13:	48 8d 85 70 fc ff ff 	lea    -0x390(%rbp),%rax
    fc1a:	48 89 85 88 fd ff ff 	mov    %rax,-0x278(%rbp)
    fc21:	48 8d 85 2c fc ff ff 	lea    -0x3d4(%rbp),%rax
    fc28:	48 89 85 90 fd ff ff 	mov    %rax,-0x270(%rbp)
    fc2f:	48 8d 85 70 fc ff ff 	lea    -0x390(%rbp),%rax
    fc36:	48 89 85 98 fd ff ff 	mov    %rax,-0x268(%rbp)
    fc3d:	48 8d 85 2c fc ff ff 	lea    -0x3d4(%rbp),%rax
    fc44:	48 89 85 a0 fd ff ff 	mov    %rax,-0x260(%rbp)
    fc4b:	48 8d 85 70 fc ff ff 	lea    -0x390(%rbp),%rax
    fc52:	48 89 85 a8 fd ff ff 	mov    %rax,-0x258(%rbp)
    fc59:	48 8d 85 2c fc ff ff 	lea    -0x3d4(%rbp),%rax
    fc60:	48 89 85 b0 fd ff ff 	mov    %rax,-0x250(%rbp)
    fc67:	48 8d 85 70 fc ff ff 	lea    -0x390(%rbp),%rax
    fc6e:	48 89 85 b8 fd ff ff 	mov    %rax,-0x248(%rbp)
    fc75:	48 8d 05 36 65 00 00 	lea    0x6536(%rip),%rax        # 161b2 <g_371>
    fc7c:	48 89 85 f8 fc ff ff 	mov    %rax,-0x308(%rbp)
    fc83:	48 8b 05 46 64 00 00 	mov    0x6446(%rip),%rax        # 160d0 <g_157>
    fc8a:	0f bf d8             	movswl %ax,%ebx
    fc8d:	48 8b 15 dc 85 00 00 	mov    0x85dc(%rip),%rdx        # 18270 <g_51>
    fc94:	48 8b 05 d5 85 00 00 	mov    0x85d5(%rip),%rax        # 18270 <g_51>
    fc9b:	0f b6 12             	movzbl (%rdx),%edx
    fc9e:	88 10                	mov    %dl,(%rax)
    fca0:	0f b6 00             	movzbl (%rax),%eax
    fca3:	0f be d0             	movsbl %al,%edx
    fca6:	8b 85 70 fc ff ff    	mov    -0x390(%rbp),%eax
    fcac:	39 c2                	cmp    %eax,%edx
    fcae:	7e 5c                	jle    fd0c <func_41+0xa71>
    fcb0:	48 8b 05 b9 85 00 00 	mov    0x85b9(%rip),%rax        # 18270 <g_51>
    fcb7:	0f b6 00             	movzbl (%rax),%eax
    fcba:	84 c0                	test   %al,%al
    fcbc:	75 40                	jne    fcfe <func_41+0xa63>
    fcbe:	8b 85 14 fc ff ff    	mov    -0x3ec(%rbp),%eax
    fcc4:	85 c0                	test   %eax,%eax
    fcc6:	75 13                	jne    fcdb <func_41+0xa40>
    fcc8:	48 8b 05 d9 65 00 00 	mov    0x65d9(%rip),%rax        # 162a8 <g_726>
    fccf:	b8 82 8c bd 76       	mov    $0x76bd8c82,%eax
    fcd4:	3d 14 55 11 66       	cmp    $0x66115514,%eax
    fcd9:	77 07                	ja     fce2 <func_41+0xa47>
    fcdb:	b8 01 00 00 00       	mov    $0x1,%eax
    fce0:	eb 05                	jmp    fce7 <func_41+0xa4c>
    fce2:	b8 00 00 00 00       	mov    $0x0,%eax
    fce7:	0f be d0             	movsbl %al,%edx
    fcea:	8b 85 14 fc ff ff    	mov    -0x3ec(%rbp),%eax
    fcf0:	0f be c0             	movsbl %al,%eax
    fcf3:	89 d6                	mov    %edx,%esi
    fcf5:	89 c7                	mov    %eax,%edi
    fcf7:	e8 16 85 ff ff       	callq  8212 <safe_mul_func_int8_t_s_s>
    fcfc:	84 c0                	test   %al,%al
    fcfe:	0f b6 05 53 65 00 00 	movzbl 0x6553(%rip),%eax        # 16258 <g_468+0x98>
    fd05:	b8 01 00 00 00       	mov    $0x1,%eax
    fd0a:	eb 05                	jmp    fd11 <func_41+0xa76>
    fd0c:	b8 00 00 00 00       	mov    $0x0,%eax
    fd11:	98                   	cwtl   
    fd12:	89 c6                	mov    %eax,%esi
    fd14:	bf be 12 00 00       	mov    $0x12be,%edi
    fd19:	e8 d7 86 ff ff       	callq  83f5 <safe_mul_func_int16_t_s_s>
    fd1e:	66 85 c0             	test   %ax,%ax
    fd21:	0f 95 c0             	setne  %al
    fd24:	0f b6 c0             	movzbl %al,%eax
    fd27:	89 de                	mov    %ebx,%esi
    fd29:	89 c7                	mov    %eax,%edi
    fd2b:	e8 83 86 ff ff       	callq  83b3 <safe_add_func_int16_t_s_s>
    fd30:	0f bf d0             	movswl %ax,%edx
    fd33:	8b 85 14 fc ff ff    	mov    -0x3ec(%rbp),%eax
    fd39:	39 c2                	cmp    %eax,%edx
    fd3b:	0f 94 c0             	sete   %al
    fd3e:	0f b6 d0             	movzbl %al,%edx
    fd41:	8b 85 2c fc ff ff    	mov    -0x3d4(%rbp),%eax
    fd47:	09 d0                	or     %edx,%eax
    fd49:	89 85 2c fc ff ff    	mov    %eax,-0x3d4(%rbp)
    fd4f:	0f b7 05 64 63 00 00 	movzwl 0x6364(%rip),%eax        # 160ba <g_79>
    fd56:	83 e8 01             	sub    $0x1,%eax
    fd59:	66 89 05 5a 63 00 00 	mov    %ax,0x635a(%rip)        # 160ba <g_79>
    fd60:	0f b7 05 53 63 00 00 	movzwl 0x6353(%rip),%eax        # 160ba <g_79>
    fd67:	66 85 c0             	test   %ax,%ax
    fd6a:	0f 89 8b fe ff ff    	jns    fbfb <func_41+0x960>
    fd70:	48 8b 85 18 fc ff ff 	mov    -0x3e8(%rbp),%rax
    fd77:	8b 00                	mov    (%rax),%eax
    fd79:	89 85 2c fc ff ff    	mov    %eax,-0x3d4(%rbp)
    fd7f:	48 8b 05 3a 86 00 00 	mov    0x863a(%rip),%rax        # 183c0 <g_591>
    fd86:	0f bf 9d 10 fc ff ff 	movswl -0x3f0(%rbp),%ebx
    fd8d:	48 8b 85 98 fc ff ff 	mov    -0x368(%rbp),%rax
    fd94:	89 c6                	mov    %eax,%esi
    fd96:	bf 00 00 00 00       	mov    $0x0,%edi
    fd9b:	e8 85 91 ff ff       	callq  8f25 <safe_div_func_uint32_t_u_u>
    fda0:	39 c3                	cmp    %eax,%ebx
    fda2:	0f 93 c0             	setae  %al
    fda5:	0f b6 d0             	movzbl %al,%edx
    fda8:	48 8d 05 b9 87 00 00 	lea    0x87b9(%rip),%rax        # 18568 <g_715>
    fdaf:	48 8b 00             	mov    (%rax),%rax
    fdb2:	48 8b 00             	mov    (%rax),%rax
    fdb5:	48 39 c2             	cmp    %rax,%rdx
    fdb8:	72 08                	jb     fdc2 <func_41+0xb27>
    fdba:	8b 85 14 fc ff ff    	mov    -0x3ec(%rbp),%eax
    fdc0:	85 c0                	test   %eax,%eax
    fdc2:	48 8b 05 ef 84 00 00 	mov    0x84ef(%rip),%rax        # 182b8 <g_177>
    fdc9:	8b 10                	mov    (%rax),%edx
    fdcb:	8b 05 e7 64 00 00    	mov    0x64e7(%rip),%eax        # 162b8 <g_763>
    fdd1:	21 d0                	and    %edx,%eax
    fdd3:	89 05 df 64 00 00    	mov    %eax,0x64df(%rip)        # 162b8 <g_763>
    fdd9:	8b 05 d9 64 00 00    	mov    0x64d9(%rip),%eax        # 162b8 <g_763>
    fddf:	85 c0                	test   %eax,%eax
    fde1:	0f 84 1c 02 00 00    	je     10003 <func_41+0xd68>
    fde7:	c7 85 48 fc ff ff 01 	movl   $0x1,-0x3b8(%rbp)
    fdee:	00 00 00 
    fdf1:	c7 85 4c fc ff ff aa 	movl   $0xbae18daa,-0x3b4(%rbp)
    fdf8:	8d e1 ba 
    fdfb:	c7 85 50 fc ff ff fa 	movl   $0xfffffffa,-0x3b0(%rbp)
    fe02:	ff ff ff 
    fe05:	c7 85 54 fc ff ff 4b 	movl   $0xe971a54b,-0x3ac(%rbp)
    fe0c:	a5 71 e9 
    fe0f:	48 8d 05 86 64 00 00 	lea    0x6486(%rip),%rax        # 1629c <g_654>
    fe16:	48 89 85 10 fe ff ff 	mov    %rax,-0x1f0(%rbp)
    fe1d:	48 8d 05 78 64 00 00 	lea    0x6478(%rip),%rax        # 1629c <g_654>
    fe24:	48 89 85 18 fe ff ff 	mov    %rax,-0x1e8(%rbp)
    fe2b:	48 8d 05 6a 64 00 00 	lea    0x646a(%rip),%rax        # 1629c <g_654>
    fe32:	48 89 85 20 fe ff ff 	mov    %rax,-0x1e0(%rbp)
    fe39:	48 8d 05 5c 64 00 00 	lea    0x645c(%rip),%rax        # 1629c <g_654>
    fe40:	48 89 85 28 fe ff ff 	mov    %rax,-0x1d8(%rbp)
    fe47:	48 8d 05 4e 64 00 00 	lea    0x644e(%rip),%rax        # 1629c <g_654>
    fe4e:	48 89 85 30 fe ff ff 	mov    %rax,-0x1d0(%rbp)
    fe55:	48 8d 05 40 64 00 00 	lea    0x6440(%rip),%rax        # 1629c <g_654>
    fe5c:	48 89 85 38 fe ff ff 	mov    %rax,-0x1c8(%rbp)
    fe63:	48 8d 85 10 fe ff ff 	lea    -0x1f0(%rbp),%rax
    fe6a:	48 83 c0 10          	add    $0x10,%rax
    fe6e:	48 89 85 e8 fc ff ff 	mov    %rax,-0x318(%rbp)
    fe75:	48 8d 05 40 62 00 00 	lea    0x6240(%rip),%rax        # 160bc <g_82>
    fe7c:	48 89 85 f0 fc ff ff 	mov    %rax,-0x310(%rbp)
    fe83:	0f b7 85 1c fd ff ff 	movzwl -0x2e4(%rbp),%eax
    fe8a:	83 c0 01             	add    $0x1,%eax
    fe8d:	66 89 85 1c fd ff ff 	mov    %ax,-0x2e4(%rbp)
    fe94:	48 8b 05 2d 84 00 00 	mov    0x842d(%rip),%rax        # 182c8 <g_195>
    fe9b:	48 8b 00             	mov    (%rax),%rax
    fe9e:	48 8b 95 18 fc ff ff 	mov    -0x3e8(%rbp),%rdx
    fea5:	48 89 10             	mov    %rdx,(%rax)
    fea8:	48 8b 05 19 84 00 00 	mov    0x8419(%rip),%rax        # 182c8 <g_195>
    feaf:	48 8b 18             	mov    (%rax),%rbx
    feb2:	48 8b 05 b7 83 00 00 	mov    0x83b7(%rip),%rax        # 18270 <g_51>
    feb9:	0f b6 00             	movzbl (%rax),%eax
    febc:	44 0f be e0          	movsbl %al,%r12d
    fec0:	48 8b 05 a9 83 00 00 	mov    0x83a9(%rip),%rax        # 18270 <g_51>
    fec7:	0f b6 00             	movzbl (%rax),%eax
    feca:	44 0f be e8          	movsbl %al,%r13d
    fece:	0f b7 85 10 fc ff ff 	movzwl -0x3f0(%rbp),%eax
    fed5:	0f b7 c0             	movzwl %ax,%eax
    fed8:	be 06 00 00 00       	mov    $0x6,%esi
    fedd:	89 c7                	mov    %eax,%edi
    fedf:	e8 96 8f ff ff       	callq  8e7a <safe_rshift_func_uint16_t_u_u>
    fee4:	48 8b 85 80 fc ff ff 	mov    -0x380(%rbp),%rax
    feeb:	0f b6 00             	movzbl (%rax),%eax
    feee:	8d 48 ff             	lea    -0x1(%rax),%ecx
    fef1:	48 8b 95 80 fc ff ff 	mov    -0x380(%rbp),%rdx
    fef8:	88 0a                	mov    %cl,(%rdx)
    fefa:	0f b6 c0             	movzbl %al,%eax
    fefd:	be 05 00 00 00       	mov    $0x5,%esi
    ff02:	89 c7                	mov    %eax,%edi
    ff04:	e8 84 8d ff ff       	callq  8c8d <safe_rshift_func_uint8_t_u_s>
    ff09:	84 c0                	test   %al,%al
    ff0b:	75 4d                	jne    ff5a <func_41+0xcbf>
    ff0d:	48 c7 85 a0 fc ff ff 	movq   $0x0,-0x360(%rbp)
    ff14:	00 00 00 00 
    ff18:	48 8b 85 78 fc ff ff 	mov    -0x388(%rbp),%rax
    ff1f:	48 8b 95 a0 fc ff ff 	mov    -0x360(%rbp),%rdx
    ff26:	48 89 10             	mov    %rdx,(%rax)
    ff29:	48 8b 85 78 fc ff ff 	mov    -0x388(%rbp),%rax
    ff30:	48 8b 10             	mov    (%rax),%rdx
    ff33:	48 8b 85 e8 fc ff ff 	mov    -0x318(%rbp),%rax
    ff3a:	48 89 10             	mov    %rdx,(%rax)
    ff3d:	48 8b 85 e8 fc ff ff 	mov    -0x318(%rbp),%rax
    ff44:	48 8b 00             	mov    (%rax),%rax
    ff47:	48 8d 15 4e 63 00 00 	lea    0x634e(%rip),%rdx        # 1629c <g_654>
    ff4e:	48 39 d0             	cmp    %rdx,%rax
    ff51:	74 07                	je     ff5a <func_41+0xcbf>
    ff53:	ba 01 00 00 00       	mov    $0x1,%edx
    ff58:	eb 05                	jmp    ff5f <func_41+0xcc4>
    ff5a:	ba 00 00 00 00       	mov    $0x0,%edx
    ff5f:	48 8b 85 38 fd ff ff 	mov    -0x2c8(%rbp),%rax
    ff66:	48 85 c0             	test   %rax,%rax
    ff69:	0f 95 c0             	setne  %al
    ff6c:	0f b6 c0             	movzbl %al,%eax
    ff6f:	89 d6                	mov    %edx,%esi
    ff71:	89 c7                	mov    %eax,%edi
    ff73:	e8 1a 85 ff ff       	callq  8492 <safe_lshift_func_int16_t_s_s>
    ff78:	98                   	cwtl   
    ff79:	89 85 50 fc ff ff    	mov    %eax,-0x3b0(%rbp)
    ff7f:	0f b6 05 2a 62 00 00 	movzbl 0x622a(%rip),%eax        # 161b0 <g_338>
    ff86:	0f b6 c0             	movzbl %al,%eax
    ff89:	39 85 50 fc ff ff    	cmp    %eax,-0x3b0(%rbp)
    ff8f:	48 83 bd a8 fc ff ff 	cmpq   $0x0,-0x358(%rbp)
    ff96:	00 
    ff97:	48 8b 05 d2 82 00 00 	mov    0x82d2(%rip),%rax        # 18270 <g_51>
    ff9e:	0f b6 00             	movzbl (%rax),%eax
    ffa1:	0f be c0             	movsbl %al,%eax
    ffa4:	44 89 ee             	mov    %r13d,%esi
    ffa7:	89 c7                	mov    %eax,%edi
    ffa9:	e8 bc 82 ff ff       	callq  826a <safe_div_func_int8_t_s_s>
    ffae:	0f be c0             	movsbl %al,%eax
    ffb1:	44 89 e6             	mov    %r12d,%esi
    ffb4:	89 c7                	mov    %eax,%edi
    ffb6:	e8 e6 82 ff ff       	callq  82a1 <safe_lshift_func_int8_t_s_s>
    ffbb:	0f be c0             	movsbl %al,%eax
    ffbe:	be c9 10 00 00       	mov    $0x10c9,%esi
    ffc3:	89 c7                	mov    %eax,%edi
    ffc5:	e8 8b 84 ff ff       	callq  8455 <safe_div_func_int16_t_s_s>
    ffca:	4c 8b 25 a7 85 00 00 	mov    0x85a7(%rip),%r12        # 18578 <g_792>
    ffd1:	48 8d 85 50 fd ff ff 	lea    -0x2b0(%rbp),%rax
    ffd8:	48 83 c0 28          	add    $0x28,%rax
    ffdc:	48 89 c2             	mov    %rax,%rdx
    ffdf:	48 89 de             	mov    %rbx,%rsi
    ffe2:	bf 00 00 00 00       	mov    $0x0,%edi
    ffe7:	e8 3c 04 00 00       	callq  10428 <func_54>
    ffec:	49 89 04 24          	mov    %rax,(%r12)
    fff0:	48 8b 85 18 fc ff ff 	mov    -0x3e8(%rbp),%rax
    fff7:	48 89 85 f0 fc ff ff 	mov    %rax,-0x310(%rbp)
    fffe:	e9 d9 00 00 00       	jmpq   100dc <func_41+0xe41>
   10003:	48 8d 85 28 fc ff ff 	lea    -0x3d8(%rbp),%rax
   1000a:	48 89 85 d8 fc ff ff 	mov    %rax,-0x328(%rbp)
   10011:	48 8d 05 ac 60 00 00 	lea    0x60ac(%rip),%rax        # 160c4 <g_119>
   10018:	48 89 85 e0 fc ff ff 	mov    %rax,-0x320(%rbp)
   1001f:	c7 85 3c fc ff ff 00 	movl   $0x0,-0x3c4(%rbp)
   10026:	00 00 00 
   10029:	eb 1a                	jmp    10045 <func_41+0xdaa>
   1002b:	8b 85 3c fc ff ff    	mov    -0x3c4(%rbp),%eax
   10031:	48 98                	cltq   
   10033:	c7 84 85 10 fe ff ff 	movl   $0xfffffff9,-0x1f0(%rbp,%rax,4)
   1003a:	f9 ff ff ff 
   1003e:	83 85 3c fc ff ff 01 	addl   $0x1,-0x3c4(%rbp)
   10045:	83 bd 3c fc ff ff 02 	cmpl   $0x2,-0x3c4(%rbp)
   1004c:	7e dd                	jle    1002b <func_41+0xd90>
   1004e:	48 8b 85 d8 fc ff ff 	mov    -0x328(%rbp),%rax
   10055:	8b 00                	mov    (%rax),%eax
   10057:	35 34 ff ff ff       	xor    $0xffffff34,%eax
   1005c:	89 c2                	mov    %eax,%edx
   1005e:	48 8b 85 d8 fc ff ff 	mov    -0x328(%rbp),%rax
   10065:	89 10                	mov    %edx,(%rax)
   10067:	48 8b 85 d8 fc ff ff 	mov    -0x328(%rbp),%rax
   1006e:	8b 10                	mov    (%rax),%edx
   10070:	48 8b 85 e0 fc ff ff 	mov    -0x320(%rbp),%rax
   10077:	89 10                	mov    %edx,(%rax)
   10079:	48 8b 85 e0 fc ff ff 	mov    -0x320(%rbp),%rax
   10080:	8b 00                	mov    (%rax),%eax
   10082:	be 47 c6 d1 b8       	mov    $0xb8d1c647,%esi
   10087:	89 c7                	mov    %eax,%edi
   10089:	e8 42 8e ff ff       	callq  8ed0 <safe_sub_func_uint32_t_u_u>
   1008e:	89 85 10 fe ff ff    	mov    %eax,-0x1f0(%rbp)
   10094:	c6 05 0d 61 00 00 00 	movb   $0x0,0x610d(%rip)        # 161a8 <g_327>
   1009b:	eb 2d                	jmp    100ca <func_41+0xe2f>
   1009d:	0f b6 05 04 61 00 00 	movzbl 0x6104(%rip),%eax        # 161a8 <g_327>
   100a4:	0f be c0             	movsbl %al,%eax
   100a7:	48 98                	cltq   
   100a9:	48 8d 14 00          	lea    (%rax,%rax,1),%rdx
   100ad:	48 8d 05 7c 5f 00 00 	lea    0x5f7c(%rip),%rax        # 16030 <g_9>
   100b4:	66 c7 04 02 00 00    	movw   $0x0,(%rdx,%rax,1)
   100ba:	0f b6 05 e7 60 00 00 	movzbl 0x60e7(%rip),%eax        # 161a8 <g_327>
   100c1:	83 c0 01             	add    $0x1,%eax
   100c4:	88 05 de 60 00 00    	mov    %al,0x60de(%rip)        # 161a8 <g_327>
   100ca:	0f b6 05 d7 60 00 00 	movzbl 0x60d7(%rip),%eax        # 161a8 <g_327>
   100d1:	3c 08                	cmp    $0x8,%al
   100d3:	7e c8                	jle    1009d <func_41+0xe02>
   100d5:	83 85 40 fc ff ff 01 	addl   $0x1,-0x3c0(%rbp)
   100dc:	48 8d 05 05 60 00 00 	lea    0x6005(%rip),%rax        # 160e8 <g_173>
   100e3:	48 8b 4d c8          	mov    -0x38(%rbp),%rcx
   100e7:	64 48 33 0c 25 28 00 	xor    %fs:0x28,%rcx
   100ee:	00 00 
   100f0:	74 05                	je     100f7 <func_41+0xe5c>
   100f2:	e8 79 7f ff ff       	callq  8070 <__stack_chk_fail@plt>
   100f7:	48 81 c4 c8 03 00 00 	add    $0x3c8,%rsp
   100fe:	5b                   	pop    %rbx
   100ff:	41 5c                	pop    %r12
   10101:	41 5d                	pop    %r13
   10103:	41 5e                	pop    %r14
   10105:	41 5f                	pop    %r15
   10107:	5d                   	pop    %rbp
   10108:	c3                   	retq   

0000000000010109 <func_45>:
   10109:	f3 0f 1e fa          	endbr64 
   1010d:	55                   	push   %rbp
   1010e:	48 89 e5             	mov    %rsp,%rbp
   10111:	41 55                	push   %r13
   10113:	41 54                	push   %r12
   10115:	53                   	push   %rbx
   10116:	48 81 ec d8 02 00 00 	sub    $0x2d8,%rsp
   1011d:	89 bd 2c fd ff ff    	mov    %edi,-0x2d4(%rbp)
   10123:	48 89 b5 20 fd ff ff 	mov    %rsi,-0x2e0(%rbp)
   1012a:	48 89 95 18 fd ff ff 	mov    %rdx,-0x2e8(%rbp)
   10131:	48 89 8d 10 fd ff ff 	mov    %rcx,-0x2f0(%rbp)
   10138:	44 89 c0             	mov    %r8d,%eax
   1013b:	88 85 28 fd ff ff    	mov    %al,-0x2d8(%rbp)
   10141:	64 48 8b 04 25 28 00 	mov    %fs:0x28,%rax
   10148:	00 00 
   1014a:	48 89 45 d8          	mov    %rax,-0x28(%rbp)
   1014e:	31 c0                	xor    %eax,%eax
   10150:	48 c7 85 70 fd ff ff 	movq   $0x0,-0x290(%rbp)
   10157:	00 00 00 00 
   1015b:	48 c7 85 78 fd ff ff 	movq   $0x0,-0x288(%rbp)
   10162:	00 00 00 00 
   10166:	48 8d 85 f0 fd ff ff 	lea    -0x210(%rbp),%rax
   1016d:	48 8d 15 cc 7e 00 00 	lea    0x7ecc(%rip),%rdx        # 18040 <g_1797+0x1c48>
   10174:	b9 3c 00 00 00       	mov    $0x3c,%ecx
   10179:	48 89 c7             	mov    %rax,%rdi
   1017c:	48 89 d6             	mov    %rdx,%rsi
   1017f:	f3 48 a5             	rep movsq %ds:(%rsi),%es:(%rdi)
   10182:	c7 85 40 fd ff ff ff 	movl   $0xffffffff,-0x2c0(%rbp)
   10189:	ff ff ff 
   1018c:	48 c7 85 80 fd ff ff 	movq   $0x0,-0x280(%rbp)
   10193:	00 00 00 00 
   10197:	48 8d 05 26 5f 00 00 	lea    0x5f26(%rip),%rax        # 160c4 <g_119>
   1019e:	48 89 85 88 fd ff ff 	mov    %rax,-0x278(%rbp)
   101a5:	c7 85 38 fd ff ff 00 	movl   $0x0,-0x2c8(%rbp)
   101ac:	00 00 00 
   101af:	48 8d 05 12 5f 00 00 	lea    0x5f12(%rip),%rax        # 160c8 <g_126>
   101b6:	48 89 85 90 fd ff ff 	mov    %rax,-0x270(%rbp)
   101bd:	c7 85 44 fd ff ff 0e 	movl   $0x5f9efa0e,-0x2bc(%rbp)
   101c4:	fa 9e 5f 
   101c7:	c7 85 48 fd ff ff ca 	movl   $0x848226ca,-0x2b8(%rbp)
   101ce:	26 82 84 
   101d1:	c7 85 4c fd ff ff f6 	movl   $0xfffffff6,-0x2b4(%rbp)
   101d8:	ff ff ff 
   101db:	c7 85 50 fd ff ff 01 	movl   $0x1,-0x2b0(%rbp)
   101e2:	00 00 00 
   101e5:	48 8d 05 e4 5e 00 00 	lea    0x5ee4(%rip),%rax        # 160d0 <g_157>
   101ec:	48 89 85 98 fd ff ff 	mov    %rax,-0x268(%rbp)
   101f3:	c6 85 36 fd ff ff 24 	movb   $0x24,-0x2ca(%rbp)
   101fa:	c7 85 54 fd ff ff 01 	movl   $0x1,-0x2ac(%rbp)
   10201:	00 00 00 
   10204:	c7 85 58 fd ff ff 00 	movl   $0x0,-0x2a8(%rbp)
   1020b:	00 00 00 
   1020e:	48 c7 85 a0 fd ff ff 	movq   $0xfffffffffffffffb,-0x260(%rbp)
   10215:	fb ff ff ff 
   10219:	48 8d 05 92 5f 00 00 	lea    0x5f92(%rip),%rax        # 161b2 <g_371>
   10220:	48 89 85 68 fd ff ff 	mov    %rax,-0x298(%rbp)
   10227:	48 8d 85 68 fd ff ff 	lea    -0x298(%rbp),%rax
   1022e:	48 89 85 a8 fd ff ff 	mov    %rax,-0x258(%rbp)
   10235:	c7 85 5c fd ff ff ec 	movl   $0xf97873ec,-0x2a4(%rbp)
   1023c:	73 78 f9 
   1023f:	c7 85 d0 fd ff ff 10 	movl   $0xc04ed110,-0x230(%rbp)
   10246:	d1 4e c0 
   10249:	c7 85 d4 fd ff ff 10 	movl   $0xc04ed110,-0x22c(%rbp)
   10250:	d1 4e c0 
   10253:	c7 85 d8 fd ff ff 10 	movl   $0xc04ed110,-0x228(%rbp)
   1025a:	d1 4e c0 
   1025d:	c7 85 dc fd ff ff 10 	movl   $0xc04ed110,-0x224(%rbp)
   10264:	d1 4e c0 
   10267:	c7 85 e0 fd ff ff 10 	movl   $0xc04ed110,-0x220(%rbp)
   1026e:	d1 4e c0 
   10271:	c7 85 e4 fd ff ff 10 	movl   $0xc04ed110,-0x21c(%rbp)
   10278:	d1 4e c0 
   1027b:	c7 85 e8 fd ff ff 10 	movl   $0xc04ed110,-0x218(%rbp)
   10282:	d1 4e c0 
   10285:	48 c7 85 b0 fd ff ff 	movq   $0x0,-0x250(%rbp)
   1028c:	00 00 00 00 
   10290:	c6 85 37 fd ff ff fd 	movb   $0xfd,-0x2c9(%rbp)
   10297:	48 8d 05 f2 5f 00 00 	lea    0x5ff2(%rip),%rax        # 16290 <g_590>
   1029e:	48 89 85 b8 fd ff ff 	mov    %rax,-0x248(%rbp)
   102a5:	c7 85 60 fd ff ff 01 	movl   $0x1,-0x2a0(%rbp)
   102ac:	00 00 00 
   102af:	c7 85 64 fd ff ff 09 	movl   $0x358eb609,-0x29c(%rbp)
   102b6:	b6 8e 35 
   102b9:	c7 85 3c fd ff ff 00 	movl   $0x0,-0x2c4(%rbp)
   102c0:	00 00 00 
   102c3:	eb 1e                	jmp    102e3 <func_45+0x1da>
   102c5:	8b 85 3c fd ff ff    	mov    -0x2c4(%rbp),%eax
   102cb:	48 98                	cltq   
   102cd:	48 8d 15 ac 7f 00 00 	lea    0x7fac(%rip),%rdx        # 18280 <g_97>
   102d4:	48 89 94 c5 c0 fd ff 	mov    %rdx,-0x240(%rbp,%rax,8)
   102db:	ff 
   102dc:	83 85 3c fd ff ff 01 	addl   $0x1,-0x2c4(%rbp)
   102e3:	83 bd 3c fd ff ff 01 	cmpl   $0x1,-0x2c4(%rbp)
   102ea:	7e d9                	jle    102c5 <func_45+0x1bc>
   102ec:	8b 85 2c fd ff ff    	mov    -0x2d4(%rbp),%eax
   102f2:	0f b6 c0             	movzbl %al,%eax
   102f5:	48 8b 95 70 fd ff ff 	mov    -0x290(%rbp),%rdx
   102fc:	48 8b 8d 18 fd ff ff 	mov    -0x2e8(%rbp),%rcx
   10303:	48 89 ce             	mov    %rcx,%rsi
   10306:	89 c7                	mov    %eax,%edi
   10308:	e8 1b 01 00 00       	callq  10428 <func_54>
   1030d:	48 89 85 10 fd ff ff 	mov    %rax,-0x2f0(%rbp)
   10314:	be 05 00 00 00       	mov    $0x5,%esi
   10319:	bf a6 00 00 00       	mov    $0xa6,%edi
   1031e:	e8 29 89 ff ff       	callq  8c4c <safe_lshift_func_uint8_t_u_u>
   10323:	84 c0                	test   %al,%al
   10325:	0f 94 c0             	sete   %al
   10328:	44 0f b6 e8          	movzbl %al,%r13d
   1032c:	0f b6 05 8d 5d 00 00 	movzbl 0x5d8d(%rip),%eax        # 160c0 <g_88>
   10333:	0f b6 d8             	movzbl %al,%ebx
   10336:	48 8b 85 20 fd ff ff 	mov    -0x2e0(%rbp),%rax
   1033d:	0f b6 00             	movzbl (%rax),%eax
   10340:	44 0f be e0          	movsbl %al,%r12d
   10344:	0f b7 05 77 5d 00 00 	movzwl 0x5d77(%rip),%eax        # 160c2 <g_111>
   1034b:	b8 00 00 00 00       	mov    $0x0,%eax
   10350:	89 85 40 fd ff ff    	mov    %eax,-0x2c0(%rbp)
   10356:	80 bd 28 fd ff ff 2f 	cmpb   $0x2f,-0x2d8(%rbp)
   1035d:	0f 9f c0             	setg   %al
   10360:	0f b6 d0             	movzbl %al,%edx
   10363:	48 8b 85 10 fd ff ff 	mov    -0x2f0(%rbp),%rax
   1036a:	8b 00                	mov    (%rax),%eax
   1036c:	31 d0                	xor    %edx,%eax
   1036e:	0b 85 40 fd ff ff    	or     -0x2c0(%rbp),%eax
   10374:	83 f8 09             	cmp    $0x9,%eax
   10377:	0f 96 c0             	setbe  %al
   1037a:	0f b6 c0             	movzbl %al,%eax
   1037d:	8b 15 39 5d 00 00    	mov    0x5d39(%rip),%edx        # 160bc <g_82>
   10383:	21 d0                	and    %edx,%eax
   10385:	98                   	cwtl   
   10386:	89 c7                	mov    %eax,%edi
   10388:	e8 10 80 ff ff       	callq  839d <safe_unary_minus_func_int16_t_s>
   1038d:	0f be c0             	movsbl %al,%eax
   10390:	44 89 e6             	mov    %r12d,%esi
   10393:	89 c7                	mov    %eax,%edi
   10395:	e8 3a 7e ff ff       	callq  81d4 <safe_add_func_int8_t_s_s>
   1039a:	8b 85 2c fd ff ff    	mov    -0x2d4(%rbp),%eax
   103a0:	0f b7 c0             	movzwl %ax,%eax
   103a3:	89 de                	mov    %ebx,%esi
   103a5:	89 c7                	mov    %eax,%edi
   103a7:	e8 53 89 ff ff       	callq  8cff <safe_add_func_uint16_t_u_u>
   103ac:	0f b7 c0             	movzwl %ax,%eax
   103af:	41 39 c5             	cmp    %eax,%r13d
   103b2:	0f 95 c0             	setne  %al
   103b5:	0f b6 d0             	movzbl %al,%edx
   103b8:	48 8b 85 18 fd ff ff 	mov    -0x2e8(%rbp),%rax
   103bf:	48 8b 00             	mov    (%rax),%rax
   103c2:	8b 00                	mov    (%rax),%eax
   103c4:	85 c0                	test   %eax,%eax
   103c6:	75 10                	jne    103d8 <func_45+0x2cf>
   103c8:	48 8b 85 18 fd ff ff 	mov    -0x2e8(%rbp),%rax
   103cf:	48 8b 00             	mov    (%rax),%rax
   103d2:	8b 00                	mov    (%rax),%eax
   103d4:	85 c0                	test   %eax,%eax
   103d6:	74 07                	je     103df <func_45+0x2d6>
   103d8:	b8 01 00 00 00       	mov    $0x1,%eax
   103dd:	eb 05                	jmp    103e4 <func_45+0x2db>
   103df:	b8 00 00 00 00       	mov    $0x0,%eax
   103e4:	98                   	cwtl   
   103e5:	89 d6                	mov    %edx,%esi
   103e7:	89 c7                	mov    %eax,%edi
   103e9:	e8 07 80 ff ff       	callq  83f5 <safe_mul_func_int16_t_s_s>
   103ee:	89 c2                	mov    %eax,%edx
   103f0:	48 8b 05 b1 7e 00 00 	mov    0x7eb1(%rip),%rax        # 182a8 <g_114>
   103f7:	0f bf d2             	movswl %dx,%edx
   103fa:	89 10                	mov    %edx,(%rax)
   103fc:	48 8b 85 18 fd ff ff 	mov    -0x2e8(%rbp),%rax
   10403:	48 8b 00             	mov    (%rax),%rax
   10406:	48 8b 5d d8          	mov    -0x28(%rbp),%rbx
   1040a:	64 48 33 1c 25 28 00 	xor    %fs:0x28,%rbx
   10411:	00 00 
   10413:	74 05                	je     1041a <func_45+0x311>
   10415:	e8 56 7c ff ff       	callq  8070 <__stack_chk_fail@plt>
   1041a:	48 81 c4 d8 02 00 00 	add    $0x2d8,%rsp
   10421:	5b                   	pop    %rbx
   10422:	41 5c                	pop    %r12
   10424:	41 5d                	pop    %r13
   10426:	5d                   	pop    %rbp
   10427:	c3                   	retq   

0000000000010428 <func_54>:
   10428:	f3 0f 1e fa          	endbr64 
   1042c:	55                   	push   %rbp
   1042d:	48 89 e5             	mov    %rsp,%rbp
   10430:	89 f8                	mov    %edi,%eax
   10432:	48 89 75 f0          	mov    %rsi,-0x10(%rbp)
   10436:	48 89 55 e8          	mov    %rdx,-0x18(%rbp)
   1043a:	88 45 fc             	mov    %al,-0x4(%rbp)
   1043d:	c6 05 7c 5c 00 00 00 	movb   $0x0,0x5c7c(%rip)        # 160c0 <g_88>
   10444:	eb 1e                	jmp    10464 <func_54+0x3c>
   10446:	48 8b 05 2b 7e 00 00 	mov    0x7e2b(%rip),%rax        # 18278 <g_93>
   1044d:	48 8b 55 e8          	mov    -0x18(%rbp),%rdx
   10451:	48 89 10             	mov    %rdx,(%rax)
   10454:	0f b6 05 65 5c 00 00 	movzbl 0x5c65(%rip),%eax        # 160c0 <g_88>
   1045b:	83 c0 01             	add    $0x1,%eax
   1045e:	88 05 5c 5c 00 00    	mov    %al,0x5c5c(%rip)        # 160c0 <g_88>
   10464:	0f b6 05 55 5c 00 00 	movzbl 0x5c55(%rip),%eax        # 160c0 <g_88>
   1046b:	3c 37                	cmp    $0x37,%al
   1046d:	74 d7                	je     10446 <func_54+0x1e>
   1046f:	48 8b 45 f0          	mov    -0x10(%rbp),%rax
   10473:	48 8b 00             	mov    (%rax),%rax
   10476:	5d                   	pop    %rbp
   10477:	c3                   	retq   

0000000000010478 <func_59>:
   10478:	f3 0f 1e fa          	endbr64 
   1047c:	55                   	push   %rbp
   1047d:	48 89 e5             	mov    %rsp,%rbp
   10480:	48 81 ec 80 02 00 00 	sub    $0x280,%rsp
   10487:	48 89 bd 98 fd ff ff 	mov    %rdi,-0x268(%rbp)
   1048e:	48 89 b5 90 fd ff ff 	mov    %rsi,-0x270(%rbp)
   10495:	48 89 95 88 fd ff ff 	mov    %rdx,-0x278(%rbp)
   1049c:	64 48 8b 04 25 28 00 	mov    %fs:0x28,%rax
   104a3:	00 00 
   104a5:	48 89 45 f8          	mov    %rax,-0x8(%rbp)
   104a9:	31 c0                	xor    %eax,%eax
   104ab:	66 c7 85 aa fd ff ff 	movw   $0x4,-0x256(%rbp)
   104b2:	04 00 
   104b4:	48 8d 05 ff 5b 00 00 	lea    0x5bff(%rip),%rax        # 160ba <g_79>
   104bb:	48 89 85 b8 fd ff ff 	mov    %rax,-0x248(%rbp)
   104c2:	c7 85 b0 fd ff ff 00 	movl   $0x0,-0x250(%rbp)
   104c9:	00 00 00 
   104cc:	48 8d 05 e9 5b 00 00 	lea    0x5be9(%rip),%rax        # 160bc <g_82>
   104d3:	48 89 85 c0 fd ff ff 	mov    %rax,-0x240(%rbp)
   104da:	48 8d 05 db 5b 00 00 	lea    0x5bdb(%rip),%rax        # 160bc <g_82>
   104e1:	48 89 85 c8 fd ff ff 	mov    %rax,-0x238(%rbp)
   104e8:	48 8d 05 cd 5b 00 00 	lea    0x5bcd(%rip),%rax        # 160bc <g_82>
   104ef:	48 89 85 d0 fd ff ff 	mov    %rax,-0x230(%rbp)
   104f6:	48 8d 05 bf 5b 00 00 	lea    0x5bbf(%rip),%rax        # 160bc <g_82>
   104fd:	48 89 85 d8 fd ff ff 	mov    %rax,-0x228(%rbp)
   10504:	48 8d 05 b1 5b 00 00 	lea    0x5bb1(%rip),%rax        # 160bc <g_82>
   1050b:	48 89 85 e0 fd ff ff 	mov    %rax,-0x220(%rbp)
   10512:	48 8d 85 d0 fe ff ff 	lea    -0x130(%rbp),%rax
   10519:	48 8d 15 80 21 00 00 	lea    0x2180(%rip),%rdx        # 126a0 <g_1362+0x4e8>
   10520:	b9 24 00 00 00       	mov    $0x24,%ecx
   10525:	48 89 c7             	mov    %rax,%rdi
   10528:	48 89 d6             	mov    %rdx,%rsi
   1052b:	f3 48 a5             	rep movsq %ds:(%rsi),%es:(%rdi)
   1052e:	c7 85 b4 fd ff ff 00 	movl   $0x0,-0x24c(%rbp)
   10535:	00 00 00 
   10538:	eb 55                	jmp    1058f <func_59+0x117>
   1053a:	c7 85 ac fd ff ff 00 	movl   $0x0,-0x254(%rbp)
   10541:	00 00 00 
   10544:	eb 39                	jmp    1057f <func_59+0x107>
   10546:	8b 85 ac fd ff ff    	mov    -0x254(%rbp),%eax
   1054c:	48 63 c8             	movslq %eax,%rcx
   1054f:	8b 85 b4 fd ff ff    	mov    -0x24c(%rbp),%eax
   10555:	48 63 d0             	movslq %eax,%rdx
   10558:	48 89 d0             	mov    %rdx,%rax
   1055b:	48 c1 e0 03          	shl    $0x3,%rax
   1055f:	48 01 d0             	add    %rdx,%rax
   10562:	48 01 c8             	add    %rcx,%rax
   10565:	48 8d 95 c0 fd ff ff 	lea    -0x240(%rbp),%rdx
   1056c:	48 83 c2 10          	add    $0x10,%rdx
   10570:	48 89 94 c5 f0 fd ff 	mov    %rdx,-0x210(%rbp,%rax,8)
   10577:	ff 
   10578:	83 85 ac fd ff ff 01 	addl   $0x1,-0x254(%rbp)
   1057f:	83 bd ac fd ff ff 08 	cmpl   $0x8,-0x254(%rbp)
   10586:	7e be                	jle    10546 <func_59+0xce>
   10588:	83 85 b4 fd ff ff 01 	addl   $0x1,-0x24c(%rbp)
   1058f:	83 bd b4 fd ff ff 02 	cmpl   $0x2,-0x24c(%rbp)
   10596:	7e a2                	jle    1053a <func_59+0xc2>
   10598:	66 c7 85 aa fd ff ff 	movw   $0x1,-0x256(%rbp)
   1059f:	01 00 
   105a1:	b8 01 00 00 00       	mov    $0x1,%eax
   105a6:	89 85 b0 fd ff ff    	mov    %eax,-0x250(%rbp)
   105ac:	c7 45 ec ff ff ff ff 	movl   $0xffffffff,-0x14(%rbp)
   105b3:	48 8d 85 d0 fe ff ff 	lea    -0x130(%rbp),%rax
   105ba:	48 05 1c 01 00 00    	add    $0x11c,%rax
   105c0:	48 89 85 98 fd ff ff 	mov    %rax,-0x268(%rbp)
   105c7:	48 c7 85 88 fd ff ff 	movq   $0x0,-0x278(%rbp)
   105ce:	00 00 00 00 
   105d2:	48 83 bd 88 fd ff ff 	cmpq   $0x29,-0x278(%rbp)
   105d9:	29 
   105da:	77 0d                	ja     105e9 <func_59+0x171>
   105dc:	0f b6 05 88 5a 00 00 	movzbl 0x5a88(%rip),%eax        # 1606b <g_52+0xb>
   105e3:	48 0f be c0          	movsbq %al,%rax
   105e7:	eb 0b                	jmp    105f4 <func_59+0x17c>
   105e9:	0f b7 05 ca 5a 00 00 	movzwl 0x5aca(%rip),%eax        # 160ba <g_79>
   105f0:	48 0f bf c0          	movswq %ax,%rax
   105f4:	48 8b 75 f8          	mov    -0x8(%rbp),%rsi
   105f8:	64 48 33 34 25 28 00 	xor    %fs:0x28,%rsi
   105ff:	00 00 
   10601:	74 05                	je     10608 <func_59+0x190>
   10603:	e8 68 7a ff ff       	callq  8070 <__stack_chk_fail@plt>
   10608:	c9                   	leaveq 
   10609:	c3                   	retq   

000000000001060a <main>:
   1060a:	f3 0f 1e fa          	endbr64 
   1060e:	55                   	push   %rbp
   1060f:	48 89 e5             	mov    %rsp,%rbp
   10612:	48 83 ec 20          	sub    $0x20,%rsp
   10616:	89 7d ec             	mov    %edi,-0x14(%rbp)
   10619:	48 89 75 e0          	mov    %rsi,-0x20(%rbp)
   1061d:	c7 45 fc 00 00 00 00 	movl   $0x0,-0x4(%rbp)
   10624:	83 7d ec 02          	cmpl   $0x2,-0x14(%rbp)
   10628:	75 25                	jne    1064f <main+0x45>
   1062a:	48 8b 45 e0          	mov    -0x20(%rbp),%rax
   1062e:	48 83 c0 08          	add    $0x8,%rax
   10632:	48 8b 00             	mov    (%rax),%rax
   10635:	48 8d 35 84 21 00 00 	lea    0x2184(%rip),%rsi        # 127c0 <g_1362+0x608>
   1063c:	48 89 c7             	mov    %rax,%rdi
   1063f:	e8 4c 7a ff ff       	callq  8090 <strcmp@plt>
   10644:	85 c0                	test   %eax,%eax
   10646:	75 07                	jne    1064f <main+0x45>
   10648:	c7 45 fc 01 00 00 00 	movl   $0x1,-0x4(%rbp)
   1064f:	e8 35 7b ff ff       	callq  8189 <platform_main_begin>
   10654:	e8 3f 8f ff ff       	callq  9598 <crc32_gentab>
   10659:	e8 57 91 ff ff       	callq  97b5 <func_1>
   1065e:	8b 05 c0 59 00 00    	mov    0x59c0(%rip),%eax        # 16024 <g_3>
   10664:	48 98                	cltq   
   10666:	8b 55 fc             	mov    -0x4(%rbp),%edx
   10669:	48 8d 35 52 21 00 00 	lea    0x2152(%rip),%rsi        # 127c2 <g_1362+0x60a>
   10670:	48 89 c7             	mov    %rax,%rdi
   10673:	e8 7b 90 ff ff       	callq  96f3 <transparent_crc>
   10678:	8b 05 aa 59 00 00    	mov    0x59aa(%rip),%eax        # 16028 <g_8>
   1067e:	48 98                	cltq   
   10680:	8b 55 fc             	mov    -0x4(%rbp),%edx
   10683:	48 8d 35 3c 21 00 00 	lea    0x213c(%rip),%rsi        # 127c6 <g_1362+0x60e>
   1068a:	48 89 c7             	mov    %rax,%rdi
   1068d:	e8 61 90 ff ff       	callq  96f3 <transparent_crc>
   10692:	c7 45 f0 00 00 00 00 	movl   $0x0,-0x10(%rbp)
   10699:	eb 49                	jmp    106e4 <main+0xda>
   1069b:	8b 45 f0             	mov    -0x10(%rbp),%eax
   1069e:	48 98                	cltq   
   106a0:	48 8d 14 00          	lea    (%rax,%rax,1),%rdx
   106a4:	48 8d 05 85 59 00 00 	lea    0x5985(%rip),%rax        # 16030 <g_9>
   106ab:	0f b7 04 02          	movzwl (%rdx,%rax,1),%eax
   106af:	0f b7 c0             	movzwl %ax,%eax
   106b2:	8b 55 fc             	mov    -0x4(%rbp),%edx
   106b5:	48 8d 35 0e 21 00 00 	lea    0x210e(%rip),%rsi        # 127ca <g_1362+0x612>
   106bc:	48 89 c7             	mov    %rax,%rdi
   106bf:	e8 2f 90 ff ff       	callq  96f3 <transparent_crc>
   106c4:	83 7d fc 00          	cmpl   $0x0,-0x4(%rbp)
   106c8:	74 16                	je     106e0 <main+0xd6>
   106ca:	8b 45 f0             	mov    -0x10(%rbp),%eax
   106cd:	89 c6                	mov    %eax,%esi
   106cf:	48 8d 3d fb 20 00 00 	lea    0x20fb(%rip),%rdi        # 127d1 <g_1362+0x619>
   106d6:	b8 00 00 00 00       	mov    $0x0,%eax
   106db:	e8 a0 79 ff ff       	callq  8080 <printf@plt>
   106e0:	83 45 f0 01          	addl   $0x1,-0x10(%rbp)
   106e4:	83 7d f0 08          	cmpl   $0x8,-0x10(%rbp)
   106e8:	7e b1                	jle    1069b <main+0x91>
   106ea:	8b 05 58 90 00 00    	mov    0x9058(%rip),%eax        # 19748 <g_12>
   106f0:	48 98                	cltq   
   106f2:	8b 55 fc             	mov    -0x4(%rbp),%edx
   106f5:	48 8d 35 e3 20 00 00 	lea    0x20e3(%rip),%rsi        # 127df <g_1362+0x627>
   106fc:	48 89 c7             	mov    %rax,%rdi
   106ff:	e8 ef 8f ff ff       	callq  96f3 <transparent_crc>
   10704:	8b 05 3a 59 00 00    	mov    0x593a(%rip),%eax        # 16044 <g_13>
   1070a:	48 98                	cltq   
   1070c:	8b 55 fc             	mov    -0x4(%rbp),%edx
   1070f:	48 8d 35 ce 20 00 00 	lea    0x20ce(%rip),%rsi        # 127e4 <g_1362+0x62c>
   10716:	48 89 c7             	mov    %rax,%rdi
   10719:	e8 d5 8f ff ff       	callq  96f3 <transparent_crc>
   1071e:	c7 45 f0 00 00 00 00 	movl   $0x0,-0x10(%rbp)
   10725:	e9 af 00 00 00       	jmpq   107d9 <main+0x1cf>
   1072a:	c7 45 f4 00 00 00 00 	movl   $0x0,-0xc(%rbp)
   10731:	e9 95 00 00 00       	jmpq   107cb <main+0x1c1>
   10736:	c7 45 f8 00 00 00 00 	movl   $0x0,-0x8(%rbp)
   1073d:	eb 7e                	jmp    107bd <main+0x1b3>
   1073f:	8b 45 f8             	mov    -0x8(%rbp),%eax
   10742:	48 63 f0             	movslq %eax,%rsi
   10745:	8b 45 f0             	mov    -0x10(%rbp),%eax
   10748:	48 98                	cltq   
   1074a:	8b 55 f4             	mov    -0xc(%rbp),%edx
   1074d:	48 63 ca             	movslq %edx,%rcx
   10750:	48 89 c2             	mov    %rax,%rdx
   10753:	48 c1 e2 04          	shl    $0x4,%rdx
   10757:	48 29 c2             	sub    %rax,%rdx
   1075a:	48 8d 04 12          	lea    (%rdx,%rdx,1),%rax
   1075e:	48 89 c2             	mov    %rax,%rdx
   10761:	48 89 c8             	mov    %rcx,%rax
   10764:	48 01 c0             	add    %rax,%rax
   10767:	48 01 c8             	add    %rcx,%rax
   1076a:	48 01 c0             	add    %rax,%rax
   1076d:	48 01 d0             	add    %rdx,%rax
   10770:	48 8d 14 30          	lea    (%rax,%rsi,1),%rdx
   10774:	48 8d 05 e5 58 00 00 	lea    0x58e5(%rip),%rax        # 16060 <g_52>
   1077b:	48 01 d0             	add    %rdx,%rax
   1077e:	0f b6 00             	movzbl (%rax),%eax
   10781:	48 0f be c0          	movsbq %al,%rax
   10785:	8b 55 fc             	mov    -0x4(%rbp),%edx
   10788:	48 8d 35 5a 20 00 00 	lea    0x205a(%rip),%rsi        # 127e9 <g_1362+0x631>
   1078f:	48 89 c7             	mov    %rax,%rdi
   10792:	e8 5c 8f ff ff       	callq  96f3 <transparent_crc>
   10797:	83 7d fc 00          	cmpl   $0x0,-0x4(%rbp)
   1079b:	74 1c                	je     107b9 <main+0x1af>
   1079d:	8b 4d f8             	mov    -0x8(%rbp),%ecx
   107a0:	8b 55 f4             	mov    -0xc(%rbp),%edx
   107a3:	8b 45 f0             	mov    -0x10(%rbp),%eax
   107a6:	89 c6                	mov    %eax,%esi
   107a8:	48 8d 3d 48 20 00 00 	lea    0x2048(%rip),%rdi        # 127f7 <g_1362+0x63f>
   107af:	b8 00 00 00 00       	mov    $0x0,%eax
   107b4:	e8 c7 78 ff ff       	callq  8080 <printf@plt>
   107b9:	83 45 f8 01          	addl   $0x1,-0x8(%rbp)
   107bd:	83 7d f8 05          	cmpl   $0x5,-0x8(%rbp)
   107c1:	0f 8e 78 ff ff ff    	jle    1073f <main+0x135>
   107c7:	83 45 f4 01          	addl   $0x1,-0xc(%rbp)
   107cb:	83 7d f4 04          	cmpl   $0x4,-0xc(%rbp)
   107cf:	0f 8e 61 ff ff ff    	jle    10736 <main+0x12c>
   107d5:	83 45 f0 01          	addl   $0x1,-0x10(%rbp)
   107d9:	83 7d f0 02          	cmpl   $0x2,-0x10(%rbp)
   107dd:	0f 8e 47 ff ff ff    	jle    1072a <main+0x120>
   107e3:	0f b7 05 d0 58 00 00 	movzwl 0x58d0(%rip),%eax        # 160ba <g_79>
   107ea:	48 0f bf c0          	movswq %ax,%rax
   107ee:	8b 55 fc             	mov    -0x4(%rbp),%edx
   107f1:	48 8d 35 15 20 00 00 	lea    0x2015(%rip),%rsi        # 1280d <g_1362+0x655>
   107f8:	48 89 c7             	mov    %rax,%rdi
   107fb:	e8 f3 8e ff ff       	callq  96f3 <transparent_crc>
   10800:	8b 05 b6 58 00 00    	mov    0x58b6(%rip),%eax        # 160bc <g_82>
   10806:	48 98                	cltq   
   10808:	8b 55 fc             	mov    -0x4(%rbp),%edx
   1080b:	48 8d 35 00 20 00 00 	lea    0x2000(%rip),%rsi        # 12812 <g_1362+0x65a>
   10812:	48 89 c7             	mov    %rax,%rdi
   10815:	e8 d9 8e ff ff       	callq  96f3 <transparent_crc>
   1081a:	0f b6 05 9f 58 00 00 	movzbl 0x589f(%rip),%eax        # 160c0 <g_88>
   10821:	0f b6 c0             	movzbl %al,%eax
   10824:	8b 55 fc             	mov    -0x4(%rbp),%edx
   10827:	48 8d 35 e9 1f 00 00 	lea    0x1fe9(%rip),%rsi        # 12817 <g_1362+0x65f>
   1082e:	48 89 c7             	mov    %rax,%rdi
   10831:	e8 bd 8e ff ff       	callq  96f3 <transparent_crc>
   10836:	0f b7 05 85 58 00 00 	movzwl 0x5885(%rip),%eax        # 160c2 <g_111>
   1083d:	48 0f bf c0          	movswq %ax,%rax
   10841:	8b 55 fc             	mov    -0x4(%rbp),%edx
   10844:	48 8d 35 d1 1f 00 00 	lea    0x1fd1(%rip),%rsi        # 1281c <g_1362+0x664>
   1084b:	48 89 c7             	mov    %rax,%rdi
   1084e:	e8 a0 8e ff ff       	callq  96f3 <transparent_crc>
   10853:	8b 05 6b 58 00 00    	mov    0x586b(%rip),%eax        # 160c4 <g_119>
   10859:	89 c1                	mov    %eax,%ecx
   1085b:	8b 45 fc             	mov    -0x4(%rbp),%eax
   1085e:	89 c2                	mov    %eax,%edx
   10860:	48 8d 35 be 1f 00 00 	lea    0x1fbe(%rip),%rsi        # 12825 <g_1362+0x66d>
   10867:	48 89 cf             	mov    %rcx,%rdi
   1086a:	e8 84 8e ff ff       	callq  96f3 <transparent_crc>
   1086f:	0f b6 05 52 58 00 00 	movzbl 0x5852(%rip),%eax        # 160c8 <g_126>
   10876:	48 0f be c0          	movsbq %al,%rax
   1087a:	8b 55 fc             	mov    -0x4(%rbp),%edx
   1087d:	48 8d 35 a7 1f 00 00 	lea    0x1fa7(%rip),%rsi        # 1282b <g_1362+0x673>
   10884:	48 89 c7             	mov    %rax,%rdi
   10887:	e8 67 8e ff ff       	callq  96f3 <transparent_crc>
   1088c:	0f b6 05 39 58 00 00 	movzbl 0x5839(%rip),%eax        # 160cc <g_129>
   10893:	48 0f be c0          	movsbq %al,%rax
   10897:	8b 55 fc             	mov    -0x4(%rbp),%edx
   1089a:	48 8d 35 93 1f 00 00 	lea    0x1f93(%rip),%rsi        # 12834 <g_1362+0x67c>
   108a1:	48 89 c7             	mov    %rax,%rdi
   108a4:	e8 4a 8e ff ff       	callq  96f3 <transparent_crc>
   108a9:	48 8b 05 20 58 00 00 	mov    0x5820(%rip),%rax        # 160d0 <g_157>
   108b0:	48 89 c1             	mov    %rax,%rcx
   108b3:	8b 45 fc             	mov    -0x4(%rbp),%eax
   108b6:	89 c2                	mov    %eax,%edx
   108b8:	48 8d 35 7e 1f 00 00 	lea    0x1f7e(%rip),%rsi        # 1283d <g_1362+0x685>
   108bf:	48 89 cf             	mov    %rcx,%rdi
   108c2:	e8 2c 8e ff ff       	callq  96f3 <transparent_crc>
   108c7:	0f b6 05 0a 58 00 00 	movzbl 0x580a(%rip),%eax        # 160d8 <g_168>
   108ce:	0f b6 c0             	movzbl %al,%eax
   108d1:	8b 55 fc             	mov    -0x4(%rbp),%edx
   108d4:	48 8d 35 68 1f 00 00 	lea    0x1f68(%rip),%rsi        # 12843 <g_1362+0x68b>
   108db:	48 89 c7             	mov    %rax,%rdi
   108de:	e8 10 8e ff ff       	callq  96f3 <transparent_crc>
   108e3:	48 8b 05 f6 57 00 00 	mov    0x57f6(%rip),%rax        # 160e0 <g_170>
   108ea:	8b 55 fc             	mov    -0x4(%rbp),%edx
   108ed:	48 8d 35 55 1f 00 00 	lea    0x1f55(%rip),%rsi        # 12849 <g_1362+0x691>
   108f4:	48 89 c7             	mov    %rax,%rdi
   108f7:	e8 f7 8d ff ff       	callq  96f3 <transparent_crc>
   108fc:	c7 45 f0 00 00 00 00 	movl   $0x0,-0x10(%rbp)
   10903:	eb 46                	jmp    1094b <main+0x341>
   10905:	8b 45 f0             	mov    -0x10(%rbp),%eax
   10908:	48 98                	cltq   
   1090a:	48 8d 15 d7 57 00 00 	lea    0x57d7(%rip),%rdx        # 160e8 <g_173>
   10911:	0f b6 04 10          	movzbl (%rax,%rdx,1),%eax
   10915:	48 0f be c0          	movsbq %al,%rax
   10919:	8b 55 fc             	mov    -0x4(%rbp),%edx
   1091c:	48 8d 35 2c 1f 00 00 	lea    0x1f2c(%rip),%rsi        # 1284f <g_1362+0x697>
   10923:	48 89 c7             	mov    %rax,%rdi
   10926:	e8 c8 8d ff ff       	callq  96f3 <transparent_crc>
   1092b:	83 7d fc 00          	cmpl   $0x0,-0x4(%rbp)
   1092f:	74 16                	je     10947 <main+0x33d>
   10931:	8b 45 f0             	mov    -0x10(%rbp),%eax
   10934:	89 c6                	mov    %eax,%esi
   10936:	48 8d 3d 94 1e 00 00 	lea    0x1e94(%rip),%rdi        # 127d1 <g_1362+0x619>
   1093d:	b8 00 00 00 00       	mov    $0x0,%eax
   10942:	e8 39 77 ff ff       	callq  8080 <printf@plt>
   10947:	83 45 f0 01          	addl   $0x1,-0x10(%rbp)
   1094b:	83 7d f0 00          	cmpl   $0x0,-0x10(%rbp)
   1094f:	7e b4                	jle    10905 <main+0x2fb>
   10951:	48 8b 05 98 57 00 00 	mov    0x5798(%rip),%rax        # 160f0 <g_261>
   10958:	25 ff ff 0f 00       	and    $0xfffff,%eax
   1095d:	89 c1                	mov    %eax,%ecx
   1095f:	8b 45 fc             	mov    -0x4(%rbp),%eax
   10962:	89 c2                	mov    %eax,%edx
   10964:	48 8d 35 ed 1e 00 00 	lea    0x1eed(%rip),%rsi        # 12858 <g_1362+0x6a0>
   1096b:	48 89 cf             	mov    %rcx,%rdi
   1096e:	e8 80 8d ff ff       	callq  96f3 <transparent_crc>
   10973:	8b 05 7f 57 00 00    	mov    0x577f(%rip),%eax        # 160f8 <g_313>
   10979:	48 98                	cltq   
   1097b:	8b 55 fc             	mov    -0x4(%rbp),%edx
   1097e:	48 8d 35 dc 1e 00 00 	lea    0x1edc(%rip),%rsi        # 12861 <g_1362+0x6a9>
   10985:	48 89 c7             	mov    %rax,%rdi
   10988:	e8 66 8d ff ff       	callq  96f3 <transparent_crc>
   1098d:	c7 45 f0 00 00 00 00 	movl   $0x0,-0x10(%rbp)
   10994:	e9 80 00 00 00       	jmpq   10a19 <main+0x40f>
   10999:	c7 45 f4 00 00 00 00 	movl   $0x0,-0xc(%rbp)
   109a0:	eb 6d                	jmp    10a0f <main+0x405>
   109a2:	8b 45 f4             	mov    -0xc(%rbp),%eax
   109a5:	48 63 c8             	movslq %eax,%rcx
   109a8:	8b 45 f0             	mov    -0x10(%rbp),%eax
   109ab:	48 63 d0             	movslq %eax,%rdx
   109ae:	48 89 d0             	mov    %rdx,%rax
   109b1:	48 c1 e0 02          	shl    $0x2,%rax
   109b5:	48 01 d0             	add    %rdx,%rax
   109b8:	48 01 c0             	add    %rax,%rax
   109bb:	48 01 c8             	add    %rcx,%rax
   109be:	48 8d 14 c5 00 00 00 	lea    0x0(,%rax,8),%rdx
   109c5:	00 
   109c6:	48 8d 05 33 57 00 00 	lea    0x5733(%rip),%rax        # 16100 <g_324>
   109cd:	48 8b 04 02          	mov    (%rdx,%rax,1),%rax
   109d1:	25 ff ff 3f 00       	and    $0x3fffff,%eax
   109d6:	89 c1                	mov    %eax,%ecx
   109d8:	8b 45 fc             	mov    -0x4(%rbp),%eax
   109db:	89 c2                	mov    %eax,%edx
   109dd:	48 8d 35 86 1e 00 00 	lea    0x1e86(%rip),%rsi        # 1286a <g_1362+0x6b2>
   109e4:	48 89 cf             	mov    %rcx,%rdi
   109e7:	e8 07 8d ff ff       	callq  96f3 <transparent_crc>
   109ec:	83 7d fc 00          	cmpl   $0x0,-0x4(%rbp)
   109f0:	74 19                	je     10a0b <main+0x401>
   109f2:	8b 55 f4             	mov    -0xc(%rbp),%edx
   109f5:	8b 45 f0             	mov    -0x10(%rbp),%eax
   109f8:	89 c6                	mov    %eax,%esi
   109fa:	48 8d 3d 78 1e 00 00 	lea    0x1e78(%rip),%rdi        # 12879 <g_1362+0x6c1>
   10a01:	b8 00 00 00 00       	mov    $0x0,%eax
   10a06:	e8 75 76 ff ff       	callq  8080 <printf@plt>
   10a0b:	83 45 f4 01          	addl   $0x1,-0xc(%rbp)
   10a0f:	83 7d f4 09          	cmpl   $0x9,-0xc(%rbp)
   10a13:	7e 8d                	jle    109a2 <main+0x398>
   10a15:	83 45 f0 01          	addl   $0x1,-0x10(%rbp)
   10a19:	83 7d f0 01          	cmpl   $0x1,-0x10(%rbp)
   10a1d:	0f 8e 76 ff ff ff    	jle    10999 <main+0x38f>
   10a23:	48 8b 05 76 57 00 00 	mov    0x5776(%rip),%rax        # 161a0 <g_325>
   10a2a:	25 ff ff 0f 00       	and    $0xfffff,%eax
   10a2f:	89 c1                	mov    %eax,%ecx
   10a31:	8b 45 fc             	mov    -0x4(%rbp),%eax
   10a34:	89 c2                	mov    %eax,%edx
   10a36:	48 8d 35 4e 1e 00 00 	lea    0x1e4e(%rip),%rsi        # 1288b <g_1362+0x6d3>
   10a3d:	48 89 cf             	mov    %rcx,%rdi
   10a40:	e8 ae 8c ff ff       	callq  96f3 <transparent_crc>
   10a45:	48 8b 05 5c 57 00 00 	mov    0x575c(%rip),%rax        # 161a8 <g_327>
   10a4c:	25 ff ff 0f 00       	and    $0xfffff,%eax
   10a51:	89 c1                	mov    %eax,%ecx
   10a53:	8b 45 fc             	mov    -0x4(%rbp),%eax
   10a56:	89 c2                	mov    %eax,%edx
   10a58:	48 8d 35 35 1e 00 00 	lea    0x1e35(%rip),%rsi        # 12894 <g_1362+0x6dc>
   10a5f:	48 89 cf             	mov    %rcx,%rdi
   10a62:	e8 8c 8c ff ff       	callq  96f3 <transparent_crc>
   10a67:	0f b6 05 42 57 00 00 	movzbl 0x5742(%rip),%eax        # 161b0 <g_338>
   10a6e:	0f b6 c0             	movzbl %al,%eax
   10a71:	8b 55 fc             	mov    -0x4(%rbp),%edx
   10a74:	48 8d 35 22 1e 00 00 	lea    0x1e22(%rip),%rsi        # 1289d <g_1362+0x6e5>
   10a7b:	48 89 c7             	mov    %rax,%rdi
   10a7e:	e8 70 8c ff ff       	callq  96f3 <transparent_crc>
   10a83:	0f b7 05 28 57 00 00 	movzwl 0x5728(%rip),%eax        # 161b2 <g_371>
   10a8a:	48 0f bf c0          	movswq %ax,%rax
   10a8e:	8b 55 fc             	mov    -0x4(%rbp),%edx
   10a91:	48 8d 35 0b 1e 00 00 	lea    0x1e0b(%rip),%rsi        # 128a3 <g_1362+0x6eb>
   10a98:	48 89 c7             	mov    %rax,%rdi
   10a9b:	e8 53 8c ff ff       	callq  96f3 <transparent_crc>
   10aa0:	0f b7 05 0d 57 00 00 	movzwl 0x570d(%rip),%eax        # 161b4 <g_374>
   10aa7:	48 0f bf c0          	movswq %ax,%rax
   10aab:	8b 55 fc             	mov    -0x4(%rbp),%edx
   10aae:	48 8d 35 f7 1d 00 00 	lea    0x1df7(%rip),%rsi        # 128ac <g_1362+0x6f4>
   10ab5:	48 89 c7             	mov    %rax,%rdi
   10ab8:	e8 36 8c ff ff       	callq  96f3 <transparent_crc>
   10abd:	0f b6 05 f4 56 00 00 	movzbl 0x56f4(%rip),%eax        # 161b8 <g_388>
   10ac4:	48 0f be c0          	movsbq %al,%rax
   10ac8:	8b 55 fc             	mov    -0x4(%rbp),%edx
   10acb:	48 8d 35 e0 1d 00 00 	lea    0x1de0(%rip),%rsi        # 128b2 <g_1362+0x6fa>
   10ad2:	48 89 c7             	mov    %rax,%rdi
   10ad5:	e8 19 8c ff ff       	callq  96f3 <transparent_crc>
   10ada:	8b 05 dc 56 00 00    	mov    0x56dc(%rip),%eax        # 161bc <g_417>
   10ae0:	48 98                	cltq   
   10ae2:	8b 55 fc             	mov    -0x4(%rbp),%edx
   10ae5:	48 8d 35 cf 1d 00 00 	lea    0x1dcf(%rip),%rsi        # 128bb <g_1362+0x703>
   10aec:	48 89 c7             	mov    %rax,%rdi
   10aef:	e8 ff 8b ff ff       	callq  96f3 <transparent_crc>
   10af4:	c7 45 f0 00 00 00 00 	movl   $0x0,-0x10(%rbp)
   10afb:	e9 ae 00 00 00       	jmpq   10bae <main+0x5a4>
   10b00:	c7 45 f4 00 00 00 00 	movl   $0x0,-0xc(%rbp)
   10b07:	e9 94 00 00 00       	jmpq   10ba0 <main+0x596>
   10b0c:	c7 45 f8 00 00 00 00 	movl   $0x0,-0x8(%rbp)
   10b13:	eb 7d                	jmp    10b92 <main+0x588>
   10b15:	8b 45 f8             	mov    -0x8(%rbp),%eax
   10b18:	48 63 f0             	movslq %eax,%rsi
   10b1b:	8b 45 f0             	mov    -0x10(%rbp),%eax
   10b1e:	48 63 d0             	movslq %eax,%rdx
   10b21:	8b 45 f4             	mov    -0xc(%rbp),%eax
   10b24:	48 63 c8             	movslq %eax,%rcx
   10b27:	48 89 d0             	mov    %rdx,%rax
   10b2a:	48 01 c0             	add    %rax,%rax
   10b2d:	48 01 d0             	add    %rdx,%rax
   10b30:	48 c1 e0 03          	shl    $0x3,%rax
   10b34:	48 89 ca             	mov    %rcx,%rdx
   10b37:	48 01 d2             	add    %rdx,%rdx
   10b3a:	48 01 ca             	add    %rcx,%rdx
   10b3d:	48 01 d0             	add    %rdx,%rax
   10b40:	48 01 f0             	add    %rsi,%rax
   10b43:	48 8d 14 85 00 00 00 	lea    0x0(,%rax,4),%rdx
   10b4a:	00 
   10b4b:	48 8d 05 6e 56 00 00 	lea    0x566e(%rip),%rax        # 161c0 <g_468>
   10b52:	0f b6 04 02          	movzbl (%rdx,%rax,1),%eax
   10b56:	48 0f be c0          	movsbq %al,%rax
   10b5a:	8b 55 fc             	mov    -0x4(%rbp),%edx
   10b5d:	48 8d 35 5d 1d 00 00 	lea    0x1d5d(%rip),%rsi        # 128c1 <g_1362+0x709>
   10b64:	48 89 c7             	mov    %rax,%rdi
   10b67:	e8 87 8b ff ff       	callq  96f3 <transparent_crc>
   10b6c:	83 7d fc 00          	cmpl   $0x0,-0x4(%rbp)
   10b70:	74 1c                	je     10b8e <main+0x584>
   10b72:	8b 4d f8             	mov    -0x8(%rbp),%ecx
   10b75:	8b 55 f4             	mov    -0xc(%rbp),%edx
   10b78:	8b 45 f0             	mov    -0x10(%rbp),%eax
   10b7b:	89 c6                	mov    %eax,%esi
   10b7d:	48 8d 3d 73 1c 00 00 	lea    0x1c73(%rip),%rdi        # 127f7 <g_1362+0x63f>
   10b84:	b8 00 00 00 00       	mov    $0x0,%eax
   10b89:	e8 f2 74 ff ff       	callq  8080 <printf@plt>
   10b8e:	83 45 f8 01          	addl   $0x1,-0x8(%rbp)
   10b92:	83 7d f8 02          	cmpl   $0x2,-0x8(%rbp)
   10b96:	0f 8e 79 ff ff ff    	jle    10b15 <main+0x50b>
   10b9c:	83 45 f4 01          	addl   $0x1,-0xc(%rbp)
   10ba0:	83 7d f4 07          	cmpl   $0x7,-0xc(%rbp)
   10ba4:	0f 8e 62 ff ff ff    	jle    10b0c <main+0x502>
   10baa:	83 45 f0 01          	addl   $0x1,-0x10(%rbp)
   10bae:	83 7d f0 01          	cmpl   $0x1,-0x10(%rbp)
   10bb2:	0f 8e 48 ff ff ff    	jle    10b00 <main+0x4f6>
   10bb8:	c7 45 f0 00 00 00 00 	movl   $0x0,-0x10(%rbp)
   10bbf:	e9 a2 00 00 00       	jmpq   10c66 <main+0x65c>
   10bc4:	c7 45 f4 00 00 00 00 	movl   $0x0,-0xc(%rbp)
   10bcb:	e9 88 00 00 00       	jmpq   10c58 <main+0x64e>
   10bd0:	c7 45 f8 00 00 00 00 	movl   $0x0,-0x8(%rbp)
   10bd7:	eb 75                	jmp    10c4e <main+0x644>
   10bd9:	8b 45 f8             	mov    -0x8(%rbp),%eax
   10bdc:	48 63 c8             	movslq %eax,%rcx
   10bdf:	8b 45 f0             	mov    -0x10(%rbp),%eax
   10be2:	48 63 d0             	movslq %eax,%rdx
   10be5:	8b 45 f4             	mov    -0xc(%rbp),%eax
   10be8:	48 63 f0             	movslq %eax,%rsi
   10beb:	48 89 d0             	mov    %rdx,%rax
   10bee:	48 01 c0             	add    %rax,%rax
   10bf1:	48 01 d0             	add    %rdx,%rax
   10bf4:	48 01 c0             	add    %rax,%rax
   10bf7:	48 01 f0             	add    %rsi,%rax
   10bfa:	48 01 c0             	add    %rax,%rax
   10bfd:	48 01 c8             	add    %rcx,%rax
   10c00:	48 8d 14 85 00 00 00 	lea    0x0(,%rax,4),%rdx
   10c07:	00 
   10c08:	48 8d 05 51 14 00 00 	lea    0x1451(%rip),%rax        # 12060 <g_471>
   10c0f:	8b 04 02             	mov    (%rdx,%rax,1),%eax
   10c12:	89 c1                	mov    %eax,%ecx
   10c14:	8b 45 fc             	mov    -0x4(%rbp),%eax
   10c17:	89 c2                	mov    %eax,%edx
   10c19:	48 8d 35 b3 1c 00 00 	lea    0x1cb3(%rip),%rsi        # 128d3 <g_1362+0x71b>
   10c20:	48 89 cf             	mov    %rcx,%rdi
   10c23:	e8 cb 8a ff ff       	callq  96f3 <transparent_crc>
   10c28:	83 7d fc 00          	cmpl   $0x0,-0x4(%rbp)
   10c2c:	74 1c                	je     10c4a <main+0x640>
   10c2e:	8b 4d f8             	mov    -0x8(%rbp),%ecx
   10c31:	8b 55 f4             	mov    -0xc(%rbp),%edx
   10c34:	8b 45 f0             	mov    -0x10(%rbp),%eax
   10c37:	89 c6                	mov    %eax,%esi
   10c39:	48 8d 3d b7 1b 00 00 	lea    0x1bb7(%rip),%rdi        # 127f7 <g_1362+0x63f>
   10c40:	b8 00 00 00 00       	mov    $0x0,%eax
   10c45:	e8 36 74 ff ff       	callq  8080 <printf@plt>
   10c4a:	83 45 f8 01          	addl   $0x1,-0x8(%rbp)
   10c4e:	83 7d f8 01          	cmpl   $0x1,-0x8(%rbp)
   10c52:	7e 85                	jle    10bd9 <main+0x5cf>
   10c54:	83 45 f4 01          	addl   $0x1,-0xc(%rbp)
   10c58:	83 7d f4 05          	cmpl   $0x5,-0xc(%rbp)
   10c5c:	0f 8e 6e ff ff ff    	jle    10bd0 <main+0x5c6>
   10c62:	83 45 f0 01          	addl   $0x1,-0x10(%rbp)
   10c66:	83 7d f0 06          	cmpl   $0x6,-0x10(%rbp)
   10c6a:	0f 8e 54 ff ff ff    	jle    10bc4 <main+0x5ba>
   10c70:	48 8b 05 09 56 00 00 	mov    0x5609(%rip),%rax        # 16280 <g_507>
   10c77:	25 ff ff 3f 00       	and    $0x3fffff,%eax
   10c7c:	89 c1                	mov    %eax,%ecx
   10c7e:	8b 45 fc             	mov    -0x4(%rbp),%eax
   10c81:	89 c2                	mov    %eax,%edx
   10c83:	48 8d 35 58 1c 00 00 	lea    0x1c58(%rip),%rsi        # 128e2 <g_1362+0x72a>
   10c8a:	48 89 cf             	mov    %rcx,%rdi
   10c8d:	e8 61 8a ff ff       	callq  96f3 <transparent_crc>
   10c92:	c7 45 f0 00 00 00 00 	movl   $0x0,-0x10(%rbp)
   10c99:	eb 4e                	jmp    10ce9 <main+0x6df>
   10c9b:	8b 45 f0             	mov    -0x10(%rbp),%eax
   10c9e:	48 98                	cltq   
   10ca0:	48 8d 14 85 00 00 00 	lea    0x0(,%rax,4),%rdx
   10ca7:	00 
   10ca8:	48 8d 05 d9 55 00 00 	lea    0x55d9(%rip),%rax        # 16288 <g_539>
   10caf:	0f b6 04 02          	movzbl (%rdx,%rax,1),%eax
   10cb3:	48 0f be c0          	movsbq %al,%rax
   10cb7:	8b 55 fc             	mov    -0x4(%rbp),%edx
   10cba:	48 8d 35 2a 1c 00 00 	lea    0x1c2a(%rip),%rsi        # 128eb <g_1362+0x733>
   10cc1:	48 89 c7             	mov    %rax,%rdi
   10cc4:	e8 2a 8a ff ff       	callq  96f3 <transparent_crc>
   10cc9:	83 7d fc 00          	cmpl   $0x0,-0x4(%rbp)
   10ccd:	74 16                	je     10ce5 <main+0x6db>
   10ccf:	8b 45 f0             	mov    -0x10(%rbp),%eax
   10cd2:	89 c6                	mov    %eax,%esi
   10cd4:	48 8d 3d f6 1a 00 00 	lea    0x1af6(%rip),%rdi        # 127d1 <g_1362+0x619>
   10cdb:	b8 00 00 00 00       	mov    $0x0,%eax
   10ce0:	e8 9b 73 ff ff       	callq  8080 <printf@plt>
   10ce5:	83 45 f0 01          	addl   $0x1,-0x10(%rbp)
   10ce9:	83 7d f0 01          	cmpl   $0x1,-0x10(%rbp)
   10ced:	7e ac                	jle    10c9b <main+0x691>
   10cef:	48 8b 05 9a 55 00 00 	mov    0x559a(%rip),%rax        # 16290 <g_590>
   10cf6:	25 ff ff 3f 00       	and    $0x3fffff,%eax
   10cfb:	89 c1                	mov    %eax,%ecx
   10cfd:	8b 45 fc             	mov    -0x4(%rbp),%eax
   10d00:	89 c2                	mov    %eax,%edx
   10d02:	48 8d 35 ee 1b 00 00 	lea    0x1bee(%rip),%rsi        # 128f7 <g_1362+0x73f>
   10d09:	48 89 cf             	mov    %rcx,%rdi
   10d0c:	e8 e2 89 ff ff       	callq  96f3 <transparent_crc>
   10d11:	0f b7 05 80 55 00 00 	movzwl 0x5580(%rip),%eax        # 16298 <g_599>
   10d18:	48 0f bf c0          	movswq %ax,%rax
   10d1c:	8b 55 fc             	mov    -0x4(%rbp),%edx
   10d1f:	48 8d 35 da 1b 00 00 	lea    0x1bda(%rip),%rsi        # 12900 <g_1362+0x748>
   10d26:	48 89 c7             	mov    %rax,%rdi
   10d29:	e8 c5 89 ff ff       	callq  96f3 <transparent_crc>
   10d2e:	8b 05 68 55 00 00    	mov    0x5568(%rip),%eax        # 1629c <g_654>
   10d34:	48 98                	cltq   
   10d36:	8b 55 fc             	mov    -0x4(%rbp),%edx
   10d39:	48 8d 35 c9 1b 00 00 	lea    0x1bc9(%rip),%rsi        # 12909 <g_1362+0x751>
   10d40:	48 89 c7             	mov    %rax,%rdi
   10d43:	e8 ab 89 ff ff       	callq  96f3 <transparent_crc>
   10d48:	48 8b 05 51 55 00 00 	mov    0x5551(%rip),%rax        # 162a0 <g_704>
   10d4f:	25 ff ff 0f 00       	and    $0xfffff,%eax
   10d54:	89 c1                	mov    %eax,%ecx
   10d56:	8b 45 fc             	mov    -0x4(%rbp),%eax
   10d59:	89 c2                	mov    %eax,%edx
   10d5b:	48 8d 35 b0 1b 00 00 	lea    0x1bb0(%rip),%rsi        # 12912 <g_1362+0x75a>
   10d62:	48 89 cf             	mov    %rcx,%rdi
   10d65:	e8 89 89 ff ff       	callq  96f3 <transparent_crc>
   10d6a:	48 8b 05 37 55 00 00 	mov    0x5537(%rip),%rax        # 162a8 <g_726>
   10d71:	25 ff ff 0f 00       	and    $0xfffff,%eax
   10d76:	89 c1                	mov    %eax,%ecx
   10d78:	8b 45 fc             	mov    -0x4(%rbp),%eax
   10d7b:	89 c2                	mov    %eax,%edx
   10d7d:	48 8d 35 97 1b 00 00 	lea    0x1b97(%rip),%rsi        # 1291b <g_1362+0x763>
   10d84:	48 89 cf             	mov    %rcx,%rdi
   10d87:	e8 67 89 ff ff       	callq  96f3 <transparent_crc>
   10d8c:	48 8b 05 1d 55 00 00 	mov    0x551d(%rip),%rax        # 162b0 <g_732>
   10d93:	25 ff ff 0f 00       	and    $0xfffff,%eax
   10d98:	89 c1                	mov    %eax,%ecx
   10d9a:	8b 45 fc             	mov    -0x4(%rbp),%eax
   10d9d:	89 c2                	mov    %eax,%edx
   10d9f:	48 8d 35 7e 1b 00 00 	lea    0x1b7e(%rip),%rsi        # 12924 <g_1362+0x76c>
   10da6:	48 89 cf             	mov    %rcx,%rdi
   10da9:	e8 45 89 ff ff       	callq  96f3 <transparent_crc>
   10dae:	8b 05 04 55 00 00    	mov    0x5504(%rip),%eax        # 162b8 <g_763>
   10db4:	48 98                	cltq   
   10db6:	8b 55 fc             	mov    -0x4(%rbp),%edx
   10db9:	48 8d 35 6d 1b 00 00 	lea    0x1b6d(%rip),%rsi        # 1292d <g_1362+0x775>
   10dc0:	48 89 c7             	mov    %rax,%rdi
   10dc3:	e8 2b 89 ff ff       	callq  96f3 <transparent_crc>
   10dc8:	c7 45 f0 00 00 00 00 	movl   $0x0,-0x10(%rbp)
   10dcf:	eb 53                	jmp    10e24 <main+0x81a>
   10dd1:	8b 45 f0             	mov    -0x10(%rbp),%eax
   10dd4:	48 98                	cltq   
   10dd6:	48 8d 14 c5 00 00 00 	lea    0x0(,%rax,8),%rdx
   10ddd:	00 
   10dde:	48 8d 05 db 54 00 00 	lea    0x54db(%rip),%rax        # 162c0 <g_814>
   10de5:	48 8b 04 02          	mov    (%rdx,%rax,1),%rax
   10de9:	25 ff ff 3f 00       	and    $0x3fffff,%eax
   10dee:	89 c1                	mov    %eax,%ecx
   10df0:	8b 45 fc             	mov    -0x4(%rbp),%eax
   10df3:	89 c2                	mov    %eax,%edx
   10df5:	48 8d 35 37 1b 00 00 	lea    0x1b37(%rip),%rsi        # 12933 <g_1362+0x77b>
   10dfc:	48 89 cf             	mov    %rcx,%rdi
   10dff:	e8 ef 88 ff ff       	callq  96f3 <transparent_crc>
   10e04:	83 7d fc 00          	cmpl   $0x0,-0x4(%rbp)
   10e08:	74 16                	je     10e20 <main+0x816>
   10e0a:	8b 45 f0             	mov    -0x10(%rbp),%eax
   10e0d:	89 c6                	mov    %eax,%esi
   10e0f:	48 8d 3d bb 19 00 00 	lea    0x19bb(%rip),%rdi        # 127d1 <g_1362+0x619>
   10e16:	b8 00 00 00 00       	mov    $0x0,%eax
   10e1b:	e8 60 72 ff ff       	callq  8080 <printf@plt>
   10e20:	83 45 f0 01          	addl   $0x1,-0x10(%rbp)
   10e24:	83 7d f0 01          	cmpl   $0x1,-0x10(%rbp)
   10e28:	7e a7                	jle    10dd1 <main+0x7c7>
   10e2a:	0f b7 05 9f 54 00 00 	movzwl 0x549f(%rip),%eax        # 162d0 <g_905>
   10e31:	0f b7 c0             	movzwl %ax,%eax
   10e34:	8b 55 fc             	mov    -0x4(%rbp),%edx
   10e37:	48 8d 35 01 1b 00 00 	lea    0x1b01(%rip),%rsi        # 1293f <g_1362+0x787>
   10e3e:	48 89 c7             	mov    %rax,%rdi
   10e41:	e8 ad 88 ff ff       	callq  96f3 <transparent_crc>
   10e46:	0f b7 05 85 54 00 00 	movzwl 0x5485(%rip),%eax        # 162d2 <g_995>
   10e4d:	48 0f bf c0          	movswq %ax,%rax
   10e51:	8b 55 fc             	mov    -0x4(%rbp),%edx
   10e54:	48 8d 35 ea 1a 00 00 	lea    0x1aea(%rip),%rsi        # 12945 <g_1362+0x78d>
   10e5b:	48 89 c7             	mov    %rax,%rdi
   10e5e:	e8 90 88 ff ff       	callq  96f3 <transparent_crc>
   10e63:	48 8b 05 6e 54 00 00 	mov    0x546e(%rip),%rax        # 162d8 <g_1101>
   10e6a:	25 ff ff 0f 00       	and    $0xfffff,%eax
   10e6f:	89 c1                	mov    %eax,%ecx
   10e71:	8b 45 fc             	mov    -0x4(%rbp),%eax
   10e74:	89 c2                	mov    %eax,%edx
   10e76:	48 8d 35 ce 1a 00 00 	lea    0x1ace(%rip),%rsi        # 1294b <g_1362+0x793>
   10e7d:	48 89 cf             	mov    %rcx,%rdi
   10e80:	e8 6e 88 ff ff       	callq  96f3 <transparent_crc>
   10e85:	48 8b 05 54 54 00 00 	mov    0x5454(%rip),%rax        # 162e0 <g_1107>
   10e8c:	25 ff ff 0f 00       	and    $0xfffff,%eax
   10e91:	89 c1                	mov    %eax,%ecx
   10e93:	8b 45 fc             	mov    -0x4(%rbp),%eax
   10e96:	89 c2                	mov    %eax,%edx
   10e98:	48 8d 35 b6 1a 00 00 	lea    0x1ab6(%rip),%rsi        # 12955 <g_1362+0x79d>
   10e9f:	48 89 cf             	mov    %rcx,%rdi
   10ea2:	e8 4c 88 ff ff       	callq  96f3 <transparent_crc>
   10ea7:	48 8b 05 3a 54 00 00 	mov    0x543a(%rip),%rax        # 162e8 <g_1144>
   10eae:	25 ff ff 0f 00       	and    $0xfffff,%eax
   10eb3:	89 c1                	mov    %eax,%ecx
   10eb5:	8b 45 fc             	mov    -0x4(%rbp),%eax
   10eb8:	89 c2                	mov    %eax,%edx
   10eba:	48 8d 35 9e 1a 00 00 	lea    0x1a9e(%rip),%rsi        # 1295f <g_1362+0x7a7>
   10ec1:	48 89 cf             	mov    %rcx,%rdi
   10ec4:	e8 2a 88 ff ff       	callq  96f3 <transparent_crc>
   10ec9:	48 8b 05 d0 88 00 00 	mov    0x88d0(%rip),%rax        # 197a0 <g_1145>
   10ed0:	25 ff ff 3f 00       	and    $0x3fffff,%eax
   10ed5:	89 c1                	mov    %eax,%ecx
   10ed7:	8b 45 fc             	mov    -0x4(%rbp),%eax
   10eda:	89 c2                	mov    %eax,%edx
   10edc:	48 8d 35 86 1a 00 00 	lea    0x1a86(%rip),%rsi        # 12969 <g_1362+0x7b1>
   10ee3:	48 89 cf             	mov    %rcx,%rdi
   10ee6:	e8 08 88 ff ff       	callq  96f3 <transparent_crc>
   10eeb:	c7 45 f0 00 00 00 00 	movl   $0x0,-0x10(%rbp)
   10ef2:	eb 69                	jmp    10f5d <main+0x953>
   10ef4:	c7 45 f4 00 00 00 00 	movl   $0x0,-0xc(%rbp)
   10efb:	eb 56                	jmp    10f53 <main+0x949>
   10efd:	8b 45 f4             	mov    -0xc(%rbp),%eax
   10f00:	48 63 d0             	movslq %eax,%rdx
   10f03:	8b 45 f0             	mov    -0x10(%rbp),%eax
   10f06:	48 98                	cltq   
   10f08:	48 01 d0             	add    %rdx,%rax
   10f0b:	48 8d 14 00          	lea    (%rax,%rax,1),%rdx
   10f0f:	48 8d 05 da 53 00 00 	lea    0x53da(%rip),%rax        # 162f0 <g_1180>
   10f16:	0f b7 04 02          	movzwl (%rdx,%rax,1),%eax
   10f1a:	48 0f bf c0          	movswq %ax,%rax
   10f1e:	8b 55 fc             	mov    -0x4(%rbp),%edx
   10f21:	48 8d 35 4b 1a 00 00 	lea    0x1a4b(%rip),%rsi        # 12973 <g_1362+0x7bb>
   10f28:	48 89 c7             	mov    %rax,%rdi
   10f2b:	e8 c3 87 ff ff       	callq  96f3 <transparent_crc>
   10f30:	83 7d fc 00          	cmpl   $0x0,-0x4(%rbp)
   10f34:	74 19                	je     10f4f <main+0x945>
   10f36:	8b 55 f4             	mov    -0xc(%rbp),%edx
   10f39:	8b 45 f0             	mov    -0x10(%rbp),%eax
   10f3c:	89 c6                	mov    %eax,%esi
   10f3e:	48 8d 3d 34 19 00 00 	lea    0x1934(%rip),%rdi        # 12879 <g_1362+0x6c1>
   10f45:	b8 00 00 00 00       	mov    $0x0,%eax
   10f4a:	e8 31 71 ff ff       	callq  8080 <printf@plt>
   10f4f:	83 45 f4 01          	addl   $0x1,-0xc(%rbp)
   10f53:	83 7d f4 00          	cmpl   $0x0,-0xc(%rbp)
   10f57:	7e a4                	jle    10efd <main+0x8f3>
   10f59:	83 45 f0 01          	addl   $0x1,-0x10(%rbp)
   10f5d:	83 7d f0 00          	cmpl   $0x0,-0x10(%rbp)
   10f61:	7e 91                	jle    10ef4 <main+0x8ea>
   10f63:	8b 05 8b 53 00 00    	mov    0x538b(%rip),%eax        # 162f4 <g_1185>
   10f69:	48 98                	cltq   
   10f6b:	8b 55 fc             	mov    -0x4(%rbp),%edx
   10f6e:	48 8d 35 0b 1a 00 00 	lea    0x1a0b(%rip),%rsi        # 12980 <g_1362+0x7c8>
   10f75:	48 89 c7             	mov    %rax,%rdi
   10f78:	e8 76 87 ff ff       	callq  96f3 <transparent_crc>
   10f7d:	0f b6 05 74 53 00 00 	movzbl 0x5374(%rip),%eax        # 162f8 <g_1203>
   10f84:	48 0f be c0          	movsbq %al,%rax
   10f88:	8b 55 fc             	mov    -0x4(%rbp),%edx
   10f8b:	48 8d 35 f5 19 00 00 	lea    0x19f5(%rip),%rsi        # 12987 <g_1362+0x7cf>
   10f92:	48 89 c7             	mov    %rax,%rdi
   10f95:	e8 59 87 ff ff       	callq  96f3 <transparent_crc>
   10f9a:	48 8b 05 5f 53 00 00 	mov    0x535f(%rip),%rax        # 16300 <g_1204>
   10fa1:	25 ff ff 0f 00       	and    $0xfffff,%eax
   10fa6:	89 c1                	mov    %eax,%ecx
   10fa8:	8b 45 fc             	mov    -0x4(%rbp),%eax
   10fab:	89 c2                	mov    %eax,%edx
   10fad:	48 8d 35 dd 19 00 00 	lea    0x19dd(%rip),%rsi        # 12991 <g_1362+0x7d9>
   10fb4:	48 89 cf             	mov    %rcx,%rdi
   10fb7:	e8 37 87 ff ff       	callq  96f3 <transparent_crc>
   10fbc:	8b 05 46 53 00 00    	mov    0x5346(%rip),%eax        # 16308 <g_1224>
   10fc2:	89 c1                	mov    %eax,%ecx
   10fc4:	8b 45 fc             	mov    -0x4(%rbp),%eax
   10fc7:	89 c2                	mov    %eax,%edx
   10fc9:	48 8d 35 cb 19 00 00 	lea    0x19cb(%rip),%rsi        # 1299b <g_1362+0x7e3>
   10fd0:	48 89 cf             	mov    %rcx,%rdi
   10fd3:	e8 1b 87 ff ff       	callq  96f3 <transparent_crc>
   10fd8:	c7 45 f0 00 00 00 00 	movl   $0x0,-0x10(%rbp)
   10fdf:	eb 71                	jmp    11052 <main+0xa48>
   10fe1:	c7 45 f4 00 00 00 00 	movl   $0x0,-0xc(%rbp)
   10fe8:	eb 5e                	jmp    11048 <main+0xa3e>
   10fea:	8b 45 f4             	mov    -0xc(%rbp),%eax
   10fed:	48 98                	cltq   
   10fef:	8b 55 f0             	mov    -0x10(%rbp),%edx
   10ff2:	48 63 d2             	movslq %edx,%rdx
   10ff5:	48 c1 e2 03          	shl    $0x3,%rdx
   10ff9:	48 01 d0             	add    %rdx,%rax
   10ffc:	48 8d 14 85 00 00 00 	lea    0x0(,%rax,4),%rdx
   11003:	00 
   11004:	48 8d 05 15 53 00 00 	lea    0x5315(%rip),%rax        # 16320 <g_1251>
   1100b:	0f b6 04 02          	movzbl (%rdx,%rax,1),%eax
   1100f:	48 0f be c0          	movsbq %al,%rax
   11013:	8b 55 fc             	mov    -0x4(%rbp),%edx
   11016:	48 8d 35 85 19 00 00 	lea    0x1985(%rip),%rsi        # 129a2 <g_1362+0x7ea>
   1101d:	48 89 c7             	mov    %rax,%rdi
   11020:	e8 ce 86 ff ff       	callq  96f3 <transparent_crc>
   11025:	83 7d fc 00          	cmpl   $0x0,-0x4(%rbp)
   11029:	74 19                	je     11044 <main+0xa3a>
   1102b:	8b 55 f4             	mov    -0xc(%rbp),%edx
   1102e:	8b 45 f0             	mov    -0x10(%rbp),%eax
   11031:	89 c6                	mov    %eax,%esi
   11033:	48 8d 3d 3f 18 00 00 	lea    0x183f(%rip),%rdi        # 12879 <g_1362+0x6c1>
   1103a:	b8 00 00 00 00       	mov    $0x0,%eax
   1103f:	e8 3c 70 ff ff       	callq  8080 <printf@plt>
   11044:	83 45 f4 01          	addl   $0x1,-0xc(%rbp)
   11048:	83 7d f4 07          	cmpl   $0x7,-0xc(%rbp)
   1104c:	7e 9c                	jle    10fea <main+0x9e0>
   1104e:	83 45 f0 01          	addl   $0x1,-0x10(%rbp)
   11052:	83 7d f0 00          	cmpl   $0x0,-0x10(%rbp)
   11056:	7e 89                	jle    10fe1 <main+0x9d7>
   11058:	c7 45 f0 00 00 00 00 	movl   $0x0,-0x10(%rbp)
   1105f:	eb 53                	jmp    110b4 <main+0xaaa>
   11061:	8b 45 f0             	mov    -0x10(%rbp),%eax
   11064:	48 98                	cltq   
   11066:	48 8d 14 c5 00 00 00 	lea    0x0(,%rax,8),%rdx
   1106d:	00 
   1106e:	48 8d 05 cb 52 00 00 	lea    0x52cb(%rip),%rax        # 16340 <g_1252>
   11075:	48 8b 04 02          	mov    (%rdx,%rax,1),%rax
   11079:	25 ff ff 3f 00       	and    $0x3fffff,%eax
   1107e:	89 c1                	mov    %eax,%ecx
   11080:	8b 45 fc             	mov    -0x4(%rbp),%eax
   11083:	89 c2                	mov    %eax,%edx
   11085:	48 8d 35 26 19 00 00 	lea    0x1926(%rip),%rsi        # 129b2 <g_1362+0x7fa>
   1108c:	48 89 cf             	mov    %rcx,%rdi
   1108f:	e8 5f 86 ff ff       	callq  96f3 <transparent_crc>
   11094:	83 7d fc 00          	cmpl   $0x0,-0x4(%rbp)
   11098:	74 16                	je     110b0 <main+0xaa6>
   1109a:	8b 45 f0             	mov    -0x10(%rbp),%eax
   1109d:	89 c6                	mov    %eax,%esi
   1109f:	48 8d 3d 2b 17 00 00 	lea    0x172b(%rip),%rdi        # 127d1 <g_1362+0x619>
   110a6:	b8 00 00 00 00       	mov    $0x0,%eax
   110ab:	e8 d0 6f ff ff       	callq  8080 <printf@plt>
   110b0:	83 45 f0 01          	addl   $0x1,-0x10(%rbp)
   110b4:	83 7d f0 05          	cmpl   $0x5,-0x10(%rbp)
   110b8:	7e a7                	jle    11061 <main+0xa57>
   110ba:	0f b6 05 af 52 00 00 	movzbl 0x52af(%rip),%eax        # 16370 <g_1264>
   110c1:	48 0f be c0          	movsbq %al,%rax
   110c5:	8b 55 fc             	mov    -0x4(%rbp),%edx
   110c8:	48 8d 35 f0 18 00 00 	lea    0x18f0(%rip),%rsi        # 129bf <g_1362+0x807>
   110cf:	48 89 c7             	mov    %rax,%rdi
   110d2:	e8 1c 86 ff ff       	callq  96f3 <transparent_crc>
   110d7:	48 8b 05 9a 52 00 00 	mov    0x529a(%rip),%rax        # 16378 <g_1319>
   110de:	25 ff ff 0f 00       	and    $0xfffff,%eax
   110e3:	89 c1                	mov    %eax,%ecx
   110e5:	8b 45 fc             	mov    -0x4(%rbp),%eax
   110e8:	89 c2                	mov    %eax,%edx
   110ea:	48 8d 35 d8 18 00 00 	lea    0x18d8(%rip),%rsi        # 129c9 <g_1362+0x811>
   110f1:	48 89 cf             	mov    %rcx,%rdi
   110f4:	e8 fa 85 ff ff       	callq  96f3 <transparent_crc>
   110f9:	48 8b 05 80 52 00 00 	mov    0x5280(%rip),%rax        # 16380 <g_1328>
   11100:	8b 55 fc             	mov    -0x4(%rbp),%edx
   11103:	48 8d 35 c9 18 00 00 	lea    0x18c9(%rip),%rsi        # 129d3 <g_1362+0x81b>
   1110a:	48 89 c7             	mov    %rax,%rdi
   1110d:	e8 e1 85 ff ff       	callq  96f3 <transparent_crc>
   11112:	48 8b 05 9f 10 00 00 	mov    0x109f(%rip),%rax        # 121b8 <g_1362>
   11119:	25 ff ff 3f 00       	and    $0x3fffff,%eax
   1111e:	89 c1                	mov    %eax,%ecx
   11120:	8b 45 fc             	mov    -0x4(%rbp),%eax
   11123:	89 c2                	mov    %eax,%edx
   11125:	48 8d 35 ae 18 00 00 	lea    0x18ae(%rip),%rsi        # 129da <g_1362+0x822>
   1112c:	48 89 cf             	mov    %rcx,%rdi
   1112f:	e8 bf 85 ff ff       	callq  96f3 <transparent_crc>
   11134:	48 8b 05 4d 52 00 00 	mov    0x524d(%rip),%rax        # 16388 <g_1396>
   1113b:	25 ff ff 0f 00       	and    $0xfffff,%eax
   11140:	89 c1                	mov    %eax,%ecx
   11142:	8b 45 fc             	mov    -0x4(%rbp),%eax
   11145:	89 c2                	mov    %eax,%edx
   11147:	48 8d 35 96 18 00 00 	lea    0x1896(%rip),%rsi        # 129e4 <g_1362+0x82c>
   1114e:	48 89 cf             	mov    %rcx,%rdi
   11151:	e8 9d 85 ff ff       	callq  96f3 <transparent_crc>
   11156:	0f b6 05 33 52 00 00 	movzbl 0x5233(%rip),%eax        # 16390 <g_1428>
   1115d:	48 0f be c0          	movsbq %al,%rax
   11161:	8b 55 fc             	mov    -0x4(%rbp),%edx
   11164:	48 8d 35 83 18 00 00 	lea    0x1883(%rip),%rsi        # 129ee <g_1362+0x836>
   1116b:	48 89 c7             	mov    %rax,%rdi
   1116e:	e8 80 85 ff ff       	callq  96f3 <transparent_crc>
   11173:	c7 45 f0 00 00 00 00 	movl   $0x0,-0x10(%rbp)
   1117a:	eb 4d                	jmp    111c9 <main+0xbbf>
   1117c:	8b 45 f0             	mov    -0x10(%rbp),%eax
   1117f:	48 98                	cltq   
   11181:	48 8d 14 85 00 00 00 	lea    0x0(,%rax,4),%rdx
   11188:	00 
   11189:	48 8d 05 10 52 00 00 	lea    0x5210(%rip),%rax        # 163a0 <g_1593>
   11190:	8b 04 02             	mov    (%rdx,%rax,1),%eax
   11193:	89 c1                	mov    %eax,%ecx
   11195:	8b 45 fc             	mov    -0x4(%rbp),%eax
   11198:	89 c2                	mov    %eax,%edx
   1119a:	48 8d 35 57 18 00 00 	lea    0x1857(%rip),%rsi        # 129f8 <g_1362+0x840>
   111a1:	48 89 cf             	mov    %rcx,%rdi
   111a4:	e8 4a 85 ff ff       	callq  96f3 <transparent_crc>
   111a9:	83 7d fc 00          	cmpl   $0x0,-0x4(%rbp)
   111ad:	74 16                	je     111c5 <main+0xbbb>
   111af:	8b 45 f0             	mov    -0x10(%rbp),%eax
   111b2:	89 c6                	mov    %eax,%esi
   111b4:	48 8d 3d 16 16 00 00 	lea    0x1616(%rip),%rdi        # 127d1 <g_1362+0x619>
   111bb:	b8 00 00 00 00       	mov    $0x0,%eax
   111c0:	e8 bb 6e ff ff       	callq  8080 <printf@plt>
   111c5:	83 45 f0 01          	addl   $0x1,-0x10(%rbp)
   111c9:	83 7d f0 07          	cmpl   $0x7,-0x10(%rbp)
   111cd:	7e ad                	jle    1117c <main+0xb72>
   111cf:	48 8b 05 ea 51 00 00 	mov    0x51ea(%rip),%rax        # 163c0 <g_1594>
   111d6:	8b 55 fc             	mov    -0x4(%rbp),%edx
   111d9:	48 8d 35 22 18 00 00 	lea    0x1822(%rip),%rsi        # 12a02 <g_1362+0x84a>
   111e0:	48 89 c7             	mov    %rax,%rdi
   111e3:	e8 0b 85 ff ff       	callq  96f3 <transparent_crc>
   111e8:	48 8b 05 d9 51 00 00 	mov    0x51d9(%rip),%rax        # 163c8 <g_1668>
   111ef:	25 ff ff 0f 00       	and    $0xfffff,%eax
   111f4:	89 c1                	mov    %eax,%ecx
   111f6:	8b 45 fc             	mov    -0x4(%rbp),%eax
   111f9:	89 c2                	mov    %eax,%edx
   111fb:	48 8d 35 07 18 00 00 	lea    0x1807(%rip),%rsi        # 12a09 <g_1362+0x851>
   11202:	48 89 cf             	mov    %rcx,%rdi
   11205:	e8 e9 84 ff ff       	callq  96f3 <transparent_crc>
   1120a:	8b 05 c0 51 00 00    	mov    0x51c0(%rip),%eax        # 163d0 <g_1677>
   11210:	89 c1                	mov    %eax,%ecx
   11212:	8b 45 fc             	mov    -0x4(%rbp),%eax
   11215:	89 c2                	mov    %eax,%edx
   11217:	48 8d 35 f5 17 00 00 	lea    0x17f5(%rip),%rsi        # 12a13 <g_1362+0x85b>
   1121e:	48 89 cf             	mov    %rcx,%rdi
   11221:	e8 cd 84 ff ff       	callq  96f3 <transparent_crc>
   11226:	8b 05 a8 51 00 00    	mov    0x51a8(%rip),%eax        # 163d4 <g_1687>
   1122c:	48 98                	cltq   
   1122e:	8b 55 fc             	mov    -0x4(%rbp),%edx
   11231:	48 8d 35 e2 17 00 00 	lea    0x17e2(%rip),%rsi        # 12a1a <g_1362+0x862>
   11238:	48 89 c7             	mov    %rax,%rdi
   1123b:	e8 b3 84 ff ff       	callq  96f3 <transparent_crc>
   11240:	0f b6 05 91 51 00 00 	movzbl 0x5191(%rip),%eax        # 163d8 <g_1703>
   11247:	48 0f be c0          	movsbq %al,%rax
   1124b:	8b 55 fc             	mov    -0x4(%rbp),%edx
   1124e:	48 8d 35 cc 17 00 00 	lea    0x17cc(%rip),%rsi        # 12a21 <g_1362+0x869>
   11255:	48 89 c7             	mov    %rax,%rdi
   11258:	e8 96 84 ff ff       	callq  96f3 <transparent_crc>
   1125d:	48 8b 05 7c 51 00 00 	mov    0x517c(%rip),%rax        # 163e0 <g_1734>
   11264:	25 ff ff 0f 00       	and    $0xfffff,%eax
   11269:	89 c1                	mov    %eax,%ecx
   1126b:	8b 45 fc             	mov    -0x4(%rbp),%eax
   1126e:	89 c2                	mov    %eax,%edx
   11270:	48 8d 35 b4 17 00 00 	lea    0x17b4(%rip),%rsi        # 12a2b <g_1362+0x873>
   11277:	48 89 cf             	mov    %rcx,%rdi
   1127a:	e8 74 84 ff ff       	callq  96f3 <transparent_crc>
   1127f:	8b 05 63 51 00 00    	mov    0x5163(%rip),%eax        # 163e8 <g_1758>
   11285:	89 c1                	mov    %eax,%ecx
   11287:	8b 45 fc             	mov    -0x4(%rbp),%eax
   1128a:	89 c2                	mov    %eax,%edx
   1128c:	48 8d 35 a2 17 00 00 	lea    0x17a2(%rip),%rsi        # 12a35 <g_1362+0x87d>
   11293:	48 89 cf             	mov    %rcx,%rdi
   11296:	e8 58 84 ff ff       	callq  96f3 <transparent_crc>
   1129b:	8b 05 57 51 00 00    	mov    0x5157(%rip),%eax        # 163f8 <g_1797>
   112a1:	48 98                	cltq   
   112a3:	8b 55 fc             	mov    -0x4(%rbp),%edx
   112a6:	48 8d 35 8f 17 00 00 	lea    0x178f(%rip),%rsi        # 12a3c <g_1362+0x884>
   112ad:	48 89 c7             	mov    %rax,%rdi
   112b0:	e8 3e 84 ff ff       	callq  96f3 <transparent_crc>
   112b5:	8b 05 65 4d 00 00    	mov    0x4d65(%rip),%eax        # 16020 <crc32_context>
   112bb:	f7 d0                	not    %eax
   112bd:	89 c2                	mov    %eax,%edx
   112bf:	8b 45 fc             	mov    -0x4(%rbp),%eax
   112c2:	89 c6                	mov    %eax,%esi
   112c4:	89 d7                	mov    %edx,%edi
   112c6:	e8 c9 6e ff ff       	callq  8194 <platform_main_end>
   112cb:	b8 00 00 00 00       	mov    $0x0,%eax
   112d0:	c9                   	leaveq 
   112d1:	c3                   	retq   
   112d2:	66 2e 0f 1f 84 00 00 	nopw   %cs:0x0(%rax,%rax,1)
   112d9:	00 00 00 
   112dc:	0f 1f 40 00          	nopl   0x0(%rax)

00000000000112e0 <__libc_csu_init>:
   112e0:	f3 0f 1e fa          	endbr64 
   112e4:	41 57                	push   %r15
   112e6:	4c 8d 3d 03 49 00 00 	lea    0x4903(%rip),%r15        # 15bf0 <__frame_dummy_init_array_entry>
   112ed:	41 56                	push   %r14
   112ef:	49 89 d6             	mov    %rdx,%r14
   112f2:	41 55                	push   %r13
   112f4:	49 89 f5             	mov    %rsi,%r13
   112f7:	41 54                	push   %r12
   112f9:	41 89 fc             	mov    %edi,%r12d
   112fc:	55                   	push   %rbp
   112fd:	48 8d 2d f4 48 00 00 	lea    0x48f4(%rip),%rbp        # 15bf8 <__do_global_dtors_aux_fini_array_entry>
   11304:	53                   	push   %rbx
   11305:	4c 29 fd             	sub    %r15,%rbp
   11308:	48 83 ec 08          	sub    $0x8,%rsp
   1130c:	e8 ef 6c ff ff       	callq  8000 <_init>
   11311:	48 c1 fd 03          	sar    $0x3,%rbp
   11315:	74 1f                	je     11336 <__libc_csu_init+0x56>
   11317:	31 db                	xor    %ebx,%ebx
   11319:	0f 1f 80 00 00 00 00 	nopl   0x0(%rax)
   11320:	4c 89 f2             	mov    %r14,%rdx
   11323:	4c 89 ee             	mov    %r13,%rsi
   11326:	44 89 e7             	mov    %r12d,%edi
   11329:	41 ff 14 df          	callq  *(%r15,%rbx,8)
   1132d:	48 83 c3 01          	add    $0x1,%rbx
   11331:	48 39 dd             	cmp    %rbx,%rbp
   11334:	75 ea                	jne    11320 <__libc_csu_init+0x40>
   11336:	48 83 c4 08          	add    $0x8,%rsp
   1133a:	5b                   	pop    %rbx
   1133b:	5d                   	pop    %rbp
   1133c:	41 5c                	pop    %r12
   1133e:	41 5d                	pop    %r13
   11340:	41 5e                	pop    %r14
   11342:	41 5f                	pop    %r15
   11344:	c3                   	retq   
   11345:	66 66 2e 0f 1f 84 00 	data16 nopw %cs:0x0(%rax,%rax,1)
   1134c:	00 00 00 00 

0000000000011350 <__libc_csu_fini>:
   11350:	f3 0f 1e fa          	endbr64 
   11354:	c3                   	retq   
