


Disassembly of section .text:

00000000000060a0 <_start>:
    60a0:	f3 0f 1e fa          	endbr64 
    60a4:	31 ed                	xor    %ebp,%ebp
    60a6:	49 89 d1             	mov    %rdx,%r9
    60a9:	5e                   	pop    %rsi
    60aa:	48 89 e2             	mov    %rsp,%rdx
    60ad:	48 83 e4 f0          	and    $0xfffffffffffffff0,%rsp
    60b1:	50                   	push   %rax
    60b2:	54                   	push   %rsp
    60b3:	4c 8d 05 16 07 01 00 	lea    0x10716(%rip),%r8        # 167d0 <__libc_csu_fini>
    60ba:	48 8d 0d 9f 06 01 00 	lea    0x1069f(%rip),%rcx        # 16760 <__libc_csu_init>
    60c1:	48 8d 3d 21 dd 00 00 	lea    0xdd21(%rip),%rdi        # 13de9 <main>
    60c8:	ff 15 12 5f 01 00    	callq  *0x15f12(%rip)        # 1bfe0 <__libc_start_main@GLIBC_2.2.5>
    60ce:	f4                   	hlt    
    60cf:	90                   	nop

00000000000060d0 <deregister_tm_clones>:
    60d0:	48 8d 3d 71 b9 01 00 	lea    0x1b971(%rip),%rdi        # 21a48 <__TMC_END__>
    60d7:	48 8d 05 6a b9 01 00 	lea    0x1b96a(%rip),%rax        # 21a48 <__TMC_END__>
    60de:	48 39 f8             	cmp    %rdi,%rax
    60e1:	74 15                	je     60f8 <deregister_tm_clones+0x28>
    60e3:	48 8b 05 ee 5e 01 00 	mov    0x15eee(%rip),%rax        # 1bfd8 <_ITM_deregisterTMCloneTable>
    60ea:	48 85 c0             	test   %rax,%rax
    60ed:	74 09                	je     60f8 <deregister_tm_clones+0x28>
    60ef:	ff e0                	jmpq   *%rax
    60f1:	0f 1f 80 00 00 00 00 	nopl   0x0(%rax)
    60f8:	c3                   	retq   
    60f9:	0f 1f 80 00 00 00 00 	nopl   0x0(%rax)

0000000000006100 <register_tm_clones>:
    6100:	48 8d 3d 41 b9 01 00 	lea    0x1b941(%rip),%rdi        # 21a48 <__TMC_END__>
    6107:	48 8d 35 3a b9 01 00 	lea    0x1b93a(%rip),%rsi        # 21a48 <__TMC_END__>
    610e:	48 29 fe             	sub    %rdi,%rsi
    6111:	48 89 f0             	mov    %rsi,%rax
    6114:	48 c1 ee 3f          	shr    $0x3f,%rsi
    6118:	48 c1 f8 03          	sar    $0x3,%rax
    611c:	48 01 c6             	add    %rax,%rsi
    611f:	48 d1 fe             	sar    %rsi
    6122:	74 14                	je     6138 <register_tm_clones+0x38>
    6124:	48 8b 05 c5 5e 01 00 	mov    0x15ec5(%rip),%rax        # 1bff0 <_ITM_registerTMCloneTable>
    612b:	48 85 c0             	test   %rax,%rax
    612e:	74 08                	je     6138 <register_tm_clones+0x38>
    6130:	ff e0                	jmpq   *%rax
    6132:	66 0f 1f 44 00 00    	nopw   0x0(%rax,%rax,1)
    6138:	c3                   	retq   
    6139:	0f 1f 80 00 00 00 00 	nopl   0x0(%rax)

0000000000006140 <__do_global_dtors_aux>:
    6140:	f3 0f 1e fa          	endbr64 
    6144:	80 3d 15 b9 01 00 00 	cmpb   $0x0,0x1b915(%rip)        # 21a60 <completed.8061>
    614b:	75 2b                	jne    6178 <__do_global_dtors_aux+0x38>
    614d:	55                   	push   %rbp
    614e:	48 83 3d a2 5e 01 00 	cmpq   $0x0,0x15ea2(%rip)        # 1bff8 <__cxa_finalize@GLIBC_2.2.5>
    6155:	00 
    6156:	48 89 e5             	mov    %rsp,%rbp
    6159:	74 0c                	je     6167 <__do_global_dtors_aux+0x27>
    615b:	48 8b 3d a6 5e 01 00 	mov    0x15ea6(%rip),%rdi        # 1c008 <__dso_handle>
    6162:	e8 f9 fe ff ff       	callq  6060 <__cxa_finalize@plt>
    6167:	e8 64 ff ff ff       	callq  60d0 <deregister_tm_clones>
    616c:	c6 05 ed b8 01 00 01 	movb   $0x1,0x1b8ed(%rip)        # 21a60 <completed.8061>
    6173:	5d                   	pop    %rbp
    6174:	c3                   	retq   
    6175:	0f 1f 00             	nopl   (%rax)
    6178:	c3                   	retq   
    6179:	0f 1f 80 00 00 00 00 	nopl   0x0(%rax)

0000000000006180 <frame_dummy>:
    6180:	f3 0f 1e fa          	endbr64 
    6184:	e9 77 ff ff ff       	jmpq   6100 <register_tm_clones>

0000000000006189 <platform_main_begin>:
    6189:	f3 0f 1e fa          	endbr64 
    618d:	55                   	push   %rbp
    618e:	48 89 e5             	mov    %rsp,%rbp
    6191:	90                   	nop
    6192:	5d                   	pop    %rbp
    6193:	c3                   	retq   

0000000000006194 <platform_main_end>:
    6194:	f3 0f 1e fa          	endbr64 
    6198:	55                   	push   %rbp
    6199:	48 89 e5             	mov    %rsp,%rbp
    619c:	48 83 ec 10          	sub    $0x10,%rsp
    61a0:	89 7d fc             	mov    %edi,-0x4(%rbp)
    61a3:	89 75 f8             	mov    %esi,-0x8(%rbp)
    61a6:	8b 45 fc             	mov    -0x4(%rbp),%eax
    61a9:	89 c6                	mov    %eax,%esi
    61ab:	48 8d 3d 6e 0e 01 00 	lea    0x10e6e(%rip),%rdi        # 17020 <_IO_stdin_used+0x20>
    61b2:	b8 00 00 00 00       	mov    $0x0,%eax
    61b7:	e8 c4 fe ff ff       	callq  6080 <printf@plt>
    61bc:	90                   	nop
    61bd:	c9                   	leaveq 
    61be:	c3                   	retq   

00000000000061bf <safe_unary_minus_func_int8_t_s>:
    61bf:	f3 0f 1e fa          	endbr64 
    61c3:	55                   	push   %rbp
    61c4:	48 89 e5             	mov    %rsp,%rbp
    61c7:	89 f8                	mov    %edi,%eax
    61c9:	88 45 fc             	mov    %al,-0x4(%rbp)
    61cc:	0f b6 45 fc          	movzbl -0x4(%rbp),%eax
    61d0:	f7 d8                	neg    %eax
    61d2:	5d                   	pop    %rbp
    61d3:	c3                   	retq   

00000000000061d4 <safe_add_func_int8_t_s_s>:
    61d4:	f3 0f 1e fa          	endbr64 
    61d8:	55                   	push   %rbp
    61d9:	48 89 e5             	mov    %rsp,%rbp
    61dc:	89 fa                	mov    %edi,%edx
    61de:	89 f0                	mov    %esi,%eax
    61e0:	88 55 fc             	mov    %dl,-0x4(%rbp)
    61e3:	88 45 f8             	mov    %al,-0x8(%rbp)
    61e6:	0f b6 55 fc          	movzbl -0x4(%rbp),%edx
    61ea:	0f b6 45 f8          	movzbl -0x8(%rbp),%eax
    61ee:	01 d0                	add    %edx,%eax
    61f0:	5d                   	pop    %rbp
    61f1:	c3                   	retq   

00000000000061f2 <safe_sub_func_int8_t_s_s>:
    61f2:	f3 0f 1e fa          	endbr64 
    61f6:	55                   	push   %rbp
    61f7:	48 89 e5             	mov    %rsp,%rbp
    61fa:	89 fa                	mov    %edi,%edx
    61fc:	89 f0                	mov    %esi,%eax
    61fe:	88 55 fc             	mov    %dl,-0x4(%rbp)
    6201:	88 45 f8             	mov    %al,-0x8(%rbp)
    6204:	0f b6 55 fc          	movzbl -0x4(%rbp),%edx
    6208:	0f b6 45 f8          	movzbl -0x8(%rbp),%eax
    620c:	29 c2                	sub    %eax,%edx
    620e:	89 d0                	mov    %edx,%eax
    6210:	5d                   	pop    %rbp
    6211:	c3                   	retq   

0000000000006212 <safe_mul_func_int8_t_s_s>:
    6212:	f3 0f 1e fa          	endbr64 
    6216:	55                   	push   %rbp
    6217:	48 89 e5             	mov    %rsp,%rbp
    621a:	89 fa                	mov    %edi,%edx
    621c:	89 f0                	mov    %esi,%eax
    621e:	88 55 fc             	mov    %dl,-0x4(%rbp)
    6221:	88 45 f8             	mov    %al,-0x8(%rbp)
    6224:	0f b6 45 fc          	movzbl -0x4(%rbp),%eax
    6228:	0f b6 55 f8          	movzbl -0x8(%rbp),%edx
    622c:	0f af c2             	imul   %edx,%eax
    622f:	5d                   	pop    %rbp
    6230:	c3                   	retq   

0000000000006231 <safe_mod_func_int8_t_s_s>:
    6231:	f3 0f 1e fa          	endbr64 
    6235:	55                   	push   %rbp
    6236:	48 89 e5             	mov    %rsp,%rbp
    6239:	89 fa                	mov    %edi,%edx
    623b:	89 f0                	mov    %esi,%eax
    623d:	88 55 fc             	mov    %dl,-0x4(%rbp)
    6240:	88 45 f8             	mov    %al,-0x8(%rbp)
    6243:	80 7d f8 00          	cmpb   $0x0,-0x8(%rbp)
    6247:	74 1b                	je     6264 <safe_mod_func_int8_t_s_s+0x33>
    6249:	80 7d fc 80          	cmpb   $0x80,-0x4(%rbp)
    624d:	75 06                	jne    6255 <safe_mod_func_int8_t_s_s+0x24>
    624f:	80 7d f8 ff          	cmpb   $0xff,-0x8(%rbp)
    6253:	74 0f                	je     6264 <safe_mod_func_int8_t_s_s+0x33>
    6255:	0f be 45 fc          	movsbl -0x4(%rbp),%eax
    6259:	0f be 4d f8          	movsbl -0x8(%rbp),%ecx
    625d:	99                   	cltd   
    625e:	f7 f9                	idiv   %ecx
    6260:	89 d0                	mov    %edx,%eax
    6262:	eb 04                	jmp    6268 <safe_mod_func_int8_t_s_s+0x37>
    6264:	0f b6 45 fc          	movzbl -0x4(%rbp),%eax
    6268:	5d                   	pop    %rbp
    6269:	c3                   	retq   

000000000000626a <safe_div_func_int8_t_s_s>:
    626a:	f3 0f 1e fa          	endbr64 
    626e:	55                   	push   %rbp
    626f:	48 89 e5             	mov    %rsp,%rbp
    6272:	89 fa                	mov    %edi,%edx
    6274:	89 f0                	mov    %esi,%eax
    6276:	88 55 fc             	mov    %dl,-0x4(%rbp)
    6279:	88 45 f8             	mov    %al,-0x8(%rbp)
    627c:	80 7d f8 00          	cmpb   $0x0,-0x8(%rbp)
    6280:	74 19                	je     629b <safe_div_func_int8_t_s_s+0x31>
    6282:	80 7d fc 80          	cmpb   $0x80,-0x4(%rbp)
    6286:	75 06                	jne    628e <safe_div_func_int8_t_s_s+0x24>
    6288:	80 7d f8 ff          	cmpb   $0xff,-0x8(%rbp)
    628c:	74 0d                	je     629b <safe_div_func_int8_t_s_s+0x31>
    628e:	0f be 45 fc          	movsbl -0x4(%rbp),%eax
    6292:	0f be 4d f8          	movsbl -0x8(%rbp),%ecx
    6296:	99                   	cltd   
    6297:	f7 f9                	idiv   %ecx
    6299:	eb 04                	jmp    629f <safe_div_func_int8_t_s_s+0x35>
    629b:	0f b6 45 fc          	movzbl -0x4(%rbp),%eax
    629f:	5d                   	pop    %rbp
    62a0:	c3                   	retq   

00000000000062a1 <safe_lshift_func_int8_t_s_s>:
    62a1:	f3 0f 1e fa          	endbr64 
    62a5:	55                   	push   %rbp
    62a6:	48 89 e5             	mov    %rsp,%rbp
    62a9:	89 f8                	mov    %edi,%eax
    62ab:	89 75 f8             	mov    %esi,-0x8(%rbp)
    62ae:	88 45 fc             	mov    %al,-0x4(%rbp)
    62b1:	80 7d fc 00          	cmpb   $0x0,-0x4(%rbp)
    62b5:	78 31                	js     62e8 <safe_lshift_func_int8_t_s_s+0x47>
    62b7:	83 7d f8 00          	cmpl   $0x0,-0x8(%rbp)
    62bb:	78 2b                	js     62e8 <safe_lshift_func_int8_t_s_s+0x47>
    62bd:	83 7d f8 1f          	cmpl   $0x1f,-0x8(%rbp)
    62c1:	7f 25                	jg     62e8 <safe_lshift_func_int8_t_s_s+0x47>
    62c3:	0f be 55 fc          	movsbl -0x4(%rbp),%edx
    62c7:	8b 45 f8             	mov    -0x8(%rbp),%eax
    62ca:	be 7f 00 00 00       	mov    $0x7f,%esi
    62cf:	89 c1                	mov    %eax,%ecx
    62d1:	d3 fe                	sar    %cl,%esi
    62d3:	89 f0                	mov    %esi,%eax
    62d5:	39 c2                	cmp    %eax,%edx
    62d7:	7f 0f                	jg     62e8 <safe_lshift_func_int8_t_s_s+0x47>
    62d9:	0f be 55 fc          	movsbl -0x4(%rbp),%edx
    62dd:	8b 45 f8             	mov    -0x8(%rbp),%eax
    62e0:	89 c1                	mov    %eax,%ecx
    62e2:	d3 e2                	shl    %cl,%edx
    62e4:	89 d0                	mov    %edx,%eax
    62e6:	eb 04                	jmp    62ec <safe_lshift_func_int8_t_s_s+0x4b>
    62e8:	0f b6 45 fc          	movzbl -0x4(%rbp),%eax
    62ec:	5d                   	pop    %rbp
    62ed:	c3                   	retq   

00000000000062ee <safe_lshift_func_int8_t_s_u>:
    62ee:	f3 0f 1e fa          	endbr64 
    62f2:	55                   	push   %rbp
    62f3:	48 89 e5             	mov    %rsp,%rbp
    62f6:	89 f8                	mov    %edi,%eax
    62f8:	89 75 f8             	mov    %esi,-0x8(%rbp)
    62fb:	88 45 fc             	mov    %al,-0x4(%rbp)
    62fe:	80 7d fc 00          	cmpb   $0x0,-0x4(%rbp)
    6302:	78 2b                	js     632f <safe_lshift_func_int8_t_s_u+0x41>
    6304:	83 7d f8 1f          	cmpl   $0x1f,-0x8(%rbp)
    6308:	77 25                	ja     632f <safe_lshift_func_int8_t_s_u+0x41>
    630a:	0f be 55 fc          	movsbl -0x4(%rbp),%edx
    630e:	8b 45 f8             	mov    -0x8(%rbp),%eax
    6311:	be 7f 00 00 00       	mov    $0x7f,%esi
    6316:	89 c1                	mov    %eax,%ecx
    6318:	d3 fe                	sar    %cl,%esi
    631a:	89 f0                	mov    %esi,%eax
    631c:	39 c2                	cmp    %eax,%edx
    631e:	7f 0f                	jg     632f <safe_lshift_func_int8_t_s_u+0x41>
    6320:	0f be 55 fc          	movsbl -0x4(%rbp),%edx
    6324:	8b 45 f8             	mov    -0x8(%rbp),%eax
    6327:	89 c1                	mov    %eax,%ecx
    6329:	d3 e2                	shl    %cl,%edx
    632b:	89 d0                	mov    %edx,%eax
    632d:	eb 04                	jmp    6333 <safe_lshift_func_int8_t_s_u+0x45>
    632f:	0f b6 45 fc          	movzbl -0x4(%rbp),%eax
    6333:	5d                   	pop    %rbp
    6334:	c3                   	retq   

0000000000006335 <safe_rshift_func_int8_t_s_s>:
    6335:	f3 0f 1e fa          	endbr64 
    6339:	55                   	push   %rbp
    633a:	48 89 e5             	mov    %rsp,%rbp
    633d:	89 f8                	mov    %edi,%eax
    633f:	89 75 f8             	mov    %esi,-0x8(%rbp)
    6342:	88 45 fc             	mov    %al,-0x4(%rbp)
    6345:	80 7d fc 00          	cmpb   $0x0,-0x4(%rbp)
    6349:	78 1b                	js     6366 <safe_rshift_func_int8_t_s_s+0x31>
    634b:	83 7d f8 00          	cmpl   $0x0,-0x8(%rbp)
    634f:	78 15                	js     6366 <safe_rshift_func_int8_t_s_s+0x31>
    6351:	83 7d f8 1f          	cmpl   $0x1f,-0x8(%rbp)
    6355:	7f 0f                	jg     6366 <safe_rshift_func_int8_t_s_s+0x31>
    6357:	0f be 55 fc          	movsbl -0x4(%rbp),%edx
    635b:	8b 45 f8             	mov    -0x8(%rbp),%eax
    635e:	89 c1                	mov    %eax,%ecx
    6360:	d3 fa                	sar    %cl,%edx
    6362:	89 d0                	mov    %edx,%eax
    6364:	eb 04                	jmp    636a <safe_rshift_func_int8_t_s_s+0x35>
    6366:	0f b6 45 fc          	movzbl -0x4(%rbp),%eax
    636a:	5d                   	pop    %rbp
    636b:	c3                   	retq   

000000000000636c <safe_rshift_func_int8_t_s_u>:
    636c:	f3 0f 1e fa          	endbr64 
    6370:	55                   	push   %rbp
    6371:	48 89 e5             	mov    %rsp,%rbp
    6374:	89 f8                	mov    %edi,%eax
    6376:	89 75 f8             	mov    %esi,-0x8(%rbp)
    6379:	88 45 fc             	mov    %al,-0x4(%rbp)
    637c:	80 7d fc 00          	cmpb   $0x0,-0x4(%rbp)
    6380:	78 15                	js     6397 <safe_rshift_func_int8_t_s_u+0x2b>
    6382:	83 7d f8 1f          	cmpl   $0x1f,-0x8(%rbp)
    6386:	77 0f                	ja     6397 <safe_rshift_func_int8_t_s_u+0x2b>
    6388:	0f be 55 fc          	movsbl -0x4(%rbp),%edx
    638c:	8b 45 f8             	mov    -0x8(%rbp),%eax
    638f:	89 c1                	mov    %eax,%ecx
    6391:	d3 fa                	sar    %cl,%edx
    6393:	89 d0                	mov    %edx,%eax
    6395:	eb 04                	jmp    639b <safe_rshift_func_int8_t_s_u+0x2f>
    6397:	0f b6 45 fc          	movzbl -0x4(%rbp),%eax
    639b:	5d                   	pop    %rbp
    639c:	c3                   	retq   

000000000000639d <safe_unary_minus_func_int16_t_s>:
    639d:	f3 0f 1e fa          	endbr64 
    63a1:	55                   	push   %rbp
    63a2:	48 89 e5             	mov    %rsp,%rbp
    63a5:	89 f8                	mov    %edi,%eax
    63a7:	66 89 45 fc          	mov    %ax,-0x4(%rbp)
    63ab:	0f b7 45 fc          	movzwl -0x4(%rbp),%eax
    63af:	f7 d8                	neg    %eax
    63b1:	5d                   	pop    %rbp
    63b2:	c3                   	retq   

00000000000063b3 <safe_add_func_int16_t_s_s>:
    63b3:	f3 0f 1e fa          	endbr64 
    63b7:	55                   	push   %rbp
    63b8:	48 89 e5             	mov    %rsp,%rbp
    63bb:	89 fa                	mov    %edi,%edx
    63bd:	89 f0                	mov    %esi,%eax
    63bf:	66 89 55 fc          	mov    %dx,-0x4(%rbp)
    63c3:	66 89 45 f8          	mov    %ax,-0x8(%rbp)
    63c7:	0f b7 55 fc          	movzwl -0x4(%rbp),%edx
    63cb:	0f b7 45 f8          	movzwl -0x8(%rbp),%eax
    63cf:	01 d0                	add    %edx,%eax
    63d1:	5d                   	pop    %rbp
    63d2:	c3                   	retq   

00000000000063d3 <safe_sub_func_int16_t_s_s>:
    63d3:	f3 0f 1e fa          	endbr64 
    63d7:	55                   	push   %rbp
    63d8:	48 89 e5             	mov    %rsp,%rbp
    63db:	89 fa                	mov    %edi,%edx
    63dd:	89 f0                	mov    %esi,%eax
    63df:	66 89 55 fc          	mov    %dx,-0x4(%rbp)
    63e3:	66 89 45 f8          	mov    %ax,-0x8(%rbp)
    63e7:	0f b7 55 fc          	movzwl -0x4(%rbp),%edx
    63eb:	0f b7 45 f8          	movzwl -0x8(%rbp),%eax
    63ef:	29 c2                	sub    %eax,%edx
    63f1:	89 d0                	mov    %edx,%eax
    63f3:	5d                   	pop    %rbp
    63f4:	c3                   	retq   

00000000000063f5 <safe_mul_func_int16_t_s_s>:
    63f5:	f3 0f 1e fa          	endbr64 
    63f9:	55                   	push   %rbp
    63fa:	48 89 e5             	mov    %rsp,%rbp
    63fd:	89 fa                	mov    %edi,%edx
    63ff:	89 f0                	mov    %esi,%eax
    6401:	66 89 55 fc          	mov    %dx,-0x4(%rbp)
    6405:	66 89 45 f8          	mov    %ax,-0x8(%rbp)
    6409:	0f b7 55 fc          	movzwl -0x4(%rbp),%edx
    640d:	0f b7 45 f8          	movzwl -0x8(%rbp),%eax
    6411:	0f af c2             	imul   %edx,%eax
    6414:	5d                   	pop    %rbp
    6415:	c3                   	retq   

0000000000006416 <safe_mod_func_int16_t_s_s>:
    6416:	f3 0f 1e fa          	endbr64 
    641a:	55                   	push   %rbp
    641b:	48 89 e5             	mov    %rsp,%rbp
    641e:	89 fa                	mov    %edi,%edx
    6420:	89 f0                	mov    %esi,%eax
    6422:	66 89 55 fc          	mov    %dx,-0x4(%rbp)
    6426:	66 89 45 f8          	mov    %ax,-0x8(%rbp)
    642a:	66 83 7d f8 00       	cmpw   $0x0,-0x8(%rbp)
    642f:	74 1e                	je     644f <safe_mod_func_int16_t_s_s+0x39>
    6431:	66 81 7d fc 00 80    	cmpw   $0x8000,-0x4(%rbp)
    6437:	75 07                	jne    6440 <safe_mod_func_int16_t_s_s+0x2a>
    6439:	66 83 7d f8 ff       	cmpw   $0xffff,-0x8(%rbp)
    643e:	74 0f                	je     644f <safe_mod_func_int16_t_s_s+0x39>
    6440:	0f bf 45 fc          	movswl -0x4(%rbp),%eax
    6444:	0f bf 4d f8          	movswl -0x8(%rbp),%ecx
    6448:	99                   	cltd   
    6449:	f7 f9                	idiv   %ecx
    644b:	89 d0                	mov    %edx,%eax
    644d:	eb 04                	jmp    6453 <safe_mod_func_int16_t_s_s+0x3d>
    644f:	0f b7 45 fc          	movzwl -0x4(%rbp),%eax
    6453:	5d                   	pop    %rbp
    6454:	c3                   	retq   

0000000000006455 <safe_div_func_int16_t_s_s>:
    6455:	f3 0f 1e fa          	endbr64 
    6459:	55                   	push   %rbp
    645a:	48 89 e5             	mov    %rsp,%rbp
    645d:	89 fa                	mov    %edi,%edx
    645f:	89 f0                	mov    %esi,%eax
    6461:	66 89 55 fc          	mov    %dx,-0x4(%rbp)
    6465:	66 89 45 f8          	mov    %ax,-0x8(%rbp)
    6469:	66 83 7d f8 00       	cmpw   $0x0,-0x8(%rbp)
    646e:	74 1c                	je     648c <safe_div_func_int16_t_s_s+0x37>
    6470:	66 81 7d fc 00 80    	cmpw   $0x8000,-0x4(%rbp)
    6476:	75 07                	jne    647f <safe_div_func_int16_t_s_s+0x2a>
    6478:	66 83 7d f8 ff       	cmpw   $0xffff,-0x8(%rbp)
    647d:	74 0d                	je     648c <safe_div_func_int16_t_s_s+0x37>
    647f:	0f bf 45 fc          	movswl -0x4(%rbp),%eax
    6483:	0f bf 4d f8          	movswl -0x8(%rbp),%ecx
    6487:	99                   	cltd   
    6488:	f7 f9                	idiv   %ecx
    648a:	eb 04                	jmp    6490 <safe_div_func_int16_t_s_s+0x3b>
    648c:	0f b7 45 fc          	movzwl -0x4(%rbp),%eax
    6490:	5d                   	pop    %rbp
    6491:	c3                   	retq   

0000000000006492 <safe_lshift_func_int16_t_s_s>:
    6492:	f3 0f 1e fa          	endbr64 
    6496:	55                   	push   %rbp
    6497:	48 89 e5             	mov    %rsp,%rbp
    649a:	89 f8                	mov    %edi,%eax
    649c:	89 75 f8             	mov    %esi,-0x8(%rbp)
    649f:	66 89 45 fc          	mov    %ax,-0x4(%rbp)
    64a3:	66 83 7d fc 00       	cmpw   $0x0,-0x4(%rbp)
    64a8:	78 31                	js     64db <safe_lshift_func_int16_t_s_s+0x49>
    64aa:	83 7d f8 00          	cmpl   $0x0,-0x8(%rbp)
    64ae:	78 2b                	js     64db <safe_lshift_func_int16_t_s_s+0x49>
    64b0:	83 7d f8 1f          	cmpl   $0x1f,-0x8(%rbp)
    64b4:	7f 25                	jg     64db <safe_lshift_func_int16_t_s_s+0x49>
    64b6:	0f bf 55 fc          	movswl -0x4(%rbp),%edx
    64ba:	8b 45 f8             	mov    -0x8(%rbp),%eax
    64bd:	be ff 7f 00 00       	mov    $0x7fff,%esi
    64c2:	89 c1                	mov    %eax,%ecx
    64c4:	d3 fe                	sar    %cl,%esi
    64c6:	89 f0                	mov    %esi,%eax
    64c8:	39 c2                	cmp    %eax,%edx
    64ca:	7f 0f                	jg     64db <safe_lshift_func_int16_t_s_s+0x49>
    64cc:	0f bf 55 fc          	movswl -0x4(%rbp),%edx
    64d0:	8b 45 f8             	mov    -0x8(%rbp),%eax
    64d3:	89 c1                	mov    %eax,%ecx
    64d5:	d3 e2                	shl    %cl,%edx
    64d7:	89 d0                	mov    %edx,%eax
    64d9:	eb 04                	jmp    64df <safe_lshift_func_int16_t_s_s+0x4d>
    64db:	0f b7 45 fc          	movzwl -0x4(%rbp),%eax
    64df:	5d                   	pop    %rbp
    64e0:	c3                   	retq   

00000000000064e1 <safe_lshift_func_int16_t_s_u>:
    64e1:	f3 0f 1e fa          	endbr64 
    64e5:	55                   	push   %rbp
    64e6:	48 89 e5             	mov    %rsp,%rbp
    64e9:	89 f8                	mov    %edi,%eax
    64eb:	89 75 f8             	mov    %esi,-0x8(%rbp)
    64ee:	66 89 45 fc          	mov    %ax,-0x4(%rbp)
    64f2:	66 83 7d fc 00       	cmpw   $0x0,-0x4(%rbp)
    64f7:	78 2b                	js     6524 <safe_lshift_func_int16_t_s_u+0x43>
    64f9:	83 7d f8 1f          	cmpl   $0x1f,-0x8(%rbp)
    64fd:	77 25                	ja     6524 <safe_lshift_func_int16_t_s_u+0x43>
    64ff:	0f bf 55 fc          	movswl -0x4(%rbp),%edx
    6503:	8b 45 f8             	mov    -0x8(%rbp),%eax
    6506:	be ff 7f 00 00       	mov    $0x7fff,%esi
    650b:	89 c1                	mov    %eax,%ecx
    650d:	d3 fe                	sar    %cl,%esi
    650f:	89 f0                	mov    %esi,%eax
    6511:	39 c2                	cmp    %eax,%edx
    6513:	7f 0f                	jg     6524 <safe_lshift_func_int16_t_s_u+0x43>
    6515:	0f bf 55 fc          	movswl -0x4(%rbp),%edx
    6519:	8b 45 f8             	mov    -0x8(%rbp),%eax
    651c:	89 c1                	mov    %eax,%ecx
    651e:	d3 e2                	shl    %cl,%edx
    6520:	89 d0                	mov    %edx,%eax
    6522:	eb 04                	jmp    6528 <safe_lshift_func_int16_t_s_u+0x47>
    6524:	0f b7 45 fc          	movzwl -0x4(%rbp),%eax
    6528:	5d                   	pop    %rbp
    6529:	c3                   	retq   

000000000000652a <safe_rshift_func_int16_t_s_s>:
    652a:	f3 0f 1e fa          	endbr64 
    652e:	55                   	push   %rbp
    652f:	48 89 e5             	mov    %rsp,%rbp
    6532:	89 f8                	mov    %edi,%eax
    6534:	89 75 f8             	mov    %esi,-0x8(%rbp)
    6537:	66 89 45 fc          	mov    %ax,-0x4(%rbp)
    653b:	66 83 7d fc 00       	cmpw   $0x0,-0x4(%rbp)
    6540:	78 1b                	js     655d <safe_rshift_func_int16_t_s_s+0x33>
    6542:	83 7d f8 00          	cmpl   $0x0,-0x8(%rbp)
    6546:	78 15                	js     655d <safe_rshift_func_int16_t_s_s+0x33>
    6548:	83 7d f8 1f          	cmpl   $0x1f,-0x8(%rbp)
    654c:	7f 0f                	jg     655d <safe_rshift_func_int16_t_s_s+0x33>
    654e:	0f bf 55 fc          	movswl -0x4(%rbp),%edx
    6552:	8b 45 f8             	mov    -0x8(%rbp),%eax
    6555:	89 c1                	mov    %eax,%ecx
    6557:	d3 fa                	sar    %cl,%edx
    6559:	89 d0                	mov    %edx,%eax
    655b:	eb 04                	jmp    6561 <safe_rshift_func_int16_t_s_s+0x37>
    655d:	0f b7 45 fc          	movzwl -0x4(%rbp),%eax
    6561:	5d                   	pop    %rbp
    6562:	c3                   	retq   

0000000000006563 <safe_rshift_func_int16_t_s_u>:
    6563:	f3 0f 1e fa          	endbr64 
    6567:	55                   	push   %rbp
    6568:	48 89 e5             	mov    %rsp,%rbp
    656b:	89 f8                	mov    %edi,%eax
    656d:	89 75 f8             	mov    %esi,-0x8(%rbp)
    6570:	66 89 45 fc          	mov    %ax,-0x4(%rbp)
    6574:	66 83 7d fc 00       	cmpw   $0x0,-0x4(%rbp)
    6579:	78 15                	js     6590 <safe_rshift_func_int16_t_s_u+0x2d>
    657b:	83 7d f8 1f          	cmpl   $0x1f,-0x8(%rbp)
    657f:	77 0f                	ja     6590 <safe_rshift_func_int16_t_s_u+0x2d>
    6581:	0f bf 55 fc          	movswl -0x4(%rbp),%edx
    6585:	8b 45 f8             	mov    -0x8(%rbp),%eax
    6588:	89 c1                	mov    %eax,%ecx
    658a:	d3 fa                	sar    %cl,%edx
    658c:	89 d0                	mov    %edx,%eax
    658e:	eb 04                	jmp    6594 <safe_rshift_func_int16_t_s_u+0x31>
    6590:	0f b7 45 fc          	movzwl -0x4(%rbp),%eax
    6594:	5d                   	pop    %rbp
    6595:	c3                   	retq   

0000000000006596 <safe_unary_minus_func_int32_t_s>:
    6596:	f3 0f 1e fa          	endbr64 
    659a:	55                   	push   %rbp
    659b:	48 89 e5             	mov    %rsp,%rbp
    659e:	89 7d fc             	mov    %edi,-0x4(%rbp)
    65a1:	81 7d fc 00 00 00 80 	cmpl   $0x80000000,-0x4(%rbp)
    65a8:	74 07                	je     65b1 <safe_unary_minus_func_int32_t_s+0x1b>
    65aa:	8b 45 fc             	mov    -0x4(%rbp),%eax
    65ad:	f7 d8                	neg    %eax
    65af:	eb 03                	jmp    65b4 <safe_unary_minus_func_int32_t_s+0x1e>
    65b1:	8b 45 fc             	mov    -0x4(%rbp),%eax
    65b4:	5d                   	pop    %rbp
    65b5:	c3                   	retq   

00000000000065b6 <safe_add_func_int32_t_s_s>:
    65b6:	f3 0f 1e fa          	endbr64 
    65ba:	55                   	push   %rbp
    65bb:	48 89 e5             	mov    %rsp,%rbp
    65be:	89 7d fc             	mov    %edi,-0x4(%rbp)
    65c1:	89 75 f8             	mov    %esi,-0x8(%rbp)
    65c4:	83 7d fc 00          	cmpl   $0x0,-0x4(%rbp)
    65c8:	7e 13                	jle    65dd <safe_add_func_int32_t_s_s+0x27>
    65ca:	83 7d f8 00          	cmpl   $0x0,-0x8(%rbp)
    65ce:	7e 0d                	jle    65dd <safe_add_func_int32_t_s_s+0x27>
    65d0:	b8 ff ff ff 7f       	mov    $0x7fffffff,%eax
    65d5:	2b 45 f8             	sub    -0x8(%rbp),%eax
    65d8:	39 45 fc             	cmp    %eax,-0x4(%rbp)
    65db:	7f 23                	jg     6600 <safe_add_func_int32_t_s_s+0x4a>
    65dd:	83 7d fc 00          	cmpl   $0x0,-0x4(%rbp)
    65e1:	79 13                	jns    65f6 <safe_add_func_int32_t_s_s+0x40>
    65e3:	83 7d f8 00          	cmpl   $0x0,-0x8(%rbp)
    65e7:	79 0d                	jns    65f6 <safe_add_func_int32_t_s_s+0x40>
    65e9:	b8 00 00 00 80       	mov    $0x80000000,%eax
    65ee:	2b 45 f8             	sub    -0x8(%rbp),%eax
    65f1:	39 45 fc             	cmp    %eax,-0x4(%rbp)
    65f4:	7c 0a                	jl     6600 <safe_add_func_int32_t_s_s+0x4a>
    65f6:	8b 55 fc             	mov    -0x4(%rbp),%edx
    65f9:	8b 45 f8             	mov    -0x8(%rbp),%eax
    65fc:	01 d0                	add    %edx,%eax
    65fe:	eb 03                	jmp    6603 <safe_add_func_int32_t_s_s+0x4d>
    6600:	8b 45 fc             	mov    -0x4(%rbp),%eax
    6603:	5d                   	pop    %rbp
    6604:	c3                   	retq   

0000000000006605 <safe_sub_func_int32_t_s_s>:
    6605:	f3 0f 1e fa          	endbr64 
    6609:	55                   	push   %rbp
    660a:	48 89 e5             	mov    %rsp,%rbp
    660d:	89 7d fc             	mov    %edi,-0x4(%rbp)
    6610:	89 75 f8             	mov    %esi,-0x8(%rbp)
    6613:	8b 45 fc             	mov    -0x4(%rbp),%eax
    6616:	33 45 f8             	xor    -0x8(%rbp),%eax
    6619:	89 c2                	mov    %eax,%edx
    661b:	8b 45 fc             	mov    -0x4(%rbp),%eax
    661e:	33 45 f8             	xor    -0x8(%rbp),%eax
    6621:	25 00 00 00 80       	and    $0x80000000,%eax
    6626:	33 45 fc             	xor    -0x4(%rbp),%eax
    6629:	2b 45 f8             	sub    -0x8(%rbp),%eax
    662c:	33 45 f8             	xor    -0x8(%rbp),%eax
    662f:	21 d0                	and    %edx,%eax
    6631:	85 c0                	test   %eax,%eax
    6633:	78 08                	js     663d <safe_sub_func_int32_t_s_s+0x38>
    6635:	8b 45 fc             	mov    -0x4(%rbp),%eax
    6638:	2b 45 f8             	sub    -0x8(%rbp),%eax
    663b:	eb 03                	jmp    6640 <safe_sub_func_int32_t_s_s+0x3b>
    663d:	8b 45 fc             	mov    -0x4(%rbp),%eax
    6640:	5d                   	pop    %rbp
    6641:	c3                   	retq   

0000000000006642 <safe_mul_func_int32_t_s_s>:
    6642:	f3 0f 1e fa          	endbr64 
    6646:	55                   	push   %rbp
    6647:	48 89 e5             	mov    %rsp,%rbp
    664a:	89 7d fc             	mov    %edi,-0x4(%rbp)
    664d:	89 75 f8             	mov    %esi,-0x8(%rbp)
    6650:	83 7d fc 00          	cmpl   $0x0,-0x4(%rbp)
    6654:	7e 14                	jle    666a <safe_mul_func_int32_t_s_s+0x28>
    6656:	83 7d f8 00          	cmpl   $0x0,-0x8(%rbp)
    665a:	7e 0e                	jle    666a <safe_mul_func_int32_t_s_s+0x28>
    665c:	b8 ff ff ff 7f       	mov    $0x7fffffff,%eax
    6661:	99                   	cltd   
    6662:	f7 7d f8             	idivl  -0x8(%rbp)
    6665:	39 45 fc             	cmp    %eax,-0x4(%rbp)
    6668:	7f 5d                	jg     66c7 <safe_mul_func_int32_t_s_s+0x85>
    666a:	83 7d fc 00          	cmpl   $0x0,-0x4(%rbp)
    666e:	7e 14                	jle    6684 <safe_mul_func_int32_t_s_s+0x42>
    6670:	83 7d f8 00          	cmpl   $0x0,-0x8(%rbp)
    6674:	7f 0e                	jg     6684 <safe_mul_func_int32_t_s_s+0x42>
    6676:	b8 00 00 00 80       	mov    $0x80000000,%eax
    667b:	99                   	cltd   
    667c:	f7 7d fc             	idivl  -0x4(%rbp)
    667f:	39 45 f8             	cmp    %eax,-0x8(%rbp)
    6682:	7c 43                	jl     66c7 <safe_mul_func_int32_t_s_s+0x85>
    6684:	83 7d fc 00          	cmpl   $0x0,-0x4(%rbp)
    6688:	7f 14                	jg     669e <safe_mul_func_int32_t_s_s+0x5c>
    668a:	83 7d f8 00          	cmpl   $0x0,-0x8(%rbp)
    668e:	7e 0e                	jle    669e <safe_mul_func_int32_t_s_s+0x5c>
    6690:	b8 00 00 00 80       	mov    $0x80000000,%eax
    6695:	99                   	cltd   
    6696:	f7 7d f8             	idivl  -0x8(%rbp)
    6699:	39 45 fc             	cmp    %eax,-0x4(%rbp)
    669c:	7c 29                	jl     66c7 <safe_mul_func_int32_t_s_s+0x85>
    669e:	83 7d fc 00          	cmpl   $0x0,-0x4(%rbp)
    66a2:	7f 1a                	jg     66be <safe_mul_func_int32_t_s_s+0x7c>
    66a4:	83 7d f8 00          	cmpl   $0x0,-0x8(%rbp)
    66a8:	7f 14                	jg     66be <safe_mul_func_int32_t_s_s+0x7c>
    66aa:	83 7d fc 00          	cmpl   $0x0,-0x4(%rbp)
    66ae:	74 0e                	je     66be <safe_mul_func_int32_t_s_s+0x7c>
    66b0:	b8 ff ff ff 7f       	mov    $0x7fffffff,%eax
    66b5:	99                   	cltd   
    66b6:	f7 7d fc             	idivl  -0x4(%rbp)
    66b9:	39 45 f8             	cmp    %eax,-0x8(%rbp)
    66bc:	7c 09                	jl     66c7 <safe_mul_func_int32_t_s_s+0x85>
    66be:	8b 45 fc             	mov    -0x4(%rbp),%eax
    66c1:	0f af 45 f8          	imul   -0x8(%rbp),%eax
    66c5:	eb 03                	jmp    66ca <safe_mul_func_int32_t_s_s+0x88>
    66c7:	8b 45 fc             	mov    -0x4(%rbp),%eax
    66ca:	5d                   	pop    %rbp
    66cb:	c3                   	retq   

00000000000066cc <safe_mod_func_int32_t_s_s>:
    66cc:	f3 0f 1e fa          	endbr64 
    66d0:	55                   	push   %rbp
    66d1:	48 89 e5             	mov    %rsp,%rbp
    66d4:	89 7d fc             	mov    %edi,-0x4(%rbp)
    66d7:	89 75 f8             	mov    %esi,-0x8(%rbp)
    66da:	83 7d f8 00          	cmpl   $0x0,-0x8(%rbp)
    66de:	74 1a                	je     66fa <safe_mod_func_int32_t_s_s+0x2e>
    66e0:	81 7d fc 00 00 00 80 	cmpl   $0x80000000,-0x4(%rbp)
    66e7:	75 06                	jne    66ef <safe_mod_func_int32_t_s_s+0x23>
    66e9:	83 7d f8 ff          	cmpl   $0xffffffff,-0x8(%rbp)
    66ed:	74 0b                	je     66fa <safe_mod_func_int32_t_s_s+0x2e>
    66ef:	8b 45 fc             	mov    -0x4(%rbp),%eax
    66f2:	99                   	cltd   
    66f3:	f7 7d f8             	idivl  -0x8(%rbp)
    66f6:	89 d0                	mov    %edx,%eax
    66f8:	eb 03                	jmp    66fd <safe_mod_func_int32_t_s_s+0x31>
    66fa:	8b 45 fc             	mov    -0x4(%rbp),%eax
    66fd:	5d                   	pop    %rbp
    66fe:	c3                   	retq   

00000000000066ff <safe_div_func_int32_t_s_s>:
    66ff:	f3 0f 1e fa          	endbr64 
    6703:	55                   	push   %rbp
    6704:	48 89 e5             	mov    %rsp,%rbp
    6707:	89 7d fc             	mov    %edi,-0x4(%rbp)
    670a:	89 75 f8             	mov    %esi,-0x8(%rbp)
    670d:	83 7d f8 00          	cmpl   $0x0,-0x8(%rbp)
    6711:	74 18                	je     672b <safe_div_func_int32_t_s_s+0x2c>
    6713:	81 7d fc 00 00 00 80 	cmpl   $0x80000000,-0x4(%rbp)
    671a:	75 06                	jne    6722 <safe_div_func_int32_t_s_s+0x23>
    671c:	83 7d f8 ff          	cmpl   $0xffffffff,-0x8(%rbp)
    6720:	74 09                	je     672b <safe_div_func_int32_t_s_s+0x2c>
    6722:	8b 45 fc             	mov    -0x4(%rbp),%eax
    6725:	99                   	cltd   
    6726:	f7 7d f8             	idivl  -0x8(%rbp)
    6729:	eb 03                	jmp    672e <safe_div_func_int32_t_s_s+0x2f>
    672b:	8b 45 fc             	mov    -0x4(%rbp),%eax
    672e:	5d                   	pop    %rbp
    672f:	c3                   	retq   

0000000000006730 <safe_lshift_func_int32_t_s_s>:
    6730:	f3 0f 1e fa          	endbr64 
    6734:	55                   	push   %rbp
    6735:	48 89 e5             	mov    %rsp,%rbp
    6738:	89 7d fc             	mov    %edi,-0x4(%rbp)
    673b:	89 75 f8             	mov    %esi,-0x8(%rbp)
    673e:	83 7d fc 00          	cmpl   $0x0,-0x4(%rbp)
    6742:	78 2d                	js     6771 <safe_lshift_func_int32_t_s_s+0x41>
    6744:	83 7d f8 00          	cmpl   $0x0,-0x8(%rbp)
    6748:	78 27                	js     6771 <safe_lshift_func_int32_t_s_s+0x41>
    674a:	83 7d f8 1f          	cmpl   $0x1f,-0x8(%rbp)
    674e:	7f 21                	jg     6771 <safe_lshift_func_int32_t_s_s+0x41>
    6750:	8b 45 f8             	mov    -0x8(%rbp),%eax
    6753:	ba ff ff ff 7f       	mov    $0x7fffffff,%edx
    6758:	89 c1                	mov    %eax,%ecx
    675a:	d3 fa                	sar    %cl,%edx
    675c:	89 d0                	mov    %edx,%eax
    675e:	39 45 fc             	cmp    %eax,-0x4(%rbp)
    6761:	7f 0e                	jg     6771 <safe_lshift_func_int32_t_s_s+0x41>
    6763:	8b 45 f8             	mov    -0x8(%rbp),%eax
    6766:	8b 55 fc             	mov    -0x4(%rbp),%edx
    6769:	89 c1                	mov    %eax,%ecx
    676b:	d3 e2                	shl    %cl,%edx
    676d:	89 d0                	mov    %edx,%eax
    676f:	eb 03                	jmp    6774 <safe_lshift_func_int32_t_s_s+0x44>
    6771:	8b 45 fc             	mov    -0x4(%rbp),%eax
    6774:	5d                   	pop    %rbp
    6775:	c3                   	retq   

0000000000006776 <safe_lshift_func_int32_t_s_u>:
    6776:	f3 0f 1e fa          	endbr64 
    677a:	55                   	push   %rbp
    677b:	48 89 e5             	mov    %rsp,%rbp
    677e:	89 7d fc             	mov    %edi,-0x4(%rbp)
    6781:	89 75 f8             	mov    %esi,-0x8(%rbp)
    6784:	83 7d fc 00          	cmpl   $0x0,-0x4(%rbp)
    6788:	78 27                	js     67b1 <safe_lshift_func_int32_t_s_u+0x3b>
    678a:	83 7d f8 1f          	cmpl   $0x1f,-0x8(%rbp)
    678e:	77 21                	ja     67b1 <safe_lshift_func_int32_t_s_u+0x3b>
    6790:	8b 45 f8             	mov    -0x8(%rbp),%eax
    6793:	ba ff ff ff 7f       	mov    $0x7fffffff,%edx
    6798:	89 c1                	mov    %eax,%ecx
    679a:	d3 fa                	sar    %cl,%edx
    679c:	89 d0                	mov    %edx,%eax
    679e:	39 45 fc             	cmp    %eax,-0x4(%rbp)
    67a1:	7f 0e                	jg     67b1 <safe_lshift_func_int32_t_s_u+0x3b>
    67a3:	8b 45 f8             	mov    -0x8(%rbp),%eax
    67a6:	8b 55 fc             	mov    -0x4(%rbp),%edx
    67a9:	89 c1                	mov    %eax,%ecx
    67ab:	d3 e2                	shl    %cl,%edx
    67ad:	89 d0                	mov    %edx,%eax
    67af:	eb 03                	jmp    67b4 <safe_lshift_func_int32_t_s_u+0x3e>
    67b1:	8b 45 fc             	mov    -0x4(%rbp),%eax
    67b4:	5d                   	pop    %rbp
    67b5:	c3                   	retq   

00000000000067b6 <safe_rshift_func_int32_t_s_s>:
    67b6:	f3 0f 1e fa          	endbr64 
    67ba:	55                   	push   %rbp
    67bb:	48 89 e5             	mov    %rsp,%rbp
    67be:	89 7d fc             	mov    %edi,-0x4(%rbp)
    67c1:	89 75 f8             	mov    %esi,-0x8(%rbp)
    67c4:	83 7d fc 00          	cmpl   $0x0,-0x4(%rbp)
    67c8:	78 1a                	js     67e4 <safe_rshift_func_int32_t_s_s+0x2e>
    67ca:	83 7d f8 00          	cmpl   $0x0,-0x8(%rbp)
    67ce:	78 14                	js     67e4 <safe_rshift_func_int32_t_s_s+0x2e>
    67d0:	83 7d f8 1f          	cmpl   $0x1f,-0x8(%rbp)
    67d4:	7f 0e                	jg     67e4 <safe_rshift_func_int32_t_s_s+0x2e>
    67d6:	8b 45 f8             	mov    -0x8(%rbp),%eax
    67d9:	8b 55 fc             	mov    -0x4(%rbp),%edx
    67dc:	89 c1                	mov    %eax,%ecx
    67de:	d3 fa                	sar    %cl,%edx
    67e0:	89 d0                	mov    %edx,%eax
    67e2:	eb 03                	jmp    67e7 <safe_rshift_func_int32_t_s_s+0x31>
    67e4:	8b 45 fc             	mov    -0x4(%rbp),%eax
    67e7:	5d                   	pop    %rbp
    67e8:	c3                   	retq   

00000000000067e9 <safe_rshift_func_int32_t_s_u>:
    67e9:	f3 0f 1e fa          	endbr64 
    67ed:	55                   	push   %rbp
    67ee:	48 89 e5             	mov    %rsp,%rbp
    67f1:	89 7d fc             	mov    %edi,-0x4(%rbp)
    67f4:	89 75 f8             	mov    %esi,-0x8(%rbp)
    67f7:	83 7d fc 00          	cmpl   $0x0,-0x4(%rbp)
    67fb:	78 14                	js     6811 <safe_rshift_func_int32_t_s_u+0x28>
    67fd:	83 7d f8 1f          	cmpl   $0x1f,-0x8(%rbp)
    6801:	77 0e                	ja     6811 <safe_rshift_func_int32_t_s_u+0x28>
    6803:	8b 45 f8             	mov    -0x8(%rbp),%eax
    6806:	8b 55 fc             	mov    -0x4(%rbp),%edx
    6809:	89 c1                	mov    %eax,%ecx
    680b:	d3 fa                	sar    %cl,%edx
    680d:	89 d0                	mov    %edx,%eax
    680f:	eb 03                	jmp    6814 <safe_rshift_func_int32_t_s_u+0x2b>
    6811:	8b 45 fc             	mov    -0x4(%rbp),%eax
    6814:	5d                   	pop    %rbp
    6815:	c3                   	retq   

0000000000006816 <safe_unary_minus_func_int64_t_s>:
    6816:	f3 0f 1e fa          	endbr64 
    681a:	55                   	push   %rbp
    681b:	48 89 e5             	mov    %rsp,%rbp
    681e:	48 89 7d f8          	mov    %rdi,-0x8(%rbp)
    6822:	48 b8 00 00 00 00 00 	movabs $0x8000000000000000,%rax
    6829:	00 00 80 
    682c:	48 39 45 f8          	cmp    %rax,-0x8(%rbp)
    6830:	74 09                	je     683b <safe_unary_minus_func_int64_t_s+0x25>
    6832:	48 8b 45 f8          	mov    -0x8(%rbp),%rax
    6836:	48 f7 d8             	neg    %rax
    6839:	eb 04                	jmp    683f <safe_unary_minus_func_int64_t_s+0x29>
    683b:	48 8b 45 f8          	mov    -0x8(%rbp),%rax
    683f:	5d                   	pop    %rbp
    6840:	c3                   	retq   

0000000000006841 <safe_add_func_int64_t_s_s>:
    6841:	f3 0f 1e fa          	endbr64 
    6845:	55                   	push   %rbp
    6846:	48 89 e5             	mov    %rsp,%rbp
    6849:	48 89 7d f8          	mov    %rdi,-0x8(%rbp)
    684d:	48 89 75 f0          	mov    %rsi,-0x10(%rbp)
    6851:	48 83 7d f8 00       	cmpq   $0x0,-0x8(%rbp)
    6856:	7e 1b                	jle    6873 <safe_add_func_int64_t_s_s+0x32>
    6858:	48 83 7d f0 00       	cmpq   $0x0,-0x10(%rbp)
    685d:	7e 14                	jle    6873 <safe_add_func_int64_t_s_s+0x32>
    685f:	48 b8 ff ff ff ff ff 	movabs $0x7fffffffffffffff,%rax
    6866:	ff ff 7f 
    6869:	48 2b 45 f0          	sub    -0x10(%rbp),%rax
    686d:	48 39 45 f8          	cmp    %rax,-0x8(%rbp)
    6871:	7f 2f                	jg     68a2 <safe_add_func_int64_t_s_s+0x61>
    6873:	48 83 7d f8 00       	cmpq   $0x0,-0x8(%rbp)
    6878:	79 1b                	jns    6895 <safe_add_func_int64_t_s_s+0x54>
    687a:	48 83 7d f0 00       	cmpq   $0x0,-0x10(%rbp)
    687f:	79 14                	jns    6895 <safe_add_func_int64_t_s_s+0x54>
    6881:	48 b8 00 00 00 00 00 	movabs $0x8000000000000000,%rax
    6888:	00 00 80 
    688b:	48 2b 45 f0          	sub    -0x10(%rbp),%rax
    688f:	48 39 45 f8          	cmp    %rax,-0x8(%rbp)
    6893:	7c 0d                	jl     68a2 <safe_add_func_int64_t_s_s+0x61>
    6895:	48 8b 55 f8          	mov    -0x8(%rbp),%rdx
    6899:	48 8b 45 f0          	mov    -0x10(%rbp),%rax
    689d:	48 01 d0             	add    %rdx,%rax
    68a0:	eb 04                	jmp    68a6 <safe_add_func_int64_t_s_s+0x65>
    68a2:	48 8b 45 f8          	mov    -0x8(%rbp),%rax
    68a6:	5d                   	pop    %rbp
    68a7:	c3                   	retq   

00000000000068a8 <safe_sub_func_int64_t_s_s>:
    68a8:	f3 0f 1e fa          	endbr64 
    68ac:	55                   	push   %rbp
    68ad:	48 89 e5             	mov    %rsp,%rbp
    68b0:	48 89 7d f8          	mov    %rdi,-0x8(%rbp)
    68b4:	48 89 75 f0          	mov    %rsi,-0x10(%rbp)
    68b8:	48 8b 45 f8          	mov    -0x8(%rbp),%rax
    68bc:	48 33 45 f0          	xor    -0x10(%rbp),%rax
    68c0:	48 89 c2             	mov    %rax,%rdx
    68c3:	48 8b 45 f8          	mov    -0x8(%rbp),%rax
    68c7:	48 33 45 f0          	xor    -0x10(%rbp),%rax
    68cb:	48 b9 00 00 00 00 00 	movabs $0x8000000000000000,%rcx
    68d2:	00 00 80 
    68d5:	48 21 c8             	and    %rcx,%rax
    68d8:	48 33 45 f8          	xor    -0x8(%rbp),%rax
    68dc:	48 2b 45 f0          	sub    -0x10(%rbp),%rax
    68e0:	48 33 45 f0          	xor    -0x10(%rbp),%rax
    68e4:	48 21 d0             	and    %rdx,%rax
    68e7:	48 85 c0             	test   %rax,%rax
    68ea:	78 0a                	js     68f6 <safe_sub_func_int64_t_s_s+0x4e>
    68ec:	48 8b 45 f8          	mov    -0x8(%rbp),%rax
    68f0:	48 2b 45 f0          	sub    -0x10(%rbp),%rax
    68f4:	eb 04                	jmp    68fa <safe_sub_func_int64_t_s_s+0x52>
    68f6:	48 8b 45 f8          	mov    -0x8(%rbp),%rax
    68fa:	5d                   	pop    %rbp
    68fb:	c3                   	retq   

00000000000068fc <safe_mul_func_int64_t_s_s>:
    68fc:	f3 0f 1e fa          	endbr64 
    6900:	55                   	push   %rbp
    6901:	48 89 e5             	mov    %rsp,%rbp
    6904:	48 89 7d f8          	mov    %rdi,-0x8(%rbp)
    6908:	48 89 75 f0          	mov    %rsi,-0x10(%rbp)
    690c:	48 83 7d f8 00       	cmpq   $0x0,-0x8(%rbp)
    6911:	7e 1d                	jle    6930 <safe_mul_func_int64_t_s_s+0x34>
    6913:	48 83 7d f0 00       	cmpq   $0x0,-0x10(%rbp)
    6918:	7e 16                	jle    6930 <safe_mul_func_int64_t_s_s+0x34>
    691a:	48 b8 ff ff ff ff ff 	movabs $0x7fffffffffffffff,%rax
    6921:	ff ff 7f 
    6924:	48 99                	cqto   
    6926:	48 f7 7d f0          	idivq  -0x10(%rbp)
    692a:	48 39 45 f8          	cmp    %rax,-0x8(%rbp)
    692e:	7f 7e                	jg     69ae <safe_mul_func_int64_t_s_s+0xb2>
    6930:	48 83 7d f8 00       	cmpq   $0x0,-0x8(%rbp)
    6935:	7e 1d                	jle    6954 <safe_mul_func_int64_t_s_s+0x58>
    6937:	48 83 7d f0 00       	cmpq   $0x0,-0x10(%rbp)
    693c:	7f 16                	jg     6954 <safe_mul_func_int64_t_s_s+0x58>
    693e:	48 b8 00 00 00 00 00 	movabs $0x8000000000000000,%rax
    6945:	00 00 80 
    6948:	48 99                	cqto   
    694a:	48 f7 7d f8          	idivq  -0x8(%rbp)
    694e:	48 39 45 f0          	cmp    %rax,-0x10(%rbp)
    6952:	7c 5a                	jl     69ae <safe_mul_func_int64_t_s_s+0xb2>
    6954:	48 83 7d f8 00       	cmpq   $0x0,-0x8(%rbp)
    6959:	7f 1d                	jg     6978 <safe_mul_func_int64_t_s_s+0x7c>
    695b:	48 83 7d f0 00       	cmpq   $0x0,-0x10(%rbp)
    6960:	7e 16                	jle    6978 <safe_mul_func_int64_t_s_s+0x7c>
    6962:	48 b8 00 00 00 00 00 	movabs $0x8000000000000000,%rax
    6969:	00 00 80 
    696c:	48 99                	cqto   
    696e:	48 f7 7d f0          	idivq  -0x10(%rbp)
    6972:	48 39 45 f8          	cmp    %rax,-0x8(%rbp)
    6976:	7c 36                	jl     69ae <safe_mul_func_int64_t_s_s+0xb2>
    6978:	48 83 7d f8 00       	cmpq   $0x0,-0x8(%rbp)
    697d:	7f 24                	jg     69a3 <safe_mul_func_int64_t_s_s+0xa7>
    697f:	48 83 7d f0 00       	cmpq   $0x0,-0x10(%rbp)
    6984:	7f 1d                	jg     69a3 <safe_mul_func_int64_t_s_s+0xa7>
    6986:	48 83 7d f8 00       	cmpq   $0x0,-0x8(%rbp)
    698b:	74 16                	je     69a3 <safe_mul_func_int64_t_s_s+0xa7>
    698d:	48 b8 ff ff ff ff ff 	movabs $0x7fffffffffffffff,%rax
    6994:	ff ff 7f 
    6997:	48 99                	cqto   
    6999:	48 f7 7d f8          	idivq  -0x8(%rbp)
    699d:	48 39 45 f0          	cmp    %rax,-0x10(%rbp)
    69a1:	7c 0b                	jl     69ae <safe_mul_func_int64_t_s_s+0xb2>
    69a3:	48 8b 45 f8          	mov    -0x8(%rbp),%rax
    69a7:	48 0f af 45 f0       	imul   -0x10(%rbp),%rax
    69ac:	eb 04                	jmp    69b2 <safe_mul_func_int64_t_s_s+0xb6>
    69ae:	48 8b 45 f8          	mov    -0x8(%rbp),%rax
    69b2:	5d                   	pop    %rbp
    69b3:	c3                   	retq   

00000000000069b4 <safe_mod_func_int64_t_s_s>:
    69b4:	f3 0f 1e fa          	endbr64 
    69b8:	55                   	push   %rbp
    69b9:	48 89 e5             	mov    %rsp,%rbp
    69bc:	48 89 7d f8          	mov    %rdi,-0x8(%rbp)
    69c0:	48 89 75 f0          	mov    %rsi,-0x10(%rbp)
    69c4:	48 83 7d f0 00       	cmpq   $0x0,-0x10(%rbp)
    69c9:	74 26                	je     69f1 <safe_mod_func_int64_t_s_s+0x3d>
    69cb:	48 b8 00 00 00 00 00 	movabs $0x8000000000000000,%rax
    69d2:	00 00 80 
    69d5:	48 39 45 f8          	cmp    %rax,-0x8(%rbp)
    69d9:	75 07                	jne    69e2 <safe_mod_func_int64_t_s_s+0x2e>
    69db:	48 83 7d f0 ff       	cmpq   $0xffffffffffffffff,-0x10(%rbp)
    69e0:	74 0f                	je     69f1 <safe_mod_func_int64_t_s_s+0x3d>
    69e2:	48 8b 45 f8          	mov    -0x8(%rbp),%rax
    69e6:	48 99                	cqto   
    69e8:	48 f7 7d f0          	idivq  -0x10(%rbp)
    69ec:	48 89 d0             	mov    %rdx,%rax
    69ef:	eb 04                	jmp    69f5 <safe_mod_func_int64_t_s_s+0x41>
    69f1:	48 8b 45 f8          	mov    -0x8(%rbp),%rax
    69f5:	5d                   	pop    %rbp
    69f6:	c3                   	retq   

00000000000069f7 <safe_div_func_int64_t_s_s>:
    69f7:	f3 0f 1e fa          	endbr64 
    69fb:	55                   	push   %rbp
    69fc:	48 89 e5             	mov    %rsp,%rbp
    69ff:	48 89 7d f8          	mov    %rdi,-0x8(%rbp)
    6a03:	48 89 75 f0          	mov    %rsi,-0x10(%rbp)
    6a07:	48 83 7d f0 00       	cmpq   $0x0,-0x10(%rbp)
    6a0c:	74 23                	je     6a31 <safe_div_func_int64_t_s_s+0x3a>
    6a0e:	48 b8 00 00 00 00 00 	movabs $0x8000000000000000,%rax
    6a15:	00 00 80 
    6a18:	48 39 45 f8          	cmp    %rax,-0x8(%rbp)
    6a1c:	75 07                	jne    6a25 <safe_div_func_int64_t_s_s+0x2e>
    6a1e:	48 83 7d f0 ff       	cmpq   $0xffffffffffffffff,-0x10(%rbp)
    6a23:	74 0c                	je     6a31 <safe_div_func_int64_t_s_s+0x3a>
    6a25:	48 8b 45 f8          	mov    -0x8(%rbp),%rax
    6a29:	48 99                	cqto   
    6a2b:	48 f7 7d f0          	idivq  -0x10(%rbp)
    6a2f:	eb 04                	jmp    6a35 <safe_div_func_int64_t_s_s+0x3e>
    6a31:	48 8b 45 f8          	mov    -0x8(%rbp),%rax
    6a35:	5d                   	pop    %rbp
    6a36:	c3                   	retq   

0000000000006a37 <safe_lshift_func_int64_t_s_s>:
    6a37:	f3 0f 1e fa          	endbr64 
    6a3b:	55                   	push   %rbp
    6a3c:	48 89 e5             	mov    %rsp,%rbp
    6a3f:	48 89 7d f8          	mov    %rdi,-0x8(%rbp)
    6a43:	89 75 f4             	mov    %esi,-0xc(%rbp)
    6a46:	48 83 7d f8 00       	cmpq   $0x0,-0x8(%rbp)
    6a4b:	78 38                	js     6a85 <safe_lshift_func_int64_t_s_s+0x4e>
    6a4d:	83 7d f4 00          	cmpl   $0x0,-0xc(%rbp)
    6a51:	78 32                	js     6a85 <safe_lshift_func_int64_t_s_s+0x4e>
    6a53:	83 7d f4 1f          	cmpl   $0x1f,-0xc(%rbp)
    6a57:	7f 2c                	jg     6a85 <safe_lshift_func_int64_t_s_s+0x4e>
    6a59:	8b 45 f4             	mov    -0xc(%rbp),%eax
    6a5c:	48 ba ff ff ff ff ff 	movabs $0x7fffffffffffffff,%rdx
    6a63:	ff ff 7f 
    6a66:	89 c1                	mov    %eax,%ecx
    6a68:	48 d3 fa             	sar    %cl,%rdx
    6a6b:	48 89 d0             	mov    %rdx,%rax
    6a6e:	48 39 45 f8          	cmp    %rax,-0x8(%rbp)
    6a72:	7f 11                	jg     6a85 <safe_lshift_func_int64_t_s_s+0x4e>
    6a74:	8b 45 f4             	mov    -0xc(%rbp),%eax
    6a77:	48 8b 55 f8          	mov    -0x8(%rbp),%rdx
    6a7b:	89 c1                	mov    %eax,%ecx
    6a7d:	48 d3 e2             	shl    %cl,%rdx
    6a80:	48 89 d0             	mov    %rdx,%rax
    6a83:	eb 04                	jmp    6a89 <safe_lshift_func_int64_t_s_s+0x52>
    6a85:	48 8b 45 f8          	mov    -0x8(%rbp),%rax
    6a89:	5d                   	pop    %rbp
    6a8a:	c3                   	retq   

0000000000006a8b <safe_lshift_func_int64_t_s_u>:
    6a8b:	f3 0f 1e fa          	endbr64 
    6a8f:	55                   	push   %rbp
    6a90:	48 89 e5             	mov    %rsp,%rbp
    6a93:	48 89 7d f8          	mov    %rdi,-0x8(%rbp)
    6a97:	89 75 f4             	mov    %esi,-0xc(%rbp)
    6a9a:	48 83 7d f8 00       	cmpq   $0x0,-0x8(%rbp)
    6a9f:	78 32                	js     6ad3 <safe_lshift_func_int64_t_s_u+0x48>
    6aa1:	83 7d f4 1f          	cmpl   $0x1f,-0xc(%rbp)
    6aa5:	77 2c                	ja     6ad3 <safe_lshift_func_int64_t_s_u+0x48>
    6aa7:	8b 45 f4             	mov    -0xc(%rbp),%eax
    6aaa:	48 ba ff ff ff ff ff 	movabs $0x7fffffffffffffff,%rdx
    6ab1:	ff ff 7f 
    6ab4:	89 c1                	mov    %eax,%ecx
    6ab6:	48 d3 fa             	sar    %cl,%rdx
    6ab9:	48 89 d0             	mov    %rdx,%rax
    6abc:	48 39 45 f8          	cmp    %rax,-0x8(%rbp)
    6ac0:	7f 11                	jg     6ad3 <safe_lshift_func_int64_t_s_u+0x48>
    6ac2:	8b 45 f4             	mov    -0xc(%rbp),%eax
    6ac5:	48 8b 55 f8          	mov    -0x8(%rbp),%rdx
    6ac9:	89 c1                	mov    %eax,%ecx
    6acb:	48 d3 e2             	shl    %cl,%rdx
    6ace:	48 89 d0             	mov    %rdx,%rax
    6ad1:	eb 04                	jmp    6ad7 <safe_lshift_func_int64_t_s_u+0x4c>
    6ad3:	48 8b 45 f8          	mov    -0x8(%rbp),%rax
    6ad7:	5d                   	pop    %rbp
    6ad8:	c3                   	retq   

0000000000006ad9 <safe_rshift_func_int64_t_s_s>:
    6ad9:	f3 0f 1e fa          	endbr64 
    6add:	55                   	push   %rbp
    6ade:	48 89 e5             	mov    %rsp,%rbp
    6ae1:	48 89 7d f8          	mov    %rdi,-0x8(%rbp)
    6ae5:	89 75 f4             	mov    %esi,-0xc(%rbp)
    6ae8:	48 83 7d f8 00       	cmpq   $0x0,-0x8(%rbp)
    6aed:	78 1d                	js     6b0c <safe_rshift_func_int64_t_s_s+0x33>
    6aef:	83 7d f4 00          	cmpl   $0x0,-0xc(%rbp)
    6af3:	78 17                	js     6b0c <safe_rshift_func_int64_t_s_s+0x33>
    6af5:	83 7d f4 1f          	cmpl   $0x1f,-0xc(%rbp)
    6af9:	7f 11                	jg     6b0c <safe_rshift_func_int64_t_s_s+0x33>
    6afb:	8b 45 f4             	mov    -0xc(%rbp),%eax
    6afe:	48 8b 55 f8          	mov    -0x8(%rbp),%rdx
    6b02:	89 c1                	mov    %eax,%ecx
    6b04:	48 d3 fa             	sar    %cl,%rdx
    6b07:	48 89 d0             	mov    %rdx,%rax
    6b0a:	eb 04                	jmp    6b10 <safe_rshift_func_int64_t_s_s+0x37>
    6b0c:	48 8b 45 f8          	mov    -0x8(%rbp),%rax
    6b10:	5d                   	pop    %rbp
    6b11:	c3                   	retq   

0000000000006b12 <safe_rshift_func_int64_t_s_u>:
    6b12:	f3 0f 1e fa          	endbr64 
    6b16:	55                   	push   %rbp
    6b17:	48 89 e5             	mov    %rsp,%rbp
    6b1a:	48 89 7d f8          	mov    %rdi,-0x8(%rbp)
    6b1e:	89 75 f4             	mov    %esi,-0xc(%rbp)
    6b21:	48 83 7d f8 00       	cmpq   $0x0,-0x8(%rbp)
    6b26:	78 17                	js     6b3f <safe_rshift_func_int64_t_s_u+0x2d>
    6b28:	83 7d f4 1f          	cmpl   $0x1f,-0xc(%rbp)
    6b2c:	77 11                	ja     6b3f <safe_rshift_func_int64_t_s_u+0x2d>
    6b2e:	8b 45 f4             	mov    -0xc(%rbp),%eax
    6b31:	48 8b 55 f8          	mov    -0x8(%rbp),%rdx
    6b35:	89 c1                	mov    %eax,%ecx
    6b37:	48 d3 fa             	sar    %cl,%rdx
    6b3a:	48 89 d0             	mov    %rdx,%rax
    6b3d:	eb 04                	jmp    6b43 <safe_rshift_func_int64_t_s_u+0x31>
    6b3f:	48 8b 45 f8          	mov    -0x8(%rbp),%rax
    6b43:	5d                   	pop    %rbp
    6b44:	c3                   	retq   

0000000000006b45 <safe_unary_minus_func_uint8_t_u>:
    6b45:	f3 0f 1e fa          	endbr64 
    6b49:	55                   	push   %rbp
    6b4a:	48 89 e5             	mov    %rsp,%rbp
    6b4d:	89 f8                	mov    %edi,%eax
    6b4f:	88 45 fc             	mov    %al,-0x4(%rbp)
    6b52:	0f b6 45 fc          	movzbl -0x4(%rbp),%eax
    6b56:	f7 d8                	neg    %eax
    6b58:	5d                   	pop    %rbp
    6b59:	c3                   	retq   

0000000000006b5a <safe_add_func_uint8_t_u_u>:
    6b5a:	f3 0f 1e fa          	endbr64 
    6b5e:	55                   	push   %rbp
    6b5f:	48 89 e5             	mov    %rsp,%rbp
    6b62:	89 fa                	mov    %edi,%edx
    6b64:	89 f0                	mov    %esi,%eax
    6b66:	88 55 fc             	mov    %dl,-0x4(%rbp)
    6b69:	88 45 f8             	mov    %al,-0x8(%rbp)
    6b6c:	0f b6 55 fc          	movzbl -0x4(%rbp),%edx
    6b70:	0f b6 45 f8          	movzbl -0x8(%rbp),%eax
    6b74:	01 d0                	add    %edx,%eax
    6b76:	5d                   	pop    %rbp
    6b77:	c3                   	retq   

0000000000006b78 <safe_sub_func_uint8_t_u_u>:
    6b78:	f3 0f 1e fa          	endbr64 
    6b7c:	55                   	push   %rbp
    6b7d:	48 89 e5             	mov    %rsp,%rbp
    6b80:	89 fa                	mov    %edi,%edx
    6b82:	89 f0                	mov    %esi,%eax
    6b84:	88 55 fc             	mov    %dl,-0x4(%rbp)
    6b87:	88 45 f8             	mov    %al,-0x8(%rbp)
    6b8a:	0f b6 45 fc          	movzbl -0x4(%rbp),%eax
    6b8e:	2a 45 f8             	sub    -0x8(%rbp),%al
    6b91:	5d                   	pop    %rbp
    6b92:	c3                   	retq   

0000000000006b93 <safe_mul_func_uint8_t_u_u>:
    6b93:	f3 0f 1e fa          	endbr64 
    6b97:	55                   	push   %rbp
    6b98:	48 89 e5             	mov    %rsp,%rbp
    6b9b:	89 fa                	mov    %edi,%edx
    6b9d:	89 f0                	mov    %esi,%eax
    6b9f:	88 55 fc             	mov    %dl,-0x4(%rbp)
    6ba2:	88 45 f8             	mov    %al,-0x8(%rbp)
    6ba5:	0f b6 45 fc          	movzbl -0x4(%rbp),%eax
    6ba9:	f6 65 f8             	mulb   -0x8(%rbp)
    6bac:	5d                   	pop    %rbp
    6bad:	c3                   	retq   

0000000000006bae <safe_mod_func_uint8_t_u_u>:
    6bae:	f3 0f 1e fa          	endbr64 
    6bb2:	55                   	push   %rbp
    6bb3:	48 89 e5             	mov    %rsp,%rbp
    6bb6:	89 fa                	mov    %edi,%edx
    6bb8:	89 f0                	mov    %esi,%eax
    6bba:	88 55 fc             	mov    %dl,-0x4(%rbp)
    6bbd:	88 45 f8             	mov    %al,-0x8(%rbp)
    6bc0:	80 7d f8 00          	cmpb   $0x0,-0x8(%rbp)
    6bc4:	74 0f                	je     6bd5 <safe_mod_func_uint8_t_u_u+0x27>
    6bc6:	0f b6 45 fc          	movzbl -0x4(%rbp),%eax
    6bca:	0f b6 c0             	movzbl %al,%eax
    6bcd:	f6 75 f8             	divb   -0x8(%rbp)
    6bd0:	0f b6 c4             	movzbl %ah,%eax
    6bd3:	eb 04                	jmp    6bd9 <safe_mod_func_uint8_t_u_u+0x2b>
    6bd5:	0f b6 45 fc          	movzbl -0x4(%rbp),%eax
    6bd9:	5d                   	pop    %rbp
    6bda:	c3                   	retq   

0000000000006bdb <safe_div_func_uint8_t_u_u>:
    6bdb:	f3 0f 1e fa          	endbr64 
    6bdf:	55                   	push   %rbp
    6be0:	48 89 e5             	mov    %rsp,%rbp
    6be3:	89 fa                	mov    %edi,%edx
    6be5:	89 f0                	mov    %esi,%eax
    6be7:	88 55 fc             	mov    %dl,-0x4(%rbp)
    6bea:	88 45 f8             	mov    %al,-0x8(%rbp)
    6bed:	80 7d f8 00          	cmpb   $0x0,-0x8(%rbp)
    6bf1:	74 0c                	je     6bff <safe_div_func_uint8_t_u_u+0x24>
    6bf3:	0f b6 45 fc          	movzbl -0x4(%rbp),%eax
    6bf7:	0f b6 c0             	movzbl %al,%eax
    6bfa:	f6 75 f8             	divb   -0x8(%rbp)
    6bfd:	eb 04                	jmp    6c03 <safe_div_func_uint8_t_u_u+0x28>
    6bff:	0f b6 45 fc          	movzbl -0x4(%rbp),%eax
    6c03:	5d                   	pop    %rbp
    6c04:	c3                   	retq   

0000000000006c05 <safe_lshift_func_uint8_t_u_s>:
    6c05:	f3 0f 1e fa          	endbr64 
    6c09:	55                   	push   %rbp
    6c0a:	48 89 e5             	mov    %rsp,%rbp
    6c0d:	89 f8                	mov    %edi,%eax
    6c0f:	89 75 f8             	mov    %esi,-0x8(%rbp)
    6c12:	88 45 fc             	mov    %al,-0x4(%rbp)
    6c15:	83 7d f8 00          	cmpl   $0x0,-0x8(%rbp)
    6c19:	78 2b                	js     6c46 <safe_lshift_func_uint8_t_u_s+0x41>
    6c1b:	83 7d f8 1f          	cmpl   $0x1f,-0x8(%rbp)
    6c1f:	7f 25                	jg     6c46 <safe_lshift_func_uint8_t_u_s+0x41>
    6c21:	0f b6 55 fc          	movzbl -0x4(%rbp),%edx
    6c25:	8b 45 f8             	mov    -0x8(%rbp),%eax
    6c28:	be ff 00 00 00       	mov    $0xff,%esi
    6c2d:	89 c1                	mov    %eax,%ecx
    6c2f:	d3 fe                	sar    %cl,%esi
    6c31:	89 f0                	mov    %esi,%eax
    6c33:	39 c2                	cmp    %eax,%edx
    6c35:	7f 0f                	jg     6c46 <safe_lshift_func_uint8_t_u_s+0x41>
    6c37:	0f b6 55 fc          	movzbl -0x4(%rbp),%edx
    6c3b:	8b 45 f8             	mov    -0x8(%rbp),%eax
    6c3e:	89 c1                	mov    %eax,%ecx
    6c40:	d3 e2                	shl    %cl,%edx
    6c42:	89 d0                	mov    %edx,%eax
    6c44:	eb 04                	jmp    6c4a <safe_lshift_func_uint8_t_u_s+0x45>
    6c46:	0f b6 45 fc          	movzbl -0x4(%rbp),%eax
    6c4a:	5d                   	pop    %rbp
    6c4b:	c3                   	retq   

0000000000006c4c <safe_lshift_func_uint8_t_u_u>:
    6c4c:	f3 0f 1e fa          	endbr64 
    6c50:	55                   	push   %rbp
    6c51:	48 89 e5             	mov    %rsp,%rbp
    6c54:	89 f8                	mov    %edi,%eax
    6c56:	89 75 f8             	mov    %esi,-0x8(%rbp)
    6c59:	88 45 fc             	mov    %al,-0x4(%rbp)
    6c5c:	83 7d f8 1f          	cmpl   $0x1f,-0x8(%rbp)
    6c60:	77 25                	ja     6c87 <safe_lshift_func_uint8_t_u_u+0x3b>
    6c62:	0f b6 55 fc          	movzbl -0x4(%rbp),%edx
    6c66:	8b 45 f8             	mov    -0x8(%rbp),%eax
    6c69:	be ff 00 00 00       	mov    $0xff,%esi
    6c6e:	89 c1                	mov    %eax,%ecx
    6c70:	d3 fe                	sar    %cl,%esi
    6c72:	89 f0                	mov    %esi,%eax
    6c74:	39 c2                	cmp    %eax,%edx
    6c76:	7f 0f                	jg     6c87 <safe_lshift_func_uint8_t_u_u+0x3b>
    6c78:	0f b6 55 fc          	movzbl -0x4(%rbp),%edx
    6c7c:	8b 45 f8             	mov    -0x8(%rbp),%eax
    6c7f:	89 c1                	mov    %eax,%ecx
    6c81:	d3 e2                	shl    %cl,%edx
    6c83:	89 d0                	mov    %edx,%eax
    6c85:	eb 04                	jmp    6c8b <safe_lshift_func_uint8_t_u_u+0x3f>
    6c87:	0f b6 45 fc          	movzbl -0x4(%rbp),%eax
    6c8b:	5d                   	pop    %rbp
    6c8c:	c3                   	retq   

0000000000006c8d <safe_rshift_func_uint8_t_u_s>:
    6c8d:	f3 0f 1e fa          	endbr64 
    6c91:	55                   	push   %rbp
    6c92:	48 89 e5             	mov    %rsp,%rbp
    6c95:	89 f8                	mov    %edi,%eax
    6c97:	89 75 f8             	mov    %esi,-0x8(%rbp)
    6c9a:	88 45 fc             	mov    %al,-0x4(%rbp)
    6c9d:	83 7d f8 00          	cmpl   $0x0,-0x8(%rbp)
    6ca1:	78 15                	js     6cb8 <safe_rshift_func_uint8_t_u_s+0x2b>
    6ca3:	83 7d f8 1f          	cmpl   $0x1f,-0x8(%rbp)
    6ca7:	7f 0f                	jg     6cb8 <safe_rshift_func_uint8_t_u_s+0x2b>
    6ca9:	0f b6 55 fc          	movzbl -0x4(%rbp),%edx
    6cad:	8b 45 f8             	mov    -0x8(%rbp),%eax
    6cb0:	89 c1                	mov    %eax,%ecx
    6cb2:	d3 fa                	sar    %cl,%edx
    6cb4:	89 d0                	mov    %edx,%eax
    6cb6:	eb 04                	jmp    6cbc <safe_rshift_func_uint8_t_u_s+0x2f>
    6cb8:	0f b6 45 fc          	movzbl -0x4(%rbp),%eax
    6cbc:	5d                   	pop    %rbp
    6cbd:	c3                   	retq   

0000000000006cbe <safe_rshift_func_uint8_t_u_u>:
    6cbe:	f3 0f 1e fa          	endbr64 
    6cc2:	55                   	push   %rbp
    6cc3:	48 89 e5             	mov    %rsp,%rbp
    6cc6:	89 f8                	mov    %edi,%eax
    6cc8:	89 75 f8             	mov    %esi,-0x8(%rbp)
    6ccb:	88 45 fc             	mov    %al,-0x4(%rbp)
    6cce:	83 7d f8 1f          	cmpl   $0x1f,-0x8(%rbp)
    6cd2:	77 0f                	ja     6ce3 <safe_rshift_func_uint8_t_u_u+0x25>
    6cd4:	0f b6 55 fc          	movzbl -0x4(%rbp),%edx
    6cd8:	8b 45 f8             	mov    -0x8(%rbp),%eax
    6cdb:	89 c1                	mov    %eax,%ecx
    6cdd:	d3 fa                	sar    %cl,%edx
    6cdf:	89 d0                	mov    %edx,%eax
    6ce1:	eb 04                	jmp    6ce7 <safe_rshift_func_uint8_t_u_u+0x29>
    6ce3:	0f b6 45 fc          	movzbl -0x4(%rbp),%eax
    6ce7:	5d                   	pop    %rbp
    6ce8:	c3                   	retq   

0000000000006ce9 <safe_unary_minus_func_uint16_t_u>:
    6ce9:	f3 0f 1e fa          	endbr64 
    6ced:	55                   	push   %rbp
    6cee:	48 89 e5             	mov    %rsp,%rbp
    6cf1:	89 f8                	mov    %edi,%eax
    6cf3:	66 89 45 fc          	mov    %ax,-0x4(%rbp)
    6cf7:	0f b7 45 fc          	movzwl -0x4(%rbp),%eax
    6cfb:	f7 d8                	neg    %eax
    6cfd:	5d                   	pop    %rbp
    6cfe:	c3                   	retq   

0000000000006cff <safe_add_func_uint16_t_u_u>:
    6cff:	f3 0f 1e fa          	endbr64 
    6d03:	55                   	push   %rbp
    6d04:	48 89 e5             	mov    %rsp,%rbp
    6d07:	89 fa                	mov    %edi,%edx
    6d09:	89 f0                	mov    %esi,%eax
    6d0b:	66 89 55 fc          	mov    %dx,-0x4(%rbp)
    6d0f:	66 89 45 f8          	mov    %ax,-0x8(%rbp)
    6d13:	0f b7 55 fc          	movzwl -0x4(%rbp),%edx
    6d17:	0f b7 45 f8          	movzwl -0x8(%rbp),%eax
    6d1b:	01 d0                	add    %edx,%eax
    6d1d:	5d                   	pop    %rbp
    6d1e:	c3                   	retq   

0000000000006d1f <safe_sub_func_uint16_t_u_u>:
    6d1f:	f3 0f 1e fa          	endbr64 
    6d23:	55                   	push   %rbp
    6d24:	48 89 e5             	mov    %rsp,%rbp
    6d27:	89 fa                	mov    %edi,%edx
    6d29:	89 f0                	mov    %esi,%eax
    6d2b:	66 89 55 fc          	mov    %dx,-0x4(%rbp)
    6d2f:	66 89 45 f8          	mov    %ax,-0x8(%rbp)
    6d33:	0f b7 45 fc          	movzwl -0x4(%rbp),%eax
    6d37:	66 2b 45 f8          	sub    -0x8(%rbp),%ax
    6d3b:	5d                   	pop    %rbp
    6d3c:	c3                   	retq   

0000000000006d3d <safe_mul_func_uint16_t_u_u>:
    6d3d:	f3 0f 1e fa          	endbr64 
    6d41:	55                   	push   %rbp
    6d42:	48 89 e5             	mov    %rsp,%rbp
    6d45:	89 fa                	mov    %edi,%edx
    6d47:	89 f0                	mov    %esi,%eax
    6d49:	66 89 55 fc          	mov    %dx,-0x4(%rbp)
    6d4d:	66 89 45 f8          	mov    %ax,-0x8(%rbp)
    6d51:	0f b7 45 fc          	movzwl -0x4(%rbp),%eax
    6d55:	66 0f af 45 f8       	imul   -0x8(%rbp),%ax
    6d5a:	5d                   	pop    %rbp
    6d5b:	c3                   	retq   

0000000000006d5c <safe_mod_func_uint16_t_u_u>:
    6d5c:	f3 0f 1e fa          	endbr64 
    6d60:	55                   	push   %rbp
    6d61:	48 89 e5             	mov    %rsp,%rbp
    6d64:	89 fa                	mov    %edi,%edx
    6d66:	89 f0                	mov    %esi,%eax
    6d68:	66 89 55 fc          	mov    %dx,-0x4(%rbp)
    6d6c:	66 89 45 f8          	mov    %ax,-0x8(%rbp)
    6d70:	66 83 7d f8 00       	cmpw   $0x0,-0x8(%rbp)
    6d75:	74 11                	je     6d88 <safe_mod_func_uint16_t_u_u+0x2c>
    6d77:	0f b7 45 fc          	movzwl -0x4(%rbp),%eax
    6d7b:	ba 00 00 00 00       	mov    $0x0,%edx
    6d80:	66 f7 75 f8          	divw   -0x8(%rbp)
    6d84:	89 d0                	mov    %edx,%eax
    6d86:	eb 04                	jmp    6d8c <safe_mod_func_uint16_t_u_u+0x30>
    6d88:	0f b7 45 fc          	movzwl -0x4(%rbp),%eax
    6d8c:	5d                   	pop    %rbp
    6d8d:	c3                   	retq   

0000000000006d8e <safe_div_func_uint16_t_u_u>:
    6d8e:	f3 0f 1e fa          	endbr64 
    6d92:	55                   	push   %rbp
    6d93:	48 89 e5             	mov    %rsp,%rbp
    6d96:	89 fa                	mov    %edi,%edx
    6d98:	89 f0                	mov    %esi,%eax
    6d9a:	66 89 55 fc          	mov    %dx,-0x4(%rbp)
    6d9e:	66 89 45 f8          	mov    %ax,-0x8(%rbp)
    6da2:	66 83 7d f8 00       	cmpw   $0x0,-0x8(%rbp)
    6da7:	74 0f                	je     6db8 <safe_div_func_uint16_t_u_u+0x2a>
    6da9:	0f b7 45 fc          	movzwl -0x4(%rbp),%eax
    6dad:	ba 00 00 00 00       	mov    $0x0,%edx
    6db2:	66 f7 75 f8          	divw   -0x8(%rbp)
    6db6:	eb 04                	jmp    6dbc <safe_div_func_uint16_t_u_u+0x2e>
    6db8:	0f b7 45 fc          	movzwl -0x4(%rbp),%eax
    6dbc:	5d                   	pop    %rbp
    6dbd:	c3                   	retq   

0000000000006dbe <safe_lshift_func_uint16_t_u_s>:
    6dbe:	f3 0f 1e fa          	endbr64 
    6dc2:	55                   	push   %rbp
    6dc3:	48 89 e5             	mov    %rsp,%rbp
    6dc6:	89 f8                	mov    %edi,%eax
    6dc8:	89 75 f8             	mov    %esi,-0x8(%rbp)
    6dcb:	66 89 45 fc          	mov    %ax,-0x4(%rbp)
    6dcf:	83 7d f8 00          	cmpl   $0x0,-0x8(%rbp)
    6dd3:	78 2b                	js     6e00 <safe_lshift_func_uint16_t_u_s+0x42>
    6dd5:	83 7d f8 1f          	cmpl   $0x1f,-0x8(%rbp)
    6dd9:	7f 25                	jg     6e00 <safe_lshift_func_uint16_t_u_s+0x42>
    6ddb:	0f b7 55 fc          	movzwl -0x4(%rbp),%edx
    6ddf:	8b 45 f8             	mov    -0x8(%rbp),%eax
    6de2:	be ff ff 00 00       	mov    $0xffff,%esi
    6de7:	89 c1                	mov    %eax,%ecx
    6de9:	d3 fe                	sar    %cl,%esi
    6deb:	89 f0                	mov    %esi,%eax
    6ded:	39 c2                	cmp    %eax,%edx
    6def:	7f 0f                	jg     6e00 <safe_lshift_func_uint16_t_u_s+0x42>
    6df1:	0f b7 55 fc          	movzwl -0x4(%rbp),%edx
    6df5:	8b 45 f8             	mov    -0x8(%rbp),%eax
    6df8:	89 c1                	mov    %eax,%ecx
    6dfa:	d3 e2                	shl    %cl,%edx
    6dfc:	89 d0                	mov    %edx,%eax
    6dfe:	eb 04                	jmp    6e04 <safe_lshift_func_uint16_t_u_s+0x46>
    6e00:	0f b7 45 fc          	movzwl -0x4(%rbp),%eax
    6e04:	5d                   	pop    %rbp
    6e05:	c3                   	retq   

0000000000006e06 <safe_lshift_func_uint16_t_u_u>:
    6e06:	f3 0f 1e fa          	endbr64 
    6e0a:	55                   	push   %rbp
    6e0b:	48 89 e5             	mov    %rsp,%rbp
    6e0e:	89 f8                	mov    %edi,%eax
    6e10:	89 75 f8             	mov    %esi,-0x8(%rbp)
    6e13:	66 89 45 fc          	mov    %ax,-0x4(%rbp)
    6e17:	83 7d f8 1f          	cmpl   $0x1f,-0x8(%rbp)
    6e1b:	77 25                	ja     6e42 <safe_lshift_func_uint16_t_u_u+0x3c>
    6e1d:	0f b7 55 fc          	movzwl -0x4(%rbp),%edx
    6e21:	8b 45 f8             	mov    -0x8(%rbp),%eax
    6e24:	be ff ff 00 00       	mov    $0xffff,%esi
    6e29:	89 c1                	mov    %eax,%ecx
    6e2b:	d3 fe                	sar    %cl,%esi
    6e2d:	89 f0                	mov    %esi,%eax
    6e2f:	39 c2                	cmp    %eax,%edx
    6e31:	7f 0f                	jg     6e42 <safe_lshift_func_uint16_t_u_u+0x3c>
    6e33:	0f b7 55 fc          	movzwl -0x4(%rbp),%edx
    6e37:	8b 45 f8             	mov    -0x8(%rbp),%eax
    6e3a:	89 c1                	mov    %eax,%ecx
    6e3c:	d3 e2                	shl    %cl,%edx
    6e3e:	89 d0                	mov    %edx,%eax
    6e40:	eb 04                	jmp    6e46 <safe_lshift_func_uint16_t_u_u+0x40>
    6e42:	0f b7 45 fc          	movzwl -0x4(%rbp),%eax
    6e46:	5d                   	pop    %rbp
    6e47:	c3                   	retq   

0000000000006e48 <safe_rshift_func_uint16_t_u_s>:
    6e48:	f3 0f 1e fa          	endbr64 
    6e4c:	55                   	push   %rbp
    6e4d:	48 89 e5             	mov    %rsp,%rbp
    6e50:	89 f8                	mov    %edi,%eax
    6e52:	89 75 f8             	mov    %esi,-0x8(%rbp)
    6e55:	66 89 45 fc          	mov    %ax,-0x4(%rbp)
    6e59:	83 7d f8 00          	cmpl   $0x0,-0x8(%rbp)
    6e5d:	78 15                	js     6e74 <safe_rshift_func_uint16_t_u_s+0x2c>
    6e5f:	83 7d f8 1f          	cmpl   $0x1f,-0x8(%rbp)
    6e63:	7f 0f                	jg     6e74 <safe_rshift_func_uint16_t_u_s+0x2c>
    6e65:	0f b7 55 fc          	movzwl -0x4(%rbp),%edx
    6e69:	8b 45 f8             	mov    -0x8(%rbp),%eax
    6e6c:	89 c1                	mov    %eax,%ecx
    6e6e:	d3 fa                	sar    %cl,%edx
    6e70:	89 d0                	mov    %edx,%eax
    6e72:	eb 04                	jmp    6e78 <safe_rshift_func_uint16_t_u_s+0x30>
    6e74:	0f b7 45 fc          	movzwl -0x4(%rbp),%eax
    6e78:	5d                   	pop    %rbp
    6e79:	c3                   	retq   

0000000000006e7a <safe_rshift_func_uint16_t_u_u>:
    6e7a:	f3 0f 1e fa          	endbr64 
    6e7e:	55                   	push   %rbp
    6e7f:	48 89 e5             	mov    %rsp,%rbp
    6e82:	89 f8                	mov    %edi,%eax
    6e84:	89 75 f8             	mov    %esi,-0x8(%rbp)
    6e87:	66 89 45 fc          	mov    %ax,-0x4(%rbp)
    6e8b:	83 7d f8 1f          	cmpl   $0x1f,-0x8(%rbp)
    6e8f:	77 0f                	ja     6ea0 <safe_rshift_func_uint16_t_u_u+0x26>
    6e91:	0f b7 55 fc          	movzwl -0x4(%rbp),%edx
    6e95:	8b 45 f8             	mov    -0x8(%rbp),%eax
    6e98:	89 c1                	mov    %eax,%ecx
    6e9a:	d3 fa                	sar    %cl,%edx
    6e9c:	89 d0                	mov    %edx,%eax
    6e9e:	eb 04                	jmp    6ea4 <safe_rshift_func_uint16_t_u_u+0x2a>
    6ea0:	0f b7 45 fc          	movzwl -0x4(%rbp),%eax
    6ea4:	5d                   	pop    %rbp
    6ea5:	c3                   	retq   

0000000000006ea6 <safe_unary_minus_func_uint32_t_u>:
    6ea6:	f3 0f 1e fa          	endbr64 
    6eaa:	55                   	push   %rbp
    6eab:	48 89 e5             	mov    %rsp,%rbp
    6eae:	89 7d fc             	mov    %edi,-0x4(%rbp)
    6eb1:	8b 45 fc             	mov    -0x4(%rbp),%eax
    6eb4:	f7 d8                	neg    %eax
    6eb6:	5d                   	pop    %rbp
    6eb7:	c3                   	retq   

0000000000006eb8 <safe_add_func_uint32_t_u_u>:
    6eb8:	f3 0f 1e fa          	endbr64 
    6ebc:	55                   	push   %rbp
    6ebd:	48 89 e5             	mov    %rsp,%rbp
    6ec0:	89 7d fc             	mov    %edi,-0x4(%rbp)
    6ec3:	89 75 f8             	mov    %esi,-0x8(%rbp)
    6ec6:	8b 55 fc             	mov    -0x4(%rbp),%edx
    6ec9:	8b 45 f8             	mov    -0x8(%rbp),%eax
    6ecc:	01 d0                	add    %edx,%eax
    6ece:	5d                   	pop    %rbp
    6ecf:	c3                   	retq   

0000000000006ed0 <safe_sub_func_uint32_t_u_u>:
    6ed0:	f3 0f 1e fa          	endbr64 
    6ed4:	55                   	push   %rbp
    6ed5:	48 89 e5             	mov    %rsp,%rbp
    6ed8:	89 7d fc             	mov    %edi,-0x4(%rbp)
    6edb:	89 75 f8             	mov    %esi,-0x8(%rbp)
    6ede:	8b 45 fc             	mov    -0x4(%rbp),%eax
    6ee1:	2b 45 f8             	sub    -0x8(%rbp),%eax
    6ee4:	5d                   	pop    %rbp
    6ee5:	c3                   	retq   

0000000000006ee6 <safe_mul_func_uint32_t_u_u>:
    6ee6:	f3 0f 1e fa          	endbr64 
    6eea:	55                   	push   %rbp
    6eeb:	48 89 e5             	mov    %rsp,%rbp
    6eee:	89 7d fc             	mov    %edi,-0x4(%rbp)
    6ef1:	89 75 f8             	mov    %esi,-0x8(%rbp)
    6ef4:	8b 45 fc             	mov    -0x4(%rbp),%eax
    6ef7:	0f af 45 f8          	imul   -0x8(%rbp),%eax
    6efb:	5d                   	pop    %rbp
    6efc:	c3                   	retq   

0000000000006efd <safe_mod_func_uint32_t_u_u>:
    6efd:	f3 0f 1e fa          	endbr64 
    6f01:	55                   	push   %rbp
    6f02:	48 89 e5             	mov    %rsp,%rbp
    6f05:	89 7d fc             	mov    %edi,-0x4(%rbp)
    6f08:	89 75 f8             	mov    %esi,-0x8(%rbp)
    6f0b:	83 7d f8 00          	cmpl   $0x0,-0x8(%rbp)
    6f0f:	74 0f                	je     6f20 <safe_mod_func_uint32_t_u_u+0x23>
    6f11:	8b 45 fc             	mov    -0x4(%rbp),%eax
    6f14:	ba 00 00 00 00       	mov    $0x0,%edx
    6f19:	f7 75 f8             	divl   -0x8(%rbp)
    6f1c:	89 d0                	mov    %edx,%eax
    6f1e:	eb 03                	jmp    6f23 <safe_mod_func_uint32_t_u_u+0x26>
    6f20:	8b 45 fc             	mov    -0x4(%rbp),%eax
    6f23:	5d                   	pop    %rbp
    6f24:	c3                   	retq   

0000000000006f25 <safe_div_func_uint32_t_u_u>:
    6f25:	f3 0f 1e fa          	endbr64 
    6f29:	55                   	push   %rbp
    6f2a:	48 89 e5             	mov    %rsp,%rbp
    6f2d:	89 7d fc             	mov    %edi,-0x4(%rbp)
    6f30:	89 75 f8             	mov    %esi,-0x8(%rbp)
    6f33:	83 7d f8 00          	cmpl   $0x0,-0x8(%rbp)
    6f37:	74 0d                	je     6f46 <safe_div_func_uint32_t_u_u+0x21>
    6f39:	8b 45 fc             	mov    -0x4(%rbp),%eax
    6f3c:	ba 00 00 00 00       	mov    $0x0,%edx
    6f41:	f7 75 f8             	divl   -0x8(%rbp)
    6f44:	eb 03                	jmp    6f49 <safe_div_func_uint32_t_u_u+0x24>
    6f46:	8b 45 fc             	mov    -0x4(%rbp),%eax
    6f49:	5d                   	pop    %rbp
    6f4a:	c3                   	retq   

0000000000006f4b <safe_lshift_func_uint32_t_u_s>:
    6f4b:	f3 0f 1e fa          	endbr64 
    6f4f:	55                   	push   %rbp
    6f50:	48 89 e5             	mov    %rsp,%rbp
    6f53:	89 7d fc             	mov    %edi,-0x4(%rbp)
    6f56:	89 75 f8             	mov    %esi,-0x8(%rbp)
    6f59:	83 7d f8 00          	cmpl   $0x0,-0x8(%rbp)
    6f5d:	78 27                	js     6f86 <safe_lshift_func_uint32_t_u_s+0x3b>
    6f5f:	83 7d f8 1f          	cmpl   $0x1f,-0x8(%rbp)
    6f63:	7f 21                	jg     6f86 <safe_lshift_func_uint32_t_u_s+0x3b>
    6f65:	8b 45 f8             	mov    -0x8(%rbp),%eax
    6f68:	ba ff ff ff ff       	mov    $0xffffffff,%edx
    6f6d:	89 c1                	mov    %eax,%ecx
    6f6f:	d3 ea                	shr    %cl,%edx
    6f71:	89 d0                	mov    %edx,%eax
    6f73:	39 45 fc             	cmp    %eax,-0x4(%rbp)
    6f76:	77 0e                	ja     6f86 <safe_lshift_func_uint32_t_u_s+0x3b>
    6f78:	8b 45 f8             	mov    -0x8(%rbp),%eax
    6f7b:	8b 55 fc             	mov    -0x4(%rbp),%edx
    6f7e:	89 c1                	mov    %eax,%ecx
    6f80:	d3 e2                	shl    %cl,%edx
    6f82:	89 d0                	mov    %edx,%eax
    6f84:	eb 03                	jmp    6f89 <safe_lshift_func_uint32_t_u_s+0x3e>
    6f86:	8b 45 fc             	mov    -0x4(%rbp),%eax
    6f89:	5d                   	pop    %rbp
    6f8a:	c3                   	retq   

0000000000006f8b <safe_lshift_func_uint32_t_u_u>:
    6f8b:	f3 0f 1e fa          	endbr64 
    6f8f:	55                   	push   %rbp
    6f90:	48 89 e5             	mov    %rsp,%rbp
    6f93:	89 7d fc             	mov    %edi,-0x4(%rbp)
    6f96:	89 75 f8             	mov    %esi,-0x8(%rbp)
    6f99:	83 7d f8 1f          	cmpl   $0x1f,-0x8(%rbp)
    6f9d:	77 21                	ja     6fc0 <safe_lshift_func_uint32_t_u_u+0x35>
    6f9f:	8b 45 f8             	mov    -0x8(%rbp),%eax
    6fa2:	ba ff ff ff ff       	mov    $0xffffffff,%edx
    6fa7:	89 c1                	mov    %eax,%ecx
    6fa9:	d3 ea                	shr    %cl,%edx
    6fab:	89 d0                	mov    %edx,%eax
    6fad:	39 45 fc             	cmp    %eax,-0x4(%rbp)
    6fb0:	77 0e                	ja     6fc0 <safe_lshift_func_uint32_t_u_u+0x35>
    6fb2:	8b 45 f8             	mov    -0x8(%rbp),%eax
    6fb5:	8b 55 fc             	mov    -0x4(%rbp),%edx
    6fb8:	89 c1                	mov    %eax,%ecx
    6fba:	d3 e2                	shl    %cl,%edx
    6fbc:	89 d0                	mov    %edx,%eax
    6fbe:	eb 03                	jmp    6fc3 <safe_lshift_func_uint32_t_u_u+0x38>
    6fc0:	8b 45 fc             	mov    -0x4(%rbp),%eax
    6fc3:	5d                   	pop    %rbp
    6fc4:	c3                   	retq   

0000000000006fc5 <safe_rshift_func_uint32_t_u_s>:
    6fc5:	f3 0f 1e fa          	endbr64 
    6fc9:	55                   	push   %rbp
    6fca:	48 89 e5             	mov    %rsp,%rbp
    6fcd:	89 7d fc             	mov    %edi,-0x4(%rbp)
    6fd0:	89 75 f8             	mov    %esi,-0x8(%rbp)
    6fd3:	83 7d f8 00          	cmpl   $0x0,-0x8(%rbp)
    6fd7:	78 14                	js     6fed <safe_rshift_func_uint32_t_u_s+0x28>
    6fd9:	83 7d f8 1f          	cmpl   $0x1f,-0x8(%rbp)
    6fdd:	7f 0e                	jg     6fed <safe_rshift_func_uint32_t_u_s+0x28>
    6fdf:	8b 45 f8             	mov    -0x8(%rbp),%eax
    6fe2:	8b 55 fc             	mov    -0x4(%rbp),%edx
    6fe5:	89 c1                	mov    %eax,%ecx
    6fe7:	d3 ea                	shr    %cl,%edx
    6fe9:	89 d0                	mov    %edx,%eax
    6feb:	eb 03                	jmp    6ff0 <safe_rshift_func_uint32_t_u_s+0x2b>
    6fed:	8b 45 fc             	mov    -0x4(%rbp),%eax
    6ff0:	5d                   	pop    %rbp
    6ff1:	c3                   	retq   

0000000000006ff2 <safe_rshift_func_uint32_t_u_u>:
    6ff2:	f3 0f 1e fa          	endbr64 
    6ff6:	55                   	push   %rbp
    6ff7:	48 89 e5             	mov    %rsp,%rbp
    6ffa:	89 7d fc             	mov    %edi,-0x4(%rbp)
    6ffd:	89 75 f8             	mov    %esi,-0x8(%rbp)
    7000:	83 7d f8 1f          	cmpl   $0x1f,-0x8(%rbp)
    7004:	77 0e                	ja     7014 <safe_rshift_func_uint32_t_u_u+0x22>
    7006:	8b 45 f8             	mov    -0x8(%rbp),%eax
    7009:	8b 55 fc             	mov    -0x4(%rbp),%edx
    700c:	89 c1                	mov    %eax,%ecx
    700e:	d3 ea                	shr    %cl,%edx
    7010:	89 d0                	mov    %edx,%eax
    7012:	eb 03                	jmp    7017 <safe_rshift_func_uint32_t_u_u+0x25>
    7014:	8b 45 fc             	mov    -0x4(%rbp),%eax
    7017:	5d                   	pop    %rbp
    7018:	c3                   	retq   

0000000000007019 <safe_unary_minus_func_uint64_t_u>:
    7019:	f3 0f 1e fa          	endbr64 
    701d:	55                   	push   %rbp
    701e:	48 89 e5             	mov    %rsp,%rbp
    7021:	48 89 7d f8          	mov    %rdi,-0x8(%rbp)
    7025:	48 8b 45 f8          	mov    -0x8(%rbp),%rax
    7029:	48 f7 d8             	neg    %rax
    702c:	5d                   	pop    %rbp
    702d:	c3                   	retq   

000000000000702e <safe_add_func_uint64_t_u_u>:
    702e:	f3 0f 1e fa          	endbr64 
    7032:	55                   	push   %rbp
    7033:	48 89 e5             	mov    %rsp,%rbp
    7036:	48 89 7d f8          	mov    %rdi,-0x8(%rbp)
    703a:	48 89 75 f0          	mov    %rsi,-0x10(%rbp)
    703e:	48 8b 55 f8          	mov    -0x8(%rbp),%rdx
    7042:	48 8b 45 f0          	mov    -0x10(%rbp),%rax
    7046:	48 01 d0             	add    %rdx,%rax
    7049:	5d                   	pop    %rbp
    704a:	c3                   	retq   

000000000000704b <safe_sub_func_uint64_t_u_u>:
    704b:	f3 0f 1e fa          	endbr64 
    704f:	55                   	push   %rbp
    7050:	48 89 e5             	mov    %rsp,%rbp
    7053:	48 89 7d f8          	mov    %rdi,-0x8(%rbp)
    7057:	48 89 75 f0          	mov    %rsi,-0x10(%rbp)
    705b:	48 8b 45 f8          	mov    -0x8(%rbp),%rax
    705f:	48 2b 45 f0          	sub    -0x10(%rbp),%rax
    7063:	5d                   	pop    %rbp
    7064:	c3                   	retq   

0000000000007065 <safe_mul_func_uint64_t_u_u>:
    7065:	f3 0f 1e fa          	endbr64 
    7069:	55                   	push   %rbp
    706a:	48 89 e5             	mov    %rsp,%rbp
    706d:	48 89 7d f8          	mov    %rdi,-0x8(%rbp)
    7071:	48 89 75 f0          	mov    %rsi,-0x10(%rbp)
    7075:	48 8b 45 f8          	mov    -0x8(%rbp),%rax
    7079:	48 0f af 45 f0       	imul   -0x10(%rbp),%rax
    707e:	5d                   	pop    %rbp
    707f:	c3                   	retq   

0000000000007080 <safe_mod_func_uint64_t_u_u>:
    7080:	f3 0f 1e fa          	endbr64 
    7084:	55                   	push   %rbp
    7085:	48 89 e5             	mov    %rsp,%rbp
    7088:	48 89 7d f8          	mov    %rdi,-0x8(%rbp)
    708c:	48 89 75 f0          	mov    %rsi,-0x10(%rbp)
    7090:	48 83 7d f0 00       	cmpq   $0x0,-0x10(%rbp)
    7095:	74 12                	je     70a9 <safe_mod_func_uint64_t_u_u+0x29>
    7097:	48 8b 45 f8          	mov    -0x8(%rbp),%rax
    709b:	ba 00 00 00 00       	mov    $0x0,%edx
    70a0:	48 f7 75 f0          	divq   -0x10(%rbp)
    70a4:	48 89 d0             	mov    %rdx,%rax
    70a7:	eb 04                	jmp    70ad <safe_mod_func_uint64_t_u_u+0x2d>
    70a9:	48 8b 45 f8          	mov    -0x8(%rbp),%rax
    70ad:	5d                   	pop    %rbp
    70ae:	c3                   	retq   

00000000000070af <safe_div_func_uint64_t_u_u>:
    70af:	f3 0f 1e fa          	endbr64 
    70b3:	55                   	push   %rbp
    70b4:	48 89 e5             	mov    %rsp,%rbp
    70b7:	48 89 7d f8          	mov    %rdi,-0x8(%rbp)
    70bb:	48 89 75 f0          	mov    %rsi,-0x10(%rbp)
    70bf:	48 83 7d f0 00       	cmpq   $0x0,-0x10(%rbp)
    70c4:	74 0f                	je     70d5 <safe_div_func_uint64_t_u_u+0x26>
    70c6:	48 8b 45 f8          	mov    -0x8(%rbp),%rax
    70ca:	ba 00 00 00 00       	mov    $0x0,%edx
    70cf:	48 f7 75 f0          	divq   -0x10(%rbp)
    70d3:	eb 04                	jmp    70d9 <safe_div_func_uint64_t_u_u+0x2a>
    70d5:	48 8b 45 f8          	mov    -0x8(%rbp),%rax
    70d9:	5d                   	pop    %rbp
    70da:	c3                   	retq   

00000000000070db <safe_lshift_func_uint64_t_u_s>:
    70db:	f3 0f 1e fa          	endbr64 
    70df:	55                   	push   %rbp
    70e0:	48 89 e5             	mov    %rsp,%rbp
    70e3:	48 89 7d f8          	mov    %rdi,-0x8(%rbp)
    70e7:	89 75 f4             	mov    %esi,-0xc(%rbp)
    70ea:	83 7d f4 00          	cmpl   $0x0,-0xc(%rbp)
    70ee:	78 2f                	js     711f <safe_lshift_func_uint64_t_u_s+0x44>
    70f0:	83 7d f4 1f          	cmpl   $0x1f,-0xc(%rbp)
    70f4:	7f 29                	jg     711f <safe_lshift_func_uint64_t_u_s+0x44>
    70f6:	8b 45 f4             	mov    -0xc(%rbp),%eax
    70f9:	48 c7 c2 ff ff ff ff 	mov    $0xffffffffffffffff,%rdx
    7100:	89 c1                	mov    %eax,%ecx
    7102:	48 d3 ea             	shr    %cl,%rdx
    7105:	48 89 d0             	mov    %rdx,%rax
    7108:	48 39 45 f8          	cmp    %rax,-0x8(%rbp)
    710c:	77 11                	ja     711f <safe_lshift_func_uint64_t_u_s+0x44>
    710e:	8b 45 f4             	mov    -0xc(%rbp),%eax
    7111:	48 8b 55 f8          	mov    -0x8(%rbp),%rdx
    7115:	89 c1                	mov    %eax,%ecx
    7117:	48 d3 e2             	shl    %cl,%rdx
    711a:	48 89 d0             	mov    %rdx,%rax
    711d:	eb 04                	jmp    7123 <safe_lshift_func_uint64_t_u_s+0x48>
    711f:	48 8b 45 f8          	mov    -0x8(%rbp),%rax
    7123:	5d                   	pop    %rbp
    7124:	c3                   	retq   

0000000000007125 <safe_lshift_func_uint64_t_u_u>:
    7125:	f3 0f 1e fa          	endbr64 
    7129:	55                   	push   %rbp
    712a:	48 89 e5             	mov    %rsp,%rbp
    712d:	48 89 7d f8          	mov    %rdi,-0x8(%rbp)
    7131:	89 75 f4             	mov    %esi,-0xc(%rbp)
    7134:	83 7d f4 1f          	cmpl   $0x1f,-0xc(%rbp)
    7138:	77 29                	ja     7163 <safe_lshift_func_uint64_t_u_u+0x3e>
    713a:	8b 45 f4             	mov    -0xc(%rbp),%eax
    713d:	48 c7 c2 ff ff ff ff 	mov    $0xffffffffffffffff,%rdx
    7144:	89 c1                	mov    %eax,%ecx
    7146:	48 d3 ea             	shr    %cl,%rdx
    7149:	48 89 d0             	mov    %rdx,%rax
    714c:	48 39 45 f8          	cmp    %rax,-0x8(%rbp)
    7150:	77 11                	ja     7163 <safe_lshift_func_uint64_t_u_u+0x3e>
    7152:	8b 45 f4             	mov    -0xc(%rbp),%eax
    7155:	48 8b 55 f8          	mov    -0x8(%rbp),%rdx
    7159:	89 c1                	mov    %eax,%ecx
    715b:	48 d3 e2             	shl    %cl,%rdx
    715e:	48 89 d0             	mov    %rdx,%rax
    7161:	eb 04                	jmp    7167 <safe_lshift_func_uint64_t_u_u+0x42>
    7163:	48 8b 45 f8          	mov    -0x8(%rbp),%rax
    7167:	5d                   	pop    %rbp
    7168:	c3                   	retq   

0000000000007169 <safe_rshift_func_uint64_t_u_s>:
    7169:	f3 0f 1e fa          	endbr64 
    716d:	55                   	push   %rbp
    716e:	48 89 e5             	mov    %rsp,%rbp
    7171:	48 89 7d f8          	mov    %rdi,-0x8(%rbp)
    7175:	89 75 f4             	mov    %esi,-0xc(%rbp)
    7178:	83 7d f4 00          	cmpl   $0x0,-0xc(%rbp)
    717c:	78 17                	js     7195 <safe_rshift_func_uint64_t_u_s+0x2c>
    717e:	83 7d f4 1f          	cmpl   $0x1f,-0xc(%rbp)
    7182:	7f 11                	jg     7195 <safe_rshift_func_uint64_t_u_s+0x2c>
    7184:	8b 45 f4             	mov    -0xc(%rbp),%eax
    7187:	48 8b 55 f8          	mov    -0x8(%rbp),%rdx
    718b:	89 c1                	mov    %eax,%ecx
    718d:	48 d3 ea             	shr    %cl,%rdx
    7190:	48 89 d0             	mov    %rdx,%rax
    7193:	eb 04                	jmp    7199 <safe_rshift_func_uint64_t_u_s+0x30>
    7195:	48 8b 45 f8          	mov    -0x8(%rbp),%rax
    7199:	5d                   	pop    %rbp
    719a:	c3                   	retq   

000000000000719b <safe_rshift_func_uint64_t_u_u>:
    719b:	f3 0f 1e fa          	endbr64 
    719f:	55                   	push   %rbp
    71a0:	48 89 e5             	mov    %rsp,%rbp
    71a3:	48 89 7d f8          	mov    %rdi,-0x8(%rbp)
    71a7:	89 75 f4             	mov    %esi,-0xc(%rbp)
    71aa:	83 7d f4 1f          	cmpl   $0x1f,-0xc(%rbp)
    71ae:	77 11                	ja     71c1 <safe_rshift_func_uint64_t_u_u+0x26>
    71b0:	8b 45 f4             	mov    -0xc(%rbp),%eax
    71b3:	48 8b 55 f8          	mov    -0x8(%rbp),%rdx
    71b7:	89 c1                	mov    %eax,%ecx
    71b9:	48 d3 ea             	shr    %cl,%rdx
    71bc:	48 89 d0             	mov    %rdx,%rax
    71bf:	eb 04                	jmp    71c5 <safe_rshift_func_uint64_t_u_u+0x2a>
    71c1:	48 8b 45 f8          	mov    -0x8(%rbp),%rax
    71c5:	5d                   	pop    %rbp
    71c6:	c3                   	retq   

00000000000071c7 <safe_add_func_float_f_f>:
    71c7:	f3 0f 1e fa          	endbr64 
    71cb:	55                   	push   %rbp
    71cc:	48 89 e5             	mov    %rsp,%rbp
    71cf:	f3 0f 11 45 fc       	movss  %xmm0,-0x4(%rbp)
    71d4:	f3 0f 11 4d f8       	movss  %xmm1,-0x8(%rbp)
    71d9:	f3 0f 10 4d fc       	movss  -0x4(%rbp),%xmm1
    71de:	f3 0f 10 05 56 28 01 	movss  0x12856(%rip),%xmm0        # 19a3c <l_475.4834+0x21c>
    71e5:	00 
    71e6:	f3 0f 59 c8          	mulss  %xmm0,%xmm1
    71ea:	f3 0f 10 55 f8       	movss  -0x8(%rbp),%xmm2
    71ef:	f3 0f 10 05 45 28 01 	movss  0x12845(%rip),%xmm0        # 19a3c <l_475.4834+0x21c>
    71f6:	00 
    71f7:	f3 0f 59 c2          	mulss  %xmm2,%xmm0
    71fb:	f3 0f 58 c1          	addss  %xmm1,%xmm0
    71ff:	f3 0f 10 0d 39 28 01 	movss  0x12839(%rip),%xmm1        # 19a40 <l_475.4834+0x220>
    7206:	00 
    7207:	0f 54 c1             	andps  %xmm1,%xmm0
    720a:	0f 2f 05 3f 28 01 00 	comiss 0x1283f(%rip),%xmm0        # 19a50 <l_475.4834+0x230>
    7211:	76 07                	jbe    721a <safe_add_func_float_f_f+0x53>
    7213:	f3 0f 10 45 fc       	movss  -0x4(%rbp),%xmm0
    7218:	eb 0a                	jmp    7224 <safe_add_func_float_f_f+0x5d>
    721a:	f3 0f 10 45 fc       	movss  -0x4(%rbp),%xmm0
    721f:	f3 0f 58 45 f8       	addss  -0x8(%rbp),%xmm0
    7224:	5d                   	pop    %rbp
    7225:	c3                   	retq   

0000000000007226 <safe_sub_func_float_f_f>:
    7226:	f3 0f 1e fa          	endbr64 
    722a:	55                   	push   %rbp
    722b:	48 89 e5             	mov    %rsp,%rbp
    722e:	f3 0f 11 45 fc       	movss  %xmm0,-0x4(%rbp)
    7233:	f3 0f 11 4d f8       	movss  %xmm1,-0x8(%rbp)
    7238:	f3 0f 10 4d fc       	movss  -0x4(%rbp),%xmm1
    723d:	f3 0f 10 05 f7 27 01 	movss  0x127f7(%rip),%xmm0        # 19a3c <l_475.4834+0x21c>
    7244:	00 
    7245:	f3 0f 59 c1          	mulss  %xmm1,%xmm0
    7249:	f3 0f 10 55 f8       	movss  -0x8(%rbp),%xmm2
    724e:	f3 0f 10 0d e6 27 01 	movss  0x127e6(%rip),%xmm1        # 19a3c <l_475.4834+0x21c>
    7255:	00 
    7256:	f3 0f 59 ca          	mulss  %xmm2,%xmm1
    725a:	f3 0f 5c c1          	subss  %xmm1,%xmm0
    725e:	f3 0f 10 0d da 27 01 	movss  0x127da(%rip),%xmm1        # 19a40 <l_475.4834+0x220>
    7265:	00 
    7266:	0f 54 c1             	andps  %xmm1,%xmm0
    7269:	0f 2f 05 e0 27 01 00 	comiss 0x127e0(%rip),%xmm0        # 19a50 <l_475.4834+0x230>
    7270:	76 07                	jbe    7279 <safe_sub_func_float_f_f+0x53>
    7272:	f3 0f 10 45 fc       	movss  -0x4(%rbp),%xmm0
    7277:	eb 0a                	jmp    7283 <safe_sub_func_float_f_f+0x5d>
    7279:	f3 0f 10 45 fc       	movss  -0x4(%rbp),%xmm0
    727e:	f3 0f 5c 45 f8       	subss  -0x8(%rbp),%xmm0
    7283:	5d                   	pop    %rbp
    7284:	c3                   	retq   

0000000000007285 <safe_mul_func_float_f_f>:
    7285:	f3 0f 1e fa          	endbr64 
    7289:	55                   	push   %rbp
    728a:	48 89 e5             	mov    %rsp,%rbp
    728d:	f3 0f 11 45 fc       	movss  %xmm0,-0x4(%rbp)
    7292:	f3 0f 11 4d f8       	movss  %xmm1,-0x8(%rbp)
    7297:	f3 0f 10 4d fc       	movss  -0x4(%rbp),%xmm1
    729c:	f3 0f 10 05 b0 27 01 	movss  0x127b0(%rip),%xmm0        # 19a54 <l_475.4834+0x234>
    72a3:	00 
    72a4:	f3 0f 59 c8          	mulss  %xmm0,%xmm1
    72a8:	f3 0f 10 55 f8       	movss  -0x8(%rbp),%xmm2
    72ad:	f3 0f 10 05 a3 27 01 	movss  0x127a3(%rip),%xmm0        # 19a58 <l_475.4834+0x238>
    72b4:	00 
    72b5:	f3 0f 59 c2          	mulss  %xmm2,%xmm0
    72b9:	f3 0f 59 c1          	mulss  %xmm1,%xmm0
    72bd:	f3 0f 10 0d 7b 27 01 	movss  0x1277b(%rip),%xmm1        # 19a40 <l_475.4834+0x220>
    72c4:	00 
    72c5:	0f 54 c1             	andps  %xmm1,%xmm0
    72c8:	0f 2f 05 8d 27 01 00 	comiss 0x1278d(%rip),%xmm0        # 19a5c <l_475.4834+0x23c>
    72cf:	76 07                	jbe    72d8 <safe_mul_func_float_f_f+0x53>
    72d1:	f3 0f 10 45 fc       	movss  -0x4(%rbp),%xmm0
    72d6:	eb 0a                	jmp    72e2 <safe_mul_func_float_f_f+0x5d>
    72d8:	f3 0f 10 45 fc       	movss  -0x4(%rbp),%xmm0
    72dd:	f3 0f 59 45 f8       	mulss  -0x8(%rbp),%xmm0
    72e2:	5d                   	pop    %rbp
    72e3:	c3                   	retq   

00000000000072e4 <safe_div_func_float_f_f>:
    72e4:	f3 0f 1e fa          	endbr64 
    72e8:	55                   	push   %rbp
    72e9:	48 89 e5             	mov    %rsp,%rbp
    72ec:	f3 0f 11 45 fc       	movss  %xmm0,-0x4(%rbp)
    72f1:	f3 0f 11 4d f8       	movss  %xmm1,-0x8(%rbp)
    72f6:	f3 0f 10 45 f8       	movss  -0x8(%rbp),%xmm0
    72fb:	f3 0f 10 0d 3d 27 01 	movss  0x1273d(%rip),%xmm1        # 19a40 <l_475.4834+0x220>
    7302:	00 
    7303:	0f 54 c8             	andps  %xmm0,%xmm1
    7306:	f3 0f 10 05 52 27 01 	movss  0x12752(%rip),%xmm0        # 19a60 <l_475.4834+0x240>
    730d:	00 
    730e:	0f 2f c1             	comiss %xmm1,%xmm0
    7311:	0f 97 c0             	seta   %al
    7314:	83 f0 01             	xor    $0x1,%eax
    7317:	84 c0                	test   %al,%al
    7319:	75 56                	jne    7371 <safe_div_func_float_f_f+0x8d>
    731b:	66 0f ef c0          	pxor   %xmm0,%xmm0
    731f:	0f 2e 45 f8          	ucomiss -0x8(%rbp),%xmm0
    7323:	7a 0a                	jp     732f <safe_div_func_float_f_f+0x4b>
    7325:	66 0f ef c0          	pxor   %xmm0,%xmm0
    7329:	0f 2e 45 f8          	ucomiss -0x8(%rbp),%xmm0
    732d:	74 4e                	je     737d <safe_div_func_float_f_f+0x99>
    732f:	f3 0f 10 4d fc       	movss  -0x4(%rbp),%xmm1
    7334:	f3 0f 10 05 28 27 01 	movss  0x12728(%rip),%xmm0        # 19a64 <l_475.4834+0x244>
    733b:	00 
    733c:	f3 0f 59 c1          	mulss  %xmm1,%xmm0
    7340:	f3 0f 10 55 f8       	movss  -0x8(%rbp),%xmm2
    7345:	f3 0f 10 0d 1b 27 01 	movss  0x1271b(%rip),%xmm1        # 19a68 <l_475.4834+0x248>
    734c:	00 
    734d:	f3 0f 59 ca          	mulss  %xmm2,%xmm1
    7351:	f3 0f 5e c1          	divss  %xmm1,%xmm0
    7355:	f3 0f 10 0d e3 26 01 	movss  0x126e3(%rip),%xmm1        # 19a40 <l_475.4834+0x220>
    735c:	00 
    735d:	0f 54 c1             	andps  %xmm1,%xmm0
    7360:	0f 2f 05 05 27 01 00 	comiss 0x12705(%rip),%xmm0        # 19a6c <l_475.4834+0x24c>
    7367:	0f 97 c0             	seta   %al
    736a:	83 f0 01             	xor    $0x1,%eax
    736d:	84 c0                	test   %al,%al
    736f:	74 0c                	je     737d <safe_div_func_float_f_f+0x99>
    7371:	f3 0f 10 45 fc       	movss  -0x4(%rbp),%xmm0
    7376:	f3 0f 5e 45 f8       	divss  -0x8(%rbp),%xmm0
    737b:	eb 05                	jmp    7382 <safe_div_func_float_f_f+0x9e>
    737d:	f3 0f 10 45 fc       	movss  -0x4(%rbp),%xmm0
    7382:	5d                   	pop    %rbp
    7383:	c3                   	retq   

0000000000007384 <safe_add_func_double_f_f>:
    7384:	f3 0f 1e fa          	endbr64 
    7388:	55                   	push   %rbp
    7389:	48 89 e5             	mov    %rsp,%rbp
    738c:	f2 0f 11 45 f8       	movsd  %xmm0,-0x8(%rbp)
    7391:	f2 0f 11 4d f0       	movsd  %xmm1,-0x10(%rbp)
    7396:	f2 0f 10 4d f8       	movsd  -0x8(%rbp),%xmm1
    739b:	f2 0f 10 05 cd 26 01 	movsd  0x126cd(%rip),%xmm0        # 19a70 <l_475.4834+0x250>
    73a2:	00 
    73a3:	f2 0f 59 c8          	mulsd  %xmm0,%xmm1
    73a7:	f2 0f 10 55 f0       	movsd  -0x10(%rbp),%xmm2
    73ac:	f2 0f 10 05 bc 26 01 	movsd  0x126bc(%rip),%xmm0        # 19a70 <l_475.4834+0x250>
    73b3:	00 
    73b4:	f2 0f 59 c2          	mulsd  %xmm2,%xmm0
    73b8:	f2 0f 58 c1          	addsd  %xmm1,%xmm0
    73bc:	f3 0f 7e 0d bc 26 01 	movq   0x126bc(%rip),%xmm1        # 19a80 <l_475.4834+0x260>
    73c3:	00 
    73c4:	66 0f 54 c1          	andpd  %xmm1,%xmm0
    73c8:	66 0f 2f 05 c0 26 01 	comisd 0x126c0(%rip),%xmm0        # 19a90 <l_475.4834+0x270>
    73cf:	00 
    73d0:	76 07                	jbe    73d9 <safe_add_func_double_f_f+0x55>
    73d2:	f2 0f 10 45 f8       	movsd  -0x8(%rbp),%xmm0
    73d7:	eb 0a                	jmp    73e3 <safe_add_func_double_f_f+0x5f>
    73d9:	f2 0f 10 45 f8       	movsd  -0x8(%rbp),%xmm0
    73de:	f2 0f 58 45 f0       	addsd  -0x10(%rbp),%xmm0
    73e3:	5d                   	pop    %rbp
    73e4:	c3                   	retq   

00000000000073e5 <safe_sub_func_double_f_f>:
    73e5:	f3 0f 1e fa          	endbr64 
    73e9:	55                   	push   %rbp
    73ea:	48 89 e5             	mov    %rsp,%rbp
    73ed:	f2 0f 11 45 f8       	movsd  %xmm0,-0x8(%rbp)
    73f2:	f2 0f 11 4d f0       	movsd  %xmm1,-0x10(%rbp)
    73f7:	f2 0f 10 4d f8       	movsd  -0x8(%rbp),%xmm1
    73fc:	f2 0f 10 05 6c 26 01 	movsd  0x1266c(%rip),%xmm0        # 19a70 <l_475.4834+0x250>
    7403:	00 
    7404:	f2 0f 59 c1          	mulsd  %xmm1,%xmm0
    7408:	f2 0f 10 55 f0       	movsd  -0x10(%rbp),%xmm2
    740d:	f2 0f 10 0d 5b 26 01 	movsd  0x1265b(%rip),%xmm1        # 19a70 <l_475.4834+0x250>
    7414:	00 
    7415:	f2 0f 59 ca          	mulsd  %xmm2,%xmm1
    7419:	f2 0f 5c c1          	subsd  %xmm1,%xmm0
    741d:	f3 0f 7e 0d 5b 26 01 	movq   0x1265b(%rip),%xmm1        # 19a80 <l_475.4834+0x260>
    7424:	00 
    7425:	66 0f 54 c1          	andpd  %xmm1,%xmm0
    7429:	66 0f 2f 05 5f 26 01 	comisd 0x1265f(%rip),%xmm0        # 19a90 <l_475.4834+0x270>
    7430:	00 
    7431:	76 07                	jbe    743a <safe_sub_func_double_f_f+0x55>
    7433:	f2 0f 10 45 f8       	movsd  -0x8(%rbp),%xmm0
    7438:	eb 0a                	jmp    7444 <safe_sub_func_double_f_f+0x5f>
    743a:	f2 0f 10 45 f8       	movsd  -0x8(%rbp),%xmm0
    743f:	f2 0f 5c 45 f0       	subsd  -0x10(%rbp),%xmm0
    7444:	5d                   	pop    %rbp
    7445:	c3                   	retq   

0000000000007446 <safe_mul_func_double_f_f>:
    7446:	f3 0f 1e fa          	endbr64 
    744a:	55                   	push   %rbp
    744b:	48 89 e5             	mov    %rsp,%rbp
    744e:	f2 0f 11 45 f8       	movsd  %xmm0,-0x8(%rbp)
    7453:	f2 0f 11 4d f0       	movsd  %xmm1,-0x10(%rbp)
    7458:	f2 0f 10 4d f8       	movsd  -0x8(%rbp),%xmm1
    745d:	f2 0f 10 05 33 26 01 	movsd  0x12633(%rip),%xmm0        # 19a98 <l_475.4834+0x278>
    7464:	00 
    7465:	f2 0f 59 c8          	mulsd  %xmm0,%xmm1
    7469:	f2 0f 10 55 f0       	movsd  -0x10(%rbp),%xmm2
    746e:	f2 0f 10 05 2a 26 01 	movsd  0x1262a(%rip),%xmm0        # 19aa0 <l_475.4834+0x280>
    7475:	00 
    7476:	f2 0f 59 c2          	mulsd  %xmm2,%xmm0
    747a:	f2 0f 59 c1          	mulsd  %xmm1,%xmm0
    747e:	f3 0f 7e 0d fa 25 01 	movq   0x125fa(%rip),%xmm1        # 19a80 <l_475.4834+0x260>
    7485:	00 
    7486:	66 0f 54 c1          	andpd  %xmm1,%xmm0
    748a:	66 0f 2f 05 16 26 01 	comisd 0x12616(%rip),%xmm0        # 19aa8 <l_475.4834+0x288>
    7491:	00 
    7492:	76 07                	jbe    749b <safe_mul_func_double_f_f+0x55>
    7494:	f2 0f 10 45 f8       	movsd  -0x8(%rbp),%xmm0
    7499:	eb 0a                	jmp    74a5 <safe_mul_func_double_f_f+0x5f>
    749b:	f2 0f 10 45 f8       	movsd  -0x8(%rbp),%xmm0
    74a0:	f2 0f 59 45 f0       	mulsd  -0x10(%rbp),%xmm0
    74a5:	5d                   	pop    %rbp
    74a6:	c3                   	retq   

00000000000074a7 <safe_div_func_double_f_f>:
    74a7:	f3 0f 1e fa          	endbr64 
    74ab:	55                   	push   %rbp
    74ac:	48 89 e5             	mov    %rsp,%rbp
    74af:	f2 0f 11 45 f8       	movsd  %xmm0,-0x8(%rbp)
    74b4:	f2 0f 11 4d f0       	movsd  %xmm1,-0x10(%rbp)
    74b9:	f2 0f 10 45 f0       	movsd  -0x10(%rbp),%xmm0
    74be:	f3 0f 7e 0d ba 25 01 	movq   0x125ba(%rip),%xmm1        # 19a80 <l_475.4834+0x260>
    74c5:	00 
    74c6:	66 0f 54 c8          	andpd  %xmm0,%xmm1
    74ca:	f2 0f 10 05 de 25 01 	movsd  0x125de(%rip),%xmm0        # 19ab0 <l_475.4834+0x290>
    74d1:	00 
    74d2:	66 0f 2f c1          	comisd %xmm1,%xmm0
    74d6:	0f 97 c0             	seta   %al
    74d9:	83 f0 01             	xor    $0x1,%eax
    74dc:	84 c0                	test   %al,%al
    74de:	75 5a                	jne    753a <safe_div_func_double_f_f+0x93>
    74e0:	66 0f ef c0          	pxor   %xmm0,%xmm0
    74e4:	66 0f 2e 45 f0       	ucomisd -0x10(%rbp),%xmm0
    74e9:	7a 0b                	jp     74f6 <safe_div_func_double_f_f+0x4f>
    74eb:	66 0f ef c0          	pxor   %xmm0,%xmm0
    74ef:	66 0f 2e 45 f0       	ucomisd -0x10(%rbp),%xmm0
    74f4:	74 50                	je     7546 <safe_div_func_double_f_f+0x9f>
    74f6:	f2 0f 10 4d f8       	movsd  -0x8(%rbp),%xmm1
    74fb:	f2 0f 10 05 b5 25 01 	movsd  0x125b5(%rip),%xmm0        # 19ab8 <l_475.4834+0x298>
    7502:	00 
    7503:	f2 0f 59 c1          	mulsd  %xmm1,%xmm0
    7507:	f2 0f 10 55 f0       	movsd  -0x10(%rbp),%xmm2
    750c:	f2 0f 10 0d ac 25 01 	movsd  0x125ac(%rip),%xmm1        # 19ac0 <l_475.4834+0x2a0>
    7513:	00 
    7514:	f2 0f 59 ca          	mulsd  %xmm2,%xmm1
    7518:	f2 0f 5e c1          	divsd  %xmm1,%xmm0
    751c:	f3 0f 7e 0d 5c 25 01 	movq   0x1255c(%rip),%xmm1        # 19a80 <l_475.4834+0x260>
    7523:	00 
    7524:	66 0f 54 c1          	andpd  %xmm1,%xmm0
    7528:	66 0f 2f 05 98 25 01 	comisd 0x12598(%rip),%xmm0        # 19ac8 <l_475.4834+0x2a8>
    752f:	00 
    7530:	0f 97 c0             	seta   %al
    7533:	83 f0 01             	xor    $0x1,%eax
    7536:	84 c0                	test   %al,%al
    7538:	74 0c                	je     7546 <safe_div_func_double_f_f+0x9f>
    753a:	f2 0f 10 45 f8       	movsd  -0x8(%rbp),%xmm0
    753f:	f2 0f 5e 45 f0       	divsd  -0x10(%rbp),%xmm0
    7544:	eb 05                	jmp    754b <safe_div_func_double_f_f+0xa4>
    7546:	f2 0f 10 45 f8       	movsd  -0x8(%rbp),%xmm0
    754b:	5d                   	pop    %rbp
    754c:	c3                   	retq   

000000000000754d <safe_convert_func_float_to_int32_t>:
    754d:	f3 0f 1e fa          	endbr64 
    7551:	55                   	push   %rbp
    7552:	48 89 e5             	mov    %rsp,%rbp
    7555:	f3 0f 11 45 fc       	movss  %xmm0,-0x4(%rbp)
    755a:	f3 0f 10 05 6e 25 01 	movss  0x1256e(%rip),%xmm0        # 19ad0 <l_475.4834+0x2b0>
    7561:	00 
    7562:	0f 2f 45 fc          	comiss -0x4(%rbp),%xmm0
    7566:	0f 93 c0             	setae  %al
    7569:	83 f0 01             	xor    $0x1,%eax
    756c:	84 c0                	test   %al,%al
    756e:	74 21                	je     7591 <safe_convert_func_float_to_int32_t+0x44>
    7570:	f3 0f 10 45 fc       	movss  -0x4(%rbp),%xmm0
    7575:	0f 2f 05 58 25 01 00 	comiss 0x12558(%rip),%xmm0        # 19ad4 <l_475.4834+0x2b4>
    757c:	0f 93 c0             	setae  %al
    757f:	83 f0 01             	xor    $0x1,%eax
    7582:	84 c0                	test   %al,%al
    7584:	74 0b                	je     7591 <safe_convert_func_float_to_int32_t+0x44>
    7586:	f3 0f 10 45 fc       	movss  -0x4(%rbp),%xmm0
    758b:	f3 0f 2c c0          	cvttss2si %xmm0,%eax
    758f:	eb 05                	jmp    7596 <safe_convert_func_float_to_int32_t+0x49>
    7591:	b8 ff ff ff 7f       	mov    $0x7fffffff,%eax
    7596:	5d                   	pop    %rbp
    7597:	c3                   	retq   

0000000000007598 <crc32_gentab>:
    7598:	f3 0f 1e fa          	endbr64 
    759c:	55                   	push   %rbp
    759d:	48 89 e5             	mov    %rsp,%rbp
    75a0:	c7 45 fc 20 83 b8 ed 	movl   $0xedb88320,-0x4(%rbp)
    75a7:	c7 45 f4 00 00 00 00 	movl   $0x0,-0xc(%rbp)
    75ae:	eb 51                	jmp    7601 <crc32_gentab+0x69>
    75b0:	8b 45 f4             	mov    -0xc(%rbp),%eax
    75b3:	89 45 f0             	mov    %eax,-0x10(%rbp)
    75b6:	c7 45 f8 08 00 00 00 	movl   $0x8,-0x8(%rbp)
    75bd:	eb 1e                	jmp    75dd <crc32_gentab+0x45>
    75bf:	8b 45 f0             	mov    -0x10(%rbp),%eax
    75c2:	83 e0 01             	and    $0x1,%eax
    75c5:	85 c0                	test   %eax,%eax
    75c7:	74 0d                	je     75d6 <crc32_gentab+0x3e>
    75c9:	8b 45 f0             	mov    -0x10(%rbp),%eax
    75cc:	d1 e8                	shr    %eax
    75ce:	33 45 fc             	xor    -0x4(%rbp),%eax
    75d1:	89 45 f0             	mov    %eax,-0x10(%rbp)
    75d4:	eb 03                	jmp    75d9 <crc32_gentab+0x41>
    75d6:	d1 6d f0             	shrl   -0x10(%rbp)
    75d9:	83 6d f8 01          	subl   $0x1,-0x8(%rbp)
    75dd:	83 7d f8 00          	cmpl   $0x0,-0x8(%rbp)
    75e1:	7f dc                	jg     75bf <crc32_gentab+0x27>
    75e3:	8b 45 f4             	mov    -0xc(%rbp),%eax
    75e6:	48 98                	cltq   
    75e8:	48 8d 0c 85 00 00 00 	lea    0x0(,%rax,4),%rcx
    75ef:	00 
    75f0:	48 8d 15 89 a4 01 00 	lea    0x1a489(%rip),%rdx        # 21a80 <crc32_tab>
    75f7:	8b 45 f0             	mov    -0x10(%rbp),%eax
    75fa:	89 04 11             	mov    %eax,(%rcx,%rdx,1)
    75fd:	83 45 f4 01          	addl   $0x1,-0xc(%rbp)
    7601:	81 7d f4 ff 00 00 00 	cmpl   $0xff,-0xc(%rbp)
    7608:	7e a6                	jle    75b0 <crc32_gentab+0x18>
    760a:	90                   	nop
    760b:	90                   	nop
    760c:	5d                   	pop    %rbp
    760d:	c3                   	retq   

000000000000760e <crc32_byte>:
    760e:	f3 0f 1e fa          	endbr64 
    7612:	55                   	push   %rbp
    7613:	48 89 e5             	mov    %rsp,%rbp
    7616:	89 f8                	mov    %edi,%eax
    7618:	88 45 fc             	mov    %al,-0x4(%rbp)
    761b:	8b 05 ff 49 01 00    	mov    0x149ff(%rip),%eax        # 1c020 <crc32_context>
    7621:	c1 e8 08             	shr    $0x8,%eax
    7624:	89 c1                	mov    %eax,%ecx
    7626:	0f b6 55 fc          	movzbl -0x4(%rbp),%edx
    762a:	8b 05 f0 49 01 00    	mov    0x149f0(%rip),%eax        # 1c020 <crc32_context>
    7630:	31 d0                	xor    %edx,%eax
    7632:	0f b6 c0             	movzbl %al,%eax
    7635:	89 c0                	mov    %eax,%eax
    7637:	48 8d 14 85 00 00 00 	lea    0x0(,%rax,4),%rdx
    763e:	00 
    763f:	48 8d 05 3a a4 01 00 	lea    0x1a43a(%rip),%rax        # 21a80 <crc32_tab>
    7646:	8b 04 02             	mov    (%rdx,%rax,1),%eax
    7649:	31 c8                	xor    %ecx,%eax
    764b:	89 05 cf 49 01 00    	mov    %eax,0x149cf(%rip)        # 1c020 <crc32_context>
    7651:	90                   	nop
    7652:	5d                   	pop    %rbp
    7653:	c3                   	retq   

0000000000007654 <crc32_8bytes>:
    7654:	f3 0f 1e fa          	endbr64 
    7658:	55                   	push   %rbp
    7659:	48 89 e5             	mov    %rsp,%rbp
    765c:	48 83 ec 08          	sub    $0x8,%rsp
    7660:	48 89 7d f8          	mov    %rdi,-0x8(%rbp)
    7664:	48 8b 45 f8          	mov    -0x8(%rbp),%rax
    7668:	0f b6 c0             	movzbl %al,%eax
    766b:	89 c7                	mov    %eax,%edi
    766d:	e8 9c ff ff ff       	callq  760e <crc32_byte>
    7672:	48 8b 45 f8          	mov    -0x8(%rbp),%rax
    7676:	48 c1 e8 08          	shr    $0x8,%rax
    767a:	0f b6 c0             	movzbl %al,%eax
    767d:	89 c7                	mov    %eax,%edi
    767f:	e8 8a ff ff ff       	callq  760e <crc32_byte>
    7684:	48 8b 45 f8          	mov    -0x8(%rbp),%rax
    7688:	48 c1 e8 10          	shr    $0x10,%rax
    768c:	0f b6 c0             	movzbl %al,%eax
    768f:	89 c7                	mov    %eax,%edi
    7691:	e8 78 ff ff ff       	callq  760e <crc32_byte>
    7696:	48 8b 45 f8          	mov    -0x8(%rbp),%rax
    769a:	48 c1 e8 18          	shr    $0x18,%rax
    769e:	0f b6 c0             	movzbl %al,%eax
    76a1:	89 c7                	mov    %eax,%edi
    76a3:	e8 66 ff ff ff       	callq  760e <crc32_byte>
    76a8:	48 8b 45 f8          	mov    -0x8(%rbp),%rax
    76ac:	48 c1 e8 20          	shr    $0x20,%rax
    76b0:	0f b6 c0             	movzbl %al,%eax
    76b3:	89 c7                	mov    %eax,%edi
    76b5:	e8 54 ff ff ff       	callq  760e <crc32_byte>
    76ba:	48 8b 45 f8          	mov    -0x8(%rbp),%rax
    76be:	48 c1 e8 28          	shr    $0x28,%rax
    76c2:	0f b6 c0             	movzbl %al,%eax
    76c5:	89 c7                	mov    %eax,%edi
    76c7:	e8 42 ff ff ff       	callq  760e <crc32_byte>
    76cc:	48 8b 45 f8          	mov    -0x8(%rbp),%rax
    76d0:	48 c1 e8 30          	shr    $0x30,%rax
    76d4:	0f b6 c0             	movzbl %al,%eax
    76d7:	89 c7                	mov    %eax,%edi
    76d9:	e8 30 ff ff ff       	callq  760e <crc32_byte>
    76de:	48 8b 45 f8          	mov    -0x8(%rbp),%rax
    76e2:	48 c1 e8 38          	shr    $0x38,%rax
    76e6:	0f b6 c0             	movzbl %al,%eax
    76e9:	89 c7                	mov    %eax,%edi
    76eb:	e8 1e ff ff ff       	callq  760e <crc32_byte>
    76f0:	90                   	nop
    76f1:	c9                   	leaveq 
    76f2:	c3                   	retq   

00000000000076f3 <transparent_crc>:
    76f3:	f3 0f 1e fa          	endbr64 
    76f7:	55                   	push   %rbp
    76f8:	48 89 e5             	mov    %rsp,%rbp
    76fb:	48 83 ec 20          	sub    $0x20,%rsp
    76ff:	48 89 7d f8          	mov    %rdi,-0x8(%rbp)
    7703:	48 89 75 f0          	mov    %rsi,-0x10(%rbp)
    7707:	89 55 ec             	mov    %edx,-0x14(%rbp)
    770a:	48 8b 45 f8          	mov    -0x8(%rbp),%rax
    770e:	48 89 c7             	mov    %rax,%rdi
    7711:	e8 3e ff ff ff       	callq  7654 <crc32_8bytes>
    7716:	83 7d ec 00          	cmpl   $0x0,-0x14(%rbp)
    771a:	74 22                	je     773e <transparent_crc+0x4b>
    771c:	8b 05 fe 48 01 00    	mov    0x148fe(%rip),%eax        # 1c020 <crc32_context>
    7722:	f7 d0                	not    %eax
    7724:	89 c2                	mov    %eax,%edx
    7726:	48 8b 45 f0          	mov    -0x10(%rbp),%rax
    772a:	48 89 c6             	mov    %rax,%rsi
    772d:	48 8d 3d fc f8 00 00 	lea    0xf8fc(%rip),%rdi        # 17030 <_IO_stdin_used+0x30>
    7734:	b8 00 00 00 00       	mov    $0x0,%eax
    7739:	e8 42 e9 ff ff       	callq  6080 <printf@plt>
    773e:	90                   	nop
    773f:	c9                   	leaveq 
    7740:	c3                   	retq   

0000000000007741 <transparent_crc_bytes>:
    7741:	f3 0f 1e fa          	endbr64 
    7745:	55                   	push   %rbp
    7746:	48 89 e5             	mov    %rsp,%rbp
    7749:	48 83 ec 30          	sub    $0x30,%rsp
    774d:	48 89 7d e8          	mov    %rdi,-0x18(%rbp)
    7751:	89 75 e4             	mov    %esi,-0x1c(%rbp)
    7754:	48 89 55 d8          	mov    %rdx,-0x28(%rbp)
    7758:	89 4d e0             	mov    %ecx,-0x20(%rbp)
    775b:	c7 45 fc 00 00 00 00 	movl   $0x0,-0x4(%rbp)
    7762:	eb 1e                	jmp    7782 <transparent_crc_bytes+0x41>
    7764:	8b 45 fc             	mov    -0x4(%rbp),%eax
    7767:	48 63 d0             	movslq %eax,%rdx
    776a:	48 8b 45 e8          	mov    -0x18(%rbp),%rax
    776e:	48 01 d0             	add    %rdx,%rax
    7771:	0f b6 00             	movzbl (%rax),%eax
    7774:	0f b6 c0             	movzbl %al,%eax
    7777:	89 c7                	mov    %eax,%edi
    7779:	e8 90 fe ff ff       	callq  760e <crc32_byte>
    777e:	83 45 fc 01          	addl   $0x1,-0x4(%rbp)
    7782:	8b 45 fc             	mov    -0x4(%rbp),%eax
    7785:	3b 45 e4             	cmp    -0x1c(%rbp),%eax
    7788:	7c da                	jl     7764 <transparent_crc_bytes+0x23>
    778a:	83 7d e0 00          	cmpl   $0x0,-0x20(%rbp)
    778e:	74 22                	je     77b2 <transparent_crc_bytes+0x71>
    7790:	8b 05 8a 48 01 00    	mov    0x1488a(%rip),%eax        # 1c020 <crc32_context>
    7796:	f7 d0                	not    %eax
    7798:	89 c2                	mov    %eax,%edx
    779a:	48 8b 45 d8          	mov    -0x28(%rbp),%rax
    779e:	48 89 c6             	mov    %rax,%rsi
    77a1:	48 8d 3d 88 f8 00 00 	lea    0xf888(%rip),%rdi        # 17030 <_IO_stdin_used+0x30>
    77a8:	b8 00 00 00 00       	mov    $0x0,%eax
    77ad:	e8 ce e8 ff ff       	callq  6080 <printf@plt>
    77b2:	90                   	nop
    77b3:	c9                   	leaveq 
    77b4:	c3                   	retq   

00000000000077b5 <func_1>:
    77b5:	f3 0f 1e fa          	endbr64 
    77b9:	55                   	push   %rbp
    77ba:	48 89 e5             	mov    %rsp,%rbp
    77bd:	53                   	push   %rbx
    77be:	48 83 ec 18          	sub    $0x18,%rsp
    77c2:	c7 45 e0 ce 09 30 69 	movl   $0x693009ce,-0x20(%rbp)
    77c9:	c7 45 e4 00 00 00 00 	movl   $0x0,-0x1c(%rbp)
    77d0:	48 8d 05 c5 48 01 00 	lea    0x148c5(%rip),%rax        # 1c09c <g_266>
    77d7:	48 89 45 e8          	mov    %rax,-0x18(%rbp)
    77db:	0f b7 05 42 48 01 00 	movzwl 0x14842(%rip),%eax        # 1c024 <g_14>
    77e2:	0f b6 c0             	movzbl %al,%eax
    77e5:	be 06 00 00 00       	mov    $0x6,%esi
    77ea:	89 c7                	mov    %eax,%edi
    77ec:	e8 9c f4 ff ff       	callq  6c8d <safe_rshift_func_uint8_t_u_s>
    77f1:	0f b6 c0             	movzbl %al,%eax
    77f4:	be 0b 00 00 00       	mov    $0xb,%esi
    77f9:	89 c7                	mov    %eax,%edi
    77fb:	e8 92 ec ff ff       	callq  6492 <safe_lshift_func_int16_t_s_s>
    7800:	8b 45 e4             	mov    -0x1c(%rbp),%eax
    7803:	0f be d8             	movsbl %al,%ebx
    7806:	be 01 00 00 00       	mov    $0x1,%esi
    780b:	bf 01 00 00 00       	mov    $0x1,%edi
    7810:	e8 78 f4 ff ff       	callq  6c8d <safe_rshift_func_uint8_t_u_s>
    7815:	0f b6 c0             	movzbl %al,%eax
    7818:	39 45 e0             	cmp    %eax,-0x20(%rbp)
    781b:	0f 92 c0             	setb   %al
    781e:	0f b6 d0             	movzbl %al,%edx
    7821:	0f b7 05 fe 47 01 00 	movzwl 0x147fe(%rip),%eax        # 1c026 <g_23>
    7828:	0f b7 c0             	movzwl %ax,%eax
    782b:	39 c2                	cmp    %eax,%edx
    782d:	7e 04                	jle    7833 <func_1+0x7e>
    782f:	83 7d e0 00          	cmpl   $0x0,-0x20(%rbp)
    7833:	bf 01 00 00 00       	mov    $0x1,%edi
    7838:	e8 74 00 00 00       	callq  78b1 <func_19>
    783d:	0f b6 c0             	movzbl %al,%eax
    7840:	be 02 00 00 00       	mov    $0x2,%esi
    7845:	89 c7                	mov    %eax,%edi
    7847:	e8 41 f4 ff ff       	callq  6c8d <safe_rshift_func_uint8_t_u_s>
    784c:	0f be c0             	movsbl %al,%eax
    784f:	89 de                	mov    %ebx,%esi
    7851:	89 c7                	mov    %eax,%edi
    7853:	e8 12 ea ff ff       	callq  626a <safe_div_func_int8_t_s_s>
    7858:	84 c0                	test   %al,%al
    785a:	8b 45 e4             	mov    -0x1c(%rbp),%eax
    785d:	3b 45 e0             	cmp    -0x20(%rbp),%eax
    7860:	0f 97 c0             	seta   %al
    7863:	0f b6 c0             	movzbl %al,%eax
    7866:	be 07 00 00 00       	mov    $0x7,%esi
    786b:	89 c7                	mov    %eax,%edi
    786d:	e8 7c ea ff ff       	callq  62ee <safe_lshift_func_int8_t_s_u>
    7872:	0f be d0             	movsbl %al,%edx
    7875:	8b 45 e4             	mov    -0x1c(%rbp),%eax
    7878:	0f b6 c0             	movzbl %al,%eax
    787b:	89 d6                	mov    %edx,%esi
    787d:	89 c7                	mov    %eax,%edi
    787f:	e8 81 f3 ff ff       	callq  6c05 <safe_lshift_func_uint8_t_u_s>
    7884:	0f b6 d0             	movzbl %al,%edx
    7887:	8b 45 e0             	mov    -0x20(%rbp),%eax
    788a:	89 d6                	mov    %edx,%esi
    788c:	89 c7                	mov    %eax,%edi
    788e:	e8 92 f6 ff ff       	callq  6f25 <safe_div_func_uint32_t_u_u>
    7893:	39 45 e0             	cmp    %eax,-0x20(%rbp)
    7896:	0f 92 c0             	setb   %al
    7899:	0f b6 d0             	movzbl %al,%edx
    789c:	48 8b 45 e8          	mov    -0x18(%rbp),%rax
    78a0:	89 10                	mov    %edx,(%rax)
    78a2:	48 8b 45 e8          	mov    -0x18(%rbp),%rax
    78a6:	8b 00                	mov    (%rax),%eax
    78a8:	48 98                	cltq   
    78aa:	48 83 c4 18          	add    $0x18,%rsp
    78ae:	5b                   	pop    %rbx
    78af:	5d                   	pop    %rbp
    78b0:	c3                   	retq   

00000000000078b1 <func_19>:
    78b1:	f3 0f 1e fa          	endbr64 
    78b5:	55                   	push   %rbp
    78b6:	48 89 e5             	mov    %rsp,%rbp
    78b9:	41 57                	push   %r15
    78bb:	41 56                	push   %r14
    78bd:	41 55                	push   %r13
    78bf:	41 54                	push   %r12
    78c1:	53                   	push   %rbx
    78c2:	48 81 ec 00 10 00 00 	sub    $0x1000,%rsp
    78c9:	48 83 0c 24 00       	orq    $0x0,(%rsp)
    78ce:	48 81 ec 38 0a 00 00 	sub    $0xa38,%rsp
    78d5:	89 bd ac e5 ff ff    	mov    %edi,-0x1a54(%rbp)
    78db:	64 48 8b 04 25 28 00 	mov    %fs:0x28,%rax
    78e2:	00 00 
    78e4:	48 89 45 c8          	mov    %rax,-0x38(%rbp)
    78e8:	31 c0                	xor    %eax,%eax
    78ea:	c7 85 d8 e5 ff ff 0e 	movl   $0x5291260e,-0x1a28(%rbp)
    78f1:	26 91 52 
    78f4:	0f b6 85 d4 e6 ff ff 	movzbl -0x192c(%rbp),%eax
    78fb:	83 e0 c0             	and    $0xffffffc0,%eax
    78fe:	88 85 d4 e6 ff ff    	mov    %al,-0x192c(%rbp)
    7904:	0f b7 85 d4 e6 ff ff 	movzwl -0x192c(%rbp),%eax
    790b:	66 25 3f f0          	and    $0xf03f,%ax
    790f:	66 0d 40 0e          	or     $0xe40,%ax
    7913:	66 89 85 d4 e6 ff ff 	mov    %ax,-0x192c(%rbp)
    791a:	0f b6 85 d8 e6 ff ff 	movzbl -0x1928(%rbp),%eax
    7921:	83 e0 c0             	and    $0xffffffc0,%eax
    7924:	88 85 d8 e6 ff ff    	mov    %al,-0x1928(%rbp)
    792a:	0f b7 85 d8 e6 ff ff 	movzwl -0x1928(%rbp),%eax
    7931:	66 25 3f f0          	and    $0xf03f,%ax
    7935:	66 0d 40 0e          	or     $0xe40,%ax
    7939:	66 89 85 d8 e6 ff ff 	mov    %ax,-0x1928(%rbp)
    7940:	0f b6 85 dc e6 ff ff 	movzbl -0x1924(%rbp),%eax
    7947:	83 e0 c0             	and    $0xffffffc0,%eax
    794a:	88 85 dc e6 ff ff    	mov    %al,-0x1924(%rbp)
    7950:	0f b7 85 dc e6 ff ff 	movzwl -0x1924(%rbp),%eax
    7957:	66 25 3f f0          	and    $0xf03f,%ax
    795b:	66 0d 40 0e          	or     $0xe40,%ax
    795f:	66 89 85 dc e6 ff ff 	mov    %ax,-0x1924(%rbp)
    7966:	48 8d 85 30 f8 ff ff 	lea    -0x7d0(%rbp),%rax
    796d:	48 8d 15 ac 7b 01 00 	lea    0x17bac(%rip),%rdx        # 1f520 <g_2170+0x10>
    7974:	b9 f3 00 00 00       	mov    $0xf3,%ecx
    7979:	48 89 c7             	mov    %rax,%rdi
    797c:	48 89 d6             	mov    %rdx,%rsi
    797f:	f3 48 a5             	rep movsq %ds:(%rsi),%es:(%rdi)
    7982:	c7 85 bc e5 ff ff ff 	movl   $0xffffffff,-0x1a44(%rbp)
    7989:	ff ff ff 
    798c:	48 c7 85 38 e6 ff ff 	movq   $0x0,-0x19c8(%rbp)
    7993:	00 00 00 00 
    7997:	48 8d 05 6a a0 01 00 	lea    0x1a06a(%rip),%rax        # 21a08 <g_1980>
    799e:	48 89 85 40 e6 ff ff 	mov    %rax,-0x19c0(%rbp)
    79a5:	c7 85 c0 e5 ff ff c2 	movl   $0x658734c2,-0x1a40(%rbp)
    79ac:	34 87 65 
    79af:	c7 85 c8 e5 ff ff fc 	movl   $0xfffffffc,-0x1a38(%rbp)
    79b6:	ff ff ff 
    79b9:	c7 85 cc e5 ff ff 00 	movl   $0x0,-0x1a34(%rbp)
    79c0:	00 00 00 
    79c3:	eb 1a                	jmp    79df <func_19+0x12e>
    79c5:	8b 85 cc e5 ff ff    	mov    -0x1a34(%rbp),%eax
    79cb:	48 98                	cltq   
    79cd:	c7 84 85 d0 e6 ff ff 	movl   $0x6b0914b6,-0x1930(%rbp,%rax,4)
    79d4:	b6 14 09 6b 
    79d8:	83 85 cc e5 ff ff 01 	addl   $0x1,-0x1a34(%rbp)
    79df:	83 bd cc e5 ff ff 00 	cmpl   $0x0,-0x1a34(%rbp)
    79e6:	7e dd                	jle    79c5 <func_19+0x114>
    79e8:	8b 85 d8 e5 ff ff    	mov    -0x1a28(%rbp),%eax
    79ee:	0f bf d8             	movswl %ax,%ebx
    79f1:	48 8b 05 08 a0 01 00 	mov    0x1a008(%rip),%rax        # 21a00 <g_1476>
    79f8:	48 8b 00             	mov    (%rax),%rax
    79fb:	48 8b 00             	mov    (%rax),%rax
    79fe:	0f b6 00             	movzbl (%rax),%eax
    7a01:	44 0f be f0          	movsbl %al,%r14d
    7a05:	0f b7 85 d4 e6 ff ff 	movzwl -0x192c(%rbp),%eax
    7a0c:	c1 e0 04             	shl    $0x4,%eax
    7a0f:	66 c1 f8 0a          	sar    $0xa,%ax
    7a13:	44 0f be e8          	movsbl %al,%r13d
    7a17:	b8 ff ff ff ff       	mov    $0xffffffff,%eax
    7a1c:	44 0f be e0          	movsbl %al,%r12d
    7a20:	8b 85 d8 e5 ff ff    	mov    -0x1a28(%rbp),%eax
    7a26:	0f be c0             	movsbl %al,%eax
    7a29:	8b 95 d4 e6 ff ff    	mov    -0x192c(%rbp),%edx
    7a2f:	89 d6                	mov    %edx,%esi
    7a31:	89 c7                	mov    %eax,%edi
    7a33:	e8 35 24 00 00       	callq  9e6d <func_42>
    7a38:	89 c7                	mov    %eax,%edi
    7a3a:	8b 85 dc e6 ff ff    	mov    -0x1924(%rbp),%eax
    7a40:	45 89 f0             	mov    %r14d,%r8d
    7a43:	44 89 e9             	mov    %r13d,%ecx
    7a46:	44 89 e2             	mov    %r12d,%edx
    7a49:	89 c6                	mov    %eax,%esi
    7a4b:	e8 02 20 00 00       	callq  9a52 <func_36>
    7a50:	0f be d0             	movsbl %al,%edx
    7a53:	8b 85 ac e5 ff ff    	mov    -0x1a54(%rbp),%eax
    7a59:	0f b6 c0             	movzbl %al,%eax
    7a5c:	89 d6                	mov    %edx,%esi
    7a5e:	89 c7                	mov    %eax,%edi
    7a60:	e8 28 f2 ff ff       	callq  6c8d <safe_rshift_func_uint8_t_u_s>
    7a65:	0f b6 d0             	movzbl %al,%edx
    7a68:	8b 85 bc e5 ff ff    	mov    -0x1a44(%rbp),%eax
    7a6e:	31 d0                	xor    %edx,%eax
    7a70:	89 85 bc e5 ff ff    	mov    %eax,-0x1a44(%rbp)
    7a76:	8b 85 bc e5 ff ff    	mov    -0x1a44(%rbp),%eax
    7a7c:	98                   	cwtl   
    7a7d:	89 c6                	mov    %eax,%esi
    7a7f:	bf 01 00 00 00       	mov    $0x1,%edi
    7a84:	e8 cc e9 ff ff       	callq  6455 <safe_div_func_int16_t_s_s>
    7a89:	98                   	cwtl   
    7a8a:	89 de                	mov    %ebx,%esi
    7a8c:	89 c7                	mov    %eax,%edi
    7a8e:	e8 83 e9 ff ff       	callq  6416 <safe_mod_func_int16_t_s_s>
    7a93:	be 00 00 00 00       	mov    $0x0,%esi
    7a98:	bf 08 00 00 00       	mov    $0x8,%edi
    7a9d:	e8 53 e9 ff ff       	callq  63f5 <safe_mul_func_int16_t_s_s>
    7aa2:	0f b7 c0             	movzwl %ax,%eax
    7aa5:	be 05 00 00 00       	mov    $0x5,%esi
    7aaa:	89 c7                	mov    %eax,%edi
    7aac:	e8 55 f3 ff ff       	callq  6e06 <safe_lshift_func_uint16_t_u_u>
    7ab1:	66 85 c0             	test   %ax,%ax
    7ab4:	0f 84 52 08 00 00    	je     830c <func_19+0xa5b>
    7aba:	66 c7 85 ba e5 ff ff 	movw   $0x17f4,-0x1a46(%rbp)
    7ac1:	f4 17 
    7ac3:	c7 85 d0 e5 ff ff fb 	movl   $0xfffffffb,-0x1a30(%rbp)
    7aca:	ff ff ff 
    7acd:	c6 05 b5 a3 01 00 18 	movb   $0x18,0x1a3b5(%rip)        # 21e89 <g_217>
    7ad4:	eb 38                	jmp    7b0e <func_19+0x25d>
    7ad6:	48 8d 85 bc e5 ff ff 	lea    -0x1a44(%rbp),%rax
    7add:	48 89 85 c8 e6 ff ff 	mov    %rax,-0x1938(%rbp)
    7ae4:	48 8b 85 c8 e6 ff ff 	mov    -0x1938(%rbp),%rax
    7aeb:	8b 00                	mov    (%rax),%eax
    7aed:	23 85 ac e5 ff ff    	and    -0x1a54(%rbp),%eax
    7af3:	89 c2                	mov    %eax,%edx
    7af5:	48 8b 85 c8 e6 ff ff 	mov    -0x1938(%rbp),%rax
    7afc:	89 10                	mov    %edx,(%rax)
    7afe:	0f b6 05 84 a3 01 00 	movzbl 0x1a384(%rip),%eax        # 21e89 <g_217>
    7b05:	83 e8 01             	sub    $0x1,%eax
    7b08:	88 05 7b a3 01 00    	mov    %al,0x1a37b(%rip)        # 21e89 <g_217>
    7b0e:	0f b6 05 74 a3 01 00 	movzbl 0x1a374(%rip),%eax        # 21e89 <g_217>
    7b15:	3c 0b                	cmp    $0xb,%al
    7b17:	7f bd                	jg     7ad6 <func_19+0x225>
    7b19:	c7 85 d8 e5 ff ff 18 	movl   $0x18,-0x1a28(%rbp)
    7b20:	00 00 00 
    7b23:	83 bd d8 e5 ff ff f4 	cmpl   $0xfffffff4,-0x1a28(%rbp)
    7b2a:	7d 14                	jge    7b40 <func_19+0x28f>
    7b2c:	48 8b 05 4d 63 01 00 	mov    0x1634d(%rip),%rax        # 1de80 <g_1695+0x40>
    7b33:	48 c1 e0 1f          	shl    $0x1f,%rax
    7b37:	48 c1 f8 2d          	sar    $0x2d,%rax
    7b3b:	e9 ec 1e 00 00       	jmpq   9a2c <func_19+0x217b>
    7b40:	c6 05 c1 62 01 00 00 	movb   $0x0,0x162c1(%rip)        # 1de08 <g_1253>
    7b47:	e9 08 04 00 00       	jmpq   7f54 <func_19+0x6a3>
    7b4c:	48 8d 85 30 f8 ff ff 	lea    -0x7d0(%rbp),%rax
    7b53:	48 05 f8 05 00 00    	add    $0x5f8,%rax
    7b59:	48 89 85 30 e6 ff ff 	mov    %rax,-0x19d0(%rbp)
    7b60:	48 8d 85 30 e6 ff ff 	lea    -0x19d0(%rbp),%rax
    7b67:	48 89 85 b8 e6 ff ff 	mov    %rax,-0x1948(%rbp)
    7b6e:	48 8d 85 40 ea ff ff 	lea    -0x15c0(%rbp),%rax
    7b75:	48 8d 15 44 f8 00 00 	lea    0xf844(%rip),%rdx        # 173c0 <g_1804+0x160>
    7b7c:	b9 23 00 00 00       	mov    $0x23,%ecx
    7b81:	48 89 c7             	mov    %rax,%rdi
    7b84:	48 89 d6             	mov    %rdx,%rsi
    7b87:	f3 48 a5             	rep movsq %ds:(%rsi),%es:(%rdi)
    7b8a:	48 8d 85 60 ed ff ff 	lea    -0x12a0(%rbp),%rax
    7b91:	48 8d 15 28 81 01 00 	lea    0x18128(%rip),%rdx        # 1fcc0 <g_2170+0x7b0>
    7b98:	b9 23 00 00 00       	mov    $0x23,%ecx
    7b9d:	48 89 c7             	mov    %rax,%rdi
    7ba0:	48 89 d6             	mov    %rdx,%rsi
    7ba3:	f3 48 a5             	rep movsq %ds:(%rsi),%es:(%rdi)
    7ba6:	48 8d 85 40 ea ff ff 	lea    -0x15c0(%rbp),%rax
    7bad:	48 05 b8 00 00 00    	add    $0xb8,%rax
    7bb3:	48 89 85 b0 f0 ff ff 	mov    %rax,-0xf50(%rbp)
    7bba:	48 c7 85 b8 f0 ff ff 	movq   $0x0,-0xf48(%rbp)
    7bc1:	00 00 00 00 
    7bc5:	48 c7 85 c0 f0 ff ff 	movq   $0x0,-0xf40(%rbp)
    7bcc:	00 00 00 00 
    7bd0:	48 8d 85 40 ea ff ff 	lea    -0x15c0(%rbp),%rax
    7bd7:	48 05 b8 00 00 00    	add    $0xb8,%rax
    7bdd:	48 89 85 c8 f0 ff ff 	mov    %rax,-0xf38(%rbp)
    7be4:	48 8d 85 bc e5 ff ff 	lea    -0x1a44(%rbp),%rax
    7beb:	48 89 85 d0 f0 ff ff 	mov    %rax,-0xf30(%rbp)
    7bf2:	48 8d 85 40 ea ff ff 	lea    -0x15c0(%rbp),%rax
    7bf9:	48 05 b8 00 00 00    	add    $0xb8,%rax
    7bff:	48 89 85 d8 f0 ff ff 	mov    %rax,-0xf28(%rbp)
    7c06:	48 c7 85 e0 f0 ff ff 	movq   $0x0,-0xf20(%rbp)
    7c0d:	00 00 00 00 
    7c11:	48 c7 85 e8 f0 ff ff 	movq   $0x0,-0xf18(%rbp)
    7c18:	00 00 00 00 
    7c1c:	48 8d 85 40 ea ff ff 	lea    -0x15c0(%rbp),%rax
    7c23:	48 05 b8 00 00 00    	add    $0xb8,%rax
    7c29:	48 89 85 f0 f0 ff ff 	mov    %rax,-0xf10(%rbp)
    7c30:	48 8d 85 bc e5 ff ff 	lea    -0x1a44(%rbp),%rax
    7c37:	48 89 85 f8 f0 ff ff 	mov    %rax,-0xf08(%rbp)
    7c3e:	48 8d 85 40 ea ff ff 	lea    -0x15c0(%rbp),%rax
    7c45:	48 05 b8 00 00 00    	add    $0xb8,%rax
    7c4b:	48 89 85 00 f1 ff ff 	mov    %rax,-0xf00(%rbp)
    7c52:	48 c7 85 08 f1 ff ff 	movq   $0x0,-0xef8(%rbp)
    7c59:	00 00 00 00 
    7c5d:	48 c7 85 10 f1 ff ff 	movq   $0x0,-0xef0(%rbp)
    7c64:	00 00 00 00 
    7c68:	48 8d 85 40 ea ff ff 	lea    -0x15c0(%rbp),%rax
    7c6f:	48 05 b8 00 00 00    	add    $0xb8,%rax
    7c75:	48 89 85 18 f1 ff ff 	mov    %rax,-0xee8(%rbp)
    7c7c:	48 8d 85 bc e5 ff ff 	lea    -0x1a44(%rbp),%rax
    7c83:	48 89 85 20 f1 ff ff 	mov    %rax,-0xee0(%rbp)
    7c8a:	48 8d 85 40 ea ff ff 	lea    -0x15c0(%rbp),%rax
    7c91:	48 05 b8 00 00 00    	add    $0xb8,%rax
    7c97:	48 89 85 28 f1 ff ff 	mov    %rax,-0xed8(%rbp)
    7c9e:	48 c7 85 30 f1 ff ff 	movq   $0x0,-0xed0(%rbp)
    7ca5:	00 00 00 00 
    7ca9:	48 c7 85 38 f1 ff ff 	movq   $0x0,-0xec8(%rbp)
    7cb0:	00 00 00 00 
    7cb4:	48 8d 85 40 ea ff ff 	lea    -0x15c0(%rbp),%rax
    7cbb:	48 05 b8 00 00 00    	add    $0xb8,%rax
    7cc1:	48 89 85 40 f1 ff ff 	mov    %rax,-0xec0(%rbp)
    7cc8:	48 8d 85 bc e5 ff ff 	lea    -0x1a44(%rbp),%rax
    7ccf:	48 89 85 48 f1 ff ff 	mov    %rax,-0xeb8(%rbp)
    7cd6:	48 8d 85 40 ea ff ff 	lea    -0x15c0(%rbp),%rax
    7cdd:	48 05 b8 00 00 00    	add    $0xb8,%rax
    7ce3:	48 89 85 50 f1 ff ff 	mov    %rax,-0xeb0(%rbp)
    7cea:	48 c7 85 58 f1 ff ff 	movq   $0x0,-0xea8(%rbp)
    7cf1:	00 00 00 00 
    7cf5:	48 c7 85 60 f1 ff ff 	movq   $0x0,-0xea0(%rbp)
    7cfc:	00 00 00 00 
    7d00:	48 8d 85 40 ea ff ff 	lea    -0x15c0(%rbp),%rax
    7d07:	48 05 b8 00 00 00    	add    $0xb8,%rax
    7d0d:	48 89 85 68 f1 ff ff 	mov    %rax,-0xe98(%rbp)
    7d14:	48 8d 85 bc e5 ff ff 	lea    -0x1a44(%rbp),%rax
    7d1b:	48 89 85 70 f1 ff ff 	mov    %rax,-0xe90(%rbp)
    7d22:	48 8d 85 40 ea ff ff 	lea    -0x15c0(%rbp),%rax
    7d29:	48 05 b8 00 00 00    	add    $0xb8,%rax
    7d2f:	48 89 85 78 f1 ff ff 	mov    %rax,-0xe88(%rbp)
    7d36:	48 c7 85 80 f1 ff ff 	movq   $0x0,-0xe80(%rbp)
    7d3d:	00 00 00 00 
    7d41:	48 c7 85 88 f1 ff ff 	movq   $0x0,-0xe78(%rbp)
    7d48:	00 00 00 00 
    7d4c:	48 8d 85 40 ea ff ff 	lea    -0x15c0(%rbp),%rax
    7d53:	48 05 b8 00 00 00    	add    $0xb8,%rax
    7d59:	48 89 85 90 f1 ff ff 	mov    %rax,-0xe70(%rbp)
    7d60:	48 8d 85 bc e5 ff ff 	lea    -0x1a44(%rbp),%rax
    7d67:	48 89 85 98 f1 ff ff 	mov    %rax,-0xe68(%rbp)
    7d6e:	48 8d 85 40 ea ff ff 	lea    -0x15c0(%rbp),%rax
    7d75:	48 05 b8 00 00 00    	add    $0xb8,%rax
    7d7b:	48 89 85 a0 f1 ff ff 	mov    %rax,-0xe60(%rbp)
    7d82:	48 c7 85 a8 f1 ff ff 	movq   $0x0,-0xe58(%rbp)
    7d89:	00 00 00 00 
    7d8d:	48 c7 85 b0 f1 ff ff 	movq   $0x0,-0xe50(%rbp)
    7d94:	00 00 00 00 
    7d98:	48 8d 85 40 ea ff ff 	lea    -0x15c0(%rbp),%rax
    7d9f:	48 05 b8 00 00 00    	add    $0xb8,%rax
    7da5:	48 89 85 b8 f1 ff ff 	mov    %rax,-0xe48(%rbp)
    7dac:	48 8d 85 bc e5 ff ff 	lea    -0x1a44(%rbp),%rax
    7db3:	48 89 85 c0 f1 ff ff 	mov    %rax,-0xe40(%rbp)
    7dba:	48 8d 85 40 ea ff ff 	lea    -0x15c0(%rbp),%rax
    7dc1:	48 05 b8 00 00 00    	add    $0xb8,%rax
    7dc7:	48 89 85 c8 f1 ff ff 	mov    %rax,-0xe38(%rbp)
    7dce:	48 c7 85 d0 f1 ff ff 	movq   $0x0,-0xe30(%rbp)
    7dd5:	00 00 00 00 
    7dd9:	48 c7 85 d8 f1 ff ff 	movq   $0x0,-0xe28(%rbp)
    7de0:	00 00 00 00 
    7de4:	48 8d 85 40 ea ff ff 	lea    -0x15c0(%rbp),%rax
    7deb:	48 05 b8 00 00 00    	add    $0xb8,%rax
    7df1:	48 89 85 e0 f1 ff ff 	mov    %rax,-0xe20(%rbp)
    7df8:	48 8d 85 bc e5 ff ff 	lea    -0x1a44(%rbp),%rax
    7dff:	48 89 85 e8 f1 ff ff 	mov    %rax,-0xe18(%rbp)
    7e06:	48 b8 4b 1a 71 0b 87 	movabs $0x68554c870b711a4b,%rax
    7e0d:	4c 55 68 
    7e10:	48 89 85 c0 e6 ff ff 	mov    %rax,-0x1940(%rbp)
    7e17:	48 8b 85 b8 e6 ff ff 	mov    -0x1948(%rbp),%rax
    7e1e:	48 8d 95 30 f8 ff ff 	lea    -0x7d0(%rbp),%rdx
    7e25:	48 81 c2 50 03 00 00 	add    $0x350,%rdx
    7e2c:	48 89 10             	mov    %rdx,(%rax)
    7e2f:	48 8b 05 6a 92 01 00 	mov    0x1926a(%rip),%rax        # 210a0 <g_725>
    7e36:	48 8b 00             	mov    (%rax),%rax
    7e39:	48 85 c0             	test   %rax,%rax
    7e3c:	75 19                	jne    7e57 <func_19+0x5a6>
    7e3e:	8b 85 ac e5 ff ff    	mov    -0x1a54(%rbp),%eax
    7e44:	0f b6 c0             	movzbl %al,%eax
    7e47:	be 01 00 00 00       	mov    $0x1,%esi
    7e4c:	89 c7                	mov    %eax,%edi
    7e4e:	e8 6b ee ff ff       	callq  6cbe <safe_rshift_func_uint8_t_u_u>
    7e53:	84 c0                	test   %al,%al
    7e55:	74 07                	je     7e5e <func_19+0x5ad>
    7e57:	ba 01 00 00 00       	mov    $0x1,%edx
    7e5c:	eb 05                	jmp    7e63 <func_19+0x5b2>
    7e5e:	ba 00 00 00 00       	mov    $0x0,%edx
    7e63:	48 8b 05 1e 92 01 00 	mov    0x1921e(%rip),%rax        # 21088 <g_243>
    7e6a:	48 63 d2             	movslq %edx,%rdx
    7e6d:	48 89 10             	mov    %rdx,(%rax)
    7e70:	48 8b 00             	mov    (%rax),%rax
    7e73:	48 85 c0             	test   %rax,%rax
    7e76:	74 11                	je     7e89 <func_19+0x5d8>
    7e78:	83 bd ac e5 ff ff 00 	cmpl   $0x0,-0x1a54(%rbp)
    7e7f:	74 08                	je     7e89 <func_19+0x5d8>
    7e81:	41 bc 01 00 00 00    	mov    $0x1,%r12d
    7e87:	eb 06                	jmp    7e8f <func_19+0x5de>
    7e89:	41 bc 00 00 00 00    	mov    $0x0,%r12d
    7e8f:	8b 85 ac e5 ff ff    	mov    -0x1a54(%rbp),%eax
    7e95:	0f b7 d8             	movzwl %ax,%ebx
    7e98:	8b 85 ac e5 ff ff    	mov    -0x1a54(%rbp),%eax
    7e9e:	0f b7 d0             	movzwl %ax,%edx
    7ea1:	8b 05 89 5f 01 00    	mov    0x15f89(%rip),%eax        # 1de30 <g_1603+0x10>
    7ea7:	25 ff 0f e0 ff       	and    $0xffe00fff,%eax
    7eac:	89 05 7e 5f 01 00    	mov    %eax,0x15f7e(%rip)        # 1de30 <g_1603+0x10>
    7eb2:	83 bd d0 e5 ff ff 00 	cmpl   $0x0,-0x1a30(%rbp)
    7eb9:	74 07                	je     7ec2 <func_19+0x611>
    7ebb:	b8 01 00 00 00       	mov    $0x1,%eax
    7ec0:	eb 05                	jmp    7ec7 <func_19+0x616>
    7ec2:	b8 00 00 00 00       	mov    $0x0,%eax
    7ec7:	3b 85 ac e5 ff ff    	cmp    -0x1a54(%rbp),%eax
    7ecd:	0f 95 c0             	setne  %al
    7ed0:	0f b6 c0             	movzbl %al,%eax
    7ed3:	48 8b 8d c0 e6 ff ff 	mov    -0x1940(%rbp),%rcx
    7eda:	09 c8                	or     %ecx,%eax
    7edc:	0f b7 c0             	movzwl %ax,%eax
    7edf:	89 d6                	mov    %edx,%esi
    7ee1:	89 c7                	mov    %eax,%edi
    7ee3:	e8 17 ee ff ff       	callq  6cff <safe_add_func_uint16_t_u_u>
    7ee8:	0f b7 c0             	movzwl %ax,%eax
    7eeb:	89 de                	mov    %ebx,%esi
    7eed:	89 c7                	mov    %eax,%edi
    7eef:	e8 49 ee ff ff       	callq  6d3d <safe_mul_func_uint16_t_u_u>
    7ef4:	66 85 c0             	test   %ax,%ax
    7ef7:	74 10                	je     7f09 <func_19+0x658>
    7ef9:	83 bd d8 e5 ff ff 00 	cmpl   $0x0,-0x1a28(%rbp)
    7f00:	74 07                	je     7f09 <func_19+0x658>
    7f02:	b8 01 00 00 00       	mov    $0x1,%eax
    7f07:	eb 05                	jmp    7f0e <func_19+0x65d>
    7f09:	b8 00 00 00 00       	mov    $0x0,%eax
    7f0e:	48 98                	cltq   
    7f10:	48 89 c6             	mov    %rax,%rsi
    7f13:	bf 03 00 00 00       	mov    $0x3,%edi
    7f18:	e8 97 ea ff ff       	callq  69b4 <safe_mod_func_int64_t_s_s>
    7f1d:	44 21 e0             	and    %r12d,%eax
    7f20:	89 85 d0 e5 ff ff    	mov    %eax,-0x1a30(%rbp)
    7f26:	48 8b 15 43 97 01 00 	mov    0x19743(%rip),%rdx        # 21670 <g_997>
    7f2d:	48 8b 05 3c 97 01 00 	mov    0x1973c(%rip),%rax        # 21670 <g_997>
    7f34:	8b 12                	mov    (%rdx),%edx
    7f36:	89 10                	mov    %edx,(%rax)
    7f38:	0f b6 05 c9 5e 01 00 	movzbl 0x15ec9(%rip),%eax        # 1de08 <g_1253>
    7f3f:	0f b6 c0             	movzbl %al,%eax
    7f42:	be 04 00 00 00       	mov    $0x4,%esi
    7f47:	89 c7                	mov    %eax,%edi
    7f49:	e8 0c ec ff ff       	callq  6b5a <safe_add_func_uint8_t_u_u>
    7f4e:	88 05 b4 5e 01 00    	mov    %al,0x15eb4(%rip)        # 1de08 <g_1253>
    7f54:	0f b6 05 ad 5e 01 00 	movzbl 0x15ead(%rip),%eax        # 1de08 <g_1253>
    7f5b:	3c 05                	cmp    $0x5,%al
    7f5d:	0f 8f e9 fb ff ff    	jg     7b4c <func_19+0x29b>
    7f63:	c7 05 53 9f 01 00 e5 	movl   $0xffffffe5,0x19f53(%rip)        # 21ec0 <g_1377>
    7f6a:	ff ff ff 
    7f6d:	e9 86 03 00 00       	jmpq   82f8 <func_19+0xa47>
    7f72:	66 c7 85 60 ed ff ff 	movw   $0x707,-0x12a0(%rbp)
    7f79:	07 07 
    7f7b:	c6 85 62 ed ff ff 59 	movb   $0x59,-0x129e(%rbp)
    7f82:	66 c7 85 63 ed ff ff 	movw   $0x707,-0x129d(%rbp)
    7f89:	07 07 
    7f8b:	c6 85 65 ed ff ff b0 	movb   $0xb0,-0x129b(%rbp)
    7f92:	66 c7 85 66 ed ff ff 	movw   $0x707,-0x129a(%rbp)
    7f99:	07 07 
    7f9b:	c6 85 68 ed ff ff 59 	movb   $0x59,-0x1298(%rbp)
    7fa2:	66 c7 85 69 ed ff ff 	movw   $0x707,-0x1297(%rbp)
    7fa9:	07 07 
    7fab:	c6 85 6b ed ff ff b0 	movb   $0xb0,-0x1295(%rbp)
    7fb2:	66 c7 85 6c ed ff ff 	movw   $0x707,-0x1294(%rbp)
    7fb9:	07 07 
    7fbb:	c6 85 6e ed ff ff 59 	movb   $0x59,-0x1292(%rbp)
    7fc2:	66 c7 85 6f ed ff ff 	movw   $0x707,-0x1291(%rbp)
    7fc9:	07 07 
    7fcb:	c6 85 71 ed ff ff b0 	movb   $0xb0,-0x128f(%rbp)
    7fd2:	66 c7 85 72 ed ff ff 	movw   $0x707,-0x128e(%rbp)
    7fd9:	07 07 
    7fdb:	c6 85 74 ed ff ff 59 	movb   $0x59,-0x128c(%rbp)
    7fe2:	48 c7 05 3b 40 01 00 	movq   $0x4,0x1403b(%rip)        # 1c028 <g_52>
    7fe9:	04 00 00 00 
    7fed:	90                   	nop
    7fee:	48 8b 05 33 40 01 00 	mov    0x14033(%rip),%rax        # 1c028 <g_52>
    7ff5:	48 83 f8 0f          	cmp    $0xf,%rax
    7ff9:	0f 8e df 02 00 00    	jle    82de <func_19+0xa2d>
    7fff:	48 b8 07 93 c9 b0 c0 	movabs $0xa3f622c0b0c99307,%rax
    8006:	22 f6 a3 
    8009:	48 89 85 a8 e6 ff ff 	mov    %rax,-0x1958(%rbp)
    8010:	48 8d 05 f1 5d 01 00 	lea    0x15df1(%rip),%rax        # 1de08 <g_1253>
    8017:	48 89 85 b0 e6 ff ff 	mov    %rax,-0x1950(%rbp)
    801e:	c7 85 24 e6 ff ff ff 	movl   $0xffffffff,-0x19dc(%rbp)
    8025:	ff ff ff 
    8028:	48 8d 05 05 40 01 00 	lea    0x14005(%rip),%rax        # 1c034 <g_57+0x4>
    802f:	48 89 85 b0 f0 ff ff 	mov    %rax,-0xf50(%rbp)
    8036:	48 8d 05 f7 3f 01 00 	lea    0x13ff7(%rip),%rax        # 1c034 <g_57+0x4>
    803d:	48 89 85 b8 f0 ff ff 	mov    %rax,-0xf48(%rbp)
    8044:	48 8d 05 e9 3f 01 00 	lea    0x13fe9(%rip),%rax        # 1c034 <g_57+0x4>
    804b:	48 89 85 c0 f0 ff ff 	mov    %rax,-0xf40(%rbp)
    8052:	48 8d 05 db 3f 01 00 	lea    0x13fdb(%rip),%rax        # 1c034 <g_57+0x4>
    8059:	48 89 85 c8 f0 ff ff 	mov    %rax,-0xf38(%rbp)
    8060:	48 8b 85 a8 e6 ff ff 	mov    -0x1958(%rbp),%rax
    8067:	0f bf d8             	movswl %ax,%ebx
    806a:	8b 85 ac e5 ff ff    	mov    -0x1a54(%rbp),%eax
    8070:	4c 63 e0             	movslq %eax,%r12
    8073:	48 8b 05 26 90 01 00 	mov    0x19026(%rip),%rax        # 210a0 <g_725>
    807a:	48 8b 10             	mov    (%rax),%rdx
    807d:	48 83 c2 01          	add    $0x1,%rdx
    8081:	48 89 10             	mov    %rdx,(%rax)
    8084:	48 8b 00             	mov    (%rax),%rax
    8087:	88 85 69 ed ff ff    	mov    %al,-0x1297(%rbp)
    808d:	0f b6 85 69 ed ff ff 	movzbl -0x1297(%rbp),%eax
    8094:	c1 e0 02             	shl    $0x2,%eax
    8097:	c0 f8 02             	sar    $0x2,%al
    809a:	0f b6 c0             	movzbl %al,%eax
    809d:	83 e0 3f             	and    $0x3f,%eax
    80a0:	c1 e0 06             	shl    $0x6,%eax
    80a3:	89 c2                	mov    %eax,%edx
    80a5:	0f b7 85 d4 e6 ff ff 	movzwl -0x192c(%rbp),%eax
    80ac:	66 25 3f f0          	and    $0xf03f,%ax
    80b0:	09 d0                	or     %edx,%eax
    80b2:	66 89 85 d4 e6 ff ff 	mov    %ax,-0x192c(%rbp)
    80b9:	44 0f bf ad ba e5 ff 	movswl -0x1a46(%rbp),%r13d
    80c0:	ff 
    80c1:	8b 85 ac e5 ff ff    	mov    -0x1a54(%rbp),%eax
    80c7:	44 0f b6 f0          	movzbl %al,%r14d
    80cb:	48 8b 05 fe 98 01 00 	mov    0x198fe(%rip),%rax        # 219d0 <g_1335>
    80d2:	48 8b 00             	mov    (%rax),%rax
    80d5:	48 8b 00             	mov    (%rax),%rax
    80d8:	48 8b 00             	mov    (%rax),%rax
    80db:	48 8b 10             	mov    (%rax),%rdx
    80de:	48 83 c2 01          	add    $0x1,%rdx
    80e2:	48 89 10             	mov    %rdx,(%rax)
    80e5:	4c 8b 38             	mov    (%rax),%r15
    80e8:	8b 85 ac e5 ff ff    	mov    -0x1a54(%rbp),%eax
    80ee:	98                   	cwtl   
    80ef:	89 c7                	mov    %eax,%edi
    80f1:	e8 a7 e2 ff ff       	callq  639d <safe_unary_minus_func_int16_t_s>
    80f6:	89 c2                	mov    %eax,%edx
    80f8:	48 8b 05 21 90 01 00 	mov    0x19021(%rip),%rax        # 21120 <g_773>
    80ff:	48 8b 00             	mov    (%rax),%rax
    8102:	48 0f bf d2          	movswq %dx,%rdx
    8106:	48 89 10             	mov    %rdx,(%rax)
    8109:	48 8b 00             	mov    (%rax),%rax
    810c:	49 39 c7             	cmp    %rax,%r15
    810f:	0f 97 c0             	seta   %al
    8112:	0f b6 c0             	movzbl %al,%eax
    8115:	89 85 a8 e5 ff ff    	mov    %eax,-0x1a58(%rbp)
    811b:	48 8d 05 22 44 01 00 	lea    0x14422(%rip),%rax        # 1c544 <g_495+0x84>
    8122:	0f b7 00             	movzwl (%rax),%eax
    8125:	44 0f b7 f8          	movzwl %ax,%r15d
    8129:	48 8b 05 e8 98 01 00 	mov    0x198e8(%rip),%rax        # 21a18 <g_1978>
    8130:	48 8b 95 40 e6 ff ff 	mov    -0x19c0(%rbp),%rdx
    8137:	48 89 10             	mov    %rdx,(%rax)
    813a:	48 8b 00             	mov    (%rax),%rax
    813d:	48 85 c0             	test   %rax,%rax
    8140:	0f 95 c0             	setne  %al
    8143:	0f b6 d0             	movzbl %al,%edx
    8146:	48 8b 85 a8 e6 ff ff 	mov    -0x1958(%rbp),%rax
    814d:	48 b9 36 3c 57 ee f2 	movabs $0xd20fddf2ee573c36,%rcx
    8154:	dd 0f d2 
    8157:	48 39 c8             	cmp    %rcx,%rax
    815a:	0f 97 c0             	seta   %al
    815d:	0f b6 c0             	movzbl %al,%eax
    8160:	39 c2                	cmp    %eax,%edx
    8162:	0f 9f c0             	setg   %al
    8165:	0f b6 c0             	movzbl %al,%eax
    8168:	39 85 ac e5 ff ff    	cmp    %eax,-0x1a54(%rbp)
    816e:	0f 95 c0             	setne  %al
    8171:	0f b6 c0             	movzbl %al,%eax
    8174:	be c4 1d 00 00       	mov    $0x1dc4,%esi
    8179:	89 c7                	mov    %eax,%edi
    817b:	e8 0e ec ff ff       	callq  6d8e <safe_div_func_uint16_t_u_u>
    8180:	98                   	cwtl   
    8181:	44 89 fe             	mov    %r15d,%esi
    8184:	89 c7                	mov    %eax,%edi
    8186:	e8 56 e3 ff ff       	callq  64e1 <safe_lshift_func_int16_t_s_u>
    818b:	89 c2                	mov    %eax,%edx
    818d:	48 8b 85 b0 e6 ff ff 	mov    -0x1950(%rbp),%rax
    8194:	88 10                	mov    %dl,(%rax)
    8196:	48 8b 85 b0 e6 ff ff 	mov    -0x1950(%rbp),%rax
    819d:	0f b6 00             	movzbl (%rax),%eax
    81a0:	0f be c0             	movsbl %al,%eax
    81a3:	39 85 a8 e5 ff ff    	cmp    %eax,-0x1a58(%rbp)
    81a9:	0f 9d c0             	setge  %al
    81ac:	0f b6 c0             	movzbl %al,%eax
    81af:	44 89 f6             	mov    %r14d,%esi
    81b2:	89 c7                	mov    %eax,%edi
    81b4:	e8 22 ea ff ff       	callq  6bdb <safe_div_func_uint8_t_u_u>
    81b9:	0f b6 85 62 ed ff ff 	movzbl -0x129e(%rbp),%eax
    81c0:	0f b6 c0             	movzbl %al,%eax
    81c3:	39 85 ac e5 ff ff    	cmp    %eax,-0x1a54(%rbp)
    81c9:	0f b6 85 69 ed ff ff 	movzbl -0x1297(%rbp),%eax
    81d0:	0f b6 c0             	movzbl %al,%eax
    81d3:	39 85 ac e5 ff ff    	cmp    %eax,-0x1a54(%rbp)
    81d9:	0f 95 c0             	setne  %al
    81dc:	0f b6 c0             	movzbl %al,%eax
    81df:	be 09 00 00 00       	mov    $0x9,%esi
    81e4:	89 c7                	mov    %eax,%edi
    81e6:	e8 78 e3 ff ff       	callq  6563 <safe_rshift_func_int16_t_s_u>
    81eb:	48 8d 15 52 43 01 00 	lea    0x14352(%rip),%rdx        # 1c544 <g_495+0x84>
    81f2:	66 89 02             	mov    %ax,(%rdx)
    81f5:	8b 85 ac e5 ff ff    	mov    -0x1a54(%rbp),%eax
    81fb:	0f b7 c0             	movzwl %ax,%eax
    81fe:	be 52 4e 00 00       	mov    $0x4e52,%esi
    8203:	89 c7                	mov    %eax,%edi
    8205:	e8 15 eb ff ff       	callq  6d1f <safe_sub_func_uint16_t_u_u>
    820a:	0f b7 c0             	movzwl %ax,%eax
    820d:	39 85 ac e5 ff ff    	cmp    %eax,-0x1a54(%rbp)
    8213:	0f 95 c0             	setne  %al
    8216:	0f b6 c0             	movzbl %al,%eax
    8219:	44 89 ee             	mov    %r13d,%esi
    821c:	89 c7                	mov    %eax,%edi
    821e:	e8 f3 e1 ff ff       	callq  6416 <safe_mod_func_int16_t_s_s>
    8223:	0f b7 85 d4 e6 ff ff 	movzwl -0x192c(%rbp),%eax
    822a:	c1 e0 04             	shl    $0x4,%eax
    822d:	66 c1 f8 0a          	sar    $0xa,%ax
    8231:	0f be c0             	movsbl %al,%eax
    8234:	39 85 ac e5 ff ff    	cmp    %eax,-0x1a54(%rbp)
    823a:	0f 95 c0             	setne  %al
    823d:	0f b6 c0             	movzbl %al,%eax
    8240:	48 39 85 a8 e6 ff ff 	cmp    %rax,-0x1958(%rbp)
    8247:	0f 95 c0             	setne  %al
    824a:	0f b6 d0             	movzbl %al,%edx
    824d:	8b 05 49 3e 01 00    	mov    0x13e49(%rip),%eax        # 1c09c <g_266>
    8253:	39 c2                	cmp    %eax,%edx
    8255:	0f 95 c0             	setne  %al
    8258:	0f b6 c0             	movzbl %al,%eax
    825b:	89 85 24 e6 ff ff    	mov    %eax,-0x19dc(%rbp)
    8261:	0f b7 05 2a 72 01 00 	movzwl 0x1722a(%rip),%eax        # 1f492 <g_2022+0x12>
    8268:	c1 e0 02             	shl    $0x2,%eax
    826b:	66 c1 f8 07          	sar    $0x7,%ax
    826f:	98                   	cwtl   
    8270:	33 85 24 e6 ff ff    	xor    -0x19dc(%rbp),%eax
    8276:	48 8b 15 23 95 01 00 	mov    0x19523(%rip),%rdx        # 217a0 <g_1206>
    827d:	48 8b 12             	mov    (%rdx),%rdx
    8280:	c6 02 2d             	movb   $0x2d,(%rdx)
    8283:	89 c6                	mov    %eax,%esi
    8285:	bf 2d 00 00 00       	mov    $0x2d,%edi
    828a:	e8 12 e0 ff ff       	callq  62a1 <safe_lshift_func_int8_t_s_s>
    828f:	3c 01                	cmp    $0x1,%al
    8291:	0f 95 c0             	setne  %al
    8294:	0f b6 c0             	movzbl %al,%eax
    8297:	48 39 85 a8 e6 ff ff 	cmp    %rax,-0x1958(%rbp)
    829e:	0f 9e c0             	setle  %al
    82a1:	0f b6 c0             	movzbl %al,%eax
    82a4:	4c 89 e6             	mov    %r12,%rsi
    82a7:	48 89 c7             	mov    %rax,%rdi
    82aa:	e8 92 e5 ff ff       	callq  6841 <safe_add_func_int64_t_s_s>
    82af:	89 c7                	mov    %eax,%edi
    82b1:	e8 f0 eb ff ff       	callq  6ea6 <safe_unary_minus_func_uint32_t_u>
    82b6:	be ff ff ff ff       	mov    $0xffffffff,%esi
    82bb:	89 c7                	mov    %eax,%edi
    82bd:	e8 f6 eb ff ff       	callq  6eb8 <safe_add_func_uint32_t_u_u>
    82c2:	98                   	cwtl   
    82c3:	89 de                	mov    %ebx,%esi
    82c5:	89 c7                	mov    %eax,%edi
    82c7:	e8 4a e1 ff ff       	callq  6416 <safe_mod_func_int16_t_s_s>
    82cc:	98                   	cwtl   
    82cd:	89 85 bc e5 ff ff    	mov    %eax,-0x1a44(%rbp)
    82d3:	8b 05 e7 9b 01 00    	mov    0x19be7(%rip),%eax        # 21ec0 <g_1377>
    82d9:	e9 4e 17 00 00       	jmpq   9a2c <func_19+0x217b>
    82de:	8b 05 dc 9b 01 00    	mov    0x19bdc(%rip),%eax        # 21ec0 <g_1377>
    82e4:	98                   	cwtl   
    82e5:	be 04 00 00 00       	mov    $0x4,%esi
    82ea:	89 c7                	mov    %eax,%edi
    82ec:	e8 c2 e0 ff ff       	callq  63b3 <safe_add_func_int16_t_s_s>
    82f1:	98                   	cwtl   
    82f2:	89 05 c8 9b 01 00    	mov    %eax,0x19bc8(%rip)        # 21ec0 <g_1377>
    82f8:	8b 05 c2 9b 01 00    	mov    0x19bc2(%rip),%eax        # 21ec0 <g_1377>
    82fe:	83 f8 01             	cmp    $0x1,%eax
    8301:	0f 85 6b fc ff ff    	jne    7f72 <func_19+0x6c1>
    8307:	e9 1a 17 00 00       	jmpq   9a26 <func_19+0x2175>
    830c:	c7 85 dc e5 ff ff 06 	movl   $0x6,-0x1a24(%rbp)
    8313:	00 00 00 
    8316:	48 8d 05 73 41 01 00 	lea    0x14173(%rip),%rax        # 1c490 <g_430>
    831d:	48 89 85 48 e6 ff ff 	mov    %rax,-0x19b8(%rbp)
    8324:	48 8d 05 5d 8d 01 00 	lea    0x18d5d(%rip),%rax        # 21088 <g_243>
    832b:	48 89 85 50 e6 ff ff 	mov    %rax,-0x19b0(%rbp)
    8332:	c7 85 c4 e5 ff ff 01 	movl   $0x1,-0x1a3c(%rbp)
    8339:	00 00 00 
    833c:	c7 85 e0 e6 ff ff f7 	movl   $0xfffffff7,-0x1920(%rbp)
    8343:	ff ff ff 
    8346:	c7 85 e4 e6 ff ff 04 	movl   $0x4,-0x191c(%rbp)
    834d:	00 00 00 
    8350:	c7 85 e8 e6 ff ff 5e 	movl   $0x3ef8565e,-0x1918(%rbp)
    8357:	56 f8 3e 
    835a:	c7 85 ec e6 ff ff d6 	movl   $0xb83f6ed6,-0x1914(%rbp)
    8361:	6e 3f b8 
    8364:	c7 85 f0 e6 ff ff 92 	movl   $0xab019592,-0x1910(%rbp)
    836b:	95 01 ab 
    836e:	c7 85 f4 e6 ff ff 92 	movl   $0xab019592,-0x190c(%rbp)
    8375:	95 01 ab 
    8378:	c7 85 f8 e6 ff ff f7 	movl   $0xfffffff7,-0x1908(%rbp)
    837f:	ff ff ff 
    8382:	c7 85 fc e6 ff ff 04 	movl   $0x4,-0x1904(%rbp)
    8389:	00 00 00 
    838c:	c7 85 00 e7 ff ff 5e 	movl   $0x3ef8565e,-0x1900(%rbp)
    8393:	56 f8 3e 
    8396:	c7 85 04 e7 ff ff d6 	movl   $0xb83f6ed6,-0x18fc(%rbp)
    839d:	6e 3f b8 
    83a0:	c7 85 08 e7 ff ff 92 	movl   $0xab019592,-0x18f8(%rbp)
    83a7:	95 01 ab 
    83aa:	c7 85 0c e7 ff ff 92 	movl   $0xab019592,-0x18f4(%rbp)
    83b1:	95 01 ab 
    83b4:	c7 85 10 e7 ff ff f7 	movl   $0xfffffff7,-0x18f0(%rbp)
    83bb:	ff ff ff 
    83be:	c7 85 14 e7 ff ff 04 	movl   $0x4,-0x18ec(%rbp)
    83c5:	00 00 00 
    83c8:	c7 85 18 e7 ff ff 5e 	movl   $0x3ef8565e,-0x18e8(%rbp)
    83cf:	56 f8 3e 
    83d2:	c7 85 1c e7 ff ff d6 	movl   $0xb83f6ed6,-0x18e4(%rbp)
    83d9:	6e 3f b8 
    83dc:	c7 85 20 e7 ff ff 92 	movl   $0xab019592,-0x18e0(%rbp)
    83e3:	95 01 ab 
    83e6:	c7 85 24 e7 ff ff 92 	movl   $0xab019592,-0x18dc(%rbp)
    83ed:	95 01 ab 
    83f0:	c7 85 28 e7 ff ff f7 	movl   $0xfffffff7,-0x18d8(%rbp)
    83f7:	ff ff ff 
    83fa:	c7 85 2c e7 ff ff 04 	movl   $0x4,-0x18d4(%rbp)
    8401:	00 00 00 
    8404:	c7 85 30 e7 ff ff 5e 	movl   $0x3ef8565e,-0x18d0(%rbp)
    840b:	56 f8 3e 
    840e:	c7 85 34 e7 ff ff d6 	movl   $0xb83f6ed6,-0x18cc(%rbp)
    8415:	6e 3f b8 
    8418:	c7 85 38 e7 ff ff 92 	movl   $0xab019592,-0x18c8(%rbp)
    841f:	95 01 ab 
    8422:	c7 85 3c e7 ff ff 92 	movl   $0xab019592,-0x18c4(%rbp)
    8429:	95 01 ab 
    842c:	c7 85 40 e7 ff ff f7 	movl   $0xfffffff7,-0x18c0(%rbp)
    8433:	ff ff ff 
    8436:	c7 85 44 e7 ff ff 04 	movl   $0x4,-0x18bc(%rbp)
    843d:	00 00 00 
    8440:	c7 85 48 e7 ff ff 5e 	movl   $0x3ef8565e,-0x18b8(%rbp)
    8447:	56 f8 3e 
    844a:	c7 85 4c e7 ff ff d6 	movl   $0xb83f6ed6,-0x18b4(%rbp)
    8451:	6e 3f b8 
    8454:	c7 85 50 e7 ff ff 92 	movl   $0xab019592,-0x18b0(%rbp)
    845b:	95 01 ab 
    845e:	c7 85 54 e7 ff ff 92 	movl   $0xab019592,-0x18ac(%rbp)
    8465:	95 01 ab 
    8468:	48 8d 05 d5 3b 01 00 	lea    0x13bd5(%rip),%rax        # 1c044 <g_57+0x14>
    846f:	48 89 85 b0 f0 ff ff 	mov    %rax,-0xf50(%rbp)
    8476:	48 c7 85 b8 f0 ff ff 	movq   $0x0,-0xf48(%rbp)
    847d:	00 00 00 00 
    8481:	48 8d 85 e0 e6 ff ff 	lea    -0x1920(%rbp),%rax
    8488:	48 83 c0 58          	add    $0x58,%rax
    848c:	48 89 85 c0 f0 ff ff 	mov    %rax,-0xf40(%rbp)
    8493:	48 8d 85 e0 e6 ff ff 	lea    -0x1920(%rbp),%rax
    849a:	48 83 c0 5c          	add    $0x5c,%rax
    849e:	48 89 85 c8 f0 ff ff 	mov    %rax,-0xf38(%rbp)
    84a5:	48 8d 85 d0 e6 ff ff 	lea    -0x1930(%rbp),%rax
    84ac:	48 89 85 d0 f0 ff ff 	mov    %rax,-0xf30(%rbp)
    84b3:	48 8d 85 bc e5 ff ff 	lea    -0x1a44(%rbp),%rax
    84ba:	48 89 85 d8 f0 ff ff 	mov    %rax,-0xf28(%rbp)
    84c1:	48 8d 85 e0 e6 ff ff 	lea    -0x1920(%rbp),%rax
    84c8:	48 83 c0 3c          	add    $0x3c,%rax
    84cc:	48 89 85 e0 f0 ff ff 	mov    %rax,-0xf20(%rbp)
    84d3:	48 8d 05 5e 3b 01 00 	lea    0x13b5e(%rip),%rax        # 1c038 <g_57+0x8>
    84da:	48 89 85 e8 f0 ff ff 	mov    %rax,-0xf18(%rbp)
    84e1:	48 8d 05 5c 3b 01 00 	lea    0x13b5c(%rip),%rax        # 1c044 <g_57+0x14>
    84e8:	48 89 85 f0 f0 ff ff 	mov    %rax,-0xf10(%rbp)
    84ef:	48 c7 85 f8 f0 ff ff 	movq   $0x0,-0xf08(%rbp)
    84f6:	00 00 00 00 
    84fa:	48 c7 85 00 f1 ff ff 	movq   $0x0,-0xf00(%rbp)
    8501:	00 00 00 00 
    8505:	48 8d 85 bc e5 ff ff 	lea    -0x1a44(%rbp),%rax
    850c:	48 89 85 08 f1 ff ff 	mov    %rax,-0xef8(%rbp)
    8513:	48 c7 85 10 f1 ff ff 	movq   $0x0,-0xef0(%rbp)
    851a:	00 00 00 00 
    851e:	48 8d 85 c0 e5 ff ff 	lea    -0x1a40(%rbp),%rax
    8525:	48 89 85 18 f1 ff ff 	mov    %rax,-0xee8(%rbp)
    852c:	48 8d 85 e0 e6 ff ff 	lea    -0x1920(%rbp),%rax
    8533:	48 83 c0 58          	add    $0x58,%rax
    8537:	48 89 85 20 f1 ff ff 	mov    %rax,-0xee0(%rbp)
    853e:	48 8d 85 e0 e6 ff ff 	lea    -0x1920(%rbp),%rax
    8545:	48 83 c0 5c          	add    $0x5c,%rax
    8549:	48 89 85 28 f1 ff ff 	mov    %rax,-0xed8(%rbp)
    8550:	48 8d 85 d0 e6 ff ff 	lea    -0x1930(%rbp),%rax
    8557:	48 89 85 30 f1 ff ff 	mov    %rax,-0xed0(%rbp)
    855e:	48 8d 85 d0 e6 ff ff 	lea    -0x1930(%rbp),%rax
    8565:	48 89 85 38 f1 ff ff 	mov    %rax,-0xec8(%rbp)
    856c:	48 8d 85 d0 e6 ff ff 	lea    -0x1930(%rbp),%rax
    8573:	48 89 85 40 f1 ff ff 	mov    %rax,-0xec0(%rbp)
    857a:	48 8d 05 b7 3a 01 00 	lea    0x13ab7(%rip),%rax        # 1c038 <g_57+0x8>
    8581:	48 89 85 48 f1 ff ff 	mov    %rax,-0xeb8(%rbp)
    8588:	48 8d 05 a9 3a 01 00 	lea    0x13aa9(%rip),%rax        # 1c038 <g_57+0x8>
    858f:	48 89 85 50 f1 ff ff 	mov    %rax,-0xeb0(%rbp)
    8596:	48 8d 85 e0 e6 ff ff 	lea    -0x1920(%rbp),%rax
    859d:	48 83 c0 5c          	add    $0x5c,%rax
    85a1:	48 89 85 58 f1 ff ff 	mov    %rax,-0xea8(%rbp)
    85a8:	48 c7 85 60 f1 ff ff 	movq   $0x0,-0xea0(%rbp)
    85af:	00 00 00 00 
    85b3:	48 8d 85 c0 e5 ff ff 	lea    -0x1a40(%rbp),%rax
    85ba:	48 89 85 68 f1 ff ff 	mov    %rax,-0xe98(%rbp)
    85c1:	48 c7 85 70 f1 ff ff 	movq   $0x0,-0xe90(%rbp)
    85c8:	00 00 00 00 
    85cc:	48 c7 85 78 f1 ff ff 	movq   $0x0,-0xe88(%rbp)
    85d3:	00 00 00 00 
    85d7:	48 8d 05 66 3a 01 00 	lea    0x13a66(%rip),%rax        # 1c044 <g_57+0x14>
    85de:	48 89 85 80 f1 ff ff 	mov    %rax,-0xe80(%rbp)
    85e5:	48 c7 85 88 f1 ff ff 	movq   $0x0,-0xe78(%rbp)
    85ec:	00 00 00 00 
    85f0:	48 c7 85 90 f1 ff ff 	movq   $0x0,-0xe70(%rbp)
    85f7:	00 00 00 00 
    85fb:	48 8d 85 d0 e6 ff ff 	lea    -0x1930(%rbp),%rax
    8602:	48 89 85 98 f1 ff ff 	mov    %rax,-0xe68(%rbp)
    8609:	48 8d 85 e0 e6 ff ff 	lea    -0x1920(%rbp),%rax
    8610:	48 83 c0 3c          	add    $0x3c,%rax
    8614:	48 89 85 a0 f1 ff ff 	mov    %rax,-0xe60(%rbp)
    861b:	48 c7 85 a8 f1 ff ff 	movq   $0x0,-0xe58(%rbp)
    8622:	00 00 00 00 
    8626:	48 8d 85 c4 e5 ff ff 	lea    -0x1a3c(%rbp),%rax
    862d:	48 89 85 b0 f1 ff ff 	mov    %rax,-0xe50(%rbp)
    8634:	48 8d 85 e0 e6 ff ff 	lea    -0x1920(%rbp),%rax
    863b:	48 83 c0 5c          	add    $0x5c,%rax
    863f:	48 89 85 b8 f1 ff ff 	mov    %rax,-0xe48(%rbp)
    8646:	48 c7 85 c0 f1 ff ff 	movq   $0x0,-0xe40(%rbp)
    864d:	00 00 00 00 
    8651:	48 8d 85 bc e5 ff ff 	lea    -0x1a44(%rbp),%rax
    8658:	48 89 85 c8 f1 ff ff 	mov    %rax,-0xe38(%rbp)
    865f:	48 8d 05 de 39 01 00 	lea    0x139de(%rip),%rax        # 1c044 <g_57+0x14>
    8666:	48 89 85 d0 f1 ff ff 	mov    %rax,-0xe30(%rbp)
    866d:	48 8d 85 c0 e5 ff ff 	lea    -0x1a40(%rbp),%rax
    8674:	48 89 85 d8 f1 ff ff 	mov    %rax,-0xe28(%rbp)
    867b:	48 8d 85 e0 e6 ff ff 	lea    -0x1920(%rbp),%rax
    8682:	48 83 c0 5c          	add    $0x5c,%rax
    8686:	48 89 85 e0 f1 ff ff 	mov    %rax,-0xe20(%rbp)
    868d:	48 c7 85 e8 f1 ff ff 	movq   $0x0,-0xe18(%rbp)
    8694:	00 00 00 00 
    8698:	48 8d 85 c4 e5 ff ff 	lea    -0x1a3c(%rbp),%rax
    869f:	48 89 85 f0 f1 ff ff 	mov    %rax,-0xe10(%rbp)
    86a6:	48 8d 85 e0 e6 ff ff 	lea    -0x1920(%rbp),%rax
    86ad:	48 83 c0 5c          	add    $0x5c,%rax
    86b1:	48 89 85 f8 f1 ff ff 	mov    %rax,-0xe08(%rbp)
    86b8:	48 8d 85 c4 e5 ff ff 	lea    -0x1a3c(%rbp),%rax
    86bf:	48 89 85 00 f2 ff ff 	mov    %rax,-0xe00(%rbp)
    86c6:	48 8d 85 e0 e6 ff ff 	lea    -0x1920(%rbp),%rax
    86cd:	48 83 c0 14          	add    $0x14,%rax
    86d1:	48 89 85 08 f2 ff ff 	mov    %rax,-0xdf8(%rbp)
    86d8:	48 c7 85 10 f2 ff ff 	movq   $0x0,-0xdf0(%rbp)
    86df:	00 00 00 00 
    86e3:	48 8d 85 e0 e6 ff ff 	lea    -0x1920(%rbp),%rax
    86ea:	48 83 c0 5c          	add    $0x5c,%rax
    86ee:	48 89 85 18 f2 ff ff 	mov    %rax,-0xde8(%rbp)
    86f5:	48 8d 05 a0 39 01 00 	lea    0x139a0(%rip),%rax        # 1c09c <g_266>
    86fc:	48 89 85 20 f2 ff ff 	mov    %rax,-0xde0(%rbp)
    8703:	48 8d 85 c4 e5 ff ff 	lea    -0x1a3c(%rbp),%rax
    870a:	48 89 85 28 f2 ff ff 	mov    %rax,-0xdd8(%rbp)
    8711:	48 8d 05 84 39 01 00 	lea    0x13984(%rip),%rax        # 1c09c <g_266>
    8718:	48 89 85 30 f2 ff ff 	mov    %rax,-0xdd0(%rbp)
    871f:	48 8d 85 c0 e5 ff ff 	lea    -0x1a40(%rbp),%rax
    8726:	48 89 85 38 f2 ff ff 	mov    %rax,-0xdc8(%rbp)
    872d:	48 8d 85 d0 e6 ff ff 	lea    -0x1930(%rbp),%rax
    8734:	48 89 85 40 f2 ff ff 	mov    %rax,-0xdc0(%rbp)
    873b:	48 8d 85 e0 e6 ff ff 	lea    -0x1920(%rbp),%rax
    8742:	48 83 c0 5c          	add    $0x5c,%rax
    8746:	48 89 85 48 f2 ff ff 	mov    %rax,-0xdb8(%rbp)
    874d:	48 c7 85 50 f2 ff ff 	movq   $0x0,-0xdb0(%rbp)
    8754:	00 00 00 00 
    8758:	48 8d 85 c0 e5 ff ff 	lea    -0x1a40(%rbp),%rax
    875f:	48 89 85 58 f2 ff ff 	mov    %rax,-0xda8(%rbp)
    8766:	48 8d 85 c4 e5 ff ff 	lea    -0x1a3c(%rbp),%rax
    876d:	48 89 85 60 f2 ff ff 	mov    %rax,-0xda0(%rbp)
    8774:	48 8d 85 bc e5 ff ff 	lea    -0x1a44(%rbp),%rax
    877b:	48 89 85 68 f2 ff ff 	mov    %rax,-0xd98(%rbp)
    8782:	48 8d 85 e0 e6 ff ff 	lea    -0x1920(%rbp),%rax
    8789:	48 83 c0 5c          	add    $0x5c,%rax
    878d:	48 89 85 70 f2 ff ff 	mov    %rax,-0xd90(%rbp)
    8794:	48 c7 85 78 f2 ff ff 	movq   $0x0,-0xd88(%rbp)
    879b:	00 00 00 00 
    879f:	48 8d 85 e0 e6 ff ff 	lea    -0x1920(%rbp),%rax
    87a6:	48 83 c0 74          	add    $0x74,%rax
    87aa:	48 89 85 80 f2 ff ff 	mov    %rax,-0xd80(%rbp)
    87b1:	48 8d 85 c4 e5 ff ff 	lea    -0x1a3c(%rbp),%rax
    87b8:	48 89 85 88 f2 ff ff 	mov    %rax,-0xd78(%rbp)
    87bf:	48 8d 05 7e 38 01 00 	lea    0x1387e(%rip),%rax        # 1c044 <g_57+0x14>
    87c6:	48 89 85 90 f2 ff ff 	mov    %rax,-0xd70(%rbp)
    87cd:	48 8d 85 bc e5 ff ff 	lea    -0x1a44(%rbp),%rax
    87d4:	48 89 85 98 f2 ff ff 	mov    %rax,-0xd68(%rbp)
    87db:	48 c7 85 a0 f2 ff ff 	movq   $0x0,-0xd60(%rbp)
    87e2:	00 00 00 00 
    87e6:	48 c7 85 a8 f2 ff ff 	movq   $0x0,-0xd58(%rbp)
    87ed:	00 00 00 00 
    87f1:	48 c7 85 b0 f2 ff ff 	movq   $0x0,-0xd50(%rbp)
    87f8:	00 00 00 00 
    87fc:	48 8d 85 e0 e6 ff ff 	lea    -0x1920(%rbp),%rax
    8803:	48 83 c0 5c          	add    $0x5c,%rax
    8807:	48 89 85 b8 f2 ff ff 	mov    %rax,-0xd48(%rbp)
    880e:	48 8d 05 23 38 01 00 	lea    0x13823(%rip),%rax        # 1c038 <g_57+0x8>
    8815:	48 89 85 c0 f2 ff ff 	mov    %rax,-0xd40(%rbp)
    881c:	48 8d 85 c0 e5 ff ff 	lea    -0x1a40(%rbp),%rax
    8823:	48 89 85 c8 f2 ff ff 	mov    %rax,-0xd38(%rbp)
    882a:	48 8d 05 6b 38 01 00 	lea    0x1386b(%rip),%rax        # 1c09c <g_266>
    8831:	48 89 85 d0 f2 ff ff 	mov    %rax,-0xd30(%rbp)
    8838:	48 c7 85 d8 f2 ff ff 	movq   $0x0,-0xd28(%rbp)
    883f:	00 00 00 00 
    8843:	48 8d 05 52 38 01 00 	lea    0x13852(%rip),%rax        # 1c09c <g_266>
    884a:	48 89 85 e0 f2 ff ff 	mov    %rax,-0xd20(%rbp)
    8851:	48 8d 85 e0 e6 ff ff 	lea    -0x1920(%rbp),%rax
    8858:	48 83 c0 5c          	add    $0x5c,%rax
    885c:	48 89 85 e8 f2 ff ff 	mov    %rax,-0xd18(%rbp)
    8863:	48 8d 85 e0 e6 ff ff 	lea    -0x1920(%rbp),%rax
    886a:	48 83 c0 58          	add    $0x58,%rax
    886e:	48 89 85 f0 f2 ff ff 	mov    %rax,-0xd10(%rbp)
    8875:	48 8d 85 e0 e6 ff ff 	lea    -0x1920(%rbp),%rax
    887c:	48 83 c0 14          	add    $0x14,%rax
    8880:	48 89 85 f8 f2 ff ff 	mov    %rax,-0xd08(%rbp)
    8887:	48 c7 85 00 f3 ff ff 	movq   $0x0,-0xd00(%rbp)
    888e:	00 00 00 00 
    8892:	48 8d 85 e0 e6 ff ff 	lea    -0x1920(%rbp),%rax
    8899:	48 83 c0 5c          	add    $0x5c,%rax
    889d:	48 89 85 08 f3 ff ff 	mov    %rax,-0xcf8(%rbp)
    88a4:	48 8d 85 c4 e5 ff ff 	lea    -0x1a3c(%rbp),%rax
    88ab:	48 89 85 10 f3 ff ff 	mov    %rax,-0xcf0(%rbp)
    88b2:	48 8d 85 c4 e5 ff ff 	lea    -0x1a3c(%rbp),%rax
    88b9:	48 89 85 18 f3 ff ff 	mov    %rax,-0xce8(%rbp)
    88c0:	48 8d 05 7d 37 01 00 	lea    0x1377d(%rip),%rax        # 1c044 <g_57+0x14>
    88c7:	48 89 85 20 f3 ff ff 	mov    %rax,-0xce0(%rbp)
    88ce:	48 8d 85 c0 e5 ff ff 	lea    -0x1a40(%rbp),%rax
    88d5:	48 89 85 28 f3 ff ff 	mov    %rax,-0xcd8(%rbp)
    88dc:	48 8d 85 e0 e6 ff ff 	lea    -0x1920(%rbp),%rax
    88e3:	48 83 c0 5c          	add    $0x5c,%rax
    88e7:	48 89 85 30 f3 ff ff 	mov    %rax,-0xcd0(%rbp)
    88ee:	48 8d 85 e0 e6 ff ff 	lea    -0x1920(%rbp),%rax
    88f5:	48 83 c0 5c          	add    $0x5c,%rax
    88f9:	48 89 85 38 f3 ff ff 	mov    %rax,-0xcc8(%rbp)
    8900:	48 8d 85 c0 e5 ff ff 	lea    -0x1a40(%rbp),%rax
    8907:	48 89 85 40 f3 ff ff 	mov    %rax,-0xcc0(%rbp)
    890e:	48 8d 85 c0 e5 ff ff 	lea    -0x1a40(%rbp),%rax
    8915:	48 89 85 48 f3 ff ff 	mov    %rax,-0xcb8(%rbp)
    891c:	48 8d 85 e0 e6 ff ff 	lea    -0x1920(%rbp),%rax
    8923:	48 83 c0 58          	add    $0x58,%rax
    8927:	48 89 85 50 f3 ff ff 	mov    %rax,-0xcb0(%rbp)
    892e:	48 8d 85 bc e5 ff ff 	lea    -0x1a44(%rbp),%rax
    8935:	48 89 85 58 f3 ff ff 	mov    %rax,-0xca8(%rbp)
    893c:	48 8d 85 d0 e6 ff ff 	lea    -0x1930(%rbp),%rax
    8943:	48 89 85 60 f3 ff ff 	mov    %rax,-0xca0(%rbp)
    894a:	48 c7 85 68 f3 ff ff 	movq   $0x0,-0xc98(%rbp)
    8951:	00 00 00 00 
    8955:	48 8d 85 e0 e6 ff ff 	lea    -0x1920(%rbp),%rax
    895c:	48 83 c0 5c          	add    $0x5c,%rax
    8960:	48 89 85 70 f3 ff ff 	mov    %rax,-0xc90(%rbp)
    8967:	48 8d 85 c4 e5 ff ff 	lea    -0x1a3c(%rbp),%rax
    896e:	48 89 85 78 f3 ff ff 	mov    %rax,-0xc88(%rbp)
    8975:	48 8d 05 bc 36 01 00 	lea    0x136bc(%rip),%rax        # 1c038 <g_57+0x8>
    897c:	48 89 85 80 f3 ff ff 	mov    %rax,-0xc80(%rbp)
    8983:	48 8d 85 bc e5 ff ff 	lea    -0x1a44(%rbp),%rax
    898a:	48 89 85 88 f3 ff ff 	mov    %rax,-0xc78(%rbp)
    8991:	48 c7 85 90 f3 ff ff 	movq   $0x0,-0xc70(%rbp)
    8998:	00 00 00 00 
    899c:	48 c7 85 98 f3 ff ff 	movq   $0x0,-0xc68(%rbp)
    89a3:	00 00 00 00 
    89a7:	48 8d 85 c0 e5 ff ff 	lea    -0x1a40(%rbp),%rax
    89ae:	48 89 85 a0 f3 ff ff 	mov    %rax,-0xc60(%rbp)
    89b5:	48 8d 85 e0 e6 ff ff 	lea    -0x1920(%rbp),%rax
    89bc:	48 83 c0 5c          	add    $0x5c,%rax
    89c0:	48 89 85 a8 f3 ff ff 	mov    %rax,-0xc58(%rbp)
    89c7:	48 8d 05 76 36 01 00 	lea    0x13676(%rip),%rax        # 1c044 <g_57+0x14>
    89ce:	48 89 85 b0 f3 ff ff 	mov    %rax,-0xc50(%rbp)
    89d5:	48 8d 85 c0 e5 ff ff 	lea    -0x1a40(%rbp),%rax
    89dc:	48 89 85 b8 f3 ff ff 	mov    %rax,-0xc48(%rbp)
    89e3:	48 8d 85 e0 e6 ff ff 	lea    -0x1920(%rbp),%rax
    89ea:	48 83 c0 5c          	add    $0x5c,%rax
    89ee:	48 89 85 c0 f3 ff ff 	mov    %rax,-0xc40(%rbp)
    89f5:	48 c7 85 c8 f3 ff ff 	movq   $0x0,-0xc38(%rbp)
    89fc:	00 00 00 00 
    8a00:	48 8d 85 c4 e5 ff ff 	lea    -0x1a3c(%rbp),%rax
    8a07:	48 89 85 d0 f3 ff ff 	mov    %rax,-0xc30(%rbp)
    8a0e:	48 8d 85 e0 e6 ff ff 	lea    -0x1920(%rbp),%rax
    8a15:	48 83 c0 5c          	add    $0x5c,%rax
    8a19:	48 89 85 d8 f3 ff ff 	mov    %rax,-0xc28(%rbp)
    8a20:	48 8d 85 c4 e5 ff ff 	lea    -0x1a3c(%rbp),%rax
    8a27:	48 89 85 e0 f3 ff ff 	mov    %rax,-0xc20(%rbp)
    8a2e:	48 8d 85 e0 e6 ff ff 	lea    -0x1920(%rbp),%rax
    8a35:	48 83 c0 14          	add    $0x14,%rax
    8a39:	48 89 85 e8 f3 ff ff 	mov    %rax,-0xc18(%rbp)
    8a40:	48 c7 85 f0 f3 ff ff 	movq   $0x0,-0xc10(%rbp)
    8a47:	00 00 00 00 
    8a4b:	48 8d 85 e0 e6 ff ff 	lea    -0x1920(%rbp),%rax
    8a52:	48 83 c0 5c          	add    $0x5c,%rax
    8a56:	48 89 85 f8 f3 ff ff 	mov    %rax,-0xc08(%rbp)
    8a5d:	48 8d 05 38 36 01 00 	lea    0x13638(%rip),%rax        # 1c09c <g_266>
    8a64:	48 89 85 00 f4 ff ff 	mov    %rax,-0xc00(%rbp)
    8a6b:	48 8d 85 c4 e5 ff ff 	lea    -0x1a3c(%rbp),%rax
    8a72:	48 89 85 08 f4 ff ff 	mov    %rax,-0xbf8(%rbp)
    8a79:	48 8d 05 1c 36 01 00 	lea    0x1361c(%rip),%rax        # 1c09c <g_266>
    8a80:	48 89 85 10 f4 ff ff 	mov    %rax,-0xbf0(%rbp)
    8a87:	48 8d 85 c0 e5 ff ff 	lea    -0x1a40(%rbp),%rax
    8a8e:	48 89 85 18 f4 ff ff 	mov    %rax,-0xbe8(%rbp)
    8a95:	48 8d 85 d0 e6 ff ff 	lea    -0x1930(%rbp),%rax
    8a9c:	48 89 85 20 f4 ff ff 	mov    %rax,-0xbe0(%rbp)
    8aa3:	48 8d 85 e0 e6 ff ff 	lea    -0x1920(%rbp),%rax
    8aaa:	48 83 c0 5c          	add    $0x5c,%rax
    8aae:	48 89 85 28 f4 ff ff 	mov    %rax,-0xbd8(%rbp)
    8ab5:	48 c7 85 30 f4 ff ff 	movq   $0x0,-0xbd0(%rbp)
    8abc:	00 00 00 00 
    8ac0:	48 8d 85 c0 e5 ff ff 	lea    -0x1a40(%rbp),%rax
    8ac7:	48 89 85 38 f4 ff ff 	mov    %rax,-0xbc8(%rbp)
    8ace:	48 8d 85 c4 e5 ff ff 	lea    -0x1a3c(%rbp),%rax
    8ad5:	48 89 85 40 f4 ff ff 	mov    %rax,-0xbc0(%rbp)
    8adc:	48 8d 85 bc e5 ff ff 	lea    -0x1a44(%rbp),%rax
    8ae3:	48 89 85 48 f4 ff ff 	mov    %rax,-0xbb8(%rbp)
    8aea:	48 8d 85 e0 e6 ff ff 	lea    -0x1920(%rbp),%rax
    8af1:	48 83 c0 5c          	add    $0x5c,%rax
    8af5:	48 89 85 50 f4 ff ff 	mov    %rax,-0xbb0(%rbp)
    8afc:	48 c7 85 58 f4 ff ff 	movq   $0x0,-0xba8(%rbp)
    8b03:	00 00 00 00 
    8b07:	48 8d 85 e0 e6 ff ff 	lea    -0x1920(%rbp),%rax
    8b0e:	48 83 c0 74          	add    $0x74,%rax
    8b12:	48 89 85 60 f4 ff ff 	mov    %rax,-0xba0(%rbp)
    8b19:	48 8d 85 c4 e5 ff ff 	lea    -0x1a3c(%rbp),%rax
    8b20:	48 89 85 68 f4 ff ff 	mov    %rax,-0xb98(%rbp)
    8b27:	48 8d 05 16 35 01 00 	lea    0x13516(%rip),%rax        # 1c044 <g_57+0x14>
    8b2e:	48 89 85 70 f4 ff ff 	mov    %rax,-0xb90(%rbp)
    8b35:	48 8d 85 bc e5 ff ff 	lea    -0x1a44(%rbp),%rax
    8b3c:	48 89 85 78 f4 ff ff 	mov    %rax,-0xb88(%rbp)
    8b43:	48 c7 85 80 f4 ff ff 	movq   $0x0,-0xb80(%rbp)
    8b4a:	00 00 00 00 
    8b4e:	48 c7 85 88 f4 ff ff 	movq   $0x0,-0xb78(%rbp)
    8b55:	00 00 00 00 
    8b59:	48 c7 85 90 f4 ff ff 	movq   $0x0,-0xb70(%rbp)
    8b60:	00 00 00 00 
    8b64:	48 8d 85 e0 e6 ff ff 	lea    -0x1920(%rbp),%rax
    8b6b:	48 83 c0 5c          	add    $0x5c,%rax
    8b6f:	48 89 85 98 f4 ff ff 	mov    %rax,-0xb68(%rbp)
    8b76:	48 8d 05 bb 34 01 00 	lea    0x134bb(%rip),%rax        # 1c038 <g_57+0x8>
    8b7d:	48 89 85 a0 f4 ff ff 	mov    %rax,-0xb60(%rbp)
    8b84:	48 8d 85 c0 e5 ff ff 	lea    -0x1a40(%rbp),%rax
    8b8b:	48 89 85 a8 f4 ff ff 	mov    %rax,-0xb58(%rbp)
    8b92:	48 8d 05 03 35 01 00 	lea    0x13503(%rip),%rax        # 1c09c <g_266>
    8b99:	48 89 85 b0 f4 ff ff 	mov    %rax,-0xb50(%rbp)
    8ba0:	48 c7 85 b8 f4 ff ff 	movq   $0x0,-0xb48(%rbp)
    8ba7:	00 00 00 00 
    8bab:	48 8d 05 ea 34 01 00 	lea    0x134ea(%rip),%rax        # 1c09c <g_266>
    8bb2:	48 89 85 c0 f4 ff ff 	mov    %rax,-0xb40(%rbp)
    8bb9:	48 8d 85 e0 e6 ff ff 	lea    -0x1920(%rbp),%rax
    8bc0:	48 83 c0 5c          	add    $0x5c,%rax
    8bc4:	48 89 85 c8 f4 ff ff 	mov    %rax,-0xb38(%rbp)
    8bcb:	48 8d 85 e0 e6 ff ff 	lea    -0x1920(%rbp),%rax
    8bd2:	48 83 c0 58          	add    $0x58,%rax
    8bd6:	48 89 85 d0 f4 ff ff 	mov    %rax,-0xb30(%rbp)
    8bdd:	48 8d 85 e0 e6 ff ff 	lea    -0x1920(%rbp),%rax
    8be4:	48 83 c0 14          	add    $0x14,%rax
    8be8:	48 89 85 d8 f4 ff ff 	mov    %rax,-0xb28(%rbp)
    8bef:	48 c7 85 e0 f4 ff ff 	movq   $0x0,-0xb20(%rbp)
    8bf6:	00 00 00 00 
    8bfa:	48 8d 85 e0 e6 ff ff 	lea    -0x1920(%rbp),%rax
    8c01:	48 83 c0 5c          	add    $0x5c,%rax
    8c05:	48 89 85 e8 f4 ff ff 	mov    %rax,-0xb18(%rbp)
    8c0c:	48 8d 85 c4 e5 ff ff 	lea    -0x1a3c(%rbp),%rax
    8c13:	48 89 85 f0 f4 ff ff 	mov    %rax,-0xb10(%rbp)
    8c1a:	48 8d 85 c4 e5 ff ff 	lea    -0x1a3c(%rbp),%rax
    8c21:	48 89 85 f8 f4 ff ff 	mov    %rax,-0xb08(%rbp)
    8c28:	48 8d 05 15 34 01 00 	lea    0x13415(%rip),%rax        # 1c044 <g_57+0x14>
    8c2f:	48 89 85 00 f5 ff ff 	mov    %rax,-0xb00(%rbp)
    8c36:	48 8d 85 c0 e5 ff ff 	lea    -0x1a40(%rbp),%rax
    8c3d:	48 89 85 08 f5 ff ff 	mov    %rax,-0xaf8(%rbp)
    8c44:	48 8d 85 e0 e6 ff ff 	lea    -0x1920(%rbp),%rax
    8c4b:	48 83 c0 5c          	add    $0x5c,%rax
    8c4f:	48 89 85 10 f5 ff ff 	mov    %rax,-0xaf0(%rbp)
    8c56:	48 8d 85 e0 e6 ff ff 	lea    -0x1920(%rbp),%rax
    8c5d:	48 83 c0 5c          	add    $0x5c,%rax
    8c61:	48 89 85 18 f5 ff ff 	mov    %rax,-0xae8(%rbp)
    8c68:	48 8d 85 c0 e5 ff ff 	lea    -0x1a40(%rbp),%rax
    8c6f:	48 89 85 20 f5 ff ff 	mov    %rax,-0xae0(%rbp)
    8c76:	48 8d 85 c0 e5 ff ff 	lea    -0x1a40(%rbp),%rax
    8c7d:	48 89 85 28 f5 ff ff 	mov    %rax,-0xad8(%rbp)
    8c84:	48 8d 85 e0 e6 ff ff 	lea    -0x1920(%rbp),%rax
    8c8b:	48 83 c0 58          	add    $0x58,%rax
    8c8f:	48 89 85 30 f5 ff ff 	mov    %rax,-0xad0(%rbp)
    8c96:	48 8d 85 bc e5 ff ff 	lea    -0x1a44(%rbp),%rax
    8c9d:	48 89 85 38 f5 ff ff 	mov    %rax,-0xac8(%rbp)
    8ca4:	48 8d 85 d0 e6 ff ff 	lea    -0x1930(%rbp),%rax
    8cab:	48 89 85 40 f5 ff ff 	mov    %rax,-0xac0(%rbp)
    8cb2:	48 c7 85 48 f5 ff ff 	movq   $0x0,-0xab8(%rbp)
    8cb9:	00 00 00 00 
    8cbd:	48 8d 85 e0 e6 ff ff 	lea    -0x1920(%rbp),%rax
    8cc4:	48 83 c0 5c          	add    $0x5c,%rax
    8cc8:	48 89 85 50 f5 ff ff 	mov    %rax,-0xab0(%rbp)
    8ccf:	48 8d 85 c4 e5 ff ff 	lea    -0x1a3c(%rbp),%rax
    8cd6:	48 89 85 58 f5 ff ff 	mov    %rax,-0xaa8(%rbp)
    8cdd:	48 8d 05 54 33 01 00 	lea    0x13354(%rip),%rax        # 1c038 <g_57+0x8>
    8ce4:	48 89 85 60 f5 ff ff 	mov    %rax,-0xaa0(%rbp)
    8ceb:	48 8d 85 bc e5 ff ff 	lea    -0x1a44(%rbp),%rax
    8cf2:	48 89 85 68 f5 ff ff 	mov    %rax,-0xa98(%rbp)
    8cf9:	48 c7 85 70 f5 ff ff 	movq   $0x0,-0xa90(%rbp)
    8d00:	00 00 00 00 
    8d04:	48 c7 85 78 f5 ff ff 	movq   $0x0,-0xa88(%rbp)
    8d0b:	00 00 00 00 
    8d0f:	48 8d 85 c0 e5 ff ff 	lea    -0x1a40(%rbp),%rax
    8d16:	48 89 85 80 f5 ff ff 	mov    %rax,-0xa80(%rbp)
    8d1d:	48 8d 85 e0 e6 ff ff 	lea    -0x1920(%rbp),%rax
    8d24:	48 83 c0 5c          	add    $0x5c,%rax
    8d28:	48 89 85 88 f5 ff ff 	mov    %rax,-0xa78(%rbp)
    8d2f:	48 8d 05 0e 33 01 00 	lea    0x1330e(%rip),%rax        # 1c044 <g_57+0x14>
    8d36:	48 89 85 90 f5 ff ff 	mov    %rax,-0xa70(%rbp)
    8d3d:	48 8d 85 c0 e5 ff ff 	lea    -0x1a40(%rbp),%rax
    8d44:	48 89 85 98 f5 ff ff 	mov    %rax,-0xa68(%rbp)
    8d4b:	48 8d 85 e0 e6 ff ff 	lea    -0x1920(%rbp),%rax
    8d52:	48 83 c0 5c          	add    $0x5c,%rax
    8d56:	48 89 85 a0 f5 ff ff 	mov    %rax,-0xa60(%rbp)
    8d5d:	48 c7 85 a8 f5 ff ff 	movq   $0x0,-0xa58(%rbp)
    8d64:	00 00 00 00 
    8d68:	48 8d 85 c4 e5 ff ff 	lea    -0x1a3c(%rbp),%rax
    8d6f:	48 89 85 b0 f5 ff ff 	mov    %rax,-0xa50(%rbp)
    8d76:	48 8d 85 e0 e6 ff ff 	lea    -0x1920(%rbp),%rax
    8d7d:	48 83 c0 5c          	add    $0x5c,%rax
    8d81:	48 89 85 b8 f5 ff ff 	mov    %rax,-0xa48(%rbp)
    8d88:	48 8d 85 c4 e5 ff ff 	lea    -0x1a3c(%rbp),%rax
    8d8f:	48 89 85 c0 f5 ff ff 	mov    %rax,-0xa40(%rbp)
    8d96:	48 8d 85 e0 e6 ff ff 	lea    -0x1920(%rbp),%rax
    8d9d:	48 83 c0 14          	add    $0x14,%rax
    8da1:	48 89 85 c8 f5 ff ff 	mov    %rax,-0xa38(%rbp)
    8da8:	48 c7 85 d0 f5 ff ff 	movq   $0x0,-0xa30(%rbp)
    8daf:	00 00 00 00 
    8db3:	48 8d 85 e0 e6 ff ff 	lea    -0x1920(%rbp),%rax
    8dba:	48 83 c0 5c          	add    $0x5c,%rax
    8dbe:	48 89 85 d8 f5 ff ff 	mov    %rax,-0xa28(%rbp)
    8dc5:	48 8d 05 d0 32 01 00 	lea    0x132d0(%rip),%rax        # 1c09c <g_266>
    8dcc:	48 89 85 e0 f5 ff ff 	mov    %rax,-0xa20(%rbp)
    8dd3:	48 8d 85 c4 e5 ff ff 	lea    -0x1a3c(%rbp),%rax
    8dda:	48 89 85 e8 f5 ff ff 	mov    %rax,-0xa18(%rbp)
    8de1:	48 8d 05 b4 32 01 00 	lea    0x132b4(%rip),%rax        # 1c09c <g_266>
    8de8:	48 89 85 f0 f5 ff ff 	mov    %rax,-0xa10(%rbp)
    8def:	48 8d 85 c0 e5 ff ff 	lea    -0x1a40(%rbp),%rax
    8df6:	48 89 85 f8 f5 ff ff 	mov    %rax,-0xa08(%rbp)
    8dfd:	48 8d 85 d0 e6 ff ff 	lea    -0x1930(%rbp),%rax
    8e04:	48 89 85 00 f6 ff ff 	mov    %rax,-0xa00(%rbp)
    8e0b:	48 8d 85 e0 e6 ff ff 	lea    -0x1920(%rbp),%rax
    8e12:	48 83 c0 5c          	add    $0x5c,%rax
    8e16:	48 89 85 08 f6 ff ff 	mov    %rax,-0x9f8(%rbp)
    8e1d:	48 c7 85 10 f6 ff ff 	movq   $0x0,-0x9f0(%rbp)
    8e24:	00 00 00 00 
    8e28:	48 8d 85 c0 e5 ff ff 	lea    -0x1a40(%rbp),%rax
    8e2f:	48 89 85 18 f6 ff ff 	mov    %rax,-0x9e8(%rbp)
    8e36:	48 8d 85 c4 e5 ff ff 	lea    -0x1a3c(%rbp),%rax
    8e3d:	48 89 85 20 f6 ff ff 	mov    %rax,-0x9e0(%rbp)
    8e44:	48 8d 85 bc e5 ff ff 	lea    -0x1a44(%rbp),%rax
    8e4b:	48 89 85 28 f6 ff ff 	mov    %rax,-0x9d8(%rbp)
    8e52:	48 8d 85 e0 e6 ff ff 	lea    -0x1920(%rbp),%rax
    8e59:	48 83 c0 5c          	add    $0x5c,%rax
    8e5d:	48 89 85 30 f6 ff ff 	mov    %rax,-0x9d0(%rbp)
    8e64:	48 c7 85 38 f6 ff ff 	movq   $0x0,-0x9c8(%rbp)
    8e6b:	00 00 00 00 
    8e6f:	48 8d 85 e0 e6 ff ff 	lea    -0x1920(%rbp),%rax
    8e76:	48 83 c0 74          	add    $0x74,%rax
    8e7a:	48 89 85 40 f6 ff ff 	mov    %rax,-0x9c0(%rbp)
    8e81:	48 8d 85 c4 e5 ff ff 	lea    -0x1a3c(%rbp),%rax
    8e88:	48 89 85 48 f6 ff ff 	mov    %rax,-0x9b8(%rbp)
    8e8f:	48 8d 05 ae 31 01 00 	lea    0x131ae(%rip),%rax        # 1c044 <g_57+0x14>
    8e96:	48 89 85 50 f6 ff ff 	mov    %rax,-0x9b0(%rbp)
    8e9d:	48 8d 85 bc e5 ff ff 	lea    -0x1a44(%rbp),%rax
    8ea4:	48 89 85 58 f6 ff ff 	mov    %rax,-0x9a8(%rbp)
    8eab:	48 c7 85 60 f6 ff ff 	movq   $0x0,-0x9a0(%rbp)
    8eb2:	00 00 00 00 
    8eb6:	48 c7 85 68 f6 ff ff 	movq   $0x0,-0x998(%rbp)
    8ebd:	00 00 00 00 
    8ec1:	48 c7 85 70 f6 ff ff 	movq   $0x0,-0x990(%rbp)
    8ec8:	00 00 00 00 
    8ecc:	48 8d 85 e0 e6 ff ff 	lea    -0x1920(%rbp),%rax
    8ed3:	48 83 c0 5c          	add    $0x5c,%rax
    8ed7:	48 89 85 78 f6 ff ff 	mov    %rax,-0x988(%rbp)
    8ede:	48 8d 05 53 31 01 00 	lea    0x13153(%rip),%rax        # 1c038 <g_57+0x8>
    8ee5:	48 89 85 80 f6 ff ff 	mov    %rax,-0x980(%rbp)
    8eec:	48 8d 85 c0 e5 ff ff 	lea    -0x1a40(%rbp),%rax
    8ef3:	48 89 85 88 f6 ff ff 	mov    %rax,-0x978(%rbp)
    8efa:	48 8d 05 9b 31 01 00 	lea    0x1319b(%rip),%rax        # 1c09c <g_266>
    8f01:	48 89 85 90 f6 ff ff 	mov    %rax,-0x970(%rbp)
    8f08:	48 c7 85 98 f6 ff ff 	movq   $0x0,-0x968(%rbp)
    8f0f:	00 00 00 00 
    8f13:	48 8d 05 82 31 01 00 	lea    0x13182(%rip),%rax        # 1c09c <g_266>
    8f1a:	48 89 85 a0 f6 ff ff 	mov    %rax,-0x960(%rbp)
    8f21:	48 8d 85 e0 e6 ff ff 	lea    -0x1920(%rbp),%rax
    8f28:	48 83 c0 5c          	add    $0x5c,%rax
    8f2c:	48 89 85 a8 f6 ff ff 	mov    %rax,-0x958(%rbp)
    8f33:	48 8d 85 e0 e6 ff ff 	lea    -0x1920(%rbp),%rax
    8f3a:	48 83 c0 58          	add    $0x58,%rax
    8f3e:	48 89 85 b0 f6 ff ff 	mov    %rax,-0x950(%rbp)
    8f45:	48 8d 85 e0 e6 ff ff 	lea    -0x1920(%rbp),%rax
    8f4c:	48 83 c0 14          	add    $0x14,%rax
    8f50:	48 89 85 b8 f6 ff ff 	mov    %rax,-0x948(%rbp)
    8f57:	48 c7 85 c0 f6 ff ff 	movq   $0x0,-0x940(%rbp)
    8f5e:	00 00 00 00 
    8f62:	48 8d 85 e0 e6 ff ff 	lea    -0x1920(%rbp),%rax
    8f69:	48 83 c0 5c          	add    $0x5c,%rax
    8f6d:	48 89 85 c8 f6 ff ff 	mov    %rax,-0x938(%rbp)
    8f74:	48 8d 85 c4 e5 ff ff 	lea    -0x1a3c(%rbp),%rax
    8f7b:	48 89 85 d0 f6 ff ff 	mov    %rax,-0x930(%rbp)
    8f82:	48 8d 85 c4 e5 ff ff 	lea    -0x1a3c(%rbp),%rax
    8f89:	48 89 85 d8 f6 ff ff 	mov    %rax,-0x928(%rbp)
    8f90:	48 8d 05 ad 30 01 00 	lea    0x130ad(%rip),%rax        # 1c044 <g_57+0x14>
    8f97:	48 89 85 e0 f6 ff ff 	mov    %rax,-0x920(%rbp)
    8f9e:	48 8d 85 c0 e5 ff ff 	lea    -0x1a40(%rbp),%rax
    8fa5:	48 89 85 e8 f6 ff ff 	mov    %rax,-0x918(%rbp)
    8fac:	48 8d 85 e0 e6 ff ff 	lea    -0x1920(%rbp),%rax
    8fb3:	48 83 c0 5c          	add    $0x5c,%rax
    8fb7:	48 89 85 f0 f6 ff ff 	mov    %rax,-0x910(%rbp)
    8fbe:	48 8d 85 e0 e6 ff ff 	lea    -0x1920(%rbp),%rax
    8fc5:	48 83 c0 5c          	add    $0x5c,%rax
    8fc9:	48 89 85 f8 f6 ff ff 	mov    %rax,-0x908(%rbp)
    8fd0:	48 8d 85 c0 e5 ff ff 	lea    -0x1a40(%rbp),%rax
    8fd7:	48 89 85 00 f7 ff ff 	mov    %rax,-0x900(%rbp)
    8fde:	48 8d 85 c0 e5 ff ff 	lea    -0x1a40(%rbp),%rax
    8fe5:	48 89 85 08 f7 ff ff 	mov    %rax,-0x8f8(%rbp)
    8fec:	48 8d 85 e0 e6 ff ff 	lea    -0x1920(%rbp),%rax
    8ff3:	48 83 c0 58          	add    $0x58,%rax
    8ff7:	48 89 85 10 f7 ff ff 	mov    %rax,-0x8f0(%rbp)
    8ffe:	48 8d 85 bc e5 ff ff 	lea    -0x1a44(%rbp),%rax
    9005:	48 89 85 18 f7 ff ff 	mov    %rax,-0x8e8(%rbp)
    900c:	48 8d 85 d0 e6 ff ff 	lea    -0x1930(%rbp),%rax
    9013:	48 89 85 20 f7 ff ff 	mov    %rax,-0x8e0(%rbp)
    901a:	48 c7 85 28 f7 ff ff 	movq   $0x0,-0x8d8(%rbp)
    9021:	00 00 00 00 
    9025:	48 8d 85 e0 e6 ff ff 	lea    -0x1920(%rbp),%rax
    902c:	48 83 c0 5c          	add    $0x5c,%rax
    9030:	48 89 85 30 f7 ff ff 	mov    %rax,-0x8d0(%rbp)
    9037:	48 8d 85 c4 e5 ff ff 	lea    -0x1a3c(%rbp),%rax
    903e:	48 89 85 38 f7 ff ff 	mov    %rax,-0x8c8(%rbp)
    9045:	48 8d 05 ec 2f 01 00 	lea    0x12fec(%rip),%rax        # 1c038 <g_57+0x8>
    904c:	48 89 85 40 f7 ff ff 	mov    %rax,-0x8c0(%rbp)
    9053:	48 8d 85 bc e5 ff ff 	lea    -0x1a44(%rbp),%rax
    905a:	48 89 85 48 f7 ff ff 	mov    %rax,-0x8b8(%rbp)
    9061:	48 c7 85 50 f7 ff ff 	movq   $0x0,-0x8b0(%rbp)
    9068:	00 00 00 00 
    906c:	48 c7 85 58 f7 ff ff 	movq   $0x0,-0x8a8(%rbp)
    9073:	00 00 00 00 
    9077:	48 8d 85 c0 e5 ff ff 	lea    -0x1a40(%rbp),%rax
    907e:	48 89 85 60 f7 ff ff 	mov    %rax,-0x8a0(%rbp)
    9085:	48 8d 85 e0 e6 ff ff 	lea    -0x1920(%rbp),%rax
    908c:	48 83 c0 5c          	add    $0x5c,%rax
    9090:	48 89 85 68 f7 ff ff 	mov    %rax,-0x898(%rbp)
    9097:	48 8d 05 a6 2f 01 00 	lea    0x12fa6(%rip),%rax        # 1c044 <g_57+0x14>
    909e:	48 89 85 70 f7 ff ff 	mov    %rax,-0x890(%rbp)
    90a5:	48 8d 85 c0 e5 ff ff 	lea    -0x1a40(%rbp),%rax
    90ac:	48 89 85 78 f7 ff ff 	mov    %rax,-0x888(%rbp)
    90b3:	48 8d 85 e0 e6 ff ff 	lea    -0x1920(%rbp),%rax
    90ba:	48 83 c0 5c          	add    $0x5c,%rax
    90be:	48 89 85 80 f7 ff ff 	mov    %rax,-0x880(%rbp)
    90c5:	48 c7 85 88 f7 ff ff 	movq   $0x0,-0x878(%rbp)
    90cc:	00 00 00 00 
    90d0:	48 8d 85 c4 e5 ff ff 	lea    -0x1a3c(%rbp),%rax
    90d7:	48 89 85 90 f7 ff ff 	mov    %rax,-0x870(%rbp)
    90de:	48 8d 85 e0 e6 ff ff 	lea    -0x1920(%rbp),%rax
    90e5:	48 83 c0 5c          	add    $0x5c,%rax
    90e9:	48 89 85 98 f7 ff ff 	mov    %rax,-0x868(%rbp)
    90f0:	48 8d 85 c4 e5 ff ff 	lea    -0x1a3c(%rbp),%rax
    90f7:	48 89 85 a0 f7 ff ff 	mov    %rax,-0x860(%rbp)
    90fe:	48 8d 85 e0 e6 ff ff 	lea    -0x1920(%rbp),%rax
    9105:	48 83 c0 14          	add    $0x14,%rax
    9109:	48 89 85 a8 f7 ff ff 	mov    %rax,-0x858(%rbp)
    9110:	48 c7 85 b0 f7 ff ff 	movq   $0x0,-0x850(%rbp)
    9117:	00 00 00 00 
    911b:	48 8d 85 e0 e6 ff ff 	lea    -0x1920(%rbp),%rax
    9122:	48 83 c0 5c          	add    $0x5c,%rax
    9126:	48 89 85 b8 f7 ff ff 	mov    %rax,-0x848(%rbp)
    912d:	48 8d 05 68 2f 01 00 	lea    0x12f68(%rip),%rax        # 1c09c <g_266>
    9134:	48 89 85 c0 f7 ff ff 	mov    %rax,-0x840(%rbp)
    913b:	48 8d 85 c4 e5 ff ff 	lea    -0x1a3c(%rbp),%rax
    9142:	48 89 85 c8 f7 ff ff 	mov    %rax,-0x838(%rbp)
    9149:	48 8d 85 e0 e6 ff ff 	lea    -0x1920(%rbp),%rax
    9150:	48 83 c0 5c          	add    $0x5c,%rax
    9154:	48 89 85 d0 f7 ff ff 	mov    %rax,-0x830(%rbp)
    915b:	48 8d 85 d0 e6 ff ff 	lea    -0x1930(%rbp),%rax
    9162:	48 89 85 d8 f7 ff ff 	mov    %rax,-0x828(%rbp)
    9169:	48 c7 85 e0 f7 ff ff 	movq   $0x0,-0x820(%rbp)
    9170:	00 00 00 00 
    9174:	48 8d 85 d0 e6 ff ff 	lea    -0x1930(%rbp),%rax
    917b:	48 89 85 e8 f7 ff ff 	mov    %rax,-0x818(%rbp)
    9182:	48 8d 85 d0 e6 ff ff 	lea    -0x1930(%rbp),%rax
    9189:	48 89 85 f0 f7 ff ff 	mov    %rax,-0x810(%rbp)
    9190:	48 8d 05 05 2f 01 00 	lea    0x12f05(%rip),%rax        # 1c09c <g_266>
    9197:	48 89 85 f8 f7 ff ff 	mov    %rax,-0x808(%rbp)
    919e:	48 c7 85 00 f8 ff ff 	movq   $0x0,-0x800(%rbp)
    91a5:	00 00 00 00 
    91a9:	48 c7 85 08 f8 ff ff 	movq   $0x0,-0x7f8(%rbp)
    91b0:	00 00 00 00 
    91b4:	48 8d 05 89 2e 01 00 	lea    0x12e89(%rip),%rax        # 1c044 <g_57+0x14>
    91bb:	48 89 85 10 f8 ff ff 	mov    %rax,-0x7f0(%rbp)
    91c2:	48 8d 05 d3 2e 01 00 	lea    0x12ed3(%rip),%rax        # 1c09c <g_266>
    91c9:	48 89 85 18 f8 ff ff 	mov    %rax,-0x7e8(%rbp)
    91d0:	48 8d 85 e0 e6 ff ff 	lea    -0x1920(%rbp),%rax
    91d7:	48 83 c0 5c          	add    $0x5c,%rax
    91db:	48 89 85 20 f8 ff ff 	mov    %rax,-0x7e0(%rbp)
    91e2:	48 8d 05 b3 2e 01 00 	lea    0x12eb3(%rip),%rax        # 1c09c <g_266>
    91e9:	48 89 85 28 f8 ff ff 	mov    %rax,-0x7d8(%rbp)
    91f0:	48 c7 05 2d 2e 01 00 	movq   $0x0,0x12e2d(%rip)        # 1c028 <g_52>
    91f7:	00 00 00 00 
    91fb:	e9 15 08 00 00       	jmpq   9a15 <func_19+0x2164>
    9200:	48 8d 05 3d 2e 01 00 	lea    0x12e3d(%rip),%rax        # 1c044 <g_57+0x14>
    9207:	48 89 85 58 e6 ff ff 	mov    %rax,-0x19a8(%rbp)
    920e:	48 8d 05 73 7e 01 00 	lea    0x17e73(%rip),%rax        # 21088 <g_243>
    9215:	48 89 85 60 e6 ff ff 	mov    %rax,-0x19a0(%rbp)
    921c:	48 8d 85 60 ed ff ff 	lea    -0x12a0(%rbp),%rax
    9223:	48 8d 15 b6 e2 00 00 	lea    0xe2b6(%rip),%rdx        # 174e0 <g_1804+0x280>
    922a:	b9 69 00 00 00       	mov    $0x69,%ecx
    922f:	48 89 c7             	mov    %rax,%rdi
    9232:	48 89 d6             	mov    %rdx,%rsi
    9235:	f3 48 a5             	rep movsq %ds:(%rsi),%es:(%rdi)
    9238:	c6 85 b8 e5 ff ff e4 	movb   $0xe4,-0x1a48(%rbp)
    923f:	c7 85 e0 e5 ff ff fc 	movl   $0xfffffffc,-0x1a20(%rbp)
    9246:	ff ff ff 
    9249:	c7 85 e4 e5 ff ff 58 	movl   $0xdd3d1158,-0x1a1c(%rbp)
    9250:	11 3d dd 
    9253:	c7 85 e8 e5 ff ff 06 	movl   $0x6,-0x1a18(%rbp)
    925a:	00 00 00 
    925d:	c7 85 ec e5 ff ff de 	movl   $0x7d2086de,-0x1a14(%rbp)
    9264:	86 20 7d 
    9267:	c7 85 f0 e5 ff ff ff 	movl   $0xffffffff,-0x1a10(%rbp)
    926e:	ff ff ff 
    9271:	c7 85 f4 e5 ff ff da 	movl   $0x5d460cda,-0x1a0c(%rbp)
    9278:	0c 46 5d 
    927b:	c7 85 d4 e5 ff ff 4c 	movl   $0x2226214c,-0x1a2c(%rbp)
    9282:	21 26 22 
    9285:	48 8b 85 58 e6 ff ff 	mov    -0x19a8(%rbp),%rax
    928c:	c7 00 00 00 00 00    	movl   $0x0,(%rax)
    9292:	66 c7 05 8b 2d 01 00 	movw   $0x0,0x12d8b(%rip)        # 1c026 <g_23>
    9299:	00 00 
    929b:	90                   	nop
    929c:	0f b7 05 83 2d 01 00 	movzwl 0x12d83(%rip),%eax        # 1c026 <g_23>
    92a3:	66 83 f8 02          	cmp    $0x2,%ax
    92a7:	77 3d                	ja     92e6 <func_19+0x1a35>
    92a9:	48 8b 85 58 e6 ff ff 	mov    -0x19a8(%rbp),%rax
    92b0:	8b 00                	mov    (%rax),%eax
    92b2:	0d bb df ff aa       	or     $0xaaffdfbb,%eax
    92b7:	89 c2                	mov    %eax,%edx
    92b9:	48 8b 85 58 e6 ff ff 	mov    -0x19a8(%rbp),%rax
    92c0:	89 10                	mov    %edx,(%rax)
    92c2:	48 8b 05 a7 83 01 00 	mov    0x183a7(%rip),%rax        # 21670 <g_997>
    92c9:	8b 00                	mov    (%rax),%eax
    92cb:	89 85 d4 e6 ff ff    	mov    %eax,-0x192c(%rbp)
    92d1:	48 8b 05 a0 4b 01 00 	mov    0x14ba0(%rip),%rax        # 1de78 <g_1695+0x38>
    92d8:	48 c1 e8 1a          	shr    $0x1a,%rax
    92dc:	25 ff ff ff 3f       	and    $0x3fffffff,%eax
    92e1:	e9 46 07 00 00       	jmpq   9a2c <func_19+0x217b>
    92e6:	c7 05 08 4b 01 00 00 	movl   $0x0,0x14b08(%rip)        # 1ddf8 <g_1059>
    92ed:	00 00 00 
    92f0:	e9 ff 06 00 00       	jmpq   99f4 <func_19+0x2143>
    92f5:	48 8d 05 14 4b 01 00 	lea    0x14b14(%rip),%rax        # 1de10 <g_1601>
    92fc:	48 89 85 68 e6 ff ff 	mov    %rax,-0x1998(%rbp)
    9303:	48 8d 85 30 f8 ff ff 	lea    -0x7d0(%rbp),%rax
    930a:	48 05 50 03 00 00    	add    $0x350,%rax
    9310:	48 89 85 28 e6 ff ff 	mov    %rax,-0x19d8(%rbp)
    9317:	48 8d 85 28 e6 ff ff 	lea    -0x19d8(%rbp),%rax
    931e:	48 89 85 70 e6 ff ff 	mov    %rax,-0x1990(%rbp)
    9325:	48 8d 85 30 f8 ff ff 	lea    -0x7d0(%rbp),%rax
    932c:	48 05 98 04 00 00    	add    $0x498,%rax
    9332:	48 89 85 78 e6 ff ff 	mov    %rax,-0x1988(%rbp)
    9339:	48 8d 85 bc e5 ff ff 	lea    -0x1a44(%rbp),%rax
    9340:	48 89 85 80 e6 ff ff 	mov    %rax,-0x1980(%rbp)
    9347:	48 8d 05 4e 2d 01 00 	lea    0x12d4e(%rip),%rax        # 1c09c <g_266>
    934e:	48 89 85 60 e7 ff ff 	mov    %rax,-0x18a0(%rbp)
    9355:	48 8d 05 40 2d 01 00 	lea    0x12d40(%rip),%rax        # 1c09c <g_266>
    935c:	48 89 85 68 e7 ff ff 	mov    %rax,-0x1898(%rbp)
    9363:	48 8d 05 32 2d 01 00 	lea    0x12d32(%rip),%rax        # 1c09c <g_266>
    936a:	48 89 85 70 e7 ff ff 	mov    %rax,-0x1890(%rbp)
    9371:	48 c7 85 78 e7 ff ff 	movq   $0x0,-0x1888(%rbp)
    9378:	00 00 00 00 
    937c:	48 8d 05 19 2d 01 00 	lea    0x12d19(%rip),%rax        # 1c09c <g_266>
    9383:	48 89 85 80 e7 ff ff 	mov    %rax,-0x1880(%rbp)
    938a:	48 c7 85 88 e7 ff ff 	movq   $0x0,-0x1878(%rbp)
    9391:	00 00 00 00 
    9395:	48 8d 05 00 2d 01 00 	lea    0x12d00(%rip),%rax        # 1c09c <g_266>
    939c:	48 89 85 90 e7 ff ff 	mov    %rax,-0x1870(%rbp)
    93a3:	48 8d 05 f2 2c 01 00 	lea    0x12cf2(%rip),%rax        # 1c09c <g_266>
    93aa:	48 89 85 98 e7 ff ff 	mov    %rax,-0x1868(%rbp)
    93b1:	48 8d 05 e4 2c 01 00 	lea    0x12ce4(%rip),%rax        # 1c09c <g_266>
    93b8:	48 89 85 a0 e7 ff ff 	mov    %rax,-0x1860(%rbp)
    93bf:	48 c7 85 a8 e7 ff ff 	movq   $0x0,-0x1858(%rbp)
    93c6:	00 00 00 00 
    93ca:	48 8d 05 cb 2c 01 00 	lea    0x12ccb(%rip),%rax        # 1c09c <g_266>
    93d1:	48 89 85 b0 e7 ff ff 	mov    %rax,-0x1850(%rbp)
    93d8:	48 c7 85 b8 e7 ff ff 	movq   $0x0,-0x1848(%rbp)
    93df:	00 00 00 00 
    93e3:	48 8d 05 b2 2c 01 00 	lea    0x12cb2(%rip),%rax        # 1c09c <g_266>
    93ea:	48 89 85 c0 e7 ff ff 	mov    %rax,-0x1840(%rbp)
    93f1:	48 8d 05 a4 2c 01 00 	lea    0x12ca4(%rip),%rax        # 1c09c <g_266>
    93f8:	48 89 85 c8 e7 ff ff 	mov    %rax,-0x1838(%rbp)
    93ff:	48 8d 05 96 2c 01 00 	lea    0x12c96(%rip),%rax        # 1c09c <g_266>
    9406:	48 89 85 d0 e7 ff ff 	mov    %rax,-0x1830(%rbp)
    940d:	48 c7 85 d8 e7 ff ff 	movq   $0x0,-0x1828(%rbp)
    9414:	00 00 00 00 
    9418:	48 8d 05 7d 2c 01 00 	lea    0x12c7d(%rip),%rax        # 1c09c <g_266>
    941f:	48 89 85 e0 e7 ff ff 	mov    %rax,-0x1820(%rbp)
    9426:	48 c7 85 e8 e7 ff ff 	movq   $0x0,-0x1818(%rbp)
    942d:	00 00 00 00 
    9431:	48 8d 05 64 2c 01 00 	lea    0x12c64(%rip),%rax        # 1c09c <g_266>
    9438:	48 89 85 f0 e7 ff ff 	mov    %rax,-0x1810(%rbp)
    943f:	48 8d 05 56 2c 01 00 	lea    0x12c56(%rip),%rax        # 1c09c <g_266>
    9446:	48 89 85 f8 e7 ff ff 	mov    %rax,-0x1808(%rbp)
    944d:	48 8d 05 48 2c 01 00 	lea    0x12c48(%rip),%rax        # 1c09c <g_266>
    9454:	48 89 85 00 e8 ff ff 	mov    %rax,-0x1800(%rbp)
    945b:	48 c7 85 08 e8 ff ff 	movq   $0x0,-0x17f8(%rbp)
    9462:	00 00 00 00 
    9466:	48 8d 05 2f 2c 01 00 	lea    0x12c2f(%rip),%rax        # 1c09c <g_266>
    946d:	48 89 85 10 e8 ff ff 	mov    %rax,-0x17f0(%rbp)
    9474:	48 c7 85 18 e8 ff ff 	movq   $0x0,-0x17e8(%rbp)
    947b:	00 00 00 00 
    947f:	48 8d 05 16 2c 01 00 	lea    0x12c16(%rip),%rax        # 1c09c <g_266>
    9486:	48 89 85 20 e8 ff ff 	mov    %rax,-0x17e0(%rbp)
    948d:	48 8d 05 08 2c 01 00 	lea    0x12c08(%rip),%rax        # 1c09c <g_266>
    9494:	48 89 85 28 e8 ff ff 	mov    %rax,-0x17d8(%rbp)
    949b:	48 8d 05 fa 2b 01 00 	lea    0x12bfa(%rip),%rax        # 1c09c <g_266>
    94a2:	48 89 85 30 e8 ff ff 	mov    %rax,-0x17d0(%rbp)
    94a9:	48 c7 85 38 e8 ff ff 	movq   $0x0,-0x17c8(%rbp)
    94b0:	00 00 00 00 
    94b4:	48 8d 05 e1 2b 01 00 	lea    0x12be1(%rip),%rax        # 1c09c <g_266>
    94bb:	48 89 85 40 e8 ff ff 	mov    %rax,-0x17c0(%rbp)
    94c2:	48 c7 85 48 e8 ff ff 	movq   $0x0,-0x17b8(%rbp)
    94c9:	00 00 00 00 
    94cd:	48 8d 05 c8 2b 01 00 	lea    0x12bc8(%rip),%rax        # 1c09c <g_266>
    94d4:	48 89 85 50 e8 ff ff 	mov    %rax,-0x17b0(%rbp)
    94db:	48 8d 05 ba 2b 01 00 	lea    0x12bba(%rip),%rax        # 1c09c <g_266>
    94e2:	48 89 85 58 e8 ff ff 	mov    %rax,-0x17a8(%rbp)
    94e9:	48 b8 3d 5d 0a 5a d6 	movabs $0xb6fe44d65a0a5d3d,%rax
    94f0:	44 fe b6 
    94f3:	48 89 85 88 e6 ff ff 	mov    %rax,-0x1978(%rbp)
    94fa:	48 c7 85 30 e6 ff ff 	movq   $0x0,-0x19d0(%rbp)
    9501:	00 00 00 00 
    9505:	48 8d 85 30 e6 ff ff 	lea    -0x19d0(%rbp),%rax
    950c:	48 89 85 90 e6 ff ff 	mov    %rax,-0x1970(%rbp)
    9513:	c7 85 f8 e5 ff ff d4 	movl   $0xe5233ad4,-0x1a08(%rbp)
    951a:	3a 23 e5 
    951d:	48 83 bd 48 e6 ff ff 	cmpq   $0x0,-0x19b8(%rbp)
    9524:	00 
    9525:	0f 95 c0             	setne  %al
    9528:	0f b6 d8             	movzbl %al,%ebx
    952b:	48 c7 85 60 e6 ff ff 	movq   $0x0,-0x19a0(%rbp)
    9532:	00 00 00 00 
    9536:	48 8b 85 60 e6 ff ff 	mov    -0x19a0(%rbp),%rax
    953d:	48 3b 85 50 e6 ff ff 	cmp    -0x19b0(%rbp),%rax
    9544:	0f 95 c0             	setne  %al
    9547:	0f b6 d0             	movzbl %al,%edx
    954a:	48 8b 85 68 e6 ff ff 	mov    -0x1998(%rbp),%rax
    9551:	8b 08                	mov    (%rax),%ecx
    9553:	b8 0f 00 00 00       	mov    $0xf,%eax
    9558:	0f b6 c0             	movzbl %al,%eax
    955b:	09 c1                	or     %eax,%ecx
    955d:	48 8b 85 68 e6 ff ff 	mov    -0x1998(%rbp),%rax
    9564:	89 08                	mov    %ecx,(%rax)
    9566:	48 8b 85 70 e6 ff ff 	mov    -0x1990(%rbp),%rax
    956d:	48 8d 8d 30 f8 ff ff 	lea    -0x7d0(%rbp),%rcx
    9574:	48 81 c1 50 03 00 00 	add    $0x350,%rcx
    957b:	48 89 08             	mov    %rcx,(%rax)
    957e:	48 8b 85 70 e6 ff ff 	mov    -0x1990(%rbp),%rax
    9585:	48 8b 00             	mov    (%rax),%rax
    9588:	48 39 85 78 e6 ff ff 	cmp    %rax,-0x1988(%rbp)
    958f:	0f 95 c0             	setne  %al
    9592:	0f b6 c0             	movzbl %al,%eax
    9595:	39 c2                	cmp    %eax,%edx
    9597:	0f 9f c0             	setg   %al
    959a:	0f b6 d0             	movzbl %al,%edx
    959d:	48 8b 05 54 84 01 00 	mov    0x18454(%rip),%rax        # 219f8 <g_1477>
    95a4:	48 8b 00             	mov    (%rax),%rax
    95a7:	0f b6 00             	movzbl (%rax),%eax
    95aa:	0f be c0             	movsbl %al,%eax
    95ad:	39 c2                	cmp    %eax,%edx
    95af:	0f 9f c0             	setg   %al
    95b2:	0f b6 d0             	movzbl %al,%edx
    95b5:	8b 05 89 2a 01 00    	mov    0x12a89(%rip),%eax        # 1c044 <g_57+0x14>
    95bb:	0f b6 c0             	movzbl %al,%eax
    95be:	89 d6                	mov    %edx,%esi
    95c0:	89 c7                	mov    %eax,%edi
    95c2:	e8 b1 d5 ff ff       	callq  6b78 <safe_sub_func_uint8_t_u_u>
    95c7:	0f b6 c0             	movzbl %al,%eax
    95ca:	39 c3                	cmp    %eax,%ebx
    95cc:	0f 9f c0             	setg   %al
    95cf:	0f b6 d8             	movzbl %al,%ebx
    95d2:	8b 95 ac e5 ff ff    	mov    -0x1a54(%rbp),%edx
    95d8:	81 bd dc e5 ff ff ff 	cmpl   $0xdbff,-0x1a24(%rbp)
    95df:	db 00 00 
    95e2:	0f 96 c0             	setbe  %al
    95e5:	0f b6 c0             	movzbl %al,%eax
    95e8:	89 d6                	mov    %edx,%esi
    95ea:	89 c7                	mov    %eax,%edi
    95ec:	e8 5b d6 ff ff       	callq  6c4c <safe_lshift_func_uint8_t_u_u>
    95f1:	0f b6 c0             	movzbl %al,%eax
    95f4:	89 de                	mov    %ebx,%esi
    95f6:	89 c7                	mov    %eax,%edi
    95f8:	e8 40 d7 ff ff       	callq  6d3d <safe_mul_func_uint16_t_u_u>
    95fd:	0f b7 d0             	movzwl %ax,%edx
    9600:	48 8b 85 58 e6 ff ff 	mov    -0x19a8(%rbp),%rax
    9607:	89 10                	mov    %edx,(%rax)
    9609:	48 8b 85 58 e6 ff ff 	mov    -0x19a8(%rbp),%rax
    9610:	8b 10                	mov    (%rax),%edx
    9612:	48 8b 85 80 e6 ff ff 	mov    -0x1980(%rbp),%rax
    9619:	89 10                	mov    %edx,(%rax)
    961b:	48 8b 85 80 e6 ff ff 	mov    -0x1980(%rbp),%rax
    9622:	8b 00                	mov    (%rax),%eax
    9624:	39 85 ac e5 ff ff    	cmp    %eax,-0x1a54(%rbp)
    962a:	0f 9e c0             	setle  %al
    962d:	0f b6 c0             	movzbl %al,%eax
    9630:	48 8b 15 59 30 01 00 	mov    0x13059(%rip),%rdx        # 1c690 <g_604+0x10>
    9637:	48 c1 e2 0f          	shl    $0xf,%rdx
    963b:	48 c1 fa 2d          	sar    $0x2d,%rdx
    963f:	09 d0                	or     %edx,%eax
    9641:	c1 e0 0d             	shl    $0xd,%eax
    9644:	c1 f8 0d             	sar    $0xd,%eax
    9647:	89 c2                	mov    %eax,%edx
    9649:	83 e2 03             	and    $0x3,%edx
    964c:	89 d1                	mov    %edx,%ecx
    964e:	c1 e1 06             	shl    $0x6,%ecx
    9651:	0f b6 15 3b 30 01 00 	movzbl 0x1303b(%rip),%edx        # 1c693 <g_604+0x13>
    9658:	83 e2 3f             	and    $0x3f,%edx
    965b:	09 ca                	or     %ecx,%edx
    965d:	88 15 30 30 01 00    	mov    %dl,0x13030(%rip)        # 1c693 <g_604+0x13>
    9663:	89 c2                	mov    %eax,%edx
    9665:	c1 ea 02             	shr    $0x2,%edx
    9668:	89 d2                	mov    %edx,%edx
    966a:	0f b7 d2             	movzwl %dx,%edx
    966d:	0f b7 0d 20 30 01 00 	movzwl 0x13020(%rip),%ecx        # 1c694 <g_604+0x14>
    9674:	83 e1 00             	and    $0x0,%ecx
    9677:	09 ca                	or     %ecx,%edx
    9679:	66 89 15 14 30 01 00 	mov    %dx,0x13014(%rip)        # 1c694 <g_604+0x14>
    9680:	c1 e8 12             	shr    $0x12,%eax
    9683:	89 c0                	mov    %eax,%eax
    9685:	83 e0 01             	and    $0x1,%eax
    9688:	89 c2                	mov    %eax,%edx
    968a:	83 e2 01             	and    $0x1,%edx
    968d:	0f b6 05 02 30 01 00 	movzbl 0x13002(%rip),%eax        # 1c696 <g_604+0x16>
    9694:	83 e0 fe             	and    $0xfffffffe,%eax
    9697:	09 d0                	or     %edx,%eax
    9699:	88 05 f7 2f 01 00    	mov    %al,0x12ff7(%rip)        # 1c696 <g_604+0x16>
    969f:	c7 05 67 47 01 00 00 	movl   $0x0,0x14767(%rip)        # 1de10 <g_1601>
    96a6:	00 00 00 
    96a9:	e9 c3 02 00 00       	jmpq   9971 <func_19+0x20c0>
    96ae:	48 8d 05 53 47 01 00 	lea    0x14753(%rip),%rax        # 1de08 <g_1253>
    96b5:	48 89 85 98 e6 ff ff 	mov    %rax,-0x1968(%rbp)
    96bc:	48 8d 85 60 e8 ff ff 	lea    -0x17a0(%rbp),%rax
    96c3:	48 8d 15 16 67 01 00 	lea    0x16716(%rip),%rdx        # 1fde0 <g_2170+0x8d0>
    96ca:	b9 3c 00 00 00       	mov    $0x3c,%ecx
    96cf:	48 89 c7             	mov    %rax,%rdi
    96d2:	48 89 d6             	mov    %rdx,%rsi
    96d5:	f3 48 a5             	rep movsq %ds:(%rsi),%es:(%rdi)
    96d8:	c7 85 fc e5 ff ff e6 	movl   $0x9d7c7de6,-0x1a04(%rbp)
    96df:	7d 7c 9d 
    96e2:	c7 85 00 e6 ff ff d4 	movl   $0x9171e5d4,-0x1a00(%rbp)
    96e9:	e5 71 91 
    96ec:	c7 85 04 e6 ff ff f6 	movl   $0xfffffff6,-0x19fc(%rbp)
    96f3:	ff ff ff 
    96f6:	c7 85 08 e6 ff ff 01 	movl   $0x1,-0x19f8(%rbp)
    96fd:	00 00 00 
    9700:	c7 85 0c e6 ff ff 08 	movl   $0xf0968e08,-0x19f4(%rbp)
    9707:	8e 96 f0 
    970a:	c7 85 10 e6 ff ff 00 	movl   $0x0,-0x19f0(%rbp)
    9711:	00 00 00 
    9714:	c7 85 14 e6 ff ff 02 	movl   $0x2,-0x19ec(%rbp)
    971b:	00 00 00 
    971e:	c7 85 18 e6 ff ff 7f 	movl   $0x740c717f,-0x19e8(%rbp)
    9725:	71 0c 74 
    9728:	c7 85 1c e6 ff ff 01 	movl   $0x1,-0x19e4(%rbp)
    972f:	00 00 00 
    9732:	c6 85 b9 e5 ff ff 00 	movb   $0x0,-0x1a47(%rbp)
    9739:	8b 85 ac e5 ff ff    	mov    -0x1a54(%rbp),%eax
    973f:	0f bf d8             	movswl %ax,%ebx
    9742:	48 8b 85 88 e6 ff ff 	mov    -0x1978(%rbp),%rax
    9749:	44 0f bf e0          	movswl %ax,%r12d
    974d:	be 00 00 00 00       	mov    $0x0,%esi
    9752:	bf ff ff 00 00       	mov    $0xffff,%edi
    9757:	e8 ec d6 ff ff       	callq  6e48 <safe_rshift_func_uint16_t_u_s>
    975c:	8b 85 f0 ef ff ff    	mov    -0x1010(%rbp),%eax
    9762:	85 c0                	test   %eax,%eax
    9764:	0f 94 c0             	sete   %al
    9767:	89 c2                	mov    %eax,%edx
    9769:	48 8b 85 98 e6 ff ff 	mov    -0x1968(%rbp),%rax
    9770:	88 10                	mov    %dl,(%rax)
    9772:	48 8b 85 98 e6 ff ff 	mov    -0x1968(%rbp),%rax
    9779:	0f b6 00             	movzbl (%rax),%eax
    977c:	0f be c0             	movsbl %al,%eax
    977f:	39 85 d8 e5 ff ff    	cmp    %eax,-0x1a28(%rbp)
    9785:	0f 9f c0             	setg   %al
    9788:	0f b6 c0             	movzbl %al,%eax
    978b:	c1 e0 07             	shl    $0x7,%eax
    978e:	66 c1 f8 07          	sar    $0x7,%ax
    9792:	0f b7 d0             	movzwl %ax,%edx
    9795:	83 e2 07             	and    $0x7,%edx
    9798:	89 d1                	mov    %edx,%ecx
    979a:	c1 e1 05             	shl    $0x5,%ecx
    979d:	0f b6 15 31 5a 01 00 	movzbl 0x15a31(%rip),%edx        # 1f1d5 <g_2003+0x1335>
    97a4:	83 e2 1f             	and    $0x1f,%edx
    97a7:	09 ca                	or     %ecx,%edx
    97a9:	88 15 26 5a 01 00    	mov    %dl,0x15a26(%rip)        # 1f1d5 <g_2003+0x1335>
    97af:	66 c1 e8 03          	shr    $0x3,%ax
    97b3:	0f b7 c0             	movzwl %ax,%eax
    97b6:	83 e0 3f             	and    $0x3f,%eax
    97b9:	89 c2                	mov    %eax,%edx
    97bb:	83 e2 3f             	and    $0x3f,%edx
    97be:	0f b6 05 11 5a 01 00 	movzbl 0x15a11(%rip),%eax        # 1f1d6 <g_2003+0x1336>
    97c5:	83 e0 c0             	and    $0xffffffc0,%eax
    97c8:	09 d0                	or     %edx,%eax
    97ca:	88 05 06 5a 01 00    	mov    %al,0x15a06(%rip)        # 1f1d6 <g_2003+0x1336>
    97d0:	8b 05 fe 59 01 00    	mov    0x159fe(%rip),%eax        # 1f1d4 <g_2003+0x1334>
    97d6:	c1 e0 0a             	shl    $0xa,%eax
    97d9:	c1 f8 17             	sar    $0x17,%eax
    97dc:	66 25 ff 01          	and    $0x1ff,%ax
    97e0:	66 3d ff 00          	cmp    $0xff,%ax
    97e4:	0f 96 c0             	setbe  %al
    97e7:	0f b6 c0             	movzbl %al,%eax
    97ea:	20 85 b8 e5 ff ff    	and    %al,-0x1a48(%rbp)
    97f0:	44 89 e6             	mov    %r12d,%esi
    97f3:	bf 00 00 00 00       	mov    $0x0,%edi
    97f8:	e8 d6 cb ff ff       	callq  63d3 <safe_sub_func_int16_t_s_s>
    97fd:	0f be d0             	movsbl %al,%edx
    9800:	48 8b 05 99 7f 01 00 	mov    0x17f99(%rip),%rax        # 217a0 <g_1206>
    9807:	48 8b 00             	mov    (%rax),%rax
    980a:	0f b6 08             	movzbl (%rax),%ecx
    980d:	48 8b 85 58 e6 ff ff 	mov    -0x19a8(%rbp),%rax
    9814:	8b 00                	mov    (%rax),%eax
    9816:	89 c6                	mov    %eax,%esi
    9818:	48 8b 05 81 7f 01 00 	mov    0x17f81(%rip),%rax        # 217a0 <g_1206>
    981f:	48 8b 00             	mov    (%rax),%rax
    9822:	09 f1                	or     %esi,%ecx
    9824:	88 08                	mov    %cl,(%rax)
    9826:	0f b6 00             	movzbl (%rax),%eax
    9829:	0f be c0             	movsbl %al,%eax
    982c:	89 d6                	mov    %edx,%esi
    982e:	89 c7                	mov    %eax,%edi
    9830:	e8 35 ca ff ff       	callq  626a <safe_div_func_int8_t_s_s>
    9835:	8b 85 ac e5 ff ff    	mov    -0x1a54(%rbp),%eax
    983b:	0f be c0             	movsbl %al,%eax
    983e:	8b 95 dc e5 ff ff    	mov    -0x1a24(%rbp),%edx
    9844:	89 d6                	mov    %edx,%esi
    9846:	89 c7                	mov    %eax,%edi
    9848:	e8 a1 ca ff ff       	callq  62ee <safe_lshift_func_int8_t_s_u>
    984d:	8b 85 ac e5 ff ff    	mov    -0x1a54(%rbp),%eax
    9853:	c1 e8 1f             	shr    $0x1f,%eax
    9856:	0f b6 c0             	movzbl %al,%eax
    9859:	8b 95 dc e5 ff ff    	mov    -0x1a24(%rbp),%edx
    985f:	21 d0                	and    %edx,%eax
    9861:	98                   	cwtl   
    9862:	89 de                	mov    %ebx,%esi
    9864:	89 c7                	mov    %eax,%edi
    9866:	e8 8a cb ff ff       	callq  63f5 <safe_mul_func_int16_t_s_s>
    986b:	66 85 c0             	test   %ax,%ax
    986e:	74 07                	je     9877 <func_19+0x1fc6>
    9870:	ba 01 00 00 00       	mov    $0x1,%edx
    9875:	eb 05                	jmp    987c <func_19+0x1fcb>
    9877:	ba 00 00 00 00       	mov    $0x0,%edx
    987c:	48 8b 85 58 e6 ff ff 	mov    -0x19a8(%rbp),%rax
    9883:	8b 00                	mov    (%rax),%eax
    9885:	09 d0                	or     %edx,%eax
    9887:	3d bd 42 00 00       	cmp    $0x42bd,%eax
    988c:	0f 9f c0             	setg   %al
    988f:	0f b6 c0             	movzbl %al,%eax
    9892:	48 be eb 59 07 e6 c8 	movabs $0xc316dbc8e60759eb,%rsi
    9899:	db 16 c3 
    989c:	48 89 c7             	mov    %rax,%rdi
    989f:	e8 04 d0 ff ff       	callq  68a8 <safe_sub_func_int64_t_s_s>
    98a4:	48 85 c0             	test   %rax,%rax
    98a7:	74 20                	je     98c9 <func_19+0x2018>
    98a9:	83 bd ac e5 ff ff 00 	cmpl   $0x0,-0x1a54(%rbp)
    98b0:	0f 85 cc 00 00 00    	jne    9982 <func_19+0x20d1>
    98b6:	b8 15 00 00 00       	mov    $0x15,%eax
    98bb:	66 85 c0             	test   %ax,%ax
    98be:	0f 84 8e 00 00 00    	je     9952 <func_19+0x20a1>
    98c4:	e9 99 00 00 00       	jmpq   9962 <func_19+0x20b1>
    98c9:	48 c7 85 a0 e6 ff ff 	movq   $0x0,-0x1960(%rbp)
    98d0:	00 00 00 00 
    98d4:	c7 85 20 e6 ff ff 00 	movl   $0x0,-0x19e0(%rbp)
    98db:	00 00 00 
    98de:	48 8d 85 40 ea ff ff 	lea    -0x15c0(%rbp),%rax
    98e5:	48 8d 15 54 df 00 00 	lea    0xdf54(%rip),%rdx        # 17840 <g_1804+0x5e0>
    98ec:	b9 64 00 00 00       	mov    $0x64,%ecx
    98f1:	48 89 c7             	mov    %rax,%rdi
    98f4:	48 89 d6             	mov    %rdx,%rsi
    98f7:	f3 48 a5             	rep movsq %ds:(%rsi),%es:(%rdi)
    98fa:	83 ad c8 e5 ff ff 01 	subl   $0x1,-0x1a38(%rbp)
    9901:	48 8b 85 58 e6 ff ff 	mov    -0x19a8(%rbp),%rax
    9908:	8b 10                	mov    (%rax),%edx
    990a:	48 8d 05 6f 79 01 00 	lea    0x1796f(%rip),%rax        # 21280 <g_823>
    9911:	48 39 85 90 e6 ff ff 	cmp    %rax,-0x1970(%rbp)
    9918:	0f 95 c0             	setne  %al
    991b:	0f b6 c0             	movzbl %al,%eax
    991e:	09 c2                	or     %eax,%edx
    9920:	48 8b 85 58 e6 ff ff 	mov    -0x19a8(%rbp),%rax
    9927:	89 10                	mov    %edx,(%rax)
    9929:	48 8b 85 28 e9 ff ff 	mov    -0x16d8(%rbp),%rax
    9930:	48 85 c0             	test   %rax,%rax
    9933:	0f 95 c0             	setne  %al
    9936:	0f b6 d0             	movzbl %al,%edx
    9939:	48 8b 85 58 e6 ff ff 	mov    -0x19a8(%rbp),%rax
    9940:	89 10                	mov    %edx,(%rax)
    9942:	0f b6 85 b9 e5 ff ff 	movzbl -0x1a47(%rbp),%eax
    9949:	83 c0 01             	add    $0x1,%eax
    994c:	88 85 b9 e5 ff ff    	mov    %al,-0x1a47(%rbp)
    9952:	83 85 d4 e5 ff ff 01 	addl   $0x1,-0x1a2c(%rbp)
    9959:	83 bd ac e5 ff ff 00 	cmpl   $0x0,-0x1a54(%rbp)
    9960:	75 23                	jne    9985 <func_19+0x20d4>
    9962:	8b 05 a8 44 01 00    	mov    0x144a8(%rip),%eax        # 1de10 <g_1601>
    9968:	83 c0 01             	add    $0x1,%eax
    996b:	89 05 9f 44 01 00    	mov    %eax,0x1449f(%rip)        # 1de10 <g_1601>
    9971:	8b 05 99 44 01 00    	mov    0x14499(%rip),%eax        # 1de10 <g_1601>
    9977:	83 f8 02             	cmp    $0x2,%eax
    997a:	0f 86 2e fd ff ff    	jbe    96ae <func_19+0x1dfd>
    9980:	eb 04                	jmp    9986 <func_19+0x20d5>
    9982:	90                   	nop
    9983:	eb 01                	jmp    9986 <func_19+0x20d5>
    9985:	90                   	nop
    9986:	48 c7 05 7f 5b 01 00 	movq   $0x0,0x15b7f(%rip)        # 1f510 <g_2170>
    998d:	00 00 00 00 
    9991:	eb 45                	jmp    99d8 <func_19+0x2127>
    9993:	c7 85 c0 e5 ff ff 02 	movl   $0x2,-0x1a40(%rbp)
    999a:	00 00 00 
    999d:	eb 1d                	jmp    99bc <func_19+0x210b>
    999f:	48 8d 85 bc e5 ff ff 	lea    -0x1a44(%rbp),%rax
    99a6:	48 89 85 00 f3 ff ff 	mov    %rax,-0xd00(%rbp)
    99ad:	8b 85 c0 e5 ff ff    	mov    -0x1a40(%rbp),%eax
    99b3:	83 e8 01             	sub    $0x1,%eax
    99b6:	89 85 c0 e5 ff ff    	mov    %eax,-0x1a40(%rbp)
    99bc:	8b 85 c0 e5 ff ff    	mov    -0x1a40(%rbp),%eax
    99c2:	85 c0                	test   %eax,%eax
    99c4:	79 d9                	jns    999f <func_19+0x20ee>
    99c6:	48 8b 05 43 5b 01 00 	mov    0x15b43(%rip),%rax        # 1f510 <g_2170>
    99cd:	48 83 c0 01          	add    $0x1,%rax
    99d1:	48 89 05 38 5b 01 00 	mov    %rax,0x15b38(%rip)        # 1f510 <g_2170>
    99d8:	48 8b 05 31 5b 01 00 	mov    0x15b31(%rip),%rax        # 1f510 <g_2170>
    99df:	48 83 f8 02          	cmp    $0x2,%rax
    99e3:	7e ae                	jle    9993 <func_19+0x20e2>
    99e5:	8b 05 0d 44 01 00    	mov    0x1440d(%rip),%eax        # 1ddf8 <g_1059>
    99eb:	83 c0 01             	add    $0x1,%eax
    99ee:	89 05 04 44 01 00    	mov    %eax,0x14404(%rip)        # 1ddf8 <g_1059>
    99f4:	8b 05 fe 43 01 00    	mov    0x143fe(%rip),%eax        # 1ddf8 <g_1059>
    99fa:	83 f8 02             	cmp    $0x2,%eax
    99fd:	0f 86 f2 f8 ff ff    	jbe    92f5 <func_19+0x1a44>
    9a03:	48 8b 05 1e 26 01 00 	mov    0x1261e(%rip),%rax        # 1c028 <g_52>
    9a0a:	48 83 c0 01          	add    $0x1,%rax
    9a0e:	48 89 05 13 26 01 00 	mov    %rax,0x12613(%rip)        # 1c028 <g_52>
    9a15:	48 8b 05 0c 26 01 00 	mov    0x1260c(%rip),%rax        # 1c028 <g_52>
    9a1c:	48 83 f8 02          	cmp    $0x2,%rax
    9a20:	0f 8e da f7 ff ff    	jle    9200 <func_19+0x194f>
    9a26:	8b 85 ac e5 ff ff    	mov    -0x1a54(%rbp),%eax
    9a2c:	48 8b 5d c8          	mov    -0x38(%rbp),%rbx
    9a30:	64 48 33 1c 25 28 00 	xor    %fs:0x28,%rbx
    9a37:	00 00 
    9a39:	74 05                	je     9a40 <func_19+0x218f>
    9a3b:	e8 30 c6 ff ff       	callq  6070 <__stack_chk_fail@plt>
    9a40:	48 81 c4 38 1a 00 00 	add    $0x1a38,%rsp
    9a47:	5b                   	pop    %rbx
    9a48:	41 5c                	pop    %r12
    9a4a:	41 5d                	pop    %r13
    9a4c:	41 5e                	pop    %r14
    9a4e:	41 5f                	pop    %r15
    9a50:	5d                   	pop    %rbp
    9a51:	c3                   	retq   

0000000000009a52 <func_36>:
    9a52:	f3 0f 1e fa          	endbr64 
    9a56:	55                   	push   %rbp
    9a57:	48 89 e5             	mov    %rsp,%rbp
    9a5a:	48 81 ec d0 07 00 00 	sub    $0x7d0,%rsp
    9a61:	89 bd 4c f8 ff ff    	mov    %edi,-0x7b4(%rbp)
    9a67:	89 b5 48 f8 ff ff    	mov    %esi,-0x7b8(%rbp)
    9a6d:	89 95 44 f8 ff ff    	mov    %edx,-0x7bc(%rbp)
    9a73:	89 c8                	mov    %ecx,%eax
    9a75:	44 89 c2             	mov    %r8d,%edx
    9a78:	66 89 85 40 f8 ff ff 	mov    %ax,-0x7c0(%rbp)
    9a7f:	89 d0                	mov    %edx,%eax
    9a81:	88 85 3c f8 ff ff    	mov    %al,-0x7c4(%rbp)
    9a87:	64 48 8b 04 25 28 00 	mov    %fs:0x28,%rax
    9a8e:	00 00 
    9a90:	48 89 45 f8          	mov    %rax,-0x8(%rbp)
    9a94:	31 c0                	xor    %eax,%eax
    9a96:	48 8d 05 e3 59 01 00 	lea    0x159e3(%rip),%rax        # 1f480 <g_2022>
    9a9d:	48 89 85 68 f8 ff ff 	mov    %rax,-0x798(%rbp)
    9aa4:	48 c7 85 80 f8 ff ff 	movq   $0x0,-0x780(%rbp)
    9aab:	00 00 00 00 
    9aaf:	48 c7 85 88 f8 ff ff 	movq   $0x0,-0x778(%rbp)
    9ab6:	00 00 00 00 
    9aba:	48 c7 85 90 f8 ff ff 	movq   $0x0,-0x770(%rbp)
    9ac1:	00 00 00 00 
    9ac5:	48 c7 85 98 f8 ff ff 	movq   $0x0,-0x768(%rbp)
    9acc:	00 00 00 00 
    9ad0:	48 c7 85 a0 f8 ff ff 	movq   $0x0,-0x760(%rbp)
    9ad7:	00 00 00 00 
    9adb:	48 c7 85 a8 f8 ff ff 	movq   $0x0,-0x758(%rbp)
    9ae2:	00 00 00 00 
    9ae6:	48 c7 85 b0 f8 ff ff 	movq   $0x0,-0x750(%rbp)
    9aed:	00 00 00 00 
    9af1:	48 c7 85 b8 f8 ff ff 	movq   $0x0,-0x748(%rbp)
    9af8:	00 00 00 00 
    9afc:	c7 85 60 f8 ff ff 56 	movl   $0xcc3a4c56,-0x7a0(%rbp)
    9b03:	4c 3a cc 
    9b06:	48 8d 85 40 fb ff ff 	lea    -0x4c0(%rbp),%rax
    9b0d:	48 8d 15 ac 64 01 00 	lea    0x164ac(%rip),%rdx        # 1ffc0 <g_2170+0xab0>
    9b14:	b9 96 00 00 00       	mov    $0x96,%ecx
    9b19:	48 89 c7             	mov    %rax,%rdi
    9b1c:	48 89 d6             	mov    %rdx,%rsi
    9b1f:	f3 48 a5             	rep movsq %ds:(%rsi),%es:(%rdi)
    9b22:	48 8d 05 77 7e 01 00 	lea    0x17e77(%rip),%rax        # 219a0 <g_1234>
    9b29:	48 89 85 70 f8 ff ff 	mov    %rax,-0x790(%rbp)
    9b30:	66 c7 85 5e f8 ff ff 	movw   $0x837b,-0x7a2(%rbp)
    9b37:	7b 83 
    9b39:	48 8d 85 b0 f9 ff ff 	lea    -0x650(%rbp),%rax
    9b40:	48 8d 15 19 e0 00 00 	lea    0xe019(%rip),%rdx        # 17b60 <g_1804+0x900>
    9b47:	b9 32 00 00 00       	mov    $0x32,%ecx
    9b4c:	48 89 c7             	mov    %rax,%rdi
    9b4f:	48 89 d6             	mov    %rdx,%rsi
    9b52:	f3 48 a5             	rep movsq %ds:(%rsi),%es:(%rdi)
    9b55:	48 8d 05 e8 24 01 00 	lea    0x124e8(%rip),%rax        # 1c044 <g_57+0x14>
    9b5c:	48 89 85 78 f8 ff ff 	mov    %rax,-0x788(%rbp)
    9b63:	48 8d 85 b0 f9 ff ff 	lea    -0x650(%rbp),%rax
    9b6a:	48 05 78 01 00 00    	add    $0x178,%rax
    9b70:	48 89 85 c0 f8 ff ff 	mov    %rax,-0x740(%rbp)
    9b77:	48 8d 85 b0 f9 ff ff 	lea    -0x650(%rbp),%rax
    9b7e:	48 83 c0 50          	add    $0x50,%rax
    9b82:	48 89 85 c8 f8 ff ff 	mov    %rax,-0x738(%rbp)
    9b89:	48 8d 05 0c 25 01 00 	lea    0x1250c(%rip),%rax        # 1c09c <g_266>
    9b90:	48 89 85 d0 f8 ff ff 	mov    %rax,-0x730(%rbp)
    9b97:	48 8d 85 b0 f9 ff ff 	lea    -0x650(%rbp),%rax
    9b9e:	48 05 78 01 00 00    	add    $0x178,%rax
    9ba4:	48 89 85 d8 f8 ff ff 	mov    %rax,-0x728(%rbp)
    9bab:	48 c7 85 e0 f8 ff ff 	movq   $0x0,-0x720(%rbp)
    9bb2:	00 00 00 00 
    9bb6:	48 8d 85 b0 f9 ff ff 	lea    -0x650(%rbp),%rax
    9bbd:	48 05 78 01 00 00    	add    $0x178,%rax
    9bc3:	48 89 85 e8 f8 ff ff 	mov    %rax,-0x718(%rbp)
    9bca:	48 8d 05 cb 24 01 00 	lea    0x124cb(%rip),%rax        # 1c09c <g_266>
    9bd1:	48 89 85 f0 f8 ff ff 	mov    %rax,-0x710(%rbp)
    9bd8:	48 8d 85 b0 f9 ff ff 	lea    -0x650(%rbp),%rax
    9bdf:	48 83 c0 50          	add    $0x50,%rax
    9be3:	48 89 85 f8 f8 ff ff 	mov    %rax,-0x708(%rbp)
    9bea:	48 8d 85 b0 f9 ff ff 	lea    -0x650(%rbp),%rax
    9bf1:	48 05 78 01 00 00    	add    $0x178,%rax
    9bf7:	48 89 85 00 f9 ff ff 	mov    %rax,-0x700(%rbp)
    9bfe:	48 8d 05 97 24 01 00 	lea    0x12497(%rip),%rax        # 1c09c <g_266>
    9c05:	48 89 85 08 f9 ff ff 	mov    %rax,-0x6f8(%rbp)
    9c0c:	48 8d 05 21 24 01 00 	lea    0x12421(%rip),%rax        # 1c034 <g_57+0x4>
    9c13:	48 89 85 10 f9 ff ff 	mov    %rax,-0x6f0(%rbp)
    9c1a:	48 8d 85 b0 f9 ff ff 	lea    -0x650(%rbp),%rax
    9c21:	48 83 c0 50          	add    $0x50,%rax
    9c25:	48 89 85 18 f9 ff ff 	mov    %rax,-0x6e8(%rbp)
    9c2c:	48 c7 85 20 f9 ff ff 	movq   $0x0,-0x6e0(%rbp)
    9c33:	00 00 00 00 
    9c37:	48 8d 05 f6 23 01 00 	lea    0x123f6(%rip),%rax        # 1c034 <g_57+0x4>
    9c3e:	48 89 85 28 f9 ff ff 	mov    %rax,-0x6d8(%rbp)
    9c45:	48 c7 85 30 f9 ff ff 	movq   $0x0,-0x6d0(%rbp)
    9c4c:	00 00 00 00 
    9c50:	48 8d 85 b0 f9 ff ff 	lea    -0x650(%rbp),%rax
    9c57:	48 05 78 01 00 00    	add    $0x178,%rax
    9c5d:	48 89 85 38 f9 ff ff 	mov    %rax,-0x6c8(%rbp)
    9c64:	48 8d 85 b0 f9 ff ff 	lea    -0x650(%rbp),%rax
    9c6b:	48 83 c0 50          	add    $0x50,%rax
    9c6f:	48 89 85 40 f9 ff ff 	mov    %rax,-0x6c0(%rbp)
    9c76:	48 8d 85 b0 f9 ff ff 	lea    -0x650(%rbp),%rax
    9c7d:	48 83 c0 50          	add    $0x50,%rax
    9c81:	48 89 85 48 f9 ff ff 	mov    %rax,-0x6b8(%rbp)
    9c88:	48 8d 85 b0 f9 ff ff 	lea    -0x650(%rbp),%rax
    9c8f:	48 05 78 01 00 00    	add    $0x178,%rax
    9c95:	48 89 85 50 f9 ff ff 	mov    %rax,-0x6b0(%rbp)
    9c9c:	48 c7 85 58 f9 ff ff 	movq   $0x0,-0x6a8(%rbp)
    9ca3:	00 00 00 00 
    9ca7:	48 8d 05 86 23 01 00 	lea    0x12386(%rip),%rax        # 1c034 <g_57+0x4>
    9cae:	48 89 85 60 f9 ff ff 	mov    %rax,-0x6a0(%rbp)
    9cb5:	48 8d 05 e0 23 01 00 	lea    0x123e0(%rip),%rax        # 1c09c <g_266>
    9cbc:	48 89 85 68 f9 ff ff 	mov    %rax,-0x698(%rbp)
    9cc3:	48 8d 05 d2 23 01 00 	lea    0x123d2(%rip),%rax        # 1c09c <g_266>
    9cca:	48 89 85 70 f9 ff ff 	mov    %rax,-0x690(%rbp)
    9cd1:	48 8d 05 5c 23 01 00 	lea    0x1235c(%rip),%rax        # 1c034 <g_57+0x4>
    9cd8:	48 89 85 78 f9 ff ff 	mov    %rax,-0x688(%rbp)
    9cdf:	48 8d 05 b6 23 01 00 	lea    0x123b6(%rip),%rax        # 1c09c <g_266>
    9ce6:	48 89 85 80 f9 ff ff 	mov    %rax,-0x680(%rbp)
    9ced:	48 8d 85 b0 f9 ff ff 	lea    -0x650(%rbp),%rax
    9cf4:	48 05 78 01 00 00    	add    $0x178,%rax
    9cfa:	48 89 85 88 f9 ff ff 	mov    %rax,-0x678(%rbp)
    9d01:	48 8d 85 b0 f9 ff ff 	lea    -0x650(%rbp),%rax
    9d08:	48 83 c0 50          	add    $0x50,%rax
    9d0c:	48 89 85 90 f9 ff ff 	mov    %rax,-0x670(%rbp)
    9d13:	48 8d 05 82 23 01 00 	lea    0x12382(%rip),%rax        # 1c09c <g_266>
    9d1a:	48 89 85 98 f9 ff ff 	mov    %rax,-0x668(%rbp)
    9d21:	48 8d 85 b0 f9 ff ff 	lea    -0x650(%rbp),%rax
    9d28:	48 05 78 01 00 00    	add    $0x178,%rax
    9d2e:	48 89 85 a0 f9 ff ff 	mov    %rax,-0x660(%rbp)
    9d35:	48 c7 85 a8 f9 ff ff 	movq   $0x0,-0x658(%rbp)
    9d3c:	00 00 00 00 
    9d40:	c7 85 64 f8 ff ff ff 	movl   $0xffffffff,-0x79c(%rbp)
    9d47:	ff ff ff 
    9d4a:	0f b6 05 40 29 01 00 	movzbl 0x12940(%rip),%eax        # 1c691 <g_604+0x11>
    9d51:	83 e0 0f             	and    $0xf,%eax
    9d54:	84 c0                	test   %al,%al
    9d56:	0f 85 a9 00 00 00    	jne    9e05 <func_36+0x3b3>
    9d5c:	48 8b 05 95 7c 01 00 	mov    0x17c95(%rip),%rax        # 219f8 <g_1477>
    9d63:	48 8b 00             	mov    (%rax),%rax
    9d66:	0f b6 00             	movzbl (%rax),%eax
    9d69:	0f b6 d0             	movzbl %al,%edx
    9d6c:	0f b6 05 fd 28 01 00 	movzbl 0x128fd(%rip),%eax        # 1c670 <g_548>
    9d73:	8d 48 01             	lea    0x1(%rax),%ecx
    9d76:	88 0d f4 28 01 00    	mov    %cl,0x128f4(%rip)        # 1c670 <g_548>
    9d7c:	0f b6 0d 05 81 01 00 	movzbl 0x18105(%rip),%ecx        # 21e88 <g_136>
    9d83:	21 c8                	and    %ecx,%eax
    9d85:	88 05 fd 80 01 00    	mov    %al,0x180fd(%rip)        # 21e88 <g_136>
    9d8b:	0f b6 05 f6 80 01 00 	movzbl 0x180f6(%rip),%eax        # 21e88 <g_136>
    9d92:	0f b6 c0             	movzbl %al,%eax
    9d95:	89 d6                	mov    %edx,%esi
    9d97:	89 c7                	mov    %eax,%edi
    9d99:	e8 bc cd ff ff       	callq  6b5a <safe_add_func_uint8_t_u_u>
    9d9e:	0f b6 d0             	movzbl %al,%edx
    9da1:	8b 85 60 f8 ff ff    	mov    -0x7a0(%rbp),%eax
    9da7:	98                   	cwtl   
    9da8:	89 d6                	mov    %edx,%esi
    9daa:	89 c7                	mov    %eax,%edi
    9dac:	e8 e1 c6 ff ff       	callq  6492 <safe_lshift_func_int16_t_s_s>
    9db1:	48 8d 05 e8 7b 01 00 	lea    0x17be8(%rip),%rax        # 219a0 <g_1234>
    9db8:	48 39 85 70 f8 ff ff 	cmp    %rax,-0x790(%rbp)
    9dbf:	c7 85 60 f8 ff ff 00 	movl   $0x0,-0x7a0(%rbp)
    9dc6:	00 00 00 
    9dc9:	be 31 00 00 00       	mov    $0x31,%esi
    9dce:	bf 01 00 00 00       	mov    $0x1,%edi
    9dd3:	e8 d6 cd ff ff       	callq  6bae <safe_mod_func_uint8_t_u_u>
    9dd8:	48 8b 85 a0 f8 ff ff 	mov    -0x760(%rbp),%rax
    9ddf:	48 8d 15 9a 74 01 00 	lea    0x1749a(%rip),%rdx        # 21280 <g_823>
    9de6:	48 39 d0             	cmp    %rdx,%rax
    9de9:	0f 95 c0             	setne  %al
    9dec:	0f b6 c0             	movzbl %al,%eax
    9def:	be 01 00 00 00       	mov    $0x1,%esi
    9df4:	89 c7                	mov    %eax,%edi
    9df6:	e8 42 cf ff ff       	callq  6d3d <safe_mul_func_uint16_t_u_u>
    9dfb:	66 83 bd 5e f8 ff ff 	cmpw   $0x0,-0x7a2(%rbp)
    9e02:	00 
    9e03:	74 07                	je     9e0c <func_36+0x3ba>
    9e05:	b8 01 00 00 00       	mov    $0x1,%eax
    9e0a:	eb 05                	jmp    9e11 <func_36+0x3bf>
    9e0c:	b8 00 00 00 00       	mov    $0x0,%eax
    9e11:	89 85 28 fb ff ff    	mov    %eax,-0x4d8(%rbp)
    9e17:	48 8b 85 78 f8 ff ff 	mov    -0x788(%rbp),%rax
    9e1e:	c7 00 01 00 00 00    	movl   $0x1,(%rax)
    9e24:	83 85 64 f8 ff ff 01 	addl   $0x1,-0x79c(%rbp)
    9e2b:	48 8b 85 78 f8 ff ff 	mov    -0x788(%rbp),%rax
    9e32:	8b 10                	mov    (%rax),%edx
    9e34:	0f b7 85 48 f8 ff ff 	movzwl -0x7b8(%rbp),%eax
    9e3b:	c1 e0 04             	shl    $0x4,%eax
    9e3e:	66 c1 f8 0a          	sar    $0xa,%ax
    9e42:	0f be c0             	movsbl %al,%eax
    9e45:	31 c2                	xor    %eax,%edx
    9e47:	48 8b 85 78 f8 ff ff 	mov    -0x788(%rbp),%rax
    9e4e:	89 10                	mov    %edx,(%rax)
    9e50:	0f b6 85 3c f8 ff ff 	movzbl -0x7c4(%rbp),%eax
    9e57:	48 8b 4d f8          	mov    -0x8(%rbp),%rcx
    9e5b:	64 48 33 0c 25 28 00 	xor    %fs:0x28,%rcx
    9e62:	00 00 
    9e64:	74 05                	je     9e6b <func_36+0x419>
    9e66:	e8 05 c2 ff ff       	callq  6070 <__stack_chk_fail@plt>
    9e6b:	c9                   	leaveq 
    9e6c:	c3                   	retq   

0000000000009e6d <func_42>:
    9e6d:	f3 0f 1e fa          	endbr64 
    9e71:	55                   	push   %rbp
    9e72:	48 89 e5             	mov    %rsp,%rbp
    9e75:	41 57                	push   %r15
    9e77:	41 56                	push   %r14
    9e79:	41 55                	push   %r13
    9e7b:	41 54                	push   %r12
    9e7d:	53                   	push   %rbx
    9e7e:	48 81 ec 00 10 00 00 	sub    $0x1000,%rsp
    9e85:	48 83 0c 24 00       	orq    $0x0,(%rsp)
    9e8a:	48 81 ec 00 10 00 00 	sub    $0x1000,%rsp
    9e91:	48 83 0c 24 00       	orq    $0x0,(%rsp)
    9e96:	48 81 ec 98 00 00 00 	sub    $0x98,%rsp
    9e9d:	89 f8                	mov    %edi,%eax
    9e9f:	89 b5 68 df ff ff    	mov    %esi,-0x2098(%rbp)
    9ea5:	88 85 6c df ff ff    	mov    %al,-0x2094(%rbp)
    9eab:	64 48 8b 04 25 28 00 	mov    %fs:0x28,%rax
    9eb2:	00 00 
    9eb4:	48 89 45 c8          	mov    %rax,-0x38(%rbp)
    9eb8:	31 c0                	xor    %eax,%eax
    9eba:	66 c7 85 7a df ff ff 	movw   $0x2619,-0x2086(%rbp)
    9ec1:	19 26 
    9ec3:	48 8d 05 5e 21 01 00 	lea    0x1215e(%rip),%rax        # 1c028 <g_52>
    9eca:	48 89 85 70 e0 ff ff 	mov    %rax,-0x1f90(%rbp)
    9ed1:	48 c7 85 90 e0 ff ff 	movq   $0x0,-0x1f70(%rbp)
    9ed8:	00 00 00 00 
    9edc:	48 8d 05 61 21 01 00 	lea    0x12161(%rip),%rax        # 1c044 <g_57+0x14>
    9ee3:	48 89 85 98 e0 ff ff 	mov    %rax,-0x1f68(%rbp)
    9eea:	48 8d 05 53 21 01 00 	lea    0x12153(%rip),%rax        # 1c044 <g_57+0x14>
    9ef1:	48 89 85 a0 e0 ff ff 	mov    %rax,-0x1f60(%rbp)
    9ef8:	c7 85 88 df ff ff 01 	movl   $0x1,-0x2078(%rbp)
    9eff:	00 00 00 
    9f02:	c7 85 8c df ff ff fb 	movl   $0xfffffffb,-0x2074(%rbp)
    9f09:	ff ff ff 
    9f0c:	48 8d 05 29 21 01 00 	lea    0x12129(%rip),%rax        # 1c03c <g_57+0xc>
    9f13:	48 89 85 a8 e0 ff ff 	mov    %rax,-0x1f58(%rbp)
    9f1a:	48 8d 85 8c df ff ff 	lea    -0x2074(%rbp),%rax
    9f21:	48 89 85 30 e5 ff ff 	mov    %rax,-0x1ad0(%rbp)
    9f28:	48 8d 05 19 21 01 00 	lea    0x12119(%rip),%rax        # 1c048 <g_57+0x18>
    9f2f:	48 89 85 38 e5 ff ff 	mov    %rax,-0x1ac8(%rbp)
    9f36:	48 8d 85 8c df ff ff 	lea    -0x2074(%rbp),%rax
    9f3d:	48 89 85 40 e5 ff ff 	mov    %rax,-0x1ac0(%rbp)
    9f44:	48 8d 05 f9 20 01 00 	lea    0x120f9(%rip),%rax        # 1c044 <g_57+0x14>
    9f4b:	48 89 85 48 e5 ff ff 	mov    %rax,-0x1ab8(%rbp)
    9f52:	48 c7 85 50 e5 ff ff 	movq   $0x0,-0x1ab0(%rbp)
    9f59:	00 00 00 00 
    9f5d:	48 8d 05 e4 20 01 00 	lea    0x120e4(%rip),%rax        # 1c048 <g_57+0x18>
    9f64:	48 89 85 58 e5 ff ff 	mov    %rax,-0x1aa8(%rbp)
    9f6b:	48 8d 85 88 df ff ff 	lea    -0x2078(%rbp),%rax
    9f72:	48 89 85 60 e5 ff ff 	mov    %rax,-0x1aa0(%rbp)
    9f79:	48 8d 05 c8 20 01 00 	lea    0x120c8(%rip),%rax        # 1c048 <g_57+0x18>
    9f80:	48 89 85 68 e5 ff ff 	mov    %rax,-0x1a98(%rbp)
    9f87:	48 c7 85 70 e5 ff ff 	movq   $0x0,-0x1a90(%rbp)
    9f8e:	00 00 00 00 
    9f92:	48 8d 05 ab 20 01 00 	lea    0x120ab(%rip),%rax        # 1c044 <g_57+0x14>
    9f99:	48 89 85 78 e5 ff ff 	mov    %rax,-0x1a88(%rbp)
    9fa0:	48 8d 85 8c df ff ff 	lea    -0x2074(%rbp),%rax
    9fa7:	48 89 85 80 e5 ff ff 	mov    %rax,-0x1a80(%rbp)
    9fae:	48 8d 05 93 20 01 00 	lea    0x12093(%rip),%rax        # 1c048 <g_57+0x18>
    9fb5:	48 89 85 88 e5 ff ff 	mov    %rax,-0x1a78(%rbp)
    9fbc:	48 8d 85 8c df ff ff 	lea    -0x2074(%rbp),%rax
    9fc3:	48 89 85 90 e5 ff ff 	mov    %rax,-0x1a70(%rbp)
    9fca:	48 8d 05 77 20 01 00 	lea    0x12077(%rip),%rax        # 1c048 <g_57+0x18>
    9fd1:	48 89 85 98 e5 ff ff 	mov    %rax,-0x1a68(%rbp)
    9fd8:	48 8d 85 8c df ff ff 	lea    -0x2074(%rbp),%rax
    9fdf:	48 89 85 a0 e5 ff ff 	mov    %rax,-0x1a60(%rbp)
    9fe6:	48 8d 05 57 20 01 00 	lea    0x12057(%rip),%rax        # 1c044 <g_57+0x14>
    9fed:	48 89 85 a8 e5 ff ff 	mov    %rax,-0x1a58(%rbp)
    9ff4:	48 c7 85 b0 e5 ff ff 	movq   $0x0,-0x1a50(%rbp)
    9ffb:	00 00 00 00 
    9fff:	48 8d 05 42 20 01 00 	lea    0x12042(%rip),%rax        # 1c048 <g_57+0x18>
    a006:	48 89 85 b8 e5 ff ff 	mov    %rax,-0x1a48(%rbp)
    a00d:	48 8d 85 88 df ff ff 	lea    -0x2078(%rbp),%rax
    a014:	48 89 85 c0 e5 ff ff 	mov    %rax,-0x1a40(%rbp)
    a01b:	48 8d 05 26 20 01 00 	lea    0x12026(%rip),%rax        # 1c048 <g_57+0x18>
    a022:	48 89 85 c8 e5 ff ff 	mov    %rax,-0x1a38(%rbp)
    a029:	48 c7 85 d0 e5 ff ff 	movq   $0x0,-0x1a30(%rbp)
    a030:	00 00 00 00 
    a034:	48 8d 05 09 20 01 00 	lea    0x12009(%rip),%rax        # 1c044 <g_57+0x14>
    a03b:	48 89 85 d8 e5 ff ff 	mov    %rax,-0x1a28(%rbp)
    a042:	48 8d 85 8c df ff ff 	lea    -0x2074(%rbp),%rax
    a049:	48 89 85 e0 e5 ff ff 	mov    %rax,-0x1a20(%rbp)
    a050:	48 8d 05 f1 1f 01 00 	lea    0x11ff1(%rip),%rax        # 1c048 <g_57+0x18>
    a057:	48 89 85 e8 e5 ff ff 	mov    %rax,-0x1a18(%rbp)
    a05e:	48 8d 85 8c df ff ff 	lea    -0x2074(%rbp),%rax
    a065:	48 89 85 f0 e5 ff ff 	mov    %rax,-0x1a10(%rbp)
    a06c:	48 8d 05 d5 1f 01 00 	lea    0x11fd5(%rip),%rax        # 1c048 <g_57+0x18>
    a073:	48 89 85 f8 e5 ff ff 	mov    %rax,-0x1a08(%rbp)
    a07a:	48 8d 85 8c df ff ff 	lea    -0x2074(%rbp),%rax
    a081:	48 89 85 00 e6 ff ff 	mov    %rax,-0x1a00(%rbp)
    a088:	48 8d 05 b5 1f 01 00 	lea    0x11fb5(%rip),%rax        # 1c044 <g_57+0x14>
    a08f:	48 89 85 08 e6 ff ff 	mov    %rax,-0x19f8(%rbp)
    a096:	48 c7 85 10 e6 ff ff 	movq   $0x0,-0x19f0(%rbp)
    a09d:	00 00 00 00 
    a0a1:	48 8d 05 a0 1f 01 00 	lea    0x11fa0(%rip),%rax        # 1c048 <g_57+0x18>
    a0a8:	48 89 85 18 e6 ff ff 	mov    %rax,-0x19e8(%rbp)
    a0af:	48 8d 85 88 df ff ff 	lea    -0x2078(%rbp),%rax
    a0b6:	48 89 85 20 e6 ff ff 	mov    %rax,-0x19e0(%rbp)
    a0bd:	48 8d 05 84 1f 01 00 	lea    0x11f84(%rip),%rax        # 1c048 <g_57+0x18>
    a0c4:	48 89 85 28 e6 ff ff 	mov    %rax,-0x19d8(%rbp)
    a0cb:	48 c7 85 30 e6 ff ff 	movq   $0x0,-0x19d0(%rbp)
    a0d2:	00 00 00 00 
    a0d6:	48 8d 05 67 1f 01 00 	lea    0x11f67(%rip),%rax        # 1c044 <g_57+0x14>
    a0dd:	48 89 85 38 e6 ff ff 	mov    %rax,-0x19c8(%rbp)
    a0e4:	48 8d 85 8c df ff ff 	lea    -0x2074(%rbp),%rax
    a0eb:	48 89 85 40 e6 ff ff 	mov    %rax,-0x19c0(%rbp)
    a0f2:	48 8d 05 4f 1f 01 00 	lea    0x11f4f(%rip),%rax        # 1c048 <g_57+0x18>
    a0f9:	48 89 85 48 e6 ff ff 	mov    %rax,-0x19b8(%rbp)
    a100:	48 8d 85 8c df ff ff 	lea    -0x2074(%rbp),%rax
    a107:	48 89 85 50 e6 ff ff 	mov    %rax,-0x19b0(%rbp)
    a10e:	48 8d 05 33 1f 01 00 	lea    0x11f33(%rip),%rax        # 1c048 <g_57+0x18>
    a115:	48 89 85 58 e6 ff ff 	mov    %rax,-0x19a8(%rbp)
    a11c:	48 8d 85 8c df ff ff 	lea    -0x2074(%rbp),%rax
    a123:	48 89 85 60 e6 ff ff 	mov    %rax,-0x19a0(%rbp)
    a12a:	48 8d 05 13 1f 01 00 	lea    0x11f13(%rip),%rax        # 1c044 <g_57+0x14>
    a131:	48 89 85 68 e6 ff ff 	mov    %rax,-0x1998(%rbp)
    a138:	48 c7 85 70 e6 ff ff 	movq   $0x0,-0x1990(%rbp)
    a13f:	00 00 00 00 
    a143:	48 8d 05 fe 1e 01 00 	lea    0x11efe(%rip),%rax        # 1c048 <g_57+0x18>
    a14a:	48 89 85 78 e6 ff ff 	mov    %rax,-0x1988(%rbp)
    a151:	48 8d 85 88 df ff ff 	lea    -0x2078(%rbp),%rax
    a158:	48 89 85 80 e6 ff ff 	mov    %rax,-0x1980(%rbp)
    a15f:	48 8d 05 e2 1e 01 00 	lea    0x11ee2(%rip),%rax        # 1c048 <g_57+0x18>
    a166:	48 89 85 88 e6 ff ff 	mov    %rax,-0x1978(%rbp)
    a16d:	48 c7 85 90 e6 ff ff 	movq   $0x0,-0x1970(%rbp)
    a174:	00 00 00 00 
    a178:	48 8d 05 c5 1e 01 00 	lea    0x11ec5(%rip),%rax        # 1c044 <g_57+0x14>
    a17f:	48 89 85 98 e6 ff ff 	mov    %rax,-0x1968(%rbp)
    a186:	48 8d 85 8c df ff ff 	lea    -0x2074(%rbp),%rax
    a18d:	48 89 85 a0 e6 ff ff 	mov    %rax,-0x1960(%rbp)
    a194:	48 8d 05 ad 1e 01 00 	lea    0x11ead(%rip),%rax        # 1c048 <g_57+0x18>
    a19b:	48 89 85 a8 e6 ff ff 	mov    %rax,-0x1958(%rbp)
    a1a2:	48 8d 85 8c df ff ff 	lea    -0x2074(%rbp),%rax
    a1a9:	48 89 85 b0 e6 ff ff 	mov    %rax,-0x1950(%rbp)
    a1b0:	48 8d 05 91 1e 01 00 	lea    0x11e91(%rip),%rax        # 1c048 <g_57+0x18>
    a1b7:	48 89 85 b8 e6 ff ff 	mov    %rax,-0x1948(%rbp)
    a1be:	48 8d 85 8c df ff ff 	lea    -0x2074(%rbp),%rax
    a1c5:	48 89 85 c0 e6 ff ff 	mov    %rax,-0x1940(%rbp)
    a1cc:	48 8d 05 71 1e 01 00 	lea    0x11e71(%rip),%rax        # 1c044 <g_57+0x14>
    a1d3:	48 89 85 c8 e6 ff ff 	mov    %rax,-0x1938(%rbp)
    a1da:	48 c7 85 d0 e6 ff ff 	movq   $0x0,-0x1930(%rbp)
    a1e1:	00 00 00 00 
    a1e5:	48 8d 05 5c 1e 01 00 	lea    0x11e5c(%rip),%rax        # 1c048 <g_57+0x18>
    a1ec:	48 89 85 d8 e6 ff ff 	mov    %rax,-0x1928(%rbp)
    a1f3:	48 8d 85 88 df ff ff 	lea    -0x2078(%rbp),%rax
    a1fa:	48 89 85 e0 e6 ff ff 	mov    %rax,-0x1920(%rbp)
    a201:	48 8d 05 40 1e 01 00 	lea    0x11e40(%rip),%rax        # 1c048 <g_57+0x18>
    a208:	48 89 85 e8 e6 ff ff 	mov    %rax,-0x1918(%rbp)
    a20f:	c7 85 90 df ff ff 58 	movl   $0x28e28b58,-0x2070(%rbp)
    a216:	8b e2 28 
    a219:	c6 85 75 df ff ff ff 	movb   $0xff,-0x208b(%rbp)
    a220:	66 c7 85 7c df ff ff 	movw   $0x658e,-0x2084(%rbp)
    a227:	8e 65 
    a229:	c7 85 cc df ff ff fb 	movl   $0x2ac288fb,-0x2034(%rbp)
    a230:	88 c2 2a 
    a233:	c7 85 94 df ff ff 07 	movl   $0x7,-0x206c(%rbp)
    a23a:	00 00 00 
    a23d:	c7 85 d0 df ff ff 01 	movl   $0x1,-0x2030(%rbp)
    a244:	00 00 00 
    a247:	c7 85 98 df ff ff ff 	movl   $0xffffffff,-0x2068(%rbp)
    a24e:	ff ff ff 
    a251:	c7 85 d4 df ff ff 06 	movl   $0x6,-0x202c(%rbp)
    a258:	00 00 00 
    a25b:	66 c7 85 7e df ff ff 	movw   $0xc0e0,-0x2082(%rbp)
    a262:	e0 c0 
    a264:	c6 85 74 df ff ff 23 	movb   $0x23,-0x208c(%rbp)
    a26b:	66 c7 85 80 df ff ff 	movw   $0x0,-0x2080(%rbp)
    a272:	00 00 
    a274:	48 c7 85 b0 e0 ff ff 	movq   $0x0,-0x1f50(%rbp)
    a27b:	00 00 00 00 
    a27f:	66 c7 85 10 e3 ff ff 	movw   $0xf2d7,-0x1cf0(%rbp)
    a286:	d7 f2 
    a288:	66 c7 85 12 e3 ff ff 	movw   $0x0,-0x1cee(%rbp)
    a28f:	00 00 
    a291:	66 c7 85 14 e3 ff ff 	movw   $0x5ed6,-0x1cec(%rbp)
    a298:	d6 5e 
    a29a:	66 c7 85 16 e3 ff ff 	movw   $0x1,-0x1cea(%rbp)
    a2a1:	01 00 
    a2a3:	66 c7 85 18 e3 ff ff 	movw   $0x188c,-0x1ce8(%rbp)
    a2aa:	8c 18 
    a2ac:	66 c7 85 1a e3 ff ff 	movw   $0x1,-0x1ce6(%rbp)
    a2b3:	01 00 
    a2b5:	66 c7 85 1c e3 ff ff 	movw   $0x2,-0x1ce4(%rbp)
    a2bc:	02 00 
    a2be:	66 c7 85 1e e3 ff ff 	movw   $0x0,-0x1ce2(%rbp)
    a2c5:	00 00 
    a2c7:	66 c7 85 20 e3 ff ff 	movw   $0x1,-0x1ce0(%rbp)
    a2ce:	01 00 
    a2d0:	66 c7 85 22 e3 ff ff 	movw   $0x2,-0x1cde(%rbp)
    a2d7:	02 00 
    a2d9:	66 c7 85 24 e3 ff ff 	movw   $0x0,-0x1cdc(%rbp)
    a2e0:	00 00 
    a2e2:	66 c7 85 26 e3 ff ff 	movw   $0x0,-0x1cda(%rbp)
    a2e9:	00 00 
    a2eb:	66 c7 85 28 e3 ff ff 	movw   $0xdcc2,-0x1cd8(%rbp)
    a2f2:	c2 dc 
    a2f4:	66 c7 85 2a e3 ff ff 	movw   $0x188c,-0x1cd6(%rbp)
    a2fb:	8c 18 
    a2fd:	66 c7 85 2c e3 ff ff 	movw   $0x1,-0x1cd4(%rbp)
    a304:	01 00 
    a306:	66 c7 85 2e e3 ff ff 	movw   $0x8873,-0x1cd2(%rbp)
    a30d:	73 88 
    a30f:	66 c7 85 30 e3 ff ff 	movw   $0x0,-0x1cd0(%rbp)
    a316:	00 00 
    a318:	66 c7 85 32 e3 ff ff 	movw   $0x24a8,-0x1cce(%rbp)
    a31f:	a8 24 
    a321:	66 c7 85 34 e3 ff ff 	movw   $0x0,-0x1ccc(%rbp)
    a328:	00 00 
    a32a:	66 c7 85 36 e3 ff ff 	movw   $0x0,-0x1cca(%rbp)
    a331:	00 00 
    a333:	66 c7 85 38 e3 ff ff 	movw   $0x188c,-0x1cc8(%rbp)
    a33a:	8c 18 
    a33c:	66 c7 85 3a e3 ff ff 	movw   $0x9,-0x1cc6(%rbp)
    a343:	09 00 
    a345:	66 c7 85 3c e3 ff ff 	movw   $0x188c,-0x1cc4(%rbp)
    a34c:	8c 18 
    a34e:	66 c7 85 3e e3 ff ff 	movw   $0xa56e,-0x1cc2(%rbp)
    a355:	6e a5 
    a357:	66 c7 85 40 e3 ff ff 	movw   $0xfc1d,-0x1cc0(%rbp)
    a35e:	1d fc 
    a360:	66 c7 85 42 e3 ff ff 	movw   $0x0,-0x1cbe(%rbp)
    a367:	00 00 
    a369:	66 c7 85 44 e3 ff ff 	movw   $0xffff,-0x1cbc(%rbp)
    a370:	ff ff 
    a372:	66 c7 85 46 e3 ff ff 	movw   $0xf2d7,-0x1cba(%rbp)
    a379:	d7 f2 
    a37b:	66 c7 85 48 e3 ff ff 	movw   $0x0,-0x1cb8(%rbp)
    a382:	00 00 
    a384:	66 c7 85 4a e3 ff ff 	movw   $0x5ed6,-0x1cb6(%rbp)
    a38b:	d6 5e 
    a38d:	66 c7 85 4c e3 ff ff 	movw   $0x1,-0x1cb4(%rbp)
    a394:	01 00 
    a396:	66 c7 85 4e e3 ff ff 	movw   $0x188c,-0x1cb2(%rbp)
    a39d:	8c 18 
    a39f:	66 c7 85 50 e3 ff ff 	movw   $0x1,-0x1cb0(%rbp)
    a3a6:	01 00 
    a3a8:	66 c7 85 52 e3 ff ff 	movw   $0x2,-0x1cae(%rbp)
    a3af:	02 00 
    a3b1:	66 c7 85 54 e3 ff ff 	movw   $0x0,-0x1cac(%rbp)
    a3b8:	00 00 
    a3ba:	66 c7 85 56 e3 ff ff 	movw   $0x1,-0x1caa(%rbp)
    a3c1:	01 00 
    a3c3:	66 c7 85 58 e3 ff ff 	movw   $0x2,-0x1ca8(%rbp)
    a3ca:	02 00 
    a3cc:	66 c7 85 5a e3 ff ff 	movw   $0x0,-0x1ca6(%rbp)
    a3d3:	00 00 
    a3d5:	66 c7 85 5c e3 ff ff 	movw   $0x0,-0x1ca4(%rbp)
    a3dc:	00 00 
    a3de:	66 c7 85 5e e3 ff ff 	movw   $0xdcc2,-0x1ca2(%rbp)
    a3e5:	c2 dc 
    a3e7:	66 c7 85 60 e3 ff ff 	movw   $0x188c,-0x1ca0(%rbp)
    a3ee:	8c 18 
    a3f0:	66 c7 85 62 e3 ff ff 	movw   $0x1,-0x1c9e(%rbp)
    a3f7:	01 00 
    a3f9:	66 c7 85 64 e3 ff ff 	movw   $0x8873,-0x1c9c(%rbp)
    a400:	73 88 
    a402:	66 c7 85 66 e3 ff ff 	movw   $0x0,-0x1c9a(%rbp)
    a409:	00 00 
    a40b:	66 c7 85 68 e3 ff ff 	movw   $0x24a8,-0x1c98(%rbp)
    a412:	a8 24 
    a414:	66 c7 85 6a e3 ff ff 	movw   $0x0,-0x1c96(%rbp)
    a41b:	00 00 
    a41d:	66 c7 85 6c e3 ff ff 	movw   $0x0,-0x1c94(%rbp)
    a424:	00 00 
    a426:	66 c7 85 6e e3 ff ff 	movw   $0x188c,-0x1c92(%rbp)
    a42d:	8c 18 
    a42f:	66 c7 85 70 e3 ff ff 	movw   $0x9,-0x1c90(%rbp)
    a436:	09 00 
    a438:	66 c7 85 72 e3 ff ff 	movw   $0x188c,-0x1c8e(%rbp)
    a43f:	8c 18 
    a441:	66 c7 85 74 e3 ff ff 	movw   $0xa56e,-0x1c8c(%rbp)
    a448:	6e a5 
    a44a:	66 c7 85 76 e3 ff ff 	movw   $0xfc1d,-0x1c8a(%rbp)
    a451:	1d fc 
    a453:	66 c7 85 78 e3 ff ff 	movw   $0x0,-0x1c88(%rbp)
    a45a:	00 00 
    a45c:	66 c7 85 7a e3 ff ff 	movw   $0xffff,-0x1c86(%rbp)
    a463:	ff ff 
    a465:	66 c7 85 7c e3 ff ff 	movw   $0xf2d7,-0x1c84(%rbp)
    a46c:	d7 f2 
    a46e:	66 c7 85 7e e3 ff ff 	movw   $0x0,-0x1c82(%rbp)
    a475:	00 00 
    a477:	66 c7 85 80 e3 ff ff 	movw   $0x5ed6,-0x1c80(%rbp)
    a47e:	d6 5e 
    a480:	66 c7 85 82 e3 ff ff 	movw   $0x1,-0x1c7e(%rbp)
    a487:	01 00 
    a489:	66 c7 85 84 e3 ff ff 	movw   $0x188c,-0x1c7c(%rbp)
    a490:	8c 18 
    a492:	66 c7 85 86 e3 ff ff 	movw   $0x1,-0x1c7a(%rbp)
    a499:	01 00 
    a49b:	66 c7 85 88 e3 ff ff 	movw   $0x2,-0x1c78(%rbp)
    a4a2:	02 00 
    a4a4:	66 c7 85 8a e3 ff ff 	movw   $0x0,-0x1c76(%rbp)
    a4ab:	00 00 
    a4ad:	66 c7 85 8c e3 ff ff 	movw   $0x1,-0x1c74(%rbp)
    a4b4:	01 00 
    a4b6:	66 c7 85 8e e3 ff ff 	movw   $0x2,-0x1c72(%rbp)
    a4bd:	02 00 
    a4bf:	66 c7 85 90 e3 ff ff 	movw   $0x0,-0x1c70(%rbp)
    a4c6:	00 00 
    a4c8:	66 c7 85 92 e3 ff ff 	movw   $0x0,-0x1c6e(%rbp)
    a4cf:	00 00 
    a4d1:	66 c7 85 94 e3 ff ff 	movw   $0xdcc2,-0x1c6c(%rbp)
    a4d8:	c2 dc 
    a4da:	66 c7 85 96 e3 ff ff 	movw   $0x188c,-0x1c6a(%rbp)
    a4e1:	8c 18 
    a4e3:	66 c7 85 98 e3 ff ff 	movw   $0x1,-0x1c68(%rbp)
    a4ea:	01 00 
    a4ec:	66 c7 85 9a e3 ff ff 	movw   $0x8873,-0x1c66(%rbp)
    a4f3:	73 88 
    a4f5:	66 c7 85 9c e3 ff ff 	movw   $0x0,-0x1c64(%rbp)
    a4fc:	00 00 
    a4fe:	66 c7 85 9e e3 ff ff 	movw   $0x24a8,-0x1c62(%rbp)
    a505:	a8 24 
    a507:	c7 85 9c df ff ff e4 	movl   $0xb576b1e4,-0x2064(%rbp)
    a50e:	b1 76 b5 
    a511:	48 b8 22 41 ab 56 84 	movabs $0x9945078456ab4122,%rax
    a518:	07 45 99 
    a51b:	48 89 85 b8 e0 ff ff 	mov    %rax,-0x1f48(%rbp)
    a522:	c6 85 76 df ff ff b7 	movb   $0xb7,-0x208a(%rbp)
    a529:	66 c7 85 a0 e1 ff ff 	movw   $0x8046,-0x1e60(%rbp)
    a530:	46 80 
    a532:	66 c7 85 a2 e1 ff ff 	movw   $0x8046,-0x1e5e(%rbp)
    a539:	46 80 
    a53b:	66 c7 85 a4 e1 ff ff 	movw   $0x8046,-0x1e5c(%rbp)
    a542:	46 80 
    a544:	66 c7 85 a6 e1 ff ff 	movw   $0x8046,-0x1e5a(%rbp)
    a54b:	46 80 
    a54d:	66 c7 85 a8 e1 ff ff 	movw   $0x8046,-0x1e58(%rbp)
    a554:	46 80 
    a556:	66 c7 85 aa e1 ff ff 	movw   $0x8046,-0x1e56(%rbp)
    a55d:	46 80 
    a55f:	66 c7 85 ac e1 ff ff 	movw   $0x8046,-0x1e54(%rbp)
    a566:	46 80 
    a568:	66 c7 85 ae e1 ff ff 	movw   $0x8046,-0x1e52(%rbp)
    a56f:	46 80 
    a571:	66 c7 85 b0 e1 ff ff 	movw   $0x8046,-0x1e50(%rbp)
    a578:	46 80 
    a57a:	c7 85 d8 df ff ff f1 	movl   $0xe0e178f1,-0x2028(%rbp)
    a581:	78 e1 e0 
    a584:	c7 85 a0 e2 ff ff 01 	movl   $0x1,-0x1d60(%rbp)
    a58b:	00 00 00 
    a58e:	c7 85 a4 e2 ff ff d0 	movl   $0x7f44cd0,-0x1d5c(%rbp)
    a595:	4c f4 07 
    a598:	c7 85 a8 e2 ff ff 01 	movl   $0x1,-0x1d58(%rbp)
    a59f:	00 00 00 
    a5a2:	c7 85 ac e2 ff ff 05 	movl   $0x5,-0x1d54(%rbp)
    a5a9:	00 00 00 
    a5ac:	c7 85 b0 e2 ff ff 05 	movl   $0x5,-0x1d50(%rbp)
    a5b3:	00 00 00 
    a5b6:	c7 85 b4 e2 ff ff 01 	movl   $0x1,-0x1d4c(%rbp)
    a5bd:	00 00 00 
    a5c0:	c7 85 b8 e2 ff ff d0 	movl   $0x7f44cd0,-0x1d48(%rbp)
    a5c7:	4c f4 07 
    a5ca:	c7 85 bc e2 ff ff 01 	movl   $0x1,-0x1d44(%rbp)
    a5d1:	00 00 00 
    a5d4:	c7 85 c0 e2 ff ff ff 	movl   $0xffffffff,-0x1d40(%rbp)
    a5db:	ff ff ff 
    a5de:	c7 85 c4 e2 ff ff 01 	movl   $0x1,-0x1d3c(%rbp)
    a5e5:	00 00 00 
    a5e8:	c7 85 c8 e2 ff ff 05 	movl   $0x5,-0x1d38(%rbp)
    a5ef:	00 00 00 
    a5f2:	c7 85 cc e2 ff ff 01 	movl   $0x1,-0x1d34(%rbp)
    a5f9:	00 00 00 
    a5fc:	c7 85 d0 e2 ff ff 01 	movl   $0x1,-0x1d30(%rbp)
    a603:	00 00 00 
    a606:	c7 85 d4 e2 ff ff d0 	movl   $0x7f44cd0,-0x1d2c(%rbp)
    a60d:	4c f4 07 
    a610:	c7 85 d8 e2 ff ff 05 	movl   $0x5,-0x1d28(%rbp)
    a617:	00 00 00 
    a61a:	c7 85 dc e2 ff ff 01 	movl   $0x1,-0x1d24(%rbp)
    a621:	00 00 00 
    a624:	c7 85 e0 e2 ff ff 01 	movl   $0x1,-0x1d20(%rbp)
    a62b:	00 00 00 
    a62e:	c7 85 e4 e2 ff ff 01 	movl   $0x1,-0x1d1c(%rbp)
    a635:	00 00 00 
    a638:	c7 85 e8 e2 ff ff f9 	movl   $0xfffffff9,-0x1d18(%rbp)
    a63f:	ff ff ff 
    a642:	c7 85 ec e2 ff ff 01 	movl   $0x1,-0x1d14(%rbp)
    a649:	00 00 00 
    a64c:	c7 85 f0 e2 ff ff 01 	movl   $0x1,-0x1d10(%rbp)
    a653:	00 00 00 
    a656:	c7 85 f4 e2 ff ff ff 	movl   $0xffffffff,-0x1d0c(%rbp)
    a65d:	ff ff ff 
    a660:	c7 85 f8 e2 ff ff 01 	movl   $0x1,-0x1d08(%rbp)
    a667:	00 00 00 
    a66a:	c7 85 fc e2 ff ff 05 	movl   $0x5,-0x1d04(%rbp)
    a671:	00 00 00 
    a674:	c7 85 00 e3 ff ff f9 	movl   $0xfffffff9,-0x1d00(%rbp)
    a67b:	ff ff ff 
    a67e:	c7 85 04 e3 ff ff f9 	movl   $0xfffffff9,-0x1cfc(%rbp)
    a685:	ff ff ff 
    a688:	c7 85 08 e3 ff ff 05 	movl   $0x5,-0x1cf8(%rbp)
    a68f:	00 00 00 
    a692:	c7 85 dc df ff ff 29 	movl   $0xfda06529,-0x2024(%rbp)
    a699:	65 a0 fd 
    a69c:	c7 85 a0 df ff ff 94 	movl   $0x3d246494,-0x2060(%rbp)
    a6a3:	64 24 3d 
    a6a6:	48 8d 85 00 e2 ff ff 	lea    -0x1e00(%rbp),%rax
    a6ad:	48 83 c0 18          	add    $0x18,%rax
    a6b1:	48 89 85 f0 e6 ff ff 	mov    %rax,-0x1910(%rbp)
    a6b8:	48 8d 85 00 e2 ff ff 	lea    -0x1e00(%rbp),%rax
    a6bf:	48 83 c0 18          	add    $0x18,%rax
    a6c3:	48 89 85 f8 e6 ff ff 	mov    %rax,-0x1908(%rbp)
    a6ca:	48 8d 85 00 e2 ff ff 	lea    -0x1e00(%rbp),%rax
    a6d1:	48 83 c0 18          	add    $0x18,%rax
    a6d5:	48 89 85 00 e7 ff ff 	mov    %rax,-0x1900(%rbp)
    a6dc:	48 8d 85 00 e2 ff ff 	lea    -0x1e00(%rbp),%rax
    a6e3:	48 83 c0 08          	add    $0x8,%rax
    a6e7:	48 89 85 08 e7 ff ff 	mov    %rax,-0x18f8(%rbp)
    a6ee:	48 8d 85 00 e2 ff ff 	lea    -0x1e00(%rbp),%rax
    a6f5:	48 83 c0 18          	add    $0x18,%rax
    a6f9:	48 89 85 10 e7 ff ff 	mov    %rax,-0x18f0(%rbp)
    a700:	48 8d 85 00 e2 ff ff 	lea    -0x1e00(%rbp),%rax
    a707:	48 83 c0 18          	add    $0x18,%rax
    a70b:	48 89 85 18 e7 ff ff 	mov    %rax,-0x18e8(%rbp)
    a712:	48 8d 85 00 e2 ff ff 	lea    -0x1e00(%rbp),%rax
    a719:	48 83 c0 18          	add    $0x18,%rax
    a71d:	48 89 85 20 e7 ff ff 	mov    %rax,-0x18e0(%rbp)
    a724:	48 c7 85 28 e7 ff ff 	movq   $0x0,-0x18d8(%rbp)
    a72b:	00 00 00 00 
    a72f:	48 8d 85 00 e2 ff ff 	lea    -0x1e00(%rbp),%rax
    a736:	48 83 c0 18          	add    $0x18,%rax
    a73a:	48 89 85 30 e7 ff ff 	mov    %rax,-0x18d0(%rbp)
    a741:	48 8d 85 00 e2 ff ff 	lea    -0x1e00(%rbp),%rax
    a748:	48 83 c0 18          	add    $0x18,%rax
    a74c:	48 89 85 38 e7 ff ff 	mov    %rax,-0x18c8(%rbp)
    a753:	48 8d 85 00 e2 ff ff 	lea    -0x1e00(%rbp),%rax
    a75a:	48 83 c0 18          	add    $0x18,%rax
    a75e:	48 89 85 40 e7 ff ff 	mov    %rax,-0x18c0(%rbp)
    a765:	48 8d 85 00 e2 ff ff 	lea    -0x1e00(%rbp),%rax
    a76c:	48 83 c0 18          	add    $0x18,%rax
    a770:	48 89 85 48 e7 ff ff 	mov    %rax,-0x18b8(%rbp)
    a777:	48 8d 85 00 e2 ff ff 	lea    -0x1e00(%rbp),%rax
    a77e:	48 83 c0 08          	add    $0x8,%rax
    a782:	48 89 85 50 e7 ff ff 	mov    %rax,-0x18b0(%rbp)
    a789:	48 8d 85 00 e2 ff ff 	lea    -0x1e00(%rbp),%rax
    a790:	48 83 c0 08          	add    $0x8,%rax
    a794:	48 89 85 58 e7 ff ff 	mov    %rax,-0x18a8(%rbp)
    a79b:	48 8d 85 00 e2 ff ff 	lea    -0x1e00(%rbp),%rax
    a7a2:	48 83 c0 18          	add    $0x18,%rax
    a7a6:	48 89 85 60 e7 ff ff 	mov    %rax,-0x18a0(%rbp)
    a7ad:	48 8d 85 00 e2 ff ff 	lea    -0x1e00(%rbp),%rax
    a7b4:	48 83 c0 18          	add    $0x18,%rax
    a7b8:	48 89 85 68 e7 ff ff 	mov    %rax,-0x1898(%rbp)
    a7bf:	48 c7 85 70 e7 ff ff 	movq   $0x0,-0x1890(%rbp)
    a7c6:	00 00 00 00 
    a7ca:	48 8d 85 00 e2 ff ff 	lea    -0x1e00(%rbp),%rax
    a7d1:	48 83 c0 18          	add    $0x18,%rax
    a7d5:	48 89 85 78 e7 ff ff 	mov    %rax,-0x1888(%rbp)
    a7dc:	48 8d 85 00 e2 ff ff 	lea    -0x1e00(%rbp),%rax
    a7e3:	48 83 c0 18          	add    $0x18,%rax
    a7e7:	48 89 85 80 e7 ff ff 	mov    %rax,-0x1880(%rbp)
    a7ee:	48 8d 85 00 e2 ff ff 	lea    -0x1e00(%rbp),%rax
    a7f5:	48 83 c0 18          	add    $0x18,%rax
    a7f9:	48 89 85 88 e7 ff ff 	mov    %rax,-0x1878(%rbp)
    a800:	48 8d 85 00 e2 ff ff 	lea    -0x1e00(%rbp),%rax
    a807:	48 83 c0 08          	add    $0x8,%rax
    a80b:	48 89 85 90 e7 ff ff 	mov    %rax,-0x1870(%rbp)
    a812:	48 8d 85 00 e2 ff ff 	lea    -0x1e00(%rbp),%rax
    a819:	48 83 c0 18          	add    $0x18,%rax
    a81d:	48 89 85 98 e7 ff ff 	mov    %rax,-0x1868(%rbp)
    a824:	48 8d 85 00 e2 ff ff 	lea    -0x1e00(%rbp),%rax
    a82b:	48 83 c0 08          	add    $0x8,%rax
    a82f:	48 89 85 a0 e7 ff ff 	mov    %rax,-0x1860(%rbp)
    a836:	48 c7 85 a8 e7 ff ff 	movq   $0x0,-0x1858(%rbp)
    a83d:	00 00 00 00 
    a841:	48 8d 85 00 e2 ff ff 	lea    -0x1e00(%rbp),%rax
    a848:	48 83 c0 18          	add    $0x18,%rax
    a84c:	48 89 85 b0 e7 ff ff 	mov    %rax,-0x1850(%rbp)
    a853:	48 8d 85 00 e2 ff ff 	lea    -0x1e00(%rbp),%rax
    a85a:	48 83 c0 18          	add    $0x18,%rax
    a85e:	48 89 85 b8 e7 ff ff 	mov    %rax,-0x1848(%rbp)
    a865:	48 8d 85 00 e2 ff ff 	lea    -0x1e00(%rbp),%rax
    a86c:	48 83 c0 08          	add    $0x8,%rax
    a870:	48 89 85 c0 e7 ff ff 	mov    %rax,-0x1840(%rbp)
    a877:	48 8d 85 00 e2 ff ff 	lea    -0x1e00(%rbp),%rax
    a87e:	48 83 c0 18          	add    $0x18,%rax
    a882:	48 89 85 c8 e7 ff ff 	mov    %rax,-0x1838(%rbp)
    a889:	48 8d 85 00 e2 ff ff 	lea    -0x1e00(%rbp),%rax
    a890:	48 83 c0 18          	add    $0x18,%rax
    a894:	48 89 85 d0 e7 ff ff 	mov    %rax,-0x1830(%rbp)
    a89b:	48 8d 85 00 e2 ff ff 	lea    -0x1e00(%rbp),%rax
    a8a2:	48 83 c0 18          	add    $0x18,%rax
    a8a6:	48 89 85 d8 e7 ff ff 	mov    %rax,-0x1828(%rbp)
    a8ad:	48 8d 85 00 e2 ff ff 	lea    -0x1e00(%rbp),%rax
    a8b4:	48 83 c0 18          	add    $0x18,%rax
    a8b8:	48 89 85 e0 e7 ff ff 	mov    %rax,-0x1820(%rbp)
    a8bf:	48 8d 85 00 e2 ff ff 	lea    -0x1e00(%rbp),%rax
    a8c6:	48 83 c0 18          	add    $0x18,%rax
    a8ca:	48 89 85 e8 e7 ff ff 	mov    %rax,-0x1818(%rbp)
    a8d1:	48 8d 85 00 e2 ff ff 	lea    -0x1e00(%rbp),%rax
    a8d8:	48 83 c0 18          	add    $0x18,%rax
    a8dc:	48 89 85 f0 e7 ff ff 	mov    %rax,-0x1810(%rbp)
    a8e3:	48 8d 85 00 e2 ff ff 	lea    -0x1e00(%rbp),%rax
    a8ea:	48 83 c0 18          	add    $0x18,%rax
    a8ee:	48 89 85 f8 e7 ff ff 	mov    %rax,-0x1808(%rbp)
    a8f5:	48 8d 85 00 e2 ff ff 	lea    -0x1e00(%rbp),%rax
    a8fc:	48 83 c0 18          	add    $0x18,%rax
    a900:	48 89 85 00 e8 ff ff 	mov    %rax,-0x1800(%rbp)
    a907:	48 8d 85 00 e2 ff ff 	lea    -0x1e00(%rbp),%rax
    a90e:	48 83 c0 18          	add    $0x18,%rax
    a912:	48 89 85 08 e8 ff ff 	mov    %rax,-0x17f8(%rbp)
    a919:	48 8d 85 00 e2 ff ff 	lea    -0x1e00(%rbp),%rax
    a920:	48 83 c0 18          	add    $0x18,%rax
    a924:	48 89 85 10 e8 ff ff 	mov    %rax,-0x17f0(%rbp)
    a92b:	48 8d 85 00 e2 ff ff 	lea    -0x1e00(%rbp),%rax
    a932:	48 83 c0 18          	add    $0x18,%rax
    a936:	48 89 85 18 e8 ff ff 	mov    %rax,-0x17e8(%rbp)
    a93d:	48 8d 85 00 e2 ff ff 	lea    -0x1e00(%rbp),%rax
    a944:	48 83 c0 18          	add    $0x18,%rax
    a948:	48 89 85 20 e8 ff ff 	mov    %rax,-0x17e0(%rbp)
    a94f:	48 c7 85 28 e8 ff ff 	movq   $0x0,-0x17d8(%rbp)
    a956:	00 00 00 00 
    a95a:	48 8d 85 00 e2 ff ff 	lea    -0x1e00(%rbp),%rax
    a961:	48 83 c0 18          	add    $0x18,%rax
    a965:	48 89 85 30 e8 ff ff 	mov    %rax,-0x17d0(%rbp)
    a96c:	48 8d 85 00 e2 ff ff 	lea    -0x1e00(%rbp),%rax
    a973:	48 83 c0 18          	add    $0x18,%rax
    a977:	48 89 85 38 e8 ff ff 	mov    %rax,-0x17c8(%rbp)
    a97e:	48 8d 85 00 e2 ff ff 	lea    -0x1e00(%rbp),%rax
    a985:	48 83 c0 18          	add    $0x18,%rax
    a989:	48 89 85 40 e8 ff ff 	mov    %rax,-0x17c0(%rbp)
    a990:	48 8d 85 00 e2 ff ff 	lea    -0x1e00(%rbp),%rax
    a997:	48 83 c0 18          	add    $0x18,%rax
    a99b:	48 89 85 48 e8 ff ff 	mov    %rax,-0x17b8(%rbp)
    a9a2:	48 8d 85 00 e2 ff ff 	lea    -0x1e00(%rbp),%rax
    a9a9:	48 83 c0 18          	add    $0x18,%rax
    a9ad:	48 89 85 50 e8 ff ff 	mov    %rax,-0x17b0(%rbp)
    a9b4:	48 8d 85 00 e2 ff ff 	lea    -0x1e00(%rbp),%rax
    a9bb:	48 83 c0 18          	add    $0x18,%rax
    a9bf:	48 89 85 58 e8 ff ff 	mov    %rax,-0x17a8(%rbp)
    a9c6:	48 8d 85 00 e2 ff ff 	lea    -0x1e00(%rbp),%rax
    a9cd:	48 83 c0 18          	add    $0x18,%rax
    a9d1:	48 89 85 60 e8 ff ff 	mov    %rax,-0x17a0(%rbp)
    a9d8:	48 8d 85 00 e2 ff ff 	lea    -0x1e00(%rbp),%rax
    a9df:	48 83 c0 18          	add    $0x18,%rax
    a9e3:	48 89 85 68 e8 ff ff 	mov    %rax,-0x1798(%rbp)
    a9ea:	48 8d 85 00 e2 ff ff 	lea    -0x1e00(%rbp),%rax
    a9f1:	48 83 c0 18          	add    $0x18,%rax
    a9f5:	48 89 85 70 e8 ff ff 	mov    %rax,-0x1790(%rbp)
    a9fc:	48 8d 85 00 e2 ff ff 	lea    -0x1e00(%rbp),%rax
    aa03:	48 83 c0 18          	add    $0x18,%rax
    aa07:	48 89 85 78 e8 ff ff 	mov    %rax,-0x1788(%rbp)
    aa0e:	48 c7 85 80 e8 ff ff 	movq   $0x0,-0x1780(%rbp)
    aa15:	00 00 00 00 
    aa19:	48 8d 85 00 e2 ff ff 	lea    -0x1e00(%rbp),%rax
    aa20:	48 83 c0 18          	add    $0x18,%rax
    aa24:	48 89 85 88 e8 ff ff 	mov    %rax,-0x1778(%rbp)
    aa2b:	48 8d 85 00 e2 ff ff 	lea    -0x1e00(%rbp),%rax
    aa32:	48 83 c0 18          	add    $0x18,%rax
    aa36:	48 89 85 90 e8 ff ff 	mov    %rax,-0x1770(%rbp)
    aa3d:	48 8d 85 00 e2 ff ff 	lea    -0x1e00(%rbp),%rax
    aa44:	48 83 c0 18          	add    $0x18,%rax
    aa48:	48 89 85 98 e8 ff ff 	mov    %rax,-0x1768(%rbp)
    aa4f:	48 8d 85 00 e2 ff ff 	lea    -0x1e00(%rbp),%rax
    aa56:	48 83 c0 18          	add    $0x18,%rax
    aa5a:	48 89 85 a0 e8 ff ff 	mov    %rax,-0x1760(%rbp)
    aa61:	48 8d 85 00 e2 ff ff 	lea    -0x1e00(%rbp),%rax
    aa68:	48 83 c0 08          	add    $0x8,%rax
    aa6c:	48 89 85 a8 e8 ff ff 	mov    %rax,-0x1758(%rbp)
    aa73:	48 8d 85 00 e2 ff ff 	lea    -0x1e00(%rbp),%rax
    aa7a:	48 89 85 b0 e8 ff ff 	mov    %rax,-0x1750(%rbp)
    aa81:	48 8d 85 00 e2 ff ff 	lea    -0x1e00(%rbp),%rax
    aa88:	48 83 c0 18          	add    $0x18,%rax
    aa8c:	48 89 85 b8 e8 ff ff 	mov    %rax,-0x1748(%rbp)
    aa93:	48 8d 85 00 e2 ff ff 	lea    -0x1e00(%rbp),%rax
    aa9a:	48 83 c0 18          	add    $0x18,%rax
    aa9e:	48 89 85 c0 e8 ff ff 	mov    %rax,-0x1740(%rbp)
    aaa5:	48 8d 85 00 e2 ff ff 	lea    -0x1e00(%rbp),%rax
    aaac:	48 83 c0 18          	add    $0x18,%rax
    aab0:	48 89 85 c8 e8 ff ff 	mov    %rax,-0x1738(%rbp)
    aab7:	48 8d 85 00 e2 ff ff 	lea    -0x1e00(%rbp),%rax
    aabe:	48 83 c0 18          	add    $0x18,%rax
    aac2:	48 89 85 d0 e8 ff ff 	mov    %rax,-0x1730(%rbp)
    aac9:	48 c7 85 d8 e8 ff ff 	movq   $0x0,-0x1728(%rbp)
    aad0:	00 00 00 00 
    aad4:	48 8d 85 00 e2 ff ff 	lea    -0x1e00(%rbp),%rax
    aadb:	48 83 c0 18          	add    $0x18,%rax
    aadf:	48 89 85 e0 e8 ff ff 	mov    %rax,-0x1720(%rbp)
    aae6:	48 8d 85 00 e2 ff ff 	lea    -0x1e00(%rbp),%rax
    aaed:	48 83 c0 18          	add    $0x18,%rax
    aaf1:	48 89 85 e8 e8 ff ff 	mov    %rax,-0x1718(%rbp)
    aaf8:	48 8d 85 00 e2 ff ff 	lea    -0x1e00(%rbp),%rax
    aaff:	48 83 c0 08          	add    $0x8,%rax
    ab03:	48 89 85 f0 e8 ff ff 	mov    %rax,-0x1710(%rbp)
    ab0a:	48 8d 85 00 e2 ff ff 	lea    -0x1e00(%rbp),%rax
    ab11:	48 83 c0 18          	add    $0x18,%rax
    ab15:	48 89 85 f8 e8 ff ff 	mov    %rax,-0x1708(%rbp)
    ab1c:	48 8d 85 00 e2 ff ff 	lea    -0x1e00(%rbp),%rax
    ab23:	48 83 c0 18          	add    $0x18,%rax
    ab27:	48 89 85 00 e9 ff ff 	mov    %rax,-0x1700(%rbp)
    ab2e:	48 8d 85 00 e2 ff ff 	lea    -0x1e00(%rbp),%rax
    ab35:	48 83 c0 18          	add    $0x18,%rax
    ab39:	48 89 85 08 e9 ff ff 	mov    %rax,-0x16f8(%rbp)
    ab40:	48 8d 85 00 e2 ff ff 	lea    -0x1e00(%rbp),%rax
    ab47:	48 83 c0 18          	add    $0x18,%rax
    ab4b:	48 89 85 10 e9 ff ff 	mov    %rax,-0x16f0(%rbp)
    ab52:	48 c7 85 18 e9 ff ff 	movq   $0x0,-0x16e8(%rbp)
    ab59:	00 00 00 00 
    ab5d:	48 c7 85 20 e9 ff ff 	movq   $0x0,-0x16e0(%rbp)
    ab64:	00 00 00 00 
    ab68:	48 8d 85 00 e2 ff ff 	lea    -0x1e00(%rbp),%rax
    ab6f:	48 83 c0 18          	add    $0x18,%rax
    ab73:	48 89 85 28 e9 ff ff 	mov    %rax,-0x16d8(%rbp)
    ab7a:	48 8d 85 00 e2 ff ff 	lea    -0x1e00(%rbp),%rax
    ab81:	48 83 c0 18          	add    $0x18,%rax
    ab85:	48 89 85 30 e9 ff ff 	mov    %rax,-0x16d0(%rbp)
    ab8c:	48 8d 85 00 e2 ff ff 	lea    -0x1e00(%rbp),%rax
    ab93:	48 83 c0 18          	add    $0x18,%rax
    ab97:	48 89 85 38 e9 ff ff 	mov    %rax,-0x16c8(%rbp)
    ab9e:	48 8d 85 00 e2 ff ff 	lea    -0x1e00(%rbp),%rax
    aba5:	48 83 c0 18          	add    $0x18,%rax
    aba9:	48 89 85 40 e9 ff ff 	mov    %rax,-0x16c0(%rbp)
    abb0:	48 8d 85 00 e2 ff ff 	lea    -0x1e00(%rbp),%rax
    abb7:	48 83 c0 18          	add    $0x18,%rax
    abbb:	48 89 85 48 e9 ff ff 	mov    %rax,-0x16b8(%rbp)
    abc2:	48 8d 85 00 e2 ff ff 	lea    -0x1e00(%rbp),%rax
    abc9:	48 83 c0 18          	add    $0x18,%rax
    abcd:	48 89 85 50 e9 ff ff 	mov    %rax,-0x16b0(%rbp)
    abd4:	48 8d 85 00 e2 ff ff 	lea    -0x1e00(%rbp),%rax
    abdb:	48 83 c0 18          	add    $0x18,%rax
    abdf:	48 89 85 58 e9 ff ff 	mov    %rax,-0x16a8(%rbp)
    abe6:	48 8d 85 00 e2 ff ff 	lea    -0x1e00(%rbp),%rax
    abed:	48 83 c0 18          	add    $0x18,%rax
    abf1:	48 89 85 60 e9 ff ff 	mov    %rax,-0x16a0(%rbp)
    abf8:	48 8d 85 00 e2 ff ff 	lea    -0x1e00(%rbp),%rax
    abff:	48 83 c0 18          	add    $0x18,%rax
    ac03:	48 89 85 68 e9 ff ff 	mov    %rax,-0x1698(%rbp)
    ac0a:	48 8d 85 00 e2 ff ff 	lea    -0x1e00(%rbp),%rax
    ac11:	48 83 c0 18          	add    $0x18,%rax
    ac15:	48 89 85 70 e9 ff ff 	mov    %rax,-0x1690(%rbp)
    ac1c:	48 8d 85 00 e2 ff ff 	lea    -0x1e00(%rbp),%rax
    ac23:	48 83 c0 18          	add    $0x18,%rax
    ac27:	48 89 85 78 e9 ff ff 	mov    %rax,-0x1688(%rbp)
    ac2e:	48 8d 85 00 e2 ff ff 	lea    -0x1e00(%rbp),%rax
    ac35:	48 83 c0 18          	add    $0x18,%rax
    ac39:	48 89 85 80 e9 ff ff 	mov    %rax,-0x1680(%rbp)
    ac40:	48 8d 85 00 e2 ff ff 	lea    -0x1e00(%rbp),%rax
    ac47:	48 89 85 88 e9 ff ff 	mov    %rax,-0x1678(%rbp)
    ac4e:	48 8d 85 60 f0 ff ff 	lea    -0xfa0(%rbp),%rax
    ac55:	48 8d 15 24 58 01 00 	lea    0x15824(%rip),%rdx        # 20480 <g_2170+0xf70>
    ac5c:	b9 f0 00 00 00       	mov    $0xf0,%ecx
    ac61:	48 89 c7             	mov    %rax,%rdi
    ac64:	48 89 d6             	mov    %rdx,%rsi
    ac67:	f3 48 a5             	rep movsq %ds:(%rsi),%es:(%rdi)
    ac6a:	c7 85 e0 df ff ff 00 	movl   $0x0,-0x2020(%rbp)
    ac71:	00 00 00 
    ac74:	c7 85 e4 df ff ff e8 	movl   $0xf387a5e8,-0x201c(%rbp)
    ac7b:	a5 87 f3 
    ac7e:	c6 85 77 df ff ff ff 	movb   $0xff,-0x2089(%rbp)
    ac85:	c7 85 a4 df ff ff 00 	movl   $0x0,-0x205c(%rbp)
    ac8c:	00 00 00 
    ac8f:	eb 14                	jmp    aca5 <func_42+0xe38>
    ac91:	8b 85 a4 df ff ff    	mov    -0x205c(%rbp),%eax
    ac97:	48 98                	cltq   
    ac99:	c6 44 05 c4 bf       	movb   $0xbf,-0x3c(%rbp,%rax,1)
    ac9e:	83 85 a4 df ff ff 01 	addl   $0x1,-0x205c(%rbp)
    aca5:	83 bd a4 df ff ff 03 	cmpl   $0x3,-0x205c(%rbp)
    acac:	7e e3                	jle    ac91 <func_42+0xe24>
    acae:	c7 85 a4 df ff ff 00 	movl   $0x0,-0x205c(%rbp)
    acb5:	00 00 00 
    acb8:	eb 1e                	jmp    acd8 <func_42+0xe6b>
    acba:	8b 85 a4 df ff ff    	mov    -0x205c(%rbp),%eax
    acc0:	48 98                	cltq   
    acc2:	48 8d 15 83 13 01 00 	lea    0x11383(%rip),%rdx        # 1c04c <g_116>
    acc9:	48 89 94 c5 98 e1 ff 	mov    %rdx,-0x1e68(%rbp,%rax,8)
    acd0:	ff 
    acd1:	83 85 a4 df ff ff 01 	addl   $0x1,-0x205c(%rbp)
    acd8:	83 bd a4 df ff ff 00 	cmpl   $0x0,-0x205c(%rbp)
    acdf:	7e d9                	jle    acba <func_42+0xe4d>
    ace1:	c7 85 a4 df ff ff 00 	movl   $0x0,-0x205c(%rbp)
    ace8:	00 00 00 
    aceb:	eb 1e                	jmp    ad0b <func_42+0xe9e>
    aced:	8b 85 a4 df ff ff    	mov    -0x205c(%rbp),%eax
    acf3:	48 98                	cltq   
    acf5:	48 8d 15 ee c5 00 00 	lea    0xc5ee(%rip),%rdx        # 172ea <g_1804+0x8a>
    acfc:	48 89 94 c5 c0 e1 ff 	mov    %rdx,-0x1e40(%rbp,%rax,8)
    ad03:	ff 
    ad04:	83 85 a4 df ff ff 01 	addl   $0x1,-0x205c(%rbp)
    ad0b:	83 bd a4 df ff ff 02 	cmpl   $0x2,-0x205c(%rbp)
    ad12:	7e d9                	jle    aced <func_42+0xe80>
    ad14:	c7 85 a4 df ff ff 00 	movl   $0x0,-0x205c(%rbp)
    ad1b:	00 00 00 
    ad1e:	eb 71                	jmp    ad91 <func_42+0xf24>
    ad20:	c7 85 a8 df ff ff 00 	movl   $0x0,-0x2058(%rbp)
    ad27:	00 00 00 
    ad2a:	eb 55                	jmp    ad81 <func_42+0xf14>
    ad2c:	c7 85 ac df ff ff 00 	movl   $0x0,-0x2054(%rbp)
    ad33:	00 00 00 
    ad36:	eb 39                	jmp    ad71 <func_42+0xf04>
    ad38:	8b 85 ac df ff ff    	mov    -0x2054(%rbp),%eax
    ad3e:	48 98                	cltq   
    ad40:	8b 95 a4 df ff ff    	mov    -0x205c(%rbp),%edx
    ad46:	48 63 ca             	movslq %edx,%rcx
    ad49:	8b 95 a8 df ff ff    	mov    -0x2058(%rbp),%edx
    ad4f:	48 63 d2             	movslq %edx,%rdx
    ad52:	48 01 ca             	add    %rcx,%rdx
    ad55:	48 01 d2             	add    %rdx,%rdx
    ad58:	48 01 d0             	add    %rdx,%rax
    ad5b:	48 8d 15 3e 6a 01 00 	lea    0x16a3e(%rip),%rdx        # 217a0 <g_1206>
    ad62:	48 89 94 c5 00 e2 ff 	mov    %rdx,-0x1e00(%rbp,%rax,8)
    ad69:	ff 
    ad6a:	83 85 ac df ff ff 01 	addl   $0x1,-0x2054(%rbp)
    ad71:	83 bd ac df ff ff 01 	cmpl   $0x1,-0x2054(%rbp)
    ad78:	7e be                	jle    ad38 <func_42+0xecb>
    ad7a:	83 85 a8 df ff ff 01 	addl   $0x1,-0x2058(%rbp)
    ad81:	83 bd a8 df ff ff 00 	cmpl   $0x0,-0x2058(%rbp)
    ad88:	7e a2                	jle    ad2c <func_42+0xebf>
    ad8a:	83 85 a4 df ff ff 01 	addl   $0x1,-0x205c(%rbp)
    ad91:	83 bd a4 df ff ff 01 	cmpl   $0x1,-0x205c(%rbp)
    ad98:	7e 86                	jle    ad20 <func_42+0xeb3>
    ad9a:	48 0f be 95 6c df ff 	movsbq -0x2094(%rbp),%rdx
    ada1:	ff 
    ada2:	48 8b 85 70 e0 ff ff 	mov    -0x1f90(%rbp),%rax
    ada9:	48 8b 30             	mov    (%rax),%rsi
    adac:	66 83 bd 7a df ff ff 	cmpw   $0x6,-0x2086(%rbp)
    adb3:	06 
    adb4:	0f 96 c0             	setbe  %al
    adb7:	0f b6 c8             	movzbl %al,%ecx
    adba:	48 8b 85 70 e0 ff ff 	mov    -0x1f90(%rbp),%rax
    adc1:	48 31 f1             	xor    %rsi,%rcx
    adc4:	48 89 08             	mov    %rcx,(%rax)
    adc7:	48 8b 00             	mov    (%rax),%rax
    adca:	89 c1                	mov    %eax,%ecx
    adcc:	0f b7 05 53 12 01 00 	movzwl 0x11253(%rip),%eax        # 1c026 <g_23>
    add3:	09 c8                	or     %ecx,%eax
    add5:	0f b7 c8             	movzwl %ax,%ecx
    add8:	0f b7 85 7a df ff ff 	movzwl -0x2086(%rbp),%eax
    addf:	89 ce                	mov    %ecx,%esi
    ade1:	89 c7                	mov    %eax,%edi
    ade3:	e8 39 31 00 00       	callq  df21 <func_46>
    ade8:	48 8b 95 98 e0 ff ff 	mov    -0x1f68(%rbp),%rdx
    adef:	89 02                	mov    %eax,(%rdx)
    adf1:	0f b7 85 7e df ff ff 	movzwl -0x2082(%rbp),%eax
    adf8:	83 c0 01             	add    $0x1,%eax
    adfb:	66 89 85 7e df ff ff 	mov    %ax,-0x2082(%rbp)
    ae02:	0f b6 85 68 df ff ff 	movzbl -0x2098(%rbp),%eax
    ae09:	83 e0 3f             	and    $0x3f,%eax
    ae0c:	84 c0                	test   %al,%al
    ae0e:	0f 84 d0 01 00 00    	je     afe4 <func_42+0x1177>
    ae14:	8b 05 2a 12 01 00    	mov    0x1122a(%rip),%eax        # 1c044 <g_57+0x14>
    ae1a:	89 05 1c 12 01 00    	mov    %eax,0x1121c(%rip)        # 1c03c <g_57+0xc>
    ae20:	0f b7 85 68 df ff ff 	movzwl -0x2098(%rbp),%eax
    ae27:	c1 e0 04             	shl    $0x4,%eax
    ae2a:	66 c1 f8 0a          	sar    $0xa,%ax
    ae2e:	0f be c0             	movsbl %al,%eax
    ae31:	89 85 64 df ff ff    	mov    %eax,-0x209c(%rbp)
    ae37:	0f b6 85 68 df ff ff 	movzbl -0x2098(%rbp),%eax
    ae3e:	83 e0 3f             	and    $0x3f,%eax
    ae41:	0f b6 d8             	movzbl %al,%ebx
    ae44:	0f b6 05 bd 2f 01 00 	movzbl 0x12fbd(%rip),%eax        # 1de08 <g_1253>
    ae4b:	44 0f be e0          	movsbl %al,%r12d
    ae4f:	0f b6 85 68 df ff ff 	movzbl -0x2098(%rbp),%eax
    ae56:	83 e0 3f             	and    $0x3f,%eax
    ae59:	44 0f b6 e8          	movzbl %al,%r13d
    ae5d:	0f b7 85 68 df ff ff 	movzwl -0x2098(%rbp),%eax
    ae64:	c1 e0 04             	shl    $0x4,%eax
    ae67:	66 c1 f8 0a          	sar    $0xa,%ax
    ae6b:	4c 0f be f8          	movsbq %al,%r15
    ae6f:	0f b6 85 68 df ff ff 	movzbl -0x2098(%rbp),%eax
    ae76:	83 e0 3f             	and    $0x3f,%eax
    ae79:	44 0f b6 f0          	movzbl %al,%r14d
    ae7d:	b8 ff ff ff ff       	mov    $0xffffffff,%eax
    ae82:	0f b6 c0             	movzbl %al,%eax
    ae85:	89 85 60 df ff ff    	mov    %eax,-0x20a0(%rbp)
    ae8b:	0f b6 85 68 df ff ff 	movzbl -0x2098(%rbp),%eax
    ae92:	83 e0 3f             	and    $0x3f,%eax
    ae95:	0f b6 c8             	movzbl %al,%ecx
    ae98:	89 8d 5c df ff ff    	mov    %ecx,-0x20a4(%rbp)
    ae9e:	0f b6 85 68 df ff ff 	movzbl -0x2098(%rbp),%eax
    aea5:	83 e0 3f             	and    $0x3f,%eax
    aea8:	0f b6 f8             	movzbl %al,%edi
    aeab:	89 bd 58 df ff ff    	mov    %edi,-0x20a8(%rbp)
    aeb1:	8b 05 e9 15 01 00    	mov    0x115e9(%rip),%eax        # 1c4a0 <g_448>
    aeb7:	c1 e0 03             	shl    $0x3,%eax
    aeba:	c1 f8 03             	sar    $0x3,%eax
    aebd:	0f b7 d0             	movzwl %ax,%edx
    aec0:	89 95 54 df ff ff    	mov    %edx,-0x20ac(%rbp)
    aec6:	4c 8b 8d 70 e0 ff ff 	mov    -0x1f90(%rbp),%r9
    aecd:	4c 89 8d 48 df ff ff 	mov    %r9,-0x20b8(%rbp)
    aed4:	0f b7 05 4b 11 01 00 	movzwl 0x1114b(%rip),%eax        # 1c026 <g_23>
    aedb:	44 0f be d0          	movsbl %al,%r10d
    aedf:	44 89 95 50 df ff ff 	mov    %r10d,-0x20b0(%rbp)
    aee6:	8b 05 4c 11 01 00    	mov    0x1114c(%rip),%eax        # 1c038 <g_57+0x8>
    aeec:	98                   	cwtl   
    aeed:	89 c6                	mov    %eax,%esi
    aeef:	bf 01 00 00 00       	mov    $0x1,%edi
    aef4:	e8 1d b5 ff ff       	callq  6416 <safe_mod_func_int16_t_s_s>
    aef9:	0f bf d0             	movswl %ax,%edx
    aefc:	48 8b 05 25 11 01 00 	mov    0x11125(%rip),%rax        # 1c028 <g_52>
    af03:	98                   	cwtl   
    af04:	89 d6                	mov    %edx,%esi
    af06:	89 c7                	mov    %eax,%edi
    af08:	e8 e8 b4 ff ff       	callq  63f5 <safe_mul_func_int16_t_s_s>
    af0d:	be de 00 00 00       	mov    $0xde,%esi
    af12:	bf fb 00 00 00       	mov    $0xfb,%edi
    af17:	e8 77 bc ff ff       	callq  6b93 <safe_mul_func_uint8_t_u_u>
    af1c:	0f b6 d0             	movzbl %al,%edx
    af1f:	0f be 85 6c df ff ff 	movsbl -0x2094(%rbp),%eax
    af26:	39 c2                	cmp    %eax,%edx
    af28:	0f 9c c0             	setl   %al
    af2b:	0f b6 d0             	movzbl %al,%edx
    af2e:	48 8b 85 98 e0 ff ff 	mov    -0x1f68(%rbp),%rax
    af35:	89 10                	mov    %edx,(%rax)
    af37:	be 00 00 00 00       	mov    $0x0,%esi
    af3c:	bf 00 00 00 00       	mov    $0x0,%edi
    af41:	e8 bf b6 ff ff       	callq  6605 <safe_sub_func_int32_t_s_s>
    af46:	8b b5 50 df ff ff    	mov    -0x20b0(%rbp),%esi
    af4c:	bf 00 00 00 00       	mov    $0x0,%edi
    af51:	e8 0f 57 00 00       	callq  10665 <func_101>
    af56:	0f b6 95 68 df ff ff 	movzbl -0x2098(%rbp),%edx
    af5d:	83 e2 3f             	and    $0x3f,%edx
    af60:	0f b6 d2             	movzbl %dl,%edx
    af63:	48 39 d0             	cmp    %rdx,%rax
    af66:	0f 92 c2             	setb   %dl
    af69:	48 8b 85 70 e0 ff ff 	mov    -0x1f90(%rbp),%rax
    af70:	0f b6 d2             	movzbl %dl,%edx
    af73:	48 89 10             	mov    %rdx,(%rax)
    af76:	8b 95 54 df ff ff    	mov    -0x20ac(%rbp),%edx
    af7c:	48 8b b5 48 df ff ff 	mov    -0x20b8(%rbp),%rsi
    af83:	48 8d 3d 12 11 01 00 	lea    0x11112(%rip),%rdi        # 1c09c <g_266>
    af8a:	e8 7b 34 00 00       	callq  e40a <func_97>
    af8f:	8b b5 58 df ff ff    	mov    -0x20a8(%rbp),%esi
    af95:	89 c7                	mov    %eax,%edi
    af97:	e8 1a b6 ff ff       	callq  65b6 <safe_add_func_int32_t_s_s>
    af9c:	98                   	cwtl   
    af9d:	8b b5 5c df ff ff    	mov    -0x20a4(%rbp),%esi
    afa3:	89 c7                	mov    %eax,%edi
    afa5:	e8 b9 b5 ff ff       	callq  6563 <safe_rshift_func_int16_t_s_u>
    afaa:	98                   	cwtl   
    afab:	89 c7                	mov    %eax,%edi
    afad:	e8 eb b3 ff ff       	callq  639d <safe_unary_minus_func_int16_t_s>
    afb2:	0f b6 c0             	movzbl %al,%eax
    afb5:	8b b5 60 df ff ff    	mov    -0x20a0(%rbp),%esi
    afbb:	89 c7                	mov    %eax,%edi
    afbd:	e8 b6 bb ff ff       	callq  6b78 <safe_sub_func_uint8_t_u_u>
    afc2:	0f b6 c0             	movzbl %al,%eax
    afc5:	4c 89 fa             	mov    %r15,%rdx
    afc8:	44 89 f6             	mov    %r14d,%esi
    afcb:	89 c7                	mov    %eax,%edi
    afcd:	e8 4f 2f 00 00       	callq  df21 <func_46>
    afd2:	98                   	cwtl   
    afd3:	44 89 ee             	mov    %r13d,%esi
    afd6:	89 c7                	mov    %eax,%edi
    afd8:	e8 39 b4 ff ff       	callq  6416 <safe_mod_func_int16_t_s_s>
    afdd:	66 85 c0             	test   %ax,%ax
    afe0:	74 15                	je     aff7 <func_42+0x118a>
    afe2:	eb 0c                	jmp    aff0 <func_42+0x1183>
    afe4:	0f be 85 6c df ff ff 	movsbl -0x2094(%rbp),%eax
    afeb:	e9 0b 2f 00 00       	jmpq   defb <func_42+0x408e>
    aff0:	ba 01 00 00 00       	mov    $0x1,%edx
    aff5:	eb 05                	jmp    affc <func_42+0x118f>
    aff7:	ba 00 00 00 00       	mov    $0x0,%edx
    affc:	0f b7 85 68 df ff ff 	movzwl -0x2098(%rbp),%eax
    b003:	c1 e0 04             	shl    $0x4,%eax
    b006:	66 c1 f8 0a          	sar    $0xa,%ax
    b00a:	0f be c0             	movsbl %al,%eax
    b00d:	39 c2                	cmp    %eax,%edx
    b00f:	0f 9d c0             	setge  %al
    b012:	0f b6 c0             	movzbl %al,%eax
    b015:	be 03 00 00 00       	mov    $0x3,%esi
    b01a:	89 c7                	mov    %eax,%edi
    b01c:	e8 14 b3 ff ff       	callq  6335 <safe_rshift_func_int8_t_s_s>
    b021:	0f be d0             	movsbl %al,%edx
    b024:	8b 05 66 16 01 00    	mov    0x11666(%rip),%eax        # 1c690 <g_604+0x10>
    b02a:	c1 e0 0b             	shl    $0xb,%eax
    b02d:	c1 f8 17             	sar    $0x17,%eax
    b030:	98                   	cwtl   
    b031:	31 d0                	xor    %edx,%eax
    b033:	89 c6                	mov    %eax,%esi
    b035:	48 8d 3d ec 0f 01 00 	lea    0x10fec(%rip),%rdi        # 1c028 <g_52>
    b03c:	e8 65 30 00 00       	callq  e0a6 <func_83>
    b041:	98                   	cwtl   
    b042:	44 89 e6             	mov    %r12d,%esi
    b045:	89 c7                	mov    %eax,%edi
    b047:	e8 de b4 ff ff       	callq  652a <safe_rshift_func_int16_t_s_s>
    b04c:	0f b7 95 68 df ff ff 	movzwl -0x2098(%rbp),%edx
    b053:	c1 e2 04             	shl    $0x4,%edx
    b056:	66 c1 fa 0a          	sar    $0xa,%dx
    b05a:	66 0f be d2          	movsbw %dl,%dx
    b05e:	66 39 d0             	cmp    %dx,%ax
    b061:	0f 9e c0             	setle  %al
    b064:	0f b6 d0             	movzbl %al,%edx
    b067:	0f b7 85 38 e3 ff ff 	movzwl -0x1cc8(%rbp),%eax
    b06e:	31 c2                	xor    %eax,%edx
    b070:	48 8d 05 cd 14 01 00 	lea    0x114cd(%rip),%rax        # 1c544 <g_495+0x84>
    b077:	66 89 10             	mov    %dx,(%rax)
    b07a:	0f b7 00             	movzwl (%rax),%eax
    b07d:	0f b7 d0             	movzwl %ax,%edx
    b080:	48 8b 85 98 e0 ff ff 	mov    -0x1f68(%rbp),%rax
    b087:	89 10                	mov    %edx,(%rax)
    b089:	48 8b 85 98 e0 ff ff 	mov    -0x1f68(%rbp),%rax
    b090:	8b 00                	mov    (%rax),%eax
    b092:	0f b7 d0             	movzwl %ax,%edx
    b095:	0f b6 85 68 df ff ff 	movzbl -0x2098(%rbp),%eax
    b09c:	83 e0 3f             	and    $0x3f,%eax
    b09f:	0f b6 c0             	movzbl %al,%eax
    b0a2:	44 8b 85 64 df ff ff 	mov    -0x209c(%rbp),%r8d
    b0a9:	89 d9                	mov    %ebx,%ecx
    b0ab:	89 c6                	mov    %eax,%esi
    b0ad:	48 8d 3d 90 0f 01 00 	lea    0x10f90(%rip),%rdi        # 1c044 <g_57+0x14>
    b0b4:	e8 a7 2e 00 00       	callq  df60 <func_75>
    b0b9:	85 c0                	test   %eax,%eax
    b0bb:	0f 84 8a 18 00 00    	je     c94b <func_42+0x2ade>
    b0c1:	48 b8 48 b5 84 92 5b 	movabs $0xadaab75b9284b548,%rax
    b0c8:	b7 aa ad 
    b0cb:	48 89 85 58 e1 ff ff 	mov    %rax,-0x1ea8(%rbp)
    b0d2:	c7 85 2c e0 ff ff ff 	movl   $0xffffffff,-0x1fd4(%rbp)
    b0d9:	ff ff ff 
    b0dc:	c7 85 b0 df ff ff ff 	movl   $0xffffffff,-0x2050(%rbp)
    b0e3:	ff ff ff 
    b0e6:	c7 85 30 e0 ff ff 55 	movl   $0x182a1e55,-0x1fd0(%rbp)
    b0ed:	1e 2a 18 
    b0f0:	48 8d 85 a0 ec ff ff 	lea    -0x1360(%rbp),%rax
    b0f7:	48 8d 15 02 cc 00 00 	lea    0xcc02(%rip),%rdx        # 17d00 <g_1804+0xaa0>
    b0fe:	b9 78 00 00 00       	mov    $0x78,%ecx
    b103:	48 89 c7             	mov    %rax,%rdi
    b106:	48 89 d6             	mov    %rdx,%rsi
    b109:	f3 48 a5             	rep movsq %ds:(%rsi),%es:(%rdi)
    b10c:	48 8d 85 a0 e3 ff ff 	lea    -0x1c60(%rbp),%rax
    b113:	48 8d 15 a6 cf 00 00 	lea    0xcfa6(%rip),%rdx        # 180c0 <g_1804+0xe60>
    b11a:	b9 31 00 00 00       	mov    $0x31,%ecx
    b11f:	48 89 c7             	mov    %rax,%rdi
    b122:	48 89 d6             	mov    %rdx,%rsi
    b125:	f3 48 a5             	rep movsq %ds:(%rsi),%es:(%rdi)
    b128:	48 c7 85 60 e1 ff ff 	movq   $0x5,-0x1ea0(%rbp)
    b12f:	05 00 00 00 
    b133:	c7 85 34 e0 ff ff 44 	movl   $0xb980a144,-0x1fcc(%rbp)
    b13a:	a1 80 b9 
    b13d:	0f b7 05 2a 2d 01 00 	movzwl 0x12d2a(%rip),%eax        # 1de6e <g_1695+0x2e>
    b144:	0f b7 15 25 2d 01 00 	movzwl 0x12d25(%rip),%edx        # 1de70 <g_1695+0x30>
    b14b:	81 e2 ff 1f 00 00    	and    $0x1fff,%edx
    b151:	48 c1 e2 10          	shl    $0x10,%rdx
    b155:	48 09 d0             	or     %rdx,%rax
    b158:	48 c1 e0 23          	shl    $0x23,%rax
    b15c:	48 c1 f8 23          	sar    $0x23,%rax
    b160:	98                   	cwtl   
    b161:	89 c7                	mov    %eax,%edi
    b163:	e8 35 b2 ff ff       	callq  639d <safe_unary_minus_func_int16_t_s>
    b168:	89 c3                	mov    %eax,%ebx
    b16a:	0f b7 85 68 df ff ff 	movzwl -0x2098(%rbp),%eax
    b171:	c1 e0 04             	shl    $0x4,%eax
    b174:	66 c1 f8 0a          	sar    $0xa,%ax
    b178:	0f be d0             	movsbl %al,%edx
    b17b:	48 8b 05 7e 68 01 00 	mov    0x1687e(%rip),%rax        # 21a00 <g_1476>
    b182:	48 8b 00             	mov    (%rax),%rax
    b185:	48 8b 00             	mov    (%rax),%rax
    b188:	0f b6 00             	movzbl (%rax),%eax
    b18b:	0f be c0             	movsbl %al,%eax
    b18e:	89 d6                	mov    %edx,%esi
    b190:	89 c7                	mov    %eax,%edi
    b192:	e8 0a b1 ff ff       	callq  62a1 <safe_lshift_func_int8_t_s_s>
    b197:	66 98                	cbtw   
    b199:	66 39 c3             	cmp    %ax,%bx
    b19c:	0f 95 c0             	setne  %al
    b19f:	0f b6 d0             	movzbl %al,%edx
    b1a2:	48 8b 85 a0 e0 ff ff 	mov    -0x1f60(%rbp),%rax
    b1a9:	8b 00                	mov    (%rax),%eax
    b1ab:	09 c2                	or     %eax,%edx
    b1ad:	48 8b 85 a0 e0 ff ff 	mov    -0x1f60(%rbp),%rax
    b1b4:	89 10                	mov    %edx,(%rax)
    b1b6:	48 83 85 b8 e0 ff ff 	addq   $0x1,-0x1f48(%rbp)
    b1bd:	01 
    b1be:	c7 85 8c df ff ff 04 	movl   $0x4,-0x2074(%rbp)
    b1c5:	00 00 00 
    b1c8:	e9 65 17 00 00       	jmpq   c932 <func_42+0x2ac5>
    b1cd:	48 8d 85 10 e3 ff ff 	lea    -0x1cf0(%rbp),%rax
    b1d4:	48 83 c0 28          	add    $0x28,%rax
    b1d8:	48 89 85 68 e1 ff ff 	mov    %rax,-0x1e98(%rbp)
    b1df:	48 c7 85 70 e1 ff ff 	movq   $0x0,-0x1e90(%rbp)
    b1e6:	00 00 00 00 
    b1ea:	48 8d 05 47 2c 01 00 	lea    0x12c47(%rip),%rax        # 1de38 <g_1656>
    b1f1:	48 89 85 78 e1 ff ff 	mov    %rax,-0x1e88(%rbp)
    b1f8:	48 8d 05 78 bf 00 00 	lea    0xbf78(%rip),%rax        # 17177 <g_1801+0x17>
    b1ff:	48 89 85 80 e0 ff ff 	mov    %rax,-0x1f80(%rbp)
    b206:	48 8d 05 73 60 01 00 	lea    0x16073(%rip),%rax        # 21280 <g_823>
    b20d:	48 89 85 e0 f7 ff ff 	mov    %rax,-0x820(%rbp)
    b214:	48 c7 85 e8 f7 ff ff 	movq   $0x0,-0x818(%rbp)
    b21b:	00 00 00 00 
    b21f:	48 8d 05 5a 60 01 00 	lea    0x1605a(%rip),%rax        # 21280 <g_823>
    b226:	48 89 85 f0 f7 ff ff 	mov    %rax,-0x810(%rbp)
    b22d:	48 8d 85 80 e0 ff ff 	lea    -0x1f80(%rbp),%rax
    b234:	48 89 85 f8 f7 ff ff 	mov    %rax,-0x808(%rbp)
    b23b:	48 8d 05 3e 60 01 00 	lea    0x1603e(%rip),%rax        # 21280 <g_823>
    b242:	48 89 85 00 f8 ff ff 	mov    %rax,-0x800(%rbp)
    b249:	48 c7 85 08 f8 ff ff 	movq   $0x0,-0x7f8(%rbp)
    b250:	00 00 00 00 
    b254:	48 c7 85 10 f8 ff ff 	movq   $0x0,-0x7f0(%rbp)
    b25b:	00 00 00 00 
    b25f:	48 8d 05 1a 60 01 00 	lea    0x1601a(%rip),%rax        # 21280 <g_823>
    b266:	48 89 85 18 f8 ff ff 	mov    %rax,-0x7e8(%rbp)
    b26d:	48 8d 85 80 e0 ff ff 	lea    -0x1f80(%rbp),%rax
    b274:	48 89 85 20 f8 ff ff 	mov    %rax,-0x7e0(%rbp)
    b27b:	48 8d 85 80 e0 ff ff 	lea    -0x1f80(%rbp),%rax
    b282:	48 89 85 28 f8 ff ff 	mov    %rax,-0x7d8(%rbp)
    b289:	48 8d 05 f0 5f 01 00 	lea    0x15ff0(%rip),%rax        # 21280 <g_823>
    b290:	48 89 85 30 f8 ff ff 	mov    %rax,-0x7d0(%rbp)
    b297:	48 8d 85 80 e0 ff ff 	lea    -0x1f80(%rbp),%rax
    b29e:	48 89 85 38 f8 ff ff 	mov    %rax,-0x7c8(%rbp)
    b2a5:	48 8d 05 d4 5f 01 00 	lea    0x15fd4(%rip),%rax        # 21280 <g_823>
    b2ac:	48 89 85 40 f8 ff ff 	mov    %rax,-0x7c0(%rbp)
    b2b3:	48 8d 05 c6 5f 01 00 	lea    0x15fc6(%rip),%rax        # 21280 <g_823>
    b2ba:	48 89 85 48 f8 ff ff 	mov    %rax,-0x7b8(%rbp)
    b2c1:	48 8d 05 b8 5f 01 00 	lea    0x15fb8(%rip),%rax        # 21280 <g_823>
    b2c8:	48 89 85 50 f8 ff ff 	mov    %rax,-0x7b0(%rbp)
    b2cf:	48 8d 85 80 e0 ff ff 	lea    -0x1f80(%rbp),%rax
    b2d6:	48 89 85 58 f8 ff ff 	mov    %rax,-0x7a8(%rbp)
    b2dd:	48 8d 85 80 e0 ff ff 	lea    -0x1f80(%rbp),%rax
    b2e4:	48 89 85 60 f8 ff ff 	mov    %rax,-0x7a0(%rbp)
    b2eb:	48 8d 05 8e 5f 01 00 	lea    0x15f8e(%rip),%rax        # 21280 <g_823>
    b2f2:	48 89 85 68 f8 ff ff 	mov    %rax,-0x798(%rbp)
    b2f9:	48 8d 85 80 e0 ff ff 	lea    -0x1f80(%rbp),%rax
    b300:	48 89 85 70 f8 ff ff 	mov    %rax,-0x790(%rbp)
    b307:	48 8d 05 72 5f 01 00 	lea    0x15f72(%rip),%rax        # 21280 <g_823>
    b30e:	48 89 85 78 f8 ff ff 	mov    %rax,-0x788(%rbp)
    b315:	48 8d 05 64 5f 01 00 	lea    0x15f64(%rip),%rax        # 21280 <g_823>
    b31c:	48 89 85 80 f8 ff ff 	mov    %rax,-0x780(%rbp)
    b323:	48 8d 05 56 5f 01 00 	lea    0x15f56(%rip),%rax        # 21280 <g_823>
    b32a:	48 89 85 88 f8 ff ff 	mov    %rax,-0x778(%rbp)
    b331:	48 8d 05 48 5f 01 00 	lea    0x15f48(%rip),%rax        # 21280 <g_823>
    b338:	48 89 85 90 f8 ff ff 	mov    %rax,-0x770(%rbp)
    b33f:	48 8d 85 80 e0 ff ff 	lea    -0x1f80(%rbp),%rax
    b346:	48 89 85 98 f8 ff ff 	mov    %rax,-0x768(%rbp)
    b34d:	48 8d 05 2c 5f 01 00 	lea    0x15f2c(%rip),%rax        # 21280 <g_823>
    b354:	48 89 85 a0 f8 ff ff 	mov    %rax,-0x760(%rbp)
    b35b:	48 8d 85 80 e0 ff ff 	lea    -0x1f80(%rbp),%rax
    b362:	48 89 85 a8 f8 ff ff 	mov    %rax,-0x758(%rbp)
    b369:	48 8d 85 80 e0 ff ff 	lea    -0x1f80(%rbp),%rax
    b370:	48 89 85 b0 f8 ff ff 	mov    %rax,-0x750(%rbp)
    b377:	48 8d 05 02 5f 01 00 	lea    0x15f02(%rip),%rax        # 21280 <g_823>
    b37e:	48 89 85 b8 f8 ff ff 	mov    %rax,-0x748(%rbp)
    b385:	48 c7 85 c0 f8 ff ff 	movq   $0x0,-0x740(%rbp)
    b38c:	00 00 00 00 
    b390:	48 8d 05 e9 5e 01 00 	lea    0x15ee9(%rip),%rax        # 21280 <g_823>
    b397:	48 89 85 c8 f8 ff ff 	mov    %rax,-0x738(%rbp)
    b39e:	48 8d 05 db 5e 01 00 	lea    0x15edb(%rip),%rax        # 21280 <g_823>
    b3a5:	48 89 85 d0 f8 ff ff 	mov    %rax,-0x730(%rbp)
    b3ac:	48 8d 05 cd 5e 01 00 	lea    0x15ecd(%rip),%rax        # 21280 <g_823>
    b3b3:	48 89 85 d8 f8 ff ff 	mov    %rax,-0x728(%rbp)
    b3ba:	48 8d 05 bf 5e 01 00 	lea    0x15ebf(%rip),%rax        # 21280 <g_823>
    b3c1:	48 89 85 e0 f8 ff ff 	mov    %rax,-0x720(%rbp)
    b3c8:	48 8d 85 80 e0 ff ff 	lea    -0x1f80(%rbp),%rax
    b3cf:	48 89 85 e8 f8 ff ff 	mov    %rax,-0x718(%rbp)
    b3d6:	48 8d 05 a3 5e 01 00 	lea    0x15ea3(%rip),%rax        # 21280 <g_823>
    b3dd:	48 89 85 f0 f8 ff ff 	mov    %rax,-0x710(%rbp)
    b3e4:	48 8d 85 80 e0 ff ff 	lea    -0x1f80(%rbp),%rax
    b3eb:	48 89 85 f8 f8 ff ff 	mov    %rax,-0x708(%rbp)
    b3f2:	48 8d 85 80 e0 ff ff 	lea    -0x1f80(%rbp),%rax
    b3f9:	48 89 85 00 f9 ff ff 	mov    %rax,-0x700(%rbp)
    b400:	48 8d 85 80 e0 ff ff 	lea    -0x1f80(%rbp),%rax
    b407:	48 89 85 08 f9 ff ff 	mov    %rax,-0x6f8(%rbp)
    b40e:	48 8d 05 6b 5e 01 00 	lea    0x15e6b(%rip),%rax        # 21280 <g_823>
    b415:	48 89 85 10 f9 ff ff 	mov    %rax,-0x6f0(%rbp)
    b41c:	48 8d 85 80 e0 ff ff 	lea    -0x1f80(%rbp),%rax
    b423:	48 89 85 18 f9 ff ff 	mov    %rax,-0x6e8(%rbp)
    b42a:	48 8d 05 4f 5e 01 00 	lea    0x15e4f(%rip),%rax        # 21280 <g_823>
    b431:	48 89 85 20 f9 ff ff 	mov    %rax,-0x6e0(%rbp)
    b438:	48 8d 05 41 5e 01 00 	lea    0x15e41(%rip),%rax        # 21280 <g_823>
    b43f:	48 89 85 28 f9 ff ff 	mov    %rax,-0x6d8(%rbp)
    b446:	48 8d 85 80 e0 ff ff 	lea    -0x1f80(%rbp),%rax
    b44d:	48 89 85 30 f9 ff ff 	mov    %rax,-0x6d0(%rbp)
    b454:	48 8d 05 25 5e 01 00 	lea    0x15e25(%rip),%rax        # 21280 <g_823>
    b45b:	48 89 85 38 f9 ff ff 	mov    %rax,-0x6c8(%rbp)
    b462:	48 8d 85 80 e0 ff ff 	lea    -0x1f80(%rbp),%rax
    b469:	48 89 85 40 f9 ff ff 	mov    %rax,-0x6c0(%rbp)
    b470:	48 8d 85 80 e0 ff ff 	lea    -0x1f80(%rbp),%rax
    b477:	48 89 85 48 f9 ff ff 	mov    %rax,-0x6b8(%rbp)
    b47e:	48 c7 85 50 f9 ff ff 	movq   $0x0,-0x6b0(%rbp)
    b485:	00 00 00 00 
    b489:	48 8d 05 f0 5d 01 00 	lea    0x15df0(%rip),%rax        # 21280 <g_823>
    b490:	48 89 85 58 f9 ff ff 	mov    %rax,-0x6a8(%rbp)
    b497:	48 8d 85 80 e0 ff ff 	lea    -0x1f80(%rbp),%rax
    b49e:	48 89 85 60 f9 ff ff 	mov    %rax,-0x6a0(%rbp)
    b4a5:	48 8d 05 d4 5d 01 00 	lea    0x15dd4(%rip),%rax        # 21280 <g_823>
    b4ac:	48 89 85 68 f9 ff ff 	mov    %rax,-0x698(%rbp)
    b4b3:	48 8d 05 c6 5d 01 00 	lea    0x15dc6(%rip),%rax        # 21280 <g_823>
    b4ba:	48 89 85 70 f9 ff ff 	mov    %rax,-0x690(%rbp)
    b4c1:	48 8d 85 80 e0 ff ff 	lea    -0x1f80(%rbp),%rax
    b4c8:	48 89 85 78 f9 ff ff 	mov    %rax,-0x688(%rbp)
    b4cf:	48 c7 85 80 f9 ff ff 	movq   $0x0,-0x680(%rbp)
    b4d6:	00 00 00 00 
    b4da:	48 8d 05 9f 5d 01 00 	lea    0x15d9f(%rip),%rax        # 21280 <g_823>
    b4e1:	48 89 85 88 f9 ff ff 	mov    %rax,-0x678(%rbp)
    b4e8:	48 8d 85 80 e0 ff ff 	lea    -0x1f80(%rbp),%rax
    b4ef:	48 89 85 90 f9 ff ff 	mov    %rax,-0x670(%rbp)
    b4f6:	48 8d 05 83 5d 01 00 	lea    0x15d83(%rip),%rax        # 21280 <g_823>
    b4fd:	48 89 85 98 f9 ff ff 	mov    %rax,-0x668(%rbp)
    b504:	48 8d 05 75 5d 01 00 	lea    0x15d75(%rip),%rax        # 21280 <g_823>
    b50b:	48 89 85 a0 f9 ff ff 	mov    %rax,-0x660(%rbp)
    b512:	48 8d 05 67 5d 01 00 	lea    0x15d67(%rip),%rax        # 21280 <g_823>
    b519:	48 89 85 a8 f9 ff ff 	mov    %rax,-0x658(%rbp)
    b520:	48 8d 05 59 5d 01 00 	lea    0x15d59(%rip),%rax        # 21280 <g_823>
    b527:	48 89 85 b0 f9 ff ff 	mov    %rax,-0x650(%rbp)
    b52e:	48 8d 85 80 e0 ff ff 	lea    -0x1f80(%rbp),%rax
    b535:	48 89 85 b8 f9 ff ff 	mov    %rax,-0x648(%rbp)
    b53c:	48 8d 85 80 e0 ff ff 	lea    -0x1f80(%rbp),%rax
    b543:	48 89 85 c0 f9 ff ff 	mov    %rax,-0x640(%rbp)
    b54a:	48 8d 05 2f 5d 01 00 	lea    0x15d2f(%rip),%rax        # 21280 <g_823>
    b551:	48 89 85 c8 f9 ff ff 	mov    %rax,-0x638(%rbp)
    b558:	48 8d 85 80 e0 ff ff 	lea    -0x1f80(%rbp),%rax
    b55f:	48 89 85 d0 f9 ff ff 	mov    %rax,-0x630(%rbp)
    b566:	48 8d 05 13 5d 01 00 	lea    0x15d13(%rip),%rax        # 21280 <g_823>
    b56d:	48 89 85 d8 f9 ff ff 	mov    %rax,-0x628(%rbp)
    b574:	48 c7 85 e0 f9 ff ff 	movq   $0x0,-0x620(%rbp)
    b57b:	00 00 00 00 
    b57f:	48 8d 85 80 e0 ff ff 	lea    -0x1f80(%rbp),%rax
    b586:	48 89 85 e8 f9 ff ff 	mov    %rax,-0x618(%rbp)
    b58d:	48 8d 05 ec 5c 01 00 	lea    0x15cec(%rip),%rax        # 21280 <g_823>
    b594:	48 89 85 f0 f9 ff ff 	mov    %rax,-0x610(%rbp)
    b59b:	48 8d 85 80 e0 ff ff 	lea    -0x1f80(%rbp),%rax
    b5a2:	48 89 85 f8 f9 ff ff 	mov    %rax,-0x608(%rbp)
    b5a9:	48 8d 05 d0 5c 01 00 	lea    0x15cd0(%rip),%rax        # 21280 <g_823>
    b5b0:	48 89 85 00 fa ff ff 	mov    %rax,-0x600(%rbp)
    b5b7:	48 8d 85 80 e0 ff ff 	lea    -0x1f80(%rbp),%rax
    b5be:	48 89 85 08 fa ff ff 	mov    %rax,-0x5f8(%rbp)
    b5c5:	48 c7 85 10 fa ff ff 	movq   $0x0,-0x5f0(%rbp)
    b5cc:	00 00 00 00 
    b5d0:	48 8d 05 a9 5c 01 00 	lea    0x15ca9(%rip),%rax        # 21280 <g_823>
    b5d7:	48 89 85 18 fa ff ff 	mov    %rax,-0x5e8(%rbp)
    b5de:	48 8d 05 9b 5c 01 00 	lea    0x15c9b(%rip),%rax        # 21280 <g_823>
    b5e5:	48 89 85 20 fa ff ff 	mov    %rax,-0x5e0(%rbp)
    b5ec:	48 8d 85 80 e0 ff ff 	lea    -0x1f80(%rbp),%rax
    b5f3:	48 89 85 28 fa ff ff 	mov    %rax,-0x5d8(%rbp)
    b5fa:	48 8d 05 7f 5c 01 00 	lea    0x15c7f(%rip),%rax        # 21280 <g_823>
    b601:	48 89 85 30 fa ff ff 	mov    %rax,-0x5d0(%rbp)
    b608:	48 8d 85 80 e0 ff ff 	lea    -0x1f80(%rbp),%rax
    b60f:	48 89 85 38 fa ff ff 	mov    %rax,-0x5c8(%rbp)
    b616:	48 8d 05 63 5c 01 00 	lea    0x15c63(%rip),%rax        # 21280 <g_823>
    b61d:	48 89 85 40 fa ff ff 	mov    %rax,-0x5c0(%rbp)
    b624:	48 c7 85 48 fa ff ff 	movq   $0x0,-0x5b8(%rbp)
    b62b:	00 00 00 00 
    b62f:	48 8d 05 4a 5c 01 00 	lea    0x15c4a(%rip),%rax        # 21280 <g_823>
    b636:	48 89 85 50 fa ff ff 	mov    %rax,-0x5b0(%rbp)
    b63d:	48 8d 05 3c 5c 01 00 	lea    0x15c3c(%rip),%rax        # 21280 <g_823>
    b644:	48 89 85 58 fa ff ff 	mov    %rax,-0x5a8(%rbp)
    b64b:	48 8d 85 80 e0 ff ff 	lea    -0x1f80(%rbp),%rax
    b652:	48 89 85 60 fa ff ff 	mov    %rax,-0x5a0(%rbp)
    b659:	48 8d 05 20 5c 01 00 	lea    0x15c20(%rip),%rax        # 21280 <g_823>
    b660:	48 89 85 68 fa ff ff 	mov    %rax,-0x598(%rbp)
    b667:	48 8d 05 12 5c 01 00 	lea    0x15c12(%rip),%rax        # 21280 <g_823>
    b66e:	48 89 85 70 fa ff ff 	mov    %rax,-0x590(%rbp)
    b675:	48 8d 05 04 5c 01 00 	lea    0x15c04(%rip),%rax        # 21280 <g_823>
    b67c:	48 89 85 78 fa ff ff 	mov    %rax,-0x588(%rbp)
    b683:	48 8d 85 80 e0 ff ff 	lea    -0x1f80(%rbp),%rax
    b68a:	48 89 85 80 fa ff ff 	mov    %rax,-0x580(%rbp)
    b691:	48 8d 85 80 e0 ff ff 	lea    -0x1f80(%rbp),%rax
    b698:	48 89 85 88 fa ff ff 	mov    %rax,-0x578(%rbp)
    b69f:	48 8d 05 da 5b 01 00 	lea    0x15bda(%rip),%rax        # 21280 <g_823>
    b6a6:	48 89 85 90 fa ff ff 	mov    %rax,-0x570(%rbp)
    b6ad:	48 8d 85 80 e0 ff ff 	lea    -0x1f80(%rbp),%rax
    b6b4:	48 89 85 98 fa ff ff 	mov    %rax,-0x568(%rbp)
    b6bb:	48 8d 05 be 5b 01 00 	lea    0x15bbe(%rip),%rax        # 21280 <g_823>
    b6c2:	48 89 85 a0 fa ff ff 	mov    %rax,-0x560(%rbp)
    b6c9:	48 8d 05 b0 5b 01 00 	lea    0x15bb0(%rip),%rax        # 21280 <g_823>
    b6d0:	48 89 85 a8 fa ff ff 	mov    %rax,-0x558(%rbp)
    b6d7:	48 8d 05 a2 5b 01 00 	lea    0x15ba2(%rip),%rax        # 21280 <g_823>
    b6de:	48 89 85 b0 fa ff ff 	mov    %rax,-0x550(%rbp)
    b6e5:	48 8d 05 94 5b 01 00 	lea    0x15b94(%rip),%rax        # 21280 <g_823>
    b6ec:	48 89 85 b8 fa ff ff 	mov    %rax,-0x548(%rbp)
    b6f3:	48 8d 05 86 5b 01 00 	lea    0x15b86(%rip),%rax        # 21280 <g_823>
    b6fa:	48 89 85 c0 fa ff ff 	mov    %rax,-0x540(%rbp)
    b701:	48 8d 05 78 5b 01 00 	lea    0x15b78(%rip),%rax        # 21280 <g_823>
    b708:	48 89 85 c8 fa ff ff 	mov    %rax,-0x538(%rbp)
    b70f:	48 8d 05 6a 5b 01 00 	lea    0x15b6a(%rip),%rax        # 21280 <g_823>
    b716:	48 89 85 d0 fa ff ff 	mov    %rax,-0x530(%rbp)
    b71d:	48 8d 05 5c 5b 01 00 	lea    0x15b5c(%rip),%rax        # 21280 <g_823>
    b724:	48 89 85 d8 fa ff ff 	mov    %rax,-0x528(%rbp)
    b72b:	48 c7 85 e0 fa ff ff 	movq   $0x0,-0x520(%rbp)
    b732:	00 00 00 00 
    b736:	48 8d 85 80 e0 ff ff 	lea    -0x1f80(%rbp),%rax
    b73d:	48 89 85 e8 fa ff ff 	mov    %rax,-0x518(%rbp)
    b744:	48 8d 85 80 e0 ff ff 	lea    -0x1f80(%rbp),%rax
    b74b:	48 89 85 f0 fa ff ff 	mov    %rax,-0x510(%rbp)
    b752:	48 8d 05 27 5b 01 00 	lea    0x15b27(%rip),%rax        # 21280 <g_823>
    b759:	48 89 85 f8 fa ff ff 	mov    %rax,-0x508(%rbp)
    b760:	48 8d 05 19 5b 01 00 	lea    0x15b19(%rip),%rax        # 21280 <g_823>
    b767:	48 89 85 00 fb ff ff 	mov    %rax,-0x500(%rbp)
    b76e:	48 8d 05 0b 5b 01 00 	lea    0x15b0b(%rip),%rax        # 21280 <g_823>
    b775:	48 89 85 08 fb ff ff 	mov    %rax,-0x4f8(%rbp)
    b77c:	48 8d 05 fd 5a 01 00 	lea    0x15afd(%rip),%rax        # 21280 <g_823>
    b783:	48 89 85 10 fb ff ff 	mov    %rax,-0x4f0(%rbp)
    b78a:	48 8d 05 ef 5a 01 00 	lea    0x15aef(%rip),%rax        # 21280 <g_823>
    b791:	48 89 85 18 fb ff ff 	mov    %rax,-0x4e8(%rbp)
    b798:	48 8d 05 e1 5a 01 00 	lea    0x15ae1(%rip),%rax        # 21280 <g_823>
    b79f:	48 89 85 20 fb ff ff 	mov    %rax,-0x4e0(%rbp)
    b7a6:	48 8d 05 d3 5a 01 00 	lea    0x15ad3(%rip),%rax        # 21280 <g_823>
    b7ad:	48 89 85 28 fb ff ff 	mov    %rax,-0x4d8(%rbp)
    b7b4:	48 8d 85 80 e0 ff ff 	lea    -0x1f80(%rbp),%rax
    b7bb:	48 89 85 30 fb ff ff 	mov    %rax,-0x4d0(%rbp)
    b7c2:	48 8d 85 80 e0 ff ff 	lea    -0x1f80(%rbp),%rax
    b7c9:	48 89 85 38 fb ff ff 	mov    %rax,-0x4c8(%rbp)
    b7d0:	48 8d 85 80 e0 ff ff 	lea    -0x1f80(%rbp),%rax
    b7d7:	48 89 85 40 fb ff ff 	mov    %rax,-0x4c0(%rbp)
    b7de:	48 8d 85 80 e0 ff ff 	lea    -0x1f80(%rbp),%rax
    b7e5:	48 89 85 48 fb ff ff 	mov    %rax,-0x4b8(%rbp)
    b7ec:	48 8d 05 8d 5a 01 00 	lea    0x15a8d(%rip),%rax        # 21280 <g_823>
    b7f3:	48 89 85 50 fb ff ff 	mov    %rax,-0x4b0(%rbp)
    b7fa:	48 8d 85 80 e0 ff ff 	lea    -0x1f80(%rbp),%rax
    b801:	48 89 85 58 fb ff ff 	mov    %rax,-0x4a8(%rbp)
    b808:	48 8d 05 71 5a 01 00 	lea    0x15a71(%rip),%rax        # 21280 <g_823>
    b80f:	48 89 85 60 fb ff ff 	mov    %rax,-0x4a0(%rbp)
    b816:	48 8d 05 63 5a 01 00 	lea    0x15a63(%rip),%rax        # 21280 <g_823>
    b81d:	48 89 85 68 fb ff ff 	mov    %rax,-0x498(%rbp)
    b824:	48 8d 05 55 5a 01 00 	lea    0x15a55(%rip),%rax        # 21280 <g_823>
    b82b:	48 89 85 70 fb ff ff 	mov    %rax,-0x490(%rbp)
    b832:	48 8d 05 47 5a 01 00 	lea    0x15a47(%rip),%rax        # 21280 <g_823>
    b839:	48 89 85 78 fb ff ff 	mov    %rax,-0x488(%rbp)
    b840:	48 8d 85 80 e0 ff ff 	lea    -0x1f80(%rbp),%rax
    b847:	48 89 85 80 fb ff ff 	mov    %rax,-0x480(%rbp)
    b84e:	48 8d 85 80 e0 ff ff 	lea    -0x1f80(%rbp),%rax
    b855:	48 89 85 88 fb ff ff 	mov    %rax,-0x478(%rbp)
    b85c:	48 c7 85 90 fb ff ff 	movq   $0x0,-0x470(%rbp)
    b863:	00 00 00 00 
    b867:	48 8d 05 12 5a 01 00 	lea    0x15a12(%rip),%rax        # 21280 <g_823>
    b86e:	48 89 85 98 fb ff ff 	mov    %rax,-0x468(%rbp)
    b875:	48 8d 05 04 5a 01 00 	lea    0x15a04(%rip),%rax        # 21280 <g_823>
    b87c:	48 89 85 a0 fb ff ff 	mov    %rax,-0x460(%rbp)
    b883:	48 8d 05 f6 59 01 00 	lea    0x159f6(%rip),%rax        # 21280 <g_823>
    b88a:	48 89 85 a8 fb ff ff 	mov    %rax,-0x458(%rbp)
    b891:	48 8d 05 e8 59 01 00 	lea    0x159e8(%rip),%rax        # 21280 <g_823>
    b898:	48 89 85 b0 fb ff ff 	mov    %rax,-0x450(%rbp)
    b89f:	48 8d 05 da 59 01 00 	lea    0x159da(%rip),%rax        # 21280 <g_823>
    b8a6:	48 89 85 b8 fb ff ff 	mov    %rax,-0x448(%rbp)
    b8ad:	48 8d 05 cc 59 01 00 	lea    0x159cc(%rip),%rax        # 21280 <g_823>
    b8b4:	48 89 85 c0 fb ff ff 	mov    %rax,-0x440(%rbp)
    b8bb:	48 8d 05 be 59 01 00 	lea    0x159be(%rip),%rax        # 21280 <g_823>
    b8c2:	48 89 85 c8 fb ff ff 	mov    %rax,-0x438(%rbp)
    b8c9:	48 8d 85 80 e0 ff ff 	lea    -0x1f80(%rbp),%rax
    b8d0:	48 89 85 d0 fb ff ff 	mov    %rax,-0x430(%rbp)
    b8d7:	48 8d 05 a2 59 01 00 	lea    0x159a2(%rip),%rax        # 21280 <g_823>
    b8de:	48 89 85 d8 fb ff ff 	mov    %rax,-0x428(%rbp)
    b8e5:	48 8d 05 94 59 01 00 	lea    0x15994(%rip),%rax        # 21280 <g_823>
    b8ec:	48 89 85 e0 fb ff ff 	mov    %rax,-0x420(%rbp)
    b8f3:	48 8d 05 86 59 01 00 	lea    0x15986(%rip),%rax        # 21280 <g_823>
    b8fa:	48 89 85 e8 fb ff ff 	mov    %rax,-0x418(%rbp)
    b901:	48 8d 05 78 59 01 00 	lea    0x15978(%rip),%rax        # 21280 <g_823>
    b908:	48 89 85 f0 fb ff ff 	mov    %rax,-0x410(%rbp)
    b90f:	48 8d 85 80 e0 ff ff 	lea    -0x1f80(%rbp),%rax
    b916:	48 89 85 f8 fb ff ff 	mov    %rax,-0x408(%rbp)
    b91d:	48 8d 85 80 e0 ff ff 	lea    -0x1f80(%rbp),%rax
    b924:	48 89 85 00 fc ff ff 	mov    %rax,-0x400(%rbp)
    b92b:	48 c7 85 08 fc ff ff 	movq   $0x0,-0x3f8(%rbp)
    b932:	00 00 00 00 
    b936:	48 8d 85 80 e0 ff ff 	lea    -0x1f80(%rbp),%rax
    b93d:	48 89 85 10 fc ff ff 	mov    %rax,-0x3f0(%rbp)
    b944:	48 8d 05 35 59 01 00 	lea    0x15935(%rip),%rax        # 21280 <g_823>
    b94b:	48 89 85 18 fc ff ff 	mov    %rax,-0x3e8(%rbp)
    b952:	48 c7 85 20 fc ff ff 	movq   $0x0,-0x3e0(%rbp)
    b959:	00 00 00 00 
    b95d:	48 8d 85 80 e0 ff ff 	lea    -0x1f80(%rbp),%rax
    b964:	48 89 85 28 fc ff ff 	mov    %rax,-0x3d8(%rbp)
    b96b:	48 8d 85 80 e0 ff ff 	lea    -0x1f80(%rbp),%rax
    b972:	48 89 85 30 fc ff ff 	mov    %rax,-0x3d0(%rbp)
    b979:	48 8d 05 00 59 01 00 	lea    0x15900(%rip),%rax        # 21280 <g_823>
    b980:	48 89 85 38 fc ff ff 	mov    %rax,-0x3c8(%rbp)
    b987:	48 c7 85 40 fc ff ff 	movq   $0x0,-0x3c0(%rbp)
    b98e:	00 00 00 00 
    b992:	48 8d 05 e7 58 01 00 	lea    0x158e7(%rip),%rax        # 21280 <g_823>
    b999:	48 89 85 48 fc ff ff 	mov    %rax,-0x3b8(%rbp)
    b9a0:	48 8d 05 d9 58 01 00 	lea    0x158d9(%rip),%rax        # 21280 <g_823>
    b9a7:	48 89 85 50 fc ff ff 	mov    %rax,-0x3b0(%rbp)
    b9ae:	48 8d 05 cb 58 01 00 	lea    0x158cb(%rip),%rax        # 21280 <g_823>
    b9b5:	48 89 85 58 fc ff ff 	mov    %rax,-0x3a8(%rbp)
    b9bc:	48 8d 05 bd 58 01 00 	lea    0x158bd(%rip),%rax        # 21280 <g_823>
    b9c3:	48 89 85 60 fc ff ff 	mov    %rax,-0x3a0(%rbp)
    b9ca:	48 c7 85 68 fc ff ff 	movq   $0x0,-0x398(%rbp)
    b9d1:	00 00 00 00 
    b9d5:	48 8d 05 a4 58 01 00 	lea    0x158a4(%rip),%rax        # 21280 <g_823>
    b9dc:	48 89 85 70 fc ff ff 	mov    %rax,-0x390(%rbp)
    b9e3:	48 c7 85 78 fc ff ff 	movq   $0x0,-0x388(%rbp)
    b9ea:	00 00 00 00 
    b9ee:	48 8d 85 80 e0 ff ff 	lea    -0x1f80(%rbp),%rax
    b9f5:	48 89 85 80 fc ff ff 	mov    %rax,-0x380(%rbp)
    b9fc:	48 8d 05 7d 58 01 00 	lea    0x1587d(%rip),%rax        # 21280 <g_823>
    ba03:	48 89 85 88 fc ff ff 	mov    %rax,-0x378(%rbp)
    ba0a:	48 8d 05 6f 58 01 00 	lea    0x1586f(%rip),%rax        # 21280 <g_823>
    ba11:	48 89 85 90 fc ff ff 	mov    %rax,-0x370(%rbp)
    ba18:	48 8d 85 80 e0 ff ff 	lea    -0x1f80(%rbp),%rax
    ba1f:	48 89 85 98 fc ff ff 	mov    %rax,-0x368(%rbp)
    ba26:	48 c7 85 a0 fc ff ff 	movq   $0x0,-0x360(%rbp)
    ba2d:	00 00 00 00 
    ba31:	48 8d 05 48 58 01 00 	lea    0x15848(%rip),%rax        # 21280 <g_823>
    ba38:	48 89 85 a8 fc ff ff 	mov    %rax,-0x358(%rbp)
    ba3f:	48 8d 05 3a 58 01 00 	lea    0x1583a(%rip),%rax        # 21280 <g_823>
    ba46:	48 89 85 b0 fc ff ff 	mov    %rax,-0x350(%rbp)
    ba4d:	48 8d 05 2c 58 01 00 	lea    0x1582c(%rip),%rax        # 21280 <g_823>
    ba54:	48 89 85 b8 fc ff ff 	mov    %rax,-0x348(%rbp)
    ba5b:	48 c7 85 c0 fc ff ff 	movq   $0x0,-0x340(%rbp)
    ba62:	00 00 00 00 
    ba66:	48 8d 85 80 e0 ff ff 	lea    -0x1f80(%rbp),%rax
    ba6d:	48 89 85 c8 fc ff ff 	mov    %rax,-0x338(%rbp)
    ba74:	48 c7 85 d0 fc ff ff 	movq   $0x0,-0x330(%rbp)
    ba7b:	00 00 00 00 
    ba7f:	48 8d 05 fa 57 01 00 	lea    0x157fa(%rip),%rax        # 21280 <g_823>
    ba86:	48 89 85 d8 fc ff ff 	mov    %rax,-0x328(%rbp)
    ba8d:	48 8d 05 ec 57 01 00 	lea    0x157ec(%rip),%rax        # 21280 <g_823>
    ba94:	48 89 85 e0 fc ff ff 	mov    %rax,-0x320(%rbp)
    ba9b:	48 8d 05 de 57 01 00 	lea    0x157de(%rip),%rax        # 21280 <g_823>
    baa2:	48 89 85 e8 fc ff ff 	mov    %rax,-0x318(%rbp)
    baa9:	48 8d 85 80 e0 ff ff 	lea    -0x1f80(%rbp),%rax
    bab0:	48 89 85 f0 fc ff ff 	mov    %rax,-0x310(%rbp)
    bab7:	48 8d 85 80 e0 ff ff 	lea    -0x1f80(%rbp),%rax
    babe:	48 89 85 f8 fc ff ff 	mov    %rax,-0x308(%rbp)
    bac5:	48 8d 85 80 e0 ff ff 	lea    -0x1f80(%rbp),%rax
    bacc:	48 89 85 00 fd ff ff 	mov    %rax,-0x300(%rbp)
    bad3:	48 8d 85 80 e0 ff ff 	lea    -0x1f80(%rbp),%rax
    bada:	48 89 85 08 fd ff ff 	mov    %rax,-0x2f8(%rbp)
    bae1:	48 8d 85 80 e0 ff ff 	lea    -0x1f80(%rbp),%rax
    bae8:	48 89 85 10 fd ff ff 	mov    %rax,-0x2f0(%rbp)
    baef:	48 8d 85 80 e0 ff ff 	lea    -0x1f80(%rbp),%rax
    baf6:	48 89 85 18 fd ff ff 	mov    %rax,-0x2e8(%rbp)
    bafd:	48 8d 85 80 e0 ff ff 	lea    -0x1f80(%rbp),%rax
    bb04:	48 89 85 20 fd ff ff 	mov    %rax,-0x2e0(%rbp)
    bb0b:	48 8d 85 80 e0 ff ff 	lea    -0x1f80(%rbp),%rax
    bb12:	48 89 85 28 fd ff ff 	mov    %rax,-0x2d8(%rbp)
    bb19:	48 c7 85 30 fd ff ff 	movq   $0x0,-0x2d0(%rbp)
    bb20:	00 00 00 00 
    bb24:	48 8d 85 80 e0 ff ff 	lea    -0x1f80(%rbp),%rax
    bb2b:	48 89 85 38 fd ff ff 	mov    %rax,-0x2c8(%rbp)
    bb32:	48 8d 05 47 57 01 00 	lea    0x15747(%rip),%rax        # 21280 <g_823>
    bb39:	48 89 85 40 fd ff ff 	mov    %rax,-0x2c0(%rbp)
    bb40:	48 8d 05 39 57 01 00 	lea    0x15739(%rip),%rax        # 21280 <g_823>
    bb47:	48 89 85 48 fd ff ff 	mov    %rax,-0x2b8(%rbp)
    bb4e:	48 8d 85 80 e0 ff ff 	lea    -0x1f80(%rbp),%rax
    bb55:	48 89 85 50 fd ff ff 	mov    %rax,-0x2b0(%rbp)
    bb5c:	48 8d 05 1d 57 01 00 	lea    0x1571d(%rip),%rax        # 21280 <g_823>
    bb63:	48 89 85 58 fd ff ff 	mov    %rax,-0x2a8(%rbp)
    bb6a:	48 8d 85 80 e0 ff ff 	lea    -0x1f80(%rbp),%rax
    bb71:	48 89 85 60 fd ff ff 	mov    %rax,-0x2a0(%rbp)
    bb78:	48 8d 85 80 e0 ff ff 	lea    -0x1f80(%rbp),%rax
    bb7f:	48 89 85 68 fd ff ff 	mov    %rax,-0x298(%rbp)
    bb86:	48 8d 85 80 e0 ff ff 	lea    -0x1f80(%rbp),%rax
    bb8d:	48 89 85 70 fd ff ff 	mov    %rax,-0x290(%rbp)
    bb94:	48 8d 05 e5 56 01 00 	lea    0x156e5(%rip),%rax        # 21280 <g_823>
    bb9b:	48 89 85 78 fd ff ff 	mov    %rax,-0x288(%rbp)
    bba2:	48 8d 85 80 e0 ff ff 	lea    -0x1f80(%rbp),%rax
    bba9:	48 89 85 80 fd ff ff 	mov    %rax,-0x280(%rbp)
    bbb0:	48 8d 05 c9 56 01 00 	lea    0x156c9(%rip),%rax        # 21280 <g_823>
    bbb7:	48 89 85 88 fd ff ff 	mov    %rax,-0x278(%rbp)
    bbbe:	48 8d 85 80 e0 ff ff 	lea    -0x1f80(%rbp),%rax
    bbc5:	48 89 85 90 fd ff ff 	mov    %rax,-0x270(%rbp)
    bbcc:	48 8d 05 ad 56 01 00 	lea    0x156ad(%rip),%rax        # 21280 <g_823>
    bbd3:	48 89 85 98 fd ff ff 	mov    %rax,-0x268(%rbp)
    bbda:	48 8d 85 80 e0 ff ff 	lea    -0x1f80(%rbp),%rax
    bbe1:	48 89 85 a0 fd ff ff 	mov    %rax,-0x260(%rbp)
    bbe8:	48 8d 05 91 56 01 00 	lea    0x15691(%rip),%rax        # 21280 <g_823>
    bbef:	48 89 85 a8 fd ff ff 	mov    %rax,-0x258(%rbp)
    bbf6:	48 8d 05 83 56 01 00 	lea    0x15683(%rip),%rax        # 21280 <g_823>
    bbfd:	48 89 85 b0 fd ff ff 	mov    %rax,-0x250(%rbp)
    bc04:	48 8d 85 80 e0 ff ff 	lea    -0x1f80(%rbp),%rax
    bc0b:	48 89 85 b8 fd ff ff 	mov    %rax,-0x248(%rbp)
    bc12:	48 8d 05 67 56 01 00 	lea    0x15667(%rip),%rax        # 21280 <g_823>
    bc19:	48 89 85 c0 fd ff ff 	mov    %rax,-0x240(%rbp)
    bc20:	48 8d 05 59 56 01 00 	lea    0x15659(%rip),%rax        # 21280 <g_823>
    bc27:	48 89 85 c8 fd ff ff 	mov    %rax,-0x238(%rbp)
    bc2e:	48 8d 05 4b 56 01 00 	lea    0x1564b(%rip),%rax        # 21280 <g_823>
    bc35:	48 89 85 d0 fd ff ff 	mov    %rax,-0x230(%rbp)
    bc3c:	48 8d 05 3d 56 01 00 	lea    0x1563d(%rip),%rax        # 21280 <g_823>
    bc43:	48 89 85 d8 fd ff ff 	mov    %rax,-0x228(%rbp)
    bc4a:	48 8d 85 80 e0 ff ff 	lea    -0x1f80(%rbp),%rax
    bc51:	48 89 85 e0 fd ff ff 	mov    %rax,-0x220(%rbp)
    bc58:	48 8d 85 80 e0 ff ff 	lea    -0x1f80(%rbp),%rax
    bc5f:	48 89 85 e8 fd ff ff 	mov    %rax,-0x218(%rbp)
    bc66:	48 c7 85 f0 fd ff ff 	movq   $0x0,-0x210(%rbp)
    bc6d:	00 00 00 00 
    bc71:	48 c7 85 f8 fd ff ff 	movq   $0x0,-0x208(%rbp)
    bc78:	00 00 00 00 
    bc7c:	48 8d 85 80 e0 ff ff 	lea    -0x1f80(%rbp),%rax
    bc83:	48 89 85 00 fe ff ff 	mov    %rax,-0x200(%rbp)
    bc8a:	48 8d 05 ef 55 01 00 	lea    0x155ef(%rip),%rax        # 21280 <g_823>
    bc91:	48 89 85 08 fe ff ff 	mov    %rax,-0x1f8(%rbp)
    bc98:	48 8d 05 e1 55 01 00 	lea    0x155e1(%rip),%rax        # 21280 <g_823>
    bc9f:	48 89 85 10 fe ff ff 	mov    %rax,-0x1f0(%rbp)
    bca6:	48 8d 85 80 e0 ff ff 	lea    -0x1f80(%rbp),%rax
    bcad:	48 89 85 18 fe ff ff 	mov    %rax,-0x1e8(%rbp)
    bcb4:	48 8d 85 80 e0 ff ff 	lea    -0x1f80(%rbp),%rax
    bcbb:	48 89 85 20 fe ff ff 	mov    %rax,-0x1e0(%rbp)
    bcc2:	48 8d 05 b7 55 01 00 	lea    0x155b7(%rip),%rax        # 21280 <g_823>
    bcc9:	48 89 85 28 fe ff ff 	mov    %rax,-0x1d8(%rbp)
    bcd0:	48 8d 05 a9 55 01 00 	lea    0x155a9(%rip),%rax        # 21280 <g_823>
    bcd7:	48 89 85 30 fe ff ff 	mov    %rax,-0x1d0(%rbp)
    bcde:	48 8d 05 9b 55 01 00 	lea    0x1559b(%rip),%rax        # 21280 <g_823>
    bce5:	48 89 85 38 fe ff ff 	mov    %rax,-0x1c8(%rbp)
    bcec:	48 8d 85 80 e0 ff ff 	lea    -0x1f80(%rbp),%rax
    bcf3:	48 89 85 40 fe ff ff 	mov    %rax,-0x1c0(%rbp)
    bcfa:	48 8d 05 7f 55 01 00 	lea    0x1557f(%rip),%rax        # 21280 <g_823>
    bd01:	48 89 85 48 fe ff ff 	mov    %rax,-0x1b8(%rbp)
    bd08:	48 8d 05 71 55 01 00 	lea    0x15571(%rip),%rax        # 21280 <g_823>
    bd0f:	48 89 85 50 fe ff ff 	mov    %rax,-0x1b0(%rbp)
    bd16:	48 8d 05 63 55 01 00 	lea    0x15563(%rip),%rax        # 21280 <g_823>
    bd1d:	48 89 85 58 fe ff ff 	mov    %rax,-0x1a8(%rbp)
    bd24:	48 8d 05 55 55 01 00 	lea    0x15555(%rip),%rax        # 21280 <g_823>
    bd2b:	48 89 85 60 fe ff ff 	mov    %rax,-0x1a0(%rbp)
    bd32:	48 8d 05 47 55 01 00 	lea    0x15547(%rip),%rax        # 21280 <g_823>
    bd39:	48 89 85 68 fe ff ff 	mov    %rax,-0x198(%rbp)
    bd40:	48 8d 85 80 e0 ff ff 	lea    -0x1f80(%rbp),%rax
    bd47:	48 89 85 70 fe ff ff 	mov    %rax,-0x190(%rbp)
    bd4e:	48 8d 85 80 e0 ff ff 	lea    -0x1f80(%rbp),%rax
    bd55:	48 89 85 78 fe ff ff 	mov    %rax,-0x188(%rbp)
    bd5c:	48 c7 85 80 fe ff ff 	movq   $0x0,-0x180(%rbp)
    bd63:	00 00 00 00 
    bd67:	48 8d 85 80 e0 ff ff 	lea    -0x1f80(%rbp),%rax
    bd6e:	48 89 85 88 fe ff ff 	mov    %rax,-0x178(%rbp)
    bd75:	48 8d 85 80 e0 ff ff 	lea    -0x1f80(%rbp),%rax
    bd7c:	48 89 85 90 fe ff ff 	mov    %rax,-0x170(%rbp)
    bd83:	48 8d 85 80 e0 ff ff 	lea    -0x1f80(%rbp),%rax
    bd8a:	48 89 85 98 fe ff ff 	mov    %rax,-0x168(%rbp)
    bd91:	48 c7 85 a0 fe ff ff 	movq   $0x0,-0x160(%rbp)
    bd98:	00 00 00 00 
    bd9c:	48 c7 85 a8 fe ff ff 	movq   $0x0,-0x158(%rbp)
    bda3:	00 00 00 00 
    bda7:	48 8d 85 80 e0 ff ff 	lea    -0x1f80(%rbp),%rax
    bdae:	48 89 85 b0 fe ff ff 	mov    %rax,-0x150(%rbp)
    bdb5:	48 8d 05 c4 54 01 00 	lea    0x154c4(%rip),%rax        # 21280 <g_823>
    bdbc:	48 89 85 b8 fe ff ff 	mov    %rax,-0x148(%rbp)
    bdc3:	48 8d 05 b6 54 01 00 	lea    0x154b6(%rip),%rax        # 21280 <g_823>
    bdca:	48 89 85 c0 fe ff ff 	mov    %rax,-0x140(%rbp)
    bdd1:	48 8d 85 80 e0 ff ff 	lea    -0x1f80(%rbp),%rax
    bdd8:	48 89 85 c8 fe ff ff 	mov    %rax,-0x138(%rbp)
    bddf:	48 8d 05 9a 54 01 00 	lea    0x1549a(%rip),%rax        # 21280 <g_823>
    bde6:	48 89 85 d0 fe ff ff 	mov    %rax,-0x130(%rbp)
    bded:	48 8d 85 80 e0 ff ff 	lea    -0x1f80(%rbp),%rax
    bdf4:	48 89 85 d8 fe ff ff 	mov    %rax,-0x128(%rbp)
    bdfb:	48 8d 05 7e 54 01 00 	lea    0x1547e(%rip),%rax        # 21280 <g_823>
    be02:	48 89 85 e0 fe ff ff 	mov    %rax,-0x120(%rbp)
    be09:	48 8d 85 80 e0 ff ff 	lea    -0x1f80(%rbp),%rax
    be10:	48 89 85 e8 fe ff ff 	mov    %rax,-0x118(%rbp)
    be17:	48 8d 05 62 54 01 00 	lea    0x15462(%rip),%rax        # 21280 <g_823>
    be1e:	48 89 85 f0 fe ff ff 	mov    %rax,-0x110(%rbp)
    be25:	48 8d 05 54 54 01 00 	lea    0x15454(%rip),%rax        # 21280 <g_823>
    be2c:	48 89 85 f8 fe ff ff 	mov    %rax,-0x108(%rbp)
    be33:	48 8d 85 80 e0 ff ff 	lea    -0x1f80(%rbp),%rax
    be3a:	48 89 85 00 ff ff ff 	mov    %rax,-0x100(%rbp)
    be41:	48 8d 85 80 e0 ff ff 	lea    -0x1f80(%rbp),%rax
    be48:	48 89 85 08 ff ff ff 	mov    %rax,-0xf8(%rbp)
    be4f:	48 c7 85 10 ff ff ff 	movq   $0x0,-0xf0(%rbp)
    be56:	00 00 00 00 
    be5a:	48 8d 85 80 e0 ff ff 	lea    -0x1f80(%rbp),%rax
    be61:	48 89 85 18 ff ff ff 	mov    %rax,-0xe8(%rbp)
    be68:	48 8d 05 11 54 01 00 	lea    0x15411(%rip),%rax        # 21280 <g_823>
    be6f:	48 89 85 20 ff ff ff 	mov    %rax,-0xe0(%rbp)
    be76:	48 8d 05 03 54 01 00 	lea    0x15403(%rip),%rax        # 21280 <g_823>
    be7d:	48 89 85 28 ff ff ff 	mov    %rax,-0xd8(%rbp)
    be84:	48 8d 05 f5 53 01 00 	lea    0x153f5(%rip),%rax        # 21280 <g_823>
    be8b:	48 89 85 30 ff ff ff 	mov    %rax,-0xd0(%rbp)
    be92:	48 8d 05 e7 53 01 00 	lea    0x153e7(%rip),%rax        # 21280 <g_823>
    be99:	48 89 85 38 ff ff ff 	mov    %rax,-0xc8(%rbp)
    bea0:	48 8d 05 d9 53 01 00 	lea    0x153d9(%rip),%rax        # 21280 <g_823>
    bea7:	48 89 85 40 ff ff ff 	mov    %rax,-0xc0(%rbp)
    beae:	48 8d 85 80 e0 ff ff 	lea    -0x1f80(%rbp),%rax
    beb5:	48 89 85 48 ff ff ff 	mov    %rax,-0xb8(%rbp)
    bebc:	48 8d 85 80 e0 ff ff 	lea    -0x1f80(%rbp),%rax
    bec3:	48 89 85 50 ff ff ff 	mov    %rax,-0xb0(%rbp)
    beca:	48 8d 05 af 53 01 00 	lea    0x153af(%rip),%rax        # 21280 <g_823>
    bed1:	48 89 85 58 ff ff ff 	mov    %rax,-0xa8(%rbp)
    bed8:	48 8d 05 a1 53 01 00 	lea    0x153a1(%rip),%rax        # 21280 <g_823>
    bedf:	48 89 85 60 ff ff ff 	mov    %rax,-0xa0(%rbp)
    bee6:	48 8d 05 93 53 01 00 	lea    0x15393(%rip),%rax        # 21280 <g_823>
    beed:	48 89 85 68 ff ff ff 	mov    %rax,-0x98(%rbp)
    bef4:	48 c7 85 70 ff ff ff 	movq   $0x0,-0x90(%rbp)
    befb:	00 00 00 00 
    beff:	48 8d 85 80 e0 ff ff 	lea    -0x1f80(%rbp),%rax
    bf06:	48 89 85 78 ff ff ff 	mov    %rax,-0x88(%rbp)
    bf0d:	48 8d 05 6c 53 01 00 	lea    0x1536c(%rip),%rax        # 21280 <g_823>
    bf14:	48 89 45 80          	mov    %rax,-0x80(%rbp)
    bf18:	48 8d 85 80 e0 ff ff 	lea    -0x1f80(%rbp),%rax
    bf1f:	48 89 45 88          	mov    %rax,-0x78(%rbp)
    bf23:	48 c7 45 90 00 00 00 	movq   $0x0,-0x70(%rbp)
    bf2a:	00 
    bf2b:	48 8d 05 4e 53 01 00 	lea    0x1534e(%rip),%rax        # 21280 <g_823>
    bf32:	48 89 45 98          	mov    %rax,-0x68(%rbp)
    bf36:	48 c7 45 a0 00 00 00 	movq   $0x0,-0x60(%rbp)
    bf3d:	00 
    bf3e:	48 8d 85 80 e0 ff ff 	lea    -0x1f80(%rbp),%rax
    bf45:	48 89 45 a8          	mov    %rax,-0x58(%rbp)
    bf49:	48 8d 05 30 53 01 00 	lea    0x15330(%rip),%rax        # 21280 <g_823>
    bf50:	48 89 45 b0          	mov    %rax,-0x50(%rbp)
    bf54:	48 8d 85 80 e0 ff ff 	lea    -0x1f80(%rbp),%rax
    bf5b:	48 89 45 b8          	mov    %rax,-0x48(%rbp)
    bf5f:	48 8d 05 0a 07 01 00 	lea    0x1070a(%rip),%rax        # 1c670 <g_548>
    bf66:	48 89 85 90 e9 ff ff 	mov    %rax,-0x1670(%rbp)
    bf6d:	48 8d 05 1c 05 01 00 	lea    0x1051c(%rip),%rax        # 1c490 <g_430>
    bf74:	48 89 85 98 e9 ff ff 	mov    %rax,-0x1668(%rbp)
    bf7b:	48 8d 05 ee 06 01 00 	lea    0x106ee(%rip),%rax        # 1c670 <g_548>
    bf82:	48 89 85 a0 e9 ff ff 	mov    %rax,-0x1660(%rbp)
    bf89:	48 8d 85 74 df ff ff 	lea    -0x208c(%rbp),%rax
    bf90:	48 89 85 a8 e9 ff ff 	mov    %rax,-0x1658(%rbp)
    bf97:	48 8d 05 f2 04 01 00 	lea    0x104f2(%rip),%rax        # 1c490 <g_430>
    bf9e:	48 89 85 b0 e9 ff ff 	mov    %rax,-0x1650(%rbp)
    bfa5:	48 8d 05 dc 5e 01 00 	lea    0x15edc(%rip),%rax        # 21e88 <g_136>
    bfac:	48 89 85 b8 e9 ff ff 	mov    %rax,-0x1648(%rbp)
    bfb3:	48 8d 05 ce 5e 01 00 	lea    0x15ece(%rip),%rax        # 21e88 <g_136>
    bfba:	48 89 85 c0 e9 ff ff 	mov    %rax,-0x1640(%rbp)
    bfc1:	48 8d 85 74 df ff ff 	lea    -0x208c(%rbp),%rax
    bfc8:	48 89 85 c8 e9 ff ff 	mov    %rax,-0x1638(%rbp)
    bfcf:	48 8d 85 74 df ff ff 	lea    -0x208c(%rbp),%rax
    bfd6:	48 89 85 d0 e9 ff ff 	mov    %rax,-0x1630(%rbp)
    bfdd:	48 8d 05 8c 06 01 00 	lea    0x1068c(%rip),%rax        # 1c670 <g_548>
    bfe4:	48 89 85 d8 e9 ff ff 	mov    %rax,-0x1628(%rbp)
    bfeb:	48 8d 85 74 df ff ff 	lea    -0x208c(%rbp),%rax
    bff2:	48 89 85 e0 e9 ff ff 	mov    %rax,-0x1620(%rbp)
    bff9:	48 8d 85 74 df ff ff 	lea    -0x208c(%rbp),%rax
    c000:	48 89 85 e8 e9 ff ff 	mov    %rax,-0x1618(%rbp)
    c007:	48 c7 85 f0 e9 ff ff 	movq   $0x0,-0x1610(%rbp)
    c00e:	00 00 00 00 
    c012:	48 c7 85 f8 e9 ff ff 	movq   $0x0,-0x1608(%rbp)
    c019:	00 00 00 00 
    c01d:	48 8d 05 64 5e 01 00 	lea    0x15e64(%rip),%rax        # 21e88 <g_136>
    c024:	48 89 85 00 ea ff ff 	mov    %rax,-0x1600(%rbp)
    c02b:	48 8d 05 56 5e 01 00 	lea    0x15e56(%rip),%rax        # 21e88 <g_136>
    c032:	48 89 85 08 ea ff ff 	mov    %rax,-0x15f8(%rbp)
    c039:	48 8d 85 74 df ff ff 	lea    -0x208c(%rbp),%rax
    c040:	48 89 85 10 ea ff ff 	mov    %rax,-0x15f0(%rbp)
    c047:	48 8d 05 3a 5e 01 00 	lea    0x15e3a(%rip),%rax        # 21e88 <g_136>
    c04e:	48 89 85 18 ea ff ff 	mov    %rax,-0x15e8(%rbp)
    c055:	48 8d 85 74 df ff ff 	lea    -0x208c(%rbp),%rax
    c05c:	48 89 85 20 ea ff ff 	mov    %rax,-0x15e0(%rbp)
    c063:	48 8d 05 1e 5e 01 00 	lea    0x15e1e(%rip),%rax        # 21e88 <g_136>
    c06a:	48 89 85 28 ea ff ff 	mov    %rax,-0x15d8(%rbp)
    c071:	48 8d 05 10 5e 01 00 	lea    0x15e10(%rip),%rax        # 21e88 <g_136>
    c078:	48 89 85 30 ea ff ff 	mov    %rax,-0x15d0(%rbp)
    c07f:	48 8d 05 0a 04 01 00 	lea    0x1040a(%rip),%rax        # 1c490 <g_430>
    c086:	48 89 85 38 ea ff ff 	mov    %rax,-0x15c8(%rbp)
    c08d:	48 8d 05 dc 05 01 00 	lea    0x105dc(%rip),%rax        # 1c670 <g_548>
    c094:	48 89 85 40 ea ff ff 	mov    %rax,-0x15c0(%rbp)
    c09b:	48 8d 05 e6 5d 01 00 	lea    0x15de6(%rip),%rax        # 21e88 <g_136>
    c0a2:	48 89 85 48 ea ff ff 	mov    %rax,-0x15b8(%rbp)
    c0a9:	48 8d 85 74 df ff ff 	lea    -0x208c(%rbp),%rax
    c0b0:	48 89 85 50 ea ff ff 	mov    %rax,-0x15b0(%rbp)
    c0b7:	48 c7 85 58 ea ff ff 	movq   $0x0,-0x15a8(%rbp)
    c0be:	00 00 00 00 
    c0c2:	48 8d 85 74 df ff ff 	lea    -0x208c(%rbp),%rax
    c0c9:	48 89 85 60 ea ff ff 	mov    %rax,-0x15a0(%rbp)
    c0d0:	48 8d 05 b1 5d 01 00 	lea    0x15db1(%rip),%rax        # 21e88 <g_136>
    c0d7:	48 89 85 68 ea ff ff 	mov    %rax,-0x1598(%rbp)
    c0de:	48 8d 05 a3 5d 01 00 	lea    0x15da3(%rip),%rax        # 21e88 <g_136>
    c0e5:	48 89 85 70 ea ff ff 	mov    %rax,-0x1590(%rbp)
    c0ec:	48 8d 05 95 5d 01 00 	lea    0x15d95(%rip),%rax        # 21e88 <g_136>
    c0f3:	48 89 85 78 ea ff ff 	mov    %rax,-0x1588(%rbp)
    c0fa:	48 c7 85 80 ea ff ff 	movq   $0x0,-0x1580(%rbp)
    c101:	00 00 00 00 
    c105:	48 8d 05 84 03 01 00 	lea    0x10384(%rip),%rax        # 1c490 <g_430>
    c10c:	48 89 85 88 ea ff ff 	mov    %rax,-0x1578(%rbp)
    c113:	48 8d 05 6e 5d 01 00 	lea    0x15d6e(%rip),%rax        # 21e88 <g_136>
    c11a:	48 89 85 90 ea ff ff 	mov    %rax,-0x1570(%rbp)
    c121:	48 c7 85 98 ea ff ff 	movq   $0x0,-0x1568(%rbp)
    c128:	00 00 00 00 
    c12c:	48 8d 05 55 5d 01 00 	lea    0x15d55(%rip),%rax        # 21e88 <g_136>
    c133:	48 89 85 a0 ea ff ff 	mov    %rax,-0x1560(%rbp)
    c13a:	48 8d 85 74 df ff ff 	lea    -0x208c(%rbp),%rax
    c141:	48 89 85 a8 ea ff ff 	mov    %rax,-0x1558(%rbp)
    c148:	48 8d 05 21 05 01 00 	lea    0x10521(%rip),%rax        # 1c670 <g_548>
    c14f:	48 89 85 b0 ea ff ff 	mov    %rax,-0x1550(%rbp)
    c156:	48 8d 05 2b 5d 01 00 	lea    0x15d2b(%rip),%rax        # 21e88 <g_136>
    c15d:	48 89 85 b8 ea ff ff 	mov    %rax,-0x1548(%rbp)
    c164:	48 c7 85 c0 ea ff ff 	movq   $0x0,-0x1540(%rbp)
    c16b:	00 00 00 00 
    c16f:	48 8d 05 fa 04 01 00 	lea    0x104fa(%rip),%rax        # 1c670 <g_548>
    c176:	48 89 85 c8 ea ff ff 	mov    %rax,-0x1538(%rbp)
    c17d:	48 8d 05 0c 03 01 00 	lea    0x1030c(%rip),%rax        # 1c490 <g_430>
    c184:	48 89 85 d0 ea ff ff 	mov    %rax,-0x1530(%rbp)
    c18b:	48 8d 85 74 df ff ff 	lea    -0x208c(%rbp),%rax
    c192:	48 89 85 d8 ea ff ff 	mov    %rax,-0x1528(%rbp)
    c199:	48 8d 05 d0 04 01 00 	lea    0x104d0(%rip),%rax        # 1c670 <g_548>
    c1a0:	48 89 85 e0 ea ff ff 	mov    %rax,-0x1520(%rbp)
    c1a7:	48 8d 05 da 5c 01 00 	lea    0x15cda(%rip),%rax        # 21e88 <g_136>
    c1ae:	48 89 85 e8 ea ff ff 	mov    %rax,-0x1518(%rbp)
    c1b5:	48 8d 85 74 df ff ff 	lea    -0x208c(%rbp),%rax
    c1bc:	48 89 85 f0 ea ff ff 	mov    %rax,-0x1510(%rbp)
    c1c3:	48 8d 85 74 df ff ff 	lea    -0x208c(%rbp),%rax
    c1ca:	48 89 85 f8 ea ff ff 	mov    %rax,-0x1508(%rbp)
    c1d1:	48 8d 05 b0 5c 01 00 	lea    0x15cb0(%rip),%rax        # 21e88 <g_136>
    c1d8:	48 89 85 00 eb ff ff 	mov    %rax,-0x1500(%rbp)
    c1df:	48 8d 05 8a 04 01 00 	lea    0x1048a(%rip),%rax        # 1c670 <g_548>
    c1e6:	48 89 85 08 eb ff ff 	mov    %rax,-0x14f8(%rbp)
    c1ed:	48 8d 05 94 5c 01 00 	lea    0x15c94(%rip),%rax        # 21e88 <g_136>
    c1f4:	48 89 85 10 eb ff ff 	mov    %rax,-0x14f0(%rbp)
    c1fb:	48 8d 85 74 df ff ff 	lea    -0x208c(%rbp),%rax
    c202:	48 89 85 18 eb ff ff 	mov    %rax,-0x14e8(%rbp)
    c209:	48 c7 85 20 eb ff ff 	movq   $0x0,-0x14e0(%rbp)
    c210:	00 00 00 00 
    c214:	48 8d 05 55 04 01 00 	lea    0x10455(%rip),%rax        # 1c670 <g_548>
    c21b:	48 89 85 28 eb ff ff 	mov    %rax,-0x14d8(%rbp)
    c222:	48 8d 05 47 04 01 00 	lea    0x10447(%rip),%rax        # 1c670 <g_548>
    c229:	48 89 85 30 eb ff ff 	mov    %rax,-0x14d0(%rbp)
    c230:	48 c7 85 38 eb ff ff 	movq   $0x0,-0x14c8(%rbp)
    c237:	00 00 00 00 
    c23b:	48 c7 85 40 eb ff ff 	movq   $0x0,-0x14c0(%rbp)
    c242:	00 00 00 00 
    c246:	48 8d 85 74 df ff ff 	lea    -0x208c(%rbp),%rax
    c24d:	48 89 85 48 eb ff ff 	mov    %rax,-0x14b8(%rbp)
    c254:	48 8d 05 2d 5c 01 00 	lea    0x15c2d(%rip),%rax        # 21e88 <g_136>
    c25b:	48 89 85 50 eb ff ff 	mov    %rax,-0x14b0(%rbp)
    c262:	48 8d 05 1f 5c 01 00 	lea    0x15c1f(%rip),%rax        # 21e88 <g_136>
    c269:	48 89 85 58 eb ff ff 	mov    %rax,-0x14a8(%rbp)
    c270:	48 8d 05 f9 03 01 00 	lea    0x103f9(%rip),%rax        # 1c670 <g_548>
    c277:	48 89 85 60 eb ff ff 	mov    %rax,-0x14a0(%rbp)
    c27e:	48 8d 05 03 5c 01 00 	lea    0x15c03(%rip),%rax        # 21e88 <g_136>
    c285:	48 89 85 68 eb ff ff 	mov    %rax,-0x1498(%rbp)
    c28c:	48 8d 85 74 df ff ff 	lea    -0x208c(%rbp),%rax
    c293:	48 89 85 70 eb ff ff 	mov    %rax,-0x1490(%rbp)
    c29a:	48 8d 85 74 df ff ff 	lea    -0x208c(%rbp),%rax
    c2a1:	48 89 85 78 eb ff ff 	mov    %rax,-0x1488(%rbp)
    c2a8:	48 8d 05 d9 5b 01 00 	lea    0x15bd9(%rip),%rax        # 21e88 <g_136>
    c2af:	48 89 85 80 eb ff ff 	mov    %rax,-0x1480(%rbp)
    c2b6:	48 8d 05 d3 01 01 00 	lea    0x101d3(%rip),%rax        # 1c490 <g_430>
    c2bd:	48 89 85 88 eb ff ff 	mov    %rax,-0x1478(%rbp)
    c2c4:	48 c7 85 90 eb ff ff 	movq   $0x0,-0x1470(%rbp)
    c2cb:	00 00 00 00 
    c2cf:	48 8d 05 ba 01 01 00 	lea    0x101ba(%rip),%rax        # 1c490 <g_430>
    c2d6:	48 89 85 98 eb ff ff 	mov    %rax,-0x1468(%rbp)
    c2dd:	48 8d 85 74 df ff ff 	lea    -0x208c(%rbp),%rax
    c2e4:	48 89 85 a0 eb ff ff 	mov    %rax,-0x1460(%rbp)
    c2eb:	48 8d 85 74 df ff ff 	lea    -0x208c(%rbp),%rax
    c2f2:	48 89 85 a8 eb ff ff 	mov    %rax,-0x1458(%rbp)
    c2f9:	48 8d 05 70 03 01 00 	lea    0x10370(%rip),%rax        # 1c670 <g_548>
    c300:	48 89 85 b0 eb ff ff 	mov    %rax,-0x1450(%rbp)
    c307:	48 8d 05 7a 5b 01 00 	lea    0x15b7a(%rip),%rax        # 21e88 <g_136>
    c30e:	48 89 85 b8 eb ff ff 	mov    %rax,-0x1448(%rbp)
    c315:	48 8d 05 74 01 01 00 	lea    0x10174(%rip),%rax        # 1c490 <g_430>
    c31c:	48 89 85 c0 eb ff ff 	mov    %rax,-0x1440(%rbp)
    c323:	48 8d 05 5e 5b 01 00 	lea    0x15b5e(%rip),%rax        # 21e88 <g_136>
    c32a:	48 89 85 c8 eb ff ff 	mov    %rax,-0x1438(%rbp)
    c331:	48 c7 85 d0 eb ff ff 	movq   $0x0,-0x1430(%rbp)
    c338:	00 00 00 00 
    c33c:	48 8d 05 45 5b 01 00 	lea    0x15b45(%rip),%rax        # 21e88 <g_136>
    c343:	48 89 85 d8 eb ff ff 	mov    %rax,-0x1428(%rbp)
    c34a:	48 8d 05 3f 01 01 00 	lea    0x1013f(%rip),%rax        # 1c490 <g_430>
    c351:	48 89 85 e0 eb ff ff 	mov    %rax,-0x1420(%rbp)
    c358:	48 c7 85 e8 eb ff ff 	movq   $0x0,-0x1418(%rbp)
    c35f:	00 00 00 00 
    c363:	48 8d 05 06 03 01 00 	lea    0x10306(%rip),%rax        # 1c670 <g_548>
    c36a:	48 89 85 f0 eb ff ff 	mov    %rax,-0x1410(%rbp)
    c371:	48 8d 05 18 01 01 00 	lea    0x10118(%rip),%rax        # 1c490 <g_430>
    c378:	48 89 85 f8 eb ff ff 	mov    %rax,-0x1408(%rbp)
    c37f:	48 c7 85 00 ec ff ff 	movq   $0x0,-0x1400(%rbp)
    c386:	00 00 00 00 
    c38a:	48 8d 05 ff 00 01 00 	lea    0x100ff(%rip),%rax        # 1c490 <g_430>
    c391:	48 89 85 08 ec ff ff 	mov    %rax,-0x13f8(%rbp)
    c398:	48 8d 05 f1 00 01 00 	lea    0x100f1(%rip),%rax        # 1c490 <g_430>
    c39f:	48 89 85 10 ec ff ff 	mov    %rax,-0x13f0(%rbp)
    c3a6:	48 8d 05 e3 00 01 00 	lea    0x100e3(%rip),%rax        # 1c490 <g_430>
    c3ad:	48 89 85 18 ec ff ff 	mov    %rax,-0x13e8(%rbp)
    c3b4:	48 c7 85 20 ec ff ff 	movq   $0x0,-0x13e0(%rbp)
    c3bb:	00 00 00 00 
    c3bf:	48 8d 05 ca 00 01 00 	lea    0x100ca(%rip),%rax        # 1c490 <g_430>
    c3c6:	48 89 85 28 ec ff ff 	mov    %rax,-0x13d8(%rbp)
    c3cd:	48 8d 05 9c 02 01 00 	lea    0x1029c(%rip),%rax        # 1c670 <g_548>
    c3d4:	48 89 85 30 ec ff ff 	mov    %rax,-0x13d0(%rbp)
    c3db:	48 8d 05 8e 02 01 00 	lea    0x1028e(%rip),%rax        # 1c670 <g_548>
    c3e2:	48 89 85 38 ec ff ff 	mov    %rax,-0x13c8(%rbp)
    c3e9:	48 c7 85 40 ec ff ff 	movq   $0x0,-0x13c0(%rbp)
    c3f0:	00 00 00 00 
    c3f4:	48 8d 05 8d 5a 01 00 	lea    0x15a8d(%rip),%rax        # 21e88 <g_136>
    c3fb:	48 89 85 48 ec ff ff 	mov    %rax,-0x13b8(%rbp)
    c402:	48 8d 05 67 02 01 00 	lea    0x10267(%rip),%rax        # 1c670 <g_548>
    c409:	48 89 85 50 ec ff ff 	mov    %rax,-0x13b0(%rbp)
    c410:	48 8d 05 71 5a 01 00 	lea    0x15a71(%rip),%rax        # 21e88 <g_136>
    c417:	48 89 85 58 ec ff ff 	mov    %rax,-0x13a8(%rbp)
    c41e:	48 c7 85 60 ec ff ff 	movq   $0x0,-0x13a0(%rbp)
    c425:	00 00 00 00 
    c429:	48 8d 05 60 00 01 00 	lea    0x10060(%rip),%rax        # 1c490 <g_430>
    c430:	48 89 85 68 ec ff ff 	mov    %rax,-0x1398(%rbp)
    c437:	48 8d 05 52 00 01 00 	lea    0x10052(%rip),%rax        # 1c490 <g_430>
    c43e:	48 89 85 70 ec ff ff 	mov    %rax,-0x1390(%rbp)
    c445:	48 c7 85 78 ec ff ff 	movq   $0x0,-0x1388(%rbp)
    c44c:	00 00 00 00 
    c450:	48 8d 05 19 02 01 00 	lea    0x10219(%rip),%rax        # 1c670 <g_548>
    c457:	48 89 85 80 ec ff ff 	mov    %rax,-0x1380(%rbp)
    c45e:	48 8d 05 0b 02 01 00 	lea    0x1020b(%rip),%rax        # 1c670 <g_548>
    c465:	48 89 85 88 ec ff ff 	mov    %rax,-0x1378(%rbp)
    c46c:	48 8d 05 fd 01 01 00 	lea    0x101fd(%rip),%rax        # 1c670 <g_548>
    c473:	48 89 85 90 ec ff ff 	mov    %rax,-0x1370(%rbp)
    c47a:	48 8d 05 ef 01 01 00 	lea    0x101ef(%rip),%rax        # 1c670 <g_548>
    c481:	48 89 85 98 ec ff ff 	mov    %rax,-0x1368(%rbp)
    c488:	c7 85 38 e0 ff ff ff 	movl   $0xffffffff,-0x1fc8(%rbp)
    c48f:	ff ff ff 
    c492:	c7 85 3c e0 ff ff 03 	movl   $0xb272a003,-0x1fc4(%rbp)
    c499:	a0 72 b2 
    c49c:	c7 85 40 e0 ff ff 16 	movl   $0x2fd46f16,-0x1fc0(%rbp)
    c4a3:	6f d4 2f 
    c4a6:	c7 85 44 e0 ff ff 70 	movl   $0x196ba170,-0x1fbc(%rbp)
    c4ad:	a1 6b 19 
    c4b0:	c7 85 48 e0 ff ff 09 	movl   $0x9,-0x1fb8(%rbp)
    c4b7:	00 00 00 
    c4ba:	c7 85 4c e0 ff ff cf 	movl   $0xfc5d63cf,-0x1fb4(%rbp)
    c4c1:	63 5d fc 
    c4c4:	c7 85 50 e0 ff ff a4 	movl   $0x505270a4,-0x1fb0(%rbp)
    c4cb:	70 52 50 
    c4ce:	c7 85 54 e0 ff ff 44 	movl   $0x4b08ea44,-0x1fac(%rbp)
    c4d5:	ea 08 4b 
    c4d8:	c7 85 58 e0 ff ff ef 	movl   $0x76037fef,-0x1fa8(%rbp)
    c4df:	7f 03 76 
    c4e2:	c7 85 20 e2 ff ff 6e 	movl   $0xe00dc66e,-0x1de0(%rbp)
    c4e9:	c6 0d e0 
    c4ec:	c7 85 24 e2 ff ff 6e 	movl   $0xe00dc66e,-0x1ddc(%rbp)
    c4f3:	c6 0d e0 
    c4f6:	c7 85 28 e2 ff ff 6e 	movl   $0xe00dc66e,-0x1dd8(%rbp)
    c4fd:	c6 0d e0 
    c500:	c7 85 2c e2 ff ff 6e 	movl   $0xe00dc66e,-0x1dd4(%rbp)
    c507:	c6 0d e0 
    c50a:	c7 85 30 e2 ff ff 6e 	movl   $0xe00dc66e,-0x1dd0(%rbp)
    c511:	c6 0d e0 
    c514:	c7 85 34 e2 ff ff 6e 	movl   $0xe00dc66e,-0x1dcc(%rbp)
    c51b:	c6 0d e0 
    c51e:	c7 85 38 e2 ff ff 6e 	movl   $0xe00dc66e,-0x1dc8(%rbp)
    c525:	c6 0d e0 
    c528:	c7 85 3c e2 ff ff 6e 	movl   $0xe00dc66e,-0x1dc4(%rbp)
    c52f:	c6 0d e0 
    c532:	c7 85 40 e2 ff ff 6e 	movl   $0xe00dc66e,-0x1dc0(%rbp)
    c539:	c6 0d e0 
    c53c:	c7 85 44 e2 ff ff 6e 	movl   $0xe00dc66e,-0x1dbc(%rbp)
    c543:	c6 0d e0 
    c546:	48 8b 85 a8 e0 ff ff 	mov    -0x1f58(%rbp),%rax
    c54d:	8b 18                	mov    (%rax),%ebx
    c54f:	48 8b 85 80 e0 ff ff 	mov    -0x1f80(%rbp),%rax
    c556:	48 89 85 c0 e1 ff ff 	mov    %rax,-0x1e40(%rbp)
    c55d:	48 8b 95 c0 e1 ff ff 	mov    -0x1e40(%rbp),%rdx
    c564:	48 8b 05 15 4d 01 00 	mov    0x14d15(%rip),%rax        # 21280 <g_823>
    c56b:	48 39 c2             	cmp    %rax,%rdx
    c56e:	c7 85 38 e0 ff ff fc 	movl   $0xfc,-0x1fc8(%rbp)
    c575:	00 00 00 
    c578:	8b 85 38 e0 ff ff    	mov    -0x1fc8(%rbp),%eax
    c57e:	f7 d0                	not    %eax
    c580:	48 98                	cltq   
    c582:	48 c7 c6 f6 ff ff ff 	mov    $0xfffffffffffffff6,%rsi
    c589:	48 89 c7             	mov    %rax,%rdi
    c58c:	e8 ba aa ff ff       	callq  704b <safe_sub_func_uint64_t_u_u>
    c591:	83 e0 0e             	and    $0xe,%eax
    c594:	48 89 c2             	mov    %rax,%rdx
    c597:	48 0f be 85 6c df ff 	movsbq -0x2094(%rbp),%rax
    c59e:	ff 
    c59f:	48 39 c2             	cmp    %rax,%rdx
    c5a2:	0f 97 c0             	seta   %al
    c5a5:	0f b6 d0             	movzbl %al,%edx
    c5a8:	48 8b 05 d9 4a 01 00 	mov    0x14ad9(%rip),%rax        # 21088 <g_243>
    c5af:	48 8b 00             	mov    (%rax),%rax
    c5b2:	48 39 c2             	cmp    %rax,%rdx
    c5b5:	0f b6 85 68 df ff ff 	movzbl -0x2098(%rbp),%eax
    c5bc:	83 e0 3f             	and    $0x3f,%eax
    c5bf:	0f b6 c0             	movzbl %al,%eax
    c5c2:	39 85 30 e0 ff ff    	cmp    %eax,-0x1fd0(%rbp)
    c5c8:	0f 9e c0             	setle  %al
    c5cb:	0f b6 c0             	movzbl %al,%eax
    c5ce:	8b 95 3c e0 ff ff    	mov    -0x1fc4(%rbp),%edx
    c5d4:	31 d0                	xor    %edx,%eax
    c5d6:	0f bf d0             	movswl %ax,%edx
    c5d9:	66 0f be 8d 76 df ff 	movsbw -0x208a(%rbp),%cx
    c5e0:	ff 
    c5e1:	48 8b 85 68 e1 ff ff 	mov    -0x1e98(%rbp),%rax
    c5e8:	66 89 08             	mov    %cx,(%rax)
    c5eb:	48 8b 85 68 e1 ff ff 	mov    -0x1e98(%rbp),%rax
    c5f2:	0f b7 08             	movzwl (%rax),%ecx
    c5f5:	48 8b 85 78 e1 ff ff 	mov    -0x1e88(%rbp),%rax
    c5fc:	66 89 08             	mov    %cx,(%rax)
    c5ff:	48 8b 85 78 e1 ff ff 	mov    -0x1e88(%rbp),%rax
    c606:	0f b7 00             	movzwl (%rax),%eax
    c609:	98                   	cwtl   
    c60a:	89 d6                	mov    %edx,%esi
    c60c:	89 c7                	mov    %eax,%edi
    c60e:	e8 e2 9d ff ff       	callq  63f5 <safe_mul_func_int16_t_s_s>
    c613:	83 c8 01             	or     $0x1,%eax
    c616:	66 85 c0             	test   %ax,%ax
    c619:	0f 9f c0             	setg   %al
    c61c:	0f b6 c0             	movzbl %al,%eax
    c61f:	39 c3                	cmp    %eax,%ebx
    c621:	0f 9c c0             	setl   %al
    c624:	0f b6 d0             	movzbl %al,%edx
    c627:	0f b7 85 68 df ff ff 	movzwl -0x2098(%rbp),%eax
    c62e:	c1 e0 04             	shl    $0x4,%eax
    c631:	66 c1 f8 0a          	sar    $0xa,%ax
    c635:	0f be c0             	movsbl %al,%eax
    c638:	39 c2                	cmp    %eax,%edx
    c63a:	7e 1a                	jle    c656 <func_42+0x27e9>
    c63c:	48 8b 05 3d 18 01 00 	mov    0x1183d(%rip),%rax        # 1de80 <g_1695+0x40>
    c643:	48 c1 e0 1f          	shl    $0x1f,%rax
    c647:	48 c1 f8 2d          	sar    $0x2d,%rax
    c64b:	85 c0                	test   %eax,%eax
    c64d:	74 07                	je     c656 <func_42+0x27e9>
    c64f:	b8 01 00 00 00       	mov    $0x1,%eax
    c654:	eb 05                	jmp    c65b <func_42+0x27ee>
    c656:	b8 00 00 00 00       	mov    $0x0,%eax
    c65b:	0f b6 c0             	movzbl %al,%eax
    c65e:	be ff 00 00 00       	mov    $0xff,%esi
    c663:	89 c7                	mov    %eax,%edi
    c665:	e8 f0 a4 ff ff       	callq  6b5a <safe_add_func_uint8_t_u_u>
    c66a:	0f b6 d0             	movzbl %al,%edx
    c66d:	48 8b 85 a8 e0 ff ff 	mov    -0x1f58(%rbp),%rax
    c674:	89 10                	mov    %edx,(%rax)
    c676:	66 c7 05 31 58 01 00 	movw   $0x0,0x15831(%rip)        # 21eb0 <g_999>
    c67d:	00 00 
    c67f:	e9 8e 02 00 00       	jmpq   c912 <func_42+0x2aa5>
    c684:	c7 85 b4 df ff ff 5e 	movl   $0xfee5a05e,-0x204c(%rbp)
    c68b:	a0 e5 fe 
    c68e:	c7 85 b8 df ff ff 00 	movl   $0x0,-0x2048(%rbp)
    c695:	00 00 00 
    c698:	eb 1a                	jmp    c6b4 <func_42+0x2847>
    c69a:	8b 85 b8 df ff ff    	mov    -0x2048(%rbp),%eax
    c6a0:	48 98                	cltq   
    c6a2:	c7 84 85 e0 e1 ff ff 	movl   $0x1,-0x1e20(%rbp,%rax,4)
    c6a9:	01 00 00 00 
    c6ad:	83 85 b8 df ff ff 01 	addl   $0x1,-0x2048(%rbp)
    c6b4:	83 bd b8 df ff ff 06 	cmpl   $0x6,-0x2048(%rbp)
    c6bb:	7e dd                	jle    c69a <func_42+0x282d>
    c6bd:	c7 85 b0 df ff ff 04 	movl   $0x4,-0x2050(%rbp)
    c6c4:	00 00 00 
    c6c7:	e9 25 02 00 00       	jmpq   c8f1 <func_42+0x2a84>
    c6cc:	c6 85 79 df ff ff 01 	movb   $0x1,-0x2087(%rbp)
    c6d3:	48 8d 05 32 17 01 00 	lea    0x11732(%rip),%rax        # 1de0c <g_1566>
    c6da:	48 89 85 80 e1 ff ff 	mov    %rax,-0x1e80(%rbp)
    c6e1:	c7 85 5c e0 ff ff 00 	movl   $0x0,-0x1fa4(%rbp)
    c6e8:	00 00 00 
    c6eb:	c7 85 60 e0 ff ff 60 	movl   $0x2ed4e860,-0x1fa0(%rbp)
    c6f2:	e8 d4 2e 
    c6f5:	c7 85 64 e0 ff ff 3b 	movl   $0xff659b3b,-0x1f9c(%rbp)
    c6fc:	9b 65 ff 
    c6ff:	c7 85 68 e0 ff ff f6 	movl   $0xfffffff6,-0x1f98(%rbp)
    c706:	ff ff ff 
    c709:	c7 85 6c e0 ff ff ff 	movl   $0xffffffff,-0x1f94(%rbp)
    c710:	ff ff ff 
    c713:	c7 85 50 e2 ff ff 00 	movl   $0x0,-0x1db0(%rbp)
    c71a:	00 00 00 
    c71d:	c7 85 54 e2 ff ff ff 	movl   $0xffffffff,-0x1dac(%rbp)
    c724:	ff ff ff 
    c727:	c7 85 58 e2 ff ff 00 	movl   $0x0,-0x1da8(%rbp)
    c72e:	00 00 00 
    c731:	c7 85 5c e2 ff ff 00 	movl   $0x0,-0x1da4(%rbp)
    c738:	00 00 00 
    c73b:	c7 85 60 e2 ff ff ff 	movl   $0xffffffff,-0x1da0(%rbp)
    c742:	ff ff ff 
    c745:	c7 85 64 e2 ff ff 00 	movl   $0x0,-0x1d9c(%rbp)
    c74c:	00 00 00 
    c74f:	c7 85 68 e2 ff ff 00 	movl   $0x0,-0x1d98(%rbp)
    c756:	00 00 00 
    c759:	c7 85 6c e2 ff ff ff 	movl   $0xffffffff,-0x1d94(%rbp)
    c760:	ff ff ff 
    c763:	c7 85 70 e2 ff ff 00 	movl   $0x0,-0x1d90(%rbp)
    c76a:	00 00 00 
    c76d:	c7 85 74 e2 ff ff 00 	movl   $0x0,-0x1d8c(%rbp)
    c774:	00 00 00 
    c777:	48 b8 8e 1e d9 ae 9e 	movabs $0xe9f76d9eaed91e8e,%rax
    c77e:	6d f7 e9 
    c781:	48 89 85 88 e1 ff ff 	mov    %rax,-0x1e78(%rbp)
    c788:	0f b7 85 a8 e1 ff ff 	movzwl -0x1e58(%rbp),%eax
    c78f:	83 c0 01             	add    $0x1,%eax
    c792:	66 89 85 a8 e1 ff ff 	mov    %ax,-0x1e58(%rbp)
    c799:	0f b6 9d 79 df ff ff 	movzbl -0x2087(%rbp),%ebx
    c7a0:	0f b6 85 68 df ff ff 	movzbl -0x2098(%rbp),%eax
    c7a7:	83 e0 3f             	and    $0x3f,%eax
    c7aa:	44 0f b6 e0          	movzbl %al,%r12d
    c7ae:	48 8b 05 3b 52 01 00 	mov    0x1523b(%rip),%rax        # 219f0 <g_1478>
    c7b5:	0f b6 00             	movzbl (%rax),%eax
    c7b8:	44 0f be e8          	movsbl %al,%r13d
    c7bc:	0f b7 85 68 df ff ff 	movzwl -0x2098(%rbp),%eax
    c7c3:	c1 e0 04             	shl    $0x4,%eax
    c7c6:	66 c1 f8 0a          	sar    $0xa,%ax
    c7ca:	66 98                	cbtw   
    c7cc:	44 0f b7 f0          	movzwl %ax,%r14d
    c7d0:	44 0f b6 bd 79 df ff 	movzbl -0x2087(%rbp),%r15d
    c7d7:	ff 
    c7d8:	0f b7 05 65 fd 00 00 	movzwl 0xfd65(%rip),%eax        # 1c544 <g_495+0x84>
    c7df:	0f b7 d0             	movzwl %ax,%edx
    c7e2:	0f b6 85 68 df ff ff 	movzbl -0x2098(%rbp),%eax
    c7e9:	83 e0 3f             	and    $0x3f,%eax
    c7ec:	0f b6 c8             	movzbl %al,%ecx
    c7ef:	80 bd 6c df ff ff 00 	cmpb   $0x0,-0x2094(%rbp)
    c7f6:	0f 9f c0             	setg   %al
    c7f9:	0f b6 c0             	movzbl %al,%eax
    c7fc:	39 c1                	cmp    %eax,%ecx
    c7fe:	0f 95 c0             	setne  %al
    c801:	89 c1                	mov    %eax,%ecx
    c803:	8b 05 4f cc 00 00    	mov    0xcc4f(%rip),%eax        # 19458 <l_1826.4391+0x18>
    c809:	31 c8                	xor    %ecx,%eax
    c80b:	0f be c0             	movsbl %al,%eax
    c80e:	89 d6                	mov    %edx,%esi
    c810:	89 c7                	mov    %eax,%edi
    c812:	e8 d7 9a ff ff       	callq  62ee <safe_lshift_func_int8_t_s_u>
    c817:	b8 00 00 00 00       	mov    $0x0,%eax
    c81c:	83 f8 ff             	cmp    $0xffffffff,%eax
    c81f:	7c 07                	jl     c828 <func_42+0x29bb>
    c821:	b8 01 00 00 00       	mov    $0x1,%eax
    c826:	eb 05                	jmp    c82d <func_42+0x29c0>
    c828:	b8 00 00 00 00       	mov    $0x0,%eax
    c82d:	48 98                	cltq   
    c82f:	48 0b 85 60 e1 ff ff 	or     -0x1ea0(%rbp),%rax
    c836:	49 39 c7             	cmp    %rax,%r15
    c839:	0f 93 c0             	setae  %al
    c83c:	0f b6 c0             	movzbl %al,%eax
    c83f:	be 00 00 00 00       	mov    $0x0,%esi
    c844:	89 c7                	mov    %eax,%edi
    c846:	e8 aa 9b ff ff       	callq  63f5 <safe_mul_func_int16_t_s_s>
    c84b:	0f bf d0             	movswl %ax,%edx
    c84e:	8b 05 04 cc 00 00    	mov    0xcc04(%rip),%eax        # 19458 <l_1826.4391+0x18>
    c854:	34 fc                	xor    $0xfc,%al
    c856:	98                   	cwtl   
    c857:	89 d6                	mov    %edx,%esi
    c859:	89 c7                	mov    %eax,%edi
    c85b:	e8 95 9b ff ff       	callq  63f5 <safe_mul_func_int16_t_s_s>
    c860:	0f b7 c0             	movzwl %ax,%eax
    c863:	44 89 f6             	mov    %r14d,%esi
    c866:	89 c7                	mov    %eax,%edi
    c868:	e8 d0 a4 ff ff       	callq  6d3d <safe_mul_func_uint16_t_u_u>
    c86d:	0f be c0             	movsbl %al,%eax
    c870:	44 89 ee             	mov    %r13d,%esi
    c873:	89 c7                	mov    %eax,%edi
    c875:	e8 78 99 ff ff       	callq  61f2 <safe_sub_func_int8_t_s_s>
    c87a:	48 0f be c0          	movsbq %al,%rax
    c87e:	4c 89 e6             	mov    %r12,%rsi
    c881:	48 89 c7             	mov    %rax,%rdi
    c884:	e8 1f a0 ff ff       	callq  68a8 <safe_sub_func_int64_t_s_s>
    c889:	0f bf d0             	movswl %ax,%edx
    c88c:	48 8b 05 ed f7 00 00 	mov    0xf7ed(%rip),%rax        # 1c080 <g_176>
    c893:	98                   	cwtl   
    c894:	89 d6                	mov    %edx,%esi
    c896:	89 c7                	mov    %eax,%edi
    c898:	e8 b8 9b ff ff       	callq  6455 <safe_div_func_int16_t_s_s>
    c89d:	48 0f bf c0          	movswq %ax,%rax
    c8a1:	48 89 de             	mov    %rbx,%rsi
    c8a4:	48 89 c7             	mov    %rax,%rdi
    c8a7:	e8 03 a8 ff ff       	callq  70af <safe_div_func_uint64_t_u_u>
    c8ac:	48 83 f8 fb          	cmp    $0xfffffffffffffffb,%rax
    c8b0:	76 07                	jbe    c8b9 <func_42+0x2a4c>
    c8b2:	ba 01 00 00 00       	mov    $0x1,%edx
    c8b7:	eb 05                	jmp    c8be <func_42+0x2a51>
    c8b9:	ba 00 00 00 00       	mov    $0x0,%edx
    c8be:	48 8b 85 80 e1 ff ff 	mov    -0x1e80(%rbp),%rax
    c8c5:	89 10                	mov    %edx,(%rax)
    c8c7:	48 8b 05 a2 4d 01 00 	mov    0x14da2(%rip),%rax        # 21670 <g_997>
    c8ce:	8b 95 68 df ff ff    	mov    -0x2098(%rbp),%edx
    c8d4:	89 10                	mov    %edx,(%rax)
    c8d6:	48 8b 85 98 e0 ff ff 	mov    -0x1f68(%rbp),%rax
    c8dd:	8b 00                	mov    (%rax),%eax
    c8df:	85 c0                	test   %eax,%eax
    c8e1:	75 1d                	jne    c900 <func_42+0x2a93>
    c8e3:	83 ad b4 df ff ff 01 	subl   $0x1,-0x204c(%rbp)
    c8ea:	83 ad b0 df ff ff 01 	subl   $0x1,-0x2050(%rbp)
    c8f1:	83 bd b0 df ff ff 00 	cmpl   $0x0,-0x2050(%rbp)
    c8f8:	0f 89 ce fd ff ff    	jns    c6cc <func_42+0x285f>
    c8fe:	eb 01                	jmp    c901 <func_42+0x2a94>
    c900:	90                   	nop
    c901:	0f b7 05 a8 55 01 00 	movzwl 0x155a8(%rip),%eax        # 21eb0 <g_999>
    c908:	83 c0 01             	add    $0x1,%eax
    c90b:	66 89 05 9e 55 01 00 	mov    %ax,0x1559e(%rip)        # 21eb0 <g_999>
    c912:	0f b7 05 97 55 01 00 	movzwl 0x15597(%rip),%eax        # 21eb0 <g_999>
    c919:	66 83 f8 04          	cmp    $0x4,%ax
    c91d:	0f 86 61 fd ff ff    	jbe    c684 <func_42+0x2817>
    c923:	8b 85 8c df ff ff    	mov    -0x2074(%rbp),%eax
    c929:	83 e8 01             	sub    $0x1,%eax
    c92c:	89 85 8c df ff ff    	mov    %eax,-0x2074(%rbp)
    c932:	8b 85 8c df ff ff    	mov    -0x2074(%rbp),%eax
    c938:	85 c0                	test   %eax,%eax
    c93a:	0f 89 8d e8 ff ff    	jns    b1cd <func_42+0x1360>
    c940:	8b 85 cc ed ff ff    	mov    -0x1234(%rbp),%eax
    c946:	e9 b0 15 00 00       	jmpq   defb <func_42+0x408e>
    c94b:	66 c7 85 82 df ff ff 	movw   $0x0,-0x207e(%rbp)
    c952:	00 00 
    c954:	c7 85 e8 df ff ff 00 	movl   $0x0,-0x2018(%rbp)
    c95b:	00 00 00 
    c95e:	c7 85 ec df ff ff 04 	movl   $0x4,-0x2014(%rbp)
    c965:	00 00 00 
    c968:	c7 85 f0 df ff ff 87 	movl   $0x7d199087,-0x2010(%rbp)
    c96f:	90 19 7d 
    c972:	c7 85 f4 df ff ff 79 	movl   $0xd44d8479,-0x200c(%rbp)
    c979:	84 4d d4 
    c97c:	c7 85 f8 df ff ff 04 	movl   $0x4,-0x2008(%rbp)
    c983:	00 00 00 
    c986:	c7 85 fc df ff ff 00 	movl   $0x0,-0x2004(%rbp)
    c98d:	00 00 00 
    c990:	c7 85 20 e2 ff ff 09 	movl   $0x9,-0x1de0(%rbp)
    c997:	00 00 00 
    c99a:	c7 85 24 e2 ff ff 09 	movl   $0x9,-0x1ddc(%rbp)
    c9a1:	00 00 00 
    c9a4:	c7 85 28 e2 ff ff 09 	movl   $0x9,-0x1dd8(%rbp)
    c9ab:	00 00 00 
    c9ae:	c7 85 2c e2 ff ff 09 	movl   $0x9,-0x1dd4(%rbp)
    c9b5:	00 00 00 
    c9b8:	c7 85 30 e2 ff ff 09 	movl   $0x9,-0x1dd0(%rbp)
    c9bf:	00 00 00 
    c9c2:	c7 85 34 e2 ff ff 09 	movl   $0x9,-0x1dcc(%rbp)
    c9c9:	00 00 00 
    c9cc:	c7 85 38 e2 ff ff 09 	movl   $0x9,-0x1dc8(%rbp)
    c9d3:	00 00 00 
    c9d6:	c7 85 3c e2 ff ff 09 	movl   $0x9,-0x1dc4(%rbp)
    c9dd:	00 00 00 
    c9e0:	c7 85 40 e2 ff ff 09 	movl   $0x9,-0x1dc0(%rbp)
    c9e7:	00 00 00 
    c9ea:	c7 85 44 e2 ff ff 09 	movl   $0x9,-0x1dbc(%rbp)
    c9f1:	00 00 00 
    c9f4:	c7 85 48 e2 ff ff 09 	movl   $0x9,-0x1db8(%rbp)
    c9fb:	00 00 00 
    c9fe:	c7 85 4c e2 ff ff 09 	movl   $0x9,-0x1db4(%rbp)
    ca05:	00 00 00 
    ca08:	48 8d 85 30 e5 ff ff 	lea    -0x1ad0(%rbp),%rax
    ca0f:	48 83 c0 30          	add    $0x30,%rax
    ca13:	48 89 85 c0 e0 ff ff 	mov    %rax,-0x1f40(%rbp)
    ca1a:	48 8d 85 00 e2 ff ff 	lea    -0x1e00(%rbp),%rax
    ca21:	48 83 c0 18          	add    $0x18,%rax
    ca25:	48 89 85 c8 e0 ff ff 	mov    %rax,-0x1f38(%rbp)
    ca2c:	c7 85 00 e0 ff ff ff 	movl   $0xffffffff,-0x2000(%rbp)
    ca33:	ff ff ff 
    ca36:	66 c7 85 84 df ff ff 	movw   $0x7,-0x207c(%rbp)
    ca3d:	07 00 
    ca3f:	c7 85 04 e0 ff ff 01 	movl   $0x1,-0x1ffc(%rbp)
    ca46:	00 00 00 
    ca49:	c7 85 08 e0 ff ff 72 	movl   $0x6e912672,-0x1ff8(%rbp)
    ca50:	26 91 6e 
    ca53:	c7 85 0c e0 ff ff 01 	movl   $0x1,-0x1ff4(%rbp)
    ca5a:	00 00 00 
    ca5d:	48 c7 85 88 e0 ff ff 	movq   $0x0,-0x1f78(%rbp)
    ca64:	00 00 00 00 
    ca68:	c7 85 bc df ff ff 00 	movl   $0x0,-0x2044(%rbp)
    ca6f:	00 00 00 
    ca72:	eb 42                	jmp    cab6 <func_42+0x2c49>
    ca74:	c7 85 c0 df ff ff 00 	movl   $0x0,-0x2040(%rbp)
    ca7b:	00 00 00 
    ca7e:	eb 26                	jmp    caa6 <func_42+0x2c39>
    ca80:	8b 85 c0 df ff ff    	mov    -0x2040(%rbp),%eax
    ca86:	48 63 d0             	movslq %eax,%rdx
    ca89:	8b 85 bc df ff ff    	mov    -0x2044(%rbp),%eax
    ca8f:	48 98                	cltq   
    ca91:	48 01 d0             	add    %rdx,%rax
    ca94:	c7 84 85 94 e1 ff ff 	movl   $0xc23d7b92,-0x1e6c(%rbp,%rax,4)
    ca9b:	92 7b 3d c2 
    ca9f:	83 85 c0 df ff ff 01 	addl   $0x1,-0x2040(%rbp)
    caa6:	83 bd c0 df ff ff 00 	cmpl   $0x0,-0x2040(%rbp)
    caad:	7e d1                	jle    ca80 <func_42+0x2c13>
    caaf:	83 85 bc df ff ff 01 	addl   $0x1,-0x2044(%rbp)
    cab6:	83 bd bc df ff ff 00 	cmpl   $0x0,-0x2044(%rbp)
    cabd:	7e b5                	jle    ca74 <func_42+0x2c07>
    cabf:	8b 85 04 e3 ff ff    	mov    -0x1cfc(%rbp),%eax
    cac5:	83 c0 01             	add    $0x1,%eax
    cac8:	89 85 04 e3 ff ff    	mov    %eax,-0x1cfc(%rbp)
    cace:	83 ad a0 df ff ff 01 	subl   $0x1,-0x2060(%rbp)
    cad5:	48 8b 85 c0 e0 ff ff 	mov    -0x1f40(%rbp),%rax
    cadc:	48 8d 95 90 df ff ff 	lea    -0x2070(%rbp),%rdx
    cae3:	48 89 10             	mov    %rdx,(%rax)
    cae6:	c7 85 a0 df ff ff 00 	movl   $0x0,-0x2060(%rbp)
    caed:	00 00 00 
    caf0:	e9 ef 13 00 00       	jmpq   dee4 <func_42+0x4077>
    caf5:	c7 85 10 e0 ff ff fb 	movl   $0xfffffffb,-0x1ff0(%rbp)
    cafc:	ff ff ff 
    caff:	c7 85 14 e0 ff ff db 	movl   $0xbe0b5cdb,-0x1fec(%rbp)
    cb06:	5c 0b be 
    cb09:	48 8d 05 98 53 01 00 	lea    0x15398(%rip),%rax        # 21ea8 <g_743>
    cb10:	48 89 85 78 e0 ff ff 	mov    %rax,-0x1f88(%rbp)
    cb17:	48 8d 85 78 e0 ff ff 	lea    -0x1f88(%rbp),%rax
    cb1e:	48 89 85 90 e9 ff ff 	mov    %rax,-0x1670(%rbp)
    cb25:	48 c7 85 98 e9 ff ff 	movq   $0x0,-0x1668(%rbp)
    cb2c:	00 00 00 00 
    cb30:	48 8d 85 78 e0 ff ff 	lea    -0x1f88(%rbp),%rax
    cb37:	48 89 85 a0 e9 ff ff 	mov    %rax,-0x1660(%rbp)
    cb3e:	48 8d 85 78 e0 ff ff 	lea    -0x1f88(%rbp),%rax
    cb45:	48 89 85 a8 e9 ff ff 	mov    %rax,-0x1658(%rbp)
    cb4c:	48 8d 85 78 e0 ff ff 	lea    -0x1f88(%rbp),%rax
    cb53:	48 89 85 b0 e9 ff ff 	mov    %rax,-0x1650(%rbp)
    cb5a:	48 8d 85 78 e0 ff ff 	lea    -0x1f88(%rbp),%rax
    cb61:	48 89 85 b8 e9 ff ff 	mov    %rax,-0x1648(%rbp)
    cb68:	48 8d 85 78 e0 ff ff 	lea    -0x1f88(%rbp),%rax
    cb6f:	48 89 85 c0 e9 ff ff 	mov    %rax,-0x1640(%rbp)
    cb76:	48 8d 85 78 e0 ff ff 	lea    -0x1f88(%rbp),%rax
    cb7d:	48 89 85 c8 e9 ff ff 	mov    %rax,-0x1638(%rbp)
    cb84:	48 8d 85 78 e0 ff ff 	lea    -0x1f88(%rbp),%rax
    cb8b:	48 89 85 d0 e9 ff ff 	mov    %rax,-0x1630(%rbp)
    cb92:	48 8d 85 78 e0 ff ff 	lea    -0x1f88(%rbp),%rax
    cb99:	48 89 85 d8 e9 ff ff 	mov    %rax,-0x1628(%rbp)
    cba0:	48 8d 85 78 e0 ff ff 	lea    -0x1f88(%rbp),%rax
    cba7:	48 89 85 e0 e9 ff ff 	mov    %rax,-0x1620(%rbp)
    cbae:	48 c7 85 e8 e9 ff ff 	movq   $0x0,-0x1618(%rbp)
    cbb5:	00 00 00 00 
    cbb9:	48 8d 85 78 e0 ff ff 	lea    -0x1f88(%rbp),%rax
    cbc0:	48 89 85 f0 e9 ff ff 	mov    %rax,-0x1610(%rbp)
    cbc7:	48 8d 85 78 e0 ff ff 	lea    -0x1f88(%rbp),%rax
    cbce:	48 89 85 f8 e9 ff ff 	mov    %rax,-0x1608(%rbp)
    cbd5:	48 8d 85 78 e0 ff ff 	lea    -0x1f88(%rbp),%rax
    cbdc:	48 89 85 00 ea ff ff 	mov    %rax,-0x1600(%rbp)
    cbe3:	48 8d 85 78 e0 ff ff 	lea    -0x1f88(%rbp),%rax
    cbea:	48 89 85 08 ea ff ff 	mov    %rax,-0x15f8(%rbp)
    cbf1:	48 8d 85 78 e0 ff ff 	lea    -0x1f88(%rbp),%rax
    cbf8:	48 89 85 10 ea ff ff 	mov    %rax,-0x15f0(%rbp)
    cbff:	48 8d 85 78 e0 ff ff 	lea    -0x1f88(%rbp),%rax
    cc06:	48 89 85 18 ea ff ff 	mov    %rax,-0x15e8(%rbp)
    cc0d:	48 8d 85 78 e0 ff ff 	lea    -0x1f88(%rbp),%rax
    cc14:	48 89 85 20 ea ff ff 	mov    %rax,-0x15e0(%rbp)
    cc1b:	48 8d 85 78 e0 ff ff 	lea    -0x1f88(%rbp),%rax
    cc22:	48 89 85 28 ea ff ff 	mov    %rax,-0x15d8(%rbp)
    cc29:	48 8d 85 78 e0 ff ff 	lea    -0x1f88(%rbp),%rax
    cc30:	48 89 85 30 ea ff ff 	mov    %rax,-0x15d0(%rbp)
    cc37:	48 8d 85 78 e0 ff ff 	lea    -0x1f88(%rbp),%rax
    cc3e:	48 89 85 38 ea ff ff 	mov    %rax,-0x15c8(%rbp)
    cc45:	48 8d 85 78 e0 ff ff 	lea    -0x1f88(%rbp),%rax
    cc4c:	48 89 85 40 ea ff ff 	mov    %rax,-0x15c0(%rbp)
    cc53:	48 8d 85 78 e0 ff ff 	lea    -0x1f88(%rbp),%rax
    cc5a:	48 89 85 48 ea ff ff 	mov    %rax,-0x15b8(%rbp)
    cc61:	48 8d 85 78 e0 ff ff 	lea    -0x1f88(%rbp),%rax
    cc68:	48 89 85 50 ea ff ff 	mov    %rax,-0x15b0(%rbp)
    cc6f:	48 8d 85 78 e0 ff ff 	lea    -0x1f88(%rbp),%rax
    cc76:	48 89 85 58 ea ff ff 	mov    %rax,-0x15a8(%rbp)
    cc7d:	48 8d 85 78 e0 ff ff 	lea    -0x1f88(%rbp),%rax
    cc84:	48 89 85 60 ea ff ff 	mov    %rax,-0x15a0(%rbp)
    cc8b:	48 c7 85 68 ea ff ff 	movq   $0x0,-0x1598(%rbp)
    cc92:	00 00 00 00 
    cc96:	48 8d 85 78 e0 ff ff 	lea    -0x1f88(%rbp),%rax
    cc9d:	48 89 85 70 ea ff ff 	mov    %rax,-0x1590(%rbp)
    cca4:	48 c7 85 78 ea ff ff 	movq   $0x0,-0x1588(%rbp)
    ccab:	00 00 00 00 
    ccaf:	48 8d 85 78 e0 ff ff 	lea    -0x1f88(%rbp),%rax
    ccb6:	48 89 85 80 ea ff ff 	mov    %rax,-0x1580(%rbp)
    ccbd:	48 8d 85 78 e0 ff ff 	lea    -0x1f88(%rbp),%rax
    ccc4:	48 89 85 88 ea ff ff 	mov    %rax,-0x1578(%rbp)
    cccb:	48 8d 85 78 e0 ff ff 	lea    -0x1f88(%rbp),%rax
    ccd2:	48 89 85 90 ea ff ff 	mov    %rax,-0x1570(%rbp)
    ccd9:	48 8d 85 78 e0 ff ff 	lea    -0x1f88(%rbp),%rax
    cce0:	48 89 85 98 ea ff ff 	mov    %rax,-0x1568(%rbp)
    cce7:	48 8d 85 78 e0 ff ff 	lea    -0x1f88(%rbp),%rax
    ccee:	48 89 85 a0 ea ff ff 	mov    %rax,-0x1560(%rbp)
    ccf5:	48 8d 85 78 e0 ff ff 	lea    -0x1f88(%rbp),%rax
    ccfc:	48 89 85 a8 ea ff ff 	mov    %rax,-0x1558(%rbp)
    cd03:	48 8d 85 90 e9 ff ff 	lea    -0x1670(%rbp),%rax
    cd0a:	48 05 10 01 00 00    	add    $0x110,%rax
    cd10:	48 89 85 a0 e3 ff ff 	mov    %rax,-0x1c60(%rbp)
    cd17:	48 8d 85 90 e9 ff ff 	lea    -0x1670(%rbp),%rax
    cd1e:	48 05 10 01 00 00    	add    $0x110,%rax
    cd24:	48 89 85 a8 e3 ff ff 	mov    %rax,-0x1c58(%rbp)
    cd2b:	48 8d 85 90 e9 ff ff 	lea    -0x1670(%rbp),%rax
    cd32:	48 05 88 00 00 00    	add    $0x88,%rax
    cd38:	48 89 85 b0 e3 ff ff 	mov    %rax,-0x1c50(%rbp)
    cd3f:	48 8d 85 90 e9 ff ff 	lea    -0x1670(%rbp),%rax
    cd46:	48 05 c0 00 00 00    	add    $0xc0,%rax
    cd4c:	48 89 85 b8 e3 ff ff 	mov    %rax,-0x1c48(%rbp)
    cd53:	48 8d 85 90 e9 ff ff 	lea    -0x1670(%rbp),%rax
    cd5a:	48 05 10 01 00 00    	add    $0x110,%rax
    cd60:	48 89 85 c0 e3 ff ff 	mov    %rax,-0x1c40(%rbp)
    cd67:	48 8d 85 90 e9 ff ff 	lea    -0x1670(%rbp),%rax
    cd6e:	48 05 c0 00 00 00    	add    $0xc0,%rax
    cd74:	48 89 85 c8 e3 ff ff 	mov    %rax,-0x1c38(%rbp)
    cd7b:	48 8d 85 90 e9 ff ff 	lea    -0x1670(%rbp),%rax
    cd82:	48 05 88 00 00 00    	add    $0x88,%rax
    cd88:	48 89 85 d0 e3 ff ff 	mov    %rax,-0x1c30(%rbp)
    cd8f:	48 8d 85 90 e9 ff ff 	lea    -0x1670(%rbp),%rax
    cd96:	48 05 10 01 00 00    	add    $0x110,%rax
    cd9c:	48 89 85 d8 e3 ff ff 	mov    %rax,-0x1c28(%rbp)
    cda3:	48 8d 85 90 e9 ff ff 	lea    -0x1670(%rbp),%rax
    cdaa:	48 05 10 01 00 00    	add    $0x110,%rax
    cdb0:	48 89 85 e0 e3 ff ff 	mov    %rax,-0x1c20(%rbp)
    cdb7:	48 8d 85 90 e9 ff ff 	lea    -0x1670(%rbp),%rax
    cdbe:	48 05 88 00 00 00    	add    $0x88,%rax
    cdc4:	48 89 85 e8 e3 ff ff 	mov    %rax,-0x1c18(%rbp)
    cdcb:	48 8d 85 90 e9 ff ff 	lea    -0x1670(%rbp),%rax
    cdd2:	48 05 c0 00 00 00    	add    $0xc0,%rax
    cdd8:	48 89 85 f0 e3 ff ff 	mov    %rax,-0x1c10(%rbp)
    cddf:	48 8d 85 90 e9 ff ff 	lea    -0x1670(%rbp),%rax
    cde6:	48 05 10 01 00 00    	add    $0x110,%rax
    cdec:	48 89 85 f8 e3 ff ff 	mov    %rax,-0x1c08(%rbp)
    cdf3:	48 8d 85 90 e9 ff ff 	lea    -0x1670(%rbp),%rax
    cdfa:	48 05 c0 00 00 00    	add    $0xc0,%rax
    ce00:	48 89 85 00 e4 ff ff 	mov    %rax,-0x1c00(%rbp)
    ce07:	48 8d 85 90 e9 ff ff 	lea    -0x1670(%rbp),%rax
    ce0e:	48 05 88 00 00 00    	add    $0x88,%rax
    ce14:	48 89 85 08 e4 ff ff 	mov    %rax,-0x1bf8(%rbp)
    ce1b:	48 8d 85 90 e9 ff ff 	lea    -0x1670(%rbp),%rax
    ce22:	48 05 10 01 00 00    	add    $0x110,%rax
    ce28:	48 89 85 10 e4 ff ff 	mov    %rax,-0x1bf0(%rbp)
    ce2f:	48 8d 85 90 e9 ff ff 	lea    -0x1670(%rbp),%rax
    ce36:	48 05 10 01 00 00    	add    $0x110,%rax
    ce3c:	48 89 85 18 e4 ff ff 	mov    %rax,-0x1be8(%rbp)
    ce43:	48 8d 85 90 e9 ff ff 	lea    -0x1670(%rbp),%rax
    ce4a:	48 05 88 00 00 00    	add    $0x88,%rax
    ce50:	48 89 85 20 e4 ff ff 	mov    %rax,-0x1be0(%rbp)
    ce57:	48 8d 85 90 e9 ff ff 	lea    -0x1670(%rbp),%rax
    ce5e:	48 05 c0 00 00 00    	add    $0xc0,%rax
    ce64:	48 89 85 28 e4 ff ff 	mov    %rax,-0x1bd8(%rbp)
    ce6b:	48 8d 85 90 e9 ff ff 	lea    -0x1670(%rbp),%rax
    ce72:	48 05 10 01 00 00    	add    $0x110,%rax
    ce78:	48 89 85 30 e4 ff ff 	mov    %rax,-0x1bd0(%rbp)
    ce7f:	48 8d 85 90 e9 ff ff 	lea    -0x1670(%rbp),%rax
    ce86:	48 05 c0 00 00 00    	add    $0xc0,%rax
    ce8c:	48 89 85 38 e4 ff ff 	mov    %rax,-0x1bc8(%rbp)
    ce93:	48 8d 85 90 e9 ff ff 	lea    -0x1670(%rbp),%rax
    ce9a:	48 05 88 00 00 00    	add    $0x88,%rax
    cea0:	48 89 85 40 e4 ff ff 	mov    %rax,-0x1bc0(%rbp)
    cea7:	48 8d 85 90 e9 ff ff 	lea    -0x1670(%rbp),%rax
    ceae:	48 05 10 01 00 00    	add    $0x110,%rax
    ceb4:	48 89 85 48 e4 ff ff 	mov    %rax,-0x1bb8(%rbp)
    cebb:	48 8d 85 90 e9 ff ff 	lea    -0x1670(%rbp),%rax
    cec2:	48 05 10 01 00 00    	add    $0x110,%rax
    cec8:	48 89 85 50 e4 ff ff 	mov    %rax,-0x1bb0(%rbp)
    cecf:	48 8d 85 90 e9 ff ff 	lea    -0x1670(%rbp),%rax
    ced6:	48 05 88 00 00 00    	add    $0x88,%rax
    cedc:	48 89 85 58 e4 ff ff 	mov    %rax,-0x1ba8(%rbp)
    cee3:	48 8d 85 90 e9 ff ff 	lea    -0x1670(%rbp),%rax
    ceea:	48 05 c0 00 00 00    	add    $0xc0,%rax
    cef0:	48 89 85 60 e4 ff ff 	mov    %rax,-0x1ba0(%rbp)
    cef7:	48 8d 85 90 e9 ff ff 	lea    -0x1670(%rbp),%rax
    cefe:	48 05 10 01 00 00    	add    $0x110,%rax
    cf04:	48 89 85 68 e4 ff ff 	mov    %rax,-0x1b98(%rbp)
    cf0b:	48 8d 85 90 e9 ff ff 	lea    -0x1670(%rbp),%rax
    cf12:	48 05 c0 00 00 00    	add    $0xc0,%rax
    cf18:	48 89 85 70 e4 ff ff 	mov    %rax,-0x1b90(%rbp)
    cf1f:	48 8d 85 90 e9 ff ff 	lea    -0x1670(%rbp),%rax
    cf26:	48 05 88 00 00 00    	add    $0x88,%rax
    cf2c:	48 89 85 78 e4 ff ff 	mov    %rax,-0x1b88(%rbp)
    cf33:	48 8d 85 90 e9 ff ff 	lea    -0x1670(%rbp),%rax
    cf3a:	48 05 10 01 00 00    	add    $0x110,%rax
    cf40:	48 89 85 80 e4 ff ff 	mov    %rax,-0x1b80(%rbp)
    cf47:	48 8d 85 90 e9 ff ff 	lea    -0x1670(%rbp),%rax
    cf4e:	48 05 10 01 00 00    	add    $0x110,%rax
    cf54:	48 89 85 88 e4 ff ff 	mov    %rax,-0x1b78(%rbp)
    cf5b:	48 8d 85 90 e9 ff ff 	lea    -0x1670(%rbp),%rax
    cf62:	48 05 88 00 00 00    	add    $0x88,%rax
    cf68:	48 89 85 90 e4 ff ff 	mov    %rax,-0x1b70(%rbp)
    cf6f:	48 8d 85 90 e9 ff ff 	lea    -0x1670(%rbp),%rax
    cf76:	48 05 c0 00 00 00    	add    $0xc0,%rax
    cf7c:	48 89 85 98 e4 ff ff 	mov    %rax,-0x1b68(%rbp)
    cf83:	48 8d 85 90 e9 ff ff 	lea    -0x1670(%rbp),%rax
    cf8a:	48 05 10 01 00 00    	add    $0x110,%rax
    cf90:	48 89 85 a0 e4 ff ff 	mov    %rax,-0x1b60(%rbp)
    cf97:	48 8d 85 90 e9 ff ff 	lea    -0x1670(%rbp),%rax
    cf9e:	48 05 c0 00 00 00    	add    $0xc0,%rax
    cfa4:	48 89 85 a8 e4 ff ff 	mov    %rax,-0x1b58(%rbp)
    cfab:	48 8d 85 90 e9 ff ff 	lea    -0x1670(%rbp),%rax
    cfb2:	48 05 88 00 00 00    	add    $0x88,%rax
    cfb8:	48 89 85 b0 e4 ff ff 	mov    %rax,-0x1b50(%rbp)
    cfbf:	48 8d 05 fd 21 01 00 	lea    0x121fd(%rip),%rax        # 1f1c3 <g_2003+0x1323>
    cfc6:	48 89 85 d0 e0 ff ff 	mov    %rax,-0x1f30(%rbp)
    cfcd:	48 8d 85 10 e3 ff ff 	lea    -0x1cf0(%rbp),%rax
    cfd4:	48 83 c0 28          	add    $0x28,%rax
    cfd8:	48 89 85 50 e2 ff ff 	mov    %rax,-0x1db0(%rbp)
    cfdf:	48 8d 05 ac f4 00 00 	lea    0xf4ac(%rip),%rax        # 1c492 <g_442>
    cfe6:	48 89 85 58 e2 ff ff 	mov    %rax,-0x1da8(%rbp)
    cfed:	48 8d 85 10 e3 ff ff 	lea    -0x1cf0(%rbp),%rax
    cff4:	48 83 c0 28          	add    $0x28,%rax
    cff8:	48 89 85 60 e2 ff ff 	mov    %rax,-0x1da0(%rbp)
    cfff:	48 8d 85 10 e3 ff ff 	lea    -0x1cf0(%rbp),%rax
    d006:	48 83 c0 28          	add    $0x28,%rax
    d00a:	48 89 85 68 e2 ff ff 	mov    %rax,-0x1d98(%rbp)
    d011:	48 8d 05 7a f4 00 00 	lea    0xf47a(%rip),%rax        # 1c492 <g_442>
    d018:	48 89 85 70 e2 ff ff 	mov    %rax,-0x1d90(%rbp)
    d01f:	48 8d 85 10 e3 ff ff 	lea    -0x1cf0(%rbp),%rax
    d026:	48 83 c0 28          	add    $0x28,%rax
    d02a:	48 89 85 78 e2 ff ff 	mov    %rax,-0x1d88(%rbp)
    d031:	48 8d 85 10 e3 ff ff 	lea    -0x1cf0(%rbp),%rax
    d038:	48 83 c0 28          	add    $0x28,%rax
    d03c:	48 89 85 80 e2 ff ff 	mov    %rax,-0x1d80(%rbp)
    d043:	48 8d 05 48 f4 00 00 	lea    0xf448(%rip),%rax        # 1c492 <g_442>
    d04a:	48 89 85 88 e2 ff ff 	mov    %rax,-0x1d78(%rbp)
    d051:	48 8d 85 10 e3 ff ff 	lea    -0x1cf0(%rbp),%rax
    d058:	48 83 c0 28          	add    $0x28,%rax
    d05c:	48 89 85 90 e2 ff ff 	mov    %rax,-0x1d70(%rbp)
    d063:	48 8d 85 10 e3 ff ff 	lea    -0x1cf0(%rbp),%rax
    d06a:	48 83 c0 28          	add    $0x28,%rax
    d06e:	48 89 85 98 e2 ff ff 	mov    %rax,-0x1d68(%rbp)
    d075:	48 b8 c5 47 08 4d 89 	movabs $0xa2822e894d0847c5,%rax
    d07c:	2e 82 a2 
    d07f:	48 89 85 d8 e0 ff ff 	mov    %rax,-0x1f28(%rbp)
    d086:	c7 85 18 e0 ff ff 13 	movl   $0xffb06713,-0x1fe8(%rbp)
    d08d:	67 b0 ff 
    d090:	c7 85 1c e0 ff ff 99 	movl   $0x767da599,-0x1fe4(%rbp)
    d097:	a5 7d 76 
    d09a:	c7 85 20 e0 ff ff 3a 	movl   $0x72152d3a,-0x1fe0(%rbp)
    d0a1:	2d 15 72 
    d0a4:	48 8d 85 a0 ec ff ff 	lea    -0x1360(%rbp),%rax
    d0ab:	48 8d 15 ae b1 00 00 	lea    0xb1ae(%rip),%rdx        # 18260 <g_1804+0x1000>
    d0b2:	b9 36 00 00 00       	mov    $0x36,%ecx
    d0b7:	48 89 c7             	mov    %rax,%rdi
    d0ba:	48 89 d6             	mov    %rdx,%rsi
    d0bd:	f3 48 a5             	rep movsq %ds:(%rsi),%es:(%rdi)
    d0c0:	48 b8 e0 3a bb 39 6e 	movabs $0xfbb1b36e39bb3ae0,%rax
    d0c7:	b3 b1 fb 
    d0ca:	48 89 85 e0 e0 ff ff 	mov    %rax,-0x1f20(%rbp)
    d0d1:	48 c7 85 e8 e0 ff ff 	movq   $0xfffffffffffffff8,-0x1f18(%rbp)
    d0d8:	f8 ff ff ff 
    d0dc:	c7 85 c4 df ff ff 00 	movl   $0x0,-0x203c(%rbp)
    d0e3:	00 00 00 
    d0e6:	eb 41                	jmp    d129 <func_42+0x32bc>
    d0e8:	c7 85 c8 df ff ff 00 	movl   $0x0,-0x2038(%rbp)
    d0ef:	00 00 00 
    d0f2:	eb 25                	jmp    d119 <func_42+0x32ac>
    d0f4:	8b 85 c8 df ff ff    	mov    -0x2038(%rbp),%eax
    d0fa:	48 63 d0             	movslq %eax,%rdx
    d0fd:	8b 85 c4 df ff ff    	mov    -0x203c(%rbp),%eax
    d103:	48 98                	cltq   
    d105:	48 01 d0             	add    %rdx,%rax
    d108:	66 c7 84 45 e0 e1 ff 	movw   $0xffff,-0x1e20(%rbp,%rax,2)
    d10f:	ff ff ff 
    d112:	83 85 c8 df ff ff 01 	addl   $0x1,-0x2038(%rbp)
    d119:	83 bd c8 df ff ff 00 	cmpl   $0x0,-0x2038(%rbp)
    d120:	7e d2                	jle    d0f4 <func_42+0x3287>
    d122:	83 85 c4 df ff ff 01 	addl   $0x1,-0x203c(%rbp)
    d129:	83 bd c4 df ff ff 09 	cmpl   $0x9,-0x203c(%rbp)
    d130:	7e b6                	jle    d0e8 <func_42+0x327b>
    d132:	0f b7 85 68 df ff ff 	movzwl -0x2098(%rbp),%eax
    d139:	c1 e0 04             	shl    $0x4,%eax
    d13c:	66 c1 f8 0a          	sar    $0xa,%ax
    d140:	0f be d8             	movsbl %al,%ebx
    d143:	48 8b 05 b6 48 01 00 	mov    0x148b6(%rip),%rax        # 21a00 <g_1476>
    d14a:	48 8b 00             	mov    (%rax),%rax
    d14d:	48 8b 00             	mov    (%rax),%rax
    d150:	0f b6 00             	movzbl (%rax),%eax
    d153:	44 0f be e0          	movsbl %al,%r12d
    d157:	4c 0f be ad 6c df ff 	movsbq -0x2094(%rbp),%r13
    d15e:	ff 
    d15f:	0f b6 85 68 df ff ff 	movzbl -0x2098(%rbp),%eax
    d166:	83 e0 3f             	and    $0x3f,%eax
    d169:	84 c0                	test   %al,%al
    d16b:	74 48                	je     d1b5 <func_42+0x3348>
    d16d:	0f b7 85 f0 e1 ff ff 	movzwl -0x1e10(%rbp),%eax
    d174:	44 0f b7 f0          	movzwl %ax,%r14d
    d178:	be 6e ec 00 00       	mov    $0xec6e,%esi
    d17d:	bf 09 00 00 00       	mov    $0x9,%edi
    d182:	e8 78 9b ff ff       	callq  6cff <safe_add_func_uint16_t_u_u>
    d187:	be 01 00 00 00       	mov    $0x1,%esi
    d18c:	bf 01 00 00 00       	mov    $0x1,%edi
    d191:	e8 f8 9b ff ff       	callq  6d8e <safe_div_func_uint16_t_u_u>
    d196:	48 0f be 85 6c df ff 	movsbq -0x2094(%rbp),%rax
    d19d:	ff 
    d19e:	4c 89 f6             	mov    %r14,%rsi
    d1a1:	48 89 c7             	mov    %rax,%rdi
    d1a4:	e8 ff 96 ff ff       	callq  68a8 <safe_sub_func_int64_t_s_s>
    d1a9:	48 85 c0             	test   %rax,%rax
    d1ac:	74 07                	je     d1b5 <func_42+0x3348>
    d1ae:	b8 01 00 00 00       	mov    $0x1,%eax
    d1b3:	eb 05                	jmp    d1ba <func_42+0x334d>
    d1b5:	b8 00 00 00 00       	mov    $0x0,%eax
    d1ba:	89 85 10 e0 ff ff    	mov    %eax,-0x1ff0(%rbp)
    d1c0:	8b 85 10 e0 ff ff    	mov    -0x1ff0(%rbp),%eax
    d1c6:	0f b7 d0             	movzwl %ax,%edx
    d1c9:	48 8b 85 d0 e8 ff ff 	mov    -0x1730(%rbp),%rax
    d1d0:	48 39 85 c8 e0 ff ff 	cmp    %rax,-0x1f38(%rbp)
    d1d7:	0f 95 c0             	setne  %al
    d1da:	0f b6 c0             	movzbl %al,%eax
    d1dd:	89 d6                	mov    %edx,%esi
    d1df:	89 c7                	mov    %eax,%edi
    d1e1:	e8 57 9b ff ff       	callq  6d3d <safe_mul_func_uint16_t_u_u>
    d1e6:	b8 00 00 00 00       	mov    $0x0,%eax
    d1eb:	21 85 14 e0 ff ff    	and    %eax,-0x1fec(%rbp)
    d1f1:	83 bd 14 e0 ff ff 00 	cmpl   $0x0,-0x1fec(%rbp)
    d1f8:	0f 9f c0             	setg   %al
    d1fb:	0f b6 d0             	movzbl %al,%edx
    d1fe:	0f b6 85 68 df ff ff 	movzbl -0x2098(%rbp),%eax
    d205:	83 e0 3f             	and    $0x3f,%eax
    d208:	0f b6 c0             	movzbl %al,%eax
    d20b:	09 d0                	or     %edx,%eax
    d20d:	48 98                	cltq   
    d20f:	4c 89 ee             	mov    %r13,%rsi
    d212:	48 89 c7             	mov    %rax,%rdi
    d215:	e8 95 9e ff ff       	callq  70af <safe_div_func_uint64_t_u_u>
    d21a:	48 85 c0             	test   %rax,%rax
    d21d:	75 0e                	jne    d22d <func_42+0x33c0>
    d21f:	0f b7 85 68 df ff ff 	movzwl -0x2098(%rbp),%eax
    d226:	66 25 c0 0f          	and    $0xfc0,%ax
    d22a:	66 85 c0             	test   %ax,%ax
    d22d:	48 8b 85 c8 e0 ff ff 	mov    -0x1f38(%rbp),%rax
    d234:	48 8b 00             	mov    (%rax),%rax
    d237:	48 85 c0             	test   %rax,%rax
    d23a:	0f 94 c0             	sete   %al
    d23d:	0f b6 c0             	movzbl %al,%eax
    d240:	89 c7                	mov    %eax,%edi
    d242:	e8 56 91 ff ff       	callq  639d <safe_unary_minus_func_int16_t_s>
    d247:	0f b6 c0             	movzbl %al,%eax
    d24a:	44 89 e6             	mov    %r12d,%esi
    d24d:	89 c7                	mov    %eax,%edi
    d24f:	e8 b1 99 ff ff       	callq  6c05 <safe_lshift_func_uint8_t_u_s>
    d254:	0f b6 d0             	movzbl %al,%edx
    d257:	0f b7 85 ee e1 ff ff 	movzwl -0x1e12(%rbp),%eax
    d25e:	66 39 c2             	cmp    %ax,%dx
    d261:	0f 96 c0             	setbe  %al
    d264:	0f b6 c0             	movzbl %al,%eax
    d267:	89 de                	mov    %ebx,%esi
    d269:	89 c7                	mov    %eax,%edi
    d26b:	e8 63 91 ff ff       	callq  63d3 <safe_sub_func_int16_t_s_s>
    d270:	66 85 c0             	test   %ax,%ax
    d273:	75 0e                	jne    d283 <func_42+0x3416>
    d275:	0f b6 85 68 df ff ff 	movzbl -0x2098(%rbp),%eax
    d27c:	83 e0 3f             	and    $0x3f,%eax
    d27f:	84 c0                	test   %al,%al
    d281:	74 07                	je     d28a <func_42+0x341d>
    d283:	b8 01 00 00 00       	mov    $0x1,%eax
    d288:	eb 05                	jmp    d28f <func_42+0x3422>
    d28a:	b8 00 00 00 00       	mov    $0x0,%eax
    d28f:	89 c6                	mov    %eax,%esi
    d291:	bf 10 5b df 70       	mov    $0x70df5b10,%edi
    d296:	e8 31 94 ff ff       	callq  66cc <safe_mod_func_int32_t_s_s>
    d29b:	85 c0                	test   %eax,%eax
    d29d:	75 0e                	jne    d2ad <func_42+0x3440>
    d29f:	8b 85 94 e1 ff ff    	mov    -0x1e6c(%rbp),%eax
    d2a5:	85 c0                	test   %eax,%eax
    d2a7:	0f 84 e0 03 00 00    	je     d68d <func_42+0x3820>
    d2ad:	c6 85 78 df ff ff 00 	movb   $0x0,-0x2088(%rbp)
    d2b4:	48 8d 05 65 3e 01 00 	lea    0x13e65(%rip),%rax        # 21120 <g_773>
    d2bb:	48 89 85 28 e1 ff ff 	mov    %rax,-0x1ed8(%rbp)
    d2c2:	66 c7 85 86 df ff ff 	movw   $0xffff,-0x207a(%rbp)
    d2c9:	ff ff 
    d2cb:	c7 85 80 e0 ff ff 04 	movl   $0xbc30a504,-0x1f80(%rbp)
    d2d2:	a5 30 bc 
    d2d5:	48 8d 05 94 f3 00 00 	lea    0xf394(%rip),%rax        # 1c670 <g_548>
    d2dc:	48 89 85 30 e1 ff ff 	mov    %rax,-0x1ed0(%rbp)
    d2e3:	c6 85 6c df ff ff 00 	movb   $0x0,-0x2094(%rbp)
    d2ea:	e9 af 02 00 00       	jmpq   d59e <func_42+0x3731>
    d2ef:	48 8d 05 a2 f3 00 00 	lea    0xf3a2(%rip),%rax        # 1c698 <g_676>
    d2f6:	48 89 85 38 e1 ff ff 	mov    %rax,-0x1ec8(%rbp)
    d2fd:	48 8d 05 6c f3 00 00 	lea    0xf36c(%rip),%rax        # 1c670 <g_548>
    d304:	48 89 85 40 e1 ff ff 	mov    %rax,-0x1ec0(%rbp)
    d30b:	c7 85 24 e0 ff ff 01 	movl   $0x1,-0x1fdc(%rbp)
    d312:	00 00 00 
    d315:	48 8b 85 58 f6 ff ff 	mov    -0x9a8(%rbp),%rax
    d31c:	48 89 85 38 e1 ff ff 	mov    %rax,-0x1ec8(%rbp)
    d323:	8b 85 24 e0 ff ff    	mov    -0x1fdc(%rbp),%eax
    d329:	48 63 d8             	movslq %eax,%rbx
    d32c:	48 8d 05 11 f2 00 00 	lea    0xf211(%rip),%rax        # 1c544 <g_495+0x84>
    d333:	66 c7 00 09 94       	movw   $0x9409,(%rax)
    d338:	8b 95 14 e0 ff ff    	mov    -0x1fec(%rbp),%edx
    d33e:	0f be 85 6c df ff ff 	movsbl -0x2094(%rbp),%eax
    d345:	89 d6                	mov    %edx,%esi
    d347:	89 c7                	mov    %eax,%edi
    d349:	e8 15 92 ff ff       	callq  6563 <safe_rshift_func_int16_t_s_u>
    d34e:	0f b7 c0             	movzwl %ax,%eax
    d351:	be fd ff 00 00       	mov    $0xfffd,%esi
    d356:	89 c7                	mov    %eax,%edi
    d358:	e8 e0 99 ff ff       	callq  6d3d <safe_mul_func_uint16_t_u_u>
    d35d:	48 8b 85 40 e1 ff ff 	mov    -0x1ec0(%rbp),%rax
    d364:	0f b6 00             	movzbl (%rax),%eax
    d367:	8d 50 01             	lea    0x1(%rax),%edx
    d36a:	48 8b 85 40 e1 ff ff 	mov    -0x1ec0(%rbp),%rax
    d371:	88 10                	mov    %dl,(%rax)
    d373:	48 8b 05 2e 3d 01 00 	mov    0x13d2e(%rip),%rax        # 210a8 <g_724>
    d37a:	48 8b 00             	mov    (%rax),%rax
    d37d:	48 8b 10             	mov    (%rax),%rdx
    d380:	48 83 ea 01          	sub    $0x1,%rdx
    d384:	48 89 10             	mov    %rdx,(%rax)
    d387:	ba 00 00 00 00       	mov    $0x0,%edx
    d38c:	48 8b 05 f5 3c 01 00 	mov    0x13cf5(%rip),%rax        # 21088 <g_243>
    d393:	48 63 d2             	movslq %edx,%rdx
    d396:	48 89 10             	mov    %rdx,(%rax)
    d399:	48 8b 00             	mov    (%rax),%rax
    d39c:	83 c8 9f             	or     $0xffffff9f,%eax
    d39f:	0f b6 c0             	movzbl %al,%eax
    d3a2:	be 01 00 00 00       	mov    $0x1,%esi
    d3a7:	89 c7                	mov    %eax,%edi
    d3a9:	e8 2d 98 ff ff       	callq  6bdb <safe_div_func_uint8_t_u_u>
    d3ae:	84 c0                	test   %al,%al
    d3b0:	0f 95 c0             	setne  %al
    d3b3:	0f b6 d0             	movzbl %al,%edx
    d3b6:	0f bf 85 86 df ff ff 	movswl -0x207a(%rbp),%eax
    d3bd:	39 c2                	cmp    %eax,%edx
    d3bf:	7d 10                	jge    d3d1 <func_42+0x3564>
    d3c1:	83 bd 24 e0 ff ff 00 	cmpl   $0x0,-0x1fdc(%rbp)
    d3c8:	74 07                	je     d3d1 <func_42+0x3564>
    d3ca:	b8 01 00 00 00       	mov    $0x1,%eax
    d3cf:	eb 05                	jmp    d3d6 <func_42+0x3569>
    d3d1:	b8 00 00 00 00       	mov    $0x0,%eax
    d3d6:	48 98                	cltq   
    d3d8:	48 89 de             	mov    %rbx,%rsi
    d3db:	48 89 c7             	mov    %rax,%rdi
    d3de:	e8 4b 9c ff ff       	callq  702e <safe_add_func_uint64_t_u_u>
    d3e3:	98                   	cwtl   
    d3e4:	be 0f 00 00 00       	mov    $0xf,%esi
    d3e9:	89 c7                	mov    %eax,%edi
    d3eb:	e8 f1 90 ff ff       	callq  64e1 <safe_lshift_func_int16_t_s_u>
    d3f0:	b8 bd 45 00 00       	mov    $0x45bd,%eax
    d3f5:	89 c2                	mov    %eax,%edx
    d3f7:	8b 85 80 e0 ff ff    	mov    -0x1f80(%rbp),%eax
    d3fd:	21 d0                	and    %edx,%eax
    d3ff:	89 85 80 e0 ff ff    	mov    %eax,-0x1f80(%rbp)
    d405:	c7 05 3d ec 00 00 00 	movl   $0x0,0xec3d(%rip)        # 1c04c <g_116>
    d40c:	00 00 00 
    d40f:	e9 65 01 00 00       	jmpq   d579 <func_42+0x370c>
    d414:	48 8d 85 a0 e1 ff ff 	lea    -0x1e60(%rbp),%rax
    d41b:	48 83 c0 08          	add    $0x8,%rax
    d41f:	48 89 85 48 e1 ff ff 	mov    %rax,-0x1eb8(%rbp)
    d426:	48 8d 05 7b 3c 01 00 	lea    0x13c7b(%rip),%rax        # 210a8 <g_724>
    d42d:	48 89 85 50 e1 ff ff 	mov    %rax,-0x1eb0(%rbp)
    d434:	c7 85 28 e0 ff ff 02 	movl   $0x2,-0x1fd8(%rbp)
    d43b:	00 00 00 
    d43e:	48 8b 85 a0 e0 ff ff 	mov    -0x1f60(%rbp),%rax
    d445:	8b 00                	mov    (%rax),%eax
    d447:	85 c0                	test   %eax,%eax
    d449:	0f 85 3b 01 00 00    	jne    d58a <func_42+0x371d>
    d44f:	8b 9d 28 e0 ff ff    	mov    -0x1fd8(%rbp),%ebx
    d455:	8b 85 24 e0 ff ff    	mov    -0x1fdc(%rbp),%eax
    d45b:	44 0f b7 e0          	movzwl %ax,%r12d
    d45f:	8b 85 14 e0 ff ff    	mov    -0x1fec(%rbp),%eax
    d465:	44 0f b7 e8          	movzwl %ax,%r13d
    d469:	0f b7 05 0c ec 00 00 	movzwl 0xec0c(%rip),%eax        # 1c07c <g_156>
    d470:	66 85 c0             	test   %ax,%ax
    d473:	41 0f 95 c6          	setne  %r14b
    d477:	48 8b 85 48 e1 ff ff 	mov    -0x1eb8(%rbp),%rax
    d47e:	66 c7 00 ff ff       	movw   $0xffff,(%rax)
    d483:	48 8d 05 ba f0 00 00 	lea    0xf0ba(%rip),%rax        # 1c544 <g_495+0x84>
    d48a:	0f b7 00             	movzwl (%rax),%eax
    d48d:	0f b7 c0             	movzwl %ax,%eax
    d490:	be ff ff 00 00       	mov    $0xffff,%esi
    d495:	89 c7                	mov    %eax,%edi
    d497:	e8 c0 98 ff ff       	callq  6d5c <safe_mod_func_uint16_t_u_u>
    d49c:	0f b7 d0             	movzwl %ax,%edx
    d49f:	0f b7 85 84 df ff ff 	movzwl -0x207c(%rbp),%eax
    d4a6:	0f be c0             	movsbl %al,%eax
    d4a9:	89 d6                	mov    %edx,%esi
    d4ab:	89 c7                	mov    %eax,%edi
    d4ad:	e8 ef 8d ff ff       	callq  62a1 <safe_lshift_func_int8_t_s_s>
    d4b2:	0f be c0             	movsbl %al,%eax
    d4b5:	be 01 00 00 00       	mov    $0x1,%esi
    d4ba:	89 c7                	mov    %eax,%edi
    d4bc:	e8 51 8d ff ff       	callq  6212 <safe_mul_func_int8_t_s_s>
    d4c1:	0f be c0             	movsbl %al,%eax
    d4c4:	39 85 04 e0 ff ff    	cmp    %eax,-0x1ffc(%rbp)
    d4ca:	73 21                	jae    d4ed <func_42+0x3680>
    d4cc:	48 8b 85 40 e1 ff ff 	mov    -0x1ec0(%rbp),%rax
    d4d3:	0f b6 00             	movzbl (%rax),%eax
    d4d6:	8d 48 01             	lea    0x1(%rax),%ecx
    d4d9:	48 8b 95 40 e1 ff ff 	mov    -0x1ec0(%rbp),%rdx
    d4e0:	88 0a                	mov    %cl,(%rdx)
    d4e2:	84 c0                	test   %al,%al
    d4e4:	74 07                	je     d4ed <func_42+0x3680>
    d4e6:	b8 01 00 00 00       	mov    $0x1,%eax
    d4eb:	eb 05                	jmp    d4f2 <func_42+0x3685>
    d4ed:	b8 00 00 00 00       	mov    $0x0,%eax
    d4f2:	0f b6 c0             	movzbl %al,%eax
    d4f5:	89 c6                	mov    %eax,%esi
    d4f7:	bf 4c 00 00 00       	mov    $0x4c,%edi
    d4fc:	e8 77 96 ff ff       	callq  6b78 <safe_sub_func_uint8_t_u_u>
    d501:	0f b6 d0             	movzbl %al,%edx
    d504:	48 83 bd 50 e1 ff ff 	cmpq   $0x0,-0x1eb0(%rbp)
    d50b:	00 
    d50c:	0f 95 c1             	setne  %cl
    d50f:	48 8b 05 8a 42 01 00 	mov    0x1428a(%rip),%rax        # 217a0 <g_1206>
    d516:	48 8b 00             	mov    (%rax),%rax
    d519:	88 08                	mov    %cl,(%rax)
    d51b:	0f b6 00             	movzbl (%rax),%eax
    d51e:	0f be c0             	movsbl %al,%eax
    d521:	39 c2                	cmp    %eax,%edx
    d523:	0f 95 c0             	setne  %al
    d526:	44 31 f0             	xor    %r14d,%eax
    d529:	0f b6 c0             	movzbl %al,%eax
    d52c:	44 89 ee             	mov    %r13d,%esi
    d52f:	89 c7                	mov    %eax,%edi
    d531:	e8 26 98 ff ff       	callq  6d5c <safe_mod_func_uint16_t_u_u>
    d536:	66 85 c0             	test   %ax,%ax
    d539:	0f 95 c0             	setne  %al
    d53c:	0f b6 c0             	movzbl %al,%eax
    d53f:	44 89 e6             	mov    %r12d,%esi
    d542:	89 c7                	mov    %eax,%edi
    d544:	e8 45 98 ff ff       	callq  6d8e <safe_div_func_uint16_t_u_u>
    d549:	0f be c0             	movsbl %al,%eax
    d54c:	89 de                	mov    %ebx,%esi
    d54e:	89 c7                	mov    %eax,%edi
    d550:	e8 17 8e ff ff       	callq  636c <safe_rshift_func_int8_t_s_u>
    d555:	0f be d0             	movsbl %al,%edx
    d558:	48 8b 85 a0 e0 ff ff 	mov    -0x1f60(%rbp),%rax
    d55f:	89 10                	mov    %edx,(%rax)
    d561:	80 bd 6c df ff ff 00 	cmpb   $0x0,-0x2094(%rbp)
    d568:	75 23                	jne    d58d <func_42+0x3720>
    d56a:	8b 05 dc ea 00 00    	mov    0xeadc(%rip),%eax        # 1c04c <g_116>
    d570:	83 c0 01             	add    $0x1,%eax
    d573:	89 05 d3 ea 00 00    	mov    %eax,0xead3(%rip)        # 1c04c <g_116>
    d579:	8b 05 cd ea 00 00    	mov    0xeacd(%rip),%eax        # 1c04c <g_116>
    d57f:	83 f8 02             	cmp    $0x2,%eax
    d582:	0f 86 8c fe ff ff    	jbe    d414 <func_42+0x35a7>
    d588:	eb 04                	jmp    d58e <func_42+0x3721>
    d58a:	90                   	nop
    d58b:	eb 01                	jmp    d58e <func_42+0x3721>
    d58d:	90                   	nop
    d58e:	0f b6 85 6c df ff ff 	movzbl -0x2094(%rbp),%eax
    d595:	83 c0 01             	add    $0x1,%eax
    d598:	88 85 6c df ff ff    	mov    %al,-0x2094(%rbp)
    d59e:	80 bd 6c df ff ff 02 	cmpb   $0x2,-0x2094(%rbp)
    d5a5:	0f 8e 44 fd ff ff    	jle    d2ef <func_42+0x3482>
    d5ab:	0f b6 85 68 df ff ff 	movzbl -0x2098(%rbp),%eax
    d5b2:	83 e0 3f             	and    $0x3f,%eax
    d5b5:	84 c0                	test   %al,%al
    d5b7:	0f 85 ba 00 00 00    	jne    d677 <func_42+0x380a>
    d5bd:	48 8b 85 48 e4 ff ff 	mov    -0x1bb8(%rbp),%rax
    d5c4:	48 85 c0             	test   %rax,%rax
    d5c7:	0f 95 c0             	setne  %al
    d5ca:	0f b6 d8             	movzbl %al,%ebx
    d5cd:	0f b7 85 68 df ff ff 	movzwl -0x2098(%rbp),%eax
    d5d4:	c1 e0 04             	shl    $0x4,%eax
    d5d7:	66 c1 f8 0a          	sar    $0xa,%ax
    d5db:	0f be c0             	movsbl %al,%eax
    d5de:	be 06 00 00 00       	mov    $0x6,%esi
    d5e3:	89 c7                	mov    %eax,%edi
    d5e5:	e8 04 8d ff ff       	callq  62ee <safe_lshift_func_int8_t_s_u>
    d5ea:	0f be d0             	movsbl %al,%edx
    d5ed:	8b 85 80 e0 ff ff    	mov    -0x1f80(%rbp),%eax
    d5f3:	31 d0                	xor    %edx,%eax
    d5f5:	89 85 80 e0 ff ff    	mov    %eax,-0x1f80(%rbp)
    d5fb:	8b 85 80 e0 ff ff    	mov    -0x1f80(%rbp),%eax
    d601:	89 c2                	mov    %eax,%edx
    d603:	0f b7 85 f0 e1 ff ff 	movzwl -0x1e10(%rbp),%eax
    d60a:	0f b7 c0             	movzwl %ax,%eax
    d60d:	89 d6                	mov    %edx,%esi
    d60f:	89 c7                	mov    %eax,%edi
    d611:	e8 e7 98 ff ff       	callq  6efd <safe_mod_func_uint32_t_u_u>
    d616:	0f be c0             	movsbl %al,%eax
    d619:	89 de                	mov    %ebx,%esi
    d61b:	89 c7                	mov    %eax,%edi
    d61d:	e8 4a 8d ff ff       	callq  636c <safe_rshift_func_int8_t_s_u>
    d622:	0f be c0             	movsbl %al,%eax
    d625:	f7 d0                	not    %eax
    d627:	48 63 d0             	movslq %eax,%rdx
    d62a:	48 8b 85 30 e1 ff ff 	mov    -0x1ed0(%rbp),%rax
    d631:	c6 00 ff             	movb   $0xff,(%rax)
    d634:	48 8b 85 30 e1 ff ff 	mov    -0x1ed0(%rbp),%rax
    d63b:	0f b6 00             	movzbl (%rax),%eax
    d63e:	83 f0 93             	xor    $0xffffff93,%eax
    d641:	0f b6 c0             	movzbl %al,%eax
    d644:	48 09 d0             	or     %rdx,%rax
    d647:	48 85 c0             	test   %rax,%rax
    d64a:	74 17                	je     d663 <func_42+0x37f6>
    d64c:	0f b7 05 ad c1 00 00 	movzwl 0xc1ad(%rip),%eax        # 19800 <l_1921.4448>
    d653:	66 25 c0 0f          	and    $0xfc0,%ax
    d657:	66 85 c0             	test   %ax,%ax
    d65a:	74 07                	je     d663 <func_42+0x37f6>
    d65c:	b8 01 00 00 00       	mov    $0x1,%eax
    d661:	eb 05                	jmp    d668 <func_42+0x37fb>
    d663:	b8 00 00 00 00       	mov    $0x0,%eax
    d668:	0f b7 c0             	movzwl %ax,%eax
    d66b:	be c2 14 00 00       	mov    $0x14c2,%esi
    d670:	89 c7                	mov    %eax,%edi
    d672:	e8 c6 96 ff ff       	callq  6d3d <safe_mul_func_uint16_t_u_u>
    d677:	48 8b 85 c0 e0 ff ff 	mov    -0x1f40(%rbp),%rax
    d67e:	48 8d 95 80 e0 ff ff 	lea    -0x1f80(%rbp),%rdx
    d685:	48 89 10             	mov    %rdx,(%rax)
    d688:	e9 d6 07 00 00       	jmpq   de63 <func_42+0x3ff6>
    d68d:	48 b8 c7 3b 04 7e b0 	movabs $0x9cdee7b07e043bc7,%rax
    d694:	e7 de 9c 
    d697:	48 89 85 f0 e0 ff ff 	mov    %rax,-0x1f10(%rbp)
    d69e:	0f b7 85 68 df ff ff 	movzwl -0x2098(%rbp),%eax
    d6a5:	66 25 c0 0f          	and    $0xfc0,%ax
    d6a9:	66 85 c0             	test   %ax,%ax
    d6ac:	0f 84 cb 00 00 00    	je     d77d <func_42+0x3910>
    d6b2:	48 c7 05 d3 e9 00 00 	movq   $0x0,0xe9d3(%rip)        # 1c090 <g_244>
    d6b9:	00 00 00 00 
    d6bd:	eb 3f                	jmp    d6fe <func_42+0x3891>
    d6bf:	48 8d 85 8c df ff ff 	lea    -0x2074(%rbp),%rax
    d6c6:	48 89 85 80 e0 ff ff 	mov    %rax,-0x1f80(%rbp)
    d6cd:	48 8d 85 80 e0 ff ff 	lea    -0x1f80(%rbp),%rax
    d6d4:	48 89 85 20 e1 ff ff 	mov    %rax,-0x1ee0(%rbp)
    d6db:	48 8b 95 80 e0 ff ff 	mov    -0x1f80(%rbp),%rdx
    d6e2:	48 8b 85 20 e1 ff ff 	mov    -0x1ee0(%rbp),%rax
    d6e9:	48 89 10             	mov    %rdx,(%rax)
    d6ec:	48 8b 05 9d e9 00 00 	mov    0xe99d(%rip),%rax        # 1c090 <g_244>
    d6f3:	48 83 c0 01          	add    $0x1,%rax
    d6f7:	48 89 05 92 e9 00 00 	mov    %rax,0xe992(%rip)        # 1c090 <g_244>
    d6fe:	48 8b 05 8b e9 00 00 	mov    0xe98b(%rip),%rax        # 1c090 <g_244>
    d705:	48 83 f8 01          	cmp    $0x1,%rax
    d709:	7e b4                	jle    d6bf <func_42+0x3852>
    d70b:	0f b6 85 68 df ff ff 	movzbl -0x2098(%rbp),%eax
    d712:	83 e0 3f             	and    $0x3f,%eax
    d715:	84 c0                	test   %al,%al
    d717:	0f 85 d6 07 00 00    	jne    def3 <func_42+0x4086>
    d71d:	c7 05 25 e9 00 00 ed 	movl   $0xffffffed,0xe925(%rip)        # 1c04c <g_116>
    d724:	ff ff ff 
    d727:	eb 44                	jmp    d76d <func_42+0x3900>
    d729:	0f b6 85 68 df ff ff 	movzbl -0x2098(%rbp),%eax
    d730:	83 e0 3f             	and    $0x3f,%eax
    d733:	84 c0                	test   %al,%al
    d735:	0f 85 17 07 00 00    	jne    de52 <func_42+0x3fe5>
    d73b:	48 8b 85 c0 e0 ff ff 	mov    -0x1f40(%rbp),%rax
    d742:	48 8d 95 98 df ff ff 	lea    -0x2068(%rbp),%rdx
    d749:	48 89 10             	mov    %rdx,(%rax)
    d74c:	0f b6 05 45 ef 00 00 	movzbl 0xef45(%rip),%eax        # 1c698 <g_676>
    d753:	83 e0 3f             	and    $0x3f,%eax
    d756:	84 c0                	test   %al,%al
    d758:	0f 85 f7 06 00 00    	jne    de55 <func_42+0x3fe8>
    d75e:	8b 05 e8 e8 00 00    	mov    0xe8e8(%rip),%eax        # 1c04c <g_116>
    d764:	83 c0 01             	add    $0x1,%eax
    d767:	89 05 df e8 00 00    	mov    %eax,0xe8df(%rip)        # 1c04c <g_116>
    d76d:	8b 05 d9 e8 00 00    	mov    0xe8d9(%rip),%eax        # 1c04c <g_116>
    d773:	83 f8 14             	cmp    $0x14,%eax
    d776:	75 b1                	jne    d729 <func_42+0x38bc>
    d778:	e9 d9 06 00 00       	jmpq   de56 <func_42+0x3fe9>
    d77d:	48 b8 b0 c6 fe 65 96 	movabs $0x2ea1289665fec6b0,%rax
    d784:	28 a1 2e 
    d787:	48 89 85 f8 e0 ff ff 	mov    %rax,-0x1f08(%rbp)
    d78e:	48 8d 85 70 e0 ff ff 	lea    -0x1f90(%rbp),%rax
    d795:	48 89 85 00 e1 ff ff 	mov    %rax,-0x1f00(%rbp)
    d79c:	48 c7 85 08 e1 ff ff 	movq   $0x0,-0x1ef8(%rbp)
    d7a3:	00 00 00 00 
    d7a7:	0f b6 05 05 ed 00 00 	movzbl 0xed05(%rip),%eax        # 1c4b3 <g_448+0x13>
    d7ae:	83 e0 3f             	and    $0x3f,%eax
    d7b1:	83 c8 40             	or     $0x40,%eax
    d7b4:	88 05 f9 ec 00 00    	mov    %al,0xecf9(%rip)        # 1c4b3 <g_448+0x13>
    d7ba:	0f b7 05 f3 ec 00 00 	movzwl 0xecf3(%rip),%eax        # 1c4b4 <g_448+0x14>
    d7c1:	83 e0 00             	and    $0x0,%eax
    d7c4:	66 89 05 e9 ec 00 00 	mov    %ax,0xece9(%rip)        # 1c4b4 <g_448+0x14>
    d7cb:	0f b6 05 e4 ec 00 00 	movzbl 0xece4(%rip),%eax        # 1c4b6 <g_448+0x16>
    d7d2:	83 e0 fe             	and    $0xfffffffe,%eax
    d7d5:	88 05 db ec 00 00    	mov    %al,0xecdb(%rip)        # 1c4b6 <g_448+0x16>
    d7db:	48 8b 05 ce ec 00 00 	mov    0xecce(%rip),%rax        # 1c4b0 <g_448+0x10>
    d7e2:	48 c1 e0 0f          	shl    $0xf,%rax
    d7e6:	48 c1 f8 2d          	sar    $0x2d,%rax
    d7ea:	89 c2                	mov    %eax,%edx
    d7ec:	48 8b 85 a8 e0 ff ff 	mov    -0x1f58(%rbp),%rax
    d7f3:	8b 00                	mov    (%rax),%eax
    d7f5:	09 c2                	or     %eax,%edx
    d7f7:	48 8b 85 a8 e0 ff ff 	mov    -0x1f58(%rbp),%rax
    d7fe:	89 10                	mov    %edx,(%rax)
    d800:	48 83 ad f8 e0 ff ff 	subq   $0x1,-0x1f08(%rbp)
    d807:	01 
    d808:	0f b7 85 68 df ff ff 	movzwl -0x2098(%rbp),%eax
    d80f:	c1 e0 04             	shl    $0x4,%eax
    d812:	66 c1 f8 0a          	sar    $0xa,%ax
    d816:	0f be d8             	movsbl %al,%ebx
    d819:	be 3d 00 00 00       	mov    $0x3d,%esi
    d81e:	bf 64 00 00 00       	mov    $0x64,%edi
    d823:	e8 6b 93 ff ff       	callq  6b93 <safe_mul_func_uint8_t_u_u>
    d828:	0f b6 c0             	movzbl %al,%eax
    d82b:	39 c3                	cmp    %eax,%ebx
    d82d:	0f 9d c0             	setge  %al
    d830:	0f b6 c0             	movzbl %al,%eax
    d833:	be 03 00 00 00       	mov    $0x3,%esi
    d838:	89 c7                	mov    %eax,%edi
    d83a:	e8 c7 95 ff ff       	callq  6e06 <safe_lshift_func_uint16_t_u_u>
    d83f:	66 85 c0             	test   %ax,%ax
    d842:	74 3f                	je     d883 <func_42+0x3a16>
    d844:	48 8d 05 cd 41 01 00 	lea    0x141cd(%rip),%rax        # 21a18 <g_1978>
    d84b:	48 89 85 18 e1 ff ff 	mov    %rax,-0x1ee8(%rbp)
    d852:	48 8b 05 bf 41 01 00 	mov    0x141bf(%rip),%rax        # 21a18 <g_1978>
    d859:	48 89 85 08 e1 ff ff 	mov    %rax,-0x1ef8(%rbp)
    d860:	48 8b 85 18 e1 ff ff 	mov    -0x1ee8(%rbp),%rax
    d867:	48 8b 95 08 e1 ff ff 	mov    -0x1ef8(%rbp),%rdx
    d86e:	48 89 10             	mov    %rdx,(%rax)
    d871:	48 8b 85 a0 e0 ff ff 	mov    -0x1f60(%rbp),%rax
    d878:	c7 00 e8 fa 7a 24    	movl   $0x247afae8,(%rax)
    d87e:	e9 c5 05 00 00       	jmpq   de48 <func_42+0x3fdb>
    d883:	48 c7 85 10 e1 ff ff 	movq   $0x0,-0x1ef0(%rbp)
    d88a:	00 00 00 00 
    d88e:	48 8d 85 9c df ff ff 	lea    -0x2064(%rbp),%rax
    d895:	48 89 85 e0 f7 ff ff 	mov    %rax,-0x820(%rbp)
    d89c:	48 8d 85 94 df ff ff 	lea    -0x206c(%rbp),%rax
    d8a3:	48 89 85 e8 f7 ff ff 	mov    %rax,-0x818(%rbp)
    d8aa:	48 8d 85 9c df ff ff 	lea    -0x2064(%rbp),%rax
    d8b1:	48 89 85 f0 f7 ff ff 	mov    %rax,-0x810(%rbp)
    d8b8:	48 8d 85 94 df ff ff 	lea    -0x206c(%rbp),%rax
    d8bf:	48 89 85 f8 f7 ff ff 	mov    %rax,-0x808(%rbp)
    d8c6:	48 8d 85 9c df ff ff 	lea    -0x2064(%rbp),%rax
    d8cd:	48 89 85 00 f8 ff ff 	mov    %rax,-0x800(%rbp)
    d8d4:	48 8d 85 9c df ff ff 	lea    -0x2064(%rbp),%rax
    d8db:	48 89 85 08 f8 ff ff 	mov    %rax,-0x7f8(%rbp)
    d8e2:	48 8d 85 9c df ff ff 	lea    -0x2064(%rbp),%rax
    d8e9:	48 89 85 10 f8 ff ff 	mov    %rax,-0x7f0(%rbp)
    d8f0:	48 8d 85 94 df ff ff 	lea    -0x206c(%rbp),%rax
    d8f7:	48 89 85 18 f8 ff ff 	mov    %rax,-0x7e8(%rbp)
    d8fe:	48 c7 85 20 f8 ff ff 	movq   $0x0,-0x7e0(%rbp)
    d905:	00 00 00 00 
    d909:	48 8d 85 94 df ff ff 	lea    -0x206c(%rbp),%rax
    d910:	48 89 85 28 f8 ff ff 	mov    %rax,-0x7d8(%rbp)
    d917:	48 8d 85 9c df ff ff 	lea    -0x2064(%rbp),%rax
    d91e:	48 89 85 30 f8 ff ff 	mov    %rax,-0x7d0(%rbp)
    d925:	48 8d 85 9c df ff ff 	lea    -0x2064(%rbp),%rax
    d92c:	48 89 85 38 f8 ff ff 	mov    %rax,-0x7c8(%rbp)
    d933:	48 8d 85 9c df ff ff 	lea    -0x2064(%rbp),%rax
    d93a:	48 89 85 40 f8 ff ff 	mov    %rax,-0x7c0(%rbp)
    d941:	48 8d 85 94 df ff ff 	lea    -0x206c(%rbp),%rax
    d948:	48 89 85 48 f8 ff ff 	mov    %rax,-0x7b8(%rbp)
    d94f:	48 8d 85 9c df ff ff 	lea    -0x2064(%rbp),%rax
    d956:	48 89 85 50 f8 ff ff 	mov    %rax,-0x7b0(%rbp)
    d95d:	48 8d 85 94 df ff ff 	lea    -0x206c(%rbp),%rax
    d964:	48 89 85 58 f8 ff ff 	mov    %rax,-0x7a8(%rbp)
    d96b:	48 8d 85 9c df ff ff 	lea    -0x2064(%rbp),%rax
    d972:	48 89 85 60 f8 ff ff 	mov    %rax,-0x7a0(%rbp)
    d979:	48 8d 85 9c df ff ff 	lea    -0x2064(%rbp),%rax
    d980:	48 89 85 68 f8 ff ff 	mov    %rax,-0x798(%rbp)
    d987:	48 8d 85 9c df ff ff 	lea    -0x2064(%rbp),%rax
    d98e:	48 89 85 70 f8 ff ff 	mov    %rax,-0x790(%rbp)
    d995:	48 8d 85 94 df ff ff 	lea    -0x206c(%rbp),%rax
    d99c:	48 89 85 78 f8 ff ff 	mov    %rax,-0x788(%rbp)
    d9a3:	48 c7 85 80 f8 ff ff 	movq   $0x0,-0x780(%rbp)
    d9aa:	00 00 00 00 
    d9ae:	48 8d 85 94 df ff ff 	lea    -0x206c(%rbp),%rax
    d9b5:	48 89 85 88 f8 ff ff 	mov    %rax,-0x778(%rbp)
    d9bc:	48 8d 85 9c df ff ff 	lea    -0x2064(%rbp),%rax
    d9c3:	48 89 85 90 f8 ff ff 	mov    %rax,-0x770(%rbp)
    d9ca:	48 8d 85 9c df ff ff 	lea    -0x2064(%rbp),%rax
    d9d1:	48 89 85 98 f8 ff ff 	mov    %rax,-0x768(%rbp)
    d9d8:	48 8d 85 9c df ff ff 	lea    -0x2064(%rbp),%rax
    d9df:	48 89 85 a0 f8 ff ff 	mov    %rax,-0x760(%rbp)
    d9e6:	48 8d 85 94 df ff ff 	lea    -0x206c(%rbp),%rax
    d9ed:	48 89 85 a8 f8 ff ff 	mov    %rax,-0x758(%rbp)
    d9f4:	48 8d 85 9c df ff ff 	lea    -0x2064(%rbp),%rax
    d9fb:	48 89 85 b0 f8 ff ff 	mov    %rax,-0x750(%rbp)
    da02:	48 8d 85 94 df ff ff 	lea    -0x206c(%rbp),%rax
    da09:	48 89 85 b8 f8 ff ff 	mov    %rax,-0x748(%rbp)
    da10:	48 8d 85 9c df ff ff 	lea    -0x2064(%rbp),%rax
    da17:	48 89 85 c0 f8 ff ff 	mov    %rax,-0x740(%rbp)
    da1e:	48 8d 85 9c df ff ff 	lea    -0x2064(%rbp),%rax
    da25:	48 89 85 c8 f8 ff ff 	mov    %rax,-0x738(%rbp)
    da2c:	48 8d 85 9c df ff ff 	lea    -0x2064(%rbp),%rax
    da33:	48 89 85 d0 f8 ff ff 	mov    %rax,-0x730(%rbp)
    da3a:	48 8d 85 94 df ff ff 	lea    -0x206c(%rbp),%rax
    da41:	48 89 85 d8 f8 ff ff 	mov    %rax,-0x728(%rbp)
    da48:	48 c7 85 e0 f8 ff ff 	movq   $0x0,-0x720(%rbp)
    da4f:	00 00 00 00 
    da53:	48 8d 85 94 df ff ff 	lea    -0x206c(%rbp),%rax
    da5a:	48 89 85 e8 f8 ff ff 	mov    %rax,-0x718(%rbp)
    da61:	48 8d 85 9c df ff ff 	lea    -0x2064(%rbp),%rax
    da68:	48 89 85 f0 f8 ff ff 	mov    %rax,-0x710(%rbp)
    da6f:	48 8d 85 9c df ff ff 	lea    -0x2064(%rbp),%rax
    da76:	48 89 85 f8 f8 ff ff 	mov    %rax,-0x708(%rbp)
    da7d:	48 8d 85 9c df ff ff 	lea    -0x2064(%rbp),%rax
    da84:	48 89 85 00 f9 ff ff 	mov    %rax,-0x700(%rbp)
    da8b:	48 8d 85 94 df ff ff 	lea    -0x206c(%rbp),%rax
    da92:	48 89 85 08 f9 ff ff 	mov    %rax,-0x6f8(%rbp)
    da99:	48 8d 85 9c df ff ff 	lea    -0x2064(%rbp),%rax
    daa0:	48 89 85 10 f9 ff ff 	mov    %rax,-0x6f0(%rbp)
    daa7:	48 8d 85 94 df ff ff 	lea    -0x206c(%rbp),%rax
    daae:	48 89 85 18 f9 ff ff 	mov    %rax,-0x6e8(%rbp)
    dab5:	48 8d 85 9c df ff ff 	lea    -0x2064(%rbp),%rax
    dabc:	48 89 85 20 f9 ff ff 	mov    %rax,-0x6e0(%rbp)
    dac3:	48 8d 85 9c df ff ff 	lea    -0x2064(%rbp),%rax
    daca:	48 89 85 28 f9 ff ff 	mov    %rax,-0x6d8(%rbp)
    dad1:	48 8d 85 9c df ff ff 	lea    -0x2064(%rbp),%rax
    dad8:	48 89 85 30 f9 ff ff 	mov    %rax,-0x6d0(%rbp)
    dadf:	48 8d 85 94 df ff ff 	lea    -0x206c(%rbp),%rax
    dae6:	48 89 85 38 f9 ff ff 	mov    %rax,-0x6c8(%rbp)
    daed:	48 c7 85 40 f9 ff ff 	movq   $0x0,-0x6c0(%rbp)
    daf4:	00 00 00 00 
    daf8:	48 8d 85 94 df ff ff 	lea    -0x206c(%rbp),%rax
    daff:	48 89 85 48 f9 ff ff 	mov    %rax,-0x6b8(%rbp)
    db06:	48 8d 85 9c df ff ff 	lea    -0x2064(%rbp),%rax
    db0d:	48 89 85 50 f9 ff ff 	mov    %rax,-0x6b0(%rbp)
    db14:	48 8d 85 9c df ff ff 	lea    -0x2064(%rbp),%rax
    db1b:	48 89 85 58 f9 ff ff 	mov    %rax,-0x6a8(%rbp)
    db22:	48 8d 85 9c df ff ff 	lea    -0x2064(%rbp),%rax
    db29:	48 89 85 60 f9 ff ff 	mov    %rax,-0x6a0(%rbp)
    db30:	48 8d 85 94 df ff ff 	lea    -0x206c(%rbp),%rax
    db37:	48 89 85 68 f9 ff ff 	mov    %rax,-0x698(%rbp)
    db3e:	48 8d 85 9c df ff ff 	lea    -0x2064(%rbp),%rax
    db45:	48 89 85 70 f9 ff ff 	mov    %rax,-0x690(%rbp)
    db4c:	48 8d 85 94 df ff ff 	lea    -0x206c(%rbp),%rax
    db53:	48 89 85 78 f9 ff ff 	mov    %rax,-0x688(%rbp)
    db5a:	48 8d 85 9c df ff ff 	lea    -0x2064(%rbp),%rax
    db61:	48 89 85 80 f9 ff ff 	mov    %rax,-0x680(%rbp)
    db68:	48 8d 85 9c df ff ff 	lea    -0x2064(%rbp),%rax
    db6f:	48 89 85 88 f9 ff ff 	mov    %rax,-0x678(%rbp)
    db76:	48 8d 85 9c df ff ff 	lea    -0x2064(%rbp),%rax
    db7d:	48 89 85 90 f9 ff ff 	mov    %rax,-0x670(%rbp)
    db84:	48 8d 85 94 df ff ff 	lea    -0x206c(%rbp),%rax
    db8b:	48 89 85 98 f9 ff ff 	mov    %rax,-0x668(%rbp)
    db92:	48 c7 85 a0 f9 ff ff 	movq   $0x0,-0x660(%rbp)
    db99:	00 00 00 00 
    db9d:	48 8d 85 94 df ff ff 	lea    -0x206c(%rbp),%rax
    dba4:	48 89 85 a8 f9 ff ff 	mov    %rax,-0x658(%rbp)
    dbab:	48 8d 85 9c df ff ff 	lea    -0x2064(%rbp),%rax
    dbb2:	48 89 85 b0 f9 ff ff 	mov    %rax,-0x650(%rbp)
    dbb9:	48 8d 85 9c df ff ff 	lea    -0x2064(%rbp),%rax
    dbc0:	48 89 85 b8 f9 ff ff 	mov    %rax,-0x648(%rbp)
    dbc7:	48 8d 85 9c df ff ff 	lea    -0x2064(%rbp),%rax
    dbce:	48 89 85 c0 f9 ff ff 	mov    %rax,-0x640(%rbp)
    dbd5:	48 8d 85 94 df ff ff 	lea    -0x206c(%rbp),%rax
    dbdc:	48 89 85 c8 f9 ff ff 	mov    %rax,-0x638(%rbp)
    dbe3:	48 8d 85 9c df ff ff 	lea    -0x2064(%rbp),%rax
    dbea:	48 89 85 d0 f9 ff ff 	mov    %rax,-0x630(%rbp)
    dbf1:	48 8d 85 94 df ff ff 	lea    -0x206c(%rbp),%rax
    dbf8:	48 89 85 d8 f9 ff ff 	mov    %rax,-0x628(%rbp)
    dbff:	48 8d 85 9c df ff ff 	lea    -0x2064(%rbp),%rax
    dc06:	48 89 85 e0 f9 ff ff 	mov    %rax,-0x620(%rbp)
    dc0d:	48 8d 85 9c df ff ff 	lea    -0x2064(%rbp),%rax
    dc14:	48 89 85 e8 f9 ff ff 	mov    %rax,-0x618(%rbp)
    dc1b:	48 8d 85 9c df ff ff 	lea    -0x2064(%rbp),%rax
    dc22:	48 89 85 f0 f9 ff ff 	mov    %rax,-0x610(%rbp)
    dc29:	48 8d 85 94 df ff ff 	lea    -0x206c(%rbp),%rax
    dc30:	48 89 85 f8 f9 ff ff 	mov    %rax,-0x608(%rbp)
    dc37:	48 c7 85 00 fa ff ff 	movq   $0x0,-0x600(%rbp)
    dc3e:	00 00 00 00 
    dc42:	48 8d 85 94 df ff ff 	lea    -0x206c(%rbp),%rax
    dc49:	48 89 85 08 fa ff ff 	mov    %rax,-0x5f8(%rbp)
    dc50:	48 8d 85 9c df ff ff 	lea    -0x2064(%rbp),%rax
    dc57:	48 89 85 10 fa ff ff 	mov    %rax,-0x5f0(%rbp)
    dc5e:	48 8d 85 9c df ff ff 	lea    -0x2064(%rbp),%rax
    dc65:	48 89 85 18 fa ff ff 	mov    %rax,-0x5e8(%rbp)
    dc6c:	48 8d 85 9c df ff ff 	lea    -0x2064(%rbp),%rax
    dc73:	48 89 85 20 fa ff ff 	mov    %rax,-0x5e0(%rbp)
    dc7a:	48 8d 85 94 df ff ff 	lea    -0x206c(%rbp),%rax
    dc81:	48 89 85 28 fa ff ff 	mov    %rax,-0x5d8(%rbp)
    dc88:	48 8d 85 9c df ff ff 	lea    -0x2064(%rbp),%rax
    dc8f:	48 89 85 30 fa ff ff 	mov    %rax,-0x5d0(%rbp)
    dc96:	48 8d 85 94 df ff ff 	lea    -0x206c(%rbp),%rax
    dc9d:	48 89 85 38 fa ff ff 	mov    %rax,-0x5c8(%rbp)
    dca4:	48 8d 85 9c df ff ff 	lea    -0x2064(%rbp),%rax
    dcab:	48 89 85 40 fa ff ff 	mov    %rax,-0x5c0(%rbp)
    dcb2:	48 8d 85 9c df ff ff 	lea    -0x2064(%rbp),%rax
    dcb9:	48 89 85 48 fa ff ff 	mov    %rax,-0x5b8(%rbp)
    dcc0:	48 8d 85 9c df ff ff 	lea    -0x2064(%rbp),%rax
    dcc7:	48 89 85 50 fa ff ff 	mov    %rax,-0x5b0(%rbp)
    dcce:	48 8d 85 94 df ff ff 	lea    -0x206c(%rbp),%rax
    dcd5:	48 89 85 58 fa ff ff 	mov    %rax,-0x5a8(%rbp)
    dcdc:	48 8b 85 f0 e0 ff ff 	mov    -0x1f10(%rbp),%rax
    dce3:	0f bf d8             	movswl %ax,%ebx
    dce6:	0f b6 85 68 df ff ff 	movzbl -0x2098(%rbp),%eax
    dced:	83 e0 3f             	and    $0x3f,%eax
    dcf0:	44 0f b6 e8          	movzbl %al,%r13d
    dcf4:	48 8b 85 a8 e0 ff ff 	mov    -0x1f58(%rbp),%rax
    dcfb:	44 8b 30             	mov    (%rax),%r14d
    dcfe:	8b 85 e0 df ff ff    	mov    -0x2020(%rbp),%eax
    dd04:	44 0f bf e0          	movswl %ax,%r12d
    dd08:	0f be 95 6c df ff ff 	movsbl -0x2094(%rbp),%edx
    dd0f:	0f be 8d 6c df ff ff 	movsbl -0x2094(%rbp),%ecx
    dd16:	8b 05 f0 00 01 00    	mov    0x100f0(%rip),%eax        # 1de0c <g_1566>
    dd1c:	31 c8                	xor    %ecx,%eax
    dd1e:	89 05 e8 00 01 00    	mov    %eax,0x100e8(%rip)        # 1de0c <g_1566>
    dd24:	0f b7 85 f0 e1 ff ff 	movzwl -0x1e10(%rbp),%eax
    dd2b:	66 3d 80 00          	cmp    $0x80,%ax
    dd2f:	0f 95 c0             	setne  %al
    dd32:	c1 e0 02             	shl    $0x2,%eax
    dd35:	c0 f8 02             	sar    $0x2,%al
    dd38:	0f b6 c0             	movzbl %al,%eax
    dd3b:	83 e0 3f             	and    $0x3f,%eax
    dd3e:	c1 e0 06             	shl    $0x6,%eax
    dd41:	89 c1                	mov    %eax,%ecx
    dd43:	0f b7 85 68 df ff ff 	movzwl -0x2098(%rbp),%eax
    dd4a:	66 25 3f f0          	and    $0xf03f,%ax
    dd4e:	09 c8                	or     %ecx,%eax
    dd50:	66 89 85 68 df ff ff 	mov    %ax,-0x2098(%rbp)
    dd57:	0f b7 85 68 df ff ff 	movzwl -0x2098(%rbp),%eax
    dd5e:	c1 e0 04             	shl    $0x4,%eax
    dd61:	66 c1 f8 0a          	sar    $0xa,%ax
    dd65:	0f be c0             	movsbl %al,%eax
    dd68:	89 d6                	mov    %edx,%esi
    dd6a:	89 c7                	mov    %eax,%edi
    dd6c:	e8 45 88 ff ff       	callq  65b6 <safe_add_func_int32_t_s_s>
    dd71:	0f b6 95 68 df ff ff 	movzbl -0x2098(%rbp),%edx
    dd78:	83 e2 3f             	and    $0x3f,%edx
    dd7b:	0f b6 d2             	movzbl %dl,%edx
    dd7e:	48 8d 0d bf e7 00 00 	lea    0xe7bf(%rip),%rcx        # 1c544 <g_495+0x84>
    dd85:	0f b7 09             	movzwl (%rcx),%ecx
    dd88:	31 c1                	xor    %eax,%ecx
    dd8a:	48 8d 05 b3 e7 00 00 	lea    0xe7b3(%rip),%rax        # 1c544 <g_495+0x84>
    dd91:	66 89 08             	mov    %cx,(%rax)
    dd94:	0f b7 00             	movzwl (%rax),%eax
    dd97:	0f b7 c0             	movzwl %ax,%eax
    dd9a:	21 d0                	and    %edx,%eax
    dd9c:	89 c2                	mov    %eax,%edx
    dd9e:	48 8b 05 4b 3c 01 00 	mov    0x13c4b(%rip),%rax        # 219f0 <g_1478>
    dda5:	0f b6 00             	movzbl (%rax),%eax
    dda8:	0f be c0             	movsbl %al,%eax
    ddab:	89 d6                	mov    %edx,%esi
    ddad:	89 c7                	mov    %eax,%edi
    ddaf:	e8 b8 85 ff ff       	callq  636c <safe_rshift_func_int8_t_s_u>
    ddb4:	0f b6 85 68 df ff ff 	movzbl -0x2098(%rbp),%eax
    ddbb:	83 e0 3f             	and    $0x3f,%eax
    ddbe:	84 c0                	test   %al,%al
    ddc0:	75 0d                	jne    ddcf <func_42+0x3f62>
    ddc2:	48 8b 85 a0 e0 ff ff 	mov    -0x1f60(%rbp),%rax
    ddc9:	8b 00                	mov    (%rax),%eax
    ddcb:	85 c0                	test   %eax,%eax
    ddcd:	74 07                	je     ddd6 <func_42+0x3f69>
    ddcf:	b8 01 00 00 00       	mov    $0x1,%eax
    ddd4:	eb 05                	jmp    dddb <func_42+0x3f6e>
    ddd6:	b8 00 00 00 00       	mov    $0x0,%eax
    dddb:	be 01 00 00 00       	mov    $0x1,%esi
    dde0:	89 c7                	mov    %eax,%edi
    dde2:	e8 1e 88 ff ff       	callq  6605 <safe_sub_func_int32_t_s_s>
    dde7:	0f b6 95 68 df ff ff 	movzbl -0x2098(%rbp),%edx
    ddee:	83 e2 3f             	and    $0x3f,%edx
    ddf1:	0f b6 d2             	movzbl %dl,%edx
    ddf4:	39 d0                	cmp    %edx,%eax
    ddf6:	0f 9d c0             	setge  %al
    ddf9:	0f b6 c0             	movzbl %al,%eax
    ddfc:	44 89 e6             	mov    %r12d,%esi
    ddff:	89 c7                	mov    %eax,%edi
    de01:	e8 10 86 ff ff       	callq  6416 <safe_mod_func_int16_t_s_s>
    de06:	98                   	cwtl   
    de07:	44 31 f0             	xor    %r14d,%eax
    de0a:	f7 d0                	not    %eax
    de0c:	c1 e8 1f             	shr    $0x1f,%eax
    de0f:	0f b6 d0             	movzbl %al,%edx
    de12:	48 8b 85 a0 e0 ff ff 	mov    -0x1f60(%rbp),%rax
    de19:	89 10                	mov    %edx,(%rax)
    de1b:	48 8b 85 a0 e0 ff ff 	mov    -0x1f60(%rbp),%rax
    de22:	8b 00                	mov    (%rax),%eax
    de24:	41 39 c5             	cmp    %eax,%r13d
    de27:	0f 9c c0             	setl   %al
    de2a:	0f b6 c0             	movzbl %al,%eax
    de2d:	89 de                	mov    %ebx,%esi
    de2f:	89 c7                	mov    %eax,%edi
    de31:	e8 9d 85 ff ff       	callq  63d3 <safe_sub_func_int16_t_s_s>
    de36:	0f b7 05 f5 ff 00 00 	movzwl 0xfff5(%rip),%eax        # 1de32 <g_1603+0x12>
    de3d:	66 25 1f c0          	and    $0xc01f,%ax
    de41:	66 89 05 ea ff 00 00 	mov    %ax,0xffea(%rip)        # 1de32 <g_1603+0x12>
    de48:	b8 bd 45 00 00       	mov    $0x45bd,%eax
    de4d:	e9 a9 00 00 00       	jmpq   defb <func_42+0x408e>
    de52:	90                   	nop
    de53:	eb 01                	jmp    de56 <func_42+0x3fe9>
    de55:	90                   	nop
    de56:	48 8b 85 a0 e0 ff ff 	mov    -0x1f60(%rbp),%rax
    de5d:	c7 00 cf 6e b0 a9    	movl   $0xa9b06ecf,(%rax)
    de63:	0f b6 85 68 df ff ff 	movzbl -0x2098(%rbp),%eax
    de6a:	83 e0 3f             	and    $0x3f,%eax
    de6d:	0f b6 d0             	movzbl %al,%edx
    de70:	0f be 85 6c df ff ff 	movsbl -0x2094(%rbp),%eax
    de77:	89 d6                	mov    %edx,%esi
    de79:	89 c7                	mov    %eax,%edi
    de7b:	e8 b1 83 ff ff       	callq  6231 <safe_mod_func_int8_t_s_s>
    de80:	0f be d0             	movsbl %al,%edx
    de83:	48 8b 05 f6 33 01 00 	mov    0x133f6(%rip),%rax        # 21280 <g_823>
    de8a:	48 39 85 d0 e0 ff ff 	cmp    %rax,-0x1f30(%rbp)
    de91:	0f 95 c0             	setne  %al
    de94:	0f b6 c0             	movzbl %al,%eax
    de97:	66 89 05 f4 e5 00 00 	mov    %ax,0xe5f4(%rip)        # 1c492 <g_442>
    de9e:	0f b7 05 ed e5 00 00 	movzwl 0xe5ed(%rip),%eax        # 1c492 <g_442>
    dea5:	98                   	cwtl   
    dea6:	21 c2                	and    %eax,%edx
    dea8:	48 8b 85 a0 e0 ff ff 	mov    -0x1f60(%rbp),%rax
    deaf:	8b 00                	mov    (%rax),%eax
    deb1:	09 c2                	or     %eax,%edx
    deb3:	48 8b 85 a0 e0 ff ff 	mov    -0x1f60(%rbp),%rax
    deba:	89 10                	mov    %edx,(%rax)
    debc:	48 83 ad 88 e0 ff ff 	subq   $0x1,-0x1f78(%rbp)
    dec3:	01 
    dec4:	83 bd 20 e0 ff ff 00 	cmpl   $0x0,-0x1fe0(%rbp)
    decb:	8b 85 a0 df ff ff    	mov    -0x2060(%rbp),%eax
    ded1:	be 01 00 00 00       	mov    $0x1,%esi
    ded6:	48 89 c7             	mov    %rax,%rdi
    ded9:	e8 50 91 ff ff       	callq  702e <safe_add_func_uint64_t_u_u>
    dede:	89 85 a0 df ff ff    	mov    %eax,-0x2060(%rbp)
    dee4:	83 bd a0 df ff ff 10 	cmpl   $0x10,-0x2060(%rbp)
    deeb:	0f 86 04 ec ff ff    	jbe    caf5 <func_42+0x2c88>
    def1:	eb 01                	jmp    def4 <func_42+0x4087>
    def3:	90                   	nop
    def4:	0f be 85 6c df ff ff 	movsbl -0x2094(%rbp),%eax
    defb:	48 8b 5d c8          	mov    -0x38(%rbp),%rbx
    deff:	64 48 33 1c 25 28 00 	xor    %fs:0x28,%rbx
    df06:	00 00 
    df08:	74 05                	je     df0f <func_42+0x40a2>
    df0a:	e8 61 81 ff ff       	callq  6070 <__stack_chk_fail@plt>
    df0f:	48 81 c4 98 20 00 00 	add    $0x2098,%rsp
    df16:	5b                   	pop    %rbx
    df17:	41 5c                	pop    %r12
    df19:	41 5d                	pop    %r13
    df1b:	41 5e                	pop    %r14
    df1d:	41 5f                	pop    %r15
    df1f:	5d                   	pop    %rbp
    df20:	c3                   	retq   

000000000000df21 <func_46>:
    df21:	f3 0f 1e fa          	endbr64 
    df25:	55                   	push   %rbp
    df26:	48 89 e5             	mov    %rsp,%rbp
    df29:	89 7d fc             	mov    %edi,-0x4(%rbp)
    df2c:	89 f0                	mov    %esi,%eax
    df2e:	48 89 55 f0          	mov    %rdx,-0x10(%rbp)
    df32:	66 89 45 f8          	mov    %ax,-0x8(%rbp)
    df36:	48 c7 45 f0 00 00 00 	movq   $0x0,-0x10(%rbp)
    df3d:	00 
    df3e:	eb 11                	jmp    df51 <func_46+0x30>
    df40:	48 8b 05 e1 e0 00 00 	mov    0xe0e1(%rip),%rax        # 1c028 <g_52>
    df47:	48 85 c0             	test   %rax,%rax
    df4a:	75 0e                	jne    df5a <func_46+0x39>
    df4c:	48 83 45 f0 01       	addq   $0x1,-0x10(%rbp)
    df51:	48 83 7d f0 18       	cmpq   $0x18,-0x10(%rbp)
    df56:	7f e8                	jg     df40 <func_46+0x1f>
    df58:	eb 01                	jmp    df5b <func_46+0x3a>
    df5a:	90                   	nop
    df5b:	8b 45 fc             	mov    -0x4(%rbp),%eax
    df5e:	5d                   	pop    %rbp
    df5f:	c3                   	retq   

000000000000df60 <func_75>:
    df60:	f3 0f 1e fa          	endbr64 
    df64:	55                   	push   %rbp
    df65:	48 89 e5             	mov    %rsp,%rbp
    df68:	48 81 ec d0 01 00 00 	sub    $0x1d0,%rsp
    df6f:	48 89 bd 48 fe ff ff 	mov    %rdi,-0x1b8(%rbp)
    df76:	89 d0                	mov    %edx,%eax
    df78:	89 8d 3c fe ff ff    	mov    %ecx,-0x1c4(%rbp)
    df7e:	44 89 85 38 fe ff ff 	mov    %r8d,-0x1c8(%rbp)
    df85:	89 f2                	mov    %esi,%edx
    df87:	88 95 44 fe ff ff    	mov    %dl,-0x1bc(%rbp)
    df8d:	66 89 85 40 fe ff ff 	mov    %ax,-0x1c0(%rbp)
    df94:	64 48 8b 04 25 28 00 	mov    %fs:0x28,%rax
    df9b:	00 00 
    df9d:	48 89 45 f8          	mov    %rax,-0x8(%rbp)
    dfa1:	31 c0                	xor    %eax,%eax
    dfa3:	48 c7 85 70 fe ff ff 	movq   $0x0,-0x190(%rbp)
    dfaa:	00 00 00 00 
    dfae:	c7 85 60 fe ff ff 01 	movl   $0x1,-0x1a0(%rbp)
    dfb5:	00 00 00 
    dfb8:	48 8d 85 90 fe ff ff 	lea    -0x170(%rbp),%rax
    dfbf:	48 8d 15 3a 2c 01 00 	lea    0x12c3a(%rip),%rdx        # 20c00 <g_2170+0x16f0>
    dfc6:	b9 2d 00 00 00       	mov    $0x2d,%ecx
    dfcb:	48 89 c7             	mov    %rax,%rdi
    dfce:	48 89 d6             	mov    %rdx,%rsi
    dfd1:	f3 48 a5             	rep movsq %ds:(%rsi),%es:(%rdi)
    dfd4:	48 8d 05 c5 37 01 00 	lea    0x137c5(%rip),%rax        # 217a0 <g_1206>
    dfdb:	48 89 85 78 fe ff ff 	mov    %rax,-0x188(%rbp)
    dfe2:	48 c7 85 80 fe ff ff 	movq   $0x0,-0x180(%rbp)
    dfe9:	00 00 00 00 
    dfed:	c7 85 5c fe ff ff 31 	movl   $0xbf177231,-0x1a4(%rbp)
    dff4:	72 17 bf 
    dff7:	48 8d 05 d2 39 01 00 	lea    0x139d2(%rip),%rax        # 219d0 <g_1335>
    dffe:	48 89 85 88 fe ff ff 	mov    %rax,-0x178(%rbp)
    e005:	66 c7 85 5a fe ff ff 	movw   $0x0,-0x1a6(%rbp)
    e00c:	00 00 
    e00e:	48 8d 05 eb 39 01 00 	lea    0x139eb(%rip),%rax        # 21a00 <g_1476>
    e015:	48 39 85 70 fe ff ff 	cmp    %rax,-0x190(%rbp)
    e01c:	8b 95 60 fe ff ff    	mov    -0x1a0(%rbp),%edx
    e022:	8b 85 3c fe ff ff    	mov    -0x1c4(%rbp),%eax
    e028:	0f be c0             	movsbl %al,%eax
    e02b:	89 d6                	mov    %edx,%esi
    e02d:	89 c7                	mov    %eax,%edi
    e02f:	e8 01 83 ff ff       	callq  6335 <safe_rshift_func_int8_t_s_s>
    e034:	0f be d0             	movsbl %al,%edx
    e037:	8b 85 60 fe ff ff    	mov    -0x1a0(%rbp),%eax
    e03d:	21 d0                	and    %edx,%eax
    e03f:	48 98                	cltq   
    e041:	48 c7 c6 f6 ff ff ff 	mov    $0xfffffffffffffff6,%rsi
    e048:	48 89 c7             	mov    %rax,%rdi
    e04b:	e8 64 89 ff ff       	callq  69b4 <safe_mod_func_int64_t_s_s>
    e050:	be ff ff 00 00       	mov    $0xffff,%esi
    e055:	bf 16 fc 00 00       	mov    $0xfc16,%edi
    e05a:	e8 de 8c ff ff       	callq  6d3d <safe_mul_func_uint16_t_u_u>
    e05f:	0f b7 c0             	movzwl %ax,%eax
    e062:	39 85 3c fe ff ff    	cmp    %eax,-0x1c4(%rbp)
    e068:	48 8d 05 21 30 01 00 	lea    0x13021(%rip),%rax        # 21090 <g_405>
    e06f:	48 89 85 68 fe ff ff 	mov    %rax,-0x198(%rbp)
    e076:	48 8b 85 68 fe ff ff 	mov    -0x198(%rbp),%rax
    e07d:	48 8d 95 38 fe ff ff 	lea    -0x1c8(%rbp),%rdx
    e084:	48 89 10             	mov    %rdx,(%rax)
    e087:	48 8b 85 48 fe ff ff 	mov    -0x1b8(%rbp),%rax
    e08e:	8b 00                	mov    (%rax),%eax
    e090:	48 8b 4d f8          	mov    -0x8(%rbp),%rcx
    e094:	64 48 33 0c 25 28 00 	xor    %fs:0x28,%rcx
    e09b:	00 00 
    e09d:	74 05                	je     e0a4 <func_75+0x144>
    e09f:	e8 cc 7f ff ff       	callq  6070 <__stack_chk_fail@plt>
    e0a4:	c9                   	leaveq 
    e0a5:	c3                   	retq   

000000000000e0a6 <func_83>:
    e0a6:	f3 0f 1e fa          	endbr64 
    e0aa:	55                   	push   %rbp
    e0ab:	48 89 e5             	mov    %rsp,%rbp
    e0ae:	48 81 ec 90 01 00 00 	sub    $0x190,%rsp
    e0b5:	48 89 bd 78 fe ff ff 	mov    %rdi,-0x188(%rbp)
    e0bc:	89 b5 74 fe ff ff    	mov    %esi,-0x18c(%rbp)
    e0c2:	64 48 8b 04 25 28 00 	mov    %fs:0x28,%rax
    e0c9:	00 00 
    e0cb:	48 89 45 f8          	mov    %rax,-0x8(%rbp)
    e0cf:	31 c0                	xor    %eax,%eax
    e0d1:	48 8d 05 a8 31 01 00 	lea    0x131a8(%rip),%rax        # 21280 <g_823>
    e0d8:	48 89 85 98 fe ff ff 	mov    %rax,-0x168(%rbp)
    e0df:	c7 85 50 ff ff ff ba 	movl   $0xae92adba,-0xb0(%rbp)
    e0e6:	ad 92 ae 
    e0e9:	c7 85 54 ff ff ff f9 	movl   $0xfffffff9,-0xac(%rbp)
    e0f0:	ff ff ff 
    e0f3:	c7 85 58 ff ff ff 36 	movl   $0xd57c2836,-0xa8(%rbp)
    e0fa:	28 7c d5 
    e0fd:	c7 85 5c ff ff ff 36 	movl   $0xd57c2836,-0xa4(%rbp)
    e104:	28 7c d5 
    e107:	c7 85 60 ff ff ff 00 	movl   $0x0,-0xa0(%rbp)
    e10e:	00 00 00 
    e111:	c7 85 64 ff ff ff 00 	movl   $0x0,-0x9c(%rbp)
    e118:	00 00 00 
    e11b:	c7 85 68 ff ff ff ba 	movl   $0xae92adba,-0x98(%rbp)
    e122:	ad 92 ae 
    e125:	c7 85 6c ff ff ff 36 	movl   $0xd57c2836,-0x94(%rbp)
    e12c:	28 7c d5 
    e12f:	c7 85 70 ff ff ff ae 	movl   $0xd2e99bae,-0x90(%rbp)
    e136:	9b e9 d2 
    e139:	c7 85 74 ff ff ff f9 	movl   $0xfffffff9,-0x8c(%rbp)
    e140:	ff ff ff 
    e143:	c7 85 78 ff ff ff ae 	movl   $0xd2e99bae,-0x88(%rbp)
    e14a:	9b e9 d2 
    e14d:	c7 85 7c ff ff ff ba 	movl   $0xae92adba,-0x84(%rbp)
    e154:	ad 92 ae 
    e157:	c7 45 80 ae 9b e9 d2 	movl   $0xd2e99bae,-0x80(%rbp)
    e15e:	c7 45 84 ba ad 92 ae 	movl   $0xae92adba,-0x7c(%rbp)
    e165:	c7 45 88 ba ad 92 ae 	movl   $0xae92adba,-0x78(%rbp)
    e16c:	c7 45 8c ae 9b e9 d2 	movl   $0xd2e99bae,-0x74(%rbp)
    e173:	c7 45 90 00 00 00 00 	movl   $0x0,-0x70(%rbp)
    e17a:	c7 45 94 ba ad 92 ae 	movl   $0xae92adba,-0x6c(%rbp)
    e181:	c7 45 98 36 28 7c d5 	movl   $0xd57c2836,-0x68(%rbp)
    e188:	c7 45 9c ba ad 92 ae 	movl   $0xae92adba,-0x64(%rbp)
    e18f:	c7 45 a0 ba ad 92 ae 	movl   $0xae92adba,-0x60(%rbp)
    e196:	c7 45 a4 f9 ff ff ff 	movl   $0xfffffff9,-0x5c(%rbp)
    e19d:	c7 45 a8 36 28 7c d5 	movl   $0xd57c2836,-0x58(%rbp)
    e1a4:	c7 45 ac 36 28 7c d5 	movl   $0xd57c2836,-0x54(%rbp)
    e1ab:	c7 45 b0 00 00 00 00 	movl   $0x0,-0x50(%rbp)
    e1b2:	c7 45 b4 00 00 00 00 	movl   $0x0,-0x4c(%rbp)
    e1b9:	c7 45 b8 ba ad 92 ae 	movl   $0xae92adba,-0x48(%rbp)
    e1c0:	c7 45 bc 36 28 7c d5 	movl   $0xd57c2836,-0x44(%rbp)
    e1c7:	c7 45 c0 ae 9b e9 d2 	movl   $0xd2e99bae,-0x40(%rbp)
    e1ce:	c7 45 c4 f9 ff ff ff 	movl   $0xfffffff9,-0x3c(%rbp)
    e1d5:	c7 45 c8 ae 9b e9 d2 	movl   $0xd2e99bae,-0x38(%rbp)
    e1dc:	c7 45 cc ba ad 92 ae 	movl   $0xae92adba,-0x34(%rbp)
    e1e3:	c7 45 d0 ae 9b e9 d2 	movl   $0xd2e99bae,-0x30(%rbp)
    e1ea:	c7 45 d4 ba ad 92 ae 	movl   $0xae92adba,-0x2c(%rbp)
    e1f1:	c7 45 d8 ba ad 92 ae 	movl   $0xae92adba,-0x28(%rbp)
    e1f8:	c7 45 dc ae 9b e9 d2 	movl   $0xd2e99bae,-0x24(%rbp)
    e1ff:	c7 45 e0 00 00 00 00 	movl   $0x0,-0x20(%rbp)
    e206:	c7 45 e4 ba ad 92 ae 	movl   $0xae92adba,-0x1c(%rbp)
    e20d:	c7 45 e8 36 28 7c d5 	movl   $0xd57c2836,-0x18(%rbp)
    e214:	c7 45 ec ba ad 92 ae 	movl   $0xae92adba,-0x14(%rbp)
    e21b:	48 c7 85 a0 fe ff ff 	movq   $0x0,-0x160(%rbp)
    e222:	00 00 00 00 
    e226:	48 8d 85 50 ff ff ff 	lea    -0xb0(%rbp),%rax
    e22d:	48 83 c0 7c          	add    $0x7c,%rax
    e231:	48 89 85 a8 fe ff ff 	mov    %rax,-0x158(%rbp)
    e238:	48 c7 85 10 ff ff ff 	movq   $0x0,-0xf0(%rbp)
    e23f:	00 00 00 00 
    e243:	48 c7 85 18 ff ff ff 	movq   $0x0,-0xe8(%rbp)
    e24a:	00 00 00 00 
    e24e:	48 c7 85 20 ff ff ff 	movq   $0x0,-0xe0(%rbp)
    e255:	00 00 00 00 
    e259:	48 c7 85 28 ff ff ff 	movq   $0x0,-0xd8(%rbp)
    e260:	00 00 00 00 
    e264:	48 c7 85 30 ff ff ff 	movq   $0x0,-0xd0(%rbp)
    e26b:	00 00 00 00 
    e26f:	48 c7 85 38 ff ff ff 	movq   $0x0,-0xc8(%rbp)
    e276:	00 00 00 00 
    e27a:	48 c7 85 40 ff ff ff 	movq   $0x0,-0xc0(%rbp)
    e281:	00 00 00 00 
    e285:	48 b8 d3 17 f3 fa a8 	movabs $0x7bc9baa8faf317d3,%rax
    e28c:	ba c9 7b 
    e28f:	48 89 85 b0 fe ff ff 	mov    %rax,-0x150(%rbp)
    e296:	48 b8 c8 91 ad 55 04 	movabs $0x2e121a0455ad91c8,%rax
    e29d:	1a 12 2e 
    e2a0:	48 89 85 b8 fe ff ff 	mov    %rax,-0x148(%rbp)
    e2a7:	c7 85 94 fe ff ff ff 	movl   $0xffffffff,-0x16c(%rbp)
    e2ae:	ff ff ff 
    e2b1:	66 c7 85 c8 fe ff ff 	movw   $0xffff,-0x138(%rbp)
    e2b8:	ff ff 
    e2ba:	66 c7 85 ca fe ff ff 	movw   $0xffff,-0x136(%rbp)
    e2c1:	ff ff 
    e2c3:	66 c7 85 cc fe ff ff 	movw   $0xffff,-0x134(%rbp)
    e2ca:	ff ff 
    e2cc:	66 c7 85 ce fe ff ff 	movw   $0xffff,-0x132(%rbp)
    e2d3:	ff ff 
    e2d5:	66 c7 85 86 fe ff ff 	movw   $0x9,-0x17a(%rbp)
    e2dc:	09 00 
    e2de:	c7 85 e0 fe ff ff ff 	movl   $0xffffffff,-0x120(%rbp)
    e2e5:	ff ff ff 
    e2e8:	c7 85 e4 fe ff ff fa 	movl   $0xfffffffa,-0x11c(%rbp)
    e2ef:	ff ff ff 
    e2f2:	c7 85 e8 fe ff ff 00 	movl   $0x0,-0x118(%rbp)
    e2f9:	00 00 00 
    e2fc:	c7 85 ec fe ff ff fa 	movl   $0xfffffffa,-0x114(%rbp)
    e303:	ff ff ff 
    e306:	c7 85 f0 fe ff ff ff 	movl   $0xffffffff,-0x110(%rbp)
    e30d:	ff ff ff 
    e310:	c7 85 f4 fe ff ff ff 	movl   $0xffffffff,-0x10c(%rbp)
    e317:	ff ff ff 
    e31a:	c7 85 f8 fe ff ff fa 	movl   $0xfffffffa,-0x108(%rbp)
    e321:	ff ff ff 
    e324:	c7 85 fc fe ff ff 00 	movl   $0x0,-0x104(%rbp)
    e32b:	00 00 00 
    e32e:	c7 85 00 ff ff ff fa 	movl   $0xfffffffa,-0x100(%rbp)
    e335:	ff ff ff 
    e338:	c7 85 04 ff ff ff ff 	movl   $0xffffffff,-0xfc(%rbp)
    e33f:	ff ff ff 
    e342:	48 b8 4e cb a0 a9 57 	movabs $0x87adc057a9a0cb4e,%rax
    e349:	c0 ad 87 
    e34c:	48 89 85 c0 fe ff ff 	mov    %rax,-0x140(%rbp)
    e353:	c7 85 88 fe ff ff 00 	movl   $0x0,-0x178(%rbp)
    e35a:	00 00 00 
    e35d:	eb 6d                	jmp    e3cc <func_83+0x326>
    e35f:	c7 85 8c fe ff ff 00 	movl   $0x0,-0x174(%rbp)
    e366:	00 00 00 
    e369:	eb 51                	jmp    e3bc <func_83+0x316>
    e36b:	c7 85 90 fe ff ff 00 	movl   $0x0,-0x170(%rbp)
    e372:	00 00 00 
    e375:	eb 35                	jmp    e3ac <func_83+0x306>
    e377:	8b 85 90 fe ff ff    	mov    -0x170(%rbp),%eax
    e37d:	48 98                	cltq   
    e37f:	8b 95 88 fe ff ff    	mov    -0x178(%rbp),%edx
    e385:	48 63 ca             	movslq %edx,%rcx
    e388:	8b 95 8c fe ff ff    	mov    -0x174(%rbp),%edx
    e38e:	48 63 d2             	movslq %edx,%rdx
    e391:	48 01 ca             	add    %rcx,%rdx
    e394:	48 01 d2             	add    %rdx,%rdx
    e397:	48 01 d0             	add    %rdx,%rax
    e39a:	c7 84 85 d0 fe ff ff 	movl   $0x0,-0x130(%rbp,%rax,4)
    e3a1:	00 00 00 00 
    e3a5:	83 85 90 fe ff ff 01 	addl   $0x1,-0x170(%rbp)
    e3ac:	83 bd 90 fe ff ff 01 	cmpl   $0x1,-0x170(%rbp)
    e3b3:	7e c2                	jle    e377 <func_83+0x2d1>
    e3b5:	83 85 8c fe ff ff 01 	addl   $0x1,-0x174(%rbp)
    e3bc:	83 bd 8c fe ff ff 00 	cmpl   $0x0,-0x174(%rbp)
    e3c3:	7e a6                	jle    e36b <func_83+0x2c5>
    e3c5:	83 85 88 fe ff ff 01 	addl   $0x1,-0x178(%rbp)
    e3cc:	83 bd 88 fe ff ff 01 	cmpl   $0x1,-0x178(%rbp)
    e3d3:	7e 8a                	jle    e35f <func_83+0x2b9>
    e3d5:	48 8b 15 a4 2e 01 00 	mov    0x12ea4(%rip),%rdx        # 21280 <g_823>
    e3dc:	48 8b 85 98 fe ff ff 	mov    -0x168(%rbp),%rax
    e3e3:	48 89 10             	mov    %rdx,(%rax)
    e3e6:	48 83 ad c0 fe ff ff 	subq   $0x1,-0x140(%rbp)
    e3ed:	01 
    e3ee:	8b 85 74 fe ff ff    	mov    -0x18c(%rbp),%eax
    e3f4:	48 8b 75 f8          	mov    -0x8(%rbp),%rsi
    e3f8:	64 48 33 34 25 28 00 	xor    %fs:0x28,%rsi
    e3ff:	00 00 
    e401:	74 05                	je     e408 <func_83+0x362>
    e403:	e8 68 7c ff ff       	callq  6070 <__stack_chk_fail@plt>
    e408:	c9                   	leaveq 
    e409:	c3                   	retq   

000000000000e40a <func_97>:
    e40a:	f3 0f 1e fa          	endbr64 
    e40e:	55                   	push   %rbp
    e40f:	48 89 e5             	mov    %rsp,%rbp
    e412:	41 57                	push   %r15
    e414:	41 56                	push   %r14
    e416:	41 55                	push   %r13
    e418:	41 54                	push   %r12
    e41a:	53                   	push   %rbx
    e41b:	48 81 ec 28 0f 00 00 	sub    $0xf28,%rsp
    e422:	48 89 bd c8 f0 ff ff 	mov    %rdi,-0xf38(%rbp)
    e429:	48 89 b5 c0 f0 ff ff 	mov    %rsi,-0xf40(%rbp)
    e430:	89 d0                	mov    %edx,%eax
    e432:	66 89 85 bc f0 ff ff 	mov    %ax,-0xf44(%rbp)
    e439:	64 48 8b 04 25 28 00 	mov    %fs:0x28,%rax
    e440:	00 00 
    e442:	48 89 45 c8          	mov    %rax,-0x38(%rbp)
    e446:	31 c0                	xor    %eax,%eax
    e448:	48 8d 05 41 2c 01 00 	lea    0x12c41(%rip),%rax        # 21090 <g_405>
    e44f:	48 89 85 90 f1 ff ff 	mov    %rax,-0xe70(%rbp)
    e456:	48 8d 05 2b 3a 01 00 	lea    0x13a2b(%rip),%rax        # 21e88 <g_136>
    e45d:	48 89 85 98 f1 ff ff 	mov    %rax,-0xe68(%rbp)
    e464:	c7 85 f4 f0 ff ff 6c 	movl   $0x5489aa6c,-0xf0c(%rbp)
    e46b:	aa 89 54 
    e46e:	48 8d 05 0b e2 00 00 	lea    0xe20b(%rip),%rax        # 1c680 <g_604>
    e475:	48 89 85 a0 f1 ff ff 	mov    %rax,-0xe60(%rbp)
    e47c:	48 8d 05 bd db 00 00 	lea    0xdbbd(%rip),%rax        # 1c040 <g_57+0x10>
    e483:	48 89 85 a8 f1 ff ff 	mov    %rax,-0xe58(%rbp)
    e48a:	48 8d 05 ef db 00 00 	lea    0xdbef(%rip),%rax        # 1c080 <g_176>
    e491:	48 89 85 48 f1 ff ff 	mov    %rax,-0xeb8(%rbp)
    e498:	48 8d 85 48 f1 ff ff 	lea    -0xeb8(%rbp),%rax
    e49f:	48 89 85 b0 f1 ff ff 	mov    %rax,-0xe50(%rbp)
    e4a6:	c7 85 0c f1 ff ff 01 	movl   $0x1,-0xef4(%rbp)
    e4ad:	00 00 00 
    e4b0:	0f b6 85 e8 f0 ff ff 	movzbl -0xf18(%rbp),%eax
    e4b7:	83 e0 c0             	and    $0xffffffc0,%eax
    e4ba:	83 c8 01             	or     $0x1,%eax
    e4bd:	88 85 e8 f0 ff ff    	mov    %al,-0xf18(%rbp)
    e4c3:	0f b7 85 e8 f0 ff ff 	movzwl -0xf18(%rbp),%eax
    e4ca:	66 0d c0 0f          	or     $0xfc0,%ax
    e4ce:	66 89 85 e8 f0 ff ff 	mov    %ax,-0xf18(%rbp)
    e4d5:	48 8d 85 b8 f2 ff ff 	lea    -0xd48(%rbp),%rax
    e4dc:	48 89 85 50 f1 ff ff 	mov    %rax,-0xeb0(%rbp)
    e4e3:	48 8d 85 50 f1 ff ff 	lea    -0xeb0(%rbp),%rax
    e4ea:	48 89 85 58 f1 ff ff 	mov    %rax,-0xea8(%rbp)
    e4f1:	c7 85 10 f1 ff ff b5 	movl   $0xc60054b5,-0xef0(%rbp)
    e4f8:	54 00 c6 
    e4fb:	48 8d 05 1e 2c 01 00 	lea    0x12c1e(%rip),%rax        # 21120 <g_773>
    e502:	48 89 85 b8 f1 ff ff 	mov    %rax,-0xe48(%rbp)
    e509:	48 c7 85 60 f1 ff ff 	movq   $0x0,-0xea0(%rbp)
    e510:	00 00 00 00 
    e514:	48 8d 85 60 f1 ff ff 	lea    -0xea0(%rbp),%rax
    e51b:	48 89 85 c0 f1 ff ff 	mov    %rax,-0xe40(%rbp)
    e522:	48 8d 05 5f df 00 00 	lea    0xdf5f(%rip),%rax        # 1c488 <g_307+0x3e8>
    e529:	48 89 85 c8 f1 ff ff 	mov    %rax,-0xe38(%rbp)
    e530:	c7 85 14 f1 ff ff a0 	movl   $0x59f308a0,-0xeec(%rbp)
    e537:	08 f3 59 
    e53a:	48 b8 ad a9 5f 37 e6 	movabs $0x963c23e6375fa9ad,%rax
    e541:	23 3c 96 
    e544:	48 89 85 b0 f3 ff ff 	mov    %rax,-0xc50(%rbp)
    e54b:	48 89 85 b8 f3 ff ff 	mov    %rax,-0xc48(%rbp)
    e552:	48 89 85 c0 f3 ff ff 	mov    %rax,-0xc40(%rbp)
    e559:	48 89 85 c8 f3 ff ff 	mov    %rax,-0xc38(%rbp)
    e560:	48 89 85 d0 f3 ff ff 	mov    %rax,-0xc30(%rbp)
    e567:	48 89 85 d8 f3 ff ff 	mov    %rax,-0xc28(%rbp)
    e56e:	48 89 85 e0 f3 ff ff 	mov    %rax,-0xc20(%rbp)
    e575:	c6 85 d0 f0 ff ff ff 	movb   $0xff,-0xf30(%rbp)
    e57c:	48 8d 05 e5 30 01 00 	lea    0x130e5(%rip),%rax        # 21668 <g_979>
    e583:	48 89 85 d0 f1 ff ff 	mov    %rax,-0xe30(%rbp)
    e58a:	66 c7 85 da f0 ff ff 	movw   $0xf70f,-0xf26(%rbp)
    e591:	0f f7 
    e593:	48 c7 85 68 f1 ff ff 	movq   $0x0,-0xe98(%rbp)
    e59a:	00 00 00 00 
    e59e:	48 c7 85 d8 f1 ff ff 	movq   $0xfffffffffffffff8,-0xe28(%rbp)
    e5a5:	f8 ff ff ff 
    e5a9:	c7 85 10 f3 ff ff bc 	movl   $0xfa2260bc,-0xcf0(%rbp)
    e5b0:	60 22 fa 
    e5b3:	c7 85 14 f3 ff ff bc 	movl   $0xfa2260bc,-0xcec(%rbp)
    e5ba:	60 22 fa 
    e5bd:	c7 85 18 f3 ff ff bc 	movl   $0xfa2260bc,-0xce8(%rbp)
    e5c4:	60 22 fa 
    e5c7:	c7 85 1c f3 ff ff bc 	movl   $0xfa2260bc,-0xce4(%rbp)
    e5ce:	60 22 fa 
    e5d1:	c7 85 20 f3 ff ff bc 	movl   $0xfa2260bc,-0xce0(%rbp)
    e5d8:	60 22 fa 
    e5db:	c7 85 24 f3 ff ff bc 	movl   $0xfa2260bc,-0xcdc(%rbp)
    e5e2:	60 22 fa 
    e5e5:	c7 85 28 f3 ff ff bc 	movl   $0xfa2260bc,-0xcd8(%rbp)
    e5ec:	60 22 fa 
    e5ef:	48 8d 05 ca 38 01 00 	lea    0x138ca(%rip),%rax        # 21ec0 <g_1377>
    e5f6:	48 89 85 70 f1 ff ff 	mov    %rax,-0xe90(%rbp)
    e5fd:	48 8d 85 70 f1 ff ff 	lea    -0xe90(%rbp),%rax
    e604:	48 89 85 e0 f1 ff ff 	mov    %rax,-0xe20(%rbp)
    e60b:	48 8d 85 da f0 ff ff 	lea    -0xf26(%rbp),%rax
    e612:	48 89 85 e8 f1 ff ff 	mov    %rax,-0xe18(%rbp)
    e619:	c6 85 d1 f0 ff ff 6e 	movb   $0x6e,-0xf2f(%rbp)
    e620:	c7 85 80 f4 ff ff 01 	movl   $0x1,-0xb80(%rbp)
    e627:	00 00 00 
    e62a:	c7 85 84 f4 ff ff f7 	movl   $0xfffffff7,-0xb7c(%rbp)
    e631:	ff ff ff 
    e634:	c7 85 88 f4 ff ff 01 	movl   $0x1,-0xb78(%rbp)
    e63b:	00 00 00 
    e63e:	c7 85 8c f4 ff ff 35 	movl   $0xcc96dd35,-0xb74(%rbp)
    e645:	dd 96 cc 
    e648:	c7 85 90 f4 ff ff 01 	movl   $0x1,-0xb70(%rbp)
    e64f:	00 00 00 
    e652:	c7 85 94 f4 ff ff 01 	movl   $0x1,-0xb6c(%rbp)
    e659:	00 00 00 
    e65c:	c7 85 98 f4 ff ff 35 	movl   $0xcc96dd35,-0xb68(%rbp)
    e663:	dd 96 cc 
    e666:	c7 85 9c f4 ff ff 01 	movl   $0x1,-0xb64(%rbp)
    e66d:	00 00 00 
    e670:	c7 85 a0 f4 ff ff f7 	movl   $0xfffffff7,-0xb60(%rbp)
    e677:	ff ff ff 
    e67a:	c7 85 a4 f4 ff ff 01 	movl   $0x1,-0xb5c(%rbp)
    e681:	00 00 00 
    e684:	c7 85 a8 f4 ff ff 35 	movl   $0xcc96dd35,-0xb58(%rbp)
    e68b:	dd 96 cc 
    e68e:	c7 85 ac f4 ff ff 01 	movl   $0x1,-0xb54(%rbp)
    e695:	00 00 00 
    e698:	c7 85 b0 f4 ff ff 01 	movl   $0x1,-0xb50(%rbp)
    e69f:	00 00 00 
    e6a2:	c7 85 b4 f4 ff ff 35 	movl   $0xcc96dd35,-0xb4c(%rbp)
    e6a9:	dd 96 cc 
    e6ac:	c7 85 b8 f4 ff ff 01 	movl   $0x1,-0xb48(%rbp)
    e6b3:	00 00 00 
    e6b6:	c7 85 bc f4 ff ff f7 	movl   $0xfffffff7,-0xb44(%rbp)
    e6bd:	ff ff ff 
    e6c0:	c7 85 c0 f4 ff ff 01 	movl   $0x1,-0xb40(%rbp)
    e6c7:	00 00 00 
    e6ca:	c7 85 c4 f4 ff ff 35 	movl   $0xcc96dd35,-0xb3c(%rbp)
    e6d1:	dd 96 cc 
    e6d4:	c7 85 c8 f4 ff ff 01 	movl   $0x1,-0xb38(%rbp)
    e6db:	00 00 00 
    e6de:	c7 85 cc f4 ff ff 01 	movl   $0x1,-0xb34(%rbp)
    e6e5:	00 00 00 
    e6e8:	c7 85 d0 f4 ff ff 35 	movl   $0xcc96dd35,-0xb30(%rbp)
    e6ef:	dd 96 cc 
    e6f2:	c7 85 d4 f4 ff ff 01 	movl   $0x1,-0xb2c(%rbp)
    e6f9:	00 00 00 
    e6fc:	c7 85 d8 f4 ff ff f7 	movl   $0xfffffff7,-0xb28(%rbp)
    e703:	ff ff ff 
    e706:	c7 85 dc f4 ff ff 01 	movl   $0x1,-0xb24(%rbp)
    e70d:	00 00 00 
    e710:	c7 85 e0 f4 ff ff 35 	movl   $0xcc96dd35,-0xb20(%rbp)
    e717:	dd 96 cc 
    e71a:	c7 85 e4 f4 ff ff 01 	movl   $0x1,-0xb1c(%rbp)
    e721:	00 00 00 
    e724:	c7 85 e8 f4 ff ff 01 	movl   $0x1,-0xb18(%rbp)
    e72b:	00 00 00 
    e72e:	c7 85 ec f4 ff ff 35 	movl   $0xcc96dd35,-0xb14(%rbp)
    e735:	dd 96 cc 
    e738:	c7 85 f0 f4 ff ff 01 	movl   $0x1,-0xb10(%rbp)
    e73f:	00 00 00 
    e742:	c7 85 f4 f4 ff ff f7 	movl   $0xfffffff7,-0xb0c(%rbp)
    e749:	ff ff ff 
    e74c:	c7 85 f8 f4 ff ff 01 	movl   $0x1,-0xb08(%rbp)
    e753:	00 00 00 
    e756:	c7 85 fc f4 ff ff 35 	movl   $0xcc96dd35,-0xb04(%rbp)
    e75d:	dd 96 cc 
    e760:	66 c7 85 dc f0 ff ff 	movw   $0x3,-0xf24(%rbp)
    e767:	03 00 
    e769:	c7 85 f8 f0 ff ff 00 	movl   $0x0,-0xf08(%rbp)
    e770:	00 00 00 
    e773:	eb 1e                	jmp    e793 <func_97+0x389>
    e775:	8b 85 f8 f0 ff ff    	mov    -0xf08(%rbp),%eax
    e77b:	48 98                	cltq   
    e77d:	48 8d 15 0c 29 01 00 	lea    0x1290c(%rip),%rdx        # 21090 <g_405>
    e784:	48 89 94 c5 d0 f2 ff 	mov    %rdx,-0xd30(%rbp,%rax,8)
    e78b:	ff 
    e78c:	83 85 f8 f0 ff ff 01 	addl   $0x1,-0xf08(%rbp)
    e793:	83 bd f8 f0 ff ff 02 	cmpl   $0x2,-0xf08(%rbp)
    e79a:	7e d9                	jle    e775 <func_97+0x36b>
    e79c:	c7 85 f8 f0 ff ff 00 	movl   $0x0,-0xf08(%rbp)
    e7a3:	00 00 00 
    e7a6:	eb 1e                	jmp    e7c6 <func_97+0x3bc>
    e7a8:	8b 85 f8 f0 ff ff    	mov    -0xf08(%rbp),%eax
    e7ae:	48 98                	cltq   
    e7b0:	48 8d 15 95 d8 00 00 	lea    0xd895(%rip),%rdx        # 1c04c <g_116>
    e7b7:	48 89 94 c5 b8 f2 ff 	mov    %rdx,-0xd48(%rbp,%rax,8)
    e7be:	ff 
    e7bf:	83 85 f8 f0 ff ff 01 	addl   $0x1,-0xf08(%rbp)
    e7c6:	83 bd f8 f0 ff ff 00 	cmpl   $0x0,-0xf08(%rbp)
    e7cd:	7e d9                	jle    e7a8 <func_97+0x39e>
    e7cf:	c7 85 f8 f0 ff ff 00 	movl   $0x0,-0xf08(%rbp)
    e7d6:	00 00 00 
    e7d9:	eb 1a                	jmp    e7f5 <func_97+0x3eb>
    e7db:	8b 85 f8 f0 ff ff    	mov    -0xf08(%rbp),%eax
    e7e1:	48 98                	cltq   
    e7e3:	c7 84 85 ac f2 ff ff 	movl   $0x4bec89df,-0xd54(%rbp,%rax,4)
    e7ea:	df 89 ec 4b 
    e7ee:	83 85 f8 f0 ff ff 01 	addl   $0x1,-0xf08(%rbp)
    e7f5:	83 bd f8 f0 ff ff 00 	cmpl   $0x0,-0xf08(%rbp)
    e7fc:	7e dd                	jle    e7db <func_97+0x3d1>
    e7fe:	90                   	nop
    e7ff:	48 8b 85 90 f1 ff ff 	mov    -0xe70(%rbp),%rax
    e806:	48 c7 00 00 00 00 00 	movq   $0x0,(%rax)
    e80d:	66 c7 05 7c dc 00 00 	movw   $0x6,0xdc7c(%rip)        # 1c492 <g_442>
    e814:	06 00 
    e816:	e9 fa 1d 00 00       	jmpq   10615 <func_97+0x220b>
    e81b:	66 c7 85 de f0 ff ff 	movw   $0xffff,-0xf22(%rbp)
    e822:	ff ff 
    e824:	48 c7 85 78 f1 ff ff 	movq   $0x0,-0xe88(%rbp)
    e82b:	00 00 00 00 
    e82f:	48 8d 85 78 f1 ff ff 	lea    -0xe88(%rbp),%rax
    e836:	48 89 85 f0 f1 ff ff 	mov    %rax,-0xe10(%rbp)
    e83d:	0f b6 85 ec f0 ff ff 	movzbl -0xf14(%rbp),%eax
    e844:	83 e0 c0             	and    $0xffffffc0,%eax
    e847:	83 c8 01             	or     $0x1,%eax
    e84a:	88 85 ec f0 ff ff    	mov    %al,-0xf14(%rbp)
    e850:	0f b7 85 ec f0 ff ff 	movzwl -0xf14(%rbp),%eax
    e857:	66 25 3f f0          	and    $0xf03f,%ax
    e85b:	66 89 85 ec f0 ff ff 	mov    %ax,-0xf14(%rbp)
    e862:	48 c7 85 80 f1 ff ff 	movq   $0x0,-0xe80(%rbp)
    e869:	00 00 00 00 
    e86d:	48 8d 85 c0 f2 ff ff 	lea    -0xd40(%rbp),%rax
    e874:	48 89 85 88 f1 ff ff 	mov    %rax,-0xe78(%rbp)
    e87b:	48 c7 85 f8 f1 ff ff 	movq   $0x0,-0xe08(%rbp)
    e882:	00 00 00 00 
    e886:	66 c7 85 e0 f0 ff ff 	movw   $0xfff9,-0xf20(%rbp)
    e88d:	f9 ff 
    e88f:	c7 85 18 f1 ff ff 04 	movl   $0x4,-0xee8(%rbp)
    e896:	00 00 00 
    e899:	c7 85 1c f1 ff ff 01 	movl   $0x1,-0xee4(%rbp)
    e8a0:	00 00 00 
    e8a3:	c7 85 20 f1 ff ff 81 	movl   $0xa86b7181,-0xee0(%rbp)
    e8aa:	71 6b a8 
    e8ad:	c7 85 24 f1 ff ff 01 	movl   $0x1,-0xedc(%rbp)
    e8b4:	00 00 00 
    e8b7:	c7 85 28 f1 ff ff 27 	movl   $0x7b3d6827,-0xed8(%rbp)
    e8be:	68 3d 7b 
    e8c1:	c7 85 2c f1 ff ff 1b 	movl   $0x9863c31b,-0xed4(%rbp)
    e8c8:	c3 63 98 
    e8cb:	c6 85 d2 f0 ff ff 75 	movb   $0x75,-0xf2e(%rbp)
    e8d2:	66 c7 85 e2 f0 ff ff 	movw   $0xc479,-0xf1e(%rbp)
    e8d9:	79 c4 
    e8db:	c6 85 d3 f0 ff ff c9 	movb   $0xc9,-0xf2d(%rbp)
    e8e2:	c7 85 30 f1 ff ff f9 	movl   $0xfffffff9,-0xed0(%rbp)
    e8e9:	ff ff ff 
    e8ec:	48 8d 05 b5 27 01 00 	lea    0x127b5(%rip),%rax        # 210a8 <g_724>
    e8f3:	48 89 85 00 f2 ff ff 	mov    %rax,-0xe00(%rbp)
    e8fa:	c6 85 d4 f0 ff ff 0d 	movb   $0xd,-0xf2c(%rbp)
    e901:	c6 85 d5 f0 ff ff 43 	movb   $0x43,-0xf2b(%rbp)
    e908:	66 c7 85 e4 f0 ff ff 	movw   $0x4ec2,-0xf1c(%rbp)
    e90f:	c2 4e 
    e911:	c6 85 d6 f0 ff ff 50 	movb   $0x50,-0xf2a(%rbp)
    e918:	c7 85 34 f1 ff ff 00 	movl   $0x0,-0xecc(%rbp)
    e91f:	00 00 00 
    e922:	c7 85 38 f1 ff ff a9 	movl   $0xc24bc8a9,-0xec8(%rbp)
    e929:	c8 4b c2 
    e92c:	48 8d 05 55 27 01 00 	lea    0x12755(%rip),%rax        # 21088 <g_243>
    e933:	48 89 85 08 f2 ff ff 	mov    %rax,-0xdf8(%rbp)
    e93a:	c7 85 50 f3 ff ff f6 	movl   $0xfa07f6f6,-0xcb0(%rbp)
    e941:	f6 07 fa 
    e944:	66 c7 85 54 f3 ff ff 	movw   $0xfa09,-0xcac(%rbp)
    e94b:	09 fa 
    e94d:	c7 85 56 f3 ff ff 09 	movl   $0x9f609,-0xcaa(%rbp)
    e954:	f6 09 00 
    e957:	66 c7 85 5a f3 ff ff 	movw   $0x707,-0xca6(%rbp)
    e95e:	07 07 
    e960:	c7 85 5c f3 ff ff 00 	movl   $0x90900,-0xca4(%rbp)
    e967:	09 09 00 
    e96a:	66 c7 85 60 f3 ff ff 	movw   $0xfaf6,-0xca0(%rbp)
    e971:	f6 fa 
    e973:	c7 85 62 f3 ff ff fa 	movl   $0x700fa,-0xc9e(%rbp)
    e97a:	00 07 00 
    e97d:	66 c7 85 66 f3 ff ff 	movw   $0xfa,-0xc9a(%rbp)
    e984:	fa 00 
    e986:	c7 85 68 f3 ff ff 00 	movl   $0xfa00,-0xc98(%rbp)
    e98d:	fa 00 00 
    e990:	66 c7 85 6c f3 ff ff 	movw   $0xfa,-0xc94(%rbp)
    e997:	fa 00 
    e999:	c7 85 6e f3 ff ff 09 	movl   $0xfaf60009,-0xc92(%rbp)
    e9a0:	00 f6 fa 
    e9a3:	66 c7 85 72 f3 ff ff 	movw   $0xf6,-0xc8e(%rbp)
    e9aa:	f6 00 
    e9ac:	c7 85 74 f3 ff ff f6 	movl   $0x70009f6,-0xc8c(%rbp)
    e9b3:	09 00 07 
    e9b6:	66 c7 85 78 f3 ff ff 	movw   $0x7,-0xc88(%rbp)
    e9bd:	07 00 
    e9bf:	48 8d 85 58 f1 ff ff 	lea    -0xea8(%rbp),%rax
    e9c6:	48 89 85 10 f2 ff ff 	mov    %rax,-0xdf0(%rbp)
    e9cd:	48 8d 05 ec 2f 01 00 	lea    0x12fec(%rip),%rax        # 219c0 <g_1311>
    e9d4:	48 89 85 18 f2 ff ff 	mov    %rax,-0xde8(%rbp)
    e9db:	48 8d 85 68 f1 ff ff 	lea    -0xe98(%rbp),%rax
    e9e2:	48 89 85 20 f2 ff ff 	mov    %rax,-0xde0(%rbp)
    e9e9:	48 8d 85 80 f6 ff ff 	lea    -0x980(%rbp),%rax
    e9f0:	48 8d 15 29 9a 00 00 	lea    0x9a29(%rip),%rdx        # 18420 <g_1804+0x11c0>
    e9f7:	b9 48 00 00 00       	mov    $0x48,%ecx
    e9fc:	48 89 c7             	mov    %rax,%rdi
    e9ff:	48 89 d6             	mov    %rdx,%rsi
    ea02:	f3 48 a5             	rep movsq %ds:(%rsi),%es:(%rdi)
    ea05:	48 8d 05 86 da 00 00 	lea    0xda86(%rip),%rax        # 1c492 <g_442>
    ea0c:	48 89 85 f0 f3 ff ff 	mov    %rax,-0xc10(%rbp)
    ea13:	48 8d 05 78 da 00 00 	lea    0xda78(%rip),%rax        # 1c492 <g_442>
    ea1a:	48 89 85 f8 f3 ff ff 	mov    %rax,-0xc08(%rbp)
    ea21:	48 8d 05 6a da 00 00 	lea    0xda6a(%rip),%rax        # 1c492 <g_442>
    ea28:	48 89 85 00 f4 ff ff 	mov    %rax,-0xc00(%rbp)
    ea2f:	48 8d 05 5c da 00 00 	lea    0xda5c(%rip),%rax        # 1c492 <g_442>
    ea36:	48 89 85 08 f4 ff ff 	mov    %rax,-0xbf8(%rbp)
    ea3d:	48 8d 05 4e da 00 00 	lea    0xda4e(%rip),%rax        # 1c492 <g_442>
    ea44:	48 89 85 10 f4 ff ff 	mov    %rax,-0xbf0(%rbp)
    ea4b:	48 8d 05 40 da 00 00 	lea    0xda40(%rip),%rax        # 1c492 <g_442>
    ea52:	48 89 85 18 f4 ff ff 	mov    %rax,-0xbe8(%rbp)
    ea59:	48 8d 05 32 da 00 00 	lea    0xda32(%rip),%rax        # 1c492 <g_442>
    ea60:	48 89 85 20 f4 ff ff 	mov    %rax,-0xbe0(%rbp)
    ea67:	48 8d 05 24 da 00 00 	lea    0xda24(%rip),%rax        # 1c492 <g_442>
    ea6e:	48 89 85 28 f4 ff ff 	mov    %rax,-0xbd8(%rbp)
    ea75:	48 c7 85 c0 f8 ff ff 	movq   $0x0,-0x740(%rbp)
    ea7c:	00 00 00 00 
    ea80:	48 8d 85 f0 f3 ff ff 	lea    -0xc10(%rbp),%rax
    ea87:	48 83 c0 38          	add    $0x38,%rax
    ea8b:	48 89 85 c8 f8 ff ff 	mov    %rax,-0x738(%rbp)
    ea92:	48 8d 85 f0 f3 ff ff 	lea    -0xc10(%rbp),%rax
    ea99:	48 83 c0 38          	add    $0x38,%rax
    ea9d:	48 89 85 d0 f8 ff ff 	mov    %rax,-0x730(%rbp)
    eaa4:	48 8d 85 f0 f3 ff ff 	lea    -0xc10(%rbp),%rax
    eaab:	48 83 c0 08          	add    $0x8,%rax
    eaaf:	48 89 85 d8 f8 ff ff 	mov    %rax,-0x728(%rbp)
    eab6:	48 8d 85 f0 f3 ff ff 	lea    -0xc10(%rbp),%rax
    eabd:	48 83 c0 20          	add    $0x20,%rax
    eac1:	48 89 85 e0 f8 ff ff 	mov    %rax,-0x720(%rbp)
    eac8:	48 8d 85 f0 f3 ff ff 	lea    -0xc10(%rbp),%rax
    eacf:	48 83 c0 08          	add    $0x8,%rax
    ead3:	48 89 85 e8 f8 ff ff 	mov    %rax,-0x718(%rbp)
    eada:	48 8d 85 f0 f3 ff ff 	lea    -0xc10(%rbp),%rax
    eae1:	48 83 c0 38          	add    $0x38,%rax
    eae5:	48 89 85 f0 f8 ff ff 	mov    %rax,-0x710(%rbp)
    eaec:	48 c7 85 f8 f8 ff ff 	movq   $0x0,-0x708(%rbp)
    eaf3:	00 00 00 00 
    eaf7:	48 8d 85 f0 f3 ff ff 	lea    -0xc10(%rbp),%rax
    eafe:	48 83 c0 08          	add    $0x8,%rax
    eb02:	48 89 85 00 f9 ff ff 	mov    %rax,-0x700(%rbp)
    eb09:	48 c7 85 08 f9 ff ff 	movq   $0x0,-0x6f8(%rbp)
    eb10:	00 00 00 00 
    eb14:	48 8d 85 f0 f3 ff ff 	lea    -0xc10(%rbp),%rax
    eb1b:	48 83 c0 30          	add    $0x30,%rax
    eb1f:	48 89 85 10 f9 ff ff 	mov    %rax,-0x6f0(%rbp)
    eb26:	48 8d 85 f0 f3 ff ff 	lea    -0xc10(%rbp),%rax
    eb2d:	48 83 c0 38          	add    $0x38,%rax
    eb31:	48 89 85 18 f9 ff ff 	mov    %rax,-0x6e8(%rbp)
    eb38:	48 8d 85 f0 f3 ff ff 	lea    -0xc10(%rbp),%rax
    eb3f:	48 83 c0 38          	add    $0x38,%rax
    eb43:	48 89 85 20 f9 ff ff 	mov    %rax,-0x6e0(%rbp)
    eb4a:	48 8d 85 f0 f3 ff ff 	lea    -0xc10(%rbp),%rax
    eb51:	48 83 c0 18          	add    $0x18,%rax
    eb55:	48 89 85 28 f9 ff ff 	mov    %rax,-0x6d8(%rbp)
    eb5c:	48 8d 85 f0 f3 ff ff 	lea    -0xc10(%rbp),%rax
    eb63:	48 83 c0 30          	add    $0x30,%rax
    eb67:	48 89 85 30 f9 ff ff 	mov    %rax,-0x6d0(%rbp)
    eb6e:	48 8d 85 f0 f3 ff ff 	lea    -0xc10(%rbp),%rax
    eb75:	48 83 c0 08          	add    $0x8,%rax
    eb79:	48 89 85 38 f9 ff ff 	mov    %rax,-0x6c8(%rbp)
    eb80:	48 c7 85 40 f9 ff ff 	movq   $0x0,-0x6c0(%rbp)
    eb87:	00 00 00 00 
    eb8b:	48 8d 85 f0 f3 ff ff 	lea    -0xc10(%rbp),%rax
    eb92:	48 83 c0 10          	add    $0x10,%rax
    eb96:	48 89 85 48 f9 ff ff 	mov    %rax,-0x6b8(%rbp)
    eb9d:	48 8d 85 f0 f3 ff ff 	lea    -0xc10(%rbp),%rax
    eba4:	48 83 c0 08          	add    $0x8,%rax
    eba8:	48 89 85 50 f9 ff ff 	mov    %rax,-0x6b0(%rbp)
    ebaf:	48 8d 85 f0 f3 ff ff 	lea    -0xc10(%rbp),%rax
    ebb6:	48 83 c0 18          	add    $0x18,%rax
    ebba:	48 89 85 58 f9 ff ff 	mov    %rax,-0x6a8(%rbp)
    ebc1:	48 8d 85 f0 f3 ff ff 	lea    -0xc10(%rbp),%rax
    ebc8:	48 83 c0 30          	add    $0x30,%rax
    ebcc:	48 89 85 60 f9 ff ff 	mov    %rax,-0x6a0(%rbp)
    ebd3:	48 8d 85 f0 f3 ff ff 	lea    -0xc10(%rbp),%rax
    ebda:	48 83 c0 38          	add    $0x38,%rax
    ebde:	48 89 85 68 f9 ff ff 	mov    %rax,-0x698(%rbp)
    ebe5:	48 8d 85 f0 f3 ff ff 	lea    -0xc10(%rbp),%rax
    ebec:	48 83 c0 38          	add    $0x38,%rax
    ebf0:	48 89 85 70 f9 ff ff 	mov    %rax,-0x690(%rbp)
    ebf7:	48 8d 85 f0 f3 ff ff 	lea    -0xc10(%rbp),%rax
    ebfe:	48 83 c0 38          	add    $0x38,%rax
    ec02:	48 89 85 78 f9 ff ff 	mov    %rax,-0x688(%rbp)
    ec09:	48 8d 85 f0 f3 ff ff 	lea    -0xc10(%rbp),%rax
    ec10:	48 83 c0 38          	add    $0x38,%rax
    ec14:	48 89 85 80 f9 ff ff 	mov    %rax,-0x680(%rbp)
    ec1b:	48 8d 85 f0 f3 ff ff 	lea    -0xc10(%rbp),%rax
    ec22:	48 83 c0 38          	add    $0x38,%rax
    ec26:	48 89 85 88 f9 ff ff 	mov    %rax,-0x678(%rbp)
    ec2d:	48 8d 85 f0 f3 ff ff 	lea    -0xc10(%rbp),%rax
    ec34:	48 89 85 90 f9 ff ff 	mov    %rax,-0x670(%rbp)
    ec3b:	48 8d 85 f0 f3 ff ff 	lea    -0xc10(%rbp),%rax
    ec42:	48 83 c0 38          	add    $0x38,%rax
    ec46:	48 89 85 98 f9 ff ff 	mov    %rax,-0x668(%rbp)
    ec4d:	48 8d 85 f0 f3 ff ff 	lea    -0xc10(%rbp),%rax
    ec54:	48 83 c0 18          	add    $0x18,%rax
    ec58:	48 89 85 a0 f9 ff ff 	mov    %rax,-0x660(%rbp)
    ec5f:	48 8d 85 f0 f3 ff ff 	lea    -0xc10(%rbp),%rax
    ec66:	48 83 c0 20          	add    $0x20,%rax
    ec6a:	48 89 85 a8 f9 ff ff 	mov    %rax,-0x658(%rbp)
    ec71:	48 c7 85 b0 f9 ff ff 	movq   $0x0,-0x650(%rbp)
    ec78:	00 00 00 00 
    ec7c:	48 8d 85 f0 f3 ff ff 	lea    -0xc10(%rbp),%rax
    ec83:	48 89 85 b8 f9 ff ff 	mov    %rax,-0x648(%rbp)
    ec8a:	48 8d 85 f0 f3 ff ff 	lea    -0xc10(%rbp),%rax
    ec91:	48 83 c0 38          	add    $0x38,%rax
    ec95:	48 89 85 c0 f9 ff ff 	mov    %rax,-0x640(%rbp)
    ec9c:	48 8d 85 f0 f3 ff ff 	lea    -0xc10(%rbp),%rax
    eca3:	48 89 85 c8 f9 ff ff 	mov    %rax,-0x638(%rbp)
    ecaa:	48 c7 85 d0 f9 ff ff 	movq   $0x0,-0x630(%rbp)
    ecb1:	00 00 00 00 
    ecb5:	48 8d 85 f0 f3 ff ff 	lea    -0xc10(%rbp),%rax
    ecbc:	48 89 85 d8 f9 ff ff 	mov    %rax,-0x628(%rbp)
    ecc3:	48 8d 85 f0 f3 ff ff 	lea    -0xc10(%rbp),%rax
    ecca:	48 83 c0 38          	add    $0x38,%rax
    ecce:	48 89 85 e0 f9 ff ff 	mov    %rax,-0x620(%rbp)
    ecd5:	48 8d 85 f0 f3 ff ff 	lea    -0xc10(%rbp),%rax
    ecdc:	48 83 c0 08          	add    $0x8,%rax
    ece0:	48 89 85 e8 f9 ff ff 	mov    %rax,-0x618(%rbp)
    ece7:	48 8d 85 f0 f3 ff ff 	lea    -0xc10(%rbp),%rax
    ecee:	48 83 c0 38          	add    $0x38,%rax
    ecf2:	48 89 85 f0 f9 ff ff 	mov    %rax,-0x610(%rbp)
    ecf9:	48 8d 85 f0 f3 ff ff 	lea    -0xc10(%rbp),%rax
    ed00:	48 83 c0 18          	add    $0x18,%rax
    ed04:	48 89 85 f8 f9 ff ff 	mov    %rax,-0x608(%rbp)
    ed0b:	48 8d 85 f0 f3 ff ff 	lea    -0xc10(%rbp),%rax
    ed12:	48 83 c0 38          	add    $0x38,%rax
    ed16:	48 89 85 00 fa ff ff 	mov    %rax,-0x600(%rbp)
    ed1d:	48 8d 85 f0 f3 ff ff 	lea    -0xc10(%rbp),%rax
    ed24:	48 83 c0 38          	add    $0x38,%rax
    ed28:	48 89 85 08 fa ff ff 	mov    %rax,-0x5f8(%rbp)
    ed2f:	48 c7 85 10 fa ff ff 	movq   $0x0,-0x5f0(%rbp)
    ed36:	00 00 00 00 
    ed3a:	48 8d 85 f0 f3 ff ff 	lea    -0xc10(%rbp),%rax
    ed41:	48 83 c0 38          	add    $0x38,%rax
    ed45:	48 89 85 18 fa ff ff 	mov    %rax,-0x5e8(%rbp)
    ed4c:	48 8d 85 f0 f3 ff ff 	lea    -0xc10(%rbp),%rax
    ed53:	48 83 c0 20          	add    $0x20,%rax
    ed57:	48 89 85 20 fa ff ff 	mov    %rax,-0x5e0(%rbp)
    ed5e:	48 c7 85 28 fa ff ff 	movq   $0x0,-0x5d8(%rbp)
    ed65:	00 00 00 00 
    ed69:	48 8d 85 f0 f3 ff ff 	lea    -0xc10(%rbp),%rax
    ed70:	48 83 c0 30          	add    $0x30,%rax
    ed74:	48 89 85 30 fa ff ff 	mov    %rax,-0x5d0(%rbp)
    ed7b:	48 8d 85 f0 f3 ff ff 	lea    -0xc10(%rbp),%rax
    ed82:	48 83 c0 38          	add    $0x38,%rax
    ed86:	48 89 85 38 fa ff ff 	mov    %rax,-0x5c8(%rbp)
    ed8d:	48 c7 85 40 fa ff ff 	movq   $0x0,-0x5c0(%rbp)
    ed94:	00 00 00 00 
    ed98:	48 8d 85 f0 f3 ff ff 	lea    -0xc10(%rbp),%rax
    ed9f:	48 83 c0 38          	add    $0x38,%rax
    eda3:	48 89 85 48 fa ff ff 	mov    %rax,-0x5b8(%rbp)
    edaa:	48 8d 85 f0 f3 ff ff 	lea    -0xc10(%rbp),%rax
    edb1:	48 89 85 50 fa ff ff 	mov    %rax,-0x5b0(%rbp)
    edb8:	48 8d 85 f0 f3 ff ff 	lea    -0xc10(%rbp),%rax
    edbf:	48 83 c0 08          	add    $0x8,%rax
    edc3:	48 89 85 58 fa ff ff 	mov    %rax,-0x5a8(%rbp)
    edca:	48 8d 85 f0 f3 ff ff 	lea    -0xc10(%rbp),%rax
    edd1:	48 89 85 60 fa ff ff 	mov    %rax,-0x5a0(%rbp)
    edd8:	48 8d 85 f0 f3 ff ff 	lea    -0xc10(%rbp),%rax
    eddf:	48 83 c0 18          	add    $0x18,%rax
    ede3:	48 89 85 68 fa ff ff 	mov    %rax,-0x598(%rbp)
    edea:	48 8d 85 f0 f3 ff ff 	lea    -0xc10(%rbp),%rax
    edf1:	48 83 c0 38          	add    $0x38,%rax
    edf5:	48 89 85 70 fa ff ff 	mov    %rax,-0x590(%rbp)
    edfc:	48 8d 85 f0 f3 ff ff 	lea    -0xc10(%rbp),%rax
    ee03:	48 83 c0 38          	add    $0x38,%rax
    ee07:	48 89 85 78 fa ff ff 	mov    %rax,-0x588(%rbp)
    ee0e:	48 8d 85 f0 f3 ff ff 	lea    -0xc10(%rbp),%rax
    ee15:	48 89 85 80 fa ff ff 	mov    %rax,-0x580(%rbp)
    ee1c:	48 8d 85 f0 f3 ff ff 	lea    -0xc10(%rbp),%rax
    ee23:	48 83 c0 38          	add    $0x38,%rax
    ee27:	48 89 85 88 fa ff ff 	mov    %rax,-0x578(%rbp)
    ee2e:	48 8d 85 f0 f3 ff ff 	lea    -0xc10(%rbp),%rax
    ee35:	48 89 85 90 fa ff ff 	mov    %rax,-0x570(%rbp)
    ee3c:	48 8d 85 f0 f3 ff ff 	lea    -0xc10(%rbp),%rax
    ee43:	48 83 c0 38          	add    $0x38,%rax
    ee47:	48 89 85 98 fa ff ff 	mov    %rax,-0x568(%rbp)
    ee4e:	48 c7 85 a0 fa ff ff 	movq   $0x0,-0x560(%rbp)
    ee55:	00 00 00 00 
    ee59:	48 8d 85 f0 f3 ff ff 	lea    -0xc10(%rbp),%rax
    ee60:	48 83 c0 38          	add    $0x38,%rax
    ee64:	48 89 85 a8 fa ff ff 	mov    %rax,-0x558(%rbp)
    ee6b:	48 8d 85 f0 f3 ff ff 	lea    -0xc10(%rbp),%rax
    ee72:	48 83 c0 30          	add    $0x30,%rax
    ee76:	48 89 85 b0 fa ff ff 	mov    %rax,-0x550(%rbp)
    ee7d:	48 8d 85 f0 f3 ff ff 	lea    -0xc10(%rbp),%rax
    ee84:	48 83 c0 38          	add    $0x38,%rax
    ee88:	48 89 85 b8 fa ff ff 	mov    %rax,-0x548(%rbp)
    ee8f:	48 8d 85 f0 f3 ff ff 	lea    -0xc10(%rbp),%rax
    ee96:	48 83 c0 20          	add    $0x20,%rax
    ee9a:	48 89 85 c0 fa ff ff 	mov    %rax,-0x540(%rbp)
    eea1:	48 8d 85 f0 f3 ff ff 	lea    -0xc10(%rbp),%rax
    eea8:	48 83 c0 28          	add    $0x28,%rax
    eeac:	48 89 85 c8 fa ff ff 	mov    %rax,-0x538(%rbp)
    eeb3:	48 c7 85 d0 fa ff ff 	movq   $0x0,-0x530(%rbp)
    eeba:	00 00 00 00 
    eebe:	48 c7 85 d8 fa ff ff 	movq   $0x0,-0x528(%rbp)
    eec5:	00 00 00 00 
    eec9:	48 8d 85 f0 f3 ff ff 	lea    -0xc10(%rbp),%rax
    eed0:	48 83 c0 38          	add    $0x38,%rax
    eed4:	48 89 85 e0 fa ff ff 	mov    %rax,-0x520(%rbp)
    eedb:	48 c7 85 e8 fa ff ff 	movq   $0x0,-0x518(%rbp)
    eee2:	00 00 00 00 
    eee6:	48 8d 85 f0 f3 ff ff 	lea    -0xc10(%rbp),%rax
    eeed:	48 83 c0 38          	add    $0x38,%rax
    eef1:	48 89 85 f0 fa ff ff 	mov    %rax,-0x510(%rbp)
    eef8:	48 8d 85 f0 f3 ff ff 	lea    -0xc10(%rbp),%rax
    eeff:	48 83 c0 38          	add    $0x38,%rax
    ef03:	48 89 85 f8 fa ff ff 	mov    %rax,-0x508(%rbp)
    ef0a:	48 8d 85 f0 f3 ff ff 	lea    -0xc10(%rbp),%rax
    ef11:	48 83 c0 38          	add    $0x38,%rax
    ef15:	48 89 85 00 fb ff ff 	mov    %rax,-0x500(%rbp)
    ef1c:	48 c7 85 08 fb ff ff 	movq   $0x0,-0x4f8(%rbp)
    ef23:	00 00 00 00 
    ef27:	48 c7 85 10 fb ff ff 	movq   $0x0,-0x4f0(%rbp)
    ef2e:	00 00 00 00 
    ef32:	48 8d 85 f0 f3 ff ff 	lea    -0xc10(%rbp),%rax
    ef39:	48 83 c0 38          	add    $0x38,%rax
    ef3d:	48 89 85 18 fb ff ff 	mov    %rax,-0x4e8(%rbp)
    ef44:	48 8d 85 f0 f3 ff ff 	lea    -0xc10(%rbp),%rax
    ef4b:	48 83 c0 38          	add    $0x38,%rax
    ef4f:	48 89 85 20 fb ff ff 	mov    %rax,-0x4e0(%rbp)
    ef56:	48 c7 85 28 fb ff ff 	movq   $0x0,-0x4d8(%rbp)
    ef5d:	00 00 00 00 
    ef61:	48 c7 85 30 fb ff ff 	movq   $0x0,-0x4d0(%rbp)
    ef68:	00 00 00 00 
    ef6c:	48 8d 85 f0 f3 ff ff 	lea    -0xc10(%rbp),%rax
    ef73:	48 83 c0 38          	add    $0x38,%rax
    ef77:	48 89 85 38 fb ff ff 	mov    %rax,-0x4c8(%rbp)
    ef7e:	48 8d 85 f0 f3 ff ff 	lea    -0xc10(%rbp),%rax
    ef85:	48 83 c0 18          	add    $0x18,%rax
    ef89:	48 89 85 40 fb ff ff 	mov    %rax,-0x4c0(%rbp)
    ef90:	48 c7 85 48 fb ff ff 	movq   $0x0,-0x4b8(%rbp)
    ef97:	00 00 00 00 
    ef9b:	48 8d 85 f0 f3 ff ff 	lea    -0xc10(%rbp),%rax
    efa2:	48 89 85 50 fb ff ff 	mov    %rax,-0x4b0(%rbp)
    efa9:	48 8d 85 f0 f3 ff ff 	lea    -0xc10(%rbp),%rax
    efb0:	48 83 c0 30          	add    $0x30,%rax
    efb4:	48 89 85 58 fb ff ff 	mov    %rax,-0x4a8(%rbp)
    efbb:	48 8d 85 f0 f3 ff ff 	lea    -0xc10(%rbp),%rax
    efc2:	48 83 c0 38          	add    $0x38,%rax
    efc6:	48 89 85 60 fb ff ff 	mov    %rax,-0x4a0(%rbp)
    efcd:	48 8d 85 f0 f3 ff ff 	lea    -0xc10(%rbp),%rax
    efd4:	48 83 c0 30          	add    $0x30,%rax
    efd8:	48 89 85 68 fb ff ff 	mov    %rax,-0x498(%rbp)
    efdf:	48 8d 85 f0 f3 ff ff 	lea    -0xc10(%rbp),%rax
    efe6:	48 83 c0 38          	add    $0x38,%rax
    efea:	48 89 85 70 fb ff ff 	mov    %rax,-0x490(%rbp)
    eff1:	48 c7 85 78 fb ff ff 	movq   $0x0,-0x488(%rbp)
    eff8:	00 00 00 00 
    effc:	48 8d 85 f0 f3 ff ff 	lea    -0xc10(%rbp),%rax
    f003:	48 83 c0 30          	add    $0x30,%rax
    f007:	48 89 85 80 fb ff ff 	mov    %rax,-0x480(%rbp)
    f00e:	48 8d 85 f0 f3 ff ff 	lea    -0xc10(%rbp),%rax
    f015:	48 83 c0 38          	add    $0x38,%rax
    f019:	48 89 85 88 fb ff ff 	mov    %rax,-0x478(%rbp)
    f020:	48 8d 85 f0 f3 ff ff 	lea    -0xc10(%rbp),%rax
    f027:	48 83 c0 08          	add    $0x8,%rax
    f02b:	48 89 85 90 fb ff ff 	mov    %rax,-0x470(%rbp)
    f032:	48 8d 85 f0 f3 ff ff 	lea    -0xc10(%rbp),%rax
    f039:	48 83 c0 30          	add    $0x30,%rax
    f03d:	48 89 85 98 fb ff ff 	mov    %rax,-0x468(%rbp)
    f044:	48 c7 85 a0 fb ff ff 	movq   $0x0,-0x460(%rbp)
    f04b:	00 00 00 00 
    f04f:	48 8d 85 f0 f3 ff ff 	lea    -0xc10(%rbp),%rax
    f056:	48 83 c0 20          	add    $0x20,%rax
    f05a:	48 89 85 a8 fb ff ff 	mov    %rax,-0x458(%rbp)
    f061:	48 8d 85 f0 f3 ff ff 	lea    -0xc10(%rbp),%rax
    f068:	48 83 c0 30          	add    $0x30,%rax
    f06c:	48 89 85 b0 fb ff ff 	mov    %rax,-0x450(%rbp)
    f073:	48 c7 85 b8 fb ff ff 	movq   $0x0,-0x448(%rbp)
    f07a:	00 00 00 00 
    f07e:	48 8d 85 f0 f3 ff ff 	lea    -0xc10(%rbp),%rax
    f085:	48 83 c0 38          	add    $0x38,%rax
    f089:	48 89 85 c0 fb ff ff 	mov    %rax,-0x440(%rbp)
    f090:	48 8d 85 f0 f3 ff ff 	lea    -0xc10(%rbp),%rax
    f097:	48 83 c0 38          	add    $0x38,%rax
    f09b:	48 89 85 c8 fb ff ff 	mov    %rax,-0x438(%rbp)
    f0a2:	48 8d 85 f0 f3 ff ff 	lea    -0xc10(%rbp),%rax
    f0a9:	48 83 c0 30          	add    $0x30,%rax
    f0ad:	48 89 85 d0 fb ff ff 	mov    %rax,-0x430(%rbp)
    f0b4:	48 c7 85 d8 fb ff ff 	movq   $0x0,-0x428(%rbp)
    f0bb:	00 00 00 00 
    f0bf:	48 8d 85 f0 f3 ff ff 	lea    -0xc10(%rbp),%rax
    f0c6:	48 83 c0 08          	add    $0x8,%rax
    f0ca:	48 89 85 e0 fb ff ff 	mov    %rax,-0x420(%rbp)
    f0d1:	48 8d 85 f0 f3 ff ff 	lea    -0xc10(%rbp),%rax
    f0d8:	48 83 c0 18          	add    $0x18,%rax
    f0dc:	48 89 85 e8 fb ff ff 	mov    %rax,-0x418(%rbp)
    f0e3:	48 8d 85 f0 f3 ff ff 	lea    -0xc10(%rbp),%rax
    f0ea:	48 83 c0 38          	add    $0x38,%rax
    f0ee:	48 89 85 f0 fb ff ff 	mov    %rax,-0x410(%rbp)
    f0f5:	48 8d 85 f0 f3 ff ff 	lea    -0xc10(%rbp),%rax
    f0fc:	48 83 c0 38          	add    $0x38,%rax
    f100:	48 89 85 f8 fb ff ff 	mov    %rax,-0x408(%rbp)
    f107:	48 8d 85 f0 f3 ff ff 	lea    -0xc10(%rbp),%rax
    f10e:	48 83 c0 20          	add    $0x20,%rax
    f112:	48 89 85 00 fc ff ff 	mov    %rax,-0x400(%rbp)
    f119:	48 8d 85 f0 f3 ff ff 	lea    -0xc10(%rbp),%rax
    f120:	48 83 c0 38          	add    $0x38,%rax
    f124:	48 89 85 08 fc ff ff 	mov    %rax,-0x3f8(%rbp)
    f12b:	48 8d 85 f0 f3 ff ff 	lea    -0xc10(%rbp),%rax
    f132:	48 83 c0 38          	add    $0x38,%rax
    f136:	48 89 85 10 fc ff ff 	mov    %rax,-0x3f0(%rbp)
    f13d:	48 8d 85 f0 f3 ff ff 	lea    -0xc10(%rbp),%rax
    f144:	48 83 c0 38          	add    $0x38,%rax
    f148:	48 89 85 18 fc ff ff 	mov    %rax,-0x3e8(%rbp)
    f14f:	48 c7 85 20 fc ff ff 	movq   $0x0,-0x3e0(%rbp)
    f156:	00 00 00 00 
    f15a:	48 8d 85 f0 f3 ff ff 	lea    -0xc10(%rbp),%rax
    f161:	48 83 c0 38          	add    $0x38,%rax
    f165:	48 89 85 28 fc ff ff 	mov    %rax,-0x3d8(%rbp)
    f16c:	48 8d 85 f0 f3 ff ff 	lea    -0xc10(%rbp),%rax
    f173:	48 83 c0 20          	add    $0x20,%rax
    f177:	48 89 85 30 fc ff ff 	mov    %rax,-0x3d0(%rbp)
    f17e:	48 8d 85 f0 f3 ff ff 	lea    -0xc10(%rbp),%rax
    f185:	48 83 c0 18          	add    $0x18,%rax
    f189:	48 89 85 38 fc ff ff 	mov    %rax,-0x3c8(%rbp)
    f190:	48 8d 85 f0 f3 ff ff 	lea    -0xc10(%rbp),%rax
    f197:	48 83 c0 30          	add    $0x30,%rax
    f19b:	48 89 85 40 fc ff ff 	mov    %rax,-0x3c0(%rbp)
    f1a2:	48 8d 85 f0 f3 ff ff 	lea    -0xc10(%rbp),%rax
    f1a9:	48 83 c0 38          	add    $0x38,%rax
    f1ad:	48 89 85 48 fc ff ff 	mov    %rax,-0x3b8(%rbp)
    f1b4:	48 8d 85 f0 f3 ff ff 	lea    -0xc10(%rbp),%rax
    f1bb:	48 83 c0 28          	add    $0x28,%rax
    f1bf:	48 89 85 50 fc ff ff 	mov    %rax,-0x3b0(%rbp)
    f1c6:	48 8d 85 f0 f3 ff ff 	lea    -0xc10(%rbp),%rax
    f1cd:	48 83 c0 38          	add    $0x38,%rax
    f1d1:	48 89 85 58 fc ff ff 	mov    %rax,-0x3a8(%rbp)
    f1d8:	48 c7 85 60 fc ff ff 	movq   $0x0,-0x3a0(%rbp)
    f1df:	00 00 00 00 
    f1e3:	48 8d 85 f0 f3 ff ff 	lea    -0xc10(%rbp),%rax
    f1ea:	48 83 c0 38          	add    $0x38,%rax
    f1ee:	48 89 85 68 fc ff ff 	mov    %rax,-0x398(%rbp)
    f1f5:	48 8d 85 f0 f3 ff ff 	lea    -0xc10(%rbp),%rax
    f1fc:	48 89 85 70 fc ff ff 	mov    %rax,-0x390(%rbp)
    f203:	48 8d 85 f0 f3 ff ff 	lea    -0xc10(%rbp),%rax
    f20a:	48 83 c0 38          	add    $0x38,%rax
    f20e:	48 89 85 78 fc ff ff 	mov    %rax,-0x388(%rbp)
    f215:	48 8d 85 f0 f3 ff ff 	lea    -0xc10(%rbp),%rax
    f21c:	48 83 c0 38          	add    $0x38,%rax
    f220:	48 89 85 80 fc ff ff 	mov    %rax,-0x380(%rbp)
    f227:	48 8d 85 f0 f3 ff ff 	lea    -0xc10(%rbp),%rax
    f22e:	48 89 85 88 fc ff ff 	mov    %rax,-0x378(%rbp)
    f235:	48 c7 85 90 fc ff ff 	movq   $0x0,-0x370(%rbp)
    f23c:	00 00 00 00 
    f240:	48 c7 85 98 fc ff ff 	movq   $0x0,-0x368(%rbp)
    f247:	00 00 00 00 
    f24b:	48 8d 85 f0 f3 ff ff 	lea    -0xc10(%rbp),%rax
    f252:	48 83 c0 30          	add    $0x30,%rax
    f256:	48 89 85 a0 fc ff ff 	mov    %rax,-0x360(%rbp)
    f25d:	48 8d 85 f0 f3 ff ff 	lea    -0xc10(%rbp),%rax
    f264:	48 83 c0 30          	add    $0x30,%rax
    f268:	48 89 85 a8 fc ff ff 	mov    %rax,-0x358(%rbp)
    f26f:	48 8d 85 f0 f3 ff ff 	lea    -0xc10(%rbp),%rax
    f276:	48 83 c0 38          	add    $0x38,%rax
    f27a:	48 89 85 b0 fc ff ff 	mov    %rax,-0x350(%rbp)
    f281:	48 8d 85 f0 f3 ff ff 	lea    -0xc10(%rbp),%rax
    f288:	48 83 c0 38          	add    $0x38,%rax
    f28c:	48 89 85 b8 fc ff ff 	mov    %rax,-0x348(%rbp)
    f293:	48 8d 85 f0 f3 ff ff 	lea    -0xc10(%rbp),%rax
    f29a:	48 83 c0 28          	add    $0x28,%rax
    f29e:	48 89 85 c0 fc ff ff 	mov    %rax,-0x340(%rbp)
    f2a5:	48 8d 85 f0 f3 ff ff 	lea    -0xc10(%rbp),%rax
    f2ac:	48 83 c0 08          	add    $0x8,%rax
    f2b0:	48 89 85 c8 fc ff ff 	mov    %rax,-0x338(%rbp)
    f2b7:	48 8d 85 f0 f3 ff ff 	lea    -0xc10(%rbp),%rax
    f2be:	48 83 c0 38          	add    $0x38,%rax
    f2c2:	48 89 85 d0 fc ff ff 	mov    %rax,-0x330(%rbp)
    f2c9:	48 8d 85 f0 f3 ff ff 	lea    -0xc10(%rbp),%rax
    f2d0:	48 83 c0 38          	add    $0x38,%rax
    f2d4:	48 89 85 d8 fc ff ff 	mov    %rax,-0x328(%rbp)
    f2db:	48 8d 85 f0 f3 ff ff 	lea    -0xc10(%rbp),%rax
    f2e2:	48 83 c0 38          	add    $0x38,%rax
    f2e6:	48 89 85 e0 fc ff ff 	mov    %rax,-0x320(%rbp)
    f2ed:	48 8d 85 f0 f3 ff ff 	lea    -0xc10(%rbp),%rax
    f2f4:	48 83 c0 38          	add    $0x38,%rax
    f2f8:	48 89 85 e8 fc ff ff 	mov    %rax,-0x318(%rbp)
    f2ff:	48 8d 85 f0 f3 ff ff 	lea    -0xc10(%rbp),%rax
    f306:	48 83 c0 38          	add    $0x38,%rax
    f30a:	48 89 85 f0 fc ff ff 	mov    %rax,-0x310(%rbp)
    f311:	48 8d 85 f0 f3 ff ff 	lea    -0xc10(%rbp),%rax
    f318:	48 83 c0 08          	add    $0x8,%rax
    f31c:	48 89 85 f8 fc ff ff 	mov    %rax,-0x308(%rbp)
    f323:	48 8d 85 f0 f3 ff ff 	lea    -0xc10(%rbp),%rax
    f32a:	48 83 c0 28          	add    $0x28,%rax
    f32e:	48 89 85 00 fd ff ff 	mov    %rax,-0x300(%rbp)
    f335:	48 8d 85 f0 f3 ff ff 	lea    -0xc10(%rbp),%rax
    f33c:	48 83 c0 38          	add    $0x38,%rax
    f340:	48 89 85 08 fd ff ff 	mov    %rax,-0x2f8(%rbp)
    f347:	48 8d 85 f0 f3 ff ff 	lea    -0xc10(%rbp),%rax
    f34e:	48 83 c0 38          	add    $0x38,%rax
    f352:	48 89 85 10 fd ff ff 	mov    %rax,-0x2f0(%rbp)
    f359:	48 8d 85 f0 f3 ff ff 	lea    -0xc10(%rbp),%rax
    f360:	48 83 c0 08          	add    $0x8,%rax
    f364:	48 89 85 18 fd ff ff 	mov    %rax,-0x2e8(%rbp)
    f36b:	48 8d 85 f0 f3 ff ff 	lea    -0xc10(%rbp),%rax
    f372:	48 83 c0 38          	add    $0x38,%rax
    f376:	48 89 85 20 fd ff ff 	mov    %rax,-0x2e0(%rbp)
    f37d:	48 8d 85 f0 f3 ff ff 	lea    -0xc10(%rbp),%rax
    f384:	48 83 c0 38          	add    $0x38,%rax
    f388:	48 89 85 28 fd ff ff 	mov    %rax,-0x2d8(%rbp)
    f38f:	48 8d 85 f0 f3 ff ff 	lea    -0xc10(%rbp),%rax
    f396:	48 83 c0 38          	add    $0x38,%rax
    f39a:	48 89 85 30 fd ff ff 	mov    %rax,-0x2d0(%rbp)
    f3a1:	48 8d 85 f0 f3 ff ff 	lea    -0xc10(%rbp),%rax
    f3a8:	48 83 c0 30          	add    $0x30,%rax
    f3ac:	48 89 85 38 fd ff ff 	mov    %rax,-0x2c8(%rbp)
    f3b3:	48 8d 85 f0 f3 ff ff 	lea    -0xc10(%rbp),%rax
    f3ba:	48 83 c0 28          	add    $0x28,%rax
    f3be:	48 89 85 40 fd ff ff 	mov    %rax,-0x2c0(%rbp)
    f3c5:	48 c7 85 48 fd ff ff 	movq   $0x0,-0x2b8(%rbp)
    f3cc:	00 00 00 00 
    f3d0:	48 c7 85 50 fd ff ff 	movq   $0x0,-0x2b0(%rbp)
    f3d7:	00 00 00 00 
    f3db:	48 8d 85 f0 f3 ff ff 	lea    -0xc10(%rbp),%rax
    f3e2:	48 83 c0 28          	add    $0x28,%rax
    f3e6:	48 89 85 58 fd ff ff 	mov    %rax,-0x2a8(%rbp)
    f3ed:	48 8d 85 f0 f3 ff ff 	lea    -0xc10(%rbp),%rax
    f3f4:	48 89 85 60 fd ff ff 	mov    %rax,-0x2a0(%rbp)
    f3fb:	48 8d 85 f0 f3 ff ff 	lea    -0xc10(%rbp),%rax
    f402:	48 83 c0 18          	add    $0x18,%rax
    f406:	48 89 85 68 fd ff ff 	mov    %rax,-0x298(%rbp)
    f40d:	48 8d 85 f0 f3 ff ff 	lea    -0xc10(%rbp),%rax
    f414:	48 83 c0 38          	add    $0x38,%rax
    f418:	48 89 85 70 fd ff ff 	mov    %rax,-0x290(%rbp)
    f41f:	48 8d 85 f0 f3 ff ff 	lea    -0xc10(%rbp),%rax
    f426:	48 83 c0 08          	add    $0x8,%rax
    f42a:	48 89 85 78 fd ff ff 	mov    %rax,-0x288(%rbp)
    f431:	48 8d 85 f0 f3 ff ff 	lea    -0xc10(%rbp),%rax
    f438:	48 83 c0 38          	add    $0x38,%rax
    f43c:	48 89 85 80 fd ff ff 	mov    %rax,-0x280(%rbp)
    f443:	48 8d 85 f0 f3 ff ff 	lea    -0xc10(%rbp),%rax
    f44a:	48 83 c0 38          	add    $0x38,%rax
    f44e:	48 89 85 88 fd ff ff 	mov    %rax,-0x278(%rbp)
    f455:	48 8d 85 f0 f3 ff ff 	lea    -0xc10(%rbp),%rax
    f45c:	48 83 c0 38          	add    $0x38,%rax
    f460:	48 89 85 90 fd ff ff 	mov    %rax,-0x270(%rbp)
    f467:	48 8d 85 f0 f3 ff ff 	lea    -0xc10(%rbp),%rax
    f46e:	48 83 c0 38          	add    $0x38,%rax
    f472:	48 89 85 98 fd ff ff 	mov    %rax,-0x268(%rbp)
    f479:	48 c7 85 a0 fd ff ff 	movq   $0x0,-0x260(%rbp)
    f480:	00 00 00 00 
    f484:	48 c7 85 a8 fd ff ff 	movq   $0x0,-0x258(%rbp)
    f48b:	00 00 00 00 
    f48f:	48 c7 85 b0 fd ff ff 	movq   $0x0,-0x250(%rbp)
    f496:	00 00 00 00 
    f49a:	48 8d 85 f0 f3 ff ff 	lea    -0xc10(%rbp),%rax
    f4a1:	48 83 c0 38          	add    $0x38,%rax
    f4a5:	48 89 85 b8 fd ff ff 	mov    %rax,-0x248(%rbp)
    f4ac:	48 8d 85 f0 f3 ff ff 	lea    -0xc10(%rbp),%rax
    f4b3:	48 83 c0 38          	add    $0x38,%rax
    f4b7:	48 89 85 c0 fd ff ff 	mov    %rax,-0x240(%rbp)
    f4be:	48 8d 85 f0 f3 ff ff 	lea    -0xc10(%rbp),%rax
    f4c5:	48 83 c0 38          	add    $0x38,%rax
    f4c9:	48 89 85 c8 fd ff ff 	mov    %rax,-0x238(%rbp)
    f4d0:	48 8d 85 f0 f3 ff ff 	lea    -0xc10(%rbp),%rax
    f4d7:	48 83 c0 18          	add    $0x18,%rax
    f4db:	48 89 85 d0 fd ff ff 	mov    %rax,-0x230(%rbp)
    f4e2:	48 8d 85 f0 f3 ff ff 	lea    -0xc10(%rbp),%rax
    f4e9:	48 83 c0 08          	add    $0x8,%rax
    f4ed:	48 89 85 d8 fd ff ff 	mov    %rax,-0x228(%rbp)
    f4f4:	48 c7 85 e0 fd ff ff 	movq   $0x0,-0x220(%rbp)
    f4fb:	00 00 00 00 
    f4ff:	48 8d 85 f0 f3 ff ff 	lea    -0xc10(%rbp),%rax
    f506:	48 83 c0 18          	add    $0x18,%rax
    f50a:	48 89 85 e8 fd ff ff 	mov    %rax,-0x218(%rbp)
    f511:	48 8d 85 f0 f3 ff ff 	lea    -0xc10(%rbp),%rax
    f518:	48 83 c0 38          	add    $0x38,%rax
    f51c:	48 89 85 f0 fd ff ff 	mov    %rax,-0x210(%rbp)
    f523:	48 8d 85 f0 f3 ff ff 	lea    -0xc10(%rbp),%rax
    f52a:	48 83 c0 28          	add    $0x28,%rax
    f52e:	48 89 85 f8 fd ff ff 	mov    %rax,-0x208(%rbp)
    f535:	48 8d 85 f0 f3 ff ff 	lea    -0xc10(%rbp),%rax
    f53c:	48 83 c0 18          	add    $0x18,%rax
    f540:	48 89 85 00 fe ff ff 	mov    %rax,-0x200(%rbp)
    f547:	48 c7 85 08 fe ff ff 	movq   $0x0,-0x1f8(%rbp)
    f54e:	00 00 00 00 
    f552:	48 8d 85 f0 f3 ff ff 	lea    -0xc10(%rbp),%rax
    f559:	48 83 c0 38          	add    $0x38,%rax
    f55d:	48 89 85 10 fe ff ff 	mov    %rax,-0x1f0(%rbp)
    f564:	48 8d 85 f0 f3 ff ff 	lea    -0xc10(%rbp),%rax
    f56b:	48 83 c0 30          	add    $0x30,%rax
    f56f:	48 89 85 18 fe ff ff 	mov    %rax,-0x1e8(%rbp)
    f576:	48 8d 85 f0 f3 ff ff 	lea    -0xc10(%rbp),%rax
    f57d:	48 83 c0 38          	add    $0x38,%rax
    f581:	48 89 85 20 fe ff ff 	mov    %rax,-0x1e0(%rbp)
    f588:	48 8d 85 f0 f3 ff ff 	lea    -0xc10(%rbp),%rax
    f58f:	48 83 c0 38          	add    $0x38,%rax
    f593:	48 89 85 28 fe ff ff 	mov    %rax,-0x1d8(%rbp)
    f59a:	48 8d 85 f0 f3 ff ff 	lea    -0xc10(%rbp),%rax
    f5a1:	48 83 c0 38          	add    $0x38,%rax
    f5a5:	48 89 85 30 fe ff ff 	mov    %rax,-0x1d0(%rbp)
    f5ac:	48 8d 85 f0 f3 ff ff 	lea    -0xc10(%rbp),%rax
    f5b3:	48 83 c0 08          	add    $0x8,%rax
    f5b7:	48 89 85 38 fe ff ff 	mov    %rax,-0x1c8(%rbp)
    f5be:	48 8d 85 f0 f3 ff ff 	lea    -0xc10(%rbp),%rax
    f5c5:	48 83 c0 38          	add    $0x38,%rax
    f5c9:	48 89 85 40 fe ff ff 	mov    %rax,-0x1c0(%rbp)
    f5d0:	48 8d 85 f0 f3 ff ff 	lea    -0xc10(%rbp),%rax
    f5d7:	48 83 c0 38          	add    $0x38,%rax
    f5db:	48 89 85 48 fe ff ff 	mov    %rax,-0x1b8(%rbp)
    f5e2:	48 8d 85 f0 f3 ff ff 	lea    -0xc10(%rbp),%rax
    f5e9:	48 83 c0 38          	add    $0x38,%rax
    f5ed:	48 89 85 50 fe ff ff 	mov    %rax,-0x1b0(%rbp)
    f5f4:	48 8d 85 f0 f3 ff ff 	lea    -0xc10(%rbp),%rax
    f5fb:	48 83 c0 08          	add    $0x8,%rax
    f5ff:	48 89 85 58 fe ff ff 	mov    %rax,-0x1a8(%rbp)
    f606:	48 8d 85 f0 f3 ff ff 	lea    -0xc10(%rbp),%rax
    f60d:	48 83 c0 18          	add    $0x18,%rax
    f611:	48 89 85 60 fe ff ff 	mov    %rax,-0x1a0(%rbp)
    f618:	48 8d 85 f0 f3 ff ff 	lea    -0xc10(%rbp),%rax
    f61f:	48 83 c0 38          	add    $0x38,%rax
    f623:	48 89 85 68 fe ff ff 	mov    %rax,-0x198(%rbp)
    f62a:	48 8d 85 f0 f3 ff ff 	lea    -0xc10(%rbp),%rax
    f631:	48 83 c0 38          	add    $0x38,%rax
    f635:	48 89 85 70 fe ff ff 	mov    %rax,-0x190(%rbp)
    f63c:	48 8d 85 f0 f3 ff ff 	lea    -0xc10(%rbp),%rax
    f643:	48 83 c0 38          	add    $0x38,%rax
    f647:	48 89 85 78 fe ff ff 	mov    %rax,-0x188(%rbp)
    f64e:	48 8d 85 f0 f3 ff ff 	lea    -0xc10(%rbp),%rax
    f655:	48 83 c0 28          	add    $0x28,%rax
    f659:	48 89 85 80 fe ff ff 	mov    %rax,-0x180(%rbp)
    f660:	48 8d 85 f0 f3 ff ff 	lea    -0xc10(%rbp),%rax
    f667:	48 83 c0 08          	add    $0x8,%rax
    f66b:	48 89 85 88 fe ff ff 	mov    %rax,-0x178(%rbp)
    f672:	48 8d 85 f0 f3 ff ff 	lea    -0xc10(%rbp),%rax
    f679:	48 83 c0 38          	add    $0x38,%rax
    f67d:	48 89 85 90 fe ff ff 	mov    %rax,-0x170(%rbp)
    f684:	48 8d 85 f0 f3 ff ff 	lea    -0xc10(%rbp),%rax
    f68b:	48 83 c0 38          	add    $0x38,%rax
    f68f:	48 89 85 98 fe ff ff 	mov    %rax,-0x168(%rbp)
    f696:	48 8d 85 f0 f3 ff ff 	lea    -0xc10(%rbp),%rax
    f69d:	48 83 c0 38          	add    $0x38,%rax
    f6a1:	48 89 85 a0 fe ff ff 	mov    %rax,-0x160(%rbp)
    f6a8:	48 8d 85 f0 f3 ff ff 	lea    -0xc10(%rbp),%rax
    f6af:	48 83 c0 30          	add    $0x30,%rax
    f6b3:	48 89 85 a8 fe ff ff 	mov    %rax,-0x158(%rbp)
    f6ba:	48 c7 85 b0 fe ff ff 	movq   $0x0,-0x150(%rbp)
    f6c1:	00 00 00 00 
    f6c5:	48 c7 85 b8 fe ff ff 	movq   $0x0,-0x148(%rbp)
    f6cc:	00 00 00 00 
    f6d0:	48 c7 85 c0 fe ff ff 	movq   $0x0,-0x140(%rbp)
    f6d7:	00 00 00 00 
    f6db:	48 8d 85 f0 f3 ff ff 	lea    -0xc10(%rbp),%rax
    f6e2:	48 89 85 c8 fe ff ff 	mov    %rax,-0x138(%rbp)
    f6e9:	48 8d 85 f0 f3 ff ff 	lea    -0xc10(%rbp),%rax
    f6f0:	48 83 c0 38          	add    $0x38,%rax
    f6f4:	48 89 85 d0 fe ff ff 	mov    %rax,-0x130(%rbp)
    f6fb:	48 8d 85 f0 f3 ff ff 	lea    -0xc10(%rbp),%rax
    f702:	48 83 c0 38          	add    $0x38,%rax
    f706:	48 89 85 d8 fe ff ff 	mov    %rax,-0x128(%rbp)
    f70d:	48 8d 85 f0 f3 ff ff 	lea    -0xc10(%rbp),%rax
    f714:	48 83 c0 38          	add    $0x38,%rax
    f718:	48 89 85 e0 fe ff ff 	mov    %rax,-0x120(%rbp)
    f71f:	48 8d 85 f0 f3 ff ff 	lea    -0xc10(%rbp),%rax
    f726:	48 83 c0 38          	add    $0x38,%rax
    f72a:	48 89 85 e8 fe ff ff 	mov    %rax,-0x118(%rbp)
    f731:	48 8d 85 f0 f3 ff ff 	lea    -0xc10(%rbp),%rax
    f738:	48 83 c0 38          	add    $0x38,%rax
    f73c:	48 89 85 f0 fe ff ff 	mov    %rax,-0x110(%rbp)
    f743:	48 8d 85 f0 f3 ff ff 	lea    -0xc10(%rbp),%rax
    f74a:	48 83 c0 38          	add    $0x38,%rax
    f74e:	48 89 85 f8 fe ff ff 	mov    %rax,-0x108(%rbp)
    f755:	48 c7 85 00 ff ff ff 	movq   $0x0,-0x100(%rbp)
    f75c:	00 00 00 00 
    f760:	48 c7 85 08 ff ff ff 	movq   $0x0,-0xf8(%rbp)
    f767:	00 00 00 00 
    f76b:	48 8d 85 f0 f3 ff ff 	lea    -0xc10(%rbp),%rax
    f772:	48 83 c0 38          	add    $0x38,%rax
    f776:	48 89 85 10 ff ff ff 	mov    %rax,-0xf0(%rbp)
    f77d:	48 8d 85 f0 f3 ff ff 	lea    -0xc10(%rbp),%rax
    f784:	48 83 c0 38          	add    $0x38,%rax
    f788:	48 89 85 18 ff ff ff 	mov    %rax,-0xe8(%rbp)
    f78f:	48 8d 85 f0 f3 ff ff 	lea    -0xc10(%rbp),%rax
    f796:	48 83 c0 30          	add    $0x30,%rax
    f79a:	48 89 85 20 ff ff ff 	mov    %rax,-0xe0(%rbp)
    f7a1:	48 8d 85 f0 f3 ff ff 	lea    -0xc10(%rbp),%rax
    f7a8:	48 83 c0 30          	add    $0x30,%rax
    f7ac:	48 89 85 28 ff ff ff 	mov    %rax,-0xd8(%rbp)
    f7b3:	48 8d 85 f0 f3 ff ff 	lea    -0xc10(%rbp),%rax
    f7ba:	48 83 c0 38          	add    $0x38,%rax
    f7be:	48 89 85 30 ff ff ff 	mov    %rax,-0xd0(%rbp)
    f7c5:	48 c7 85 38 ff ff ff 	movq   $0x0,-0xc8(%rbp)
    f7cc:	00 00 00 00 
    f7d0:	48 8d 85 f0 f3 ff ff 	lea    -0xc10(%rbp),%rax
    f7d7:	48 83 c0 30          	add    $0x30,%rax
    f7db:	48 89 85 40 ff ff ff 	mov    %rax,-0xc0(%rbp)
    f7e2:	48 8d 85 f0 f3 ff ff 	lea    -0xc10(%rbp),%rax
    f7e9:	48 83 c0 38          	add    $0x38,%rax
    f7ed:	48 89 85 48 ff ff ff 	mov    %rax,-0xb8(%rbp)
    f7f4:	48 8d 85 f0 f3 ff ff 	lea    -0xc10(%rbp),%rax
    f7fb:	48 83 c0 38          	add    $0x38,%rax
    f7ff:	48 89 85 50 ff ff ff 	mov    %rax,-0xb0(%rbp)
    f806:	48 8d 85 f0 f3 ff ff 	lea    -0xc10(%rbp),%rax
    f80d:	48 83 c0 38          	add    $0x38,%rax
    f811:	48 89 85 58 ff ff ff 	mov    %rax,-0xa8(%rbp)
    f818:	48 8d 85 f0 f3 ff ff 	lea    -0xc10(%rbp),%rax
    f81f:	48 83 c0 08          	add    $0x8,%rax
    f823:	48 89 85 60 ff ff ff 	mov    %rax,-0xa0(%rbp)
    f82a:	48 8d 85 f0 f3 ff ff 	lea    -0xc10(%rbp),%rax
    f831:	48 89 85 68 ff ff ff 	mov    %rax,-0x98(%rbp)
    f838:	48 8d 85 f0 f3 ff ff 	lea    -0xc10(%rbp),%rax
    f83f:	48 83 c0 38          	add    $0x38,%rax
    f843:	48 89 85 70 ff ff ff 	mov    %rax,-0x90(%rbp)
    f84a:	48 8d 85 f0 f3 ff ff 	lea    -0xc10(%rbp),%rax
    f851:	48 83 c0 38          	add    $0x38,%rax
    f855:	48 89 85 78 ff ff ff 	mov    %rax,-0x88(%rbp)
    f85c:	48 8d 85 f0 f3 ff ff 	lea    -0xc10(%rbp),%rax
    f863:	48 83 c0 38          	add    $0x38,%rax
    f867:	48 89 45 80          	mov    %rax,-0x80(%rbp)
    f86b:	48 8d 85 f0 f3 ff ff 	lea    -0xc10(%rbp),%rax
    f872:	48 83 c0 08          	add    $0x8,%rax
    f876:	48 89 45 88          	mov    %rax,-0x78(%rbp)
    f87a:	48 8d 85 f0 f3 ff ff 	lea    -0xc10(%rbp),%rax
    f881:	48 83 c0 38          	add    $0x38,%rax
    f885:	48 89 45 90          	mov    %rax,-0x70(%rbp)
    f889:	48 8d 85 f0 f3 ff ff 	lea    -0xc10(%rbp),%rax
    f890:	48 83 c0 28          	add    $0x28,%rax
    f894:	48 89 45 98          	mov    %rax,-0x68(%rbp)
    f898:	48 8d 85 f0 f3 ff ff 	lea    -0xc10(%rbp),%rax
    f89f:	48 83 c0 08          	add    $0x8,%rax
    f8a3:	48 89 45 a0          	mov    %rax,-0x60(%rbp)
    f8a7:	48 8d 85 f0 f3 ff ff 	lea    -0xc10(%rbp),%rax
    f8ae:	48 83 c0 38          	add    $0x38,%rax
    f8b2:	48 89 45 a8          	mov    %rax,-0x58(%rbp)
    f8b6:	48 8d 85 f0 f3 ff ff 	lea    -0xc10(%rbp),%rax
    f8bd:	48 83 c0 30          	add    $0x30,%rax
    f8c1:	48 89 45 b0          	mov    %rax,-0x50(%rbp)
    f8c5:	48 c7 45 b8 00 00 00 	movq   $0x0,-0x48(%rbp)
    f8cc:	00 
    f8cd:	c6 85 d7 f0 ff ff 00 	movb   $0x0,-0xf29(%rbp)
    f8d4:	48 8d 85 b8 f2 ff ff 	lea    -0xd48(%rbp),%rax
    f8db:	48 89 85 28 f2 ff ff 	mov    %rax,-0xdd8(%rbp)
    f8e2:	c7 85 3c f1 ff ff 07 	movl   $0x7,-0xec4(%rbp)
    f8e9:	00 00 00 
    f8ec:	c6 85 d8 f0 ff ff 00 	movb   $0x0,-0xf28(%rbp)
    f8f3:	66 c7 85 e6 f0 ff ff 	movw   $0xfff8,-0xf1a(%rbp)
    f8fa:	f8 ff 
    f8fc:	48 c7 85 30 f2 ff ff 	movq   $0x0,-0xdd0(%rbp)
    f903:	00 00 00 00 
    f907:	c7 85 fc f0 ff ff 00 	movl   $0x0,-0xf04(%rbp)
    f90e:	00 00 00 
    f911:	eb 1b                	jmp    f92e <func_97+0x1524>
    f913:	8b 85 fc f0 ff ff    	mov    -0xf04(%rbp),%eax
    f919:	48 98                	cltq   
    f91b:	48 c7 84 c5 f0 f2 ff 	movq   $0x0,-0xd10(%rbp,%rax,8)
    f922:	ff 00 00 00 00 
    f927:	83 85 fc f0 ff ff 01 	addl   $0x1,-0xf04(%rbp)
    f92e:	83 bd fc f0 ff ff 02 	cmpl   $0x2,-0xf04(%rbp)
    f935:	7e dc                	jle    f913 <func_97+0x1509>
    f937:	c7 85 fc f0 ff ff 00 	movl   $0x0,-0xf04(%rbp)
    f93e:	00 00 00 
    f941:	eb 1e                	jmp    f961 <func_97+0x1557>
    f943:	8b 85 fc f0 ff ff    	mov    -0xf04(%rbp),%eax
    f949:	48 98                	cltq   
    f94b:	48 8d 15 28 cc 00 00 	lea    0xcc28(%rip),%rdx        # 1c57a <g_495+0xba>
    f952:	48 89 94 c5 c0 f2 ff 	mov    %rdx,-0xd40(%rbp,%rax,8)
    f959:	ff 
    f95a:	83 85 fc f0 ff ff 01 	addl   $0x1,-0xf04(%rbp)
    f961:	83 bd fc f0 ff ff 01 	cmpl   $0x1,-0xf04(%rbp)
    f968:	7e d9                	jle    f943 <func_97+0x1539>
    f96a:	c7 85 fc f0 ff ff 00 	movl   $0x0,-0xf04(%rbp)
    f971:	00 00 00 
    f974:	eb 1a                	jmp    f990 <func_97+0x1586>
    f976:	8b 85 fc f0 ff ff    	mov    -0xf04(%rbp),%eax
    f97c:	48 98                	cltq   
    f97e:	c7 84 85 30 f3 ff ff 	movl   $0x4aa2df4a,-0xcd0(%rbp,%rax,4)
    f985:	4a df a2 4a 
    f989:	83 85 fc f0 ff ff 01 	addl   $0x1,-0xf04(%rbp)
    f990:	83 bd fc f0 ff ff 06 	cmpl   $0x6,-0xf04(%rbp)
    f997:	7e dd                	jle    f976 <func_97+0x156c>
    f999:	c7 05 a9 c6 00 00 02 	movl   $0x2,0xc6a9(%rip)        # 1c04c <g_116>
    f9a0:	00 00 00 
    f9a3:	e9 0e 04 00 00       	jmpq   fdb6 <func_97+0x19ac>
    f9a8:	48 b8 3d 65 90 5b 46 	movabs $0x5c861f465b90653d,%rax
    f9af:	1f 86 5c 
    f9b2:	48 89 85 38 f2 ff ff 	mov    %rax,-0xdc8(%rbp)
    f9b9:	48 8d 05 c8 c6 00 00 	lea    0xc6c8(%rip),%rax        # 1c088 <g_200>
    f9c0:	48 89 85 40 f2 ff ff 	mov    %rax,-0xdc0(%rbp)
    f9c7:	48 c7 85 48 f2 ff ff 	movq   $0x0,-0xdb8(%rbp)
    f9ce:	00 00 00 00 
    f9d2:	0f b6 85 00 f5 ff ff 	movzbl -0xb00(%rbp),%eax
    f9d9:	83 e0 c0             	and    $0xffffffc0,%eax
    f9dc:	83 c8 07             	or     $0x7,%eax
    f9df:	88 85 00 f5 ff ff    	mov    %al,-0xb00(%rbp)
    f9e5:	0f b7 85 00 f5 ff ff 	movzwl -0xb00(%rbp),%eax
    f9ec:	66 25 3f f0          	and    $0xf03f,%ax
    f9f0:	66 0d 80 01          	or     $0x180,%ax
    f9f4:	66 89 85 00 f5 ff ff 	mov    %ax,-0xb00(%rbp)
    f9fb:	0f b6 85 04 f5 ff ff 	movzbl -0xafc(%rbp),%eax
    fa02:	83 e0 c0             	and    $0xffffffc0,%eax
    fa05:	83 c8 07             	or     $0x7,%eax
    fa08:	88 85 04 f5 ff ff    	mov    %al,-0xafc(%rbp)
    fa0e:	0f b7 85 04 f5 ff ff 	movzwl -0xafc(%rbp),%eax
    fa15:	66 25 3f f0          	and    $0xf03f,%ax
    fa19:	66 0d 80 01          	or     $0x180,%ax
    fa1d:	66 89 85 04 f5 ff ff 	mov    %ax,-0xafc(%rbp)
    fa24:	0f b6 85 08 f5 ff ff 	movzbl -0xaf8(%rbp),%eax
    fa2b:	83 e0 c0             	and    $0xffffffc0,%eax
    fa2e:	83 c8 07             	or     $0x7,%eax
    fa31:	88 85 08 f5 ff ff    	mov    %al,-0xaf8(%rbp)
    fa37:	0f b7 85 08 f5 ff ff 	movzwl -0xaf8(%rbp),%eax
    fa3e:	66 25 3f f0          	and    $0xf03f,%ax
    fa42:	66 0d 80 01          	or     $0x180,%ax
    fa46:	66 89 85 08 f5 ff ff 	mov    %ax,-0xaf8(%rbp)
    fa4d:	0f b6 85 0c f5 ff ff 	movzbl -0xaf4(%rbp),%eax
    fa54:	83 e0 c0             	and    $0xffffffc0,%eax
    fa57:	83 c8 07             	or     $0x7,%eax
    fa5a:	88 85 0c f5 ff ff    	mov    %al,-0xaf4(%rbp)
    fa60:	0f b7 85 0c f5 ff ff 	movzwl -0xaf4(%rbp),%eax
    fa67:	66 25 3f f0          	and    $0xf03f,%ax
    fa6b:	66 0d 80 01          	or     $0x180,%ax
    fa6f:	66 89 85 0c f5 ff ff 	mov    %ax,-0xaf4(%rbp)
    fa76:	c7 85 00 f1 ff ff 00 	movl   $0x0,-0xf00(%rbp)
    fa7d:	00 00 00 
    fa80:	eb 1e                	jmp    faa0 <func_97+0x1696>
    fa82:	8b 85 00 f1 ff ff    	mov    -0xf00(%rbp),%eax
    fa88:	48 98                	cltq   
    fa8a:	48 8d 15 eb c5 00 00 	lea    0xc5eb(%rip),%rdx        # 1c07c <g_156>
    fa91:	48 89 94 c5 30 f4 ff 	mov    %rdx,-0xbd0(%rbp,%rax,8)
    fa98:	ff 
    fa99:	83 85 00 f1 ff ff 01 	addl   $0x1,-0xf00(%rbp)
    faa0:	83 bd 00 f1 ff ff 00 	cmpl   $0x0,-0xf00(%rbp)
    faa7:	7e d9                	jle    fa82 <func_97+0x1678>
    faa9:	66 83 bd de f0 ff ff 	cmpw   $0x0,-0xf22(%rbp)
    fab0:	00 
    fab1:	0f 85 10 03 00 00    	jne    fdc7 <func_97+0x19bd>
    fab7:	48 83 bd 98 f1 ff ff 	cmpq   $0x0,-0xe68(%rbp)
    fabe:	00 
    fabf:	0f 95 c0             	setne  %al
    fac2:	44 0f b6 f0          	movzbl %al,%r14d
    fac6:	0f b7 85 bc f0 ff ff 	movzwl -0xf44(%rbp),%eax
    facd:	0f b6 d8             	movzbl %al,%ebx
    fad0:	48 8b 85 38 f2 ff ff 	mov    -0xdc8(%rbp),%rax
    fad7:	44 0f bf e0          	movswl %ax,%r12d
    fadb:	0f b7 05 b0 c9 00 00 	movzwl 0xc9b0(%rip),%eax        # 1c492 <g_442>
    fae2:	98                   	cwtl   
    fae3:	89 c6                	mov    %eax,%esi
    fae5:	bf ff ff ff ff       	mov    $0xffffffff,%edi
    faea:	e8 c4 68 ff ff       	callq  63b3 <safe_add_func_int16_t_s_s>
    faef:	48 0f bf d0          	movswq %ax,%rdx
    faf3:	48 8b 05 8e 15 01 00 	mov    0x1158e(%rip),%rax        # 21088 <g_243>
    fafa:	48 8b 00             	mov    (%rax),%rax
    fafd:	48 31 c2             	xor    %rax,%rdx
    fb00:	49 89 d5             	mov    %rdx,%r13
    fb03:	0f b7 85 de f0 ff ff 	movzwl -0xf22(%rbp),%eax
    fb0a:	be 72 02 00 00       	mov    $0x272,%esi
    fb0f:	89 c7                	mov    %eax,%edi
    fb11:	e8 27 72 ff ff       	callq  6d3d <safe_mul_func_uint16_t_u_u>
    fb16:	0f b7 c0             	movzwl %ax,%eax
    fb19:	4c 89 ee             	mov    %r13,%rsi
    fb1c:	48 89 c7             	mov    %rax,%rdi
    fb1f:	e8 84 6d ff ff       	callq  68a8 <safe_sub_func_int64_t_s_s>
    fb24:	98                   	cwtl   
    fb25:	44 89 e6             	mov    %r12d,%esi
    fb28:	89 c7                	mov    %eax,%edi
    fb2a:	e8 c6 68 ff ff       	callq  63f5 <safe_mul_func_int16_t_s_s>
    fb2f:	0f b6 c0             	movzbl %al,%eax
    fb32:	be 07 00 00 00       	mov    $0x7,%esi
    fb37:	89 c7                	mov    %eax,%edi
    fb39:	e8 0e 71 ff ff       	callq  6c4c <safe_lshift_func_uint8_t_u_u>
    fb3e:	0f b6 d0             	movzbl %al,%edx
    fb41:	48 8b 05 48 c5 00 00 	mov    0xc548(%rip),%rax        # 1c090 <g_244>
    fb48:	48 39 c2             	cmp    %rax,%rdx
    fb4b:	0f 9f c0             	setg   %al
    fb4e:	0f b6 c0             	movzbl %al,%eax
    fb51:	89 de                	mov    %ebx,%esi
    fb53:	89 c7                	mov    %eax,%edi
    fb55:	e8 00 70 ff ff       	callq  6b5a <safe_add_func_uint8_t_u_u>
    fb5a:	0f b6 c0             	movzbl %al,%eax
    fb5d:	48 f7 d0             	not    %rax
    fb60:	49 39 c6             	cmp    %rax,%r14
    fb63:	0f 9c c0             	setl   %al
    fb66:	0f b6 c8             	movzbl %al,%ecx
    fb69:	0f b7 05 22 c9 00 00 	movzwl 0xc922(%rip),%eax        # 1c492 <g_442>
    fb70:	98                   	cwtl   
    fb71:	48 98                	cltq   
    fb73:	48 8d 14 85 00 00 00 	lea    0x0(,%rax,4),%rdx
    fb7a:	00 
    fb7b:	48 8d 05 ae c4 00 00 	lea    0xc4ae(%rip),%rax        # 1c030 <g_57>
    fb82:	8b 14 02             	mov    (%rdx,%rax,1),%edx
    fb85:	0f b7 05 06 c9 00 00 	movzwl 0xc906(%rip),%eax        # 1c492 <g_442>
    fb8c:	98                   	cwtl   
    fb8d:	21 d1                	and    %edx,%ecx
    fb8f:	48 98                	cltq   
    fb91:	48 8d 14 85 00 00 00 	lea    0x0(,%rax,4),%rdx
    fb98:	00 
    fb99:	48 8d 05 90 c4 00 00 	lea    0xc490(%rip),%rax        # 1c030 <g_57>
    fba0:	89 0c 02             	mov    %ecx,(%rdx,%rax,1)
    fba3:	0f b7 05 7c c4 00 00 	movzwl 0xc47c(%rip),%eax        # 1c026 <g_23>
    fbaa:	0f be d8             	movsbl %al,%ebx
    fbad:	48 8b 85 c8 f0 ff ff 	mov    -0xf38(%rbp),%rax
    fbb4:	8b 00                	mov    (%rax),%eax
    fbb6:	41 89 c7             	mov    %eax,%r15d
    fbb9:	0f b7 85 bc f0 ff ff 	movzwl -0xf44(%rbp),%eax
    fbc0:	44 0f be e0          	movsbl %al,%r12d
    fbc4:	8b 05 e2 c8 00 00    	mov    0xc8e2(%rip),%eax        # 1c4ac <g_448+0xc>
    fbca:	c1 e8 0a             	shr    $0xa,%eax
    fbcd:	89 c2                	mov    %eax,%edx
    fbcf:	0f b6 05 da c8 00 00 	movzbl 0xc8da(%rip),%eax        # 1c4b0 <g_448+0x10>
    fbd6:	48 c1 e0 16          	shl    $0x16,%rax
    fbda:	48 09 d0             	or     %rdx,%rax
    fbdd:	44 0f b6 e8          	movzbl %al,%r13d
    fbe1:	0f b6 05 bf c8 00 00 	movzbl 0xc8bf(%rip),%eax        # 1c4a7 <g_448+0x7>
    fbe8:	c0 e8 03             	shr    $0x3,%al
    fbeb:	0f b6 c0             	movzbl %al,%eax
    fbee:	0f b6 15 b3 c8 00 00 	movzbl 0xc8b3(%rip),%edx        # 1c4a8 <g_448+0x8>
    fbf5:	83 e2 07             	and    $0x7,%edx
    fbf8:	48 c1 e2 05          	shl    $0x5,%rdx
    fbfc:	48 09 d0             	or     %rdx,%rax
    fbff:	44 0f b6 f0          	movzbl %al,%r14d
    fc03:	48 8b 05 7e 14 01 00 	mov    0x1147e(%rip),%rax        # 21088 <g_243>
    fc0a:	48 8b 00             	mov    (%rax),%rax
    fc0d:	f7 d0                	not    %eax
    fc0f:	89 c6                	mov    %eax,%esi
    fc11:	bf a6 f5 c3 cc       	mov    $0xccc3f5a6,%edi
    fc16:	e8 ea 69 ff ff       	callq  6605 <safe_sub_func_int32_t_s_s>
    fc1b:	be 06 00 00 00       	mov    $0x6,%esi
    fc20:	bf 00 00 00 00       	mov    $0x0,%edi
    fc25:	e8 63 70 ff ff       	callq  6c8d <safe_rshift_func_uint8_t_u_s>
    fc2a:	66 83 bd de f0 ff ff 	cmpw   $0x0,-0xf22(%rbp)
    fc31:	00 
    fc32:	0f 94 c0             	sete   %al
    fc35:	0f b6 c0             	movzbl %al,%eax
    fc38:	44 89 f6             	mov    %r14d,%esi
    fc3b:	89 c7                	mov    %eax,%edi
    fc3d:	e8 fb 70 ff ff       	callq  6d3d <safe_mul_func_uint16_t_u_u>
    fc42:	66 85 c0             	test   %ax,%ax
    fc45:	74 14                	je     fc5b <func_97+0x1851>
    fc47:	48 8b 85 c8 f0 ff ff 	mov    -0xf38(%rbp),%rax
    fc4e:	8b 00                	mov    (%rax),%eax
    fc50:	85 c0                	test   %eax,%eax
    fc52:	74 07                	je     fc5b <func_97+0x1851>
    fc54:	ba 01 00 00 00       	mov    $0x1,%edx
    fc59:	eb 05                	jmp    fc60 <func_97+0x1856>
    fc5b:	ba 00 00 00 00       	mov    $0x0,%edx
    fc60:	0f b7 85 bc f0 ff ff 	movzwl -0xf44(%rbp),%eax
    fc67:	39 c2                	cmp    %eax,%edx
    fc69:	0f 9e c0             	setle  %al
    fc6c:	0f b6 c0             	movzbl %al,%eax
    fc6f:	be 03 00 00 00       	mov    $0x3,%esi
    fc74:	89 c7                	mov    %eax,%edi
    fc76:	e8 26 66 ff ff       	callq  62a1 <safe_lshift_func_int8_t_s_s>
    fc7b:	0f be d0             	movsbl %al,%edx
    fc7e:	0f b7 85 bc f0 ff ff 	movzwl -0xf44(%rbp),%eax
    fc85:	39 c2                	cmp    %eax,%edx
    fc87:	0f 95 c0             	setne  %al
    fc8a:	0f b6 c8             	movzbl %al,%ecx
    fc8d:	48 8b 85 40 f2 ff ff 	mov    -0xdc0(%rbp),%rax
    fc94:	48 8b 10             	mov    (%rax),%rdx
    fc97:	48 63 c1             	movslq %ecx,%rax
    fc9a:	48 31 c2             	xor    %rax,%rdx
    fc9d:	48 8b 85 40 f2 ff ff 	mov    -0xdc0(%rbp),%rax
    fca4:	48 89 10             	mov    %rdx,(%rax)
    fca7:	48 8b 85 40 f2 ff ff 	mov    -0xdc0(%rbp),%rax
    fcae:	48 8b 10             	mov    (%rax),%rdx
    fcb1:	0f b7 85 de f0 ff ff 	movzwl -0xf22(%rbp),%eax
    fcb8:	48 39 c2             	cmp    %rax,%rdx
    fcbb:	0f 95 c0             	setne  %al
    fcbe:	0f b6 d0             	movzbl %al,%edx
    fcc1:	48 8b 05 c8 21 01 00 	mov    0x121c8(%rip),%rax        # 21e90 <g_337>
    fcc8:	48 39 c2             	cmp    %rax,%rdx
    fccb:	0f 9c c0             	setl   %al
    fcce:	0f b6 d0             	movzbl %al,%edx
    fcd1:	0f b7 85 bc f0 ff ff 	movzwl -0xf44(%rbp),%eax
    fcd8:	39 c2                	cmp    %eax,%edx
    fcda:	0f 9c c0             	setl   %al
    fcdd:	0f b6 d0             	movzbl %al,%edx
    fce0:	0f b6 05 ca c7 00 00 	movzbl 0xc7ca(%rip),%eax        # 1c4b1 <g_448+0x11>
    fce7:	c1 e0 04             	shl    $0x4,%eax
    fcea:	c0 f8 04             	sar    $0x4,%al
    fced:	0f be c0             	movsbl %al,%eax
    fcf0:	39 c2                	cmp    %eax,%edx
    fcf2:	0f 9e c0             	setle  %al
    fcf5:	0f b6 d0             	movzbl %al,%edx
    fcf8:	48 8b 85 c8 f0 ff ff 	mov    -0xf38(%rbp),%rax
    fcff:	8b 00                	mov    (%rax),%eax
    fd01:	39 c2                	cmp    %eax,%edx
    fd03:	0f 9e c0             	setle  %al
    fd06:	0f b6 c8             	movzbl %al,%ecx
    fd09:	48 8b 85 c8 f0 ff ff 	mov    -0xf38(%rbp),%rax
    fd10:	8b 10                	mov    (%rax),%edx
    fd12:	0f b7 05 79 c7 00 00 	movzwl 0xc779(%rip),%eax        # 1c492 <g_442>
    fd19:	98                   	cwtl   
    fd1a:	09 d1                	or     %edx,%ecx
    fd1c:	89 ce                	mov    %ecx,%esi
    fd1e:	48 63 d0             	movslq %eax,%rdx
    fd21:	48 8d 0c 95 00 00 00 	lea    0x0(,%rdx,4),%rcx
    fd28:	00 
    fd29:	48 8d 15 00 c3 00 00 	lea    0xc300(%rip),%rdx        # 1c030 <g_57>
    fd30:	89 34 11             	mov    %esi,(%rcx,%rdx,1)
    fd33:	48 98                	cltq   
    fd35:	48 8d 14 85 00 00 00 	lea    0x0(,%rax,4),%rdx
    fd3c:	00 
    fd3d:	48 8d 05 ec c2 00 00 	lea    0xc2ec(%rip),%rax        # 1c030 <g_57>
    fd44:	8b 04 02             	mov    (%rdx,%rax,1),%eax
    fd47:	89 c2                	mov    %eax,%edx
    fd49:	0f b7 85 bc f0 ff ff 	movzwl -0xf44(%rbp),%eax
    fd50:	31 d0                	xor    %edx,%eax
    fd52:	0f b6 c0             	movzbl %al,%eax
    fd55:	44 89 ee             	mov    %r13d,%esi
    fd58:	89 c7                	mov    %eax,%edi
    fd5a:	e8 fb 6d ff ff       	callq  6b5a <safe_add_func_uint8_t_u_u>
    fd5f:	44 89 e6             	mov    %r12d,%esi
    fd62:	bf 01 00 00 00       	mov    $0x1,%edi
    fd67:	e8 a6 64 ff ff       	callq  6212 <safe_mul_func_int8_t_s_s>
    fd6c:	0f be c0             	movsbl %al,%eax
    fd6f:	44 89 fe             	mov    %r15d,%esi
    fd72:	89 c7                	mov    %eax,%edi
    fd74:	e8 ac 71 ff ff       	callq  6f25 <safe_div_func_uint32_t_u_u>
    fd79:	0f b6 d0             	movzbl %al,%edx
    fd7c:	0f b7 85 de f0 ff ff 	movzwl -0xf22(%rbp),%eax
    fd83:	0f b6 c0             	movzbl %al,%eax
    fd86:	89 d6                	mov    %edx,%esi
    fd88:	89 c7                	mov    %eax,%edi
    fd8a:	e8 04 6e ff ff       	callq  6b93 <safe_mul_func_uint8_t_u_u>
    fd8f:	0f be c0             	movsbl %al,%eax
    fd92:	89 de                	mov    %ebx,%esi
    fd94:	89 c7                	mov    %eax,%edi
    fd96:	e8 77 64 ff ff       	callq  6212 <safe_mul_func_int8_t_s_s>
    fd9b:	8b 85 ec f0 ff ff    	mov    -0xf14(%rbp),%eax
    fda1:	89 85 0c f5 ff ff    	mov    %eax,-0xaf4(%rbp)
    fda7:	8b 05 9f c2 00 00    	mov    0xc29f(%rip),%eax        # 1c04c <g_116>
    fdad:	83 c0 01             	add    $0x1,%eax
    fdb0:	89 05 96 c2 00 00    	mov    %eax,0xc296(%rip)        # 1c04c <g_116>
    fdb6:	8b 05 90 c2 00 00    	mov    0xc290(%rip),%eax        # 1c04c <g_116>
    fdbc:	83 f8 06             	cmp    $0x6,%eax
    fdbf:	0f 86 e3 fb ff ff    	jbe    f9a8 <func_97+0x159e>
    fdc5:	eb 01                	jmp    fdc8 <func_97+0x19be>
    fdc7:	90                   	nop
    fdc8:	48 c7 05 ad c2 00 00 	movq   $0x1b,0xc2ad(%rip)        # 1c080 <g_176>
    fdcf:	1b 00 00 00 
    fdd3:	e9 1b 08 00 00       	jmpq   105f3 <func_97+0x21e9>
    fdd8:	48 c7 85 00 f5 ff ff 	movq   $0x0,-0xb00(%rbp)
    fddf:	00 00 00 00 
    fde3:	48 8d 85 80 f3 ff ff 	lea    -0xc80(%rbp),%rax
    fdea:	48 83 c0 18          	add    $0x18,%rax
    fdee:	48 89 85 08 f5 ff ff 	mov    %rax,-0xaf8(%rbp)
    fdf5:	48 c7 85 10 f5 ff ff 	movq   $0x0,-0xaf0(%rbp)
    fdfc:	00 00 00 00 
    fe00:	48 8d 85 80 f3 ff ff 	lea    -0xc80(%rbp),%rax
    fe07:	48 83 c0 18          	add    $0x18,%rax
    fe0b:	48 89 85 18 f5 ff ff 	mov    %rax,-0xae8(%rbp)
    fe12:	48 c7 85 20 f5 ff ff 	movq   $0x0,-0xae0(%rbp)
    fe19:	00 00 00 00 
    fe1d:	48 c7 85 28 f5 ff ff 	movq   $0x0,-0xad8(%rbp)
    fe24:	00 00 00 00 
    fe28:	48 8d 85 80 f3 ff ff 	lea    -0xc80(%rbp),%rax
    fe2f:	48 83 c0 18          	add    $0x18,%rax
    fe33:	48 89 85 30 f5 ff ff 	mov    %rax,-0xad0(%rbp)
    fe3a:	48 c7 85 38 f5 ff ff 	movq   $0x0,-0xac8(%rbp)
    fe41:	00 00 00 00 
    fe45:	48 c7 85 40 f5 ff ff 	movq   $0x0,-0xac0(%rbp)
    fe4c:	00 00 00 00 
    fe50:	48 8d 85 80 f3 ff ff 	lea    -0xc80(%rbp),%rax
    fe57:	48 83 c0 18          	add    $0x18,%rax
    fe5b:	48 89 85 48 f5 ff ff 	mov    %rax,-0xab8(%rbp)
    fe62:	48 8d 85 80 f3 ff ff 	lea    -0xc80(%rbp),%rax
    fe69:	48 83 c0 18          	add    $0x18,%rax
    fe6d:	48 89 85 50 f5 ff ff 	mov    %rax,-0xab0(%rbp)
    fe74:	48 c7 85 58 f5 ff ff 	movq   $0x0,-0xaa8(%rbp)
    fe7b:	00 00 00 00 
    fe7f:	48 8d 85 80 f3 ff ff 	lea    -0xc80(%rbp),%rax
    fe86:	48 83 c0 18          	add    $0x18,%rax
    fe8a:	48 89 85 60 f5 ff ff 	mov    %rax,-0xaa0(%rbp)
    fe91:	48 8d 85 80 f3 ff ff 	lea    -0xc80(%rbp),%rax
    fe98:	48 83 c0 18          	add    $0x18,%rax
    fe9c:	48 89 85 68 f5 ff ff 	mov    %rax,-0xa98(%rbp)
    fea3:	48 c7 85 70 f5 ff ff 	movq   $0x0,-0xa90(%rbp)
    feaa:	00 00 00 00 
    feae:	48 c7 85 78 f5 ff ff 	movq   $0x0,-0xa88(%rbp)
    feb5:	00 00 00 00 
    feb9:	48 8d 85 80 f3 ff ff 	lea    -0xc80(%rbp),%rax
    fec0:	48 83 c0 18          	add    $0x18,%rax
    fec4:	48 89 85 80 f5 ff ff 	mov    %rax,-0xa80(%rbp)
    fecb:	48 c7 85 88 f5 ff ff 	movq   $0x0,-0xa78(%rbp)
    fed2:	00 00 00 00 
    fed6:	48 c7 85 90 f5 ff ff 	movq   $0x0,-0xa70(%rbp)
    fedd:	00 00 00 00 
    fee1:	48 8d 85 80 f3 ff ff 	lea    -0xc80(%rbp),%rax
    fee8:	48 83 c0 18          	add    $0x18,%rax
    feec:	48 89 85 98 f5 ff ff 	mov    %rax,-0xa68(%rbp)
    fef3:	48 c7 85 a0 f5 ff ff 	movq   $0x0,-0xa60(%rbp)
    fefa:	00 00 00 00 
    fefe:	48 8d 85 80 f3 ff ff 	lea    -0xc80(%rbp),%rax
    ff05:	48 83 c0 18          	add    $0x18,%rax
    ff09:	48 89 85 a8 f5 ff ff 	mov    %rax,-0xa58(%rbp)
    ff10:	48 c7 85 b0 f5 ff ff 	movq   $0x0,-0xa50(%rbp)
    ff17:	00 00 00 00 
    ff1b:	48 c7 85 b8 f5 ff ff 	movq   $0x0,-0xa48(%rbp)
    ff22:	00 00 00 00 
    ff26:	48 8d 85 80 f3 ff ff 	lea    -0xc80(%rbp),%rax
    ff2d:	48 83 c0 18          	add    $0x18,%rax
    ff31:	48 89 85 c0 f5 ff ff 	mov    %rax,-0xa40(%rbp)
    ff38:	48 c7 85 c8 f5 ff ff 	movq   $0x0,-0xa38(%rbp)
    ff3f:	00 00 00 00 
    ff43:	48 c7 85 d0 f5 ff ff 	movq   $0x0,-0xa30(%rbp)
    ff4a:	00 00 00 00 
    ff4e:	48 8d 85 80 f3 ff ff 	lea    -0xc80(%rbp),%rax
    ff55:	48 83 c0 18          	add    $0x18,%rax
    ff59:	48 89 85 d8 f5 ff ff 	mov    %rax,-0xa28(%rbp)
    ff60:	48 8d 85 80 f3 ff ff 	lea    -0xc80(%rbp),%rax
    ff67:	48 83 c0 18          	add    $0x18,%rax
    ff6b:	48 89 85 e0 f5 ff ff 	mov    %rax,-0xa20(%rbp)
    ff72:	48 c7 85 e8 f5 ff ff 	movq   $0x0,-0xa18(%rbp)
    ff79:	00 00 00 00 
    ff7d:	48 8d 85 80 f3 ff ff 	lea    -0xc80(%rbp),%rax
    ff84:	48 83 c0 18          	add    $0x18,%rax
    ff88:	48 89 85 f0 f5 ff ff 	mov    %rax,-0xa10(%rbp)
    ff8f:	48 8d 85 80 f3 ff ff 	lea    -0xc80(%rbp),%rax
    ff96:	48 83 c0 18          	add    $0x18,%rax
    ff9a:	48 89 85 f8 f5 ff ff 	mov    %rax,-0xa08(%rbp)
    ffa1:	48 c7 85 00 f6 ff ff 	movq   $0x0,-0xa00(%rbp)
    ffa8:	00 00 00 00 
    ffac:	48 c7 85 08 f6 ff ff 	movq   $0x0,-0x9f8(%rbp)
    ffb3:	00 00 00 00 
    ffb7:	48 8d 85 80 f3 ff ff 	lea    -0xc80(%rbp),%rax
    ffbe:	48 83 c0 18          	add    $0x18,%rax
    ffc2:	48 89 85 10 f6 ff ff 	mov    %rax,-0x9f0(%rbp)
    ffc9:	48 c7 85 18 f6 ff ff 	movq   $0x0,-0x9e8(%rbp)
    ffd0:	00 00 00 00 
    ffd4:	48 c7 85 20 f6 ff ff 	movq   $0x0,-0x9e0(%rbp)
    ffdb:	00 00 00 00 
    ffdf:	48 8d 85 80 f3 ff ff 	lea    -0xc80(%rbp),%rax
    ffe6:	48 83 c0 18          	add    $0x18,%rax
    ffea:	48 89 85 28 f6 ff ff 	mov    %rax,-0x9d8(%rbp)
    fff1:	48 c7 85 30 f6 ff ff 	movq   $0x0,-0x9d0(%rbp)
    fff8:	00 00 00 00 
    fffc:	48 8d 85 80 f3 ff ff 	lea    -0xc80(%rbp),%rax
   10003:	48 83 c0 18          	add    $0x18,%rax
   10007:	48 89 85 38 f6 ff ff 	mov    %rax,-0x9c8(%rbp)
   1000e:	48 c7 85 40 f6 ff ff 	movq   $0x0,-0x9c0(%rbp)
   10015:	00 00 00 00 
   10019:	48 c7 85 48 f6 ff ff 	movq   $0x0,-0x9b8(%rbp)
   10020:	00 00 00 00 
   10024:	48 8d 85 80 f3 ff ff 	lea    -0xc80(%rbp),%rax
   1002b:	48 83 c0 18          	add    $0x18,%rax
   1002f:	48 89 85 50 f6 ff ff 	mov    %rax,-0x9b0(%rbp)
   10036:	48 c7 85 58 f6 ff ff 	movq   $0x0,-0x9a8(%rbp)
   1003d:	00 00 00 00 
   10041:	48 c7 85 60 f6 ff ff 	movq   $0x0,-0x9a0(%rbp)
   10048:	00 00 00 00 
   1004c:	48 8d 85 80 f3 ff ff 	lea    -0xc80(%rbp),%rax
   10053:	48 83 c0 18          	add    $0x18,%rax
   10057:	48 89 85 68 f6 ff ff 	mov    %rax,-0x998(%rbp)
   1005e:	48 8d 85 80 f3 ff ff 	lea    -0xc80(%rbp),%rax
   10065:	48 83 c0 18          	add    $0x18,%rax
   10069:	48 89 85 70 f6 ff ff 	mov    %rax,-0x990(%rbp)
   10070:	48 c7 85 78 f6 ff ff 	movq   $0x0,-0x988(%rbp)
   10077:	00 00 00 00 
   1007b:	48 c7 85 50 f2 ff ff 	movq   $0x0,-0xdb0(%rbp)
   10082:	00 00 00 00 
   10086:	c7 85 40 f1 ff ff f6 	movl   $0xfffffff6,-0xec0(%rbp)
   1008d:	ff ff ff 
   10090:	48 8d 85 30 f4 ff ff 	lea    -0xbd0(%rbp),%rax
   10097:	48 83 c0 48          	add    $0x48,%rax
   1009b:	48 89 85 58 f2 ff ff 	mov    %rax,-0xda8(%rbp)
   100a2:	0f b6 85 f0 f0 ff ff 	movzbl -0xf10(%rbp),%eax
   100a9:	83 e0 c0             	and    $0xffffffc0,%eax
   100ac:	83 c8 05             	or     $0x5,%eax
   100af:	88 85 f0 f0 ff ff    	mov    %al,-0xf10(%rbp)
   100b5:	0f b7 85 f0 f0 ff ff 	movzwl -0xf10(%rbp),%eax
   100bc:	66 0d c0 0f          	or     $0xfc0,%ax
   100c0:	66 89 85 f0 f0 ff ff 	mov    %ax,-0xf10(%rbp)
   100c7:	48 8d 85 48 f1 ff ff 	lea    -0xeb8(%rbp),%rax
   100ce:	48 89 85 60 f2 ff ff 	mov    %rax,-0xda0(%rbp)
   100d5:	48 8d 05 68 bf 00 00 	lea    0xbf68(%rip),%rax        # 1c044 <g_57+0x14>
   100dc:	48 89 85 68 f2 ff ff 	mov    %rax,-0xd98(%rbp)
   100e3:	48 8d 05 e2 c1 00 00 	lea    0xc1e2(%rip),%rax        # 1c2cc <g_307+0x22c>
   100ea:	48 89 85 70 f2 ff ff 	mov    %rax,-0xd90(%rbp)
   100f1:	48 8d 05 a8 10 01 00 	lea    0x110a8(%rip),%rax        # 211a0 <g_772+0x60>
   100f8:	48 89 85 78 f2 ff ff 	mov    %rax,-0xd88(%rbp)
   100ff:	c7 85 04 f1 ff ff 00 	movl   $0x0,-0xefc(%rbp)
   10106:	00 00 00 
   10109:	eb 1e                	jmp    10129 <func_97+0x1d1f>
   1010b:	8b 85 04 f1 ff ff    	mov    -0xefc(%rbp),%eax
   10111:	48 98                	cltq   
   10113:	48 8d 15 2a bf 00 00 	lea    0xbf2a(%rip),%rdx        # 1c044 <g_57+0x14>
   1011a:	48 89 94 c5 30 f4 ff 	mov    %rdx,-0xbd0(%rbp,%rax,8)
   10121:	ff 
   10122:	83 85 04 f1 ff ff 01 	addl   $0x1,-0xefc(%rbp)
   10129:	83 bd 04 f1 ff ff 09 	cmpl   $0x9,-0xefc(%rbp)
   10130:	7e d9                	jle    1010b <func_97+0x1d01>
   10132:	c7 85 04 f1 ff ff 00 	movl   $0x0,-0xefc(%rbp)
   10139:	00 00 00 
   1013c:	eb 1e                	jmp    1015c <func_97+0x1d52>
   1013e:	8b 85 04 f1 ff ff    	mov    -0xefc(%rbp),%eax
   10144:	48 98                	cltq   
   10146:	48 8d 15 ff be 00 00 	lea    0xbeff(%rip),%rdx        # 1c04c <g_116>
   1014d:	48 89 94 c5 80 f3 ff 	mov    %rdx,-0xc80(%rbp,%rax,8)
   10154:	ff 
   10155:	83 85 04 f1 ff ff 01 	addl   $0x1,-0xefc(%rbp)
   1015c:	83 bd 04 f1 ff ff 05 	cmpl   $0x5,-0xefc(%rbp)
   10163:	7e d9                	jle    1013e <func_97+0x1d34>
   10165:	48 8b 85 c8 f0 ff ff 	mov    -0xf38(%rbp),%rax
   1016c:	8b 10                	mov    (%rax),%edx
   1016e:	0f b6 05 1b c3 00 00 	movzbl 0xc31b(%rip),%eax        # 1c490 <g_430>
   10175:	0f b6 c0             	movzbl %al,%eax
   10178:	21 c2                	and    %eax,%edx
   1017a:	48 8b 85 c8 f0 ff ff 	mov    -0xf38(%rbp),%rax
   10181:	89 10                	mov    %edx,(%rax)
   10183:	48 8b 85 c8 f0 ff ff 	mov    -0xf38(%rbp),%rax
   1018a:	8b 00                	mov    (%rax),%eax
   1018c:	09 85 f4 f0 ff ff    	or     %eax,-0xf0c(%rbp)
   10192:	0f b6 05 f7 c2 00 00 	movzbl 0xc2f7(%rip),%eax        # 1c490 <g_430>
   10199:	84 c0                	test   %al,%al
   1019b:	74 05                	je     101a2 <func_97+0x1d98>
   1019d:	e9 5d e6 ff ff       	jmpq   e7ff <func_97+0x3f5>
   101a2:	48 c7 05 db be 00 00 	movq   $0x0,0xbedb(%rip)        # 1c088 <g_200>
   101a9:	00 00 00 00 
   101ad:	e9 1b 04 00 00       	jmpq   105cd <func_97+0x21c3>
   101b2:	c6 85 d9 f0 ff ff f4 	movb   $0xf4,-0xf27(%rbp)
   101b9:	c7 85 44 f1 ff ff f6 	movl   $0xfffffff6,-0xebc(%rbp)
   101c0:	ff ff ff 
   101c3:	48 8d 85 88 f1 ff ff 	lea    -0xe78(%rbp),%rax
   101ca:	48 89 85 80 f2 ff ff 	mov    %rax,-0xd80(%rbp)
   101d1:	48 8d 85 48 f1 ff ff 	lea    -0xeb8(%rbp),%rax
   101d8:	48 89 85 88 f2 ff ff 	mov    %rax,-0xd78(%rbp)
   101df:	c6 05 aa c2 00 00 00 	movb   $0x0,0xc2aa(%rip)        # 1c490 <g_430>
   101e6:	e9 a3 03 00 00       	jmpq   1058e <func_97+0x2184>
   101eb:	48 8d 85 30 f4 ff ff 	lea    -0xbd0(%rbp),%rax
   101f2:	48 83 c0 08          	add    $0x8,%rax
   101f6:	48 89 85 90 f2 ff ff 	mov    %rax,-0xd70(%rbp)
   101fd:	c7 85 08 f1 ff ff 00 	movl   $0x0,-0xef8(%rbp)
   10204:	00 00 00 
   10207:	eb 19                	jmp    10222 <func_97+0x1e18>
   10209:	8b 85 08 f1 ff ff    	mov    -0xef8(%rbp),%eax
   1020f:	48 98                	cltq   
   10211:	66 c7 84 45 b2 f2 ff 	movw   $0x1faa,-0xd4e(%rbp,%rax,2)
   10218:	ff aa 1f 
   1021b:	83 85 08 f1 ff ff 01 	addl   $0x1,-0xef8(%rbp)
   10222:	83 bd 08 f1 ff ff 02 	cmpl   $0x2,-0xef8(%rbp)
   10229:	7e de                	jle    10209 <func_97+0x1dff>
   1022b:	0f b6 05 3e c4 00 00 	movzbl 0xc43e(%rip),%eax        # 1c670 <g_548>
   10232:	84 c0                	test   %al,%al
   10234:	0f 84 46 03 00 00    	je     10580 <func_97+0x2176>
   1023a:	48 c7 85 98 f2 ff ff 	movq   $0x0,-0xd68(%rbp)
   10241:	00 00 00 00 
   10245:	48 8d 85 80 f1 ff ff 	lea    -0xe80(%rbp),%rax
   1024c:	48 89 85 a0 f2 ff ff 	mov    %rax,-0xd60(%rbp)
   10253:	0f b6 95 d9 f0 ff ff 	movzbl -0xf27(%rbp),%edx
   1025a:	48 8b 85 c8 f0 ff ff 	mov    -0xf38(%rbp),%rax
   10261:	89 10                	mov    %edx,(%rax)
   10263:	48 8b 85 c8 f0 ff ff 	mov    -0xf38(%rbp),%rax
   1026a:	8b 00                	mov    (%rax),%eax
   1026c:	89 85 44 f1 ff ff    	mov    %eax,-0xebc(%rbp)
   10272:	0f b7 85 de f0 ff ff 	movzwl -0xf22(%rbp),%eax
   10279:	0f b6 d8             	movzbl %al,%ebx
   1027c:	44 0f b7 a5 bc f0 ff 	movzwl -0xf44(%rbp),%r12d
   10283:	ff 
   10284:	b8 38 82 50 51       	mov    $0x51508238,%eax
   10289:	44 0f b6 e8          	movzbl %al,%r13d
   1028d:	0f b7 95 bc f0 ff ff 	movzwl -0xf44(%rbp),%edx
   10294:	48 8b 85 c8 f0 ff ff 	mov    -0xf38(%rbp),%rax
   1029b:	8b 00                	mov    (%rax),%eax
   1029d:	89 d6                	mov    %edx,%esi
   1029f:	89 c7                	mov    %eax,%edi
   102a1:	e8 59 64 ff ff       	callq  66ff <safe_div_func_int32_t_s_s>
   102a6:	0f be d0             	movsbl %al,%edx
   102a9:	48 8d 05 ec bd 00 00 	lea    0xbdec(%rip),%rax        # 1c09c <g_266>
   102b0:	48 89 85 00 f3 ff ff 	mov    %rax,-0xd00(%rbp)
   102b7:	48 8d 05 de bd 00 00 	lea    0xbdde(%rip),%rax        # 1c09c <g_266>
   102be:	48 39 85 c8 f0 ff ff 	cmp    %rax,-0xf38(%rbp)
   102c5:	0f 95 c0             	setne  %al
   102c8:	0f b6 c0             	movzbl %al,%eax
   102cb:	89 d6                	mov    %edx,%esi
   102cd:	89 c7                	mov    %eax,%edi
   102cf:	e8 1e 5f ff ff       	callq  61f2 <safe_sub_func_int8_t_s_s>
   102d4:	66 83 bd bc f0 ff ff 	cmpw   $0x1,-0xf44(%rbp)
   102db:	01 
   102dc:	0f 95 c2             	setne  %dl
   102df:	21 d0                	and    %edx,%eax
   102e1:	0f b6 c0             	movzbl %al,%eax
   102e4:	44 89 ee             	mov    %r13d,%esi
   102e7:	89 c7                	mov    %eax,%edi
   102e9:	e8 ed 68 ff ff       	callq  6bdb <safe_div_func_uint8_t_u_u>
   102ee:	0f b6 c0             	movzbl %al,%eax
   102f1:	be ff ff ff ff       	mov    $0xffffffff,%esi
   102f6:	89 c7                	mov    %eax,%edi
   102f8:	e8 bb 6b ff ff       	callq  6eb8 <safe_add_func_uint32_t_u_u>
   102fd:	3d e2 b6 f2 71       	cmp    $0x71f2b6e2,%eax
   10302:	0f 97 c0             	seta   %al
   10305:	0f b6 c0             	movzbl %al,%eax
   10308:	4c 89 e6             	mov    %r12,%rsi
   1030b:	48 89 c7             	mov    %rax,%rdi
   1030e:	e8 9c 6d ff ff       	callq  70af <safe_div_func_uint64_t_u_u>
   10313:	0f b6 d0             	movzbl %al,%edx
   10316:	8b 05 18 bd 00 00    	mov    0xbd18(%rip),%eax        # 1c034 <g_57+0x4>
   1031c:	0f b6 c0             	movzbl %al,%eax
   1031f:	89 d6                	mov    %edx,%esi
   10321:	89 c7                	mov    %eax,%edi
   10323:	e8 50 68 ff ff       	callq  6b78 <safe_sub_func_uint8_t_u_u>
   10328:	0f b6 c0             	movzbl %al,%eax
   1032b:	89 de                	mov    %ebx,%esi
   1032d:	89 c7                	mov    %eax,%edi
   1032f:	e8 44 68 ff ff       	callq  6b78 <safe_sub_func_uint8_t_u_u>
   10334:	89 c2                	mov    %eax,%edx
   10336:	48 8b 85 90 f2 ff ff 	mov    -0xd70(%rbp),%rax
   1033d:	48 8b 00             	mov    (%rax),%rax
   10340:	0f b6 d2             	movzbl %dl,%edx
   10343:	89 10                	mov    %edx,(%rax)
   10345:	0f b7 9d bc f0 ff ff 	movzwl -0xf44(%rbp),%ebx
   1034c:	44 0f b7 a5 bc f0 ff 	movzwl -0xf44(%rbp),%r12d
   10353:	ff 
   10354:	0f b7 85 bc f0 ff ff 	movzwl -0xf44(%rbp),%eax
   1035b:	44 0f be e8          	movsbl %al,%r13d
   1035f:	8b 05 3b c1 00 00    	mov    0xc13b(%rip),%eax        # 1c4a0 <g_448>
   10365:	c1 e0 03             	shl    $0x3,%eax
   10368:	c1 f8 03             	sar    $0x3,%eax
   1036b:	44 0f be f0          	movsbl %al,%r14d
   1036f:	8b 05 3b c1 00 00    	mov    0xc13b(%rip),%eax        # 1c4b0 <g_448+0x10>
   10375:	c1 e0 0b             	shl    $0xb,%eax
   10378:	c1 f8 17             	sar    $0x17,%eax
   1037b:	66 85 c0             	test   %ax,%ax
   1037e:	78 07                	js     10387 <func_97+0x1f7d>
   10380:	b8 43 b7 aa 03       	mov    $0x3aab743,%eax
   10385:	eb 05                	jmp    1038c <func_97+0x1f82>
   10387:	b8 42 b7 aa 03       	mov    $0x3aab742,%eax
   1038c:	be 02 00 00 00       	mov    $0x2,%esi
   10391:	89 c7                	mov    %eax,%edi
   10393:	e8 6d 62 ff ff       	callq  6605 <safe_sub_func_int32_t_s_s>
   10398:	0f be c0             	movsbl %al,%eax
   1039b:	44 89 f6             	mov    %r14d,%esi
   1039e:	89 c7                	mov    %eax,%edi
   103a0:	e8 6d 5e ff ff       	callq  6212 <safe_mul_func_int8_t_s_s>
   103a5:	48 c7 c0 f9 ff ff ff 	mov    $0xfffffffffffffff9,%rax
   103ac:	89 c2                	mov    %eax,%edx
   103ae:	48 8b 05 fb c0 00 00 	mov    0xc0fb(%rip),%rax        # 1c4b0 <g_448+0x10>
   103b5:	48 c1 e0 0f          	shl    $0xf,%rax
   103b9:	48 c1 f8 2d          	sar    $0x2d,%rax
   103bd:	0f b7 c0             	movzwl %ax,%eax
   103c0:	89 d6                	mov    %edx,%esi
   103c2:	89 c7                	mov    %eax,%edi
   103c4:	e8 b1 6a ff ff       	callq  6e7a <safe_rshift_func_uint16_t_u_u>
   103c9:	48 8b 95 80 f1 ff ff 	mov    -0xe80(%rbp),%rdx
   103d0:	48 8b 85 a0 f2 ff ff 	mov    -0xd60(%rbp),%rax
   103d7:	48 89 10             	mov    %rdx,(%rax)
   103da:	48 8b 85 a0 f2 ff ff 	mov    -0xd60(%rbp),%rax
   103e1:	48 8b 10             	mov    (%rax),%rdx
   103e4:	48 8b 85 00 f5 ff ff 	mov    -0xb00(%rbp),%rax
   103eb:	48 39 c2             	cmp    %rax,%rdx
   103ee:	0f 95 c0             	setne  %al
   103f1:	0f b6 c0             	movzbl %al,%eax
   103f4:	89 c7                	mov    %eax,%edi
   103f6:	e8 ee 68 ff ff       	callq  6ce9 <safe_unary_minus_func_uint16_t_u>
   103fb:	0f b7 d0             	movzwl %ax,%edx
   103fe:	0f b7 8d bc f0 ff ff 	movzwl -0xf44(%rbp),%ecx
   10405:	48 8b 05 84 bc 00 00 	mov    0xbc84(%rip),%rax        # 1c090 <g_244>
   1040c:	48 39 c1             	cmp    %rax,%rcx
   1040f:	0f 9e c0             	setle  %al
   10412:	0f b6 c0             	movzbl %al,%eax
   10415:	39 c2                	cmp    %eax,%edx
   10417:	0f 95 c0             	setne  %al
   1041a:	0f b6 c0             	movzbl %al,%eax
   1041d:	44 89 ee             	mov    %r13d,%esi
   10420:	89 c7                	mov    %eax,%edi
   10422:	e8 ad 5d ff ff       	callq  61d4 <safe_add_func_int8_t_s_s>
   10427:	8b 05 83 c0 00 00    	mov    0xc083(%rip),%eax        # 1c4b0 <g_448+0x10>
   1042d:	c1 e0 0b             	shl    $0xb,%eax
   10430:	c1 f8 17             	sar    $0x17,%eax
   10433:	48 0f bf c0          	movswq %ax,%rax
   10437:	4c 89 e6             	mov    %r12,%rsi
   1043a:	48 89 c7             	mov    %rax,%rdi
   1043d:	e8 ec 6b ff ff       	callq  702e <safe_add_func_uint64_t_u_u>
   10442:	48 8b 05 3f bc 00 00 	mov    0xbc3f(%rip),%rax        # 1c088 <g_200>
   10449:	89 c2                	mov    %eax,%edx
   1044b:	48 8b 85 c8 f0 ff ff 	mov    -0xf38(%rbp),%rax
   10452:	89 10                	mov    %edx,(%rax)
   10454:	48 8b 85 c8 f0 ff ff 	mov    -0xf38(%rbp),%rax
   1045b:	8b 00                	mov    (%rax),%eax
   1045d:	89 c2                	mov    %eax,%edx
   1045f:	0f b7 85 b4 f2 ff ff 	movzwl -0xd4c(%rbp),%eax
   10466:	31 d0                	xor    %edx,%eax
   10468:	0f be c0             	movsbl %al,%eax
   1046b:	89 de                	mov    %ebx,%esi
   1046d:	89 c7                	mov    %eax,%edi
   1046f:	e8 c1 5e ff ff       	callq  6335 <safe_rshift_func_int8_t_s_s>
   10474:	0f b6 d8             	movzbl %al,%ebx
   10477:	0f b7 85 bc f0 ff ff 	movzwl -0xf44(%rbp),%eax
   1047e:	0f b6 c0             	movzbl %al,%eax
   10481:	89 c6                	mov    %eax,%esi
   10483:	bf 15 00 00 00       	mov    $0x15,%edi
   10488:	e8 cd 66 ff ff       	callq  6b5a <safe_add_func_uint8_t_u_u>
   1048d:	0f b6 c0             	movzbl %al,%eax
   10490:	89 de                	mov    %ebx,%esi
   10492:	89 c7                	mov    %eax,%edi
   10494:	e8 fa 66 ff ff       	callq  6b93 <safe_mul_func_uint8_t_u_u>
   10499:	48 8b 85 c0 f0 ff ff 	mov    -0xf40(%rbp),%rax
   104a0:	48 8b 10             	mov    (%rax),%rdx
   104a3:	8b 85 44 f1 ff ff    	mov    -0xebc(%rbp),%eax
   104a9:	48 98                	cltq   
   104ab:	48 09 c2             	or     %rax,%rdx
   104ae:	48 8b 85 c0 f0 ff ff 	mov    -0xf40(%rbp),%rax
   104b5:	48 89 10             	mov    %rdx,(%rax)
   104b8:	48 8b 85 c0 f0 ff ff 	mov    -0xf40(%rbp),%rax
   104bf:	48 8b 10             	mov    (%rax),%rdx
   104c2:	48 8d 05 b7 0b 01 00 	lea    0x10bb7(%rip),%rax        # 21080 <g_138>
   104c9:	48 8b 00             	mov    (%rax),%rax
   104cc:	48 39 85 c8 f0 ff ff 	cmp    %rax,-0xf38(%rbp)
   104d3:	0f 95 c0             	setne  %al
   104d6:	0f b6 c0             	movzbl %al,%eax
   104d9:	48 39 c2             	cmp    %rax,%rdx
   104dc:	0f 9f c0             	setg   %al
   104df:	0f b6 c0             	movzbl %al,%eax
   104e2:	89 c6                	mov    %eax,%esi
   104e4:	bf 08 00 00 00       	mov    $0x8,%edi
   104e9:	e8 31 68 ff ff       	callq  6d1f <safe_sub_func_uint16_t_u_u>
   104ee:	89 c7                	mov    %eax,%edi
   104f0:	48 8b 15 91 bb 00 00 	mov    0xbb91(%rip),%rdx        # 1c088 <g_200>
   104f7:	0f b7 05 94 bf 00 00 	movzwl 0xbf94(%rip),%eax        # 1c492 <g_442>
   104fe:	0f bf c8             	movswl %ax,%ecx
   10501:	0f b7 05 8a bf 00 00 	movzwl 0xbf8a(%rip),%eax        # 1c492 <g_442>
   10508:	0f bf f0             	movswl %ax,%esi
   1050b:	89 f8                	mov    %edi,%eax
   1050d:	c1 e0 02             	shl    $0x2,%eax
   10510:	c0 f8 02             	sar    $0x2,%al
   10513:	48 63 fe             	movslq %esi,%rdi
   10516:	48 63 f1             	movslq %ecx,%rsi
   10519:	48 89 d1             	mov    %rdx,%rcx
   1051c:	48 c1 e1 06          	shl    $0x6,%rcx
   10520:	48 29 d1             	sub    %rdx,%rcx
   10523:	48 89 f2             	mov    %rsi,%rdx
   10526:	48 c1 e2 03          	shl    $0x3,%rdx
   1052a:	48 01 f2             	add    %rsi,%rdx
   1052d:	48 01 ca             	add    %rcx,%rdx
   10530:	48 01 fa             	add    %rdi,%rdx
   10533:	48 8d 0c 95 00 00 00 	lea    0x0(,%rdx,4),%rcx
   1053a:	00 
   1053b:	48 8d 15 5e bb 00 00 	lea    0xbb5e(%rip),%rdx        # 1c0a0 <g_307>
   10542:	0f b6 c0             	movzbl %al,%eax
   10545:	83 e0 3f             	and    $0x3f,%eax
   10548:	c1 e0 06             	shl    $0x6,%eax
   1054b:	89 c6                	mov    %eax,%esi
   1054d:	0f b7 04 11          	movzwl (%rcx,%rdx,1),%eax
   10551:	66 25 3f f0          	and    $0xf03f,%ax
   10555:	09 f0                	or     %esi,%eax
   10557:	66 89 04 11          	mov    %ax,(%rcx,%rdx,1)
   1055b:	0f b6 05 4f bf 00 00 	movzbl 0xbf4f(%rip),%eax        # 1c4b1 <g_448+0x11>
   10562:	83 e0 f0             	and    $0xfffffff0,%eax
   10565:	83 c8 01             	or     $0x1,%eax
   10568:	88 05 43 bf 00 00    	mov    %al,0xbf43(%rip)        # 1c4b1 <g_448+0x11>
   1056e:	0f b6 05 1b bf 00 00 	movzbl 0xbf1b(%rip),%eax        # 1c490 <g_430>
   10575:	83 c0 01             	add    $0x1,%eax
   10578:	88 05 12 bf 00 00    	mov    %al,0xbf12(%rip)        # 1c490 <g_430>
   1057e:	eb 0e                	jmp    1058e <func_97+0x2184>
   10580:	48 8b 85 c8 f0 ff ff 	mov    -0xf38(%rbp),%rax
   10587:	8b 00                	mov    (%rax),%eax
   10589:	e9 b1 00 00 00       	jmpq   1063f <func_97+0x2235>
   1058e:	0f b6 05 fb be 00 00 	movzbl 0xbefb(%rip),%eax        # 1c490 <g_430>
   10595:	3c 09                	cmp    $0x9,%al
   10597:	0f 86 4e fc ff ff    	jbe    101eb <func_97+0x1de1>
   1059d:	48 8b 85 c8 f0 ff ff 	mov    -0xf38(%rbp),%rax
   105a4:	8b 00                	mov    (%rax),%eax
   105a6:	85 c0                	test   %eax,%eax
   105a8:	75 36                	jne    105e0 <func_97+0x21d6>
   105aa:	48 8b 95 88 f1 ff ff 	mov    -0xe78(%rbp),%rdx
   105b1:	48 8b 85 80 f2 ff ff 	mov    -0xd80(%rbp),%rax
   105b8:	48 89 10             	mov    %rdx,(%rax)
   105bb:	48 8b 05 c6 ba 00 00 	mov    0xbac6(%rip),%rax        # 1c088 <g_200>
   105c2:	48 83 c0 01          	add    $0x1,%rax
   105c6:	48 89 05 bb ba 00 00 	mov    %rax,0xbabb(%rip)        # 1c088 <g_200>
   105cd:	48 8b 05 b4 ba 00 00 	mov    0xbab4(%rip),%rax        # 1c088 <g_200>
   105d4:	48 83 f8 03          	cmp    $0x3,%rax
   105d8:	0f 86 d4 fb ff ff    	jbe    101b2 <func_97+0x1da8>
   105de:	eb 01                	jmp    105e1 <func_97+0x21d7>
   105e0:	90                   	nop
   105e1:	48 8b 05 98 ba 00 00 	mov    0xba98(%rip),%rax        # 1c080 <g_176>
   105e8:	48 83 c0 01          	add    $0x1,%rax
   105ec:	48 89 05 8d ba 00 00 	mov    %rax,0xba8d(%rip)        # 1c080 <g_176>
   105f3:	48 8b 05 86 ba 00 00 	mov    0xba86(%rip),%rax        # 1c080 <g_176>
   105fa:	48 83 f8 23          	cmp    $0x23,%rax
   105fe:	0f 87 d4 f7 ff ff    	ja     fdd8 <func_97+0x19ce>
   10604:	0f b7 05 87 be 00 00 	movzwl 0xbe87(%rip),%eax        # 1c492 <g_442>
   1060b:	83 e8 01             	sub    $0x1,%eax
   1060e:	66 89 05 7d be 00 00 	mov    %ax,0xbe7d(%rip)        # 1c492 <g_442>
   10615:	0f b7 05 76 be 00 00 	movzwl 0xbe76(%rip),%eax        # 1c492 <g_442>
   1061c:	66 85 c0             	test   %ax,%ax
   1061f:	0f 89 f6 e1 ff ff    	jns    e81b <func_97+0x411>
   10625:	0f b7 85 dc f0 ff ff 	movzwl -0xf24(%rbp),%eax
   1062c:	83 c0 01             	add    $0x1,%eax
   1062f:	66 89 85 dc f0 ff ff 	mov    %ax,-0xf24(%rbp)
   10636:	48 8b 85 c8 f0 ff ff 	mov    -0xf38(%rbp),%rax
   1063d:	8b 00                	mov    (%rax),%eax
   1063f:	48 8b 5d c8          	mov    -0x38(%rbp),%rbx
   10643:	64 48 33 1c 25 28 00 	xor    %fs:0x28,%rbx
   1064a:	00 00 
   1064c:	74 05                	je     10653 <func_97+0x2249>
   1064e:	e8 1d 5a ff ff       	callq  6070 <__stack_chk_fail@plt>
   10653:	48 81 c4 28 0f 00 00 	add    $0xf28,%rsp
   1065a:	5b                   	pop    %rbx
   1065b:	41 5c                	pop    %r12
   1065d:	41 5d                	pop    %r13
   1065f:	41 5e                	pop    %r14
   10661:	41 5f                	pop    %r15
   10663:	5d                   	pop    %rbp
   10664:	c3                   	retq   

0000000000010665 <func_101>:
   10665:	f3 0f 1e fa          	endbr64 
   10669:	55                   	push   %rbp
   1066a:	48 89 e5             	mov    %rsp,%rbp
   1066d:	41 55                	push   %r13
   1066f:	41 54                	push   %r12
   10671:	53                   	push   %rbx
   10672:	48 81 ec a8 05 00 00 	sub    $0x5a8,%rsp
   10679:	48 89 bd 48 fa ff ff 	mov    %rdi,-0x5b8(%rbp)
   10680:	89 f0                	mov    %esi,%eax
   10682:	88 85 44 fa ff ff    	mov    %al,-0x5bc(%rbp)
   10688:	64 48 8b 04 25 28 00 	mov    %fs:0x28,%rax
   1068f:	00 00 
   10691:	48 89 45 d8          	mov    %rax,-0x28(%rbp)
   10695:	31 c0                	xor    %eax,%eax
   10697:	48 8d 05 ea 09 01 00 	lea    0x109ea(%rip),%rax        # 21088 <g_243>
   1069e:	48 89 85 c0 fa ff ff 	mov    %rax,-0x540(%rbp)
   106a5:	c7 85 90 fa ff ff 01 	movl   $0x1,-0x570(%rbp)
   106ac:	00 00 00 
   106af:	c7 85 5c fa ff ff ff 	movl   $0xffffffff,-0x5a4(%rbp)
   106b6:	ff ff ff 
   106b9:	c7 85 60 fa ff ff ff 	movl   $0xffffffff,-0x5a0(%rbp)
   106c0:	ff ff ff 
   106c3:	48 8d 05 7e b9 00 00 	lea    0xb97e(%rip),%rax        # 1c048 <g_57+0x18>
   106ca:	48 89 85 50 fd ff ff 	mov    %rax,-0x2b0(%rbp)
   106d1:	48 8d 85 60 fa ff ff 	lea    -0x5a0(%rbp),%rax
   106d8:	48 89 85 58 fd ff ff 	mov    %rax,-0x2a8(%rbp)
   106df:	48 8d 05 4a b9 00 00 	lea    0xb94a(%rip),%rax        # 1c030 <g_57>
   106e6:	48 89 85 60 fd ff ff 	mov    %rax,-0x2a0(%rbp)
   106ed:	48 8d 05 50 b9 00 00 	lea    0xb950(%rip),%rax        # 1c044 <g_57+0x14>
   106f4:	48 89 85 68 fd ff ff 	mov    %rax,-0x298(%rbp)
   106fb:	48 8d 85 60 fa ff ff 	lea    -0x5a0(%rbp),%rax
   10702:	48 89 85 70 fd ff ff 	mov    %rax,-0x290(%rbp)
   10709:	48 c7 85 78 fd ff ff 	movq   $0x0,-0x288(%rbp)
   10710:	00 00 00 00 
   10714:	48 c7 85 80 fd ff ff 	movq   $0x0,-0x280(%rbp)
   1071b:	00 00 00 00 
   1071f:	48 8d 85 60 fa ff ff 	lea    -0x5a0(%rbp),%rax
   10726:	48 89 85 88 fd ff ff 	mov    %rax,-0x278(%rbp)
   1072d:	48 8d 85 60 fa ff ff 	lea    -0x5a0(%rbp),%rax
   10734:	48 89 85 90 fd ff ff 	mov    %rax,-0x270(%rbp)
   1073b:	48 8d 85 60 fa ff ff 	lea    -0x5a0(%rbp),%rax
   10742:	48 89 85 98 fd ff ff 	mov    %rax,-0x268(%rbp)
   10749:	48 8d 85 5c fa ff ff 	lea    -0x5a4(%rbp),%rax
   10750:	48 89 85 a0 fd ff ff 	mov    %rax,-0x260(%rbp)
   10757:	48 8d 85 60 fa ff ff 	lea    -0x5a0(%rbp),%rax
   1075e:	48 89 85 a8 fd ff ff 	mov    %rax,-0x258(%rbp)
   10765:	48 8d 85 60 fa ff ff 	lea    -0x5a0(%rbp),%rax
   1076c:	48 89 85 b0 fd ff ff 	mov    %rax,-0x250(%rbp)
   10773:	48 c7 85 b8 fd ff ff 	movq   $0x0,-0x248(%rbp)
   1077a:	00 00 00 00 
   1077e:	48 8d 85 60 fa ff ff 	lea    -0x5a0(%rbp),%rax
   10785:	48 89 85 c0 fd ff ff 	mov    %rax,-0x240(%rbp)
   1078c:	48 8d 85 60 fa ff ff 	lea    -0x5a0(%rbp),%rax
   10793:	48 89 85 c8 fd ff ff 	mov    %rax,-0x238(%rbp)
   1079a:	48 8d 85 5c fa ff ff 	lea    -0x5a4(%rbp),%rax
   107a1:	48 89 85 d0 fd ff ff 	mov    %rax,-0x230(%rbp)
   107a8:	48 c7 85 d8 fd ff ff 	movq   $0x0,-0x228(%rbp)
   107af:	00 00 00 00 
   107b3:	48 8d 85 5c fa ff ff 	lea    -0x5a4(%rbp),%rax
   107ba:	48 89 85 e0 fd ff ff 	mov    %rax,-0x220(%rbp)
   107c1:	48 8d 85 60 fa ff ff 	lea    -0x5a0(%rbp),%rax
   107c8:	48 89 85 e8 fd ff ff 	mov    %rax,-0x218(%rbp)
   107cf:	48 8d 85 60 fa ff ff 	lea    -0x5a0(%rbp),%rax
   107d6:	48 89 85 f0 fd ff ff 	mov    %rax,-0x210(%rbp)
   107dd:	48 8d 85 60 fa ff ff 	lea    -0x5a0(%rbp),%rax
   107e4:	48 89 85 f8 fd ff ff 	mov    %rax,-0x208(%rbp)
   107eb:	48 8d 85 60 fa ff ff 	lea    -0x5a0(%rbp),%rax
   107f2:	48 89 85 00 fe ff ff 	mov    %rax,-0x200(%rbp)
   107f9:	48 c7 85 08 fe ff ff 	movq   $0x0,-0x1f8(%rbp)
   10800:	00 00 00 00 
   10804:	48 c7 85 10 fe ff ff 	movq   $0x0,-0x1f0(%rbp)
   1080b:	00 00 00 00 
   1080f:	48 8d 85 60 fa ff ff 	lea    -0x5a0(%rbp),%rax
   10816:	48 89 85 18 fe ff ff 	mov    %rax,-0x1e8(%rbp)
   1081d:	48 8d 85 5c fa ff ff 	lea    -0x5a4(%rbp),%rax
   10824:	48 89 85 20 fe ff ff 	mov    %rax,-0x1e0(%rbp)
   1082b:	48 8d 85 5c fa ff ff 	lea    -0x5a4(%rbp),%rax
   10832:	48 89 85 28 fe ff ff 	mov    %rax,-0x1d8(%rbp)
   10839:	48 8d 85 60 fa ff ff 	lea    -0x5a0(%rbp),%rax
   10840:	48 89 85 30 fe ff ff 	mov    %rax,-0x1d0(%rbp)
   10847:	48 c7 85 38 fe ff ff 	movq   $0x0,-0x1c8(%rbp)
   1084e:	00 00 00 00 
   10852:	48 8d 05 ef b7 00 00 	lea    0xb7ef(%rip),%rax        # 1c048 <g_57+0x18>
   10859:	48 89 85 40 fe ff ff 	mov    %rax,-0x1c0(%rbp)
   10860:	48 8d 85 60 fa ff ff 	lea    -0x5a0(%rbp),%rax
   10867:	48 89 85 48 fe ff ff 	mov    %rax,-0x1b8(%rbp)
   1086e:	48 8d 05 27 b8 00 00 	lea    0xb827(%rip),%rax        # 1c09c <g_266>
   10875:	48 89 85 50 fe ff ff 	mov    %rax,-0x1b0(%rbp)
   1087c:	48 8d 85 60 fa ff ff 	lea    -0x5a0(%rbp),%rax
   10883:	48 89 85 58 fe ff ff 	mov    %rax,-0x1a8(%rbp)
   1088a:	48 8d 85 5c fa ff ff 	lea    -0x5a4(%rbp),%rax
   10891:	48 89 85 60 fe ff ff 	mov    %rax,-0x1a0(%rbp)
   10898:	48 8d 05 a5 b7 00 00 	lea    0xb7a5(%rip),%rax        # 1c044 <g_57+0x14>
   1089f:	48 89 85 68 fe ff ff 	mov    %rax,-0x198(%rbp)
   108a6:	48 8d 05 ef b7 00 00 	lea    0xb7ef(%rip),%rax        # 1c09c <g_266>
   108ad:	48 89 85 70 fe ff ff 	mov    %rax,-0x190(%rbp)
   108b4:	48 8d 85 60 fa ff ff 	lea    -0x5a0(%rbp),%rax
   108bb:	48 89 85 78 fe ff ff 	mov    %rax,-0x188(%rbp)
   108c2:	48 c7 85 80 fe ff ff 	movq   $0x0,-0x180(%rbp)
   108c9:	00 00 00 00 
   108cd:	48 8d 85 60 fa ff ff 	lea    -0x5a0(%rbp),%rax
   108d4:	48 89 85 88 fe ff ff 	mov    %rax,-0x178(%rbp)
   108db:	48 8d 85 60 fa ff ff 	lea    -0x5a0(%rbp),%rax
   108e2:	48 89 85 90 fe ff ff 	mov    %rax,-0x170(%rbp)
   108e9:	48 8d 85 60 fa ff ff 	lea    -0x5a0(%rbp),%rax
   108f0:	48 89 85 98 fe ff ff 	mov    %rax,-0x168(%rbp)
   108f7:	48 8d 85 60 fa ff ff 	lea    -0x5a0(%rbp),%rax
   108fe:	48 89 85 a0 fe ff ff 	mov    %rax,-0x160(%rbp)
   10905:	48 8d 85 5c fa ff ff 	lea    -0x5a4(%rbp),%rax
   1090c:	48 89 85 a8 fe ff ff 	mov    %rax,-0x158(%rbp)
   10913:	48 8d 85 60 fa ff ff 	lea    -0x5a0(%rbp),%rax
   1091a:	48 89 85 b0 fe ff ff 	mov    %rax,-0x150(%rbp)
   10921:	48 8d 85 60 fa ff ff 	lea    -0x5a0(%rbp),%rax
   10928:	48 89 85 b8 fe ff ff 	mov    %rax,-0x148(%rbp)
   1092f:	48 8d 85 5c fa ff ff 	lea    -0x5a4(%rbp),%rax
   10936:	48 89 85 c0 fe ff ff 	mov    %rax,-0x140(%rbp)
   1093d:	48 8d 85 60 fa ff ff 	lea    -0x5a0(%rbp),%rax
   10944:	48 89 85 c8 fe ff ff 	mov    %rax,-0x138(%rbp)
   1094b:	48 8d 85 60 fa ff ff 	lea    -0x5a0(%rbp),%rax
   10952:	48 89 85 d0 fe ff ff 	mov    %rax,-0x130(%rbp)
   10959:	48 8d 85 60 fa ff ff 	lea    -0x5a0(%rbp),%rax
   10960:	48 89 85 d8 fe ff ff 	mov    %rax,-0x128(%rbp)
   10967:	48 8d 85 60 fa ff ff 	lea    -0x5a0(%rbp),%rax
   1096e:	48 89 85 e0 fe ff ff 	mov    %rax,-0x120(%rbp)
   10975:	48 8d 85 60 fa ff ff 	lea    -0x5a0(%rbp),%rax
   1097c:	48 89 85 e8 fe ff ff 	mov    %rax,-0x118(%rbp)
   10983:	48 c7 85 f0 fe ff ff 	movq   $0x0,-0x110(%rbp)
   1098a:	00 00 00 00 
   1098e:	48 c7 85 f8 fe ff ff 	movq   $0x0,-0x108(%rbp)
   10995:	00 00 00 00 
   10999:	48 8d 85 60 fa ff ff 	lea    -0x5a0(%rbp),%rax
   109a0:	48 89 85 00 ff ff ff 	mov    %rax,-0x100(%rbp)
   109a7:	48 c7 85 08 ff ff ff 	movq   $0x0,-0xf8(%rbp)
   109ae:	00 00 00 00 
   109b2:	48 8d 05 8b b6 00 00 	lea    0xb68b(%rip),%rax        # 1c044 <g_57+0x14>
   109b9:	48 89 85 10 ff ff ff 	mov    %rax,-0xf0(%rbp)
   109c0:	48 8d 85 5c fa ff ff 	lea    -0x5a4(%rbp),%rax
   109c7:	48 89 85 18 ff ff ff 	mov    %rax,-0xe8(%rbp)
   109ce:	48 c7 85 20 ff ff ff 	movq   $0x0,-0xe0(%rbp)
   109d5:	00 00 00 00 
   109d9:	48 8d 05 50 b6 00 00 	lea    0xb650(%rip),%rax        # 1c030 <g_57>
   109e0:	48 89 85 28 ff ff ff 	mov    %rax,-0xd8(%rbp)
   109e7:	48 8d 85 60 fa ff ff 	lea    -0x5a0(%rbp),%rax
   109ee:	48 89 85 30 ff ff ff 	mov    %rax,-0xd0(%rbp)
   109f5:	48 8d 05 a0 b6 00 00 	lea    0xb6a0(%rip),%rax        # 1c09c <g_266>
   109fc:	48 89 85 38 ff ff ff 	mov    %rax,-0xc8(%rbp)
   10a03:	48 8d 05 3e b6 00 00 	lea    0xb63e(%rip),%rax        # 1c048 <g_57+0x18>
   10a0a:	48 89 85 40 ff ff ff 	mov    %rax,-0xc0(%rbp)
   10a11:	48 8d 85 60 fa ff ff 	lea    -0x5a0(%rbp),%rax
   10a18:	48 89 85 48 ff ff ff 	mov    %rax,-0xb8(%rbp)
   10a1f:	48 8d 85 60 fa ff ff 	lea    -0x5a0(%rbp),%rax
   10a26:	48 89 85 50 ff ff ff 	mov    %rax,-0xb0(%rbp)
   10a2d:	48 8d 85 5c fa ff ff 	lea    -0x5a4(%rbp),%rax
   10a34:	48 89 85 58 ff ff ff 	mov    %rax,-0xa8(%rbp)
   10a3b:	48 8d 85 60 fa ff ff 	lea    -0x5a0(%rbp),%rax
   10a42:	48 89 85 60 ff ff ff 	mov    %rax,-0xa0(%rbp)
   10a49:	48 8d 85 60 fa ff ff 	lea    -0x5a0(%rbp),%rax
   10a50:	48 89 85 68 ff ff ff 	mov    %rax,-0x98(%rbp)
   10a57:	48 8d 05 e6 b5 00 00 	lea    0xb5e6(%rip),%rax        # 1c044 <g_57+0x14>
   10a5e:	48 89 85 70 ff ff ff 	mov    %rax,-0x90(%rbp)
   10a65:	48 8d 85 60 fa ff ff 	lea    -0x5a0(%rbp),%rax
   10a6c:	48 89 85 78 ff ff ff 	mov    %rax,-0x88(%rbp)
   10a73:	48 8d 85 60 fa ff ff 	lea    -0x5a0(%rbp),%rax
   10a7a:	48 89 45 80          	mov    %rax,-0x80(%rbp)
   10a7e:	48 8d 05 bf b5 00 00 	lea    0xb5bf(%rip),%rax        # 1c044 <g_57+0x14>
   10a85:	48 89 45 88          	mov    %rax,-0x78(%rbp)
   10a89:	48 8d 85 60 fa ff ff 	lea    -0x5a0(%rbp),%rax
   10a90:	48 89 45 90          	mov    %rax,-0x70(%rbp)
   10a94:	48 8d 85 60 fa ff ff 	lea    -0x5a0(%rbp),%rax
   10a9b:	48 89 45 98          	mov    %rax,-0x68(%rbp)
   10a9f:	48 8d 85 60 fa ff ff 	lea    -0x5a0(%rbp),%rax
   10aa6:	48 89 45 a0          	mov    %rax,-0x60(%rbp)
   10aaa:	48 8d 05 87 b5 00 00 	lea    0xb587(%rip),%rax        # 1c038 <g_57+0x8>
   10ab1:	48 89 45 a8          	mov    %rax,-0x58(%rbp)
   10ab5:	48 c7 45 b0 00 00 00 	movq   $0x0,-0x50(%rbp)
   10abc:	00 
   10abd:	48 8d 05 74 b5 00 00 	lea    0xb574(%rip),%rax        # 1c038 <g_57+0x8>
   10ac4:	48 89 45 b8          	mov    %rax,-0x48(%rbp)
   10ac8:	48 8d 85 60 fa ff ff 	lea    -0x5a0(%rbp),%rax
   10acf:	48 89 45 c0          	mov    %rax,-0x40(%rbp)
   10ad3:	48 8d 85 60 fa ff ff 	lea    -0x5a0(%rbp),%rax
   10ada:	48 89 45 c8          	mov    %rax,-0x38(%rbp)
   10ade:	48 8d 85 50 fd ff ff 	lea    -0x2b0(%rbp),%rax
   10ae5:	48 05 40 02 00 00    	add    $0x240,%rax
   10aeb:	48 89 85 00 fb ff ff 	mov    %rax,-0x500(%rbp)
   10af2:	48 8d 05 8f b5 00 00 	lea    0xb58f(%rip),%rax        # 1c088 <g_200>
   10af9:	48 89 85 c8 fa ff ff 	mov    %rax,-0x538(%rbp)
   10b00:	48 8d 85 c8 fa ff ff 	lea    -0x538(%rbp),%rax
   10b07:	48 89 85 08 fb ff ff 	mov    %rax,-0x4f8(%rbp)
   10b0e:	0f b6 85 64 fa ff ff 	movzbl -0x59c(%rbp),%eax
   10b15:	83 e0 c0             	and    $0xffffffc0,%eax
   10b18:	83 c8 05             	or     $0x5,%eax
   10b1b:	88 85 64 fa ff ff    	mov    %al,-0x59c(%rbp)
   10b21:	0f b7 85 64 fa ff ff 	movzwl -0x59c(%rbp),%eax
   10b28:	66 25 3f f0          	and    $0xf03f,%ax
   10b2c:	0c c0                	or     $0xc0,%al
   10b2e:	66 89 85 64 fa ff ff 	mov    %ax,-0x59c(%rbp)
   10b35:	48 c7 05 e8 b4 00 00 	movq   $0x0,0xb4e8(%rip)        # 1c028 <g_52>
   10b3c:	00 00 00 00 
   10b40:	e9 6e 0e 00 00       	jmpq   119b3 <func_101+0x134e>
   10b45:	c7 85 94 fa ff ff 97 	movl   $0xf81bac97,-0x56c(%rbp)
   10b4c:	ac 1b f8 
   10b4f:	c7 85 98 fa ff ff ee 	movl   $0x3862baee,-0x568(%rbp)
   10b56:	ba 62 38 
   10b59:	c7 85 9c fa ff ff e0 	movl   $0x48060e0,-0x564(%rbp)
   10b60:	60 80 04 
   10b63:	48 8d 05 26 b9 00 00 	lea    0xb926(%rip),%rax        # 1c490 <g_430>
   10b6a:	48 89 85 10 fb ff ff 	mov    %rax,-0x4f0(%rbp)
   10b71:	66 c7 85 58 fa ff ff 	movw   $0x28b4,-0x5a8(%rbp)
   10b78:	b4 28 
   10b7a:	48 b8 5d 33 a6 07 ba 	movabs $0xfcb04cba07a6335d,%rax
   10b81:	4c b0 fc 
   10b84:	48 89 85 18 fb ff ff 	mov    %rax,-0x4e8(%rbp)
   10b8b:	c6 85 44 fa ff ff 00 	movb   $0x0,-0x5bc(%rbp)
   10b92:	90                   	nop
   10b93:	0f b6 85 44 fa ff ff 	movzbl -0x5bc(%rbp),%eax
   10b9a:	3c ee                	cmp    $0xee,%al
   10b9c:	7c 7e                	jl     10c1c <func_101+0x5b7>
   10b9e:	48 c7 85 f0 fa ff ff 	movq   $0x0,-0x510(%rbp)
   10ba5:	00 00 00 00 
   10ba9:	48 8d 85 f0 fa ff ff 	lea    -0x510(%rbp),%rax
   10bb0:	48 89 85 e0 fb ff ff 	mov    %rax,-0x420(%rbp)
   10bb7:	48 8d 05 ca 04 01 00 	lea    0x104ca(%rip),%rax        # 21088 <g_243>
   10bbe:	48 89 85 f8 fa ff ff 	mov    %rax,-0x508(%rbp)
   10bc5:	48 8d 85 f8 fa ff ff 	lea    -0x508(%rbp),%rax
   10bcc:	48 89 85 e8 fb ff ff 	mov    %rax,-0x418(%rbp)
   10bd3:	48 8b 95 48 fa ff ff 	mov    -0x5b8(%rbp),%rdx
   10bda:	48 8b 85 e0 fb ff ff 	mov    -0x420(%rbp),%rax
   10be1:	48 89 10             	mov    %rdx,(%rax)
   10be4:	48 8b 85 e0 fb ff ff 	mov    -0x420(%rbp),%rax
   10beb:	48 8b 10             	mov    (%rax),%rdx
   10bee:	8b 85 94 fa ff ff    	mov    -0x56c(%rbp),%eax
   10bf4:	89 c6                	mov    %eax,%esi
   10bf6:	48 8d 3d 47 b4 00 00 	lea    0xb447(%rip),%rdi        # 1c044 <g_57+0x14>
   10bfd:	e8 eb 0d 00 00       	callq  119ed <func_121>
   10c02:	48 8b 95 e8 fb ff ff 	mov    -0x418(%rbp),%rdx
   10c09:	48 89 02             	mov    %rax,(%rdx)
   10c0c:	0f b6 85 44 fa ff ff 	movzbl -0x5bc(%rbp),%eax
   10c13:	48 0f be c0          	movsbq %al,%rax
   10c17:	e9 af 0d 00 00       	jmpq   119cb <func_101+0x1366>
   10c1c:	48 c7 05 69 12 01 00 	movq   $0x0,0x11269(%rip)        # 21e90 <g_337>
   10c23:	00 00 00 00 
   10c27:	e9 1a 01 00 00       	jmpq   10d46 <func_101+0x6e1>
   10c2c:	66 c7 85 5a fa ff ff 	movw   $0xd842,-0x5a6(%rbp)
   10c33:	42 d8 
   10c35:	48 8d 05 08 b4 00 00 	lea    0xb408(%rip),%rax        # 1c044 <g_57+0x14>
   10c3c:	48 89 85 20 fb ff ff 	mov    %rax,-0x4e0(%rbp)
   10c43:	c7 85 a0 fa ff ff 01 	movl   $0x1,-0x560(%rbp)
   10c4a:	00 00 00 
   10c4d:	0f b7 05 d2 b3 00 00 	movzwl 0xb3d2(%rip),%eax        # 1c026 <g_23>
   10c54:	66 85 c0             	test   %ax,%ax
   10c57:	0f 85 fc 00 00 00    	jne    10d59 <func_101+0x6f4>
   10c5d:	48 c7 c0 f9 ff ff ff 	mov    $0xfffffffffffffff9,%rax
   10c64:	41 89 c5             	mov    %eax,%r13d
   10c67:	0f b6 85 44 fa ff ff 	movzbl -0x5bc(%rbp),%eax
   10c6e:	0f be d8             	movsbl %al,%ebx
   10c71:	8b 85 90 fa ff ff    	mov    -0x570(%rbp),%eax
   10c77:	0f be c0             	movsbl %al,%eax
   10c7a:	89 c6                	mov    %eax,%esi
   10c7c:	bf e6 ff ff ff       	mov    $0xffffffe6,%edi
   10c81:	e8 ab 55 ff ff       	callq  6231 <safe_mod_func_int8_t_s_s>
   10c86:	8b 85 94 fa ff ff    	mov    -0x56c(%rbp),%eax
   10c8c:	44 0f b6 e0          	movzbl %al,%r12d
   10c90:	b8 38 82 50 51       	mov    $0x51508238,%eax
   10c95:	0f be c0             	movsbl %al,%eax
   10c98:	be 01 00 00 00       	mov    $0x1,%esi
   10c9d:	89 c7                	mov    %eax,%edi
   10c9f:	e8 30 55 ff ff       	callq  61d4 <safe_add_func_int8_t_s_s>
   10ca4:	48 8b 85 c0 fa ff ff 	mov    -0x540(%rbp),%rax
   10cab:	48 8d 15 d6 03 01 00 	lea    0x103d6(%rip),%rdx        # 21088 <g_243>
   10cb2:	48 39 d0             	cmp    %rdx,%rax
   10cb5:	0f 95 c0             	setne  %al
   10cb8:	0f b6 c0             	movzbl %al,%eax
   10cbb:	44 89 e6             	mov    %r12d,%esi
   10cbe:	89 c7                	mov    %eax,%edi
   10cc0:	e8 b3 5e ff ff       	callq  6b78 <safe_sub_func_uint8_t_u_u>
   10cc5:	0f b6 95 44 fa ff ff 	movzbl -0x5bc(%rbp),%edx
   10ccc:	84 d2                	test   %dl,%dl
   10cce:	0f 95 c2             	setne  %dl
   10cd1:	0f b6 d2             	movzbl %dl,%edx
   10cd4:	0f b6 c8             	movzbl %al,%ecx
   10cd7:	48 8b 05 aa b3 00 00 	mov    0xb3aa(%rip),%rax        # 1c088 <g_200>
   10cde:	48 09 c8             	or     %rcx,%rax
   10ce1:	48 89 05 a0 b3 00 00 	mov    %rax,0xb3a0(%rip)        # 1c088 <g_200>
   10ce8:	48 8b 05 99 b3 00 00 	mov    0xb399(%rip),%rax        # 1c088 <g_200>
   10cef:	21 d0                	and    %edx,%eax
   10cf1:	98                   	cwtl   
   10cf2:	89 de                	mov    %ebx,%esi
   10cf4:	89 c7                	mov    %eax,%edi
   10cf6:	e8 e6 57 ff ff       	callq  64e1 <safe_lshift_func_int16_t_s_u>
   10cfb:	98                   	cwtl   
   10cfc:	44 89 ee             	mov    %r13d,%esi
   10cff:	89 c7                	mov    %eax,%edi
   10d01:	e8 5d 58 ff ff       	callq  6563 <safe_rshift_func_int16_t_s_u>
   10d06:	48 8b 95 20 fb ff ff 	mov    -0x4e0(%rbp),%rdx
   10d0d:	8b 12                	mov    (%rdx),%edx
   10d0f:	98                   	cwtl   
   10d10:	09 c2                	or     %eax,%edx
   10d12:	48 8b 85 20 fb ff ff 	mov    -0x4e0(%rbp),%rax
   10d19:	89 10                	mov    %edx,(%rax)
   10d1b:	48 8b 85 20 fb ff ff 	mov    -0x4e0(%rbp),%rax
   10d22:	8b 95 a0 fa ff ff    	mov    -0x560(%rbp),%edx
   10d28:	89 10                	mov    %edx,(%rax)
   10d2a:	48 8b 05 5f 11 01 00 	mov    0x1115f(%rip),%rax        # 21e90 <g_337>
   10d31:	be 01 00 00 00       	mov    $0x1,%esi
   10d36:	89 c7                	mov    %eax,%edi
   10d38:	e8 c8 58 ff ff       	callq  6605 <safe_sub_func_int32_t_s_s>
   10d3d:	48 98                	cltq   
   10d3f:	48 89 05 4a 11 01 00 	mov    %rax,0x1114a(%rip)        # 21e90 <g_337>
   10d46:	48 8b 05 43 11 01 00 	mov    0x11143(%rip),%rax        # 21e90 <g_337>
   10d4d:	48 83 f8 ef          	cmp    $0xffffffffffffffef,%rax
   10d51:	0f 8c d5 fe ff ff    	jl     10c2c <func_101+0x5c7>
   10d57:	eb 01                	jmp    10d5a <func_101+0x6f5>
   10d59:	90                   	nop
   10d5a:	66 c7 05 19 b3 00 00 	movw   $0x6,0xb319(%rip)        # 1c07c <g_156>
   10d61:	06 00 
   10d63:	e9 1a 0c 00 00       	jmpq   11982 <func_101+0x131d>
   10d68:	c7 85 a4 fa ff ff 17 	movl   $0x1e5b9317,-0x55c(%rbp)
   10d6f:	93 5b 1e 
   10d72:	48 8d 05 cb b2 00 00 	lea    0xb2cb(%rip),%rax        # 1c044 <g_57+0x14>
   10d79:	48 89 85 d0 fa ff ff 	mov    %rax,-0x530(%rbp)
   10d80:	c7 85 a8 fa ff ff ff 	movl   $0xffffffff,-0x558(%rbp)
   10d87:	ff ff ff 
   10d8a:	48 8d 05 97 b2 00 00 	lea    0xb297(%rip),%rax        # 1c028 <g_52>
   10d91:	48 89 85 d8 fa ff ff 	mov    %rax,-0x528(%rbp)
   10d98:	48 8d 85 d8 fa ff ff 	lea    -0x528(%rbp),%rax
   10d9f:	48 89 85 e0 fa ff ff 	mov    %rax,-0x520(%rbp)
   10da6:	48 8d 85 e0 fa ff ff 	lea    -0x520(%rbp),%rax
   10dad:	48 89 85 28 fb ff ff 	mov    %rax,-0x4d8(%rbp)
   10db4:	c7 85 68 fa ff ff ff 	movl   $0xffffffff,-0x598(%rbp)
   10dbb:	ff ff ff 
   10dbe:	48 8d 85 58 fa ff ff 	lea    -0x5a8(%rbp),%rax
   10dc5:	48 89 85 30 fb ff ff 	mov    %rax,-0x4d0(%rbp)
   10dcc:	0f b6 85 6c fa ff ff 	movzbl -0x594(%rbp),%eax
   10dd3:	83 e0 c0             	and    $0xffffffc0,%eax
   10dd6:	83 c8 06             	or     $0x6,%eax
   10dd9:	88 85 6c fa ff ff    	mov    %al,-0x594(%rbp)
   10ddf:	0f b7 85 6c fa ff ff 	movzwl -0x594(%rbp),%eax
   10de6:	66 25 3f f0          	and    $0xf03f,%ax
   10dea:	66 0d c0 01          	or     $0x1c0,%ax
   10dee:	66 89 85 6c fa ff ff 	mov    %ax,-0x594(%rbp)
   10df5:	c7 85 84 fa ff ff 00 	movl   $0x0,-0x57c(%rbp)
   10dfc:	00 00 00 
   10dff:	eb 42                	jmp    10e43 <func_101+0x7de>
   10e01:	c7 85 88 fa ff ff 00 	movl   $0x0,-0x578(%rbp)
   10e08:	00 00 00 
   10e0b:	eb 26                	jmp    10e33 <func_101+0x7ce>
   10e0d:	8b 85 88 fa ff ff    	mov    -0x578(%rbp),%eax
   10e13:	48 63 d0             	movslq %eax,%rdx
   10e16:	8b 85 84 fa ff ff    	mov    -0x57c(%rbp),%eax
   10e1c:	48 98                	cltq   
   10e1e:	48 01 d0             	add    %rdx,%rax
   10e21:	c7 84 85 f0 fb ff ff 	movl   $0x1,-0x410(%rbp,%rax,4)
   10e28:	01 00 00 00 
   10e2c:	83 85 88 fa ff ff 01 	addl   $0x1,-0x578(%rbp)
   10e33:	83 bd 88 fa ff ff 00 	cmpl   $0x0,-0x578(%rbp)
   10e3a:	7e d1                	jle    10e0d <func_101+0x7a8>
   10e3c:	83 85 84 fa ff ff 01 	addl   $0x1,-0x57c(%rbp)
   10e43:	83 bd 84 fa ff ff 04 	cmpl   $0x4,-0x57c(%rbp)
   10e4a:	7e b5                	jle    10e01 <func_101+0x79c>
   10e4c:	c6 05 36 10 01 00 00 	movb   $0x0,0x11036(%rip)        # 21e89 <g_217>
   10e53:	e9 45 01 00 00       	jmpq   10f9d <func_101+0x938>
   10e58:	48 8d 05 e9 b1 00 00 	lea    0xb1e9(%rip),%rax        # 1c048 <g_57+0x18>
   10e5f:	48 89 85 88 fb ff ff 	mov    %rax,-0x478(%rbp)
   10e66:	48 8d 05 d7 b1 00 00 	lea    0xb1d7(%rip),%rax        # 1c044 <g_57+0x14>
   10e6d:	48 89 85 90 fb ff ff 	mov    %rax,-0x470(%rbp)
   10e74:	48 8d 05 b5 b1 00 00 	lea    0xb1b5(%rip),%rax        # 1c030 <g_57>
   10e7b:	48 89 85 98 fb ff ff 	mov    %rax,-0x468(%rbp)
   10e82:	48 8d 05 ab b1 00 00 	lea    0xb1ab(%rip),%rax        # 1c034 <g_57+0x4>
   10e89:	48 89 85 a0 fb ff ff 	mov    %rax,-0x460(%rbp)
   10e90:	0f b6 05 f2 0f 01 00 	movzbl 0x10ff2(%rip),%eax        # 21e89 <g_217>
   10e97:	0f be c0             	movsbl %al,%eax
   10e9a:	83 c0 03             	add    $0x3,%eax
   10e9d:	48 98                	cltq   
   10e9f:	48 8d 14 85 00 00 00 	lea    0x0(,%rax,4),%rdx
   10ea6:	00 
   10ea7:	48 8d 05 82 b1 00 00 	lea    0xb182(%rip),%rax        # 1c030 <g_57>
   10eae:	48 01 d0             	add    %rdx,%rax
   10eb1:	48 89 85 a8 fb ff ff 	mov    %rax,-0x458(%rbp)
   10eb8:	48 8d 05 89 b1 00 00 	lea    0xb189(%rip),%rax        # 1c048 <g_57+0x18>
   10ebf:	48 89 85 b0 fb ff ff 	mov    %rax,-0x450(%rbp)
   10ec6:	0f b6 05 bc 0f 01 00 	movzbl 0x10fbc(%rip),%eax        # 21e89 <g_217>
   10ecd:	0f be c0             	movsbl %al,%eax
   10ed0:	83 c0 03             	add    $0x3,%eax
   10ed3:	48 98                	cltq   
   10ed5:	48 8d 14 85 00 00 00 	lea    0x0(,%rax,4),%rdx
   10edc:	00 
   10edd:	48 8d 05 4c b1 00 00 	lea    0xb14c(%rip),%rax        # 1c030 <g_57>
   10ee4:	48 01 d0             	add    %rdx,%rax
   10ee7:	48 89 85 b8 fb ff ff 	mov    %rax,-0x448(%rbp)
   10eee:	48 c7 85 c0 fb ff ff 	movq   $0x0,-0x440(%rbp)
   10ef5:	00 00 00 00 
   10ef9:	48 c7 85 c8 fb ff ff 	movq   $0x0,-0x438(%rbp)
   10f00:	00 00 00 00 
   10f04:	48 c7 85 d0 fb ff ff 	movq   $0x0,-0x430(%rbp)
   10f0b:	00 00 00 00 
   10f0f:	48 c7 85 d8 fb ff ff 	movq   $0x0,-0x428(%rbp)
   10f16:	00 00 00 00 
   10f1a:	48 8d 05 7b b1 00 00 	lea    0xb17b(%rip),%rax        # 1c09c <g_266>
   10f21:	48 89 85 60 fc ff ff 	mov    %rax,-0x3a0(%rbp)
   10f28:	48 8d 05 15 b1 00 00 	lea    0xb115(%rip),%rax        # 1c044 <g_57+0x14>
   10f2f:	48 89 85 68 fc ff ff 	mov    %rax,-0x398(%rbp)
   10f36:	48 8d 05 5f b1 00 00 	lea    0xb15f(%rip),%rax        # 1c09c <g_266>
   10f3d:	48 89 85 70 fc ff ff 	mov    %rax,-0x390(%rbp)
   10f44:	48 8d 05 51 b1 00 00 	lea    0xb151(%rip),%rax        # 1c09c <g_266>
   10f4b:	48 89 85 78 fc ff ff 	mov    %rax,-0x388(%rbp)
   10f52:	48 8d 05 eb b0 00 00 	lea    0xb0eb(%rip),%rax        # 1c044 <g_57+0x14>
   10f59:	48 89 85 80 fc ff ff 	mov    %rax,-0x380(%rbp)
   10f60:	48 8d 05 35 b1 00 00 	lea    0xb135(%rip),%rax        # 1c09c <g_266>
   10f67:	48 89 85 88 fc ff ff 	mov    %rax,-0x378(%rbp)
   10f6e:	48 8d 05 27 b1 00 00 	lea    0xb127(%rip),%rax        # 1c09c <g_266>
   10f75:	48 89 85 90 fc ff ff 	mov    %rax,-0x370(%rbp)
   10f7c:	c7 85 bc fa ff ff 04 	movl   $0x4,-0x544(%rbp)
   10f83:	00 00 00 
   10f86:	83 85 bc fa ff ff 01 	addl   $0x1,-0x544(%rbp)
   10f8d:	0f b6 05 f5 0e 01 00 	movzbl 0x10ef5(%rip),%eax        # 21e89 <g_217>
   10f94:	83 c0 01             	add    $0x1,%eax
   10f97:	88 05 ec 0e 01 00    	mov    %al,0x10eec(%rip)        # 21e89 <g_217>
   10f9d:	0f b6 05 e5 0e 01 00 	movzbl 0x10ee5(%rip),%eax        # 21e89 <g_217>
   10fa4:	3c 03                	cmp    $0x3,%al
   10fa6:	0f 8e ac fe ff ff    	jle    10e58 <func_101+0x7f3>
   10fac:	48 8b 85 d0 fa ff ff 	mov    -0x530(%rbp),%rax
   10fb3:	c7 00 01 00 00 00    	movl   $0x1,(%rax)
   10fb9:	0f b7 05 bc b0 00 00 	movzwl 0xb0bc(%rip),%eax        # 1c07c <g_156>
   10fc0:	98                   	cwtl   
   10fc1:	48 98                	cltq   
   10fc3:	48 8d 14 85 00 00 00 	lea    0x0(,%rax,4),%rdx
   10fca:	00 
   10fcb:	48 8d 05 5e b0 00 00 	lea    0xb05e(%rip),%rax        # 1c030 <g_57>
   10fd2:	8b 04 02             	mov    (%rdx,%rax,1),%eax
   10fd5:	85 c0                	test   %eax,%eax
   10fd7:	0f 85 93 09 00 00    	jne    11970 <func_101+0x130b>
   10fdd:	c7 05 b5 b0 00 00 00 	movl   $0x0,0xb0b5(%rip)        # 1c09c <g_266>
   10fe4:	00 00 00 
   10fe7:	90                   	nop
   10fe8:	8b 05 ae b0 00 00    	mov    0xb0ae(%rip),%eax        # 1c09c <g_266>
   10fee:	83 f8 03             	cmp    $0x3,%eax
   10ff1:	7f 10                	jg     11003 <func_101+0x99e>
   10ff3:	0f b6 85 44 fa ff ff 	movzbl -0x5bc(%rbp),%eax
   10ffa:	48 0f be c0          	movsbq %al,%rax
   10ffe:	e9 c8 09 00 00       	jmpq   119cb <func_101+0x1366>
   11003:	c6 85 44 fa ff ff 03 	movb   $0x3,-0x5bc(%rbp)
   1100a:	e9 50 09 00 00       	jmpq   1195f <func_101+0x12fa>
   1100f:	48 c7 85 38 fb ff ff 	movq   $0x0,-0x4c8(%rbp)
   11016:	00 00 00 00 
   1101a:	48 8d 05 2b b0 00 00 	lea    0xb02b(%rip),%rax        # 1c04c <g_116>
   11021:	48 89 85 10 fc ff ff 	mov    %rax,-0x3f0(%rbp)
   11028:	48 8d 05 1d b0 00 00 	lea    0xb01d(%rip),%rax        # 1c04c <g_116>
   1102f:	48 89 85 18 fc ff ff 	mov    %rax,-0x3e8(%rbp)
   11036:	48 8d 05 0f b0 00 00 	lea    0xb00f(%rip),%rax        # 1c04c <g_116>
   1103d:	48 89 85 20 fc ff ff 	mov    %rax,-0x3e0(%rbp)
   11044:	48 8d 05 01 b0 00 00 	lea    0xb001(%rip),%rax        # 1c04c <g_116>
   1104b:	48 89 85 28 fc ff ff 	mov    %rax,-0x3d8(%rbp)
   11052:	48 8d 05 f3 af 00 00 	lea    0xaff3(%rip),%rax        # 1c04c <g_116>
   11059:	48 89 85 30 fc ff ff 	mov    %rax,-0x3d0(%rbp)
   11060:	48 8d 05 e5 af 00 00 	lea    0xafe5(%rip),%rax        # 1c04c <g_116>
   11067:	48 89 85 38 fc ff ff 	mov    %rax,-0x3c8(%rbp)
   1106e:	48 8d 05 d7 af 00 00 	lea    0xafd7(%rip),%rax        # 1c04c <g_116>
   11075:	48 89 85 40 fc ff ff 	mov    %rax,-0x3c0(%rbp)
   1107c:	48 8d 05 c9 af 00 00 	lea    0xafc9(%rip),%rax        # 1c04c <g_116>
   11083:	48 89 85 48 fc ff ff 	mov    %rax,-0x3b8(%rbp)
   1108a:	48 8d 05 bb af 00 00 	lea    0xafbb(%rip),%rax        # 1c04c <g_116>
   11091:	48 89 85 50 fc ff ff 	mov    %rax,-0x3b0(%rbp)
   11098:	48 8d 85 10 fc ff ff 	lea    -0x3f0(%rbp),%rax
   1109f:	48 83 c0 28          	add    $0x28,%rax
   110a3:	48 89 85 40 fb ff ff 	mov    %rax,-0x4c0(%rbp)
   110aa:	48 c7 85 48 fb ff ff 	movq   $0x0,-0x4b8(%rbp)
   110b1:	00 00 00 00 
   110b5:	48 8d 05 90 af 00 00 	lea    0xaf90(%rip),%rax        # 1c04c <g_116>
   110bc:	48 89 85 e8 fa ff ff 	mov    %rax,-0x518(%rbp)
   110c3:	48 8d 85 e8 fa ff ff 	lea    -0x518(%rbp),%rax
   110ca:	48 89 85 50 fb ff ff 	mov    %rax,-0x4b0(%rbp)
   110d1:	c7 85 ac fa ff ff a0 	movl   $0x4e1526a0,-0x554(%rbp)
   110d8:	26 15 4e 
   110db:	48 8d 85 c0 fa ff ff 	lea    -0x540(%rbp),%rax
   110e2:	48 89 85 58 fb ff ff 	mov    %rax,-0x4a8(%rbp)
   110e9:	48 8d 05 98 af 00 00 	lea    0xaf98(%rip),%rax        # 1c088 <g_200>
   110f0:	48 89 85 f0 fa ff ff 	mov    %rax,-0x510(%rbp)
   110f7:	48 8d 85 f0 fa ff ff 	lea    -0x510(%rbp),%rax
   110fe:	48 89 85 f8 fa ff ff 	mov    %rax,-0x508(%rbp)
   11105:	c7 85 b0 fa ff ff 03 	movl   $0x3,-0x550(%rbp)
   1110c:	00 00 00 
   1110f:	48 8b 85 d0 fa ff ff 	mov    -0x530(%rbp),%rax
   11116:	8b 95 a8 fa ff ff    	mov    -0x558(%rbp),%edx
   1111c:	89 10                	mov    %edx,(%rax)
   1111e:	0f b6 05 63 0d 01 00 	movzbl 0x10d63(%rip),%eax        # 21e88 <g_136>
   11125:	0f b6 d8             	movzbl %al,%ebx
   11128:	48 8b 85 40 fb ff ff 	mov    -0x4c0(%rbp),%rax
   1112f:	48 8d 15 16 af 00 00 	lea    0xaf16(%rip),%rdx        # 1c04c <g_116>
   11136:	48 89 10             	mov    %rdx,(%rax)
   11139:	48 8b 85 40 fb ff ff 	mov    -0x4c0(%rbp),%rax
   11140:	48 8b 10             	mov    (%rax),%rdx
   11143:	48 8b 85 50 fb ff ff 	mov    -0x4b0(%rbp),%rax
   1114a:	48 89 10             	mov    %rdx,(%rax)
   1114d:	48 8b 05 44 0d 01 00 	mov    0x10d44(%rip),%rax        # 21e98 <g_403>
   11154:	48 39 85 00 fb ff ff 	cmp    %rax,-0x500(%rbp)
   1115b:	74 08                	je     11165 <func_101+0xb00>
   1115d:	41 bd 59 00 00 00    	mov    $0x59,%r13d
   11163:	eb 06                	jmp    1116b <func_101+0xb06>
   11165:	41 bd 58 00 00 00    	mov    $0x58,%r13d
   1116b:	0f b7 05 0a af 00 00 	movzwl 0xaf0a(%rip),%eax        # 1c07c <g_156>
   11172:	0f b6 c0             	movzbl %al,%eax
   11175:	be 02 00 00 00       	mov    $0x2,%esi
   1117a:	89 c7                	mov    %eax,%edi
   1117c:	e8 84 5a ff ff       	callq  6c05 <safe_lshift_func_uint8_t_u_s>
   11181:	44 0f b6 e0          	movzbl %al,%r12d
   11185:	be 07 00 00 00       	mov    $0x7,%esi
   1118a:	bf 06 00 00 00       	mov    $0x6,%edi
   1118f:	e8 b8 5a ff ff       	callq  6c4c <safe_lshift_func_uint8_t_u_u>
   11194:	0f b6 c0             	movzbl %al,%eax
   11197:	44 89 e6             	mov    %r12d,%esi
   1119a:	89 c7                	mov    %eax,%edi
   1119c:	e8 d9 5c ff ff       	callq  6e7a <safe_rshift_func_uint16_t_u_u>
   111a1:	0f b7 c0             	movzwl %ax,%eax
   111a4:	48 89 05 d5 ae 00 00 	mov    %rax,0xaed5(%rip)        # 1c080 <g_176>
   111ab:	48 8b 05 ce ae 00 00 	mov    0xaece(%rip),%rax        # 1c080 <g_176>
   111b2:	4c 89 ee             	mov    %r13,%rsi
   111b5:	48 89 c7             	mov    %rax,%rdi
   111b8:	e8 71 5e ff ff       	callq  702e <safe_add_func_uint64_t_u_u>
   111bd:	48 89 c2             	mov    %rax,%rdx
   111c0:	48 8b 85 d0 fa ff ff 	mov    -0x530(%rbp),%rax
   111c7:	89 10                	mov    %edx,(%rax)
   111c9:	8b 05 cd ae 00 00    	mov    0xaecd(%rip),%eax        # 1c09c <g_266>
   111cf:	83 f8 01             	cmp    $0x1,%eax
   111d2:	0f 95 c0             	setne  %al
   111d5:	0f b6 c0             	movzbl %al,%eax
   111d8:	89 de                	mov    %ebx,%esi
   111da:	89 c7                	mov    %eax,%edi
   111dc:	e8 dd 5b ff ff       	callq  6dbe <safe_lshift_func_uint16_t_u_s>
   111e1:	83 bd ac fa ff ff 01 	cmpl   $0x1,-0x554(%rbp)
   111e8:	75 09                	jne    111f3 <func_101+0xb8e>
   111ea:	b8 38 82 50 51       	mov    $0x51508238,%eax
   111ef:	85 c0                	test   %eax,%eax
   111f1:	74 07                	je     111fa <func_101+0xb95>
   111f3:	b8 01 00 00 00       	mov    $0x1,%eax
   111f8:	eb 05                	jmp    111ff <func_101+0xb9a>
   111fa:	b8 00 00 00 00       	mov    $0x0,%eax
   111ff:	3b 85 98 fa ff ff    	cmp    -0x568(%rbp),%eax
   11205:	74 3d                	je     11244 <func_101+0xbdf>
   11207:	c7 45 d2 1a 1a f7 1a 	movl   $0x1af71a1a,-0x2e(%rbp)
   1120e:	66 c7 45 d6 1a f7    	movw   $0xf71a,-0x2a(%rbp)
   11214:	48 8b 85 00 fb ff ff 	mov    -0x500(%rbp),%rax
   1121b:	48 8d 95 f0 fb ff ff 	lea    -0x410(%rbp),%rdx
   11222:	48 83 c2 0c          	add    $0xc,%rdx
   11226:	48 89 10             	mov    %rdx,(%rax)
   11229:	48 8b 85 48 fa ff ff 	mov    -0x5b8(%rbp),%rax
   11230:	48 89 05 59 fe 00 00 	mov    %rax,0xfe59(%rip)        # 21090 <g_405>
   11237:	0f b6 45 d4          	movzbl -0x2c(%rbp),%eax
   1123b:	48 0f be c0          	movsbq %al,%rax
   1123f:	e9 87 07 00 00       	jmpq   119cb <func_101+0x1366>
   11244:	c7 85 b4 fa ff ff fc 	movl   $0xfffffffc,-0x54c(%rbp)
   1124b:	ff ff ff 
   1124e:	c7 85 b8 fa ff ff 9f 	movl   $0xb328d89f,-0x548(%rbp)
   11255:	d8 28 b3 
   11258:	8b 05 da ad 00 00    	mov    0xadda(%rip),%eax        # 1c038 <g_57+0x8>
   1125e:	0f b6 d8             	movzbl %al,%ebx
   11261:	8b 85 ac fa ff ff    	mov    -0x554(%rbp),%eax
   11267:	44 0f be e0          	movsbl %al,%r12d
   1126b:	0f b6 85 44 fa ff ff 	movzbl -0x5bc(%rbp),%eax
   11272:	0f be d0             	movsbl %al,%edx
   11275:	48 8d 05 14 b2 00 00 	lea    0xb214(%rip),%rax        # 1c490 <g_430>
   1127c:	48 39 85 10 fb ff ff 	cmp    %rax,-0x4f0(%rbp)
   11283:	0f 95 c0             	setne  %al
   11286:	89 c1                	mov    %eax,%ecx
   11288:	48 8b 05 99 ad 00 00 	mov    0xad99(%rip),%rax        # 1c028 <g_52>
   1128f:	31 c8                	xor    %ecx,%eax
   11291:	0f be c0             	movsbl %al,%eax
   11294:	89 d6                	mov    %edx,%esi
   11296:	89 c7                	mov    %eax,%edi
   11298:	e8 94 4f ff ff       	callq  6231 <safe_mod_func_int8_t_s_s>
   1129d:	44 89 e6             	mov    %r12d,%esi
   112a0:	bf 01 00 00 00       	mov    $0x1,%edi
   112a5:	e8 c0 4f ff ff       	callq  626a <safe_div_func_int8_t_s_s>
   112aa:	0f b6 85 44 fa ff ff 	movzbl -0x5bc(%rbp),%eax
   112b1:	0f be d0             	movsbl %al,%edx
   112b4:	48 8b 05 d5 fd 00 00 	mov    0xfdd5(%rip),%rax        # 21090 <g_405>
   112bb:	8b 00                	mov    (%rax),%eax
   112bd:	39 c2                	cmp    %eax,%edx
   112bf:	0f 9e c0             	setle  %al
   112c2:	44 0f b6 e0          	movzbl %al,%r12d
   112c6:	0f b6 85 44 fa ff ff 	movzbl -0x5bc(%rbp),%eax
   112cd:	0f b6 d0             	movzbl %al,%edx
   112d0:	48 8b 05 b9 0b 01 00 	mov    0x10bb9(%rip),%rax        # 21e90 <g_337>
   112d7:	0f b6 c0             	movzbl %al,%eax
   112da:	89 d6                	mov    %edx,%esi
   112dc:	89 c7                	mov    %eax,%edi
   112de:	e8 b0 58 ff ff       	callq  6b93 <safe_mul_func_uint8_t_u_u>
   112e3:	0f b6 c0             	movzbl %al,%eax
   112e6:	44 89 e6             	mov    %r12d,%esi
   112e9:	89 c7                	mov    %eax,%edi
   112eb:	e8 a3 58 ff ff       	callq  6b93 <safe_mul_func_uint8_t_u_u>
   112f0:	0f b6 c0             	movzbl %al,%eax
   112f3:	8b 15 53 ad 00 00    	mov    0xad53(%rip),%edx        # 1c04c <g_116>
   112f9:	89 d2                	mov    %edx,%edx
   112fb:	48 89 c6             	mov    %rax,%rsi
   112fe:	48 89 d7             	mov    %rdx,%rdi
   11301:	e8 7a 5d ff ff       	callq  7080 <safe_mod_func_uint64_t_u_u>
   11306:	89 85 b4 fa ff ff    	mov    %eax,-0x54c(%rbp)
   1130c:	48 8b 05 7d fd 00 00 	mov    0xfd7d(%rip),%rax        # 21090 <g_405>
   11313:	8b 00                	mov    (%rax),%eax
   11315:	39 85 b4 fa ff ff    	cmp    %eax,-0x54c(%rbp)
   1131b:	0f 95 c0             	setne  %al
   1131e:	0f b6 c0             	movzbl %al,%eax
   11321:	89 de                	mov    %ebx,%esi
   11323:	89 c7                	mov    %eax,%edi
   11325:	e8 69 58 ff ff       	callq  6b93 <safe_mul_func_uint8_t_u_u>
   1132a:	0f b6 d0             	movzbl %al,%edx
   1132d:	0f b6 05 54 0b 01 00 	movzbl 0x10b54(%rip),%eax        # 21e88 <g_136>
   11334:	83 c0 01             	add    $0x1,%eax
   11337:	88 05 4b 0b 01 00    	mov    %al,0x10b4b(%rip)        # 21e88 <g_136>
   1133d:	0f b6 05 44 0b 01 00 	movzbl 0x10b44(%rip),%eax        # 21e88 <g_136>
   11344:	0f b6 c0             	movzbl %al,%eax
   11347:	89 d6                	mov    %edx,%esi
   11349:	89 c7                	mov    %eax,%edi
   1134b:	e8 0a 58 ff ff       	callq  6b5a <safe_add_func_uint8_t_u_u>
   11350:	0f b6 d0             	movzbl %al,%edx
   11353:	48 8b 05 36 fd 00 00 	mov    0xfd36(%rip),%rax        # 21090 <g_405>
   1135a:	8b 00                	mov    (%rax),%eax
   1135c:	39 c2                	cmp    %eax,%edx
   1135e:	0f 9c c2             	setl   %dl
   11361:	48 8b 85 d0 fa ff ff 	mov    -0x530(%rbp),%rax
   11368:	0f b6 d2             	movzbl %dl,%edx
   1136b:	89 10                	mov    %edx,(%rax)
   1136d:	8b 00                	mov    (%rax),%eax
   1136f:	85 c0                	test   %eax,%eax
   11371:	0f 84 b9 01 00 00    	je     11530 <func_101+0xecb>
   11377:	48 8d 05 14 b1 00 00 	lea    0xb114(%rip),%rax        # 1c492 <g_442>
   1137e:	48 89 85 60 fb ff ff 	mov    %rax,-0x4a0(%rbp)
   11385:	48 8d 85 60 fc ff ff 	lea    -0x3a0(%rbp),%rax
   1138c:	48 83 c0 38          	add    $0x38,%rax
   11390:	48 89 85 68 fb ff ff 	mov    %rax,-0x498(%rbp)
   11397:	48 8d 85 f8 fa ff ff 	lea    -0x508(%rbp),%rax
   1139e:	48 89 85 70 fb ff ff 	mov    %rax,-0x490(%rbp)
   113a5:	c7 85 8c fa ff ff 00 	movl   $0x0,-0x574(%rbp)
   113ac:	00 00 00 
   113af:	eb 51                	jmp    11402 <func_101+0xd9d>
   113b1:	c7 85 7c fa ff ff 00 	movl   $0x0,-0x584(%rbp)
   113b8:	00 00 00 
   113bb:	eb 35                	jmp    113f2 <func_101+0xd8d>
   113bd:	8b 85 7c fa ff ff    	mov    -0x584(%rbp),%eax
   113c3:	48 63 c8             	movslq %eax,%rcx
   113c6:	8b 85 8c fa ff ff    	mov    -0x574(%rbp),%eax
   113cc:	48 63 d0             	movslq %eax,%rdx
   113cf:	48 89 d0             	mov    %rdx,%rax
   113d2:	48 c1 e0 02          	shl    $0x2,%rax
   113d6:	48 01 d0             	add    %rdx,%rax
   113d9:	48 01 c8             	add    %rcx,%rax
   113dc:	48 8d 15 bd b0 00 00 	lea    0xb0bd(%rip),%rdx        # 1c4a0 <g_448>
   113e3:	48 89 94 c5 60 fc ff 	mov    %rdx,-0x3a0(%rbp,%rax,8)
   113ea:	ff 
   113eb:	83 85 7c fa ff ff 01 	addl   $0x1,-0x584(%rbp)
   113f2:	83 bd 7c fa ff ff 04 	cmpl   $0x4,-0x584(%rbp)
   113f9:	7e c2                	jle    113bd <func_101+0xd58>
   113fb:	83 85 8c fa ff ff 01 	addl   $0x1,-0x574(%rbp)
   11402:	83 bd 8c fa ff ff 03 	cmpl   $0x3,-0x574(%rbp)
   11409:	7e a6                	jle    113b1 <func_101+0xd4c>
   1140b:	0f b6 05 86 ac 00 00 	movzbl 0xac86(%rip),%eax        # 1c098 <g_253>
   11412:	0f be c0             	movsbl %al,%eax
   11415:	be 0f 00 00 00       	mov    $0xf,%esi
   1141a:	89 c7                	mov    %eax,%edi
   1141c:	e8 42 51 ff ff       	callq  6563 <safe_rshift_func_int16_t_s_u>
   11421:	44 0f bf e8          	movswl %ax,%r13d
   11425:	8b 1d 19 ac 00 00    	mov    0xac19(%rip),%ebx        # 1c044 <g_57+0x14>
   1142b:	0f b6 85 44 fa ff ff 	movzbl -0x5bc(%rbp),%eax
   11432:	84 c0                	test   %al,%al
   11434:	75 09                	jne    1143f <func_101+0xdda>
   11436:	0f b6 85 44 fa ff ff 	movzbl -0x5bc(%rbp),%eax
   1143d:	84 c0                	test   %al,%al
   1143f:	8b 05 f7 ab 00 00    	mov    0xabf7(%rip),%eax        # 1c03c <g_57+0xc>
   11445:	85 c0                	test   %eax,%eax
   11447:	0f 9e c0             	setle  %al
   1144a:	0f b6 d0             	movzbl %al,%edx
   1144d:	48 8b 85 d0 fa ff ff 	mov    -0x530(%rbp),%rax
   11454:	8b 00                	mov    (%rax),%eax
   11456:	39 c2                	cmp    %eax,%edx
   11458:	0f 95 c0             	setne  %al
   1145b:	0f b6 d0             	movzbl %al,%edx
   1145e:	0f b6 85 44 fa ff ff 	movzbl -0x5bc(%rbp),%eax
   11465:	66 98                	cbtw   
   11467:	0f b7 c0             	movzwl %ax,%eax
   1146a:	89 d6                	mov    %edx,%esi
   1146c:	89 c7                	mov    %eax,%edi
   1146e:	e8 4b 59 ff ff       	callq  6dbe <safe_lshift_func_uint16_t_u_s>
   11473:	44 0f bf e0          	movswl %ax,%r12d
   11477:	48 8b 85 c0 fa ff ff 	mov    -0x540(%rbp),%rax
   1147e:	48 8b 00             	mov    (%rax),%rax
   11481:	48 c7 00 f6 ff ff ff 	movq   $0xfffffffffffffff6,(%rax)
   11488:	8b 05 b6 ab 00 00    	mov    0xabb6(%rip),%eax        # 1c044 <g_57+0x14>
   1148e:	0f b6 c0             	movzbl %al,%eax
   11491:	be 05 00 00 00       	mov    $0x5,%esi
   11496:	89 c7                	mov    %eax,%edi
   11498:	e8 21 58 ff ff       	callq  6cbe <safe_rshift_func_uint8_t_u_u>
   1149d:	0f b6 d0             	movzbl %al,%edx
   114a0:	48 8b 85 60 fb ff ff 	mov    -0x4a0(%rbp),%rax
   114a7:	66 89 10             	mov    %dx,(%rax)
   114aa:	48 8b 85 60 fb ff ff 	mov    -0x4a0(%rbp),%rax
   114b1:	0f b7 00             	movzwl (%rax),%eax
   114b4:	98                   	cwtl   
   114b5:	44 89 e6             	mov    %r12d,%esi
   114b8:	89 c7                	mov    %eax,%edi
   114ba:	e8 96 4f ff ff       	callq  6455 <safe_div_func_int16_t_s_s>
   114bf:	0f be c0             	movsbl %al,%eax
   114c2:	89 de                	mov    %ebx,%esi
   114c4:	89 c7                	mov    %eax,%edi
   114c6:	e8 d6 4d ff ff       	callq  62a1 <safe_lshift_func_int8_t_s_s>
   114cb:	0f be d0             	movsbl %al,%edx
   114ce:	48 8b 05 bb fb 00 00 	mov    0xfbbb(%rip),%rax        # 21090 <g_405>
   114d5:	8b 00                	mov    (%rax),%eax
   114d7:	39 c2                	cmp    %eax,%edx
   114d9:	0f 9e c0             	setle  %al
   114dc:	0f b6 c0             	movzbl %al,%eax
   114df:	41 39 c5             	cmp    %eax,%r13d
   114e2:	0f 9e c0             	setle  %al
   114e5:	0f b6 c0             	movzbl %al,%eax
   114e8:	09 85 b8 fa ff ff    	or     %eax,-0x548(%rbp)
   114ee:	48 8b 85 68 fb ff ff 	mov    -0x498(%rbp),%rax
   114f5:	48 c7 00 00 00 00 00 	movq   $0x0,(%rax)
   114fc:	83 bd ac fa ff ff 00 	cmpl   $0x0,-0x554(%rbp)
   11503:	0f 85 68 04 00 00    	jne    11971 <func_101+0x130c>
   11509:	48 8b 95 f8 fa ff ff 	mov    -0x508(%rbp),%rdx
   11510:	48 8b 85 70 fb ff ff 	mov    -0x490(%rbp),%rax
   11517:	48 89 10             	mov    %rdx,(%rax)
   1151a:	48 8b 85 70 fb ff ff 	mov    -0x490(%rbp),%rax
   11521:	48 8b 00             	mov    (%rax),%rax
   11524:	48 89 85 08 fb ff ff 	mov    %rax,-0x4f8(%rbp)
   1152b:	e9 7c 01 00 00       	jmpq   116ac <func_101+0x1047>
   11530:	c7 85 80 fa ff ff 00 	movl   $0x0,-0x580(%rbp)
   11537:	00 00 00 
   1153a:	eb 1e                	jmp    1155a <func_101+0xef5>
   1153c:	8b 85 80 fa ff ff    	mov    -0x580(%rbp),%eax
   11542:	48 98                	cltq   
   11544:	48 8d 15 47 af 00 00 	lea    0xaf47(%rip),%rdx        # 1c492 <g_442>
   1154b:	48 89 94 c5 60 fc ff 	mov    %rdx,-0x3a0(%rbp,%rax,8)
   11552:	ff 
   11553:	83 85 80 fa ff ff 01 	addl   $0x1,-0x580(%rbp)
   1155a:	83 bd 80 fa ff ff 04 	cmpl   $0x4,-0x580(%rbp)
   11561:	7e d9                	jle    1153c <func_101+0xed7>
   11563:	b8 38 82 50 51       	mov    $0x51508238,%eax
   11568:	85 c0                	test   %eax,%eax
   1156a:	74 13                	je     1157f <func_101+0xf1a>
   1156c:	48 8b 05 1d 09 01 00 	mov    0x1091d(%rip),%rax        # 21e90 <g_337>
   11573:	48 85 c0             	test   %rax,%rax
   11576:	74 07                	je     1157f <func_101+0xf1a>
   11578:	ba 01 00 00 00       	mov    $0x1,%edx
   1157d:	eb 05                	jmp    11584 <func_101+0xf1f>
   1157f:	ba 00 00 00 00       	mov    $0x0,%edx
   11584:	0f b6 85 44 fa ff ff 	movzbl -0x5bc(%rbp),%eax
   1158b:	0f be c0             	movsbl %al,%eax
   1158e:	31 d0                	xor    %edx,%eax
   11590:	48 63 d8             	movslq %eax,%rbx
   11593:	48 8b 05 ee aa 00 00 	mov    0xaaee(%rip),%rax        # 1c088 <g_200>
   1159a:	41 89 c4             	mov    %eax,%r12d
   1159d:	0f b6 85 44 fa ff ff 	movzbl -0x5bc(%rbp),%eax
   115a4:	0f be c0             	movsbl %al,%eax
   115a7:	be 04 00 00 00       	mov    $0x4,%esi
   115ac:	89 c7                	mov    %eax,%edi
   115ae:	e8 20 4e ff ff       	callq  63d3 <safe_sub_func_int16_t_s_s>
   115b3:	8b 85 ac fa ff ff    	mov    -0x554(%rbp),%eax
   115b9:	0f bf d0             	movswl %ax,%edx
   115bc:	0f b6 85 44 fa ff ff 	movzbl -0x5bc(%rbp),%eax
   115c3:	0f be c0             	movsbl %al,%eax
   115c6:	89 d6                	mov    %edx,%esi
   115c8:	89 c7                	mov    %eax,%edi
   115ca:	e8 04 4e ff ff       	callq  63d3 <safe_sub_func_int16_t_s_s>
   115cf:	0f b7 85 58 fa ff ff 	movzwl -0x5a8(%rbp),%eax
   115d6:	0f b6 c0             	movzbl %al,%eax
   115d9:	be 01 00 00 00       	mov    $0x1,%esi
   115de:	89 c7                	mov    %eax,%edi
   115e0:	e8 ae 55 ff ff       	callq  6b93 <safe_mul_func_uint8_t_u_u>
   115e5:	0f b6 c0             	movzbl %al,%eax
   115e8:	48 39 85 18 fb ff ff 	cmp    %rax,-0x4e8(%rbp)
   115ef:	0f 93 c0             	setae  %al
   115f2:	0f b6 c0             	movzbl %al,%eax
   115f5:	89 c2                	mov    %eax,%edx
   115f7:	0f b7 05 94 ae 00 00 	movzwl 0xae94(%rip),%eax        # 1c492 <g_442>
   115fe:	09 d0                	or     %edx,%eax
   11600:	66 89 05 8b ae 00 00 	mov    %ax,0xae8b(%rip)        # 1c492 <g_442>
   11607:	0f b7 05 84 ae 00 00 	movzwl 0xae84(%rip),%eax        # 1c492 <g_442>
   1160e:	0f b7 d0             	movzwl %ax,%edx
   11611:	48 8b 05 88 ae 00 00 	mov    0xae88(%rip),%rax        # 1c4a0 <g_448>
   11618:	48 c1 e0 05          	shl    $0x5,%rax
   1161c:	48 c1 f8 22          	sar    $0x22,%rax
   11620:	0f b7 c0             	movzwl %ax,%eax
   11623:	89 d6                	mov    %edx,%esi
   11625:	89 c7                	mov    %eax,%edi
   11627:	e8 d3 56 ff ff       	callq  6cff <safe_add_func_uint16_t_u_u>
   1162c:	44 89 e6             	mov    %r12d,%esi
   1162f:	bf 01 00 00 00       	mov    $0x1,%edi
   11634:	e8 fc 4c ff ff       	callq  6335 <safe_rshift_func_int8_t_s_s>
   11639:	3c 02                	cmp    $0x2,%al
   1163b:	0f 95 c0             	setne  %al
   1163e:	0f b6 c0             	movzbl %al,%eax
   11641:	89 85 ac fa ff ff    	mov    %eax,-0x554(%rbp)
   11647:	48 8b 85 d0 fa ff ff 	mov    -0x530(%rbp),%rax
   1164e:	8b 00                	mov    (%rax),%eax
   11650:	39 85 ac fa ff ff    	cmp    %eax,-0x554(%rbp)
   11656:	0f 9f c0             	setg   %al
   11659:	0f b6 c0             	movzbl %al,%eax
   1165c:	be 02 00 00 00       	mov    $0x2,%esi
   11661:	89 c7                	mov    %eax,%edi
   11663:	e8 56 57 ff ff       	callq  6dbe <safe_lshift_func_uint16_t_u_s>
   11668:	0f b7 c0             	movzwl %ax,%eax
   1166b:	39 85 b4 fa ff ff    	cmp    %eax,-0x54c(%rbp)
   11671:	76 07                	jbe    1167a <func_101+0x1015>
   11673:	b8 d9 10 00 00       	mov    $0x10d9,%eax
   11678:	eb 05                	jmp    1167f <func_101+0x101a>
   1167a:	b8 d8 10 00 00       	mov    $0x10d8,%eax
   1167f:	48 39 d8             	cmp    %rbx,%rax
   11682:	0f 95 c0             	setne  %al
   11685:	0f b6 c0             	movzbl %al,%eax
   11688:	be 0d 00 00 00       	mov    $0xd,%esi
   1168d:	89 c7                	mov    %eax,%edi
   1168f:	e8 b4 57 ff ff       	callq  6e48 <safe_rshift_func_uint16_t_u_s>
   11694:	0f be c0             	movsbl %al,%eax
   11697:	be 06 00 00 00       	mov    $0x6,%esi
   1169c:	89 c7                	mov    %eax,%edi
   1169e:	e8 6f 4b ff ff       	callq  6212 <safe_mul_func_int8_t_s_s>
   116a3:	0f be c0             	movsbl %al,%eax
   116a6:	21 85 b0 fa ff ff    	and    %eax,-0x550(%rbp)
   116ac:	8b 85 68 fa ff ff    	mov    -0x598(%rbp),%eax
   116b2:	85 c0                	test   %eax,%eax
   116b4:	0f 85 91 02 00 00    	jne    1194b <func_101+0x12e6>
   116ba:	0f b6 85 44 fa ff ff 	movzbl -0x5bc(%rbp),%eax
   116c1:	0f be c0             	movsbl %al,%eax
   116c4:	0f b6 95 44 fa ff ff 	movzbl -0x5bc(%rbp),%edx
   116cb:	0f be d2             	movsbl %dl,%edx
   116ce:	8d 4a 03             	lea    0x3(%rdx),%ecx
   116d1:	0f b7 15 a4 a9 00 00 	movzwl 0xa9a4(%rip),%edx        # 1c07c <g_156>
   116d8:	0f bf d2             	movswl %dx,%edx
   116db:	48 63 f2             	movslq %edx,%rsi
   116de:	48 98                	cltq   
   116e0:	48 63 c9             	movslq %ecx,%rcx
   116e3:	48 89 c2             	mov    %rax,%rdx
   116e6:	48 c1 e2 06          	shl    $0x6,%rdx
   116ea:	48 29 c2             	sub    %rax,%rdx
   116ed:	48 89 c8             	mov    %rcx,%rax
   116f0:	48 c1 e0 03          	shl    $0x3,%rax
   116f4:	48 01 c8             	add    %rcx,%rax
   116f7:	48 01 d0             	add    %rdx,%rax
   116fa:	48 01 f0             	add    %rsi,%rax
   116fd:	48 8d 0c 85 00 00 00 	lea    0x0(,%rax,4),%rcx
   11704:	00 
   11705:	48 8d 15 94 a9 00 00 	lea    0xa994(%rip),%rdx        # 1c0a0 <g_307>
   1170c:	8b 05 8e 82 00 00    	mov    0x828e(%rip),%eax        # 199a0 <l_475.4834+0x180>
   11712:	89 04 11             	mov    %eax,(%rcx,%rdx,1)
   11715:	c6 05 6d 07 01 00 fe 	movb   $0xfe,0x1076d(%rip)        # 21e89 <g_217>
   1171c:	90                   	nop
   1171d:	0f b6 05 65 07 01 00 	movzbl 0x10765(%rip),%eax        # 21e89 <g_217>
   11724:	3c 14                	cmp    $0x14,%al
   11726:	0f 84 23 02 00 00    	je     1194f <func_101+0x12ea>
   1172c:	48 8d 05 1d a9 00 00 	lea    0xa91d(%rip),%rax        # 1c050 <g_129>
   11733:	48 89 85 78 fb ff ff 	mov    %rax,-0x488(%rbp)
   1173a:	48 8d 05 03 ae 00 00 	lea    0xae03(%rip),%rax        # 1c544 <g_495+0x84>
   11741:	48 89 85 80 fb ff ff 	mov    %rax,-0x480(%rbp)
   11748:	0f b6 85 70 fa ff ff 	movzbl -0x590(%rbp),%eax
   1174f:	83 e0 c0             	and    $0xffffffc0,%eax
   11752:	88 85 70 fa ff ff    	mov    %al,-0x590(%rbp)
   11758:	0f b7 85 70 fa ff ff 	movzwl -0x590(%rbp),%eax
   1175f:	66 25 3f f0          	and    $0xf03f,%ax
   11763:	66 0d c0 01          	or     $0x1c0,%ax
   11767:	66 89 85 70 fa ff ff 	mov    %ax,-0x590(%rbp)
   1176e:	c7 85 74 fa ff ff 00 	movl   $0x0,-0x58c(%rbp)
   11775:	00 00 00 
   11778:	eb 51                	jmp    117cb <func_101+0x1166>
   1177a:	c7 85 78 fa ff ff 00 	movl   $0x0,-0x588(%rbp)
   11781:	00 00 00 
   11784:	eb 35                	jmp    117bb <func_101+0x1156>
   11786:	8b 85 78 fa ff ff    	mov    -0x588(%rbp),%eax
   1178c:	48 63 c8             	movslq %eax,%rcx
   1178f:	8b 85 74 fa ff ff    	mov    -0x58c(%rbp),%eax
   11795:	48 63 d0             	movslq %eax,%rdx
   11798:	48 89 d0             	mov    %rdx,%rax
   1179b:	48 c1 e0 02          	shl    $0x2,%rax
   1179f:	48 01 d0             	add    %rdx,%rax
   117a2:	48 01 c0             	add    %rax,%rax
   117a5:	48 01 c8             	add    %rcx,%rax
   117a8:	48 c7 84 c5 60 fc ff 	movq   $0x0,-0x3a0(%rbp,%rax,8)
   117af:	ff 00 00 00 00 
   117b4:	83 85 78 fa ff ff 01 	addl   $0x1,-0x588(%rbp)
   117bb:	83 bd 78 fa ff ff 09 	cmpl   $0x9,-0x588(%rbp)
   117c2:	7e c2                	jle    11786 <func_101+0x1121>
   117c4:	83 85 74 fa ff ff 01 	addl   $0x1,-0x58c(%rbp)
   117cb:	83 bd 74 fa ff ff 02 	cmpl   $0x2,-0x58c(%rbp)
   117d2:	7e a6                	jle    1177a <func_101+0x1115>
   117d4:	0f b6 05 c5 81 00 00 	movzbl 0x81c5(%rip),%eax        # 199a0 <l_475.4834+0x180>
   117db:	83 e0 3f             	and    $0x3f,%eax
   117de:	84 c0                	test   %al,%al
   117e0:	0f 85 68 01 00 00    	jne    1194e <func_101+0x12e9>
   117e6:	48 8b 15 ab f8 00 00 	mov    0xf8ab(%rip),%rdx        # 21098 <g_491>
   117ed:	48 8d 85 44 fa ff ff 	lea    -0x5bc(%rbp),%rax
   117f4:	48 39 c2             	cmp    %rax,%rdx
   117f7:	0f 95 c0             	setne  %al
   117fa:	0f b6 c0             	movzbl %al,%eax
   117fd:	be c8 f6 84 dc       	mov    $0xdc84f6c8,%esi
   11802:	89 c7                	mov    %eax,%edi
   11804:	e8 1c 57 ff ff       	callq  6f25 <safe_div_func_uint32_t_u_u>
   11809:	0f b6 c0             	movzbl %al,%eax
   1180c:	be fb 00 00 00       	mov    $0xfb,%esi
   11811:	89 c7                	mov    %eax,%edi
   11813:	e8 42 53 ff ff       	callq  6b5a <safe_add_func_uint8_t_u_u>
   11818:	b9 01 00 00 00       	mov    $0x1,%ecx
   1181d:	48 8b 85 78 fb ff ff 	mov    -0x488(%rbp),%rax
   11824:	0f b7 00             	movzwl (%rax),%eax
   11827:	89 c2                	mov    %eax,%edx
   11829:	89 c8                	mov    %ecx,%eax
   1182b:	09 d0                	or     %edx,%eax
   1182d:	89 c2                	mov    %eax,%edx
   1182f:	48 8b 85 78 fb ff ff 	mov    -0x488(%rbp),%rax
   11836:	66 89 10             	mov    %dx,(%rax)
   11839:	48 8b 85 78 fb ff ff 	mov    -0x488(%rbp),%rax
   11840:	0f b7 00             	movzwl (%rax),%eax
   11843:	66 85 c0             	test   %ax,%ax
   11846:	74 07                	je     1184f <func_101+0x11ea>
   11848:	b8 01 00 00 00       	mov    $0x1,%eax
   1184d:	eb 05                	jmp    11854 <func_101+0x11ef>
   1184f:	b8 00 00 00 00       	mov    $0x0,%eax
   11854:	0f b6 d0             	movzbl %al,%edx
   11857:	8b 05 ef a7 00 00    	mov    0xa7ef(%rip),%eax        # 1c04c <g_116>
   1185d:	0f b6 c0             	movzbl %al,%eax
   11860:	89 d6                	mov    %edx,%esi
   11862:	89 c7                	mov    %eax,%edi
   11864:	e8 45 53 ff ff       	callq  6bae <safe_mod_func_uint8_t_u_u>
   11869:	48 83 bd 30 fb ff ff 	cmpq   $0x0,-0x4d0(%rbp)
   11870:	00 
   11871:	48 8b 95 58 fb ff ff 	mov    -0x4a8(%rbp),%rdx
   11878:	48 8b 12             	mov    (%rdx),%rdx
   1187b:	48 8b 12             	mov    (%rdx),%rdx
   1187e:	48 8b 0a             	mov    (%rdx),%rcx
   11881:	0f b6 d0             	movzbl %al,%edx
   11884:	48 8b 85 58 fb ff ff 	mov    -0x4a8(%rbp),%rax
   1188b:	48 8b 00             	mov    (%rax),%rax
   1188e:	48 8b 00             	mov    (%rax),%rax
   11891:	48 09 ca             	or     %rcx,%rdx
   11894:	48 89 10             	mov    %rdx,(%rax)
   11897:	0f b6 85 44 fa ff ff 	movzbl -0x5bc(%rbp),%eax
   1189e:	0f b6 15 e3 05 01 00 	movzbl 0x105e3(%rip),%edx        # 21e88 <g_136>
   118a5:	31 d0                	xor    %edx,%eax
   118a7:	88 05 db 05 01 00    	mov    %al,0x105db(%rip)        # 21e88 <g_136>
   118ad:	0f b6 05 d4 05 01 00 	movzbl 0x105d4(%rip),%eax        # 21e88 <g_136>
   118b4:	0f b6 c0             	movzbl %al,%eax
   118b7:	be 07 00 00 00       	mov    $0x7,%esi
   118bc:	89 c7                	mov    %eax,%edi
   118be:	e8 89 53 ff ff       	callq  6c4c <safe_lshift_func_uint8_t_u_u>
   118c3:	0f b6 d0             	movzbl %al,%edx
   118c6:	0f b6 85 44 fa ff ff 	movzbl -0x5bc(%rbp),%eax
   118cd:	48 0f be c0          	movsbq %al,%rax
   118d1:	48 89 d6             	mov    %rdx,%rsi
   118d4:	48 89 c7             	mov    %rax,%rdi
   118d7:	e8 cc 4f ff ff       	callq  68a8 <safe_sub_func_int64_t_s_s>
   118dc:	0f bf d0             	movswl %ax,%edx
   118df:	0f b6 85 44 fa ff ff 	movzbl -0x5bc(%rbp),%eax
   118e6:	0f be c0             	movsbl %al,%eax
   118e9:	89 d6                	mov    %edx,%esi
   118eb:	89 c7                	mov    %eax,%edi
   118ed:	e8 63 4b ff ff       	callq  6455 <safe_div_func_int16_t_s_s>
   118f2:	48 8b 95 80 fb ff ff 	mov    -0x480(%rbp),%rdx
   118f9:	0f b7 12             	movzwl (%rdx),%edx
   118fc:	21 d0                	and    %edx,%eax
   118fe:	89 c2                	mov    %eax,%edx
   11900:	48 8b 85 80 fb ff ff 	mov    -0x480(%rbp),%rax
   11907:	66 89 10             	mov    %dx,(%rax)
   1190a:	48 8b 85 80 fb ff ff 	mov    -0x480(%rbp),%rax
   11911:	0f b7 00             	movzwl (%rax),%eax
   11914:	66 83 f8 03          	cmp    $0x3,%ax
   11918:	0f 97 c2             	seta   %dl
   1191b:	48 8b 05 6e f7 00 00 	mov    0xf76e(%rip),%rax        # 21090 <g_405>
   11922:	0f b6 d2             	movzbl %dl,%edx
   11925:	89 10                	mov    %edx,(%rax)
   11927:	8b 85 6c fa ff ff    	mov    -0x594(%rbp),%eax
   1192d:	89 85 70 fa ff ff    	mov    %eax,-0x590(%rbp)
   11933:	8b 85 70 fa ff ff    	mov    -0x590(%rbp),%eax
   11939:	89 85 64 fa ff ff    	mov    %eax,-0x59c(%rbp)
   1193f:	48 8b 05 e2 a6 00 00 	mov    0xa6e2(%rip),%rax        # 1c028 <g_52>
   11946:	e9 80 00 00 00       	jmpq   119cb <func_101+0x1366>
   1194b:	90                   	nop
   1194c:	eb 01                	jmp    1194f <func_101+0x12ea>
   1194e:	90                   	nop
   1194f:	0f b6 85 44 fa ff ff 	movzbl -0x5bc(%rbp),%eax
   11956:	83 e8 01             	sub    $0x1,%eax
   11959:	88 85 44 fa ff ff    	mov    %al,-0x5bc(%rbp)
   1195f:	0f b6 85 44 fa ff ff 	movzbl -0x5bc(%rbp),%eax
   11966:	84 c0                	test   %al,%al
   11968:	0f 89 a1 f6 ff ff    	jns    1100f <func_101+0x9aa>
   1196e:	eb 01                	jmp    11971 <func_101+0x130c>
   11970:	90                   	nop
   11971:	0f b7 05 04 a7 00 00 	movzwl 0xa704(%rip),%eax        # 1c07c <g_156>
   11978:	83 e8 01             	sub    $0x1,%eax
   1197b:	66 89 05 fa a6 00 00 	mov    %ax,0xa6fa(%rip)        # 1c07c <g_156>
   11982:	0f b7 05 f3 a6 00 00 	movzwl 0xa6f3(%rip),%eax        # 1c07c <g_156>
   11989:	66 85 c0             	test   %ax,%ax
   1198c:	0f 89 d6 f3 ff ff    	jns    10d68 <func_101+0x703>
   11992:	48 8b 05 8f a6 00 00 	mov    0xa68f(%rip),%rax        # 1c028 <g_52>
   11999:	0f be c0             	movsbl %al,%eax
   1199c:	be 08 00 00 00       	mov    $0x8,%esi
   119a1:	89 c7                	mov    %eax,%edi
   119a3:	e8 4a 48 ff ff       	callq  61f2 <safe_sub_func_int8_t_s_s>
   119a8:	48 0f be c0          	movsbq %al,%rax
   119ac:	48 89 05 75 a6 00 00 	mov    %rax,0xa675(%rip)        # 1c028 <g_52>
   119b3:	48 8b 05 6e a6 00 00 	mov    0xa66e(%rip),%rax        # 1c028 <g_52>
   119ba:	48 83 f8 f7          	cmp    $0xfffffffffffffff7,%rax
   119be:	0f 8d 81 f1 ff ff    	jge    10b45 <func_101+0x4e0>
   119c4:	48 8b 05 5d a6 00 00 	mov    0xa65d(%rip),%rax        # 1c028 <g_52>
   119cb:	48 8b 5d d8          	mov    -0x28(%rbp),%rbx
   119cf:	64 48 33 1c 25 28 00 	xor    %fs:0x28,%rbx
   119d6:	00 00 
   119d8:	74 05                	je     119df <func_101+0x137a>
   119da:	e8 91 46 ff ff       	callq  6070 <__stack_chk_fail@plt>
   119df:	48 81 c4 a8 05 00 00 	add    $0x5a8,%rsp
   119e6:	5b                   	pop    %rbx
   119e7:	41 5c                	pop    %r12
   119e9:	41 5d                	pop    %r13
   119eb:	5d                   	pop    %rbp
   119ec:	c3                   	retq   

00000000000119ed <func_121>:
   119ed:	f3 0f 1e fa          	endbr64 
   119f1:	55                   	push   %rbp
   119f2:	48 89 e5             	mov    %rsp,%rbp
   119f5:	41 55                	push   %r13
   119f7:	41 54                	push   %r12
   119f9:	53                   	push   %rbx
   119fa:	48 81 ec 00 10 00 00 	sub    $0x1000,%rsp
   11a01:	48 83 0c 24 00       	orq    $0x0,(%rsp)
   11a06:	48 81 ec f8 02 00 00 	sub    $0x2f8,%rsp
   11a0d:	48 89 bd 08 ed ff ff 	mov    %rdi,-0x12f8(%rbp)
   11a14:	89 b5 04 ed ff ff    	mov    %esi,-0x12fc(%rbp)
   11a1a:	48 89 95 f8 ec ff ff 	mov    %rdx,-0x1308(%rbp)
   11a21:	64 48 8b 04 25 28 00 	mov    %fs:0x28,%rax
   11a28:	00 00 
   11a2a:	48 89 45 d8          	mov    %rax,-0x28(%rbp)
   11a2e:	31 c0                	xor    %eax,%eax
   11a30:	c6 85 1e ed ff ff bb 	movb   $0xbb,-0x12e2(%rbp)
   11a37:	48 8d 05 0e a6 00 00 	lea    0xa60e(%rip),%rax        # 1c04c <g_116>
   11a3e:	48 89 85 d8 ed ff ff 	mov    %rax,-0x1228(%rbp)
   11a45:	48 8d 05 00 a6 00 00 	lea    0xa600(%rip),%rax        # 1c04c <g_116>
   11a4c:	48 89 85 a0 ef ff ff 	mov    %rax,-0x1060(%rbp)
   11a53:	48 8d 05 f2 a5 00 00 	lea    0xa5f2(%rip),%rax        # 1c04c <g_116>
   11a5a:	48 89 85 a8 ef ff ff 	mov    %rax,-0x1058(%rbp)
   11a61:	48 8d 05 e4 a5 00 00 	lea    0xa5e4(%rip),%rax        # 1c04c <g_116>
   11a68:	48 89 85 b0 ef ff ff 	mov    %rax,-0x1050(%rbp)
   11a6f:	48 8d 05 d6 a5 00 00 	lea    0xa5d6(%rip),%rax        # 1c04c <g_116>
   11a76:	48 89 85 b8 ef ff ff 	mov    %rax,-0x1048(%rbp)
   11a7d:	48 8d 05 c8 a5 00 00 	lea    0xa5c8(%rip),%rax        # 1c04c <g_116>
   11a84:	48 89 85 c0 ef ff ff 	mov    %rax,-0x1040(%rbp)
   11a8b:	48 8d 05 ba a5 00 00 	lea    0xa5ba(%rip),%rax        # 1c04c <g_116>
   11a92:	48 89 85 c8 ef ff ff 	mov    %rax,-0x1038(%rbp)
   11a99:	48 8d 05 ac a5 00 00 	lea    0xa5ac(%rip),%rax        # 1c04c <g_116>
   11aa0:	48 89 85 d0 ef ff ff 	mov    %rax,-0x1030(%rbp)
   11aa7:	48 8d 05 9e a5 00 00 	lea    0xa59e(%rip),%rax        # 1c04c <g_116>
   11aae:	48 89 85 d8 ef ff ff 	mov    %rax,-0x1028(%rbp)
   11ab5:	48 8d 85 a0 ef ff ff 	lea    -0x1060(%rbp),%rax
   11abc:	48 83 c0 38          	add    $0x38,%rax
   11ac0:	48 89 85 88 ed ff ff 	mov    %rax,-0x1278(%rbp)
   11ac7:	48 8d 05 ba 03 01 00 	lea    0x103ba(%rip),%rax        # 21e88 <g_136>
   11ace:	48 89 85 e0 ed ff ff 	mov    %rax,-0x1220(%rbp)
   11ad5:	48 8d 05 78 55 00 00 	lea    0x5578(%rip),%rax        # 17054 <g_143>
   11adc:	48 89 85 90 ed ff ff 	mov    %rax,-0x1270(%rbp)
   11ae3:	48 8d 85 90 ed ff ff 	lea    -0x1270(%rbp),%rax
   11aea:	48 89 85 98 ed ff ff 	mov    %rax,-0x1268(%rbp)
   11af1:	48 8d 85 98 ed ff ff 	lea    -0x1268(%rbp),%rax
   11af8:	48 89 85 e8 ed ff ff 	mov    %rax,-0x1218(%rbp)
   11aff:	48 8d 05 82 03 01 00 	lea    0x10382(%rip),%rax        # 21e88 <g_136>
   11b06:	48 89 85 f0 ed ff ff 	mov    %rax,-0x1210(%rbp)
   11b0d:	48 8d 85 c0 f2 ff ff 	lea    -0xd40(%rbp),%rax
   11b14:	48 8d 15 65 f2 00 00 	lea    0xf265(%rip),%rdx        # 20d80 <g_2170+0x1870>
   11b1b:	b9 60 00 00 00       	mov    $0x60,%ecx
   11b20:	48 89 c7             	mov    %rax,%rdi
   11b23:	48 89 d6             	mov    %rdx,%rsi
   11b26:	f3 48 a5             	rep movsq %ds:(%rsi),%es:(%rdi)
   11b29:	c7 85 28 ed ff ff f1 	movl   $0xe5eb64f1,-0x12d8(%rbp)
   11b30:	64 eb e5 
   11b33:	c7 85 2c ed ff ff 00 	movl   $0x0,-0x12d4(%rbp)
   11b3a:	00 00 00 
   11b3d:	0f b6 85 30 ed ff ff 	movzbl -0x12d0(%rbp),%eax
   11b44:	83 e0 c0             	and    $0xffffffc0,%eax
   11b47:	83 c8 06             	or     $0x6,%eax
   11b4a:	88 85 30 ed ff ff    	mov    %al,-0x12d0(%rbp)
   11b50:	0f b7 85 30 ed ff ff 	movzwl -0x12d0(%rbp),%eax
   11b57:	66 25 3f f0          	and    $0xf03f,%ax
   11b5b:	66 0d 40 0f          	or     $0xf40,%ax
   11b5f:	66 89 85 30 ed ff ff 	mov    %ax,-0x12d0(%rbp)
   11b66:	48 8d 05 1b f5 00 00 	lea    0xf51b(%rip),%rax        # 21088 <g_243>
   11b6d:	48 89 85 f8 ed ff ff 	mov    %rax,-0x1208(%rbp)
   11b74:	48 c7 85 d0 ed ff ff 	movq   $0xffffffffffffffff,-0x1230(%rbp)
   11b7b:	ff ff ff ff 
   11b7f:	c7 85 5c ed ff ff 01 	movl   $0x1,-0x12a4(%rbp)
   11b86:	00 00 00 
   11b89:	c7 85 60 ed ff ff 01 	movl   $0x1,-0x12a0(%rbp)
   11b90:	00 00 00 
   11b93:	c7 85 64 ed ff ff f8 	movl   $0xfffffff8,-0x129c(%rbp)
   11b9a:	ff ff ff 
   11b9d:	c7 85 68 ed ff ff 2d 	movl   $0xff903f2d,-0x1298(%rbp)
   11ba4:	3f 90 ff 
   11ba7:	48 8d 85 c0 f5 ff ff 	lea    -0xa40(%rbp),%rax
   11bae:	48 8d 15 ab 6a 00 00 	lea    0x6aab(%rip),%rdx        # 18660 <g_1804+0x1400>
   11bb5:	b9 69 00 00 00       	mov    $0x69,%ecx
   11bba:	48 89 c7             	mov    %rax,%rdi
   11bbd:	48 89 d6             	mov    %rdx,%rsi
   11bc0:	f3 48 a5             	rep movsq %ds:(%rsi),%es:(%rdi)
   11bc3:	48 8d 05 b2 a4 00 00 	lea    0xa4b2(%rip),%rax        # 1c07c <g_156>
   11bca:	48 89 85 00 ee ff ff 	mov    %rax,-0x1200(%rbp)
   11bd1:	48 8d 85 1e ed ff ff 	lea    -0x12e2(%rbp),%rax
   11bd8:	48 89 85 60 ef ff ff 	mov    %rax,-0x10a0(%rbp)
   11bdf:	48 8d 05 b2 a4 00 00 	lea    0xa4b2(%rip),%rax        # 1c098 <g_253>
   11be6:	48 89 85 68 ef ff ff 	mov    %rax,-0x1098(%rbp)
   11bed:	48 8d 85 1e ed ff ff 	lea    -0x12e2(%rbp),%rax
   11bf4:	48 89 85 70 ef ff ff 	mov    %rax,-0x1090(%rbp)
   11bfb:	48 8d 85 1e ed ff ff 	lea    -0x12e2(%rbp),%rax
   11c02:	48 89 85 78 ef ff ff 	mov    %rax,-0x1088(%rbp)
   11c09:	48 8d 05 88 a4 00 00 	lea    0xa488(%rip),%rax        # 1c098 <g_253>
   11c10:	48 89 85 80 ef ff ff 	mov    %rax,-0x1080(%rbp)
   11c17:	48 8d 85 1e ed ff ff 	lea    -0x12e2(%rbp),%rax
   11c1e:	48 89 85 88 ef ff ff 	mov    %rax,-0x1078(%rbp)
   11c25:	48 8d 85 1e ed ff ff 	lea    -0x12e2(%rbp),%rax
   11c2c:	48 89 85 90 ef ff ff 	mov    %rax,-0x1070(%rbp)
   11c33:	48 8d 85 c0 f5 ff ff 	lea    -0xa40(%rbp),%rax
   11c3a:	48 05 50 02 00 00    	add    $0x250,%rax
   11c40:	48 89 85 a0 ed ff ff 	mov    %rax,-0x1260(%rbp)
   11c47:	48 8d 85 a0 ed ff ff 	lea    -0x1260(%rbp),%rax
   11c4e:	48 89 85 08 ee ff ff 	mov    %rax,-0x11f8(%rbp)
   11c55:	0f b6 85 1e ed ff ff 	movzbl -0x12e2(%rbp),%eax
   11c5c:	66 98                	cbtw   
   11c5e:	0f b7 15 eb a3 00 00 	movzwl 0xa3eb(%rip),%edx        # 1c050 <g_129>
   11c65:	21 d0                	and    %edx,%eax
   11c67:	66 89 05 e2 a3 00 00 	mov    %ax,0xa3e2(%rip)        # 1c050 <g_129>
   11c6e:	0f b7 05 db a3 00 00 	movzwl 0xa3db(%rip),%eax        # 1c050 <g_129>
   11c75:	0f b7 d8             	movzwl %ax,%ebx
   11c78:	8b 85 04 ed ff ff    	mov    -0x12fc(%rbp),%eax
   11c7e:	98                   	cwtl   
   11c7f:	be 0f 00 00 00       	mov    $0xf,%esi
   11c84:	89 c7                	mov    %eax,%edi
   11c86:	e8 07 48 ff ff       	callq  6492 <safe_lshift_func_int16_t_s_s>
   11c8b:	98                   	cwtl   
   11c8c:	39 c3                	cmp    %eax,%ebx
   11c8e:	48 8b 85 88 ed ff ff 	mov    -0x1278(%rbp),%rax
   11c95:	48 8b 95 d8 ed ff ff 	mov    -0x1228(%rbp),%rdx
   11c9c:	48 89 10             	mov    %rdx,(%rax)
   11c9f:	48 8b 00             	mov    (%rax),%rax
   11ca2:	48 39 85 d8 ed ff ff 	cmp    %rax,-0x1228(%rbp)
   11ca9:	48 8b 85 e0 ed ff ff 	mov    -0x1220(%rbp),%rax
   11cb0:	c6 00 ff             	movb   $0xff,(%rax)
   11cb3:	48 8b 85 e8 ed ff ff 	mov    -0x1218(%rbp),%rax
   11cba:	48 c7 00 00 00 00 00 	movq   $0x0,(%rax)
   11cc1:	48 8b 85 08 ed ff ff 	mov    -0x12f8(%rbp),%rax
   11cc8:	c7 00 01 00 00 00    	movl   $0x1,(%rax)
   11cce:	c6 85 1e ed ff ff 07 	movb   $0x7,-0x12e2(%rbp)
   11cd5:	e9 be 1f 00 00       	jmpq   13c98 <func_121+0x22ab>
   11cda:	66 c7 85 22 ed ff ff 	movw   $0x4,-0x12de(%rbp)
   11ce1:	04 00 
   11ce3:	48 8d 05 92 a3 00 00 	lea    0xa392(%rip),%rax        # 1c07c <g_156>
   11cea:	48 89 85 e0 ef ff ff 	mov    %rax,-0x1020(%rbp)
   11cf1:	48 8d 05 84 a3 00 00 	lea    0xa384(%rip),%rax        # 1c07c <g_156>
   11cf8:	48 89 85 e8 ef ff ff 	mov    %rax,-0x1018(%rbp)
   11cff:	48 8d 05 76 a3 00 00 	lea    0xa376(%rip),%rax        # 1c07c <g_156>
   11d06:	48 89 85 f0 ef ff ff 	mov    %rax,-0x1010(%rbp)
   11d0d:	48 8d 05 68 a3 00 00 	lea    0xa368(%rip),%rax        # 1c07c <g_156>
   11d14:	48 89 85 f8 ef ff ff 	mov    %rax,-0x1008(%rbp)
   11d1b:	48 8d 05 5a a3 00 00 	lea    0xa35a(%rip),%rax        # 1c07c <g_156>
   11d22:	48 89 85 00 f0 ff ff 	mov    %rax,-0x1000(%rbp)
   11d29:	48 8d 05 4c a3 00 00 	lea    0xa34c(%rip),%rax        # 1c07c <g_156>
   11d30:	48 89 85 08 f0 ff ff 	mov    %rax,-0xff8(%rbp)
   11d37:	48 8d 05 3e a3 00 00 	lea    0xa33e(%rip),%rax        # 1c07c <g_156>
   11d3e:	48 89 85 10 f0 ff ff 	mov    %rax,-0xff0(%rbp)
   11d45:	48 8d 05 30 a3 00 00 	lea    0xa330(%rip),%rax        # 1c07c <g_156>
   11d4c:	48 89 85 18 f0 ff ff 	mov    %rax,-0xfe8(%rbp)
   11d53:	48 8d 05 22 a3 00 00 	lea    0xa322(%rip),%rax        # 1c07c <g_156>
   11d5a:	48 89 85 20 f0 ff ff 	mov    %rax,-0xfe0(%rbp)
   11d61:	48 8d 05 14 a3 00 00 	lea    0xa314(%rip),%rax        # 1c07c <g_156>
   11d68:	48 89 85 28 f0 ff ff 	mov    %rax,-0xfd8(%rbp)
   11d6f:	48 8d 05 06 a3 00 00 	lea    0xa306(%rip),%rax        # 1c07c <g_156>
   11d76:	48 89 85 30 f0 ff ff 	mov    %rax,-0xfd0(%rbp)
   11d7d:	48 8d 05 f8 a2 00 00 	lea    0xa2f8(%rip),%rax        # 1c07c <g_156>
   11d84:	48 89 85 38 f0 ff ff 	mov    %rax,-0xfc8(%rbp)
   11d8b:	48 8d 05 f6 00 01 00 	lea    0x100f6(%rip),%rax        # 21e88 <g_136>
   11d92:	48 89 85 30 ef ff ff 	mov    %rax,-0x10d0(%rbp)
   11d99:	48 8d 05 e8 00 01 00 	lea    0x100e8(%rip),%rax        # 21e88 <g_136>
   11da0:	48 89 85 38 ef ff ff 	mov    %rax,-0x10c8(%rbp)
   11da7:	48 8d 05 da 00 01 00 	lea    0x100da(%rip),%rax        # 21e88 <g_136>
   11dae:	48 89 85 40 ef ff ff 	mov    %rax,-0x10c0(%rbp)
   11db5:	48 8d 05 cc 00 01 00 	lea    0x100cc(%rip),%rax        # 21e88 <g_136>
   11dbc:	48 89 85 48 ef ff ff 	mov    %rax,-0x10b8(%rbp)
   11dc3:	48 8d 05 be 00 01 00 	lea    0x100be(%rip),%rax        # 21e88 <g_136>
   11dca:	48 89 85 50 ef ff ff 	mov    %rax,-0x10b0(%rbp)
   11dd1:	48 8d 05 b0 00 01 00 	lea    0x100b0(%rip),%rax        # 21e88 <g_136>
   11dd8:	48 89 85 58 ef ff ff 	mov    %rax,-0x10a8(%rbp)
   11ddf:	48 8d 85 a0 ef ff ff 	lea    -0x1060(%rbp),%rax
   11de6:	48 83 c0 38          	add    $0x38,%rax
   11dea:	48 89 85 a8 ed ff ff 	mov    %rax,-0x1258(%rbp)
   11df1:	48 8d 85 a8 ed ff ff 	lea    -0x1258(%rbp),%rax
   11df8:	48 89 85 10 ee ff ff 	mov    %rax,-0x11f0(%rbp)
   11dff:	c7 85 34 ed ff ff a2 	movl   $0xf29b7a2,-0x12cc(%rbp)
   11e06:	b7 29 0f 
   11e09:	48 c7 85 18 ee ff ff 	movq   $0x0,-0x11e8(%rbp)
   11e10:	00 00 00 00 
   11e14:	c7 85 38 ed ff ff 06 	movl   $0x6,-0x12c8(%rbp)
   11e1b:	00 00 00 
   11e1e:	c7 85 3c ed ff ff 05 	movl   $0x5,-0x12c4(%rbp)
   11e25:	00 00 00 
   11e28:	c7 85 40 ed ff ff fc 	movl   $0xfffffffc,-0x12c0(%rbp)
   11e2f:	ff ff ff 
   11e32:	c7 85 58 ed ff ff fc 	movl   $0xfffffffc,-0x12a8(%rbp)
   11e39:	ff ff ff 
   11e3c:	48 c7 85 20 ee ff ff 	movq   $0x0,-0x11e0(%rbp)
   11e43:	00 00 00 00 
   11e47:	48 8d 05 4e a2 00 00 	lea    0xa24e(%rip),%rax        # 1c09c <g_266>
   11e4e:	48 89 85 28 ee ff ff 	mov    %rax,-0x11d8(%rbp)
   11e55:	48 8d 05 40 a2 00 00 	lea    0xa240(%rip),%rax        # 1c09c <g_266>
   11e5c:	48 89 85 40 f0 ff ff 	mov    %rax,-0xfc0(%rbp)
   11e63:	48 8d 05 32 a2 00 00 	lea    0xa232(%rip),%rax        # 1c09c <g_266>
   11e6a:	48 89 85 48 f0 ff ff 	mov    %rax,-0xfb8(%rbp)
   11e71:	48 8d 05 bc a1 00 00 	lea    0xa1bc(%rip),%rax        # 1c034 <g_57+0x4>
   11e78:	48 89 85 50 f0 ff ff 	mov    %rax,-0xfb0(%rbp)
   11e7f:	48 c7 85 58 f0 ff ff 	movq   $0x0,-0xfa8(%rbp)
   11e86:	00 00 00 00 
   11e8a:	48 8d 05 b3 a1 00 00 	lea    0xa1b3(%rip),%rax        # 1c044 <g_57+0x14>
   11e91:	48 89 85 60 f0 ff ff 	mov    %rax,-0xfa0(%rbp)
   11e98:	48 8d 85 38 ed ff ff 	lea    -0x12c8(%rbp),%rax
   11e9f:	48 89 85 68 f0 ff ff 	mov    %rax,-0xf98(%rbp)
   11ea6:	48 8d 05 ef a1 00 00 	lea    0xa1ef(%rip),%rax        # 1c09c <g_266>
   11ead:	48 89 85 70 f0 ff ff 	mov    %rax,-0xf90(%rbp)
   11eb4:	48 8d 05 e1 a1 00 00 	lea    0xa1e1(%rip),%rax        # 1c09c <g_266>
   11ebb:	48 89 85 78 f0 ff ff 	mov    %rax,-0xf88(%rbp)
   11ec2:	48 8d 85 38 ed ff ff 	lea    -0x12c8(%rbp),%rax
   11ec9:	48 89 85 80 f0 ff ff 	mov    %rax,-0xf80(%rbp)
   11ed0:	48 8d 05 6d a1 00 00 	lea    0xa16d(%rip),%rax        # 1c044 <g_57+0x14>
   11ed7:	48 89 85 88 f0 ff ff 	mov    %rax,-0xf78(%rbp)
   11ede:	48 c7 85 90 f0 ff ff 	movq   $0x0,-0xf70(%rbp)
   11ee5:	00 00 00 00 
   11ee9:	48 8d 05 44 a1 00 00 	lea    0xa144(%rip),%rax        # 1c034 <g_57+0x4>
   11ef0:	48 89 85 98 f0 ff ff 	mov    %rax,-0xf68(%rbp)
   11ef7:	48 8d 05 9e a1 00 00 	lea    0xa19e(%rip),%rax        # 1c09c <g_266>
   11efe:	48 89 85 a0 f0 ff ff 	mov    %rax,-0xf60(%rbp)
   11f05:	48 8d 05 90 a1 00 00 	lea    0xa190(%rip),%rax        # 1c09c <g_266>
   11f0c:	48 89 85 a8 f0 ff ff 	mov    %rax,-0xf58(%rbp)
   11f13:	48 8d 05 82 a1 00 00 	lea    0xa182(%rip),%rax        # 1c09c <g_266>
   11f1a:	48 89 85 b0 f0 ff ff 	mov    %rax,-0xf50(%rbp)
   11f21:	66 c7 85 24 ed ff ff 	movw   $0x7,-0x12dc(%rbp)
   11f28:	07 00 
   11f2a:	8b 85 04 ed ff ff    	mov    -0x12fc(%rbp),%eax
   11f30:	0f b7 c0             	movzwl %ax,%eax
   11f33:	be 0b 00 00 00       	mov    $0xb,%esi
   11f38:	89 c7                	mov    %eax,%edi
   11f3a:	e8 c7 4e ff ff       	callq  6e06 <safe_lshift_func_uint16_t_u_u>
   11f3f:	0f b7 05 e0 a0 00 00 	movzwl 0xa0e0(%rip),%eax        # 1c026 <g_23>
   11f46:	0f b7 d8             	movzwl %ax,%ebx
   11f49:	48 8b 05 d8 a0 00 00 	mov    0xa0d8(%rip),%rax        # 1c028 <g_52>
   11f50:	44 0f bf e0          	movswl %ax,%r12d
   11f54:	8b 85 04 ed ff ff    	mov    -0x12fc(%rbp),%eax
   11f5a:	98                   	cwtl   
   11f5b:	be 06 00 00 00       	mov    $0x6,%esi
   11f60:	89 c7                	mov    %eax,%edi
   11f62:	e8 c3 45 ff ff       	callq  652a <safe_rshift_func_int16_t_s_s>
   11f67:	44 0f bf e8          	movswl %ax,%r13d
   11f6b:	0f b6 85 1e ed ff ff 	movzbl -0x12e2(%rbp),%eax
   11f72:	0f b6 d0             	movzbl %al,%edx
   11f75:	0f b7 85 22 ed ff ff 	movzwl -0x12de(%rbp),%eax
   11f7c:	0f b6 c0             	movzbl %al,%eax
   11f7f:	89 d6                	mov    %edx,%esi
   11f81:	89 c7                	mov    %eax,%edi
   11f83:	e8 26 4c ff ff       	callq  6bae <safe_mod_func_uint8_t_u_u>
   11f88:	0f b6 c0             	movzbl %al,%eax
   11f8b:	41 39 c5             	cmp    %eax,%r13d
   11f8e:	0f 9d c0             	setge  %al
   11f91:	0f b6 c0             	movzbl %al,%eax
   11f94:	44 89 e6             	mov    %r12d,%esi
   11f97:	89 c7                	mov    %eax,%edi
   11f99:	e8 57 44 ff ff       	callq  63f5 <safe_mul_func_int16_t_s_s>
   11f9e:	0f b6 c0             	movzbl %al,%eax
   11fa1:	89 de                	mov    %ebx,%esi
   11fa3:	89 c7                	mov    %eax,%edi
   11fa5:	e8 e3 4c ff ff       	callq  6c8d <safe_rshift_func_uint8_t_u_s>
   11faa:	0f b6 c0             	movzbl %al,%eax
   11fad:	66 39 85 22 ed ff ff 	cmp    %ax,-0x12de(%rbp)
   11fb4:	0f 97 c0             	seta   %al
   11fb7:	0f b6 d0             	movzbl %al,%edx
   11fba:	b8 38 82 50 51       	mov    $0x51508238,%eax
   11fbf:	85 c0                	test   %eax,%eax
   11fc1:	0f 94 c0             	sete   %al
   11fc4:	0f b6 c0             	movzbl %al,%eax
   11fc7:	39 85 04 ed ff ff    	cmp    %eax,-0x12fc(%rbp)
   11fcd:	0f 95 c0             	setne  %al
   11fd0:	0f b6 c0             	movzbl %al,%eax
   11fd3:	66 89 05 a2 a0 00 00 	mov    %ax,0xa0a2(%rip)        # 1c07c <g_156>
   11fda:	0f b7 05 9b a0 00 00 	movzwl 0xa09b(%rip),%eax        # 1c07c <g_156>
   11fe1:	98                   	cwtl   
   11fe2:	39 c2                	cmp    %eax,%edx
   11fe4:	81 bd 04 ed ff ff 31 	cmpl   $0xdd3ce231,-0x12fc(%rbp)
   11feb:	e2 3c dd 
   11fee:	0f 86 d1 0e 00 00    	jbe    12ec5 <func_121+0x14d8>
   11ff4:	48 8d 85 88 ed ff ff 	lea    -0x1278(%rbp),%rax
   11ffb:	48 89 85 40 ee ff ff 	mov    %rax,-0x11c0(%rbp)
   12002:	c7 85 70 ed ff ff fa 	movl   $0xfffffffa,-0x1290(%rbp)
   12009:	ff ff ff 
   1200c:	c7 85 44 ed ff ff 01 	movl   $0x1,-0x12bc(%rbp)
   12013:	00 00 00 
   12016:	48 c7 85 48 ee ff ff 	movq   $0x0,-0x11b8(%rbp)
   1201d:	00 00 00 00 
   12021:	48 c7 85 b0 ed ff ff 	movq   $0x0,-0x1250(%rbp)
   12028:	00 00 00 00 
   1202c:	48 8d 85 b0 ed ff ff 	lea    -0x1250(%rbp),%rax
   12033:	48 89 85 50 ee ff ff 	mov    %rax,-0x11b0(%rbp)
   1203a:	48 8d 05 17 50 00 00 	lea    0x5017(%rip),%rax        # 17058 <g_240>
   12041:	48 89 85 b8 ed ff ff 	mov    %rax,-0x1248(%rbp)
   12048:	48 8d 85 b8 ed ff ff 	lea    -0x1248(%rbp),%rax
   1204f:	48 89 85 58 ee ff ff 	mov    %rax,-0x11a8(%rbp)
   12056:	48 8d 05 fb 4f 00 00 	lea    0x4ffb(%rip),%rax        # 17058 <g_240>
   1205d:	48 89 85 c0 ed ff ff 	mov    %rax,-0x1240(%rbp)
   12064:	48 8d 85 c0 ed ff ff 	lea    -0x1240(%rbp),%rax
   1206b:	48 89 85 60 ee ff ff 	mov    %rax,-0x11a0(%rbp)
   12072:	48 8d 05 10 fe 00 00 	lea    0xfe10(%rip),%rax        # 21e89 <g_217>
   12079:	48 89 85 68 ee ff ff 	mov    %rax,-0x1198(%rbp)
   12080:	48 8d 05 11 a0 00 00 	lea    0xa011(%rip),%rax        # 1c098 <g_253>
   12087:	48 89 85 70 ee ff ff 	mov    %rax,-0x1190(%rbp)
   1208e:	c7 85 74 ed ff ff e2 	movl   $0xabb773e2,-0x128c(%rbp)
   12095:	73 b7 ab 
   12098:	c7 85 78 ed ff ff 00 	movl   $0x0,-0x1288(%rbp)
   1209f:	00 00 00 
   120a2:	c6 85 1f ed ff ff cc 	movb   $0xcc,-0x12e1(%rbp)
   120a9:	c7 85 4c ed ff ff 00 	movl   $0x0,-0x12b4(%rbp)
   120b0:	00 00 00 
   120b3:	eb 19                	jmp    120ce <func_121+0x6e1>
   120b5:	8b 85 4c ed ff ff    	mov    -0x12b4(%rbp),%eax
   120bb:	48 98                	cltq   
   120bd:	66 c7 84 45 fa ee ff 	movw   $0x1,-0x1106(%rbp,%rax,2)
   120c4:	ff 01 00 
   120c7:	83 85 4c ed ff ff 01 	addl   $0x1,-0x12b4(%rbp)
   120ce:	83 bd 4c ed ff ff 04 	cmpl   $0x4,-0x12b4(%rbp)
   120d5:	7e de                	jle    120b5 <func_121+0x6c8>
   120d7:	c7 85 4c ed ff ff 00 	movl   $0x0,-0x12b4(%rbp)
   120de:	00 00 00 
   120e1:	eb 42                	jmp    12125 <func_121+0x738>
   120e3:	c7 85 50 ed ff ff 00 	movl   $0x0,-0x12b0(%rbp)
   120ea:	00 00 00 
   120ed:	eb 26                	jmp    12115 <func_121+0x728>
   120ef:	8b 85 50 ed ff ff    	mov    -0x12b0(%rbp),%eax
   120f5:	48 63 d0             	movslq %eax,%rdx
   120f8:	8b 85 4c ed ff ff    	mov    -0x12b4(%rbp),%eax
   120fe:	48 98                	cltq   
   12100:	48 01 d0             	add    %rdx,%rax
   12103:	c7 84 85 04 ef ff ff 	movl   $0x743b2d01,-0x10fc(%rbp,%rax,4)
   1210a:	01 2d 3b 74 
   1210e:	83 85 50 ed ff ff 01 	addl   $0x1,-0x12b0(%rbp)
   12115:	83 bd 50 ed ff ff 00 	cmpl   $0x0,-0x12b0(%rbp)
   1211c:	7e d1                	jle    120ef <func_121+0x702>
   1211e:	83 85 4c ed ff ff 01 	addl   $0x1,-0x12b4(%rbp)
   12125:	83 bd 4c ed ff ff 02 	cmpl   $0x2,-0x12b4(%rbp)
   1212c:	7e b5                	jle    120e3 <func_121+0x6f6>
   1212e:	66 c7 85 22 ed ff ff 	movw   $0x2,-0x12de(%rbp)
   12135:	02 00 
   12137:	e9 b2 02 00 00       	jmpq   123ee <func_121+0xa01>
   1213c:	c7 85 80 ed ff ff 62 	movl   $0x4c3a9362,-0x1280(%rbp)
   12143:	93 3a 4c 
   12146:	48 8d 05 33 9f 00 00 	lea    0x9f33(%rip),%rax        # 1c080 <g_176>
   1214d:	48 89 85 e0 ee ff ff 	mov    %rax,-0x1120(%rbp)
   12154:	c7 85 c8 ed ff ff fb 	movl   $0xfffffffb,-0x1238(%rbp)
   1215b:	ff ff ff 
   1215e:	48 8d 05 24 fd 00 00 	lea    0xfd24(%rip),%rax        # 21e89 <g_217>
   12165:	48 89 85 e8 ee ff ff 	mov    %rax,-0x1118(%rbp)
   1216c:	48 8d 85 c8 ed ff ff 	lea    -0x1238(%rbp),%rax
   12173:	48 89 85 f0 ee ff ff 	mov    %rax,-0x1110(%rbp)
   1217a:	48 8d 95 c0 f0 ff ff 	lea    -0xf40(%rbp),%rdx
   12181:	b8 00 00 00 00       	mov    $0x0,%eax
   12186:	b9 3f 00 00 00       	mov    $0x3f,%ecx
   1218b:	48 89 d7             	mov    %rdx,%rdi
   1218e:	f3 48 ab             	rep stos %rax,%es:(%rdi)
   12191:	c7 85 84 ed ff ff e0 	movl   $0x93b5cbe0,-0x127c(%rbp)
   12198:	cb b5 93 
   1219b:	48 8d 85 10 f9 ff ff 	lea    -0x6f0(%rbp),%rax
   121a2:	48 8d 15 17 68 00 00 	lea    0x6817(%rip),%rdx        # 189c0 <g_1804+0x1760>
   121a9:	b9 7e 00 00 00       	mov    $0x7e,%ecx
   121ae:	48 89 c7             	mov    %rax,%rdi
   121b1:	48 89 d6             	mov    %rdx,%rsi
   121b4:	f3 48 a5             	rep movsq %ds:(%rsi),%es:(%rdi)
   121b7:	48 8b 85 08 ed ff ff 	mov    -0x12f8(%rbp),%rax
   121be:	8b 10                	mov    (%rax),%edx
   121c0:	8b 85 34 ed ff ff    	mov    -0x12cc(%rbp),%eax
   121c6:	31 d0                	xor    %edx,%eax
   121c8:	89 85 34 ed ff ff    	mov    %eax,-0x12cc(%rbp)
   121ce:	8b 9d 04 ed ff ff    	mov    -0x12fc(%rbp),%ebx
   121d4:	48 8b 85 08 ed ff ff 	mov    -0x12f8(%rbp),%rax
   121db:	8b 00                	mov    (%rax),%eax
   121dd:	41 89 c5             	mov    %eax,%r13d
   121e0:	44 8b a5 80 ed ff ff 	mov    -0x1280(%rbp),%r12d
   121e7:	8b 95 04 ed ff ff    	mov    -0x12fc(%rbp),%edx
   121ed:	0f b6 05 94 fc 00 00 	movzbl 0xfc94(%rip),%eax        # 21e88 <g_136>
   121f4:	0f b6 c0             	movzbl %al,%eax
   121f7:	48 89 05 82 9e 00 00 	mov    %rax,0x9e82(%rip)        # 1c080 <g_176>
   121fe:	48 8b 05 7b 9e 00 00 	mov    0x9e7b(%rip),%rax        # 1c080 <g_176>
   12205:	48 89 d6             	mov    %rdx,%rsi
   12208:	48 89 c7             	mov    %rax,%rdi
   1220b:	e8 3b 4e ff ff       	callq  704b <safe_sub_func_uint64_t_u_u>
   12210:	98                   	cwtl   
   12211:	44 89 e6             	mov    %r12d,%esi
   12214:	89 c7                	mov    %eax,%edi
   12216:	e8 48 43 ff ff       	callq  6563 <safe_rshift_func_int16_t_s_u>
   1221b:	0f be c0             	movsbl %al,%eax
   1221e:	be 05 00 00 00       	mov    $0x5,%esi
   12223:	89 c7                	mov    %eax,%edi
   12225:	e8 77 40 ff ff       	callq  62a1 <safe_lshift_func_int8_t_s_s>
   1222a:	0f b7 05 1f 9e 00 00 	movzwl 0x9e1f(%rip),%eax        # 1c050 <g_129>
   12231:	44 0f b7 e0          	movzwl %ax,%r12d
   12235:	0f b6 05 4c fc 00 00 	movzbl 0xfc4c(%rip),%eax        # 21e88 <g_136>
   1223c:	0f b6 d0             	movzbl %al,%edx
   1223f:	48 c7 05 3e 9e 00 00 	movq   $0x1,0x9e3e(%rip)        # 1c088 <g_200>
   12246:	01 00 00 00 
   1224a:	48 8b 85 08 ed ff ff 	mov    -0x12f8(%rbp),%rax
   12251:	8b 08                	mov    (%rax),%ecx
   12253:	8b 85 c8 ed ff ff    	mov    -0x1238(%rbp),%eax
   12259:	39 c1                	cmp    %eax,%ecx
   1225b:	0f 9f c0             	setg   %al
   1225e:	0f b6 c0             	movzbl %al,%eax
   12261:	39 85 04 ed ff ff    	cmp    %eax,-0x12fc(%rbp)
   12267:	0f 96 c0             	setbe  %al
   1226a:	0f b6 c0             	movzbl %al,%eax
   1226d:	89 d6                	mov    %edx,%esi
   1226f:	89 c7                	mov    %eax,%edi
   12271:	e8 5d 41 ff ff       	callq  63d3 <safe_sub_func_int16_t_s_s>
   12276:	98                   	cwtl   
   12277:	8b 15 cf 9d 00 00    	mov    0x9dcf(%rip),%edx        # 1c04c <g_116>
   1227d:	89 c6                	mov    %eax,%esi
   1227f:	89 d7                	mov    %edx,%edi
   12281:	e8 79 44 ff ff       	callq  66ff <safe_div_func_int32_t_s_s>
   12286:	39 85 04 ed ff ff    	cmp    %eax,-0x12fc(%rbp)
   1228c:	0f 97 c0             	seta   %al
   1228f:	0f b6 c0             	movzbl %al,%eax
   12292:	44 89 e6             	mov    %r12d,%esi
   12295:	89 c7                	mov    %eax,%edi
   12297:	e8 ac 4b ff ff       	callq  6e48 <safe_rshift_func_uint16_t_u_s>
   1229c:	0f b7 d0             	movzwl %ax,%edx
   1229f:	0f b6 85 1e ed ff ff 	movzbl -0x12e2(%rbp),%eax
   122a6:	0f be c0             	movsbl %al,%eax
   122a9:	89 d6                	mov    %edx,%esi
   122ab:	89 c7                	mov    %eax,%edi
   122ad:	e8 2f 42 ff ff       	callq  64e1 <safe_lshift_func_int16_t_s_u>
   122b2:	0f b6 95 1e ed ff ff 	movzbl -0x12e2(%rbp),%edx
   122b9:	48 8b 85 10 ee ff ff 	mov    -0x11f0(%rbp),%rax
   122c0:	48 8b 00             	mov    (%rax),%rax
   122c3:	48 8b 00             	mov    (%rax),%rax
   122c6:	0f be d2             	movsbl %dl,%edx
   122c9:	89 10                	mov    %edx,(%rax)
   122cb:	8b 10                	mov    (%rax),%edx
   122cd:	0f b7 05 52 9d 00 00 	movzwl 0x9d52(%rip),%eax        # 1c026 <g_23>
   122d4:	0f b7 c0             	movzwl %ax,%eax
   122d7:	09 d0                	or     %edx,%eax
   122d9:	89 c0                	mov    %eax,%eax
   122db:	48 89 05 9e 9d 00 00 	mov    %rax,0x9d9e(%rip)        # 1c080 <g_176>
   122e2:	48 8b 85 60 f5 ff ff 	mov    -0xaa0(%rbp),%rax
   122e9:	48 85 c0             	test   %rax,%rax
   122ec:	0f 95 c0             	setne  %al
   122ef:	0f b6 c0             	movzbl %al,%eax
   122f2:	44 89 ee             	mov    %r13d,%esi
   122f5:	89 c7                	mov    %eax,%edi
   122f7:	e8 d4 4b ff ff       	callq  6ed0 <safe_sub_func_uint32_t_u_u>
   122fc:	0f be c0             	movsbl %al,%eax
   122ff:	89 de                	mov    %ebx,%esi
   12301:	89 c7                	mov    %eax,%edi
   12303:	e8 99 3f ff ff       	callq  62a1 <safe_lshift_func_int8_t_s_s>
   12308:	48 8b 85 08 ed ff ff 	mov    -0x12f8(%rbp),%rax
   1230f:	c7 00 00 00 00 00    	movl   $0x0,(%rax)
   12315:	0f b7 05 0a 9d 00 00 	movzwl 0x9d0a(%rip),%eax        # 1c026 <g_23>
   1231c:	0f b7 d8             	movzwl %ax,%ebx
   1231f:	48 8b 05 62 9d 00 00 	mov    0x9d62(%rip),%rax        # 1c088 <g_200>
   12326:	44 0f bf e0          	movswl %ax,%r12d
   1232a:	0f b7 95 22 ed ff ff 	movzwl -0x12de(%rbp),%edx
   12331:	48 8d 85 a0 ef ff ff 	lea    -0x1060(%rbp),%rax
   12338:	48 63 d2             	movslq %edx,%rdx
   1233b:	48 c1 e2 03          	shl    $0x3,%rdx
   1233f:	48 01 d0             	add    %rdx,%rax
   12342:	48 89 85 18 ee ff ff 	mov    %rax,-0x11e8(%rbp)
   12349:	ba 01 00 00 00       	mov    $0x1,%edx
   1234e:	0f b7 85 fa ee ff ff 	movzwl -0x1106(%rbp),%eax
   12355:	98                   	cwtl   
   12356:	39 c2                	cmp    %eax,%edx
   12358:	0f 9f c0             	setg   %al
   1235b:	0f b6 d0             	movzbl %al,%edx
   1235e:	0f b7 85 02 ef ff ff 	movzwl -0x10fe(%rbp),%eax
   12365:	98                   	cwtl   
   12366:	39 c2                	cmp    %eax,%edx
   12368:	0f 9e c0             	setle  %al
   1236b:	0f b6 c0             	movzbl %al,%eax
   1236e:	be 01 00 00 00       	mov    $0x1,%esi
   12373:	89 c7                	mov    %eax,%edi
   12375:	e8 39 40 ff ff       	callq  63b3 <safe_add_func_int16_t_s_s>
   1237a:	be 03 00 00 00       	mov    $0x3,%esi
   1237f:	bf 01 00 00 00       	mov    $0x1,%edi
   12384:	e8 e3 3f ff ff       	callq  636c <safe_rshift_func_int8_t_s_u>
   12389:	48 0f be d0          	movsbq %al,%rdx
   1238d:	48 8b 05 ec 9c 00 00 	mov    0x9cec(%rip),%rax        # 1c080 <g_176>
   12394:	48 39 c2             	cmp    %rax,%rdx
   12397:	0f 95 c0             	setne  %al
   1239a:	0f b6 c0             	movzbl %al,%eax
   1239d:	89 c7                	mov    %eax,%edi
   1239f:	e8 f2 41 ff ff       	callq  6596 <safe_unary_minus_func_int32_t_s>
   123a4:	0f b6 05 dd fa 00 00 	movzbl 0xfadd(%rip),%eax        # 21e88 <g_136>
   123ab:	89 c2                	mov    %eax,%edx
   123ad:	48 8b 85 e8 ee ff ff 	mov    -0x1118(%rbp),%rax
   123b4:	88 10                	mov    %dl,(%rax)
   123b6:	44 89 e6             	mov    %r12d,%esi
   123b9:	bf 01 00 00 00       	mov    $0x1,%edi
   123be:	e8 92 40 ff ff       	callq  6455 <safe_div_func_int16_t_s_s>
   123c3:	98                   	cwtl   
   123c4:	89 de                	mov    %ebx,%esi
   123c6:	89 c7                	mov    %eax,%edi
   123c8:	e8 14 41 ff ff       	callq  64e1 <safe_lshift_func_int16_t_s_u>
   123cd:	98                   	cwtl   
   123ce:	23 85 04 ed ff ff    	and    -0x12fc(%rbp),%eax
   123d4:	89 c2                	mov    %eax,%edx
   123d6:	48 8b 85 08 ed ff ff 	mov    -0x12f8(%rbp),%rax
   123dd:	89 10                	mov    %edx,(%rax)
   123df:	83 85 58 ed ff ff 01 	addl   $0x1,-0x12a8(%rbp)
   123e6:	66 83 85 22 ed ff ff 	addw   $0x1,-0x12de(%rbp)
   123ed:	01 
   123ee:	66 83 bd 22 ed ff ff 	cmpw   $0x7,-0x12de(%rbp)
   123f5:	07 
   123f6:	0f 86 40 fd ff ff    	jbe    1213c <func_121+0x74f>
   123fc:	0f b6 85 1e ed ff ff 	movzbl -0x12e2(%rbp),%eax
   12403:	0f be d8             	movsbl %al,%ebx
   12406:	48 8d 85 98 ed ff ff 	lea    -0x1268(%rbp),%rax
   1240d:	48 39 85 40 ee ff ff 	cmp    %rax,-0x11c0(%rbp)
   12414:	0f 95 c0             	setne  %al
   12417:	89 c2                	mov    %eax,%edx
   12419:	48 8b 85 68 ee ff ff 	mov    -0x1198(%rbp),%rax
   12420:	88 10                	mov    %dl,(%rax)
   12422:	48 8b 85 08 ed ff ff 	mov    -0x12f8(%rbp),%rax
   12429:	8b 00                	mov    (%rax),%eax
   1242b:	48 98                	cltq   
   1242d:	48 89 c6             	mov    %rax,%rsi
   12430:	48 bf 48 71 30 b5 38 	movabs $0x3bbda338b5307148,%rdi
   12437:	a3 bd 3b 
   1243a:	e8 ef 4b ff ff       	callq  702e <safe_add_func_uint64_t_u_u>
   1243f:	0f be c0             	movsbl %al,%eax
   12442:	89 c6                	mov    %eax,%esi
   12444:	bf 04 00 00 00       	mov    $0x4,%edi
   12449:	e8 1c 3e ff ff       	callq  626a <safe_div_func_int8_t_s_s>
   1244e:	0f be c0             	movsbl %al,%eax
   12451:	be 06 00 00 00       	mov    $0x6,%esi
   12456:	89 c7                	mov    %eax,%edi
   12458:	e8 84 40 ff ff       	callq  64e1 <safe_lshift_func_int16_t_s_u>
   1245d:	89 c1                	mov    %eax,%ecx
   1245f:	48 8b 85 50 ee ff ff 	mov    -0x11b0(%rbp),%rax
   12466:	48 8d 15 bb 9b 00 00 	lea    0x9bbb(%rip),%rdx        # 1c028 <g_52>
   1246d:	48 89 10             	mov    %rdx,(%rax)
   12470:	48 8b 85 50 ee ff ff 	mov    -0x11b0(%rbp),%rax
   12477:	48 8b 10             	mov    (%rax),%rdx
   1247a:	48 8b 85 58 ee ff ff 	mov    -0x11a8(%rbp),%rax
   12481:	48 89 10             	mov    %rdx,(%rax)
   12484:	48 8b 85 58 ee ff ff 	mov    -0x11a8(%rbp),%rax
   1248b:	48 8b 10             	mov    (%rax),%rdx
   1248e:	48 8b 85 60 ee ff ff 	mov    -0x11a0(%rbp),%rax
   12495:	48 89 10             	mov    %rdx,(%rax)
   12498:	48 8b 85 60 ee ff ff 	mov    -0x11a0(%rbp),%rax
   1249f:	48 8b 10             	mov    (%rax),%rdx
   124a2:	48 8b 85 60 f5 ff ff 	mov    -0xaa0(%rbp),%rax
   124a9:	48 89 05 d8 eb 00 00 	mov    %rax,0xebd8(%rip)        # 21088 <g_243>
   124b0:	48 8b 05 d1 eb 00 00 	mov    0xebd1(%rip),%rax        # 21088 <g_243>
   124b7:	48 39 c2             	cmp    %rax,%rdx
   124ba:	0f 95 c0             	setne  %al
   124bd:	0f b6 d0             	movzbl %al,%edx
   124c0:	48 8b 85 70 ee ff ff 	mov    -0x1190(%rbp),%rax
   124c7:	0f b6 00             	movzbl (%rax),%eax
   124ca:	09 c1                	or     %eax,%ecx
   124cc:	48 8b 85 70 ee ff ff 	mov    -0x1190(%rbp),%rax
   124d3:	88 08                	mov    %cl,(%rax)
   124d5:	48 8b 85 70 ee ff ff 	mov    -0x1190(%rbp),%rax
   124dc:	0f b6 00             	movzbl (%rax),%eax
   124df:	0f be c0             	movsbl %al,%eax
   124e2:	b9 38 82 50 51       	mov    $0x51508238,%ecx
   124e7:	39 c8                	cmp    %ecx,%eax
   124e9:	0f 95 c0             	setne  %al
   124ec:	0f b6 c0             	movzbl %al,%eax
   124ef:	39 c2                	cmp    %eax,%edx
   124f1:	0f 9d c0             	setge  %al
   124f4:	0f b6 c0             	movzbl %al,%eax
   124f7:	89 de                	mov    %ebx,%esi
   124f9:	89 c7                	mov    %eax,%edi
   124fb:	e8 f2 3c ff ff       	callq  61f2 <safe_sub_func_int8_t_s_s>
   12500:	0f b6 85 1e ed ff ff 	movzbl -0x12e2(%rbp),%eax
   12507:	66 98                	cbtw   
   12509:	0f b7 d0             	movzwl %ax,%edx
   1250c:	48 8d 05 6d eb 00 00 	lea    0xeb6d(%rip),%rax        # 21080 <g_138>
   12513:	48 8b 00             	mov    (%rax),%rax
   12516:	48 39 85 48 ee ff ff 	cmp    %rax,-0x11b8(%rbp)
   1251d:	0f 95 c0             	setne  %al
   12520:	0f b6 c0             	movzbl %al,%eax
   12523:	89 d6                	mov    %edx,%esi
   12525:	89 c7                	mov    %eax,%edi
   12527:	e8 11 48 ff ff       	callq  6d3d <safe_mul_func_uint16_t_u_u>
   1252c:	0f b7 d0             	movzwl %ax,%edx
   1252f:	8b 85 28 ed ff ff    	mov    -0x12d8(%rbp),%eax
   12535:	39 c2                	cmp    %eax,%edx
   12537:	0f 84 98 00 00 00    	je     125d5 <func_121+0xbe8>
   1253d:	48 c7 85 c8 ed ff ff 	movq   $0x0,-0x1238(%rbp)
   12544:	00 00 00 00 
   12548:	48 8d 85 c8 ed ff ff 	lea    -0x1238(%rbp),%rax
   1254f:	48 89 85 c8 ee ff ff 	mov    %rax,-0x1138(%rbp)
   12556:	48 8d 85 44 ed ff ff 	lea    -0x12bc(%rbp),%rax
   1255d:	48 89 85 d0 ee ff ff 	mov    %rax,-0x1130(%rbp)
   12564:	48 8b 85 c8 ee ff ff 	mov    -0x1138(%rbp),%rax
   1256b:	48 8b 95 f8 ec ff ff 	mov    -0x1308(%rbp),%rdx
   12572:	48 89 10             	mov    %rdx,(%rax)
   12575:	0f b6 05 1c 9b 00 00 	movzbl 0x9b1c(%rip),%eax        # 1c098 <g_253>
   1257c:	0f be d8             	movsbl %al,%ebx
   1257f:	8b 85 04 ed ff ff    	mov    -0x12fc(%rbp),%eax
   12585:	89 c6                	mov    %eax,%esi
   12587:	bf 01 00 00 00       	mov    $0x1,%edi
   1258c:	e8 b7 48 ff ff       	callq  6e48 <safe_rshift_func_uint16_t_u_s>
   12591:	be 01 00 00 00       	mov    $0x1,%esi
   12596:	bf 01 00 00 00       	mov    $0x1,%edi
   1259b:	e8 0e 46 ff ff       	callq  6bae <safe_mod_func_uint8_t_u_u>
   125a0:	0f b6 c0             	movzbl %al,%eax
   125a3:	39 c3                	cmp    %eax,%ebx
   125a5:	0f 95 c0             	setne  %al
   125a8:	0f b6 d0             	movzbl %al,%edx
   125ab:	48 8b 85 d0 ee ff ff 	mov    -0x1130(%rbp),%rax
   125b2:	8b 00                	mov    (%rax),%eax
   125b4:	31 c2                	xor    %eax,%edx
   125b6:	48 8b 85 d0 ee ff ff 	mov    -0x1130(%rbp),%rax
   125bd:	89 10                	mov    %edx,(%rax)
   125bf:	48 8b 85 c8 ee ff ff 	mov    -0x1138(%rbp),%rax
   125c6:	48 8b 95 08 ed ff ff 	mov    -0x12f8(%rbp),%rdx
   125cd:	48 89 10             	mov    %rdx,(%rax)
   125d0:	e9 12 08 00 00       	jmpq   12de7 <func_121+0x13fa>
   125d5:	66 c7 85 26 ed ff ff 	movw   $0x23f7,-0x12da(%rbp)
   125dc:	f7 23 
   125de:	c7 85 48 ed ff ff 00 	movl   $0x0,-0x12b8(%rbp)
   125e5:	00 00 00 
   125e8:	0f b6 85 c8 ed ff ff 	movzbl -0x1238(%rbp),%eax
   125ef:	83 e0 c0             	and    $0xffffffc0,%eax
   125f2:	83 c8 07             	or     $0x7,%eax
   125f5:	88 85 c8 ed ff ff    	mov    %al,-0x1238(%rbp)
   125fb:	0f b7 85 c8 ed ff ff 	movzwl -0x1238(%rbp),%eax
   12602:	66 25 3f f0          	and    $0xf03f,%ax
   12606:	66 0d 80 01          	or     $0x180,%ax
   1260a:	66 89 85 c8 ed ff ff 	mov    %ax,-0x1238(%rbp)
   12611:	66 c7 05 62 9a 00 00 	movw   $0x0,0x9a62(%rip)        # 1c07c <g_156>
   12618:	00 00 
   1261a:	90                   	nop
   1261b:	0f b7 05 5a 9a 00 00 	movzwl 0x9a5a(%rip),%eax        # 1c07c <g_156>
   12622:	66 83 f8 06          	cmp    $0x6,%ax
   12626:	0f 8f 66 01 00 00    	jg     12792 <func_121+0xda5>
   1262c:	48 8d 05 15 9a 00 00 	lea    0x9a15(%rip),%rax        # 1c048 <g_57+0x18>
   12633:	48 89 85 78 ee ff ff 	mov    %rax,-0x1188(%rbp)
   1263a:	48 c7 85 80 ee ff ff 	movq   $0x0,-0x1180(%rbp)
   12641:	00 00 00 00 
   12645:	48 8d 05 f8 99 00 00 	lea    0x99f8(%rip),%rax        # 1c044 <g_57+0x14>
   1264c:	48 89 85 c0 f0 ff ff 	mov    %rax,-0xf40(%rbp)
   12653:	48 8d 05 ea 99 00 00 	lea    0x99ea(%rip),%rax        # 1c044 <g_57+0x14>
   1265a:	48 89 85 c8 f0 ff ff 	mov    %rax,-0xf38(%rbp)
   12661:	48 8d 05 dc 99 00 00 	lea    0x99dc(%rip),%rax        # 1c044 <g_57+0x14>
   12668:	48 89 85 d0 f0 ff ff 	mov    %rax,-0xf30(%rbp)
   1266f:	48 8d 05 ce 99 00 00 	lea    0x99ce(%rip),%rax        # 1c044 <g_57+0x14>
   12676:	48 89 85 d8 f0 ff ff 	mov    %rax,-0xf28(%rbp)
   1267d:	48 8d 05 04 ea 00 00 	lea    0xea04(%rip),%rax        # 21088 <g_243>
   12684:	48 89 85 10 f9 ff ff 	mov    %rax,-0x6f0(%rbp)
   1268b:	48 8d 05 f6 e9 00 00 	lea    0xe9f6(%rip),%rax        # 21088 <g_243>
   12692:	48 89 85 18 f9 ff ff 	mov    %rax,-0x6e8(%rbp)
   12699:	48 8d 05 e8 e9 00 00 	lea    0xe9e8(%rip),%rax        # 21088 <g_243>
   126a0:	48 89 85 20 f9 ff ff 	mov    %rax,-0x6e0(%rbp)
   126a7:	48 8d 05 da e9 00 00 	lea    0xe9da(%rip),%rax        # 21088 <g_243>
   126ae:	48 89 85 28 f9 ff ff 	mov    %rax,-0x6d8(%rbp)
   126b5:	48 8d 05 cc e9 00 00 	lea    0xe9cc(%rip),%rax        # 21088 <g_243>
   126bc:	48 89 85 30 f9 ff ff 	mov    %rax,-0x6d0(%rbp)
   126c3:	48 8d 05 be e9 00 00 	lea    0xe9be(%rip),%rax        # 21088 <g_243>
   126ca:	48 89 85 38 f9 ff ff 	mov    %rax,-0x6c8(%rbp)
   126d1:	48 8d 05 b0 e9 00 00 	lea    0xe9b0(%rip),%rax        # 21088 <g_243>
   126d8:	48 89 85 40 f9 ff ff 	mov    %rax,-0x6c0(%rbp)
   126df:	48 8d 05 a2 e9 00 00 	lea    0xe9a2(%rip),%rax        # 21088 <g_243>
   126e6:	48 89 85 48 f9 ff ff 	mov    %rax,-0x6b8(%rbp)
   126ed:	c7 85 54 ed ff ff 00 	movl   $0x0,-0x12ac(%rbp)
   126f4:	00 00 00 
   126f7:	eb 21                	jmp    1271a <func_121+0xd2d>
   126f9:	8b 85 54 ed ff ff    	mov    -0x12ac(%rbp),%eax
   126ff:	48 98                	cltq   
   12701:	48 bb 81 1d 53 d7 10 	movabs $0x1addf210d7531d81,%rbx
   12708:	f2 dd 1a 
   1270b:	48 89 9c c5 10 ef ff 	mov    %rbx,-0x10f0(%rbp,%rax,8)
   12712:	ff 
   12713:	83 85 54 ed ff ff 01 	addl   $0x1,-0x12ac(%rbp)
   1271a:	83 bd 54 ed ff ff 02 	cmpl   $0x2,-0x12ac(%rbp)
   12721:	7e d6                	jle    126f9 <func_121+0xd0c>
   12723:	48 8b 85 18 ef ff ff 	mov    -0x10e8(%rbp),%rax
   1272a:	48 83 c0 01          	add    $0x1,%rax
   1272e:	48 89 85 18 ef ff ff 	mov    %rax,-0x10e8(%rbp)
   12735:	0f b7 05 40 99 00 00 	movzwl 0x9940(%rip),%eax        # 1c07c <g_156>
   1273c:	98                   	cwtl   
   1273d:	48 98                	cltq   
   1273f:	48 8d 14 85 00 00 00 	lea    0x0(,%rax,4),%rdx
   12746:	00 
   12747:	48 8d 05 e2 98 00 00 	lea    0x98e2(%rip),%rax        # 1c030 <g_57>
   1274e:	8b 04 02             	mov    (%rdx,%rax,1),%eax
   12751:	85 c0                	test   %eax,%eax
   12753:	74 30                	je     12785 <func_121+0xd98>
   12755:	c6 85 20 ed ff ff f9 	movb   $0xf9,-0x12e0(%rbp)
   1275c:	48 8b 85 08 ed ff ff 	mov    -0x12f8(%rbp),%rax
   12763:	8b 00                	mov    (%rax),%eax
   12765:	85 c0                	test   %eax,%eax
   12767:	75 28                	jne    12791 <func_121+0xda4>
   12769:	0f b6 85 20 ed ff ff 	movzbl -0x12e0(%rbp),%eax
   12770:	83 c0 01             	add    $0x1,%eax
   12773:	88 85 20 ed ff ff    	mov    %al,-0x12e0(%rbp)
   12779:	48 8b 85 38 f9 ff ff 	mov    -0x6c8(%rbp),%rax
   12780:	e9 42 16 00 00       	jmpq   13dc7 <func_121+0x23da>
   12785:	48 8b 85 20 ee ff ff 	mov    -0x11e0(%rbp),%rax
   1278c:	e9 36 16 00 00       	jmpq   13dc7 <func_121+0x23da>
   12791:	90                   	nop
   12792:	c7 85 44 ed ff ff 00 	movl   $0x0,-0x12bc(%rbp)
   12799:	00 00 00 
   1279c:	e9 34 06 00 00       	jmpq   12dd5 <func_121+0x13e8>
   127a1:	48 8d 85 88 ed ff ff 	lea    -0x1278(%rbp),%rax
   127a8:	48 89 85 88 ee ff ff 	mov    %rax,-0x1178(%rbp)
   127af:	48 8d 85 38 ed ff ff 	lea    -0x12c8(%rbp),%rax
   127b6:	48 89 85 90 ee ff ff 	mov    %rax,-0x1170(%rbp)
   127bd:	8b 05 d9 98 00 00    	mov    0x98d9(%rip),%eax        # 1c09c <g_266>
   127c3:	85 c0                	test   %eax,%eax
   127c5:	0f 9e c2             	setle  %dl
   127c8:	48 8b 05 b9 e8 00 00 	mov    0xe8b9(%rip),%rax        # 21088 <g_243>
   127cf:	0f b6 d2             	movzbl %dl,%edx
   127d2:	48 89 10             	mov    %rdx,(%rax)
   127d5:	48 8b 00             	mov    (%rax),%rax
   127d8:	f7 d0                	not    %eax
   127da:	0f b7 d8             	movzwl %ax,%ebx
   127dd:	48 83 bd 88 ee ff ff 	cmpq   $0x0,-0x1178(%rbp)
   127e4:	00 
   127e5:	0f 95 c0             	setne  %al
   127e8:	44 0f b6 e0          	movzbl %al,%r12d
   127ec:	c7 85 08 ef ff ff ff 	movl   $0xffffffff,-0x10f8(%rbp)
   127f3:	ff ff ff 
   127f6:	8b 85 08 ef ff ff    	mov    -0x10f8(%rbp),%eax
   127fc:	89 85 74 ed ff ff    	mov    %eax,-0x128c(%rbp)
   12802:	8b 95 74 ed ff ff    	mov    -0x128c(%rbp),%edx
   12808:	8b 85 28 ed ff ff    	mov    -0x12d8(%rbp),%eax
   1280e:	31 d0                	xor    %edx,%eax
   12810:	89 85 28 ed ff ff    	mov    %eax,-0x12d8(%rbp)
   12816:	8b 85 28 ed ff ff    	mov    -0x12d8(%rbp),%eax
   1281c:	0f b7 d0             	movzwl %ax,%edx
   1281f:	8b 85 04 ed ff ff    	mov    -0x12fc(%rbp),%eax
   12825:	0f b7 c0             	movzwl %ax,%eax
   12828:	89 d6                	mov    %edx,%esi
   1282a:	89 c7                	mov    %eax,%edi
   1282c:	e8 ee 44 ff ff       	callq  6d1f <safe_sub_func_uint16_t_u_u>
   12831:	0f b7 c0             	movzwl %ax,%eax
   12834:	41 39 c4             	cmp    %eax,%r12d
   12837:	0f 9d c0             	setge  %al
   1283a:	0f b6 c0             	movzbl %al,%eax
   1283d:	89 de                	mov    %ebx,%esi
   1283f:	89 c7                	mov    %eax,%edi
   12841:	e8 f7 44 ff ff       	callq  6d3d <safe_mul_func_uint16_t_u_u>
   12846:	be f1 e9 ff ff       	mov    $0xffffe9f1,%esi
   1284b:	bf fe ff ff ff       	mov    $0xfffffffe,%edi
   12850:	e8 5e 3b ff ff       	callq  63b3 <safe_add_func_int16_t_s_s>
   12855:	c7 05 e5 97 00 00 01 	movl   $0x1,0x97e5(%rip)        # 1c044 <g_57+0x14>
   1285c:	00 00 00 
   1285f:	8b 15 df 97 00 00    	mov    0x97df(%rip),%edx        # 1c044 <g_57+0x14>
   12865:	48 8b 85 90 ee ff ff 	mov    -0x1170(%rbp),%rax
   1286c:	8b 00                	mov    (%rax),%eax
   1286e:	21 c2                	and    %eax,%edx
   12870:	48 8b 85 90 ee ff ff 	mov    -0x1170(%rbp),%rax
   12877:	89 10                	mov    %edx,(%rax)
   12879:	48 8b 85 90 ee ff ff 	mov    -0x1170(%rbp),%rax
   12880:	8b 00                	mov    (%rax),%eax
   12882:	85 c0                	test   %eax,%eax
   12884:	0f 84 12 05 00 00    	je     12d9c <func_121+0x13af>
   1288a:	48 c7 85 98 ee ff ff 	movq   $0x0,-0x1168(%rbp)
   12891:	00 00 00 00 
   12895:	48 8d 05 00 98 00 00 	lea    0x9800(%rip),%rax        # 1c09c <g_266>
   1289c:	48 89 85 a0 ee ff ff 	mov    %rax,-0x1160(%rbp)
   128a3:	48 8d 85 48 ed ff ff 	lea    -0x12b8(%rbp),%rax
   128aa:	48 89 85 a8 ee ff ff 	mov    %rax,-0x1158(%rbp)
   128b1:	48 8d 85 40 ed ff ff 	lea    -0x12c0(%rbp),%rax
   128b8:	48 89 85 b0 ee ff ff 	mov    %rax,-0x1150(%rbp)
   128bf:	48 8d 85 48 ed ff ff 	lea    -0x12b8(%rbp),%rax
   128c6:	48 89 85 b8 ee ff ff 	mov    %rax,-0x1148(%rbp)
   128cd:	48 8d 85 04 ef ff ff 	lea    -0x10fc(%rbp),%rax
   128d4:	48 83 c0 04          	add    $0x4,%rax
   128d8:	48 89 85 10 f9 ff ff 	mov    %rax,-0x6f0(%rbp)
   128df:	48 8d 85 04 ef ff ff 	lea    -0x10fc(%rbp),%rax
   128e6:	48 83 c0 04          	add    $0x4,%rax
   128ea:	48 89 85 18 f9 ff ff 	mov    %rax,-0x6e8(%rbp)
   128f1:	48 8d 85 44 ed ff ff 	lea    -0x12bc(%rbp),%rax
   128f8:	48 89 85 20 f9 ff ff 	mov    %rax,-0x6e0(%rbp)
   128ff:	48 8d 85 40 ed ff ff 	lea    -0x12c0(%rbp),%rax
   12906:	48 89 85 28 f9 ff ff 	mov    %rax,-0x6d8(%rbp)
   1290d:	48 8d 85 40 ed ff ff 	lea    -0x12c0(%rbp),%rax
   12914:	48 89 85 30 f9 ff ff 	mov    %rax,-0x6d0(%rbp)
   1291b:	48 8d 85 44 ed ff ff 	lea    -0x12bc(%rbp),%rax
   12922:	48 89 85 38 f9 ff ff 	mov    %rax,-0x6c8(%rbp)
   12929:	48 8d 85 40 ed ff ff 	lea    -0x12c0(%rbp),%rax
   12930:	48 89 85 40 f9 ff ff 	mov    %rax,-0x6c0(%rbp)
   12937:	48 8d 85 40 ed ff ff 	lea    -0x12c0(%rbp),%rax
   1293e:	48 89 85 48 f9 ff ff 	mov    %rax,-0x6b8(%rbp)
   12945:	48 8d 85 44 ed ff ff 	lea    -0x12bc(%rbp),%rax
   1294c:	48 89 85 50 f9 ff ff 	mov    %rax,-0x6b0(%rbp)
   12953:	48 8d 85 04 ef ff ff 	lea    -0x10fc(%rbp),%rax
   1295a:	48 83 c0 04          	add    $0x4,%rax
   1295e:	48 89 85 58 f9 ff ff 	mov    %rax,-0x6a8(%rbp)
   12965:	48 8d 85 04 ef ff ff 	lea    -0x10fc(%rbp),%rax
   1296c:	48 83 c0 04          	add    $0x4,%rax
   12970:	48 89 85 60 f9 ff ff 	mov    %rax,-0x6a0(%rbp)
   12977:	48 8d 85 44 ed ff ff 	lea    -0x12bc(%rbp),%rax
   1297e:	48 89 85 68 f9 ff ff 	mov    %rax,-0x698(%rbp)
   12985:	48 8d 85 40 ed ff ff 	lea    -0x12c0(%rbp),%rax
   1298c:	48 89 85 70 f9 ff ff 	mov    %rax,-0x690(%rbp)
   12993:	48 8d 85 40 ed ff ff 	lea    -0x12c0(%rbp),%rax
   1299a:	48 89 85 78 f9 ff ff 	mov    %rax,-0x688(%rbp)
   129a1:	48 8d 85 44 ed ff ff 	lea    -0x12bc(%rbp),%rax
   129a8:	48 89 85 80 f9 ff ff 	mov    %rax,-0x680(%rbp)
   129af:	48 8d 85 40 ed ff ff 	lea    -0x12c0(%rbp),%rax
   129b6:	48 89 85 88 f9 ff ff 	mov    %rax,-0x678(%rbp)
   129bd:	48 8d 85 40 ed ff ff 	lea    -0x12c0(%rbp),%rax
   129c4:	48 89 85 90 f9 ff ff 	mov    %rax,-0x670(%rbp)
   129cb:	48 8d 85 44 ed ff ff 	lea    -0x12bc(%rbp),%rax
   129d2:	48 89 85 98 f9 ff ff 	mov    %rax,-0x668(%rbp)
   129d9:	48 8d 85 04 ef ff ff 	lea    -0x10fc(%rbp),%rax
   129e0:	48 83 c0 04          	add    $0x4,%rax
   129e4:	48 89 85 a0 f9 ff ff 	mov    %rax,-0x660(%rbp)
   129eb:	48 8d 85 04 ef ff ff 	lea    -0x10fc(%rbp),%rax
   129f2:	48 83 c0 04          	add    $0x4,%rax
   129f6:	48 89 85 a8 f9 ff ff 	mov    %rax,-0x658(%rbp)
   129fd:	48 8d 85 44 ed ff ff 	lea    -0x12bc(%rbp),%rax
   12a04:	48 89 85 b0 f9 ff ff 	mov    %rax,-0x650(%rbp)
   12a0b:	48 8d 85 40 ed ff ff 	lea    -0x12c0(%rbp),%rax
   12a12:	48 89 85 b8 f9 ff ff 	mov    %rax,-0x648(%rbp)
   12a19:	48 8d 85 40 ed ff ff 	lea    -0x12c0(%rbp),%rax
   12a20:	48 89 85 c0 f9 ff ff 	mov    %rax,-0x640(%rbp)
   12a27:	48 8d 85 44 ed ff ff 	lea    -0x12bc(%rbp),%rax
   12a2e:	48 89 85 c8 f9 ff ff 	mov    %rax,-0x638(%rbp)
   12a35:	48 8d 85 40 ed ff ff 	lea    -0x12c0(%rbp),%rax
   12a3c:	48 89 85 d0 f9 ff ff 	mov    %rax,-0x630(%rbp)
   12a43:	48 8d 85 40 ed ff ff 	lea    -0x12c0(%rbp),%rax
   12a4a:	48 89 85 d8 f9 ff ff 	mov    %rax,-0x628(%rbp)
   12a51:	48 8d 85 44 ed ff ff 	lea    -0x12bc(%rbp),%rax
   12a58:	48 89 85 e0 f9 ff ff 	mov    %rax,-0x620(%rbp)
   12a5f:	48 8d 85 04 ef ff ff 	lea    -0x10fc(%rbp),%rax
   12a66:	48 83 c0 04          	add    $0x4,%rax
   12a6a:	48 89 85 e8 f9 ff ff 	mov    %rax,-0x618(%rbp)
   12a71:	48 8d 85 04 ef ff ff 	lea    -0x10fc(%rbp),%rax
   12a78:	48 83 c0 04          	add    $0x4,%rax
   12a7c:	48 89 85 f0 f9 ff ff 	mov    %rax,-0x610(%rbp)
   12a83:	48 8d 85 44 ed ff ff 	lea    -0x12bc(%rbp),%rax
   12a8a:	48 89 85 f8 f9 ff ff 	mov    %rax,-0x608(%rbp)
   12a91:	48 8d 85 40 ed ff ff 	lea    -0x12c0(%rbp),%rax
   12a98:	48 89 85 00 fa ff ff 	mov    %rax,-0x600(%rbp)
   12a9f:	48 8d 85 40 ed ff ff 	lea    -0x12c0(%rbp),%rax
   12aa6:	48 89 85 08 fa ff ff 	mov    %rax,-0x5f8(%rbp)
   12aad:	48 8d 85 44 ed ff ff 	lea    -0x12bc(%rbp),%rax
   12ab4:	48 89 85 10 fa ff ff 	mov    %rax,-0x5f0(%rbp)
   12abb:	48 8d 85 40 ed ff ff 	lea    -0x12c0(%rbp),%rax
   12ac2:	48 89 85 18 fa ff ff 	mov    %rax,-0x5e8(%rbp)
   12ac9:	48 8d 85 40 ed ff ff 	lea    -0x12c0(%rbp),%rax
   12ad0:	48 89 85 20 fa ff ff 	mov    %rax,-0x5e0(%rbp)
   12ad7:	48 8d 85 44 ed ff ff 	lea    -0x12bc(%rbp),%rax
   12ade:	48 89 85 28 fa ff ff 	mov    %rax,-0x5d8(%rbp)
   12ae5:	48 8d 85 04 ef ff ff 	lea    -0x10fc(%rbp),%rax
   12aec:	48 83 c0 04          	add    $0x4,%rax
   12af0:	48 89 85 30 fa ff ff 	mov    %rax,-0x5d0(%rbp)
   12af7:	48 8d 85 04 ef ff ff 	lea    -0x10fc(%rbp),%rax
   12afe:	48 83 c0 04          	add    $0x4,%rax
   12b02:	48 89 85 38 fa ff ff 	mov    %rax,-0x5c8(%rbp)
   12b09:	48 8d 85 44 ed ff ff 	lea    -0x12bc(%rbp),%rax
   12b10:	48 89 85 40 fa ff ff 	mov    %rax,-0x5c0(%rbp)
   12b17:	48 8d 85 40 ed ff ff 	lea    -0x12c0(%rbp),%rax
   12b1e:	48 89 85 48 fa ff ff 	mov    %rax,-0x5b8(%rbp)
   12b25:	48 8d 85 40 ed ff ff 	lea    -0x12c0(%rbp),%rax
   12b2c:	48 89 85 50 fa ff ff 	mov    %rax,-0x5b0(%rbp)
   12b33:	48 8d 85 44 ed ff ff 	lea    -0x12bc(%rbp),%rax
   12b3a:	48 89 85 58 fa ff ff 	mov    %rax,-0x5a8(%rbp)
   12b41:	48 8d 85 40 ed ff ff 	lea    -0x12c0(%rbp),%rax
   12b48:	48 89 85 60 fa ff ff 	mov    %rax,-0x5a0(%rbp)
   12b4f:	48 8d 85 40 ed ff ff 	lea    -0x12c0(%rbp),%rax
   12b56:	48 89 85 68 fa ff ff 	mov    %rax,-0x598(%rbp)
   12b5d:	48 8d 85 44 ed ff ff 	lea    -0x12bc(%rbp),%rax
   12b64:	48 89 85 70 fa ff ff 	mov    %rax,-0x590(%rbp)
   12b6b:	48 8d 85 04 ef ff ff 	lea    -0x10fc(%rbp),%rax
   12b72:	48 83 c0 04          	add    $0x4,%rax
   12b76:	48 89 85 78 fa ff ff 	mov    %rax,-0x588(%rbp)
   12b7d:	48 8d 85 04 ef ff ff 	lea    -0x10fc(%rbp),%rax
   12b84:	48 83 c0 04          	add    $0x4,%rax
   12b88:	48 89 85 80 fa ff ff 	mov    %rax,-0x580(%rbp)
   12b8f:	48 8d 85 44 ed ff ff 	lea    -0x12bc(%rbp),%rax
   12b96:	48 89 85 88 fa ff ff 	mov    %rax,-0x578(%rbp)
   12b9d:	48 8d 85 40 ed ff ff 	lea    -0x12c0(%rbp),%rax
   12ba4:	48 89 85 90 fa ff ff 	mov    %rax,-0x570(%rbp)
   12bab:	48 8d 85 40 ed ff ff 	lea    -0x12c0(%rbp),%rax
   12bb2:	48 89 85 98 fa ff ff 	mov    %rax,-0x568(%rbp)
   12bb9:	48 8d 85 44 ed ff ff 	lea    -0x12bc(%rbp),%rax
   12bc0:	48 89 85 a0 fa ff ff 	mov    %rax,-0x560(%rbp)
   12bc7:	48 8d 85 40 ed ff ff 	lea    -0x12c0(%rbp),%rax
   12bce:	48 89 85 a8 fa ff ff 	mov    %rax,-0x558(%rbp)
   12bd5:	48 8d 85 40 ed ff ff 	lea    -0x12c0(%rbp),%rax
   12bdc:	48 89 85 b0 fa ff ff 	mov    %rax,-0x550(%rbp)
   12be3:	48 8d 85 44 ed ff ff 	lea    -0x12bc(%rbp),%rax
   12bea:	48 89 85 b8 fa ff ff 	mov    %rax,-0x548(%rbp)
   12bf1:	48 8d 85 04 ef ff ff 	lea    -0x10fc(%rbp),%rax
   12bf8:	48 83 c0 04          	add    $0x4,%rax
   12bfc:	48 89 85 c0 fa ff ff 	mov    %rax,-0x540(%rbp)
   12c03:	48 8d 85 04 ef ff ff 	lea    -0x10fc(%rbp),%rax
   12c0a:	48 83 c0 04          	add    $0x4,%rax
   12c0e:	48 89 85 c8 fa ff ff 	mov    %rax,-0x538(%rbp)
   12c15:	48 8d 85 44 ed ff ff 	lea    -0x12bc(%rbp),%rax
   12c1c:	48 89 85 d0 fa ff ff 	mov    %rax,-0x530(%rbp)
   12c23:	48 8d 85 40 ed ff ff 	lea    -0x12c0(%rbp),%rax
   12c2a:	48 89 85 d8 fa ff ff 	mov    %rax,-0x528(%rbp)
   12c31:	48 8d 85 40 ed ff ff 	lea    -0x12c0(%rbp),%rax
   12c38:	48 89 85 e0 fa ff ff 	mov    %rax,-0x520(%rbp)
   12c3f:	48 8d 85 44 ed ff ff 	lea    -0x12bc(%rbp),%rax
   12c46:	48 89 85 e8 fa ff ff 	mov    %rax,-0x518(%rbp)
   12c4d:	48 8d 85 40 ed ff ff 	lea    -0x12c0(%rbp),%rax
   12c54:	48 89 85 f0 fa ff ff 	mov    %rax,-0x510(%rbp)
   12c5b:	48 8d 85 40 ed ff ff 	lea    -0x12c0(%rbp),%rax
   12c62:	48 89 85 f8 fa ff ff 	mov    %rax,-0x508(%rbp)
   12c69:	48 8d 85 44 ed ff ff 	lea    -0x12bc(%rbp),%rax
   12c70:	48 89 85 00 fb ff ff 	mov    %rax,-0x500(%rbp)
   12c77:	48 8d 85 04 ef ff ff 	lea    -0x10fc(%rbp),%rax
   12c7e:	48 83 c0 04          	add    $0x4,%rax
   12c82:	48 89 85 08 fb ff ff 	mov    %rax,-0x4f8(%rbp)
   12c89:	48 8d 85 04 ef ff ff 	lea    -0x10fc(%rbp),%rax
   12c90:	48 83 c0 04          	add    $0x4,%rax
   12c94:	48 89 85 10 fb ff ff 	mov    %rax,-0x4f0(%rbp)
   12c9b:	48 8d 85 44 ed ff ff 	lea    -0x12bc(%rbp),%rax
   12ca2:	48 89 85 18 fb ff ff 	mov    %rax,-0x4e8(%rbp)
   12ca9:	48 c7 85 20 fb ff ff 	movq   $0x0,-0x4e0(%rbp)
   12cb0:	00 00 00 00 
   12cb4:	48 c7 85 28 fb ff ff 	movq   $0x0,-0x4d8(%rbp)
   12cbb:	00 00 00 00 
   12cbf:	48 8d 85 04 ef ff ff 	lea    -0x10fc(%rbp),%rax
   12cc6:	48 83 c0 04          	add    $0x4,%rax
   12cca:	48 89 85 30 fb ff ff 	mov    %rax,-0x4d0(%rbp)
   12cd1:	48 c7 85 38 fb ff ff 	movq   $0x0,-0x4c8(%rbp)
   12cd8:	00 00 00 00 
   12cdc:	48 c7 85 40 fb ff ff 	movq   $0x0,-0x4c0(%rbp)
   12ce3:	00 00 00 00 
   12ce7:	48 8d 85 04 ef ff ff 	lea    -0x10fc(%rbp),%rax
   12cee:	48 83 c0 04          	add    $0x4,%rax
   12cf2:	48 89 85 48 fb ff ff 	mov    %rax,-0x4b8(%rbp)
   12cf9:	48 8d 05 9c 93 00 00 	lea    0x939c(%rip),%rax        # 1c09c <g_266>
   12d00:	48 89 85 50 fb ff ff 	mov    %rax,-0x4b0(%rbp)
   12d07:	48 8d 05 8e 93 00 00 	lea    0x938e(%rip),%rax        # 1c09c <g_266>
   12d0e:	48 89 85 58 fb ff ff 	mov    %rax,-0x4a8(%rbp)
   12d15:	48 8d 85 04 ef ff ff 	lea    -0x10fc(%rbp),%rax
   12d1c:	48 83 c0 04          	add    $0x4,%rax
   12d20:	48 89 85 60 fb ff ff 	mov    %rax,-0x4a0(%rbp)
   12d27:	48 c7 85 68 fb ff ff 	movq   $0x0,-0x498(%rbp)
   12d2e:	00 00 00 00 
   12d32:	48 c7 85 70 fb ff ff 	movq   $0x0,-0x490(%rbp)
   12d39:	00 00 00 00 
   12d3d:	48 8d 85 04 ef ff ff 	lea    -0x10fc(%rbp),%rax
   12d44:	48 83 c0 04          	add    $0x4,%rax
   12d48:	48 89 85 78 fb ff ff 	mov    %rax,-0x488(%rbp)
   12d4f:	48 c7 85 80 fb ff ff 	movq   $0x0,-0x480(%rbp)
   12d56:	00 00 00 00 
   12d5a:	48 c7 85 88 fb ff ff 	movq   $0x0,-0x478(%rbp)
   12d61:	00 00 00 00 
   12d65:	48 8d 85 04 ef ff ff 	lea    -0x10fc(%rbp),%rax
   12d6c:	48 83 c0 04          	add    $0x4,%rax
   12d70:	48 89 85 90 fb ff ff 	mov    %rax,-0x470(%rbp)
   12d77:	48 b8 d8 09 ef 51 42 	movabs $0x8ed9584251ef09d8,%rax
   12d7e:	58 d9 8e 
   12d81:	48 89 85 c0 ee ff ff 	mov    %rax,-0x1140(%rbp)
   12d88:	8b 05 b6 92 00 00    	mov    0x92b6(%rip),%eax        # 1c044 <g_57+0x14>
   12d8e:	85 c0                	test   %eax,%eax
   12d90:	75 54                	jne    12de6 <func_121+0x13f9>
   12d92:	48 83 85 c0 ee ff ff 	addq   $0x1,-0x1140(%rbp)
   12d99:	01 
   12d9a:	eb 2a                	jmp    12dc6 <func_121+0x13d9>
   12d9c:	0f b6 85 1e ed ff ff 	movzbl -0x12e2(%rbp),%eax
   12da3:	84 c0                	test   %al,%al
   12da5:	74 05                	je     12dac <func_121+0x13bf>
   12da7:	e9 a9 ee ff ff       	jmpq   11c55 <func_121+0x268>
   12dac:	0f b7 05 c9 92 00 00 	movzwl 0x92c9(%rip),%eax        # 1c07c <g_156>
   12db3:	66 85 c0             	test   %ax,%ax
   12db6:	75 0d                	jne    12dc5 <func_121+0x13d8>
   12db8:	48 8b 85 08 ed ff ff 	mov    -0x12f8(%rbp),%rax
   12dbf:	8b 00                	mov    (%rax),%eax
   12dc1:	85 c0                	test   %eax,%eax
   12dc3:	eb 01                	jmp    12dc6 <func_121+0x13d9>
   12dc5:	90                   	nop
   12dc6:	8b 85 44 ed ff ff    	mov    -0x12bc(%rbp),%eax
   12dcc:	83 c0 01             	add    $0x1,%eax
   12dcf:	89 85 44 ed ff ff    	mov    %eax,-0x12bc(%rbp)
   12dd5:	8b 85 44 ed ff ff    	mov    -0x12bc(%rbp),%eax
   12ddb:	83 f8 07             	cmp    $0x7,%eax
   12dde:	0f 8e bd f9 ff ff    	jle    127a1 <func_121+0xdb4>
   12de4:	eb 01                	jmp    12de7 <func_121+0x13fa>
   12de6:	90                   	nop
   12de7:	c7 85 58 ed ff ff 00 	movl   $0x0,-0x12a8(%rbp)
   12dee:	00 00 00 
   12df1:	e9 ae 00 00 00       	jmpq   12ea4 <func_121+0x14b7>
   12df6:	c6 85 21 ed ff ff 70 	movb   $0x70,-0x12df(%rbp)
   12dfd:	48 8d 85 34 ed ff ff 	lea    -0x12cc(%rbp),%rax
   12e04:	48 89 85 c8 ed ff ff 	mov    %rax,-0x1238(%rbp)
   12e0b:	48 8d 85 c8 ed ff ff 	lea    -0x1238(%rbp),%rax
   12e12:	48 89 85 d8 ee ff ff 	mov    %rax,-0x1128(%rbp)
   12e19:	c7 85 28 ed ff ff 00 	movl   $0x0,-0x12d8(%rbp)
   12e20:	00 00 00 
   12e23:	eb 4f                	jmp    12e74 <func_121+0x1487>
   12e25:	c7 85 7c ed ff ff 32 	movl   $0x1211dd32,-0x1284(%rbp)
   12e2c:	dd 11 12 
   12e2f:	48 8b 05 52 e2 00 00 	mov    0xe252(%rip),%rax        # 21088 <g_243>
   12e36:	48 8b 10             	mov    (%rax),%rdx
   12e39:	48 0f be 85 21 ed ff 	movsbq -0x12df(%rbp),%rax
   12e40:	ff 
   12e41:	48 39 c2             	cmp    %rax,%rdx
   12e44:	0f 9d c0             	setge  %al
   12e47:	0f b6 c0             	movzbl %al,%eax
   12e4a:	be 07 00 00 00       	mov    $0x7,%esi
   12e4f:	89 c7                	mov    %eax,%edi
   12e51:	e8 8b 36 ff ff       	callq  64e1 <safe_lshift_func_int16_t_s_u>
   12e56:	88 85 1f ed ff ff    	mov    %al,-0x12e1(%rbp)
   12e5c:	83 bd 7c ed ff ff 00 	cmpl   $0x0,-0x1284(%rbp)
   12e63:	75 1c                	jne    12e81 <func_121+0x1494>
   12e65:	8b 85 28 ed ff ff    	mov    -0x12d8(%rbp),%eax
   12e6b:	83 c0 01             	add    $0x1,%eax
   12e6e:	89 85 28 ed ff ff    	mov    %eax,-0x12d8(%rbp)
   12e74:	8b 85 28 ed ff ff    	mov    -0x12d8(%rbp),%eax
   12e7a:	83 f8 07             	cmp    $0x7,%eax
   12e7d:	7e a6                	jle    12e25 <func_121+0x1438>
   12e7f:	eb 01                	jmp    12e82 <func_121+0x1495>
   12e81:	90                   	nop
   12e82:	48 8b 85 d8 ee ff ff 	mov    -0x1128(%rbp),%rax
   12e89:	48 8b 95 f8 ec ff ff 	mov    -0x1308(%rbp),%rdx
   12e90:	48 89 10             	mov    %rdx,(%rax)
   12e93:	8b 05 03 92 00 00    	mov    0x9203(%rip),%eax        # 1c09c <g_266>
   12e99:	85 c0                	test   %eax,%eax
   12e9b:	75 16                	jne    12eb3 <func_121+0x14c6>
   12e9d:	83 85 58 ed ff ff 01 	addl   $0x1,-0x12a8(%rbp)
   12ea4:	83 bd 58 ed ff ff 07 	cmpl   $0x7,-0x12a8(%rbp)
   12eab:	0f 86 45 ff ff ff    	jbe    12df6 <func_121+0x1409>
   12eb1:	eb 01                	jmp    12eb4 <func_121+0x14c7>
   12eb3:	90                   	nop
   12eb4:	8b 05 12 94 00 00    	mov    0x9412(%rip),%eax        # 1c2cc <g_307+0x22c>
   12eba:	89 85 30 ed ff ff    	mov    %eax,-0x12d0(%rbp)
   12ec0:	e9 bb 0d 00 00       	jmpq   13c80 <func_121+0x2293>
   12ec5:	0f b6 85 b8 ed ff ff 	movzbl -0x1248(%rbp),%eax
   12ecc:	83 e0 c0             	and    $0xffffffc0,%eax
   12ecf:	83 c8 03             	or     $0x3,%eax
   12ed2:	88 85 b8 ed ff ff    	mov    %al,-0x1248(%rbp)
   12ed8:	0f b7 85 b8 ed ff ff 	movzwl -0x1248(%rbp),%eax
   12edf:	66 25 3f f0          	and    $0xf03f,%ax
   12ee3:	66 89 85 b8 ed ff ff 	mov    %ax,-0x1248(%rbp)
   12eea:	48 8d 05 8b 91 00 00 	lea    0x918b(%rip),%rax        # 1c07c <g_156>
   12ef1:	48 89 85 30 ee ff ff 	mov    %rax,-0x11d0(%rbp)
   12ef8:	c7 05 4a 91 00 00 00 	movl   $0x0,0x914a(%rip)        # 1c04c <g_116>
   12eff:	00 00 00 
   12f02:	e9 6a 0d 00 00       	jmpq   13c71 <func_121+0x2284>
   12f07:	48 c7 85 10 f9 ff ff 	movq   $0x0,-0x6f0(%rbp)
   12f0e:	00 00 00 00 
   12f12:	48 8d 85 3c ed ff ff 	lea    -0x12c4(%rbp),%rax
   12f19:	48 89 85 18 f9 ff ff 	mov    %rax,-0x6e8(%rbp)
   12f20:	48 8d 85 38 ed ff ff 	lea    -0x12c8(%rbp),%rax
   12f27:	48 89 85 20 f9 ff ff 	mov    %rax,-0x6e0(%rbp)
   12f2e:	48 8d 85 34 ed ff ff 	lea    -0x12cc(%rbp),%rax
   12f35:	48 89 85 28 f9 ff ff 	mov    %rax,-0x6d8(%rbp)
   12f3c:	48 8d 05 f9 90 00 00 	lea    0x90f9(%rip),%rax        # 1c03c <g_57+0xc>
   12f43:	48 89 85 30 f9 ff ff 	mov    %rax,-0x6d0(%rbp)
   12f4a:	48 8d 85 3c ed ff ff 	lea    -0x12c4(%rbp),%rax
   12f51:	48 89 85 38 f9 ff ff 	mov    %rax,-0x6c8(%rbp)
   12f58:	48 c7 85 40 f9 ff ff 	movq   $0x0,-0x6c0(%rbp)
   12f5f:	00 00 00 00 
   12f63:	48 c7 85 48 f9 ff ff 	movq   $0x0,-0x6b8(%rbp)
   12f6a:	00 00 00 00 
   12f6e:	48 8d 85 3c ed ff ff 	lea    -0x12c4(%rbp),%rax
   12f75:	48 89 85 50 f9 ff ff 	mov    %rax,-0x6b0(%rbp)
   12f7c:	48 8d 85 28 ed ff ff 	lea    -0x12d8(%rbp),%rax
   12f83:	48 89 85 58 f9 ff ff 	mov    %rax,-0x6a8(%rbp)
   12f8a:	48 c7 85 60 f9 ff ff 	movq   $0x0,-0x6a0(%rbp)
   12f91:	00 00 00 00 
   12f95:	48 c7 85 68 f9 ff ff 	movq   $0x0,-0x698(%rbp)
   12f9c:	00 00 00 00 
   12fa0:	48 8d 85 28 ed ff ff 	lea    -0x12d8(%rbp),%rax
   12fa7:	48 89 85 70 f9 ff ff 	mov    %rax,-0x690(%rbp)
   12fae:	48 8d 85 2c ed ff ff 	lea    -0x12d4(%rbp),%rax
   12fb5:	48 89 85 78 f9 ff ff 	mov    %rax,-0x688(%rbp)
   12fbc:	48 8d 85 28 ed ff ff 	lea    -0x12d8(%rbp),%rax
   12fc3:	48 89 85 80 f9 ff ff 	mov    %rax,-0x680(%rbp)
   12fca:	48 8d 85 28 ed ff ff 	lea    -0x12d8(%rbp),%rax
   12fd1:	48 89 85 88 f9 ff ff 	mov    %rax,-0x678(%rbp)
   12fd8:	48 8d 05 69 90 00 00 	lea    0x9069(%rip),%rax        # 1c048 <g_57+0x18>
   12fdf:	48 89 85 90 f9 ff ff 	mov    %rax,-0x670(%rbp)
   12fe6:	48 8d 85 28 ed ff ff 	lea    -0x12d8(%rbp),%rax
   12fed:	48 89 85 98 f9 ff ff 	mov    %rax,-0x668(%rbp)
   12ff4:	48 8d 85 34 ed ff ff 	lea    -0x12cc(%rbp),%rax
   12ffb:	48 89 85 a0 f9 ff ff 	mov    %rax,-0x660(%rbp)
   13002:	48 8d 85 3c ed ff ff 	lea    -0x12c4(%rbp),%rax
   13009:	48 89 85 a8 f9 ff ff 	mov    %rax,-0x658(%rbp)
   13010:	48 8d 85 28 ed ff ff 	lea    -0x12d8(%rbp),%rax
   13017:	48 89 85 b0 f9 ff ff 	mov    %rax,-0x650(%rbp)
   1301e:	48 c7 85 b8 f9 ff ff 	movq   $0x0,-0x648(%rbp)
   13025:	00 00 00 00 
   13029:	48 c7 85 c0 f9 ff ff 	movq   $0x0,-0x640(%rbp)
   13030:	00 00 00 00 
   13034:	48 8d 85 3c ed ff ff 	lea    -0x12c4(%rbp),%rax
   1303b:	48 89 85 c8 f9 ff ff 	mov    %rax,-0x638(%rbp)
   13042:	48 8d 85 34 ed ff ff 	lea    -0x12cc(%rbp),%rax
   13049:	48 89 85 d0 f9 ff ff 	mov    %rax,-0x630(%rbp)
   13050:	48 8d 05 45 90 00 00 	lea    0x9045(%rip),%rax        # 1c09c <g_266>
   13057:	48 89 85 d8 f9 ff ff 	mov    %rax,-0x628(%rbp)
   1305e:	48 8d 85 28 ed ff ff 	lea    -0x12d8(%rbp),%rax
   13065:	48 89 85 e0 f9 ff ff 	mov    %rax,-0x620(%rbp)
   1306c:	48 8d 85 28 ed ff ff 	lea    -0x12d8(%rbp),%rax
   13073:	48 89 85 e8 f9 ff ff 	mov    %rax,-0x618(%rbp)
   1307a:	48 8d 85 40 ed ff ff 	lea    -0x12c0(%rbp),%rax
   13081:	48 89 85 f0 f9 ff ff 	mov    %rax,-0x610(%rbp)
   13088:	48 c7 85 f8 f9 ff ff 	movq   $0x0,-0x608(%rbp)
   1308f:	00 00 00 00 
   13093:	48 8d 85 34 ed ff ff 	lea    -0x12cc(%rbp),%rax
   1309a:	48 89 85 00 fa ff ff 	mov    %rax,-0x600(%rbp)
   130a1:	48 c7 85 08 fa ff ff 	movq   $0x0,-0x5f8(%rbp)
   130a8:	00 00 00 00 
   130ac:	48 8d 85 2c ed ff ff 	lea    -0x12d4(%rbp),%rax
   130b3:	48 89 85 10 fa ff ff 	mov    %rax,-0x5f0(%rbp)
   130ba:	48 c7 85 18 fa ff ff 	movq   $0x0,-0x5e8(%rbp)
   130c1:	00 00 00 00 
   130c5:	48 c7 85 20 fa ff ff 	movq   $0x0,-0x5e0(%rbp)
   130cc:	00 00 00 00 
   130d0:	48 8d 05 5d 8f 00 00 	lea    0x8f5d(%rip),%rax        # 1c034 <g_57+0x4>
   130d7:	48 89 85 28 fa ff ff 	mov    %rax,-0x5d8(%rbp)
   130de:	48 c7 85 30 fa ff ff 	movq   $0x0,-0x5d0(%rbp)
   130e5:	00 00 00 00 
   130e9:	48 8d 85 28 ed ff ff 	lea    -0x12d8(%rbp),%rax
   130f0:	48 89 85 38 fa ff ff 	mov    %rax,-0x5c8(%rbp)
   130f7:	48 c7 85 40 fa ff ff 	movq   $0x0,-0x5c0(%rbp)
   130fe:	00 00 00 00 
   13102:	48 8d 05 3b 8f 00 00 	lea    0x8f3b(%rip),%rax        # 1c044 <g_57+0x14>
   13109:	48 89 85 48 fa ff ff 	mov    %rax,-0x5b8(%rbp)
   13110:	48 c7 85 50 fa ff ff 	movq   $0x0,-0x5b0(%rbp)
   13117:	00 00 00 00 
   1311b:	48 8d 85 3c ed ff ff 	lea    -0x12c4(%rbp),%rax
   13122:	48 89 85 58 fa ff ff 	mov    %rax,-0x5a8(%rbp)
   13129:	48 8d 85 40 ed ff ff 	lea    -0x12c0(%rbp),%rax
   13130:	48 89 85 60 fa ff ff 	mov    %rax,-0x5a0(%rbp)
   13137:	48 c7 85 68 fa ff ff 	movq   $0x0,-0x598(%rbp)
   1313e:	00 00 00 00 
   13142:	48 8d 85 38 ed ff ff 	lea    -0x12c8(%rbp),%rax
   13149:	48 89 85 70 fa ff ff 	mov    %rax,-0x590(%rbp)
   13150:	48 8d 85 28 ed ff ff 	lea    -0x12d8(%rbp),%rax
   13157:	48 89 85 78 fa ff ff 	mov    %rax,-0x588(%rbp)
   1315e:	48 c7 85 80 fa ff ff 	movq   $0x0,-0x580(%rbp)
   13165:	00 00 00 00 
   13169:	48 c7 85 88 fa ff ff 	movq   $0x0,-0x578(%rbp)
   13170:	00 00 00 00 
   13174:	48 c7 85 90 fa ff ff 	movq   $0x0,-0x570(%rbp)
   1317b:	00 00 00 00 
   1317f:	48 8d 05 be 8e 00 00 	lea    0x8ebe(%rip),%rax        # 1c044 <g_57+0x14>
   13186:	48 89 85 98 fa ff ff 	mov    %rax,-0x568(%rbp)
   1318d:	48 8d 85 38 ed ff ff 	lea    -0x12c8(%rbp),%rax
   13194:	48 89 85 a0 fa ff ff 	mov    %rax,-0x560(%rbp)
   1319b:	48 8d 85 34 ed ff ff 	lea    -0x12cc(%rbp),%rax
   131a2:	48 89 85 a8 fa ff ff 	mov    %rax,-0x558(%rbp)
   131a9:	48 8d 05 ec 8e 00 00 	lea    0x8eec(%rip),%rax        # 1c09c <g_266>
   131b0:	48 89 85 b0 fa ff ff 	mov    %rax,-0x550(%rbp)
   131b7:	48 8d 85 34 ed ff ff 	lea    -0x12cc(%rbp),%rax
   131be:	48 89 85 b8 fa ff ff 	mov    %rax,-0x548(%rbp)
   131c5:	48 c7 85 c0 fa ff ff 	movq   $0x0,-0x540(%rbp)
   131cc:	00 00 00 00 
   131d0:	48 8d 85 3c ed ff ff 	lea    -0x12c4(%rbp),%rax
   131d7:	48 89 85 c8 fa ff ff 	mov    %rax,-0x538(%rbp)
   131de:	48 c7 85 d0 fa ff ff 	movq   $0x0,-0x530(%rbp)
   131e5:	00 00 00 00 
   131e9:	48 c7 85 d8 fa ff ff 	movq   $0x0,-0x528(%rbp)
   131f0:	00 00 00 00 
   131f4:	48 8d 85 28 ed ff ff 	lea    -0x12d8(%rbp),%rax
   131fb:	48 89 85 e0 fa ff ff 	mov    %rax,-0x520(%rbp)
   13202:	48 8d 85 28 ed ff ff 	lea    -0x12d8(%rbp),%rax
   13209:	48 89 85 e8 fa ff ff 	mov    %rax,-0x518(%rbp)
   13210:	48 8d 85 38 ed ff ff 	lea    -0x12c8(%rbp),%rax
   13217:	48 89 85 f0 fa ff ff 	mov    %rax,-0x510(%rbp)
   1321e:	48 8d 05 1f 8e 00 00 	lea    0x8e1f(%rip),%rax        # 1c044 <g_57+0x14>
   13225:	48 89 85 f8 fa ff ff 	mov    %rax,-0x508(%rbp)
   1322c:	48 8d 05 11 8e 00 00 	lea    0x8e11(%rip),%rax        # 1c044 <g_57+0x14>
   13233:	48 89 85 00 fb ff ff 	mov    %rax,-0x500(%rbp)
   1323a:	48 8d 85 2c ed ff ff 	lea    -0x12d4(%rbp),%rax
   13241:	48 89 85 08 fb ff ff 	mov    %rax,-0x4f8(%rbp)
   13248:	48 8d 85 34 ed ff ff 	lea    -0x12cc(%rbp),%rax
   1324f:	48 89 85 10 fb ff ff 	mov    %rax,-0x4f0(%rbp)
   13256:	48 8d 85 28 ed ff ff 	lea    -0x12d8(%rbp),%rax
   1325d:	48 89 85 18 fb ff ff 	mov    %rax,-0x4e8(%rbp)
   13264:	48 8d 85 3c ed ff ff 	lea    -0x12c4(%rbp),%rax
   1326b:	48 89 85 20 fb ff ff 	mov    %rax,-0x4e0(%rbp)
   13272:	48 8d 85 28 ed ff ff 	lea    -0x12d8(%rbp),%rax
   13279:	48 89 85 28 fb ff ff 	mov    %rax,-0x4d8(%rbp)
   13280:	48 8d 85 28 ed ff ff 	lea    -0x12d8(%rbp),%rax
   13287:	48 89 85 30 fb ff ff 	mov    %rax,-0x4d0(%rbp)
   1328e:	48 8d 85 38 ed ff ff 	lea    -0x12c8(%rbp),%rax
   13295:	48 89 85 38 fb ff ff 	mov    %rax,-0x4c8(%rbp)
   1329c:	48 8d 85 28 ed ff ff 	lea    -0x12d8(%rbp),%rax
   132a3:	48 89 85 40 fb ff ff 	mov    %rax,-0x4c0(%rbp)
   132aa:	48 8d 85 38 ed ff ff 	lea    -0x12c8(%rbp),%rax
   132b1:	48 89 85 48 fb ff ff 	mov    %rax,-0x4b8(%rbp)
   132b8:	48 8d 85 28 ed ff ff 	lea    -0x12d8(%rbp),%rax
   132bf:	48 89 85 50 fb ff ff 	mov    %rax,-0x4b0(%rbp)
   132c6:	48 c7 85 58 fb ff ff 	movq   $0x0,-0x4a8(%rbp)
   132cd:	00 00 00 00 
   132d1:	48 8d 85 3c ed ff ff 	lea    -0x12c4(%rbp),%rax
   132d8:	48 89 85 60 fb ff ff 	mov    %rax,-0x4a0(%rbp)
   132df:	48 c7 85 68 fb ff ff 	movq   $0x0,-0x498(%rbp)
   132e6:	00 00 00 00 
   132ea:	48 8d 85 2c ed ff ff 	lea    -0x12d4(%rbp),%rax
   132f1:	48 89 85 70 fb ff ff 	mov    %rax,-0x490(%rbp)
   132f8:	48 8d 85 2c ed ff ff 	lea    -0x12d4(%rbp),%rax
   132ff:	48 89 85 78 fb ff ff 	mov    %rax,-0x488(%rbp)
   13306:	48 8d 85 3c ed ff ff 	lea    -0x12c4(%rbp),%rax
   1330d:	48 89 85 80 fb ff ff 	mov    %rax,-0x480(%rbp)
   13314:	48 8d 85 3c ed ff ff 	lea    -0x12c4(%rbp),%rax
   1331b:	48 89 85 88 fb ff ff 	mov    %rax,-0x478(%rbp)
   13322:	48 8d 85 34 ed ff ff 	lea    -0x12cc(%rbp),%rax
   13329:	48 89 85 90 fb ff ff 	mov    %rax,-0x470(%rbp)
   13330:	48 8d 05 f9 8c 00 00 	lea    0x8cf9(%rip),%rax        # 1c030 <g_57>
   13337:	48 89 85 98 fb ff ff 	mov    %rax,-0x468(%rbp)
   1333e:	48 8d 85 2c ed ff ff 	lea    -0x12d4(%rbp),%rax
   13345:	48 89 85 a0 fb ff ff 	mov    %rax,-0x460(%rbp)
   1334c:	48 c7 85 a8 fb ff ff 	movq   $0x0,-0x458(%rbp)
   13353:	00 00 00 00 
   13357:	48 c7 85 b0 fb ff ff 	movq   $0x0,-0x450(%rbp)
   1335e:	00 00 00 00 
   13362:	48 8d 85 3c ed ff ff 	lea    -0x12c4(%rbp),%rax
   13369:	48 89 85 b8 fb ff ff 	mov    %rax,-0x448(%rbp)
   13370:	48 8d 85 40 ed ff ff 	lea    -0x12c0(%rbp),%rax
   13377:	48 89 85 c0 fb ff ff 	mov    %rax,-0x440(%rbp)
   1337e:	48 c7 85 c8 fb ff ff 	movq   $0x0,-0x438(%rbp)
   13385:	00 00 00 00 
   13389:	48 c7 85 d0 fb ff ff 	movq   $0x0,-0x430(%rbp)
   13390:	00 00 00 00 
   13394:	48 8d 85 28 ed ff ff 	lea    -0x12d8(%rbp),%rax
   1339b:	48 89 85 d8 fb ff ff 	mov    %rax,-0x428(%rbp)
   133a2:	48 8d 85 2c ed ff ff 	lea    -0x12d4(%rbp),%rax
   133a9:	48 89 85 e0 fb ff ff 	mov    %rax,-0x420(%rbp)
   133b0:	48 8d 85 2c ed ff ff 	lea    -0x12d4(%rbp),%rax
   133b7:	48 89 85 e8 fb ff ff 	mov    %rax,-0x418(%rbp)
   133be:	48 8d 85 34 ed ff ff 	lea    -0x12cc(%rbp),%rax
   133c5:	48 89 85 f0 fb ff ff 	mov    %rax,-0x410(%rbp)
   133cc:	48 c7 85 f8 fb ff ff 	movq   $0x0,-0x408(%rbp)
   133d3:	00 00 00 00 
   133d7:	48 8d 85 3c ed ff ff 	lea    -0x12c4(%rbp),%rax
   133de:	48 89 85 00 fc ff ff 	mov    %rax,-0x400(%rbp)
   133e5:	48 c7 85 08 fc ff ff 	movq   $0x0,-0x3f8(%rbp)
   133ec:	00 00 00 00 
   133f0:	48 8d 85 2c ed ff ff 	lea    -0x12d4(%rbp),%rax
   133f7:	48 89 85 10 fc ff ff 	mov    %rax,-0x3f0(%rbp)
   133fe:	48 8d 85 38 ed ff ff 	lea    -0x12c8(%rbp),%rax
   13405:	48 89 85 18 fc ff ff 	mov    %rax,-0x3e8(%rbp)
   1340c:	48 8d 85 3c ed ff ff 	lea    -0x12c4(%rbp),%rax
   13413:	48 89 85 20 fc ff ff 	mov    %rax,-0x3e0(%rbp)
   1341a:	48 c7 85 28 fc ff ff 	movq   $0x0,-0x3d8(%rbp)
   13421:	00 00 00 00 
   13425:	48 8d 85 28 ed ff ff 	lea    -0x12d8(%rbp),%rax
   1342c:	48 89 85 30 fc ff ff 	mov    %rax,-0x3d0(%rbp)
   13433:	48 8d 85 3c ed ff ff 	lea    -0x12c4(%rbp),%rax
   1343a:	48 89 85 38 fc ff ff 	mov    %rax,-0x3c8(%rbp)
   13441:	48 8d 85 28 ed ff ff 	lea    -0x12d8(%rbp),%rax
   13448:	48 89 85 40 fc ff ff 	mov    %rax,-0x3c0(%rbp)
   1344f:	48 8d 85 34 ed ff ff 	lea    -0x12cc(%rbp),%rax
   13456:	48 89 85 48 fc ff ff 	mov    %rax,-0x3b8(%rbp)
   1345d:	48 8d 85 28 ed ff ff 	lea    -0x12d8(%rbp),%rax
   13464:	48 89 85 50 fc ff ff 	mov    %rax,-0x3b0(%rbp)
   1346b:	48 c7 85 58 fc ff ff 	movq   $0x0,-0x3a8(%rbp)
   13472:	00 00 00 00 
   13476:	48 8d 85 3c ed ff ff 	lea    -0x12c4(%rbp),%rax
   1347d:	48 89 85 60 fc ff ff 	mov    %rax,-0x3a0(%rbp)
   13484:	48 8d 85 38 ed ff ff 	lea    -0x12c8(%rbp),%rax
   1348b:	48 89 85 68 fc ff ff 	mov    %rax,-0x398(%rbp)
   13492:	48 8d 85 34 ed ff ff 	lea    -0x12cc(%rbp),%rax
   13499:	48 89 85 70 fc ff ff 	mov    %rax,-0x390(%rbp)
   134a0:	48 c7 85 78 fc ff ff 	movq   $0x0,-0x388(%rbp)
   134a7:	00 00 00 00 
   134ab:	48 8d 05 92 8b 00 00 	lea    0x8b92(%rip),%rax        # 1c044 <g_57+0x14>
   134b2:	48 89 85 80 fc ff ff 	mov    %rax,-0x380(%rbp)
   134b9:	48 8d 85 28 ed ff ff 	lea    -0x12d8(%rbp),%rax
   134c0:	48 89 85 88 fc ff ff 	mov    %rax,-0x378(%rbp)
   134c7:	48 8d 85 38 ed ff ff 	lea    -0x12c8(%rbp),%rax
   134ce:	48 89 85 90 fc ff ff 	mov    %rax,-0x370(%rbp)
   134d5:	48 8d 05 6c 8b 00 00 	lea    0x8b6c(%rip),%rax        # 1c048 <g_57+0x18>
   134dc:	48 89 85 98 fc ff ff 	mov    %rax,-0x368(%rbp)
   134e3:	48 8d 85 28 ed ff ff 	lea    -0x12d8(%rbp),%rax
   134ea:	48 89 85 a0 fc ff ff 	mov    %rax,-0x360(%rbp)
   134f1:	48 8d 85 3c ed ff ff 	lea    -0x12c4(%rbp),%rax
   134f8:	48 89 85 a8 fc ff ff 	mov    %rax,-0x358(%rbp)
   134ff:	48 c7 85 b0 fc ff ff 	movq   $0x0,-0x350(%rbp)
   13506:	00 00 00 00 
   1350a:	48 8d 85 34 ed ff ff 	lea    -0x12cc(%rbp),%rax
   13511:	48 89 85 b8 fc ff ff 	mov    %rax,-0x348(%rbp)
   13518:	48 c7 85 c0 fc ff ff 	movq   $0x0,-0x340(%rbp)
   1351f:	00 00 00 00 
   13523:	48 c7 85 c8 fc ff ff 	movq   $0x0,-0x338(%rbp)
   1352a:	00 00 00 00 
   1352e:	48 8d 05 67 8b 00 00 	lea    0x8b67(%rip),%rax        # 1c09c <g_266>
   13535:	48 89 85 d0 fc ff ff 	mov    %rax,-0x330(%rbp)
   1353c:	48 8d 05 f9 8a 00 00 	lea    0x8af9(%rip),%rax        # 1c03c <g_57+0xc>
   13543:	48 89 85 d8 fc ff ff 	mov    %rax,-0x328(%rbp)
   1354a:	48 8d 85 38 ed ff ff 	lea    -0x12c8(%rbp),%rax
   13551:	48 89 85 e0 fc ff ff 	mov    %rax,-0x320(%rbp)
   13558:	48 8d 05 d1 8a 00 00 	lea    0x8ad1(%rip),%rax        # 1c030 <g_57>
   1355f:	48 89 85 e8 fc ff ff 	mov    %rax,-0x318(%rbp)
   13566:	48 c7 85 f0 fc ff ff 	movq   $0x0,-0x310(%rbp)
   1356d:	00 00 00 00 
   13571:	48 8d 05 24 8b 00 00 	lea    0x8b24(%rip),%rax        # 1c09c <g_266>
   13578:	48 89 85 f8 fc ff ff 	mov    %rax,-0x308(%rbp)
   1357f:	48 c7 85 00 fd ff ff 	movq   $0x0,-0x300(%rbp)
   13586:	00 00 00 00 
   1358a:	48 8d 05 0b 8b 00 00 	lea    0x8b0b(%rip),%rax        # 1c09c <g_266>
   13591:	48 89 85 08 fd ff ff 	mov    %rax,-0x2f8(%rbp)
   13598:	48 8d 85 38 ed ff ff 	lea    -0x12c8(%rbp),%rax
   1359f:	48 89 85 10 fd ff ff 	mov    %rax,-0x2f0(%rbp)
   135a6:	48 8d 85 40 ed ff ff 	lea    -0x12c0(%rbp),%rax
   135ad:	48 89 85 18 fd ff ff 	mov    %rax,-0x2e8(%rbp)
   135b4:	48 8d 85 40 ed ff ff 	lea    -0x12c0(%rbp),%rax
   135bb:	48 89 85 20 fd ff ff 	mov    %rax,-0x2e0(%rbp)
   135c2:	48 8d 85 2c ed ff ff 	lea    -0x12d4(%rbp),%rax
   135c9:	48 89 85 28 fd ff ff 	mov    %rax,-0x2d8(%rbp)
   135d0:	48 c7 85 30 fd ff ff 	movq   $0x0,-0x2d0(%rbp)
   135d7:	00 00 00 00 
   135db:	48 c7 85 38 fd ff ff 	movq   $0x0,-0x2c8(%rbp)
   135e2:	00 00 00 00 
   135e6:	48 c7 85 40 fd ff ff 	movq   $0x0,-0x2c0(%rbp)
   135ed:	00 00 00 00 
   135f1:	48 c7 85 48 fd ff ff 	movq   $0x0,-0x2b8(%rbp)
   135f8:	00 00 00 00 
   135fc:	48 c7 85 50 fd ff ff 	movq   $0x0,-0x2b0(%rbp)
   13603:	00 00 00 00 
   13607:	48 8d 85 34 ed ff ff 	lea    -0x12cc(%rbp),%rax
   1360e:	48 89 85 58 fd ff ff 	mov    %rax,-0x2a8(%rbp)
   13615:	48 c7 85 60 fd ff ff 	movq   $0x0,-0x2a0(%rbp)
   1361c:	00 00 00 00 
   13620:	48 c7 85 68 fd ff ff 	movq   $0x0,-0x298(%rbp)
   13627:	00 00 00 00 
   1362b:	48 8d 85 2c ed ff ff 	lea    -0x12d4(%rbp),%rax
   13632:	48 89 85 70 fd ff ff 	mov    %rax,-0x290(%rbp)
   13639:	48 8d 05 f8 89 00 00 	lea    0x89f8(%rip),%rax        # 1c038 <g_57+0x8>
   13640:	48 89 85 78 fd ff ff 	mov    %rax,-0x288(%rbp)
   13647:	48 8d 85 34 ed ff ff 	lea    -0x12cc(%rbp),%rax
   1364e:	48 89 85 80 fd ff ff 	mov    %rax,-0x280(%rbp)
   13655:	48 8d 85 28 ed ff ff 	lea    -0x12d8(%rbp),%rax
   1365c:	48 89 85 88 fd ff ff 	mov    %rax,-0x278(%rbp)
   13663:	48 8d 85 40 ed ff ff 	lea    -0x12c0(%rbp),%rax
   1366a:	48 89 85 90 fd ff ff 	mov    %rax,-0x270(%rbp)
   13671:	48 c7 85 98 fd ff ff 	movq   $0x0,-0x268(%rbp)
   13678:	00 00 00 00 
   1367c:	48 8d 85 28 ed ff ff 	lea    -0x12d8(%rbp),%rax
   13683:	48 89 85 a0 fd ff ff 	mov    %rax,-0x260(%rbp)
   1368a:	48 8d 85 2c ed ff ff 	lea    -0x12d4(%rbp),%rax
   13691:	48 89 85 a8 fd ff ff 	mov    %rax,-0x258(%rbp)
   13698:	48 8d 85 34 ed ff ff 	lea    -0x12cc(%rbp),%rax
   1369f:	48 89 85 b0 fd ff ff 	mov    %rax,-0x250(%rbp)
   136a6:	48 8d 85 3c ed ff ff 	lea    -0x12c4(%rbp),%rax
   136ad:	48 89 85 b8 fd ff ff 	mov    %rax,-0x248(%rbp)
   136b4:	48 c7 85 c0 fd ff ff 	movq   $0x0,-0x240(%rbp)
   136bb:	00 00 00 00 
   136bf:	48 8d 85 38 ed ff ff 	lea    -0x12c8(%rbp),%rax
   136c6:	48 89 85 c8 fd ff ff 	mov    %rax,-0x238(%rbp)
   136cd:	48 8d 85 28 ed ff ff 	lea    -0x12d8(%rbp),%rax
   136d4:	48 89 85 d0 fd ff ff 	mov    %rax,-0x230(%rbp)
   136db:	48 8d 85 40 ed ff ff 	lea    -0x12c0(%rbp),%rax
   136e2:	48 89 85 d8 fd ff ff 	mov    %rax,-0x228(%rbp)
   136e9:	48 8d 85 34 ed ff ff 	lea    -0x12cc(%rbp),%rax
   136f0:	48 89 85 e0 fd ff ff 	mov    %rax,-0x220(%rbp)
   136f7:	48 c7 85 e8 fd ff ff 	movq   $0x0,-0x218(%rbp)
   136fe:	00 00 00 00 
   13702:	48 8d 05 3f 89 00 00 	lea    0x893f(%rip),%rax        # 1c048 <g_57+0x18>
   13709:	48 89 85 f0 fd ff ff 	mov    %rax,-0x210(%rbp)
   13710:	48 8d 85 28 ed ff ff 	lea    -0x12d8(%rbp),%rax
   13717:	48 89 85 f8 fd ff ff 	mov    %rax,-0x208(%rbp)
   1371e:	48 8d 85 28 ed ff ff 	lea    -0x12d8(%rbp),%rax
   13725:	48 89 85 00 fe ff ff 	mov    %rax,-0x200(%rbp)
   1372c:	48 8d 05 15 89 00 00 	lea    0x8915(%rip),%rax        # 1c048 <g_57+0x18>
   13733:	48 89 85 08 fe ff ff 	mov    %rax,-0x1f8(%rbp)
   1373a:	48 8d 85 28 ed ff ff 	lea    -0x12d8(%rbp),%rax
   13741:	48 89 85 10 fe ff ff 	mov    %rax,-0x1f0(%rbp)
   13748:	48 c7 85 18 fe ff ff 	movq   $0x0,-0x1e8(%rbp)
   1374f:	00 00 00 00 
   13753:	48 c7 85 20 fe ff ff 	movq   $0x0,-0x1e0(%rbp)
   1375a:	00 00 00 00 
   1375e:	48 8d 85 3c ed ff ff 	lea    -0x12c4(%rbp),%rax
   13765:	48 89 85 28 fe ff ff 	mov    %rax,-0x1d8(%rbp)
   1376c:	48 8d 85 3c ed ff ff 	lea    -0x12c4(%rbp),%rax
   13773:	48 89 85 30 fe ff ff 	mov    %rax,-0x1d0(%rbp)
   1377a:	48 8d 05 c3 88 00 00 	lea    0x88c3(%rip),%rax        # 1c044 <g_57+0x14>
   13781:	48 89 85 38 fe ff ff 	mov    %rax,-0x1c8(%rbp)
   13788:	48 c7 85 40 fe ff ff 	movq   $0x0,-0x1c0(%rbp)
   1378f:	00 00 00 00 
   13793:	48 c7 85 48 fe ff ff 	movq   $0x0,-0x1b8(%rbp)
   1379a:	00 00 00 00 
   1379e:	48 8d 05 97 88 00 00 	lea    0x8897(%rip),%rax        # 1c03c <g_57+0xc>
   137a5:	48 89 85 50 fe ff ff 	mov    %rax,-0x1b0(%rbp)
   137ac:	48 8d 85 38 ed ff ff 	lea    -0x12c8(%rbp),%rax
   137b3:	48 89 85 58 fe ff ff 	mov    %rax,-0x1a8(%rbp)
   137ba:	48 8d 85 38 ed ff ff 	lea    -0x12c8(%rbp),%rax
   137c1:	48 89 85 60 fe ff ff 	mov    %rax,-0x1a0(%rbp)
   137c8:	48 c7 85 68 fe ff ff 	movq   $0x0,-0x198(%rbp)
   137cf:	00 00 00 00 
   137d3:	48 c7 85 70 fe ff ff 	movq   $0x0,-0x190(%rbp)
   137da:	00 00 00 00 
   137de:	48 8d 05 5f 88 00 00 	lea    0x885f(%rip),%rax        # 1c044 <g_57+0x14>
   137e5:	48 89 85 78 fe ff ff 	mov    %rax,-0x188(%rbp)
   137ec:	48 8d 85 34 ed ff ff 	lea    -0x12cc(%rbp),%rax
   137f3:	48 89 85 80 fe ff ff 	mov    %rax,-0x180(%rbp)
   137fa:	48 8d 85 40 ed ff ff 	lea    -0x12c0(%rbp),%rax
   13801:	48 89 85 88 fe ff ff 	mov    %rax,-0x178(%rbp)
   13808:	48 8d 85 2c ed ff ff 	lea    -0x12d4(%rbp),%rax
   1380f:	48 89 85 90 fe ff ff 	mov    %rax,-0x170(%rbp)
   13816:	48 c7 85 98 fe ff ff 	movq   $0x0,-0x168(%rbp)
   1381d:	00 00 00 00 
   13821:	48 8d 05 74 88 00 00 	lea    0x8874(%rip),%rax        # 1c09c <g_266>
   13828:	48 89 85 a0 fe ff ff 	mov    %rax,-0x160(%rbp)
   1382f:	48 c7 85 a8 fe ff ff 	movq   $0x0,-0x158(%rbp)
   13836:	00 00 00 00 
   1383a:	48 8d 85 40 ed ff ff 	lea    -0x12c0(%rbp),%rax
   13841:	48 89 85 b0 fe ff ff 	mov    %rax,-0x150(%rbp)
   13848:	48 8d 05 f5 87 00 00 	lea    0x87f5(%rip),%rax        # 1c044 <g_57+0x14>
   1384f:	48 89 85 b8 fe ff ff 	mov    %rax,-0x148(%rbp)
   13856:	48 c7 85 c0 fe ff ff 	movq   $0x0,-0x140(%rbp)
   1385d:	00 00 00 00 
   13861:	48 8d 85 3c ed ff ff 	lea    -0x12c4(%rbp),%rax
   13868:	48 89 85 c8 fe ff ff 	mov    %rax,-0x138(%rbp)
   1386f:	48 8d 05 ce 87 00 00 	lea    0x87ce(%rip),%rax        # 1c044 <g_57+0x14>
   13876:	48 89 85 d0 fe ff ff 	mov    %rax,-0x130(%rbp)
   1387d:	48 8d 85 3c ed ff ff 	lea    -0x12c4(%rbp),%rax
   13884:	48 89 85 d8 fe ff ff 	mov    %rax,-0x128(%rbp)
   1388b:	48 8d 05 0a 88 00 00 	lea    0x880a(%rip),%rax        # 1c09c <g_266>
   13892:	48 89 85 e0 fe ff ff 	mov    %rax,-0x120(%rbp)
   13899:	48 c7 85 e8 fe ff ff 	movq   $0x0,-0x118(%rbp)
   138a0:	00 00 00 00 
   138a4:	48 8d 85 3c ed ff ff 	lea    -0x12c4(%rbp),%rax
   138ab:	48 89 85 f0 fe ff ff 	mov    %rax,-0x110(%rbp)
   138b2:	48 8d 85 38 ed ff ff 	lea    -0x12c8(%rbp),%rax
   138b9:	48 89 85 f8 fe ff ff 	mov    %rax,-0x108(%rbp)
   138c0:	48 8d 85 3c ed ff ff 	lea    -0x12c4(%rbp),%rax
   138c7:	48 89 85 00 ff ff ff 	mov    %rax,-0x100(%rbp)
   138ce:	48 8d 85 38 ed ff ff 	lea    -0x12c8(%rbp),%rax
   138d5:	48 89 85 08 ff ff ff 	mov    %rax,-0xf8(%rbp)
   138dc:	48 8d 05 61 87 00 00 	lea    0x8761(%rip),%rax        # 1c044 <g_57+0x14>
   138e3:	48 89 85 10 ff ff ff 	mov    %rax,-0xf0(%rbp)
   138ea:	48 8d 85 3c ed ff ff 	lea    -0x12c4(%rbp),%rax
   138f1:	48 89 85 18 ff ff ff 	mov    %rax,-0xe8(%rbp)
   138f8:	48 8d 85 2c ed ff ff 	lea    -0x12d4(%rbp),%rax
   138ff:	48 89 85 20 ff ff ff 	mov    %rax,-0xe0(%rbp)
   13906:	48 c7 85 28 ff ff ff 	movq   $0x0,-0xd8(%rbp)
   1390d:	00 00 00 00 
   13911:	48 8d 85 40 ed ff ff 	lea    -0x12c0(%rbp),%rax
   13918:	48 89 85 30 ff ff ff 	mov    %rax,-0xd0(%rbp)
   1391f:	48 8d 85 28 ed ff ff 	lea    -0x12d8(%rbp),%rax
   13926:	48 89 85 38 ff ff ff 	mov    %rax,-0xc8(%rbp)
   1392d:	48 8d 85 38 ed ff ff 	lea    -0x12c8(%rbp),%rax
   13934:	48 89 85 40 ff ff ff 	mov    %rax,-0xc0(%rbp)
   1393b:	48 8d 05 02 87 00 00 	lea    0x8702(%rip),%rax        # 1c044 <g_57+0x14>
   13942:	48 89 85 48 ff ff ff 	mov    %rax,-0xb8(%rbp)
   13949:	48 8d 85 3c ed ff ff 	lea    -0x12c4(%rbp),%rax
   13950:	48 89 85 50 ff ff ff 	mov    %rax,-0xb0(%rbp)
   13957:	48 8d 85 2c ed ff ff 	lea    -0x12d4(%rbp),%rax
   1395e:	48 89 85 58 ff ff ff 	mov    %rax,-0xa8(%rbp)
   13965:	48 8d 85 2c ed ff ff 	lea    -0x12d4(%rbp),%rax
   1396c:	48 89 85 60 ff ff ff 	mov    %rax,-0xa0(%rbp)
   13973:	48 8d 85 34 ed ff ff 	lea    -0x12cc(%rbp),%rax
   1397a:	48 89 85 68 ff ff ff 	mov    %rax,-0x98(%rbp)
   13981:	48 8d 85 34 ed ff ff 	lea    -0x12cc(%rbp),%rax
   13988:	48 89 85 70 ff ff ff 	mov    %rax,-0x90(%rbp)
   1398f:	48 c7 85 78 ff ff ff 	movq   $0x0,-0x88(%rbp)
   13996:	00 00 00 00 
   1399a:	48 c7 45 80 00 00 00 	movq   $0x0,-0x80(%rbp)
   139a1:	00 
   139a2:	48 8d 85 3c ed ff ff 	lea    -0x12c4(%rbp),%rax
   139a9:	48 89 45 88          	mov    %rax,-0x78(%rbp)
   139ad:	48 c7 45 90 00 00 00 	movq   $0x0,-0x70(%rbp)
   139b4:	00 
   139b5:	48 c7 45 98 00 00 00 	movq   $0x0,-0x68(%rbp)
   139bc:	00 
   139bd:	48 8d 85 40 ed ff ff 	lea    -0x12c0(%rbp),%rax
   139c4:	48 89 45 a0          	mov    %rax,-0x60(%rbp)
   139c8:	48 c7 45 a8 00 00 00 	movq   $0x0,-0x58(%rbp)
   139cf:	00 
   139d0:	48 8d 85 3c ed ff ff 	lea    -0x12c4(%rbp),%rax
   139d7:	48 89 45 b0          	mov    %rax,-0x50(%rbp)
   139db:	48 8d 85 3c ed ff ff 	lea    -0x12c4(%rbp),%rax
   139e2:	48 89 45 b8          	mov    %rax,-0x48(%rbp)
   139e6:	48 8d 85 3c ed ff ff 	lea    -0x12c4(%rbp),%rax
   139ed:	48 89 45 c0          	mov    %rax,-0x40(%rbp)
   139f1:	48 c7 45 c8 00 00 00 	movq   $0x0,-0x38(%rbp)
   139f8:	00 
   139f9:	48 8d 05 88 d6 00 00 	lea    0xd688(%rip),%rax        # 21088 <g_243>
   13a00:	48 89 85 38 ee ff ff 	mov    %rax,-0x11c8(%rbp)
   13a07:	0f b6 85 c0 ed ff ff 	movzbl -0x1240(%rbp),%eax
   13a0e:	83 e0 c0             	and    $0xffffffc0,%eax
   13a11:	83 c8 07             	or     $0x7,%eax
   13a14:	88 85 c0 ed ff ff    	mov    %al,-0x1240(%rbp)
   13a1a:	0f b7 85 c0 ed ff ff 	movzwl -0x1240(%rbp),%eax
   13a21:	66 25 3f f0          	and    $0xf03f,%ax
   13a25:	66 89 85 c0 ed ff ff 	mov    %ax,-0x1240(%rbp)
   13a2c:	c7 85 40 ed ff ff 00 	movl   $0x0,-0x12c0(%rbp)
   13a33:	00 00 00 
   13a36:	e9 18 02 00 00       	jmpq   13c53 <func_121+0x2266>
   13a3b:	66 c7 05 38 86 00 00 	movw   $0x3,0x8638(%rip)        # 1c07c <g_156>
   13a42:	03 00 
   13a44:	90                   	nop
   13a45:	0f b7 05 30 86 00 00 	movzwl 0x8630(%rip),%eax        # 1c07c <g_156>
   13a4c:	66 85 c0             	test   %ax,%ax
   13a4f:	78 0c                	js     13a5d <func_121+0x2070>
   13a51:	48 8b 85 f8 ed ff ff 	mov    -0x1208(%rbp),%rax
   13a58:	e9 6a 03 00 00       	jmpq   13dc7 <func_121+0x23da>
   13a5d:	c7 85 3c ed ff ff 06 	movl   $0x6,-0x12c4(%rbp)
   13a64:	00 00 00 
   13a67:	90                   	nop
   13a68:	8b 85 3c ed ff ff    	mov    -0x12c4(%rbp),%eax
   13a6e:	85 c0                	test   %eax,%eax
   13a70:	0f 88 b6 00 00 00    	js     13b2c <func_121+0x213f>
   13a76:	48 8d 05 b7 85 00 00 	lea    0x85b7(%rip),%rax        # 1c034 <g_57+0x4>
   13a7d:	48 89 85 c8 ed ff ff 	mov    %rax,-0x1238(%rbp)
   13a84:	48 8d 85 c8 ed ff ff 	lea    -0x1238(%rbp),%rax
   13a8b:	48 89 85 c0 f0 ff ff 	mov    %rax,-0xf40(%rbp)
   13a92:	48 8d 85 c8 ed ff ff 	lea    -0x1238(%rbp),%rax
   13a99:	48 89 85 c8 f0 ff ff 	mov    %rax,-0xf38(%rbp)
   13aa0:	48 8d 85 c8 ed ff ff 	lea    -0x1238(%rbp),%rax
   13aa7:	48 89 85 d0 f0 ff ff 	mov    %rax,-0xf30(%rbp)
   13aae:	48 8d 85 c8 ed ff ff 	lea    -0x1238(%rbp),%rax
   13ab5:	48 89 85 d8 f0 ff ff 	mov    %rax,-0xf28(%rbp)
   13abc:	48 8d 85 c8 ed ff ff 	lea    -0x1238(%rbp),%rax
   13ac3:	48 89 85 e0 f0 ff ff 	mov    %rax,-0xf20(%rbp)
   13aca:	48 8d 85 c8 ed ff ff 	lea    -0x1238(%rbp),%rax
   13ad1:	48 89 85 e8 f0 ff ff 	mov    %rax,-0xf18(%rbp)
   13ad8:	48 8d 85 c8 ed ff ff 	lea    -0x1238(%rbp),%rax
   13adf:	48 89 85 f0 f0 ff ff 	mov    %rax,-0xf10(%rbp)
   13ae6:	48 8d 85 c8 ed ff ff 	lea    -0x1238(%rbp),%rax
   13aed:	48 89 85 f8 f0 ff ff 	mov    %rax,-0xf08(%rbp)
   13af4:	48 8d 85 c8 ed ff ff 	lea    -0x1238(%rbp),%rax
   13afb:	48 89 85 00 f1 ff ff 	mov    %rax,-0xf00(%rbp)
   13b02:	48 8d 85 38 ed ff ff 	lea    -0x12c8(%rbp),%rax
   13b09:	48 89 85 38 f9 ff ff 	mov    %rax,-0x6c8(%rbp)
   13b10:	48 8b 05 69 85 00 00 	mov    0x8569(%rip),%rax        # 1c080 <g_176>
   13b17:	48 85 c0             	test   %rax,%rax
   13b1a:	0f 85 88 01 00 00    	jne    13ca8 <func_121+0x22bb>
   13b20:	48 8b 85 38 ee ff ff 	mov    -0x11c8(%rbp),%rax
   13b27:	e9 9b 02 00 00       	jmpq   13dc7 <func_121+0x23da>
   13b2c:	c7 85 2c ed ff ff 00 	movl   $0x0,-0x12d4(%rbp)
   13b33:	00 00 00 
   13b36:	e9 fa 00 00 00       	jmpq   13c35 <func_121+0x2248>
   13b3b:	c7 85 6c ed ff ff 01 	movl   $0x1,-0x1294(%rbp)
   13b42:	00 00 00 
   13b45:	8b 85 c0 ed ff ff    	mov    -0x1240(%rbp),%eax
   13b4b:	89 85 b8 ed ff ff    	mov    %eax,-0x1248(%rbp)
   13b51:	48 8b 05 30 85 00 00 	mov    0x8530(%rip),%rax        # 1c088 <g_200>
   13b58:	48 8d 50 ff          	lea    -0x1(%rax),%rdx
   13b5c:	48 89 15 25 85 00 00 	mov    %rdx,0x8525(%rip)        # 1c088 <g_200>
   13b63:	89 c2                	mov    %eax,%edx
   13b65:	48 8b 05 1c d5 00 00 	mov    0xd51c(%rip),%rax        # 21088 <g_243>
   13b6c:	48 8b 00             	mov    (%rax),%rax
   13b6f:	48 31 85 d0 ed ff ff 	xor    %rax,-0x1230(%rbp)
   13b76:	48 8b 85 d0 ed ff ff 	mov    -0x1230(%rbp),%rax
   13b7d:	21 d0                	and    %edx,%eax
   13b7f:	98                   	cwtl   
   13b80:	be 0a 00 00 00       	mov    $0xa,%esi
   13b85:	89 c7                	mov    %eax,%edi
   13b87:	e8 06 29 ff ff       	callq  6492 <safe_lshift_func_int16_t_s_s>
   13b8c:	98                   	cwtl   
   13b8d:	33 85 6c ed ff ff    	xor    -0x1294(%rbp),%eax
   13b93:	89 c2                	mov    %eax,%edx
   13b95:	48 8b 85 08 ed ff ff 	mov    -0x12f8(%rbp),%rax
   13b9c:	89 10                	mov    %edx,(%rax)
   13b9e:	8b 85 40 ed ff ff    	mov    -0x12c0(%rbp),%eax
   13ba4:	8b 95 40 ed ff ff    	mov    -0x12c0(%rbp),%edx
   13baa:	8d 72 03             	lea    0x3(%rdx),%esi
   13bad:	8b 95 40 ed ff ff    	mov    -0x12c0(%rbp),%edx
   13bb3:	8b 8d 2c ed ff ff    	mov    -0x12d4(%rbp),%ecx
   13bb9:	48 63 fe             	movslq %esi,%rdi
   13bbc:	48 63 f0             	movslq %eax,%rsi
   13bbf:	48 89 f0             	mov    %rsi,%rax
   13bc2:	48 01 c0             	add    %rax,%rax
   13bc5:	48 01 f0             	add    %rsi,%rax
   13bc8:	48 01 c0             	add    %rax,%rax
   13bcb:	48 01 f8             	add    %rdi,%rax
   13bce:	48 8b bc c5 e0 ef ff 	mov    -0x1020(%rbp,%rax,8),%rdi
   13bd5:	ff 
   13bd6:	4c 63 c1             	movslq %ecx,%r8
   13bd9:	48 63 f2             	movslq %edx,%rsi
   13bdc:	48 89 f0             	mov    %rsi,%rax
   13bdf:	48 01 c0             	add    %rax,%rax
   13be2:	48 01 f0             	add    %rsi,%rax
   13be5:	48 01 c0             	add    %rax,%rax
   13be8:	4c 01 c0             	add    %r8,%rax
   13beb:	48 89 bc c5 e0 ef ff 	mov    %rdi,-0x1020(%rbp,%rax,8)
   13bf2:	ff 
   13bf3:	48 63 c9             	movslq %ecx,%rcx
   13bf6:	48 63 d2             	movslq %edx,%rdx
   13bf9:	48 89 d0             	mov    %rdx,%rax
   13bfc:	48 01 c0             	add    %rax,%rax
   13bff:	48 01 d0             	add    %rdx,%rax
   13c02:	48 01 c0             	add    %rax,%rax
   13c05:	48 01 c8             	add    %rcx,%rax
   13c08:	48 8b 84 c5 e0 ef ff 	mov    -0x1020(%rbp,%rax,8),%rax
   13c0f:	ff 
   13c10:	48 39 85 30 ee ff ff 	cmp    %rax,-0x11d0(%rbp)
   13c17:	0f 95 c0             	setne  %al
   13c1a:	0f b6 d0             	movzbl %al,%edx
   13c1d:	48 8b 85 08 ed ff ff 	mov    -0x12f8(%rbp),%rax
   13c24:	89 10                	mov    %edx,(%rax)
   13c26:	8b 85 2c ed ff ff    	mov    -0x12d4(%rbp),%eax
   13c2c:	83 c0 01             	add    $0x1,%eax
   13c2f:	89 85 2c ed ff ff    	mov    %eax,-0x12d4(%rbp)
   13c35:	8b 85 2c ed ff ff    	mov    -0x12d4(%rbp),%eax
   13c3b:	83 f8 01             	cmp    $0x1,%eax
   13c3e:	0f 8e f7 fe ff ff    	jle    13b3b <func_121+0x214e>
   13c44:	8b 85 40 ed ff ff    	mov    -0x12c0(%rbp),%eax
   13c4a:	83 c0 01             	add    $0x1,%eax
   13c4d:	89 85 40 ed ff ff    	mov    %eax,-0x12c0(%rbp)
   13c53:	8b 85 40 ed ff ff    	mov    -0x12c0(%rbp),%eax
   13c59:	83 f8 01             	cmp    $0x1,%eax
   13c5c:	0f 8e d9 fd ff ff    	jle    13a3b <func_121+0x204e>
   13c62:	8b 05 e4 83 00 00    	mov    0x83e4(%rip),%eax        # 1c04c <g_116>
   13c68:	83 c0 01             	add    $0x1,%eax
   13c6b:	89 05 db 83 00 00    	mov    %eax,0x83db(%rip)        # 1c04c <g_116>
   13c71:	8b 05 d5 83 00 00    	mov    0x83d5(%rip),%eax        # 1c04c <g_116>
   13c77:	83 f8 01             	cmp    $0x1,%eax
   13c7a:	0f 86 87 f2 ff ff    	jbe    12f07 <func_121+0x151a>
   13c80:	66 83 ad 24 ed ff ff 	subw   $0x1,-0x12dc(%rbp)
   13c87:	01 
   13c88:	0f b6 85 1e ed ff ff 	movzbl -0x12e2(%rbp),%eax
   13c8f:	83 e8 01             	sub    $0x1,%eax
   13c92:	88 85 1e ed ff ff    	mov    %al,-0x12e2(%rbp)
   13c98:	0f b6 85 1e ed ff ff 	movzbl -0x12e2(%rbp),%eax
   13c9f:	84 c0                	test   %al,%al
   13ca1:	0f 89 33 e0 ff ff    	jns    11cda <func_121+0x2ed>
   13ca7:	90                   	nop
   13ca8:	8b 85 64 ed ff ff    	mov    -0x129c(%rbp),%eax
   13cae:	48 98                	cltq   
   13cb0:	48 89 05 d9 e1 00 00 	mov    %rax,0xe1d9(%rip)        # 21e90 <g_337>
   13cb7:	0f b6 05 0e 86 00 00 	movzbl 0x860e(%rip),%eax        # 1c2cc <g_307+0x22c>
   13cbe:	83 e0 c0             	and    $0xffffffc0,%eax
   13cc1:	83 c8 2c             	or     $0x2c,%eax
   13cc4:	88 05 02 86 00 00    	mov    %al,0x8602(%rip)        # 1c2cc <g_307+0x22c>
   13cca:	b9 00 00 00 00       	mov    $0x0,%ecx
   13ccf:	8b 95 68 ed ff ff    	mov    -0x1298(%rbp),%edx
   13cd5:	48 8b 85 d8 ed ff ff 	mov    -0x1228(%rbp),%rax
   13cdc:	89 10                	mov    %edx,(%rax)
   13cde:	48 8b 85 d8 ed ff ff 	mov    -0x1228(%rbp),%rax
   13ce5:	8b 10                	mov    (%rax),%edx
   13ce7:	48 8b 85 08 ed ff ff 	mov    -0x12f8(%rbp),%rax
   13cee:	8b 00                	mov    (%rax),%eax
   13cf0:	21 c1                	and    %eax,%ecx
   13cf2:	48 8b 85 08 ed ff ff 	mov    -0x12f8(%rbp),%rax
   13cf9:	89 08                	mov    %ecx,(%rax)
   13cfb:	48 8b 85 08 ed ff ff 	mov    -0x12f8(%rbp),%rax
   13d02:	8b 00                	mov    (%rax),%eax
   13d04:	09 d0                	or     %edx,%eax
   13d06:	89 c2                	mov    %eax,%edx
   13d08:	48 8b 85 f8 ed ff ff 	mov    -0x1208(%rbp),%rax
   13d0f:	48 8b 00             	mov    (%rax),%rax
   13d12:	48 bb 61 29 ac cb e5 	movabs $0x900af0e5cbac2961,%rbx
   13d19:	f0 0a 90 
   13d1c:	48 89 18             	mov    %rbx,(%rax)
   13d1f:	48 8b 00             	mov    (%rax),%rax
   13d22:	48 39 c2             	cmp    %rax,%rdx
   13d25:	0f 9e c0             	setle  %al
   13d28:	0f b6 d0             	movzbl %al,%edx
   13d2b:	48 8b 85 00 ee ff ff 	mov    -0x1200(%rbp),%rax
   13d32:	66 89 10             	mov    %dx,(%rax)
   13d35:	48 8b 85 00 ee ff ff 	mov    -0x1200(%rbp),%rax
   13d3c:	0f b7 00             	movzwl (%rax),%eax
   13d3f:	f7 d0                	not    %eax
   13d41:	89 c2                	mov    %eax,%edx
   13d43:	8b 85 28 ed ff ff    	mov    -0x12d8(%rbp),%eax
   13d49:	85 c0                	test   %eax,%eax
   13d4b:	74 2a                	je     13d77 <func_121+0x238a>
   13d4d:	0f b6 05 44 83 00 00 	movzbl 0x8344(%rip),%eax        # 1c098 <g_253>
   13d54:	83 f0 9e             	xor    $0xffffff9e,%eax
   13d57:	88 05 3b 83 00 00    	mov    %al,0x833b(%rip)        # 1c098 <g_253>
   13d5d:	0f b6 05 34 83 00 00 	movzbl 0x8334(%rip),%eax        # 1c098 <g_253>
   13d64:	48 0f be c0          	movsbq %al,%rax
   13d68:	83 e0 09             	and    $0x9,%eax
   13d6b:	48 85 c0             	test   %rax,%rax
   13d6e:	74 07                	je     13d77 <func_121+0x238a>
   13d70:	b8 01 00 00 00       	mov    $0x1,%eax
   13d75:	eb 05                	jmp    13d7c <func_121+0x238f>
   13d77:	b8 00 00 00 00       	mov    $0x0,%eax
   13d7c:	3d b9 00 00 00       	cmp    $0xb9,%eax
   13d81:	0f 9f c0             	setg   %al
   13d84:	0f b6 c0             	movzbl %al,%eax
   13d87:	09 d0                	or     %edx,%eax
   13d89:	0f b7 c0             	movzwl %ax,%eax
   13d8c:	be 17 41 00 00       	mov    $0x4117,%esi
   13d91:	89 c7                	mov    %eax,%edi
   13d93:	e8 87 2f ff ff       	callq  6d1f <safe_sub_func_uint16_t_u_u>
   13d98:	48 8b 95 a0 ed ff ff 	mov    -0x1260(%rbp),%rdx
   13d9f:	8b 0a                	mov    (%rdx),%ecx
   13da1:	0f b7 d0             	movzwl %ax,%edx
   13da4:	48 8b 85 a0 ed ff ff 	mov    -0x1260(%rbp),%rax
   13dab:	21 ca                	and    %ecx,%edx
   13dad:	89 10                	mov    %edx,(%rax)
   13daf:	48 8b 85 08 ee ff ff 	mov    -0x11f8(%rbp),%rax
   13db6:	48 8b 95 08 ed ff ff 	mov    -0x12f8(%rbp),%rdx
   13dbd:	48 89 10             	mov    %rdx,(%rax)
   13dc0:	48 8b 85 f8 ed ff ff 	mov    -0x1208(%rbp),%rax
   13dc7:	48 8b 5d d8          	mov    -0x28(%rbp),%rbx
   13dcb:	64 48 33 1c 25 28 00 	xor    %fs:0x28,%rbx
   13dd2:	00 00 
   13dd4:	74 05                	je     13ddb <func_121+0x23ee>
   13dd6:	e8 95 22 ff ff       	callq  6070 <__stack_chk_fail@plt>
   13ddb:	48 81 c4 f8 12 00 00 	add    $0x12f8,%rsp
   13de2:	5b                   	pop    %rbx
   13de3:	41 5c                	pop    %r12
   13de5:	41 5d                	pop    %r13
   13de7:	5d                   	pop    %rbp
   13de8:	c3                   	retq   

0000000000013de9 <main>:
   13de9:	f3 0f 1e fa          	endbr64 
   13ded:	55                   	push   %rbp
   13dee:	48 89 e5             	mov    %rsp,%rbp
   13df1:	48 83 ec 20          	sub    $0x20,%rsp
   13df5:	89 7d ec             	mov    %edi,-0x14(%rbp)
   13df8:	48 89 75 e0          	mov    %rsi,-0x20(%rbp)
   13dfc:	c7 45 fc 00 00 00 00 	movl   $0x0,-0x4(%rbp)
   13e03:	83 7d ec 02          	cmpl   $0x2,-0x14(%rbp)
   13e07:	74 25                	je     13e2e <main+0x45>
   13e09:	48 8b 45 e0          	mov    -0x20(%rbp),%rax
   13e0d:	48 83 c0 08          	add    $0x8,%rax
   13e11:	48 8b 00             	mov    (%rax),%rax
   13e14:	48 8d 35 95 4f 00 00 	lea    0x4f95(%rip),%rsi        # 18db0 <g_1804+0x1b50>
   13e1b:	48 89 c7             	mov    %rax,%rdi
   13e1e:	e8 6d 22 ff ff       	callq  6090 <strcmp@plt>
   13e23:	85 c0                	test   %eax,%eax
   13e25:	74 07                	je     13e2e <main+0x45>
   13e27:	c7 45 fc 01 00 00 00 	movl   $0x1,-0x4(%rbp)
   13e2e:	e8 56 23 ff ff       	callq  6189 <platform_main_begin>
   13e33:	e8 60 37 ff ff       	callq  7598 <crc32_gentab>
   13e38:	e8 78 39 ff ff       	callq  77b5 <func_1>
   13e3d:	0f b7 05 e0 81 00 00 	movzwl 0x81e0(%rip),%eax        # 1c024 <g_14>
   13e44:	0f b7 c0             	movzwl %ax,%eax
   13e47:	8b 55 fc             	mov    -0x4(%rbp),%edx
   13e4a:	48 8d 35 61 4f 00 00 	lea    0x4f61(%rip),%rsi        # 18db2 <g_1804+0x1b52>
   13e51:	48 89 c7             	mov    %rax,%rdi
   13e54:	e8 9a 38 ff ff       	callq  76f3 <transparent_crc>
   13e59:	0f b7 05 c6 81 00 00 	movzwl 0x81c6(%rip),%eax        # 1c026 <g_23>
   13e60:	0f b7 c0             	movzwl %ax,%eax
   13e63:	8b 55 fc             	mov    -0x4(%rbp),%edx
   13e66:	48 8d 35 4a 4f 00 00 	lea    0x4f4a(%rip),%rsi        # 18db7 <g_1804+0x1b57>
   13e6d:	48 89 c7             	mov    %rax,%rdi
   13e70:	e8 7e 38 ff ff       	callq  76f3 <transparent_crc>
   13e75:	48 8b 05 ac 81 00 00 	mov    0x81ac(%rip),%rax        # 1c028 <g_52>
   13e7c:	48 89 c1             	mov    %rax,%rcx
   13e7f:	8b 45 fc             	mov    -0x4(%rbp),%eax
   13e82:	89 c2                	mov    %eax,%edx
   13e84:	48 8d 35 31 4f 00 00 	lea    0x4f31(%rip),%rsi        # 18dbc <g_1804+0x1b5c>
   13e8b:	48 89 cf             	mov    %rcx,%rdi
   13e8e:	e8 60 38 ff ff       	callq  76f3 <transparent_crc>
   13e93:	c7 45 f0 00 00 00 00 	movl   $0x0,-0x10(%rbp)
   13e9a:	eb 4b                	jmp    13ee7 <main+0xfe>
   13e9c:	8b 45 f0             	mov    -0x10(%rbp),%eax
   13e9f:	48 98                	cltq   
   13ea1:	48 8d 14 85 00 00 00 	lea    0x0(,%rax,4),%rdx
   13ea8:	00 
   13ea9:	48 8d 05 80 81 00 00 	lea    0x8180(%rip),%rax        # 1c030 <g_57>
   13eb0:	8b 04 02             	mov    (%rdx,%rax,1),%eax
   13eb3:	48 98                	cltq   
   13eb5:	8b 55 fc             	mov    -0x4(%rbp),%edx
   13eb8:	48 8d 35 02 4f 00 00 	lea    0x4f02(%rip),%rsi        # 18dc1 <g_1804+0x1b61>
   13ebf:	48 89 c7             	mov    %rax,%rdi
   13ec2:	e8 2c 38 ff ff       	callq  76f3 <transparent_crc>
   13ec7:	83 7d fc 00          	cmpl   $0x0,-0x4(%rbp)
   13ecb:	74 16                	je     13ee3 <main+0xfa>
   13ecd:	8b 45 f0             	mov    -0x10(%rbp),%eax
   13ed0:	89 c6                	mov    %eax,%esi
   13ed2:	48 8d 3d f0 4e 00 00 	lea    0x4ef0(%rip),%rdi        # 18dc9 <g_1804+0x1b69>
   13ed9:	b8 00 00 00 00       	mov    $0x0,%eax
   13ede:	e8 9d 21 ff ff       	callq  6080 <printf@plt>
   13ee3:	83 45 f0 01          	addl   $0x1,-0x10(%rbp)
   13ee7:	83 7d f0 06          	cmpl   $0x6,-0x10(%rbp)
   13eeb:	7e af                	jle    13e9c <main+0xb3>
   13eed:	8b 05 59 81 00 00    	mov    0x8159(%rip),%eax        # 1c04c <g_116>
   13ef3:	89 c1                	mov    %eax,%ecx
   13ef5:	8b 45 fc             	mov    -0x4(%rbp),%eax
   13ef8:	89 c2                	mov    %eax,%edx
   13efa:	48 8d 35 d6 4e 00 00 	lea    0x4ed6(%rip),%rsi        # 18dd7 <g_1804+0x1b77>
   13f01:	48 89 cf             	mov    %rcx,%rdi
   13f04:	e8 ea 37 ff ff       	callq  76f3 <transparent_crc>
   13f09:	0f b7 05 40 81 00 00 	movzwl 0x8140(%rip),%eax        # 1c050 <g_129>
   13f10:	0f b7 c0             	movzwl %ax,%eax
   13f13:	8b 55 fc             	mov    -0x4(%rbp),%edx
   13f16:	48 8d 35 c0 4e 00 00 	lea    0x4ec0(%rip),%rsi        # 18ddd <g_1804+0x1b7d>
   13f1d:	48 89 c7             	mov    %rax,%rdi
   13f20:	e8 ce 37 ff ff       	callq  76f3 <transparent_crc>
   13f25:	0f b6 05 5c df 00 00 	movzbl 0xdf5c(%rip),%eax        # 21e88 <g_136>
   13f2c:	0f b6 c0             	movzbl %al,%eax
   13f2f:	8b 55 fc             	mov    -0x4(%rbp),%edx
   13f32:	48 8d 35 aa 4e 00 00 	lea    0x4eaa(%rip),%rsi        # 18de3 <g_1804+0x1b83>
   13f39:	48 89 c7             	mov    %rax,%rdi
   13f3c:	e8 b2 37 ff ff       	callq  76f3 <transparent_crc>
   13f41:	c7 45 f0 00 00 00 00 	movl   $0x0,-0x10(%rbp)
   13f48:	eb 6c                	jmp    13fb6 <main+0x1cd>
   13f4a:	c7 45 f4 00 00 00 00 	movl   $0x0,-0xc(%rbp)
   13f51:	eb 59                	jmp    13fac <main+0x1c3>
   13f53:	8b 45 f4             	mov    -0xc(%rbp),%eax
   13f56:	48 63 d0             	movslq %eax,%rdx
   13f59:	8b 45 f0             	mov    -0x10(%rbp),%eax
   13f5c:	48 98                	cltq   
   13f5e:	48 01 d0             	add    %rdx,%rax
   13f61:	48 8d 14 85 00 00 00 	lea    0x0(,%rax,4),%rdx
   13f68:	00 
   13f69:	48 8d 05 f0 80 00 00 	lea    0x80f0(%rip),%rax        # 1c060 <g_139>
   13f70:	8b 04 02             	mov    (%rdx,%rax,1),%eax
   13f73:	89 c1                	mov    %eax,%ecx
   13f75:	8b 45 fc             	mov    -0x4(%rbp),%eax
   13f78:	89 c2                	mov    %eax,%edx
   13f7a:	48 8d 35 68 4e 00 00 	lea    0x4e68(%rip),%rsi        # 18de9 <g_1804+0x1b89>
   13f81:	48 89 cf             	mov    %rcx,%rdi
   13f84:	e8 6a 37 ff ff       	callq  76f3 <transparent_crc>
   13f89:	83 7d fc 00          	cmpl   $0x0,-0x4(%rbp)
   13f8d:	74 19                	je     13fa8 <main+0x1bf>
   13f8f:	8b 55 f4             	mov    -0xc(%rbp),%edx
   13f92:	8b 45 f0             	mov    -0x10(%rbp),%eax
   13f95:	89 c6                	mov    %eax,%esi
   13f97:	48 8d 3d 57 4e 00 00 	lea    0x4e57(%rip),%rdi        # 18df5 <g_1804+0x1b95>
   13f9e:	b8 00 00 00 00       	mov    $0x0,%eax
   13fa3:	e8 d8 20 ff ff       	callq  6080 <printf@plt>
   13fa8:	83 45 f4 01          	addl   $0x1,-0xc(%rbp)
   13fac:	83 7d f4 00          	cmpl   $0x0,-0xc(%rbp)
   13fb0:	7e a1                	jle    13f53 <main+0x16a>
   13fb2:	83 45 f0 01          	addl   $0x1,-0x10(%rbp)
   13fb6:	83 7d f0 06          	cmpl   $0x6,-0x10(%rbp)
   13fba:	7e 8e                	jle    13f4a <main+0x161>
   13fbc:	b8 38 82 50 51       	mov    $0x51508238,%eax
   13fc1:	89 c1                	mov    %eax,%ecx
   13fc3:	8b 45 fc             	mov    -0x4(%rbp),%eax
   13fc6:	89 c2                	mov    %eax,%edx
   13fc8:	48 8d 35 38 4e 00 00 	lea    0x4e38(%rip),%rsi        # 18e07 <g_1804+0x1ba7>
   13fcf:	48 89 cf             	mov    %rcx,%rdi
   13fd2:	e8 1c 37 ff ff       	callq  76f3 <transparent_crc>
   13fd7:	0f b7 05 9e 80 00 00 	movzwl 0x809e(%rip),%eax        # 1c07c <g_156>
   13fde:	48 0f bf c0          	movswq %ax,%rax
   13fe2:	8b 55 fc             	mov    -0x4(%rbp),%edx
   13fe5:	48 8d 35 21 4e 00 00 	lea    0x4e21(%rip),%rsi        # 18e0d <g_1804+0x1bad>
   13fec:	48 89 c7             	mov    %rax,%rdi
   13fef:	e8 ff 36 ff ff       	callq  76f3 <transparent_crc>
   13ff4:	48 8b 05 85 80 00 00 	mov    0x8085(%rip),%rax        # 1c080 <g_176>
   13ffb:	8b 55 fc             	mov    -0x4(%rbp),%edx
   13ffe:	48 8d 35 0e 4e 00 00 	lea    0x4e0e(%rip),%rsi        # 18e13 <g_1804+0x1bb3>
   14005:	48 89 c7             	mov    %rax,%rdi
   14008:	e8 e6 36 ff ff       	callq  76f3 <transparent_crc>
   1400d:	48 8b 05 74 80 00 00 	mov    0x8074(%rip),%rax        # 1c088 <g_200>
   14014:	8b 55 fc             	mov    -0x4(%rbp),%edx
   14017:	48 8d 35 fb 4d 00 00 	lea    0x4dfb(%rip),%rsi        # 18e19 <g_1804+0x1bb9>
   1401e:	48 89 c7             	mov    %rax,%rdi
   14021:	e8 cd 36 ff ff       	callq  76f3 <transparent_crc>
   14026:	0f b6 05 5c de 00 00 	movzbl 0xde5c(%rip),%eax        # 21e89 <g_217>
   1402d:	48 0f be c0          	movsbq %al,%rax
   14031:	8b 55 fc             	mov    -0x4(%rbp),%edx
   14034:	48 8d 35 e4 4d 00 00 	lea    0x4de4(%rip),%rsi        # 18e1f <g_1804+0x1bbf>
   1403b:	48 89 c7             	mov    %rax,%rdi
   1403e:	e8 b0 36 ff ff       	callq  76f3 <transparent_crc>
   14043:	48 c7 c0 f9 ff ff ff 	mov    $0xfffffffffffffff9,%rax
   1404a:	48 89 c1             	mov    %rax,%rcx
   1404d:	8b 45 fc             	mov    -0x4(%rbp),%eax
   14050:	89 c2                	mov    %eax,%edx
   14052:	48 8d 35 cc 4d 00 00 	lea    0x4dcc(%rip),%rsi        # 18e25 <g_1804+0x1bc5>
   14059:	48 89 cf             	mov    %rcx,%rdi
   1405c:	e8 92 36 ff ff       	callq  76f3 <transparent_crc>
   14061:	48 8b 05 28 80 00 00 	mov    0x8028(%rip),%rax        # 1c090 <g_244>
   14068:	48 89 c1             	mov    %rax,%rcx
   1406b:	8b 45 fc             	mov    -0x4(%rbp),%eax
   1406e:	89 c2                	mov    %eax,%edx
   14070:	48 8d 35 b4 4d 00 00 	lea    0x4db4(%rip),%rsi        # 18e2b <g_1804+0x1bcb>
   14077:	48 89 cf             	mov    %rcx,%rdi
   1407a:	e8 74 36 ff ff       	callq  76f3 <transparent_crc>
   1407f:	0f b6 05 12 80 00 00 	movzbl 0x8012(%rip),%eax        # 1c098 <g_253>
   14086:	48 0f be c0          	movsbq %al,%rax
   1408a:	8b 55 fc             	mov    -0x4(%rbp),%edx
   1408d:	48 8d 35 9d 4d 00 00 	lea    0x4d9d(%rip),%rsi        # 18e31 <g_1804+0x1bd1>
   14094:	48 89 c7             	mov    %rax,%rdi
   14097:	e8 57 36 ff ff       	callq  76f3 <transparent_crc>
   1409c:	8b 05 fa 7f 00 00    	mov    0x7ffa(%rip),%eax        # 1c09c <g_266>
   140a2:	48 98                	cltq   
   140a4:	8b 55 fc             	mov    -0x4(%rbp),%edx
   140a7:	48 8d 35 89 4d 00 00 	lea    0x4d89(%rip),%rsi        # 18e37 <g_1804+0x1bd7>
   140ae:	48 89 c7             	mov    %rax,%rdi
   140b1:	e8 3d 36 ff ff       	callq  76f3 <transparent_crc>
   140b6:	c7 45 f0 00 00 00 00 	movl   $0x0,-0x10(%rbp)
   140bd:	e9 0b 01 00 00       	jmpq   141cd <main+0x3e4>
   140c2:	c7 45 f4 00 00 00 00 	movl   $0x0,-0xc(%rbp)
   140c9:	e9 f1 00 00 00       	jmpq   141bf <main+0x3d6>
   140ce:	c7 45 f8 00 00 00 00 	movl   $0x0,-0x8(%rbp)
   140d5:	e9 d7 00 00 00       	jmpq   141b1 <main+0x3c8>
   140da:	8b 45 f8             	mov    -0x8(%rbp),%eax
   140dd:	48 63 f0             	movslq %eax,%rsi
   140e0:	8b 45 f0             	mov    -0x10(%rbp),%eax
   140e3:	48 98                	cltq   
   140e5:	8b 55 f4             	mov    -0xc(%rbp),%edx
   140e8:	48 63 ca             	movslq %edx,%rcx
   140eb:	48 89 c2             	mov    %rax,%rdx
   140ee:	48 c1 e2 06          	shl    $0x6,%rdx
   140f2:	48 29 c2             	sub    %rax,%rdx
   140f5:	48 89 c8             	mov    %rcx,%rax
   140f8:	48 c1 e0 03          	shl    $0x3,%rax
   140fc:	48 01 c8             	add    %rcx,%rax
   140ff:	48 01 d0             	add    %rdx,%rax
   14102:	48 01 f0             	add    %rsi,%rax
   14105:	48 8d 14 85 00 00 00 	lea    0x0(,%rax,4),%rdx
   1410c:	00 
   1410d:	48 8d 05 8c 7f 00 00 	lea    0x7f8c(%rip),%rax        # 1c0a0 <g_307>
   14114:	0f b6 04 02          	movzbl (%rdx,%rax,1),%eax
   14118:	83 e0 3f             	and    $0x3f,%eax
   1411b:	0f b6 c0             	movzbl %al,%eax
   1411e:	8b 55 fc             	mov    -0x4(%rbp),%edx
   14121:	48 8d 35 15 4d 00 00 	lea    0x4d15(%rip),%rsi        # 18e3d <g_1804+0x1bdd>
   14128:	48 89 c7             	mov    %rax,%rdi
   1412b:	e8 c3 35 ff ff       	callq  76f3 <transparent_crc>
   14130:	8b 45 f8             	mov    -0x8(%rbp),%eax
   14133:	48 63 f0             	movslq %eax,%rsi
   14136:	8b 45 f0             	mov    -0x10(%rbp),%eax
   14139:	48 98                	cltq   
   1413b:	8b 55 f4             	mov    -0xc(%rbp),%edx
   1413e:	48 63 ca             	movslq %edx,%rcx
   14141:	48 89 c2             	mov    %rax,%rdx
   14144:	48 c1 e2 06          	shl    $0x6,%rdx
   14148:	48 29 c2             	sub    %rax,%rdx
   1414b:	48 89 c8             	mov    %rcx,%rax
   1414e:	48 c1 e0 03          	shl    $0x3,%rax
   14152:	48 01 c8             	add    %rcx,%rax
   14155:	48 01 d0             	add    %rdx,%rax
   14158:	48 01 f0             	add    %rsi,%rax
   1415b:	48 8d 14 85 00 00 00 	lea    0x0(,%rax,4),%rdx
   14162:	00 
   14163:	48 8d 05 36 7f 00 00 	lea    0x7f36(%rip),%rax        # 1c0a0 <g_307>
   1416a:	0f b7 04 02          	movzwl (%rdx,%rax,1),%eax
   1416e:	c1 e0 04             	shl    $0x4,%eax
   14171:	66 c1 f8 0a          	sar    $0xa,%ax
   14175:	48 0f be c0          	movsbq %al,%rax
   14179:	8b 55 fc             	mov    -0x4(%rbp),%edx
   1417c:	48 8d 35 cc 4c 00 00 	lea    0x4ccc(%rip),%rsi        # 18e4f <g_1804+0x1bef>
   14183:	48 89 c7             	mov    %rax,%rdi
   14186:	e8 68 35 ff ff       	callq  76f3 <transparent_crc>
   1418b:	83 7d fc 00          	cmpl   $0x0,-0x4(%rbp)
   1418f:	74 1c                	je     141ad <main+0x3c4>
   14191:	8b 4d f8             	mov    -0x8(%rbp),%ecx
   14194:	8b 55 f4             	mov    -0xc(%rbp),%edx
   14197:	8b 45 f0             	mov    -0x10(%rbp),%eax
   1419a:	89 c6                	mov    %eax,%esi
   1419c:	48 8d 3d be 4c 00 00 	lea    0x4cbe(%rip),%rdi        # 18e61 <g_1804+0x1c01>
   141a3:	b8 00 00 00 00       	mov    $0x0,%eax
   141a8:	e8 d3 1e ff ff       	callq  6080 <printf@plt>
   141ad:	83 45 f8 01          	addl   $0x1,-0x8(%rbp)
   141b1:	83 7d f8 08          	cmpl   $0x8,-0x8(%rbp)
   141b5:	0f 8e 1f ff ff ff    	jle    140da <main+0x2f1>
   141bb:	83 45 f4 01          	addl   $0x1,-0xc(%rbp)
   141bf:	83 7d f4 06          	cmpl   $0x6,-0xc(%rbp)
   141c3:	0f 8e 05 ff ff ff    	jle    140ce <main+0x2e5>
   141c9:	83 45 f0 01          	addl   $0x1,-0x10(%rbp)
   141cd:	83 7d f0 03          	cmpl   $0x3,-0x10(%rbp)
   141d1:	0f 8e eb fe ff ff    	jle    140c2 <main+0x2d9>
   141d7:	48 8b 05 b2 dc 00 00 	mov    0xdcb2(%rip),%rax        # 21e90 <g_337>
   141de:	48 89 c1             	mov    %rax,%rcx
   141e1:	8b 45 fc             	mov    -0x4(%rbp),%eax
   141e4:	89 c2                	mov    %eax,%edx
   141e6:	48 8d 35 8a 4c 00 00 	lea    0x4c8a(%rip),%rsi        # 18e77 <g_1804+0x1c17>
   141ed:	48 89 cf             	mov    %rcx,%rdi
   141f0:	e8 fe 34 ff ff       	callq  76f3 <transparent_crc>
   141f5:	0f b6 05 94 82 00 00 	movzbl 0x8294(%rip),%eax        # 1c490 <g_430>
   141fc:	0f b6 c0             	movzbl %al,%eax
   141ff:	8b 55 fc             	mov    -0x4(%rbp),%edx
   14202:	48 8d 35 74 4c 00 00 	lea    0x4c74(%rip),%rsi        # 18e7d <g_1804+0x1c1d>
   14209:	48 89 c7             	mov    %rax,%rdi
   1420c:	e8 e2 34 ff ff       	callq  76f3 <transparent_crc>
   14211:	0f b7 05 7a 82 00 00 	movzwl 0x827a(%rip),%eax        # 1c492 <g_442>
   14218:	48 0f bf c0          	movswq %ax,%rax
   1421c:	8b 55 fc             	mov    -0x4(%rbp),%edx
   1421f:	48 8d 35 5d 4c 00 00 	lea    0x4c5d(%rip),%rsi        # 18e83 <g_1804+0x1c23>
   14226:	48 89 c7             	mov    %rax,%rdi
   14229:	e8 c5 34 ff ff       	callq  76f3 <transparent_crc>
   1422e:	8b 05 6c 82 00 00    	mov    0x826c(%rip),%eax        # 1c4a0 <g_448>
   14234:	c1 e0 03             	shl    $0x3,%eax
   14237:	c1 f8 03             	sar    $0x3,%eax
   1423a:	48 98                	cltq   
   1423c:	8b 55 fc             	mov    -0x4(%rbp),%edx
   1423f:	48 8d 35 43 4c 00 00 	lea    0x4c43(%rip),%rsi        # 18e89 <g_1804+0x1c29>
   14246:	48 89 c7             	mov    %rax,%rdi
   14249:	e8 a5 34 ff ff       	callq  76f3 <transparent_crc>
   1424e:	48 8b 05 4b 82 00 00 	mov    0x824b(%rip),%rax        # 1c4a0 <g_448>
   14255:	48 c1 e0 05          	shl    $0x5,%rax
   14259:	48 c1 f8 22          	sar    $0x22,%rax
   1425d:	48 98                	cltq   
   1425f:	8b 55 fc             	mov    -0x4(%rbp),%edx
   14262:	48 8d 35 29 4c 00 00 	lea    0x4c29(%rip),%rsi        # 18e92 <g_1804+0x1c32>
   14269:	48 89 c7             	mov    %rax,%rdi
   1426c:	e8 82 34 ff ff       	callq  76f3 <transparent_crc>
   14271:	0f b6 05 2f 82 00 00 	movzbl 0x822f(%rip),%eax        # 1c4a7 <g_448+0x7>
   14278:	c0 e8 03             	shr    $0x3,%al
   1427b:	0f b6 c0             	movzbl %al,%eax
   1427e:	0f b6 15 23 82 00 00 	movzbl 0x8223(%rip),%edx        # 1c4a8 <g_448+0x8>
   14285:	83 e2 07             	and    $0x7,%edx
   14288:	48 c1 e2 05          	shl    $0x5,%rdx
   1428c:	48 09 d0             	or     %rdx,%rax
   1428f:	0f b6 c0             	movzbl %al,%eax
   14292:	8b 55 fc             	mov    -0x4(%rbp),%edx
   14295:	48 8d 35 ff 4b 00 00 	lea    0x4bff(%rip),%rsi        # 18e9b <g_1804+0x1c3b>
   1429c:	48 89 c7             	mov    %rax,%rdi
   1429f:	e8 4f 34 ff ff       	callq  76f3 <transparent_crc>
   142a4:	48 8b 05 fd 81 00 00 	mov    0x81fd(%rip),%rax        # 1c4a8 <g_448+0x8>
   142ab:	c1 e0 09             	shl    $0x9,%eax
   142ae:	c1 f8 0c             	sar    $0xc,%eax
   142b1:	48 98                	cltq   
   142b3:	8b 55 fc             	mov    -0x4(%rbp),%edx
   142b6:	48 8d 35 e7 4b 00 00 	lea    0x4be7(%rip),%rsi        # 18ea4 <g_1804+0x1c44>
   142bd:	48 89 c7             	mov    %rax,%rdi
   142c0:	e8 2e 34 ff ff       	callq  76f3 <transparent_crc>
   142c5:	48 8b 05 dc 81 00 00 	mov    0x81dc(%rip),%rax        # 1c4a8 <g_448+0x8>
   142cc:	48 c1 e0 16          	shl    $0x16,%rax
   142d0:	48 c1 f8 2d          	sar    $0x2d,%rax
   142d4:	48 98                	cltq   
   142d6:	8b 55 fc             	mov    -0x4(%rbp),%edx
   142d9:	48 8d 35 cd 4b 00 00 	lea    0x4bcd(%rip),%rsi        # 18ead <g_1804+0x1c4d>
   142e0:	48 89 c7             	mov    %rax,%rdi
   142e3:	e8 0b 34 ff ff       	callq  76f3 <transparent_crc>
   142e8:	8b 05 be 81 00 00    	mov    0x81be(%rip),%eax        # 1c4ac <g_448+0xc>
   142ee:	c1 e8 0a             	shr    $0xa,%eax
   142f1:	89 c2                	mov    %eax,%edx
   142f3:	0f b6 05 b6 81 00 00 	movzbl 0x81b6(%rip),%eax        # 1c4b0 <g_448+0x10>
   142fa:	48 c1 e0 16          	shl    $0x16,%rax
   142fe:	48 09 d0             	or     %rdx,%rax
   14301:	89 c1                	mov    %eax,%ecx
   14303:	8b 45 fc             	mov    -0x4(%rbp),%eax
   14306:	89 c2                	mov    %eax,%edx
   14308:	48 8d 35 a7 4b 00 00 	lea    0x4ba7(%rip),%rsi        # 18eb6 <g_1804+0x1c56>
   1430f:	48 89 cf             	mov    %rcx,%rdi
   14312:	e8 dc 33 ff ff       	callq  76f3 <transparent_crc>
   14317:	0f b6 05 93 81 00 00 	movzbl 0x8193(%rip),%eax        # 1c4b1 <g_448+0x11>
   1431e:	c1 e0 04             	shl    $0x4,%eax
   14321:	c0 f8 04             	sar    $0x4,%al
   14324:	48 0f be c0          	movsbq %al,%rax
   14328:	8b 55 fc             	mov    -0x4(%rbp),%edx
   1432b:	48 8d 35 8d 4b 00 00 	lea    0x4b8d(%rip),%rsi        # 18ebf <g_1804+0x1c5f>
   14332:	48 89 c7             	mov    %rax,%rdi
   14335:	e8 b9 33 ff ff       	callq  76f3 <transparent_crc>
   1433a:	8b 05 70 81 00 00    	mov    0x8170(%rip),%eax        # 1c4b0 <g_448+0x10>
   14340:	c1 e0 0b             	shl    $0xb,%eax
   14343:	c1 f8 17             	sar    $0x17,%eax
   14346:	48 0f bf c0          	movswq %ax,%rax
   1434a:	8b 55 fc             	mov    -0x4(%rbp),%edx
   1434d:	48 8d 35 74 4b 00 00 	lea    0x4b74(%rip),%rsi        # 18ec8 <g_1804+0x1c68>
   14354:	48 89 c7             	mov    %rax,%rdi
   14357:	e8 97 33 ff ff       	callq  76f3 <transparent_crc>
   1435c:	0f b7 05 4f 81 00 00 	movzwl 0x814f(%rip),%eax        # 1c4b2 <g_448+0x12>
   14363:	c1 e0 02             	shl    $0x2,%eax
   14366:	66 c1 f8 07          	sar    $0x7,%ax
   1436a:	48 0f bf c0          	movswq %ax,%rax
   1436e:	8b 55 fc             	mov    -0x4(%rbp),%edx
   14371:	48 8d 35 59 4b 00 00 	lea    0x4b59(%rip),%rsi        # 18ed1 <g_1804+0x1c71>
   14378:	48 89 c7             	mov    %rax,%rdi
   1437b:	e8 73 33 ff ff       	callq  76f3 <transparent_crc>
   14380:	48 8b 05 29 81 00 00 	mov    0x8129(%rip),%rax        # 1c4b0 <g_448+0x10>
   14387:	48 c1 e0 0f          	shl    $0xf,%rax
   1438b:	48 c1 f8 2d          	sar    $0x2d,%rax
   1438f:	48 98                	cltq   
   14391:	8b 55 fc             	mov    -0x4(%rbp),%edx
   14394:	48 8d 35 3f 4b 00 00 	lea    0x4b3f(%rip),%rsi        # 18eda <g_1804+0x1c7a>
   1439b:	48 89 c7             	mov    %rax,%rdi
   1439e:	e8 50 33 ff ff       	callq  76f3 <transparent_crc>
   143a3:	0f b6 05 0d 81 00 00 	movzbl 0x810d(%rip),%eax        # 1c4b7 <g_492>
   143aa:	48 0f be c0          	movsbq %al,%rax
   143ae:	8b 55 fc             	mov    -0x4(%rbp),%edx
   143b1:	48 8d 35 2b 4b 00 00 	lea    0x4b2b(%rip),%rsi        # 18ee3 <g_1804+0x1c83>
   143b8:	48 89 c7             	mov    %rax,%rdi
   143bb:	e8 33 33 ff ff       	callq  76f3 <transparent_crc>
   143c0:	c7 45 f0 00 00 00 00 	movl   $0x0,-0x10(%rbp)
   143c7:	e9 9d 00 00 00       	jmpq   14469 <main+0x680>
   143cc:	c7 45 f4 00 00 00 00 	movl   $0x0,-0xc(%rbp)
   143d3:	e9 83 00 00 00       	jmpq   1445b <main+0x672>
   143d8:	c7 45 f8 00 00 00 00 	movl   $0x0,-0x8(%rbp)
   143df:	eb 70                	jmp    14451 <main+0x668>
   143e1:	8b 45 f8             	mov    -0x8(%rbp),%eax
   143e4:	48 63 c8             	movslq %eax,%rcx
   143e7:	8b 45 f0             	mov    -0x10(%rbp),%eax
   143ea:	48 63 d0             	movslq %eax,%rdx
   143ed:	8b 45 f4             	mov    -0xc(%rbp),%eax
   143f0:	48 63 f0             	movslq %eax,%rsi
   143f3:	48 89 d0             	mov    %rdx,%rax
   143f6:	48 c1 e0 03          	shl    $0x3,%rax
   143fa:	48 01 d0             	add    %rdx,%rax
   143fd:	48 01 f0             	add    %rsi,%rax
   14400:	48 c1 e0 03          	shl    $0x3,%rax
   14404:	48 01 c8             	add    %rcx,%rax
   14407:	48 8d 14 00          	lea    (%rax,%rax,1),%rdx
   1440b:	48 8d 05 ae 80 00 00 	lea    0x80ae(%rip),%rax        # 1c4c0 <g_495>
   14412:	0f b7 04 02          	movzwl (%rdx,%rax,1),%eax
   14416:	0f b7 c0             	movzwl %ax,%eax
   14419:	8b 55 fc             	mov    -0x4(%rbp),%edx
   1441c:	48 8d 35 c6 4a 00 00 	lea    0x4ac6(%rip),%rsi        # 18ee9 <g_1804+0x1c89>
   14423:	48 89 c7             	mov    %rax,%rdi
   14426:	e8 c8 32 ff ff       	callq  76f3 <transparent_crc>
   1442b:	83 7d fc 00          	cmpl   $0x0,-0x4(%rbp)
   1442f:	74 1c                	je     1444d <main+0x664>
   14431:	8b 4d f8             	mov    -0x8(%rbp),%ecx
   14434:	8b 55 f4             	mov    -0xc(%rbp),%edx
   14437:	8b 45 f0             	mov    -0x10(%rbp),%eax
   1443a:	89 c6                	mov    %eax,%esi
   1443c:	48 8d 3d 1e 4a 00 00 	lea    0x4a1e(%rip),%rdi        # 18e61 <g_1804+0x1c01>
   14443:	b8 00 00 00 00       	mov    $0x0,%eax
   14448:	e8 33 1c ff ff       	callq  6080 <printf@plt>
   1444d:	83 45 f8 01          	addl   $0x1,-0x8(%rbp)
   14451:	83 7d f8 07          	cmpl   $0x7,-0x8(%rbp)
   14455:	7e 8a                	jle    143e1 <main+0x5f8>
   14457:	83 45 f4 01          	addl   $0x1,-0xc(%rbp)
   1445b:	83 7d f4 08          	cmpl   $0x8,-0xc(%rbp)
   1445f:	0f 8e 73 ff ff ff    	jle    143d8 <main+0x5ef>
   14465:	83 45 f0 01          	addl   $0x1,-0x10(%rbp)
   14469:	83 7d f0 02          	cmpl   $0x2,-0x10(%rbp)
   1446d:	0f 8e 59 ff ff ff    	jle    143cc <main+0x5e3>
   14473:	0f b6 05 f6 81 00 00 	movzbl 0x81f6(%rip),%eax        # 1c670 <g_548>
   1447a:	0f b6 c0             	movzbl %al,%eax
   1447d:	8b 55 fc             	mov    -0x4(%rbp),%edx
   14480:	48 8d 35 71 4a 00 00 	lea    0x4a71(%rip),%rsi        # 18ef8 <g_1804+0x1c98>
   14487:	48 89 c7             	mov    %rax,%rdi
   1448a:	e8 64 32 ff ff       	callq  76f3 <transparent_crc>
   1448f:	8b 05 eb 81 00 00    	mov    0x81eb(%rip),%eax        # 1c680 <g_604>
   14495:	c1 e0 03             	shl    $0x3,%eax
   14498:	c1 f8 03             	sar    $0x3,%eax
   1449b:	48 98                	cltq   
   1449d:	8b 55 fc             	mov    -0x4(%rbp),%edx
   144a0:	48 8d 35 57 4a 00 00 	lea    0x4a57(%rip),%rsi        # 18efe <g_1804+0x1c9e>
   144a7:	48 89 c7             	mov    %rax,%rdi
   144aa:	e8 44 32 ff ff       	callq  76f3 <transparent_crc>
   144af:	48 8b 05 ca 81 00 00 	mov    0x81ca(%rip),%rax        # 1c680 <g_604>
   144b6:	48 c1 e0 05          	shl    $0x5,%rax
   144ba:	48 c1 f8 22          	sar    $0x22,%rax
   144be:	48 98                	cltq   
   144c0:	8b 55 fc             	mov    -0x4(%rbp),%edx
   144c3:	48 8d 35 3d 4a 00 00 	lea    0x4a3d(%rip),%rsi        # 18f07 <g_1804+0x1ca7>
   144ca:	48 89 c7             	mov    %rax,%rdi
   144cd:	e8 21 32 ff ff       	callq  76f3 <transparent_crc>
   144d2:	0f b6 05 ae 81 00 00 	movzbl 0x81ae(%rip),%eax        # 1c687 <g_604+0x7>
   144d9:	c0 e8 03             	shr    $0x3,%al
   144dc:	0f b6 c0             	movzbl %al,%eax
   144df:	0f b6 15 a2 81 00 00 	movzbl 0x81a2(%rip),%edx        # 1c688 <g_604+0x8>
   144e6:	83 e2 07             	and    $0x7,%edx
   144e9:	48 c1 e2 05          	shl    $0x5,%rdx
   144ed:	48 09 d0             	or     %rdx,%rax
   144f0:	0f b6 c0             	movzbl %al,%eax
   144f3:	8b 55 fc             	mov    -0x4(%rbp),%edx
   144f6:	48 8d 35 13 4a 00 00 	lea    0x4a13(%rip),%rsi        # 18f10 <g_1804+0x1cb0>
   144fd:	48 89 c7             	mov    %rax,%rdi
   14500:	e8 ee 31 ff ff       	callq  76f3 <transparent_crc>
   14505:	48 8b 05 7c 81 00 00 	mov    0x817c(%rip),%rax        # 1c688 <g_604+0x8>
   1450c:	c1 e0 09             	shl    $0x9,%eax
   1450f:	c1 f8 0c             	sar    $0xc,%eax
   14512:	48 98                	cltq   
   14514:	8b 55 fc             	mov    -0x4(%rbp),%edx
   14517:	48 8d 35 fb 49 00 00 	lea    0x49fb(%rip),%rsi        # 18f19 <g_1804+0x1cb9>
   1451e:	48 89 c7             	mov    %rax,%rdi
   14521:	e8 cd 31 ff ff       	callq  76f3 <transparent_crc>
   14526:	48 8b 05 5b 81 00 00 	mov    0x815b(%rip),%rax        # 1c688 <g_604+0x8>
   1452d:	48 c1 e0 16          	shl    $0x16,%rax
   14531:	48 c1 f8 2d          	sar    $0x2d,%rax
   14535:	48 98                	cltq   
   14537:	8b 55 fc             	mov    -0x4(%rbp),%edx
   1453a:	48 8d 35 e1 49 00 00 	lea    0x49e1(%rip),%rsi        # 18f22 <g_1804+0x1cc2>
   14541:	48 89 c7             	mov    %rax,%rdi
   14544:	e8 aa 31 ff ff       	callq  76f3 <transparent_crc>
   14549:	8b 05 3d 81 00 00    	mov    0x813d(%rip),%eax        # 1c68c <g_604+0xc>
   1454f:	c1 e8 0a             	shr    $0xa,%eax
   14552:	89 c2                	mov    %eax,%edx
   14554:	0f b6 05 35 81 00 00 	movzbl 0x8135(%rip),%eax        # 1c690 <g_604+0x10>
   1455b:	48 c1 e0 16          	shl    $0x16,%rax
   1455f:	48 09 d0             	or     %rdx,%rax
   14562:	89 c1                	mov    %eax,%ecx
   14564:	8b 45 fc             	mov    -0x4(%rbp),%eax
   14567:	89 c2                	mov    %eax,%edx
   14569:	48 8d 35 bb 49 00 00 	lea    0x49bb(%rip),%rsi        # 18f2b <g_1804+0x1ccb>
   14570:	48 89 cf             	mov    %rcx,%rdi
   14573:	e8 7b 31 ff ff       	callq  76f3 <transparent_crc>
   14578:	0f b6 05 12 81 00 00 	movzbl 0x8112(%rip),%eax        # 1c691 <g_604+0x11>
   1457f:	c1 e0 04             	shl    $0x4,%eax
   14582:	c0 f8 04             	sar    $0x4,%al
   14585:	48 0f be c0          	movsbq %al,%rax
   14589:	8b 55 fc             	mov    -0x4(%rbp),%edx
   1458c:	48 8d 35 a1 49 00 00 	lea    0x49a1(%rip),%rsi        # 18f34 <g_1804+0x1cd4>
   14593:	48 89 c7             	mov    %rax,%rdi
   14596:	e8 58 31 ff ff       	callq  76f3 <transparent_crc>
   1459b:	8b 05 ef 80 00 00    	mov    0x80ef(%rip),%eax        # 1c690 <g_604+0x10>
   145a1:	c1 e0 0b             	shl    $0xb,%eax
   145a4:	c1 f8 17             	sar    $0x17,%eax
   145a7:	48 0f bf c0          	movswq %ax,%rax
   145ab:	8b 55 fc             	mov    -0x4(%rbp),%edx
   145ae:	48 8d 35 88 49 00 00 	lea    0x4988(%rip),%rsi        # 18f3d <g_1804+0x1cdd>
   145b5:	48 89 c7             	mov    %rax,%rdi
   145b8:	e8 36 31 ff ff       	callq  76f3 <transparent_crc>
   145bd:	0f b7 05 ce 80 00 00 	movzwl 0x80ce(%rip),%eax        # 1c692 <g_604+0x12>
   145c4:	c1 e0 02             	shl    $0x2,%eax
   145c7:	66 c1 f8 07          	sar    $0x7,%ax
   145cb:	48 0f bf c0          	movswq %ax,%rax
   145cf:	8b 55 fc             	mov    -0x4(%rbp),%edx
   145d2:	48 8d 35 6d 49 00 00 	lea    0x496d(%rip),%rsi        # 18f46 <g_1804+0x1ce6>
   145d9:	48 89 c7             	mov    %rax,%rdi
   145dc:	e8 12 31 ff ff       	callq  76f3 <transparent_crc>
   145e1:	48 8b 05 a8 80 00 00 	mov    0x80a8(%rip),%rax        # 1c690 <g_604+0x10>
   145e8:	48 c1 e0 0f          	shl    $0xf,%rax
   145ec:	48 c1 f8 2d          	sar    $0x2d,%rax
   145f0:	48 98                	cltq   
   145f2:	8b 55 fc             	mov    -0x4(%rbp),%edx
   145f5:	48 8d 35 53 49 00 00 	lea    0x4953(%rip),%rsi        # 18f4f <g_1804+0x1cef>
   145fc:	48 89 c7             	mov    %rax,%rdi
   145ff:	e8 ef 30 ff ff       	callq  76f3 <transparent_crc>
   14604:	0f b7 05 95 d8 00 00 	movzwl 0xd895(%rip),%eax        # 21ea0 <g_637>
   1460b:	48 0f bf c0          	movswq %ax,%rax
   1460f:	8b 55 fc             	mov    -0x4(%rbp),%edx
   14612:	48 8d 35 3f 49 00 00 	lea    0x493f(%rip),%rsi        # 18f58 <g_1804+0x1cf8>
   14619:	48 89 c7             	mov    %rax,%rdi
   1461c:	e8 d2 30 ff ff       	callq  76f3 <transparent_crc>
   14621:	c7 45 f0 00 00 00 00 	movl   $0x0,-0x10(%rbp)
   14628:	eb 4b                	jmp    14675 <main+0x88c>
   1462a:	8b 45 f0             	mov    -0x10(%rbp),%eax
   1462d:	48 98                	cltq   
   1462f:	48 8d 14 85 00 00 00 	lea    0x0(,%rax,4),%rdx
   14636:	00 
   14637:	48 8d 05 22 2a 00 00 	lea    0x2a22(%rip),%rax        # 17060 <g_641>
   1463e:	8b 04 02             	mov    (%rdx,%rax,1),%eax
   14641:	48 98                	cltq   
   14643:	8b 55 fc             	mov    -0x4(%rbp),%edx
   14646:	48 8d 35 11 49 00 00 	lea    0x4911(%rip),%rsi        # 18f5e <g_1804+0x1cfe>
   1464d:	48 89 c7             	mov    %rax,%rdi
   14650:	e8 9e 30 ff ff       	callq  76f3 <transparent_crc>
   14655:	83 7d fc 00          	cmpl   $0x0,-0x4(%rbp)
   14659:	74 16                	je     14671 <main+0x888>
   1465b:	8b 45 f0             	mov    -0x10(%rbp),%eax
   1465e:	89 c6                	mov    %eax,%esi
   14660:	48 8d 3d 62 47 00 00 	lea    0x4762(%rip),%rdi        # 18dc9 <g_1804+0x1b69>
   14667:	b8 00 00 00 00       	mov    $0x0,%eax
   1466c:	e8 0f 1a ff ff       	callq  6080 <printf@plt>
   14671:	83 45 f0 01          	addl   $0x1,-0x10(%rbp)
   14675:	83 7d f0 01          	cmpl   $0x1,-0x10(%rbp)
   14679:	7e af                	jle    1462a <main+0x841>
   1467b:	c7 45 f0 00 00 00 00 	movl   $0x0,-0x10(%rbp)
   14682:	e9 85 00 00 00       	jmpq   1470c <main+0x923>
   14687:	8b 45 f0             	mov    -0x10(%rbp),%eax
   1468a:	48 98                	cltq   
   1468c:	48 8d 14 85 00 00 00 	lea    0x0(,%rax,4),%rdx
   14693:	00 
   14694:	48 8d 05 fd 7f 00 00 	lea    0x7ffd(%rip),%rax        # 1c698 <g_676>
   1469b:	0f b6 04 02          	movzbl (%rdx,%rax,1),%eax
   1469f:	83 e0 3f             	and    $0x3f,%eax
   146a2:	0f b6 c0             	movzbl %al,%eax
   146a5:	8b 55 fc             	mov    -0x4(%rbp),%edx
   146a8:	48 8d 35 b8 48 00 00 	lea    0x48b8(%rip),%rsi        # 18f67 <g_1804+0x1d07>
   146af:	48 89 c7             	mov    %rax,%rdi
   146b2:	e8 3c 30 ff ff       	callq  76f3 <transparent_crc>
   146b7:	8b 45 f0             	mov    -0x10(%rbp),%eax
   146ba:	48 98                	cltq   
   146bc:	48 8d 14 85 00 00 00 	lea    0x0(,%rax,4),%rdx
   146c3:	00 
   146c4:	48 8d 05 cd 7f 00 00 	lea    0x7fcd(%rip),%rax        # 1c698 <g_676>
   146cb:	0f b7 04 02          	movzwl (%rdx,%rax,1),%eax
   146cf:	c1 e0 04             	shl    $0x4,%eax
   146d2:	66 c1 f8 0a          	sar    $0xa,%ax
   146d6:	48 0f be c0          	movsbq %al,%rax
   146da:	8b 55 fc             	mov    -0x4(%rbp),%edx
   146dd:	48 8d 35 8f 48 00 00 	lea    0x488f(%rip),%rsi        # 18f73 <g_1804+0x1d13>
   146e4:	48 89 c7             	mov    %rax,%rdi
   146e7:	e8 07 30 ff ff       	callq  76f3 <transparent_crc>
   146ec:	83 7d fc 00          	cmpl   $0x0,-0x4(%rbp)
   146f0:	74 16                	je     14708 <main+0x91f>
   146f2:	8b 45 f0             	mov    -0x10(%rbp),%eax
   146f5:	89 c6                	mov    %eax,%esi
   146f7:	48 8d 3d cb 46 00 00 	lea    0x46cb(%rip),%rdi        # 18dc9 <g_1804+0x1b69>
   146fe:	b8 00 00 00 00       	mov    $0x0,%eax
   14703:	e8 78 19 ff ff       	callq  6080 <printf@plt>
   14708:	83 45 f0 01          	addl   $0x1,-0x10(%rbp)
   1470c:	83 7d f0 00          	cmpl   $0x0,-0x10(%rbp)
   14710:	0f 8e 71 ff ff ff    	jle    14687 <main+0x89e>
   14716:	b8 fa df ff ff       	mov    $0xffffdffa,%eax
   1471b:	48 98                	cltq   
   1471d:	8b 55 fc             	mov    -0x4(%rbp),%edx
   14720:	48 8d 35 58 48 00 00 	lea    0x4858(%rip),%rsi        # 18f7f <g_1804+0x1d1f>
   14727:	48 89 c7             	mov    %rax,%rdi
   1472a:	e8 c4 2f ff ff       	callq  76f3 <transparent_crc>
   1472f:	b8 a6 8f ff ff       	mov    $0xffff8fa6,%eax
   14734:	48 98                	cltq   
   14736:	8b 55 fc             	mov    -0x4(%rbp),%edx
   14739:	48 8d 35 48 48 00 00 	lea    0x4848(%rip),%rsi        # 18f88 <g_1804+0x1d28>
   14740:	48 89 c7             	mov    %rax,%rdi
   14743:	e8 ab 2f ff ff       	callq  76f3 <transparent_crc>
   14748:	b8 0f 00 00 00       	mov    $0xf,%eax
   1474d:	0f b6 c0             	movzbl %al,%eax
   14750:	8b 55 fc             	mov    -0x4(%rbp),%edx
   14753:	48 8d 35 37 48 00 00 	lea    0x4837(%rip),%rsi        # 18f91 <g_1804+0x1d31>
   1475a:	48 89 c7             	mov    %rax,%rdi
   1475d:	e8 91 2f ff ff       	callq  76f3 <transparent_crc>
   14762:	48 8b 05 0f 29 00 00 	mov    0x290f(%rip),%rax        # 17078 <g_824+0x8>
   14769:	c1 e0 09             	shl    $0x9,%eax
   1476c:	c1 f8 0c             	sar    $0xc,%eax
   1476f:	48 98                	cltq   
   14771:	8b 55 fc             	mov    -0x4(%rbp),%edx
   14774:	48 8d 35 1f 48 00 00 	lea    0x481f(%rip),%rsi        # 18f9a <g_1804+0x1d3a>
   1477b:	48 89 c7             	mov    %rax,%rdi
   1477e:	e8 70 2f ff ff       	callq  76f3 <transparent_crc>
   14783:	48 8b 05 ee 28 00 00 	mov    0x28ee(%rip),%rax        # 17078 <g_824+0x8>
   1478a:	48 c1 e0 16          	shl    $0x16,%rax
   1478e:	48 c1 f8 2d          	sar    $0x2d,%rax
   14792:	48 98                	cltq   
   14794:	8b 55 fc             	mov    -0x4(%rbp),%edx
   14797:	48 8d 35 05 48 00 00 	lea    0x4805(%rip),%rsi        # 18fa3 <g_1804+0x1d43>
   1479e:	48 89 c7             	mov    %rax,%rdi
   147a1:	e8 4d 2f ff ff       	callq  76f3 <transparent_crc>
   147a6:	b8 f1 2d 00 00       	mov    $0x2df1,%eax
   147ab:	89 c1                	mov    %eax,%ecx
   147ad:	8b 45 fc             	mov    -0x4(%rbp),%eax
   147b0:	89 c2                	mov    %eax,%edx
   147b2:	48 8d 35 f3 47 00 00 	lea    0x47f3(%rip),%rsi        # 18fac <g_1804+0x1d4c>
   147b9:	48 89 cf             	mov    %rcx,%rdi
   147bc:	e8 32 2f ff ff       	callq  76f3 <transparent_crc>
   147c1:	b8 ff ff ff ff       	mov    $0xffffffff,%eax
   147c6:	48 0f be c0          	movsbq %al,%rax
   147ca:	8b 55 fc             	mov    -0x4(%rbp),%edx
   147cd:	48 8d 35 e1 47 00 00 	lea    0x47e1(%rip),%rsi        # 18fb5 <g_1804+0x1d55>
   147d4:	48 89 c7             	mov    %rax,%rdi
   147d7:	e8 17 2f ff ff       	callq  76f3 <transparent_crc>
   147dc:	b8 15 00 00 00       	mov    $0x15,%eax
   147e1:	48 0f bf c0          	movswq %ax,%rax
   147e5:	8b 55 fc             	mov    -0x4(%rbp),%edx
   147e8:	48 8d 35 cf 47 00 00 	lea    0x47cf(%rip),%rsi        # 18fbe <g_1804+0x1d5e>
   147ef:	48 89 c7             	mov    %rax,%rdi
   147f2:	e8 fc 2e ff ff       	callq  76f3 <transparent_crc>
   147f7:	b8 14 00 00 00       	mov    $0x14,%eax
   147fc:	48 0f bf c0          	movswq %ax,%rax
   14800:	8b 55 fc             	mov    -0x4(%rbp),%edx
   14803:	48 8d 35 bd 47 00 00 	lea    0x47bd(%rip),%rsi        # 18fc7 <g_1804+0x1d67>
   1480a:	48 89 c7             	mov    %rax,%rdi
   1480d:	e8 e1 2e ff ff       	callq  76f3 <transparent_crc>
   14812:	b8 02 00 00 00       	mov    $0x2,%eax
   14817:	48 98                	cltq   
   14819:	8b 55 fc             	mov    -0x4(%rbp),%edx
   1481c:	48 8d 35 ad 47 00 00 	lea    0x47ad(%rip),%rsi        # 18fd0 <g_1804+0x1d70>
   14823:	48 89 c7             	mov    %rax,%rdi
   14826:	e8 c8 2e ff ff       	callq  76f3 <transparent_crc>
   1482b:	48 8b 05 6e 7e 00 00 	mov    0x7e6e(%rip),%rax        # 1c6a0 <g_854>
   14832:	48 89 c1             	mov    %rax,%rcx
   14835:	8b 45 fc             	mov    -0x4(%rbp),%eax
   14838:	89 c2                	mov    %eax,%edx
   1483a:	48 8d 35 98 47 00 00 	lea    0x4798(%rip),%rsi        # 18fd9 <g_1804+0x1d79>
   14841:	48 89 cf             	mov    %rcx,%rdi
   14844:	e8 aa 2e ff ff       	callq  76f3 <transparent_crc>
   14849:	c7 45 f0 00 00 00 00 	movl   $0x0,-0x10(%rbp)
   14850:	eb 4f                	jmp    148a1 <main+0xab8>
   14852:	8b 45 f0             	mov    -0x10(%rbp),%eax
   14855:	48 98                	cltq   
   14857:	48 8d 14 c5 00 00 00 	lea    0x0(,%rax,8),%rdx
   1485e:	00 
   1485f:	48 8d 05 4a 7e 00 00 	lea    0x7e4a(%rip),%rax        # 1c6b0 <g_855>
   14866:	48 8b 04 02          	mov    (%rdx,%rax,1),%rax
   1486a:	48 89 c1             	mov    %rax,%rcx
   1486d:	8b 45 fc             	mov    -0x4(%rbp),%eax
   14870:	89 c2                	mov    %eax,%edx
   14872:	48 8d 35 66 47 00 00 	lea    0x4766(%rip),%rsi        # 18fdf <g_1804+0x1d7f>
   14879:	48 89 cf             	mov    %rcx,%rdi
   1487c:	e8 72 2e ff ff       	callq  76f3 <transparent_crc>
   14881:	83 7d fc 00          	cmpl   $0x0,-0x4(%rbp)
   14885:	74 16                	je     1489d <main+0xab4>
   14887:	8b 45 f0             	mov    -0x10(%rbp),%eax
   1488a:	89 c6                	mov    %eax,%esi
   1488c:	48 8d 3d 36 45 00 00 	lea    0x4536(%rip),%rdi        # 18dc9 <g_1804+0x1b69>
   14893:	b8 00 00 00 00       	mov    $0x0,%eax
   14898:	e8 e3 17 ff ff       	callq  6080 <printf@plt>
   1489d:	83 45 f0 01          	addl   $0x1,-0x10(%rbp)
   148a1:	83 7d f0 01          	cmpl   $0x1,-0x10(%rbp)
   148a5:	7e ab                	jle    14852 <main+0xa69>
   148a7:	48 8b 05 12 7e 00 00 	mov    0x7e12(%rip),%rax        # 1c6c0 <g_856>
   148ae:	48 89 c1             	mov    %rax,%rcx
   148b1:	8b 45 fc             	mov    -0x4(%rbp),%eax
   148b4:	89 c2                	mov    %eax,%edx
   148b6:	48 8d 35 2b 47 00 00 	lea    0x472b(%rip),%rsi        # 18fe8 <g_1804+0x1d88>
   148bd:	48 89 cf             	mov    %rcx,%rdi
   148c0:	e8 2e 2e ff ff       	callq  76f3 <transparent_crc>
   148c5:	c7 45 f0 00 00 00 00 	movl   $0x0,-0x10(%rbp)
   148cc:	e9 bc 00 00 00       	jmpq   1498d <main+0xba4>
   148d1:	c7 45 f4 00 00 00 00 	movl   $0x0,-0xc(%rbp)
   148d8:	e9 a2 00 00 00       	jmpq   1497f <main+0xb96>
   148dd:	c7 45 f8 00 00 00 00 	movl   $0x0,-0x8(%rbp)
   148e4:	e9 88 00 00 00       	jmpq   14971 <main+0xb88>
   148e9:	8b 45 f8             	mov    -0x8(%rbp),%eax
   148ec:	48 63 f0             	movslq %eax,%rsi
   148ef:	8b 45 f0             	mov    -0x10(%rbp),%eax
   148f2:	48 63 d0             	movslq %eax,%rdx
   148f5:	8b 45 f4             	mov    -0xc(%rbp),%eax
   148f8:	48 63 c8             	movslq %eax,%rcx
   148fb:	48 89 d0             	mov    %rdx,%rax
   148fe:	48 c1 e0 02          	shl    $0x2,%rax
   14902:	48 01 d0             	add    %rdx,%rax
   14905:	48 c1 e0 02          	shl    $0x2,%rax
   14909:	48 01 d0             	add    %rdx,%rax
   1490c:	48 01 c0             	add    %rax,%rax
   1490f:	48 89 ca             	mov    %rcx,%rdx
   14912:	48 01 d2             	add    %rdx,%rdx
   14915:	48 01 ca             	add    %rcx,%rdx
   14918:	48 01 d2             	add    %rdx,%rdx
   1491b:	48 01 d0             	add    %rdx,%rax
   1491e:	48 01 f0             	add    %rsi,%rax
   14921:	48 8d 14 c5 00 00 00 	lea    0x0(,%rax,8),%rdx
   14928:	00 
   14929:	48 8d 05 b0 7d 00 00 	lea    0x7db0(%rip),%rax        # 1c6e0 <g_857>
   14930:	48 8b 04 02          	mov    (%rdx,%rax,1),%rax
   14934:	48 89 c1             	mov    %rax,%rcx
   14937:	8b 45 fc             	mov    -0x4(%rbp),%eax
   1493a:	89 c2                	mov    %eax,%edx
   1493c:	48 8d 35 ab 46 00 00 	lea    0x46ab(%rip),%rsi        # 18fee <g_1804+0x1d8e>
   14943:	48 89 cf             	mov    %rcx,%rdi
   14946:	e8 a8 2d ff ff       	callq  76f3 <transparent_crc>
   1494b:	83 7d fc 00          	cmpl   $0x0,-0x4(%rbp)
   1494f:	74 1c                	je     1496d <main+0xb84>
   14951:	8b 4d f8             	mov    -0x8(%rbp),%ecx
   14954:	8b 55 f4             	mov    -0xc(%rbp),%edx
   14957:	8b 45 f0             	mov    -0x10(%rbp),%eax
   1495a:	89 c6                	mov    %eax,%esi
   1495c:	48 8d 3d fe 44 00 00 	lea    0x44fe(%rip),%rdi        # 18e61 <g_1804+0x1c01>
   14963:	b8 00 00 00 00       	mov    $0x0,%eax
   14968:	e8 13 17 ff ff       	callq  6080 <printf@plt>
   1496d:	83 45 f8 01          	addl   $0x1,-0x8(%rbp)
   14971:	83 7d f8 05          	cmpl   $0x5,-0x8(%rbp)
   14975:	0f 8e 6e ff ff ff    	jle    148e9 <main+0xb00>
   1497b:	83 45 f4 01          	addl   $0x1,-0xc(%rbp)
   1497f:	83 7d f4 06          	cmpl   $0x6,-0xc(%rbp)
   14983:	0f 8e 54 ff ff ff    	jle    148dd <main+0xaf4>
   14989:	83 45 f0 01          	addl   $0x1,-0x10(%rbp)
   1498d:	83 7d f0 05          	cmpl   $0x5,-0x10(%rbp)
   14991:	0f 8e 3a ff ff ff    	jle    148d1 <main+0xae8>
   14997:	48 8b 05 22 85 00 00 	mov    0x8522(%rip),%rax        # 1cec0 <g_858>
   1499e:	48 89 c1             	mov    %rax,%rcx
   149a1:	8b 45 fc             	mov    -0x4(%rbp),%eax
   149a4:	89 c2                	mov    %eax,%edx
   149a6:	48 8d 35 50 46 00 00 	lea    0x4650(%rip),%rsi        # 18ffd <g_1804+0x1d9d>
   149ad:	48 89 cf             	mov    %rcx,%rdi
   149b0:	e8 3e 2d ff ff       	callq  76f3 <transparent_crc>
   149b5:	48 8b 05 0c 85 00 00 	mov    0x850c(%rip),%rax        # 1cec8 <g_859>
   149bc:	48 89 c1             	mov    %rax,%rcx
   149bf:	8b 45 fc             	mov    -0x4(%rbp),%eax
   149c2:	89 c2                	mov    %eax,%edx
   149c4:	48 8d 35 38 46 00 00 	lea    0x4638(%rip),%rsi        # 19003 <g_1804+0x1da3>
   149cb:	48 89 cf             	mov    %rcx,%rdi
   149ce:	e8 20 2d ff ff       	callq  76f3 <transparent_crc>
   149d3:	48 8b 05 f6 84 00 00 	mov    0x84f6(%rip),%rax        # 1ced0 <g_860>
   149da:	48 89 c1             	mov    %rax,%rcx
   149dd:	8b 45 fc             	mov    -0x4(%rbp),%eax
   149e0:	89 c2                	mov    %eax,%edx
   149e2:	48 8d 35 20 46 00 00 	lea    0x4620(%rip),%rsi        # 19009 <g_1804+0x1da9>
   149e9:	48 89 cf             	mov    %rcx,%rdi
   149ec:	e8 02 2d ff ff       	callq  76f3 <transparent_crc>
   149f1:	48 8b 05 e0 84 00 00 	mov    0x84e0(%rip),%rax        # 1ced8 <g_861>
   149f8:	48 89 c1             	mov    %rax,%rcx
   149fb:	8b 45 fc             	mov    -0x4(%rbp),%eax
   149fe:	89 c2                	mov    %eax,%edx
   14a00:	48 8d 35 08 46 00 00 	lea    0x4608(%rip),%rsi        # 1900f <g_1804+0x1daf>
   14a07:	48 89 cf             	mov    %rcx,%rdi
   14a0a:	e8 e4 2c ff ff       	callq  76f3 <transparent_crc>
   14a0f:	c7 45 f0 00 00 00 00 	movl   $0x0,-0x10(%rbp)
   14a16:	e9 ac 00 00 00       	jmpq   14ac7 <main+0xcde>
   14a1b:	c7 45 f4 00 00 00 00 	movl   $0x0,-0xc(%rbp)
   14a22:	e9 92 00 00 00       	jmpq   14ab9 <main+0xcd0>
   14a27:	c7 45 f8 00 00 00 00 	movl   $0x0,-0x8(%rbp)
   14a2e:	eb 7b                	jmp    14aab <main+0xcc2>
   14a30:	8b 45 f8             	mov    -0x8(%rbp),%eax
   14a33:	48 63 f0             	movslq %eax,%rsi
   14a36:	8b 45 f0             	mov    -0x10(%rbp),%eax
   14a39:	48 98                	cltq   
   14a3b:	8b 55 f4             	mov    -0xc(%rbp),%edx
   14a3e:	48 63 ca             	movslq %edx,%rcx
   14a41:	48 89 c2             	mov    %rax,%rdx
   14a44:	48 c1 e2 06          	shl    $0x6,%rdx
   14a48:	48 29 c2             	sub    %rax,%rdx
   14a4b:	48 89 c8             	mov    %rcx,%rax
   14a4e:	48 c1 e0 03          	shl    $0x3,%rax
   14a52:	48 29 c8             	sub    %rcx,%rax
   14a55:	48 01 d0             	add    %rdx,%rax
   14a58:	48 01 f0             	add    %rsi,%rax
   14a5b:	48 8d 14 c5 00 00 00 	lea    0x0(,%rax,8),%rdx
   14a62:	00 
   14a63:	48 8d 05 76 84 00 00 	lea    0x8476(%rip),%rax        # 1cee0 <g_862>
   14a6a:	48 8b 04 02          	mov    (%rdx,%rax,1),%rax
   14a6e:	48 89 c1             	mov    %rax,%rcx
   14a71:	8b 45 fc             	mov    -0x4(%rbp),%eax
   14a74:	89 c2                	mov    %eax,%edx
   14a76:	48 8d 35 98 45 00 00 	lea    0x4598(%rip),%rsi        # 19015 <g_1804+0x1db5>
   14a7d:	48 89 cf             	mov    %rcx,%rdi
   14a80:	e8 6e 2c ff ff       	callq  76f3 <transparent_crc>
   14a85:	83 7d fc 00          	cmpl   $0x0,-0x4(%rbp)
   14a89:	74 1c                	je     14aa7 <main+0xcbe>
   14a8b:	8b 4d f8             	mov    -0x8(%rbp),%ecx
   14a8e:	8b 55 f4             	mov    -0xc(%rbp),%edx
   14a91:	8b 45 f0             	mov    -0x10(%rbp),%eax
   14a94:	89 c6                	mov    %eax,%esi
   14a96:	48 8d 3d c4 43 00 00 	lea    0x43c4(%rip),%rdi        # 18e61 <g_1804+0x1c01>
   14a9d:	b8 00 00 00 00       	mov    $0x0,%eax
   14aa2:	e8 d9 15 ff ff       	callq  6080 <printf@plt>
   14aa7:	83 45 f8 01          	addl   $0x1,-0x8(%rbp)
   14aab:	83 7d f8 06          	cmpl   $0x6,-0x8(%rbp)
   14aaf:	0f 8e 7b ff ff ff    	jle    14a30 <main+0xc47>
   14ab5:	83 45 f4 01          	addl   $0x1,-0xc(%rbp)
   14ab9:	83 7d f4 08          	cmpl   $0x8,-0xc(%rbp)
   14abd:	0f 8e 64 ff ff ff    	jle    14a27 <main+0xc3e>
   14ac3:	83 45 f0 01          	addl   $0x1,-0x10(%rbp)
   14ac7:	83 7d f0 02          	cmpl   $0x2,-0x10(%rbp)
   14acb:	0f 8e 4a ff ff ff    	jle    14a1b <main+0xc32>
   14ad1:	c7 45 f0 00 00 00 00 	movl   $0x0,-0x10(%rbp)
   14ad8:	e9 b4 00 00 00       	jmpq   14b91 <main+0xda8>
   14add:	c7 45 f4 00 00 00 00 	movl   $0x0,-0xc(%rbp)
   14ae4:	e9 9a 00 00 00       	jmpq   14b83 <main+0xd9a>
   14ae9:	c7 45 f8 00 00 00 00 	movl   $0x0,-0x8(%rbp)
   14af0:	e9 80 00 00 00       	jmpq   14b75 <main+0xd8c>
   14af5:	8b 45 f8             	mov    -0x8(%rbp),%eax
   14af8:	48 63 f0             	movslq %eax,%rsi
   14afb:	8b 45 f0             	mov    -0x10(%rbp),%eax
   14afe:	48 63 d0             	movslq %eax,%rdx
   14b01:	8b 45 f4             	mov    -0xc(%rbp),%eax
   14b04:	48 63 c8             	movslq %eax,%rcx
   14b07:	48 89 d0             	mov    %rdx,%rax
   14b0a:	48 c1 e0 03          	shl    $0x3,%rax
   14b0e:	48 29 d0             	sub    %rdx,%rax
   14b11:	48 c1 e0 03          	shl    $0x3,%rax
   14b15:	48 89 ca             	mov    %rcx,%rdx
   14b18:	48 c1 e2 03          	shl    $0x3,%rdx
   14b1c:	48 29 ca             	sub    %rcx,%rdx
   14b1f:	48 01 d0             	add    %rdx,%rax
   14b22:	48 01 f0             	add    %rsi,%rax
   14b25:	48 8d 14 c5 00 00 00 	lea    0x0(,%rax,8),%rdx
   14b2c:	00 
   14b2d:	48 8d 05 ac 89 00 00 	lea    0x89ac(%rip),%rax        # 1d4e0 <g_863>
   14b34:	48 8b 04 02          	mov    (%rdx,%rax,1),%rax
   14b38:	48 89 c1             	mov    %rax,%rcx
   14b3b:	8b 45 fc             	mov    -0x4(%rbp),%eax
   14b3e:	89 c2                	mov    %eax,%edx
   14b40:	48 8d 35 dd 44 00 00 	lea    0x44dd(%rip),%rsi        # 19024 <g_1804+0x1dc4>
   14b47:	48 89 cf             	mov    %rcx,%rdi
   14b4a:	e8 a4 2b ff ff       	callq  76f3 <transparent_crc>
   14b4f:	83 7d fc 00          	cmpl   $0x0,-0x4(%rbp)
   14b53:	74 1c                	je     14b71 <main+0xd88>
   14b55:	8b 4d f8             	mov    -0x8(%rbp),%ecx
   14b58:	8b 55 f4             	mov    -0xc(%rbp),%edx
   14b5b:	8b 45 f0             	mov    -0x10(%rbp),%eax
   14b5e:	89 c6                	mov    %eax,%esi
   14b60:	48 8d 3d fa 42 00 00 	lea    0x42fa(%rip),%rdi        # 18e61 <g_1804+0x1c01>
   14b67:	b8 00 00 00 00       	mov    $0x0,%eax
   14b6c:	e8 0f 15 ff ff       	callq  6080 <printf@plt>
   14b71:	83 45 f8 01          	addl   $0x1,-0x8(%rbp)
   14b75:	83 7d f8 06          	cmpl   $0x6,-0x8(%rbp)
   14b79:	0f 8e 76 ff ff ff    	jle    14af5 <main+0xd0c>
   14b7f:	83 45 f4 01          	addl   $0x1,-0xc(%rbp)
   14b83:	83 7d f4 07          	cmpl   $0x7,-0xc(%rbp)
   14b87:	0f 8e 5c ff ff ff    	jle    14ae9 <main+0xd00>
   14b8d:	83 45 f0 01          	addl   $0x1,-0x10(%rbp)
   14b91:	83 7d f0 03          	cmpl   $0x3,-0x10(%rbp)
   14b95:	0f 8e 42 ff ff ff    	jle    14add <main+0xcf4>
   14b9b:	48 8b 05 3e 90 00 00 	mov    0x903e(%rip),%rax        # 1dbe0 <g_864>
   14ba2:	48 89 c1             	mov    %rax,%rcx
   14ba5:	8b 45 fc             	mov    -0x4(%rbp),%eax
   14ba8:	89 c2                	mov    %eax,%edx
   14baa:	48 8d 35 82 44 00 00 	lea    0x4482(%rip),%rsi        # 19033 <g_1804+0x1dd3>
   14bb1:	48 89 cf             	mov    %rcx,%rdi
   14bb4:	e8 3a 2b ff ff       	callq  76f3 <transparent_crc>
   14bb9:	c7 45 f0 00 00 00 00 	movl   $0x0,-0x10(%rbp)
   14bc0:	eb 79                	jmp    14c3b <main+0xe52>
   14bc2:	c7 45 f4 00 00 00 00 	movl   $0x0,-0xc(%rbp)
   14bc9:	eb 66                	jmp    14c31 <main+0xe48>
   14bcb:	8b 45 f4             	mov    -0xc(%rbp),%eax
   14bce:	48 63 c8             	movslq %eax,%rcx
   14bd1:	8b 45 f0             	mov    -0x10(%rbp),%eax
   14bd4:	48 63 d0             	movslq %eax,%rdx
   14bd7:	48 89 d0             	mov    %rdx,%rax
   14bda:	48 c1 e0 03          	shl    $0x3,%rax
   14bde:	48 29 d0             	sub    %rdx,%rax
   14be1:	48 01 c8             	add    %rcx,%rax
   14be4:	48 8d 14 c5 00 00 00 	lea    0x0(,%rax,8),%rdx
   14beb:	00 
   14bec:	48 8d 05 0d 90 00 00 	lea    0x900d(%rip),%rax        # 1dc00 <g_865>
   14bf3:	48 8b 04 02          	mov    (%rdx,%rax,1),%rax
   14bf7:	48 89 c1             	mov    %rax,%rcx
   14bfa:	8b 45 fc             	mov    -0x4(%rbp),%eax
   14bfd:	89 c2                	mov    %eax,%edx
   14bff:	48 8d 35 33 44 00 00 	lea    0x4433(%rip),%rsi        # 19039 <g_1804+0x1dd9>
   14c06:	48 89 cf             	mov    %rcx,%rdi
   14c09:	e8 e5 2a ff ff       	callq  76f3 <transparent_crc>
   14c0e:	83 7d fc 00          	cmpl   $0x0,-0x4(%rbp)
   14c12:	74 19                	je     14c2d <main+0xe44>
   14c14:	8b 55 f4             	mov    -0xc(%rbp),%edx
   14c17:	8b 45 f0             	mov    -0x10(%rbp),%eax
   14c1a:	89 c6                	mov    %eax,%esi
   14c1c:	48 8d 3d d2 41 00 00 	lea    0x41d2(%rip),%rdi        # 18df5 <g_1804+0x1b95>
   14c23:	b8 00 00 00 00       	mov    $0x0,%eax
   14c28:	e8 53 14 ff ff       	callq  6080 <printf@plt>
   14c2d:	83 45 f4 01          	addl   $0x1,-0xc(%rbp)
   14c31:	83 7d f4 06          	cmpl   $0x6,-0xc(%rbp)
   14c35:	7e 94                	jle    14bcb <main+0xde2>
   14c37:	83 45 f0 01          	addl   $0x1,-0x10(%rbp)
   14c3b:	83 7d f0 06          	cmpl   $0x6,-0x10(%rbp)
   14c3f:	7e 81                	jle    14bc2 <main+0xdd9>
   14c41:	48 8b 05 40 91 00 00 	mov    0x9140(%rip),%rax        # 1dd88 <g_866>
   14c48:	48 89 c1             	mov    %rax,%rcx
   14c4b:	8b 45 fc             	mov    -0x4(%rbp),%eax
   14c4e:	89 c2                	mov    %eax,%edx
   14c50:	48 8d 35 ee 43 00 00 	lea    0x43ee(%rip),%rsi        # 19045 <g_1804+0x1de5>
   14c57:	48 89 cf             	mov    %rcx,%rdi
   14c5a:	e8 94 2a ff ff       	callq  76f3 <transparent_crc>
   14c5f:	c7 45 f0 00 00 00 00 	movl   $0x0,-0x10(%rbp)
   14c66:	eb 4a                	jmp    14cb2 <main+0xec9>
   14c68:	8b 45 f0             	mov    -0x10(%rbp),%eax
   14c6b:	48 98                	cltq   
   14c6d:	48 8d 14 c5 00 00 00 	lea    0x0(,%rax,8),%rdx
   14c74:	00 
   14c75:	48 8d 05 24 91 00 00 	lea    0x9124(%rip),%rax        # 1dda0 <g_980>
   14c7c:	48 8b 04 02          	mov    (%rdx,%rax,1),%rax
   14c80:	8b 55 fc             	mov    -0x4(%rbp),%edx
   14c83:	48 8d 35 c1 43 00 00 	lea    0x43c1(%rip),%rsi        # 1904b <g_1804+0x1deb>
   14c8a:	48 89 c7             	mov    %rax,%rdi
   14c8d:	e8 61 2a ff ff       	callq  76f3 <transparent_crc>
   14c92:	83 7d fc 00          	cmpl   $0x0,-0x4(%rbp)
   14c96:	74 16                	je     14cae <main+0xec5>
   14c98:	8b 45 f0             	mov    -0x10(%rbp),%eax
   14c9b:	89 c6                	mov    %eax,%esi
   14c9d:	48 8d 3d 25 41 00 00 	lea    0x4125(%rip),%rdi        # 18dc9 <g_1804+0x1b69>
   14ca4:	b8 00 00 00 00       	mov    $0x0,%eax
   14ca9:	e8 d2 13 ff ff       	callq  6080 <printf@plt>
   14cae:	83 45 f0 01          	addl   $0x1,-0x10(%rbp)
   14cb2:	83 7d f0 09          	cmpl   $0x9,-0x10(%rbp)
   14cb6:	7e b0                	jle    14c68 <main+0xe7f>
   14cb8:	48 8b 05 31 91 00 00 	mov    0x9131(%rip),%rax        # 1ddf0 <g_987>
   14cbf:	8b 55 fc             	mov    -0x4(%rbp),%edx
   14cc2:	48 8d 35 8e 43 00 00 	lea    0x438e(%rip),%rsi        # 19057 <g_1804+0x1df7>
   14cc9:	48 89 c7             	mov    %rax,%rdi
   14ccc:	e8 22 2a ff ff       	callq  76f3 <transparent_crc>
   14cd1:	0f b7 05 d8 d1 00 00 	movzwl 0xd1d8(%rip),%eax        # 21eb0 <g_999>
   14cd8:	0f b7 c0             	movzwl %ax,%eax
   14cdb:	8b 55 fc             	mov    -0x4(%rbp),%edx
   14cde:	48 8d 35 7b 43 00 00 	lea    0x437b(%rip),%rsi        # 19060 <g_1804+0x1e00>
   14ce5:	48 89 c7             	mov    %rax,%rdi
   14ce8:	e8 06 2a ff ff       	callq  76f3 <transparent_crc>
   14ced:	8b 05 05 91 00 00    	mov    0x9105(%rip),%eax        # 1ddf8 <g_1059>
   14cf3:	89 c1                	mov    %eax,%ecx
   14cf5:	8b 45 fc             	mov    -0x4(%rbp),%eax
   14cf8:	89 c2                	mov    %eax,%edx
   14cfa:	48 8d 35 65 43 00 00 	lea    0x4365(%rip),%rsi        # 19066 <g_1804+0x1e06>
   14d01:	48 89 cf             	mov    %rcx,%rdi
   14d04:	e8 ea 29 ff ff       	callq  76f3 <transparent_crc>
   14d09:	48 8b 05 f0 90 00 00 	mov    0x90f0(%rip),%rax        # 1de00 <g_1087>
   14d10:	48 89 c1             	mov    %rax,%rcx
   14d13:	8b 45 fc             	mov    -0x4(%rbp),%eax
   14d16:	89 c2                	mov    %eax,%edx
   14d18:	48 8d 35 4e 43 00 00 	lea    0x434e(%rip),%rsi        # 1906d <g_1804+0x1e0d>
   14d1f:	48 89 cf             	mov    %rcx,%rdi
   14d22:	e8 cc 29 ff ff       	callq  76f3 <transparent_crc>
   14d27:	0f b6 05 da 90 00 00 	movzbl 0x90da(%rip),%eax        # 1de08 <g_1253>
   14d2e:	48 0f be c0          	movsbq %al,%rax
   14d32:	8b 55 fc             	mov    -0x4(%rbp),%edx
   14d35:	48 8d 35 38 43 00 00 	lea    0x4338(%rip),%rsi        # 19074 <g_1804+0x1e14>
   14d3c:	48 89 c7             	mov    %rax,%rdi
   14d3f:	e8 af 29 ff ff       	callq  76f3 <transparent_crc>
   14d44:	b8 ff ff ff ff       	mov    $0xffffffff,%eax
   14d49:	48 0f bf c0          	movswq %ax,%rax
   14d4d:	8b 55 fc             	mov    -0x4(%rbp),%edx
   14d50:	48 8d 35 24 43 00 00 	lea    0x4324(%rip),%rsi        # 1907b <g_1804+0x1e1b>
   14d57:	48 89 c7             	mov    %rax,%rdi
   14d5a:	e8 94 29 ff ff       	callq  76f3 <transparent_crc>
   14d5f:	b8 9e 1a 00 00       	mov    $0x1a9e,%eax
   14d64:	48 0f bf c0          	movswq %ax,%rax
   14d68:	8b 55 fc             	mov    -0x4(%rbp),%edx
   14d6b:	48 8d 35 10 43 00 00 	lea    0x4310(%rip),%rsi        # 19082 <g_1804+0x1e22>
   14d72:	48 89 c7             	mov    %rax,%rdi
   14d75:	e8 79 29 ff ff       	callq  76f3 <transparent_crc>
   14d7a:	8b 05 40 d1 00 00    	mov    0xd140(%rip),%eax        # 21ec0 <g_1377>
   14d80:	89 c1                	mov    %eax,%ecx
   14d82:	8b 45 fc             	mov    -0x4(%rbp),%eax
   14d85:	89 c2                	mov    %eax,%edx
   14d87:	48 8d 35 fb 42 00 00 	lea    0x42fb(%rip),%rsi        # 19089 <g_1804+0x1e29>
   14d8e:	48 89 cf             	mov    %rcx,%rdi
   14d91:	e8 5d 29 ff ff       	callq  76f3 <transparent_crc>
   14d96:	0f b7 05 6d 90 00 00 	movzwl 0x906d(%rip),%eax        # 1de0a <g_1453>
   14d9d:	48 0f bf c0          	movswq %ax,%rax
   14da1:	8b 55 fc             	mov    -0x4(%rbp),%edx
   14da4:	48 8d 35 e5 42 00 00 	lea    0x42e5(%rip),%rsi        # 19090 <g_1804+0x1e30>
   14dab:	48 89 c7             	mov    %rax,%rdi
   14dae:	e8 40 29 ff ff       	callq  76f3 <transparent_crc>
   14db3:	c7 45 f0 00 00 00 00 	movl   $0x0,-0x10(%rbp)
   14dba:	eb 76                	jmp    14e32 <main+0x1049>
   14dbc:	c7 45 f4 00 00 00 00 	movl   $0x0,-0xc(%rbp)
   14dc3:	eb 63                	jmp    14e28 <main+0x103f>
   14dc5:	8b 45 f4             	mov    -0xc(%rbp),%eax
   14dc8:	48 63 c8             	movslq %eax,%rcx
   14dcb:	8b 45 f0             	mov    -0x10(%rbp),%eax
   14dce:	48 63 d0             	movslq %eax,%rdx
   14dd1:	48 89 d0             	mov    %rdx,%rax
   14dd4:	48 c1 e0 02          	shl    $0x2,%rax
   14dd8:	48 01 d0             	add    %rdx,%rax
   14ddb:	48 01 c0             	add    %rax,%rax
   14dde:	48 01 c8             	add    %rcx,%rax
   14de1:	48 8d 14 00          	lea    (%rax,%rax,1),%rdx
   14de5:	48 8d 05 b4 22 00 00 	lea    0x22b4(%rip),%rax        # 170a0 <g_1469>
   14dec:	0f b7 04 02          	movzwl (%rdx,%rax,1),%eax
   14df0:	0f b7 c0             	movzwl %ax,%eax
   14df3:	8b 55 fc             	mov    -0x4(%rbp),%edx
   14df6:	48 8d 35 9a 42 00 00 	lea    0x429a(%rip),%rsi        # 19097 <g_1804+0x1e37>
   14dfd:	48 89 c7             	mov    %rax,%rdi
   14e00:	e8 ee 28 ff ff       	callq  76f3 <transparent_crc>
   14e05:	83 7d fc 00          	cmpl   $0x0,-0x4(%rbp)
   14e09:	74 19                	je     14e24 <main+0x103b>
   14e0b:	8b 55 f4             	mov    -0xc(%rbp),%edx
   14e0e:	8b 45 f0             	mov    -0x10(%rbp),%eax
   14e11:	89 c6                	mov    %eax,%esi
   14e13:	48 8d 3d db 3f 00 00 	lea    0x3fdb(%rip),%rdi        # 18df5 <g_1804+0x1b95>
   14e1a:	b8 00 00 00 00       	mov    $0x0,%eax
   14e1f:	e8 5c 12 ff ff       	callq  6080 <printf@plt>
   14e24:	83 45 f4 01          	addl   $0x1,-0xc(%rbp)
   14e28:	83 7d f4 09          	cmpl   $0x9,-0xc(%rbp)
   14e2c:	7e 97                	jle    14dc5 <main+0xfdc>
   14e2e:	83 45 f0 01          	addl   $0x1,-0x10(%rbp)
   14e32:	83 7d f0 08          	cmpl   $0x8,-0x10(%rbp)
   14e36:	7e 84                	jle    14dbc <main+0xfd3>
   14e38:	8b 05 ce 8f 00 00    	mov    0x8fce(%rip),%eax        # 1de0c <g_1566>
   14e3e:	48 98                	cltq   
   14e40:	8b 55 fc             	mov    -0x4(%rbp),%edx
   14e43:	48 8d 35 5a 42 00 00 	lea    0x425a(%rip),%rsi        # 190a4 <g_1804+0x1e44>
   14e4a:	48 89 c7             	mov    %rax,%rdi
   14e4d:	e8 a1 28 ff ff       	callq  76f3 <transparent_crc>
   14e52:	8b 05 b8 8f 00 00    	mov    0x8fb8(%rip),%eax        # 1de10 <g_1601>
   14e58:	89 c1                	mov    %eax,%ecx
   14e5a:	8b 45 fc             	mov    -0x4(%rbp),%eax
   14e5d:	89 c2                	mov    %eax,%edx
   14e5f:	48 8d 35 45 42 00 00 	lea    0x4245(%rip),%rsi        # 190ab <g_1804+0x1e4b>
   14e66:	48 89 cf             	mov    %rcx,%rdi
   14e69:	e8 85 28 ff ff       	callq  76f3 <transparent_crc>
   14e6e:	8b 05 ac 8f 00 00    	mov    0x8fac(%rip),%eax        # 1de20 <g_1603>
   14e74:	c1 e0 03             	shl    $0x3,%eax
   14e77:	c1 f8 03             	sar    $0x3,%eax
   14e7a:	48 98                	cltq   
   14e7c:	8b 55 fc             	mov    -0x4(%rbp),%edx
   14e7f:	48 8d 35 2c 42 00 00 	lea    0x422c(%rip),%rsi        # 190b2 <g_1804+0x1e52>
   14e86:	48 89 c7             	mov    %rax,%rdi
   14e89:	e8 65 28 ff ff       	callq  76f3 <transparent_crc>
   14e8e:	48 8b 05 8b 8f 00 00 	mov    0x8f8b(%rip),%rax        # 1de20 <g_1603>
   14e95:	48 c1 e0 05          	shl    $0x5,%rax
   14e99:	48 c1 f8 22          	sar    $0x22,%rax
   14e9d:	48 98                	cltq   
   14e9f:	8b 55 fc             	mov    -0x4(%rbp),%edx
   14ea2:	48 8d 35 13 42 00 00 	lea    0x4213(%rip),%rsi        # 190bc <g_1804+0x1e5c>
   14ea9:	48 89 c7             	mov    %rax,%rdi
   14eac:	e8 42 28 ff ff       	callq  76f3 <transparent_crc>
   14eb1:	0f b6 05 6f 8f 00 00 	movzbl 0x8f6f(%rip),%eax        # 1de27 <g_1603+0x7>
   14eb8:	c0 e8 03             	shr    $0x3,%al
   14ebb:	0f b6 c0             	movzbl %al,%eax
   14ebe:	0f b6 15 63 8f 00 00 	movzbl 0x8f63(%rip),%edx        # 1de28 <g_1603+0x8>
   14ec5:	83 e2 07             	and    $0x7,%edx
   14ec8:	48 c1 e2 05          	shl    $0x5,%rdx
   14ecc:	48 09 d0             	or     %rdx,%rax
   14ecf:	0f b6 c0             	movzbl %al,%eax
   14ed2:	8b 55 fc             	mov    -0x4(%rbp),%edx
   14ed5:	48 8d 35 ea 41 00 00 	lea    0x41ea(%rip),%rsi        # 190c6 <g_1804+0x1e66>
   14edc:	48 89 c7             	mov    %rax,%rdi
   14edf:	e8 0f 28 ff ff       	callq  76f3 <transparent_crc>
   14ee4:	48 8b 05 3d 8f 00 00 	mov    0x8f3d(%rip),%rax        # 1de28 <g_1603+0x8>
   14eeb:	c1 e0 09             	shl    $0x9,%eax
   14eee:	c1 f8 0c             	sar    $0xc,%eax
   14ef1:	48 98                	cltq   
   14ef3:	8b 55 fc             	mov    -0x4(%rbp),%edx
   14ef6:	48 8d 35 d3 41 00 00 	lea    0x41d3(%rip),%rsi        # 190d0 <g_1804+0x1e70>
   14efd:	48 89 c7             	mov    %rax,%rdi
   14f00:	e8 ee 27 ff ff       	callq  76f3 <transparent_crc>
   14f05:	48 8b 05 1c 8f 00 00 	mov    0x8f1c(%rip),%rax        # 1de28 <g_1603+0x8>
   14f0c:	48 c1 e0 16          	shl    $0x16,%rax
   14f10:	48 c1 f8 2d          	sar    $0x2d,%rax
   14f14:	48 98                	cltq   
   14f16:	8b 55 fc             	mov    -0x4(%rbp),%edx
   14f19:	48 8d 35 ba 41 00 00 	lea    0x41ba(%rip),%rsi        # 190da <g_1804+0x1e7a>
   14f20:	48 89 c7             	mov    %rax,%rdi
   14f23:	e8 cb 27 ff ff       	callq  76f3 <transparent_crc>
   14f28:	8b 05 fe 8e 00 00    	mov    0x8efe(%rip),%eax        # 1de2c <g_1603+0xc>
   14f2e:	c1 e8 0a             	shr    $0xa,%eax
   14f31:	89 c2                	mov    %eax,%edx
   14f33:	0f b6 05 f6 8e 00 00 	movzbl 0x8ef6(%rip),%eax        # 1de30 <g_1603+0x10>
   14f3a:	48 c1 e0 16          	shl    $0x16,%rax
   14f3e:	48 09 d0             	or     %rdx,%rax
   14f41:	89 c1                	mov    %eax,%ecx
   14f43:	8b 45 fc             	mov    -0x4(%rbp),%eax
   14f46:	89 c2                	mov    %eax,%edx
   14f48:	48 8d 35 95 41 00 00 	lea    0x4195(%rip),%rsi        # 190e4 <g_1804+0x1e84>
   14f4f:	48 89 cf             	mov    %rcx,%rdi
   14f52:	e8 9c 27 ff ff       	callq  76f3 <transparent_crc>
   14f57:	0f b6 05 d3 8e 00 00 	movzbl 0x8ed3(%rip),%eax        # 1de31 <g_1603+0x11>
   14f5e:	c1 e0 04             	shl    $0x4,%eax
   14f61:	c0 f8 04             	sar    $0x4,%al
   14f64:	48 0f be c0          	movsbq %al,%rax
   14f68:	8b 55 fc             	mov    -0x4(%rbp),%edx
   14f6b:	48 8d 35 7c 41 00 00 	lea    0x417c(%rip),%rsi        # 190ee <g_1804+0x1e8e>
   14f72:	48 89 c7             	mov    %rax,%rdi
   14f75:	e8 79 27 ff ff       	callq  76f3 <transparent_crc>
   14f7a:	8b 05 b0 8e 00 00    	mov    0x8eb0(%rip),%eax        # 1de30 <g_1603+0x10>
   14f80:	c1 e0 0b             	shl    $0xb,%eax
   14f83:	c1 f8 17             	sar    $0x17,%eax
   14f86:	48 0f bf c0          	movswq %ax,%rax
   14f8a:	8b 55 fc             	mov    -0x4(%rbp),%edx
   14f8d:	48 8d 35 64 41 00 00 	lea    0x4164(%rip),%rsi        # 190f8 <g_1804+0x1e98>
   14f94:	48 89 c7             	mov    %rax,%rdi
   14f97:	e8 57 27 ff ff       	callq  76f3 <transparent_crc>
   14f9c:	0f b7 05 8f 8e 00 00 	movzwl 0x8e8f(%rip),%eax        # 1de32 <g_1603+0x12>
   14fa3:	c1 e0 02             	shl    $0x2,%eax
   14fa6:	66 c1 f8 07          	sar    $0x7,%ax
   14faa:	48 0f bf c0          	movswq %ax,%rax
   14fae:	8b 55 fc             	mov    -0x4(%rbp),%edx
   14fb1:	48 8d 35 4a 41 00 00 	lea    0x414a(%rip),%rsi        # 19102 <g_1804+0x1ea2>
   14fb8:	48 89 c7             	mov    %rax,%rdi
   14fbb:	e8 33 27 ff ff       	callq  76f3 <transparent_crc>
   14fc0:	48 8b 05 69 8e 00 00 	mov    0x8e69(%rip),%rax        # 1de30 <g_1603+0x10>
   14fc7:	48 c1 e0 0f          	shl    $0xf,%rax
   14fcb:	48 c1 f8 2d          	sar    $0x2d,%rax
   14fcf:	48 98                	cltq   
   14fd1:	8b 55 fc             	mov    -0x4(%rbp),%edx
   14fd4:	48 8d 35 31 41 00 00 	lea    0x4131(%rip),%rsi        # 1910c <g_1804+0x1eac>
   14fdb:	48 89 c7             	mov    %rax,%rdi
   14fde:	e8 10 27 ff ff       	callq  76f3 <transparent_crc>
   14fe3:	0f b7 05 4e 8e 00 00 	movzwl 0x8e4e(%rip),%eax        # 1de38 <g_1656>
   14fea:	48 0f bf c0          	movswq %ax,%rax
   14fee:	8b 55 fc             	mov    -0x4(%rbp),%edx
   14ff1:	48 8d 35 1e 41 00 00 	lea    0x411e(%rip),%rsi        # 19116 <g_1804+0x1eb6>
   14ff8:	48 89 c7             	mov    %rax,%rdi
   14ffb:	e8 f3 26 ff ff       	callq  76f3 <transparent_crc>
   15000:	c7 45 f0 00 00 00 00 	movl   $0x0,-0x10(%rbp)
   15007:	e9 f4 03 00 00       	jmpq   15400 <main+0x1617>
   1500c:	8b 45 f0             	mov    -0x10(%rbp),%eax
   1500f:	48 63 d0             	movslq %eax,%rdx
   15012:	48 89 d0             	mov    %rdx,%rax
   15015:	48 01 c0             	add    %rax,%rax
   15018:	48 01 d0             	add    %rdx,%rax
   1501b:	48 c1 e0 03          	shl    $0x3,%rax
   1501f:	48 29 d0             	sub    %rdx,%rax
   15022:	48 89 c2             	mov    %rax,%rdx
   15025:	48 8d 05 14 8e 00 00 	lea    0x8e14(%rip),%rax        # 1de40 <g_1695>
   1502c:	0f b6 0c 02          	movzbl (%rdx,%rax,1),%ecx
   15030:	0f b6 74 02 01       	movzbl 0x1(%rdx,%rax,1),%esi
   15035:	48 c1 e6 08          	shl    $0x8,%rsi
   15039:	48 09 ce             	or     %rcx,%rsi
   1503c:	0f b6 4c 02 02       	movzbl 0x2(%rdx,%rax,1),%ecx
   15041:	48 c1 e1 10          	shl    $0x10,%rcx
   15045:	48 09 f1             	or     %rsi,%rcx
   15048:	0f b6 44 02 03       	movzbl 0x3(%rdx,%rax,1),%eax
   1504d:	83 e0 1f             	and    $0x1f,%eax
   15050:	48 c1 e0 18          	shl    $0x18,%rax
   15054:	48 09 c8             	or     %rcx,%rax
   15057:	48 c1 e0 23          	shl    $0x23,%rax
   1505b:	48 c1 f8 23          	sar    $0x23,%rax
   1505f:	48 98                	cltq   
   15061:	8b 55 fc             	mov    -0x4(%rbp),%edx
   15064:	48 8d 35 b2 40 00 00 	lea    0x40b2(%rip),%rsi        # 1911d <g_1804+0x1ebd>
   1506b:	48 89 c7             	mov    %rax,%rdi
   1506e:	e8 80 26 ff ff       	callq  76f3 <transparent_crc>
   15073:	8b 45 f0             	mov    -0x10(%rbp),%eax
   15076:	48 63 d0             	movslq %eax,%rdx
   15079:	48 89 d0             	mov    %rdx,%rax
   1507c:	48 01 c0             	add    %rax,%rax
   1507f:	48 01 d0             	add    %rdx,%rax
   15082:	48 c1 e0 03          	shl    $0x3,%rax
   15086:	48 29 d0             	sub    %rdx,%rax
   15089:	48 89 c2             	mov    %rax,%rdx
   1508c:	48 8d 05 ad 8d 00 00 	lea    0x8dad(%rip),%rax        # 1de40 <g_1695>
   15093:	0f b6 4c 02 03       	movzbl 0x3(%rdx,%rax,1),%ecx
   15098:	c0 e9 05             	shr    $0x5,%cl
   1509b:	0f b6 c9             	movzbl %cl,%ecx
   1509e:	0f b6 74 02 04       	movzbl 0x4(%rdx,%rax,1),%esi
   150a3:	48 c1 e6 03          	shl    $0x3,%rsi
   150a7:	48 09 ce             	or     %rcx,%rsi
   150aa:	0f b6 4c 02 05       	movzbl 0x5(%rdx,%rax,1),%ecx
   150af:	48 c1 e1 0b          	shl    $0xb,%rcx
   150b3:	48 09 ce             	or     %rcx,%rsi
   150b6:	0f b6 4c 02 06       	movzbl 0x6(%rdx,%rax,1),%ecx
   150bb:	48 c1 e1 13          	shl    $0x13,%rcx
   150bf:	48 09 f1             	or     %rsi,%rcx
   150c2:	0f b6 44 02 07       	movzbl 0x7(%rdx,%rax,1),%eax
   150c7:	83 e0 07             	and    $0x7,%eax
   150ca:	48 c1 e0 1b          	shl    $0x1b,%rax
   150ce:	48 09 c8             	or     %rcx,%rax
   150d1:	48 c1 e0 22          	shl    $0x22,%rax
   150d5:	48 c1 f8 22          	sar    $0x22,%rax
   150d9:	48 98                	cltq   
   150db:	8b 55 fc             	mov    -0x4(%rbp),%edx
   150de:	48 8d 35 45 40 00 00 	lea    0x4045(%rip),%rsi        # 1912a <g_1804+0x1eca>
   150e5:	48 89 c7             	mov    %rax,%rdi
   150e8:	e8 06 26 ff ff       	callq  76f3 <transparent_crc>
   150ed:	8b 45 f0             	mov    -0x10(%rbp),%eax
   150f0:	48 63 d0             	movslq %eax,%rdx
   150f3:	48 89 d0             	mov    %rdx,%rax
   150f6:	48 01 c0             	add    %rax,%rax
   150f9:	48 01 d0             	add    %rdx,%rax
   150fc:	48 c1 e0 03          	shl    $0x3,%rax
   15100:	48 29 d0             	sub    %rdx,%rax
   15103:	48 89 c2             	mov    %rax,%rdx
   15106:	48 8d 05 33 8d 00 00 	lea    0x8d33(%rip),%rax        # 1de40 <g_1695>
   1510d:	0f b6 4c 02 07       	movzbl 0x7(%rdx,%rax,1),%ecx
   15112:	c0 e9 03             	shr    $0x3,%cl
   15115:	0f b6 c9             	movzbl %cl,%ecx
   15118:	0f b6 44 02 08       	movzbl 0x8(%rdx,%rax,1),%eax
   1511d:	83 e0 07             	and    $0x7,%eax
   15120:	48 c1 e0 05          	shl    $0x5,%rax
   15124:	48 09 c8             	or     %rcx,%rax
   15127:	0f b6 c0             	movzbl %al,%eax
   1512a:	8b 55 fc             	mov    -0x4(%rbp),%edx
   1512d:	48 8d 35 03 40 00 00 	lea    0x4003(%rip),%rsi        # 19137 <g_1804+0x1ed7>
   15134:	48 89 c7             	mov    %rax,%rdi
   15137:	e8 b7 25 ff ff       	callq  76f3 <transparent_crc>
   1513c:	8b 45 f0             	mov    -0x10(%rbp),%eax
   1513f:	48 63 d0             	movslq %eax,%rdx
   15142:	48 89 d0             	mov    %rdx,%rax
   15145:	48 01 c0             	add    %rax,%rax
   15148:	48 01 d0             	add    %rdx,%rax
   1514b:	48 c1 e0 03          	shl    $0x3,%rax
   1514f:	48 29 d0             	sub    %rdx,%rax
   15152:	48 89 c2             	mov    %rax,%rdx
   15155:	48 8d 05 e4 8c 00 00 	lea    0x8ce4(%rip),%rax        # 1de40 <g_1695>
   1515c:	0f b6 4c 02 08       	movzbl 0x8(%rdx,%rax,1),%ecx
   15161:	c0 e9 03             	shr    $0x3,%cl
   15164:	0f b6 c9             	movzbl %cl,%ecx
   15167:	0f b6 74 02 09       	movzbl 0x9(%rdx,%rax,1),%esi
   1516c:	40 0f b6 f6          	movzbl %sil,%esi
   15170:	48 c1 e6 05          	shl    $0x5,%rsi
   15174:	48 09 f1             	or     %rsi,%rcx
   15177:	0f b6 44 02 0a       	movzbl 0xa(%rdx,%rax,1),%eax
   1517c:	0f b6 c0             	movzbl %al,%eax
   1517f:	83 e0 7f             	and    $0x7f,%eax
   15182:	48 c1 e0 0d          	shl    $0xd,%rax
   15186:	48 09 c8             	or     %rcx,%rax
   15189:	48 c1 e0 2c          	shl    $0x2c,%rax
   1518d:	48 c1 f8 2c          	sar    $0x2c,%rax
   15191:	48 98                	cltq   
   15193:	8b 55 fc             	mov    -0x4(%rbp),%edx
   15196:	48 8d 35 a7 3f 00 00 	lea    0x3fa7(%rip),%rsi        # 19144 <g_1804+0x1ee4>
   1519d:	48 89 c7             	mov    %rax,%rdi
   151a0:	e8 4e 25 ff ff       	callq  76f3 <transparent_crc>
   151a5:	8b 45 f0             	mov    -0x10(%rbp),%eax
   151a8:	48 63 d0             	movslq %eax,%rdx
   151ab:	48 89 d0             	mov    %rdx,%rax
   151ae:	48 01 c0             	add    %rax,%rax
   151b1:	48 01 d0             	add    %rdx,%rax
   151b4:	48 c1 e0 03          	shl    $0x3,%rax
   151b8:	48 29 d0             	sub    %rdx,%rax
   151bb:	48 89 c2             	mov    %rax,%rdx
   151be:	48 8d 05 7b 8c 00 00 	lea    0x8c7b(%rip),%rax        # 1de40 <g_1695>
   151c5:	0f b6 4c 02 0a       	movzbl 0xa(%rdx,%rax,1),%ecx
   151ca:	c0 e9 07             	shr    $0x7,%cl
   151cd:	0f b6 c9             	movzbl %cl,%ecx
   151d0:	0f b6 74 02 0b       	movzbl 0xb(%rdx,%rax,1),%esi
   151d5:	40 0f b6 f6          	movzbl %sil,%esi
   151d9:	48 01 f6             	add    %rsi,%rsi
   151dc:	48 09 ce             	or     %rcx,%rsi
   151df:	0f b6 4c 02 0c       	movzbl 0xc(%rdx,%rax,1),%ecx
   151e4:	0f b6 c9             	movzbl %cl,%ecx
   151e7:	48 c1 e1 09          	shl    $0x9,%rcx
   151eb:	48 09 f1             	or     %rsi,%rcx
   151ee:	0f b6 44 02 0d       	movzbl 0xd(%rdx,%rax,1),%eax
   151f3:	0f b6 c0             	movzbl %al,%eax
   151f6:	83 e0 03             	and    $0x3,%eax
   151f9:	48 c1 e0 11          	shl    $0x11,%rax
   151fd:	48 09 c8             	or     %rcx,%rax
   15200:	48 c1 e0 2d          	shl    $0x2d,%rax
   15204:	48 c1 f8 2d          	sar    $0x2d,%rax
   15208:	48 98                	cltq   
   1520a:	8b 55 fc             	mov    -0x4(%rbp),%edx
   1520d:	48 8d 35 3d 3f 00 00 	lea    0x3f3d(%rip),%rsi        # 19151 <g_1804+0x1ef1>
   15214:	48 89 c7             	mov    %rax,%rdi
   15217:	e8 d7 24 ff ff       	callq  76f3 <transparent_crc>
   1521c:	8b 45 f0             	mov    -0x10(%rbp),%eax
   1521f:	48 63 d0             	movslq %eax,%rdx
   15222:	48 89 d0             	mov    %rdx,%rax
   15225:	48 01 c0             	add    %rax,%rax
   15228:	48 01 d0             	add    %rdx,%rax
   1522b:	48 c1 e0 03          	shl    $0x3,%rax
   1522f:	48 29 d0             	sub    %rdx,%rax
   15232:	48 89 c2             	mov    %rax,%rdx
   15235:	48 8d 05 04 8c 00 00 	lea    0x8c04(%rip),%rax        # 1de40 <g_1695>
   1523c:	0f b6 4c 02 0d       	movzbl 0xd(%rdx,%rax,1),%ecx
   15241:	c0 e9 02             	shr    $0x2,%cl
   15244:	0f b6 c9             	movzbl %cl,%ecx
   15247:	0f b6 74 02 0e       	movzbl 0xe(%rdx,%rax,1),%esi
   1524c:	48 c1 e6 06          	shl    $0x6,%rsi
   15250:	48 09 ce             	or     %rcx,%rsi
   15253:	0f b6 4c 02 0f       	movzbl 0xf(%rdx,%rax,1),%ecx
   15258:	48 c1 e1 0e          	shl    $0xe,%rcx
   1525c:	48 09 f1             	or     %rsi,%rcx
   1525f:	0f b6 44 02 10       	movzbl 0x10(%rdx,%rax,1),%eax
   15264:	48 c1 e0 16          	shl    $0x16,%rax
   15268:	48 09 c8             	or     %rcx,%rax
   1526b:	89 c1                	mov    %eax,%ecx
   1526d:	8b 45 fc             	mov    -0x4(%rbp),%eax
   15270:	89 c2                	mov    %eax,%edx
   15272:	48 8d 35 e5 3e 00 00 	lea    0x3ee5(%rip),%rsi        # 1915e <g_1804+0x1efe>
   15279:	48 89 cf             	mov    %rcx,%rdi
   1527c:	e8 72 24 ff ff       	callq  76f3 <transparent_crc>
   15281:	8b 45 f0             	mov    -0x10(%rbp),%eax
   15284:	48 63 d0             	movslq %eax,%rdx
   15287:	48 89 d0             	mov    %rdx,%rax
   1528a:	48 01 c0             	add    %rax,%rax
   1528d:	48 01 d0             	add    %rdx,%rax
   15290:	48 c1 e0 03          	shl    $0x3,%rax
   15294:	48 29 d0             	sub    %rdx,%rax
   15297:	48 89 c2             	mov    %rax,%rdx
   1529a:	48 8d 05 af 8b 00 00 	lea    0x8baf(%rip),%rax        # 1de50 <g_1695+0x10>
   152a1:	0f b6 44 02 01       	movzbl 0x1(%rdx,%rax,1),%eax
   152a6:	c1 e0 04             	shl    $0x4,%eax
   152a9:	c0 f8 04             	sar    $0x4,%al
   152ac:	48 0f be c0          	movsbq %al,%rax
   152b0:	8b 55 fc             	mov    -0x4(%rbp),%edx
   152b3:	48 8d 35 b1 3e 00 00 	lea    0x3eb1(%rip),%rsi        # 1916b <g_1804+0x1f0b>
   152ba:	48 89 c7             	mov    %rax,%rdi
   152bd:	e8 31 24 ff ff       	callq  76f3 <transparent_crc>
   152c2:	8b 45 f0             	mov    -0x10(%rbp),%eax
   152c5:	48 63 d0             	movslq %eax,%rdx
   152c8:	48 89 d0             	mov    %rdx,%rax
   152cb:	48 01 c0             	add    %rax,%rax
   152ce:	48 01 d0             	add    %rdx,%rax
   152d1:	48 c1 e0 03          	shl    $0x3,%rax
   152d5:	48 29 d0             	sub    %rdx,%rax
   152d8:	48 89 c2             	mov    %rax,%rdx
   152db:	48 8d 05 6e 8b 00 00 	lea    0x8b6e(%rip),%rax        # 1de50 <g_1695+0x10>
   152e2:	0f b6 4c 02 01       	movzbl 0x1(%rdx,%rax,1),%ecx
   152e7:	c0 e9 04             	shr    $0x4,%cl
   152ea:	0f b6 c9             	movzbl %cl,%ecx
   152ed:	0f b6 44 02 02       	movzbl 0x2(%rdx,%rax,1),%eax
   152f2:	83 e0 1f             	and    $0x1f,%eax
   152f5:	48 c1 e0 04          	shl    $0x4,%rax
   152f9:	48 09 c8             	or     %rcx,%rax
   152fc:	48 c1 e0 37          	shl    $0x37,%rax
   15300:	48 c1 f8 37          	sar    $0x37,%rax
   15304:	48 0f bf c0          	movswq %ax,%rax
   15308:	8b 55 fc             	mov    -0x4(%rbp),%edx
   1530b:	48 8d 35 66 3e 00 00 	lea    0x3e66(%rip),%rsi        # 19178 <g_1804+0x1f18>
   15312:	48 89 c7             	mov    %rax,%rdi
   15315:	e8 d9 23 ff ff       	callq  76f3 <transparent_crc>
   1531a:	8b 45 f0             	mov    -0x10(%rbp),%eax
   1531d:	48 63 d0             	movslq %eax,%rdx
   15320:	48 89 d0             	mov    %rdx,%rax
   15323:	48 01 c0             	add    %rax,%rax
   15326:	48 01 d0             	add    %rdx,%rax
   15329:	48 c1 e0 03          	shl    $0x3,%rax
   1532d:	48 29 d0             	sub    %rdx,%rax
   15330:	48 89 c2             	mov    %rax,%rdx
   15333:	48 8d 05 16 8b 00 00 	lea    0x8b16(%rip),%rax        # 1de50 <g_1695+0x10>
   1533a:	0f b6 4c 02 02       	movzbl 0x2(%rdx,%rax,1),%ecx
   1533f:	c0 e9 05             	shr    $0x5,%cl
   15342:	0f b6 c9             	movzbl %cl,%ecx
   15345:	0f b6 44 02 03       	movzbl 0x3(%rdx,%rax,1),%eax
   1534a:	83 e0 3f             	and    $0x3f,%eax
   1534d:	48 c1 e0 03          	shl    $0x3,%rax
   15351:	48 09 c8             	or     %rcx,%rax
   15354:	48 c1 e0 37          	shl    $0x37,%rax
   15358:	48 c1 f8 37          	sar    $0x37,%rax
   1535c:	48 0f bf c0          	movswq %ax,%rax
   15360:	8b 55 fc             	mov    -0x4(%rbp),%edx
   15363:	48 8d 35 1b 3e 00 00 	lea    0x3e1b(%rip),%rsi        # 19185 <g_1804+0x1f25>
   1536a:	48 89 c7             	mov    %rax,%rdi
   1536d:	e8 81 23 ff ff       	callq  76f3 <transparent_crc>
   15372:	8b 45 f0             	mov    -0x10(%rbp),%eax
   15375:	48 63 d0             	movslq %eax,%rdx
   15378:	48 89 d0             	mov    %rdx,%rax
   1537b:	48 01 c0             	add    %rax,%rax
   1537e:	48 01 d0             	add    %rdx,%rax
   15381:	48 c1 e0 03          	shl    $0x3,%rax
   15385:	48 29 d0             	sub    %rdx,%rax
   15388:	48 89 c2             	mov    %rax,%rdx
   1538b:	48 8d 05 be 8a 00 00 	lea    0x8abe(%rip),%rax        # 1de50 <g_1695+0x10>
   15392:	0f b6 4c 02 03       	movzbl 0x3(%rdx,%rax,1),%ecx
   15397:	c0 e9 06             	shr    $0x6,%cl
   1539a:	0f b6 c9             	movzbl %cl,%ecx
   1539d:	0f b6 74 02 04       	movzbl 0x4(%rdx,%rax,1),%esi
   153a2:	48 c1 e6 02          	shl    $0x2,%rsi
   153a6:	48 09 ce             	or     %rcx,%rsi
   153a9:	0f b6 4c 02 05       	movzbl 0x5(%rdx,%rax,1),%ecx
   153ae:	48 c1 e1 0a          	shl    $0xa,%rcx
   153b2:	48 09 f1             	or     %rsi,%rcx
   153b5:	0f b6 44 02 06       	movzbl 0x6(%rdx,%rax,1),%eax
   153ba:	83 e0 01             	and    $0x1,%eax
   153bd:	48 c1 e0 12          	shl    $0x12,%rax
   153c1:	48 09 c8             	or     %rcx,%rax
   153c4:	48 c1 e0 2d          	shl    $0x2d,%rax
   153c8:	48 c1 f8 2d          	sar    $0x2d,%rax
   153cc:	48 98                	cltq   
   153ce:	8b 55 fc             	mov    -0x4(%rbp),%edx
   153d1:	48 8d 35 ba 3d 00 00 	lea    0x3dba(%rip),%rsi        # 19192 <g_1804+0x1f32>
   153d8:	48 89 c7             	mov    %rax,%rdi
   153db:	e8 13 23 ff ff       	callq  76f3 <transparent_crc>
   153e0:	83 7d fc 00          	cmpl   $0x0,-0x4(%rbp)
   153e4:	74 16                	je     153fc <main+0x1613>
   153e6:	8b 45 f0             	mov    -0x10(%rbp),%eax
   153e9:	89 c6                	mov    %eax,%esi
   153eb:	48 8d 3d d7 39 00 00 	lea    0x39d7(%rip),%rdi        # 18dc9 <g_1804+0x1b69>
   153f2:	b8 00 00 00 00       	mov    $0x0,%eax
   153f7:	e8 84 0c ff ff       	callq  6080 <printf@plt>
   153fc:	83 45 f0 01          	addl   $0x1,-0x10(%rbp)
   15400:	83 7d f0 02          	cmpl   $0x2,-0x10(%rbp)
   15404:	0f 8e 02 fc ff ff    	jle    1500c <main+0x1223>
   1540a:	c7 45 f0 00 00 00 00 	movl   $0x0,-0x10(%rbp)
   15411:	e9 90 04 00 00       	jmpq   158a6 <main+0x1abd>
   15416:	c7 45 f4 00 00 00 00 	movl   $0x0,-0xc(%rbp)
   1541d:	e9 76 04 00 00       	jmpq   15898 <main+0x1aaf>
   15422:	8b 45 f4             	mov    -0xc(%rbp),%eax
   15425:	48 63 d0             	movslq %eax,%rdx
   15428:	8b 45 f0             	mov    -0x10(%rbp),%eax
   1542b:	48 63 c8             	movslq %eax,%rcx
   1542e:	48 89 d0             	mov    %rdx,%rax
   15431:	48 01 c0             	add    %rax,%rax
   15434:	48 01 d0             	add    %rdx,%rax
   15437:	48 c1 e0 03          	shl    $0x3,%rax
   1543b:	48 29 d0             	sub    %rdx,%rax
   1543e:	48 69 d1 e6 00 00 00 	imul   $0xe6,%rcx,%rdx
   15445:	48 01 c2             	add    %rax,%rdx
   15448:	48 8d 05 11 1d 00 00 	lea    0x1d11(%rip),%rax        # 17160 <g_1801>
   1544f:	48 01 d0             	add    %rdx,%rax
   15452:	0f b6 10             	movzbl (%rax),%edx
   15455:	0f b6 48 01          	movzbl 0x1(%rax),%ecx
   15459:	48 c1 e1 08          	shl    $0x8,%rcx
   1545d:	48 09 d1             	or     %rdx,%rcx
   15460:	0f b6 50 02          	movzbl 0x2(%rax),%edx
   15464:	48 c1 e2 10          	shl    $0x10,%rdx
   15468:	48 09 ca             	or     %rcx,%rdx
   1546b:	0f b6 40 03          	movzbl 0x3(%rax),%eax
   1546f:	83 e0 1f             	and    $0x1f,%eax
   15472:	48 c1 e0 18          	shl    $0x18,%rax
   15476:	48 09 d0             	or     %rdx,%rax
   15479:	48 c1 e0 23          	shl    $0x23,%rax
   1547d:	48 c1 f8 23          	sar    $0x23,%rax
   15481:	48 98                	cltq   
   15483:	8b 55 fc             	mov    -0x4(%rbp),%edx
   15486:	48 8d 35 12 3d 00 00 	lea    0x3d12(%rip),%rsi        # 1919f <g_1804+0x1f3f>
   1548d:	48 89 c7             	mov    %rax,%rdi
   15490:	e8 5e 22 ff ff       	callq  76f3 <transparent_crc>
   15495:	8b 45 f4             	mov    -0xc(%rbp),%eax
   15498:	48 63 d0             	movslq %eax,%rdx
   1549b:	8b 45 f0             	mov    -0x10(%rbp),%eax
   1549e:	48 63 c8             	movslq %eax,%rcx
   154a1:	48 89 d0             	mov    %rdx,%rax
   154a4:	48 01 c0             	add    %rax,%rax
   154a7:	48 01 d0             	add    %rdx,%rax
   154aa:	48 c1 e0 03          	shl    $0x3,%rax
   154ae:	48 29 d0             	sub    %rdx,%rax
   154b1:	48 69 d1 e6 00 00 00 	imul   $0xe6,%rcx,%rdx
   154b8:	48 01 c2             	add    %rax,%rdx
   154bb:	48 8d 05 9e 1c 00 00 	lea    0x1c9e(%rip),%rax        # 17160 <g_1801>
   154c2:	48 01 d0             	add    %rdx,%rax
   154c5:	0f b6 50 03          	movzbl 0x3(%rax),%edx
   154c9:	c0 ea 05             	shr    $0x5,%dl
   154cc:	0f b6 d2             	movzbl %dl,%edx
   154cf:	0f b6 48 04          	movzbl 0x4(%rax),%ecx
   154d3:	48 c1 e1 03          	shl    $0x3,%rcx
   154d7:	48 09 d1             	or     %rdx,%rcx
   154da:	0f b6 50 05          	movzbl 0x5(%rax),%edx
   154de:	48 c1 e2 0b          	shl    $0xb,%rdx
   154e2:	48 09 d1             	or     %rdx,%rcx
   154e5:	0f b6 50 06          	movzbl 0x6(%rax),%edx
   154e9:	48 c1 e2 13          	shl    $0x13,%rdx
   154ed:	48 09 ca             	or     %rcx,%rdx
   154f0:	0f b6 40 07          	movzbl 0x7(%rax),%eax
   154f4:	83 e0 07             	and    $0x7,%eax
   154f7:	48 c1 e0 1b          	shl    $0x1b,%rax
   154fb:	48 09 d0             	or     %rdx,%rax
   154fe:	48 c1 e0 22          	shl    $0x22,%rax
   15502:	48 c1 f8 22          	sar    $0x22,%rax
   15506:	48 98                	cltq   
   15508:	8b 55 fc             	mov    -0x4(%rbp),%edx
   1550b:	48 8d 35 9d 3c 00 00 	lea    0x3c9d(%rip),%rsi        # 191af <g_1804+0x1f4f>
   15512:	48 89 c7             	mov    %rax,%rdi
   15515:	e8 d9 21 ff ff       	callq  76f3 <transparent_crc>
   1551a:	8b 45 f4             	mov    -0xc(%rbp),%eax
   1551d:	48 63 d0             	movslq %eax,%rdx
   15520:	8b 45 f0             	mov    -0x10(%rbp),%eax
   15523:	48 63 c8             	movslq %eax,%rcx
   15526:	48 89 d0             	mov    %rdx,%rax
   15529:	48 01 c0             	add    %rax,%rax
   1552c:	48 01 d0             	add    %rdx,%rax
   1552f:	48 c1 e0 03          	shl    $0x3,%rax
   15533:	48 29 d0             	sub    %rdx,%rax
   15536:	48 69 d1 e6 00 00 00 	imul   $0xe6,%rcx,%rdx
   1553d:	48 01 c2             	add    %rax,%rdx
   15540:	48 8d 05 19 1c 00 00 	lea    0x1c19(%rip),%rax        # 17160 <g_1801>
   15547:	48 01 d0             	add    %rdx,%rax
   1554a:	0f b6 50 07          	movzbl 0x7(%rax),%edx
   1554e:	c0 ea 03             	shr    $0x3,%dl
   15551:	0f b6 d2             	movzbl %dl,%edx
   15554:	0f b6 40 08          	movzbl 0x8(%rax),%eax
   15558:	83 e0 07             	and    $0x7,%eax
   1555b:	48 c1 e0 05          	shl    $0x5,%rax
   1555f:	48 09 d0             	or     %rdx,%rax
   15562:	0f b6 c0             	movzbl %al,%eax
   15565:	8b 55 fc             	mov    -0x4(%rbp),%edx
   15568:	48 8d 35 50 3c 00 00 	lea    0x3c50(%rip),%rsi        # 191bf <g_1804+0x1f5f>
   1556f:	48 89 c7             	mov    %rax,%rdi
   15572:	e8 7c 21 ff ff       	callq  76f3 <transparent_crc>
   15577:	8b 45 f4             	mov    -0xc(%rbp),%eax
   1557a:	48 63 d0             	movslq %eax,%rdx
   1557d:	8b 45 f0             	mov    -0x10(%rbp),%eax
   15580:	48 63 c8             	movslq %eax,%rcx
   15583:	48 89 d0             	mov    %rdx,%rax
   15586:	48 01 c0             	add    %rax,%rax
   15589:	48 01 d0             	add    %rdx,%rax
   1558c:	48 c1 e0 03          	shl    $0x3,%rax
   15590:	48 29 d0             	sub    %rdx,%rax
   15593:	48 69 d1 e6 00 00 00 	imul   $0xe6,%rcx,%rdx
   1559a:	48 01 c2             	add    %rax,%rdx
   1559d:	48 8d 05 bc 1b 00 00 	lea    0x1bbc(%rip),%rax        # 17160 <g_1801>
   155a4:	48 01 d0             	add    %rdx,%rax
   155a7:	0f b6 50 08          	movzbl 0x8(%rax),%edx
   155ab:	c0 ea 03             	shr    $0x3,%dl
   155ae:	0f b6 d2             	movzbl %dl,%edx
   155b1:	0f b6 48 09          	movzbl 0x9(%rax),%ecx
   155b5:	0f b6 c9             	movzbl %cl,%ecx
   155b8:	48 c1 e1 05          	shl    $0x5,%rcx
   155bc:	48 09 ca             	or     %rcx,%rdx
   155bf:	0f b6 40 0a          	movzbl 0xa(%rax),%eax
   155c3:	0f b6 c0             	movzbl %al,%eax
   155c6:	83 e0 7f             	and    $0x7f,%eax
   155c9:	48 c1 e0 0d          	shl    $0xd,%rax
   155cd:	48 09 d0             	or     %rdx,%rax
   155d0:	48 c1 e0 2c          	shl    $0x2c,%rax
   155d4:	48 c1 f8 2c          	sar    $0x2c,%rax
   155d8:	48 98                	cltq   
   155da:	8b 55 fc             	mov    -0x4(%rbp),%edx
   155dd:	48 8d 35 eb 3b 00 00 	lea    0x3beb(%rip),%rsi        # 191cf <g_1804+0x1f6f>
   155e4:	48 89 c7             	mov    %rax,%rdi
   155e7:	e8 07 21 ff ff       	callq  76f3 <transparent_crc>
   155ec:	8b 45 f4             	mov    -0xc(%rbp),%eax
   155ef:	48 63 d0             	movslq %eax,%rdx
   155f2:	8b 45 f0             	mov    -0x10(%rbp),%eax
   155f5:	48 63 c8             	movslq %eax,%rcx
   155f8:	48 89 d0             	mov    %rdx,%rax
   155fb:	48 01 c0             	add    %rax,%rax
   155fe:	48 01 d0             	add    %rdx,%rax
   15601:	48 c1 e0 03          	shl    $0x3,%rax
   15605:	48 29 d0             	sub    %rdx,%rax
   15608:	48 69 d1 e6 00 00 00 	imul   $0xe6,%rcx,%rdx
   1560f:	48 01 c2             	add    %rax,%rdx
   15612:	48 8d 05 47 1b 00 00 	lea    0x1b47(%rip),%rax        # 17160 <g_1801>
   15619:	48 01 d0             	add    %rdx,%rax
   1561c:	0f b6 50 0a          	movzbl 0xa(%rax),%edx
   15620:	c0 ea 07             	shr    $0x7,%dl
   15623:	0f b6 d2             	movzbl %dl,%edx
   15626:	0f b6 48 0b          	movzbl 0xb(%rax),%ecx
   1562a:	0f b6 c9             	movzbl %cl,%ecx
   1562d:	48 01 c9             	add    %rcx,%rcx
   15630:	48 09 d1             	or     %rdx,%rcx
   15633:	0f b6 50 0c          	movzbl 0xc(%rax),%edx
   15637:	0f b6 d2             	movzbl %dl,%edx
   1563a:	48 c1 e2 09          	shl    $0x9,%rdx
   1563e:	48 09 ca             	or     %rcx,%rdx
   15641:	0f b6 40 0d          	movzbl 0xd(%rax),%eax
   15645:	0f b6 c0             	movzbl %al,%eax
   15648:	83 e0 03             	and    $0x3,%eax
   1564b:	48 c1 e0 11          	shl    $0x11,%rax
   1564f:	48 09 d0             	or     %rdx,%rax
   15652:	48 c1 e0 2d          	shl    $0x2d,%rax
   15656:	48 c1 f8 2d          	sar    $0x2d,%rax
   1565a:	48 98                	cltq   
   1565c:	8b 55 fc             	mov    -0x4(%rbp),%edx
   1565f:	48 8d 35 79 3b 00 00 	lea    0x3b79(%rip),%rsi        # 191df <g_1804+0x1f7f>
   15666:	48 89 c7             	mov    %rax,%rdi
   15669:	e8 85 20 ff ff       	callq  76f3 <transparent_crc>
   1566e:	8b 45 f4             	mov    -0xc(%rbp),%eax
   15671:	48 63 d0             	movslq %eax,%rdx
   15674:	8b 45 f0             	mov    -0x10(%rbp),%eax
   15677:	48 63 c8             	movslq %eax,%rcx
   1567a:	48 89 d0             	mov    %rdx,%rax
   1567d:	48 01 c0             	add    %rax,%rax
   15680:	48 01 d0             	add    %rdx,%rax
   15683:	48 c1 e0 03          	shl    $0x3,%rax
   15687:	48 29 d0             	sub    %rdx,%rax
   1568a:	48 69 d1 e6 00 00 00 	imul   $0xe6,%rcx,%rdx
   15691:	48 01 c2             	add    %rax,%rdx
   15694:	48 8d 05 c5 1a 00 00 	lea    0x1ac5(%rip),%rax        # 17160 <g_1801>
   1569b:	48 01 d0             	add    %rdx,%rax
   1569e:	0f b6 50 0d          	movzbl 0xd(%rax),%edx
   156a2:	c0 ea 02             	shr    $0x2,%dl
   156a5:	0f b6 d2             	movzbl %dl,%edx
   156a8:	0f b6 48 0e          	movzbl 0xe(%rax),%ecx
   156ac:	48 c1 e1 06          	shl    $0x6,%rcx
   156b0:	48 09 d1             	or     %rdx,%rcx
   156b3:	0f b6 50 0f          	movzbl 0xf(%rax),%edx
   156b7:	48 c1 e2 0e          	shl    $0xe,%rdx
   156bb:	48 09 ca             	or     %rcx,%rdx
   156be:	0f b6 40 10          	movzbl 0x10(%rax),%eax
   156c2:	48 c1 e0 16          	shl    $0x16,%rax
   156c6:	48 09 d0             	or     %rdx,%rax
   156c9:	89 c1                	mov    %eax,%ecx
   156cb:	8b 45 fc             	mov    -0x4(%rbp),%eax
   156ce:	89 c2                	mov    %eax,%edx
   156d0:	48 8d 35 18 3b 00 00 	lea    0x3b18(%rip),%rsi        # 191ef <g_1804+0x1f8f>
   156d7:	48 89 cf             	mov    %rcx,%rdi
   156da:	e8 14 20 ff ff       	callq  76f3 <transparent_crc>
   156df:	8b 45 f4             	mov    -0xc(%rbp),%eax
   156e2:	48 63 d0             	movslq %eax,%rdx
   156e5:	8b 45 f0             	mov    -0x10(%rbp),%eax
   156e8:	48 63 c8             	movslq %eax,%rcx
   156eb:	48 89 d0             	mov    %rdx,%rax
   156ee:	48 01 c0             	add    %rax,%rax
   156f1:	48 01 d0             	add    %rdx,%rax
   156f4:	48 c1 e0 03          	shl    $0x3,%rax
   156f8:	48 29 d0             	sub    %rdx,%rax
   156fb:	48 69 d1 e6 00 00 00 	imul   $0xe6,%rcx,%rdx
   15702:	48 01 c2             	add    %rax,%rdx
   15705:	48 8d 05 64 1a 00 00 	lea    0x1a64(%rip),%rax        # 17170 <g_1801+0x10>
   1570c:	48 01 d0             	add    %rdx,%rax
   1570f:	0f b6 40 01          	movzbl 0x1(%rax),%eax
   15713:	c1 e0 04             	shl    $0x4,%eax
   15716:	c0 f8 04             	sar    $0x4,%al
   15719:	48 0f be c0          	movsbq %al,%rax
   1571d:	8b 55 fc             	mov    -0x4(%rbp),%edx
   15720:	48 8d 35 d8 3a 00 00 	lea    0x3ad8(%rip),%rsi        # 191ff <g_1804+0x1f9f>
   15727:	48 89 c7             	mov    %rax,%rdi
   1572a:	e8 c4 1f ff ff       	callq  76f3 <transparent_crc>
   1572f:	8b 45 f4             	mov    -0xc(%rbp),%eax
   15732:	48 63 d0             	movslq %eax,%rdx
   15735:	8b 45 f0             	mov    -0x10(%rbp),%eax
   15738:	48 63 c8             	movslq %eax,%rcx
   1573b:	48 89 d0             	mov    %rdx,%rax
   1573e:	48 01 c0             	add    %rax,%rax
   15741:	48 01 d0             	add    %rdx,%rax
   15744:	48 c1 e0 03          	shl    $0x3,%rax
   15748:	48 29 d0             	sub    %rdx,%rax
   1574b:	48 69 d1 e6 00 00 00 	imul   $0xe6,%rcx,%rdx
   15752:	48 01 c2             	add    %rax,%rdx
   15755:	48 8d 05 14 1a 00 00 	lea    0x1a14(%rip),%rax        # 17170 <g_1801+0x10>
   1575c:	48 01 d0             	add    %rdx,%rax
   1575f:	0f b6 50 01          	movzbl 0x1(%rax),%edx
   15763:	c0 ea 04             	shr    $0x4,%dl
   15766:	0f b6 d2             	movzbl %dl,%edx
   15769:	0f b6 40 02          	movzbl 0x2(%rax),%eax
   1576d:	83 e0 1f             	and    $0x1f,%eax
   15770:	48 c1 e0 04          	shl    $0x4,%rax
   15774:	48 09 d0             	or     %rdx,%rax
   15777:	48 c1 e0 37          	shl    $0x37,%rax
   1577b:	48 c1 f8 37          	sar    $0x37,%rax
   1577f:	48 0f bf c0          	movswq %ax,%rax
   15783:	8b 55 fc             	mov    -0x4(%rbp),%edx
   15786:	48 8d 35 82 3a 00 00 	lea    0x3a82(%rip),%rsi        # 1920f <g_1804+0x1faf>
   1578d:	48 89 c7             	mov    %rax,%rdi
   15790:	e8 5e 1f ff ff       	callq  76f3 <transparent_crc>
   15795:	8b 45 f4             	mov    -0xc(%rbp),%eax
   15798:	48 63 d0             	movslq %eax,%rdx
   1579b:	8b 45 f0             	mov    -0x10(%rbp),%eax
   1579e:	48 63 c8             	movslq %eax,%rcx
   157a1:	48 89 d0             	mov    %rdx,%rax
   157a4:	48 01 c0             	add    %rax,%rax
   157a7:	48 01 d0             	add    %rdx,%rax
   157aa:	48 c1 e0 03          	shl    $0x3,%rax
   157ae:	48 29 d0             	sub    %rdx,%rax
   157b1:	48 69 d1 e6 00 00 00 	imul   $0xe6,%rcx,%rdx
   157b8:	48 01 c2             	add    %rax,%rdx
   157bb:	48 8d 05 ae 19 00 00 	lea    0x19ae(%rip),%rax        # 17170 <g_1801+0x10>
   157c2:	48 01 d0             	add    %rdx,%rax
   157c5:	0f b6 50 02          	movzbl 0x2(%rax),%edx
   157c9:	c0 ea 05             	shr    $0x5,%dl
   157cc:	0f b6 d2             	movzbl %dl,%edx
   157cf:	0f b6 40 03          	movzbl 0x3(%rax),%eax
   157d3:	83 e0 3f             	and    $0x3f,%eax
   157d6:	48 c1 e0 03          	shl    $0x3,%rax
   157da:	48 09 d0             	or     %rdx,%rax
   157dd:	48 c1 e0 37          	shl    $0x37,%rax
   157e1:	48 c1 f8 37          	sar    $0x37,%rax
   157e5:	48 0f bf c0          	movswq %ax,%rax
   157e9:	8b 55 fc             	mov    -0x4(%rbp),%edx
   157ec:	48 8d 35 2c 3a 00 00 	lea    0x3a2c(%rip),%rsi        # 1921f <g_1804+0x1fbf>
   157f3:	48 89 c7             	mov    %rax,%rdi
   157f6:	e8 f8 1e ff ff       	callq  76f3 <transparent_crc>
   157fb:	8b 45 f4             	mov    -0xc(%rbp),%eax
   157fe:	48 63 d0             	movslq %eax,%rdx
   15801:	8b 45 f0             	mov    -0x10(%rbp),%eax
   15804:	48 63 c8             	movslq %eax,%rcx
   15807:	48 89 d0             	mov    %rdx,%rax
   1580a:	48 01 c0             	add    %rax,%rax
   1580d:	48 01 d0             	add    %rdx,%rax
   15810:	48 c1 e0 03          	shl    $0x3,%rax
   15814:	48 29 d0             	sub    %rdx,%rax
   15817:	48 69 d1 e6 00 00 00 	imul   $0xe6,%rcx,%rdx
   1581e:	48 01 c2             	add    %rax,%rdx
   15821:	48 8d 05 48 19 00 00 	lea    0x1948(%rip),%rax        # 17170 <g_1801+0x10>
   15828:	48 01 d0             	add    %rdx,%rax
   1582b:	0f b6 50 03          	movzbl 0x3(%rax),%edx
   1582f:	c0 ea 06             	shr    $0x6,%dl
   15832:	0f b6 d2             	movzbl %dl,%edx
   15835:	0f b6 48 04          	movzbl 0x4(%rax),%ecx
   15839:	48 c1 e1 02          	shl    $0x2,%rcx
   1583d:	48 09 d1             	or     %rdx,%rcx
   15840:	0f b6 50 05          	movzbl 0x5(%rax),%edx
   15844:	48 c1 e2 0a          	shl    $0xa,%rdx
   15848:	48 09 ca             	or     %rcx,%rdx
   1584b:	0f b6 40 06          	movzbl 0x6(%rax),%eax
   1584f:	83 e0 01             	and    $0x1,%eax
   15852:	48 c1 e0 12          	shl    $0x12,%rax
   15856:	48 09 d0             	or     %rdx,%rax
   15859:	48 c1 e0 2d          	shl    $0x2d,%rax
   1585d:	48 c1 f8 2d          	sar    $0x2d,%rax
   15861:	48 98                	cltq   
   15863:	8b 55 fc             	mov    -0x4(%rbp),%edx
   15866:	48 8d 35 c2 39 00 00 	lea    0x39c2(%rip),%rsi        # 1922f <g_1804+0x1fcf>
   1586d:	48 89 c7             	mov    %rax,%rdi
   15870:	e8 7e 1e ff ff       	callq  76f3 <transparent_crc>
   15875:	83 7d fc 00          	cmpl   $0x0,-0x4(%rbp)
   15879:	74 19                	je     15894 <main+0x1aab>
   1587b:	8b 55 f4             	mov    -0xc(%rbp),%edx
   1587e:	8b 45 f0             	mov    -0x10(%rbp),%eax
   15881:	89 c6                	mov    %eax,%esi
   15883:	48 8d 3d 6b 35 00 00 	lea    0x356b(%rip),%rdi        # 18df5 <g_1804+0x1b95>
   1588a:	b8 00 00 00 00       	mov    $0x0,%eax
   1588f:	e8 ec 07 ff ff       	callq  6080 <printf@plt>
   15894:	83 45 f4 01          	addl   $0x1,-0xc(%rbp)
   15898:	83 7d f4 09          	cmpl   $0x9,-0xc(%rbp)
   1589c:	0f 8e 80 fb ff ff    	jle    15422 <main+0x1639>
   158a2:	83 45 f0 01          	addl   $0x1,-0x10(%rbp)
   158a6:	83 7d f0 00          	cmpl   $0x0,-0x10(%rbp)
   158aa:	0f 8e 66 fb ff ff    	jle    15416 <main+0x162d>
   158b0:	c7 45 f0 00 00 00 00 	movl   $0x0,-0x10(%rbp)
   158b7:	e9 72 04 00 00       	jmpq   15d2e <main+0x1f45>
   158bc:	c7 45 f4 00 00 00 00 	movl   $0x0,-0xc(%rbp)
   158c3:	e9 58 04 00 00       	jmpq   15d20 <main+0x1f37>
   158c8:	8b 45 f4             	mov    -0xc(%rbp),%eax
   158cb:	48 63 d0             	movslq %eax,%rdx
   158ce:	8b 45 f0             	mov    -0x10(%rbp),%eax
   158d1:	48 63 c8             	movslq %eax,%rcx
   158d4:	48 89 d0             	mov    %rdx,%rax
   158d7:	48 01 c0             	add    %rax,%rax
   158da:	48 01 d0             	add    %rdx,%rax
   158dd:	48 c1 e0 03          	shl    $0x3,%rax
   158e1:	48 29 d0             	sub    %rdx,%rax
   158e4:	48 6b d1 73          	imul   $0x73,%rcx,%rdx
   158e8:	48 01 c2             	add    %rax,%rdx
   158eb:	48 8d 05 6e 19 00 00 	lea    0x196e(%rip),%rax        # 17260 <g_1804>
   158f2:	48 01 d0             	add    %rdx,%rax
   158f5:	0f b6 10             	movzbl (%rax),%edx
   158f8:	0f b6 48 01          	movzbl 0x1(%rax),%ecx
   158fc:	48 c1 e1 08          	shl    $0x8,%rcx
   15900:	48 09 d1             	or     %rdx,%rcx
   15903:	0f b6 50 02          	movzbl 0x2(%rax),%edx
   15907:	48 c1 e2 10          	shl    $0x10,%rdx
   1590b:	48 09 ca             	or     %rcx,%rdx
   1590e:	0f b6 40 03          	movzbl 0x3(%rax),%eax
   15912:	83 e0 1f             	and    $0x1f,%eax
   15915:	48 c1 e0 18          	shl    $0x18,%rax
   15919:	48 09 d0             	or     %rdx,%rax
   1591c:	48 c1 e0 23          	shl    $0x23,%rax
   15920:	48 c1 f8 23          	sar    $0x23,%rax
   15924:	48 98                	cltq   
   15926:	8b 55 fc             	mov    -0x4(%rbp),%edx
   15929:	48 8d 35 0f 39 00 00 	lea    0x390f(%rip),%rsi        # 1923f <g_1804+0x1fdf>
   15930:	48 89 c7             	mov    %rax,%rdi
   15933:	e8 bb 1d ff ff       	callq  76f3 <transparent_crc>
   15938:	8b 45 f4             	mov    -0xc(%rbp),%eax
   1593b:	48 63 d0             	movslq %eax,%rdx
   1593e:	8b 45 f0             	mov    -0x10(%rbp),%eax
   15941:	48 63 c8             	movslq %eax,%rcx
   15944:	48 89 d0             	mov    %rdx,%rax
   15947:	48 01 c0             	add    %rax,%rax
   1594a:	48 01 d0             	add    %rdx,%rax
   1594d:	48 c1 e0 03          	shl    $0x3,%rax
   15951:	48 29 d0             	sub    %rdx,%rax
   15954:	48 6b d1 73          	imul   $0x73,%rcx,%rdx
   15958:	48 01 c2             	add    %rax,%rdx
   1595b:	48 8d 05 fe 18 00 00 	lea    0x18fe(%rip),%rax        # 17260 <g_1804>
   15962:	48 01 d0             	add    %rdx,%rax
   15965:	0f b6 50 03          	movzbl 0x3(%rax),%edx
   15969:	c0 ea 05             	shr    $0x5,%dl
   1596c:	0f b6 d2             	movzbl %dl,%edx
   1596f:	0f b6 48 04          	movzbl 0x4(%rax),%ecx
   15973:	48 c1 e1 03          	shl    $0x3,%rcx
   15977:	48 09 d1             	or     %rdx,%rcx
   1597a:	0f b6 50 05          	movzbl 0x5(%rax),%edx
   1597e:	48 c1 e2 0b          	shl    $0xb,%rdx
   15982:	48 09 d1             	or     %rdx,%rcx
   15985:	0f b6 50 06          	movzbl 0x6(%rax),%edx
   15989:	48 c1 e2 13          	shl    $0x13,%rdx
   1598d:	48 09 ca             	or     %rcx,%rdx
   15990:	0f b6 40 07          	movzbl 0x7(%rax),%eax
   15994:	83 e0 07             	and    $0x7,%eax
   15997:	48 c1 e0 1b          	shl    $0x1b,%rax
   1599b:	48 09 d0             	or     %rdx,%rax
   1599e:	48 c1 e0 22          	shl    $0x22,%rax
   159a2:	48 c1 f8 22          	sar    $0x22,%rax
   159a6:	48 98                	cltq   
   159a8:	8b 55 fc             	mov    -0x4(%rbp),%edx
   159ab:	48 8d 35 9d 38 00 00 	lea    0x389d(%rip),%rsi        # 1924f <g_1804+0x1fef>
   159b2:	48 89 c7             	mov    %rax,%rdi
   159b5:	e8 39 1d ff ff       	callq  76f3 <transparent_crc>
   159ba:	8b 45 f4             	mov    -0xc(%rbp),%eax
   159bd:	48 63 d0             	movslq %eax,%rdx
   159c0:	8b 45 f0             	mov    -0x10(%rbp),%eax
   159c3:	48 63 c8             	movslq %eax,%rcx
   159c6:	48 89 d0             	mov    %rdx,%rax
   159c9:	48 01 c0             	add    %rax,%rax
   159cc:	48 01 d0             	add    %rdx,%rax
   159cf:	48 c1 e0 03          	shl    $0x3,%rax
   159d3:	48 29 d0             	sub    %rdx,%rax
   159d6:	48 6b d1 73          	imul   $0x73,%rcx,%rdx
   159da:	48 01 c2             	add    %rax,%rdx
   159dd:	48 8d 05 7c 18 00 00 	lea    0x187c(%rip),%rax        # 17260 <g_1804>
   159e4:	48 01 d0             	add    %rdx,%rax
   159e7:	0f b6 50 07          	movzbl 0x7(%rax),%edx
   159eb:	c0 ea 03             	shr    $0x3,%dl
   159ee:	0f b6 d2             	movzbl %dl,%edx
   159f1:	0f b6 40 08          	movzbl 0x8(%rax),%eax
   159f5:	83 e0 07             	and    $0x7,%eax
   159f8:	48 c1 e0 05          	shl    $0x5,%rax
   159fc:	48 09 d0             	or     %rdx,%rax
   159ff:	0f b6 c0             	movzbl %al,%eax
   15a02:	8b 55 fc             	mov    -0x4(%rbp),%edx
   15a05:	48 8d 35 53 38 00 00 	lea    0x3853(%rip),%rsi        # 1925f <g_1804+0x1fff>
   15a0c:	48 89 c7             	mov    %rax,%rdi
   15a0f:	e8 df 1c ff ff       	callq  76f3 <transparent_crc>
   15a14:	8b 45 f4             	mov    -0xc(%rbp),%eax
   15a17:	48 63 d0             	movslq %eax,%rdx
   15a1a:	8b 45 f0             	mov    -0x10(%rbp),%eax
   15a1d:	48 63 c8             	movslq %eax,%rcx
   15a20:	48 89 d0             	mov    %rdx,%rax
   15a23:	48 01 c0             	add    %rax,%rax
   15a26:	48 01 d0             	add    %rdx,%rax
   15a29:	48 c1 e0 03          	shl    $0x3,%rax
   15a2d:	48 29 d0             	sub    %rdx,%rax
   15a30:	48 6b d1 73          	imul   $0x73,%rcx,%rdx
   15a34:	48 01 c2             	add    %rax,%rdx
   15a37:	48 8d 05 22 18 00 00 	lea    0x1822(%rip),%rax        # 17260 <g_1804>
   15a3e:	48 01 d0             	add    %rdx,%rax
   15a41:	0f b6 50 08          	movzbl 0x8(%rax),%edx
   15a45:	c0 ea 03             	shr    $0x3,%dl
   15a48:	0f b6 d2             	movzbl %dl,%edx
   15a4b:	0f b6 48 09          	movzbl 0x9(%rax),%ecx
   15a4f:	0f b6 c9             	movzbl %cl,%ecx
   15a52:	48 c1 e1 05          	shl    $0x5,%rcx
   15a56:	48 09 ca             	or     %rcx,%rdx
   15a59:	0f b6 40 0a          	movzbl 0xa(%rax),%eax
   15a5d:	0f b6 c0             	movzbl %al,%eax
   15a60:	83 e0 7f             	and    $0x7f,%eax
   15a63:	48 c1 e0 0d          	shl    $0xd,%rax
   15a67:	48 09 d0             	or     %rdx,%rax
   15a6a:	48 c1 e0 2c          	shl    $0x2c,%rax
   15a6e:	48 c1 f8 2c          	sar    $0x2c,%rax
   15a72:	48 98                	cltq   
   15a74:	8b 55 fc             	mov    -0x4(%rbp),%edx
   15a77:	48 8d 35 f1 37 00 00 	lea    0x37f1(%rip),%rsi        # 1926f <g_1804+0x200f>
   15a7e:	48 89 c7             	mov    %rax,%rdi
   15a81:	e8 6d 1c ff ff       	callq  76f3 <transparent_crc>
   15a86:	8b 45 f4             	mov    -0xc(%rbp),%eax
   15a89:	48 63 d0             	movslq %eax,%rdx
   15a8c:	8b 45 f0             	mov    -0x10(%rbp),%eax
   15a8f:	48 63 c8             	movslq %eax,%rcx
   15a92:	48 89 d0             	mov    %rdx,%rax
   15a95:	48 01 c0             	add    %rax,%rax
   15a98:	48 01 d0             	add    %rdx,%rax
   15a9b:	48 c1 e0 03          	shl    $0x3,%rax
   15a9f:	48 29 d0             	sub    %rdx,%rax
   15aa2:	48 6b d1 73          	imul   $0x73,%rcx,%rdx
   15aa6:	48 01 c2             	add    %rax,%rdx
   15aa9:	48 8d 05 b0 17 00 00 	lea    0x17b0(%rip),%rax        # 17260 <g_1804>
   15ab0:	48 01 d0             	add    %rdx,%rax
   15ab3:	0f b6 50 0a          	movzbl 0xa(%rax),%edx
   15ab7:	c0 ea 07             	shr    $0x7,%dl
   15aba:	0f b6 d2             	movzbl %dl,%edx
   15abd:	0f b6 48 0b          	movzbl 0xb(%rax),%ecx
   15ac1:	0f b6 c9             	movzbl %cl,%ecx
   15ac4:	48 01 c9             	add    %rcx,%rcx
   15ac7:	48 09 d1             	or     %rdx,%rcx
   15aca:	0f b6 50 0c          	movzbl 0xc(%rax),%edx
   15ace:	0f b6 d2             	movzbl %dl,%edx
   15ad1:	48 c1 e2 09          	shl    $0x9,%rdx
   15ad5:	48 09 ca             	or     %rcx,%rdx
   15ad8:	0f b6 40 0d          	movzbl 0xd(%rax),%eax
   15adc:	0f b6 c0             	movzbl %al,%eax
   15adf:	83 e0 03             	and    $0x3,%eax
   15ae2:	48 c1 e0 11          	shl    $0x11,%rax
   15ae6:	48 09 d0             	or     %rdx,%rax
   15ae9:	48 c1 e0 2d          	shl    $0x2d,%rax
   15aed:	48 c1 f8 2d          	sar    $0x2d,%rax
   15af1:	48 98                	cltq   
   15af3:	8b 55 fc             	mov    -0x4(%rbp),%edx
   15af6:	48 8d 35 82 37 00 00 	lea    0x3782(%rip),%rsi        # 1927f <g_1804+0x201f>
   15afd:	48 89 c7             	mov    %rax,%rdi
   15b00:	e8 ee 1b ff ff       	callq  76f3 <transparent_crc>
   15b05:	8b 45 f4             	mov    -0xc(%rbp),%eax
   15b08:	48 63 d0             	movslq %eax,%rdx
   15b0b:	8b 45 f0             	mov    -0x10(%rbp),%eax
   15b0e:	48 63 c8             	movslq %eax,%rcx
   15b11:	48 89 d0             	mov    %rdx,%rax
   15b14:	48 01 c0             	add    %rax,%rax
   15b17:	48 01 d0             	add    %rdx,%rax
   15b1a:	48 c1 e0 03          	shl    $0x3,%rax
   15b1e:	48 29 d0             	sub    %rdx,%rax
   15b21:	48 6b d1 73          	imul   $0x73,%rcx,%rdx
   15b25:	48 01 c2             	add    %rax,%rdx
   15b28:	48 8d 05 31 17 00 00 	lea    0x1731(%rip),%rax        # 17260 <g_1804>
   15b2f:	48 01 d0             	add    %rdx,%rax
   15b32:	0f b6 50 0d          	movzbl 0xd(%rax),%edx
   15b36:	c0 ea 02             	shr    $0x2,%dl
   15b39:	0f b6 d2             	movzbl %dl,%edx
   15b3c:	0f b6 48 0e          	movzbl 0xe(%rax),%ecx
   15b40:	48 c1 e1 06          	shl    $0x6,%rcx
   15b44:	48 09 d1             	or     %rdx,%rcx
   15b47:	0f b6 50 0f          	movzbl 0xf(%rax),%edx
   15b4b:	48 c1 e2 0e          	shl    $0xe,%rdx
   15b4f:	48 09 ca             	or     %rcx,%rdx
   15b52:	0f b6 40 10          	movzbl 0x10(%rax),%eax
   15b56:	48 c1 e0 16          	shl    $0x16,%rax
   15b5a:	48 09 d0             	or     %rdx,%rax
   15b5d:	89 c1                	mov    %eax,%ecx
   15b5f:	8b 45 fc             	mov    -0x4(%rbp),%eax
   15b62:	89 c2                	mov    %eax,%edx
   15b64:	48 8d 35 24 37 00 00 	lea    0x3724(%rip),%rsi        # 1928f <g_1804+0x202f>
   15b6b:	48 89 cf             	mov    %rcx,%rdi
   15b6e:	e8 80 1b ff ff       	callq  76f3 <transparent_crc>
   15b73:	8b 45 f4             	mov    -0xc(%rbp),%eax
   15b76:	48 63 d0             	movslq %eax,%rdx
   15b79:	8b 45 f0             	mov    -0x10(%rbp),%eax
   15b7c:	48 63 c8             	movslq %eax,%rcx
   15b7f:	48 89 d0             	mov    %rdx,%rax
   15b82:	48 01 c0             	add    %rax,%rax
   15b85:	48 01 d0             	add    %rdx,%rax
   15b88:	48 c1 e0 03          	shl    $0x3,%rax
   15b8c:	48 29 d0             	sub    %rdx,%rax
   15b8f:	48 6b d1 73          	imul   $0x73,%rcx,%rdx
   15b93:	48 01 c2             	add    %rax,%rdx
   15b96:	48 8d 05 d3 16 00 00 	lea    0x16d3(%rip),%rax        # 17270 <g_1804+0x10>
   15b9d:	48 01 d0             	add    %rdx,%rax
   15ba0:	0f b6 40 01          	movzbl 0x1(%rax),%eax
   15ba4:	c1 e0 04             	shl    $0x4,%eax
   15ba7:	c0 f8 04             	sar    $0x4,%al
   15baa:	48 0f be c0          	movsbq %al,%rax
   15bae:	8b 55 fc             	mov    -0x4(%rbp),%edx
   15bb1:	48 8d 35 e7 36 00 00 	lea    0x36e7(%rip),%rsi        # 1929f <g_1804+0x203f>
   15bb8:	48 89 c7             	mov    %rax,%rdi
   15bbb:	e8 33 1b ff ff       	callq  76f3 <transparent_crc>
   15bc0:	8b 45 f4             	mov    -0xc(%rbp),%eax
   15bc3:	48 63 d0             	movslq %eax,%rdx
   15bc6:	8b 45 f0             	mov    -0x10(%rbp),%eax
   15bc9:	48 63 c8             	movslq %eax,%rcx
   15bcc:	48 89 d0             	mov    %rdx,%rax
   15bcf:	48 01 c0             	add    %rax,%rax
   15bd2:	48 01 d0             	add    %rdx,%rax
   15bd5:	48 c1 e0 03          	shl    $0x3,%rax
   15bd9:	48 29 d0             	sub    %rdx,%rax
   15bdc:	48 6b d1 73          	imul   $0x73,%rcx,%rdx
   15be0:	48 01 c2             	add    %rax,%rdx
   15be3:	48 8d 05 86 16 00 00 	lea    0x1686(%rip),%rax        # 17270 <g_1804+0x10>
   15bea:	48 01 d0             	add    %rdx,%rax
   15bed:	0f b6 50 01          	movzbl 0x1(%rax),%edx
   15bf1:	c0 ea 04             	shr    $0x4,%dl
   15bf4:	0f b6 d2             	movzbl %dl,%edx
   15bf7:	0f b6 40 02          	movzbl 0x2(%rax),%eax
   15bfb:	83 e0 1f             	and    $0x1f,%eax
   15bfe:	48 c1 e0 04          	shl    $0x4,%rax
   15c02:	48 09 d0             	or     %rdx,%rax
   15c05:	48 c1 e0 37          	shl    $0x37,%rax
   15c09:	48 c1 f8 37          	sar    $0x37,%rax
   15c0d:	48 0f bf c0          	movswq %ax,%rax
   15c11:	8b 55 fc             	mov    -0x4(%rbp),%edx
   15c14:	48 8d 35 94 36 00 00 	lea    0x3694(%rip),%rsi        # 192af <g_1804+0x204f>
   15c1b:	48 89 c7             	mov    %rax,%rdi
   15c1e:	e8 d0 1a ff ff       	callq  76f3 <transparent_crc>
   15c23:	8b 45 f4             	mov    -0xc(%rbp),%eax
   15c26:	48 63 d0             	movslq %eax,%rdx
   15c29:	8b 45 f0             	mov    -0x10(%rbp),%eax
   15c2c:	48 63 c8             	movslq %eax,%rcx
   15c2f:	48 89 d0             	mov    %rdx,%rax
   15c32:	48 01 c0             	add    %rax,%rax
   15c35:	48 01 d0             	add    %rdx,%rax
   15c38:	48 c1 e0 03          	shl    $0x3,%rax
   15c3c:	48 29 d0             	sub    %rdx,%rax
   15c3f:	48 6b d1 73          	imul   $0x73,%rcx,%rdx
   15c43:	48 01 c2             	add    %rax,%rdx
   15c46:	48 8d 05 23 16 00 00 	lea    0x1623(%rip),%rax        # 17270 <g_1804+0x10>
   15c4d:	48 01 d0             	add    %rdx,%rax
   15c50:	0f b6 50 02          	movzbl 0x2(%rax),%edx
   15c54:	c0 ea 05             	shr    $0x5,%dl
   15c57:	0f b6 d2             	movzbl %dl,%edx
   15c5a:	0f b6 40 03          	movzbl 0x3(%rax),%eax
   15c5e:	83 e0 3f             	and    $0x3f,%eax
   15c61:	48 c1 e0 03          	shl    $0x3,%rax
   15c65:	48 09 d0             	or     %rdx,%rax
   15c68:	48 c1 e0 37          	shl    $0x37,%rax
   15c6c:	48 c1 f8 37          	sar    $0x37,%rax
   15c70:	48 0f bf c0          	movswq %ax,%rax
   15c74:	8b 55 fc             	mov    -0x4(%rbp),%edx
   15c77:	48 8d 35 41 36 00 00 	lea    0x3641(%rip),%rsi        # 192bf <g_1804+0x205f>
   15c7e:	48 89 c7             	mov    %rax,%rdi
   15c81:	e8 6d 1a ff ff       	callq  76f3 <transparent_crc>
   15c86:	8b 45 f4             	mov    -0xc(%rbp),%eax
   15c89:	48 63 d0             	movslq %eax,%rdx
   15c8c:	8b 45 f0             	mov    -0x10(%rbp),%eax
   15c8f:	48 63 c8             	movslq %eax,%rcx
   15c92:	48 89 d0             	mov    %rdx,%rax
   15c95:	48 01 c0             	add    %rax,%rax
   15c98:	48 01 d0             	add    %rdx,%rax
   15c9b:	48 c1 e0 03          	shl    $0x3,%rax
   15c9f:	48 29 d0             	sub    %rdx,%rax
   15ca2:	48 6b d1 73          	imul   $0x73,%rcx,%rdx
   15ca6:	48 01 c2             	add    %rax,%rdx
   15ca9:	48 8d 05 c0 15 00 00 	lea    0x15c0(%rip),%rax        # 17270 <g_1804+0x10>
   15cb0:	48 01 d0             	add    %rdx,%rax
   15cb3:	0f b6 50 03          	movzbl 0x3(%rax),%edx
   15cb7:	c0 ea 06             	shr    $0x6,%dl
   15cba:	0f b6 d2             	movzbl %dl,%edx
   15cbd:	0f b6 48 04          	movzbl 0x4(%rax),%ecx
   15cc1:	48 c1 e1 02          	shl    $0x2,%rcx
   15cc5:	48 09 d1             	or     %rdx,%rcx
   15cc8:	0f b6 50 05          	movzbl 0x5(%rax),%edx
   15ccc:	48 c1 e2 0a          	shl    $0xa,%rdx
   15cd0:	48 09 ca             	or     %rcx,%rdx
   15cd3:	0f b6 40 06          	movzbl 0x6(%rax),%eax
   15cd7:	83 e0 01             	and    $0x1,%eax
   15cda:	48 c1 e0 12          	shl    $0x12,%rax
   15cde:	48 09 d0             	or     %rdx,%rax
   15ce1:	48 c1 e0 2d          	shl    $0x2d,%rax
   15ce5:	48 c1 f8 2d          	sar    $0x2d,%rax
   15ce9:	48 98                	cltq   
   15ceb:	8b 55 fc             	mov    -0x4(%rbp),%edx
   15cee:	48 8d 35 da 35 00 00 	lea    0x35da(%rip),%rsi        # 192cf <g_1804+0x206f>
   15cf5:	48 89 c7             	mov    %rax,%rdi
   15cf8:	e8 f6 19 ff ff       	callq  76f3 <transparent_crc>
   15cfd:	83 7d fc 00          	cmpl   $0x0,-0x4(%rbp)
   15d01:	74 19                	je     15d1c <main+0x1f33>
   15d03:	8b 55 f4             	mov    -0xc(%rbp),%edx
   15d06:	8b 45 f0             	mov    -0x10(%rbp),%eax
   15d09:	89 c6                	mov    %eax,%esi
   15d0b:	48 8d 3d e3 30 00 00 	lea    0x30e3(%rip),%rdi        # 18df5 <g_1804+0x1b95>
   15d12:	b8 00 00 00 00       	mov    $0x0,%eax
   15d17:	e8 64 03 ff ff       	callq  6080 <printf@plt>
   15d1c:	83 45 f4 01          	addl   $0x1,-0xc(%rbp)
   15d20:	83 7d f4 04          	cmpl   $0x4,-0xc(%rbp)
   15d24:	0f 8e 9e fb ff ff    	jle    158c8 <main+0x1adf>
   15d2a:	83 45 f0 01          	addl   $0x1,-0x10(%rbp)
   15d2e:	83 7d f0 02          	cmpl   $0x2,-0x10(%rbp)
   15d32:	0f 8e 84 fb ff ff    	jle    158bc <main+0x1ad3>
   15d38:	48 8b 05 49 81 00 00 	mov    0x8149(%rip),%rax        # 1de88 <g_1870>
   15d3f:	48 89 c1             	mov    %rax,%rcx
   15d42:	8b 45 fc             	mov    -0x4(%rbp),%eax
   15d45:	89 c2                	mov    %eax,%edx
   15d47:	48 8d 35 91 35 00 00 	lea    0x3591(%rip),%rsi        # 192df <g_1804+0x207f>
   15d4e:	48 89 cf             	mov    %rcx,%rdi
   15d51:	e8 9d 19 ff ff       	callq  76f3 <transparent_crc>
   15d56:	c7 45 f0 00 00 00 00 	movl   $0x0,-0x10(%rbp)
   15d5d:	e9 af 05 00 00       	jmpq   16311 <main+0x2528>
   15d62:	c7 45 f4 00 00 00 00 	movl   $0x0,-0xc(%rbp)
   15d69:	e9 95 05 00 00       	jmpq   16303 <main+0x251a>
   15d6e:	c7 45 f8 00 00 00 00 	movl   $0x0,-0x8(%rbp)
   15d75:	e9 7b 05 00 00       	jmpq   162f5 <main+0x250c>
   15d7a:	8b 45 f8             	mov    -0x8(%rbp),%eax
   15d7d:	48 98                	cltq   
   15d7f:	8b 55 f4             	mov    -0xc(%rbp),%edx
   15d82:	48 63 ca             	movslq %edx,%rcx
   15d85:	8b 55 f0             	mov    -0x10(%rbp),%edx
   15d88:	48 63 f2             	movslq %edx,%rsi
   15d8b:	48 89 c2             	mov    %rax,%rdx
   15d8e:	48 01 d2             	add    %rdx,%rdx
   15d91:	48 01 c2             	add    %rax,%rdx
   15d94:	48 c1 e2 03          	shl    $0x3,%rdx
   15d98:	48 29 c2             	sub    %rax,%rdx
   15d9b:	48 89 c8             	mov    %rcx,%rax
   15d9e:	48 c1 e0 04          	shl    $0x4,%rax
   15da2:	48 01 c8             	add    %rcx,%rax
   15da5:	48 c1 e0 02          	shl    $0x2,%rax
   15da9:	48 01 c8             	add    %rcx,%rax
   15dac:	48 01 c2             	add    %rax,%rdx
   15daf:	48 69 c6 6d 02 00 00 	imul   $0x26d,%rsi,%rax
   15db6:	48 01 c2             	add    %rax,%rdx
   15db9:	48 8d 05 e0 80 00 00 	lea    0x80e0(%rip),%rax        # 1dea0 <g_2003>
   15dc0:	48 01 d0             	add    %rdx,%rax
   15dc3:	0f b6 10             	movzbl (%rax),%edx
   15dc6:	0f b6 48 01          	movzbl 0x1(%rax),%ecx
   15dca:	48 c1 e1 08          	shl    $0x8,%rcx
   15dce:	48 09 d1             	or     %rdx,%rcx
   15dd1:	0f b6 50 02          	movzbl 0x2(%rax),%edx
   15dd5:	48 c1 e2 10          	shl    $0x10,%rdx
   15dd9:	48 09 ca             	or     %rcx,%rdx
   15ddc:	0f b6 40 03          	movzbl 0x3(%rax),%eax
   15de0:	83 e0 1f             	and    $0x1f,%eax
   15de3:	48 c1 e0 18          	shl    $0x18,%rax
   15de7:	48 09 d0             	or     %rdx,%rax
   15dea:	48 c1 e0 23          	shl    $0x23,%rax
   15dee:	48 c1 f8 23          	sar    $0x23,%rax
   15df2:	48 98                	cltq   
   15df4:	8b 55 fc             	mov    -0x4(%rbp),%edx
   15df7:	48 8d 35 e8 34 00 00 	lea    0x34e8(%rip),%rsi        # 192e6 <g_1804+0x2086>
   15dfe:	48 89 c7             	mov    %rax,%rdi
   15e01:	e8 ed 18 ff ff       	callq  76f3 <transparent_crc>
   15e06:	8b 45 f8             	mov    -0x8(%rbp),%eax
   15e09:	48 98                	cltq   
   15e0b:	8b 55 f4             	mov    -0xc(%rbp),%edx
   15e0e:	48 63 ca             	movslq %edx,%rcx
   15e11:	8b 55 f0             	mov    -0x10(%rbp),%edx
   15e14:	48 63 f2             	movslq %edx,%rsi
   15e17:	48 89 c2             	mov    %rax,%rdx
   15e1a:	48 01 d2             	add    %rdx,%rdx
   15e1d:	48 01 c2             	add    %rax,%rdx
   15e20:	48 c1 e2 03          	shl    $0x3,%rdx
   15e24:	48 29 c2             	sub    %rax,%rdx
   15e27:	48 89 c8             	mov    %rcx,%rax
   15e2a:	48 c1 e0 04          	shl    $0x4,%rax
   15e2e:	48 01 c8             	add    %rcx,%rax
   15e31:	48 c1 e0 02          	shl    $0x2,%rax
   15e35:	48 01 c8             	add    %rcx,%rax
   15e38:	48 01 c2             	add    %rax,%rdx
   15e3b:	48 69 c6 6d 02 00 00 	imul   $0x26d,%rsi,%rax
   15e42:	48 01 c2             	add    %rax,%rdx
   15e45:	48 8d 05 54 80 00 00 	lea    0x8054(%rip),%rax        # 1dea0 <g_2003>
   15e4c:	48 01 d0             	add    %rdx,%rax
   15e4f:	0f b6 50 03          	movzbl 0x3(%rax),%edx
   15e53:	c0 ea 05             	shr    $0x5,%dl
   15e56:	0f b6 d2             	movzbl %dl,%edx
   15e59:	0f b6 48 04          	movzbl 0x4(%rax),%ecx
   15e5d:	48 c1 e1 03          	shl    $0x3,%rcx
   15e61:	48 09 d1             	or     %rdx,%rcx
   15e64:	0f b6 50 05          	movzbl 0x5(%rax),%edx
   15e68:	48 c1 e2 0b          	shl    $0xb,%rdx
   15e6c:	48 09 d1             	or     %rdx,%rcx
   15e6f:	0f b6 50 06          	movzbl 0x6(%rax),%edx
   15e73:	48 c1 e2 13          	shl    $0x13,%rdx
   15e77:	48 09 ca             	or     %rcx,%rdx
   15e7a:	0f b6 40 07          	movzbl 0x7(%rax),%eax
   15e7e:	83 e0 07             	and    $0x7,%eax
   15e81:	48 c1 e0 1b          	shl    $0x1b,%rax
   15e85:	48 09 d0             	or     %rdx,%rax
   15e88:	48 c1 e0 22          	shl    $0x22,%rax
   15e8c:	48 c1 f8 22          	sar    $0x22,%rax
   15e90:	48 98                	cltq   
   15e92:	8b 55 fc             	mov    -0x4(%rbp),%edx
   15e95:	48 8d 35 5d 34 00 00 	lea    0x345d(%rip),%rsi        # 192f9 <g_1804+0x2099>
   15e9c:	48 89 c7             	mov    %rax,%rdi
   15e9f:	e8 4f 18 ff ff       	callq  76f3 <transparent_crc>
   15ea4:	8b 45 f8             	mov    -0x8(%rbp),%eax
   15ea7:	48 98                	cltq   
   15ea9:	8b 55 f4             	mov    -0xc(%rbp),%edx
   15eac:	48 63 ca             	movslq %edx,%rcx
   15eaf:	8b 55 f0             	mov    -0x10(%rbp),%edx
   15eb2:	48 63 f2             	movslq %edx,%rsi
   15eb5:	48 89 c2             	mov    %rax,%rdx
   15eb8:	48 01 d2             	add    %rdx,%rdx
   15ebb:	48 01 c2             	add    %rax,%rdx
   15ebe:	48 c1 e2 03          	shl    $0x3,%rdx
   15ec2:	48 29 c2             	sub    %rax,%rdx
   15ec5:	48 89 c8             	mov    %rcx,%rax
   15ec8:	48 c1 e0 04          	shl    $0x4,%rax
   15ecc:	48 01 c8             	add    %rcx,%rax
   15ecf:	48 c1 e0 02          	shl    $0x2,%rax
   15ed3:	48 01 c8             	add    %rcx,%rax
   15ed6:	48 01 c2             	add    %rax,%rdx
   15ed9:	48 69 c6 6d 02 00 00 	imul   $0x26d,%rsi,%rax
   15ee0:	48 01 c2             	add    %rax,%rdx
   15ee3:	48 8d 05 b6 7f 00 00 	lea    0x7fb6(%rip),%rax        # 1dea0 <g_2003>
   15eea:	48 01 d0             	add    %rdx,%rax
   15eed:	0f b6 50 07          	movzbl 0x7(%rax),%edx
   15ef1:	c0 ea 03             	shr    $0x3,%dl
   15ef4:	0f b6 d2             	movzbl %dl,%edx
   15ef7:	0f b6 40 08          	movzbl 0x8(%rax),%eax
   15efb:	83 e0 07             	and    $0x7,%eax
   15efe:	48 c1 e0 05          	shl    $0x5,%rax
   15f02:	48 09 d0             	or     %rdx,%rax
   15f05:	0f b6 c0             	movzbl %al,%eax
   15f08:	8b 55 fc             	mov    -0x4(%rbp),%edx
   15f0b:	48 8d 35 fa 33 00 00 	lea    0x33fa(%rip),%rsi        # 1930c <g_1804+0x20ac>
   15f12:	48 89 c7             	mov    %rax,%rdi
   15f15:	e8 d9 17 ff ff       	callq  76f3 <transparent_crc>
   15f1a:	8b 45 f8             	mov    -0x8(%rbp),%eax
   15f1d:	48 98                	cltq   
   15f1f:	8b 55 f4             	mov    -0xc(%rbp),%edx
   15f22:	48 63 ca             	movslq %edx,%rcx
   15f25:	8b 55 f0             	mov    -0x10(%rbp),%edx
   15f28:	48 63 f2             	movslq %edx,%rsi
   15f2b:	48 89 c2             	mov    %rax,%rdx
   15f2e:	48 01 d2             	add    %rdx,%rdx
   15f31:	48 01 c2             	add    %rax,%rdx
   15f34:	48 c1 e2 03          	shl    $0x3,%rdx
   15f38:	48 29 c2             	sub    %rax,%rdx
   15f3b:	48 89 c8             	mov    %rcx,%rax
   15f3e:	48 c1 e0 04          	shl    $0x4,%rax
   15f42:	48 01 c8             	add    %rcx,%rax
   15f45:	48 c1 e0 02          	shl    $0x2,%rax
   15f49:	48 01 c8             	add    %rcx,%rax
   15f4c:	48 01 c2             	add    %rax,%rdx
   15f4f:	48 69 c6 6d 02 00 00 	imul   $0x26d,%rsi,%rax
   15f56:	48 01 c2             	add    %rax,%rdx
   15f59:	48 8d 05 40 7f 00 00 	lea    0x7f40(%rip),%rax        # 1dea0 <g_2003>
   15f60:	48 01 d0             	add    %rdx,%rax
   15f63:	0f b6 50 08          	movzbl 0x8(%rax),%edx
   15f67:	c0 ea 03             	shr    $0x3,%dl
   15f6a:	0f b6 d2             	movzbl %dl,%edx
   15f6d:	0f b6 48 09          	movzbl 0x9(%rax),%ecx
   15f71:	0f b6 c9             	movzbl %cl,%ecx
   15f74:	48 c1 e1 05          	shl    $0x5,%rcx
   15f78:	48 09 ca             	or     %rcx,%rdx
   15f7b:	0f b6 40 0a          	movzbl 0xa(%rax),%eax
   15f7f:	0f b6 c0             	movzbl %al,%eax
   15f82:	83 e0 7f             	and    $0x7f,%eax
   15f85:	48 c1 e0 0d          	shl    $0xd,%rax
   15f89:	48 09 d0             	or     %rdx,%rax
   15f8c:	48 c1 e0 2c          	shl    $0x2c,%rax
   15f90:	48 c1 f8 2c          	sar    $0x2c,%rax
   15f94:	48 98                	cltq   
   15f96:	8b 55 fc             	mov    -0x4(%rbp),%edx
   15f99:	48 8d 35 7f 33 00 00 	lea    0x337f(%rip),%rsi        # 1931f <g_1804+0x20bf>
   15fa0:	48 89 c7             	mov    %rax,%rdi
   15fa3:	e8 4b 17 ff ff       	callq  76f3 <transparent_crc>
   15fa8:	8b 45 f8             	mov    -0x8(%rbp),%eax
   15fab:	48 98                	cltq   
   15fad:	8b 55 f4             	mov    -0xc(%rbp),%edx
   15fb0:	48 63 ca             	movslq %edx,%rcx
   15fb3:	8b 55 f0             	mov    -0x10(%rbp),%edx
   15fb6:	48 63 f2             	movslq %edx,%rsi
   15fb9:	48 89 c2             	mov    %rax,%rdx
   15fbc:	48 01 d2             	add    %rdx,%rdx
   15fbf:	48 01 c2             	add    %rax,%rdx
   15fc2:	48 c1 e2 03          	shl    $0x3,%rdx
   15fc6:	48 29 c2             	sub    %rax,%rdx
   15fc9:	48 89 c8             	mov    %rcx,%rax
   15fcc:	48 c1 e0 04          	shl    $0x4,%rax
   15fd0:	48 01 c8             	add    %rcx,%rax
   15fd3:	48 c1 e0 02          	shl    $0x2,%rax
   15fd7:	48 01 c8             	add    %rcx,%rax
   15fda:	48 01 c2             	add    %rax,%rdx
   15fdd:	48 69 c6 6d 02 00 00 	imul   $0x26d,%rsi,%rax
   15fe4:	48 01 c2             	add    %rax,%rdx
   15fe7:	48 8d 05 b2 7e 00 00 	lea    0x7eb2(%rip),%rax        # 1dea0 <g_2003>
   15fee:	48 01 d0             	add    %rdx,%rax
   15ff1:	0f b6 50 0a          	movzbl 0xa(%rax),%edx
   15ff5:	c0 ea 07             	shr    $0x7,%dl
   15ff8:	0f b6 d2             	movzbl %dl,%edx
   15ffb:	0f b6 48 0b          	movzbl 0xb(%rax),%ecx
   15fff:	0f b6 c9             	movzbl %cl,%ecx
   16002:	48 01 c9             	add    %rcx,%rcx
   16005:	48 09 d1             	or     %rdx,%rcx
   16008:	0f b6 50 0c          	movzbl 0xc(%rax),%edx
   1600c:	0f b6 d2             	movzbl %dl,%edx
   1600f:	48 c1 e2 09          	shl    $0x9,%rdx
   16013:	48 09 ca             	or     %rcx,%rdx
   16016:	0f b6 40 0d          	movzbl 0xd(%rax),%eax
   1601a:	0f b6 c0             	movzbl %al,%eax
   1601d:	83 e0 03             	and    $0x3,%eax
   16020:	48 c1 e0 11          	shl    $0x11,%rax
   16024:	48 09 d0             	or     %rdx,%rax
   16027:	48 c1 e0 2d          	shl    $0x2d,%rax
   1602b:	48 c1 f8 2d          	sar    $0x2d,%rax
   1602f:	48 98                	cltq   
   16031:	8b 55 fc             	mov    -0x4(%rbp),%edx
   16034:	48 8d 35 f7 32 00 00 	lea    0x32f7(%rip),%rsi        # 19332 <g_1804+0x20d2>
   1603b:	48 89 c7             	mov    %rax,%rdi
   1603e:	e8 b0 16 ff ff       	callq  76f3 <transparent_crc>
   16043:	8b 45 f8             	mov    -0x8(%rbp),%eax
   16046:	48 98                	cltq   
   16048:	8b 55 f4             	mov    -0xc(%rbp),%edx
   1604b:	48 63 ca             	movslq %edx,%rcx
   1604e:	8b 55 f0             	mov    -0x10(%rbp),%edx
   16051:	48 63 f2             	movslq %edx,%rsi
   16054:	48 89 c2             	mov    %rax,%rdx
   16057:	48 01 d2             	add    %rdx,%rdx
   1605a:	48 01 c2             	add    %rax,%rdx
   1605d:	48 c1 e2 03          	shl    $0x3,%rdx
   16061:	48 29 c2             	sub    %rax,%rdx
   16064:	48 89 c8             	mov    %rcx,%rax
   16067:	48 c1 e0 04          	shl    $0x4,%rax
   1606b:	48 01 c8             	add    %rcx,%rax
   1606e:	48 c1 e0 02          	shl    $0x2,%rax
   16072:	48 01 c8             	add    %rcx,%rax
   16075:	48 01 c2             	add    %rax,%rdx
   16078:	48 69 c6 6d 02 00 00 	imul   $0x26d,%rsi,%rax
   1607f:	48 01 c2             	add    %rax,%rdx
   16082:	48 8d 05 17 7e 00 00 	lea    0x7e17(%rip),%rax        # 1dea0 <g_2003>
   16089:	48 01 d0             	add    %rdx,%rax
   1608c:	0f b6 50 0d          	movzbl 0xd(%rax),%edx
   16090:	c0 ea 02             	shr    $0x2,%dl
   16093:	0f b6 d2             	movzbl %dl,%edx
   16096:	0f b6 48 0e          	movzbl 0xe(%rax),%ecx
   1609a:	48 c1 e1 06          	shl    $0x6,%rcx
   1609e:	48 09 d1             	or     %rdx,%rcx
   160a1:	0f b6 50 0f          	movzbl 0xf(%rax),%edx
   160a5:	48 c1 e2 0e          	shl    $0xe,%rdx
   160a9:	48 09 ca             	or     %rcx,%rdx
   160ac:	0f b6 40 10          	movzbl 0x10(%rax),%eax
   160b0:	48 c1 e0 16          	shl    $0x16,%rax
   160b4:	48 09 d0             	or     %rdx,%rax
   160b7:	89 c1                	mov    %eax,%ecx
   160b9:	8b 45 fc             	mov    -0x4(%rbp),%eax
   160bc:	89 c2                	mov    %eax,%edx
   160be:	48 8d 35 80 32 00 00 	lea    0x3280(%rip),%rsi        # 19345 <g_1804+0x20e5>
   160c5:	48 89 cf             	mov    %rcx,%rdi
   160c8:	e8 26 16 ff ff       	callq  76f3 <transparent_crc>
   160cd:	8b 45 f8             	mov    -0x8(%rbp),%eax
   160d0:	48 63 c8             	movslq %eax,%rcx
   160d3:	8b 45 f4             	mov    -0xc(%rbp),%eax
   160d6:	48 63 d0             	movslq %eax,%rdx
   160d9:	8b 45 f0             	mov    -0x10(%rbp),%eax
   160dc:	48 63 f0             	movslq %eax,%rsi
   160df:	48 89 c8             	mov    %rcx,%rax
   160e2:	48 01 c0             	add    %rax,%rax
   160e5:	48 01 c8             	add    %rcx,%rax
   160e8:	48 c1 e0 03          	shl    $0x3,%rax
   160ec:	48 29 c8             	sub    %rcx,%rax
   160ef:	48 69 ce 6d 02 00 00 	imul   $0x26d,%rsi,%rcx
   160f6:	48 01 c1             	add    %rax,%rcx
   160f9:	48 89 d0             	mov    %rdx,%rax
   160fc:	48 c1 e0 04          	shl    $0x4,%rax
   16100:	48 01 d0             	add    %rdx,%rax
   16103:	48 c1 e0 02          	shl    $0x2,%rax
   16107:	48 01 d0             	add    %rdx,%rax
   1610a:	48 8d 14 01          	lea    (%rcx,%rax,1),%rdx
   1610e:	48 8d 05 9b 7d 00 00 	lea    0x7d9b(%rip),%rax        # 1deb0 <g_2003+0x10>
   16115:	48 01 d0             	add    %rdx,%rax
   16118:	0f b6 40 01          	movzbl 0x1(%rax),%eax
   1611c:	c1 e0 04             	shl    $0x4,%eax
   1611f:	c0 f8 04             	sar    $0x4,%al
   16122:	48 0f be c0          	movsbq %al,%rax
   16126:	8b 55 fc             	mov    -0x4(%rbp),%edx
   16129:	48 8d 35 28 32 00 00 	lea    0x3228(%rip),%rsi        # 19358 <g_1804+0x20f8>
   16130:	48 89 c7             	mov    %rax,%rdi
   16133:	e8 bb 15 ff ff       	callq  76f3 <transparent_crc>
   16138:	8b 45 f8             	mov    -0x8(%rbp),%eax
   1613b:	48 63 c8             	movslq %eax,%rcx
   1613e:	8b 45 f4             	mov    -0xc(%rbp),%eax
   16141:	48 63 d0             	movslq %eax,%rdx
   16144:	8b 45 f0             	mov    -0x10(%rbp),%eax
   16147:	48 63 f0             	movslq %eax,%rsi
   1614a:	48 89 c8             	mov    %rcx,%rax
   1614d:	48 01 c0             	add    %rax,%rax
   16150:	48 01 c8             	add    %rcx,%rax
   16153:	48 c1 e0 03          	shl    $0x3,%rax
   16157:	48 29 c8             	sub    %rcx,%rax
   1615a:	48 69 ce 6d 02 00 00 	imul   $0x26d,%rsi,%rcx
   16161:	48 01 c1             	add    %rax,%rcx
   16164:	48 89 d0             	mov    %rdx,%rax
   16167:	48 c1 e0 04          	shl    $0x4,%rax
   1616b:	48 01 d0             	add    %rdx,%rax
   1616e:	48 c1 e0 02          	shl    $0x2,%rax
   16172:	48 01 d0             	add    %rdx,%rax
   16175:	48 8d 14 01          	lea    (%rcx,%rax,1),%rdx
   16179:	48 8d 05 30 7d 00 00 	lea    0x7d30(%rip),%rax        # 1deb0 <g_2003+0x10>
   16180:	48 01 d0             	add    %rdx,%rax
   16183:	0f b6 50 01          	movzbl 0x1(%rax),%edx
   16187:	c0 ea 04             	shr    $0x4,%dl
   1618a:	0f b6 d2             	movzbl %dl,%edx
   1618d:	0f b6 40 02          	movzbl 0x2(%rax),%eax
   16191:	83 e0 1f             	and    $0x1f,%eax
   16194:	48 c1 e0 04          	shl    $0x4,%rax
   16198:	48 09 d0             	or     %rdx,%rax
   1619b:	48 c1 e0 37          	shl    $0x37,%rax
   1619f:	48 c1 f8 37          	sar    $0x37,%rax
   161a3:	48 0f bf c0          	movswq %ax,%rax
   161a7:	8b 55 fc             	mov    -0x4(%rbp),%edx
   161aa:	48 8d 35 ba 31 00 00 	lea    0x31ba(%rip),%rsi        # 1936b <g_1804+0x210b>
   161b1:	48 89 c7             	mov    %rax,%rdi
   161b4:	e8 3a 15 ff ff       	callq  76f3 <transparent_crc>
   161b9:	8b 45 f8             	mov    -0x8(%rbp),%eax
   161bc:	48 63 c8             	movslq %eax,%rcx
   161bf:	8b 45 f4             	mov    -0xc(%rbp),%eax
   161c2:	48 63 d0             	movslq %eax,%rdx
   161c5:	8b 45 f0             	mov    -0x10(%rbp),%eax
   161c8:	48 63 f0             	movslq %eax,%rsi
   161cb:	48 89 c8             	mov    %rcx,%rax
   161ce:	48 01 c0             	add    %rax,%rax
   161d1:	48 01 c8             	add    %rcx,%rax
   161d4:	48 c1 e0 03          	shl    $0x3,%rax
   161d8:	48 29 c8             	sub    %rcx,%rax
   161db:	48 69 ce 6d 02 00 00 	imul   $0x26d,%rsi,%rcx
   161e2:	48 01 c1             	add    %rax,%rcx
   161e5:	48 89 d0             	mov    %rdx,%rax
   161e8:	48 c1 e0 04          	shl    $0x4,%rax
   161ec:	48 01 d0             	add    %rdx,%rax
   161ef:	48 c1 e0 02          	shl    $0x2,%rax
   161f3:	48 01 d0             	add    %rdx,%rax
   161f6:	48 8d 14 01          	lea    (%rcx,%rax,1),%rdx
   161fa:	48 8d 05 af 7c 00 00 	lea    0x7caf(%rip),%rax        # 1deb0 <g_2003+0x10>
   16201:	48 01 d0             	add    %rdx,%rax
   16204:	0f b6 50 02          	movzbl 0x2(%rax),%edx
   16208:	c0 ea 05             	shr    $0x5,%dl
   1620b:	0f b6 d2             	movzbl %dl,%edx
   1620e:	0f b6 40 03          	movzbl 0x3(%rax),%eax
   16212:	83 e0 3f             	and    $0x3f,%eax
   16215:	48 c1 e0 03          	shl    $0x3,%rax
   16219:	48 09 d0             	or     %rdx,%rax
   1621c:	48 c1 e0 37          	shl    $0x37,%rax
   16220:	48 c1 f8 37          	sar    $0x37,%rax
   16224:	48 0f bf c0          	movswq %ax,%rax
   16228:	8b 55 fc             	mov    -0x4(%rbp),%edx
   1622b:	48 8d 35 4c 31 00 00 	lea    0x314c(%rip),%rsi        # 1937e <g_1804+0x211e>
   16232:	48 89 c7             	mov    %rax,%rdi
   16235:	e8 b9 14 ff ff       	callq  76f3 <transparent_crc>
   1623a:	8b 45 f8             	mov    -0x8(%rbp),%eax
   1623d:	48 63 c8             	movslq %eax,%rcx
   16240:	8b 45 f4             	mov    -0xc(%rbp),%eax
   16243:	48 63 d0             	movslq %eax,%rdx
   16246:	8b 45 f0             	mov    -0x10(%rbp),%eax
   16249:	48 63 f0             	movslq %eax,%rsi
   1624c:	48 89 c8             	mov    %rcx,%rax
   1624f:	48 01 c0             	add    %rax,%rax
   16252:	48 01 c8             	add    %rcx,%rax
   16255:	48 c1 e0 03          	shl    $0x3,%rax
   16259:	48 29 c8             	sub    %rcx,%rax
   1625c:	48 69 ce 6d 02 00 00 	imul   $0x26d,%rsi,%rcx
   16263:	48 01 c1             	add    %rax,%rcx
   16266:	48 89 d0             	mov    %rdx,%rax
   16269:	48 c1 e0 04          	shl    $0x4,%rax
   1626d:	48 01 d0             	add    %rdx,%rax
   16270:	48 c1 e0 02          	shl    $0x2,%rax
   16274:	48 01 d0             	add    %rdx,%rax
   16277:	48 8d 14 01          	lea    (%rcx,%rax,1),%rdx
   1627b:	48 8d 05 2e 7c 00 00 	lea    0x7c2e(%rip),%rax        # 1deb0 <g_2003+0x10>
   16282:	48 01 d0             	add    %rdx,%rax
   16285:	0f b6 50 03          	movzbl 0x3(%rax),%edx
   16289:	c0 ea 06             	shr    $0x6,%dl
   1628c:	0f b6 d2             	movzbl %dl,%edx
   1628f:	0f b6 48 04          	movzbl 0x4(%rax),%ecx
   16293:	48 c1 e1 02          	shl    $0x2,%rcx
   16297:	48 09 d1             	or     %rdx,%rcx
   1629a:	0f b6 50 05          	movzbl 0x5(%rax),%edx
   1629e:	48 c1 e2 0a          	shl    $0xa,%rdx
   162a2:	48 09 ca             	or     %rcx,%rdx
   162a5:	0f b6 40 06          	movzbl 0x6(%rax),%eax
   162a9:	83 e0 01             	and    $0x1,%eax
   162ac:	48 c1 e0 12          	shl    $0x12,%rax
   162b0:	48 09 d0             	or     %rdx,%rax
   162b3:	48 c1 e0 2d          	shl    $0x2d,%rax
   162b7:	48 c1 f8 2d          	sar    $0x2d,%rax
   162bb:	48 98                	cltq   
   162bd:	8b 55 fc             	mov    -0x4(%rbp),%edx
   162c0:	48 8d 35 ca 30 00 00 	lea    0x30ca(%rip),%rsi        # 19391 <g_1804+0x2131>
   162c7:	48 89 c7             	mov    %rax,%rdi
   162ca:	e8 24 14 ff ff       	callq  76f3 <transparent_crc>
   162cf:	83 7d fc 00          	cmpl   $0x0,-0x4(%rbp)
   162d3:	74 1c                	je     162f1 <main+0x2508>
   162d5:	8b 4d f8             	mov    -0x8(%rbp),%ecx
   162d8:	8b 55 f4             	mov    -0xc(%rbp),%edx
   162db:	8b 45 f0             	mov    -0x10(%rbp),%eax
   162de:	89 c6                	mov    %eax,%esi
   162e0:	48 8d 3d 7a 2b 00 00 	lea    0x2b7a(%rip),%rdi        # 18e61 <g_1804+0x1c01>
   162e7:	b8 00 00 00 00       	mov    $0x0,%eax
   162ec:	e8 8f fd fe ff       	callq  6080 <printf@plt>
   162f1:	83 45 f8 01          	addl   $0x1,-0x8(%rbp)
   162f5:	83 7d f8 02          	cmpl   $0x2,-0x8(%rbp)
   162f9:	0f 8e 7b fa ff ff    	jle    15d7a <main+0x1f91>
   162ff:	83 45 f4 01          	addl   $0x1,-0xc(%rbp)
   16303:	83 7d f4 08          	cmpl   $0x8,-0xc(%rbp)
   16307:	0f 8e 61 fa ff ff    	jle    15d6e <main+0x1f85>
   1630d:	83 45 f0 01          	addl   $0x1,-0x10(%rbp)
   16311:	83 7d f0 08          	cmpl   $0x8,-0x10(%rbp)
   16315:	0f 8e 47 fa ff ff    	jle    15d62 <main+0x1f79>
   1631b:	c7 45 f0 00 00 00 00 	movl   $0x0,-0x10(%rbp)
   16322:	e9 f4 03 00 00       	jmpq   1671b <main+0x2932>
   16327:	8b 45 f0             	mov    -0x10(%rbp),%eax
   1632a:	48 63 d0             	movslq %eax,%rdx
   1632d:	48 89 d0             	mov    %rdx,%rax
   16330:	48 01 c0             	add    %rax,%rax
   16333:	48 01 d0             	add    %rdx,%rax
   16336:	48 c1 e0 03          	shl    $0x3,%rax
   1633a:	48 29 d0             	sub    %rdx,%rax
   1633d:	48 89 c2             	mov    %rax,%rdx
   16340:	48 8d 05 39 91 00 00 	lea    0x9139(%rip),%rax        # 1f480 <g_2022>
   16347:	0f b6 0c 02          	movzbl (%rdx,%rax,1),%ecx
   1634b:	0f b6 74 02 01       	movzbl 0x1(%rdx,%rax,1),%esi
   16350:	48 c1 e6 08          	shl    $0x8,%rsi
   16354:	48 09 ce             	or     %rcx,%rsi
   16357:	0f b6 4c 02 02       	movzbl 0x2(%rdx,%rax,1),%ecx
   1635c:	48 c1 e1 10          	shl    $0x10,%rcx
   16360:	48 09 f1             	or     %rsi,%rcx
   16363:	0f b6 44 02 03       	movzbl 0x3(%rdx,%rax,1),%eax
   16368:	83 e0 1f             	and    $0x1f,%eax
   1636b:	48 c1 e0 18          	shl    $0x18,%rax
   1636f:	48 09 c8             	or     %rcx,%rax
   16372:	48 c1 e0 23          	shl    $0x23,%rax
   16376:	48 c1 f8 23          	sar    $0x23,%rax
   1637a:	48 98                	cltq   
   1637c:	8b 55 fc             	mov    -0x4(%rbp),%edx
   1637f:	48 8d 35 1e 30 00 00 	lea    0x301e(%rip),%rsi        # 193a4 <g_1804+0x2144>
   16386:	48 89 c7             	mov    %rax,%rdi
   16389:	e8 65 13 ff ff       	callq  76f3 <transparent_crc>
   1638e:	8b 45 f0             	mov    -0x10(%rbp),%eax
   16391:	48 63 d0             	movslq %eax,%rdx
   16394:	48 89 d0             	mov    %rdx,%rax
   16397:	48 01 c0             	add    %rax,%rax
   1639a:	48 01 d0             	add    %rdx,%rax
   1639d:	48 c1 e0 03          	shl    $0x3,%rax
   163a1:	48 29 d0             	sub    %rdx,%rax
   163a4:	48 89 c2             	mov    %rax,%rdx
   163a7:	48 8d 05 d2 90 00 00 	lea    0x90d2(%rip),%rax        # 1f480 <g_2022>
   163ae:	0f b6 4c 02 03       	movzbl 0x3(%rdx,%rax,1),%ecx
   163b3:	c0 e9 05             	shr    $0x5,%cl
   163b6:	0f b6 c9             	movzbl %cl,%ecx
   163b9:	0f b6 74 02 04       	movzbl 0x4(%rdx,%rax,1),%esi
   163be:	48 c1 e6 03          	shl    $0x3,%rsi
   163c2:	48 09 ce             	or     %rcx,%rsi
   163c5:	0f b6 4c 02 05       	movzbl 0x5(%rdx,%rax,1),%ecx
   163ca:	48 c1 e1 0b          	shl    $0xb,%rcx
   163ce:	48 09 ce             	or     %rcx,%rsi
   163d1:	0f b6 4c 02 06       	movzbl 0x6(%rdx,%rax,1),%ecx
   163d6:	48 c1 e1 13          	shl    $0x13,%rcx
   163da:	48 09 f1             	or     %rsi,%rcx
   163dd:	0f b6 44 02 07       	movzbl 0x7(%rdx,%rax,1),%eax
   163e2:	83 e0 07             	and    $0x7,%eax
   163e5:	48 c1 e0 1b          	shl    $0x1b,%rax
   163e9:	48 09 c8             	or     %rcx,%rax
   163ec:	48 c1 e0 22          	shl    $0x22,%rax
   163f0:	48 c1 f8 22          	sar    $0x22,%rax
   163f4:	48 98                	cltq   
   163f6:	8b 55 fc             	mov    -0x4(%rbp),%edx
   163f9:	48 8d 35 b1 2f 00 00 	lea    0x2fb1(%rip),%rsi        # 193b1 <g_1804+0x2151>
   16400:	48 89 c7             	mov    %rax,%rdi
   16403:	e8 eb 12 ff ff       	callq  76f3 <transparent_crc>
   16408:	8b 45 f0             	mov    -0x10(%rbp),%eax
   1640b:	48 63 d0             	movslq %eax,%rdx
   1640e:	48 89 d0             	mov    %rdx,%rax
   16411:	48 01 c0             	add    %rax,%rax
   16414:	48 01 d0             	add    %rdx,%rax
   16417:	48 c1 e0 03          	shl    $0x3,%rax
   1641b:	48 29 d0             	sub    %rdx,%rax
   1641e:	48 89 c2             	mov    %rax,%rdx
   16421:	48 8d 05 58 90 00 00 	lea    0x9058(%rip),%rax        # 1f480 <g_2022>
   16428:	0f b6 4c 02 07       	movzbl 0x7(%rdx,%rax,1),%ecx
   1642d:	c0 e9 03             	shr    $0x3,%cl
   16430:	0f b6 c9             	movzbl %cl,%ecx
   16433:	0f b6 44 02 08       	movzbl 0x8(%rdx,%rax,1),%eax
   16438:	83 e0 07             	and    $0x7,%eax
   1643b:	48 c1 e0 05          	shl    $0x5,%rax
   1643f:	48 09 c8             	or     %rcx,%rax
   16442:	0f b6 c0             	movzbl %al,%eax
   16445:	8b 55 fc             	mov    -0x4(%rbp),%edx
   16448:	48 8d 35 6f 2f 00 00 	lea    0x2f6f(%rip),%rsi        # 193be <g_1804+0x215e>
   1644f:	48 89 c7             	mov    %rax,%rdi
   16452:	e8 9c 12 ff ff       	callq  76f3 <transparent_crc>
   16457:	8b 45 f0             	mov    -0x10(%rbp),%eax
   1645a:	48 63 d0             	movslq %eax,%rdx
   1645d:	48 89 d0             	mov    %rdx,%rax
   16460:	48 01 c0             	add    %rax,%rax
   16463:	48 01 d0             	add    %rdx,%rax
   16466:	48 c1 e0 03          	shl    $0x3,%rax
   1646a:	48 29 d0             	sub    %rdx,%rax
   1646d:	48 89 c2             	mov    %rax,%rdx
   16470:	48 8d 05 09 90 00 00 	lea    0x9009(%rip),%rax        # 1f480 <g_2022>
   16477:	0f b6 4c 02 08       	movzbl 0x8(%rdx,%rax,1),%ecx
   1647c:	c0 e9 03             	shr    $0x3,%cl
   1647f:	0f b6 c9             	movzbl %cl,%ecx
   16482:	0f b6 74 02 09       	movzbl 0x9(%rdx,%rax,1),%esi
   16487:	40 0f b6 f6          	movzbl %sil,%esi
   1648b:	48 c1 e6 05          	shl    $0x5,%rsi
   1648f:	48 09 f1             	or     %rsi,%rcx
   16492:	0f b6 44 02 0a       	movzbl 0xa(%rdx,%rax,1),%eax
   16497:	0f b6 c0             	movzbl %al,%eax
   1649a:	83 e0 7f             	and    $0x7f,%eax
   1649d:	48 c1 e0 0d          	shl    $0xd,%rax
   164a1:	48 09 c8             	or     %rcx,%rax
   164a4:	48 c1 e0 2c          	shl    $0x2c,%rax
   164a8:	48 c1 f8 2c          	sar    $0x2c,%rax
   164ac:	48 98                	cltq   
   164ae:	8b 55 fc             	mov    -0x4(%rbp),%edx
   164b1:	48 8d 35 13 2f 00 00 	lea    0x2f13(%rip),%rsi        # 193cb <g_1804+0x216b>
   164b8:	48 89 c7             	mov    %rax,%rdi
   164bb:	e8 33 12 ff ff       	callq  76f3 <transparent_crc>
   164c0:	8b 45 f0             	mov    -0x10(%rbp),%eax
   164c3:	48 63 d0             	movslq %eax,%rdx
   164c6:	48 89 d0             	mov    %rdx,%rax
   164c9:	48 01 c0             	add    %rax,%rax
   164cc:	48 01 d0             	add    %rdx,%rax
   164cf:	48 c1 e0 03          	shl    $0x3,%rax
   164d3:	48 29 d0             	sub    %rdx,%rax
   164d6:	48 89 c2             	mov    %rax,%rdx
   164d9:	48 8d 05 a0 8f 00 00 	lea    0x8fa0(%rip),%rax        # 1f480 <g_2022>
   164e0:	0f b6 4c 02 0a       	movzbl 0xa(%rdx,%rax,1),%ecx
   164e5:	c0 e9 07             	shr    $0x7,%cl
   164e8:	0f b6 c9             	movzbl %cl,%ecx
   164eb:	0f b6 74 02 0b       	movzbl 0xb(%rdx,%rax,1),%esi
   164f0:	40 0f b6 f6          	movzbl %sil,%esi
   164f4:	48 01 f6             	add    %rsi,%rsi
   164f7:	48 09 ce             	or     %rcx,%rsi
   164fa:	0f b6 4c 02 0c       	movzbl 0xc(%rdx,%rax,1),%ecx
   164ff:	0f b6 c9             	movzbl %cl,%ecx
   16502:	48 c1 e1 09          	shl    $0x9,%rcx
   16506:	48 09 f1             	or     %rsi,%rcx
   16509:	0f b6 44 02 0d       	movzbl 0xd(%rdx,%rax,1),%eax
   1650e:	0f b6 c0             	movzbl %al,%eax
   16511:	83 e0 03             	and    $0x3,%eax
   16514:	48 c1 e0 11          	shl    $0x11,%rax
   16518:	48 09 c8             	or     %rcx,%rax
   1651b:	48 c1 e0 2d          	shl    $0x2d,%rax
   1651f:	48 c1 f8 2d          	sar    $0x2d,%rax
   16523:	48 98                	cltq   
   16525:	8b 55 fc             	mov    -0x4(%rbp),%edx
   16528:	48 8d 35 a9 2e 00 00 	lea    0x2ea9(%rip),%rsi        # 193d8 <g_1804+0x2178>
   1652f:	48 89 c7             	mov    %rax,%rdi
   16532:	e8 bc 11 ff ff       	callq  76f3 <transparent_crc>
   16537:	8b 45 f0             	mov    -0x10(%rbp),%eax
   1653a:	48 63 d0             	movslq %eax,%rdx
   1653d:	48 89 d0             	mov    %rdx,%rax
   16540:	48 01 c0             	add    %rax,%rax
   16543:	48 01 d0             	add    %rdx,%rax
   16546:	48 c1 e0 03          	shl    $0x3,%rax
   1654a:	48 29 d0             	sub    %rdx,%rax
   1654d:	48 89 c2             	mov    %rax,%rdx
   16550:	48 8d 05 29 8f 00 00 	lea    0x8f29(%rip),%rax        # 1f480 <g_2022>
   16557:	0f b6 4c 02 0d       	movzbl 0xd(%rdx,%rax,1),%ecx
   1655c:	c0 e9 02             	shr    $0x2,%cl
   1655f:	0f b6 c9             	movzbl %cl,%ecx
   16562:	0f b6 74 02 0e       	movzbl 0xe(%rdx,%rax,1),%esi
   16567:	48 c1 e6 06          	shl    $0x6,%rsi
   1656b:	48 09 ce             	or     %rcx,%rsi
   1656e:	0f b6 4c 02 0f       	movzbl 0xf(%rdx,%rax,1),%ecx
   16573:	48 c1 e1 0e          	shl    $0xe,%rcx
   16577:	48 09 f1             	or     %rsi,%rcx
   1657a:	0f b6 44 02 10       	movzbl 0x10(%rdx,%rax,1),%eax
   1657f:	48 c1 e0 16          	shl    $0x16,%rax
   16583:	48 09 c8             	or     %rcx,%rax
   16586:	89 c1                	mov    %eax,%ecx
   16588:	8b 45 fc             	mov    -0x4(%rbp),%eax
   1658b:	89 c2                	mov    %eax,%edx
   1658d:	48 8d 35 51 2e 00 00 	lea    0x2e51(%rip),%rsi        # 193e5 <g_1804+0x2185>
   16594:	48 89 cf             	mov    %rcx,%rdi
   16597:	e8 57 11 ff ff       	callq  76f3 <transparent_crc>
   1659c:	8b 45 f0             	mov    -0x10(%rbp),%eax
   1659f:	48 63 d0             	movslq %eax,%rdx
   165a2:	48 89 d0             	mov    %rdx,%rax
   165a5:	48 01 c0             	add    %rax,%rax
   165a8:	48 01 d0             	add    %rdx,%rax
   165ab:	48 c1 e0 03          	shl    $0x3,%rax
   165af:	48 29 d0             	sub    %rdx,%rax
   165b2:	48 89 c2             	mov    %rax,%rdx
   165b5:	48 8d 05 d4 8e 00 00 	lea    0x8ed4(%rip),%rax        # 1f490 <g_2022+0x10>
   165bc:	0f b6 44 02 01       	movzbl 0x1(%rdx,%rax,1),%eax
   165c1:	c1 e0 04             	shl    $0x4,%eax
   165c4:	c0 f8 04             	sar    $0x4,%al
   165c7:	48 0f be c0          	movsbq %al,%rax
   165cb:	8b 55 fc             	mov    -0x4(%rbp),%edx
   165ce:	48 8d 35 1d 2e 00 00 	lea    0x2e1d(%rip),%rsi        # 193f2 <g_1804+0x2192>
   165d5:	48 89 c7             	mov    %rax,%rdi
   165d8:	e8 16 11 ff ff       	callq  76f3 <transparent_crc>
   165dd:	8b 45 f0             	mov    -0x10(%rbp),%eax
   165e0:	48 63 d0             	movslq %eax,%rdx
   165e3:	48 89 d0             	mov    %rdx,%rax
   165e6:	48 01 c0             	add    %rax,%rax
   165e9:	48 01 d0             	add    %rdx,%rax
   165ec:	48 c1 e0 03          	shl    $0x3,%rax
   165f0:	48 29 d0             	sub    %rdx,%rax
   165f3:	48 89 c2             	mov    %rax,%rdx
   165f6:	48 8d 05 93 8e 00 00 	lea    0x8e93(%rip),%rax        # 1f490 <g_2022+0x10>
   165fd:	0f b6 4c 02 01       	movzbl 0x1(%rdx,%rax,1),%ecx
   16602:	c0 e9 04             	shr    $0x4,%cl
   16605:	0f b6 c9             	movzbl %cl,%ecx
   16608:	0f b6 44 02 02       	movzbl 0x2(%rdx,%rax,1),%eax
   1660d:	83 e0 1f             	and    $0x1f,%eax
   16610:	48 c1 e0 04          	shl    $0x4,%rax
   16614:	48 09 c8             	or     %rcx,%rax
   16617:	48 c1 e0 37          	shl    $0x37,%rax
   1661b:	48 c1 f8 37          	sar    $0x37,%rax
   1661f:	48 0f bf c0          	movswq %ax,%rax
   16623:	8b 55 fc             	mov    -0x4(%rbp),%edx
   16626:	48 8d 35 d2 2d 00 00 	lea    0x2dd2(%rip),%rsi        # 193ff <g_1804+0x219f>
   1662d:	48 89 c7             	mov    %rax,%rdi
   16630:	e8 be 10 ff ff       	callq  76f3 <transparent_crc>
   16635:	8b 45 f0             	mov    -0x10(%rbp),%eax
   16638:	48 63 d0             	movslq %eax,%rdx
   1663b:	48 89 d0             	mov    %rdx,%rax
   1663e:	48 01 c0             	add    %rax,%rax
   16641:	48 01 d0             	add    %rdx,%rax
   16644:	48 c1 e0 03          	shl    $0x3,%rax
   16648:	48 29 d0             	sub    %rdx,%rax
   1664b:	48 89 c2             	mov    %rax,%rdx
   1664e:	48 8d 05 3b 8e 00 00 	lea    0x8e3b(%rip),%rax        # 1f490 <g_2022+0x10>
   16655:	0f b6 4c 02 02       	movzbl 0x2(%rdx,%rax,1),%ecx
   1665a:	c0 e9 05             	shr    $0x5,%cl
   1665d:	0f b6 c9             	movzbl %cl,%ecx
   16660:	0f b6 44 02 03       	movzbl 0x3(%rdx,%rax,1),%eax
   16665:	83 e0 3f             	and    $0x3f,%eax
   16668:	48 c1 e0 03          	shl    $0x3,%rax
   1666c:	48 09 c8             	or     %rcx,%rax
   1666f:	48 c1 e0 37          	shl    $0x37,%rax
   16673:	48 c1 f8 37          	sar    $0x37,%rax
   16677:	48 0f bf c0          	movswq %ax,%rax
   1667b:	8b 55 fc             	mov    -0x4(%rbp),%edx
   1667e:	48 8d 35 87 2d 00 00 	lea    0x2d87(%rip),%rsi        # 1940c <g_1804+0x21ac>
   16685:	48 89 c7             	mov    %rax,%rdi
   16688:	e8 66 10 ff ff       	callq  76f3 <transparent_crc>
   1668d:	8b 45 f0             	mov    -0x10(%rbp),%eax
   16690:	48 63 d0             	movslq %eax,%rdx
   16693:	48 89 d0             	mov    %rdx,%rax
   16696:	48 01 c0             	add    %rax,%rax
   16699:	48 01 d0             	add    %rdx,%rax
   1669c:	48 c1 e0 03          	shl    $0x3,%rax
   166a0:	48 29 d0             	sub    %rdx,%rax
   166a3:	48 89 c2             	mov    %rax,%rdx
   166a6:	48 8d 05 e3 8d 00 00 	lea    0x8de3(%rip),%rax        # 1f490 <g_2022+0x10>
   166ad:	0f b6 4c 02 03       	movzbl 0x3(%rdx,%rax,1),%ecx
   166b2:	c0 e9 06             	shr    $0x6,%cl
   166b5:	0f b6 c9             	movzbl %cl,%ecx
   166b8:	0f b6 74 02 04       	movzbl 0x4(%rdx,%rax,1),%esi
   166bd:	48 c1 e6 02          	shl    $0x2,%rsi
   166c1:	48 09 ce             	or     %rcx,%rsi
   166c4:	0f b6 4c 02 05       	movzbl 0x5(%rdx,%rax,1),%ecx
   166c9:	48 c1 e1 0a          	shl    $0xa,%rcx
   166cd:	48 09 f1             	or     %rsi,%rcx
   166d0:	0f b6 44 02 06       	movzbl 0x6(%rdx,%rax,1),%eax
   166d5:	83 e0 01             	and    $0x1,%eax
   166d8:	48 c1 e0 12          	shl    $0x12,%rax
   166dc:	48 09 c8             	or     %rcx,%rax
   166df:	48 c1 e0 2d          	shl    $0x2d,%rax
   166e3:	48 c1 f8 2d          	sar    $0x2d,%rax
   166e7:	48 98                	cltq   
   166e9:	8b 55 fc             	mov    -0x4(%rbp),%edx
   166ec:	48 8d 35 26 2d 00 00 	lea    0x2d26(%rip),%rsi        # 19419 <g_1804+0x21b9>
   166f3:	48 89 c7             	mov    %rax,%rdi
   166f6:	e8 f8 0f ff ff       	callq  76f3 <transparent_crc>
   166fb:	83 7d fc 00          	cmpl   $0x0,-0x4(%rbp)
   166ff:	74 16                	je     16717 <main+0x292e>
   16701:	8b 45 f0             	mov    -0x10(%rbp),%eax
   16704:	89 c6                	mov    %eax,%esi
   16706:	48 8d 3d bc 26 00 00 	lea    0x26bc(%rip),%rdi        # 18dc9 <g_1804+0x1b69>
   1670d:	b8 00 00 00 00       	mov    $0x0,%eax
   16712:	e8 69 f9 fe ff       	callq  6080 <printf@plt>
   16717:	83 45 f0 01          	addl   $0x1,-0x10(%rbp)
   1671b:	83 7d f0 05          	cmpl   $0x5,-0x10(%rbp)
   1671f:	0f 8e 02 fc ff ff    	jle    16327 <main+0x253e>
   16725:	48 8b 05 e4 8d 00 00 	mov    0x8de4(%rip),%rax        # 1f510 <g_2170>
   1672c:	48 89 c1             	mov    %rax,%rcx
   1672f:	8b 45 fc             	mov    -0x4(%rbp),%eax
   16732:	89 c2                	mov    %eax,%edx
   16734:	48 8d 35 eb 2c 00 00 	lea    0x2ceb(%rip),%rsi        # 19426 <g_1804+0x21c6>
   1673b:	48 89 cf             	mov    %rcx,%rdi
   1673e:	e8 b0 0f ff ff       	callq  76f3 <transparent_crc>
   16743:	8b 05 d7 58 00 00    	mov    0x58d7(%rip),%eax        # 1c020 <crc32_context>
   16749:	f7 d0                	not    %eax
   1674b:	89 c2                	mov    %eax,%edx
   1674d:	8b 45 fc             	mov    -0x4(%rbp),%eax
   16750:	89 c6                	mov    %eax,%esi
   16752:	89 d7                	mov    %edx,%edi
   16754:	e8 3b fa fe ff       	callq  6194 <platform_main_end>
   16759:	b8 00 00 00 00       	mov    $0x0,%eax
   1675e:	c9                   	leaveq 
   1675f:	c3                   	retq   

0000000000016760 <__libc_csu_init>:
   16760:	f3 0f 1e fa          	endbr64 
   16764:	41 57                	push   %r15
   16766:	4c 8d 3d 2b 56 00 00 	lea    0x562b(%rip),%r15        # 1bd98 <__frame_dummy_init_array_entry>
   1676d:	41 56                	push   %r14
   1676f:	49 89 d6             	mov    %rdx,%r14
   16772:	41 55                	push   %r13
   16774:	49 89 f5             	mov    %rsi,%r13
   16777:	41 54                	push   %r12
   16779:	41 89 fc             	mov    %edi,%r12d
   1677c:	55                   	push   %rbp
   1677d:	48 8d 2d 1c 56 00 00 	lea    0x561c(%rip),%rbp        # 1bda0 <__do_global_dtors_aux_fini_array_entry>
   16784:	53                   	push   %rbx
   16785:	4c 29 fd             	sub    %r15,%rbp
   16788:	48 83 ec 08          	sub    $0x8,%rsp
   1678c:	e8 6f f8 fe ff       	callq  6000 <_init>
   16791:	48 c1 fd 03          	sar    $0x3,%rbp
   16795:	74 1f                	je     167b6 <__libc_csu_init+0x56>
   16797:	31 db                	xor    %ebx,%ebx
   16799:	0f 1f 80 00 00 00 00 	nopl   0x0(%rax)
   167a0:	4c 89 f2             	mov    %r14,%rdx
   167a3:	4c 89 ee             	mov    %r13,%rsi
   167a6:	44 89 e7             	mov    %r12d,%edi
   167a9:	41 ff 14 df          	callq  *(%r15,%rbx,8)
   167ad:	48 83 c3 01          	add    $0x1,%rbx
   167b1:	48 39 dd             	cmp    %rbx,%rbp
   167b4:	75 ea                	jne    167a0 <__libc_csu_init+0x40>
   167b6:	48 83 c4 08          	add    $0x8,%rsp
   167ba:	5b                   	pop    %rbx
   167bb:	5d                   	pop    %rbp
   167bc:	41 5c                	pop    %r12
   167be:	41 5d                	pop    %r13
   167c0:	41 5e                	pop    %r14
   167c2:	41 5f                	pop    %r15
   167c4:	c3                   	retq   
   167c5:	66 66 2e 0f 1f 84 00 	data16 nopw %cs:0x0(%rax,%rax,1)
   167cc:	00 00 00 00 

00000000000167d0 <__libc_csu_fini>:
   167d0:	f3 0f 1e fa          	endbr64 
   167d4:	c3                   	retq   
