


Disassembly of section .text:

00000000000030a0 <_start>:
    30a0:	f3 0f 1e fa          	endbr64 
    30a4:	31 ed                	xor    %ebp,%ebp
    30a6:	49 89 d1             	mov    %rdx,%r9
    30a9:	5e                   	pop    %rsi
    30aa:	48 89 e2             	mov    %rsp,%rdx
    30ad:	48 83 e4 f0          	and    $0xfffffffffffffff0,%rsp
    30b1:	50                   	push   %rax
    30b2:	54                   	push   %rsp
    30b3:	4c 8d 05 26 b9 00 00 	lea    0xb926(%rip),%r8        # e9e0 <__libc_csu_fini>
    30ba:	48 8d 0d af b8 00 00 	lea    0xb8af(%rip),%rcx        # e970 <__libc_csu_init>
    30c1:	48 8d 3d 6e b2 00 00 	lea    0xb26e(%rip),%rdi        # e336 <main>
    30c8:	ff 15 12 ff 00 00    	callq  *0xff12(%rip)        # 12fe0 <__libc_start_main@GLIBC_2.2.5>
    30ce:	f4                   	hlt    
    30cf:	90                   	nop

00000000000030d0 <deregister_tm_clones>:
    30d0:	48 8d 3d a9 12 01 00 	lea    0x112a9(%rip),%rdi        # 14380 <__TMC_END__>
    30d7:	48 8d 05 a2 12 01 00 	lea    0x112a2(%rip),%rax        # 14380 <__TMC_END__>
    30de:	48 39 f8             	cmp    %rdi,%rax
    30e1:	74 15                	je     30f8 <deregister_tm_clones+0x28>
    30e3:	48 8b 05 ee fe 00 00 	mov    0xfeee(%rip),%rax        # 12fd8 <_ITM_deregisterTMCloneTable>
    30ea:	48 85 c0             	test   %rax,%rax
    30ed:	74 09                	je     30f8 <deregister_tm_clones+0x28>
    30ef:	ff e0                	jmpq   *%rax
    30f1:	0f 1f 80 00 00 00 00 	nopl   0x0(%rax)
    30f8:	c3                   	retq   
    30f9:	0f 1f 80 00 00 00 00 	nopl   0x0(%rax)

0000000000003100 <register_tm_clones>:
    3100:	48 8d 3d 79 12 01 00 	lea    0x11279(%rip),%rdi        # 14380 <__TMC_END__>
    3107:	48 8d 35 72 12 01 00 	lea    0x11272(%rip),%rsi        # 14380 <__TMC_END__>
    310e:	48 29 fe             	sub    %rdi,%rsi
    3111:	48 89 f0             	mov    %rsi,%rax
    3114:	48 c1 ee 3f          	shr    $0x3f,%rsi
    3118:	48 c1 f8 03          	sar    $0x3,%rax
    311c:	48 01 c6             	add    %rax,%rsi
    311f:	48 d1 fe             	sar    %rsi
    3122:	74 14                	je     3138 <register_tm_clones+0x38>
    3124:	48 8b 05 c5 fe 00 00 	mov    0xfec5(%rip),%rax        # 12ff0 <_ITM_registerTMCloneTable>
    312b:	48 85 c0             	test   %rax,%rax
    312e:	74 08                	je     3138 <register_tm_clones+0x38>
    3130:	ff e0                	jmpq   *%rax
    3132:	66 0f 1f 44 00 00    	nopw   0x0(%rax,%rax,1)
    3138:	c3                   	retq   
    3139:	0f 1f 80 00 00 00 00 	nopl   0x0(%rax)

0000000000003140 <__do_global_dtors_aux>:
    3140:	f3 0f 1e fa          	endbr64 
    3144:	80 3d 35 12 01 00 00 	cmpb   $0x0,0x11235(%rip)        # 14380 <__TMC_END__>
    314b:	75 2b                	jne    3178 <__do_global_dtors_aux+0x38>
    314d:	55                   	push   %rbp
    314e:	48 83 3d a2 fe 00 00 	cmpq   $0x0,0xfea2(%rip)        # 12ff8 <__cxa_finalize@GLIBC_2.2.5>
    3155:	00 
    3156:	48 89 e5             	mov    %rsp,%rbp
    3159:	74 0c                	je     3167 <__do_global_dtors_aux+0x27>
    315b:	48 8b 3d a6 fe 00 00 	mov    0xfea6(%rip),%rdi        # 13008 <__dso_handle>
    3162:	e8 f9 fe ff ff       	callq  3060 <__cxa_finalize@plt>
    3167:	e8 64 ff ff ff       	callq  30d0 <deregister_tm_clones>
    316c:	c6 05 0d 12 01 00 01 	movb   $0x1,0x1120d(%rip)        # 14380 <__TMC_END__>
    3173:	5d                   	pop    %rbp
    3174:	c3                   	retq   
    3175:	0f 1f 00             	nopl   (%rax)
    3178:	c3                   	retq   
    3179:	0f 1f 80 00 00 00 00 	nopl   0x0(%rax)

0000000000003180 <frame_dummy>:
    3180:	f3 0f 1e fa          	endbr64 
    3184:	e9 77 ff ff ff       	jmpq   3100 <register_tm_clones>

0000000000003189 <platform_main_begin>:
    3189:	f3 0f 1e fa          	endbr64 
    318d:	55                   	push   %rbp
    318e:	48 89 e5             	mov    %rsp,%rbp
    3191:	90                   	nop
    3192:	5d                   	pop    %rbp
    3193:	c3                   	retq   

0000000000003194 <platform_main_end>:
    3194:	f3 0f 1e fa          	endbr64 
    3198:	55                   	push   %rbp
    3199:	48 89 e5             	mov    %rsp,%rbp
    319c:	48 83 ec 10          	sub    $0x10,%rsp
    31a0:	89 7d fc             	mov    %edi,-0x4(%rbp)
    31a3:	89 75 f8             	mov    %esi,-0x8(%rbp)
    31a6:	8b 45 fc             	mov    -0x4(%rbp),%eax
    31a9:	89 c6                	mov    %eax,%esi
    31ab:	48 8d 3d 6e be 00 00 	lea    0xbe6e(%rip),%rdi        # f020 <_IO_stdin_used+0x20>
    31b2:	b8 00 00 00 00       	mov    $0x0,%eax
    31b7:	e8 c4 fe ff ff       	callq  3080 <printf@plt>
    31bc:	90                   	nop
    31bd:	c9                   	leaveq 
    31be:	c3                   	retq   

00000000000031bf <safe_unary_minus_func_int8_t_s>:
    31bf:	f3 0f 1e fa          	endbr64 
    31c3:	55                   	push   %rbp
    31c4:	48 89 e5             	mov    %rsp,%rbp
    31c7:	89 f8                	mov    %edi,%eax
    31c9:	88 45 fc             	mov    %al,-0x4(%rbp)
    31cc:	0f b6 45 fc          	movzbl -0x4(%rbp),%eax
    31d0:	f7 d8                	neg    %eax
    31d2:	5d                   	pop    %rbp
    31d3:	c3                   	retq   

00000000000031d4 <safe_add_func_int8_t_s_s>:
    31d4:	f3 0f 1e fa          	endbr64 
    31d8:	55                   	push   %rbp
    31d9:	48 89 e5             	mov    %rsp,%rbp
    31dc:	89 fa                	mov    %edi,%edx
    31de:	89 f0                	mov    %esi,%eax
    31e0:	88 55 fc             	mov    %dl,-0x4(%rbp)
    31e3:	88 45 f8             	mov    %al,-0x8(%rbp)
    31e6:	0f b6 55 fc          	movzbl -0x4(%rbp),%edx
    31ea:	0f b6 45 f8          	movzbl -0x8(%rbp),%eax
    31ee:	01 d0                	add    %edx,%eax
    31f0:	5d                   	pop    %rbp
    31f1:	c3                   	retq   

00000000000031f2 <safe_sub_func_int8_t_s_s>:
    31f2:	f3 0f 1e fa          	endbr64 
    31f6:	55                   	push   %rbp
    31f7:	48 89 e5             	mov    %rsp,%rbp
    31fa:	89 fa                	mov    %edi,%edx
    31fc:	89 f0                	mov    %esi,%eax
    31fe:	88 55 fc             	mov    %dl,-0x4(%rbp)
    3201:	88 45 f8             	mov    %al,-0x8(%rbp)
    3204:	0f b6 55 fc          	movzbl -0x4(%rbp),%edx
    3208:	0f b6 45 f8          	movzbl -0x8(%rbp),%eax
    320c:	29 c2                	sub    %eax,%edx
    320e:	89 d0                	mov    %edx,%eax
    3210:	5d                   	pop    %rbp
    3211:	c3                   	retq   

0000000000003212 <safe_mul_func_int8_t_s_s>:
    3212:	f3 0f 1e fa          	endbr64 
    3216:	55                   	push   %rbp
    3217:	48 89 e5             	mov    %rsp,%rbp
    321a:	89 fa                	mov    %edi,%edx
    321c:	89 f0                	mov    %esi,%eax
    321e:	88 55 fc             	mov    %dl,-0x4(%rbp)
    3221:	88 45 f8             	mov    %al,-0x8(%rbp)
    3224:	0f b6 45 fc          	movzbl -0x4(%rbp),%eax
    3228:	0f b6 55 f8          	movzbl -0x8(%rbp),%edx
    322c:	0f af c2             	imul   %edx,%eax
    322f:	5d                   	pop    %rbp
    3230:	c3                   	retq   

0000000000003231 <safe_mod_func_int8_t_s_s>:
    3231:	f3 0f 1e fa          	endbr64 
    3235:	55                   	push   %rbp
    3236:	48 89 e5             	mov    %rsp,%rbp
    3239:	89 fa                	mov    %edi,%edx
    323b:	89 f0                	mov    %esi,%eax
    323d:	88 55 fc             	mov    %dl,-0x4(%rbp)
    3240:	88 45 f8             	mov    %al,-0x8(%rbp)
    3243:	80 7d f8 00          	cmpb   $0x0,-0x8(%rbp)
    3247:	74 1b                	je     3264 <safe_mod_func_int8_t_s_s+0x33>
    3249:	80 7d fc 80          	cmpb   $0x80,-0x4(%rbp)
    324d:	75 06                	jne    3255 <safe_mod_func_int8_t_s_s+0x24>
    324f:	80 7d f8 ff          	cmpb   $0xff,-0x8(%rbp)
    3253:	74 0f                	je     3264 <safe_mod_func_int8_t_s_s+0x33>
    3255:	0f be 45 fc          	movsbl -0x4(%rbp),%eax
    3259:	0f be 4d f8          	movsbl -0x8(%rbp),%ecx
    325d:	99                   	cltd   
    325e:	f7 f9                	idiv   %ecx
    3260:	89 d0                	mov    %edx,%eax
    3262:	eb 04                	jmp    3268 <safe_mod_func_int8_t_s_s+0x37>
    3264:	0f b6 45 fc          	movzbl -0x4(%rbp),%eax
    3268:	5d                   	pop    %rbp
    3269:	c3                   	retq   

000000000000326a <safe_div_func_int8_t_s_s>:
    326a:	f3 0f 1e fa          	endbr64 
    326e:	55                   	push   %rbp
    326f:	48 89 e5             	mov    %rsp,%rbp
    3272:	89 fa                	mov    %edi,%edx
    3274:	89 f0                	mov    %esi,%eax
    3276:	88 55 fc             	mov    %dl,-0x4(%rbp)
    3279:	88 45 f8             	mov    %al,-0x8(%rbp)
    327c:	80 7d f8 00          	cmpb   $0x0,-0x8(%rbp)
    3280:	74 19                	je     329b <safe_div_func_int8_t_s_s+0x31>
    3282:	80 7d fc 80          	cmpb   $0x80,-0x4(%rbp)
    3286:	75 06                	jne    328e <safe_div_func_int8_t_s_s+0x24>
    3288:	80 7d f8 ff          	cmpb   $0xff,-0x8(%rbp)
    328c:	74 0d                	je     329b <safe_div_func_int8_t_s_s+0x31>
    328e:	0f be 45 fc          	movsbl -0x4(%rbp),%eax
    3292:	0f be 4d f8          	movsbl -0x8(%rbp),%ecx
    3296:	99                   	cltd   
    3297:	f7 f9                	idiv   %ecx
    3299:	eb 04                	jmp    329f <safe_div_func_int8_t_s_s+0x35>
    329b:	0f b6 45 fc          	movzbl -0x4(%rbp),%eax
    329f:	5d                   	pop    %rbp
    32a0:	c3                   	retq   

00000000000032a1 <safe_lshift_func_int8_t_s_s>:
    32a1:	f3 0f 1e fa          	endbr64 
    32a5:	55                   	push   %rbp
    32a6:	48 89 e5             	mov    %rsp,%rbp
    32a9:	89 f8                	mov    %edi,%eax
    32ab:	89 75 f8             	mov    %esi,-0x8(%rbp)
    32ae:	88 45 fc             	mov    %al,-0x4(%rbp)
    32b1:	80 7d fc 00          	cmpb   $0x0,-0x4(%rbp)
    32b5:	78 31                	js     32e8 <safe_lshift_func_int8_t_s_s+0x47>
    32b7:	83 7d f8 00          	cmpl   $0x0,-0x8(%rbp)
    32bb:	78 2b                	js     32e8 <safe_lshift_func_int8_t_s_s+0x47>
    32bd:	83 7d f8 1f          	cmpl   $0x1f,-0x8(%rbp)
    32c1:	7f 25                	jg     32e8 <safe_lshift_func_int8_t_s_s+0x47>
    32c3:	0f be 55 fc          	movsbl -0x4(%rbp),%edx
    32c7:	8b 45 f8             	mov    -0x8(%rbp),%eax
    32ca:	be 7f 00 00 00       	mov    $0x7f,%esi
    32cf:	89 c1                	mov    %eax,%ecx
    32d1:	d3 fe                	sar    %cl,%esi
    32d3:	89 f0                	mov    %esi,%eax
    32d5:	39 c2                	cmp    %eax,%edx
    32d7:	7f 0f                	jg     32e8 <safe_lshift_func_int8_t_s_s+0x47>
    32d9:	0f be 55 fc          	movsbl -0x4(%rbp),%edx
    32dd:	8b 45 f8             	mov    -0x8(%rbp),%eax
    32e0:	89 c1                	mov    %eax,%ecx
    32e2:	d3 e2                	shl    %cl,%edx
    32e4:	89 d0                	mov    %edx,%eax
    32e6:	eb 04                	jmp    32ec <safe_lshift_func_int8_t_s_s+0x4b>
    32e8:	0f b6 45 fc          	movzbl -0x4(%rbp),%eax
    32ec:	5d                   	pop    %rbp
    32ed:	c3                   	retq   

00000000000032ee <safe_lshift_func_int8_t_s_u>:
    32ee:	f3 0f 1e fa          	endbr64 
    32f2:	55                   	push   %rbp
    32f3:	48 89 e5             	mov    %rsp,%rbp
    32f6:	89 f8                	mov    %edi,%eax
    32f8:	89 75 f8             	mov    %esi,-0x8(%rbp)
    32fb:	88 45 fc             	mov    %al,-0x4(%rbp)
    32fe:	80 7d fc 00          	cmpb   $0x0,-0x4(%rbp)
    3302:	78 2b                	js     332f <safe_lshift_func_int8_t_s_u+0x41>
    3304:	83 7d f8 1f          	cmpl   $0x1f,-0x8(%rbp)
    3308:	77 25                	ja     332f <safe_lshift_func_int8_t_s_u+0x41>
    330a:	0f be 55 fc          	movsbl -0x4(%rbp),%edx
    330e:	8b 45 f8             	mov    -0x8(%rbp),%eax
    3311:	be 7f 00 00 00       	mov    $0x7f,%esi
    3316:	89 c1                	mov    %eax,%ecx
    3318:	d3 fe                	sar    %cl,%esi
    331a:	89 f0                	mov    %esi,%eax
    331c:	39 c2                	cmp    %eax,%edx
    331e:	7f 0f                	jg     332f <safe_lshift_func_int8_t_s_u+0x41>
    3320:	0f be 55 fc          	movsbl -0x4(%rbp),%edx
    3324:	8b 45 f8             	mov    -0x8(%rbp),%eax
    3327:	89 c1                	mov    %eax,%ecx
    3329:	d3 e2                	shl    %cl,%edx
    332b:	89 d0                	mov    %edx,%eax
    332d:	eb 04                	jmp    3333 <safe_lshift_func_int8_t_s_u+0x45>
    332f:	0f b6 45 fc          	movzbl -0x4(%rbp),%eax
    3333:	5d                   	pop    %rbp
    3334:	c3                   	retq   

0000000000003335 <safe_rshift_func_int8_t_s_s>:
    3335:	f3 0f 1e fa          	endbr64 
    3339:	55                   	push   %rbp
    333a:	48 89 e5             	mov    %rsp,%rbp
    333d:	89 f8                	mov    %edi,%eax
    333f:	89 75 f8             	mov    %esi,-0x8(%rbp)
    3342:	88 45 fc             	mov    %al,-0x4(%rbp)
    3345:	80 7d fc 00          	cmpb   $0x0,-0x4(%rbp)
    3349:	78 1b                	js     3366 <safe_rshift_func_int8_t_s_s+0x31>
    334b:	83 7d f8 00          	cmpl   $0x0,-0x8(%rbp)
    334f:	78 15                	js     3366 <safe_rshift_func_int8_t_s_s+0x31>
    3351:	83 7d f8 1f          	cmpl   $0x1f,-0x8(%rbp)
    3355:	7f 0f                	jg     3366 <safe_rshift_func_int8_t_s_s+0x31>
    3357:	0f be 55 fc          	movsbl -0x4(%rbp),%edx
    335b:	8b 45 f8             	mov    -0x8(%rbp),%eax
    335e:	89 c1                	mov    %eax,%ecx
    3360:	d3 fa                	sar    %cl,%edx
    3362:	89 d0                	mov    %edx,%eax
    3364:	eb 04                	jmp    336a <safe_rshift_func_int8_t_s_s+0x35>
    3366:	0f b6 45 fc          	movzbl -0x4(%rbp),%eax
    336a:	5d                   	pop    %rbp
    336b:	c3                   	retq   

000000000000336c <safe_rshift_func_int8_t_s_u>:
    336c:	f3 0f 1e fa          	endbr64 
    3370:	55                   	push   %rbp
    3371:	48 89 e5             	mov    %rsp,%rbp
    3374:	89 f8                	mov    %edi,%eax
    3376:	89 75 f8             	mov    %esi,-0x8(%rbp)
    3379:	88 45 fc             	mov    %al,-0x4(%rbp)
    337c:	80 7d fc 00          	cmpb   $0x0,-0x4(%rbp)
    3380:	78 15                	js     3397 <safe_rshift_func_int8_t_s_u+0x2b>
    3382:	83 7d f8 1f          	cmpl   $0x1f,-0x8(%rbp)
    3386:	77 0f                	ja     3397 <safe_rshift_func_int8_t_s_u+0x2b>
    3388:	0f be 55 fc          	movsbl -0x4(%rbp),%edx
    338c:	8b 45 f8             	mov    -0x8(%rbp),%eax
    338f:	89 c1                	mov    %eax,%ecx
    3391:	d3 fa                	sar    %cl,%edx
    3393:	89 d0                	mov    %edx,%eax
    3395:	eb 04                	jmp    339b <safe_rshift_func_int8_t_s_u+0x2f>
    3397:	0f b6 45 fc          	movzbl -0x4(%rbp),%eax
    339b:	5d                   	pop    %rbp
    339c:	c3                   	retq   

000000000000339d <safe_unary_minus_func_int16_t_s>:
    339d:	f3 0f 1e fa          	endbr64 
    33a1:	55                   	push   %rbp
    33a2:	48 89 e5             	mov    %rsp,%rbp
    33a5:	89 f8                	mov    %edi,%eax
    33a7:	66 89 45 fc          	mov    %ax,-0x4(%rbp)
    33ab:	0f b7 45 fc          	movzwl -0x4(%rbp),%eax
    33af:	f7 d8                	neg    %eax
    33b1:	5d                   	pop    %rbp
    33b2:	c3                   	retq   

00000000000033b3 <safe_add_func_int16_t_s_s>:
    33b3:	f3 0f 1e fa          	endbr64 
    33b7:	55                   	push   %rbp
    33b8:	48 89 e5             	mov    %rsp,%rbp
    33bb:	89 fa                	mov    %edi,%edx
    33bd:	89 f0                	mov    %esi,%eax
    33bf:	66 89 55 fc          	mov    %dx,-0x4(%rbp)
    33c3:	66 89 45 f8          	mov    %ax,-0x8(%rbp)
    33c7:	0f b7 55 fc          	movzwl -0x4(%rbp),%edx
    33cb:	0f b7 45 f8          	movzwl -0x8(%rbp),%eax
    33cf:	01 d0                	add    %edx,%eax
    33d1:	5d                   	pop    %rbp
    33d2:	c3                   	retq   

00000000000033d3 <safe_sub_func_int16_t_s_s>:
    33d3:	f3 0f 1e fa          	endbr64 
    33d7:	55                   	push   %rbp
    33d8:	48 89 e5             	mov    %rsp,%rbp
    33db:	89 fa                	mov    %edi,%edx
    33dd:	89 f0                	mov    %esi,%eax
    33df:	66 89 55 fc          	mov    %dx,-0x4(%rbp)
    33e3:	66 89 45 f8          	mov    %ax,-0x8(%rbp)
    33e7:	0f b7 55 fc          	movzwl -0x4(%rbp),%edx
    33eb:	0f b7 45 f8          	movzwl -0x8(%rbp),%eax
    33ef:	29 c2                	sub    %eax,%edx
    33f1:	89 d0                	mov    %edx,%eax
    33f3:	5d                   	pop    %rbp
    33f4:	c3                   	retq   

00000000000033f5 <safe_mul_func_int16_t_s_s>:
    33f5:	f3 0f 1e fa          	endbr64 
    33f9:	55                   	push   %rbp
    33fa:	48 89 e5             	mov    %rsp,%rbp
    33fd:	89 fa                	mov    %edi,%edx
    33ff:	89 f0                	mov    %esi,%eax
    3401:	66 89 55 fc          	mov    %dx,-0x4(%rbp)
    3405:	66 89 45 f8          	mov    %ax,-0x8(%rbp)
    3409:	0f b7 55 fc          	movzwl -0x4(%rbp),%edx
    340d:	0f b7 45 f8          	movzwl -0x8(%rbp),%eax
    3411:	0f af c2             	imul   %edx,%eax
    3414:	5d                   	pop    %rbp
    3415:	c3                   	retq   

0000000000003416 <safe_mod_func_int16_t_s_s>:
    3416:	f3 0f 1e fa          	endbr64 
    341a:	55                   	push   %rbp
    341b:	48 89 e5             	mov    %rsp,%rbp
    341e:	89 fa                	mov    %edi,%edx
    3420:	89 f0                	mov    %esi,%eax
    3422:	66 89 55 fc          	mov    %dx,-0x4(%rbp)
    3426:	66 89 45 f8          	mov    %ax,-0x8(%rbp)
    342a:	66 83 7d f8 00       	cmpw   $0x0,-0x8(%rbp)
    342f:	74 1e                	je     344f <safe_mod_func_int16_t_s_s+0x39>
    3431:	66 81 7d fc 00 80    	cmpw   $0x8000,-0x4(%rbp)
    3437:	75 07                	jne    3440 <safe_mod_func_int16_t_s_s+0x2a>
    3439:	66 83 7d f8 ff       	cmpw   $0xffff,-0x8(%rbp)
    343e:	74 0f                	je     344f <safe_mod_func_int16_t_s_s+0x39>
    3440:	0f bf 45 fc          	movswl -0x4(%rbp),%eax
    3444:	0f bf 4d f8          	movswl -0x8(%rbp),%ecx
    3448:	99                   	cltd   
    3449:	f7 f9                	idiv   %ecx
    344b:	89 d0                	mov    %edx,%eax
    344d:	eb 04                	jmp    3453 <safe_mod_func_int16_t_s_s+0x3d>
    344f:	0f b7 45 fc          	movzwl -0x4(%rbp),%eax
    3453:	5d                   	pop    %rbp
    3454:	c3                   	retq   

0000000000003455 <safe_div_func_int16_t_s_s>:
    3455:	f3 0f 1e fa          	endbr64 
    3459:	55                   	push   %rbp
    345a:	48 89 e5             	mov    %rsp,%rbp
    345d:	89 fa                	mov    %edi,%edx
    345f:	89 f0                	mov    %esi,%eax
    3461:	66 89 55 fc          	mov    %dx,-0x4(%rbp)
    3465:	66 89 45 f8          	mov    %ax,-0x8(%rbp)
    3469:	66 83 7d f8 00       	cmpw   $0x0,-0x8(%rbp)
    346e:	74 1c                	je     348c <safe_div_func_int16_t_s_s+0x37>
    3470:	66 81 7d fc 00 80    	cmpw   $0x8000,-0x4(%rbp)
    3476:	75 07                	jne    347f <safe_div_func_int16_t_s_s+0x2a>
    3478:	66 83 7d f8 ff       	cmpw   $0xffff,-0x8(%rbp)
    347d:	74 0d                	je     348c <safe_div_func_int16_t_s_s+0x37>
    347f:	0f bf 45 fc          	movswl -0x4(%rbp),%eax
    3483:	0f bf 4d f8          	movswl -0x8(%rbp),%ecx
    3487:	99                   	cltd   
    3488:	f7 f9                	idiv   %ecx
    348a:	eb 04                	jmp    3490 <safe_div_func_int16_t_s_s+0x3b>
    348c:	0f b7 45 fc          	movzwl -0x4(%rbp),%eax
    3490:	5d                   	pop    %rbp
    3491:	c3                   	retq   

0000000000003492 <safe_lshift_func_int16_t_s_s>:
    3492:	f3 0f 1e fa          	endbr64 
    3496:	55                   	push   %rbp
    3497:	48 89 e5             	mov    %rsp,%rbp
    349a:	89 f8                	mov    %edi,%eax
    349c:	89 75 f8             	mov    %esi,-0x8(%rbp)
    349f:	66 89 45 fc          	mov    %ax,-0x4(%rbp)
    34a3:	66 83 7d fc 00       	cmpw   $0x0,-0x4(%rbp)
    34a8:	78 31                	js     34db <safe_lshift_func_int16_t_s_s+0x49>
    34aa:	83 7d f8 00          	cmpl   $0x0,-0x8(%rbp)
    34ae:	78 2b                	js     34db <safe_lshift_func_int16_t_s_s+0x49>
    34b0:	83 7d f8 1f          	cmpl   $0x1f,-0x8(%rbp)
    34b4:	7f 25                	jg     34db <safe_lshift_func_int16_t_s_s+0x49>
    34b6:	0f bf 55 fc          	movswl -0x4(%rbp),%edx
    34ba:	8b 45 f8             	mov    -0x8(%rbp),%eax
    34bd:	be ff 7f 00 00       	mov    $0x7fff,%esi
    34c2:	89 c1                	mov    %eax,%ecx
    34c4:	d3 fe                	sar    %cl,%esi
    34c6:	89 f0                	mov    %esi,%eax
    34c8:	39 c2                	cmp    %eax,%edx
    34ca:	7f 0f                	jg     34db <safe_lshift_func_int16_t_s_s+0x49>
    34cc:	0f bf 55 fc          	movswl -0x4(%rbp),%edx
    34d0:	8b 45 f8             	mov    -0x8(%rbp),%eax
    34d3:	89 c1                	mov    %eax,%ecx
    34d5:	d3 e2                	shl    %cl,%edx
    34d7:	89 d0                	mov    %edx,%eax
    34d9:	eb 04                	jmp    34df <safe_lshift_func_int16_t_s_s+0x4d>
    34db:	0f b7 45 fc          	movzwl -0x4(%rbp),%eax
    34df:	5d                   	pop    %rbp
    34e0:	c3                   	retq   

00000000000034e1 <safe_lshift_func_int16_t_s_u>:
    34e1:	f3 0f 1e fa          	endbr64 
    34e5:	55                   	push   %rbp
    34e6:	48 89 e5             	mov    %rsp,%rbp
    34e9:	89 f8                	mov    %edi,%eax
    34eb:	89 75 f8             	mov    %esi,-0x8(%rbp)
    34ee:	66 89 45 fc          	mov    %ax,-0x4(%rbp)
    34f2:	66 83 7d fc 00       	cmpw   $0x0,-0x4(%rbp)
    34f7:	78 2b                	js     3524 <safe_lshift_func_int16_t_s_u+0x43>
    34f9:	83 7d f8 1f          	cmpl   $0x1f,-0x8(%rbp)
    34fd:	77 25                	ja     3524 <safe_lshift_func_int16_t_s_u+0x43>
    34ff:	0f bf 55 fc          	movswl -0x4(%rbp),%edx
    3503:	8b 45 f8             	mov    -0x8(%rbp),%eax
    3506:	be ff 7f 00 00       	mov    $0x7fff,%esi
    350b:	89 c1                	mov    %eax,%ecx
    350d:	d3 fe                	sar    %cl,%esi
    350f:	89 f0                	mov    %esi,%eax
    3511:	39 c2                	cmp    %eax,%edx
    3513:	7f 0f                	jg     3524 <safe_lshift_func_int16_t_s_u+0x43>
    3515:	0f bf 55 fc          	movswl -0x4(%rbp),%edx
    3519:	8b 45 f8             	mov    -0x8(%rbp),%eax
    351c:	89 c1                	mov    %eax,%ecx
    351e:	d3 e2                	shl    %cl,%edx
    3520:	89 d0                	mov    %edx,%eax
    3522:	eb 04                	jmp    3528 <safe_lshift_func_int16_t_s_u+0x47>
    3524:	0f b7 45 fc          	movzwl -0x4(%rbp),%eax
    3528:	5d                   	pop    %rbp
    3529:	c3                   	retq   

000000000000352a <safe_rshift_func_int16_t_s_s>:
    352a:	f3 0f 1e fa          	endbr64 
    352e:	55                   	push   %rbp
    352f:	48 89 e5             	mov    %rsp,%rbp
    3532:	89 f8                	mov    %edi,%eax
    3534:	89 75 f8             	mov    %esi,-0x8(%rbp)
    3537:	66 89 45 fc          	mov    %ax,-0x4(%rbp)
    353b:	66 83 7d fc 00       	cmpw   $0x0,-0x4(%rbp)
    3540:	78 1b                	js     355d <safe_rshift_func_int16_t_s_s+0x33>
    3542:	83 7d f8 00          	cmpl   $0x0,-0x8(%rbp)
    3546:	78 15                	js     355d <safe_rshift_func_int16_t_s_s+0x33>
    3548:	83 7d f8 1f          	cmpl   $0x1f,-0x8(%rbp)
    354c:	7f 0f                	jg     355d <safe_rshift_func_int16_t_s_s+0x33>
    354e:	0f bf 55 fc          	movswl -0x4(%rbp),%edx
    3552:	8b 45 f8             	mov    -0x8(%rbp),%eax
    3555:	89 c1                	mov    %eax,%ecx
    3557:	d3 fa                	sar    %cl,%edx
    3559:	89 d0                	mov    %edx,%eax
    355b:	eb 04                	jmp    3561 <safe_rshift_func_int16_t_s_s+0x37>
    355d:	0f b7 45 fc          	movzwl -0x4(%rbp),%eax
    3561:	5d                   	pop    %rbp
    3562:	c3                   	retq   

0000000000003563 <safe_rshift_func_int16_t_s_u>:
    3563:	f3 0f 1e fa          	endbr64 
    3567:	55                   	push   %rbp
    3568:	48 89 e5             	mov    %rsp,%rbp
    356b:	89 f8                	mov    %edi,%eax
    356d:	89 75 f8             	mov    %esi,-0x8(%rbp)
    3570:	66 89 45 fc          	mov    %ax,-0x4(%rbp)
    3574:	66 83 7d fc 00       	cmpw   $0x0,-0x4(%rbp)
    3579:	78 15                	js     3590 <safe_rshift_func_int16_t_s_u+0x2d>
    357b:	83 7d f8 1f          	cmpl   $0x1f,-0x8(%rbp)
    357f:	77 0f                	ja     3590 <safe_rshift_func_int16_t_s_u+0x2d>
    3581:	0f bf 55 fc          	movswl -0x4(%rbp),%edx
    3585:	8b 45 f8             	mov    -0x8(%rbp),%eax
    3588:	89 c1                	mov    %eax,%ecx
    358a:	d3 fa                	sar    %cl,%edx
    358c:	89 d0                	mov    %edx,%eax
    358e:	eb 04                	jmp    3594 <safe_rshift_func_int16_t_s_u+0x31>
    3590:	0f b7 45 fc          	movzwl -0x4(%rbp),%eax
    3594:	5d                   	pop    %rbp
    3595:	c3                   	retq   

0000000000003596 <safe_unary_minus_func_int32_t_s>:
    3596:	f3 0f 1e fa          	endbr64 
    359a:	55                   	push   %rbp
    359b:	48 89 e5             	mov    %rsp,%rbp
    359e:	89 7d fc             	mov    %edi,-0x4(%rbp)
    35a1:	81 7d fc 00 00 00 80 	cmpl   $0x80000000,-0x4(%rbp)
    35a8:	74 07                	je     35b1 <safe_unary_minus_func_int32_t_s+0x1b>
    35aa:	8b 45 fc             	mov    -0x4(%rbp),%eax
    35ad:	f7 d8                	neg    %eax
    35af:	eb 03                	jmp    35b4 <safe_unary_minus_func_int32_t_s+0x1e>
    35b1:	8b 45 fc             	mov    -0x4(%rbp),%eax
    35b4:	5d                   	pop    %rbp
    35b5:	c3                   	retq   

00000000000035b6 <safe_add_func_int32_t_s_s>:
    35b6:	f3 0f 1e fa          	endbr64 
    35ba:	55                   	push   %rbp
    35bb:	48 89 e5             	mov    %rsp,%rbp
    35be:	89 7d fc             	mov    %edi,-0x4(%rbp)
    35c1:	89 75 f8             	mov    %esi,-0x8(%rbp)
    35c4:	83 7d fc 00          	cmpl   $0x0,-0x4(%rbp)
    35c8:	7e 13                	jle    35dd <safe_add_func_int32_t_s_s+0x27>
    35ca:	83 7d f8 00          	cmpl   $0x0,-0x8(%rbp)
    35ce:	7e 0d                	jle    35dd <safe_add_func_int32_t_s_s+0x27>
    35d0:	b8 ff ff ff 7f       	mov    $0x7fffffff,%eax
    35d5:	2b 45 f8             	sub    -0x8(%rbp),%eax
    35d8:	39 45 fc             	cmp    %eax,-0x4(%rbp)
    35db:	7f 23                	jg     3600 <safe_add_func_int32_t_s_s+0x4a>
    35dd:	83 7d fc 00          	cmpl   $0x0,-0x4(%rbp)
    35e1:	79 13                	jns    35f6 <safe_add_func_int32_t_s_s+0x40>
    35e3:	83 7d f8 00          	cmpl   $0x0,-0x8(%rbp)
    35e7:	79 0d                	jns    35f6 <safe_add_func_int32_t_s_s+0x40>
    35e9:	b8 00 00 00 80       	mov    $0x80000000,%eax
    35ee:	2b 45 f8             	sub    -0x8(%rbp),%eax
    35f1:	39 45 fc             	cmp    %eax,-0x4(%rbp)
    35f4:	7c 0a                	jl     3600 <safe_add_func_int32_t_s_s+0x4a>
    35f6:	8b 55 fc             	mov    -0x4(%rbp),%edx
    35f9:	8b 45 f8             	mov    -0x8(%rbp),%eax
    35fc:	01 d0                	add    %edx,%eax
    35fe:	eb 03                	jmp    3603 <safe_add_func_int32_t_s_s+0x4d>
    3600:	8b 45 fc             	mov    -0x4(%rbp),%eax
    3603:	5d                   	pop    %rbp
    3604:	c3                   	retq   

0000000000003605 <safe_sub_func_int32_t_s_s>:
    3605:	f3 0f 1e fa          	endbr64 
    3609:	55                   	push   %rbp
    360a:	48 89 e5             	mov    %rsp,%rbp
    360d:	89 7d fc             	mov    %edi,-0x4(%rbp)
    3610:	89 75 f8             	mov    %esi,-0x8(%rbp)
    3613:	8b 45 fc             	mov    -0x4(%rbp),%eax
    3616:	33 45 f8             	xor    -0x8(%rbp),%eax
    3619:	89 c2                	mov    %eax,%edx
    361b:	8b 45 fc             	mov    -0x4(%rbp),%eax
    361e:	33 45 f8             	xor    -0x8(%rbp),%eax
    3621:	25 00 00 00 80       	and    $0x80000000,%eax
    3626:	33 45 fc             	xor    -0x4(%rbp),%eax
    3629:	2b 45 f8             	sub    -0x8(%rbp),%eax
    362c:	33 45 f8             	xor    -0x8(%rbp),%eax
    362f:	21 d0                	and    %edx,%eax
    3631:	85 c0                	test   %eax,%eax
    3633:	78 08                	js     363d <safe_sub_func_int32_t_s_s+0x38>
    3635:	8b 45 fc             	mov    -0x4(%rbp),%eax
    3638:	2b 45 f8             	sub    -0x8(%rbp),%eax
    363b:	eb 03                	jmp    3640 <safe_sub_func_int32_t_s_s+0x3b>
    363d:	8b 45 fc             	mov    -0x4(%rbp),%eax
    3640:	5d                   	pop    %rbp
    3641:	c3                   	retq   

0000000000003642 <safe_mul_func_int32_t_s_s>:
    3642:	f3 0f 1e fa          	endbr64 
    3646:	55                   	push   %rbp
    3647:	48 89 e5             	mov    %rsp,%rbp
    364a:	89 7d fc             	mov    %edi,-0x4(%rbp)
    364d:	89 75 f8             	mov    %esi,-0x8(%rbp)
    3650:	83 7d fc 00          	cmpl   $0x0,-0x4(%rbp)
    3654:	7e 14                	jle    366a <safe_mul_func_int32_t_s_s+0x28>
    3656:	83 7d f8 00          	cmpl   $0x0,-0x8(%rbp)
    365a:	7e 0e                	jle    366a <safe_mul_func_int32_t_s_s+0x28>
    365c:	b8 ff ff ff 7f       	mov    $0x7fffffff,%eax
    3661:	99                   	cltd   
    3662:	f7 7d f8             	idivl  -0x8(%rbp)
    3665:	39 45 fc             	cmp    %eax,-0x4(%rbp)
    3668:	7f 5d                	jg     36c7 <safe_mul_func_int32_t_s_s+0x85>
    366a:	83 7d fc 00          	cmpl   $0x0,-0x4(%rbp)
    366e:	7e 14                	jle    3684 <safe_mul_func_int32_t_s_s+0x42>
    3670:	83 7d f8 00          	cmpl   $0x0,-0x8(%rbp)
    3674:	7f 0e                	jg     3684 <safe_mul_func_int32_t_s_s+0x42>
    3676:	b8 00 00 00 80       	mov    $0x80000000,%eax
    367b:	99                   	cltd   
    367c:	f7 7d fc             	idivl  -0x4(%rbp)
    367f:	39 45 f8             	cmp    %eax,-0x8(%rbp)
    3682:	7c 43                	jl     36c7 <safe_mul_func_int32_t_s_s+0x85>
    3684:	83 7d fc 00          	cmpl   $0x0,-0x4(%rbp)
    3688:	7f 14                	jg     369e <safe_mul_func_int32_t_s_s+0x5c>
    368a:	83 7d f8 00          	cmpl   $0x0,-0x8(%rbp)
    368e:	7e 0e                	jle    369e <safe_mul_func_int32_t_s_s+0x5c>
    3690:	b8 00 00 00 80       	mov    $0x80000000,%eax
    3695:	99                   	cltd   
    3696:	f7 7d f8             	idivl  -0x8(%rbp)
    3699:	39 45 fc             	cmp    %eax,-0x4(%rbp)
    369c:	7c 29                	jl     36c7 <safe_mul_func_int32_t_s_s+0x85>
    369e:	83 7d fc 00          	cmpl   $0x0,-0x4(%rbp)
    36a2:	7f 1a                	jg     36be <safe_mul_func_int32_t_s_s+0x7c>
    36a4:	83 7d f8 00          	cmpl   $0x0,-0x8(%rbp)
    36a8:	7f 14                	jg     36be <safe_mul_func_int32_t_s_s+0x7c>
    36aa:	83 7d fc 00          	cmpl   $0x0,-0x4(%rbp)
    36ae:	74 0e                	je     36be <safe_mul_func_int32_t_s_s+0x7c>
    36b0:	b8 ff ff ff 7f       	mov    $0x7fffffff,%eax
    36b5:	99                   	cltd   
    36b6:	f7 7d fc             	idivl  -0x4(%rbp)
    36b9:	39 45 f8             	cmp    %eax,-0x8(%rbp)
    36bc:	7c 09                	jl     36c7 <safe_mul_func_int32_t_s_s+0x85>
    36be:	8b 45 fc             	mov    -0x4(%rbp),%eax
    36c1:	0f af 45 f8          	imul   -0x8(%rbp),%eax
    36c5:	eb 03                	jmp    36ca <safe_mul_func_int32_t_s_s+0x88>
    36c7:	8b 45 fc             	mov    -0x4(%rbp),%eax
    36ca:	5d                   	pop    %rbp
    36cb:	c3                   	retq   

00000000000036cc <safe_mod_func_int32_t_s_s>:
    36cc:	f3 0f 1e fa          	endbr64 
    36d0:	55                   	push   %rbp
    36d1:	48 89 e5             	mov    %rsp,%rbp
    36d4:	89 7d fc             	mov    %edi,-0x4(%rbp)
    36d7:	89 75 f8             	mov    %esi,-0x8(%rbp)
    36da:	83 7d f8 00          	cmpl   $0x0,-0x8(%rbp)
    36de:	74 1a                	je     36fa <safe_mod_func_int32_t_s_s+0x2e>
    36e0:	81 7d fc 00 00 00 80 	cmpl   $0x80000000,-0x4(%rbp)
    36e7:	75 06                	jne    36ef <safe_mod_func_int32_t_s_s+0x23>
    36e9:	83 7d f8 ff          	cmpl   $0xffffffff,-0x8(%rbp)
    36ed:	74 0b                	je     36fa <safe_mod_func_int32_t_s_s+0x2e>
    36ef:	8b 45 fc             	mov    -0x4(%rbp),%eax
    36f2:	99                   	cltd   
    36f3:	f7 7d f8             	idivl  -0x8(%rbp)
    36f6:	89 d0                	mov    %edx,%eax
    36f8:	eb 03                	jmp    36fd <safe_mod_func_int32_t_s_s+0x31>
    36fa:	8b 45 fc             	mov    -0x4(%rbp),%eax
    36fd:	5d                   	pop    %rbp
    36fe:	c3                   	retq   

00000000000036ff <safe_div_func_int32_t_s_s>:
    36ff:	f3 0f 1e fa          	endbr64 
    3703:	55                   	push   %rbp
    3704:	48 89 e5             	mov    %rsp,%rbp
    3707:	89 7d fc             	mov    %edi,-0x4(%rbp)
    370a:	89 75 f8             	mov    %esi,-0x8(%rbp)
    370d:	83 7d f8 00          	cmpl   $0x0,-0x8(%rbp)
    3711:	74 18                	je     372b <safe_div_func_int32_t_s_s+0x2c>
    3713:	81 7d fc 00 00 00 80 	cmpl   $0x80000000,-0x4(%rbp)
    371a:	75 06                	jne    3722 <safe_div_func_int32_t_s_s+0x23>
    371c:	83 7d f8 ff          	cmpl   $0xffffffff,-0x8(%rbp)
    3720:	74 09                	je     372b <safe_div_func_int32_t_s_s+0x2c>
    3722:	8b 45 fc             	mov    -0x4(%rbp),%eax
    3725:	99                   	cltd   
    3726:	f7 7d f8             	idivl  -0x8(%rbp)
    3729:	eb 03                	jmp    372e <safe_div_func_int32_t_s_s+0x2f>
    372b:	8b 45 fc             	mov    -0x4(%rbp),%eax
    372e:	5d                   	pop    %rbp
    372f:	c3                   	retq   

0000000000003730 <safe_lshift_func_int32_t_s_s>:
    3730:	f3 0f 1e fa          	endbr64 
    3734:	55                   	push   %rbp
    3735:	48 89 e5             	mov    %rsp,%rbp
    3738:	89 7d fc             	mov    %edi,-0x4(%rbp)
    373b:	89 75 f8             	mov    %esi,-0x8(%rbp)
    373e:	83 7d fc 00          	cmpl   $0x0,-0x4(%rbp)
    3742:	78 2d                	js     3771 <safe_lshift_func_int32_t_s_s+0x41>
    3744:	83 7d f8 00          	cmpl   $0x0,-0x8(%rbp)
    3748:	78 27                	js     3771 <safe_lshift_func_int32_t_s_s+0x41>
    374a:	83 7d f8 1f          	cmpl   $0x1f,-0x8(%rbp)
    374e:	7f 21                	jg     3771 <safe_lshift_func_int32_t_s_s+0x41>
    3750:	8b 45 f8             	mov    -0x8(%rbp),%eax
    3753:	ba ff ff ff 7f       	mov    $0x7fffffff,%edx
    3758:	89 c1                	mov    %eax,%ecx
    375a:	d3 fa                	sar    %cl,%edx
    375c:	89 d0                	mov    %edx,%eax
    375e:	39 45 fc             	cmp    %eax,-0x4(%rbp)
    3761:	7f 0e                	jg     3771 <safe_lshift_func_int32_t_s_s+0x41>
    3763:	8b 45 f8             	mov    -0x8(%rbp),%eax
    3766:	8b 55 fc             	mov    -0x4(%rbp),%edx
    3769:	89 c1                	mov    %eax,%ecx
    376b:	d3 e2                	shl    %cl,%edx
    376d:	89 d0                	mov    %edx,%eax
    376f:	eb 03                	jmp    3774 <safe_lshift_func_int32_t_s_s+0x44>
    3771:	8b 45 fc             	mov    -0x4(%rbp),%eax
    3774:	5d                   	pop    %rbp
    3775:	c3                   	retq   

0000000000003776 <safe_lshift_func_int32_t_s_u>:
    3776:	f3 0f 1e fa          	endbr64 
    377a:	55                   	push   %rbp
    377b:	48 89 e5             	mov    %rsp,%rbp
    377e:	89 7d fc             	mov    %edi,-0x4(%rbp)
    3781:	89 75 f8             	mov    %esi,-0x8(%rbp)
    3784:	83 7d fc 00          	cmpl   $0x0,-0x4(%rbp)
    3788:	78 27                	js     37b1 <safe_lshift_func_int32_t_s_u+0x3b>
    378a:	83 7d f8 1f          	cmpl   $0x1f,-0x8(%rbp)
    378e:	77 21                	ja     37b1 <safe_lshift_func_int32_t_s_u+0x3b>
    3790:	8b 45 f8             	mov    -0x8(%rbp),%eax
    3793:	ba ff ff ff 7f       	mov    $0x7fffffff,%edx
    3798:	89 c1                	mov    %eax,%ecx
    379a:	d3 fa                	sar    %cl,%edx
    379c:	89 d0                	mov    %edx,%eax
    379e:	39 45 fc             	cmp    %eax,-0x4(%rbp)
    37a1:	7f 0e                	jg     37b1 <safe_lshift_func_int32_t_s_u+0x3b>
    37a3:	8b 45 f8             	mov    -0x8(%rbp),%eax
    37a6:	8b 55 fc             	mov    -0x4(%rbp),%edx
    37a9:	89 c1                	mov    %eax,%ecx
    37ab:	d3 e2                	shl    %cl,%edx
    37ad:	89 d0                	mov    %edx,%eax
    37af:	eb 03                	jmp    37b4 <safe_lshift_func_int32_t_s_u+0x3e>
    37b1:	8b 45 fc             	mov    -0x4(%rbp),%eax
    37b4:	5d                   	pop    %rbp
    37b5:	c3                   	retq   

00000000000037b6 <safe_rshift_func_int32_t_s_s>:
    37b6:	f3 0f 1e fa          	endbr64 
    37ba:	55                   	push   %rbp
    37bb:	48 89 e5             	mov    %rsp,%rbp
    37be:	89 7d fc             	mov    %edi,-0x4(%rbp)
    37c1:	89 75 f8             	mov    %esi,-0x8(%rbp)
    37c4:	83 7d fc 00          	cmpl   $0x0,-0x4(%rbp)
    37c8:	78 1a                	js     37e4 <safe_rshift_func_int32_t_s_s+0x2e>
    37ca:	83 7d f8 00          	cmpl   $0x0,-0x8(%rbp)
    37ce:	78 14                	js     37e4 <safe_rshift_func_int32_t_s_s+0x2e>
    37d0:	83 7d f8 1f          	cmpl   $0x1f,-0x8(%rbp)
    37d4:	7f 0e                	jg     37e4 <safe_rshift_func_int32_t_s_s+0x2e>
    37d6:	8b 45 f8             	mov    -0x8(%rbp),%eax
    37d9:	8b 55 fc             	mov    -0x4(%rbp),%edx
    37dc:	89 c1                	mov    %eax,%ecx
    37de:	d3 fa                	sar    %cl,%edx
    37e0:	89 d0                	mov    %edx,%eax
    37e2:	eb 03                	jmp    37e7 <safe_rshift_func_int32_t_s_s+0x31>
    37e4:	8b 45 fc             	mov    -0x4(%rbp),%eax
    37e7:	5d                   	pop    %rbp
    37e8:	c3                   	retq   

00000000000037e9 <safe_rshift_func_int32_t_s_u>:
    37e9:	f3 0f 1e fa          	endbr64 
    37ed:	55                   	push   %rbp
    37ee:	48 89 e5             	mov    %rsp,%rbp
    37f1:	89 7d fc             	mov    %edi,-0x4(%rbp)
    37f4:	89 75 f8             	mov    %esi,-0x8(%rbp)
    37f7:	83 7d fc 00          	cmpl   $0x0,-0x4(%rbp)
    37fb:	78 14                	js     3811 <safe_rshift_func_int32_t_s_u+0x28>
    37fd:	83 7d f8 1f          	cmpl   $0x1f,-0x8(%rbp)
    3801:	77 0e                	ja     3811 <safe_rshift_func_int32_t_s_u+0x28>
    3803:	8b 45 f8             	mov    -0x8(%rbp),%eax
    3806:	8b 55 fc             	mov    -0x4(%rbp),%edx
    3809:	89 c1                	mov    %eax,%ecx
    380b:	d3 fa                	sar    %cl,%edx
    380d:	89 d0                	mov    %edx,%eax
    380f:	eb 03                	jmp    3814 <safe_rshift_func_int32_t_s_u+0x2b>
    3811:	8b 45 fc             	mov    -0x4(%rbp),%eax
    3814:	5d                   	pop    %rbp
    3815:	c3                   	retq   

0000000000003816 <safe_unary_minus_func_int64_t_s>:
    3816:	f3 0f 1e fa          	endbr64 
    381a:	55                   	push   %rbp
    381b:	48 89 e5             	mov    %rsp,%rbp
    381e:	48 89 7d f8          	mov    %rdi,-0x8(%rbp)
    3822:	48 b8 00 00 00 00 00 	movabs $0x8000000000000000,%rax
    3829:	00 00 80 
    382c:	48 39 45 f8          	cmp    %rax,-0x8(%rbp)
    3830:	74 09                	je     383b <safe_unary_minus_func_int64_t_s+0x25>
    3832:	48 8b 45 f8          	mov    -0x8(%rbp),%rax
    3836:	48 f7 d8             	neg    %rax
    3839:	eb 04                	jmp    383f <safe_unary_minus_func_int64_t_s+0x29>
    383b:	48 8b 45 f8          	mov    -0x8(%rbp),%rax
    383f:	5d                   	pop    %rbp
    3840:	c3                   	retq   

0000000000003841 <safe_add_func_int64_t_s_s>:
    3841:	f3 0f 1e fa          	endbr64 
    3845:	55                   	push   %rbp
    3846:	48 89 e5             	mov    %rsp,%rbp
    3849:	48 89 7d f8          	mov    %rdi,-0x8(%rbp)
    384d:	48 89 75 f0          	mov    %rsi,-0x10(%rbp)
    3851:	48 83 7d f8 00       	cmpq   $0x0,-0x8(%rbp)
    3856:	7e 1b                	jle    3873 <safe_add_func_int64_t_s_s+0x32>
    3858:	48 83 7d f0 00       	cmpq   $0x0,-0x10(%rbp)
    385d:	7e 14                	jle    3873 <safe_add_func_int64_t_s_s+0x32>
    385f:	48 b8 ff ff ff ff ff 	movabs $0x7fffffffffffffff,%rax
    3866:	ff ff 7f 
    3869:	48 2b 45 f0          	sub    -0x10(%rbp),%rax
    386d:	48 39 45 f8          	cmp    %rax,-0x8(%rbp)
    3871:	7f 2f                	jg     38a2 <safe_add_func_int64_t_s_s+0x61>
    3873:	48 83 7d f8 00       	cmpq   $0x0,-0x8(%rbp)
    3878:	79 1b                	jns    3895 <safe_add_func_int64_t_s_s+0x54>
    387a:	48 83 7d f0 00       	cmpq   $0x0,-0x10(%rbp)
    387f:	79 14                	jns    3895 <safe_add_func_int64_t_s_s+0x54>
    3881:	48 b8 00 00 00 00 00 	movabs $0x8000000000000000,%rax
    3888:	00 00 80 
    388b:	48 2b 45 f0          	sub    -0x10(%rbp),%rax
    388f:	48 39 45 f8          	cmp    %rax,-0x8(%rbp)
    3893:	7c 0d                	jl     38a2 <safe_add_func_int64_t_s_s+0x61>
    3895:	48 8b 55 f8          	mov    -0x8(%rbp),%rdx
    3899:	48 8b 45 f0          	mov    -0x10(%rbp),%rax
    389d:	48 01 d0             	add    %rdx,%rax
    38a0:	eb 04                	jmp    38a6 <safe_add_func_int64_t_s_s+0x65>
    38a2:	48 8b 45 f8          	mov    -0x8(%rbp),%rax
    38a6:	5d                   	pop    %rbp
    38a7:	c3                   	retq   

00000000000038a8 <safe_sub_func_int64_t_s_s>:
    38a8:	f3 0f 1e fa          	endbr64 
    38ac:	55                   	push   %rbp
    38ad:	48 89 e5             	mov    %rsp,%rbp
    38b0:	48 89 7d f8          	mov    %rdi,-0x8(%rbp)
    38b4:	48 89 75 f0          	mov    %rsi,-0x10(%rbp)
    38b8:	48 8b 45 f8          	mov    -0x8(%rbp),%rax
    38bc:	48 33 45 f0          	xor    -0x10(%rbp),%rax
    38c0:	48 89 c2             	mov    %rax,%rdx
    38c3:	48 8b 45 f8          	mov    -0x8(%rbp),%rax
    38c7:	48 33 45 f0          	xor    -0x10(%rbp),%rax
    38cb:	48 b9 00 00 00 00 00 	movabs $0x8000000000000000,%rcx
    38d2:	00 00 80 
    38d5:	48 21 c8             	and    %rcx,%rax
    38d8:	48 33 45 f8          	xor    -0x8(%rbp),%rax
    38dc:	48 2b 45 f0          	sub    -0x10(%rbp),%rax
    38e0:	48 33 45 f0          	xor    -0x10(%rbp),%rax
    38e4:	48 21 d0             	and    %rdx,%rax
    38e7:	48 85 c0             	test   %rax,%rax
    38ea:	78 0a                	js     38f6 <safe_sub_func_int64_t_s_s+0x4e>
    38ec:	48 8b 45 f8          	mov    -0x8(%rbp),%rax
    38f0:	48 2b 45 f0          	sub    -0x10(%rbp),%rax
    38f4:	eb 04                	jmp    38fa <safe_sub_func_int64_t_s_s+0x52>
    38f6:	48 8b 45 f8          	mov    -0x8(%rbp),%rax
    38fa:	5d                   	pop    %rbp
    38fb:	c3                   	retq   

00000000000038fc <safe_mul_func_int64_t_s_s>:
    38fc:	f3 0f 1e fa          	endbr64 
    3900:	55                   	push   %rbp
    3901:	48 89 e5             	mov    %rsp,%rbp
    3904:	48 89 7d f8          	mov    %rdi,-0x8(%rbp)
    3908:	48 89 75 f0          	mov    %rsi,-0x10(%rbp)
    390c:	48 83 7d f8 00       	cmpq   $0x0,-0x8(%rbp)
    3911:	7e 1d                	jle    3930 <safe_mul_func_int64_t_s_s+0x34>
    3913:	48 83 7d f0 00       	cmpq   $0x0,-0x10(%rbp)
    3918:	7e 16                	jle    3930 <safe_mul_func_int64_t_s_s+0x34>
    391a:	48 b8 ff ff ff ff ff 	movabs $0x7fffffffffffffff,%rax
    3921:	ff ff 7f 
    3924:	48 99                	cqto   
    3926:	48 f7 7d f0          	idivq  -0x10(%rbp)
    392a:	48 39 45 f8          	cmp    %rax,-0x8(%rbp)
    392e:	7f 7e                	jg     39ae <safe_mul_func_int64_t_s_s+0xb2>
    3930:	48 83 7d f8 00       	cmpq   $0x0,-0x8(%rbp)
    3935:	7e 1d                	jle    3954 <safe_mul_func_int64_t_s_s+0x58>
    3937:	48 83 7d f0 00       	cmpq   $0x0,-0x10(%rbp)
    393c:	7f 16                	jg     3954 <safe_mul_func_int64_t_s_s+0x58>
    393e:	48 b8 00 00 00 00 00 	movabs $0x8000000000000000,%rax
    3945:	00 00 80 
    3948:	48 99                	cqto   
    394a:	48 f7 7d f8          	idivq  -0x8(%rbp)
    394e:	48 39 45 f0          	cmp    %rax,-0x10(%rbp)
    3952:	7c 5a                	jl     39ae <safe_mul_func_int64_t_s_s+0xb2>
    3954:	48 83 7d f8 00       	cmpq   $0x0,-0x8(%rbp)
    3959:	7f 1d                	jg     3978 <safe_mul_func_int64_t_s_s+0x7c>
    395b:	48 83 7d f0 00       	cmpq   $0x0,-0x10(%rbp)
    3960:	7e 16                	jle    3978 <safe_mul_func_int64_t_s_s+0x7c>
    3962:	48 b8 00 00 00 00 00 	movabs $0x8000000000000000,%rax
    3969:	00 00 80 
    396c:	48 99                	cqto   
    396e:	48 f7 7d f0          	idivq  -0x10(%rbp)
    3972:	48 39 45 f8          	cmp    %rax,-0x8(%rbp)
    3976:	7c 36                	jl     39ae <safe_mul_func_int64_t_s_s+0xb2>
    3978:	48 83 7d f8 00       	cmpq   $0x0,-0x8(%rbp)
    397d:	7f 24                	jg     39a3 <safe_mul_func_int64_t_s_s+0xa7>
    397f:	48 83 7d f0 00       	cmpq   $0x0,-0x10(%rbp)
    3984:	7f 1d                	jg     39a3 <safe_mul_func_int64_t_s_s+0xa7>
    3986:	48 83 7d f8 00       	cmpq   $0x0,-0x8(%rbp)
    398b:	74 16                	je     39a3 <safe_mul_func_int64_t_s_s+0xa7>
    398d:	48 b8 ff ff ff ff ff 	movabs $0x7fffffffffffffff,%rax
    3994:	ff ff 7f 
    3997:	48 99                	cqto   
    3999:	48 f7 7d f8          	idivq  -0x8(%rbp)
    399d:	48 39 45 f0          	cmp    %rax,-0x10(%rbp)
    39a1:	7c 0b                	jl     39ae <safe_mul_func_int64_t_s_s+0xb2>
    39a3:	48 8b 45 f8          	mov    -0x8(%rbp),%rax
    39a7:	48 0f af 45 f0       	imul   -0x10(%rbp),%rax
    39ac:	eb 04                	jmp    39b2 <safe_mul_func_int64_t_s_s+0xb6>
    39ae:	48 8b 45 f8          	mov    -0x8(%rbp),%rax
    39b2:	5d                   	pop    %rbp
    39b3:	c3                   	retq   

00000000000039b4 <safe_mod_func_int64_t_s_s>:
    39b4:	f3 0f 1e fa          	endbr64 
    39b8:	55                   	push   %rbp
    39b9:	48 89 e5             	mov    %rsp,%rbp
    39bc:	48 89 7d f8          	mov    %rdi,-0x8(%rbp)
    39c0:	48 89 75 f0          	mov    %rsi,-0x10(%rbp)
    39c4:	48 83 7d f0 00       	cmpq   $0x0,-0x10(%rbp)
    39c9:	74 26                	je     39f1 <safe_mod_func_int64_t_s_s+0x3d>
    39cb:	48 b8 00 00 00 00 00 	movabs $0x8000000000000000,%rax
    39d2:	00 00 80 
    39d5:	48 39 45 f8          	cmp    %rax,-0x8(%rbp)
    39d9:	75 07                	jne    39e2 <safe_mod_func_int64_t_s_s+0x2e>
    39db:	48 83 7d f0 ff       	cmpq   $0xffffffffffffffff,-0x10(%rbp)
    39e0:	74 0f                	je     39f1 <safe_mod_func_int64_t_s_s+0x3d>
    39e2:	48 8b 45 f8          	mov    -0x8(%rbp),%rax
    39e6:	48 99                	cqto   
    39e8:	48 f7 7d f0          	idivq  -0x10(%rbp)
    39ec:	48 89 d0             	mov    %rdx,%rax
    39ef:	eb 04                	jmp    39f5 <safe_mod_func_int64_t_s_s+0x41>
    39f1:	48 8b 45 f8          	mov    -0x8(%rbp),%rax
    39f5:	5d                   	pop    %rbp
    39f6:	c3                   	retq   

00000000000039f7 <safe_div_func_int64_t_s_s>:
    39f7:	f3 0f 1e fa          	endbr64 
    39fb:	55                   	push   %rbp
    39fc:	48 89 e5             	mov    %rsp,%rbp
    39ff:	48 89 7d f8          	mov    %rdi,-0x8(%rbp)
    3a03:	48 89 75 f0          	mov    %rsi,-0x10(%rbp)
    3a07:	48 83 7d f0 00       	cmpq   $0x0,-0x10(%rbp)
    3a0c:	74 23                	je     3a31 <safe_div_func_int64_t_s_s+0x3a>
    3a0e:	48 b8 00 00 00 00 00 	movabs $0x8000000000000000,%rax
    3a15:	00 00 80 
    3a18:	48 39 45 f8          	cmp    %rax,-0x8(%rbp)
    3a1c:	75 07                	jne    3a25 <safe_div_func_int64_t_s_s+0x2e>
    3a1e:	48 83 7d f0 ff       	cmpq   $0xffffffffffffffff,-0x10(%rbp)
    3a23:	74 0c                	je     3a31 <safe_div_func_int64_t_s_s+0x3a>
    3a25:	48 8b 45 f8          	mov    -0x8(%rbp),%rax
    3a29:	48 99                	cqto   
    3a2b:	48 f7 7d f0          	idivq  -0x10(%rbp)
    3a2f:	eb 04                	jmp    3a35 <safe_div_func_int64_t_s_s+0x3e>
    3a31:	48 8b 45 f8          	mov    -0x8(%rbp),%rax
    3a35:	5d                   	pop    %rbp
    3a36:	c3                   	retq   

0000000000003a37 <safe_lshift_func_int64_t_s_s>:
    3a37:	f3 0f 1e fa          	endbr64 
    3a3b:	55                   	push   %rbp
    3a3c:	48 89 e5             	mov    %rsp,%rbp
    3a3f:	48 89 7d f8          	mov    %rdi,-0x8(%rbp)
    3a43:	89 75 f4             	mov    %esi,-0xc(%rbp)
    3a46:	48 83 7d f8 00       	cmpq   $0x0,-0x8(%rbp)
    3a4b:	78 38                	js     3a85 <safe_lshift_func_int64_t_s_s+0x4e>
    3a4d:	83 7d f4 00          	cmpl   $0x0,-0xc(%rbp)
    3a51:	78 32                	js     3a85 <safe_lshift_func_int64_t_s_s+0x4e>
    3a53:	83 7d f4 1f          	cmpl   $0x1f,-0xc(%rbp)
    3a57:	7f 2c                	jg     3a85 <safe_lshift_func_int64_t_s_s+0x4e>
    3a59:	8b 45 f4             	mov    -0xc(%rbp),%eax
    3a5c:	48 ba ff ff ff ff ff 	movabs $0x7fffffffffffffff,%rdx
    3a63:	ff ff 7f 
    3a66:	89 c1                	mov    %eax,%ecx
    3a68:	48 d3 fa             	sar    %cl,%rdx
    3a6b:	48 89 d0             	mov    %rdx,%rax
    3a6e:	48 39 45 f8          	cmp    %rax,-0x8(%rbp)
    3a72:	7f 11                	jg     3a85 <safe_lshift_func_int64_t_s_s+0x4e>
    3a74:	8b 45 f4             	mov    -0xc(%rbp),%eax
    3a77:	48 8b 55 f8          	mov    -0x8(%rbp),%rdx
    3a7b:	89 c1                	mov    %eax,%ecx
    3a7d:	48 d3 e2             	shl    %cl,%rdx
    3a80:	48 89 d0             	mov    %rdx,%rax
    3a83:	eb 04                	jmp    3a89 <safe_lshift_func_int64_t_s_s+0x52>
    3a85:	48 8b 45 f8          	mov    -0x8(%rbp),%rax
    3a89:	5d                   	pop    %rbp
    3a8a:	c3                   	retq   

0000000000003a8b <safe_lshift_func_int64_t_s_u>:
    3a8b:	f3 0f 1e fa          	endbr64 
    3a8f:	55                   	push   %rbp
    3a90:	48 89 e5             	mov    %rsp,%rbp
    3a93:	48 89 7d f8          	mov    %rdi,-0x8(%rbp)
    3a97:	89 75 f4             	mov    %esi,-0xc(%rbp)
    3a9a:	48 83 7d f8 00       	cmpq   $0x0,-0x8(%rbp)
    3a9f:	78 32                	js     3ad3 <safe_lshift_func_int64_t_s_u+0x48>
    3aa1:	83 7d f4 1f          	cmpl   $0x1f,-0xc(%rbp)
    3aa5:	77 2c                	ja     3ad3 <safe_lshift_func_int64_t_s_u+0x48>
    3aa7:	8b 45 f4             	mov    -0xc(%rbp),%eax
    3aaa:	48 ba ff ff ff ff ff 	movabs $0x7fffffffffffffff,%rdx
    3ab1:	ff ff 7f 
    3ab4:	89 c1                	mov    %eax,%ecx
    3ab6:	48 d3 fa             	sar    %cl,%rdx
    3ab9:	48 89 d0             	mov    %rdx,%rax
    3abc:	48 39 45 f8          	cmp    %rax,-0x8(%rbp)
    3ac0:	7f 11                	jg     3ad3 <safe_lshift_func_int64_t_s_u+0x48>
    3ac2:	8b 45 f4             	mov    -0xc(%rbp),%eax
    3ac5:	48 8b 55 f8          	mov    -0x8(%rbp),%rdx
    3ac9:	89 c1                	mov    %eax,%ecx
    3acb:	48 d3 e2             	shl    %cl,%rdx
    3ace:	48 89 d0             	mov    %rdx,%rax
    3ad1:	eb 04                	jmp    3ad7 <safe_lshift_func_int64_t_s_u+0x4c>
    3ad3:	48 8b 45 f8          	mov    -0x8(%rbp),%rax
    3ad7:	5d                   	pop    %rbp
    3ad8:	c3                   	retq   

0000000000003ad9 <safe_rshift_func_int64_t_s_s>:
    3ad9:	f3 0f 1e fa          	endbr64 
    3add:	55                   	push   %rbp
    3ade:	48 89 e5             	mov    %rsp,%rbp
    3ae1:	48 89 7d f8          	mov    %rdi,-0x8(%rbp)
    3ae5:	89 75 f4             	mov    %esi,-0xc(%rbp)
    3ae8:	48 83 7d f8 00       	cmpq   $0x0,-0x8(%rbp)
    3aed:	78 1d                	js     3b0c <safe_rshift_func_int64_t_s_s+0x33>
    3aef:	83 7d f4 00          	cmpl   $0x0,-0xc(%rbp)
    3af3:	78 17                	js     3b0c <safe_rshift_func_int64_t_s_s+0x33>
    3af5:	83 7d f4 1f          	cmpl   $0x1f,-0xc(%rbp)
    3af9:	7f 11                	jg     3b0c <safe_rshift_func_int64_t_s_s+0x33>
    3afb:	8b 45 f4             	mov    -0xc(%rbp),%eax
    3afe:	48 8b 55 f8          	mov    -0x8(%rbp),%rdx
    3b02:	89 c1                	mov    %eax,%ecx
    3b04:	48 d3 fa             	sar    %cl,%rdx
    3b07:	48 89 d0             	mov    %rdx,%rax
    3b0a:	eb 04                	jmp    3b10 <safe_rshift_func_int64_t_s_s+0x37>
    3b0c:	48 8b 45 f8          	mov    -0x8(%rbp),%rax
    3b10:	5d                   	pop    %rbp
    3b11:	c3                   	retq   

0000000000003b12 <safe_rshift_func_int64_t_s_u>:
    3b12:	f3 0f 1e fa          	endbr64 
    3b16:	55                   	push   %rbp
    3b17:	48 89 e5             	mov    %rsp,%rbp
    3b1a:	48 89 7d f8          	mov    %rdi,-0x8(%rbp)
    3b1e:	89 75 f4             	mov    %esi,-0xc(%rbp)
    3b21:	48 83 7d f8 00       	cmpq   $0x0,-0x8(%rbp)
    3b26:	78 17                	js     3b3f <safe_rshift_func_int64_t_s_u+0x2d>
    3b28:	83 7d f4 1f          	cmpl   $0x1f,-0xc(%rbp)
    3b2c:	77 11                	ja     3b3f <safe_rshift_func_int64_t_s_u+0x2d>
    3b2e:	8b 45 f4             	mov    -0xc(%rbp),%eax
    3b31:	48 8b 55 f8          	mov    -0x8(%rbp),%rdx
    3b35:	89 c1                	mov    %eax,%ecx
    3b37:	48 d3 fa             	sar    %cl,%rdx
    3b3a:	48 89 d0             	mov    %rdx,%rax
    3b3d:	eb 04                	jmp    3b43 <safe_rshift_func_int64_t_s_u+0x31>
    3b3f:	48 8b 45 f8          	mov    -0x8(%rbp),%rax
    3b43:	5d                   	pop    %rbp
    3b44:	c3                   	retq   

0000000000003b45 <safe_unary_minus_func_uint8_t_u>:
    3b45:	f3 0f 1e fa          	endbr64 
    3b49:	55                   	push   %rbp
    3b4a:	48 89 e5             	mov    %rsp,%rbp
    3b4d:	89 f8                	mov    %edi,%eax
    3b4f:	88 45 fc             	mov    %al,-0x4(%rbp)
    3b52:	0f b6 45 fc          	movzbl -0x4(%rbp),%eax
    3b56:	f7 d8                	neg    %eax
    3b58:	5d                   	pop    %rbp
    3b59:	c3                   	retq   

0000000000003b5a <safe_add_func_uint8_t_u_u>:
    3b5a:	f3 0f 1e fa          	endbr64 
    3b5e:	55                   	push   %rbp
    3b5f:	48 89 e5             	mov    %rsp,%rbp
    3b62:	89 fa                	mov    %edi,%edx
    3b64:	89 f0                	mov    %esi,%eax
    3b66:	88 55 fc             	mov    %dl,-0x4(%rbp)
    3b69:	88 45 f8             	mov    %al,-0x8(%rbp)
    3b6c:	0f b6 55 fc          	movzbl -0x4(%rbp),%edx
    3b70:	0f b6 45 f8          	movzbl -0x8(%rbp),%eax
    3b74:	01 d0                	add    %edx,%eax
    3b76:	5d                   	pop    %rbp
    3b77:	c3                   	retq   

0000000000003b78 <safe_sub_func_uint8_t_u_u>:
    3b78:	f3 0f 1e fa          	endbr64 
    3b7c:	55                   	push   %rbp
    3b7d:	48 89 e5             	mov    %rsp,%rbp
    3b80:	89 fa                	mov    %edi,%edx
    3b82:	89 f0                	mov    %esi,%eax
    3b84:	88 55 fc             	mov    %dl,-0x4(%rbp)
    3b87:	88 45 f8             	mov    %al,-0x8(%rbp)
    3b8a:	0f b6 45 fc          	movzbl -0x4(%rbp),%eax
    3b8e:	2a 45 f8             	sub    -0x8(%rbp),%al
    3b91:	5d                   	pop    %rbp
    3b92:	c3                   	retq   

0000000000003b93 <safe_mul_func_uint8_t_u_u>:
    3b93:	f3 0f 1e fa          	endbr64 
    3b97:	55                   	push   %rbp
    3b98:	48 89 e5             	mov    %rsp,%rbp
    3b9b:	89 fa                	mov    %edi,%edx
    3b9d:	89 f0                	mov    %esi,%eax
    3b9f:	88 55 fc             	mov    %dl,-0x4(%rbp)
    3ba2:	88 45 f8             	mov    %al,-0x8(%rbp)
    3ba5:	0f b6 45 fc          	movzbl -0x4(%rbp),%eax
    3ba9:	f6 65 f8             	mulb   -0x8(%rbp)
    3bac:	5d                   	pop    %rbp
    3bad:	c3                   	retq   

0000000000003bae <safe_mod_func_uint8_t_u_u>:
    3bae:	f3 0f 1e fa          	endbr64 
    3bb2:	55                   	push   %rbp
    3bb3:	48 89 e5             	mov    %rsp,%rbp
    3bb6:	89 fa                	mov    %edi,%edx
    3bb8:	89 f0                	mov    %esi,%eax
    3bba:	88 55 fc             	mov    %dl,-0x4(%rbp)
    3bbd:	88 45 f8             	mov    %al,-0x8(%rbp)
    3bc0:	80 7d f8 00          	cmpb   $0x0,-0x8(%rbp)
    3bc4:	74 0f                	je     3bd5 <safe_mod_func_uint8_t_u_u+0x27>
    3bc6:	0f b6 45 fc          	movzbl -0x4(%rbp),%eax
    3bca:	0f b6 c0             	movzbl %al,%eax
    3bcd:	f6 75 f8             	divb   -0x8(%rbp)
    3bd0:	0f b6 c4             	movzbl %ah,%eax
    3bd3:	eb 04                	jmp    3bd9 <safe_mod_func_uint8_t_u_u+0x2b>
    3bd5:	0f b6 45 fc          	movzbl -0x4(%rbp),%eax
    3bd9:	5d                   	pop    %rbp
    3bda:	c3                   	retq   

0000000000003bdb <safe_div_func_uint8_t_u_u>:
    3bdb:	f3 0f 1e fa          	endbr64 
    3bdf:	55                   	push   %rbp
    3be0:	48 89 e5             	mov    %rsp,%rbp
    3be3:	89 fa                	mov    %edi,%edx
    3be5:	89 f0                	mov    %esi,%eax
    3be7:	88 55 fc             	mov    %dl,-0x4(%rbp)
    3bea:	88 45 f8             	mov    %al,-0x8(%rbp)
    3bed:	80 7d f8 00          	cmpb   $0x0,-0x8(%rbp)
    3bf1:	74 0c                	je     3bff <safe_div_func_uint8_t_u_u+0x24>
    3bf3:	0f b6 45 fc          	movzbl -0x4(%rbp),%eax
    3bf7:	0f b6 c0             	movzbl %al,%eax
    3bfa:	f6 75 f8             	divb   -0x8(%rbp)
    3bfd:	eb 04                	jmp    3c03 <safe_div_func_uint8_t_u_u+0x28>
    3bff:	0f b6 45 fc          	movzbl -0x4(%rbp),%eax
    3c03:	5d                   	pop    %rbp
    3c04:	c3                   	retq   

0000000000003c05 <safe_lshift_func_uint8_t_u_s>:
    3c05:	f3 0f 1e fa          	endbr64 
    3c09:	55                   	push   %rbp
    3c0a:	48 89 e5             	mov    %rsp,%rbp
    3c0d:	89 f8                	mov    %edi,%eax
    3c0f:	89 75 f8             	mov    %esi,-0x8(%rbp)
    3c12:	88 45 fc             	mov    %al,-0x4(%rbp)
    3c15:	83 7d f8 00          	cmpl   $0x0,-0x8(%rbp)
    3c19:	78 2b                	js     3c46 <safe_lshift_func_uint8_t_u_s+0x41>
    3c1b:	83 7d f8 1f          	cmpl   $0x1f,-0x8(%rbp)
    3c1f:	7f 25                	jg     3c46 <safe_lshift_func_uint8_t_u_s+0x41>
    3c21:	0f b6 55 fc          	movzbl -0x4(%rbp),%edx
    3c25:	8b 45 f8             	mov    -0x8(%rbp),%eax
    3c28:	be ff 00 00 00       	mov    $0xff,%esi
    3c2d:	89 c1                	mov    %eax,%ecx
    3c2f:	d3 fe                	sar    %cl,%esi
    3c31:	89 f0                	mov    %esi,%eax
    3c33:	39 c2                	cmp    %eax,%edx
    3c35:	7f 0f                	jg     3c46 <safe_lshift_func_uint8_t_u_s+0x41>
    3c37:	0f b6 55 fc          	movzbl -0x4(%rbp),%edx
    3c3b:	8b 45 f8             	mov    -0x8(%rbp),%eax
    3c3e:	89 c1                	mov    %eax,%ecx
    3c40:	d3 e2                	shl    %cl,%edx
    3c42:	89 d0                	mov    %edx,%eax
    3c44:	eb 04                	jmp    3c4a <safe_lshift_func_uint8_t_u_s+0x45>
    3c46:	0f b6 45 fc          	movzbl -0x4(%rbp),%eax
    3c4a:	5d                   	pop    %rbp
    3c4b:	c3                   	retq   

0000000000003c4c <safe_lshift_func_uint8_t_u_u>:
    3c4c:	f3 0f 1e fa          	endbr64 
    3c50:	55                   	push   %rbp
    3c51:	48 89 e5             	mov    %rsp,%rbp
    3c54:	89 f8                	mov    %edi,%eax
    3c56:	89 75 f8             	mov    %esi,-0x8(%rbp)
    3c59:	88 45 fc             	mov    %al,-0x4(%rbp)
    3c5c:	83 7d f8 1f          	cmpl   $0x1f,-0x8(%rbp)
    3c60:	77 25                	ja     3c87 <safe_lshift_func_uint8_t_u_u+0x3b>
    3c62:	0f b6 55 fc          	movzbl -0x4(%rbp),%edx
    3c66:	8b 45 f8             	mov    -0x8(%rbp),%eax
    3c69:	be ff 00 00 00       	mov    $0xff,%esi
    3c6e:	89 c1                	mov    %eax,%ecx
    3c70:	d3 fe                	sar    %cl,%esi
    3c72:	89 f0                	mov    %esi,%eax
    3c74:	39 c2                	cmp    %eax,%edx
    3c76:	7f 0f                	jg     3c87 <safe_lshift_func_uint8_t_u_u+0x3b>
    3c78:	0f b6 55 fc          	movzbl -0x4(%rbp),%edx
    3c7c:	8b 45 f8             	mov    -0x8(%rbp),%eax
    3c7f:	89 c1                	mov    %eax,%ecx
    3c81:	d3 e2                	shl    %cl,%edx
    3c83:	89 d0                	mov    %edx,%eax
    3c85:	eb 04                	jmp    3c8b <safe_lshift_func_uint8_t_u_u+0x3f>
    3c87:	0f b6 45 fc          	movzbl -0x4(%rbp),%eax
    3c8b:	5d                   	pop    %rbp
    3c8c:	c3                   	retq   

0000000000003c8d <safe_rshift_func_uint8_t_u_s>:
    3c8d:	f3 0f 1e fa          	endbr64 
    3c91:	55                   	push   %rbp
    3c92:	48 89 e5             	mov    %rsp,%rbp
    3c95:	89 f8                	mov    %edi,%eax
    3c97:	89 75 f8             	mov    %esi,-0x8(%rbp)
    3c9a:	88 45 fc             	mov    %al,-0x4(%rbp)
    3c9d:	83 7d f8 00          	cmpl   $0x0,-0x8(%rbp)
    3ca1:	78 15                	js     3cb8 <safe_rshift_func_uint8_t_u_s+0x2b>
    3ca3:	83 7d f8 1f          	cmpl   $0x1f,-0x8(%rbp)
    3ca7:	7f 0f                	jg     3cb8 <safe_rshift_func_uint8_t_u_s+0x2b>
    3ca9:	0f b6 55 fc          	movzbl -0x4(%rbp),%edx
    3cad:	8b 45 f8             	mov    -0x8(%rbp),%eax
    3cb0:	89 c1                	mov    %eax,%ecx
    3cb2:	d3 fa                	sar    %cl,%edx
    3cb4:	89 d0                	mov    %edx,%eax
    3cb6:	eb 04                	jmp    3cbc <safe_rshift_func_uint8_t_u_s+0x2f>
    3cb8:	0f b6 45 fc          	movzbl -0x4(%rbp),%eax
    3cbc:	5d                   	pop    %rbp
    3cbd:	c3                   	retq   

0000000000003cbe <safe_rshift_func_uint8_t_u_u>:
    3cbe:	f3 0f 1e fa          	endbr64 
    3cc2:	55                   	push   %rbp
    3cc3:	48 89 e5             	mov    %rsp,%rbp
    3cc6:	89 f8                	mov    %edi,%eax
    3cc8:	89 75 f8             	mov    %esi,-0x8(%rbp)
    3ccb:	88 45 fc             	mov    %al,-0x4(%rbp)
    3cce:	83 7d f8 1f          	cmpl   $0x1f,-0x8(%rbp)
    3cd2:	77 0f                	ja     3ce3 <safe_rshift_func_uint8_t_u_u+0x25>
    3cd4:	0f b6 55 fc          	movzbl -0x4(%rbp),%edx
    3cd8:	8b 45 f8             	mov    -0x8(%rbp),%eax
    3cdb:	89 c1                	mov    %eax,%ecx
    3cdd:	d3 fa                	sar    %cl,%edx
    3cdf:	89 d0                	mov    %edx,%eax
    3ce1:	eb 04                	jmp    3ce7 <safe_rshift_func_uint8_t_u_u+0x29>
    3ce3:	0f b6 45 fc          	movzbl -0x4(%rbp),%eax
    3ce7:	5d                   	pop    %rbp
    3ce8:	c3                   	retq   

0000000000003ce9 <safe_unary_minus_func_uint16_t_u>:
    3ce9:	f3 0f 1e fa          	endbr64 
    3ced:	55                   	push   %rbp
    3cee:	48 89 e5             	mov    %rsp,%rbp
    3cf1:	89 f8                	mov    %edi,%eax
    3cf3:	66 89 45 fc          	mov    %ax,-0x4(%rbp)
    3cf7:	0f b7 45 fc          	movzwl -0x4(%rbp),%eax
    3cfb:	f7 d8                	neg    %eax
    3cfd:	5d                   	pop    %rbp
    3cfe:	c3                   	retq   

0000000000003cff <safe_add_func_uint16_t_u_u>:
    3cff:	f3 0f 1e fa          	endbr64 
    3d03:	55                   	push   %rbp
    3d04:	48 89 e5             	mov    %rsp,%rbp
    3d07:	89 fa                	mov    %edi,%edx
    3d09:	89 f0                	mov    %esi,%eax
    3d0b:	66 89 55 fc          	mov    %dx,-0x4(%rbp)
    3d0f:	66 89 45 f8          	mov    %ax,-0x8(%rbp)
    3d13:	0f b7 55 fc          	movzwl -0x4(%rbp),%edx
    3d17:	0f b7 45 f8          	movzwl -0x8(%rbp),%eax
    3d1b:	01 d0                	add    %edx,%eax
    3d1d:	5d                   	pop    %rbp
    3d1e:	c3                   	retq   

0000000000003d1f <safe_sub_func_uint16_t_u_u>:
    3d1f:	f3 0f 1e fa          	endbr64 
    3d23:	55                   	push   %rbp
    3d24:	48 89 e5             	mov    %rsp,%rbp
    3d27:	89 fa                	mov    %edi,%edx
    3d29:	89 f0                	mov    %esi,%eax
    3d2b:	66 89 55 fc          	mov    %dx,-0x4(%rbp)
    3d2f:	66 89 45 f8          	mov    %ax,-0x8(%rbp)
    3d33:	0f b7 45 fc          	movzwl -0x4(%rbp),%eax
    3d37:	66 2b 45 f8          	sub    -0x8(%rbp),%ax
    3d3b:	5d                   	pop    %rbp
    3d3c:	c3                   	retq   

0000000000003d3d <safe_mul_func_uint16_t_u_u>:
    3d3d:	f3 0f 1e fa          	endbr64 
    3d41:	55                   	push   %rbp
    3d42:	48 89 e5             	mov    %rsp,%rbp
    3d45:	89 fa                	mov    %edi,%edx
    3d47:	89 f0                	mov    %esi,%eax
    3d49:	66 89 55 fc          	mov    %dx,-0x4(%rbp)
    3d4d:	66 89 45 f8          	mov    %ax,-0x8(%rbp)
    3d51:	0f b7 45 fc          	movzwl -0x4(%rbp),%eax
    3d55:	66 0f af 45 f8       	imul   -0x8(%rbp),%ax
    3d5a:	5d                   	pop    %rbp
    3d5b:	c3                   	retq   

0000000000003d5c <safe_mod_func_uint16_t_u_u>:
    3d5c:	f3 0f 1e fa          	endbr64 
    3d60:	55                   	push   %rbp
    3d61:	48 89 e5             	mov    %rsp,%rbp
    3d64:	89 fa                	mov    %edi,%edx
    3d66:	89 f0                	mov    %esi,%eax
    3d68:	66 89 55 fc          	mov    %dx,-0x4(%rbp)
    3d6c:	66 89 45 f8          	mov    %ax,-0x8(%rbp)
    3d70:	66 83 7d f8 00       	cmpw   $0x0,-0x8(%rbp)
    3d75:	74 11                	je     3d88 <safe_mod_func_uint16_t_u_u+0x2c>
    3d77:	0f b7 45 fc          	movzwl -0x4(%rbp),%eax
    3d7b:	ba 00 00 00 00       	mov    $0x0,%edx
    3d80:	66 f7 75 f8          	divw   -0x8(%rbp)
    3d84:	89 d0                	mov    %edx,%eax
    3d86:	eb 04                	jmp    3d8c <safe_mod_func_uint16_t_u_u+0x30>
    3d88:	0f b7 45 fc          	movzwl -0x4(%rbp),%eax
    3d8c:	5d                   	pop    %rbp
    3d8d:	c3                   	retq   

0000000000003d8e <safe_div_func_uint16_t_u_u>:
    3d8e:	f3 0f 1e fa          	endbr64 
    3d92:	55                   	push   %rbp
    3d93:	48 89 e5             	mov    %rsp,%rbp
    3d96:	89 fa                	mov    %edi,%edx
    3d98:	89 f0                	mov    %esi,%eax
    3d9a:	66 89 55 fc          	mov    %dx,-0x4(%rbp)
    3d9e:	66 89 45 f8          	mov    %ax,-0x8(%rbp)
    3da2:	66 83 7d f8 00       	cmpw   $0x0,-0x8(%rbp)
    3da7:	74 0f                	je     3db8 <safe_div_func_uint16_t_u_u+0x2a>
    3da9:	0f b7 45 fc          	movzwl -0x4(%rbp),%eax
    3dad:	ba 00 00 00 00       	mov    $0x0,%edx
    3db2:	66 f7 75 f8          	divw   -0x8(%rbp)
    3db6:	eb 04                	jmp    3dbc <safe_div_func_uint16_t_u_u+0x2e>
    3db8:	0f b7 45 fc          	movzwl -0x4(%rbp),%eax
    3dbc:	5d                   	pop    %rbp
    3dbd:	c3                   	retq   

0000000000003dbe <safe_lshift_func_uint16_t_u_s>:
    3dbe:	f3 0f 1e fa          	endbr64 
    3dc2:	55                   	push   %rbp
    3dc3:	48 89 e5             	mov    %rsp,%rbp
    3dc6:	89 f8                	mov    %edi,%eax
    3dc8:	89 75 f8             	mov    %esi,-0x8(%rbp)
    3dcb:	66 89 45 fc          	mov    %ax,-0x4(%rbp)
    3dcf:	83 7d f8 00          	cmpl   $0x0,-0x8(%rbp)
    3dd3:	78 2b                	js     3e00 <safe_lshift_func_uint16_t_u_s+0x42>
    3dd5:	83 7d f8 1f          	cmpl   $0x1f,-0x8(%rbp)
    3dd9:	7f 25                	jg     3e00 <safe_lshift_func_uint16_t_u_s+0x42>
    3ddb:	0f b7 55 fc          	movzwl -0x4(%rbp),%edx
    3ddf:	8b 45 f8             	mov    -0x8(%rbp),%eax
    3de2:	be ff ff 00 00       	mov    $0xffff,%esi
    3de7:	89 c1                	mov    %eax,%ecx
    3de9:	d3 fe                	sar    %cl,%esi
    3deb:	89 f0                	mov    %esi,%eax
    3ded:	39 c2                	cmp    %eax,%edx
    3def:	7f 0f                	jg     3e00 <safe_lshift_func_uint16_t_u_s+0x42>
    3df1:	0f b7 55 fc          	movzwl -0x4(%rbp),%edx
    3df5:	8b 45 f8             	mov    -0x8(%rbp),%eax
    3df8:	89 c1                	mov    %eax,%ecx
    3dfa:	d3 e2                	shl    %cl,%edx
    3dfc:	89 d0                	mov    %edx,%eax
    3dfe:	eb 04                	jmp    3e04 <safe_lshift_func_uint16_t_u_s+0x46>
    3e00:	0f b7 45 fc          	movzwl -0x4(%rbp),%eax
    3e04:	5d                   	pop    %rbp
    3e05:	c3                   	retq   

0000000000003e06 <safe_lshift_func_uint16_t_u_u>:
    3e06:	f3 0f 1e fa          	endbr64 
    3e0a:	55                   	push   %rbp
    3e0b:	48 89 e5             	mov    %rsp,%rbp
    3e0e:	89 f8                	mov    %edi,%eax
    3e10:	89 75 f8             	mov    %esi,-0x8(%rbp)
    3e13:	66 89 45 fc          	mov    %ax,-0x4(%rbp)
    3e17:	83 7d f8 1f          	cmpl   $0x1f,-0x8(%rbp)
    3e1b:	77 25                	ja     3e42 <safe_lshift_func_uint16_t_u_u+0x3c>
    3e1d:	0f b7 55 fc          	movzwl -0x4(%rbp),%edx
    3e21:	8b 45 f8             	mov    -0x8(%rbp),%eax
    3e24:	be ff ff 00 00       	mov    $0xffff,%esi
    3e29:	89 c1                	mov    %eax,%ecx
    3e2b:	d3 fe                	sar    %cl,%esi
    3e2d:	89 f0                	mov    %esi,%eax
    3e2f:	39 c2                	cmp    %eax,%edx
    3e31:	7f 0f                	jg     3e42 <safe_lshift_func_uint16_t_u_u+0x3c>
    3e33:	0f b7 55 fc          	movzwl -0x4(%rbp),%edx
    3e37:	8b 45 f8             	mov    -0x8(%rbp),%eax
    3e3a:	89 c1                	mov    %eax,%ecx
    3e3c:	d3 e2                	shl    %cl,%edx
    3e3e:	89 d0                	mov    %edx,%eax
    3e40:	eb 04                	jmp    3e46 <safe_lshift_func_uint16_t_u_u+0x40>
    3e42:	0f b7 45 fc          	movzwl -0x4(%rbp),%eax
    3e46:	5d                   	pop    %rbp
    3e47:	c3                   	retq   

0000000000003e48 <safe_rshift_func_uint16_t_u_s>:
    3e48:	f3 0f 1e fa          	endbr64 
    3e4c:	55                   	push   %rbp
    3e4d:	48 89 e5             	mov    %rsp,%rbp
    3e50:	89 f8                	mov    %edi,%eax
    3e52:	89 75 f8             	mov    %esi,-0x8(%rbp)
    3e55:	66 89 45 fc          	mov    %ax,-0x4(%rbp)
    3e59:	83 7d f8 00          	cmpl   $0x0,-0x8(%rbp)
    3e5d:	78 15                	js     3e74 <safe_rshift_func_uint16_t_u_s+0x2c>
    3e5f:	83 7d f8 1f          	cmpl   $0x1f,-0x8(%rbp)
    3e63:	7f 0f                	jg     3e74 <safe_rshift_func_uint16_t_u_s+0x2c>
    3e65:	0f b7 55 fc          	movzwl -0x4(%rbp),%edx
    3e69:	8b 45 f8             	mov    -0x8(%rbp),%eax
    3e6c:	89 c1                	mov    %eax,%ecx
    3e6e:	d3 fa                	sar    %cl,%edx
    3e70:	89 d0                	mov    %edx,%eax
    3e72:	eb 04                	jmp    3e78 <safe_rshift_func_uint16_t_u_s+0x30>
    3e74:	0f b7 45 fc          	movzwl -0x4(%rbp),%eax
    3e78:	5d                   	pop    %rbp
    3e79:	c3                   	retq   

0000000000003e7a <safe_rshift_func_uint16_t_u_u>:
    3e7a:	f3 0f 1e fa          	endbr64 
    3e7e:	55                   	push   %rbp
    3e7f:	48 89 e5             	mov    %rsp,%rbp
    3e82:	89 f8                	mov    %edi,%eax
    3e84:	89 75 f8             	mov    %esi,-0x8(%rbp)
    3e87:	66 89 45 fc          	mov    %ax,-0x4(%rbp)
    3e8b:	83 7d f8 1f          	cmpl   $0x1f,-0x8(%rbp)
    3e8f:	77 0f                	ja     3ea0 <safe_rshift_func_uint16_t_u_u+0x26>
    3e91:	0f b7 55 fc          	movzwl -0x4(%rbp),%edx
    3e95:	8b 45 f8             	mov    -0x8(%rbp),%eax
    3e98:	89 c1                	mov    %eax,%ecx
    3e9a:	d3 fa                	sar    %cl,%edx
    3e9c:	89 d0                	mov    %edx,%eax
    3e9e:	eb 04                	jmp    3ea4 <safe_rshift_func_uint16_t_u_u+0x2a>
    3ea0:	0f b7 45 fc          	movzwl -0x4(%rbp),%eax
    3ea4:	5d                   	pop    %rbp
    3ea5:	c3                   	retq   

0000000000003ea6 <safe_unary_minus_func_uint32_t_u>:
    3ea6:	f3 0f 1e fa          	endbr64 
    3eaa:	55                   	push   %rbp
    3eab:	48 89 e5             	mov    %rsp,%rbp
    3eae:	89 7d fc             	mov    %edi,-0x4(%rbp)
    3eb1:	8b 45 fc             	mov    -0x4(%rbp),%eax
    3eb4:	f7 d8                	neg    %eax
    3eb6:	5d                   	pop    %rbp
    3eb7:	c3                   	retq   

0000000000003eb8 <safe_add_func_uint32_t_u_u>:
    3eb8:	f3 0f 1e fa          	endbr64 
    3ebc:	55                   	push   %rbp
    3ebd:	48 89 e5             	mov    %rsp,%rbp
    3ec0:	89 7d fc             	mov    %edi,-0x4(%rbp)
    3ec3:	89 75 f8             	mov    %esi,-0x8(%rbp)
    3ec6:	8b 55 fc             	mov    -0x4(%rbp),%edx
    3ec9:	8b 45 f8             	mov    -0x8(%rbp),%eax
    3ecc:	01 d0                	add    %edx,%eax
    3ece:	5d                   	pop    %rbp
    3ecf:	c3                   	retq   

0000000000003ed0 <safe_sub_func_uint32_t_u_u>:
    3ed0:	f3 0f 1e fa          	endbr64 
    3ed4:	55                   	push   %rbp
    3ed5:	48 89 e5             	mov    %rsp,%rbp
    3ed8:	89 7d fc             	mov    %edi,-0x4(%rbp)
    3edb:	89 75 f8             	mov    %esi,-0x8(%rbp)
    3ede:	8b 45 fc             	mov    -0x4(%rbp),%eax
    3ee1:	2b 45 f8             	sub    -0x8(%rbp),%eax
    3ee4:	5d                   	pop    %rbp
    3ee5:	c3                   	retq   

0000000000003ee6 <safe_mul_func_uint32_t_u_u>:
    3ee6:	f3 0f 1e fa          	endbr64 
    3eea:	55                   	push   %rbp
    3eeb:	48 89 e5             	mov    %rsp,%rbp
    3eee:	89 7d fc             	mov    %edi,-0x4(%rbp)
    3ef1:	89 75 f8             	mov    %esi,-0x8(%rbp)
    3ef4:	8b 45 fc             	mov    -0x4(%rbp),%eax
    3ef7:	0f af 45 f8          	imul   -0x8(%rbp),%eax
    3efb:	5d                   	pop    %rbp
    3efc:	c3                   	retq   

0000000000003efd <safe_mod_func_uint32_t_u_u>:
    3efd:	f3 0f 1e fa          	endbr64 
    3f01:	55                   	push   %rbp
    3f02:	48 89 e5             	mov    %rsp,%rbp
    3f05:	89 7d fc             	mov    %edi,-0x4(%rbp)
    3f08:	89 75 f8             	mov    %esi,-0x8(%rbp)
    3f0b:	83 7d f8 00          	cmpl   $0x0,-0x8(%rbp)
    3f0f:	74 0f                	je     3f20 <safe_mod_func_uint32_t_u_u+0x23>
    3f11:	8b 45 fc             	mov    -0x4(%rbp),%eax
    3f14:	ba 00 00 00 00       	mov    $0x0,%edx
    3f19:	f7 75 f8             	divl   -0x8(%rbp)
    3f1c:	89 d0                	mov    %edx,%eax
    3f1e:	eb 03                	jmp    3f23 <safe_mod_func_uint32_t_u_u+0x26>
    3f20:	8b 45 fc             	mov    -0x4(%rbp),%eax
    3f23:	5d                   	pop    %rbp
    3f24:	c3                   	retq   

0000000000003f25 <safe_div_func_uint32_t_u_u>:
    3f25:	f3 0f 1e fa          	endbr64 
    3f29:	55                   	push   %rbp
    3f2a:	48 89 e5             	mov    %rsp,%rbp
    3f2d:	89 7d fc             	mov    %edi,-0x4(%rbp)
    3f30:	89 75 f8             	mov    %esi,-0x8(%rbp)
    3f33:	83 7d f8 00          	cmpl   $0x0,-0x8(%rbp)
    3f37:	74 0d                	je     3f46 <safe_div_func_uint32_t_u_u+0x21>
    3f39:	8b 45 fc             	mov    -0x4(%rbp),%eax
    3f3c:	ba 00 00 00 00       	mov    $0x0,%edx
    3f41:	f7 75 f8             	divl   -0x8(%rbp)
    3f44:	eb 03                	jmp    3f49 <safe_div_func_uint32_t_u_u+0x24>
    3f46:	8b 45 fc             	mov    -0x4(%rbp),%eax
    3f49:	5d                   	pop    %rbp
    3f4a:	c3                   	retq   

0000000000003f4b <safe_lshift_func_uint32_t_u_s>:
    3f4b:	f3 0f 1e fa          	endbr64 
    3f4f:	55                   	push   %rbp
    3f50:	48 89 e5             	mov    %rsp,%rbp
    3f53:	89 7d fc             	mov    %edi,-0x4(%rbp)
    3f56:	89 75 f8             	mov    %esi,-0x8(%rbp)
    3f59:	83 7d f8 00          	cmpl   $0x0,-0x8(%rbp)
    3f5d:	78 27                	js     3f86 <safe_lshift_func_uint32_t_u_s+0x3b>
    3f5f:	83 7d f8 1f          	cmpl   $0x1f,-0x8(%rbp)
    3f63:	7f 21                	jg     3f86 <safe_lshift_func_uint32_t_u_s+0x3b>
    3f65:	8b 45 f8             	mov    -0x8(%rbp),%eax
    3f68:	ba ff ff ff ff       	mov    $0xffffffff,%edx
    3f6d:	89 c1                	mov    %eax,%ecx
    3f6f:	d3 ea                	shr    %cl,%edx
    3f71:	89 d0                	mov    %edx,%eax
    3f73:	39 45 fc             	cmp    %eax,-0x4(%rbp)
    3f76:	77 0e                	ja     3f86 <safe_lshift_func_uint32_t_u_s+0x3b>
    3f78:	8b 45 f8             	mov    -0x8(%rbp),%eax
    3f7b:	8b 55 fc             	mov    -0x4(%rbp),%edx
    3f7e:	89 c1                	mov    %eax,%ecx
    3f80:	d3 e2                	shl    %cl,%edx
    3f82:	89 d0                	mov    %edx,%eax
    3f84:	eb 03                	jmp    3f89 <safe_lshift_func_uint32_t_u_s+0x3e>
    3f86:	8b 45 fc             	mov    -0x4(%rbp),%eax
    3f89:	5d                   	pop    %rbp
    3f8a:	c3                   	retq   

0000000000003f8b <safe_lshift_func_uint32_t_u_u>:
    3f8b:	f3 0f 1e fa          	endbr64 
    3f8f:	55                   	push   %rbp
    3f90:	48 89 e5             	mov    %rsp,%rbp
    3f93:	89 7d fc             	mov    %edi,-0x4(%rbp)
    3f96:	89 75 f8             	mov    %esi,-0x8(%rbp)
    3f99:	83 7d f8 1f          	cmpl   $0x1f,-0x8(%rbp)
    3f9d:	77 21                	ja     3fc0 <safe_lshift_func_uint32_t_u_u+0x35>
    3f9f:	8b 45 f8             	mov    -0x8(%rbp),%eax
    3fa2:	ba ff ff ff ff       	mov    $0xffffffff,%edx
    3fa7:	89 c1                	mov    %eax,%ecx
    3fa9:	d3 ea                	shr    %cl,%edx
    3fab:	89 d0                	mov    %edx,%eax
    3fad:	39 45 fc             	cmp    %eax,-0x4(%rbp)
    3fb0:	77 0e                	ja     3fc0 <safe_lshift_func_uint32_t_u_u+0x35>
    3fb2:	8b 45 f8             	mov    -0x8(%rbp),%eax
    3fb5:	8b 55 fc             	mov    -0x4(%rbp),%edx
    3fb8:	89 c1                	mov    %eax,%ecx
    3fba:	d3 e2                	shl    %cl,%edx
    3fbc:	89 d0                	mov    %edx,%eax
    3fbe:	eb 03                	jmp    3fc3 <safe_lshift_func_uint32_t_u_u+0x38>
    3fc0:	8b 45 fc             	mov    -0x4(%rbp),%eax
    3fc3:	5d                   	pop    %rbp
    3fc4:	c3                   	retq   

0000000000003fc5 <safe_rshift_func_uint32_t_u_s>:
    3fc5:	f3 0f 1e fa          	endbr64 
    3fc9:	55                   	push   %rbp
    3fca:	48 89 e5             	mov    %rsp,%rbp
    3fcd:	89 7d fc             	mov    %edi,-0x4(%rbp)
    3fd0:	89 75 f8             	mov    %esi,-0x8(%rbp)
    3fd3:	83 7d f8 00          	cmpl   $0x0,-0x8(%rbp)
    3fd7:	78 14                	js     3fed <safe_rshift_func_uint32_t_u_s+0x28>
    3fd9:	83 7d f8 1f          	cmpl   $0x1f,-0x8(%rbp)
    3fdd:	7f 0e                	jg     3fed <safe_rshift_func_uint32_t_u_s+0x28>
    3fdf:	8b 45 f8             	mov    -0x8(%rbp),%eax
    3fe2:	8b 55 fc             	mov    -0x4(%rbp),%edx
    3fe5:	89 c1                	mov    %eax,%ecx
    3fe7:	d3 ea                	shr    %cl,%edx
    3fe9:	89 d0                	mov    %edx,%eax
    3feb:	eb 03                	jmp    3ff0 <safe_rshift_func_uint32_t_u_s+0x2b>
    3fed:	8b 45 fc             	mov    -0x4(%rbp),%eax
    3ff0:	5d                   	pop    %rbp
    3ff1:	c3                   	retq   

0000000000003ff2 <safe_rshift_func_uint32_t_u_u>:
    3ff2:	f3 0f 1e fa          	endbr64 
    3ff6:	55                   	push   %rbp
    3ff7:	48 89 e5             	mov    %rsp,%rbp
    3ffa:	89 7d fc             	mov    %edi,-0x4(%rbp)
    3ffd:	89 75 f8             	mov    %esi,-0x8(%rbp)
    4000:	83 7d f8 1f          	cmpl   $0x1f,-0x8(%rbp)
    4004:	77 0e                	ja     4014 <safe_rshift_func_uint32_t_u_u+0x22>
    4006:	8b 45 f8             	mov    -0x8(%rbp),%eax
    4009:	8b 55 fc             	mov    -0x4(%rbp),%edx
    400c:	89 c1                	mov    %eax,%ecx
    400e:	d3 ea                	shr    %cl,%edx
    4010:	89 d0                	mov    %edx,%eax
    4012:	eb 03                	jmp    4017 <safe_rshift_func_uint32_t_u_u+0x25>
    4014:	8b 45 fc             	mov    -0x4(%rbp),%eax
    4017:	5d                   	pop    %rbp
    4018:	c3                   	retq   

0000000000004019 <safe_unary_minus_func_uint64_t_u>:
    4019:	f3 0f 1e fa          	endbr64 
    401d:	55                   	push   %rbp
    401e:	48 89 e5             	mov    %rsp,%rbp
    4021:	48 89 7d f8          	mov    %rdi,-0x8(%rbp)
    4025:	48 8b 45 f8          	mov    -0x8(%rbp),%rax
    4029:	48 f7 d8             	neg    %rax
    402c:	5d                   	pop    %rbp
    402d:	c3                   	retq   

000000000000402e <safe_add_func_uint64_t_u_u>:
    402e:	f3 0f 1e fa          	endbr64 
    4032:	55                   	push   %rbp
    4033:	48 89 e5             	mov    %rsp,%rbp
    4036:	48 89 7d f8          	mov    %rdi,-0x8(%rbp)
    403a:	48 89 75 f0          	mov    %rsi,-0x10(%rbp)
    403e:	48 8b 55 f8          	mov    -0x8(%rbp),%rdx
    4042:	48 8b 45 f0          	mov    -0x10(%rbp),%rax
    4046:	48 01 d0             	add    %rdx,%rax
    4049:	5d                   	pop    %rbp
    404a:	c3                   	retq   

000000000000404b <safe_sub_func_uint64_t_u_u>:
    404b:	f3 0f 1e fa          	endbr64 
    404f:	55                   	push   %rbp
    4050:	48 89 e5             	mov    %rsp,%rbp
    4053:	48 89 7d f8          	mov    %rdi,-0x8(%rbp)
    4057:	48 89 75 f0          	mov    %rsi,-0x10(%rbp)
    405b:	48 8b 45 f8          	mov    -0x8(%rbp),%rax
    405f:	48 2b 45 f0          	sub    -0x10(%rbp),%rax
    4063:	5d                   	pop    %rbp
    4064:	c3                   	retq   

0000000000004065 <safe_mul_func_uint64_t_u_u>:
    4065:	f3 0f 1e fa          	endbr64 
    4069:	55                   	push   %rbp
    406a:	48 89 e5             	mov    %rsp,%rbp
    406d:	48 89 7d f8          	mov    %rdi,-0x8(%rbp)
    4071:	48 89 75 f0          	mov    %rsi,-0x10(%rbp)
    4075:	48 8b 45 f8          	mov    -0x8(%rbp),%rax
    4079:	48 0f af 45 f0       	imul   -0x10(%rbp),%rax
    407e:	5d                   	pop    %rbp
    407f:	c3                   	retq   

0000000000004080 <safe_mod_func_uint64_t_u_u>:
    4080:	f3 0f 1e fa          	endbr64 
    4084:	55                   	push   %rbp
    4085:	48 89 e5             	mov    %rsp,%rbp
    4088:	48 89 7d f8          	mov    %rdi,-0x8(%rbp)
    408c:	48 89 75 f0          	mov    %rsi,-0x10(%rbp)
    4090:	48 83 7d f0 00       	cmpq   $0x0,-0x10(%rbp)
    4095:	74 12                	je     40a9 <safe_mod_func_uint64_t_u_u+0x29>
    4097:	48 8b 45 f8          	mov    -0x8(%rbp),%rax
    409b:	ba 00 00 00 00       	mov    $0x0,%edx
    40a0:	48 f7 75 f0          	divq   -0x10(%rbp)
    40a4:	48 89 d0             	mov    %rdx,%rax
    40a7:	eb 04                	jmp    40ad <safe_mod_func_uint64_t_u_u+0x2d>
    40a9:	48 8b 45 f8          	mov    -0x8(%rbp),%rax
    40ad:	5d                   	pop    %rbp
    40ae:	c3                   	retq   

00000000000040af <safe_div_func_uint64_t_u_u>:
    40af:	f3 0f 1e fa          	endbr64 
    40b3:	55                   	push   %rbp
    40b4:	48 89 e5             	mov    %rsp,%rbp
    40b7:	48 89 7d f8          	mov    %rdi,-0x8(%rbp)
    40bb:	48 89 75 f0          	mov    %rsi,-0x10(%rbp)
    40bf:	48 83 7d f0 00       	cmpq   $0x0,-0x10(%rbp)
    40c4:	74 0f                	je     40d5 <safe_div_func_uint64_t_u_u+0x26>
    40c6:	48 8b 45 f8          	mov    -0x8(%rbp),%rax
    40ca:	ba 00 00 00 00       	mov    $0x0,%edx
    40cf:	48 f7 75 f0          	divq   -0x10(%rbp)
    40d3:	eb 04                	jmp    40d9 <safe_div_func_uint64_t_u_u+0x2a>
    40d5:	48 8b 45 f8          	mov    -0x8(%rbp),%rax
    40d9:	5d                   	pop    %rbp
    40da:	c3                   	retq   

00000000000040db <safe_lshift_func_uint64_t_u_s>:
    40db:	f3 0f 1e fa          	endbr64 
    40df:	55                   	push   %rbp
    40e0:	48 89 e5             	mov    %rsp,%rbp
    40e3:	48 89 7d f8          	mov    %rdi,-0x8(%rbp)
    40e7:	89 75 f4             	mov    %esi,-0xc(%rbp)
    40ea:	83 7d f4 00          	cmpl   $0x0,-0xc(%rbp)
    40ee:	78 2f                	js     411f <safe_lshift_func_uint64_t_u_s+0x44>
    40f0:	83 7d f4 1f          	cmpl   $0x1f,-0xc(%rbp)
    40f4:	7f 29                	jg     411f <safe_lshift_func_uint64_t_u_s+0x44>
    40f6:	8b 45 f4             	mov    -0xc(%rbp),%eax
    40f9:	48 c7 c2 ff ff ff ff 	mov    $0xffffffffffffffff,%rdx
    4100:	89 c1                	mov    %eax,%ecx
    4102:	48 d3 ea             	shr    %cl,%rdx
    4105:	48 89 d0             	mov    %rdx,%rax
    4108:	48 39 45 f8          	cmp    %rax,-0x8(%rbp)
    410c:	77 11                	ja     411f <safe_lshift_func_uint64_t_u_s+0x44>
    410e:	8b 45 f4             	mov    -0xc(%rbp),%eax
    4111:	48 8b 55 f8          	mov    -0x8(%rbp),%rdx
    4115:	89 c1                	mov    %eax,%ecx
    4117:	48 d3 e2             	shl    %cl,%rdx
    411a:	48 89 d0             	mov    %rdx,%rax
    411d:	eb 04                	jmp    4123 <safe_lshift_func_uint64_t_u_s+0x48>
    411f:	48 8b 45 f8          	mov    -0x8(%rbp),%rax
    4123:	5d                   	pop    %rbp
    4124:	c3                   	retq   

0000000000004125 <safe_lshift_func_uint64_t_u_u>:
    4125:	f3 0f 1e fa          	endbr64 
    4129:	55                   	push   %rbp
    412a:	48 89 e5             	mov    %rsp,%rbp
    412d:	48 89 7d f8          	mov    %rdi,-0x8(%rbp)
    4131:	89 75 f4             	mov    %esi,-0xc(%rbp)
    4134:	83 7d f4 1f          	cmpl   $0x1f,-0xc(%rbp)
    4138:	77 29                	ja     4163 <safe_lshift_func_uint64_t_u_u+0x3e>
    413a:	8b 45 f4             	mov    -0xc(%rbp),%eax
    413d:	48 c7 c2 ff ff ff ff 	mov    $0xffffffffffffffff,%rdx
    4144:	89 c1                	mov    %eax,%ecx
    4146:	48 d3 ea             	shr    %cl,%rdx
    4149:	48 89 d0             	mov    %rdx,%rax
    414c:	48 39 45 f8          	cmp    %rax,-0x8(%rbp)
    4150:	77 11                	ja     4163 <safe_lshift_func_uint64_t_u_u+0x3e>
    4152:	8b 45 f4             	mov    -0xc(%rbp),%eax
    4155:	48 8b 55 f8          	mov    -0x8(%rbp),%rdx
    4159:	89 c1                	mov    %eax,%ecx
    415b:	48 d3 e2             	shl    %cl,%rdx
    415e:	48 89 d0             	mov    %rdx,%rax
    4161:	eb 04                	jmp    4167 <safe_lshift_func_uint64_t_u_u+0x42>
    4163:	48 8b 45 f8          	mov    -0x8(%rbp),%rax
    4167:	5d                   	pop    %rbp
    4168:	c3                   	retq   

0000000000004169 <safe_rshift_func_uint64_t_u_s>:
    4169:	f3 0f 1e fa          	endbr64 
    416d:	55                   	push   %rbp
    416e:	48 89 e5             	mov    %rsp,%rbp
    4171:	48 89 7d f8          	mov    %rdi,-0x8(%rbp)
    4175:	89 75 f4             	mov    %esi,-0xc(%rbp)
    4178:	83 7d f4 00          	cmpl   $0x0,-0xc(%rbp)
    417c:	78 17                	js     4195 <safe_rshift_func_uint64_t_u_s+0x2c>
    417e:	83 7d f4 1f          	cmpl   $0x1f,-0xc(%rbp)
    4182:	7f 11                	jg     4195 <safe_rshift_func_uint64_t_u_s+0x2c>
    4184:	8b 45 f4             	mov    -0xc(%rbp),%eax
    4187:	48 8b 55 f8          	mov    -0x8(%rbp),%rdx
    418b:	89 c1                	mov    %eax,%ecx
    418d:	48 d3 ea             	shr    %cl,%rdx
    4190:	48 89 d0             	mov    %rdx,%rax
    4193:	eb 04                	jmp    4199 <safe_rshift_func_uint64_t_u_s+0x30>
    4195:	48 8b 45 f8          	mov    -0x8(%rbp),%rax
    4199:	5d                   	pop    %rbp
    419a:	c3                   	retq   

000000000000419b <safe_rshift_func_uint64_t_u_u>:
    419b:	f3 0f 1e fa          	endbr64 
    419f:	55                   	push   %rbp
    41a0:	48 89 e5             	mov    %rsp,%rbp
    41a3:	48 89 7d f8          	mov    %rdi,-0x8(%rbp)
    41a7:	89 75 f4             	mov    %esi,-0xc(%rbp)
    41aa:	83 7d f4 1f          	cmpl   $0x1f,-0xc(%rbp)
    41ae:	77 11                	ja     41c1 <safe_rshift_func_uint64_t_u_u+0x26>
    41b0:	8b 45 f4             	mov    -0xc(%rbp),%eax
    41b3:	48 8b 55 f8          	mov    -0x8(%rbp),%rdx
    41b7:	89 c1                	mov    %eax,%ecx
    41b9:	48 d3 ea             	shr    %cl,%rdx
    41bc:	48 89 d0             	mov    %rdx,%rax
    41bf:	eb 04                	jmp    41c5 <safe_rshift_func_uint64_t_u_u+0x2a>
    41c1:	48 8b 45 f8          	mov    -0x8(%rbp),%rax
    41c5:	5d                   	pop    %rbp
    41c6:	c3                   	retq   

00000000000041c7 <safe_add_func_float_f_f>:
    41c7:	f3 0f 1e fa          	endbr64 
    41cb:	55                   	push   %rbp
    41cc:	48 89 e5             	mov    %rsp,%rbp
    41cf:	f3 0f 11 45 fc       	movss  %xmm0,-0x4(%rbp)
    41d4:	f3 0f 11 4d f8       	movss  %xmm1,-0x8(%rbp)
    41d9:	f3 0f 10 4d fc       	movss  -0x4(%rbp),%xmm1
    41de:	f3 0f 10 05 22 c8 00 	movss  0xc822(%rip),%xmm0        # 10a08 <g_1116+0x19b0>
    41e5:	00 
    41e6:	f3 0f 59 c8          	mulss  %xmm0,%xmm1
    41ea:	f3 0f 10 55 f8       	movss  -0x8(%rbp),%xmm2
    41ef:	f3 0f 10 05 11 c8 00 	movss  0xc811(%rip),%xmm0        # 10a08 <g_1116+0x19b0>
    41f6:	00 
    41f7:	f3 0f 59 c2          	mulss  %xmm2,%xmm0
    41fb:	f3 0f 58 c1          	addss  %xmm1,%xmm0
    41ff:	f3 0f 10 0d 09 c8 00 	movss  0xc809(%rip),%xmm1        # 10a10 <g_1116+0x19b8>
    4206:	00 
    4207:	0f 54 c1             	andps  %xmm1,%xmm0
    420a:	0f 2f 05 0f c8 00 00 	comiss 0xc80f(%rip),%xmm0        # 10a20 <g_1116+0x19c8>
    4211:	76 07                	jbe    421a <safe_add_func_float_f_f+0x53>
    4213:	f3 0f 10 45 fc       	movss  -0x4(%rbp),%xmm0
    4218:	eb 0a                	jmp    4224 <safe_add_func_float_f_f+0x5d>
    421a:	f3 0f 10 45 fc       	movss  -0x4(%rbp),%xmm0
    421f:	f3 0f 58 45 f8       	addss  -0x8(%rbp),%xmm0
    4224:	5d                   	pop    %rbp
    4225:	c3                   	retq   

0000000000004226 <safe_sub_func_float_f_f>:
    4226:	f3 0f 1e fa          	endbr64 
    422a:	55                   	push   %rbp
    422b:	48 89 e5             	mov    %rsp,%rbp
    422e:	f3 0f 11 45 fc       	movss  %xmm0,-0x4(%rbp)
    4233:	f3 0f 11 4d f8       	movss  %xmm1,-0x8(%rbp)
    4238:	f3 0f 10 4d fc       	movss  -0x4(%rbp),%xmm1
    423d:	f3 0f 10 05 c3 c7 00 	movss  0xc7c3(%rip),%xmm0        # 10a08 <g_1116+0x19b0>
    4244:	00 
    4245:	f3 0f 59 c1          	mulss  %xmm1,%xmm0
    4249:	f3 0f 10 55 f8       	movss  -0x8(%rbp),%xmm2
    424e:	f3 0f 10 0d b2 c7 00 	movss  0xc7b2(%rip),%xmm1        # 10a08 <g_1116+0x19b0>
    4255:	00 
    4256:	f3 0f 59 ca          	mulss  %xmm2,%xmm1
    425a:	f3 0f 5c c1          	subss  %xmm1,%xmm0
    425e:	f3 0f 10 0d aa c7 00 	movss  0xc7aa(%rip),%xmm1        # 10a10 <g_1116+0x19b8>
    4265:	00 
    4266:	0f 54 c1             	andps  %xmm1,%xmm0
    4269:	0f 2f 05 b0 c7 00 00 	comiss 0xc7b0(%rip),%xmm0        # 10a20 <g_1116+0x19c8>
    4270:	76 07                	jbe    4279 <safe_sub_func_float_f_f+0x53>
    4272:	f3 0f 10 45 fc       	movss  -0x4(%rbp),%xmm0
    4277:	eb 0a                	jmp    4283 <safe_sub_func_float_f_f+0x5d>
    4279:	f3 0f 10 45 fc       	movss  -0x4(%rbp),%xmm0
    427e:	f3 0f 5c 45 f8       	subss  -0x8(%rbp),%xmm0
    4283:	5d                   	pop    %rbp
    4284:	c3                   	retq   

0000000000004285 <safe_mul_func_float_f_f>:
    4285:	f3 0f 1e fa          	endbr64 
    4289:	55                   	push   %rbp
    428a:	48 89 e5             	mov    %rsp,%rbp
    428d:	f3 0f 11 45 fc       	movss  %xmm0,-0x4(%rbp)
    4292:	f3 0f 11 4d f8       	movss  %xmm1,-0x8(%rbp)
    4297:	f3 0f 10 4d fc       	movss  -0x4(%rbp),%xmm1
    429c:	f3 0f 10 05 80 c7 00 	movss  0xc780(%rip),%xmm0        # 10a24 <g_1116+0x19cc>
    42a3:	00 
    42a4:	f3 0f 59 c8          	mulss  %xmm0,%xmm1
    42a8:	f3 0f 10 55 f8       	movss  -0x8(%rbp),%xmm2
    42ad:	f3 0f 10 05 73 c7 00 	movss  0xc773(%rip),%xmm0        # 10a28 <g_1116+0x19d0>
    42b4:	00 
    42b5:	f3 0f 59 c2          	mulss  %xmm2,%xmm0
    42b9:	f3 0f 59 c1          	mulss  %xmm1,%xmm0
    42bd:	f3 0f 10 0d 4b c7 00 	movss  0xc74b(%rip),%xmm1        # 10a10 <g_1116+0x19b8>
    42c4:	00 
    42c5:	0f 54 c1             	andps  %xmm1,%xmm0
    42c8:	0f 2f 05 5d c7 00 00 	comiss 0xc75d(%rip),%xmm0        # 10a2c <g_1116+0x19d4>
    42cf:	76 07                	jbe    42d8 <safe_mul_func_float_f_f+0x53>
    42d1:	f3 0f 10 45 fc       	movss  -0x4(%rbp),%xmm0
    42d6:	eb 0a                	jmp    42e2 <safe_mul_func_float_f_f+0x5d>
    42d8:	f3 0f 10 45 fc       	movss  -0x4(%rbp),%xmm0
    42dd:	f3 0f 59 45 f8       	mulss  -0x8(%rbp),%xmm0
    42e2:	5d                   	pop    %rbp
    42e3:	c3                   	retq   

00000000000042e4 <safe_div_func_float_f_f>:
    42e4:	f3 0f 1e fa          	endbr64 
    42e8:	55                   	push   %rbp
    42e9:	48 89 e5             	mov    %rsp,%rbp
    42ec:	f3 0f 11 45 fc       	movss  %xmm0,-0x4(%rbp)
    42f1:	f3 0f 11 4d f8       	movss  %xmm1,-0x8(%rbp)
    42f6:	f3 0f 10 45 f8       	movss  -0x8(%rbp),%xmm0
    42fb:	f3 0f 10 0d 0d c7 00 	movss  0xc70d(%rip),%xmm1        # 10a10 <g_1116+0x19b8>
    4302:	00 
    4303:	0f 54 c8             	andps  %xmm0,%xmm1
    4306:	f3 0f 10 05 22 c7 00 	movss  0xc722(%rip),%xmm0        # 10a30 <g_1116+0x19d8>
    430d:	00 
    430e:	0f 2f c1             	comiss %xmm1,%xmm0
    4311:	0f 97 c0             	seta   %al
    4314:	83 f0 01             	xor    $0x1,%eax
    4317:	84 c0                	test   %al,%al
    4319:	75 56                	jne    4371 <safe_div_func_float_f_f+0x8d>
    431b:	66 0f ef c0          	pxor   %xmm0,%xmm0
    431f:	0f 2e 45 f8          	ucomiss -0x8(%rbp),%xmm0
    4323:	7a 0a                	jp     432f <safe_div_func_float_f_f+0x4b>
    4325:	66 0f ef c0          	pxor   %xmm0,%xmm0
    4329:	0f 2e 45 f8          	ucomiss -0x8(%rbp),%xmm0
    432d:	74 4e                	je     437d <safe_div_func_float_f_f+0x99>
    432f:	f3 0f 10 4d fc       	movss  -0x4(%rbp),%xmm1
    4334:	f3 0f 10 05 f8 c6 00 	movss  0xc6f8(%rip),%xmm0        # 10a34 <g_1116+0x19dc>
    433b:	00 
    433c:	f3 0f 59 c1          	mulss  %xmm1,%xmm0
    4340:	f3 0f 10 55 f8       	movss  -0x8(%rbp),%xmm2
    4345:	f3 0f 10 0d eb c6 00 	movss  0xc6eb(%rip),%xmm1        # 10a38 <g_1116+0x19e0>
    434c:	00 
    434d:	f3 0f 59 ca          	mulss  %xmm2,%xmm1
    4351:	f3 0f 5e c1          	divss  %xmm1,%xmm0
    4355:	f3 0f 10 0d b3 c6 00 	movss  0xc6b3(%rip),%xmm1        # 10a10 <g_1116+0x19b8>
    435c:	00 
    435d:	0f 54 c1             	andps  %xmm1,%xmm0
    4360:	0f 2f 05 d5 c6 00 00 	comiss 0xc6d5(%rip),%xmm0        # 10a3c <g_1116+0x19e4>
    4367:	0f 97 c0             	seta   %al
    436a:	83 f0 01             	xor    $0x1,%eax
    436d:	84 c0                	test   %al,%al
    436f:	74 0c                	je     437d <safe_div_func_float_f_f+0x99>
    4371:	f3 0f 10 45 fc       	movss  -0x4(%rbp),%xmm0
    4376:	f3 0f 5e 45 f8       	divss  -0x8(%rbp),%xmm0
    437b:	eb 05                	jmp    4382 <safe_div_func_float_f_f+0x9e>
    437d:	f3 0f 10 45 fc       	movss  -0x4(%rbp),%xmm0
    4382:	5d                   	pop    %rbp
    4383:	c3                   	retq   

0000000000004384 <safe_add_func_double_f_f>:
    4384:	f3 0f 1e fa          	endbr64 
    4388:	55                   	push   %rbp
    4389:	48 89 e5             	mov    %rsp,%rbp
    438c:	f2 0f 11 45 f8       	movsd  %xmm0,-0x8(%rbp)
    4391:	f2 0f 11 4d f0       	movsd  %xmm1,-0x10(%rbp)
    4396:	f2 0f 10 4d f8       	movsd  -0x8(%rbp),%xmm1
    439b:	f2 0f 10 05 9d c6 00 	movsd  0xc69d(%rip),%xmm0        # 10a40 <g_1116+0x19e8>
    43a2:	00 
    43a3:	f2 0f 59 c8          	mulsd  %xmm0,%xmm1
    43a7:	f2 0f 10 55 f0       	movsd  -0x10(%rbp),%xmm2
    43ac:	f2 0f 10 05 8c c6 00 	movsd  0xc68c(%rip),%xmm0        # 10a40 <g_1116+0x19e8>
    43b3:	00 
    43b4:	f2 0f 59 c2          	mulsd  %xmm2,%xmm0
    43b8:	f2 0f 58 c1          	addsd  %xmm1,%xmm0
    43bc:	f3 0f 7e 0d 8c c6 00 	movq   0xc68c(%rip),%xmm1        # 10a50 <g_1116+0x19f8>
    43c3:	00 
    43c4:	66 0f 54 c1          	andpd  %xmm1,%xmm0
    43c8:	66 0f 2f 05 90 c6 00 	comisd 0xc690(%rip),%xmm0        # 10a60 <g_1116+0x1a08>
    43cf:	00 
    43d0:	76 07                	jbe    43d9 <safe_add_func_double_f_f+0x55>
    43d2:	f2 0f 10 45 f8       	movsd  -0x8(%rbp),%xmm0
    43d7:	eb 0a                	jmp    43e3 <safe_add_func_double_f_f+0x5f>
    43d9:	f2 0f 10 45 f8       	movsd  -0x8(%rbp),%xmm0
    43de:	f2 0f 58 45 f0       	addsd  -0x10(%rbp),%xmm0
    43e3:	5d                   	pop    %rbp
    43e4:	c3                   	retq   

00000000000043e5 <safe_sub_func_double_f_f>:
    43e5:	f3 0f 1e fa          	endbr64 
    43e9:	55                   	push   %rbp
    43ea:	48 89 e5             	mov    %rsp,%rbp
    43ed:	f2 0f 11 45 f8       	movsd  %xmm0,-0x8(%rbp)
    43f2:	f2 0f 11 4d f0       	movsd  %xmm1,-0x10(%rbp)
    43f7:	f2 0f 10 4d f8       	movsd  -0x8(%rbp),%xmm1
    43fc:	f2 0f 10 05 3c c6 00 	movsd  0xc63c(%rip),%xmm0        # 10a40 <g_1116+0x19e8>
    4403:	00 
    4404:	f2 0f 59 c1          	mulsd  %xmm1,%xmm0
    4408:	f2 0f 10 55 f0       	movsd  -0x10(%rbp),%xmm2
    440d:	f2 0f 10 0d 2b c6 00 	movsd  0xc62b(%rip),%xmm1        # 10a40 <g_1116+0x19e8>
    4414:	00 
    4415:	f2 0f 59 ca          	mulsd  %xmm2,%xmm1
    4419:	f2 0f 5c c1          	subsd  %xmm1,%xmm0
    441d:	f3 0f 7e 0d 2b c6 00 	movq   0xc62b(%rip),%xmm1        # 10a50 <g_1116+0x19f8>
    4424:	00 
    4425:	66 0f 54 c1          	andpd  %xmm1,%xmm0
    4429:	66 0f 2f 05 2f c6 00 	comisd 0xc62f(%rip),%xmm0        # 10a60 <g_1116+0x1a08>
    4430:	00 
    4431:	76 07                	jbe    443a <safe_sub_func_double_f_f+0x55>
    4433:	f2 0f 10 45 f8       	movsd  -0x8(%rbp),%xmm0
    4438:	eb 0a                	jmp    4444 <safe_sub_func_double_f_f+0x5f>
    443a:	f2 0f 10 45 f8       	movsd  -0x8(%rbp),%xmm0
    443f:	f2 0f 5c 45 f0       	subsd  -0x10(%rbp),%xmm0
    4444:	5d                   	pop    %rbp
    4445:	c3                   	retq   

0000000000004446 <safe_mul_func_double_f_f>:
    4446:	f3 0f 1e fa          	endbr64 
    444a:	55                   	push   %rbp
    444b:	48 89 e5             	mov    %rsp,%rbp
    444e:	f2 0f 11 45 f8       	movsd  %xmm0,-0x8(%rbp)
    4453:	f2 0f 11 4d f0       	movsd  %xmm1,-0x10(%rbp)
    4458:	f2 0f 10 4d f8       	movsd  -0x8(%rbp),%xmm1
    445d:	f2 0f 10 05 03 c6 00 	movsd  0xc603(%rip),%xmm0        # 10a68 <g_1116+0x1a10>
    4464:	00 
    4465:	f2 0f 59 c8          	mulsd  %xmm0,%xmm1
    4469:	f2 0f 10 55 f0       	movsd  -0x10(%rbp),%xmm2
    446e:	f2 0f 10 05 fa c5 00 	movsd  0xc5fa(%rip),%xmm0        # 10a70 <g_1116+0x1a18>
    4475:	00 
    4476:	f2 0f 59 c2          	mulsd  %xmm2,%xmm0
    447a:	f2 0f 59 c1          	mulsd  %xmm1,%xmm0
    447e:	f3 0f 7e 0d ca c5 00 	movq   0xc5ca(%rip),%xmm1        # 10a50 <g_1116+0x19f8>
    4485:	00 
    4486:	66 0f 54 c1          	andpd  %xmm1,%xmm0
    448a:	66 0f 2f 05 e6 c5 00 	comisd 0xc5e6(%rip),%xmm0        # 10a78 <g_1116+0x1a20>
    4491:	00 
    4492:	76 07                	jbe    449b <safe_mul_func_double_f_f+0x55>
    4494:	f2 0f 10 45 f8       	movsd  -0x8(%rbp),%xmm0
    4499:	eb 0a                	jmp    44a5 <safe_mul_func_double_f_f+0x5f>
    449b:	f2 0f 10 45 f8       	movsd  -0x8(%rbp),%xmm0
    44a0:	f2 0f 59 45 f0       	mulsd  -0x10(%rbp),%xmm0
    44a5:	5d                   	pop    %rbp
    44a6:	c3                   	retq   

00000000000044a7 <safe_div_func_double_f_f>:
    44a7:	f3 0f 1e fa          	endbr64 
    44ab:	55                   	push   %rbp
    44ac:	48 89 e5             	mov    %rsp,%rbp
    44af:	f2 0f 11 45 f8       	movsd  %xmm0,-0x8(%rbp)
    44b4:	f2 0f 11 4d f0       	movsd  %xmm1,-0x10(%rbp)
    44b9:	f2 0f 10 45 f0       	movsd  -0x10(%rbp),%xmm0
    44be:	f3 0f 7e 0d 8a c5 00 	movq   0xc58a(%rip),%xmm1        # 10a50 <g_1116+0x19f8>
    44c5:	00 
    44c6:	66 0f 54 c8          	andpd  %xmm0,%xmm1
    44ca:	f2 0f 10 05 ae c5 00 	movsd  0xc5ae(%rip),%xmm0        # 10a80 <g_1116+0x1a28>
    44d1:	00 
    44d2:	66 0f 2f c1          	comisd %xmm1,%xmm0
    44d6:	0f 97 c0             	seta   %al
    44d9:	83 f0 01             	xor    $0x1,%eax
    44dc:	84 c0                	test   %al,%al
    44de:	75 5a                	jne    453a <safe_div_func_double_f_f+0x93>
    44e0:	66 0f ef c0          	pxor   %xmm0,%xmm0
    44e4:	66 0f 2e 45 f0       	ucomisd -0x10(%rbp),%xmm0
    44e9:	7a 0b                	jp     44f6 <safe_div_func_double_f_f+0x4f>
    44eb:	66 0f ef c0          	pxor   %xmm0,%xmm0
    44ef:	66 0f 2e 45 f0       	ucomisd -0x10(%rbp),%xmm0
    44f4:	74 50                	je     4546 <safe_div_func_double_f_f+0x9f>
    44f6:	f2 0f 10 4d f8       	movsd  -0x8(%rbp),%xmm1
    44fb:	f2 0f 10 05 85 c5 00 	movsd  0xc585(%rip),%xmm0        # 10a88 <g_1116+0x1a30>
    4502:	00 
    4503:	f2 0f 59 c1          	mulsd  %xmm1,%xmm0
    4507:	f2 0f 10 55 f0       	movsd  -0x10(%rbp),%xmm2
    450c:	f2 0f 10 0d 7c c5 00 	movsd  0xc57c(%rip),%xmm1        # 10a90 <g_1116+0x1a38>
    4513:	00 
    4514:	f2 0f 59 ca          	mulsd  %xmm2,%xmm1
    4518:	f2 0f 5e c1          	divsd  %xmm1,%xmm0
    451c:	f3 0f 7e 0d 2c c5 00 	movq   0xc52c(%rip),%xmm1        # 10a50 <g_1116+0x19f8>
    4523:	00 
    4524:	66 0f 54 c1          	andpd  %xmm1,%xmm0
    4528:	66 0f 2f 05 68 c5 00 	comisd 0xc568(%rip),%xmm0        # 10a98 <g_1116+0x1a40>
    452f:	00 
    4530:	0f 97 c0             	seta   %al
    4533:	83 f0 01             	xor    $0x1,%eax
    4536:	84 c0                	test   %al,%al
    4538:	74 0c                	je     4546 <safe_div_func_double_f_f+0x9f>
    453a:	f2 0f 10 45 f8       	movsd  -0x8(%rbp),%xmm0
    453f:	f2 0f 5e 45 f0       	divsd  -0x10(%rbp),%xmm0
    4544:	eb 05                	jmp    454b <safe_div_func_double_f_f+0xa4>
    4546:	f2 0f 10 45 f8       	movsd  -0x8(%rbp),%xmm0
    454b:	5d                   	pop    %rbp
    454c:	c3                   	retq   

000000000000454d <safe_convert_func_float_to_int32_t>:
    454d:	f3 0f 1e fa          	endbr64 
    4551:	55                   	push   %rbp
    4552:	48 89 e5             	mov    %rsp,%rbp
    4555:	f3 0f 11 45 fc       	movss  %xmm0,-0x4(%rbp)
    455a:	f3 0f 10 05 3e c5 00 	movss  0xc53e(%rip),%xmm0        # 10aa0 <g_1116+0x1a48>
    4561:	00 
    4562:	0f 2f 45 fc          	comiss -0x4(%rbp),%xmm0
    4566:	0f 93 c0             	setae  %al
    4569:	83 f0 01             	xor    $0x1,%eax
    456c:	84 c0                	test   %al,%al
    456e:	74 21                	je     4591 <safe_convert_func_float_to_int32_t+0x44>
    4570:	f3 0f 10 45 fc       	movss  -0x4(%rbp),%xmm0
    4575:	0f 2f 05 28 c5 00 00 	comiss 0xc528(%rip),%xmm0        # 10aa4 <g_1116+0x1a4c>
    457c:	0f 93 c0             	setae  %al
    457f:	83 f0 01             	xor    $0x1,%eax
    4582:	84 c0                	test   %al,%al
    4584:	74 0b                	je     4591 <safe_convert_func_float_to_int32_t+0x44>
    4586:	f3 0f 10 45 fc       	movss  -0x4(%rbp),%xmm0
    458b:	f3 0f 2c c0          	cvttss2si %xmm0,%eax
    458f:	eb 05                	jmp    4596 <safe_convert_func_float_to_int32_t+0x49>
    4591:	b8 ff ff ff 7f       	mov    $0x7fffffff,%eax
    4596:	5d                   	pop    %rbp
    4597:	c3                   	retq   

0000000000004598 <crc32_gentab>:
    4598:	f3 0f 1e fa          	endbr64 
    459c:	55                   	push   %rbp
    459d:	48 89 e5             	mov    %rsp,%rbp
    45a0:	c7 45 fc 20 83 b8 ed 	movl   $0xedb88320,-0x4(%rbp)
    45a7:	c7 45 f4 00 00 00 00 	movl   $0x0,-0xc(%rbp)
    45ae:	eb 51                	jmp    4601 <crc32_gentab+0x69>
    45b0:	8b 45 f4             	mov    -0xc(%rbp),%eax
    45b3:	89 45 f0             	mov    %eax,-0x10(%rbp)
    45b6:	c7 45 f8 08 00 00 00 	movl   $0x8,-0x8(%rbp)
    45bd:	eb 1e                	jmp    45dd <crc32_gentab+0x45>
    45bf:	8b 45 f0             	mov    -0x10(%rbp),%eax
    45c2:	83 e0 01             	and    $0x1,%eax
    45c5:	85 c0                	test   %eax,%eax
    45c7:	74 0d                	je     45d6 <crc32_gentab+0x3e>
    45c9:	8b 45 f0             	mov    -0x10(%rbp),%eax
    45cc:	d1 e8                	shr    %eax
    45ce:	33 45 fc             	xor    -0x4(%rbp),%eax
    45d1:	89 45 f0             	mov    %eax,-0x10(%rbp)
    45d4:	eb 03                	jmp    45d9 <crc32_gentab+0x41>
    45d6:	d1 6d f0             	shrl   -0x10(%rbp)
    45d9:	83 6d f8 01          	subl   $0x1,-0x8(%rbp)
    45dd:	83 7d f8 00          	cmpl   $0x0,-0x8(%rbp)
    45e1:	7f dc                	jg     45bf <crc32_gentab+0x27>
    45e3:	8b 45 f4             	mov    -0xc(%rbp),%eax
    45e6:	48 98                	cltq   
    45e8:	48 8d 0c 85 00 00 00 	lea    0x0(,%rax,4),%rcx
    45ef:	00 
    45f0:	48 8d 15 a9 fd 00 00 	lea    0xfda9(%rip),%rdx        # 143a0 <crc32_tab>
    45f7:	8b 45 f0             	mov    -0x10(%rbp),%eax
    45fa:	89 04 11             	mov    %eax,(%rcx,%rdx,1)
    45fd:	83 45 f4 01          	addl   $0x1,-0xc(%rbp)
    4601:	81 7d f4 ff 00 00 00 	cmpl   $0xff,-0xc(%rbp)
    4608:	7e a6                	jle    45b0 <crc32_gentab+0x18>
    460a:	90                   	nop
    460b:	90                   	nop
    460c:	5d                   	pop    %rbp
    460d:	c3                   	retq   

000000000000460e <crc32_byte>:
    460e:	f3 0f 1e fa          	endbr64 
    4612:	55                   	push   %rbp
    4613:	48 89 e5             	mov    %rsp,%rbp
    4616:	89 f8                	mov    %edi,%eax
    4618:	88 45 fc             	mov    %al,-0x4(%rbp)
    461b:	8b 05 ff e9 00 00    	mov    0xe9ff(%rip),%eax        # 13020 <crc32_context>
    4621:	c1 e8 08             	shr    $0x8,%eax
    4624:	89 c1                	mov    %eax,%ecx
    4626:	0f b6 55 fc          	movzbl -0x4(%rbp),%edx
    462a:	8b 05 f0 e9 00 00    	mov    0xe9f0(%rip),%eax        # 13020 <crc32_context>
    4630:	31 d0                	xor    %edx,%eax
    4632:	0f b6 c0             	movzbl %al,%eax
    4635:	89 c0                	mov    %eax,%eax
    4637:	48 8d 14 85 00 00 00 	lea    0x0(,%rax,4),%rdx
    463e:	00 
    463f:	48 8d 05 5a fd 00 00 	lea    0xfd5a(%rip),%rax        # 143a0 <crc32_tab>
    4646:	8b 04 02             	mov    (%rdx,%rax,1),%eax
    4649:	31 c8                	xor    %ecx,%eax
    464b:	89 05 cf e9 00 00    	mov    %eax,0xe9cf(%rip)        # 13020 <crc32_context>
    4651:	90                   	nop
    4652:	5d                   	pop    %rbp
    4653:	c3                   	retq   

0000000000004654 <crc32_8bytes>:
    4654:	f3 0f 1e fa          	endbr64 
    4658:	55                   	push   %rbp
    4659:	48 89 e5             	mov    %rsp,%rbp
    465c:	48 83 ec 08          	sub    $0x8,%rsp
    4660:	48 89 7d f8          	mov    %rdi,-0x8(%rbp)
    4664:	48 8b 45 f8          	mov    -0x8(%rbp),%rax
    4668:	0f b6 c0             	movzbl %al,%eax
    466b:	89 c7                	mov    %eax,%edi
    466d:	e8 9c ff ff ff       	callq  460e <crc32_byte>
    4672:	48 8b 45 f8          	mov    -0x8(%rbp),%rax
    4676:	48 c1 e8 08          	shr    $0x8,%rax
    467a:	0f b6 c0             	movzbl %al,%eax
    467d:	89 c7                	mov    %eax,%edi
    467f:	e8 8a ff ff ff       	callq  460e <crc32_byte>
    4684:	48 8b 45 f8          	mov    -0x8(%rbp),%rax
    4688:	48 c1 e8 10          	shr    $0x10,%rax
    468c:	0f b6 c0             	movzbl %al,%eax
    468f:	89 c7                	mov    %eax,%edi
    4691:	e8 78 ff ff ff       	callq  460e <crc32_byte>
    4696:	48 8b 45 f8          	mov    -0x8(%rbp),%rax
    469a:	48 c1 e8 18          	shr    $0x18,%rax
    469e:	0f b6 c0             	movzbl %al,%eax
    46a1:	89 c7                	mov    %eax,%edi
    46a3:	e8 66 ff ff ff       	callq  460e <crc32_byte>
    46a8:	48 8b 45 f8          	mov    -0x8(%rbp),%rax
    46ac:	48 c1 e8 20          	shr    $0x20,%rax
    46b0:	0f b6 c0             	movzbl %al,%eax
    46b3:	89 c7                	mov    %eax,%edi
    46b5:	e8 54 ff ff ff       	callq  460e <crc32_byte>
    46ba:	48 8b 45 f8          	mov    -0x8(%rbp),%rax
    46be:	48 c1 e8 28          	shr    $0x28,%rax
    46c2:	0f b6 c0             	movzbl %al,%eax
    46c5:	89 c7                	mov    %eax,%edi
    46c7:	e8 42 ff ff ff       	callq  460e <crc32_byte>
    46cc:	48 8b 45 f8          	mov    -0x8(%rbp),%rax
    46d0:	48 c1 e8 30          	shr    $0x30,%rax
    46d4:	0f b6 c0             	movzbl %al,%eax
    46d7:	89 c7                	mov    %eax,%edi
    46d9:	e8 30 ff ff ff       	callq  460e <crc32_byte>
    46de:	48 8b 45 f8          	mov    -0x8(%rbp),%rax
    46e2:	48 c1 e8 38          	shr    $0x38,%rax
    46e6:	0f b6 c0             	movzbl %al,%eax
    46e9:	89 c7                	mov    %eax,%edi
    46eb:	e8 1e ff ff ff       	callq  460e <crc32_byte>
    46f0:	90                   	nop
    46f1:	c9                   	leaveq 
    46f2:	c3                   	retq   

00000000000046f3 <transparent_crc>:
    46f3:	f3 0f 1e fa          	endbr64 
    46f7:	55                   	push   %rbp
    46f8:	48 89 e5             	mov    %rsp,%rbp
    46fb:	48 83 ec 20          	sub    $0x20,%rsp
    46ff:	48 89 7d f8          	mov    %rdi,-0x8(%rbp)
    4703:	48 89 75 f0          	mov    %rsi,-0x10(%rbp)
    4707:	89 55 ec             	mov    %edx,-0x14(%rbp)
    470a:	48 8b 45 f8          	mov    -0x8(%rbp),%rax
    470e:	48 89 c7             	mov    %rax,%rdi
    4711:	e8 3e ff ff ff       	callq  4654 <crc32_8bytes>
    4716:	83 7d ec 00          	cmpl   $0x0,-0x14(%rbp)
    471a:	74 22                	je     473e <transparent_crc+0x4b>
    471c:	8b 05 fe e8 00 00    	mov    0xe8fe(%rip),%eax        # 13020 <crc32_context>
    4722:	f7 d0                	not    %eax
    4724:	89 c2                	mov    %eax,%edx
    4726:	48 8b 45 f0          	mov    -0x10(%rbp),%rax
    472a:	48 89 c6             	mov    %rax,%rsi
    472d:	48 8d 3d fc a8 00 00 	lea    0xa8fc(%rip),%rdi        # f030 <_IO_stdin_used+0x30>
    4734:	b8 00 00 00 00       	mov    $0x0,%eax
    4739:	e8 42 e9 ff ff       	callq  3080 <printf@plt>
    473e:	90                   	nop
    473f:	c9                   	leaveq 
    4740:	c3                   	retq   

0000000000004741 <transparent_crc_bytes>:
    4741:	f3 0f 1e fa          	endbr64 
    4745:	55                   	push   %rbp
    4746:	48 89 e5             	mov    %rsp,%rbp
    4749:	48 83 ec 30          	sub    $0x30,%rsp
    474d:	48 89 7d e8          	mov    %rdi,-0x18(%rbp)
    4751:	89 75 e4             	mov    %esi,-0x1c(%rbp)
    4754:	48 89 55 d8          	mov    %rdx,-0x28(%rbp)
    4758:	89 4d e0             	mov    %ecx,-0x20(%rbp)
    475b:	c7 45 fc 00 00 00 00 	movl   $0x0,-0x4(%rbp)
    4762:	eb 1e                	jmp    4782 <transparent_crc_bytes+0x41>
    4764:	8b 45 fc             	mov    -0x4(%rbp),%eax
    4767:	48 63 d0             	movslq %eax,%rdx
    476a:	48 8b 45 e8          	mov    -0x18(%rbp),%rax
    476e:	48 01 d0             	add    %rdx,%rax
    4771:	0f b6 00             	movzbl (%rax),%eax
    4774:	0f b6 c0             	movzbl %al,%eax
    4777:	89 c7                	mov    %eax,%edi
    4779:	e8 90 fe ff ff       	callq  460e <crc32_byte>
    477e:	83 45 fc 01          	addl   $0x1,-0x4(%rbp)
    4782:	8b 45 fc             	mov    -0x4(%rbp),%eax
    4785:	3b 45 e4             	cmp    -0x1c(%rbp),%eax
    4788:	7c da                	jl     4764 <transparent_crc_bytes+0x23>
    478a:	83 7d e0 00          	cmpl   $0x0,-0x20(%rbp)
    478e:	74 22                	je     47b2 <transparent_crc_bytes+0x71>
    4790:	8b 05 8a e8 00 00    	mov    0xe88a(%rip),%eax        # 13020 <crc32_context>
    4796:	f7 d0                	not    %eax
    4798:	89 c2                	mov    %eax,%edx
    479a:	48 8b 45 d8          	mov    -0x28(%rbp),%rax
    479e:	48 89 c6             	mov    %rax,%rsi
    47a1:	48 8d 3d 88 a8 00 00 	lea    0xa888(%rip),%rdi        # f030 <_IO_stdin_used+0x30>
    47a8:	b8 00 00 00 00       	mov    $0x0,%eax
    47ad:	e8 ce e8 ff ff       	callq  3080 <printf@plt>
    47b2:	90                   	nop
    47b3:	c9                   	leaveq 
    47b4:	c3                   	retq   

00000000000047b5 <func_1>:
    47b5:	f3 0f 1e fa          	endbr64 
    47b9:	55                   	push   %rbp
    47ba:	48 89 e5             	mov    %rsp,%rbp
    47bd:	41 55                	push   %r13
    47bf:	41 54                	push   %r12
    47c1:	53                   	push   %rbx
    47c2:	48 81 ec e8 01 00 00 	sub    $0x1e8,%rsp
    47c9:	64 48 8b 04 25 28 00 	mov    %fs:0x28,%rax
    47d0:	00 00 
    47d2:	48 89 45 d8          	mov    %rax,-0x28(%rbp)
    47d6:	31 c0                	xor    %eax,%eax
    47d8:	66 c7 85 00 ff ff ff 	movw   $0x503,-0x100(%rbp)
    47df:	03 05 
    47e1:	c6 85 02 ff ff ff 36 	movb   $0x36,-0xfe(%rbp)
    47e8:	66 c7 85 03 ff ff ff 	movw   $0x100,-0xfd(%rbp)
    47ef:	00 01 
    47f1:	c6 85 05 ff ff ff 00 	movb   $0x0,-0xfb(%rbp)
    47f8:	66 c7 85 06 ff ff ff 	movw   $0x301,-0xfa(%rbp)
    47ff:	01 03 
    4801:	c6 85 08 ff ff ff 36 	movb   $0x36,-0xf8(%rbp)
    4808:	66 c7 85 09 ff ff ff 	movw   $0x0,-0xf7(%rbp)
    480f:	00 00 
    4811:	c6 85 0b ff ff ff fa 	movb   $0xfa,-0xf5(%rbp)
    4818:	66 c7 85 0c ff ff ff 	movw   $0x31e,-0xf4(%rbp)
    481f:	1e 03 
    4821:	c6 85 0e ff ff ff 03 	movb   $0x3,-0xf2(%rbp)
    4828:	66 c7 85 0f ff ff ff 	movw   $0x1fa,-0xf1(%rbp)
    482f:	fa 01 
    4831:	c6 85 11 ff ff ff c0 	movb   $0xc0,-0xef(%rbp)
    4838:	66 c7 85 12 ff ff ff 	movw   $0x51e,-0xee(%rbp)
    483f:	1e 05 
    4841:	c6 85 14 ff ff ff 1e 	movb   $0x1e,-0xec(%rbp)
    4848:	66 c7 85 15 ff ff ff 	movw   $0xfa00,-0xeb(%rbp)
    484f:	00 fa 
    4851:	c6 85 17 ff ff ff c0 	movb   $0xc0,-0xe9(%rbp)
    4858:	66 c7 85 18 ff ff ff 	movw   $0x101,-0xe8(%rbp)
    485f:	01 01 
    4861:	c6 85 1a ff ff ff 03 	movb   $0x3,-0xe6(%rbp)
    4868:	66 c7 85 1b ff ff ff 	movw   $0xfa00,-0xe5(%rbp)
    486f:	00 fa 
    4871:	c6 85 1d ff ff ff fa 	movb   $0xfa,-0xe3(%rbp)
    4878:	66 c7 85 1e ff ff ff 	movw   $0x503,-0xe2(%rbp)
    487f:	03 05 
    4881:	c6 85 20 ff ff ff 36 	movb   $0x36,-0xe0(%rbp)
    4888:	66 c7 85 21 ff ff ff 	movw   $0x100,-0xdf(%rbp)
    488f:	00 01 
    4891:	c6 85 23 ff ff ff 00 	movb   $0x0,-0xdd(%rbp)
    4898:	66 c7 85 24 ff ff ff 	movw   $0x301,-0xdc(%rbp)
    489f:	01 03 
    48a1:	c6 85 26 ff ff ff 36 	movb   $0x36,-0xda(%rbp)
    48a8:	66 c7 85 27 ff ff ff 	movw   $0x0,-0xd9(%rbp)
    48af:	00 00 
    48b1:	c6 85 29 ff ff ff fa 	movb   $0xfa,-0xd7(%rbp)
    48b8:	66 c7 85 2a ff ff ff 	movw   $0x31e,-0xd6(%rbp)
    48bf:	1e 03 
    48c1:	c6 85 2c ff ff ff 03 	movb   $0x3,-0xd4(%rbp)
    48c8:	66 c7 85 2d ff ff ff 	movw   $0x1fa,-0xd3(%rbp)
    48cf:	fa 01 
    48d1:	c6 85 2f ff ff ff c0 	movb   $0xc0,-0xd1(%rbp)
    48d8:	66 c7 85 30 ff ff ff 	movw   $0x51e,-0xd0(%rbp)
    48df:	1e 05 
    48e1:	c6 85 32 ff ff ff 1e 	movb   $0x1e,-0xce(%rbp)
    48e8:	66 c7 85 33 ff ff ff 	movw   $0xfa00,-0xcd(%rbp)
    48ef:	00 fa 
    48f1:	c6 85 35 ff ff ff c0 	movb   $0xc0,-0xcb(%rbp)
    48f8:	66 c7 85 36 ff ff ff 	movw   $0x101,-0xca(%rbp)
    48ff:	01 01 
    4901:	c6 85 38 ff ff ff 03 	movb   $0x3,-0xc8(%rbp)
    4908:	66 c7 85 39 ff ff ff 	movw   $0xfa00,-0xc7(%rbp)
    490f:	00 fa 
    4911:	c6 85 3b ff ff ff fa 	movb   $0xfa,-0xc5(%rbp)
    4918:	66 c7 85 3c ff ff ff 	movw   $0x503,-0xc4(%rbp)
    491f:	03 05 
    4921:	c6 85 3e ff ff ff 36 	movb   $0x36,-0xc2(%rbp)
    4928:	66 c7 85 3f ff ff ff 	movw   $0x100,-0xc1(%rbp)
    492f:	00 01 
    4931:	c6 85 41 ff ff ff 00 	movb   $0x0,-0xbf(%rbp)
    4938:	66 c7 85 42 ff ff ff 	movw   $0x301,-0xbe(%rbp)
    493f:	01 03 
    4941:	c6 85 44 ff ff ff 36 	movb   $0x36,-0xbc(%rbp)
    4948:	66 c7 85 45 ff ff ff 	movw   $0x0,-0xbb(%rbp)
    494f:	00 00 
    4951:	c6 85 47 ff ff ff fa 	movb   $0xfa,-0xb9(%rbp)
    4958:	66 c7 85 48 ff ff ff 	movw   $0x31e,-0xb8(%rbp)
    495f:	1e 03 
    4961:	c6 85 4a ff ff ff 03 	movb   $0x3,-0xb6(%rbp)
    4968:	66 c7 85 4b ff ff ff 	movw   $0x1fa,-0xb5(%rbp)
    496f:	fa 01 
    4971:	c6 85 4d ff ff ff c0 	movb   $0xc0,-0xb3(%rbp)
    4978:	66 c7 85 4e ff ff ff 	movw   $0x51e,-0xb2(%rbp)
    497f:	1e 05 
    4981:	c6 85 50 ff ff ff 1e 	movb   $0x1e,-0xb0(%rbp)
    4988:	66 c7 85 51 ff ff ff 	movw   $0x0,-0xaf(%rbp)
    498f:	00 00 
    4991:	c6 85 53 ff ff ff 01 	movb   $0x1,-0xad(%rbp)
    4998:	66 c7 85 54 ff ff ff 	movw   $0x303,-0xac(%rbp)
    499f:	03 03 
    49a1:	c6 85 56 ff ff ff 1e 	movb   $0x1e,-0xaa(%rbp)
    49a8:	66 c7 85 57 ff ff ff 	movw   $0xc0,-0xa9(%rbp)
    49af:	c0 00 
    49b1:	c6 85 59 ff ff ff 00 	movb   $0x0,-0xa7(%rbp)
    49b8:	66 c7 85 5a ff ff ff 	movw   $0x11e,-0xa6(%rbp)
    49bf:	1e 01 
    49c1:	c6 85 5c ff ff ff 05 	movb   $0x5,-0xa4(%rbp)
    49c8:	66 c7 85 5d ff ff ff 	movw   $0xc0,-0xa3(%rbp)
    49cf:	c0 00 
    49d1:	c6 85 5f ff ff ff c0 	movb   $0xc0,-0xa1(%rbp)
    49d8:	66 c7 85 60 ff ff ff 	movw   $0x1e03,-0xa0(%rbp)
    49df:	03 1e 
    49e1:	c6 85 62 ff ff ff 05 	movb   $0x5,-0x9e(%rbp)
    49e8:	66 c7 85 63 ff ff ff 	movw   $0xfafa,-0x9d(%rbp)
    49ef:	fa fa 
    49f1:	c6 85 65 ff ff ff 00 	movb   $0x0,-0x9b(%rbp)
    49f8:	66 c7 85 66 ff ff ff 	movw   $0x1e36,-0x9a(%rbp)
    49ff:	36 1e 
    4a01:	c6 85 68 ff ff ff 1e 	movb   $0x1e,-0x98(%rbp)
    4a08:	66 c7 85 69 ff ff ff 	movw   $0x0,-0x97(%rbp)
    4a0f:	00 00 
    4a11:	c6 85 6b ff ff ff 01 	movb   $0x1,-0x95(%rbp)
    4a18:	66 c7 85 6c ff ff ff 	movw   $0x136,-0x94(%rbp)
    4a1f:	36 01 
    4a21:	c6 85 6e ff ff ff 36 	movb   $0x36,-0x92(%rbp)
    4a28:	66 c7 85 6f ff ff ff 	movw   $0xfa,-0x91(%rbp)
    4a2f:	fa 00 
    4a31:	c6 85 71 ff ff ff 01 	movb   $0x1,-0x8f(%rbp)
    4a38:	66 c7 85 72 ff ff ff 	movw   $0x303,-0x8e(%rbp)
    4a3f:	03 03 
    4a41:	c6 85 74 ff ff ff 1e 	movb   $0x1e,-0x8c(%rbp)
    4a48:	66 c7 85 75 ff ff ff 	movw   $0xc0,-0x8b(%rbp)
    4a4f:	c0 00 
    4a51:	c6 85 77 ff ff ff 00 	movb   $0x0,-0x89(%rbp)
    4a58:	66 c7 85 78 ff ff ff 	movw   $0x11e,-0x88(%rbp)
    4a5f:	1e 01 
    4a61:	c6 85 7a ff ff ff 05 	movb   $0x5,-0x86(%rbp)
    4a68:	66 c7 85 7b ff ff ff 	movw   $0xc0,-0x85(%rbp)
    4a6f:	c0 00 
    4a71:	c6 85 7d ff ff ff c0 	movb   $0xc0,-0x83(%rbp)
    4a78:	66 c7 85 7e ff ff ff 	movw   $0x1e03,-0x82(%rbp)
    4a7f:	03 1e 
    4a81:	c6 45 80 05          	movb   $0x5,-0x80(%rbp)
    4a85:	66 c7 45 81 fa fa    	movw   $0xfafa,-0x7f(%rbp)
    4a8b:	c6 45 83 00          	movb   $0x0,-0x7d(%rbp)
    4a8f:	66 c7 45 84 36 1e    	movw   $0x1e36,-0x7c(%rbp)
    4a95:	c6 45 86 1e          	movb   $0x1e,-0x7a(%rbp)
    4a99:	66 c7 45 87 00 00    	movw   $0x0,-0x79(%rbp)
    4a9f:	c6 45 89 01          	movb   $0x1,-0x77(%rbp)
    4aa3:	66 c7 45 8a 36 01    	movw   $0x136,-0x76(%rbp)
    4aa9:	c6 45 8c 36          	movb   $0x36,-0x74(%rbp)
    4aad:	66 c7 45 8d fa 00    	movw   $0xfa,-0x73(%rbp)
    4ab3:	c6 45 8f 01          	movb   $0x1,-0x71(%rbp)
    4ab7:	66 c7 45 90 03 03    	movw   $0x303,-0x70(%rbp)
    4abd:	c6 45 92 1e          	movb   $0x1e,-0x6e(%rbp)
    4ac1:	66 c7 45 93 c0 00    	movw   $0xc0,-0x6d(%rbp)
    4ac7:	c6 45 95 00          	movb   $0x0,-0x6b(%rbp)
    4acb:	66 c7 45 96 1e 01    	movw   $0x11e,-0x6a(%rbp)
    4ad1:	c6 45 98 05          	movb   $0x5,-0x68(%rbp)
    4ad5:	66 c7 45 99 c0 00    	movw   $0xc0,-0x67(%rbp)
    4adb:	c6 45 9b c0          	movb   $0xc0,-0x65(%rbp)
    4adf:	66 c7 45 9c 03 1e    	movw   $0x1e03,-0x64(%rbp)
    4ae5:	c6 45 9e 05          	movb   $0x5,-0x62(%rbp)
    4ae9:	66 c7 45 9f fa fa    	movw   $0xfafa,-0x61(%rbp)
    4aef:	c6 45 a1 00          	movb   $0x0,-0x5f(%rbp)
    4af3:	66 c7 45 a2 36 1e    	movw   $0x1e36,-0x5e(%rbp)
    4af9:	c6 45 a4 1e          	movb   $0x1e,-0x5c(%rbp)
    4afd:	66 c7 45 a5 00 00    	movw   $0x0,-0x5b(%rbp)
    4b03:	c6 45 a7 01          	movb   $0x1,-0x59(%rbp)
    4b07:	66 c7 45 a8 36 01    	movw   $0x136,-0x58(%rbp)
    4b0d:	c6 45 aa 36          	movb   $0x36,-0x56(%rbp)
    4b11:	66 c7 45 ab fa 00    	movw   $0xfa,-0x55(%rbp)
    4b17:	c6 45 ad 01          	movb   $0x1,-0x53(%rbp)
    4b1b:	66 c7 45 ae 03 03    	movw   $0x303,-0x52(%rbp)
    4b21:	c6 45 b0 1e          	movb   $0x1e,-0x50(%rbp)
    4b25:	66 c7 45 b1 c0 00    	movw   $0xc0,-0x4f(%rbp)
    4b2b:	c6 45 b3 00          	movb   $0x0,-0x4d(%rbp)
    4b2f:	66 c7 45 b4 1e 01    	movw   $0x11e,-0x4c(%rbp)
    4b35:	c6 45 b6 05          	movb   $0x5,-0x4a(%rbp)
    4b39:	66 c7 45 b7 c0 00    	movw   $0xc0,-0x49(%rbp)
    4b3f:	c6 45 b9 c0          	movb   $0xc0,-0x47(%rbp)
    4b43:	66 c7 45 ba 03 1e    	movw   $0x1e03,-0x46(%rbp)
    4b49:	c6 45 bc 05          	movb   $0x5,-0x44(%rbp)
    4b4d:	66 c7 45 bd fa fa    	movw   $0xfafa,-0x43(%rbp)
    4b53:	c6 45 bf 00          	movb   $0x0,-0x41(%rbp)
    4b57:	66 c7 45 c0 36 1e    	movw   $0x1e36,-0x40(%rbp)
    4b5d:	c6 45 c2 1e          	movb   $0x1e,-0x3e(%rbp)
    4b61:	66 c7 45 c3 00 00    	movw   $0x0,-0x3d(%rbp)
    4b67:	c6 45 c5 01          	movb   $0x1,-0x3b(%rbp)
    4b6b:	66 c7 45 c6 36 01    	movw   $0x136,-0x3a(%rbp)
    4b71:	c6 45 c8 36          	movb   $0x36,-0x38(%rbp)
    4b75:	66 c7 45 c9 fa 00    	movw   $0xfa,-0x37(%rbp)
    4b7b:	c6 45 cb 01          	movb   $0x1,-0x35(%rbp)
    4b7f:	66 c7 45 cc 03 03    	movw   $0x303,-0x34(%rbp)
    4b85:	c6 45 ce 1e          	movb   $0x1e,-0x32(%rbp)
    4b89:	66 c7 45 cf c0 00    	movw   $0xc0,-0x31(%rbp)
    4b8f:	c6 45 d1 00          	movb   $0x0,-0x2f(%rbp)
    4b93:	48 8d 05 8a e4 00 00 	lea    0xe48a(%rip),%rax        # 13024 <g_11>
    4b9a:	48 89 85 58 fe ff ff 	mov    %rax,-0x1a8(%rbp)
    4ba1:	48 8d 05 7e e4 00 00 	lea    0xe47e(%rip),%rax        # 13026 <g_13>
    4ba8:	48 89 85 60 fe ff ff 	mov    %rax,-0x1a0(%rbp)
    4baf:	48 8d 05 2a e6 00 00 	lea    0xe62a(%rip),%rax        # 131e0 <g_426>
    4bb6:	48 89 85 68 fe ff ff 	mov    %rax,-0x198(%rbp)
    4bbd:	c7 85 18 fe ff ff ff 	movl   $0xffffffff,-0x1e8(%rbp)
    4bc4:	ff ff ff 
    4bc7:	c7 85 04 fe ff ff fd 	movl   $0xfffffffd,-0x1fc(%rbp)
    4bce:	ff ff ff 
    4bd1:	48 8d 05 18 e5 00 00 	lea    0xe518(%rip),%rax        # 130f0 <g_280>
    4bd8:	48 89 85 20 fe ff ff 	mov    %rax,-0x1e0(%rbp)
    4bdf:	48 8d 85 20 fe ff ff 	lea    -0x1e0(%rbp),%rax
    4be6:	48 89 85 28 fe ff ff 	mov    %rax,-0x1d8(%rbp)
    4bed:	48 8d 85 28 fe ff ff 	lea    -0x1d8(%rbp),%rax
    4bf4:	48 89 85 30 fe ff ff 	mov    %rax,-0x1d0(%rbp)
    4bfb:	48 8d 85 30 fe ff ff 	lea    -0x1d0(%rbp),%rax
    4c02:	48 89 85 70 fe ff ff 	mov    %rax,-0x190(%rbp)
    4c09:	48 8d 85 04 fe ff ff 	lea    -0x1fc(%rbp),%rax
    4c10:	48 89 85 38 fe ff ff 	mov    %rax,-0x1c8(%rbp)
    4c17:	48 8d 85 38 fe ff ff 	lea    -0x1c8(%rbp),%rax
    4c1e:	48 89 85 78 fe ff ff 	mov    %rax,-0x188(%rbp)
    4c25:	c7 85 08 fe ff ff 00 	movl   $0x0,-0x1f8(%rbp)
    4c2c:	00 00 00 
    4c2f:	eb 1a                	jmp    4c4b <func_1+0x496>
    4c31:	8b 85 08 fe ff ff    	mov    -0x1f8(%rbp),%eax
    4c37:	48 98                	cltq   
    4c39:	c7 84 85 9c fe ff ff 	movl   $0x1,-0x164(%rbp,%rax,4)
    4c40:	01 00 00 00 
    4c44:	83 85 08 fe ff ff 01 	addl   $0x1,-0x1f8(%rbp)
    4c4b:	83 bd 08 fe ff ff 00 	cmpl   $0x0,-0x1f8(%rbp)
    4c52:	7e dd                	jle    4c31 <func_1+0x47c>
    4c54:	c7 85 08 fe ff ff 00 	movl   $0x0,-0x1f8(%rbp)
    4c5b:	00 00 00 
    4c5e:	eb 1e                	jmp    4c7e <func_1+0x4c9>
    4c60:	8b 85 08 fe ff ff    	mov    -0x1f8(%rbp),%eax
    4c66:	48 98                	cltq   
    4c68:	48 8d 15 19 f4 00 00 	lea    0xf419(%rip),%rdx        # 14088 <g_128+0x8>
    4c6f:	48 89 94 c5 a0 fe ff 	mov    %rdx,-0x160(%rbp,%rax,8)
    4c76:	ff 
    4c77:	83 85 08 fe ff ff 01 	addl   $0x1,-0x1f8(%rbp)
    4c7e:	83 bd 08 fe ff ff 04 	cmpl   $0x4,-0x1f8(%rbp)
    4c85:	7e d9                	jle    4c60 <func_1+0x4ab>
    4c87:	0f b6 85 52 ff ff ff 	movzbl -0xae(%rbp),%eax
    4c8e:	44 0f b6 e0          	movzbl %al,%r12d
    4c92:	0f b6 85 52 ff ff ff 	movzbl -0xae(%rbp),%eax
    4c99:	44 0f be e8          	movsbl %al,%r13d
    4c9d:	8b 85 9c fe ff ff    	mov    -0x164(%rbp),%eax
    4ca3:	0f b6 d8             	movzbl %al,%ebx
    4ca6:	48 8d 05 7d e3 00 00 	lea    0xe37d(%rip),%rax        # 1302a <g_21>
    4cad:	0f b6 00             	movzbl (%rax),%eax
    4cb0:	0f b6 c8             	movzbl %al,%ecx
    4cb3:	0f b6 05 70 e3 00 00 	movzbl 0xe370(%rip),%eax        # 1302a <g_21>
    4cba:	0f b6 d0             	movzbl %al,%edx
    4cbd:	0f b6 05 66 e3 00 00 	movzbl 0xe366(%rip),%eax        # 1302a <g_21>
    4cc4:	0f b6 c0             	movzbl %al,%eax
    4cc7:	48 8d 3d 5c e3 00 00 	lea    0xe35c(%rip),%rdi        # 1302a <g_21>
    4cce:	89 c6                	mov    %eax,%esi
    4cd0:	e8 d0 02 00 00       	callq  4fa5 <func_15>
    4cd5:	48 8b 95 68 fe ff ff 	mov    -0x198(%rbp),%rdx
    4cdc:	66 89 02             	mov    %ax,(%rdx)
    4cdf:	48 8b 85 68 fe ff ff 	mov    -0x198(%rbp),%rax
    4ce6:	0f b7 00             	movzwl (%rax),%eax
    4ce9:	0f b7 d0             	movzwl %ax,%edx
    4cec:	0f b6 05 fd e3 00 00 	movzbl 0xe3fd(%rip),%eax        # 130f0 <g_280>
    4cf3:	0f be c0             	movsbl %al,%eax
    4cf6:	09 d0                	or     %edx,%eax
    4cf8:	89 85 18 fe ff ff    	mov    %eax,-0x1e8(%rbp)
    4cfe:	8b 85 18 fe ff ff    	mov    -0x1e8(%rbp),%eax
    4d04:	0f b7 d0             	movzwl %ax,%edx
    4d07:	0f b7 05 1a e3 00 00 	movzwl 0xe31a(%rip),%eax        # 13028 <g_14>
    4d0e:	0f b7 c0             	movzwl %ax,%eax
    4d11:	45 89 e8             	mov    %r13d,%r8d
    4d14:	89 d9                	mov    %ebx,%ecx
    4d16:	89 c6                	mov    %eax,%esi
    4d18:	bf 01 00 00 00       	mov    $0x1,%edi
    4d1d:	e8 d8 01 00 00       	callq  4efa <func_3>
    4d22:	0f b7 c0             	movzwl %ax,%eax
    4d25:	49 39 c4             	cmp    %rax,%r12
    4d28:	74 13                	je     4d3d <func_1+0x588>
    4d2a:	c6 85 03 fe ff ff fd 	movb   $0xfd,-0x1fd(%rbp)
    4d31:	0f be 85 03 fe ff ff 	movsbl -0x1fd(%rbp),%eax
    4d38:	e9 9b 01 00 00       	jmpq   4ed8 <func_1+0x723>
    4d3d:	c7 85 1c fe ff ff 2b 	movl   $0x64875b2b,-0x1e4(%rbp)
    4d44:	5b 87 64 
    4d47:	48 8d 05 a1 e3 00 00 	lea    0xe3a1(%rip),%rax        # 130ef <g_276>
    4d4e:	48 89 85 40 fe ff ff 	mov    %rax,-0x1c0(%rbp)
    4d55:	48 8d 85 40 fe ff ff 	lea    -0x1c0(%rbp),%rax
    4d5c:	48 89 85 48 fe ff ff 	mov    %rax,-0x1b8(%rbp)
    4d63:	48 8d 85 d0 fe ff ff 	lea    -0x130(%rbp),%rax
    4d6a:	48 89 85 50 fe ff ff 	mov    %rax,-0x1b0(%rbp)
    4d71:	48 c7 85 80 fe ff ff 	movq   $0x0,-0x180(%rbp)
    4d78:	00 00 00 00 
    4d7c:	48 c7 85 88 fe ff ff 	movq   $0x0,-0x178(%rbp)
    4d83:	00 00 00 00 
    4d87:	48 8d 85 50 fe ff ff 	lea    -0x1b0(%rbp),%rax
    4d8e:	48 89 85 90 fe ff ff 	mov    %rax,-0x170(%rbp)
    4d95:	c7 85 0c fe ff ff 00 	movl   $0x0,-0x1f4(%rbp)
    4d9c:	00 00 00 
    4d9f:	eb 6e                	jmp    4e0f <func_1+0x65a>
    4da1:	c7 85 10 fe ff ff 00 	movl   $0x0,-0x1f0(%rbp)
    4da8:	00 00 00 
    4dab:	eb 52                	jmp    4dff <func_1+0x64a>
    4dad:	c7 85 14 fe ff ff 00 	movl   $0x0,-0x1ec(%rbp)
    4db4:	00 00 00 
    4db7:	eb 36                	jmp    4def <func_1+0x63a>
    4db9:	8b 85 14 fe ff ff    	mov    -0x1ec(%rbp),%eax
    4dbf:	48 63 c8             	movslq %eax,%rcx
    4dc2:	8b 85 10 fe ff ff    	mov    -0x1f0(%rbp),%eax
    4dc8:	48 63 d0             	movslq %eax,%rdx
    4dcb:	8b 85 0c fe ff ff    	mov    -0x1f4(%rbp),%eax
    4dd1:	48 98                	cltq   
    4dd3:	48 01 ca             	add    %rcx,%rdx
    4dd6:	48 01 c2             	add    %rax,%rdx
    4dd9:	48 8d 85 48 fe ff ff 	lea    -0x1b8(%rbp),%rax
    4de0:	48 89 84 d5 d0 fe ff 	mov    %rax,-0x130(%rbp,%rdx,8)
    4de7:	ff 
    4de8:	83 85 14 fe ff ff 01 	addl   $0x1,-0x1ec(%rbp)
    4def:	83 bd 14 fe ff ff 00 	cmpl   $0x0,-0x1ec(%rbp)
    4df6:	7e c1                	jle    4db9 <func_1+0x604>
    4df8:	83 85 10 fe ff ff 01 	addl   $0x1,-0x1f0(%rbp)
    4dff:	83 bd 10 fe ff ff 00 	cmpl   $0x0,-0x1f0(%rbp)
    4e06:	7e a5                	jle    4dad <func_1+0x5f8>
    4e08:	83 85 0c fe ff ff 01 	addl   $0x1,-0x1f4(%rbp)
    4e0f:	83 bd 0c fe ff ff 05 	cmpl   $0x5,-0x1f4(%rbp)
    4e16:	7e 89                	jle    4da1 <func_1+0x5ec>
    4e18:	48 8b 95 50 fe ff ff 	mov    -0x1b0(%rbp),%rdx
    4e1f:	48 8b 85 90 fe ff ff 	mov    -0x170(%rbp),%rax
    4e26:	48 89 10             	mov    %rdx,(%rax)
    4e29:	48 8b 85 90 fe ff ff 	mov    -0x170(%rbp),%rax
    4e30:	48 8b 00             	mov    (%rax),%rax
    4e33:	48 39 85 70 fe ff ff 	cmp    %rax,-0x190(%rbp)
    4e3a:	48 8b 05 bf f4 00 00 	mov    0xf4bf(%rip),%rax        # 14300 <g_1085>
    4e41:	48 8b 00             	mov    (%rax),%rax
    4e44:	48 8b 00             	mov    (%rax),%rax
    4e47:	0f b7 00             	movzwl (%rax),%eax
    4e4a:	0f b7 d8             	movzwl %ax,%ebx
    4e4d:	48 8b 85 c0 fe ff ff 	mov    -0x140(%rbp),%rax
    4e54:	48 85 c0             	test   %rax,%rax
    4e57:	0f 95 c0             	setne  %al
    4e5a:	0f b6 c0             	movzbl %al,%eax
    4e5d:	48 8b 15 34 f3 00 00 	mov    0xf334(%rip),%rdx        # 14198 <g_587>
    4e64:	48 8b 12             	mov    (%rdx),%rdx
    4e67:	66 c7 02 01 00       	movw   $0x1,(%rdx)
    4e6c:	89 c6                	mov    %eax,%esi
    4e6e:	bf 01 00 00 00       	mov    $0x1,%edi
    4e73:	e8 eb e6 ff ff       	callq  3563 <safe_rshift_func_int16_t_s_u>
    4e78:	48 8d 05 a1 f9 00 00 	lea    0xf9a1(%rip),%rax        # 14820 <g_857>
    4e7f:	48 39 85 78 fe ff ff 	cmp    %rax,-0x188(%rbp)
    4e86:	75 10                	jne    4e98 <func_1+0x6e3>
    4e88:	83 bd 1c fe ff ff 00 	cmpl   $0x0,-0x1e4(%rbp)
    4e8f:	74 07                	je     4e98 <func_1+0x6e3>
    4e91:	b8 01 00 00 00       	mov    $0x1,%eax
    4e96:	eb 05                	jmp    4e9d <func_1+0x6e8>
    4e98:	b8 00 00 00 00       	mov    $0x0,%eax
    4e9d:	0f b7 c0             	movzwl %ax,%eax
    4ea0:	89 de                	mov    %ebx,%esi
    4ea2:	89 c7                	mov    %eax,%edi
    4ea4:	e8 e5 ee ff ff       	callq  3d8e <safe_div_func_uint16_t_u_u>
    4ea9:	66 85 c0             	test   %ax,%ax
    4eac:	74 07                	je     4eb5 <func_1+0x700>
    4eae:	83 bd 1c fe ff ff 00 	cmpl   $0x0,-0x1e4(%rbp)
    4eb5:	b9 00 00 00 00       	mov    $0x0,%ecx
    4eba:	48 8b 05 ef f2 00 00 	mov    0xf2ef(%rip),%rax        # 141b0 <g_801>
    4ec1:	8b 10                	mov    (%rax),%edx
    4ec3:	48 8b 05 e6 f2 00 00 	mov    0xf2e6(%rip),%rax        # 141b0 <g_801>
    4eca:	31 ca                	xor    %ecx,%edx
    4ecc:	89 10                	mov    %edx,(%rax)
    4ece:	0f b6 05 51 e1 00 00 	movzbl 0xe151(%rip),%eax        # 13026 <g_13>
    4ed5:	0f b6 c0             	movzbl %al,%eax
    4ed8:	48 8b 75 d8          	mov    -0x28(%rbp),%rsi
    4edc:	64 48 33 34 25 28 00 	xor    %fs:0x28,%rsi
    4ee3:	00 00 
    4ee5:	74 05                	je     4eec <func_1+0x737>
    4ee7:	e8 84 e1 ff ff       	callq  3070 <__stack_chk_fail@plt>
    4eec:	48 81 c4 e8 01 00 00 	add    $0x1e8,%rsp
    4ef3:	5b                   	pop    %rbx
    4ef4:	41 5c                	pop    %r12
    4ef6:	41 5d                	pop    %r13
    4ef8:	5d                   	pop    %rbp
    4ef9:	c3                   	retq   

0000000000004efa <func_3>:
    4efa:	f3 0f 1e fa          	endbr64 
    4efe:	55                   	push   %rbp
    4eff:	48 89 e5             	mov    %rsp,%rbp
    4f02:	48 83 ec 40          	sub    $0x40,%rsp
    4f06:	48 89 7d d8          	mov    %rdi,-0x28(%rbp)
    4f0a:	89 75 d4             	mov    %esi,-0x2c(%rbp)
    4f0d:	89 d0                	mov    %edx,%eax
    4f0f:	89 ca                	mov    %ecx,%edx
    4f11:	44 89 c1             	mov    %r8d,%ecx
    4f14:	66 89 45 d0          	mov    %ax,-0x30(%rbp)
    4f18:	89 d0                	mov    %edx,%eax
    4f1a:	88 45 cc             	mov    %al,-0x34(%rbp)
    4f1d:	89 c8                	mov    %ecx,%eax
    4f1f:	88 45 c8             	mov    %al,-0x38(%rbp)
    4f22:	64 48 8b 04 25 28 00 	mov    %fs:0x28,%rax
    4f29:	00 00 
    4f2b:	48 89 45 f8          	mov    %rax,-0x8(%rbp)
    4f2f:	31 c0                	xor    %eax,%eax
    4f31:	c7 45 ec 01 00 00 00 	movl   $0x1,-0x14(%rbp)
    4f38:	c7 45 e8 00 00 00 00 	movl   $0x0,-0x18(%rbp)
    4f3f:	eb 10                	jmp    4f51 <func_3+0x57>
    4f41:	8b 45 e8             	mov    -0x18(%rbp),%eax
    4f44:	48 98                	cltq   
    4f46:	66 c7 44 45 f2 ff ff 	movw   $0xffff,-0xe(%rbp,%rax,2)
    4f4d:	83 45 e8 01          	addl   $0x1,-0x18(%rbp)
    4f51:	83 7d e8 02          	cmpl   $0x2,-0x18(%rbp)
    4f55:	7e ea                	jle    4f41 <func_3+0x47>
    4f57:	c6 45 c8 0b          	movb   $0xb,-0x38(%rbp)
    4f5b:	eb 24                	jmp    4f81 <func_3+0x87>
    4f5d:	c6 05 80 e1 00 00 19 	movb   $0x19,0xe180(%rip)        # 130e4 <g_186>
    4f64:	90                   	nop
    4f65:	0f b6 05 78 e1 00 00 	movzbl 0xe178(%rip),%eax        # 130e4 <g_186>
    4f6c:	3c f4                	cmp    $0xf4,%al
    4f6e:	7c 07                	jl     4f77 <func_3+0x7d>
    4f70:	66 0f be 45 c8       	movsbw -0x38(%rbp),%ax
    4f75:	eb 18                	jmp    4f8f <func_3+0x95>
    4f77:	0f b6 45 c8          	movzbl -0x38(%rbp),%eax
    4f7b:	83 e8 01             	sub    $0x1,%eax
    4f7e:	88 45 c8             	mov    %al,-0x38(%rbp)
    4f81:	80 7d c8 fd          	cmpb   $0xfd,-0x38(%rbp)
    4f85:	7d d6                	jge    4f5d <func_3+0x63>
    4f87:	83 45 ec 01          	addl   $0x1,-0x14(%rbp)
    4f8b:	0f b7 45 f2          	movzwl -0xe(%rbp),%eax
    4f8f:	48 8b 75 f8          	mov    -0x8(%rbp),%rsi
    4f93:	64 48 33 34 25 28 00 	xor    %fs:0x28,%rsi
    4f9a:	00 00 
    4f9c:	74 05                	je     4fa3 <func_3+0xa9>
    4f9e:	e8 cd e0 ff ff       	callq  3070 <__stack_chk_fail@plt>
    4fa3:	c9                   	leaveq 
    4fa4:	c3                   	retq   

0000000000004fa5 <func_15>:
    4fa5:	f3 0f 1e fa          	endbr64 
    4fa9:	55                   	push   %rbp
    4faa:	48 89 e5             	mov    %rsp,%rbp
    4fad:	48 81 ec c0 0b 00 00 	sub    $0xbc0,%rsp
    4fb4:	48 89 bd 58 f4 ff ff 	mov    %rdi,-0xba8(%rbp)
    4fbb:	89 f0                	mov    %esi,%eax
    4fbd:	89 95 50 f4 ff ff    	mov    %edx,-0xbb0(%rbp)
    4fc3:	89 ca                	mov    %ecx,%edx
    4fc5:	66 89 85 54 f4 ff ff 	mov    %ax,-0xbac(%rbp)
    4fcc:	89 d0                	mov    %edx,%eax
    4fce:	88 85 4c f4 ff ff    	mov    %al,-0xbb4(%rbp)
    4fd4:	64 48 8b 04 25 28 00 	mov    %fs:0x28,%rax
    4fdb:	00 00 
    4fdd:	48 89 45 f8          	mov    %rax,-0x8(%rbp)
    4fe1:	31 c0                	xor    %eax,%eax
    4fe3:	66 c7 85 62 f4 ff ff 	movw   $0x6c89,-0xb9e(%rbp)
    4fea:	89 6c 
    4fec:	48 8d 05 e5 f0 00 00 	lea    0xf0e5(%rip),%rax        # 140d8 <g_127+0x18>
    4ff3:	48 89 85 b0 f4 ff ff 	mov    %rax,-0xb50(%rbp)
    4ffa:	48 8d 85 b0 f4 ff ff 	lea    -0xb50(%rbp),%rax
    5001:	48 89 85 b8 f4 ff ff 	mov    %rax,-0xb48(%rbp)
    5008:	c7 85 64 f4 ff ff 00 	movl   $0x0,-0xb9c(%rbp)
    500f:	00 00 00 
    5012:	eb 4a                	jmp    505e <func_15+0xb9>
    5014:	c7 85 68 f4 ff ff 00 	movl   $0x0,-0xb98(%rbp)
    501b:	00 00 00 
    501e:	eb 2e                	jmp    504e <func_15+0xa9>
    5020:	8b 85 68 f4 ff ff    	mov    -0xb98(%rbp),%eax
    5026:	48 98                	cltq   
    5028:	8b 95 64 f4 ff ff    	mov    -0xb9c(%rbp),%edx
    502e:	48 63 d2             	movslq %edx,%rdx
    5031:	48 c1 e2 02          	shl    $0x2,%rdx
    5035:	48 01 c2             	add    %rax,%rdx
    5038:	48 8d 85 b8 f4 ff ff 	lea    -0xb48(%rbp),%rax
    503f:	48 89 84 d5 80 f5 ff 	mov    %rax,-0xa80(%rbp,%rdx,8)
    5046:	ff 
    5047:	83 85 68 f4 ff ff 01 	addl   $0x1,-0xb98(%rbp)
    504e:	83 bd 68 f4 ff ff 03 	cmpl   $0x3,-0xb98(%rbp)
    5055:	7e c9                	jle    5020 <func_15+0x7b>
    5057:	83 85 64 f4 ff ff 01 	addl   $0x1,-0xb9c(%rbp)
    505e:	83 bd 64 f4 ff ff 03 	cmpl   $0x3,-0xb9c(%rbp)
    5065:	7e ad                	jle    5014 <func_15+0x6f>
    5067:	c7 85 64 f4 ff ff 00 	movl   $0x0,-0xb9c(%rbp)
    506e:	00 00 00 
    5071:	eb 1a                	jmp    508d <func_15+0xe8>
    5073:	8b 85 64 f4 ff ff    	mov    -0xb9c(%rbp),%eax
    5079:	48 98                	cltq   
    507b:	c7 84 85 f0 f4 ff ff 	movl   $0xfffffff8,-0xb10(%rbp,%rax,4)
    5082:	f8 ff ff ff 
    5086:	83 85 64 f4 ff ff 01 	addl   $0x1,-0xb9c(%rbp)
    508d:	83 bd 64 f4 ff ff 05 	cmpl   $0x5,-0xb9c(%rbp)
    5094:	7e dd                	jle    5073 <func_15+0xce>
    5096:	48 8b 05 0b f7 00 00 	mov    0xf70b(%rip),%rax        # 147a8 <g_30>
    509d:	48 85 c0             	test   %rax,%rax
    50a0:	0f 94 c0             	sete   %al
    50a3:	0f b6 d0             	movzbl %al,%edx
    50a6:	0f bf 85 62 f4 ff ff 	movswl -0xb9e(%rbp),%eax
    50ad:	89 c6                	mov    %eax,%esi
    50af:	48 8d 3d 74 df 00 00 	lea    0xdf74(%rip),%rdi        # 1302a <g_21>
    50b6:	e8 b6 10 00 00       	callq  6171 <func_25>
    50bb:	f7 d0                	not    %eax
    50bd:	0f be c0             	movsbl %al,%eax
    50c0:	be 05 00 00 00       	mov    $0x5,%esi
    50c5:	89 c7                	mov    %eax,%edi
    50c7:	e8 22 e2 ff ff       	callq  32ee <safe_lshift_func_int8_t_s_u>
    50cc:	84 c0                	test   %al,%al
    50ce:	0f 84 83 0c 00 00    	je     5d57 <func_15+0xdb2>
    50d4:	48 8d 85 40 f5 ff ff 	lea    -0xac0(%rbp),%rax
    50db:	48 83 c0 28          	add    $0x28,%rax
    50df:	48 89 85 c0 f4 ff ff 	mov    %rax,-0xb40(%rbp)
    50e6:	48 8d 85 c0 f4 ff ff 	lea    -0xb40(%rbp),%rax
    50ed:	48 89 85 60 f9 ff ff 	mov    %rax,-0x6a0(%rbp)
    50f4:	48 8d 85 c0 f4 ff ff 	lea    -0xb40(%rbp),%rax
    50fb:	48 89 85 68 f9 ff ff 	mov    %rax,-0x698(%rbp)
    5102:	48 8d 85 c0 f4 ff ff 	lea    -0xb40(%rbp),%rax
    5109:	48 89 85 70 f9 ff ff 	mov    %rax,-0x690(%rbp)
    5110:	48 8d 85 c0 f4 ff ff 	lea    -0xb40(%rbp),%rax
    5117:	48 89 85 78 f9 ff ff 	mov    %rax,-0x688(%rbp)
    511e:	48 8d 85 c0 f4 ff ff 	lea    -0xb40(%rbp),%rax
    5125:	48 89 85 80 f9 ff ff 	mov    %rax,-0x680(%rbp)
    512c:	48 8d 85 c0 f4 ff ff 	lea    -0xb40(%rbp),%rax
    5133:	48 89 85 88 f9 ff ff 	mov    %rax,-0x678(%rbp)
    513a:	48 8d 85 c0 f4 ff ff 	lea    -0xb40(%rbp),%rax
    5141:	48 89 85 90 f9 ff ff 	mov    %rax,-0x670(%rbp)
    5148:	48 c7 85 98 f9 ff ff 	movq   $0x0,-0x668(%rbp)
    514f:	00 00 00 00 
    5153:	48 8d 85 c0 f4 ff ff 	lea    -0xb40(%rbp),%rax
    515a:	48 89 85 a0 f9 ff ff 	mov    %rax,-0x660(%rbp)
    5161:	48 c7 85 a8 f9 ff ff 	movq   $0x0,-0x658(%rbp)
    5168:	00 00 00 00 
    516c:	48 c7 85 b0 f9 ff ff 	movq   $0x0,-0x650(%rbp)
    5173:	00 00 00 00 
    5177:	48 8d 85 c0 f4 ff ff 	lea    -0xb40(%rbp),%rax
    517e:	48 89 85 b8 f9 ff ff 	mov    %rax,-0x648(%rbp)
    5185:	48 8d 85 c0 f4 ff ff 	lea    -0xb40(%rbp),%rax
    518c:	48 89 85 c0 f9 ff ff 	mov    %rax,-0x640(%rbp)
    5193:	48 8d 85 c0 f4 ff ff 	lea    -0xb40(%rbp),%rax
    519a:	48 89 85 c8 f9 ff ff 	mov    %rax,-0x638(%rbp)
    51a1:	48 8d 85 c0 f4 ff ff 	lea    -0xb40(%rbp),%rax
    51a8:	48 89 85 d0 f9 ff ff 	mov    %rax,-0x630(%rbp)
    51af:	48 8d 85 c0 f4 ff ff 	lea    -0xb40(%rbp),%rax
    51b6:	48 89 85 d8 f9 ff ff 	mov    %rax,-0x628(%rbp)
    51bd:	48 c7 85 e0 f9 ff ff 	movq   $0x0,-0x620(%rbp)
    51c4:	00 00 00 00 
    51c8:	48 c7 85 e8 f9 ff ff 	movq   $0x0,-0x618(%rbp)
    51cf:	00 00 00 00 
    51d3:	48 c7 85 f0 f9 ff ff 	movq   $0x0,-0x610(%rbp)
    51da:	00 00 00 00 
    51de:	48 c7 85 f8 f9 ff ff 	movq   $0x0,-0x608(%rbp)
    51e5:	00 00 00 00 
    51e9:	48 8d 85 c0 f4 ff ff 	lea    -0xb40(%rbp),%rax
    51f0:	48 89 85 00 fa ff ff 	mov    %rax,-0x600(%rbp)
    51f7:	48 8d 85 c0 f4 ff ff 	lea    -0xb40(%rbp),%rax
    51fe:	48 89 85 08 fa ff ff 	mov    %rax,-0x5f8(%rbp)
    5205:	48 8d 85 c0 f4 ff ff 	lea    -0xb40(%rbp),%rax
    520c:	48 89 85 10 fa ff ff 	mov    %rax,-0x5f0(%rbp)
    5213:	48 8d 85 c0 f4 ff ff 	lea    -0xb40(%rbp),%rax
    521a:	48 89 85 18 fa ff ff 	mov    %rax,-0x5e8(%rbp)
    5221:	48 8d 85 c0 f4 ff ff 	lea    -0xb40(%rbp),%rax
    5228:	48 89 85 20 fa ff ff 	mov    %rax,-0x5e0(%rbp)
    522f:	48 8d 85 c0 f4 ff ff 	lea    -0xb40(%rbp),%rax
    5236:	48 89 85 28 fa ff ff 	mov    %rax,-0x5d8(%rbp)
    523d:	48 8d 85 c0 f4 ff ff 	lea    -0xb40(%rbp),%rax
    5244:	48 89 85 30 fa ff ff 	mov    %rax,-0x5d0(%rbp)
    524b:	48 c7 85 38 fa ff ff 	movq   $0x0,-0x5c8(%rbp)
    5252:	00 00 00 00 
    5256:	48 8d 85 c0 f4 ff ff 	lea    -0xb40(%rbp),%rax
    525d:	48 89 85 40 fa ff ff 	mov    %rax,-0x5c0(%rbp)
    5264:	48 c7 85 48 fa ff ff 	movq   $0x0,-0x5b8(%rbp)
    526b:	00 00 00 00 
    526f:	48 c7 85 50 fa ff ff 	movq   $0x0,-0x5b0(%rbp)
    5276:	00 00 00 00 
    527a:	48 8d 85 c0 f4 ff ff 	lea    -0xb40(%rbp),%rax
    5281:	48 89 85 58 fa ff ff 	mov    %rax,-0x5a8(%rbp)
    5288:	48 8d 85 c0 f4 ff ff 	lea    -0xb40(%rbp),%rax
    528f:	48 89 85 60 fa ff ff 	mov    %rax,-0x5a0(%rbp)
    5296:	48 8d 85 c0 f4 ff ff 	lea    -0xb40(%rbp),%rax
    529d:	48 89 85 68 fa ff ff 	mov    %rax,-0x598(%rbp)
    52a4:	48 8d 85 c0 f4 ff ff 	lea    -0xb40(%rbp),%rax
    52ab:	48 89 85 70 fa ff ff 	mov    %rax,-0x590(%rbp)
    52b2:	48 8d 85 c0 f4 ff ff 	lea    -0xb40(%rbp),%rax
    52b9:	48 89 85 78 fa ff ff 	mov    %rax,-0x588(%rbp)
    52c0:	48 c7 85 80 fa ff ff 	movq   $0x0,-0x580(%rbp)
    52c7:	00 00 00 00 
    52cb:	48 c7 85 88 fa ff ff 	movq   $0x0,-0x578(%rbp)
    52d2:	00 00 00 00 
    52d6:	48 c7 85 90 fa ff ff 	movq   $0x0,-0x570(%rbp)
    52dd:	00 00 00 00 
    52e1:	48 c7 85 98 fa ff ff 	movq   $0x0,-0x568(%rbp)
    52e8:	00 00 00 00 
    52ec:	48 8d 85 c0 f4 ff ff 	lea    -0xb40(%rbp),%rax
    52f3:	48 89 85 a0 fa ff ff 	mov    %rax,-0x560(%rbp)
    52fa:	48 8d 85 c0 f4 ff ff 	lea    -0xb40(%rbp),%rax
    5301:	48 89 85 a8 fa ff ff 	mov    %rax,-0x558(%rbp)
    5308:	48 8d 85 c0 f4 ff ff 	lea    -0xb40(%rbp),%rax
    530f:	48 89 85 b0 fa ff ff 	mov    %rax,-0x550(%rbp)
    5316:	48 8d 85 c0 f4 ff ff 	lea    -0xb40(%rbp),%rax
    531d:	48 89 85 b8 fa ff ff 	mov    %rax,-0x548(%rbp)
    5324:	48 8d 85 c0 f4 ff ff 	lea    -0xb40(%rbp),%rax
    532b:	48 89 85 c0 fa ff ff 	mov    %rax,-0x540(%rbp)
    5332:	48 8d 85 c0 f4 ff ff 	lea    -0xb40(%rbp),%rax
    5339:	48 89 85 c8 fa ff ff 	mov    %rax,-0x538(%rbp)
    5340:	48 8d 85 c0 f4 ff ff 	lea    -0xb40(%rbp),%rax
    5347:	48 89 85 d0 fa ff ff 	mov    %rax,-0x530(%rbp)
    534e:	48 c7 85 d8 fa ff ff 	movq   $0x0,-0x528(%rbp)
    5355:	00 00 00 00 
    5359:	48 8d 85 c0 f4 ff ff 	lea    -0xb40(%rbp),%rax
    5360:	48 89 85 e0 fa ff ff 	mov    %rax,-0x520(%rbp)
    5367:	48 c7 85 e8 fa ff ff 	movq   $0x0,-0x518(%rbp)
    536e:	00 00 00 00 
    5372:	48 c7 85 f0 fa ff ff 	movq   $0x0,-0x510(%rbp)
    5379:	00 00 00 00 
    537d:	48 8d 85 c0 f4 ff ff 	lea    -0xb40(%rbp),%rax
    5384:	48 89 85 f8 fa ff ff 	mov    %rax,-0x508(%rbp)
    538b:	48 8d 85 c0 f4 ff ff 	lea    -0xb40(%rbp),%rax
    5392:	48 89 85 00 fb ff ff 	mov    %rax,-0x500(%rbp)
    5399:	48 8d 85 c0 f4 ff ff 	lea    -0xb40(%rbp),%rax
    53a0:	48 89 85 08 fb ff ff 	mov    %rax,-0x4f8(%rbp)
    53a7:	48 8d 85 c0 f4 ff ff 	lea    -0xb40(%rbp),%rax
    53ae:	48 89 85 10 fb ff ff 	mov    %rax,-0x4f0(%rbp)
    53b5:	48 8d 85 c0 f4 ff ff 	lea    -0xb40(%rbp),%rax
    53bc:	48 89 85 18 fb ff ff 	mov    %rax,-0x4e8(%rbp)
    53c3:	48 c7 85 20 fb ff ff 	movq   $0x0,-0x4e0(%rbp)
    53ca:	00 00 00 00 
    53ce:	48 c7 85 28 fb ff ff 	movq   $0x0,-0x4d8(%rbp)
    53d5:	00 00 00 00 
    53d9:	48 c7 85 30 fb ff ff 	movq   $0x0,-0x4d0(%rbp)
    53e0:	00 00 00 00 
    53e4:	48 c7 85 38 fb ff ff 	movq   $0x0,-0x4c8(%rbp)
    53eb:	00 00 00 00 
    53ef:	48 8d 85 c0 f4 ff ff 	lea    -0xb40(%rbp),%rax
    53f6:	48 89 85 40 fb ff ff 	mov    %rax,-0x4c0(%rbp)
    53fd:	48 8d 85 c0 f4 ff ff 	lea    -0xb40(%rbp),%rax
    5404:	48 89 85 48 fb ff ff 	mov    %rax,-0x4b8(%rbp)
    540b:	48 8d 85 c0 f4 ff ff 	lea    -0xb40(%rbp),%rax
    5412:	48 89 85 50 fb ff ff 	mov    %rax,-0x4b0(%rbp)
    5419:	48 8d 85 c0 f4 ff ff 	lea    -0xb40(%rbp),%rax
    5420:	48 89 85 58 fb ff ff 	mov    %rax,-0x4a8(%rbp)
    5427:	48 c7 85 60 fb ff ff 	movq   $0x0,-0x4a0(%rbp)
    542e:	00 00 00 00 
    5432:	48 8d 85 c0 f4 ff ff 	lea    -0xb40(%rbp),%rax
    5439:	48 89 85 68 fb ff ff 	mov    %rax,-0x498(%rbp)
    5440:	48 8d 85 c0 f4 ff ff 	lea    -0xb40(%rbp),%rax
    5447:	48 89 85 70 fb ff ff 	mov    %rax,-0x490(%rbp)
    544e:	48 8d 85 c0 f4 ff ff 	lea    -0xb40(%rbp),%rax
    5455:	48 89 85 78 fb ff ff 	mov    %rax,-0x488(%rbp)
    545c:	48 c7 85 80 fb ff ff 	movq   $0x0,-0x480(%rbp)
    5463:	00 00 00 00 
    5467:	48 c7 85 88 fb ff ff 	movq   $0x0,-0x478(%rbp)
    546e:	00 00 00 00 
    5472:	48 8d 85 c0 f4 ff ff 	lea    -0xb40(%rbp),%rax
    5479:	48 89 85 90 fb ff ff 	mov    %rax,-0x470(%rbp)
    5480:	48 8d 85 c0 f4 ff ff 	lea    -0xb40(%rbp),%rax
    5487:	48 89 85 98 fb ff ff 	mov    %rax,-0x468(%rbp)
    548e:	48 8d 85 c0 f4 ff ff 	lea    -0xb40(%rbp),%rax
    5495:	48 89 85 a0 fb ff ff 	mov    %rax,-0x460(%rbp)
    549c:	48 8d 85 c0 f4 ff ff 	lea    -0xb40(%rbp),%rax
    54a3:	48 89 85 a8 fb ff ff 	mov    %rax,-0x458(%rbp)
    54aa:	48 8d 85 c0 f4 ff ff 	lea    -0xb40(%rbp),%rax
    54b1:	48 89 85 b0 fb ff ff 	mov    %rax,-0x450(%rbp)
    54b8:	48 8d 85 c0 f4 ff ff 	lea    -0xb40(%rbp),%rax
    54bf:	48 89 85 b8 fb ff ff 	mov    %rax,-0x448(%rbp)
    54c6:	48 c7 85 c0 fb ff ff 	movq   $0x0,-0x440(%rbp)
    54cd:	00 00 00 00 
    54d1:	48 8d 85 c0 f4 ff ff 	lea    -0xb40(%rbp),%rax
    54d8:	48 89 85 c8 fb ff ff 	mov    %rax,-0x438(%rbp)
    54df:	48 8d 85 c0 f4 ff ff 	lea    -0xb40(%rbp),%rax
    54e6:	48 89 85 d0 fb ff ff 	mov    %rax,-0x430(%rbp)
    54ed:	48 c7 85 d8 fb ff ff 	movq   $0x0,-0x428(%rbp)
    54f4:	00 00 00 00 
    54f8:	48 c7 85 e0 fb ff ff 	movq   $0x0,-0x420(%rbp)
    54ff:	00 00 00 00 
    5503:	48 8d 85 c0 f4 ff ff 	lea    -0xb40(%rbp),%rax
    550a:	48 89 85 e8 fb ff ff 	mov    %rax,-0x418(%rbp)
    5511:	48 8d 85 c0 f4 ff ff 	lea    -0xb40(%rbp),%rax
    5518:	48 89 85 f0 fb ff ff 	mov    %rax,-0x410(%rbp)
    551f:	48 8d 85 c0 f4 ff ff 	lea    -0xb40(%rbp),%rax
    5526:	48 89 85 f8 fb ff ff 	mov    %rax,-0x408(%rbp)
    552d:	48 c7 85 00 fc ff ff 	movq   $0x0,-0x400(%rbp)
    5534:	00 00 00 00 
    5538:	48 8d 85 c0 f4 ff ff 	lea    -0xb40(%rbp),%rax
    553f:	48 89 85 08 fc ff ff 	mov    %rax,-0x3f8(%rbp)
    5546:	48 8d 85 c0 f4 ff ff 	lea    -0xb40(%rbp),%rax
    554d:	48 89 85 10 fc ff ff 	mov    %rax,-0x3f0(%rbp)
    5554:	48 8d 85 c0 f4 ff ff 	lea    -0xb40(%rbp),%rax
    555b:	48 89 85 18 fc ff ff 	mov    %rax,-0x3e8(%rbp)
    5562:	48 c7 85 20 fc ff ff 	movq   $0x0,-0x3e0(%rbp)
    5569:	00 00 00 00 
    556d:	48 c7 85 28 fc ff ff 	movq   $0x0,-0x3d8(%rbp)
    5574:	00 00 00 00 
    5578:	48 8d 85 c0 f4 ff ff 	lea    -0xb40(%rbp),%rax
    557f:	48 89 85 30 fc ff ff 	mov    %rax,-0x3d0(%rbp)
    5586:	48 8d 85 c0 f4 ff ff 	lea    -0xb40(%rbp),%rax
    558d:	48 89 85 38 fc ff ff 	mov    %rax,-0x3c8(%rbp)
    5594:	48 8d 85 c0 f4 ff ff 	lea    -0xb40(%rbp),%rax
    559b:	48 89 85 40 fc ff ff 	mov    %rax,-0x3c0(%rbp)
    55a2:	48 8d 85 c0 f4 ff ff 	lea    -0xb40(%rbp),%rax
    55a9:	48 89 85 48 fc ff ff 	mov    %rax,-0x3b8(%rbp)
    55b0:	48 8d 85 c0 f4 ff ff 	lea    -0xb40(%rbp),%rax
    55b7:	48 89 85 50 fc ff ff 	mov    %rax,-0x3b0(%rbp)
    55be:	48 8d 85 c0 f4 ff ff 	lea    -0xb40(%rbp),%rax
    55c5:	48 89 85 58 fc ff ff 	mov    %rax,-0x3a8(%rbp)
    55cc:	48 c7 85 60 fc ff ff 	movq   $0x0,-0x3a0(%rbp)
    55d3:	00 00 00 00 
    55d7:	48 8d 85 c0 f4 ff ff 	lea    -0xb40(%rbp),%rax
    55de:	48 89 85 68 fc ff ff 	mov    %rax,-0x398(%rbp)
    55e5:	48 8d 85 c0 f4 ff ff 	lea    -0xb40(%rbp),%rax
    55ec:	48 89 85 70 fc ff ff 	mov    %rax,-0x390(%rbp)
    55f3:	48 c7 85 78 fc ff ff 	movq   $0x0,-0x388(%rbp)
    55fa:	00 00 00 00 
    55fe:	48 c7 85 80 fc ff ff 	movq   $0x0,-0x380(%rbp)
    5605:	00 00 00 00 
    5609:	48 8d 85 c0 f4 ff ff 	lea    -0xb40(%rbp),%rax
    5610:	48 89 85 88 fc ff ff 	mov    %rax,-0x378(%rbp)
    5617:	48 8d 85 c0 f4 ff ff 	lea    -0xb40(%rbp),%rax
    561e:	48 89 85 90 fc ff ff 	mov    %rax,-0x370(%rbp)
    5625:	48 8d 85 c0 f4 ff ff 	lea    -0xb40(%rbp),%rax
    562c:	48 89 85 98 fc ff ff 	mov    %rax,-0x368(%rbp)
    5633:	48 c7 85 a0 fc ff ff 	movq   $0x0,-0x360(%rbp)
    563a:	00 00 00 00 
    563e:	48 8d 85 c0 f4 ff ff 	lea    -0xb40(%rbp),%rax
    5645:	48 89 85 a8 fc ff ff 	mov    %rax,-0x358(%rbp)
    564c:	48 8d 85 c0 f4 ff ff 	lea    -0xb40(%rbp),%rax
    5653:	48 89 85 b0 fc ff ff 	mov    %rax,-0x350(%rbp)
    565a:	48 8d 85 c0 f4 ff ff 	lea    -0xb40(%rbp),%rax
    5661:	48 89 85 b8 fc ff ff 	mov    %rax,-0x348(%rbp)
    5668:	48 c7 85 c0 fc ff ff 	movq   $0x0,-0x340(%rbp)
    566f:	00 00 00 00 
    5673:	48 c7 85 c8 fc ff ff 	movq   $0x0,-0x338(%rbp)
    567a:	00 00 00 00 
    567e:	48 8d 85 c0 f4 ff ff 	lea    -0xb40(%rbp),%rax
    5685:	48 89 85 d0 fc ff ff 	mov    %rax,-0x330(%rbp)
    568c:	48 8d 85 c0 f4 ff ff 	lea    -0xb40(%rbp),%rax
    5693:	48 89 85 d8 fc ff ff 	mov    %rax,-0x328(%rbp)
    569a:	48 8d 85 c0 f4 ff ff 	lea    -0xb40(%rbp),%rax
    56a1:	48 89 85 e0 fc ff ff 	mov    %rax,-0x320(%rbp)
    56a8:	48 8d 85 c0 f4 ff ff 	lea    -0xb40(%rbp),%rax
    56af:	48 89 85 e8 fc ff ff 	mov    %rax,-0x318(%rbp)
    56b6:	48 8d 85 c0 f4 ff ff 	lea    -0xb40(%rbp),%rax
    56bd:	48 89 85 f0 fc ff ff 	mov    %rax,-0x310(%rbp)
    56c4:	48 8d 85 c0 f4 ff ff 	lea    -0xb40(%rbp),%rax
    56cb:	48 89 85 f8 fc ff ff 	mov    %rax,-0x308(%rbp)
    56d2:	48 c7 85 00 fd ff ff 	movq   $0x0,-0x300(%rbp)
    56d9:	00 00 00 00 
    56dd:	48 8d 85 c0 f4 ff ff 	lea    -0xb40(%rbp),%rax
    56e4:	48 89 85 08 fd ff ff 	mov    %rax,-0x2f8(%rbp)
    56eb:	48 8d 85 c0 f4 ff ff 	lea    -0xb40(%rbp),%rax
    56f2:	48 89 85 10 fd ff ff 	mov    %rax,-0x2f0(%rbp)
    56f9:	48 c7 85 18 fd ff ff 	movq   $0x0,-0x2e8(%rbp)
    5700:	00 00 00 00 
    5704:	48 c7 85 20 fd ff ff 	movq   $0x0,-0x2e0(%rbp)
    570b:	00 00 00 00 
    570f:	48 8d 85 c0 f4 ff ff 	lea    -0xb40(%rbp),%rax
    5716:	48 89 85 28 fd ff ff 	mov    %rax,-0x2d8(%rbp)
    571d:	48 8d 85 c0 f4 ff ff 	lea    -0xb40(%rbp),%rax
    5724:	48 89 85 30 fd ff ff 	mov    %rax,-0x2d0(%rbp)
    572b:	48 8d 85 c0 f4 ff ff 	lea    -0xb40(%rbp),%rax
    5732:	48 89 85 38 fd ff ff 	mov    %rax,-0x2c8(%rbp)
    5739:	48 c7 85 40 fd ff ff 	movq   $0x0,-0x2c0(%rbp)
    5740:	00 00 00 00 
    5744:	48 8d 85 c0 f4 ff ff 	lea    -0xb40(%rbp),%rax
    574b:	48 89 85 48 fd ff ff 	mov    %rax,-0x2b8(%rbp)
    5752:	48 8d 85 c0 f4 ff ff 	lea    -0xb40(%rbp),%rax
    5759:	48 89 85 50 fd ff ff 	mov    %rax,-0x2b0(%rbp)
    5760:	48 8d 85 c0 f4 ff ff 	lea    -0xb40(%rbp),%rax
    5767:	48 89 85 58 fd ff ff 	mov    %rax,-0x2a8(%rbp)
    576e:	48 c7 85 60 fd ff ff 	movq   $0x0,-0x2a0(%rbp)
    5775:	00 00 00 00 
    5779:	48 c7 85 68 fd ff ff 	movq   $0x0,-0x298(%rbp)
    5780:	00 00 00 00 
    5784:	48 8d 85 c0 f4 ff ff 	lea    -0xb40(%rbp),%rax
    578b:	48 89 85 70 fd ff ff 	mov    %rax,-0x290(%rbp)
    5792:	48 8d 85 c0 f4 ff ff 	lea    -0xb40(%rbp),%rax
    5799:	48 89 85 78 fd ff ff 	mov    %rax,-0x288(%rbp)
    57a0:	48 8d 85 c0 f4 ff ff 	lea    -0xb40(%rbp),%rax
    57a7:	48 89 85 80 fd ff ff 	mov    %rax,-0x280(%rbp)
    57ae:	48 8d 85 c0 f4 ff ff 	lea    -0xb40(%rbp),%rax
    57b5:	48 89 85 88 fd ff ff 	mov    %rax,-0x278(%rbp)
    57bc:	48 8d 85 c0 f4 ff ff 	lea    -0xb40(%rbp),%rax
    57c3:	48 89 85 90 fd ff ff 	mov    %rax,-0x270(%rbp)
    57ca:	48 8d 85 c0 f4 ff ff 	lea    -0xb40(%rbp),%rax
    57d1:	48 89 85 98 fd ff ff 	mov    %rax,-0x268(%rbp)
    57d8:	48 c7 85 a0 fd ff ff 	movq   $0x0,-0x260(%rbp)
    57df:	00 00 00 00 
    57e3:	48 8d 85 c0 f4 ff ff 	lea    -0xb40(%rbp),%rax
    57ea:	48 89 85 a8 fd ff ff 	mov    %rax,-0x258(%rbp)
    57f1:	48 8d 85 c0 f4 ff ff 	lea    -0xb40(%rbp),%rax
    57f8:	48 89 85 b0 fd ff ff 	mov    %rax,-0x250(%rbp)
    57ff:	48 c7 85 b8 fd ff ff 	movq   $0x0,-0x248(%rbp)
    5806:	00 00 00 00 
    580a:	48 c7 85 c0 fd ff ff 	movq   $0x0,-0x240(%rbp)
    5811:	00 00 00 00 
    5815:	48 8d 85 c0 f4 ff ff 	lea    -0xb40(%rbp),%rax
    581c:	48 89 85 c8 fd ff ff 	mov    %rax,-0x238(%rbp)
    5823:	48 8d 85 c0 f4 ff ff 	lea    -0xb40(%rbp),%rax
    582a:	48 89 85 d0 fd ff ff 	mov    %rax,-0x230(%rbp)
    5831:	48 8d 85 c0 f4 ff ff 	lea    -0xb40(%rbp),%rax
    5838:	48 89 85 d8 fd ff ff 	mov    %rax,-0x228(%rbp)
    583f:	48 c7 85 e0 fd ff ff 	movq   $0x0,-0x220(%rbp)
    5846:	00 00 00 00 
    584a:	48 8d 85 c0 f4 ff ff 	lea    -0xb40(%rbp),%rax
    5851:	48 89 85 e8 fd ff ff 	mov    %rax,-0x218(%rbp)
    5858:	48 8d 85 c0 f4 ff ff 	lea    -0xb40(%rbp),%rax
    585f:	48 89 85 f0 fd ff ff 	mov    %rax,-0x210(%rbp)
    5866:	48 8d 85 c0 f4 ff ff 	lea    -0xb40(%rbp),%rax
    586d:	48 89 85 f8 fd ff ff 	mov    %rax,-0x208(%rbp)
    5874:	48 c7 85 00 fe ff ff 	movq   $0x0,-0x200(%rbp)
    587b:	00 00 00 00 
    587f:	48 c7 85 08 fe ff ff 	movq   $0x0,-0x1f8(%rbp)
    5886:	00 00 00 00 
    588a:	48 8d 85 c0 f4 ff ff 	lea    -0xb40(%rbp),%rax
    5891:	48 89 85 10 fe ff ff 	mov    %rax,-0x1f0(%rbp)
    5898:	48 8d 85 c0 f4 ff ff 	lea    -0xb40(%rbp),%rax
    589f:	48 89 85 18 fe ff ff 	mov    %rax,-0x1e8(%rbp)
    58a6:	48 8d 85 c0 f4 ff ff 	lea    -0xb40(%rbp),%rax
    58ad:	48 89 85 20 fe ff ff 	mov    %rax,-0x1e0(%rbp)
    58b4:	48 8d 85 c0 f4 ff ff 	lea    -0xb40(%rbp),%rax
    58bb:	48 89 85 28 fe ff ff 	mov    %rax,-0x1d8(%rbp)
    58c2:	48 8d 85 c0 f4 ff ff 	lea    -0xb40(%rbp),%rax
    58c9:	48 89 85 30 fe ff ff 	mov    %rax,-0x1d0(%rbp)
    58d0:	48 8d 85 c0 f4 ff ff 	lea    -0xb40(%rbp),%rax
    58d7:	48 89 85 38 fe ff ff 	mov    %rax,-0x1c8(%rbp)
    58de:	48 c7 85 40 fe ff ff 	movq   $0x0,-0x1c0(%rbp)
    58e5:	00 00 00 00 
    58e9:	48 8d 85 c0 f4 ff ff 	lea    -0xb40(%rbp),%rax
    58f0:	48 89 85 48 fe ff ff 	mov    %rax,-0x1b8(%rbp)
    58f7:	48 8d 85 c0 f4 ff ff 	lea    -0xb40(%rbp),%rax
    58fe:	48 89 85 50 fe ff ff 	mov    %rax,-0x1b0(%rbp)
    5905:	48 c7 85 58 fe ff ff 	movq   $0x0,-0x1a8(%rbp)
    590c:	00 00 00 00 
    5910:	48 c7 85 60 fe ff ff 	movq   $0x0,-0x1a0(%rbp)
    5917:	00 00 00 00 
    591b:	48 8d 85 c0 f4 ff ff 	lea    -0xb40(%rbp),%rax
    5922:	48 89 85 68 fe ff ff 	mov    %rax,-0x198(%rbp)
    5929:	48 8d 85 c0 f4 ff ff 	lea    -0xb40(%rbp),%rax
    5930:	48 89 85 70 fe ff ff 	mov    %rax,-0x190(%rbp)
    5937:	48 8d 85 c0 f4 ff ff 	lea    -0xb40(%rbp),%rax
    593e:	48 89 85 78 fe ff ff 	mov    %rax,-0x188(%rbp)
    5945:	48 c7 85 80 fe ff ff 	movq   $0x0,-0x180(%rbp)
    594c:	00 00 00 00 
    5950:	48 8d 85 c0 f4 ff ff 	lea    -0xb40(%rbp),%rax
    5957:	48 89 85 88 fe ff ff 	mov    %rax,-0x178(%rbp)
    595e:	48 8d 85 c0 f4 ff ff 	lea    -0xb40(%rbp),%rax
    5965:	48 89 85 90 fe ff ff 	mov    %rax,-0x170(%rbp)
    596c:	48 8d 85 c0 f4 ff ff 	lea    -0xb40(%rbp),%rax
    5973:	48 89 85 98 fe ff ff 	mov    %rax,-0x168(%rbp)
    597a:	48 c7 85 a0 fe ff ff 	movq   $0x0,-0x160(%rbp)
    5981:	00 00 00 00 
    5985:	48 c7 85 a8 fe ff ff 	movq   $0x0,-0x158(%rbp)
    598c:	00 00 00 00 
    5990:	48 8d 85 c0 f4 ff ff 	lea    -0xb40(%rbp),%rax
    5997:	48 89 85 b0 fe ff ff 	mov    %rax,-0x150(%rbp)
    599e:	48 8d 85 c0 f4 ff ff 	lea    -0xb40(%rbp),%rax
    59a5:	48 89 85 b8 fe ff ff 	mov    %rax,-0x148(%rbp)
    59ac:	48 8d 85 c0 f4 ff ff 	lea    -0xb40(%rbp),%rax
    59b3:	48 89 85 c0 fe ff ff 	mov    %rax,-0x140(%rbp)
    59ba:	48 8d 85 c0 f4 ff ff 	lea    -0xb40(%rbp),%rax
    59c1:	48 89 85 c8 fe ff ff 	mov    %rax,-0x138(%rbp)
    59c8:	48 8d 85 c0 f4 ff ff 	lea    -0xb40(%rbp),%rax
    59cf:	48 89 85 d0 fe ff ff 	mov    %rax,-0x130(%rbp)
    59d6:	48 8d 85 c0 f4 ff ff 	lea    -0xb40(%rbp),%rax
    59dd:	48 89 85 d8 fe ff ff 	mov    %rax,-0x128(%rbp)
    59e4:	48 c7 85 e0 fe ff ff 	movq   $0x0,-0x120(%rbp)
    59eb:	00 00 00 00 
    59ef:	48 8d 85 c0 f4 ff ff 	lea    -0xb40(%rbp),%rax
    59f6:	48 89 85 e8 fe ff ff 	mov    %rax,-0x118(%rbp)
    59fd:	48 8d 85 c0 f4 ff ff 	lea    -0xb40(%rbp),%rax
    5a04:	48 89 85 f0 fe ff ff 	mov    %rax,-0x110(%rbp)
    5a0b:	48 c7 85 f8 fe ff ff 	movq   $0x0,-0x108(%rbp)
    5a12:	00 00 00 00 
    5a16:	48 c7 85 00 ff ff ff 	movq   $0x0,-0x100(%rbp)
    5a1d:	00 00 00 00 
    5a21:	48 8d 85 c0 f4 ff ff 	lea    -0xb40(%rbp),%rax
    5a28:	48 89 85 08 ff ff ff 	mov    %rax,-0xf8(%rbp)
    5a2f:	48 8d 85 c0 f4 ff ff 	lea    -0xb40(%rbp),%rax
    5a36:	48 89 85 10 ff ff ff 	mov    %rax,-0xf0(%rbp)
    5a3d:	48 8d 85 c0 f4 ff ff 	lea    -0xb40(%rbp),%rax
    5a44:	48 89 85 18 ff ff ff 	mov    %rax,-0xe8(%rbp)
    5a4b:	48 c7 85 20 ff ff ff 	movq   $0x0,-0xe0(%rbp)
    5a52:	00 00 00 00 
    5a56:	48 8d 85 c0 f4 ff ff 	lea    -0xb40(%rbp),%rax
    5a5d:	48 89 85 28 ff ff ff 	mov    %rax,-0xd8(%rbp)
    5a64:	48 8d 85 c0 f4 ff ff 	lea    -0xb40(%rbp),%rax
    5a6b:	48 89 85 30 ff ff ff 	mov    %rax,-0xd0(%rbp)
    5a72:	48 8d 85 c0 f4 ff ff 	lea    -0xb40(%rbp),%rax
    5a79:	48 89 85 38 ff ff ff 	mov    %rax,-0xc8(%rbp)
    5a80:	48 c7 85 40 ff ff ff 	movq   $0x0,-0xc0(%rbp)
    5a87:	00 00 00 00 
    5a8b:	48 c7 85 48 ff ff ff 	movq   $0x0,-0xb8(%rbp)
    5a92:	00 00 00 00 
    5a96:	48 8d 85 c0 f4 ff ff 	lea    -0xb40(%rbp),%rax
    5a9d:	48 89 85 50 ff ff ff 	mov    %rax,-0xb0(%rbp)
    5aa4:	48 8d 85 c0 f4 ff ff 	lea    -0xb40(%rbp),%rax
    5aab:	48 89 85 58 ff ff ff 	mov    %rax,-0xa8(%rbp)
    5ab2:	48 8d 85 c0 f4 ff ff 	lea    -0xb40(%rbp),%rax
    5ab9:	48 89 85 60 ff ff ff 	mov    %rax,-0xa0(%rbp)
    5ac0:	48 8d 85 c0 f4 ff ff 	lea    -0xb40(%rbp),%rax
    5ac7:	48 89 85 68 ff ff ff 	mov    %rax,-0x98(%rbp)
    5ace:	48 8d 85 c0 f4 ff ff 	lea    -0xb40(%rbp),%rax
    5ad5:	48 89 85 70 ff ff ff 	mov    %rax,-0x90(%rbp)
    5adc:	48 8d 85 c0 f4 ff ff 	lea    -0xb40(%rbp),%rax
    5ae3:	48 89 85 78 ff ff ff 	mov    %rax,-0x88(%rbp)
    5aea:	48 c7 45 80 00 00 00 	movq   $0x0,-0x80(%rbp)
    5af1:	00 
    5af2:	48 8d 85 c0 f4 ff ff 	lea    -0xb40(%rbp),%rax
    5af9:	48 89 45 88          	mov    %rax,-0x78(%rbp)
    5afd:	48 8d 85 c0 f4 ff ff 	lea    -0xb40(%rbp),%rax
    5b04:	48 89 45 90          	mov    %rax,-0x70(%rbp)
    5b08:	48 c7 45 98 00 00 00 	movq   $0x0,-0x68(%rbp)
    5b0f:	00 
    5b10:	48 c7 45 a0 00 00 00 	movq   $0x0,-0x60(%rbp)
    5b17:	00 
    5b18:	48 8d 85 c0 f4 ff ff 	lea    -0xb40(%rbp),%rax
    5b1f:	48 89 45 a8          	mov    %rax,-0x58(%rbp)
    5b23:	48 8d 85 c0 f4 ff ff 	lea    -0xb40(%rbp),%rax
    5b2a:	48 89 45 b0          	mov    %rax,-0x50(%rbp)
    5b2e:	48 8d 85 c0 f4 ff ff 	lea    -0xb40(%rbp),%rax
    5b35:	48 89 45 b8          	mov    %rax,-0x48(%rbp)
    5b39:	48 c7 45 c0 00 00 00 	movq   $0x0,-0x40(%rbp)
    5b40:	00 
    5b41:	48 8d 85 c0 f4 ff ff 	lea    -0xb40(%rbp),%rax
    5b48:	48 89 45 c8          	mov    %rax,-0x38(%rbp)
    5b4c:	48 8d 85 c0 f4 ff ff 	lea    -0xb40(%rbp),%rax
    5b53:	48 89 45 d0          	mov    %rax,-0x30(%rbp)
    5b57:	48 8d 85 c0 f4 ff ff 	lea    -0xb40(%rbp),%rax
    5b5e:	48 89 45 d8          	mov    %rax,-0x28(%rbp)
    5b62:	48 c7 45 e0 00 00 00 	movq   $0x0,-0x20(%rbp)
    5b69:	00 
    5b6a:	48 c7 45 e8 00 00 00 	movq   $0x0,-0x18(%rbp)
    5b71:	00 
    5b72:	48 c7 85 d8 f4 ff ff 	movq   $0x2,-0xb28(%rbp)
    5b79:	02 00 00 00 
    5b7d:	c7 85 74 f4 ff ff 99 	movl   $0xdc061699,-0xb8c(%rbp)
    5b84:	16 06 dc 
    5b87:	c7 85 78 f4 ff ff 01 	movl   $0x1,-0xb88(%rbp)
    5b8e:	00 00 00 
    5b91:	c7 85 7c f4 ff ff b1 	movl   $0x33c25cb1,-0xb84(%rbp)
    5b98:	5c c2 33 
    5b9b:	c7 85 80 f4 ff ff 82 	movl   $0x80e13682,-0xb80(%rbp)
    5ba2:	36 e1 80 
    5ba5:	c7 85 84 f4 ff ff 00 	movl   $0x0,-0xb7c(%rbp)
    5bac:	00 00 00 
    5baf:	c7 85 88 f4 ff ff 7b 	movl   $0x2e31837b,-0xb78(%rbp)
    5bb6:	83 31 2e 
    5bb9:	c7 85 8c f4 ff ff 05 	movl   $0x5,-0xb74(%rbp)
    5bc0:	00 00 00 
    5bc3:	c6 85 61 f4 ff ff 01 	movb   $0x1,-0xb9f(%rbp)
    5bca:	c7 85 90 f4 ff ff f9 	movl   $0xfffffff9,-0xb70(%rbp)
    5bd1:	ff ff ff 
    5bd4:	c7 85 94 f4 ff ff 03 	movl   $0x3,-0xb6c(%rbp)
    5bdb:	00 00 00 
    5bde:	c7 85 98 f4 ff ff 01 	movl   $0x1,-0xb68(%rbp)
    5be5:	00 00 00 
    5be8:	c7 85 9c f4 ff ff 96 	movl   $0xaeb49696,-0xb64(%rbp)
    5bef:	96 b4 ae 
    5bf2:	c7 85 a0 f4 ff ff 09 	movl   $0x9,-0xb60(%rbp)
    5bf9:	00 00 00 
    5bfc:	c7 85 a4 f4 ff ff 7b 	movl   $0xe078887b,-0xb5c(%rbp)
    5c03:	88 78 e0 
    5c06:	c7 85 a8 f4 ff ff f6 	movl   $0xfffffff6,-0xb58(%rbp)
    5c0d:	ff ff ff 
    5c10:	c7 85 ac f4 ff ff 01 	movl   $0x1,-0xb54(%rbp)
    5c17:	00 00 00 
    5c1a:	48 8d 85 00 f6 ff ff 	lea    -0xa00(%rbp),%rax
    5c21:	48 8d 15 38 94 00 00 	lea    0x9438(%rip),%rdx        # f060 <g_1116+0x8>
    5c28:	b9 6c 00 00 00       	mov    $0x6c,%ecx
    5c2d:	48 89 c7             	mov    %rax,%rdi
    5c30:	48 89 d6             	mov    %rdx,%rsi
    5c33:	f3 48 a5             	rep movsq %ds:(%rsi),%es:(%rdi)
    5c36:	c7 85 10 f5 ff ff 00 	movl   $0x0,-0xaf0(%rbp)
    5c3d:	00 00 00 
    5c40:	c7 85 14 f5 ff ff d3 	movl   $0x7557bdd3,-0xaec(%rbp)
    5c47:	bd 57 75 
    5c4a:	c7 85 18 f5 ff ff b7 	movl   $0x4e3fc6b7,-0xae8(%rbp)
    5c51:	c6 3f 4e 
    5c54:	c7 85 1c f5 ff ff d3 	movl   $0x7557bdd3,-0xae4(%rbp)
    5c5b:	bd 57 75 
    5c5e:	c7 85 20 f5 ff ff 00 	movl   $0x0,-0xae0(%rbp)
    5c65:	00 00 00 
    5c68:	c7 85 24 f5 ff ff 00 	movl   $0x0,-0xadc(%rbp)
    5c6f:	00 00 00 
    5c72:	c7 85 28 f5 ff ff 71 	movl   $0xc692a171,-0xad8(%rbp)
    5c79:	a1 92 c6 
    5c7c:	c7 85 2c f5 ff ff d3 	movl   $0x7557bdd3,-0xad4(%rbp)
    5c83:	bd 57 75 
    5c86:	c7 85 30 f5 ff ff d3 	movl   $0x7557bdd3,-0xad0(%rbp)
    5c8d:	bd 57 75 
    5c90:	c7 85 34 f5 ff ff 71 	movl   $0xc692a171,-0xacc(%rbp)
    5c97:	a1 92 c6 
    5c9a:	c7 85 38 f5 ff ff 00 	movl   $0x0,-0xac8(%rbp)
    5ca1:	00 00 00 
    5ca4:	c7 85 3c f5 ff ff 71 	movl   $0xc692a171,-0xac4(%rbp)
    5cab:	a1 92 c6 
    5cae:	c7 85 6c f4 ff ff 00 	movl   $0x0,-0xb94(%rbp)
    5cb5:	00 00 00 
    5cb8:	eb 1e                	jmp    5cd8 <func_15+0xd33>
    5cba:	8b 85 6c f4 ff ff    	mov    -0xb94(%rbp),%eax
    5cc0:	48 98                	cltq   
    5cc2:	48 8d 15 ff e4 00 00 	lea    0xe4ff(%rip),%rdx        # 141c8 <g_952>
    5cc9:	48 89 94 c5 e0 f4 ff 	mov    %rdx,-0xb20(%rbp,%rax,8)
    5cd0:	ff 
    5cd1:	83 85 6c f4 ff ff 01 	addl   $0x1,-0xb94(%rbp)
    5cd8:	83 bd 6c f4 ff ff 01 	cmpl   $0x1,-0xb94(%rbp)
    5cdf:	7e d9                	jle    5cba <func_15+0xd15>
    5ce1:	c7 85 6c f4 ff ff 00 	movl   $0x0,-0xb94(%rbp)
    5ce8:	00 00 00 
    5ceb:	eb 22                	jmp    5d0f <func_15+0xd6a>
    5ced:	8b 85 6c f4 ff ff    	mov    -0xb94(%rbp),%eax
    5cf3:	48 98                	cltq   
    5cf5:	48 8d 95 e0 f4 ff ff 	lea    -0xb20(%rbp),%rdx
    5cfc:	48 83 c2 08          	add    $0x8,%rdx
    5d00:	48 89 94 c5 40 f5 ff 	mov    %rdx,-0xac0(%rbp,%rax,8)
    5d07:	ff 
    5d08:	83 85 6c f4 ff ff 01 	addl   $0x1,-0xb94(%rbp)
    5d0f:	83 bd 6c f4 ff ff 07 	cmpl   $0x7,-0xb94(%rbp)
    5d16:	7e d5                	jle    5ced <func_15+0xd48>
    5d18:	48 8b 05 91 e4 00 00 	mov    0xe491(%rip),%rax        # 141b0 <g_801>
    5d1f:	8b 08                	mov    (%rax),%ecx
    5d21:	48 8b 95 d8 f5 ff ff 	mov    -0xa28(%rbp),%rdx
    5d28:	48 8b 85 b8 fd ff ff 	mov    -0x248(%rbp),%rax
    5d2f:	48 39 c2             	cmp    %rax,%rdx
    5d32:	0f 95 c0             	setne  %al
    5d35:	0f b6 d0             	movzbl %al,%edx
    5d38:	48 8b 05 71 e4 00 00 	mov    0xe471(%rip),%rax        # 141b0 <g_801>
    5d3f:	21 ca                	and    %ecx,%edx
    5d41:	89 10                	mov    %edx,(%rax)
    5d43:	8b 85 18 f5 ff ff    	mov    -0xae8(%rbp),%eax
    5d49:	83 e8 01             	sub    $0x1,%eax
    5d4c:	89 85 18 f5 ff ff    	mov    %eax,-0xae8(%rbp)
    5d52:	e9 fe 03 00 00       	jmpq   6155 <func_15+0x11b0>
    5d57:	48 8d 05 32 e4 00 00 	lea    0xe432(%rip),%rax        # 14190 <g_588>
    5d5e:	48 89 85 c8 f4 ff ff 	mov    %rax,-0xb38(%rbp)
    5d65:	48 8d 85 60 f9 ff ff 	lea    -0x6a0(%rbp),%rax
    5d6c:	48 8d 15 4d 96 00 00 	lea    0x964d(%rip),%rdx        # f3c0 <g_1116+0x368>
    5d73:	b9 28 00 00 00       	mov    $0x28,%ecx
    5d78:	48 89 c7             	mov    %rax,%rdi
    5d7b:	48 89 d6             	mov    %rdx,%rsi
    5d7e:	f3 48 a5             	rep movsq %ds:(%rsi),%es:(%rdi)
    5d81:	66 c7 85 10 f5 ff ff 	movw   $0xbeb3,-0xaf0(%rbp)
    5d88:	b3 be 
    5d8a:	66 c7 85 12 f5 ff ff 	movw   $0xbeb3,-0xaee(%rbp)
    5d91:	b3 be 
    5d93:	66 c7 85 14 f5 ff ff 	movw   $0xbeb3,-0xaec(%rbp)
    5d9a:	b3 be 
    5d9c:	66 c7 85 16 f5 ff ff 	movw   $0xbeb3,-0xaea(%rbp)
    5da3:	b3 be 
    5da5:	66 c7 85 18 f5 ff ff 	movw   $0xbeb3,-0xae8(%rbp)
    5dac:	b3 be 
    5dae:	c7 05 58 d4 00 00 e6 	movl   $0xffffffe6,0xd458(%rip)        # 13210 <g_1315>
    5db5:	ff ff ff 
    5db8:	e9 77 03 00 00       	jmpq   6134 <func_15+0x118f>
    5dbd:	c7 85 00 f6 ff ff 16 	movl   $0x61cf9a16,-0xa00(%rbp)
    5dc4:	9a cf 61 
    5dc7:	c7 85 04 f6 ff ff c3 	movl   $0x8ccbacc3,-0x9fc(%rbp)
    5dce:	ac cb 8c 
    5dd1:	c7 85 08 f6 ff ff 8c 	movl   $0x40099f8c,-0x9f8(%rbp)
    5dd8:	9f 09 40 
    5ddb:	c7 85 0c f6 ff ff ec 	movl   $0x17d5b2ec,-0x9f4(%rbp)
    5de2:	b2 d5 17 
    5de5:	c7 85 10 f6 ff ff 16 	movl   $0x61cf9a16,-0x9f0(%rbp)
    5dec:	9a cf 61 
    5def:	c7 85 14 f6 ff ff ce 	movl   $0xaf9fc4ce,-0x9ec(%rbp)
    5df6:	c4 9f af 
    5df9:	c7 85 18 f6 ff ff ce 	movl   $0xaf9fc4ce,-0x9e8(%rbp)
    5e00:	c4 9f af 
    5e03:	c7 85 1c f6 ff ff 16 	movl   $0x61cf9a16,-0x9e4(%rbp)
    5e0a:	9a cf 61 
    5e0d:	c7 85 20 f6 ff ff c7 	movl   $0x47a69ec7,-0x9e0(%rbp)
    5e14:	9e a6 47 
    5e17:	c7 85 24 f6 ff ff ec 	movl   $0x17d5b2ec,-0x9dc(%rbp)
    5e1e:	b2 d5 17 
    5e21:	c7 85 28 f6 ff ff a0 	movl   $0x6c98bfa0,-0x9d8(%rbp)
    5e28:	bf 98 6c 
    5e2b:	c7 85 2c f6 ff ff ce 	movl   $0xaf9fc4ce,-0x9d4(%rbp)
    5e32:	c4 9f af 
    5e35:	c7 85 30 f6 ff ff ec 	movl   $0x17d5b2ec,-0x9d0(%rbp)
    5e3c:	b2 d5 17 
    5e3f:	c7 85 34 f6 ff ff c3 	movl   $0x8ccbacc3,-0x9cc(%rbp)
    5e46:	ac cb 8c 
    5e49:	c7 85 38 f6 ff ff ff 	movl   $0xffffffff,-0x9c8(%rbp)
    5e50:	ff ff ff 
    5e53:	c7 85 3c f6 ff ff 47 	movl   $0x83b8c147,-0x9c4(%rbp)
    5e5a:	c1 b8 83 
    5e5d:	c7 85 40 f6 ff ff ff 	movl   $0xffffffff,-0x9c0(%rbp)
    5e64:	ff ff ff 
    5e67:	c7 85 44 f6 ff ff c7 	movl   $0x47a69ec7,-0x9bc(%rbp)
    5e6e:	9e a6 47 
    5e71:	c7 85 48 f6 ff ff ce 	movl   $0xaf9fc4ce,-0x9b8(%rbp)
    5e78:	c4 9f af 
    5e7b:	c7 85 4c f6 ff ff 47 	movl   $0x83b8c147,-0x9b4(%rbp)
    5e82:	c1 b8 83 
    5e85:	c7 85 50 f6 ff ff ff 	movl   $0xffffffff,-0x9b0(%rbp)
    5e8c:	ff ff ff 
    5e8f:	c7 85 54 f6 ff ff c3 	movl   $0x8ccbacc3,-0x9ac(%rbp)
    5e96:	ac cb 8c 
    5e99:	c7 85 58 f6 ff ff ff 	movl   $0xffffffff,-0x9a8(%rbp)
    5ea0:	ff ff ff 
    5ea3:	c7 85 5c f6 ff ff ce 	movl   $0xaf9fc4ce,-0x9a4(%rbp)
    5eaa:	c4 9f af 
    5ead:	c7 85 60 f6 ff ff 16 	movl   $0x61cf9a16,-0x9a0(%rbp)
    5eb4:	9a cf 61 
    5eb7:	c7 85 64 f6 ff ff ec 	movl   $0x17d5b2ec,-0x99c(%rbp)
    5ebe:	b2 d5 17 
    5ec1:	c7 85 68 f6 ff ff e1 	movl   $0x7ee5ae1,-0x998(%rbp)
    5ec8:	5a ee 07 
    5ecb:	c7 85 6c f6 ff ff 16 	movl   $0x61cf9a16,-0x994(%rbp)
    5ed2:	9a cf 61 
    5ed5:	c7 85 70 f6 ff ff ff 	movl   $0xffffffff,-0x990(%rbp)
    5edc:	ff ff ff 
    5edf:	c7 85 74 f6 ff ff ce 	movl   $0xaf9fc4ce,-0x98c(%rbp)
    5ee6:	c4 9f af 
    5ee9:	c7 85 78 f6 ff ff a0 	movl   $0x6c98bfa0,-0x988(%rbp)
    5ef0:	bf 98 6c 
    5ef3:	c7 85 7c f6 ff ff ec 	movl   $0x17d5b2ec,-0x984(%rbp)
    5efa:	b2 d5 17 
    5efd:	c7 85 80 f6 ff ff ce 	movl   $0xaf9fc4ce,-0x980(%rbp)
    5f04:	c4 9f af 
    5f07:	c7 85 84 f6 ff ff c3 	movl   $0x8ccbacc3,-0x97c(%rbp)
    5f0e:	ac cb 8c 
    5f11:	c7 85 88 f6 ff ff a0 	movl   $0x6c98bfa0,-0x978(%rbp)
    5f18:	bf 98 6c 
    5f1b:	c7 85 8c f6 ff ff a0 	movl   $0x6c98bfa0,-0x974(%rbp)
    5f22:	bf 98 6c 
    5f25:	c7 85 90 f6 ff ff ff 	movl   $0xffffffff,-0x970(%rbp)
    5f2c:	ff ff ff 
    5f2f:	c7 85 94 f6 ff ff ff 	movl   $0xffffffff,-0x96c(%rbp)
    5f36:	ff ff ff 
    5f39:	c7 85 98 f6 ff ff e1 	movl   $0x7ee5ae1,-0x968(%rbp)
    5f40:	5a ee 07 
    5f43:	c7 85 9c f6 ff ff 47 	movl   $0x83b8c147,-0x964(%rbp)
    5f4a:	c1 b8 83 
    5f4d:	c7 85 a0 f6 ff ff 16 	movl   $0x61cf9a16,-0x960(%rbp)
    5f54:	9a cf 61 
    5f57:	c7 85 a4 f6 ff ff b9 	movl   $0x652859b9,-0x95c(%rbp)
    5f5e:	59 28 65 
    5f61:	c7 85 a8 f6 ff ff ff 	movl   $0xffffffff,-0x958(%rbp)
    5f68:	ff ff ff 
    5f6b:	c7 85 ac f6 ff ff ec 	movl   $0x17d5b2ec,-0x954(%rbp)
    5f72:	b2 d5 17 
    5f75:	c7 85 b0 f6 ff ff ff 	movl   $0xffffffff,-0x950(%rbp)
    5f7c:	ff ff ff 
    5f7f:	c7 85 b4 f6 ff ff ec 	movl   $0x17d5b2ec,-0x94c(%rbp)
    5f86:	b2 d5 17 
    5f89:	c7 85 b8 f6 ff ff ce 	movl   $0xaf9fc4ce,-0x948(%rbp)
    5f90:	c4 9f af 
    5f93:	c7 85 bc f6 ff ff ff 	movl   $0xffffffff,-0x944(%rbp)
    5f9a:	ff ff ff 
    5f9d:	c7 85 c0 f6 ff ff ff 	movl   $0xffffffff,-0x940(%rbp)
    5fa4:	ff ff ff 
    5fa7:	c7 85 c4 f6 ff ff ec 	movl   $0x17d5b2ec,-0x93c(%rbp)
    5fae:	b2 d5 17 
    5fb1:	c7 85 c8 f6 ff ff ff 	movl   $0xffffffff,-0x938(%rbp)
    5fb8:	ff ff ff 
    5fbb:	c7 85 cc f6 ff ff ec 	movl   $0x17d5b2ec,-0x934(%rbp)
    5fc2:	b2 d5 17 
    5fc5:	c7 85 d0 f6 ff ff ec 	movl   $0x17d5b2ec,-0x930(%rbp)
    5fcc:	b2 d5 17 
    5fcf:	c7 85 d4 f6 ff ff b9 	movl   $0x652859b9,-0x92c(%rbp)
    5fd6:	59 28 65 
    5fd9:	c7 85 d8 f6 ff ff a0 	movl   $0x6c98bfa0,-0x928(%rbp)
    5fe0:	bf 98 6c 
    5fe3:	c7 85 dc f6 ff ff 47 	movl   $0x83b8c147,-0x924(%rbp)
    5fea:	c1 b8 83 
    5fed:	c7 85 e0 f6 ff ff c7 	movl   $0x47a69ec7,-0x920(%rbp)
    5ff4:	9e a6 47 
    5ff7:	c7 85 e4 f6 ff ff ff 	movl   $0xffffffff,-0x91c(%rbp)
    5ffe:	ff ff ff 
    6001:	c7 85 e8 f6 ff ff ce 	movl   $0xaf9fc4ce,-0x918(%rbp)
    6008:	c4 9f af 
    600b:	c7 85 ec f6 ff ff a0 	movl   $0x6c98bfa0,-0x914(%rbp)
    6012:	bf 98 6c 
    6015:	c7 85 f0 f6 ff ff 16 	movl   $0x61cf9a16,-0x910(%rbp)
    601c:	9a cf 61 
    601f:	c7 85 f4 f6 ff ff c3 	movl   $0x8ccbacc3,-0x90c(%rbp)
    6026:	ac cb 8c 
    6029:	c7 85 f8 f6 ff ff 8c 	movl   $0x40099f8c,-0x908(%rbp)
    6030:	9f 09 40 
    6033:	c7 85 fc f6 ff ff ec 	movl   $0x17d5b2ec,-0x904(%rbp)
    603a:	b2 d5 17 
    603d:	48 8d 05 a0 d0 00 00 	lea    0xd0a0(%rip),%rax        # 130e4 <g_186>
    6044:	48 89 85 40 f5 ff ff 	mov    %rax,-0xac0(%rbp)
    604b:	48 8d 05 92 d0 00 00 	lea    0xd092(%rip),%rax        # 130e4 <g_186>
    6052:	48 89 85 48 f5 ff ff 	mov    %rax,-0xab8(%rbp)
    6059:	48 8d 05 84 d0 00 00 	lea    0xd084(%rip),%rax        # 130e4 <g_186>
    6060:	48 89 85 50 f5 ff ff 	mov    %rax,-0xab0(%rbp)
    6067:	48 8d 05 76 d0 00 00 	lea    0xd076(%rip),%rax        # 130e4 <g_186>
    606e:	48 89 85 58 f5 ff ff 	mov    %rax,-0xaa8(%rbp)
    6075:	48 8d 05 68 d0 00 00 	lea    0xd068(%rip),%rax        # 130e4 <g_186>
    607c:	48 89 85 60 f5 ff ff 	mov    %rax,-0xaa0(%rbp)
    6083:	48 8d 05 5a d0 00 00 	lea    0xd05a(%rip),%rax        # 130e4 <g_186>
    608a:	48 89 85 68 f5 ff ff 	mov    %rax,-0xa98(%rbp)
    6091:	48 8d 05 4c d0 00 00 	lea    0xd04c(%rip),%rax        # 130e4 <g_186>
    6098:	48 89 85 70 f5 ff ff 	mov    %rax,-0xa90(%rbp)
    609f:	c7 85 70 f4 ff ff fe 	movl   $0xfffffffe,-0xb90(%rbp)
    60a6:	ff ff ff 
    60a9:	48 8d 05 f0 e0 00 00 	lea    0xe0f0(%rip),%rax        # 141a0 <g_749>
    60b0:	48 89 85 d0 f4 ff ff 	mov    %rax,-0xb30(%rbp)
    60b7:	48 8b 85 58 f4 ff ff 	mov    -0xba8(%rbp),%rax
    60be:	0f b6 00             	movzbl (%rax),%eax
    60c1:	0f b6 c0             	movzbl %al,%eax
    60c4:	be 01 00 00 00       	mov    $0x1,%esi
    60c9:	89 c7                	mov    %eax,%edi
    60cb:	e8 7c db ff ff       	callq  3c4c <safe_lshift_func_uint8_t_u_u>
    60d0:	48 8b 85 d0 f4 ff ff 	mov    -0xb30(%rbp),%rax
    60d7:	48 3b 85 c8 f4 ff ff 	cmp    -0xb38(%rbp),%rax
    60de:	0f 94 c2             	sete   %dl
    60e1:	48 8b 05 a0 e0 00 00 	mov    0xe0a0(%rip),%rax        # 14188 <g_449>
    60e8:	0f b6 d2             	movzbl %dl,%edx
    60eb:	48 89 10             	mov    %rdx,(%rax)
    60ee:	48 8b 00             	mov    (%rax),%rax
    60f1:	48 85 c0             	test   %rax,%rax
    60f4:	74 07                	je     60fd <func_15+0x1158>
    60f6:	ba 01 00 00 00       	mov    $0x1,%edx
    60fb:	eb 05                	jmp    6102 <func_15+0x115d>
    60fd:	ba 00 00 00 00       	mov    $0x0,%edx
    6102:	48 8b 05 a7 e0 00 00 	mov    0xe0a7(%rip),%rax        # 141b0 <g_801>
    6109:	89 10                	mov    %edx,(%rax)
    610b:	48 8b 05 e6 cf 00 00 	mov    0xcfe6(%rip),%rax        # 130f8 <g_303>
    6112:	48 85 c0             	test   %rax,%rax
    6115:	74 05                	je     611c <func_15+0x1177>
    6117:	e9 92 fc ff ff       	jmpq   5dae <func_15+0xe09>
    611c:	83 bd 50 f4 ff ff 00 	cmpl   $0x0,-0xbb0(%rbp)
    6123:	75 20                	jne    6145 <func_15+0x11a0>
    6125:	8b 05 e5 d0 00 00    	mov    0xd0e5(%rip),%eax        # 13210 <g_1315>
    612b:	83 c0 01             	add    $0x1,%eax
    612e:	89 05 dc d0 00 00    	mov    %eax,0xd0dc(%rip)        # 13210 <g_1315>
    6134:	8b 05 d6 d0 00 00    	mov    0xd0d6(%rip),%eax        # 13210 <g_1315>
    613a:	83 f8 1b             	cmp    $0x1b,%eax
    613d:	0f 85 7a fc ff ff    	jne    5dbd <func_15+0xe18>
    6143:	eb 01                	jmp    6146 <func_15+0x11a1>
    6145:	90                   	nop
    6146:	48 8b 05 63 e0 00 00 	mov    0xe063(%rip),%rax        # 141b0 <g_801>
    614d:	8b 00                	mov    (%rax),%eax
    614f:	89 85 28 fa ff ff    	mov    %eax,-0x5d8(%rbp)
    6155:	8b 05 65 cf 00 00    	mov    0xcf65(%rip),%eax        # 130c0 <g_98>
    615b:	48 8b 4d f8          	mov    -0x8(%rbp),%rcx
    615f:	64 48 33 0c 25 28 00 	xor    %fs:0x28,%rcx
    6166:	00 00 
    6168:	74 05                	je     616f <func_15+0x11ca>
    616a:	e8 01 cf ff ff       	callq  3070 <__stack_chk_fail@plt>
    616f:	c9                   	leaveq 
    6170:	c3                   	retq   

0000000000006171 <func_25>:
    6171:	f3 0f 1e fa          	endbr64 
    6175:	55                   	push   %rbp
    6176:	48 89 e5             	mov    %rsp,%rbp
    6179:	41 56                	push   %r14
    617b:	41 55                	push   %r13
    617d:	41 54                	push   %r12
    617f:	53                   	push   %rbx
    6180:	48 81 ec 00 10 00 00 	sub    $0x1000,%rsp
    6187:	48 83 0c 24 00       	orq    $0x0,(%rsp)
    618c:	48 81 ec c0 02 00 00 	sub    $0x2c0,%rsp
    6193:	48 89 bd 28 ed ff ff 	mov    %rdi,-0x12d8(%rbp)
    619a:	89 f0                	mov    %esi,%eax
    619c:	89 95 20 ed ff ff    	mov    %edx,-0x12e0(%rbp)
    61a2:	66 89 85 24 ed ff ff 	mov    %ax,-0x12dc(%rbp)
    61a9:	64 48 8b 04 25 28 00 	mov    %fs:0x28,%rax
    61b0:	00 00 
    61b2:	48 89 45 d8          	mov    %rax,-0x28(%rbp)
    61b6:	31 c0                	xor    %eax,%eax
    61b8:	48 8d 05 29 d0 00 00 	lea    0xd029(%rip),%rax        # 131e8 <g_447>
    61bf:	48 89 85 00 ee ff ff 	mov    %rax,-0x1200(%rbp)
    61c6:	c7 85 48 ed ff ff f9 	movl   $0xba3eaef9,-0x12b8(%rbp)
    61cd:	ae 3e ba 
    61d0:	48 8d 85 f0 f0 ff ff 	lea    -0xf10(%rbp),%rax
    61d7:	48 8d 15 62 d0 00 00 	lea    0xd062(%rip),%rdx        # 13240 <g_1575+0x20>
    61de:	b9 24 00 00 00       	mov    $0x24,%ecx
    61e3:	48 89 c7             	mov    %rax,%rdi
    61e6:	48 89 d6             	mov    %rdx,%rsi
    61e9:	f3 48 a5             	rep movsq %ds:(%rsi),%es:(%rdi)
    61ec:	48 8d 85 f0 f0 ff ff 	lea    -0xf10(%rbp),%rax
    61f3:	48 83 c0 18          	add    $0x18,%rax
    61f7:	48 89 85 60 ee ff ff 	mov    %rax,-0x11a0(%rbp)
    61fe:	c7 85 4c ed ff ff f2 	movl   $0xea3e1cf2,-0x12b4(%rbp)
    6205:	1c 3e ea 
    6208:	c7 85 50 ed ff ff f8 	movl   $0xfffffff8,-0x12b0(%rbp)
    620f:	ff ff ff 
    6212:	c7 85 54 ed ff ff a6 	movl   $0x211a5da6,-0x12ac(%rbp)
    6219:	5d 1a 21 
    621c:	48 8d 05 b5 de 00 00 	lea    0xdeb5(%rip),%rax        # 140d8 <g_127+0x18>
    6223:	48 89 85 08 ee ff ff 	mov    %rax,-0x11f8(%rbp)
    622a:	48 8d 85 08 ee ff ff 	lea    -0x11f8(%rbp),%rax
    6231:	48 89 85 68 ee ff ff 	mov    %rax,-0x1198(%rbp)
    6238:	48 8d 05 eb cd 00 00 	lea    0xcdeb(%rip),%rax        # 1302a <g_21>
    623f:	48 89 85 70 ee ff ff 	mov    %rax,-0x1190(%rbp)
    6246:	c7 85 58 ed ff ff fb 	movl   $0xfffffffb,-0x12a8(%rbp)
    624d:	ff ff ff 
    6250:	c7 85 88 ed ff ff af 	movl   $0xc5d398af,-0x1278(%rbp)
    6257:	98 d3 c5 
    625a:	c7 85 5c ed ff ff 75 	movl   $0x656a5075,-0x12a4(%rbp)
    6261:	50 6a 65 
    6264:	66 c7 85 00 f0 ff ff 	movw   $0xe461,-0x1000(%rbp)
    626b:	61 e4 
    626d:	66 c7 85 02 f0 ff ff 	movw   $0xe461,-0xffe(%rbp)
    6274:	61 e4 
    6276:	66 c7 85 04 f0 ff ff 	movw   $0xe461,-0xffc(%rbp)
    627d:	61 e4 
    627f:	66 c7 85 06 f0 ff ff 	movw   $0xe461,-0xffa(%rbp)
    6286:	61 e4 
    6288:	66 c7 85 08 f0 ff ff 	movw   $0xe461,-0xff8(%rbp)
    628f:	61 e4 
    6291:	66 c7 85 0a f0 ff ff 	movw   $0xe461,-0xff6(%rbp)
    6298:	61 e4 
    629a:	66 c7 85 0c f0 ff ff 	movw   $0xe461,-0xff4(%rbp)
    62a1:	61 e4 
    62a3:	66 c7 85 0e f0 ff ff 	movw   $0xe461,-0xff2(%rbp)
    62aa:	61 e4 
    62ac:	48 8d 05 90 ce 00 00 	lea    0xce90(%rip),%rax        # 13143 <g_425+0x23>
    62b3:	48 89 85 10 ee ff ff 	mov    %rax,-0x11f0(%rbp)
    62ba:	48 8d 85 10 ee ff ff 	lea    -0x11f0(%rbp),%rax
    62c1:	48 89 85 18 ee ff ff 	mov    %rax,-0x11e8(%rbp)
    62c8:	48 8d 85 18 ee ff ff 	lea    -0x11e8(%rbp),%rax
    62cf:	48 89 85 20 ee ff ff 	mov    %rax,-0x11e0(%rbp)
    62d6:	48 8d 85 20 ee ff ff 	lea    -0x11e0(%rbp),%rax
    62dd:	48 89 85 28 ee ff ff 	mov    %rax,-0x11d8(%rbp)
    62e4:	48 8d 85 28 ee ff ff 	lea    -0x11d8(%rbp),%rax
    62eb:	48 89 85 78 ee ff ff 	mov    %rax,-0x1188(%rbp)
    62f2:	66 c7 85 38 ed ff ff 	movw   $0xe814,-0x12c8(%rbp)
    62f9:	14 e8 
    62fb:	c7 85 8c ed ff ff 07 	movl   $0x7,-0x1274(%rbp)
    6302:	00 00 00 
    6305:	c7 85 90 ed ff ff 00 	movl   $0x0,-0x1270(%rbp)
    630c:	00 00 00 
    630f:	c7 85 60 ed ff ff 09 	movl   $0xf34a5d09,-0x12a0(%rbp)
    6316:	5d 4a f3 
    6319:	c7 85 94 ed ff ff ff 	movl   $0xffffffff,-0x126c(%rbp)
    6320:	ff ff ff 
    6323:	c7 85 64 ed ff ff ff 	movl   $0xffffffff,-0x129c(%rbp)
    632a:	ff ff ff 
    632d:	c7 85 98 ed ff ff 44 	movl   $0x45cf0f44,-0x1268(%rbp)
    6334:	0f cf 45 
    6337:	48 b8 c0 77 53 fb 92 	movabs $0xbe4afe92fb5377c0,%rax
    633e:	fe 4a be 
    6341:	48 89 85 58 ee ff ff 	mov    %rax,-0x11a8(%rbp)
    6348:	48 c7 85 80 ee ff ff 	movq   $0x1,-0x1180(%rbp)
    634f:	01 00 00 00 
    6353:	48 c7 85 88 ee ff ff 	movq   $0x1,-0x1178(%rbp)
    635a:	01 00 00 00 
    635e:	48 c7 85 90 ee ff ff 	movq   $0xfffffffffffffff6,-0x1170(%rbp)
    6365:	f6 ff ff ff 
    6369:	66 c7 85 3a ed ff ff 	movw   $0x32a5,-0x12c6(%rbp)
    6370:	a5 32 
    6372:	48 c7 85 98 ee ff ff 	movq   $0x8,-0x1168(%rbp)
    6379:	08 00 00 00 
    637d:	c7 85 20 ed ff ff 00 	movl   $0x0,-0x12e0(%rbp)
    6384:	00 00 00 
    6387:	e9 fa 00 00 00       	jmpq   6486 <func_25+0x315>
    638c:	c7 85 48 ee ff ff 3c 	movl   $0x5be9843c,-0x11b8(%rbp)
    6393:	84 e9 5b 
    6396:	48 8d 85 00 ee ff ff 	lea    -0x1200(%rbp),%rax
    639d:	48 89 85 b0 ef ff ff 	mov    %rax,-0x1050(%rbp)
    63a4:	48 8d 05 e5 cc 00 00 	lea    0xcce5(%rip),%rax        # 13090 <g_93+0x50>
    63ab:	48 89 85 50 ee ff ff 	mov    %rax,-0x11b0(%rbp)
    63b2:	48 8d 85 50 ee ff ff 	lea    -0x11b0(%rbp),%rax
    63b9:	48 89 85 b8 ef ff ff 	mov    %rax,-0x1048(%rbp)
    63c0:	48 8d 85 00 f8 ff ff 	lea    -0x800(%rbp),%rax
    63c7:	48 8d 15 32 91 00 00 	lea    0x9132(%rip),%rdx        # f500 <g_1116+0x4a8>
    63ce:	b9 6c 00 00 00       	mov    $0x6c,%ecx
    63d3:	48 89 c7             	mov    %rax,%rdi
    63d6:	48 89 d6             	mov    %rdx,%rsi
    63d9:	f3 48 a5             	rep movsq %ds:(%rsi),%es:(%rdi)
    63dc:	48 8d 05 9d dc 00 00 	lea    0xdc9d(%rip),%rax        # 14080 <g_128>
    63e3:	48 89 85 c0 ef ff ff 	mov    %rax,-0x1040(%rbp)
    63ea:	48 8d 85 00 f8 ff ff 	lea    -0x800(%rbp),%rax
    63f1:	48 05 68 02 00 00    	add    $0x268,%rax
    63f7:	48 89 85 c8 ef ff ff 	mov    %rax,-0x1038(%rbp)
    63fe:	48 8d 85 48 ee ff ff 	lea    -0x11b8(%rbp),%rax
    6405:	48 89 85 d0 ef ff ff 	mov    %rax,-0x1030(%rbp)
    640c:	48 8d 05 e5 cd 00 00 	lea    0xcde5(%rip),%rax        # 131f8 <g_564>
    6413:	48 89 85 40 f4 ff ff 	mov    %rax,-0xbc0(%rbp)
    641a:	48 8d 05 d7 cd 00 00 	lea    0xcdd7(%rip),%rax        # 131f8 <g_564>
    6421:	48 89 85 48 f4 ff ff 	mov    %rax,-0xbb8(%rbp)
    6428:	48 8d 05 c9 cd 00 00 	lea    0xcdc9(%rip),%rax        # 131f8 <g_564>
    642f:	48 89 85 50 f4 ff ff 	mov    %rax,-0xbb0(%rbp)
    6436:	48 8d 05 bb cd 00 00 	lea    0xcdbb(%rip),%rax        # 131f8 <g_564>
    643d:	48 89 85 58 f4 ff ff 	mov    %rax,-0xba8(%rbp)
    6444:	c7 85 68 ed ff ff 00 	movl   $0x0,-0x1298(%rbp)
    644b:	00 00 00 
    644e:	eb 1e                	jmp    646e <func_25+0x2fd>
    6450:	8b 85 68 ed ff ff    	mov    -0x1298(%rbp),%eax
    6456:	48 98                	cltq   
    6458:	48 8d 15 99 cc 00 00 	lea    0xcc99(%rip),%rdx        # 130f8 <g_303>
    645f:	48 89 94 c5 10 f2 ff 	mov    %rdx,-0xdf0(%rbp,%rax,8)
    6466:	ff 
    6467:	83 85 68 ed ff ff 01 	addl   $0x1,-0x1298(%rbp)
    646e:	83 bd 68 ed ff ff 02 	cmpl   $0x2,-0x1298(%rbp)
    6475:	7e d9                	jle    6450 <func_25+0x2df>
    6477:	8b 85 20 ed ff ff    	mov    -0x12e0(%rbp),%eax
    647d:	83 c0 01             	add    $0x1,%eax
    6480:	89 85 20 ed ff ff    	mov    %eax,-0x12e0(%rbp)
    6486:	8b 85 20 ed ff ff    	mov    -0x12e0(%rbp),%eax
    648c:	83 f8 16             	cmp    $0x16,%eax
    648f:	0f 8e f7 fe ff ff    	jle    638c <func_25+0x21b>
    6495:	48 8d 85 08 ee ff ff 	lea    -0x11f8(%rbp),%rax
    649c:	48 39 85 68 ee ff ff 	cmp    %rax,-0x1198(%rbp)
    64a3:	0f 85 ae 13 00 00    	jne    7857 <func_25+0x16e6>
    64a9:	c7 85 c8 ed ff ff e7 	movl   $0xcc7c5ce7,-0x1238(%rbp)
    64b0:	5c 7c cc 
    64b3:	48 8d 05 76 e3 00 00 	lea    0xe376(%rip),%rax        # 14830 <g_1192>
    64ba:	48 89 85 38 ee ff ff 	mov    %rax,-0x11c8(%rbp)
    64c1:	48 8d 85 38 ee ff ff 	lea    -0x11c8(%rbp),%rax
    64c8:	48 89 85 40 ef ff ff 	mov    %rax,-0x10c0(%rbp)
    64cf:	48 8d 05 02 dc 00 00 	lea    0xdc02(%rip),%rax        # 140d8 <g_127+0x18>
    64d6:	48 89 85 40 ee ff ff 	mov    %rax,-0x11c0(%rbp)
    64dd:	48 8d 85 40 ee ff ff 	lea    -0x11c0(%rbp),%rax
    64e4:	48 89 85 48 ef ff ff 	mov    %rax,-0x10b8(%rbp)
    64eb:	66 c7 85 44 ed ff ff 	movw   $0x0,-0x12bc(%rbp)
    64f2:	00 00 
    64f4:	c6 85 37 ed ff ff 07 	movb   $0x7,-0x12c9(%rbp)
    64fb:	48 8d 05 0e cd 00 00 	lea    0xcd0e(%rip),%rax        # 13210 <g_1315>
    6502:	48 89 85 50 ef ff ff 	mov    %rax,-0x10b0(%rbp)
    6509:	c7 85 6c ed ff ff 00 	movl   $0x0,-0x1294(%rbp)
    6510:	00 00 00 
    6513:	eb 1a                	jmp    652f <func_25+0x3be>
    6515:	8b 85 6c ed ff ff    	mov    -0x1294(%rbp),%eax
    651b:	48 98                	cltq   
    651d:	c7 84 85 70 f0 ff ff 	movl   $0xfffffff7,-0xf90(%rbp,%rax,4)
    6524:	f7 ff ff ff 
    6528:	83 85 6c ed ff ff 01 	addl   $0x1,-0x1294(%rbp)
    652f:	83 bd 6c ed ff ff 01 	cmpl   $0x1,-0x1294(%rbp)
    6536:	7e dd                	jle    6515 <func_25+0x3a4>
    6538:	66 c7 05 eb ca 00 00 	movw   $0x2,0xcaeb(%rip)        # 1302c <g_72>
    653f:	02 00 
    6541:	e9 a4 0d 00 00       	jmpq   72ea <func_25+0x1179>
    6546:	48 8d 05 93 cc 00 00 	lea    0xcc93(%rip),%rax        # 131e0 <g_426>
    654d:	48 89 85 88 ef ff ff 	mov    %rax,-0x1078(%rbp)
    6554:	48 c7 85 48 ee ff ff 	movq   $0x0,-0x11b8(%rbp)
    655b:	00 00 00 00 
    655f:	48 8d 85 48 ee ff ff 	lea    -0x11b8(%rbp),%rax
    6566:	48 89 85 90 ef ff ff 	mov    %rax,-0x1070(%rbp)
    656d:	48 8d 85 10 f2 ff ff 	lea    -0xdf0(%rbp),%rax
    6574:	48 8d 15 e5 cd 00 00 	lea    0xcde5(%rip),%rdx        # 13360 <g_1575+0x140>
    657b:	b9 28 00 00 00       	mov    $0x28,%ecx
    6580:	48 89 c7             	mov    %rax,%rdi
    6583:	48 89 d6             	mov    %rdx,%rsi
    6586:	f3 48 a5             	rep movsq %ds:(%rsi),%es:(%rdi)
    6589:	48 8d 85 40 f4 ff ff 	lea    -0xbc0(%rbp),%rax
    6590:	48 8d 15 c9 92 00 00 	lea    0x92c9(%rip),%rdx        # f860 <g_1116+0x808>
    6597:	b9 78 00 00 00       	mov    $0x78,%ecx
    659c:	48 89 c7             	mov    %rax,%rdi
    659f:	48 89 d6             	mov    %rdx,%rsi
    65a2:	f3 48 a5             	rep movsq %ds:(%rsi),%es:(%rdi)
    65a5:	66 c7 85 46 ed ff ff 	movw   $0x70e5,-0x12ba(%rbp)
    65ac:	e5 70 
    65ae:	c7 85 fc ed ff ff 42 	movl   $0x73a3d142,-0x1204(%rbp)
    65b5:	d1 a3 73 
    65b8:	48 8d 05 b1 db 00 00 	lea    0xdbb1(%rip),%rax        # 14170 <g_297>
    65bf:	48 89 85 50 ee ff ff 	mov    %rax,-0x11b0(%rbp)
    65c6:	48 c7 85 00 f8 ff ff 	movq   $0x0,-0x800(%rbp)
    65cd:	00 00 00 00 
    65d1:	48 c7 85 08 f8 ff ff 	movq   $0x0,-0x7f8(%rbp)
    65d8:	00 00 00 00 
    65dc:	48 8d 85 50 ee ff ff 	lea    -0x11b0(%rbp),%rax
    65e3:	48 89 85 10 f8 ff ff 	mov    %rax,-0x7f0(%rbp)
    65ea:	48 c7 85 18 f8 ff ff 	movq   $0x0,-0x7e8(%rbp)
    65f1:	00 00 00 00 
    65f5:	48 8d 85 50 ee ff ff 	lea    -0x11b0(%rbp),%rax
    65fc:	48 89 85 20 f8 ff ff 	mov    %rax,-0x7e0(%rbp)
    6603:	48 8d 85 50 ee ff ff 	lea    -0x11b0(%rbp),%rax
    660a:	48 89 85 28 f8 ff ff 	mov    %rax,-0x7d8(%rbp)
    6611:	48 8d 85 50 ee ff ff 	lea    -0x11b0(%rbp),%rax
    6618:	48 89 85 30 f8 ff ff 	mov    %rax,-0x7d0(%rbp)
    661f:	48 c7 85 38 f8 ff ff 	movq   $0x0,-0x7c8(%rbp)
    6626:	00 00 00 00 
    662a:	48 8d 85 50 ee ff ff 	lea    -0x11b0(%rbp),%rax
    6631:	48 89 85 40 f8 ff ff 	mov    %rax,-0x7c0(%rbp)
    6638:	48 8d 85 50 ee ff ff 	lea    -0x11b0(%rbp),%rax
    663f:	48 89 85 48 f8 ff ff 	mov    %rax,-0x7b8(%rbp)
    6646:	48 8d 85 50 ee ff ff 	lea    -0x11b0(%rbp),%rax
    664d:	48 89 85 50 f8 ff ff 	mov    %rax,-0x7b0(%rbp)
    6654:	48 8d 85 50 ee ff ff 	lea    -0x11b0(%rbp),%rax
    665b:	48 89 85 58 f8 ff ff 	mov    %rax,-0x7a8(%rbp)
    6662:	48 8d 85 50 ee ff ff 	lea    -0x11b0(%rbp),%rax
    6669:	48 89 85 60 f8 ff ff 	mov    %rax,-0x7a0(%rbp)
    6670:	48 8d 85 50 ee ff ff 	lea    -0x11b0(%rbp),%rax
    6677:	48 89 85 68 f8 ff ff 	mov    %rax,-0x798(%rbp)
    667e:	48 8d 85 50 ee ff ff 	lea    -0x11b0(%rbp),%rax
    6685:	48 89 85 70 f8 ff ff 	mov    %rax,-0x790(%rbp)
    668c:	48 8d 85 50 ee ff ff 	lea    -0x11b0(%rbp),%rax
    6693:	48 89 85 78 f8 ff ff 	mov    %rax,-0x788(%rbp)
    669a:	48 8d 85 50 ee ff ff 	lea    -0x11b0(%rbp),%rax
    66a1:	48 89 85 80 f8 ff ff 	mov    %rax,-0x780(%rbp)
    66a8:	48 8d 85 50 ee ff ff 	lea    -0x11b0(%rbp),%rax
    66af:	48 89 85 88 f8 ff ff 	mov    %rax,-0x778(%rbp)
    66b6:	48 8d 85 50 ee ff ff 	lea    -0x11b0(%rbp),%rax
    66bd:	48 89 85 90 f8 ff ff 	mov    %rax,-0x770(%rbp)
    66c4:	48 c7 85 98 f8 ff ff 	movq   $0x0,-0x768(%rbp)
    66cb:	00 00 00 00 
    66cf:	48 8d 85 50 ee ff ff 	lea    -0x11b0(%rbp),%rax
    66d6:	48 89 85 a0 f8 ff ff 	mov    %rax,-0x760(%rbp)
    66dd:	48 c7 85 a8 f8 ff ff 	movq   $0x0,-0x758(%rbp)
    66e4:	00 00 00 00 
    66e8:	48 c7 85 b0 f8 ff ff 	movq   $0x0,-0x750(%rbp)
    66ef:	00 00 00 00 
    66f3:	48 8d 85 50 ee ff ff 	lea    -0x11b0(%rbp),%rax
    66fa:	48 89 85 b8 f8 ff ff 	mov    %rax,-0x748(%rbp)
    6701:	48 8d 85 50 ee ff ff 	lea    -0x11b0(%rbp),%rax
    6708:	48 89 85 c0 f8 ff ff 	mov    %rax,-0x740(%rbp)
    670f:	48 8d 85 50 ee ff ff 	lea    -0x11b0(%rbp),%rax
    6716:	48 89 85 c8 f8 ff ff 	mov    %rax,-0x738(%rbp)
    671d:	48 c7 85 d0 f8 ff ff 	movq   $0x0,-0x730(%rbp)
    6724:	00 00 00 00 
    6728:	48 c7 85 d8 f8 ff ff 	movq   $0x0,-0x728(%rbp)
    672f:	00 00 00 00 
    6733:	48 8d 85 50 ee ff ff 	lea    -0x11b0(%rbp),%rax
    673a:	48 89 85 e0 f8 ff ff 	mov    %rax,-0x720(%rbp)
    6741:	48 8d 85 50 ee ff ff 	lea    -0x11b0(%rbp),%rax
    6748:	48 89 85 e8 f8 ff ff 	mov    %rax,-0x718(%rbp)
    674f:	48 8d 85 50 ee ff ff 	lea    -0x11b0(%rbp),%rax
    6756:	48 89 85 f0 f8 ff ff 	mov    %rax,-0x710(%rbp)
    675d:	48 8d 85 50 ee ff ff 	lea    -0x11b0(%rbp),%rax
    6764:	48 89 85 f8 f8 ff ff 	mov    %rax,-0x708(%rbp)
    676b:	48 8d 85 50 ee ff ff 	lea    -0x11b0(%rbp),%rax
    6772:	48 89 85 00 f9 ff ff 	mov    %rax,-0x700(%rbp)
    6779:	48 c7 85 08 f9 ff ff 	movq   $0x0,-0x6f8(%rbp)
    6780:	00 00 00 00 
    6784:	48 8d 85 50 ee ff ff 	lea    -0x11b0(%rbp),%rax
    678b:	48 89 85 10 f9 ff ff 	mov    %rax,-0x6f0(%rbp)
    6792:	48 8d 85 50 ee ff ff 	lea    -0x11b0(%rbp),%rax
    6799:	48 89 85 18 f9 ff ff 	mov    %rax,-0x6e8(%rbp)
    67a0:	48 c7 85 20 f9 ff ff 	movq   $0x0,-0x6e0(%rbp)
    67a7:	00 00 00 00 
    67ab:	48 8d 85 50 ee ff ff 	lea    -0x11b0(%rbp),%rax
    67b2:	48 89 85 28 f9 ff ff 	mov    %rax,-0x6d8(%rbp)
    67b9:	48 8d 85 50 ee ff ff 	lea    -0x11b0(%rbp),%rax
    67c0:	48 89 85 30 f9 ff ff 	mov    %rax,-0x6d0(%rbp)
    67c7:	48 8d 85 50 ee ff ff 	lea    -0x11b0(%rbp),%rax
    67ce:	48 89 85 38 f9 ff ff 	mov    %rax,-0x6c8(%rbp)
    67d5:	48 8d 85 50 ee ff ff 	lea    -0x11b0(%rbp),%rax
    67dc:	48 89 85 40 f9 ff ff 	mov    %rax,-0x6c0(%rbp)
    67e3:	48 c7 85 48 f9 ff ff 	movq   $0x0,-0x6b8(%rbp)
    67ea:	00 00 00 00 
    67ee:	48 c7 85 50 f9 ff ff 	movq   $0x0,-0x6b0(%rbp)
    67f5:	00 00 00 00 
    67f9:	48 c7 85 58 f9 ff ff 	movq   $0x0,-0x6a8(%rbp)
    6800:	00 00 00 00 
    6804:	48 8d 85 50 ee ff ff 	lea    -0x11b0(%rbp),%rax
    680b:	48 89 85 60 f9 ff ff 	mov    %rax,-0x6a0(%rbp)
    6812:	48 8d 85 50 ee ff ff 	lea    -0x11b0(%rbp),%rax
    6819:	48 89 85 68 f9 ff ff 	mov    %rax,-0x698(%rbp)
    6820:	48 8d 85 50 ee ff ff 	lea    -0x11b0(%rbp),%rax
    6827:	48 89 85 70 f9 ff ff 	mov    %rax,-0x690(%rbp)
    682e:	48 8d 85 50 ee ff ff 	lea    -0x11b0(%rbp),%rax
    6835:	48 89 85 78 f9 ff ff 	mov    %rax,-0x688(%rbp)
    683c:	48 8d 85 50 ee ff ff 	lea    -0x11b0(%rbp),%rax
    6843:	48 89 85 80 f9 ff ff 	mov    %rax,-0x680(%rbp)
    684a:	48 8d 85 50 ee ff ff 	lea    -0x11b0(%rbp),%rax
    6851:	48 89 85 88 f9 ff ff 	mov    %rax,-0x678(%rbp)
    6858:	48 8d 85 50 ee ff ff 	lea    -0x11b0(%rbp),%rax
    685f:	48 89 85 90 f9 ff ff 	mov    %rax,-0x670(%rbp)
    6866:	48 8d 85 50 ee ff ff 	lea    -0x11b0(%rbp),%rax
    686d:	48 89 85 98 f9 ff ff 	mov    %rax,-0x668(%rbp)
    6874:	48 8d 85 50 ee ff ff 	lea    -0x11b0(%rbp),%rax
    687b:	48 89 85 a0 f9 ff ff 	mov    %rax,-0x660(%rbp)
    6882:	48 8d 85 50 ee ff ff 	lea    -0x11b0(%rbp),%rax
    6889:	48 89 85 a8 f9 ff ff 	mov    %rax,-0x658(%rbp)
    6890:	48 8d 85 50 ee ff ff 	lea    -0x11b0(%rbp),%rax
    6897:	48 89 85 b0 f9 ff ff 	mov    %rax,-0x650(%rbp)
    689e:	48 8d 85 50 ee ff ff 	lea    -0x11b0(%rbp),%rax
    68a5:	48 89 85 b8 f9 ff ff 	mov    %rax,-0x648(%rbp)
    68ac:	48 8d 85 50 ee ff ff 	lea    -0x11b0(%rbp),%rax
    68b3:	48 89 85 c0 f9 ff ff 	mov    %rax,-0x640(%rbp)
    68ba:	48 8d 85 50 ee ff ff 	lea    -0x11b0(%rbp),%rax
    68c1:	48 89 85 c8 f9 ff ff 	mov    %rax,-0x638(%rbp)
    68c8:	48 8d 85 50 ee ff ff 	lea    -0x11b0(%rbp),%rax
    68cf:	48 89 85 d0 f9 ff ff 	mov    %rax,-0x630(%rbp)
    68d6:	48 8d 85 50 ee ff ff 	lea    -0x11b0(%rbp),%rax
    68dd:	48 89 85 d8 f9 ff ff 	mov    %rax,-0x628(%rbp)
    68e4:	48 c7 85 e0 f9 ff ff 	movq   $0x0,-0x620(%rbp)
    68eb:	00 00 00 00 
    68ef:	48 8d 85 50 ee ff ff 	lea    -0x11b0(%rbp),%rax
    68f6:	48 89 85 e8 f9 ff ff 	mov    %rax,-0x618(%rbp)
    68fd:	48 8d 85 50 ee ff ff 	lea    -0x11b0(%rbp),%rax
    6904:	48 89 85 f0 f9 ff ff 	mov    %rax,-0x610(%rbp)
    690b:	48 8d 85 50 ee ff ff 	lea    -0x11b0(%rbp),%rax
    6912:	48 89 85 f8 f9 ff ff 	mov    %rax,-0x608(%rbp)
    6919:	48 8d 85 50 ee ff ff 	lea    -0x11b0(%rbp),%rax
    6920:	48 89 85 00 fa ff ff 	mov    %rax,-0x600(%rbp)
    6927:	48 8d 85 50 ee ff ff 	lea    -0x11b0(%rbp),%rax
    692e:	48 89 85 08 fa ff ff 	mov    %rax,-0x5f8(%rbp)
    6935:	48 8d 85 50 ee ff ff 	lea    -0x11b0(%rbp),%rax
    693c:	48 89 85 10 fa ff ff 	mov    %rax,-0x5f0(%rbp)
    6943:	48 8d 85 50 ee ff ff 	lea    -0x11b0(%rbp),%rax
    694a:	48 89 85 18 fa ff ff 	mov    %rax,-0x5e8(%rbp)
    6951:	48 8d 85 50 ee ff ff 	lea    -0x11b0(%rbp),%rax
    6958:	48 89 85 20 fa ff ff 	mov    %rax,-0x5e0(%rbp)
    695f:	48 8d 85 50 ee ff ff 	lea    -0x11b0(%rbp),%rax
    6966:	48 89 85 28 fa ff ff 	mov    %rax,-0x5d8(%rbp)
    696d:	48 c7 85 30 fa ff ff 	movq   $0x0,-0x5d0(%rbp)
    6974:	00 00 00 00 
    6978:	48 c7 85 38 fa ff ff 	movq   $0x0,-0x5c8(%rbp)
    697f:	00 00 00 00 
    6983:	48 8d 85 50 ee ff ff 	lea    -0x11b0(%rbp),%rax
    698a:	48 89 85 40 fa ff ff 	mov    %rax,-0x5c0(%rbp)
    6991:	48 c7 85 48 fa ff ff 	movq   $0x0,-0x5b8(%rbp)
    6998:	00 00 00 00 
    699c:	48 c7 85 50 fa ff ff 	movq   $0x0,-0x5b0(%rbp)
    69a3:	00 00 00 00 
    69a7:	48 8d 85 50 ee ff ff 	lea    -0x11b0(%rbp),%rax
    69ae:	48 89 85 58 fa ff ff 	mov    %rax,-0x5a8(%rbp)
    69b5:	48 c7 85 60 fa ff ff 	movq   $0x0,-0x5a0(%rbp)
    69bc:	00 00 00 00 
    69c0:	48 8d 85 50 ee ff ff 	lea    -0x11b0(%rbp),%rax
    69c7:	48 89 85 68 fa ff ff 	mov    %rax,-0x598(%rbp)
    69ce:	48 8d 85 50 ee ff ff 	lea    -0x11b0(%rbp),%rax
    69d5:	48 89 85 70 fa ff ff 	mov    %rax,-0x590(%rbp)
    69dc:	48 8d 85 50 ee ff ff 	lea    -0x11b0(%rbp),%rax
    69e3:	48 89 85 78 fa ff ff 	mov    %rax,-0x588(%rbp)
    69ea:	48 8d 85 50 ee ff ff 	lea    -0x11b0(%rbp),%rax
    69f1:	48 89 85 80 fa ff ff 	mov    %rax,-0x580(%rbp)
    69f8:	48 c7 85 88 fa ff ff 	movq   $0x0,-0x578(%rbp)
    69ff:	00 00 00 00 
    6a03:	48 8d 85 50 ee ff ff 	lea    -0x11b0(%rbp),%rax
    6a0a:	48 89 85 90 fa ff ff 	mov    %rax,-0x570(%rbp)
    6a11:	48 c7 85 98 fa ff ff 	movq   $0x0,-0x568(%rbp)
    6a18:	00 00 00 00 
    6a1c:	48 c7 85 a0 fa ff ff 	movq   $0x0,-0x560(%rbp)
    6a23:	00 00 00 00 
    6a27:	48 8d 85 50 ee ff ff 	lea    -0x11b0(%rbp),%rax
    6a2e:	48 89 85 a8 fa ff ff 	mov    %rax,-0x558(%rbp)
    6a35:	48 c7 85 b0 fa ff ff 	movq   $0x0,-0x550(%rbp)
    6a3c:	00 00 00 00 
    6a40:	48 c7 85 b8 fa ff ff 	movq   $0x0,-0x548(%rbp)
    6a47:	00 00 00 00 
    6a4b:	48 8d 85 50 ee ff ff 	lea    -0x11b0(%rbp),%rax
    6a52:	48 89 85 c0 fa ff ff 	mov    %rax,-0x540(%rbp)
    6a59:	48 8d 85 50 ee ff ff 	lea    -0x11b0(%rbp),%rax
    6a60:	48 89 85 c8 fa ff ff 	mov    %rax,-0x538(%rbp)
    6a67:	48 8d 85 50 ee ff ff 	lea    -0x11b0(%rbp),%rax
    6a6e:	48 89 85 d0 fa ff ff 	mov    %rax,-0x530(%rbp)
    6a75:	48 8d 85 50 ee ff ff 	lea    -0x11b0(%rbp),%rax
    6a7c:	48 89 85 d8 fa ff ff 	mov    %rax,-0x528(%rbp)
    6a83:	48 8d 85 50 ee ff ff 	lea    -0x11b0(%rbp),%rax
    6a8a:	48 89 85 e0 fa ff ff 	mov    %rax,-0x520(%rbp)
    6a91:	48 8d 85 50 ee ff ff 	lea    -0x11b0(%rbp),%rax
    6a98:	48 89 85 e8 fa ff ff 	mov    %rax,-0x518(%rbp)
    6a9f:	48 8d 85 50 ee ff ff 	lea    -0x11b0(%rbp),%rax
    6aa6:	48 89 85 f0 fa ff ff 	mov    %rax,-0x510(%rbp)
    6aad:	48 8d 85 50 ee ff ff 	lea    -0x11b0(%rbp),%rax
    6ab4:	48 89 85 f8 fa ff ff 	mov    %rax,-0x508(%rbp)
    6abb:	48 8d 85 50 ee ff ff 	lea    -0x11b0(%rbp),%rax
    6ac2:	48 89 85 00 fb ff ff 	mov    %rax,-0x500(%rbp)
    6ac9:	48 c7 85 08 fb ff ff 	movq   $0x0,-0x4f8(%rbp)
    6ad0:	00 00 00 00 
    6ad4:	48 8d 85 50 ee ff ff 	lea    -0x11b0(%rbp),%rax
    6adb:	48 89 85 10 fb ff ff 	mov    %rax,-0x4f0(%rbp)
    6ae2:	48 8d 85 50 ee ff ff 	lea    -0x11b0(%rbp),%rax
    6ae9:	48 89 85 18 fb ff ff 	mov    %rax,-0x4e8(%rbp)
    6af0:	48 8d 85 50 ee ff ff 	lea    -0x11b0(%rbp),%rax
    6af7:	48 89 85 20 fb ff ff 	mov    %rax,-0x4e0(%rbp)
    6afe:	48 8d 85 50 ee ff ff 	lea    -0x11b0(%rbp),%rax
    6b05:	48 89 85 28 fb ff ff 	mov    %rax,-0x4d8(%rbp)
    6b0c:	48 8d 85 50 ee ff ff 	lea    -0x11b0(%rbp),%rax
    6b13:	48 89 85 30 fb ff ff 	mov    %rax,-0x4d0(%rbp)
    6b1a:	48 c7 85 38 fb ff ff 	movq   $0x0,-0x4c8(%rbp)
    6b21:	00 00 00 00 
    6b25:	48 8d 85 50 ee ff ff 	lea    -0x11b0(%rbp),%rax
    6b2c:	48 89 85 40 fb ff ff 	mov    %rax,-0x4c0(%rbp)
    6b33:	48 c7 85 48 fb ff ff 	movq   $0x0,-0x4b8(%rbp)
    6b3a:	00 00 00 00 
    6b3e:	48 c7 85 50 fb ff ff 	movq   $0x0,-0x4b0(%rbp)
    6b45:	00 00 00 00 
    6b49:	48 8d 85 50 ee ff ff 	lea    -0x11b0(%rbp),%rax
    6b50:	48 89 85 58 fb ff ff 	mov    %rax,-0x4a8(%rbp)
    6b57:	48 c7 85 60 fb ff ff 	movq   $0x0,-0x4a0(%rbp)
    6b5e:	00 00 00 00 
    6b62:	48 c7 85 68 fb ff ff 	movq   $0x0,-0x498(%rbp)
    6b69:	00 00 00 00 
    6b6d:	48 8d 85 50 ee ff ff 	lea    -0x11b0(%rbp),%rax
    6b74:	48 89 85 70 fb ff ff 	mov    %rax,-0x490(%rbp)
    6b7b:	48 8d 85 50 ee ff ff 	lea    -0x11b0(%rbp),%rax
    6b82:	48 89 85 78 fb ff ff 	mov    %rax,-0x488(%rbp)
    6b89:	48 8d 85 50 ee ff ff 	lea    -0x11b0(%rbp),%rax
    6b90:	48 89 85 80 fb ff ff 	mov    %rax,-0x480(%rbp)
    6b97:	48 8d 85 50 ee ff ff 	lea    -0x11b0(%rbp),%rax
    6b9e:	48 89 85 88 fb ff ff 	mov    %rax,-0x478(%rbp)
    6ba5:	48 8d 85 50 ee ff ff 	lea    -0x11b0(%rbp),%rax
    6bac:	48 89 85 90 fb ff ff 	mov    %rax,-0x470(%rbp)
    6bb3:	48 8d 85 50 ee ff ff 	lea    -0x11b0(%rbp),%rax
    6bba:	48 89 85 98 fb ff ff 	mov    %rax,-0x468(%rbp)
    6bc1:	48 c7 85 a0 fb ff ff 	movq   $0x0,-0x460(%rbp)
    6bc8:	00 00 00 00 
    6bcc:	48 8d 85 50 ee ff ff 	lea    -0x11b0(%rbp),%rax
    6bd3:	48 89 85 a8 fb ff ff 	mov    %rax,-0x458(%rbp)
    6bda:	48 8d 85 50 ee ff ff 	lea    -0x11b0(%rbp),%rax
    6be1:	48 89 85 b0 fb ff ff 	mov    %rax,-0x450(%rbp)
    6be8:	48 c7 85 b8 fb ff ff 	movq   $0x0,-0x448(%rbp)
    6bef:	00 00 00 00 
    6bf3:	48 c7 85 c0 fb ff ff 	movq   $0x0,-0x440(%rbp)
    6bfa:	00 00 00 00 
    6bfe:	48 c7 85 c8 fb ff ff 	movq   $0x0,-0x438(%rbp)
    6c05:	00 00 00 00 
    6c09:	48 8d 85 50 ee ff ff 	lea    -0x11b0(%rbp),%rax
    6c10:	48 89 85 d0 fb ff ff 	mov    %rax,-0x430(%rbp)
    6c17:	48 8d 85 50 ee ff ff 	lea    -0x11b0(%rbp),%rax
    6c1e:	48 89 85 d8 fb ff ff 	mov    %rax,-0x428(%rbp)
    6c25:	48 8d 85 50 ee ff ff 	lea    -0x11b0(%rbp),%rax
    6c2c:	48 89 85 e0 fb ff ff 	mov    %rax,-0x420(%rbp)
    6c33:	48 8d 85 50 ee ff ff 	lea    -0x11b0(%rbp),%rax
    6c3a:	48 89 85 e8 fb ff ff 	mov    %rax,-0x418(%rbp)
    6c41:	48 8d 85 50 ee ff ff 	lea    -0x11b0(%rbp),%rax
    6c48:	48 89 85 f0 fb ff ff 	mov    %rax,-0x410(%rbp)
    6c4f:	48 8d 85 50 ee ff ff 	lea    -0x11b0(%rbp),%rax
    6c56:	48 89 85 f8 fb ff ff 	mov    %rax,-0x408(%rbp)
    6c5d:	48 c7 85 00 fc ff ff 	movq   $0x0,-0x400(%rbp)
    6c64:	00 00 00 00 
    6c68:	48 c7 85 08 fc ff ff 	movq   $0x0,-0x3f8(%rbp)
    6c6f:	00 00 00 00 
    6c73:	48 8d 85 50 ee ff ff 	lea    -0x11b0(%rbp),%rax
    6c7a:	48 89 85 10 fc ff ff 	mov    %rax,-0x3f0(%rbp)
    6c81:	48 c7 85 18 fc ff ff 	movq   $0x0,-0x3e8(%rbp)
    6c88:	00 00 00 00 
    6c8c:	48 8d 85 50 ee ff ff 	lea    -0x11b0(%rbp),%rax
    6c93:	48 89 85 20 fc ff ff 	mov    %rax,-0x3e0(%rbp)
    6c9a:	48 8d 85 50 ee ff ff 	lea    -0x11b0(%rbp),%rax
    6ca1:	48 89 85 28 fc ff ff 	mov    %rax,-0x3d8(%rbp)
    6ca8:	48 8d 85 50 ee ff ff 	lea    -0x11b0(%rbp),%rax
    6caf:	48 89 85 30 fc ff ff 	mov    %rax,-0x3d0(%rbp)
    6cb6:	48 8d 85 50 ee ff ff 	lea    -0x11b0(%rbp),%rax
    6cbd:	48 89 85 38 fc ff ff 	mov    %rax,-0x3c8(%rbp)
    6cc4:	48 8d 85 50 ee ff ff 	lea    -0x11b0(%rbp),%rax
    6ccb:	48 89 85 40 fc ff ff 	mov    %rax,-0x3c0(%rbp)
    6cd2:	48 8d 85 50 ee ff ff 	lea    -0x11b0(%rbp),%rax
    6cd9:	48 89 85 48 fc ff ff 	mov    %rax,-0x3b8(%rbp)
    6ce0:	48 c7 85 50 fc ff ff 	movq   $0x0,-0x3b0(%rbp)
    6ce7:	00 00 00 00 
    6ceb:	48 8d 85 50 ee ff ff 	lea    -0x11b0(%rbp),%rax
    6cf2:	48 89 85 58 fc ff ff 	mov    %rax,-0x3a8(%rbp)
    6cf9:	48 8d 85 50 ee ff ff 	lea    -0x11b0(%rbp),%rax
    6d00:	48 89 85 60 fc ff ff 	mov    %rax,-0x3a0(%rbp)
    6d07:	48 8d 85 50 ee ff ff 	lea    -0x11b0(%rbp),%rax
    6d0e:	48 89 85 68 fc ff ff 	mov    %rax,-0x398(%rbp)
    6d15:	48 8d 85 50 ee ff ff 	lea    -0x11b0(%rbp),%rax
    6d1c:	48 89 85 70 fc ff ff 	mov    %rax,-0x390(%rbp)
    6d23:	48 8d 85 50 ee ff ff 	lea    -0x11b0(%rbp),%rax
    6d2a:	48 89 85 78 fc ff ff 	mov    %rax,-0x388(%rbp)
    6d31:	48 8d 85 50 ee ff ff 	lea    -0x11b0(%rbp),%rax
    6d38:	48 89 85 80 fc ff ff 	mov    %rax,-0x380(%rbp)
    6d3f:	48 c7 85 88 fc ff ff 	movq   $0x0,-0x378(%rbp)
    6d46:	00 00 00 00 
    6d4a:	48 8d 85 50 ee ff ff 	lea    -0x11b0(%rbp),%rax
    6d51:	48 89 85 90 fc ff ff 	mov    %rax,-0x370(%rbp)
    6d58:	48 c7 85 98 fc ff ff 	movq   $0x0,-0x368(%rbp)
    6d5f:	00 00 00 00 
    6d63:	48 8d 85 50 ee ff ff 	lea    -0x11b0(%rbp),%rax
    6d6a:	48 89 85 a0 fc ff ff 	mov    %rax,-0x360(%rbp)
    6d71:	48 8d 85 50 ee ff ff 	lea    -0x11b0(%rbp),%rax
    6d78:	48 89 85 a8 fc ff ff 	mov    %rax,-0x358(%rbp)
    6d7f:	48 8d 85 50 ee ff ff 	lea    -0x11b0(%rbp),%rax
    6d86:	48 89 85 b0 fc ff ff 	mov    %rax,-0x350(%rbp)
    6d8d:	48 8d 85 50 ee ff ff 	lea    -0x11b0(%rbp),%rax
    6d94:	48 89 85 b8 fc ff ff 	mov    %rax,-0x348(%rbp)
    6d9b:	48 8d 85 50 ee ff ff 	lea    -0x11b0(%rbp),%rax
    6da2:	48 89 85 c0 fc ff ff 	mov    %rax,-0x340(%rbp)
    6da9:	48 8d 85 50 ee ff ff 	lea    -0x11b0(%rbp),%rax
    6db0:	48 89 85 c8 fc ff ff 	mov    %rax,-0x338(%rbp)
    6db7:	48 c7 85 d0 fc ff ff 	movq   $0x0,-0x330(%rbp)
    6dbe:	00 00 00 00 
    6dc2:	48 8d 85 50 ee ff ff 	lea    -0x11b0(%rbp),%rax
    6dc9:	48 89 85 d8 fc ff ff 	mov    %rax,-0x328(%rbp)
    6dd0:	48 8d 85 50 ee ff ff 	lea    -0x11b0(%rbp),%rax
    6dd7:	48 89 85 e0 fc ff ff 	mov    %rax,-0x320(%rbp)
    6dde:	48 c7 85 e8 fc ff ff 	movq   $0x0,-0x318(%rbp)
    6de5:	00 00 00 00 
    6de9:	48 8d 85 50 ee ff ff 	lea    -0x11b0(%rbp),%rax
    6df0:	48 89 85 f0 fc ff ff 	mov    %rax,-0x310(%rbp)
    6df7:	48 8d 85 50 ee ff ff 	lea    -0x11b0(%rbp),%rax
    6dfe:	48 89 85 f8 fc ff ff 	mov    %rax,-0x308(%rbp)
    6e05:	48 c7 85 00 fd ff ff 	movq   $0x0,-0x300(%rbp)
    6e0c:	00 00 00 00 
    6e10:	48 c7 85 08 fd ff ff 	movq   $0x0,-0x2f8(%rbp)
    6e17:	00 00 00 00 
    6e1b:	48 c7 85 10 fd ff ff 	movq   $0x0,-0x2f0(%rbp)
    6e22:	00 00 00 00 
    6e26:	48 c7 85 18 fd ff ff 	movq   $0x0,-0x2e8(%rbp)
    6e2d:	00 00 00 00 
    6e31:	48 c7 85 20 fd ff ff 	movq   $0x0,-0x2e0(%rbp)
    6e38:	00 00 00 00 
    6e3c:	48 8d 85 50 ee ff ff 	lea    -0x11b0(%rbp),%rax
    6e43:	48 89 85 28 fd ff ff 	mov    %rax,-0x2d8(%rbp)
    6e4a:	48 8d 85 50 ee ff ff 	lea    -0x11b0(%rbp),%rax
    6e51:	48 89 85 30 fd ff ff 	mov    %rax,-0x2d0(%rbp)
    6e58:	48 8d 85 50 ee ff ff 	lea    -0x11b0(%rbp),%rax
    6e5f:	48 89 85 38 fd ff ff 	mov    %rax,-0x2c8(%rbp)
    6e66:	48 8d 85 50 ee ff ff 	lea    -0x11b0(%rbp),%rax
    6e6d:	48 89 85 40 fd ff ff 	mov    %rax,-0x2c0(%rbp)
    6e74:	48 8d 85 50 ee ff ff 	lea    -0x11b0(%rbp),%rax
    6e7b:	48 89 85 48 fd ff ff 	mov    %rax,-0x2b8(%rbp)
    6e82:	48 8d 85 50 ee ff ff 	lea    -0x11b0(%rbp),%rax
    6e89:	48 89 85 50 fd ff ff 	mov    %rax,-0x2b0(%rbp)
    6e90:	48 c7 85 58 fd ff ff 	movq   $0x0,-0x2a8(%rbp)
    6e97:	00 00 00 00 
    6e9b:	48 c7 85 60 fd ff ff 	movq   $0x0,-0x2a0(%rbp)
    6ea2:	00 00 00 00 
    6ea6:	48 c7 85 68 fd ff ff 	movq   $0x0,-0x298(%rbp)
    6ead:	00 00 00 00 
    6eb1:	48 8d 85 50 ee ff ff 	lea    -0x11b0(%rbp),%rax
    6eb8:	48 89 85 70 fd ff ff 	mov    %rax,-0x290(%rbp)
    6ebf:	48 8d 85 50 ee ff ff 	lea    -0x11b0(%rbp),%rax
    6ec6:	48 89 85 78 fd ff ff 	mov    %rax,-0x288(%rbp)
    6ecd:	48 c7 85 80 fd ff ff 	movq   $0x0,-0x280(%rbp)
    6ed4:	00 00 00 00 
    6ed8:	48 8d 85 50 ee ff ff 	lea    -0x11b0(%rbp),%rax
    6edf:	48 89 85 88 fd ff ff 	mov    %rax,-0x278(%rbp)
    6ee6:	48 8d 85 50 ee ff ff 	lea    -0x11b0(%rbp),%rax
    6eed:	48 89 85 90 fd ff ff 	mov    %rax,-0x270(%rbp)
    6ef4:	48 8d 85 50 ee ff ff 	lea    -0x11b0(%rbp),%rax
    6efb:	48 89 85 98 fd ff ff 	mov    %rax,-0x268(%rbp)
    6f02:	48 8d 85 50 ee ff ff 	lea    -0x11b0(%rbp),%rax
    6f09:	48 89 85 a0 fd ff ff 	mov    %rax,-0x260(%rbp)
    6f10:	48 8d 85 50 ee ff ff 	lea    -0x11b0(%rbp),%rax
    6f17:	48 89 85 a8 fd ff ff 	mov    %rax,-0x258(%rbp)
    6f1e:	48 8d 85 50 ee ff ff 	lea    -0x11b0(%rbp),%rax
    6f25:	48 89 85 b0 fd ff ff 	mov    %rax,-0x250(%rbp)
    6f2c:	48 c7 85 b8 fd ff ff 	movq   $0x0,-0x248(%rbp)
    6f33:	00 00 00 00 
    6f37:	48 c7 85 c0 fd ff ff 	movq   $0x0,-0x240(%rbp)
    6f3e:	00 00 00 00 
    6f42:	48 8d 85 50 ee ff ff 	lea    -0x11b0(%rbp),%rax
    6f49:	48 89 85 c8 fd ff ff 	mov    %rax,-0x238(%rbp)
    6f50:	48 c7 85 d0 fd ff ff 	movq   $0x0,-0x230(%rbp)
    6f57:	00 00 00 00 
    6f5b:	48 8d 85 50 ee ff ff 	lea    -0x11b0(%rbp),%rax
    6f62:	48 89 85 d8 fd ff ff 	mov    %rax,-0x228(%rbp)
    6f69:	48 8d 85 50 ee ff ff 	lea    -0x11b0(%rbp),%rax
    6f70:	48 89 85 e0 fd ff ff 	mov    %rax,-0x220(%rbp)
    6f77:	48 c7 85 e8 fd ff ff 	movq   $0x0,-0x218(%rbp)
    6f7e:	00 00 00 00 
    6f82:	48 8d 85 50 ee ff ff 	lea    -0x11b0(%rbp),%rax
    6f89:	48 89 85 f0 fd ff ff 	mov    %rax,-0x210(%rbp)
    6f90:	48 8d 85 50 ee ff ff 	lea    -0x11b0(%rbp),%rax
    6f97:	48 89 85 f8 fd ff ff 	mov    %rax,-0x208(%rbp)
    6f9e:	48 8d 85 50 ee ff ff 	lea    -0x11b0(%rbp),%rax
    6fa5:	48 89 85 00 fe ff ff 	mov    %rax,-0x200(%rbp)
    6fac:	48 8d 85 50 ee ff ff 	lea    -0x11b0(%rbp),%rax
    6fb3:	48 89 85 08 fe ff ff 	mov    %rax,-0x1f8(%rbp)
    6fba:	48 8d 85 50 ee ff ff 	lea    -0x11b0(%rbp),%rax
    6fc1:	48 89 85 10 fe ff ff 	mov    %rax,-0x1f0(%rbp)
    6fc8:	48 c7 85 18 fe ff ff 	movq   $0x0,-0x1e8(%rbp)
    6fcf:	00 00 00 00 
    6fd3:	48 8d 85 50 ee ff ff 	lea    -0x11b0(%rbp),%rax
    6fda:	48 89 85 20 fe ff ff 	mov    %rax,-0x1e0(%rbp)
    6fe1:	48 8d 85 50 ee ff ff 	lea    -0x11b0(%rbp),%rax
    6fe8:	48 89 85 28 fe ff ff 	mov    %rax,-0x1d8(%rbp)
    6fef:	48 8d 85 50 ee ff ff 	lea    -0x11b0(%rbp),%rax
    6ff6:	48 89 85 30 fe ff ff 	mov    %rax,-0x1d0(%rbp)
    6ffd:	48 8d 85 50 ee ff ff 	lea    -0x11b0(%rbp),%rax
    7004:	48 89 85 38 fe ff ff 	mov    %rax,-0x1c8(%rbp)
    700b:	48 8d 85 50 ee ff ff 	lea    -0x11b0(%rbp),%rax
    7012:	48 89 85 40 fe ff ff 	mov    %rax,-0x1c0(%rbp)
    7019:	48 8d 85 50 ee ff ff 	lea    -0x11b0(%rbp),%rax
    7020:	48 89 85 48 fe ff ff 	mov    %rax,-0x1b8(%rbp)
    7027:	48 8d 85 50 ee ff ff 	lea    -0x11b0(%rbp),%rax
    702e:	48 89 85 50 fe ff ff 	mov    %rax,-0x1b0(%rbp)
    7035:	48 8d 85 50 ee ff ff 	lea    -0x11b0(%rbp),%rax
    703c:	48 89 85 58 fe ff ff 	mov    %rax,-0x1a8(%rbp)
    7043:	48 8d 85 50 ee ff ff 	lea    -0x11b0(%rbp),%rax
    704a:	48 89 85 60 fe ff ff 	mov    %rax,-0x1a0(%rbp)
    7051:	48 c7 85 68 fe ff ff 	movq   $0x0,-0x198(%rbp)
    7058:	00 00 00 00 
    705c:	48 c7 85 70 fe ff ff 	movq   $0x0,-0x190(%rbp)
    7063:	00 00 00 00 
    7067:	48 8d 85 50 ee ff ff 	lea    -0x11b0(%rbp),%rax
    706e:	48 89 85 78 fe ff ff 	mov    %rax,-0x188(%rbp)
    7075:	48 c7 85 80 fe ff ff 	movq   $0x0,-0x180(%rbp)
    707c:	00 00 00 00 
    7080:	48 c7 85 88 fe ff ff 	movq   $0x0,-0x178(%rbp)
    7087:	00 00 00 00 
    708b:	48 8d 85 50 ee ff ff 	lea    -0x11b0(%rbp),%rax
    7092:	48 89 85 90 fe ff ff 	mov    %rax,-0x170(%rbp)
    7099:	48 c7 85 98 fe ff ff 	movq   $0x0,-0x168(%rbp)
    70a0:	00 00 00 00 
    70a4:	48 8d 85 50 ee ff ff 	lea    -0x11b0(%rbp),%rax
    70ab:	48 89 85 a0 fe ff ff 	mov    %rax,-0x160(%rbp)
    70b2:	48 8d 85 50 ee ff ff 	lea    -0x11b0(%rbp),%rax
    70b9:	48 89 85 a8 fe ff ff 	mov    %rax,-0x158(%rbp)
    70c0:	48 8d 85 50 ee ff ff 	lea    -0x11b0(%rbp),%rax
    70c7:	48 89 85 b0 fe ff ff 	mov    %rax,-0x150(%rbp)
    70ce:	48 8d 85 50 ee ff ff 	lea    -0x11b0(%rbp),%rax
    70d5:	48 89 85 b8 fe ff ff 	mov    %rax,-0x148(%rbp)
    70dc:	48 c7 85 c0 fe ff ff 	movq   $0x0,-0x140(%rbp)
    70e3:	00 00 00 00 
    70e7:	48 8d 85 50 ee ff ff 	lea    -0x11b0(%rbp),%rax
    70ee:	48 89 85 c8 fe ff ff 	mov    %rax,-0x138(%rbp)
    70f5:	48 c7 85 d0 fe ff ff 	movq   $0x0,-0x130(%rbp)
    70fc:	00 00 00 00 
    7100:	48 c7 85 d8 fe ff ff 	movq   $0x0,-0x128(%rbp)
    7107:	00 00 00 00 
    710b:	48 8d 85 50 ee ff ff 	lea    -0x11b0(%rbp),%rax
    7112:	48 89 85 e0 fe ff ff 	mov    %rax,-0x120(%rbp)
    7119:	48 c7 85 e8 fe ff ff 	movq   $0x0,-0x118(%rbp)
    7120:	00 00 00 00 
    7124:	48 c7 85 f0 fe ff ff 	movq   $0x0,-0x110(%rbp)
    712b:	00 00 00 00 
    712f:	48 8d 85 50 ee ff ff 	lea    -0x11b0(%rbp),%rax
    7136:	48 89 85 f8 fe ff ff 	mov    %rax,-0x108(%rbp)
    713d:	48 8d 85 50 ee ff ff 	lea    -0x11b0(%rbp),%rax
    7144:	48 89 85 00 ff ff ff 	mov    %rax,-0x100(%rbp)
    714b:	48 8d 85 50 ee ff ff 	lea    -0x11b0(%rbp),%rax
    7152:	48 89 85 08 ff ff ff 	mov    %rax,-0xf8(%rbp)
    7159:	48 8d 85 50 ee ff ff 	lea    -0x11b0(%rbp),%rax
    7160:	48 89 85 10 ff ff ff 	mov    %rax,-0xf0(%rbp)
    7167:	48 8d 85 50 ee ff ff 	lea    -0x11b0(%rbp),%rax
    716e:	48 89 85 18 ff ff ff 	mov    %rax,-0xe8(%rbp)
    7175:	48 8d 85 50 ee ff ff 	lea    -0x11b0(%rbp),%rax
    717c:	48 89 85 20 ff ff ff 	mov    %rax,-0xe0(%rbp)
    7183:	48 8d 85 50 ee ff ff 	lea    -0x11b0(%rbp),%rax
    718a:	48 89 85 28 ff ff ff 	mov    %rax,-0xd8(%rbp)
    7191:	48 8d 85 50 ee ff ff 	lea    -0x11b0(%rbp),%rax
    7198:	48 89 85 30 ff ff ff 	mov    %rax,-0xd0(%rbp)
    719f:	48 8d 85 50 ee ff ff 	lea    -0x11b0(%rbp),%rax
    71a6:	48 89 85 38 ff ff ff 	mov    %rax,-0xc8(%rbp)
    71ad:	48 c7 85 40 ff ff ff 	movq   $0x0,-0xc0(%rbp)
    71b4:	00 00 00 00 
    71b8:	48 8d 85 50 ee ff ff 	lea    -0x11b0(%rbp),%rax
    71bf:	48 89 85 48 ff ff ff 	mov    %rax,-0xb8(%rbp)
    71c6:	48 8d 85 50 ee ff ff 	lea    -0x11b0(%rbp),%rax
    71cd:	48 89 85 50 ff ff ff 	mov    %rax,-0xb0(%rbp)
    71d4:	48 8d 85 50 ee ff ff 	lea    -0x11b0(%rbp),%rax
    71db:	48 89 85 58 ff ff ff 	mov    %rax,-0xa8(%rbp)
    71e2:	48 8d 85 50 ee ff ff 	lea    -0x11b0(%rbp),%rax
    71e9:	48 89 85 60 ff ff ff 	mov    %rax,-0xa0(%rbp)
    71f0:	48 8d 85 50 ee ff ff 	lea    -0x11b0(%rbp),%rax
    71f7:	48 89 85 68 ff ff ff 	mov    %rax,-0x98(%rbp)
    71fe:	48 c7 85 70 ff ff ff 	movq   $0x0,-0x90(%rbp)
    7205:	00 00 00 00 
    7209:	48 8d 85 50 ee ff ff 	lea    -0x11b0(%rbp),%rax
    7210:	48 89 85 78 ff ff ff 	mov    %rax,-0x88(%rbp)
    7217:	48 c7 45 80 00 00 00 	movq   $0x0,-0x80(%rbp)
    721e:	00 
    721f:	48 c7 45 88 00 00 00 	movq   $0x0,-0x78(%rbp)
    7226:	00 
    7227:	48 8d 85 50 ee ff ff 	lea    -0x11b0(%rbp),%rax
    722e:	48 89 45 90          	mov    %rax,-0x70(%rbp)
    7232:	48 c7 45 98 00 00 00 	movq   $0x0,-0x68(%rbp)
    7239:	00 
    723a:	48 c7 45 a0 00 00 00 	movq   $0x0,-0x60(%rbp)
    7241:	00 
    7242:	48 8d 85 50 ee ff ff 	lea    -0x11b0(%rbp),%rax
    7249:	48 89 45 a8          	mov    %rax,-0x58(%rbp)
    724d:	48 8d 85 50 ee ff ff 	lea    -0x11b0(%rbp),%rax
    7254:	48 89 45 b0          	mov    %rax,-0x50(%rbp)
    7258:	48 8d 85 50 ee ff ff 	lea    -0x11b0(%rbp),%rax
    725f:	48 89 45 b8          	mov    %rax,-0x48(%rbp)
    7263:	48 8d 85 50 ee ff ff 	lea    -0x11b0(%rbp),%rax
    726a:	48 89 45 c0          	mov    %rax,-0x40(%rbp)
    726e:	48 8d 85 50 ee ff ff 	lea    -0x11b0(%rbp),%rax
    7275:	48 89 45 c8          	mov    %rax,-0x38(%rbp)
    7279:	48 8d 85 00 f8 ff ff 	lea    -0x800(%rbp),%rax
    7280:	48 05 e0 00 00 00    	add    $0xe0,%rax
    7286:	48 89 85 98 ef ff ff 	mov    %rax,-0x1068(%rbp)
    728d:	48 c7 85 a0 ef ff ff 	movq   $0x0,-0x1060(%rbp)
    7294:	00 00 00 00 
    7298:	48 8d 85 a0 f0 ff ff 	lea    -0xf60(%rbp),%rax
    729f:	48 89 85 a8 ef ff ff 	mov    %rax,-0x1058(%rbp)
    72a6:	c7 85 70 ed ff ff 00 	movl   $0x0,-0x1290(%rbp)
    72ad:	00 00 00 
    72b0:	eb 1e                	jmp    72d0 <func_25+0x115f>
    72b2:	8b 85 70 ed ff ff    	mov    -0x1290(%rbp),%eax
    72b8:	48 98                	cltq   
    72ba:	48 8d 95 48 ed ff ff 	lea    -0x12b8(%rbp),%rdx
    72c1:	48 89 94 c5 a0 f0 ff 	mov    %rdx,-0xf60(%rbp,%rax,8)
    72c8:	ff 
    72c9:	83 85 70 ed ff ff 01 	addl   $0x1,-0x1290(%rbp)
    72d0:	83 bd 70 ed ff ff 02 	cmpl   $0x2,-0x1290(%rbp)
    72d7:	7e d9                	jle    72b2 <func_25+0x1141>
    72d9:	0f b7 05 4c bd 00 00 	movzwl 0xbd4c(%rip),%eax        # 1302c <g_72>
    72e0:	83 e8 01             	sub    $0x1,%eax
    72e3:	66 89 05 42 bd 00 00 	mov    %ax,0xbd42(%rip)        # 1302c <g_72>
    72ea:	0f b7 05 3b bd 00 00 	movzwl 0xbd3b(%rip),%eax        # 1302c <g_72>
    72f1:	66 85 c0             	test   %ax,%ax
    72f4:	0f 89 4c f2 ff ff    	jns    6546 <func_25+0x3d5>
    72fa:	48 8b 85 68 ee ff ff 	mov    -0x1198(%rbp),%rax
    7301:	48 c7 00 00 00 00 00 	movq   $0x0,(%rax)
    7308:	48 8b 85 28 ed ff ff 	mov    -0x12d8(%rbp),%rax
    730f:	0f b6 00             	movzbl (%rax),%eax
    7312:	0f b6 d8             	movzbl %al,%ebx
    7315:	48 8b 85 00 ee ff ff 	mov    -0x1200(%rbp),%rax
    731c:	48 85 c0             	test   %rax,%rax
    731f:	75 6e                	jne    738f <func_25+0x121e>
    7321:	44 8b a5 20 ed ff ff 	mov    -0x12e0(%rbp),%r12d
    7328:	0f b7 85 24 ed ff ff 	movzwl -0x12dc(%rbp),%eax
    732f:	0f b7 c0             	movzwl %ax,%eax
    7332:	be 0b 00 00 00       	mov    $0xb,%esi
    7337:	89 c7                	mov    %eax,%edi
    7339:	e8 0a cb ff ff       	callq  3e48 <safe_rshift_func_uint16_t_u_s>
    733e:	44 89 e6             	mov    %r12d,%esi
    7341:	bf 00 00 00 00       	mov    $0x0,%edi
    7346:	e8 ba c2 ff ff       	callq  3605 <safe_sub_func_int32_t_s_s>
    734b:	89 c2                	mov    %eax,%edx
    734d:	48 83 bd 48 ef ff ff 	cmpq   $0x0,-0x10b8(%rbp)
    7354:	00 
    7355:	75 1d                	jne    7374 <func_25+0x1203>
    7357:	48 8b 85 48 ef ff ff 	mov    -0x10b8(%rbp),%rax
    735e:	48 8b 00             	mov    (%rax),%rax
    7361:	48 8b 00             	mov    (%rax),%rax
    7364:	48 8b 00             	mov    (%rax),%rax
    7367:	8b 00                	mov    (%rax),%eax
    7369:	85 c0                	test   %eax,%eax
    736b:	74 07                	je     7374 <func_25+0x1203>
    736d:	b8 01 00 00 00       	mov    $0x1,%eax
    7372:	eb 05                	jmp    7379 <func_25+0x1208>
    7374:	b8 00 00 00 00       	mov    $0x0,%eax
    7379:	89 d6                	mov    %edx,%esi
    737b:	89 c7                	mov    %eax,%edi
    737d:	e8 4a c3 ff ff       	callq  36cc <safe_mod_func_int32_t_s_s>
    7382:	be fc ff ff ff       	mov    $0xfffffffc,%esi
    7387:	89 c7                	mov    %eax,%edi
    7389:	e8 3e c3 ff ff       	callq  36cc <safe_mod_func_int32_t_s_s>
    738e:	90                   	nop
    738f:	89 de                	mov    %ebx,%esi
    7391:	bf 00 00 00 00       	mov    $0x0,%edi
    7396:	e8 dd c7 ff ff       	callq  3b78 <safe_sub_func_uint8_t_u_u>
    739b:	0f b6 d0             	movzbl %al,%edx
    739e:	48 8b 85 40 ef ff ff 	mov    -0x10c0(%rbp),%rax
    73a5:	48 8b 00             	mov    (%rax),%rax
    73a8:	48 85 c0             	test   %rax,%rax
    73ab:	0f 94 c0             	sete   %al
    73ae:	0f b6 c0             	movzbl %al,%eax
    73b1:	89 d6                	mov    %edx,%esi
    73b3:	89 c7                	mov    %eax,%edi
    73b5:	e8 3b c0 ff ff       	callq  33f5 <safe_mul_func_int16_t_s_s>
    73ba:	66 85 c0             	test   %ax,%ax
    73bd:	74 74                	je     7433 <func_25+0x12c2>
    73bf:	48 8b 05 32 bd 00 00 	mov    0xbd32(%rip),%rax        # 130f8 <g_303>
    73c6:	0f b7 c0             	movzwl %ax,%eax
    73c9:	be 3a 02 00 00       	mov    $0x23a,%esi
    73ce:	89 c7                	mov    %eax,%edi
    73d0:	e8 68 c9 ff ff       	callq  3d3d <safe_mul_func_uint16_t_u_u>
    73d5:	66 85 c0             	test   %ax,%ax
    73d8:	0f 95 c0             	setne  %al
    73db:	0f b6 c0             	movzbl %al,%eax
    73de:	48 89 c6             	mov    %rax,%rsi
    73e1:	bf 01 00 00 00       	mov    $0x1,%edi
    73e6:	e8 43 cc ff ff       	callq  402e <safe_add_func_uint64_t_u_u>
    73eb:	48 8b 85 40 ee ff ff 	mov    -0x11c0(%rbp),%rax
    73f2:	48 8b 00             	mov    (%rax),%rax
    73f5:	48 8b 00             	mov    (%rax),%rax
    73f8:	8b 00                	mov    (%rax),%eax
    73fa:	85 c0                	test   %eax,%eax
    73fc:	0f 9f c0             	setg   %al
    73ff:	89 c2                	mov    %eax,%edx
    7401:	48 8b 85 28 ed ff ff 	mov    -0x12d8(%rbp),%rax
    7408:	88 10                	mov    %dl,(%rax)
    740a:	48 8b 85 28 ed ff ff 	mov    -0x12d8(%rbp),%rax
    7411:	0f b6 00             	movzbl (%rax),%eax
    7414:	0f b6 c0             	movzbl %al,%eax
    7417:	89 c6                	mov    %eax,%esi
    7419:	bf fe 00 00 00       	mov    $0xfe,%edi
    741e:	e8 70 c7 ff ff       	callq  3b93 <safe_mul_func_uint8_t_u_u>
    7423:	48 c7 85 78 ee ff ff 	movq   $0x0,-0x1188(%rbp)
    742a:	00 00 00 00 
    742e:	e9 c9 02 00 00       	jmpq   76fc <func_25+0x158b>
    7433:	48 c7 85 58 ef ff ff 	movq   $0x0,-0x10a8(%rbp)
    743a:	00 00 00 00 
    743e:	c7 85 cc ed ff ff dc 	movl   $0x62adb4dc,-0x1234(%rbp)
    7445:	b4 ad 62 
    7448:	c7 85 d0 ed ff ff 02 	movl   $0x2,-0x1230(%rbp)
    744f:	00 00 00 
    7452:	c7 85 d4 ed ff ff 57 	movl   $0xe95f7157,-0x122c(%rbp)
    7459:	71 5f e9 
    745c:	c7 85 d8 ed ff ff 01 	movl   $0x1,-0x1228(%rbp)
    7463:	00 00 00 
    7466:	c7 85 dc ed ff ff e9 	movl   $0xd9d79e9,-0x1224(%rbp)
    746d:	79 9d 0d 
    7470:	c7 85 40 f4 ff ff 01 	movl   $0x1,-0xbc0(%rbp)
    7477:	00 00 00 
    747a:	c7 85 44 f4 ff ff f3 	movl   $0x112c41f3,-0xbbc(%rbp)
    7481:	41 2c 11 
    7484:	c7 85 48 f4 ff ff 01 	movl   $0x1,-0xbb8(%rbp)
    748b:	00 00 00 
    748e:	c7 85 4c f4 ff ff f3 	movl   $0x112c41f3,-0xbb4(%rbp)
    7495:	41 2c 11 
    7498:	c7 85 50 f4 ff ff 01 	movl   $0x1,-0xbb0(%rbp)
    749f:	00 00 00 
    74a2:	c7 85 54 f4 ff ff f3 	movl   $0x112c41f3,-0xbac(%rbp)
    74a9:	41 2c 11 
    74ac:	c7 85 58 f4 ff ff 01 	movl   $0x1,-0xba8(%rbp)
    74b3:	00 00 00 
    74b6:	c7 85 5c f4 ff ff f3 	movl   $0x112c41f3,-0xba4(%rbp)
    74bd:	41 2c 11 
    74c0:	c7 85 60 f4 ff ff 01 	movl   $0x1,-0xba0(%rbp)
    74c7:	00 00 00 
    74ca:	c7 85 64 f4 ff ff f3 	movl   $0x112c41f3,-0xb9c(%rbp)
    74d1:	41 2c 11 
    74d4:	c7 85 e0 ed ff ff 5e 	movl   $0xe14ae95e,-0x1220(%rbp)
    74db:	e9 4a e1 
    74de:	c7 85 e4 ed ff ff b5 	movl   $0xa321f3b5,-0x121c(%rbp)
    74e5:	f3 21 a3 
    74e8:	c7 85 e8 ed ff ff 35 	movl   $0x296c3d35,-0x1218(%rbp)
    74ef:	3d 6c 29 
    74f2:	c7 85 ec ed ff ff bf 	movl   $0x6fbb8ebf,-0x1214(%rbp)
    74f9:	8e bb 6f 
    74fc:	66 c7 05 e1 bb 00 00 	movw   $0x0,0xbbe1(%rip)        # 130e6 <g_238>
    7503:	00 00 
    7505:	e9 4a 01 00 00       	jmpq   7654 <func_25+0x14e3>
    750a:	48 8d 05 77 cb 00 00 	lea    0xcb77(%rip),%rax        # 14088 <g_128+0x8>
    7511:	48 89 85 60 ef ff ff 	mov    %rax,-0x10a0(%rbp)
    7518:	48 8d 05 f1 bc 00 00 	lea    0xbcf1(%rip),%rax        # 13210 <g_1315>
    751f:	48 89 85 00 f8 ff ff 	mov    %rax,-0x800(%rbp)
    7526:	48 8d 05 e3 bc 00 00 	lea    0xbce3(%rip),%rax        # 13210 <g_1315>
    752d:	48 89 85 08 f8 ff ff 	mov    %rax,-0x7f8(%rbp)
    7534:	48 8d 05 d5 bc 00 00 	lea    0xbcd5(%rip),%rax        # 13210 <g_1315>
    753b:	48 89 85 10 f8 ff ff 	mov    %rax,-0x7f0(%rbp)
    7542:	48 c7 85 18 f8 ff ff 	movq   $0x0,-0x7e8(%rbp)
    7549:	00 00 00 00 
    754d:	48 c7 85 20 f8 ff ff 	movq   $0x0,-0x7e0(%rbp)
    7554:	00 00 00 00 
    7558:	48 c7 85 28 f8 ff ff 	movq   $0x0,-0x7d8(%rbp)
    755f:	00 00 00 00 
    7563:	48 8d 05 8a bc 00 00 	lea    0xbc8a(%rip),%rax        # 131f4 <g_500>
    756a:	48 89 85 68 ef ff ff 	mov    %rax,-0x1098(%rbp)
    7571:	48 8d 05 78 bb 00 00 	lea    0xbb78(%rip),%rax        # 130f0 <g_280>
    7578:	48 89 85 70 ef ff ff 	mov    %rax,-0x1090(%rbp)
    757f:	48 8d 05 5a bc 00 00 	lea    0xbc5a(%rip),%rax        # 131e0 <g_426>
    7586:	48 89 85 78 ef ff ff 	mov    %rax,-0x1088(%rbp)
    758d:	48 b8 5a a8 46 a4 6a 	movabs $0x7a30d86aa446a85a,%rax
    7594:	d8 30 7a 
    7597:	48 89 85 80 ef ff ff 	mov    %rax,-0x1080(%rbp)
    759e:	c7 85 f0 ed ff ff fc 	movl   $0x96ee4ffc,-0x1210(%rbp)
    75a5:	4f ee 96 
    75a8:	c7 85 a0 f0 ff ff 92 	movl   $0x2f7e2392,-0xf60(%rbp)
    75af:	23 7e 2f 
    75b2:	c7 85 a4 f0 ff ff 92 	movl   $0x2f7e2392,-0xf5c(%rbp)
    75b9:	23 7e 2f 
    75bc:	c7 85 a8 f0 ff ff 92 	movl   $0x2f7e2392,-0xf58(%rbp)
    75c3:	23 7e 2f 
    75c6:	c7 85 ac f0 ff ff 92 	movl   $0x2f7e2392,-0xf54(%rbp)
    75cd:	23 7e 2f 
    75d0:	c7 85 b0 f0 ff ff 92 	movl   $0x2f7e2392,-0xf50(%rbp)
    75d7:	23 7e 2f 
    75da:	c7 85 f4 ed ff ff a1 	movl   $0x7ae9f4a1,-0x120c(%rbp)
    75e1:	f4 e9 7a 
    75e4:	c7 85 f8 ed ff ff 01 	movl   $0x1,-0x1208(%rbp)
    75eb:	00 00 00 
    75ee:	c7 85 74 ed ff ff 00 	movl   $0x0,-0x128c(%rbp)
    75f5:	00 00 00 
    75f8:	eb 1e                	jmp    7618 <func_25+0x14a7>
    75fa:	8b 85 74 ed ff ff    	mov    -0x128c(%rbp),%eax
    7600:	48 98                	cltq   
    7602:	48 8d 95 48 ed ff ff 	lea    -0x12b8(%rbp),%rdx
    7609:	48 89 94 c5 10 f2 ff 	mov    %rdx,-0xdf0(%rbp,%rax,8)
    7610:	ff 
    7611:	83 85 74 ed ff ff 01 	addl   $0x1,-0x128c(%rbp)
    7618:	83 bd 74 ed ff ff 03 	cmpl   $0x3,-0x128c(%rbp)
    761f:	7e d9                	jle    75fa <func_25+0x1489>
    7621:	48 8b 85 48 ef ff ff 	mov    -0x10b8(%rbp),%rax
    7628:	48 8b 00             	mov    (%rax),%rax
    762b:	48 8b 95 60 ef ff ff 	mov    -0x10a0(%rbp),%rdx
    7632:	48 89 10             	mov    %rdx,(%rax)
    7635:	0f b7 05 aa ba 00 00 	movzwl 0xbaaa(%rip),%eax        # 130e6 <g_238>
    763c:	0f be c0             	movsbl %al,%eax
    763f:	be 07 00 00 00       	mov    $0x7,%esi
    7644:	89 c7                	mov    %eax,%edi
    7646:	e8 89 bb ff ff       	callq  31d4 <safe_add_func_int8_t_s_s>
    764b:	66 98                	cbtw   
    764d:	66 89 05 92 ba 00 00 	mov    %ax,0xba92(%rip)        # 130e6 <g_238>
    7654:	0f b7 05 8b ba 00 00 	movzwl 0xba8b(%rip),%eax        # 130e6 <g_238>
    765b:	66 83 f8 28          	cmp    $0x28,%ax
    765f:	0f 87 a5 fe ff ff    	ja     750a <func_25+0x1399>
    7665:	8b 85 e4 ed ff ff    	mov    -0x121c(%rbp),%eax
    766b:	89 c2                	mov    %eax,%edx
    766d:	48 8b 85 70 ee ff ff 	mov    -0x1190(%rbp),%rax
    7674:	88 10                	mov    %dl,(%rax)
    7676:	48 8b 85 70 ee ff ff 	mov    -0x1190(%rbp),%rax
    767d:	0f b6 00             	movzbl (%rax),%eax
    7680:	0f b6 d0             	movzbl %al,%edx
    7683:	8b 85 e4 ed ff ff    	mov    -0x121c(%rbp),%eax
    7689:	0f b6 c0             	movzbl %al,%eax
    768c:	89 d6                	mov    %edx,%esi
    768e:	89 c7                	mov    %eax,%edi
    7690:	e8 29 c6 ff ff       	callq  3cbe <safe_rshift_func_uint8_t_u_u>
    7695:	48 8b 95 48 ef ff ff 	mov    -0x10b8(%rbp),%rdx
    769c:	48 8b 12             	mov    (%rdx),%rdx
    769f:	48 8b 12             	mov    (%rdx),%rdx
    76a2:	48 8b 12             	mov    (%rdx),%rdx
    76a5:	8b 0a                	mov    (%rdx),%ecx
    76a7:	0f b6 d0             	movzbl %al,%edx
    76aa:	48 8b 85 48 ef ff ff 	mov    -0x10b8(%rbp),%rax
    76b1:	48 8b 00             	mov    (%rax),%rax
    76b4:	48 8b 00             	mov    (%rax),%rax
    76b7:	48 8b 00             	mov    (%rax),%rax
    76ba:	21 ca                	and    %ecx,%edx
    76bc:	89 10                	mov    %edx,(%rax)
    76be:	8b 85 20 ed ff ff    	mov    -0x12e0(%rbp),%eax
    76c4:	0f be c0             	movsbl %al,%eax
    76c7:	be 00 00 00 00       	mov    $0x0,%esi
    76cc:	89 c7                	mov    %eax,%edi
    76ce:	e8 1b bc ff ff       	callq  32ee <safe_lshift_func_int8_t_s_u>
    76d3:	48 0f be d0          	movsbq %al,%rdx
    76d7:	48 8b 05 82 cc 00 00 	mov    0xcc82(%rip),%rax        # 14360 <g_1284>
    76de:	48 8b 00             	mov    (%rax),%rax
    76e1:	48 c7 00 01 00 00 00 	movq   $0x1,(%rax)
    76e8:	48 8b 00             	mov    (%rax),%rax
    76eb:	48 89 d6             	mov    %rdx,%rsi
    76ee:	48 89 c7             	mov    %rax,%rdi
    76f1:	e8 b9 c9 ff ff       	callq  40af <safe_div_func_uint64_t_u_u>
    76f6:	89 85 c8 ed ff ff    	mov    %eax,-0x1238(%rbp)
    76fc:	8b 9d 20 ed ff ff    	mov    -0x12e0(%rbp),%ebx
    7702:	48 8b 85 28 ed ff ff 	mov    -0x12d8(%rbp),%rax
    7709:	0f b6 00             	movzbl (%rax),%eax
    770c:	44 0f be e0          	movsbl %al,%r12d
    7710:	48 8b 05 b1 ca 00 00 	mov    0xcab1(%rip),%rax        # 141c8 <g_952>
    7717:	44 8b 28             	mov    (%rax),%r13d
    771a:	8b 85 20 ed ff ff    	mov    -0x12e0(%rbp),%eax
    7720:	be 4f 82 30 ae       	mov    $0xae30824f,%esi
    7725:	89 c7                	mov    %eax,%edi
    7727:	e8 8a be ff ff       	callq  35b6 <safe_add_func_int32_t_s_s>
    772c:	4c 0f bf b5 24 ed ff 	movswq -0x12dc(%rbp),%r14
    7733:	ff 
    7734:	8b 85 20 ed ff ff    	mov    -0x12e0(%rbp),%eax
    773a:	be e8 32 29 a7       	mov    $0xa72932e8,%esi
    773f:	89 c7                	mov    %eax,%edi
    7741:	e8 8a c7 ff ff       	callq  3ed0 <safe_sub_func_uint32_t_u_u>
    7746:	89 c0                	mov    %eax,%eax
    7748:	4c 89 f6             	mov    %r14,%rsi
    774b:	48 89 c7             	mov    %rax,%rdi
    774e:	e8 5c c9 ff ff       	callq  40af <safe_div_func_uint64_t_u_u>
    7753:	0f be c0             	movsbl %al,%eax
    7756:	be 04 00 00 00       	mov    $0x4,%esi
    775b:	89 c7                	mov    %eax,%edi
    775d:	e8 0a bc ff ff       	callq  336c <safe_rshift_func_int8_t_s_u>
    7762:	83 c8 01             	or     $0x1,%eax
    7765:	0f b6 c0             	movzbl %al,%eax
    7768:	be 05 00 00 00       	mov    $0x5,%esi
    776d:	89 c7                	mov    %eax,%edi
    776f:	e8 91 c4 ff ff       	callq  3c05 <safe_lshift_func_uint8_t_u_s>
    7774:	0f b6 d0             	movzbl %al,%edx
    7777:	48 8b 05 0a ca 00 00 	mov    0xca0a(%rip),%rax        # 14188 <g_449>
    777e:	48 8b 00             	mov    (%rax),%rax
    7781:	48 39 c2             	cmp    %rax,%rdx
    7784:	74 07                	je     778d <func_25+0x161c>
    7786:	b8 01 00 00 00       	mov    $0x1,%eax
    778b:	eb 05                	jmp    7792 <func_25+0x1621>
    778d:	b8 00 00 00 00       	mov    $0x0,%eax
    7792:	44 89 ee             	mov    %r13d,%esi
    7795:	89 c7                	mov    %eax,%edi
    7797:	e8 63 bf ff ff       	callq  36ff <safe_div_func_int32_t_s_s>
    779c:	0f be c0             	movsbl %al,%eax
    779f:	83 e0 04             	and    $0x4,%eax
    77a2:	44 89 e6             	mov    %r12d,%esi
    77a5:	89 c7                	mov    %eax,%edi
    77a7:	e8 66 ba ff ff       	callq  3212 <safe_mul_func_int8_t_s_s>
    77ac:	83 c8 60             	or     $0x60,%eax
    77af:	0f be c0             	movsbl %al,%eax
    77b2:	89 c6                	mov    %eax,%esi
    77b4:	bf 09 00 00 00       	mov    $0x9,%edi
    77b9:	e8 54 ba ff ff       	callq  3212 <safe_mul_func_int8_t_s_s>
    77be:	0f be d0             	movsbl %al,%edx
    77c1:	8b 85 20 ed ff ff    	mov    -0x12e0(%rbp),%eax
    77c7:	21 c2                	and    %eax,%edx
    77c9:	48 8b 85 40 ee ff ff 	mov    -0x11c0(%rbp),%rax
    77d0:	48 8b 00             	mov    (%rax),%rax
    77d3:	48 8b 00             	mov    (%rax),%rax
    77d6:	8b 00                	mov    (%rax),%eax
    77d8:	39 c2                	cmp    %eax,%edx
    77da:	0f 94 c0             	sete   %al
    77dd:	0f b6 d0             	movzbl %al,%edx
    77e0:	48 8b 85 50 ef ff ff 	mov    -0x10b0(%rbp),%rax
    77e7:	8b 00                	mov    (%rax),%eax
    77e9:	31 c2                	xor    %eax,%edx
    77eb:	48 8b 85 50 ef ff ff 	mov    -0x10b0(%rbp),%rax
    77f2:	89 10                	mov    %edx,(%rax)
    77f4:	48 0f bf 85 24 ed ff 	movswq -0x12dc(%rbp),%rax
    77fb:	ff 
    77fc:	48 c7 c6 ff ff ff ff 	mov    $0xffffffffffffffff,%rsi
    7803:	48 89 c7             	mov    %rax,%rdi
    7806:	e8 a9 c1 ff ff       	callq  39b4 <safe_mod_func_int64_t_s_s>
    780b:	0f b7 c0             	movzwl %ax,%eax
    780e:	89 de                	mov    %ebx,%esi
    7810:	89 c7                	mov    %eax,%edi
    7812:	e8 31 c6 ff ff       	callq  3e48 <safe_rshift_func_uint16_t_u_s>
    7817:	8b 85 20 ed ff ff    	mov    -0x12e0(%rbp),%eax
    781d:	98                   	cwtl   
    781e:	be 00 00 00 00       	mov    $0x0,%esi
    7823:	89 c7                	mov    %eax,%edi
    7825:	e8 cb bb ff ff       	callq  33f5 <safe_mul_func_int16_t_s_s>
    782a:	0f bf d0             	movswl %ax,%edx
    782d:	8b 05 c1 b9 00 00    	mov    0xb9c1(%rip),%eax        # 131f4 <g_500>
    7833:	09 d0                	or     %edx,%eax
    7835:	89 05 b9 b9 00 00    	mov    %eax,0xb9b9(%rip)        # 131f4 <g_500>
    783b:	48 8b 85 48 ef ff ff 	mov    -0x10b8(%rbp),%rax
    7842:	48 8b 00             	mov    (%rax),%rax
    7845:	48 8b 00             	mov    (%rax),%rax
    7848:	48 8d 95 20 ed ff ff 	lea    -0x12e0(%rbp),%rdx
    784f:	48 89 10             	mov    %rdx,(%rax)
    7852:	e9 1b 0f 00 00       	jmpq   8772 <func_25+0x2601>
    7857:	48 c7 85 a0 ee ff ff 	movq   $0x0,-0x1160(%rbp)
    785e:	00 00 00 00 
    7862:	48 8d 85 5c ed ff ff 	lea    -0x12a4(%rbp),%rax
    7869:	48 89 85 a8 ee ff ff 	mov    %rax,-0x1158(%rbp)
    7870:	48 8d 85 64 ed ff ff 	lea    -0x129c(%rbp),%rax
    7877:	48 89 85 b0 ee ff ff 	mov    %rax,-0x1150(%rbp)
    787e:	48 8d 85 50 ed ff ff 	lea    -0x12b0(%rbp),%rax
    7885:	48 89 85 b8 ee ff ff 	mov    %rax,-0x1148(%rbp)
    788c:	48 8d 85 60 ed ff ff 	lea    -0x12a0(%rbp),%rax
    7893:	48 89 85 c0 ee ff ff 	mov    %rax,-0x1140(%rbp)
    789a:	48 8d 85 48 ed ff ff 	lea    -0x12b8(%rbp),%rax
    78a1:	48 89 85 c8 ee ff ff 	mov    %rax,-0x1138(%rbp)
    78a8:	48 8d 85 4c ed ff ff 	lea    -0x12b4(%rbp),%rax
    78af:	48 89 85 d0 ee ff ff 	mov    %rax,-0x1130(%rbp)
    78b6:	48 8d 85 48 ed ff ff 	lea    -0x12b8(%rbp),%rax
    78bd:	48 89 85 a0 f0 ff ff 	mov    %rax,-0xf60(%rbp)
    78c4:	48 c7 85 a8 f0 ff ff 	movq   $0x0,-0xf58(%rbp)
    78cb:	00 00 00 00 
    78cf:	48 c7 85 b0 f0 ff ff 	movq   $0x0,-0xf50(%rbp)
    78d6:	00 00 00 00 
    78da:	48 8d 85 48 ed ff ff 	lea    -0x12b8(%rbp),%rax
    78e1:	48 89 85 b8 f0 ff ff 	mov    %rax,-0xf48(%rbp)
    78e8:	48 c7 85 c0 f0 ff ff 	movq   $0x0,-0xf40(%rbp)
    78ef:	00 00 00 00 
    78f3:	48 c7 85 c8 f0 ff ff 	movq   $0x0,-0xf38(%rbp)
    78fa:	00 00 00 00 
    78fe:	48 8d 85 48 ed ff ff 	lea    -0x12b8(%rbp),%rax
    7905:	48 89 85 d0 f0 ff ff 	mov    %rax,-0xf30(%rbp)
    790c:	48 c7 85 d8 f0 ff ff 	movq   $0x0,-0xf28(%rbp)
    7913:	00 00 00 00 
    7917:	48 c7 85 e0 f0 ff ff 	movq   $0x0,-0xf20(%rbp)
    791e:	00 00 00 00 
    7922:	c6 85 32 ed ff ff 2a 	movb   $0x2a,-0x12ce(%rbp)
    7929:	48 8d 05 68 c8 00 00 	lea    0xc868(%rip),%rax        # 14198 <g_587>
    7930:	48 89 85 d8 ee ff ff 	mov    %rax,-0x1128(%rbp)
    7937:	48 8d 05 32 c9 00 00 	lea    0xc932(%rip),%rax        # 14270 <g_987+0x50>
    793e:	48 89 85 e0 ee ff ff 	mov    %rax,-0x1120(%rbp)
    7945:	66 c7 85 3c ed ff ff 	movw   $0xf62e,-0x12c4(%rbp)
    794c:	2e f6 
    794e:	48 8d 05 83 c7 00 00 	lea    0xc783(%rip),%rax        # 140d8 <g_127+0x18>
    7955:	48 89 85 e8 ee ff ff 	mov    %rax,-0x1118(%rbp)
    795c:	66 c7 85 3e ed ff ff 	movw   $0xcdd3,-0x12c2(%rbp)
    7963:	d3 cd 
    7965:	c6 85 33 ed ff ff 7b 	movb   $0x7b,-0x12cd(%rbp)
    796c:	c7 85 9c ed ff ff 04 	movl   $0x4,-0x1264(%rbp)
    7973:	00 00 00 
    7976:	66 c7 85 40 ed ff ff 	movw   $0xffff,-0x12c0(%rbp)
    797d:	ff ff 
    797f:	66 c7 85 f2 ef ff ff 	movw   $0x5909,-0x100e(%rbp)
    7986:	09 59 
    7988:	66 c7 85 f4 ef ff ff 	movw   $0x667f,-0x100c(%rbp)
    798f:	7f 66 
    7991:	66 c7 85 f6 ef ff ff 	movw   $0x667f,-0x100a(%rbp)
    7998:	7f 66 
    799a:	66 c7 85 f8 ef ff ff 	movw   $0x5909,-0x1008(%rbp)
    79a1:	09 59 
    79a3:	66 c7 85 fa ef ff ff 	movw   $0x667f,-0x1006(%rbp)
    79aa:	7f 66 
    79ac:	66 c7 85 fc ef ff ff 	movw   $0x667f,-0x1004(%rbp)
    79b3:	7f 66 
    79b5:	66 c7 85 fe ef ff ff 	movw   $0x5909,-0x1002(%rbp)
    79bc:	09 59 
    79be:	c7 85 70 f0 ff ff 01 	movl   $0x1,-0xf90(%rbp)
    79c5:	00 00 00 
    79c8:	c7 85 74 f0 ff ff 01 	movl   $0x1,-0xf8c(%rbp)
    79cf:	00 00 00 
    79d2:	c7 85 78 f0 ff ff 01 	movl   $0x1,-0xf88(%rbp)
    79d9:	00 00 00 
    79dc:	c7 85 7c f0 ff ff 01 	movl   $0x1,-0xf84(%rbp)
    79e3:	00 00 00 
    79e6:	c7 85 80 f0 ff ff 01 	movl   $0x1,-0xf80(%rbp)
    79ed:	00 00 00 
    79f0:	c7 85 84 f0 ff ff 01 	movl   $0x1,-0xf7c(%rbp)
    79f7:	00 00 00 
    79fa:	c7 85 88 f0 ff ff 01 	movl   $0x1,-0xf78(%rbp)
    7a01:	00 00 00 
    7a04:	c7 85 8c f0 ff ff 01 	movl   $0x1,-0xf74(%rbp)
    7a0b:	00 00 00 
    7a0e:	c7 85 90 f0 ff ff 01 	movl   $0x1,-0xf70(%rbp)
    7a15:	00 00 00 
    7a18:	c7 85 94 f0 ff ff 01 	movl   $0x1,-0xf6c(%rbp)
    7a1f:	00 00 00 
    7a22:	c7 85 78 ed ff ff 00 	movl   $0x0,-0x1288(%rbp)
    7a29:	00 00 00 
    7a2c:	eb 42                	jmp    7a70 <func_25+0x18ff>
    7a2e:	c7 85 7c ed ff ff 00 	movl   $0x0,-0x1284(%rbp)
    7a35:	00 00 00 
    7a38:	eb 26                	jmp    7a60 <func_25+0x18ef>
    7a3a:	8b 85 7c ed ff ff    	mov    -0x1284(%rbp),%eax
    7a40:	48 63 d0             	movslq %eax,%rdx
    7a43:	8b 85 78 ed ff ff    	mov    -0x1288(%rbp),%eax
    7a49:	48 98                	cltq   
    7a4b:	48 01 d0             	add    %rdx,%rax
    7a4e:	c7 84 85 e4 ef ff ff 	movl   $0xee5195de,-0x101c(%rbp,%rax,4)
    7a55:	de 95 51 ee 
    7a59:	83 85 7c ed ff ff 01 	addl   $0x1,-0x1284(%rbp)
    7a60:	83 bd 7c ed ff ff 00 	cmpl   $0x0,-0x1284(%rbp)
    7a67:	7e d1                	jle    7a3a <func_25+0x18c9>
    7a69:	83 85 78 ed ff ff 01 	addl   $0x1,-0x1288(%rbp)
    7a70:	83 bd 78 ed ff ff 02 	cmpl   $0x2,-0x1288(%rbp)
    7a77:	7e b5                	jle    7a2e <func_25+0x18bd>
    7a79:	48 83 ad 58 ee ff ff 	subq   $0x1,-0x11a8(%rbp)
    7a80:	01 
    7a81:	8b 85 20 ed ff ff    	mov    -0x12e0(%rbp),%eax
    7a87:	85 c0                	test   %eax,%eax
    7a89:	0f 84 b4 0c 00 00    	je     8743 <func_25+0x25d2>
    7a8f:	c6 85 35 ed ff ff ec 	movb   $0xec,-0x12cb(%rbp)
    7a96:	c7 85 a0 ed ff ff b0 	movl   $0xec4e87b0,-0x1260(%rbp)
    7a9d:	87 4e ec 
    7aa0:	c7 85 50 f0 ff ff ff 	movl   $0xffffffff,-0xfb0(%rbp)
    7aa7:	ff ff ff 
    7aaa:	c7 85 54 f0 ff ff ff 	movl   $0xffffffff,-0xfac(%rbp)
    7ab1:	ff ff ff 
    7ab4:	c7 85 58 f0 ff ff 00 	movl   $0x0,-0xfa8(%rbp)
    7abb:	00 00 00 
    7abe:	c7 85 5c f0 ff ff ff 	movl   $0xffffffff,-0xfa4(%rbp)
    7ac5:	ff ff ff 
    7ac8:	c7 85 60 f0 ff ff ff 	movl   $0xffffffff,-0xfa0(%rbp)
    7acf:	ff ff ff 
    7ad2:	c7 85 64 f0 ff ff 00 	movl   $0x0,-0xf9c(%rbp)
    7ad9:	00 00 00 
    7adc:	c7 85 68 f0 ff ff ff 	movl   $0xffffffff,-0xf98(%rbp)
    7ae3:	ff ff ff 
    7ae6:	c7 85 6c f0 ff ff ff 	movl   $0xffffffff,-0xf94(%rbp)
    7aed:	ff ff ff 
    7af0:	48 8d 85 58 ed ff ff 	lea    -0x12a8(%rbp),%rax
    7af7:	48 89 85 30 ee ff ff 	mov    %rax,-0x11d0(%rbp)
    7afe:	48 8d 85 30 ee ff ff 	lea    -0x11d0(%rbp),%rax
    7b05:	48 89 85 38 ee ff ff 	mov    %rax,-0x11c8(%rbp)
    7b0c:	48 8d 85 38 ee ff ff 	lea    -0x11c8(%rbp),%rax
    7b13:	48 89 85 40 ee ff ff 	mov    %rax,-0x11c0(%rbp)
    7b1a:	48 8d 85 40 ee ff ff 	lea    -0x11c0(%rbp),%rax
    7b21:	48 89 85 48 ee ff ff 	mov    %rax,-0x11b8(%rbp)
    7b28:	48 8d 85 48 ee ff ff 	lea    -0x11b8(%rbp),%rax
    7b2f:	48 89 85 f0 ee ff ff 	mov    %rax,-0x1110(%rbp)
    7b36:	48 8d 85 10 f2 ff ff 	lea    -0xdf0(%rbp),%rax
    7b3d:	48 8d 15 dc 80 00 00 	lea    0x80dc(%rip),%rdx        # fc20 <g_1116+0xbc8>
    7b44:	b9 46 00 00 00       	mov    $0x46,%ecx
    7b49:	48 89 c7             	mov    %rax,%rdi
    7b4c:	48 89 d6             	mov    %rdx,%rsi
    7b4f:	f3 48 a5             	rep movsq %ds:(%rsi),%es:(%rdi)
    7b52:	48 8d 85 30 f0 ff ff 	lea    -0xfd0(%rbp),%rax
    7b59:	48 89 85 f8 ee ff ff 	mov    %rax,-0x1108(%rbp)
    7b60:	48 8d 05 71 c5 00 00 	lea    0xc571(%rip),%rax        # 140d8 <g_127+0x18>
    7b67:	48 89 85 00 ef ff ff 	mov    %rax,-0x1100(%rbp)
    7b6e:	48 8d 05 b3 b4 00 00 	lea    0xb4b3(%rip),%rax        # 13028 <g_14>
    7b75:	48 89 85 08 ef ff ff 	mov    %rax,-0x10f8(%rbp)
    7b7c:	c7 85 a4 ed ff ff f9 	movl   $0xfffffff9,-0x125c(%rbp)
    7b83:	ff ff ff 
    7b86:	48 8d 05 e3 c5 00 00 	lea    0xc5e3(%rip),%rax        # 14170 <g_297>
    7b8d:	48 89 85 10 ef ff ff 	mov    %rax,-0x10f0(%rbp)
    7b94:	c6 85 36 ed ff ff 4e 	movb   $0x4e,-0x12ca(%rbp)
    7b9b:	48 8d 85 40 f4 ff ff 	lea    -0xbc0(%rbp),%rax
    7ba2:	48 8d 15 f7 b8 00 00 	lea    0xb8f7(%rip),%rdx        # 134a0 <g_1575+0x280>
    7ba9:	b9 54 00 00 00       	mov    $0x54,%ecx
    7bae:	48 89 c7             	mov    %rax,%rdi
    7bb1:	48 89 d6             	mov    %rdx,%rsi
    7bb4:	f3 48 a5             	rep movsq %ds:(%rsi),%es:(%rdi)
    7bb7:	48 c7 85 18 ef ff ff 	movq   $0x0,-0x10e8(%rbp)
    7bbe:	00 00 00 00 
    7bc2:	48 8d 05 1d b5 00 00 	lea    0xb51d(%rip),%rax        # 130e6 <g_238>
    7bc9:	48 89 85 20 ef ff ff 	mov    %rax,-0x10e0(%rbp)
    7bd0:	c7 85 80 ed ff ff 00 	movl   $0x0,-0x1280(%rbp)
    7bd7:	00 00 00 
    7bda:	eb 1e                	jmp    7bfa <func_25+0x1a89>
    7bdc:	8b 85 80 ed ff ff    	mov    -0x1280(%rbp),%eax
    7be2:	48 98                	cltq   
    7be4:	48 8d 95 54 ed ff ff 	lea    -0x12ac(%rbp),%rdx
    7beb:	48 89 94 c5 30 f0 ff 	mov    %rdx,-0xfd0(%rbp,%rax,8)
    7bf2:	ff 
    7bf3:	83 85 80 ed ff ff 01 	addl   $0x1,-0x1280(%rbp)
    7bfa:	83 bd 80 ed ff ff 02 	cmpl   $0x2,-0x1280(%rbp)
    7c01:	7e d9                	jle    7bdc <func_25+0x1a6b>
    7c03:	48 c7 05 ca b4 00 00 	movq   $0x0,0xb4ca(%rip)        # 130d8 <g_137>
    7c0a:	00 00 00 00 
    7c0e:	eb 57                	jmp    7c67 <func_25+0x1af6>
    7c10:	c7 85 c4 ed ff ff f5 	movl   $0x1a6a47f5,-0x123c(%rbp)
    7c17:	47 6a 1a 
    7c1a:	48 b8 8d 5f cf 34 30 	movabs $0xce6b6b3034cf5f8d,%rax
    7c21:	6b 6b ce 
    7c24:	48 89 85 38 ef ff ff 	mov    %rax,-0x10c8(%rbp)
    7c2b:	48 8b 85 68 ee ff ff 	mov    -0x1198(%rbp),%rax
    7c32:	48 8b 00             	mov    (%rax),%rax
    7c35:	48 8b 00             	mov    (%rax),%rax
    7c38:	48 8b 00             	mov    (%rax),%rax
    7c3b:	8b 10                	mov    (%rax),%edx
    7c3d:	48 8b 85 b8 ee ff ff 	mov    -0x1148(%rbp),%rax
    7c44:	89 10                	mov    %edx,(%rax)
    7c46:	8b 05 c4 b5 00 00    	mov    0xb5c4(%rip),%eax        # 13210 <g_1315>
    7c4c:	85 c0                	test   %eax,%eax
    7c4e:	74 05                	je     7c55 <func_25+0x1ae4>
    7c50:	e9 28 e7 ff ff       	jmpq   637d <func_25+0x20c>
    7c55:	48 8b 05 7c b4 00 00 	mov    0xb47c(%rip),%rax        # 130d8 <g_137>
    7c5c:	48 83 c0 01          	add    $0x1,%rax
    7c60:	48 89 05 71 b4 00 00 	mov    %rax,0xb471(%rip)        # 130d8 <g_137>
    7c67:	48 8b 05 6a b4 00 00 	mov    0xb46a(%rip),%rax        # 130d8 <g_137>
    7c6e:	48 83 f8 18          	cmp    $0x18,%rax
    7c72:	74 9c                	je     7c10 <func_25+0x1a9f>
    7c74:	c6 05 74 b4 00 00 08 	movb   $0x8,0xb474(%rip)        # 130ef <g_276>
    7c7b:	e9 de 09 00 00       	jmpq   865e <func_25+0x24ed>
    7c80:	c7 85 a8 ed ff ff d5 	movl   $0xe78949d5,-0x1258(%rbp)
    7c87:	49 89 e7 
    7c8a:	c7 85 ac ed ff ff 01 	movl   $0x1,-0x1254(%rbp)
    7c91:	00 00 00 
    7c94:	c7 85 b0 ed ff ff 01 	movl   $0x1,-0x1250(%rbp)
    7c9b:	00 00 00 
    7c9e:	c7 85 b4 ed ff ff 00 	movl   $0x0,-0x124c(%rbp)
    7ca5:	00 00 00 
    7ca8:	66 c7 85 42 ed ff ff 	movw   $0x6855,-0x12be(%rbp)
    7caf:	55 68 
    7cb1:	c7 85 b8 ed ff ff 01 	movl   $0x1,-0x1248(%rbp)
    7cb8:	00 00 00 
    7cbb:	48 8d 85 28 ee ff ff 	lea    -0x11d8(%rbp),%rax
    7cc2:	48 89 85 28 ef ff ff 	mov    %rax,-0x10d8(%rbp)
    7cc9:	48 c7 85 50 ee ff ff 	movq   $0x0,-0x11b0(%rbp)
    7cd0:	00 00 00 00 
    7cd4:	48 8d 85 50 ee ff ff 	lea    -0x11b0(%rbp),%rax
    7cdb:	48 89 85 00 f8 ff ff 	mov    %rax,-0x800(%rbp)
    7ce2:	48 8d 85 50 ee ff ff 	lea    -0x11b0(%rbp),%rax
    7ce9:	48 89 85 08 f8 ff ff 	mov    %rax,-0x7f8(%rbp)
    7cf0:	48 8d 85 50 ee ff ff 	lea    -0x11b0(%rbp),%rax
    7cf7:	48 89 85 10 f8 ff ff 	mov    %rax,-0x7f0(%rbp)
    7cfe:	48 8d 85 50 ee ff ff 	lea    -0x11b0(%rbp),%rax
    7d05:	48 89 85 18 f8 ff ff 	mov    %rax,-0x7e8(%rbp)
    7d0c:	48 8d 85 50 ee ff ff 	lea    -0x11b0(%rbp),%rax
    7d13:	48 89 85 20 f8 ff ff 	mov    %rax,-0x7e0(%rbp)
    7d1a:	48 8d 85 50 ee ff ff 	lea    -0x11b0(%rbp),%rax
    7d21:	48 89 85 28 f8 ff ff 	mov    %rax,-0x7d8(%rbp)
    7d28:	48 8d 85 50 ee ff ff 	lea    -0x11b0(%rbp),%rax
    7d2f:	48 89 85 30 f8 ff ff 	mov    %rax,-0x7d0(%rbp)
    7d36:	48 8d 85 50 ee ff ff 	lea    -0x11b0(%rbp),%rax
    7d3d:	48 89 85 38 f8 ff ff 	mov    %rax,-0x7c8(%rbp)
    7d44:	48 8d 85 50 ee ff ff 	lea    -0x11b0(%rbp),%rax
    7d4b:	48 89 85 40 f8 ff ff 	mov    %rax,-0x7c0(%rbp)
    7d52:	48 8d 85 50 ee ff ff 	lea    -0x11b0(%rbp),%rax
    7d59:	48 89 85 48 f8 ff ff 	mov    %rax,-0x7b8(%rbp)
    7d60:	48 8d 85 50 ee ff ff 	lea    -0x11b0(%rbp),%rax
    7d67:	48 89 85 50 f8 ff ff 	mov    %rax,-0x7b0(%rbp)
    7d6e:	48 c7 85 58 f8 ff ff 	movq   $0x0,-0x7a8(%rbp)
    7d75:	00 00 00 00 
    7d79:	48 c7 85 60 f8 ff ff 	movq   $0x0,-0x7a0(%rbp)
    7d80:	00 00 00 00 
    7d84:	48 8d 85 50 ee ff ff 	lea    -0x11b0(%rbp),%rax
    7d8b:	48 89 85 68 f8 ff ff 	mov    %rax,-0x798(%rbp)
    7d92:	48 8d 85 50 ee ff ff 	lea    -0x11b0(%rbp),%rax
    7d99:	48 89 85 70 f8 ff ff 	mov    %rax,-0x790(%rbp)
    7da0:	48 c7 85 78 f8 ff ff 	movq   $0x0,-0x788(%rbp)
    7da7:	00 00 00 00 
    7dab:	48 8d 85 50 ee ff ff 	lea    -0x11b0(%rbp),%rax
    7db2:	48 89 85 80 f8 ff ff 	mov    %rax,-0x780(%rbp)
    7db9:	48 8d 85 50 ee ff ff 	lea    -0x11b0(%rbp),%rax
    7dc0:	48 89 85 88 f8 ff ff 	mov    %rax,-0x778(%rbp)
    7dc7:	48 c7 85 90 f8 ff ff 	movq   $0x0,-0x770(%rbp)
    7dce:	00 00 00 00 
    7dd2:	48 8d 85 50 ee ff ff 	lea    -0x11b0(%rbp),%rax
    7dd9:	48 89 85 98 f8 ff ff 	mov    %rax,-0x768(%rbp)
    7de0:	48 8d 85 50 ee ff ff 	lea    -0x11b0(%rbp),%rax
    7de7:	48 89 85 a0 f8 ff ff 	mov    %rax,-0x760(%rbp)
    7dee:	48 8d 85 50 ee ff ff 	lea    -0x11b0(%rbp),%rax
    7df5:	48 89 85 a8 f8 ff ff 	mov    %rax,-0x758(%rbp)
    7dfc:	48 8d 85 50 ee ff ff 	lea    -0x11b0(%rbp),%rax
    7e03:	48 89 85 b0 f8 ff ff 	mov    %rax,-0x750(%rbp)
    7e0a:	48 8d 85 50 ee ff ff 	lea    -0x11b0(%rbp),%rax
    7e11:	48 89 85 b8 f8 ff ff 	mov    %rax,-0x748(%rbp)
    7e18:	48 c7 85 c0 f8 ff ff 	movq   $0x0,-0x740(%rbp)
    7e1f:	00 00 00 00 
    7e23:	48 8d 85 50 ee ff ff 	lea    -0x11b0(%rbp),%rax
    7e2a:	48 89 85 c8 f8 ff ff 	mov    %rax,-0x738(%rbp)
    7e31:	48 8d 85 50 ee ff ff 	lea    -0x11b0(%rbp),%rax
    7e38:	48 89 85 d0 f8 ff ff 	mov    %rax,-0x730(%rbp)
    7e3f:	48 8d 85 50 ee ff ff 	lea    -0x11b0(%rbp),%rax
    7e46:	48 89 85 d8 f8 ff ff 	mov    %rax,-0x728(%rbp)
    7e4d:	48 8d 85 50 ee ff ff 	lea    -0x11b0(%rbp),%rax
    7e54:	48 89 85 e0 f8 ff ff 	mov    %rax,-0x720(%rbp)
    7e5b:	48 8d 85 50 ee ff ff 	lea    -0x11b0(%rbp),%rax
    7e62:	48 89 85 e8 f8 ff ff 	mov    %rax,-0x718(%rbp)
    7e69:	48 c7 85 f0 f8 ff ff 	movq   $0x0,-0x710(%rbp)
    7e70:	00 00 00 00 
    7e74:	48 8d 85 50 ee ff ff 	lea    -0x11b0(%rbp),%rax
    7e7b:	48 89 85 f8 f8 ff ff 	mov    %rax,-0x708(%rbp)
    7e82:	48 8d 85 50 ee ff ff 	lea    -0x11b0(%rbp),%rax
    7e89:	48 89 85 00 f9 ff ff 	mov    %rax,-0x700(%rbp)
    7e90:	48 8d 85 50 ee ff ff 	lea    -0x11b0(%rbp),%rax
    7e97:	48 89 85 08 f9 ff ff 	mov    %rax,-0x6f8(%rbp)
    7e9e:	48 8d 85 50 ee ff ff 	lea    -0x11b0(%rbp),%rax
    7ea5:	48 89 85 10 f9 ff ff 	mov    %rax,-0x6f0(%rbp)
    7eac:	48 8d 85 50 ee ff ff 	lea    -0x11b0(%rbp),%rax
    7eb3:	48 89 85 18 f9 ff ff 	mov    %rax,-0x6e8(%rbp)
    7eba:	48 c7 85 20 f9 ff ff 	movq   $0x0,-0x6e0(%rbp)
    7ec1:	00 00 00 00 
    7ec5:	48 8d 85 50 ee ff ff 	lea    -0x11b0(%rbp),%rax
    7ecc:	48 89 85 28 f9 ff ff 	mov    %rax,-0x6d8(%rbp)
    7ed3:	48 8d 85 50 ee ff ff 	lea    -0x11b0(%rbp),%rax
    7eda:	48 89 85 30 f9 ff ff 	mov    %rax,-0x6d0(%rbp)
    7ee1:	48 c7 85 38 f9 ff ff 	movq   $0x0,-0x6c8(%rbp)
    7ee8:	00 00 00 00 
    7eec:	48 8d 85 50 ee ff ff 	lea    -0x11b0(%rbp),%rax
    7ef3:	48 89 85 40 f9 ff ff 	mov    %rax,-0x6c0(%rbp)
    7efa:	48 8d 85 50 ee ff ff 	lea    -0x11b0(%rbp),%rax
    7f01:	48 89 85 48 f9 ff ff 	mov    %rax,-0x6b8(%rbp)
    7f08:	48 c7 85 50 f9 ff ff 	movq   $0x0,-0x6b0(%rbp)
    7f0f:	00 00 00 00 
    7f13:	48 8d 85 50 ee ff ff 	lea    -0x11b0(%rbp),%rax
    7f1a:	48 89 85 58 f9 ff ff 	mov    %rax,-0x6a8(%rbp)
    7f21:	48 8d 85 50 ee ff ff 	lea    -0x11b0(%rbp),%rax
    7f28:	48 89 85 60 f9 ff ff 	mov    %rax,-0x6a0(%rbp)
    7f2f:	48 8d 85 50 ee ff ff 	lea    -0x11b0(%rbp),%rax
    7f36:	48 89 85 68 f9 ff ff 	mov    %rax,-0x698(%rbp)
    7f3d:	48 8d 85 50 ee ff ff 	lea    -0x11b0(%rbp),%rax
    7f44:	48 89 85 70 f9 ff ff 	mov    %rax,-0x690(%rbp)
    7f4b:	48 8d 85 50 ee ff ff 	lea    -0x11b0(%rbp),%rax
    7f52:	48 89 85 78 f9 ff ff 	mov    %rax,-0x688(%rbp)
    7f59:	48 8d 85 50 ee ff ff 	lea    -0x11b0(%rbp),%rax
    7f60:	48 89 85 80 f9 ff ff 	mov    %rax,-0x680(%rbp)
    7f67:	48 8d 85 50 ee ff ff 	lea    -0x11b0(%rbp),%rax
    7f6e:	48 89 85 88 f9 ff ff 	mov    %rax,-0x678(%rbp)
    7f75:	48 8d 85 50 ee ff ff 	lea    -0x11b0(%rbp),%rax
    7f7c:	48 89 85 90 f9 ff ff 	mov    %rax,-0x670(%rbp)
    7f83:	48 8d 85 50 ee ff ff 	lea    -0x11b0(%rbp),%rax
    7f8a:	48 89 85 98 f9 ff ff 	mov    %rax,-0x668(%rbp)
    7f91:	48 8d 85 50 ee ff ff 	lea    -0x11b0(%rbp),%rax
    7f98:	48 89 85 a0 f9 ff ff 	mov    %rax,-0x660(%rbp)
    7f9f:	48 8d 85 50 ee ff ff 	lea    -0x11b0(%rbp),%rax
    7fa6:	48 89 85 a8 f9 ff ff 	mov    %rax,-0x658(%rbp)
    7fad:	48 8d 85 50 ee ff ff 	lea    -0x11b0(%rbp),%rax
    7fb4:	48 89 85 b0 f9 ff ff 	mov    %rax,-0x650(%rbp)
    7fbb:	48 8d 85 50 ee ff ff 	lea    -0x11b0(%rbp),%rax
    7fc2:	48 89 85 b8 f9 ff ff 	mov    %rax,-0x648(%rbp)
    7fc9:	48 8d 85 50 ee ff ff 	lea    -0x11b0(%rbp),%rax
    7fd0:	48 89 85 c0 f9 ff ff 	mov    %rax,-0x640(%rbp)
    7fd7:	48 8d 85 50 ee ff ff 	lea    -0x11b0(%rbp),%rax
    7fde:	48 89 85 c8 f9 ff ff 	mov    %rax,-0x638(%rbp)
    7fe5:	48 8d 85 50 ee ff ff 	lea    -0x11b0(%rbp),%rax
    7fec:	48 89 85 d0 f9 ff ff 	mov    %rax,-0x630(%rbp)
    7ff3:	48 8d 85 50 ee ff ff 	lea    -0x11b0(%rbp),%rax
    7ffa:	48 89 85 d8 f9 ff ff 	mov    %rax,-0x628(%rbp)
    8001:	48 8d 85 50 ee ff ff 	lea    -0x11b0(%rbp),%rax
    8008:	48 89 85 e0 f9 ff ff 	mov    %rax,-0x620(%rbp)
    800f:	48 8d 85 50 ee ff ff 	lea    -0x11b0(%rbp),%rax
    8016:	48 89 85 e8 f9 ff ff 	mov    %rax,-0x618(%rbp)
    801d:	48 8d 85 50 ee ff ff 	lea    -0x11b0(%rbp),%rax
    8024:	48 89 85 f0 f9 ff ff 	mov    %rax,-0x610(%rbp)
    802b:	48 8d 85 50 ee ff ff 	lea    -0x11b0(%rbp),%rax
    8032:	48 89 85 f8 f9 ff ff 	mov    %rax,-0x608(%rbp)
    8039:	48 8d 85 50 ee ff ff 	lea    -0x11b0(%rbp),%rax
    8040:	48 89 85 00 fa ff ff 	mov    %rax,-0x600(%rbp)
    8047:	48 c7 85 08 fa ff ff 	movq   $0x0,-0x5f8(%rbp)
    804e:	00 00 00 00 
    8052:	48 8d 85 50 ee ff ff 	lea    -0x11b0(%rbp),%rax
    8059:	48 89 85 10 fa ff ff 	mov    %rax,-0x5f0(%rbp)
    8060:	48 8d 85 50 ee ff ff 	lea    -0x11b0(%rbp),%rax
    8067:	48 89 85 18 fa ff ff 	mov    %rax,-0x5e8(%rbp)
    806e:	48 8d 85 50 ee ff ff 	lea    -0x11b0(%rbp),%rax
    8075:	48 89 85 20 fa ff ff 	mov    %rax,-0x5e0(%rbp)
    807c:	48 8d 85 50 ee ff ff 	lea    -0x11b0(%rbp),%rax
    8083:	48 89 85 28 fa ff ff 	mov    %rax,-0x5d8(%rbp)
    808a:	48 8d 85 50 ee ff ff 	lea    -0x11b0(%rbp),%rax
    8091:	48 89 85 30 fa ff ff 	mov    %rax,-0x5d0(%rbp)
    8098:	48 8d 85 50 ee ff ff 	lea    -0x11b0(%rbp),%rax
    809f:	48 89 85 38 fa ff ff 	mov    %rax,-0x5c8(%rbp)
    80a6:	48 8d 85 50 ee ff ff 	lea    -0x11b0(%rbp),%rax
    80ad:	48 89 85 40 fa ff ff 	mov    %rax,-0x5c0(%rbp)
    80b4:	48 8d 85 50 ee ff ff 	lea    -0x11b0(%rbp),%rax
    80bb:	48 89 85 48 fa ff ff 	mov    %rax,-0x5b8(%rbp)
    80c2:	48 8d 85 50 ee ff ff 	lea    -0x11b0(%rbp),%rax
    80c9:	48 89 85 50 fa ff ff 	mov    %rax,-0x5b0(%rbp)
    80d0:	48 8d 85 50 ee ff ff 	lea    -0x11b0(%rbp),%rax
    80d7:	48 89 85 58 fa ff ff 	mov    %rax,-0x5a8(%rbp)
    80de:	48 8d 85 50 ee ff ff 	lea    -0x11b0(%rbp),%rax
    80e5:	48 89 85 60 fa ff ff 	mov    %rax,-0x5a0(%rbp)
    80ec:	48 c7 85 68 fa ff ff 	movq   $0x0,-0x598(%rbp)
    80f3:	00 00 00 00 
    80f7:	48 c7 85 70 fa ff ff 	movq   $0x0,-0x590(%rbp)
    80fe:	00 00 00 00 
    8102:	48 8d 85 50 ee ff ff 	lea    -0x11b0(%rbp),%rax
    8109:	48 89 85 78 fa ff ff 	mov    %rax,-0x588(%rbp)
    8110:	48 8d 85 50 ee ff ff 	lea    -0x11b0(%rbp),%rax
    8117:	48 89 85 80 fa ff ff 	mov    %rax,-0x580(%rbp)
    811e:	48 c7 85 88 fa ff ff 	movq   $0x0,-0x578(%rbp)
    8125:	00 00 00 00 
    8129:	48 8d 85 50 ee ff ff 	lea    -0x11b0(%rbp),%rax
    8130:	48 89 85 90 fa ff ff 	mov    %rax,-0x570(%rbp)
    8137:	48 8d 85 50 ee ff ff 	lea    -0x11b0(%rbp),%rax
    813e:	48 89 85 98 fa ff ff 	mov    %rax,-0x568(%rbp)
    8145:	48 c7 85 a0 fa ff ff 	movq   $0x0,-0x560(%rbp)
    814c:	00 00 00 00 
    8150:	48 8d 85 50 ee ff ff 	lea    -0x11b0(%rbp),%rax
    8157:	48 89 85 a8 fa ff ff 	mov    %rax,-0x558(%rbp)
    815e:	48 8d 85 50 ee ff ff 	lea    -0x11b0(%rbp),%rax
    8165:	48 89 85 b0 fa ff ff 	mov    %rax,-0x550(%rbp)
    816c:	48 8d 85 50 ee ff ff 	lea    -0x11b0(%rbp),%rax
    8173:	48 89 85 b8 fa ff ff 	mov    %rax,-0x548(%rbp)
    817a:	48 8d 85 50 ee ff ff 	lea    -0x11b0(%rbp),%rax
    8181:	48 89 85 c0 fa ff ff 	mov    %rax,-0x540(%rbp)
    8188:	48 8d 85 50 ee ff ff 	lea    -0x11b0(%rbp),%rax
    818f:	48 89 85 c8 fa ff ff 	mov    %rax,-0x538(%rbp)
    8196:	48 c7 85 d0 fa ff ff 	movq   $0x0,-0x530(%rbp)
    819d:	00 00 00 00 
    81a1:	48 8d 85 50 ee ff ff 	lea    -0x11b0(%rbp),%rax
    81a8:	48 89 85 d8 fa ff ff 	mov    %rax,-0x528(%rbp)
    81af:	48 8d 85 50 ee ff ff 	lea    -0x11b0(%rbp),%rax
    81b6:	48 89 85 e0 fa ff ff 	mov    %rax,-0x520(%rbp)
    81bd:	48 8d 85 50 ee ff ff 	lea    -0x11b0(%rbp),%rax
    81c4:	48 89 85 e8 fa ff ff 	mov    %rax,-0x518(%rbp)
    81cb:	48 8d 85 50 ee ff ff 	lea    -0x11b0(%rbp),%rax
    81d2:	48 89 85 f0 fa ff ff 	mov    %rax,-0x510(%rbp)
    81d9:	48 8d 85 50 ee ff ff 	lea    -0x11b0(%rbp),%rax
    81e0:	48 89 85 f8 fa ff ff 	mov    %rax,-0x508(%rbp)
    81e7:	48 c7 85 00 fb ff ff 	movq   $0x0,-0x500(%rbp)
    81ee:	00 00 00 00 
    81f2:	48 8d 85 50 ee ff ff 	lea    -0x11b0(%rbp),%rax
    81f9:	48 89 85 08 fb ff ff 	mov    %rax,-0x4f8(%rbp)
    8200:	48 8d 85 50 ee ff ff 	lea    -0x11b0(%rbp),%rax
    8207:	48 89 85 10 fb ff ff 	mov    %rax,-0x4f0(%rbp)
    820e:	48 8d 85 50 ee ff ff 	lea    -0x11b0(%rbp),%rax
    8215:	48 89 85 18 fb ff ff 	mov    %rax,-0x4e8(%rbp)
    821c:	48 8d 85 50 ee ff ff 	lea    -0x11b0(%rbp),%rax
    8223:	48 89 85 20 fb ff ff 	mov    %rax,-0x4e0(%rbp)
    822a:	48 8d 85 50 ee ff ff 	lea    -0x11b0(%rbp),%rax
    8231:	48 89 85 28 fb ff ff 	mov    %rax,-0x4d8(%rbp)
    8238:	48 c7 85 30 fb ff ff 	movq   $0x0,-0x4d0(%rbp)
    823f:	00 00 00 00 
    8243:	48 8d 85 50 ee ff ff 	lea    -0x11b0(%rbp),%rax
    824a:	48 89 85 38 fb ff ff 	mov    %rax,-0x4c8(%rbp)
    8251:	48 8d 85 50 ee ff ff 	lea    -0x11b0(%rbp),%rax
    8258:	48 89 85 40 fb ff ff 	mov    %rax,-0x4c0(%rbp)
    825f:	48 c7 85 48 fb ff ff 	movq   $0x0,-0x4b8(%rbp)
    8266:	00 00 00 00 
    826a:	48 8d 85 50 ee ff ff 	lea    -0x11b0(%rbp),%rax
    8271:	48 89 85 50 fb ff ff 	mov    %rax,-0x4b0(%rbp)
    8278:	48 8d 85 50 ee ff ff 	lea    -0x11b0(%rbp),%rax
    827f:	48 89 85 58 fb ff ff 	mov    %rax,-0x4a8(%rbp)
    8286:	48 c7 85 60 fb ff ff 	movq   $0x0,-0x4a0(%rbp)
    828d:	00 00 00 00 
    8291:	48 8d 85 50 ee ff ff 	lea    -0x11b0(%rbp),%rax
    8298:	48 89 85 68 fb ff ff 	mov    %rax,-0x498(%rbp)
    829f:	48 8d 85 50 ee ff ff 	lea    -0x11b0(%rbp),%rax
    82a6:	48 89 85 70 fb ff ff 	mov    %rax,-0x490(%rbp)
    82ad:	48 8d 85 50 ee ff ff 	lea    -0x11b0(%rbp),%rax
    82b4:	48 89 85 78 fb ff ff 	mov    %rax,-0x488(%rbp)
    82bb:	48 c7 85 80 fb ff ff 	movq   $0x0,-0x480(%rbp)
    82c2:	00 00 00 00 
    82c6:	48 8d 85 50 ee ff ff 	lea    -0x11b0(%rbp),%rax
    82cd:	48 89 85 88 fb ff ff 	mov    %rax,-0x478(%rbp)
    82d4:	48 8d 85 50 ee ff ff 	lea    -0x11b0(%rbp),%rax
    82db:	48 89 85 90 fb ff ff 	mov    %rax,-0x470(%rbp)
    82e2:	48 8d 85 50 ee ff ff 	lea    -0x11b0(%rbp),%rax
    82e9:	48 89 85 98 fb ff ff 	mov    %rax,-0x468(%rbp)
    82f0:	48 8d 85 50 ee ff ff 	lea    -0x11b0(%rbp),%rax
    82f7:	48 89 85 a0 fb ff ff 	mov    %rax,-0x460(%rbp)
    82fe:	48 8d 85 50 ee ff ff 	lea    -0x11b0(%rbp),%rax
    8305:	48 89 85 a8 fb ff ff 	mov    %rax,-0x458(%rbp)
    830c:	48 c7 85 b0 fb ff ff 	movq   $0x0,-0x450(%rbp)
    8313:	00 00 00 00 
    8317:	48 8d 85 50 ee ff ff 	lea    -0x11b0(%rbp),%rax
    831e:	48 89 85 b8 fb ff ff 	mov    %rax,-0x448(%rbp)
    8325:	48 8d 85 50 ee ff ff 	lea    -0x11b0(%rbp),%rax
    832c:	48 89 85 c0 fb ff ff 	mov    %rax,-0x440(%rbp)
    8333:	48 8d 85 50 ee ff ff 	lea    -0x11b0(%rbp),%rax
    833a:	48 89 85 c8 fb ff ff 	mov    %rax,-0x438(%rbp)
    8341:	48 8d 85 50 ee ff ff 	lea    -0x11b0(%rbp),%rax
    8348:	48 89 85 d0 fb ff ff 	mov    %rax,-0x430(%rbp)
    834f:	48 8d 85 50 ee ff ff 	lea    -0x11b0(%rbp),%rax
    8356:	48 89 85 d8 fb ff ff 	mov    %rax,-0x428(%rbp)
    835d:	48 8d 85 50 ee ff ff 	lea    -0x11b0(%rbp),%rax
    8364:	48 89 85 e0 fb ff ff 	mov    %rax,-0x420(%rbp)
    836b:	48 8d 85 50 ee ff ff 	lea    -0x11b0(%rbp),%rax
    8372:	48 89 85 e8 fb ff ff 	mov    %rax,-0x418(%rbp)
    8379:	48 c7 85 f0 fb ff ff 	movq   $0x0,-0x410(%rbp)
    8380:	00 00 00 00 
    8384:	48 8d 85 50 ee ff ff 	lea    -0x11b0(%rbp),%rax
    838b:	48 89 85 f8 fb ff ff 	mov    %rax,-0x408(%rbp)
    8392:	48 8d 85 50 ee ff ff 	lea    -0x11b0(%rbp),%rax
    8399:	48 89 85 00 fc ff ff 	mov    %rax,-0x400(%rbp)
    83a0:	48 8d 85 50 ee ff ff 	lea    -0x11b0(%rbp),%rax
    83a7:	48 89 85 08 fc ff ff 	mov    %rax,-0x3f8(%rbp)
    83ae:	48 8d 85 50 ee ff ff 	lea    -0x11b0(%rbp),%rax
    83b5:	48 89 85 10 fc ff ff 	mov    %rax,-0x3f0(%rbp)
    83bc:	48 8d 85 50 ee ff ff 	lea    -0x11b0(%rbp),%rax
    83c3:	48 89 85 18 fc ff ff 	mov    %rax,-0x3e8(%rbp)
    83ca:	48 8d 85 50 ee ff ff 	lea    -0x11b0(%rbp),%rax
    83d1:	48 89 85 20 fc ff ff 	mov    %rax,-0x3e0(%rbp)
    83d8:	48 8d 85 50 ee ff ff 	lea    -0x11b0(%rbp),%rax
    83df:	48 89 85 28 fc ff ff 	mov    %rax,-0x3d8(%rbp)
    83e6:	48 8d 85 50 ee ff ff 	lea    -0x11b0(%rbp),%rax
    83ed:	48 89 85 30 fc ff ff 	mov    %rax,-0x3d0(%rbp)
    83f4:	48 8d 85 50 ee ff ff 	lea    -0x11b0(%rbp),%rax
    83fb:	48 89 85 38 fc ff ff 	mov    %rax,-0x3c8(%rbp)
    8402:	48 8d 85 50 ee ff ff 	lea    -0x11b0(%rbp),%rax
    8409:	48 89 85 40 fc ff ff 	mov    %rax,-0x3c0(%rbp)
    8410:	48 8d 85 50 ee ff ff 	lea    -0x11b0(%rbp),%rax
    8417:	48 89 85 48 fc ff ff 	mov    %rax,-0x3b8(%rbp)
    841e:	48 8d 85 50 ee ff ff 	lea    -0x11b0(%rbp),%rax
    8425:	48 89 85 50 fc ff ff 	mov    %rax,-0x3b0(%rbp)
    842c:	48 8d 85 50 ee ff ff 	lea    -0x11b0(%rbp),%rax
    8433:	48 89 85 58 fc ff ff 	mov    %rax,-0x3a8(%rbp)
    843a:	48 8d 85 50 ee ff ff 	lea    -0x11b0(%rbp),%rax
    8441:	48 89 85 60 fc ff ff 	mov    %rax,-0x3a0(%rbp)
    8448:	48 8d 85 50 ee ff ff 	lea    -0x11b0(%rbp),%rax
    844f:	48 89 85 68 fc ff ff 	mov    %rax,-0x398(%rbp)
    8456:	48 8d 85 50 ee ff ff 	lea    -0x11b0(%rbp),%rax
    845d:	48 89 85 70 fc ff ff 	mov    %rax,-0x390(%rbp)
    8464:	48 8d 85 50 ee ff ff 	lea    -0x11b0(%rbp),%rax
    846b:	48 89 85 78 fc ff ff 	mov    %rax,-0x388(%rbp)
    8472:	48 8d 85 50 ee ff ff 	lea    -0x11b0(%rbp),%rax
    8479:	48 89 85 80 fc ff ff 	mov    %rax,-0x380(%rbp)
    8480:	48 8d 85 50 ee ff ff 	lea    -0x11b0(%rbp),%rax
    8487:	48 89 85 88 fc ff ff 	mov    %rax,-0x378(%rbp)
    848e:	48 8d 85 50 ee ff ff 	lea    -0x11b0(%rbp),%rax
    8495:	48 89 85 90 fc ff ff 	mov    %rax,-0x370(%rbp)
    849c:	48 8d 85 50 ee ff ff 	lea    -0x11b0(%rbp),%rax
    84a3:	48 89 85 98 fc ff ff 	mov    %rax,-0x368(%rbp)
    84aa:	48 8d 85 50 ee ff ff 	lea    -0x11b0(%rbp),%rax
    84b1:	48 89 85 a0 fc ff ff 	mov    %rax,-0x360(%rbp)
    84b8:	48 8d 85 50 ee ff ff 	lea    -0x11b0(%rbp),%rax
    84bf:	48 89 85 a8 fc ff ff 	mov    %rax,-0x358(%rbp)
    84c6:	48 8d 85 50 ee ff ff 	lea    -0x11b0(%rbp),%rax
    84cd:	48 89 85 b0 fc ff ff 	mov    %rax,-0x350(%rbp)
    84d4:	48 8d 85 50 ee ff ff 	lea    -0x11b0(%rbp),%rax
    84db:	48 89 85 b8 fc ff ff 	mov    %rax,-0x348(%rbp)
    84e2:	48 8d 85 50 ee ff ff 	lea    -0x11b0(%rbp),%rax
    84e9:	48 89 85 c0 fc ff ff 	mov    %rax,-0x340(%rbp)
    84f0:	48 8d 85 50 ee ff ff 	lea    -0x11b0(%rbp),%rax
    84f7:	48 89 85 c8 fc ff ff 	mov    %rax,-0x338(%rbp)
    84fe:	48 8d 85 50 ee ff ff 	lea    -0x11b0(%rbp),%rax
    8505:	48 89 85 d0 fc ff ff 	mov    %rax,-0x330(%rbp)
    850c:	48 8d 85 50 ee ff ff 	lea    -0x11b0(%rbp),%rax
    8513:	48 89 85 d8 fc ff ff 	mov    %rax,-0x328(%rbp)
    851a:	48 8d 85 50 ee ff ff 	lea    -0x11b0(%rbp),%rax
    8521:	48 89 85 e0 fc ff ff 	mov    %rax,-0x320(%rbp)
    8528:	48 8d 85 50 ee ff ff 	lea    -0x11b0(%rbp),%rax
    852f:	48 89 85 e8 fc ff ff 	mov    %rax,-0x318(%rbp)
    8536:	48 8d 85 50 ee ff ff 	lea    -0x11b0(%rbp),%rax
    853d:	48 89 85 f0 fc ff ff 	mov    %rax,-0x310(%rbp)
    8544:	48 8d 85 50 ee ff ff 	lea    -0x11b0(%rbp),%rax
    854b:	48 89 85 f8 fc ff ff 	mov    %rax,-0x308(%rbp)
    8552:	48 8d 85 50 ee ff ff 	lea    -0x11b0(%rbp),%rax
    8559:	48 89 85 00 fd ff ff 	mov    %rax,-0x300(%rbp)
    8560:	48 8d 85 50 ee ff ff 	lea    -0x11b0(%rbp),%rax
    8567:	48 89 85 08 fd ff ff 	mov    %rax,-0x2f8(%rbp)
    856e:	48 8d 85 50 ee ff ff 	lea    -0x11b0(%rbp),%rax
    8575:	48 89 85 10 fd ff ff 	mov    %rax,-0x2f0(%rbp)
    857c:	48 8d 85 50 ee ff ff 	lea    -0x11b0(%rbp),%rax
    8583:	48 89 85 18 fd ff ff 	mov    %rax,-0x2e8(%rbp)
    858a:	48 8d 85 50 ee ff ff 	lea    -0x11b0(%rbp),%rax
    8591:	48 89 85 20 fd ff ff 	mov    %rax,-0x2e0(%rbp)
    8598:	48 8d 85 50 ee ff ff 	lea    -0x11b0(%rbp),%rax
    859f:	48 89 85 28 fd ff ff 	mov    %rax,-0x2d8(%rbp)
    85a6:	48 8d 85 50 ee ff ff 	lea    -0x11b0(%rbp),%rax
    85ad:	48 89 85 30 fd ff ff 	mov    %rax,-0x2d0(%rbp)
    85b4:	48 8d 85 50 ee ff ff 	lea    -0x11b0(%rbp),%rax
    85bb:	48 89 85 38 fd ff ff 	mov    %rax,-0x2c8(%rbp)
    85c2:	c7 85 bc ed ff ff 9f 	movl   $0xfef2479f,-0x1244(%rbp)
    85c9:	47 f2 fe 
    85cc:	c7 85 c0 ed ff ff b3 	movl   $0xcdb8adb3,-0x1240(%rbp)
    85d3:	ad b8 cd 
    85d6:	48 8d 85 f0 f0 ff ff 	lea    -0xf10(%rbp),%rax
    85dd:	48 83 c0 18          	add    $0x18,%rax
    85e1:	48 89 85 30 ef ff ff 	mov    %rax,-0x10d0(%rbp)
    85e8:	48 8d 05 81 bb 00 00 	lea    0xbb81(%rip),%rax        # 14170 <g_297>
    85ef:	48 89 85 d8 ef ff ff 	mov    %rax,-0x1028(%rbp)
    85f6:	c7 85 84 ed ff ff 00 	movl   $0x0,-0x127c(%rbp)
    85fd:	00 00 00 
    8600:	eb 14                	jmp    8616 <func_25+0x24a5>
    8602:	8b 85 84 ed ff ff    	mov    -0x127c(%rbp),%eax
    8608:	48 98                	cltq   
    860a:	c6 44 05 d3 05       	movb   $0x5,-0x2d(%rbp,%rax,1)
    860f:	83 85 84 ed ff ff 01 	addl   $0x1,-0x127c(%rbp)
    8616:	83 bd 84 ed ff ff 04 	cmpl   $0x4,-0x127c(%rbp)
    861d:	7e e3                	jle    8602 <func_25+0x2491>
    861f:	c7 85 84 ed ff ff 00 	movl   $0x0,-0x127c(%rbp)
    8626:	00 00 00 
    8629:	eb 1a                	jmp    8645 <func_25+0x24d4>
    862b:	8b 85 84 ed ff ff    	mov    -0x127c(%rbp),%eax
    8631:	48 98                	cltq   
    8633:	c7 84 85 10 f0 ff ff 	movl   $0x6,-0xff0(%rbp,%rax,4)
    863a:	06 00 00 00 
    863e:	83 85 84 ed ff ff 01 	addl   $0x1,-0x127c(%rbp)
    8645:	83 bd 84 ed ff ff 04 	cmpl   $0x4,-0x127c(%rbp)
    864c:	7e dd                	jle    862b <func_25+0x24ba>
    864e:	0f b6 05 9a aa 00 00 	movzbl 0xaa9a(%rip),%eax        # 130ef <g_276>
    8655:	83 e8 01             	sub    $0x1,%eax
    8658:	88 05 91 aa 00 00    	mov    %al,0xaa91(%rip)        # 130ef <g_276>
    865e:	0f b6 05 8a aa 00 00 	movzbl 0xaa8a(%rip),%eax        # 130ef <g_276>
    8665:	3c 01                	cmp    $0x1,%al
    8667:	0f 8f 13 f6 ff ff    	jg     7c80 <func_25+0x1b0f>
    866d:	48 8b 85 68 ee ff ff 	mov    -0x1198(%rbp),%rax
    8674:	48 8b 00             	mov    (%rax),%rax
    8677:	48 8b 00             	mov    (%rax),%rax
    867a:	48 c7 00 00 00 00 00 	movq   $0x0,(%rax)
    8681:	48 8b 05 00 bb 00 00 	mov    0xbb00(%rip),%rax        # 14188 <g_449>
    8688:	48 8b 00             	mov    (%rax),%rax
    868b:	48 89 c3             	mov    %rax,%rbx
    868e:	48 8b 05 f3 ba 00 00 	mov    0xbaf3(%rip),%rax        # 14188 <g_449>
    8695:	48 8b 00             	mov    (%rax),%rax
    8698:	49 89 c4             	mov    %rax,%r12
    869b:	48 8b 85 f0 ee ff ff 	mov    -0x1110(%rbp),%rax
    86a2:	48 8b 00             	mov    (%rax),%rax
    86a5:	48 8b 00             	mov    (%rax),%rax
    86a8:	48 85 c0             	test   %rax,%rax
    86ab:	0f 94 c0             	sete   %al
    86ae:	0f b6 c0             	movzbl %al,%eax
    86b1:	be 03 00 00 00       	mov    $0x3,%esi
    86b6:	89 c7                	mov    %eax,%edi
    86b8:	e8 8f b5 ff ff       	callq  3c4c <safe_lshift_func_uint8_t_u_u>
    86bd:	84 c0                	test   %al,%al
    86bf:	75 0a                	jne    86cb <func_25+0x255a>
    86c1:	48 8d 05 62 a9 00 00 	lea    0xa962(%rip),%rax        # 1302a <g_21>
    86c8:	c6 00 01             	movb   $0x1,(%rax)
    86cb:	8b 85 20 ed ff ff    	mov    -0x12e0(%rbp),%eax
    86d1:	48 63 d0             	movslq %eax,%rdx
    86d4:	48 8b 05 fd ba 00 00 	mov    0xbafd(%rip),%rax        # 141d8 <g_963>
    86db:	48 8b 00             	mov    (%rax),%rax
    86de:	48 39 c2             	cmp    %rax,%rdx
    86e1:	0f 93 c0             	setae  %al
    86e4:	0f b6 c0             	movzbl %al,%eax
    86e7:	4c 89 e6             	mov    %r12,%rsi
    86ea:	48 89 c7             	mov    %rax,%rdi
    86ed:	e8 59 b9 ff ff       	callq  404b <safe_sub_func_uint64_t_u_u>
    86f2:	48 8b 95 c0 ee ff ff 	mov    -0x1140(%rbp),%rdx
    86f9:	8b 12                	mov    (%rdx),%edx
    86fb:	48 63 d2             	movslq %edx,%rdx
    86fe:	48 39 d0             	cmp    %rdx,%rax
    8701:	0f 96 c0             	setbe  %al
    8704:	0f b6 c0             	movzbl %al,%eax
    8707:	48 89 de             	mov    %rbx,%rsi
    870a:	48 89 c7             	mov    %rax,%rdi
    870d:	e8 6e b9 ff ff       	callq  4080 <safe_mod_func_uint64_t_u_u>
    8712:	48 3d 85 18 00 00    	cmp    $0x1885,%rax
    8718:	0f 95 c0             	setne  %al
    871b:	0f b6 c0             	movzbl %al,%eax
    871e:	be 00 00 00 00       	mov    $0x0,%esi
    8723:	89 c7                	mov    %eax,%edi
    8725:	e8 c4 ab ff ff       	callq  32ee <safe_lshift_func_int8_t_s_u>
    872a:	48 8b 15 7f ba 00 00 	mov    0xba7f(%rip),%rdx        # 141b0 <g_801>
    8731:	8b 0a                	mov    (%rdx),%ecx
    8733:	0f be d0             	movsbl %al,%edx
    8736:	48 8b 05 73 ba 00 00 	mov    0xba73(%rip),%rax        # 141b0 <g_801>
    873d:	21 ca                	and    %ecx,%edx
    873f:	89 10                	mov    %edx,(%rax)
    8741:	eb 2f                	jmp    8772 <func_25+0x2601>
    8743:	c6 85 34 ed ff ff 37 	movb   $0x37,-0x12cc(%rbp)
    874a:	0f b6 85 34 ed ff ff 	movzbl -0x12cc(%rbp),%eax
    8751:	83 c0 01             	add    $0x1,%eax
    8754:	88 85 34 ed ff ff    	mov    %al,-0x12cc(%rbp)
    875a:	48 8b 85 08 ee ff ff 	mov    -0x11f8(%rbp),%rax
    8761:	48 8b 00             	mov    (%rax),%rax
    8764:	48 8b 00             	mov    (%rax),%rax
    8767:	8b 10                	mov    (%rax),%edx
    8769:	48 8b 85 b8 ee ff ff 	mov    -0x1148(%rbp),%rax
    8770:	89 10                	mov    %edx,(%rax)
    8772:	0f b6 05 77 aa 00 00 	movzbl 0xaa77(%rip),%eax        # 131f0 <g_492>
    8779:	0f b6 c0             	movzbl %al,%eax
    877c:	48 8b 5d d8          	mov    -0x28(%rbp),%rbx
    8780:	64 48 33 1c 25 28 00 	xor    %fs:0x28,%rbx
    8787:	00 00 
    8789:	74 05                	je     8790 <func_25+0x261f>
    878b:	e8 e0 a8 ff ff       	callq  3070 <__stack_chk_fail@plt>
    8790:	48 81 c4 c0 12 00 00 	add    $0x12c0,%rsp
    8797:	5b                   	pop    %rbx
    8798:	41 5c                	pop    %r12
    879a:	41 5d                	pop    %r13
    879c:	41 5e                	pop    %r14
    879e:	5d                   	pop    %rbp
    879f:	c3                   	retq   

00000000000087a0 <func_33>:
    87a0:	f3 0f 1e fa          	endbr64 
    87a4:	55                   	push   %rbp
    87a5:	48 89 e5             	mov    %rsp,%rbp
    87a8:	41 56                	push   %r14
    87aa:	41 55                	push   %r13
    87ac:	41 54                	push   %r12
    87ae:	53                   	push   %rbx
    87af:	48 81 ec 00 09 00 00 	sub    $0x900,%rsp
    87b6:	89 bd fc f6 ff ff    	mov    %edi,-0x904(%rbp)
    87bc:	48 89 b5 f0 f6 ff ff 	mov    %rsi,-0x910(%rbp)
    87c3:	48 89 95 e8 f6 ff ff 	mov    %rdx,-0x918(%rbp)
    87ca:	64 48 8b 04 25 28 00 	mov    %fs:0x28,%rax
    87d1:	00 00 
    87d3:	48 89 45 d8          	mov    %rax,-0x28(%rbp)
    87d7:	31 c0                	xor    %eax,%eax
    87d9:	c7 85 14 f7 ff ff d3 	movl   $0xf1cd3ed3,-0x8ec(%rbp)
    87e0:	3e cd f1 
    87e3:	c7 85 18 f7 ff ff fc 	movl   $0xfffffffc,-0x8e8(%rbp)
    87ea:	ff ff ff 
    87ed:	48 c7 85 70 f7 ff ff 	movq   $0x0,-0x890(%rbp)
    87f4:	00 00 00 00 
    87f8:	48 8d 05 b1 a5 00 00 	lea    0xa5b1(%rip),%rax        # 12db0 <g_20>
    87ff:	48 89 85 78 f7 ff ff 	mov    %rax,-0x888(%rbp)
    8806:	c7 85 20 f7 ff ff 09 	movl   $0x9,-0x8e0(%rbp)
    880d:	00 00 00 
    8810:	c7 85 24 f7 ff ff 36 	movl   $0x17a7ff36,-0x8dc(%rbp)
    8817:	ff a7 17 
    881a:	c7 85 28 f7 ff ff c1 	movl   $0x52daaec1,-0x8d8(%rbp)
    8821:	ae da 52 
    8824:	48 b8 b3 d2 b9 f4 5f 	movabs $0x3ff8b95ff4b9d2b3,%rax
    882b:	b9 f8 3f 
    882e:	48 89 85 80 f7 ff ff 	mov    %rax,-0x880(%rbp)
    8835:	48 b8 e5 21 0b 57 72 	movabs $0x340572570b21e5,%rax
    883c:	05 34 00 
    883f:	48 89 85 40 fa ff ff 	mov    %rax,-0x5c0(%rbp)
    8846:	48 89 85 48 fa ff ff 	mov    %rax,-0x5b8(%rbp)
    884d:	48 89 85 50 fa ff ff 	mov    %rax,-0x5b0(%rbp)
    8854:	48 bb 70 2f 89 aa c7 	movabs $0xa796fcc7aa892f70,%rbx
    885b:	fc 96 a7 
    885e:	48 89 9d 58 fa ff ff 	mov    %rbx,-0x5a8(%rbp)
    8865:	48 89 9d 60 fa ff ff 	mov    %rbx,-0x5a0(%rbp)
    886c:	48 89 9d 68 fa ff ff 	mov    %rbx,-0x598(%rbp)
    8873:	48 89 85 70 fa ff ff 	mov    %rax,-0x590(%rbp)
    887a:	48 89 85 78 fa ff ff 	mov    %rax,-0x588(%rbp)
    8881:	48 89 85 80 fa ff ff 	mov    %rax,-0x580(%rbp)
    8888:	48 89 9d 88 fa ff ff 	mov    %rbx,-0x578(%rbp)
    888f:	48 89 9d 90 fa ff ff 	mov    %rbx,-0x570(%rbp)
    8896:	48 89 9d 98 fa ff ff 	mov    %rbx,-0x568(%rbp)
    889d:	48 89 85 a0 fa ff ff 	mov    %rax,-0x560(%rbp)
    88a4:	48 89 85 a8 fa ff ff 	mov    %rax,-0x558(%rbp)
    88ab:	48 89 85 b0 fa ff ff 	mov    %rax,-0x550(%rbp)
    88b2:	48 89 9d b8 fa ff ff 	mov    %rbx,-0x548(%rbp)
    88b9:	48 89 9d c0 fa ff ff 	mov    %rbx,-0x540(%rbp)
    88c0:	48 89 9d c8 fa ff ff 	mov    %rbx,-0x538(%rbp)
    88c7:	48 89 85 d0 fa ff ff 	mov    %rax,-0x530(%rbp)
    88ce:	48 89 85 d8 fa ff ff 	mov    %rax,-0x528(%rbp)
    88d5:	48 89 85 e0 fa ff ff 	mov    %rax,-0x520(%rbp)
    88dc:	48 89 9d e8 fa ff ff 	mov    %rbx,-0x518(%rbp)
    88e3:	48 89 9d f0 fa ff ff 	mov    %rbx,-0x510(%rbp)
    88ea:	48 89 9d f8 fa ff ff 	mov    %rbx,-0x508(%rbp)
    88f1:	48 8d 85 18 f7 ff ff 	lea    -0x8e8(%rbp),%rax
    88f8:	48 89 85 48 f7 ff ff 	mov    %rax,-0x8b8(%rbp)
    88ff:	48 8d 05 d2 b7 00 00 	lea    0xb7d2(%rip),%rax        # 140d8 <g_127+0x18>
    8906:	48 89 85 88 f7 ff ff 	mov    %rax,-0x878(%rbp)
    890d:	c7 85 2c f7 ff ff 0e 	movl   $0x903ae70e,-0x8d4(%rbp)
    8914:	e7 3a 90 
    8917:	66 c7 85 70 f8 ff ff 	movw   $0xfff8,-0x790(%rbp)
    891e:	f8 ff 
    8920:	66 c7 85 72 f8 ff ff 	movw   $0xfff8,-0x78e(%rbp)
    8927:	f8 ff 
    8929:	66 c7 85 74 f8 ff ff 	movw   $0xfff8,-0x78c(%rbp)
    8930:	f8 ff 
    8932:	66 c7 85 76 f8 ff ff 	movw   $0xfff8,-0x78a(%rbp)
    8939:	f8 ff 
    893b:	66 c7 85 78 f8 ff ff 	movw   $0xfff8,-0x788(%rbp)
    8942:	f8 ff 
    8944:	66 c7 85 7a f8 ff ff 	movw   $0xfff8,-0x786(%rbp)
    894b:	f8 ff 
    894d:	66 c7 85 7c f8 ff ff 	movw   $0xfff8,-0x784(%rbp)
    8954:	f8 ff 
    8956:	66 c7 85 7e f8 ff ff 	movw   $0xfff8,-0x782(%rbp)
    895d:	f8 ff 
    895f:	66 c7 85 80 f8 ff ff 	movw   $0xfff8,-0x780(%rbp)
    8966:	f8 ff 
    8968:	66 c7 85 82 f8 ff ff 	movw   $0xfff8,-0x77e(%rbp)
    896f:	f8 ff 
    8971:	48 8d 05 f2 a7 00 00 	lea    0xa7f2(%rip),%rax        # 1316a <g_425+0x4a>
    8978:	48 89 85 90 f7 ff ff 	mov    %rax,-0x870(%rbp)
    897f:	48 8d 05 02 b8 00 00 	lea    0xb802(%rip),%rax        # 14188 <g_449>
    8986:	48 89 85 98 f7 ff ff 	mov    %rax,-0x868(%rbp)
    898d:	48 8d 85 40 fa ff ff 	lea    -0x5c0(%rbp),%rax
    8994:	48 83 c0 50          	add    $0x50,%rax
    8998:	48 89 85 00 fb ff ff 	mov    %rax,-0x500(%rbp)
    899f:	48 8d 85 40 fa ff ff 	lea    -0x5c0(%rbp),%rax
    89a6:	48 83 c0 50          	add    $0x50,%rax
    89aa:	48 89 85 08 fb ff ff 	mov    %rax,-0x4f8(%rbp)
    89b1:	48 8d 85 40 fa ff ff 	lea    -0x5c0(%rbp),%rax
    89b8:	48 83 c0 50          	add    $0x50,%rax
    89bc:	48 89 85 10 fb ff ff 	mov    %rax,-0x4f0(%rbp)
    89c3:	48 8d 85 40 fa ff ff 	lea    -0x5c0(%rbp),%rax
    89ca:	48 83 c0 50          	add    $0x50,%rax
    89ce:	48 89 85 18 fb ff ff 	mov    %rax,-0x4e8(%rbp)
    89d5:	48 8d 85 40 fa ff ff 	lea    -0x5c0(%rbp),%rax
    89dc:	48 83 c0 50          	add    $0x50,%rax
    89e0:	48 89 85 20 fb ff ff 	mov    %rax,-0x4e0(%rbp)
    89e7:	48 8d 85 40 fa ff ff 	lea    -0x5c0(%rbp),%rax
    89ee:	48 83 c0 50          	add    $0x50,%rax
    89f2:	48 89 85 28 fb ff ff 	mov    %rax,-0x4d8(%rbp)
    89f9:	48 8d 85 40 fa ff ff 	lea    -0x5c0(%rbp),%rax
    8a00:	48 83 c0 50          	add    $0x50,%rax
    8a04:	48 89 85 30 fb ff ff 	mov    %rax,-0x4d0(%rbp)
    8a0b:	48 8d 85 40 fa ff ff 	lea    -0x5c0(%rbp),%rax
    8a12:	48 83 c0 50          	add    $0x50,%rax
    8a16:	48 89 85 38 fb ff ff 	mov    %rax,-0x4c8(%rbp)
    8a1d:	48 8d 85 40 fa ff ff 	lea    -0x5c0(%rbp),%rax
    8a24:	48 83 c0 50          	add    $0x50,%rax
    8a28:	48 89 85 40 fb ff ff 	mov    %rax,-0x4c0(%rbp)
    8a2f:	48 8d 85 40 fa ff ff 	lea    -0x5c0(%rbp),%rax
    8a36:	48 83 c0 50          	add    $0x50,%rax
    8a3a:	48 89 85 48 fb ff ff 	mov    %rax,-0x4b8(%rbp)
    8a41:	48 8d 85 40 fa ff ff 	lea    -0x5c0(%rbp),%rax
    8a48:	48 83 c0 50          	add    $0x50,%rax
    8a4c:	48 89 85 50 fb ff ff 	mov    %rax,-0x4b0(%rbp)
    8a53:	48 8d 85 40 fa ff ff 	lea    -0x5c0(%rbp),%rax
    8a5a:	48 83 c0 50          	add    $0x50,%rax
    8a5e:	48 89 85 58 fb ff ff 	mov    %rax,-0x4a8(%rbp)
    8a65:	48 8d 85 40 fa ff ff 	lea    -0x5c0(%rbp),%rax
    8a6c:	48 83 c0 50          	add    $0x50,%rax
    8a70:	48 89 85 60 fb ff ff 	mov    %rax,-0x4a0(%rbp)
    8a77:	48 8d 85 40 fa ff ff 	lea    -0x5c0(%rbp),%rax
    8a7e:	48 83 c0 50          	add    $0x50,%rax
    8a82:	48 89 85 68 fb ff ff 	mov    %rax,-0x498(%rbp)
    8a89:	48 8d 85 40 fa ff ff 	lea    -0x5c0(%rbp),%rax
    8a90:	48 83 c0 50          	add    $0x50,%rax
    8a94:	48 89 85 70 fb ff ff 	mov    %rax,-0x490(%rbp)
    8a9b:	48 8d 85 40 fa ff ff 	lea    -0x5c0(%rbp),%rax
    8aa2:	48 83 c0 50          	add    $0x50,%rax
    8aa6:	48 89 85 78 fb ff ff 	mov    %rax,-0x488(%rbp)
    8aad:	48 8d 85 40 fa ff ff 	lea    -0x5c0(%rbp),%rax
    8ab4:	48 83 c0 50          	add    $0x50,%rax
    8ab8:	48 89 85 80 fb ff ff 	mov    %rax,-0x480(%rbp)
    8abf:	48 8d 85 40 fa ff ff 	lea    -0x5c0(%rbp),%rax
    8ac6:	48 83 c0 50          	add    $0x50,%rax
    8aca:	48 89 85 88 fb ff ff 	mov    %rax,-0x478(%rbp)
    8ad1:	48 8d 85 40 fa ff ff 	lea    -0x5c0(%rbp),%rax
    8ad8:	48 83 c0 50          	add    $0x50,%rax
    8adc:	48 89 85 90 fb ff ff 	mov    %rax,-0x470(%rbp)
    8ae3:	48 8d 85 40 fa ff ff 	lea    -0x5c0(%rbp),%rax
    8aea:	48 83 c0 50          	add    $0x50,%rax
    8aee:	48 89 85 98 fb ff ff 	mov    %rax,-0x468(%rbp)
    8af5:	48 8d 85 40 fa ff ff 	lea    -0x5c0(%rbp),%rax
    8afc:	48 83 c0 50          	add    $0x50,%rax
    8b00:	48 89 85 a0 fb ff ff 	mov    %rax,-0x460(%rbp)
    8b07:	48 8d 85 40 fa ff ff 	lea    -0x5c0(%rbp),%rax
    8b0e:	48 83 c0 50          	add    $0x50,%rax
    8b12:	48 89 85 a8 fb ff ff 	mov    %rax,-0x458(%rbp)
    8b19:	48 8d 85 40 fa ff ff 	lea    -0x5c0(%rbp),%rax
    8b20:	48 83 c0 50          	add    $0x50,%rax
    8b24:	48 89 85 b0 fb ff ff 	mov    %rax,-0x450(%rbp)
    8b2b:	48 8d 85 40 fa ff ff 	lea    -0x5c0(%rbp),%rax
    8b32:	48 83 c0 50          	add    $0x50,%rax
    8b36:	48 89 85 b8 fb ff ff 	mov    %rax,-0x448(%rbp)
    8b3d:	48 8d 85 40 fa ff ff 	lea    -0x5c0(%rbp),%rax
    8b44:	48 83 c0 50          	add    $0x50,%rax
    8b48:	48 89 85 c0 fb ff ff 	mov    %rax,-0x440(%rbp)
    8b4f:	48 8d 85 40 fa ff ff 	lea    -0x5c0(%rbp),%rax
    8b56:	48 83 c0 50          	add    $0x50,%rax
    8b5a:	48 89 85 c8 fb ff ff 	mov    %rax,-0x438(%rbp)
    8b61:	48 8d 85 40 fa ff ff 	lea    -0x5c0(%rbp),%rax
    8b68:	48 83 c0 50          	add    $0x50,%rax
    8b6c:	48 89 85 d0 fb ff ff 	mov    %rax,-0x430(%rbp)
    8b73:	48 8d 85 40 fa ff ff 	lea    -0x5c0(%rbp),%rax
    8b7a:	48 83 c0 50          	add    $0x50,%rax
    8b7e:	48 89 85 d8 fb ff ff 	mov    %rax,-0x428(%rbp)
    8b85:	48 8d 85 40 fa ff ff 	lea    -0x5c0(%rbp),%rax
    8b8c:	48 83 c0 50          	add    $0x50,%rax
    8b90:	48 89 85 e0 fb ff ff 	mov    %rax,-0x420(%rbp)
    8b97:	48 8d 85 40 fa ff ff 	lea    -0x5c0(%rbp),%rax
    8b9e:	48 83 c0 50          	add    $0x50,%rax
    8ba2:	48 89 85 e8 fb ff ff 	mov    %rax,-0x418(%rbp)
    8ba9:	48 8d 85 40 fa ff ff 	lea    -0x5c0(%rbp),%rax
    8bb0:	48 83 c0 50          	add    $0x50,%rax
    8bb4:	48 89 85 f0 fb ff ff 	mov    %rax,-0x410(%rbp)
    8bbb:	48 8d 85 40 fa ff ff 	lea    -0x5c0(%rbp),%rax
    8bc2:	48 83 c0 50          	add    $0x50,%rax
    8bc6:	48 89 85 f8 fb ff ff 	mov    %rax,-0x408(%rbp)
    8bcd:	48 8d 85 40 fa ff ff 	lea    -0x5c0(%rbp),%rax
    8bd4:	48 83 c0 50          	add    $0x50,%rax
    8bd8:	48 89 85 00 fc ff ff 	mov    %rax,-0x400(%rbp)
    8bdf:	48 8d 85 40 fa ff ff 	lea    -0x5c0(%rbp),%rax
    8be6:	48 83 c0 50          	add    $0x50,%rax
    8bea:	48 89 85 08 fc ff ff 	mov    %rax,-0x3f8(%rbp)
    8bf1:	48 8d 85 40 fa ff ff 	lea    -0x5c0(%rbp),%rax
    8bf8:	48 83 c0 50          	add    $0x50,%rax
    8bfc:	48 89 85 10 fc ff ff 	mov    %rax,-0x3f0(%rbp)
    8c03:	48 8d 85 40 fa ff ff 	lea    -0x5c0(%rbp),%rax
    8c0a:	48 83 c0 50          	add    $0x50,%rax
    8c0e:	48 89 85 18 fc ff ff 	mov    %rax,-0x3e8(%rbp)
    8c15:	48 8d 85 00 fb ff ff 	lea    -0x500(%rbp),%rax
    8c1c:	48 05 d8 00 00 00    	add    $0xd8,%rax
    8c22:	48 89 85 a0 f7 ff ff 	mov    %rax,-0x860(%rbp)
    8c29:	48 8d 05 c8 b5 00 00 	lea    0xb5c8(%rip),%rax        # 141f8 <g_988+0x18>
    8c30:	48 89 85 a8 f7 ff ff 	mov    %rax,-0x858(%rbp)
    8c37:	48 8d 05 62 b5 00 00 	lea    0xb562(%rip),%rax        # 141a0 <g_749>
    8c3e:	48 89 85 b0 f7 ff ff 	mov    %rax,-0x850(%rbp)
    8c45:	c7 85 1c f7 ff ff 00 	movl   $0x0,-0x8e4(%rbp)
    8c4c:	00 00 00 
    8c4f:	eb 1a                	jmp    8c6b <func_33+0x4cb>
    8c51:	8b 85 1c f7 ff ff    	mov    -0x8e4(%rbp),%eax
    8c57:	48 98                	cltq   
    8c59:	c7 84 85 68 f8 ff ff 	movl   $0x1,-0x798(%rbp,%rax,4)
    8c60:	01 00 00 00 
    8c64:	83 85 1c f7 ff ff 01 	addl   $0x1,-0x8e4(%rbp)
    8c6b:	83 bd 1c f7 ff ff 01 	cmpl   $0x1,-0x8e4(%rbp)
    8c72:	7e dd                	jle    8c51 <func_33+0x4b1>
    8c74:	c7 85 1c f7 ff ff 00 	movl   $0x0,-0x8e4(%rbp)
    8c7b:	00 00 00 
    8c7e:	eb 1e                	jmp    8c9e <func_33+0x4fe>
    8c80:	8b 85 1c f7 ff ff    	mov    -0x8e4(%rbp),%eax
    8c86:	48 98                	cltq   
    8c88:	48 8d 95 48 f7 ff ff 	lea    -0x8b8(%rbp),%rdx
    8c8f:	48 89 94 c5 90 f8 ff 	mov    %rdx,-0x770(%rbp,%rax,8)
    8c96:	ff 
    8c97:	83 85 1c f7 ff ff 01 	addl   $0x1,-0x8e4(%rbp)
    8c9e:	83 bd 1c f7 ff ff 08 	cmpl   $0x8,-0x8e4(%rbp)
    8ca5:	7e d9                	jle    8c80 <func_33+0x4e0>
    8ca7:	c7 05 2f a4 00 00 07 	movl   $0x7,0xa42f(%rip)        # 130e0 <g_164>
    8cae:	00 00 00 
    8cb1:	e9 eb 0a 00 00       	jmpq   97a1 <func_33+0x1001>
    8cb6:	48 c7 85 18 f8 ff ff 	movq   $0x9,-0x7e8(%rbp)
    8cbd:	09 00 00 00 
    8cc1:	c7 85 40 f7 ff ff 90 	movl   $0x5b14df90,-0x8c0(%rbp)
    8cc8:	df 14 5b 
    8ccb:	c7 85 44 f7 ff ff 3e 	movl   $0x452fbf3e,-0x8bc(%rbp)
    8cd2:	bf 2f 45 
    8cd5:	48 c7 85 20 f8 ff ff 	movq   $0x1,-0x7e0(%rbp)
    8cdc:	01 00 00 00 
    8ce0:	48 8d 05 f1 b3 00 00 	lea    0xb3f1(%rip),%rax        # 140d8 <g_127+0x18>
    8ce7:	48 89 85 50 f7 ff ff 	mov    %rax,-0x8b0(%rbp)
    8cee:	48 8d 85 50 f7 ff ff 	lea    -0x8b0(%rbp),%rax
    8cf5:	48 89 85 28 f8 ff ff 	mov    %rax,-0x7d8(%rbp)
    8cfc:	48 8d 05 bd ba 00 00 	lea    0xbabd(%rip),%rax        # 147c0 <g_193>
    8d03:	48 89 85 30 f8 ff ff 	mov    %rax,-0x7d0(%rbp)
    8d0a:	48 b8 83 03 ac 26 bd 	movabs $0x9d461dbd26ac0383,%rax
    8d11:	1d 46 9d 
    8d14:	48 89 85 38 f8 ff ff 	mov    %rax,-0x7c8(%rbp)
    8d1b:	48 8d 05 4e b4 00 00 	lea    0xb44e(%rip),%rax        # 14170 <g_297>
    8d22:	48 89 85 58 f7 ff ff 	mov    %rax,-0x8a8(%rbp)
    8d29:	48 8d 05 70 b4 00 00 	lea    0xb470(%rip),%rax        # 141a0 <g_749>
    8d30:	48 89 85 40 f8 ff ff 	mov    %rax,-0x7c0(%rbp)
    8d37:	66 c7 85 10 f7 ff ff 	movw   $0x0,-0x8f0(%rbp)
    8d3e:	00 00 
    8d40:	c7 85 80 f9 ff ff 71 	movl   $0xc6880b71,-0x680(%rbp)
    8d47:	0b 88 c6 
    8d4a:	c7 85 84 f9 ff ff 75 	movl   $0x2251fe75,-0x67c(%rbp)
    8d51:	fe 51 22 
    8d54:	c7 85 88 f9 ff ff 47 	movl   $0xf11b9347,-0x678(%rbp)
    8d5b:	93 1b f1 
    8d5e:	c7 85 8c f9 ff ff 71 	movl   $0xc6880b71,-0x674(%rbp)
    8d65:	0b 88 c6 
    8d68:	c7 85 90 f9 ff ff 71 	movl   $0xc6880b71,-0x670(%rbp)
    8d6f:	0b 88 c6 
    8d72:	c7 85 94 f9 ff ff 75 	movl   $0x2251fe75,-0x66c(%rbp)
    8d79:	fe 51 22 
    8d7c:	c7 85 98 f9 ff ff 02 	movl   $0x2,-0x668(%rbp)
    8d83:	00 00 00 
    8d86:	c7 85 9c f9 ff ff 75 	movl   $0x2251fe75,-0x664(%rbp)
    8d8d:	fe 51 22 
    8d90:	c7 85 a0 f9 ff ff 75 	movl   $0x2251fe75,-0x660(%rbp)
    8d97:	fe 51 22 
    8d9a:	c7 85 a4 f9 ff ff 75 	movl   $0x2251fe75,-0x65c(%rbp)
    8da1:	fe 51 22 
    8da4:	c7 85 a8 f9 ff ff 00 	movl   $0x0,-0x658(%rbp)
    8dab:	00 00 00 
    8dae:	c7 85 ac f9 ff ff 47 	movl   $0xf11b9347,-0x654(%rbp)
    8db5:	93 1b f1 
    8db8:	c7 85 b0 f9 ff ff 02 	movl   $0x2,-0x650(%rbp)
    8dbf:	00 00 00 
    8dc2:	c7 85 b4 f9 ff ff 00 	movl   $0x0,-0x64c(%rbp)
    8dc9:	00 00 00 
    8dcc:	c7 85 b8 f9 ff ff 02 	movl   $0x2,-0x648(%rbp)
    8dd3:	00 00 00 
    8dd6:	c7 85 bc f9 ff ff 71 	movl   $0xc6880b71,-0x644(%rbp)
    8ddd:	0b 88 c6 
    8de0:	c7 85 c0 f9 ff ff 75 	movl   $0x2251fe75,-0x640(%rbp)
    8de7:	fe 51 22 
    8dea:	c7 85 c4 f9 ff ff 47 	movl   $0xf11b9347,-0x63c(%rbp)
    8df1:	93 1b f1 
    8df4:	c7 85 c8 f9 ff ff 71 	movl   $0xc6880b71,-0x638(%rbp)
    8dfb:	0b 88 c6 
    8dfe:	c7 85 cc f9 ff ff 71 	movl   $0xc6880b71,-0x634(%rbp)
    8e05:	0b 88 c6 
    8e08:	c7 85 d0 f9 ff ff 75 	movl   $0x2251fe75,-0x630(%rbp)
    8e0f:	fe 51 22 
    8e12:	66 c7 85 12 f7 ff ff 	movw   $0x1,-0x8ee(%rbp)
    8e19:	01 00 
    8e1b:	48 c7 85 48 f8 ff ff 	movq   $0xfffffffffffffffe,-0x7b8(%rbp)
    8e22:	fe ff ff ff 
    8e26:	48 8d 85 14 f7 ff ff 	lea    -0x8ec(%rbp),%rax
    8e2d:	48 89 85 e0 f8 ff ff 	mov    %rax,-0x720(%rbp)
    8e34:	48 8d 85 14 f7 ff ff 	lea    -0x8ec(%rbp),%rax
    8e3b:	48 89 85 e8 f8 ff ff 	mov    %rax,-0x718(%rbp)
    8e42:	48 8d 85 14 f7 ff ff 	lea    -0x8ec(%rbp),%rax
    8e49:	48 89 85 f0 f8 ff ff 	mov    %rax,-0x710(%rbp)
    8e50:	48 8d 85 14 f7 ff ff 	lea    -0x8ec(%rbp),%rax
    8e57:	48 89 85 f8 f8 ff ff 	mov    %rax,-0x708(%rbp)
    8e5e:	48 8d 85 14 f7 ff ff 	lea    -0x8ec(%rbp),%rax
    8e65:	48 89 85 00 f9 ff ff 	mov    %rax,-0x700(%rbp)
    8e6c:	48 8d 85 14 f7 ff ff 	lea    -0x8ec(%rbp),%rax
    8e73:	48 89 85 08 f9 ff ff 	mov    %rax,-0x6f8(%rbp)
    8e7a:	48 8d 85 14 f7 ff ff 	lea    -0x8ec(%rbp),%rax
    8e81:	48 89 85 10 f9 ff ff 	mov    %rax,-0x6f0(%rbp)
    8e88:	48 8d 85 14 f7 ff ff 	lea    -0x8ec(%rbp),%rax
    8e8f:	48 89 85 18 f9 ff ff 	mov    %rax,-0x6e8(%rbp)
    8e96:	48 8d 85 14 f7 ff ff 	lea    -0x8ec(%rbp),%rax
    8e9d:	48 89 85 20 f9 ff ff 	mov    %rax,-0x6e0(%rbp)
    8ea4:	48 8d 85 58 f7 ff ff 	lea    -0x8a8(%rbp),%rax
    8eab:	48 89 85 60 f7 ff ff 	mov    %rax,-0x8a0(%rbp)
    8eb2:	48 8d 85 60 f7 ff ff 	lea    -0x8a0(%rbp),%rax
    8eb9:	48 89 85 20 fc ff ff 	mov    %rax,-0x3e0(%rbp)
    8ec0:	48 8d 85 60 f7 ff ff 	lea    -0x8a0(%rbp),%rax
    8ec7:	48 89 85 28 fc ff ff 	mov    %rax,-0x3d8(%rbp)
    8ece:	48 c7 85 30 fc ff ff 	movq   $0x0,-0x3d0(%rbp)
    8ed5:	00 00 00 00 
    8ed9:	48 8d 85 60 f7 ff ff 	lea    -0x8a0(%rbp),%rax
    8ee0:	48 89 85 38 fc ff ff 	mov    %rax,-0x3c8(%rbp)
    8ee7:	48 8d 85 60 f7 ff ff 	lea    -0x8a0(%rbp),%rax
    8eee:	48 89 85 40 fc ff ff 	mov    %rax,-0x3c0(%rbp)
    8ef5:	48 c7 85 48 fc ff ff 	movq   $0x0,-0x3b8(%rbp)
    8efc:	00 00 00 00 
    8f00:	48 c7 85 50 fc ff ff 	movq   $0x0,-0x3b0(%rbp)
    8f07:	00 00 00 00 
    8f0b:	48 c7 85 58 fc ff ff 	movq   $0x0,-0x3a8(%rbp)
    8f12:	00 00 00 00 
    8f16:	48 8d 85 60 f7 ff ff 	lea    -0x8a0(%rbp),%rax
    8f1d:	48 89 85 60 fc ff ff 	mov    %rax,-0x3a0(%rbp)
    8f24:	48 c7 85 68 fc ff ff 	movq   $0x0,-0x398(%rbp)
    8f2b:	00 00 00 00 
    8f2f:	48 8d 85 60 f7 ff ff 	lea    -0x8a0(%rbp),%rax
    8f36:	48 89 85 70 fc ff ff 	mov    %rax,-0x390(%rbp)
    8f3d:	48 c7 85 78 fc ff ff 	movq   $0x0,-0x388(%rbp)
    8f44:	00 00 00 00 
    8f48:	48 8d 85 60 f7 ff ff 	lea    -0x8a0(%rbp),%rax
    8f4f:	48 89 85 80 fc ff ff 	mov    %rax,-0x380(%rbp)
    8f56:	48 c7 85 88 fc ff ff 	movq   $0x0,-0x378(%rbp)
    8f5d:	00 00 00 00 
    8f61:	48 8d 85 60 f7 ff ff 	lea    -0x8a0(%rbp),%rax
    8f68:	48 89 85 90 fc ff ff 	mov    %rax,-0x370(%rbp)
    8f6f:	48 8d 85 60 f7 ff ff 	lea    -0x8a0(%rbp),%rax
    8f76:	48 89 85 98 fc ff ff 	mov    %rax,-0x368(%rbp)
    8f7d:	48 8d 85 60 f7 ff ff 	lea    -0x8a0(%rbp),%rax
    8f84:	48 89 85 a0 fc ff ff 	mov    %rax,-0x360(%rbp)
    8f8b:	48 c7 85 a8 fc ff ff 	movq   $0x0,-0x358(%rbp)
    8f92:	00 00 00 00 
    8f96:	48 8d 85 60 f7 ff ff 	lea    -0x8a0(%rbp),%rax
    8f9d:	48 89 85 b0 fc ff ff 	mov    %rax,-0x350(%rbp)
    8fa4:	48 8d 85 60 f7 ff ff 	lea    -0x8a0(%rbp),%rax
    8fab:	48 89 85 b8 fc ff ff 	mov    %rax,-0x348(%rbp)
    8fb2:	48 c7 85 c0 fc ff ff 	movq   $0x0,-0x340(%rbp)
    8fb9:	00 00 00 00 
    8fbd:	48 c7 85 c8 fc ff ff 	movq   $0x0,-0x338(%rbp)
    8fc4:	00 00 00 00 
    8fc8:	48 8d 85 60 f7 ff ff 	lea    -0x8a0(%rbp),%rax
    8fcf:	48 89 85 d0 fc ff ff 	mov    %rax,-0x330(%rbp)
    8fd6:	48 8d 85 60 f7 ff ff 	lea    -0x8a0(%rbp),%rax
    8fdd:	48 89 85 d8 fc ff ff 	mov    %rax,-0x328(%rbp)
    8fe4:	48 c7 85 e0 fc ff ff 	movq   $0x0,-0x320(%rbp)
    8feb:	00 00 00 00 
    8fef:	48 8d 85 60 f7 ff ff 	lea    -0x8a0(%rbp),%rax
    8ff6:	48 89 85 e8 fc ff ff 	mov    %rax,-0x318(%rbp)
    8ffd:	48 8d 85 60 f7 ff ff 	lea    -0x8a0(%rbp),%rax
    9004:	48 89 85 f0 fc ff ff 	mov    %rax,-0x310(%rbp)
    900b:	48 c7 85 f8 fc ff ff 	movq   $0x0,-0x308(%rbp)
    9012:	00 00 00 00 
    9016:	48 8d 85 60 f7 ff ff 	lea    -0x8a0(%rbp),%rax
    901d:	48 89 85 00 fd ff ff 	mov    %rax,-0x300(%rbp)
    9024:	48 8d 85 60 f7 ff ff 	lea    -0x8a0(%rbp),%rax
    902b:	48 89 85 08 fd ff ff 	mov    %rax,-0x2f8(%rbp)
    9032:	48 8d 85 60 f7 ff ff 	lea    -0x8a0(%rbp),%rax
    9039:	48 89 85 10 fd ff ff 	mov    %rax,-0x2f0(%rbp)
    9040:	48 c7 85 18 fd ff ff 	movq   $0x0,-0x2e8(%rbp)
    9047:	00 00 00 00 
    904b:	48 8d 85 60 f7 ff ff 	lea    -0x8a0(%rbp),%rax
    9052:	48 89 85 20 fd ff ff 	mov    %rax,-0x2e0(%rbp)
    9059:	48 c7 85 28 fd ff ff 	movq   $0x0,-0x2d8(%rbp)
    9060:	00 00 00 00 
    9064:	48 8d 85 60 f7 ff ff 	lea    -0x8a0(%rbp),%rax
    906b:	48 89 85 30 fd ff ff 	mov    %rax,-0x2d0(%rbp)
    9072:	48 c7 85 38 fd ff ff 	movq   $0x0,-0x2c8(%rbp)
    9079:	00 00 00 00 
    907d:	48 8d 85 60 f7 ff ff 	lea    -0x8a0(%rbp),%rax
    9084:	48 89 85 40 fd ff ff 	mov    %rax,-0x2c0(%rbp)
    908b:	48 8d 85 60 f7 ff ff 	lea    -0x8a0(%rbp),%rax
    9092:	48 89 85 48 fd ff ff 	mov    %rax,-0x2b8(%rbp)
    9099:	48 8d 85 60 f7 ff ff 	lea    -0x8a0(%rbp),%rax
    90a0:	48 89 85 50 fd ff ff 	mov    %rax,-0x2b0(%rbp)
    90a7:	48 8d 85 60 f7 ff ff 	lea    -0x8a0(%rbp),%rax
    90ae:	48 89 85 58 fd ff ff 	mov    %rax,-0x2a8(%rbp)
    90b5:	48 8d 85 60 f7 ff ff 	lea    -0x8a0(%rbp),%rax
    90bc:	48 89 85 60 fd ff ff 	mov    %rax,-0x2a0(%rbp)
    90c3:	48 8d 85 60 f7 ff ff 	lea    -0x8a0(%rbp),%rax
    90ca:	48 89 85 68 fd ff ff 	mov    %rax,-0x298(%rbp)
    90d1:	48 8d 85 60 f7 ff ff 	lea    -0x8a0(%rbp),%rax
    90d8:	48 89 85 70 fd ff ff 	mov    %rax,-0x290(%rbp)
    90df:	48 c7 85 78 fd ff ff 	movq   $0x0,-0x288(%rbp)
    90e6:	00 00 00 00 
    90ea:	48 c7 85 80 fd ff ff 	movq   $0x0,-0x280(%rbp)
    90f1:	00 00 00 00 
    90f5:	48 8d 85 60 f7 ff ff 	lea    -0x8a0(%rbp),%rax
    90fc:	48 89 85 88 fd ff ff 	mov    %rax,-0x278(%rbp)
    9103:	48 8d 85 60 f7 ff ff 	lea    -0x8a0(%rbp),%rax
    910a:	48 89 85 90 fd ff ff 	mov    %rax,-0x270(%rbp)
    9111:	48 8d 85 60 f7 ff ff 	lea    -0x8a0(%rbp),%rax
    9118:	48 89 85 98 fd ff ff 	mov    %rax,-0x268(%rbp)
    911f:	48 c7 85 a0 fd ff ff 	movq   $0x0,-0x260(%rbp)
    9126:	00 00 00 00 
    912a:	48 c7 85 a8 fd ff ff 	movq   $0x0,-0x258(%rbp)
    9131:	00 00 00 00 
    9135:	48 8d 85 20 fc ff ff 	lea    -0x3e0(%rbp),%rax
    913c:	48 83 c0 18          	add    $0x18,%rax
    9140:	48 89 85 b0 fd ff ff 	mov    %rax,-0x250(%rbp)
    9147:	48 8d 85 20 fc ff ff 	lea    -0x3e0(%rbp),%rax
    914e:	48 05 00 01 00 00    	add    $0x100,%rax
    9154:	48 89 85 b8 fd ff ff 	mov    %rax,-0x248(%rbp)
    915b:	48 8d 85 20 fc ff ff 	lea    -0x3e0(%rbp),%rax
    9162:	48 05 c0 00 00 00    	add    $0xc0,%rax
    9168:	48 89 85 c0 fd ff ff 	mov    %rax,-0x240(%rbp)
    916f:	48 8d 85 20 fc ff ff 	lea    -0x3e0(%rbp),%rax
    9176:	48 05 88 00 00 00    	add    $0x88,%rax
    917c:	48 89 85 c8 fd ff ff 	mov    %rax,-0x238(%rbp)
    9183:	48 8d 85 20 fc ff ff 	lea    -0x3e0(%rbp),%rax
    918a:	48 05 90 00 00 00    	add    $0x90,%rax
    9190:	48 89 85 d0 fd ff ff 	mov    %rax,-0x230(%rbp)
    9197:	48 8d 85 20 fc ff ff 	lea    -0x3e0(%rbp),%rax
    919e:	48 83 c0 70          	add    $0x70,%rax
    91a2:	48 89 85 d8 fd ff ff 	mov    %rax,-0x228(%rbp)
    91a9:	48 8d 85 20 fc ff ff 	lea    -0x3e0(%rbp),%rax
    91b0:	48 05 88 00 00 00    	add    $0x88,%rax
    91b6:	48 89 85 e0 fd ff ff 	mov    %rax,-0x220(%rbp)
    91bd:	48 8d 85 20 fc ff ff 	lea    -0x3e0(%rbp),%rax
    91c4:	48 05 88 00 00 00    	add    $0x88,%rax
    91ca:	48 89 85 e8 fd ff ff 	mov    %rax,-0x218(%rbp)
    91d1:	48 8d 85 20 fc ff ff 	lea    -0x3e0(%rbp),%rax
    91d8:	48 83 c0 70          	add    $0x70,%rax
    91dc:	48 89 85 f0 fd ff ff 	mov    %rax,-0x210(%rbp)
    91e3:	48 8d 85 20 fc ff ff 	lea    -0x3e0(%rbp),%rax
    91ea:	48 05 30 01 00 00    	add    $0x130,%rax
    91f0:	48 89 85 f8 fd ff ff 	mov    %rax,-0x208(%rbp)
    91f7:	48 8d 85 20 fc ff ff 	lea    -0x3e0(%rbp),%rax
    91fe:	48 05 d8 00 00 00    	add    $0xd8,%rax
    9204:	48 89 85 00 fe ff ff 	mov    %rax,-0x200(%rbp)
    920b:	48 8d 85 20 fc ff ff 	lea    -0x3e0(%rbp),%rax
    9212:	48 05 88 00 00 00    	add    $0x88,%rax
    9218:	48 89 85 08 fe ff ff 	mov    %rax,-0x1f8(%rbp)
    921f:	48 8d 85 20 fc ff ff 	lea    -0x3e0(%rbp),%rax
    9226:	48 05 d8 00 00 00    	add    $0xd8,%rax
    922c:	48 89 85 10 fe ff ff 	mov    %rax,-0x1f0(%rbp)
    9233:	48 8d 85 20 fc ff ff 	lea    -0x3e0(%rbp),%rax
    923a:	48 83 e8 80          	sub    $0xffffffffffffff80,%rax
    923e:	48 89 85 18 fe ff ff 	mov    %rax,-0x1e8(%rbp)
    9245:	48 8d 85 20 fc ff ff 	lea    -0x3e0(%rbp),%rax
    924c:	48 05 88 00 00 00    	add    $0x88,%rax
    9252:	48 89 85 20 fe ff ff 	mov    %rax,-0x1e0(%rbp)
    9259:	48 8d 85 20 fc ff ff 	lea    -0x3e0(%rbp),%rax
    9260:	48 05 88 00 00 00    	add    $0x88,%rax
    9266:	48 89 85 28 fe ff ff 	mov    %rax,-0x1d8(%rbp)
    926d:	48 8d 85 20 fc ff ff 	lea    -0x3e0(%rbp),%rax
    9274:	48 83 e8 80          	sub    $0xffffffffffffff80,%rax
    9278:	48 89 85 30 fe ff ff 	mov    %rax,-0x1d0(%rbp)
    927f:	48 8d 85 20 fc ff ff 	lea    -0x3e0(%rbp),%rax
    9286:	48 05 d8 00 00 00    	add    $0xd8,%rax
    928c:	48 89 85 38 fe ff ff 	mov    %rax,-0x1c8(%rbp)
    9293:	48 8d 85 20 fc ff ff 	lea    -0x3e0(%rbp),%rax
    929a:	48 05 70 01 00 00    	add    $0x170,%rax
    92a0:	48 89 85 40 fe ff ff 	mov    %rax,-0x1c0(%rbp)
    92a7:	48 8d 85 20 fc ff ff 	lea    -0x3e0(%rbp),%rax
    92ae:	48 05 90 00 00 00    	add    $0x90,%rax
    92b4:	48 89 85 48 fe ff ff 	mov    %rax,-0x1b8(%rbp)
    92bb:	48 8d 85 20 fc ff ff 	lea    -0x3e0(%rbp),%rax
    92c2:	48 05 00 01 00 00    	add    $0x100,%rax
    92c8:	48 89 85 50 fe ff ff 	mov    %rax,-0x1b0(%rbp)
    92cf:	48 8d 85 20 fc ff ff 	lea    -0x3e0(%rbp),%rax
    92d6:	48 05 88 00 00 00    	add    $0x88,%rax
    92dc:	48 89 85 58 fe ff ff 	mov    %rax,-0x1a8(%rbp)
    92e3:	48 8d 85 20 fc ff ff 	lea    -0x3e0(%rbp),%rax
    92ea:	48 83 c0 08          	add    $0x8,%rax
    92ee:	48 89 85 60 fe ff ff 	mov    %rax,-0x1a0(%rbp)
    92f5:	48 c7 85 68 fe ff ff 	movq   $0x0,-0x198(%rbp)
    92fc:	00 00 00 00 
    9300:	48 8d 85 20 fc ff ff 	lea    -0x3e0(%rbp),%rax
    9307:	48 05 88 00 00 00    	add    $0x88,%rax
    930d:	48 89 85 70 fe ff ff 	mov    %rax,-0x190(%rbp)
    9314:	48 8d 85 20 fc ff ff 	lea    -0x3e0(%rbp),%rax
    931b:	48 83 c0 70          	add    $0x70,%rax
    931f:	48 89 85 78 fe ff ff 	mov    %rax,-0x188(%rbp)
    9326:	48 8d 85 20 fc ff ff 	lea    -0x3e0(%rbp),%rax
    932d:	48 83 e8 80          	sub    $0xffffffffffffff80,%rax
    9331:	48 89 85 80 fe ff ff 	mov    %rax,-0x180(%rbp)
    9338:	48 8d 85 20 fc ff ff 	lea    -0x3e0(%rbp),%rax
    933f:	48 05 70 01 00 00    	add    $0x170,%rax
    9345:	48 89 85 88 fe ff ff 	mov    %rax,-0x178(%rbp)
    934c:	48 c7 85 90 fe ff ff 	movq   $0x0,-0x170(%rbp)
    9353:	00 00 00 00 
    9357:	48 8d 85 20 fc ff ff 	lea    -0x3e0(%rbp),%rax
    935e:	48 05 c0 00 00 00    	add    $0xc0,%rax
    9364:	48 89 85 98 fe ff ff 	mov    %rax,-0x168(%rbp)
    936b:	48 8d 85 20 fc ff ff 	lea    -0x3e0(%rbp),%rax
    9372:	48 05 88 00 00 00    	add    $0x88,%rax
    9378:	48 89 85 a0 fe ff ff 	mov    %rax,-0x160(%rbp)
    937f:	48 c7 85 a8 fe ff ff 	movq   $0x0,-0x158(%rbp)
    9386:	00 00 00 00 
    938a:	48 8d 85 20 fc ff ff 	lea    -0x3e0(%rbp),%rax
    9391:	48 05 c0 00 00 00    	add    $0xc0,%rax
    9397:	48 89 85 b0 fe ff ff 	mov    %rax,-0x150(%rbp)
    939e:	48 8d 85 20 fc ff ff 	lea    -0x3e0(%rbp),%rax
    93a5:	48 05 d8 00 00 00    	add    $0xd8,%rax
    93ab:	48 89 85 b8 fe ff ff 	mov    %rax,-0x148(%rbp)
    93b2:	48 8d 85 20 fc ff ff 	lea    -0x3e0(%rbp),%rax
    93b9:	48 05 00 01 00 00    	add    $0x100,%rax
    93bf:	48 89 85 c0 fe ff ff 	mov    %rax,-0x140(%rbp)
    93c6:	48 8d 85 20 fc ff ff 	lea    -0x3e0(%rbp),%rax
    93cd:	48 05 88 00 00 00    	add    $0x88,%rax
    93d3:	48 89 85 c8 fe ff ff 	mov    %rax,-0x138(%rbp)
    93da:	48 8d 85 20 fc ff ff 	lea    -0x3e0(%rbp),%rax
    93e1:	48 05 30 01 00 00    	add    $0x130,%rax
    93e7:	48 89 85 d0 fe ff ff 	mov    %rax,-0x130(%rbp)
    93ee:	48 8d 85 20 fc ff ff 	lea    -0x3e0(%rbp),%rax
    93f5:	48 05 88 00 00 00    	add    $0x88,%rax
    93fb:	48 89 85 d8 fe ff ff 	mov    %rax,-0x128(%rbp)
    9402:	48 8d 85 20 fc ff ff 	lea    -0x3e0(%rbp),%rax
    9409:	48 05 88 00 00 00    	add    $0x88,%rax
    940f:	48 89 85 e0 fe ff ff 	mov    %rax,-0x120(%rbp)
    9416:	48 8d 85 20 fc ff ff 	lea    -0x3e0(%rbp),%rax
    941d:	48 05 88 00 00 00    	add    $0x88,%rax
    9423:	48 89 85 e8 fe ff ff 	mov    %rax,-0x118(%rbp)
    942a:	48 8d 85 20 fc ff ff 	lea    -0x3e0(%rbp),%rax
    9431:	48 05 88 00 00 00    	add    $0x88,%rax
    9437:	48 89 85 f0 fe ff ff 	mov    %rax,-0x110(%rbp)
    943e:	48 8d 85 20 fc ff ff 	lea    -0x3e0(%rbp),%rax
    9445:	48 83 e8 80          	sub    $0xffffffffffffff80,%rax
    9449:	48 89 85 f8 fe ff ff 	mov    %rax,-0x108(%rbp)
    9450:	48 8d 85 20 fc ff ff 	lea    -0x3e0(%rbp),%rax
    9457:	48 05 88 00 00 00    	add    $0x88,%rax
    945d:	48 89 85 00 ff ff ff 	mov    %rax,-0x100(%rbp)
    9464:	48 8d 85 20 fc ff ff 	lea    -0x3e0(%rbp),%rax
    946b:	48 83 e8 80          	sub    $0xffffffffffffff80,%rax
    946f:	48 89 85 08 ff ff ff 	mov    %rax,-0xf8(%rbp)
    9476:	48 8d 85 20 fc ff ff 	lea    -0x3e0(%rbp),%rax
    947d:	48 05 88 00 00 00    	add    $0x88,%rax
    9483:	48 89 85 10 ff ff ff 	mov    %rax,-0xf0(%rbp)
    948a:	48 8d 85 20 fc ff ff 	lea    -0x3e0(%rbp),%rax
    9491:	48 83 c0 18          	add    $0x18,%rax
    9495:	48 89 85 18 ff ff ff 	mov    %rax,-0xe8(%rbp)
    949c:	48 c7 85 20 ff ff ff 	movq   $0x0,-0xe0(%rbp)
    94a3:	00 00 00 00 
    94a7:	48 c7 85 28 ff ff ff 	movq   $0x0,-0xd8(%rbp)
    94ae:	00 00 00 00 
    94b2:	48 8d 85 20 fc ff ff 	lea    -0x3e0(%rbp),%rax
    94b9:	48 05 88 00 00 00    	add    $0x88,%rax
    94bf:	48 89 85 30 ff ff ff 	mov    %rax,-0xd0(%rbp)
    94c6:	48 8d 85 20 fc ff ff 	lea    -0x3e0(%rbp),%rax
    94cd:	48 05 30 01 00 00    	add    $0x130,%rax
    94d3:	48 89 85 38 ff ff ff 	mov    %rax,-0xc8(%rbp)
    94da:	48 c7 85 40 ff ff ff 	movq   $0x0,-0xc0(%rbp)
    94e1:	00 00 00 00 
    94e5:	48 8d 85 20 fc ff ff 	lea    -0x3e0(%rbp),%rax
    94ec:	48 05 88 00 00 00    	add    $0x88,%rax
    94f2:	48 89 85 48 ff ff ff 	mov    %rax,-0xb8(%rbp)
    94f9:	48 8d 85 20 fc ff ff 	lea    -0x3e0(%rbp),%rax
    9500:	48 05 70 01 00 00    	add    $0x170,%rax
    9506:	48 89 85 50 ff ff ff 	mov    %rax,-0xb0(%rbp)
    950d:	48 c7 85 58 ff ff ff 	movq   $0x0,-0xa8(%rbp)
    9514:	00 00 00 00 
    9518:	48 8d 85 20 fc ff ff 	lea    -0x3e0(%rbp),%rax
    951f:	48 05 88 00 00 00    	add    $0x88,%rax
    9525:	48 89 85 60 ff ff ff 	mov    %rax,-0xa0(%rbp)
    952c:	48 c7 85 68 ff ff ff 	movq   $0x0,-0x98(%rbp)
    9533:	00 00 00 00 
    9537:	48 8d 85 20 fc ff ff 	lea    -0x3e0(%rbp),%rax
    953e:	48 05 70 01 00 00    	add    $0x170,%rax
    9544:	48 89 85 70 ff ff ff 	mov    %rax,-0x90(%rbp)
    954b:	48 8d 85 20 fc ff ff 	lea    -0x3e0(%rbp),%rax
    9552:	48 05 88 00 00 00    	add    $0x88,%rax
    9558:	48 89 85 78 ff ff ff 	mov    %rax,-0x88(%rbp)
    955f:	48 c7 45 80 00 00 00 	movq   $0x0,-0x80(%rbp)
    9566:	00 
    9567:	48 8d 85 20 fc ff ff 	lea    -0x3e0(%rbp),%rax
    956e:	48 05 30 01 00 00    	add    $0x130,%rax
    9574:	48 89 45 88          	mov    %rax,-0x78(%rbp)
    9578:	48 8d 85 20 fc ff ff 	lea    -0x3e0(%rbp),%rax
    957f:	48 05 88 00 00 00    	add    $0x88,%rax
    9585:	48 89 45 90          	mov    %rax,-0x70(%rbp)
    9589:	48 c7 45 98 00 00 00 	movq   $0x0,-0x68(%rbp)
    9590:	00 
    9591:	48 c7 45 a0 00 00 00 	movq   $0x0,-0x60(%rbp)
    9598:	00 
    9599:	48 8d 85 20 fc ff ff 	lea    -0x3e0(%rbp),%rax
    95a0:	48 83 c0 18          	add    $0x18,%rax
    95a4:	48 89 45 a8          	mov    %rax,-0x58(%rbp)
    95a8:	48 8d 85 20 fc ff ff 	lea    -0x3e0(%rbp),%rax
    95af:	48 05 88 00 00 00    	add    $0x88,%rax
    95b5:	48 89 45 b0          	mov    %rax,-0x50(%rbp)
    95b9:	48 8d 85 20 fc ff ff 	lea    -0x3e0(%rbp),%rax
    95c0:	48 83 e8 80          	sub    $0xffffffffffffff80,%rax
    95c4:	48 89 45 b8          	mov    %rax,-0x48(%rbp)
    95c8:	48 8d 85 20 fc ff ff 	lea    -0x3e0(%rbp),%rax
    95cf:	48 05 88 00 00 00    	add    $0x88,%rax
    95d5:	48 89 45 c0          	mov    %rax,-0x40(%rbp)
    95d9:	48 8d 85 20 fc ff ff 	lea    -0x3e0(%rbp),%rax
    95e0:	48 83 e8 80          	sub    $0xffffffffffffff80,%rax
    95e4:	48 89 45 c8          	mov    %rax,-0x38(%rbp)
    95e8:	c6 85 0f f7 ff ff 01 	movb   $0x1,-0x8f1(%rbp)
    95ef:	48 8d 05 ea 9b 00 00 	lea    0x9bea(%rip),%rax        # 131e0 <g_426>
    95f6:	48 89 85 50 f8 ff ff 	mov    %rax,-0x7b0(%rbp)
    95fd:	48 8d 05 e0 9a 00 00 	lea    0x9ae0(%rip),%rax        # 130e4 <g_186>
    9604:	48 89 85 68 f7 ff ff 	mov    %rax,-0x898(%rbp)
    960b:	48 8d 85 68 f7 ff ff 	lea    -0x898(%rbp),%rax
    9612:	48 89 85 58 f8 ff ff 	mov    %rax,-0x7a8(%rbp)
    9619:	48 8d 05 7e 9a 00 00 	lea    0x9a7e(%rip),%rax        # 1309e <g_93+0x5e>
    9620:	48 89 85 30 f9 ff ff 	mov    %rax,-0x6d0(%rbp)
    9627:	48 8d 85 10 f7 ff ff 	lea    -0x8f0(%rbp),%rax
    962e:	48 89 85 38 f9 ff ff 	mov    %rax,-0x6c8(%rbp)
    9635:	48 8d 05 62 9a 00 00 	lea    0x9a62(%rip),%rax        # 1309e <g_93+0x5e>
    963c:	48 89 85 40 f9 ff ff 	mov    %rax,-0x6c0(%rbp)
    9643:	48 8d 85 10 f7 ff ff 	lea    -0x8f0(%rbp),%rax
    964a:	48 89 85 48 f9 ff ff 	mov    %rax,-0x6b8(%rbp)
    9651:	48 8d 05 46 9a 00 00 	lea    0x9a46(%rip),%rax        # 1309e <g_93+0x5e>
    9658:	48 89 85 50 f9 ff ff 	mov    %rax,-0x6b0(%rbp)
    965f:	48 8d 85 10 f7 ff ff 	lea    -0x8f0(%rbp),%rax
    9666:	48 89 85 58 f9 ff ff 	mov    %rax,-0x6a8(%rbp)
    966d:	48 8d 05 2a 9a 00 00 	lea    0x9a2a(%rip),%rax        # 1309e <g_93+0x5e>
    9674:	48 89 85 60 f9 ff ff 	mov    %rax,-0x6a0(%rbp)
    967b:	48 8d 85 10 f7 ff ff 	lea    -0x8f0(%rbp),%rax
    9682:	48 89 85 68 f9 ff ff 	mov    %rax,-0x698(%rbp)
    9689:	48 8d 05 0e 9a 00 00 	lea    0x9a0e(%rip),%rax        # 1309e <g_93+0x5e>
    9690:	48 89 85 70 f9 ff ff 	mov    %rax,-0x690(%rbp)
    9697:	48 c7 85 60 f8 ff ff 	movq   $0xffffffffffffffff,-0x7a0(%rbp)
    969e:	ff ff ff ff 
    96a2:	c7 85 e0 f9 ff ff ff 	movl   $0xcd191dff,-0x620(%rbp)
    96a9:	1d 19 cd 
    96ac:	c7 85 e4 f9 ff ff ff 	movl   $0xcd191dff,-0x61c(%rbp)
    96b3:	1d 19 cd 
    96b6:	c7 85 e8 f9 ff ff 4f 	movl   $0xa703044f,-0x618(%rbp)
    96bd:	04 03 a7 
    96c0:	c7 85 ec f9 ff ff 4f 	movl   $0xa703044f,-0x614(%rbp)
    96c7:	04 03 a7 
    96ca:	c7 85 f0 f9 ff ff ff 	movl   $0xcd191dff,-0x610(%rbp)
    96d1:	1d 19 cd 
    96d4:	c7 85 f4 f9 ff ff ff 	movl   $0xcd191dff,-0x60c(%rbp)
    96db:	1d 19 cd 
    96de:	c7 85 f8 f9 ff ff ff 	movl   $0xcd191dff,-0x608(%rbp)
    96e5:	1d 19 cd 
    96e8:	c7 85 fc f9 ff ff 4f 	movl   $0xa703044f,-0x604(%rbp)
    96ef:	04 03 a7 
    96f2:	c7 85 00 fa ff ff 4f 	movl   $0xa703044f,-0x600(%rbp)
    96f9:	04 03 a7 
    96fc:	c7 85 04 fa ff ff ff 	movl   $0xcd191dff,-0x5fc(%rbp)
    9703:	1d 19 cd 
    9706:	c7 85 08 fa ff ff ff 	movl   $0xcd191dff,-0x5f8(%rbp)
    970d:	1d 19 cd 
    9710:	c7 85 0c fa ff ff 4f 	movl   $0xa703044f,-0x5f4(%rbp)
    9717:	04 03 a7 
    971a:	c7 85 10 fa ff ff ff 	movl   $0xcd191dff,-0x5f0(%rbp)
    9721:	1d 19 cd 
    9724:	c7 85 14 fa ff ff ff 	movl   $0xcd191dff,-0x5ec(%rbp)
    972b:	1d 19 cd 
    972e:	c7 85 18 fa ff ff 4f 	movl   $0xa703044f,-0x5e8(%rbp)
    9735:	04 03 a7 
    9738:	c7 85 1c fa ff ff 4f 	movl   $0xa703044f,-0x5e4(%rbp)
    973f:	04 03 a7 
    9742:	c7 85 20 fa ff ff ff 	movl   $0xcd191dff,-0x5e0(%rbp)
    9749:	1d 19 cd 
    974c:	c7 85 24 fa ff ff ff 	movl   $0xcd191dff,-0x5dc(%rbp)
    9753:	1d 19 cd 
    9756:	c7 85 28 fa ff ff ff 	movl   $0xcd191dff,-0x5d8(%rbp)
    975d:	1d 19 cd 
    9760:	c7 85 2c fa ff ff 4f 	movl   $0xa703044f,-0x5d4(%rbp)
    9767:	04 03 a7 
    976a:	c7 85 30 fa ff ff 4f 	movl   $0xa703044f,-0x5d0(%rbp)
    9771:	04 03 a7 
    9774:	c7 85 34 fa ff ff ff 	movl   $0xcd191dff,-0x5cc(%rbp)
    977b:	1d 19 cd 
    977e:	c7 85 38 fa ff ff ff 	movl   $0xcd191dff,-0x5c8(%rbp)
    9785:	1d 19 cd 
    9788:	c7 85 3c fa ff ff 4f 	movl   $0xa703044f,-0x5c4(%rbp)
    978f:	04 03 a7 
    9792:	8b 05 48 99 00 00    	mov    0x9948(%rip),%eax        # 130e0 <g_164>
    9798:	83 e8 01             	sub    $0x1,%eax
    979b:	89 05 3f 99 00 00    	mov    %eax,0x993f(%rip)        # 130e0 <g_164>
    97a1:	8b 05 39 99 00 00    	mov    0x9939(%rip),%eax        # 130e0 <g_164>
    97a7:	85 c0                	test   %eax,%eax
    97a9:	0f 8f 07 f5 ff ff    	jg     8cb6 <func_33+0x516>
    97af:	48 8b 85 88 f7 ff ff 	mov    -0x878(%rbp),%rax
    97b6:	48 8b 00             	mov    (%rax),%rax
    97b9:	48 8b 00             	mov    (%rax),%rax
    97bc:	8b 18                	mov    (%rax),%ebx
    97be:	48 8b 85 48 f7 ff ff 	mov    -0x8b8(%rbp),%rax
    97c5:	44 8b 28             	mov    (%rax),%r13d
    97c8:	83 bd fc f6 ff ff 00 	cmpl   $0x0,-0x904(%rbp)
    97cf:	0f 94 c0             	sete   %al
    97d2:	44 0f b6 f0          	movzbl %al,%r14d
    97d6:	48 8b 85 88 f7 ff ff 	mov    -0x878(%rbp),%rax
    97dd:	48 8b 00             	mov    (%rax),%rax
    97e0:	48 8b 00             	mov    (%rax),%rax
    97e3:	8b 00                	mov    (%rax),%eax
    97e5:	44 0f be e0          	movsbl %al,%r12d
    97e9:	0f b6 05 7d 99 00 00 	movzbl 0x997d(%rip),%eax        # 1316d <g_425+0x4d>
    97f0:	0f be c0             	movsbl %al,%eax
    97f3:	be 00 00 00 00       	mov    $0x0,%esi
    97f8:	89 c7                	mov    %eax,%edi
    97fa:	e8 ef 9a ff ff       	callq  32ee <safe_lshift_func_int8_t_s_u>
    97ff:	66 0f be d0          	movsbw %al,%dx
    9803:	48 8b 85 e8 f6 ff ff 	mov    -0x918(%rbp),%rax
    980a:	66 89 10             	mov    %dx,(%rax)
    980d:	48 8b 85 e8 f6 ff ff 	mov    -0x918(%rbp),%rax
    9814:	0f b7 00             	movzwl (%rax),%eax
    9817:	66 85 c0             	test   %ax,%ax
    981a:	75 11                	jne    982d <func_33+0x108d>
    981c:	48 8b 85 88 f7 ff ff 	mov    -0x878(%rbp),%rax
    9823:	48 8b 00             	mov    (%rax),%rax
    9826:	48 8b 00             	mov    (%rax),%rax
    9829:	8b 00                	mov    (%rax),%eax
    982b:	85 c0                	test   %eax,%eax
    982d:	48 8b 05 74 98 00 00 	mov    0x9874(%rip),%rax        # 130a8 <g_95>
    9834:	88 05 aa 98 00 00    	mov    %al,0x98aa(%rip)        # 130e4 <g_186>
    983a:	0f b6 05 a3 98 00 00 	movzbl 0x98a3(%rip),%eax        # 130e4 <g_186>
    9841:	66 0f be d0          	movsbw %al,%dx
    9845:	48 8b 85 98 f7 ff ff 	mov    -0x868(%rbp),%rax
    984c:	48 8d 8d 40 fa ff ff 	lea    -0x5c0(%rbp),%rcx
    9853:	48 83 c1 50          	add    $0x50,%rcx
    9857:	48 89 08             	mov    %rcx,(%rax)
    985a:	48 8b 85 98 f7 ff ff 	mov    -0x868(%rbp),%rax
    9861:	48 8b 08             	mov    (%rax),%rcx
    9864:	48 8b 85 a0 f7 ff ff 	mov    -0x860(%rbp),%rax
    986b:	48 8d 35 76 99 00 00 	lea    0x9976(%rip),%rsi        # 131e8 <g_447>
    9872:	48 89 30             	mov    %rsi,(%rax)
    9875:	48 8b 85 a0 f7 ff ff 	mov    -0x860(%rbp),%rax
    987c:	48 8b 00             	mov    (%rax),%rax
    987f:	48 39 c1             	cmp    %rax,%rcx
    9882:	0f 94 c0             	sete   %al
    9885:	0f b6 c0             	movzbl %al,%eax
    9888:	21 d0                	and    %edx,%eax
    988a:	98                   	cwtl   
    988b:	be d2 f6 ff ff       	mov    $0xfffff6d2,%esi
    9890:	89 c7                	mov    %eax,%edi
    9892:	e8 3c 9b ff ff       	callq  33d3 <safe_sub_func_int16_t_s_s>
    9897:	0f b6 c0             	movzbl %al,%eax
    989a:	be 06 00 00 00       	mov    $0x6,%esi
    989f:	89 c7                	mov    %eax,%edi
    98a1:	e8 e7 a3 ff ff       	callq  3c8d <safe_rshift_func_uint8_t_u_s>
    98a6:	89 c2                	mov    %eax,%edx
    98a8:	48 8b 85 78 f7 ff ff 	mov    -0x888(%rbp),%rax
    98af:	48 8b 00             	mov    (%rax),%rax
    98b2:	83 e2 d2             	and    $0xffffffd2,%edx
    98b5:	88 10                	mov    %dl,(%rax)
    98b7:	0f b6 00             	movzbl (%rax),%eax
    98ba:	0f b6 d0             	movzbl %al,%edx
    98bd:	48 8b 85 48 f7 ff ff 	mov    -0x8b8(%rbp),%rax
    98c4:	8b 00                	mov    (%rax),%eax
    98c6:	39 c2                	cmp    %eax,%edx
    98c8:	7f 07                	jg     98d1 <func_33+0x1131>
    98ca:	ba 01 00 00 00       	mov    $0x1,%edx
    98cf:	eb 05                	jmp    98d6 <func_33+0x1136>
    98d1:	ba 00 00 00 00       	mov    $0x0,%edx
    98d6:	48 8b 85 88 f7 ff ff 	mov    -0x878(%rbp),%rax
    98dd:	48 8b 00             	mov    (%rax),%rax
    98e0:	48 8b 00             	mov    (%rax),%rax
    98e3:	8b 00                	mov    (%rax),%eax
    98e5:	39 c2                	cmp    %eax,%edx
    98e7:	0f 9e c0             	setle  %al
    98ea:	0f b6 c0             	movzbl %al,%eax
    98ed:	44 89 e6             	mov    %r12d,%esi
    98f0:	89 c7                	mov    %eax,%edi
    98f2:	e8 1b 99 ff ff       	callq  3212 <safe_mul_func_int8_t_s_s>
    98f7:	0f be c0             	movsbl %al,%eax
    98fa:	41 39 c6             	cmp    %eax,%r14d
    98fd:	0f 94 c0             	sete   %al
    9900:	0f b6 c0             	movzbl %al,%eax
    9903:	39 85 fc f6 ff ff    	cmp    %eax,-0x904(%rbp)
    9909:	0f 95 c0             	setne  %al
    990c:	0f b6 c0             	movzbl %al,%eax
    990f:	41 39 c5             	cmp    %eax,%r13d
    9912:	0f 9c c0             	setl   %al
    9915:	0f b6 c0             	movzbl %al,%eax
    9918:	89 de                	mov    %ebx,%esi
    991a:	89 c7                	mov    %eax,%edi
    991c:	e8 ab 9d ff ff       	callq  36cc <safe_mod_func_int32_t_s_s>
    9921:	85 c0                	test   %eax,%eax
    9923:	74 2a                	je     994f <func_33+0x11af>
    9925:	48 8d 05 72 97 00 00 	lea    0x9772(%rip),%rax        # 1309e <g_93+0x5e>
    992c:	48 89 85 10 f8 ff ff 	mov    %rax,-0x7f0(%rbp)
    9933:	48 83 bd 10 f8 ff ff 	cmpq   $0x0,-0x7f0(%rbp)
    993a:	00 
    993b:	0f 94 c2             	sete   %dl
    993e:	48 8b 85 48 f7 ff ff 	mov    -0x8b8(%rbp),%rax
    9945:	0f b6 d2             	movzbl %dl,%edx
    9948:	89 10                	mov    %edx,(%rax)
    994a:	e9 a8 06 00 00       	jmpq   9ff7 <func_33+0x1857>
    994f:	48 8d 05 a2 98 00 00 	lea    0x98a2(%rip),%rax        # 131f8 <g_564>
    9956:	48 89 85 b8 f7 ff ff 	mov    %rax,-0x848(%rbp)
    995d:	c6 85 0e f7 ff ff 00 	movb   $0x0,-0x8f2(%rbp)
    9964:	c7 85 30 f7 ff ff be 	movl   $0xb60b9abe,-0x8d0(%rbp)
    996b:	9a 0b b6 
    996e:	48 8d 05 63 a7 00 00 	lea    0xa763(%rip),%rax        # 140d8 <g_127+0x18>
    9975:	48 89 85 c0 f7 ff ff 	mov    %rax,-0x840(%rbp)
    997c:	48 8b 05 4d a8 00 00 	mov    0xa84d(%rip),%rax        # 141d0 <g_951>
    9983:	48 8b 95 b8 f7 ff ff 	mov    -0x848(%rbp),%rdx
    998a:	48 89 10             	mov    %rdx,(%rax)
    998d:	c7 85 14 f7 ff ff 0d 	movl   $0xd,-0x8ec(%rbp)
    9994:	00 00 00 
    9997:	e9 4c 06 00 00       	jmpq   9fe8 <func_33+0x1848>
    999c:	48 8d 05 55 97 00 00 	lea    0x9755(%rip),%rax        # 130f8 <g_303>
    99a3:	48 89 85 58 f7 ff ff 	mov    %rax,-0x8a8(%rbp)
    99aa:	48 8d 85 58 f7 ff ff 	lea    -0x8a8(%rbp),%rax
    99b1:	48 89 85 c8 f7 ff ff 	mov    %rax,-0x838(%rbp)
    99b8:	48 c7 85 d0 f7 ff ff 	movq   $0x0,-0x830(%rbp)
    99bf:	00 00 00 00 
    99c3:	48 8d 05 36 97 00 00 	lea    0x9736(%rip),%rax        # 13100 <g_360>
    99ca:	48 89 85 60 f7 ff ff 	mov    %rax,-0x8a0(%rbp)
    99d1:	48 8d 85 60 f7 ff ff 	lea    -0x8a0(%rbp),%rax
    99d8:	48 89 85 d8 f7 ff ff 	mov    %rax,-0x828(%rbp)
    99df:	c7 85 34 f7 ff ff 61 	movl   $0x64676d61,-0x8cc(%rbp)
    99e6:	6d 67 64 
    99e9:	c6 85 0d f7 ff ff d9 	movb   $0xd9,-0x8f3(%rbp)
    99f0:	48 8d 05 91 a8 00 00 	lea    0xa891(%rip),%rax        # 14288 <g_987+0x68>
    99f7:	48 89 85 e0 f7 ff ff 	mov    %rax,-0x820(%rbp)
    99fe:	c7 85 38 f7 ff ff 00 	movl   $0x0,-0x8c8(%rbp)
    9a05:	00 00 00 
    9a08:	48 8b 85 48 f7 ff ff 	mov    -0x8b8(%rbp),%rax
    9a0f:	8b 00                	mov    (%rax),%eax
    9a11:	85 c0                	test   %eax,%eax
    9a13:	75 0c                	jne    9a21 <func_33+0x1281>
    9a15:	48 8b 05 e4 96 00 00 	mov    0x96e4(%rip),%rax        # 13100 <g_360>
    9a1c:	48 85 c0             	test   %rax,%rax
    9a1f:	74 07                	je     9a28 <func_33+0x1288>
    9a21:	bb 01 00 00 00       	mov    $0x1,%ebx
    9a26:	eb 05                	jmp    9a2d <func_33+0x128d>
    9a28:	bb 00 00 00 00       	mov    $0x0,%ebx
    9a2d:	48 8b 85 b8 f7 ff ff 	mov    -0x848(%rbp),%rax
    9a34:	8b 00                	mov    (%rax),%eax
    9a36:	85 c0                	test   %eax,%eax
    9a38:	74 07                	je     9a41 <func_33+0x12a1>
    9a3a:	c6 85 0d f7 ff ff 00 	movb   $0x0,-0x8f3(%rbp)
    9a41:	b8 00 00 00 00       	mov    $0x0,%eax
    9a46:	98                   	cwtl   
    9a47:	be 0a 00 00 00       	mov    $0xa,%esi
    9a4c:	89 c7                	mov    %eax,%edi
    9a4e:	e8 d7 9a ff ff       	callq  352a <safe_rshift_func_int16_t_s_s>
    9a53:	98                   	cwtl   
    9a54:	39 c3                	cmp    %eax,%ebx
    9a56:	0f 95 c0             	setne  %al
    9a59:	0f b6 d0             	movzbl %al,%edx
    9a5c:	48 8b 85 b8 f7 ff ff 	mov    -0x848(%rbp),%rax
    9a63:	8b 00                	mov    (%rax),%eax
    9a65:	39 c2                	cmp    %eax,%edx
    9a67:	0f 9f c0             	setg   %al
    9a6a:	0f b6 c0             	movzbl %al,%eax
    9a6d:	48 89 c6             	mov    %rax,%rsi
    9a70:	bf 01 00 00 00       	mov    $0x1,%edi
    9a75:	e8 d1 a5 ff ff       	callq  404b <safe_sub_func_uint64_t_u_u>
    9a7a:	48 89 c2             	mov    %rax,%rdx
    9a7d:	48 8b 85 78 f7 ff ff 	mov    -0x888(%rbp),%rax
    9a84:	48 8b 00             	mov    (%rax),%rax
    9a87:	0f b6 08             	movzbl (%rax),%ecx
    9a8a:	48 8b 85 78 f7 ff ff 	mov    -0x888(%rbp),%rax
    9a91:	48 8b 00             	mov    (%rax),%rax
    9a94:	31 ca                	xor    %ecx,%edx
    9a96:	88 10                	mov    %dl,(%rax)
    9a98:	0f b6 00             	movzbl (%rax),%eax
    9a9b:	0f be d0             	movsbl %al,%edx
    9a9e:	0f b7 05 87 95 00 00 	movzwl 0x9587(%rip),%eax        # 1302c <g_72>
    9aa5:	0f bf f0             	movswl %ax,%esi
    9aa8:	48 8b 85 c8 f7 ff ff 	mov    -0x838(%rbp),%rax
    9aaf:	48 8d 0d 42 96 00 00 	lea    0x9642(%rip),%rcx        # 130f8 <g_303>
    9ab6:	48 89 08             	mov    %rcx,(%rax)
    9ab9:	48 8b 85 c8 f7 ff ff 	mov    -0x838(%rbp),%rax
    9ac0:	48 8b 00             	mov    (%rax),%rax
    9ac3:	48 89 05 0e a7 00 00 	mov    %rax,0xa70e(%rip)        # 141d8 <g_963>
    9aca:	48 8b 3d 07 a7 00 00 	mov    0xa707(%rip),%rdi        # 141d8 <g_963>
    9ad1:	48 8b 8d d8 fb ff ff 	mov    -0x428(%rbp),%rcx
    9ad8:	48 8b 85 d8 f7 ff ff 	mov    -0x828(%rbp),%rax
    9adf:	48 89 08             	mov    %rcx,(%rax)
    9ae2:	48 8b 85 d8 f7 ff ff 	mov    -0x828(%rbp),%rax
    9ae9:	48 8b 00             	mov    (%rax),%rax
    9aec:	48 39 c7             	cmp    %rax,%rdi
    9aef:	0f 95 c0             	setne  %al
    9af2:	0f b6 c0             	movzbl %al,%eax
    9af5:	39 c6                	cmp    %eax,%esi
    9af7:	0f 9e c0             	setle  %al
    9afa:	0f b6 c0             	movzbl %al,%eax
    9afd:	89 d6                	mov    %edx,%esi
    9aff:	89 c7                	mov    %eax,%edi
    9b01:	e8 ec 96 ff ff       	callq  31f2 <safe_sub_func_int8_t_s_s>
    9b06:	0f be c0             	movsbl %al,%eax
    9b09:	be 56 28 f5 11       	mov    $0x11f52856,%esi
    9b0e:	89 c7                	mov    %eax,%edi
    9b10:	e8 bb a3 ff ff       	callq  3ed0 <safe_sub_func_uint32_t_u_u>
    9b15:	48 8b 15 94 a6 00 00 	mov    0xa694(%rip),%rdx        # 141b0 <g_801>
    9b1c:	8b 12                	mov    (%rdx),%edx
    9b1e:	21 c2                	and    %eax,%edx
    9b20:	48 8b 05 89 a6 00 00 	mov    0xa689(%rip),%rax        # 141b0 <g_801>
    9b27:	89 10                	mov    %edx,(%rax)
    9b29:	c7 85 18 f7 ff ff ff 	movl   $0xffffffff,-0x8e8(%rbp)
    9b30:	ff ff ff 
    9b33:	e9 43 03 00 00       	jmpq   9e7b <func_33+0x16db>
    9b38:	48 8d 05 31 a7 00 00 	lea    0xa731(%rip),%rax        # 14270 <g_987+0x50>
    9b3f:	48 89 85 e8 f7 ff ff 	mov    %rax,-0x818(%rbp)
    9b46:	c7 85 3c f7 ff ff ff 	movl   $0xffffffff,-0x8c4(%rbp)
    9b4d:	ff ff ff 
    9b50:	48 c7 85 68 f7 ff ff 	movq   $0x0,-0x898(%rbp)
    9b57:	00 00 00 00 
    9b5b:	48 c7 85 f0 f7 ff ff 	movq   $0x0,-0x810(%rbp)
    9b62:	00 00 00 00 
    9b66:	48 c7 85 a0 fd ff ff 	movq   $0x0,-0x260(%rbp)
    9b6d:	00 00 00 00 
    9b71:	48 c7 85 a8 fd ff ff 	movq   $0x0,-0x258(%rbp)
    9b78:	00 00 00 00 
    9b7c:	48 8d 85 68 f7 ff ff 	lea    -0x898(%rbp),%rax
    9b83:	48 89 85 b0 fd ff ff 	mov    %rax,-0x250(%rbp)
    9b8a:	48 8d 05 47 a5 00 00 	lea    0xa547(%rip),%rax        # 140d8 <g_127+0x18>
    9b91:	48 89 85 b8 fd ff ff 	mov    %rax,-0x248(%rbp)
    9b98:	48 8d 05 39 a5 00 00 	lea    0xa539(%rip),%rax        # 140d8 <g_127+0x18>
    9b9f:	48 89 85 c0 fd ff ff 	mov    %rax,-0x240(%rbp)
    9ba6:	48 8d 85 68 f7 ff ff 	lea    -0x898(%rbp),%rax
    9bad:	48 89 85 c8 fd ff ff 	mov    %rax,-0x238(%rbp)
    9bb4:	48 c7 85 d0 fd ff ff 	movq   $0x0,-0x230(%rbp)
    9bbb:	00 00 00 00 
    9bbf:	48 c7 85 d8 fd ff ff 	movq   $0x0,-0x228(%rbp)
    9bc6:	00 00 00 00 
    9bca:	48 c7 85 e0 fd ff ff 	movq   $0x0,-0x220(%rbp)
    9bd1:	00 00 00 00 
    9bd5:	48 8d 85 68 f7 ff ff 	lea    -0x898(%rbp),%rax
    9bdc:	48 89 85 e8 fd ff ff 	mov    %rax,-0x218(%rbp)
    9be3:	48 c7 85 f0 fd ff ff 	movq   $0x0,-0x210(%rbp)
    9bea:	00 00 00 00 
    9bee:	48 c7 85 f8 fd ff ff 	movq   $0x0,-0x208(%rbp)
    9bf5:	00 00 00 00 
    9bf9:	48 c7 85 00 fe ff ff 	movq   $0x0,-0x200(%rbp)
    9c00:	00 00 00 00 
    9c04:	48 8d 85 68 f7 ff ff 	lea    -0x898(%rbp),%rax
    9c0b:	48 89 85 08 fe ff ff 	mov    %rax,-0x1f8(%rbp)
    9c12:	48 c7 85 10 fe ff ff 	movq   $0x0,-0x1f0(%rbp)
    9c19:	00 00 00 00 
    9c1d:	48 c7 85 18 fe ff ff 	movq   $0x0,-0x1e8(%rbp)
    9c24:	00 00 00 00 
    9c28:	48 8d 85 68 f7 ff ff 	lea    -0x898(%rbp),%rax
    9c2f:	48 89 85 20 fe ff ff 	mov    %rax,-0x1e0(%rbp)
    9c36:	48 c7 85 28 fe ff ff 	movq   $0x0,-0x1d8(%rbp)
    9c3d:	00 00 00 00 
    9c41:	48 8d 85 68 f7 ff ff 	lea    -0x898(%rbp),%rax
    9c48:	48 89 85 30 fe ff ff 	mov    %rax,-0x1d0(%rbp)
    9c4f:	48 8d 85 68 f7 ff ff 	lea    -0x898(%rbp),%rax
    9c56:	48 89 85 38 fe ff ff 	mov    %rax,-0x1c8(%rbp)
    9c5d:	48 c7 85 40 fe ff ff 	movq   $0x0,-0x1c0(%rbp)
    9c64:	00 00 00 00 
    9c68:	48 8d 85 68 f7 ff ff 	lea    -0x898(%rbp),%rax
    9c6f:	48 89 85 48 fe ff ff 	mov    %rax,-0x1b8(%rbp)
    9c76:	48 8d 05 5b a4 00 00 	lea    0xa45b(%rip),%rax        # 140d8 <g_127+0x18>
    9c7d:	48 89 85 50 fe ff ff 	mov    %rax,-0x1b0(%rbp)
    9c84:	48 8d 85 68 f7 ff ff 	lea    -0x898(%rbp),%rax
    9c8b:	48 89 85 58 fe ff ff 	mov    %rax,-0x1a8(%rbp)
    9c92:	48 c7 85 60 fe ff ff 	movq   $0x0,-0x1a0(%rbp)
    9c99:	00 00 00 00 
    9c9d:	48 8d 85 68 f7 ff ff 	lea    -0x898(%rbp),%rax
    9ca4:	48 89 85 68 fe ff ff 	mov    %rax,-0x198(%rbp)
    9cab:	48 8d 05 26 a4 00 00 	lea    0xa426(%rip),%rax        # 140d8 <g_127+0x18>
    9cb2:	48 89 85 70 fe ff ff 	mov    %rax,-0x190(%rbp)
    9cb9:	48 8d 85 68 f7 ff ff 	lea    -0x898(%rbp),%rax
    9cc0:	48 89 85 78 fe ff ff 	mov    %rax,-0x188(%rbp)
    9cc7:	48 c7 85 80 fe ff ff 	movq   $0x0,-0x180(%rbp)
    9cce:	00 00 00 00 
    9cd2:	48 8d 85 68 f7 ff ff 	lea    -0x898(%rbp),%rax
    9cd9:	48 89 85 88 fe ff ff 	mov    %rax,-0x178(%rbp)
    9ce0:	48 8d 85 68 f7 ff ff 	lea    -0x898(%rbp),%rax
    9ce7:	48 89 85 90 fe ff ff 	mov    %rax,-0x170(%rbp)
    9cee:	48 c7 85 98 fe ff ff 	movq   $0x0,-0x168(%rbp)
    9cf5:	00 00 00 00 
    9cf9:	48 8d 85 68 f7 ff ff 	lea    -0x898(%rbp),%rax
    9d00:	48 89 85 a0 fe ff ff 	mov    %rax,-0x160(%rbp)
    9d07:	48 c7 85 a8 fe ff ff 	movq   $0x0,-0x158(%rbp)
    9d0e:	00 00 00 00 
    9d12:	48 c7 85 b0 fe ff ff 	movq   $0x0,-0x150(%rbp)
    9d19:	00 00 00 00 
    9d1d:	48 8d 85 68 f7 ff ff 	lea    -0x898(%rbp),%rax
    9d24:	48 89 85 b8 fe ff ff 	mov    %rax,-0x148(%rbp)
    9d2b:	48 c7 85 c0 fe ff ff 	movq   $0x0,-0x140(%rbp)
    9d32:	00 00 00 00 
    9d36:	48 c7 85 c8 fe ff ff 	movq   $0x0,-0x138(%rbp)
    9d3d:	00 00 00 00 
    9d41:	48 c7 85 d0 fe ff ff 	movq   $0x0,-0x130(%rbp)
    9d48:	00 00 00 00 
    9d4c:	48 8d 85 68 f7 ff ff 	lea    -0x898(%rbp),%rax
    9d53:	48 89 85 d8 fe ff ff 	mov    %rax,-0x128(%rbp)
    9d5a:	48 c7 85 e0 fe ff ff 	movq   $0x0,-0x120(%rbp)
    9d61:	00 00 00 00 
    9d65:	48 c7 85 e8 fe ff ff 	movq   $0x0,-0x118(%rbp)
    9d6c:	00 00 00 00 
    9d70:	48 c7 85 f0 fe ff ff 	movq   $0x0,-0x110(%rbp)
    9d77:	00 00 00 00 
    9d7b:	48 8d 85 68 f7 ff ff 	lea    -0x898(%rbp),%rax
    9d82:	48 89 85 f8 fe ff ff 	mov    %rax,-0x108(%rbp)
    9d89:	48 8d 05 48 a3 00 00 	lea    0xa348(%rip),%rax        # 140d8 <g_127+0x18>
    9d90:	48 89 85 00 ff ff ff 	mov    %rax,-0x100(%rbp)
    9d97:	48 8d 05 3a a3 00 00 	lea    0xa33a(%rip),%rax        # 140d8 <g_127+0x18>
    9d9e:	48 89 85 08 ff ff ff 	mov    %rax,-0xf8(%rbp)
    9da5:	48 8d 85 68 f7 ff ff 	lea    -0x898(%rbp),%rax
    9dac:	48 89 85 10 ff ff ff 	mov    %rax,-0xf0(%rbp)
    9db3:	48 c7 85 18 ff ff ff 	movq   $0x0,-0xe8(%rbp)
    9dba:	00 00 00 00 
    9dbe:	48 c7 85 20 ff ff ff 	movq   $0x0,-0xe0(%rbp)
    9dc5:	00 00 00 00 
    9dc9:	48 c7 85 28 ff ff ff 	movq   $0x0,-0xd8(%rbp)
    9dd0:	00 00 00 00 
    9dd4:	48 8d 05 fd a2 00 00 	lea    0xa2fd(%rip),%rax        # 140d8 <g_127+0x18>
    9ddb:	48 89 85 30 ff ff ff 	mov    %rax,-0xd0(%rbp)
    9de2:	48 c7 85 38 ff ff ff 	movq   $0x0,-0xc8(%rbp)
    9de9:	00 00 00 00 
    9ded:	48 8d 05 dc a2 00 00 	lea    0xa2dc(%rip),%rax        # 140d0 <g_127+0x10>
    9df4:	48 89 85 40 ff ff ff 	mov    %rax,-0xc0(%rbp)
    9dfb:	48 c7 85 48 ff ff ff 	movq   $0x0,-0xb8(%rbp)
    9e02:	00 00 00 00 
    9e06:	48 8d 05 cb a2 00 00 	lea    0xa2cb(%rip),%rax        # 140d8 <g_127+0x18>
    9e0d:	48 89 85 50 ff ff ff 	mov    %rax,-0xb0(%rbp)
    9e14:	48 c7 85 58 ff ff ff 	movq   $0x0,-0xa8(%rbp)
    9e1b:	00 00 00 00 
    9e1f:	48 8d 05 c0 92 00 00 	lea    0x92c0(%rip),%rax        # 130e6 <g_238>
    9e26:	48 89 85 f8 f7 ff ff 	mov    %rax,-0x808(%rbp)
    9e2d:	48 8d 05 c0 93 00 00 	lea    0x93c0(%rip),%rax        # 131f4 <g_500>
    9e34:	48 89 85 00 f8 ff ff 	mov    %rax,-0x800(%rbp)
    9e3b:	48 b8 30 d2 f2 64 4a 	movabs $0x31c9494a64f2d230,%rax
    9e42:	49 c9 31 
    9e45:	48 89 85 20 fc ff ff 	mov    %rax,-0x3e0(%rbp)
    9e4c:	48 89 85 28 fc ff ff 	mov    %rax,-0x3d8(%rbp)
    9e53:	48 89 85 30 fc ff ff 	mov    %rax,-0x3d0(%rbp)
    9e5a:	48 89 85 38 fc ff ff 	mov    %rax,-0x3c8(%rbp)
    9e61:	48 c7 85 08 f8 ff ff 	movq   $0x0,-0x7f8(%rbp)
    9e68:	00 00 00 00 
    9e6c:	8b 85 18 f7 ff ff    	mov    -0x8e8(%rbp),%eax
    9e72:	83 e8 01             	sub    $0x1,%eax
    9e75:	89 85 18 f7 ff ff    	mov    %eax,-0x8e8(%rbp)
    9e7b:	8b 85 18 f7 ff ff    	mov    -0x8e8(%rbp),%eax
    9e81:	83 f8 fd             	cmp    $0xfffffffd,%eax
    9e84:	0f 8d ae fc ff ff    	jge    9b38 <func_33+0x1398>
    9e8a:	48 8b 05 47 a3 00 00 	mov    0xa347(%rip),%rax        # 141d8 <g_963>
    9e91:	48 8b 18             	mov    (%rax),%rbx
    9e94:	48 8b 85 48 f7 ff ff 	mov    -0x8b8(%rbp),%rax
    9e9b:	8b 00                	mov    (%rax),%eax
    9e9d:	41 89 c4             	mov    %eax,%r12d
    9ea0:	be 01 00 00 00       	mov    $0x1,%esi
    9ea5:	bf de ff ff ff       	mov    $0xffffffde,%edi
    9eaa:	e8 3f 94 ff ff       	callq  32ee <safe_lshift_func_int8_t_s_u>
    9eaf:	0f b6 85 0d f7 ff ff 	movzbl -0x8f3(%rbp),%eax
    9eb6:	be 07 00 00 00       	mov    $0x7,%esi
    9ebb:	89 c7                	mov    %eax,%edi
    9ebd:	e8 86 9f ff ff       	callq  3e48 <safe_rshift_func_uint16_t_u_s>
    9ec2:	8b 95 fc f6 ff ff    	mov    -0x904(%rbp),%edx
    9ec8:	8b 05 fe 91 00 00    	mov    0x91fe(%rip),%eax        # 130cc <g_98+0xc>
    9ece:	48 63 c8             	movslq %eax,%rcx
    9ed1:	48 8b 05 10 93 00 00 	mov    0x9310(%rip),%rax        # 131e8 <g_447>
    9ed8:	48 39 c1             	cmp    %rax,%rcx
    9edb:	0f 95 c0             	setne  %al
    9ede:	0f b6 c8             	movzbl %al,%ecx
    9ee1:	48 8b 05 a0 a2 00 00 	mov    0xa2a0(%rip),%rax        # 14188 <g_449>
    9ee8:	48 8b 00             	mov    (%rax),%rax
    9eeb:	48 39 c1             	cmp    %rax,%rcx
    9eee:	0f 94 c0             	sete   %al
    9ef1:	0f b6 c0             	movzbl %al,%eax
    9ef4:	89 d6                	mov    %edx,%esi
    9ef6:	89 c7                	mov    %eax,%edi
    9ef8:	e8 4f 9d ff ff       	callq  3c4c <safe_lshift_func_uint8_t_u_u>
    9efd:	48 8b 05 84 a2 00 00 	mov    0xa284(%rip),%rax        # 14188 <g_449>
    9f04:	48 b9 84 9d ee 10 6c 	movabs $0x746cc06c10ee9d84,%rcx
    9f0b:	c0 6c 74 
    9f0e:	48 89 08             	mov    %rcx,(%rax)
    9f11:	48 8b 85 88 f7 ff ff 	mov    -0x878(%rbp),%rax
    9f18:	48 8b 00             	mov    (%rax),%rax
    9f1b:	48 8d 15 66 a1 00 00 	lea    0xa166(%rip),%rdx        # 14088 <g_128+0x8>
    9f22:	48 39 d0             	cmp    %rdx,%rax
    9f25:	0f 94 c0             	sete   %al
    9f28:	0f b6 c0             	movzbl %al,%eax
    9f2b:	be 01 00 00 00       	mov    $0x1,%esi
    9f30:	48 89 c7             	mov    %rax,%rdi
    9f33:	e8 13 a1 ff ff       	callq  404b <safe_sub_func_uint64_t_u_u>
    9f38:	48 89 c2             	mov    %rax,%rdx
    9f3b:	48 8b 85 c0 f7 ff ff 	mov    -0x840(%rbp),%rax
    9f42:	48 8b 00             	mov    (%rax),%rax
    9f45:	48 8b 00             	mov    (%rax),%rax
    9f48:	89 10                	mov    %edx,(%rax)
    9f4a:	8b 00                	mov    (%rax),%eax
    9f4c:	98                   	cwtl   
    9f4d:	be 02 00 00 00       	mov    $0x2,%esi
    9f52:	89 c7                	mov    %eax,%edi
    9f54:	e8 39 95 ff ff       	callq  3492 <safe_lshift_func_int16_t_s_s>
    9f59:	48 8b 85 e0 f7 ff ff 	mov    -0x820(%rbp),%rax
    9f60:	48 8d 15 89 a2 00 00 	lea    0xa289(%rip),%rdx        # 141f0 <g_988+0x10>
    9f67:	48 89 10             	mov    %rdx,(%rax)
    9f6a:	48 8b 85 e0 f7 ff ff 	mov    -0x820(%rbp),%rax
    9f71:	48 8b 00             	mov    (%rax),%rax
    9f74:	48 39 85 a8 f7 ff ff 	cmp    %rax,-0x858(%rbp)
    9f7b:	0f 94 c0             	sete   %al
    9f7e:	0f b6 c0             	movzbl %al,%eax
    9f81:	be 01 00 00 00       	mov    $0x1,%esi
    9f86:	89 c7                	mov    %eax,%edi
    9f88:	e8 df 93 ff ff       	callq  336c <safe_rshift_func_int8_t_s_u>
    9f8d:	48 8b 05 e4 a1 00 00 	mov    0xa1e4(%rip),%rax        # 14178 <g_296>
    9f94:	48 c7 00 00 00 00 00 	movq   $0x0,(%rax)
    9f9b:	48 8b 10             	mov    (%rax),%rdx
    9f9e:	48 8b 85 48 f7 ff ff 	mov    -0x8b8(%rbp),%rax
    9fa5:	48 39 c2             	cmp    %rax,%rdx
    9fa8:	0f 95 c0             	setne  %al
    9fab:	0f b6 c0             	movzbl %al,%eax
    9fae:	44 89 e6             	mov    %r12d,%esi
    9fb1:	89 c7                	mov    %eax,%edi
    9fb3:	e8 00 9f ff ff       	callq  3eb8 <safe_add_func_uint32_t_u_u>
    9fb8:	89 c0                	mov    %eax,%eax
    9fba:	48 89 de             	mov    %rbx,%rsi
    9fbd:	48 89 c7             	mov    %rax,%rdi
    9fc0:	e8 ea a0 ff ff       	callq  40af <safe_div_func_uint64_t_u_u>
    9fc5:	48 89 c2             	mov    %rax,%rdx
    9fc8:	48 8b 85 48 f7 ff ff 	mov    -0x8b8(%rbp),%rax
    9fcf:	89 10                	mov    %edx,(%rax)
    9fd1:	8b 00                	mov    (%rax),%eax
    9fd3:	89 85 30 f7 ff ff    	mov    %eax,-0x8d0(%rbp)
    9fd9:	8b 85 14 f7 ff ff    	mov    -0x8ec(%rbp),%eax
    9fdf:	83 e8 01             	sub    $0x1,%eax
    9fe2:	89 85 14 f7 ff ff    	mov    %eax,-0x8ec(%rbp)
    9fe8:	8b 85 14 f7 ff ff    	mov    -0x8ec(%rbp),%eax
    9fee:	83 f8 02             	cmp    $0x2,%eax
    9ff1:	0f 86 a5 f9 ff ff    	jbe    999c <func_33+0x11fc>
    9ff7:	48 8b 85 b0 f7 ff ff 	mov    -0x850(%rbp),%rax
    9ffe:	48 8b 4d d8          	mov    -0x28(%rbp),%rcx
    a002:	64 48 33 0c 25 28 00 	xor    %fs:0x28,%rcx
    a009:	00 00 
    a00b:	74 05                	je     a012 <func_33+0x1872>
    a00d:	e8 5e 90 ff ff       	callq  3070 <__stack_chk_fail@plt>
    a012:	48 81 c4 00 09 00 00 	add    $0x900,%rsp
    a019:	5b                   	pop    %rbx
    a01a:	41 5c                	pop    %r12
    a01c:	41 5d                	pop    %r13
    a01e:	41 5e                	pop    %r14
    a020:	5d                   	pop    %rbp
    a021:	c3                   	retq   

000000000000a022 <func_37>:
    a022:	f3 0f 1e fa          	endbr64 
    a026:	55                   	push   %rbp
    a027:	48 89 e5             	mov    %rsp,%rbp
    a02a:	89 7d fc             	mov    %edi,-0x4(%rbp)
    a02d:	48 89 75 f0          	mov    %rsi,-0x10(%rbp)
    a031:	89 55 f8             	mov    %edx,-0x8(%rbp)
    a034:	48 89 4d e8          	mov    %rcx,-0x18(%rbp)
    a038:	48 8b 05 31 a1 00 00 	mov    0xa131(%rip),%rax        # 14170 <g_297>
    a03f:	8b 00                	mov    (%rax),%eax
    a041:	5d                   	pop    %rbp
    a042:	c3                   	retq   

000000000000a043 <func_46>:
    a043:	f3 0f 1e fa          	endbr64 
    a047:	55                   	push   %rbp
    a048:	48 89 e5             	mov    %rsp,%rbp
    a04b:	41 57                	push   %r15
    a04d:	41 56                	push   %r14
    a04f:	41 55                	push   %r13
    a051:	41 54                	push   %r12
    a053:	53                   	push   %rbx
    a054:	48 81 ec 38 04 00 00 	sub    $0x438,%rsp
    a05b:	89 f8                	mov    %edi,%eax
    a05d:	48 89 b5 b0 fb ff ff 	mov    %rsi,-0x450(%rbp)
    a064:	48 89 95 a8 fb ff ff 	mov    %rdx,-0x458(%rbp)
    a06b:	88 85 bc fb ff ff    	mov    %al,-0x444(%rbp)
    a071:	64 48 8b 04 25 28 00 	mov    %fs:0x28,%rax
    a078:	00 00 
    a07a:	48 89 45 c8          	mov    %rax,-0x38(%rbp)
    a07e:	31 c0                	xor    %eax,%eax
    a080:	48 b8 41 1b 2e 61 30 	movabs $0x94eb3630612e1b41,%rax
    a087:	36 eb 94 
    a08a:	48 89 85 d8 fb ff ff 	mov    %rax,-0x428(%rbp)
    a091:	48 8d 05 f0 9f 00 00 	lea    0x9ff0(%rip),%rax        # 14088 <g_128+0x8>
    a098:	48 89 85 08 fc ff ff 	mov    %rax,-0x3f8(%rbp)
    a09f:	48 8d 05 52 90 00 00 	lea    0x9052(%rip),%rax        # 130f8 <g_303>
    a0a6:	48 89 85 e0 fb ff ff 	mov    %rax,-0x420(%rbp)
    a0ad:	c7 85 c4 fb ff ff ff 	movl   $0xffffffff,-0x43c(%rbp)
    a0b4:	ff ff ff 
    a0b7:	c7 85 d0 fb ff ff 8d 	movl   $0x7d3f858d,-0x430(%rbp)
    a0be:	85 3f 7d 
    a0c1:	c7 85 70 fc ff ff 7f 	movl   $0xa74177f,-0x390(%rbp)
    a0c8:	17 74 0a 
    a0cb:	c7 85 74 fc ff ff ff 	movl   $0xffffffff,-0x38c(%rbp)
    a0d2:	ff ff ff 
    a0d5:	c7 85 78 fc ff ff ff 	movl   $0xffffffff,-0x388(%rbp)
    a0dc:	ff ff ff 
    a0df:	c7 85 7c fc ff ff 7f 	movl   $0xa74177f,-0x384(%rbp)
    a0e6:	17 74 0a 
    a0e9:	c7 85 80 fc ff ff ff 	movl   $0xffffffff,-0x380(%rbp)
    a0f0:	ff ff ff 
    a0f3:	c7 85 84 fc ff ff ff 	movl   $0xffffffff,-0x37c(%rbp)
    a0fa:	ff ff ff 
    a0fd:	c7 85 90 fc ff ff af 	movl   $0x382d7aaf,-0x370(%rbp)
    a104:	7a 2d 38 
    a107:	c7 85 94 fc ff ff af 	movl   $0x382d7aaf,-0x36c(%rbp)
    a10e:	7a 2d 38 
    a111:	c7 85 98 fc ff ff af 	movl   $0x382d7aaf,-0x368(%rbp)
    a118:	7a 2d 38 
    a11b:	c7 85 9c fc ff ff af 	movl   $0x382d7aaf,-0x364(%rbp)
    a122:	7a 2d 38 
    a125:	c7 85 a0 fc ff ff af 	movl   $0x382d7aaf,-0x360(%rbp)
    a12c:	7a 2d 38 
    a12f:	c7 85 a4 fc ff ff af 	movl   $0x382d7aaf,-0x35c(%rbp)
    a136:	7a 2d 38 
    a139:	c7 85 a8 fc ff ff af 	movl   $0x382d7aaf,-0x358(%rbp)
    a140:	7a 2d 38 
    a143:	c7 85 ac fc ff ff af 	movl   $0x382d7aaf,-0x354(%rbp)
    a14a:	7a 2d 38 
    a14d:	c7 85 b0 fc ff ff af 	movl   $0x382d7aaf,-0x350(%rbp)
    a154:	7a 2d 38 
    a157:	c7 85 c8 fb ff ff 00 	movl   $0x0,-0x438(%rbp)
    a15e:	00 00 00 
    a161:	c6 05 7c 8f 00 00 e6 	movb   $0xe6,0x8f7c(%rip)        # 130e4 <g_186>
    a168:	e9 bc 02 00 00       	jmpq   a429 <func_46+0x3e6>
    a16d:	48 8d 85 40 fe ff ff 	lea    -0x1c0(%rbp),%rax
    a174:	48 8d 15 c5 95 00 00 	lea    0x95c5(%rip),%rdx        # 13740 <g_1575+0x520>
    a17b:	b9 2d 00 00 00       	mov    $0x2d,%ecx
    a180:	48 89 c7             	mov    %rax,%rdi
    a183:	48 89 d6             	mov    %rdx,%rsi
    a186:	f3 48 a5             	rep movsq %ds:(%rsi),%es:(%rdi)
    a189:	48 8d 05 58 90 00 00 	lea    0x9058(%rip),%rax        # 131e8 <g_447>
    a190:	48 89 85 30 fc ff ff 	mov    %rax,-0x3d0(%rbp)
    a197:	0f b6 05 52 90 00 00 	movzbl 0x9052(%rip),%eax        # 131f0 <g_492>
    a19e:	0f b6 c0             	movzbl %al,%eax
    a1a1:	be 0a 00 00 00       	mov    $0xa,%esi
    a1a6:	89 c7                	mov    %eax,%edi
    a1a8:	e8 34 93 ff ff       	callq  34e1 <safe_lshift_func_int16_t_s_u>
    a1ad:	be 00 00 00 00       	mov    $0x0,%esi
    a1b2:	bf 07 00 00 00       	mov    $0x7,%edi
    a1b7:	e8 56 90 ff ff       	callq  3212 <safe_mul_func_int8_t_s_s>
    a1bc:	0f be d0             	movsbl %al,%edx
    a1bf:	48 8b 85 78 ff ff ff 	mov    -0x88(%rbp),%rax
    a1c6:	48 39 85 08 fc ff ff 	cmp    %rax,-0x3f8(%rbp)
    a1cd:	0f 95 c0             	setne  %al
    a1d0:	0f b6 c0             	movzbl %al,%eax
    a1d3:	39 c2                	cmp    %eax,%edx
    a1d5:	0f 9c c0             	setl   %al
    a1d8:	0f b6 c0             	movzbl %al,%eax
    a1db:	be 0d 00 00 00       	mov    $0xd,%esi
    a1e0:	89 c7                	mov    %eax,%edi
    a1e2:	e8 43 93 ff ff       	callq  352a <safe_rshift_func_int16_t_s_s>
    a1e7:	0f bf d0             	movswl %ax,%edx
    a1ea:	8b 05 04 90 00 00    	mov    0x9004(%rip),%eax        # 131f4 <g_500>
    a1f0:	21 d0                	and    %edx,%eax
    a1f2:	85 c0                	test   %eax,%eax
    a1f4:	0f 84 c6 01 00 00    	je     a3c0 <func_46+0x37d>
    a1fa:	c7 45 c3 00 00 00 00 	movl   $0x0,-0x3d(%rbp)
    a201:	c6 45 c7 00          	movb   $0x0,-0x39(%rbp)
    a205:	48 8d 05 e3 8e 00 00 	lea    0x8ee3(%rip),%rax        # 130ef <g_276>
    a20c:	48 89 85 38 fc ff ff 	mov    %rax,-0x3c8(%rbp)
    a213:	48 8d 85 d8 fb ff ff 	lea    -0x428(%rbp),%rax
    a21a:	48 89 85 40 fc ff ff 	mov    %rax,-0x3c0(%rbp)
    a221:	48 8d 85 e0 fb ff ff 	lea    -0x420(%rbp),%rax
    a228:	48 89 85 48 fc ff ff 	mov    %rax,-0x3b8(%rbp)
    a22f:	48 8d 05 42 9f 00 00 	lea    0x9f42(%rip),%rax        # 14178 <g_296>
    a236:	48 89 85 e8 fb ff ff 	mov    %rax,-0x418(%rbp)
    a23d:	48 8d 85 e8 fb ff ff 	lea    -0x418(%rbp),%rax
    a244:	48 89 85 50 fc ff ff 	mov    %rax,-0x3b0(%rbp)
    a24b:	48 8d 05 8e 8e 00 00 	lea    0x8e8e(%rip),%rax        # 130e0 <g_164>
    a252:	48 89 85 f0 fb ff ff 	mov    %rax,-0x410(%rbp)
    a259:	48 8d 85 f0 fb ff ff 	lea    -0x410(%rbp),%rax
    a260:	48 89 85 f8 fb ff ff 	mov    %rax,-0x408(%rbp)
    a267:	48 8d 85 f8 fb ff ff 	lea    -0x408(%rbp),%rax
    a26e:	48 89 85 00 fc ff ff 	mov    %rax,-0x400(%rbp)
    a275:	48 8d 85 00 fc ff ff 	lea    -0x400(%rbp),%rax
    a27c:	48 89 85 58 fc ff ff 	mov    %rax,-0x3a8(%rbp)
    a283:	c7 85 d4 fb ff ff 1a 	movl   $0x31feba1a,-0x42c(%rbp)
    a28a:	ba fe 31 
    a28d:	c7 85 cc fb ff ff 00 	movl   $0x0,-0x434(%rbp)
    a294:	00 00 00 
    a297:	eb 1e                	jmp    a2b7 <func_46+0x274>
    a299:	8b 85 cc fb ff ff    	mov    -0x434(%rbp),%eax
    a29f:	48 98                	cltq   
    a2a1:	48 8d 15 40 8f 00 00 	lea    0x8f40(%rip),%rdx        # 131e8 <g_447>
    a2a8:	48 89 94 c5 f0 fc ff 	mov    %rdx,-0x310(%rbp,%rax,8)
    a2af:	ff 
    a2b0:	83 85 cc fb ff ff 01 	addl   $0x1,-0x434(%rbp)
    a2b7:	83 bd cc fb ff ff 04 	cmpl   $0x4,-0x434(%rbp)
    a2be:	7e d9                	jle    a299 <func_46+0x256>
    a2c0:	c6 05 a6 8e 00 00 ff 	movb   $0xff,0x8ea6(%rip)        # 1316d <g_425+0x4d>
    a2c7:	0f b6 15 9f 8e 00 00 	movzbl 0x8e9f(%rip),%edx        # 1316d <g_425+0x4d>
    a2ce:	48 8b 85 38 fc ff ff 	mov    -0x3c8(%rbp),%rax
    a2d5:	88 10                	mov    %dl,(%rax)
    a2d7:	48 8b 95 e0 fb ff ff 	mov    -0x420(%rbp),%rdx
    a2de:	48 8b 85 48 fc ff ff 	mov    -0x3b8(%rbp),%rax
    a2e5:	48 89 10             	mov    %rdx,(%rax)
    a2e8:	48 8b 85 48 fc ff ff 	mov    -0x3b8(%rbp),%rax
    a2ef:	48 8b 00             	mov    (%rax),%rax
    a2f2:	48 39 85 40 fc ff ff 	cmp    %rax,-0x3c0(%rbp)
    a2f9:	48 8b 95 e8 fb ff ff 	mov    -0x418(%rbp),%rdx
    a300:	48 8b 85 50 fc ff ff 	mov    -0x3b0(%rbp),%rax
    a307:	48 89 10             	mov    %rdx,(%rax)
    a30a:	48 8b 85 50 fc ff ff 	mov    -0x3b0(%rbp),%rax
    a311:	48 8b 10             	mov    (%rax),%rdx
    a314:	48 8b 85 58 fc ff ff 	mov    -0x3a8(%rbp),%rax
    a31b:	48 8d 0d 56 9e 00 00 	lea    0x9e56(%rip),%rcx        # 14178 <g_296>
    a322:	48 89 08             	mov    %rcx,(%rax)
    a325:	48 8b 85 58 fc ff ff 	mov    -0x3a8(%rbp),%rax
    a32c:	48 8b 00             	mov    (%rax),%rax
    a32f:	48 39 c2             	cmp    %rax,%rdx
    a332:	0f 94 c0             	sete   %al
    a335:	0f b6 c0             	movzbl %al,%eax
    a338:	48 63 d0             	movslq %eax,%rdx
    a33b:	48 8b 05 96 8d 00 00 	mov    0x8d96(%rip),%rax        # 130d8 <g_137>
    a342:	48 21 d0             	and    %rdx,%rax
    a345:	48 89 05 8c 8d 00 00 	mov    %rax,0x8d8c(%rip)        # 130d8 <g_137>
    a34c:	48 8b 15 85 8d 00 00 	mov    0x8d85(%rip),%rdx        # 130d8 <g_137>
    a353:	48 83 bd 30 fc ff ff 	cmpq   $0x0,-0x3d0(%rbp)
    a35a:	00 
    a35b:	0f 94 c0             	sete   %al
    a35e:	0f b6 c0             	movzbl %al,%eax
    a361:	48 39 c2             	cmp    %rax,%rdx
    a364:	0f 9d c0             	setge  %al
    a367:	0f b6 d0             	movzbl %al,%edx
    a36a:	0f b6 45 c6          	movzbl -0x3a(%rbp),%eax
    a36e:	0f be c0             	movsbl %al,%eax
    a371:	89 d6                	mov    %edx,%esi
    a373:	89 c7                	mov    %eax,%edi
    a375:	e8 3c 92 ff ff       	callq  35b6 <safe_add_func_int32_t_s_s>
    a37a:	0f be 95 bc fb ff ff 	movsbl -0x444(%rbp),%edx
    a381:	39 d0                	cmp    %edx,%eax
    a383:	0f 9d c0             	setge  %al
    a386:	0f b6 d0             	movzbl %al,%edx
    a389:	0f b6 45 c5          	movzbl -0x3b(%rbp),%eax
    a38d:	0f be c0             	movsbl %al,%eax
    a390:	21 d0                	and    %edx,%eax
    a392:	89 85 d4 fb ff ff    	mov    %eax,-0x42c(%rbp)
    a398:	0f b6 45 c6          	movzbl -0x3a(%rbp),%eax
    a39c:	84 c0                	test   %al,%al
    a39e:	74 7c                	je     a41c <func_46+0x3d9>
    a3a0:	0f b6 05 3d 8d 00 00 	movzbl 0x8d3d(%rip),%eax        # 130e4 <g_186>
    a3a7:	48 0f be c0          	movsbq %al,%rax
    a3ab:	be 07 00 00 00       	mov    $0x7,%esi
    a3b0:	48 89 c7             	mov    %rax,%rdi
    a3b3:	e8 89 94 ff ff       	callq  3841 <safe_add_func_int64_t_s_s>
    a3b8:	88 05 26 8d 00 00    	mov    %al,0x8d26(%rip)        # 130e4 <g_186>
    a3be:	eb 69                	jmp    a429 <func_46+0x3e6>
    a3c0:	48 c7 85 f0 fc ff ff 	movq   $0x0,-0x310(%rbp)
    a3c7:	00 00 00 00 
    a3cb:	48 c7 85 f8 fc ff ff 	movq   $0x0,-0x308(%rbp)
    a3d2:	00 00 00 00 
    a3d6:	48 8d 05 db a3 00 00 	lea    0xa3db(%rip),%rax        # 147b8 <g_75>
    a3dd:	48 89 85 00 fd ff ff 	mov    %rax,-0x300(%rbp)
    a3e4:	48 c7 85 08 fd ff ff 	movq   $0x0,-0x2f8(%rbp)
    a3eb:	00 00 00 00 
    a3ef:	48 c7 85 10 fd ff ff 	movq   $0x0,-0x2f0(%rbp)
    a3f6:	00 00 00 00 
    a3fa:	48 8d 05 b7 a3 00 00 	lea    0xa3b7(%rip),%rax        # 147b8 <g_75>
    a401:	48 89 85 18 fd ff ff 	mov    %rax,-0x2e8(%rbp)
    a408:	48 8b 05 71 9d 00 00 	mov    0x9d71(%rip),%rax        # 14180 <g_389>
    a40f:	48 8b 00             	mov    (%rax),%rax
    a412:	48 8b 00             	mov    (%rax),%rax
    a415:	48 89 85 10 fd ff ff 	mov    %rax,-0x2f0(%rbp)
    a41c:	66 0f be 85 bc fb ff 	movsbw -0x444(%rbp),%ax
    a423:	ff 
    a424:	e9 5f 05 00 00       	jmpq   a988 <func_46+0x945>
    a429:	0f b6 05 b4 8c 00 00 	movzbl 0x8cb4(%rip),%eax        # 130e4 <g_186>
    a430:	3c 14                	cmp    $0x14,%al
    a432:	0f 84 35 fd ff ff    	je     a16d <func_46+0x12a>
    a438:	c7 05 9e 8c 00 00 f1 	movl   $0xfffffff1,0x8c9e(%rip)        # 130e0 <g_164>
    a43f:	ff ff ff 
    a442:	e9 2b 05 00 00       	jmpq   a972 <func_46+0x92f>
    a447:	48 8d 05 a6 8d 00 00 	lea    0x8da6(%rip),%rax        # 131f4 <g_500>
    a44e:	48 89 85 10 fc ff ff 	mov    %rax,-0x3f0(%rbp)
    a455:	48 8d 05 94 8d 00 00 	lea    0x8d94(%rip),%rax        # 131f0 <g_492>
    a45c:	48 89 85 18 fc ff ff 	mov    %rax,-0x3e8(%rbp)
    a463:	48 8d 05 be 8b 00 00 	lea    0x8bbe(%rip),%rax        # 13028 <g_14>
    a46a:	48 89 85 c0 fc ff ff 	mov    %rax,-0x340(%rbp)
    a471:	48 8d 05 b0 8b 00 00 	lea    0x8bb0(%rip),%rax        # 13028 <g_14>
    a478:	48 89 85 c8 fc ff ff 	mov    %rax,-0x338(%rbp)
    a47f:	48 8d 05 a2 8b 00 00 	lea    0x8ba2(%rip),%rax        # 13028 <g_14>
    a486:	48 89 85 d0 fc ff ff 	mov    %rax,-0x330(%rbp)
    a48d:	48 8d 05 94 8b 00 00 	lea    0x8b94(%rip),%rax        # 13028 <g_14>
    a494:	48 89 85 d8 fc ff ff 	mov    %rax,-0x328(%rbp)
    a49b:	48 8d 05 86 8b 00 00 	lea    0x8b86(%rip),%rax        # 13028 <g_14>
    a4a2:	48 89 85 e0 fc ff ff 	mov    %rax,-0x320(%rbp)
    a4a9:	48 8d 05 78 8b 00 00 	lea    0x8b78(%rip),%rax        # 13028 <g_14>
    a4b0:	48 89 85 e8 fc ff ff 	mov    %rax,-0x318(%rbp)
    a4b7:	c7 85 60 fc ff ff fa 	movl   $0xfffffffa,-0x3a0(%rbp)
    a4be:	ff ff ff 
    a4c1:	c7 85 64 fc ff ff fa 	movl   $0xfffffffa,-0x39c(%rbp)
    a4c8:	ff ff ff 
    a4cb:	c7 85 68 fc ff ff fa 	movl   $0xfffffffa,-0x398(%rbp)
    a4d2:	ff ff ff 
    a4d5:	c7 85 6c fc ff ff fa 	movl   $0xfffffffa,-0x394(%rbp)
    a4dc:	ff ff ff 
    a4df:	c7 85 00 fc ff ff 01 	movl   $0x1,-0x400(%rbp)
    a4e6:	00 00 00 
    a4e9:	48 8d 05 08 8d 00 00 	lea    0x8d08(%rip),%rax        # 131f8 <g_564>
    a4f0:	48 89 85 20 fc ff ff 	mov    %rax,-0x3e0(%rbp)
    a4f7:	48 8d 85 40 fe ff ff 	lea    -0x1c0(%rbp),%rax
    a4fe:	48 8d 15 bb 93 00 00 	lea    0x93bb(%rip),%rdx        # 138c0 <g_1575+0x6a0>
    a505:	b9 30 00 00 00       	mov    $0x30,%ecx
    a50a:	48 89 c7             	mov    %rax,%rdi
    a50d:	48 89 d6             	mov    %rdx,%rsi
    a510:	f3 48 a5             	rep movsq %ds:(%rsi),%es:(%rdi)
    a513:	48 8d 85 60 fc ff ff 	lea    -0x3a0(%rbp),%rax
    a51a:	48 83 c0 04          	add    $0x4,%rax
    a51e:	48 89 85 28 fc ff ff 	mov    %rax,-0x3d8(%rbp)
    a525:	48 c7 85 f0 fc ff ff 	movq   $0x0,-0x310(%rbp)
    a52c:	00 00 00 00 
    a530:	48 c7 85 f8 fc ff ff 	movq   $0x0,-0x308(%rbp)
    a537:	00 00 00 00 
    a53b:	48 8d 85 60 fc ff ff 	lea    -0x3a0(%rbp),%rax
    a542:	48 83 c0 0c          	add    $0xc,%rax
    a546:	48 89 85 00 fd ff ff 	mov    %rax,-0x300(%rbp)
    a54d:	48 8d 85 60 fc ff ff 	lea    -0x3a0(%rbp),%rax
    a554:	48 89 85 08 fd ff ff 	mov    %rax,-0x2f8(%rbp)
    a55b:	48 8d 85 c4 fb ff ff 	lea    -0x43c(%rbp),%rax
    a562:	48 89 85 10 fd ff ff 	mov    %rax,-0x2f0(%rbp)
    a569:	48 8d 85 c4 fb ff ff 	lea    -0x43c(%rbp),%rax
    a570:	48 89 85 18 fd ff ff 	mov    %rax,-0x2e8(%rbp)
    a577:	48 8d 85 60 fc ff ff 	lea    -0x3a0(%rbp),%rax
    a57e:	48 89 85 20 fd ff ff 	mov    %rax,-0x2e0(%rbp)
    a585:	48 c7 85 28 fd ff ff 	movq   $0x0,-0x2d8(%rbp)
    a58c:	00 00 00 00 
    a590:	48 8d 85 c4 fb ff ff 	lea    -0x43c(%rbp),%rax
    a597:	48 89 85 30 fd ff ff 	mov    %rax,-0x2d0(%rbp)
    a59e:	48 c7 85 38 fd ff ff 	movq   $0x0,-0x2c8(%rbp)
    a5a5:	00 00 00 00 
    a5a9:	48 c7 85 40 fd ff ff 	movq   $0x0,-0x2c0(%rbp)
    a5b0:	00 00 00 00 
    a5b4:	48 8d 85 60 fc ff ff 	lea    -0x3a0(%rbp),%rax
    a5bb:	48 89 85 48 fd ff ff 	mov    %rax,-0x2b8(%rbp)
    a5c2:	48 c7 85 50 fd ff ff 	movq   $0x0,-0x2b0(%rbp)
    a5c9:	00 00 00 00 
    a5cd:	48 8d 85 c4 fb ff ff 	lea    -0x43c(%rbp),%rax
    a5d4:	48 89 85 58 fd ff ff 	mov    %rax,-0x2a8(%rbp)
    a5db:	48 8d 85 60 fc ff ff 	lea    -0x3a0(%rbp),%rax
    a5e2:	48 89 85 60 fd ff ff 	mov    %rax,-0x2a0(%rbp)
    a5e9:	48 8d 85 c4 fb ff ff 	lea    -0x43c(%rbp),%rax
    a5f0:	48 89 85 68 fd ff ff 	mov    %rax,-0x298(%rbp)
    a5f7:	48 8d 85 60 fc ff ff 	lea    -0x3a0(%rbp),%rax
    a5fe:	48 89 85 70 fd ff ff 	mov    %rax,-0x290(%rbp)
    a605:	48 8d 85 c4 fb ff ff 	lea    -0x43c(%rbp),%rax
    a60c:	48 89 85 78 fd ff ff 	mov    %rax,-0x288(%rbp)
    a613:	48 8d 85 c4 fb ff ff 	lea    -0x43c(%rbp),%rax
    a61a:	48 89 85 80 fd ff ff 	mov    %rax,-0x280(%rbp)
    a621:	48 8d 85 00 fc ff ff 	lea    -0x400(%rbp),%rax
    a628:	48 89 85 88 fd ff ff 	mov    %rax,-0x278(%rbp)
    a62f:	48 8d 85 c4 fb ff ff 	lea    -0x43c(%rbp),%rax
    a636:	48 89 85 90 fd ff ff 	mov    %rax,-0x270(%rbp)
    a63d:	48 8d 85 60 fc ff ff 	lea    -0x3a0(%rbp),%rax
    a644:	48 89 85 98 fd ff ff 	mov    %rax,-0x268(%rbp)
    a64b:	48 c7 85 a0 fd ff ff 	movq   $0x0,-0x260(%rbp)
    a652:	00 00 00 00 
    a656:	48 c7 85 a8 fd ff ff 	movq   $0x0,-0x258(%rbp)
    a65d:	00 00 00 00 
    a661:	48 8d 85 60 fc ff ff 	lea    -0x3a0(%rbp),%rax
    a668:	48 89 85 b0 fd ff ff 	mov    %rax,-0x250(%rbp)
    a66f:	48 8d 85 c4 fb ff ff 	lea    -0x43c(%rbp),%rax
    a676:	48 89 85 b8 fd ff ff 	mov    %rax,-0x248(%rbp)
    a67d:	48 c7 85 c0 fd ff ff 	movq   $0x0,-0x240(%rbp)
    a684:	00 00 00 00 
    a688:	48 8d 85 60 fc ff ff 	lea    -0x3a0(%rbp),%rax
    a68f:	48 89 85 c8 fd ff ff 	mov    %rax,-0x238(%rbp)
    a696:	48 8d 85 c4 fb ff ff 	lea    -0x43c(%rbp),%rax
    a69d:	48 89 85 d0 fd ff ff 	mov    %rax,-0x230(%rbp)
    a6a4:	48 c7 85 d8 fd ff ff 	movq   $0x0,-0x228(%rbp)
    a6ab:	00 00 00 00 
    a6af:	48 c7 85 e0 fd ff ff 	movq   $0x0,-0x220(%rbp)
    a6b6:	00 00 00 00 
    a6ba:	48 8d 85 60 fc ff ff 	lea    -0x3a0(%rbp),%rax
    a6c1:	48 83 c0 0c          	add    $0xc,%rax
    a6c5:	48 89 85 e8 fd ff ff 	mov    %rax,-0x218(%rbp)
    a6cc:	48 8d 85 60 fc ff ff 	lea    -0x3a0(%rbp),%rax
    a6d3:	48 89 85 f0 fd ff ff 	mov    %rax,-0x210(%rbp)
    a6da:	48 8d 85 c4 fb ff ff 	lea    -0x43c(%rbp),%rax
    a6e1:	48 89 85 f8 fd ff ff 	mov    %rax,-0x208(%rbp)
    a6e8:	48 8d 85 c4 fb ff ff 	lea    -0x43c(%rbp),%rax
    a6ef:	48 89 85 00 fe ff ff 	mov    %rax,-0x200(%rbp)
    a6f6:	48 c7 85 08 fe ff ff 	movq   $0x0,-0x1f8(%rbp)
    a6fd:	00 00 00 00 
    a701:	48 8d 85 60 fc ff ff 	lea    -0x3a0(%rbp),%rax
    a708:	48 89 85 10 fe ff ff 	mov    %rax,-0x1f0(%rbp)
    a70f:	48 8d 85 60 fc ff ff 	lea    -0x3a0(%rbp),%rax
    a716:	48 89 85 18 fe ff ff 	mov    %rax,-0x1e8(%rbp)
    a71d:	48 8d 85 60 fc ff ff 	lea    -0x3a0(%rbp),%rax
    a724:	48 89 85 20 fe ff ff 	mov    %rax,-0x1e0(%rbp)
    a72b:	48 c7 85 28 fe ff ff 	movq   $0x0,-0x1d8(%rbp)
    a732:	00 00 00 00 
    a736:	48 8d 05 7b a0 00 00 	lea    0xa07b(%rip),%rax        # 147b8 <g_75>
    a73d:	48 89 85 30 fe ff ff 	mov    %rax,-0x1d0(%rbp)
    a744:	48 8d 85 60 fc ff ff 	lea    -0x3a0(%rbp),%rax
    a74b:	48 89 85 38 fe ff ff 	mov    %rax,-0x1c8(%rbp)
    a752:	0f be 9d bc fb ff ff 	movsbl -0x444(%rbp),%ebx
    a759:	66 0f be 85 bc fb ff 	movsbw -0x444(%rbp),%ax
    a760:	ff 
    a761:	44 0f b7 e0          	movzwl %ax,%r12d
    a765:	0f b6 05 84 89 00 00 	movzbl 0x8984(%rip),%eax        # 130f0 <g_280>
    a76c:	84 c0                	test   %al,%al
    a76e:	75 3e                	jne    a7ae <func_46+0x76b>
    a770:	48 8b 85 18 fc ff ff 	mov    -0x3e8(%rbp),%rax
    a777:	0f b6 00             	movzbl (%rax),%eax
    a77a:	8d 50 ff             	lea    -0x1(%rax),%edx
    a77d:	48 8b 85 18 fc ff ff 	mov    -0x3e8(%rbp),%rax
    a784:	88 10                	mov    %dl,(%rax)
    a786:	48 8b 85 18 fc ff ff 	mov    -0x3e8(%rbp),%rax
    a78d:	0f b6 00             	movzbl (%rax),%eax
    a790:	0f be d0             	movsbl %al,%edx
    a793:	48 83 bd 10 fc ff ff 	cmpq   $0x0,-0x3f0(%rbp)
    a79a:	00 
    a79b:	0f 95 c0             	setne  %al
    a79e:	0f b6 c0             	movzbl %al,%eax
    a7a1:	89 d6                	mov    %edx,%esi
    a7a3:	89 c7                	mov    %eax,%edi
    a7a5:	e8 48 8a ff ff       	callq  31f2 <safe_sub_func_int8_t_s_s>
    a7aa:	84 c0                	test   %al,%al
    a7ac:	74 07                	je     a7b5 <func_46+0x772>
    a7ae:	b8 01 00 00 00       	mov    $0x1,%eax
    a7b3:	eb 05                	jmp    a7ba <func_46+0x777>
    a7b5:	b8 00 00 00 00       	mov    $0x0,%eax
    a7ba:	44 0f b7 e8          	movzwl %ax,%r13d
    a7be:	48 8b 85 a8 fb ff ff 	mov    -0x458(%rbp),%rax
    a7c5:	98                   	cwtl   
    a7c6:	89 c6                	mov    %eax,%esi
    a7c8:	bf 04 00 00 00       	mov    $0x4,%edi
    a7cd:	e8 e1 8b ff ff       	callq  33b3 <safe_add_func_int16_t_s_s>
    a7d2:	0f bf d0             	movswl %ax,%edx
    a7d5:	48 8b 85 08 fc ff ff 	mov    -0x3f8(%rbp),%rax
    a7dc:	48 8b 00             	mov    (%rax),%rax
    a7df:	8b 00                	mov    (%rax),%eax
    a7e1:	98                   	cwtl   
    a7e2:	89 d6                	mov    %edx,%esi
    a7e4:	89 c7                	mov    %eax,%edi
    a7e6:	e8 c8 8b ff ff       	callq  33b3 <safe_add_func_int16_t_s_s>
    a7eb:	0f b7 c0             	movzwl %ax,%eax
    a7ee:	44 89 ee             	mov    %r13d,%esi
    a7f1:	89 c7                	mov    %eax,%edi
    a7f3:	e8 45 95 ff ff       	callq  3d3d <safe_mul_func_uint16_t_u_u>
    a7f8:	44 0f be ad bc fb ff 	movsbl -0x444(%rbp),%r13d
    a7ff:	ff 
    a800:	48 8b 85 b0 fb ff ff 	mov    -0x450(%rbp),%rax
    a807:	0f b6 00             	movzbl (%rax),%eax
    a80a:	44 0f b6 f0          	movzbl %al,%r14d
    a80e:	0f b6 85 bc fb ff ff 	movzbl -0x444(%rbp),%eax
    a815:	44 0f b6 f8          	movzbl %al,%r15d
    a819:	48 8b 85 e0 fb ff ff 	mov    -0x420(%rbp),%rax
    a820:	48 8b 08             	mov    (%rax),%rcx
    a823:	48 0f be 95 bc fb ff 	movsbq -0x444(%rbp),%rdx
    a82a:	ff 
    a82b:	48 8b 85 e0 fb ff ff 	mov    -0x420(%rbp),%rax
    a832:	48 31 ca             	xor    %rcx,%rdx
    a835:	48 89 10             	mov    %rdx,(%rax)
    a838:	48 8b 85 d8 fc ff ff 	mov    -0x328(%rbp),%rax
    a83f:	48 8d 15 9a 89 00 00 	lea    0x899a(%rip),%rdx        # 131e0 <g_426>
    a846:	48 39 d0             	cmp    %rdx,%rax
    a849:	0f 95 c0             	setne  %al
    a84c:	0f b6 c0             	movzbl %al,%eax
    a84f:	89 85 60 fc ff ff    	mov    %eax,-0x3a0(%rbp)
    a855:	8b 85 60 fc ff ff    	mov    -0x3a0(%rbp),%eax
    a85b:	98                   	cwtl   
    a85c:	be 01 00 00 00       	mov    $0x1,%esi
    a861:	89 c7                	mov    %eax,%edi
    a863:	e8 c2 8c ff ff       	callq  352a <safe_rshift_func_int16_t_s_s>
    a868:	0f b6 c0             	movzbl %al,%eax
    a86b:	be 06 00 00 00       	mov    $0x6,%esi
    a870:	89 c7                	mov    %eax,%edi
    a872:	e8 16 94 ff ff       	callq  3c8d <safe_rshift_func_uint8_t_u_s>
    a877:	89 c2                	mov    %eax,%edx
    a879:	48 8b 85 08 fc ff ff 	mov    -0x3f8(%rbp),%rax
    a880:	48 8b 00             	mov    (%rax),%rax
    a883:	0f b6 d2             	movzbl %dl,%edx
    a886:	89 10                	mov    %edx,(%rax)
    a888:	8b 10                	mov    (%rax),%edx
    a88a:	0f be 85 bc fb ff ff 	movsbl -0x444(%rbp),%eax
    a891:	39 c2                	cmp    %eax,%edx
    a893:	0f 9d c0             	setge  %al
    a896:	0f b6 c0             	movzbl %al,%eax
    a899:	44 89 fe             	mov    %r15d,%esi
    a89c:	89 c7                	mov    %eax,%edi
    a89e:	e8 0b 93 ff ff       	callq  3bae <safe_mod_func_uint8_t_u_u>
    a8a3:	0f b6 c0             	movzbl %al,%eax
    a8a6:	44 89 f6             	mov    %r14d,%esi
    a8a9:	89 c7                	mov    %eax,%edi
    a8ab:	e8 0e 94 ff ff       	callq  3cbe <safe_rshift_func_uint8_t_u_u>
    a8b0:	0f b6 c0             	movzbl %al,%eax
    a8b3:	be 07 00 00 00       	mov    $0x7,%esi
    a8b8:	89 c7                	mov    %eax,%edi
    a8ba:	e8 d3 8b ff ff       	callq  3492 <safe_lshift_func_int16_t_s_s>
    a8bf:	66 0f be 85 bc fb ff 	movsbw -0x444(%rbp),%ax
    a8c6:	ff 
    a8c7:	0f b7 c0             	movzwl %ax,%eax
    a8ca:	44 89 ee             	mov    %r13d,%esi
    a8cd:	89 c7                	mov    %eax,%edi
    a8cf:	e8 74 95 ff ff       	callq  3e48 <safe_rshift_func_uint16_t_u_s>
    a8d4:	0f b7 d0             	movzwl %ax,%edx
    a8d7:	8b 85 00 fc ff ff    	mov    -0x400(%rbp),%eax
    a8dd:	39 c2                	cmp    %eax,%edx
    a8df:	0f 95 c0             	setne  %al
    a8e2:	0f b6 c0             	movzbl %al,%eax
    a8e5:	44 89 e6             	mov    %r12d,%esi
    a8e8:	89 c7                	mov    %eax,%edi
    a8ea:	e8 6d 94 ff ff       	callq  3d5c <safe_mod_func_uint16_t_u_u>
    a8ef:	48 8b 05 8a 98 00 00 	mov    0x988a(%rip),%rax        # 14180 <g_389>
    a8f6:	48 8b 85 08 fc ff ff 	mov    -0x3f8(%rbp),%rax
    a8fd:	48 8b 00             	mov    (%rax),%rax
    a900:	8b 00                	mov    (%rax),%eax
    a902:	98                   	cwtl   
    a903:	89 de                	mov    %ebx,%esi
    a905:	89 c7                	mov    %eax,%edi
    a907:	e8 e9 8a ff ff       	callq  33f5 <safe_mul_func_int16_t_s_s>
    a90c:	48 8b 95 20 fc ff ff 	mov    -0x3e0(%rbp),%rdx
    a913:	8b 12                	mov    (%rdx),%edx
    a915:	98                   	cwtl   
    a916:	21 c2                	and    %eax,%edx
    a918:	48 8b 85 20 fc ff ff 	mov    -0x3e0(%rbp),%rax
    a91f:	89 10                	mov    %edx,(%rax)
    a921:	0f be 95 bc fb ff ff 	movsbl -0x444(%rbp),%edx
    a928:	48 8b 85 20 fc ff ff 	mov    -0x3e0(%rbp),%rax
    a92f:	8b 00                	mov    (%rax),%eax
    a931:	83 c8 01             	or     $0x1,%eax
    a934:	09 c2                	or     %eax,%edx
    a936:	48 8b 85 28 fc ff ff 	mov    -0x3d8(%rbp),%rax
    a93d:	8b 00                	mov    (%rax),%eax
    a93f:	21 c2                	and    %eax,%edx
    a941:	48 8b 85 28 fc ff ff 	mov    -0x3d8(%rbp),%rax
    a948:	89 10                	mov    %edx,(%rax)
    a94a:	48 8d 85 60 fc ff ff 	lea    -0x3a0(%rbp),%rax
    a951:	48 83 c0 08          	add    $0x8,%rax
    a955:	48 89 85 28 fc ff ff 	mov    %rax,-0x3d8(%rbp)
    a95c:	83 ad c8 fb ff ff 01 	subl   $0x1,-0x438(%rbp)
    a963:	8b 05 77 87 00 00    	mov    0x8777(%rip),%eax        # 130e0 <g_164>
    a969:	83 c0 01             	add    $0x1,%eax
    a96c:	89 05 6e 87 00 00    	mov    %eax,0x876e(%rip)        # 130e0 <g_164>
    a972:	8b 05 68 87 00 00    	mov    0x8768(%rip),%eax        # 130e0 <g_164>
    a978:	83 f8 0b             	cmp    $0xb,%eax
    a97b:	0f 8e c6 fa ff ff    	jle    a447 <func_46+0x404>
    a981:	48 8b 85 a8 fb ff ff 	mov    -0x458(%rbp),%rax
    a988:	48 8b 5d c8          	mov    -0x38(%rbp),%rbx
    a98c:	64 48 33 1c 25 28 00 	xor    %fs:0x28,%rbx
    a993:	00 00 
    a995:	74 05                	je     a99c <func_46+0x959>
    a997:	e8 d4 86 ff ff       	callq  3070 <__stack_chk_fail@plt>
    a99c:	48 81 c4 38 04 00 00 	add    $0x438,%rsp
    a9a3:	5b                   	pop    %rbx
    a9a4:	41 5c                	pop    %r12
    a9a6:	41 5d                	pop    %r13
    a9a8:	41 5e                	pop    %r14
    a9aa:	41 5f                	pop    %r15
    a9ac:	5d                   	pop    %rbp
    a9ad:	c3                   	retq   

000000000000a9ae <func_51>:
    a9ae:	f3 0f 1e fa          	endbr64 
    a9b2:	55                   	push   %rbp
    a9b3:	48 89 e5             	mov    %rsp,%rbp
    a9b6:	41 57                	push   %r15
    a9b8:	41 56                	push   %r14
    a9ba:	41 55                	push   %r13
    a9bc:	41 54                	push   %r12
    a9be:	53                   	push   %rbx
    a9bf:	48 81 ec 58 01 00 00 	sub    $0x158,%rsp
    a9c6:	89 bd 9c fe ff ff    	mov    %edi,-0x164(%rbp)
    a9cc:	48 89 b5 90 fe ff ff 	mov    %rsi,-0x170(%rbp)
    a9d3:	64 48 8b 04 25 28 00 	mov    %fs:0x28,%rax
    a9da:	00 00 
    a9dc:	48 89 45 c8          	mov    %rax,-0x38(%rbp)
    a9e0:	31 c0                	xor    %eax,%eax
    a9e2:	c7 85 b0 fe ff ff fc 	movl   $0xfffffffc,-0x150(%rbp)
    a9e9:	ff ff ff 
    a9ec:	48 c7 85 c8 fe ff ff 	movq   $0x0,-0x138(%rbp)
    a9f3:	00 00 00 00 
    a9f7:	48 c7 05 e6 87 00 00 	movq   $0xfffffffffffffff6,0x87e6(%rip)        # 131e8 <g_447>
    a9fe:	f6 ff ff ff 
    aa02:	e9 26 04 00 00       	jmpq   ae2d <func_51+0x47f>
    aa07:	66 c7 85 ae fe ff ff 	movw   $0x1,-0x152(%rbp)
    aa0e:	01 00 
    aa10:	c7 85 b8 fe ff ff 05 	movl   $0x5,-0x148(%rbp)
    aa17:	00 00 00 
    aa1a:	c7 85 bc fe ff ff 08 	movl   $0x8,-0x144(%rbp)
    aa21:	00 00 00 
    aa24:	83 85 b0 fe ff ff 01 	addl   $0x1,-0x150(%rbp)
    aa2b:	66 83 bd ae fe ff ff 	cmpw   $0x0,-0x152(%rbp)
    aa32:	00 
    aa33:	0f 85 e1 03 00 00    	jne    ae1a <func_51+0x46c>
    aa39:	48 c7 05 bc 86 00 00 	movq   $0x0,0x86bc(%rip)        # 13100 <g_360>
    aa40:	00 00 00 00 
    aa44:	eb 39                	jmp    aa7f <func_51+0xd1>
    aa46:	c7 85 c4 fe ff ff ff 	movl   $0xe4da99ff,-0x13c(%rbp)
    aa4d:	99 da e4 
    aa50:	48 8d 05 61 9d 00 00 	lea    0x9d61(%rip),%rax        # 147b8 <g_75>
    aa57:	48 89 85 d8 fe ff ff 	mov    %rax,-0x128(%rbp)
    aa5e:	8b 95 c4 fe ff ff    	mov    -0x13c(%rbp),%edx
    aa64:	48 8b 85 d8 fe ff ff 	mov    -0x128(%rbp),%rax
    aa6b:	89 10                	mov    %edx,(%rax)
    aa6d:	48 8b 05 8c 86 00 00 	mov    0x868c(%rip),%rax        # 13100 <g_360>
    aa74:	48 83 c0 01          	add    $0x1,%rax
    aa78:	48 89 05 81 86 00 00 	mov    %rax,0x8681(%rip)        # 13100 <g_360>
    aa7f:	48 8b 05 7a 86 00 00 	mov    0x867a(%rip),%rax        # 13100 <g_360>
    aa86:	48 83 f8 36          	cmp    $0x36,%rax
    aa8a:	75 ba                	jne    aa46 <func_51+0x98>
    aa8c:	66 c7 05 4b 87 00 00 	movw   $0x0,0x874b(%rip)        # 131e0 <g_426>
    aa93:	00 00 
    aa95:	90                   	nop
    aa96:	0f b7 05 43 87 00 00 	movzwl 0x8743(%rip),%eax        # 131e0 <g_426>
    aa9d:	66 83 f8 07          	cmp    $0x7,%ax
    aaa1:	0f 87 74 03 00 00    	ja     ae1b <func_51+0x46d>
    aaa7:	c7 85 c0 fe ff ff f3 	movl   $0x412252f3,-0x140(%rbp)
    aaae:	52 22 41 
    aab1:	48 8d 05 38 87 00 00 	lea    0x8738(%rip),%rax        # 131f0 <g_492>
    aab8:	48 89 85 d0 fe ff ff 	mov    %rax,-0x130(%rbp)
    aabf:	48 c7 85 20 ff ff ff 	movq   $0x0,-0xe0(%rbp)
    aac6:	00 00 00 00 
    aaca:	48 8d 05 23 87 00 00 	lea    0x8723(%rip),%rax        # 131f4 <g_500>
    aad1:	48 89 85 28 ff ff ff 	mov    %rax,-0xd8(%rbp)
    aad8:	48 c7 85 30 ff ff ff 	movq   $0x0,-0xd0(%rbp)
    aadf:	00 00 00 00 
    aae3:	48 c7 85 38 ff ff ff 	movq   $0x0,-0xc8(%rbp)
    aaea:	00 00 00 00 
    aaee:	48 c7 85 40 ff ff ff 	movq   $0x0,-0xc0(%rbp)
    aaf5:	00 00 00 00 
    aaf9:	48 c7 85 48 ff ff ff 	movq   $0x0,-0xb8(%rbp)
    ab00:	00 00 00 00 
    ab04:	48 8d 05 e9 86 00 00 	lea    0x86e9(%rip),%rax        # 131f4 <g_500>
    ab0b:	48 89 85 50 ff ff ff 	mov    %rax,-0xb0(%rbp)
    ab12:	48 8d 05 db 86 00 00 	lea    0x86db(%rip),%rax        # 131f4 <g_500>
    ab19:	48 89 85 58 ff ff ff 	mov    %rax,-0xa8(%rbp)
    ab20:	48 8d 05 cd 86 00 00 	lea    0x86cd(%rip),%rax        # 131f4 <g_500>
    ab27:	48 89 85 60 ff ff ff 	mov    %rax,-0xa0(%rbp)
    ab2e:	48 8d 05 bf 86 00 00 	lea    0x86bf(%rip),%rax        # 131f4 <g_500>
    ab35:	48 89 85 68 ff ff ff 	mov    %rax,-0x98(%rbp)
    ab3c:	48 8d 05 b1 86 00 00 	lea    0x86b1(%rip),%rax        # 131f4 <g_500>
    ab43:	48 89 85 70 ff ff ff 	mov    %rax,-0x90(%rbp)
    ab4a:	48 8d 05 a3 86 00 00 	lea    0x86a3(%rip),%rax        # 131f4 <g_500>
    ab51:	48 89 85 78 ff ff ff 	mov    %rax,-0x88(%rbp)
    ab58:	48 8d 05 95 86 00 00 	lea    0x8695(%rip),%rax        # 131f4 <g_500>
    ab5f:	48 89 45 80          	mov    %rax,-0x80(%rbp)
    ab63:	48 8d 05 8a 86 00 00 	lea    0x868a(%rip),%rax        # 131f4 <g_500>
    ab6a:	48 89 45 88          	mov    %rax,-0x78(%rbp)
    ab6e:	48 c7 45 90 00 00 00 	movq   $0x0,-0x70(%rbp)
    ab75:	00 
    ab76:	48 c7 45 98 00 00 00 	movq   $0x0,-0x68(%rbp)
    ab7d:	00 
    ab7e:	48 c7 45 a0 00 00 00 	movq   $0x0,-0x60(%rbp)
    ab85:	00 
    ab86:	48 c7 45 a8 00 00 00 	movq   $0x0,-0x58(%rbp)
    ab8d:	00 
    ab8e:	48 8d 05 5f 86 00 00 	lea    0x865f(%rip),%rax        # 131f4 <g_500>
    ab95:	48 89 45 b0          	mov    %rax,-0x50(%rbp)
    ab99:	48 c7 45 b8 00 00 00 	movq   $0x0,-0x48(%rbp)
    aba0:	00 
    aba1:	48 c7 45 c0 00 00 00 	movq   $0x0,-0x40(%rbp)
    aba8:	00 
    aba9:	c7 85 b4 fe ff ff 00 	movl   $0x0,-0x14c(%rbp)
    abb0:	00 00 00 
    abb3:	eb 1e                	jmp    abd3 <func_51+0x225>
    abb5:	8b 85 b4 fe ff ff    	mov    -0x14c(%rbp),%eax
    abbb:	48 98                	cltq   
    abbd:	48 8d 15 22 85 00 00 	lea    0x8522(%rip),%rdx        # 130e6 <g_238>
    abc4:	48 89 94 c5 00 ff ff 	mov    %rdx,-0x100(%rbp,%rax,8)
    abcb:	ff 
    abcc:	83 85 b4 fe ff ff 01 	addl   $0x1,-0x14c(%rbp)
    abd3:	83 bd b4 fe ff ff 02 	cmpl   $0x2,-0x14c(%rbp)
    abda:	7e d9                	jle    abb5 <func_51+0x207>
    abdc:	c7 85 b4 fe ff ff 00 	movl   $0x0,-0x14c(%rbp)
    abe3:	00 00 00 
    abe6:	eb 1a                	jmp    ac02 <func_51+0x254>
    abe8:	8b 85 b4 fe ff ff    	mov    -0x14c(%rbp),%eax
    abee:	48 98                	cltq   
    abf0:	c7 84 85 e0 fe ff ff 	movl   $0xa500d329,-0x120(%rbp,%rax,4)
    abf7:	29 d3 00 a5 
    abfb:	83 85 b4 fe ff ff 01 	addl   $0x1,-0x14c(%rbp)
    ac02:	83 bd b4 fe ff ff 04 	cmpl   $0x4,-0x14c(%rbp)
    ac09:	7e dd                	jle    abe8 <func_51+0x23a>
    ac0b:	8b 85 9c fe ff ff    	mov    -0x164(%rbp),%eax
    ac11:	48 63 d8             	movslq %eax,%rbx
    ac14:	8b 85 9c fe ff ff    	mov    -0x164(%rbp),%eax
    ac1a:	89 85 98 fe ff ff    	mov    %eax,-0x168(%rbp)
    ac20:	8b 85 9c fe ff ff    	mov    -0x164(%rbp),%eax
    ac26:	44 0f b6 e0          	movzbl %al,%r12d
    ac2a:	8b 85 9c fe ff ff    	mov    -0x164(%rbp),%eax
    ac30:	0f b6 c0             	movzbl %al,%eax
    ac33:	be 02 00 00 00       	mov    $0x2,%esi
    ac38:	89 c7                	mov    %eax,%edi
    ac3a:	e8 c6 8f ff ff       	callq  3c05 <safe_lshift_func_uint8_t_u_s>
    ac3f:	0f be c0             	movsbl %al,%eax
    ac42:	be 01 00 00 00       	mov    $0x1,%esi
    ac47:	89 c7                	mov    %eax,%edi
    ac49:	e8 1e 87 ff ff       	callq  336c <safe_rshift_func_int8_t_s_u>
    ac4e:	0f b6 c0             	movzbl %al,%eax
    ac51:	44 89 e6             	mov    %r12d,%esi
    ac54:	89 c7                	mov    %eax,%edi
    ac56:	e8 38 8f ff ff       	callq  3b93 <safe_mul_func_uint8_t_u_u>
    ac5b:	0f b6 c8             	movzbl %al,%ecx
    ac5e:	66 89 8d 8e fe ff ff 	mov    %cx,-0x172(%rbp)
    ac65:	48 8b 05 0c 95 00 00 	mov    0x950c(%rip),%rax        # 14178 <g_296>
    ac6c:	48 8b 10             	mov    (%rax),%rdx
    ac6f:	48 8d 85 9c fe ff ff 	lea    -0x164(%rbp),%rax
    ac76:	48 39 c2             	cmp    %rax,%rdx
    ac79:	0f b6 05 6f 84 00 00 	movzbl 0x846f(%rip),%eax        # 130ef <g_276>
    ac80:	44 0f be e0          	movsbl %al,%r12d
    ac84:	0f b7 85 ae fe ff ff 	movzwl -0x152(%rbp),%eax
    ac8b:	44 0f b7 e8          	movzwl %ax,%r13d
    ac8f:	8b 85 9c fe ff ff    	mov    -0x164(%rbp),%eax
    ac95:	44 0f be f0          	movsbl %al,%r14d
    ac99:	48 8b 85 d0 fe ff ff 	mov    -0x130(%rbp),%rax
    aca0:	0f b6 00             	movzbl (%rax),%eax
    aca3:	8d 50 01             	lea    0x1(%rax),%edx
    aca6:	48 8b 85 d0 fe ff ff 	mov    -0x130(%rbp),%rax
    acad:	88 10                	mov    %dl,(%rax)
    acaf:	48 8b 85 d0 fe ff ff 	mov    -0x130(%rbp),%rax
    acb6:	0f b6 00             	movzbl (%rax),%eax
    acb9:	0f b6 f8             	movzbl %al,%edi
    acbc:	48 89 bd 80 fe ff ff 	mov    %rdi,-0x180(%rbp)
    acc3:	0f b7 05 d4 83 00 00 	movzwl 0x83d4(%rip),%eax        # 1309e <g_93+0x5e>
    acca:	4c 0f bf f8          	movswq %ax,%r15
    acce:	0f b6 05 13 84 00 00 	movzbl 0x8413(%rip),%eax        # 130e8 <g_258>
    acd5:	0f b6 c0             	movzbl %al,%eax
    acd8:	89 c6                	mov    %eax,%esi
    acda:	bf f9 00 00 00       	mov    $0xf9,%edi
    acdf:	e8 af 8e ff ff       	callq  3b93 <safe_mul_func_uint8_t_u_u>
    ace4:	0f b6 c0             	movzbl %al,%eax
    ace7:	4c 89 fe             	mov    %r15,%rsi
    acea:	48 89 c7             	mov    %rax,%rdi
    aced:	e8 59 93 ff ff       	callq  404b <safe_sub_func_uint64_t_u_u>
    acf2:	48 39 85 80 fe ff ff 	cmp    %rax,-0x180(%rbp)
    acf9:	0f 93 c0             	setae  %al
    acfc:	0f b6 d0             	movzbl %al,%edx
    acff:	8b 85 9c fe ff ff    	mov    -0x164(%rbp),%eax
    ad05:	39 c2                	cmp    %eax,%edx
    ad07:	0f 94 c0             	sete   %al
    ad0a:	0f b6 c0             	movzbl %al,%eax
    ad0d:	be 02 00 00 00       	mov    $0x2,%esi
    ad12:	89 c7                	mov    %eax,%edi
    ad14:	e8 53 86 ff ff       	callq  336c <safe_rshift_func_int8_t_s_u>
    ad19:	0f be c0             	movsbl %al,%eax
    ad1c:	44 89 f6             	mov    %r14d,%esi
    ad1f:	89 c7                	mov    %eax,%edi
    ad21:	e8 cc 84 ff ff       	callq  31f2 <safe_sub_func_int8_t_s_s>
    ad26:	0f b7 05 b9 83 00 00 	movzwl 0x83b9(%rip),%eax        # 130e6 <g_238>
    ad2d:	83 e8 01             	sub    $0x1,%eax
    ad30:	66 89 05 af 83 00 00 	mov    %ax,0x83af(%rip)        # 130e6 <g_238>
    ad37:	0f b7 05 a8 83 00 00 	movzwl 0x83a8(%rip),%eax        # 130e6 <g_238>
    ad3e:	0f bf d0             	movswl %ax,%edx
    ad41:	48 8b 85 90 fe ff ff 	mov    -0x170(%rbp),%rax
    ad48:	0f b7 00             	movzwl (%rax),%eax
    ad4b:	98                   	cwtl   
    ad4c:	89 d6                	mov    %edx,%esi
    ad4e:	89 c7                	mov    %eax,%edi
    ad50:	e8 00 87 ff ff       	callq  3455 <safe_div_func_int16_t_s_s>
    ad55:	8b 95 e8 fe ff ff    	mov    -0x118(%rbp),%edx
    ad5b:	09 d0                	or     %edx,%eax
    ad5d:	0f b7 c0             	movzwl %ax,%eax
    ad60:	44 89 ee             	mov    %r13d,%esi
    ad63:	89 c7                	mov    %eax,%edi
    ad65:	e8 95 8f ff ff       	callq  3cff <safe_add_func_uint16_t_u_u>
    ad6a:	0f b7 c0             	movzwl %ax,%eax
    ad6d:	89 c2                	mov    %eax,%edx
    ad6f:	f7 d2                	not    %edx
    ad71:	0f b6 05 b2 82 00 00 	movzbl 0x82b2(%rip),%eax        # 1302a <g_21>
    ad78:	0f b6 c0             	movzbl %al,%eax
    ad7b:	39 c2                	cmp    %eax,%edx
    ad7d:	0f 95 c0             	setne  %al
    ad80:	0f b6 c0             	movzbl %al,%eax
    ad83:	89 05 6b 84 00 00    	mov    %eax,0x846b(%rip)        # 131f4 <g_500>
    ad89:	8b 05 65 84 00 00    	mov    0x8465(%rip),%eax        # 131f4 <g_500>
    ad8f:	44 89 e6             	mov    %r12d,%esi
    ad92:	89 c7                	mov    %eax,%edi
    ad94:	e8 37 91 ff ff       	callq  3ed0 <safe_sub_func_uint32_t_u_u>
    ad99:	0f bf 95 ae fe ff ff 	movswl -0x152(%rbp),%edx
    ada0:	8b 85 9c fe ff ff    	mov    -0x164(%rbp),%eax
    ada6:	39 c2                	cmp    %eax,%edx
    ada8:	0f 9e c0             	setle  %al
    adab:	0f b6 c0             	movzbl %al,%eax
    adae:	89 c7                	mov    %eax,%edi
    adb0:	e8 34 8f ff ff       	callq  3ce9 <safe_unary_minus_func_uint16_t_u>
    adb5:	66 39 85 8e fe ff ff 	cmp    %ax,-0x172(%rbp)
    adbc:	0f 94 c0             	sete   %al
    adbf:	0f b6 c0             	movzbl %al,%eax
    adc2:	8b b5 98 fe ff ff    	mov    -0x168(%rbp),%esi
    adc8:	89 c7                	mov    %eax,%edi
    adca:	e8 94 87 ff ff       	callq  3563 <safe_rshift_func_int16_t_s_u>
    adcf:	48 89 de             	mov    %rbx,%rsi
    add2:	bf 00 00 00 00       	mov    $0x0,%edi
    add7:	e8 a4 92 ff ff       	callq  4080 <safe_mod_func_uint64_t_u_u>
    addc:	48 83 c8 fc          	or     $0xfffffffffffffffc,%rax
    ade0:	48 89 c2             	mov    %rax,%rdx
    ade3:	8b 85 9c fe ff ff    	mov    -0x164(%rbp),%eax
    ade9:	48 98                	cltq   
    adeb:	48 31 c2             	xor    %rax,%rdx
    adee:	48 b8 48 c4 ed 7d 18 	movabs $0x6b3f6c187dedc448,%rax
    adf5:	6c 3f 6b 
    adf8:	48 31 c2             	xor    %rax,%rdx
    adfb:	8b 85 bc fe ff ff    	mov    -0x144(%rbp),%eax
    ae01:	48 98                	cltq   
    ae03:	48 39 c2             	cmp    %rax,%rdx
    ae06:	0f 97 c0             	seta   %al
    ae09:	0f b6 c0             	movzbl %al,%eax
    ae0c:	31 85 c0 fe ff ff    	xor    %eax,-0x140(%rbp)
    ae12:	8b 85 9c fe ff ff    	mov    -0x164(%rbp),%eax
    ae18:	eb 2b                	jmp    ae45 <func_51+0x497>
    ae1a:	90                   	nop
    ae1b:	48 8b 05 c6 83 00 00 	mov    0x83c6(%rip),%rax        # 131e8 <g_447>
    ae22:	48 83 e8 01          	sub    $0x1,%rax
    ae26:	48 89 05 bb 83 00 00 	mov    %rax,0x83bb(%rip)        # 131e8 <g_447>
    ae2d:	48 8b 05 b4 83 00 00 	mov    0x83b4(%rip),%rax        # 131e8 <g_447>
    ae34:	48 83 f8 e6          	cmp    $0xffffffffffffffe6,%rax
    ae38:	0f 8c c9 fb ff ff    	jl     aa07 <func_51+0x59>
    ae3e:	0f b6 05 a9 82 00 00 	movzbl 0x82a9(%rip),%eax        # 130ee <g_258+0x6>
    ae45:	48 8b 5d c8          	mov    -0x38(%rbp),%rbx
    ae49:	64 48 33 1c 25 28 00 	xor    %fs:0x28,%rbx
    ae50:	00 00 
    ae52:	74 05                	je     ae59 <func_51+0x4ab>
    ae54:	e8 17 82 ff ff       	callq  3070 <__stack_chk_fail@plt>
    ae59:	48 81 c4 58 01 00 00 	add    $0x158,%rsp
    ae60:	5b                   	pop    %rbx
    ae61:	41 5c                	pop    %r12
    ae63:	41 5d                	pop    %r13
    ae65:	41 5e                	pop    %r14
    ae67:	41 5f                	pop    %r15
    ae69:	5d                   	pop    %rbp
    ae6a:	c3                   	retq   

000000000000ae6b <func_58>:
    ae6b:	f3 0f 1e fa          	endbr64 
    ae6f:	55                   	push   %rbp
    ae70:	48 89 e5             	mov    %rsp,%rbp
    ae73:	41 57                	push   %r15
    ae75:	41 56                	push   %r14
    ae77:	41 55                	push   %r13
    ae79:	41 54                	push   %r12
    ae7b:	53                   	push   %rbx
    ae7c:	48 81 ec 00 10 00 00 	sub    $0x1000,%rsp
    ae83:	48 83 0c 24 00       	orq    $0x0,(%rsp)
    ae88:	48 81 ec f8 07 00 00 	sub    $0x7f8,%rsp
    ae8f:	89 bd ec e7 ff ff    	mov    %edi,-0x1814(%rbp)
    ae95:	89 f1                	mov    %esi,%ecx
    ae97:	89 d0                	mov    %edx,%eax
    ae99:	89 ca                	mov    %ecx,%edx
    ae9b:	88 95 e8 e7 ff ff    	mov    %dl,-0x1818(%rbp)
    aea1:	66 89 85 e4 e7 ff ff 	mov    %ax,-0x181c(%rbp)
    aea8:	64 48 8b 04 25 28 00 	mov    %fs:0x28,%rax
    aeaf:	00 00 
    aeb1:	48 89 45 c8          	mov    %rax,-0x38(%rbp)
    aeb5:	31 c0                	xor    %eax,%eax
    aeb7:	48 c7 85 20 ea ff ff 	movq   $0x0,-0x15e0(%rbp)
    aebe:	00 00 00 00 
    aec2:	48 8d 05 63 81 00 00 	lea    0x8163(%rip),%rax        # 1302c <g_72>
    aec9:	48 89 85 28 ea ff ff 	mov    %rax,-0x15d8(%rbp)
    aed0:	48 c7 85 30 ea ff ff 	movq   $0x0,-0x15d0(%rbp)
    aed7:	00 00 00 00 
    aedb:	48 8d 05 4a 81 00 00 	lea    0x814a(%rip),%rax        # 1302c <g_72>
    aee2:	48 89 85 38 ea ff ff 	mov    %rax,-0x15c8(%rbp)
    aee9:	48 c7 85 40 ea ff ff 	movq   $0x0,-0x15c0(%rbp)
    aef0:	00 00 00 00 
    aef4:	48 8d 05 31 81 00 00 	lea    0x8131(%rip),%rax        # 1302c <g_72>
    aefb:	48 89 85 48 ea ff ff 	mov    %rax,-0x15b8(%rbp)
    af02:	48 c7 85 50 ea ff ff 	movq   $0x0,-0x15b0(%rbp)
    af09:	00 00 00 00 
    af0d:	48 8d 85 20 ea ff ff 	lea    -0x15e0(%rbp),%rax
    af14:	48 83 c0 18          	add    $0x18,%rax
    af18:	48 89 85 70 ec ff ff 	mov    %rax,-0x1390(%rbp)
    af1f:	48 c7 85 78 ec ff ff 	movq   $0x0,-0x1388(%rbp)
    af26:	00 00 00 00 
    af2a:	48 8d 85 20 ea ff ff 	lea    -0x15e0(%rbp),%rax
    af31:	48 83 c0 18          	add    $0x18,%rax
    af35:	48 89 85 80 ec ff ff 	mov    %rax,-0x1380(%rbp)
    af3c:	48 c7 85 88 ec ff ff 	movq   $0x0,-0x1378(%rbp)
    af43:	00 00 00 00 
    af47:	48 8d 85 20 ea ff ff 	lea    -0x15e0(%rbp),%rax
    af4e:	48 83 c0 18          	add    $0x18,%rax
    af52:	48 89 85 90 ec ff ff 	mov    %rax,-0x1370(%rbp)
    af59:	48 c7 85 98 ec ff ff 	movq   $0x0,-0x1368(%rbp)
    af60:	00 00 00 00 
    af64:	48 8d 85 20 ea ff ff 	lea    -0x15e0(%rbp),%rax
    af6b:	48 83 c0 18          	add    $0x18,%rax
    af6f:	48 89 85 a0 ec ff ff 	mov    %rax,-0x1360(%rbp)
    af76:	48 c7 85 a8 ec ff ff 	movq   $0x0,-0x1358(%rbp)
    af7d:	00 00 00 00 
    af81:	48 8d 85 20 ea ff ff 	lea    -0x15e0(%rbp),%rax
    af88:	48 83 c0 18          	add    $0x18,%rax
    af8c:	48 89 85 b0 ec ff ff 	mov    %rax,-0x1350(%rbp)
    af93:	48 c7 85 b8 ec ff ff 	movq   $0x0,-0x1348(%rbp)
    af9a:	00 00 00 00 
    af9e:	48 c7 85 c0 ec ff ff 	movq   $0x0,-0x1340(%rbp)
    afa5:	00 00 00 00 
    afa9:	48 c7 85 c8 ec ff ff 	movq   $0x0,-0x1338(%rbp)
    afb0:	00 00 00 00 
    afb4:	48 c7 85 d0 ec ff ff 	movq   $0x0,-0x1330(%rbp)
    afbb:	00 00 00 00 
    afbf:	48 c7 85 d8 ec ff ff 	movq   $0x0,-0x1328(%rbp)
    afc6:	00 00 00 00 
    afca:	48 c7 85 e0 ec ff ff 	movq   $0x0,-0x1320(%rbp)
    afd1:	00 00 00 00 
    afd5:	48 c7 85 e8 ec ff ff 	movq   $0x0,-0x1318(%rbp)
    afdc:	00 00 00 00 
    afe0:	48 c7 85 f0 ec ff ff 	movq   $0x0,-0x1310(%rbp)
    afe7:	00 00 00 00 
    afeb:	48 c7 85 f8 ec ff ff 	movq   $0x0,-0x1308(%rbp)
    aff2:	00 00 00 00 
    aff6:	48 c7 85 00 ed ff ff 	movq   $0x0,-0x1300(%rbp)
    affd:	00 00 00 00 
    b001:	48 c7 85 08 ed ff ff 	movq   $0x0,-0x12f8(%rbp)
    b008:	00 00 00 00 
    b00c:	48 8d 85 20 ea ff ff 	lea    -0x15e0(%rbp),%rax
    b013:	48 83 c0 18          	add    $0x18,%rax
    b017:	48 89 85 10 ed ff ff 	mov    %rax,-0x12f0(%rbp)
    b01e:	48 c7 85 18 ed ff ff 	movq   $0x0,-0x12e8(%rbp)
    b025:	00 00 00 00 
    b029:	48 8d 85 20 ea ff ff 	lea    -0x15e0(%rbp),%rax
    b030:	48 83 c0 18          	add    $0x18,%rax
    b034:	48 89 85 20 ed ff ff 	mov    %rax,-0x12e0(%rbp)
    b03b:	48 c7 85 28 ed ff ff 	movq   $0x0,-0x12d8(%rbp)
    b042:	00 00 00 00 
    b046:	48 8d 85 20 ea ff ff 	lea    -0x15e0(%rbp),%rax
    b04d:	48 83 c0 18          	add    $0x18,%rax
    b051:	48 89 85 30 ed ff ff 	mov    %rax,-0x12d0(%rbp)
    b058:	48 c7 85 38 ed ff ff 	movq   $0x0,-0x12c8(%rbp)
    b05f:	00 00 00 00 
    b063:	48 8d 85 20 ea ff ff 	lea    -0x15e0(%rbp),%rax
    b06a:	48 83 c0 18          	add    $0x18,%rax
    b06e:	48 89 85 40 ed ff ff 	mov    %rax,-0x12c0(%rbp)
    b075:	48 c7 85 48 ed ff ff 	movq   $0x0,-0x12b8(%rbp)
    b07c:	00 00 00 00 
    b080:	48 8d 85 20 ea ff ff 	lea    -0x15e0(%rbp),%rax
    b087:	48 83 c0 18          	add    $0x18,%rax
    b08b:	48 89 85 50 ed ff ff 	mov    %rax,-0x12b0(%rbp)
    b092:	48 c7 85 58 ed ff ff 	movq   $0x0,-0x12a8(%rbp)
    b099:	00 00 00 00 
    b09d:	c7 85 10 e8 ff ff fb 	movl   $0xfffffffb,-0x17f0(%rbp)
    b0a4:	ff ff ff 
    b0a7:	48 c7 85 60 ed ff ff 	movq   $0x0,-0x12a0(%rbp)
    b0ae:	00 00 00 00 
    b0b2:	48 8d 05 cf 8f 00 00 	lea    0x8fcf(%rip),%rax        # 14088 <g_128+0x8>
    b0b9:	48 89 85 68 ed ff ff 	mov    %rax,-0x1298(%rbp)
    b0c0:	48 8d 05 c1 8f 00 00 	lea    0x8fc1(%rip),%rax        # 14088 <g_128+0x8>
    b0c7:	48 89 85 70 ed ff ff 	mov    %rax,-0x1290(%rbp)
    b0ce:	48 8d 05 b3 8f 00 00 	lea    0x8fb3(%rip),%rax        # 14088 <g_128+0x8>
    b0d5:	48 89 85 78 ed ff ff 	mov    %rax,-0x1288(%rbp)
    b0dc:	48 c7 85 80 ed ff ff 	movq   $0x0,-0x1280(%rbp)
    b0e3:	00 00 00 00 
    b0e7:	48 c7 85 88 ed ff ff 	movq   $0x0,-0x1278(%rbp)
    b0ee:	00 00 00 00 
    b0f2:	48 8d 05 8f 8f 00 00 	lea    0x8f8f(%rip),%rax        # 14088 <g_128+0x8>
    b0f9:	48 89 85 90 ed ff ff 	mov    %rax,-0x1270(%rbp)
    b100:	48 8d 05 81 8f 00 00 	lea    0x8f81(%rip),%rax        # 14088 <g_128+0x8>
    b107:	48 89 85 98 ed ff ff 	mov    %rax,-0x1268(%rbp)
    b10e:	48 8d 05 73 8f 00 00 	lea    0x8f73(%rip),%rax        # 14088 <g_128+0x8>
    b115:	48 89 85 a0 ed ff ff 	mov    %rax,-0x1260(%rbp)
    b11c:	48 c7 85 a8 ed ff ff 	movq   $0x0,-0x1258(%rbp)
    b123:	00 00 00 00 
    b127:	48 c7 85 b0 ed ff ff 	movq   $0x0,-0x1250(%rbp)
    b12e:	00 00 00 00 
    b132:	48 8d 05 4f 8f 00 00 	lea    0x8f4f(%rip),%rax        # 14088 <g_128+0x8>
    b139:	48 89 85 b8 ed ff ff 	mov    %rax,-0x1248(%rbp)
    b140:	48 8d 05 41 8f 00 00 	lea    0x8f41(%rip),%rax        # 14088 <g_128+0x8>
    b147:	48 89 85 c0 ed ff ff 	mov    %rax,-0x1240(%rbp)
    b14e:	48 8d 05 33 8f 00 00 	lea    0x8f33(%rip),%rax        # 14088 <g_128+0x8>
    b155:	48 89 85 c8 ed ff ff 	mov    %rax,-0x1238(%rbp)
    b15c:	48 c7 85 d0 ed ff ff 	movq   $0x0,-0x1230(%rbp)
    b163:	00 00 00 00 
    b167:	48 c7 85 d8 ed ff ff 	movq   $0x0,-0x1228(%rbp)
    b16e:	00 00 00 00 
    b172:	48 8d 05 0f 8f 00 00 	lea    0x8f0f(%rip),%rax        # 14088 <g_128+0x8>
    b179:	48 89 85 e0 ed ff ff 	mov    %rax,-0x1220(%rbp)
    b180:	48 8d 05 01 8f 00 00 	lea    0x8f01(%rip),%rax        # 14088 <g_128+0x8>
    b187:	48 89 85 e8 ed ff ff 	mov    %rax,-0x1218(%rbp)
    b18e:	48 8d 05 f3 8e 00 00 	lea    0x8ef3(%rip),%rax        # 14088 <g_128+0x8>
    b195:	48 89 85 f0 ed ff ff 	mov    %rax,-0x1210(%rbp)
    b19c:	48 c7 85 f8 ed ff ff 	movq   $0x0,-0x1208(%rbp)
    b1a3:	00 00 00 00 
    b1a7:	48 c7 85 00 ee ff ff 	movq   $0x0,-0x1200(%rbp)
    b1ae:	00 00 00 00 
    b1b2:	48 8d 05 cf 8e 00 00 	lea    0x8ecf(%rip),%rax        # 14088 <g_128+0x8>
    b1b9:	48 89 85 08 ee ff ff 	mov    %rax,-0x11f8(%rbp)
    b1c0:	48 8d 05 c1 8e 00 00 	lea    0x8ec1(%rip),%rax        # 14088 <g_128+0x8>
    b1c7:	48 89 85 10 ee ff ff 	mov    %rax,-0x11f0(%rbp)
    b1ce:	48 8d 05 b3 8e 00 00 	lea    0x8eb3(%rip),%rax        # 14088 <g_128+0x8>
    b1d5:	48 89 85 18 ee ff ff 	mov    %rax,-0x11e8(%rbp)
    b1dc:	48 c7 85 20 ee ff ff 	movq   $0x0,-0x11e0(%rbp)
    b1e3:	00 00 00 00 
    b1e7:	48 c7 85 28 ee ff ff 	movq   $0x0,-0x11d8(%rbp)
    b1ee:	00 00 00 00 
    b1f2:	48 8d 05 8f 8e 00 00 	lea    0x8e8f(%rip),%rax        # 14088 <g_128+0x8>
    b1f9:	48 89 85 30 ee ff ff 	mov    %rax,-0x11d0(%rbp)
    b200:	48 8d 05 81 8e 00 00 	lea    0x8e81(%rip),%rax        # 14088 <g_128+0x8>
    b207:	48 89 85 38 ee ff ff 	mov    %rax,-0x11c8(%rbp)
    b20e:	48 8d 05 73 8e 00 00 	lea    0x8e73(%rip),%rax        # 14088 <g_128+0x8>
    b215:	48 89 85 40 ee ff ff 	mov    %rax,-0x11c0(%rbp)
    b21c:	48 c7 85 48 ee ff ff 	movq   $0x0,-0x11b8(%rbp)
    b223:	00 00 00 00 
    b227:	48 c7 85 f0 e8 ff ff 	movq   $0x0,-0x1710(%rbp)
    b22e:	00 00 00 00 
    b232:	c6 85 f7 e7 ff ff 50 	movb   $0x50,-0x1809(%rbp)
    b239:	48 8d 05 a0 7e 00 00 	lea    0x7ea0(%rip),%rax        # 130e0 <g_164>
    b240:	48 89 85 f8 e8 ff ff 	mov    %rax,-0x1708(%rbp)
    b247:	48 8d 85 f0 e8 ff ff 	lea    -0x1710(%rbp),%rax
    b24e:	48 89 85 28 e9 ff ff 	mov    %rax,-0x16d8(%rbp)
    b255:	48 c7 85 18 e9 ff ff 	movq   $0x0,-0x16e8(%rbp)
    b25c:	00 00 00 00 
    b260:	c7 85 1c e8 ff ff 91 	movl   $0xa3c1e891,-0x17e4(%rbp)
    b267:	e8 c1 a3 
    b26a:	c7 85 20 e8 ff ff ff 	movl   $0x9a606dff,-0x17e0(%rbp)
    b271:	6d 60 9a 
    b274:	8b 85 10 e8 ff ff    	mov    -0x17f0(%rbp),%eax
    b27a:	0f b7 d8             	movzwl %ax,%ebx
    b27d:	44 8b a5 10 e8 ff ff 	mov    -0x17f0(%rbp),%r12d
    b284:	bf 00 00 00 00       	mov    $0x0,%edi
    b289:	e8 18 8c ff ff       	callq  3ea6 <safe_unary_minus_func_uint32_t_u>
    b28e:	0f be c0             	movsbl %al,%eax
    b291:	44 89 e6             	mov    %r12d,%esi
    b294:	89 c7                	mov    %eax,%edi
    b296:	e8 06 80 ff ff       	callq  32a1 <safe_lshift_func_int8_t_s_s>
    b29b:	66 98                	cbtw   
    b29d:	0f b7 c0             	movzwl %ax,%eax
    b2a0:	89 de                	mov    %ebx,%esi
    b2a2:	89 c7                	mov    %eax,%edi
    b2a4:	e8 b3 8a ff ff       	callq  3d5c <safe_mod_func_uint16_t_u_u>
    b2a9:	0f b7 d0             	movzwl %ax,%edx
    b2ac:	8b 85 10 e8 ff ff    	mov    -0x17f0(%rbp),%eax
    b2b2:	39 c2                	cmp    %eax,%edx
    b2b4:	0f 9f c0             	setg   %al
    b2b7:	0f b6 c0             	movzbl %al,%eax
    b2ba:	8b 95 10 e8 ff ff    	mov    -0x17f0(%rbp),%edx
    b2c0:	31 d0                	xor    %edx,%eax
    b2c2:	0f bf d8             	movswl %ax,%ebx
    b2c5:	8b 85 10 e8 ff ff    	mov    -0x17f0(%rbp),%eax
    b2cb:	0f be c8             	movsbl %al,%ecx
    b2ce:	48 8b 95 28 ed ff ff 	mov    -0x12d8(%rbp),%rdx
    b2d5:	0f b7 b5 e4 e7 ff ff 	movzwl -0x181c(%rbp),%esi
    b2dc:	48 8b 05 cd 94 00 00 	mov    0x94cd(%rip),%rax        # 147b0 <g_69>
    b2e3:	48 89 c7             	mov    %rax,%rdi
    b2e6:	e8 16 2e 00 00       	callq  e101 <func_64>
    b2eb:	98                   	cwtl   
    b2ec:	89 de                	mov    %ebx,%esi
    b2ee:	89 c7                	mov    %eax,%edi
    b2f0:	e8 21 81 ff ff       	callq  3416 <safe_mod_func_int16_t_s_s>
    b2f5:	66 85 c0             	test   %ax,%ax
    b2f8:	0f 84 14 17 00 00    	je     ca12 <func_58+0x1ba7>
    b2fe:	48 c7 85 40 ef ff ff 	movq   $0x0,-0x10c0(%rbp)
    b305:	00 00 00 00 
    b309:	48 8d 05 72 7d 00 00 	lea    0x7d72(%rip),%rax        # 13082 <g_93+0x42>
    b310:	48 89 85 48 ef ff ff 	mov    %rax,-0x10b8(%rbp)
    b317:	48 c7 85 50 ef ff ff 	movq   $0x0,-0x10b0(%rbp)
    b31e:	00 00 00 00 
    b322:	48 c7 85 58 ef ff ff 	movq   $0x0,-0x10a8(%rbp)
    b329:	00 00 00 00 
    b32d:	48 8d 05 4e 7d 00 00 	lea    0x7d4e(%rip),%rax        # 13082 <g_93+0x42>
    b334:	48 89 85 60 ef ff ff 	mov    %rax,-0x10a0(%rbp)
    b33b:	48 c7 85 68 ef ff ff 	movq   $0x0,-0x1098(%rbp)
    b342:	00 00 00 00 
    b346:	48 c7 85 70 ef ff ff 	movq   $0x0,-0x1090(%rbp)
    b34d:	00 00 00 00 
    b351:	48 c7 85 00 e9 ff ff 	movq   $0x0,-0x1700(%rbp)
    b358:	00 00 00 00 
    b35c:	c7 85 14 e8 ff ff a5 	movl   $0x7e68fba5,-0x17ec(%rbp)
    b363:	fb 68 7e 
    b366:	48 c7 85 08 e9 ff ff 	movq   $0x0,-0x16f8(%rbp)
    b36d:	00 00 00 00 
    b371:	c6 85 fa e7 ff ff 47 	movb   $0x47,-0x1806(%rbp)
    b378:	48 c7 85 c0 e9 ff ff 	movq   $0x1,-0x1640(%rbp)
    b37f:	01 00 00 00 
    b383:	48 c7 85 10 e9 ff ff 	movq   $0x0,-0x16f0(%rbp)
    b38a:	00 00 00 00 
    b38e:	c7 85 dc e8 ff ff f8 	movl   $0xfffffff8,-0x1724(%rbp)
    b395:	ff ff ff 
    b398:	c7 85 e0 e8 ff ff ff 	movl   $0xffffffff,-0x1720(%rbp)
    b39f:	ff ff ff 
    b3a2:	c7 85 24 e8 ff ff 00 	movl   $0x0,-0x17dc(%rbp)
    b3a9:	00 00 00 
    b3ac:	eb 1a                	jmp    b3c8 <func_58+0x55d>
    b3ae:	8b 85 24 e8 ff ff    	mov    -0x17dc(%rbp),%eax
    b3b4:	48 98                	cltq   
    b3b6:	c7 84 85 40 eb ff ff 	movl   $0xfffffffb,-0x14c0(%rbp,%rax,4)
    b3bd:	fb ff ff ff 
    b3c1:	83 85 24 e8 ff ff 01 	addl   $0x1,-0x17dc(%rbp)
    b3c8:	83 bd 24 e8 ff ff 00 	cmpl   $0x0,-0x17dc(%rbp)
    b3cf:	7e dd                	jle    b3ae <func_58+0x543>
    b3d1:	90                   	nop
    b3d2:	0f b6 05 51 7c 00 00 	movzbl 0x7c51(%rip),%eax        # 1302a <g_21>
    b3d9:	0f b6 d0             	movzbl %al,%edx
    b3dc:	48 8b 85 68 ef ff ff 	mov    -0x1098(%rbp),%rax
    b3e3:	48 85 c0             	test   %rax,%rax
    b3e6:	0f 95 c0             	setne  %al
    b3e9:	0f b6 c8             	movzbl %al,%ecx
    b3ec:	8b 85 14 e8 ff ff    	mov    -0x17ec(%rbp),%eax
    b3f2:	21 c8                	and    %ecx,%eax
    b3f4:	89 85 14 e8 ff ff    	mov    %eax,-0x17ec(%rbp)
    b3fa:	8b 85 14 e8 ff ff    	mov    -0x17ec(%rbp),%eax
    b400:	89 d6                	mov    %edx,%esi
    b402:	89 c7                	mov    %eax,%edi
    b404:	e8 ad 81 ff ff       	callq  35b6 <safe_add_func_int32_t_s_s>
    b409:	0f b7 95 e4 e7 ff ff 	movzwl -0x181c(%rbp),%edx
    b410:	0f be 85 e8 e7 ff ff 	movsbl -0x1818(%rbp),%eax
    b417:	09 c2                	or     %eax,%edx
    b419:	8b 85 40 eb ff ff    	mov    -0x14c0(%rbp),%eax
    b41f:	31 d0                	xor    %edx,%eax
    b421:	89 85 40 eb ff ff    	mov    %eax,-0x14c0(%rbp)
    b427:	48 be 50 dc d0 e2 a0 	movabs $0x338fb5a0e2d0dc50,%rsi
    b42e:	b5 8f 33 
    b431:	48 c7 c7 ff ff ff ff 	mov    $0xffffffffffffffff,%rdi
    b438:	e8 04 84 ff ff       	callq  3841 <safe_add_func_int64_t_s_s>
    b43d:	48 83 f8 5f          	cmp    $0x5f,%rax
    b441:	0f 9e c0             	setle  %al
    b444:	0f b6 d0             	movzbl %al,%edx
    b447:	48 8d 05 dc 7b 00 00 	lea    0x7bdc(%rip),%rax        # 1302a <g_21>
    b44e:	0f b6 00             	movzbl (%rax),%eax
    b451:	0f b6 c0             	movzbl %al,%eax
    b454:	31 c2                	xor    %eax,%edx
    b456:	8b 85 10 e8 ff ff    	mov    -0x17f0(%rbp),%eax
    b45c:	39 c2                	cmp    %eax,%edx
    b45e:	0f 85 0b 03 00 00    	jne    b76f <func_58+0x904>
    b464:	66 c7 85 0e e8 ff ff 	movw   $0x3f66,-0x17f2(%rbp)
    b46b:	66 3f 
    b46d:	48 8d 05 b6 7b 00 00 	lea    0x7bb6(%rip),%rax        # 1302a <g_21>
    b474:	48 89 85 f8 e9 ff ff 	mov    %rax,-0x1608(%rbp)
    b47b:	c7 85 40 f8 ff ff c3 	movl   $0x9a85a5c3,-0x7c0(%rbp)
    b482:	a5 85 9a 
    b485:	c7 85 44 f8 ff ff 00 	movl   $0x0,-0x7bc(%rbp)
    b48c:	00 00 00 
    b48f:	c7 85 48 f8 ff ff e6 	movl   $0xdcfca8e6,-0x7b8(%rbp)
    b496:	a8 fc dc 
    b499:	c7 85 4c f8 ff ff 00 	movl   $0x0,-0x7b4(%rbp)
    b4a0:	00 00 00 
    b4a3:	c7 85 50 f8 ff ff c3 	movl   $0x9a85a5c3,-0x7b0(%rbp)
    b4aa:	a5 85 9a 
    b4ad:	c7 85 54 f8 ff ff c9 	movl   $0xf09da1c9,-0x7ac(%rbp)
    b4b4:	a1 9d f0 
    b4b7:	c7 85 58 f8 ff ff c3 	movl   $0x9a85a5c3,-0x7a8(%rbp)
    b4be:	a5 85 9a 
    b4c1:	c7 85 5c f8 ff ff 00 	movl   $0x0,-0x7a4(%rbp)
    b4c8:	00 00 00 
    b4cb:	c7 85 60 f8 ff ff e6 	movl   $0xdcfca8e6,-0x7a0(%rbp)
    b4d2:	a8 fc dc 
    b4d5:	c7 85 64 f8 ff ff 00 	movl   $0x0,-0x79c(%rbp)
    b4dc:	00 00 00 
    b4df:	c7 85 68 f8 ff ff c3 	movl   $0x9a85a5c3,-0x798(%rbp)
    b4e6:	a5 85 9a 
    b4e9:	c7 85 6c f8 ff ff c9 	movl   $0xf09da1c9,-0x794(%rbp)
    b4f0:	a1 9d f0 
    b4f3:	c7 85 70 f8 ff ff c3 	movl   $0x9a85a5c3,-0x790(%rbp)
    b4fa:	a5 85 9a 
    b4fd:	c7 85 74 f8 ff ff 00 	movl   $0x0,-0x78c(%rbp)
    b504:	00 00 00 
    b507:	c7 85 78 f8 ff ff e6 	movl   $0xdcfca8e6,-0x788(%rbp)
    b50e:	a8 fc dc 
    b511:	66 c7 85 e4 e7 ff ff 	movw   $0xfff5,-0x181c(%rbp)
    b518:	f5 ff 
    b51a:	e9 3d 02 00 00       	jmpq   b75c <func_58+0x8f1>
    b51f:	c7 85 28 e8 ff ff 00 	movl   $0x0,-0x17d8(%rbp)
    b526:	00 00 00 
    b529:	eb 1e                	jmp    b549 <func_58+0x6de>
    b52b:	8b 85 28 e8 ff ff    	mov    -0x17d8(%rbp),%eax
    b531:	48 98                	cltq   
    b533:	48 8d 95 10 e8 ff ff 	lea    -0x17f0(%rbp),%rdx
    b53a:	48 89 94 c5 00 f2 ff 	mov    %rdx,-0xe00(%rbp,%rax,8)
    b541:	ff 
    b542:	83 85 28 e8 ff ff 01 	addl   $0x1,-0x17d8(%rbp)
    b549:	83 bd 28 e8 ff ff 01 	cmpl   $0x1,-0x17d8(%rbp)
    b550:	7e d9                	jle    b52b <func_58+0x6c0>
    b552:	c7 05 5c 92 00 00 f1 	movl   $0xfffffff1,0x925c(%rip)        # 147b8 <g_75>
    b559:	ff ff ff 
    b55c:	e9 bd 01 00 00       	jmpq   b71e <func_58+0x8b3>
    b561:	48 8d 85 40 eb ff ff 	lea    -0x14c0(%rbp),%rax
    b568:	48 89 85 00 ea ff ff 	mov    %rax,-0x1600(%rbp)
    b56f:	48 8d 05 62 8b 00 00 	lea    0x8b62(%rip),%rax        # 140d8 <g_127+0x18>
    b576:	48 89 85 08 ea ff ff 	mov    %rax,-0x15f8(%rbp)
    b57d:	48 8d 05 54 7b 00 00 	lea    0x7b54(%rip),%rax        # 130d8 <g_137>
    b584:	48 89 85 10 ea ff ff 	mov    %rax,-0x15f0(%rbp)
    b58b:	0f b7 05 f8 7a 00 00 	movzwl 0x7af8(%rip),%eax        # 1308a <g_93+0x4a>
    b592:	98                   	cwtl   
    b593:	39 85 ec e7 ff ff    	cmp    %eax,-0x1814(%rbp)
    b599:	0f 94 c0             	sete   %al
    b59c:	0f b6 c0             	movzbl %al,%eax
    b59f:	be 7d 00 00 00       	mov    $0x7d,%esi
    b5a4:	89 c7                	mov    %eax,%edi
    b5a6:	e8 e8 85 ff ff       	callq  3b93 <safe_mul_func_uint8_t_u_u>
    b5ab:	48 8b 95 00 ea ff ff 	mov    -0x1600(%rbp),%rdx
    b5b2:	8b 12                	mov    (%rdx),%edx
    b5b4:	0f b6 c0             	movzbl %al,%eax
    b5b7:	09 c2                	or     %eax,%edx
    b5b9:	48 8b 85 00 ea ff ff 	mov    -0x1600(%rbp),%rax
    b5c0:	89 10                	mov    %edx,(%rax)
    b5c2:	8b 9d ec e7 ff ff    	mov    -0x1814(%rbp),%ebx
    b5c8:	44 0f be ad e8 e7 ff 	movsbl -0x1818(%rbp),%r13d
    b5cf:	ff 
    b5d0:	0f be 8d e8 e7 ff ff 	movsbl -0x1818(%rbp),%ecx
    b5d7:	48 8b 15 fa 8a 00 00 	mov    0x8afa(%rip),%rdx        # 140d8 <g_127+0x18>
    b5de:	48 8b 85 08 ea ff ff 	mov    -0x15f8(%rbp),%rax
    b5e5:	48 89 10             	mov    %rdx,(%rax)
    b5e8:	48 8b 85 08 ea ff ff 	mov    -0x15f8(%rbp),%rax
    b5ef:	48 8b 10             	mov    (%rax),%rdx
    b5f2:	48 8b 85 b8 ed ff ff 	mov    -0x1248(%rbp),%rax
    b5f9:	48 39 c2             	cmp    %rax,%rdx
    b5fc:	0f 94 c0             	sete   %al
    b5ff:	0f b6 c0             	movzbl %al,%eax
    b602:	39 c1                	cmp    %eax,%ecx
    b604:	41 0f 95 c7          	setne  %r15b
    b608:	0f b7 85 e4 e7 ff ff 	movzwl -0x181c(%rbp),%eax
    b60f:	66 89 85 0e e8 ff ff 	mov    %ax,-0x17f2(%rbp)
    b616:	4c 0f bf b5 0e e8 ff 	movswq -0x17f2(%rbp),%r14
    b61d:	ff 
    b61e:	44 0f b7 a5 e4 e7 ff 	movzwl -0x181c(%rbp),%r12d
    b625:	ff 
    b626:	0f b6 05 83 7a 00 00 	movzbl 0x7a83(%rip),%eax        # 130b0 <g_97>
    b62d:	66 98                	cbtw   
    b62f:	0f b7 c0             	movzwl %ax,%eax
    b632:	be 30 5f 00 00       	mov    $0x5f30,%esi
    b637:	89 c7                	mov    %eax,%edi
    b639:	e8 1e 87 ff ff       	callq  3d5c <safe_mod_func_uint16_t_u_u>
    b63e:	0f b7 c0             	movzwl %ax,%eax
    b641:	4c 89 e6             	mov    %r12,%rsi
    b644:	48 89 c7             	mov    %rax,%rdi
    b647:	e8 ab 83 ff ff       	callq  39f7 <safe_div_func_int64_t_s_s>
    b64c:	49 39 c6             	cmp    %rax,%r14
    b64f:	0f 95 c0             	setne  %al
    b652:	44 31 f8             	xor    %r15d,%eax
    b655:	0f b6 d0             	movzbl %al,%edx
    b658:	48 8b 85 10 ea ff ff 	mov    -0x15f0(%rbp),%rax
    b65f:	48 89 10             	mov    %rdx,(%rax)
    b662:	48 8b 85 10 ea ff ff 	mov    -0x15f0(%rbp),%rax
    b669:	48 8b 00             	mov    (%rax),%rax
    b66c:	48 85 c0             	test   %rax,%rax
    b66f:	75 0a                	jne    b67b <func_58+0x810>
    b671:	66 83 bd 0e e8 ff ff 	cmpw   $0x0,-0x17f2(%rbp)
    b678:	00 
    b679:	74 07                	je     b682 <func_58+0x817>
    b67b:	b8 01 00 00 00       	mov    $0x1,%eax
    b680:	eb 05                	jmp    b687 <func_58+0x81c>
    b682:	b8 00 00 00 00       	mov    $0x0,%eax
    b687:	44 09 e8             	or     %r13d,%eax
    b68a:	83 f0 01             	xor    $0x1,%eax
    b68d:	23 85 ec e7 ff ff    	and    -0x1814(%rbp),%eax
    b693:	89 de                	mov    %ebx,%esi
    b695:	89 c7                	mov    %eax,%edi
    b697:	e8 61 88 ff ff       	callq  3efd <safe_mod_func_uint32_t_u_u>
    b69c:	85 c0                	test   %eax,%eax
    b69e:	74 1b                	je     b6bb <func_58+0x850>
    b6a0:	66 83 bd 0e e8 ff ff 	cmpw   $0x0,-0x17f2(%rbp)
    b6a7:	00 
    b6a8:	74 11                	je     b6bb <func_58+0x850>
    b6aa:	0f b7 05 7b 79 00 00 	movzwl 0x797b(%rip),%eax        # 1302c <g_72>
    b6b1:	66 85 c0             	test   %ax,%ax
    b6b4:	74 50                	je     b706 <func_58+0x89b>
    b6b6:	e9 17 fd ff ff       	jmpq   b3d2 <func_58+0x567>
    b6bb:	48 8d 85 f0 e8 ff ff 	lea    -0x1710(%rbp),%rax
    b6c2:	48 89 85 18 ea ff ff 	mov    %rax,-0x15e8(%rbp)
    b6c9:	48 8b 95 f0 e8 ff ff 	mov    -0x1710(%rbp),%rdx
    b6d0:	48 8b 85 18 ea ff ff 	mov    -0x15e8(%rbp),%rax
    b6d7:	48 89 10             	mov    %rdx,(%rax)
    b6da:	48 8b 85 18 ea ff ff 	mov    -0x15e8(%rbp),%rax
    b6e1:	48 8b 00             	mov    (%rax),%rax
    b6e4:	48 39 85 f8 e9 ff ff 	cmp    %rax,-0x1608(%rbp)
    b6eb:	0f 94 c0             	sete   %al
    b6ee:	0f b6 c0             	movzbl %al,%eax
    b6f1:	be 01 00 00 00       	mov    $0x1,%esi
    b6f6:	89 c7                	mov    %eax,%edi
    b6f8:	e8 96 84 ff ff       	callq  3b93 <safe_mul_func_uint8_t_u_u>
    b6fd:	0f b6 c0             	movzbl %al,%eax
    b700:	89 85 74 f8 ff ff    	mov    %eax,-0x78c(%rbp)
    b706:	83 bd ec e7 ff ff 00 	cmpl   $0x0,-0x1814(%rbp)
    b70d:	75 20                	jne    b72f <func_58+0x8c4>
    b70f:	8b 05 a3 90 00 00    	mov    0x90a3(%rip),%eax        # 147b8 <g_75>
    b715:	83 c0 01             	add    $0x1,%eax
    b718:	89 05 9a 90 00 00    	mov    %eax,0x909a(%rip)        # 147b8 <g_75>
    b71e:	8b 05 94 90 00 00    	mov    0x9094(%rip),%eax        # 147b8 <g_75>
    b724:	83 f8 10             	cmp    $0x10,%eax
    b727:	0f 8f 34 fe ff ff    	jg     b561 <func_58+0x6f6>
    b72d:	eb 01                	jmp    b730 <func_58+0x8c5>
    b72f:	90                   	nop
    b730:	48 8d 85 40 f8 ff ff 	lea    -0x7c0(%rbp),%rax
    b737:	48 83 c0 2c          	add    $0x2c,%rax
    b73b:	48 89 85 00 f2 ff ff 	mov    %rax,-0xe00(%rbp)
    b742:	0f b7 85 e4 e7 ff ff 	movzwl -0x181c(%rbp),%eax
    b749:	be 08 00 00 00       	mov    $0x8,%esi
    b74e:	89 c7                	mov    %eax,%edi
    b750:	e8 63 87 ff ff       	callq  3eb8 <safe_add_func_uint32_t_u_u>
    b755:	66 89 85 e4 e7 ff ff 	mov    %ax,-0x181c(%rbp)
    b75c:	66 83 bd e4 e7 ff ff 	cmpw   $0x17,-0x181c(%rbp)
    b763:	17 
    b764:	0f 86 b5 fd ff ff    	jbe    b51f <func_58+0x6b4>
    b76a:	e9 52 12 00 00       	jmpq   c9c1 <func_58+0x1b56>
    b76f:	48 c7 85 c8 e9 ff ff 	movq   $0x3,-0x1638(%rbp)
    b776:	03 00 00 00 
    b77a:	48 8d 85 00 e9 ff ff 	lea    -0x1700(%rbp),%rax
    b781:	48 89 85 40 f8 ff ff 	mov    %rax,-0x7c0(%rbp)
    b788:	48 8d 85 00 e9 ff ff 	lea    -0x1700(%rbp),%rax
    b78f:	48 89 85 48 f8 ff ff 	mov    %rax,-0x7b8(%rbp)
    b796:	48 8d 85 00 e9 ff ff 	lea    -0x1700(%rbp),%rax
    b79d:	48 89 85 50 f8 ff ff 	mov    %rax,-0x7b0(%rbp)
    b7a4:	48 8d 05 f5 88 00 00 	lea    0x88f5(%rip),%rax        # 140a0 <g_128+0x20>
    b7ab:	48 89 85 58 f8 ff ff 	mov    %rax,-0x7a8(%rbp)
    b7b2:	48 8d 05 e7 88 00 00 	lea    0x88e7(%rip),%rax        # 140a0 <g_128+0x20>
    b7b9:	48 89 85 60 f8 ff ff 	mov    %rax,-0x7a0(%rbp)
    b7c0:	48 c7 85 68 f8 ff ff 	movq   $0x0,-0x798(%rbp)
    b7c7:	00 00 00 00 
    b7cb:	48 8d 05 c6 88 00 00 	lea    0x88c6(%rip),%rax        # 14098 <g_128+0x18>
    b7d2:	48 89 85 70 f8 ff ff 	mov    %rax,-0x790(%rbp)
    b7d9:	48 c7 85 78 f8 ff ff 	movq   $0x0,-0x788(%rbp)
    b7e0:	00 00 00 00 
    b7e4:	48 8d 85 08 e9 ff ff 	lea    -0x16f8(%rbp),%rax
    b7eb:	48 89 85 80 f8 ff ff 	mov    %rax,-0x780(%rbp)
    b7f2:	48 8d 85 08 e9 ff ff 	lea    -0x16f8(%rbp),%rax
    b7f9:	48 89 85 88 f8 ff ff 	mov    %rax,-0x778(%rbp)
    b800:	48 8d 85 00 e9 ff ff 	lea    -0x1700(%rbp),%rax
    b807:	48 89 85 90 f8 ff ff 	mov    %rax,-0x770(%rbp)
    b80e:	48 8d 85 00 e9 ff ff 	lea    -0x1700(%rbp),%rax
    b815:	48 89 85 98 f8 ff ff 	mov    %rax,-0x768(%rbp)
    b81c:	48 8d 85 00 e9 ff ff 	lea    -0x1700(%rbp),%rax
    b823:	48 89 85 a0 f8 ff ff 	mov    %rax,-0x760(%rbp)
    b82a:	48 8d 05 6f 88 00 00 	lea    0x886f(%rip),%rax        # 140a0 <g_128+0x20>
    b831:	48 89 85 a8 f8 ff ff 	mov    %rax,-0x758(%rbp)
    b838:	48 8d 05 61 88 00 00 	lea    0x8861(%rip),%rax        # 140a0 <g_128+0x20>
    b83f:	48 89 85 b0 f8 ff ff 	mov    %rax,-0x750(%rbp)
    b846:	48 c7 85 b8 f8 ff ff 	movq   $0x0,-0x748(%rbp)
    b84d:	00 00 00 00 
    b851:	48 8d 05 40 88 00 00 	lea    0x8840(%rip),%rax        # 14098 <g_128+0x18>
    b858:	48 89 85 c0 f8 ff ff 	mov    %rax,-0x740(%rbp)
    b85f:	48 c7 85 c8 f8 ff ff 	movq   $0x0,-0x738(%rbp)
    b866:	00 00 00 00 
    b86a:	48 8d 85 08 e9 ff ff 	lea    -0x16f8(%rbp),%rax
    b871:	48 89 85 d0 f8 ff ff 	mov    %rax,-0x730(%rbp)
    b878:	48 8d 85 08 e9 ff ff 	lea    -0x16f8(%rbp),%rax
    b87f:	48 89 85 d8 f8 ff ff 	mov    %rax,-0x728(%rbp)
    b886:	48 8d 85 00 e9 ff ff 	lea    -0x1700(%rbp),%rax
    b88d:	48 89 85 e0 f8 ff ff 	mov    %rax,-0x720(%rbp)
    b894:	48 8d 85 00 e9 ff ff 	lea    -0x1700(%rbp),%rax
    b89b:	48 89 85 e8 f8 ff ff 	mov    %rax,-0x718(%rbp)
    b8a2:	48 8d 85 00 e9 ff ff 	lea    -0x1700(%rbp),%rax
    b8a9:	48 89 85 f0 f8 ff ff 	mov    %rax,-0x710(%rbp)
    b8b0:	48 8d 05 e9 87 00 00 	lea    0x87e9(%rip),%rax        # 140a0 <g_128+0x20>
    b8b7:	48 89 85 f8 f8 ff ff 	mov    %rax,-0x708(%rbp)
    b8be:	48 8d 05 db 87 00 00 	lea    0x87db(%rip),%rax        # 140a0 <g_128+0x20>
    b8c5:	48 89 85 00 f9 ff ff 	mov    %rax,-0x700(%rbp)
    b8cc:	48 c7 85 08 f9 ff ff 	movq   $0x0,-0x6f8(%rbp)
    b8d3:	00 00 00 00 
    b8d7:	48 8d 05 ba 87 00 00 	lea    0x87ba(%rip),%rax        # 14098 <g_128+0x18>
    b8de:	48 89 85 10 f9 ff ff 	mov    %rax,-0x6f0(%rbp)
    b8e5:	48 c7 85 18 f9 ff ff 	movq   $0x0,-0x6e8(%rbp)
    b8ec:	00 00 00 00 
    b8f0:	48 8d 85 08 e9 ff ff 	lea    -0x16f8(%rbp),%rax
    b8f7:	48 89 85 20 f9 ff ff 	mov    %rax,-0x6e0(%rbp)
    b8fe:	48 8d 85 08 e9 ff ff 	lea    -0x16f8(%rbp),%rax
    b905:	48 89 85 28 f9 ff ff 	mov    %rax,-0x6d8(%rbp)
    b90c:	48 8d 85 00 e9 ff ff 	lea    -0x1700(%rbp),%rax
    b913:	48 89 85 30 f9 ff ff 	mov    %rax,-0x6d0(%rbp)
    b91a:	48 8d 85 00 e9 ff ff 	lea    -0x1700(%rbp),%rax
    b921:	48 89 85 38 f9 ff ff 	mov    %rax,-0x6c8(%rbp)
    b928:	48 8d 85 00 e9 ff ff 	lea    -0x1700(%rbp),%rax
    b92f:	48 89 85 40 f9 ff ff 	mov    %rax,-0x6c0(%rbp)
    b936:	48 8d 05 63 87 00 00 	lea    0x8763(%rip),%rax        # 140a0 <g_128+0x20>
    b93d:	48 89 85 48 f9 ff ff 	mov    %rax,-0x6b8(%rbp)
    b944:	48 8d 05 55 87 00 00 	lea    0x8755(%rip),%rax        # 140a0 <g_128+0x20>
    b94b:	48 89 85 50 f9 ff ff 	mov    %rax,-0x6b0(%rbp)
    b952:	48 c7 85 58 f9 ff ff 	movq   $0x0,-0x6a8(%rbp)
    b959:	00 00 00 00 
    b95d:	48 8d 05 34 87 00 00 	lea    0x8734(%rip),%rax        # 14098 <g_128+0x18>
    b964:	48 89 85 60 f9 ff ff 	mov    %rax,-0x6a0(%rbp)
    b96b:	48 c7 85 68 f9 ff ff 	movq   $0x0,-0x698(%rbp)
    b972:	00 00 00 00 
    b976:	48 8d 85 08 e9 ff ff 	lea    -0x16f8(%rbp),%rax
    b97d:	48 89 85 70 f9 ff ff 	mov    %rax,-0x690(%rbp)
    b984:	48 8d 85 08 e9 ff ff 	lea    -0x16f8(%rbp),%rax
    b98b:	48 89 85 78 f9 ff ff 	mov    %rax,-0x688(%rbp)
    b992:	48 8d 85 00 e9 ff ff 	lea    -0x1700(%rbp),%rax
    b999:	48 89 85 80 f9 ff ff 	mov    %rax,-0x680(%rbp)
    b9a0:	48 8d 85 00 e9 ff ff 	lea    -0x1700(%rbp),%rax
    b9a7:	48 89 85 88 f9 ff ff 	mov    %rax,-0x678(%rbp)
    b9ae:	48 8d 85 00 e9 ff ff 	lea    -0x1700(%rbp),%rax
    b9b5:	48 89 85 90 f9 ff ff 	mov    %rax,-0x670(%rbp)
    b9bc:	48 8d 05 dd 86 00 00 	lea    0x86dd(%rip),%rax        # 140a0 <g_128+0x20>
    b9c3:	48 89 85 98 f9 ff ff 	mov    %rax,-0x668(%rbp)
    b9ca:	48 8d 05 cf 86 00 00 	lea    0x86cf(%rip),%rax        # 140a0 <g_128+0x20>
    b9d1:	48 89 85 a0 f9 ff ff 	mov    %rax,-0x660(%rbp)
    b9d8:	48 c7 85 a8 f9 ff ff 	movq   $0x0,-0x658(%rbp)
    b9df:	00 00 00 00 
    b9e3:	48 8d 05 ae 86 00 00 	lea    0x86ae(%rip),%rax        # 14098 <g_128+0x18>
    b9ea:	48 89 85 b0 f9 ff ff 	mov    %rax,-0x650(%rbp)
    b9f1:	48 c7 85 b8 f9 ff ff 	movq   $0x0,-0x648(%rbp)
    b9f8:	00 00 00 00 
    b9fc:	48 8d 85 08 e9 ff ff 	lea    -0x16f8(%rbp),%rax
    ba03:	48 89 85 c0 f9 ff ff 	mov    %rax,-0x640(%rbp)
    ba0a:	48 8d 85 08 e9 ff ff 	lea    -0x16f8(%rbp),%rax
    ba11:	48 89 85 c8 f9 ff ff 	mov    %rax,-0x638(%rbp)
    ba18:	48 8d 85 00 e9 ff ff 	lea    -0x1700(%rbp),%rax
    ba1f:	48 89 85 d0 f9 ff ff 	mov    %rax,-0x630(%rbp)
    ba26:	48 8d 85 00 e9 ff ff 	lea    -0x1700(%rbp),%rax
    ba2d:	48 89 85 d8 f9 ff ff 	mov    %rax,-0x628(%rbp)
    ba34:	48 8d 85 00 e9 ff ff 	lea    -0x1700(%rbp),%rax
    ba3b:	48 89 85 e0 f9 ff ff 	mov    %rax,-0x620(%rbp)
    ba42:	48 8d 05 57 86 00 00 	lea    0x8657(%rip),%rax        # 140a0 <g_128+0x20>
    ba49:	48 89 85 e8 f9 ff ff 	mov    %rax,-0x618(%rbp)
    ba50:	48 8d 05 49 86 00 00 	lea    0x8649(%rip),%rax        # 140a0 <g_128+0x20>
    ba57:	48 89 85 f0 f9 ff ff 	mov    %rax,-0x610(%rbp)
    ba5e:	48 c7 85 f8 f9 ff ff 	movq   $0x0,-0x608(%rbp)
    ba65:	00 00 00 00 
    ba69:	48 8d 05 28 86 00 00 	lea    0x8628(%rip),%rax        # 14098 <g_128+0x18>
    ba70:	48 89 85 00 fa ff ff 	mov    %rax,-0x600(%rbp)
    ba77:	48 c7 85 08 fa ff ff 	movq   $0x0,-0x5f8(%rbp)
    ba7e:	00 00 00 00 
    ba82:	48 8d 85 08 e9 ff ff 	lea    -0x16f8(%rbp),%rax
    ba89:	48 89 85 10 fa ff ff 	mov    %rax,-0x5f0(%rbp)
    ba90:	48 8d 85 08 e9 ff ff 	lea    -0x16f8(%rbp),%rax
    ba97:	48 89 85 18 fa ff ff 	mov    %rax,-0x5e8(%rbp)
    ba9e:	48 8d 85 00 e9 ff ff 	lea    -0x1700(%rbp),%rax
    baa5:	48 89 85 20 fa ff ff 	mov    %rax,-0x5e0(%rbp)
    baac:	48 8d 85 00 e9 ff ff 	lea    -0x1700(%rbp),%rax
    bab3:	48 89 85 28 fa ff ff 	mov    %rax,-0x5d8(%rbp)
    baba:	48 8d 85 00 e9 ff ff 	lea    -0x1700(%rbp),%rax
    bac1:	48 89 85 30 fa ff ff 	mov    %rax,-0x5d0(%rbp)
    bac8:	48 8d 05 d1 85 00 00 	lea    0x85d1(%rip),%rax        # 140a0 <g_128+0x20>
    bacf:	48 89 85 38 fa ff ff 	mov    %rax,-0x5c8(%rbp)
    bad6:	48 8d 05 c3 85 00 00 	lea    0x85c3(%rip),%rax        # 140a0 <g_128+0x20>
    badd:	48 89 85 40 fa ff ff 	mov    %rax,-0x5c0(%rbp)
    bae4:	48 c7 85 48 fa ff ff 	movq   $0x0,-0x5b8(%rbp)
    baeb:	00 00 00 00 
    baef:	48 8d 05 a2 85 00 00 	lea    0x85a2(%rip),%rax        # 14098 <g_128+0x18>
    baf6:	48 89 85 50 fa ff ff 	mov    %rax,-0x5b0(%rbp)
    bafd:	48 c7 85 58 fa ff ff 	movq   $0x0,-0x5a8(%rbp)
    bb04:	00 00 00 00 
    bb08:	48 8d 85 08 e9 ff ff 	lea    -0x16f8(%rbp),%rax
    bb0f:	48 89 85 60 fa ff ff 	mov    %rax,-0x5a0(%rbp)
    bb16:	48 8d 85 08 e9 ff ff 	lea    -0x16f8(%rbp),%rax
    bb1d:	48 89 85 68 fa ff ff 	mov    %rax,-0x598(%rbp)
    bb24:	48 8d 85 00 e9 ff ff 	lea    -0x1700(%rbp),%rax
    bb2b:	48 89 85 70 fa ff ff 	mov    %rax,-0x590(%rbp)
    bb32:	48 8d 85 00 e9 ff ff 	lea    -0x1700(%rbp),%rax
    bb39:	48 89 85 78 fa ff ff 	mov    %rax,-0x588(%rbp)
    bb40:	48 8d 85 00 e9 ff ff 	lea    -0x1700(%rbp),%rax
    bb47:	48 89 85 80 fa ff ff 	mov    %rax,-0x580(%rbp)
    bb4e:	48 8d 05 4b 85 00 00 	lea    0x854b(%rip),%rax        # 140a0 <g_128+0x20>
    bb55:	48 89 85 88 fa ff ff 	mov    %rax,-0x578(%rbp)
    bb5c:	48 8d 05 3d 85 00 00 	lea    0x853d(%rip),%rax        # 140a0 <g_128+0x20>
    bb63:	48 89 85 90 fa ff ff 	mov    %rax,-0x570(%rbp)
    bb6a:	48 c7 85 98 fa ff ff 	movq   $0x0,-0x568(%rbp)
    bb71:	00 00 00 00 
    bb75:	48 8d 05 1c 85 00 00 	lea    0x851c(%rip),%rax        # 14098 <g_128+0x18>
    bb7c:	48 89 85 a0 fa ff ff 	mov    %rax,-0x560(%rbp)
    bb83:	48 c7 85 a8 fa ff ff 	movq   $0x0,-0x558(%rbp)
    bb8a:	00 00 00 00 
    bb8e:	48 8d 85 08 e9 ff ff 	lea    -0x16f8(%rbp),%rax
    bb95:	48 89 85 b0 fa ff ff 	mov    %rax,-0x550(%rbp)
    bb9c:	48 8d 85 08 e9 ff ff 	lea    -0x16f8(%rbp),%rax
    bba3:	48 89 85 b8 fa ff ff 	mov    %rax,-0x548(%rbp)
    bbaa:	48 8d 85 00 e9 ff ff 	lea    -0x1700(%rbp),%rax
    bbb1:	48 89 85 c0 fa ff ff 	mov    %rax,-0x540(%rbp)
    bbb8:	48 8d 85 00 e9 ff ff 	lea    -0x1700(%rbp),%rax
    bbbf:	48 89 85 c8 fa ff ff 	mov    %rax,-0x538(%rbp)
    bbc6:	48 8d 85 00 e9 ff ff 	lea    -0x1700(%rbp),%rax
    bbcd:	48 89 85 d0 fa ff ff 	mov    %rax,-0x530(%rbp)
    bbd4:	48 8d 05 c5 84 00 00 	lea    0x84c5(%rip),%rax        # 140a0 <g_128+0x20>
    bbdb:	48 89 85 d8 fa ff ff 	mov    %rax,-0x528(%rbp)
    bbe2:	48 8d 05 b7 84 00 00 	lea    0x84b7(%rip),%rax        # 140a0 <g_128+0x20>
    bbe9:	48 89 85 e0 fa ff ff 	mov    %rax,-0x520(%rbp)
    bbf0:	48 c7 85 e8 fa ff ff 	movq   $0x0,-0x518(%rbp)
    bbf7:	00 00 00 00 
    bbfb:	48 8d 05 96 84 00 00 	lea    0x8496(%rip),%rax        # 14098 <g_128+0x18>
    bc02:	48 89 85 f0 fa ff ff 	mov    %rax,-0x510(%rbp)
    bc09:	48 c7 85 f8 fa ff ff 	movq   $0x0,-0x508(%rbp)
    bc10:	00 00 00 00 
    bc14:	48 8d 85 08 e9 ff ff 	lea    -0x16f8(%rbp),%rax
    bc1b:	48 89 85 00 fb ff ff 	mov    %rax,-0x500(%rbp)
    bc22:	48 8d 85 08 e9 ff ff 	lea    -0x16f8(%rbp),%rax
    bc29:	48 89 85 08 fb ff ff 	mov    %rax,-0x4f8(%rbp)
    bc30:	48 8d 85 00 e9 ff ff 	lea    -0x1700(%rbp),%rax
    bc37:	48 89 85 10 fb ff ff 	mov    %rax,-0x4f0(%rbp)
    bc3e:	48 8d 85 00 e9 ff ff 	lea    -0x1700(%rbp),%rax
    bc45:	48 89 85 18 fb ff ff 	mov    %rax,-0x4e8(%rbp)
    bc4c:	48 8d 85 00 e9 ff ff 	lea    -0x1700(%rbp),%rax
    bc53:	48 89 85 20 fb ff ff 	mov    %rax,-0x4e0(%rbp)
    bc5a:	48 8d 05 3f 84 00 00 	lea    0x843f(%rip),%rax        # 140a0 <g_128+0x20>
    bc61:	48 89 85 28 fb ff ff 	mov    %rax,-0x4d8(%rbp)
    bc68:	48 8d 05 31 84 00 00 	lea    0x8431(%rip),%rax        # 140a0 <g_128+0x20>
    bc6f:	48 89 85 30 fb ff ff 	mov    %rax,-0x4d0(%rbp)
    bc76:	48 c7 85 38 fb ff ff 	movq   $0x0,-0x4c8(%rbp)
    bc7d:	00 00 00 00 
    bc81:	48 8d 05 10 84 00 00 	lea    0x8410(%rip),%rax        # 14098 <g_128+0x18>
    bc88:	48 89 85 40 fb ff ff 	mov    %rax,-0x4c0(%rbp)
    bc8f:	48 c7 85 48 fb ff ff 	movq   $0x0,-0x4b8(%rbp)
    bc96:	00 00 00 00 
    bc9a:	48 8d 85 08 e9 ff ff 	lea    -0x16f8(%rbp),%rax
    bca1:	48 89 85 50 fb ff ff 	mov    %rax,-0x4b0(%rbp)
    bca8:	48 8d 85 08 e9 ff ff 	lea    -0x16f8(%rbp),%rax
    bcaf:	48 89 85 58 fb ff ff 	mov    %rax,-0x4a8(%rbp)
    bcb6:	48 8d 85 00 e9 ff ff 	lea    -0x1700(%rbp),%rax
    bcbd:	48 89 85 60 fb ff ff 	mov    %rax,-0x4a0(%rbp)
    bcc4:	48 8d 85 00 e9 ff ff 	lea    -0x1700(%rbp),%rax
    bccb:	48 89 85 68 fb ff ff 	mov    %rax,-0x498(%rbp)
    bcd2:	48 8d 85 00 e9 ff ff 	lea    -0x1700(%rbp),%rax
    bcd9:	48 89 85 70 fb ff ff 	mov    %rax,-0x490(%rbp)
    bce0:	48 8d 05 b9 83 00 00 	lea    0x83b9(%rip),%rax        # 140a0 <g_128+0x20>
    bce7:	48 89 85 78 fb ff ff 	mov    %rax,-0x488(%rbp)
    bcee:	48 8d 05 ab 83 00 00 	lea    0x83ab(%rip),%rax        # 140a0 <g_128+0x20>
    bcf5:	48 89 85 80 fb ff ff 	mov    %rax,-0x480(%rbp)
    bcfc:	48 c7 85 88 fb ff ff 	movq   $0x0,-0x478(%rbp)
    bd03:	00 00 00 00 
    bd07:	48 8d 05 8a 83 00 00 	lea    0x838a(%rip),%rax        # 14098 <g_128+0x18>
    bd0e:	48 89 85 90 fb ff ff 	mov    %rax,-0x470(%rbp)
    bd15:	48 c7 85 98 fb ff ff 	movq   $0x0,-0x468(%rbp)
    bd1c:	00 00 00 00 
    bd20:	48 8d 85 08 e9 ff ff 	lea    -0x16f8(%rbp),%rax
    bd27:	48 89 85 a0 fb ff ff 	mov    %rax,-0x460(%rbp)
    bd2e:	48 8d 85 08 e9 ff ff 	lea    -0x16f8(%rbp),%rax
    bd35:	48 89 85 a8 fb ff ff 	mov    %rax,-0x458(%rbp)
    bd3c:	48 8d 85 00 e9 ff ff 	lea    -0x1700(%rbp),%rax
    bd43:	48 89 85 b0 fb ff ff 	mov    %rax,-0x450(%rbp)
    bd4a:	48 8d 85 00 e9 ff ff 	lea    -0x1700(%rbp),%rax
    bd51:	48 89 85 b8 fb ff ff 	mov    %rax,-0x448(%rbp)
    bd58:	48 8d 85 00 e9 ff ff 	lea    -0x1700(%rbp),%rax
    bd5f:	48 89 85 c0 fb ff ff 	mov    %rax,-0x440(%rbp)
    bd66:	48 8d 05 33 83 00 00 	lea    0x8333(%rip),%rax        # 140a0 <g_128+0x20>
    bd6d:	48 89 85 c8 fb ff ff 	mov    %rax,-0x438(%rbp)
    bd74:	48 8d 85 00 e9 ff ff 	lea    -0x1700(%rbp),%rax
    bd7b:	48 89 85 d0 fb ff ff 	mov    %rax,-0x430(%rbp)
    bd82:	48 8d 05 ff 82 00 00 	lea    0x82ff(%rip),%rax        # 14088 <g_128+0x8>
    bd89:	48 89 85 d8 fb ff ff 	mov    %rax,-0x428(%rbp)
    bd90:	48 8d 85 08 e9 ff ff 	lea    -0x16f8(%rbp),%rax
    bd97:	48 89 85 e0 fb ff ff 	mov    %rax,-0x420(%rbp)
    bd9e:	48 8d 05 e3 82 00 00 	lea    0x82e3(%rip),%rax        # 14088 <g_128+0x8>
    bda5:	48 89 85 e8 fb ff ff 	mov    %rax,-0x418(%rbp)
    bdac:	48 c7 85 f0 fb ff ff 	movq   $0x0,-0x410(%rbp)
    bdb3:	00 00 00 00 
    bdb7:	48 c7 85 f8 fb ff ff 	movq   $0x0,-0x408(%rbp)
    bdbe:	00 00 00 00 
    bdc2:	48 8d 85 08 e9 ff ff 	lea    -0x16f8(%rbp),%rax
    bdc9:	48 89 85 00 fc ff ff 	mov    %rax,-0x400(%rbp)
    bdd0:	48 8d 05 a9 82 00 00 	lea    0x82a9(%rip),%rax        # 14080 <g_128>
    bdd7:	48 89 85 08 fc ff ff 	mov    %rax,-0x3f8(%rbp)
    bdde:	48 8d 85 08 e9 ff ff 	lea    -0x16f8(%rbp),%rax
    bde5:	48 89 85 10 fc ff ff 	mov    %rax,-0x3f0(%rbp)
    bdec:	48 8d 85 00 e9 ff ff 	lea    -0x1700(%rbp),%rax
    bdf3:	48 89 85 18 fc ff ff 	mov    %rax,-0x3e8(%rbp)
    bdfa:	48 8d 85 00 e9 ff ff 	lea    -0x1700(%rbp),%rax
    be01:	48 89 85 20 fc ff ff 	mov    %rax,-0x3e0(%rbp)
    be08:	48 8d 05 79 82 00 00 	lea    0x8279(%rip),%rax        # 14088 <g_128+0x8>
    be0f:	48 89 85 28 fc ff ff 	mov    %rax,-0x3d8(%rbp)
    be16:	48 8d 85 08 e9 ff ff 	lea    -0x16f8(%rbp),%rax
    be1d:	48 89 85 30 fc ff ff 	mov    %rax,-0x3d0(%rbp)
    be24:	48 8d 05 5d 82 00 00 	lea    0x825d(%rip),%rax        # 14088 <g_128+0x8>
    be2b:	48 89 85 38 fc ff ff 	mov    %rax,-0x3c8(%rbp)
    be32:	48 c7 85 40 fc ff ff 	movq   $0x0,-0x3c0(%rbp)
    be39:	00 00 00 00 
    be3d:	48 c7 85 48 fc ff ff 	movq   $0x0,-0x3b8(%rbp)
    be44:	00 00 00 00 
    be48:	48 8d 85 08 e9 ff ff 	lea    -0x16f8(%rbp),%rax
    be4f:	48 89 85 50 fc ff ff 	mov    %rax,-0x3b0(%rbp)
    be56:	48 8d 05 23 82 00 00 	lea    0x8223(%rip),%rax        # 14080 <g_128>
    be5d:	48 89 85 58 fc ff ff 	mov    %rax,-0x3a8(%rbp)
    be64:	48 8d 85 08 e9 ff ff 	lea    -0x16f8(%rbp),%rax
    be6b:	48 89 85 60 fc ff ff 	mov    %rax,-0x3a0(%rbp)
    be72:	48 8d 85 00 e9 ff ff 	lea    -0x1700(%rbp),%rax
    be79:	48 89 85 68 fc ff ff 	mov    %rax,-0x398(%rbp)
    be80:	48 8d 85 00 e9 ff ff 	lea    -0x1700(%rbp),%rax
    be87:	48 89 85 70 fc ff ff 	mov    %rax,-0x390(%rbp)
    be8e:	48 8d 05 f3 81 00 00 	lea    0x81f3(%rip),%rax        # 14088 <g_128+0x8>
    be95:	48 89 85 78 fc ff ff 	mov    %rax,-0x388(%rbp)
    be9c:	48 8d 85 08 e9 ff ff 	lea    -0x16f8(%rbp),%rax
    bea3:	48 89 85 80 fc ff ff 	mov    %rax,-0x380(%rbp)
    beaa:	48 8d 05 d7 81 00 00 	lea    0x81d7(%rip),%rax        # 14088 <g_128+0x8>
    beb1:	48 89 85 88 fc ff ff 	mov    %rax,-0x378(%rbp)
    beb8:	48 c7 85 90 fc ff ff 	movq   $0x0,-0x370(%rbp)
    bebf:	00 00 00 00 
    bec3:	48 c7 85 98 fc ff ff 	movq   $0x0,-0x368(%rbp)
    beca:	00 00 00 00 
    bece:	48 8d 85 08 e9 ff ff 	lea    -0x16f8(%rbp),%rax
    bed5:	48 89 85 a0 fc ff ff 	mov    %rax,-0x360(%rbp)
    bedc:	48 8d 05 9d 81 00 00 	lea    0x819d(%rip),%rax        # 14080 <g_128>
    bee3:	48 89 85 a8 fc ff ff 	mov    %rax,-0x358(%rbp)
    beea:	48 8d 85 08 e9 ff ff 	lea    -0x16f8(%rbp),%rax
    bef1:	48 89 85 b0 fc ff ff 	mov    %rax,-0x350(%rbp)
    bef8:	48 8d 85 00 e9 ff ff 	lea    -0x1700(%rbp),%rax
    beff:	48 89 85 b8 fc ff ff 	mov    %rax,-0x348(%rbp)
    bf06:	48 8d 85 00 e9 ff ff 	lea    -0x1700(%rbp),%rax
    bf0d:	48 89 85 c0 fc ff ff 	mov    %rax,-0x340(%rbp)
    bf14:	48 8d 05 6d 81 00 00 	lea    0x816d(%rip),%rax        # 14088 <g_128+0x8>
    bf1b:	48 89 85 c8 fc ff ff 	mov    %rax,-0x338(%rbp)
    bf22:	48 8d 85 08 e9 ff ff 	lea    -0x16f8(%rbp),%rax
    bf29:	48 89 85 d0 fc ff ff 	mov    %rax,-0x330(%rbp)
    bf30:	48 8d 05 51 81 00 00 	lea    0x8151(%rip),%rax        # 14088 <g_128+0x8>
    bf37:	48 89 85 d8 fc ff ff 	mov    %rax,-0x328(%rbp)
    bf3e:	48 c7 85 e0 fc ff ff 	movq   $0x0,-0x320(%rbp)
    bf45:	00 00 00 00 
    bf49:	48 c7 85 e8 fc ff ff 	movq   $0x0,-0x318(%rbp)
    bf50:	00 00 00 00 
    bf54:	48 8d 85 08 e9 ff ff 	lea    -0x16f8(%rbp),%rax
    bf5b:	48 89 85 f0 fc ff ff 	mov    %rax,-0x310(%rbp)
    bf62:	48 8d 05 17 81 00 00 	lea    0x8117(%rip),%rax        # 14080 <g_128>
    bf69:	48 89 85 f8 fc ff ff 	mov    %rax,-0x308(%rbp)
    bf70:	48 8d 85 08 e9 ff ff 	lea    -0x16f8(%rbp),%rax
    bf77:	48 89 85 00 fd ff ff 	mov    %rax,-0x300(%rbp)
    bf7e:	48 8d 85 00 e9 ff ff 	lea    -0x1700(%rbp),%rax
    bf85:	48 89 85 08 fd ff ff 	mov    %rax,-0x2f8(%rbp)
    bf8c:	48 8d 85 00 e9 ff ff 	lea    -0x1700(%rbp),%rax
    bf93:	48 89 85 10 fd ff ff 	mov    %rax,-0x2f0(%rbp)
    bf9a:	48 8d 05 e7 80 00 00 	lea    0x80e7(%rip),%rax        # 14088 <g_128+0x8>
    bfa1:	48 89 85 18 fd ff ff 	mov    %rax,-0x2e8(%rbp)
    bfa8:	48 8d 85 08 e9 ff ff 	lea    -0x16f8(%rbp),%rax
    bfaf:	48 89 85 20 fd ff ff 	mov    %rax,-0x2e0(%rbp)
    bfb6:	48 8d 05 cb 80 00 00 	lea    0x80cb(%rip),%rax        # 14088 <g_128+0x8>
    bfbd:	48 89 85 28 fd ff ff 	mov    %rax,-0x2d8(%rbp)
    bfc4:	48 c7 85 30 fd ff ff 	movq   $0x0,-0x2d0(%rbp)
    bfcb:	00 00 00 00 
    bfcf:	48 c7 85 38 fd ff ff 	movq   $0x0,-0x2c8(%rbp)
    bfd6:	00 00 00 00 
    bfda:	48 8d 85 08 e9 ff ff 	lea    -0x16f8(%rbp),%rax
    bfe1:	48 89 85 40 fd ff ff 	mov    %rax,-0x2c0(%rbp)
    bfe8:	48 8d 05 91 80 00 00 	lea    0x8091(%rip),%rax        # 14080 <g_128>
    bfef:	48 89 85 48 fd ff ff 	mov    %rax,-0x2b8(%rbp)
    bff6:	48 8d 85 08 e9 ff ff 	lea    -0x16f8(%rbp),%rax
    bffd:	48 89 85 50 fd ff ff 	mov    %rax,-0x2b0(%rbp)
    c004:	48 8d 85 00 e9 ff ff 	lea    -0x1700(%rbp),%rax
    c00b:	48 89 85 58 fd ff ff 	mov    %rax,-0x2a8(%rbp)
    c012:	48 8d 85 00 e9 ff ff 	lea    -0x1700(%rbp),%rax
    c019:	48 89 85 60 fd ff ff 	mov    %rax,-0x2a0(%rbp)
    c020:	48 8d 05 61 80 00 00 	lea    0x8061(%rip),%rax        # 14088 <g_128+0x8>
    c027:	48 89 85 68 fd ff ff 	mov    %rax,-0x298(%rbp)
    c02e:	48 8d 85 08 e9 ff ff 	lea    -0x16f8(%rbp),%rax
    c035:	48 89 85 70 fd ff ff 	mov    %rax,-0x290(%rbp)
    c03c:	48 8d 05 45 80 00 00 	lea    0x8045(%rip),%rax        # 14088 <g_128+0x8>
    c043:	48 89 85 78 fd ff ff 	mov    %rax,-0x288(%rbp)
    c04a:	48 c7 85 80 fd ff ff 	movq   $0x0,-0x280(%rbp)
    c051:	00 00 00 00 
    c055:	48 c7 85 88 fd ff ff 	movq   $0x0,-0x278(%rbp)
    c05c:	00 00 00 00 
    c060:	48 8d 85 08 e9 ff ff 	lea    -0x16f8(%rbp),%rax
    c067:	48 89 85 90 fd ff ff 	mov    %rax,-0x270(%rbp)
    c06e:	48 8d 05 0b 80 00 00 	lea    0x800b(%rip),%rax        # 14080 <g_128>
    c075:	48 89 85 98 fd ff ff 	mov    %rax,-0x268(%rbp)
    c07c:	48 8d 85 08 e9 ff ff 	lea    -0x16f8(%rbp),%rax
    c083:	48 89 85 a0 fd ff ff 	mov    %rax,-0x260(%rbp)
    c08a:	48 8d 85 00 e9 ff ff 	lea    -0x1700(%rbp),%rax
    c091:	48 89 85 a8 fd ff ff 	mov    %rax,-0x258(%rbp)
    c098:	48 8d 85 00 e9 ff ff 	lea    -0x1700(%rbp),%rax
    c09f:	48 89 85 b0 fd ff ff 	mov    %rax,-0x250(%rbp)
    c0a6:	48 8d 05 db 7f 00 00 	lea    0x7fdb(%rip),%rax        # 14088 <g_128+0x8>
    c0ad:	48 89 85 b8 fd ff ff 	mov    %rax,-0x248(%rbp)
    c0b4:	48 8d 85 08 e9 ff ff 	lea    -0x16f8(%rbp),%rax
    c0bb:	48 89 85 c0 fd ff ff 	mov    %rax,-0x240(%rbp)
    c0c2:	48 8d 05 bf 7f 00 00 	lea    0x7fbf(%rip),%rax        # 14088 <g_128+0x8>
    c0c9:	48 89 85 c8 fd ff ff 	mov    %rax,-0x238(%rbp)
    c0d0:	48 c7 85 d0 fd ff ff 	movq   $0x0,-0x230(%rbp)
    c0d7:	00 00 00 00 
    c0db:	48 c7 85 d8 fd ff ff 	movq   $0x0,-0x228(%rbp)
    c0e2:	00 00 00 00 
    c0e6:	48 8d 85 08 e9 ff ff 	lea    -0x16f8(%rbp),%rax
    c0ed:	48 89 85 e0 fd ff ff 	mov    %rax,-0x220(%rbp)
    c0f4:	48 8d 05 85 7f 00 00 	lea    0x7f85(%rip),%rax        # 14080 <g_128>
    c0fb:	48 89 85 e8 fd ff ff 	mov    %rax,-0x218(%rbp)
    c102:	48 8d 85 08 e9 ff ff 	lea    -0x16f8(%rbp),%rax
    c109:	48 89 85 f0 fd ff ff 	mov    %rax,-0x210(%rbp)
    c110:	48 8d 85 00 e9 ff ff 	lea    -0x1700(%rbp),%rax
    c117:	48 89 85 f8 fd ff ff 	mov    %rax,-0x208(%rbp)
    c11e:	48 8d 85 00 e9 ff ff 	lea    -0x1700(%rbp),%rax
    c125:	48 89 85 00 fe ff ff 	mov    %rax,-0x200(%rbp)
    c12c:	48 8d 05 55 7f 00 00 	lea    0x7f55(%rip),%rax        # 14088 <g_128+0x8>
    c133:	48 89 85 08 fe ff ff 	mov    %rax,-0x1f8(%rbp)
    c13a:	48 8d 85 08 e9 ff ff 	lea    -0x16f8(%rbp),%rax
    c141:	48 89 85 10 fe ff ff 	mov    %rax,-0x1f0(%rbp)
    c148:	48 8d 05 39 7f 00 00 	lea    0x7f39(%rip),%rax        # 14088 <g_128+0x8>
    c14f:	48 89 85 18 fe ff ff 	mov    %rax,-0x1e8(%rbp)
    c156:	48 c7 85 20 fe ff ff 	movq   $0x0,-0x1e0(%rbp)
    c15d:	00 00 00 00 
    c161:	48 c7 85 28 fe ff ff 	movq   $0x0,-0x1d8(%rbp)
    c168:	00 00 00 00 
    c16c:	48 8d 85 08 e9 ff ff 	lea    -0x16f8(%rbp),%rax
    c173:	48 89 85 30 fe ff ff 	mov    %rax,-0x1d0(%rbp)
    c17a:	48 8d 05 ff 7e 00 00 	lea    0x7eff(%rip),%rax        # 14080 <g_128>
    c181:	48 89 85 38 fe ff ff 	mov    %rax,-0x1c8(%rbp)
    c188:	48 8d 85 08 e9 ff ff 	lea    -0x16f8(%rbp),%rax
    c18f:	48 89 85 40 fe ff ff 	mov    %rax,-0x1c0(%rbp)
    c196:	48 8d 85 00 e9 ff ff 	lea    -0x1700(%rbp),%rax
    c19d:	48 89 85 48 fe ff ff 	mov    %rax,-0x1b8(%rbp)
    c1a4:	48 8d 85 00 e9 ff ff 	lea    -0x1700(%rbp),%rax
    c1ab:	48 89 85 50 fe ff ff 	mov    %rax,-0x1b0(%rbp)
    c1b2:	48 8d 05 cf 7e 00 00 	lea    0x7ecf(%rip),%rax        # 14088 <g_128+0x8>
    c1b9:	48 89 85 58 fe ff ff 	mov    %rax,-0x1a8(%rbp)
    c1c0:	48 8d 85 08 e9 ff ff 	lea    -0x16f8(%rbp),%rax
    c1c7:	48 89 85 60 fe ff ff 	mov    %rax,-0x1a0(%rbp)
    c1ce:	48 8d 05 b3 7e 00 00 	lea    0x7eb3(%rip),%rax        # 14088 <g_128+0x8>
    c1d5:	48 89 85 68 fe ff ff 	mov    %rax,-0x198(%rbp)
    c1dc:	48 c7 85 70 fe ff ff 	movq   $0x0,-0x190(%rbp)
    c1e3:	00 00 00 00 
    c1e7:	48 c7 85 78 fe ff ff 	movq   $0x0,-0x188(%rbp)
    c1ee:	00 00 00 00 
    c1f2:	48 8d 85 08 e9 ff ff 	lea    -0x16f8(%rbp),%rax
    c1f9:	48 89 85 80 fe ff ff 	mov    %rax,-0x180(%rbp)
    c200:	48 8d 05 79 7e 00 00 	lea    0x7e79(%rip),%rax        # 14080 <g_128>
    c207:	48 89 85 88 fe ff ff 	mov    %rax,-0x178(%rbp)
    c20e:	48 8d 85 08 e9 ff ff 	lea    -0x16f8(%rbp),%rax
    c215:	48 89 85 90 fe ff ff 	mov    %rax,-0x170(%rbp)
    c21c:	48 8d 85 00 e9 ff ff 	lea    -0x1700(%rbp),%rax
    c223:	48 89 85 98 fe ff ff 	mov    %rax,-0x168(%rbp)
    c22a:	48 8d 85 00 e9 ff ff 	lea    -0x1700(%rbp),%rax
    c231:	48 89 85 a0 fe ff ff 	mov    %rax,-0x160(%rbp)
    c238:	48 8d 05 49 7e 00 00 	lea    0x7e49(%rip),%rax        # 14088 <g_128+0x8>
    c23f:	48 89 85 a8 fe ff ff 	mov    %rax,-0x158(%rbp)
    c246:	48 8d 85 08 e9 ff ff 	lea    -0x16f8(%rbp),%rax
    c24d:	48 89 85 b0 fe ff ff 	mov    %rax,-0x150(%rbp)
    c254:	48 8d 05 2d 7e 00 00 	lea    0x7e2d(%rip),%rax        # 14088 <g_128+0x8>
    c25b:	48 89 85 b8 fe ff ff 	mov    %rax,-0x148(%rbp)
    c262:	48 c7 85 c0 fe ff ff 	movq   $0x0,-0x140(%rbp)
    c269:	00 00 00 00 
    c26d:	48 c7 85 c8 fe ff ff 	movq   $0x0,-0x138(%rbp)
    c274:	00 00 00 00 
    c278:	48 8d 85 08 e9 ff ff 	lea    -0x16f8(%rbp),%rax
    c27f:	48 89 85 d0 fe ff ff 	mov    %rax,-0x130(%rbp)
    c286:	48 8d 05 f3 7d 00 00 	lea    0x7df3(%rip),%rax        # 14080 <g_128>
    c28d:	48 89 85 d8 fe ff ff 	mov    %rax,-0x128(%rbp)
    c294:	48 8d 85 08 e9 ff ff 	lea    -0x16f8(%rbp),%rax
    c29b:	48 89 85 e0 fe ff ff 	mov    %rax,-0x120(%rbp)
    c2a2:	48 8d 85 00 e9 ff ff 	lea    -0x1700(%rbp),%rax
    c2a9:	48 89 85 e8 fe ff ff 	mov    %rax,-0x118(%rbp)
    c2b0:	48 8d 85 00 e9 ff ff 	lea    -0x1700(%rbp),%rax
    c2b7:	48 89 85 f0 fe ff ff 	mov    %rax,-0x110(%rbp)
    c2be:	48 8d 05 c3 7d 00 00 	lea    0x7dc3(%rip),%rax        # 14088 <g_128+0x8>
    c2c5:	48 89 85 f8 fe ff ff 	mov    %rax,-0x108(%rbp)
    c2cc:	48 8d 85 08 e9 ff ff 	lea    -0x16f8(%rbp),%rax
    c2d3:	48 89 85 00 ff ff ff 	mov    %rax,-0x100(%rbp)
    c2da:	48 8d 05 a7 7d 00 00 	lea    0x7da7(%rip),%rax        # 14088 <g_128+0x8>
    c2e1:	48 89 85 08 ff ff ff 	mov    %rax,-0xf8(%rbp)
    c2e8:	48 c7 85 10 ff ff ff 	movq   $0x0,-0xf0(%rbp)
    c2ef:	00 00 00 00 
    c2f3:	48 c7 85 18 ff ff ff 	movq   $0x0,-0xe8(%rbp)
    c2fa:	00 00 00 00 
    c2fe:	48 8d 85 08 e9 ff ff 	lea    -0x16f8(%rbp),%rax
    c305:	48 89 85 20 ff ff ff 	mov    %rax,-0xe0(%rbp)
    c30c:	48 8d 05 6d 7d 00 00 	lea    0x7d6d(%rip),%rax        # 14080 <g_128>
    c313:	48 89 85 28 ff ff ff 	mov    %rax,-0xd8(%rbp)
    c31a:	48 8d 85 08 e9 ff ff 	lea    -0x16f8(%rbp),%rax
    c321:	48 89 85 30 ff ff ff 	mov    %rax,-0xd0(%rbp)
    c328:	48 8d 85 00 e9 ff ff 	lea    -0x1700(%rbp),%rax
    c32f:	48 89 85 38 ff ff ff 	mov    %rax,-0xc8(%rbp)
    c336:	48 8d 85 00 e9 ff ff 	lea    -0x1700(%rbp),%rax
    c33d:	48 89 85 40 ff ff ff 	mov    %rax,-0xc0(%rbp)
    c344:	48 8d 05 3d 7d 00 00 	lea    0x7d3d(%rip),%rax        # 14088 <g_128+0x8>
    c34b:	48 89 85 48 ff ff ff 	mov    %rax,-0xb8(%rbp)
    c352:	48 8d 85 08 e9 ff ff 	lea    -0x16f8(%rbp),%rax
    c359:	48 89 85 50 ff ff ff 	mov    %rax,-0xb0(%rbp)
    c360:	48 8d 05 21 7d 00 00 	lea    0x7d21(%rip),%rax        # 14088 <g_128+0x8>
    c367:	48 89 85 58 ff ff ff 	mov    %rax,-0xa8(%rbp)
    c36e:	48 c7 85 60 ff ff ff 	movq   $0x0,-0xa0(%rbp)
    c375:	00 00 00 00 
    c379:	48 c7 85 68 ff ff ff 	movq   $0x0,-0x98(%rbp)
    c380:	00 00 00 00 
    c384:	48 8d 85 08 e9 ff ff 	lea    -0x16f8(%rbp),%rax
    c38b:	48 89 85 70 ff ff ff 	mov    %rax,-0x90(%rbp)
    c392:	48 8d 05 e7 7c 00 00 	lea    0x7ce7(%rip),%rax        # 14080 <g_128>
    c399:	48 89 85 78 ff ff ff 	mov    %rax,-0x88(%rbp)
    c3a0:	48 8d 85 08 e9 ff ff 	lea    -0x16f8(%rbp),%rax
    c3a7:	48 89 45 80          	mov    %rax,-0x80(%rbp)
    c3ab:	48 8d 85 00 e9 ff ff 	lea    -0x1700(%rbp),%rax
    c3b2:	48 89 45 88          	mov    %rax,-0x78(%rbp)
    c3b6:	48 8d 85 00 e9 ff ff 	lea    -0x1700(%rbp),%rax
    c3bd:	48 89 45 90          	mov    %rax,-0x70(%rbp)
    c3c1:	48 8d 05 c0 7c 00 00 	lea    0x7cc0(%rip),%rax        # 14088 <g_128+0x8>
    c3c8:	48 89 45 98          	mov    %rax,-0x68(%rbp)
    c3cc:	48 8d 85 08 e9 ff ff 	lea    -0x16f8(%rbp),%rax
    c3d3:	48 89 45 a0          	mov    %rax,-0x60(%rbp)
    c3d7:	48 8d 05 aa 7c 00 00 	lea    0x7caa(%rip),%rax        # 14088 <g_128+0x8>
    c3de:	48 89 45 a8          	mov    %rax,-0x58(%rbp)
    c3e2:	48 c7 45 b0 00 00 00 	movq   $0x0,-0x50(%rbp)
    c3e9:	00 
    c3ea:	48 c7 45 b8 00 00 00 	movq   $0x0,-0x48(%rbp)
    c3f1:	00 
    c3f2:	48 8d 05 e7 6c 00 00 	lea    0x6ce7(%rip),%rax        # 130e0 <g_164>
    c3f9:	48 89 85 d0 e9 ff ff 	mov    %rax,-0x1630(%rbp)
    c400:	48 8d 85 10 e9 ff ff 	lea    -0x16f0(%rbp),%rax
    c407:	48 89 85 50 ee ff ff 	mov    %rax,-0x11b0(%rbp)
    c40e:	48 8d 85 10 e9 ff ff 	lea    -0x16f0(%rbp),%rax
    c415:	48 89 85 58 ee ff ff 	mov    %rax,-0x11a8(%rbp)
    c41c:	48 c7 85 60 ee ff ff 	movq   $0x0,-0x11a0(%rbp)
    c423:	00 00 00 00 
    c427:	48 8d 85 10 e9 ff ff 	lea    -0x16f0(%rbp),%rax
    c42e:	48 89 85 68 ee ff ff 	mov    %rax,-0x1198(%rbp)
    c435:	48 8d 85 10 e9 ff ff 	lea    -0x16f0(%rbp),%rax
    c43c:	48 89 85 70 ee ff ff 	mov    %rax,-0x1190(%rbp)
    c443:	48 c7 85 78 ee ff ff 	movq   $0x0,-0x1188(%rbp)
    c44a:	00 00 00 00 
    c44e:	c7 85 e4 e8 ff ff ff 	movl   $0xffffffff,-0x171c(%rbp)
    c455:	ff ff ff 
    c458:	c7 05 56 83 00 00 00 	movl   $0x0,0x8356(%rip)        # 147b8 <g_75>
    c45f:	00 00 00 
    c462:	e9 e8 03 00 00       	jmpq   c84f <func_58+0x19e4>
    c467:	c7 85 e8 e8 ff ff 3c 	movl   $0x19ece53c,-0x1718(%rbp)
    c46e:	e5 ec 19 
    c471:	48 8d 05 b2 6b 00 00 	lea    0x6bb2(%rip),%rax        # 1302a <g_21>
    c478:	48 89 85 80 f0 ff ff 	mov    %rax,-0xf80(%rbp)
    c47f:	48 8d 05 a4 6b 00 00 	lea    0x6ba4(%rip),%rax        # 1302a <g_21>
    c486:	48 89 85 88 f0 ff ff 	mov    %rax,-0xf78(%rbp)
    c48d:	48 c7 85 90 f0 ff ff 	movq   $0x0,-0xf70(%rbp)
    c494:	00 00 00 00 
    c498:	48 8d 05 8b 6b 00 00 	lea    0x6b8b(%rip),%rax        # 1302a <g_21>
    c49f:	48 89 85 98 f0 ff ff 	mov    %rax,-0xf68(%rbp)
    c4a6:	48 c7 85 a0 f0 ff ff 	movq   $0x0,-0xf60(%rbp)
    c4ad:	00 00 00 00 
    c4b1:	48 8d 05 72 6b 00 00 	lea    0x6b72(%rip),%rax        # 1302a <g_21>
    c4b8:	48 89 85 a8 f0 ff ff 	mov    %rax,-0xf58(%rbp)
    c4bf:	48 8d 05 64 6b 00 00 	lea    0x6b64(%rip),%rax        # 1302a <g_21>
    c4c6:	48 89 85 b0 f0 ff ff 	mov    %rax,-0xf50(%rbp)
    c4cd:	48 c7 85 b8 f0 ff ff 	movq   $0x0,-0xf48(%rbp)
    c4d4:	00 00 00 00 
    c4d8:	48 8d 05 4b 6b 00 00 	lea    0x6b4b(%rip),%rax        # 1302a <g_21>
    c4df:	48 89 85 c0 f0 ff ff 	mov    %rax,-0xf40(%rbp)
    c4e6:	48 c7 85 c8 f0 ff ff 	movq   $0x0,-0xf38(%rbp)
    c4ed:	00 00 00 00 
    c4f1:	c7 85 2c e8 ff ff fb 	movl   $0xfffffffb,-0x17d4(%rbp)
    c4f8:	ff ff ff 
    c4fb:	c7 85 18 e8 ff ff b8 	movl   $0x89ab21b8,-0x17e8(%rbp)
    c502:	21 ab 89 
    c505:	48 8d 85 18 e8 ff ff 	lea    -0x17e8(%rbp),%rax
    c50c:	48 89 85 d8 e9 ff ff 	mov    %rax,-0x1628(%rbp)
    c513:	66 c7 05 10 6b 00 00 	movw   $0x1,0x6b10(%rip)        # 1302c <g_72>
    c51a:	01 00 
    c51c:	90                   	nop
    c51d:	0f b7 05 08 6b 00 00 	movzwl 0x6b08(%rip),%eax        # 1302c <g_72>
    c524:	66 83 f8 04          	cmp    $0x4,%ax
    c528:	7f 0c                	jg     c536 <func_58+0x16cb>
    c52a:	48 8b 85 c8 e9 ff ff 	mov    -0x1638(%rbp),%rax
    c531:	e9 a5 1b 00 00       	jmpq   e0db <func_58+0x3270>
    c536:	48 8b 85 a0 f0 ff ff 	mov    -0xf60(%rbp),%rax
    c53d:	48 8d 15 e6 6a 00 00 	lea    0x6ae6(%rip),%rdx        # 1302a <g_21>
    c544:	48 39 d0             	cmp    %rdx,%rax
    c547:	0f 95 c0             	setne  %al
    c54a:	0f b6 d8             	movzbl %al,%ebx
    c54d:	be 08 00 00 00       	mov    $0x8,%esi
    c552:	bf 01 00 00 00       	mov    $0x1,%edi
    c557:	e8 fe 75 ff ff       	callq  3b5a <safe_add_func_uint8_t_u_u>
    c55c:	0f b6 c0             	movzbl %al,%eax
    c55f:	89 de                	mov    %ebx,%esi
    c561:	89 c7                	mov    %eax,%edi
    c563:	e8 4b 6e ff ff       	callq  33b3 <safe_add_func_int16_t_s_s>
    c568:	66 85 c0             	test   %ax,%ax
    c56b:	75 09                	jne    c576 <func_58+0x170b>
    c56d:	80 bd e8 e7 ff ff 00 	cmpb   $0x0,-0x1818(%rbp)
    c574:	74 07                	je     c57d <func_58+0x1712>
    c576:	b8 01 00 00 00       	mov    $0x1,%eax
    c57b:	eb 05                	jmp    c582 <func_58+0x1717>
    c57d:	b8 00 00 00 00       	mov    $0x0,%eax
    c582:	31 85 2c e8 ff ff    	xor    %eax,-0x17d4(%rbp)
    c588:	c7 85 10 e8 ff ff 00 	movl   $0x0,-0x17f0(%rbp)
    c58f:	00 00 00 
    c592:	e9 8c 02 00 00       	jmpq   c823 <func_58+0x19b8>
    c597:	48 8d 85 00 f2 ff ff 	lea    -0xe00(%rbp),%rax
    c59e:	48 8d 15 9b 74 00 00 	lea    0x749b(%rip),%rdx        # 13a40 <g_1575+0x820>
    c5a5:	b9 c8 00 00 00       	mov    $0xc8,%ecx
    c5aa:	48 89 c7             	mov    %rax,%rdi
    c5ad:	48 89 d6             	mov    %rdx,%rsi
    c5b0:	f3 48 a5             	rep movsq %ds:(%rsi),%es:(%rdi)
    c5b3:	c7 85 ec e8 ff ff d6 	movl   $0x8f91bdd6,-0x1714(%rbp)
    c5ba:	bd 91 8f 
    c5bd:	48 8d 05 14 7b 00 00 	lea    0x7b14(%rip),%rax        # 140d8 <g_127+0x18>
    c5c4:	48 89 85 d0 eb ff ff 	mov    %rax,-0x1430(%rbp)
    c5cb:	48 c7 85 d8 eb ff ff 	movq   $0x0,-0x1428(%rbp)
    c5d2:	00 00 00 00 
    c5d6:	48 8d 05 fb 7a 00 00 	lea    0x7afb(%rip),%rax        # 140d8 <g_127+0x18>
    c5dd:	48 89 85 e0 eb ff ff 	mov    %rax,-0x1420(%rbp)
    c5e4:	48 c7 85 e8 eb ff ff 	movq   $0x0,-0x1418(%rbp)
    c5eb:	00 00 00 00 
    c5ef:	48 8d 05 ee 6a 00 00 	lea    0x6aee(%rip),%rax        # 130e4 <g_186>
    c5f6:	48 89 85 e0 e9 ff ff 	mov    %rax,-0x1620(%rbp)
    c5fd:	48 8d 85 80 f0 ff ff 	lea    -0xf80(%rbp),%rax
    c604:	48 83 c0 20          	add    $0x20,%rax
    c608:	48 89 85 e8 e9 ff ff 	mov    %rax,-0x1618(%rbp)
    c60f:	48 8d 05 ea 7a 00 00 	lea    0x7aea(%rip),%rax        # 14100 <g_192>
    c616:	48 89 85 f0 e9 ff ff 	mov    %rax,-0x1610(%rbp)
    c61d:	0f b7 9d e4 e7 ff ff 	movzwl -0x181c(%rbp),%ebx
    c624:	48 8d 85 00 e9 ff ff 	lea    -0x1700(%rbp),%rax
    c62b:	48 89 45 b8          	mov    %rax,-0x48(%rbp)
    c62f:	0f b6 05 7a 6a 00 00 	movzbl 0x6a7a(%rip),%eax        # 130b0 <g_97>
    c636:	0f be c0             	movsbl %al,%eax
    c639:	89 c6                	mov    %eax,%esi
    c63b:	bf 04 00 00 00       	mov    $0x4,%edi
    c640:	e8 b0 6d ff ff       	callq  33f5 <safe_mul_func_int16_t_s_s>
    c645:	98                   	cwtl   
    c646:	31 85 2c e8 ff ff    	xor    %eax,-0x17d4(%rbp)
    c64c:	0f b6 85 e8 e7 ff ff 	movzbl -0x1818(%rbp),%eax
    c653:	0f b6 d0             	movzbl %al,%edx
    c656:	8b 85 ec e8 ff ff    	mov    -0x1714(%rbp),%eax
    c65c:	0f b6 c0             	movzbl %al,%eax
    c65f:	89 d6                	mov    %edx,%esi
    c661:	89 c7                	mov    %eax,%edi
    c663:	e8 2b 75 ff ff       	callq  3b93 <safe_mul_func_uint8_t_u_u>
    c668:	0f b6 c0             	movzbl %al,%eax
    c66b:	48 89 c7             	mov    %rax,%rdi
    c66e:	e8 a3 71 ff ff       	callq  3816 <safe_unary_minus_func_int64_t_s>
    c673:	89 c2                	mov    %eax,%edx
    c675:	0f b7 85 e4 e7 ff ff 	movzwl -0x181c(%rbp),%eax
    c67c:	39 85 e8 e8 ff ff    	cmp    %eax,-0x1718(%rbp)
    c682:	0f 94 c0             	sete   %al
    c685:	0f b6 c0             	movzbl %al,%eax
    c688:	21 d0                	and    %edx,%eax
    c68a:	0f b7 c0             	movzwl %ax,%eax
    c68d:	89 de                	mov    %ebx,%esi
    c68f:	89 c7                	mov    %eax,%edi
    c691:	e8 e4 77 ff ff       	callq  3e7a <safe_rshift_func_uint16_t_u_u>
    c696:	0f b7 85 e4 e7 ff ff 	movzwl -0x181c(%rbp),%eax
    c69d:	89 85 18 e8 ff ff    	mov    %eax,-0x17e8(%rbp)
    c6a3:	48 c7 85 08 e9 ff ff 	movq   $0x0,-0x16f8(%rbp)
    c6aa:	00 00 00 00 
    c6ae:	48 8b 85 08 e9 ff ff 	mov    -0x16f8(%rbp),%rax
    c6b5:	48 89 85 00 e9 ff ff 	mov    %rax,-0x1700(%rbp)
    c6bc:	0f b7 05 69 69 00 00 	movzwl 0x6969(%rip),%eax        # 1302c <g_72>
    c6c3:	0f bf d8             	movswl %ax,%ebx
    c6c6:	8b 05 ec 80 00 00    	mov    0x80ec(%rip),%eax        # 147b8 <g_75>
    c6cc:	4c 63 e0             	movslq %eax,%r12
    c6cf:	83 bd ec e7 ff ff 00 	cmpl   $0x0,-0x1814(%rbp)
    c6d6:	0f 84 8f 00 00 00    	je     c76b <func_58+0x1900>
    c6dc:	48 8b 85 e0 e9 ff ff 	mov    -0x1620(%rbp),%rax
    c6e3:	0f b6 95 e8 e7 ff ff 	movzbl -0x1818(%rbp),%edx
    c6ea:	88 10                	mov    %dl,(%rax)
    c6ec:	48 8b 85 e0 e9 ff ff 	mov    -0x1620(%rbp),%rax
    c6f3:	0f b6 00             	movzbl (%rax),%eax
    c6f6:	84 c0                	test   %al,%al
    c6f8:	75 46                	jne    c740 <func_58+0x18d5>
    c6fa:	48 8d 05 29 69 00 00 	lea    0x6929(%rip),%rax        # 1302a <g_21>
    c701:	0f b6 00             	movzbl (%rax),%eax
    c704:	0f b6 c0             	movzbl %al,%eax
    c707:	be 02 00 00 00       	mov    $0x2,%esi
    c70c:	89 c7                	mov    %eax,%edi
    c70e:	e8 7a 75 ff ff       	callq  3c8d <safe_rshift_func_uint8_t_u_s>
    c713:	48 8b 05 8e 69 00 00 	mov    0x698e(%rip),%rax        # 130a8 <g_95>
    c71a:	48 3d f5 00 00 00    	cmp    $0xf5,%rax
    c720:	0f 96 c0             	setbe  %al
    c723:	0f b6 c0             	movzbl %al,%eax
    c726:	89 c2                	mov    %eax,%edx
    c728:	0f b6 85 f7 e7 ff ff 	movzbl -0x1809(%rbp),%eax
    c72f:	09 d0                	or     %edx,%eax
    c731:	88 85 f7 e7 ff ff    	mov    %al,-0x1809(%rbp)
    c737:	80 bd f7 e7 ff ff 00 	cmpb   $0x0,-0x1809(%rbp)
    c73e:	74 07                	je     c747 <func_58+0x18dc>
    c740:	b8 01 00 00 00       	mov    $0x1,%eax
    c745:	eb 05                	jmp    c74c <func_58+0x18e1>
    c747:	b8 00 00 00 00       	mov    $0x0,%eax
    c74c:	89 05 8e 69 00 00    	mov    %eax,0x698e(%rip)        # 130e0 <g_164>
    c752:	83 bd ec e7 ff ff 00 	cmpl   $0x0,-0x1814(%rbp)
    c759:	74 10                	je     c76b <func_58+0x1900>
    c75b:	83 bd ec e7 ff ff 00 	cmpl   $0x0,-0x1814(%rbp)
    c762:	74 07                	je     c76b <func_58+0x1900>
    c764:	b8 01 00 00 00       	mov    $0x1,%eax
    c769:	eb 05                	jmp    c770 <func_58+0x1905>
    c76b:	b8 00 00 00 00       	mov    $0x0,%eax
    c770:	0c ff                	or     $0xff,%al
    c772:	89 c2                	mov    %eax,%edx
    c774:	8b 85 ec e7 ff ff    	mov    -0x1814(%rbp),%eax
    c77a:	39 c2                	cmp    %eax,%edx
    c77c:	0f 92 c0             	setb   %al
    c77f:	0f b6 c0             	movzbl %al,%eax
    c782:	4c 89 e6             	mov    %r12,%rsi
    c785:	48 89 c7             	mov    %rax,%rdi
    c788:	e8 1b 71 ff ff       	callq  38a8 <safe_sub_func_int64_t_s_s>
    c78d:	48 0f be 95 e8 e7 ff 	movsbq -0x1818(%rbp),%rdx
    c794:	ff 
    c795:	48 39 d0             	cmp    %rdx,%rax
    c798:	0f 9c c0             	setl   %al
    c79b:	22 85 e8 e7 ff ff    	and    -0x1818(%rbp),%al
    c7a1:	0f b6 c0             	movzbl %al,%eax
    c7a4:	89 c6                	mov    %eax,%esi
    c7a6:	bf 7d 00 00 00       	mov    $0x7d,%edi
    c7ab:	e8 2b 74 ff ff       	callq  3bdb <safe_div_func_uint8_t_u_u>
    c7b0:	0f b6 c0             	movzbl %al,%eax
    c7b3:	be 01 00 00 00       	mov    $0x1,%esi
    c7b8:	89 c7                	mov    %eax,%edi
    c7ba:	e8 46 74 ff ff       	callq  3c05 <safe_lshift_func_uint8_t_u_s>
    c7bf:	0f b6 c0             	movzbl %al,%eax
    c7c2:	89 de                	mov    %ebx,%esi
    c7c4:	89 c7                	mov    %eax,%edi
    c7c6:	e8 eb 6d ff ff       	callq  35b6 <safe_add_func_int32_t_s_s>
    c7cb:	23 85 2c e8 ff ff    	and    -0x17d4(%rbp),%eax
    c7d1:	83 f8 fe             	cmp    $0xfffffffe,%eax
    c7d4:	0f 9c c0             	setl   %al
    c7d7:	0f b6 d0             	movzbl %al,%edx
    c7da:	8b 85 ec e7 ff ff    	mov    -0x1814(%rbp),%eax
    c7e0:	0f b7 c0             	movzwl %ax,%eax
    c7e3:	89 d6                	mov    %edx,%esi
    c7e5:	89 c7                	mov    %eax,%edi
    c7e7:	e8 5c 76 ff ff       	callq  3e48 <safe_rshift_func_uint16_t_u_s>
    c7ec:	0f b7 c0             	movzwl %ax,%eax
    c7ef:	89 85 18 e8 ff ff    	mov    %eax,-0x17e8(%rbp)
    c7f5:	48 8b 85 f0 e9 ff ff 	mov    -0x1610(%rbp),%rax
    c7fc:	48 8b 95 e8 e9 ff ff 	mov    -0x1618(%rbp),%rdx
    c803:	48 89 10             	mov    %rdx,(%rax)
    c806:	48 8d 85 14 e8 ff ff 	lea    -0x17ec(%rbp),%rax
    c80d:	48 89 85 d8 e9 ff ff 	mov    %rax,-0x1628(%rbp)
    c814:	8b 85 10 e8 ff ff    	mov    -0x17f0(%rbp),%eax
    c81a:	83 c0 01             	add    $0x1,%eax
    c81d:	89 85 10 e8 ff ff    	mov    %eax,-0x17f0(%rbp)
    c823:	8b 85 10 e8 ff ff    	mov    -0x17f0(%rbp),%eax
    c829:	85 c0                	test   %eax,%eax
    c82b:	0f 8e 66 fd ff ff    	jle    c597 <func_58+0x172c>
    c831:	8b 05 81 7f 00 00    	mov    0x7f81(%rip),%eax        # 147b8 <g_75>
    c837:	0f be c0             	movsbl %al,%eax
    c83a:	be 03 00 00 00       	mov    $0x3,%esi
    c83f:	89 c7                	mov    %eax,%edi
    c841:	e8 8e 69 ff ff       	callq  31d4 <safe_add_func_int8_t_s_s>
    c846:	0f be c0             	movsbl %al,%eax
    c849:	89 05 69 7f 00 00    	mov    %eax,0x7f69(%rip)        # 147b8 <g_75>
    c84f:	8b 05 63 7f 00 00    	mov    0x7f63(%rip),%eax        # 147b8 <g_75>
    c855:	83 f8 14             	cmp    $0x14,%eax
    c858:	0f 84 09 fc ff ff    	je     c467 <func_58+0x15fc>
    c85e:	48 83 ad c0 e9 ff ff 	subq   $0x1,-0x1640(%rbp)
    c865:	01 
    c866:	0f b7 9d e4 e7 ff ff 	movzwl -0x181c(%rbp),%ebx
    c86d:	48 8d 05 b6 67 00 00 	lea    0x67b6(%rip),%rax        # 1302a <g_21>
    c874:	0f b6 00             	movzbl (%rax),%eax
    c877:	44 0f be e0          	movsbl %al,%r12d
    c87b:	44 0f b7 ad e4 e7 ff 	movzwl -0x181c(%rbp),%r13d
    c882:	ff 
    c883:	48 8d 05 56 68 00 00 	lea    0x6856(%rip),%rax        # 130e0 <g_164>
    c88a:	48 89 85 f8 e8 ff ff 	mov    %rax,-0x1708(%rbp)
    c891:	48 8b 95 f8 e8 ff ff 	mov    -0x1708(%rbp),%rdx
    c898:	48 8b 85 10 e9 ff ff 	mov    -0x16f0(%rbp),%rax
    c89f:	48 39 c2             	cmp    %rax,%rdx
    c8a2:	0f 94 c0             	sete   %al
    c8a5:	44 0f b6 f0          	movzbl %al,%r14d
    c8a9:	0f b7 05 ee 67 00 00 	movzwl 0x67ee(%rip),%eax        # 1309e <g_93+0x5e>
    c8b0:	44 0f bf f8          	movswl %ax,%r15d
    c8b4:	c7 85 40 eb ff ff 00 	movl   $0x0,-0x14c0(%rbp)
    c8bb:	00 00 00 
    c8be:	8b 95 40 eb ff ff    	mov    -0x14c0(%rbp),%edx
    c8c4:	8b 85 14 e8 ff ff    	mov    -0x17ec(%rbp),%eax
    c8ca:	09 d0                	or     %edx,%eax
    c8cc:	89 85 14 e8 ff ff    	mov    %eax,-0x17ec(%rbp)
    c8d2:	8b 85 14 e8 ff ff    	mov    -0x17ec(%rbp),%eax
    c8d8:	f7 d0                	not    %eax
    c8da:	0f b6 c0             	movzbl %al,%eax
    c8dd:	be 01 00 00 00       	mov    $0x1,%esi
    c8e2:	89 c7                	mov    %eax,%edi
    c8e4:	e8 1c 73 ff ff       	callq  3c05 <safe_lshift_func_uint8_t_u_s>
    c8e9:	0f b6 c0             	movzbl %al,%eax
    c8ec:	41 39 c7             	cmp    %eax,%r15d
    c8ef:	0f 94 c0             	sete   %al
    c8f2:	0f b6 c0             	movzbl %al,%eax
    c8f5:	44 89 f6             	mov    %r14d,%esi
    c8f8:	89 c7                	mov    %eax,%edi
    c8fa:	e8 f6 6a ff ff       	callq  33f5 <safe_mul_func_int16_t_s_s>
    c8ff:	8b 05 b3 7e 00 00    	mov    0x7eb3(%rip),%eax        # 147b8 <g_75>
    c905:	0f be d0             	movsbl %al,%edx
    c908:	0f b7 05 8f 67 00 00 	movzwl 0x678f(%rip),%eax        # 1309e <g_93+0x5e>
    c90f:	0f be c0             	movsbl %al,%eax
    c912:	89 d6                	mov    %edx,%esi
    c914:	89 c7                	mov    %eax,%edi
    c916:	e8 d7 68 ff ff       	callq  31f2 <safe_sub_func_int8_t_s_s>
    c91b:	0f be d0             	movsbl %al,%edx
    c91e:	8b 85 ec e7 ff ff    	mov    -0x1814(%rbp),%eax
    c924:	89 d6                	mov    %edx,%esi
    c926:	89 c7                	mov    %eax,%edi
    c928:	e8 d2 6d ff ff       	callq  36ff <safe_div_func_int32_t_s_s>
    c92d:	0f b7 85 e4 e7 ff ff 	movzwl -0x181c(%rbp),%eax
    c934:	0f b6 c0             	movzbl %al,%eax
    c937:	8b 95 ec e7 ff ff    	mov    -0x1814(%rbp),%edx
    c93d:	89 d6                	mov    %edx,%esi
    c93f:	89 c7                	mov    %eax,%edi
    c941:	e8 47 73 ff ff       	callq  3c8d <safe_rshift_func_uint8_t_u_s>
    c946:	0f b7 05 db 66 00 00 	movzwl 0x66db(%rip),%eax        # 13028 <g_14>
    c94d:	0f b7 d0             	movzwl %ax,%edx
    c950:	8b 05 72 67 00 00    	mov    0x6772(%rip),%eax        # 130c8 <g_98+0x8>
    c956:	48 98                	cltq   
    c958:	48 89 d6             	mov    %rdx,%rsi
    c95b:	48 89 c7             	mov    %rax,%rdi
    c95e:	e8 45 6f ff ff       	callq  38a8 <safe_sub_func_int64_t_s_s>
    c963:	0f b7 c0             	movzwl %ax,%eax
    c966:	44 89 ee             	mov    %r13d,%esi
    c969:	89 c7                	mov    %eax,%edi
    c96b:	e8 1e 74 ff ff       	callq  3d8e <safe_div_func_uint16_t_u_u>
    c970:	0f be c0             	movsbl %al,%eax
    c973:	44 89 e6             	mov    %r12d,%esi
    c976:	89 c7                	mov    %eax,%edi
    c978:	e8 ed 68 ff ff       	callq  326a <safe_div_func_int8_t_s_s>
    c97d:	38 85 e8 e7 ff ff    	cmp    %al,-0x1818(%rbp)
    c983:	0f 94 c0             	sete   %al
    c986:	0f b6 c0             	movzbl %al,%eax
    c989:	48 be 58 03 f4 a2 b8 	movabs $0xc49502b8a2f40358,%rsi
    c990:	02 95 c4 
    c993:	48 89 c7             	mov    %rax,%rdi
    c996:	e8 0d 6f ff ff       	callq  38a8 <safe_sub_func_int64_t_s_s>
    c99b:	89 de                	mov    %ebx,%esi
    c99d:	89 c7                	mov    %eax,%edi
    c99f:	e8 81 75 ff ff       	callq  3f25 <safe_div_func_uint32_t_u_u>
    c9a4:	89 85 dc e8 ff ff    	mov    %eax,-0x1724(%rbp)
    c9aa:	8b 85 dc e8 ff ff    	mov    -0x1724(%rbp),%eax
    c9b0:	21 85 e0 e8 ff ff    	and    %eax,-0x1720(%rbp)
    c9b6:	8b 85 e4 e8 ff ff    	mov    -0x171c(%rbp),%eax
    c9bc:	e9 1a 17 00 00       	jmpq   e0db <func_58+0x3270>
    c9c1:	66 c7 05 62 66 00 00 	movw   $0x6,0x6662(%rip)        # 1302c <g_72>
    c9c8:	06 00 
    c9ca:	eb 25                	jmp    c9f1 <func_58+0x1b86>
    c9cc:	c6 85 fb e7 ff ff 91 	movb   $0x91,-0x1805(%rbp)
    c9d3:	0f b7 85 e4 e7 ff ff 	movzwl -0x181c(%rbp),%eax
    c9da:	88 85 fb e7 ff ff    	mov    %al,-0x1805(%rbp)
    c9e0:	0f b7 05 45 66 00 00 	movzwl 0x6645(%rip),%eax        # 1302c <g_72>
    c9e7:	83 e8 01             	sub    $0x1,%eax
    c9ea:	66 89 05 3b 66 00 00 	mov    %ax,0x663b(%rip)        # 1302c <g_72>
    c9f1:	0f b7 05 34 66 00 00 	movzwl 0x6634(%rip),%eax        # 1302c <g_72>
    c9f8:	66 85 c0             	test   %ax,%ax
    c9fb:	7f cf                	jg     c9cc <func_58+0x1b61>
    c9fd:	0f b7 05 24 66 00 00 	movzwl 0x6624(%rip),%eax        # 13028 <g_14>
    ca04:	66 85 c0             	test   %ax,%ax
    ca07:	0f 84 c4 16 00 00    	je     e0d1 <func_58+0x3266>
    ca0d:	e9 c0 e9 ff ff       	jmpq   b3d2 <func_58+0x567>
    ca12:	48 c7 85 08 e9 ff ff 	movq   $0xfffffffffffffff9,-0x16f8(%rbp)
    ca19:	f9 ff ff ff 
    ca1d:	c7 85 4c e8 ff ff f6 	movl   $0xfffffff6,-0x17b4(%rbp)
    ca24:	ff ff ff 
    ca27:	c7 85 30 e8 ff ff 10 	movl   $0xcb9d6710,-0x17d0(%rbp)
    ca2e:	67 9d cb 
    ca31:	48 8d 85 00 f2 ff ff 	lea    -0xe00(%rbp),%rax
    ca38:	48 8d 15 21 34 00 00 	lea    0x3421(%rip),%rdx        # fe60 <g_1116+0xe08>
    ca3f:	b9 78 00 00 00       	mov    $0x78,%ecx
    ca44:	48 89 c7             	mov    %rax,%rdi
    ca47:	48 89 d6             	mov    %rdx,%rsi
    ca4a:	f3 48 a5             	rep movsq %ds:(%rsi),%es:(%rdi)
    ca4d:	48 c7 85 30 e9 ff ff 	movq   $0x0,-0x16d0(%rbp)
    ca54:	00 00 00 00 
    ca58:	c7 85 50 e8 ff ff 00 	movl   $0x0,-0x17b0(%rbp)
    ca5f:	00 00 00 
    ca62:	c6 85 f8 e7 ff ff c0 	movb   $0xc0,-0x1808(%rbp)
    ca69:	48 0f be 85 e8 e7 ff 	movsbq -0x1818(%rbp),%rax
    ca70:	ff 
    ca71:	48 89 85 08 e9 ff ff 	mov    %rax,-0x16f8(%rbp)
    ca78:	48 8b 85 08 e9 ff ff 	mov    -0x16f8(%rbp),%rax
    ca7f:	21 85 4c e8 ff ff    	and    %eax,-0x17b4(%rbp)
    ca85:	66 c7 85 e4 e7 ff ff 	movw   $0x0,-0x181c(%rbp)
    ca8c:	00 00 
    ca8e:	e9 30 16 00 00       	jmpq   e0c3 <func_58+0x3258>
    ca93:	48 b8 80 b7 ab b5 d0 	movabs $0x7c8fe4d0b5abb780,%rax
    ca9a:	e4 8f 7c 
    ca9d:	48 89 85 10 e9 ff ff 	mov    %rax,-0x16f0(%rbp)
    caa4:	c7 85 18 e8 ff ff c0 	movl   $0x787eebc0,-0x17e8(%rbp)
    caab:	eb 7e 78 
    caae:	c7 85 54 e8 ff ff 97 	movl   $0xa24b7c97,-0x17ac(%rbp)
    cab5:	7c 4b a2 
    cab8:	c7 85 34 e8 ff ff 06 	movl   $0x6,-0x17cc(%rbp)
    cabf:	00 00 00 
    cac2:	48 8d 85 f8 e8 ff ff 	lea    -0x1708(%rbp),%rax
    cac9:	48 89 85 60 ea ff ff 	mov    %rax,-0x15a0(%rbp)
    cad0:	48 8d 85 f8 e8 ff ff 	lea    -0x1708(%rbp),%rax
    cad7:	48 89 85 68 ea ff ff 	mov    %rax,-0x1598(%rbp)
    cade:	48 8d 85 f8 e8 ff ff 	lea    -0x1708(%rbp),%rax
    cae5:	48 89 85 70 ea ff ff 	mov    %rax,-0x1590(%rbp)
    caec:	48 8d 85 f8 e8 ff ff 	lea    -0x1708(%rbp),%rax
    caf3:	48 89 85 78 ea ff ff 	mov    %rax,-0x1588(%rbp)
    cafa:	48 8d 85 f8 e8 ff ff 	lea    -0x1708(%rbp),%rax
    cb01:	48 89 85 80 ea ff ff 	mov    %rax,-0x1580(%rbp)
    cb08:	48 8d 85 f8 e8 ff ff 	lea    -0x1708(%rbp),%rax
    cb0f:	48 89 85 88 ea ff ff 	mov    %rax,-0x1578(%rbp)
    cb16:	48 8d 85 f8 e8 ff ff 	lea    -0x1708(%rbp),%rax
    cb1d:	48 89 85 90 ea ff ff 	mov    %rax,-0x1570(%rbp)
    cb24:	66 c7 85 fc e7 ff ff 	movw   $0x53e,-0x1804(%rbp)
    cb2b:	3e 05 
    cb2d:	66 c7 85 fe e7 ff ff 	movw   $0x603c,-0x1802(%rbp)
    cb34:	3c 60 
    cb36:	48 8d 85 00 f2 ff ff 	lea    -0xe00(%rbp),%rax
    cb3d:	48 05 e0 01 00 00    	add    $0x1e0,%rax
    cb43:	48 89 85 38 e9 ff ff 	mov    %rax,-0x16c8(%rbp)
    cb4a:	48 c7 85 40 e9 ff ff 	movq   $0x0,-0x16c0(%rbp)
    cb51:	00 00 00 00 
    cb55:	48 8d 05 1c 76 00 00 	lea    0x761c(%rip),%rax        # 14178 <g_296>
    cb5c:	48 89 85 48 e9 ff ff 	mov    %rax,-0x16b8(%rbp)
    cb63:	48 b8 78 74 1d 71 8b 	movabs $0xbc91fc8b711d7478,%rax
    cb6a:	fc 91 bc 
    cb6d:	48 89 85 50 e9 ff ff 	mov    %rax,-0x16b0(%rbp)
    cb74:	48 8d 05 45 7c 00 00 	lea    0x7c45(%rip),%rax        # 147c0 <g_193>
    cb7b:	48 89 85 58 e9 ff ff 	mov    %rax,-0x16a8(%rbp)
    cb82:	c7 85 38 e8 ff ff 00 	movl   $0x0,-0x17c8(%rbp)
    cb89:	00 00 00 
    cb8c:	eb 50                	jmp    cbde <func_58+0x1d73>
    cb8e:	c7 85 3c e8 ff ff 00 	movl   $0x0,-0x17c4(%rbp)
    cb95:	00 00 00 
    cb98:	eb 34                	jmp    cbce <func_58+0x1d63>
    cb9a:	8b 85 3c e8 ff ff    	mov    -0x17c4(%rbp),%eax
    cba0:	48 63 c8             	movslq %eax,%rcx
    cba3:	8b 85 38 e8 ff ff    	mov    -0x17c8(%rbp),%eax
    cba9:	48 63 d0             	movslq %eax,%rdx
    cbac:	48 89 d0             	mov    %rdx,%rax
    cbaf:	48 c1 e0 02          	shl    $0x2,%rax
    cbb3:	48 01 d0             	add    %rdx,%rax
    cbb6:	48 01 c0             	add    %rax,%rax
    cbb9:	48 01 c8             	add    %rcx,%rax
    cbbc:	c7 84 85 50 ee ff ff 	movl   $0xffffffff,-0x11b0(%rbp,%rax,4)
    cbc3:	ff ff ff ff 
    cbc7:	83 85 3c e8 ff ff 01 	addl   $0x1,-0x17c4(%rbp)
    cbce:	83 bd 3c e8 ff ff 09 	cmpl   $0x9,-0x17c4(%rbp)
    cbd5:	7e c3                	jle    cb9a <func_58+0x1d2f>
    cbd7:	83 85 38 e8 ff ff 01 	addl   $0x1,-0x17c8(%rbp)
    cbde:	83 bd 38 e8 ff ff 05 	cmpl   $0x5,-0x17c8(%rbp)
    cbe5:	7e a7                	jle    cb8e <func_58+0x1d23>
    cbe7:	c7 85 38 e8 ff ff 00 	movl   $0x0,-0x17c8(%rbp)
    cbee:	00 00 00 
    cbf1:	eb 4a                	jmp    cc3d <func_58+0x1dd2>
    cbf3:	c7 85 3c e8 ff ff 00 	movl   $0x0,-0x17c4(%rbp)
    cbfa:	00 00 00 
    cbfd:	eb 2e                	jmp    cc2d <func_58+0x1dc2>
    cbff:	8b 85 3c e8 ff ff    	mov    -0x17c4(%rbp),%eax
    cc05:	48 98                	cltq   
    cc07:	8b 95 38 e8 ff ff    	mov    -0x17c8(%rbp),%edx
    cc0d:	48 63 d2             	movslq %edx,%rdx
    cc10:	48 c1 e2 02          	shl    $0x2,%rdx
    cc14:	48 01 c2             	add    %rax,%rdx
    cc17:	48 8d 85 10 e9 ff ff 	lea    -0x16f0(%rbp),%rax
    cc1e:	48 89 84 d5 40 ef ff 	mov    %rax,-0x10c0(%rbp,%rdx,8)
    cc25:	ff 
    cc26:	83 85 3c e8 ff ff 01 	addl   $0x1,-0x17c4(%rbp)
    cc2d:	83 bd 3c e8 ff ff 03 	cmpl   $0x3,-0x17c4(%rbp)
    cc34:	7e c9                	jle    cbff <func_58+0x1d94>
    cc36:	83 85 38 e8 ff ff 01 	addl   $0x1,-0x17c8(%rbp)
    cc3d:	83 bd 38 e8 ff ff 09 	cmpl   $0x9,-0x17c8(%rbp)
    cc44:	7e ad                	jle    cbf3 <func_58+0x1d88>
    cc46:	c6 85 e8 e7 ff ff 01 	movb   $0x1,-0x1818(%rbp)
    cc4d:	e9 73 0a 00 00       	jmpq   d6c5 <func_58+0x285a>
    cc52:	48 8d 05 8d 64 00 00 	lea    0x648d(%rip),%rax        # 130e6 <g_238>
    cc59:	48 89 85 40 eb ff ff 	mov    %rax,-0x14c0(%rbp)
    cc60:	48 8d 05 c1 63 00 00 	lea    0x63c1(%rip),%rax        # 13028 <g_14>
    cc67:	48 89 85 48 eb ff ff 	mov    %rax,-0x14b8(%rbp)
    cc6e:	48 8d 05 b3 63 00 00 	lea    0x63b3(%rip),%rax        # 13028 <g_14>
    cc75:	48 89 85 50 eb ff ff 	mov    %rax,-0x14b0(%rbp)
    cc7c:	48 8d 05 63 64 00 00 	lea    0x6463(%rip),%rax        # 130e6 <g_238>
    cc83:	48 89 85 58 eb ff ff 	mov    %rax,-0x14a8(%rbp)
    cc8a:	48 8d 05 97 63 00 00 	lea    0x6397(%rip),%rax        # 13028 <g_14>
    cc91:	48 89 85 60 eb ff ff 	mov    %rax,-0x14a0(%rbp)
    cc98:	48 8d 05 89 63 00 00 	lea    0x6389(%rip),%rax        # 13028 <g_14>
    cc9f:	48 89 85 68 eb ff ff 	mov    %rax,-0x1498(%rbp)
    cca6:	48 8d 05 39 64 00 00 	lea    0x6439(%rip),%rax        # 130e6 <g_238>
    ccad:	48 89 85 70 eb ff ff 	mov    %rax,-0x1490(%rbp)
    ccb4:	48 8d 05 6d 63 00 00 	lea    0x636d(%rip),%rax        # 13028 <g_14>
    ccbb:	48 89 85 78 eb ff ff 	mov    %rax,-0x1488(%rbp)
    ccc2:	48 8d 05 5f 63 00 00 	lea    0x635f(%rip),%rax        # 13028 <g_14>
    ccc9:	48 89 85 80 eb ff ff 	mov    %rax,-0x1480(%rbp)
    ccd0:	48 8d 05 0f 64 00 00 	lea    0x640f(%rip),%rax        # 130e6 <g_238>
    ccd7:	48 89 85 88 eb ff ff 	mov    %rax,-0x1478(%rbp)
    ccde:	48 8d 05 43 63 00 00 	lea    0x6343(%rip),%rax        # 13028 <g_14>
    cce5:	48 89 85 90 eb ff ff 	mov    %rax,-0x1470(%rbp)
    ccec:	48 8d 05 35 63 00 00 	lea    0x6335(%rip),%rax        # 13028 <g_14>
    ccf3:	48 89 85 98 eb ff ff 	mov    %rax,-0x1468(%rbp)
    ccfa:	48 8d 05 e5 63 00 00 	lea    0x63e5(%rip),%rax        # 130e6 <g_238>
    cd01:	48 89 85 a0 eb ff ff 	mov    %rax,-0x1460(%rbp)
    cd08:	48 8d 05 19 63 00 00 	lea    0x6319(%rip),%rax        # 13028 <g_14>
    cd0f:	48 89 85 a8 eb ff ff 	mov    %rax,-0x1458(%rbp)
    cd16:	48 8d 05 0b 63 00 00 	lea    0x630b(%rip),%rax        # 13028 <g_14>
    cd1d:	48 89 85 b0 eb ff ff 	mov    %rax,-0x1450(%rbp)
    cd24:	48 8d 05 bb 63 00 00 	lea    0x63bb(%rip),%rax        # 130e6 <g_238>
    cd2b:	48 89 85 b8 eb ff ff 	mov    %rax,-0x1448(%rbp)
    cd32:	48 8d 05 ef 62 00 00 	lea    0x62ef(%rip),%rax        # 13028 <g_14>
    cd39:	48 89 85 c0 eb ff ff 	mov    %rax,-0x1440(%rbp)
    cd40:	48 8d 05 e1 62 00 00 	lea    0x62e1(%rip),%rax        # 13028 <g_14>
    cd47:	48 89 85 c8 eb ff ff 	mov    %rax,-0x1438(%rbp)
    cd4e:	66 c7 85 0a e8 ff ff 	movw   $0x7112,-0x17f6(%rbp)
    cd55:	12 71 
    cd57:	c7 85 bc e8 ff ff 00 	movl   $0x0,-0x1744(%rbp)
    cd5e:	00 00 00 
    cd61:	c7 85 c0 e8 ff ff fe 	movl   $0xfffffffe,-0x1740(%rbp)
    cd68:	ff ff ff 
    cd6b:	c7 85 c4 e8 ff ff 63 	movl   $0x54667063,-0x173c(%rbp)
    cd72:	70 66 54 
    cd75:	48 8d 85 20 ea ff ff 	lea    -0x15e0(%rbp),%rax
    cd7c:	48 83 c0 20          	add    $0x20,%rax
    cd80:	48 89 85 88 e9 ff ff 	mov    %rax,-0x1678(%rbp)
    cd87:	48 8d 05 56 63 00 00 	lea    0x6356(%rip),%rax        # 130e4 <g_186>
    cd8e:	48 89 85 90 e9 ff ff 	mov    %rax,-0x1670(%rbp)
    cd95:	48 8d 05 53 63 00 00 	lea    0x6353(%rip),%rax        # 130ef <g_276>
    cd9c:	48 89 85 98 e9 ff ff 	mov    %rax,-0x1668(%rbp)
    cda3:	48 8d 05 46 63 00 00 	lea    0x6346(%rip),%rax        # 130f0 <g_280>
    cdaa:	48 89 85 a0 ea ff ff 	mov    %rax,-0x1560(%rbp)
    cdb1:	48 c7 85 a8 ea ff ff 	movq   $0x0,-0x1558(%rbp)
    cdb8:	00 00 00 00 
    cdbc:	48 8d 05 2d 63 00 00 	lea    0x632d(%rip),%rax        # 130f0 <g_280>
    cdc3:	48 89 85 b0 ea ff ff 	mov    %rax,-0x1550(%rbp)
    cdca:	48 8d 05 1f 63 00 00 	lea    0x631f(%rip),%rax        # 130f0 <g_280>
    cdd1:	48 89 85 b8 ea ff ff 	mov    %rax,-0x1548(%rbp)
    cdd8:	48 c7 85 c0 ea ff ff 	movq   $0x0,-0x1540(%rbp)
    cddf:	00 00 00 00 
    cde3:	48 8d 05 06 63 00 00 	lea    0x6306(%rip),%rax        # 130f0 <g_280>
    cdea:	48 89 85 c8 ea ff ff 	mov    %rax,-0x1538(%rbp)
    cdf1:	48 8d 05 f8 62 00 00 	lea    0x62f8(%rip),%rax        # 130f0 <g_280>
    cdf8:	48 89 85 d0 ea ff ff 	mov    %rax,-0x1530(%rbp)
    cdff:	48 c7 85 d8 ea ff ff 	movq   $0x0,-0x1528(%rbp)
    ce06:	00 00 00 00 
    ce0a:	48 8d 05 df 62 00 00 	lea    0x62df(%rip),%rax        # 130f0 <g_280>
    ce11:	48 89 85 e0 ea ff ff 	mov    %rax,-0x1520(%rbp)
    ce18:	48 8d 85 f8 e8 ff ff 	lea    -0x1708(%rbp),%rax
    ce1f:	48 89 85 80 f0 ff ff 	mov    %rax,-0xf80(%rbp)
    ce26:	48 8d 85 f8 e8 ff ff 	lea    -0x1708(%rbp),%rax
    ce2d:	48 89 85 88 f0 ff ff 	mov    %rax,-0xf78(%rbp)
    ce34:	48 c7 85 90 f0 ff ff 	movq   $0x0,-0xf70(%rbp)
    ce3b:	00 00 00 00 
    ce3f:	48 8d 85 f8 e8 ff ff 	lea    -0x1708(%rbp),%rax
    ce46:	48 89 85 98 f0 ff ff 	mov    %rax,-0xf68(%rbp)
    ce4d:	48 8d 85 f8 e8 ff ff 	lea    -0x1708(%rbp),%rax
    ce54:	48 89 85 a0 f0 ff ff 	mov    %rax,-0xf60(%rbp)
    ce5b:	48 c7 85 a8 f0 ff ff 	movq   $0x0,-0xf58(%rbp)
    ce62:	00 00 00 00 
    ce66:	48 8d 85 f8 e8 ff ff 	lea    -0x1708(%rbp),%rax
    ce6d:	48 89 85 b0 f0 ff ff 	mov    %rax,-0xf50(%rbp)
    ce74:	48 8d 85 f8 e8 ff ff 	lea    -0x1708(%rbp),%rax
    ce7b:	48 89 85 b8 f0 ff ff 	mov    %rax,-0xf48(%rbp)
    ce82:	48 c7 85 c0 f0 ff ff 	movq   $0x0,-0xf40(%rbp)
    ce89:	00 00 00 00 
    ce8d:	48 8d 85 f8 e8 ff ff 	lea    -0x1708(%rbp),%rax
    ce94:	48 89 85 c8 f0 ff ff 	mov    %rax,-0xf38(%rbp)
    ce9b:	48 c7 85 d0 f0 ff ff 	movq   $0x0,-0xf30(%rbp)
    cea2:	00 00 00 00 
    cea6:	48 c7 85 d8 f0 ff ff 	movq   $0x0,-0xf28(%rbp)
    cead:	00 00 00 00 
    ceb1:	48 c7 85 e0 f0 ff ff 	movq   $0x0,-0xf20(%rbp)
    ceb8:	00 00 00 00 
    cebc:	48 8d 85 f8 e8 ff ff 	lea    -0x1708(%rbp),%rax
    cec3:	48 89 85 e8 f0 ff ff 	mov    %rax,-0xf18(%rbp)
    ceca:	48 c7 85 f0 f0 ff ff 	movq   $0x0,-0xf10(%rbp)
    ced1:	00 00 00 00 
    ced5:	48 c7 85 f8 f0 ff ff 	movq   $0x0,-0xf08(%rbp)
    cedc:	00 00 00 00 
    cee0:	48 8d 85 f8 e8 ff ff 	lea    -0x1708(%rbp),%rax
    cee7:	48 89 85 00 f1 ff ff 	mov    %rax,-0xf00(%rbp)
    ceee:	48 8d 85 f8 e8 ff ff 	lea    -0x1708(%rbp),%rax
    cef5:	48 89 85 08 f1 ff ff 	mov    %rax,-0xef8(%rbp)
    cefc:	48 8d 85 f8 e8 ff ff 	lea    -0x1708(%rbp),%rax
    cf03:	48 89 85 10 f1 ff ff 	mov    %rax,-0xef0(%rbp)
    cf0a:	48 8d 85 f8 e8 ff ff 	lea    -0x1708(%rbp),%rax
    cf11:	48 89 85 18 f1 ff ff 	mov    %rax,-0xee8(%rbp)
    cf18:	48 c7 85 20 f1 ff ff 	movq   $0x0,-0xee0(%rbp)
    cf1f:	00 00 00 00 
    cf23:	48 8d 85 f8 e8 ff ff 	lea    -0x1708(%rbp),%rax
    cf2a:	48 89 85 28 f1 ff ff 	mov    %rax,-0xed8(%rbp)
    cf31:	48 c7 85 30 f1 ff ff 	movq   $0x0,-0xed0(%rbp)
    cf38:	00 00 00 00 
    cf3c:	48 c7 85 38 f1 ff ff 	movq   $0x0,-0xec8(%rbp)
    cf43:	00 00 00 00 
    cf47:	48 c7 85 40 f1 ff ff 	movq   $0x0,-0xec0(%rbp)
    cf4e:	00 00 00 00 
    cf52:	48 8d 85 f8 e8 ff ff 	lea    -0x1708(%rbp),%rax
    cf59:	48 89 85 48 f1 ff ff 	mov    %rax,-0xeb8(%rbp)
    cf60:	48 c7 85 50 f1 ff ff 	movq   $0x0,-0xeb0(%rbp)
    cf67:	00 00 00 00 
    cf6b:	48 c7 85 58 f1 ff ff 	movq   $0x0,-0xea8(%rbp)
    cf72:	00 00 00 00 
    cf76:	48 8d 85 f8 e8 ff ff 	lea    -0x1708(%rbp),%rax
    cf7d:	48 89 85 60 f1 ff ff 	mov    %rax,-0xea0(%rbp)
    cf84:	48 c7 85 68 f1 ff ff 	movq   $0x0,-0xe98(%rbp)
    cf8b:	00 00 00 00 
    cf8f:	48 c7 85 70 f1 ff ff 	movq   $0x0,-0xe90(%rbp)
    cf96:	00 00 00 00 
    cf9a:	48 c7 85 78 f1 ff ff 	movq   $0x0,-0xe88(%rbp)
    cfa1:	00 00 00 00 
    cfa5:	48 c7 85 80 f1 ff ff 	movq   $0x0,-0xe80(%rbp)
    cfac:	00 00 00 00 
    cfb0:	48 8d 85 f8 e8 ff ff 	lea    -0x1708(%rbp),%rax
    cfb7:	48 89 85 88 f1 ff ff 	mov    %rax,-0xe78(%rbp)
    cfbe:	48 8d 85 f8 e8 ff ff 	lea    -0x1708(%rbp),%rax
    cfc5:	48 89 85 90 f1 ff ff 	mov    %rax,-0xe70(%rbp)
    cfcc:	48 8d 85 f8 e8 ff ff 	lea    -0x1708(%rbp),%rax
    cfd3:	48 89 85 98 f1 ff ff 	mov    %rax,-0xe68(%rbp)
    cfda:	48 c7 85 a0 f1 ff ff 	movq   $0x0,-0xe60(%rbp)
    cfe1:	00 00 00 00 
    cfe5:	48 8d 85 f8 e8 ff ff 	lea    -0x1708(%rbp),%rax
    cfec:	48 89 85 a8 f1 ff ff 	mov    %rax,-0xe58(%rbp)
    cff3:	48 8d 85 f8 e8 ff ff 	lea    -0x1708(%rbp),%rax
    cffa:	48 89 85 b0 f1 ff ff 	mov    %rax,-0xe50(%rbp)
    d001:	48 8d 85 f8 e8 ff ff 	lea    -0x1708(%rbp),%rax
    d008:	48 89 85 b8 f1 ff ff 	mov    %rax,-0xe48(%rbp)
    d00f:	48 8d 85 f8 e8 ff ff 	lea    -0x1708(%rbp),%rax
    d016:	48 89 85 c0 f1 ff ff 	mov    %rax,-0xe40(%rbp)
    d01d:	48 8d 85 f8 e8 ff ff 	lea    -0x1708(%rbp),%rax
    d024:	48 89 85 c8 f1 ff ff 	mov    %rax,-0xe38(%rbp)
    d02b:	48 8d 85 f8 e8 ff ff 	lea    -0x1708(%rbp),%rax
    d032:	48 89 85 d0 f1 ff ff 	mov    %rax,-0xe30(%rbp)
    d039:	48 8d 85 f8 e8 ff ff 	lea    -0x1708(%rbp),%rax
    d040:	48 89 85 d8 f1 ff ff 	mov    %rax,-0xe28(%rbp)
    d047:	48 c7 85 e0 f1 ff ff 	movq   $0x0,-0xe20(%rbp)
    d04e:	00 00 00 00 
    d052:	48 8d 85 f8 e8 ff ff 	lea    -0x1708(%rbp),%rax
    d059:	48 89 85 e8 f1 ff ff 	mov    %rax,-0xe18(%rbp)
    d060:	48 8d 85 f8 e8 ff ff 	lea    -0x1708(%rbp),%rax
    d067:	48 89 85 f0 f1 ff ff 	mov    %rax,-0xe10(%rbp)
    d06e:	48 c7 85 f8 f1 ff ff 	movq   $0x0,-0xe08(%rbp)
    d075:	00 00 00 00 
    d079:	48 c7 85 a0 e9 ff ff 	movq   $0x0,-0x1660(%rbp)
    d080:	00 00 00 00 
    d084:	48 c7 85 a8 e9 ff ff 	movq   $0x0,-0x1658(%rbp)
    d08b:	00 00 00 00 
    d08f:	48 c7 85 b0 e9 ff ff 	movq   $0x0,-0x1650(%rbp)
    d096:	00 00 00 00 
    d09a:	48 8d 85 60 ea ff ff 	lea    -0x15a0(%rbp),%rax
    d0a1:	48 83 c0 30          	add    $0x30,%rax
    d0a5:	48 89 85 b8 e9 ff ff 	mov    %rax,-0x1648(%rbp)
    d0ac:	c7 85 d0 eb ff ff 81 	movl   $0xe1af3581,-0x1430(%rbp)
    d0b3:	35 af e1 
    d0b6:	c7 85 d4 eb ff ff 00 	movl   $0x0,-0x142c(%rbp)
    d0bd:	00 00 00 
    d0c0:	c7 85 d8 eb ff ff 81 	movl   $0xe1af3581,-0x1428(%rbp)
    d0c7:	35 af e1 
    d0ca:	c7 85 dc eb ff ff fa 	movl   $0xfa1233fa,-0x1424(%rbp)
    d0d1:	33 12 fa 
    d0d4:	c7 85 e0 eb ff ff 81 	movl   $0xe1af3581,-0x1420(%rbp)
    d0db:	35 af e1 
    d0de:	c7 85 e4 eb ff ff 00 	movl   $0x0,-0x141c(%rbp)
    d0e5:	00 00 00 
    d0e8:	c7 85 e8 eb ff ff 81 	movl   $0xe1af3581,-0x1418(%rbp)
    d0ef:	35 af e1 
    d0f2:	c7 85 ec eb ff ff fa 	movl   $0xfa1233fa,-0x1414(%rbp)
    d0f9:	33 12 fa 
    d0fc:	c7 85 f0 eb ff ff 81 	movl   $0xe1af3581,-0x1410(%rbp)
    d103:	35 af e1 
    d106:	c7 85 f4 eb ff ff 00 	movl   $0x0,-0x140c(%rbp)
    d10d:	00 00 00 
    d110:	c7 85 f8 eb ff ff 01 	movl   $0x1,-0x1408(%rbp)
    d117:	00 00 00 
    d11a:	c7 85 fc eb ff ff fa 	movl   $0xfa1233fa,-0x1404(%rbp)
    d121:	33 12 fa 
    d124:	c7 85 00 ec ff ff 01 	movl   $0x1,-0x1400(%rbp)
    d12b:	00 00 00 
    d12e:	c7 85 04 ec ff ff fa 	movl   $0xfa1233fa,-0x13fc(%rbp)
    d135:	33 12 fa 
    d138:	c7 85 08 ec ff ff 01 	movl   $0x1,-0x13f8(%rbp)
    d13f:	00 00 00 
    d142:	c7 85 0c ec ff ff fa 	movl   $0xfa1233fa,-0x13f4(%rbp)
    d149:	33 12 fa 
    d14c:	c7 85 10 ec ff ff 01 	movl   $0x1,-0x13f0(%rbp)
    d153:	00 00 00 
    d156:	c7 85 14 ec ff ff fa 	movl   $0xfa1233fa,-0x13ec(%rbp)
    d15d:	33 12 fa 
    d160:	c7 85 18 ec ff ff 01 	movl   $0x1,-0x13e8(%rbp)
    d167:	00 00 00 
    d16a:	c7 85 1c ec ff ff fa 	movl   $0xfa1233fa,-0x13e4(%rbp)
    d171:	33 12 fa 
    d174:	c7 85 20 ec ff ff 81 	movl   $0xe1af3581,-0x13e0(%rbp)
    d17b:	35 af e1 
    d17e:	c7 85 24 ec ff ff fa 	movl   $0xfa1233fa,-0x13dc(%rbp)
    d185:	33 12 fa 
    d188:	c7 85 28 ec ff ff 81 	movl   $0xe1af3581,-0x13d8(%rbp)
    d18f:	35 af e1 
    d192:	c7 85 2c ec ff ff 00 	movl   $0x0,-0x13d4(%rbp)
    d199:	00 00 00 
    d19c:	c7 85 30 ec ff ff 81 	movl   $0xe1af3581,-0x13d0(%rbp)
    d1a3:	35 af e1 
    d1a6:	c7 85 34 ec ff ff fa 	movl   $0xfa1233fa,-0x13cc(%rbp)
    d1ad:	33 12 fa 
    d1b0:	c7 85 38 ec ff ff 81 	movl   $0xe1af3581,-0x13c8(%rbp)
    d1b7:	35 af e1 
    d1ba:	c7 85 3c ec ff ff 00 	movl   $0x0,-0x13c4(%rbp)
    d1c1:	00 00 00 
    d1c4:	c7 85 40 ec ff ff 81 	movl   $0xe1af3581,-0x13c0(%rbp)
    d1cb:	35 af e1 
    d1ce:	c7 85 44 ec ff ff fa 	movl   $0xfa1233fa,-0x13bc(%rbp)
    d1d5:	33 12 fa 
    d1d8:	c7 85 48 ec ff ff 01 	movl   $0x1,-0x13b8(%rbp)
    d1df:	00 00 00 
    d1e2:	c7 85 4c ec ff ff 00 	movl   $0x0,-0x13b4(%rbp)
    d1e9:	00 00 00 
    d1ec:	c7 85 50 ec ff ff 01 	movl   $0x1,-0x13b0(%rbp)
    d1f3:	00 00 00 
    d1f6:	c7 85 54 ec ff ff 00 	movl   $0x0,-0x13ac(%rbp)
    d1fd:	00 00 00 
    d200:	c7 85 58 ec ff ff 01 	movl   $0x1,-0x13a8(%rbp)
    d207:	00 00 00 
    d20a:	c7 85 5c ec ff ff 00 	movl   $0x0,-0x13a4(%rbp)
    d211:	00 00 00 
    d214:	c7 85 60 ec ff ff 01 	movl   $0x1,-0x13a0(%rbp)
    d21b:	00 00 00 
    d21e:	c7 85 64 ec ff ff 00 	movl   $0x0,-0x139c(%rbp)
    d225:	00 00 00 
    d228:	c7 85 68 ec ff ff 01 	movl   $0x1,-0x1398(%rbp)
    d22f:	00 00 00 
    d232:	c7 85 6c ec ff ff 00 	movl   $0x0,-0x1394(%rbp)
    d239:	00 00 00 
    d23c:	48 8d 05 e7 5d 00 00 	lea    0x5de7(%rip),%rax        # 1302a <g_21>
    d243:	0f b6 00             	movzbl (%rax),%eax
    d246:	84 c0                	test   %al,%al
    d248:	75 60                	jne    d2aa <func_58+0x243f>
    d24a:	0f b6 05 d9 5d 00 00 	movzbl 0x5dd9(%rip),%eax        # 1302a <g_21>
    d251:	0f b6 d0             	movzbl %al,%edx
    d254:	8b 85 ec e7 ff ff    	mov    -0x1814(%rbp),%eax
    d25a:	48 63 c8             	movslq %eax,%rcx
    d25d:	48 8b 85 10 e9 ff ff 	mov    -0x16f0(%rbp),%rax
    d264:	48 39 c1             	cmp    %rax,%rcx
    d267:	0f 92 c0             	setb   %al
    d26a:	0f b6 c0             	movzbl %al,%eax
    d26d:	39 c2                	cmp    %eax,%edx
    d26f:	74 11                	je     d282 <func_58+0x2417>
    d271:	c7 85 18 e8 ff ff 00 	movl   $0x0,-0x17e8(%rbp)
    d278:	00 00 00 
    d27b:	b8 00 00 00 00       	mov    $0x0,%eax
    d280:	eb 05                	jmp    d287 <func_58+0x241c>
    d282:	b8 01 00 00 00       	mov    $0x1,%eax
    d287:	48 63 d8             	movslq %eax,%rbx
    d28a:	8b 05 28 75 00 00    	mov    0x7528(%rip),%eax        # 147b8 <g_75>
    d290:	48 98                	cltq   
    d292:	48 89 c6             	mov    %rax,%rsi
    d295:	bf 00 00 00 00       	mov    $0x0,%edi
    d29a:	e8 10 6e ff ff       	callq  40af <safe_div_func_uint64_t_u_u>
    d29f:	48 21 d8             	and    %rbx,%rax
    d2a2:	48 3d fc 00 00 00    	cmp    $0xfc,%rax
    d2a8:	74 07                	je     d2b1 <func_58+0x2446>
    d2aa:	b8 01 00 00 00       	mov    $0x1,%eax
    d2af:	eb 05                	jmp    d2b6 <func_58+0x244b>
    d2b1:	b8 00 00 00 00       	mov    $0x0,%eax
    d2b6:	0f b7 d8             	movzwl %ax,%ebx
    d2b9:	48 8b 15 18 5e 00 00 	mov    0x5e18(%rip),%rdx        # 130d8 <g_137>
    d2c0:	0f be 85 e8 e7 ff ff 	movsbl -0x1818(%rbp),%eax
    d2c7:	48 98                	cltq   
    d2c9:	48 8d 0c 85 00 00 00 	lea    0x0(,%rax,4),%rcx
    d2d0:	00 
    d2d1:	48 8d 05 e8 5d 00 00 	lea    0x5de8(%rip),%rax        # 130c0 <g_98>
    d2d8:	8b 04 01             	mov    (%rcx,%rax,1),%eax
    d2db:	48 98                	cltq   
    d2dd:	48 89 d6             	mov    %rdx,%rsi
    d2e0:	48 89 c7             	mov    %rax,%rdi
    d2e3:	e8 0f 67 ff ff       	callq  39f7 <safe_div_func_int64_t_s_s>
    d2e8:	0f b7 c0             	movzwl %ax,%eax
    d2eb:	89 de                	mov    %ebx,%esi
    d2ed:	89 c7                	mov    %eax,%edi
    d2ef:	e8 49 6a ff ff       	callq  3d3d <safe_mul_func_uint16_t_u_u>
    d2f4:	0f be 95 e8 e7 ff ff 	movsbl -0x1818(%rbp),%edx
    d2fb:	0f b7 c0             	movzwl %ax,%eax
    d2fe:	48 63 d2             	movslq %edx,%rdx
    d301:	48 8d 0c 95 00 00 00 	lea    0x0(,%rdx,4),%rcx
    d308:	00 
    d309:	48 8d 15 b0 5d 00 00 	lea    0x5db0(%rip),%rdx        # 130c0 <g_98>
    d310:	89 04 11             	mov    %eax,(%rcx,%rdx,1)
    d313:	c6 85 f7 e7 ff ff 02 	movb   $0x2,-0x1809(%rbp)
    d31a:	e9 18 01 00 00       	jmpq   d437 <func_58+0x25cc>
    d31f:	66 c7 85 0c e8 ff ff 	movw   $0xffff,-0x17f4(%rbp)
    d326:	ff ff 
    d328:	c7 85 c8 e8 ff ff f8 	movl   $0xfffffff8,-0x1738(%rbp)
    d32f:	ff ff ff 
    d332:	c7 85 cc e8 ff ff 5f 	movl   $0x5c616b5f,-0x1734(%rbp)
    d339:	6b 61 5c 
    d33c:	c7 85 d0 e8 ff ff 08 	movl   $0x8,-0x1730(%rbp)
    d343:	00 00 00 
    d346:	c7 85 d4 e8 ff ff 01 	movl   $0x1,-0x172c(%rbp)
    d34d:	00 00 00 
    d350:	c7 85 d8 e8 ff ff 05 	movl   $0x5,-0x1728(%rbp)
    d357:	00 00 00 
    d35a:	48 8d 85 40 f8 ff ff 	lea    -0x7c0(%rbp),%rax
    d361:	48 8d 15 b8 2e 00 00 	lea    0x2eb8(%rip),%rdx        # 10220 <g_1116+0x11c8>
    d368:	b9 5a 00 00 00       	mov    $0x5a,%ecx
    d36d:	48 89 c7             	mov    %rax,%rdi
    d370:	48 89 d6             	mov    %rdx,%rsi
    d373:	f3 48 a5             	rep movsq %ds:(%rsi),%es:(%rdi)
    d376:	48 8d 05 83 6d 00 00 	lea    0x6d83(%rip),%rax        # 14100 <g_192>
    d37d:	48 89 85 f0 ea ff ff 	mov    %rax,-0x1510(%rbp)
    d384:	48 8d 05 75 6d 00 00 	lea    0x6d75(%rip),%rax        # 14100 <g_192>
    d38b:	48 89 85 f8 ea ff ff 	mov    %rax,-0x1508(%rbp)
    d392:	48 8d 05 67 6d 00 00 	lea    0x6d67(%rip),%rax        # 14100 <g_192>
    d399:	48 89 85 00 eb ff ff 	mov    %rax,-0x1500(%rbp)
    d3a0:	48 8d 05 59 6d 00 00 	lea    0x6d59(%rip),%rax        # 14100 <g_192>
    d3a7:	48 89 85 08 eb ff ff 	mov    %rax,-0x14f8(%rbp)
    d3ae:	48 8d 05 4b 6d 00 00 	lea    0x6d4b(%rip),%rax        # 14100 <g_192>
    d3b5:	48 89 85 10 eb ff ff 	mov    %rax,-0x14f0(%rbp)
    d3bc:	48 8d 05 3d 6d 00 00 	lea    0x6d3d(%rip),%rax        # 14100 <g_192>
    d3c3:	48 89 85 18 eb ff ff 	mov    %rax,-0x14e8(%rbp)
    d3ca:	48 8d 05 2f 6d 00 00 	lea    0x6d2f(%rip),%rax        # 14100 <g_192>
    d3d1:	48 89 85 20 eb ff ff 	mov    %rax,-0x14e0(%rbp)
    d3d8:	48 8d 05 21 6d 00 00 	lea    0x6d21(%rip),%rax        # 14100 <g_192>
    d3df:	48 89 85 28 eb ff ff 	mov    %rax,-0x14d8(%rbp)
    d3e6:	48 8d 05 13 6d 00 00 	lea    0x6d13(%rip),%rax        # 14100 <g_192>
    d3ed:	48 89 85 30 eb ff ff 	mov    %rax,-0x14d0(%rbp)
    d3f4:	0f b6 05 f3 5c 00 00 	movzbl 0x5cf3(%rip),%eax        # 130ee <g_258+0x6>
    d3fb:	83 e8 01             	sub    $0x1,%eax
    d3fe:	88 05 ea 5c 00 00    	mov    %al,0x5cea(%rip)        # 130ee <g_258+0x6>
    d404:	80 bd e8 e7 ff ff 00 	cmpb   $0x0,-0x1818(%rbp)
    d40b:	75 39                	jne    d446 <func_58+0x25db>
    d40d:	8b 95 5c f3 ff ff    	mov    -0xca4(%rbp),%edx
    d413:	0f b7 85 e4 e7 ff ff 	movzwl -0x181c(%rbp),%eax
    d41a:	09 d0                	or     %edx,%eax
    d41c:	89 85 5c f3 ff ff    	mov    %eax,-0xca4(%rbp)
    d422:	48 8d 85 f0 e8 ff ff 	lea    -0x1710(%rbp),%rax
    d429:	48 89 85 28 e9 ff ff 	mov    %rax,-0x16d8(%rbp)
    d430:	80 85 f7 e7 ff ff 01 	addb   $0x1,-0x1809(%rbp)
    d437:	80 bd f7 e7 ff ff 07 	cmpb   $0x7,-0x1809(%rbp)
    d43e:	0f 86 db fe ff ff    	jbe    d31f <func_58+0x24b4>
    d444:	eb 01                	jmp    d447 <func_58+0x25dc>
    d446:	90                   	nop
    d447:	48 8d 85 20 ea ff ff 	lea    -0x15e0(%rbp),%rax
    d44e:	48 83 c0 18          	add    $0x18,%rax
    d452:	48 39 85 88 e9 ff ff 	cmp    %rax,-0x1678(%rbp)
    d459:	0f 94 c0             	sete   %al
    d45c:	0f b6 c0             	movzbl %al,%eax
    d45f:	be 07 00 00 00       	mov    $0x7,%esi
    d464:	89 c7                	mov    %eax,%edi
    d466:	e8 36 5e ff ff       	callq  32a1 <safe_lshift_func_int8_t_s_s>
    d46b:	48 8b 95 90 e9 ff ff 	mov    -0x1670(%rbp),%rdx
    d472:	88 02                	mov    %al,(%rdx)
    d474:	48 8b 95 10 e9 ff ff 	mov    -0x16f0(%rbp),%rdx
    d47b:	8b 85 ec e7 ff ff    	mov    -0x1814(%rbp),%eax
    d481:	48 98                	cltq   
    d483:	48 89 d6             	mov    %rdx,%rsi
    d486:	48 89 c7             	mov    %rax,%rdi
    d489:	e8 21 6c ff ff       	callq  40af <safe_div_func_uint64_t_u_u>
    d48e:	48 83 f8 01          	cmp    $0x1,%rax
    d492:	0f 97 c0             	seta   %al
    d495:	0f b6 d8             	movzbl %al,%ebx
    d498:	8b 05 1a 73 00 00    	mov    0x731a(%rip),%eax        # 147b8 <g_75>
    d49e:	41 89 c5             	mov    %eax,%r13d
    d4a1:	8b 85 30 e8 ff ff    	mov    -0x17d0(%rbp),%eax
    d4a7:	89 c2                	mov    %eax,%edx
    d4a9:	48 8b 85 98 e9 ff ff 	mov    -0x1668(%rbp),%rax
    d4b0:	88 10                	mov    %dl,(%rax)
    d4b2:	48 8b 85 98 e9 ff ff 	mov    -0x1668(%rbp),%rax
    d4b9:	0f b6 00             	movzbl (%rax),%eax
    d4bc:	44 0f be e0          	movsbl %al,%r12d
    d4c0:	0f b7 85 e4 e7 ff ff 	movzwl -0x181c(%rbp),%eax
    d4c7:	0f b6 c0             	movzbl %al,%eax
    d4ca:	be 00 00 00 00       	mov    $0x0,%esi
    d4cf:	89 c7                	mov    %eax,%edi
    d4d1:	e8 76 67 ff ff       	callq  3c4c <safe_lshift_func_uint8_t_u_u>
    d4d6:	0f b6 c0             	movzbl %al,%eax
    d4d9:	41 39 c4             	cmp    %eax,%r12d
    d4dc:	0f 9f c0             	setg   %al
    d4df:	0f b6 c0             	movzbl %al,%eax
    d4e2:	be 2f 00 00 00       	mov    $0x2f,%esi
    d4e7:	89 c7                	mov    %eax,%edi
    d4e9:	e8 8a 66 ff ff       	callq  3b78 <safe_sub_func_uint8_t_u_u>
    d4ee:	0f b6 c0             	movzbl %al,%eax
    d4f1:	44 89 ee             	mov    %r13d,%esi
    d4f4:	89 c7                	mov    %eax,%edi
    d4f6:	e8 7f 69 ff ff       	callq  3e7a <safe_rshift_func_uint16_t_u_u>
    d4fb:	80 bd e8 e7 ff ff 00 	cmpb   $0x0,-0x1818(%rbp)
    d502:	0f 9e c0             	setle  %al
    d505:	0f b6 c0             	movzbl %al,%eax
    d508:	89 85 30 e8 ff ff    	mov    %eax,-0x17d0(%rbp)
    d50e:	39 9d 30 e8 ff ff    	cmp    %ebx,-0x17d0(%rbp)
    d514:	0f 9c c0             	setl   %al
    d517:	0f b6 d0             	movzbl %al,%edx
    d51a:	8b 85 5c f3 ff ff    	mov    -0xca4(%rbp),%eax
    d520:	09 d0                	or     %edx,%eax
    d522:	89 85 5c f3 ff ff    	mov    %eax,-0xca4(%rbp)
    d528:	8b 9d ec e7 ff ff    	mov    -0x1814(%rbp),%ebx
    d52e:	83 bd ec e7 ff ff de 	cmpl   $0xffffffde,-0x1814(%rbp)
    d535:	7d 3c                	jge    d573 <func_58+0x2708>
    d537:	48 8b 8d 80 f1 ff ff 	mov    -0xe80(%rbp),%rcx
    d53e:	48 8b 95 90 ea ff ff 	mov    -0x1570(%rbp),%rdx
    d545:	48 8b 85 b8 e9 ff ff 	mov    -0x1648(%rbp),%rax
    d54c:	48 89 10             	mov    %rdx,(%rax)
    d54f:	48 8b 85 b8 e9 ff ff 	mov    -0x1648(%rbp),%rax
    d556:	48 8b 00             	mov    (%rax),%rax
    d559:	48 89 05 18 6c 00 00 	mov    %rax,0x6c18(%rip)        # 14178 <g_296>
    d560:	48 8b 05 11 6c 00 00 	mov    0x6c11(%rip),%rax        # 14178 <g_296>
    d567:	48 39 c1             	cmp    %rax,%rcx
    d56a:	74 07                	je     d573 <func_58+0x2708>
    d56c:	b9 01 00 00 00       	mov    $0x1,%ecx
    d571:	eb 05                	jmp    d578 <func_58+0x270d>
    d573:	b9 00 00 00 00       	mov    $0x0,%ecx
    d578:	0f b7 05 67 5b 00 00 	movzwl 0x5b67(%rip),%eax        # 130e6 <g_238>
    d57f:	8d 50 01             	lea    0x1(%rax),%edx
    d582:	66 89 15 5d 5b 00 00 	mov    %dx,0x5b5d(%rip)        # 130e6 <g_238>
    d589:	0f b7 c0             	movzwl %ax,%eax
    d58c:	09 c1                	or     %eax,%ecx
    d58e:	89 ca                	mov    %ecx,%edx
    d590:	0f b6 05 19 5b 00 00 	movzbl 0x5b19(%rip),%eax        # 130b0 <g_97>
    d597:	0f be c0             	movsbl %al,%eax
    d59a:	31 c2                	xor    %eax,%edx
    d59c:	41 89 d5             	mov    %edx,%r13d
    d59f:	0f b6 05 84 5a 00 00 	movzbl 0x5a84(%rip),%eax        # 1302a <g_21>
    d5a6:	44 0f be e0          	movsbl %al,%r12d
    d5aa:	8b 85 24 ec ff ff    	mov    -0x13dc(%rbp),%eax
    d5b0:	41 89 c6             	mov    %eax,%r14d
    d5b3:	8b 85 24 ec ff ff    	mov    -0x13dc(%rbp),%eax
    d5b9:	0f b7 d0             	movzwl %ax,%edx
    d5bc:	8b 85 10 f3 ff ff    	mov    -0xcf0(%rbp),%eax
    d5c2:	0f b7 c0             	movzwl %ax,%eax
    d5c5:	89 d6                	mov    %edx,%esi
    d5c7:	89 c7                	mov    %eax,%edi
    d5c9:	e8 8e 67 ff ff       	callq  3d5c <safe_mod_func_uint16_t_u_u>
    d5ce:	0f be c0             	movsbl %al,%eax
    d5d1:	44 89 f6             	mov    %r14d,%esi
    d5d4:	89 c7                	mov    %eax,%edi
    d5d6:	e8 91 5d ff ff       	callq  336c <safe_rshift_func_int8_t_s_u>
    d5db:	84 c0                	test   %al,%al
    d5dd:	74 11                	je     d5f0 <func_58+0x2785>
    d5df:	66 83 bd fc e7 ff ff 	cmpw   $0x0,-0x1804(%rbp)
    d5e6:	00 
    d5e7:	74 07                	je     d5f0 <func_58+0x2785>
    d5e9:	b8 01 00 00 00       	mov    $0x1,%eax
    d5ee:	eb 05                	jmp    d5f5 <func_58+0x278a>
    d5f0:	b8 00 00 00 00       	mov    $0x0,%eax
    d5f5:	0f b6 c0             	movzbl %al,%eax
    d5f8:	89 c6                	mov    %eax,%esi
    d5fa:	bf 64 00 00 00       	mov    $0x64,%edi
    d5ff:	e8 d7 65 ff ff       	callq  3bdb <safe_div_func_uint8_t_u_u>
    d604:	89 c2                	mov    %eax,%edx
    d606:	8b 85 b4 ee ff ff    	mov    -0x114c(%rbp),%eax
    d60c:	31 d0                	xor    %edx,%eax
    d60e:	0f be c0             	movsbl %al,%eax
    d611:	44 89 e6             	mov    %r12d,%esi
    d614:	89 c7                	mov    %eax,%edi
    d616:	e8 16 5c ff ff       	callq  3231 <safe_mod_func_int8_t_s_s>
    d61b:	83 bd bc e8 ff ff 00 	cmpl   $0x0,-0x1744(%rbp)
    d622:	78 07                	js     d62b <func_58+0x27c0>
    d624:	b8 01 00 00 00       	mov    $0x1,%eax
    d629:	eb 05                	jmp    d630 <func_58+0x27c5>
    d62b:	b8 00 00 00 00       	mov    $0x0,%eax
    d630:	89 c2                	mov    %eax,%edx
    d632:	48 8b 05 bf 5a 00 00 	mov    0x5abf(%rip),%rax        # 130f8 <g_303>
    d639:	48 83 e8 01          	sub    $0x1,%rax
    d63d:	48 89 05 b4 5a 00 00 	mov    %rax,0x5ab4(%rip)        # 130f8 <g_303>
    d644:	48 8b 05 ad 5a 00 00 	mov    0x5aad(%rip),%rax        # 130f8 <g_303>
    d64b:	0f b7 c0             	movzwl %ax,%eax
    d64e:	89 d6                	mov    %edx,%esi
    d650:	89 c7                	mov    %eax,%edi
    d652:	e8 af 67 ff ff       	callq  3e06 <safe_lshift_func_uint16_t_u_u>
    d657:	0f b7 c0             	movzwl %ax,%eax
    d65a:	41 39 c5             	cmp    %eax,%r13d
    d65d:	0f 9c c0             	setl   %al
    d660:	0f b6 c0             	movzbl %al,%eax
    d663:	89 de                	mov    %ebx,%esi
    d665:	89 c7                	mov    %eax,%edi
    d667:	e8 64 68 ff ff       	callq  3ed0 <safe_sub_func_uint32_t_u_u>
    d66c:	89 c2                	mov    %eax,%edx
    d66e:	8b 85 ec e7 ff ff    	mov    -0x1814(%rbp),%eax
    d674:	31 d0                	xor    %edx,%eax
    d676:	66 89 85 fe e7 ff ff 	mov    %ax,-0x1802(%rbp)
    d67d:	8b 85 34 e8 ff ff    	mov    -0x17cc(%rbp),%eax
    d683:	3b 85 ec e7 ff ff    	cmp    -0x1814(%rbp),%eax
    d689:	0f 95 c0             	setne  %al
    d68c:	0f b6 c0             	movzbl %al,%eax
    d68f:	89 c6                	mov    %eax,%esi
    d691:	bf ce 12 16 cc       	mov    $0xcc1612ce,%edi
    d696:	e8 6a 5f ff ff       	callq  3605 <safe_sub_func_int32_t_s_s>
    d69b:	be 90 15 91 2f       	mov    $0x2f911590,%esi
    d6a0:	89 c7                	mov    %eax,%edi
    d6a2:	e8 56 68 ff ff       	callq  3efd <safe_mod_func_uint32_t_u_u>
    d6a7:	8b 95 c0 e8 ff ff    	mov    -0x1740(%rbp),%edx
    d6ad:	21 d0                	and    %edx,%eax
    d6af:	89 85 c0 e8 ff ff    	mov    %eax,-0x1740(%rbp)
    d6b5:	0f b6 85 e8 e7 ff ff 	movzbl -0x1818(%rbp),%eax
    d6bc:	83 c0 01             	add    $0x1,%eax
    d6bf:	88 85 e8 e7 ff ff    	mov    %al,-0x1818(%rbp)
    d6c5:	80 bd e8 e7 ff ff 04 	cmpb   $0x4,-0x1818(%rbp)
    d6cc:	0f 8e 80 f5 ff ff    	jle    cc52 <func_58+0x1de7>
    d6d2:	48 c7 85 38 e9 ff ff 	movq   $0x0,-0x16c8(%rbp)
    d6d9:	00 00 00 00 
    d6dd:	0f b7 05 ba 59 00 00 	movzwl 0x59ba(%rip),%eax        # 1309e <g_93+0x5e>
    d6e4:	0f b6 d8             	movzbl %al,%ebx
    d6e7:	44 8b a5 ec e7 ff ff 	mov    -0x1814(%rbp),%r12d
    d6ee:	48 8b 85 50 e9 ff ff 	mov    -0x16b0(%rbp),%rax
    d6f5:	41 89 c7             	mov    %eax,%r15d
    d6f8:	44 0f b7 ad e4 e7 ff 	movzwl -0x181c(%rbp),%r13d
    d6ff:	ff 
    d700:	48 8b 85 08 e9 ff ff 	mov    -0x16f8(%rbp),%rax
    d707:	44 0f be f0          	movsbl %al,%r14d
    d70b:	0f b6 05 d8 59 00 00 	movzbl 0x59d8(%rip),%eax        # 130ea <g_258+0x2>
    d712:	84 c0                	test   %al,%al
    d714:	0f 95 c0             	setne  %al
    d717:	0f b6 c0             	movzbl %al,%eax
    d71a:	be 05 00 00 00       	mov    $0x5,%esi
    d71f:	89 c7                	mov    %eax,%edi
    d721:	e8 bb 5d ff ff       	callq  34e1 <safe_lshift_func_int16_t_s_u>
    d726:	0f be c0             	movsbl %al,%eax
    d729:	44 89 f6             	mov    %r14d,%esi
    d72c:	89 c7                	mov    %eax,%edi
    d72e:	e8 37 5b ff ff       	callq  326a <safe_div_func_int8_t_s_s>
    d733:	48 0f be c0          	movsbq %al,%rax
    d737:	48 89 05 ba 59 00 00 	mov    %rax,0x59ba(%rip)        # 130f8 <g_303>
    d73e:	44 89 ee             	mov    %r13d,%esi
    d741:	bf 01 00 00 00       	mov    $0x1,%edi
    d746:	e8 f2 65 ff ff       	callq  3d3d <safe_mul_func_uint16_t_u_u>
    d74b:	8b 85 0c f3 ff ff    	mov    -0xcf4(%rbp),%eax
    d751:	85 c0                	test   %eax,%eax
    d753:	74 07                	je     d75c <func_58+0x28f1>
    d755:	b8 01 00 00 00       	mov    $0x1,%eax
    d75a:	eb 05                	jmp    d761 <func_58+0x28f6>
    d75c:	b8 00 00 00 00       	mov    $0x0,%eax
    d761:	98                   	cwtl   
    d762:	be 04 00 00 00       	mov    $0x4,%esi
    d767:	89 c7                	mov    %eax,%edi
    d769:	e8 87 5c ff ff       	callq  33f5 <safe_mul_func_int16_t_s_s>
    d76e:	98                   	cwtl   
    d76f:	44 89 fe             	mov    %r15d,%esi
    d772:	89 c7                	mov    %eax,%edi
    d774:	e8 3f 67 ff ff       	callq  3eb8 <safe_add_func_uint32_t_u_u>
    d779:	0f b7 05 ac 58 00 00 	movzwl 0x58ac(%rip),%eax        # 1302c <g_72>
    d780:	66 85 c0             	test   %ax,%ax
    d783:	0f 9f c0             	setg   %al
    d786:	0f b6 c0             	movzbl %al,%eax
    d789:	89 c6                	mov    %eax,%esi
    d78b:	bf fe ff ff ff       	mov    $0xfffffffe,%edi
    d790:	e8 95 5d ff ff       	callq  352a <safe_rshift_func_int16_t_s_s>
    d795:	0f b7 15 90 58 00 00 	movzwl 0x5890(%rip),%edx        # 1302c <g_72>
    d79c:	66 39 d0             	cmp    %dx,%ax
    d79f:	0f 9e c0             	setle  %al
    d7a2:	0f b6 c0             	movzbl %al,%eax
    d7a5:	be 06 00 00 00       	mov    $0x6,%esi
    d7aa:	89 c7                	mov    %eax,%edi
    d7ac:	e8 0d 65 ff ff       	callq  3cbe <safe_rshift_func_uint8_t_u_u>
    d7b1:	84 c0                	test   %al,%al
    d7b3:	0f 94 c0             	sete   %al
    d7b6:	0f b6 c0             	movzbl %al,%eax
    d7b9:	be 0f 00 00 00       	mov    $0xf,%esi
    d7be:	89 c7                	mov    %eax,%edi
    d7c0:	e8 f9 65 ff ff       	callq  3dbe <safe_lshift_func_uint16_t_u_s>
    d7c5:	0f be c0             	movsbl %al,%eax
    d7c8:	44 89 e6             	mov    %r12d,%esi
    d7cb:	89 c7                	mov    %eax,%edi
    d7cd:	e8 9a 5b ff ff       	callq  336c <safe_rshift_func_int8_t_s_u>
    d7d2:	48 8d 85 18 e8 ff ff 	lea    -0x17e8(%rbp),%rax
    d7d9:	48 89 85 30 e9 ff ff 	mov    %rax,-0x16d0(%rbp)
    d7e0:	48 8d 85 00 f2 ff ff 	lea    -0xe00(%rbp),%rax
    d7e7:	48 05 5c 01 00 00    	add    $0x15c,%rax
    d7ed:	48 39 85 30 e9 ff ff 	cmp    %rax,-0x16d0(%rbp)
    d7f4:	0f 94 c0             	sete   %al
    d7f7:	44 0f b6 e0          	movzbl %al,%r12d
    d7fb:	8b 85 4c e8 ff ff    	mov    -0x17b4(%rbp),%eax
    d801:	48 63 d0             	movslq %eax,%rdx
    d804:	48 8b 8d 90 ea ff ff 	mov    -0x1570(%rbp),%rcx
    d80b:	48 8b 85 48 e9 ff ff 	mov    -0x16b8(%rbp),%rax
    d812:	48 8d 35 57 69 00 00 	lea    0x6957(%rip),%rsi        # 14170 <g_297>
    d819:	48 89 30             	mov    %rsi,(%rax)
    d81c:	48 8b 85 48 e9 ff ff 	mov    -0x16b8(%rbp),%rax
    d823:	48 8b 00             	mov    (%rax),%rax
    d826:	48 39 c1             	cmp    %rax,%rcx
    d829:	0f 94 c0             	sete   %al
    d82c:	0f b6 c0             	movzbl %al,%eax
    d82f:	48 89 d6             	mov    %rdx,%rsi
    d832:	48 89 c7             	mov    %rax,%rdi
    d835:	e8 6e 60 ff ff       	callq  38a8 <safe_sub_func_int64_t_s_s>
    d83a:	0f b7 c0             	movzwl %ax,%eax
    d83d:	44 89 e6             	mov    %r12d,%esi
    d840:	89 c7                	mov    %eax,%edi
    d842:	e8 77 65 ff ff       	callq  3dbe <safe_lshift_func_uint16_t_u_s>
    d847:	66 83 f8 09          	cmp    $0x9,%ax
    d84b:	0f 97 c0             	seta   %al
    d84e:	0f b6 c0             	movzbl %al,%eax
    d851:	89 de                	mov    %ebx,%esi
    d853:	89 c7                	mov    %eax,%edi
    d855:	e8 39 63 ff ff       	callq  3b93 <safe_mul_func_uint8_t_u_u>
    d85a:	84 c0                	test   %al,%al
    d85c:	0f 84 89 00 00 00    	je     d8eb <func_58+0x2a80>
    d862:	66 c7 85 08 e8 ff ff 	movw   $0xffff,-0x17f8(%rbp)
    d869:	ff ff 
    d86b:	66 c7 85 fc e7 ff ff 	movw   $0x0,-0x1804(%rbp)
    d872:	00 00 
    d874:	eb 66                	jmp    d8dc <func_58+0x2a71>
    d876:	c7 85 b8 e8 ff ff 06 	movl   $0x6,-0x1748(%rbp)
    d87d:	00 00 00 
    d880:	48 83 85 18 e9 ff ff 	addq   $0x1,-0x16e8(%rbp)
    d887:	01 
    d888:	48 8b 85 30 e9 ff ff 	mov    -0x16d0(%rbp),%rax
    d88f:	c7 00 00 00 00 00    	movl   $0x0,(%rax)
    d895:	0f bf 85 fc e7 ff ff 	movswl -0x1804(%rbp),%eax
    d89c:	0f bf 95 fc e7 ff ff 	movswl -0x1804(%rbp),%edx
    d8a3:	83 c2 01             	add    $0x1,%edx
    d8a6:	48 63 ca             	movslq %edx,%rcx
    d8a9:	48 63 d0             	movslq %eax,%rdx
    d8ac:	48 89 d0             	mov    %rdx,%rax
    d8af:	48 c1 e0 02          	shl    $0x2,%rax
    d8b3:	48 01 d0             	add    %rdx,%rax
    d8b6:	48 01 c0             	add    %rax,%rax
    d8b9:	48 01 c8             	add    %rcx,%rax
    d8bc:	8b 84 85 50 ee ff ff 	mov    -0x11b0(%rbp,%rax,4),%eax
    d8c3:	85 c0                	test   %eax,%eax
    d8c5:	0f 85 dd 07 00 00    	jne    e0a8 <func_58+0x323d>
    d8cb:	0f b7 85 fc e7 ff ff 	movzwl -0x1804(%rbp),%eax
    d8d2:	83 c0 01             	add    $0x1,%eax
    d8d5:	66 89 85 fc e7 ff ff 	mov    %ax,-0x1804(%rbp)
    d8dc:	66 83 bd fc e7 ff ff 	cmpw   $0x4,-0x1804(%rbp)
    d8e3:	04 
    d8e4:	7e 90                	jle    d876 <func_58+0x2a0b>
    d8e6:	e9 be 07 00 00       	jmpq   e0a9 <func_58+0x323e>
    d8eb:	48 8d 05 e6 57 00 00 	lea    0x57e6(%rip),%rax        # 130d8 <g_137>
    d8f2:	48 89 85 60 e9 ff ff 	mov    %rax,-0x16a0(%rbp)
    d8f9:	c7 85 00 e9 ff ff 08 	movl   $0xbf66b208,-0x1700(%rbp)
    d900:	b2 66 bf 
    d903:	c7 85 58 e8 ff ff 02 	movl   $0x2,-0x17a8(%rbp)
    d90a:	00 00 00 
    d90d:	c7 85 40 e8 ff ff 74 	movl   $0x5ddc5b74,-0x17c0(%rbp)
    d914:	5b dc 5d 
    d917:	c7 85 5c e8 ff ff 73 	movl   $0x668a2873,-0x17a4(%rbp)
    d91e:	28 8a 66 
    d921:	c7 85 60 e8 ff ff ff 	movl   $0xffffffff,-0x17a0(%rbp)
    d928:	ff ff ff 
    d92b:	c7 85 64 e8 ff ff ff 	movl   $0xffffffff,-0x179c(%rbp)
    d932:	ff ff ff 
    d935:	c7 85 68 e8 ff ff f5 	movl   $0x59c5cf5,-0x1798(%rbp)
    d93c:	5c 9c 05 
    d93f:	c7 85 6c e8 ff ff 7c 	movl   $0x15180c7c,-0x1794(%rbp)
    d946:	0c 18 15 
    d949:	c7 85 44 e8 ff ff 00 	movl   $0x0,-0x17bc(%rbp)
    d950:	00 00 00 
    d953:	eb 1b                	jmp    d970 <func_58+0x2b05>
    d955:	8b 85 44 e8 ff ff    	mov    -0x17bc(%rbp),%eax
    d95b:	48 98                	cltq   
    d95d:	48 c7 84 c5 d0 eb ff 	movq   $0x0,-0x1430(%rbp,%rax,8)
    d964:	ff 00 00 00 00 
    d969:	83 85 44 e8 ff ff 01 	addl   $0x1,-0x17bc(%rbp)
    d970:	83 bd 44 e8 ff ff 03 	cmpl   $0x3,-0x17bc(%rbp)
    d977:	7e dc                	jle    d955 <func_58+0x2aea>
    d979:	c7 85 44 e8 ff ff 00 	movl   $0x0,-0x17bc(%rbp)
    d980:	00 00 00 
    d983:	eb 1a                	jmp    d99f <func_58+0x2b34>
    d985:	8b 85 44 e8 ff ff    	mov    -0x17bc(%rbp),%eax
    d98b:	48 98                	cltq   
    d98d:	c7 84 85 f0 ea ff ff 	movl   $0x4,-0x1510(%rbp,%rax,4)
    d994:	04 00 00 00 
    d998:	83 85 44 e8 ff ff 01 	addl   $0x1,-0x17bc(%rbp)
    d99f:	83 bd 44 e8 ff ff 03 	cmpl   $0x3,-0x17bc(%rbp)
    d9a6:	7e dd                	jle    d985 <func_58+0x2b1a>
    d9a8:	be ff ff 00 00       	mov    $0xffff,%esi
    d9ad:	bf 01 00 00 00       	mov    $0x1,%edi
    d9b2:	e8 a5 63 ff ff       	callq  3d5c <safe_mod_func_uint16_t_u_u>
    d9b7:	0f be c0             	movsbl %al,%eax
    d9ba:	8b 95 ec e7 ff ff    	mov    -0x1814(%rbp),%edx
    d9c0:	89 d6                	mov    %edx,%esi
    d9c2:	89 c7                	mov    %eax,%edi
    d9c4:	e8 6c 59 ff ff       	callq  3335 <safe_rshift_func_int8_t_s_s>
    d9c9:	66 98                	cbtw   
    d9cb:	0f b7 d0             	movzwl %ax,%edx
    d9ce:	8b 05 0c 57 00 00    	mov    0x570c(%rip),%eax        # 130e0 <g_164>
    d9d4:	48 63 c8             	movslq %eax,%rcx
    d9d7:	0f b6 05 06 57 00 00 	movzbl 0x5706(%rip),%eax        # 130e4 <g_186>
    d9de:	48 0f be f0          	movsbq %al,%rsi
    d9e2:	48 8b 05 17 57 00 00 	mov    0x5717(%rip),%rax        # 13100 <g_360>
    d9e9:	48 21 f0             	and    %rsi,%rax
    d9ec:	48 89 05 0d 57 00 00 	mov    %rax,0x570d(%rip)        # 13100 <g_360>
    d9f3:	48 8b 85 60 e9 ff ff 	mov    -0x16a0(%rbp),%rax
    d9fa:	48 c7 00 00 00 00 00 	movq   $0x0,(%rax)
    da01:	48 8b 85 60 e9 ff ff 	mov    -0x16a0(%rbp),%rax
    da08:	48 8b 00             	mov    (%rax),%rax
    da0b:	48 39 c1             	cmp    %rax,%rcx
    da0e:	0f 9f c0             	setg   %al
    da11:	0f b6 c0             	movzbl %al,%eax
    da14:	89 d6                	mov    %edx,%esi
    da16:	89 c7                	mov    %eax,%edi
    da18:	e8 e2 62 ff ff       	callq  3cff <safe_add_func_uint16_t_u_u>
    da1d:	66 85 c0             	test   %ax,%ax
    da20:	0f 84 77 01 00 00    	je     db9d <func_58+0x2d32>
    da26:	c6 85 f9 e7 ff ff 05 	movb   $0x5,-0x1807(%rbp)
    da2d:	48 c7 85 80 f0 ff ff 	movq   $0x0,-0xf80(%rbp)
    da34:	00 00 00 00 
    da38:	48 c7 85 88 f0 ff ff 	movq   $0x0,-0xf78(%rbp)
    da3f:	00 00 00 00 
    da43:	48 c7 85 90 f0 ff ff 	movq   $0x0,-0xf70(%rbp)
    da4a:	00 00 00 00 
    da4e:	48 c7 85 98 f0 ff ff 	movq   $0x0,-0xf68(%rbp)
    da55:	00 00 00 00 
    da59:	c7 85 48 e8 ff ff 00 	movl   $0x0,-0x17b8(%rbp)
    da60:	00 00 00 
    da63:	eb 1e                	jmp    da83 <func_58+0x2c18>
    da65:	8b 85 48 e8 ff ff    	mov    -0x17b8(%rbp),%eax
    da6b:	48 98                	cltq   
    da6d:	48 8d 95 10 e8 ff ff 	lea    -0x17f0(%rbp),%rdx
    da74:	48 89 94 c5 40 f8 ff 	mov    %rdx,-0x7c0(%rbp,%rax,8)
    da7b:	ff 
    da7c:	83 85 48 e8 ff ff 01 	addl   $0x1,-0x17b8(%rbp)
    da83:	83 bd 48 e8 ff ff 07 	cmpl   $0x7,-0x17b8(%rbp)
    da8a:	7e d9                	jle    da65 <func_58+0x2bfa>
    da8c:	c7 85 34 e8 ff ff 00 	movl   $0x0,-0x17cc(%rbp)
    da93:	00 00 00 
    da96:	eb 10                	jmp    daa8 <func_58+0x2c3d>
    da98:	80 bd e8 e7 ff ff 00 	cmpb   $0x0,-0x1818(%rbp)
    da9f:	75 12                	jne    dab3 <func_58+0x2c48>
    daa1:	83 ad 34 e8 ff ff 01 	subl   $0x1,-0x17cc(%rbp)
    daa8:	83 bd 34 e8 ff ff 00 	cmpl   $0x0,-0x17cc(%rbp)
    daaf:	79 e7                	jns    da98 <func_58+0x2c2d>
    dab1:	eb 01                	jmp    dab4 <func_58+0x2c49>
    dab3:	90                   	nop
    dab4:	0f b7 85 e4 e7 ff ff 	movzwl -0x181c(%rbp),%eax
    dabb:	21 85 1c e8 ff ff    	and    %eax,-0x17e4(%rbp)
    dac1:	48 8d 85 00 e9 ff ff 	lea    -0x1700(%rbp),%rax
    dac8:	48 89 85 50 f8 ff ff 	mov    %rax,-0x7b0(%rbp)
    dacf:	48 8b 85 50 f8 ff ff 	mov    -0x7b0(%rbp),%rax
    dad6:	48 89 85 80 f0 ff ff 	mov    %rax,-0xf80(%rbp)
    dadd:	48 c7 85 08 e9 ff ff 	movq   $0x0,-0x16f8(%rbp)
    dae4:	00 00 00 00 
    dae8:	e9 9a 00 00 00       	jmpq   db87 <func_58+0x2d1c>
    daed:	66 c7 85 40 eb ff ff 	movw   $0xf437,-0x14c0(%rbp)
    daf4:	37 f4 
    daf6:	66 c7 85 42 eb ff ff 	movw   $0xf437,-0x14be(%rbp)
    dafd:	37 f4 
    daff:	66 c7 85 44 eb ff ff 	movw   $0xf437,-0x14bc(%rbp)
    db06:	37 f4 
    db08:	66 c7 85 46 eb ff ff 	movw   $0xf437,-0x14ba(%rbp)
    db0f:	37 f4 
    db11:	66 c7 85 48 eb ff ff 	movw   $0xf437,-0x14b8(%rbp)
    db18:	37 f4 
    db1a:	66 c7 85 4a eb ff ff 	movw   $0xf437,-0x14b6(%rbp)
    db21:	37 f4 
    db23:	66 c7 85 4c eb ff ff 	movw   $0xf437,-0x14b4(%rbp)
    db2a:	37 f4 
    db2c:	66 c7 85 4e eb ff ff 	movw   $0xf437,-0x14b2(%rbp)
    db33:	37 f4 
    db35:	66 c7 85 50 eb ff ff 	movw   $0xf437,-0x14b0(%rbp)
    db3c:	37 f4 
    db3e:	66 c7 85 52 eb ff ff 	movw   $0xf437,-0x14ae(%rbp)
    db45:	37 f4 
    db47:	48 8b 85 30 e9 ff ff 	mov    -0x16d0(%rbp),%rax
    db4e:	8b 10                	mov    (%rax),%edx
    db50:	8b 85 00 e9 ff ff    	mov    -0x1700(%rbp),%eax
    db56:	09 c2                	or     %eax,%edx
    db58:	48 8b 85 30 e9 ff ff 	mov    -0x16d0(%rbp),%rax
    db5f:	89 10                	mov    %edx,(%rax)
    db61:	83 ad 20 e8 ff ff 01 	subl   $0x1,-0x17e0(%rbp)
    db68:	48 8b 85 30 e9 ff ff 	mov    -0x16d0(%rbp),%rax
    db6f:	c7 00 00 00 00 00    	movl   $0x0,(%rax)
    db75:	48 8b 85 08 e9 ff ff 	mov    -0x16f8(%rbp),%rax
    db7c:	48 83 e8 01          	sub    $0x1,%rax
    db80:	48 89 85 08 e9 ff ff 	mov    %rax,-0x16f8(%rbp)
    db87:	48 8b 85 08 e9 ff ff 	mov    -0x16f8(%rbp),%rax
    db8e:	48 83 f8 fe          	cmp    $0xfffffffffffffffe,%rax
    db92:	0f 8d 55 ff ff ff    	jge    daed <func_58+0x2c82>
    db98:	e9 0c 05 00 00       	jmpq   e0a9 <func_58+0x323e>
    db9d:	66 c7 85 00 e8 ff ff 	movw   $0xc130,-0x1800(%rbp)
    dba4:	30 c1 
    dba6:	c7 85 70 e8 ff ff 44 	movl   $0x3258e444,-0x1790(%rbp)
    dbad:	e4 58 32 
    dbb0:	c7 85 74 e8 ff ff 07 	movl   $0x7,-0x178c(%rbp)
    dbb7:	00 00 00 
    dbba:	c7 85 78 e8 ff ff 01 	movl   $0x1,-0x1788(%rbp)
    dbc1:	00 00 00 
    dbc4:	c7 85 7c e8 ff ff a1 	movl   $0x4a013a1,-0x1784(%rbp)
    dbcb:	13 a0 04 
    dbce:	c7 85 80 e8 ff ff 18 	movl   $0xb23deb18,-0x1780(%rbp)
    dbd5:	eb 3d b2 
    dbd8:	c7 85 84 e8 ff ff 00 	movl   $0x91edee00,-0x177c(%rbp)
    dbdf:	ee ed 91 
    dbe2:	c7 85 88 e8 ff ff ff 	movl   $0xffffffff,-0x1778(%rbp)
    dbe9:	ff ff ff 
    dbec:	c7 85 8c e8 ff ff c1 	movl   $0x115ce5c1,-0x1774(%rbp)
    dbf3:	e5 5c 11 
    dbf6:	c7 85 90 e8 ff ff 13 	movl   $0x643bbd13,-0x1770(%rbp)
    dbfd:	bd 3b 64 
    dc00:	c7 85 94 e8 ff ff fb 	movl   $0xfffffffb,-0x176c(%rbp)
    dc07:	ff ff ff 
    dc0a:	c7 85 98 e8 ff ff ff 	movl   $0xffffffff,-0x1768(%rbp)
    dc11:	ff ff ff 
    dc14:	c7 85 9c e8 ff ff 01 	movl   $0x1,-0x1764(%rbp)
    dc1b:	00 00 00 
    dc1e:	48 c7 85 20 e9 ff ff 	movq   $0xfffffffffffffff7,-0x16e0(%rbp)
    dc25:	f7 ff ff ff 
    dc29:	48 8d 05 3d 55 00 00 	lea    0x553d(%rip),%rax        # 1316d <g_425+0x4d>
    dc30:	48 89 85 68 e9 ff ff 	mov    %rax,-0x1698(%rbp)
    dc37:	48 8d 05 a2 55 00 00 	lea    0x55a2(%rip),%rax        # 131e0 <g_426>
    dc3e:	48 89 85 70 e9 ff ff 	mov    %rax,-0x1690(%rbp)
    dc45:	48 8d 05 9a 54 00 00 	lea    0x549a(%rip),%rax        # 130e6 <g_238>
    dc4c:	48 89 85 78 e9 ff ff 	mov    %rax,-0x1688(%rbp)
    dc53:	66 c7 85 02 e8 ff ff 	movw   $0x374d,-0x17fe(%rbp)
    dc5a:	4d 37 
    dc5c:	8b 95 b4 ee ff ff    	mov    -0x114c(%rbp),%edx
    dc62:	48 8b 85 30 e9 ff ff 	mov    -0x16d0(%rbp),%rax
    dc69:	8b 00                	mov    (%rax),%eax
    dc6b:	09 d0                	or     %edx,%eax
    dc6d:	89 85 b4 ee ff ff    	mov    %eax,-0x114c(%rbp)
    dc73:	48 8b 05 06 65 00 00 	mov    0x6506(%rip),%rax        # 14180 <g_389>
    dc7a:	48 8d 15 07 64 00 00 	lea    0x6407(%rip),%rdx        # 14088 <g_128+0x8>
    dc81:	48 89 10             	mov    %rdx,(%rax)
    dc84:	c7 85 30 e8 ff ff 00 	movl   $0x0,-0x17d0(%rbp)
    dc8b:	00 00 00 
    dc8e:	e9 b2 02 00 00       	jmpq   df45 <func_58+0x30da>
    dc93:	c7 85 a0 e8 ff ff a7 	movl   $0x9c1852a7,-0x1760(%rbp)
    dc9a:	52 18 9c 
    dc9d:	c7 85 a4 e8 ff ff bb 	movl   $0x40703cbb,-0x175c(%rbp)
    dca4:	3c 70 40 
    dca7:	c7 85 a8 e8 ff ff 01 	movl   $0x1,-0x1758(%rbp)
    dcae:	00 00 00 
    dcb1:	c7 85 ac e8 ff ff fd 	movl   $0xfffffffd,-0x1754(%rbp)
    dcb8:	ff ff ff 
    dcbb:	c7 85 b0 e8 ff ff 00 	movl   $0x0,-0x1750(%rbp)
    dcc2:	00 00 00 
    dcc5:	c7 85 b4 e8 ff ff 00 	movl   $0x0,-0x174c(%rbp)
    dccc:	00 00 00 
    dccf:	48 8d 85 40 f8 ff ff 	lea    -0x7c0(%rbp),%rax
    dcd6:	48 8d 15 23 28 00 00 	lea    0x2823(%rip),%rdx        # 10500 <g_1116+0x14a8>
    dcdd:	b9 7e 00 00 00       	mov    $0x7e,%ecx
    dce2:	48 89 c7             	mov    %rax,%rdi
    dce5:	48 89 d6             	mov    %rdx,%rsi
    dce8:	f3 48 a5             	rep movsq %ds:(%rsi),%es:(%rdi)
    dceb:	66 c7 85 04 e8 ff ff 	movw   $0xc3eb,-0x17fc(%rbp)
    dcf2:	eb c3 
    dcf4:	48 8d 05 c5 6a 00 00 	lea    0x6ac5(%rip),%rax        # 147c0 <g_193>
    dcfb:	48 89 85 80 e9 ff ff 	mov    %rax,-0x1680(%rbp)
    dd02:	48 c7 85 80 f0 ff ff 	movq   $0x0,-0xf80(%rbp)
    dd09:	00 00 00 00 
    dd0d:	48 8d 85 08 e9 ff ff 	lea    -0x16f8(%rbp),%rax
    dd14:	48 89 85 88 f0 ff ff 	mov    %rax,-0xf78(%rbp)
    dd1b:	48 8d 85 08 e9 ff ff 	lea    -0x16f8(%rbp),%rax
    dd22:	48 89 85 90 f0 ff ff 	mov    %rax,-0xf70(%rbp)
    dd29:	48 c7 85 98 f0 ff ff 	movq   $0x0,-0xf68(%rbp)
    dd30:	00 00 00 00 
    dd34:	48 c7 85 a0 f0 ff ff 	movq   $0x0,-0xf60(%rbp)
    dd3b:	00 00 00 00 
    dd3f:	48 8d 85 08 e9 ff ff 	lea    -0x16f8(%rbp),%rax
    dd46:	48 89 85 a8 f0 ff ff 	mov    %rax,-0xf58(%rbp)
    dd4d:	48 8d 85 08 e9 ff ff 	lea    -0x16f8(%rbp),%rax
    dd54:	48 89 85 b0 f0 ff ff 	mov    %rax,-0xf50(%rbp)
    dd5b:	48 c7 85 b8 f0 ff ff 	movq   $0x0,-0xf48(%rbp)
    dd62:	00 00 00 00 
    dd66:	48 c7 85 c0 f0 ff ff 	movq   $0x0,-0xf40(%rbp)
    dd6d:	00 00 00 00 
    dd71:	48 8d 85 08 e9 ff ff 	lea    -0x16f8(%rbp),%rax
    dd78:	48 89 85 c8 f0 ff ff 	mov    %rax,-0xf38(%rbp)
    dd7f:	48 8d 85 08 e9 ff ff 	lea    -0x16f8(%rbp),%rax
    dd86:	48 89 85 d0 f0 ff ff 	mov    %rax,-0xf30(%rbp)
    dd8d:	48 c7 85 d8 f0 ff ff 	movq   $0x0,-0xf28(%rbp)
    dd94:	00 00 00 00 
    dd98:	48 c7 85 e0 f0 ff ff 	movq   $0x0,-0xf20(%rbp)
    dd9f:	00 00 00 00 
    dda3:	48 8d 85 08 e9 ff ff 	lea    -0x16f8(%rbp),%rax
    ddaa:	48 89 85 e8 f0 ff ff 	mov    %rax,-0xf18(%rbp)
    ddb1:	48 8d 85 08 e9 ff ff 	lea    -0x16f8(%rbp),%rax
    ddb8:	48 89 85 f0 f0 ff ff 	mov    %rax,-0xf10(%rbp)
    ddbf:	48 c7 85 f8 f0 ff ff 	movq   $0x0,-0xf08(%rbp)
    ddc6:	00 00 00 00 
    ddca:	48 c7 85 00 f1 ff ff 	movq   $0x0,-0xf00(%rbp)
    ddd1:	00 00 00 00 
    ddd5:	48 8d 85 08 e9 ff ff 	lea    -0x16f8(%rbp),%rax
    dddc:	48 89 85 08 f1 ff ff 	mov    %rax,-0xef8(%rbp)
    dde3:	48 8d 85 08 e9 ff ff 	lea    -0x16f8(%rbp),%rax
    ddea:	48 89 85 10 f1 ff ff 	mov    %rax,-0xef0(%rbp)
    ddf1:	48 c7 85 18 f1 ff ff 	movq   $0x0,-0xee8(%rbp)
    ddf8:	00 00 00 00 
    ddfc:	48 c7 85 20 f1 ff ff 	movq   $0x0,-0xee0(%rbp)
    de03:	00 00 00 00 
    de07:	48 8d 85 08 e9 ff ff 	lea    -0x16f8(%rbp),%rax
    de0e:	48 89 85 28 f1 ff ff 	mov    %rax,-0xed8(%rbp)
    de15:	48 8d 85 08 e9 ff ff 	lea    -0x16f8(%rbp),%rax
    de1c:	48 89 85 30 f1 ff ff 	mov    %rax,-0xed0(%rbp)
    de23:	48 c7 85 38 f1 ff ff 	movq   $0x0,-0xec8(%rbp)
    de2a:	00 00 00 00 
    de2e:	48 c7 85 40 f1 ff ff 	movq   $0x0,-0xec0(%rbp)
    de35:	00 00 00 00 
    de39:	48 8d 85 08 e9 ff ff 	lea    -0x16f8(%rbp),%rax
    de40:	48 89 85 48 f1 ff ff 	mov    %rax,-0xeb8(%rbp)
    de47:	48 8d 85 08 e9 ff ff 	lea    -0x16f8(%rbp),%rax
    de4e:	48 89 85 50 f1 ff ff 	mov    %rax,-0xeb0(%rbp)
    de55:	48 c7 85 58 f1 ff ff 	movq   $0x0,-0xea8(%rbp)
    de5c:	00 00 00 00 
    de60:	66 c7 85 06 e8 ff ff 	movw   $0x1,-0x17fa(%rbp)
    de67:	01 00 
    de69:	48 83 85 20 e9 ff ff 	addq   $0x1,-0x16e0(%rbp)
    de70:	01 
    de71:	48 8b 85 58 e9 ff ff 	mov    -0x16a8(%rbp),%rax
    de78:	48 3b 85 80 e9 ff ff 	cmp    -0x1680(%rbp),%rax
    de7f:	0f 95 c0             	setne  %al
    de82:	0f b6 c0             	movzbl %al,%eax
    de85:	0b 85 6c e8 ff ff    	or     -0x1794(%rbp),%eax
    de8b:	89 c3                	mov    %eax,%ebx
    de8d:	8b 05 31 52 00 00    	mov    0x5231(%rip),%eax        # 130c4 <g_98+0x4>
    de93:	39 85 ec e7 ff ff    	cmp    %eax,-0x1814(%rbp)
    de99:	0f 9c c0             	setl   %al
    de9c:	88 05 cb 52 00 00    	mov    %al,0x52cb(%rip)        # 1316d <g_425+0x4d>
    dea2:	0f b6 05 c4 52 00 00 	movzbl 0x52c4(%rip),%eax        # 1316d <g_425+0x4d>
    dea9:	66 98                	cbtw   
    deab:	66 89 05 2e 53 00 00 	mov    %ax,0x532e(%rip)        # 131e0 <g_426>
    deb2:	48 8d 85 f0 e8 ff ff 	lea    -0x1710(%rbp),%rax
    deb9:	48 39 85 58 e9 ff ff 	cmp    %rax,-0x16a8(%rbp)
    dec0:	0f 95 c0             	setne  %al
    dec3:	0f b6 d0             	movzbl %al,%edx
    dec6:	48 8b 85 30 e9 ff ff 	mov    -0x16d0(%rbp),%rax
    decd:	89 10                	mov    %edx,(%rax)
    decf:	48 8b 85 30 e9 ff ff 	mov    -0x16d0(%rbp),%rax
    ded6:	8b 00                	mov    (%rax),%eax
    ded8:	23 85 80 e8 ff ff    	and    -0x1780(%rbp),%eax
    dede:	89 85 50 e8 ff ff    	mov    %eax,-0x17b0(%rbp)
    dee4:	0f bf 85 06 e8 ff ff 	movswl -0x17fa(%rbp),%eax
    deeb:	be 09 00 00 00       	mov    $0x9,%esi
    def0:	89 c7                	mov    %eax,%edi
    def2:	e8 9b 55 ff ff       	callq  3492 <safe_lshift_func_int16_t_s_s>
    def7:	98                   	cwtl   
    def8:	31 d8                	xor    %ebx,%eax
    defa:	3d b5 70 00 00       	cmp    $0x70b5,%eax
    deff:	0f 94 c0             	sete   %al
    df02:	0f b6 c0             	movzbl %al,%eax
    df05:	89 85 b4 ee ff ff    	mov    %eax,-0x114c(%rbp)
    df0b:	8b 85 b4 ee ff ff    	mov    -0x114c(%rbp),%eax
    df11:	89 85 78 e8 ff ff    	mov    %eax,-0x1788(%rbp)
    df17:	48 8d 05 0c 51 00 00 	lea    0x510c(%rip),%rax        # 1302a <g_21>
    df1e:	0f b6 00             	movzbl (%rax),%eax
    df21:	0f b6 c0             	movzbl %al,%eax
    df24:	39 85 78 e8 ff ff    	cmp    %eax,-0x1788(%rbp)
    df2a:	0f 95 c0             	setne  %al
    df2d:	0f b6 c0             	movzbl %al,%eax
    df30:	21 85 40 e8 ff ff    	and    %eax,-0x17c0(%rbp)
    df36:	66 83 bd e4 e7 ff ff 	cmpw   $0x0,-0x181c(%rbp)
    df3d:	00 
    df3e:	83 ad 30 e8 ff ff 01 	subl   $0x1,-0x17d0(%rbp)
    df45:	83 bd 30 e8 ff ff eb 	cmpl   $0xffffffeb,-0x17d0(%rbp)
    df4c:	0f 8d 41 fd ff ff    	jge    dc93 <func_58+0x2e28>
    df52:	48 8b 05 17 62 00 00 	mov    0x6217(%rip),%rax        # 14170 <g_297>
    df59:	c7 00 08 00 00 00    	movl   $0x8,(%rax)
    df5f:	8b 9d 84 e8 ff ff    	mov    -0x177c(%rbp),%ebx
    df65:	0f b6 05 78 51 00 00 	movzbl 0x5178(%rip),%eax        # 130e4 <g_186>
    df6c:	44 0f be e0          	movsbl %al,%r12d
    df70:	8b 85 94 e8 ff ff    	mov    -0x176c(%rbp),%eax
    df76:	44 0f b7 e8          	movzwl %ax,%r13d
    df7a:	8b 85 60 e8 ff ff    	mov    -0x17a0(%rbp),%eax
    df80:	0f be d0             	movsbl %al,%edx
    df83:	48 8b 85 30 e9 ff ff 	mov    -0x16d0(%rbp),%rax
    df8a:	8b 8d ec e7 ff ff    	mov    -0x1814(%rbp),%ecx
    df90:	89 08                	mov    %ecx,(%rax)
    df92:	48 8b 85 30 e9 ff ff 	mov    -0x16d0(%rbp),%rax
    df99:	8b 00                	mov    (%rax),%eax
    df9b:	83 f8 01             	cmp    $0x1,%eax
    df9e:	0f 96 c0             	setbe  %al
    dfa1:	0f b6 c0             	movzbl %al,%eax
    dfa4:	89 c1                	mov    %eax,%ecx
    dfa6:	0f b6 85 f8 e7 ff ff 	movzbl -0x1808(%rbp),%eax
    dfad:	31 c8                	xor    %ecx,%eax
    dfaf:	88 85 f8 e7 ff ff    	mov    %al,-0x1808(%rbp)
    dfb5:	0f b6 85 f8 e7 ff ff 	movzbl -0x1808(%rbp),%eax
    dfbc:	83 f0 01             	xor    $0x1,%eax
    dfbf:	0f b6 c8             	movzbl %al,%ecx
    dfc2:	0f b7 85 e4 e7 ff ff 	movzwl -0x181c(%rbp),%eax
    dfc9:	09 c8                	or     %ecx,%eax
    dfcb:	85 c0                	test   %eax,%eax
    dfcd:	74 07                	je     dfd6 <func_58+0x316b>
    dfcf:	b9 01 00 00 00       	mov    $0x1,%ecx
    dfd4:	eb 05                	jmp    dfdb <func_58+0x3170>
    dfd6:	b9 00 00 00 00       	mov    $0x0,%ecx
    dfdb:	0f b7 85 e4 e7 ff ff 	movzwl -0x181c(%rbp),%eax
    dfe2:	39 c1                	cmp    %eax,%ecx
    dfe4:	0f 9d c0             	setge  %al
    dfe7:	22 85 e8 e7 ff ff    	and    -0x1818(%rbp),%al
    dfed:	0f be c0             	movsbl %al,%eax
    dff0:	89 d6                	mov    %edx,%esi
    dff2:	89 c7                	mov    %eax,%edi
    dff4:	e8 71 52 ff ff       	callq  326a <safe_div_func_int8_t_s_s>
    dff9:	0f b6 15 ef 50 00 00 	movzbl 0x50ef(%rip),%edx        # 130ef <g_276>
    e000:	31 d0                	xor    %edx,%eax
    e002:	66 98                	cbtw   
    e004:	0f b7 c0             	movzwl %ax,%eax
    e007:	44 89 ee             	mov    %r13d,%esi
    e00a:	89 c7                	mov    %eax,%edi
    e00c:	e8 4b 5d ff ff       	callq  3d5c <safe_mod_func_uint16_t_u_u>
    e011:	89 c2                	mov    %eax,%edx
    e013:	48 8b 85 68 e9 ff ff 	mov    -0x1698(%rbp),%rax
    e01a:	88 10                	mov    %dl,(%rax)
    e01c:	44 89 e6             	mov    %r12d,%esi
    e01f:	bf 00 00 00 00       	mov    $0x0,%edi
    e024:	e8 e9 51 ff ff       	callq  3212 <safe_mul_func_int8_t_s_s>
    e029:	66 0f be d0          	movsbw %al,%dx
    e02d:	48 8b 85 70 e9 ff ff 	mov    -0x1690(%rbp),%rax
    e034:	66 89 10             	mov    %dx,(%rax)
    e037:	48 8b 85 70 e9 ff ff 	mov    -0x1690(%rbp),%rax
    e03e:	0f b7 00             	movzwl (%rax),%eax
    e041:	0f b7 c0             	movzwl %ax,%eax
    e044:	89 de                	mov    %ebx,%esi
    e046:	89 c7                	mov    %eax,%edi
    e048:	e8 b9 5d ff ff       	callq  3e06 <safe_lshift_func_uint16_t_u_u>
    e04d:	f7 d0                	not    %eax
    e04f:	89 c2                	mov    %eax,%edx
    e051:	48 8b 85 78 e9 ff ff 	mov    -0x1688(%rbp),%rax
    e058:	66 89 10             	mov    %dx,(%rax)
    e05b:	48 8b 85 78 e9 ff ff 	mov    -0x1688(%rbp),%rax
    e062:	0f b7 00             	movzwl (%rax),%eax
    e065:	0f b7 d0             	movzwl %ax,%edx
    e068:	8b 85 ec e7 ff ff    	mov    -0x1814(%rbp),%eax
    e06e:	0f b7 c0             	movzwl %ax,%eax
    e071:	89 d6                	mov    %edx,%esi
    e073:	89 c7                	mov    %eax,%edi
    e075:	e8 85 5c ff ff       	callq  3cff <safe_add_func_uint16_t_u_u>
    e07a:	0f b7 c0             	movzwl %ax,%eax
    e07d:	39 85 ec e7 ff ff    	cmp    %eax,-0x1814(%rbp)
    e083:	0f 9c c0             	setl   %al
    e086:	0f b6 c0             	movzbl %al,%eax
    e089:	31 85 58 e8 ff ff    	xor    %eax,-0x17a8(%rbp)
    e08f:	81 bd 58 e8 ff ff cf 	cmpl   $0x4e6f79cf,-0x17a8(%rbp)
    e096:	79 6f 4e 
    e099:	0f 9f c0             	setg   %al
    e09c:	0f b6 c0             	movzbl %al,%eax
    e09f:	66 89 85 02 e8 ff ff 	mov    %ax,-0x17fe(%rbp)
    e0a6:	eb 01                	jmp    e0a9 <func_58+0x323e>
    e0a8:	90                   	nop
    e0a9:	0f b7 85 e4 e7 ff ff 	movzwl -0x181c(%rbp),%eax
    e0b0:	be 04 00 00 00       	mov    $0x4,%esi
    e0b5:	89 c7                	mov    %eax,%edi
    e0b7:	e8 43 5c ff ff       	callq  3cff <safe_add_func_uint16_t_u_u>
    e0bc:	66 89 85 e4 e7 ff ff 	mov    %ax,-0x181c(%rbp)
    e0c3:	66 83 bd e4 e7 ff ff 	cmpw   $0x11,-0x181c(%rbp)
    e0ca:	11 
    e0cb:	0f 86 c2 e9 ff ff    	jbe    ca93 <func_58+0x1c28>
    e0d1:	48 8d 05 52 4f 00 00 	lea    0x4f52(%rip),%rax        # 1302a <g_21>
    e0d8:	0f b6 00             	movzbl (%rax),%eax
    e0db:	48 8b 5d c8          	mov    -0x38(%rbp),%rbx
    e0df:	64 48 33 1c 25 28 00 	xor    %fs:0x28,%rbx
    e0e6:	00 00 
    e0e8:	74 05                	je     e0ef <func_58+0x3284>
    e0ea:	e8 81 4f ff ff       	callq  3070 <__stack_chk_fail@plt>
    e0ef:	48 81 c4 f8 17 00 00 	add    $0x17f8,%rsp
    e0f6:	5b                   	pop    %rbx
    e0f7:	41 5c                	pop    %r12
    e0f9:	41 5d                	pop    %r13
    e0fb:	41 5e                	pop    %r14
    e0fd:	41 5f                	pop    %r15
    e0ff:	5d                   	pop    %rbp
    e100:	c3                   	retq   

000000000000e101 <func_64>:
    e101:	f3 0f 1e fa          	endbr64 
    e105:	55                   	push   %rbp
    e106:	48 89 e5             	mov    %rsp,%rbp
    e109:	53                   	push   %rbx
    e10a:	48 81 ec c8 00 00 00 	sub    $0xc8,%rsp
    e111:	48 89 bd 48 ff ff ff 	mov    %rdi,-0xb8(%rbp)
    e118:	89 f0                	mov    %esi,%eax
    e11a:	48 89 95 38 ff ff ff 	mov    %rdx,-0xc8(%rbp)
    e121:	89 ca                	mov    %ecx,%edx
    e123:	66 89 85 44 ff ff ff 	mov    %ax,-0xbc(%rbp)
    e12a:	89 d0                	mov    %edx,%eax
    e12c:	88 85 40 ff ff ff    	mov    %al,-0xc0(%rbp)
    e132:	64 48 8b 04 25 28 00 	mov    %fs:0x28,%rax
    e139:	00 00 
    e13b:	48 89 45 e8          	mov    %rax,-0x18(%rbp)
    e13f:	31 c0                	xor    %eax,%eax
    e141:	48 8d 05 70 66 00 00 	lea    0x6670(%rip),%rax        # 147b8 <g_75>
    e148:	48 89 85 68 ff ff ff 	mov    %rax,-0x98(%rbp)
    e14f:	48 8d 85 68 ff ff ff 	lea    -0x98(%rbp),%rax
    e156:	48 89 85 78 ff ff ff 	mov    %rax,-0x88(%rbp)
    e15d:	48 8d 05 c8 4e 00 00 	lea    0x4ec8(%rip),%rax        # 1302c <g_72>
    e164:	48 89 45 80          	mov    %rax,-0x80(%rbp)
    e168:	c7 85 64 ff ff ff 08 	movl   $0xdd1eb108,-0x9c(%rbp)
    e16f:	b1 1e dd 
    e172:	c6 85 5b ff ff ff df 	movb   $0xdf,-0xa5(%rbp)
    e179:	c7 85 5c ff ff ff 00 	movl   $0x0,-0xa4(%rbp)
    e180:	00 00 00 
    e183:	eb 17                	jmp    e19c <func_64+0x9b>
    e185:	8b 85 5c ff ff ff    	mov    -0xa4(%rbp),%eax
    e18b:	48 98                	cltq   
    e18d:	c7 44 85 c0 ff ff ff 	movl   $0xffffffff,-0x40(%rbp,%rax,4)
    e194:	ff 
    e195:	83 85 5c ff ff ff 01 	addl   $0x1,-0xa4(%rbp)
    e19c:	83 bd 5c ff ff ff 09 	cmpl   $0x9,-0xa4(%rbp)
    e1a3:	7e e0                	jle    e185 <func_64+0x84>
    e1a5:	48 8b 95 68 ff ff ff 	mov    -0x98(%rbp),%rdx
    e1ac:	48 8b 85 78 ff ff ff 	mov    -0x88(%rbp),%rax
    e1b3:	48 89 10             	mov    %rdx,(%rax)
    e1b6:	66 c7 05 6d 4e 00 00 	movw   $0x0,0x4e6d(%rip)        # 1302c <g_72>
    e1bd:	00 00 
    e1bf:	e9 3a 01 00 00       	jmpq   e2fe <func_64+0x1fd>
    e1c4:	48 8d 05 ed 65 00 00 	lea    0x65ed(%rip),%rax        # 147b8 <g_75>
    e1cb:	48 89 85 70 ff ff ff 	mov    %rax,-0x90(%rbp)
    e1d2:	48 c7 45 88 00 00 00 	movq   $0x0,-0x78(%rbp)
    e1d9:	00 
    e1da:	48 8d 05 4d 4e 00 00 	lea    0x4e4d(%rip),%rax        # 1302e <g_89>
    e1e1:	48 89 45 90          	mov    %rax,-0x70(%rbp)
    e1e5:	48 8d 05 cc 65 00 00 	lea    0x65cc(%rip),%rax        # 147b8 <g_75>
    e1ec:	48 89 45 98          	mov    %rax,-0x68(%rbp)
    e1f0:	48 8d 05 c1 65 00 00 	lea    0x65c1(%rip),%rax        # 147b8 <g_75>
    e1f7:	48 89 45 a0          	mov    %rax,-0x60(%rbp)
    e1fb:	c7 85 60 ff ff ff 00 	movl   $0x0,-0xa0(%rbp)
    e202:	00 00 00 
    e205:	eb 1b                	jmp    e222 <func_64+0x121>
    e207:	8b 85 60 ff ff ff    	mov    -0xa0(%rbp),%eax
    e20d:	48 98                	cltq   
    e20f:	48 8d 15 a2 65 00 00 	lea    0x65a2(%rip),%rdx        # 147b8 <g_75>
    e216:	48 89 54 c5 a8       	mov    %rdx,-0x58(%rbp,%rax,8)
    e21b:	83 85 60 ff ff ff 01 	addl   $0x1,-0xa0(%rbp)
    e222:	83 bd 60 ff ff ff 00 	cmpl   $0x0,-0xa0(%rbp)
    e229:	7e dc                	jle    e207 <func_64+0x106>
    e22b:	c7 85 60 ff ff ff 00 	movl   $0x0,-0xa0(%rbp)
    e232:	00 00 00 
    e235:	eb 18                	jmp    e24f <func_64+0x14e>
    e237:	8b 85 60 ff ff ff    	mov    -0xa0(%rbp),%eax
    e23d:	48 98                	cltq   
    e23f:	48 c7 44 c5 b0 02 00 	movq   $0x2,-0x50(%rbp,%rax,8)
    e246:	00 00 
    e248:	83 85 60 ff ff ff 01 	addl   $0x1,-0xa0(%rbp)
    e24f:	83 bd 60 ff ff ff 01 	cmpl   $0x1,-0xa0(%rbp)
    e256:	7e df                	jle    e237 <func_64+0x136>
    e258:	48 8b 95 70 ff ff ff 	mov    -0x90(%rbp),%rdx
    e25f:	48 8b 85 78 ff ff ff 	mov    -0x88(%rbp),%rax
    e266:	48 89 10             	mov    %rdx,(%rax)
    e269:	48 8b 85 78 ff ff ff 	mov    -0x88(%rbp),%rax
    e270:	48 8b 00             	mov    (%rax),%rax
    e273:	8b 00                	mov    (%rax),%eax
    e275:	0f b6 d8             	movzbl %al,%ebx
    e278:	be 00 00 00 00       	mov    $0x0,%esi
    e27d:	bf 01 00 00 00       	mov    $0x1,%edi
    e282:	e8 49 5c ff ff       	callq  3ed0 <safe_sub_func_uint32_t_u_u>
    e287:	0f b6 c0             	movzbl %al,%eax
    e28a:	89 de                	mov    %ebx,%esi
    e28c:	89 c7                	mov    %eax,%edi
    e28e:	e8 00 59 ff ff       	callq  3b93 <safe_mul_func_uint8_t_u_u>
    e293:	be f7 ff ff ff       	mov    $0xfffffff7,%esi
    e298:	bf 11 00 00 00       	mov    $0x11,%edi
    e29d:	e8 93 50 ff ff       	callq  3335 <safe_rshift_func_int8_t_s_s>
    e2a2:	84 c0                	test   %al,%al
    e2a4:	74 12                	je     e2b8 <func_64+0x1b7>
    e2a6:	0f b6 05 7d 4d 00 00 	movzbl 0x4d7d(%rip),%eax        # 1302a <g_21>
    e2ad:	84 c0                	test   %al,%al
    e2af:	74 07                	je     e2b8 <func_64+0x1b7>
    e2b1:	b8 01 00 00 00       	mov    $0x1,%eax
    e2b6:	eb 05                	jmp    e2bd <func_64+0x1bc>
    e2b8:	b8 00 00 00 00       	mov    $0x0,%eax
    e2bd:	89 c2                	mov    %eax,%edx
    e2bf:	48 8b 45 90          	mov    -0x70(%rbp),%rax
    e2c3:	66 89 10             	mov    %dx,(%rax)
    e2c6:	48 8b 85 70 ff ff ff 	mov    -0x90(%rbp),%rax
    e2cd:	c7 00 01 00 00 00    	movl   $0x1,(%rax)
    e2d3:	0f b6 85 5b ff ff ff 	movzbl -0xa5(%rbp),%eax
    e2da:	83 e8 01             	sub    $0x1,%eax
    e2dd:	88 85 5b ff ff ff    	mov    %al,-0xa5(%rbp)
    e2e3:	0f b7 05 42 4d 00 00 	movzwl 0x4d42(%rip),%eax        # 1302c <g_72>
    e2ea:	98                   	cwtl   
    e2eb:	be 04 00 00 00       	mov    $0x4,%esi
    e2f0:	89 c7                	mov    %eax,%edi
    e2f2:	e8 bf 52 ff ff       	callq  35b6 <safe_add_func_int32_t_s_s>
    e2f7:	66 89 05 2e 4d 00 00 	mov    %ax,0x4d2e(%rip)        # 1302c <g_72>
    e2fe:	0f b7 05 27 4d 00 00 	movzwl 0x4d27(%rip),%eax        # 1302c <g_72>
    e305:	66 83 f8 18          	cmp    $0x18,%ax
    e309:	0f 8f b5 fe ff ff    	jg     e1c4 <func_64+0xc3>
    e30f:	48 8b 85 68 ff ff ff 	mov    -0x98(%rbp),%rax
    e316:	8b 00                	mov    (%rax),%eax
    e318:	48 8b 4d e8          	mov    -0x18(%rbp),%rcx
    e31c:	64 48 33 0c 25 28 00 	xor    %fs:0x28,%rcx
    e323:	00 00 
    e325:	74 05                	je     e32c <func_64+0x22b>
    e327:	e8 44 4d ff ff       	callq  3070 <__stack_chk_fail@plt>
    e32c:	48 81 c4 c8 00 00 00 	add    $0xc8,%rsp
    e333:	5b                   	pop    %rbx
    e334:	5d                   	pop    %rbp
    e335:	c3                   	retq   

000000000000e336 <main>:
    e336:	f3 0f 1e fa          	endbr64 
    e33a:	55                   	push   %rbp
    e33b:	48 89 e5             	mov    %rsp,%rbp
    e33e:	48 83 ec 20          	sub    $0x20,%rsp
    e342:	89 7d ec             	mov    %edi,-0x14(%rbp)
    e345:	48 89 75 e0          	mov    %rsi,-0x20(%rbp)
    e349:	c7 45 fc 00 00 00 00 	movl   $0x0,-0x4(%rbp)
    e350:	83 7d ec 02          	cmpl   $0x2,-0x14(%rbp)
    e354:	75 25                	jne    e37b <main+0x45>
    e356:	48 8b 45 e0          	mov    -0x20(%rbp),%rax
    e35a:	48 83 c0 08          	add    $0x8,%rax
    e35e:	48 8b 00             	mov    (%rax),%rax
    e361:	48 8d 35 88 25 00 00 	lea    0x2588(%rip),%rsi        # 108f0 <g_1116+0x1898>
    e368:	48 89 c7             	mov    %rax,%rdi
    e36b:	e8 20 4d ff ff       	callq  3090 <strcmp@plt>
    e370:	85 c0                	test   %eax,%eax
    e372:	75 07                	jne    e37b <main+0x45>
    e374:	c7 45 fc 01 00 00 00 	movl   $0x1,-0x4(%rbp)
    e37b:	e8 09 4e ff ff       	callq  3189 <platform_main_begin>
    e380:	e8 13 62 ff ff       	callq  4598 <crc32_gentab>
    e385:	e8 2b 64 ff ff       	callq  47b5 <func_1>
    e38a:	0f b7 05 93 4c 00 00 	movzwl 0x4c93(%rip),%eax        # 13024 <g_11>
    e391:	48 0f bf c0          	movswq %ax,%rax
    e395:	8b 55 fc             	mov    -0x4(%rbp),%edx
    e398:	48 8d 35 53 25 00 00 	lea    0x2553(%rip),%rsi        # 108f2 <g_1116+0x189a>
    e39f:	48 89 c7             	mov    %rax,%rdi
    e3a2:	e8 4c 63 ff ff       	callq  46f3 <transparent_crc>
    e3a7:	0f b6 05 78 4c 00 00 	movzbl 0x4c78(%rip),%eax        # 13026 <g_13>
    e3ae:	0f b6 c0             	movzbl %al,%eax
    e3b1:	8b 55 fc             	mov    -0x4(%rbp),%edx
    e3b4:	48 8d 35 3c 25 00 00 	lea    0x253c(%rip),%rsi        # 108f7 <g_1116+0x189f>
    e3bb:	48 89 c7             	mov    %rax,%rdi
    e3be:	e8 30 63 ff ff       	callq  46f3 <transparent_crc>
    e3c3:	0f b7 05 5e 4c 00 00 	movzwl 0x4c5e(%rip),%eax        # 13028 <g_14>
    e3ca:	0f b7 c0             	movzwl %ax,%eax
    e3cd:	8b 55 fc             	mov    -0x4(%rbp),%edx
    e3d0:	48 8d 35 25 25 00 00 	lea    0x2525(%rip),%rsi        # 108fc <g_1116+0x18a4>
    e3d7:	48 89 c7             	mov    %rax,%rdi
    e3da:	e8 14 63 ff ff       	callq  46f3 <transparent_crc>
    e3df:	0f b6 05 44 4c 00 00 	movzbl 0x4c44(%rip),%eax        # 1302a <g_21>
    e3e6:	0f b6 c0             	movzbl %al,%eax
    e3e9:	8b 55 fc             	mov    -0x4(%rbp),%edx
    e3ec:	48 8d 35 0e 25 00 00 	lea    0x250e(%rip),%rsi        # 10901 <g_1116+0x18a9>
    e3f3:	48 89 c7             	mov    %rax,%rdi
    e3f6:	e8 f8 62 ff ff       	callq  46f3 <transparent_crc>
    e3fb:	0f b7 05 2a 4c 00 00 	movzwl 0x4c2a(%rip),%eax        # 1302c <g_72>
    e402:	48 0f bf c0          	movswq %ax,%rax
    e406:	8b 55 fc             	mov    -0x4(%rbp),%edx
    e409:	48 8d 35 f6 24 00 00 	lea    0x24f6(%rip),%rsi        # 10906 <g_1116+0x18ae>
    e410:	48 89 c7             	mov    %rax,%rdi
    e413:	e8 db 62 ff ff       	callq  46f3 <transparent_crc>
    e418:	8b 05 9a 63 00 00    	mov    0x639a(%rip),%eax        # 147b8 <g_75>
    e41e:	48 98                	cltq   
    e420:	8b 55 fc             	mov    -0x4(%rbp),%edx
    e423:	48 8d 35 e1 24 00 00 	lea    0x24e1(%rip),%rsi        # 1090b <g_1116+0x18b3>
    e42a:	48 89 c7             	mov    %rax,%rdi
    e42d:	e8 c1 62 ff ff       	callq  46f3 <transparent_crc>
    e432:	0f b7 05 f5 4b 00 00 	movzwl 0x4bf5(%rip),%eax        # 1302e <g_89>
    e439:	48 0f bf c0          	movswq %ax,%rax
    e43d:	8b 55 fc             	mov    -0x4(%rbp),%edx
    e440:	48 8d 35 c9 24 00 00 	lea    0x24c9(%rip),%rsi        # 10910 <g_1116+0x18b8>
    e447:	48 89 c7             	mov    %rax,%rdi
    e44a:	e8 a4 62 ff ff       	callq  46f3 <transparent_crc>
    e44f:	c7 45 f0 00 00 00 00 	movl   $0x0,-0x10(%rbp)
    e456:	eb 74                	jmp    e4cc <main+0x196>
    e458:	c7 45 f4 00 00 00 00 	movl   $0x0,-0xc(%rbp)
    e45f:	eb 61                	jmp    e4c2 <main+0x18c>
    e461:	8b 45 f4             	mov    -0xc(%rbp),%eax
    e464:	48 63 c8             	movslq %eax,%rcx
    e467:	8b 45 f0             	mov    -0x10(%rbp),%eax
    e46a:	48 63 d0             	movslq %eax,%rdx
    e46d:	48 89 d0             	mov    %rdx,%rax
    e470:	48 c1 e0 02          	shl    $0x2,%rax
    e474:	48 01 d0             	add    %rdx,%rax
    e477:	48 01 c8             	add    %rcx,%rax
    e47a:	48 8d 14 00          	lea    (%rax,%rax,1),%rdx
    e47e:	48 8d 05 bb 4b 00 00 	lea    0x4bbb(%rip),%rax        # 13040 <g_93>
    e485:	0f b7 04 02          	movzwl (%rdx,%rax,1),%eax
    e489:	48 0f bf c0          	movswq %ax,%rax
    e48d:	8b 55 fc             	mov    -0x4(%rbp),%edx
    e490:	48 8d 35 7e 24 00 00 	lea    0x247e(%rip),%rsi        # 10915 <g_1116+0x18bd>
    e497:	48 89 c7             	mov    %rax,%rdi
    e49a:	e8 54 62 ff ff       	callq  46f3 <transparent_crc>
    e49f:	83 7d fc 00          	cmpl   $0x0,-0x4(%rbp)
    e4a3:	74 19                	je     e4be <main+0x188>
    e4a5:	8b 55 f4             	mov    -0xc(%rbp),%edx
    e4a8:	8b 45 f0             	mov    -0x10(%rbp),%eax
    e4ab:	89 c6                	mov    %eax,%esi
    e4ad:	48 8d 3d 6c 24 00 00 	lea    0x246c(%rip),%rdi        # 10920 <g_1116+0x18c8>
    e4b4:	b8 00 00 00 00       	mov    $0x0,%eax
    e4b9:	e8 c2 4b ff ff       	callq  3080 <printf@plt>
    e4be:	83 45 f4 01          	addl   $0x1,-0xc(%rbp)
    e4c2:	83 7d f4 04          	cmpl   $0x4,-0xc(%rbp)
    e4c6:	7e 99                	jle    e461 <main+0x12b>
    e4c8:	83 45 f0 01          	addl   $0x1,-0x10(%rbp)
    e4cc:	83 7d f0 09          	cmpl   $0x9,-0x10(%rbp)
    e4d0:	7e 86                	jle    e458 <main+0x122>
    e4d2:	48 8b 05 cf 4b 00 00 	mov    0x4bcf(%rip),%rax        # 130a8 <g_95>
    e4d9:	48 89 c1             	mov    %rax,%rcx
    e4dc:	8b 45 fc             	mov    -0x4(%rbp),%eax
    e4df:	89 c2                	mov    %eax,%edx
    e4e1:	48 8d 35 4a 24 00 00 	lea    0x244a(%rip),%rsi        # 10932 <g_1116+0x18da>
    e4e8:	48 89 cf             	mov    %rcx,%rdi
    e4eb:	e8 03 62 ff ff       	callq  46f3 <transparent_crc>
    e4f0:	0f b6 05 b9 4b 00 00 	movzbl 0x4bb9(%rip),%eax        # 130b0 <g_97>
    e4f7:	48 0f be c0          	movsbq %al,%rax
    e4fb:	8b 55 fc             	mov    -0x4(%rbp),%edx
    e4fe:	48 8d 35 32 24 00 00 	lea    0x2432(%rip),%rsi        # 10937 <g_1116+0x18df>
    e505:	48 89 c7             	mov    %rax,%rdi
    e508:	e8 e6 61 ff ff       	callq  46f3 <transparent_crc>
    e50d:	c7 45 f0 00 00 00 00 	movl   $0x0,-0x10(%rbp)
    e514:	eb 4b                	jmp    e561 <main+0x22b>
    e516:	8b 45 f0             	mov    -0x10(%rbp),%eax
    e519:	48 98                	cltq   
    e51b:	48 8d 14 85 00 00 00 	lea    0x0(,%rax,4),%rdx
    e522:	00 
    e523:	48 8d 05 96 4b 00 00 	lea    0x4b96(%rip),%rax        # 130c0 <g_98>
    e52a:	8b 04 02             	mov    (%rdx,%rax,1),%eax
    e52d:	48 98                	cltq   
    e52f:	8b 55 fc             	mov    -0x4(%rbp),%edx
    e532:	48 8d 35 03 24 00 00 	lea    0x2403(%rip),%rsi        # 1093c <g_1116+0x18e4>
    e539:	48 89 c7             	mov    %rax,%rdi
    e53c:	e8 b2 61 ff ff       	callq  46f3 <transparent_crc>
    e541:	83 7d fc 00          	cmpl   $0x0,-0x4(%rbp)
    e545:	74 16                	je     e55d <main+0x227>
    e547:	8b 45 f0             	mov    -0x10(%rbp),%eax
    e54a:	89 c6                	mov    %eax,%esi
    e54c:	48 8d 3d f1 23 00 00 	lea    0x23f1(%rip),%rdi        # 10944 <g_1116+0x18ec>
    e553:	b8 00 00 00 00       	mov    $0x0,%eax
    e558:	e8 23 4b ff ff       	callq  3080 <printf@plt>
    e55d:	83 45 f0 01          	addl   $0x1,-0x10(%rbp)
    e561:	83 7d f0 04          	cmpl   $0x4,-0x10(%rbp)
    e565:	7e af                	jle    e516 <main+0x1e0>
    e567:	48 8b 05 6a 4b 00 00 	mov    0x4b6a(%rip),%rax        # 130d8 <g_137>
    e56e:	48 89 c1             	mov    %rax,%rcx
    e571:	8b 45 fc             	mov    -0x4(%rbp),%eax
    e574:	89 c2                	mov    %eax,%edx
    e576:	48 8d 35 d5 23 00 00 	lea    0x23d5(%rip),%rsi        # 10952 <g_1116+0x18fa>
    e57d:	48 89 cf             	mov    %rcx,%rdi
    e580:	e8 6e 61 ff ff       	callq  46f3 <transparent_crc>
    e585:	8b 05 55 4b 00 00    	mov    0x4b55(%rip),%eax        # 130e0 <g_164>
    e58b:	48 98                	cltq   
    e58d:	8b 55 fc             	mov    -0x4(%rbp),%edx
    e590:	48 8d 35 c1 23 00 00 	lea    0x23c1(%rip),%rsi        # 10958 <g_1116+0x1900>
    e597:	48 89 c7             	mov    %rax,%rdi
    e59a:	e8 54 61 ff ff       	callq  46f3 <transparent_crc>
    e59f:	0f b6 05 3e 4b 00 00 	movzbl 0x4b3e(%rip),%eax        # 130e4 <g_186>
    e5a6:	48 0f be c0          	movsbq %al,%rax
    e5aa:	8b 55 fc             	mov    -0x4(%rbp),%edx
    e5ad:	48 8d 35 aa 23 00 00 	lea    0x23aa(%rip),%rsi        # 1095e <g_1116+0x1906>
    e5b4:	48 89 c7             	mov    %rax,%rdi
    e5b7:	e8 37 61 ff ff       	callq  46f3 <transparent_crc>
    e5bc:	0f b7 05 23 4b 00 00 	movzwl 0x4b23(%rip),%eax        # 130e6 <g_238>
    e5c3:	0f b7 c0             	movzwl %ax,%eax
    e5c6:	8b 55 fc             	mov    -0x4(%rbp),%edx
    e5c9:	48 8d 35 94 23 00 00 	lea    0x2394(%rip),%rsi        # 10964 <g_1116+0x190c>
    e5d0:	48 89 c7             	mov    %rax,%rdi
    e5d3:	e8 1b 61 ff ff       	callq  46f3 <transparent_crc>
    e5d8:	c7 45 f0 00 00 00 00 	movl   $0x0,-0x10(%rbp)
    e5df:	eb 45                	jmp    e626 <main+0x2f0>
    e5e1:	8b 45 f0             	mov    -0x10(%rbp),%eax
    e5e4:	48 98                	cltq   
    e5e6:	48 8d 15 fb 4a 00 00 	lea    0x4afb(%rip),%rdx        # 130e8 <g_258>
    e5ed:	0f b6 04 10          	movzbl (%rax,%rdx,1),%eax
    e5f1:	0f b6 c0             	movzbl %al,%eax
    e5f4:	8b 55 fc             	mov    -0x4(%rbp),%edx
    e5f7:	48 8d 35 6c 23 00 00 	lea    0x236c(%rip),%rsi        # 1096a <g_1116+0x1912>
    e5fe:	48 89 c7             	mov    %rax,%rdi
    e601:	e8 ed 60 ff ff       	callq  46f3 <transparent_crc>
    e606:	83 7d fc 00          	cmpl   $0x0,-0x4(%rbp)
    e60a:	74 16                	je     e622 <main+0x2ec>
    e60c:	8b 45 f0             	mov    -0x10(%rbp),%eax
    e60f:	89 c6                	mov    %eax,%esi
    e611:	48 8d 3d 2c 23 00 00 	lea    0x232c(%rip),%rdi        # 10944 <g_1116+0x18ec>
    e618:	b8 00 00 00 00       	mov    $0x0,%eax
    e61d:	e8 5e 4a ff ff       	callq  3080 <printf@plt>
    e622:	83 45 f0 01          	addl   $0x1,-0x10(%rbp)
    e626:	83 7d f0 06          	cmpl   $0x6,-0x10(%rbp)
    e62a:	7e b5                	jle    e5e1 <main+0x2ab>
    e62c:	0f b6 05 bc 4a 00 00 	movzbl 0x4abc(%rip),%eax        # 130ef <g_276>
    e633:	48 0f be c0          	movsbq %al,%rax
    e637:	8b 55 fc             	mov    -0x4(%rbp),%edx
    e63a:	48 8d 35 32 23 00 00 	lea    0x2332(%rip),%rsi        # 10973 <g_1116+0x191b>
    e641:	48 89 c7             	mov    %rax,%rdi
    e644:	e8 aa 60 ff ff       	callq  46f3 <transparent_crc>
    e649:	0f b6 05 a0 4a 00 00 	movzbl 0x4aa0(%rip),%eax        # 130f0 <g_280>
    e650:	48 0f be c0          	movsbq %al,%rax
    e654:	8b 55 fc             	mov    -0x4(%rbp),%edx
    e657:	48 8d 35 1b 23 00 00 	lea    0x231b(%rip),%rsi        # 10979 <g_1116+0x1921>
    e65e:	48 89 c7             	mov    %rax,%rdi
    e661:	e8 8d 60 ff ff       	callq  46f3 <transparent_crc>
    e666:	48 8b 05 8b 4a 00 00 	mov    0x4a8b(%rip),%rax        # 130f8 <g_303>
    e66d:	8b 55 fc             	mov    -0x4(%rbp),%edx
    e670:	48 8d 35 08 23 00 00 	lea    0x2308(%rip),%rsi        # 1097f <g_1116+0x1927>
    e677:	48 89 c7             	mov    %rax,%rdi
    e67a:	e8 74 60 ff ff       	callq  46f3 <transparent_crc>
    e67f:	48 8b 05 7a 4a 00 00 	mov    0x4a7a(%rip),%rax        # 13100 <g_360>
    e686:	8b 55 fc             	mov    -0x4(%rbp),%edx
    e689:	48 8d 35 f5 22 00 00 	lea    0x22f5(%rip),%rsi        # 10985 <g_1116+0x192d>
    e690:	48 89 c7             	mov    %rax,%rdi
    e693:	e8 5b 60 ff ff       	callq  46f3 <transparent_crc>
    e698:	c7 45 f0 00 00 00 00 	movl   $0x0,-0x10(%rbp)
    e69f:	e9 9c 00 00 00       	jmpq   e740 <main+0x40a>
    e6a4:	c7 45 f4 00 00 00 00 	movl   $0x0,-0xc(%rbp)
    e6ab:	e9 82 00 00 00       	jmpq   e732 <main+0x3fc>
    e6b0:	c7 45 f8 00 00 00 00 	movl   $0x0,-0x8(%rbp)
    e6b7:	eb 6f                	jmp    e728 <main+0x3f2>
    e6b9:	8b 45 f8             	mov    -0x8(%rbp),%eax
    e6bc:	48 63 c8             	movslq %eax,%rcx
    e6bf:	8b 45 f0             	mov    -0x10(%rbp),%eax
    e6c2:	48 63 d0             	movslq %eax,%rdx
    e6c5:	8b 45 f4             	mov    -0xc(%rbp),%eax
    e6c8:	48 63 f0             	movslq %eax,%rsi
    e6cb:	48 89 d0             	mov    %rdx,%rax
    e6ce:	48 01 c0             	add    %rax,%rax
    e6d1:	48 01 d0             	add    %rdx,%rax
    e6d4:	48 01 f0             	add    %rsi,%rax
    e6d7:	48 c1 e0 03          	shl    $0x3,%rax
    e6db:	48 8d 14 08          	lea    (%rax,%rcx,1),%rdx
    e6df:	48 8d 05 3a 4a 00 00 	lea    0x4a3a(%rip),%rax        # 13120 <g_425>
    e6e6:	48 01 d0             	add    %rdx,%rax
    e6e9:	0f b6 00             	movzbl (%rax),%eax
    e6ec:	48 0f be c0          	movsbq %al,%rax
    e6f0:	8b 55 fc             	mov    -0x4(%rbp),%edx
    e6f3:	48 8d 35 91 22 00 00 	lea    0x2291(%rip),%rsi        # 1098b <g_1116+0x1933>
    e6fa:	48 89 c7             	mov    %rax,%rdi
    e6fd:	e8 f1 5f ff ff       	callq  46f3 <transparent_crc>
    e702:	83 7d fc 00          	cmpl   $0x0,-0x4(%rbp)
    e706:	74 1c                	je     e724 <main+0x3ee>
    e708:	8b 4d f8             	mov    -0x8(%rbp),%ecx
    e70b:	8b 55 f4             	mov    -0xc(%rbp),%edx
    e70e:	8b 45 f0             	mov    -0x10(%rbp),%eax
    e711:	89 c6                	mov    %eax,%esi
    e713:	48 8d 3d 80 22 00 00 	lea    0x2280(%rip),%rdi        # 1099a <g_1116+0x1942>
    e71a:	b8 00 00 00 00       	mov    $0x0,%eax
    e71f:	e8 5c 49 ff ff       	callq  3080 <printf@plt>
    e724:	83 45 f8 01          	addl   $0x1,-0x8(%rbp)
    e728:	83 7d f8 07          	cmpl   $0x7,-0x8(%rbp)
    e72c:	7e 8b                	jle    e6b9 <main+0x383>
    e72e:	83 45 f4 01          	addl   $0x1,-0xc(%rbp)
    e732:	83 7d f4 02          	cmpl   $0x2,-0xc(%rbp)
    e736:	0f 8e 74 ff ff ff    	jle    e6b0 <main+0x37a>
    e73c:	83 45 f0 01          	addl   $0x1,-0x10(%rbp)
    e740:	83 7d f0 07          	cmpl   $0x7,-0x10(%rbp)
    e744:	0f 8e 5a ff ff ff    	jle    e6a4 <main+0x36e>
    e74a:	0f b7 05 8f 4a 00 00 	movzwl 0x4a8f(%rip),%eax        # 131e0 <g_426>
    e751:	0f b7 c0             	movzwl %ax,%eax
    e754:	8b 55 fc             	mov    -0x4(%rbp),%edx
    e757:	48 8d 35 52 22 00 00 	lea    0x2252(%rip),%rsi        # 109b0 <g_1116+0x1958>
    e75e:	48 89 c7             	mov    %rax,%rdi
    e761:	e8 8d 5f ff ff       	callq  46f3 <transparent_crc>
    e766:	48 8b 05 7b 4a 00 00 	mov    0x4a7b(%rip),%rax        # 131e8 <g_447>
    e76d:	48 89 c1             	mov    %rax,%rcx
    e770:	8b 45 fc             	mov    -0x4(%rbp),%eax
    e773:	89 c2                	mov    %eax,%edx
    e775:	48 8d 35 3a 22 00 00 	lea    0x223a(%rip),%rsi        # 109b6 <g_1116+0x195e>
    e77c:	48 89 cf             	mov    %rcx,%rdi
    e77f:	e8 6f 5f ff ff       	callq  46f3 <transparent_crc>
    e784:	c7 45 f0 00 00 00 00 	movl   $0x0,-0x10(%rbp)
    e78b:	eb 45                	jmp    e7d2 <main+0x49c>
    e78d:	8b 45 f0             	mov    -0x10(%rbp),%eax
    e790:	48 98                	cltq   
    e792:	48 8d 15 57 4a 00 00 	lea    0x4a57(%rip),%rdx        # 131f0 <g_492>
    e799:	0f b6 04 10          	movzbl (%rax,%rdx,1),%eax
    e79d:	0f b6 c0             	movzbl %al,%eax
    e7a0:	8b 55 fc             	mov    -0x4(%rbp),%edx
    e7a3:	48 8d 35 12 22 00 00 	lea    0x2212(%rip),%rsi        # 109bc <g_1116+0x1964>
    e7aa:	48 89 c7             	mov    %rax,%rdi
    e7ad:	e8 41 5f ff ff       	callq  46f3 <transparent_crc>
    e7b2:	83 7d fc 00          	cmpl   $0x0,-0x4(%rbp)
    e7b6:	74 16                	je     e7ce <main+0x498>
    e7b8:	8b 45 f0             	mov    -0x10(%rbp),%eax
    e7bb:	89 c6                	mov    %eax,%esi
    e7bd:	48 8d 3d 80 21 00 00 	lea    0x2180(%rip),%rdi        # 10944 <g_1116+0x18ec>
    e7c4:	b8 00 00 00 00       	mov    $0x0,%eax
    e7c9:	e8 b2 48 ff ff       	callq  3080 <printf@plt>
    e7ce:	83 45 f0 01          	addl   $0x1,-0x10(%rbp)
    e7d2:	83 7d f0 00          	cmpl   $0x0,-0x10(%rbp)
    e7d6:	7e b5                	jle    e78d <main+0x457>
    e7d8:	8b 05 16 4a 00 00    	mov    0x4a16(%rip),%eax        # 131f4 <g_500>
    e7de:	89 c1                	mov    %eax,%ecx
    e7e0:	8b 45 fc             	mov    -0x4(%rbp),%eax
    e7e3:	89 c2                	mov    %eax,%edx
    e7e5:	48 8d 35 d9 21 00 00 	lea    0x21d9(%rip),%rsi        # 109c5 <g_1116+0x196d>
    e7ec:	48 89 cf             	mov    %rcx,%rdi
    e7ef:	e8 ff 5e ff ff       	callq  46f3 <transparent_crc>
    e7f4:	8b 05 fe 49 00 00    	mov    0x49fe(%rip),%eax        # 131f8 <g_564>
    e7fa:	48 98                	cltq   
    e7fc:	8b 55 fc             	mov    -0x4(%rbp),%edx
    e7ff:	48 8d 35 c5 21 00 00 	lea    0x21c5(%rip),%rsi        # 109cb <g_1116+0x1973>
    e806:	48 89 c7             	mov    %rax,%rdi
    e809:	e8 e5 5e ff ff       	callq  46f3 <transparent_crc>
    e80e:	0f b6 05 e7 49 00 00 	movzbl 0x49e7(%rip),%eax        # 131fc <g_578>
    e815:	48 0f be c0          	movsbq %al,%rax
    e819:	8b 55 fc             	mov    -0x4(%rbp),%edx
    e81c:	48 8d 35 ae 21 00 00 	lea    0x21ae(%rip),%rsi        # 109d1 <g_1116+0x1979>
    e823:	48 89 c7             	mov    %rax,%rdi
    e826:	e8 c8 5e ff ff       	callq  46f3 <transparent_crc>
    e82b:	8b 05 cf 49 00 00    	mov    0x49cf(%rip),%eax        # 13200 <g_905>
    e831:	48 98                	cltq   
    e833:	8b 55 fc             	mov    -0x4(%rbp),%edx
    e836:	48 8d 35 9a 21 00 00 	lea    0x219a(%rip),%rsi        # 109d7 <g_1116+0x197f>
    e83d:	48 89 c7             	mov    %rax,%rdi
    e840:	e8 ae 5e ff ff       	callq  46f3 <transparent_crc>
    e845:	48 8b 05 bc 49 00 00 	mov    0x49bc(%rip),%rax        # 13208 <g_1262>
    e84c:	8b 55 fc             	mov    -0x4(%rbp),%edx
    e84f:	48 8d 35 87 21 00 00 	lea    0x2187(%rip),%rsi        # 109dd <g_1116+0x1985>
    e856:	48 89 c7             	mov    %rax,%rdi
    e859:	e8 95 5e ff ff       	callq  46f3 <transparent_crc>
    e85e:	8b 05 ac 49 00 00    	mov    0x49ac(%rip),%eax        # 13210 <g_1315>
    e864:	89 c1                	mov    %eax,%ecx
    e866:	8b 45 fc             	mov    -0x4(%rbp),%eax
    e869:	89 c2                	mov    %eax,%edx
    e86b:	48 8d 35 72 21 00 00 	lea    0x2172(%rip),%rsi        # 109e4 <g_1116+0x198c>
    e872:	48 89 cf             	mov    %rcx,%rdi
    e875:	e8 79 5e ff ff       	callq  46f3 <transparent_crc>
    e87a:	0f b7 05 93 49 00 00 	movzwl 0x4993(%rip),%eax        # 13214 <g_1399>
    e881:	48 0f bf c0          	movswq %ax,%rax
    e885:	8b 55 fc             	mov    -0x4(%rbp),%edx
    e888:	48 8d 35 5c 21 00 00 	lea    0x215c(%rip),%rsi        # 109eb <g_1116+0x1993>
    e88f:	48 89 c7             	mov    %rax,%rdi
    e892:	e8 5c 5e ff ff       	callq  46f3 <transparent_crc>
    e897:	c7 45 f0 00 00 00 00 	movl   $0x0,-0x10(%rbp)
    e89e:	eb 4b                	jmp    e8eb <main+0x5b5>
    e8a0:	8b 45 f0             	mov    -0x10(%rbp),%eax
    e8a3:	48 98                	cltq   
    e8a5:	48 8d 14 85 00 00 00 	lea    0x0(,%rax,4),%rdx
    e8ac:	00 
    e8ad:	48 8d 05 6c 49 00 00 	lea    0x496c(%rip),%rax        # 13220 <g_1575>
    e8b4:	8b 04 02             	mov    (%rdx,%rax,1),%eax
    e8b7:	48 98                	cltq   
    e8b9:	8b 55 fc             	mov    -0x4(%rbp),%edx
    e8bc:	48 8d 35 2f 21 00 00 	lea    0x212f(%rip),%rsi        # 109f2 <g_1116+0x199a>
    e8c3:	48 89 c7             	mov    %rax,%rdi
    e8c6:	e8 28 5e ff ff       	callq  46f3 <transparent_crc>
    e8cb:	83 7d fc 00          	cmpl   $0x0,-0x4(%rbp)
    e8cf:	74 16                	je     e8e7 <main+0x5b1>
    e8d1:	8b 45 f0             	mov    -0x10(%rbp),%eax
    e8d4:	89 c6                	mov    %eax,%esi
    e8d6:	48 8d 3d 67 20 00 00 	lea    0x2067(%rip),%rdi        # 10944 <g_1116+0x18ec>
    e8dd:	b8 00 00 00 00       	mov    $0x0,%eax
    e8e2:	e8 99 47 ff ff       	callq  3080 <printf@plt>
    e8e7:	83 45 f0 01          	addl   $0x1,-0x10(%rbp)
    e8eb:	83 7d f0 04          	cmpl   $0x4,-0x10(%rbp)
    e8ef:	7e af                	jle    e8a0 <main+0x56a>
    e8f1:	c7 45 f0 00 00 00 00 	movl   $0x0,-0x10(%rbp)
    e8f8:	eb 4a                	jmp    e944 <main+0x60e>
    e8fa:	8b 45 f0             	mov    -0x10(%rbp),%eax
    e8fd:	48 98                	cltq   
    e8ff:	48 8d 14 c5 00 00 00 	lea    0x0(,%rax,8),%rdx
    e906:	00 
    e907:	48 8d 05 52 5f 00 00 	lea    0x5f52(%rip),%rax        # 14860 <g_1605>
    e90e:	48 8b 04 02          	mov    (%rdx,%rax,1),%rax
    e912:	8b 55 fc             	mov    -0x4(%rbp),%edx
    e915:	48 8d 35 e0 20 00 00 	lea    0x20e0(%rip),%rsi        # 109fc <g_1116+0x19a4>
    e91c:	48 89 c7             	mov    %rax,%rdi
    e91f:	e8 cf 5d ff ff       	callq  46f3 <transparent_crc>
    e924:	83 7d fc 00          	cmpl   $0x0,-0x4(%rbp)
    e928:	74 16                	je     e940 <main+0x60a>
    e92a:	8b 45 f0             	mov    -0x10(%rbp),%eax
    e92d:	89 c6                	mov    %eax,%esi
    e92f:	48 8d 3d 0e 20 00 00 	lea    0x200e(%rip),%rdi        # 10944 <g_1116+0x18ec>
    e936:	b8 00 00 00 00       	mov    $0x0,%eax
    e93b:	e8 40 47 ff ff       	callq  3080 <printf@plt>
    e940:	83 45 f0 01          	addl   $0x1,-0x10(%rbp)
    e944:	83 7d f0 09          	cmpl   $0x9,-0x10(%rbp)
    e948:	7e b0                	jle    e8fa <main+0x5c4>
    e94a:	8b 05 d0 46 00 00    	mov    0x46d0(%rip),%eax        # 13020 <crc32_context>
    e950:	f7 d0                	not    %eax
    e952:	89 c2                	mov    %eax,%edx
    e954:	8b 45 fc             	mov    -0x4(%rbp),%eax
    e957:	89 c6                	mov    %eax,%esi
    e959:	89 d7                	mov    %edx,%edi
    e95b:	e8 34 48 ff ff       	callq  3194 <platform_main_end>
    e960:	b8 00 00 00 00       	mov    $0x0,%eax
    e965:	c9                   	leaveq 
    e966:	c3                   	retq   
    e967:	66 0f 1f 84 00 00 00 	nopw   0x0(%rax,%rax,1)
    e96e:	00 00 

000000000000e970 <__libc_csu_init>:
    e970:	f3 0f 1e fa          	endbr64 
    e974:	41 57                	push   %r15
    e976:	4c 8d 3d 23 44 00 00 	lea    0x4423(%rip),%r15        # 12da0 <__frame_dummy_init_array_entry>
    e97d:	41 56                	push   %r14
    e97f:	49 89 d6             	mov    %rdx,%r14
    e982:	41 55                	push   %r13
    e984:	49 89 f5             	mov    %rsi,%r13
    e987:	41 54                	push   %r12
    e989:	41 89 fc             	mov    %edi,%r12d
    e98c:	55                   	push   %rbp
    e98d:	48 8d 2d 14 44 00 00 	lea    0x4414(%rip),%rbp        # 12da8 <__do_global_dtors_aux_fini_array_entry>
    e994:	53                   	push   %rbx
    e995:	4c 29 fd             	sub    %r15,%rbp
    e998:	48 83 ec 08          	sub    $0x8,%rsp
    e99c:	e8 5f 46 ff ff       	callq  3000 <_init>
    e9a1:	48 c1 fd 03          	sar    $0x3,%rbp
    e9a5:	74 1f                	je     e9c6 <__libc_csu_init+0x56>
    e9a7:	31 db                	xor    %ebx,%ebx
    e9a9:	0f 1f 80 00 00 00 00 	nopl   0x0(%rax)
    e9b0:	4c 89 f2             	mov    %r14,%rdx
    e9b3:	4c 89 ee             	mov    %r13,%rsi
    e9b6:	44 89 e7             	mov    %r12d,%edi
    e9b9:	41 ff 14 df          	callq  *(%r15,%rbx,8)
    e9bd:	48 83 c3 01          	add    $0x1,%rbx
    e9c1:	48 39 dd             	cmp    %rbx,%rbp
    e9c4:	75 ea                	jne    e9b0 <__libc_csu_init+0x40>
    e9c6:	48 83 c4 08          	add    $0x8,%rsp
    e9ca:	5b                   	pop    %rbx
    e9cb:	5d                   	pop    %rbp
    e9cc:	41 5c                	pop    %r12
    e9ce:	41 5d                	pop    %r13
    e9d0:	41 5e                	pop    %r14
    e9d2:	41 5f                	pop    %r15
    e9d4:	c3                   	retq   
    e9d5:	66 66 2e 0f 1f 84 00 	data16 nopw %cs:0x0(%rax,%rax,1)
    e9dc:	00 00 00 00 

000000000000e9e0 <__libc_csu_fini>:
    e9e0:	f3 0f 1e fa          	endbr64 
    e9e4:	c3                   	retq   
