


Disassembly of section .text:

000000000000c0a0 <_start>:
    c0a0:	f3 0f 1e fa          	endbr64 
    c0a4:	31 ed                	xor    %ebp,%ebp
    c0a6:	49 89 d1             	mov    %rdx,%r9
    c0a9:	5e                   	pop    %rsi
    c0aa:	48 89 e2             	mov    %rsp,%rdx
    c0ad:	48 83 e4 f0          	and    $0xfffffffffffffff0,%rsp
    c0b1:	50                   	push   %rax
    c0b2:	54                   	push   %rsp
    c0b3:	4c 8d 05 d6 30 01 00 	lea    0x130d6(%rip),%r8        # 1f190 <__libc_csu_fini>
    c0ba:	48 8d 0d 5f 30 01 00 	lea    0x1305f(%rip),%rcx        # 1f120 <__libc_csu_init>
    c0c1:	48 8d 3d d7 21 01 00 	lea    0x121d7(%rip),%rdi        # 1e29f <main>
    c0c8:	ff 15 0a 8f 01 00    	callq  *0x18f0a(%rip)        # 24fd8 <__libc_start_main@GLIBC_2.2.5>
    c0ce:	f4                   	hlt    
    c0cf:	90                   	nop

000000000000c0d0 <deregister_tm_clones>:
    c0d0:	48 8d 3d 99 d4 01 00 	lea    0x1d499(%rip),%rdi        # 29570 <__TMC_END__>
    c0d7:	48 8d 05 92 d4 01 00 	lea    0x1d492(%rip),%rax        # 29570 <__TMC_END__>
    c0de:	48 39 f8             	cmp    %rdi,%rax
    c0e1:	74 15                	je     c0f8 <deregister_tm_clones+0x28>
    c0e3:	48 8b 05 e6 8e 01 00 	mov    0x18ee6(%rip),%rax        # 24fd0 <_ITM_deregisterTMCloneTable>
    c0ea:	48 85 c0             	test   %rax,%rax
    c0ed:	74 09                	je     c0f8 <deregister_tm_clones+0x28>
    c0ef:	ff e0                	jmpq   *%rax
    c0f1:	0f 1f 80 00 00 00 00 	nopl   0x0(%rax)
    c0f8:	c3                   	retq   
    c0f9:	0f 1f 80 00 00 00 00 	nopl   0x0(%rax)

000000000000c100 <register_tm_clones>:
    c100:	48 8d 3d 69 d4 01 00 	lea    0x1d469(%rip),%rdi        # 29570 <__TMC_END__>
    c107:	48 8d 35 62 d4 01 00 	lea    0x1d462(%rip),%rsi        # 29570 <__TMC_END__>
    c10e:	48 29 fe             	sub    %rdi,%rsi
    c111:	48 89 f0             	mov    %rsi,%rax
    c114:	48 c1 ee 3f          	shr    $0x3f,%rsi
    c118:	48 c1 f8 03          	sar    $0x3,%rax
    c11c:	48 01 c6             	add    %rax,%rsi
    c11f:	48 d1 fe             	sar    %rsi
    c122:	74 14                	je     c138 <register_tm_clones+0x38>
    c124:	48 8b 05 bd 8e 01 00 	mov    0x18ebd(%rip),%rax        # 24fe8 <_ITM_registerTMCloneTable>
    c12b:	48 85 c0             	test   %rax,%rax
    c12e:	74 08                	je     c138 <register_tm_clones+0x38>
    c130:	ff e0                	jmpq   *%rax
    c132:	66 0f 1f 44 00 00    	nopw   0x0(%rax,%rax,1)
    c138:	c3                   	retq   
    c139:	0f 1f 80 00 00 00 00 	nopl   0x0(%rax)

000000000000c140 <__do_global_dtors_aux>:
    c140:	f3 0f 1e fa          	endbr64 
    c144:	80 3d 35 d4 01 00 00 	cmpb   $0x0,0x1d435(%rip)        # 29580 <completed.8061>
    c14b:	75 2b                	jne    c178 <__do_global_dtors_aux+0x38>
    c14d:	55                   	push   %rbp
    c14e:	48 83 3d 9a 8e 01 00 	cmpq   $0x0,0x18e9a(%rip)        # 24ff0 <__cxa_finalize@GLIBC_2.2.5>
    c155:	00 
    c156:	48 89 e5             	mov    %rsp,%rbp
    c159:	74 0c                	je     c167 <__do_global_dtors_aux+0x27>
    c15b:	48 8b 3d a6 8e 01 00 	mov    0x18ea6(%rip),%rdi        # 25008 <__dso_handle>
    c162:	e8 f9 fe ff ff       	callq  c060 <__cxa_finalize@plt>
    c167:	e8 64 ff ff ff       	callq  c0d0 <deregister_tm_clones>
    c16c:	c6 05 0d d4 01 00 01 	movb   $0x1,0x1d40d(%rip)        # 29580 <completed.8061>
    c173:	5d                   	pop    %rbp
    c174:	c3                   	retq   
    c175:	0f 1f 00             	nopl   (%rax)
    c178:	c3                   	retq   
    c179:	0f 1f 80 00 00 00 00 	nopl   0x0(%rax)

000000000000c180 <frame_dummy>:
    c180:	f3 0f 1e fa          	endbr64 
    c184:	e9 77 ff ff ff       	jmpq   c100 <register_tm_clones>

000000000000c189 <platform_main_begin>:
    c189:	f3 0f 1e fa          	endbr64 
    c18d:	55                   	push   %rbp
    c18e:	48 89 e5             	mov    %rsp,%rbp
    c191:	90                   	nop
    c192:	5d                   	pop    %rbp
    c193:	c3                   	retq   

000000000000c194 <platform_main_end>:
    c194:	f3 0f 1e fa          	endbr64 
    c198:	55                   	push   %rbp
    c199:	48 89 e5             	mov    %rsp,%rbp
    c19c:	48 83 ec 10          	sub    $0x10,%rsp
    c1a0:	89 7d fc             	mov    %edi,-0x4(%rbp)
    c1a3:	89 75 f8             	mov    %esi,-0x8(%rbp)
    c1a6:	8b 45 fc             	mov    -0x4(%rbp),%eax
    c1a9:	89 c6                	mov    %eax,%esi
    c1ab:	48 8d 3d 6e 3e 01 00 	lea    0x13e6e(%rip),%rdi        # 20020 <_IO_stdin_used+0x20>
    c1b2:	b8 00 00 00 00       	mov    $0x0,%eax
    c1b7:	e8 c4 fe ff ff       	callq  c080 <printf@plt>
    c1bc:	90                   	nop
    c1bd:	c9                   	leaveq 
    c1be:	c3                   	retq   

000000000000c1bf <safe_unary_minus_func_int8_t_s>:
    c1bf:	f3 0f 1e fa          	endbr64 
    c1c3:	55                   	push   %rbp
    c1c4:	48 89 e5             	mov    %rsp,%rbp
    c1c7:	89 f8                	mov    %edi,%eax
    c1c9:	88 45 fc             	mov    %al,-0x4(%rbp)
    c1cc:	0f b6 45 fc          	movzbl -0x4(%rbp),%eax
    c1d0:	f7 d8                	neg    %eax
    c1d2:	5d                   	pop    %rbp
    c1d3:	c3                   	retq   

000000000000c1d4 <safe_add_func_int8_t_s_s>:
    c1d4:	f3 0f 1e fa          	endbr64 
    c1d8:	55                   	push   %rbp
    c1d9:	48 89 e5             	mov    %rsp,%rbp
    c1dc:	89 fa                	mov    %edi,%edx
    c1de:	89 f0                	mov    %esi,%eax
    c1e0:	88 55 fc             	mov    %dl,-0x4(%rbp)
    c1e3:	88 45 f8             	mov    %al,-0x8(%rbp)
    c1e6:	0f b6 55 fc          	movzbl -0x4(%rbp),%edx
    c1ea:	0f b6 45 f8          	movzbl -0x8(%rbp),%eax
    c1ee:	01 d0                	add    %edx,%eax
    c1f0:	5d                   	pop    %rbp
    c1f1:	c3                   	retq   

000000000000c1f2 <safe_sub_func_int8_t_s_s>:
    c1f2:	f3 0f 1e fa          	endbr64 
    c1f6:	55                   	push   %rbp
    c1f7:	48 89 e5             	mov    %rsp,%rbp
    c1fa:	89 fa                	mov    %edi,%edx
    c1fc:	89 f0                	mov    %esi,%eax
    c1fe:	88 55 fc             	mov    %dl,-0x4(%rbp)
    c201:	88 45 f8             	mov    %al,-0x8(%rbp)
    c204:	0f b6 55 fc          	movzbl -0x4(%rbp),%edx
    c208:	0f b6 45 f8          	movzbl -0x8(%rbp),%eax
    c20c:	29 c2                	sub    %eax,%edx
    c20e:	89 d0                	mov    %edx,%eax
    c210:	5d                   	pop    %rbp
    c211:	c3                   	retq   

000000000000c212 <safe_mul_func_int8_t_s_s>:
    c212:	f3 0f 1e fa          	endbr64 
    c216:	55                   	push   %rbp
    c217:	48 89 e5             	mov    %rsp,%rbp
    c21a:	89 fa                	mov    %edi,%edx
    c21c:	89 f0                	mov    %esi,%eax
    c21e:	88 55 fc             	mov    %dl,-0x4(%rbp)
    c221:	88 45 f8             	mov    %al,-0x8(%rbp)
    c224:	0f b6 45 fc          	movzbl -0x4(%rbp),%eax
    c228:	0f b6 55 f8          	movzbl -0x8(%rbp),%edx
    c22c:	0f af c2             	imul   %edx,%eax
    c22f:	5d                   	pop    %rbp
    c230:	c3                   	retq   

000000000000c231 <safe_mod_func_int8_t_s_s>:
    c231:	f3 0f 1e fa          	endbr64 
    c235:	55                   	push   %rbp
    c236:	48 89 e5             	mov    %rsp,%rbp
    c239:	89 fa                	mov    %edi,%edx
    c23b:	89 f0                	mov    %esi,%eax
    c23d:	88 55 fc             	mov    %dl,-0x4(%rbp)
    c240:	88 45 f8             	mov    %al,-0x8(%rbp)
    c243:	80 7d f8 00          	cmpb   $0x0,-0x8(%rbp)
    c247:	74 1b                	je     c264 <safe_mod_func_int8_t_s_s+0x33>
    c249:	80 7d fc 80          	cmpb   $0x80,-0x4(%rbp)
    c24d:	75 06                	jne    c255 <safe_mod_func_int8_t_s_s+0x24>
    c24f:	80 7d f8 ff          	cmpb   $0xff,-0x8(%rbp)
    c253:	74 0f                	je     c264 <safe_mod_func_int8_t_s_s+0x33>
    c255:	0f be 45 fc          	movsbl -0x4(%rbp),%eax
    c259:	0f be 4d f8          	movsbl -0x8(%rbp),%ecx
    c25d:	99                   	cltd   
    c25e:	f7 f9                	idiv   %ecx
    c260:	89 d0                	mov    %edx,%eax
    c262:	eb 04                	jmp    c268 <safe_mod_func_int8_t_s_s+0x37>
    c264:	0f b6 45 fc          	movzbl -0x4(%rbp),%eax
    c268:	5d                   	pop    %rbp
    c269:	c3                   	retq   

000000000000c26a <safe_div_func_int8_t_s_s>:
    c26a:	f3 0f 1e fa          	endbr64 
    c26e:	55                   	push   %rbp
    c26f:	48 89 e5             	mov    %rsp,%rbp
    c272:	89 fa                	mov    %edi,%edx
    c274:	89 f0                	mov    %esi,%eax
    c276:	88 55 fc             	mov    %dl,-0x4(%rbp)
    c279:	88 45 f8             	mov    %al,-0x8(%rbp)
    c27c:	80 7d f8 00          	cmpb   $0x0,-0x8(%rbp)
    c280:	74 19                	je     c29b <safe_div_func_int8_t_s_s+0x31>
    c282:	80 7d fc 80          	cmpb   $0x80,-0x4(%rbp)
    c286:	75 06                	jne    c28e <safe_div_func_int8_t_s_s+0x24>
    c288:	80 7d f8 ff          	cmpb   $0xff,-0x8(%rbp)
    c28c:	74 0d                	je     c29b <safe_div_func_int8_t_s_s+0x31>
    c28e:	0f be 45 fc          	movsbl -0x4(%rbp),%eax
    c292:	0f be 4d f8          	movsbl -0x8(%rbp),%ecx
    c296:	99                   	cltd   
    c297:	f7 f9                	idiv   %ecx
    c299:	eb 04                	jmp    c29f <safe_div_func_int8_t_s_s+0x35>
    c29b:	0f b6 45 fc          	movzbl -0x4(%rbp),%eax
    c29f:	5d                   	pop    %rbp
    c2a0:	c3                   	retq   

000000000000c2a1 <safe_lshift_func_int8_t_s_s>:
    c2a1:	f3 0f 1e fa          	endbr64 
    c2a5:	55                   	push   %rbp
    c2a6:	48 89 e5             	mov    %rsp,%rbp
    c2a9:	89 f8                	mov    %edi,%eax
    c2ab:	89 75 f8             	mov    %esi,-0x8(%rbp)
    c2ae:	88 45 fc             	mov    %al,-0x4(%rbp)
    c2b1:	80 7d fc 00          	cmpb   $0x0,-0x4(%rbp)
    c2b5:	78 31                	js     c2e8 <safe_lshift_func_int8_t_s_s+0x47>
    c2b7:	83 7d f8 00          	cmpl   $0x0,-0x8(%rbp)
    c2bb:	78 2b                	js     c2e8 <safe_lshift_func_int8_t_s_s+0x47>
    c2bd:	83 7d f8 1f          	cmpl   $0x1f,-0x8(%rbp)
    c2c1:	7f 25                	jg     c2e8 <safe_lshift_func_int8_t_s_s+0x47>
    c2c3:	0f be 55 fc          	movsbl -0x4(%rbp),%edx
    c2c7:	8b 45 f8             	mov    -0x8(%rbp),%eax
    c2ca:	be 7f 00 00 00       	mov    $0x7f,%esi
    c2cf:	89 c1                	mov    %eax,%ecx
    c2d1:	d3 fe                	sar    %cl,%esi
    c2d3:	89 f0                	mov    %esi,%eax
    c2d5:	39 c2                	cmp    %eax,%edx
    c2d7:	7f 0f                	jg     c2e8 <safe_lshift_func_int8_t_s_s+0x47>
    c2d9:	0f be 55 fc          	movsbl -0x4(%rbp),%edx
    c2dd:	8b 45 f8             	mov    -0x8(%rbp),%eax
    c2e0:	89 c1                	mov    %eax,%ecx
    c2e2:	d3 e2                	shl    %cl,%edx
    c2e4:	89 d0                	mov    %edx,%eax
    c2e6:	eb 04                	jmp    c2ec <safe_lshift_func_int8_t_s_s+0x4b>
    c2e8:	0f b6 45 fc          	movzbl -0x4(%rbp),%eax
    c2ec:	5d                   	pop    %rbp
    c2ed:	c3                   	retq   

000000000000c2ee <safe_lshift_func_int8_t_s_u>:
    c2ee:	f3 0f 1e fa          	endbr64 
    c2f2:	55                   	push   %rbp
    c2f3:	48 89 e5             	mov    %rsp,%rbp
    c2f6:	89 f8                	mov    %edi,%eax
    c2f8:	89 75 f8             	mov    %esi,-0x8(%rbp)
    c2fb:	88 45 fc             	mov    %al,-0x4(%rbp)
    c2fe:	80 7d fc 00          	cmpb   $0x0,-0x4(%rbp)
    c302:	78 2b                	js     c32f <safe_lshift_func_int8_t_s_u+0x41>
    c304:	83 7d f8 1f          	cmpl   $0x1f,-0x8(%rbp)
    c308:	77 25                	ja     c32f <safe_lshift_func_int8_t_s_u+0x41>
    c30a:	0f be 55 fc          	movsbl -0x4(%rbp),%edx
    c30e:	8b 45 f8             	mov    -0x8(%rbp),%eax
    c311:	be 7f 00 00 00       	mov    $0x7f,%esi
    c316:	89 c1                	mov    %eax,%ecx
    c318:	d3 fe                	sar    %cl,%esi
    c31a:	89 f0                	mov    %esi,%eax
    c31c:	39 c2                	cmp    %eax,%edx
    c31e:	7f 0f                	jg     c32f <safe_lshift_func_int8_t_s_u+0x41>
    c320:	0f be 55 fc          	movsbl -0x4(%rbp),%edx
    c324:	8b 45 f8             	mov    -0x8(%rbp),%eax
    c327:	89 c1                	mov    %eax,%ecx
    c329:	d3 e2                	shl    %cl,%edx
    c32b:	89 d0                	mov    %edx,%eax
    c32d:	eb 04                	jmp    c333 <safe_lshift_func_int8_t_s_u+0x45>
    c32f:	0f b6 45 fc          	movzbl -0x4(%rbp),%eax
    c333:	5d                   	pop    %rbp
    c334:	c3                   	retq   

000000000000c335 <safe_rshift_func_int8_t_s_s>:
    c335:	f3 0f 1e fa          	endbr64 
    c339:	55                   	push   %rbp
    c33a:	48 89 e5             	mov    %rsp,%rbp
    c33d:	89 f8                	mov    %edi,%eax
    c33f:	89 75 f8             	mov    %esi,-0x8(%rbp)
    c342:	88 45 fc             	mov    %al,-0x4(%rbp)
    c345:	80 7d fc 00          	cmpb   $0x0,-0x4(%rbp)
    c349:	78 1b                	js     c366 <safe_rshift_func_int8_t_s_s+0x31>
    c34b:	83 7d f8 00          	cmpl   $0x0,-0x8(%rbp)
    c34f:	78 15                	js     c366 <safe_rshift_func_int8_t_s_s+0x31>
    c351:	83 7d f8 1f          	cmpl   $0x1f,-0x8(%rbp)
    c355:	7f 0f                	jg     c366 <safe_rshift_func_int8_t_s_s+0x31>
    c357:	0f be 55 fc          	movsbl -0x4(%rbp),%edx
    c35b:	8b 45 f8             	mov    -0x8(%rbp),%eax
    c35e:	89 c1                	mov    %eax,%ecx
    c360:	d3 fa                	sar    %cl,%edx
    c362:	89 d0                	mov    %edx,%eax
    c364:	eb 04                	jmp    c36a <safe_rshift_func_int8_t_s_s+0x35>
    c366:	0f b6 45 fc          	movzbl -0x4(%rbp),%eax
    c36a:	5d                   	pop    %rbp
    c36b:	c3                   	retq   

000000000000c36c <safe_rshift_func_int8_t_s_u>:
    c36c:	f3 0f 1e fa          	endbr64 
    c370:	55                   	push   %rbp
    c371:	48 89 e5             	mov    %rsp,%rbp
    c374:	89 f8                	mov    %edi,%eax
    c376:	89 75 f8             	mov    %esi,-0x8(%rbp)
    c379:	88 45 fc             	mov    %al,-0x4(%rbp)
    c37c:	80 7d fc 00          	cmpb   $0x0,-0x4(%rbp)
    c380:	78 15                	js     c397 <safe_rshift_func_int8_t_s_u+0x2b>
    c382:	83 7d f8 1f          	cmpl   $0x1f,-0x8(%rbp)
    c386:	77 0f                	ja     c397 <safe_rshift_func_int8_t_s_u+0x2b>
    c388:	0f be 55 fc          	movsbl -0x4(%rbp),%edx
    c38c:	8b 45 f8             	mov    -0x8(%rbp),%eax
    c38f:	89 c1                	mov    %eax,%ecx
    c391:	d3 fa                	sar    %cl,%edx
    c393:	89 d0                	mov    %edx,%eax
    c395:	eb 04                	jmp    c39b <safe_rshift_func_int8_t_s_u+0x2f>
    c397:	0f b6 45 fc          	movzbl -0x4(%rbp),%eax
    c39b:	5d                   	pop    %rbp
    c39c:	c3                   	retq   

000000000000c39d <safe_unary_minus_func_int16_t_s>:
    c39d:	f3 0f 1e fa          	endbr64 
    c3a1:	55                   	push   %rbp
    c3a2:	48 89 e5             	mov    %rsp,%rbp
    c3a5:	89 f8                	mov    %edi,%eax
    c3a7:	66 89 45 fc          	mov    %ax,-0x4(%rbp)
    c3ab:	0f b7 45 fc          	movzwl -0x4(%rbp),%eax
    c3af:	f7 d8                	neg    %eax
    c3b1:	5d                   	pop    %rbp
    c3b2:	c3                   	retq   

000000000000c3b3 <safe_add_func_int16_t_s_s>:
    c3b3:	f3 0f 1e fa          	endbr64 
    c3b7:	55                   	push   %rbp
    c3b8:	48 89 e5             	mov    %rsp,%rbp
    c3bb:	89 fa                	mov    %edi,%edx
    c3bd:	89 f0                	mov    %esi,%eax
    c3bf:	66 89 55 fc          	mov    %dx,-0x4(%rbp)
    c3c3:	66 89 45 f8          	mov    %ax,-0x8(%rbp)
    c3c7:	0f b7 55 fc          	movzwl -0x4(%rbp),%edx
    c3cb:	0f b7 45 f8          	movzwl -0x8(%rbp),%eax
    c3cf:	01 d0                	add    %edx,%eax
    c3d1:	5d                   	pop    %rbp
    c3d2:	c3                   	retq   

000000000000c3d3 <safe_sub_func_int16_t_s_s>:
    c3d3:	f3 0f 1e fa          	endbr64 
    c3d7:	55                   	push   %rbp
    c3d8:	48 89 e5             	mov    %rsp,%rbp
    c3db:	89 fa                	mov    %edi,%edx
    c3dd:	89 f0                	mov    %esi,%eax
    c3df:	66 89 55 fc          	mov    %dx,-0x4(%rbp)
    c3e3:	66 89 45 f8          	mov    %ax,-0x8(%rbp)
    c3e7:	0f b7 55 fc          	movzwl -0x4(%rbp),%edx
    c3eb:	0f b7 45 f8          	movzwl -0x8(%rbp),%eax
    c3ef:	29 c2                	sub    %eax,%edx
    c3f1:	89 d0                	mov    %edx,%eax
    c3f3:	5d                   	pop    %rbp
    c3f4:	c3                   	retq   

000000000000c3f5 <safe_mul_func_int16_t_s_s>:
    c3f5:	f3 0f 1e fa          	endbr64 
    c3f9:	55                   	push   %rbp
    c3fa:	48 89 e5             	mov    %rsp,%rbp
    c3fd:	89 fa                	mov    %edi,%edx
    c3ff:	89 f0                	mov    %esi,%eax
    c401:	66 89 55 fc          	mov    %dx,-0x4(%rbp)
    c405:	66 89 45 f8          	mov    %ax,-0x8(%rbp)
    c409:	0f b7 55 fc          	movzwl -0x4(%rbp),%edx
    c40d:	0f b7 45 f8          	movzwl -0x8(%rbp),%eax
    c411:	0f af c2             	imul   %edx,%eax
    c414:	5d                   	pop    %rbp
    c415:	c3                   	retq   

000000000000c416 <safe_mod_func_int16_t_s_s>:
    c416:	f3 0f 1e fa          	endbr64 
    c41a:	55                   	push   %rbp
    c41b:	48 89 e5             	mov    %rsp,%rbp
    c41e:	89 fa                	mov    %edi,%edx
    c420:	89 f0                	mov    %esi,%eax
    c422:	66 89 55 fc          	mov    %dx,-0x4(%rbp)
    c426:	66 89 45 f8          	mov    %ax,-0x8(%rbp)
    c42a:	66 83 7d f8 00       	cmpw   $0x0,-0x8(%rbp)
    c42f:	74 1e                	je     c44f <safe_mod_func_int16_t_s_s+0x39>
    c431:	66 81 7d fc 00 80    	cmpw   $0x8000,-0x4(%rbp)
    c437:	75 07                	jne    c440 <safe_mod_func_int16_t_s_s+0x2a>
    c439:	66 83 7d f8 ff       	cmpw   $0xffff,-0x8(%rbp)
    c43e:	74 0f                	je     c44f <safe_mod_func_int16_t_s_s+0x39>
    c440:	0f bf 45 fc          	movswl -0x4(%rbp),%eax
    c444:	0f bf 4d f8          	movswl -0x8(%rbp),%ecx
    c448:	99                   	cltd   
    c449:	f7 f9                	idiv   %ecx
    c44b:	89 d0                	mov    %edx,%eax
    c44d:	eb 04                	jmp    c453 <safe_mod_func_int16_t_s_s+0x3d>
    c44f:	0f b7 45 fc          	movzwl -0x4(%rbp),%eax
    c453:	5d                   	pop    %rbp
    c454:	c3                   	retq   

000000000000c455 <safe_div_func_int16_t_s_s>:
    c455:	f3 0f 1e fa          	endbr64 
    c459:	55                   	push   %rbp
    c45a:	48 89 e5             	mov    %rsp,%rbp
    c45d:	89 fa                	mov    %edi,%edx
    c45f:	89 f0                	mov    %esi,%eax
    c461:	66 89 55 fc          	mov    %dx,-0x4(%rbp)
    c465:	66 89 45 f8          	mov    %ax,-0x8(%rbp)
    c469:	66 83 7d f8 00       	cmpw   $0x0,-0x8(%rbp)
    c46e:	74 1c                	je     c48c <safe_div_func_int16_t_s_s+0x37>
    c470:	66 81 7d fc 00 80    	cmpw   $0x8000,-0x4(%rbp)
    c476:	75 07                	jne    c47f <safe_div_func_int16_t_s_s+0x2a>
    c478:	66 83 7d f8 ff       	cmpw   $0xffff,-0x8(%rbp)
    c47d:	74 0d                	je     c48c <safe_div_func_int16_t_s_s+0x37>
    c47f:	0f bf 45 fc          	movswl -0x4(%rbp),%eax
    c483:	0f bf 4d f8          	movswl -0x8(%rbp),%ecx
    c487:	99                   	cltd   
    c488:	f7 f9                	idiv   %ecx
    c48a:	eb 04                	jmp    c490 <safe_div_func_int16_t_s_s+0x3b>
    c48c:	0f b7 45 fc          	movzwl -0x4(%rbp),%eax
    c490:	5d                   	pop    %rbp
    c491:	c3                   	retq   

000000000000c492 <safe_lshift_func_int16_t_s_s>:
    c492:	f3 0f 1e fa          	endbr64 
    c496:	55                   	push   %rbp
    c497:	48 89 e5             	mov    %rsp,%rbp
    c49a:	89 f8                	mov    %edi,%eax
    c49c:	89 75 f8             	mov    %esi,-0x8(%rbp)
    c49f:	66 89 45 fc          	mov    %ax,-0x4(%rbp)
    c4a3:	66 83 7d fc 00       	cmpw   $0x0,-0x4(%rbp)
    c4a8:	78 31                	js     c4db <safe_lshift_func_int16_t_s_s+0x49>
    c4aa:	83 7d f8 00          	cmpl   $0x0,-0x8(%rbp)
    c4ae:	78 2b                	js     c4db <safe_lshift_func_int16_t_s_s+0x49>
    c4b0:	83 7d f8 1f          	cmpl   $0x1f,-0x8(%rbp)
    c4b4:	7f 25                	jg     c4db <safe_lshift_func_int16_t_s_s+0x49>
    c4b6:	0f bf 55 fc          	movswl -0x4(%rbp),%edx
    c4ba:	8b 45 f8             	mov    -0x8(%rbp),%eax
    c4bd:	be ff 7f 00 00       	mov    $0x7fff,%esi
    c4c2:	89 c1                	mov    %eax,%ecx
    c4c4:	d3 fe                	sar    %cl,%esi
    c4c6:	89 f0                	mov    %esi,%eax
    c4c8:	39 c2                	cmp    %eax,%edx
    c4ca:	7f 0f                	jg     c4db <safe_lshift_func_int16_t_s_s+0x49>
    c4cc:	0f bf 55 fc          	movswl -0x4(%rbp),%edx
    c4d0:	8b 45 f8             	mov    -0x8(%rbp),%eax
    c4d3:	89 c1                	mov    %eax,%ecx
    c4d5:	d3 e2                	shl    %cl,%edx
    c4d7:	89 d0                	mov    %edx,%eax
    c4d9:	eb 04                	jmp    c4df <safe_lshift_func_int16_t_s_s+0x4d>
    c4db:	0f b7 45 fc          	movzwl -0x4(%rbp),%eax
    c4df:	5d                   	pop    %rbp
    c4e0:	c3                   	retq   

000000000000c4e1 <safe_lshift_func_int16_t_s_u>:
    c4e1:	f3 0f 1e fa          	endbr64 
    c4e5:	55                   	push   %rbp
    c4e6:	48 89 e5             	mov    %rsp,%rbp
    c4e9:	89 f8                	mov    %edi,%eax
    c4eb:	89 75 f8             	mov    %esi,-0x8(%rbp)
    c4ee:	66 89 45 fc          	mov    %ax,-0x4(%rbp)
    c4f2:	66 83 7d fc 00       	cmpw   $0x0,-0x4(%rbp)
    c4f7:	78 2b                	js     c524 <safe_lshift_func_int16_t_s_u+0x43>
    c4f9:	83 7d f8 1f          	cmpl   $0x1f,-0x8(%rbp)
    c4fd:	77 25                	ja     c524 <safe_lshift_func_int16_t_s_u+0x43>
    c4ff:	0f bf 55 fc          	movswl -0x4(%rbp),%edx
    c503:	8b 45 f8             	mov    -0x8(%rbp),%eax
    c506:	be ff 7f 00 00       	mov    $0x7fff,%esi
    c50b:	89 c1                	mov    %eax,%ecx
    c50d:	d3 fe                	sar    %cl,%esi
    c50f:	89 f0                	mov    %esi,%eax
    c511:	39 c2                	cmp    %eax,%edx
    c513:	7f 0f                	jg     c524 <safe_lshift_func_int16_t_s_u+0x43>
    c515:	0f bf 55 fc          	movswl -0x4(%rbp),%edx
    c519:	8b 45 f8             	mov    -0x8(%rbp),%eax
    c51c:	89 c1                	mov    %eax,%ecx
    c51e:	d3 e2                	shl    %cl,%edx
    c520:	89 d0                	mov    %edx,%eax
    c522:	eb 04                	jmp    c528 <safe_lshift_func_int16_t_s_u+0x47>
    c524:	0f b7 45 fc          	movzwl -0x4(%rbp),%eax
    c528:	5d                   	pop    %rbp
    c529:	c3                   	retq   

000000000000c52a <safe_rshift_func_int16_t_s_s>:
    c52a:	f3 0f 1e fa          	endbr64 
    c52e:	55                   	push   %rbp
    c52f:	48 89 e5             	mov    %rsp,%rbp
    c532:	89 f8                	mov    %edi,%eax
    c534:	89 75 f8             	mov    %esi,-0x8(%rbp)
    c537:	66 89 45 fc          	mov    %ax,-0x4(%rbp)
    c53b:	66 83 7d fc 00       	cmpw   $0x0,-0x4(%rbp)
    c540:	78 1b                	js     c55d <safe_rshift_func_int16_t_s_s+0x33>
    c542:	83 7d f8 00          	cmpl   $0x0,-0x8(%rbp)
    c546:	78 15                	js     c55d <safe_rshift_func_int16_t_s_s+0x33>
    c548:	83 7d f8 1f          	cmpl   $0x1f,-0x8(%rbp)
    c54c:	7f 0f                	jg     c55d <safe_rshift_func_int16_t_s_s+0x33>
    c54e:	0f bf 55 fc          	movswl -0x4(%rbp),%edx
    c552:	8b 45 f8             	mov    -0x8(%rbp),%eax
    c555:	89 c1                	mov    %eax,%ecx
    c557:	d3 fa                	sar    %cl,%edx
    c559:	89 d0                	mov    %edx,%eax
    c55b:	eb 04                	jmp    c561 <safe_rshift_func_int16_t_s_s+0x37>
    c55d:	0f b7 45 fc          	movzwl -0x4(%rbp),%eax
    c561:	5d                   	pop    %rbp
    c562:	c3                   	retq   

000000000000c563 <safe_rshift_func_int16_t_s_u>:
    c563:	f3 0f 1e fa          	endbr64 
    c567:	55                   	push   %rbp
    c568:	48 89 e5             	mov    %rsp,%rbp
    c56b:	89 f8                	mov    %edi,%eax
    c56d:	89 75 f8             	mov    %esi,-0x8(%rbp)
    c570:	66 89 45 fc          	mov    %ax,-0x4(%rbp)
    c574:	66 83 7d fc 00       	cmpw   $0x0,-0x4(%rbp)
    c579:	78 15                	js     c590 <safe_rshift_func_int16_t_s_u+0x2d>
    c57b:	83 7d f8 1f          	cmpl   $0x1f,-0x8(%rbp)
    c57f:	77 0f                	ja     c590 <safe_rshift_func_int16_t_s_u+0x2d>
    c581:	0f bf 55 fc          	movswl -0x4(%rbp),%edx
    c585:	8b 45 f8             	mov    -0x8(%rbp),%eax
    c588:	89 c1                	mov    %eax,%ecx
    c58a:	d3 fa                	sar    %cl,%edx
    c58c:	89 d0                	mov    %edx,%eax
    c58e:	eb 04                	jmp    c594 <safe_rshift_func_int16_t_s_u+0x31>
    c590:	0f b7 45 fc          	movzwl -0x4(%rbp),%eax
    c594:	5d                   	pop    %rbp
    c595:	c3                   	retq   

000000000000c596 <safe_unary_minus_func_int32_t_s>:
    c596:	f3 0f 1e fa          	endbr64 
    c59a:	55                   	push   %rbp
    c59b:	48 89 e5             	mov    %rsp,%rbp
    c59e:	89 7d fc             	mov    %edi,-0x4(%rbp)
    c5a1:	81 7d fc 00 00 00 80 	cmpl   $0x80000000,-0x4(%rbp)
    c5a8:	74 07                	je     c5b1 <safe_unary_minus_func_int32_t_s+0x1b>
    c5aa:	8b 45 fc             	mov    -0x4(%rbp),%eax
    c5ad:	f7 d8                	neg    %eax
    c5af:	eb 03                	jmp    c5b4 <safe_unary_minus_func_int32_t_s+0x1e>
    c5b1:	8b 45 fc             	mov    -0x4(%rbp),%eax
    c5b4:	5d                   	pop    %rbp
    c5b5:	c3                   	retq   

000000000000c5b6 <safe_add_func_int32_t_s_s>:
    c5b6:	f3 0f 1e fa          	endbr64 
    c5ba:	55                   	push   %rbp
    c5bb:	48 89 e5             	mov    %rsp,%rbp
    c5be:	89 7d fc             	mov    %edi,-0x4(%rbp)
    c5c1:	89 75 f8             	mov    %esi,-0x8(%rbp)
    c5c4:	83 7d fc 00          	cmpl   $0x0,-0x4(%rbp)
    c5c8:	7e 13                	jle    c5dd <safe_add_func_int32_t_s_s+0x27>
    c5ca:	83 7d f8 00          	cmpl   $0x0,-0x8(%rbp)
    c5ce:	7e 0d                	jle    c5dd <safe_add_func_int32_t_s_s+0x27>
    c5d0:	b8 ff ff ff 7f       	mov    $0x7fffffff,%eax
    c5d5:	2b 45 f8             	sub    -0x8(%rbp),%eax
    c5d8:	39 45 fc             	cmp    %eax,-0x4(%rbp)
    c5db:	7f 23                	jg     c600 <safe_add_func_int32_t_s_s+0x4a>
    c5dd:	83 7d fc 00          	cmpl   $0x0,-0x4(%rbp)
    c5e1:	79 13                	jns    c5f6 <safe_add_func_int32_t_s_s+0x40>
    c5e3:	83 7d f8 00          	cmpl   $0x0,-0x8(%rbp)
    c5e7:	79 0d                	jns    c5f6 <safe_add_func_int32_t_s_s+0x40>
    c5e9:	b8 00 00 00 80       	mov    $0x80000000,%eax
    c5ee:	2b 45 f8             	sub    -0x8(%rbp),%eax
    c5f1:	39 45 fc             	cmp    %eax,-0x4(%rbp)
    c5f4:	7c 0a                	jl     c600 <safe_add_func_int32_t_s_s+0x4a>
    c5f6:	8b 55 fc             	mov    -0x4(%rbp),%edx
    c5f9:	8b 45 f8             	mov    -0x8(%rbp),%eax
    c5fc:	01 d0                	add    %edx,%eax
    c5fe:	eb 03                	jmp    c603 <safe_add_func_int32_t_s_s+0x4d>
    c600:	8b 45 fc             	mov    -0x4(%rbp),%eax
    c603:	5d                   	pop    %rbp
    c604:	c3                   	retq   

000000000000c605 <safe_sub_func_int32_t_s_s>:
    c605:	f3 0f 1e fa          	endbr64 
    c609:	55                   	push   %rbp
    c60a:	48 89 e5             	mov    %rsp,%rbp
    c60d:	89 7d fc             	mov    %edi,-0x4(%rbp)
    c610:	89 75 f8             	mov    %esi,-0x8(%rbp)
    c613:	8b 45 fc             	mov    -0x4(%rbp),%eax
    c616:	33 45 f8             	xor    -0x8(%rbp),%eax
    c619:	89 c2                	mov    %eax,%edx
    c61b:	8b 45 fc             	mov    -0x4(%rbp),%eax
    c61e:	33 45 f8             	xor    -0x8(%rbp),%eax
    c621:	25 00 00 00 80       	and    $0x80000000,%eax
    c626:	33 45 fc             	xor    -0x4(%rbp),%eax
    c629:	2b 45 f8             	sub    -0x8(%rbp),%eax
    c62c:	33 45 f8             	xor    -0x8(%rbp),%eax
    c62f:	21 d0                	and    %edx,%eax
    c631:	85 c0                	test   %eax,%eax
    c633:	78 08                	js     c63d <safe_sub_func_int32_t_s_s+0x38>
    c635:	8b 45 fc             	mov    -0x4(%rbp),%eax
    c638:	2b 45 f8             	sub    -0x8(%rbp),%eax
    c63b:	eb 03                	jmp    c640 <safe_sub_func_int32_t_s_s+0x3b>
    c63d:	8b 45 fc             	mov    -0x4(%rbp),%eax
    c640:	5d                   	pop    %rbp
    c641:	c3                   	retq   

000000000000c642 <safe_mul_func_int32_t_s_s>:
    c642:	f3 0f 1e fa          	endbr64 
    c646:	55                   	push   %rbp
    c647:	48 89 e5             	mov    %rsp,%rbp
    c64a:	89 7d fc             	mov    %edi,-0x4(%rbp)
    c64d:	89 75 f8             	mov    %esi,-0x8(%rbp)
    c650:	83 7d fc 00          	cmpl   $0x0,-0x4(%rbp)
    c654:	7e 14                	jle    c66a <safe_mul_func_int32_t_s_s+0x28>
    c656:	83 7d f8 00          	cmpl   $0x0,-0x8(%rbp)
    c65a:	7e 0e                	jle    c66a <safe_mul_func_int32_t_s_s+0x28>
    c65c:	b8 ff ff ff 7f       	mov    $0x7fffffff,%eax
    c661:	99                   	cltd   
    c662:	f7 7d f8             	idivl  -0x8(%rbp)
    c665:	39 45 fc             	cmp    %eax,-0x4(%rbp)
    c668:	7f 5d                	jg     c6c7 <safe_mul_func_int32_t_s_s+0x85>
    c66a:	83 7d fc 00          	cmpl   $0x0,-0x4(%rbp)
    c66e:	7e 14                	jle    c684 <safe_mul_func_int32_t_s_s+0x42>
    c670:	83 7d f8 00          	cmpl   $0x0,-0x8(%rbp)
    c674:	7f 0e                	jg     c684 <safe_mul_func_int32_t_s_s+0x42>
    c676:	b8 00 00 00 80       	mov    $0x80000000,%eax
    c67b:	99                   	cltd   
    c67c:	f7 7d fc             	idivl  -0x4(%rbp)
    c67f:	39 45 f8             	cmp    %eax,-0x8(%rbp)
    c682:	7c 43                	jl     c6c7 <safe_mul_func_int32_t_s_s+0x85>
    c684:	83 7d fc 00          	cmpl   $0x0,-0x4(%rbp)
    c688:	7f 14                	jg     c69e <safe_mul_func_int32_t_s_s+0x5c>
    c68a:	83 7d f8 00          	cmpl   $0x0,-0x8(%rbp)
    c68e:	7e 0e                	jle    c69e <safe_mul_func_int32_t_s_s+0x5c>
    c690:	b8 00 00 00 80       	mov    $0x80000000,%eax
    c695:	99                   	cltd   
    c696:	f7 7d f8             	idivl  -0x8(%rbp)
    c699:	39 45 fc             	cmp    %eax,-0x4(%rbp)
    c69c:	7c 29                	jl     c6c7 <safe_mul_func_int32_t_s_s+0x85>
    c69e:	83 7d fc 00          	cmpl   $0x0,-0x4(%rbp)
    c6a2:	7f 1a                	jg     c6be <safe_mul_func_int32_t_s_s+0x7c>
    c6a4:	83 7d f8 00          	cmpl   $0x0,-0x8(%rbp)
    c6a8:	7f 14                	jg     c6be <safe_mul_func_int32_t_s_s+0x7c>
    c6aa:	83 7d fc 00          	cmpl   $0x0,-0x4(%rbp)
    c6ae:	74 0e                	je     c6be <safe_mul_func_int32_t_s_s+0x7c>
    c6b0:	b8 ff ff ff 7f       	mov    $0x7fffffff,%eax
    c6b5:	99                   	cltd   
    c6b6:	f7 7d fc             	idivl  -0x4(%rbp)
    c6b9:	39 45 f8             	cmp    %eax,-0x8(%rbp)
    c6bc:	7c 09                	jl     c6c7 <safe_mul_func_int32_t_s_s+0x85>
    c6be:	8b 45 fc             	mov    -0x4(%rbp),%eax
    c6c1:	0f af 45 f8          	imul   -0x8(%rbp),%eax
    c6c5:	eb 03                	jmp    c6ca <safe_mul_func_int32_t_s_s+0x88>
    c6c7:	8b 45 fc             	mov    -0x4(%rbp),%eax
    c6ca:	5d                   	pop    %rbp
    c6cb:	c3                   	retq   

000000000000c6cc <safe_mod_func_int32_t_s_s>:
    c6cc:	f3 0f 1e fa          	endbr64 
    c6d0:	55                   	push   %rbp
    c6d1:	48 89 e5             	mov    %rsp,%rbp
    c6d4:	89 7d fc             	mov    %edi,-0x4(%rbp)
    c6d7:	89 75 f8             	mov    %esi,-0x8(%rbp)
    c6da:	83 7d f8 00          	cmpl   $0x0,-0x8(%rbp)
    c6de:	74 1a                	je     c6fa <safe_mod_func_int32_t_s_s+0x2e>
    c6e0:	81 7d fc 00 00 00 80 	cmpl   $0x80000000,-0x4(%rbp)
    c6e7:	75 06                	jne    c6ef <safe_mod_func_int32_t_s_s+0x23>
    c6e9:	83 7d f8 ff          	cmpl   $0xffffffff,-0x8(%rbp)
    c6ed:	74 0b                	je     c6fa <safe_mod_func_int32_t_s_s+0x2e>
    c6ef:	8b 45 fc             	mov    -0x4(%rbp),%eax
    c6f2:	99                   	cltd   
    c6f3:	f7 7d f8             	idivl  -0x8(%rbp)
    c6f6:	89 d0                	mov    %edx,%eax
    c6f8:	eb 03                	jmp    c6fd <safe_mod_func_int32_t_s_s+0x31>
    c6fa:	8b 45 fc             	mov    -0x4(%rbp),%eax
    c6fd:	5d                   	pop    %rbp
    c6fe:	c3                   	retq   

000000000000c6ff <safe_div_func_int32_t_s_s>:
    c6ff:	f3 0f 1e fa          	endbr64 
    c703:	55                   	push   %rbp
    c704:	48 89 e5             	mov    %rsp,%rbp
    c707:	89 7d fc             	mov    %edi,-0x4(%rbp)
    c70a:	89 75 f8             	mov    %esi,-0x8(%rbp)
    c70d:	83 7d f8 00          	cmpl   $0x0,-0x8(%rbp)
    c711:	74 18                	je     c72b <safe_div_func_int32_t_s_s+0x2c>
    c713:	81 7d fc 00 00 00 80 	cmpl   $0x80000000,-0x4(%rbp)
    c71a:	75 06                	jne    c722 <safe_div_func_int32_t_s_s+0x23>
    c71c:	83 7d f8 ff          	cmpl   $0xffffffff,-0x8(%rbp)
    c720:	74 09                	je     c72b <safe_div_func_int32_t_s_s+0x2c>
    c722:	8b 45 fc             	mov    -0x4(%rbp),%eax
    c725:	99                   	cltd   
    c726:	f7 7d f8             	idivl  -0x8(%rbp)
    c729:	eb 03                	jmp    c72e <safe_div_func_int32_t_s_s+0x2f>
    c72b:	8b 45 fc             	mov    -0x4(%rbp),%eax
    c72e:	5d                   	pop    %rbp
    c72f:	c3                   	retq   

000000000000c730 <safe_lshift_func_int32_t_s_s>:
    c730:	f3 0f 1e fa          	endbr64 
    c734:	55                   	push   %rbp
    c735:	48 89 e5             	mov    %rsp,%rbp
    c738:	89 7d fc             	mov    %edi,-0x4(%rbp)
    c73b:	89 75 f8             	mov    %esi,-0x8(%rbp)
    c73e:	83 7d fc 00          	cmpl   $0x0,-0x4(%rbp)
    c742:	78 2d                	js     c771 <safe_lshift_func_int32_t_s_s+0x41>
    c744:	83 7d f8 00          	cmpl   $0x0,-0x8(%rbp)
    c748:	78 27                	js     c771 <safe_lshift_func_int32_t_s_s+0x41>
    c74a:	83 7d f8 1f          	cmpl   $0x1f,-0x8(%rbp)
    c74e:	7f 21                	jg     c771 <safe_lshift_func_int32_t_s_s+0x41>
    c750:	8b 45 f8             	mov    -0x8(%rbp),%eax
    c753:	ba ff ff ff 7f       	mov    $0x7fffffff,%edx
    c758:	89 c1                	mov    %eax,%ecx
    c75a:	d3 fa                	sar    %cl,%edx
    c75c:	89 d0                	mov    %edx,%eax
    c75e:	39 45 fc             	cmp    %eax,-0x4(%rbp)
    c761:	7f 0e                	jg     c771 <safe_lshift_func_int32_t_s_s+0x41>
    c763:	8b 45 f8             	mov    -0x8(%rbp),%eax
    c766:	8b 55 fc             	mov    -0x4(%rbp),%edx
    c769:	89 c1                	mov    %eax,%ecx
    c76b:	d3 e2                	shl    %cl,%edx
    c76d:	89 d0                	mov    %edx,%eax
    c76f:	eb 03                	jmp    c774 <safe_lshift_func_int32_t_s_s+0x44>
    c771:	8b 45 fc             	mov    -0x4(%rbp),%eax
    c774:	5d                   	pop    %rbp
    c775:	c3                   	retq   

000000000000c776 <safe_lshift_func_int32_t_s_u>:
    c776:	f3 0f 1e fa          	endbr64 
    c77a:	55                   	push   %rbp
    c77b:	48 89 e5             	mov    %rsp,%rbp
    c77e:	89 7d fc             	mov    %edi,-0x4(%rbp)
    c781:	89 75 f8             	mov    %esi,-0x8(%rbp)
    c784:	83 7d fc 00          	cmpl   $0x0,-0x4(%rbp)
    c788:	78 27                	js     c7b1 <safe_lshift_func_int32_t_s_u+0x3b>
    c78a:	83 7d f8 1f          	cmpl   $0x1f,-0x8(%rbp)
    c78e:	77 21                	ja     c7b1 <safe_lshift_func_int32_t_s_u+0x3b>
    c790:	8b 45 f8             	mov    -0x8(%rbp),%eax
    c793:	ba ff ff ff 7f       	mov    $0x7fffffff,%edx
    c798:	89 c1                	mov    %eax,%ecx
    c79a:	d3 fa                	sar    %cl,%edx
    c79c:	89 d0                	mov    %edx,%eax
    c79e:	39 45 fc             	cmp    %eax,-0x4(%rbp)
    c7a1:	7f 0e                	jg     c7b1 <safe_lshift_func_int32_t_s_u+0x3b>
    c7a3:	8b 45 f8             	mov    -0x8(%rbp),%eax
    c7a6:	8b 55 fc             	mov    -0x4(%rbp),%edx
    c7a9:	89 c1                	mov    %eax,%ecx
    c7ab:	d3 e2                	shl    %cl,%edx
    c7ad:	89 d0                	mov    %edx,%eax
    c7af:	eb 03                	jmp    c7b4 <safe_lshift_func_int32_t_s_u+0x3e>
    c7b1:	8b 45 fc             	mov    -0x4(%rbp),%eax
    c7b4:	5d                   	pop    %rbp
    c7b5:	c3                   	retq   

000000000000c7b6 <safe_rshift_func_int32_t_s_s>:
    c7b6:	f3 0f 1e fa          	endbr64 
    c7ba:	55                   	push   %rbp
    c7bb:	48 89 e5             	mov    %rsp,%rbp
    c7be:	89 7d fc             	mov    %edi,-0x4(%rbp)
    c7c1:	89 75 f8             	mov    %esi,-0x8(%rbp)
    c7c4:	83 7d fc 00          	cmpl   $0x0,-0x4(%rbp)
    c7c8:	78 1a                	js     c7e4 <safe_rshift_func_int32_t_s_s+0x2e>
    c7ca:	83 7d f8 00          	cmpl   $0x0,-0x8(%rbp)
    c7ce:	78 14                	js     c7e4 <safe_rshift_func_int32_t_s_s+0x2e>
    c7d0:	83 7d f8 1f          	cmpl   $0x1f,-0x8(%rbp)
    c7d4:	7f 0e                	jg     c7e4 <safe_rshift_func_int32_t_s_s+0x2e>
    c7d6:	8b 45 f8             	mov    -0x8(%rbp),%eax
    c7d9:	8b 55 fc             	mov    -0x4(%rbp),%edx
    c7dc:	89 c1                	mov    %eax,%ecx
    c7de:	d3 fa                	sar    %cl,%edx
    c7e0:	89 d0                	mov    %edx,%eax
    c7e2:	eb 03                	jmp    c7e7 <safe_rshift_func_int32_t_s_s+0x31>
    c7e4:	8b 45 fc             	mov    -0x4(%rbp),%eax
    c7e7:	5d                   	pop    %rbp
    c7e8:	c3                   	retq   

000000000000c7e9 <safe_rshift_func_int32_t_s_u>:
    c7e9:	f3 0f 1e fa          	endbr64 
    c7ed:	55                   	push   %rbp
    c7ee:	48 89 e5             	mov    %rsp,%rbp
    c7f1:	89 7d fc             	mov    %edi,-0x4(%rbp)
    c7f4:	89 75 f8             	mov    %esi,-0x8(%rbp)
    c7f7:	83 7d fc 00          	cmpl   $0x0,-0x4(%rbp)
    c7fb:	78 14                	js     c811 <safe_rshift_func_int32_t_s_u+0x28>
    c7fd:	83 7d f8 1f          	cmpl   $0x1f,-0x8(%rbp)
    c801:	77 0e                	ja     c811 <safe_rshift_func_int32_t_s_u+0x28>
    c803:	8b 45 f8             	mov    -0x8(%rbp),%eax
    c806:	8b 55 fc             	mov    -0x4(%rbp),%edx
    c809:	89 c1                	mov    %eax,%ecx
    c80b:	d3 fa                	sar    %cl,%edx
    c80d:	89 d0                	mov    %edx,%eax
    c80f:	eb 03                	jmp    c814 <safe_rshift_func_int32_t_s_u+0x2b>
    c811:	8b 45 fc             	mov    -0x4(%rbp),%eax
    c814:	5d                   	pop    %rbp
    c815:	c3                   	retq   

000000000000c816 <safe_unary_minus_func_int64_t_s>:
    c816:	f3 0f 1e fa          	endbr64 
    c81a:	55                   	push   %rbp
    c81b:	48 89 e5             	mov    %rsp,%rbp
    c81e:	48 89 7d f8          	mov    %rdi,-0x8(%rbp)
    c822:	48 b8 00 00 00 00 00 	movabs $0x8000000000000000,%rax
    c829:	00 00 80 
    c82c:	48 39 45 f8          	cmp    %rax,-0x8(%rbp)
    c830:	74 09                	je     c83b <safe_unary_minus_func_int64_t_s+0x25>
    c832:	48 8b 45 f8          	mov    -0x8(%rbp),%rax
    c836:	48 f7 d8             	neg    %rax
    c839:	eb 04                	jmp    c83f <safe_unary_minus_func_int64_t_s+0x29>
    c83b:	48 8b 45 f8          	mov    -0x8(%rbp),%rax
    c83f:	5d                   	pop    %rbp
    c840:	c3                   	retq   

000000000000c841 <safe_add_func_int64_t_s_s>:
    c841:	f3 0f 1e fa          	endbr64 
    c845:	55                   	push   %rbp
    c846:	48 89 e5             	mov    %rsp,%rbp
    c849:	48 89 7d f8          	mov    %rdi,-0x8(%rbp)
    c84d:	48 89 75 f0          	mov    %rsi,-0x10(%rbp)
    c851:	48 83 7d f8 00       	cmpq   $0x0,-0x8(%rbp)
    c856:	7e 1b                	jle    c873 <safe_add_func_int64_t_s_s+0x32>
    c858:	48 83 7d f0 00       	cmpq   $0x0,-0x10(%rbp)
    c85d:	7e 14                	jle    c873 <safe_add_func_int64_t_s_s+0x32>
    c85f:	48 b8 ff ff ff ff ff 	movabs $0x7fffffffffffffff,%rax
    c866:	ff ff 7f 
    c869:	48 2b 45 f0          	sub    -0x10(%rbp),%rax
    c86d:	48 39 45 f8          	cmp    %rax,-0x8(%rbp)
    c871:	7f 2f                	jg     c8a2 <safe_add_func_int64_t_s_s+0x61>
    c873:	48 83 7d f8 00       	cmpq   $0x0,-0x8(%rbp)
    c878:	79 1b                	jns    c895 <safe_add_func_int64_t_s_s+0x54>
    c87a:	48 83 7d f0 00       	cmpq   $0x0,-0x10(%rbp)
    c87f:	79 14                	jns    c895 <safe_add_func_int64_t_s_s+0x54>
    c881:	48 b8 00 00 00 00 00 	movabs $0x8000000000000000,%rax
    c888:	00 00 80 
    c88b:	48 2b 45 f0          	sub    -0x10(%rbp),%rax
    c88f:	48 39 45 f8          	cmp    %rax,-0x8(%rbp)
    c893:	7c 0d                	jl     c8a2 <safe_add_func_int64_t_s_s+0x61>
    c895:	48 8b 55 f8          	mov    -0x8(%rbp),%rdx
    c899:	48 8b 45 f0          	mov    -0x10(%rbp),%rax
    c89d:	48 01 d0             	add    %rdx,%rax
    c8a0:	eb 04                	jmp    c8a6 <safe_add_func_int64_t_s_s+0x65>
    c8a2:	48 8b 45 f8          	mov    -0x8(%rbp),%rax
    c8a6:	5d                   	pop    %rbp
    c8a7:	c3                   	retq   

000000000000c8a8 <safe_sub_func_int64_t_s_s>:
    c8a8:	f3 0f 1e fa          	endbr64 
    c8ac:	55                   	push   %rbp
    c8ad:	48 89 e5             	mov    %rsp,%rbp
    c8b0:	48 89 7d f8          	mov    %rdi,-0x8(%rbp)
    c8b4:	48 89 75 f0          	mov    %rsi,-0x10(%rbp)
    c8b8:	48 8b 45 f8          	mov    -0x8(%rbp),%rax
    c8bc:	48 33 45 f0          	xor    -0x10(%rbp),%rax
    c8c0:	48 89 c2             	mov    %rax,%rdx
    c8c3:	48 8b 45 f8          	mov    -0x8(%rbp),%rax
    c8c7:	48 33 45 f0          	xor    -0x10(%rbp),%rax
    c8cb:	48 b9 00 00 00 00 00 	movabs $0x8000000000000000,%rcx
    c8d2:	00 00 80 
    c8d5:	48 21 c8             	and    %rcx,%rax
    c8d8:	48 33 45 f8          	xor    -0x8(%rbp),%rax
    c8dc:	48 2b 45 f0          	sub    -0x10(%rbp),%rax
    c8e0:	48 33 45 f0          	xor    -0x10(%rbp),%rax
    c8e4:	48 21 d0             	and    %rdx,%rax
    c8e7:	48 85 c0             	test   %rax,%rax
    c8ea:	78 0a                	js     c8f6 <safe_sub_func_int64_t_s_s+0x4e>
    c8ec:	48 8b 45 f8          	mov    -0x8(%rbp),%rax
    c8f0:	48 2b 45 f0          	sub    -0x10(%rbp),%rax
    c8f4:	eb 04                	jmp    c8fa <safe_sub_func_int64_t_s_s+0x52>
    c8f6:	48 8b 45 f8          	mov    -0x8(%rbp),%rax
    c8fa:	5d                   	pop    %rbp
    c8fb:	c3                   	retq   

000000000000c8fc <safe_mul_func_int64_t_s_s>:
    c8fc:	f3 0f 1e fa          	endbr64 
    c900:	55                   	push   %rbp
    c901:	48 89 e5             	mov    %rsp,%rbp
    c904:	48 89 7d f8          	mov    %rdi,-0x8(%rbp)
    c908:	48 89 75 f0          	mov    %rsi,-0x10(%rbp)
    c90c:	48 83 7d f8 00       	cmpq   $0x0,-0x8(%rbp)
    c911:	7e 1d                	jle    c930 <safe_mul_func_int64_t_s_s+0x34>
    c913:	48 83 7d f0 00       	cmpq   $0x0,-0x10(%rbp)
    c918:	7e 16                	jle    c930 <safe_mul_func_int64_t_s_s+0x34>
    c91a:	48 b8 ff ff ff ff ff 	movabs $0x7fffffffffffffff,%rax
    c921:	ff ff 7f 
    c924:	48 99                	cqto   
    c926:	48 f7 7d f0          	idivq  -0x10(%rbp)
    c92a:	48 39 45 f8          	cmp    %rax,-0x8(%rbp)
    c92e:	7f 7e                	jg     c9ae <safe_mul_func_int64_t_s_s+0xb2>
    c930:	48 83 7d f8 00       	cmpq   $0x0,-0x8(%rbp)
    c935:	7e 1d                	jle    c954 <safe_mul_func_int64_t_s_s+0x58>
    c937:	48 83 7d f0 00       	cmpq   $0x0,-0x10(%rbp)
    c93c:	7f 16                	jg     c954 <safe_mul_func_int64_t_s_s+0x58>
    c93e:	48 b8 00 00 00 00 00 	movabs $0x8000000000000000,%rax
    c945:	00 00 80 
    c948:	48 99                	cqto   
    c94a:	48 f7 7d f8          	idivq  -0x8(%rbp)
    c94e:	48 39 45 f0          	cmp    %rax,-0x10(%rbp)
    c952:	7c 5a                	jl     c9ae <safe_mul_func_int64_t_s_s+0xb2>
    c954:	48 83 7d f8 00       	cmpq   $0x0,-0x8(%rbp)
    c959:	7f 1d                	jg     c978 <safe_mul_func_int64_t_s_s+0x7c>
    c95b:	48 83 7d f0 00       	cmpq   $0x0,-0x10(%rbp)
    c960:	7e 16                	jle    c978 <safe_mul_func_int64_t_s_s+0x7c>
    c962:	48 b8 00 00 00 00 00 	movabs $0x8000000000000000,%rax
    c969:	00 00 80 
    c96c:	48 99                	cqto   
    c96e:	48 f7 7d f0          	idivq  -0x10(%rbp)
    c972:	48 39 45 f8          	cmp    %rax,-0x8(%rbp)
    c976:	7c 36                	jl     c9ae <safe_mul_func_int64_t_s_s+0xb2>
    c978:	48 83 7d f8 00       	cmpq   $0x0,-0x8(%rbp)
    c97d:	7f 24                	jg     c9a3 <safe_mul_func_int64_t_s_s+0xa7>
    c97f:	48 83 7d f0 00       	cmpq   $0x0,-0x10(%rbp)
    c984:	7f 1d                	jg     c9a3 <safe_mul_func_int64_t_s_s+0xa7>
    c986:	48 83 7d f8 00       	cmpq   $0x0,-0x8(%rbp)
    c98b:	74 16                	je     c9a3 <safe_mul_func_int64_t_s_s+0xa7>
    c98d:	48 b8 ff ff ff ff ff 	movabs $0x7fffffffffffffff,%rax
    c994:	ff ff 7f 
    c997:	48 99                	cqto   
    c999:	48 f7 7d f8          	idivq  -0x8(%rbp)
    c99d:	48 39 45 f0          	cmp    %rax,-0x10(%rbp)
    c9a1:	7c 0b                	jl     c9ae <safe_mul_func_int64_t_s_s+0xb2>
    c9a3:	48 8b 45 f8          	mov    -0x8(%rbp),%rax
    c9a7:	48 0f af 45 f0       	imul   -0x10(%rbp),%rax
    c9ac:	eb 04                	jmp    c9b2 <safe_mul_func_int64_t_s_s+0xb6>
    c9ae:	48 8b 45 f8          	mov    -0x8(%rbp),%rax
    c9b2:	5d                   	pop    %rbp
    c9b3:	c3                   	retq   

000000000000c9b4 <safe_mod_func_int64_t_s_s>:
    c9b4:	f3 0f 1e fa          	endbr64 
    c9b8:	55                   	push   %rbp
    c9b9:	48 89 e5             	mov    %rsp,%rbp
    c9bc:	48 89 7d f8          	mov    %rdi,-0x8(%rbp)
    c9c0:	48 89 75 f0          	mov    %rsi,-0x10(%rbp)
    c9c4:	48 83 7d f0 00       	cmpq   $0x0,-0x10(%rbp)
    c9c9:	74 26                	je     c9f1 <safe_mod_func_int64_t_s_s+0x3d>
    c9cb:	48 b8 00 00 00 00 00 	movabs $0x8000000000000000,%rax
    c9d2:	00 00 80 
    c9d5:	48 39 45 f8          	cmp    %rax,-0x8(%rbp)
    c9d9:	75 07                	jne    c9e2 <safe_mod_func_int64_t_s_s+0x2e>
    c9db:	48 83 7d f0 ff       	cmpq   $0xffffffffffffffff,-0x10(%rbp)
    c9e0:	74 0f                	je     c9f1 <safe_mod_func_int64_t_s_s+0x3d>
    c9e2:	48 8b 45 f8          	mov    -0x8(%rbp),%rax
    c9e6:	48 99                	cqto   
    c9e8:	48 f7 7d f0          	idivq  -0x10(%rbp)
    c9ec:	48 89 d0             	mov    %rdx,%rax
    c9ef:	eb 04                	jmp    c9f5 <safe_mod_func_int64_t_s_s+0x41>
    c9f1:	48 8b 45 f8          	mov    -0x8(%rbp),%rax
    c9f5:	5d                   	pop    %rbp
    c9f6:	c3                   	retq   

000000000000c9f7 <safe_div_func_int64_t_s_s>:
    c9f7:	f3 0f 1e fa          	endbr64 
    c9fb:	55                   	push   %rbp
    c9fc:	48 89 e5             	mov    %rsp,%rbp
    c9ff:	48 89 7d f8          	mov    %rdi,-0x8(%rbp)
    ca03:	48 89 75 f0          	mov    %rsi,-0x10(%rbp)
    ca07:	48 83 7d f0 00       	cmpq   $0x0,-0x10(%rbp)
    ca0c:	74 23                	je     ca31 <safe_div_func_int64_t_s_s+0x3a>
    ca0e:	48 b8 00 00 00 00 00 	movabs $0x8000000000000000,%rax
    ca15:	00 00 80 
    ca18:	48 39 45 f8          	cmp    %rax,-0x8(%rbp)
    ca1c:	75 07                	jne    ca25 <safe_div_func_int64_t_s_s+0x2e>
    ca1e:	48 83 7d f0 ff       	cmpq   $0xffffffffffffffff,-0x10(%rbp)
    ca23:	74 0c                	je     ca31 <safe_div_func_int64_t_s_s+0x3a>
    ca25:	48 8b 45 f8          	mov    -0x8(%rbp),%rax
    ca29:	48 99                	cqto   
    ca2b:	48 f7 7d f0          	idivq  -0x10(%rbp)
    ca2f:	eb 04                	jmp    ca35 <safe_div_func_int64_t_s_s+0x3e>
    ca31:	48 8b 45 f8          	mov    -0x8(%rbp),%rax
    ca35:	5d                   	pop    %rbp
    ca36:	c3                   	retq   

000000000000ca37 <safe_lshift_func_int64_t_s_s>:
    ca37:	f3 0f 1e fa          	endbr64 
    ca3b:	55                   	push   %rbp
    ca3c:	48 89 e5             	mov    %rsp,%rbp
    ca3f:	48 89 7d f8          	mov    %rdi,-0x8(%rbp)
    ca43:	89 75 f4             	mov    %esi,-0xc(%rbp)
    ca46:	48 83 7d f8 00       	cmpq   $0x0,-0x8(%rbp)
    ca4b:	78 38                	js     ca85 <safe_lshift_func_int64_t_s_s+0x4e>
    ca4d:	83 7d f4 00          	cmpl   $0x0,-0xc(%rbp)
    ca51:	78 32                	js     ca85 <safe_lshift_func_int64_t_s_s+0x4e>
    ca53:	83 7d f4 1f          	cmpl   $0x1f,-0xc(%rbp)
    ca57:	7f 2c                	jg     ca85 <safe_lshift_func_int64_t_s_s+0x4e>
    ca59:	8b 45 f4             	mov    -0xc(%rbp),%eax
    ca5c:	48 ba ff ff ff ff ff 	movabs $0x7fffffffffffffff,%rdx
    ca63:	ff ff 7f 
    ca66:	89 c1                	mov    %eax,%ecx
    ca68:	48 d3 fa             	sar    %cl,%rdx
    ca6b:	48 89 d0             	mov    %rdx,%rax
    ca6e:	48 39 45 f8          	cmp    %rax,-0x8(%rbp)
    ca72:	7f 11                	jg     ca85 <safe_lshift_func_int64_t_s_s+0x4e>
    ca74:	8b 45 f4             	mov    -0xc(%rbp),%eax
    ca77:	48 8b 55 f8          	mov    -0x8(%rbp),%rdx
    ca7b:	89 c1                	mov    %eax,%ecx
    ca7d:	48 d3 e2             	shl    %cl,%rdx
    ca80:	48 89 d0             	mov    %rdx,%rax
    ca83:	eb 04                	jmp    ca89 <safe_lshift_func_int64_t_s_s+0x52>
    ca85:	48 8b 45 f8          	mov    -0x8(%rbp),%rax
    ca89:	5d                   	pop    %rbp
    ca8a:	c3                   	retq   

000000000000ca8b <safe_lshift_func_int64_t_s_u>:
    ca8b:	f3 0f 1e fa          	endbr64 
    ca8f:	55                   	push   %rbp
    ca90:	48 89 e5             	mov    %rsp,%rbp
    ca93:	48 89 7d f8          	mov    %rdi,-0x8(%rbp)
    ca97:	89 75 f4             	mov    %esi,-0xc(%rbp)
    ca9a:	48 83 7d f8 00       	cmpq   $0x0,-0x8(%rbp)
    ca9f:	78 32                	js     cad3 <safe_lshift_func_int64_t_s_u+0x48>
    caa1:	83 7d f4 1f          	cmpl   $0x1f,-0xc(%rbp)
    caa5:	77 2c                	ja     cad3 <safe_lshift_func_int64_t_s_u+0x48>
    caa7:	8b 45 f4             	mov    -0xc(%rbp),%eax
    caaa:	48 ba ff ff ff ff ff 	movabs $0x7fffffffffffffff,%rdx
    cab1:	ff ff 7f 
    cab4:	89 c1                	mov    %eax,%ecx
    cab6:	48 d3 fa             	sar    %cl,%rdx
    cab9:	48 89 d0             	mov    %rdx,%rax
    cabc:	48 39 45 f8          	cmp    %rax,-0x8(%rbp)
    cac0:	7f 11                	jg     cad3 <safe_lshift_func_int64_t_s_u+0x48>
    cac2:	8b 45 f4             	mov    -0xc(%rbp),%eax
    cac5:	48 8b 55 f8          	mov    -0x8(%rbp),%rdx
    cac9:	89 c1                	mov    %eax,%ecx
    cacb:	48 d3 e2             	shl    %cl,%rdx
    cace:	48 89 d0             	mov    %rdx,%rax
    cad1:	eb 04                	jmp    cad7 <safe_lshift_func_int64_t_s_u+0x4c>
    cad3:	48 8b 45 f8          	mov    -0x8(%rbp),%rax
    cad7:	5d                   	pop    %rbp
    cad8:	c3                   	retq   

000000000000cad9 <safe_rshift_func_int64_t_s_s>:
    cad9:	f3 0f 1e fa          	endbr64 
    cadd:	55                   	push   %rbp
    cade:	48 89 e5             	mov    %rsp,%rbp
    cae1:	48 89 7d f8          	mov    %rdi,-0x8(%rbp)
    cae5:	89 75 f4             	mov    %esi,-0xc(%rbp)
    cae8:	48 83 7d f8 00       	cmpq   $0x0,-0x8(%rbp)
    caed:	78 1d                	js     cb0c <safe_rshift_func_int64_t_s_s+0x33>
    caef:	83 7d f4 00          	cmpl   $0x0,-0xc(%rbp)
    caf3:	78 17                	js     cb0c <safe_rshift_func_int64_t_s_s+0x33>
    caf5:	83 7d f4 1f          	cmpl   $0x1f,-0xc(%rbp)
    caf9:	7f 11                	jg     cb0c <safe_rshift_func_int64_t_s_s+0x33>
    cafb:	8b 45 f4             	mov    -0xc(%rbp),%eax
    cafe:	48 8b 55 f8          	mov    -0x8(%rbp),%rdx
    cb02:	89 c1                	mov    %eax,%ecx
    cb04:	48 d3 fa             	sar    %cl,%rdx
    cb07:	48 89 d0             	mov    %rdx,%rax
    cb0a:	eb 04                	jmp    cb10 <safe_rshift_func_int64_t_s_s+0x37>
    cb0c:	48 8b 45 f8          	mov    -0x8(%rbp),%rax
    cb10:	5d                   	pop    %rbp
    cb11:	c3                   	retq   

000000000000cb12 <safe_rshift_func_int64_t_s_u>:
    cb12:	f3 0f 1e fa          	endbr64 
    cb16:	55                   	push   %rbp
    cb17:	48 89 e5             	mov    %rsp,%rbp
    cb1a:	48 89 7d f8          	mov    %rdi,-0x8(%rbp)
    cb1e:	89 75 f4             	mov    %esi,-0xc(%rbp)
    cb21:	48 83 7d f8 00       	cmpq   $0x0,-0x8(%rbp)
    cb26:	78 17                	js     cb3f <safe_rshift_func_int64_t_s_u+0x2d>
    cb28:	83 7d f4 1f          	cmpl   $0x1f,-0xc(%rbp)
    cb2c:	77 11                	ja     cb3f <safe_rshift_func_int64_t_s_u+0x2d>
    cb2e:	8b 45 f4             	mov    -0xc(%rbp),%eax
    cb31:	48 8b 55 f8          	mov    -0x8(%rbp),%rdx
    cb35:	89 c1                	mov    %eax,%ecx
    cb37:	48 d3 fa             	sar    %cl,%rdx
    cb3a:	48 89 d0             	mov    %rdx,%rax
    cb3d:	eb 04                	jmp    cb43 <safe_rshift_func_int64_t_s_u+0x31>
    cb3f:	48 8b 45 f8          	mov    -0x8(%rbp),%rax
    cb43:	5d                   	pop    %rbp
    cb44:	c3                   	retq   

000000000000cb45 <safe_unary_minus_func_uint8_t_u>:
    cb45:	f3 0f 1e fa          	endbr64 
    cb49:	55                   	push   %rbp
    cb4a:	48 89 e5             	mov    %rsp,%rbp
    cb4d:	89 f8                	mov    %edi,%eax
    cb4f:	88 45 fc             	mov    %al,-0x4(%rbp)
    cb52:	0f b6 45 fc          	movzbl -0x4(%rbp),%eax
    cb56:	f7 d8                	neg    %eax
    cb58:	5d                   	pop    %rbp
    cb59:	c3                   	retq   

000000000000cb5a <safe_add_func_uint8_t_u_u>:
    cb5a:	f3 0f 1e fa          	endbr64 
    cb5e:	55                   	push   %rbp
    cb5f:	48 89 e5             	mov    %rsp,%rbp
    cb62:	89 fa                	mov    %edi,%edx
    cb64:	89 f0                	mov    %esi,%eax
    cb66:	88 55 fc             	mov    %dl,-0x4(%rbp)
    cb69:	88 45 f8             	mov    %al,-0x8(%rbp)
    cb6c:	0f b6 55 fc          	movzbl -0x4(%rbp),%edx
    cb70:	0f b6 45 f8          	movzbl -0x8(%rbp),%eax
    cb74:	01 d0                	add    %edx,%eax
    cb76:	5d                   	pop    %rbp
    cb77:	c3                   	retq   

000000000000cb78 <safe_sub_func_uint8_t_u_u>:
    cb78:	f3 0f 1e fa          	endbr64 
    cb7c:	55                   	push   %rbp
    cb7d:	48 89 e5             	mov    %rsp,%rbp
    cb80:	89 fa                	mov    %edi,%edx
    cb82:	89 f0                	mov    %esi,%eax
    cb84:	88 55 fc             	mov    %dl,-0x4(%rbp)
    cb87:	88 45 f8             	mov    %al,-0x8(%rbp)
    cb8a:	0f b6 45 fc          	movzbl -0x4(%rbp),%eax
    cb8e:	2a 45 f8             	sub    -0x8(%rbp),%al
    cb91:	5d                   	pop    %rbp
    cb92:	c3                   	retq   

000000000000cb93 <safe_mul_func_uint8_t_u_u>:
    cb93:	f3 0f 1e fa          	endbr64 
    cb97:	55                   	push   %rbp
    cb98:	48 89 e5             	mov    %rsp,%rbp
    cb9b:	89 fa                	mov    %edi,%edx
    cb9d:	89 f0                	mov    %esi,%eax
    cb9f:	88 55 fc             	mov    %dl,-0x4(%rbp)
    cba2:	88 45 f8             	mov    %al,-0x8(%rbp)
    cba5:	0f b6 45 fc          	movzbl -0x4(%rbp),%eax
    cba9:	f6 65 f8             	mulb   -0x8(%rbp)
    cbac:	5d                   	pop    %rbp
    cbad:	c3                   	retq   

000000000000cbae <safe_mod_func_uint8_t_u_u>:
    cbae:	f3 0f 1e fa          	endbr64 
    cbb2:	55                   	push   %rbp
    cbb3:	48 89 e5             	mov    %rsp,%rbp
    cbb6:	89 fa                	mov    %edi,%edx
    cbb8:	89 f0                	mov    %esi,%eax
    cbba:	88 55 fc             	mov    %dl,-0x4(%rbp)
    cbbd:	88 45 f8             	mov    %al,-0x8(%rbp)
    cbc0:	80 7d f8 00          	cmpb   $0x0,-0x8(%rbp)
    cbc4:	74 0f                	je     cbd5 <safe_mod_func_uint8_t_u_u+0x27>
    cbc6:	0f b6 45 fc          	movzbl -0x4(%rbp),%eax
    cbca:	0f b6 c0             	movzbl %al,%eax
    cbcd:	f6 75 f8             	divb   -0x8(%rbp)
    cbd0:	0f b6 c4             	movzbl %ah,%eax
    cbd3:	eb 04                	jmp    cbd9 <safe_mod_func_uint8_t_u_u+0x2b>
    cbd5:	0f b6 45 fc          	movzbl -0x4(%rbp),%eax
    cbd9:	5d                   	pop    %rbp
    cbda:	c3                   	retq   

000000000000cbdb <safe_div_func_uint8_t_u_u>:
    cbdb:	f3 0f 1e fa          	endbr64 
    cbdf:	55                   	push   %rbp
    cbe0:	48 89 e5             	mov    %rsp,%rbp
    cbe3:	89 fa                	mov    %edi,%edx
    cbe5:	89 f0                	mov    %esi,%eax
    cbe7:	88 55 fc             	mov    %dl,-0x4(%rbp)
    cbea:	88 45 f8             	mov    %al,-0x8(%rbp)
    cbed:	80 7d f8 00          	cmpb   $0x0,-0x8(%rbp)
    cbf1:	74 0c                	je     cbff <safe_div_func_uint8_t_u_u+0x24>
    cbf3:	0f b6 45 fc          	movzbl -0x4(%rbp),%eax
    cbf7:	0f b6 c0             	movzbl %al,%eax
    cbfa:	f6 75 f8             	divb   -0x8(%rbp)
    cbfd:	eb 04                	jmp    cc03 <safe_div_func_uint8_t_u_u+0x28>
    cbff:	0f b6 45 fc          	movzbl -0x4(%rbp),%eax
    cc03:	5d                   	pop    %rbp
    cc04:	c3                   	retq   

000000000000cc05 <safe_lshift_func_uint8_t_u_s>:
    cc05:	f3 0f 1e fa          	endbr64 
    cc09:	55                   	push   %rbp
    cc0a:	48 89 e5             	mov    %rsp,%rbp
    cc0d:	89 f8                	mov    %edi,%eax
    cc0f:	89 75 f8             	mov    %esi,-0x8(%rbp)
    cc12:	88 45 fc             	mov    %al,-0x4(%rbp)
    cc15:	83 7d f8 00          	cmpl   $0x0,-0x8(%rbp)
    cc19:	78 2b                	js     cc46 <safe_lshift_func_uint8_t_u_s+0x41>
    cc1b:	83 7d f8 1f          	cmpl   $0x1f,-0x8(%rbp)
    cc1f:	7f 25                	jg     cc46 <safe_lshift_func_uint8_t_u_s+0x41>
    cc21:	0f b6 55 fc          	movzbl -0x4(%rbp),%edx
    cc25:	8b 45 f8             	mov    -0x8(%rbp),%eax
    cc28:	be ff 00 00 00       	mov    $0xff,%esi
    cc2d:	89 c1                	mov    %eax,%ecx
    cc2f:	d3 fe                	sar    %cl,%esi
    cc31:	89 f0                	mov    %esi,%eax
    cc33:	39 c2                	cmp    %eax,%edx
    cc35:	7f 0f                	jg     cc46 <safe_lshift_func_uint8_t_u_s+0x41>
    cc37:	0f b6 55 fc          	movzbl -0x4(%rbp),%edx
    cc3b:	8b 45 f8             	mov    -0x8(%rbp),%eax
    cc3e:	89 c1                	mov    %eax,%ecx
    cc40:	d3 e2                	shl    %cl,%edx
    cc42:	89 d0                	mov    %edx,%eax
    cc44:	eb 04                	jmp    cc4a <safe_lshift_func_uint8_t_u_s+0x45>
    cc46:	0f b6 45 fc          	movzbl -0x4(%rbp),%eax
    cc4a:	5d                   	pop    %rbp
    cc4b:	c3                   	retq   

000000000000cc4c <safe_lshift_func_uint8_t_u_u>:
    cc4c:	f3 0f 1e fa          	endbr64 
    cc50:	55                   	push   %rbp
    cc51:	48 89 e5             	mov    %rsp,%rbp
    cc54:	89 f8                	mov    %edi,%eax
    cc56:	89 75 f8             	mov    %esi,-0x8(%rbp)
    cc59:	88 45 fc             	mov    %al,-0x4(%rbp)
    cc5c:	83 7d f8 1f          	cmpl   $0x1f,-0x8(%rbp)
    cc60:	77 25                	ja     cc87 <safe_lshift_func_uint8_t_u_u+0x3b>
    cc62:	0f b6 55 fc          	movzbl -0x4(%rbp),%edx
    cc66:	8b 45 f8             	mov    -0x8(%rbp),%eax
    cc69:	be ff 00 00 00       	mov    $0xff,%esi
    cc6e:	89 c1                	mov    %eax,%ecx
    cc70:	d3 fe                	sar    %cl,%esi
    cc72:	89 f0                	mov    %esi,%eax
    cc74:	39 c2                	cmp    %eax,%edx
    cc76:	7f 0f                	jg     cc87 <safe_lshift_func_uint8_t_u_u+0x3b>
    cc78:	0f b6 55 fc          	movzbl -0x4(%rbp),%edx
    cc7c:	8b 45 f8             	mov    -0x8(%rbp),%eax
    cc7f:	89 c1                	mov    %eax,%ecx
    cc81:	d3 e2                	shl    %cl,%edx
    cc83:	89 d0                	mov    %edx,%eax
    cc85:	eb 04                	jmp    cc8b <safe_lshift_func_uint8_t_u_u+0x3f>
    cc87:	0f b6 45 fc          	movzbl -0x4(%rbp),%eax
    cc8b:	5d                   	pop    %rbp
    cc8c:	c3                   	retq   

000000000000cc8d <safe_rshift_func_uint8_t_u_s>:
    cc8d:	f3 0f 1e fa          	endbr64 
    cc91:	55                   	push   %rbp
    cc92:	48 89 e5             	mov    %rsp,%rbp
    cc95:	89 f8                	mov    %edi,%eax
    cc97:	89 75 f8             	mov    %esi,-0x8(%rbp)
    cc9a:	88 45 fc             	mov    %al,-0x4(%rbp)
    cc9d:	83 7d f8 00          	cmpl   $0x0,-0x8(%rbp)
    cca1:	78 15                	js     ccb8 <safe_rshift_func_uint8_t_u_s+0x2b>
    cca3:	83 7d f8 1f          	cmpl   $0x1f,-0x8(%rbp)
    cca7:	7f 0f                	jg     ccb8 <safe_rshift_func_uint8_t_u_s+0x2b>
    cca9:	0f b6 55 fc          	movzbl -0x4(%rbp),%edx
    ccad:	8b 45 f8             	mov    -0x8(%rbp),%eax
    ccb0:	89 c1                	mov    %eax,%ecx
    ccb2:	d3 fa                	sar    %cl,%edx
    ccb4:	89 d0                	mov    %edx,%eax
    ccb6:	eb 04                	jmp    ccbc <safe_rshift_func_uint8_t_u_s+0x2f>
    ccb8:	0f b6 45 fc          	movzbl -0x4(%rbp),%eax
    ccbc:	5d                   	pop    %rbp
    ccbd:	c3                   	retq   

000000000000ccbe <safe_rshift_func_uint8_t_u_u>:
    ccbe:	f3 0f 1e fa          	endbr64 
    ccc2:	55                   	push   %rbp
    ccc3:	48 89 e5             	mov    %rsp,%rbp
    ccc6:	89 f8                	mov    %edi,%eax
    ccc8:	89 75 f8             	mov    %esi,-0x8(%rbp)
    cccb:	88 45 fc             	mov    %al,-0x4(%rbp)
    ccce:	83 7d f8 1f          	cmpl   $0x1f,-0x8(%rbp)
    ccd2:	77 0f                	ja     cce3 <safe_rshift_func_uint8_t_u_u+0x25>
    ccd4:	0f b6 55 fc          	movzbl -0x4(%rbp),%edx
    ccd8:	8b 45 f8             	mov    -0x8(%rbp),%eax
    ccdb:	89 c1                	mov    %eax,%ecx
    ccdd:	d3 fa                	sar    %cl,%edx
    ccdf:	89 d0                	mov    %edx,%eax
    cce1:	eb 04                	jmp    cce7 <safe_rshift_func_uint8_t_u_u+0x29>
    cce3:	0f b6 45 fc          	movzbl -0x4(%rbp),%eax
    cce7:	5d                   	pop    %rbp
    cce8:	c3                   	retq   

000000000000cce9 <safe_unary_minus_func_uint16_t_u>:
    cce9:	f3 0f 1e fa          	endbr64 
    cced:	55                   	push   %rbp
    ccee:	48 89 e5             	mov    %rsp,%rbp
    ccf1:	89 f8                	mov    %edi,%eax
    ccf3:	66 89 45 fc          	mov    %ax,-0x4(%rbp)
    ccf7:	0f b7 45 fc          	movzwl -0x4(%rbp),%eax
    ccfb:	f7 d8                	neg    %eax
    ccfd:	5d                   	pop    %rbp
    ccfe:	c3                   	retq   

000000000000ccff <safe_add_func_uint16_t_u_u>:
    ccff:	f3 0f 1e fa          	endbr64 
    cd03:	55                   	push   %rbp
    cd04:	48 89 e5             	mov    %rsp,%rbp
    cd07:	89 fa                	mov    %edi,%edx
    cd09:	89 f0                	mov    %esi,%eax
    cd0b:	66 89 55 fc          	mov    %dx,-0x4(%rbp)
    cd0f:	66 89 45 f8          	mov    %ax,-0x8(%rbp)
    cd13:	0f b7 55 fc          	movzwl -0x4(%rbp),%edx
    cd17:	0f b7 45 f8          	movzwl -0x8(%rbp),%eax
    cd1b:	01 d0                	add    %edx,%eax
    cd1d:	5d                   	pop    %rbp
    cd1e:	c3                   	retq   

000000000000cd1f <safe_sub_func_uint16_t_u_u>:
    cd1f:	f3 0f 1e fa          	endbr64 
    cd23:	55                   	push   %rbp
    cd24:	48 89 e5             	mov    %rsp,%rbp
    cd27:	89 fa                	mov    %edi,%edx
    cd29:	89 f0                	mov    %esi,%eax
    cd2b:	66 89 55 fc          	mov    %dx,-0x4(%rbp)
    cd2f:	66 89 45 f8          	mov    %ax,-0x8(%rbp)
    cd33:	0f b7 45 fc          	movzwl -0x4(%rbp),%eax
    cd37:	66 2b 45 f8          	sub    -0x8(%rbp),%ax
    cd3b:	5d                   	pop    %rbp
    cd3c:	c3                   	retq   

000000000000cd3d <safe_mul_func_uint16_t_u_u>:
    cd3d:	f3 0f 1e fa          	endbr64 
    cd41:	55                   	push   %rbp
    cd42:	48 89 e5             	mov    %rsp,%rbp
    cd45:	89 fa                	mov    %edi,%edx
    cd47:	89 f0                	mov    %esi,%eax
    cd49:	66 89 55 fc          	mov    %dx,-0x4(%rbp)
    cd4d:	66 89 45 f8          	mov    %ax,-0x8(%rbp)
    cd51:	0f b7 45 fc          	movzwl -0x4(%rbp),%eax
    cd55:	66 0f af 45 f8       	imul   -0x8(%rbp),%ax
    cd5a:	5d                   	pop    %rbp
    cd5b:	c3                   	retq   

000000000000cd5c <safe_mod_func_uint16_t_u_u>:
    cd5c:	f3 0f 1e fa          	endbr64 
    cd60:	55                   	push   %rbp
    cd61:	48 89 e5             	mov    %rsp,%rbp
    cd64:	89 fa                	mov    %edi,%edx
    cd66:	89 f0                	mov    %esi,%eax
    cd68:	66 89 55 fc          	mov    %dx,-0x4(%rbp)
    cd6c:	66 89 45 f8          	mov    %ax,-0x8(%rbp)
    cd70:	66 83 7d f8 00       	cmpw   $0x0,-0x8(%rbp)
    cd75:	74 11                	je     cd88 <safe_mod_func_uint16_t_u_u+0x2c>
    cd77:	0f b7 45 fc          	movzwl -0x4(%rbp),%eax
    cd7b:	ba 00 00 00 00       	mov    $0x0,%edx
    cd80:	66 f7 75 f8          	divw   -0x8(%rbp)
    cd84:	89 d0                	mov    %edx,%eax
    cd86:	eb 04                	jmp    cd8c <safe_mod_func_uint16_t_u_u+0x30>
    cd88:	0f b7 45 fc          	movzwl -0x4(%rbp),%eax
    cd8c:	5d                   	pop    %rbp
    cd8d:	c3                   	retq   

000000000000cd8e <safe_div_func_uint16_t_u_u>:
    cd8e:	f3 0f 1e fa          	endbr64 
    cd92:	55                   	push   %rbp
    cd93:	48 89 e5             	mov    %rsp,%rbp
    cd96:	89 fa                	mov    %edi,%edx
    cd98:	89 f0                	mov    %esi,%eax
    cd9a:	66 89 55 fc          	mov    %dx,-0x4(%rbp)
    cd9e:	66 89 45 f8          	mov    %ax,-0x8(%rbp)
    cda2:	66 83 7d f8 00       	cmpw   $0x0,-0x8(%rbp)
    cda7:	74 0f                	je     cdb8 <safe_div_func_uint16_t_u_u+0x2a>
    cda9:	0f b7 45 fc          	movzwl -0x4(%rbp),%eax
    cdad:	ba 00 00 00 00       	mov    $0x0,%edx
    cdb2:	66 f7 75 f8          	divw   -0x8(%rbp)
    cdb6:	eb 04                	jmp    cdbc <safe_div_func_uint16_t_u_u+0x2e>
    cdb8:	0f b7 45 fc          	movzwl -0x4(%rbp),%eax
    cdbc:	5d                   	pop    %rbp
    cdbd:	c3                   	retq   

000000000000cdbe <safe_lshift_func_uint16_t_u_s>:
    cdbe:	f3 0f 1e fa          	endbr64 
    cdc2:	55                   	push   %rbp
    cdc3:	48 89 e5             	mov    %rsp,%rbp
    cdc6:	89 f8                	mov    %edi,%eax
    cdc8:	89 75 f8             	mov    %esi,-0x8(%rbp)
    cdcb:	66 89 45 fc          	mov    %ax,-0x4(%rbp)
    cdcf:	83 7d f8 00          	cmpl   $0x0,-0x8(%rbp)
    cdd3:	78 2b                	js     ce00 <safe_lshift_func_uint16_t_u_s+0x42>
    cdd5:	83 7d f8 1f          	cmpl   $0x1f,-0x8(%rbp)
    cdd9:	7f 25                	jg     ce00 <safe_lshift_func_uint16_t_u_s+0x42>
    cddb:	0f b7 55 fc          	movzwl -0x4(%rbp),%edx
    cddf:	8b 45 f8             	mov    -0x8(%rbp),%eax
    cde2:	be ff ff 00 00       	mov    $0xffff,%esi
    cde7:	89 c1                	mov    %eax,%ecx
    cde9:	d3 fe                	sar    %cl,%esi
    cdeb:	89 f0                	mov    %esi,%eax
    cded:	39 c2                	cmp    %eax,%edx
    cdef:	7f 0f                	jg     ce00 <safe_lshift_func_uint16_t_u_s+0x42>
    cdf1:	0f b7 55 fc          	movzwl -0x4(%rbp),%edx
    cdf5:	8b 45 f8             	mov    -0x8(%rbp),%eax
    cdf8:	89 c1                	mov    %eax,%ecx
    cdfa:	d3 e2                	shl    %cl,%edx
    cdfc:	89 d0                	mov    %edx,%eax
    cdfe:	eb 04                	jmp    ce04 <safe_lshift_func_uint16_t_u_s+0x46>
    ce00:	0f b7 45 fc          	movzwl -0x4(%rbp),%eax
    ce04:	5d                   	pop    %rbp
    ce05:	c3                   	retq   

000000000000ce06 <safe_lshift_func_uint16_t_u_u>:
    ce06:	f3 0f 1e fa          	endbr64 
    ce0a:	55                   	push   %rbp
    ce0b:	48 89 e5             	mov    %rsp,%rbp
    ce0e:	89 f8                	mov    %edi,%eax
    ce10:	89 75 f8             	mov    %esi,-0x8(%rbp)
    ce13:	66 89 45 fc          	mov    %ax,-0x4(%rbp)
    ce17:	83 7d f8 1f          	cmpl   $0x1f,-0x8(%rbp)
    ce1b:	77 25                	ja     ce42 <safe_lshift_func_uint16_t_u_u+0x3c>
    ce1d:	0f b7 55 fc          	movzwl -0x4(%rbp),%edx
    ce21:	8b 45 f8             	mov    -0x8(%rbp),%eax
    ce24:	be ff ff 00 00       	mov    $0xffff,%esi
    ce29:	89 c1                	mov    %eax,%ecx
    ce2b:	d3 fe                	sar    %cl,%esi
    ce2d:	89 f0                	mov    %esi,%eax
    ce2f:	39 c2                	cmp    %eax,%edx
    ce31:	7f 0f                	jg     ce42 <safe_lshift_func_uint16_t_u_u+0x3c>
    ce33:	0f b7 55 fc          	movzwl -0x4(%rbp),%edx
    ce37:	8b 45 f8             	mov    -0x8(%rbp),%eax
    ce3a:	89 c1                	mov    %eax,%ecx
    ce3c:	d3 e2                	shl    %cl,%edx
    ce3e:	89 d0                	mov    %edx,%eax
    ce40:	eb 04                	jmp    ce46 <safe_lshift_func_uint16_t_u_u+0x40>
    ce42:	0f b7 45 fc          	movzwl -0x4(%rbp),%eax
    ce46:	5d                   	pop    %rbp
    ce47:	c3                   	retq   

000000000000ce48 <safe_rshift_func_uint16_t_u_s>:
    ce48:	f3 0f 1e fa          	endbr64 
    ce4c:	55                   	push   %rbp
    ce4d:	48 89 e5             	mov    %rsp,%rbp
    ce50:	89 f8                	mov    %edi,%eax
    ce52:	89 75 f8             	mov    %esi,-0x8(%rbp)
    ce55:	66 89 45 fc          	mov    %ax,-0x4(%rbp)
    ce59:	83 7d f8 00          	cmpl   $0x0,-0x8(%rbp)
    ce5d:	78 15                	js     ce74 <safe_rshift_func_uint16_t_u_s+0x2c>
    ce5f:	83 7d f8 1f          	cmpl   $0x1f,-0x8(%rbp)
    ce63:	7f 0f                	jg     ce74 <safe_rshift_func_uint16_t_u_s+0x2c>
    ce65:	0f b7 55 fc          	movzwl -0x4(%rbp),%edx
    ce69:	8b 45 f8             	mov    -0x8(%rbp),%eax
    ce6c:	89 c1                	mov    %eax,%ecx
    ce6e:	d3 fa                	sar    %cl,%edx
    ce70:	89 d0                	mov    %edx,%eax
    ce72:	eb 04                	jmp    ce78 <safe_rshift_func_uint16_t_u_s+0x30>
    ce74:	0f b7 45 fc          	movzwl -0x4(%rbp),%eax
    ce78:	5d                   	pop    %rbp
    ce79:	c3                   	retq   

000000000000ce7a <safe_rshift_func_uint16_t_u_u>:
    ce7a:	f3 0f 1e fa          	endbr64 
    ce7e:	55                   	push   %rbp
    ce7f:	48 89 e5             	mov    %rsp,%rbp
    ce82:	89 f8                	mov    %edi,%eax
    ce84:	89 75 f8             	mov    %esi,-0x8(%rbp)
    ce87:	66 89 45 fc          	mov    %ax,-0x4(%rbp)
    ce8b:	83 7d f8 1f          	cmpl   $0x1f,-0x8(%rbp)
    ce8f:	77 0f                	ja     cea0 <safe_rshift_func_uint16_t_u_u+0x26>
    ce91:	0f b7 55 fc          	movzwl -0x4(%rbp),%edx
    ce95:	8b 45 f8             	mov    -0x8(%rbp),%eax
    ce98:	89 c1                	mov    %eax,%ecx
    ce9a:	d3 fa                	sar    %cl,%edx
    ce9c:	89 d0                	mov    %edx,%eax
    ce9e:	eb 04                	jmp    cea4 <safe_rshift_func_uint16_t_u_u+0x2a>
    cea0:	0f b7 45 fc          	movzwl -0x4(%rbp),%eax
    cea4:	5d                   	pop    %rbp
    cea5:	c3                   	retq   

000000000000cea6 <safe_unary_minus_func_uint32_t_u>:
    cea6:	f3 0f 1e fa          	endbr64 
    ceaa:	55                   	push   %rbp
    ceab:	48 89 e5             	mov    %rsp,%rbp
    ceae:	89 7d fc             	mov    %edi,-0x4(%rbp)
    ceb1:	8b 45 fc             	mov    -0x4(%rbp),%eax
    ceb4:	f7 d8                	neg    %eax
    ceb6:	5d                   	pop    %rbp
    ceb7:	c3                   	retq   

000000000000ceb8 <safe_add_func_uint32_t_u_u>:
    ceb8:	f3 0f 1e fa          	endbr64 
    cebc:	55                   	push   %rbp
    cebd:	48 89 e5             	mov    %rsp,%rbp
    cec0:	89 7d fc             	mov    %edi,-0x4(%rbp)
    cec3:	89 75 f8             	mov    %esi,-0x8(%rbp)
    cec6:	8b 55 fc             	mov    -0x4(%rbp),%edx
    cec9:	8b 45 f8             	mov    -0x8(%rbp),%eax
    cecc:	01 d0                	add    %edx,%eax
    cece:	5d                   	pop    %rbp
    cecf:	c3                   	retq   

000000000000ced0 <safe_sub_func_uint32_t_u_u>:
    ced0:	f3 0f 1e fa          	endbr64 
    ced4:	55                   	push   %rbp
    ced5:	48 89 e5             	mov    %rsp,%rbp
    ced8:	89 7d fc             	mov    %edi,-0x4(%rbp)
    cedb:	89 75 f8             	mov    %esi,-0x8(%rbp)
    cede:	8b 45 fc             	mov    -0x4(%rbp),%eax
    cee1:	2b 45 f8             	sub    -0x8(%rbp),%eax
    cee4:	5d                   	pop    %rbp
    cee5:	c3                   	retq   

000000000000cee6 <safe_mul_func_uint32_t_u_u>:
    cee6:	f3 0f 1e fa          	endbr64 
    ceea:	55                   	push   %rbp
    ceeb:	48 89 e5             	mov    %rsp,%rbp
    ceee:	89 7d fc             	mov    %edi,-0x4(%rbp)
    cef1:	89 75 f8             	mov    %esi,-0x8(%rbp)
    cef4:	8b 45 fc             	mov    -0x4(%rbp),%eax
    cef7:	0f af 45 f8          	imul   -0x8(%rbp),%eax
    cefb:	5d                   	pop    %rbp
    cefc:	c3                   	retq   

000000000000cefd <safe_mod_func_uint32_t_u_u>:
    cefd:	f3 0f 1e fa          	endbr64 
    cf01:	55                   	push   %rbp
    cf02:	48 89 e5             	mov    %rsp,%rbp
    cf05:	89 7d fc             	mov    %edi,-0x4(%rbp)
    cf08:	89 75 f8             	mov    %esi,-0x8(%rbp)
    cf0b:	83 7d f8 00          	cmpl   $0x0,-0x8(%rbp)
    cf0f:	74 0f                	je     cf20 <safe_mod_func_uint32_t_u_u+0x23>
    cf11:	8b 45 fc             	mov    -0x4(%rbp),%eax
    cf14:	ba 00 00 00 00       	mov    $0x0,%edx
    cf19:	f7 75 f8             	divl   -0x8(%rbp)
    cf1c:	89 d0                	mov    %edx,%eax
    cf1e:	eb 03                	jmp    cf23 <safe_mod_func_uint32_t_u_u+0x26>
    cf20:	8b 45 fc             	mov    -0x4(%rbp),%eax
    cf23:	5d                   	pop    %rbp
    cf24:	c3                   	retq   

000000000000cf25 <safe_div_func_uint32_t_u_u>:
    cf25:	f3 0f 1e fa          	endbr64 
    cf29:	55                   	push   %rbp
    cf2a:	48 89 e5             	mov    %rsp,%rbp
    cf2d:	89 7d fc             	mov    %edi,-0x4(%rbp)
    cf30:	89 75 f8             	mov    %esi,-0x8(%rbp)
    cf33:	83 7d f8 00          	cmpl   $0x0,-0x8(%rbp)
    cf37:	74 0d                	je     cf46 <safe_div_func_uint32_t_u_u+0x21>
    cf39:	8b 45 fc             	mov    -0x4(%rbp),%eax
    cf3c:	ba 00 00 00 00       	mov    $0x0,%edx
    cf41:	f7 75 f8             	divl   -0x8(%rbp)
    cf44:	eb 03                	jmp    cf49 <safe_div_func_uint32_t_u_u+0x24>
    cf46:	8b 45 fc             	mov    -0x4(%rbp),%eax
    cf49:	5d                   	pop    %rbp
    cf4a:	c3                   	retq   

000000000000cf4b <safe_lshift_func_uint32_t_u_s>:
    cf4b:	f3 0f 1e fa          	endbr64 
    cf4f:	55                   	push   %rbp
    cf50:	48 89 e5             	mov    %rsp,%rbp
    cf53:	89 7d fc             	mov    %edi,-0x4(%rbp)
    cf56:	89 75 f8             	mov    %esi,-0x8(%rbp)
    cf59:	83 7d f8 00          	cmpl   $0x0,-0x8(%rbp)
    cf5d:	78 27                	js     cf86 <safe_lshift_func_uint32_t_u_s+0x3b>
    cf5f:	83 7d f8 1f          	cmpl   $0x1f,-0x8(%rbp)
    cf63:	7f 21                	jg     cf86 <safe_lshift_func_uint32_t_u_s+0x3b>
    cf65:	8b 45 f8             	mov    -0x8(%rbp),%eax
    cf68:	ba ff ff ff ff       	mov    $0xffffffff,%edx
    cf6d:	89 c1                	mov    %eax,%ecx
    cf6f:	d3 ea                	shr    %cl,%edx
    cf71:	89 d0                	mov    %edx,%eax
    cf73:	39 45 fc             	cmp    %eax,-0x4(%rbp)
    cf76:	77 0e                	ja     cf86 <safe_lshift_func_uint32_t_u_s+0x3b>
    cf78:	8b 45 f8             	mov    -0x8(%rbp),%eax
    cf7b:	8b 55 fc             	mov    -0x4(%rbp),%edx
    cf7e:	89 c1                	mov    %eax,%ecx
    cf80:	d3 e2                	shl    %cl,%edx
    cf82:	89 d0                	mov    %edx,%eax
    cf84:	eb 03                	jmp    cf89 <safe_lshift_func_uint32_t_u_s+0x3e>
    cf86:	8b 45 fc             	mov    -0x4(%rbp),%eax
    cf89:	5d                   	pop    %rbp
    cf8a:	c3                   	retq   

000000000000cf8b <safe_lshift_func_uint32_t_u_u>:
    cf8b:	f3 0f 1e fa          	endbr64 
    cf8f:	55                   	push   %rbp
    cf90:	48 89 e5             	mov    %rsp,%rbp
    cf93:	89 7d fc             	mov    %edi,-0x4(%rbp)
    cf96:	89 75 f8             	mov    %esi,-0x8(%rbp)
    cf99:	83 7d f8 1f          	cmpl   $0x1f,-0x8(%rbp)
    cf9d:	77 21                	ja     cfc0 <safe_lshift_func_uint32_t_u_u+0x35>
    cf9f:	8b 45 f8             	mov    -0x8(%rbp),%eax
    cfa2:	ba ff ff ff ff       	mov    $0xffffffff,%edx
    cfa7:	89 c1                	mov    %eax,%ecx
    cfa9:	d3 ea                	shr    %cl,%edx
    cfab:	89 d0                	mov    %edx,%eax
    cfad:	39 45 fc             	cmp    %eax,-0x4(%rbp)
    cfb0:	77 0e                	ja     cfc0 <safe_lshift_func_uint32_t_u_u+0x35>
    cfb2:	8b 45 f8             	mov    -0x8(%rbp),%eax
    cfb5:	8b 55 fc             	mov    -0x4(%rbp),%edx
    cfb8:	89 c1                	mov    %eax,%ecx
    cfba:	d3 e2                	shl    %cl,%edx
    cfbc:	89 d0                	mov    %edx,%eax
    cfbe:	eb 03                	jmp    cfc3 <safe_lshift_func_uint32_t_u_u+0x38>
    cfc0:	8b 45 fc             	mov    -0x4(%rbp),%eax
    cfc3:	5d                   	pop    %rbp
    cfc4:	c3                   	retq   

000000000000cfc5 <safe_rshift_func_uint32_t_u_s>:
    cfc5:	f3 0f 1e fa          	endbr64 
    cfc9:	55                   	push   %rbp
    cfca:	48 89 e5             	mov    %rsp,%rbp
    cfcd:	89 7d fc             	mov    %edi,-0x4(%rbp)
    cfd0:	89 75 f8             	mov    %esi,-0x8(%rbp)
    cfd3:	83 7d f8 00          	cmpl   $0x0,-0x8(%rbp)
    cfd7:	78 14                	js     cfed <safe_rshift_func_uint32_t_u_s+0x28>
    cfd9:	83 7d f8 1f          	cmpl   $0x1f,-0x8(%rbp)
    cfdd:	7f 0e                	jg     cfed <safe_rshift_func_uint32_t_u_s+0x28>
    cfdf:	8b 45 f8             	mov    -0x8(%rbp),%eax
    cfe2:	8b 55 fc             	mov    -0x4(%rbp),%edx
    cfe5:	89 c1                	mov    %eax,%ecx
    cfe7:	d3 ea                	shr    %cl,%edx
    cfe9:	89 d0                	mov    %edx,%eax
    cfeb:	eb 03                	jmp    cff0 <safe_rshift_func_uint32_t_u_s+0x2b>
    cfed:	8b 45 fc             	mov    -0x4(%rbp),%eax
    cff0:	5d                   	pop    %rbp
    cff1:	c3                   	retq   

000000000000cff2 <safe_rshift_func_uint32_t_u_u>:
    cff2:	f3 0f 1e fa          	endbr64 
    cff6:	55                   	push   %rbp
    cff7:	48 89 e5             	mov    %rsp,%rbp
    cffa:	89 7d fc             	mov    %edi,-0x4(%rbp)
    cffd:	89 75 f8             	mov    %esi,-0x8(%rbp)
    d000:	83 7d f8 1f          	cmpl   $0x1f,-0x8(%rbp)
    d004:	77 0e                	ja     d014 <safe_rshift_func_uint32_t_u_u+0x22>
    d006:	8b 45 f8             	mov    -0x8(%rbp),%eax
    d009:	8b 55 fc             	mov    -0x4(%rbp),%edx
    d00c:	89 c1                	mov    %eax,%ecx
    d00e:	d3 ea                	shr    %cl,%edx
    d010:	89 d0                	mov    %edx,%eax
    d012:	eb 03                	jmp    d017 <safe_rshift_func_uint32_t_u_u+0x25>
    d014:	8b 45 fc             	mov    -0x4(%rbp),%eax
    d017:	5d                   	pop    %rbp
    d018:	c3                   	retq   

000000000000d019 <safe_unary_minus_func_uint64_t_u>:
    d019:	f3 0f 1e fa          	endbr64 
    d01d:	55                   	push   %rbp
    d01e:	48 89 e5             	mov    %rsp,%rbp
    d021:	48 89 7d f8          	mov    %rdi,-0x8(%rbp)
    d025:	48 8b 45 f8          	mov    -0x8(%rbp),%rax
    d029:	48 f7 d8             	neg    %rax
    d02c:	5d                   	pop    %rbp
    d02d:	c3                   	retq   

000000000000d02e <safe_add_func_uint64_t_u_u>:
    d02e:	f3 0f 1e fa          	endbr64 
    d032:	55                   	push   %rbp
    d033:	48 89 e5             	mov    %rsp,%rbp
    d036:	48 89 7d f8          	mov    %rdi,-0x8(%rbp)
    d03a:	48 89 75 f0          	mov    %rsi,-0x10(%rbp)
    d03e:	48 8b 55 f8          	mov    -0x8(%rbp),%rdx
    d042:	48 8b 45 f0          	mov    -0x10(%rbp),%rax
    d046:	48 01 d0             	add    %rdx,%rax
    d049:	5d                   	pop    %rbp
    d04a:	c3                   	retq   

000000000000d04b <safe_sub_func_uint64_t_u_u>:
    d04b:	f3 0f 1e fa          	endbr64 
    d04f:	55                   	push   %rbp
    d050:	48 89 e5             	mov    %rsp,%rbp
    d053:	48 89 7d f8          	mov    %rdi,-0x8(%rbp)
    d057:	48 89 75 f0          	mov    %rsi,-0x10(%rbp)
    d05b:	48 8b 45 f8          	mov    -0x8(%rbp),%rax
    d05f:	48 2b 45 f0          	sub    -0x10(%rbp),%rax
    d063:	5d                   	pop    %rbp
    d064:	c3                   	retq   

000000000000d065 <safe_mul_func_uint64_t_u_u>:
    d065:	f3 0f 1e fa          	endbr64 
    d069:	55                   	push   %rbp
    d06a:	48 89 e5             	mov    %rsp,%rbp
    d06d:	48 89 7d f8          	mov    %rdi,-0x8(%rbp)
    d071:	48 89 75 f0          	mov    %rsi,-0x10(%rbp)
    d075:	48 8b 45 f8          	mov    -0x8(%rbp),%rax
    d079:	48 0f af 45 f0       	imul   -0x10(%rbp),%rax
    d07e:	5d                   	pop    %rbp
    d07f:	c3                   	retq   

000000000000d080 <safe_mod_func_uint64_t_u_u>:
    d080:	f3 0f 1e fa          	endbr64 
    d084:	55                   	push   %rbp
    d085:	48 89 e5             	mov    %rsp,%rbp
    d088:	48 89 7d f8          	mov    %rdi,-0x8(%rbp)
    d08c:	48 89 75 f0          	mov    %rsi,-0x10(%rbp)
    d090:	48 83 7d f0 00       	cmpq   $0x0,-0x10(%rbp)
    d095:	74 12                	je     d0a9 <safe_mod_func_uint64_t_u_u+0x29>
    d097:	48 8b 45 f8          	mov    -0x8(%rbp),%rax
    d09b:	ba 00 00 00 00       	mov    $0x0,%edx
    d0a0:	48 f7 75 f0          	divq   -0x10(%rbp)
    d0a4:	48 89 d0             	mov    %rdx,%rax
    d0a7:	eb 04                	jmp    d0ad <safe_mod_func_uint64_t_u_u+0x2d>
    d0a9:	48 8b 45 f8          	mov    -0x8(%rbp),%rax
    d0ad:	5d                   	pop    %rbp
    d0ae:	c3                   	retq   

000000000000d0af <safe_div_func_uint64_t_u_u>:
    d0af:	f3 0f 1e fa          	endbr64 
    d0b3:	55                   	push   %rbp
    d0b4:	48 89 e5             	mov    %rsp,%rbp
    d0b7:	48 89 7d f8          	mov    %rdi,-0x8(%rbp)
    d0bb:	48 89 75 f0          	mov    %rsi,-0x10(%rbp)
    d0bf:	48 83 7d f0 00       	cmpq   $0x0,-0x10(%rbp)
    d0c4:	74 0f                	je     d0d5 <safe_div_func_uint64_t_u_u+0x26>
    d0c6:	48 8b 45 f8          	mov    -0x8(%rbp),%rax
    d0ca:	ba 00 00 00 00       	mov    $0x0,%edx
    d0cf:	48 f7 75 f0          	divq   -0x10(%rbp)
    d0d3:	eb 04                	jmp    d0d9 <safe_div_func_uint64_t_u_u+0x2a>
    d0d5:	48 8b 45 f8          	mov    -0x8(%rbp),%rax
    d0d9:	5d                   	pop    %rbp
    d0da:	c3                   	retq   

000000000000d0db <safe_lshift_func_uint64_t_u_s>:
    d0db:	f3 0f 1e fa          	endbr64 
    d0df:	55                   	push   %rbp
    d0e0:	48 89 e5             	mov    %rsp,%rbp
    d0e3:	48 89 7d f8          	mov    %rdi,-0x8(%rbp)
    d0e7:	89 75 f4             	mov    %esi,-0xc(%rbp)
    d0ea:	83 7d f4 00          	cmpl   $0x0,-0xc(%rbp)
    d0ee:	78 2f                	js     d11f <safe_lshift_func_uint64_t_u_s+0x44>
    d0f0:	83 7d f4 1f          	cmpl   $0x1f,-0xc(%rbp)
    d0f4:	7f 29                	jg     d11f <safe_lshift_func_uint64_t_u_s+0x44>
    d0f6:	8b 45 f4             	mov    -0xc(%rbp),%eax
    d0f9:	48 c7 c2 ff ff ff ff 	mov    $0xffffffffffffffff,%rdx
    d100:	89 c1                	mov    %eax,%ecx
    d102:	48 d3 ea             	shr    %cl,%rdx
    d105:	48 89 d0             	mov    %rdx,%rax
    d108:	48 39 45 f8          	cmp    %rax,-0x8(%rbp)
    d10c:	77 11                	ja     d11f <safe_lshift_func_uint64_t_u_s+0x44>
    d10e:	8b 45 f4             	mov    -0xc(%rbp),%eax
    d111:	48 8b 55 f8          	mov    -0x8(%rbp),%rdx
    d115:	89 c1                	mov    %eax,%ecx
    d117:	48 d3 e2             	shl    %cl,%rdx
    d11a:	48 89 d0             	mov    %rdx,%rax
    d11d:	eb 04                	jmp    d123 <safe_lshift_func_uint64_t_u_s+0x48>
    d11f:	48 8b 45 f8          	mov    -0x8(%rbp),%rax
    d123:	5d                   	pop    %rbp
    d124:	c3                   	retq   

000000000000d125 <safe_lshift_func_uint64_t_u_u>:
    d125:	f3 0f 1e fa          	endbr64 
    d129:	55                   	push   %rbp
    d12a:	48 89 e5             	mov    %rsp,%rbp
    d12d:	48 89 7d f8          	mov    %rdi,-0x8(%rbp)
    d131:	89 75 f4             	mov    %esi,-0xc(%rbp)
    d134:	83 7d f4 1f          	cmpl   $0x1f,-0xc(%rbp)
    d138:	77 29                	ja     d163 <safe_lshift_func_uint64_t_u_u+0x3e>
    d13a:	8b 45 f4             	mov    -0xc(%rbp),%eax
    d13d:	48 c7 c2 ff ff ff ff 	mov    $0xffffffffffffffff,%rdx
    d144:	89 c1                	mov    %eax,%ecx
    d146:	48 d3 ea             	shr    %cl,%rdx
    d149:	48 89 d0             	mov    %rdx,%rax
    d14c:	48 39 45 f8          	cmp    %rax,-0x8(%rbp)
    d150:	77 11                	ja     d163 <safe_lshift_func_uint64_t_u_u+0x3e>
    d152:	8b 45 f4             	mov    -0xc(%rbp),%eax
    d155:	48 8b 55 f8          	mov    -0x8(%rbp),%rdx
    d159:	89 c1                	mov    %eax,%ecx
    d15b:	48 d3 e2             	shl    %cl,%rdx
    d15e:	48 89 d0             	mov    %rdx,%rax
    d161:	eb 04                	jmp    d167 <safe_lshift_func_uint64_t_u_u+0x42>
    d163:	48 8b 45 f8          	mov    -0x8(%rbp),%rax
    d167:	5d                   	pop    %rbp
    d168:	c3                   	retq   

000000000000d169 <safe_rshift_func_uint64_t_u_s>:
    d169:	f3 0f 1e fa          	endbr64 
    d16d:	55                   	push   %rbp
    d16e:	48 89 e5             	mov    %rsp,%rbp
    d171:	48 89 7d f8          	mov    %rdi,-0x8(%rbp)
    d175:	89 75 f4             	mov    %esi,-0xc(%rbp)
    d178:	83 7d f4 00          	cmpl   $0x0,-0xc(%rbp)
    d17c:	78 17                	js     d195 <safe_rshift_func_uint64_t_u_s+0x2c>
    d17e:	83 7d f4 1f          	cmpl   $0x1f,-0xc(%rbp)
    d182:	7f 11                	jg     d195 <safe_rshift_func_uint64_t_u_s+0x2c>
    d184:	8b 45 f4             	mov    -0xc(%rbp),%eax
    d187:	48 8b 55 f8          	mov    -0x8(%rbp),%rdx
    d18b:	89 c1                	mov    %eax,%ecx
    d18d:	48 d3 ea             	shr    %cl,%rdx
    d190:	48 89 d0             	mov    %rdx,%rax
    d193:	eb 04                	jmp    d199 <safe_rshift_func_uint64_t_u_s+0x30>
    d195:	48 8b 45 f8          	mov    -0x8(%rbp),%rax
    d199:	5d                   	pop    %rbp
    d19a:	c3                   	retq   

000000000000d19b <safe_rshift_func_uint64_t_u_u>:
    d19b:	f3 0f 1e fa          	endbr64 
    d19f:	55                   	push   %rbp
    d1a0:	48 89 e5             	mov    %rsp,%rbp
    d1a3:	48 89 7d f8          	mov    %rdi,-0x8(%rbp)
    d1a7:	89 75 f4             	mov    %esi,-0xc(%rbp)
    d1aa:	83 7d f4 1f          	cmpl   $0x1f,-0xc(%rbp)
    d1ae:	77 11                	ja     d1c1 <safe_rshift_func_uint64_t_u_u+0x26>
    d1b0:	8b 45 f4             	mov    -0xc(%rbp),%eax
    d1b3:	48 8b 55 f8          	mov    -0x8(%rbp),%rdx
    d1b7:	89 c1                	mov    %eax,%ecx
    d1b9:	48 d3 ea             	shr    %cl,%rdx
    d1bc:	48 89 d0             	mov    %rdx,%rax
    d1bf:	eb 04                	jmp    d1c5 <safe_rshift_func_uint64_t_u_u+0x2a>
    d1c1:	48 8b 45 f8          	mov    -0x8(%rbp),%rax
    d1c5:	5d                   	pop    %rbp
    d1c6:	c3                   	retq   

000000000000d1c7 <safe_add_func_float_f_f>:
    d1c7:	f3 0f 1e fa          	endbr64 
    d1cb:	55                   	push   %rbp
    d1cc:	48 89 e5             	mov    %rsp,%rbp
    d1cf:	f3 0f 11 45 fc       	movss  %xmm0,-0x4(%rbp)
    d1d4:	f3 0f 11 4d f8       	movss  %xmm1,-0x8(%rbp)
    d1d9:	f3 0f 10 4d fc       	movss  -0x4(%rbp),%xmm1
    d1de:	f3 0f 10 05 6a 50 01 	movss  0x1506a(%rip),%xmm0        # 22250 <l_2676.4171+0x10>
    d1e5:	00 
    d1e6:	f3 0f 59 c8          	mulss  %xmm0,%xmm1
    d1ea:	f3 0f 10 55 f8       	movss  -0x8(%rbp),%xmm2
    d1ef:	f3 0f 10 05 59 50 01 	movss  0x15059(%rip),%xmm0        # 22250 <l_2676.4171+0x10>
    d1f6:	00 
    d1f7:	f3 0f 59 c2          	mulss  %xmm2,%xmm0
    d1fb:	f3 0f 58 c1          	addss  %xmm1,%xmm0
    d1ff:	f3 0f 10 0d 59 50 01 	movss  0x15059(%rip),%xmm1        # 22260 <l_2676.4171+0x20>
    d206:	00 
    d207:	0f 54 c1             	andps  %xmm1,%xmm0
    d20a:	0f 2f 05 5f 50 01 00 	comiss 0x1505f(%rip),%xmm0        # 22270 <l_2676.4171+0x30>
    d211:	76 07                	jbe    d21a <safe_add_func_float_f_f+0x53>
    d213:	f3 0f 10 45 fc       	movss  -0x4(%rbp),%xmm0
    d218:	eb 0a                	jmp    d224 <safe_add_func_float_f_f+0x5d>
    d21a:	f3 0f 10 45 fc       	movss  -0x4(%rbp),%xmm0
    d21f:	f3 0f 58 45 f8       	addss  -0x8(%rbp),%xmm0
    d224:	5d                   	pop    %rbp
    d225:	c3                   	retq   

000000000000d226 <safe_sub_func_float_f_f>:
    d226:	f3 0f 1e fa          	endbr64 
    d22a:	55                   	push   %rbp
    d22b:	48 89 e5             	mov    %rsp,%rbp
    d22e:	f3 0f 11 45 fc       	movss  %xmm0,-0x4(%rbp)
    d233:	f3 0f 11 4d f8       	movss  %xmm1,-0x8(%rbp)
    d238:	f3 0f 10 4d fc       	movss  -0x4(%rbp),%xmm1
    d23d:	f3 0f 10 05 0b 50 01 	movss  0x1500b(%rip),%xmm0        # 22250 <l_2676.4171+0x10>
    d244:	00 
    d245:	f3 0f 59 c1          	mulss  %xmm1,%xmm0
    d249:	f3 0f 10 55 f8       	movss  -0x8(%rbp),%xmm2
    d24e:	f3 0f 10 0d fa 4f 01 	movss  0x14ffa(%rip),%xmm1        # 22250 <l_2676.4171+0x10>
    d255:	00 
    d256:	f3 0f 59 ca          	mulss  %xmm2,%xmm1
    d25a:	f3 0f 5c c1          	subss  %xmm1,%xmm0
    d25e:	f3 0f 10 0d fa 4f 01 	movss  0x14ffa(%rip),%xmm1        # 22260 <l_2676.4171+0x20>
    d265:	00 
    d266:	0f 54 c1             	andps  %xmm1,%xmm0
    d269:	0f 2f 05 00 50 01 00 	comiss 0x15000(%rip),%xmm0        # 22270 <l_2676.4171+0x30>
    d270:	76 07                	jbe    d279 <safe_sub_func_float_f_f+0x53>
    d272:	f3 0f 10 45 fc       	movss  -0x4(%rbp),%xmm0
    d277:	eb 0a                	jmp    d283 <safe_sub_func_float_f_f+0x5d>
    d279:	f3 0f 10 45 fc       	movss  -0x4(%rbp),%xmm0
    d27e:	f3 0f 5c 45 f8       	subss  -0x8(%rbp),%xmm0
    d283:	5d                   	pop    %rbp
    d284:	c3                   	retq   

000000000000d285 <safe_mul_func_float_f_f>:
    d285:	f3 0f 1e fa          	endbr64 
    d289:	55                   	push   %rbp
    d28a:	48 89 e5             	mov    %rsp,%rbp
    d28d:	f3 0f 11 45 fc       	movss  %xmm0,-0x4(%rbp)
    d292:	f3 0f 11 4d f8       	movss  %xmm1,-0x8(%rbp)
    d297:	f3 0f 10 4d fc       	movss  -0x4(%rbp),%xmm1
    d29c:	f3 0f 10 05 d0 4f 01 	movss  0x14fd0(%rip),%xmm0        # 22274 <l_2676.4171+0x34>
    d2a3:	00 
    d2a4:	f3 0f 59 c8          	mulss  %xmm0,%xmm1
    d2a8:	f3 0f 10 55 f8       	movss  -0x8(%rbp),%xmm2
    d2ad:	f3 0f 10 05 c3 4f 01 	movss  0x14fc3(%rip),%xmm0        # 22278 <l_2676.4171+0x38>
    d2b4:	00 
    d2b5:	f3 0f 59 c2          	mulss  %xmm2,%xmm0
    d2b9:	f3 0f 59 c1          	mulss  %xmm1,%xmm0
    d2bd:	f3 0f 10 0d 9b 4f 01 	movss  0x14f9b(%rip),%xmm1        # 22260 <l_2676.4171+0x20>
    d2c4:	00 
    d2c5:	0f 54 c1             	andps  %xmm1,%xmm0
    d2c8:	0f 2f 05 ad 4f 01 00 	comiss 0x14fad(%rip),%xmm0        # 2227c <l_2676.4171+0x3c>
    d2cf:	76 07                	jbe    d2d8 <safe_mul_func_float_f_f+0x53>
    d2d1:	f3 0f 10 45 fc       	movss  -0x4(%rbp),%xmm0
    d2d6:	eb 0a                	jmp    d2e2 <safe_mul_func_float_f_f+0x5d>
    d2d8:	f3 0f 10 45 fc       	movss  -0x4(%rbp),%xmm0
    d2dd:	f3 0f 59 45 f8       	mulss  -0x8(%rbp),%xmm0
    d2e2:	5d                   	pop    %rbp
    d2e3:	c3                   	retq   

000000000000d2e4 <safe_div_func_float_f_f>:
    d2e4:	f3 0f 1e fa          	endbr64 
    d2e8:	55                   	push   %rbp
    d2e9:	48 89 e5             	mov    %rsp,%rbp
    d2ec:	f3 0f 11 45 fc       	movss  %xmm0,-0x4(%rbp)
    d2f1:	f3 0f 11 4d f8       	movss  %xmm1,-0x8(%rbp)
    d2f6:	f3 0f 10 45 f8       	movss  -0x8(%rbp),%xmm0
    d2fb:	f3 0f 10 0d 5d 4f 01 	movss  0x14f5d(%rip),%xmm1        # 22260 <l_2676.4171+0x20>
    d302:	00 
    d303:	0f 54 c8             	andps  %xmm0,%xmm1
    d306:	f3 0f 10 05 72 4f 01 	movss  0x14f72(%rip),%xmm0        # 22280 <l_2676.4171+0x40>
    d30d:	00 
    d30e:	0f 2f c1             	comiss %xmm1,%xmm0
    d311:	0f 97 c0             	seta   %al
    d314:	83 f0 01             	xor    $0x1,%eax
    d317:	84 c0                	test   %al,%al
    d319:	75 56                	jne    d371 <safe_div_func_float_f_f+0x8d>
    d31b:	66 0f ef c0          	pxor   %xmm0,%xmm0
    d31f:	0f 2e 45 f8          	ucomiss -0x8(%rbp),%xmm0
    d323:	7a 0a                	jp     d32f <safe_div_func_float_f_f+0x4b>
    d325:	66 0f ef c0          	pxor   %xmm0,%xmm0
    d329:	0f 2e 45 f8          	ucomiss -0x8(%rbp),%xmm0
    d32d:	74 4e                	je     d37d <safe_div_func_float_f_f+0x99>
    d32f:	f3 0f 10 4d fc       	movss  -0x4(%rbp),%xmm1
    d334:	f3 0f 10 05 48 4f 01 	movss  0x14f48(%rip),%xmm0        # 22284 <l_2676.4171+0x44>
    d33b:	00 
    d33c:	f3 0f 59 c1          	mulss  %xmm1,%xmm0
    d340:	f3 0f 10 55 f8       	movss  -0x8(%rbp),%xmm2
    d345:	f3 0f 10 0d 3b 4f 01 	movss  0x14f3b(%rip),%xmm1        # 22288 <l_2676.4171+0x48>
    d34c:	00 
    d34d:	f3 0f 59 ca          	mulss  %xmm2,%xmm1
    d351:	f3 0f 5e c1          	divss  %xmm1,%xmm0
    d355:	f3 0f 10 0d 03 4f 01 	movss  0x14f03(%rip),%xmm1        # 22260 <l_2676.4171+0x20>
    d35c:	00 
    d35d:	0f 54 c1             	andps  %xmm1,%xmm0
    d360:	0f 2f 05 25 4f 01 00 	comiss 0x14f25(%rip),%xmm0        # 2228c <l_2676.4171+0x4c>
    d367:	0f 97 c0             	seta   %al
    d36a:	83 f0 01             	xor    $0x1,%eax
    d36d:	84 c0                	test   %al,%al
    d36f:	74 0c                	je     d37d <safe_div_func_float_f_f+0x99>
    d371:	f3 0f 10 45 fc       	movss  -0x4(%rbp),%xmm0
    d376:	f3 0f 5e 45 f8       	divss  -0x8(%rbp),%xmm0
    d37b:	eb 05                	jmp    d382 <safe_div_func_float_f_f+0x9e>
    d37d:	f3 0f 10 45 fc       	movss  -0x4(%rbp),%xmm0
    d382:	5d                   	pop    %rbp
    d383:	c3                   	retq   

000000000000d384 <safe_add_func_double_f_f>:
    d384:	f3 0f 1e fa          	endbr64 
    d388:	55                   	push   %rbp
    d389:	48 89 e5             	mov    %rsp,%rbp
    d38c:	f2 0f 11 45 f8       	movsd  %xmm0,-0x8(%rbp)
    d391:	f2 0f 11 4d f0       	movsd  %xmm1,-0x10(%rbp)
    d396:	f2 0f 10 4d f8       	movsd  -0x8(%rbp),%xmm1
    d39b:	f2 0f 10 05 ed 4e 01 	movsd  0x14eed(%rip),%xmm0        # 22290 <l_2676.4171+0x50>
    d3a2:	00 
    d3a3:	f2 0f 59 c8          	mulsd  %xmm0,%xmm1
    d3a7:	f2 0f 10 55 f0       	movsd  -0x10(%rbp),%xmm2
    d3ac:	f2 0f 10 05 dc 4e 01 	movsd  0x14edc(%rip),%xmm0        # 22290 <l_2676.4171+0x50>
    d3b3:	00 
    d3b4:	f2 0f 59 c2          	mulsd  %xmm2,%xmm0
    d3b8:	f2 0f 58 c1          	addsd  %xmm1,%xmm0
    d3bc:	f3 0f 7e 0d dc 4e 01 	movq   0x14edc(%rip),%xmm1        # 222a0 <l_2676.4171+0x60>
    d3c3:	00 
    d3c4:	66 0f 54 c1          	andpd  %xmm1,%xmm0
    d3c8:	66 0f 2f 05 e0 4e 01 	comisd 0x14ee0(%rip),%xmm0        # 222b0 <l_2676.4171+0x70>
    d3cf:	00 
    d3d0:	76 07                	jbe    d3d9 <safe_add_func_double_f_f+0x55>
    d3d2:	f2 0f 10 45 f8       	movsd  -0x8(%rbp),%xmm0
    d3d7:	eb 0a                	jmp    d3e3 <safe_add_func_double_f_f+0x5f>
    d3d9:	f2 0f 10 45 f8       	movsd  -0x8(%rbp),%xmm0
    d3de:	f2 0f 58 45 f0       	addsd  -0x10(%rbp),%xmm0
    d3e3:	5d                   	pop    %rbp
    d3e4:	c3                   	retq   

000000000000d3e5 <safe_sub_func_double_f_f>:
    d3e5:	f3 0f 1e fa          	endbr64 
    d3e9:	55                   	push   %rbp
    d3ea:	48 89 e5             	mov    %rsp,%rbp
    d3ed:	f2 0f 11 45 f8       	movsd  %xmm0,-0x8(%rbp)
    d3f2:	f2 0f 11 4d f0       	movsd  %xmm1,-0x10(%rbp)
    d3f7:	f2 0f 10 4d f8       	movsd  -0x8(%rbp),%xmm1
    d3fc:	f2 0f 10 05 8c 4e 01 	movsd  0x14e8c(%rip),%xmm0        # 22290 <l_2676.4171+0x50>
    d403:	00 
    d404:	f2 0f 59 c1          	mulsd  %xmm1,%xmm0
    d408:	f2 0f 10 55 f0       	movsd  -0x10(%rbp),%xmm2
    d40d:	f2 0f 10 0d 7b 4e 01 	movsd  0x14e7b(%rip),%xmm1        # 22290 <l_2676.4171+0x50>
    d414:	00 
    d415:	f2 0f 59 ca          	mulsd  %xmm2,%xmm1
    d419:	f2 0f 5c c1          	subsd  %xmm1,%xmm0
    d41d:	f3 0f 7e 0d 7b 4e 01 	movq   0x14e7b(%rip),%xmm1        # 222a0 <l_2676.4171+0x60>
    d424:	00 
    d425:	66 0f 54 c1          	andpd  %xmm1,%xmm0
    d429:	66 0f 2f 05 7f 4e 01 	comisd 0x14e7f(%rip),%xmm0        # 222b0 <l_2676.4171+0x70>
    d430:	00 
    d431:	76 07                	jbe    d43a <safe_sub_func_double_f_f+0x55>
    d433:	f2 0f 10 45 f8       	movsd  -0x8(%rbp),%xmm0
    d438:	eb 0a                	jmp    d444 <safe_sub_func_double_f_f+0x5f>
    d43a:	f2 0f 10 45 f8       	movsd  -0x8(%rbp),%xmm0
    d43f:	f2 0f 5c 45 f0       	subsd  -0x10(%rbp),%xmm0
    d444:	5d                   	pop    %rbp
    d445:	c3                   	retq   

000000000000d446 <safe_mul_func_double_f_f>:
    d446:	f3 0f 1e fa          	endbr64 
    d44a:	55                   	push   %rbp
    d44b:	48 89 e5             	mov    %rsp,%rbp
    d44e:	f2 0f 11 45 f8       	movsd  %xmm0,-0x8(%rbp)
    d453:	f2 0f 11 4d f0       	movsd  %xmm1,-0x10(%rbp)
    d458:	f2 0f 10 4d f8       	movsd  -0x8(%rbp),%xmm1
    d45d:	f2 0f 10 05 53 4e 01 	movsd  0x14e53(%rip),%xmm0        # 222b8 <l_2676.4171+0x78>
    d464:	00 
    d465:	f2 0f 59 c8          	mulsd  %xmm0,%xmm1
    d469:	f2 0f 10 55 f0       	movsd  -0x10(%rbp),%xmm2
    d46e:	f2 0f 10 05 4a 4e 01 	movsd  0x14e4a(%rip),%xmm0        # 222c0 <l_2676.4171+0x80>
    d475:	00 
    d476:	f2 0f 59 c2          	mulsd  %xmm2,%xmm0
    d47a:	f2 0f 59 c1          	mulsd  %xmm1,%xmm0
    d47e:	f3 0f 7e 0d 1a 4e 01 	movq   0x14e1a(%rip),%xmm1        # 222a0 <l_2676.4171+0x60>
    d485:	00 
    d486:	66 0f 54 c1          	andpd  %xmm1,%xmm0
    d48a:	66 0f 2f 05 36 4e 01 	comisd 0x14e36(%rip),%xmm0        # 222c8 <l_2676.4171+0x88>
    d491:	00 
    d492:	76 07                	jbe    d49b <safe_mul_func_double_f_f+0x55>
    d494:	f2 0f 10 45 f8       	movsd  -0x8(%rbp),%xmm0
    d499:	eb 0a                	jmp    d4a5 <safe_mul_func_double_f_f+0x5f>
    d49b:	f2 0f 10 45 f8       	movsd  -0x8(%rbp),%xmm0
    d4a0:	f2 0f 59 45 f0       	mulsd  -0x10(%rbp),%xmm0
    d4a5:	5d                   	pop    %rbp
    d4a6:	c3                   	retq   

000000000000d4a7 <safe_div_func_double_f_f>:
    d4a7:	f3 0f 1e fa          	endbr64 
    d4ab:	55                   	push   %rbp
    d4ac:	48 89 e5             	mov    %rsp,%rbp
    d4af:	f2 0f 11 45 f8       	movsd  %xmm0,-0x8(%rbp)
    d4b4:	f2 0f 11 4d f0       	movsd  %xmm1,-0x10(%rbp)
    d4b9:	f2 0f 10 45 f0       	movsd  -0x10(%rbp),%xmm0
    d4be:	f3 0f 7e 0d da 4d 01 	movq   0x14dda(%rip),%xmm1        # 222a0 <l_2676.4171+0x60>
    d4c5:	00 
    d4c6:	66 0f 54 c8          	andpd  %xmm0,%xmm1
    d4ca:	f2 0f 10 05 fe 4d 01 	movsd  0x14dfe(%rip),%xmm0        # 222d0 <l_2676.4171+0x90>
    d4d1:	00 
    d4d2:	66 0f 2f c1          	comisd %xmm1,%xmm0
    d4d6:	0f 97 c0             	seta   %al
    d4d9:	83 f0 01             	xor    $0x1,%eax
    d4dc:	84 c0                	test   %al,%al
    d4de:	75 5a                	jne    d53a <safe_div_func_double_f_f+0x93>
    d4e0:	66 0f ef c0          	pxor   %xmm0,%xmm0
    d4e4:	66 0f 2e 45 f0       	ucomisd -0x10(%rbp),%xmm0
    d4e9:	7a 0b                	jp     d4f6 <safe_div_func_double_f_f+0x4f>
    d4eb:	66 0f ef c0          	pxor   %xmm0,%xmm0
    d4ef:	66 0f 2e 45 f0       	ucomisd -0x10(%rbp),%xmm0
    d4f4:	74 50                	je     d546 <safe_div_func_double_f_f+0x9f>
    d4f6:	f2 0f 10 4d f8       	movsd  -0x8(%rbp),%xmm1
    d4fb:	f2 0f 10 05 d5 4d 01 	movsd  0x14dd5(%rip),%xmm0        # 222d8 <l_2676.4171+0x98>
    d502:	00 
    d503:	f2 0f 59 c1          	mulsd  %xmm1,%xmm0
    d507:	f2 0f 10 55 f0       	movsd  -0x10(%rbp),%xmm2
    d50c:	f2 0f 10 0d cc 4d 01 	movsd  0x14dcc(%rip),%xmm1        # 222e0 <l_2676.4171+0xa0>
    d513:	00 
    d514:	f2 0f 59 ca          	mulsd  %xmm2,%xmm1
    d518:	f2 0f 5e c1          	divsd  %xmm1,%xmm0
    d51c:	f3 0f 7e 0d 7c 4d 01 	movq   0x14d7c(%rip),%xmm1        # 222a0 <l_2676.4171+0x60>
    d523:	00 
    d524:	66 0f 54 c1          	andpd  %xmm1,%xmm0
    d528:	66 0f 2f 05 b8 4d 01 	comisd 0x14db8(%rip),%xmm0        # 222e8 <l_2676.4171+0xa8>
    d52f:	00 
    d530:	0f 97 c0             	seta   %al
    d533:	83 f0 01             	xor    $0x1,%eax
    d536:	84 c0                	test   %al,%al
    d538:	74 0c                	je     d546 <safe_div_func_double_f_f+0x9f>
    d53a:	f2 0f 10 45 f8       	movsd  -0x8(%rbp),%xmm0
    d53f:	f2 0f 5e 45 f0       	divsd  -0x10(%rbp),%xmm0
    d544:	eb 05                	jmp    d54b <safe_div_func_double_f_f+0xa4>
    d546:	f2 0f 10 45 f8       	movsd  -0x8(%rbp),%xmm0
    d54b:	5d                   	pop    %rbp
    d54c:	c3                   	retq   

000000000000d54d <safe_convert_func_float_to_int32_t>:
    d54d:	f3 0f 1e fa          	endbr64 
    d551:	55                   	push   %rbp
    d552:	48 89 e5             	mov    %rsp,%rbp
    d555:	f3 0f 11 45 fc       	movss  %xmm0,-0x4(%rbp)
    d55a:	f3 0f 10 05 8e 4d 01 	movss  0x14d8e(%rip),%xmm0        # 222f0 <l_2676.4171+0xb0>
    d561:	00 
    d562:	0f 2f 45 fc          	comiss -0x4(%rbp),%xmm0
    d566:	0f 93 c0             	setae  %al
    d569:	83 f0 01             	xor    $0x1,%eax
    d56c:	84 c0                	test   %al,%al
    d56e:	74 21                	je     d591 <safe_convert_func_float_to_int32_t+0x44>
    d570:	f3 0f 10 45 fc       	movss  -0x4(%rbp),%xmm0
    d575:	0f 2f 05 78 4d 01 00 	comiss 0x14d78(%rip),%xmm0        # 222f4 <l_2676.4171+0xb4>
    d57c:	0f 93 c0             	setae  %al
    d57f:	83 f0 01             	xor    $0x1,%eax
    d582:	84 c0                	test   %al,%al
    d584:	74 0b                	je     d591 <safe_convert_func_float_to_int32_t+0x44>
    d586:	f3 0f 10 45 fc       	movss  -0x4(%rbp),%xmm0
    d58b:	f3 0f 2c c0          	cvttss2si %xmm0,%eax
    d58f:	eb 05                	jmp    d596 <safe_convert_func_float_to_int32_t+0x49>
    d591:	b8 ff ff ff 7f       	mov    $0x7fffffff,%eax
    d596:	5d                   	pop    %rbp
    d597:	c3                   	retq   

000000000000d598 <crc32_gentab>:
    d598:	f3 0f 1e fa          	endbr64 
    d59c:	55                   	push   %rbp
    d59d:	48 89 e5             	mov    %rsp,%rbp
    d5a0:	c7 45 fc 20 83 b8 ed 	movl   $0xedb88320,-0x4(%rbp)
    d5a7:	c7 45 f4 00 00 00 00 	movl   $0x0,-0xc(%rbp)
    d5ae:	eb 51                	jmp    d601 <crc32_gentab+0x69>
    d5b0:	8b 45 f4             	mov    -0xc(%rbp),%eax
    d5b3:	89 45 f0             	mov    %eax,-0x10(%rbp)
    d5b6:	c7 45 f8 08 00 00 00 	movl   $0x8,-0x8(%rbp)
    d5bd:	eb 1e                	jmp    d5dd <crc32_gentab+0x45>
    d5bf:	8b 45 f0             	mov    -0x10(%rbp),%eax
    d5c2:	83 e0 01             	and    $0x1,%eax
    d5c5:	85 c0                	test   %eax,%eax
    d5c7:	74 0d                	je     d5d6 <crc32_gentab+0x3e>
    d5c9:	8b 45 f0             	mov    -0x10(%rbp),%eax
    d5cc:	d1 e8                	shr    %eax
    d5ce:	33 45 fc             	xor    -0x4(%rbp),%eax
    d5d1:	89 45 f0             	mov    %eax,-0x10(%rbp)
    d5d4:	eb 03                	jmp    d5d9 <crc32_gentab+0x41>
    d5d6:	d1 6d f0             	shrl   -0x10(%rbp)
    d5d9:	83 6d f8 01          	subl   $0x1,-0x8(%rbp)
    d5dd:	83 7d f8 00          	cmpl   $0x0,-0x8(%rbp)
    d5e1:	7f dc                	jg     d5bf <crc32_gentab+0x27>
    d5e3:	8b 45 f4             	mov    -0xc(%rbp),%eax
    d5e6:	48 98                	cltq   
    d5e8:	48 8d 0c 85 00 00 00 	lea    0x0(,%rax,4),%rcx
    d5ef:	00 
    d5f0:	48 8d 15 a9 bf 01 00 	lea    0x1bfa9(%rip),%rdx        # 295a0 <crc32_tab>
    d5f7:	8b 45 f0             	mov    -0x10(%rbp),%eax
    d5fa:	89 04 11             	mov    %eax,(%rcx,%rdx,1)
    d5fd:	83 45 f4 01          	addl   $0x1,-0xc(%rbp)
    d601:	81 7d f4 ff 00 00 00 	cmpl   $0xff,-0xc(%rbp)
    d608:	7e a6                	jle    d5b0 <crc32_gentab+0x18>
    d60a:	90                   	nop
    d60b:	90                   	nop
    d60c:	5d                   	pop    %rbp
    d60d:	c3                   	retq   

000000000000d60e <crc32_byte>:
    d60e:	f3 0f 1e fa          	endbr64 
    d612:	55                   	push   %rbp
    d613:	48 89 e5             	mov    %rsp,%rbp
    d616:	89 f8                	mov    %edi,%eax
    d618:	88 45 fc             	mov    %al,-0x4(%rbp)
    d61b:	8b 05 ff 79 01 00    	mov    0x179ff(%rip),%eax        # 25020 <crc32_context>
    d621:	c1 e8 08             	shr    $0x8,%eax
    d624:	89 c1                	mov    %eax,%ecx
    d626:	0f b6 55 fc          	movzbl -0x4(%rbp),%edx
    d62a:	8b 05 f0 79 01 00    	mov    0x179f0(%rip),%eax        # 25020 <crc32_context>
    d630:	31 d0                	xor    %edx,%eax
    d632:	0f b6 c0             	movzbl %al,%eax
    d635:	89 c0                	mov    %eax,%eax
    d637:	48 8d 14 85 00 00 00 	lea    0x0(,%rax,4),%rdx
    d63e:	00 
    d63f:	48 8d 05 5a bf 01 00 	lea    0x1bf5a(%rip),%rax        # 295a0 <crc32_tab>
    d646:	8b 04 02             	mov    (%rdx,%rax,1),%eax
    d649:	31 c8                	xor    %ecx,%eax
    d64b:	89 05 cf 79 01 00    	mov    %eax,0x179cf(%rip)        # 25020 <crc32_context>
    d651:	90                   	nop
    d652:	5d                   	pop    %rbp
    d653:	c3                   	retq   

000000000000d654 <crc32_8bytes>:
    d654:	f3 0f 1e fa          	endbr64 
    d658:	55                   	push   %rbp
    d659:	48 89 e5             	mov    %rsp,%rbp
    d65c:	48 83 ec 08          	sub    $0x8,%rsp
    d660:	48 89 7d f8          	mov    %rdi,-0x8(%rbp)
    d664:	48 8b 45 f8          	mov    -0x8(%rbp),%rax
    d668:	0f b6 c0             	movzbl %al,%eax
    d66b:	89 c7                	mov    %eax,%edi
    d66d:	e8 9c ff ff ff       	callq  d60e <crc32_byte>
    d672:	48 8b 45 f8          	mov    -0x8(%rbp),%rax
    d676:	48 c1 e8 08          	shr    $0x8,%rax
    d67a:	0f b6 c0             	movzbl %al,%eax
    d67d:	89 c7                	mov    %eax,%edi
    d67f:	e8 8a ff ff ff       	callq  d60e <crc32_byte>
    d684:	48 8b 45 f8          	mov    -0x8(%rbp),%rax
    d688:	48 c1 e8 10          	shr    $0x10,%rax
    d68c:	0f b6 c0             	movzbl %al,%eax
    d68f:	89 c7                	mov    %eax,%edi
    d691:	e8 78 ff ff ff       	callq  d60e <crc32_byte>
    d696:	48 8b 45 f8          	mov    -0x8(%rbp),%rax
    d69a:	48 c1 e8 18          	shr    $0x18,%rax
    d69e:	0f b6 c0             	movzbl %al,%eax
    d6a1:	89 c7                	mov    %eax,%edi
    d6a3:	e8 66 ff ff ff       	callq  d60e <crc32_byte>
    d6a8:	48 8b 45 f8          	mov    -0x8(%rbp),%rax
    d6ac:	48 c1 e8 20          	shr    $0x20,%rax
    d6b0:	0f b6 c0             	movzbl %al,%eax
    d6b3:	89 c7                	mov    %eax,%edi
    d6b5:	e8 54 ff ff ff       	callq  d60e <crc32_byte>
    d6ba:	48 8b 45 f8          	mov    -0x8(%rbp),%rax
    d6be:	48 c1 e8 28          	shr    $0x28,%rax
    d6c2:	0f b6 c0             	movzbl %al,%eax
    d6c5:	89 c7                	mov    %eax,%edi
    d6c7:	e8 42 ff ff ff       	callq  d60e <crc32_byte>
    d6cc:	48 8b 45 f8          	mov    -0x8(%rbp),%rax
    d6d0:	48 c1 e8 30          	shr    $0x30,%rax
    d6d4:	0f b6 c0             	movzbl %al,%eax
    d6d7:	89 c7                	mov    %eax,%edi
    d6d9:	e8 30 ff ff ff       	callq  d60e <crc32_byte>
    d6de:	48 8b 45 f8          	mov    -0x8(%rbp),%rax
    d6e2:	48 c1 e8 38          	shr    $0x38,%rax
    d6e6:	0f b6 c0             	movzbl %al,%eax
    d6e9:	89 c7                	mov    %eax,%edi
    d6eb:	e8 1e ff ff ff       	callq  d60e <crc32_byte>
    d6f0:	90                   	nop
    d6f1:	c9                   	leaveq 
    d6f2:	c3                   	retq   

000000000000d6f3 <transparent_crc>:
    d6f3:	f3 0f 1e fa          	endbr64 
    d6f7:	55                   	push   %rbp
    d6f8:	48 89 e5             	mov    %rsp,%rbp
    d6fb:	48 83 ec 20          	sub    $0x20,%rsp
    d6ff:	48 89 7d f8          	mov    %rdi,-0x8(%rbp)
    d703:	48 89 75 f0          	mov    %rsi,-0x10(%rbp)
    d707:	89 55 ec             	mov    %edx,-0x14(%rbp)
    d70a:	48 8b 45 f8          	mov    -0x8(%rbp),%rax
    d70e:	48 89 c7             	mov    %rax,%rdi
    d711:	e8 3e ff ff ff       	callq  d654 <crc32_8bytes>
    d716:	83 7d ec 00          	cmpl   $0x0,-0x14(%rbp)
    d71a:	74 22                	je     d73e <transparent_crc+0x4b>
    d71c:	8b 05 fe 78 01 00    	mov    0x178fe(%rip),%eax        # 25020 <crc32_context>
    d722:	f7 d0                	not    %eax
    d724:	89 c2                	mov    %eax,%edx
    d726:	48 8b 45 f0          	mov    -0x10(%rbp),%rax
    d72a:	48 89 c6             	mov    %rax,%rsi
    d72d:	48 8d 3d fc 28 01 00 	lea    0x128fc(%rip),%rdi        # 20030 <_IO_stdin_used+0x30>
    d734:	b8 00 00 00 00       	mov    $0x0,%eax
    d739:	e8 42 e9 ff ff       	callq  c080 <printf@plt>
    d73e:	90                   	nop
    d73f:	c9                   	leaveq 
    d740:	c3                   	retq   

000000000000d741 <transparent_crc_bytes>:
    d741:	f3 0f 1e fa          	endbr64 
    d745:	55                   	push   %rbp
    d746:	48 89 e5             	mov    %rsp,%rbp
    d749:	48 83 ec 30          	sub    $0x30,%rsp
    d74d:	48 89 7d e8          	mov    %rdi,-0x18(%rbp)
    d751:	89 75 e4             	mov    %esi,-0x1c(%rbp)
    d754:	48 89 55 d8          	mov    %rdx,-0x28(%rbp)
    d758:	89 4d e0             	mov    %ecx,-0x20(%rbp)
    d75b:	c7 45 fc 00 00 00 00 	movl   $0x0,-0x4(%rbp)
    d762:	eb 1e                	jmp    d782 <transparent_crc_bytes+0x41>
    d764:	8b 45 fc             	mov    -0x4(%rbp),%eax
    d767:	48 63 d0             	movslq %eax,%rdx
    d76a:	48 8b 45 e8          	mov    -0x18(%rbp),%rax
    d76e:	48 01 d0             	add    %rdx,%rax
    d771:	0f b6 00             	movzbl (%rax),%eax
    d774:	0f b6 c0             	movzbl %al,%eax
    d777:	89 c7                	mov    %eax,%edi
    d779:	e8 90 fe ff ff       	callq  d60e <crc32_byte>
    d77e:	83 45 fc 01          	addl   $0x1,-0x4(%rbp)
    d782:	8b 45 fc             	mov    -0x4(%rbp),%eax
    d785:	3b 45 e4             	cmp    -0x1c(%rbp),%eax
    d788:	7c da                	jl     d764 <transparent_crc_bytes+0x23>
    d78a:	83 7d e0 00          	cmpl   $0x0,-0x20(%rbp)
    d78e:	74 22                	je     d7b2 <transparent_crc_bytes+0x71>
    d790:	8b 05 8a 78 01 00    	mov    0x1788a(%rip),%eax        # 25020 <crc32_context>
    d796:	f7 d0                	not    %eax
    d798:	89 c2                	mov    %eax,%edx
    d79a:	48 8b 45 d8          	mov    -0x28(%rbp),%rax
    d79e:	48 89 c6             	mov    %rax,%rsi
    d7a1:	48 8d 3d 88 28 01 00 	lea    0x12888(%rip),%rdi        # 20030 <_IO_stdin_used+0x30>
    d7a8:	b8 00 00 00 00       	mov    $0x0,%eax
    d7ad:	e8 ce e8 ff ff       	callq  c080 <printf@plt>
    d7b2:	90                   	nop
    d7b3:	c9                   	leaveq 
    d7b4:	c3                   	retq   

000000000000d7b5 <func_1>:
    d7b5:	f3 0f 1e fa          	endbr64 
    d7b9:	55                   	push   %rbp
    d7ba:	48 89 e5             	mov    %rsp,%rbp
    d7bd:	41 57                	push   %r15
    d7bf:	41 56                	push   %r14
    d7c1:	41 55                	push   %r13
    d7c3:	41 54                	push   %r12
    d7c5:	53                   	push   %rbx
    d7c6:	48 81 ec 08 0f 00 00 	sub    $0xf08,%rsp
    d7cd:	64 48 8b 04 25 28 00 	mov    %fs:0x28,%rax
    d7d4:	00 00 
    d7d6:	48 89 45 c8          	mov    %rax,-0x38(%rbp)
    d7da:	31 c0                	xor    %eax,%eax
    d7dc:	c6 85 fc f0 ff ff 29 	movb   $0x29,-0xf04(%rbp)
    d7e3:	48 8d 05 66 b5 01 00 	lea    0x1b566(%rip),%rax        # 28d50 <g_2530>
    d7ea:	48 89 85 60 f1 ff ff 	mov    %rax,-0xea0(%rbp)
    d7f1:	48 8d 85 60 f1 ff ff 	lea    -0xea0(%rbp),%rax
    d7f8:	48 89 85 88 f1 ff ff 	mov    %rax,-0xe78(%rbp)
    d7ff:	48 8d 05 d6 79 01 00 	lea    0x179d6(%rip),%rax        # 251dc <g_508>
    d806:	48 89 85 90 f1 ff ff 	mov    %rax,-0xe70(%rbp)
    d80d:	48 8d 05 c4 ab 01 00 	lea    0x1abc4(%rip),%rax        # 283d8 <g_1210>
    d814:	48 89 85 98 f1 ff ff 	mov    %rax,-0xe68(%rbp)
    d81b:	c7 85 04 f1 ff ff ea 	movl   $0x49b645ea,-0xefc(%rbp)
    d822:	45 b6 49 
    d825:	48 b8 ff 01 6b dd dd 	movabs $0xff016bdddd6b01ff,%rax
    d82c:	6b 01 ff 
    d82f:	48 89 85 20 f4 ff ff 	mov    %rax,-0xbe0(%rbp)
    d836:	48 b8 00 01 6b 01 01 	movabs $0x1010001016b0100,%rax
    d83d:	00 01 01 
    d840:	48 89 85 28 f4 ff ff 	mov    %rax,-0xbd8(%rbp)
    d847:	48 b8 dd 07 dd 03 01 	movabs $0x6b6b000103dd07dd,%rax
    d84e:	00 6b 6b 
    d851:	48 89 85 30 f4 ff ff 	mov    %rax,-0xbd0(%rbp)
    d858:	48 b8 6b 01 00 00 01 	movabs $0x1016b010000016b,%rax
    d85f:	6b 01 01 
    d862:	48 89 85 38 f4 ff ff 	mov    %rax,-0xbc8(%rbp)
    d869:	48 b8 6b 01 ff 01 01 	movabs $0x1ff010101ff016b,%rax
    d870:	01 ff 01 
    d873:	48 89 85 40 f4 ff ff 	mov    %rax,-0xbc0(%rbp)
    d87a:	48 b8 dd ff 00 01 01 	movabs $0x30303010100ffdd,%rax
    d881:	03 03 03 
    d884:	48 89 85 48 f4 ff ff 	mov    %rax,-0xbb8(%rbp)
    d88b:	48 b8 01 03 03 01 01 	movabs $0xddff000101030301,%rax
    d892:	00 ff dd 
    d895:	48 89 85 50 f4 ff ff 	mov    %rax,-0xbb0(%rbp)
    d89c:	48 b8 07 01 6b ff 6b 	movabs $0x107016bff6b0107,%rax
    d8a3:	01 07 01 
    d8a6:	48 89 85 58 f4 ff ff 	mov    %rax,-0xba8(%rbp)
    d8ad:	48 b8 6b 01 07 01 00 	movabs $0x70100000107016b,%rax
    d8b4:	00 01 07 
    d8b7:	48 89 85 60 f4 ff ff 	mov    %rax,-0xba0(%rbp)
    d8be:	48 b8 dd f5 f0 67 ec 	movabs $0x224c72ec67f0f5dd,%rax
    d8c5:	72 4c 22 
    d8c8:	48 89 85 80 f1 ff ff 	mov    %rax,-0xe80(%rbp)
    d8cf:	c7 85 3c f1 ff ff b4 	movl   $0x426700b4,-0xec4(%rbp)
    d8d6:	00 67 42 
    d8d9:	c7 85 40 f1 ff ff 33 	movl   $0x65ac8e33,-0xec0(%rbp)
    d8e0:	8e ac 65 
    d8e3:	c7 85 10 f1 ff ff 00 	movl   $0x0,-0xef0(%rbp)
    d8ea:	00 00 00 
    d8ed:	eb 21                	jmp    d910 <func_1+0x15b>
    d8ef:	8b 85 10 f1 ff ff    	mov    -0xef0(%rbp),%eax
    d8f5:	48 98                	cltq   
    d8f7:	48 bb 3c 84 54 3d ed 	movabs $0x63232fed3d54843c,%rbx
    d8fe:	2f 23 63 
    d901:	48 89 9c c5 a0 f3 ff 	mov    %rbx,-0xc60(%rbp,%rax,8)
    d908:	ff 
    d909:	83 85 10 f1 ff ff 01 	addl   $0x1,-0xef0(%rbp)
    d910:	83 bd 10 f1 ff ff 06 	cmpl   $0x6,-0xef0(%rbp)
    d917:	7e d6                	jle    d8ef <func_1+0x13a>
    d919:	c7 85 10 f1 ff ff 00 	movl   $0x0,-0xef0(%rbp)
    d920:	00 00 00 
    d923:	eb 1a                	jmp    d93f <func_1+0x18a>
    d925:	8b 85 10 f1 ff ff    	mov    -0xef0(%rbp),%eax
    d92b:	48 98                	cltq   
    d92d:	c7 84 85 10 f3 ff ff 	movl   $0xca069d2c,-0xcf0(%rbp,%rax,4)
    d934:	2c 9d 06 ca 
    d938:	83 85 10 f1 ff ff 01 	addl   $0x1,-0xef0(%rbp)
    d93f:	83 bd 10 f1 ff ff 04 	cmpl   $0x4,-0xef0(%rbp)
    d946:	7e dd                	jle    d925 <func_1+0x170>
    d948:	c7 05 62 77 01 00 00 	movl   $0x0,0x17762(%rip)        # 250b4 <g_3+0x74>
    d94f:	00 00 00 
    d952:	e9 0c 1e 00 00       	jmpq   f763 <func_1+0x1fae>
    d957:	c7 85 50 f3 ff ff 5b 	movl   $0x12535b5b,-0xcb0(%rbp)
    d95e:	5b 53 12 
    d961:	c7 85 54 f3 ff ff 5b 	movl   $0x12535b5b,-0xcac(%rbp)
    d968:	5b 53 12 
    d96b:	c7 85 58 f3 ff ff 5b 	movl   $0x12535b5b,-0xca8(%rbp)
    d972:	5b 53 12 
    d975:	c7 85 5c f3 ff ff 5b 	movl   $0x12535b5b,-0xca4(%rbp)
    d97c:	5b 53 12 
    d97f:	c7 85 60 f3 ff ff 5b 	movl   $0x12535b5b,-0xca0(%rbp)
    d986:	5b 53 12 
    d989:	c7 85 64 f3 ff ff 5b 	movl   $0x12535b5b,-0xc9c(%rbp)
    d990:	5b 53 12 
    d993:	c7 85 68 f3 ff ff 5b 	movl   $0x12535b5b,-0xc98(%rbp)
    d99a:	5b 53 12 
    d99d:	48 b8 20 be 48 17 19 	movabs $0xe784d8191748be20,%rax
    d9a4:	d8 84 e7 
    d9a7:	48 89 85 a0 f1 ff ff 	mov    %rax,-0xe60(%rbp)
    d9ae:	c7 85 08 f1 ff ff 59 	movl   $0x672c2459,-0xef8(%rbp)
    d9b5:	24 2c 67 
    d9b8:	48 b8 72 79 55 97 20 	movabs $0xf782d72097557972,%rax
    d9bf:	d7 82 f7 
    d9c2:	48 89 85 a8 f1 ff ff 	mov    %rax,-0xe58(%rbp)
    d9c9:	48 b8 c5 c5 00 c5 c5 	movabs $0xc5c500c5c500c5c5,%rax
    d9d0:	00 c5 c5 
    d9d3:	48 89 45 bf          	mov    %rax,-0x41(%rbp)
    d9d7:	c6 45 c7 00          	movb   $0x0,-0x39(%rbp)
    d9db:	48 8d 85 08 f1 ff ff 	lea    -0xef8(%rbp),%rax
    d9e2:	48 89 85 b0 f1 ff ff 	mov    %rax,-0xe50(%rbp)
    d9e9:	48 c7 85 68 f1 ff ff 	movq   $0x0,-0xe98(%rbp)
    d9f0:	00 00 00 00 
    d9f4:	48 8d 85 68 f1 ff ff 	lea    -0xe98(%rbp),%rax
    d9fb:	48 89 85 b8 f1 ff ff 	mov    %rax,-0xe48(%rbp)
    da02:	c7 85 44 f1 ff ff 8e 	movl   $0xe4cfec8e,-0xebc(%rbp)
    da09:	ec cf e4 
    da0c:	c7 85 d0 f4 ff ff 46 	movl   $0x58083346,-0xb30(%rbp)
    da13:	33 08 58 
    da16:	c7 85 d4 f4 ff ff e2 	movl   $0xa47729e2,-0xb2c(%rbp)
    da1d:	29 77 a4 
    da20:	c7 85 d8 f4 ff ff ff 	movl   $0xffffffff,-0xb28(%rbp)
    da27:	ff ff ff 
    da2a:	c7 85 dc f4 ff ff e2 	movl   $0xa47729e2,-0xb24(%rbp)
    da31:	29 77 a4 
    da34:	c7 85 e0 f4 ff ff 05 	movl   $0x5,-0xb20(%rbp)
    da3b:	00 00 00 
    da3e:	c7 85 e4 f4 ff ff 01 	movl   $0x1,-0xb1c(%rbp)
    da45:	00 00 00 
    da48:	c7 85 e8 f4 ff ff 00 	movl   $0x0,-0xb18(%rbp)
    da4f:	00 00 00 
    da52:	c7 85 ec f4 ff ff ff 	movl   $0xffffffff,-0xb14(%rbp)
    da59:	ff ff ff 
    da5c:	c7 85 f0 f4 ff ff e2 	movl   $0xa47729e2,-0xb10(%rbp)
    da63:	29 77 a4 
    da66:	c7 85 f4 f4 ff ff 01 	movl   $0x1,-0xb0c(%rbp)
    da6d:	00 00 00 
    da70:	c7 85 f8 f4 ff ff 01 	movl   $0x1,-0xb08(%rbp)
    da77:	00 00 00 
    da7a:	c7 85 fc f4 ff ff e2 	movl   $0xa47729e2,-0xb04(%rbp)
    da81:	29 77 a4 
    da84:	c7 85 00 f5 ff ff 01 	movl   $0x1,-0xb00(%rbp)
    da8b:	00 00 00 
    da8e:	c7 85 04 f5 ff ff e2 	movl   $0xa47729e2,-0xafc(%rbp)
    da95:	29 77 a4 
    da98:	c7 85 08 f5 ff ff 05 	movl   $0x5,-0xaf8(%rbp)
    da9f:	00 00 00 
    daa2:	c7 85 0c f5 ff ff 46 	movl   $0x58083346,-0xaf4(%rbp)
    daa9:	33 08 58 
    daac:	c7 85 10 f5 ff ff 01 	movl   $0x1,-0xaf0(%rbp)
    dab3:	00 00 00 
    dab6:	c7 85 14 f5 ff ff 05 	movl   $0x5,-0xaec(%rbp)
    dabd:	00 00 00 
    dac0:	c7 85 18 f5 ff ff 01 	movl   $0x1,-0xae8(%rbp)
    dac7:	00 00 00 
    daca:	c7 85 1c f5 ff ff 00 	movl   $0x0,-0xae4(%rbp)
    dad1:	00 00 00 
    dad4:	c7 85 20 f5 ff ff e2 	movl   $0xa47729e2,-0xae0(%rbp)
    dadb:	29 77 a4 
    dade:	c7 85 24 f5 ff ff 46 	movl   $0x58083346,-0xadc(%rbp)
    dae5:	33 08 58 
    dae8:	c7 85 28 f5 ff ff 00 	movl   $0x0,-0xad8(%rbp)
    daef:	00 00 00 
    daf2:	c7 85 2c f5 ff ff 00 	movl   $0x0,-0xad4(%rbp)
    daf9:	00 00 00 
    dafc:	c7 85 30 f5 ff ff fb 	movl   $0xfffffffb,-0xad0(%rbp)
    db03:	ff ff ff 
    db06:	c7 85 34 f5 ff ff fb 	movl   $0xfffffffb,-0xacc(%rbp)
    db0d:	ff ff ff 
    db10:	c7 85 38 f5 ff ff 05 	movl   $0x5,-0xac8(%rbp)
    db17:	00 00 00 
    db1a:	c7 85 3c f5 ff ff 00 	movl   $0x0,-0xac4(%rbp)
    db21:	00 00 00 
    db24:	c7 85 40 f5 ff ff 00 	movl   $0x0,-0xac0(%rbp)
    db2b:	00 00 00 
    db2e:	c7 85 44 f5 ff ff 01 	movl   $0x1,-0xabc(%rbp)
    db35:	00 00 00 
    db38:	c7 85 48 f5 ff ff 05 	movl   $0x5,-0xab8(%rbp)
    db3f:	00 00 00 
    db42:	c7 85 4c f5 ff ff 01 	movl   $0x1,-0xab4(%rbp)
    db49:	00 00 00 
    db4c:	c7 85 50 f5 ff ff fb 	movl   $0xfffffffb,-0xab0(%rbp)
    db53:	ff ff ff 
    db56:	c7 85 54 f5 ff ff 46 	movl   $0x58083346,-0xaac(%rbp)
    db5d:	33 08 58 
    db60:	c7 85 58 f5 ff ff ff 	movl   $0xffffffff,-0xaa8(%rbp)
    db67:	ff ff ff 
    db6a:	c7 85 5c f5 ff ff 05 	movl   $0x5,-0xaa4(%rbp)
    db71:	00 00 00 
    db74:	c7 85 60 f5 ff ff 01 	movl   $0x1,-0xaa0(%rbp)
    db7b:	00 00 00 
    db7e:	c7 85 64 f5 ff ff 46 	movl   $0x58083346,-0xa9c(%rbp)
    db85:	33 08 58 
    db88:	c7 85 68 f5 ff ff 46 	movl   $0x58083346,-0xa98(%rbp)
    db8f:	33 08 58 
    db92:	c7 85 6c f5 ff ff 01 	movl   $0x1,-0xa94(%rbp)
    db99:	00 00 00 
    db9c:	66 c7 85 02 f1 ff ff 	movw   $0x4,-0xefe(%rbp)
    dba3:	04 00 
    dba5:	48 c7 85 c0 f1 ff ff 	movq   $0x0,-0xe40(%rbp)
    dbac:	00 00 00 00 
    dbb0:	c7 85 48 f1 ff ff c6 	movl   $0x2ae6c0c6,-0xeb8(%rbp)
    dbb7:	c0 e6 2a 
    dbba:	c7 85 70 f4 ff ff 22 	movl   $0xf2681522,-0xb90(%rbp)
    dbc1:	15 68 f2 
    dbc4:	c7 85 74 f4 ff ff 24 	movl   $0xd31bd124,-0xb8c(%rbp)
    dbcb:	d1 1b d3 
    dbce:	c7 85 78 f4 ff ff 01 	movl   $0x1,-0xb88(%rbp)
    dbd5:	00 00 00 
    dbd8:	c7 85 7c f4 ff ff 24 	movl   $0xd31bd124,-0xb84(%rbp)
    dbdf:	d1 1b d3 
    dbe2:	c7 85 80 f4 ff ff 22 	movl   $0xf2681522,-0xb80(%rbp)
    dbe9:	15 68 f2 
    dbec:	c7 85 84 f4 ff ff 22 	movl   $0xf2681522,-0xb7c(%rbp)
    dbf3:	15 68 f2 
    dbf6:	c7 85 88 f4 ff ff 01 	movl   $0x1,-0xb78(%rbp)
    dbfd:	00 00 00 
    dc00:	c7 85 8c f4 ff ff 22 	movl   $0xf2681522,-0xb74(%rbp)
    dc07:	15 68 f2 
    dc0a:	c7 85 90 f4 ff ff d7 	movl   $0x2de79ed7,-0xb70(%rbp)
    dc11:	9e e7 2d 
    dc14:	c7 85 94 f4 ff ff c0 	movl   $0x16efa3c0,-0xb6c(%rbp)
    dc1b:	a3 ef 16 
    dc1e:	c7 85 98 f4 ff ff 24 	movl   $0xd31bd124,-0xb68(%rbp)
    dc25:	d1 1b d3 
    dc28:	c7 85 9c f4 ff ff f9 	movl   $0xabf41f9,-0xb64(%rbp)
    dc2f:	41 bf 0a 
    dc32:	c7 85 a0 f4 ff ff 01 	movl   $0x1,-0xb60(%rbp)
    dc39:	00 00 00 
    dc3c:	c7 85 a4 f4 ff ff 01 	movl   $0x1,-0xb5c(%rbp)
    dc43:	00 00 00 
    dc46:	c7 85 a8 f4 ff ff f9 	movl   $0xabf41f9,-0xb58(%rbp)
    dc4d:	41 bf 0a 
    dc50:	c7 85 ac f4 ff ff 24 	movl   $0xd31bd124,-0xb54(%rbp)
    dc57:	d1 1b d3 
    dc5a:	c7 85 b0 f4 ff ff c0 	movl   $0x16efa3c0,-0xb50(%rbp)
    dc61:	a3 ef 16 
    dc64:	c7 85 b4 f4 ff ff d7 	movl   $0x2de79ed7,-0xb4c(%rbp)
    dc6b:	9e e7 2d 
    dc6e:	c7 85 b8 f4 ff ff 22 	movl   $0xf2681522,-0xb48(%rbp)
    dc75:	15 68 f2 
    dc78:	c7 85 bc f4 ff ff 01 	movl   $0x1,-0xb44(%rbp)
    dc7f:	00 00 00 
    dc82:	c7 85 c0 f4 ff ff 22 	movl   $0xf2681522,-0xb40(%rbp)
    dc89:	15 68 f2 
    dc8c:	c7 85 14 f1 ff ff 00 	movl   $0x0,-0xeec(%rbp)
    dc93:	00 00 00 
    dc96:	eb 1b                	jmp    dcb3 <func_1+0x4fe>
    dc98:	8b 85 14 f1 ff ff    	mov    -0xeec(%rbp),%eax
    dc9e:	48 98                	cltq   
    dca0:	48 c7 84 c5 30 f3 ff 	movq   $0xffffffffffffffff,-0xcd0(%rbp,%rax,8)
    dca7:	ff ff ff ff ff 
    dcac:	83 85 14 f1 ff ff 01 	addl   $0x1,-0xeec(%rbp)
    dcb3:	83 bd 14 f1 ff ff 02 	cmpl   $0x2,-0xeec(%rbp)
    dcba:	7e dc                	jle    dc98 <func_1+0x4e3>
    dcbc:	c7 05 9e 74 01 00 00 	movl   $0x0,0x1749e(%rip)        # 25164 <g_9>
    dcc3:	00 00 00 
    dcc6:	e9 7c 0b 00 00       	jmpq   e847 <func_1+0x1092>
    dccb:	48 8d 05 06 a6 01 00 	lea    0x1a606(%rip),%rax        # 282d8 <g_819>
    dcd2:	48 89 85 68 f2 ff ff 	mov    %rax,-0xd98(%rbp)
    dcd9:	c6 85 fd f0 ff ff 72 	movb   $0x72,-0xf03(%rbp)
    dce0:	c7 85 18 f1 ff ff 00 	movl   $0x0,-0xee8(%rbp)
    dce7:	00 00 00 
    dcea:	eb 42                	jmp    dd2e <func_1+0x579>
    dcec:	c7 85 1c f1 ff ff 00 	movl   $0x0,-0xee4(%rbp)
    dcf3:	00 00 00 
    dcf6:	eb 26                	jmp    dd1e <func_1+0x569>
    dcf8:	8b 85 1c f1 ff ff    	mov    -0xee4(%rbp),%eax
    dcfe:	48 63 d0             	movslq %eax,%rdx
    dd01:	8b 85 18 f1 ff ff    	mov    -0xee8(%rbp),%eax
    dd07:	48 98                	cltq   
    dd09:	48 01 d0             	add    %rdx,%rax
    dd0c:	c7 84 85 04 f3 ff ff 	movl   $0xfffffff8,-0xcfc(%rbp,%rax,4)
    dd13:	f8 ff ff ff 
    dd17:	83 85 1c f1 ff ff 01 	addl   $0x1,-0xee4(%rbp)
    dd1e:	83 bd 1c f1 ff ff 00 	cmpl   $0x0,-0xee4(%rbp)
    dd25:	7e d1                	jle    dcf8 <func_1+0x543>
    dd27:	83 85 18 f1 ff ff 01 	addl   $0x1,-0xee8(%rbp)
    dd2e:	83 bd 18 f1 ff ff 00 	cmpl   $0x0,-0xee8(%rbp)
    dd35:	7e b5                	jle    dcec <func_1+0x537>
    dd37:	c7 05 27 74 01 00 00 	movl   $0x0,0x17427(%rip)        # 25168 <g_12>
    dd3e:	00 00 00 
    dd41:	e9 d7 0a 00 00       	jmpq   e81d <func_1+0x1068>
    dd46:	48 8d 05 23 74 01 00 	lea    0x17423(%rip),%rax        # 25170 <g_49>
    dd4d:	48 89 85 70 f2 ff ff 	mov    %rax,-0xd90(%rbp)
    dd54:	48 c7 85 78 f2 ff ff 	movq   $0x0,-0xd88(%rbp)
    dd5b:	00 00 00 00 
    dd5f:	48 8d 05 42 bc 01 00 	lea    0x1bc42(%rip),%rax        # 299a8 <g_57>
    dd66:	48 89 85 80 f2 ff ff 	mov    %rax,-0xd80(%rbp)
    dd6d:	c7 85 5c f1 ff ff ea 	movl   $0xf44aa6ea,-0xea4(%rbp)
    dd74:	a6 4a f4 
    dd77:	48 8d 05 42 a5 01 00 	lea    0x1a542(%rip),%rax        # 282c0 <g_766+0x180>
    dd7e:	48 89 85 88 f2 ff ff 	mov    %rax,-0xd78(%rbp)
    dd85:	c7 85 20 f1 ff ff 00 	movl   $0x0,-0xee0(%rbp)
    dd8c:	00 00 00 
    dd8f:	eb 1a                	jmp    ddab <func_1+0x5f6>
    dd91:	8b 85 20 f1 ff ff    	mov    -0xee0(%rbp),%eax
    dd97:	48 98                	cltq   
    dd99:	c7 84 85 70 f3 ff ff 	movl   $0xfffffffb,-0xc90(%rbp,%rax,4)
    dda0:	fb ff ff ff 
    dda4:	83 85 20 f1 ff ff 01 	addl   $0x1,-0xee0(%rbp)
    ddab:	83 bd 20 f1 ff ff 01 	cmpl   $0x1,-0xee0(%rbp)
    ddb2:	7e dd                	jle    dd91 <func_1+0x5dc>
    ddb4:	8b 85 04 f3 ff ff    	mov    -0xcfc(%rbp),%eax
    ddba:	89 85 ec f0 ff ff    	mov    %eax,-0xf14(%rbp)
    ddc0:	0f b6 05 28 76 01 00 	movzbl 0x17628(%rip),%eax        # 253ef <g_1242>
    ddc7:	0f be d8             	movsbl %al,%ebx
    ddca:	89 9d e0 f0 ff ff    	mov    %ebx,-0xf20(%rbp)
    ddd0:	0f b7 05 d1 76 01 00 	movzwl 0x176d1(%rip),%eax        # 254a8 <g_1891+0x28>
    ddd7:	0f bf d8             	movswl %ax,%ebx
    ddda:	0f b7 05 5f 76 01 00 	movzwl 0x1765f(%rip),%eax        # 25440 <g_1645>
    dde1:	44 0f bf e0          	movswl %ax,%r12d
    dde5:	8b 85 64 f3 ff ff    	mov    -0xc9c(%rbp),%eax
    ddeb:	89 85 e8 f0 ff ff    	mov    %eax,-0xf18(%rbp)
    ddf1:	8b 85 04 f3 ff ff    	mov    -0xcfc(%rbp),%eax
    ddf7:	89 c1                	mov    %eax,%ecx
    ddf9:	48 89 8d d8 f0 ff ff 	mov    %rcx,-0xf28(%rbp)
    de00:	b8 9d 2b 00 00       	mov    $0x2b9d,%eax
    de05:	44 0f bf e8          	movswl %ax,%r13d
    de09:	48 8b 85 d0 f3 ff ff 	mov    -0xc30(%rbp),%rax
    de10:	44 0f b7 f8          	movzwl %ax,%r15d
    de14:	8b 85 5c f1 ff ff    	mov    -0xea4(%rbp),%eax
    de1a:	44 0f be f0          	movsbl %al,%r14d
    de1e:	8b 05 bc 74 01 00    	mov    0x174bc(%rip),%eax        # 252e0 <g_842>
    de24:	0f bf f8             	movswl %ax,%edi
    de27:	89 bd d4 f0 ff ff    	mov    %edi,-0xf2c(%rbp)
    de2d:	8b 85 04 f3 ff ff    	mov    -0xcfc(%rbp),%eax
    de33:	44 0f be c8          	movsbl %al,%r9d
    de37:	44 89 8d d0 f0 ff ff 	mov    %r9d,-0xf30(%rbp)
    de3e:	8b 85 50 f3 ff ff    	mov    -0xcb0(%rbp),%eax
    de44:	89 c0                	mov    %eax,%eax
    de46:	48 89 05 2b 73 01 00 	mov    %rax,0x1732b(%rip)        # 25178 <g_55>
    de4d:	48 8b 05 24 73 01 00 	mov    0x17324(%rip),%rax        # 25178 <g_55>
    de54:	48 83 f8 5b          	cmp    $0x5b,%rax
    de58:	0f 9e c0             	setle  %al
    de5b:	0f b6 c0             	movzbl %al,%eax
    de5e:	8b 15 50 72 01 00    	mov    0x17250(%rip),%edx        # 250b4 <g_3+0x74>
    de64:	89 d1                	mov    %edx,%ecx
    de66:	48 8b 95 80 f2 ff ff 	mov    -0xd80(%rbp),%rdx
    de6d:	89 c6                	mov    %eax,%esi
    de6f:	89 cf                	mov    %ecx,%edi
    de71:	e8 84 8a 00 00       	callq  168fa <func_50>
    de76:	89 c2                	mov    %eax,%edx
    de78:	48 8b 85 70 f2 ff ff 	mov    -0xd90(%rbp),%rax
    de7f:	48 c7 00 03 00 00 00 	movq   $0x3,(%rax)
    de86:	48 8b 85 70 f2 ff ff 	mov    -0xd90(%rbp),%rax
    de8d:	48 8b 30             	mov    (%rax),%rsi
    de90:	8b 05 ce 72 01 00    	mov    0x172ce(%rip),%eax        # 25164 <g_9>
    de96:	44 8b 85 d4 f0 ff ff 	mov    -0xf2c(%rbp),%r8d
    de9d:	8b 8d d0 f0 ff ff    	mov    -0xf30(%rbp),%ecx
    dea3:	89 c7                	mov    %eax,%edi
    dea5:	e8 fb 84 00 00       	callq  163a5 <func_42>
    deaa:	0f be f0             	movsbl %al,%esi
    dead:	8b 85 50 f3 ff ff    	mov    -0xcb0(%rbp),%eax
    deb3:	44 89 f9             	mov    %r15d,%ecx
    deb6:	44 89 f2             	mov    %r14d,%edx
    deb9:	89 c7                	mov    %eax,%edi
    debb:	e8 9d 7c 00 00       	callq  15b5d <func_36>
    dec0:	0f be d0             	movsbl %al,%edx
    dec3:	8b 05 9b 72 01 00    	mov    0x1729b(%rip),%eax        # 25164 <g_9>
    dec9:	09 d0                	or     %edx,%eax
    decb:	48 98                	cltq   
    decd:	48 8b 95 d8 f0 ff ff 	mov    -0xf28(%rbp),%rdx
    ded4:	44 89 ee             	mov    %r13d,%esi
    ded7:	48 89 c7             	mov    %rax,%rdi
    deda:	e8 f9 2a 00 00       	callq  109d8 <func_32>
    dedf:	48 89 c2             	mov    %rax,%rdx
    dee2:	48 8b 85 c8 f3 ff ff 	mov    -0xc38(%rbp),%rax
    dee9:	48 39 c2             	cmp    %rax,%rdx
    deec:	0f 96 c0             	setbe  %al
    deef:	0f b6 c0             	movzbl %al,%eax
    def2:	be 03 00 00 00       	mov    $0x3,%esi
    def7:	89 c7                	mov    %eax,%edi
    def9:	e8 e3 e5 ff ff       	callq  c4e1 <safe_lshift_func_int16_t_s_u>
    defe:	98                   	cwtl   
    deff:	8b b5 e8 f0 ff ff    	mov    -0xf18(%rbp),%esi
    df05:	89 c7                	mov    %eax,%edi
    df07:	e8 de 25 00 00       	callq  104ea <func_27>
    df0c:	98                   	cwtl   
    df0d:	44 89 e6             	mov    %r12d,%esi
    df10:	89 c7                	mov    %eax,%edi
    df12:	e8 bc e4 ff ff       	callq  c3d3 <safe_sub_func_int16_t_s_s>
    df17:	0f bf f0             	movswl %ax,%esi
    df1a:	8b 05 48 72 01 00    	mov    0x17248(%rip),%eax        # 25168 <g_12>
    df20:	48 98                	cltq   
    df22:	48 8d 14 85 00 00 00 	lea    0x0(,%rax,4),%rdx
    df29:	00 
    df2a:	48 8d 05 f7 70 01 00 	lea    0x170f7(%rip),%rax        # 25028 <g_2>
    df31:	8b 04 02             	mov    (%rdx,%rax,1),%eax
    df34:	8b 95 5c f1 ff ff    	mov    -0xea4(%rbp),%edx
    df3a:	44 8b 85 e0 f0 ff ff 	mov    -0xf20(%rbp),%r8d
    df41:	89 d9                	mov    %ebx,%ecx
    df43:	89 c7                	mov    %eax,%edi
    df45:	e8 55 18 00 00       	callq  f79f <func_19>
    df4a:	0f b7 05 1d 75 01 00 	movzwl 0x1751d(%rip),%eax        # 2546e <g_1645+0x2e>
    df51:	0f b7 c0             	movzwl %ax,%eax
    df54:	be f3 16 00 00       	mov    $0x16f3,%esi
    df59:	89 c7                	mov    %eax,%edi
    df5b:	e8 fc ed ff ff       	callq  cd5c <safe_mod_func_uint16_t_u_u>
    df60:	0f b7 d0             	movzwl %ax,%edx
    df63:	8b 05 4b 71 01 00    	mov    0x1714b(%rip),%eax        # 250b4 <g_3+0x74>
    df69:	39 c2                	cmp    %eax,%edx
    df6b:	0f 9c c0             	setl   %al
    df6e:	0f b6 c0             	movzbl %al,%eax
    df71:	8b b5 ec f0 ff ff    	mov    -0xf14(%rbp),%esi
    df77:	89 c7                	mov    %eax,%edi
    df79:	e8 38 e6 ff ff       	callq  c5b6 <safe_add_func_int32_t_s_s>
    df7e:	0f be c0             	movsbl %al,%eax
    df81:	be 04 00 00 00       	mov    $0x4,%esi
    df86:	89 c7                	mov    %eax,%edi
    df88:	e8 61 e3 ff ff       	callq  c2ee <safe_lshift_func_int8_t_s_u>
    df8d:	84 c0                	test   %al,%al
    df8f:	74 4e                	je     dfdf <func_1+0x82a>
    df91:	66 c7 05 7e 74 01 00 	movw   $0x0,0x1747e(%rip)        # 25418 <g_1588>
    df98:	00 00 
    df9a:	90                   	nop
    df9b:	0f b7 05 76 74 01 00 	movzwl 0x17476(%rip),%eax        # 25418 <g_1588>
    dfa2:	66 83 f8 01          	cmp    $0x1,%ax
    dfa6:	77 0e                	ja     dfb6 <func_1+0x801>
    dfa8:	48 8b 05 a1 ad 01 00 	mov    0x1ada1(%rip),%rax        # 28d50 <g_2530>
    dfaf:	8b 00                	mov    (%rax),%eax
    dfb1:	e9 c3 17 00 00       	jmpq   f779 <func_1+0x1fc4>
    dfb6:	48 8b 15 13 a4 01 00 	mov    0x1a413(%rip),%rdx        # 283d0 <g_1164>
    dfbd:	48 8b 05 0c a4 01 00 	mov    0x1a40c(%rip),%rax        # 283d0 <g_1164>
    dfc4:	48 8b 12             	mov    (%rdx),%rdx
    dfc7:	48 89 10             	mov    %rdx,(%rax)
    dfca:	48 8b 85 d0 f3 ff ff 	mov    -0xc30(%rbp),%rax
    dfd1:	48 85 c0             	test   %rax,%rax
    dfd4:	0f 84 26 08 00 00    	je     e800 <func_1+0x104b>
    dfda:	e9 2f 08 00 00       	jmpq   e80e <func_1+0x1059>
    dfdf:	48 8d 05 f2 a2 01 00 	lea    0x1a2f2(%rip),%rax        # 282d8 <g_819>
    dfe6:	48 89 85 90 f2 ff ff 	mov    %rax,-0xd70(%rbp)
    dfed:	48 8d 85 50 f6 ff ff 	lea    -0x9b0(%rbp),%rax
    dff4:	48 8d 15 85 20 01 00 	lea    0x12085(%rip),%rdx        # 20080 <g_1983+0x18>
    dffb:	b9 3c 00 00 00       	mov    $0x3c,%ecx
    e000:	48 89 c7             	mov    %rax,%rdi
    e003:	48 89 d6             	mov    %rdx,%rsi
    e006:	f3 48 a5             	rep movsq %ds:(%rsi),%es:(%rdi)
    e009:	48 8d 85 30 f8 ff ff 	lea    -0x7d0(%rbp),%rax
    e010:	48 8d 15 c9 74 01 00 	lea    0x174c9(%rip),%rdx        # 254e0 <g_2684+0x8>
    e017:	b9 f0 00 00 00       	mov    $0xf0,%ecx
    e01c:	48 89 c7             	mov    %rax,%rdi
    e01f:	48 89 d6             	mov    %rdx,%rsi
    e022:	f3 48 a5             	rep movsq %ds:(%rsi),%es:(%rdi)
    e025:	c7 85 0c f1 ff ff 69 	movl   $0xf5968469,-0xef4(%rbp)
    e02c:	84 96 f5 
    e02f:	c7 85 70 f1 ff ff 00 	movl   $0x0,-0xe90(%rbp)
    e036:	00 00 00 
    e039:	66 c7 85 fe f0 ff ff 	movw   $0x7,-0xf02(%rbp)
    e040:	07 00 
    e042:	8b 9d 5c f1 ff ff    	mov    -0xea4(%rbp),%ebx
    e048:	8b 85 04 f3 ff ff    	mov    -0xcfc(%rbp),%eax
    e04e:	41 89 c4             	mov    %eax,%r12d
    e051:	48 8b 85 a0 f1 ff ff 	mov    -0xe60(%rbp),%rax
    e058:	41 89 c5             	mov    %eax,%r13d
    e05b:	8b 85 b4 f6 ff ff    	mov    -0x94c(%rbp),%eax
    e061:	41 89 c6             	mov    %eax,%r14d
    e064:	8b 85 2c f8 ff ff    	mov    -0x7d4(%rbp),%eax
    e06a:	89 85 0c f1 ff ff    	mov    %eax,-0xef4(%rbp)
    e070:	8b 85 0c f1 ff ff    	mov    -0xef4(%rbp),%eax
    e076:	89 85 70 f1 ff ff    	mov    %eax,-0xe90(%rbp)
    e07c:	8b 85 70 f1 ff ff    	mov    -0xe90(%rbp),%eax
    e082:	85 c0                	test   %eax,%eax
    e084:	0f 84 83 00 00 00    	je     e10d <func_1+0x958>
    e08a:	48 8b 05 af ac 01 00 	mov    0x1acaf(%rip),%rax        # 28d40 <g_2351>
    e091:	48 8b 00             	mov    (%rax),%rax
    e094:	48 8b 00             	mov    (%rax),%rax
    e097:	48 8b 00             	mov    (%rax),%rax
    e09a:	49 89 c7             	mov    %rax,%r15
    e09d:	0f b6 85 fc f0 ff ff 	movzbl -0xf04(%rbp),%eax
    e0a4:	be 01 00 00 00       	mov    $0x1,%esi
    e0a9:	89 c7                	mov    %eax,%edi
    e0ab:	e8 8d ec ff ff       	callq  cd3d <safe_mul_func_uint16_t_u_u>
    e0b0:	48 8b 85 a0 f1 ff ff 	mov    -0xe60(%rbp),%rax
    e0b7:	98                   	cwtl   
    e0b8:	be 0f 00 00 00       	mov    $0xf,%esi
    e0bd:	89 c7                	mov    %eax,%edi
    e0bf:	e8 66 e4 ff ff       	callq  c52a <safe_rshift_func_int16_t_s_s>
    e0c4:	98                   	cwtl   
    e0c5:	89 85 08 f1 ff ff    	mov    %eax,-0xef8(%rbp)
    e0cb:	8b 85 08 f1 ff ff    	mov    -0xef8(%rbp),%eax
    e0d1:	48 98                	cltq   
    e0d3:	4c 89 fe             	mov    %r15,%rsi
    e0d6:	48 89 c7             	mov    %rax,%rdi
    e0d9:	e8 d6 e8 ff ff       	callq  c9b4 <safe_mod_func_int64_t_s_s>
    e0de:	0f b7 85 fe f0 ff ff 	movzwl -0xf02(%rbp),%eax
    e0e5:	48 0f bf c0          	movswq %ax,%rax
    e0e9:	48 ba a1 6d 05 96 ad 	movabs $0xc89f60ad96056da1,%rdx
    e0f0:	60 9f c8 
    e0f3:	48 39 d0             	cmp    %rdx,%rax
    e0f6:	0f 96 c0             	setbe  %al
    e0f9:	0f b6 d0             	movzbl %al,%edx
    e0fc:	8b 85 0c f1 ff ff    	mov    -0xef4(%rbp),%eax
    e102:	39 c2                	cmp    %eax,%edx
    e104:	7f 07                	jg     e10d <func_1+0x958>
    e106:	b8 01 00 00 00       	mov    $0x1,%eax
    e10b:	eb 05                	jmp    e112 <func_1+0x95d>
    e10d:	b8 00 00 00 00       	mov    $0x0,%eax
    e112:	44 89 f6             	mov    %r14d,%esi
    e115:	89 c7                	mov    %eax,%edi
    e117:	e8 9a e4 ff ff       	callq  c5b6 <safe_add_func_int32_t_s_s>
    e11c:	98                   	cwtl   
    e11d:	89 c7                	mov    %eax,%edi
    e11f:	e8 79 e2 ff ff       	callq  c39d <safe_unary_minus_func_int16_t_s>
    e124:	0f b6 c0             	movzbl %al,%eax
    e127:	44 89 ee             	mov    %r13d,%esi
    e12a:	89 c7                	mov    %eax,%edi
    e12c:	e8 d4 ea ff ff       	callq  cc05 <safe_lshift_func_uint8_t_u_s>
    e131:	0f be c0             	movsbl %al,%eax
    e134:	44 89 e6             	mov    %r12d,%esi
    e137:	89 c7                	mov    %eax,%edi
    e139:	e8 f7 e1 ff ff       	callq  c335 <safe_rshift_func_int8_t_s_s>
    e13e:	89 de                	mov    %ebx,%esi
    e140:	bf 01 00 00 00       	mov    $0x1,%edi
    e145:	e8 db ed ff ff       	callq  cf25 <safe_div_func_uint32_t_u_u>
    e14a:	89 c3                	mov    %eax,%ebx
    e14c:	48 8b 85 90 f2 ff ff 	mov    -0xd70(%rbp),%rax
    e153:	48 3b 85 68 f2 ff ff 	cmp    -0xd98(%rbp),%rax
    e15a:	0f 95 c0             	setne  %al
    e15d:	0f b6 c0             	movzbl %al,%eax
    e160:	be 01 00 00 00       	mov    $0x1,%esi
    e165:	89 c7                	mov    %eax,%edi
    e167:	e8 c5 e0 ff ff       	callq  c231 <safe_mod_func_int8_t_s_s>
    e16c:	0f be c0             	movsbl %al,%eax
    e16f:	89 de                	mov    %ebx,%esi
    e171:	89 c7                	mov    %eax,%edi
    e173:	e8 b2 e3 ff ff       	callq  c52a <safe_rshift_func_int16_t_s_s>
    e178:	66 85 c0             	test   %ax,%ax
    e17b:	0f 84 7d 04 00 00    	je     e5fe <func_1+0xe49>
    e181:	48 8d 85 30 f8 ff ff 	lea    -0x7d0(%rbp),%rax
    e188:	48 05 80 05 00 00    	add    $0x580,%rax
    e18e:	48 89 85 e0 f3 ff ff 	mov    %rax,-0xc20(%rbp)
    e195:	48 8d 85 30 f8 ff ff 	lea    -0x7d0(%rbp),%rax
    e19c:	48 05 80 05 00 00    	add    $0x580,%rax
    e1a2:	48 89 85 e8 f3 ff ff 	mov    %rax,-0xc18(%rbp)
    e1a9:	48 8d 85 30 f8 ff ff 	lea    -0x7d0(%rbp),%rax
    e1b0:	48 05 80 05 00 00    	add    $0x580,%rax
    e1b6:	48 89 85 f0 f3 ff ff 	mov    %rax,-0xc10(%rbp)
    e1bd:	48 8d 85 30 f8 ff ff 	lea    -0x7d0(%rbp),%rax
    e1c4:	48 05 80 05 00 00    	add    $0x580,%rax
    e1ca:	48 89 85 f8 f3 ff ff 	mov    %rax,-0xc08(%rbp)
    e1d1:	48 8d 85 30 f8 ff ff 	lea    -0x7d0(%rbp),%rax
    e1d8:	48 05 80 05 00 00    	add    $0x580,%rax
    e1de:	48 89 85 00 f4 ff ff 	mov    %rax,-0xc00(%rbp)
    e1e5:	48 8d 85 30 f8 ff ff 	lea    -0x7d0(%rbp),%rax
    e1ec:	48 05 80 05 00 00    	add    $0x580,%rax
    e1f2:	48 89 85 08 f4 ff ff 	mov    %rax,-0xbf8(%rbp)
    e1f9:	48 8d 85 30 f8 ff ff 	lea    -0x7d0(%rbp),%rax
    e200:	48 05 80 05 00 00    	add    $0x580,%rax
    e206:	48 89 85 10 f4 ff ff 	mov    %rax,-0xbf0(%rbp)
    e20d:	48 c7 85 a8 f2 ff ff 	movq   $0x0,-0xd58(%rbp)
    e214:	00 00 00 00 
    e218:	48 c7 85 b0 f2 ff ff 	movq   $0x0,-0xd50(%rbp)
    e21f:	00 00 00 00 
    e223:	48 8d 85 e0 f3 ff ff 	lea    -0xc20(%rbp),%rax
    e22a:	48 83 c0 20          	add    $0x20,%rax
    e22e:	48 89 85 b8 f2 ff ff 	mov    %rax,-0xd48(%rbp)
    e235:	48 8d 05 5c 9f 01 00 	lea    0x19f5c(%rip),%rax        # 28198 <g_766+0x58>
    e23c:	48 89 85 78 f1 ff ff 	mov    %rax,-0xe88(%rbp)
    e243:	48 8d 05 8e 6f 01 00 	lea    0x16f8e(%rip),%rax        # 251d8 <g_453>
    e24a:	48 89 85 c0 f2 ff ff 	mov    %rax,-0xd40(%rbp)
    e251:	48 8d 85 fe f0 ff ff 	lea    -0xf02(%rbp),%rax
    e258:	48 89 85 c8 f2 ff ff 	mov    %rax,-0xd38(%rbp)
    e25f:	48 8d 05 8a 71 01 00 	lea    0x1718a(%rip),%rax        # 253f0 <g_1276>
    e266:	48 89 85 d0 f2 ff ff 	mov    %rax,-0xd30(%rbp)
    e26d:	48 c7 85 d8 f2 ff ff 	movq   $0x0,-0xd28(%rbp)
    e274:	00 00 00 00 
    e278:	48 8d 85 a0 f3 ff ff 	lea    -0xc60(%rbp),%rax
    e27f:	48 83 c0 30          	add    $0x30,%rax
    e283:	48 89 85 e0 f2 ff ff 	mov    %rax,-0xd20(%rbp)
    e28a:	c7 85 70 f5 ff ff fd 	movl   $0x26890fd,-0xa90(%rbp)
    e291:	90 68 02 
    e294:	c7 85 74 f5 ff ff ff 	movl   $0xffffffff,-0xa8c(%rbp)
    e29b:	ff ff ff 
    e29e:	c7 85 78 f5 ff ff d0 	movl   $0xfbf67ed0,-0xa88(%rbp)
    e2a5:	7e f6 fb 
    e2a8:	c7 85 7c f5 ff ff fd 	movl   $0x26890fd,-0xa84(%rbp)
    e2af:	90 68 02 
    e2b2:	c7 85 80 f5 ff ff f8 	movl   $0xfffffff8,-0xa80(%rbp)
    e2b9:	ff ff ff 
    e2bc:	c7 85 84 f5 ff ff f8 	movl   $0xfffffff8,-0xa7c(%rbp)
    e2c3:	ff ff ff 
    e2c6:	c7 85 88 f5 ff ff f8 	movl   $0xfffffff8,-0xa78(%rbp)
    e2cd:	ff ff ff 
    e2d0:	c7 85 8c f5 ff ff fd 	movl   $0x26890fd,-0xa74(%rbp)
    e2d7:	90 68 02 
    e2da:	c7 85 90 f5 ff ff d0 	movl   $0xfbf67ed0,-0xa70(%rbp)
    e2e1:	7e f6 fb 
    e2e4:	c7 85 94 f5 ff ff ff 	movl   $0xffffffff,-0xa6c(%rbp)
    e2eb:	ff ff ff 
    e2ee:	c7 85 98 f5 ff ff fd 	movl   $0x26890fd,-0xa68(%rbp)
    e2f5:	90 68 02 
    e2f8:	c7 85 9c f5 ff ff ff 	movl   $0xffffffff,-0xa64(%rbp)
    e2ff:	ff ff ff 
    e302:	c7 85 a0 f5 ff ff d0 	movl   $0xfbf67ed0,-0xa60(%rbp)
    e309:	7e f6 fb 
    e30c:	c7 85 a4 f5 ff ff fd 	movl   $0x26890fd,-0xa5c(%rbp)
    e313:	90 68 02 
    e316:	c7 85 a8 f5 ff ff f8 	movl   $0xfffffff8,-0xa58(%rbp)
    e31d:	ff ff ff 
    e320:	c7 85 ac f5 ff ff f8 	movl   $0xfffffff8,-0xa54(%rbp)
    e327:	ff ff ff 
    e32a:	48 8d 05 97 71 01 00 	lea    0x17197(%rip),%rax        # 254c8 <g_2617>
    e331:	48 89 85 e8 f2 ff ff 	mov    %rax,-0xd18(%rbp)
    e338:	48 8d 05 a9 b6 01 00 	lea    0x1b6a9(%rip),%rax        # 299e8 <g_1591>
    e33f:	48 89 85 f0 f2 ff ff 	mov    %rax,-0xd10(%rbp)
    e346:	48 8d 05 5b 6e 01 00 	lea    0x16e5b(%rip),%rax        # 251a8 <g_184>
    e34d:	48 89 85 f8 f2 ff ff 	mov    %rax,-0xd08(%rbp)
    e354:	c7 85 24 f1 ff ff 00 	movl   $0x0,-0xedc(%rbp)
    e35b:	00 00 00 
    e35e:	eb 1e                	jmp    e37e <func_1+0xbc9>
    e360:	8b 85 24 f1 ff ff    	mov    -0xedc(%rbp),%eax
    e366:	48 98                	cltq   
    e368:	48 8d 95 78 f1 ff ff 	lea    -0xe88(%rbp),%rdx
    e36f:	48 89 94 c5 08 f3 ff 	mov    %rdx,-0xcf8(%rbp,%rax,8)
    e376:	ff 
    e377:	83 85 24 f1 ff ff 01 	addl   $0x1,-0xedc(%rbp)
    e37e:	83 bd 24 f1 ff ff 00 	cmpl   $0x0,-0xedc(%rbp)
    e385:	7e d9                	jle    e360 <func_1+0xbab>
    e387:	8b 85 08 f1 ff ff    	mov    -0xef8(%rbp),%eax
    e38d:	48 63 d8             	movslq %eax,%rbx
    e390:	44 8b a5 70 f1 ff ff 	mov    -0xe90(%rbp),%r12d
    e397:	83 bd 5c f1 ff ff 00 	cmpl   $0x0,-0xea4(%rbp)
    e39e:	0f 84 54 01 00 00    	je     e4f8 <func_1+0xd43>
    e3a4:	0f b7 05 5d 70 01 00 	movzwl 0x1705d(%rip),%eax        # 25408 <g_1510>
    e3ab:	44 0f b7 e8          	movzwl %ax,%r13d
    e3af:	8b 05 ab 1c 01 00    	mov    0x11cab(%rip),%eax        # 20060 <g_1889>
    e3b5:	85 c0                	test   %eax,%eax
    e3b7:	0f 85 dd 00 00 00    	jne    e49a <func_1+0xce5>
    e3bd:	48 8b 85 a8 f1 ff ff 	mov    -0xe58(%rbp),%rax
    e3c4:	89 c2                	mov    %eax,%edx
    e3c6:	48 8b 85 78 f1 ff ff 	mov    -0xe88(%rbp),%rax
    e3cd:	48 89 05 ac a9 01 00 	mov    %rax,0x1a9ac(%rip)        # 28d80 <g_2607+0x20>
    e3d4:	48 8b 05 a5 a9 01 00 	mov    0x1a9a5(%rip),%rax        # 28d80 <g_2607+0x20>
    e3db:	48 39 85 88 f2 ff ff 	cmp    %rax,-0xd78(%rbp)
    e3e2:	0f 95 c0             	setne  %al
    e3e5:	0f b6 c0             	movzbl %al,%eax
    e3e8:	89 d6                	mov    %edx,%esi
    e3ea:	89 c7                	mov    %eax,%edi
    e3ec:	e8 0e e3 ff ff       	callq  c6ff <safe_div_func_int32_t_s_s>
    e3f1:	89 c2                	mov    %eax,%edx
    e3f3:	48 8b 85 c0 f2 ff ff 	mov    -0xd40(%rbp),%rax
    e3fa:	66 89 10             	mov    %dx,(%rax)
    e3fd:	48 8b 85 c0 f2 ff ff 	mov    -0xd40(%rbp),%rax
    e404:	0f b7 10             	movzwl (%rax),%edx
    e407:	48 8b 85 c8 f2 ff ff 	mov    -0xd38(%rbp),%rax
    e40e:	0f b7 00             	movzwl (%rax),%eax
    e411:	09 c2                	or     %eax,%edx
    e413:	48 8b 85 c8 f2 ff ff 	mov    -0xd38(%rbp),%rax
    e41a:	66 89 10             	mov    %dx,(%rax)
    e41d:	48 8b 85 c8 f2 ff ff 	mov    -0xd38(%rbp),%rax
    e424:	0f b7 00             	movzwl (%rax),%eax
    e427:	f7 d0                	not    %eax
    e429:	66 c1 e8 0f          	shr    $0xf,%ax
    e42d:	0f b6 d0             	movzbl %al,%edx
    e430:	0f b7 05 13 70 01 00 	movzwl 0x17013(%rip),%eax        # 2544a <g_1645+0xa>
    e437:	0f b7 c0             	movzwl %ax,%eax
    e43a:	39 c2                	cmp    %eax,%edx
    e43c:	74 07                	je     e445 <func_1+0xc90>
    e43e:	ba 49 00 00 00       	mov    $0x49,%edx
    e443:	eb 05                	jmp    e44a <func_1+0xc95>
    e445:	ba 48 00 00 00       	mov    $0x48,%edx
    e44a:	48 8b 85 d0 f2 ff ff 	mov    -0xd30(%rbp),%rax
    e451:	88 10                	mov    %dl,(%rax)
    e453:	48 8b 85 d0 f2 ff ff 	mov    -0xd30(%rbp),%rax
    e45a:	0f b6 00             	movzbl (%rax),%eax
    e45d:	0f b6 d0             	movzbl %al,%edx
    e460:	48 8b 05 a1 9c 01 00 	mov    0x19ca1(%rip),%rax        # 28108 <g_311>
    e467:	0f b6 00             	movzbl (%rax),%eax
    e46a:	0f be c0             	movsbl %al,%eax
    e46d:	39 c2                	cmp    %eax,%edx
    e46f:	74 11                	je     e482 <func_1+0xccd>
    e471:	8b 85 0c f1 ff ff    	mov    -0xef4(%rbp),%eax
    e477:	85 c0                	test   %eax,%eax
    e479:	74 07                	je     e482 <func_1+0xccd>
    e47b:	b8 01 00 00 00       	mov    $0x1,%eax
    e480:	eb 05                	jmp    e487 <func_1+0xcd2>
    e482:	b8 00 00 00 00       	mov    $0x0,%eax
    e487:	0f b6 c0             	movzbl %al,%eax
    e48a:	89 c6                	mov    %eax,%esi
    e48c:	bf b0 00 00 00       	mov    $0xb0,%edi
    e491:	e8 fd e6 ff ff       	callq  cb93 <safe_mul_func_uint8_t_u_u>
    e496:	84 c0                	test   %al,%al
    e498:	74 07                	je     e4a1 <func_1+0xcec>
    e49a:	b8 01 00 00 00       	mov    $0x1,%eax
    e49f:	eb 05                	jmp    e4a6 <func_1+0xcf1>
    e4a1:	b8 00 00 00 00       	mov    $0x0,%eax
    e4a6:	48 63 d0             	movslq %eax,%rdx
    e4a9:	48 8b 85 e0 f2 ff ff 	mov    -0xd20(%rbp),%rax
    e4b0:	48 89 10             	mov    %rdx,(%rax)
    e4b3:	48 8b 95 00 f4 ff ff 	mov    -0xc00(%rbp),%rdx
    e4ba:	48 8b 85 b8 f2 ff ff 	mov    -0xd48(%rbp),%rax
    e4c1:	48 89 10             	mov    %rdx,(%rax)
    e4c4:	48 8b 85 b8 f2 ff ff 	mov    -0xd48(%rbp),%rax
    e4cb:	48 8b 00             	mov    (%rax),%rax
    e4ce:	48 85 c0             	test   %rax,%rax
    e4d1:	0f 95 c0             	setne  %al
    e4d4:	0f b6 c0             	movzbl %al,%eax
    e4d7:	4c 89 ee             	mov    %r13,%rsi
    e4da:	48 89 c7             	mov    %rax,%rdi
    e4dd:	e8 9e eb ff ff       	callq  d080 <safe_mod_func_uint64_t_u_u>
    e4e2:	48 ba 9d 23 ca f6 84 	movabs $0x3e17ed84f6ca239d,%rdx
    e4e9:	ed 17 3e 
    e4ec:	48 39 d0             	cmp    %rdx,%rax
    e4ef:	74 07                	je     e4f8 <func_1+0xd43>
    e4f1:	b8 01 00 00 00       	mov    $0x1,%eax
    e4f6:	eb 05                	jmp    e4fd <func_1+0xd48>
    e4f8:	b8 00 00 00 00       	mov    $0x0,%eax
    e4fd:	48 63 d0             	movslq %eax,%rdx
    e500:	48 8b 05 f9 9b 01 00 	mov    0x19bf9(%rip),%rax        # 28100 <g_124>
    e507:	48 8b 00             	mov    (%rax),%rax
    e50a:	48 31 d0             	xor    %rdx,%rax
    e50d:	8b 95 04 f3 ff ff    	mov    -0xcfc(%rbp),%edx
    e513:	89 d2                	mov    %edx,%edx
    e515:	48 39 d0             	cmp    %rdx,%rax
    e518:	0f 95 c0             	setne  %al
    e51b:	0f b6 c0             	movzbl %al,%eax
    e51e:	48 39 85 a0 f1 ff ff 	cmp    %rax,-0xe60(%rbp)
    e525:	0f 92 c0             	setb   %al
    e528:	0f b6 d0             	movzbl %al,%edx
    e52b:	0f be 85 fd f0 ff ff 	movsbl -0xf03(%rbp),%eax
    e532:	39 c2                	cmp    %eax,%edx
    e534:	0f 95 c0             	setne  %al
    e537:	89 c2                	mov    %eax,%edx
    e539:	0f b6 85 fc f0 ff ff 	movzbl -0xf04(%rbp),%eax
    e540:	21 d0                	and    %edx,%eax
    e542:	0f be d0             	movsbl %al,%edx
    e545:	48 8b 05 bc 9b 01 00 	mov    0x19bbc(%rip),%rax        # 28108 <g_311>
    e54c:	0f b6 00             	movzbl (%rax),%eax
    e54f:	0f be c0             	movsbl %al,%eax
    e552:	89 d6                	mov    %edx,%esi
    e554:	89 c7                	mov    %eax,%edi
    e556:	e8 b7 dc ff ff       	callq  c212 <safe_mul_func_int8_t_s_s>
    e55b:	8b 85 74 f5 ff ff    	mov    -0xa8c(%rbp),%eax
    e561:	83 f8 04             	cmp    $0x4,%eax
    e564:	0f 95 c0             	setne  %al
    e567:	0f b6 c0             	movzbl %al,%eax
    e56a:	8b 95 5c f1 ff ff    	mov    -0xea4(%rbp),%edx
    e570:	89 d6                	mov    %edx,%esi
    e572:	89 c7                	mov    %eax,%edi
    e574:	e8 3d e0 ff ff       	callq  c5b6 <safe_add_func_int32_t_s_s>
    e579:	89 c2                	mov    %eax,%edx
    e57b:	48 8b 85 e8 f2 ff ff 	mov    -0xd18(%rbp),%rax
    e582:	66 89 10             	mov    %dx,(%rax)
    e585:	8b 05 d5 1a 01 00    	mov    0x11ad5(%rip),%eax        # 20060 <g_1889>
    e58b:	89 85 ac f5 ff ff    	mov    %eax,-0xa54(%rbp)
    e591:	8b 85 ac f5 ff ff    	mov    -0xa54(%rbp),%eax
    e597:	85 c0                	test   %eax,%eax
    e599:	74 13                	je     e5ae <func_1+0xdf9>
    e59b:	0f b7 85 fe f0 ff ff 	movzwl -0xf02(%rbp),%eax
    e5a2:	66 85 c0             	test   %ax,%ax
    e5a5:	74 07                	je     e5ae <func_1+0xdf9>
    e5a7:	b9 01 00 00 00       	mov    $0x1,%ecx
    e5ac:	eb 05                	jmp    e5b3 <func_1+0xdfe>
    e5ae:	b9 00 00 00 00       	mov    $0x0,%ecx
    e5b3:	48 8b 85 f8 f2 ff ff 	mov    -0xd08(%rbp),%rax
    e5ba:	48 8b 10             	mov    (%rax),%rdx
    e5bd:	48 63 c1             	movslq %ecx,%rax
    e5c0:	48 31 c2             	xor    %rax,%rdx
    e5c3:	48 8b 85 f8 f2 ff ff 	mov    -0xd08(%rbp),%rax
    e5ca:	48 89 10             	mov    %rdx,(%rax)
    e5cd:	0f b6 85 fc f0 ff ff 	movzbl -0xf04(%rbp),%eax
    e5d4:	44 89 e6             	mov    %r12d,%esi
    e5d7:	89 c7                	mov    %eax,%edi
    e5d9:	e8 21 e1 ff ff       	callq  c6ff <safe_div_func_int32_t_s_s>
    e5de:	48 98                	cltq   
    e5e0:	48 89 de             	mov    %rbx,%rsi
    e5e3:	48 89 c7             	mov    %rax,%rdi
    e5e6:	e8 56 e2 ff ff       	callq  c841 <safe_add_func_int64_t_s_s>
    e5eb:	8b 95 74 f3 ff ff    	mov    -0xc8c(%rbp),%edx
    e5f1:	09 d0                	or     %edx,%eax
    e5f3:	89 85 74 f3 ff ff    	mov    %eax,-0xc8c(%rbp)
    e5f9:	e9 02 02 00 00       	jmpq   e800 <func_1+0x104b>
    e5fe:	48 8d 05 af 6a 01 00 	lea    0x16aaf(%rip),%rax        # 250b4 <g_3+0x74>
    e605:	48 89 85 70 f5 ff ff 	mov    %rax,-0xa90(%rbp)
    e60c:	48 8d 85 70 f1 ff ff 	lea    -0xe90(%rbp),%rax
    e613:	48 89 85 78 f5 ff ff 	mov    %rax,-0xa88(%rbp)
    e61a:	48 8d 85 0c f1 ff ff 	lea    -0xef4(%rbp),%rax
    e621:	48 89 85 80 f5 ff ff 	mov    %rax,-0xa80(%rbp)
    e628:	48 8d 85 70 f1 ff ff 	lea    -0xe90(%rbp),%rax
    e62f:	48 89 85 88 f5 ff ff 	mov    %rax,-0xa78(%rbp)
    e636:	48 8d 05 7b 6a 01 00 	lea    0x16a7b(%rip),%rax        # 250b8 <g_3+0x78>
    e63d:	48 89 85 90 f5 ff ff 	mov    %rax,-0xa70(%rbp)
    e644:	48 8d 05 6d 6a 01 00 	lea    0x16a6d(%rip),%rax        # 250b8 <g_3+0x78>
    e64b:	48 89 85 98 f5 ff ff 	mov    %rax,-0xa68(%rbp)
    e652:	48 8d 85 70 f1 ff ff 	lea    -0xe90(%rbp),%rax
    e659:	48 89 85 a0 f5 ff ff 	mov    %rax,-0xa60(%rbp)
    e660:	48 8d 05 4d 6a 01 00 	lea    0x16a4d(%rip),%rax        # 250b4 <g_3+0x74>
    e667:	48 89 85 a8 f5 ff ff 	mov    %rax,-0xa58(%rbp)
    e66e:	48 8d 85 0c f1 ff ff 	lea    -0xef4(%rbp),%rax
    e675:	48 89 85 b0 f5 ff ff 	mov    %rax,-0xa50(%rbp)
    e67c:	48 8d 05 31 6a 01 00 	lea    0x16a31(%rip),%rax        # 250b4 <g_3+0x74>
    e683:	48 89 85 b8 f5 ff ff 	mov    %rax,-0xa48(%rbp)
    e68a:	48 8d 05 23 6a 01 00 	lea    0x16a23(%rip),%rax        # 250b4 <g_3+0x74>
    e691:	48 89 85 c0 f5 ff ff 	mov    %rax,-0xa40(%rbp)
    e698:	48 8d 85 70 f1 ff ff 	lea    -0xe90(%rbp),%rax
    e69f:	48 89 85 c8 f5 ff ff 	mov    %rax,-0xa38(%rbp)
    e6a6:	48 8d 05 07 6a 01 00 	lea    0x16a07(%rip),%rax        # 250b4 <g_3+0x74>
    e6ad:	48 89 85 d0 f5 ff ff 	mov    %rax,-0xa30(%rbp)
    e6b4:	48 8d 85 0c f1 ff ff 	lea    -0xef4(%rbp),%rax
    e6bb:	48 89 85 d8 f5 ff ff 	mov    %rax,-0xa28(%rbp)
    e6c2:	48 8d 85 0c f1 ff ff 	lea    -0xef4(%rbp),%rax
    e6c9:	48 89 85 e0 f5 ff ff 	mov    %rax,-0xa20(%rbp)
    e6d0:	48 8d 85 70 f1 ff ff 	lea    -0xe90(%rbp),%rax
    e6d7:	48 89 85 e8 f5 ff ff 	mov    %rax,-0xa18(%rbp)
    e6de:	48 8d 05 cf 69 01 00 	lea    0x169cf(%rip),%rax        # 250b4 <g_3+0x74>
    e6e5:	48 89 85 f0 f5 ff ff 	mov    %rax,-0xa10(%rbp)
    e6ec:	48 8d 05 c1 69 01 00 	lea    0x169c1(%rip),%rax        # 250b4 <g_3+0x74>
    e6f3:	48 89 85 f8 f5 ff ff 	mov    %rax,-0xa08(%rbp)
    e6fa:	48 8d 05 b3 69 01 00 	lea    0x169b3(%rip),%rax        # 250b4 <g_3+0x74>
    e701:	48 89 85 00 f6 ff ff 	mov    %rax,-0xa00(%rbp)
    e708:	48 8d 85 70 f1 ff ff 	lea    -0xe90(%rbp),%rax
    e70f:	48 89 85 08 f6 ff ff 	mov    %rax,-0x9f8(%rbp)
    e716:	48 8d 85 0c f1 ff ff 	lea    -0xef4(%rbp),%rax
    e71d:	48 89 85 10 f6 ff ff 	mov    %rax,-0x9f0(%rbp)
    e724:	48 8d 85 70 f1 ff ff 	lea    -0xe90(%rbp),%rax
    e72b:	48 89 85 18 f6 ff ff 	mov    %rax,-0x9e8(%rbp)
    e732:	48 c7 85 20 f6 ff ff 	movq   $0x0,-0x9e0(%rbp)
    e739:	00 00 00 00 
    e73d:	48 8d 85 0c f1 ff ff 	lea    -0xef4(%rbp),%rax
    e744:	48 89 85 28 f6 ff ff 	mov    %rax,-0x9d8(%rbp)
    e74b:	48 8d 85 70 f1 ff ff 	lea    -0xe90(%rbp),%rax
    e752:	48 89 85 30 f6 ff ff 	mov    %rax,-0x9d0(%rbp)
    e759:	48 8d 05 04 6a 01 00 	lea    0x16a04(%rip),%rax        # 25164 <g_9>
    e760:	48 89 85 38 f6 ff ff 	mov    %rax,-0x9c8(%rbp)
    e767:	48 8d 05 46 69 01 00 	lea    0x16946(%rip),%rax        # 250b4 <g_3+0x74>
    e76e:	48 89 85 40 f6 ff ff 	mov    %rax,-0x9c0(%rbp)
    e775:	48 8d 05 e8 69 01 00 	lea    0x169e8(%rip),%rax        # 25164 <g_9>
    e77c:	48 89 85 48 f6 ff ff 	mov    %rax,-0x9b8(%rbp)
    e783:	48 c7 85 98 f2 ff ff 	movq   $0x1,-0xd68(%rbp)
    e78a:	01 00 00 00 
    e78e:	48 c7 85 a0 f2 ff ff 	movq   $0x0,-0xd60(%rbp)
    e795:	00 00 00 00 
    e799:	8b 95 04 f3 ff ff    	mov    -0xcfc(%rbp),%edx
    e79f:	8b 05 c3 69 01 00    	mov    0x169c3(%rip),%eax        # 25168 <g_12>
    e7a5:	89 d1                	mov    %edx,%ecx
    e7a7:	48 98                	cltq   
    e7a9:	48 8d 14 85 00 00 00 	lea    0x0(,%rax,4),%rdx
    e7b0:	00 
    e7b1:	48 8d 05 70 68 01 00 	lea    0x16870(%rip),%rax        # 25028 <g_2>
    e7b8:	89 0c 02             	mov    %ecx,(%rdx,%rax,1)
    e7bb:	8b 85 18 f3 ff ff    	mov    -0xce8(%rbp),%eax
    e7c1:	89 c2                	mov    %eax,%edx
    e7c3:	48 8b 85 98 f2 ff ff 	mov    -0xd68(%rbp),%rax
    e7ca:	21 d0                	and    %edx,%eax
    e7cc:	89 85 18 f3 ff ff    	mov    %eax,-0xce8(%rbp)
    e7d2:	8b 85 18 f3 ff ff    	mov    -0xce8(%rbp),%eax
    e7d8:	48 98                	cltq   
    e7da:	48 89 85 40 f3 ff ff 	mov    %rax,-0xcc0(%rbp)
    e7e1:	48 8b 05 a8 a5 01 00 	mov    0x1a5a8(%rip),%rax        # 28d90 <g_2628>
    e7e8:	48 8b 95 88 f1 ff ff 	mov    -0xe78(%rbp),%rdx
    e7ef:	48 89 10             	mov    %rdx,(%rax)
    e7f2:	48 8d 85 70 f1 ff ff 	lea    -0xe90(%rbp),%rax
    e7f9:	48 89 85 90 f1 ff ff 	mov    %rax,-0xe70(%rbp)
    e800:	48 8b 05 c9 9b 01 00 	mov    0x19bc9(%rip),%rax        # 283d0 <g_1164>
    e807:	48 c7 00 00 00 00 00 	movq   $0x0,(%rax)
    e80e:	8b 05 54 69 01 00    	mov    0x16954(%rip),%eax        # 25168 <g_12>
    e814:	83 c0 01             	add    $0x1,%eax
    e817:	89 05 4b 69 01 00    	mov    %eax,0x1694b(%rip)        # 25168 <g_12>
    e81d:	8b 05 45 69 01 00    	mov    0x16945(%rip),%eax        # 25168 <g_12>
    e823:	83 f8 01             	cmp    $0x1,%eax
    e826:	0f 8e 1a f5 ff ff    	jle    dd46 <func_1+0x591>
    e82c:	8b 05 32 69 01 00    	mov    0x16932(%rip),%eax        # 25164 <g_9>
    e832:	48 98                	cltq   
    e834:	be 02 00 00 00       	mov    $0x2,%esi
    e839:	48 89 c7             	mov    %rax,%rdi
    e83c:	e8 0a e8 ff ff       	callq  d04b <safe_sub_func_uint64_t_u_u>
    e841:	89 05 1d 69 01 00    	mov    %eax,0x1691d(%rip)        # 25164 <g_9>
    e847:	8b 05 17 69 01 00    	mov    0x16917(%rip),%eax        # 25164 <g_9>
    e84d:	83 f8 f1             	cmp    $0xfffffff1,%eax
    e850:	0f 8c 75 f4 ff ff    	jl     dccb <func_1+0x516>
    e856:	c6 05 92 6b 01 00 08 	movb   $0x8,0x16b92(%rip)        # 253ef <g_1242>
    e85d:	eb 76                	jmp    e8d5 <func_1+0x1120>
    e85f:	48 c7 85 60 f2 ff ff 	movq   $0x0,-0xda0(%rbp)
    e866:	00 00 00 00 
    e86a:	c7 85 28 f1 ff ff 00 	movl   $0x0,-0xed8(%rbp)
    e871:	00 00 00 
    e874:	eb 1e                	jmp    e894 <func_1+0x10df>
    e876:	8b 85 28 f1 ff ff    	mov    -0xed8(%rbp),%eax
    e87c:	48 98                	cltq   
    e87e:	48 8d 15 e3 68 01 00 	lea    0x168e3(%rip),%rdx        # 25168 <g_12>
    e885:	48 89 94 c5 30 f8 ff 	mov    %rdx,-0x7d0(%rbp,%rax,8)
    e88c:	ff 
    e88d:	83 85 28 f1 ff ff 01 	addl   $0x1,-0xed8(%rbp)
    e894:	83 bd 28 f1 ff ff 02 	cmpl   $0x2,-0xed8(%rbp)
    e89b:	7e d9                	jle    e876 <func_1+0x10c1>
    e89d:	48 8b 05 fc a4 01 00 	mov    0x1a4fc(%rip),%rax        # 28da0 <g_2636>
    e8a4:	48 8b 95 98 f1 ff ff 	mov    -0xe68(%rbp),%rdx
    e8ab:	48 89 10             	mov    %rdx,(%rax)
    e8ae:	8b 85 18 f3 ff ff    	mov    -0xce8(%rbp),%eax
    e8b4:	89 c2                	mov    %eax,%edx
    e8b6:	48 8b 85 a0 f1 ff ff 	mov    -0xe60(%rbp),%rax
    e8bd:	31 d0                	xor    %edx,%eax
    e8bf:	89 85 18 f3 ff ff    	mov    %eax,-0xce8(%rbp)
    e8c5:	0f b6 05 23 6b 01 00 	movzbl 0x16b23(%rip),%eax        # 253ef <g_1242>
    e8cc:	83 e8 01             	sub    $0x1,%eax
    e8cf:	88 05 1a 6b 01 00    	mov    %al,0x16b1a(%rip)        # 253ef <g_1242>
    e8d5:	0f b6 05 13 6b 01 00 	movzbl 0x16b13(%rip),%eax        # 253ef <g_1242>
    e8dc:	3c f7                	cmp    $0xf7,%al
    e8de:	0f 8c 7b ff ff ff    	jl     e85f <func_1+0x10aa>
    e8e4:	48 8b 85 b0 f1 ff ff 	mov    -0xe50(%rbp),%rax
    e8eb:	8b 10                	mov    (%rax),%edx
    e8ed:	0f b6 45 c0          	movzbl -0x40(%rbp),%eax
    e8f1:	0f be c0             	movsbl %al,%eax
    e8f4:	09 c2                	or     %eax,%edx
    e8f6:	48 8b 85 b0 f1 ff ff 	mov    -0xe50(%rbp),%rax
    e8fd:	89 10                	mov    %edx,(%rax)
    e8ff:	48 8b 85 b0 f1 ff ff 	mov    -0xe50(%rbp),%rax
    e906:	8b 00                	mov    (%rax),%eax
    e908:	85 c0                	test   %eax,%eax
    e90a:	0f 84 b8 01 00 00    	je     eac8 <func_1+0x1313>
    e910:	48 c7 85 48 f2 ff ff 	movq   $0xfffffffffffffff9,-0xdb8(%rbp)
    e917:	f9 ff ff ff 
    e91b:	48 8d 05 a1 68 01 00 	lea    0x168a1(%rip),%rax        # 251c3 <g_323>
    e922:	48 89 85 50 f2 ff ff 	mov    %rax,-0xdb0(%rbp)
    e929:	48 8d 05 c0 b0 01 00 	lea    0x1b0c0(%rip),%rax        # 299f0 <g_1814>
    e930:	48 89 85 70 f1 ff ff 	mov    %rax,-0xe90(%rbp)
    e937:	48 8d 85 70 f1 ff ff 	lea    -0xe90(%rbp),%rax
    e93e:	48 89 85 78 f1 ff ff 	mov    %rax,-0xe88(%rbp)
    e945:	48 8d 85 78 f1 ff ff 	lea    -0xe88(%rbp),%rax
    e94c:	48 89 85 58 f2 ff ff 	mov    %rax,-0xda8(%rbp)
    e953:	c7 85 2c f1 ff ff 00 	movl   $0x0,-0xed4(%rbp)
    e95a:	00 00 00 
    e95d:	eb 1e                	jmp    e97d <func_1+0x11c8>
    e95f:	8b 85 2c f1 ff ff    	mov    -0xed4(%rbp),%eax
    e965:	48 98                	cltq   
    e967:	48 8d 15 88 68 01 00 	lea    0x16888(%rip),%rdx        # 251f6 <g_640+0x16>
    e96e:	48 89 94 c5 30 f8 ff 	mov    %rdx,-0x7d0(%rbp,%rax,8)
    e975:	ff 
    e976:	83 85 2c f1 ff ff 01 	addl   $0x1,-0xed4(%rbp)
    e97d:	83 bd 2c f1 ff ff 01 	cmpl   $0x1,-0xed4(%rbp)
    e984:	7e d9                	jle    e95f <func_1+0x11aa>
    e986:	0f b6 05 93 69 01 00 	movzbl 0x16993(%rip),%eax        # 25320 <g_950>
    e98d:	0f be d8             	movsbl %al,%ebx
    e990:	b8 df 42 00 00       	mov    $0x42df,%eax
    e995:	98                   	cwtl   
    e996:	be 04 00 00 00       	mov    $0x4,%esi
    e99b:	89 c7                	mov    %eax,%edi
    e99d:	e8 3f db ff ff       	callq  c4e1 <safe_lshift_func_int16_t_s_u>
    e9a2:	48 0f bf c0          	movswq %ax,%rax
    e9a6:	48 89 c6             	mov    %rax,%rsi
    e9a9:	bf 04 00 00 00       	mov    $0x4,%edi
    e9ae:	e8 01 e0 ff ff       	callq  c9b4 <safe_mod_func_int64_t_s_s>
    e9b3:	48 89 c2             	mov    %rax,%rdx
    e9b6:	48 8b 05 83 a3 01 00 	mov    0x1a383(%rip),%rax        # 28d40 <g_2351>
    e9bd:	48 8b 00             	mov    (%rax),%rax
    e9c0:	48 8b 00             	mov    (%rax),%rax
    e9c3:	48 8b 00             	mov    (%rax),%rax
    e9c6:	48 39 c2             	cmp    %rax,%rdx
    e9c9:	0f 95 c0             	setne  %al
    e9cc:	0f b6 d0             	movzbl %al,%edx
    e9cf:	0f b6 05 20 68 01 00 	movzbl 0x16820(%rip),%eax        # 251f6 <g_640+0x16>
    e9d6:	09 d0                	or     %edx,%eax
    e9d8:	88 05 18 68 01 00    	mov    %al,0x16818(%rip)        # 251f6 <g_640+0x16>
    e9de:	0f b6 05 11 68 01 00 	movzbl 0x16811(%rip),%eax        # 251f6 <g_640+0x16>
    e9e5:	84 c0                	test   %al,%al
    e9e7:	0f 94 c0             	sete   %al
    e9ea:	44 0f b6 e0          	movzbl %al,%r12d
    e9ee:	48 8b 05 13 97 01 00 	mov    0x19713(%rip),%rax        # 28108 <g_311>
    e9f5:	0f b6 00             	movzbl (%rax),%eax
    e9f8:	0f be c8             	movsbl %al,%ecx
    e9fb:	48 8b 95 78 f1 ff ff 	mov    -0xe88(%rbp),%rdx
    ea02:	48 8b 85 58 f2 ff ff 	mov    -0xda8(%rbp),%rax
    ea09:	48 89 10             	mov    %rdx,(%rax)
    ea0c:	48 8b 85 58 f2 ff ff 	mov    -0xda8(%rbp),%rax
    ea13:	48 8b 00             	mov    (%rax),%rax
    ea16:	48 8d 15 9b 5f 01 00 	lea    0x15f9b(%rip),%rdx        # 249b8 <g_1813>
    ea1d:	48 39 d0             	cmp    %rdx,%rax
    ea20:	74 14                	je     ea36 <func_1+0x1281>
    ea22:	48 8b 85 b0 f1 ff ff 	mov    -0xe50(%rbp),%rax
    ea29:	8b 00                	mov    (%rax),%eax
    ea2b:	85 c0                	test   %eax,%eax
    ea2d:	74 07                	je     ea36 <func_1+0x1281>
    ea2f:	b8 01 00 00 00       	mov    $0x1,%eax
    ea34:	eb 05                	jmp    ea3b <func_1+0x1286>
    ea36:	b8 00 00 00 00       	mov    $0x0,%eax
    ea3b:	31 c8                	xor    %ecx,%eax
    ea3d:	89 c1                	mov    %eax,%ecx
    ea3f:	48 8b 85 50 f2 ff ff 	mov    -0xdb0(%rbp),%rax
    ea46:	0f b6 00             	movzbl (%rax),%eax
    ea49:	48 8b 95 48 f2 ff ff 	mov    -0xdb8(%rbp),%rdx
    ea50:	31 c2                	xor    %eax,%edx
    ea52:	48 8b 85 50 f2 ff ff 	mov    -0xdb0(%rbp),%rax
    ea59:	88 10                	mov    %dl,(%rax)
    ea5b:	48 8b 85 50 f2 ff ff 	mov    -0xdb0(%rbp),%rax
    ea62:	0f b6 00             	movzbl (%rax),%eax
    ea65:	0f b6 d0             	movzbl %al,%edx
    ea68:	8b 85 04 f1 ff ff    	mov    -0xefc(%rbp),%eax
    ea6e:	09 d0                	or     %edx,%eax
    ea70:	89 85 04 f1 ff ff    	mov    %eax,-0xefc(%rbp)
    ea76:	8b 85 04 f1 ff ff    	mov    -0xefc(%rbp),%eax
    ea7c:	0f b6 c0             	movzbl %al,%eax
    ea7f:	89 ce                	mov    %ecx,%esi
    ea81:	89 c7                	mov    %eax,%edi
    ea83:	e8 c4 e1 ff ff       	callq  cc4c <safe_lshift_func_uint8_t_u_u>
    ea88:	0f be c0             	movsbl %al,%eax
    ea8b:	44 89 e6             	mov    %r12d,%esi
    ea8e:	89 c7                	mov    %eax,%edi
    ea90:	e8 0c d8 ff ff       	callq  c2a1 <safe_lshift_func_int8_t_s_s>
    ea95:	0f be c0             	movsbl %al,%eax
    ea98:	89 de                	mov    %ebx,%esi
    ea9a:	89 c7                	mov    %eax,%edi
    ea9c:	e8 54 d9 ff ff       	callq  c3f5 <safe_mul_func_int16_t_s_s>
    eaa1:	0f bf d0             	movswl %ax,%edx
    eaa4:	8b 05 12 6a 01 00    	mov    0x16a12(%rip),%eax        # 254bc <g_2024>
    eaaa:	09 d0                	or     %edx,%eax
    eaac:	83 f8 08             	cmp    $0x8,%eax
    eaaf:	0f 96 c0             	setbe  %al
    eab2:	0f b6 d0             	movzbl %al,%edx
    eab5:	8b 85 18 f3 ff ff    	mov    -0xce8(%rbp),%eax
    eabb:	09 d0                	or     %edx,%eax
    eabd:	89 85 18 f3 ff ff    	mov    %eax,-0xce8(%rbp)
    eac3:	e9 72 0c 00 00       	jmpq   f73a <func_1+0x1f85>
    eac8:	48 c7 85 c8 f1 ff ff 	movq   $0x0,-0xe38(%rbp)
    eacf:	00 00 00 00 
    ead3:	48 8d 05 f6 97 01 00 	lea    0x197f6(%rip),%rax        # 282d0 <g_799>
    eada:	48 89 85 d0 f1 ff ff 	mov    %rax,-0xe30(%rbp)
    eae1:	c7 85 70 f1 ff ff ee 	movl   $0xa77316ee,-0xe90(%rbp)
    eae8:	16 73 a7 
    eaeb:	c7 85 70 f5 ff ff 78 	movl   $0x208f2278,-0xa90(%rbp)
    eaf2:	22 8f 20 
    eaf5:	c7 85 74 f5 ff ff 78 	movl   $0x208f2278,-0xa8c(%rbp)
    eafc:	22 8f 20 
    eaff:	c7 85 78 f5 ff ff 2c 	movl   $0xf02bb12c,-0xa88(%rbp)
    eb06:	b1 2b f0 
    eb09:	c7 85 7c f5 ff ff c9 	movl   $0x48f7efc9,-0xa84(%rbp)
    eb10:	ef f7 48 
    eb13:	c7 85 80 f5 ff ff 83 	movl   $0x3bfe4083,-0xa80(%rbp)
    eb1a:	40 fe 3b 
    eb1d:	c7 85 84 f5 ff ff c9 	movl   $0x48f7efc9,-0xa7c(%rbp)
    eb24:	ef f7 48 
    eb27:	c7 85 88 f5 ff ff a1 	movl   $0x1c417ba1,-0xa78(%rbp)
    eb2e:	7b 41 1c 
    eb31:	c7 85 8c f5 ff ff 78 	movl   $0x208f2278,-0xa74(%rbp)
    eb38:	22 8f 20 
    eb3b:	c7 85 90 f5 ff ff a1 	movl   $0x1c417ba1,-0xa70(%rbp)
    eb42:	7b 41 1c 
    eb45:	c7 85 94 f5 ff ff eb 	movl   $0x27d6afeb,-0xa6c(%rbp)
    eb4c:	af d6 27 
    eb4f:	c7 85 98 f5 ff ff 2c 	movl   $0xf02bb12c,-0xa68(%rbp)
    eb56:	b1 2b f0 
    eb59:	c7 85 9c f5 ff ff 2c 	movl   $0xf02bb12c,-0xa64(%rbp)
    eb60:	b1 2b f0 
    eb63:	c7 85 a0 f5 ff ff ff 	movl   $0xffffffff,-0xa60(%rbp)
    eb6a:	ff ff ff 
    eb6d:	c7 85 a4 f5 ff ff a1 	movl   $0x1c417ba1,-0xa5c(%rbp)
    eb74:	7b 41 1c 
    eb77:	c7 85 a8 f5 ff ff a1 	movl   $0x1c417ba1,-0xa58(%rbp)
    eb7e:	7b 41 1c 
    eb81:	c7 85 ac f5 ff ff ff 	movl   $0xffffffff,-0xa54(%rbp)
    eb88:	ff ff ff 
    eb8b:	c7 85 b0 f5 ff ff 78 	movl   $0x208f2278,-0xa50(%rbp)
    eb92:	22 8f 20 
    eb95:	c7 85 b4 f5 ff ff c9 	movl   $0x48f7efc9,-0xa4c(%rbp)
    eb9c:	ef f7 48 
    eb9f:	c7 85 b8 f5 ff ff c9 	movl   $0x48f7efc9,-0xa48(%rbp)
    eba6:	ef f7 48 
    eba9:	c7 85 bc f5 ff ff ff 	movl   $0xffffffff,-0xa44(%rbp)
    ebb0:	ff ff ff 
    ebb3:	c7 85 c0 f5 ff ff 2c 	movl   $0xf02bb12c,-0xa40(%rbp)
    ebba:	b1 2b f0 
    ebbd:	c7 85 c4 f5 ff ff ff 	movl   $0xffffffff,-0xa3c(%rbp)
    ebc4:	ff ff ff 
    ebc7:	c7 85 c8 f5 ff ff c9 	movl   $0x48f7efc9,-0xa38(%rbp)
    ebce:	ef f7 48 
    ebd1:	c7 85 cc f5 ff ff eb 	movl   $0x27d6afeb,-0xa34(%rbp)
    ebd8:	af d6 27 
    ebdb:	c7 85 4c f1 ff ff d6 	movl   $0xce0808d6,-0xeb4(%rbp)
    ebe2:	08 08 ce 
    ebe5:	c6 05 94 65 01 00 00 	movb   $0x0,0x16594(%rip)        # 25180 <g_80>
    ebec:	e9 3a 0b 00 00       	jmpq   f72b <func_1+0x1f76>
    ebf1:	c7 85 30 f8 ff ff 05 	movl   $0x5,-0x7d0(%rbp)
    ebf8:	00 00 00 
    ebfb:	c7 85 34 f8 ff ff 4f 	movl   $0xf82f534f,-0x7cc(%rbp)
    ec02:	53 2f f8 
    ec05:	c7 85 38 f8 ff ff 05 	movl   $0x5,-0x7c8(%rbp)
    ec0c:	00 00 00 
    ec0f:	c7 85 3c f8 ff ff 01 	movl   $0x1,-0x7c4(%rbp)
    ec16:	00 00 00 
    ec19:	c7 85 40 f8 ff ff 00 	movl   $0x0,-0x7c0(%rbp)
    ec20:	00 00 00 
    ec23:	c7 85 44 f8 ff ff d5 	movl   $0x4b8d9fd5,-0x7bc(%rbp)
    ec2a:	9f 8d 4b 
    ec2d:	c7 85 48 f8 ff ff f9 	movl   $0xfffffff9,-0x7b8(%rbp)
    ec34:	ff ff ff 
    ec37:	c7 85 4c f8 ff ff d5 	movl   $0x4b8d9fd5,-0x7b4(%rbp)
    ec3e:	9f 8d 4b 
    ec41:	c7 85 50 f8 ff ff 00 	movl   $0x0,-0x7b0(%rbp)
    ec48:	00 00 00 
    ec4b:	c7 85 54 f8 ff ff 01 	movl   $0x1,-0x7ac(%rbp)
    ec52:	00 00 00 
    ec55:	c7 85 58 f8 ff ff 05 	movl   $0x5,-0x7a8(%rbp)
    ec5c:	00 00 00 
    ec5f:	c7 85 5c f8 ff ff 4f 	movl   $0xf82f534f,-0x7a4(%rbp)
    ec66:	53 2f f8 
    ec69:	c7 85 60 f8 ff ff 05 	movl   $0x5,-0x7a0(%rbp)
    ec70:	00 00 00 
    ec73:	c7 85 64 f8 ff ff 01 	movl   $0x1,-0x79c(%rbp)
    ec7a:	00 00 00 
    ec7d:	c7 85 68 f8 ff ff 00 	movl   $0x0,-0x798(%rbp)
    ec84:	00 00 00 
    ec87:	c7 85 6c f8 ff ff d5 	movl   $0x4b8d9fd5,-0x794(%rbp)
    ec8e:	9f 8d 4b 
    ec91:	c7 85 70 f8 ff ff f9 	movl   $0xfffffff9,-0x790(%rbp)
    ec98:	ff ff ff 
    ec9b:	c7 85 74 f8 ff ff d5 	movl   $0x4b8d9fd5,-0x78c(%rbp)
    eca2:	9f 8d 4b 
    eca5:	c7 85 78 f8 ff ff 00 	movl   $0x0,-0x788(%rbp)
    ecac:	00 00 00 
    ecaf:	c7 85 7c f8 ff ff 01 	movl   $0x1,-0x784(%rbp)
    ecb6:	00 00 00 
    ecb9:	c7 85 80 f8 ff ff 05 	movl   $0x5,-0x780(%rbp)
    ecc0:	00 00 00 
    ecc3:	c7 85 84 f8 ff ff 4f 	movl   $0xf82f534f,-0x77c(%rbp)
    ecca:	53 2f f8 
    eccd:	c7 85 88 f8 ff ff 05 	movl   $0x5,-0x778(%rbp)
    ecd4:	00 00 00 
    ecd7:	c7 85 8c f8 ff ff 01 	movl   $0x1,-0x774(%rbp)
    ecde:	00 00 00 
    ece1:	c7 85 90 f8 ff ff 00 	movl   $0x0,-0x770(%rbp)
    ece8:	00 00 00 
    eceb:	c7 85 94 f8 ff ff d5 	movl   $0x4b8d9fd5,-0x76c(%rbp)
    ecf2:	9f 8d 4b 
    ecf5:	c7 85 98 f8 ff ff f9 	movl   $0xfffffff9,-0x768(%rbp)
    ecfc:	ff ff ff 
    ecff:	c7 85 9c f8 ff ff d5 	movl   $0x4b8d9fd5,-0x764(%rbp)
    ed06:	9f 8d 4b 
    ed09:	c7 85 a0 f8 ff ff 00 	movl   $0x0,-0x760(%rbp)
    ed10:	00 00 00 
    ed13:	c7 85 a4 f8 ff ff 01 	movl   $0x1,-0x75c(%rbp)
    ed1a:	00 00 00 
    ed1d:	c7 85 a8 f8 ff ff 05 	movl   $0x5,-0x758(%rbp)
    ed24:	00 00 00 
    ed27:	c7 85 ac f8 ff ff 4f 	movl   $0xf82f534f,-0x754(%rbp)
    ed2e:	53 2f f8 
    ed31:	c7 85 b0 f8 ff ff 05 	movl   $0x5,-0x750(%rbp)
    ed38:	00 00 00 
    ed3b:	c7 85 b4 f8 ff ff 01 	movl   $0x1,-0x74c(%rbp)
    ed42:	00 00 00 
    ed45:	c7 85 b8 f8 ff ff 00 	movl   $0x0,-0x748(%rbp)
    ed4c:	00 00 00 
    ed4f:	c7 85 bc f8 ff ff d5 	movl   $0x4b8d9fd5,-0x744(%rbp)
    ed56:	9f 8d 4b 
    ed59:	c7 85 c0 f8 ff ff f9 	movl   $0xfffffff9,-0x740(%rbp)
    ed60:	ff ff ff 
    ed63:	c7 85 c4 f8 ff ff d5 	movl   $0x4b8d9fd5,-0x73c(%rbp)
    ed6a:	9f 8d 4b 
    ed6d:	c7 85 c8 f8 ff ff 00 	movl   $0x0,-0x738(%rbp)
    ed74:	00 00 00 
    ed77:	c7 85 cc f8 ff ff 01 	movl   $0x1,-0x734(%rbp)
    ed7e:	00 00 00 
    ed81:	c7 85 d0 f8 ff ff 05 	movl   $0x5,-0x730(%rbp)
    ed88:	00 00 00 
    ed8b:	c7 85 d4 f8 ff ff 4f 	movl   $0xf82f534f,-0x72c(%rbp)
    ed92:	53 2f f8 
    ed95:	c7 85 d8 f8 ff ff 05 	movl   $0x5,-0x728(%rbp)
    ed9c:	00 00 00 
    ed9f:	c7 85 dc f8 ff ff 01 	movl   $0x1,-0x724(%rbp)
    eda6:	00 00 00 
    eda9:	c7 85 e0 f8 ff ff 00 	movl   $0x0,-0x720(%rbp)
    edb0:	00 00 00 
    edb3:	c7 85 e4 f8 ff ff d5 	movl   $0x4b8d9fd5,-0x71c(%rbp)
    edba:	9f 8d 4b 
    edbd:	c7 85 e8 f8 ff ff f9 	movl   $0xfffffff9,-0x718(%rbp)
    edc4:	ff ff ff 
    edc7:	c7 85 ec f8 ff ff d5 	movl   $0x4b8d9fd5,-0x714(%rbp)
    edce:	9f 8d 4b 
    edd1:	c7 85 f0 f8 ff ff 00 	movl   $0x0,-0x710(%rbp)
    edd8:	00 00 00 
    eddb:	c7 85 f4 f8 ff ff 01 	movl   $0x1,-0x70c(%rbp)
    ede2:	00 00 00 
    ede5:	c7 85 f8 f8 ff ff 05 	movl   $0x5,-0x708(%rbp)
    edec:	00 00 00 
    edef:	c7 85 fc f8 ff ff 4f 	movl   $0xf82f534f,-0x704(%rbp)
    edf6:	53 2f f8 
    edf9:	c7 85 00 f9 ff ff 05 	movl   $0x5,-0x700(%rbp)
    ee00:	00 00 00 
    ee03:	c7 85 04 f9 ff ff 01 	movl   $0x1,-0x6fc(%rbp)
    ee0a:	00 00 00 
    ee0d:	c7 85 08 f9 ff ff 00 	movl   $0x0,-0x6f8(%rbp)
    ee14:	00 00 00 
    ee17:	c7 85 0c f9 ff ff d5 	movl   $0x4b8d9fd5,-0x6f4(%rbp)
    ee1e:	9f 8d 4b 
    ee21:	c7 85 10 f9 ff ff f9 	movl   $0xfffffff9,-0x6f0(%rbp)
    ee28:	ff ff ff 
    ee2b:	c7 85 14 f9 ff ff d5 	movl   $0x4b8d9fd5,-0x6ec(%rbp)
    ee32:	9f 8d 4b 
    ee35:	c7 85 18 f9 ff ff 00 	movl   $0x0,-0x6e8(%rbp)
    ee3c:	00 00 00 
    ee3f:	c7 85 1c f9 ff ff 01 	movl   $0x1,-0x6e4(%rbp)
    ee46:	00 00 00 
    ee49:	48 8d 85 04 f1 ff ff 	lea    -0xefc(%rbp),%rax
    ee50:	48 89 85 d8 f1 ff ff 	mov    %rax,-0xe28(%rbp)
    ee57:	66 c7 85 00 f1 ff ff 	movw   $0x56c8,-0xf00(%rbp)
    ee5e:	c8 56 
    ee60:	48 b8 f0 18 cc 5c 84 	movabs $0x2354b8845ccc18f0,%rax
    ee67:	b8 54 23 
    ee6a:	48 89 85 e0 f1 ff ff 	mov    %rax,-0xe20(%rbp)
    ee71:	c7 85 30 f1 ff ff 00 	movl   $0x0,-0xed0(%rbp)
    ee78:	00 00 00 
    ee7b:	eb 1e                	jmp    ee9b <func_1+0x16e6>
    ee7d:	8b 85 30 f1 ff ff    	mov    -0xed0(%rbp),%eax
    ee83:	48 98                	cltq   
    ee85:	48 8d 15 6c 65 01 00 	lea    0x1656c(%rip),%rdx        # 253f8 <g_1381>
    ee8c:	48 89 94 c5 70 f3 ff 	mov    %rdx,-0xc90(%rbp,%rax,8)
    ee93:	ff 
    ee94:	83 85 30 f1 ff ff 01 	addl   $0x1,-0xed0(%rbp)
    ee9b:	83 bd 30 f1 ff ff 05 	cmpl   $0x5,-0xed0(%rbp)
    eea2:	7e d9                	jle    ee7d <func_1+0x16c8>
    eea4:	48 8b 05 35 95 01 00 	mov    0x19535(%rip),%rax        # 283e0 <g_1378>
    eeab:	48 c7 00 00 00 00 00 	movq   $0x0,(%rax)
    eeb2:	48 8b 85 88 f1 ff ff 	mov    -0xe78(%rbp),%rax
    eeb9:	48 8b 00             	mov    (%rax),%rax
    eebc:	48 8b 00             	mov    (%rax),%rax
    eebf:	8b 10                	mov    (%rax),%edx
    eec1:	83 ea 01             	sub    $0x1,%edx
    eec4:	89 10                	mov    %edx,(%rax)
    eec6:	48 8b 05 3b 92 01 00 	mov    0x1923b(%rip),%rax        # 28108 <g_311>
    eecd:	0f b6 00             	movzbl (%rax),%eax
    eed0:	0f be d0             	movsbl %al,%edx
    eed3:	48 83 bd d0 f1 ff ff 	cmpq   $0x0,-0xe30(%rbp)
    eeda:	00 
    eedb:	0f 95 c0             	setne  %al
    eede:	0f b6 c0             	movzbl %al,%eax
    eee1:	39 c2                	cmp    %eax,%edx
    eee3:	0f 9d c0             	setge  %al
    eee6:	0f b6 d0             	movzbl %al,%edx
    eee9:	48 8b 85 b0 f1 ff ff 	mov    -0xe50(%rbp),%rax
    eef0:	8b 00                	mov    (%rax),%eax
    eef2:	39 c2                	cmp    %eax,%edx
    eef4:	0f 9f c0             	setg   %al
    eef7:	0f b6 c0             	movzbl %al,%eax
    eefa:	89 85 70 f1 ff ff    	mov    %eax,-0xe90(%rbp)
    ef00:	8b 95 70 f1 ff ff    	mov    -0xe90(%rbp),%edx
    ef06:	48 8b 85 b0 f1 ff ff 	mov    -0xe50(%rbp),%rax
    ef0d:	8b 00                	mov    (%rax),%eax
    ef0f:	39 c2                	cmp    %eax,%edx
    ef11:	0f 95 c0             	setne  %al
    ef14:	0f b6 d0             	movzbl %al,%edx
    ef17:	8b 05 9b 62 01 00    	mov    0x1629b(%rip),%eax        # 251b8 <g_217>
    ef1d:	0f b7 c0             	movzwl %ax,%eax
    ef20:	89 d6                	mov    %edx,%esi
    ef22:	89 c7                	mov    %eax,%edi
    ef24:	e8 f6 dd ff ff       	callq  cd1f <safe_sub_func_uint16_t_u_u>
    ef29:	66 85 c0             	test   %ax,%ax
    ef2c:	74 14                	je     ef42 <func_1+0x178d>
    ef2e:	48 8b 85 b0 f1 ff ff 	mov    -0xe50(%rbp),%rax
    ef35:	8b 00                	mov    (%rax),%eax
    ef37:	85 c0                	test   %eax,%eax
    ef39:	74 07                	je     ef42 <func_1+0x178d>
    ef3b:	ba 01 00 00 00       	mov    $0x1,%edx
    ef40:	eb 05                	jmp    ef47 <func_1+0x1792>
    ef42:	ba 00 00 00 00       	mov    $0x0,%edx
    ef47:	48 8b 05 b2 91 01 00 	mov    0x191b2(%rip),%rax        # 28100 <g_124>
    ef4e:	48 63 d2             	movslq %edx,%rdx
    ef51:	48 89 10             	mov    %rdx,(%rax)
    ef54:	48 8b 85 b0 f1 ff ff 	mov    -0xe50(%rbp),%rax
    ef5b:	48 89 85 c8 f1 ff ff 	mov    %rax,-0xe38(%rbp)
    ef62:	48 83 bd c8 f1 ff ff 	cmpq   $0x0,-0xe38(%rbp)
    ef69:	00 
    ef6a:	0f 95 c0             	setne  %al
    ef6d:	0f b6 d0             	movzbl %al,%edx
    ef70:	48 8b 85 d8 f1 ff ff 	mov    -0xe28(%rbp),%rax
    ef77:	8b 00                	mov    (%rax),%eax
    ef79:	21 c2                	and    %eax,%edx
    ef7b:	48 8b 85 d8 f1 ff ff 	mov    -0xe28(%rbp),%rax
    ef82:	89 10                	mov    %edx,(%rax)
    ef84:	48 8b 85 d8 f1 ff ff 	mov    -0xe28(%rbp),%rax
    ef8b:	8b 00                	mov    (%rax),%eax
    ef8d:	89 c2                	mov    %eax,%edx
    ef8f:	48 8b 05 aa 9d 01 00 	mov    0x19daa(%rip),%rax        # 28d40 <g_2351>
    ef96:	48 8b 00             	mov    (%rax),%rax
    ef99:	48 8b 00             	mov    (%rax),%rax
    ef9c:	48 85 c0             	test   %rax,%rax
    ef9f:	0f 95 c0             	setne  %al
    efa2:	0f b6 c0             	movzbl %al,%eax
    efa5:	89 d6                	mov    %edx,%esi
    efa7:	89 c7                	mov    %eax,%edi
    efa9:	e8 77 df ff ff       	callq  cf25 <safe_div_func_uint32_t_u_u>
    efae:	85 c0                	test   %eax,%eax
    efb0:	0f 84 0c 04 00 00    	je     f3c2 <func_1+0x1c0d>
    efb6:	c7 85 50 f1 ff ff 2e 	movl   $0xdb66e82e,-0xeb0(%rbp)
    efbd:	e8 66 db 
    efc0:	c7 85 78 f1 ff ff 12 	movl   $0xd249b712,-0xe88(%rbp)
    efc7:	b7 49 d2 
    efca:	c7 85 54 f1 ff ff 03 	movl   $0x3,-0xeac(%rbp)
    efd1:	00 00 00 
    efd4:	48 8b 15 f5 93 01 00 	mov    0x193f5(%rip),%rdx        # 283d0 <g_1164>
    efdb:	48 8b 05 ee 93 01 00 	mov    0x193ee(%rip),%rax        # 283d0 <g_1164>
    efe2:	48 8b 12             	mov    (%rdx),%rdx
    efe5:	48 89 10             	mov    %rdx,(%rax)
    efe8:	c6 05 b1 61 01 00 00 	movb   $0x0,0x161b1(%rip)        # 251a0 <g_177>
    efef:	e9 8b 00 00 00       	jmpq   f07f <func_1+0x18ca>
    eff4:	48 8d 05 69 61 01 00 	lea    0x16169(%rip),%rax        # 25164 <g_9>
    effb:	48 89 85 40 f2 ff ff 	mov    %rax,-0xdc0(%rbp)
    f002:	8b 05 38 32 01 00    	mov    0x13238(%rip),%eax        # 22240 <l_2676.4171>
    f008:	48 98                	cltq   
    f00a:	48 89 05 bf 64 01 00 	mov    %rax,0x164bf(%rip)        # 254d0 <g_2677>
    f011:	8b 05 99 a9 01 00    	mov    0x1a999(%rip),%eax        # 299b0 <g_145>
    f017:	89 c3                	mov    %eax,%ebx
    f019:	48 8b 85 d8 f1 ff ff 	mov    -0xe28(%rbp),%rax
    f020:	8b 00                	mov    (%rax),%eax
    f022:	0f b7 c0             	movzwl %ax,%eax
    f025:	89 c6                	mov    %eax,%esi
    f027:	bf 01 00 00 00       	mov    $0x1,%edi
    f02c:	e8 2b dd ff ff       	callq  cd5c <safe_mod_func_uint16_t_u_u>
    f031:	48 8b 85 b0 f1 ff ff 	mov    -0xe50(%rbp),%rax
    f038:	8b 00                	mov    (%rax),%eax
    f03a:	83 f8 01             	cmp    $0x1,%eax
    f03d:	0f 95 c0             	setne  %al
    f040:	0f b6 c0             	movzbl %al,%eax
    f043:	be 07 00 00 00       	mov    $0x7,%esi
    f048:	89 c7                	mov    %eax,%edi
    f04a:	e8 e6 d2 ff ff       	callq  c335 <safe_rshift_func_int8_t_s_s>
    f04f:	0f be c0             	movsbl %al,%eax
    f052:	89 de                	mov    %ebx,%esi
    f054:	89 c7                	mov    %eax,%edi
    f056:	e8 5b d5 ff ff       	callq  c5b6 <safe_add_func_int32_t_s_s>
    f05b:	48 8b 95 40 f2 ff ff 	mov    -0xdc0(%rbp),%rdx
    f062:	8b 12                	mov    (%rdx),%edx
    f064:	21 c2                	and    %eax,%edx
    f066:	48 8b 85 40 f2 ff ff 	mov    -0xdc0(%rbp),%rax
    f06d:	89 10                	mov    %edx,(%rax)
    f06f:	0f b6 05 2a 61 01 00 	movzbl 0x1612a(%rip),%eax        # 251a0 <g_177>
    f076:	83 c0 01             	add    $0x1,%eax
    f079:	88 05 21 61 01 00    	mov    %al,0x16121(%rip)        # 251a0 <g_177>
    f07f:	0f b6 05 1a 61 01 00 	movzbl 0x1611a(%rip),%eax        # 251a0 <g_177>
    f086:	3c 30                	cmp    $0x30,%al
    f088:	0f 86 66 ff ff ff    	jbe    eff4 <func_1+0x183f>
    f08e:	48 c7 05 7f 63 01 00 	movq   $0x0,0x1637f(%rip)        # 25418 <g_1588>
    f095:	00 00 00 00 
    f099:	e9 18 01 00 00       	jmpq   f1b6 <func_1+0x1a01>
    f09e:	48 8d 85 10 f3 ff ff 	lea    -0xcf0(%rbp),%rax
    f0a5:	48 83 c0 08          	add    $0x8,%rax
    f0a9:	48 89 85 20 f2 ff ff 	mov    %rax,-0xde0(%rbp)
    f0b0:	48 8d 85 30 f8 ff ff 	lea    -0x7d0(%rbp),%rax
    f0b7:	48 83 c0 68          	add    $0x68,%rax
    f0bb:	48 89 85 28 f2 ff ff 	mov    %rax,-0xdd8(%rbp)
    f0c2:	48 c7 85 30 f2 ff ff 	movq   $0x0,-0xdd0(%rbp)
    f0c9:	00 00 00 00 
    f0cd:	48 8d 05 b4 60 01 00 	lea    0x160b4(%rip),%rax        # 25188 <g_98>
    f0d4:	48 89 85 38 f2 ff ff 	mov    %rax,-0xdc8(%rbp)
    f0db:	c7 85 58 f1 ff ff 04 	movl   $0x4,-0xea8(%rbp)
    f0e2:	00 00 00 
    f0e5:	c7 85 34 f1 ff ff 00 	movl   $0x0,-0xecc(%rbp)
    f0ec:	00 00 00 
    f0ef:	eb 57                	jmp    f148 <func_1+0x1993>
    f0f1:	c7 85 38 f1 ff ff 00 	movl   $0x0,-0xec8(%rbp)
    f0f8:	00 00 00 
    f0fb:	eb 3b                	jmp    f138 <func_1+0x1983>
    f0fd:	8b 85 38 f1 ff ff    	mov    -0xec8(%rbp),%eax
    f103:	48 63 c8             	movslq %eax,%rcx
    f106:	8b 85 34 f1 ff ff    	mov    -0xecc(%rbp),%eax
    f10c:	48 63 d0             	movslq %eax,%rdx
    f10f:	48 89 d0             	mov    %rdx,%rax
    f112:	48 01 c0             	add    %rax,%rax
    f115:	48 01 d0             	add    %rdx,%rax
    f118:	48 01 c0             	add    %rax,%rax
    f11b:	48 01 c8             	add    %rcx,%rax
    f11e:	48 8d 95 30 f8 ff ff 	lea    -0x7d0(%rbp),%rdx
    f125:	48 83 c2 68          	add    $0x68,%rdx
    f129:	48 89 94 c5 50 f6 ff 	mov    %rdx,-0x9b0(%rbp,%rax,8)
    f130:	ff 
    f131:	83 85 38 f1 ff ff 01 	addl   $0x1,-0xec8(%rbp)
    f138:	83 bd 38 f1 ff ff 05 	cmpl   $0x5,-0xec8(%rbp)
    f13f:	7e bc                	jle    f0fd <func_1+0x1948>
    f141:	83 85 34 f1 ff ff 01 	addl   $0x1,-0xecc(%rbp)
    f148:	83 bd 34 f1 ff ff 02 	cmpl   $0x2,-0xecc(%rbp)
    f14f:	7e a0                	jle    f0f1 <func_1+0x193c>
    f151:	0f b6 85 33 f4 ff ff 	movzbl -0xbcd(%rbp),%eax
    f158:	83 c0 01             	add    $0x1,%eax
    f15b:	88 85 33 f4 ff ff    	mov    %al,-0xbcd(%rbp)
    f161:	48 8b 85 d8 f1 ff ff 	mov    -0xe28(%rbp),%rax
    f168:	c7 00 ff ff ff ff    	movl   $0xffffffff,(%rax)
    f16e:	48 8b 85 d8 f1 ff ff 	mov    -0xe28(%rbp),%rax
    f175:	8b 10                	mov    (%rax),%edx
    f177:	48 8b 85 28 f2 ff ff 	mov    -0xdd8(%rbp),%rax
    f17e:	8b 00                	mov    (%rax),%eax
    f180:	21 c2                	and    %eax,%edx
    f182:	48 8b 85 28 f2 ff ff 	mov    -0xdd8(%rbp),%rax
    f189:	89 10                	mov    %edx,(%rax)
    f18b:	66 83 ad 00 f1 ff ff 	subw   $0x1,-0xf00(%rbp)
    f192:	01 
    f193:	48 8b 05 46 92 01 00 	mov    0x19246(%rip),%rax        # 283e0 <g_1378>
    f19a:	48 8d 95 78 f1 ff ff 	lea    -0xe88(%rbp),%rdx
    f1a1:	48 89 10             	mov    %rdx,(%rax)
    f1a4:	48 8b 05 6d 62 01 00 	mov    0x1626d(%rip),%rax        # 25418 <g_1588>
    f1ab:	48 83 c0 01          	add    $0x1,%rax
    f1af:	48 89 05 62 62 01 00 	mov    %rax,0x16262(%rip)        # 25418 <g_1588>
    f1b6:	48 8b 05 5b 62 01 00 	mov    0x1625b(%rip),%rax        # 25418 <g_1588>
    f1bd:	48 83 f8 03          	cmp    $0x3,%rax
    f1c1:	0f 86 d7 fe ff ff    	jbe    f09e <func_1+0x18e9>
    f1c7:	c7 05 93 5f 01 00 ff 	movl   $0xffffffff,0x15f93(%rip)        # 25164 <g_9>
    f1ce:	ff ff ff 
    f1d1:	e9 d8 01 00 00       	jmpq   f3ae <func_1+0x1bf9>
    f1d6:	48 8d 85 d0 f4 ff ff 	lea    -0xb30(%rbp),%rax
    f1dd:	48 83 c0 78          	add    $0x78,%rax
    f1e1:	48 89 85 f0 f1 ff ff 	mov    %rax,-0xe10(%rbp)
    f1e8:	48 8d 05 c9 5f 01 00 	lea    0x15fc9(%rip),%rax        # 251b8 <g_217>
    f1ef:	48 89 85 f8 f1 ff ff 	mov    %rax,-0xe08(%rbp)
    f1f6:	48 c7 85 00 f2 ff ff 	movq   $0x0,-0xe00(%rbp)
    f1fd:	00 00 00 00 
    f201:	48 8d 85 04 f1 ff ff 	lea    -0xefc(%rbp),%rax
    f208:	48 89 85 08 f2 ff ff 	mov    %rax,-0xdf8(%rbp)
    f20f:	48 8d 85 04 f1 ff ff 	lea    -0xefc(%rbp),%rax
    f216:	48 89 85 10 f2 ff ff 	mov    %rax,-0xdf0(%rbp)
    f21d:	48 8d 85 30 f8 ff ff 	lea    -0x7d0(%rbp),%rax
    f224:	48 05 9c 00 00 00    	add    $0x9c,%rax
    f22a:	48 89 85 18 f2 ff ff 	mov    %rax,-0xde8(%rbp)
    f231:	48 8d 05 4c 5f 01 00 	lea    0x15f4c(%rip),%rax        # 25184 <g_92>
    f238:	48 89 85 e0 f3 ff ff 	mov    %rax,-0xc20(%rbp)
    f23f:	48 8d 05 3e 5f 01 00 	lea    0x15f3e(%rip),%rax        # 25184 <g_92>
    f246:	48 89 85 e8 f3 ff ff 	mov    %rax,-0xc18(%rbp)
    f24d:	48 8d 05 30 5f 01 00 	lea    0x15f30(%rip),%rax        # 25184 <g_92>
    f254:	48 89 85 f0 f3 ff ff 	mov    %rax,-0xc10(%rbp)
    f25b:	48 8d 05 22 5f 01 00 	lea    0x15f22(%rip),%rax        # 25184 <g_92>
    f262:	48 89 85 f8 f3 ff ff 	mov    %rax,-0xc08(%rbp)
    f269:	48 8d 05 14 5f 01 00 	lea    0x15f14(%rip),%rax        # 25184 <g_92>
    f270:	48 89 85 00 f4 ff ff 	mov    %rax,-0xc00(%rbp)
    f277:	48 8d 05 06 5f 01 00 	lea    0x15f06(%rip),%rax        # 25184 <g_92>
    f27e:	48 89 85 08 f4 ff ff 	mov    %rax,-0xbf8(%rbp)
    f285:	48 8d 05 f8 5e 01 00 	lea    0x15ef8(%rip),%rax        # 25184 <g_92>
    f28c:	48 89 85 10 f4 ff ff 	mov    %rax,-0xbf0(%rbp)
    f293:	48 8d 05 ea 5e 01 00 	lea    0x15eea(%rip),%rax        # 25184 <g_92>
    f29a:	48 89 85 18 f4 ff ff 	mov    %rax,-0xbe8(%rbp)
    f2a1:	48 b8 4f 0e 4f 01 4f 	movabs $0x14f0e4f014f0e4f,%rax
    f2a8:	0e 4f 01 
    f2ab:	48 89 85 50 f6 ff ff 	mov    %rax,-0x9b0(%rbp)
    f2b2:	c6 85 58 f6 ff ff 4f 	movb   $0x4f,-0x9a8(%rbp)
    f2b9:	48 b8 00 f8 93 93 f8 	movabs $0xf89393f800,%rax
    f2c0:	00 00 00 
    f2c3:	48 89 85 59 f6 ff ff 	mov    %rax,-0x9a7(%rbp)
    f2ca:	c6 85 61 f6 ff ff 00 	movb   $0x0,-0x99f(%rbp)
    f2d1:	48 b8 ff 01 fc 01 ff 	movabs $0x1fc01ff01fc01ff,%rax
    f2d8:	01 fc 01 
    f2db:	48 89 85 62 f6 ff ff 	mov    %rax,-0x99e(%rbp)
    f2e2:	c6 85 6a f6 ff ff ff 	movb   $0xff,-0x996(%rbp)
    f2e9:	b8 f8 93 93 f8       	mov    $0xf89393f8,%eax
    f2ee:	48 89 85 6b f6 ff ff 	mov    %rax,-0x995(%rbp)
    f2f5:	c6 85 73 f6 ff ff f8 	movb   $0xf8,-0x98d(%rbp)
    f2fc:	48 b8 4f 01 4f 0e 4f 	movabs $0xe4f014f0e4f014f,%rax
    f303:	01 4f 0e 
    f306:	48 89 85 74 f6 ff ff 	mov    %rax,-0x98c(%rbp)
    f30d:	c6 85 7c f6 ff ff 4f 	movb   $0x4f,-0x984(%rbp)
    f314:	48 b8 f8 f8 00 93 00 	movabs $0x9300009300f8f8,%rax
    f31b:	00 93 00 
    f31e:	48 89 85 7d f6 ff ff 	mov    %rax,-0x983(%rbp)
    f325:	c6 85 85 f6 ff ff f8 	movb   $0xf8,-0x97b(%rbp)
    f32c:	48 b8 ff 0e fc 0e ff 	movabs $0xefc0eff0efc0eff,%rax
    f333:	0e fc 0e 
    f336:	48 89 85 86 f6 ff ff 	mov    %rax,-0x97a(%rbp)
    f33d:	c6 85 8e f6 ff ff ff 	movb   $0xff,-0x972(%rbp)
    f344:	48 b8 00 93 00 f8 f8 	movabs $0x9300f8f8009300,%rax
    f34b:	00 93 00 
    f34e:	48 89 85 8f f6 ff ff 	mov    %rax,-0x971(%rbp)
    f355:	c6 85 97 f6 ff ff 00 	movb   $0x0,-0x969(%rbp)
    f35c:	48 83 ad 80 f1 ff ff 	subq   $0x1,-0xe80(%rbp)
    f363:	01 
    f364:	48 8b 05 fd a1 01 00 	mov    0x1a1fd(%rip),%rax        # 29568 <g_2722>
    f36b:	48 8d 15 4e 8e 01 00 	lea    0x18e4e(%rip),%rdx        # 281c0 <g_766+0x80>
    f372:	48 89 10             	mov    %rdx,(%rax)
    f375:	48 8b 85 d8 f1 ff ff 	mov    -0xe28(%rbp),%rax
    f37c:	8b 00                	mov    (%rax),%eax
    f37e:	85 c0                	test   %eax,%eax
    f380:	75 1c                	jne    f39e <func_1+0x1be9>
    f382:	48 8b 85 18 f2 ff ff 	mov    -0xde8(%rbp),%rax
    f389:	8b 00                	mov    (%rax),%eax
    f38b:	23 85 3c f1 ff ff    	and    -0xec4(%rbp),%eax
    f391:	89 c2                	mov    %eax,%edx
    f393:	48 8b 85 18 f2 ff ff 	mov    -0xde8(%rbp),%rax
    f39a:	89 10                	mov    %edx,(%rax)
    f39c:	eb 01                	jmp    f39f <func_1+0x1bea>
    f39e:	90                   	nop
    f39f:	8b 05 bf 5d 01 00    	mov    0x15dbf(%rip),%eax        # 25164 <g_9>
    f3a5:	83 c0 01             	add    $0x1,%eax
    f3a8:	89 05 b6 5d 01 00    	mov    %eax,0x15db6(%rip)        # 25164 <g_9>
    f3ae:	8b 05 b0 5d 01 00    	mov    0x15db0(%rip),%eax        # 25164 <g_9>
    f3b4:	83 f8 1c             	cmp    $0x1c,%eax
    f3b7:	0f 8e 19 fe ff ff    	jle    f1d6 <func_1+0x1a21>
    f3bd:	e9 4b 03 00 00       	jmpq   f70d <func_1+0x1f58>
    f3c2:	c6 85 78 f1 ff ff ff 	movb   $0xff,-0xe88(%rbp)
    f3c9:	48 8d 05 a0 5d 01 00 	lea    0x15da0(%rip),%rax        # 25170 <g_49>
    f3d0:	48 89 85 e8 f1 ff ff 	mov    %rax,-0xe18(%rbp)
    f3d7:	8b 05 7b 0c 01 00    	mov    0x10c7b(%rip),%eax        # 20058 <g_812>
    f3dd:	48 8d 05 14 90 01 00 	lea    0x19014(%rip),%rax        # 283f8 <g_1812>
    f3e4:	48 39 85 c0 f1 ff ff 	cmp    %rax,-0xe40(%rbp)
    f3eb:	0f 95 c0             	setne  %al
    f3ee:	0f b6 c0             	movzbl %al,%eax
    f3f1:	23 85 48 f1 ff ff    	and    -0xeb8(%rbp),%eax
    f3f7:	89 c2                	mov    %eax,%edx
    f3f9:	48 8b 85 d8 f1 ff ff 	mov    -0xe28(%rbp),%rax
    f400:	8b 00                	mov    (%rax),%eax
    f402:	39 c2                	cmp    %eax,%edx
    f404:	0f 9e c0             	setle  %al
    f407:	0f b6 c0             	movzbl %al,%eax
    f40a:	be fd ff ff ff       	mov    $0xfffffffd,%esi
    f40f:	89 c7                	mov    %eax,%edi
    f411:	e8 e9 d2 ff ff       	callq  c6ff <safe_div_func_int32_t_s_s>
    f416:	48 8b 05 5b 5d 01 00 	mov    0x15d5b(%rip),%rax        # 25178 <g_55>
    f41d:	48 85 c0             	test   %rax,%rax
    f420:	75 0a                	jne    f42c <func_1+0x1c77>
    f422:	8b 05 9c 60 01 00    	mov    0x1609c(%rip),%eax        # 254c4 <g_2308>
    f428:	85 c0                	test   %eax,%eax
    f42a:	74 07                	je     f433 <func_1+0x1c7e>
    f42c:	b8 01 00 00 00       	mov    $0x1,%eax
    f431:	eb 05                	jmp    f438 <func_1+0x1c83>
    f433:	b8 00 00 00 00       	mov    $0x0,%eax
    f438:	0f be d0             	movsbl %al,%edx
    f43b:	48 8b 05 c6 8c 01 00 	mov    0x18cc6(%rip),%rax        # 28108 <g_311>
    f442:	0f b6 00             	movzbl (%rax),%eax
    f445:	0f be c0             	movsbl %al,%eax
    f448:	89 d6                	mov    %edx,%esi
    f44a:	89 c7                	mov    %eax,%edi
    f44c:	e8 e0 cd ff ff       	callq  c231 <safe_mod_func_int8_t_s_s>
    f451:	be 01 00 00 00       	mov    $0x1,%esi
    f456:	bf 00 00 00 00       	mov    $0x0,%edi
    f45b:	e8 4f dc ff ff       	callq  d0af <safe_div_func_uint64_t_u_u>
    f460:	0f be d0             	movsbl %al,%edx
    f463:	0f b6 85 78 f1 ff ff 	movzbl -0xe88(%rbp),%eax
    f46a:	0f be c0             	movsbl %al,%eax
    f46d:	89 d6                	mov    %edx,%esi
    f46f:	89 c7                	mov    %eax,%edi
    f471:	e8 7c cd ff ff       	callq  c1f2 <safe_sub_func_int8_t_s_s>
    f476:	0f be c0             	movsbl %al,%eax
    f479:	39 85 40 f1 ff ff    	cmp    %eax,-0xec0(%rbp)
    f47f:	0f 9d c0             	setge  %al
    f482:	0f b6 c0             	movzbl %al,%eax
    f485:	39 85 4c f1 ff ff    	cmp    %eax,-0xeb4(%rbp)
    f48b:	0f 95 c0             	setne  %al
    f48e:	0f b6 d0             	movzbl %al,%edx
    f491:	8b 05 f1 5c 01 00    	mov    0x15cf1(%rip),%eax        # 25188 <g_98>
    f497:	39 c2                	cmp    %eax,%edx
    f499:	0f 9e c0             	setle  %al
    f49c:	0f b6 c0             	movzbl %al,%eax
    f49f:	89 c6                	mov    %eax,%esi
    f4a1:	bf 8c a1 00 00       	mov    $0xa18c,%edi
    f4a6:	e8 13 d9 ff ff       	callq  cdbe <safe_lshift_func_uint16_t_u_s>
    f4ab:	0f be c0             	movsbl %al,%eax
    f4ae:	be 00 00 00 00       	mov    $0x0,%esi
    f4b3:	89 c7                	mov    %eax,%edi
    f4b5:	e8 7b ce ff ff       	callq  c335 <safe_rshift_func_int8_t_s_s>
    f4ba:	0f be d0             	movsbl %al,%edx
    f4bd:	0f b6 85 78 f1 ff ff 	movzbl -0xe88(%rbp),%eax
    f4c4:	0f b6 c0             	movzbl %al,%eax
    f4c7:	09 d0                	or     %edx,%eax
    f4c9:	85 c0                	test   %eax,%eax
    f4cb:	74 07                	je     f4d4 <func_1+0x1d1f>
    f4cd:	b8 01 00 00 00       	mov    $0x1,%eax
    f4d2:	eb 05                	jmp    f4d9 <func_1+0x1d24>
    f4d4:	b8 00 00 00 00       	mov    $0x0,%eax
    f4d9:	89 c7                	mov    %eax,%edi
    f4db:	e8 c6 d9 ff ff       	callq  cea6 <safe_unary_minus_func_uint32_t_u>
    f4e0:	48 8b 85 b0 f1 ff ff 	mov    -0xe50(%rbp),%rax
    f4e7:	8b 10                	mov    (%rax),%edx
    f4e9:	48 8b 85 b0 f1 ff ff 	mov    -0xe50(%rbp),%rax
    f4f0:	89 10                	mov    %edx,(%rax)
    f4f2:	48 8b 05 f7 8e 01 00 	mov    0x18ef7(%rip),%rax        # 283f0 <g_1376>
    f4f9:	48 8b 00             	mov    (%rax),%rax
    f4fc:	48 8b 00             	mov    (%rax),%rax
    f4ff:	48 8d 95 70 f1 ff ff 	lea    -0xe90(%rbp),%rdx
    f506:	48 89 10             	mov    %rdx,(%rax)
    f509:	48 8b 05 e8 8e 01 00 	mov    0x18ee8(%rip),%rax        # 283f8 <g_1812>
    f510:	48 8b 00             	mov    (%rax),%rax
    f513:	48 8b 00             	mov    (%rax),%rax
    f516:	48 39 85 e8 f1 ff ff 	cmp    %rax,-0xe18(%rbp)
    f51d:	0f 95 c0             	setne  %al
    f520:	0f b6 c0             	movzbl %al,%eax
    f523:	89 c7                	mov    %eax,%edi
    f525:	e8 73 ce ff ff       	callq  c39d <safe_unary_minus_func_int16_t_s>
    f52a:	98                   	cwtl   
    f52b:	89 85 ec f0 ff ff    	mov    %eax,-0xf14(%rbp)
    f531:	48 8b 05 d0 8b 01 00 	mov    0x18bd0(%rip),%rax        # 28108 <g_311>
    f538:	0f b6 00             	movzbl (%rax),%eax
    f53b:	0f be d8             	movsbl %al,%ebx
    f53e:	0f b6 85 78 f1 ff ff 	movzbl -0xe88(%rbp),%eax
    f545:	44 0f b6 e0          	movzbl %al,%r12d
    f549:	0f b6 85 78 f1 ff ff 	movzbl -0xe88(%rbp),%eax
    f550:	44 0f b6 e8          	movzbl %al,%r13d
    f554:	0f b6 85 78 f1 ff ff 	movzbl -0xe88(%rbp),%eax
    f55b:	44 0f be f0          	movsbl %al,%r14d
    f55f:	8b 85 8c f4 ff ff    	mov    -0xb74(%rbp),%eax
    f565:	89 c0                	mov    %eax,%eax
    f567:	48 89 85 e0 f0 ff ff 	mov    %rax,-0xf20(%rbp)
    f56e:	48 8b 05 93 8b 01 00 	mov    0x18b93(%rip),%rax        # 28108 <g_311>
    f575:	0f b6 00             	movzbl (%rax),%eax
    f578:	44 0f b6 f8          	movzbl %al,%r15d
    f57c:	48 8b 05 6d 8e 01 00 	mov    0x18e6d(%rip),%rax        # 283f0 <g_1376>
    f583:	48 8b 00             	mov    (%rax),%rax
    f586:	48 8b 00             	mov    (%rax),%rax
    f589:	48 8b 00             	mov    (%rax),%rax
    f58c:	8b 00                	mov    (%rax),%eax
    f58e:	85 c0                	test   %eax,%eax
    f590:	75 07                	jne    f599 <func_1+0x1de4>
    f592:	0f b6 05 d7 5d 01 00 	movzbl 0x15dd7(%rip),%eax        # 25370 <g_1015+0x30>
    f599:	ba 01 00 00 00       	mov    $0x1,%edx
    f59e:	48 8b 85 b0 f1 ff ff 	mov    -0xe50(%rbp),%rax
    f5a5:	8b 00                	mov    (%rax),%eax
    f5a7:	39 c2                	cmp    %eax,%edx
    f5a9:	0f 9f c0             	setg   %al
    f5ac:	0f b6 c0             	movzbl %al,%eax
    f5af:	be 01 00 00 00       	mov    $0x1,%esi
    f5b4:	89 c7                	mov    %eax,%edi
    f5b6:	e8 37 cc ff ff       	callq  c1f2 <safe_sub_func_int8_t_s_s>
    f5bb:	48 8b 85 d8 f1 ff ff 	mov    -0xe28(%rbp),%rax
    f5c2:	8b 00                	mov    (%rax),%eax
    f5c4:	98                   	cwtl   
    f5c5:	89 85 e8 f0 ff ff    	mov    %eax,-0xf18(%rbp)
    f5cb:	48 8b 85 b0 f1 ff ff 	mov    -0xe50(%rbp),%rax
    f5d2:	8b 00                	mov    (%rax),%eax
    f5d4:	48 63 c8             	movslq %eax,%rcx
    f5d7:	48 89 8d d8 f0 ff ff 	mov    %rcx,-0xf28(%rbp)
    f5de:	48 8b 05 23 8b 01 00 	mov    0x18b23(%rip),%rax        # 28108 <g_311>
    f5e5:	0f b6 00             	movzbl (%rax),%eax
    f5e8:	0f be d0             	movsbl %al,%edx
    f5eb:	48 8b 05 16 8b 01 00 	mov    0x18b16(%rip),%rax        # 28108 <g_311>
    f5f2:	0f b6 00             	movzbl (%rax),%eax
    f5f5:	0f be c0             	movsbl %al,%eax
    f5f8:	89 d6                	mov    %edx,%esi
    f5fa:	89 c7                	mov    %eax,%edi
    f5fc:	e8 34 cd ff ff       	callq  c335 <safe_rshift_func_int8_t_s_s>
    f601:	89 c2                	mov    %eax,%edx
    f603:	48 8b 05 f6 8a 01 00 	mov    0x18af6(%rip),%rax        # 28100 <g_124>
    f60a:	48 0f be d2          	movsbq %dl,%rdx
    f60e:	48 89 10             	mov    %rdx,(%rax)
    f611:	48 8b 00             	mov    (%rax),%rax
    f614:	89 85 90 f5 ff ff    	mov    %eax,-0xa70(%rbp)
    f61a:	8b 85 90 f5 ff ff    	mov    -0xa70(%rbp),%eax
    f620:	48 98                	cltq   
    f622:	48 8b b5 d8 f0 ff ff 	mov    -0xf28(%rbp),%rsi
    f629:	48 89 c7             	mov    %rax,%rdi
    f62c:	e8 83 d3 ff ff       	callq  c9b4 <safe_mod_func_int64_t_s_s>
    f631:	98                   	cwtl   
    f632:	8b b5 e8 f0 ff ff    	mov    -0xf18(%rbp),%esi
    f638:	89 c7                	mov    %eax,%edi
    f63a:	e8 74 cd ff ff       	callq  c3b3 <safe_add_func_int16_t_s_s>
    f63f:	89 c2                	mov    %eax,%edx
    f641:	48 8b 05 b8 5d 01 00 	mov    0x15db8(%rip),%rax        # 25400 <g_1397>
    f648:	31 d0                	xor    %edx,%eax
    f64a:	83 c8 97             	or     $0xffffff97,%eax
    f64d:	0f b6 c0             	movzbl %al,%eax
    f650:	44 89 fe             	mov    %r15d,%esi
    f653:	89 c7                	mov    %eax,%edi
    f655:	e8 1e d5 ff ff       	callq  cb78 <safe_sub_func_uint8_t_u_u>
    f65a:	0f b6 c0             	movzbl %al,%eax
    f65d:	be 00 00 00 00       	mov    $0x0,%esi
    f662:	89 c7                	mov    %eax,%edi
    f664:	e8 29 ce ff ff       	callq  c492 <safe_lshift_func_int16_t_s_s>
    f669:	be 06 00 00 00       	mov    $0x6,%esi
    f66e:	bf 00 00 00 00       	mov    $0x0,%edi
    f673:	e8 7d cd ff ff       	callq  c3f5 <safe_mul_func_int16_t_s_s>
    f678:	48 0f bf c0          	movswq %ax,%rax
    f67c:	48 8b b5 e0 f0 ff ff 	mov    -0xf20(%rbp),%rsi
    f683:	48 89 c7             	mov    %rax,%rdi
    f686:	e8 a3 d9 ff ff       	callq  d02e <safe_add_func_uint64_t_u_u>
    f68b:	0f be c0             	movsbl %al,%eax
    f68e:	44 89 f6             	mov    %r14d,%esi
    f691:	89 c7                	mov    %eax,%edi
    f693:	e8 5a cb ff ff       	callq  c1f2 <safe_sub_func_int8_t_s_s>
    f698:	0f be d0             	movsbl %al,%edx
    f69b:	48 8b 85 d8 f1 ff ff 	mov    -0xe28(%rbp),%rax
    f6a2:	8b 00                	mov    (%rax),%eax
    f6a4:	39 c2                	cmp    %eax,%edx
    f6a6:	0f 95 c0             	setne  %al
    f6a9:	0f b6 c0             	movzbl %al,%eax
    f6ac:	4c 89 ee             	mov    %r13,%rsi
    f6af:	48 89 c7             	mov    %rax,%rdi
    f6b2:	e8 8a d1 ff ff       	callq  c841 <safe_add_func_int64_t_s_s>
    f6b7:	44 89 e6             	mov    %r12d,%esi
    f6ba:	bf 38 00 00 00       	mov    $0x38,%edi
    f6bf:	e8 96 d4 ff ff       	callq  cb5a <safe_add_func_uint8_t_u_u>
    f6c4:	0f be c0             	movsbl %al,%eax
    f6c7:	89 de                	mov    %ebx,%esi
    f6c9:	89 c7                	mov    %eax,%edi
    f6cb:	e8 04 cb ff ff       	callq  c1d4 <safe_add_func_int8_t_s_s>
    f6d0:	84 c0                	test   %al,%al
    f6d2:	74 14                	je     f6e8 <func_1+0x1f33>
    f6d4:	48 8b 85 d8 f1 ff ff 	mov    -0xe28(%rbp),%rax
    f6db:	8b 00                	mov    (%rax),%eax
    f6dd:	85 c0                	test   %eax,%eax
    f6df:	74 07                	je     f6e8 <func_1+0x1f33>
    f6e1:	b8 01 00 00 00       	mov    $0x1,%eax
    f6e6:	eb 05                	jmp    f6ed <func_1+0x1f38>
    f6e8:	b8 00 00 00 00       	mov    $0x0,%eax
    f6ed:	3b 85 ec f0 ff ff    	cmp    -0xf14(%rbp),%eax
    f6f3:	0f 9d c0             	setge  %al
    f6f6:	0f b6 d0             	movzbl %al,%edx
    f6f9:	48 8b 85 d8 f1 ff ff 	mov    -0xe28(%rbp),%rax
    f700:	8b 00                	mov    (%rax),%eax
    f702:	31 c2                	xor    %eax,%edx
    f704:	48 8b 85 d8 f1 ff ff 	mov    -0xe28(%rbp),%rax
    f70b:	89 10                	mov    %edx,(%rax)
    f70d:	0f b6 05 6c 5a 01 00 	movzbl 0x15a6c(%rip),%eax        # 25180 <g_80>
    f714:	66 98                	cbtw   
    f716:	0f b7 c0             	movzwl %ax,%eax
    f719:	be 06 00 00 00       	mov    $0x6,%esi
    f71e:	89 c7                	mov    %eax,%edi
    f720:	e8 fa d5 ff ff       	callq  cd1f <safe_sub_func_uint16_t_u_u>
    f725:	88 05 55 5a 01 00    	mov    %al,0x15a55(%rip)        # 25180 <g_80>
    f72b:	0f b6 05 4e 5a 01 00 	movzbl 0x15a4e(%rip),%eax        # 25180 <g_80>
    f732:	3c e9                	cmp    $0xe9,%al
    f734:	0f 8d b7 f4 ff ff    	jge    ebf1 <func_1+0x143c>
    f73a:	48 8b 85 b0 f1 ff ff 	mov    -0xe50(%rbp),%rax
    f741:	8b 00                	mov    (%rax),%eax
    f743:	85 c0                	test   %eax,%eax
    f745:	8b 05 69 59 01 00    	mov    0x15969(%rip),%eax        # 250b4 <g_3+0x74>
    f74b:	0f b6 c0             	movzbl %al,%eax
    f74e:	be 01 00 00 00       	mov    $0x1,%esi
    f753:	89 c7                	mov    %eax,%edi
    f755:	e8 1e d4 ff ff       	callq  cb78 <safe_sub_func_uint8_t_u_u>
    f75a:	0f b6 c0             	movzbl %al,%eax
    f75d:	89 05 51 59 01 00    	mov    %eax,0x15951(%rip)        # 250b4 <g_3+0x74>
    f763:	8b 05 4b 59 01 00    	mov    0x1594b(%rip),%eax        # 250b4 <g_3+0x74>
    f769:	83 f8 e9             	cmp    $0xffffffe9,%eax
    f76c:	0f 8d e5 e1 ff ff    	jge    d957 <func_1+0x1a2>
    f772:	48 8b 85 a8 f3 ff ff 	mov    -0xc58(%rbp),%rax
    f779:	48 8b 5d c8          	mov    -0x38(%rbp),%rbx
    f77d:	64 48 33 1c 25 28 00 	xor    %fs:0x28,%rbx
    f784:	00 00 
    f786:	74 05                	je     f78d <func_1+0x1fd8>
    f788:	e8 e3 c8 ff ff       	callq  c070 <__stack_chk_fail@plt>
    f78d:	48 81 c4 08 0f 00 00 	add    $0xf08,%rsp
    f794:	5b                   	pop    %rbx
    f795:	41 5c                	pop    %r12
    f797:	41 5d                	pop    %r13
    f799:	41 5e                	pop    %r14
    f79b:	41 5f                	pop    %r15
    f79d:	5d                   	pop    %rbp
    f79e:	c3                   	retq   

000000000000f79f <func_19>:
    f79f:	f3 0f 1e fa          	endbr64 
    f7a3:	55                   	push   %rbp
    f7a4:	48 89 e5             	mov    %rsp,%rbp
    f7a7:	48 81 ec b0 07 00 00 	sub    $0x7b0,%rsp
    f7ae:	89 bd 6c f8 ff ff    	mov    %edi,-0x794(%rbp)
    f7b4:	89 b5 68 f8 ff ff    	mov    %esi,-0x798(%rbp)
    f7ba:	89 95 64 f8 ff ff    	mov    %edx,-0x79c(%rbp)
    f7c0:	89 c8                	mov    %ecx,%eax
    f7c2:	44 89 85 5c f8 ff ff 	mov    %r8d,-0x7a4(%rbp)
    f7c9:	66 89 85 60 f8 ff ff 	mov    %ax,-0x7a0(%rbp)
    f7d0:	64 48 8b 04 25 28 00 	mov    %fs:0x28,%rax
    f7d7:	00 00 
    f7d9:	48 89 45 f8          	mov    %rax,-0x8(%rbp)
    f7dd:	31 c0                	xor    %eax,%eax
    f7df:	48 b8 c6 32 6c 31 ff 	movabs $0x430796ff316c32c6,%rax
    f7e6:	96 07 43 
    f7e9:	48 89 85 98 f8 ff ff 	mov    %rax,-0x768(%rbp)
    f7f0:	48 8d 05 e1 8a 01 00 	lea    0x18ae1(%rip),%rax        # 282d8 <g_819>
    f7f7:	48 89 85 a0 f8 ff ff 	mov    %rax,-0x760(%rbp)
    f7fe:	48 c7 85 88 f8 ff ff 	movq   $0x0,-0x778(%rbp)
    f805:	00 00 00 00 
    f809:	48 8d 05 f0 5b 01 00 	lea    0x15bf0(%rip),%rax        # 25400 <g_1397>
    f810:	48 89 85 90 f8 ff ff 	mov    %rax,-0x770(%rbp)
    f817:	48 8d 85 90 f8 ff ff 	lea    -0x770(%rbp),%rax
    f81e:	48 89 85 80 fa ff ff 	mov    %rax,-0x580(%rbp)
    f825:	48 c7 85 88 fa ff ff 	movq   $0x0,-0x578(%rbp)
    f82c:	00 00 00 00 
    f830:	48 8d 85 90 f8 ff ff 	lea    -0x770(%rbp),%rax
    f837:	48 89 85 90 fa ff ff 	mov    %rax,-0x570(%rbp)
    f83e:	48 8d 85 90 f8 ff ff 	lea    -0x770(%rbp),%rax
    f845:	48 89 85 98 fa ff ff 	mov    %rax,-0x568(%rbp)
    f84c:	48 8d 85 90 f8 ff ff 	lea    -0x770(%rbp),%rax
    f853:	48 89 85 a0 fa ff ff 	mov    %rax,-0x560(%rbp)
    f85a:	48 8d 85 90 f8 ff ff 	lea    -0x770(%rbp),%rax
    f861:	48 89 85 a8 fa ff ff 	mov    %rax,-0x558(%rbp)
    f868:	48 8d 85 90 f8 ff ff 	lea    -0x770(%rbp),%rax
    f86f:	48 89 85 b0 fa ff ff 	mov    %rax,-0x550(%rbp)
    f876:	48 8d 85 90 f8 ff ff 	lea    -0x770(%rbp),%rax
    f87d:	48 89 85 b8 fa ff ff 	mov    %rax,-0x548(%rbp)
    f884:	48 8d 85 90 f8 ff ff 	lea    -0x770(%rbp),%rax
    f88b:	48 89 85 c0 fa ff ff 	mov    %rax,-0x540(%rbp)
    f892:	48 8d 85 90 f8 ff ff 	lea    -0x770(%rbp),%rax
    f899:	48 89 85 c8 fa ff ff 	mov    %rax,-0x538(%rbp)
    f8a0:	48 8d 85 90 f8 ff ff 	lea    -0x770(%rbp),%rax
    f8a7:	48 89 85 d0 fa ff ff 	mov    %rax,-0x530(%rbp)
    f8ae:	48 c7 85 d8 fa ff ff 	movq   $0x0,-0x528(%rbp)
    f8b5:	00 00 00 00 
    f8b9:	48 8d 85 90 f8 ff ff 	lea    -0x770(%rbp),%rax
    f8c0:	48 89 85 e0 fa ff ff 	mov    %rax,-0x520(%rbp)
    f8c7:	48 8d 85 90 f8 ff ff 	lea    -0x770(%rbp),%rax
    f8ce:	48 89 85 e8 fa ff ff 	mov    %rax,-0x518(%rbp)
    f8d5:	48 8d 85 90 f8 ff ff 	lea    -0x770(%rbp),%rax
    f8dc:	48 89 85 f0 fa ff ff 	mov    %rax,-0x510(%rbp)
    f8e3:	48 8d 85 90 f8 ff ff 	lea    -0x770(%rbp),%rax
    f8ea:	48 89 85 f8 fa ff ff 	mov    %rax,-0x508(%rbp)
    f8f1:	48 8d 85 90 f8 ff ff 	lea    -0x770(%rbp),%rax
    f8f8:	48 89 85 00 fb ff ff 	mov    %rax,-0x500(%rbp)
    f8ff:	48 8d 85 90 f8 ff ff 	lea    -0x770(%rbp),%rax
    f906:	48 89 85 08 fb ff ff 	mov    %rax,-0x4f8(%rbp)
    f90d:	48 8d 85 90 f8 ff ff 	lea    -0x770(%rbp),%rax
    f914:	48 89 85 10 fb ff ff 	mov    %rax,-0x4f0(%rbp)
    f91b:	48 8d 85 90 f8 ff ff 	lea    -0x770(%rbp),%rax
    f922:	48 89 85 18 fb ff ff 	mov    %rax,-0x4e8(%rbp)
    f929:	48 8d 85 90 f8 ff ff 	lea    -0x770(%rbp),%rax
    f930:	48 89 85 20 fb ff ff 	mov    %rax,-0x4e0(%rbp)
    f937:	48 c7 85 28 fb ff ff 	movq   $0x0,-0x4d8(%rbp)
    f93e:	00 00 00 00 
    f942:	48 8d 85 90 f8 ff ff 	lea    -0x770(%rbp),%rax
    f949:	48 89 85 30 fb ff ff 	mov    %rax,-0x4d0(%rbp)
    f950:	48 8d 85 90 f8 ff ff 	lea    -0x770(%rbp),%rax
    f957:	48 89 85 38 fb ff ff 	mov    %rax,-0x4c8(%rbp)
    f95e:	48 8d 85 90 f8 ff ff 	lea    -0x770(%rbp),%rax
    f965:	48 89 85 40 fb ff ff 	mov    %rax,-0x4c0(%rbp)
    f96c:	48 8d 85 90 f8 ff ff 	lea    -0x770(%rbp),%rax
    f973:	48 89 85 48 fb ff ff 	mov    %rax,-0x4b8(%rbp)
    f97a:	48 8d 85 90 f8 ff ff 	lea    -0x770(%rbp),%rax
    f981:	48 89 85 50 fb ff ff 	mov    %rax,-0x4b0(%rbp)
    f988:	48 8d 85 90 f8 ff ff 	lea    -0x770(%rbp),%rax
    f98f:	48 89 85 58 fb ff ff 	mov    %rax,-0x4a8(%rbp)
    f996:	48 8d 85 90 f8 ff ff 	lea    -0x770(%rbp),%rax
    f99d:	48 89 85 60 fb ff ff 	mov    %rax,-0x4a0(%rbp)
    f9a4:	48 8d 85 90 f8 ff ff 	lea    -0x770(%rbp),%rax
    f9ab:	48 89 85 68 fb ff ff 	mov    %rax,-0x498(%rbp)
    f9b2:	48 8d 85 90 f8 ff ff 	lea    -0x770(%rbp),%rax
    f9b9:	48 89 85 70 fb ff ff 	mov    %rax,-0x490(%rbp)
    f9c0:	48 c7 85 78 fb ff ff 	movq   $0x0,-0x488(%rbp)
    f9c7:	00 00 00 00 
    f9cb:	48 8d 85 90 f8 ff ff 	lea    -0x770(%rbp),%rax
    f9d2:	48 89 85 80 fb ff ff 	mov    %rax,-0x480(%rbp)
    f9d9:	48 8d 85 90 f8 ff ff 	lea    -0x770(%rbp),%rax
    f9e0:	48 89 85 88 fb ff ff 	mov    %rax,-0x478(%rbp)
    f9e7:	48 8d 85 90 f8 ff ff 	lea    -0x770(%rbp),%rax
    f9ee:	48 89 85 90 fb ff ff 	mov    %rax,-0x470(%rbp)
    f9f5:	48 8d 85 90 f8 ff ff 	lea    -0x770(%rbp),%rax
    f9fc:	48 89 85 98 fb ff ff 	mov    %rax,-0x468(%rbp)
    fa03:	48 8d 85 90 f8 ff ff 	lea    -0x770(%rbp),%rax
    fa0a:	48 89 85 a0 fb ff ff 	mov    %rax,-0x460(%rbp)
    fa11:	48 8d 85 90 f8 ff ff 	lea    -0x770(%rbp),%rax
    fa18:	48 89 85 a8 fb ff ff 	mov    %rax,-0x458(%rbp)
    fa1f:	48 8d 85 90 f8 ff ff 	lea    -0x770(%rbp),%rax
    fa26:	48 89 85 b0 fb ff ff 	mov    %rax,-0x450(%rbp)
    fa2d:	48 8d 85 90 f8 ff ff 	lea    -0x770(%rbp),%rax
    fa34:	48 89 85 b8 fb ff ff 	mov    %rax,-0x448(%rbp)
    fa3b:	48 8d 85 90 f8 ff ff 	lea    -0x770(%rbp),%rax
    fa42:	48 89 85 c0 fb ff ff 	mov    %rax,-0x440(%rbp)
    fa49:	48 c7 85 c8 fb ff ff 	movq   $0x0,-0x438(%rbp)
    fa50:	00 00 00 00 
    fa54:	48 8d 85 90 f8 ff ff 	lea    -0x770(%rbp),%rax
    fa5b:	48 89 85 d0 fb ff ff 	mov    %rax,-0x430(%rbp)
    fa62:	48 8d 85 90 f8 ff ff 	lea    -0x770(%rbp),%rax
    fa69:	48 89 85 d8 fb ff ff 	mov    %rax,-0x428(%rbp)
    fa70:	48 8d 85 90 f8 ff ff 	lea    -0x770(%rbp),%rax
    fa77:	48 89 85 e0 fb ff ff 	mov    %rax,-0x420(%rbp)
    fa7e:	48 8d 85 90 f8 ff ff 	lea    -0x770(%rbp),%rax
    fa85:	48 89 85 e8 fb ff ff 	mov    %rax,-0x418(%rbp)
    fa8c:	48 8d 85 90 f8 ff ff 	lea    -0x770(%rbp),%rax
    fa93:	48 89 85 f0 fb ff ff 	mov    %rax,-0x410(%rbp)
    fa9a:	48 8d 85 90 f8 ff ff 	lea    -0x770(%rbp),%rax
    faa1:	48 89 85 f8 fb ff ff 	mov    %rax,-0x408(%rbp)
    faa8:	48 8d 85 90 f8 ff ff 	lea    -0x770(%rbp),%rax
    faaf:	48 89 85 00 fc ff ff 	mov    %rax,-0x400(%rbp)
    fab6:	48 8d 85 90 f8 ff ff 	lea    -0x770(%rbp),%rax
    fabd:	48 89 85 08 fc ff ff 	mov    %rax,-0x3f8(%rbp)
    fac4:	48 8d 85 90 f8 ff ff 	lea    -0x770(%rbp),%rax
    facb:	48 89 85 10 fc ff ff 	mov    %rax,-0x3f0(%rbp)
    fad2:	48 c7 85 18 fc ff ff 	movq   $0x0,-0x3e8(%rbp)
    fad9:	00 00 00 00 
    fadd:	48 8d 85 90 f8 ff ff 	lea    -0x770(%rbp),%rax
    fae4:	48 89 85 20 fc ff ff 	mov    %rax,-0x3e0(%rbp)
    faeb:	48 8d 85 90 f8 ff ff 	lea    -0x770(%rbp),%rax
    faf2:	48 89 85 28 fc ff ff 	mov    %rax,-0x3d8(%rbp)
    faf9:	48 8d 85 90 f8 ff ff 	lea    -0x770(%rbp),%rax
    fb00:	48 89 85 30 fc ff ff 	mov    %rax,-0x3d0(%rbp)
    fb07:	48 8d 85 90 f8 ff ff 	lea    -0x770(%rbp),%rax
    fb0e:	48 89 85 38 fc ff ff 	mov    %rax,-0x3c8(%rbp)
    fb15:	48 8d 85 90 f8 ff ff 	lea    -0x770(%rbp),%rax
    fb1c:	48 89 85 40 fc ff ff 	mov    %rax,-0x3c0(%rbp)
    fb23:	48 8d 85 90 f8 ff ff 	lea    -0x770(%rbp),%rax
    fb2a:	48 89 85 48 fc ff ff 	mov    %rax,-0x3b8(%rbp)
    fb31:	48 8d 85 90 f8 ff ff 	lea    -0x770(%rbp),%rax
    fb38:	48 89 85 50 fc ff ff 	mov    %rax,-0x3b0(%rbp)
    fb3f:	48 8d 85 90 f8 ff ff 	lea    -0x770(%rbp),%rax
    fb46:	48 89 85 58 fc ff ff 	mov    %rax,-0x3a8(%rbp)
    fb4d:	48 8d 85 90 f8 ff ff 	lea    -0x770(%rbp),%rax
    fb54:	48 89 85 60 fc ff ff 	mov    %rax,-0x3a0(%rbp)
    fb5b:	48 c7 85 68 fc ff ff 	movq   $0x0,-0x398(%rbp)
    fb62:	00 00 00 00 
    fb66:	48 8d 85 90 f8 ff ff 	lea    -0x770(%rbp),%rax
    fb6d:	48 89 85 70 fc ff ff 	mov    %rax,-0x390(%rbp)
    fb74:	48 8d 85 90 f8 ff ff 	lea    -0x770(%rbp),%rax
    fb7b:	48 89 85 78 fc ff ff 	mov    %rax,-0x388(%rbp)
    fb82:	48 8d 85 90 f8 ff ff 	lea    -0x770(%rbp),%rax
    fb89:	48 89 85 80 fc ff ff 	mov    %rax,-0x380(%rbp)
    fb90:	48 8d 85 90 f8 ff ff 	lea    -0x770(%rbp),%rax
    fb97:	48 89 85 88 fc ff ff 	mov    %rax,-0x378(%rbp)
    fb9e:	48 8d 85 90 f8 ff ff 	lea    -0x770(%rbp),%rax
    fba5:	48 89 85 90 fc ff ff 	mov    %rax,-0x370(%rbp)
    fbac:	48 8d 85 90 f8 ff ff 	lea    -0x770(%rbp),%rax
    fbb3:	48 89 85 98 fc ff ff 	mov    %rax,-0x368(%rbp)
    fbba:	48 8d 85 90 f8 ff ff 	lea    -0x770(%rbp),%rax
    fbc1:	48 89 85 a0 fc ff ff 	mov    %rax,-0x360(%rbp)
    fbc8:	48 8d 85 90 f8 ff ff 	lea    -0x770(%rbp),%rax
    fbcf:	48 89 85 a8 fc ff ff 	mov    %rax,-0x358(%rbp)
    fbd6:	48 8d 85 90 f8 ff ff 	lea    -0x770(%rbp),%rax
    fbdd:	48 89 85 b0 fc ff ff 	mov    %rax,-0x350(%rbp)
    fbe4:	48 c7 85 b8 fc ff ff 	movq   $0x0,-0x348(%rbp)
    fbeb:	00 00 00 00 
    fbef:	48 8d 85 90 f8 ff ff 	lea    -0x770(%rbp),%rax
    fbf6:	48 89 85 c0 fc ff ff 	mov    %rax,-0x340(%rbp)
    fbfd:	48 8d 85 90 f8 ff ff 	lea    -0x770(%rbp),%rax
    fc04:	48 89 85 c8 fc ff ff 	mov    %rax,-0x338(%rbp)
    fc0b:	48 8d 85 90 f8 ff ff 	lea    -0x770(%rbp),%rax
    fc12:	48 89 85 d0 fc ff ff 	mov    %rax,-0x330(%rbp)
    fc19:	48 8d 85 90 f8 ff ff 	lea    -0x770(%rbp),%rax
    fc20:	48 89 85 d8 fc ff ff 	mov    %rax,-0x328(%rbp)
    fc27:	48 8d 85 90 f8 ff ff 	lea    -0x770(%rbp),%rax
    fc2e:	48 89 85 e0 fc ff ff 	mov    %rax,-0x320(%rbp)
    fc35:	48 8d 85 90 f8 ff ff 	lea    -0x770(%rbp),%rax
    fc3c:	48 89 85 e8 fc ff ff 	mov    %rax,-0x318(%rbp)
    fc43:	48 8d 85 90 f8 ff ff 	lea    -0x770(%rbp),%rax
    fc4a:	48 89 85 f0 fc ff ff 	mov    %rax,-0x310(%rbp)
    fc51:	48 8d 85 90 f8 ff ff 	lea    -0x770(%rbp),%rax
    fc58:	48 89 85 f8 fc ff ff 	mov    %rax,-0x308(%rbp)
    fc5f:	48 8d 85 90 f8 ff ff 	lea    -0x770(%rbp),%rax
    fc66:	48 89 85 00 fd ff ff 	mov    %rax,-0x300(%rbp)
    fc6d:	48 c7 85 08 fd ff ff 	movq   $0x0,-0x2f8(%rbp)
    fc74:	00 00 00 00 
    fc78:	48 8d 85 90 f8 ff ff 	lea    -0x770(%rbp),%rax
    fc7f:	48 89 85 10 fd ff ff 	mov    %rax,-0x2f0(%rbp)
    fc86:	48 8d 85 90 f8 ff ff 	lea    -0x770(%rbp),%rax
    fc8d:	48 89 85 18 fd ff ff 	mov    %rax,-0x2e8(%rbp)
    fc94:	48 8d 85 90 f8 ff ff 	lea    -0x770(%rbp),%rax
    fc9b:	48 89 85 20 fd ff ff 	mov    %rax,-0x2e0(%rbp)
    fca2:	48 8d 85 90 f8 ff ff 	lea    -0x770(%rbp),%rax
    fca9:	48 89 85 28 fd ff ff 	mov    %rax,-0x2d8(%rbp)
    fcb0:	48 8d 85 90 f8 ff ff 	lea    -0x770(%rbp),%rax
    fcb7:	48 89 85 30 fd ff ff 	mov    %rax,-0x2d0(%rbp)
    fcbe:	48 8d 85 90 f8 ff ff 	lea    -0x770(%rbp),%rax
    fcc5:	48 89 85 38 fd ff ff 	mov    %rax,-0x2c8(%rbp)
    fccc:	48 8d 85 90 f8 ff ff 	lea    -0x770(%rbp),%rax
    fcd3:	48 89 85 40 fd ff ff 	mov    %rax,-0x2c0(%rbp)
    fcda:	48 8d 85 90 f8 ff ff 	lea    -0x770(%rbp),%rax
    fce1:	48 89 85 48 fd ff ff 	mov    %rax,-0x2b8(%rbp)
    fce8:	48 8d 85 90 f8 ff ff 	lea    -0x770(%rbp),%rax
    fcef:	48 89 85 50 fd ff ff 	mov    %rax,-0x2b0(%rbp)
    fcf6:	48 c7 85 58 fd ff ff 	movq   $0x0,-0x2a8(%rbp)
    fcfd:	00 00 00 00 
    fd01:	48 8d 85 90 f8 ff ff 	lea    -0x770(%rbp),%rax
    fd08:	48 89 85 60 fd ff ff 	mov    %rax,-0x2a0(%rbp)
    fd0f:	48 8d 85 90 f8 ff ff 	lea    -0x770(%rbp),%rax
    fd16:	48 89 85 68 fd ff ff 	mov    %rax,-0x298(%rbp)
    fd1d:	48 8d 85 90 f8 ff ff 	lea    -0x770(%rbp),%rax
    fd24:	48 89 85 70 fd ff ff 	mov    %rax,-0x290(%rbp)
    fd2b:	48 8d 85 90 f8 ff ff 	lea    -0x770(%rbp),%rax
    fd32:	48 89 85 78 fd ff ff 	mov    %rax,-0x288(%rbp)
    fd39:	48 8d 85 90 f8 ff ff 	lea    -0x770(%rbp),%rax
    fd40:	48 89 85 80 fd ff ff 	mov    %rax,-0x280(%rbp)
    fd47:	48 8d 85 90 f8 ff ff 	lea    -0x770(%rbp),%rax
    fd4e:	48 89 85 88 fd ff ff 	mov    %rax,-0x278(%rbp)
    fd55:	48 8d 85 90 f8 ff ff 	lea    -0x770(%rbp),%rax
    fd5c:	48 89 85 90 fd ff ff 	mov    %rax,-0x270(%rbp)
    fd63:	48 8d 85 90 f8 ff ff 	lea    -0x770(%rbp),%rax
    fd6a:	48 89 85 98 fd ff ff 	mov    %rax,-0x268(%rbp)
    fd71:	48 8d 85 90 f8 ff ff 	lea    -0x770(%rbp),%rax
    fd78:	48 89 85 a0 fd ff ff 	mov    %rax,-0x260(%rbp)
    fd7f:	48 c7 85 a8 fd ff ff 	movq   $0x0,-0x258(%rbp)
    fd86:	00 00 00 00 
    fd8a:	48 8d 85 90 f8 ff ff 	lea    -0x770(%rbp),%rax
    fd91:	48 89 85 b0 fd ff ff 	mov    %rax,-0x250(%rbp)
    fd98:	48 8d 85 90 f8 ff ff 	lea    -0x770(%rbp),%rax
    fd9f:	48 89 85 b8 fd ff ff 	mov    %rax,-0x248(%rbp)
    fda6:	48 8d 85 90 f8 ff ff 	lea    -0x770(%rbp),%rax
    fdad:	48 89 85 c0 fd ff ff 	mov    %rax,-0x240(%rbp)
    fdb4:	48 8d 85 90 f8 ff ff 	lea    -0x770(%rbp),%rax
    fdbb:	48 89 85 c8 fd ff ff 	mov    %rax,-0x238(%rbp)
    fdc2:	48 8d 85 90 f8 ff ff 	lea    -0x770(%rbp),%rax
    fdc9:	48 89 85 d0 fd ff ff 	mov    %rax,-0x230(%rbp)
    fdd0:	48 8d 85 90 f8 ff ff 	lea    -0x770(%rbp),%rax
    fdd7:	48 89 85 d8 fd ff ff 	mov    %rax,-0x228(%rbp)
    fdde:	48 8d 85 90 f8 ff ff 	lea    -0x770(%rbp),%rax
    fde5:	48 89 85 e0 fd ff ff 	mov    %rax,-0x220(%rbp)
    fdec:	48 8d 85 90 f8 ff ff 	lea    -0x770(%rbp),%rax
    fdf3:	48 89 85 e8 fd ff ff 	mov    %rax,-0x218(%rbp)
    fdfa:	48 8d 85 90 f8 ff ff 	lea    -0x770(%rbp),%rax
    fe01:	48 89 85 f0 fd ff ff 	mov    %rax,-0x210(%rbp)
    fe08:	48 c7 85 f8 fd ff ff 	movq   $0x0,-0x208(%rbp)
    fe0f:	00 00 00 00 
    fe13:	48 8d 85 90 f8 ff ff 	lea    -0x770(%rbp),%rax
    fe1a:	48 89 85 00 fe ff ff 	mov    %rax,-0x200(%rbp)
    fe21:	48 8d 85 90 f8 ff ff 	lea    -0x770(%rbp),%rax
    fe28:	48 89 85 08 fe ff ff 	mov    %rax,-0x1f8(%rbp)
    fe2f:	48 8d 85 90 f8 ff ff 	lea    -0x770(%rbp),%rax
    fe36:	48 89 85 10 fe ff ff 	mov    %rax,-0x1f0(%rbp)
    fe3d:	48 8d 85 90 f8 ff ff 	lea    -0x770(%rbp),%rax
    fe44:	48 89 85 18 fe ff ff 	mov    %rax,-0x1e8(%rbp)
    fe4b:	48 8d 85 90 f8 ff ff 	lea    -0x770(%rbp),%rax
    fe52:	48 89 85 20 fe ff ff 	mov    %rax,-0x1e0(%rbp)
    fe59:	48 8d 85 90 f8 ff ff 	lea    -0x770(%rbp),%rax
    fe60:	48 89 85 28 fe ff ff 	mov    %rax,-0x1d8(%rbp)
    fe67:	48 8d 85 90 f8 ff ff 	lea    -0x770(%rbp),%rax
    fe6e:	48 89 85 30 fe ff ff 	mov    %rax,-0x1d0(%rbp)
    fe75:	48 8d 85 90 f8 ff ff 	lea    -0x770(%rbp),%rax
    fe7c:	48 89 85 38 fe ff ff 	mov    %rax,-0x1c8(%rbp)
    fe83:	48 8d 85 90 f8 ff ff 	lea    -0x770(%rbp),%rax
    fe8a:	48 89 85 40 fe ff ff 	mov    %rax,-0x1c0(%rbp)
    fe91:	48 c7 85 48 fe ff ff 	movq   $0x0,-0x1b8(%rbp)
    fe98:	00 00 00 00 
    fe9c:	48 8d 85 90 f8 ff ff 	lea    -0x770(%rbp),%rax
    fea3:	48 89 85 50 fe ff ff 	mov    %rax,-0x1b0(%rbp)
    feaa:	48 8d 85 90 f8 ff ff 	lea    -0x770(%rbp),%rax
    feb1:	48 89 85 58 fe ff ff 	mov    %rax,-0x1a8(%rbp)
    feb8:	48 8d 85 90 f8 ff ff 	lea    -0x770(%rbp),%rax
    febf:	48 89 85 60 fe ff ff 	mov    %rax,-0x1a0(%rbp)
    fec6:	48 8d 85 90 f8 ff ff 	lea    -0x770(%rbp),%rax
    fecd:	48 89 85 68 fe ff ff 	mov    %rax,-0x198(%rbp)
    fed4:	48 8d 85 90 f8 ff ff 	lea    -0x770(%rbp),%rax
    fedb:	48 89 85 70 fe ff ff 	mov    %rax,-0x190(%rbp)
    fee2:	48 8d 85 90 f8 ff ff 	lea    -0x770(%rbp),%rax
    fee9:	48 89 85 78 fe ff ff 	mov    %rax,-0x188(%rbp)
    fef0:	48 8d 85 90 f8 ff ff 	lea    -0x770(%rbp),%rax
    fef7:	48 89 85 80 fe ff ff 	mov    %rax,-0x180(%rbp)
    fefe:	48 8d 85 90 f8 ff ff 	lea    -0x770(%rbp),%rax
    ff05:	48 89 85 88 fe ff ff 	mov    %rax,-0x178(%rbp)
    ff0c:	48 8d 85 90 f8 ff ff 	lea    -0x770(%rbp),%rax
    ff13:	48 89 85 90 fe ff ff 	mov    %rax,-0x170(%rbp)
    ff1a:	48 c7 85 98 fe ff ff 	movq   $0x0,-0x168(%rbp)
    ff21:	00 00 00 00 
    ff25:	48 8d 85 90 f8 ff ff 	lea    -0x770(%rbp),%rax
    ff2c:	48 89 85 a0 fe ff ff 	mov    %rax,-0x160(%rbp)
    ff33:	48 8d 85 90 f8 ff ff 	lea    -0x770(%rbp),%rax
    ff3a:	48 89 85 a8 fe ff ff 	mov    %rax,-0x158(%rbp)
    ff41:	48 8d 85 90 f8 ff ff 	lea    -0x770(%rbp),%rax
    ff48:	48 89 85 b0 fe ff ff 	mov    %rax,-0x150(%rbp)
    ff4f:	48 8d 85 90 f8 ff ff 	lea    -0x770(%rbp),%rax
    ff56:	48 89 85 b8 fe ff ff 	mov    %rax,-0x148(%rbp)
    ff5d:	48 8d 85 90 f8 ff ff 	lea    -0x770(%rbp),%rax
    ff64:	48 89 85 c0 fe ff ff 	mov    %rax,-0x140(%rbp)
    ff6b:	48 8d 85 90 f8 ff ff 	lea    -0x770(%rbp),%rax
    ff72:	48 89 85 c8 fe ff ff 	mov    %rax,-0x138(%rbp)
    ff79:	48 8d 85 90 f8 ff ff 	lea    -0x770(%rbp),%rax
    ff80:	48 89 85 d0 fe ff ff 	mov    %rax,-0x130(%rbp)
    ff87:	48 8d 85 90 f8 ff ff 	lea    -0x770(%rbp),%rax
    ff8e:	48 89 85 d8 fe ff ff 	mov    %rax,-0x128(%rbp)
    ff95:	48 8d 85 90 f8 ff ff 	lea    -0x770(%rbp),%rax
    ff9c:	48 89 85 e0 fe ff ff 	mov    %rax,-0x120(%rbp)
    ffa3:	48 c7 85 e8 fe ff ff 	movq   $0x0,-0x118(%rbp)
    ffaa:	00 00 00 00 
    ffae:	48 8d 85 90 f8 ff ff 	lea    -0x770(%rbp),%rax
    ffb5:	48 89 85 f0 fe ff ff 	mov    %rax,-0x110(%rbp)
    ffbc:	48 8d 85 90 f8 ff ff 	lea    -0x770(%rbp),%rax
    ffc3:	48 89 85 f8 fe ff ff 	mov    %rax,-0x108(%rbp)
    ffca:	48 8d 85 90 f8 ff ff 	lea    -0x770(%rbp),%rax
    ffd1:	48 89 85 00 ff ff ff 	mov    %rax,-0x100(%rbp)
    ffd8:	48 8d 85 90 f8 ff ff 	lea    -0x770(%rbp),%rax
    ffdf:	48 89 85 08 ff ff ff 	mov    %rax,-0xf8(%rbp)
    ffe6:	48 8d 85 90 f8 ff ff 	lea    -0x770(%rbp),%rax
    ffed:	48 89 85 10 ff ff ff 	mov    %rax,-0xf0(%rbp)
    fff4:	48 8d 85 90 f8 ff ff 	lea    -0x770(%rbp),%rax
    fffb:	48 89 85 18 ff ff ff 	mov    %rax,-0xe8(%rbp)
   10002:	48 8d 85 90 f8 ff ff 	lea    -0x770(%rbp),%rax
   10009:	48 89 85 20 ff ff ff 	mov    %rax,-0xe0(%rbp)
   10010:	48 8d 85 90 f8 ff ff 	lea    -0x770(%rbp),%rax
   10017:	48 89 85 28 ff ff ff 	mov    %rax,-0xd8(%rbp)
   1001e:	48 8d 85 90 f8 ff ff 	lea    -0x770(%rbp),%rax
   10025:	48 89 85 30 ff ff ff 	mov    %rax,-0xd0(%rbp)
   1002c:	48 8d 85 90 f8 ff ff 	lea    -0x770(%rbp),%rax
   10033:	48 89 85 38 ff ff ff 	mov    %rax,-0xc8(%rbp)
   1003a:	48 8d 85 90 f8 ff ff 	lea    -0x770(%rbp),%rax
   10041:	48 89 85 40 ff ff ff 	mov    %rax,-0xc0(%rbp)
   10048:	48 8d 85 90 f8 ff ff 	lea    -0x770(%rbp),%rax
   1004f:	48 89 85 48 ff ff ff 	mov    %rax,-0xb8(%rbp)
   10056:	48 8d 85 90 f8 ff ff 	lea    -0x770(%rbp),%rax
   1005d:	48 89 85 50 ff ff ff 	mov    %rax,-0xb0(%rbp)
   10064:	48 8d 85 90 f8 ff ff 	lea    -0x770(%rbp),%rax
   1006b:	48 89 85 58 ff ff ff 	mov    %rax,-0xa8(%rbp)
   10072:	48 8d 85 90 f8 ff ff 	lea    -0x770(%rbp),%rax
   10079:	48 89 85 60 ff ff ff 	mov    %rax,-0xa0(%rbp)
   10080:	48 8d 85 90 f8 ff ff 	lea    -0x770(%rbp),%rax
   10087:	48 89 85 68 ff ff ff 	mov    %rax,-0x98(%rbp)
   1008e:	48 8d 85 90 f8 ff ff 	lea    -0x770(%rbp),%rax
   10095:	48 89 85 70 ff ff ff 	mov    %rax,-0x90(%rbp)
   1009c:	48 8d 85 90 f8 ff ff 	lea    -0x770(%rbp),%rax
   100a3:	48 89 85 78 ff ff ff 	mov    %rax,-0x88(%rbp)
   100aa:	48 8d 85 90 f8 ff ff 	lea    -0x770(%rbp),%rax
   100b1:	48 89 45 80          	mov    %rax,-0x80(%rbp)
   100b5:	48 8d 85 90 f8 ff ff 	lea    -0x770(%rbp),%rax
   100bc:	48 89 45 88          	mov    %rax,-0x78(%rbp)
   100c0:	48 8d 85 90 f8 ff ff 	lea    -0x770(%rbp),%rax
   100c7:	48 89 45 90          	mov    %rax,-0x70(%rbp)
   100cb:	48 8d 85 90 f8 ff ff 	lea    -0x770(%rbp),%rax
   100d2:	48 89 45 98          	mov    %rax,-0x68(%rbp)
   100d6:	48 8d 85 90 f8 ff ff 	lea    -0x770(%rbp),%rax
   100dd:	48 89 45 a0          	mov    %rax,-0x60(%rbp)
   100e1:	48 8d 85 90 f8 ff ff 	lea    -0x770(%rbp),%rax
   100e8:	48 89 45 a8          	mov    %rax,-0x58(%rbp)
   100ec:	48 8d 85 90 f8 ff ff 	lea    -0x770(%rbp),%rax
   100f3:	48 89 45 b0          	mov    %rax,-0x50(%rbp)
   100f7:	48 8d 85 90 f8 ff ff 	lea    -0x770(%rbp),%rax
   100fe:	48 89 45 b8          	mov    %rax,-0x48(%rbp)
   10102:	48 8d 85 90 f8 ff ff 	lea    -0x770(%rbp),%rax
   10109:	48 89 45 c0          	mov    %rax,-0x40(%rbp)
   1010d:	48 8d 85 90 f8 ff ff 	lea    -0x770(%rbp),%rax
   10114:	48 89 45 c8          	mov    %rax,-0x38(%rbp)
   10118:	48 8d 85 90 f8 ff ff 	lea    -0x770(%rbp),%rax
   1011f:	48 89 45 d0          	mov    %rax,-0x30(%rbp)
   10123:	48 8d 85 90 f8 ff ff 	lea    -0x770(%rbp),%rax
   1012a:	48 89 45 d8          	mov    %rax,-0x28(%rbp)
   1012e:	48 8d 85 90 f8 ff ff 	lea    -0x770(%rbp),%rax
   10135:	48 89 45 e0          	mov    %rax,-0x20(%rbp)
   10139:	48 8d 85 90 f8 ff ff 	lea    -0x770(%rbp),%rax
   10140:	48 89 45 e8          	mov    %rax,-0x18(%rbp)
   10144:	48 8d 85 90 f8 ff ff 	lea    -0x770(%rbp),%rax
   1014b:	48 89 45 f0          	mov    %rax,-0x10(%rbp)
   1014f:	c7 85 00 f9 ff ff 93 	movl   $0x48756993,-0x700(%rbp)
   10156:	69 75 48 
   10159:	c7 85 04 f9 ff ff 93 	movl   $0x48756993,-0x6fc(%rbp)
   10160:	69 75 48 
   10163:	c7 85 08 f9 ff ff 93 	movl   $0x48756993,-0x6f8(%rbp)
   1016a:	69 75 48 
   1016d:	c7 85 0c f9 ff ff 93 	movl   $0x48756993,-0x6f4(%rbp)
   10174:	69 75 48 
   10177:	c7 85 10 f9 ff ff 93 	movl   $0x48756993,-0x6f0(%rbp)
   1017e:	69 75 48 
   10181:	c7 85 14 f9 ff ff 93 	movl   $0x48756993,-0x6ec(%rbp)
   10188:	69 75 48 
   1018b:	48 8d 05 36 98 01 00 	lea    0x19836(%rip),%rax        # 299c8 <g_687>
   10192:	48 89 85 a8 f8 ff ff 	mov    %rax,-0x758(%rbp)
   10199:	48 8d 05 28 51 01 00 	lea    0x15128(%rip),%rax        # 252c8 <g_841>
   101a0:	48 89 85 b0 f8 ff ff 	mov    %rax,-0x750(%rbp)
   101a7:	66 c7 85 74 f8 ff ff 	movw   $0xfc0e,-0x78c(%rbp)
   101ae:	0e fc 
   101b0:	48 c7 85 b8 f8 ff ff 	movq   $0x0,-0x748(%rbp)
   101b7:	00 00 00 00 
   101bb:	48 8d 05 be 4f 01 00 	lea    0x14fbe(%rip),%rax        # 25180 <g_80>
   101c2:	48 89 85 c0 f8 ff ff 	mov    %rax,-0x740(%rbp)
   101c9:	48 8d 05 10 82 01 00 	lea    0x18210(%rip),%rax        # 283e0 <g_1378>
   101d0:	48 89 85 40 f9 ff ff 	mov    %rax,-0x6c0(%rbp)
   101d7:	48 8d 85 88 f8 ff ff 	lea    -0x778(%rbp),%rax
   101de:	48 89 85 48 f9 ff ff 	mov    %rax,-0x6b8(%rbp)
   101e5:	48 8d 85 88 f8 ff ff 	lea    -0x778(%rbp),%rax
   101ec:	48 89 85 50 f9 ff ff 	mov    %rax,-0x6b0(%rbp)
   101f3:	48 8d 05 e6 81 01 00 	lea    0x181e6(%rip),%rax        # 283e0 <g_1378>
   101fa:	48 89 85 58 f9 ff ff 	mov    %rax,-0x6a8(%rbp)
   10201:	48 8d 05 d8 81 01 00 	lea    0x181d8(%rip),%rax        # 283e0 <g_1378>
   10208:	48 89 85 60 f9 ff ff 	mov    %rax,-0x6a0(%rbp)
   1020f:	48 8d 85 88 f8 ff ff 	lea    -0x778(%rbp),%rax
   10216:	48 89 85 68 f9 ff ff 	mov    %rax,-0x698(%rbp)
   1021d:	48 8d 85 88 f8 ff ff 	lea    -0x778(%rbp),%rax
   10224:	48 89 85 70 f9 ff ff 	mov    %rax,-0x690(%rbp)
   1022b:	48 8d 05 ae 81 01 00 	lea    0x181ae(%rip),%rax        # 283e0 <g_1378>
   10232:	48 89 85 78 f9 ff ff 	mov    %rax,-0x688(%rbp)
   10239:	48 8d 05 a0 81 01 00 	lea    0x181a0(%rip),%rax        # 283e0 <g_1378>
   10240:	48 89 85 80 f9 ff ff 	mov    %rax,-0x680(%rbp)
   10247:	48 8d 85 88 f8 ff ff 	lea    -0x778(%rbp),%rax
   1024e:	48 89 85 88 f9 ff ff 	mov    %rax,-0x678(%rbp)
   10255:	48 8d 05 84 81 01 00 	lea    0x18184(%rip),%rax        # 283e0 <g_1378>
   1025c:	48 89 85 90 f9 ff ff 	mov    %rax,-0x670(%rbp)
   10263:	48 8d 85 88 f8 ff ff 	lea    -0x778(%rbp),%rax
   1026a:	48 89 85 98 f9 ff ff 	mov    %rax,-0x668(%rbp)
   10271:	48 8d 05 68 81 01 00 	lea    0x18168(%rip),%rax        # 283e0 <g_1378>
   10278:	48 89 85 a0 f9 ff ff 	mov    %rax,-0x660(%rbp)
   1027f:	48 8d 85 88 f8 ff ff 	lea    -0x778(%rbp),%rax
   10286:	48 89 85 a8 f9 ff ff 	mov    %rax,-0x658(%rbp)
   1028d:	48 8d 05 4c 81 01 00 	lea    0x1814c(%rip),%rax        # 283e0 <g_1378>
   10294:	48 89 85 b0 f9 ff ff 	mov    %rax,-0x650(%rbp)
   1029b:	48 8d 85 88 f8 ff ff 	lea    -0x778(%rbp),%rax
   102a2:	48 89 85 b8 f9 ff ff 	mov    %rax,-0x648(%rbp)
   102a9:	48 8d 05 30 81 01 00 	lea    0x18130(%rip),%rax        # 283e0 <g_1378>
   102b0:	48 89 85 c0 f9 ff ff 	mov    %rax,-0x640(%rbp)
   102b7:	48 8d 05 22 81 01 00 	lea    0x18122(%rip),%rax        # 283e0 <g_1378>
   102be:	48 89 85 c8 f9 ff ff 	mov    %rax,-0x638(%rbp)
   102c5:	48 8d 05 14 81 01 00 	lea    0x18114(%rip),%rax        # 283e0 <g_1378>
   102cc:	48 89 85 d0 f9 ff ff 	mov    %rax,-0x630(%rbp)
   102d3:	48 8d 05 06 81 01 00 	lea    0x18106(%rip),%rax        # 283e0 <g_1378>
   102da:	48 89 85 d8 f9 ff ff 	mov    %rax,-0x628(%rbp)
   102e1:	48 8d 05 f8 80 01 00 	lea    0x180f8(%rip),%rax        # 283e0 <g_1378>
   102e8:	48 89 85 e0 f9 ff ff 	mov    %rax,-0x620(%rbp)
   102ef:	48 8d 05 ea 80 01 00 	lea    0x180ea(%rip),%rax        # 283e0 <g_1378>
   102f6:	48 89 85 e8 f9 ff ff 	mov    %rax,-0x618(%rbp)
   102fd:	48 8d 05 dc 80 01 00 	lea    0x180dc(%rip),%rax        # 283e0 <g_1378>
   10304:	48 89 85 f0 f9 ff ff 	mov    %rax,-0x610(%rbp)
   1030b:	48 8d 05 ce 80 01 00 	lea    0x180ce(%rip),%rax        # 283e0 <g_1378>
   10312:	48 89 85 f8 f9 ff ff 	mov    %rax,-0x608(%rbp)
   10319:	48 c7 85 00 fa ff ff 	movq   $0x0,-0x600(%rbp)
   10320:	00 00 00 00 
   10324:	48 8d 85 88 f8 ff ff 	lea    -0x778(%rbp),%rax
   1032b:	48 89 85 08 fa ff ff 	mov    %rax,-0x5f8(%rbp)
   10332:	48 c7 85 10 fa ff ff 	movq   $0x0,-0x5f0(%rbp)
   10339:	00 00 00 00 
   1033d:	48 8d 85 88 f8 ff ff 	lea    -0x778(%rbp),%rax
   10344:	48 89 85 18 fa ff ff 	mov    %rax,-0x5e8(%rbp)
   1034b:	48 8d 05 8e 80 01 00 	lea    0x1808e(%rip),%rax        # 283e0 <g_1378>
   10352:	48 89 85 20 fa ff ff 	mov    %rax,-0x5e0(%rbp)
   10359:	48 8d 05 80 80 01 00 	lea    0x18080(%rip),%rax        # 283e0 <g_1378>
   10360:	48 89 85 28 fa ff ff 	mov    %rax,-0x5d8(%rbp)
   10367:	48 8d 05 72 80 01 00 	lea    0x18072(%rip),%rax        # 283e0 <g_1378>
   1036e:	48 89 85 30 fa ff ff 	mov    %rax,-0x5d0(%rbp)
   10375:	48 c7 85 38 fa ff ff 	movq   $0x0,-0x5c8(%rbp)
   1037c:	00 00 00 00 
   10380:	48 8d 05 59 80 01 00 	lea    0x18059(%rip),%rax        # 283e0 <g_1378>
   10387:	48 89 85 40 fa ff ff 	mov    %rax,-0x5c0(%rbp)
   1038e:	48 8d 05 4b 80 01 00 	lea    0x1804b(%rip),%rax        # 283e0 <g_1378>
   10395:	48 89 85 48 fa ff ff 	mov    %rax,-0x5b8(%rbp)
   1039c:	48 8d 05 3d 80 01 00 	lea    0x1803d(%rip),%rax        # 283e0 <g_1378>
   103a3:	48 89 85 50 fa ff ff 	mov    %rax,-0x5b0(%rbp)
   103aa:	48 8d 85 88 f8 ff ff 	lea    -0x778(%rbp),%rax
   103b1:	48 89 85 58 fa ff ff 	mov    %rax,-0x5a8(%rbp)
   103b8:	48 c7 85 60 fa ff ff 	movq   $0x0,-0x5a0(%rbp)
   103bf:	00 00 00 00 
   103c3:	48 8d 85 88 f8 ff ff 	lea    -0x778(%rbp),%rax
   103ca:	48 89 85 68 fa ff ff 	mov    %rax,-0x598(%rbp)
   103d1:	48 8d 85 88 f8 ff ff 	lea    -0x778(%rbp),%rax
   103d8:	48 89 85 70 fa ff ff 	mov    %rax,-0x590(%rbp)
   103df:	48 8d 05 fa 7f 01 00 	lea    0x17ffa(%rip),%rax        # 283e0 <g_1378>
   103e6:	48 89 85 78 fa ff ff 	mov    %rax,-0x588(%rbp)
   103ed:	66 c7 85 76 f8 ff ff 	movw   $0xffff,-0x78a(%rbp)
   103f4:	ff ff 
   103f6:	c7 85 80 f8 ff ff 03 	movl   $0x3,-0x780(%rbp)
   103fd:	00 00 00 
   10400:	66 c7 85 78 f8 ff ff 	movw   $0x2,-0x788(%rbp)
   10407:	02 00 
   10409:	c7 85 84 f8 ff ff ff 	movl   $0xffffffff,-0x77c(%rbp)
   10410:	ff ff ff 
   10413:	48 8d 85 40 f9 ff ff 	lea    -0x6c0(%rbp),%rax
   1041a:	48 05 30 01 00 00    	add    $0x130,%rax
   10420:	48 89 85 c8 f8 ff ff 	mov    %rax,-0x738(%rbp)
   10427:	66 c7 85 7a f8 ff ff 	movw   $0x0,-0x786(%rbp)
   1042e:	00 00 
   10430:	c7 85 7c f8 ff ff 00 	movl   $0x0,-0x784(%rbp)
   10437:	00 00 00 
   1043a:	eb 1a                	jmp    10456 <func_19+0xcb7>
   1043c:	8b 85 7c f8 ff ff    	mov    -0x784(%rbp),%eax
   10442:	48 98                	cltq   
   10444:	c7 84 85 d4 f8 ff ff 	movl   $0x7d0102aa,-0x72c(%rbp,%rax,4)
   1044b:	aa 02 01 7d 
   1044f:	83 85 7c f8 ff ff 01 	addl   $0x1,-0x784(%rbp)
   10456:	83 bd 7c f8 ff ff 02 	cmpl   $0x2,-0x784(%rbp)
   1045d:	7e dd                	jle    1043c <func_19+0xc9d>
   1045f:	c7 85 7c f8 ff ff 00 	movl   $0x0,-0x784(%rbp)
   10466:	00 00 00 
   10469:	eb 1e                	jmp    10489 <func_19+0xcea>
   1046b:	8b 85 7c f8 ff ff    	mov    -0x784(%rbp),%eax
   10471:	48 98                	cltq   
   10473:	48 8d 15 5e 7f 01 00 	lea    0x17f5e(%rip),%rdx        # 283d8 <g_1210>
   1047a:	48 89 94 c5 e0 f8 ff 	mov    %rdx,-0x720(%rbp,%rax,8)
   10481:	ff 
   10482:	83 85 7c f8 ff ff 01 	addl   $0x1,-0x784(%rbp)
   10489:	83 bd 7c f8 ff ff 02 	cmpl   $0x2,-0x784(%rbp)
   10490:	7e d9                	jle    1046b <func_19+0xccc>
   10492:	c7 85 7c f8 ff ff 00 	movl   $0x0,-0x784(%rbp)
   10499:	00 00 00 
   1049c:	eb 1a                	jmp    104b8 <func_19+0xd19>
   1049e:	8b 85 7c f8 ff ff    	mov    -0x784(%rbp),%eax
   104a4:	48 98                	cltq   
   104a6:	c7 84 85 20 f9 ff ff 	movl   $0x0,-0x6e0(%rbp,%rax,4)
   104ad:	00 00 00 00 
   104b1:	83 85 7c f8 ff ff 01 	addl   $0x1,-0x784(%rbp)
   104b8:	83 bd 7c f8 ff ff 05 	cmpl   $0x5,-0x784(%rbp)
   104bf:	7e dd                	jle    1049e <func_19+0xcff>
   104c1:	48 8b 85 98 f8 ff ff 	mov    -0x768(%rbp),%rax
   104c8:	89 05 ee 4f 01 00    	mov    %eax,0x14fee(%rip)        # 254bc <g_2024>
   104ce:	8b 85 64 f8 ff ff    	mov    -0x79c(%rbp),%eax
   104d4:	48 8b 4d f8          	mov    -0x8(%rbp),%rcx
   104d8:	64 48 33 0c 25 28 00 	xor    %fs:0x28,%rcx
   104df:	00 00 
   104e1:	74 05                	je     104e8 <func_19+0xd49>
   104e3:	e8 88 bb ff ff       	callq  c070 <__stack_chk_fail@plt>
   104e8:	c9                   	leaveq 
   104e9:	c3                   	retq   

00000000000104ea <func_27>:
   104ea:	f3 0f 1e fa          	endbr64 
   104ee:	55                   	push   %rbp
   104ef:	48 89 e5             	mov    %rsp,%rbp
   104f2:	48 81 ec 40 05 00 00 	sub    $0x540,%rsp
   104f9:	89 bd cc fa ff ff    	mov    %edi,-0x534(%rbp)
   104ff:	89 b5 c8 fa ff ff    	mov    %esi,-0x538(%rbp)
   10505:	64 48 8b 04 25 28 00 	mov    %fs:0x28,%rax
   1050c:	00 00 
   1050e:	48 89 45 f8          	mov    %rax,-0x8(%rbp)
   10512:	31 c0                	xor    %eax,%eax
   10514:	66 c7 85 10 fc ff ff 	movw   $0x5,-0x3f0(%rbp)
   1051b:	05 00 
   1051d:	66 c7 85 12 fc ff ff 	movw   $0xf60,-0x3ee(%rbp)
   10524:	60 0f 
   10526:	66 c7 85 14 fc ff ff 	movw   $0x5,-0x3ec(%rbp)
   1052d:	05 00 
   1052f:	66 c7 85 16 fc ff ff 	movw   $0x1446,-0x3ea(%rbp)
   10536:	46 14 
   10538:	66 c7 85 18 fc ff ff 	movw   $0xf60,-0x3e8(%rbp)
   1053f:	60 0f 
   10541:	66 c7 85 1a fc ff ff 	movw   $0x758a,-0x3e6(%rbp)
   10548:	8a 75 
   1054a:	66 c7 85 1c fc ff ff 	movw   $0x3,-0x3e4(%rbp)
   10551:	03 00 
   10553:	66 c7 85 1e fc ff ff 	movw   $0x1446,-0x3e2(%rbp)
   1055a:	46 14 
   1055c:	66 c7 85 20 fc ff ff 	movw   $0x758a,-0x3e0(%rbp)
   10563:	8a 75 
   10565:	66 c7 85 22 fc ff ff 	movw   $0x1446,-0x3de(%rbp)
   1056c:	46 14 
   1056e:	66 c7 85 24 fc ff ff 	movw   $0x758a,-0x3dc(%rbp)
   10575:	8a 75 
   10577:	66 c7 85 26 fc ff ff 	movw   $0x758a,-0x3da(%rbp)
   1057e:	8a 75 
   10580:	66 c7 85 28 fc ff ff 	movw   $0x8e98,-0x3d8(%rbp)
   10587:	98 8e 
   10589:	66 c7 85 2a fc ff ff 	movw   $0xf60,-0x3d6(%rbp)
   10590:	60 0f 
   10592:	66 c7 85 2c fc ff ff 	movw   $0x4ac,-0x3d4(%rbp)
   10599:	ac 04 
   1059b:	66 c7 85 2e fc ff ff 	movw   $0x5,-0x3d2(%rbp)
   105a2:	05 00 
   105a4:	66 c7 85 30 fc ff ff 	movw   $0x4ac,-0x3d0(%rbp)
   105ab:	ac 04 
   105ad:	66 c7 85 32 fc ff ff 	movw   $0x1446,-0x3ce(%rbp)
   105b4:	46 14 
   105b6:	66 c7 85 34 fc ff ff 	movw   $0x1446,-0x3cc(%rbp)
   105bd:	46 14 
   105bf:	66 c7 85 36 fc ff ff 	movw   $0x4ac,-0x3ca(%rbp)
   105c6:	ac 04 
   105c8:	66 c7 85 38 fc ff ff 	movw   $0x4ac,-0x3c8(%rbp)
   105cf:	ac 04 
   105d1:	66 c7 85 3a fc ff ff 	movw   $0x3,-0x3c6(%rbp)
   105d8:	03 00 
   105da:	66 c7 85 3c fc ff ff 	movw   $0x5,-0x3c4(%rbp)
   105e1:	05 00 
   105e3:	66 c7 85 3e fc ff ff 	movw   $0x4ac,-0x3c2(%rbp)
   105ea:	ac 04 
   105ec:	66 c7 85 40 fc ff ff 	movw   $0x1446,-0x3c0(%rbp)
   105f3:	46 14 
   105f5:	66 c7 85 42 fc ff ff 	movw   $0xf60,-0x3be(%rbp)
   105fc:	60 0f 
   105fe:	66 c7 85 44 fc ff ff 	movw   $0x4ac,-0x3bc(%rbp)
   10605:	ac 04 
   10607:	66 c7 85 46 fc ff ff 	movw   $0x8e98,-0x3ba(%rbp)
   1060e:	98 8e 
   10610:	66 c7 85 48 fc ff ff 	movw   $0x4ac,-0x3b8(%rbp)
   10617:	ac 04 
   10619:	66 c7 85 4a fc ff ff 	movw   $0xf60,-0x3b6(%rbp)
   10620:	60 0f 
   10622:	66 c7 85 4c fc ff ff 	movw   $0x5,-0x3b4(%rbp)
   10629:	05 00 
   1062b:	66 c7 85 4e fc ff ff 	movw   $0x758a,-0x3b2(%rbp)
   10632:	8a 75 
   10634:	66 c7 85 50 fc ff ff 	movw   $0x3,-0x3b0(%rbp)
   1063b:	03 00 
   1063d:	66 c7 85 52 fc ff ff 	movw   $0x1446,-0x3ae(%rbp)
   10644:	46 14 
   10646:	66 c7 85 54 fc ff ff 	movw   $0x758a,-0x3ac(%rbp)
   1064d:	8a 75 
   1064f:	66 c7 85 56 fc ff ff 	movw   $0xf60,-0x3aa(%rbp)
   10656:	60 0f 
   10658:	66 c7 85 58 fc ff ff 	movw   $0x3,-0x3a8(%rbp)
   1065f:	03 00 
   10661:	66 c7 85 5a fc ff ff 	movw   $0x3,-0x3a6(%rbp)
   10668:	03 00 
   1066a:	66 c7 85 5c fc ff ff 	movw   $0xf60,-0x3a4(%rbp)
   10671:	60 0f 
   10673:	66 c7 85 5e fc ff ff 	movw   $0x1446,-0x3a2(%rbp)
   1067a:	46 14 
   1067c:	66 c7 85 60 fc ff ff 	movw   $0x4ac,-0x3a0(%rbp)
   10683:	ac 04 
   10685:	66 c7 85 62 fc ff ff 	movw   $0xf60,-0x39e(%rbp)
   1068c:	60 0f 
   1068e:	66 c7 85 64 fc ff ff 	movw   $0x8e98,-0x39c(%rbp)
   10695:	98 8e 
   10697:	66 c7 85 66 fc ff ff 	movw   $0x758a,-0x39a(%rbp)
   1069e:	8a 75 
   106a0:	66 c7 85 68 fc ff ff 	movw   $0x758a,-0x398(%rbp)
   106a7:	8a 75 
   106a9:	66 c7 85 6a fc ff ff 	movw   $0x5,-0x396(%rbp)
   106b0:	05 00 
   106b2:	66 c7 85 6c fc ff ff 	movw   $0xf60,-0x394(%rbp)
   106b9:	60 0f 
   106bb:	66 c7 85 6e fc ff ff 	movw   $0x5,-0x392(%rbp)
   106c2:	05 00 
   106c4:	66 c7 85 70 fc ff ff 	movw   $0x1446,-0x390(%rbp)
   106cb:	46 14 
   106cd:	66 c7 85 72 fc ff ff 	movw   $0xf60,-0x38e(%rbp)
   106d4:	60 0f 
   106d6:	66 c7 85 74 fc ff ff 	movw   $0x758a,-0x38c(%rbp)
   106dd:	8a 75 
   106df:	66 c7 85 76 fc ff ff 	movw   $0x3,-0x38a(%rbp)
   106e6:	03 00 
   106e8:	66 c7 85 78 fc ff ff 	movw   $0x1446,-0x388(%rbp)
   106ef:	46 14 
   106f1:	66 c7 85 7a fc ff ff 	movw   $0x758a,-0x386(%rbp)
   106f8:	8a 75 
   106fa:	66 c7 85 7c fc ff ff 	movw   $0x1446,-0x384(%rbp)
   10701:	46 14 
   10703:	66 c7 85 7e fc ff ff 	movw   $0x758a,-0x382(%rbp)
   1070a:	8a 75 
   1070c:	66 c7 85 80 fc ff ff 	movw   $0x758a,-0x380(%rbp)
   10713:	8a 75 
   10715:	66 c7 85 82 fc ff ff 	movw   $0x8e98,-0x37e(%rbp)
   1071c:	98 8e 
   1071e:	66 c7 85 84 fc ff ff 	movw   $0xf60,-0x37c(%rbp)
   10725:	60 0f 
   10727:	66 c7 85 86 fc ff ff 	movw   $0x4ac,-0x37a(%rbp)
   1072e:	ac 04 
   10730:	c7 85 dc fa ff ff 00 	movl   $0x0,-0x524(%rbp)
   10737:	00 00 00 
   1073a:	48 8d 85 90 fc ff ff 	lea    -0x370(%rbp),%rax
   10741:	48 8d 15 18 fb 00 00 	lea    0xfb18(%rip),%rdx        # 20260 <g_1983+0x1f8>
   10748:	b9 6c 00 00 00       	mov    $0x6c,%ecx
   1074d:	48 89 c7             	mov    %rax,%rdi
   10750:	48 89 d6             	mov    %rdx,%rsi
   10753:	f3 48 a5             	rep movsq %ds:(%rsi),%es:(%rdi)
   10756:	48 c7 85 e8 fa ff ff 	movq   $0x5,-0x518(%rbp)
   1075d:	05 00 00 00 
   10761:	66 c7 85 d8 fa ff ff 	movw   $0x1,-0x528(%rbp)
   10768:	01 00 
   1076a:	c7 85 e0 fa ff ff 00 	movl   $0x0,-0x520(%rbp)
   10771:	00 00 00 
   10774:	eb 50                	jmp    107c6 <func_27+0x2dc>
   10776:	c7 85 e4 fa ff ff 00 	movl   $0x0,-0x51c(%rbp)
   1077d:	00 00 00 
   10780:	eb 34                	jmp    107b6 <func_27+0x2cc>
   10782:	8b 85 e4 fa ff ff    	mov    -0x51c(%rbp),%eax
   10788:	48 98                	cltq   
   1078a:	8b 95 e0 fa ff ff    	mov    -0x520(%rbp),%edx
   10790:	48 63 d2             	movslq %edx,%rdx
   10793:	48 01 d2             	add    %rdx,%rdx
   10796:	48 01 d0             	add    %rdx,%rax
   10799:	48 8d 95 90 fc ff ff 	lea    -0x370(%rbp),%rdx
   107a0:	48 81 c2 44 02 00 00 	add    $0x244,%rdx
   107a7:	48 89 94 c5 30 fb ff 	mov    %rdx,-0x4d0(%rbp,%rax,8)
   107ae:	ff 
   107af:	83 85 e4 fa ff ff 01 	addl   $0x1,-0x51c(%rbp)
   107b6:	83 bd e4 fa ff ff 01 	cmpl   $0x1,-0x51c(%rbp)
   107bd:	7e c3                	jle    10782 <func_27+0x298>
   107bf:	83 85 e0 fa ff ff 01 	addl   $0x1,-0x520(%rbp)
   107c6:	83 bd e0 fa ff ff 06 	cmpl   $0x6,-0x520(%rbp)
   107cd:	7e a7                	jle    10776 <func_27+0x28c>
   107cf:	66 c7 05 d8 49 01 00 	movw   $0x0,0x149d8(%rip)        # 251b0 <g_200>
   107d6:	00 00 
   107d8:	e9 b1 01 00 00       	jmpq   1098e <func_27+0x4a4>
   107dd:	48 8d 05 a4 49 01 00 	lea    0x149a4(%rip),%rax        # 25188 <g_98>
   107e4:	48 89 85 f0 fa ff ff 	mov    %rax,-0x510(%rbp)
   107eb:	48 8d 05 12 4b 01 00 	lea    0x14b12(%rip),%rax        # 25304 <g_842+0x24>
   107f2:	48 89 85 f8 fa ff ff 	mov    %rax,-0x508(%rbp)
   107f9:	48 c7 85 a0 fb ff ff 	movq   $0x0,-0x460(%rbp)
   10800:	00 00 00 00 
   10804:	48 8d 05 1d 4c 01 00 	lea    0x14c1d(%rip),%rax        # 25428 <g_1615>
   1080b:	48 89 85 a8 fb ff ff 	mov    %rax,-0x458(%rbp)
   10812:	48 8d 05 4f 49 01 00 	lea    0x1494f(%rip),%rax        # 25168 <g_12>
   10819:	48 89 85 b0 fb ff ff 	mov    %rax,-0x450(%rbp)
   10820:	48 8d 05 41 49 01 00 	lea    0x14941(%rip),%rax        # 25168 <g_12>
   10827:	48 89 85 b8 fb ff ff 	mov    %rax,-0x448(%rbp)
   1082e:	48 8d 05 f3 4b 01 00 	lea    0x14bf3(%rip),%rax        # 25428 <g_1615>
   10835:	48 89 85 c0 fb ff ff 	mov    %rax,-0x440(%rbp)
   1083c:	48 c7 85 c8 fb ff ff 	movq   $0x0,-0x438(%rbp)
   10843:	00 00 00 00 
   10847:	48 8d 05 da 4b 01 00 	lea    0x14bda(%rip),%rax        # 25428 <g_1615>
   1084e:	48 89 85 d0 fb ff ff 	mov    %rax,-0x430(%rbp)
   10855:	48 8d 05 0c 49 01 00 	lea    0x1490c(%rip),%rax        # 25168 <g_12>
   1085c:	48 89 85 d8 fb ff ff 	mov    %rax,-0x428(%rbp)
   10863:	48 8d 05 fe 48 01 00 	lea    0x148fe(%rip),%rax        # 25168 <g_12>
   1086a:	48 89 85 e0 fb ff ff 	mov    %rax,-0x420(%rbp)
   10871:	48 8d 05 b0 4b 01 00 	lea    0x14bb0(%rip),%rax        # 25428 <g_1615>
   10878:	48 89 85 e8 fb ff ff 	mov    %rax,-0x418(%rbp)
   1087f:	48 c7 85 f0 fb ff ff 	movq   $0x0,-0x410(%rbp)
   10886:	00 00 00 00 
   1088a:	48 8d 05 97 4b 01 00 	lea    0x14b97(%rip),%rax        # 25428 <g_1615>
   10891:	48 89 85 f8 fb ff ff 	mov    %rax,-0x408(%rbp)
   10898:	48 8d 05 c9 48 01 00 	lea    0x148c9(%rip),%rax        # 25168 <g_12>
   1089f:	48 89 85 00 fc ff ff 	mov    %rax,-0x400(%rbp)
   108a6:	48 8d 05 bb 48 01 00 	lea    0x148bb(%rip),%rax        # 25168 <g_12>
   108ad:	48 89 85 08 fc ff ff 	mov    %rax,-0x3f8(%rbp)
   108b4:	66 c7 85 da fa ff ff 	movw   $0x8,-0x526(%rbp)
   108bb:	08 00 
   108bd:	c7 85 00 fb ff ff 9c 	movl   $0xb26d8f9c,-0x500(%rbp)
   108c4:	8f 6d b2 
   108c7:	c7 85 04 fb ff ff 9c 	movl   $0xb26d8f9c,-0x4fc(%rbp)
   108ce:	8f 6d b2 
   108d1:	c7 85 08 fb ff ff 06 	movl   $0x6,-0x4f8(%rbp)
   108d8:	00 00 00 
   108db:	c7 85 0c fb ff ff ff 	movl   $0xffffffff,-0x4f4(%rbp)
   108e2:	ff ff ff 
   108e5:	c7 85 10 fb ff ff 06 	movl   $0x6,-0x4f0(%rbp)
   108ec:	00 00 00 
   108ef:	c7 85 14 fb ff ff 9c 	movl   $0xb26d8f9c,-0x4ec(%rbp)
   108f6:	8f 6d b2 
   108f9:	c7 85 18 fb ff ff 9c 	movl   $0xb26d8f9c,-0x4e8(%rbp)
   10900:	8f 6d b2 
   10903:	c7 85 1c fb ff ff 06 	movl   $0x6,-0x4e4(%rbp)
   1090a:	00 00 00 
   1090d:	c7 85 20 fb ff ff ff 	movl   $0xffffffff,-0x4e0(%rbp)
   10914:	ff ff ff 
   10917:	c7 85 24 fb ff ff 06 	movl   $0x6,-0x4dc(%rbp)
   1091e:	00 00 00 
   10921:	c6 85 d7 fa ff ff 88 	movb   $0x88,-0x529(%rbp)
   10928:	0f b7 05 81 48 01 00 	movzwl 0x14881(%rip),%eax        # 251b0 <g_200>
   1092f:	0f b7 c0             	movzwl %ax,%eax
   10932:	48 98                	cltq   
   10934:	48 8d 15 88 48 01 00 	lea    0x14888(%rip),%rdx        # 251c3 <g_323>
   1093b:	0f b6 04 10          	movzbl (%rax,%rdx,1),%eax
   1093f:	84 c0                	test   %al,%al
   10941:	75 5e                	jne    109a1 <func_27+0x4b7>
   10943:	be 09 00 00 00       	mov    $0x9,%esi
   10948:	bf fa ff ff ff       	mov    $0xfffffffa,%edi
   1094d:	e8 8f bb ff ff       	callq  c4e1 <safe_lshift_func_int16_t_s_u>
   10952:	48 8b 95 f0 fa ff ff 	mov    -0x510(%rbp),%rdx
   10959:	8b 12                	mov    (%rdx),%edx
   1095b:	98                   	cwtl   
   1095c:	09 c2                	or     %eax,%edx
   1095e:	48 8b 85 f0 fa ff ff 	mov    -0x510(%rbp),%rax
   10965:	89 10                	mov    %edx,(%rax)
   10967:	48 8b 85 f0 fa ff ff 	mov    -0x510(%rbp),%rax
   1096e:	8b 00                	mov    (%rax),%eax
   10970:	31 85 dc fa ff ff    	xor    %eax,-0x524(%rbp)
   10976:	80 85 d7 fa ff ff 01 	addb   $0x1,-0x529(%rbp)
   1097d:	0f b7 05 2c 48 01 00 	movzwl 0x1482c(%rip),%eax        # 251b0 <g_200>
   10984:	83 c0 01             	add    $0x1,%eax
   10987:	66 89 05 22 48 01 00 	mov    %ax,0x14822(%rip)        # 251b0 <g_200>
   1098e:	0f b7 05 1b 48 01 00 	movzwl 0x1481b(%rip),%eax        # 251b0 <g_200>
   10995:	66 83 f8 01          	cmp    $0x1,%ax
   10999:	0f 86 3e fe ff ff    	jbe    107dd <func_27+0x2f3>
   1099f:	eb 01                	jmp    109a2 <func_27+0x4b8>
   109a1:	90                   	nop
   109a2:	48 83 ad e8 fa ff ff 	subq   $0x1,-0x518(%rbp)
   109a9:	01 
   109aa:	0f b7 85 d8 fa ff ff 	movzwl -0x528(%rbp),%eax
   109b1:	83 c0 01             	add    $0x1,%eax
   109b4:	66 89 85 d8 fa ff ff 	mov    %ax,-0x528(%rbp)
   109bb:	48 8b 05 e6 47 01 00 	mov    0x147e6(%rip),%rax        # 251a8 <g_184>
   109c2:	48 8b 4d f8          	mov    -0x8(%rbp),%rcx
   109c6:	64 48 33 0c 25 28 00 	xor    %fs:0x28,%rcx
   109cd:	00 00 
   109cf:	74 05                	je     109d6 <func_27+0x4ec>
   109d1:	e8 9a b6 ff ff       	callq  c070 <__stack_chk_fail@plt>
   109d6:	c9                   	leaveq 
   109d7:	c3                   	retq   

00000000000109d8 <func_32>:
   109d8:	f3 0f 1e fa          	endbr64 
   109dc:	55                   	push   %rbp
   109dd:	48 89 e5             	mov    %rsp,%rbp
   109e0:	41 57                	push   %r15
   109e2:	41 56                	push   %r14
   109e4:	41 55                	push   %r13
   109e6:	41 54                	push   %r12
   109e8:	53                   	push   %rbx
   109e9:	48 81 ec 00 10 00 00 	sub    $0x1000,%rsp
   109f0:	48 83 0c 24 00       	orq    $0x0,(%rsp)
   109f5:	48 81 ec a8 0e 00 00 	sub    $0xea8,%rsp
   109fc:	48 89 bd 48 e1 ff ff 	mov    %rdi,-0x1eb8(%rbp)
   10a03:	89 f0                	mov    %esi,%eax
   10a05:	48 89 95 38 e1 ff ff 	mov    %rdx,-0x1ec8(%rbp)
   10a0c:	66 89 85 44 e1 ff ff 	mov    %ax,-0x1ebc(%rbp)
   10a13:	64 48 8b 04 25 28 00 	mov    %fs:0x28,%rax
   10a1a:	00 00 
   10a1c:	48 89 45 c8          	mov    %rax,-0x38(%rbp)
   10a20:	31 c0                	xor    %eax,%eax
   10a22:	48 8d 85 60 f1 ff ff 	lea    -0xea0(%rbp),%rax
   10a29:	48 8d 15 30 52 01 00 	lea    0x15230(%rip),%rdx        # 25c60 <g_2684+0x788>
   10a30:	b9 d2 00 00 00       	mov    $0xd2,%ecx
   10a35:	48 89 c7             	mov    %rax,%rdi
   10a38:	48 89 d6             	mov    %rdx,%rsi
   10a3b:	f3 48 a5             	rep movsq %ds:(%rsi),%es:(%rdi)
   10a3e:	c6 85 5e e1 ff ff 03 	movb   $0x3,-0x1ea2(%rbp)
   10a45:	48 8d 05 aa 47 01 00 	lea    0x147aa(%rip),%rax        # 251f6 <g_640+0x16>
   10a4c:	48 89 85 40 e3 ff ff 	mov    %rax,-0x1cc0(%rbp)
   10a53:	48 8d 05 46 47 01 00 	lea    0x14746(%rip),%rax        # 251a0 <g_177>
   10a5a:	48 89 85 d0 e2 ff ff 	mov    %rax,-0x1d30(%rbp)
   10a61:	48 8d 85 d0 e2 ff ff 	lea    -0x1d30(%rbp),%rax
   10a68:	48 89 85 d8 e2 ff ff 	mov    %rax,-0x1d28(%rbp)
   10a6f:	66 c7 85 70 e1 ff ff 	movw   $0x36ce,-0x1e90(%rbp)
   10a76:	ce 36 
   10a78:	48 8d 05 f1 46 01 00 	lea    0x146f1(%rip),%rax        # 25170 <g_49>
   10a7f:	48 89 85 48 e3 ff ff 	mov    %rax,-0x1cb8(%rbp)
   10a86:	48 8d 05 cb f5 00 00 	lea    0xf5cb(%rip),%rax        # 20058 <g_812>
   10a8d:	48 89 85 e0 e2 ff ff 	mov    %rax,-0x1d20(%rbp)
   10a94:	48 8d 85 e0 e2 ff ff 	lea    -0x1d20(%rbp),%rax
   10a9b:	48 89 85 e8 e2 ff ff 	mov    %rax,-0x1d18(%rbp)
   10aa2:	66 c7 85 72 e1 ff ff 	movw   $0x0,-0x1e8e(%rbp)
   10aa9:	00 00 
   10aab:	48 c7 85 f0 e2 ff ff 	movq   $0x0,-0x1d10(%rbp)
   10ab2:	00 00 00 00 
   10ab6:	48 c7 85 50 e3 ff ff 	movq   $0x0,-0x1cb0(%rbp)
   10abd:	00 00 00 00 
   10ac1:	48 8d 05 18 8f 01 00 	lea    0x18f18(%rip),%rax        # 299e0 <g_1217>
   10ac8:	48 89 85 d0 e6 ff ff 	mov    %rax,-0x1930(%rbp)
   10acf:	48 8d 05 0a 8f 01 00 	lea    0x18f0a(%rip),%rax        # 299e0 <g_1217>
   10ad6:	48 89 85 d8 e6 ff ff 	mov    %rax,-0x1928(%rbp)
   10add:	48 8d 05 fc 8e 01 00 	lea    0x18efc(%rip),%rax        # 299e0 <g_1217>
   10ae4:	48 89 85 e0 e6 ff ff 	mov    %rax,-0x1920(%rbp)
   10aeb:	48 8d 05 ee 8e 01 00 	lea    0x18eee(%rip),%rax        # 299e0 <g_1217>
   10af2:	48 89 85 e8 e6 ff ff 	mov    %rax,-0x1918(%rbp)
   10af9:	48 8d 05 e0 8e 01 00 	lea    0x18ee0(%rip),%rax        # 299e0 <g_1217>
   10b00:	48 89 85 f0 e6 ff ff 	mov    %rax,-0x1910(%rbp)
   10b07:	48 8d 85 d0 e6 ff ff 	lea    -0x1930(%rbp),%rax
   10b0e:	48 83 c0 20          	add    $0x20,%rax
   10b12:	48 89 85 f8 e2 ff ff 	mov    %rax,-0x1d08(%rbp)
   10b19:	48 8d 85 f8 e2 ff ff 	lea    -0x1d08(%rbp),%rax
   10b20:	48 89 85 10 ea ff ff 	mov    %rax,-0x15f0(%rbp)
   10b27:	48 8d 85 f8 e2 ff ff 	lea    -0x1d08(%rbp),%rax
   10b2e:	48 89 85 18 ea ff ff 	mov    %rax,-0x15e8(%rbp)
   10b35:	48 8d 85 f8 e2 ff ff 	lea    -0x1d08(%rbp),%rax
   10b3c:	48 89 85 20 ea ff ff 	mov    %rax,-0x15e0(%rbp)
   10b43:	48 8d 85 f8 e2 ff ff 	lea    -0x1d08(%rbp),%rax
   10b4a:	48 89 85 28 ea ff ff 	mov    %rax,-0x15d8(%rbp)
   10b51:	48 8d 85 f8 e2 ff ff 	lea    -0x1d08(%rbp),%rax
   10b58:	48 89 85 30 ea ff ff 	mov    %rax,-0x15d0(%rbp)
   10b5f:	48 8d 85 f8 e2 ff ff 	lea    -0x1d08(%rbp),%rax
   10b66:	48 89 85 38 ea ff ff 	mov    %rax,-0x15c8(%rbp)
   10b6d:	48 8d 85 f8 e2 ff ff 	lea    -0x1d08(%rbp),%rax
   10b74:	48 89 85 40 ea ff ff 	mov    %rax,-0x15c0(%rbp)
   10b7b:	48 8d 85 f8 e2 ff ff 	lea    -0x1d08(%rbp),%rax
   10b82:	48 89 85 48 ea ff ff 	mov    %rax,-0x15b8(%rbp)
   10b89:	48 8d 85 f8 e2 ff ff 	lea    -0x1d08(%rbp),%rax
   10b90:	48 89 85 50 ea ff ff 	mov    %rax,-0x15b0(%rbp)
   10b97:	48 8d 85 f8 e2 ff ff 	lea    -0x1d08(%rbp),%rax
   10b9e:	48 89 85 58 ea ff ff 	mov    %rax,-0x15a8(%rbp)
   10ba5:	48 8d 85 f8 e2 ff ff 	lea    -0x1d08(%rbp),%rax
   10bac:	48 89 85 60 ea ff ff 	mov    %rax,-0x15a0(%rbp)
   10bb3:	48 8d 85 f8 e2 ff ff 	lea    -0x1d08(%rbp),%rax
   10bba:	48 89 85 68 ea ff ff 	mov    %rax,-0x1598(%rbp)
   10bc1:	48 8d 85 f8 e2 ff ff 	lea    -0x1d08(%rbp),%rax
   10bc8:	48 89 85 70 ea ff ff 	mov    %rax,-0x1590(%rbp)
   10bcf:	48 8d 85 f8 e2 ff ff 	lea    -0x1d08(%rbp),%rax
   10bd6:	48 89 85 78 ea ff ff 	mov    %rax,-0x1588(%rbp)
   10bdd:	48 8d 85 f8 e2 ff ff 	lea    -0x1d08(%rbp),%rax
   10be4:	48 89 85 80 ea ff ff 	mov    %rax,-0x1580(%rbp)
   10beb:	48 8d 85 f8 e2 ff ff 	lea    -0x1d08(%rbp),%rax
   10bf2:	48 89 85 88 ea ff ff 	mov    %rax,-0x1578(%rbp)
   10bf9:	48 c7 85 90 ea ff ff 	movq   $0x0,-0x1570(%rbp)
   10c00:	00 00 00 00 
   10c04:	48 8d 85 f8 e2 ff ff 	lea    -0x1d08(%rbp),%rax
   10c0b:	48 89 85 98 ea ff ff 	mov    %rax,-0x1568(%rbp)
   10c12:	48 8d 85 f8 e2 ff ff 	lea    -0x1d08(%rbp),%rax
   10c19:	48 89 85 a0 ea ff ff 	mov    %rax,-0x1560(%rbp)
   10c20:	48 8d 85 f8 e2 ff ff 	lea    -0x1d08(%rbp),%rax
   10c27:	48 89 85 a8 ea ff ff 	mov    %rax,-0x1558(%rbp)
   10c2e:	48 8d 85 f8 e2 ff ff 	lea    -0x1d08(%rbp),%rax
   10c35:	48 89 85 b0 ea ff ff 	mov    %rax,-0x1550(%rbp)
   10c3c:	48 8d 85 f8 e2 ff ff 	lea    -0x1d08(%rbp),%rax
   10c43:	48 89 85 b8 ea ff ff 	mov    %rax,-0x1548(%rbp)
   10c4a:	48 8d 85 f8 e2 ff ff 	lea    -0x1d08(%rbp),%rax
   10c51:	48 89 85 c0 ea ff ff 	mov    %rax,-0x1540(%rbp)
   10c58:	48 c7 85 c8 ea ff ff 	movq   $0x0,-0x1538(%rbp)
   10c5f:	00 00 00 00 
   10c63:	48 8d 85 f8 e2 ff ff 	lea    -0x1d08(%rbp),%rax
   10c6a:	48 89 85 d0 ea ff ff 	mov    %rax,-0x1530(%rbp)
   10c71:	48 8d 85 f8 e2 ff ff 	lea    -0x1d08(%rbp),%rax
   10c78:	48 89 85 d8 ea ff ff 	mov    %rax,-0x1528(%rbp)
   10c7f:	48 8d 85 f8 e2 ff ff 	lea    -0x1d08(%rbp),%rax
   10c86:	48 89 85 e0 ea ff ff 	mov    %rax,-0x1520(%rbp)
   10c8d:	48 8d 85 f8 e2 ff ff 	lea    -0x1d08(%rbp),%rax
   10c94:	48 89 85 e8 ea ff ff 	mov    %rax,-0x1518(%rbp)
   10c9b:	48 8d 85 f8 e2 ff ff 	lea    -0x1d08(%rbp),%rax
   10ca2:	48 89 85 f0 ea ff ff 	mov    %rax,-0x1510(%rbp)
   10ca9:	48 c7 85 f8 ea ff ff 	movq   $0x0,-0x1508(%rbp)
   10cb0:	00 00 00 00 
   10cb4:	48 8d 85 f8 e2 ff ff 	lea    -0x1d08(%rbp),%rax
   10cbb:	48 89 85 00 eb ff ff 	mov    %rax,-0x1500(%rbp)
   10cc2:	48 8d 85 f8 e2 ff ff 	lea    -0x1d08(%rbp),%rax
   10cc9:	48 89 85 08 eb ff ff 	mov    %rax,-0x14f8(%rbp)
   10cd0:	48 8d 85 f8 e2 ff ff 	lea    -0x1d08(%rbp),%rax
   10cd7:	48 89 85 10 eb ff ff 	mov    %rax,-0x14f0(%rbp)
   10cde:	48 8d 85 f8 e2 ff ff 	lea    -0x1d08(%rbp),%rax
   10ce5:	48 89 85 18 eb ff ff 	mov    %rax,-0x14e8(%rbp)
   10cec:	48 8d 85 f8 e2 ff ff 	lea    -0x1d08(%rbp),%rax
   10cf3:	48 89 85 20 eb ff ff 	mov    %rax,-0x14e0(%rbp)
   10cfa:	48 8d 85 f8 e2 ff ff 	lea    -0x1d08(%rbp),%rax
   10d01:	48 89 85 28 eb ff ff 	mov    %rax,-0x14d8(%rbp)
   10d08:	48 8d 85 f8 e2 ff ff 	lea    -0x1d08(%rbp),%rax
   10d0f:	48 89 85 30 eb ff ff 	mov    %rax,-0x14d0(%rbp)
   10d16:	48 8d 85 f8 e2 ff ff 	lea    -0x1d08(%rbp),%rax
   10d1d:	48 89 85 38 eb ff ff 	mov    %rax,-0x14c8(%rbp)
   10d24:	48 8d 85 f8 e2 ff ff 	lea    -0x1d08(%rbp),%rax
   10d2b:	48 89 85 40 eb ff ff 	mov    %rax,-0x14c0(%rbp)
   10d32:	48 8d 85 f8 e2 ff ff 	lea    -0x1d08(%rbp),%rax
   10d39:	48 89 85 48 eb ff ff 	mov    %rax,-0x14b8(%rbp)
   10d40:	48 8d 85 f8 e2 ff ff 	lea    -0x1d08(%rbp),%rax
   10d47:	48 89 85 50 eb ff ff 	mov    %rax,-0x14b0(%rbp)
   10d4e:	48 8d 85 f8 e2 ff ff 	lea    -0x1d08(%rbp),%rax
   10d55:	48 89 85 58 eb ff ff 	mov    %rax,-0x14a8(%rbp)
   10d5c:	48 8d 85 f8 e2 ff ff 	lea    -0x1d08(%rbp),%rax
   10d63:	48 89 85 60 eb ff ff 	mov    %rax,-0x14a0(%rbp)
   10d6a:	48 8d 85 f8 e2 ff ff 	lea    -0x1d08(%rbp),%rax
   10d71:	48 89 85 68 eb ff ff 	mov    %rax,-0x1498(%rbp)
   10d78:	48 8d 85 f8 e2 ff ff 	lea    -0x1d08(%rbp),%rax
   10d7f:	48 89 85 70 eb ff ff 	mov    %rax,-0x1490(%rbp)
   10d86:	48 8d 85 f8 e2 ff ff 	lea    -0x1d08(%rbp),%rax
   10d8d:	48 89 85 78 eb ff ff 	mov    %rax,-0x1488(%rbp)
   10d94:	48 c7 85 80 eb ff ff 	movq   $0x0,-0x1480(%rbp)
   10d9b:	00 00 00 00 
   10d9f:	48 8d 85 f8 e2 ff ff 	lea    -0x1d08(%rbp),%rax
   10da6:	48 89 85 88 eb ff ff 	mov    %rax,-0x1478(%rbp)
   10dad:	48 8d 85 f8 e2 ff ff 	lea    -0x1d08(%rbp),%rax
   10db4:	48 89 85 90 eb ff ff 	mov    %rax,-0x1470(%rbp)
   10dbb:	48 8d 85 f8 e2 ff ff 	lea    -0x1d08(%rbp),%rax
   10dc2:	48 89 85 98 eb ff ff 	mov    %rax,-0x1468(%rbp)
   10dc9:	48 8d 85 f8 e2 ff ff 	lea    -0x1d08(%rbp),%rax
   10dd0:	48 89 85 a0 eb ff ff 	mov    %rax,-0x1460(%rbp)
   10dd7:	48 8d 85 f8 e2 ff ff 	lea    -0x1d08(%rbp),%rax
   10dde:	48 89 85 a8 eb ff ff 	mov    %rax,-0x1458(%rbp)
   10de5:	48 8d 85 f8 e2 ff ff 	lea    -0x1d08(%rbp),%rax
   10dec:	48 89 85 b0 eb ff ff 	mov    %rax,-0x1450(%rbp)
   10df3:	48 c7 85 b8 eb ff ff 	movq   $0x0,-0x1448(%rbp)
   10dfa:	00 00 00 00 
   10dfe:	48 8d 85 f8 e2 ff ff 	lea    -0x1d08(%rbp),%rax
   10e05:	48 89 85 c0 eb ff ff 	mov    %rax,-0x1440(%rbp)
   10e0c:	48 8d 85 f8 e2 ff ff 	lea    -0x1d08(%rbp),%rax
   10e13:	48 89 85 c8 eb ff ff 	mov    %rax,-0x1438(%rbp)
   10e1a:	48 8d 85 f8 e2 ff ff 	lea    -0x1d08(%rbp),%rax
   10e21:	48 89 85 d0 eb ff ff 	mov    %rax,-0x1430(%rbp)
   10e28:	48 8d 85 f8 e2 ff ff 	lea    -0x1d08(%rbp),%rax
   10e2f:	48 89 85 d8 eb ff ff 	mov    %rax,-0x1428(%rbp)
   10e36:	48 8d 85 f8 e2 ff ff 	lea    -0x1d08(%rbp),%rax
   10e3d:	48 89 85 e0 eb ff ff 	mov    %rax,-0x1420(%rbp)
   10e44:	48 c7 85 e8 eb ff ff 	movq   $0x0,-0x1418(%rbp)
   10e4b:	00 00 00 00 
   10e4f:	48 8d 85 f8 e2 ff ff 	lea    -0x1d08(%rbp),%rax
   10e56:	48 89 85 f0 eb ff ff 	mov    %rax,-0x1410(%rbp)
   10e5d:	48 8d 85 f8 e2 ff ff 	lea    -0x1d08(%rbp),%rax
   10e64:	48 89 85 f8 eb ff ff 	mov    %rax,-0x1408(%rbp)
   10e6b:	48 8d 85 f8 e2 ff ff 	lea    -0x1d08(%rbp),%rax
   10e72:	48 89 85 00 ec ff ff 	mov    %rax,-0x1400(%rbp)
   10e79:	48 8d 85 f8 e2 ff ff 	lea    -0x1d08(%rbp),%rax
   10e80:	48 89 85 08 ec ff ff 	mov    %rax,-0x13f8(%rbp)
   10e87:	48 8d 85 f8 e2 ff ff 	lea    -0x1d08(%rbp),%rax
   10e8e:	48 89 85 10 ec ff ff 	mov    %rax,-0x13f0(%rbp)
   10e95:	48 8d 85 f8 e2 ff ff 	lea    -0x1d08(%rbp),%rax
   10e9c:	48 89 85 18 ec ff ff 	mov    %rax,-0x13e8(%rbp)
   10ea3:	48 8d 85 f8 e2 ff ff 	lea    -0x1d08(%rbp),%rax
   10eaa:	48 89 85 20 ec ff ff 	mov    %rax,-0x13e0(%rbp)
   10eb1:	48 8d 85 f8 e2 ff ff 	lea    -0x1d08(%rbp),%rax
   10eb8:	48 89 85 28 ec ff ff 	mov    %rax,-0x13d8(%rbp)
   10ebf:	48 8d 85 f8 e2 ff ff 	lea    -0x1d08(%rbp),%rax
   10ec6:	48 89 85 30 ec ff ff 	mov    %rax,-0x13d0(%rbp)
   10ecd:	48 8d 85 f8 e2 ff ff 	lea    -0x1d08(%rbp),%rax
   10ed4:	48 89 85 38 ec ff ff 	mov    %rax,-0x13c8(%rbp)
   10edb:	48 8d 85 f8 e2 ff ff 	lea    -0x1d08(%rbp),%rax
   10ee2:	48 89 85 40 ec ff ff 	mov    %rax,-0x13c0(%rbp)
   10ee9:	48 8d 85 f8 e2 ff ff 	lea    -0x1d08(%rbp),%rax
   10ef0:	48 89 85 48 ec ff ff 	mov    %rax,-0x13b8(%rbp)
   10ef7:	48 8d 85 f8 e2 ff ff 	lea    -0x1d08(%rbp),%rax
   10efe:	48 89 85 50 ec ff ff 	mov    %rax,-0x13b0(%rbp)
   10f05:	48 8d 85 f8 e2 ff ff 	lea    -0x1d08(%rbp),%rax
   10f0c:	48 89 85 58 ec ff ff 	mov    %rax,-0x13a8(%rbp)
   10f13:	48 8d 85 f8 e2 ff ff 	lea    -0x1d08(%rbp),%rax
   10f1a:	48 89 85 60 ec ff ff 	mov    %rax,-0x13a0(%rbp)
   10f21:	48 8d 85 f8 e2 ff ff 	lea    -0x1d08(%rbp),%rax
   10f28:	48 89 85 68 ec ff ff 	mov    %rax,-0x1398(%rbp)
   10f2f:	48 c7 85 70 ec ff ff 	movq   $0x0,-0x1390(%rbp)
   10f36:	00 00 00 00 
   10f3a:	48 8d 85 f8 e2 ff ff 	lea    -0x1d08(%rbp),%rax
   10f41:	48 89 85 78 ec ff ff 	mov    %rax,-0x1388(%rbp)
   10f48:	48 8d 85 f8 e2 ff ff 	lea    -0x1d08(%rbp),%rax
   10f4f:	48 89 85 80 ec ff ff 	mov    %rax,-0x1380(%rbp)
   10f56:	48 8d 85 f8 e2 ff ff 	lea    -0x1d08(%rbp),%rax
   10f5d:	48 89 85 88 ec ff ff 	mov    %rax,-0x1378(%rbp)
   10f64:	48 8d 85 f8 e2 ff ff 	lea    -0x1d08(%rbp),%rax
   10f6b:	48 89 85 90 ec ff ff 	mov    %rax,-0x1370(%rbp)
   10f72:	48 8d 85 f8 e2 ff ff 	lea    -0x1d08(%rbp),%rax
   10f79:	48 89 85 98 ec ff ff 	mov    %rax,-0x1368(%rbp)
   10f80:	48 8d 85 f8 e2 ff ff 	lea    -0x1d08(%rbp),%rax
   10f87:	48 89 85 a0 ec ff ff 	mov    %rax,-0x1360(%rbp)
   10f8e:	48 c7 85 a8 ec ff ff 	movq   $0x0,-0x1358(%rbp)
   10f95:	00 00 00 00 
   10f99:	48 8d 85 f8 e2 ff ff 	lea    -0x1d08(%rbp),%rax
   10fa0:	48 89 85 b0 ec ff ff 	mov    %rax,-0x1350(%rbp)
   10fa7:	48 8d 85 f8 e2 ff ff 	lea    -0x1d08(%rbp),%rax
   10fae:	48 89 85 b8 ec ff ff 	mov    %rax,-0x1348(%rbp)
   10fb5:	48 8d 85 f8 e2 ff ff 	lea    -0x1d08(%rbp),%rax
   10fbc:	48 89 85 c0 ec ff ff 	mov    %rax,-0x1340(%rbp)
   10fc3:	48 8d 85 f8 e2 ff ff 	lea    -0x1d08(%rbp),%rax
   10fca:	48 89 85 c8 ec ff ff 	mov    %rax,-0x1338(%rbp)
   10fd1:	48 8d 85 f8 e2 ff ff 	lea    -0x1d08(%rbp),%rax
   10fd8:	48 89 85 d0 ec ff ff 	mov    %rax,-0x1330(%rbp)
   10fdf:	48 c7 85 d8 ec ff ff 	movq   $0x0,-0x1328(%rbp)
   10fe6:	00 00 00 00 
   10fea:	48 8d 85 f8 e2 ff ff 	lea    -0x1d08(%rbp),%rax
   10ff1:	48 89 85 e0 ec ff ff 	mov    %rax,-0x1320(%rbp)
   10ff8:	48 8d 85 f8 e2 ff ff 	lea    -0x1d08(%rbp),%rax
   10fff:	48 89 85 e8 ec ff ff 	mov    %rax,-0x1318(%rbp)
   11006:	48 8d 85 f8 e2 ff ff 	lea    -0x1d08(%rbp),%rax
   1100d:	48 89 85 f0 ec ff ff 	mov    %rax,-0x1310(%rbp)
   11014:	48 8d 85 f8 e2 ff ff 	lea    -0x1d08(%rbp),%rax
   1101b:	48 89 85 f8 ec ff ff 	mov    %rax,-0x1308(%rbp)
   11022:	48 8d 85 f8 e2 ff ff 	lea    -0x1d08(%rbp),%rax
   11029:	48 89 85 00 ed ff ff 	mov    %rax,-0x1300(%rbp)
   11030:	48 8d 85 f8 e2 ff ff 	lea    -0x1d08(%rbp),%rax
   11037:	48 89 85 08 ed ff ff 	mov    %rax,-0x12f8(%rbp)
   1103e:	48 8d 85 f8 e2 ff ff 	lea    -0x1d08(%rbp),%rax
   11045:	48 89 85 10 ed ff ff 	mov    %rax,-0x12f0(%rbp)
   1104c:	48 8d 85 f8 e2 ff ff 	lea    -0x1d08(%rbp),%rax
   11053:	48 89 85 18 ed ff ff 	mov    %rax,-0x12e8(%rbp)
   1105a:	48 8d 85 f8 e2 ff ff 	lea    -0x1d08(%rbp),%rax
   11061:	48 89 85 20 ed ff ff 	mov    %rax,-0x12e0(%rbp)
   11068:	48 8d 85 f8 e2 ff ff 	lea    -0x1d08(%rbp),%rax
   1106f:	48 89 85 28 ed ff ff 	mov    %rax,-0x12d8(%rbp)
   11076:	48 8d 85 f8 e2 ff ff 	lea    -0x1d08(%rbp),%rax
   1107d:	48 89 85 30 ed ff ff 	mov    %rax,-0x12d0(%rbp)
   11084:	48 8d 85 f8 e2 ff ff 	lea    -0x1d08(%rbp),%rax
   1108b:	48 89 85 38 ed ff ff 	mov    %rax,-0x12c8(%rbp)
   11092:	48 8d 85 f8 e2 ff ff 	lea    -0x1d08(%rbp),%rax
   11099:	48 89 85 40 ed ff ff 	mov    %rax,-0x12c0(%rbp)
   110a0:	48 8d 85 f8 e2 ff ff 	lea    -0x1d08(%rbp),%rax
   110a7:	48 89 85 48 ed ff ff 	mov    %rax,-0x12b8(%rbp)
   110ae:	48 8d 85 f8 e2 ff ff 	lea    -0x1d08(%rbp),%rax
   110b5:	48 89 85 50 ed ff ff 	mov    %rax,-0x12b0(%rbp)
   110bc:	48 8d 85 f8 e2 ff ff 	lea    -0x1d08(%rbp),%rax
   110c3:	48 89 85 58 ed ff ff 	mov    %rax,-0x12a8(%rbp)
   110ca:	48 c7 85 60 ed ff ff 	movq   $0x0,-0x12a0(%rbp)
   110d1:	00 00 00 00 
   110d5:	48 8d 85 f8 e2 ff ff 	lea    -0x1d08(%rbp),%rax
   110dc:	48 89 85 68 ed ff ff 	mov    %rax,-0x1298(%rbp)
   110e3:	c6 85 5f e1 ff ff 01 	movb   $0x1,-0x1ea1(%rbp)
   110ea:	66 c7 85 74 e1 ff ff 	movw   $0xfd05,-0x1e8c(%rbp)
   110f1:	05 fd 
   110f3:	48 c7 85 58 e3 ff ff 	movq   $0x0,-0x1ca8(%rbp)
   110fa:	00 00 00 00 
   110fe:	48 8d 05 c3 41 01 00 	lea    0x141c3(%rip),%rax        # 252c8 <g_841>
   11105:	48 89 85 60 e3 ff ff 	mov    %rax,-0x1ca0(%rbp)
   1110c:	c7 85 40 e6 ff ff ff 	movl   $0xffffffff,-0x19c0(%rbp)
   11113:	ff ff ff 
   11116:	c7 85 44 e6 ff ff 82 	movl   $0x3b60f682,-0x19bc(%rbp)
   1111d:	f6 60 3b 
   11120:	c7 85 48 e6 ff ff ff 	movl   $0xffffffff,-0x19b8(%rbp)
   11127:	ff ff ff 
   1112a:	c7 85 4c e6 ff ff 82 	movl   $0x3b60f682,-0x19b4(%rbp)
   11131:	f6 60 3b 
   11134:	c7 85 50 e6 ff ff ff 	movl   $0xffffffff,-0x19b0(%rbp)
   1113b:	ff ff ff 
   1113e:	c7 85 54 e6 ff ff 82 	movl   $0x3b60f682,-0x19ac(%rbp)
   11145:	f6 60 3b 
   11148:	c7 85 58 e6 ff ff ff 	movl   $0xffffffff,-0x19a8(%rbp)
   1114f:	ff ff ff 
   11152:	c7 85 5c e6 ff ff 82 	movl   $0x3b60f682,-0x19a4(%rbp)
   11159:	f6 60 3b 
   1115c:	c7 85 60 e6 ff ff ff 	movl   $0xffffffff,-0x19a0(%rbp)
   11163:	ff ff ff 
   11166:	48 b8 79 17 ce 8c d5 	movabs $0xbc60acd58cce1779,%rax
   1116d:	ac 60 bc 
   11170:	48 89 85 68 e3 ff ff 	mov    %rax,-0x1c98(%rbp)
   11177:	c7 85 f8 e1 ff ff db 	movl   $0xc8251db,-0x1e08(%rbp)
   1117e:	51 82 0c 
   11181:	66 c7 85 76 e1 ff ff 	movw   $0xfff9,-0x1e8a(%rbp)
   11188:	f9 ff 
   1118a:	c7 85 20 e8 ff ff ff 	movl   $0xffffffff,-0x17e0(%rbp)
   11191:	ff ff ff 
   11194:	c7 85 24 e8 ff ff 00 	movl   $0x0,-0x17dc(%rbp)
   1119b:	00 00 00 
   1119e:	c7 85 28 e8 ff ff 03 	movl   $0x3,-0x17d8(%rbp)
   111a5:	00 00 00 
   111a8:	c7 85 2c e8 ff ff bf 	movl   $0x7de961bf,-0x17d4(%rbp)
   111af:	61 e9 7d 
   111b2:	c7 85 30 e8 ff ff f8 	movl   $0xfffffff8,-0x17d0(%rbp)
   111b9:	ff ff ff 
   111bc:	c7 85 34 e8 ff ff 89 	movl   $0xee513589,-0x17cc(%rbp)
   111c3:	35 51 ee 
   111c6:	c7 85 38 e8 ff ff 00 	movl   $0x0,-0x17c8(%rbp)
   111cd:	00 00 00 
   111d0:	c7 85 3c e8 ff ff 00 	movl   $0x0,-0x17c4(%rbp)
   111d7:	00 00 00 
   111da:	c7 85 40 e8 ff ff f0 	movl   $0x6d2812f0,-0x17c0(%rbp)
   111e1:	12 28 6d 
   111e4:	c7 85 44 e8 ff ff f0 	movl   $0x6d2812f0,-0x17bc(%rbp)
   111eb:	12 28 6d 
   111ee:	c7 85 48 e8 ff ff 00 	movl   $0x0,-0x17b8(%rbp)
   111f5:	00 00 00 
   111f8:	c7 85 4c e8 ff ff 05 	movl   $0x5,-0x17b4(%rbp)
   111ff:	00 00 00 
   11202:	c7 85 50 e8 ff ff f8 	movl   $0xfffffff8,-0x17b0(%rbp)
   11209:	ff ff ff 
   1120c:	c7 85 54 e8 ff ff 00 	movl   $0x0,-0x17ac(%rbp)
   11213:	00 00 00 
   11216:	c7 85 58 e8 ff ff 03 	movl   $0x3,-0x17a8(%rbp)
   1121d:	00 00 00 
   11220:	c7 85 5c e8 ff ff 89 	movl   $0xee513589,-0x17a4(%rbp)
   11227:	35 51 ee 
   1122a:	c7 85 60 e8 ff ff ff 	movl   $0xffffffff,-0x17a0(%rbp)
   11231:	ff ff ff 
   11234:	c7 85 64 e8 ff ff 03 	movl   $0x3,-0x179c(%rbp)
   1123b:	00 00 00 
   1123e:	c7 85 68 e8 ff ff 05 	movl   $0x5,-0x1798(%rbp)
   11245:	00 00 00 
   11248:	c7 85 6c e8 ff ff 03 	movl   $0x3,-0x1794(%rbp)
   1124f:	00 00 00 
   11252:	c7 85 70 e8 ff ff 05 	movl   $0x5,-0x1790(%rbp)
   11259:	00 00 00 
   1125c:	c7 85 74 e8 ff ff 03 	movl   $0x3,-0x178c(%rbp)
   11263:	00 00 00 
   11266:	c7 85 78 e8 ff ff ff 	movl   $0xffffffff,-0x1788(%rbp)
   1126d:	ff ff ff 
   11270:	c7 85 7c e8 ff ff 89 	movl   $0xee513589,-0x1784(%rbp)
   11277:	35 51 ee 
   1127a:	c7 85 fc e1 ff ff 00 	movl   $0x0,-0x1e04(%rbp)
   11281:	00 00 00 
   11284:	c7 85 00 e2 ff ff fd 	movl   $0xfffffffd,-0x1e00(%rbp)
   1128b:	ff ff ff 
   1128e:	c6 85 60 e1 ff ff d5 	movb   $0xd5,-0x1ea0(%rbp)
   11295:	c6 85 61 e1 ff ff 85 	movb   $0x85,-0x1e9f(%rbp)
   1129c:	c7 85 94 e1 ff ff 00 	movl   $0x0,-0x1e6c(%rbp)
   112a3:	00 00 00 
   112a6:	eb 22                	jmp    112ca <func_32+0x8f2>
   112a8:	8b 85 94 e1 ff ff    	mov    -0x1e6c(%rbp),%eax
   112ae:	48 98                	cltq   
   112b0:	48 8d 95 60 f1 ff ff 	lea    -0xea0(%rbp),%rdx
   112b7:	48 83 c2 08          	add    $0x8,%rdx
   112bb:	48 89 94 c5 a0 e5 ff 	mov    %rdx,-0x1a60(%rbp,%rax,8)
   112c2:	ff 
   112c3:	83 85 94 e1 ff ff 01 	addl   $0x1,-0x1e6c(%rbp)
   112ca:	83 bd 94 e1 ff ff 01 	cmpl   $0x1,-0x1e6c(%rbp)
   112d1:	7e d5                	jle    112a8 <func_32+0x8d0>
   112d3:	c7 85 94 e1 ff ff 00 	movl   $0x0,-0x1e6c(%rbp)
   112da:	00 00 00 
   112dd:	eb 25                	jmp    11304 <func_32+0x92c>
   112df:	8b 85 94 e1 ff ff    	mov    -0x1e6c(%rbp),%eax
   112e5:	48 98                	cltq   
   112e7:	48 8d 95 10 ea ff ff 	lea    -0x15f0(%rbp),%rdx
   112ee:	48 81 c2 e8 00 00 00 	add    $0xe8,%rdx
   112f5:	48 89 94 c5 98 e5 ff 	mov    %rdx,-0x1a68(%rbp,%rax,8)
   112fc:	ff 
   112fd:	83 85 94 e1 ff ff 01 	addl   $0x1,-0x1e6c(%rbp)
   11304:	83 bd 94 e1 ff ff 00 	cmpl   $0x0,-0x1e6c(%rbp)
   1130b:	7e d2                	jle    112df <func_32+0x907>
   1130d:	90                   	nop
   1130e:	c7 05 9c 3e 01 00 04 	movl   $0x4,0x13e9c(%rip)        # 251b4 <g_213>
   11315:	00 00 00 
   11318:	e9 3b 23 00 00       	jmpq   13658 <func_32+0x2c80>
   1131d:	48 8d 85 a0 e5 ff ff 	lea    -0x1a60(%rbp),%rax
   11324:	48 83 c0 08          	add    $0x8,%rax
   11328:	48 89 85 10 e5 ff ff 	mov    %rax,-0x1af0(%rbp)
   1132f:	48 8d 85 60 f1 ff ff 	lea    -0xea0(%rbp),%rax
   11336:	48 83 c0 08          	add    $0x8,%rax
   1133a:	48 89 85 20 e3 ff ff 	mov    %rax,-0x1ce0(%rbp)
   11341:	48 8d 85 20 e3 ff ff 	lea    -0x1ce0(%rbp),%rax
   11348:	48 89 85 18 e5 ff ff 	mov    %rax,-0x1ae8(%rbp)
   1134f:	c7 85 74 e2 ff ff a3 	movl   $0x4b69b6a3,-0x1d8c(%rbp)
   11356:	b6 69 4b 
   11359:	c7 85 78 e2 ff ff ff 	movl   $0xffffffff,-0x1d88(%rbp)
   11360:	ff ff ff 
   11363:	c7 85 7c e2 ff ff c2 	movl   $0xef1584c2,-0x1d84(%rbp)
   1136a:	84 15 ef 
   1136d:	c7 85 80 e2 ff ff e3 	movl   $0xe77dc8e3,-0x1d80(%rbp)
   11374:	c8 7d e7 
   11377:	48 8d 05 f2 3d 01 00 	lea    0x13df2(%rip),%rax        # 25170 <g_49>
   1137e:	48 89 85 20 e5 ff ff 	mov    %rax,-0x1ae0(%rbp)
   11385:	48 8d 05 4c 86 01 00 	lea    0x1864c(%rip),%rax        # 299d8 <g_1211>
   1138c:	48 89 85 f0 f7 ff ff 	mov    %rax,-0x810(%rbp)
   11393:	48 8d 05 3e 86 01 00 	lea    0x1863e(%rip),%rax        # 299d8 <g_1211>
   1139a:	48 89 85 f8 f7 ff ff 	mov    %rax,-0x808(%rbp)
   113a1:	48 8d 05 30 86 01 00 	lea    0x18630(%rip),%rax        # 299d8 <g_1211>
   113a8:	48 89 85 00 f8 ff ff 	mov    %rax,-0x800(%rbp)
   113af:	48 8d 85 d0 e2 ff ff 	lea    -0x1d30(%rbp),%rax
   113b6:	48 89 85 08 f8 ff ff 	mov    %rax,-0x7f8(%rbp)
   113bd:	48 8d 85 d0 e2 ff ff 	lea    -0x1d30(%rbp),%rax
   113c4:	48 89 85 10 f8 ff ff 	mov    %rax,-0x7f0(%rbp)
   113cb:	48 8d 05 06 86 01 00 	lea    0x18606(%rip),%rax        # 299d8 <g_1211>
   113d2:	48 89 85 18 f8 ff ff 	mov    %rax,-0x7e8(%rbp)
   113d9:	48 c7 85 20 f8 ff ff 	movq   $0x0,-0x7e0(%rbp)
   113e0:	00 00 00 00 
   113e4:	48 c7 85 28 f8 ff ff 	movq   $0x0,-0x7d8(%rbp)
   113eb:	00 00 00 00 
   113ef:	48 c7 85 30 f8 ff ff 	movq   $0x0,-0x7d0(%rbp)
   113f6:	00 00 00 00 
   113fa:	48 8d 05 d7 85 01 00 	lea    0x185d7(%rip),%rax        # 299d8 <g_1211>
   11401:	48 89 85 38 f8 ff ff 	mov    %rax,-0x7c8(%rbp)
   11408:	48 8d 05 c9 85 01 00 	lea    0x185c9(%rip),%rax        # 299d8 <g_1211>
   1140f:	48 89 85 40 f8 ff ff 	mov    %rax,-0x7c0(%rbp)
   11416:	48 8d 85 d0 e2 ff ff 	lea    -0x1d30(%rbp),%rax
   1141d:	48 89 85 48 f8 ff ff 	mov    %rax,-0x7b8(%rbp)
   11424:	48 8d 85 d0 e2 ff ff 	lea    -0x1d30(%rbp),%rax
   1142b:	48 89 85 50 f8 ff ff 	mov    %rax,-0x7b0(%rbp)
   11432:	48 c7 85 58 f8 ff ff 	movq   $0x0,-0x7a8(%rbp)
   11439:	00 00 00 00 
   1143d:	48 8d 85 d0 e2 ff ff 	lea    -0x1d30(%rbp),%rax
   11444:	48 89 85 60 f8 ff ff 	mov    %rax,-0x7a0(%rbp)
   1144b:	48 8d 05 86 85 01 00 	lea    0x18586(%rip),%rax        # 299d8 <g_1211>
   11452:	48 89 85 68 f8 ff ff 	mov    %rax,-0x798(%rbp)
   11459:	48 8d 85 d0 e2 ff ff 	lea    -0x1d30(%rbp),%rax
   11460:	48 89 85 70 f8 ff ff 	mov    %rax,-0x790(%rbp)
   11467:	48 8d 85 d0 e2 ff ff 	lea    -0x1d30(%rbp),%rax
   1146e:	48 89 85 78 f8 ff ff 	mov    %rax,-0x788(%rbp)
   11475:	48 c7 85 80 f8 ff ff 	movq   $0x0,-0x780(%rbp)
   1147c:	00 00 00 00 
   11480:	48 8d 85 d0 e2 ff ff 	lea    -0x1d30(%rbp),%rax
   11487:	48 89 85 88 f8 ff ff 	mov    %rax,-0x778(%rbp)
   1148e:	48 c7 85 90 f8 ff ff 	movq   $0x0,-0x770(%rbp)
   11495:	00 00 00 00 
   11499:	48 8d 05 38 85 01 00 	lea    0x18538(%rip),%rax        # 299d8 <g_1211>
   114a0:	48 89 85 98 f8 ff ff 	mov    %rax,-0x768(%rbp)
   114a7:	48 8d 85 d0 e2 ff ff 	lea    -0x1d30(%rbp),%rax
   114ae:	48 89 85 a0 f8 ff ff 	mov    %rax,-0x760(%rbp)
   114b5:	48 8d 85 d0 e2 ff ff 	lea    -0x1d30(%rbp),%rax
   114bc:	48 89 85 a8 f8 ff ff 	mov    %rax,-0x758(%rbp)
   114c3:	48 c7 85 b0 f8 ff ff 	movq   $0x0,-0x750(%rbp)
   114ca:	00 00 00 00 
   114ce:	48 8d 85 d0 e2 ff ff 	lea    -0x1d30(%rbp),%rax
   114d5:	48 89 85 b8 f8 ff ff 	mov    %rax,-0x748(%rbp)
   114dc:	48 8d 05 f5 84 01 00 	lea    0x184f5(%rip),%rax        # 299d8 <g_1211>
   114e3:	48 89 85 c0 f8 ff ff 	mov    %rax,-0x740(%rbp)
   114ea:	48 8d 85 d0 e2 ff ff 	lea    -0x1d30(%rbp),%rax
   114f1:	48 89 85 c8 f8 ff ff 	mov    %rax,-0x738(%rbp)
   114f8:	48 8d 85 d0 e2 ff ff 	lea    -0x1d30(%rbp),%rax
   114ff:	48 89 85 d0 f8 ff ff 	mov    %rax,-0x730(%rbp)
   11506:	48 c7 85 d8 f8 ff ff 	movq   $0x0,-0x728(%rbp)
   1150d:	00 00 00 00 
   11511:	48 8d 85 d0 e2 ff ff 	lea    -0x1d30(%rbp),%rax
   11518:	48 89 85 e0 f8 ff ff 	mov    %rax,-0x720(%rbp)
   1151f:	48 8d 05 b2 84 01 00 	lea    0x184b2(%rip),%rax        # 299d8 <g_1211>
   11526:	48 89 85 e8 f8 ff ff 	mov    %rax,-0x718(%rbp)
   1152d:	48 c7 85 f0 f8 ff ff 	movq   $0x0,-0x710(%rbp)
   11534:	00 00 00 00 
   11538:	48 8d 85 d0 e2 ff ff 	lea    -0x1d30(%rbp),%rax
   1153f:	48 89 85 f8 f8 ff ff 	mov    %rax,-0x708(%rbp)
   11546:	48 c7 85 00 f9 ff ff 	movq   $0x0,-0x700(%rbp)
   1154d:	00 00 00 00 
   11551:	48 8d 85 d0 e2 ff ff 	lea    -0x1d30(%rbp),%rax
   11558:	48 89 85 08 f9 ff ff 	mov    %rax,-0x6f8(%rbp)
   1155f:	48 8d 85 d0 e2 ff ff 	lea    -0x1d30(%rbp),%rax
   11566:	48 89 85 10 f9 ff ff 	mov    %rax,-0x6f0(%rbp)
   1156d:	48 c7 85 18 f9 ff ff 	movq   $0x0,-0x6e8(%rbp)
   11574:	00 00 00 00 
   11578:	48 8d 85 d0 e2 ff ff 	lea    -0x1d30(%rbp),%rax
   1157f:	48 89 85 20 f9 ff ff 	mov    %rax,-0x6e0(%rbp)
   11586:	48 8d 85 d0 e2 ff ff 	lea    -0x1d30(%rbp),%rax
   1158d:	48 89 85 28 f9 ff ff 	mov    %rax,-0x6d8(%rbp)
   11594:	48 c7 85 30 f9 ff ff 	movq   $0x0,-0x6d0(%rbp)
   1159b:	00 00 00 00 
   1159f:	48 8d 85 d0 e2 ff ff 	lea    -0x1d30(%rbp),%rax
   115a6:	48 89 85 38 f9 ff ff 	mov    %rax,-0x6c8(%rbp)
   115ad:	48 8d 85 d0 e2 ff ff 	lea    -0x1d30(%rbp),%rax
   115b4:	48 89 85 40 f9 ff ff 	mov    %rax,-0x6c0(%rbp)
   115bb:	48 c7 85 48 f9 ff ff 	movq   $0x0,-0x6b8(%rbp)
   115c2:	00 00 00 00 
   115c6:	48 8d 05 0b 84 01 00 	lea    0x1840b(%rip),%rax        # 299d8 <g_1211>
   115cd:	48 89 85 50 f9 ff ff 	mov    %rax,-0x6b0(%rbp)
   115d4:	48 8d 85 d0 e2 ff ff 	lea    -0x1d30(%rbp),%rax
   115db:	48 89 85 58 f9 ff ff 	mov    %rax,-0x6a8(%rbp)
   115e2:	48 8d 05 ef 83 01 00 	lea    0x183ef(%rip),%rax        # 299d8 <g_1211>
   115e9:	48 89 85 60 f9 ff ff 	mov    %rax,-0x6a0(%rbp)
   115f0:	48 8d 85 d0 e2 ff ff 	lea    -0x1d30(%rbp),%rax
   115f7:	48 89 85 68 f9 ff ff 	mov    %rax,-0x698(%rbp)
   115fe:	48 c7 85 70 f9 ff ff 	movq   $0x0,-0x690(%rbp)
   11605:	00 00 00 00 
   11609:	48 c7 85 78 f9 ff ff 	movq   $0x0,-0x688(%rbp)
   11610:	00 00 00 00 
   11614:	48 8d 85 d0 e2 ff ff 	lea    -0x1d30(%rbp),%rax
   1161b:	48 89 85 80 f9 ff ff 	mov    %rax,-0x680(%rbp)
   11622:	48 8d 05 af 83 01 00 	lea    0x183af(%rip),%rax        # 299d8 <g_1211>
   11629:	48 89 85 88 f9 ff ff 	mov    %rax,-0x678(%rbp)
   11630:	48 c7 85 90 f9 ff ff 	movq   $0x0,-0x670(%rbp)
   11637:	00 00 00 00 
   1163b:	48 8d 05 96 83 01 00 	lea    0x18396(%rip),%rax        # 299d8 <g_1211>
   11642:	48 89 85 98 f9 ff ff 	mov    %rax,-0x668(%rbp)
   11649:	48 8d 85 d0 e2 ff ff 	lea    -0x1d30(%rbp),%rax
   11650:	48 89 85 a0 f9 ff ff 	mov    %rax,-0x660(%rbp)
   11657:	48 c7 85 a8 f9 ff ff 	movq   $0x0,-0x658(%rbp)
   1165e:	00 00 00 00 
   11662:	48 8d 85 d0 e2 ff ff 	lea    -0x1d30(%rbp),%rax
   11669:	48 89 85 b0 f9 ff ff 	mov    %rax,-0x650(%rbp)
   11670:	48 8d 05 61 83 01 00 	lea    0x18361(%rip),%rax        # 299d8 <g_1211>
   11677:	48 89 85 b8 f9 ff ff 	mov    %rax,-0x648(%rbp)
   1167e:	48 c7 85 c0 f9 ff ff 	movq   $0x0,-0x640(%rbp)
   11685:	00 00 00 00 
   11689:	48 8d 05 48 83 01 00 	lea    0x18348(%rip),%rax        # 299d8 <g_1211>
   11690:	48 89 85 c8 f9 ff ff 	mov    %rax,-0x638(%rbp)
   11697:	48 c7 85 d0 f9 ff ff 	movq   $0x0,-0x630(%rbp)
   1169e:	00 00 00 00 
   116a2:	48 8d 85 d0 e2 ff ff 	lea    -0x1d30(%rbp),%rax
   116a9:	48 89 85 d8 f9 ff ff 	mov    %rax,-0x628(%rbp)
   116b0:	48 8d 05 21 83 01 00 	lea    0x18321(%rip),%rax        # 299d8 <g_1211>
   116b7:	48 89 85 e0 f9 ff ff 	mov    %rax,-0x620(%rbp)
   116be:	48 c7 85 e8 f9 ff ff 	movq   $0x0,-0x618(%rbp)
   116c5:	00 00 00 00 
   116c9:	48 8d 85 d0 e2 ff ff 	lea    -0x1d30(%rbp),%rax
   116d0:	48 89 85 f0 f9 ff ff 	mov    %rax,-0x610(%rbp)
   116d7:	48 c7 85 f8 f9 ff ff 	movq   $0x0,-0x608(%rbp)
   116de:	00 00 00 00 
   116e2:	48 8d 85 d0 e2 ff ff 	lea    -0x1d30(%rbp),%rax
   116e9:	48 89 85 00 fa ff ff 	mov    %rax,-0x600(%rbp)
   116f0:	48 8d 85 d0 e2 ff ff 	lea    -0x1d30(%rbp),%rax
   116f7:	48 89 85 08 fa ff ff 	mov    %rax,-0x5f8(%rbp)
   116fe:	48 8d 85 d0 e2 ff ff 	lea    -0x1d30(%rbp),%rax
   11705:	48 89 85 10 fa ff ff 	mov    %rax,-0x5f0(%rbp)
   1170c:	48 8d 85 d0 e2 ff ff 	lea    -0x1d30(%rbp),%rax
   11713:	48 89 85 18 fa ff ff 	mov    %rax,-0x5e8(%rbp)
   1171a:	48 c7 85 20 fa ff ff 	movq   $0x0,-0x5e0(%rbp)
   11721:	00 00 00 00 
   11725:	48 c7 85 28 fa ff ff 	movq   $0x0,-0x5d8(%rbp)
   1172c:	00 00 00 00 
   11730:	48 8d 05 a1 82 01 00 	lea    0x182a1(%rip),%rax        # 299d8 <g_1211>
   11737:	48 89 85 30 fa ff ff 	mov    %rax,-0x5d0(%rbp)
   1173e:	48 8d 05 93 82 01 00 	lea    0x18293(%rip),%rax        # 299d8 <g_1211>
   11745:	48 89 85 38 fa ff ff 	mov    %rax,-0x5c8(%rbp)
   1174c:	48 8d 05 85 82 01 00 	lea    0x18285(%rip),%rax        # 299d8 <g_1211>
   11753:	48 89 85 40 fa ff ff 	mov    %rax,-0x5c0(%rbp)
   1175a:	48 8d 05 77 82 01 00 	lea    0x18277(%rip),%rax        # 299d8 <g_1211>
   11761:	48 89 85 48 fa ff ff 	mov    %rax,-0x5b8(%rbp)
   11768:	48 c7 85 50 fa ff ff 	movq   $0x0,-0x5b0(%rbp)
   1176f:	00 00 00 00 
   11773:	48 8d 85 d0 e2 ff ff 	lea    -0x1d30(%rbp),%rax
   1177a:	48 89 85 58 fa ff ff 	mov    %rax,-0x5a8(%rbp)
   11781:	48 8d 85 d0 e2 ff ff 	lea    -0x1d30(%rbp),%rax
   11788:	48 89 85 60 fa ff ff 	mov    %rax,-0x5a0(%rbp)
   1178f:	48 c7 85 68 fa ff ff 	movq   $0x0,-0x598(%rbp)
   11796:	00 00 00 00 
   1179a:	48 8d 05 37 82 01 00 	lea    0x18237(%rip),%rax        # 299d8 <g_1211>
   117a1:	48 89 85 70 fa ff ff 	mov    %rax,-0x590(%rbp)
   117a8:	48 8d 05 29 82 01 00 	lea    0x18229(%rip),%rax        # 299d8 <g_1211>
   117af:	48 89 85 78 fa ff ff 	mov    %rax,-0x588(%rbp)
   117b6:	48 c7 85 80 fa ff ff 	movq   $0x0,-0x580(%rbp)
   117bd:	00 00 00 00 
   117c1:	48 8d 85 d0 e2 ff ff 	lea    -0x1d30(%rbp),%rax
   117c8:	48 89 85 88 fa ff ff 	mov    %rax,-0x578(%rbp)
   117cf:	48 c7 85 90 fa ff ff 	movq   $0x0,-0x570(%rbp)
   117d6:	00 00 00 00 
   117da:	48 8d 05 f7 81 01 00 	lea    0x181f7(%rip),%rax        # 299d8 <g_1211>
   117e1:	48 89 85 98 fa ff ff 	mov    %rax,-0x568(%rbp)
   117e8:	48 c7 85 a0 fa ff ff 	movq   $0x0,-0x560(%rbp)
   117ef:	00 00 00 00 
   117f3:	48 8d 05 de 81 01 00 	lea    0x181de(%rip),%rax        # 299d8 <g_1211>
   117fa:	48 89 85 a8 fa ff ff 	mov    %rax,-0x558(%rbp)
   11801:	48 c7 85 b0 fa ff ff 	movq   $0x0,-0x550(%rbp)
   11808:	00 00 00 00 
   1180c:	48 c7 85 b8 fa ff ff 	movq   $0x0,-0x548(%rbp)
   11813:	00 00 00 00 
   11817:	48 8d 85 d0 e2 ff ff 	lea    -0x1d30(%rbp),%rax
   1181e:	48 89 85 c0 fa ff ff 	mov    %rax,-0x540(%rbp)
   11825:	48 8d 05 ac 81 01 00 	lea    0x181ac(%rip),%rax        # 299d8 <g_1211>
   1182c:	48 89 85 c8 fa ff ff 	mov    %rax,-0x538(%rbp)
   11833:	48 8d 85 d0 e2 ff ff 	lea    -0x1d30(%rbp),%rax
   1183a:	48 89 85 d0 fa ff ff 	mov    %rax,-0x530(%rbp)
   11841:	48 8d 05 90 81 01 00 	lea    0x18190(%rip),%rax        # 299d8 <g_1211>
   11848:	48 89 85 d8 fa ff ff 	mov    %rax,-0x528(%rbp)
   1184f:	48 c7 85 e0 fa ff ff 	movq   $0x0,-0x520(%rbp)
   11856:	00 00 00 00 
   1185a:	48 8d 85 d0 e2 ff ff 	lea    -0x1d30(%rbp),%rax
   11861:	48 89 85 e8 fa ff ff 	mov    %rax,-0x518(%rbp)
   11868:	48 8d 05 69 81 01 00 	lea    0x18169(%rip),%rax        # 299d8 <g_1211>
   1186f:	48 89 85 f0 fa ff ff 	mov    %rax,-0x510(%rbp)
   11876:	48 8d 05 5b 81 01 00 	lea    0x1815b(%rip),%rax        # 299d8 <g_1211>
   1187d:	48 89 85 f8 fa ff ff 	mov    %rax,-0x508(%rbp)
   11884:	48 8d 85 d0 e2 ff ff 	lea    -0x1d30(%rbp),%rax
   1188b:	48 89 85 00 fb ff ff 	mov    %rax,-0x500(%rbp)
   11892:	48 8d 05 3f 81 01 00 	lea    0x1813f(%rip),%rax        # 299d8 <g_1211>
   11899:	48 89 85 08 fb ff ff 	mov    %rax,-0x4f8(%rbp)
   118a0:	48 8d 05 31 81 01 00 	lea    0x18131(%rip),%rax        # 299d8 <g_1211>
   118a7:	48 89 85 10 fb ff ff 	mov    %rax,-0x4f0(%rbp)
   118ae:	48 8d 05 23 81 01 00 	lea    0x18123(%rip),%rax        # 299d8 <g_1211>
   118b5:	48 89 85 18 fb ff ff 	mov    %rax,-0x4e8(%rbp)
   118bc:	48 8d 85 d0 e2 ff ff 	lea    -0x1d30(%rbp),%rax
   118c3:	48 89 85 20 fb ff ff 	mov    %rax,-0x4e0(%rbp)
   118ca:	48 8d 85 d0 e2 ff ff 	lea    -0x1d30(%rbp),%rax
   118d1:	48 89 85 28 fb ff ff 	mov    %rax,-0x4d8(%rbp)
   118d8:	48 8d 85 d0 e2 ff ff 	lea    -0x1d30(%rbp),%rax
   118df:	48 89 85 30 fb ff ff 	mov    %rax,-0x4d0(%rbp)
   118e6:	48 8d 85 d0 e2 ff ff 	lea    -0x1d30(%rbp),%rax
   118ed:	48 89 85 38 fb ff ff 	mov    %rax,-0x4c8(%rbp)
   118f4:	48 8d 85 d0 e2 ff ff 	lea    -0x1d30(%rbp),%rax
   118fb:	48 89 85 40 fb ff ff 	mov    %rax,-0x4c0(%rbp)
   11902:	48 8d 85 d0 e2 ff ff 	lea    -0x1d30(%rbp),%rax
   11909:	48 89 85 48 fb ff ff 	mov    %rax,-0x4b8(%rbp)
   11910:	48 8d 85 d0 e2 ff ff 	lea    -0x1d30(%rbp),%rax
   11917:	48 89 85 50 fb ff ff 	mov    %rax,-0x4b0(%rbp)
   1191e:	48 8d 85 d0 e2 ff ff 	lea    -0x1d30(%rbp),%rax
   11925:	48 89 85 58 fb ff ff 	mov    %rax,-0x4a8(%rbp)
   1192c:	48 8d 85 d0 e2 ff ff 	lea    -0x1d30(%rbp),%rax
   11933:	48 89 85 60 fb ff ff 	mov    %rax,-0x4a0(%rbp)
   1193a:	48 c7 85 68 fb ff ff 	movq   $0x0,-0x498(%rbp)
   11941:	00 00 00 00 
   11945:	48 8d 85 d0 e2 ff ff 	lea    -0x1d30(%rbp),%rax
   1194c:	48 89 85 70 fb ff ff 	mov    %rax,-0x490(%rbp)
   11953:	48 8d 85 d0 e2 ff ff 	lea    -0x1d30(%rbp),%rax
   1195a:	48 89 85 78 fb ff ff 	mov    %rax,-0x488(%rbp)
   11961:	48 8d 05 70 80 01 00 	lea    0x18070(%rip),%rax        # 299d8 <g_1211>
   11968:	48 89 85 80 fb ff ff 	mov    %rax,-0x480(%rbp)
   1196f:	48 8d 05 62 80 01 00 	lea    0x18062(%rip),%rax        # 299d8 <g_1211>
   11976:	48 89 85 88 fb ff ff 	mov    %rax,-0x478(%rbp)
   1197d:	48 8d 05 54 80 01 00 	lea    0x18054(%rip),%rax        # 299d8 <g_1211>
   11984:	48 89 85 90 fb ff ff 	mov    %rax,-0x470(%rbp)
   1198b:	48 c7 85 98 fb ff ff 	movq   $0x0,-0x468(%rbp)
   11992:	00 00 00 00 
   11996:	48 8d 05 3b 80 01 00 	lea    0x1803b(%rip),%rax        # 299d8 <g_1211>
   1199d:	48 89 85 a0 fb ff ff 	mov    %rax,-0x460(%rbp)
   119a4:	48 8d 85 d0 e2 ff ff 	lea    -0x1d30(%rbp),%rax
   119ab:	48 89 85 a8 fb ff ff 	mov    %rax,-0x458(%rbp)
   119b2:	48 8d 05 1f 80 01 00 	lea    0x1801f(%rip),%rax        # 299d8 <g_1211>
   119b9:	48 89 85 b0 fb ff ff 	mov    %rax,-0x450(%rbp)
   119c0:	48 8d 85 d0 e2 ff ff 	lea    -0x1d30(%rbp),%rax
   119c7:	48 89 85 b8 fb ff ff 	mov    %rax,-0x448(%rbp)
   119ce:	48 c7 85 c0 fb ff ff 	movq   $0x0,-0x440(%rbp)
   119d5:	00 00 00 00 
   119d9:	48 8d 05 f8 7f 01 00 	lea    0x17ff8(%rip),%rax        # 299d8 <g_1211>
   119e0:	48 89 85 c8 fb ff ff 	mov    %rax,-0x438(%rbp)
   119e7:	48 c7 85 d0 fb ff ff 	movq   $0x0,-0x430(%rbp)
   119ee:	00 00 00 00 
   119f2:	48 8d 05 df 7f 01 00 	lea    0x17fdf(%rip),%rax        # 299d8 <g_1211>
   119f9:	48 89 85 d8 fb ff ff 	mov    %rax,-0x428(%rbp)
   11a00:	48 8d 85 d0 e2 ff ff 	lea    -0x1d30(%rbp),%rax
   11a07:	48 89 85 e0 fb ff ff 	mov    %rax,-0x420(%rbp)
   11a0e:	48 8d 85 d0 e2 ff ff 	lea    -0x1d30(%rbp),%rax
   11a15:	48 89 85 e8 fb ff ff 	mov    %rax,-0x418(%rbp)
   11a1c:	48 c7 85 f0 fb ff ff 	movq   $0x0,-0x410(%rbp)
   11a23:	00 00 00 00 
   11a27:	48 8d 05 aa 7f 01 00 	lea    0x17faa(%rip),%rax        # 299d8 <g_1211>
   11a2e:	48 89 85 f8 fb ff ff 	mov    %rax,-0x408(%rbp)
   11a35:	48 8d 85 d0 e2 ff ff 	lea    -0x1d30(%rbp),%rax
   11a3c:	48 89 85 00 fc ff ff 	mov    %rax,-0x400(%rbp)
   11a43:	48 8d 85 d0 e2 ff ff 	lea    -0x1d30(%rbp),%rax
   11a4a:	48 89 85 08 fc ff ff 	mov    %rax,-0x3f8(%rbp)
   11a51:	48 c7 85 10 fc ff ff 	movq   $0x0,-0x3f0(%rbp)
   11a58:	00 00 00 00 
   11a5c:	48 8d 05 75 7f 01 00 	lea    0x17f75(%rip),%rax        # 299d8 <g_1211>
   11a63:	48 89 85 18 fc ff ff 	mov    %rax,-0x3e8(%rbp)
   11a6a:	48 8d 85 d0 e2 ff ff 	lea    -0x1d30(%rbp),%rax
   11a71:	48 89 85 20 fc ff ff 	mov    %rax,-0x3e0(%rbp)
   11a78:	48 8d 85 d0 e2 ff ff 	lea    -0x1d30(%rbp),%rax
   11a7f:	48 89 85 28 fc ff ff 	mov    %rax,-0x3d8(%rbp)
   11a86:	48 8d 85 d0 e2 ff ff 	lea    -0x1d30(%rbp),%rax
   11a8d:	48 89 85 30 fc ff ff 	mov    %rax,-0x3d0(%rbp)
   11a94:	48 8d 05 3d 7f 01 00 	lea    0x17f3d(%rip),%rax        # 299d8 <g_1211>
   11a9b:	48 89 85 38 fc ff ff 	mov    %rax,-0x3c8(%rbp)
   11aa2:	48 8d 05 2f 7f 01 00 	lea    0x17f2f(%rip),%rax        # 299d8 <g_1211>
   11aa9:	48 89 85 40 fc ff ff 	mov    %rax,-0x3c0(%rbp)
   11ab0:	48 8d 05 21 7f 01 00 	lea    0x17f21(%rip),%rax        # 299d8 <g_1211>
   11ab7:	48 89 85 48 fc ff ff 	mov    %rax,-0x3b8(%rbp)
   11abe:	48 8d 05 13 7f 01 00 	lea    0x17f13(%rip),%rax        # 299d8 <g_1211>
   11ac5:	48 89 85 50 fc ff ff 	mov    %rax,-0x3b0(%rbp)
   11acc:	48 8d 05 05 7f 01 00 	lea    0x17f05(%rip),%rax        # 299d8 <g_1211>
   11ad3:	48 89 85 58 fc ff ff 	mov    %rax,-0x3a8(%rbp)
   11ada:	48 8d 05 f7 7e 01 00 	lea    0x17ef7(%rip),%rax        # 299d8 <g_1211>
   11ae1:	48 89 85 60 fc ff ff 	mov    %rax,-0x3a0(%rbp)
   11ae8:	48 c7 85 68 fc ff ff 	movq   $0x0,-0x398(%rbp)
   11aef:	00 00 00 00 
   11af3:	48 8d 05 de 7e 01 00 	lea    0x17ede(%rip),%rax        # 299d8 <g_1211>
   11afa:	48 89 85 70 fc ff ff 	mov    %rax,-0x390(%rbp)
   11b01:	48 8d 85 d0 e2 ff ff 	lea    -0x1d30(%rbp),%rax
   11b08:	48 89 85 78 fc ff ff 	mov    %rax,-0x388(%rbp)
   11b0f:	48 c7 85 80 fc ff ff 	movq   $0x0,-0x380(%rbp)
   11b16:	00 00 00 00 
   11b1a:	48 8d 05 b7 7e 01 00 	lea    0x17eb7(%rip),%rax        # 299d8 <g_1211>
   11b21:	48 89 85 88 fc ff ff 	mov    %rax,-0x378(%rbp)
   11b28:	48 c7 85 90 fc ff ff 	movq   $0x0,-0x370(%rbp)
   11b2f:	00 00 00 00 
   11b33:	48 c7 85 98 fc ff ff 	movq   $0x0,-0x368(%rbp)
   11b3a:	00 00 00 00 
   11b3e:	48 8d 85 d0 e2 ff ff 	lea    -0x1d30(%rbp),%rax
   11b45:	48 89 85 a0 fc ff ff 	mov    %rax,-0x360(%rbp)
   11b4c:	48 8d 85 d0 e2 ff ff 	lea    -0x1d30(%rbp),%rax
   11b53:	48 89 85 a8 fc ff ff 	mov    %rax,-0x358(%rbp)
   11b5a:	48 8d 05 77 7e 01 00 	lea    0x17e77(%rip),%rax        # 299d8 <g_1211>
   11b61:	48 89 85 b0 fc ff ff 	mov    %rax,-0x350(%rbp)
   11b68:	48 8d 05 69 7e 01 00 	lea    0x17e69(%rip),%rax        # 299d8 <g_1211>
   11b6f:	48 89 85 b8 fc ff ff 	mov    %rax,-0x348(%rbp)
   11b76:	48 8d 05 5b 7e 01 00 	lea    0x17e5b(%rip),%rax        # 299d8 <g_1211>
   11b7d:	48 89 85 c0 fc ff ff 	mov    %rax,-0x340(%rbp)
   11b84:	48 8d 05 4d 7e 01 00 	lea    0x17e4d(%rip),%rax        # 299d8 <g_1211>
   11b8b:	48 89 85 c8 fc ff ff 	mov    %rax,-0x338(%rbp)
   11b92:	48 8d 85 d0 e2 ff ff 	lea    -0x1d30(%rbp),%rax
   11b99:	48 89 85 d0 fc ff ff 	mov    %rax,-0x330(%rbp)
   11ba0:	48 8d 05 31 7e 01 00 	lea    0x17e31(%rip),%rax        # 299d8 <g_1211>
   11ba7:	48 89 85 d8 fc ff ff 	mov    %rax,-0x328(%rbp)
   11bae:	48 8d 85 d0 e2 ff ff 	lea    -0x1d30(%rbp),%rax
   11bb5:	48 89 85 e0 fc ff ff 	mov    %rax,-0x320(%rbp)
   11bbc:	48 8d 85 d0 e2 ff ff 	lea    -0x1d30(%rbp),%rax
   11bc3:	48 89 85 e8 fc ff ff 	mov    %rax,-0x318(%rbp)
   11bca:	48 8d 05 07 7e 01 00 	lea    0x17e07(%rip),%rax        # 299d8 <g_1211>
   11bd1:	48 89 85 f0 fc ff ff 	mov    %rax,-0x310(%rbp)
   11bd8:	48 c7 85 f8 fc ff ff 	movq   $0x0,-0x308(%rbp)
   11bdf:	00 00 00 00 
   11be3:	48 c7 85 00 fd ff ff 	movq   $0x0,-0x300(%rbp)
   11bea:	00 00 00 00 
   11bee:	48 8d 85 d0 e2 ff ff 	lea    -0x1d30(%rbp),%rax
   11bf5:	48 89 85 08 fd ff ff 	mov    %rax,-0x2f8(%rbp)
   11bfc:	48 8d 85 d0 e2 ff ff 	lea    -0x1d30(%rbp),%rax
   11c03:	48 89 85 10 fd ff ff 	mov    %rax,-0x2f0(%rbp)
   11c0a:	48 8d 05 c7 7d 01 00 	lea    0x17dc7(%rip),%rax        # 299d8 <g_1211>
   11c11:	48 89 85 18 fd ff ff 	mov    %rax,-0x2e8(%rbp)
   11c18:	48 8d 05 b9 7d 01 00 	lea    0x17db9(%rip),%rax        # 299d8 <g_1211>
   11c1f:	48 89 85 20 fd ff ff 	mov    %rax,-0x2e0(%rbp)
   11c26:	48 8d 85 d0 e2 ff ff 	lea    -0x1d30(%rbp),%rax
   11c2d:	48 89 85 28 fd ff ff 	mov    %rax,-0x2d8(%rbp)
   11c34:	48 8d 05 9d 7d 01 00 	lea    0x17d9d(%rip),%rax        # 299d8 <g_1211>
   11c3b:	48 89 85 30 fd ff ff 	mov    %rax,-0x2d0(%rbp)
   11c42:	48 8d 85 d0 e2 ff ff 	lea    -0x1d30(%rbp),%rax
   11c49:	48 89 85 38 fd ff ff 	mov    %rax,-0x2c8(%rbp)
   11c50:	48 c7 85 40 fd ff ff 	movq   $0x0,-0x2c0(%rbp)
   11c57:	00 00 00 00 
   11c5b:	48 8d 85 d0 e2 ff ff 	lea    -0x1d30(%rbp),%rax
   11c62:	48 89 85 48 fd ff ff 	mov    %rax,-0x2b8(%rbp)
   11c69:	48 8d 05 68 7d 01 00 	lea    0x17d68(%rip),%rax        # 299d8 <g_1211>
   11c70:	48 89 85 50 fd ff ff 	mov    %rax,-0x2b0(%rbp)
   11c77:	48 8d 85 d0 e2 ff ff 	lea    -0x1d30(%rbp),%rax
   11c7e:	48 89 85 58 fd ff ff 	mov    %rax,-0x2a8(%rbp)
   11c85:	48 8d 85 d0 e2 ff ff 	lea    -0x1d30(%rbp),%rax
   11c8c:	48 89 85 60 fd ff ff 	mov    %rax,-0x2a0(%rbp)
   11c93:	48 c7 85 68 fd ff ff 	movq   $0x0,-0x298(%rbp)
   11c9a:	00 00 00 00 
   11c9e:	48 8d 85 d0 e2 ff ff 	lea    -0x1d30(%rbp),%rax
   11ca5:	48 89 85 70 fd ff ff 	mov    %rax,-0x290(%rbp)
   11cac:	48 c7 85 78 fd ff ff 	movq   $0x0,-0x288(%rbp)
   11cb3:	00 00 00 00 
   11cb7:	48 8d 85 d0 e2 ff ff 	lea    -0x1d30(%rbp),%rax
   11cbe:	48 89 85 80 fd ff ff 	mov    %rax,-0x280(%rbp)
   11cc5:	48 8d 85 d0 e2 ff ff 	lea    -0x1d30(%rbp),%rax
   11ccc:	48 89 85 88 fd ff ff 	mov    %rax,-0x278(%rbp)
   11cd3:	48 c7 85 90 fd ff ff 	movq   $0x0,-0x270(%rbp)
   11cda:	00 00 00 00 
   11cde:	48 8d 85 d0 e2 ff ff 	lea    -0x1d30(%rbp),%rax
   11ce5:	48 89 85 98 fd ff ff 	mov    %rax,-0x268(%rbp)
   11cec:	48 8d 05 e5 7c 01 00 	lea    0x17ce5(%rip),%rax        # 299d8 <g_1211>
   11cf3:	48 89 85 a0 fd ff ff 	mov    %rax,-0x260(%rbp)
   11cfa:	48 8d 85 d0 e2 ff ff 	lea    -0x1d30(%rbp),%rax
   11d01:	48 89 85 a8 fd ff ff 	mov    %rax,-0x258(%rbp)
   11d08:	48 c7 85 b0 fd ff ff 	movq   $0x0,-0x250(%rbp)
   11d0f:	00 00 00 00 
   11d13:	48 c7 85 b8 fd ff ff 	movq   $0x0,-0x248(%rbp)
   11d1a:	00 00 00 00 
   11d1e:	48 8d 85 d0 e2 ff ff 	lea    -0x1d30(%rbp),%rax
   11d25:	48 89 85 c0 fd ff ff 	mov    %rax,-0x240(%rbp)
   11d2c:	48 8d 85 d0 e2 ff ff 	lea    -0x1d30(%rbp),%rax
   11d33:	48 89 85 c8 fd ff ff 	mov    %rax,-0x238(%rbp)
   11d3a:	48 8d 05 97 7c 01 00 	lea    0x17c97(%rip),%rax        # 299d8 <g_1211>
   11d41:	48 89 85 d0 fd ff ff 	mov    %rax,-0x230(%rbp)
   11d48:	48 8d 85 d0 e2 ff ff 	lea    -0x1d30(%rbp),%rax
   11d4f:	48 89 85 d8 fd ff ff 	mov    %rax,-0x228(%rbp)
   11d56:	48 8d 85 d0 e2 ff ff 	lea    -0x1d30(%rbp),%rax
   11d5d:	48 89 85 e0 fd ff ff 	mov    %rax,-0x220(%rbp)
   11d64:	48 8d 05 6d 7c 01 00 	lea    0x17c6d(%rip),%rax        # 299d8 <g_1211>
   11d6b:	48 89 85 e8 fd ff ff 	mov    %rax,-0x218(%rbp)
   11d72:	48 8d 05 5f 7c 01 00 	lea    0x17c5f(%rip),%rax        # 299d8 <g_1211>
   11d79:	48 89 85 f0 fd ff ff 	mov    %rax,-0x210(%rbp)
   11d80:	48 c7 85 f8 fd ff ff 	movq   $0x0,-0x208(%rbp)
   11d87:	00 00 00 00 
   11d8b:	48 8d 05 46 7c 01 00 	lea    0x17c46(%rip),%rax        # 299d8 <g_1211>
   11d92:	48 89 85 00 fe ff ff 	mov    %rax,-0x200(%rbp)
   11d99:	48 8d 85 d0 e2 ff ff 	lea    -0x1d30(%rbp),%rax
   11da0:	48 89 85 08 fe ff ff 	mov    %rax,-0x1f8(%rbp)
   11da7:	48 c7 85 10 fe ff ff 	movq   $0x0,-0x1f0(%rbp)
   11dae:	00 00 00 00 
   11db2:	48 c7 85 18 fe ff ff 	movq   $0x0,-0x1e8(%rbp)
   11db9:	00 00 00 00 
   11dbd:	48 8d 85 d0 e2 ff ff 	lea    -0x1d30(%rbp),%rax
   11dc4:	48 89 85 20 fe ff ff 	mov    %rax,-0x1e0(%rbp)
   11dcb:	48 8d 85 d0 e2 ff ff 	lea    -0x1d30(%rbp),%rax
   11dd2:	48 89 85 28 fe ff ff 	mov    %rax,-0x1d8(%rbp)
   11dd9:	48 c7 85 30 fe ff ff 	movq   $0x0,-0x1d0(%rbp)
   11de0:	00 00 00 00 
   11de4:	48 8d 85 d0 e2 ff ff 	lea    -0x1d30(%rbp),%rax
   11deb:	48 89 85 38 fe ff ff 	mov    %rax,-0x1c8(%rbp)
   11df2:	48 8d 05 df 7b 01 00 	lea    0x17bdf(%rip),%rax        # 299d8 <g_1211>
   11df9:	48 89 85 40 fe ff ff 	mov    %rax,-0x1c0(%rbp)
   11e00:	48 8d 85 d0 e2 ff ff 	lea    -0x1d30(%rbp),%rax
   11e07:	48 89 85 48 fe ff ff 	mov    %rax,-0x1b8(%rbp)
   11e0e:	48 c7 85 50 fe ff ff 	movq   $0x0,-0x1b0(%rbp)
   11e15:	00 00 00 00 
   11e19:	48 8d 85 d0 e2 ff ff 	lea    -0x1d30(%rbp),%rax
   11e20:	48 89 85 58 fe ff ff 	mov    %rax,-0x1a8(%rbp)
   11e27:	48 8d 05 aa 7b 01 00 	lea    0x17baa(%rip),%rax        # 299d8 <g_1211>
   11e2e:	48 89 85 60 fe ff ff 	mov    %rax,-0x1a0(%rbp)
   11e35:	48 8d 85 d0 e2 ff ff 	lea    -0x1d30(%rbp),%rax
   11e3c:	48 89 85 68 fe ff ff 	mov    %rax,-0x198(%rbp)
   11e43:	48 8d 85 d0 e2 ff ff 	lea    -0x1d30(%rbp),%rax
   11e4a:	48 89 85 70 fe ff ff 	mov    %rax,-0x190(%rbp)
   11e51:	48 8d 85 d0 e2 ff ff 	lea    -0x1d30(%rbp),%rax
   11e58:	48 89 85 78 fe ff ff 	mov    %rax,-0x188(%rbp)
   11e5f:	48 8d 05 72 7b 01 00 	lea    0x17b72(%rip),%rax        # 299d8 <g_1211>
   11e66:	48 89 85 80 fe ff ff 	mov    %rax,-0x180(%rbp)
   11e6d:	48 8d 05 64 7b 01 00 	lea    0x17b64(%rip),%rax        # 299d8 <g_1211>
   11e74:	48 89 85 88 fe ff ff 	mov    %rax,-0x178(%rbp)
   11e7b:	48 c7 85 90 fe ff ff 	movq   $0x0,-0x170(%rbp)
   11e82:	00 00 00 00 
   11e86:	48 8d 85 d0 e2 ff ff 	lea    -0x1d30(%rbp),%rax
   11e8d:	48 89 85 98 fe ff ff 	mov    %rax,-0x168(%rbp)
   11e94:	48 c7 85 a0 fe ff ff 	movq   $0x0,-0x160(%rbp)
   11e9b:	00 00 00 00 
   11e9f:	48 8d 05 32 7b 01 00 	lea    0x17b32(%rip),%rax        # 299d8 <g_1211>
   11ea6:	48 89 85 a8 fe ff ff 	mov    %rax,-0x158(%rbp)
   11ead:	48 8d 05 24 7b 01 00 	lea    0x17b24(%rip),%rax        # 299d8 <g_1211>
   11eb4:	48 89 85 b0 fe ff ff 	mov    %rax,-0x150(%rbp)
   11ebb:	48 8d 05 16 7b 01 00 	lea    0x17b16(%rip),%rax        # 299d8 <g_1211>
   11ec2:	48 89 85 b8 fe ff ff 	mov    %rax,-0x148(%rbp)
   11ec9:	48 8d 05 08 7b 01 00 	lea    0x17b08(%rip),%rax        # 299d8 <g_1211>
   11ed0:	48 89 85 c0 fe ff ff 	mov    %rax,-0x140(%rbp)
   11ed7:	48 c7 85 c8 fe ff ff 	movq   $0x0,-0x138(%rbp)
   11ede:	00 00 00 00 
   11ee2:	48 8d 85 d0 e2 ff ff 	lea    -0x1d30(%rbp),%rax
   11ee9:	48 89 85 d0 fe ff ff 	mov    %rax,-0x130(%rbp)
   11ef0:	48 c7 85 d8 fe ff ff 	movq   $0x0,-0x128(%rbp)
   11ef7:	00 00 00 00 
   11efb:	48 8d 05 d6 7a 01 00 	lea    0x17ad6(%rip),%rax        # 299d8 <g_1211>
   11f02:	48 89 85 e0 fe ff ff 	mov    %rax,-0x120(%rbp)
   11f09:	48 8d 05 c8 7a 01 00 	lea    0x17ac8(%rip),%rax        # 299d8 <g_1211>
   11f10:	48 89 85 e8 fe ff ff 	mov    %rax,-0x118(%rbp)
   11f17:	48 8d 05 ba 7a 01 00 	lea    0x17aba(%rip),%rax        # 299d8 <g_1211>
   11f1e:	48 89 85 f0 fe ff ff 	mov    %rax,-0x110(%rbp)
   11f25:	48 8d 05 ac 7a 01 00 	lea    0x17aac(%rip),%rax        # 299d8 <g_1211>
   11f2c:	48 89 85 f8 fe ff ff 	mov    %rax,-0x108(%rbp)
   11f33:	48 8d 05 9e 7a 01 00 	lea    0x17a9e(%rip),%rax        # 299d8 <g_1211>
   11f3a:	48 89 85 00 ff ff ff 	mov    %rax,-0x100(%rbp)
   11f41:	48 8d 05 90 7a 01 00 	lea    0x17a90(%rip),%rax        # 299d8 <g_1211>
   11f48:	48 89 85 08 ff ff ff 	mov    %rax,-0xf8(%rbp)
   11f4f:	48 8d 85 d0 e2 ff ff 	lea    -0x1d30(%rbp),%rax
   11f56:	48 89 85 10 ff ff ff 	mov    %rax,-0xf0(%rbp)
   11f5d:	48 8d 85 d0 e2 ff ff 	lea    -0x1d30(%rbp),%rax
   11f64:	48 89 85 18 ff ff ff 	mov    %rax,-0xe8(%rbp)
   11f6b:	48 8d 05 66 7a 01 00 	lea    0x17a66(%rip),%rax        # 299d8 <g_1211>
   11f72:	48 89 85 20 ff ff ff 	mov    %rax,-0xe0(%rbp)
   11f79:	48 c7 85 28 ff ff ff 	movq   $0x0,-0xd8(%rbp)
   11f80:	00 00 00 00 
   11f84:	48 8d 85 d0 e2 ff ff 	lea    -0x1d30(%rbp),%rax
   11f8b:	48 89 85 30 ff ff ff 	mov    %rax,-0xd0(%rbp)
   11f92:	48 8d 85 d0 e2 ff ff 	lea    -0x1d30(%rbp),%rax
   11f99:	48 89 85 38 ff ff ff 	mov    %rax,-0xc8(%rbp)
   11fa0:	48 8d 05 31 7a 01 00 	lea    0x17a31(%rip),%rax        # 299d8 <g_1211>
   11fa7:	48 89 85 40 ff ff ff 	mov    %rax,-0xc0(%rbp)
   11fae:	48 8d 05 23 7a 01 00 	lea    0x17a23(%rip),%rax        # 299d8 <g_1211>
   11fb5:	48 89 85 48 ff ff ff 	mov    %rax,-0xb8(%rbp)
   11fbc:	48 8d 85 d0 e2 ff ff 	lea    -0x1d30(%rbp),%rax
   11fc3:	48 89 85 50 ff ff ff 	mov    %rax,-0xb0(%rbp)
   11fca:	48 c7 85 58 ff ff ff 	movq   $0x0,-0xa8(%rbp)
   11fd1:	00 00 00 00 
   11fd5:	48 8d 85 d0 e2 ff ff 	lea    -0x1d30(%rbp),%rax
   11fdc:	48 89 85 60 ff ff ff 	mov    %rax,-0xa0(%rbp)
   11fe3:	48 8d 05 ee 79 01 00 	lea    0x179ee(%rip),%rax        # 299d8 <g_1211>
   11fea:	48 89 85 68 ff ff ff 	mov    %rax,-0x98(%rbp)
   11ff1:	48 8d 85 d0 e2 ff ff 	lea    -0x1d30(%rbp),%rax
   11ff8:	48 89 85 70 ff ff ff 	mov    %rax,-0x90(%rbp)
   11fff:	48 8d 85 d0 e2 ff ff 	lea    -0x1d30(%rbp),%rax
   12006:	48 89 85 78 ff ff ff 	mov    %rax,-0x88(%rbp)
   1200d:	48 c7 45 80 00 00 00 	movq   $0x0,-0x80(%rbp)
   12014:	00 
   12015:	48 8d 85 d0 e2 ff ff 	lea    -0x1d30(%rbp),%rax
   1201c:	48 89 45 88          	mov    %rax,-0x78(%rbp)
   12020:	48 8d 85 d0 e2 ff ff 	lea    -0x1d30(%rbp),%rax
   12027:	48 89 45 90          	mov    %rax,-0x70(%rbp)
   1202b:	48 c7 45 98 00 00 00 	movq   $0x0,-0x68(%rbp)
   12032:	00 
   12033:	48 c7 45 a0 00 00 00 	movq   $0x0,-0x60(%rbp)
   1203a:	00 
   1203b:	48 8d 05 96 79 01 00 	lea    0x17996(%rip),%rax        # 299d8 <g_1211>
   12042:	48 89 45 a8          	mov    %rax,-0x58(%rbp)
   12046:	48 8d 05 8b 79 01 00 	lea    0x1798b(%rip),%rax        # 299d8 <g_1211>
   1204d:	48 89 45 b0          	mov    %rax,-0x50(%rbp)
   12051:	48 c7 45 b8 00 00 00 	movq   $0x0,-0x48(%rbp)
   12058:	00 
   12059:	48 8d 05 60 31 01 00 	lea    0x13160(%rip),%rax        # 251c0 <g_266>
   12060:	48 89 85 28 e3 ff ff 	mov    %rax,-0x1cd8(%rbp)
   12067:	48 8d 85 28 e3 ff ff 	lea    -0x1cd8(%rbp),%rax
   1206e:	48 89 85 28 e5 ff ff 	mov    %rax,-0x1ad8(%rbp)
   12075:	c6 85 68 e1 ff ff 04 	movb   $0x4,-0x1e98(%rbp)
   1207c:	c7 85 84 e2 ff ff 06 	movl   $0x6,-0x1d7c(%rbp)
   12083:	00 00 00 
   12086:	c7 85 98 e1 ff ff 00 	movl   $0x0,-0x1e68(%rbp)
   1208d:	00 00 00 
   12090:	eb 1e                	jmp    120b0 <func_32+0x16d8>
   12092:	8b 85 98 e1 ff ff    	mov    -0x1e68(%rbp),%eax
   12098:	48 98                	cltq   
   1209a:	48 8d 15 1b 31 01 00 	lea    0x1311b(%rip),%rdx        # 251bc <g_248>
   120a1:	48 89 94 c5 30 e7 ff 	mov    %rdx,-0x18d0(%rbp,%rax,8)
   120a8:	ff 
   120a9:	83 85 98 e1 ff ff 01 	addl   $0x1,-0x1e68(%rbp)
   120b0:	83 bd 98 e1 ff ff 00 	cmpl   $0x0,-0x1e68(%rbp)
   120b7:	7e d9                	jle    12092 <func_32+0x16ba>
   120b9:	c7 85 98 e1 ff ff 00 	movl   $0x0,-0x1e68(%rbp)
   120c0:	00 00 00 
   120c3:	eb 1a                	jmp    120df <func_32+0x1707>
   120c5:	8b 85 98 e1 ff ff    	mov    -0x1e68(%rbp),%eax
   120cb:	48 98                	cltq   
   120cd:	c7 84 85 d0 e7 ff ff 	movl   $0x4,-0x1830(%rbp,%rax,4)
   120d4:	04 00 00 00 
   120d8:	83 85 98 e1 ff ff 01 	addl   $0x1,-0x1e68(%rbp)
   120df:	83 bd 98 e1 ff ff 03 	cmpl   $0x3,-0x1e68(%rbp)
   120e6:	7e dd                	jle    120c5 <func_32+0x16ed>
   120e8:	8b 85 74 e2 ff ff    	mov    -0x1d8c(%rbp),%eax
   120ee:	48 98                	cltq   
   120f0:	48 39 85 38 e1 ff ff 	cmp    %rax,-0x1ec8(%rbp)
   120f7:	0f 93 c0             	setae  %al
   120fa:	0f b6 d0             	movzbl %al,%edx
   120fd:	48 8b 8d a8 e5 ff ff 	mov    -0x1a58(%rbp),%rcx
   12104:	48 8b 85 10 e5 ff ff 	mov    -0x1af0(%rbp),%rax
   1210b:	48 89 08             	mov    %rcx,(%rax)
   1210e:	48 8b 85 10 e5 ff ff 	mov    -0x1af0(%rbp),%rax
   12115:	48 8b 08             	mov    (%rax),%rcx
   12118:	48 8b 85 18 e5 ff ff 	mov    -0x1ae8(%rbp),%rax
   1211f:	48 8d b5 60 f1 ff ff 	lea    -0xea0(%rbp),%rsi
   12126:	48 81 c6 d0 04 00 00 	add    $0x4d0,%rsi
   1212d:	48 89 30             	mov    %rsi,(%rax)
   12130:	48 8b 85 18 e5 ff ff 	mov    -0x1ae8(%rbp),%rax
   12137:	48 8b 00             	mov    (%rax),%rax
   1213a:	48 39 c1             	cmp    %rax,%rcx
   1213d:	0f 95 c0             	setne  %al
   12140:	0f b6 f0             	movzbl %al,%esi
   12143:	0f bf bd 44 e1 ff ff 	movswl -0x1ebc(%rbp),%edi
   1214a:	8b 05 64 31 01 00    	mov    0x13164(%rip),%eax        # 252b4 <g_641>
   12150:	8d 48 01             	lea    0x1(%rax),%ecx
   12153:	89 0d 5b 31 01 00    	mov    %ecx,0x1315b(%rip)        # 252b4 <g_641>
   12159:	09 f8                	or     %edi,%eax
   1215b:	f7 d0                	not    %eax
   1215d:	39 c6                	cmp    %eax,%esi
   1215f:	0f 95 c0             	setne  %al
   12162:	89 c1                	mov    %eax,%ecx
   12164:	0f b6 85 5e e1 ff ff 	movzbl -0x1ea2(%rbp),%eax
   1216b:	21 c8                	and    %ecx,%eax
   1216d:	0f b6 c0             	movzbl %al,%eax
   12170:	89 d6                	mov    %edx,%esi
   12172:	89 c7                	mov    %eax,%edi
   12174:	e8 e1 a9 ff ff       	callq  cb5a <safe_add_func_uint8_t_u_u>
   12179:	84 c0                	test   %al,%al
   1217b:	0f 84 e7 02 00 00    	je     12468 <func_32+0x1a90>
   12181:	66 c7 85 82 e1 ff ff 	movw   $0xe614,-0x1e7e(%rbp)
   12188:	14 e6 
   1218a:	c7 85 94 e2 ff ff 01 	movl   $0x1,-0x1d6c(%rbp)
   12191:	00 00 00 
   12194:	48 b8 fe 3a 6c e5 5b 	movabs $0xf1ad255be56c3afe,%rax
   1219b:	25 ad f1 
   1219e:	48 89 85 48 e5 ff ff 	mov    %rax,-0x1ab8(%rbp)
   121a5:	48 8d 05 bc 2f 01 00 	lea    0x12fbc(%rip),%rax        # 25168 <g_12>
   121ac:	48 89 85 70 ed ff ff 	mov    %rax,-0x1290(%rbp)
   121b3:	48 8d 05 ae 2f 01 00 	lea    0x12fae(%rip),%rax        # 25168 <g_12>
   121ba:	48 89 85 78 ed ff ff 	mov    %rax,-0x1288(%rbp)
   121c1:	48 8d 05 a0 2f 01 00 	lea    0x12fa0(%rip),%rax        # 25168 <g_12>
   121c8:	48 89 85 80 ed ff ff 	mov    %rax,-0x1280(%rbp)
   121cf:	48 8d 05 92 2f 01 00 	lea    0x12f92(%rip),%rax        # 25168 <g_12>
   121d6:	48 89 85 88 ed ff ff 	mov    %rax,-0x1278(%rbp)
   121dd:	48 8d 05 84 2f 01 00 	lea    0x12f84(%rip),%rax        # 25168 <g_12>
   121e4:	48 89 85 90 ed ff ff 	mov    %rax,-0x1270(%rbp)
   121eb:	48 8d 05 76 2f 01 00 	lea    0x12f76(%rip),%rax        # 25168 <g_12>
   121f2:	48 89 85 98 ed ff ff 	mov    %rax,-0x1268(%rbp)
   121f9:	48 8d 05 68 2f 01 00 	lea    0x12f68(%rip),%rax        # 25168 <g_12>
   12200:	48 89 85 a0 ed ff ff 	mov    %rax,-0x1260(%rbp)
   12207:	48 8d 05 5a 2f 01 00 	lea    0x12f5a(%rip),%rax        # 25168 <g_12>
   1220e:	48 89 85 a8 ed ff ff 	mov    %rax,-0x1258(%rbp)
   12215:	48 8d 05 c0 2f 01 00 	lea    0x12fc0(%rip),%rax        # 251dc <g_508>
   1221c:	48 89 85 30 e3 ff ff 	mov    %rax,-0x1cd0(%rbp)
   12223:	48 c7 05 42 2f 01 00 	movq   $0x4,0x12f42(%rip)        # 25170 <g_49>
   1222a:	04 00 00 00 
   1222e:	e9 fb 00 00 00       	jmpq   1232e <func_32+0x1956>
   12233:	66 c7 85 6e e1 ff ff 	movw   $0x4df2,-0x1e92(%rbp)
   1223a:	f2 4d 
   1223c:	48 c7 05 89 2f 01 00 	movq   $0x0,0x12f89(%rip)        # 251d0 <g_394>
   12243:	00 00 00 00 
   12247:	eb 1d                	jmp    12266 <func_32+0x188e>
   12249:	48 c7 05 64 77 01 00 	movq   $0x0,0x17764(%rip)        # 299b8 <g_340>
   12250:	00 00 00 00 
   12254:	48 8b 05 75 2f 01 00 	mov    0x12f75(%rip),%rax        # 251d0 <g_394>
   1225b:	48 83 c0 01          	add    $0x1,%rax
   1225f:	48 89 05 6a 2f 01 00 	mov    %rax,0x12f6a(%rip)        # 251d0 <g_394>
   12266:	48 8b 05 63 2f 01 00 	mov    0x12f63(%rip),%rax        # 251d0 <g_394>
   1226d:	48 83 f8 02          	cmp    $0x2,%rax
   12271:	76 d6                	jbe    12249 <func_32+0x1871>
   12273:	c6 05 06 2f 01 00 00 	movb   $0x0,0x12f06(%rip)        # 25180 <g_80>
   1227a:	e9 8b 00 00 00       	jmpq   1230a <func_32+0x1932>
   1227f:	c7 85 98 e2 ff ff 78 	movl   $0x64776078,-0x1d68(%rbp)
   12286:	60 77 64 
   12289:	66 c7 05 46 2f 01 00 	movw   $0x0,0x12f46(%rip)        # 251d8 <g_453>
   12290:	00 00 
   12292:	90                   	nop
   12293:	0f b7 05 3e 2f 01 00 	movzwl 0x12f3e(%rip),%eax        # 251d8 <g_453>
   1229a:	66 85 c0             	test   %ax,%ax
   1229d:	78 2f                	js     122ce <func_32+0x18f6>
   1229f:	83 ad 98 e2 ff ff 01 	subl   $0x1,-0x1d68(%rbp)
   122a6:	0f b7 85 6e e1 ff ff 	movzwl -0x1e92(%rbp),%eax
   122ad:	83 e8 01             	sub    $0x1,%eax
   122b0:	66 89 85 6e e1 ff ff 	mov    %ax,-0x1e92(%rbp)
   122b7:	48 83 bd 38 e1 ff ff 	cmpq   $0x0,-0x1ec8(%rbp)
   122be:	00 
   122bf:	75 0c                	jne    122cd <func_32+0x18f5>
   122c1:	48 8b 85 38 e1 ff ff 	mov    -0x1ec8(%rbp),%rax
   122c8:	e9 6a 38 00 00       	jmpq   15b37 <func_32+0x515f>
   122cd:	90                   	nop
   122ce:	48 83 bd 38 e1 ff ff 	cmpq   $0x0,-0x1ec8(%rbp)
   122d5:	00 
   122d6:	75 43                	jne    1231b <func_32+0x1943>
   122d8:	c7 05 fa 2e 01 00 04 	movl   $0x4,0x12efa(%rip)        # 251dc <g_508>
   122df:	00 00 00 
   122e2:	90                   	nop
   122e3:	8b 05 f3 2e 01 00    	mov    0x12ef3(%rip),%eax        # 251dc <g_508>
   122e9:	85 c0                	test   %eax,%eax
   122eb:	78 0d                	js     122fa <func_32+0x1922>
   122ed:	48 0f bf 85 44 e1 ff 	movswq -0x1ebc(%rbp),%rax
   122f4:	ff 
   122f5:	e9 3d 38 00 00       	jmpq   15b37 <func_32+0x515f>
   122fa:	0f b6 05 7f 2e 01 00 	movzbl 0x12e7f(%rip),%eax        # 25180 <g_80>
   12301:	83 c0 01             	add    $0x1,%eax
   12304:	88 05 76 2e 01 00    	mov    %al,0x12e76(%rip)        # 25180 <g_80>
   1230a:	0f b6 05 6f 2e 01 00 	movzbl 0x12e6f(%rip),%eax        # 25180 <g_80>
   12311:	3c 04                	cmp    $0x4,%al
   12313:	0f 8e 66 ff ff ff    	jle    1227f <func_32+0x18a7>
   12319:	eb 01                	jmp    1231c <func_32+0x1944>
   1231b:	90                   	nop
   1231c:	48 8b 05 4d 2e 01 00 	mov    0x12e4d(%rip),%rax        # 25170 <g_49>
   12323:	48 83 e8 01          	sub    $0x1,%rax
   12327:	48 89 05 42 2e 01 00 	mov    %rax,0x12e42(%rip)        # 25170 <g_49>
   1232e:	48 8b 05 3b 2e 01 00 	mov    0x12e3b(%rip),%rax        # 25170 <g_49>
   12335:	48 85 c0             	test   %rax,%rax
   12338:	0f 89 f5 fe ff ff    	jns    12233 <func_32+0x185b>
   1233e:	8b 05 20 2e 01 00    	mov    0x12e20(%rip),%eax        # 25164 <g_9>
   12344:	09 85 94 e2 ff ff    	or     %eax,-0x1d6c(%rbp)
   1234a:	8b 05 68 2d 01 00    	mov    0x12d68(%rip),%eax        # 250b8 <g_3+0x78>
   12350:	0f b7 d8             	movzwl %ax,%ebx
   12353:	48 83 bd 48 e1 ff ff 	cmpq   $0x0,-0x1eb8(%rbp)
   1235a:	00 
   1235b:	74 5a                	je     123b7 <func_32+0x19df>
   1235d:	48 8b 85 80 ed ff ff 	mov    -0x1280(%rbp),%rax
   12364:	48 8d 15 b1 2f 01 00 	lea    0x12fb1(%rip),%rdx        # 2531c <g_842+0x3c>
   1236b:	48 89 95 30 e3 ff ff 	mov    %rdx,-0x1cd0(%rbp)
   12372:	48 39 85 30 e3 ff ff 	cmp    %rax,-0x1cd0(%rbp)
   12379:	74 08                	je     12383 <func_32+0x19ab>
   1237b:	8b 05 2f 76 01 00    	mov    0x1762f(%rip),%eax        # 299b0 <g_145>
   12381:	85 c0                	test   %eax,%eax
   12383:	48 83 bd 40 e3 ff ff 	cmpq   $0x0,-0x1cc0(%rbp)
   1238a:	00 
   1238b:	74 07                	je     12394 <func_32+0x19bc>
   1238d:	ba fd ff 00 00       	mov    $0xfffd,%edx
   12392:	eb 05                	jmp    12399 <func_32+0x19c1>
   12394:	ba fc ff 00 00       	mov    $0xfffc,%edx
   12399:	48 8b 85 48 e5 ff ff 	mov    -0x1ab8(%rbp),%rax
   123a0:	48 39 c2             	cmp    %rax,%rdx
   123a3:	0f 93 c0             	setae  %al
   123a6:	0f b6 c0             	movzbl %al,%eax
   123a9:	be 02 00 00 00       	mov    $0x2,%esi
   123ae:	89 c7                	mov    %eax,%edi
   123b0:	e8 70 ab ff ff       	callq  cf25 <safe_div_func_uint32_t_u_u>
   123b5:	85 c0                	test   %eax,%eax
   123b7:	0f b6 15 38 2e 01 00 	movzbl 0x12e38(%rip),%edx        # 251f6 <g_640+0x16>
   123be:	0f b6 05 fd 2d 01 00 	movzbl 0x12dfd(%rip),%eax        # 251c2 <g_312>
   123c5:	38 c2                	cmp    %al,%dl
   123c7:	0f 9d c0             	setge  %al
   123ca:	0f b6 c0             	movzbl %al,%eax
   123cd:	66 23 85 44 e1 ff ff 	and    -0x1ebc(%rbp),%ax
   123d4:	0f b7 c0             	movzwl %ax,%eax
   123d7:	89 de                	mov    %ebx,%esi
   123d9:	89 c7                	mov    %eax,%edi
   123db:	e8 5d a9 ff ff       	callq  cd3d <safe_mul_func_uint16_t_u_u>
   123e0:	0f b7 c0             	movzwl %ax,%eax
   123e3:	48 39 85 48 e1 ff ff 	cmp    %rax,-0x1eb8(%rbp)
   123ea:	0f 95 c0             	setne  %al
   123ed:	0f b6 d0             	movzbl %al,%edx
   123f0:	0f bf 85 44 e1 ff ff 	movswl -0x1ebc(%rbp),%eax
   123f7:	89 d6                	mov    %edx,%esi
   123f9:	89 c7                	mov    %eax,%edi
   123fb:	e8 b8 aa ff ff       	callq  ceb8 <safe_add_func_uint32_t_u_u>
   12400:	89 c2                	mov    %eax,%edx
   12402:	48 8b 85 38 e1 ff ff 	mov    -0x1ec8(%rbp),%rax
   12409:	21 d0                	and    %edx,%eax
   1240b:	0f be c0             	movsbl %al,%eax
   1240e:	be fe ff ff ff       	mov    $0xfffffffe,%esi
   12413:	89 c7                	mov    %eax,%edi
   12415:	e8 f8 9d ff ff       	callq  c212 <safe_mul_func_int8_t_s_s>
   1241a:	0f b6 c0             	movzbl %al,%eax
   1241d:	be dd 00 00 00       	mov    $0xdd,%esi
   12422:	89 c7                	mov    %eax,%edi
   12424:	e8 b2 a7 ff ff       	callq  cbdb <safe_div_func_uint8_t_u_u>
   12429:	0f b6 d0             	movzbl %al,%edx
   1242c:	0f b7 05 8d 2d 01 00 	movzwl 0x12d8d(%rip),%eax        # 251c0 <g_266>
   12433:	66 39 c2             	cmp    %ax,%dx
   12436:	0f 96 c0             	setbe  %al
   12439:	0f b6 c0             	movzbl %al,%eax
   1243c:	89 05 46 2d 01 00    	mov    %eax,0x12d46(%rip)        # 25188 <g_98>
   12442:	48 8b 85 48 e1 ff ff 	mov    -0x1eb8(%rbp),%rax
   12449:	89 c2                	mov    %eax,%edx
   1244b:	48 8b 85 30 e3 ff ff 	mov    -0x1cd0(%rbp),%rax
   12452:	89 10                	mov    %edx,(%rax)
   12454:	48 8b 85 30 e3 ff ff 	mov    -0x1cd0(%rbp),%rax
   1245b:	8b 00                	mov    (%rax),%eax
   1245d:	89 85 74 e2 ff ff    	mov    %eax,-0x1d8c(%rbp)
   12463:	e9 11 02 00 00       	jmpq   12679 <func_32+0x1ca1>
   12468:	48 8d 05 59 75 01 00 	lea    0x17559(%rip),%rax        # 299c8 <g_687>
   1246f:	48 89 85 30 e5 ff ff 	mov    %rax,-0x1ad0(%rbp)
   12476:	c7 85 88 e2 ff ff 52 	movl   $0x2f525752,-0x1d78(%rbp)
   1247d:	57 52 2f 
   12480:	c7 85 8c e2 ff ff 02 	movl   $0x2,-0x1d74(%rbp)
   12487:	00 00 00 
   1248a:	48 8b 85 30 e5 ff ff 	mov    -0x1ad0(%rbp),%rax
   12491:	48 c7 00 00 00 00 00 	movq   $0x0,(%rax)
   12498:	48 8b 85 30 e5 ff ff 	mov    -0x1ad0(%rbp),%rax
   1249f:	48 8b 00             	mov    (%rax),%rax
   124a2:	48 8d 15 57 5c 01 00 	lea    0x15c57(%rip),%rdx        # 28100 <g_124>
   124a9:	48 39 d0             	cmp    %rdx,%rax
   124ac:	0f 84 af 01 00 00    	je     12661 <func_32+0x1c89>
   124b2:	48 c7 85 70 ed ff ff 	movq   $0xfffffffffffffffe,-0x1290(%rbp)
   124b9:	fe ff ff ff 
   124bd:	48 b8 74 42 c2 c2 74 	movabs $0x953c6b74c2c24274,%rax
   124c4:	6b 3c 95 
   124c7:	48 89 85 78 ed ff ff 	mov    %rax,-0x1288(%rbp)
   124ce:	48 c7 85 80 ed ff ff 	movq   $0xfffffffffffffffe,-0x1280(%rbp)
   124d5:	fe ff ff ff 
   124d9:	48 c7 85 88 ed ff ff 	movq   $0x0,-0x1278(%rbp)
   124e0:	00 00 00 00 
   124e4:	48 c7 85 90 ed ff ff 	movq   $0x0,-0x1270(%rbp)
   124eb:	00 00 00 00 
   124ef:	48 c7 85 98 ed ff ff 	movq   $0xfffffffffffffffe,-0x1268(%rbp)
   124f6:	fe ff ff ff 
   124fa:	48 89 85 a0 ed ff ff 	mov    %rax,-0x1260(%rbp)
   12501:	48 c7 85 a8 ed ff ff 	movq   $0xfffffffffffffffe,-0x1258(%rbp)
   12508:	fe ff ff ff 
   1250c:	48 c7 85 b0 ed ff ff 	movq   $0x0,-0x1250(%rbp)
   12513:	00 00 00 00 
   12517:	48 c7 85 b8 ed ff ff 	movq   $0x0,-0x1248(%rbp)
   1251e:	00 00 00 00 
   12522:	c7 05 5c 2c 01 00 00 	movl   $0x0,0x12c5c(%rip)        # 25188 <g_98>
   12529:	00 00 00 
   1252c:	e9 20 01 00 00       	jmpq   12651 <func_32+0x1c79>
   12531:	c6 85 69 e1 ff ff 87 	movb   $0x87,-0x1e97(%rbp)
   12538:	8b 05 c2 2d 01 00    	mov    0x12dc2(%rip),%eax        # 25300 <g_842+0x20>
   1253e:	48 8b 95 48 e1 ff ff 	mov    -0x1eb8(%rbp),%rdx
   12545:	31 d0                	xor    %edx,%eax
   12547:	89 05 b3 2d 01 00    	mov    %eax,0x12db3(%rip)        # 25300 <g_842+0x20>
   1254d:	c7 05 65 2c 01 00 00 	movl   $0x0,0x12c65(%rip)        # 251bc <g_248>
   12554:	00 00 00 
   12557:	90                   	nop
   12558:	8b 05 5e 2c 01 00    	mov    0x12c5e(%rip),%eax        # 251bc <g_248>
   1255e:	83 f8 02             	cmp    $0x2,%eax
   12561:	77 26                	ja     12589 <func_32+0x1bb1>
   12563:	c7 85 90 e2 ff ff ff 	movl   $0xffffffff,-0x1d70(%rbp)
   1256a:	ff ff ff 
   1256d:	0f b6 85 69 e1 ff ff 	movzbl -0x1e97(%rbp),%eax
   12574:	89 85 90 e2 ff ff    	mov    %eax,-0x1d70(%rbp)
   1257a:	48 8b 05 7f 5b 01 00 	mov    0x15b7f(%rip),%rax        # 28100 <g_124>
   12581:	48 8b 00             	mov    (%rax),%rax
   12584:	e9 ae 35 00 00       	jmpq   15b37 <func_32+0x515f>
   12589:	c7 05 25 2d 01 00 00 	movl   $0x0,0x12d25(%rip)        # 252b8 <g_741>
   12590:	00 00 00 
   12593:	e9 9c 00 00 00       	jmpq   12634 <func_32+0x1c5c>
   12598:	48 c7 85 38 e5 ff ff 	movq   $0x0,-0x1ac8(%rbp)
   1259f:	00 00 00 00 
   125a3:	48 8d 05 0e 74 01 00 	lea    0x1740e(%rip),%rax        # 299b8 <g_340>
   125aa:	48 89 85 40 e5 ff ff 	mov    %rax,-0x1ac0(%rbp)
   125b1:	c7 85 9c e1 ff ff 00 	movl   $0x0,-0x1e64(%rbp)
   125b8:	00 00 00 
   125bb:	eb 1e                	jmp    125db <func_32+0x1c03>
   125bd:	8b 85 9c e1 ff ff    	mov    -0x1e64(%rbp),%eax
   125c3:	48 98                	cltq   
   125c5:	48 8d 15 ec 73 01 00 	lea    0x173ec(%rip),%rdx        # 299b8 <g_340>
   125cc:	48 89 94 c5 30 e9 ff 	mov    %rdx,-0x16d0(%rbp,%rax,8)
   125d3:	ff 
   125d4:	83 85 9c e1 ff ff 01 	addl   $0x1,-0x1e64(%rbp)
   125db:	83 bd 9c e1 ff ff 04 	cmpl   $0x4,-0x1e64(%rbp)
   125e2:	7e d9                	jle    125bd <func_32+0x1be5>
   125e4:	48 8b 85 40 e5 ff ff 	mov    -0x1ac0(%rbp),%rax
   125eb:	48 8b 95 38 e5 ff ff 	mov    -0x1ac8(%rbp),%rdx
   125f2:	48 89 10             	mov    %rdx,(%rax)
   125f5:	48 8b 95 80 ed ff ff 	mov    -0x1280(%rbp),%rdx
   125fc:	48 0f bf 85 44 e1 ff 	movswq -0x1ebc(%rbp),%rax
   12603:	ff 
   12604:	48 21 d0             	and    %rdx,%rax
   12607:	48 89 85 80 ed ff ff 	mov    %rax,-0x1280(%rbp)
   1260e:	48 8b 85 80 ed ff ff 	mov    -0x1280(%rbp),%rax
   12615:	89 c2                	mov    %eax,%edx
   12617:	8b 05 9b 2b 01 00    	mov    0x12b9b(%rip),%eax        # 251b8 <g_217>
   1261d:	31 d0                	xor    %edx,%eax
   1261f:	89 05 93 2b 01 00    	mov    %eax,0x12b93(%rip)        # 251b8 <g_217>
   12625:	8b 05 8d 2c 01 00    	mov    0x12c8d(%rip),%eax        # 252b8 <g_741>
   1262b:	83 c0 01             	add    $0x1,%eax
   1262e:	89 05 84 2c 01 00    	mov    %eax,0x12c84(%rip)        # 252b8 <g_741>
   12634:	8b 05 7e 2c 01 00    	mov    0x12c7e(%rip),%eax        # 252b8 <g_741>
   1263a:	85 c0                	test   %eax,%eax
   1263c:	0f 84 56 ff ff ff    	je     12598 <func_32+0x1bc0>
   12642:	8b 05 40 2b 01 00    	mov    0x12b40(%rip),%eax        # 25188 <g_98>
   12648:	83 c0 01             	add    $0x1,%eax
   1264b:	89 05 37 2b 01 00    	mov    %eax,0x12b37(%rip)        # 25188 <g_98>
   12651:	8b 05 31 2b 01 00    	mov    0x12b31(%rip),%eax        # 25188 <g_98>
   12657:	85 c0                	test   %eax,%eax
   12659:	0f 8e d2 fe ff ff    	jle    12531 <func_32+0x1b59>
   1265f:	eb 18                	jmp    12679 <func_32+0x1ca1>
   12661:	8b 05 9d 2c 01 00    	mov    0x12c9d(%rip),%eax        # 25304 <g_842+0x24>
   12667:	89 05 97 2c 01 00    	mov    %eax,0x12c97(%rip)        # 25304 <g_842+0x24>
   1266d:	8b 05 91 2c 01 00    	mov    0x12c91(%rip),%eax        # 25304 <g_842+0x24>
   12673:	31 85 8c e2 ff ff    	xor    %eax,-0x1d74(%rbp)
   12679:	8b 05 9d 2c 01 00    	mov    0x12c9d(%rip),%eax        # 2531c <g_842+0x3c>
   1267f:	25 ae 21 0d 66       	and    $0x660d21ae,%eax
   12684:	89 05 92 2c 01 00    	mov    %eax,0x12c92(%rip)        # 2531c <g_842+0x3c>
   1268a:	c7 05 24 2c 01 00 00 	movl   $0x0,0x12c24(%rip)        # 252b8 <g_741>
   12691:	00 00 00 
   12694:	e9 4d 0d 00 00       	jmpq   133e6 <func_32+0x2a0e>
   12699:	48 b8 c8 f1 05 af e8 	movabs $0x5b97e6e8af05f1c8,%rax
   126a0:	e6 97 5b 
   126a3:	48 89 85 38 e3 ff ff 	mov    %rax,-0x1cc8(%rbp)
   126aa:	66 c7 85 84 e1 ff ff 	movw   $0x0,-0x1e7c(%rbp)
   126b1:	00 00 
   126b3:	c7 85 b0 e2 ff ff 08 	movl   $0x8,-0x1d50(%rbp)
   126ba:	00 00 00 
   126bd:	c7 85 a0 e1 ff ff 14 	movl   $0x61c6db14,-0x1e60(%rbp)
   126c4:	db c6 61 
   126c7:	c7 85 b4 e2 ff ff 05 	movl   $0x185aaa05,-0x1d4c(%rbp)
   126ce:	aa 5a 18 
   126d1:	48 c7 85 50 e5 ff ff 	movq   $0x0,-0x1ab0(%rbp)
   126d8:	00 00 00 00 
   126dc:	c6 85 6b e1 ff ff f9 	movb   $0xf9,-0x1e95(%rbp)
   126e3:	c7 85 30 e9 ff ff 06 	movl   $0x6,-0x16d0(%rbp)
   126ea:	00 00 00 
   126ed:	c7 85 34 e9 ff ff 08 	movl   $0x8,-0x16cc(%rbp)
   126f4:	00 00 00 
   126f7:	c7 85 38 e9 ff ff 06 	movl   $0x6,-0x16c8(%rbp)
   126fe:	00 00 00 
   12701:	c7 85 3c e9 ff ff 06 	movl   $0x6,-0x16c4(%rbp)
   12708:	00 00 00 
   1270b:	c7 85 40 e9 ff ff 08 	movl   $0x8,-0x16c0(%rbp)
   12712:	00 00 00 
   12715:	c7 85 44 e9 ff ff 08 	movl   $0x8,-0x16bc(%rbp)
   1271c:	00 00 00 
   1271f:	c7 85 48 e9 ff ff be 	movl   $0x44c8c3be,-0x16b8(%rbp)
   12726:	c3 c8 44 
   12729:	c7 85 4c e9 ff ff 08 	movl   $0x8,-0x16b4(%rbp)
   12730:	00 00 00 
   12733:	c7 85 50 e9 ff ff 08 	movl   $0x8,-0x16b0(%rbp)
   1273a:	00 00 00 
   1273d:	c7 85 54 e9 ff ff 06 	movl   $0x6,-0x16ac(%rbp)
   12744:	00 00 00 
   12747:	c7 85 58 e9 ff ff 06 	movl   $0x6,-0x16a8(%rbp)
   1274e:	00 00 00 
   12751:	c7 85 5c e9 ff ff 08 	movl   $0x8,-0x16a4(%rbp)
   12758:	00 00 00 
   1275b:	c7 85 60 e9 ff ff 06 	movl   $0x6,-0x16a0(%rbp)
   12762:	00 00 00 
   12765:	c7 85 64 e9 ff ff 08 	movl   $0x8,-0x169c(%rbp)
   1276c:	00 00 00 
   1276f:	c7 85 68 e9 ff ff 06 	movl   $0x6,-0x1698(%rbp)
   12776:	00 00 00 
   12779:	c7 85 6c e9 ff ff 06 	movl   $0x6,-0x1694(%rbp)
   12780:	00 00 00 
   12783:	c7 85 70 e9 ff ff 08 	movl   $0x8,-0x1690(%rbp)
   1278a:	00 00 00 
   1278d:	c7 85 74 e9 ff ff 08 	movl   $0x8,-0x168c(%rbp)
   12794:	00 00 00 
   12797:	c7 85 78 e9 ff ff be 	movl   $0x44c8c3be,-0x1688(%rbp)
   1279e:	c3 c8 44 
   127a1:	c7 85 7c e9 ff ff 08 	movl   $0x8,-0x1684(%rbp)
   127a8:	00 00 00 
   127ab:	c7 85 80 e9 ff ff 08 	movl   $0x8,-0x1680(%rbp)
   127b2:	00 00 00 
   127b5:	c7 85 84 e9 ff ff 06 	movl   $0x6,-0x167c(%rbp)
   127bc:	00 00 00 
   127bf:	c7 85 88 e9 ff ff 06 	movl   $0x6,-0x1678(%rbp)
   127c6:	00 00 00 
   127c9:	c7 85 8c e9 ff ff 08 	movl   $0x8,-0x1674(%rbp)
   127d0:	00 00 00 
   127d3:	c7 85 90 e9 ff ff 06 	movl   $0x6,-0x1670(%rbp)
   127da:	00 00 00 
   127dd:	c7 85 94 e9 ff ff 08 	movl   $0x8,-0x166c(%rbp)
   127e4:	00 00 00 
   127e7:	c7 85 98 e9 ff ff 06 	movl   $0x6,-0x1668(%rbp)
   127ee:	00 00 00 
   127f1:	c7 85 9c e9 ff ff 06 	movl   $0x6,-0x1664(%rbp)
   127f8:	00 00 00 
   127fb:	c7 85 a0 e9 ff ff 08 	movl   $0x8,-0x1660(%rbp)
   12802:	00 00 00 
   12805:	c7 85 a4 e9 ff ff 08 	movl   $0x8,-0x165c(%rbp)
   1280c:	00 00 00 
   1280f:	c7 85 a8 e9 ff ff be 	movl   $0x44c8c3be,-0x1658(%rbp)
   12816:	c3 c8 44 
   12819:	c7 85 ac e9 ff ff 08 	movl   $0x8,-0x1654(%rbp)
   12820:	00 00 00 
   12823:	48 c7 85 58 e5 ff ff 	movq   $0x0,-0x1aa8(%rbp)
   1282a:	00 00 00 00 
   1282e:	c7 85 b8 e2 ff ff ff 	movl   $0xffffffff,-0x1d48(%rbp)
   12835:	ff ff ff 
   12838:	c7 85 a4 e1 ff ff 00 	movl   $0x0,-0x1e5c(%rbp)
   1283f:	00 00 00 
   12842:	eb 1e                	jmp    12862 <func_32+0x1e8a>
   12844:	8b 85 a4 e1 ff ff    	mov    -0x1e5c(%rbp),%eax
   1284a:	48 98                	cltq   
   1284c:	48 8d 15 cd 59 01 00 	lea    0x159cd(%rip),%rdx        # 28220 <g_766+0xe0>
   12853:	48 89 94 c5 60 e7 ff 	mov    %rdx,-0x18a0(%rbp,%rax,8)
   1285a:	ff 
   1285b:	83 85 a4 e1 ff ff 01 	addl   $0x1,-0x1e5c(%rbp)
   12862:	83 bd a4 e1 ff ff 00 	cmpl   $0x0,-0x1e5c(%rbp)
   12869:	7e d9                	jle    12844 <func_32+0x1e6c>
   1286b:	c7 05 43 29 01 00 00 	movl   $0x0,0x12943(%rip)        # 251b8 <g_217>
   12872:	00 00 00 
   12875:	e9 61 07 00 00       	jmpq   12fdb <func_32+0x2603>
   1287a:	c7 85 a8 e1 ff ff dd 	movl   $0xba1adddd,-0x1e58(%rbp)
   12881:	dd 1a ba 
   12884:	c7 85 ac e1 ff ff 00 	movl   $0x0,-0x1e54(%rbp)
   1288b:	00 00 00 
   1288e:	c7 85 b0 e1 ff ff 00 	movl   $0x0,-0x1e50(%rbp)
   12895:	00 00 00 
   12898:	eb 6c                	jmp    12906 <func_32+0x1f2e>
   1289a:	c7 85 b4 e1 ff ff 00 	movl   $0x0,-0x1e4c(%rbp)
   128a1:	00 00 00 
   128a4:	eb 50                	jmp    128f6 <func_32+0x1f1e>
   128a6:	c7 85 b8 e1 ff ff 00 	movl   $0x0,-0x1e48(%rbp)
   128ad:	00 00 00 
   128b0:	eb 34                	jmp    128e6 <func_32+0x1f0e>
   128b2:	8b 85 b8 e1 ff ff    	mov    -0x1e48(%rbp),%eax
   128b8:	48 63 d0             	movslq %eax,%rdx
   128bb:	8b 85 b4 e1 ff ff    	mov    -0x1e4c(%rbp),%eax
   128c1:	48 98                	cltq   
   128c3:	8b 8d b0 e1 ff ff    	mov    -0x1e50(%rbp),%ecx
   128c9:	48 63 c9             	movslq %ecx,%rcx
   128cc:	48 01 c9             	add    %rcx,%rcx
   128cf:	48 01 ca             	add    %rcx,%rdx
   128d2:	48 01 d0             	add    %rdx,%rax
   128d5:	66 c7 84 45 90 e7 ff 	movw   $0x1,-0x1870(%rbp,%rax,2)
   128dc:	ff 01 00 
   128df:	83 85 b8 e1 ff ff 01 	addl   $0x1,-0x1e48(%rbp)
   128e6:	83 bd b8 e1 ff ff 00 	cmpl   $0x0,-0x1e48(%rbp)
   128ed:	7e c3                	jle    128b2 <func_32+0x1eda>
   128ef:	83 85 b4 e1 ff ff 01 	addl   $0x1,-0x1e4c(%rbp)
   128f6:	83 bd b4 e1 ff ff 01 	cmpl   $0x1,-0x1e4c(%rbp)
   128fd:	7e a7                	jle    128a6 <func_32+0x1ece>
   128ff:	83 85 b0 e1 ff ff 01 	addl   $0x1,-0x1e50(%rbp)
   12906:	83 bd b0 e1 ff ff 01 	cmpl   $0x1,-0x1e50(%rbp)
   1290d:	7e 8b                	jle    1289a <func_32+0x1ec2>
   1290f:	48 c7 05 56 28 01 00 	movq   $0x2,0x12856(%rip)        # 25170 <g_49>
   12916:	02 00 00 00 
   1291a:	e9 7c 01 00 00       	jmpq   12a9b <func_32+0x20c3>
   1291f:	c7 85 c4 e2 ff ff fb 	movl   $0xfffffffb,-0x1d3c(%rbp)
   12926:	ff ff ff 
   12929:	48 c7 85 78 e5 ff ff 	movq   $0x0,-0x1a88(%rbp)
   12930:	00 00 00 00 
   12934:	48 c7 85 80 e5 ff ff 	movq   $0x0,-0x1a80(%rbp)
   1293b:	00 00 00 00 
   1293f:	48 83 bd 38 e1 ff ff 	cmpq   $0x0,-0x1ec8(%rbp)
   12946:	00 
   12947:	0f 85 60 01 00 00    	jne    12aad <func_32+0x20d5>
   1294d:	0f b6 05 cc 29 01 00 	movzbl 0x129cc(%rip),%eax        # 25320 <g_950>
   12954:	66 98                	cbtw   
   12956:	0f b7 c0             	movzwl %ax,%eax
   12959:	be 04 00 00 00       	mov    $0x4,%esi
   1295e:	89 c7                	mov    %eax,%edi
   12960:	e8 e3 a4 ff ff       	callq  ce48 <safe_rshift_func_uint16_t_u_s>
   12965:	0f b7 c0             	movzwl %ax,%eax
   12968:	89 05 6e 28 01 00    	mov    %eax,0x1286e(%rip)        # 251dc <g_508>
   1296e:	c6 05 0b 28 01 00 01 	movb   $0x1,0x1280b(%rip)        # 25180 <g_80>
   12975:	eb 5f                	jmp    129d6 <func_32+0x1ffe>
   12977:	c7 85 18 e3 ff ff ff 	movl   $0xffffffff,-0x1ce8(%rbp)
   1297e:	ff ff ff 
   12981:	48 83 85 38 e3 ff ff 	addq   $0x1,-0x1cc8(%rbp)
   12988:	01 
   12989:	0f b6 05 f0 27 01 00 	movzbl 0x127f0(%rip),%eax        # 25180 <g_80>
   12990:	0f be c0             	movsbl %al,%eax
   12993:	48 98                	cltq   
   12995:	48 8d 15 27 28 01 00 	lea    0x12827(%rip),%rdx        # 251c3 <g_323>
   1299c:	0f b6 04 10          	movzbl (%rax,%rdx,1),%eax
   129a0:	0f be c0             	movsbl %al,%eax
   129a3:	be 06 00 00 00       	mov    $0x6,%esi
   129a8:	89 c7                	mov    %eax,%edi
   129aa:	e8 86 99 ff ff       	callq  c335 <safe_rshift_func_int8_t_s_s>
   129af:	0f be c0             	movsbl %al,%eax
   129b2:	89 85 18 e3 ff ff    	mov    %eax,-0x1ce8(%rbp)
   129b8:	48 8d 85 18 e3 ff ff 	lea    -0x1ce8(%rbp),%rax
   129bf:	48 89 05 f2 6f 01 00 	mov    %rax,0x16ff2(%rip)        # 299b8 <g_340>
   129c6:	0f b6 05 b3 27 01 00 	movzbl 0x127b3(%rip),%eax        # 25180 <g_80>
   129cd:	83 e8 01             	sub    $0x1,%eax
   129d0:	88 05 aa 27 01 00    	mov    %al,0x127aa(%rip)        # 25180 <g_80>
   129d6:	0f b6 05 a3 27 01 00 	movzbl 0x127a3(%rip),%eax        # 25180 <g_80>
   129dd:	84 c0                	test   %al,%al
   129df:	79 96                	jns    12977 <func_32+0x1f9f>
   129e1:	0f b7 05 d8 27 01 00 	movzwl 0x127d8(%rip),%eax        # 251c0 <g_266>
   129e8:	66 85 c0             	test   %ax,%ax
   129eb:	0f 94 c0             	sete   %al
   129ee:	0f b6 c0             	movzbl %al,%eax
   129f1:	89 c6                	mov    %eax,%esi
   129f3:	bf d9 ff ff ff       	mov    $0xffffffd9,%edi
   129f8:	e8 15 98 ff ff       	callq  c212 <safe_mul_func_int8_t_s_s>
   129fd:	48 0f be d0          	movsbq %al,%rdx
   12a01:	48 8b 85 38 e1 ff ff 	mov    -0x1ec8(%rbp),%rax
   12a08:	48 89 d6             	mov    %rdx,%rsi
   12a0b:	48 89 c7             	mov    %rax,%rdi
   12a0e:	e8 38 a6 ff ff       	callq  d04b <safe_sub_func_uint64_t_u_u>
   12a13:	48 8b 95 48 e1 ff ff 	mov    -0x1eb8(%rbp),%rdx
   12a1a:	48 39 d0             	cmp    %rdx,%rax
   12a1d:	0f 95 c0             	setne  %al
   12a20:	0f b6 d0             	movzbl %al,%edx
   12a23:	8b 85 c4 e2 ff ff    	mov    -0x1d3c(%rbp),%eax
   12a29:	89 d6                	mov    %edx,%esi
   12a2b:	89 c7                	mov    %eax,%edi
   12a2d:	e8 d3 9b ff ff       	callq  c605 <safe_sub_func_int32_t_s_s>
   12a32:	8b 85 c4 e2 ff ff    	mov    -0x1d3c(%rbp),%eax
   12a38:	89 85 a8 e1 ff ff    	mov    %eax,-0x1e58(%rbp)
   12a3e:	8b 85 a8 e1 ff ff    	mov    -0x1e58(%rbp),%eax
   12a44:	98                   	cwtl   
   12a45:	be ff ff ff ff       	mov    $0xffffffff,%esi
   12a4a:	89 c7                	mov    %eax,%edi
   12a4c:	e8 a4 99 ff ff       	callq  c3f5 <safe_mul_func_int16_t_s_s>
   12a51:	98                   	cwtl   
   12a52:	89 c6                	mov    %eax,%esi
   12a54:	bf 0f 3e 00 00       	mov    $0x3e0f,%edi
   12a59:	e8 75 99 ff ff       	callq  c3d3 <safe_sub_func_int16_t_s_s>
   12a5e:	48 0f bf c0          	movswq %ax,%rax
   12a62:	48 89 c6             	mov    %rax,%rsi
   12a65:	48 bf ef 72 dd 83 b3 	movabs $0x582977b383dd72ef,%rdi
   12a6c:	77 29 58 
   12a6f:	e8 ba a5 ff ff       	callq  d02e <safe_add_func_uint64_t_u_u>
   12a74:	25 e9 77 f2 7e       	and    $0x7ef277e9,%eax
   12a79:	48 83 f8 fd          	cmp    $0xfffffffffffffffd,%rax
   12a7d:	0f 97 c0             	seta   %al
   12a80:	0f b6 c0             	movzbl %al,%eax
   12a83:	89 85 ac e1 ff ff    	mov    %eax,-0x1e54(%rbp)
   12a89:	48 8b 05 e0 26 01 00 	mov    0x126e0(%rip),%rax        # 25170 <g_49>
   12a90:	48 83 e8 01          	sub    $0x1,%rax
   12a94:	48 89 05 d5 26 01 00 	mov    %rax,0x126d5(%rip)        # 25170 <g_49>
   12a9b:	48 8b 05 ce 26 01 00 	mov    0x126ce(%rip),%rax        # 25170 <g_49>
   12aa2:	48 85 c0             	test   %rax,%rax
   12aa5:	0f 89 74 fe ff ff    	jns    1291f <func_32+0x1f47>
   12aab:	eb 01                	jmp    12aae <func_32+0x20d6>
   12aad:	90                   	nop
   12aae:	c6 05 6b 28 01 00 04 	movb   $0x4,0x1286b(%rip)        # 25320 <g_950>
   12ab5:	e9 03 05 00 00       	jmpq   12fbd <func_32+0x25e5>
   12aba:	c6 85 6c e1 ff ff ff 	movb   $0xff,-0x1e94(%rbp)
   12ac1:	c6 85 6d e1 ff ff 14 	movb   $0x14,-0x1e93(%rbp)
   12ac8:	c7 85 c8 e2 ff ff 04 	movl   $0x4,-0x1d38(%rbp)
   12acf:	00 00 00 
   12ad2:	c7 85 cc e2 ff ff 4a 	movl   $0x57252e4a,-0x1d34(%rbp)
   12ad9:	2e 25 57 
   12adc:	c7 85 bc e1 ff ff 00 	movl   $0x0,-0x1e44(%rbp)
   12ae3:	00 00 00 
   12ae6:	eb 1e                	jmp    12b06 <func_32+0x212e>
   12ae8:	8b 85 bc e1 ff ff    	mov    -0x1e44(%rbp),%eax
   12aee:	48 98                	cltq   
   12af0:	48 8d 15 d1 27 01 00 	lea    0x127d1(%rip),%rdx        # 252c8 <g_841>
   12af7:	48 89 94 c5 80 e8 ff 	mov    %rdx,-0x1780(%rbp,%rax,8)
   12afe:	ff 
   12aff:	83 85 bc e1 ff ff 01 	addl   $0x1,-0x1e44(%rbp)
   12b06:	83 bd bc e1 ff ff 02 	cmpl   $0x2,-0x1e44(%rbp)
   12b0d:	7e d9                	jle    12ae8 <func_32+0x2110>
   12b0f:	48 83 bd 38 e1 ff ff 	cmpq   $0x0,-0x1ec8(%rbp)
   12b16:	00 
   12b17:	74 31                	je     12b4a <func_32+0x2172>
   12b19:	48 8d 05 68 26 01 00 	lea    0x12668(%rip),%rax        # 25188 <g_98>
   12b20:	48 89 05 91 6e 01 00 	mov    %rax,0x16e91(%rip)        # 299b8 <g_340>
   12b27:	48 83 bd 38 e1 ff ff 	cmpq   $0x0,-0x1ec8(%rbp)
   12b2e:	00 
   12b2f:	0f 85 77 04 00 00    	jne    12fac <func_32+0x25d4>
   12b35:	0f b6 85 6c e1 ff ff 	movzbl -0x1e94(%rbp),%eax
   12b3c:	83 e8 01             	sub    $0x1,%eax
   12b3f:	88 85 6c e1 ff ff    	mov    %al,-0x1e94(%rbp)
   12b45:	e9 a3 03 00 00       	jmpq   12eed <func_32+0x2515>
   12b4a:	48 8d 05 72 26 01 00 	lea    0x12672(%rip),%rax        # 251c3 <g_323>
   12b51:	48 89 85 88 e5 ff ff 	mov    %rax,-0x1a78(%rbp)
   12b58:	c7 85 70 ed ff ff ff 	movl   $0xffffffff,-0x1290(%rbp)
   12b5f:	ff ff ff 
   12b62:	c7 85 74 ed ff ff ff 	movl   $0xffffffff,-0x128c(%rbp)
   12b69:	ff ff ff 
   12b6c:	c7 85 78 ed ff ff ff 	movl   $0xffffffff,-0x1288(%rbp)
   12b73:	ff ff ff 
   12b76:	c7 85 7c ed ff ff ff 	movl   $0xffffffff,-0x1284(%rbp)
   12b7d:	ff ff ff 
   12b80:	c7 85 80 ed ff ff ff 	movl   $0xffffffff,-0x1280(%rbp)
   12b87:	ff ff ff 
   12b8a:	c7 85 84 ed ff ff ff 	movl   $0xffffffff,-0x127c(%rbp)
   12b91:	ff ff ff 
   12b94:	c7 85 88 ed ff ff ff 	movl   $0xffffffff,-0x1278(%rbp)
   12b9b:	ff ff ff 
   12b9e:	c7 85 8c ed ff ff ff 	movl   $0xffffffff,-0x1274(%rbp)
   12ba5:	ff ff ff 
   12ba8:	c7 85 90 ed ff ff ff 	movl   $0xffffffff,-0x1270(%rbp)
   12baf:	ff ff ff 
   12bb2:	c7 85 94 ed ff ff ff 	movl   $0xffffffff,-0x126c(%rbp)
   12bb9:	ff ff ff 
   12bbc:	c7 85 98 ed ff ff ff 	movl   $0xffffffff,-0x1268(%rbp)
   12bc3:	ff ff ff 
   12bc6:	c7 85 9c ed ff ff ff 	movl   $0xffffffff,-0x1264(%rbp)
   12bcd:	ff ff ff 
   12bd0:	c7 85 a0 ed ff ff ff 	movl   $0xffffffff,-0x1260(%rbp)
   12bd7:	ff ff ff 
   12bda:	c7 85 a4 ed ff ff ff 	movl   $0xffffffff,-0x125c(%rbp)
   12be1:	ff ff ff 
   12be4:	c7 85 a8 ed ff ff ff 	movl   $0xffffffff,-0x1258(%rbp)
   12beb:	ff ff ff 
   12bee:	c7 85 ac ed ff ff ff 	movl   $0xffffffff,-0x1254(%rbp)
   12bf5:	ff ff ff 
   12bf8:	c7 85 b0 ed ff ff ff 	movl   $0xffffffff,-0x1250(%rbp)
   12bff:	ff ff ff 
   12c02:	c7 85 b4 ed ff ff ff 	movl   $0xffffffff,-0x124c(%rbp)
   12c09:	ff ff ff 
   12c0c:	c7 85 b8 ed ff ff ff 	movl   $0xffffffff,-0x1248(%rbp)
   12c13:	ff ff ff 
   12c16:	c7 85 bc ed ff ff ff 	movl   $0xffffffff,-0x1244(%rbp)
   12c1d:	ff ff ff 
   12c20:	c7 85 c0 ed ff ff ff 	movl   $0xffffffff,-0x1240(%rbp)
   12c27:	ff ff ff 
   12c2a:	c7 85 c4 ed ff ff ff 	movl   $0xffffffff,-0x123c(%rbp)
   12c31:	ff ff ff 
   12c34:	c7 85 c8 ed ff ff ff 	movl   $0xffffffff,-0x1238(%rbp)
   12c3b:	ff ff ff 
   12c3e:	c7 85 cc ed ff ff ff 	movl   $0xffffffff,-0x1234(%rbp)
   12c45:	ff ff ff 
   12c48:	c7 85 d0 ed ff ff ff 	movl   $0xffffffff,-0x1230(%rbp)
   12c4f:	ff ff ff 
   12c52:	c7 85 d4 ed ff ff ff 	movl   $0xffffffff,-0x122c(%rbp)
   12c59:	ff ff ff 
   12c5c:	c7 85 d8 ed ff ff ff 	movl   $0xffffffff,-0x1228(%rbp)
   12c63:	ff ff ff 
   12c66:	c7 85 dc ed ff ff ff 	movl   $0xffffffff,-0x1224(%rbp)
   12c6d:	ff ff ff 
   12c70:	c7 85 e0 ed ff ff ff 	movl   $0xffffffff,-0x1220(%rbp)
   12c77:	ff ff ff 
   12c7a:	c7 85 e4 ed ff ff ff 	movl   $0xffffffff,-0x121c(%rbp)
   12c81:	ff ff ff 
   12c84:	c7 85 e8 ed ff ff ff 	movl   $0xffffffff,-0x1218(%rbp)
   12c8b:	ff ff ff 
   12c8e:	c7 85 ec ed ff ff ff 	movl   $0xffffffff,-0x1214(%rbp)
   12c95:	ff ff ff 
   12c98:	c7 85 f0 ed ff ff ff 	movl   $0xffffffff,-0x1210(%rbp)
   12c9f:	ff ff ff 
   12ca2:	c7 85 f4 ed ff ff ff 	movl   $0xffffffff,-0x120c(%rbp)
   12ca9:	ff ff ff 
   12cac:	c7 85 f8 ed ff ff ff 	movl   $0xffffffff,-0x1208(%rbp)
   12cb3:	ff ff ff 
   12cb6:	c7 85 fc ed ff ff ff 	movl   $0xffffffff,-0x1204(%rbp)
   12cbd:	ff ff ff 
   12cc0:	c7 85 00 ee ff ff ff 	movl   $0xffffffff,-0x1200(%rbp)
   12cc7:	ff ff ff 
   12cca:	c7 85 04 ee ff ff ff 	movl   $0xffffffff,-0x11fc(%rbp)
   12cd1:	ff ff ff 
   12cd4:	c7 85 08 ee ff ff ff 	movl   $0xffffffff,-0x11f8(%rbp)
   12cdb:	ff ff ff 
   12cde:	c7 85 0c ee ff ff ff 	movl   $0xffffffff,-0x11f4(%rbp)
   12ce5:	ff ff ff 
   12ce8:	c7 85 c0 e1 ff ff 00 	movl   $0x0,-0x1e40(%rbp)
   12cef:	00 00 00 
   12cf2:	eb 19                	jmp    12d0d <func_32+0x2335>
   12cf4:	8b 85 c0 e1 ff ff    	mov    -0x1e40(%rbp),%eax
   12cfa:	48 98                	cltq   
   12cfc:	66 c7 84 45 00 e7 ff 	movw   $0x3f43,-0x1900(%rbp,%rax,2)
   12d03:	ff 43 3f 
   12d06:	83 85 c0 e1 ff ff 01 	addl   $0x1,-0x1e40(%rbp)
   12d0d:	83 bd c0 e1 ff ff 02 	cmpl   $0x2,-0x1e40(%rbp)
   12d14:	7e de                	jle    12cf4 <func_32+0x231c>
   12d16:	0f b7 85 04 e7 ff ff 	movzwl -0x18fc(%rbp),%eax
   12d1d:	66 85 c0             	test   %ax,%ax
   12d20:	0f 84 9b 01 00 00    	je     12ec1 <func_32+0x24e9>
   12d26:	48 8b 05 db 53 01 00 	mov    0x153db(%rip),%rax        # 28108 <g_311>
   12d2d:	0f b6 00             	movzbl (%rax),%eax
   12d30:	48 0f be c0          	movsbq %al,%rax
   12d34:	48 39 85 38 e1 ff ff 	cmp    %rax,-0x1ec8(%rbp)
   12d3b:	0f 96 c0             	setbe  %al
   12d3e:	0f b6 c0             	movzbl %al,%eax
   12d41:	89 c7                	mov    %eax,%edi
   12d43:	e8 5e a1 ff ff       	callq  cea6 <safe_unary_minus_func_uint32_t_u>
   12d48:	85 c0                	test   %eax,%eax
   12d4a:	0f 84 71 01 00 00    	je     12ec1 <func_32+0x24e9>
   12d50:	48 0f bf 95 44 e1 ff 	movswq -0x1ebc(%rbp),%rdx
   12d57:	ff 
   12d58:	48 8b 05 a1 53 01 00 	mov    0x153a1(%rip),%rax        # 28100 <g_124>
   12d5f:	48 8b 00             	mov    (%rax),%rax
   12d62:	48 89 d6             	mov    %rdx,%rsi
   12d65:	48 89 c7             	mov    %rax,%rdi
   12d68:	e8 8a 9c ff ff       	callq  c9f7 <safe_div_func_int64_t_s_s>
   12d6d:	48 39 85 48 e1 ff ff 	cmp    %rax,-0x1eb8(%rbp)
   12d74:	0f 8f 2a 01 00 00    	jg     12ea4 <func_32+0x24cc>
   12d7a:	0f b7 05 3f 25 01 00 	movzwl 0x1253f(%rip),%eax        # 252c0 <g_800>
   12d81:	0f b7 d8             	movzwl %ax,%ebx
   12d84:	0f b6 05 37 24 01 00 	movzbl 0x12437(%rip),%eax        # 251c2 <g_312>
   12d8b:	66 98                	cbtw   
   12d8d:	44 0f b7 e0          	movzwl %ax,%r12d
   12d91:	44 0f b6 ad 6d e1 ff 	movzbl -0x1e93(%rbp),%r13d
   12d98:	ff 
   12d99:	0f b7 85 04 e7 ff ff 	movzwl -0x18fc(%rbp),%eax
   12da0:	98                   	cwtl   
   12da1:	89 c6                	mov    %eax,%esi
   12da3:	bf 00 00 00 00       	mov    $0x0,%edi
   12da8:	e8 1f 99 ff ff       	callq  c6cc <safe_mod_func_int32_t_s_s>
   12dad:	8b 85 ac e1 ff ff    	mov    -0x1e54(%rbp),%eax
   12db3:	48 98                	cltq   
   12db5:	48 3d ff ff 00 00    	cmp    $0xffff,%rax
   12dbb:	76 08                	jbe    12dc5 <func_32+0x23ed>
   12dbd:	48 83 bd 38 e3 ff ff 	cmpq   $0x0,-0x1cc8(%rbp)
   12dc4:	00 
   12dc5:	be 0a 00 00 00       	mov    $0xa,%esi
   12dca:	bf 01 00 00 00       	mov    $0x1,%edi
   12dcf:	e8 32 a0 ff ff       	callq  ce06 <safe_lshift_func_uint16_t_u_u>
   12dd4:	66 85 c0             	test   %ax,%ax
   12dd7:	74 07                	je     12de0 <func_32+0x2408>
   12dd9:	b8 01 00 00 00       	mov    $0x1,%eax
   12dde:	eb 05                	jmp    12de5 <func_32+0x240d>
   12de0:	b8 00 00 00 00       	mov    $0x0,%eax
   12de5:	66 89 85 84 e1 ff ff 	mov    %ax,-0x1e7c(%rbp)
   12dec:	0f b7 85 84 e1 ff ff 	movzwl -0x1e7c(%rbp),%eax
   12df3:	48 39 85 38 e1 ff ff 	cmp    %rax,-0x1ec8(%rbp)
   12dfa:	0f 96 c0             	setbe  %al
   12dfd:	89 c2                	mov    %eax,%edx
   12dff:	48 8b 85 88 e5 ff ff 	mov    -0x1a78(%rbp),%rax
   12e06:	88 10                	mov    %dl,(%rax)
   12e08:	0f b6 05 b3 23 01 00 	movzbl 0x123b3(%rip),%eax        # 251c2 <g_312>
   12e0f:	0f be c0             	movsbl %al,%eax
   12e12:	39 85 b0 e2 ff ff    	cmp    %eax,-0x1d50(%rbp)
   12e18:	0f 95 c0             	setne  %al
   12e1b:	0f b6 d0             	movzbl %al,%edx
   12e1e:	0f b7 05 8b 23 01 00 	movzwl 0x1238b(%rip),%eax        # 251b0 <g_200>
   12e25:	0f b7 c0             	movzwl %ax,%eax
   12e28:	39 c2                	cmp    %eax,%edx
   12e2a:	7e 0a                	jle    12e36 <func_32+0x245e>
   12e2c:	48 83 bd 48 e1 ff ff 	cmpq   $0x0,-0x1eb8(%rbp)
   12e33:	00 
   12e34:	74 07                	je     12e3d <func_32+0x2465>
   12e36:	b8 01 00 00 00       	mov    $0x1,%eax
   12e3b:	eb 05                	jmp    12e42 <func_32+0x246a>
   12e3d:	b8 00 00 00 00       	mov    $0x0,%eax
   12e42:	89 c2                	mov    %eax,%edx
   12e44:	8b 05 66 6b 01 00    	mov    0x16b66(%rip),%eax        # 299b0 <g_145>
   12e4a:	21 d0                	and    %edx,%eax
   12e4c:	89 05 5e 6b 01 00    	mov    %eax,0x16b5e(%rip)        # 299b0 <g_145>
   12e52:	48 8b 05 a7 52 01 00 	mov    0x152a7(%rip),%rax        # 28100 <g_124>
   12e59:	48 8b 00             	mov    (%rax),%rax
   12e5c:	66 35 e6 ef          	xor    $0xefe6,%ax
   12e60:	0f b7 c0             	movzwl %ax,%eax
   12e63:	44 89 ee             	mov    %r13d,%esi
   12e66:	89 c7                	mov    %eax,%edi
   12e68:	e8 ef 9e ff ff       	callq  cd5c <safe_mod_func_uint16_t_u_u>
   12e6d:	0f b7 c0             	movzwl %ax,%eax
   12e70:	89 85 c8 e2 ff ff    	mov    %eax,-0x1d38(%rbp)
   12e76:	8b 85 c8 e2 ff ff    	mov    -0x1d38(%rbp),%eax
   12e7c:	89 c2                	mov    %eax,%edx
   12e7e:	48 8b 85 48 e1 ff ff 	mov    -0x1eb8(%rbp),%rax
   12e85:	09 d0                	or     %edx,%eax
   12e87:	0f b7 c0             	movzwl %ax,%eax
   12e8a:	44 89 e6             	mov    %r12d,%esi
   12e8d:	89 c7                	mov    %eax,%edi
   12e8f:	e8 a9 9e ff ff       	callq  cd3d <safe_mul_func_uint16_t_u_u>
   12e94:	0f b6 c0             	movzbl %al,%eax
   12e97:	89 de                	mov    %ebx,%esi
   12e99:	89 c7                	mov    %eax,%edi
   12e9b:	e8 ac 9d ff ff       	callq  cc4c <safe_lshift_func_uint8_t_u_u>
   12ea0:	84 c0                	test   %al,%al
   12ea2:	75 0a                	jne    12eae <func_32+0x24d6>
   12ea4:	8b 05 5a 24 01 00    	mov    0x1245a(%rip),%eax        # 25304 <g_842+0x24>
   12eaa:	85 c0                	test   %eax,%eax
   12eac:	74 13                	je     12ec1 <func_32+0x24e9>
   12eae:	0f b7 85 04 e7 ff ff 	movzwl -0x18fc(%rbp),%eax
   12eb5:	66 85 c0             	test   %ax,%ax
   12eb8:	74 07                	je     12ec1 <func_32+0x24e9>
   12eba:	ba 01 00 00 00       	mov    $0x1,%edx
   12ebf:	eb 05                	jmp    12ec6 <func_32+0x24ee>
   12ec1:	ba 00 00 00 00       	mov    $0x0,%edx
   12ec6:	48 8b 05 33 52 01 00 	mov    0x15233(%rip),%rax        # 28100 <g_124>
   12ecd:	48 63 d2             	movslq %edx,%rdx
   12ed0:	48 89 10             	mov    %rdx,(%rax)
   12ed3:	48 8b 00             	mov    (%rax),%rax
   12ed6:	48 85 c0             	test   %rax,%rax
   12ed9:	74 07                	je     12ee2 <func_32+0x250a>
   12edb:	b8 01 00 00 00       	mov    $0x1,%eax
   12ee0:	eb 05                	jmp    12ee7 <func_32+0x250f>
   12ee2:	b8 00 00 00 00       	mov    $0x0,%eax
   12ee7:	89 85 cc ed ff ff    	mov    %eax,-0x1234(%rbp)
   12eed:	8b 05 91 22 01 00    	mov    0x12291(%rip),%eax        # 25184 <g_92>
   12ef3:	89 c3                	mov    %eax,%ebx
   12ef5:	81 8d a8 e1 ff ff 8a 	orl    $0x5dd52c8a,-0x1e58(%rbp)
   12efc:	2c d5 5d 
   12eff:	0f b7 85 92 e7 ff ff 	movzwl -0x186e(%rbp),%eax
   12f06:	66 83 f8 ff          	cmp    $0xffff,%ax
   12f0a:	0f 95 c0             	setne  %al
   12f0d:	0f b6 c0             	movzbl %al,%eax
   12f10:	48 be 1b d2 9b fe 35 	movabs $0x9b0b7535fe9bd21b,%rsi
   12f17:	75 0b 9b 
   12f1a:	48 89 c7             	mov    %rax,%rdi
   12f1d:	e8 0c a1 ff ff       	callq  d02e <safe_add_func_uint64_t_u_u>
   12f22:	0f b6 05 9a 22 01 00 	movzbl 0x1229a(%rip),%eax        # 251c3 <g_323>
   12f29:	0f b6 c0             	movzbl %al,%eax
   12f2c:	be 0b 00 00 00       	mov    $0xb,%esi
   12f31:	89 c7                	mov    %eax,%edi
   12f33:	e8 a9 95 ff ff       	callq  c4e1 <safe_lshift_func_int16_t_s_u>
   12f38:	66 85 c0             	test   %ax,%ax
   12f3b:	75 08                	jne    12f45 <func_32+0x256d>
   12f3d:	8b 05 49 22 01 00    	mov    0x12249(%rip),%eax        # 2518c <g_127>
   12f43:	85 c0                	test   %eax,%eax
   12f45:	8b 85 78 e2 ff ff    	mov    -0x1d88(%rbp),%eax
   12f4b:	48 63 d0             	movslq %eax,%rdx
   12f4e:	8b 85 ac e1 ff ff    	mov    -0x1e54(%rbp),%eax
   12f54:	48 98                	cltq   
   12f56:	48 89 d6             	mov    %rdx,%rsi
   12f59:	48 89 c7             	mov    %rax,%rdi
   12f5c:	e8 4e a1 ff ff       	callq  d0af <safe_div_func_uint64_t_u_u>
   12f61:	be 08 00 00 00       	mov    $0x8,%esi
   12f66:	89 c7                	mov    %eax,%edi
   12f68:	e8 92 97 ff ff       	callq  c6ff <safe_div_func_int32_t_s_s>
   12f6d:	89 85 ac e1 ff ff    	mov    %eax,-0x1e54(%rbp)
   12f73:	48 83 bd 38 e3 ff ff 	cmpq   $0x0,-0x1cc8(%rbp)
   12f7a:	00 
   12f7b:	0f 94 c0             	sete   %al
   12f7e:	0f b6 c0             	movzbl %al,%eax
   12f81:	8b 95 b0 e2 ff ff    	mov    -0x1d50(%rbp),%edx
   12f87:	89 d6                	mov    %edx,%esi
   12f89:	89 c7                	mov    %eax,%edi
   12f8b:	e8 51 95 ff ff       	callq  c4e1 <safe_lshift_func_int16_t_s_u>
   12f90:	89 de                	mov    %ebx,%esi
   12f92:	bf 01 00 00 00       	mov    $0x1,%edi
   12f97:	e8 45 95 ff ff       	callq  c4e1 <safe_lshift_func_int16_t_s_u>
   12f9c:	98                   	cwtl   
   12f9d:	09 85 a0 e1 ff ff    	or     %eax,-0x1e60(%rbp)
   12fa3:	83 85 cc e2 ff ff 01 	addl   $0x1,-0x1d34(%rbp)
   12faa:	eb 01                	jmp    12fad <func_32+0x25d5>
   12fac:	90                   	nop
   12fad:	0f b6 05 6c 23 01 00 	movzbl 0x1236c(%rip),%eax        # 25320 <g_950>
   12fb4:	83 e8 01             	sub    $0x1,%eax
   12fb7:	88 05 63 23 01 00    	mov    %al,0x12363(%rip)        # 25320 <g_950>
   12fbd:	0f b6 05 5c 23 01 00 	movzbl 0x1235c(%rip),%eax        # 25320 <g_950>
   12fc4:	84 c0                	test   %al,%al
   12fc6:	0f 89 ee fa ff ff    	jns    12aba <func_32+0x20e2>
   12fcc:	8b 05 e6 21 01 00    	mov    0x121e6(%rip),%eax        # 251b8 <g_217>
   12fd2:	83 c0 01             	add    $0x1,%eax
   12fd5:	89 05 dd 21 01 00    	mov    %eax,0x121dd(%rip)        # 251b8 <g_217>
   12fdb:	8b 05 d7 21 01 00    	mov    0x121d7(%rip),%eax        # 251b8 <g_217>
   12fe1:	83 f8 04             	cmp    $0x4,%eax
   12fe4:	0f 8e 90 f8 ff ff    	jle    1287a <func_32+0x1ea2>
   12fea:	48 8b 85 48 e1 ff ff 	mov    -0x1eb8(%rbp),%rax
   12ff1:	41 89 c5             	mov    %eax,%r13d
   12ff4:	48 8b 85 38 e1 ff ff 	mov    -0x1ec8(%rbp),%rax
   12ffb:	0f be d8             	movsbl %al,%ebx
   12ffe:	48 8b 05 03 51 01 00 	mov    0x15103(%rip),%rax        # 28108 <g_311>
   13005:	48 8b 95 48 e1 ff ff 	mov    -0x1eb8(%rbp),%rdx
   1300c:	88 10                	mov    %dl,(%rax)
   1300e:	0f b7 05 ab 21 01 00 	movzwl 0x121ab(%rip),%eax        # 251c0 <g_266>
   13015:	41 89 c6             	mov    %eax,%r14d
   13018:	44 8b 25 a9 22 01 00 	mov    0x122a9(%rip),%r12d        # 252c8 <g_841>
   1301f:	48 83 bd 50 e5 ff ff 	cmpq   $0x0,-0x1ab0(%rbp)
   13026:	00 
   13027:	0f 95 c0             	setne  %al
   1302a:	0f b6 c0             	movzbl %al,%eax
   1302d:	be 06 00 00 00       	mov    $0x6,%esi
   13032:	89 c7                	mov    %eax,%edi
   13034:	e8 59 94 ff ff       	callq  c492 <safe_lshift_func_int16_t_s_s>
   13039:	98                   	cwtl   
   1303a:	44 89 e6             	mov    %r12d,%esi
   1303d:	89 c7                	mov    %eax,%edi
   1303f:	e8 bb 96 ff ff       	callq  c6ff <safe_div_func_int32_t_s_s>
   13044:	44 31 f0             	xor    %r14d,%eax
   13047:	0f be c0             	movsbl %al,%eax
   1304a:	89 de                	mov    %ebx,%esi
   1304c:	89 c7                	mov    %eax,%edi
   1304e:	e8 de 91 ff ff       	callq  c231 <safe_mod_func_int8_t_s_s>
   13053:	0f be c0             	movsbl %al,%eax
   13056:	89 05 60 22 01 00    	mov    %eax,0x12260(%rip)        # 252bc <g_778>
   1305c:	48 8b 85 38 e1 ff ff 	mov    -0x1ec8(%rbp),%rax
   13063:	98                   	cwtl   
   13064:	be 04 00 00 00       	mov    $0x4,%esi
   13069:	89 c7                	mov    %eax,%edi
   1306b:	e8 f3 94 ff ff       	callq  c563 <safe_rshift_func_int16_t_s_u>
   13070:	66 83 f8 47          	cmp    $0x47,%ax
   13074:	7e 11                	jle    13087 <func_32+0x26af>
   13076:	48 83 bd 48 e1 ff ff 	cmpq   $0x0,-0x1eb8(%rbp)
   1307d:	00 
   1307e:	74 07                	je     13087 <func_32+0x26af>
   13080:	b8 01 00 00 00       	mov    $0x1,%eax
   13085:	eb 05                	jmp    1308c <func_32+0x26b4>
   13087:	b8 00 00 00 00       	mov    $0x0,%eax
   1308c:	83 e0 01             	and    $0x1,%eax
   1308f:	48 8b 95 18 e5 ff ff 	mov    -0x1ae8(%rbp),%rdx
   13096:	48 8b 12             	mov    (%rdx),%rdx
   13099:	48 85 d2             	test   %rdx,%rdx
   1309c:	0f 95 c2             	setne  %dl
   1309f:	21 d0                	and    %edx,%eax
   130a1:	0f b6 c0             	movzbl %al,%eax
   130a4:	44 89 ee             	mov    %r13d,%esi
   130a7:	89 c7                	mov    %eax,%edi
   130a9:	e8 4f 9e ff ff       	callq  cefd <safe_mod_func_uint32_t_u_u>
   130ae:	0f bf d8             	movswl %ax,%ebx
   130b1:	8b 85 b4 e2 ff ff    	mov    -0x1d4c(%rbp),%eax
   130b7:	0f be d0             	movsbl %al,%edx
   130ba:	48 8b 85 38 e1 ff ff 	mov    -0x1ec8(%rbp),%rax
   130c1:	0f be c0             	movsbl %al,%eax
   130c4:	89 d6                	mov    %edx,%esi
   130c6:	89 c7                	mov    %eax,%edi
   130c8:	e8 9d 91 ff ff       	callq  c26a <safe_div_func_int8_t_s_s>
   130cd:	0f be c0             	movsbl %al,%eax
   130d0:	89 de                	mov    %ebx,%esi
   130d2:	89 c7                	mov    %eax,%edi
   130d4:	e8 fa 92 ff ff       	callq  c3d3 <safe_sub_func_int16_t_s_s>
   130d9:	98                   	cwtl   
   130da:	89 05 a8 20 01 00    	mov    %eax,0x120a8(%rip)        # 25188 <g_98>
   130e0:	c7 05 9a 20 01 00 00 	movl   $0x0,0x1209a(%rip)        # 25184 <g_92>
   130e7:	00 00 00 
   130ea:	e9 d9 02 00 00       	jmpq   133c8 <func_32+0x29f0>
   130ef:	66 c7 85 86 e1 ff ff 	movw   $0xb72b,-0x1e7a(%rbp)
   130f6:	2b b7 
   130f8:	c7 85 bc e2 ff ff da 	movl   $0xd967bfda,-0x1d44(%rbp)
   130ff:	bf 67 d9 
   13102:	c7 85 70 ed ff ff 11 	movl   $0x7667a611,-0x1290(%rbp)
   13109:	a6 67 76 
   1310c:	c7 85 74 ed ff ff f8 	movl   $0xfffffff8,-0x128c(%rbp)
   13113:	ff ff ff 
   13116:	c7 85 78 ed ff ff ca 	movl   $0xd5392eca,-0x1288(%rbp)
   1311d:	2e 39 d5 
   13120:	c7 85 7c ed ff ff 01 	movl   $0x1,-0x1284(%rbp)
   13127:	00 00 00 
   1312a:	c7 85 80 ed ff ff 08 	movl   $0x8,-0x1280(%rbp)
   13131:	00 00 00 
   13134:	c7 85 84 ed ff ff ca 	movl   $0xd5392eca,-0x127c(%rbp)
   1313b:	2e 39 d5 
   1313e:	c7 85 88 ed ff ff ee 	movl   $0x297096ee,-0x1278(%rbp)
   13145:	96 70 29 
   13148:	c7 85 8c ed ff ff ca 	movl   $0xd5392eca,-0x1274(%rbp)
   1314f:	2e 39 d5 
   13152:	c7 85 90 ed ff ff ee 	movl   $0x297096ee,-0x1270(%rbp)
   13159:	96 70 29 
   1315c:	c7 85 94 ed ff ff ca 	movl   $0xd5392eca,-0x126c(%rbp)
   13163:	2e 39 d5 
   13166:	c7 85 98 ed ff ff 08 	movl   $0x8,-0x1268(%rbp)
   1316d:	00 00 00 
   13170:	c7 85 9c ed ff ff 01 	movl   $0x1,-0x1264(%rbp)
   13177:	00 00 00 
   1317a:	c7 85 a0 ed ff ff ca 	movl   $0xd5392eca,-0x1260(%rbp)
   13181:	2e 39 d5 
   13184:	c7 85 a4 ed ff ff f8 	movl   $0xfffffff8,-0x125c(%rbp)
   1318b:	ff ff ff 
   1318e:	c7 85 a8 ed ff ff 11 	movl   $0x7667a611,-0x1258(%rbp)
   13195:	a6 67 76 
   13198:	c7 85 ac ed ff ff ee 	movl   $0x297096ee,-0x1254(%rbp)
   1319f:	96 70 29 
   131a2:	c7 85 b0 ed ff ff 88 	movl   $0xcc46788,-0x1250(%rbp)
   131a9:	67 c4 0c 
   131ac:	c7 85 b4 ed ff ff 01 	movl   $0x1,-0x124c(%rbp)
   131b3:	00 00 00 
   131b6:	c7 85 b8 ed ff ff 01 	movl   $0x1,-0x1248(%rbp)
   131bd:	00 00 00 
   131c0:	c7 85 bc ed ff ff 88 	movl   $0xcc46788,-0x1244(%rbp)
   131c7:	67 c4 0c 
   131ca:	c7 85 c0 ed ff ff 88 	movl   $0xcc46788,-0x1240(%rbp)
   131d1:	67 c4 0c 
   131d4:	c7 85 c4 ed ff ff 01 	movl   $0x1,-0x123c(%rbp)
   131db:	00 00 00 
   131de:	c7 85 c8 ed ff ff 11 	movl   $0x7667a611,-0x1238(%rbp)
   131e5:	a6 67 76 
   131e8:	c7 85 cc ed ff ff e3 	movl   $0x38fbebe3,-0x1234(%rbp)
   131ef:	eb fb 38 
   131f2:	c7 85 d0 ed ff ff ca 	movl   $0xd5392eca,-0x1230(%rbp)
   131f9:	2e 39 d5 
   131fc:	c7 85 d4 ed ff ff 88 	movl   $0xcc46788,-0x122c(%rbp)
   13203:	67 c4 0c 
   13206:	c7 85 d8 ed ff ff 08 	movl   $0x8,-0x1228(%rbp)
   1320d:	00 00 00 
   13210:	c7 85 dc ed ff ff 09 	movl   $0x9,-0x1224(%rbp)
   13217:	00 00 00 
   1321a:	c7 85 e0 ed ff ff ee 	movl   $0x297096ee,-0x1220(%rbp)
   13221:	96 70 29 
   13224:	c7 85 e4 ed ff ff 00 	movl   $0x0,-0x121c(%rbp)
   1322b:	00 00 00 
   1322e:	c7 85 e8 ed ff ff ee 	movl   $0x297096ee,-0x1218(%rbp)
   13235:	96 70 29 
   13238:	c7 85 ec ed ff ff 09 	movl   $0x9,-0x1214(%rbp)
   1323f:	00 00 00 
   13242:	c7 85 f0 ed ff ff 08 	movl   $0x8,-0x1210(%rbp)
   13249:	00 00 00 
   1324c:	c7 85 f4 ed ff ff 88 	movl   $0xcc46788,-0x120c(%rbp)
   13253:	67 c4 0c 
   13256:	c7 85 f8 ed ff ff ca 	movl   $0xd5392eca,-0x1208(%rbp)
   1325d:	2e 39 d5 
   13260:	c7 85 fc ed ff ff e3 	movl   $0x38fbebe3,-0x1204(%rbp)
   13267:	eb fb 38 
   1326a:	c7 85 00 ee ff ff 11 	movl   $0x7667a611,-0x1200(%rbp)
   13271:	a6 67 76 
   13274:	c7 85 04 ee ff ff 01 	movl   $0x1,-0x11fc(%rbp)
   1327b:	00 00 00 
   1327e:	c7 85 08 ee ff ff 88 	movl   $0xcc46788,-0x11f8(%rbp)
   13285:	67 c4 0c 
   13288:	c7 85 0c ee ff ff 88 	movl   $0xcc46788,-0x11f4(%rbp)
   1328f:	67 c4 0c 
   13292:	c7 85 10 ee ff ff 01 	movl   $0x1,-0x11f0(%rbp)
   13299:	00 00 00 
   1329c:	c7 85 14 ee ff ff 01 	movl   $0x1,-0x11ec(%rbp)
   132a3:	00 00 00 
   132a6:	c7 85 18 ee ff ff 88 	movl   $0xcc46788,-0x11e8(%rbp)
   132ad:	67 c4 0c 
   132b0:	c7 85 1c ee ff ff ee 	movl   $0x297096ee,-0x11e4(%rbp)
   132b7:	96 70 29 
   132ba:	c7 85 20 ee ff ff 11 	movl   $0x7667a611,-0x11e0(%rbp)
   132c1:	a6 67 76 
   132c4:	c7 85 24 ee ff ff f8 	movl   $0xfffffff8,-0x11dc(%rbp)
   132cb:	ff ff ff 
   132ce:	c7 85 28 ee ff ff ca 	movl   $0xd5392eca,-0x11d8(%rbp)
   132d5:	2e 39 d5 
   132d8:	c7 85 2c ee ff ff 01 	movl   $0x1,-0x11d4(%rbp)
   132df:	00 00 00 
   132e2:	c7 85 30 ee ff ff 08 	movl   $0x8,-0x11d0(%rbp)
   132e9:	00 00 00 
   132ec:	c7 85 34 ee ff ff ca 	movl   $0xd5392eca,-0x11cc(%rbp)
   132f3:	2e 39 d5 
   132f6:	c7 85 38 ee ff ff ee 	movl   $0x297096ee,-0x11c8(%rbp)
   132fd:	96 70 29 
   13300:	c7 85 3c ee ff ff ca 	movl   $0xd5392eca,-0x11c4(%rbp)
   13307:	2e 39 d5 
   1330a:	c7 85 40 ee ff ff ee 	movl   $0x297096ee,-0x11c0(%rbp)
   13311:	96 70 29 
   13314:	c7 85 44 ee ff ff ca 	movl   $0xd5392eca,-0x11bc(%rbp)
   1331b:	2e 39 d5 
   1331e:	c7 85 48 ee ff ff 08 	movl   $0x8,-0x11b8(%rbp)
   13325:	00 00 00 
   13328:	c7 85 4c ee ff ff 01 	movl   $0x1,-0x11b4(%rbp)
   1332f:	00 00 00 
   13332:	c7 85 50 ee ff ff ca 	movl   $0xd5392eca,-0x11b0(%rbp)
   13339:	2e 39 d5 
   1333c:	c7 85 54 ee ff ff f8 	movl   $0xfffffff8,-0x11ac(%rbp)
   13343:	ff ff ff 
   13346:	c7 85 58 ee ff ff 11 	movl   $0x7667a611,-0x11a8(%rbp)
   1334d:	a6 67 76 
   13350:	c7 85 5c ee ff ff ee 	movl   $0x297096ee,-0x11a4(%rbp)
   13357:	96 70 29 
   1335a:	c7 85 60 ee ff ff 88 	movl   $0xcc46788,-0x11a0(%rbp)
   13361:	67 c4 0c 
   13364:	c7 85 64 ee ff ff 01 	movl   $0x1,-0x119c(%rbp)
   1336b:	00 00 00 
   1336e:	c7 85 68 ee ff ff 01 	movl   $0x1,-0x1198(%rbp)
   13375:	00 00 00 
   13378:	c7 85 6c ee ff ff 88 	movl   $0xcc46788,-0x1194(%rbp)
   1337f:	67 c4 0c 
   13382:	48 b8 93 d3 8c 54 e4 	movabs $0xdcb16de4548cd393,%rax
   13389:	6d b1 dc 
   1338c:	48 89 85 60 e5 ff ff 	mov    %rax,-0x1aa0(%rbp)
   13393:	48 8d 05 2e 66 01 00 	lea    0x1662e(%rip),%rax        # 299c8 <g_687>
   1339a:	48 89 85 68 e5 ff ff 	mov    %rax,-0x1a98(%rbp)
   133a1:	c7 85 c0 e2 ff ff 8d 	movl   $0x2adaf28d,-0x1d40(%rbp)
   133a8:	f2 da 2a 
   133ab:	48 8d 05 26 66 01 00 	lea    0x16626(%rip),%rax        # 299d8 <g_1211>
   133b2:	48 89 85 70 e5 ff ff 	mov    %rax,-0x1a90(%rbp)
   133b9:	8b 05 c5 1d 01 00    	mov    0x11dc5(%rip),%eax        # 25184 <g_92>
   133bf:	83 c0 01             	add    $0x1,%eax
   133c2:	89 05 bc 1d 01 00    	mov    %eax,0x11dbc(%rip)        # 25184 <g_92>
   133c8:	8b 05 b6 1d 01 00    	mov    0x11db6(%rip),%eax        # 25184 <g_92>
   133ce:	83 f8 02             	cmp    $0x2,%eax
   133d1:	0f 8e 18 fd ff ff    	jle    130ef <func_32+0x2717>
   133d7:	8b 05 db 1e 01 00    	mov    0x11edb(%rip),%eax        # 252b8 <g_741>
   133dd:	83 c0 01             	add    $0x1,%eax
   133e0:	89 05 d2 1e 01 00    	mov    %eax,0x11ed2(%rip)        # 252b8 <g_741>
   133e6:	8b 05 cc 1e 01 00    	mov    0x11ecc(%rip),%eax        # 252b8 <g_741>
   133ec:	83 f8 04             	cmp    $0x4,%eax
   133ef:	0f 86 a4 f2 ff ff    	jbe    12699 <func_32+0x1cc1>
   133f5:	c7 05 8d 1d 01 00 00 	movl   $0x0,0x11d8d(%rip)        # 2518c <g_127>
   133fc:	00 00 00 
   133ff:	e9 36 02 00 00       	jmpq   1363a <func_32+0x2c62>
   13404:	c6 85 30 e9 ff ff fd 	movb   $0xfd,-0x16d0(%rbp)
   1340b:	c6 85 31 e9 ff ff f1 	movb   $0xf1,-0x16cf(%rbp)
   13412:	c6 85 32 e9 ff ff fd 	movb   $0xfd,-0x16ce(%rbp)
   13419:	c6 85 33 e9 ff ff f1 	movb   $0xf1,-0x16cd(%rbp)
   13420:	c6 85 34 e9 ff ff fd 	movb   $0xfd,-0x16cc(%rbp)
   13427:	c6 85 35 e9 ff ff f1 	movb   $0xf1,-0x16cb(%rbp)
   1342e:	c6 85 36 e9 ff ff fd 	movb   $0xfd,-0x16ca(%rbp)
   13435:	c6 85 37 e9 ff ff f1 	movb   $0xf1,-0x16c9(%rbp)
   1343c:	c7 85 9c e2 ff ff ff 	movl   $0xffffffff,-0x1d64(%rbp)
   13443:	ff ff ff 
   13446:	c7 85 a0 e2 ff ff 8c 	movl   $0xc85cba8c,-0x1d60(%rbp)
   1344d:	ba 5c c8 
   13450:	c7 85 a4 e2 ff ff 03 	movl   $0x3,-0x1d5c(%rbp)
   13457:	00 00 00 
   1345a:	c7 85 a8 e2 ff ff ae 	movl   $0xee8607ae,-0x1d58(%rbp)
   13461:	07 86 ee 
   13464:	c7 85 70 ed ff ff 73 	movl   $0x18be7c73,-0x1290(%rbp)
   1346b:	7c be 18 
   1346e:	c7 85 74 ed ff ff 2e 	movl   $0xc585692e,-0x128c(%rbp)
   13475:	69 85 c5 
   13478:	c7 85 78 ed ff ff 2e 	movl   $0xc585692e,-0x1288(%rbp)
   1347f:	69 85 c5 
   13482:	c7 85 7c ed ff ff 73 	movl   $0x18be7c73,-0x1284(%rbp)
   13489:	7c be 18 
   1348c:	c7 85 80 ed ff ff 2e 	movl   $0xc585692e,-0x1280(%rbp)
   13493:	69 85 c5 
   13496:	c7 85 84 ed ff ff 2e 	movl   $0xc585692e,-0x127c(%rbp)
   1349d:	69 85 c5 
   134a0:	c7 85 88 ed ff ff d4 	movl   $0xe22336d4,-0x1278(%rbp)
   134a7:	36 23 e2 
   134aa:	c7 85 8c ed ff ff 73 	movl   $0x18be7c73,-0x1274(%rbp)
   134b1:	7c be 18 
   134b4:	c7 85 90 ed ff ff 73 	movl   $0x18be7c73,-0x1270(%rbp)
   134bb:	7c be 18 
   134be:	c7 85 94 ed ff ff d4 	movl   $0xe22336d4,-0x126c(%rbp)
   134c5:	36 23 e2 
   134c8:	c7 85 98 ed ff ff 73 	movl   $0x18be7c73,-0x1268(%rbp)
   134cf:	7c be 18 
   134d2:	c7 85 9c ed ff ff 73 	movl   $0x18be7c73,-0x1264(%rbp)
   134d9:	7c be 18 
   134dc:	c7 85 a0 ed ff ff d4 	movl   $0xe22336d4,-0x1260(%rbp)
   134e3:	36 23 e2 
   134e6:	c7 85 a4 ed ff ff 73 	movl   $0x18be7c73,-0x125c(%rbp)
   134ed:	7c be 18 
   134f0:	c7 85 ac e2 ff ff a9 	movl   $0x5df638a9,-0x1d54(%rbp)
   134f7:	38 f6 5d 
   134fa:	0f b6 85 35 e9 ff ff 	movzbl -0x16cb(%rbp),%eax
   13501:	0f b6 d8             	movzbl %al,%ebx
   13504:	8b 15 f2 1d 01 00    	mov    0x11df2(%rip),%edx        # 252fc <g_842+0x1c>
   1350a:	48 8b 85 28 e3 ff ff 	mov    -0x1cd8(%rbp),%rax
   13511:	66 89 10             	mov    %dx,(%rax)
   13514:	0f b6 85 36 e9 ff ff 	movzbl -0x16ca(%rbp),%eax
   1351b:	0f b6 c0             	movzbl %al,%eax
   1351e:	89 c7                	mov    %eax,%edi
   13520:	e8 71 90 ff ff       	callq  c596 <safe_unary_minus_func_int32_t_s>
   13525:	41 89 c4             	mov    %eax,%r12d
   13528:	48 8b 85 38 e1 ff ff 	mov    -0x1ec8(%rbp),%rax
   1352f:	0f b7 c0             	movzwl %ax,%eax
   13532:	be 0d 00 00 00       	mov    $0xd,%esi
   13537:	89 c7                	mov    %eax,%edi
   13539:	e8 c8 98 ff ff       	callq  ce06 <safe_lshift_func_uint16_t_u_u>
   1353e:	0f b7 c0             	movzwl %ax,%eax
   13541:	44 21 e0             	and    %r12d,%eax
   13544:	48 98                	cltq   
   13546:	48 39 85 48 e1 ff ff 	cmp    %rax,-0x1eb8(%rbp)
   1354d:	0f 9d c0             	setge  %al
   13550:	0f b6 c0             	movzbl %al,%eax
   13553:	89 de                	mov    %ebx,%esi
   13555:	89 c7                	mov    %eax,%edi
   13557:	e8 5c 99 ff ff       	callq  ceb8 <safe_add_func_uint32_t_u_u>
   1355c:	0f b6 85 36 e9 ff ff 	movzbl -0x16ca(%rbp),%eax
   13563:	0f b6 c0             	movzbl %al,%eax
   13566:	be 0e 00 00 00       	mov    $0xe,%esi
   1356b:	89 c7                	mov    %eax,%edi
   1356d:	e8 08 99 ff ff       	callq  ce7a <safe_rshift_func_uint16_t_u_u>
   13572:	0f b6 c0             	movzbl %al,%eax
   13575:	be 04 00 00 00       	mov    $0x4,%esi
   1357a:	89 c7                	mov    %eax,%edi
   1357c:	e8 3d 97 ff ff       	callq  ccbe <safe_rshift_func_uint8_t_u_u>
   13581:	0f b6 d0             	movzbl %al,%edx
   13584:	48 8b 05 75 4b 01 00 	mov    0x14b75(%rip),%rax        # 28100 <g_124>
   1358b:	48 8b 00             	mov    (%rax),%rax
   1358e:	48 39 c2             	cmp    %rax,%rdx
   13591:	0f 95 c0             	setne  %al
   13594:	0f b6 c0             	movzbl %al,%eax
   13597:	be f6 00 00 00       	mov    $0xf6,%esi
   1359c:	89 c7                	mov    %eax,%edi
   1359e:	e8 d5 95 ff ff       	callq  cb78 <safe_sub_func_uint8_t_u_u>
   135a3:	89 c2                	mov    %eax,%edx
   135a5:	48 8b 05 5c 4b 01 00 	mov    0x14b5c(%rip),%rax        # 28108 <g_311>
   135ac:	88 10                	mov    %dl,(%rax)
   135ae:	48 be 1b b5 bb 2c 9b 	movabs $0x9928fc9b2cbbb51b,%rsi
   135b5:	fc 28 99 
   135b8:	bf 00 00 00 00       	mov    $0x0,%edi
   135bd:	e8 be 9a ff ff       	callq  d080 <safe_mod_func_uint64_t_u_u>
   135c2:	48 39 85 38 e1 ff ff 	cmp    %rax,-0x1ec8(%rbp)
   135c9:	0f 96 c0             	setbe  %al
   135cc:	0f b6 c0             	movzbl %al,%eax
   135cf:	89 05 b3 1b 01 00    	mov    %eax,0x11bb3(%rip)        # 25188 <g_98>
   135d5:	0f b6 85 36 e9 ff ff 	movzbl -0x16ca(%rbp),%eax
   135dc:	0f b6 c0             	movzbl %al,%eax
   135df:	31 85 9c e2 ff ff    	xor    %eax,-0x1d64(%rbp)
   135e5:	83 ad ac e2 ff ff 01 	subl   $0x1,-0x1d54(%rbp)
   135ec:	8b 85 84 e2 ff ff    	mov    -0x1d7c(%rbp),%eax
   135f2:	89 05 c0 1b 01 00    	mov    %eax,0x11bc0(%rip)        # 251b8 <g_217>
   135f8:	8b 05 ba 1b 01 00    	mov    0x11bba(%rip),%eax        # 251b8 <g_217>
   135fe:	89 85 78 e2 ff ff    	mov    %eax,-0x1d88(%rbp)
   13604:	c7 85 a8 e2 ff ff 01 	movl   $0x1,-0x1d58(%rbp)
   1360b:	00 00 00 
   1360e:	83 bd a8 e2 ff ff 04 	cmpl   $0x4,-0x1d58(%rbp)
   13615:	7f 14                	jg     1362b <func_32+0x2c53>
   13617:	c6 85 6a e1 ff ff db 	movb   $0xdb,-0x1e96(%rbp)
   1361e:	48 0f be 85 6a e1 ff 	movsbq -0x1e96(%rbp),%rax
   13625:	ff 
   13626:	e9 0c 25 00 00       	jmpq   15b37 <func_32+0x515f>
   1362b:	8b 05 5b 1b 01 00    	mov    0x11b5b(%rip),%eax        # 2518c <g_127>
   13631:	83 c0 01             	add    $0x1,%eax
   13634:	89 05 52 1b 01 00    	mov    %eax,0x11b52(%rip)        # 2518c <g_127>
   1363a:	8b 05 4c 1b 01 00    	mov    0x11b4c(%rip),%eax        # 2518c <g_127>
   13640:	83 f8 02             	cmp    $0x2,%eax
   13643:	0f 86 bb fd ff ff    	jbe    13404 <func_32+0x2a2c>
   13649:	8b 05 65 1b 01 00    	mov    0x11b65(%rip),%eax        # 251b4 <g_213>
   1364f:	83 e8 01             	sub    $0x1,%eax
   13652:	89 05 5c 1b 01 00    	mov    %eax,0x11b5c(%rip)        # 251b4 <g_213>
   13658:	8b 05 56 1b 01 00    	mov    0x11b56(%rip),%eax        # 251b4 <g_213>
   1365e:	85 c0                	test   %eax,%eax
   13660:	0f 8f b7 dc ff ff    	jg     1131d <func_32+0x945>
   13666:	c7 05 4c 1c 01 00 00 	movl   $0x0,0x11c4c(%rip)        # 252bc <g_778>
   1366d:	00 00 00 
   13670:	e9 a9 24 00 00       	jmpq   15b1e <func_32+0x5146>
   13675:	48 c7 85 00 e3 ff ff 	movq   $0x0,-0x1d00(%rbp)
   1367c:	00 00 00 00 
   13680:	48 8d 85 00 e3 ff ff 	lea    -0x1d00(%rbp),%rax
   13687:	48 89 85 08 e3 ff ff 	mov    %rax,-0x1cf8(%rbp)
   1368e:	48 8d 85 08 e3 ff ff 	lea    -0x1cf8(%rbp),%rax
   13695:	48 89 85 70 e3 ff ff 	mov    %rax,-0x1c90(%rbp)
   1369c:	c7 85 88 e1 ff ff 09 	movl   $0x9,-0x1e78(%rbp)
   136a3:	00 00 00 
   136a6:	48 8d 05 13 1b 01 00 	lea    0x11b13(%rip),%rax        # 251c0 <g_266>
   136ad:	48 89 85 10 e3 ff ff 	mov    %rax,-0x1cf0(%rbp)
   136b4:	c7 85 8c e1 ff ff 01 	movl   $0x1,-0x1e74(%rbp)
   136bb:	00 00 00 
   136be:	48 c7 85 18 e3 ff ff 	movq   $0x0,-0x1ce8(%rbp)
   136c5:	00 00 00 00 
   136c9:	48 c7 85 78 e3 ff ff 	movq   $0x0,-0x1c88(%rbp)
   136d0:	00 00 00 00 
   136d4:	c7 85 c4 e1 ff ff 33 	movl   $0x4f087633,-0x1e3c(%rbp)
   136db:	76 08 4f 
   136de:	48 8d 05 23 1d 01 00 	lea    0x11d23(%rip),%rax        # 25408 <g_1510>
   136e5:	48 89 85 80 e3 ff ff 	mov    %rax,-0x1c80(%rbp)
   136ec:	c6 85 62 e1 ff ff cb 	movb   $0xcb,-0x1e9e(%rbp)
   136f3:	48 8d 05 26 1d 01 00 	lea    0x11d26(%rip),%rax        # 25420 <g_1590>
   136fa:	48 89 85 80 e8 ff ff 	mov    %rax,-0x1780(%rbp)
   13701:	48 8d 05 18 1d 01 00 	lea    0x11d18(%rip),%rax        # 25420 <g_1590>
   13708:	48 89 85 88 e8 ff ff 	mov    %rax,-0x1778(%rbp)
   1370f:	48 8d 05 0a 1d 01 00 	lea    0x11d0a(%rip),%rax        # 25420 <g_1590>
   13716:	48 89 85 90 e8 ff ff 	mov    %rax,-0x1770(%rbp)
   1371d:	48 8d 05 fc 1c 01 00 	lea    0x11cfc(%rip),%rax        # 25420 <g_1590>
   13724:	48 89 85 98 e8 ff ff 	mov    %rax,-0x1768(%rbp)
   1372b:	48 8d 05 ee 1c 01 00 	lea    0x11cee(%rip),%rax        # 25420 <g_1590>
   13732:	48 89 85 a0 e8 ff ff 	mov    %rax,-0x1760(%rbp)
   13739:	48 8d 05 e0 1c 01 00 	lea    0x11ce0(%rip),%rax        # 25420 <g_1590>
   13740:	48 89 85 a8 e8 ff ff 	mov    %rax,-0x1758(%rbp)
   13747:	48 8d 05 d2 1c 01 00 	lea    0x11cd2(%rip),%rax        # 25420 <g_1590>
   1374e:	48 89 85 b0 e8 ff ff 	mov    %rax,-0x1750(%rbp)
   13755:	48 8d 05 8c 62 01 00 	lea    0x1628c(%rip),%rax        # 299e8 <g_1591>
   1375c:	48 89 85 b8 e8 ff ff 	mov    %rax,-0x1748(%rbp)
   13763:	48 8d 05 7e 62 01 00 	lea    0x1627e(%rip),%rax        # 299e8 <g_1591>
   1376a:	48 89 85 c0 e8 ff ff 	mov    %rax,-0x1740(%rbp)
   13771:	48 8d 05 70 62 01 00 	lea    0x16270(%rip),%rax        # 299e8 <g_1591>
   13778:	48 89 85 c8 e8 ff ff 	mov    %rax,-0x1738(%rbp)
   1377f:	48 8d 05 62 62 01 00 	lea    0x16262(%rip),%rax        # 299e8 <g_1591>
   13786:	48 89 85 d0 e8 ff ff 	mov    %rax,-0x1730(%rbp)
   1378d:	48 8d 05 54 62 01 00 	lea    0x16254(%rip),%rax        # 299e8 <g_1591>
   13794:	48 89 85 d8 e8 ff ff 	mov    %rax,-0x1728(%rbp)
   1379b:	48 8d 05 46 62 01 00 	lea    0x16246(%rip),%rax        # 299e8 <g_1591>
   137a2:	48 89 85 e0 e8 ff ff 	mov    %rax,-0x1720(%rbp)
   137a9:	48 8d 05 38 62 01 00 	lea    0x16238(%rip),%rax        # 299e8 <g_1591>
   137b0:	48 89 85 e8 e8 ff ff 	mov    %rax,-0x1718(%rbp)
   137b7:	48 8d 05 62 1c 01 00 	lea    0x11c62(%rip),%rax        # 25420 <g_1590>
   137be:	48 89 85 f0 e8 ff ff 	mov    %rax,-0x1710(%rbp)
   137c5:	48 8d 05 54 1c 01 00 	lea    0x11c54(%rip),%rax        # 25420 <g_1590>
   137cc:	48 89 85 f8 e8 ff ff 	mov    %rax,-0x1708(%rbp)
   137d3:	48 8d 05 46 1c 01 00 	lea    0x11c46(%rip),%rax        # 25420 <g_1590>
   137da:	48 89 85 00 e9 ff ff 	mov    %rax,-0x1700(%rbp)
   137e1:	48 8d 05 38 1c 01 00 	lea    0x11c38(%rip),%rax        # 25420 <g_1590>
   137e8:	48 89 85 08 e9 ff ff 	mov    %rax,-0x16f8(%rbp)
   137ef:	48 8d 05 2a 1c 01 00 	lea    0x11c2a(%rip),%rax        # 25420 <g_1590>
   137f6:	48 89 85 10 e9 ff ff 	mov    %rax,-0x16f0(%rbp)
   137fd:	48 8d 05 1c 1c 01 00 	lea    0x11c1c(%rip),%rax        # 25420 <g_1590>
   13804:	48 89 85 18 e9 ff ff 	mov    %rax,-0x16e8(%rbp)
   1380b:	48 8d 05 0e 1c 01 00 	lea    0x11c0e(%rip),%rax        # 25420 <g_1590>
   13812:	48 89 85 20 e9 ff ff 	mov    %rax,-0x16e0(%rbp)
   13819:	48 c7 85 88 e3 ff ff 	movq   $0x5,-0x1c78(%rbp)
   13820:	05 00 00 00 
   13824:	c7 85 04 e2 ff ff 97 	movl   $0x423f1397,-0x1dfc(%rbp)
   1382b:	13 3f 42 
   1382e:	c7 85 08 e2 ff ff f2 	movl   $0xd445c3f2,-0x1df8(%rbp)
   13835:	c3 45 d4 
   13838:	c7 85 0c e2 ff ff ff 	movl   $0xffffffff,-0x1df4(%rbp)
   1383f:	ff ff ff 
   13842:	c7 85 00 e7 ff ff 87 	movl   $0x4bf63687,-0x1900(%rbp)
   13849:	36 f6 4b 
   1384c:	c7 85 04 e7 ff ff 87 	movl   $0x4bf63687,-0x18fc(%rbp)
   13853:	36 f6 4b 
   13856:	c7 85 08 e7 ff ff c0 	movl   $0x14bfffc0,-0x18f8(%rbp)
   1385d:	ff bf 14 
   13860:	c7 85 0c e7 ff ff d3 	movl   $0x25ca13d3,-0x18f4(%rbp)
   13867:	13 ca 25 
   1386a:	c7 85 10 e7 ff ff c0 	movl   $0x14bfffc0,-0x18f0(%rbp)
   13871:	ff bf 14 
   13874:	c7 85 14 e7 ff ff 87 	movl   $0x4bf63687,-0x18ec(%rbp)
   1387b:	36 f6 4b 
   1387e:	c7 85 18 e7 ff ff 87 	movl   $0x4bf63687,-0x18e8(%rbp)
   13885:	36 f6 4b 
   13888:	c7 85 1c e7 ff ff c0 	movl   $0x14bfffc0,-0x18e4(%rbp)
   1388f:	ff bf 14 
   13892:	c7 85 20 e7 ff ff d3 	movl   $0x25ca13d3,-0x18e0(%rbp)
   13899:	13 ca 25 
   1389c:	c7 85 24 e7 ff ff c0 	movl   $0x14bfffc0,-0x18dc(%rbp)
   138a3:	ff bf 14 
   138a6:	c6 85 70 e6 ff ff 45 	movb   $0x45,-0x1990(%rbp)
   138ad:	c6 85 71 e6 ff ff e6 	movb   $0xe6,-0x198f(%rbp)
   138b4:	c6 85 72 e6 ff ff f6 	movb   $0xf6,-0x198e(%rbp)
   138bb:	c6 85 73 e6 ff ff 41 	movb   $0x41,-0x198d(%rbp)
   138c2:	c6 85 74 e6 ff ff f6 	movb   $0xf6,-0x198c(%rbp)
   138c9:	c6 85 75 e6 ff ff e6 	movb   $0xe6,-0x198b(%rbp)
   138d0:	c6 85 76 e6 ff ff 45 	movb   $0x45,-0x198a(%rbp)
   138d7:	c6 85 77 e6 ff ff e6 	movb   $0xe6,-0x1989(%rbp)
   138de:	c6 85 78 e6 ff ff f6 	movb   $0xf6,-0x1988(%rbp)
   138e5:	c6 85 79 e6 ff ff 41 	movb   $0x41,-0x1987(%rbp)
   138ec:	c6 85 7a e6 ff ff f6 	movb   $0xf6,-0x1986(%rbp)
   138f3:	c6 85 7b e6 ff ff e6 	movb   $0xe6,-0x1985(%rbp)
   138fa:	c6 85 7c e6 ff ff 45 	movb   $0x45,-0x1984(%rbp)
   13901:	c6 85 7d e6 ff ff e6 	movb   $0xe6,-0x1983(%rbp)
   13908:	c6 85 7e e6 ff ff f6 	movb   $0xf6,-0x1982(%rbp)
   1390f:	c6 85 7f e6 ff ff 41 	movb   $0x41,-0x1981(%rbp)
   13916:	c6 85 80 e6 ff ff f6 	movb   $0xf6,-0x1980(%rbp)
   1391d:	c6 85 81 e6 ff ff e6 	movb   $0xe6,-0x197f(%rbp)
   13924:	c6 85 82 e6 ff ff 45 	movb   $0x45,-0x197e(%rbp)
   1392b:	c6 85 83 e6 ff ff e6 	movb   $0xe6,-0x197d(%rbp)
   13932:	c6 85 84 e6 ff ff f6 	movb   $0xf6,-0x197c(%rbp)
   13939:	c6 85 85 e6 ff ff 41 	movb   $0x41,-0x197b(%rbp)
   13940:	c6 85 86 e6 ff ff f6 	movb   $0xf6,-0x197a(%rbp)
   13947:	c6 85 87 e6 ff ff e6 	movb   $0xe6,-0x1979(%rbp)
   1394e:	c6 85 88 e6 ff ff 45 	movb   $0x45,-0x1978(%rbp)
   13955:	c6 85 89 e6 ff ff e6 	movb   $0xe6,-0x1977(%rbp)
   1395c:	c6 85 8a e6 ff ff f6 	movb   $0xf6,-0x1976(%rbp)
   13963:	c6 85 8b e6 ff ff 41 	movb   $0x41,-0x1975(%rbp)
   1396a:	c6 85 8c e6 ff ff f6 	movb   $0xf6,-0x1974(%rbp)
   13971:	c6 85 8d e6 ff ff e6 	movb   $0xe6,-0x1973(%rbp)
   13978:	c6 85 8e e6 ff ff 45 	movb   $0x45,-0x1972(%rbp)
   1397f:	c6 85 8f e6 ff ff e6 	movb   $0xe6,-0x1971(%rbp)
   13986:	c6 85 90 e6 ff ff f6 	movb   $0xf6,-0x1970(%rbp)
   1398d:	c6 85 91 e6 ff ff 41 	movb   $0x41,-0x196f(%rbp)
   13994:	c6 85 92 e6 ff ff f6 	movb   $0xf6,-0x196e(%rbp)
   1399b:	c6 85 93 e6 ff ff e6 	movb   $0xe6,-0x196d(%rbp)
   139a2:	66 c7 85 a0 e6 ff ff 	movw   $0x1,-0x1960(%rbp)
   139a9:	01 00 
   139ab:	66 c7 85 a2 e6 ff ff 	movw   $0x14d4,-0x195e(%rbp)
   139b2:	d4 14 
   139b4:	66 c7 85 a4 e6 ff ff 	movw   $0x3ab6,-0x195c(%rbp)
   139bb:	b6 3a 
   139bd:	66 c7 85 a6 e6 ff ff 	movw   $0x53fa,-0x195a(%rbp)
   139c4:	fa 53 
   139c6:	66 c7 85 a8 e6 ff ff 	movw   $0x0,-0x1958(%rbp)
   139cd:	00 00 
   139cf:	66 c7 85 aa e6 ff ff 	movw   $0x6d6b,-0x1956(%rbp)
   139d6:	6b 6d 
   139d8:	66 c7 85 ac e6 ff ff 	movw   $0x1,-0x1954(%rbp)
   139df:	01 00 
   139e1:	66 c7 85 ae e6 ff ff 	movw   $0x1,-0x1952(%rbp)
   139e8:	01 00 
   139ea:	66 c7 85 b0 e6 ff ff 	movw   $0x6d6b,-0x1950(%rbp)
   139f1:	6b 6d 
   139f3:	66 c7 85 b2 e6 ff ff 	movw   $0x0,-0x194e(%rbp)
   139fa:	00 00 
   139fc:	66 c7 85 b4 e6 ff ff 	movw   $0x53fa,-0x194c(%rbp)
   13a03:	fa 53 
   13a05:	66 c7 85 b6 e6 ff ff 	movw   $0x3ab6,-0x194a(%rbp)
   13a0c:	b6 3a 
   13a0e:	66 c7 85 b8 e6 ff ff 	movw   $0x14d4,-0x1948(%rbp)
   13a15:	d4 14 
   13a17:	66 c7 85 ba e6 ff ff 	movw   $0x1,-0x1946(%rbp)
   13a1e:	01 00 
   13a20:	66 c7 85 bc e6 ff ff 	movw   $0x14d4,-0x1944(%rbp)
   13a27:	d4 14 
   13a29:	66 c7 85 be e6 ff ff 	movw   $0x14d4,-0x1942(%rbp)
   13a30:	d4 14 
   13a32:	66 c7 85 c0 e6 ff ff 	movw   $0x0,-0x1940(%rbp)
   13a39:	00 00 
   13a3b:	66 c7 85 c2 e6 ff ff 	movw   $0x1,-0x193e(%rbp)
   13a42:	01 00 
   13a44:	48 b8 b0 e4 bf 83 9f 	movabs $0x1d59739f83bfe4b0,%rax
   13a4b:	73 59 1d 
   13a4e:	48 89 85 90 e3 ff ff 	mov    %rax,-0x1c70(%rbp)
   13a55:	48 c7 85 98 e3 ff ff 	movq   $0x0,-0x1c68(%rbp)
   13a5c:	00 00 00 00 
   13a60:	48 8d 05 71 48 01 00 	lea    0x14871(%rip),%rax        # 282d8 <g_819>
   13a67:	48 89 85 a0 e3 ff ff 	mov    %rax,-0x1c60(%rbp)
   13a6e:	c7 85 90 e1 ff ff d6 	movl   $0x900387d6,-0x1e70(%rbp)
   13a75:	87 03 90 
   13a78:	c6 85 63 e1 ff ff 3b 	movb   $0x3b,-0x1e9d(%rbp)
   13a7f:	48 c7 85 a8 e3 ff ff 	movq   $0x0,-0x1c58(%rbp)
   13a86:	00 00 00 00 
   13a8a:	48 8d 05 0f 49 01 00 	lea    0x1490f(%rip),%rax        # 283a0 <g_1013+0x80>
   13a91:	48 89 85 b0 e3 ff ff 	mov    %rax,-0x1c50(%rbp)
   13a98:	c7 85 10 e2 ff ff 07 	movl   $0x7,-0x1df0(%rbp)
   13a9f:	00 00 00 
   13aa2:	c6 85 64 e1 ff ff 19 	movb   $0x19,-0x1e9c(%rbp)
   13aa9:	66 c7 85 78 e1 ff ff 	movw   $0x77e5,-0x1e88(%rbp)
   13ab0:	e5 77 
   13ab2:	66 c7 85 7a e1 ff ff 	movw   $0xdfba,-0x1e86(%rbp)
   13ab9:	ba df 
   13abb:	48 8d 85 8c e1 ff ff 	lea    -0x1e74(%rbp),%rax
   13ac2:	48 89 85 b8 e3 ff ff 	mov    %rax,-0x1c48(%rbp)
   13ac9:	c6 85 65 e1 ff ff 3b 	movb   $0x3b,-0x1e9b(%rbp)
   13ad0:	48 c7 85 d0 e7 ff ff 	movq   $0x0,-0x1830(%rbp)
   13ad7:	00 00 00 00 
   13adb:	48 c7 85 d8 e7 ff ff 	movq   $0x0,-0x1828(%rbp)
   13ae2:	00 00 00 00 
   13ae6:	48 c7 85 e0 e7 ff ff 	movq   $0x0,-0x1820(%rbp)
   13aed:	00 00 00 00 
   13af1:	48 c7 85 e8 e7 ff ff 	movq   $0x0,-0x1818(%rbp)
   13af8:	00 00 00 00 
   13afc:	48 c7 85 f0 e7 ff ff 	movq   $0x0,-0x1810(%rbp)
   13b03:	00 00 00 00 
   13b07:	48 c7 85 f8 e7 ff ff 	movq   $0x0,-0x1808(%rbp)
   13b0e:	00 00 00 00 
   13b12:	48 c7 85 00 e8 ff ff 	movq   $0x0,-0x1800(%rbp)
   13b19:	00 00 00 00 
   13b1d:	48 c7 85 08 e8 ff ff 	movq   $0x0,-0x17f8(%rbp)
   13b24:	00 00 00 00 
   13b28:	48 c7 85 10 e8 ff ff 	movq   $0x0,-0x17f0(%rbp)
   13b2f:	00 00 00 00 
   13b33:	48 c7 85 18 e8 ff ff 	movq   $0x0,-0x17e8(%rbp)
   13b3a:	00 00 00 00 
   13b3e:	48 8d 85 d0 e7 ff ff 	lea    -0x1830(%rbp),%rax
   13b45:	48 83 c0 10          	add    $0x10,%rax
   13b49:	48 89 85 c0 e3 ff ff 	mov    %rax,-0x1c40(%rbp)
   13b50:	c6 85 66 e1 ff ff c4 	movb   $0xc4,-0x1e9a(%rbp)
   13b57:	48 8d 85 70 ed ff ff 	lea    -0x1290(%rbp),%rax
   13b5e:	48 8d 15 5b ca 00 00 	lea    0xca5b(%rip),%rdx        # 205c0 <g_1983+0x558>
   13b65:	b9 7e 00 00 00       	mov    $0x7e,%ecx
   13b6a:	48 89 c7             	mov    %rax,%rdi
   13b6d:	48 89 d6             	mov    %rdx,%rsi
   13b70:	f3 48 a5             	rep movsq %ds:(%rsi),%es:(%rdi)
   13b73:	48 8d 05 a6 46 01 00 	lea    0x146a6(%rip),%rax        # 28220 <g_766+0xe0>
   13b7a:	48 89 85 c8 e3 ff ff 	mov    %rax,-0x1c38(%rbp)
   13b81:	48 c7 85 20 e3 ff ff 	movq   $0x0,-0x1ce0(%rbp)
   13b88:	00 00 00 00 
   13b8c:	48 8d 85 c0 e5 ff ff 	lea    -0x1a40(%rbp),%rax
   13b93:	48 89 85 d0 e3 ff ff 	mov    %rax,-0x1c30(%rbp)
   13b9a:	48 c7 85 d8 e3 ff ff 	movq   $0xffffffffffffffff,-0x1c28(%rbp)
   13ba1:	ff ff ff ff 
   13ba5:	66 c7 85 7c e1 ff ff 	movw   $0xda00,-0x1e84(%rbp)
   13bac:	00 da 
   13bae:	c7 85 c8 e1 ff ff 00 	movl   $0x0,-0x1e38(%rbp)
   13bb5:	00 00 00 
   13bb8:	eb 1e                	jmp    13bd8 <func_32+0x3200>
   13bba:	8b 85 c8 e1 ff ff    	mov    -0x1e38(%rbp),%eax
   13bc0:	48 98                	cltq   
   13bc2:	48 8d 15 07 16 01 00 	lea    0x11607(%rip),%rdx        # 251d0 <g_394>
   13bc9:	48 89 94 c5 30 e7 ff 	mov    %rdx,-0x18d0(%rbp,%rax,8)
   13bd0:	ff 
   13bd1:	83 85 c8 e1 ff ff 01 	addl   $0x1,-0x1e38(%rbp)
   13bd8:	83 bd c8 e1 ff ff 05 	cmpl   $0x5,-0x1e38(%rbp)
   13bdf:	7e d9                	jle    13bba <func_32+0x31e2>
   13be1:	c7 85 c8 e1 ff ff 00 	movl   $0x0,-0x1e38(%rbp)
   13be8:	00 00 00 
   13beb:	eb 1e                	jmp    13c0b <func_32+0x3233>
   13bed:	8b 85 c8 e1 ff ff    	mov    -0x1e38(%rbp),%eax
   13bf3:	48 98                	cltq   
   13bf5:	48 8d 15 b8 15 01 00 	lea    0x115b8(%rip),%rdx        # 251b4 <g_213>
   13bfc:	48 89 94 c5 b0 e5 ff 	mov    %rdx,-0x1a50(%rbp,%rax,8)
   13c03:	ff 
   13c04:	83 85 c8 e1 ff ff 01 	addl   $0x1,-0x1e38(%rbp)
   13c0b:	83 bd c8 e1 ff ff 01 	cmpl   $0x1,-0x1e38(%rbp)
   13c12:	7e d9                	jle    13bed <func_32+0x3215>
   13c14:	c7 85 c8 e1 ff ff 00 	movl   $0x0,-0x1e38(%rbp)
   13c1b:	00 00 00 
   13c1e:	eb 71                	jmp    13c91 <func_32+0x32b9>
   13c20:	c7 85 cc e1 ff ff 00 	movl   $0x0,-0x1e34(%rbp)
   13c27:	00 00 00 
   13c2a:	eb 55                	jmp    13c81 <func_32+0x32a9>
   13c2c:	c7 85 d0 e1 ff ff 00 	movl   $0x0,-0x1e30(%rbp)
   13c33:	00 00 00 
   13c36:	eb 39                	jmp    13c71 <func_32+0x3299>
   13c38:	8b 85 d0 e1 ff ff    	mov    -0x1e30(%rbp),%eax
   13c3e:	48 63 d0             	movslq %eax,%rdx
   13c41:	8b 85 cc e1 ff ff    	mov    -0x1e34(%rbp),%eax
   13c47:	48 98                	cltq   
   13c49:	8b 8d c8 e1 ff ff    	mov    -0x1e38(%rbp),%ecx
   13c4f:	48 63 c9             	movslq %ecx,%rcx
   13c52:	48 01 c9             	add    %rcx,%rcx
   13c55:	48 01 ca             	add    %rcx,%rdx
   13c58:	48 01 c2             	add    %rax,%rdx
   13c5b:	48 8d 85 90 e1 ff ff 	lea    -0x1e70(%rbp),%rax
   13c62:	48 89 84 d5 60 e7 ff 	mov    %rax,-0x18a0(%rbp,%rdx,8)
   13c69:	ff 
   13c6a:	83 85 d0 e1 ff ff 01 	addl   $0x1,-0x1e30(%rbp)
   13c71:	83 bd d0 e1 ff ff 00 	cmpl   $0x0,-0x1e30(%rbp)
   13c78:	7e be                	jle    13c38 <func_32+0x3260>
   13c7a:	83 85 cc e1 ff ff 01 	addl   $0x1,-0x1e34(%rbp)
   13c81:	83 bd cc e1 ff ff 01 	cmpl   $0x1,-0x1e34(%rbp)
   13c88:	7e a2                	jle    13c2c <func_32+0x3254>
   13c8a:	83 85 c8 e1 ff ff 01 	addl   $0x1,-0x1e38(%rbp)
   13c91:	83 bd c8 e1 ff ff 02 	cmpl   $0x2,-0x1e38(%rbp)
   13c98:	7e 86                	jle    13c20 <func_32+0x3248>
   13c9a:	c7 85 c8 e1 ff ff 00 	movl   $0x0,-0x1e38(%rbp)
   13ca1:	00 00 00 
   13ca4:	eb 4f                	jmp    13cf5 <func_32+0x331d>
   13ca6:	c7 85 cc e1 ff ff 00 	movl   $0x0,-0x1e34(%rbp)
   13cad:	00 00 00 
   13cb0:	eb 33                	jmp    13ce5 <func_32+0x330d>
   13cb2:	8b 85 cc e1 ff ff    	mov    -0x1e34(%rbp),%eax
   13cb8:	48 63 c8             	movslq %eax,%rcx
   13cbb:	8b 85 c8 e1 ff ff    	mov    -0x1e38(%rbp),%eax
   13cc1:	48 63 d0             	movslq %eax,%rdx
   13cc4:	48 89 d0             	mov    %rdx,%rax
   13cc7:	48 01 c0             	add    %rax,%rax
   13cca:	48 01 d0             	add    %rdx,%rax
   13ccd:	48 01 c0             	add    %rax,%rax
   13cd0:	48 01 c8             	add    %rcx,%rax
   13cd3:	c7 84 85 e0 e5 ff ff 	movl   $0xffffffff,-0x1a20(%rbp,%rax,4)
   13cda:	ff ff ff ff 
   13cde:	83 85 cc e1 ff ff 01 	addl   $0x1,-0x1e34(%rbp)
   13ce5:	83 bd cc e1 ff ff 05 	cmpl   $0x5,-0x1e34(%rbp)
   13cec:	7e c4                	jle    13cb2 <func_32+0x32da>
   13cee:	83 85 c8 e1 ff ff 01 	addl   $0x1,-0x1e38(%rbp)
   13cf5:	83 bd c8 e1 ff ff 00 	cmpl   $0x0,-0x1e38(%rbp)
   13cfc:	7e a8                	jle    13ca6 <func_32+0x32ce>
   13cfe:	c7 85 c8 e1 ff ff 00 	movl   $0x0,-0x1e38(%rbp)
   13d05:	00 00 00 
   13d08:	eb 1e                	jmp    13d28 <func_32+0x3350>
   13d0a:	8b 85 c8 e1 ff ff    	mov    -0x1e38(%rbp),%eax
   13d10:	48 98                	cltq   
   13d12:	48 8d 95 20 e3 ff ff 	lea    -0x1ce0(%rbp),%rdx
   13d19:	48 89 94 c5 c0 e5 ff 	mov    %rdx,-0x1a40(%rbp,%rax,8)
   13d20:	ff 
   13d21:	83 85 c8 e1 ff ff 01 	addl   $0x1,-0x1e38(%rbp)
   13d28:	83 bd c8 e1 ff ff 01 	cmpl   $0x1,-0x1e38(%rbp)
   13d2f:	7e d9                	jle    13d0a <func_32+0x3332>
   13d31:	48 c7 85 e8 e2 ff ff 	movq   $0x0,-0x1d18(%rbp)
   13d38:	00 00 00 00 
   13d3c:	48 8b 85 70 e3 ff ff 	mov    -0x1c90(%rbp),%rax
   13d43:	48 c7 00 00 00 00 00 	movq   $0x0,(%rax)
   13d4a:	8b 05 78 14 01 00    	mov    0x11478(%rip),%eax        # 251c8 <g_359>
   13d50:	85 c0                	test   %eax,%eax
   13d52:	48 8b 85 38 e1 ff ff 	mov    -0x1ec8(%rbp),%rax
   13d59:	0f b7 d8             	movzwl %ax,%ebx
   13d5c:	8b 05 a2 15 01 00    	mov    0x115a2(%rip),%eax        # 25304 <g_842+0x24>
   13d62:	0f b7 d0             	movzwl %ax,%edx
   13d65:	48 8b 05 9c 43 01 00 	mov    0x1439c(%rip),%rax        # 28108 <g_311>
   13d6c:	0f b6 00             	movzbl (%rax),%eax
   13d6f:	66 98                	cbtw   
   13d71:	48 8b 8d 48 e1 ff ff 	mov    -0x1eb8(%rbp),%rcx
   13d78:	31 c8                	xor    %ecx,%eax
   13d7a:	0f b7 c0             	movzwl %ax,%eax
   13d7d:	89 d6                	mov    %edx,%esi
   13d7f:	89 c7                	mov    %eax,%edi
   13d81:	e8 99 8f ff ff       	callq  cd1f <safe_sub_func_uint16_t_u_u>
   13d86:	48 8b 85 10 e3 ff ff 	mov    -0x1cf0(%rbp),%rax
   13d8d:	66 c7 00 01 00       	movw   $0x1,(%rax)
   13d92:	0f b7 00             	movzwl (%rax),%eax
   13d95:	0f b7 c0             	movzwl %ax,%eax
   13d98:	89 de                	mov    %ebx,%esi
   13d9a:	89 c7                	mov    %eax,%edi
   13d9c:	e8 bb 8f ff ff       	callq  cd5c <safe_mod_func_uint16_t_u_u>
   13da1:	0f b7 c0             	movzwl %ax,%eax
   13da4:	48 c7 c6 fe ff ff ff 	mov    $0xfffffffffffffffe,%rsi
   13dab:	48 89 c7             	mov    %rax,%rdi
   13dae:	e8 98 92 ff ff       	callq  d04b <safe_sub_func_uint64_t_u_u>
   13db3:	0f b7 d0             	movzwl %ax,%edx
   13db6:	c7 85 88 e1 ff ff 0d 	movl   $0xc0e5eb0d,-0x1e78(%rbp)
   13dbd:	eb e5 c0 
   13dc0:	48 8b 05 41 43 01 00 	mov    0x14341(%rip),%rax        # 28108 <g_311>
   13dc7:	0f b6 00             	movzbl (%rax),%eax
   13dca:	0f be c0             	movsbl %al,%eax
   13dcd:	8b 0d b9 13 01 00    	mov    0x113b9(%rip),%ecx        # 2518c <g_127>
   13dd3:	81 f1 0d eb e5 c0    	xor    $0xc0e5eb0d,%ecx
   13dd9:	39 c8                	cmp    %ecx,%eax
   13ddb:	0f 95 c0             	setne  %al
   13dde:	0f b6 c0             	movzbl %al,%eax
   13de1:	89 d6                	mov    %edx,%esi
   13de3:	89 c7                	mov    %eax,%edi
   13de5:	e8 15 8f ff ff       	callq  ccff <safe_add_func_uint16_t_u_u>
   13dea:	c7 85 8c e1 ff ff 00 	movl   $0x0,-0x1e74(%rbp)
   13df1:	00 00 00 
   13df4:	8b 85 8c e1 ff ff    	mov    -0x1e74(%rbp),%eax
   13dfa:	85 c0                	test   %eax,%eax
   13dfc:	0f 84 be 08 00 00    	je     146c0 <func_32+0x3ce8>
   13e02:	48 8d 05 7f 13 01 00 	lea    0x1137f(%rip),%rax        # 25188 <g_98>
   13e09:	48 89 85 b0 e4 ff ff 	mov    %rax,-0x1b50(%rbp)
   13e10:	48 8d 05 e1 15 01 00 	lea    0x115e1(%rip),%rax        # 253f8 <g_1381>
   13e17:	48 89 85 b8 e4 ff ff 	mov    %rax,-0x1b48(%rbp)
   13e1e:	c7 85 28 e3 ff ff 31 	movl   $0x55b14b31,-0x1cd8(%rbp)
   13e25:	4b b1 55 
   13e28:	48 8d 85 f0 f7 ff ff 	lea    -0x810(%rbp),%rax
   13e2f:	48 8d 15 8a cb 00 00 	lea    0xcb8a(%rip),%rdx        # 209c0 <g_1983+0x958>
   13e36:	b9 28 00 00 00       	mov    $0x28,%ecx
   13e3b:	48 89 c7             	mov    %rax,%rdi
   13e3e:	48 89 d6             	mov    %rdx,%rsi
   13e41:	f3 48 a5             	rep movsq %ds:(%rsi),%es:(%rdi)
   13e44:	c7 85 60 e2 ff ff c3 	movl   $0x6fa48bc3,-0x1da0(%rbp)
   13e4b:	8b a4 6f 
   13e4e:	0f b6 05 6d 13 01 00 	movzbl 0x1136d(%rip),%eax        # 251c2 <g_312>
   13e55:	84 c0                	test   %al,%al
   13e57:	0f 84 fb 05 00 00    	je     14458 <func_32+0x3a80>
   13e5d:	48 c7 85 d0 e4 ff ff 	movq   $0x0,-0x1b30(%rbp)
   13e64:	00 00 00 00 
   13e68:	48 8d 05 69 13 01 00 	lea    0x11369(%rip),%rax        # 251d8 <g_453>
   13e6f:	48 89 85 d8 e4 ff ff 	mov    %rax,-0x1b28(%rbp)
   13e76:	c7 85 64 e2 ff ff 9a 	movl   $0xffee819a,-0x1d9c(%rbp)
   13e7d:	81 ee ff 
   13e80:	48 8d 85 5e e1 ff ff 	lea    -0x1ea2(%rbp),%rax
   13e87:	48 89 85 e0 e4 ff ff 	mov    %rax,-0x1b20(%rbp)
   13e8e:	48 c7 85 e8 e4 ff ff 	movq   $0x0,-0x1b18(%rbp)
   13e95:	00 00 00 00 
   13e99:	48 c7 85 f0 e4 ff ff 	movq   $0x0,-0x1b10(%rbp)
   13ea0:	00 00 00 00 
   13ea4:	c7 85 d4 e1 ff ff 00 	movl   $0x0,-0x1e2c(%rbp)
   13eab:	00 00 00 
   13eae:	eb 1e                	jmp    13ece <func_32+0x34f6>
   13eb0:	8b 85 d4 e1 ff ff    	mov    -0x1e2c(%rbp),%eax
   13eb6:	48 98                	cltq   
   13eb8:	48 8d 15 d9 12 01 00 	lea    0x112d9(%rip),%rdx        # 25198 <g_176>
   13ebf:	48 89 94 c5 30 e9 ff 	mov    %rdx,-0x16d0(%rbp,%rax,8)
   13ec6:	ff 
   13ec7:	83 85 d4 e1 ff ff 01 	addl   $0x1,-0x1e2c(%rbp)
   13ece:	83 bd d4 e1 ff ff 02 	cmpl   $0x2,-0x1e2c(%rbp)
   13ed5:	7e d9                	jle    13eb0 <func_32+0x34d8>
   13ed7:	48 8b 85 b0 e4 ff ff 	mov    -0x1b50(%rbp),%rax
   13ede:	48 89 85 18 e3 ff ff 	mov    %rax,-0x1ce8(%rbp)
   13ee5:	48 8b 85 38 e1 ff ff 	mov    -0x1ec8(%rbp),%rax
   13eec:	89 c2                	mov    %eax,%edx
   13eee:	48 8b 85 d8 e4 ff ff 	mov    -0x1b28(%rbp),%rax
   13ef5:	66 89 10             	mov    %dx,(%rax)
   13ef8:	48 8b 85 d8 e4 ff ff 	mov    -0x1b28(%rbp),%rax
   13eff:	0f b7 00             	movzwl (%rax),%eax
   13f02:	66 85 c0             	test   %ax,%ax
   13f05:	0f 84 ab 00 00 00    	je     13fb6 <func_32+0x35de>
   13f0b:	48 8b 85 18 e3 ff ff 	mov    -0x1ce8(%rbp),%rax
   13f12:	8b 00                	mov    (%rax),%eax
   13f14:	0f b6 d8             	movzbl %al,%ebx
   13f17:	8b 85 64 e2 ff ff    	mov    -0x1d9c(%rbp),%eax
   13f1d:	44 0f be e0          	movsbl %al,%r12d
   13f21:	48 8b 85 48 e1 ff ff 	mov    -0x1eb8(%rbp),%rax
   13f28:	89 c2                	mov    %eax,%edx
   13f2a:	48 8b 85 70 e3 ff ff 	mov    -0x1c90(%rbp),%rax
   13f31:	48 8b 00             	mov    (%rax),%rax
   13f34:	48 85 c0             	test   %rax,%rax
   13f37:	89 d6                	mov    %edx,%esi
   13f39:	bf 30 00 00 00       	mov    $0x30,%edi
   13f3e:	e8 09 8d ff ff       	callq  cc4c <safe_lshift_func_uint8_t_u_u>
   13f43:	0f b6 c0             	movzbl %al,%eax
   13f46:	be 03 00 00 00       	mov    $0x3,%esi
   13f4b:	89 c7                	mov    %eax,%edi
   13f4d:	e8 11 86 ff ff       	callq  c563 <safe_rshift_func_int16_t_s_u>
   13f52:	89 c2                	mov    %eax,%edx
   13f54:	48 8b 85 d0 e2 ff ff 	mov    -0x1d30(%rbp),%rax
   13f5b:	88 10                	mov    %dl,(%rax)
   13f5d:	0f b6 00             	movzbl (%rax),%eax
   13f60:	0f b6 c0             	movzbl %al,%eax
   13f63:	be 00 00 00 00       	mov    $0x0,%esi
   13f68:	89 c7                	mov    %eax,%edi
   13f6a:	e8 1e 8d ff ff       	callq  cc8d <safe_rshift_func_uint8_t_u_s>
   13f6f:	0f b6 c0             	movzbl %al,%eax
   13f72:	be ec d5 70 57       	mov    $0x5770d5ec,%esi
   13f77:	89 c7                	mov    %eax,%edi
   13f79:	e8 4e 87 ff ff       	callq  c6cc <safe_mod_func_int32_t_s_s>
   13f7e:	0f be c0             	movsbl %al,%eax
   13f81:	44 89 e6             	mov    %r12d,%esi
   13f84:	89 c7                	mov    %eax,%edi
   13f86:	e8 87 82 ff ff       	callq  c212 <safe_mul_func_int8_t_s_s>
   13f8b:	48 0f be c0          	movsbq %al,%rax
   13f8f:	48 39 85 38 e1 ff ff 	cmp    %rax,-0x1ec8(%rbp)
   13f96:	0f 96 c0             	setbe  %al
   13f99:	0f b6 c0             	movzbl %al,%eax
   13f9c:	89 de                	mov    %ebx,%esi
   13f9e:	89 c7                	mov    %eax,%edi
   13fa0:	e8 ee 8b ff ff       	callq  cb93 <safe_mul_func_uint8_t_u_u>
   13fa5:	48 83 bd 38 e1 ff ff 	cmpq   $0x0,-0x1ec8(%rbp)
   13fac:	00 
   13fad:	74 07                	je     13fb6 <func_32+0x35de>
   13faf:	ba 01 00 00 00       	mov    $0x1,%edx
   13fb4:	eb 05                	jmp    13fbb <func_32+0x35e3>
   13fb6:	ba 00 00 00 00       	mov    $0x0,%edx
   13fbb:	0f bf 85 44 e1 ff ff 	movswl -0x1ebc(%rbp),%eax
   13fc2:	39 c2                	cmp    %eax,%edx
   13fc4:	0f 9c c0             	setl   %al
   13fc7:	0f b6 d0             	movzbl %al,%edx
   13fca:	0f bf 85 44 e1 ff ff 	movswl -0x1ebc(%rbp),%eax
   13fd1:	39 c2                	cmp    %eax,%edx
   13fd3:	0f 9d c0             	setge  %al
   13fd6:	0f b6 c0             	movzbl %al,%eax
   13fd9:	be 08 00 00 00       	mov    $0x8,%esi
   13fde:	89 c7                	mov    %eax,%edi
   13fe0:	e8 ad 84 ff ff       	callq  c492 <safe_lshift_func_int16_t_s_s>
   13fe5:	89 c2                	mov    %eax,%edx
   13fe7:	48 8b 85 48 e1 ff ff 	mov    -0x1eb8(%rbp),%rax
   13fee:	31 d0                	xor    %edx,%eax
   13ff0:	0f be c0             	movsbl %al,%eax
   13ff3:	89 c7                	mov    %eax,%edi
   13ff5:	e8 c5 81 ff ff       	callq  c1bf <safe_unary_minus_func_int8_t_s>
   13ffa:	48 be 4f 8e 8f 4b b8 	movabs $0x470776b84b8f8e4f,%rsi
   14001:	76 07 47 
   14004:	bf 01 00 00 00       	mov    $0x1,%edi
   14009:	e8 e9 89 ff ff       	callq  c9f7 <safe_div_func_int64_t_s_s>
   1400e:	48 89 c2             	mov    %rax,%rdx
   14011:	48 8b 85 e0 e4 ff ff 	mov    -0x1b20(%rbp),%rax
   14018:	0f b6 00             	movzbl (%rax),%eax
   1401b:	89 c1                	mov    %eax,%ecx
   1401d:	89 d0                	mov    %edx,%eax
   1401f:	09 c8                	or     %ecx,%eax
   14021:	89 c2                	mov    %eax,%edx
   14023:	48 8b 85 e0 e4 ff ff 	mov    -0x1b20(%rbp),%rax
   1402a:	88 10                	mov    %dl,(%rax)
   1402c:	48 8b 85 b0 e4 ff ff 	mov    -0x1b50(%rbp),%rax
   14033:	8b 00                	mov    (%rax),%eax
   14035:	89 c2                	mov    %eax,%edx
   14037:	48 8b 85 38 e1 ff ff 	mov    -0x1ec8(%rbp),%rax
   1403e:	31 d0                	xor    %edx,%eax
   14040:	0f be d0             	movsbl %al,%edx
   14043:	48 8b 05 be 40 01 00 	mov    0x140be(%rip),%rax        # 28108 <g_311>
   1404a:	0f b6 00             	movzbl (%rax),%eax
   1404d:	0f be c0             	movsbl %al,%eax
   14050:	89 d6                	mov    %edx,%esi
   14052:	89 c7                	mov    %eax,%edi
   14054:	e8 d8 81 ff ff       	callq  c231 <safe_mod_func_int8_t_s_s>
   14059:	48 c7 85 38 e1 ff ff 	movq   $0x1,-0x1ec8(%rbp)
   14060:	01 00 00 00 
   14064:	48 8b 85 48 e1 ff ff 	mov    -0x1eb8(%rbp),%rax
   1406b:	48 39 85 38 e1 ff ff 	cmp    %rax,-0x1ec8(%rbp)
   14072:	0f 93 c0             	setae  %al
   14075:	0f b6 d0             	movzbl %al,%edx
   14078:	48 8b 85 b0 e4 ff ff 	mov    -0x1b50(%rbp),%rax
   1407f:	8b 00                	mov    (%rax),%eax
   14081:	0f b7 c0             	movzwl %ax,%eax
   14084:	89 d6                	mov    %edx,%esi
   14086:	89 c7                	mov    %eax,%edi
   14088:	e8 92 8c ff ff       	callq  cd1f <safe_sub_func_uint16_t_u_u>
   1408d:	0f b7 c0             	movzwl %ax,%eax
   14090:	48 8b 95 48 e1 ff ff 	mov    -0x1eb8(%rbp),%rdx
   14097:	09 c2                	or     %eax,%edx
   14099:	0f bf 85 44 e1 ff ff 	movswl -0x1ebc(%rbp),%eax
   140a0:	31 c2                	xor    %eax,%edx
   140a2:	48 8b 85 48 e1 ff ff 	mov    -0x1eb8(%rbp),%rax
   140a9:	89 c1                	mov    %eax,%ecx
   140ab:	48 8b 85 18 e3 ff ff 	mov    -0x1ce8(%rbp),%rax
   140b2:	21 ca                	and    %ecx,%edx
   140b4:	89 10                	mov    %edx,(%rax)
   140b6:	8b 00                	mov    (%rax),%eax
   140b8:	85 c0                	test   %eax,%eax
   140ba:	0f 84 ec 00 00 00    	je     141ac <func_32+0x37d4>
   140c0:	48 8b 85 18 e3 ff ff 	mov    -0x1ce8(%rbp),%rax
   140c7:	8b 00                	mov    (%rax),%eax
   140c9:	0f b7 d8             	movzwl %ax,%ebx
   140cc:	48 8b 05 2d 40 01 00 	mov    0x1402d(%rip),%rax        # 28100 <g_124>
   140d3:	48 8b 00             	mov    (%rax),%rax
   140d6:	48 89 c7             	mov    %rax,%rdi
   140d9:	e8 38 87 ff ff       	callq  c816 <safe_unary_minus_func_int64_t_s>
   140de:	49 89 c4             	mov    %rax,%r12
   140e1:	be 0e 00 00 00       	mov    $0xe,%esi
   140e6:	bf ef c6 00 00       	mov    $0xc6ef,%edi
   140eb:	e8 16 8d ff ff       	callq  ce06 <safe_lshift_func_uint16_t_u_u>
   140f0:	0f b7 c0             	movzwl %ax,%eax
   140f3:	49 39 c4             	cmp    %rax,%r12
   140f6:	0f 9d c0             	setge  %al
   140f9:	0f b6 c0             	movzbl %al,%eax
   140fc:	89 de                	mov    %ebx,%esi
   140fe:	89 c7                	mov    %eax,%edi
   14100:	e8 38 8c ff ff       	callq  cd3d <safe_mul_func_uint16_t_u_u>
   14105:	0f b6 c0             	movzbl %al,%eax
   14108:	89 c7                	mov    %eax,%edi
   1410a:	e8 36 8a ff ff       	callq  cb45 <safe_unary_minus_func_uint8_t_u>
   1410f:	48 8b 15 f2 3f 01 00 	mov    0x13ff2(%rip),%rdx        # 28108 <g_311>
   14116:	48 8b 05 eb 3f 01 00 	mov    0x13feb(%rip),%rax        # 28108 <g_311>
   1411d:	0f b6 12             	movzbl (%rdx),%edx
   14120:	88 10                	mov    %dl,(%rax)
   14122:	be 07 00 00 00       	mov    $0x7,%esi
   14127:	bf 01 00 00 00       	mov    $0x1,%edi
   1412c:	e8 d5 8c ff ff       	callq  ce06 <safe_lshift_func_uint16_t_u_u>
   14131:	ba 01 00 00 00       	mov    $0x1,%edx
   14136:	8b 05 d4 11 01 00    	mov    0x111d4(%rip),%eax        # 25310 <g_842+0x30>
   1413c:	21 d0                	and    %edx,%eax
   1413e:	89 05 cc 11 01 00    	mov    %eax,0x111cc(%rip)        # 25310 <g_842+0x30>
   14144:	48 8b 85 18 e3 ff ff 	mov    -0x1ce8(%rbp),%rax
   1414b:	48 8b 95 b0 e4 ff ff 	mov    -0x1b50(%rbp),%rdx
   14152:	8b 12                	mov    (%rdx),%edx
   14154:	89 10                	mov    %edx,(%rax)
   14156:	48 8b 85 b0 e4 ff ff 	mov    -0x1b50(%rbp),%rax
   1415d:	8b 00                	mov    (%rax),%eax
   1415f:	85 c0                	test   %eax,%eax
   14161:	0f 85 a8 19 00 00    	jne    15b0f <func_32+0x5137>
   14167:	66 c7 05 50 11 01 00 	movw   $0x0,0x11150(%rip)        # 252c0 <g_800>
   1416e:	00 00 
   14170:	eb 28                	jmp    1419a <func_32+0x37c2>
   14172:	0f b7 05 47 11 01 00 	movzwl 0x11147(%rip),%eax        # 252c0 <g_800>
   14179:	0f b7 c0             	movzwl %ax,%eax
   1417c:	48 98                	cltq   
   1417e:	48 8d 15 3e 10 01 00 	lea    0x1103e(%rip),%rdx        # 251c3 <g_323>
   14185:	c6 04 10 01          	movb   $0x1,(%rax,%rdx,1)
   14189:	0f b7 05 30 11 01 00 	movzwl 0x11130(%rip),%eax        # 252c0 <g_800>
   14190:	83 c0 01             	add    $0x1,%eax
   14193:	66 89 05 26 11 01 00 	mov    %ax,0x11126(%rip)        # 252c0 <g_800>
   1419a:	0f b7 05 1f 11 01 00 	movzwl 0x1111f(%rip),%eax        # 252c0 <g_800>
   141a1:	66 83 f8 01          	cmp    $0x1,%ax
   141a5:	76 cb                	jbe    14172 <func_32+0x379a>
   141a7:	e9 8c 02 00 00       	jmpq   14438 <func_32+0x3a60>
   141ac:	48 8d 05 3d 42 01 00 	lea    0x1423d(%rip),%rax        # 283f0 <g_1376>
   141b3:	48 89 85 f8 e4 ff ff 	mov    %rax,-0x1b08(%rbp)
   141ba:	c7 85 68 e2 ff ff 2e 	movl   $0x81998f2e,-0x1d98(%rbp)
   141c1:	8f 99 81 
   141c4:	c7 85 6c e2 ff ff ff 	movl   $0xffffffff,-0x1d94(%rbp)
   141cb:	ff ff ff 
   141ce:	c7 85 70 e2 ff ff ff 	movl   $0xffffffff,-0x1d90(%rbp)
   141d5:	ff ff ff 
   141d8:	66 c7 85 80 e1 ff ff 	movw   $0x1,-0x1e80(%rbp)
   141df:	01 00 
   141e1:	48 c7 85 00 e5 ff ff 	movq   $0x0,-0x1b00(%rbp)
   141e8:	00 00 00 00 
   141ec:	48 8d 85 d8 e2 ff ff 	lea    -0x1d28(%rbp),%rax
   141f3:	48 89 85 08 e5 ff ff 	mov    %rax,-0x1af8(%rbp)
   141fa:	48 8b 05 07 3f 01 00 	mov    0x13f07(%rip),%rax        # 28108 <g_311>
   14201:	0f b6 00             	movzbl (%rax),%eax
   14204:	0f be d8             	movsbl %al,%ebx
   14207:	0f b7 85 44 e1 ff ff 	movzwl -0x1ebc(%rbp),%eax
   1420e:	44 0f be e0          	movsbl %al,%r12d
   14212:	48 8b 85 f0 e4 ff ff 	mov    -0x1b10(%rbp),%rax
   14219:	48 3b 85 b0 e4 ff ff 	cmp    -0x1b50(%rbp),%rax
   14220:	0f 95 c0             	setne  %al
   14223:	0f b6 d0             	movzbl %al,%edx
   14226:	48 8b 85 18 e3 ff ff 	mov    -0x1ce8(%rbp),%rax
   1422d:	8b 00                	mov    (%rax),%eax
   1422f:	0f b6 c0             	movzbl %al,%eax
   14232:	89 d6                	mov    %edx,%esi
   14234:	89 c7                	mov    %eax,%edi
   14236:	e8 58 89 ff ff       	callq  cb93 <safe_mul_func_uint8_t_u_u>
   1423b:	84 c0                	test   %al,%al
   1423d:	0f 84 bb 00 00 00    	je     142fe <func_32+0x3926>
   14243:	48 8b 05 be 3e 01 00 	mov    0x13ebe(%rip),%rax        # 28108 <g_311>
   1424a:	0f b6 00             	movzbl (%rax),%eax
   1424d:	44 0f be e8          	movsbl %al,%r13d
   14251:	0f b6 05 9e 0f 01 00 	movzbl 0x10f9e(%rip),%eax        # 251f6 <g_640+0x16>
   14258:	0f be d0             	movsbl %al,%edx
   1425b:	48 8b 0d 8e 41 01 00 	mov    0x1418e(%rip),%rcx        # 283f0 <g_1376>
   14262:	48 8b 85 f8 e4 ff ff 	mov    -0x1b08(%rbp),%rax
   14269:	48 89 08             	mov    %rcx,(%rax)
   1426c:	48 8b 85 f8 e4 ff ff 	mov    -0x1b08(%rbp),%rax
   14273:	48 8b 00             	mov    (%rax),%rax
   14276:	48 85 c0             	test   %rax,%rax
   14279:	0f 95 c1             	setne  %cl
   1427c:	48 8b 05 55 40 01 00 	mov    0x14055(%rip),%rax        # 282d8 <g_819>
   14283:	48 8b 00             	mov    (%rax),%rax
   14286:	48 39 85 b8 e4 ff ff 	cmp    %rax,-0x1b48(%rbp)
   1428d:	0f 95 c0             	setne  %al
   14290:	21 c8                	and    %ecx,%eax
   14292:	0f b6 c8             	movzbl %al,%ecx
   14295:	48 8b 85 18 e3 ff ff 	mov    -0x1ce8(%rbp),%rax
   1429c:	8b 00                	mov    (%rax),%eax
   1429e:	48 98                	cltq   
   142a0:	48 39 85 38 e1 ff ff 	cmp    %rax,-0x1ec8(%rbp)
   142a7:	0f 97 c0             	seta   %al
   142aa:	0f b6 c0             	movzbl %al,%eax
   142ad:	39 c1                	cmp    %eax,%ecx
   142af:	0f 95 c0             	setne  %al
   142b2:	0f b6 c0             	movzbl %al,%eax
   142b5:	89 d6                	mov    %edx,%esi
   142b7:	89 c7                	mov    %eax,%edi
   142b9:	e8 f5 80 ff ff       	callq  c3b3 <safe_add_func_int16_t_s_s>
   142be:	89 c2                	mov    %eax,%edx
   142c0:	0f b7 85 44 e1 ff ff 	movzwl -0x1ebc(%rbp),%eax
   142c7:	31 d0                	xor    %edx,%eax
   142c9:	0f be c0             	movsbl %al,%eax
   142cc:	44 89 ee             	mov    %r13d,%esi
   142cf:	89 c7                	mov    %eax,%edi
   142d1:	e8 1c 7f ff ff       	callq  c1f2 <safe_sub_func_int8_t_s_s>
   142d6:	0f be c0             	movsbl %al,%eax
   142d9:	89 c6                	mov    %eax,%esi
   142db:	bf ff ff 00 00       	mov    $0xffff,%edi
   142e0:	e8 95 8b ff ff       	callq  ce7a <safe_rshift_func_uint16_t_u_u>
   142e5:	0f b7 d0             	movzwl %ax,%edx
   142e8:	48 8b 05 11 3e 01 00 	mov    0x13e11(%rip),%rax        # 28100 <g_124>
   142ef:	48 8b 00             	mov    (%rax),%rax
   142f2:	48 39 c2             	cmp    %rax,%rdx
   142f5:	74 07                	je     142fe <func_32+0x3926>
   142f7:	b8 01 00 00 00       	mov    $0x1,%eax
   142fc:	eb 05                	jmp    14303 <func_32+0x392b>
   142fe:	b8 00 00 00 00       	mov    $0x0,%eax
   14303:	83 f8 fb             	cmp    $0xfffffffb,%eax
   14306:	0f 97 c0             	seta   %al
   14309:	0f b6 c0             	movzbl %al,%eax
   1430c:	44 89 e6             	mov    %r12d,%esi
   1430f:	89 c7                	mov    %eax,%edi
   14311:	e8 1b 7f ff ff       	callq  c231 <safe_mod_func_int8_t_s_s>
   14316:	0f b6 c0             	movzbl %al,%eax
   14319:	89 de                	mov    %ebx,%esi
   1431b:	89 c7                	mov    %eax,%edi
   1431d:	e8 6b 89 ff ff       	callq  cc8d <safe_rshift_func_uint8_t_u_s>
   14322:	0f b6 c0             	movzbl %al,%eax
   14325:	be 00 00 00 00       	mov    $0x0,%esi
   1432a:	48 89 c7             	mov    %rax,%rdi
   1432d:	e8 0f 85 ff ff       	callq  c841 <safe_add_func_int64_t_s_s>
   14332:	48 85 c0             	test   %rax,%rax
   14335:	74 4a                	je     14381 <func_32+0x39a9>
   14337:	c7 85 d8 e1 ff ff 00 	movl   $0x0,-0x1e28(%rbp)
   1433e:	00 00 00 
   14341:	eb 14                	jmp    14357 <func_32+0x397f>
   14343:	8b 85 d8 e1 ff ff    	mov    -0x1e28(%rbp),%eax
   14349:	48 98                	cltq   
   1434b:	c6 44 05 c0 3f       	movb   $0x3f,-0x40(%rbp,%rax,1)
   14350:	83 85 d8 e1 ff ff 01 	addl   $0x1,-0x1e28(%rbp)
   14357:	83 bd d8 e1 ff ff 02 	cmpl   $0x2,-0x1e28(%rbp)
   1435e:	7e e3                	jle    14343 <func_32+0x396b>
   14360:	0f b7 85 80 e1 ff ff 	movzwl -0x1e80(%rbp),%eax
   14367:	83 c0 01             	add    $0x1,%eax
   1436a:	66 89 85 80 e1 ff ff 	mov    %ax,-0x1e80(%rbp)
   14371:	48 8b 85 18 e3 ff ff 	mov    -0x1ce8(%rbp),%rax
   14378:	8b 00                	mov    (%rax),%eax
   1437a:	48 98                	cltq   
   1437c:	e9 b6 17 00 00       	jmpq   15b37 <func_32+0x515f>
   14381:	8b 05 29 56 01 00    	mov    0x15629(%rip),%eax        # 299b0 <g_145>
   14387:	85 c0                	test   %eax,%eax
   14389:	0f 85 7f cf ff ff    	jne    1130e <func_32+0x936>
   1438f:	48 8b 05 5a 40 01 00 	mov    0x1405a(%rip),%rax        # 283f0 <g_1376>
   14396:	48 8b 00             	mov    (%rax),%rax
   14399:	48 8b 00             	mov    (%rax),%rax
   1439c:	48 8d 95 28 e3 ff ff 	lea    -0x1cd8(%rbp),%rdx
   143a3:	48 89 10             	mov    %rdx,(%rax)
   143a6:	48 8b 85 48 e1 ff ff 	mov    -0x1eb8(%rbp),%rax
   143ad:	89 c2                	mov    %eax,%edx
   143af:	48 8b 85 b0 e4 ff ff 	mov    -0x1b50(%rbp),%rax
   143b6:	89 10                	mov    %edx,(%rax)
   143b8:	48 8b 85 b0 e4 ff ff 	mov    -0x1b50(%rbp),%rax
   143bf:	8b 00                	mov    (%rax),%eax
   143c1:	83 c8 07             	or     $0x7,%eax
   143c4:	48 63 d0             	movslq %eax,%rdx
   143c7:	48 8b 05 32 3d 01 00 	mov    0x13d32(%rip),%rax        # 28100 <g_124>
   143ce:	48 8b 00             	mov    (%rax),%rax
   143d1:	48 39 c2             	cmp    %rax,%rdx
   143d4:	72 2e                	jb     14404 <func_32+0x3a2c>
   143d6:	48 8b 85 f8 e4 ff ff 	mov    -0x1b08(%rbp),%rax
   143dd:	48 8b 00             	mov    (%rax),%rax
   143e0:	48 8b 00             	mov    (%rax),%rax
   143e3:	48 8b 00             	mov    (%rax),%rax
   143e6:	48 8b 00             	mov    (%rax),%rax
   143e9:	8b 00                	mov    (%rax),%eax
   143eb:	98                   	cwtl   
   143ec:	89 c6                	mov    %eax,%esi
   143ee:	bf cf 0c 00 00       	mov    $0xccf,%edi
   143f3:	e8 5d 80 ff ff       	callq  c455 <safe_div_func_int16_t_s_s>
   143f8:	48 8b 05 09 3d 01 00 	mov    0x13d09(%rip),%rax        # 28108 <g_311>
   143ff:	0f b6 00             	movzbl (%rax),%eax
   14402:	84 c0                	test   %al,%al
   14404:	48 8b 85 08 e5 ff ff 	mov    -0x1af8(%rbp),%rax
   1440b:	48 8d 15 c6 55 01 00 	lea    0x155c6(%rip),%rdx        # 299d8 <g_1211>
   14412:	48 89 10             	mov    %rdx,(%rax)
   14415:	48 8b 05 e4 0f 01 00 	mov    0x10fe4(%rip),%rax        # 25400 <g_1397>
   1441c:	89 c2                	mov    %eax,%edx
   1441e:	48 8b 05 93 55 01 00 	mov    0x15593(%rip),%rax        # 299b8 <g_340>
   14425:	83 e2 01             	and    $0x1,%edx
   14428:	89 10                	mov    %edx,(%rax)
   1442a:	48 83 bd 38 e1 ff ff 	cmpq   $0x0,-0x1ec8(%rbp)
   14431:	00 
   14432:	0f 85 f7 16 00 00    	jne    15b2f <func_32+0x5157>
   14438:	48 8b 05 a1 3f 01 00 	mov    0x13fa1(%rip),%rax        # 283e0 <g_1378>
   1443f:	48 8d 95 88 e1 ff ff 	lea    -0x1e78(%rbp),%rdx
   14446:	48 89 10             	mov    %rdx,(%rax)
   14449:	48 8b 00             	mov    (%rax),%rax
   1444c:	48 89 85 b0 e4 ff ff 	mov    %rax,-0x1b50(%rbp)
   14453:	e9 b7 16 00 00       	jmpq   15b0f <func_32+0x5137>
   14458:	48 c7 85 c0 e4 ff ff 	movq   $0x3,-0x1b40(%rbp)
   1445f:	03 00 00 00 
   14463:	48 8d 85 f0 f7 ff ff 	lea    -0x810(%rbp),%rax
   1446a:	48 05 bc 00 00 00    	add    $0xbc,%rax
   14470:	48 89 85 c8 e4 ff ff 	mov    %rax,-0x1b38(%rbp)
   14477:	48 8b 85 b0 e4 ff ff 	mov    -0x1b50(%rbp),%rax
   1447e:	8b 10                	mov    (%rax),%edx
   14480:	48 8b 85 b0 e4 ff ff 	mov    -0x1b50(%rbp),%rax
   14487:	89 10                	mov    %edx,(%rax)
   14489:	48 8b 85 b0 e4 ff ff 	mov    -0x1b50(%rbp),%rax
   14490:	8b 00                	mov    (%rax),%eax
   14492:	48 8b 95 48 e1 ff ff 	mov    -0x1eb8(%rbp),%rdx
   14499:	09 c2                	or     %eax,%edx
   1449b:	48 8b 85 b0 e4 ff ff 	mov    -0x1b50(%rbp),%rax
   144a2:	89 10                	mov    %edx,(%rax)
   144a4:	48 8b 05 3d 3f 01 00 	mov    0x13f3d(%rip),%rax        # 283e8 <g_1377>
   144ab:	48 8b 00             	mov    (%rax),%rax
   144ae:	48 8d 95 28 e3 ff ff 	lea    -0x1cd8(%rbp),%rdx
   144b5:	48 89 10             	mov    %rdx,(%rax)
   144b8:	48 8b 85 48 e1 ff ff 	mov    -0x1eb8(%rbp),%rax
   144bf:	89 85 34 e1 ff ff    	mov    %eax,-0x1ecc(%rbp)
   144c5:	44 8b a5 60 e2 ff ff 	mov    -0x1da0(%rbp),%r12d
   144cc:	44 0f bf ad 44 e1 ff 	movswl -0x1ebc(%rbp),%r13d
   144d3:	ff 
   144d4:	48 8b 85 c0 e4 ff ff 	mov    -0x1b40(%rbp),%rax
   144db:	89 85 30 e1 ff ff    	mov    %eax,-0x1ed0(%rbp)
   144e1:	8b 05 e1 0c 01 00    	mov    0x10ce1(%rip),%eax        # 251c8 <g_359>
   144e7:	44 0f bf f0          	movswl %ax,%r14d
   144eb:	8b 85 ac f8 ff ff    	mov    -0x754(%rbp),%eax
   144f1:	85 c0                	test   %eax,%eax
   144f3:	0f 85 b5 00 00 00    	jne    145ae <func_32+0x3bd6>
   144f9:	0f b7 85 72 e1 ff ff 	movzwl -0x1e8e(%rbp),%eax
   14500:	44 0f b6 f8          	movzbl %al,%r15d
   14504:	48 8b 85 10 e3 ff ff 	mov    -0x1cf0(%rbp),%rax
   1450b:	0f b7 18             	movzwl (%rax),%ebx
   1450e:	8d 53 ff             	lea    -0x1(%rbx),%edx
   14511:	66 89 10             	mov    %dx,(%rax)
   14514:	48 8b 85 38 e1 ff ff 	mov    -0x1ec8(%rbp),%rax
   1451b:	0f b6 c0             	movzbl %al,%eax
   1451e:	89 85 40 e1 ff ff    	mov    %eax,-0x1ec0(%rbp)
   14524:	48 83 bd 78 e3 ff ff 	cmpq   $0x0,-0x1c88(%rbp)
   1452b:	00 
   1452c:	0f 95 c0             	setne  %al
   1452f:	0f b6 c0             	movzbl %al,%eax
   14532:	48 c7 c6 ff ff ff ff 	mov    $0xffffffffffffffff,%rsi
   14539:	48 89 c7             	mov    %rax,%rdi
   1453c:	e8 3f 8b ff ff       	callq  d080 <safe_mod_func_uint64_t_u_u>
   14541:	0f b6 c0             	movzbl %al,%eax
   14544:	8b b5 40 e1 ff ff    	mov    -0x1ec0(%rbp),%esi
   1454a:	89 c7                	mov    %eax,%edi
   1454c:	e8 5d 86 ff ff       	callq  cbae <safe_mod_func_uint8_t_u_u>
   14551:	48 8b 85 c0 e4 ff ff 	mov    -0x1b40(%rbp),%rax
   14558:	66 89 05 61 0d 01 00 	mov    %ax,0x10d61(%rip)        # 252c0 <g_800>
   1455f:	0f b7 05 5a 0d 01 00 	movzwl 0x10d5a(%rip),%eax        # 252c0 <g_800>
   14566:	21 d8                	and    %ebx,%eax
   14568:	0f b7 c0             	movzwl %ax,%eax
   1456b:	be f9 ff ff ff       	mov    $0xfffffff9,%esi
   14570:	89 c7                	mov    %eax,%edi
   14572:	e8 41 89 ff ff       	callq  ceb8 <safe_add_func_uint32_t_u_u>
   14577:	89 c0                	mov    %eax,%eax
   14579:	48 39 85 c0 e4 ff ff 	cmp    %rax,-0x1b40(%rbp)
   14580:	0f 95 c0             	setne  %al
   14583:	0f b6 c0             	movzbl %al,%eax
   14586:	44 89 fe             	mov    %r15d,%esi
   14589:	89 c7                	mov    %eax,%edi
   1458b:	e8 ca 85 ff ff       	callq  cb5a <safe_add_func_uint8_t_u_u>
   14590:	83 c8 fa             	or     $0xfffffffa,%eax
   14593:	0f b6 d0             	movzbl %al,%edx
   14596:	48 8b 85 38 e1 ff ff 	mov    -0x1ec8(%rbp),%rax
   1459d:	0f b7 c0             	movzwl %ax,%eax
   145a0:	89 d6                	mov    %edx,%esi
   145a2:	89 c7                	mov    %eax,%edi
   145a4:	e8 76 87 ff ff       	callq  cd1f <safe_sub_func_uint16_t_u_u>
   145a9:	66 85 c0             	test   %ax,%ax
   145ac:	74 07                	je     145b5 <func_32+0x3bdd>
   145ae:	b9 01 00 00 00       	mov    $0x1,%ecx
   145b3:	eb 05                	jmp    145ba <func_32+0x3be2>
   145b5:	b9 00 00 00 00       	mov    $0x0,%ecx
   145ba:	48 8b 05 47 3b 01 00 	mov    0x13b47(%rip),%rax        # 28108 <g_311>
   145c1:	0f b6 10             	movzbl (%rax),%edx
   145c4:	48 8b 05 3d 3b 01 00 	mov    0x13b3d(%rip),%rax        # 28108 <g_311>
   145cb:	21 ca                	and    %ecx,%edx
   145cd:	88 10                	mov    %dl,(%rax)
   145cf:	0f b6 00             	movzbl (%rax),%eax
   145d2:	0f be c0             	movsbl %al,%eax
   145d5:	be 07 00 00 00       	mov    $0x7,%esi
   145da:	89 c7                	mov    %eax,%edi
   145dc:	e8 54 7d ff ff       	callq  c335 <safe_rshift_func_int8_t_s_s>
   145e1:	0f be c0             	movsbl %al,%eax
   145e4:	44 89 f6             	mov    %r14d,%esi
   145e7:	89 c7                	mov    %eax,%edi
   145e9:	e8 28 7e ff ff       	callq  c416 <safe_mod_func_int16_t_s_s>
   145ee:	98                   	cwtl   
   145ef:	8b b5 30 e1 ff ff    	mov    -0x1ed0(%rbp),%esi
   145f5:	89 c7                	mov    %eax,%edi
   145f7:	e8 d4 88 ff ff       	callq  ced0 <safe_sub_func_uint32_t_u_u>
   145fc:	44 89 ee             	mov    %r13d,%esi
   145ff:	bf 01 00 00 00       	mov    $0x1,%edi
   14604:	e8 f6 80 ff ff       	callq  c6ff <safe_div_func_int32_t_s_s>
   14609:	48 8b 95 b0 e4 ff ff 	mov    -0x1b50(%rbp),%rdx
   14610:	8b 12                	mov    (%rdx),%edx
   14612:	39 d0                	cmp    %edx,%eax
   14614:	0f 9d c0             	setge  %al
   14617:	0f b6 c0             	movzbl %al,%eax
   1461a:	4c 89 e6             	mov    %r12,%rsi
   1461d:	48 89 c7             	mov    %rax,%rdi
   14620:	e8 09 8a ff ff       	callq  d02e <safe_add_func_uint64_t_u_u>
   14625:	98                   	cwtl   
   14626:	89 c6                	mov    %eax,%esi
   14628:	bf 43 6c 00 00       	mov    $0x6c43,%edi
   1462d:	e8 a1 7d ff ff       	callq  c3d3 <safe_sub_func_int16_t_s_s>
   14632:	89 c2                	mov    %eax,%edx
   14634:	48 8b 85 d0 e2 ff ff 	mov    -0x1d30(%rbp),%rax
   1463b:	88 10                	mov    %dl,(%rax)
   1463d:	48 83 bd 38 e1 ff ff 	cmpq   $0xfffffffffffffff7,-0x1ec8(%rbp)
   14644:	f7 
   14645:	0f 96 c0             	setbe  %al
   14648:	0f b6 d0             	movzbl %al,%edx
   1464b:	0f bf 85 44 e1 ff ff 	movswl -0x1ebc(%rbp),%eax
   14652:	39 c2                	cmp    %eax,%edx
   14654:	0f 9c c0             	setl   %al
   14657:	0f b6 c0             	movzbl %al,%eax
   1465a:	48 8b 95 c0 e4 ff ff 	mov    -0x1b40(%rbp),%rdx
   14661:	21 d0                	and    %edx,%eax
   14663:	8b b5 34 e1 ff ff    	mov    -0x1ecc(%rbp),%esi
   14669:	89 c7                	mov    %eax,%edi
   1466b:	e8 46 7f ff ff       	callq  c5b6 <safe_add_func_int32_t_s_s>
   14670:	98                   	cwtl   
   14671:	be 09 00 00 00       	mov    $0x9,%esi
   14676:	89 c7                	mov    %eax,%edi
   14678:	e8 64 7e ff ff       	callq  c4e1 <safe_lshift_func_int16_t_s_u>
   1467d:	0f b7 c0             	movzwl %ax,%eax
   14680:	be 03 00 00 00       	mov    $0x3,%esi
   14685:	89 c7                	mov    %eax,%edi
   14687:	e8 ee 87 ff ff       	callq  ce7a <safe_rshift_func_uint16_t_u_u>
   1468c:	0f b7 d0             	movzwl %ax,%edx
   1468f:	48 8b 85 c8 e4 ff ff 	mov    -0x1b38(%rbp),%rax
   14696:	89 10                	mov    %edx,(%rax)
   14698:	48 8b 85 c8 e4 ff ff 	mov    -0x1b38(%rbp),%rax
   1469f:	8b 10                	mov    (%rax),%edx
   146a1:	48 8b 05 38 3d 01 00 	mov    0x13d38(%rip),%rax        # 283e0 <g_1378>
   146a8:	48 8b 00             	mov    (%rax),%rax
   146ab:	8b 00                	mov    (%rax),%eax
   146ad:	21 c2                	and    %eax,%edx
   146af:	48 8b 05 2a 3d 01 00 	mov    0x13d2a(%rip),%rax        # 283e0 <g_1378>
   146b6:	48 8b 00             	mov    (%rax),%rax
   146b9:	89 10                	mov    %edx,(%rax)
   146bb:	e9 4f 14 00 00       	jmpq   15b0f <func_32+0x5137>
   146c0:	48 8d 05 f1 0a 01 00 	lea    0x10af1(%rip),%rax        # 251b8 <g_217>
   146c7:	48 89 85 e0 e3 ff ff 	mov    %rax,-0x1c20(%rbp)
   146ce:	48 c7 85 e8 e3 ff ff 	movq   $0xfffffffffffffff8,-0x1c18(%rbp)
   146d5:	f8 ff ff ff 
   146d9:	c7 85 14 e2 ff ff 88 	movl   $0xa67ce588,-0x1dec(%rbp)
   146e0:	e5 7c a6 
   146e3:	48 8d 05 de 52 01 00 	lea    0x152de(%rip),%rax        # 299c8 <g_687>
   146ea:	48 89 85 f0 e3 ff ff 	mov    %rax,-0x1c10(%rbp)
   146f1:	48 8d 05 f8 3c 01 00 	lea    0x13cf8(%rip),%rax        # 283f0 <g_1376>
   146f8:	48 89 85 30 e9 ff ff 	mov    %rax,-0x16d0(%rbp)
   146ff:	48 8d 05 ea 3c 01 00 	lea    0x13cea(%rip),%rax        # 283f0 <g_1376>
   14706:	48 89 85 38 e9 ff ff 	mov    %rax,-0x16c8(%rbp)
   1470d:	48 8d 05 dc 3c 01 00 	lea    0x13cdc(%rip),%rax        # 283f0 <g_1376>
   14714:	48 89 85 40 e9 ff ff 	mov    %rax,-0x16c0(%rbp)
   1471b:	48 8d 05 ce 3c 01 00 	lea    0x13cce(%rip),%rax        # 283f0 <g_1376>
   14722:	48 89 85 48 e9 ff ff 	mov    %rax,-0x16b8(%rbp)
   14729:	48 8d 05 c0 3c 01 00 	lea    0x13cc0(%rip),%rax        # 283f0 <g_1376>
   14730:	48 89 85 50 e9 ff ff 	mov    %rax,-0x16b0(%rbp)
   14737:	48 8d 05 b2 3c 01 00 	lea    0x13cb2(%rip),%rax        # 283f0 <g_1376>
   1473e:	48 89 85 58 e9 ff ff 	mov    %rax,-0x16a8(%rbp)
   14745:	48 8d 05 a4 3c 01 00 	lea    0x13ca4(%rip),%rax        # 283f0 <g_1376>
   1474c:	48 89 85 60 e9 ff ff 	mov    %rax,-0x16a0(%rbp)
   14753:	48 8d 05 96 3c 01 00 	lea    0x13c96(%rip),%rax        # 283f0 <g_1376>
   1475a:	48 89 85 68 e9 ff ff 	mov    %rax,-0x1698(%rbp)
   14761:	48 8d 05 88 3c 01 00 	lea    0x13c88(%rip),%rax        # 283f0 <g_1376>
   14768:	48 89 85 70 e9 ff ff 	mov    %rax,-0x1690(%rbp)
   1476f:	48 8d 05 7a 3c 01 00 	lea    0x13c7a(%rip),%rax        # 283f0 <g_1376>
   14776:	48 89 85 78 e9 ff ff 	mov    %rax,-0x1688(%rbp)
   1477d:	48 8d 05 6c 3c 01 00 	lea    0x13c6c(%rip),%rax        # 283f0 <g_1376>
   14784:	48 89 85 80 e9 ff ff 	mov    %rax,-0x1680(%rbp)
   1478b:	48 8d 05 5e 3c 01 00 	lea    0x13c5e(%rip),%rax        # 283f0 <g_1376>
   14792:	48 89 85 88 e9 ff ff 	mov    %rax,-0x1678(%rbp)
   14799:	48 8d 05 50 3c 01 00 	lea    0x13c50(%rip),%rax        # 283f0 <g_1376>
   147a0:	48 89 85 90 e9 ff ff 	mov    %rax,-0x1670(%rbp)
   147a7:	48 8d 05 42 3c 01 00 	lea    0x13c42(%rip),%rax        # 283f0 <g_1376>
   147ae:	48 89 85 98 e9 ff ff 	mov    %rax,-0x1668(%rbp)
   147b5:	48 8d 05 34 3c 01 00 	lea    0x13c34(%rip),%rax        # 283f0 <g_1376>
   147bc:	48 89 85 a0 e9 ff ff 	mov    %rax,-0x1660(%rbp)
   147c3:	48 8d 05 26 3c 01 00 	lea    0x13c26(%rip),%rax        # 283f0 <g_1376>
   147ca:	48 89 85 a8 e9 ff ff 	mov    %rax,-0x1658(%rbp)
   147d1:	48 8d 05 18 3c 01 00 	lea    0x13c18(%rip),%rax        # 283f0 <g_1376>
   147d8:	48 89 85 b0 e9 ff ff 	mov    %rax,-0x1650(%rbp)
   147df:	48 8d 05 0a 3c 01 00 	lea    0x13c0a(%rip),%rax        # 283f0 <g_1376>
   147e6:	48 89 85 b8 e9 ff ff 	mov    %rax,-0x1648(%rbp)
   147ed:	48 8d 05 fc 3b 01 00 	lea    0x13bfc(%rip),%rax        # 283f0 <g_1376>
   147f4:	48 89 85 c0 e9 ff ff 	mov    %rax,-0x1640(%rbp)
   147fb:	48 8d 05 ee 3b 01 00 	lea    0x13bee(%rip),%rax        # 283f0 <g_1376>
   14802:	48 89 85 c8 e9 ff ff 	mov    %rax,-0x1638(%rbp)
   14809:	48 8d 05 e0 3b 01 00 	lea    0x13be0(%rip),%rax        # 283f0 <g_1376>
   14810:	48 89 85 d0 e9 ff ff 	mov    %rax,-0x1630(%rbp)
   14817:	48 8d 05 d2 3b 01 00 	lea    0x13bd2(%rip),%rax        # 283f0 <g_1376>
   1481e:	48 89 85 d8 e9 ff ff 	mov    %rax,-0x1628(%rbp)
   14825:	48 8d 05 c4 3b 01 00 	lea    0x13bc4(%rip),%rax        # 283f0 <g_1376>
   1482c:	48 89 85 e0 e9 ff ff 	mov    %rax,-0x1620(%rbp)
   14833:	48 8d 05 b6 3b 01 00 	lea    0x13bb6(%rip),%rax        # 283f0 <g_1376>
   1483a:	48 89 85 e8 e9 ff ff 	mov    %rax,-0x1618(%rbp)
   14841:	48 8d 05 a8 3b 01 00 	lea    0x13ba8(%rip),%rax        # 283f0 <g_1376>
   14848:	48 89 85 f0 e9 ff ff 	mov    %rax,-0x1610(%rbp)
   1484f:	48 8d 05 9a 3b 01 00 	lea    0x13b9a(%rip),%rax        # 283f0 <g_1376>
   14856:	48 89 85 f8 e9 ff ff 	mov    %rax,-0x1608(%rbp)
   1485d:	48 8d 05 8c 3b 01 00 	lea    0x13b8c(%rip),%rax        # 283f0 <g_1376>
   14864:	48 89 85 00 ea ff ff 	mov    %rax,-0x1600(%rbp)
   1486b:	48 8d 05 7e 3b 01 00 	lea    0x13b7e(%rip),%rax        # 283f0 <g_1376>
   14872:	48 89 85 08 ea ff ff 	mov    %rax,-0x15f8(%rbp)
   14879:	48 8d 05 80 0b 01 00 	lea    0x10b80(%rip),%rax        # 25400 <g_1397>
   14880:	48 89 85 f8 e3 ff ff 	mov    %rax,-0x1c08(%rbp)
   14887:	48 8d 05 4a 09 01 00 	lea    0x1094a(%rip),%rax        # 251d8 <g_453>
   1488e:	48 89 85 00 e4 ff ff 	mov    %rax,-0x1c00(%rbp)
   14895:	c7 85 dc e1 ff ff 61 	movl   $0x8ea17a61,-0x1e24(%rbp)
   1489c:	7a a1 8e 
   1489f:	48 8d 05 36 09 01 00 	lea    0x10936(%rip),%rax        # 251dc <g_508>
   148a6:	48 89 85 08 e4 ff ff 	mov    %rax,-0x1bf8(%rbp)
   148ad:	c7 85 e0 e1 ff ff ff 	movl   $0xffffffff,-0x1e20(%rbp)
   148b4:	ff ff ff 
   148b7:	48 8d 05 5a 0b 01 00 	lea    0x10b5a(%rip),%rax        # 25418 <g_1588>
   148be:	48 89 85 10 e4 ff ff 	mov    %rax,-0x1bf0(%rbp)
   148c5:	c7 85 18 e2 ff ff 95 	movl   $0x2c96a595,-0x1de8(%rbp)
   148cc:	a5 96 2c 
   148cf:	c6 85 67 e1 ff ff 04 	movb   $0x4,-0x1e99(%rbp)
   148d6:	c7 85 e4 e1 ff ff 00 	movl   $0x0,-0x1e1c(%rbp)
   148dd:	00 00 00 
   148e0:	eb 1e                	jmp    14900 <func_32+0x3f28>
   148e2:	8b 85 e4 e1 ff ff    	mov    -0x1e1c(%rbp),%eax
   148e8:	48 98                	cltq   
   148ea:	48 8d 95 d8 e2 ff ff 	lea    -0x1d28(%rbp),%rdx
   148f1:	48 89 94 c5 d0 e5 ff 	mov    %rdx,-0x1a30(%rbp,%rax,8)
   148f8:	ff 
   148f9:	83 85 e4 e1 ff ff 01 	addl   $0x1,-0x1e1c(%rbp)
   14900:	83 bd e4 e1 ff ff 01 	cmpl   $0x1,-0x1e1c(%rbp)
   14907:	7e d9                	jle    148e2 <func_32+0x3f0a>
   14909:	c7 85 e4 e1 ff ff 00 	movl   $0x0,-0x1e1c(%rbp)
   14910:	00 00 00 
   14913:	eb 21                	jmp    14936 <func_32+0x3f5e>
   14915:	8b 85 e4 e1 ff ff    	mov    -0x1e1c(%rbp),%eax
   1491b:	48 98                	cltq   
   1491d:	48 bb 92 3d 83 5a 83 	movabs $0x5b2f63835a833d92,%rbx
   14924:	63 2f 5b 
   14927:	48 89 9c c5 90 e7 ff 	mov    %rbx,-0x1870(%rbp,%rax,8)
   1492e:	ff 
   1492f:	83 85 e4 e1 ff ff 01 	addl   $0x1,-0x1e1c(%rbp)
   14936:	83 bd e4 e1 ff ff 07 	cmpl   $0x7,-0x1e1c(%rbp)
   1493d:	7e d6                	jle    14915 <func_32+0x3f3d>
   1493f:	c7 85 e4 e1 ff ff 00 	movl   $0x0,-0x1e1c(%rbp)
   14946:	00 00 00 
   14949:	eb 1e                	jmp    14969 <func_32+0x3f91>
   1494b:	8b 85 e4 e1 ff ff    	mov    -0x1e1c(%rbp),%eax
   14951:	48 98                	cltq   
   14953:	48 8d 15 7e 39 01 00 	lea    0x1397e(%rip),%rdx        # 282d8 <g_819>
   1495a:	48 89 94 c5 00 e6 ff 	mov    %rdx,-0x1a00(%rbp,%rax,8)
   14961:	ff 
   14962:	83 85 e4 e1 ff ff 01 	addl   $0x1,-0x1e1c(%rbp)
   14969:	83 bd e4 e1 ff ff 02 	cmpl   $0x2,-0x1e1c(%rbp)
   14970:	7e d9                	jle    1494b <func_32+0x3f73>
   14972:	48 8b 85 38 e1 ff ff 	mov    -0x1ec8(%rbp),%rax
   14979:	0f bf d8             	movswl %ax,%ebx
   1497c:	44 0f bf a5 44 e1 ff 	movswl -0x1ebc(%rbp),%r12d
   14983:	ff 
   14984:	48 8b 85 e8 e3 ff ff 	mov    -0x1c18(%rbp),%rax
   1498b:	89 c6                	mov    %eax,%esi
   1498d:	bf 01 00 00 00       	mov    $0x1,%edi
   14992:	e8 6f 84 ff ff       	callq  ce06 <safe_lshift_func_uint16_t_u_u>
   14997:	44 89 e6             	mov    %r12d,%esi
   1499a:	bf 01 00 00 00       	mov    $0x1,%edi
   1499f:	e8 a8 82 ff ff       	callq  cc4c <safe_lshift_func_uint8_t_u_u>
   149a4:	0f b6 c0             	movzbl %al,%eax
   149a7:	ba 9d 2b 00 00       	mov    $0x2b9d,%edx
   149ac:	66 39 d0             	cmp    %dx,%ax
   149af:	48 8b 85 48 e3 ff ff 	mov    -0x1cb8(%rbp),%rax
   149b6:	48 c7 00 00 00 00 00 	movq   $0x0,(%rax)
   149bd:	48 8b 85 48 e3 ff ff 	mov    -0x1cb8(%rbp),%rax
   149c4:	48 8b 10             	mov    (%rax),%rdx
   149c7:	48 8b 05 32 37 01 00 	mov    0x13732(%rip),%rax        # 28100 <g_124>
   149ce:	48 8b 00             	mov    (%rax),%rax
   149d1:	48 39 c2             	cmp    %rax,%rdx
   149d4:	0f 95 c0             	setne  %al
   149d7:	0f b6 d0             	movzbl %al,%edx
   149da:	0f b6 05 e1 07 01 00 	movzbl 0x107e1(%rip),%eax        # 251c2 <g_312>
   149e1:	48 0f be c0          	movsbq %al,%rax
   149e5:	48 39 c2             	cmp    %rax,%rdx
   149e8:	0f 9c c0             	setl   %al
   149eb:	0f b6 c0             	movzbl %al,%eax
   149ee:	89 c6                	mov    %eax,%esi
   149f0:	bf a0 5a 00 00       	mov    $0x5aa0,%edi
   149f5:	e8 43 83 ff ff       	callq  cd3d <safe_mul_func_uint16_t_u_u>
   149fa:	89 de                	mov    %ebx,%esi
   149fc:	bf 0e 9f ff ff       	mov    $0xffff9f0e,%edi
   14a01:	e8 cd 79 ff ff       	callq  c3d3 <safe_sub_func_int16_t_s_s>
   14a06:	f7 d0                	not    %eax
   14a08:	98                   	cwtl   
   14a09:	89 c6                	mov    %eax,%esi
   14a0b:	bf 03 00 00 00       	mov    $0x3,%edi
   14a10:	e8 40 7a ff ff       	callq  c455 <safe_div_func_int16_t_s_s>
   14a15:	98                   	cwtl   
   14a16:	89 85 14 e2 ff ff    	mov    %eax,-0x1dec(%rbp)
   14a1c:	0f b7 05 8d 07 01 00 	movzwl 0x1078d(%rip),%eax        # 251b0 <g_200>
   14a23:	0f b7 d8             	movzwl %ax,%ebx
   14a26:	48 8b 85 e0 e3 ff ff 	mov    -0x1c20(%rbp),%rax
   14a2d:	8b 00                	mov    (%rax),%eax
   14a2f:	48 8b 95 30 e9 ff ff 	mov    -0x16d0(%rbp),%rdx
   14a36:	48 85 d2             	test   %rdx,%rdx
   14a39:	74 11                	je     14a4c <func_32+0x4074>
   14a3b:	48 83 bd 38 e1 ff ff 	cmpq   $0x0,-0x1ec8(%rbp)
   14a42:	00 
   14a43:	74 07                	je     14a4c <func_32+0x4074>
   14a45:	ba 01 00 00 00       	mov    $0x1,%edx
   14a4a:	eb 05                	jmp    14a51 <func_32+0x4079>
   14a4c:	ba 00 00 00 00       	mov    $0x0,%edx
   14a51:	89 c6                	mov    %eax,%esi
   14a53:	89 d7                	mov    %edx,%edi
   14a55:	e8 72 7c ff ff       	callq  c6cc <safe_mod_func_int32_t_s_s>
   14a5a:	83 f8 ff             	cmp    $0xffffffff,%eax
   14a5d:	74 12                	je     14a71 <func_32+0x4099>
   14a5f:	0f b6 05 5c 07 01 00 	movzbl 0x1075c(%rip),%eax        # 251c2 <g_312>
   14a66:	84 c0                	test   %al,%al
   14a68:	74 07                	je     14a71 <func_32+0x4099>
   14a6a:	b8 01 00 00 00       	mov    $0x1,%eax
   14a6f:	eb 05                	jmp    14a76 <func_32+0x409e>
   14a71:	b8 00 00 00 00       	mov    $0x0,%eax
   14a76:	0f b7 c0             	movzwl %ax,%eax
   14a79:	be 04 00 00 00       	mov    $0x4,%esi
   14a7e:	89 c7                	mov    %eax,%edi
   14a80:	e8 39 83 ff ff       	callq  cdbe <safe_lshift_func_uint16_t_u_s>
   14a85:	66 85 c0             	test   %ax,%ax
   14a88:	74 07                	je     14a91 <func_32+0x40b9>
   14a8a:	b8 01 00 00 00       	mov    $0x1,%eax
   14a8f:	eb 05                	jmp    14a96 <func_32+0x40be>
   14a91:	b8 00 00 00 00       	mov    $0x0,%eax
   14a96:	48 63 d0             	movslq %eax,%rdx
   14a99:	48 8b 85 f8 e3 ff ff 	mov    -0x1c08(%rbp),%rax
   14aa0:	48 89 10             	mov    %rdx,(%rax)
   14aa3:	48 8b 85 f8 e3 ff ff 	mov    -0x1c08(%rbp),%rax
   14aaa:	48 8b 00             	mov    (%rax),%rax
   14aad:	48 89 c2             	mov    %rax,%rdx
   14ab0:	48 8b 05 49 36 01 00 	mov    0x13649(%rip),%rax        # 28100 <g_124>
   14ab7:	48 8b 00             	mov    (%rax),%rax
   14aba:	48 83 f8 01          	cmp    $0x1,%rax
   14abe:	0f 9e c0             	setle  %al
   14ac1:	0f b6 c0             	movzbl %al,%eax
   14ac4:	48 89 d6             	mov    %rdx,%rsi
   14ac7:	48 89 c7             	mov    %rax,%rdi
   14aca:	e8 72 7d ff ff       	callq  c841 <safe_add_func_int64_t_s_s>
   14acf:	44 0f be e0          	movsbl %al,%r12d
   14ad3:	0f b6 05 e9 06 01 00 	movzbl 0x106e9(%rip),%eax        # 251c3 <g_323>
   14ada:	0f b6 d0             	movzbl %al,%edx
   14add:	48 8b 85 f0 e3 ff ff 	mov    -0x1c10(%rbp),%rax
   14ae4:	48 3b 85 50 e3 ff ff 	cmp    -0x1cb0(%rbp),%rax
   14aeb:	0f 95 c0             	setne  %al
   14aee:	0f b6 c0             	movzbl %al,%eax
   14af1:	39 c2                	cmp    %eax,%edx
   14af3:	0f 9c c0             	setl   %al
   14af6:	0f b6 d0             	movzbl %al,%edx
   14af9:	8b 05 bd 06 01 00    	mov    0x106bd(%rip),%eax        # 251bc <g_248>
   14aff:	0f b6 c0             	movzbl %al,%eax
   14b02:	89 d6                	mov    %edx,%esi
   14b04:	89 c7                	mov    %eax,%edi
   14b06:	e8 4f 80 ff ff       	callq  cb5a <safe_add_func_uint8_t_u_u>
   14b0b:	0f be c0             	movsbl %al,%eax
   14b0e:	44 89 e6             	mov    %r12d,%esi
   14b11:	89 c7                	mov    %eax,%edi
   14b13:	e8 fa 76 ff ff       	callq  c212 <safe_mul_func_int8_t_s_s>
   14b18:	66 98                	cbtw   
   14b1a:	0f b7 c0             	movzwl %ax,%eax
   14b1d:	be 01 00 00 00       	mov    $0x1,%esi
   14b22:	89 c7                	mov    %eax,%edi
   14b24:	e8 d6 81 ff ff       	callq  ccff <safe_add_func_uint16_t_u_u>
   14b29:	0f b7 c0             	movzwl %ax,%eax
   14b2c:	48 89 c7             	mov    %rax,%rdi
   14b2f:	e8 e5 84 ff ff       	callq  d019 <safe_unary_minus_func_uint64_t_u>
   14b34:	83 c8 01             	or     $0x1,%eax
   14b37:	98                   	cwtl   
   14b38:	89 de                	mov    %ebx,%esi
   14b3a:	89 c7                	mov    %eax,%edi
   14b3c:	e8 e9 79 ff ff       	callq  c52a <safe_rshift_func_int16_t_s_s>
   14b41:	48 0f bf c0          	movswq %ax,%rax
   14b45:	48 0b 85 38 e1 ff ff 	or     -0x1ec8(%rbp),%rax
   14b4c:	89 c2                	mov    %eax,%edx
   14b4e:	8b 85 88 e1 ff ff    	mov    -0x1e78(%rbp),%eax
   14b54:	31 d0                	xor    %edx,%eax
   14b56:	89 85 88 e1 ff ff    	mov    %eax,-0x1e78(%rbp)
   14b5c:	48 8b 05 9d 35 01 00 	mov    0x1359d(%rip),%rax        # 28100 <g_124>
   14b63:	48 8b 00             	mov    (%rax),%rax
   14b66:	48 33 85 38 e1 ff ff 	xor    -0x1ec8(%rbp),%rax
   14b6d:	48 89 c2             	mov    %rax,%rdx
   14b70:	48 8b 05 89 35 01 00 	mov    0x13589(%rip),%rax        # 28100 <g_124>
   14b77:	48 89 10             	mov    %rdx,(%rax)
   14b7a:	48 8b 10             	mov    (%rax),%rdx
   14b7d:	0f b6 05 0c 06 01 00 	movzbl 0x1060c(%rip),%eax        # 25190 <g_161>
   14b84:	0f b6 c8             	movzbl %al,%ecx
   14b87:	8b 05 3b 07 01 00    	mov    0x1073b(%rip),%eax        # 252c8 <g_841>
   14b8d:	89 85 88 e1 ff ff    	mov    %eax,-0x1e78(%rbp)
   14b93:	8b 85 88 e1 ff ff    	mov    -0x1e78(%rbp),%eax
   14b99:	39 c1                	cmp    %eax,%ecx
   14b9b:	0f 95 c0             	setne  %al
   14b9e:	0f b6 c0             	movzbl %al,%eax
   14ba1:	48 89 d6             	mov    %rdx,%rsi
   14ba4:	48 89 c7             	mov    %rax,%rdi
   14ba7:	e8 08 7e ff ff       	callq  c9b4 <safe_mod_func_int64_t_s_s>
   14bac:	48 8b 95 00 e4 ff ff 	mov    -0x1c00(%rbp),%rdx
   14bb3:	0f b7 0a             	movzwl (%rdx),%ecx
   14bb6:	48 8b 15 33 38 01 00 	mov    0x13833(%rip),%rdx        # 283f0 <g_1376>
   14bbd:	48 8b 12             	mov    (%rdx),%rdx
   14bc0:	48 85 d2             	test   %rdx,%rdx
   14bc3:	0f 95 c2             	setne  %dl
   14bc6:	0f b6 d2             	movzbl %dl,%edx
   14bc9:	21 d1                	and    %edx,%ecx
   14bcb:	48 8b 95 00 e4 ff ff 	mov    -0x1c00(%rbp),%rdx
   14bd2:	66 89 0a             	mov    %cx,(%rdx)
   14bd5:	48 8b 95 00 e4 ff ff 	mov    -0x1c00(%rbp),%rdx
   14bdc:	0f b7 12             	movzwl (%rdx),%edx
   14bdf:	0f bf d2             	movswl %dx,%edx
   14be2:	89 c1                	mov    %eax,%ecx
   14be4:	0f b7 05 c5 05 01 00 	movzwl 0x105c5(%rip),%eax        # 251b0 <g_200>
   14beb:	09 c8                	or     %ecx,%eax
   14bed:	66 89 05 bc 05 01 00 	mov    %ax,0x105bc(%rip)        # 251b0 <g_200>
   14bf4:	0f b7 05 b5 05 01 00 	movzwl 0x105b5(%rip),%eax        # 251b0 <g_200>
   14bfb:	0f b7 c8             	movzwl %ax,%ecx
   14bfe:	48 8b 85 e0 e3 ff ff 	mov    -0x1c20(%rbp),%rax
   14c05:	8b 00                	mov    (%rax),%eax
   14c07:	39 c1                	cmp    %eax,%ecx
   14c09:	0f 95 c0             	setne  %al
   14c0c:	0f b6 c8             	movzbl %al,%ecx
   14c0f:	8b 05 a3 06 01 00    	mov    0x106a3(%rip),%eax        # 252b8 <g_741>
   14c15:	39 c1                	cmp    %eax,%ecx
   14c17:	0f 97 c0             	seta   %al
   14c1a:	0f b6 c0             	movzbl %al,%eax
   14c1d:	48 39 85 48 e1 ff ff 	cmp    %rax,-0x1eb8(%rbp)
   14c24:	0f 95 c0             	setne  %al
   14c27:	0f b6 c8             	movzbl %al,%ecx
   14c2a:	48 8b 05 d7 34 01 00 	mov    0x134d7(%rip),%rax        # 28108 <g_311>
   14c31:	0f b6 00             	movzbl (%rax),%eax
   14c34:	0f be c0             	movsbl %al,%eax
   14c37:	21 c8                	and    %ecx,%eax
   14c39:	39 c2                	cmp    %eax,%edx
   14c3b:	0f 9c c0             	setl   %al
   14c3e:	0f b6 d0             	movzbl %al,%edx
   14c41:	8b 05 95 05 01 00    	mov    0x10595(%rip),%eax        # 251dc <g_508>
   14c47:	39 c2                	cmp    %eax,%edx
   14c49:	0f 9c c0             	setl   %al
   14c4c:	0f b6 c0             	movzbl %al,%eax
   14c4f:	48 39 85 38 e1 ff ff 	cmp    %rax,-0x1ec8(%rbp)
   14c56:	0f 92 c0             	setb   %al
   14c59:	0f b6 c0             	movzbl %al,%eax
   14c5c:	be f8 00 00 00       	mov    $0xf8,%esi
   14c61:	89 c7                	mov    %eax,%edi
   14c63:	e8 73 7f ff ff       	callq  cbdb <safe_div_func_uint8_t_u_u>
   14c68:	84 c0                	test   %al,%al
   14c6a:	0f 84 76 05 00 00    	je     151e6 <func_32+0x480e>
   14c70:	48 c7 85 68 e4 ff ff 	movq   $0x1,-0x1b98(%rbp)
   14c77:	01 00 00 00 
   14c7b:	c7 85 20 e6 ff ff 36 	movl   $0xe3e1c536,-0x19e0(%rbp)
   14c82:	c5 e1 e3 
   14c85:	c7 85 24 e6 ff ff 36 	movl   $0xe3e1c536,-0x19dc(%rbp)
   14c8c:	c5 e1 e3 
   14c8f:	c7 85 28 e6 ff ff 36 	movl   $0xe3e1c536,-0x19d8(%rbp)
   14c96:	c5 e1 e3 
   14c99:	c7 85 2c e6 ff ff 36 	movl   $0xe3e1c536,-0x19d4(%rbp)
   14ca0:	c5 e1 e3 
   14ca3:	48 c7 85 70 e4 ff ff 	movq   $0x0,-0x1b90(%rbp)
   14caa:	00 00 00 00 
   14cae:	c6 05 cb 04 01 00 01 	movb   $0x1,0x104cb(%rip)        # 25180 <g_80>
   14cb5:	e9 18 05 00 00       	jmpq   151d2 <func_32+0x47fa>
   14cba:	48 8d 05 37 07 01 00 	lea    0x10737(%rip),%rax        # 253f8 <g_1381>
   14cc1:	48 89 85 78 e4 ff ff 	mov    %rax,-0x1b88(%rbp)
   14cc8:	c7 85 54 e2 ff ff 09 	movl   $0x9,-0x1dac(%rbp)
   14ccf:	00 00 00 
   14cd2:	c7 85 58 e2 ff ff f6 	movl   $0xfffffff6,-0x1da8(%rbp)
   14cd9:	ff ff ff 
   14cdc:	48 c7 85 80 e4 ff ff 	movq   $0x0,-0x1b80(%rbp)
   14ce3:	00 00 00 00 
   14ce7:	66 c7 05 08 07 01 00 	movw   $0x0,0x10708(%rip)        # 253f8 <g_1381>
   14cee:	00 00 
   14cf0:	e9 0e 02 00 00       	jmpq   14f03 <func_32+0x452b>
   14cf5:	48 8d 05 90 04 01 00 	lea    0x10490(%rip),%rax        # 2518c <g_127>
   14cfc:	48 89 85 88 e4 ff ff 	mov    %rax,-0x1b78(%rbp)
   14d03:	48 c7 85 90 e4 ff ff 	movq   $0x0,-0x1b70(%rbp)
   14d0a:	00 00 00 00 
   14d0e:	48 8d 05 9f 04 01 00 	lea    0x1049f(%rip),%rax        # 251b4 <g_213>
   14d15:	48 89 85 98 e4 ff ff 	mov    %rax,-0x1b68(%rbp)
   14d1c:	48 c7 85 a0 e4 ff ff 	movq   $0x0,-0x1b60(%rbp)
   14d23:	00 00 00 00 
   14d27:	48 8d 05 a2 35 01 00 	lea    0x135a2(%rip),%rax        # 282d0 <g_799>
   14d2e:	48 89 85 a8 e4 ff ff 	mov    %rax,-0x1b58(%rbp)
   14d35:	c7 85 e8 e1 ff ff 00 	movl   $0x0,-0x1e18(%rbp)
   14d3c:	00 00 00 
   14d3f:	eb 1e                	jmp    14d5f <func_32+0x4387>
   14d41:	8b 85 e8 e1 ff ff    	mov    -0x1e18(%rbp),%eax
   14d47:	48 98                	cltq   
   14d49:	48 8d 15 60 4c 01 00 	lea    0x14c60(%rip),%rdx        # 299b0 <g_145>
   14d50:	48 89 94 c5 f0 f7 ff 	mov    %rdx,-0x810(%rbp,%rax,8)
   14d57:	ff 
   14d58:	83 85 e8 e1 ff ff 01 	addl   $0x1,-0x1e18(%rbp)
   14d5f:	83 bd e8 e1 ff ff 00 	cmpl   $0x0,-0x1e18(%rbp)
   14d66:	7e d9                	jle    14d41 <func_32+0x4369>
   14d68:	8b 05 4e 05 01 00    	mov    0x1054e(%rip),%eax        # 252bc <g_778>
   14d6e:	8d 50 03             	lea    0x3(%rax),%edx
   14d71:	0f b7 05 80 06 01 00 	movzwl 0x10680(%rip),%eax        # 253f8 <g_1381>
   14d78:	0f b7 c0             	movzwl %ax,%eax
   14d7b:	48 98                	cltq   
   14d7d:	89 d2                	mov    %edx,%edx
   14d7f:	48 01 d2             	add    %rdx,%rdx
   14d82:	48 01 d0             	add    %rdx,%rax
   14d85:	48 8d 14 85 00 00 00 	lea    0x0(,%rax,4),%rdx
   14d8c:	00 
   14d8d:	48 8d 05 4c 05 01 00 	lea    0x1054c(%rip),%rax        # 252e0 <g_842>
   14d94:	8b 04 02             	mov    (%rdx,%rax,1),%eax
   14d97:	85 c0                	test   %eax,%eax
   14d99:	0f 85 77 01 00 00    	jne    14f16 <func_32+0x453e>
   14d9f:	0f b7 05 52 06 01 00 	movzwl 0x10652(%rip),%eax        # 253f8 <g_1381>
   14da6:	0f b7 c0             	movzwl %ax,%eax
   14da9:	8d 50 03             	lea    0x3(%rax),%edx
   14dac:	0f b7 05 45 06 01 00 	movzwl 0x10645(%rip),%eax        # 253f8 <g_1381>
   14db3:	0f b7 c0             	movzwl %ax,%eax
   14db6:	48 98                	cltq   
   14db8:	48 63 d2             	movslq %edx,%rdx
   14dbb:	48 01 d2             	add    %rdx,%rdx
   14dbe:	48 01 d0             	add    %rdx,%rax
   14dc1:	48 8d 14 85 00 00 00 	lea    0x0(,%rax,4),%rdx
   14dc8:	00 
   14dc9:	48 8d 05 10 05 01 00 	lea    0x10510(%rip),%rax        # 252e0 <g_842>
   14dd0:	8b 04 02             	mov    (%rdx,%rax,1),%eax
   14dd3:	48 63 d8             	movslq %eax,%rbx
   14dd6:	48 8b 85 88 e4 ff ff 	mov    -0x1b78(%rbp),%rax
   14ddd:	8b 00                	mov    (%rax),%eax
   14ddf:	8d 50 ff             	lea    -0x1(%rax),%edx
   14de2:	48 8b 85 88 e4 ff ff 	mov    -0x1b78(%rbp),%rax
   14de9:	89 10                	mov    %edx,(%rax)
   14deb:	48 8b 05 16 33 01 00 	mov    0x13316(%rip),%rax        # 28108 <g_311>
   14df2:	0f b6 00             	movzbl (%rax),%eax
   14df5:	3c 01                	cmp    $0x1,%al
   14df7:	0f 9e c0             	setle  %al
   14dfa:	0f b6 c0             	movzbl %al,%eax
   14dfd:	48 c7 c6 ff ff ff ff 	mov    $0xffffffffffffffff,%rsi
   14e04:	48 89 c7             	mov    %rax,%rdi
   14e07:	e8 a8 7b ff ff       	callq  c9b4 <safe_mod_func_int64_t_s_s>
   14e0c:	89 85 20 e6 ff ff    	mov    %eax,-0x19e0(%rbp)
   14e12:	8b 85 20 e6 ff ff    	mov    -0x19e0(%rbp),%eax
   14e18:	3d 9b da b3 79       	cmp    $0x79b3da9b,%eax
   14e1d:	0f 95 c0             	setne  %al
   14e20:	0f b6 d0             	movzbl %al,%edx
   14e23:	48 8b 85 00 e4 ff ff 	mov    -0x1c00(%rbp),%rax
   14e2a:	0f b7 00             	movzwl (%rax),%eax
   14e2d:	21 c2                	and    %eax,%edx
   14e2f:	48 8b 85 00 e4 ff ff 	mov    -0x1c00(%rbp),%rax
   14e36:	66 89 10             	mov    %dx,(%rax)
   14e39:	48 8b 85 00 e4 ff ff 	mov    -0x1c00(%rbp),%rax
   14e40:	0f b7 00             	movzwl (%rax),%eax
   14e43:	66 85 c0             	test   %ax,%ax
   14e46:	75 08                	jne    14e50 <func_32+0x4478>
   14e48:	b8 9d 2b 00 00       	mov    $0x2b9d,%eax
   14e4d:	66 85 c0             	test   %ax,%ax
   14e50:	48 8b 85 38 e1 ff ff 	mov    -0x1ec8(%rbp),%rax
   14e57:	48 89 85 68 e4 ff ff 	mov    %rax,-0x1b98(%rbp)
   14e5e:	48 83 bd 68 e4 ff ff 	cmpq   $0x1,-0x1b98(%rbp)
   14e65:	01 
   14e66:	0f 94 c0             	sete   %al
   14e69:	0f b6 c0             	movzbl %al,%eax
   14e6c:	48 c7 c6 ff ff ff ff 	mov    $0xffffffffffffffff,%rsi
   14e73:	48 89 c7             	mov    %rax,%rdi
   14e76:	e8 b3 81 ff ff       	callq  d02e <safe_add_func_uint64_t_u_u>
   14e7b:	48 85 c0             	test   %rax,%rax
   14e7e:	74 08                	je     14e88 <func_32+0x44b0>
   14e80:	66 83 bd 44 e1 ff ff 	cmpw   $0x0,-0x1ebc(%rbp)
   14e87:	00 
   14e88:	48 8d 05 21 03 01 00 	lea    0x10321(%rip),%rax        # 251b0 <g_200>
   14e8f:	48 39 85 78 e4 ff ff 	cmp    %rax,-0x1b88(%rbp)
   14e96:	74 07                	je     14e9f <func_32+0x44c7>
   14e98:	b8 01 00 00 00       	mov    $0x1,%eax
   14e9d:	eb 05                	jmp    14ea4 <func_32+0x44cc>
   14e9f:	b8 00 00 00 00       	mov    $0x0,%eax
   14ea4:	0f be c0             	movsbl %al,%eax
   14ea7:	89 c6                	mov    %eax,%esi
   14ea9:	bf 61 00 00 00       	mov    $0x61,%edi
   14eae:	e8 b7 73 ff ff       	callq  c26a <safe_div_func_int8_t_s_s>
   14eb3:	48 0f be c0          	movsbq %al,%rax
   14eb7:	48 33 85 38 e1 ff ff 	xor    -0x1ec8(%rbp),%rax
   14ebe:	48 f7 d0             	not    %rax
   14ec1:	48 39 c3             	cmp    %rax,%rbx
   14ec4:	0f 96 c0             	setbe  %al
   14ec7:	0f b6 d0             	movzbl %al,%edx
   14eca:	48 8b 85 e0 e3 ff ff 	mov    -0x1c20(%rbp),%rax
   14ed1:	89 10                	mov    %edx,(%rax)
   14ed3:	48 8b 85 a8 e4 ff ff 	mov    -0x1b58(%rbp),%rax
   14eda:	48 8b 95 80 e3 ff ff 	mov    -0x1c80(%rbp),%rdx
   14ee1:	48 89 10             	mov    %rdx,(%rax)
   14ee4:	8b 05 ce 03 01 00    	mov    0x103ce(%rip),%eax        # 252b8 <g_741>
   14eea:	85 c0                	test   %eax,%eax
   14eec:	0f 85 1c c4 ff ff    	jne    1130e <func_32+0x936>
   14ef2:	0f b7 05 ff 04 01 00 	movzwl 0x104ff(%rip),%eax        # 253f8 <g_1381>
   14ef9:	83 c0 01             	add    $0x1,%eax
   14efc:	66 89 05 f5 04 01 00 	mov    %ax,0x104f5(%rip)        # 253f8 <g_1381>
   14f03:	0f b7 05 ee 04 01 00 	movzwl 0x104ee(%rip),%eax        # 253f8 <g_1381>
   14f0a:	66 83 f8 01          	cmp    $0x1,%ax
   14f0e:	0f 86 e1 fd ff ff    	jbe    14cf5 <func_32+0x431d>
   14f14:	eb 01                	jmp    14f17 <func_32+0x453f>
   14f16:	90                   	nop
   14f17:	0f bf 9d 44 e1 ff ff 	movswl -0x1ebc(%rbp),%ebx
   14f1e:	4c 8b a5 38 e1 ff ff 	mov    -0x1ec8(%rbp),%r12
   14f25:	48 8b 85 48 e1 ff ff 	mov    -0x1eb8(%rbp),%rax
   14f2c:	89 c1                	mov    %eax,%ecx
   14f2e:	48 8b 05 d3 31 01 00 	mov    0x131d3(%rip),%rax        # 28108 <g_311>
   14f35:	0f b6 00             	movzbl (%rax),%eax
   14f38:	84 c0                	test   %al,%al
   14f3a:	74 11                	je     14f4d <func_32+0x4575>
   14f3c:	8b 85 2c e6 ff ff    	mov    -0x19d4(%rbp),%eax
   14f42:	85 c0                	test   %eax,%eax
   14f44:	74 07                	je     14f4d <func_32+0x4575>
   14f46:	b8 01 00 00 00       	mov    $0x1,%eax
   14f4b:	eb 05                	jmp    14f52 <func_32+0x457a>
   14f4d:	b8 00 00 00 00       	mov    $0x0,%eax
   14f52:	48 63 d0             	movslq %eax,%rdx
   14f55:	48 8b 85 48 e3 ff ff 	mov    -0x1cb8(%rbp),%rax
   14f5c:	48 89 10             	mov    %rdx,(%rax)
   14f5f:	48 8b 85 38 e1 ff ff 	mov    -0x1ec8(%rbp),%rax
   14f66:	0f b7 c0             	movzwl %ax,%eax
   14f69:	89 ce                	mov    %ecx,%esi
   14f6b:	89 c7                	mov    %eax,%edi
   14f6d:	e8 94 7e ff ff       	callq  ce06 <safe_lshift_func_uint16_t_u_u>
   14f72:	89 c2                	mov    %eax,%edx
   14f74:	48 8b 85 48 e1 ff ff 	mov    -0x1eb8(%rbp),%rax
   14f7b:	21 d0                	and    %edx,%eax
   14f7d:	0f b7 c0             	movzwl %ax,%eax
   14f80:	89 c6                	mov    %eax,%esi
   14f82:	bf 4c fb 00 00       	mov    $0xfb4c,%edi
   14f87:	e8 02 7e ff ff       	callq  cd8e <safe_div_func_uint16_t_u_u>
   14f8c:	66 85 c0             	test   %ax,%ax
   14f8f:	0f 94 c0             	sete   %al
   14f92:	0f b6 c0             	movzbl %al,%eax
   14f95:	89 85 20 e6 ff ff    	mov    %eax,-0x19e0(%rbp)
   14f9b:	8b 95 20 e6 ff ff    	mov    -0x19e0(%rbp),%edx
   14fa1:	48 8b 85 e0 e3 ff ff 	mov    -0x1c20(%rbp),%rax
   14fa8:	89 10                	mov    %edx,(%rax)
   14faa:	48 8b 85 e0 e3 ff ff 	mov    -0x1c20(%rbp),%rax
   14fb1:	8b 10                	mov    (%rax),%edx
   14fb3:	0f bf 85 44 e1 ff ff 	movswl -0x1ebc(%rbp),%eax
   14fba:	31 d0                	xor    %edx,%eax
   14fbc:	48 98                	cltq   
   14fbe:	4c 89 e6             	mov    %r12,%rsi
   14fc1:	48 89 c7             	mov    %rax,%rdi
   14fc4:	e8 df 78 ff ff       	callq  c8a8 <safe_sub_func_int64_t_s_s>
   14fc9:	48 8b 85 48 e1 ff ff 	mov    -0x1eb8(%rbp),%rax
   14fd0:	48 39 85 38 e1 ff ff 	cmp    %rax,-0x1ec8(%rbp)
   14fd7:	0f 92 c0             	setb   %al
   14fda:	0f b6 c0             	movzbl %al,%eax
   14fdd:	09 85 54 e2 ff ff    	or     %eax,-0x1dac(%rbp)
   14fe3:	48 8b 85 98 e5 ff ff 	mov    -0x1a68(%rbp),%rax
   14fea:	48 39 85 70 e4 ff ff 	cmp    %rax,-0x1b90(%rbp)
   14ff1:	0f 95 c0             	setne  %al
   14ff4:	0f b6 c0             	movzbl %al,%eax
   14ff7:	48 39 85 38 e1 ff ff 	cmp    %rax,-0x1ec8(%rbp)
   14ffe:	0f 95 c0             	setne  %al
   15001:	0f b6 d0             	movzbl %al,%edx
   15004:	8b 05 b2 02 01 00    	mov    0x102b2(%rip),%eax        # 252bc <g_778>
   1500a:	8d 70 02             	lea    0x2(%rax),%esi
   1500d:	8b 05 a9 02 01 00    	mov    0x102a9(%rip),%eax        # 252bc <g_778>
   15013:	89 c1                	mov    %eax,%ecx
   15015:	89 f0                	mov    %esi,%eax
   15017:	48 01 c0             	add    %rax,%rax
   1501a:	48 01 c8             	add    %rcx,%rax
   1501d:	48 8d 0c 85 00 00 00 	lea    0x0(,%rax,4),%rcx
   15024:	00 
   15025:	48 8d 05 b4 02 01 00 	lea    0x102b4(%rip),%rax        # 252e0 <g_842>
   1502c:	8b 04 01             	mov    (%rcx,%rax,1),%eax
   1502f:	39 c2                	cmp    %eax,%edx
   15031:	0f 9f c0             	setg   %al
   15034:	0f b6 c0             	movzbl %al,%eax
   15037:	f7 d0                	not    %eax
   15039:	0f b7 c0             	movzwl %ax,%eax
   1503c:	be f5 94 00 00       	mov    $0x94f5,%esi
   15041:	89 c7                	mov    %eax,%edi
   15043:	e8 14 7d ff ff       	callq  cd5c <safe_mod_func_uint16_t_u_u>
   15048:	48 8b 85 38 e1 ff ff 	mov    -0x1ec8(%rbp),%rax
   1504f:	83 c8 01             	or     $0x1,%eax
   15052:	89 de                	mov    %ebx,%esi
   15054:	89 c7                	mov    %eax,%edi
   15056:	e8 a2 7e ff ff       	callq  cefd <safe_mod_func_uint32_t_u_u>
   1505b:	89 c2                	mov    %eax,%edx
   1505d:	48 8b 85 48 e1 ff ff 	mov    -0x1eb8(%rbp),%rax
   15064:	0f b6 c0             	movzbl %al,%eax
   15067:	89 d6                	mov    %edx,%esi
   15069:	89 c7                	mov    %eax,%edi
   1506b:	e8 1d 7c ff ff       	callq  cc8d <safe_rshift_func_uint8_t_u_s>
   15070:	0f b6 c0             	movzbl %al,%eax
   15073:	48 89 05 1e 01 01 00 	mov    %rax,0x1011e(%rip)        # 25198 <g_176>
   1507a:	48 8b 05 17 01 01 00 	mov    0x10117(%rip),%rax        # 25198 <g_176>
   15081:	48 c7 c6 ff ff ff ff 	mov    $0xffffffffffffffff,%rsi
   15088:	48 89 c7             	mov    %rax,%rdi
   1508b:	e8 1f 80 ff ff       	callq  d0af <safe_div_func_uint64_t_u_u>
   15090:	8b 05 32 01 01 00    	mov    0x10132(%rip),%eax        # 251c8 <g_359>
   15096:	48 98                	cltq   
   15098:	48 39 85 38 e1 ff ff 	cmp    %rax,-0x1ec8(%rbp)
   1509f:	74 16                	je     150b7 <func_32+0x46df>
   150a1:	48 8b 05 58 30 01 00 	mov    0x13058(%rip),%rax        # 28100 <g_124>
   150a8:	48 8b 00             	mov    (%rax),%rax
   150ab:	48 85 c0             	test   %rax,%rax
   150ae:	74 07                	je     150b7 <func_32+0x46df>
   150b0:	b8 01 00 00 00       	mov    $0x1,%eax
   150b5:	eb 05                	jmp    150bc <func_32+0x46e4>
   150b7:	b8 00 00 00 00       	mov    $0x0,%eax
   150bc:	89 c2                	mov    %eax,%edx
   150be:	8b 05 f0 01 01 00    	mov    0x101f0(%rip),%eax        # 252b4 <g_641>
   150c4:	21 d0                	and    %edx,%eax
   150c6:	89 c1                	mov    %eax,%ecx
   150c8:	8b 05 ee 01 01 00    	mov    0x101ee(%rip),%eax        # 252bc <g_778>
   150ce:	8d 70 02             	lea    0x2(%rax),%esi
   150d1:	8b 05 e5 01 01 00    	mov    0x101e5(%rip),%eax        # 252bc <g_778>
   150d7:	89 c2                	mov    %eax,%edx
   150d9:	89 f0                	mov    %esi,%eax
   150db:	48 01 c0             	add    %rax,%rax
   150de:	48 01 d0             	add    %rdx,%rax
   150e1:	48 8d 14 85 00 00 00 	lea    0x0(,%rax,4),%rdx
   150e8:	00 
   150e9:	48 8d 05 f0 01 01 00 	lea    0x101f0(%rip),%rax        # 252e0 <g_842>
   150f0:	8b 04 02             	mov    (%rdx,%rax,1),%eax
   150f3:	89 ce                	mov    %ecx,%esi
   150f5:	89 c7                	mov    %eax,%edi
   150f7:	e8 ba 74 ff ff       	callq  c5b6 <safe_add_func_int32_t_s_s>
   150fc:	85 c0                	test   %eax,%eax
   150fe:	0f 84 8c 00 00 00    	je     15190 <func_32+0x47b8>
   15104:	48 8d 85 f0 f7 ff ff 	lea    -0x810(%rbp),%rax
   1510b:	48 8d 15 ee b9 00 00 	lea    0xb9ee(%rip),%rdx        # 20b00 <g_1983+0xa98>
   15112:	b9 a0 00 00 00       	mov    $0xa0,%ecx
   15117:	48 89 c7             	mov    %rax,%rdi
   1511a:	48 89 d6             	mov    %rdx,%rsi
   1511d:	f3 48 a5             	rep movsq %ds:(%rsi),%es:(%rdi)
   15120:	66 c7 85 7e e1 ff ff 	movw   $0x1255,-0x1e82(%rbp)
   15127:	55 12 
   15129:	c7 85 5c e2 ff ff 62 	movl   $0xf550462,-0x1da4(%rbp)
   15130:	04 55 0f 
   15133:	8b 05 83 01 01 00    	mov    0x10183(%rip),%eax        # 252bc <g_778>
   15139:	8d 48 02             	lea    0x2(%rax),%ecx
   1513c:	8b 05 7a 01 01 00    	mov    0x1017a(%rip),%eax        # 252bc <g_778>
   15142:	89 c2                	mov    %eax,%edx
   15144:	89 c8                	mov    %ecx,%eax
   15146:	48 01 c0             	add    %rax,%rax
   15149:	48 01 d0             	add    %rdx,%rax
   1514c:	48 8d 14 85 00 00 00 	lea    0x0(,%rax,4),%rdx
   15153:	00 
   15154:	48 8d 05 85 01 01 00 	lea    0x10185(%rip),%rax        # 252e0 <g_842>
   1515b:	8b 04 02             	mov    (%rdx,%rax,1),%eax
   1515e:	85 c0                	test   %eax,%eax
   15160:	0f 85 a8 09 00 00    	jne    15b0e <func_32+0x5136>
   15166:	0f b6 05 a3 02 01 00 	movzbl 0x102a3(%rip),%eax        # 25410 <g_1536>
   1516d:	83 e8 01             	sub    $0x1,%eax
   15170:	88 05 9a 02 01 00    	mov    %al,0x1029a(%rip)        # 25410 <g_1536>
   15176:	0f b7 85 7e e1 ff ff 	movzwl -0x1e82(%rbp),%eax
   1517d:	83 c0 01             	add    $0x1,%eax
   15180:	66 89 85 7e e1 ff ff 	mov    %ax,-0x1e82(%rbp)
   15187:	83 85 dc e1 ff ff 01 	addl   $0x1,-0x1e24(%rbp)
   1518e:	eb 32                	jmp    151c2 <func_32+0x47ea>
   15190:	8b 05 26 01 01 00    	mov    0x10126(%rip),%eax        # 252bc <g_778>
   15196:	8d 48 02             	lea    0x2(%rax),%ecx
   15199:	8b 05 1d 01 01 00    	mov    0x1011d(%rip),%eax        # 252bc <g_778>
   1519f:	89 c2                	mov    %eax,%edx
   151a1:	89 c8                	mov    %ecx,%eax
   151a3:	48 01 c0             	add    %rax,%rax
   151a6:	48 01 d0             	add    %rdx,%rax
   151a9:	48 8d 14 85 00 00 00 	lea    0x0(,%rax,4),%rdx
   151b0:	00 
   151b1:	48 8d 05 28 01 01 00 	lea    0x10128(%rip),%rax        # 252e0 <g_842>
   151b8:	48 01 d0             	add    %rdx,%rax
   151bb:	48 89 85 80 e4 ff ff 	mov    %rax,-0x1b80(%rbp)
   151c2:	0f b6 05 b7 ff 00 00 	movzbl 0xffb7(%rip),%eax        # 25180 <g_80>
   151c9:	83 e8 01             	sub    $0x1,%eax
   151cc:	88 05 ae ff 00 00    	mov    %al,0xffae(%rip)        # 25180 <g_80>
   151d2:	0f b6 05 a7 ff 00 00 	movzbl 0xffa7(%rip),%eax        # 25180 <g_80>
   151d9:	84 c0                	test   %al,%al
   151db:	0f 89 d9 fa ff ff    	jns    14cba <func_32+0x42e2>
   151e1:	e9 29 09 00 00       	jmpq   15b0f <func_32+0x5137>
   151e6:	c7 85 1c e2 ff ff e1 	movl   $0xf55d2e1,-0x1de4(%rbp)
   151ed:	d2 55 0f 
   151f0:	c7 85 20 e2 ff ff d9 	movl   $0x3a9281d9,-0x1de0(%rbp)
   151f7:	81 92 3a 
   151fa:	48 8d 85 10 e3 ff ff 	lea    -0x1cf0(%rbp),%rax
   15201:	48 89 85 28 e3 ff ff 	mov    %rax,-0x1cd8(%rbp)
   15208:	48 8d 85 28 e3 ff ff 	lea    -0x1cd8(%rbp),%rax
   1520f:	48 89 85 18 e4 ff ff 	mov    %rax,-0x1be8(%rbp)
   15216:	c7 85 24 e2 ff ff 93 	movl   $0xaf96b493,-0x1ddc(%rbp)
   1521d:	b4 96 af 
   15220:	c7 85 ec e1 ff ff 04 	movl   $0x4,-0x1e14(%rbp)
   15227:	00 00 00 
   1522a:	c7 85 28 e2 ff ff 00 	movl   $0x0,-0x1dd8(%rbp)
   15231:	00 00 00 
   15234:	c7 85 2c e2 ff ff 00 	movl   $0x0,-0x1dd4(%rbp)
   1523b:	00 00 00 
   1523e:	c7 85 30 e2 ff ff 01 	movl   $0x1,-0x1dd0(%rbp)
   15245:	00 00 00 
   15248:	c7 85 20 e6 ff ff f6 	movl   $0xfffffff6,-0x19e0(%rbp)
   1524f:	ff ff ff 
   15252:	c7 85 24 e6 ff ff f6 	movl   $0xfffffff6,-0x19dc(%rbp)
   15259:	ff ff ff 
   1525c:	c7 85 28 e6 ff ff f6 	movl   $0xfffffff6,-0x19d8(%rbp)
   15263:	ff ff ff 
   15266:	c7 85 2c e6 ff ff f6 	movl   $0xfffffff6,-0x19d4(%rbp)
   1526d:	ff ff ff 
   15270:	c7 85 30 e6 ff ff f6 	movl   $0xfffffff6,-0x19d0(%rbp)
   15277:	ff ff ff 
   1527a:	c7 85 34 e6 ff ff f6 	movl   $0xfffffff6,-0x19cc(%rbp)
   15281:	ff ff ff 
   15284:	c7 85 38 e6 ff ff f6 	movl   $0xfffffff6,-0x19c8(%rbp)
   1528b:	ff ff ff 
   1528e:	c7 85 3c e6 ff ff f6 	movl   $0xfffffff6,-0x19c4(%rbp)
   15295:	ff ff ff 
   15298:	c7 85 34 e2 ff ff 01 	movl   $0x1,-0x1dcc(%rbp)
   1529f:	00 00 00 
   152a2:	48 b8 4b 2c f4 e0 ee 	movabs $0xdf21c2eee0f42c4b,%rax
   152a9:	c2 21 df 
   152ac:	48 89 85 20 e4 ff ff 	mov    %rax,-0x1be0(%rbp)
   152b3:	48 8d 05 fa fe 00 00 	lea    0xfefa(%rip),%rax        # 251b4 <g_213>
   152ba:	48 89 85 28 e4 ff ff 	mov    %rax,-0x1bd8(%rbp)
   152c1:	48 c7 85 30 e4 ff ff 	movq   $0x0,-0x1bd0(%rbp)
   152c8:	00 00 00 00 
   152cc:	c7 05 f2 ff 00 00 04 	movl   $0x4,0xfff2(%rip)        # 252c8 <g_841>
   152d3:	00 00 00 
   152d6:	e9 c7 02 00 00       	jmpq   155a2 <func_32+0x4bca>
   152db:	48 8d 05 ce 46 01 00 	lea    0x146ce(%rip),%rax        # 299b0 <g_145>
   152e2:	48 89 85 50 e4 ff ff 	mov    %rax,-0x1bb0(%rbp)
   152e9:	c7 85 f0 e1 ff ff 00 	movl   $0x0,-0x1e10(%rbp)
   152f0:	00 00 00 
   152f3:	eb 21                	jmp    15316 <func_32+0x493e>
   152f5:	8b 85 f0 e1 ff ff    	mov    -0x1e10(%rbp),%eax
   152fb:	48 98                	cltq   
   152fd:	48 bb 38 12 13 69 e1 	movabs $0x2f1366e169131238,%rbx
   15304:	66 13 2f 
   15307:	48 89 9c c5 f0 f7 ff 	mov    %rbx,-0x810(%rbp,%rax,8)
   1530e:	ff 
   1530f:	83 85 f0 e1 ff ff 01 	addl   $0x1,-0x1e10(%rbp)
   15316:	83 bd f0 e1 ff ff 04 	cmpl   $0x4,-0x1e10(%rbp)
   1531d:	7e d6                	jle    152f5 <func_32+0x491d>
   1531f:	c7 85 c4 e1 ff ff 00 	movl   $0x0,-0x1e3c(%rbp)
   15326:	00 00 00 
   15329:	e9 c5 00 00 00       	jmpq   153f3 <func_32+0x4a1b>
   1532e:	48 8d 05 7b 46 01 00 	lea    0x1467b(%rip),%rax        # 299b0 <g_145>
   15335:	48 89 85 58 e4 ff ff 	mov    %rax,-0x1ba8(%rbp)
   1533c:	48 8d 85 18 e3 ff ff 	lea    -0x1ce8(%rbp),%rax
   15343:	48 89 85 60 e4 ff ff 	mov    %rax,-0x1ba0(%rbp)
   1534a:	c7 85 50 e2 ff ff 87 	movl   $0x2d7e4687,-0x1db0(%rbp)
   15351:	46 7e 2d 
   15354:	c7 85 f4 e1 ff ff 00 	movl   $0x0,-0x1e0c(%rbp)
   1535b:	00 00 00 
   1535e:	eb 1a                	jmp    1537a <func_32+0x49a2>
   15360:	8b 85 f4 e1 ff ff    	mov    -0x1e0c(%rbp),%eax
   15366:	48 98                	cltq   
   15368:	c7 84 85 94 e5 ff ff 	movl   $0x4,-0x1a6c(%rbp,%rax,4)
   1536f:	04 00 00 00 
   15373:	83 85 f4 e1 ff ff 01 	addl   $0x1,-0x1e0c(%rbp)
   1537a:	83 bd f4 e1 ff ff 00 	cmpl   $0x0,-0x1e0c(%rbp)
   15381:	7e dd                	jle    15360 <func_32+0x4988>
   15383:	48 8b 85 58 e4 ff ff 	mov    -0x1ba8(%rbp),%rax
   1538a:	8b 00                	mov    (%rax),%eax
   1538c:	8d 50 ff             	lea    -0x1(%rax),%edx
   1538f:	48 8b 85 58 e4 ff ff 	mov    -0x1ba8(%rbp),%rax
   15396:	89 10                	mov    %edx,(%rax)
   15398:	48 8b 85 48 e1 ff ff 	mov    -0x1eb8(%rbp),%rax
   1539f:	0f be c0             	movsbl %al,%eax
   153a2:	89 c6                	mov    %eax,%esi
   153a4:	bf 01 00 00 00       	mov    $0x1,%edi
   153a9:	e8 44 6e ff ff       	callq  c1f2 <safe_sub_func_int8_t_s_s>
   153ae:	c7 85 1c e2 ff ff 01 	movl   $0x1,-0x1de4(%rbp)
   153b5:	00 00 00 
   153b8:	48 8b 85 e0 e3 ff ff 	mov    -0x1c20(%rbp),%rax
   153bf:	c7 00 09 00 00 00    	movl   $0x9,(%rax)
   153c5:	48 8b 85 e0 e3 ff ff 	mov    -0x1c20(%rbp),%rax
   153cc:	8b 00                	mov    (%rax),%eax
   153ce:	89 05 30 ff 00 00    	mov    %eax,0xff30(%rip)        # 25304 <g_842+0x24>
   153d4:	48 8b 85 60 e4 ff ff 	mov    -0x1ba0(%rbp),%rax
   153db:	48 8b 95 08 e4 ff ff 	mov    -0x1bf8(%rbp),%rdx
   153e2:	48 89 10             	mov    %rdx,(%rax)
   153e5:	83 ad e0 e1 ff ff 01 	subl   $0x1,-0x1e20(%rbp)
   153ec:	83 85 c4 e1 ff ff 01 	addl   $0x1,-0x1e3c(%rbp)
   153f3:	83 bd c4 e1 ff ff 04 	cmpl   $0x4,-0x1e3c(%rbp)
   153fa:	0f 8e 2e ff ff ff    	jle    1532e <func_32+0x4956>
   15400:	80 bd 62 e1 ff ff 00 	cmpb   $0x0,-0x1e9e(%rbp)
   15407:	74 2d                	je     15436 <func_32+0x4a5e>
   15409:	48 8b 85 50 e7 ff ff 	mov    -0x18b0(%rbp),%rax
   15410:	48 8d 15 e9 ff 00 00 	lea    0xffe9(%rip),%rdx        # 25400 <g_1397>
   15417:	48 39 d0             	cmp    %rdx,%rax
   1541a:	0f 95 c0             	setne  %al
   1541d:	0f b6 d0             	movzbl %al,%edx
   15420:	48 8b 85 e0 e3 ff ff 	mov    -0x1c20(%rbp),%rax
   15427:	89 10                	mov    %edx,(%rax)
   15429:	48 0f bf 85 44 e1 ff 	movswq -0x1ebc(%rbp),%rax
   15430:	ff 
   15431:	e9 01 07 00 00       	jmpq   15b37 <func_32+0x515f>
   15436:	48 8b 85 f8 e2 ff ff 	mov    -0x1d08(%rbp),%rax
   1543d:	48 8b 00             	mov    (%rax),%rax
   15440:	48 c7 00 00 00 00 00 	movq   $0x0,(%rax)
   15447:	48 8b 85 88 e3 ff ff 	mov    -0x1c78(%rbp),%rax
   1544e:	0f b7 d8             	movzwl %ax,%ebx
   15451:	48 8b 05 a8 2c 01 00 	mov    0x12ca8(%rip),%rax        # 28100 <g_124>
   15458:	48 8b 00             	mov    (%rax),%rax
   1545b:	49 89 c4             	mov    %rax,%r12
   1545e:	48 8b 85 08 e4 ff ff 	mov    -0x1bf8(%rbp),%rax
   15465:	8b 00                	mov    (%rax),%eax
   15467:	48 63 d0             	movslq %eax,%rdx
   1546a:	48 8b 05 67 2e 01 00 	mov    0x12e67(%rip),%rax        # 282d8 <g_819>
   15471:	48 8b 8d a8 e8 ff ff 	mov    -0x1758(%rbp),%rcx
   15478:	48 89 08             	mov    %rcx,(%rax)
   1547b:	48 8b 00             	mov    (%rax),%rax
   1547e:	48 39 85 10 e4 ff ff 	cmp    %rax,-0x1bf0(%rbp)
   15485:	48 8b 85 50 e4 ff ff 	mov    -0x1bb0(%rbp),%rax
   1548c:	c7 00 a9 5d a4 e6    	movl   $0xe6a45da9,(%rax)
   15492:	48 8d 85 e8 e2 ff ff 	lea    -0x1d18(%rbp),%rax
   15499:	48 39 85 18 e4 ff ff 	cmp    %rax,-0x1be8(%rbp)
   154a0:	0f 95 c0             	setne  %al
   154a3:	0f b6 c0             	movzbl %al,%eax
   154a6:	48 89 d6             	mov    %rdx,%rsi
   154a9:	48 89 c7             	mov    %rax,%rdi
   154ac:	e8 fe 7b ff ff       	callq  d0af <safe_div_func_uint64_t_u_u>
   154b1:	48 89 c6             	mov    %rax,%rsi
   154b4:	48 bf 76 2f 58 35 e8 	movabs $0xafde80e835582f76,%rdi
   154bb:	80 de af 
   154be:	e8 7e 73 ff ff       	callq  c841 <safe_add_func_int64_t_s_s>
   154c3:	4c 89 e6             	mov    %r12,%rsi
   154c6:	48 89 c7             	mov    %rax,%rdi
   154c9:	e8 b2 7b ff ff       	callq  d080 <safe_mod_func_uint64_t_u_u>
   154ce:	48 3d fc de 23 6a    	cmp    $0x6a23defc,%rax
   154d4:	0f 97 c0             	seta   %al
   154d7:	44 0f b6 e0          	movzbl %al,%r12d
   154db:	48 8b 85 48 e1 ff ff 	mov    -0x1eb8(%rbp),%rax
   154e2:	98                   	cwtl   
   154e3:	be 17 f9 ff ff       	mov    $0xfffff917,%esi
   154e8:	89 c7                	mov    %eax,%edi
   154ea:	e8 27 6f ff ff       	callq  c416 <safe_mod_func_int16_t_s_s>
   154ef:	0f b7 d0             	movzwl %ax,%edx
   154f2:	48 8b 85 48 e1 ff ff 	mov    -0x1eb8(%rbp),%rax
   154f9:	0f b7 c0             	movzwl %ax,%eax
   154fc:	89 d6                	mov    %edx,%esi
   154fe:	89 c7                	mov    %eax,%edi
   15500:	e8 1a 78 ff ff       	callq  cd1f <safe_sub_func_uint16_t_u_u>
   15505:	0f b7 c0             	movzwl %ax,%eax
   15508:	44 89 e6             	mov    %r12d,%esi
   1550b:	89 c7                	mov    %eax,%edi
   1550d:	e8 0d 78 ff ff       	callq  cd1f <safe_sub_func_uint16_t_u_u>
   15512:	0f b7 c0             	movzwl %ax,%eax
   15515:	89 de                	mov    %ebx,%esi
   15517:	89 c7                	mov    %eax,%edi
   15519:	e8 01 78 ff ff       	callq  cd1f <safe_sub_func_uint16_t_u_u>
   1551e:	0f b7 c0             	movzwl %ax,%eax
   15521:	48 0b 85 48 e1 ff ff 	or     -0x1eb8(%rbp),%rax
   15528:	48 3d 1e a1 00 00    	cmp    $0xa11e,%rax
   1552e:	66 0f be 85 5f e1 ff 	movsbw -0x1ea1(%rbp),%ax
   15535:	ff 
   15536:	0f b7 c0             	movzwl %ax,%eax
   15539:	be 01 00 00 00       	mov    $0x1,%esi
   1553e:	89 c7                	mov    %eax,%edi
   15540:	e8 35 79 ff ff       	callq  ce7a <safe_rshift_func_uint16_t_u_u>
   15545:	66 85 c0             	test   %ax,%ax
   15548:	74 13                	je     1555d <func_32+0x4b85>
   1554a:	48 8b 05 57 fc 00 00 	mov    0xfc57(%rip),%rax        # 251a8 <g_184>
   15551:	48 85 c0             	test   %rax,%rax
   15554:	74 07                	je     1555d <func_32+0x4b85>
   15556:	b8 01 00 00 00       	mov    $0x1,%eax
   1555b:	eb 05                	jmp    15562 <func_32+0x4b8a>
   1555d:	b8 00 00 00 00       	mov    $0x0,%eax
   15562:	0f b6 d0             	movzbl %al,%edx
   15565:	8b 85 20 e2 ff ff    	mov    -0x1de0(%rbp),%eax
   1556b:	0f b6 c0             	movzbl %al,%eax
   1556e:	89 d6                	mov    %edx,%esi
   15570:	89 c7                	mov    %eax,%edi
   15572:	e8 37 76 ff ff       	callq  cbae <safe_mod_func_uint8_t_u_u>
   15577:	84 c0                	test   %al,%al
   15579:	0f 95 c0             	setne  %al
   1557c:	0f b6 d0             	movzbl %al,%edx
   1557f:	48 8b 85 e0 e3 ff ff 	mov    -0x1c20(%rbp),%rax
   15586:	8b 00                	mov    (%rax),%eax
   15588:	31 c2                	xor    %eax,%edx
   1558a:	48 8b 85 e0 e3 ff ff 	mov    -0x1c20(%rbp),%rax
   15591:	89 10                	mov    %edx,(%rax)
   15593:	8b 05 2f fd 00 00    	mov    0xfd2f(%rip),%eax        # 252c8 <g_841>
   15599:	83 e8 01             	sub    $0x1,%eax
   1559c:	89 05 26 fd 00 00    	mov    %eax,0xfd26(%rip)        # 252c8 <g_841>
   155a2:	8b 05 20 fd 00 00    	mov    0xfd20(%rip),%eax        # 252c8 <g_841>
   155a8:	85 c0                	test   %eax,%eax
   155aa:	0f 89 2b fd ff ff    	jns    152db <func_32+0x4903>
   155b0:	0f b7 85 b4 e6 ff ff 	movzwl -0x194c(%rbp),%eax
   155b7:	83 c0 01             	add    $0x1,%eax
   155ba:	66 89 85 b4 e6 ff ff 	mov    %ax,-0x194c(%rbp)
   155c1:	c7 05 fd fc 00 00 16 	movl   $0x16,0xfcfd(%rip)        # 252c8 <g_841>
   155c8:	00 00 00 
   155cb:	e9 23 05 00 00       	jmpq   15af3 <func_32+0x511b>
   155d0:	48 b8 ff 14 ff 14 ff 	movabs $0x14ff14ff14ff14ff,%rax
   155d7:	14 ff 14 
   155da:	48 89 45 c0          	mov    %rax,-0x40(%rbp)
   155de:	c7 85 38 e2 ff ff 18 	movl   $0xf653c418,-0x1dc8(%rbp)
   155e5:	c4 53 f6 
   155e8:	c7 85 3c e2 ff ff 05 	movl   $0x5,-0x1dc4(%rbp)
   155ef:	00 00 00 
   155f2:	c7 85 40 e2 ff ff 24 	movl   $0x79174a24,-0x1dc0(%rbp)
   155f9:	4a 17 79 
   155fc:	48 8d 85 f0 e2 ff ff 	lea    -0x1d10(%rbp),%rax
   15603:	48 89 85 38 e4 ff ff 	mov    %rax,-0x1bc8(%rbp)
   1560a:	48 8d 05 ab fb 00 00 	lea    0xfbab(%rip),%rax        # 251bc <g_248>
   15611:	48 89 85 40 e4 ff ff 	mov    %rax,-0x1bc0(%rbp)
   15618:	8b 05 0a fe 00 00    	mov    0xfe0a(%rip),%eax        # 25428 <g_1615>
   1561e:	85 c0                	test   %eax,%eax
   15620:	0f 84 24 01 00 00    	je     1574a <func_32+0x4d72>
   15626:	c7 85 4c e2 ff ff 4a 	movl   $0x24f9264a,-0x1db4(%rbp)
   1562d:	26 f9 24 
   15630:	0f b6 45 c7          	movzbl -0x39(%rbp),%eax
   15634:	83 e8 01             	sub    $0x1,%eax
   15637:	88 45 c7             	mov    %al,-0x39(%rbp)
   1563a:	0f b6 45 c7          	movzbl -0x39(%rbp),%eax
   1563e:	84 c0                	test   %al,%al
   15640:	0f 85 be 04 00 00    	jne    15b04 <func_32+0x512c>
   15646:	48 8b 85 e0 e3 ff ff 	mov    -0x1c20(%rbp),%rax
   1564d:	c7 00 05 00 00 00    	movl   $0x5,(%rax)
   15653:	83 85 4c e2 ff ff 01 	addl   $0x1,-0x1db4(%rbp)
   1565a:	0f b6 45 c1          	movzbl -0x3f(%rbp),%eax
   1565e:	0f b6 d8             	movzbl %al,%ebx
   15661:	8b 85 2c e2 ff ff    	mov    -0x1dd4(%rbp),%eax
   15667:	0f be d0             	movsbl %al,%edx
   1566a:	48 8b 85 38 e4 ff ff 	mov    -0x1bc8(%rbp),%rax
   15671:	48 8b 8d 28 e4 ff ff 	mov    -0x1bd8(%rbp),%rcx
   15678:	48 89 08             	mov    %rcx,(%rax)
   1567b:	48 8b 85 38 e4 ff ff 	mov    -0x1bc8(%rbp),%rax
   15682:	48 8b 00             	mov    (%rax),%rax
   15685:	48 89 85 b0 e5 ff ff 	mov    %rax,-0x1a50(%rbp)
   1568c:	48 8b 85 b0 e5 ff ff 	mov    -0x1a50(%rbp),%rax
   15693:	48 39 85 60 e3 ff ff 	cmp    %rax,-0x1ca0(%rbp)
   1569a:	0f 95 c0             	setne  %al
   1569d:	0f b6 c0             	movzbl %al,%eax
   156a0:	89 d6                	mov    %edx,%esi
   156a2:	89 c7                	mov    %eax,%edi
   156a4:	e8 c1 6b ff ff       	callq  c26a <safe_div_func_int8_t_s_s>
   156a9:	0f b6 45 c7          	movzbl -0x39(%rbp),%eax
   156ad:	0f b6 d0             	movzbl %al,%edx
   156b0:	48 8b 85 48 e3 ff ff 	mov    -0x1cb8(%rbp),%rax
   156b7:	48 89 10             	mov    %rdx,(%rax)
   156ba:	48 8b 85 48 e3 ff ff 	mov    -0x1cb8(%rbp),%rax
   156c1:	48 8b 10             	mov    (%rax),%rdx
   156c4:	8b 85 90 e1 ff ff    	mov    -0x1e70(%rbp),%eax
   156ca:	89 c0                	mov    %eax,%eax
   156cc:	48 23 85 38 e1 ff ff 	and    -0x1ec8(%rbp),%rax
   156d3:	48 89 c1             	mov    %rax,%rcx
   156d6:	8b 85 54 e6 ff ff    	mov    -0x19ac(%rbp),%eax
   156dc:	48 98                	cltq   
   156de:	48 39 c1             	cmp    %rax,%rcx
   156e1:	0f 97 c0             	seta   %al
   156e4:	0f b6 c0             	movzbl %al,%eax
   156e7:	48 39 c2             	cmp    %rax,%rdx
   156ea:	0f 9f c0             	setg   %al
   156ed:	0f b6 c0             	movzbl %al,%eax
   156f0:	8b 15 7a fd 00 00    	mov    0xfd7a(%rip),%edx        # 25470 <g_1656>
   156f6:	31 d0                	xor    %edx,%eax
   156f8:	89 c2                	mov    %eax,%edx
   156fa:	48 8b 85 48 e1 ff ff 	mov    -0x1eb8(%rbp),%rax
   15701:	09 d0                	or     %edx,%eax
   15703:	0f b7 c0             	movzwl %ax,%eax
   15706:	89 de                	mov    %ebx,%esi
   15708:	89 c7                	mov    %eax,%edi
   1570a:	e8 af 76 ff ff       	callq  cdbe <safe_lshift_func_uint16_t_u_s>
   1570f:	0f b7 c0             	movzwl %ax,%eax
   15712:	39 85 24 e2 ff ff    	cmp    %eax,-0x1ddc(%rbp)
   15718:	0f 9c c0             	setl   %al
   1571b:	0f b6 d0             	movzbl %al,%edx
   1571e:	48 8b 85 40 e4 ff ff 	mov    -0x1bc0(%rbp),%rax
   15725:	89 10                	mov    %edx,(%rax)
   15727:	0f b7 05 1c fd 00 00 	movzwl 0xfd1c(%rip),%eax        # 2544a <g_1645+0xa>
   1572e:	0f b7 d0             	movzwl %ax,%edx
   15731:	0f b6 45 c3          	movzbl -0x3d(%rbp),%eax
   15735:	3c 01                	cmp    $0x1,%al
   15737:	0f 96 c0             	setbe  %al
   1573a:	0f b6 c0             	movzbl %al,%eax
   1573d:	39 c2                	cmp    %eax,%edx
   1573f:	0f 84 6a 03 00 00    	je     15aaf <func_32+0x50d7>
   15745:	e9 55 03 00 00       	jmpq   15a9f <func_32+0x50c7>
   1574a:	c7 85 44 e2 ff ff 01 	movl   $0x1,-0x1dbc(%rbp)
   15751:	00 00 00 
   15754:	c7 85 48 e2 ff ff f8 	movl   $0x4ee0bef8,-0x1db8(%rbp)
   1575b:	be e0 4e 
   1575e:	48 8d 05 8b 2b 01 00 	lea    0x12b8b(%rip),%rax        # 282f0 <g_818+0x10>
   15765:	48 89 85 f0 f7 ff ff 	mov    %rax,-0x810(%rbp)
   1576c:	48 8d 05 7d 2b 01 00 	lea    0x12b7d(%rip),%rax        # 282f0 <g_818+0x10>
   15773:	48 89 85 f8 f7 ff ff 	mov    %rax,-0x808(%rbp)
   1577a:	48 8d 85 00 e6 ff ff 	lea    -0x1a00(%rbp),%rax
   15781:	48 89 85 00 f8 ff ff 	mov    %rax,-0x800(%rbp)
   15788:	48 8d 05 61 2b 01 00 	lea    0x12b61(%rip),%rax        # 282f0 <g_818+0x10>
   1578f:	48 89 85 08 f8 ff ff 	mov    %rax,-0x7f8(%rbp)
   15796:	48 8d 05 53 2b 01 00 	lea    0x12b53(%rip),%rax        # 282f0 <g_818+0x10>
   1579d:	48 89 85 10 f8 ff ff 	mov    %rax,-0x7f0(%rbp)
   157a4:	48 8d 05 45 2b 01 00 	lea    0x12b45(%rip),%rax        # 282f0 <g_818+0x10>
   157ab:	48 89 85 18 f8 ff ff 	mov    %rax,-0x7e8(%rbp)
   157b2:	48 8d 05 3f 2b 01 00 	lea    0x12b3f(%rip),%rax        # 282f8 <g_818+0x18>
   157b9:	48 89 85 20 f8 ff ff 	mov    %rax,-0x7e0(%rbp)
   157c0:	48 8d 05 29 2b 01 00 	lea    0x12b29(%rip),%rax        # 282f0 <g_818+0x10>
   157c7:	48 89 85 28 f8 ff ff 	mov    %rax,-0x7d8(%rbp)
   157ce:	48 8d 05 1b 2b 01 00 	lea    0x12b1b(%rip),%rax        # 282f0 <g_818+0x10>
   157d5:	48 89 85 30 f8 ff ff 	mov    %rax,-0x7d0(%rbp)
   157dc:	48 8d 05 15 2b 01 00 	lea    0x12b15(%rip),%rax        # 282f8 <g_818+0x18>
   157e3:	48 89 85 38 f8 ff ff 	mov    %rax,-0x7c8(%rbp)
   157ea:	48 8d 05 f7 2a 01 00 	lea    0x12af7(%rip),%rax        # 282e8 <g_818+0x8>
   157f1:	48 89 85 40 f8 ff ff 	mov    %rax,-0x7c0(%rbp)
   157f8:	48 8d 05 f9 2a 01 00 	lea    0x12af9(%rip),%rax        # 282f8 <g_818+0x18>
   157ff:	48 89 85 48 f8 ff ff 	mov    %rax,-0x7b8(%rbp)
   15806:	48 8d 05 eb 2a 01 00 	lea    0x12aeb(%rip),%rax        # 282f8 <g_818+0x18>
   1580d:	48 89 85 50 f8 ff ff 	mov    %rax,-0x7b0(%rbp)
   15814:	48 8d 05 cd 2a 01 00 	lea    0x12acd(%rip),%rax        # 282e8 <g_818+0x8>
   1581b:	48 89 85 58 f8 ff ff 	mov    %rax,-0x7a8(%rbp)
   15822:	48 8d 05 cf 2a 01 00 	lea    0x12acf(%rip),%rax        # 282f8 <g_818+0x18>
   15829:	48 89 85 60 f8 ff ff 	mov    %rax,-0x7a0(%rbp)
   15830:	48 8d 05 b9 2a 01 00 	lea    0x12ab9(%rip),%rax        # 282f0 <g_818+0x10>
   15837:	48 89 85 68 f8 ff ff 	mov    %rax,-0x798(%rbp)
   1583e:	48 8d 05 ab 2a 01 00 	lea    0x12aab(%rip),%rax        # 282f0 <g_818+0x10>
   15845:	48 89 85 70 f8 ff ff 	mov    %rax,-0x790(%rbp)
   1584c:	48 8d 05 a5 2a 01 00 	lea    0x12aa5(%rip),%rax        # 282f8 <g_818+0x18>
   15853:	48 89 85 78 f8 ff ff 	mov    %rax,-0x788(%rbp)
   1585a:	48 8d 05 8f 2a 01 00 	lea    0x12a8f(%rip),%rax        # 282f0 <g_818+0x10>
   15861:	48 89 85 80 f8 ff ff 	mov    %rax,-0x780(%rbp)
   15868:	48 8d 05 81 2a 01 00 	lea    0x12a81(%rip),%rax        # 282f0 <g_818+0x10>
   1586f:	48 89 85 88 f8 ff ff 	mov    %rax,-0x778(%rbp)
   15876:	48 8d 05 73 2a 01 00 	lea    0x12a73(%rip),%rax        # 282f0 <g_818+0x10>
   1587d:	48 89 85 90 f8 ff ff 	mov    %rax,-0x770(%rbp)
   15884:	48 8d 85 00 e6 ff ff 	lea    -0x1a00(%rbp),%rax
   1588b:	48 89 85 98 f8 ff ff 	mov    %rax,-0x768(%rbp)
   15892:	48 8d 05 57 2a 01 00 	lea    0x12a57(%rip),%rax        # 282f0 <g_818+0x10>
   15899:	48 89 85 a0 f8 ff ff 	mov    %rax,-0x760(%rbp)
   158a0:	48 8d 05 49 2a 01 00 	lea    0x12a49(%rip),%rax        # 282f0 <g_818+0x10>
   158a7:	48 89 85 a8 f8 ff ff 	mov    %rax,-0x758(%rbp)
   158ae:	48 8d 05 3b 2a 01 00 	lea    0x12a3b(%rip),%rax        # 282f0 <g_818+0x10>
   158b5:	48 89 85 b0 f8 ff ff 	mov    %rax,-0x750(%rbp)
   158bc:	48 8d 05 25 2a 01 00 	lea    0x12a25(%rip),%rax        # 282e8 <g_818+0x8>
   158c3:	48 89 85 b8 f8 ff ff 	mov    %rax,-0x748(%rbp)
   158ca:	48 8d 85 00 e6 ff ff 	lea    -0x1a00(%rbp),%rax
   158d1:	48 89 85 c0 f8 ff ff 	mov    %rax,-0x740(%rbp)
   158d8:	48 8d 85 00 e6 ff ff 	lea    -0x1a00(%rbp),%rax
   158df:	48 89 85 c8 f8 ff ff 	mov    %rax,-0x738(%rbp)
   158e6:	48 8d 05 fb 29 01 00 	lea    0x129fb(%rip),%rax        # 282e8 <g_818+0x8>
   158ed:	48 89 85 d0 f8 ff ff 	mov    %rax,-0x730(%rbp)
   158f4:	48 8d 05 f5 29 01 00 	lea    0x129f5(%rip),%rax        # 282f0 <g_818+0x10>
   158fb:	48 89 85 d8 f8 ff ff 	mov    %rax,-0x728(%rbp)
   15902:	48 8d 05 e7 29 01 00 	lea    0x129e7(%rip),%rax        # 282f0 <g_818+0x10>
   15909:	48 89 85 e0 f8 ff ff 	mov    %rax,-0x720(%rbp)
   15910:	48 8d 05 d9 29 01 00 	lea    0x129d9(%rip),%rax        # 282f0 <g_818+0x10>
   15917:	48 89 85 e8 f8 ff ff 	mov    %rax,-0x718(%rbp)
   1591e:	48 8d 85 00 e6 ff ff 	lea    -0x1a00(%rbp),%rax
   15925:	48 89 85 f0 f8 ff ff 	mov    %rax,-0x710(%rbp)
   1592c:	48 8d 05 bd 29 01 00 	lea    0x129bd(%rip),%rax        # 282f0 <g_818+0x10>
   15933:	48 89 85 f8 f8 ff ff 	mov    %rax,-0x708(%rbp)
   1593a:	48 8d 05 af 29 01 00 	lea    0x129af(%rip),%rax        # 282f0 <g_818+0x10>
   15941:	48 89 85 00 f9 ff ff 	mov    %rax,-0x700(%rbp)
   15948:	48 8d 05 a1 29 01 00 	lea    0x129a1(%rip),%rax        # 282f0 <g_818+0x10>
   1594f:	48 89 85 08 f9 ff ff 	mov    %rax,-0x6f8(%rbp)
   15956:	48 8d 05 9b 29 01 00 	lea    0x1299b(%rip),%rax        # 282f8 <g_818+0x18>
   1595d:	48 89 85 10 f9 ff ff 	mov    %rax,-0x6f0(%rbp)
   15964:	48 8d 05 85 29 01 00 	lea    0x12985(%rip),%rax        # 282f0 <g_818+0x10>
   1596b:	48 89 85 18 f9 ff ff 	mov    %rax,-0x6e8(%rbp)
   15972:	48 8d 05 77 29 01 00 	lea    0x12977(%rip),%rax        # 282f0 <g_818+0x10>
   15979:	48 89 85 20 f9 ff ff 	mov    %rax,-0x6e0(%rbp)
   15980:	48 8d 05 71 29 01 00 	lea    0x12971(%rip),%rax        # 282f8 <g_818+0x18>
   15987:	48 89 85 28 f9 ff ff 	mov    %rax,-0x6d8(%rbp)
   1598e:	48 8d 05 53 29 01 00 	lea    0x12953(%rip),%rax        # 282e8 <g_818+0x8>
   15995:	48 89 85 30 f9 ff ff 	mov    %rax,-0x6d0(%rbp)
   1599c:	48 8d 05 55 29 01 00 	lea    0x12955(%rip),%rax        # 282f8 <g_818+0x18>
   159a3:	48 89 85 38 f9 ff ff 	mov    %rax,-0x6c8(%rbp)
   159aa:	48 8d 05 47 29 01 00 	lea    0x12947(%rip),%rax        # 282f8 <g_818+0x18>
   159b1:	48 89 85 40 f9 ff ff 	mov    %rax,-0x6c0(%rbp)
   159b8:	48 8d 05 29 29 01 00 	lea    0x12929(%rip),%rax        # 282e8 <g_818+0x8>
   159bf:	48 89 85 48 f9 ff ff 	mov    %rax,-0x6b8(%rbp)
   159c6:	48 8d 05 2b 29 01 00 	lea    0x1292b(%rip),%rax        # 282f8 <g_818+0x18>
   159cd:	48 89 85 50 f9 ff ff 	mov    %rax,-0x6b0(%rbp)
   159d4:	48 8d 05 15 29 01 00 	lea    0x12915(%rip),%rax        # 282f0 <g_818+0x10>
   159db:	48 89 85 58 f9 ff ff 	mov    %rax,-0x6a8(%rbp)
   159e2:	48 8d 05 07 29 01 00 	lea    0x12907(%rip),%rax        # 282f0 <g_818+0x10>
   159e9:	48 89 85 60 f9 ff ff 	mov    %rax,-0x6a0(%rbp)
   159f0:	48 8d 05 01 29 01 00 	lea    0x12901(%rip),%rax        # 282f8 <g_818+0x18>
   159f7:	48 89 85 68 f9 ff ff 	mov    %rax,-0x698(%rbp)
   159fe:	48 8d 05 f3 f9 00 00 	lea    0xf9f3(%rip),%rax        # 253f8 <g_1381>
   15a05:	48 89 85 48 e4 ff ff 	mov    %rax,-0x1bb8(%rbp)
   15a0c:	48 8b 85 38 e1 ff ff 	mov    -0x1ec8(%rbp),%rax
   15a13:	48 89 c6             	mov    %rax,%rsi
   15a16:	48 c7 c7 ff ff ff ff 	mov    $0xffffffffffffffff,%rdi
   15a1d:	e8 92 6f ff ff       	callq  c9b4 <safe_mod_func_int64_t_s_s>
   15a22:	48 8b 95 e0 e3 ff ff 	mov    -0x1c20(%rbp),%rdx
   15a29:	8b 12                	mov    (%rdx),%edx
   15a2b:	21 c2                	and    %eax,%edx
   15a2d:	48 8b 85 e0 e3 ff ff 	mov    -0x1c20(%rbp),%rax
   15a34:	89 10                	mov    %edx,(%rax)
   15a36:	48 83 ad 20 e4 ff ff 	subq   $0x1,-0x1be0(%rbp)
   15a3d:	01 
   15a3e:	8b 1d 74 f7 00 00    	mov    0xf774(%rip),%ebx        # 251b8 <g_217>
   15a44:	48 8b 85 00 e6 ff ff 	mov    -0x1a00(%rbp),%rax
   15a4b:	48 89 85 58 e3 ff ff 	mov    %rax,-0x1ca8(%rbp)
   15a52:	48 8b 85 58 e3 ff ff 	mov    -0x1ca8(%rbp),%rax
   15a59:	48 89 85 a0 e3 ff ff 	mov    %rax,-0x1c60(%rbp)
   15a60:	48 83 bd a0 e3 ff ff 	cmpq   $0x0,-0x1c60(%rbp)
   15a67:	00 
   15a68:	0f 95 c0             	setne  %al
   15a6b:	0f b6 c0             	movzbl %al,%eax
   15a6e:	be 05 00 00 00       	mov    $0x5,%esi
   15a73:	89 c7                	mov    %eax,%edi
   15a75:	e8 5a 67 ff ff       	callq  c1d4 <safe_add_func_int8_t_s_s>
   15a7a:	0f be c0             	movsbl %al,%eax
   15a7d:	89 de                	mov    %ebx,%esi
   15a7f:	89 c7                	mov    %eax,%edi
   15a81:	e8 30 6b ff ff       	callq  c5b6 <safe_add_func_int32_t_s_s>
   15a86:	48 8b 85 e0 e3 ff ff 	mov    -0x1c20(%rbp),%rax
   15a8d:	c7 00 ff ff ff ff    	movl   $0xffffffff,(%rax)
   15a93:	0f b6 45 c7          	movzbl -0x39(%rbp),%eax
   15a97:	0f b6 c0             	movzbl %al,%eax
   15a9a:	e9 98 00 00 00       	jmpq   15b37 <func_32+0x515f>
   15a9f:	83 bd 34 e2 ff ff 00 	cmpl   $0x0,-0x1dcc(%rbp)
   15aa6:	74 07                	je     15aaf <func_32+0x50d7>
   15aa8:	b8 01 00 00 00       	mov    $0x1,%eax
   15aad:	eb 05                	jmp    15ab4 <func_32+0x50dc>
   15aaf:	b8 00 00 00 00       	mov    $0x0,%eax
   15ab4:	0f b6 d0             	movzbl %al,%edx
   15ab7:	48 8b 85 e0 e3 ff ff 	mov    -0x1c20(%rbp),%rax
   15abe:	8b 00                	mov    (%rax),%eax
   15ac0:	0f b6 c0             	movzbl %al,%eax
   15ac3:	89 d6                	mov    %edx,%esi
   15ac5:	89 c7                	mov    %eax,%edi
   15ac7:	e8 0f 71 ff ff       	callq  cbdb <safe_div_func_uint8_t_u_u>
   15acc:	0f b6 c0             	movzbl %al,%eax
   15acf:	21 85 ec e1 ff ff    	and    %eax,-0x1e14(%rbp)
   15ad5:	8b 05 ed f7 00 00    	mov    0xf7ed(%rip),%eax        # 252c8 <g_841>
   15adb:	0f b7 c0             	movzwl %ax,%eax
   15ade:	be 02 00 00 00       	mov    $0x2,%esi
   15ae3:	89 c7                	mov    %eax,%edi
   15ae5:	e8 35 72 ff ff       	callq  cd1f <safe_sub_func_uint16_t_u_u>
   15aea:	0f b7 c0             	movzwl %ax,%eax
   15aed:	89 05 d5 f7 00 00    	mov    %eax,0xf7d5(%rip)        # 252c8 <g_841>
   15af3:	8b 05 cf f7 00 00    	mov    0xf7cf(%rip),%eax        # 252c8 <g_841>
   15af9:	83 f8 fd             	cmp    $0xfffffffd,%eax
   15afc:	0f 8d ce fa ff ff    	jge    155d0 <func_32+0x4bf8>
   15b02:	eb 01                	jmp    15b05 <func_32+0x512d>
   15b04:	90                   	nop
   15b05:	80 ad 63 e1 ff ff 01 	subb   $0x1,-0x1e9d(%rbp)
   15b0c:	eb 01                	jmp    15b0f <func_32+0x5137>
   15b0e:	90                   	nop
   15b0f:	8b 05 a7 f7 00 00    	mov    0xf7a7(%rip),%eax        # 252bc <g_778>
   15b15:	83 c0 01             	add    $0x1,%eax
   15b18:	89 05 9e f7 00 00    	mov    %eax,0xf79e(%rip)        # 252bc <g_778>
   15b1e:	8b 05 98 f7 00 00    	mov    0xf798(%rip),%eax        # 252bc <g_778>
   15b24:	83 f8 01             	cmp    $0x1,%eax
   15b27:	0f 86 48 db ff ff    	jbe    13675 <func_32+0x2c9d>
   15b2d:	eb 01                	jmp    15b30 <func_32+0x5158>
   15b2f:	90                   	nop
   15b30:	48 8b 85 48 e1 ff ff 	mov    -0x1eb8(%rbp),%rax
   15b37:	48 8b 5d c8          	mov    -0x38(%rbp),%rbx
   15b3b:	64 48 33 1c 25 28 00 	xor    %fs:0x28,%rbx
   15b42:	00 00 
   15b44:	74 05                	je     15b4b <func_32+0x5173>
   15b46:	e8 25 65 ff ff       	callq  c070 <__stack_chk_fail@plt>
   15b4b:	48 81 c4 a8 1e 00 00 	add    $0x1ea8,%rsp
   15b52:	5b                   	pop    %rbx
   15b53:	41 5c                	pop    %r12
   15b55:	41 5d                	pop    %r13
   15b57:	41 5e                	pop    %r14
   15b59:	41 5f                	pop    %r15
   15b5b:	5d                   	pop    %rbp
   15b5c:	c3                   	retq   

0000000000015b5d <func_36>:
   15b5d:	f3 0f 1e fa          	endbr64 
   15b61:	55                   	push   %rbp
   15b62:	48 89 e5             	mov    %rsp,%rbp
   15b65:	41 55                	push   %r13
   15b67:	41 54                	push   %r12
   15b69:	53                   	push   %rbx
   15b6a:	48 81 ec e8 0a 00 00 	sub    $0xae8,%rsp
   15b71:	89 bd 0c f5 ff ff    	mov    %edi,-0xaf4(%rbp)
   15b77:	89 c8                	mov    %ecx,%eax
   15b79:	89 f1                	mov    %esi,%ecx
   15b7b:	88 8d 08 f5 ff ff    	mov    %cl,-0xaf8(%rbp)
   15b81:	88 95 04 f5 ff ff    	mov    %dl,-0xafc(%rbp)
   15b87:	66 89 85 00 f5 ff ff 	mov    %ax,-0xb00(%rbp)
   15b8e:	64 48 8b 04 25 28 00 	mov    %fs:0x28,%rax
   15b95:	00 00 
   15b97:	48 89 45 d8          	mov    %rax,-0x28(%rbp)
   15b9b:	31 c0                	xor    %eax,%eax
   15b9d:	48 8d 05 14 f6 00 00 	lea    0xf614(%rip),%rax        # 251b8 <g_217>
   15ba4:	48 89 85 28 f5 ff ff 	mov    %rax,-0xad8(%rbp)
   15bab:	48 8d 05 02 f6 00 00 	lea    0xf602(%rip),%rax        # 251b4 <g_213>
   15bb2:	48 89 85 48 f5 ff ff 	mov    %rax,-0xab8(%rbp)
   15bb9:	48 8d 05 f0 f5 00 00 	lea    0xf5f0(%rip),%rax        # 251b0 <g_200>
   15bc0:	48 89 85 30 f5 ff ff 	mov    %rax,-0xad0(%rbp)
   15bc7:	48 8d 85 30 f5 ff ff 	lea    -0xad0(%rbp),%rax
   15bce:	48 89 85 50 f5 ff ff 	mov    %rax,-0xab0(%rbp)
   15bd5:	48 8d 85 f0 f5 ff ff 	lea    -0xa10(%rbp),%rax
   15bdc:	48 8d 15 1d b4 00 00 	lea    0xb41d(%rip),%rdx        # 21000 <g_1983+0xf98>
   15be3:	b9 2d 00 00 00       	mov    $0x2d,%ecx
   15be8:	48 89 c7             	mov    %rax,%rdi
   15beb:	48 89 d6             	mov    %rdx,%rsi
   15bee:	f3 48 a5             	rep movsq %ds:(%rsi),%es:(%rdi)
   15bf1:	48 c7 85 60 f7 ff ff 	movq   $0x0,-0x8a0(%rbp)
   15bf8:	00 00 00 00 
   15bfc:	48 c7 85 68 f7 ff ff 	movq   $0x0,-0x898(%rbp)
   15c03:	00 00 00 00 
   15c07:	48 8d 85 a0 f5 ff ff 	lea    -0xa60(%rbp),%rax
   15c0e:	48 83 c0 10          	add    $0x10,%rax
   15c12:	48 89 85 70 f7 ff ff 	mov    %rax,-0x890(%rbp)
   15c19:	48 8d 85 a0 f5 ff ff 	lea    -0xa60(%rbp),%rax
   15c20:	48 83 c0 18          	add    $0x18,%rax
   15c24:	48 89 85 78 f7 ff ff 	mov    %rax,-0x888(%rbp)
   15c2b:	48 8d 85 a0 f5 ff ff 	lea    -0xa60(%rbp),%rax
   15c32:	48 83 c0 10          	add    $0x10,%rax
   15c36:	48 89 85 80 f7 ff ff 	mov    %rax,-0x880(%rbp)
   15c3d:	48 c7 85 88 f7 ff ff 	movq   $0x0,-0x878(%rbp)
   15c44:	00 00 00 00 
   15c48:	48 8d 85 a0 f5 ff ff 	lea    -0xa60(%rbp),%rax
   15c4f:	48 83 c0 10          	add    $0x10,%rax
   15c53:	48 89 85 90 f7 ff ff 	mov    %rax,-0x870(%rbp)
   15c5a:	48 8d 85 a0 f5 ff ff 	lea    -0xa60(%rbp),%rax
   15c61:	48 83 c0 10          	add    $0x10,%rax
   15c65:	48 89 85 98 f7 ff ff 	mov    %rax,-0x868(%rbp)
   15c6c:	48 8d 85 a0 f5 ff ff 	lea    -0xa60(%rbp),%rax
   15c73:	48 83 c0 18          	add    $0x18,%rax
   15c77:	48 89 85 a0 f7 ff ff 	mov    %rax,-0x860(%rbp)
   15c7e:	48 8d 85 a0 f5 ff ff 	lea    -0xa60(%rbp),%rax
   15c85:	48 83 c0 18          	add    $0x18,%rax
   15c89:	48 89 85 a8 f7 ff ff 	mov    %rax,-0x858(%rbp)
   15c90:	48 8d 85 a0 f5 ff ff 	lea    -0xa60(%rbp),%rax
   15c97:	48 83 c0 10          	add    $0x10,%rax
   15c9b:	48 89 85 b0 f7 ff ff 	mov    %rax,-0x850(%rbp)
   15ca2:	48 8d 85 a0 f5 ff ff 	lea    -0xa60(%rbp),%rax
   15ca9:	48 83 c0 10          	add    $0x10,%rax
   15cad:	48 89 85 b8 f7 ff ff 	mov    %rax,-0x848(%rbp)
   15cb4:	48 c7 85 c0 f7 ff ff 	movq   $0x0,-0x840(%rbp)
   15cbb:	00 00 00 00 
   15cbf:	48 8d 85 a0 f5 ff ff 	lea    -0xa60(%rbp),%rax
   15cc6:	48 83 c0 10          	add    $0x10,%rax
   15cca:	48 89 85 c8 f7 ff ff 	mov    %rax,-0x838(%rbp)
   15cd1:	48 8d 85 a0 f5 ff ff 	lea    -0xa60(%rbp),%rax
   15cd8:	48 83 c0 18          	add    $0x18,%rax
   15cdc:	48 89 85 d0 f7 ff ff 	mov    %rax,-0x830(%rbp)
   15ce3:	48 8d 85 a0 f5 ff ff 	lea    -0xa60(%rbp),%rax
   15cea:	48 83 c0 10          	add    $0x10,%rax
   15cee:	48 89 85 d8 f7 ff ff 	mov    %rax,-0x828(%rbp)
   15cf5:	48 c7 85 e0 f7 ff ff 	movq   $0x0,-0x820(%rbp)
   15cfc:	00 00 00 00 
   15d00:	48 c7 85 e8 f7 ff ff 	movq   $0x0,-0x818(%rbp)
   15d07:	00 00 00 00 
   15d0b:	48 8d 85 a0 f5 ff ff 	lea    -0xa60(%rbp),%rax
   15d12:	48 83 c0 38          	add    $0x38,%rax
   15d16:	48 89 85 f0 f7 ff ff 	mov    %rax,-0x810(%rbp)
   15d1d:	48 8d 85 a0 f5 ff ff 	lea    -0xa60(%rbp),%rax
   15d24:	48 83 c0 10          	add    $0x10,%rax
   15d28:	48 89 85 f8 f7 ff ff 	mov    %rax,-0x808(%rbp)
   15d2f:	48 8d 85 a0 f5 ff ff 	lea    -0xa60(%rbp),%rax
   15d36:	48 83 c0 10          	add    $0x10,%rax
   15d3a:	48 89 85 00 f8 ff ff 	mov    %rax,-0x800(%rbp)
   15d41:	48 8d 85 a0 f5 ff ff 	lea    -0xa60(%rbp),%rax
   15d48:	48 83 c0 38          	add    $0x38,%rax
   15d4c:	48 89 85 08 f8 ff ff 	mov    %rax,-0x7f8(%rbp)
   15d53:	48 8d 85 a0 f5 ff ff 	lea    -0xa60(%rbp),%rax
   15d5a:	48 83 c0 10          	add    $0x10,%rax
   15d5e:	48 89 85 10 f8 ff ff 	mov    %rax,-0x7f0(%rbp)
   15d65:	48 8d 85 a0 f5 ff ff 	lea    -0xa60(%rbp),%rax
   15d6c:	48 83 c0 38          	add    $0x38,%rax
   15d70:	48 89 85 18 f8 ff ff 	mov    %rax,-0x7e8(%rbp)
   15d77:	48 8d 85 a0 f5 ff ff 	lea    -0xa60(%rbp),%rax
   15d7e:	48 83 c0 38          	add    $0x38,%rax
   15d82:	48 89 85 20 f8 ff ff 	mov    %rax,-0x7e0(%rbp)
   15d89:	48 8d 85 a0 f5 ff ff 	lea    -0xa60(%rbp),%rax
   15d90:	48 83 c0 10          	add    $0x10,%rax
   15d94:	48 89 85 28 f8 ff ff 	mov    %rax,-0x7d8(%rbp)
   15d9b:	48 8d 85 a0 f5 ff ff 	lea    -0xa60(%rbp),%rax
   15da2:	48 83 c0 38          	add    $0x38,%rax
   15da6:	48 89 85 30 f8 ff ff 	mov    %rax,-0x7d0(%rbp)
   15dad:	48 8d 85 a0 f5 ff ff 	lea    -0xa60(%rbp),%rax
   15db4:	48 83 c0 38          	add    $0x38,%rax
   15db8:	48 89 85 38 f8 ff ff 	mov    %rax,-0x7c8(%rbp)
   15dbf:	48 8d 85 a0 f5 ff ff 	lea    -0xa60(%rbp),%rax
   15dc6:	48 83 c0 38          	add    $0x38,%rax
   15dca:	48 89 85 40 f8 ff ff 	mov    %rax,-0x7c0(%rbp)
   15dd1:	48 8d 85 a0 f5 ff ff 	lea    -0xa60(%rbp),%rax
   15dd8:	48 83 c0 18          	add    $0x18,%rax
   15ddc:	48 89 85 48 f8 ff ff 	mov    %rax,-0x7b8(%rbp)
   15de3:	48 8d 85 a0 f5 ff ff 	lea    -0xa60(%rbp),%rax
   15dea:	48 83 c0 10          	add    $0x10,%rax
   15dee:	48 89 85 50 f8 ff ff 	mov    %rax,-0x7b0(%rbp)
   15df5:	48 8d 85 a0 f5 ff ff 	lea    -0xa60(%rbp),%rax
   15dfc:	48 83 c0 10          	add    $0x10,%rax
   15e00:	48 89 85 58 f8 ff ff 	mov    %rax,-0x7a8(%rbp)
   15e07:	48 8d 85 a0 f5 ff ff 	lea    -0xa60(%rbp),%rax
   15e0e:	48 83 c0 38          	add    $0x38,%rax
   15e12:	48 89 85 60 f8 ff ff 	mov    %rax,-0x7a0(%rbp)
   15e19:	48 8d 85 a0 f5 ff ff 	lea    -0xa60(%rbp),%rax
   15e20:	48 83 c0 10          	add    $0x10,%rax
   15e24:	48 89 85 68 f8 ff ff 	mov    %rax,-0x798(%rbp)
   15e2b:	48 8d 85 a0 f5 ff ff 	lea    -0xa60(%rbp),%rax
   15e32:	48 83 c0 38          	add    $0x38,%rax
   15e36:	48 89 85 70 f8 ff ff 	mov    %rax,-0x790(%rbp)
   15e3d:	48 8d 85 a0 f5 ff ff 	lea    -0xa60(%rbp),%rax
   15e44:	48 83 c0 10          	add    $0x10,%rax
   15e48:	48 89 85 78 f8 ff ff 	mov    %rax,-0x788(%rbp)
   15e4f:	48 8d 85 a0 f5 ff ff 	lea    -0xa60(%rbp),%rax
   15e56:	48 83 c0 38          	add    $0x38,%rax
   15e5a:	48 89 85 80 f8 ff ff 	mov    %rax,-0x780(%rbp)
   15e61:	48 c7 85 88 f8 ff ff 	movq   $0x0,-0x778(%rbp)
   15e68:	00 00 00 00 
   15e6c:	48 8d 85 a0 f5 ff ff 	lea    -0xa60(%rbp),%rax
   15e73:	48 83 c0 10          	add    $0x10,%rax
   15e77:	48 89 85 90 f8 ff ff 	mov    %rax,-0x770(%rbp)
   15e7e:	48 8d 85 a0 f5 ff ff 	lea    -0xa60(%rbp),%rax
   15e85:	48 83 c0 10          	add    $0x10,%rax
   15e89:	48 89 85 98 f8 ff ff 	mov    %rax,-0x768(%rbp)
   15e90:	48 c7 85 a0 f8 ff ff 	movq   $0x0,-0x760(%rbp)
   15e97:	00 00 00 00 
   15e9b:	48 8d 85 a0 f5 ff ff 	lea    -0xa60(%rbp),%rax
   15ea2:	48 83 c0 38          	add    $0x38,%rax
   15ea6:	48 89 85 a8 f8 ff ff 	mov    %rax,-0x758(%rbp)
   15ead:	48 8d 85 a0 f5 ff ff 	lea    -0xa60(%rbp),%rax
   15eb4:	48 83 c0 10          	add    $0x10,%rax
   15eb8:	48 89 85 b0 f8 ff ff 	mov    %rax,-0x750(%rbp)
   15ebf:	48 8d 85 a0 f5 ff ff 	lea    -0xa60(%rbp),%rax
   15ec6:	48 83 c0 38          	add    $0x38,%rax
   15eca:	48 89 85 b8 f8 ff ff 	mov    %rax,-0x748(%rbp)
   15ed1:	48 8d 85 a0 f5 ff ff 	lea    -0xa60(%rbp),%rax
   15ed8:	48 83 c0 10          	add    $0x10,%rax
   15edc:	48 89 85 c0 f8 ff ff 	mov    %rax,-0x740(%rbp)
   15ee3:	48 8d 85 a0 f5 ff ff 	lea    -0xa60(%rbp),%rax
   15eea:	48 83 c0 38          	add    $0x38,%rax
   15eee:	48 89 85 c8 f8 ff ff 	mov    %rax,-0x738(%rbp)
   15ef5:	48 8d 85 a0 f5 ff ff 	lea    -0xa60(%rbp),%rax
   15efc:	48 83 c0 10          	add    $0x10,%rax
   15f00:	48 89 85 d0 f8 ff ff 	mov    %rax,-0x730(%rbp)
   15f07:	48 8d 85 a0 f5 ff ff 	lea    -0xa60(%rbp),%rax
   15f0e:	48 83 c0 10          	add    $0x10,%rax
   15f12:	48 89 85 d8 f8 ff ff 	mov    %rax,-0x728(%rbp)
   15f19:	48 8d 85 a0 f5 ff ff 	lea    -0xa60(%rbp),%rax
   15f20:	48 83 c0 18          	add    $0x18,%rax
   15f24:	48 89 85 e0 f8 ff ff 	mov    %rax,-0x720(%rbp)
   15f2b:	48 8d 85 a0 f5 ff ff 	lea    -0xa60(%rbp),%rax
   15f32:	48 83 c0 38          	add    $0x38,%rax
   15f36:	48 89 85 e8 f8 ff ff 	mov    %rax,-0x718(%rbp)
   15f3d:	48 8d 85 a0 f5 ff ff 	lea    -0xa60(%rbp),%rax
   15f44:	48 83 c0 38          	add    $0x38,%rax
   15f48:	48 89 85 f0 f8 ff ff 	mov    %rax,-0x710(%rbp)
   15f4f:	48 8d 85 a0 f5 ff ff 	lea    -0xa60(%rbp),%rax
   15f56:	48 83 c0 18          	add    $0x18,%rax
   15f5a:	48 89 85 f8 f8 ff ff 	mov    %rax,-0x708(%rbp)
   15f61:	48 c7 85 00 f9 ff ff 	movq   $0x0,-0x700(%rbp)
   15f68:	00 00 00 00 
   15f6c:	48 8d 85 a0 f5 ff ff 	lea    -0xa60(%rbp),%rax
   15f73:	48 83 c0 18          	add    $0x18,%rax
   15f77:	48 89 85 08 f9 ff ff 	mov    %rax,-0x6f8(%rbp)
   15f7e:	48 c7 85 58 f5 ff ff 	movq   $0x0,-0xaa8(%rbp)
   15f85:	00 00 00 00 
   15f89:	48 8d 85 a0 f5 ff ff 	lea    -0xa60(%rbp),%rax
   15f90:	48 83 c0 10          	add    $0x10,%rax
   15f94:	48 89 85 38 f5 ff ff 	mov    %rax,-0xac8(%rbp)
   15f9b:	48 8d 85 38 f5 ff ff 	lea    -0xac8(%rbp),%rax
   15fa2:	48 89 85 60 f5 ff ff 	mov    %rax,-0xaa0(%rbp)
   15fa9:	c7 85 20 f5 ff ff 00 	movl   $0x0,-0xae0(%rbp)
   15fb0:	00 00 00 
   15fb3:	eb 52                	jmp    16007 <func_36+0x4aa>
   15fb5:	c7 85 24 f5 ff ff 00 	movl   $0x0,-0xadc(%rbp)
   15fbc:	00 00 00 
   15fbf:	eb 36                	jmp    15ff7 <func_36+0x49a>
   15fc1:	8b 85 24 f5 ff ff    	mov    -0xadc(%rbp),%eax
   15fc7:	48 63 c8             	movslq %eax,%rcx
   15fca:	8b 85 20 f5 ff ff    	mov    -0xae0(%rbp),%eax
   15fd0:	48 63 d0             	movslq %eax,%rdx
   15fd3:	48 89 d0             	mov    %rdx,%rax
   15fd6:	48 c1 e0 02          	shl    $0x2,%rax
   15fda:	48 01 d0             	add    %rdx,%rax
   15fdd:	48 8d 14 08          	lea    (%rax,%rcx,1),%rdx
   15fe1:	48 8d 85 28 f5 ff ff 	lea    -0xad8(%rbp),%rax
   15fe8:	48 89 84 d5 a0 f5 ff 	mov    %rax,-0xa60(%rbp,%rdx,8)
   15fef:	ff 
   15ff0:	83 85 24 f5 ff ff 01 	addl   $0x1,-0xadc(%rbp)
   15ff7:	83 bd 24 f5 ff ff 04 	cmpl   $0x4,-0xadc(%rbp)
   15ffe:	7e c1                	jle    15fc1 <func_36+0x464>
   16000:	83 85 20 f5 ff ff 01 	addl   $0x1,-0xae0(%rbp)
   16007:	83 bd 20 f5 ff ff 01 	cmpl   $0x1,-0xae0(%rbp)
   1600e:	7e a5                	jle    15fb5 <func_36+0x458>
   16010:	c7 05 ae f1 00 00 00 	movl   $0x0,0xf1ae(%rip)        # 251c8 <g_359>
   16017:	00 00 00 
   1601a:	e9 43 02 00 00       	jmpq   16262 <func_36+0x705>
   1601f:	48 8d 85 10 f9 ff ff 	lea    -0x6f0(%rbp),%rax
   16026:	48 8d 15 d3 02 01 00 	lea    0x102d3(%rip),%rdx        # 26300 <g_2684+0xe28>
   1602d:	b9 d8 00 00 00       	mov    $0xd8,%ecx
   16032:	48 89 c7             	mov    %rax,%rdi
   16035:	48 89 d6             	mov    %rdx,%rsi
   16038:	f3 48 a5             	rep movsq %ds:(%rsi),%es:(%rdi)
   1603b:	c7 85 1c f5 ff ff 01 	movl   $0x1,-0xae4(%rbp)
   16042:	00 00 00 
   16045:	66 83 bd 00 f5 ff ff 	cmpw   $0x0,-0xb00(%rbp)
   1604c:	00 
   1604d:	0f 85 1f 02 00 00    	jne    16272 <func_36+0x715>
   16053:	c6 85 08 f5 ff ff 00 	movb   $0x0,-0xaf8(%rbp)
   1605a:	e9 d0 01 00 00       	jmpq   1622f <func_36+0x6d2>
   1605f:	48 c7 85 68 f5 ff ff 	movq   $0x0,-0xa98(%rbp)
   16066:	00 00 00 00 
   1606a:	48 c7 85 40 f5 ff ff 	movq   $0x0,-0xac0(%rbp)
   16071:	00 00 00 00 
   16075:	48 8d 05 47 f1 00 00 	lea    0xf147(%rip),%rax        # 251c3 <g_323>
   1607c:	48 89 85 70 f5 ff ff 	mov    %rax,-0xa90(%rbp)
   16083:	48 8d 05 2a f2 00 00 	lea    0xf22a(%rip),%rax        # 252b4 <g_641>
   1608a:	48 89 85 78 f5 ff ff 	mov    %rax,-0xa88(%rbp)
   16091:	48 8d 85 40 f5 ff ff 	lea    -0xac0(%rbp),%rax
   16098:	48 89 85 80 f5 ff ff 	mov    %rax,-0xa80(%rbp)
   1609f:	48 8d 85 10 f9 ff ff 	lea    -0x6f0(%rbp),%rax
   160a6:	48 05 b8 04 00 00    	add    $0x4b8,%rax
   160ac:	48 89 85 88 f5 ff ff 	mov    %rax,-0xa78(%rbp)
   160b3:	48 8d 05 1e 22 01 00 	lea    0x1221e(%rip),%rax        # 282d8 <g_819>
   160ba:	48 89 85 90 f5 ff ff 	mov    %rax,-0xa70(%rbp)
   160c1:	48 8d 05 f0 f0 00 00 	lea    0xf0f0(%rip),%rax        # 251b8 <g_217>
   160c8:	48 89 85 98 f5 ff ff 	mov    %rax,-0xa68(%rbp)
   160cf:	0f b7 9d 00 f5 ff ff 	movzwl -0xb00(%rbp),%ebx
   160d6:	0f be 95 08 f5 ff ff 	movsbl -0xaf8(%rbp),%edx
   160dd:	48 8b 85 78 f5 ff ff 	mov    -0xa88(%rbp),%rax
   160e4:	89 10                	mov    %edx,(%rax)
   160e6:	48 8b 85 78 f5 ff ff 	mov    -0xa88(%rbp),%rax
   160ed:	8b 00                	mov    (%rax),%eax
   160ef:	89 c6                	mov    %eax,%esi
   160f1:	48 8b 85 80 f5 ff ff 	mov    -0xa80(%rbp),%rax
   160f8:	48 8d 15 91 f0 00 00 	lea    0xf091(%rip),%rdx        # 25190 <g_161>
   160ff:	48 89 10             	mov    %rdx,(%rax)
   16102:	48 8b 85 80 f5 ff ff 	mov    -0xa80(%rbp),%rax
   16109:	48 8b 08             	mov    (%rax),%rcx
   1610c:	48 8b 95 c8 fd ff ff 	mov    -0x238(%rbp),%rdx
   16113:	48 8b 85 88 f5 ff ff 	mov    -0xa78(%rbp),%rax
   1611a:	48 89 10             	mov    %rdx,(%rax)
   1611d:	48 8b 85 88 f5 ff ff 	mov    -0xa78(%rbp),%rax
   16124:	48 8b 00             	mov    (%rax),%rax
   16127:	48 39 c1             	cmp    %rax,%rcx
   1612a:	75 07                	jne    16133 <func_36+0x5d6>
   1612c:	b8 01 00 00 00       	mov    $0x1,%eax
   16131:	eb 05                	jmp    16138 <func_36+0x5db>
   16133:	b8 00 00 00 00       	mov    $0x0,%eax
   16138:	09 f0                	or     %esi,%eax
   1613a:	0f be c0             	movsbl %al,%eax
   1613d:	be 06 00 00 00       	mov    $0x6,%esi
   16142:	89 c7                	mov    %eax,%edi
   16144:	e8 23 62 ff ff       	callq  c36c <safe_rshift_func_int8_t_s_u>
   16149:	66 98                	cbtw   
   1614b:	0f b7 c0             	movzwl %ax,%eax
   1614e:	89 de                	mov    %ebx,%esi
   16150:	89 c7                	mov    %eax,%edi
   16152:	e8 af 6c ff ff       	callq  ce06 <safe_lshift_func_uint16_t_u_u>
   16157:	0f b7 d0             	movzwl %ax,%edx
   1615a:	48 8b 05 9f 1f 01 00 	mov    0x11f9f(%rip),%rax        # 28100 <g_124>
   16161:	48 8b 00             	mov    (%rax),%rax
   16164:	48 09 c2             	or     %rax,%rdx
   16167:	48 0f be 85 04 f5 ff 	movsbq -0xafc(%rbp),%rax
   1616e:	ff 
   1616f:	48 39 c2             	cmp    %rax,%rdx
   16172:	0f 95 c0             	setne  %al
   16175:	0f b6 d0             	movzbl %al,%edx
   16178:	48 8b 85 70 f5 ff ff 	mov    -0xa90(%rbp),%rax
   1617f:	0f b6 00             	movzbl (%rax),%eax
   16182:	8d 70 01             	lea    0x1(%rax),%esi
   16185:	48 8b 8d 70 f5 ff ff 	mov    -0xa90(%rbp),%rcx
   1618c:	40 88 31             	mov    %sil,(%rcx)
   1618f:	0f b6 c0             	movzbl %al,%eax
   16192:	89 d6                	mov    %edx,%esi
   16194:	89 c7                	mov    %eax,%edi
   16196:	e8 bf 69 ff ff       	callq  cb5a <safe_add_func_uint8_t_u_u>
   1619b:	0f b6 c0             	movzbl %al,%eax
   1619e:	be 00 00 00 00       	mov    $0x0,%esi
   161a3:	89 c7                	mov    %eax,%edi
   161a5:	e8 ce 69 ff ff       	callq  cb78 <safe_sub_func_uint8_t_u_u>
   161aa:	0f b7 85 00 f5 ff ff 	movzwl -0xb00(%rbp),%eax
   161b1:	83 e0 01             	and    $0x1,%eax
   161b4:	89 c1                	mov    %eax,%ecx
   161b6:	48 8b 05 4b 1f 01 00 	mov    0x11f4b(%rip),%rax        # 28108 <g_311>
   161bd:	0f b6 10             	movzbl (%rax),%edx
   161c0:	48 8b 05 41 1f 01 00 	mov    0x11f41(%rip),%rax        # 28108 <g_311>
   161c7:	09 ca                	or     %ecx,%edx
   161c9:	88 10                	mov    %dl,(%rax)
   161cb:	0f b6 10             	movzbl (%rax),%edx
   161ce:	0f b6 05 6b f0 00 00 	movzbl 0xf06b(%rip),%eax        # 25240 <g_640+0x60>
   161d5:	38 c2                	cmp    %al,%dl
   161d7:	0f 9f c0             	setg   %al
   161da:	0f b6 d0             	movzbl %al,%edx
   161dd:	48 8b 85 98 f5 ff ff 	mov    -0xa68(%rbp),%rax
   161e4:	89 10                	mov    %edx,(%rax)
   161e6:	48 c7 05 b7 37 01 00 	movq   $0x0,0x137b7(%rip)        # 299a8 <g_57>
   161ed:	00 00 00 00 
   161f1:	eb 20                	jmp    16213 <func_36+0x6b6>
   161f3:	48 8d 85 1c f5 ff ff 	lea    -0xae4(%rbp),%rax
   161fa:	48 89 05 b7 37 01 00 	mov    %rax,0x137b7(%rip)        # 299b8 <g_340>
   16201:	48 8b 05 a0 37 01 00 	mov    0x137a0(%rip),%rax        # 299a8 <g_57>
   16208:	48 83 e8 01          	sub    $0x1,%rax
   1620c:	48 89 05 95 37 01 00 	mov    %rax,0x13795(%rip)        # 299a8 <g_57>
   16213:	48 8b 05 8e 37 01 00 	mov    0x1378e(%rip),%rax        # 299a8 <g_57>
   1621a:	48 85 c0             	test   %rax,%rax
   1621d:	79 d4                	jns    161f3 <func_36+0x696>
   1621f:	0f b6 85 08 f5 ff ff 	movzbl -0xaf8(%rbp),%eax
   16226:	83 c0 01             	add    $0x1,%eax
   16229:	88 85 08 f5 ff ff    	mov    %al,-0xaf8(%rbp)
   1622f:	80 bd 08 f5 ff ff 00 	cmpb   $0x0,-0xaf8(%rbp)
   16236:	0f 8e 23 fe ff ff    	jle    1605f <func_36+0x502>
   1623c:	48 8b 85 28 f5 ff ff 	mov    -0xad8(%rbp),%rax
   16243:	48 89 85 28 f5 ff ff 	mov    %rax,-0xad8(%rbp)
   1624a:	80 bd 04 f5 ff ff 00 	cmpb   $0x0,-0xafc(%rbp)
   16251:	75 22                	jne    16275 <func_36+0x718>
   16253:	8b 05 6f ef 00 00    	mov    0xef6f(%rip),%eax        # 251c8 <g_359>
   16259:	83 e8 01             	sub    $0x1,%eax
   1625c:	89 05 66 ef 00 00    	mov    %eax,0xef66(%rip)        # 251c8 <g_359>
   16262:	8b 05 60 ef 00 00    	mov    0xef60(%rip),%eax        # 251c8 <g_359>
   16268:	85 c0                	test   %eax,%eax
   1626a:	0f 89 af fd ff ff    	jns    1601f <func_36+0x4c2>
   16270:	eb 04                	jmp    16276 <func_36+0x719>
   16272:	90                   	nop
   16273:	eb 01                	jmp    16276 <func_36+0x719>
   16275:	90                   	nop
   16276:	48 8b 85 28 f5 ff ff 	mov    -0xad8(%rbp),%rax
   1627d:	8b 10                	mov    (%rax),%edx
   1627f:	48 8b 85 28 f5 ff ff 	mov    -0xad8(%rbp),%rax
   16286:	83 f2 03             	xor    $0x3,%edx
   16289:	89 10                	mov    %edx,(%rax)
   1628b:	80 bd 04 f5 ff ff 00 	cmpb   $0x0,-0xafc(%rbp)
   16292:	75 0d                	jne    162a1 <func_36+0x744>
   16294:	48 8b 85 28 f5 ff ff 	mov    -0xad8(%rbp),%rax
   1629b:	8b 00                	mov    (%rax),%eax
   1629d:	85 c0                	test   %eax,%eax
   1629f:	74 07                	je     162a8 <func_36+0x74b>
   162a1:	b8 01 00 00 00       	mov    $0x1,%eax
   162a6:	eb 05                	jmp    162ad <func_36+0x750>
   162a8:	b8 00 00 00 00       	mov    $0x0,%eax
   162ad:	48 63 d8             	movslq %eax,%rbx
   162b0:	bf 01 00 00 00       	mov    $0x1,%edi
   162b5:	e8 5c 65 ff ff       	callq  c816 <safe_unary_minus_func_int64_t_s>
   162ba:	48 31 d8             	xor    %rbx,%rax
   162bd:	49 89 c5             	mov    %rax,%r13
   162c0:	0f b6 05 d9 ee 00 00 	movzbl 0xeed9(%rip),%eax        # 251a0 <g_177>
   162c7:	0f b6 d8             	movzbl %al,%ebx
   162ca:	44 0f b7 a5 00 f5 ff 	movzwl -0xb00(%rbp),%r12d
   162d1:	ff 
   162d2:	48 83 bd 50 f5 ff ff 	cmpq   $0x0,-0xab0(%rbp)
   162d9:	00 
   162da:	0f 95 c0             	setne  %al
   162dd:	0f b6 d0             	movzbl %al,%edx
   162e0:	8b 05 d6 ee 00 00    	mov    0xeed6(%rip),%eax        # 251bc <g_248>
   162e6:	39 c2                	cmp    %eax,%edx
   162e8:	0f 96 c0             	setbe  %al
   162eb:	0f b6 c0             	movzbl %al,%eax
   162ee:	be 0c 00 00 00       	mov    $0xc,%esi
   162f3:	89 c7                	mov    %eax,%edi
   162f5:	e8 4e 6b ff ff       	callq  ce48 <safe_rshift_func_uint16_t_u_s>
   162fa:	0f b7 c0             	movzwl %ax,%eax
   162fd:	44 89 e6             	mov    %r12d,%esi
   16300:	89 c7                	mov    %eax,%edi
   16302:	e8 f8 69 ff ff       	callq  ccff <safe_add_func_uint16_t_u_u>
   16307:	0f b7 c0             	movzwl %ax,%eax
   1630a:	33 85 0c f5 ff ff    	xor    -0xaf4(%rbp),%eax
   16310:	be 00 00 00 00       	mov    $0x0,%esi
   16315:	89 c7                	mov    %eax,%edi
   16317:	e8 e9 62 ff ff       	callq  c605 <safe_sub_func_int32_t_s_s>
   1631c:	3d fb 22 e6 71       	cmp    $0x71e622fb,%eax
   16321:	0f 9e c0             	setle  %al
   16324:	0f b6 c0             	movzbl %al,%eax
   16327:	89 de                	mov    %ebx,%esi
   16329:	89 c7                	mov    %eax,%edi
   1632b:	e8 cd 6b ff ff       	callq  cefd <safe_mod_func_uint32_t_u_u>
   16330:	89 c1                	mov    %eax,%ecx
   16332:	0f b7 95 00 f5 ff ff 	movzwl -0xb00(%rbp),%edx
   16339:	48 8b 85 48 f5 ff ff 	mov    -0xab8(%rbp),%rax
   16340:	89 10                	mov    %edx,(%rax)
   16342:	48 8b 85 28 f5 ff ff 	mov    -0xad8(%rbp),%rax
   16349:	8b 00                	mov    (%rax),%eax
   1634b:	48 98                	cltq   
   1634d:	48 89 ce             	mov    %rcx,%rsi
   16350:	48 89 c7             	mov    %rax,%rdi
   16353:	e8 57 6d ff ff       	callq  d0af <safe_div_func_uint64_t_u_u>
   16358:	49 39 c5             	cmp    %rax,%r13
   1635b:	0f 95 c0             	setne  %al
   1635e:	0f b6 c0             	movzbl %al,%eax
   16361:	48 89 85 28 f6 ff ff 	mov    %rax,-0x9d8(%rbp)
   16368:	48 8b 95 c0 f8 ff ff 	mov    -0x740(%rbp),%rdx
   1636f:	48 8b 85 60 f5 ff ff 	mov    -0xaa0(%rbp),%rax
   16376:	48 89 10             	mov    %rdx,(%rax)
   16379:	48 8b 05 88 1d 01 00 	mov    0x11d88(%rip),%rax        # 28108 <g_311>
   16380:	0f b6 00             	movzbl (%rax),%eax
   16383:	48 8b 5d d8          	mov    -0x28(%rbp),%rbx
   16387:	64 48 33 1c 25 28 00 	xor    %fs:0x28,%rbx
   1638e:	00 00 
   16390:	74 05                	je     16397 <func_36+0x83a>
   16392:	e8 d9 5c ff ff       	callq  c070 <__stack_chk_fail@plt>
   16397:	48 81 c4 e8 0a 00 00 	add    $0xae8,%rsp
   1639e:	5b                   	pop    %rbx
   1639f:	41 5c                	pop    %r12
   163a1:	41 5d                	pop    %r13
   163a3:	5d                   	pop    %rbp
   163a4:	c3                   	retq   

00000000000163a5 <func_42>:
   163a5:	f3 0f 1e fa          	endbr64 
   163a9:	55                   	push   %rbp
   163aa:	48 89 e5             	mov    %rsp,%rbp
   163ad:	48 81 ec 10 03 00 00 	sub    $0x310,%rsp
   163b4:	89 bd 0c fd ff ff    	mov    %edi,-0x2f4(%rbp)
   163ba:	48 89 b5 00 fd ff ff 	mov    %rsi,-0x300(%rbp)
   163c1:	89 95 08 fd ff ff    	mov    %edx,-0x2f8(%rbp)
   163c7:	89 ca                	mov    %ecx,%edx
   163c9:	44 89 c0             	mov    %r8d,%eax
   163cc:	88 95 fc fc ff ff    	mov    %dl,-0x304(%rbp)
   163d2:	66 89 85 f8 fc ff ff 	mov    %ax,-0x308(%rbp)
   163d9:	64 48 8b 04 25 28 00 	mov    %fs:0x28,%rax
   163e0:	00 00 
   163e2:	48 89 45 f8          	mov    %rax,-0x8(%rbp)
   163e6:	31 c0                	xor    %eax,%eax
   163e8:	48 8d 05 15 ef 00 00 	lea    0xef15(%rip),%rax        # 25304 <g_842+0x24>
   163ef:	48 89 85 18 fd ff ff 	mov    %rax,-0x2e8(%rbp)
   163f6:	48 8d 85 18 fd ff ff 	lea    -0x2e8(%rbp),%rax
   163fd:	48 89 85 20 fd ff ff 	mov    %rax,-0x2e0(%rbp)
   16404:	48 8d 85 18 fd ff ff 	lea    -0x2e8(%rbp),%rax
   1640b:	48 89 85 28 fd ff ff 	mov    %rax,-0x2d8(%rbp)
   16412:	48 8d 85 18 fd ff ff 	lea    -0x2e8(%rbp),%rax
   16419:	48 89 85 30 fd ff ff 	mov    %rax,-0x2d0(%rbp)
   16420:	48 8d 05 91 35 01 00 	lea    0x13591(%rip),%rax        # 299b8 <g_340>
   16427:	48 89 85 38 fd ff ff 	mov    %rax,-0x2c8(%rbp)
   1642e:	48 8d 05 83 35 01 00 	lea    0x13583(%rip),%rax        # 299b8 <g_340>
   16435:	48 89 85 40 fd ff ff 	mov    %rax,-0x2c0(%rbp)
   1643c:	48 8d 85 18 fd ff ff 	lea    -0x2e8(%rbp),%rax
   16443:	48 89 85 48 fd ff ff 	mov    %rax,-0x2b8(%rbp)
   1644a:	48 8d 05 67 35 01 00 	lea    0x13567(%rip),%rax        # 299b8 <g_340>
   16451:	48 89 85 50 fd ff ff 	mov    %rax,-0x2b0(%rbp)
   16458:	48 8d 05 59 35 01 00 	lea    0x13559(%rip),%rax        # 299b8 <g_340>
   1645f:	48 89 85 58 fd ff ff 	mov    %rax,-0x2a8(%rbp)
   16466:	48 8d 85 18 fd ff ff 	lea    -0x2e8(%rbp),%rax
   1646d:	48 89 85 60 fd ff ff 	mov    %rax,-0x2a0(%rbp)
   16474:	48 8d 05 3d 35 01 00 	lea    0x1353d(%rip),%rax        # 299b8 <g_340>
   1647b:	48 89 85 68 fd ff ff 	mov    %rax,-0x298(%rbp)
   16482:	48 8d 85 18 fd ff ff 	lea    -0x2e8(%rbp),%rax
   16489:	48 89 85 70 fd ff ff 	mov    %rax,-0x290(%rbp)
   16490:	48 8d 85 18 fd ff ff 	lea    -0x2e8(%rbp),%rax
   16497:	48 89 85 78 fd ff ff 	mov    %rax,-0x288(%rbp)
   1649e:	48 8d 85 18 fd ff ff 	lea    -0x2e8(%rbp),%rax
   164a5:	48 89 85 80 fd ff ff 	mov    %rax,-0x280(%rbp)
   164ac:	48 8d 85 18 fd ff ff 	lea    -0x2e8(%rbp),%rax
   164b3:	48 89 85 88 fd ff ff 	mov    %rax,-0x278(%rbp)
   164ba:	48 8d 85 18 fd ff ff 	lea    -0x2e8(%rbp),%rax
   164c1:	48 89 85 90 fd ff ff 	mov    %rax,-0x270(%rbp)
   164c8:	48 8d 85 18 fd ff ff 	lea    -0x2e8(%rbp),%rax
   164cf:	48 89 85 98 fd ff ff 	mov    %rax,-0x268(%rbp)
   164d6:	48 8d 05 db 34 01 00 	lea    0x134db(%rip),%rax        # 299b8 <g_340>
   164dd:	48 89 85 a0 fd ff ff 	mov    %rax,-0x260(%rbp)
   164e4:	48 8d 05 cd 34 01 00 	lea    0x134cd(%rip),%rax        # 299b8 <g_340>
   164eb:	48 89 85 a8 fd ff ff 	mov    %rax,-0x258(%rbp)
   164f2:	48 8d 05 bf 34 01 00 	lea    0x134bf(%rip),%rax        # 299b8 <g_340>
   164f9:	48 89 85 b0 fd ff ff 	mov    %rax,-0x250(%rbp)
   16500:	48 8d 85 18 fd ff ff 	lea    -0x2e8(%rbp),%rax
   16507:	48 89 85 b8 fd ff ff 	mov    %rax,-0x248(%rbp)
   1650e:	48 8d 85 18 fd ff ff 	lea    -0x2e8(%rbp),%rax
   16515:	48 89 85 c0 fd ff ff 	mov    %rax,-0x240(%rbp)
   1651c:	48 8d 85 18 fd ff ff 	lea    -0x2e8(%rbp),%rax
   16523:	48 89 85 c8 fd ff ff 	mov    %rax,-0x238(%rbp)
   1652a:	48 8d 85 18 fd ff ff 	lea    -0x2e8(%rbp),%rax
   16531:	48 89 85 d0 fd ff ff 	mov    %rax,-0x230(%rbp)
   16538:	48 8d 85 18 fd ff ff 	lea    -0x2e8(%rbp),%rax
   1653f:	48 89 85 d8 fd ff ff 	mov    %rax,-0x228(%rbp)
   16546:	48 8d 85 18 fd ff ff 	lea    -0x2e8(%rbp),%rax
   1654d:	48 89 85 e0 fd ff ff 	mov    %rax,-0x220(%rbp)
   16554:	48 8d 05 5d 34 01 00 	lea    0x1345d(%rip),%rax        # 299b8 <g_340>
   1655b:	48 89 85 e8 fd ff ff 	mov    %rax,-0x218(%rbp)
   16562:	48 8d 85 18 fd ff ff 	lea    -0x2e8(%rbp),%rax
   16569:	48 89 85 f0 fd ff ff 	mov    %rax,-0x210(%rbp)
   16570:	48 8d 05 41 34 01 00 	lea    0x13441(%rip),%rax        # 299b8 <g_340>
   16577:	48 89 85 f8 fd ff ff 	mov    %rax,-0x208(%rbp)
   1657e:	48 8d 05 33 34 01 00 	lea    0x13433(%rip),%rax        # 299b8 <g_340>
   16585:	48 89 85 00 fe ff ff 	mov    %rax,-0x200(%rbp)
   1658c:	48 8d 85 18 fd ff ff 	lea    -0x2e8(%rbp),%rax
   16593:	48 89 85 08 fe ff ff 	mov    %rax,-0x1f8(%rbp)
   1659a:	48 8d 05 17 34 01 00 	lea    0x13417(%rip),%rax        # 299b8 <g_340>
   165a1:	48 89 85 10 fe ff ff 	mov    %rax,-0x1f0(%rbp)
   165a8:	48 8d 05 09 34 01 00 	lea    0x13409(%rip),%rax        # 299b8 <g_340>
   165af:	48 89 85 18 fe ff ff 	mov    %rax,-0x1e8(%rbp)
   165b6:	48 8d 85 18 fd ff ff 	lea    -0x2e8(%rbp),%rax
   165bd:	48 89 85 20 fe ff ff 	mov    %rax,-0x1e0(%rbp)
   165c4:	48 8d 85 18 fd ff ff 	lea    -0x2e8(%rbp),%rax
   165cb:	48 89 85 28 fe ff ff 	mov    %rax,-0x1d8(%rbp)
   165d2:	48 8d 05 df 33 01 00 	lea    0x133df(%rip),%rax        # 299b8 <g_340>
   165d9:	48 89 85 30 fe ff ff 	mov    %rax,-0x1d0(%rbp)
   165e0:	48 8d 05 d1 33 01 00 	lea    0x133d1(%rip),%rax        # 299b8 <g_340>
   165e7:	48 89 85 38 fe ff ff 	mov    %rax,-0x1c8(%rbp)
   165ee:	48 8d 05 c3 33 01 00 	lea    0x133c3(%rip),%rax        # 299b8 <g_340>
   165f5:	48 89 85 40 fe ff ff 	mov    %rax,-0x1c0(%rbp)
   165fc:	48 8d 85 18 fd ff ff 	lea    -0x2e8(%rbp),%rax
   16603:	48 89 85 48 fe ff ff 	mov    %rax,-0x1b8(%rbp)
   1660a:	48 8d 85 18 fd ff ff 	lea    -0x2e8(%rbp),%rax
   16611:	48 89 85 50 fe ff ff 	mov    %rax,-0x1b0(%rbp)
   16618:	48 8d 85 18 fd ff ff 	lea    -0x2e8(%rbp),%rax
   1661f:	48 89 85 58 fe ff ff 	mov    %rax,-0x1a8(%rbp)
   16626:	48 8d 85 18 fd ff ff 	lea    -0x2e8(%rbp),%rax
   1662d:	48 89 85 60 fe ff ff 	mov    %rax,-0x1a0(%rbp)
   16634:	48 8d 85 18 fd ff ff 	lea    -0x2e8(%rbp),%rax
   1663b:	48 89 85 68 fe ff ff 	mov    %rax,-0x198(%rbp)
   16642:	48 8d 85 18 fd ff ff 	lea    -0x2e8(%rbp),%rax
   16649:	48 89 85 70 fe ff ff 	mov    %rax,-0x190(%rbp)
   16650:	48 8d 05 61 33 01 00 	lea    0x13361(%rip),%rax        # 299b8 <g_340>
   16657:	48 89 85 78 fe ff ff 	mov    %rax,-0x188(%rbp)
   1665e:	48 8d 85 18 fd ff ff 	lea    -0x2e8(%rbp),%rax
   16665:	48 89 85 80 fe ff ff 	mov    %rax,-0x180(%rbp)
   1666c:	48 8d 85 18 fd ff ff 	lea    -0x2e8(%rbp),%rax
   16673:	48 89 85 88 fe ff ff 	mov    %rax,-0x178(%rbp)
   1667a:	48 8d 85 18 fd ff ff 	lea    -0x2e8(%rbp),%rax
   16681:	48 89 85 90 fe ff ff 	mov    %rax,-0x170(%rbp)
   16688:	48 8d 05 29 33 01 00 	lea    0x13329(%rip),%rax        # 299b8 <g_340>
   1668f:	48 89 85 98 fe ff ff 	mov    %rax,-0x168(%rbp)
   16696:	48 8d 85 18 fd ff ff 	lea    -0x2e8(%rbp),%rax
   1669d:	48 89 85 a0 fe ff ff 	mov    %rax,-0x160(%rbp)
   166a4:	48 8d 85 18 fd ff ff 	lea    -0x2e8(%rbp),%rax
   166ab:	48 89 85 a8 fe ff ff 	mov    %rax,-0x158(%rbp)
   166b2:	48 8d 85 18 fd ff ff 	lea    -0x2e8(%rbp),%rax
   166b9:	48 89 85 b0 fe ff ff 	mov    %rax,-0x150(%rbp)
   166c0:	48 8d 85 18 fd ff ff 	lea    -0x2e8(%rbp),%rax
   166c7:	48 89 85 b8 fe ff ff 	mov    %rax,-0x148(%rbp)
   166ce:	48 8d 05 e3 32 01 00 	lea    0x132e3(%rip),%rax        # 299b8 <g_340>
   166d5:	48 89 85 c0 fe ff ff 	mov    %rax,-0x140(%rbp)
   166dc:	48 8d 85 18 fd ff ff 	lea    -0x2e8(%rbp),%rax
   166e3:	48 89 85 c8 fe ff ff 	mov    %rax,-0x138(%rbp)
   166ea:	48 8d 85 18 fd ff ff 	lea    -0x2e8(%rbp),%rax
   166f1:	48 89 85 d0 fe ff ff 	mov    %rax,-0x130(%rbp)
   166f8:	48 8d 05 b9 32 01 00 	lea    0x132b9(%rip),%rax        # 299b8 <g_340>
   166ff:	48 89 85 d8 fe ff ff 	mov    %rax,-0x128(%rbp)
   16706:	48 8d 85 18 fd ff ff 	lea    -0x2e8(%rbp),%rax
   1670d:	48 89 85 e0 fe ff ff 	mov    %rax,-0x120(%rbp)
   16714:	48 8d 85 18 fd ff ff 	lea    -0x2e8(%rbp),%rax
   1671b:	48 89 85 e8 fe ff ff 	mov    %rax,-0x118(%rbp)
   16722:	48 8d 05 8f 32 01 00 	lea    0x1328f(%rip),%rax        # 299b8 <g_340>
   16729:	48 89 85 f0 fe ff ff 	mov    %rax,-0x110(%rbp)
   16730:	48 8d 05 81 32 01 00 	lea    0x13281(%rip),%rax        # 299b8 <g_340>
   16737:	48 89 85 f8 fe ff ff 	mov    %rax,-0x108(%rbp)
   1673e:	48 8d 05 73 32 01 00 	lea    0x13273(%rip),%rax        # 299b8 <g_340>
   16745:	48 89 85 00 ff ff ff 	mov    %rax,-0x100(%rbp)
   1674c:	48 8d 85 18 fd ff ff 	lea    -0x2e8(%rbp),%rax
   16753:	48 89 85 08 ff ff ff 	mov    %rax,-0xf8(%rbp)
   1675a:	48 8d 85 18 fd ff ff 	lea    -0x2e8(%rbp),%rax
   16761:	48 89 85 10 ff ff ff 	mov    %rax,-0xf0(%rbp)
   16768:	48 8d 05 49 32 01 00 	lea    0x13249(%rip),%rax        # 299b8 <g_340>
   1676f:	48 89 85 18 ff ff ff 	mov    %rax,-0xe8(%rbp)
   16776:	48 8d 05 3b 32 01 00 	lea    0x1323b(%rip),%rax        # 299b8 <g_340>
   1677d:	48 89 85 20 ff ff ff 	mov    %rax,-0xe0(%rbp)
   16784:	48 8d 05 2d 32 01 00 	lea    0x1322d(%rip),%rax        # 299b8 <g_340>
   1678b:	48 89 85 28 ff ff ff 	mov    %rax,-0xd8(%rbp)
   16792:	48 8d 85 18 fd ff ff 	lea    -0x2e8(%rbp),%rax
   16799:	48 89 85 30 ff ff ff 	mov    %rax,-0xd0(%rbp)
   167a0:	48 8d 85 18 fd ff ff 	lea    -0x2e8(%rbp),%rax
   167a7:	48 89 85 38 ff ff ff 	mov    %rax,-0xc8(%rbp)
   167ae:	48 8d 05 03 32 01 00 	lea    0x13203(%rip),%rax        # 299b8 <g_340>
   167b5:	48 89 85 40 ff ff ff 	mov    %rax,-0xc0(%rbp)
   167bc:	48 8d 85 18 fd ff ff 	lea    -0x2e8(%rbp),%rax
   167c3:	48 89 85 48 ff ff ff 	mov    %rax,-0xb8(%rbp)
   167ca:	48 8d 85 18 fd ff ff 	lea    -0x2e8(%rbp),%rax
   167d1:	48 89 85 50 ff ff ff 	mov    %rax,-0xb0(%rbp)
   167d8:	48 8d 85 18 fd ff ff 	lea    -0x2e8(%rbp),%rax
   167df:	48 89 85 58 ff ff ff 	mov    %rax,-0xa8(%rbp)
   167e6:	48 8d 85 18 fd ff ff 	lea    -0x2e8(%rbp),%rax
   167ed:	48 89 85 60 ff ff ff 	mov    %rax,-0xa0(%rbp)
   167f4:	48 8d 05 bd 31 01 00 	lea    0x131bd(%rip),%rax        # 299b8 <g_340>
   167fb:	48 89 85 68 ff ff ff 	mov    %rax,-0x98(%rbp)
   16802:	48 8d 85 18 fd ff ff 	lea    -0x2e8(%rbp),%rax
   16809:	48 89 85 70 ff ff ff 	mov    %rax,-0x90(%rbp)
   16810:	48 8d 85 18 fd ff ff 	lea    -0x2e8(%rbp),%rax
   16817:	48 89 85 78 ff ff ff 	mov    %rax,-0x88(%rbp)
   1681e:	48 8d 05 93 31 01 00 	lea    0x13193(%rip),%rax        # 299b8 <g_340>
   16825:	48 89 45 80          	mov    %rax,-0x80(%rbp)
   16829:	48 8d 85 18 fd ff ff 	lea    -0x2e8(%rbp),%rax
   16830:	48 89 45 88          	mov    %rax,-0x78(%rbp)
   16834:	48 8d 85 18 fd ff ff 	lea    -0x2e8(%rbp),%rax
   1683b:	48 89 45 90          	mov    %rax,-0x70(%rbp)
   1683f:	48 8d 85 18 fd ff ff 	lea    -0x2e8(%rbp),%rax
   16846:	48 89 45 98          	mov    %rax,-0x68(%rbp)
   1684a:	48 8d 85 18 fd ff ff 	lea    -0x2e8(%rbp),%rax
   16851:	48 89 45 a0          	mov    %rax,-0x60(%rbp)
   16855:	48 8d 05 5c 31 01 00 	lea    0x1315c(%rip),%rax        # 299b8 <g_340>
   1685c:	48 89 45 a8          	mov    %rax,-0x58(%rbp)
   16860:	48 8d 05 51 31 01 00 	lea    0x13151(%rip),%rax        # 299b8 <g_340>
   16867:	48 89 45 b0          	mov    %rax,-0x50(%rbp)
   1686b:	48 8d 05 46 31 01 00 	lea    0x13146(%rip),%rax        # 299b8 <g_340>
   16872:	48 89 45 b8          	mov    %rax,-0x48(%rbp)
   16876:	48 8d 85 18 fd ff ff 	lea    -0x2e8(%rbp),%rax
   1687d:	48 89 45 c0          	mov    %rax,-0x40(%rbp)
   16881:	48 8d 85 18 fd ff ff 	lea    -0x2e8(%rbp),%rax
   16888:	48 89 45 c8          	mov    %rax,-0x38(%rbp)
   1688c:	48 8d 85 18 fd ff ff 	lea    -0x2e8(%rbp),%rax
   16893:	48 89 45 d0          	mov    %rax,-0x30(%rbp)
   16897:	48 8d 05 1a 31 01 00 	lea    0x1311a(%rip),%rax        # 299b8 <g_340>
   1689e:	48 89 45 d8          	mov    %rax,-0x28(%rbp)
   168a2:	48 8d 05 0f 31 01 00 	lea    0x1310f(%rip),%rax        # 299b8 <g_340>
   168a9:	48 89 45 e0          	mov    %rax,-0x20(%rbp)
   168ad:	48 8d 05 04 31 01 00 	lea    0x13104(%rip),%rax        # 299b8 <g_340>
   168b4:	48 89 45 e8          	mov    %rax,-0x18(%rbp)
   168b8:	48 8b 85 18 fd ff ff 	mov    -0x2e8(%rbp),%rax
   168bf:	8b 10                	mov    (%rax),%edx
   168c1:	48 8b 85 18 fd ff ff 	mov    -0x2e8(%rbp),%rax
   168c8:	81 e2 4c 60 a9 2f    	and    $0x2fa9604c,%edx
   168ce:	89 10                	mov    %edx,(%rax)
   168d0:	48 8d 85 0c fd ff ff 	lea    -0x2f4(%rbp),%rax
   168d7:	48 89 05 da 30 01 00 	mov    %rax,0x130da(%rip)        # 299b8 <g_340>
   168de:	8b 85 0c fd ff ff    	mov    -0x2f4(%rbp),%eax
   168e4:	48 8b 4d f8          	mov    -0x8(%rbp),%rcx
   168e8:	64 48 33 0c 25 28 00 	xor    %fs:0x28,%rcx
   168ef:	00 00 
   168f1:	74 05                	je     168f8 <func_42+0x553>
   168f3:	e8 78 57 ff ff       	callq  c070 <__stack_chk_fail@plt>
   168f8:	c9                   	leaveq 
   168f9:	c3                   	retq   

00000000000168fa <func_50>:
   168fa:	f3 0f 1e fa          	endbr64 
   168fe:	55                   	push   %rbp
   168ff:	48 89 e5             	mov    %rsp,%rbp
   16902:	41 57                	push   %r15
   16904:	41 56                	push   %r14
   16906:	41 55                	push   %r13
   16908:	41 54                	push   %r12
   1690a:	53                   	push   %rbx
   1690b:	48 81 ec 00 10 00 00 	sub    $0x1000,%rsp
   16912:	48 83 0c 24 00       	orq    $0x0,(%rsp)
   16917:	48 81 ec 28 03 00 00 	sub    $0x328,%rsp
   1691e:	89 bd cc ec ff ff    	mov    %edi,-0x1334(%rbp)
   16924:	89 b5 c8 ec ff ff    	mov    %esi,-0x1338(%rbp)
   1692a:	48 89 95 c0 ec ff ff 	mov    %rdx,-0x1340(%rbp)
   16931:	64 48 8b 04 25 28 00 	mov    %fs:0x28,%rax
   16938:	00 00 
   1693a:	48 89 45 c8          	mov    %rax,-0x38(%rbp)
   1693e:	31 c0                	xor    %eax,%eax
   16940:	c7 85 18 ed ff ff ff 	movl   $0xffffffff,-0x12e8(%rbp)
   16947:	ff ff ff 
   1694a:	48 8d 05 2f e8 00 00 	lea    0xe82f(%rip),%rax        # 25180 <g_80>
   16951:	48 89 85 18 ee ff ff 	mov    %rax,-0x11e8(%rbp)
   16958:	c7 85 30 f0 ff ff 98 	movl   $0x6af79898,-0xfd0(%rbp)
   1695f:	98 f7 6a 
   16962:	c7 85 34 f0 ff ff 98 	movl   $0x98ff8398,-0xfcc(%rbp)
   16969:	83 ff 98 
   1696c:	c7 85 38 f0 ff ff 38 	movl   $0xff386a38,-0xfc8(%rbp)
   16973:	6a 38 ff 
   16976:	c7 85 3c f0 ff ff 4c 	movl   $0x98f76a4c,-0xfc4(%rbp)
   1697d:	6a f7 98 
   16980:	c7 85 40 f0 ff ff 6a 	movl   $0x6a83836a,-0xfc0(%rbp)
   16987:	83 83 6a 
   1698a:	c7 85 44 f0 ff ff 38 	movl   $0xff839838,-0xfbc(%rbp)
   16991:	98 83 ff 
   16994:	c7 85 48 f0 ff ff 6a 	movl   $0x4cf74c6a,-0xfb8(%rbp)
   1699b:	4c f7 4c 
   1699e:	48 8d 05 0f e8 00 00 	lea    0xe80f(%rip),%rax        # 251b4 <g_213>
   169a5:	48 89 85 b0 ed ff ff 	mov    %rax,-0x1250(%rbp)
   169ac:	c7 85 f8 ec ff ff d9 	movl   $0xf0e826d9,-0x1308(%rbp)
   169b3:	26 e8 f0 
   169b6:	c7 85 fc ec ff ff 06 	movl   $0x6,-0x1304(%rbp)
   169bd:	00 00 00 
   169c0:	c6 85 df ec ff ff 49 	movb   $0x49,-0x1321(%rbp)
   169c7:	48 8d 85 b0 ed ff ff 	lea    -0x1250(%rbp),%rax
   169ce:	48 89 85 b8 ed ff ff 	mov    %rax,-0x1248(%rbp)
   169d5:	48 8d 05 f4 e7 00 00 	lea    0xe7f4(%rip),%rax        # 251d0 <g_394>
   169dc:	48 89 85 20 ee ff ff 	mov    %rax,-0x11e0(%rbp)
   169e3:	48 8d 05 16 17 01 00 	lea    0x11716(%rip),%rax        # 28100 <g_124>
   169ea:	48 89 85 a0 f0 ff ff 	mov    %rax,-0xf60(%rbp)
   169f1:	48 8d 05 08 17 01 00 	lea    0x11708(%rip),%rax        # 28100 <g_124>
   169f8:	48 89 85 a8 f0 ff ff 	mov    %rax,-0xf58(%rbp)
   169ff:	48 8d 05 fa 16 01 00 	lea    0x116fa(%rip),%rax        # 28100 <g_124>
   16a06:	48 89 85 b0 f0 ff ff 	mov    %rax,-0xf50(%rbp)
   16a0d:	48 8d 05 ec 16 01 00 	lea    0x116ec(%rip),%rax        # 28100 <g_124>
   16a14:	48 89 85 b8 f0 ff ff 	mov    %rax,-0xf48(%rbp)
   16a1b:	48 8d 05 de 16 01 00 	lea    0x116de(%rip),%rax        # 28100 <g_124>
   16a22:	48 89 85 c0 f0 ff ff 	mov    %rax,-0xf40(%rbp)
   16a29:	48 8d 05 d0 16 01 00 	lea    0x116d0(%rip),%rax        # 28100 <g_124>
   16a30:	48 89 85 c8 f0 ff ff 	mov    %rax,-0xf38(%rbp)
   16a37:	48 c7 85 28 ee ff ff 	movq   $0x0,-0x11d8(%rbp)
   16a3e:	00 00 00 00 
   16a42:	48 8d 05 67 2f 01 00 	lea    0x12f67(%rip),%rax        # 299b0 <g_145>
   16a49:	48 89 85 30 ee ff ff 	mov    %rax,-0x11d0(%rbp)
   16a50:	48 c7 85 38 ee ff ff 	movq   $0x0,-0x11c8(%rbp)
   16a57:	00 00 00 00 
   16a5b:	48 8d 05 4e e7 00 00 	lea    0xe74e(%rip),%rax        # 251b0 <g_200>
   16a62:	48 89 85 40 ee ff ff 	mov    %rax,-0x11c0(%rbp)
   16a69:	48 8d 05 4c e7 00 00 	lea    0xe74c(%rip),%rax        # 251bc <g_248>
   16a70:	48 89 85 48 ee ff ff 	mov    %rax,-0x11b8(%rbp)
   16a77:	c7 85 3c ed ff ff af 	movl   $0x1b1db2af,-0x12c4(%rbp)
   16a7e:	b2 1d 1b 
   16a81:	c6 85 e0 ec ff ff 00 	movb   $0x0,-0x1320(%rbp)
   16a88:	c7 85 00 ed ff ff 01 	movl   $0x1,-0x1300(%rbp)
   16a8f:	00 00 00 
   16a92:	48 c7 85 c0 ed ff ff 	movq   $0x0,-0x1240(%rbp)
   16a99:	00 00 00 00 
   16a9d:	c7 85 40 ed ff ff c8 	movl   $0xfc813ac8,-0x12c0(%rbp)
   16aa4:	3a 81 fc 
   16aa7:	c6 85 e1 ec ff ff b7 	movb   $0xb7,-0x131f(%rbp)
   16aae:	c7 85 10 ed ff ff 7c 	movl   $0x90c2477c,-0x12f0(%rbp)
   16ab5:	47 c2 90 
   16ab8:	c7 85 44 ed ff ff 03 	movl   $0x3,-0x12bc(%rbp)
   16abf:	00 00 00 
   16ac2:	48 8d 05 8f 95 00 00 	lea    0x958f(%rip),%rax        # 20058 <g_812>
   16ac9:	48 89 85 c8 ed ff ff 	mov    %rax,-0x1238(%rbp)
   16ad0:	48 8d 85 c8 ed ff ff 	lea    -0x1238(%rbp),%rax
   16ad7:	48 89 85 d0 ed ff ff 	mov    %rax,-0x1230(%rbp)
   16ade:	c7 85 d0 f0 ff ff 52 	movl   $0x6e35f952,-0xf30(%rbp)
   16ae5:	f9 35 6e 
   16ae8:	c7 85 d4 f0 ff ff 52 	movl   $0x6e35f952,-0xf2c(%rbp)
   16aef:	f9 35 6e 
   16af2:	c7 85 d8 f0 ff ff f1 	movl   $0xd1db74f1,-0xf28(%rbp)
   16af9:	74 db d1 
   16afc:	c7 85 dc f0 ff ff f1 	movl   $0xd1db74f1,-0xf24(%rbp)
   16b03:	74 db d1 
   16b06:	c7 85 e0 f0 ff ff 52 	movl   $0x6e35f952,-0xf20(%rbp)
   16b0d:	f9 35 6e 
   16b10:	c7 85 e4 f0 ff ff 80 	movl   $0xb91ff780,-0xf1c(%rbp)
   16b17:	f7 1f b9 
   16b1a:	c7 85 e8 f0 ff ff 1d 	movl   $0xc2dcbe1d,-0xf18(%rbp)
   16b21:	be dc c2 
   16b24:	c7 85 ec f0 ff ff 80 	movl   $0xb91ff780,-0xf14(%rbp)
   16b2b:	f7 1f b9 
   16b2e:	c7 85 f0 f0 ff ff 1d 	movl   $0xc2dcbe1d,-0xf10(%rbp)
   16b35:	be dc c2 
   16b38:	c7 85 f4 f0 ff ff 80 	movl   $0xb91ff780,-0xf0c(%rbp)
   16b3f:	f7 1f b9 
   16b42:	c7 85 f8 f0 ff ff 52 	movl   $0x6e35f952,-0xf08(%rbp)
   16b49:	f9 35 6e 
   16b4c:	c7 85 fc f0 ff ff f1 	movl   $0xd1db74f1,-0xf04(%rbp)
   16b53:	74 db d1 
   16b56:	c7 85 00 f1 ff ff f1 	movl   $0xd1db74f1,-0xf00(%rbp)
   16b5d:	74 db d1 
   16b60:	c7 85 04 f1 ff ff 52 	movl   $0x6e35f952,-0xefc(%rbp)
   16b67:	f9 35 6e 
   16b6a:	c7 85 08 f1 ff ff 52 	movl   $0x6e35f952,-0xef8(%rbp)
   16b71:	f9 35 6e 
   16b74:	c7 85 0c f1 ff ff b9 	movl   $0x7656a2b9,-0xef4(%rbp)
   16b7b:	a2 56 76 
   16b7e:	c7 85 10 f1 ff ff 1d 	movl   $0xc2dcbe1d,-0xef0(%rbp)
   16b85:	be dc c2 
   16b88:	c7 85 14 f1 ff ff b9 	movl   $0x7656a2b9,-0xeec(%rbp)
   16b8f:	a2 56 76 
   16b92:	c7 85 18 f1 ff ff 1d 	movl   $0xc2dcbe1d,-0xee8(%rbp)
   16b99:	be dc c2 
   16b9c:	c7 85 1c f1 ff ff b9 	movl   $0x7656a2b9,-0xee4(%rbp)
   16ba3:	a2 56 76 
   16ba6:	c7 85 20 f1 ff ff 52 	movl   $0x6e35f952,-0xee0(%rbp)
   16bad:	f9 35 6e 
   16bb0:	c7 85 24 f1 ff ff 52 	movl   $0x6e35f952,-0xedc(%rbp)
   16bb7:	f9 35 6e 
   16bba:	c7 85 28 f1 ff ff f1 	movl   $0xd1db74f1,-0xed8(%rbp)
   16bc1:	74 db d1 
   16bc4:	c7 85 2c f1 ff ff f1 	movl   $0xd1db74f1,-0xed4(%rbp)
   16bcb:	74 db d1 
   16bce:	c7 85 30 f1 ff ff 52 	movl   $0x6e35f952,-0xed0(%rbp)
   16bd5:	f9 35 6e 
   16bd8:	c7 85 48 ed ff ff 01 	movl   $0x1,-0x12b8(%rbp)
   16bdf:	00 00 00 
   16be2:	c7 85 4c ed ff ff 53 	movl   $0xa6fad753,-0x12b4(%rbp)
   16be9:	d7 fa a6 
   16bec:	48 8d 85 50 f7 ff ff 	lea    -0x8b0(%rbp),%rax
   16bf3:	48 8d 15 86 a5 00 00 	lea    0xa586(%rip),%rdx        # 21180 <g_1983+0x1118>
   16bfa:	b9 7e 00 00 00       	mov    $0x7e,%ecx
   16bff:	48 89 c7             	mov    %rax,%rdi
   16c02:	48 89 d6             	mov    %rdx,%rsi
   16c05:	f3 48 a5             	rep movsq %ds:(%rsi),%es:(%rdi)
   16c08:	48 b8 8d 03 15 82 e0 	movabs $0x296de3e08215038d,%rax
   16c0f:	e3 6d 29 
   16c12:	48 89 85 08 ee ff ff 	mov    %rax,-0x11f8(%rbp)
   16c19:	c7 85 c8 ec ff ff 00 	movl   $0x0,-0x1338(%rbp)
   16c20:	00 00 00 
   16c23:	e9 8c 19 00 00       	jmpq   185b4 <func_50+0x1cba>
   16c28:	c7 85 74 ed ff ff ff 	movl   $0xffffffff,-0x128c(%rbp)
   16c2f:	ff ff ff 
   16c32:	48 8d 05 47 e5 00 00 	lea    0xe547(%rip),%rax        # 25180 <g_80>
   16c39:	48 89 85 50 ef ff ff 	mov    %rax,-0x10b0(%rbp)
   16c40:	48 8d 05 81 e5 00 00 	lea    0xe581(%rip),%rax        # 251c8 <g_359>
   16c47:	48 89 85 b0 f2 ff ff 	mov    %rax,-0xd50(%rbp)
   16c4e:	48 8d 05 13 e5 00 00 	lea    0xe513(%rip),%rax        # 25168 <g_12>
   16c55:	48 89 85 b8 f2 ff ff 	mov    %rax,-0xd48(%rbp)
   16c5c:	48 8d 05 65 e5 00 00 	lea    0xe565(%rip),%rax        # 251c8 <g_359>
   16c63:	48 89 85 c0 f2 ff ff 	mov    %rax,-0xd40(%rbp)
   16c6a:	48 8d 05 f7 e4 00 00 	lea    0xe4f7(%rip),%rax        # 25168 <g_12>
   16c71:	48 89 85 c8 f2 ff ff 	mov    %rax,-0xd38(%rbp)
   16c78:	48 8d 05 e5 e4 00 00 	lea    0xe4e5(%rip),%rax        # 25164 <g_9>
   16c7f:	48 89 85 d0 f2 ff ff 	mov    %rax,-0xd30(%rbp)
   16c86:	48 8d 05 3b e5 00 00 	lea    0xe53b(%rip),%rax        # 251c8 <g_359>
   16c8d:	48 89 85 d8 f2 ff ff 	mov    %rax,-0xd28(%rbp)
   16c94:	48 c7 85 e0 f2 ff ff 	movq   $0x0,-0xd20(%rbp)
   16c9b:	00 00 00 00 
   16c9f:	48 8d 05 22 e5 00 00 	lea    0xe522(%rip),%rax        # 251c8 <g_359>
   16ca6:	48 89 85 e8 f2 ff ff 	mov    %rax,-0xd18(%rbp)
   16cad:	48 c7 85 f0 f2 ff ff 	movq   $0x0,-0xd10(%rbp)
   16cb4:	00 00 00 00 
   16cb8:	48 8d 05 09 e5 00 00 	lea    0xe509(%rip),%rax        # 251c8 <g_359>
   16cbf:	48 89 85 f8 f2 ff ff 	mov    %rax,-0xd08(%rbp)
   16cc6:	48 8d 05 97 e4 00 00 	lea    0xe497(%rip),%rax        # 25164 <g_9>
   16ccd:	48 89 85 00 f3 ff ff 	mov    %rax,-0xd00(%rbp)
   16cd4:	48 8d 05 8d e4 00 00 	lea    0xe48d(%rip),%rax        # 25168 <g_12>
   16cdb:	48 89 85 08 f3 ff ff 	mov    %rax,-0xcf8(%rbp)
   16ce2:	48 8d 05 df e4 00 00 	lea    0xe4df(%rip),%rax        # 251c8 <g_359>
   16ce9:	48 89 85 10 f3 ff ff 	mov    %rax,-0xcf0(%rbp)
   16cf0:	48 8d 05 71 e4 00 00 	lea    0xe471(%rip),%rax        # 25168 <g_12>
   16cf7:	48 89 85 18 f3 ff ff 	mov    %rax,-0xce8(%rbp)
   16cfe:	48 8d 05 c3 e4 00 00 	lea    0xe4c3(%rip),%rax        # 251c8 <g_359>
   16d05:	48 89 85 20 f3 ff ff 	mov    %rax,-0xce0(%rbp)
   16d0c:	48 c7 85 28 f3 ff ff 	movq   $0x0,-0xcd8(%rbp)
   16d13:	00 00 00 00 
   16d17:	48 8d 05 9a e4 00 00 	lea    0xe49a(%rip),%rax        # 251b8 <g_217>
   16d1e:	48 89 85 30 f3 ff ff 	mov    %rax,-0xcd0(%rbp)
   16d25:	48 8d 05 3c e4 00 00 	lea    0xe43c(%rip),%rax        # 25168 <g_12>
   16d2c:	48 89 85 38 f3 ff ff 	mov    %rax,-0xcc8(%rbp)
   16d33:	48 8d 05 2e e4 00 00 	lea    0xe42e(%rip),%rax        # 25168 <g_12>
   16d3a:	48 89 85 40 f3 ff ff 	mov    %rax,-0xcc0(%rbp)
   16d41:	48 8d 05 70 e4 00 00 	lea    0xe470(%rip),%rax        # 251b8 <g_217>
   16d48:	48 89 85 48 f3 ff ff 	mov    %rax,-0xcb8(%rbp)
   16d4f:	48 8d 05 62 e4 00 00 	lea    0xe462(%rip),%rax        # 251b8 <g_217>
   16d56:	48 89 85 50 f3 ff ff 	mov    %rax,-0xcb0(%rbp)
   16d5d:	48 8d 05 04 e4 00 00 	lea    0xe404(%rip),%rax        # 25168 <g_12>
   16d64:	48 89 85 58 f3 ff ff 	mov    %rax,-0xca8(%rbp)
   16d6b:	48 8d 05 56 e4 00 00 	lea    0xe456(%rip),%rax        # 251c8 <g_359>
   16d72:	48 89 85 60 f3 ff ff 	mov    %rax,-0xca0(%rbp)
   16d79:	48 8d 05 e8 e3 00 00 	lea    0xe3e8(%rip),%rax        # 25168 <g_12>
   16d80:	48 89 85 68 f3 ff ff 	mov    %rax,-0xc98(%rbp)
   16d87:	48 8d 05 26 e4 00 00 	lea    0xe426(%rip),%rax        # 251b4 <g_213>
   16d8e:	48 89 85 58 ef ff ff 	mov    %rax,-0x10a8(%rbp)
   16d95:	48 8d 05 74 13 01 00 	lea    0x11374(%rip),%rax        # 28110 <g_356>
   16d9c:	48 89 85 d8 ed ff ff 	mov    %rax,-0x1228(%rbp)
   16da3:	48 8d 05 ce e3 00 00 	lea    0xe3ce(%rip),%rax        # 25178 <g_55>
   16daa:	48 89 85 60 ef ff ff 	mov    %rax,-0x10a0(%rbp)
   16db1:	c7 85 04 ed ff ff 01 	movl   $0x1,-0x12fc(%rbp)
   16db8:	00 00 00 
   16dbb:	66 c7 85 e6 ec ff ff 	movw   $0x1,-0x131a(%rbp)
   16dc2:	01 00 
   16dc4:	c7 85 08 ed ff ff fc 	movl   $0xfffffffc,-0x12f8(%rbp)
   16dcb:	ff ff ff 
   16dce:	48 8d 05 db e3 00 00 	lea    0xe3db(%rip),%rax        # 251b0 <g_200>
   16dd5:	48 89 85 68 ef ff ff 	mov    %rax,-0x1098(%rbp)
   16ddc:	66 c7 85 f6 ec ff ff 	movw   $0x3384,-0x130a(%rbp)
   16de3:	84 33 
   16de5:	48 c7 85 e0 ed ff ff 	movq   $0x0,-0x1220(%rbp)
   16dec:	00 00 00 00 
   16df0:	48 8d 85 e0 ed ff ff 	lea    -0x1220(%rbp),%rax
   16df7:	48 89 85 70 ef ff ff 	mov    %rax,-0x1090(%rbp)
   16dfe:	c7 85 14 ed ff ff 9d 	movl   $0x1d1ee99d,-0x12ec(%rbp)
   16e05:	e9 1e 1d 
   16e08:	0f b6 85 3e f0 ff ff 	movzbl -0xfc2(%rbp),%eax
   16e0f:	44 0f be e8          	movsbl %al,%r13d
   16e13:	8b 05 9b e2 00 00    	mov    0xe29b(%rip),%eax        # 250b4 <g_3+0x74>
   16e19:	44 0f b7 e0          	movzwl %ax,%r12d
   16e1d:	48 8b 9d c0 ec ff ff 	mov    -0x1340(%rbp),%rbx
   16e24:	4c 8b b5 c0 ec ff ff 	mov    -0x1340(%rbp),%r14
   16e2b:	8b 85 74 ed ff ff    	mov    -0x128c(%rbp),%eax
   16e31:	44 0f be f8          	movsbl %al,%r15d
   16e35:	8b 85 74 ed ff ff    	mov    -0x128c(%rbp),%eax
   16e3b:	0f be c0             	movsbl %al,%eax
   16e3e:	89 85 bc ec ff ff    	mov    %eax,-0x1344(%rbp)
   16e44:	8b 95 74 ed ff ff    	mov    -0x128c(%rbp),%edx
   16e4a:	8b 05 14 e3 00 00    	mov    0xe314(%rip),%eax        # 25164 <g_9>
   16e50:	89 d6                	mov    %edx,%esi
   16e52:	89 c7                	mov    %eax,%edi
   16e54:	e8 73 58 ff ff       	callq  c6cc <safe_mod_func_int32_t_s_s>
   16e59:	83 f8 79             	cmp    $0x79,%eax
   16e5c:	0f 95 c0             	setne  %al
   16e5f:	0f b6 c0             	movzbl %al,%eax
   16e62:	8b b5 bc ec ff ff    	mov    -0x1344(%rbp),%esi
   16e68:	89 c7                	mov    %eax,%edi
   16e6a:	e8 83 53 ff ff       	callq  c1f2 <safe_sub_func_int8_t_s_s>
   16e6f:	0f b6 d0             	movzbl %al,%edx
   16e72:	8b 85 74 ed ff ff    	mov    -0x128c(%rbp),%eax
   16e78:	0f b6 c0             	movzbl %al,%eax
   16e7b:	89 d6                	mov    %edx,%esi
   16e7d:	89 c7                	mov    %eax,%edi
   16e7f:	e8 57 5d ff ff       	callq  cbdb <safe_div_func_uint8_t_u_u>
   16e84:	48 8b 05 1d 2b 01 00 	mov    0x12b1d(%rip),%rax        # 299a8 <g_57>
   16e8b:	89 c2                	mov    %eax,%edx
   16e8d:	48 8b 05 e4 e2 00 00 	mov    0xe2e4(%rip),%rax        # 25178 <g_55>
   16e94:	31 d0                	xor    %edx,%eax
   16e96:	98                   	cwtl   
   16e97:	89 c6                	mov    %eax,%esi
   16e99:	bf ff ff ff ff       	mov    $0xffffffff,%edi
   16e9e:	e8 73 55 ff ff       	callq  c416 <safe_mod_func_int16_t_s_s>
   16ea3:	0f b6 c8             	movzbl %al,%ecx
   16ea6:	48 8b 05 fb 2a 01 00 	mov    0x12afb(%rip),%rax        # 299a8 <g_57>
   16ead:	0f b7 c0             	movzwl %ax,%eax
   16eb0:	44 89 fa             	mov    %r15d,%edx
   16eb3:	89 ce                	mov    %ecx,%esi
   16eb5:	89 c7                	mov    %eax,%edi
   16eb7:	e8 41 73 00 00       	callq  1e1fd <func_72>
   16ebc:	48 89 c1             	mov    %rax,%rcx
   16ebf:	8b 85 18 ed ff ff    	mov    -0x12e8(%rbp),%eax
   16ec5:	89 c2                	mov    %eax,%edx
   16ec7:	4c 89 f6             	mov    %r14,%rsi
   16eca:	48 89 cf             	mov    %rcx,%rdi
   16ecd:	e8 5a 61 00 00       	callq  1d02c <func_68>
   16ed2:	48 8b 85 c0 ec ff ff 	mov    -0x1340(%rbp),%rax
   16ed9:	48 8b 95 50 ef ff ff 	mov    -0x10b0(%rbp),%rdx
   16ee0:	49 89 d0             	mov    %rdx,%r8
   16ee3:	44 89 e9             	mov    %r13d,%ecx
   16ee6:	44 89 e2             	mov    %r12d,%edx
   16ee9:	48 89 de             	mov    %rbx,%rsi
   16eec:	48 89 c7             	mov    %rax,%rdi
   16eef:	e8 a7 38 00 00       	callq  1a79b <func_62>
   16ef4:	48 8b 9d c0 ec ff ff 	mov    -0x1340(%rbp),%rbx
   16efb:	48 89 c6             	mov    %rax,%rsi
   16efe:	bf 00 00 00 00       	mov    $0x0,%edi
   16f03:	e8 39 59 ff ff       	callq  c841 <safe_add_func_int64_t_s_s>
   16f08:	48 89 03             	mov    %rax,(%rbx)
   16f0b:	48 8b 03             	mov    (%rbx),%rax
   16f0e:	48 ba c5 a9 58 79 e1 	movabs $0x449a5e17958a9c5,%rdx
   16f15:	a5 49 04 
   16f18:	48 39 d0             	cmp    %rdx,%rax
   16f1b:	0f 9f c0             	setg   %al
   16f1e:	0f b6 d0             	movzbl %al,%edx
   16f21:	8b 05 a1 e2 00 00    	mov    0xe2a1(%rip),%eax        # 251c8 <g_359>
   16f27:	31 d0                	xor    %edx,%eax
   16f29:	89 05 99 e2 00 00    	mov    %eax,0xe299(%rip)        # 251c8 <g_359>
   16f2f:	48 8b 05 72 e2 00 00 	mov    0xe272(%rip),%rax        # 251a8 <g_184>
   16f36:	0f b6 d8             	movzbl %al,%ebx
   16f39:	48 8b 85 00 f3 ff ff 	mov    -0xd00(%rbp),%rax
   16f40:	48 89 85 58 ef ff ff 	mov    %rax,-0x10a8(%rbp)
   16f47:	48 8b 85 d8 ed ff ff 	mov    -0x1228(%rbp),%rax
   16f4e:	48 8b 95 58 ef ff ff 	mov    -0x10a8(%rbp),%rdx
   16f55:	48 89 10             	mov    %rdx,(%rax)
   16f58:	48 8b 10             	mov    (%rax),%rdx
   16f5b:	48 8b 85 b0 ed ff ff 	mov    -0x1250(%rbp),%rax
   16f62:	48 39 c2             	cmp    %rax,%rdx
   16f65:	0f 95 c0             	setne  %al
   16f68:	44 0f b6 e0          	movzbl %al,%r12d
   16f6c:	48 83 bd 60 ef ff ff 	cmpq   $0x0,-0x10a0(%rbp)
   16f73:	00 
   16f74:	0f 95 c0             	setne  %al
   16f77:	44 0f b6 e8          	movzbl %al,%r13d
   16f7b:	0f b7 85 e6 ec ff ff 	movzwl -0x131a(%rbp),%eax
   16f82:	0f b7 c0             	movzwl %ax,%eax
   16f85:	89 c6                	mov    %eax,%esi
   16f87:	bf 01 00 00 00       	mov    $0x1,%edi
   16f8c:	e8 74 56 ff ff       	callq  c605 <safe_sub_func_int32_t_s_s>
   16f91:	8b 05 1d e1 00 00    	mov    0xe11d(%rip),%eax        # 250b4 <g_3+0x74>
   16f97:	85 c0                	test   %eax,%eax
   16f99:	0f 9f c0             	setg   %al
   16f9c:	0f b6 c0             	movzbl %al,%eax
   16f9f:	33 85 cc ec ff ff    	xor    -0x1334(%rbp),%eax
   16fa5:	8b 95 04 ed ff ff    	mov    -0x12fc(%rbp),%edx
   16fab:	39 d0                	cmp    %edx,%eax
   16fad:	0f 97 c0             	seta   %al
   16fb0:	0f b6 d0             	movzbl %al,%edx
   16fb3:	0f b6 85 35 f0 ff ff 	movzbl -0xfcb(%rbp),%eax
   16fba:	0f be c0             	movsbl %al,%eax
   16fbd:	89 d6                	mov    %edx,%esi
   16fbf:	89 c7                	mov    %eax,%edi
   16fc1:	e8 0a 5f ff ff       	callq  ced0 <safe_sub_func_uint32_t_u_u>
   16fc6:	8b 95 08 ed ff ff    	mov    -0x12f8(%rbp),%edx
   16fcc:	39 d0                	cmp    %edx,%eax
   16fce:	0f 92 c0             	setb   %al
   16fd1:	0f b6 c0             	movzbl %al,%eax
   16fd4:	be 4c 00 00 00       	mov    $0x4c,%esi
   16fd9:	89 c7                	mov    %eax,%edi
   16fdb:	e8 f4 51 ff ff       	callq  c1d4 <safe_add_func_int8_t_s_s>
   16fe0:	0f be c0             	movsbl %al,%eax
   16fe3:	41 39 c5             	cmp    %eax,%r13d
   16fe6:	0f 95 c0             	setne  %al
   16fe9:	0f b6 c0             	movzbl %al,%eax
   16fec:	41 39 c4             	cmp    %eax,%r12d
   16fef:	0f 9c c0             	setl   %al
   16ff2:	0f b6 d0             	movzbl %al,%edx
   16ff5:	48 8b 85 68 ef ff ff 	mov    -0x1098(%rbp),%rax
   16ffc:	0f b7 00             	movzwl (%rax),%eax
   16fff:	89 c1                	mov    %eax,%ecx
   17001:	89 d0                	mov    %edx,%eax
   17003:	09 c8                	or     %ecx,%eax
   17005:	89 c2                	mov    %eax,%edx
   17007:	48 8b 85 68 ef ff ff 	mov    -0x1098(%rbp),%rax
   1700e:	66 89 10             	mov    %dx,(%rax)
   17011:	48 8b 85 68 ef ff ff 	mov    -0x1098(%rbp),%rax
   17018:	0f b7 00             	movzwl (%rax),%eax
   1701b:	89 c2                	mov    %eax,%edx
   1701d:	48 8b 05 84 29 01 00 	mov    0x12984(%rip),%rax        # 299a8 <g_57>
   17024:	09 d0                	or     %edx,%eax
   17026:	0f b6 c0             	movzbl %al,%eax
   17029:	89 de                	mov    %ebx,%esi
   1702b:	89 c7                	mov    %eax,%edi
   1702d:	e8 a9 5b ff ff       	callq  cbdb <safe_div_func_uint8_t_u_u>
   17032:	0f b6 d0             	movzbl %al,%edx
   17035:	0f b6 85 33 f0 ff ff 	movzbl -0xfcd(%rbp),%eax
   1703c:	0f be c0             	movsbl %al,%eax
   1703f:	09 d0                	or     %edx,%eax
   17041:	89 c2                	mov    %eax,%edx
   17043:	8b 05 43 e1 00 00    	mov    0xe143(%rip),%eax        # 2518c <g_127>
   17049:	39 c2                	cmp    %eax,%edx
   1704b:	0f 96 c0             	setbe  %al
   1704e:	0f b6 c0             	movzbl %al,%eax
   17051:	89 85 f8 ec ff ff    	mov    %eax,-0x1308(%rbp)
   17057:	8b 85 f8 ec ff ff    	mov    -0x1308(%rbp),%eax
   1705d:	89 85 fc ec ff ff    	mov    %eax,-0x1304(%rbp)
   17063:	8b 85 c8 ec ff ff    	mov    -0x1338(%rbp),%eax
   17069:	0f be d0             	movsbl %al,%edx
   1706c:	48 8b 85 60 ef ff ff 	mov    -0x10a0(%rbp),%rax
   17073:	48 8b 08             	mov    (%rax),%rcx
   17076:	48 8b 85 c0 ec ff ff 	mov    -0x1340(%rbp),%rax
   1707d:	48 8b 00             	mov    (%rax),%rax
   17080:	48 09 c1             	or     %rax,%rcx
   17083:	48 8b 85 60 ef ff ff 	mov    -0x10a0(%rbp),%rax
   1708a:	48 89 08             	mov    %rcx,(%rax)
   1708d:	48 8b 85 60 ef ff ff 	mov    -0x10a0(%rbp),%rax
   17094:	48 8b 00             	mov    (%rax),%rax
   17097:	48 85 c0             	test   %rax,%rax
   1709a:	75 0f                	jne    170ab <func_50+0x7b1>
   1709c:	48 8b 85 c0 ec ff ff 	mov    -0x1340(%rbp),%rax
   170a3:	48 8b 00             	mov    (%rax),%rax
   170a6:	48 85 c0             	test   %rax,%rax
   170a9:	74 07                	je     170b2 <func_50+0x7b8>
   170ab:	b8 01 00 00 00       	mov    $0x1,%eax
   170b0:	eb 05                	jmp    170b7 <func_50+0x7bd>
   170b2:	b8 00 00 00 00       	mov    $0x0,%eax
   170b7:	0f be c0             	movsbl %al,%eax
   170ba:	89 d6                	mov    %edx,%esi
   170bc:	89 c7                	mov    %eax,%edi
   170be:	e8 4f 51 ff ff       	callq  c212 <safe_mul_func_int8_t_s_s>
   170c3:	83 c8 69             	or     $0x69,%eax
   170c6:	0f b6 d8             	movzbl %al,%ebx
   170c9:	8b 85 c8 ec ff ff    	mov    -0x1338(%rbp),%eax
   170cf:	44 0f bf e0          	movswl %ax,%r12d
   170d3:	0f b6 85 32 f0 ff ff 	movzbl -0xfce(%rbp),%eax
   170da:	0f be d0             	movsbl %al,%edx
   170dd:	8b 05 cd 28 01 00    	mov    0x128cd(%rip),%eax        # 299b0 <g_145>
   170e3:	0b 85 cc ec ff ff    	or     -0x1334(%rbp),%eax
   170e9:	89 d6                	mov    %edx,%esi
   170eb:	89 c7                	mov    %eax,%edi
   170ed:	e8 c6 5d ff ff       	callq  ceb8 <safe_add_func_uint32_t_u_u>
   170f2:	85 c0                	test   %eax,%eax
   170f4:	0f 95 c0             	setne  %al
   170f7:	0f b6 c0             	movzbl %al,%eax
   170fa:	39 85 c8 ec ff ff    	cmp    %eax,-0x1338(%rbp)
   17100:	0f 95 c0             	setne  %al
   17103:	0f b6 c0             	movzbl %al,%eax
   17106:	44 89 e6             	mov    %r12d,%esi
   17109:	89 c7                	mov    %eax,%edi
   1710b:	e8 e5 52 ff ff       	callq  c3f5 <safe_mul_func_int16_t_s_s>
   17110:	0f b6 c0             	movzbl %al,%eax
   17113:	89 de                	mov    %ebx,%esi
   17115:	89 c7                	mov    %eax,%edi
   17117:	e8 77 5a ff ff       	callq  cb93 <safe_mul_func_uint8_t_u_u>
   1711c:	84 c0                	test   %al,%al
   1711e:	0f 84 ae 13 00 00    	je     184d2 <func_50+0x1bd8>
   17124:	66 c7 85 e8 ec ff ff 	movw   $0x0,-0x1318(%rbp)
   1712b:	00 00 
   1712d:	c7 85 0c ed ff ff 2d 	movl   $0xbcabf82d,-0x12f4(%rbp)
   17134:	f8 ab bc 
   17137:	48 c7 85 80 ef ff ff 	movq   $0x0,-0x1080(%rbp)
   1713e:	00 00 00 00 
   17142:	48 8d 05 8f e0 00 00 	lea    0xe08f(%rip),%rax        # 251d8 <g_453>
   17149:	48 89 85 88 ef ff ff 	mov    %rax,-0x1078(%rbp)
   17150:	48 c7 85 90 ef ff ff 	movq   $0x0,-0x1070(%rbp)
   17157:	00 00 00 00 
   1715b:	48 8d 05 22 e0 00 00 	lea    0xe022(%rip),%rax        # 25184 <g_92>
   17162:	48 89 85 98 ef ff ff 	mov    %rax,-0x1068(%rbp)
   17169:	48 c7 85 a0 ef ff ff 	movq   $0x0,-0x1060(%rbp)
   17170:	00 00 00 00 
   17174:	48 c7 85 e8 ed ff ff 	movq   $0x0,-0x1218(%rbp)
   1717b:	00 00 00 00 
   1717f:	48 8d 85 e8 ed ff ff 	lea    -0x1218(%rbp),%rax
   17186:	48 89 85 a8 ef ff ff 	mov    %rax,-0x1058(%rbp)
   1718d:	c7 85 1c ed ff ff 00 	movl   $0x0,-0x12e4(%rbp)
   17194:	00 00 00 
   17197:	eb 1e                	jmp    171b7 <func_50+0x8bd>
   17199:	8b 85 1c ed ff ff    	mov    -0x12e4(%rbp),%eax
   1719f:	48 98                	cltq   
   171a1:	48 8d 15 0c e0 00 00 	lea    0xe00c(%rip),%rdx        # 251b4 <g_213>
   171a8:	48 89 94 c5 70 f0 ff 	mov    %rdx,-0xf90(%rbp,%rax,8)
   171af:	ff 
   171b0:	83 85 1c ed ff ff 01 	addl   $0x1,-0x12e4(%rbp)
   171b7:	83 bd 1c ed ff ff 04 	cmpl   $0x4,-0x12e4(%rbp)
   171be:	7e d9                	jle    17199 <func_50+0x89f>
   171c0:	c7 05 fe df 00 00 00 	movl   $0x0,0xdffe(%rip)        # 251c8 <g_359>
   171c7:	00 00 00 
   171ca:	e9 91 0b 00 00       	jmpq   17d60 <func_50+0x1466>
   171cf:	c7 85 7c ed ff ff e9 	movl   $0x93a71ce9,-0x1284(%rbp)
   171d6:	1c a7 93 
   171d9:	48 8d 85 04 ed ff ff 	lea    -0x12fc(%rbp),%rax
   171e0:	48 89 85 40 fb ff ff 	mov    %rax,-0x4c0(%rbp)
   171e7:	48 8d 05 c6 df 00 00 	lea    0xdfc6(%rip),%rax        # 251b4 <g_213>
   171ee:	48 89 85 48 fb ff ff 	mov    %rax,-0x4b8(%rbp)
   171f5:	48 c7 85 50 fb ff ff 	movq   $0x0,-0x4b0(%rbp)
   171fc:	00 00 00 00 
   17200:	48 c7 85 58 fb ff ff 	movq   $0x0,-0x4a8(%rbp)
   17207:	00 00 00 00 
   1720b:	48 8d 85 04 ed ff ff 	lea    -0x12fc(%rbp),%rax
   17212:	48 89 85 60 fb ff ff 	mov    %rax,-0x4a0(%rbp)
   17219:	48 c7 85 68 fb ff ff 	movq   $0x0,-0x498(%rbp)
   17220:	00 00 00 00 
   17224:	48 c7 85 70 fb ff ff 	movq   $0x0,-0x490(%rbp)
   1722b:	00 00 00 00 
   1722f:	48 8d 85 04 ed ff ff 	lea    -0x12fc(%rbp),%rax
   17236:	48 89 85 78 fb ff ff 	mov    %rax,-0x488(%rbp)
   1723d:	48 8d 85 04 ed ff ff 	lea    -0x12fc(%rbp),%rax
   17244:	48 89 85 80 fb ff ff 	mov    %rax,-0x480(%rbp)
   1724b:	48 c7 85 88 fb ff ff 	movq   $0x0,-0x478(%rbp)
   17252:	00 00 00 00 
   17256:	48 8d 85 04 ed ff ff 	lea    -0x12fc(%rbp),%rax
   1725d:	48 89 85 90 fb ff ff 	mov    %rax,-0x470(%rbp)
   17264:	48 8d 85 04 ed ff ff 	lea    -0x12fc(%rbp),%rax
   1726b:	48 89 85 98 fb ff ff 	mov    %rax,-0x468(%rbp)
   17272:	48 c7 85 a0 fb ff ff 	movq   $0x0,-0x460(%rbp)
   17279:	00 00 00 00 
   1727d:	48 8d 05 30 df 00 00 	lea    0xdf30(%rip),%rax        # 251b4 <g_213>
   17284:	48 89 85 a8 fb ff ff 	mov    %rax,-0x458(%rbp)
   1728b:	48 c7 85 b0 fb ff ff 	movq   $0x0,-0x450(%rbp)
   17292:	00 00 00 00 
   17296:	48 c7 85 b8 fb ff ff 	movq   $0x0,-0x448(%rbp)
   1729d:	00 00 00 00 
   172a1:	48 8d 05 0c df 00 00 	lea    0xdf0c(%rip),%rax        # 251b4 <g_213>
   172a8:	48 89 85 c0 fb ff ff 	mov    %rax,-0x440(%rbp)
   172af:	48 8d 85 04 ed ff ff 	lea    -0x12fc(%rbp),%rax
   172b6:	48 89 85 c8 fb ff ff 	mov    %rax,-0x438(%rbp)
   172bd:	48 8d 85 04 ed ff ff 	lea    -0x12fc(%rbp),%rax
   172c4:	48 89 85 d0 fb ff ff 	mov    %rax,-0x430(%rbp)
   172cb:	48 8d 85 04 ed ff ff 	lea    -0x12fc(%rbp),%rax
   172d2:	48 89 85 d8 fb ff ff 	mov    %rax,-0x428(%rbp)
   172d9:	48 8d 85 04 ed ff ff 	lea    -0x12fc(%rbp),%rax
   172e0:	48 89 85 e0 fb ff ff 	mov    %rax,-0x420(%rbp)
   172e7:	48 c7 85 e8 fb ff ff 	movq   $0x0,-0x418(%rbp)
   172ee:	00 00 00 00 
   172f2:	48 8d 85 04 ed ff ff 	lea    -0x12fc(%rbp),%rax
   172f9:	48 89 85 f0 fb ff ff 	mov    %rax,-0x410(%rbp)
   17300:	48 8d 85 04 ed ff ff 	lea    -0x12fc(%rbp),%rax
   17307:	48 89 85 f8 fb ff ff 	mov    %rax,-0x408(%rbp)
   1730e:	48 8d 05 9f de 00 00 	lea    0xde9f(%rip),%rax        # 251b4 <g_213>
   17315:	48 89 85 00 fc ff ff 	mov    %rax,-0x400(%rbp)
   1731c:	48 8d 85 04 ed ff ff 	lea    -0x12fc(%rbp),%rax
   17323:	48 89 85 08 fc ff ff 	mov    %rax,-0x3f8(%rbp)
   1732a:	48 8d 85 04 ed ff ff 	lea    -0x12fc(%rbp),%rax
   17331:	48 89 85 10 fc ff ff 	mov    %rax,-0x3f0(%rbp)
   17338:	48 c7 85 18 fc ff ff 	movq   $0x0,-0x3e8(%rbp)
   1733f:	00 00 00 00 
   17343:	48 8d 05 6a de 00 00 	lea    0xde6a(%rip),%rax        # 251b4 <g_213>
   1734a:	48 89 85 20 fc ff ff 	mov    %rax,-0x3e0(%rbp)
   17351:	48 c7 85 28 fc ff ff 	movq   $0x0,-0x3d8(%rbp)
   17358:	00 00 00 00 
   1735c:	48 8d 85 04 ed ff ff 	lea    -0x12fc(%rbp),%rax
   17363:	48 89 85 30 fc ff ff 	mov    %rax,-0x3d0(%rbp)
   1736a:	48 8d 05 43 de 00 00 	lea    0xde43(%rip),%rax        # 251b4 <g_213>
   17371:	48 89 85 38 fc ff ff 	mov    %rax,-0x3c8(%rbp)
   17378:	48 8d 85 04 ed ff ff 	lea    -0x12fc(%rbp),%rax
   1737f:	48 89 85 40 fc ff ff 	mov    %rax,-0x3c0(%rbp)
   17386:	48 8d 85 04 ed ff ff 	lea    -0x12fc(%rbp),%rax
   1738d:	48 89 85 48 fc ff ff 	mov    %rax,-0x3b8(%rbp)
   17394:	48 8d 85 04 ed ff ff 	lea    -0x12fc(%rbp),%rax
   1739b:	48 89 85 50 fc ff ff 	mov    %rax,-0x3b0(%rbp)
   173a2:	48 8d 05 0b de 00 00 	lea    0xde0b(%rip),%rax        # 251b4 <g_213>
   173a9:	48 89 85 58 fc ff ff 	mov    %rax,-0x3a8(%rbp)
   173b0:	48 8d 85 04 ed ff ff 	lea    -0x12fc(%rbp),%rax
   173b7:	48 89 85 60 fc ff ff 	mov    %rax,-0x3a0(%rbp)
   173be:	48 8d 05 ef dd 00 00 	lea    0xddef(%rip),%rax        # 251b4 <g_213>
   173c5:	48 89 85 68 fc ff ff 	mov    %rax,-0x398(%rbp)
   173cc:	48 8d 85 04 ed ff ff 	lea    -0x12fc(%rbp),%rax
   173d3:	48 89 85 70 fc ff ff 	mov    %rax,-0x390(%rbp)
   173da:	48 8d 05 d3 dd 00 00 	lea    0xddd3(%rip),%rax        # 251b4 <g_213>
   173e1:	48 89 85 78 fc ff ff 	mov    %rax,-0x388(%rbp)
   173e8:	48 8d 85 04 ed ff ff 	lea    -0x12fc(%rbp),%rax
   173ef:	48 89 85 80 fc ff ff 	mov    %rax,-0x380(%rbp)
   173f6:	48 8d 85 04 ed ff ff 	lea    -0x12fc(%rbp),%rax
   173fd:	48 89 85 88 fc ff ff 	mov    %rax,-0x378(%rbp)
   17404:	48 8d 05 a9 dd 00 00 	lea    0xdda9(%rip),%rax        # 251b4 <g_213>
   1740b:	48 89 85 90 fc ff ff 	mov    %rax,-0x370(%rbp)
   17412:	48 8d 85 04 ed ff ff 	lea    -0x12fc(%rbp),%rax
   17419:	48 89 85 98 fc ff ff 	mov    %rax,-0x368(%rbp)
   17420:	48 8d 85 04 ed ff ff 	lea    -0x12fc(%rbp),%rax
   17427:	48 89 85 a0 fc ff ff 	mov    %rax,-0x360(%rbp)
   1742e:	48 8d 85 04 ed ff ff 	lea    -0x12fc(%rbp),%rax
   17435:	48 89 85 a8 fc ff ff 	mov    %rax,-0x358(%rbp)
   1743c:	48 8d 05 71 dd 00 00 	lea    0xdd71(%rip),%rax        # 251b4 <g_213>
   17443:	48 89 85 b0 fc ff ff 	mov    %rax,-0x350(%rbp)
   1744a:	48 c7 85 b8 fc ff ff 	movq   $0x0,-0x348(%rbp)
   17451:	00 00 00 00 
   17455:	48 c7 85 c0 fc ff ff 	movq   $0x0,-0x340(%rbp)
   1745c:	00 00 00 00 
   17460:	48 c7 85 c8 fc ff ff 	movq   $0x0,-0x338(%rbp)
   17467:	00 00 00 00 
   1746b:	48 8d 85 04 ed ff ff 	lea    -0x12fc(%rbp),%rax
   17472:	48 89 85 d0 fc ff ff 	mov    %rax,-0x330(%rbp)
   17479:	48 8d 85 04 ed ff ff 	lea    -0x12fc(%rbp),%rax
   17480:	48 89 85 d8 fc ff ff 	mov    %rax,-0x328(%rbp)
   17487:	48 c7 85 e0 fc ff ff 	movq   $0x0,-0x320(%rbp)
   1748e:	00 00 00 00 
   17492:	48 8d 05 1b dd 00 00 	lea    0xdd1b(%rip),%rax        # 251b4 <g_213>
   17499:	48 89 85 e8 fc ff ff 	mov    %rax,-0x318(%rbp)
   174a0:	48 c7 85 f0 fc ff ff 	movq   $0x0,-0x310(%rbp)
   174a7:	00 00 00 00 
   174ab:	48 8d 05 02 dd 00 00 	lea    0xdd02(%rip),%rax        # 251b4 <g_213>
   174b2:	48 89 85 f8 fc ff ff 	mov    %rax,-0x308(%rbp)
   174b9:	c7 85 80 ed ff ff 27 	movl   $0xfe341c27,-0x1280(%rbp)
   174c0:	1c 34 fe 
   174c3:	c7 85 84 ed ff ff 00 	movl   $0x0,-0x127c(%rbp)
   174ca:	00 00 00 
   174cd:	48 8d 85 d8 ed ff ff 	lea    -0x1228(%rbp),%rax
   174d4:	48 89 85 b0 ef ff ff 	mov    %rax,-0x1050(%rbp)
   174db:	8b 05 e7 dc 00 00    	mov    0xdce7(%rip),%eax        # 251c8 <g_359>
   174e1:	8d 50 03             	lea    0x3(%rax),%edx
   174e4:	8b 05 de dc 00 00    	mov    0xdcde(%rip),%eax        # 251c8 <g_359>
   174ea:	48 98                	cltq   
   174ec:	48 63 d2             	movslq %edx,%rdx
   174ef:	48 c1 e2 02          	shl    $0x2,%rdx
   174f3:	48 8d 4d d0          	lea    -0x30(%rbp),%rcx
   174f7:	48 01 ca             	add    %rcx,%rdx
   174fa:	48 01 d0             	add    %rdx,%rax
   174fd:	48 2d a0 0f 00 00    	sub    $0xfa0,%rax
   17503:	0f b6 00             	movzbl (%rax),%eax
   17506:	0f be d0             	movsbl %al,%edx
   17509:	8b 05 b9 dc 00 00    	mov    0xdcb9(%rip),%eax        # 251c8 <g_359>
   1750f:	48 98                	cltq   
   17511:	48 8d 0d ab dc 00 00 	lea    0xdcab(%rip),%rcx        # 251c3 <g_323>
   17518:	0f b6 04 08          	movzbl (%rax,%rcx,1),%eax
   1751c:	0f b6 c0             	movzbl %al,%eax
   1751f:	39 c2                	cmp    %eax,%edx
   17521:	8b 85 cc ec ff ff    	mov    -0x1334(%rbp),%eax
   17527:	89 85 7c ed ff ff    	mov    %eax,-0x1284(%rbp)
   1752d:	8b 85 7c ed ff ff    	mov    -0x1284(%rbp),%eax
   17533:	0f b7 c0             	movzwl %ax,%eax
   17536:	be 85 4b 00 00       	mov    $0x4b85,%esi
   1753b:	89 c7                	mov    %eax,%edi
   1753d:	e8 fb 57 ff ff       	callq  cd3d <safe_mul_func_uint16_t_u_u>
   17542:	0f b7 c0             	movzwl %ax,%eax
   17545:	39 85 cc ec ff ff    	cmp    %eax,-0x1334(%rbp)
   1754b:	8b 05 77 dc 00 00    	mov    0xdc77(%rip),%eax        # 251c8 <g_359>
   17551:	8d 50 03             	lea    0x3(%rax),%edx
   17554:	8b 05 6e dc 00 00    	mov    0xdc6e(%rip),%eax        # 251c8 <g_359>
   1755a:	48 98                	cltq   
   1755c:	48 63 d2             	movslq %edx,%rdx
   1755f:	48 c1 e2 02          	shl    $0x2,%rdx
   17563:	48 8d 4d d0          	lea    -0x30(%rbp),%rcx
   17567:	48 01 ca             	add    %rcx,%rdx
   1756a:	48 01 d0             	add    %rdx,%rax
   1756d:	48 2d a0 0f 00 00    	sub    $0xfa0,%rax
   17573:	0f b6 00             	movzbl (%rax),%eax
   17576:	0f be d8             	movsbl %al,%ebx
   17579:	8b 85 c8 ec ff ff    	mov    -0x1338(%rbp),%eax
   1757f:	98                   	cwtl   
   17580:	be 07 00 00 00       	mov    $0x7,%esi
   17585:	89 c7                	mov    %eax,%edi
   17587:	e8 d7 4f ff ff       	callq  c563 <safe_rshift_func_int16_t_s_u>
   1758c:	66 85 c0             	test   %ax,%ax
   1758f:	74 11                	je     175a2 <func_50+0xca8>
   17591:	48 8b 95 70 f0 ff ff 	mov    -0xf90(%rbp),%rdx
   17598:	48 8b 85 a8 fb ff ff 	mov    -0x458(%rbp),%rax
   1759f:	48 39 c2             	cmp    %rax,%rdx
   175a2:	8b 05 20 dc 00 00    	mov    0xdc20(%rip),%eax        # 251c8 <g_359>
   175a8:	8d 50 03             	lea    0x3(%rax),%edx
   175ab:	8b 05 17 dc 00 00    	mov    0xdc17(%rip),%eax        # 251c8 <g_359>
   175b1:	48 98                	cltq   
   175b3:	48 63 d2             	movslq %edx,%rdx
   175b6:	48 c1 e2 02          	shl    $0x2,%rdx
   175ba:	48 8d 4d d0          	lea    -0x30(%rbp),%rcx
   175be:	48 01 ca             	add    %rcx,%rdx
   175c1:	48 01 d0             	add    %rdx,%rax
   175c4:	48 2d a0 0f 00 00    	sub    $0xfa0,%rax
   175ca:	0f b6 00             	movzbl (%rax),%eax
   175cd:	66 0f be d0          	movsbw %al,%dx
   175d1:	8b 85 80 ed ff ff    	mov    -0x1280(%rbp),%eax
   175d7:	66 23 85 f6 ec ff ff 	and    -0x130a(%rbp),%ax
   175de:	09 d0                	or     %edx,%eax
   175e0:	0f b7 c0             	movzwl %ax,%eax
   175e3:	89 de                	mov    %ebx,%esi
   175e5:	89 c7                	mov    %eax,%edi
   175e7:	e8 1a 58 ff ff       	callq  ce06 <safe_lshift_func_uint16_t_u_u>
   175ec:	66 83 f8 01          	cmp    $0x1,%ax
   175f0:	74 15                	je     17607 <func_50+0xd0d>
   175f2:	0f b7 85 e8 ec ff ff 	movzwl -0x1318(%rbp),%eax
   175f9:	66 85 c0             	test   %ax,%ax
   175fc:	0f 84 1a 03 00 00    	je     1791c <func_50+0x1022>
   17602:	e9 68 07 00 00       	jmpq   17d6f <func_50+0x1475>
   17607:	48 8d 85 40 fb ff ff 	lea    -0x4c0(%rbp),%rax
   1760e:	48 83 c0 68          	add    $0x68,%rax
   17612:	48 89 85 b0 f4 ff ff 	mov    %rax,-0xb50(%rbp)
   17619:	48 8d 85 b0 ed ff ff 	lea    -0x1250(%rbp),%rax
   17620:	48 89 85 b8 f4 ff ff 	mov    %rax,-0xb48(%rbp)
   17627:	48 8d 85 b0 ed ff ff 	lea    -0x1250(%rbp),%rax
   1762e:	48 89 85 c0 f4 ff ff 	mov    %rax,-0xb40(%rbp)
   17635:	48 c7 85 c8 f4 ff ff 	movq   $0x0,-0xb38(%rbp)
   1763c:	00 00 00 00 
   17640:	48 c7 85 d0 f4 ff ff 	movq   $0x0,-0xb30(%rbp)
   17647:	00 00 00 00 
   1764b:	48 c7 85 d8 f4 ff ff 	movq   $0x0,-0xb28(%rbp)
   17652:	00 00 00 00 
   17656:	48 8d 85 40 fb ff ff 	lea    -0x4c0(%rbp),%rax
   1765d:	48 83 c0 68          	add    $0x68,%rax
   17661:	48 89 85 e0 f4 ff ff 	mov    %rax,-0xb20(%rbp)
   17668:	48 8d 85 b0 ed ff ff 	lea    -0x1250(%rbp),%rax
   1766f:	48 89 85 e8 f4 ff ff 	mov    %rax,-0xb18(%rbp)
   17676:	48 8d 85 b0 ed ff ff 	lea    -0x1250(%rbp),%rax
   1767d:	48 89 85 f0 f4 ff ff 	mov    %rax,-0xb10(%rbp)
   17684:	48 c7 85 f8 f4 ff ff 	movq   $0x0,-0xb08(%rbp)
   1768b:	00 00 00 00 
   1768f:	48 c7 85 00 f5 ff ff 	movq   $0x0,-0xb00(%rbp)
   17696:	00 00 00 00 
   1769a:	48 c7 85 08 f5 ff ff 	movq   $0x0,-0xaf8(%rbp)
   176a1:	00 00 00 00 
   176a5:	48 8d 85 40 fb ff ff 	lea    -0x4c0(%rbp),%rax
   176ac:	48 83 c0 68          	add    $0x68,%rax
   176b0:	48 89 85 10 f5 ff ff 	mov    %rax,-0xaf0(%rbp)
   176b7:	48 8d 85 b0 ed ff ff 	lea    -0x1250(%rbp),%rax
   176be:	48 89 85 18 f5 ff ff 	mov    %rax,-0xae8(%rbp)
   176c5:	48 8d 85 b0 ed ff ff 	lea    -0x1250(%rbp),%rax
   176cc:	48 89 85 20 f5 ff ff 	mov    %rax,-0xae0(%rbp)
   176d3:	48 c7 85 28 f5 ff ff 	movq   $0x0,-0xad8(%rbp)
   176da:	00 00 00 00 
   176de:	48 c7 85 30 f5 ff ff 	movq   $0x0,-0xad0(%rbp)
   176e5:	00 00 00 00 
   176e9:	48 c7 85 38 f5 ff ff 	movq   $0x0,-0xac8(%rbp)
   176f0:	00 00 00 00 
   176f4:	48 8d 85 40 fb ff ff 	lea    -0x4c0(%rbp),%rax
   176fb:	48 83 c0 68          	add    $0x68,%rax
   176ff:	48 89 85 40 f5 ff ff 	mov    %rax,-0xac0(%rbp)
   17706:	48 8d 85 b0 ed ff ff 	lea    -0x1250(%rbp),%rax
   1770d:	48 89 85 48 f5 ff ff 	mov    %rax,-0xab8(%rbp)
   17714:	48 8d 85 b0 ed ff ff 	lea    -0x1250(%rbp),%rax
   1771b:	48 89 85 50 f5 ff ff 	mov    %rax,-0xab0(%rbp)
   17722:	48 c7 85 58 f5 ff ff 	movq   $0x0,-0xaa8(%rbp)
   17729:	00 00 00 00 
   1772d:	48 c7 85 60 f5 ff ff 	movq   $0x0,-0xaa0(%rbp)
   17734:	00 00 00 00 
   17738:	48 c7 85 68 f5 ff ff 	movq   $0x0,-0xa98(%rbp)
   1773f:	00 00 00 00 
   17743:	c7 85 20 ed ff ff 00 	movl   $0x0,-0x12e0(%rbp)
   1774a:	00 00 00 
   1774d:	eb 1a                	jmp    17769 <func_50+0xe6f>
   1774f:	8b 85 20 ed ff ff    	mov    -0x12e0(%rbp),%eax
   17755:	48 98                	cltq   
   17757:	c7 84 85 40 f1 ff ff 	movl   $0x1,-0xec0(%rbp,%rax,4)
   1775e:	01 00 00 00 
   17762:	83 85 20 ed ff ff 01 	addl   $0x1,-0x12e0(%rbp)
   17769:	83 bd 20 ed ff ff 09 	cmpl   $0x9,-0x12e0(%rbp)
   17770:	7e dd                	jle    1774f <func_50+0xe55>
   17772:	c7 85 18 ed ff ff 00 	movl   $0x0,-0x12e8(%rbp)
   17779:	00 00 00 
   1777c:	e9 83 01 00 00       	jmpq   17904 <func_50+0x100a>
   17781:	48 8d 05 10 da 00 00 	lea    0xda10(%rip),%rax        # 25198 <g_176>
   17788:	48 89 85 b8 ef ff ff 	mov    %rax,-0x1048(%rbp)
   1778f:	c7 85 88 ed ff ff 00 	movl   $0x0,-0x1278(%rbp)
   17796:	00 00 00 
   17799:	c7 85 24 ed ff ff 00 	movl   $0x0,-0x12dc(%rbp)
   177a0:	00 00 00 
   177a3:	eb 1e                	jmp    177c3 <func_50+0xec9>
   177a5:	8b 85 24 ed ff ff    	mov    -0x12dc(%rbp),%eax
   177ab:	48 98                	cltq   
   177ad:	48 8d 15 64 09 01 00 	lea    0x10964(%rip),%rdx        # 28118 <g_355>
   177b4:	48 89 94 c5 20 f0 ff 	mov    %rdx,-0xfe0(%rbp,%rax,8)
   177bb:	ff 
   177bc:	83 85 24 ed ff ff 01 	addl   $0x1,-0x12dc(%rbp)
   177c3:	83 bd 24 ed ff ff 01 	cmpl   $0x1,-0x12dc(%rbp)
   177ca:	7e d9                	jle    177a5 <func_50+0xeab>
   177cc:	c7 85 24 ed ff ff 00 	movl   $0x0,-0x12dc(%rbp)
   177d3:	00 00 00 
   177d6:	eb 1e                	jmp    177f6 <func_50+0xefc>
   177d8:	8b 85 24 ed ff ff    	mov    -0x12dc(%rbp),%eax
   177de:	48 98                	cltq   
   177e0:	48 8d 95 e8 ec ff ff 	lea    -0x1318(%rbp),%rdx
   177e7:	48 89 94 c5 50 f0 ff 	mov    %rdx,-0xfb0(%rbp,%rax,8)
   177ee:	ff 
   177ef:	83 85 24 ed ff ff 01 	addl   $0x1,-0x12dc(%rbp)
   177f6:	83 bd 24 ed ff ff 01 	cmpl   $0x1,-0x12dc(%rbp)
   177fd:	7e d9                	jle    177d8 <func_50+0xede>
   177ff:	48 8d 05 0a 09 01 00 	lea    0x1090a(%rip),%rax        # 28110 <g_356>
   17806:	48 89 85 10 f5 ff ff 	mov    %rax,-0xaf0(%rbp)
   1780d:	8b 85 0c ed ff ff    	mov    -0x12f4(%rbp),%eax
   17813:	0b 85 c8 ec ff ff    	or     -0x1338(%rbp),%eax
   17819:	89 85 0c ed ff ff    	mov    %eax,-0x12f4(%rbp)
   1781f:	8b 85 88 ed ff ff    	mov    -0x1278(%rbp),%eax
   17825:	0f b7 d8             	movzwl %ax,%ebx
   17828:	48 8b 85 b8 ef ff ff 	mov    -0x1048(%rbp),%rax
   1782f:	48 c7 00 01 00 00 00 	movq   $0x1,(%rax)
   17836:	8b 05 54 d8 00 00    	mov    0xd854(%rip),%eax        # 25090 <g_3+0x50>
   1783c:	85 c0                	test   %eax,%eax
   1783e:	8b 85 c8 ec ff ff    	mov    -0x1338(%rbp),%eax
   17844:	44 0f b6 e0          	movzbl %al,%r12d
   17848:	44 8b ad c8 ec ff ff 	mov    -0x1338(%rbp),%r13d
   1784f:	48 8b 05 aa 08 01 00 	mov    0x108aa(%rip),%rax        # 28100 <g_124>
   17856:	48 8b 00             	mov    (%rax),%rax
   17859:	48 89 c2             	mov    %rax,%rdx
   1785c:	8b 85 0c ed ff ff    	mov    -0x12f4(%rbp),%eax
   17862:	85 c0                	test   %eax,%eax
   17864:	0f 9f c0             	setg   %al
   17867:	0f b6 c0             	movzbl %al,%eax
   1786a:	48 89 d6             	mov    %rdx,%rsi
   1786d:	48 89 c7             	mov    %rax,%rdi
   17870:	e8 0b 58 ff ff       	callq  d080 <safe_mod_func_uint64_t_u_u>
   17875:	8b 15 35 21 01 00    	mov    0x12135(%rip),%edx        # 299b0 <g_145>
   1787b:	89 d2                	mov    %edx,%edx
   1787d:	48 39 d0             	cmp    %rdx,%rax
   17880:	0f 95 c0             	setne  %al
   17883:	0f b6 c0             	movzbl %al,%eax
   17886:	44 89 ee             	mov    %r13d,%esi
   17889:	89 c7                	mov    %eax,%edi
   1788b:	e8 3c 4e ff ff       	callq  c6cc <safe_mod_func_int32_t_s_s>
   17890:	be ff ff ff ff       	mov    $0xffffffff,%esi
   17895:	bf 01 00 00 00       	mov    $0x1,%edi
   1789a:	e8 73 49 ff ff       	callq  c212 <safe_mul_func_int8_t_s_s>
   1789f:	0f be c0             	movsbl %al,%eax
   178a2:	be 0c 00 00 00       	mov    $0xc,%esi
   178a7:	89 c7                	mov    %eax,%edi
   178a9:	e8 7c 4c ff ff       	callq  c52a <safe_rshift_func_int16_t_s_s>
   178ae:	0f bf d0             	movswl %ax,%edx
   178b1:	8b 05 fd d7 00 00    	mov    0xd7fd(%rip),%eax        # 250b4 <g_3+0x74>
   178b7:	39 c2                	cmp    %eax,%edx
   178b9:	0f 9d c0             	setge  %al
   178bc:	0f b6 c0             	movzbl %al,%eax
   178bf:	44 89 e6             	mov    %r12d,%esi
   178c2:	89 c7                	mov    %eax,%edi
   178c4:	e8 12 53 ff ff       	callq  cbdb <safe_div_func_uint8_t_u_u>
   178c9:	80 bd df ec ff ff 01 	cmpb   $0x1,-0x1321(%rbp)
   178d0:	0f 9e c0             	setle  %al
   178d3:	0f b6 c0             	movzbl %al,%eax
   178d6:	89 de                	mov    %ebx,%esi
   178d8:	89 c7                	mov    %eax,%edi
   178da:	e8 20 54 ff ff       	callq  ccff <safe_add_func_uint16_t_u_u>
   178df:	0f b7 d0             	movzwl %ax,%edx
   178e2:	8b 85 fc ec ff ff    	mov    -0x1304(%rbp),%eax
   178e8:	39 c2                	cmp    %eax,%edx
   178ea:	0f 9e c0             	setle  %al
   178ed:	0f b6 c0             	movzbl %al,%eax
   178f0:	89 85 0c ed ff ff    	mov    %eax,-0x12f4(%rbp)
   178f6:	83 bd 84 ed ff ff 00 	cmpl   $0x0,-0x127c(%rbp)
   178fd:	83 85 18 ed ff ff 01 	addl   $0x1,-0x12e8(%rbp)
   17904:	83 bd 18 ed ff ff 03 	cmpl   $0x3,-0x12e8(%rbp)
   1790b:	0f 86 70 fe ff ff    	jbe    17781 <func_50+0xe87>
   17911:	8b 05 4d d8 00 00    	mov    0xd84d(%rip),%eax        # 25164 <g_9>
   17917:	e9 59 2e 00 00       	jmpq   1a775 <func_50+0x3e7b>
   1791c:	48 c7 05 81 20 01 00 	movq   $0x0,0x12081(%rip)        # 299a8 <g_57>
   17923:	00 00 00 00 
   17927:	e9 14 04 00 00       	jmpq   17d40 <func_50+0x1446>
   1792c:	48 8d 85 08 ed ff ff 	lea    -0x12f8(%rbp),%rax
   17933:	48 89 85 b0 f4 ff ff 	mov    %rax,-0xb50(%rbp)
   1793a:	48 8d 85 08 ed ff ff 	lea    -0x12f8(%rbp),%rax
   17941:	48 89 85 b8 f4 ff ff 	mov    %rax,-0xb48(%rbp)
   17948:	48 8d 05 65 d8 00 00 	lea    0xd865(%rip),%rax        # 251b4 <g_213>
   1794f:	48 89 85 c0 f4 ff ff 	mov    %rax,-0xb40(%rbp)
   17956:	48 8d 85 04 ed ff ff 	lea    -0x12fc(%rbp),%rax
   1795d:	48 89 85 c8 f4 ff ff 	mov    %rax,-0xb38(%rbp)
   17964:	48 8d 05 49 d8 00 00 	lea    0xd849(%rip),%rax        # 251b4 <g_213>
   1796b:	48 89 85 d0 f4 ff ff 	mov    %rax,-0xb30(%rbp)
   17972:	48 8d 85 08 ed ff ff 	lea    -0x12f8(%rbp),%rax
   17979:	48 89 85 d8 f4 ff ff 	mov    %rax,-0xb28(%rbp)
   17980:	48 8d 85 08 ed ff ff 	lea    -0x12f8(%rbp),%rax
   17987:	48 89 85 e0 f4 ff ff 	mov    %rax,-0xb20(%rbp)
   1798e:	48 8d 85 08 ed ff ff 	lea    -0x12f8(%rbp),%rax
   17995:	48 89 85 e8 f4 ff ff 	mov    %rax,-0xb18(%rbp)
   1799c:	48 8d 85 08 ed ff ff 	lea    -0x12f8(%rbp),%rax
   179a3:	48 89 85 f0 f4 ff ff 	mov    %rax,-0xb10(%rbp)
   179aa:	48 8d 85 08 ed ff ff 	lea    -0x12f8(%rbp),%rax
   179b1:	48 89 85 f8 f4 ff ff 	mov    %rax,-0xb08(%rbp)
   179b8:	48 8d 85 08 ed ff ff 	lea    -0x12f8(%rbp),%rax
   179bf:	48 89 85 00 f5 ff ff 	mov    %rax,-0xb00(%rbp)
   179c6:	48 8d 85 08 ed ff ff 	lea    -0x12f8(%rbp),%rax
   179cd:	48 89 85 08 f5 ff ff 	mov    %rax,-0xaf8(%rbp)
   179d4:	48 8d 85 08 ed ff ff 	lea    -0x12f8(%rbp),%rax
   179db:	48 89 85 10 f5 ff ff 	mov    %rax,-0xaf0(%rbp)
   179e2:	48 8d 85 08 ed ff ff 	lea    -0x12f8(%rbp),%rax
   179e9:	48 89 85 18 f5 ff ff 	mov    %rax,-0xae8(%rbp)
   179f0:	48 8d 05 bd d7 00 00 	lea    0xd7bd(%rip),%rax        # 251b4 <g_213>
   179f7:	48 89 85 20 f5 ff ff 	mov    %rax,-0xae0(%rbp)
   179fe:	48 8d 85 08 ed ff ff 	lea    -0x12f8(%rbp),%rax
   17a05:	48 89 85 28 f5 ff ff 	mov    %rax,-0xad8(%rbp)
   17a0c:	48 8d 85 08 ed ff ff 	lea    -0x12f8(%rbp),%rax
   17a13:	48 89 85 30 f5 ff ff 	mov    %rax,-0xad0(%rbp)
   17a1a:	48 8d 85 08 ed ff ff 	lea    -0x12f8(%rbp),%rax
   17a21:	48 89 85 38 f5 ff ff 	mov    %rax,-0xac8(%rbp)
   17a28:	48 8d 05 85 d7 00 00 	lea    0xd785(%rip),%rax        # 251b4 <g_213>
   17a2f:	48 89 85 40 f5 ff ff 	mov    %rax,-0xac0(%rbp)
   17a36:	48 8d 85 04 ed ff ff 	lea    -0x12fc(%rbp),%rax
   17a3d:	48 89 85 48 f5 ff ff 	mov    %rax,-0xab8(%rbp)
   17a44:	48 8d 05 69 d7 00 00 	lea    0xd769(%rip),%rax        # 251b4 <g_213>
   17a4b:	48 89 85 50 f5 ff ff 	mov    %rax,-0xab0(%rbp)
   17a52:	48 8d 85 08 ed ff ff 	lea    -0x12f8(%rbp),%rax
   17a59:	48 89 85 58 f5 ff ff 	mov    %rax,-0xaa8(%rbp)
   17a60:	48 8d 85 04 ed ff ff 	lea    -0x12fc(%rbp),%rax
   17a67:	48 89 85 60 f5 ff ff 	mov    %rax,-0xaa0(%rbp)
   17a6e:	48 8d 85 04 ed ff ff 	lea    -0x12fc(%rbp),%rax
   17a75:	48 89 85 68 f5 ff ff 	mov    %rax,-0xa98(%rbp)
   17a7c:	48 8d 85 08 ed ff ff 	lea    -0x12f8(%rbp),%rax
   17a83:	48 89 85 70 f5 ff ff 	mov    %rax,-0xa90(%rbp)
   17a8a:	48 8d 85 04 ed ff ff 	lea    -0x12fc(%rbp),%rax
   17a91:	48 89 85 78 f5 ff ff 	mov    %rax,-0xa88(%rbp)
   17a98:	48 8d 85 04 ed ff ff 	lea    -0x12fc(%rbp),%rax
   17a9f:	48 89 85 80 f5 ff ff 	mov    %rax,-0xa80(%rbp)
   17aa6:	48 8d 85 08 ed ff ff 	lea    -0x12f8(%rbp),%rax
   17aad:	48 89 85 88 f5 ff ff 	mov    %rax,-0xa78(%rbp)
   17ab4:	48 c7 85 90 f5 ff ff 	movq   $0x0,-0xa70(%rbp)
   17abb:	00 00 00 00 
   17abf:	48 8d 85 08 ed ff ff 	lea    -0x12f8(%rbp),%rax
   17ac6:	48 89 85 98 f5 ff ff 	mov    %rax,-0xa68(%rbp)
   17acd:	48 c7 85 a0 f5 ff ff 	movq   $0x0,-0xa60(%rbp)
   17ad4:	00 00 00 00 
   17ad8:	48 8d 05 d5 d6 00 00 	lea    0xd6d5(%rip),%rax        # 251b4 <g_213>
   17adf:	48 89 85 a8 f5 ff ff 	mov    %rax,-0xa58(%rbp)
   17ae6:	48 8d 05 c7 d6 00 00 	lea    0xd6c7(%rip),%rax        # 251b4 <g_213>
   17aed:	48 89 85 b0 f5 ff ff 	mov    %rax,-0xa50(%rbp)
   17af4:	48 8d 05 b9 d6 00 00 	lea    0xd6b9(%rip),%rax        # 251b4 <g_213>
   17afb:	48 89 85 b8 f5 ff ff 	mov    %rax,-0xa48(%rbp)
   17b02:	48 c7 85 c0 f5 ff ff 	movq   $0x0,-0xa40(%rbp)
   17b09:	00 00 00 00 
   17b0d:	c7 85 8c ed ff ff cf 	movl   $0x399abdcf,-0x1274(%rbp)
   17b14:	bd 9a 39 
   17b17:	48 8d 05 82 d6 00 00 	lea    0xd682(%rip),%rax        # 251a0 <g_177>
   17b1e:	48 89 85 c0 ef ff ff 	mov    %rax,-0x1040(%rbp)
   17b25:	c7 85 90 ed ff ff bc 	movl   $0x7328b7bc,-0x1270(%rbp)
   17b2c:	b7 28 73 
   17b2f:	c7 85 94 ed ff ff 07 	movl   $0x7,-0x126c(%rbp)
   17b36:	00 00 00 
   17b39:	48 8d 85 b0 f2 ff ff 	lea    -0xd50(%rbp),%rax
   17b40:	48 83 c0 38          	add    $0x38,%rax
   17b44:	48 89 85 c8 ef ff ff 	mov    %rax,-0x1038(%rbp)
   17b4b:	48 8b 95 d8 ed ff ff 	mov    -0x1228(%rbp),%rdx
   17b52:	48 8b 85 b0 ef ff ff 	mov    -0x1050(%rbp),%rax
   17b59:	48 8b 00             	mov    (%rax),%rax
   17b5c:	48 8b 12             	mov    (%rdx),%rdx
   17b5f:	48 89 10             	mov    %rdx,(%rax)
   17b62:	8b 85 cc ec ff ff    	mov    -0x1334(%rbp),%eax
   17b68:	0f bf d0             	movswl %ax,%edx
   17b6b:	c7 85 8c ed ff ff 01 	movl   $0x1,-0x1274(%rbp)
   17b72:	00 00 00 
   17b75:	8b 05 11 d6 00 00    	mov    0xd611(%rip),%eax        # 2518c <g_127>
   17b7b:	85 c0                	test   %eax,%eax
   17b7d:	0f 95 c0             	setne  %al
   17b80:	0f b6 c8             	movzbl %al,%ecx
   17b83:	0f b6 85 3d f0 ff ff 	movzbl -0xfc3(%rbp),%eax
   17b8a:	48 0f be c0          	movsbq %al,%rax
   17b8e:	48 21 c8             	and    %rcx,%rax
   17b91:	48 85 c0             	test   %rax,%rax
   17b94:	74 10                	je     17ba6 <func_50+0x12ac>
   17b96:	83 bd cc ec ff ff 00 	cmpl   $0x0,-0x1334(%rbp)
   17b9d:	74 07                	je     17ba6 <func_50+0x12ac>
   17b9f:	b8 01 00 00 00       	mov    $0x1,%eax
   17ba4:	eb 05                	jmp    17bab <func_50+0x12b1>
   17ba6:	b8 00 00 00 00       	mov    $0x0,%eax
   17bab:	89 c1                	mov    %eax,%ecx
   17bad:	8b 05 fd 1d 01 00    	mov    0x11dfd(%rip),%eax        # 299b0 <g_145>
   17bb3:	39 c1                	cmp    %eax,%ecx
   17bb5:	0f 95 c0             	setne  %al
   17bb8:	0f b6 c0             	movzbl %al,%eax
   17bbb:	89 d6                	mov    %edx,%esi
   17bbd:	89 c7                	mov    %eax,%edi
   17bbf:	e8 0f 48 ff ff       	callq  c3d3 <safe_sub_func_int16_t_s_s>
   17bc4:	89 c1                	mov    %eax,%ecx
   17bc6:	8b 05 fc d5 00 00    	mov    0xd5fc(%rip),%eax        # 251c8 <g_359>
   17bcc:	48 98                	cltq   
   17bce:	48 8d 15 ee d5 00 00 	lea    0xd5ee(%rip),%rdx        # 251c3 <g_323>
   17bd5:	0f b6 04 10          	movzbl (%rax,%rdx,1),%eax
   17bd9:	89 c2                	mov    %eax,%edx
   17bdb:	89 c8                	mov    %ecx,%eax
   17bdd:	31 c2                	xor    %eax,%edx
   17bdf:	8b 05 e3 d5 00 00    	mov    0xd5e3(%rip),%eax        # 251c8 <g_359>
   17be5:	89 d6                	mov    %edx,%esi
   17be7:	48 63 d0             	movslq %eax,%rdx
   17bea:	48 8d 0d d2 d5 00 00 	lea    0xd5d2(%rip),%rcx        # 251c3 <g_323>
   17bf1:	40 88 34 0a          	mov    %sil,(%rdx,%rcx,1)
   17bf5:	48 98                	cltq   
   17bf7:	48 8d 15 c5 d5 00 00 	lea    0xd5c5(%rip),%rdx        # 251c3 <g_323>
   17bfe:	0f b6 14 10          	movzbl (%rax,%rdx,1),%edx
   17c02:	48 8b 85 c0 ef ff ff 	mov    -0x1040(%rbp),%rax
   17c09:	0f b6 00             	movzbl (%rax),%eax
   17c0c:	09 c2                	or     %eax,%edx
   17c0e:	48 8b 85 c0 ef ff ff 	mov    -0x1040(%rbp),%rax
   17c15:	88 10                	mov    %dl,(%rax)
   17c17:	48 8b 85 c0 ef ff ff 	mov    -0x1040(%rbp),%rax
   17c1e:	0f b6 00             	movzbl (%rax),%eax
   17c21:	0f be d8             	movsbl %al,%ebx
   17c24:	8b 85 0c ed ff ff    	mov    -0x12f4(%rbp),%eax
   17c2a:	48 98                	cltq   
   17c2c:	48 be 6a a3 b4 b2 7a 	movabs $0xdddf1c7ab2b4a36a,%rsi
   17c33:	1c df dd 
   17c36:	48 89 c7             	mov    %rax,%rdi
   17c39:	e8 f0 53 ff ff       	callq  d02e <safe_add_func_uint64_t_u_u>
   17c3e:	0f be c0             	movsbl %al,%eax
   17c41:	89 de                	mov    %ebx,%esi
   17c43:	89 c7                	mov    %eax,%edi
   17c45:	e8 c8 45 ff ff       	callq  c212 <safe_mul_func_int8_t_s_s>
   17c4a:	0f be d0             	movsbl %al,%edx
   17c4d:	8b 05 51 d4 00 00    	mov    0xd451(%rip),%eax        # 250a4 <g_3+0x64>
   17c53:	39 c2                	cmp    %eax,%edx
   17c55:	0f 9d c0             	setge  %al
   17c58:	0f b6 c0             	movzbl %al,%eax
   17c5b:	89 c6                	mov    %eax,%esi
   17c5d:	bf 80 df 00 00       	mov    $0xdf80,%edi
   17c62:	e8 d6 50 ff ff       	callq  cd3d <safe_mul_func_uint16_t_u_u>
   17c67:	89 c6                	mov    %eax,%esi
   17c69:	8b 85 90 ed ff ff    	mov    -0x1270(%rbp),%eax
   17c6f:	89 c1                	mov    %eax,%ecx
   17c71:	8b 05 51 d5 00 00    	mov    0xd551(%rip),%eax        # 251c8 <g_359>
   17c77:	8d 50 02             	lea    0x2(%rax),%edx
   17c7a:	8b 05 48 d5 00 00    	mov    0xd548(%rip),%eax        # 251c8 <g_359>
   17c80:	21 ce                	and    %ecx,%esi
   17c82:	48 63 c8             	movslq %eax,%rcx
   17c85:	48 63 fa             	movslq %edx,%rdi
   17c88:	48 c1 e7 02          	shl    $0x2,%rdi
   17c8c:	48 8d 5d d0          	lea    -0x30(%rbp),%rbx
   17c90:	48 01 df             	add    %rbx,%rdi
   17c93:	48 01 f9             	add    %rdi,%rcx
   17c96:	48 81 e9 a0 0f 00 00 	sub    $0xfa0,%rcx
   17c9d:	40 88 31             	mov    %sil,(%rcx)
   17ca0:	48 98                	cltq   
   17ca2:	48 63 d2             	movslq %edx,%rdx
   17ca5:	48 c1 e2 02          	shl    $0x2,%rdx
   17ca9:	48 8d 4d d0          	lea    -0x30(%rbp),%rcx
   17cad:	48 01 ca             	add    %rcx,%rdx
   17cb0:	48 01 d0             	add    %rdx,%rax
   17cb3:	48 2d a0 0f 00 00    	sub    $0xfa0,%rax
   17cb9:	0f b6 00             	movzbl (%rax),%eax
   17cbc:	0f be c0             	movsbl %al,%eax
   17cbf:	be ff ff ff ff       	mov    $0xffffffff,%esi
   17cc4:	89 c7                	mov    %eax,%edi
   17cc6:	e8 47 45 ff ff       	callq  c212 <safe_mul_func_int8_t_s_s>
   17ccb:	0f be c0             	movsbl %al,%eax
   17cce:	21 85 94 ed ff ff    	and    %eax,-0x126c(%rbp)
   17cd4:	8b 85 94 ed ff ff    	mov    -0x126c(%rbp),%eax
   17cda:	48 63 d0             	movslq %eax,%rdx
   17cdd:	48 8b 85 c0 ec ff ff 	mov    -0x1340(%rbp),%rax
   17ce4:	48 8b 00             	mov    (%rax),%rax
   17ce7:	48 39 c2             	cmp    %rax,%rdx
   17cea:	0f 9f c0             	setg   %al
   17ced:	0f b6 d0             	movzbl %al,%edx
   17cf0:	8b 05 c2 d4 00 00    	mov    0xd4c2(%rip),%eax        # 251b8 <g_217>
   17cf6:	21 d0                	and    %edx,%eax
   17cf8:	89 05 ba d4 00 00    	mov    %eax,0xd4ba(%rip)        # 251b8 <g_217>
   17cfe:	48 8b 85 c8 ef ff ff 	mov    -0x1038(%rbp),%rax
   17d05:	48 8d 15 7c d4 00 00 	lea    0xd47c(%rip),%rdx        # 25188 <g_98>
   17d0c:	48 89 10             	mov    %rdx,(%rax)
   17d0f:	48 8d 85 f8 ec ff ff 	lea    -0x1308(%rbp),%rax
   17d16:	48 89 05 9b 1c 01 00 	mov    %rax,0x11c9b(%rip)        # 299b8 <g_340>
   17d1d:	48 8b 85 c8 ef ff ff 	mov    -0x1038(%rbp),%rax
   17d24:	48 8d 15 3d d4 00 00 	lea    0xd43d(%rip),%rdx        # 25168 <g_12>
   17d2b:	48 89 10             	mov    %rdx,(%rax)
   17d2e:	48 8b 05 73 1c 01 00 	mov    0x11c73(%rip),%rax        # 299a8 <g_57>
   17d35:	48 83 c0 01          	add    $0x1,%rax
   17d39:	48 89 05 68 1c 01 00 	mov    %rax,0x11c68(%rip)        # 299a8 <g_57>
   17d40:	48 8b 05 61 1c 01 00 	mov    0x11c61(%rip),%rax        # 299a8 <g_57>
   17d47:	48 83 f8 01          	cmp    $0x1,%rax
   17d4b:	0f 8e db fb ff ff    	jle    1792c <func_50+0x1032>
   17d51:	8b 05 71 d4 00 00    	mov    0xd471(%rip),%eax        # 251c8 <g_359>
   17d57:	83 c0 01             	add    $0x1,%eax
   17d5a:	89 05 68 d4 00 00    	mov    %eax,0xd468(%rip)        # 251c8 <g_359>
   17d60:	8b 05 62 d4 00 00    	mov    0xd462(%rip),%eax        # 251c8 <g_359>
   17d66:	83 f8 01             	cmp    $0x1,%eax
   17d69:	0f 8e 60 f4 ff ff    	jle    171cf <func_50+0x8d5>
   17d6f:	8b 85 cc ec ff ff    	mov    -0x1334(%rbp),%eax
   17d75:	0f be d8             	movsbl %al,%ebx
   17d78:	8b 05 ea d3 00 00    	mov    0xd3ea(%rip),%eax        # 25168 <g_12>
   17d7e:	89 c2                	mov    %eax,%edx
   17d80:	0f b7 85 e8 ec ff ff 	movzwl -0x1318(%rbp),%eax
   17d87:	0f be c0             	movsbl %al,%eax
   17d8a:	89 d6                	mov    %edx,%esi
   17d8c:	89 c7                	mov    %eax,%edi
   17d8e:	e8 d9 45 ff ff       	callq  c36c <safe_rshift_func_int8_t_s_u>
   17d93:	0f be c0             	movsbl %al,%eax
   17d96:	89 de                	mov    %ebx,%esi
   17d98:	89 c7                	mov    %eax,%edi
   17d9a:	e8 cb 44 ff ff       	callq  c26a <safe_div_func_int8_t_s_s>
   17d9f:	be ff ff ff ff       	mov    $0xffffffff,%esi
   17da4:	bf 00 00 00 00       	mov    $0x0,%edi
   17da9:	e8 83 44 ff ff       	callq  c231 <safe_mod_func_int8_t_s_s>
   17dae:	48 8b 85 88 ef ff ff 	mov    -0x1078(%rbp),%rax
   17db5:	66 c7 00 01 00       	movw   $0x1,(%rax)
   17dba:	48 8b 85 88 ef ff ff 	mov    -0x1078(%rbp),%rax
   17dc1:	0f b7 00             	movzwl (%rax),%eax
   17dc4:	98                   	cwtl   
   17dc5:	89 c6                	mov    %eax,%esi
   17dc7:	bf 01 00 00 00       	mov    $0x1,%edi
   17dcc:	e8 45 46 ff ff       	callq  c416 <safe_mod_func_int16_t_s_s>
   17dd1:	48 8b 05 28 03 01 00 	mov    0x10328(%rip),%rax        # 28100 <g_124>
   17dd8:	48 c7 00 01 00 00 00 	movq   $0x1,(%rax)
   17ddf:	48 8b 00             	mov    (%rax),%rax
   17de2:	48 89 c7             	mov    %rax,%rdi
   17de5:	e8 2c 4a ff ff       	callq  c816 <safe_unary_minus_func_int64_t_s>
   17dea:	89 85 0c ed ff ff    	mov    %eax,-0x12f4(%rbp)
   17df0:	8b 85 0c ed ff ff    	mov    -0x12f4(%rbp),%eax
   17df6:	89 85 f8 ec ff ff    	mov    %eax,-0x1308(%rbp)
   17dfc:	c7 85 f8 ec ff ff 00 	movl   $0x0,-0x1308(%rbp)
   17e03:	00 00 00 
   17e06:	e9 f7 04 00 00       	jmpq   18302 <func_50+0x1a08>
   17e0b:	48 8d 85 04 ed ff ff 	lea    -0x12fc(%rbp),%rax
   17e12:	48 89 85 f0 ed ff ff 	mov    %rax,-0x1210(%rbp)
   17e19:	48 8d 85 b0 f4 ff ff 	lea    -0xb50(%rbp),%rax
   17e20:	48 83 c0 18          	add    $0x18,%rax
   17e24:	48 89 85 f8 ed ff ff 	mov    %rax,-0x1208(%rbp)
   17e2b:	48 8d 85 f8 ed ff ff 	lea    -0x1208(%rbp),%rax
   17e32:	48 89 85 00 ee ff ff 	mov    %rax,-0x1200(%rbp)
   17e39:	48 8d 85 00 ee ff ff 	lea    -0x1200(%rbp),%rax
   17e40:	48 89 85 d0 ef ff ff 	mov    %rax,-0x1030(%rbp)
   17e47:	c7 85 98 ed ff ff 81 	movl   $0x37ed4d81,-0x1268(%rbp)
   17e4e:	4d ed 37 
   17e51:	48 8d 85 e6 ec ff ff 	lea    -0x131a(%rbp),%rax
   17e58:	48 89 85 d8 ef ff ff 	mov    %rax,-0x1028(%rbp)
   17e5f:	48 8d 85 e8 ec ff ff 	lea    -0x1318(%rbp),%rax
   17e66:	48 89 85 e0 ef ff ff 	mov    %rax,-0x1020(%rbp)
   17e6d:	48 8d 05 48 d3 00 00 	lea    0xd348(%rip),%rax        # 251bc <g_248>
   17e74:	48 89 85 e8 ef ff ff 	mov    %rax,-0x1018(%rbp)
   17e7b:	c7 85 9c ed ff ff 00 	movl   $0x0,-0x1264(%rbp)
   17e82:	00 00 00 
   17e85:	c7 85 a0 ed ff ff 65 	movl   $0x5c710d65,-0x1260(%rbp)
   17e8c:	0d 71 5c 
   17e8f:	c7 85 a4 ed ff ff 16 	movl   $0x20aaa16,-0x125c(%rbp)
   17e96:	aa 0a 02 
   17e99:	c7 85 28 ed ff ff 00 	movl   $0x0,-0x12d8(%rbp)
   17ea0:	00 00 00 
   17ea3:	eb 1e                	jmp    17ec3 <func_50+0x15c9>
   17ea5:	8b 85 28 ed ff ff    	mov    -0x12d8(%rbp),%eax
   17eab:	48 98                	cltq   
   17ead:	48 8d 95 f0 ed ff ff 	lea    -0x1210(%rbp),%rdx
   17eb4:	48 89 94 c5 b0 f4 ff 	mov    %rdx,-0xb50(%rbp,%rax,8)
   17ebb:	ff 
   17ebc:	83 85 28 ed ff ff 01 	addl   $0x1,-0x12d8(%rbp)
   17ec3:	83 bd 28 ed ff ff 03 	cmpl   $0x3,-0x12d8(%rbp)
   17eca:	7e d9                	jle    17ea5 <func_50+0x15ab>
   17ecc:	48 8b 85 d0 ef ff ff 	mov    -0x1030(%rbp),%rax
   17ed3:	48 c7 00 00 00 00 00 	movq   $0x0,(%rax)
   17eda:	8b 95 c8 ec ff ff    	mov    -0x1338(%rbp),%edx
   17ee0:	8b 85 98 ed ff ff    	mov    -0x1268(%rbp),%eax
   17ee6:	0f b6 c0             	movzbl %al,%eax
   17ee9:	89 d6                	mov    %edx,%esi
   17eeb:	89 c7                	mov    %eax,%edi
   17eed:	e8 13 4d ff ff       	callq  cc05 <safe_lshift_func_uint8_t_u_s>
   17ef2:	44 0f b6 e0          	movzbl %al,%r12d
   17ef6:	0f b6 05 a3 d2 00 00 	movzbl 0xd2a3(%rip),%eax        # 251a0 <g_177>
   17efd:	0f b6 d8             	movzbl %al,%ebx
   17f00:	48 8b 85 d8 ef ff ff 	mov    -0x1028(%rbp),%rax
   17f07:	0f b7 00             	movzwl (%rax),%eax
   17f0a:	8b 95 18 ed ff ff    	mov    -0x12e8(%rbp),%edx
   17f10:	09 c2                	or     %eax,%edx
   17f12:	48 8b 85 d8 ef ff ff 	mov    -0x1028(%rbp),%rax
   17f19:	66 89 10             	mov    %dx,(%rax)
   17f1c:	48 8b 85 d8 ef ff ff 	mov    -0x1028(%rbp),%rax
   17f23:	0f b7 00             	movzwl (%rax),%eax
   17f26:	66 85 c0             	test   %ax,%ax
   17f29:	74 6d                	je     17f98 <func_50+0x169e>
   17f2b:	48 8b 85 50 ef ff ff 	mov    -0x10b0(%rbp),%rax
   17f32:	c6 00 f6             	movb   $0xf6,(%rax)
   17f35:	0f b7 05 84 d2 00 00 	movzwl 0xd284(%rip),%eax        # 251c0 <g_266>
   17f3c:	8d 50 01             	lea    0x1(%rax),%edx
   17f3f:	66 89 15 7a d2 00 00 	mov    %dx,0xd27a(%rip)        # 251c0 <g_266>
   17f46:	0f b7 d0             	movzwl %ax,%edx
   17f49:	8b 05 6d d2 00 00    	mov    0xd26d(%rip),%eax        # 251bc <g_248>
   17f4f:	39 85 c8 ec ff ff    	cmp    %eax,-0x1338(%rbp)
   17f55:	0f 95 c0             	setne  %al
   17f58:	0f b6 c0             	movzbl %al,%eax
   17f5b:	39 c2                	cmp    %eax,%edx
   17f5d:	0f 95 c0             	setne  %al
   17f60:	0f b6 c0             	movzbl %al,%eax
   17f63:	89 85 0c ed ff ff    	mov    %eax,-0x12f4(%rbp)
   17f69:	8b 85 0c ed ff ff    	mov    -0x12f4(%rbp),%eax
   17f6f:	83 f8 ff             	cmp    $0xffffffff,%eax
   17f72:	74 07                	je     17f7b <func_50+0x1681>
   17f74:	b8 f7 ff ff ff       	mov    $0xfffffff7,%eax
   17f79:	eb 05                	jmp    17f80 <func_50+0x1686>
   17f7b:	b8 f6 ff ff ff       	mov    $0xfffffff6,%eax
   17f80:	be fd ff ff ff       	mov    $0xfffffffd,%esi
   17f85:	89 c7                	mov    %eax,%edi
   17f87:	e8 47 44 ff ff       	callq  c3d3 <safe_sub_func_int16_t_s_s>
   17f8c:	66 85 c0             	test   %ax,%ax
   17f8f:	74 07                	je     17f98 <func_50+0x169e>
   17f91:	b8 01 00 00 00       	mov    $0x1,%eax
   17f96:	eb 05                	jmp    17f9d <func_50+0x16a3>
   17f98:	b8 00 00 00 00       	mov    $0x0,%eax
   17f9d:	48 98                	cltq   
   17f9f:	48 89 c6             	mov    %rax,%rsi
   17fa2:	bf 09 00 00 00       	mov    $0x9,%edi
   17fa7:	e8 9f 50 ff ff       	callq  d04b <safe_sub_func_uint64_t_u_u>
   17fac:	8b 95 c8 ec ff ff    	mov    -0x1338(%rbp),%edx
   17fb2:	48 8b 85 e0 ef ff ff 	mov    -0x1020(%rbp),%rax
   17fb9:	0f b7 00             	movzwl (%rax),%eax
   17fbc:	31 c2                	xor    %eax,%edx
   17fbe:	48 8b 85 e0 ef ff ff 	mov    -0x1020(%rbp),%rax
   17fc5:	66 89 10             	mov    %dx,(%rax)
   17fc8:	48 8b 85 e0 ef ff ff 	mov    -0x1020(%rbp),%rax
   17fcf:	0f b7 00             	movzwl (%rax),%eax
   17fd2:	0f b7 d0             	movzwl %ax,%edx
   17fd5:	48 8b 85 68 ef ff ff 	mov    -0x1098(%rbp),%rax
   17fdc:	0f b7 00             	movzwl (%rax),%eax
   17fdf:	89 c1                	mov    %eax,%ecx
   17fe1:	8b 05 9d d1 00 00    	mov    0xd19d(%rip),%eax        # 25184 <g_92>
   17fe7:	09 c8                	or     %ecx,%eax
   17fe9:	89 c1                	mov    %eax,%ecx
   17feb:	48 8b 85 68 ef ff ff 	mov    -0x1098(%rbp),%rax
   17ff2:	66 89 08             	mov    %cx,(%rax)
   17ff5:	48 8b 85 68 ef ff ff 	mov    -0x1098(%rbp),%rax
   17ffc:	0f b7 00             	movzwl (%rax),%eax
   17fff:	0f b7 c0             	movzwl %ax,%eax
   18002:	89 d6                	mov    %edx,%esi
   18004:	89 c7                	mov    %eax,%edi
   18006:	e8 14 4d ff ff       	callq  cd1f <safe_sub_func_uint16_t_u_u>
   1800b:	0f b7 d0             	movzwl %ax,%edx
   1800e:	8b 85 f8 ec ff ff    	mov    -0x1308(%rbp),%eax
   18014:	39 c2                	cmp    %eax,%edx
   18016:	0f 9f c0             	setg   %al
   18019:	0f b6 d0             	movzbl %al,%edx
   1801c:	48 8b 85 e8 ef ff ff 	mov    -0x1018(%rbp),%rax
   18023:	89 10                	mov    %edx,(%rax)
   18025:	89 de                	mov    %ebx,%esi
   18027:	bf 00 00 00 00       	mov    $0x0,%edi
   1802c:	e8 49 4e ff ff       	callq  ce7a <safe_rshift_func_uint16_t_u_u>
   18031:	48 8d 05 68 d1 00 00 	lea    0xd168(%rip),%rax        # 251a0 <g_177>
   18038:	48 39 85 90 ef ff ff 	cmp    %rax,-0x1070(%rbp)
   1803f:	0f 95 c0             	setne  %al
   18042:	0f b6 c0             	movzbl %al,%eax
   18045:	be 02 00 00 00       	mov    $0x2,%esi
   1804a:	48 89 c7             	mov    %rax,%rdi
   1804d:	e8 62 49 ff ff       	callq  c9b4 <safe_mod_func_int64_t_s_s>
   18052:	49 39 c4             	cmp    %rax,%r12
   18055:	0f 95 c0             	setne  %al
   18058:	0f b6 d0             	movzbl %al,%edx
   1805b:	8b 05 6b d0 00 00    	mov    0xd06b(%rip),%eax        # 250cc <g_3+0x8c>
   18061:	09 d0                	or     %edx,%eax
   18063:	85 c0                	test   %eax,%eax
   18065:	0f 84 30 02 00 00    	je     1829b <func_50+0x19a1>
   1806b:	66 c7 85 ea ec ff ff 	movw   $0xffff,-0x1316(%rbp)
   18072:	ff ff 
   18074:	c7 85 ac ed ff ff 08 	movl   $0x8,-0x1254(%rbp)
   1807b:	00 00 00 
   1807e:	c7 05 00 d1 00 00 e6 	movl   $0xffffffe6,0xd100(%rip)        # 25188 <g_98>
   18085:	ff ff ff 
   18088:	eb 53                	jmp    180dd <func_50+0x17e3>
   1808a:	48 b8 b0 cf fb ae 5e 	movabs $0xab10585eaefbcfb0,%rax
   18091:	58 10 ab 
   18094:	48 89 85 08 f0 ff ff 	mov    %rax,-0xff8(%rbp)
   1809b:	48 8d 85 b0 f2 ff ff 	lea    -0xd50(%rbp),%rax
   180a2:	48 83 c0 38          	add    $0x38,%rax
   180a6:	48 89 85 10 f0 ff ff 	mov    %rax,-0xff0(%rbp)
   180ad:	48 83 ad 08 f0 ff ff 	subq   $0x1,-0xff8(%rbp)
   180b4:	01 
   180b5:	66 83 85 ea ec ff ff 	addw   $0x1,-0x1316(%rbp)
   180bc:	01 
   180bd:	48 8b 85 10 f0 ff ff 	mov    -0xff0(%rbp),%rax
   180c4:	48 8d 15 9d d0 00 00 	lea    0xd09d(%rip),%rdx        # 25168 <g_12>
   180cb:	48 89 10             	mov    %rdx,(%rax)
   180ce:	8b 05 b4 d0 00 00    	mov    0xd0b4(%rip),%eax        # 25188 <g_98>
   180d4:	83 c0 01             	add    $0x1,%eax
   180d7:	89 05 ab d0 00 00    	mov    %eax,0xd0ab(%rip)        # 25188 <g_98>
   180dd:	8b 05 a5 d0 00 00    	mov    0xd0a5(%rip),%eax        # 25188 <g_98>
   180e3:	83 f8 fc             	cmp    $0xfffffffc,%eax
   180e6:	7c a2                	jl     1808a <func_50+0x1790>
   180e8:	8b 9d cc ec ff ff    	mov    -0x1334(%rbp),%ebx
   180ee:	48 83 bd 70 ef ff ff 	cmpq   $0x0,-0x1090(%rbp)
   180f5:	00 
   180f6:	0f 95 c0             	setne  %al
   180f9:	44 0f b6 e0          	movzbl %al,%r12d
   180fd:	48 8b 05 04 00 01 00 	mov    0x10004(%rip),%rax        # 28108 <g_311>
   18104:	0f b6 00             	movzbl (%rax),%eax
   18107:	0f b6 d0             	movzbl %al,%edx
   1810a:	0f b7 85 e8 ec ff ff 	movzwl -0x1318(%rbp),%eax
   18111:	66 39 85 ea ec ff ff 	cmp    %ax,-0x1316(%rbp)
   18118:	0f 96 c0             	setbe  %al
   1811b:	0f b6 c0             	movzbl %al,%eax
   1811e:	89 d6                	mov    %edx,%esi
   18120:	89 c7                	mov    %eax,%edi
   18122:	e8 6c 4a ff ff       	callq  cb93 <safe_mul_func_uint8_t_u_u>
   18127:	0f b6 c0             	movzbl %al,%eax
   1812a:	44 89 e6             	mov    %r12d,%esi
   1812d:	89 c7                	mov    %eax,%edi
   1812f:	e8 84 4d ff ff       	callq  ceb8 <safe_add_func_uint32_t_u_u>
   18134:	41 89 c4             	mov    %eax,%r12d
   18137:	be 0f 00 00 00       	mov    $0xf,%esi
   1813c:	bf 30 5c 00 00       	mov    $0x5c30,%edi
   18141:	e8 1d 44 ff ff       	callq  c563 <safe_rshift_func_int16_t_s_u>
   18146:	98                   	cwtl   
   18147:	41 39 c4             	cmp    %eax,%r12d
   1814a:	0f 92 c0             	setb   %al
   1814d:	0f b6 d0             	movzbl %al,%edx
   18150:	8b 85 fc ec ff ff    	mov    -0x1304(%rbp),%eax
   18156:	09 d0                	or     %edx,%eax
   18158:	89 85 fc ec ff ff    	mov    %eax,-0x1304(%rbp)
   1815e:	8b 85 fc ec ff ff    	mov    -0x1304(%rbp),%eax
   18164:	21 85 ac ed ff ff    	and    %eax,-0x1254(%rbp)
   1816a:	8b 05 6c d0 00 00    	mov    0xd06c(%rip),%eax        # 251dc <g_508>
   18170:	39 85 ac ed ff ff    	cmp    %eax,-0x1254(%rbp)
   18176:	0f 9c c0             	setl   %al
   18179:	0f b6 c0             	movzbl %al,%eax
   1817c:	48 be df f4 6d db ed 	movabs $0x80d83eeddb6df4df,%rsi
   18183:	3e d8 80 
   18186:	48 89 c7             	mov    %rax,%rdi
   18189:	e8 bd 4e ff ff       	callq  d04b <safe_sub_func_uint64_t_u_u>
   1818e:	48 8b 05 73 ff 00 00 	mov    0xff73(%rip),%rax        # 28108 <g_311>
   18195:	0f b6 00             	movzbl (%rax),%eax
   18198:	0f b6 c0             	movzbl %al,%eax
   1819b:	89 c6                	mov    %eax,%esi
   1819d:	bf 40 00 00 00       	mov    $0x40,%edi
   181a2:	e8 ec 49 ff ff       	callq  cb93 <safe_mul_func_uint8_t_u_u>
   181a7:	0f b6 c0             	movzbl %al,%eax
   181aa:	39 85 18 ed ff ff    	cmp    %eax,-0x12e8(%rbp)
   181b0:	0f 97 c0             	seta   %al
   181b3:	0f b6 c0             	movzbl %al,%eax
   181b6:	be ff ff ff ff       	mov    $0xffffffff,%esi
   181bb:	89 c7                	mov    %eax,%edi
   181bd:	e8 11 42 ff ff       	callq  c3d3 <safe_sub_func_int16_t_s_s>
   181c2:	0f bf d0             	movswl %ax,%edx
   181c5:	48 8b 85 e8 ef ff ff 	mov    -0x1018(%rbp),%rax
   181cc:	89 10                	mov    %edx,(%rax)
   181ce:	48 8b 85 e8 ef ff ff 	mov    -0x1018(%rbp),%rax
   181d5:	8b 00                	mov    (%rax),%eax
   181d7:	85 c0                	test   %eax,%eax
   181d9:	0f 95 c0             	setne  %al
   181dc:	0f b6 c0             	movzbl %al,%eax
   181df:	48 89 de             	mov    %rbx,%rsi
   181e2:	48 89 c7             	mov    %rax,%rdi
   181e5:	e8 ca 47 ff ff       	callq  c9b4 <safe_mod_func_int64_t_s_s>
   181ea:	0f be c0             	movsbl %al,%eax
   181ed:	be 04 00 00 00       	mov    $0x4,%esi
   181f2:	89 c7                	mov    %eax,%edi
   181f4:	e8 38 40 ff ff       	callq  c231 <safe_mod_func_int8_t_s_s>
   181f9:	3c 02                	cmp    $0x2,%al
   181fb:	74 48                	je     18245 <func_50+0x194b>
   181fd:	48 c7 85 f8 ef ff ff 	movq   $0x0,-0x1008(%rbp)
   18204:	00 00 00 00 
   18208:	48 8d 85 b0 f2 ff ff 	lea    -0xd50(%rbp),%rax
   1820f:	48 83 c0 38          	add    $0x38,%rax
   18213:	48 89 85 00 f0 ff ff 	mov    %rax,-0x1000(%rbp)
   1821a:	48 8d 85 0c ed ff ff 	lea    -0x12f4(%rbp),%rax
   18221:	48 89 85 98 ef ff ff 	mov    %rax,-0x1068(%rbp)
   18228:	48 8b 85 00 f0 ff ff 	mov    -0x1000(%rbp),%rax
   1822f:	48 8b 95 98 ef ff ff 	mov    -0x1068(%rbp),%rdx
   18236:	48 89 10             	mov    %rdx,(%rax)
   18239:	c7 05 99 cf 00 00 e2 	movl   $0xffffffe2,0xcf99(%rip)        # 251dc <g_508>
   18240:	ff ff ff 
   18243:	eb 3e                	jmp    18283 <func_50+0x1989>
   18245:	83 bd cc ec ff ff 00 	cmpl   $0x0,-0x1334(%rbp)
   1824c:	0f 85 c1 00 00 00    	jne    18313 <func_50+0x1a19>
   18252:	0f b7 85 ea ec ff ff 	movzwl -0x1316(%rbp),%eax
   18259:	e9 17 25 00 00       	jmpq   1a775 <func_50+0x3e7b>
   1825e:	8b 05 20 cf 00 00    	mov    0xcf20(%rip),%eax        # 25184 <g_92>
   18264:	85 c0                	test   %eax,%eax
   18266:	75 27                	jne    1828f <func_50+0x1995>
   18268:	8b 05 6e cf 00 00    	mov    0xcf6e(%rip),%eax        # 251dc <g_508>
   1826e:	48 98                	cltq   
   18270:	be 09 00 00 00       	mov    $0x9,%esi
   18275:	48 89 c7             	mov    %rax,%rdi
   18278:	e8 b1 4d ff ff       	callq  d02e <safe_add_func_uint64_t_u_u>
   1827d:	89 05 59 cf 00 00    	mov    %eax,0xcf59(%rip)        # 251dc <g_508>
   18283:	8b 05 53 cf 00 00    	mov    0xcf53(%rip),%eax        # 251dc <g_508>
   18289:	85 c0                	test   %eax,%eax
   1828b:	79 d1                	jns    1825e <func_50+0x1964>
   1828d:	eb 01                	jmp    18290 <func_50+0x1996>
   1828f:	90                   	nop
   18290:	8b 85 cc ec ff ff    	mov    -0x1334(%rbp),%eax
   18296:	e9 da 24 00 00       	jmpq   1a775 <func_50+0x3e7b>
   1829b:	48 8d 85 b0 f2 ff ff 	lea    -0xd50(%rbp),%rax
   182a2:	48 89 85 f0 ef ff ff 	mov    %rax,-0x1010(%rbp)
   182a9:	c7 85 a8 ed ff ff 02 	movl   $0x45ae1502,-0x1258(%rbp)
   182b0:	15 ae 45 
   182b3:	48 8d 85 40 fb ff ff 	lea    -0x4c0(%rbp),%rax
   182ba:	48 8d 15 bf 92 00 00 	lea    0x92bf(%rip),%rdx        # 21580 <g_1983+0x1518>
   182c1:	b9 78 00 00 00       	mov    $0x78,%ecx
   182c6:	48 89 c7             	mov    %rax,%rdi
   182c9:	48 89 d6             	mov    %rdx,%rsi
   182cc:	f3 48 a5             	rep movsq %ds:(%rsi),%es:(%rdi)
   182cf:	48 8b 85 f0 ef ff ff 	mov    -0x1010(%rbp),%rax
   182d6:	48 8d 15 eb ce 00 00 	lea    0xceeb(%rip),%rdx        # 251c8 <g_359>
   182dd:	48 89 10             	mov    %rdx,(%rax)
   182e0:	83 85 14 ed ff ff 01 	addl   $0x1,-0x12ec(%rbp)
   182e7:	8b 85 f8 ec ff ff    	mov    -0x1308(%rbp),%eax
   182ed:	48 98                	cltq   
   182ef:	be 09 00 00 00       	mov    $0x9,%esi
   182f4:	48 89 c7             	mov    %rax,%rdi
   182f7:	e8 4f 4d ff ff       	callq  d04b <safe_sub_func_uint64_t_u_u>
   182fc:	89 85 f8 ec ff ff    	mov    %eax,-0x1308(%rbp)
   18302:	8b 85 f8 ec ff ff    	mov    -0x1308(%rbp),%eax
   18308:	83 f8 fb             	cmp    $0xfffffffb,%eax
   1830b:	0f 8c fa fa ff ff    	jl     17e0b <func_50+0x1511>
   18311:	eb 01                	jmp    18314 <func_50+0x1a1a>
   18313:	90                   	nop
   18314:	48 c7 05 89 ce 00 00 	movq   $0x0,0xce89(%rip)        # 251a8 <g_184>
   1831b:	00 00 00 00 
   1831f:	e9 99 01 00 00       	jmpq   184bd <func_50+0x1bc3>
   18324:	48 8d 85 08 ed ff ff 	lea    -0x12f8(%rbp),%rax
   1832b:	48 89 85 f0 ed ff ff 	mov    %rax,-0x1210(%rbp)
   18332:	48 8d 85 f0 ed ff ff 	lea    -0x1210(%rbp),%rax
   18339:	48 89 85 f8 ed ff ff 	mov    %rax,-0x1208(%rbp)
   18340:	48 8d 85 f8 ed ff ff 	lea    -0x1208(%rbp),%rax
   18347:	48 89 85 00 ee ff ff 	mov    %rax,-0x1200(%rbp)
   1834e:	48 8d 85 40 fb ff ff 	lea    -0x4c0(%rbp),%rax
   18355:	48 83 c0 10          	add    $0x10,%rax
   18359:	48 89 85 18 f0 ff ff 	mov    %rax,-0xfe8(%rbp)
   18360:	c7 85 2c ed ff ff 00 	movl   $0x0,-0x12d4(%rbp)
   18367:	00 00 00 
   1836a:	eb 1e                	jmp    1838a <func_50+0x1a90>
   1836c:	8b 85 2c ed ff ff    	mov    -0x12d4(%rbp),%eax
   18372:	48 98                	cltq   
   18374:	48 8d 95 00 ee ff ff 	lea    -0x1200(%rbp),%rdx
   1837b:	48 89 94 c5 40 fb ff 	mov    %rdx,-0x4c0(%rbp,%rax,8)
   18382:	ff 
   18383:	83 85 2c ed ff ff 01 	addl   $0x1,-0x12d4(%rbp)
   1838a:	83 bd 2c ed ff ff 02 	cmpl   $0x2,-0x12d4(%rbp)
   18391:	7e d9                	jle    1836c <func_50+0x1a72>
   18393:	8b 85 cc ec ff ff    	mov    -0x1334(%rbp),%eax
   18399:	0f b6 d8             	movzbl %al,%ebx
   1839c:	8b 85 c8 ec ff ff    	mov    -0x1338(%rbp),%eax
   183a2:	44 0f bf e0          	movswl %ax,%r12d
   183a6:	8b 85 c8 ec ff ff    	mov    -0x1338(%rbp),%eax
   183ac:	44 0f b7 e8          	movzwl %ax,%r13d
   183b0:	bf 01 00 00 00       	mov    $0x1,%edi
   183b5:	e8 dc 41 ff ff       	callq  c596 <safe_unary_minus_func_int32_t_s>
   183ba:	8b 15 f4 cc 00 00    	mov    0xccf4(%rip),%edx        # 250b4 <g_3+0x74>
   183c0:	39 d0                	cmp    %edx,%eax
   183c2:	0f 9c c0             	setl   %al
   183c5:	0f b6 d0             	movzbl %al,%edx
   183c8:	8b 05 0e ce 00 00    	mov    0xce0e(%rip),%eax        # 251dc <g_508>
   183ce:	39 c2                	cmp    %eax,%edx
   183d0:	0f 9d c0             	setge  %al
   183d3:	88 05 b7 cd 00 00    	mov    %al,0xcdb7(%rip)        # 25190 <g_161>
   183d9:	48 8b 85 a0 ef ff ff 	mov    -0x1060(%rbp),%rax
   183e0:	48 89 85 18 f0 ff ff 	mov    %rax,-0xfe8(%rbp)
   183e7:	48 8b 85 18 f0 ff ff 	mov    -0xfe8(%rbp),%rax
   183ee:	48 3b 85 a8 ef ff ff 	cmp    -0x1058(%rbp),%rax
   183f5:	75 09                	jne    18400 <func_50+0x1b06>
   183f7:	83 bd c8 ec ff ff 00 	cmpl   $0x0,-0x1338(%rbp)
   183fe:	74 07                	je     18407 <func_50+0x1b0d>
   18400:	b8 01 00 00 00       	mov    $0x1,%eax
   18405:	eb 05                	jmp    1840c <func_50+0x1b12>
   18407:	b8 00 00 00 00       	mov    $0x0,%eax
   1840c:	89 c2                	mov    %eax,%edx
   1840e:	8b 85 c8 ec ff ff    	mov    -0x1338(%rbp),%eax
   18414:	0f be c0             	movsbl %al,%eax
   18417:	89 d6                	mov    %edx,%esi
   18419:	89 c7                	mov    %eax,%edi
   1841b:	e8 4c 3f ff ff       	callq  c36c <safe_rshift_func_int8_t_s_u>
   18420:	0f be d0             	movsbl %al,%edx
   18423:	48 8b 85 98 ef ff ff 	mov    -0x1068(%rbp),%rax
   1842a:	8b 00                	mov    (%rax),%eax
   1842c:	39 c2                	cmp    %eax,%edx
   1842e:	be 00 00 00 00       	mov    $0x0,%esi
   18433:	bf 01 00 00 00       	mov    $0x1,%edi
   18438:	e8 81 48 ff ff       	callq  ccbe <safe_rshift_func_uint8_t_u_u>
   1843d:	0f b6 c0             	movzbl %al,%eax
   18440:	44 89 ee             	mov    %r13d,%esi
   18443:	89 c7                	mov    %eax,%edi
   18445:	e8 12 49 ff ff       	callq  cd5c <safe_mod_func_uint16_t_u_u>
   1844a:	98                   	cwtl   
   1844b:	44 89 e6             	mov    %r12d,%esi
   1844e:	89 c7                	mov    %eax,%edi
   18450:	e8 a0 3f ff ff       	callq  c3f5 <safe_mul_func_int16_t_s_s>
   18455:	48 8b 15 ac fc 00 00 	mov    0xfcac(%rip),%rdx        # 28108 <g_311>
   1845c:	0f b6 12             	movzbl (%rdx),%edx
   1845f:	66 0f be d2          	movsbw %dl,%dx
   18463:	66 39 d0             	cmp    %dx,%ax
   18466:	0f 95 c0             	setne  %al
   18469:	0f b6 d0             	movzbl %al,%edx
   1846c:	48 8b 05 35 cd 00 00 	mov    0xcd35(%rip),%rax        # 251a8 <g_184>
   18473:	48 8d 48 01          	lea    0x1(%rax),%rcx
   18477:	48 8d 05 45 cd 00 00 	lea    0xcd45(%rip),%rax        # 251c3 <g_323>
   1847e:	0f b6 04 01          	movzbl (%rcx,%rax,1),%eax
   18482:	0f b6 c0             	movzbl %al,%eax
   18485:	89 d6                	mov    %edx,%esi
   18487:	89 c7                	mov    %eax,%edi
   18489:	e8 25 3f ff ff       	callq  c3b3 <safe_add_func_int16_t_s_s>
   1848e:	89 de                	mov    %ebx,%esi
   18490:	bf a1 00 00 00       	mov    $0xa1,%edi
   18495:	e8 de 46 ff ff       	callq  cb78 <safe_sub_func_uint8_t_u_u>
   1849a:	0f b6 d0             	movzbl %al,%edx
   1849d:	8b 05 e5 cc 00 00    	mov    0xcce5(%rip),%eax        # 25188 <g_98>
   184a3:	09 d0                	or     %edx,%eax
   184a5:	89 05 dd cc 00 00    	mov    %eax,0xccdd(%rip)        # 25188 <g_98>
   184ab:	48 8b 05 f6 cc 00 00 	mov    0xccf6(%rip),%rax        # 251a8 <g_184>
   184b2:	48 83 c0 01          	add    $0x1,%rax
   184b6:	48 89 05 eb cc 00 00 	mov    %rax,0xcceb(%rip)        # 251a8 <g_184>
   184bd:	48 8b 05 e4 cc 00 00 	mov    0xcce4(%rip),%rax        # 251a8 <g_184>
   184c4:	48 85 c0             	test   %rax,%rax
   184c7:	0f 84 57 fe ff ff    	je     18324 <func_50+0x1a2a>
   184cd:	e9 cb 00 00 00       	jmpq   1859d <func_50+0x1ca3>
   184d2:	c7 85 78 ed ff ff 01 	movl   $0x1,-0x1288(%rbp)
   184d9:	00 00 00 
   184dc:	48 c7 85 78 ef ff ff 	movq   $0x0,-0x1088(%rbp)
   184e3:	00 00 00 00 
   184e7:	8b 05 cb cc 00 00    	mov    0xcccb(%rip),%eax        # 251b8 <g_217>
   184ed:	0f bf d8             	movswl %ax,%ebx
   184f0:	be 02 00 00 00       	mov    $0x2,%esi
   184f5:	bf 01 00 00 00       	mov    $0x1,%edi
   184fa:	e8 4c 4b ff ff       	callq  d04b <safe_sub_func_uint64_t_u_u>
   184ff:	8b 85 c8 ec ff ff    	mov    -0x1338(%rbp),%eax
   18505:	0f b6 d0             	movzbl %al,%edx
   18508:	0f be 85 df ec ff ff 	movsbl -0x1321(%rbp),%eax
   1850f:	89 85 f8 ec ff ff    	mov    %eax,-0x1308(%rbp)
   18515:	48 8b 85 b8 ed ff ff 	mov    -0x1248(%rbp),%rax
   1851c:	48 39 85 78 ef ff ff 	cmp    %rax,-0x1088(%rbp)
   18523:	0f 95 c0             	setne  %al
   18526:	0f b6 c0             	movzbl %al,%eax
   18529:	89 d6                	mov    %edx,%esi
   1852b:	89 c7                	mov    %eax,%edi
   1852d:	e8 46 46 ff ff       	callq  cb78 <safe_sub_func_uint8_t_u_u>
   18532:	0f b6 c0             	movzbl %al,%eax
   18535:	be 01 00 00 00       	mov    $0x1,%esi
   1853a:	89 c7                	mov    %eax,%edi
   1853c:	e8 de 47 ff ff       	callq  cd1f <safe_sub_func_uint16_t_u_u>
   18541:	0f b7 d0             	movzwl %ax,%edx
   18544:	8b 8d cc ec ff ff    	mov    -0x1334(%rbp),%ecx
   1854a:	48 8b 85 c0 ec ff ff 	mov    -0x1340(%rbp),%rax
   18551:	48 8b 00             	mov    (%rax),%rax
   18554:	48 39 c1             	cmp    %rax,%rcx
   18557:	75 0a                	jne    18563 <func_50+0x1c69>
   18559:	8b 05 05 cc 00 00    	mov    0xcc05(%rip),%eax        # 25164 <g_9>
   1855f:	85 c0                	test   %eax,%eax
   18561:	74 07                	je     1856a <func_50+0x1c70>
   18563:	b8 01 00 00 00       	mov    $0x1,%eax
   18568:	eb 05                	jmp    1856f <func_50+0x1c75>
   1856a:	b8 00 00 00 00       	mov    $0x0,%eax
   1856f:	0f b7 c0             	movzwl %ax,%eax
   18572:	89 d6                	mov    %edx,%esi
   18574:	89 c7                	mov    %eax,%edi
   18576:	e8 c2 47 ff ff       	callq  cd3d <safe_mul_func_uint16_t_u_u>
   1857b:	98                   	cwtl   
   1857c:	89 de                	mov    %ebx,%esi
   1857e:	89 c7                	mov    %eax,%edi
   18580:	e8 2e 3e ff ff       	callq  c3b3 <safe_add_func_int16_t_s_s>
   18585:	0f b6 c0             	movzbl %al,%eax
   18588:	be a7 00 00 00       	mov    $0xa7,%esi
   1858d:	89 c7                	mov    %eax,%edi
   1858f:	e8 ff 45 ff ff       	callq  cb93 <safe_mul_func_uint8_t_u_u>
   18594:	0f b6 c0             	movzbl %al,%eax
   18597:	89 05 eb cb 00 00    	mov    %eax,0xcbeb(%rip)        # 25188 <g_98>
   1859d:	0f b6 85 41 f0 ff ff 	movzbl -0xfbf(%rbp),%eax
   185a4:	0f be c0             	movsbl %al,%eax
   185a7:	89 05 db cb 00 00    	mov    %eax,0xcbdb(%rip)        # 25188 <g_98>
   185ad:	83 85 c8 ec ff ff 01 	addl   $0x1,-0x1338(%rbp)
   185b4:	83 bd c8 ec ff ff 14 	cmpl   $0x14,-0x1338(%rbp)
   185bb:	0f 87 67 e6 ff ff    	ja     16c28 <func_50+0x32e>
   185c1:	8b 95 cc ec ff ff    	mov    -0x1334(%rbp),%edx
   185c7:	48 8b 85 20 ee ff ff 	mov    -0x11e0(%rbp),%rax
   185ce:	48 c7 00 fe ff ff ff 	movq   $0xfffffffffffffffe,(%rax)
   185d5:	48 8b 85 20 ee ff ff 	mov    -0x11e0(%rbp),%rax
   185dc:	48 8b 00             	mov    (%rax),%rax
   185df:	48 39 c2             	cmp    %rax,%rdx
   185e2:	0f 96 c0             	setbe  %al
   185e5:	0f b6 d0             	movzbl %al,%edx
   185e8:	8b 85 f8 ec ff ff    	mov    -0x1308(%rbp),%eax
   185ee:	09 d0                	or     %edx,%eax
   185f0:	89 85 f8 ec ff ff    	mov    %eax,-0x1308(%rbp)
   185f6:	0f b6 05 a3 cb 00 00 	movzbl 0xcba3(%rip),%eax        # 251a0 <g_177>
   185fd:	0f b6 d8             	movzbl %al,%ebx
   18600:	0f b6 85 3e f0 ff ff 	movzbl -0xfc2(%rbp),%eax
   18607:	0f be c0             	movsbl %al,%eax
   1860a:	89 c6                	mov    %eax,%esi
   1860c:	bf 01 00 00 00       	mov    $0x1,%edi
   18611:	e8 a2 48 ff ff       	callq  ceb8 <safe_add_func_uint32_t_u_u>
   18616:	89 de                	mov    %ebx,%esi
   18618:	89 c7                	mov    %eax,%edi
   1861a:	e8 99 48 ff ff       	callq  ceb8 <safe_add_func_uint32_t_u_u>
   1861f:	85 c0                	test   %eax,%eax
   18621:	0f 84 d9 06 00 00    	je     18d00 <func_50+0x2406>
   18627:	66 c7 85 f4 ec ff ff 	movw   $0x0,-0x130c(%rbp)
   1862e:	00 00 
   18630:	48 8d 05 7d ca 00 00 	lea    0xca7d(%rip),%rax        # 250b4 <g_3+0x74>
   18637:	48 89 85 38 ef ff ff 	mov    %rax,-0x10c8(%rbp)
   1863e:	c7 85 f8 ed ff ff fd 	movl   $0x341e7afd,-0x1208(%rbp)
   18645:	7a 1e 34 
   18648:	48 8d 85 f8 ec ff ff 	lea    -0x1308(%rbp),%rax
   1864f:	48 89 85 40 ef ff ff 	mov    %rax,-0x10c0(%rbp)
   18656:	48 c7 85 00 ee ff ff 	movq   $0x0,-0x1200(%rbp)
   1865d:	00 00 00 00 
   18661:	48 8d 85 00 ee ff ff 	lea    -0x1200(%rbp),%rax
   18668:	48 89 85 48 ef ff ff 	mov    %rax,-0x10b8(%rbp)
   1866f:	48 8d 85 40 fb ff ff 	lea    -0x4c0(%rbp),%rax
   18676:	48 8d 15 43 e3 00 00 	lea    0xe343(%rip),%rdx        # 269c0 <g_2684+0x14e8>
   1867d:	b9 90 00 00 00       	mov    $0x90,%ecx
   18682:	48 89 c7             	mov    %rax,%rdi
   18685:	48 89 d6             	mov    %rdx,%rsi
   18688:	f3 48 a5             	rep movsq %ds:(%rsi),%es:(%rdi)
   1868b:	48 8d 85 40 f1 ff ff 	lea    -0xec0(%rbp),%rax
   18692:	48 8d 15 a7 e7 00 00 	lea    0xe7a7(%rip),%rdx        # 26e40 <g_2684+0x1968>
   18699:	b9 2d 00 00 00       	mov    $0x2d,%ecx
   1869e:	48 89 c7             	mov    %rax,%rdi
   186a1:	48 89 d6             	mov    %rdx,%rsi
   186a4:	f3 48 a5             	rep movsq %ds:(%rsi),%es:(%rdi)
   186a7:	c7 85 68 ed ff ff 00 	movl   $0x0,-0x1298(%rbp)
   186ae:	00 00 00 
   186b1:	c7 85 6c ed ff ff ff 	movl   $0xffffffff,-0x1294(%rbp)
   186b8:	ff ff ff 
   186bb:	c7 85 70 ed ff ff ff 	movl   $0xffffffff,-0x1290(%rbp)
   186c2:	ff ff ff 
   186c5:	0f b6 05 f6 ca 00 00 	movzbl 0xcaf6(%rip),%eax        # 251c2 <g_312>
   186cc:	66 98                	cbtw   
   186ce:	0f b7 c0             	movzwl %ax,%eax
   186d1:	89 c6                	mov    %eax,%esi
   186d3:	bf 01 00 00 00       	mov    $0x1,%edi
   186d8:	e8 60 46 ff ff       	callq  cd3d <safe_mul_func_uint16_t_u_u>
   186dd:	0f b7 c0             	movzwl %ax,%eax
   186e0:	0b 85 3c ed ff ff    	or     -0x12c4(%rbp),%eax
   186e6:	48 98                	cltq   
   186e8:	25 80 00 00 00       	and    $0x80,%eax
   186ed:	48 83 c8 40          	or     $0x40,%rax
   186f1:	48 89 c2             	mov    %rax,%rdx
   186f4:	0f b6 05 85 ca 00 00 	movzbl 0xca85(%rip),%eax        # 25180 <g_80>
   186fb:	48 0f be c0          	movsbq %al,%rax
   186ff:	48 21 d0             	and    %rdx,%rax
   18702:	89 c2                	mov    %eax,%edx
   18704:	8b 85 f8 ed ff ff    	mov    -0x1208(%rbp),%eax
   1870a:	21 d0                	and    %edx,%eax
   1870c:	89 85 f8 ed ff ff    	mov    %eax,-0x1208(%rbp)
   18712:	8b 85 f8 ed ff ff    	mov    -0x1208(%rbp),%eax
   18718:	0f b6 c0             	movzbl %al,%eax
   1871b:	be 01 00 00 00       	mov    $0x1,%esi
   18720:	89 c7                	mov    %eax,%edi
   18722:	e8 97 45 ff ff       	callq  ccbe <safe_rshift_func_uint8_t_u_u>
   18727:	0f b7 85 f4 ec ff ff 	movzwl -0x130c(%rbp),%eax
   1872e:	83 c8 01             	or     $0x1,%eax
   18731:	0f b6 d8             	movzbl %al,%ebx
   18734:	48 8d 85 fc ec ff ff 	lea    -0x1304(%rbp),%rax
   1873b:	48 39 85 38 ef ff ff 	cmp    %rax,-0x10c8(%rbp)
   18742:	0f 95 c0             	setne  %al
   18745:	0f b6 c0             	movzbl %al,%eax
   18748:	89 c7                	mov    %eax,%edi
   1874a:	e8 4e 3c ff ff       	callq  c39d <safe_unary_minus_func_int16_t_s>
   1874f:	0f b6 c0             	movzbl %al,%eax
   18752:	89 de                	mov    %ebx,%esi
   18754:	89 c7                	mov    %eax,%edi
   18756:	e8 ff 43 ff ff       	callq  cb5a <safe_add_func_uint8_t_u_u>
   1875b:	48 8b 85 40 ef ff ff 	mov    -0x10c0(%rbp),%rax
   18762:	c7 00 00 00 00 00    	movl   $0x0,(%rax)
   18768:	48 8b 05 b9 f9 00 00 	mov    0xf9b9(%rip),%rax        # 28128 <g_612>
   1876f:	48 39 85 48 ef ff ff 	cmp    %rax,-0x10b8(%rbp)
   18776:	0f 95 c0             	setne  %al
   18779:	0f b6 d8             	movzbl %al,%ebx
   1877c:	48 8b 05 85 f9 00 00 	mov    0xf985(%rip),%rax        # 28108 <g_311>
   18783:	0f b6 00             	movzbl (%rax),%eax
   18786:	0f be c0             	movsbl %al,%eax
   18789:	be c7 ff ff ff       	mov    $0xffffffc7,%esi
   1878e:	89 c7                	mov    %eax,%edi
   18790:	e8 d5 3a ff ff       	callq  c26a <safe_div_func_int8_t_s_s>
   18795:	0f be d0             	movsbl %al,%edx
   18798:	8b 85 cc ec ff ff    	mov    -0x1334(%rbp),%eax
   1879e:	98                   	cwtl   
   1879f:	89 d6                	mov    %edx,%esi
   187a1:	89 c7                	mov    %eax,%edi
   187a3:	e8 82 3d ff ff       	callq  c52a <safe_rshift_func_int16_t_s_s>
   187a8:	48 8b 95 20 ee ff ff 	mov    -0x11e0(%rbp),%rdx
   187af:	48 8b 12             	mov    (%rdx),%rdx
   187b2:	48 0f bf c0          	movswq %ax,%rax
   187b6:	48 31 c2             	xor    %rax,%rdx
   187b9:	48 8b 85 20 ee ff ff 	mov    -0x11e0(%rbp),%rax
   187c0:	48 89 10             	mov    %rdx,(%rax)
   187c3:	48 8b 85 20 ee ff ff 	mov    -0x11e0(%rbp),%rax
   187ca:	48 8b 00             	mov    (%rax),%rax
   187cd:	48 89 c7             	mov    %rax,%rdi
   187d0:	e8 44 48 ff ff       	callq  d019 <safe_unary_minus_func_uint64_t_u>
   187d5:	48 39 c3             	cmp    %rax,%rbx
   187d8:	0f 93 c0             	setae  %al
   187db:	0f b6 d0             	movzbl %al,%edx
   187de:	8b 85 f8 ec ff ff    	mov    -0x1308(%rbp),%eax
   187e4:	21 d0                	and    %edx,%eax
   187e6:	89 85 f8 ec ff ff    	mov    %eax,-0x1308(%rbp)
   187ec:	8b 85 f8 ec ff ff    	mov    -0x1308(%rbp),%eax
   187f2:	3d d3 00 00 00       	cmp    $0xd3,%eax
   187f7:	0f 9e c0             	setle  %al
   187fa:	0f b6 d0             	movzbl %al,%edx
   187fd:	8b 85 cc ec ff ff    	mov    -0x1334(%rbp),%eax
   18803:	66 89 05 ce c9 00 00 	mov    %ax,0xc9ce(%rip)        # 251d8 <g_453>
   1880a:	0f b7 05 c7 c9 00 00 	movzwl 0xc9c7(%rip),%eax        # 251d8 <g_453>
   18811:	98                   	cwtl   
   18812:	39 c2                	cmp    %eax,%edx
   18814:	0f 9f c0             	setg   %al
   18817:	44 0f b6 f0          	movzbl %al,%r14d
   1881b:	8b 85 c8 ec ff ff    	mov    -0x1338(%rbp),%eax
   18821:	0f be d8             	movsbl %al,%ebx
   18824:	8b 85 cc ec ff ff    	mov    -0x1334(%rbp),%eax
   1882a:	44 0f bf e0          	movswl %ax,%r12d
   1882e:	8b 05 a8 c9 00 00    	mov    0xc9a8(%rip),%eax        # 251dc <g_508>
   18834:	44 0f b7 e8          	movzwl %ax,%r13d
   18838:	8b 85 cc ec ff ff    	mov    -0x1334(%rbp),%eax
   1883e:	0f be d0             	movsbl %al,%edx
   18841:	48 8b 85 38 ef ff ff 	mov    -0x10c8(%rbp),%rax
   18848:	8b 00                	mov    (%rax),%eax
   1884a:	0f be c0             	movsbl %al,%eax
   1884d:	89 d6                	mov    %edx,%esi
   1884f:	89 c7                	mov    %eax,%edi
   18851:	e8 14 3a ff ff       	callq  c26a <safe_div_func_int8_t_s_s>
   18856:	3c ff                	cmp    $0xff,%al
   18858:	0f 95 c0             	setne  %al
   1885b:	0f b6 c0             	movzbl %al,%eax
   1885e:	44 89 ee             	mov    %r13d,%esi
   18861:	89 c7                	mov    %eax,%edi
   18863:	e8 b7 44 ff ff       	callq  cd1f <safe_sub_func_uint16_t_u_u>
   18868:	83 bd 18 ed ff ff 00 	cmpl   $0x0,-0x12e8(%rbp)
   1886f:	74 07                	je     18878 <func_50+0x1f7e>
   18871:	b8 01 00 00 00       	mov    $0x1,%eax
   18876:	eb 05                	jmp    1887d <func_50+0x1f83>
   18878:	b8 00 00 00 00       	mov    $0x0,%eax
   1887d:	98                   	cwtl   
   1887e:	be 04 00 00 00       	mov    $0x4,%esi
   18883:	89 c7                	mov    %eax,%edi
   18885:	e8 57 3c ff ff       	callq  c4e1 <safe_lshift_func_int16_t_s_u>
   1888a:	98                   	cwtl   
   1888b:	44 89 e6             	mov    %r12d,%esi
   1888e:	89 c7                	mov    %eax,%edi
   18890:	e8 60 3b ff ff       	callq  c3f5 <safe_mul_func_int16_t_s_s>
   18895:	0f be c0             	movsbl %al,%eax
   18898:	89 de                	mov    %ebx,%esi
   1889a:	89 c7                	mov    %eax,%edi
   1889c:	e8 71 39 ff ff       	callq  c212 <safe_mul_func_int8_t_s_s>
   188a1:	0f be c0             	movsbl %al,%eax
   188a4:	33 85 cc ec ff ff    	xor    -0x1334(%rbp),%eax
   188aa:	41 39 c6             	cmp    %eax,%r14d
   188ad:	0f 82 7e 03 00 00    	jb     18c31 <func_50+0x2337>
   188b3:	48 8d 85 b0 f4 ff ff 	lea    -0xb50(%rbp),%rax
   188ba:	48 8d 15 7f 90 00 00 	lea    0x907f(%rip),%rdx        # 21940 <g_1983+0x18d8>
   188c1:	b9 54 00 00 00       	mov    $0x54,%ecx
   188c6:	48 89 c7             	mov    %rax,%rdi
   188c9:	48 89 d6             	mov    %rdx,%rsi
   188cc:	f3 48 a5             	rep movsq %ds:(%rsi),%es:(%rdi)
   188cf:	48 8d 85 f8 ed ff ff 	lea    -0x1208(%rbp),%rax
   188d6:	48 89 85 b0 f2 ff ff 	mov    %rax,-0xd50(%rbp)
   188dd:	48 8d 85 fc ec ff ff 	lea    -0x1304(%rbp),%rax
   188e4:	48 89 85 b8 f2 ff ff 	mov    %rax,-0xd48(%rbp)
   188eb:	48 8d 05 c2 c7 00 00 	lea    0xc7c2(%rip),%rax        # 250b4 <g_3+0x74>
   188f2:	48 89 85 c0 f2 ff ff 	mov    %rax,-0xd40(%rbp)
   188f9:	48 8d 85 f8 ed ff ff 	lea    -0x1208(%rbp),%rax
   18900:	48 89 85 c8 f2 ff ff 	mov    %rax,-0xd38(%rbp)
   18907:	48 c7 85 d0 f2 ff ff 	movq   $0x0,-0xd30(%rbp)
   1890e:	00 00 00 00 
   18912:	48 8d 85 f8 ec ff ff 	lea    -0x1308(%rbp),%rax
   18919:	48 89 85 d8 f2 ff ff 	mov    %rax,-0xd28(%rbp)
   18920:	48 8d 85 fc ec ff ff 	lea    -0x1304(%rbp),%rax
   18927:	48 89 85 e0 f2 ff ff 	mov    %rax,-0xd20(%rbp)
   1892e:	48 8d 85 fc ec ff ff 	lea    -0x1304(%rbp),%rax
   18935:	48 89 85 e8 f2 ff ff 	mov    %rax,-0xd18(%rbp)
   1893c:	48 8d 85 f8 ec ff ff 	lea    -0x1308(%rbp),%rax
   18943:	48 89 85 f0 f2 ff ff 	mov    %rax,-0xd10(%rbp)
   1894a:	48 c7 85 f8 f2 ff ff 	movq   $0x0,-0xd08(%rbp)
   18951:	00 00 00 00 
   18955:	48 8d 85 fc ec ff ff 	lea    -0x1304(%rbp),%rax
   1895c:	48 89 85 00 f3 ff ff 	mov    %rax,-0xd00(%rbp)
   18963:	48 8d 05 1e c8 00 00 	lea    0xc81e(%rip),%rax        # 25188 <g_98>
   1896a:	48 89 85 08 f3 ff ff 	mov    %rax,-0xcf8(%rbp)
   18971:	48 8d 85 fc ec ff ff 	lea    -0x1304(%rbp),%rax
   18978:	48 89 85 10 f3 ff ff 	mov    %rax,-0xcf0(%rbp)
   1897f:	48 c7 85 18 f3 ff ff 	movq   $0x0,-0xce8(%rbp)
   18986:	00 00 00 00 
   1898a:	48 8d 05 d7 c7 00 00 	lea    0xc7d7(%rip),%rax        # 25168 <g_12>
   18991:	48 89 85 20 f3 ff ff 	mov    %rax,-0xce0(%rbp)
   18998:	48 8d 85 fc ec ff ff 	lea    -0x1304(%rbp),%rax
   1899f:	48 89 85 28 f3 ff ff 	mov    %rax,-0xcd8(%rbp)
   189a6:	48 8d 05 07 c7 00 00 	lea    0xc707(%rip),%rax        # 250b4 <g_3+0x74>
   189ad:	48 89 85 30 f3 ff ff 	mov    %rax,-0xcd0(%rbp)
   189b4:	48 8d 05 f9 c6 00 00 	lea    0xc6f9(%rip),%rax        # 250b4 <g_3+0x74>
   189bb:	48 89 85 38 f3 ff ff 	mov    %rax,-0xcc8(%rbp)
   189c2:	48 8d 85 fc ec ff ff 	lea    -0x1304(%rbp),%rax
   189c9:	48 89 85 40 f3 ff ff 	mov    %rax,-0xcc0(%rbp)
   189d0:	48 c7 85 48 f3 ff ff 	movq   $0x0,-0xcb8(%rbp)
   189d7:	00 00 00 00 
   189db:	48 8d 05 a6 c7 00 00 	lea    0xc7a6(%rip),%rax        # 25188 <g_98>
   189e2:	48 89 85 50 f3 ff ff 	mov    %rax,-0xcb0(%rbp)
   189e9:	48 8d 05 c4 c6 00 00 	lea    0xc6c4(%rip),%rax        # 250b4 <g_3+0x74>
   189f0:	48 89 85 58 f3 ff ff 	mov    %rax,-0xca8(%rbp)
   189f7:	48 c7 85 60 f3 ff ff 	movq   $0x0,-0xca0(%rbp)
   189fe:	00 00 00 00 
   18a02:	48 8d 05 ab c6 00 00 	lea    0xc6ab(%rip),%rax        # 250b4 <g_3+0x74>
   18a09:	48 89 85 68 f3 ff ff 	mov    %rax,-0xc98(%rbp)
   18a10:	48 c7 85 70 f3 ff ff 	movq   $0x0,-0xc90(%rbp)
   18a17:	00 00 00 00 
   18a1b:	48 8d 05 92 c6 00 00 	lea    0xc692(%rip),%rax        # 250b4 <g_3+0x74>
   18a22:	48 89 85 78 f3 ff ff 	mov    %rax,-0xc88(%rbp)
   18a29:	48 8d 05 58 c7 00 00 	lea    0xc758(%rip),%rax        # 25188 <g_98>
   18a30:	48 89 85 80 f3 ff ff 	mov    %rax,-0xc80(%rbp)
   18a37:	48 c7 85 88 f3 ff ff 	movq   $0x0,-0xc78(%rbp)
   18a3e:	00 00 00 00 
   18a42:	48 c7 85 90 f3 ff ff 	movq   $0x0,-0xc70(%rbp)
   18a49:	00 00 00 00 
   18a4d:	48 8d 05 60 c6 00 00 	lea    0xc660(%rip),%rax        # 250b4 <g_3+0x74>
   18a54:	48 89 85 98 f3 ff ff 	mov    %rax,-0xc68(%rbp)
   18a5b:	48 8d 05 52 c6 00 00 	lea    0xc652(%rip),%rax        # 250b4 <g_3+0x74>
   18a62:	48 89 85 a0 f3 ff ff 	mov    %rax,-0xc60(%rbp)
   18a69:	48 8d 85 fc ec ff ff 	lea    -0x1304(%rbp),%rax
   18a70:	48 89 85 a8 f3 ff ff 	mov    %rax,-0xc58(%rbp)
   18a77:	48 8d 05 ea c6 00 00 	lea    0xc6ea(%rip),%rax        # 25168 <g_12>
   18a7e:	48 89 85 b0 f3 ff ff 	mov    %rax,-0xc50(%rbp)
   18a85:	48 c7 85 b8 f3 ff ff 	movq   $0x0,-0xc48(%rbp)
   18a8c:	00 00 00 00 
   18a90:	48 8d 85 fc ec ff ff 	lea    -0x1304(%rbp),%rax
   18a97:	48 89 85 c0 f3 ff ff 	mov    %rax,-0xc40(%rbp)
   18a9e:	48 8d 05 e3 c6 00 00 	lea    0xc6e3(%rip),%rax        # 25188 <g_98>
   18aa5:	48 89 85 c8 f3 ff ff 	mov    %rax,-0xc38(%rbp)
   18aac:	48 8d 85 f8 ed ff ff 	lea    -0x1208(%rbp),%rax
   18ab3:	48 89 85 d0 f3 ff ff 	mov    %rax,-0xc30(%rbp)
   18aba:	48 c7 85 d8 f3 ff ff 	movq   $0x0,-0xc28(%rbp)
   18ac1:	00 00 00 00 
   18ac5:	48 8d 05 e8 c5 00 00 	lea    0xc5e8(%rip),%rax        # 250b4 <g_3+0x74>
   18acc:	48 89 85 e0 f3 ff ff 	mov    %rax,-0xc20(%rbp)
   18ad3:	48 8d 05 de c6 00 00 	lea    0xc6de(%rip),%rax        # 251b8 <g_217>
   18ada:	48 89 85 e8 f3 ff ff 	mov    %rax,-0xc18(%rbp)
   18ae1:	48 8d 05 d0 c6 00 00 	lea    0xc6d0(%rip),%rax        # 251b8 <g_217>
   18ae8:	48 89 85 f0 f3 ff ff 	mov    %rax,-0xc10(%rbp)
   18aef:	48 8d 05 be c5 00 00 	lea    0xc5be(%rip),%rax        # 250b4 <g_3+0x74>
   18af6:	48 89 85 f8 f3 ff ff 	mov    %rax,-0xc08(%rbp)
   18afd:	48 8d 85 f8 ec ff ff 	lea    -0x1308(%rbp),%rax
   18b04:	48 89 85 00 f4 ff ff 	mov    %rax,-0xc00(%rbp)
   18b0b:	48 8d 05 52 c6 00 00 	lea    0xc652(%rip),%rax        # 25164 <g_9>
   18b12:	48 89 85 08 f4 ff ff 	mov    %rax,-0xbf8(%rbp)
   18b19:	48 8d 85 f8 ed ff ff 	lea    -0x1208(%rbp),%rax
   18b20:	48 89 85 10 f4 ff ff 	mov    %rax,-0xbf0(%rbp)
   18b27:	48 8d 05 36 c6 00 00 	lea    0xc636(%rip),%rax        # 25164 <g_9>
   18b2e:	48 89 85 18 f4 ff ff 	mov    %rax,-0xbe8(%rbp)
   18b35:	48 8d 05 7c c6 00 00 	lea    0xc67c(%rip),%rax        # 251b8 <g_217>
   18b3c:	48 89 85 20 f4 ff ff 	mov    %rax,-0xbe0(%rbp)
   18b43:	48 8d 85 f8 ed ff ff 	lea    -0x1208(%rbp),%rax
   18b4a:	48 89 85 28 f4 ff ff 	mov    %rax,-0xbd8(%rbp)
   18b51:	48 8d 05 0c c6 00 00 	lea    0xc60c(%rip),%rax        # 25164 <g_9>
   18b58:	48 89 85 30 f4 ff ff 	mov    %rax,-0xbd0(%rbp)
   18b5f:	48 8d 85 f8 ec ff ff 	lea    -0x1308(%rbp),%rax
   18b66:	48 89 85 38 f4 ff ff 	mov    %rax,-0xbc8(%rbp)
   18b6d:	48 8d 05 40 c5 00 00 	lea    0xc540(%rip),%rax        # 250b4 <g_3+0x74>
   18b74:	48 89 85 40 f4 ff ff 	mov    %rax,-0xbc0(%rbp)
   18b7b:	48 8d 05 36 c6 00 00 	lea    0xc636(%rip),%rax        # 251b8 <g_217>
   18b82:	48 89 85 48 f4 ff ff 	mov    %rax,-0xbb8(%rbp)
   18b89:	48 8d 05 28 c6 00 00 	lea    0xc628(%rip),%rax        # 251b8 <g_217>
   18b90:	48 89 85 50 f4 ff ff 	mov    %rax,-0xbb0(%rbp)
   18b97:	48 8d 05 16 c5 00 00 	lea    0xc516(%rip),%rax        # 250b4 <g_3+0x74>
   18b9e:	48 89 85 58 f4 ff ff 	mov    %rax,-0xba8(%rbp)
   18ba5:	48 8d 05 1c c6 00 00 	lea    0xc61c(%rip),%rax        # 251c8 <g_359>
   18bac:	48 89 85 60 f4 ff ff 	mov    %rax,-0xba0(%rbp)
   18bb3:	48 8d 05 fe c5 00 00 	lea    0xc5fe(%rip),%rax        # 251b8 <g_217>
   18bba:	48 89 85 68 f4 ff ff 	mov    %rax,-0xb98(%rbp)
   18bc1:	48 c7 85 70 f4 ff ff 	movq   $0x0,-0xb90(%rbp)
   18bc8:	00 00 00 00 
   18bcc:	48 8d 05 e5 c5 00 00 	lea    0xc5e5(%rip),%rax        # 251b8 <g_217>
   18bd3:	48 89 85 78 f4 ff ff 	mov    %rax,-0xb88(%rbp)
   18bda:	48 8d 05 e7 c5 00 00 	lea    0xc5e7(%rip),%rax        # 251c8 <g_359>
   18be1:	48 89 85 80 f4 ff ff 	mov    %rax,-0xb80(%rbp)
   18be8:	48 8d 85 fc ec ff ff 	lea    -0x1304(%rbp),%rax
   18bef:	48 89 85 88 f4 ff ff 	mov    %rax,-0xb78(%rbp)
   18bf6:	48 8d 05 bb c5 00 00 	lea    0xc5bb(%rip),%rax        # 251b8 <g_217>
   18bfd:	48 89 85 90 f4 ff ff 	mov    %rax,-0xb70(%rbp)
   18c04:	48 c7 85 98 f4 ff ff 	movq   $0x0,-0xb68(%rbp)
   18c0b:	00 00 00 00 
   18c0f:	48 8d 85 f8 ed ff ff 	lea    -0x1208(%rbp),%rax
   18c16:	48 89 85 a0 f4 ff ff 	mov    %rax,-0xb60(%rbp)
   18c1d:	8b 05 91 c6 00 00    	mov    0xc691(%rip),%eax        # 252b4 <g_641>
   18c23:	83 e8 01             	sub    $0x1,%eax
   18c26:	89 05 88 c6 00 00    	mov    %eax,0xc688(%rip)        # 252b4 <g_641>
   18c2c:	e9 3a 1b 00 00       	jmpq   1a76b <func_50+0x3e71>
   18c31:	c6 85 e5 ec ff ff 05 	movb   $0x5,-0x131b(%rbp)
   18c38:	48 8b 85 20 ee ff ff 	mov    -0x11e0(%rbp),%rax
   18c3f:	48 c7 00 ff ff ff ff 	movq   $0xffffffffffffffff,(%rax)
   18c46:	ba 01 00 00 00       	mov    $0x1,%edx
   18c4b:	0f be 85 e5 ec ff ff 	movsbl -0x131b(%rbp),%eax
   18c52:	09 d0                	or     %edx,%eax
   18c54:	48 98                	cltq   
   18c56:	48 c7 c6 ff ff ff ff 	mov    $0xffffffffffffffff,%rsi
   18c5d:	48 89 c7             	mov    %rax,%rdi
   18c60:	e8 4f 3d ff ff       	callq  c9b4 <safe_mod_func_int64_t_s_s>
   18c65:	89 c2                	mov    %eax,%edx
   18c67:	8b 85 c8 ec ff ff    	mov    -0x1338(%rbp),%eax
   18c6d:	89 c6                	mov    %eax,%esi
   18c6f:	89 d7                	mov    %edx,%edi
   18c71:	e8 87 42 ff ff       	callq  cefd <safe_mod_func_uint32_t_u_u>
   18c76:	89 c0                	mov    %eax,%eax
   18c78:	48 89 c7             	mov    %rax,%rdi
   18c7b:	e8 99 43 ff ff       	callq  d019 <safe_unary_minus_func_uint64_t_u>
   18c80:	0f bf d8             	movswl %ax,%ebx
   18c83:	48 8b 95 c8 f1 ff ff 	mov    -0xe38(%rbp),%rdx
   18c8a:	48 8b 85 28 f2 ff ff 	mov    -0xdd8(%rbp),%rax
   18c91:	48 39 c2             	cmp    %rax,%rdx
   18c94:	0f 95 c0             	setne  %al
   18c97:	0f b6 c0             	movzbl %al,%eax
   18c9a:	39 85 c8 ec ff ff    	cmp    %eax,-0x1338(%rbp)
   18ca0:	0f 92 c0             	setb   %al
   18ca3:	0f b6 d0             	movzbl %al,%edx
   18ca6:	48 8b 05 5b f4 00 00 	mov    0xf45b(%rip),%rax        # 28108 <g_311>
   18cad:	0f b6 00             	movzbl (%rax),%eax
   18cb0:	0f be c0             	movsbl %al,%eax
   18cb3:	89 d6                	mov    %edx,%esi
   18cb5:	89 c7                	mov    %eax,%edi
   18cb7:	e8 56 35 ff ff       	callq  c212 <safe_mul_func_int8_t_s_s>
   18cbc:	0f be c0             	movsbl %al,%eax
   18cbf:	89 de                	mov    %ebx,%esi
   18cc1:	89 c7                	mov    %eax,%edi
   18cc3:	e8 8d 37 ff ff       	callq  c455 <safe_div_func_int16_t_s_s>
   18cc8:	0f bf d0             	movswl %ax,%edx
   18ccb:	48 8b 05 36 f4 00 00 	mov    0xf436(%rip),%rax        # 28108 <g_311>
   18cd2:	0f b6 00             	movzbl (%rax),%eax
   18cd5:	0f be c0             	movsbl %al,%eax
   18cd8:	31 d0                	xor    %edx,%eax
   18cda:	89 c2                	mov    %eax,%edx
   18cdc:	8b 85 c8 ec ff ff    	mov    -0x1338(%rbp),%eax
   18ce2:	89 c6                	mov    %eax,%esi
   18ce4:	89 d7                	mov    %edx,%edi
   18ce6:	e8 3a 42 ff ff       	callq  cf25 <safe_div_func_uint32_t_u_u>
   18ceb:	35 4d ae 06 b2       	xor    $0xb206ae4d,%eax
   18cf0:	89 c2                	mov    %eax,%edx
   18cf2:	48 8b 85 40 ef ff ff 	mov    -0x10c0(%rbp),%rax
   18cf9:	89 10                	mov    %edx,(%rax)
   18cfb:	e9 6b 1a 00 00       	jmpq   1a76b <func_50+0x3e71>
   18d00:	48 b8 e8 79 7d 36 e6 	movabs $0xe9bedae6367d79e8,%rax
   18d07:	da be e9 
   18d0a:	48 89 85 e0 ed ff ff 	mov    %rax,-0x1220(%rbp)
   18d11:	48 8d 05 a0 c4 00 00 	lea    0xc4a0(%rip),%rax        # 251b8 <g_217>
   18d18:	48 89 85 10 ee ff ff 	mov    %rax,-0x11f0(%rbp)
   18d1f:	48 8d 05 82 c4 00 00 	lea    0xc482(%rip),%rax        # 251a8 <g_184>
   18d26:	48 89 85 50 ee ff ff 	mov    %rax,-0x11b0(%rbp)
   18d2d:	48 c7 85 e8 ed ff ff 	movq   $0x0,-0x1218(%rbp)
   18d34:	00 00 00 00 
   18d38:	48 8d 05 81 c4 00 00 	lea    0xc481(%rip),%rax        # 251c0 <g_266>
   18d3f:	48 89 85 58 ee ff ff 	mov    %rax,-0x11a8(%rbp)
   18d46:	48 8d 05 73 c4 00 00 	lea    0xc473(%rip),%rax        # 251c0 <g_266>
   18d4d:	48 89 85 f0 ed ff ff 	mov    %rax,-0x1210(%rbp)
   18d54:	48 8d 85 f0 ed ff ff 	lea    -0x1210(%rbp),%rax
   18d5b:	48 89 85 60 ee ff ff 	mov    %rax,-0x11a0(%rbp)
   18d62:	c7 85 50 f0 ff ff 01 	movl   $0x1,-0xfb0(%rbp)
   18d69:	00 00 00 
   18d6c:	c7 85 54 f0 ff ff 01 	movl   $0x1,-0xfac(%rbp)
   18d73:	00 00 00 
   18d76:	c7 85 58 f0 ff ff 01 	movl   $0x1,-0xfa8(%rbp)
   18d7d:	00 00 00 
   18d80:	c7 85 5c f0 ff ff 01 	movl   $0x1,-0xfa4(%rbp)
   18d87:	00 00 00 
   18d8a:	c7 85 60 f0 ff ff 01 	movl   $0x1,-0xfa0(%rbp)
   18d91:	00 00 00 
   18d94:	c7 85 64 f0 ff ff 01 	movl   $0x1,-0xf9c(%rbp)
   18d9b:	00 00 00 
   18d9e:	c7 85 68 f0 ff ff 01 	movl   $0x1,-0xf98(%rbp)
   18da5:	00 00 00 
   18da8:	48 8d 85 b0 f4 ff ff 	lea    -0xb50(%rbp),%rax
   18daf:	48 8d 15 2a 8e 00 00 	lea    0x8e2a(%rip),%rdx        # 21be0 <g_1983+0x1b78>
   18db6:	b9 36 00 00 00       	mov    $0x36,%ecx
   18dbb:	48 89 c7             	mov    %rax,%rdi
   18dbe:	48 89 d6             	mov    %rdx,%rsi
   18dc1:	f3 48 a5             	rep movsq %ds:(%rsi),%es:(%rdi)
   18dc4:	c6 85 de ec ff ff 01 	movb   $0x1,-0x1322(%rbp)
   18dcb:	48 b8 3e 44 75 1e 6a 	movabs $0x46cad6a1e75443e,%rax
   18dd2:	ad 6c 04 
   18dd5:	48 89 85 68 ee ff ff 	mov    %rax,-0x1198(%rbp)
   18ddc:	66 c7 85 f0 ec ff ff 	movw   $0x5f05,-0x1310(%rbp)
   18de3:	05 5f 
   18de5:	48 b8 dc c2 73 ef e8 	movabs $0xf70d49e8ef73c2dc,%rax
   18dec:	49 0d f7 
   18def:	48 89 85 b0 f2 ff ff 	mov    %rax,-0xd50(%rbp)
   18df6:	48 bb 4a 5c f0 c6 38 	movabs $0x4865f38c6f05c4a,%rbx
   18dfd:	5f 86 04 
   18e00:	48 89 9d b8 f2 ff ff 	mov    %rbx,-0xd48(%rbp)
   18e07:	48 89 9d c0 f2 ff ff 	mov    %rbx,-0xd40(%rbp)
   18e0e:	48 89 85 c8 f2 ff ff 	mov    %rax,-0xd38(%rbp)
   18e15:	48 89 9d d0 f2 ff ff 	mov    %rbx,-0xd30(%rbp)
   18e1c:	48 89 9d d8 f2 ff ff 	mov    %rbx,-0xd28(%rbp)
   18e23:	48 89 85 e0 f2 ff ff 	mov    %rax,-0xd20(%rbp)
   18e2a:	48 89 9d e8 f2 ff ff 	mov    %rbx,-0xd18(%rbp)
   18e31:	48 89 85 f0 f2 ff ff 	mov    %rax,-0xd10(%rbp)
   18e38:	48 89 85 f8 f2 ff ff 	mov    %rax,-0xd08(%rbp)
   18e3f:	48 b9 c9 a5 e2 52 e4 	movabs $0x27ccb5e452e2a5c9,%rcx
   18e46:	b5 cc 27 
   18e49:	48 89 8d 00 f3 ff ff 	mov    %rcx,-0xd00(%rbp)
   18e50:	48 89 85 08 f3 ff ff 	mov    %rax,-0xcf8(%rbp)
   18e57:	48 89 85 10 f3 ff ff 	mov    %rax,-0xcf0(%rbp)
   18e5e:	48 89 8d 18 f3 ff ff 	mov    %rcx,-0xce8(%rbp)
   18e65:	48 89 85 20 f3 ff ff 	mov    %rax,-0xce0(%rbp)
   18e6c:	48 89 85 28 f3 ff ff 	mov    %rax,-0xcd8(%rbp)
   18e73:	48 89 9d 30 f3 ff ff 	mov    %rbx,-0xcd0(%rbp)
   18e7a:	48 89 85 38 f3 ff ff 	mov    %rax,-0xcc8(%rbp)
   18e81:	48 89 9d 40 f3 ff ff 	mov    %rbx,-0xcc0(%rbp)
   18e88:	48 89 9d 48 f3 ff ff 	mov    %rbx,-0xcb8(%rbp)
   18e8f:	48 89 85 50 f3 ff ff 	mov    %rax,-0xcb0(%rbp)
   18e96:	48 89 9d 58 f3 ff ff 	mov    %rbx,-0xca8(%rbp)
   18e9d:	48 89 9d 60 f3 ff ff 	mov    %rbx,-0xca0(%rbp)
   18ea4:	48 89 85 68 f3 ff ff 	mov    %rax,-0xc98(%rbp)
   18eab:	66 c7 85 ec ec ff ff 	movw   $0x1,-0x1314(%rbp)
   18eb2:	01 00 
   18eb4:	c7 05 ca c2 00 00 1b 	movl   $0x1b,0xc2ca(%rip)        # 25188 <g_98>
   18ebb:	00 00 00 
   18ebe:	e9 70 05 00 00       	jmpq   19433 <func_50+0x2b39>
   18ec3:	48 8d 05 9a c2 00 00 	lea    0xc29a(%rip),%rax        # 25164 <g_9>
   18eca:	48 89 85 00 ee ff ff 	mov    %rax,-0x1200(%rbp)
   18ed1:	48 8d 05 e0 0a 01 00 	lea    0x10ae0(%rip),%rax        # 299b8 <g_340>
   18ed8:	48 89 85 40 fb ff ff 	mov    %rax,-0x4c0(%rbp)
   18edf:	48 c7 85 48 fb ff ff 	movq   $0x0,-0x4b8(%rbp)
   18ee6:	00 00 00 00 
   18eea:	48 8d 85 00 ee ff ff 	lea    -0x1200(%rbp),%rax
   18ef1:	48 89 85 50 fb ff ff 	mov    %rax,-0x4b0(%rbp)
   18ef8:	48 8d 05 b9 0a 01 00 	lea    0x10ab9(%rip),%rax        # 299b8 <g_340>
   18eff:	48 89 85 58 fb ff ff 	mov    %rax,-0x4a8(%rbp)
   18f06:	48 c7 85 60 fb ff ff 	movq   $0x0,-0x4a0(%rbp)
   18f0d:	00 00 00 00 
   18f11:	48 8d 85 00 ee ff ff 	lea    -0x1200(%rbp),%rax
   18f18:	48 89 85 68 fb ff ff 	mov    %rax,-0x498(%rbp)
   18f1f:	48 c7 85 70 fb ff ff 	movq   $0x0,-0x490(%rbp)
   18f26:	00 00 00 00 
   18f2a:	48 8d 05 87 0a 01 00 	lea    0x10a87(%rip),%rax        # 299b8 <g_340>
   18f31:	48 89 85 78 fb ff ff 	mov    %rax,-0x488(%rbp)
   18f38:	48 8d 05 79 0a 01 00 	lea    0x10a79(%rip),%rax        # 299b8 <g_340>
   18f3f:	48 89 85 80 fb ff ff 	mov    %rax,-0x480(%rbp)
   18f46:	48 c7 85 88 fb ff ff 	movq   $0x0,-0x478(%rbp)
   18f4d:	00 00 00 00 
   18f51:	48 8d 05 60 0a 01 00 	lea    0x10a60(%rip),%rax        # 299b8 <g_340>
   18f58:	48 89 85 90 fb ff ff 	mov    %rax,-0x470(%rbp)
   18f5f:	48 8d 85 00 ee ff ff 	lea    -0x1200(%rbp),%rax
   18f66:	48 89 85 98 fb ff ff 	mov    %rax,-0x468(%rbp)
   18f6d:	48 8d 05 44 0a 01 00 	lea    0x10a44(%rip),%rax        # 299b8 <g_340>
   18f74:	48 89 85 a0 fb ff ff 	mov    %rax,-0x460(%rbp)
   18f7b:	48 c7 85 a8 fb ff ff 	movq   $0x0,-0x458(%rbp)
   18f82:	00 00 00 00 
   18f86:	48 c7 85 b0 fb ff ff 	movq   $0x0,-0x450(%rbp)
   18f8d:	00 00 00 00 
   18f91:	48 c7 85 b8 fb ff ff 	movq   $0x0,-0x448(%rbp)
   18f98:	00 00 00 00 
   18f9c:	48 8d 85 c0 ed ff ff 	lea    -0x1240(%rbp),%rax
   18fa3:	48 89 85 c0 fb ff ff 	mov    %rax,-0x440(%rbp)
   18faa:	48 8d 85 00 ee ff ff 	lea    -0x1200(%rbp),%rax
   18fb1:	48 89 85 c8 fb ff ff 	mov    %rax,-0x438(%rbp)
   18fb8:	48 8d 85 00 ee ff ff 	lea    -0x1200(%rbp),%rax
   18fbf:	48 89 85 d0 fb ff ff 	mov    %rax,-0x430(%rbp)
   18fc6:	48 8d 85 00 ee ff ff 	lea    -0x1200(%rbp),%rax
   18fcd:	48 89 85 d8 fb ff ff 	mov    %rax,-0x428(%rbp)
   18fd4:	48 8d 85 c0 ed ff ff 	lea    -0x1240(%rbp),%rax
   18fdb:	48 89 85 e0 fb ff ff 	mov    %rax,-0x420(%rbp)
   18fe2:	48 8d 85 c0 ed ff ff 	lea    -0x1240(%rbp),%rax
   18fe9:	48 89 85 e8 fb ff ff 	mov    %rax,-0x418(%rbp)
   18ff0:	48 8d 05 c1 09 01 00 	lea    0x109c1(%rip),%rax        # 299b8 <g_340>
   18ff7:	48 89 85 f0 fb ff ff 	mov    %rax,-0x410(%rbp)
   18ffe:	48 8d 05 b3 09 01 00 	lea    0x109b3(%rip),%rax        # 299b8 <g_340>
   19005:	48 89 85 f8 fb ff ff 	mov    %rax,-0x408(%rbp)
   1900c:	48 8d 85 c0 ed ff ff 	lea    -0x1240(%rbp),%rax
   19013:	48 89 85 00 fc ff ff 	mov    %rax,-0x400(%rbp)
   1901a:	48 8d 85 c0 ed ff ff 	lea    -0x1240(%rbp),%rax
   19021:	48 89 85 08 fc ff ff 	mov    %rax,-0x3f8(%rbp)
   19028:	48 8d 05 89 09 01 00 	lea    0x10989(%rip),%rax        # 299b8 <g_340>
   1902f:	48 89 85 10 fc ff ff 	mov    %rax,-0x3f0(%rbp)
   19036:	48 8d 05 7b 09 01 00 	lea    0x1097b(%rip),%rax        # 299b8 <g_340>
   1903d:	48 89 85 18 fc ff ff 	mov    %rax,-0x3e8(%rbp)
   19044:	48 8d 05 6d 09 01 00 	lea    0x1096d(%rip),%rax        # 299b8 <g_340>
   1904b:	48 89 85 20 fc ff ff 	mov    %rax,-0x3e0(%rbp)
   19052:	48 8d 85 c0 ed ff ff 	lea    -0x1240(%rbp),%rax
   19059:	48 89 85 28 fc ff ff 	mov    %rax,-0x3d8(%rbp)
   19060:	48 8d 85 c0 ed ff ff 	lea    -0x1240(%rbp),%rax
   19067:	48 89 85 30 fc ff ff 	mov    %rax,-0x3d0(%rbp)
   1906e:	48 8d 85 00 ee ff ff 	lea    -0x1200(%rbp),%rax
   19075:	48 89 85 38 fc ff ff 	mov    %rax,-0x3c8(%rbp)
   1907c:	48 8d 05 35 09 01 00 	lea    0x10935(%rip),%rax        # 299b8 <g_340>
   19083:	48 89 85 40 fc ff ff 	mov    %rax,-0x3c0(%rbp)
   1908a:	48 8d 85 00 ee ff ff 	lea    -0x1200(%rbp),%rax
   19091:	48 89 85 48 fc ff ff 	mov    %rax,-0x3b8(%rbp)
   19098:	48 8d 05 19 09 01 00 	lea    0x10919(%rip),%rax        # 299b8 <g_340>
   1909f:	48 89 85 50 fc ff ff 	mov    %rax,-0x3b0(%rbp)
   190a6:	48 c7 85 58 fc ff ff 	movq   $0x0,-0x3a8(%rbp)
   190ad:	00 00 00 00 
   190b1:	48 c7 85 60 fc ff ff 	movq   $0x0,-0x3a0(%rbp)
   190b8:	00 00 00 00 
   190bc:	48 c7 85 68 fc ff ff 	movq   $0x0,-0x398(%rbp)
   190c3:	00 00 00 00 
   190c7:	48 8d 05 ea 08 01 00 	lea    0x108ea(%rip),%rax        # 299b8 <g_340>
   190ce:	48 89 85 70 fc ff ff 	mov    %rax,-0x390(%rbp)
   190d5:	48 8d 85 00 ee ff ff 	lea    -0x1200(%rbp),%rax
   190dc:	48 89 85 78 fc ff ff 	mov    %rax,-0x388(%rbp)
   190e3:	48 8d 85 a0 f0 ff ff 	lea    -0xf60(%rbp),%rax
   190ea:	48 83 c0 20          	add    $0x20,%rax
   190ee:	48 89 85 18 ef ff ff 	mov    %rax,-0x10e8(%rbp)
   190f5:	48 c7 85 20 ef ff ff 	movq   $0x0,-0x10e0(%rbp)
   190fc:	00 00 00 00 
   19100:	48 8d 85 00 ed ff ff 	lea    -0x1300(%rbp),%rax
   19107:	48 89 85 28 ef ff ff 	mov    %rax,-0x10d8(%rbp)
   1910e:	c7 85 30 ed ff ff 00 	movl   $0x0,-0x12d0(%rbp)
   19115:	00 00 00 
   19118:	eb 1e                	jmp    19138 <func_50+0x283e>
   1911a:	8b 85 30 ed ff ff    	mov    -0x12d0(%rbp),%eax
   19120:	48 98                	cltq   
   19122:	48 8d 15 af c0 00 00 	lea    0xc0af(%rip),%rdx        # 251d8 <g_453>
   19129:	48 89 94 c5 40 f1 ff 	mov    %rdx,-0xec0(%rbp,%rax,8)
   19130:	ff 
   19131:	83 85 30 ed ff ff 01 	addl   $0x1,-0x12d0(%rbp)
   19138:	83 bd 30 ed ff ff 01 	cmpl   $0x1,-0x12d0(%rbp)
   1913f:	7e d9                	jle    1911a <func_50+0x2820>
   19141:	48 8b 85 00 ee ff ff 	mov    -0x1200(%rbp),%rax
   19148:	48 89 85 c0 ed ff ff 	mov    %rax,-0x1240(%rbp)
   1914f:	48 8d 05 5e bf 00 00 	lea    0xbf5e(%rip),%rax        # 250b4 <g_3+0x74>
   19156:	48 89 85 10 ee ff ff 	mov    %rax,-0x11f0(%rbp)
   1915d:	48 8b 85 10 ee ff ff 	mov    -0x11f0(%rbp),%rax
   19164:	8b 00                	mov    (%rax),%eax
   19166:	48 63 d8             	movslq %eax,%rbx
   19169:	48 8b 85 10 ee ff ff 	mov    -0x11f0(%rbp),%rax
   19170:	44 8b 28             	mov    (%rax),%r13d
   19173:	48 8b 85 c0 ed ff ff 	mov    -0x1240(%rbp),%rax
   1917a:	8b 00                	mov    (%rax),%eax
   1917c:	41 89 c6             	mov    %eax,%r14d
   1917f:	0f b6 05 c5 c0 00 00 	movzbl 0xc0c5(%rip),%eax        # 2524b <g_640+0x6b>
   19186:	0f be d0             	movsbl %al,%edx
   19189:	48 8d 85 c0 ec ff ff 	lea    -0x1340(%rbp),%rax
   19190:	48 89 85 e8 ed ff ff 	mov    %rax,-0x1218(%rbp)
   19197:	48 8b 8d e8 ed ff ff 	mov    -0x1218(%rbp),%rcx
   1919e:	48 8b 85 18 ef ff ff 	mov    -0x10e8(%rbp),%rax
   191a5:	48 89 08             	mov    %rcx,(%rax)
   191a8:	48 8d 05 51 ef 00 00 	lea    0xef51(%rip),%rax        # 28100 <g_124>
   191af:	48 89 05 12 08 01 00 	mov    %rax,0x10812(%rip)        # 299c8 <g_687>
   191b6:	48 8d 05 db bf 00 00 	lea    0xbfdb(%rip),%rax        # 25198 <g_176>
   191bd:	48 39 85 50 ee ff ff 	cmp    %rax,-0x11b0(%rbp)
   191c4:	0f 95 c0             	setne  %al
   191c7:	0f b6 c0             	movzbl %al,%eax
   191ca:	89 d6                	mov    %edx,%esi
   191cc:	89 c7                	mov    %eax,%edi
   191ce:	e8 5e 30 ff ff       	callq  c231 <safe_mod_func_int8_t_s_s>
   191d3:	44 0f be e0          	movsbl %al,%r12d
   191d7:	48 8b 85 00 ee ff ff 	mov    -0x1200(%rbp),%rax
   191de:	8b 00                	mov    (%rax),%eax
   191e0:	0f b7 c0             	movzwl %ax,%eax
   191e3:	be 0c 00 00 00       	mov    $0xc,%esi
   191e8:	89 c7                	mov    %eax,%edi
   191ea:	e8 8b 3c ff ff       	callq  ce7a <safe_rshift_func_uint16_t_u_u>
   191ef:	66 89 05 e2 bf 00 00 	mov    %ax,0xbfe2(%rip)        # 251d8 <g_453>
   191f6:	0f b7 05 db bf 00 00 	movzwl 0xbfdb(%rip),%eax        # 251d8 <g_453>
   191fd:	98                   	cwtl   
   191fe:	44 89 e6             	mov    %r12d,%esi
   19201:	89 c7                	mov    %eax,%edi
   19203:	e8 ed 31 ff ff       	callq  c3f5 <safe_mul_func_int16_t_s_s>
   19208:	98                   	cwtl   
   19209:	44 89 f6             	mov    %r14d,%esi
   1920c:	89 c7                	mov    %eax,%edi
   1920e:	e8 ea 3c ff ff       	callq  cefd <safe_mod_func_uint32_t_u_u>
   19213:	85 c0                	test   %eax,%eax
   19215:	75 0d                	jne    19224 <func_50+0x292a>
   19217:	48 8b 85 10 ee ff ff 	mov    -0x11f0(%rbp),%rax
   1921e:	8b 00                	mov    (%rax),%eax
   19220:	85 c0                	test   %eax,%eax
   19222:	74 07                	je     1922b <func_50+0x2931>
   19224:	b8 01 00 00 00       	mov    $0x1,%eax
   19229:	eb 05                	jmp    19230 <func_50+0x2936>
   1922b:	b8 00 00 00 00       	mov    $0x0,%eax
   19230:	48 63 d0             	movslq %eax,%rdx
   19233:	48 8b 05 c6 ee 00 00 	mov    0xeec6(%rip),%rax        # 28100 <g_124>
   1923a:	48 8b 00             	mov    (%rax),%rax
   1923d:	48 39 c2             	cmp    %rax,%rdx
   19240:	0f 95 c0             	setne  %al
   19243:	0f b6 c0             	movzbl %al,%eax
   19246:	41 39 c5             	cmp    %eax,%r13d
   19249:	0f 95 c0             	setne  %al
   1924c:	0f b6 d0             	movzbl %al,%edx
   1924f:	48 8b 85 c0 ec ff ff 	mov    -0x1340(%rbp),%rax
   19256:	48 8b 00             	mov    (%rax),%rax
   19259:	31 d0                	xor    %edx,%eax
   1925b:	8b 15 4f 07 01 00    	mov    0x1074f(%rip),%edx        # 299b0 <g_145>
   19261:	89 c6                	mov    %eax,%esi
   19263:	89 d7                	mov    %edx,%edi
   19265:	e8 9b 33 ff ff       	callq  c605 <safe_sub_func_int32_t_s_s>
   1926a:	48 8b 95 10 ee ff ff 	mov    -0x11f0(%rbp),%rdx
   19271:	8b 12                	mov    (%rdx),%edx
   19273:	31 d0                	xor    %edx,%eax
   19275:	3d f6 ff 00 00       	cmp    $0xfff6,%eax
   1927a:	0f 97 c0             	seta   %al
   1927d:	0f b6 c0             	movzbl %al,%eax
   19280:	0b 85 c8 ec ff ff    	or     -0x1338(%rbp),%eax
   19286:	89 c2                	mov    %eax,%edx
   19288:	48 8b 05 71 ee 00 00 	mov    0xee71(%rip),%rax        # 28100 <g_124>
   1928f:	48 8b 00             	mov    (%rax),%rax
   19292:	48 39 c2             	cmp    %rax,%rdx
   19295:	0f 95 c0             	setne  %al
   19298:	89 c2                	mov    %eax,%edx
   1929a:	48 8b 85 c0 ed ff ff 	mov    -0x1240(%rbp),%rax
   192a1:	8b 00                	mov    (%rax),%eax
   192a3:	09 d0                	or     %edx,%eax
   192a5:	0f be c0             	movsbl %al,%eax
   192a8:	48 8b 95 40 ee ff ff 	mov    -0x11c0(%rbp),%rdx
   192af:	0f b7 12             	movzwl (%rdx),%edx
   192b2:	8d 4a ff             	lea    -0x1(%rdx),%ecx
   192b5:	48 8b 95 40 ee ff ff 	mov    -0x11c0(%rbp),%rdx
   192bc:	66 89 0a             	mov    %cx,(%rdx)
   192bf:	89 c6                	mov    %eax,%esi
   192c1:	bf fd ff ff ff       	mov    $0xfffffffd,%edi
   192c6:	e8 27 2f ff ff       	callq  c1f2 <safe_sub_func_int8_t_s_s>
   192cb:	8b 85 cc ec ff ff    	mov    -0x1334(%rbp),%eax
   192d1:	0d ff ff 00 00       	or     $0xffff,%eax
   192d6:	89 c2                	mov    %eax,%edx
   192d8:	48 8b 85 c0 ec ff ff 	mov    -0x1340(%rbp),%rax
   192df:	48 8b 00             	mov    (%rax),%rax
   192e2:	48 39 c2             	cmp    %rax,%rdx
   192e5:	0f 97 c0             	seta   %al
   192e8:	0f b6 d0             	movzbl %al,%edx
   192eb:	48 8b 85 c0 ed ff ff 	mov    -0x1240(%rbp),%rax
   192f2:	8b 00                	mov    (%rax),%eax
   192f4:	0f b7 c0             	movzwl %ax,%eax
   192f7:	89 d6                	mov    %edx,%esi
   192f9:	89 c7                	mov    %eax,%edi
   192fb:	e8 be 3a ff ff       	callq  cdbe <safe_lshift_func_uint16_t_u_s>
   19300:	66 c7 05 b7 be 00 00 	movw   $0x1,0xbeb7(%rip)        # 251c0 <g_266>
   19307:	01 00 
   19309:	0f b7 05 b0 be 00 00 	movzwl 0xbeb0(%rip),%eax        # 251c0 <g_266>
   19310:	0f b7 c0             	movzwl %ax,%eax
   19313:	be 00 00 00 00       	mov    $0x0,%esi
   19318:	89 c7                	mov    %eax,%edi
   1931a:	e8 e7 3a ff ff       	callq  ce06 <safe_lshift_func_uint16_t_u_u>
   1931f:	66 83 f8 ff          	cmp    $0xffff,%ax
   19323:	0f 95 c0             	setne  %al
   19326:	0f b6 c0             	movzbl %al,%eax
   19329:	48 89 de             	mov    %rbx,%rsi
   1932c:	48 89 c7             	mov    %rax,%rdi
   1932f:	e8 17 3d ff ff       	callq  d04b <safe_sub_func_uint64_t_u_u>
   19334:	48 85 c0             	test   %rax,%rax
   19337:	74 0b                	je     19344 <func_50+0x2a4a>
   19339:	48 8b 85 c0 ed ff ff 	mov    -0x1240(%rbp),%rax
   19340:	8b 00                	mov    (%rax),%eax
   19342:	85 c0                	test   %eax,%eax
   19344:	48 8b 85 28 ef ff ff 	mov    -0x10d8(%rbp),%rax
   1934b:	48 89 05 66 06 01 00 	mov    %rax,0x10666(%rip)        # 299b8 <g_340>
   19352:	c7 05 6c be 00 00 00 	movl   $0x0,0xbe6c(%rip)        # 251c8 <g_359>
   19359:	00 00 00 
   1935c:	90                   	nop
   1935d:	8b 05 65 be 00 00    	mov    0xbe65(%rip),%eax        # 251c8 <g_359>
   19363:	83 f8 05             	cmp    $0x5,%eax
   19366:	0f 8f b8 00 00 00    	jg     19424 <func_50+0x2b2a>
   1936c:	48 8d 05 11 be 00 00 	lea    0xbe11(%rip),%rax        # 25184 <g_92>
   19373:	48 89 85 30 ef ff ff 	mov    %rax,-0x10d0(%rbp)
   1937a:	48 8b 05 87 ed 00 00 	mov    0xed87(%rip),%rax        # 28108 <g_311>
   19381:	0f b6 00             	movzbl (%rax),%eax
   19384:	0f be d8             	movsbl %al,%ebx
   19387:	8b 05 d7 bd 00 00    	mov    0xbdd7(%rip),%eax        # 25164 <g_9>
   1938d:	c1 e8 1f             	shr    $0x1f,%eax
   19390:	0f b6 d0             	movzbl %al,%edx
   19393:	48 8b 85 20 ee ff ff 	mov    -0x11e0(%rbp),%rax
   1939a:	48 89 10             	mov    %rdx,(%rax)
   1939d:	8b 85 cc ec ff ff    	mov    -0x1334(%rbp),%eax
   193a3:	0f b7 c0             	movzwl %ax,%eax
   193a6:	be 26 8e 00 00       	mov    $0x8e26,%esi
   193ab:	89 c7                	mov    %eax,%edi
   193ad:	e8 4d 39 ff ff       	callq  ccff <safe_add_func_uint16_t_u_u>
   193b2:	0f b7 c0             	movzwl %ax,%eax
   193b5:	39 c3                	cmp    %eax,%ebx
   193b7:	7c 11                	jl     193ca <func_50+0x2ad0>
   193b9:	be 06 00 00 00       	mov    $0x6,%esi
   193be:	bf 00 00 00 00       	mov    $0x0,%edi
   193c3:	e8 6d 2f ff ff       	callq  c335 <safe_rshift_func_int8_t_s_s>
   193c8:	84 c0                	test   %al,%al
   193ca:	48 8d 05 0b be 00 00 	lea    0xbe0b(%rip),%rax        # 251dc <g_508>
   193d1:	48 39 85 30 ef ff ff 	cmp    %rax,-0x10d0(%rbp)
   193d8:	0f 95 c0             	setne  %al
   193db:	0f b6 c0             	movzbl %al,%eax
   193de:	89 c7                	mov    %eax,%edi
   193e0:	e8 b8 2f ff ff       	callq  c39d <safe_unary_minus_func_int16_t_s>
   193e5:	8b 85 cc ec ff ff    	mov    -0x1334(%rbp),%eax
   193eb:	be e0 33 ba 33       	mov    $0x33ba33e0,%esi
   193f0:	89 c7                	mov    %eax,%edi
   193f2:	e8 0e 32 ff ff       	callq  c605 <safe_sub_func_int32_t_s_s>
   193f7:	83 e0 f7             	and    $0xfffffff7,%eax
   193fa:	48 63 d0             	movslq %eax,%rdx
   193fd:	48 8b 05 74 bd 00 00 	mov    0xbd74(%rip),%rax        # 25178 <g_55>
   19404:	48 39 c2             	cmp    %rax,%rdx
   19407:	48 8b 95 c0 ed ff ff 	mov    -0x1240(%rbp),%rdx
   1940e:	48 8b 05 a3 05 01 00 	mov    0x105a3(%rip),%rax        # 299b8 <g_340>
   19415:	8b 12                	mov    (%rdx),%edx
   19417:	89 10                	mov    %edx,(%rax)
   19419:	8b 85 c8 ec ff ff    	mov    -0x1338(%rbp),%eax
   1941f:	e9 51 13 00 00       	jmpq   1a775 <func_50+0x3e7b>
   19424:	8b 05 5e bd 00 00    	mov    0xbd5e(%rip),%eax        # 25188 <g_98>
   1942a:	83 c0 01             	add    $0x1,%eax
   1942d:	89 05 55 bd 00 00    	mov    %eax,0xbd55(%rip)        # 25188 <g_98>
   19433:	8b 05 4f bd 00 00    	mov    0xbd4f(%rip),%eax        # 25188 <g_98>
   19439:	83 f8 1b             	cmp    $0x1b,%eax
   1943c:	0f 8f 81 fa ff ff    	jg     18ec3 <func_50+0x25c9>
   19442:	8b 05 80 bd 00 00    	mov    0xbd80(%rip),%eax        # 251c8 <g_359>
   19448:	0f b6 d8             	movzbl %al,%ebx
   1944b:	8b 85 c8 ec ff ff    	mov    -0x1338(%rbp),%eax
   19451:	0f bf d0             	movswl %ax,%edx
   19454:	0f b7 05 55 bd 00 00 	movzwl 0xbd55(%rip),%eax        # 251b0 <g_200>
   1945b:	98                   	cwtl   
   1945c:	89 d6                	mov    %edx,%esi
   1945e:	89 c7                	mov    %eax,%edi
   19460:	e8 4e 2f ff ff       	callq  c3b3 <safe_add_func_int16_t_s_s>
   19465:	66 85 c0             	test   %ax,%ax
   19468:	0f 85 b9 00 00 00    	jne    19527 <func_50+0x2c2d>
   1946e:	8b 85 c8 ec ff ff    	mov    -0x1338(%rbp),%eax
   19474:	44 0f be e0          	movsbl %al,%r12d
   19478:	8b 05 3a bd 00 00    	mov    0xbd3a(%rip),%eax        # 251b8 <g_217>
   1947e:	41 89 c7             	mov    %eax,%r15d
   19481:	44 0f be ad df ec ff 	movsbl -0x1321(%rbp),%r13d
   19488:	ff 
   19489:	48 8b 95 f0 ed ff ff 	mov    -0x1210(%rbp),%rdx
   19490:	48 8b 85 60 ee ff ff 	mov    -0x11a0(%rbp),%rax
   19497:	48 89 10             	mov    %rdx,(%rax)
   1949a:	48 8b 85 60 ee ff ff 	mov    -0x11a0(%rbp),%rax
   194a1:	48 8b 00             	mov    (%rax),%rax
   194a4:	48 8d 15 05 bd 00 00 	lea    0xbd05(%rip),%rdx        # 251b0 <g_200>
   194ab:	48 39 d0             	cmp    %rdx,%rax
   194ae:	0f 95 c0             	setne  %al
   194b1:	44 0f b6 f0          	movzbl %al,%r14d
   194b5:	48 8b 05 14 bd 00 00 	mov    0xbd14(%rip),%rax        # 251d0 <g_394>
   194bc:	0f b6 c0             	movzbl %al,%eax
   194bf:	89 c6                	mov    %eax,%esi
   194c1:	bf 01 00 00 00       	mov    $0x1,%edi
   194c6:	e8 10 37 ff ff       	callq  cbdb <safe_div_func_uint8_t_u_u>
   194cb:	0f b6 c0             	movzbl %al,%eax
   194ce:	44 89 f6             	mov    %r14d,%esi
   194d1:	89 c7                	mov    %eax,%edi
   194d3:	e8 47 38 ff ff       	callq  cd1f <safe_sub_func_uint16_t_u_u>
   194d8:	0f be c0             	movsbl %al,%eax
   194db:	44 89 ee             	mov    %r13d,%esi
   194de:	89 c7                	mov    %eax,%edi
   194e0:	e8 bc 2d ff ff       	callq  c2a1 <safe_lshift_func_int8_t_s_s>
   194e5:	be 06 00 00 00       	mov    $0x6,%esi
   194ea:	bf 47 00 00 00       	mov    $0x47,%edi
   194ef:	e8 9f 36 ff ff       	callq  cb93 <safe_mul_func_uint8_t_u_u>
   194f4:	0f b6 c0             	movzbl %al,%eax
   194f7:	39 85 c8 ec ff ff    	cmp    %eax,-0x1338(%rbp)
   194fd:	44 89 fe             	mov    %r15d,%esi
   19500:	bf 00 00 00 00       	mov    $0x0,%edi
   19505:	e8 59 30 ff ff       	callq  c563 <safe_rshift_func_int16_t_s_u>
   1950a:	0f be c0             	movsbl %al,%eax
   1950d:	44 89 e6             	mov    %r12d,%esi
   19510:	89 c7                	mov    %eax,%edi
   19512:	e8 db 2c ff ff       	callq  c1f2 <safe_sub_func_int8_t_s_s>
   19517:	48 8b 85 c0 ec ff ff 	mov    -0x1340(%rbp),%rax
   1951e:	48 8b 00             	mov    (%rax),%rax
   19521:	48 83 f8 01          	cmp    $0x1,%rax
   19525:	74 07                	je     1952e <func_50+0x2c34>
   19527:	b8 01 00 00 00       	mov    $0x1,%eax
   1952c:	eb 05                	jmp    19533 <func_50+0x2c39>
   1952e:	b8 00 00 00 00       	mov    $0x0,%eax
   19533:	98                   	cwtl   
   19534:	be 09 00 00 00       	mov    $0x9,%esi
   19539:	89 c7                	mov    %eax,%edi
   1953b:	e8 52 2f ff ff       	callq  c492 <safe_lshift_func_int16_t_s_s>
   19540:	98                   	cwtl   
   19541:	be 0a 00 00 00       	mov    $0xa,%esi
   19546:	89 c7                	mov    %eax,%edi
   19548:	e8 45 2f ff ff       	callq  c492 <safe_lshift_func_int16_t_s_s>
   1954d:	0f b6 c0             	movzbl %al,%eax
   19550:	89 de                	mov    %ebx,%esi
   19552:	89 c7                	mov    %eax,%edi
   19554:	e8 01 36 ff ff       	callq  cb5a <safe_add_func_uint8_t_u_u>
   19559:	0f b6 c0             	movzbl %al,%eax
   1955c:	39 85 18 ed ff ff    	cmp    %eax,-0x12e8(%rbp)
   19562:	0f 83 4b 0f 00 00    	jae    1a4b3 <func_50+0x3bb9>
   19568:	48 8d 05 6d bc 00 00 	lea    0xbc6d(%rip),%rax        # 251dc <g_508>
   1956f:	48 89 85 70 ee ff ff 	mov    %rax,-0x1190(%rbp)
   19576:	48 c7 85 78 ee ff ff 	movq   $0x0,-0x1188(%rbp)
   1957d:	00 00 00 00 
   19581:	48 8d 05 54 bc 00 00 	lea    0xbc54(%rip),%rax        # 251dc <g_508>
   19588:	48 89 85 80 ee ff ff 	mov    %rax,-0x1180(%rbp)
   1958f:	48 8d 85 fc ec ff ff 	lea    -0x1304(%rbp),%rax
   19596:	48 89 85 88 ee ff ff 	mov    %rax,-0x1178(%rbp)
   1959d:	48 c7 85 90 ee ff ff 	movq   $0x0,-0x1170(%rbp)
   195a4:	00 00 00 00 
   195a8:	48 c7 85 98 ee ff ff 	movq   $0x0,-0x1168(%rbp)
   195af:	00 00 00 00 
   195b3:	48 8d 85 f8 ec ff ff 	lea    -0x1308(%rbp),%rax
   195ba:	48 89 85 a0 ee ff ff 	mov    %rax,-0x1160(%rbp)
   195c1:	48 8d 05 00 bc 00 00 	lea    0xbc00(%rip),%rax        # 251c8 <g_359>
   195c8:	48 89 85 a8 ee ff ff 	mov    %rax,-0x1158(%rbp)
   195cf:	48 8d 85 fc ec ff ff 	lea    -0x1304(%rbp),%rax
   195d6:	48 89 85 b0 ee ff ff 	mov    %rax,-0x1150(%rbp)
   195dd:	48 c7 85 b8 ee ff ff 	movq   $0x0,-0x1148(%rbp)
   195e4:	00 00 00 00 
   195e8:	48 c7 85 c0 ee ff ff 	movq   $0x0,-0x1140(%rbp)
   195ef:	00 00 00 00 
   195f3:	48 8d 85 f8 ec ff ff 	lea    -0x1308(%rbp),%rax
   195fa:	48 89 85 c8 ee ff ff 	mov    %rax,-0x1138(%rbp)
   19601:	48 8d 05 c0 bb 00 00 	lea    0xbbc0(%rip),%rax        # 251c8 <g_359>
   19608:	48 89 85 d0 ee ff ff 	mov    %rax,-0x1130(%rbp)
   1960f:	48 8d 85 fc ec ff ff 	lea    -0x1304(%rbp),%rax
   19616:	48 89 85 40 f1 ff ff 	mov    %rax,-0xec0(%rbp)
   1961d:	48 8d 05 b8 bb 00 00 	lea    0xbbb8(%rip),%rax        # 251dc <g_508>
   19624:	48 89 85 48 f1 ff ff 	mov    %rax,-0xeb8(%rbp)
   1962b:	48 8d 85 fc ec ff ff 	lea    -0x1304(%rbp),%rax
   19632:	48 89 85 50 f1 ff ff 	mov    %rax,-0xeb0(%rbp)
   19639:	48 8d 85 fc ec ff ff 	lea    -0x1304(%rbp),%rax
   19640:	48 89 85 58 f1 ff ff 	mov    %rax,-0xea8(%rbp)
   19647:	48 8d 05 8e bb 00 00 	lea    0xbb8e(%rip),%rax        # 251dc <g_508>
   1964e:	48 89 85 60 f1 ff ff 	mov    %rax,-0xea0(%rbp)
   19655:	48 8d 85 fc ec ff ff 	lea    -0x1304(%rbp),%rax
   1965c:	48 89 85 68 f1 ff ff 	mov    %rax,-0xe98(%rbp)
   19663:	48 8d 85 fc ec ff ff 	lea    -0x1304(%rbp),%rax
   1966a:	48 89 85 70 f1 ff ff 	mov    %rax,-0xe90(%rbp)
   19671:	48 8d 05 64 bb 00 00 	lea    0xbb64(%rip),%rax        # 251dc <g_508>
   19678:	48 89 85 78 f1 ff ff 	mov    %rax,-0xe88(%rbp)
   1967f:	48 8d 85 fc ec ff ff 	lea    -0x1304(%rbp),%rax
   19686:	48 89 85 80 f1 ff ff 	mov    %rax,-0xe80(%rbp)
   1968d:	48 8d 85 fc ec ff ff 	lea    -0x1304(%rbp),%rax
   19694:	48 89 85 88 f1 ff ff 	mov    %rax,-0xe78(%rbp)
   1969b:	48 8d 05 3a bb 00 00 	lea    0xbb3a(%rip),%rax        # 251dc <g_508>
   196a2:	48 89 85 90 f1 ff ff 	mov    %rax,-0xe70(%rbp)
   196a9:	48 8d 85 fc ec ff ff 	lea    -0x1304(%rbp),%rax
   196b0:	48 89 85 98 f1 ff ff 	mov    %rax,-0xe68(%rbp)
   196b7:	48 8d 85 b0 ed ff ff 	lea    -0x1250(%rbp),%rax
   196be:	48 89 85 f8 ed ff ff 	mov    %rax,-0x1208(%rbp)
   196c5:	48 8d 85 f8 ed ff ff 	lea    -0x1208(%rbp),%rax
   196cc:	48 89 85 d8 ee ff ff 	mov    %rax,-0x1128(%rbp)
   196d3:	48 8d 05 f6 eb 00 00 	lea    0xebf6(%rip),%rax        # 282d0 <g_799>
   196da:	48 89 85 00 ee ff ff 	mov    %rax,-0x1200(%rbp)
   196e1:	48 8d 85 00 ee ff ff 	lea    -0x1200(%rbp),%rax
   196e8:	48 89 85 e0 ee ff ff 	mov    %rax,-0x1120(%rbp)
   196ef:	8b 05 c3 bb 00 00    	mov    0xbbc3(%rip),%eax        # 252b8 <g_741>
   196f5:	83 e8 01             	sub    $0x1,%eax
   196f8:	89 05 ba bb 00 00    	mov    %eax,0xbbba(%rip)        # 252b8 <g_741>
   196fe:	c6 05 9b ba 00 00 00 	movb   $0x0,0xba9b(%rip)        # 251a0 <g_177>
   19705:	e9 f5 0b 00 00       	jmpq   1a2ff <func_50+0x3a05>
   1970a:	66 c7 85 ee ec ff ff 	movw   $0xe65a,-0x1312(%rbp)
   19711:	5a e6 
   19713:	c7 85 50 ed ff ff 01 	movl   $0x1,-0x12b0(%rbp)
   1971a:	00 00 00 
   1971d:	c7 85 54 ed ff ff 08 	movl   $0xe488b108,-0x12ac(%rbp)
   19724:	b1 88 e4 
   19727:	c7 85 58 ed ff ff 73 	movl   $0xd94fb473,-0x12a8(%rbp)
   1972e:	b4 4f d9 
   19731:	c7 85 5c ed ff ff 97 	movl   $0x608c6897,-0x12a4(%rbp)
   19738:	68 8c 60 
   1973b:	c7 85 70 f0 ff ff f7 	movl   $0xfffffff7,-0xf90(%rbp)
   19742:	ff ff ff 
   19745:	c7 85 74 f0 ff ff 08 	movl   $0x8,-0xf8c(%rbp)
   1974c:	00 00 00 
   1974f:	c7 85 78 f0 ff ff f7 	movl   $0xfffffff7,-0xf88(%rbp)
   19756:	ff ff ff 
   19759:	c7 85 7c f0 ff ff 08 	movl   $0x8,-0xf84(%rbp)
   19760:	00 00 00 
   19763:	c7 85 80 f0 ff ff f7 	movl   $0xfffffff7,-0xf80(%rbp)
   1976a:	ff ff ff 
   1976d:	c7 85 84 f0 ff ff 08 	movl   $0x8,-0xf7c(%rbp)
   19774:	00 00 00 
   19777:	c7 85 88 f0 ff ff f7 	movl   $0xfffffff7,-0xf78(%rbp)
   1977e:	ff ff ff 
   19781:	c7 85 8c f0 ff ff 08 	movl   $0x8,-0xf74(%rbp)
   19788:	00 00 00 
   1978b:	48 8d 85 d0 ed ff ff 	lea    -0x1230(%rbp),%rax
   19792:	48 89 85 40 fb ff ff 	mov    %rax,-0x4c0(%rbp)
   19799:	48 8d 85 d0 ed ff ff 	lea    -0x1230(%rbp),%rax
   197a0:	48 89 85 48 fb ff ff 	mov    %rax,-0x4b8(%rbp)
   197a7:	48 8d 85 d0 ed ff ff 	lea    -0x1230(%rbp),%rax
   197ae:	48 89 85 50 fb ff ff 	mov    %rax,-0x4b0(%rbp)
   197b5:	48 8d 85 d0 ed ff ff 	lea    -0x1230(%rbp),%rax
   197bc:	48 89 85 58 fb ff ff 	mov    %rax,-0x4a8(%rbp)
   197c3:	48 8d 85 d0 ed ff ff 	lea    -0x1230(%rbp),%rax
   197ca:	48 89 85 60 fb ff ff 	mov    %rax,-0x4a0(%rbp)
   197d1:	48 8d 85 d0 ed ff ff 	lea    -0x1230(%rbp),%rax
   197d8:	48 89 85 68 fb ff ff 	mov    %rax,-0x498(%rbp)
   197df:	48 8d 85 d0 ed ff ff 	lea    -0x1230(%rbp),%rax
   197e6:	48 89 85 70 fb ff ff 	mov    %rax,-0x490(%rbp)
   197ed:	48 8d 85 d0 ed ff ff 	lea    -0x1230(%rbp),%rax
   197f4:	48 89 85 78 fb ff ff 	mov    %rax,-0x488(%rbp)
   197fb:	48 8d 85 d0 ed ff ff 	lea    -0x1230(%rbp),%rax
   19802:	48 89 85 80 fb ff ff 	mov    %rax,-0x480(%rbp)
   19809:	48 8d 85 d0 ed ff ff 	lea    -0x1230(%rbp),%rax
   19810:	48 89 85 88 fb ff ff 	mov    %rax,-0x478(%rbp)
   19817:	48 8d 85 d0 ed ff ff 	lea    -0x1230(%rbp),%rax
   1981e:	48 89 85 90 fb ff ff 	mov    %rax,-0x470(%rbp)
   19825:	48 8d 85 d0 ed ff ff 	lea    -0x1230(%rbp),%rax
   1982c:	48 89 85 98 fb ff ff 	mov    %rax,-0x468(%rbp)
   19833:	48 8d 85 d0 ed ff ff 	lea    -0x1230(%rbp),%rax
   1983a:	48 89 85 a0 fb ff ff 	mov    %rax,-0x460(%rbp)
   19841:	48 c7 85 a8 fb ff ff 	movq   $0x0,-0x458(%rbp)
   19848:	00 00 00 00 
   1984c:	48 8d 85 d0 ed ff ff 	lea    -0x1230(%rbp),%rax
   19853:	48 89 85 b0 fb ff ff 	mov    %rax,-0x450(%rbp)
   1985a:	48 8d 85 d0 ed ff ff 	lea    -0x1230(%rbp),%rax
   19861:	48 89 85 b8 fb ff ff 	mov    %rax,-0x448(%rbp)
   19868:	48 8d 85 d0 ed ff ff 	lea    -0x1230(%rbp),%rax
   1986f:	48 89 85 c0 fb ff ff 	mov    %rax,-0x440(%rbp)
   19876:	48 8d 85 d0 ed ff ff 	lea    -0x1230(%rbp),%rax
   1987d:	48 89 85 c8 fb ff ff 	mov    %rax,-0x438(%rbp)
   19884:	48 8d 85 d0 ed ff ff 	lea    -0x1230(%rbp),%rax
   1988b:	48 89 85 d0 fb ff ff 	mov    %rax,-0x430(%rbp)
   19892:	48 8d 85 d0 ed ff ff 	lea    -0x1230(%rbp),%rax
   19899:	48 89 85 d8 fb ff ff 	mov    %rax,-0x428(%rbp)
   198a0:	48 8d 85 d0 ed ff ff 	lea    -0x1230(%rbp),%rax
   198a7:	48 89 85 e0 fb ff ff 	mov    %rax,-0x420(%rbp)
   198ae:	48 8d 85 d0 ed ff ff 	lea    -0x1230(%rbp),%rax
   198b5:	48 89 85 e8 fb ff ff 	mov    %rax,-0x418(%rbp)
   198bc:	48 8d 85 d0 ed ff ff 	lea    -0x1230(%rbp),%rax
   198c3:	48 89 85 f0 fb ff ff 	mov    %rax,-0x410(%rbp)
   198ca:	48 8d 85 d0 ed ff ff 	lea    -0x1230(%rbp),%rax
   198d1:	48 89 85 f8 fb ff ff 	mov    %rax,-0x408(%rbp)
   198d8:	48 c7 85 00 fc ff ff 	movq   $0x0,-0x400(%rbp)
   198df:	00 00 00 00 
   198e3:	48 8d 85 d0 ed ff ff 	lea    -0x1230(%rbp),%rax
   198ea:	48 89 85 08 fc ff ff 	mov    %rax,-0x3f8(%rbp)
   198f1:	48 8d 85 d0 ed ff ff 	lea    -0x1230(%rbp),%rax
   198f8:	48 89 85 10 fc ff ff 	mov    %rax,-0x3f0(%rbp)
   198ff:	48 8d 85 d0 ed ff ff 	lea    -0x1230(%rbp),%rax
   19906:	48 89 85 18 fc ff ff 	mov    %rax,-0x3e8(%rbp)
   1990d:	48 8d 85 d0 ed ff ff 	lea    -0x1230(%rbp),%rax
   19914:	48 89 85 20 fc ff ff 	mov    %rax,-0x3e0(%rbp)
   1991b:	48 c7 85 28 fc ff ff 	movq   $0x0,-0x3d8(%rbp)
   19922:	00 00 00 00 
   19926:	48 c7 85 30 fc ff ff 	movq   $0x0,-0x3d0(%rbp)
   1992d:	00 00 00 00 
   19931:	48 8d 85 d0 ed ff ff 	lea    -0x1230(%rbp),%rax
   19938:	48 89 85 38 fc ff ff 	mov    %rax,-0x3c8(%rbp)
   1993f:	48 c7 85 40 fc ff ff 	movq   $0x0,-0x3c0(%rbp)
   19946:	00 00 00 00 
   1994a:	48 8d 85 d0 ed ff ff 	lea    -0x1230(%rbp),%rax
   19951:	48 89 85 48 fc ff ff 	mov    %rax,-0x3b8(%rbp)
   19958:	48 8d 85 d0 ed ff ff 	lea    -0x1230(%rbp),%rax
   1995f:	48 89 85 50 fc ff ff 	mov    %rax,-0x3b0(%rbp)
   19966:	48 8d 85 d0 ed ff ff 	lea    -0x1230(%rbp),%rax
   1996d:	48 89 85 58 fc ff ff 	mov    %rax,-0x3a8(%rbp)
   19974:	48 8d 85 d0 ed ff ff 	lea    -0x1230(%rbp),%rax
   1997b:	48 89 85 60 fc ff ff 	mov    %rax,-0x3a0(%rbp)
   19982:	48 8d 85 d0 ed ff ff 	lea    -0x1230(%rbp),%rax
   19989:	48 89 85 68 fc ff ff 	mov    %rax,-0x398(%rbp)
   19990:	48 8d 85 d0 ed ff ff 	lea    -0x1230(%rbp),%rax
   19997:	48 89 85 70 fc ff ff 	mov    %rax,-0x390(%rbp)
   1999e:	48 8d 85 d0 ed ff ff 	lea    -0x1230(%rbp),%rax
   199a5:	48 89 85 78 fc ff ff 	mov    %rax,-0x388(%rbp)
   199ac:	48 8d 85 d0 ed ff ff 	lea    -0x1230(%rbp),%rax
   199b3:	48 89 85 80 fc ff ff 	mov    %rax,-0x380(%rbp)
   199ba:	48 c7 85 88 fc ff ff 	movq   $0x0,-0x378(%rbp)
   199c1:	00 00 00 00 
   199c5:	48 8d 85 d0 ed ff ff 	lea    -0x1230(%rbp),%rax
   199cc:	48 89 85 90 fc ff ff 	mov    %rax,-0x370(%rbp)
   199d3:	48 8d 85 d0 ed ff ff 	lea    -0x1230(%rbp),%rax
   199da:	48 89 85 98 fc ff ff 	mov    %rax,-0x368(%rbp)
   199e1:	48 c7 85 a0 fc ff ff 	movq   $0x0,-0x360(%rbp)
   199e8:	00 00 00 00 
   199ec:	48 8d 85 d0 ed ff ff 	lea    -0x1230(%rbp),%rax
   199f3:	48 89 85 a8 fc ff ff 	mov    %rax,-0x358(%rbp)
   199fa:	48 8d 85 d0 ed ff ff 	lea    -0x1230(%rbp),%rax
   19a01:	48 89 85 b0 fc ff ff 	mov    %rax,-0x350(%rbp)
   19a08:	48 c7 85 b8 fc ff ff 	movq   $0x0,-0x348(%rbp)
   19a0f:	00 00 00 00 
   19a13:	48 8d 85 d0 ed ff ff 	lea    -0x1230(%rbp),%rax
   19a1a:	48 89 85 c0 fc ff ff 	mov    %rax,-0x340(%rbp)
   19a21:	48 8d 85 d0 ed ff ff 	lea    -0x1230(%rbp),%rax
   19a28:	48 89 85 c8 fc ff ff 	mov    %rax,-0x338(%rbp)
   19a2f:	48 8d 85 d0 ed ff ff 	lea    -0x1230(%rbp),%rax
   19a36:	48 89 85 d0 fc ff ff 	mov    %rax,-0x330(%rbp)
   19a3d:	48 8d 85 d0 ed ff ff 	lea    -0x1230(%rbp),%rax
   19a44:	48 89 85 d8 fc ff ff 	mov    %rax,-0x328(%rbp)
   19a4b:	48 c7 85 e0 fc ff ff 	movq   $0x0,-0x320(%rbp)
   19a52:	00 00 00 00 
   19a56:	48 8d 85 d0 ed ff ff 	lea    -0x1230(%rbp),%rax
   19a5d:	48 89 85 e8 fc ff ff 	mov    %rax,-0x318(%rbp)
   19a64:	48 8d 85 d0 ed ff ff 	lea    -0x1230(%rbp),%rax
   19a6b:	48 89 85 f0 fc ff ff 	mov    %rax,-0x310(%rbp)
   19a72:	48 8d 85 d0 ed ff ff 	lea    -0x1230(%rbp),%rax
   19a79:	48 89 85 f8 fc ff ff 	mov    %rax,-0x308(%rbp)
   19a80:	48 8d 85 d0 ed ff ff 	lea    -0x1230(%rbp),%rax
   19a87:	48 89 85 00 fd ff ff 	mov    %rax,-0x300(%rbp)
   19a8e:	48 8d 85 d0 ed ff ff 	lea    -0x1230(%rbp),%rax
   19a95:	48 89 85 08 fd ff ff 	mov    %rax,-0x2f8(%rbp)
   19a9c:	48 8d 85 d0 ed ff ff 	lea    -0x1230(%rbp),%rax
   19aa3:	48 89 85 10 fd ff ff 	mov    %rax,-0x2f0(%rbp)
   19aaa:	48 8d 85 d0 ed ff ff 	lea    -0x1230(%rbp),%rax
   19ab1:	48 89 85 18 fd ff ff 	mov    %rax,-0x2e8(%rbp)
   19ab8:	48 8d 85 d0 ed ff ff 	lea    -0x1230(%rbp),%rax
   19abf:	48 89 85 20 fd ff ff 	mov    %rax,-0x2e0(%rbp)
   19ac6:	48 c7 85 28 fd ff ff 	movq   $0x0,-0x2d8(%rbp)
   19acd:	00 00 00 00 
   19ad1:	48 c7 85 30 fd ff ff 	movq   $0x0,-0x2d0(%rbp)
   19ad8:	00 00 00 00 
   19adc:	48 8d 85 d0 ed ff ff 	lea    -0x1230(%rbp),%rax
   19ae3:	48 89 85 38 fd ff ff 	mov    %rax,-0x2c8(%rbp)
   19aea:	48 8d 85 d0 ed ff ff 	lea    -0x1230(%rbp),%rax
   19af1:	48 89 85 40 fd ff ff 	mov    %rax,-0x2c0(%rbp)
   19af8:	48 8d 85 d0 ed ff ff 	lea    -0x1230(%rbp),%rax
   19aff:	48 89 85 48 fd ff ff 	mov    %rax,-0x2b8(%rbp)
   19b06:	48 8d 85 d0 ed ff ff 	lea    -0x1230(%rbp),%rax
   19b0d:	48 89 85 50 fd ff ff 	mov    %rax,-0x2b0(%rbp)
   19b14:	48 8d 85 d0 ed ff ff 	lea    -0x1230(%rbp),%rax
   19b1b:	48 89 85 58 fd ff ff 	mov    %rax,-0x2a8(%rbp)
   19b22:	48 8d 85 d0 ed ff ff 	lea    -0x1230(%rbp),%rax
   19b29:	48 89 85 60 fd ff ff 	mov    %rax,-0x2a0(%rbp)
   19b30:	48 8d 85 d0 ed ff ff 	lea    -0x1230(%rbp),%rax
   19b37:	48 89 85 68 fd ff ff 	mov    %rax,-0x298(%rbp)
   19b3e:	48 8d 85 d0 ed ff ff 	lea    -0x1230(%rbp),%rax
   19b45:	48 89 85 70 fd ff ff 	mov    %rax,-0x290(%rbp)
   19b4c:	48 8d 85 d0 ed ff ff 	lea    -0x1230(%rbp),%rax
   19b53:	48 89 85 78 fd ff ff 	mov    %rax,-0x288(%rbp)
   19b5a:	48 8d 85 d0 ed ff ff 	lea    -0x1230(%rbp),%rax
   19b61:	48 89 85 80 fd ff ff 	mov    %rax,-0x280(%rbp)
   19b68:	48 c7 85 88 fd ff ff 	movq   $0x0,-0x278(%rbp)
   19b6f:	00 00 00 00 
   19b73:	48 8d 85 d0 ed ff ff 	lea    -0x1230(%rbp),%rax
   19b7a:	48 89 85 90 fd ff ff 	mov    %rax,-0x270(%rbp)
   19b81:	48 8d 85 d0 ed ff ff 	lea    -0x1230(%rbp),%rax
   19b88:	48 89 85 98 fd ff ff 	mov    %rax,-0x268(%rbp)
   19b8f:	48 8d 85 d0 ed ff ff 	lea    -0x1230(%rbp),%rax
   19b96:	48 89 85 a0 fd ff ff 	mov    %rax,-0x260(%rbp)
   19b9d:	48 8d 85 d0 ed ff ff 	lea    -0x1230(%rbp),%rax
   19ba4:	48 89 85 a8 fd ff ff 	mov    %rax,-0x258(%rbp)
   19bab:	48 8d 85 d0 ed ff ff 	lea    -0x1230(%rbp),%rax
   19bb2:	48 89 85 b0 fd ff ff 	mov    %rax,-0x250(%rbp)
   19bb9:	48 8d 85 d0 ed ff ff 	lea    -0x1230(%rbp),%rax
   19bc0:	48 89 85 b8 fd ff ff 	mov    %rax,-0x248(%rbp)
   19bc7:	48 c7 85 c0 fd ff ff 	movq   $0x0,-0x240(%rbp)
   19bce:	00 00 00 00 
   19bd2:	48 8d 85 d0 ed ff ff 	lea    -0x1230(%rbp),%rax
   19bd9:	48 89 85 c8 fd ff ff 	mov    %rax,-0x238(%rbp)
   19be0:	48 8d 85 d0 ed ff ff 	lea    -0x1230(%rbp),%rax
   19be7:	48 89 85 d0 fd ff ff 	mov    %rax,-0x230(%rbp)
   19bee:	48 c7 85 d8 fd ff ff 	movq   $0x0,-0x228(%rbp)
   19bf5:	00 00 00 00 
   19bf9:	48 c7 85 e0 fd ff ff 	movq   $0x0,-0x220(%rbp)
   19c00:	00 00 00 00 
   19c04:	48 8d 85 d0 ed ff ff 	lea    -0x1230(%rbp),%rax
   19c0b:	48 89 85 e8 fd ff ff 	mov    %rax,-0x218(%rbp)
   19c12:	48 8d 85 d0 ed ff ff 	lea    -0x1230(%rbp),%rax
   19c19:	48 89 85 f0 fd ff ff 	mov    %rax,-0x210(%rbp)
   19c20:	48 8d 85 d0 ed ff ff 	lea    -0x1230(%rbp),%rax
   19c27:	48 89 85 f8 fd ff ff 	mov    %rax,-0x208(%rbp)
   19c2e:	48 c7 85 00 fe ff ff 	movq   $0x0,-0x200(%rbp)
   19c35:	00 00 00 00 
   19c39:	48 8d 85 d0 ed ff ff 	lea    -0x1230(%rbp),%rax
   19c40:	48 89 85 08 fe ff ff 	mov    %rax,-0x1f8(%rbp)
   19c47:	48 8d 85 d0 ed ff ff 	lea    -0x1230(%rbp),%rax
   19c4e:	48 89 85 10 fe ff ff 	mov    %rax,-0x1f0(%rbp)
   19c55:	48 8d 85 d0 ed ff ff 	lea    -0x1230(%rbp),%rax
   19c5c:	48 89 85 18 fe ff ff 	mov    %rax,-0x1e8(%rbp)
   19c63:	48 c7 85 20 fe ff ff 	movq   $0x0,-0x1e0(%rbp)
   19c6a:	00 00 00 00 
   19c6e:	48 8d 85 d0 ed ff ff 	lea    -0x1230(%rbp),%rax
   19c75:	48 89 85 28 fe ff ff 	mov    %rax,-0x1d8(%rbp)
   19c7c:	48 8d 85 d0 ed ff ff 	lea    -0x1230(%rbp),%rax
   19c83:	48 89 85 30 fe ff ff 	mov    %rax,-0x1d0(%rbp)
   19c8a:	48 8d 85 d0 ed ff ff 	lea    -0x1230(%rbp),%rax
   19c91:	48 89 85 38 fe ff ff 	mov    %rax,-0x1c8(%rbp)
   19c98:	48 8d 85 d0 ed ff ff 	lea    -0x1230(%rbp),%rax
   19c9f:	48 89 85 40 fe ff ff 	mov    %rax,-0x1c0(%rbp)
   19ca6:	48 8d 85 d0 ed ff ff 	lea    -0x1230(%rbp),%rax
   19cad:	48 89 85 48 fe ff ff 	mov    %rax,-0x1b8(%rbp)
   19cb4:	48 8d 85 d0 ed ff ff 	lea    -0x1230(%rbp),%rax
   19cbb:	48 89 85 50 fe ff ff 	mov    %rax,-0x1b0(%rbp)
   19cc2:	48 c7 85 58 fe ff ff 	movq   $0x0,-0x1a8(%rbp)
   19cc9:	00 00 00 00 
   19ccd:	48 c7 85 60 fe ff ff 	movq   $0x0,-0x1a0(%rbp)
   19cd4:	00 00 00 00 
   19cd8:	48 8d 85 d0 ed ff ff 	lea    -0x1230(%rbp),%rax
   19cdf:	48 89 85 68 fe ff ff 	mov    %rax,-0x198(%rbp)
   19ce6:	48 c7 85 70 fe ff ff 	movq   $0x0,-0x190(%rbp)
   19ced:	00 00 00 00 
   19cf1:	48 c7 85 78 fe ff ff 	movq   $0x0,-0x188(%rbp)
   19cf8:	00 00 00 00 
   19cfc:	48 c7 85 80 fe ff ff 	movq   $0x0,-0x180(%rbp)
   19d03:	00 00 00 00 
   19d07:	48 8d 85 d0 ed ff ff 	lea    -0x1230(%rbp),%rax
   19d0e:	48 89 85 88 fe ff ff 	mov    %rax,-0x178(%rbp)
   19d15:	48 8d 85 d0 ed ff ff 	lea    -0x1230(%rbp),%rax
   19d1c:	48 89 85 90 fe ff ff 	mov    %rax,-0x170(%rbp)
   19d23:	48 c7 85 98 fe ff ff 	movq   $0x0,-0x168(%rbp)
   19d2a:	00 00 00 00 
   19d2e:	48 8d 85 d0 ed ff ff 	lea    -0x1230(%rbp),%rax
   19d35:	48 89 85 a0 fe ff ff 	mov    %rax,-0x160(%rbp)
   19d3c:	48 8d 85 d0 ed ff ff 	lea    -0x1230(%rbp),%rax
   19d43:	48 89 85 a8 fe ff ff 	mov    %rax,-0x158(%rbp)
   19d4a:	48 8d 85 d0 ed ff ff 	lea    -0x1230(%rbp),%rax
   19d51:	48 89 85 b0 fe ff ff 	mov    %rax,-0x150(%rbp)
   19d58:	48 c7 85 b8 fe ff ff 	movq   $0x0,-0x148(%rbp)
   19d5f:	00 00 00 00 
   19d63:	48 8d 85 d0 ed ff ff 	lea    -0x1230(%rbp),%rax
   19d6a:	48 89 85 c0 fe ff ff 	mov    %rax,-0x140(%rbp)
   19d71:	48 8d 85 d0 ed ff ff 	lea    -0x1230(%rbp),%rax
   19d78:	48 89 85 c8 fe ff ff 	mov    %rax,-0x138(%rbp)
   19d7f:	48 c7 85 d0 fe ff ff 	movq   $0x0,-0x130(%rbp)
   19d86:	00 00 00 00 
   19d8a:	48 8d 85 d0 ed ff ff 	lea    -0x1230(%rbp),%rax
   19d91:	48 89 85 d8 fe ff ff 	mov    %rax,-0x128(%rbp)
   19d98:	48 c7 85 e0 fe ff ff 	movq   $0x0,-0x120(%rbp)
   19d9f:	00 00 00 00 
   19da3:	48 8d 85 d0 ed ff ff 	lea    -0x1230(%rbp),%rax
   19daa:	48 89 85 e8 fe ff ff 	mov    %rax,-0x118(%rbp)
   19db1:	48 c7 85 f0 fe ff ff 	movq   $0x0,-0x110(%rbp)
   19db8:	00 00 00 00 
   19dbc:	48 8d 85 d0 ed ff ff 	lea    -0x1230(%rbp),%rax
   19dc3:	48 89 85 f8 fe ff ff 	mov    %rax,-0x108(%rbp)
   19dca:	c7 85 34 ed ff ff 00 	movl   $0x0,-0x12cc(%rbp)
   19dd1:	00 00 00 
   19dd4:	eb 1e                	jmp    19df4 <func_50+0x34fa>
   19dd6:	8b 85 34 ed ff ff    	mov    -0x12cc(%rbp),%eax
   19ddc:	48 98                	cltq   
   19dde:	48 8d 15 f3 b3 00 00 	lea    0xb3f3(%rip),%rdx        # 251d8 <g_453>
   19de5:	48 89 94 c5 20 f0 ff 	mov    %rdx,-0xfe0(%rbp,%rax,8)
   19dec:	ff 
   19ded:	83 85 34 ed ff ff 01 	addl   $0x1,-0x12cc(%rbp)
   19df4:	83 bd 34 ed ff ff 01 	cmpl   $0x1,-0x12cc(%rbp)
   19dfb:	7e d9                	jle    19dd6 <func_50+0x34dc>
   19dfd:	48 8b 85 c0 ec ff ff 	mov    -0x1340(%rbp),%rax
   19e04:	48 8b 00             	mov    (%rax),%rax
   19e07:	48 89 c2             	mov    %rax,%rdx
   19e0a:	48 8b 05 f7 e2 00 00 	mov    0xe2f7(%rip),%rax        # 28108 <g_311>
   19e11:	0f b6 00             	movzbl (%rax),%eax
   19e14:	84 c0                	test   %al,%al
   19e16:	0f 9f c0             	setg   %al
   19e19:	0f b6 c0             	movzbl %al,%eax
   19e1c:	48 89 d6             	mov    %rdx,%rsi
   19e1f:	48 89 c7             	mov    %rax,%rdi
   19e22:	e8 59 32 ff ff       	callq  d080 <safe_mod_func_uint64_t_u_u>
   19e27:	be fd ff ff ff       	mov    $0xfffffffd,%esi
   19e2c:	89 c7                	mov    %eax,%edi
   19e2e:	e8 9d 30 ff ff       	callq  ced0 <safe_sub_func_uint32_t_u_u>
   19e33:	8b 15 7b b3 00 00    	mov    0xb37b(%rip),%edx        # 251b4 <g_213>
   19e39:	39 d0                	cmp    %edx,%eax
   19e3b:	0f 87 ee 02 00 00    	ja     1a12f <func_50+0x3835>
   19e41:	c7 85 38 ed ff ff 84 	movl   $0x1668e984,-0x12c8(%rbp)
   19e48:	e9 68 16 
   19e4b:	c7 85 64 ed ff ff fa 	movl   $0xfffffffa,-0x129c(%rbp)
   19e52:	ff ff ff 
   19e55:	0f b7 85 ee ec ff ff 	movzwl -0x1312(%rbp),%eax
   19e5c:	83 c0 01             	add    $0x1,%eax
   19e5f:	66 89 85 ee ec ff ff 	mov    %ax,-0x1312(%rbp)
   19e66:	66 c7 05 69 b3 00 00 	movw   $0x0,0xb369(%rip)        # 251d8 <g_453>
   19e6d:	00 00 
   19e6f:	e9 50 01 00 00       	jmpq   19fc4 <func_50+0x36ca>
   19e74:	48 8d 85 e0 ed ff ff 	lea    -0x1220(%rbp),%rax
   19e7b:	48 89 85 08 ef ff ff 	mov    %rax,-0x10f8(%rbp)
   19e82:	48 8d 05 07 b3 00 00 	lea    0xb307(%rip),%rax        # 25190 <g_161>
   19e89:	48 89 85 10 ef ff ff 	mov    %rax,-0x10f0(%rbp)
   19e90:	8b 1d ee b2 00 00    	mov    0xb2ee(%rip),%ebx        # 25184 <g_92>
   19e96:	48 8d 05 7b e2 00 00 	lea    0xe27b(%rip),%rax        # 28118 <g_355>
   19e9d:	48 89 05 7c e3 00 00 	mov    %rax,0xe37c(%rip)        # 28220 <g_766+0xe0>
   19ea4:	48 8d 05 6d e2 00 00 	lea    0xe26d(%rip),%rax        # 28118 <g_355>
   19eab:	48 39 85 d8 ee ff ff 	cmp    %rax,-0x1128(%rbp)
   19eb2:	0f 95 c0             	setne  %al
   19eb5:	0f b6 d0             	movzbl %al,%edx
   19eb8:	48 8b 85 f0 ed ff ff 	mov    -0x1210(%rbp),%rax
   19ebf:	0f b7 08             	movzwl (%rax),%ecx
   19ec2:	83 c1 01             	add    $0x1,%ecx
   19ec5:	66 89 08             	mov    %cx,(%rax)
   19ec8:	0f b7 00             	movzwl (%rax),%eax
   19ecb:	0f b7 c0             	movzwl %ax,%eax
   19ece:	89 d6                	mov    %edx,%esi
   19ed0:	89 c7                	mov    %eax,%edi
   19ed2:	e8 28 2e ff ff       	callq  ccff <safe_add_func_uint16_t_u_u>
   19ed7:	0f b7 d0             	movzwl %ax,%edx
   19eda:	48 8b 05 c7 fa 00 00 	mov    0xfac7(%rip),%rax        # 299a8 <g_57>
   19ee1:	48 39 c2             	cmp    %rax,%rdx
   19ee4:	0f 9c c0             	setl   %al
   19ee7:	0f b6 d0             	movzbl %al,%edx
   19eea:	48 8b 85 c8 ee ff ff 	mov    -0x1138(%rbp),%rax
   19ef1:	8b 00                	mov    (%rax),%eax
   19ef3:	39 c2                	cmp    %eax,%edx
   19ef5:	0f 9c c0             	setl   %al
   19ef8:	0f b6 c0             	movzbl %al,%eax
   19efb:	21 85 38 ed ff ff    	and    %eax,-0x12c8(%rbp)
   19f01:	8b 85 38 ed ff ff    	mov    -0x12c8(%rbp),%eax
   19f07:	0b 85 cc ec ff ff    	or     -0x1334(%rbp),%eax
   19f0d:	89 c2                	mov    %eax,%edx
   19f0f:	8b 85 50 ed ff ff    	mov    -0x12b0(%rbp),%eax
   19f15:	39 85 cc ec ff ff    	cmp    %eax,-0x1334(%rbp)
   19f1b:	0f 92 c0             	setb   %al
   19f1e:	0f b6 c0             	movzbl %al,%eax
   19f21:	48 89 d6             	mov    %rdx,%rsi
   19f24:	48 89 c7             	mov    %rax,%rdi
   19f27:	e8 7c 29 ff ff       	callq  c8a8 <safe_sub_func_int64_t_s_s>
   19f2c:	48 8b 85 c0 ec ff ff 	mov    -0x1340(%rbp),%rax
   19f33:	48 8b 00             	mov    (%rax),%rax
   19f36:	83 f0 01             	xor    $0x1,%eax
   19f39:	89 de                	mov    %ebx,%esi
   19f3b:	89 c7                	mov    %eax,%edi
   19f3d:	e8 bd 27 ff ff       	callq  c6ff <safe_div_func_int32_t_s_s>
   19f42:	48 8b 85 c0 ec ff ff 	mov    -0x1340(%rbp),%rax
   19f49:	48 39 85 08 ef ff ff 	cmp    %rax,-0x10f8(%rbp)
   19f50:	0f 95 c0             	setne  %al
   19f53:	0f b6 d0             	movzbl %al,%edx
   19f56:	48 8b 85 88 ee ff ff 	mov    -0x1178(%rbp),%rax
   19f5d:	89 10                	mov    %edx,(%rax)
   19f5f:	48 8b 85 70 ee ff ff 	mov    -0x1190(%rbp),%rax
   19f66:	8b 00                	mov    (%rax),%eax
   19f68:	85 c0                	test   %eax,%eax
   19f6a:	75 28                	jne    19f94 <func_50+0x369a>
   19f6c:	8b 85 c8 ec ff ff    	mov    -0x1338(%rbp),%eax
   19f72:	3b 85 cc ec ff ff    	cmp    -0x1334(%rbp),%eax
   19f78:	0f 97 c0             	seta   %al
   19f7b:	89 c2                	mov    %eax,%edx
   19f7d:	48 8b 85 10 ef ff ff 	mov    -0x10f0(%rbp),%rax
   19f84:	88 10                	mov    %dl,(%rax)
   19f86:	48 8b 85 10 ef ff ff 	mov    -0x10f0(%rbp),%rax
   19f8d:	0f b6 00             	movzbl (%rax),%eax
   19f90:	84 c0                	test   %al,%al
   19f92:	74 07                	je     19f9b <func_50+0x36a1>
   19f94:	ba 01 00 00 00       	mov    $0x1,%edx
   19f99:	eb 05                	jmp    19fa0 <func_50+0x36a6>
   19f9b:	ba 00 00 00 00       	mov    $0x0,%edx
   19fa0:	48 8b 85 c8 ee ff ff 	mov    -0x1138(%rbp),%rax
   19fa7:	89 10                	mov    %edx,(%rax)
   19fa9:	0f b7 05 28 b2 00 00 	movzwl 0xb228(%rip),%eax        # 251d8 <g_453>
   19fb0:	98                   	cwtl   
   19fb1:	be 06 00 00 00       	mov    $0x6,%esi
   19fb6:	89 c7                	mov    %eax,%edi
   19fb8:	e8 48 26 ff ff       	callq  c605 <safe_sub_func_int32_t_s_s>
   19fbd:	66 89 05 14 b2 00 00 	mov    %ax,0xb214(%rip)        # 251d8 <g_453>
   19fc4:	0f b7 05 0d b2 00 00 	movzwl 0xb20d(%rip),%eax        # 251d8 <g_453>
   19fcb:	66 83 f8 f9          	cmp    $0xfff9,%ax
   19fcf:	0f 8d 9f fe ff ff    	jge    19e74 <func_50+0x357a>
   19fd5:	8b 05 e1 b2 00 00    	mov    0xb2e1(%rip),%eax        # 252bc <g_778>
   19fdb:	83 c0 01             	add    $0x1,%eax
   19fde:	89 05 d8 b2 00 00    	mov    %eax,0xb2d8(%rip)        # 252bc <g_778>
   19fe4:	c7 05 96 b1 00 00 14 	movl   $0x14,0xb196(%rip)        # 25184 <g_92>
   19feb:	00 00 00 
   19fee:	e9 28 01 00 00       	jmpq   1a11b <func_50+0x3821>
   19ff3:	0f b7 05 c6 b1 00 00 	movzwl 0xb1c6(%rip),%eax        # 251c0 <g_266>
   19ffa:	98                   	cwtl   
   19ffb:	89 c6                	mov    %eax,%esi
   19ffd:	bf d9 5d 00 00       	mov    $0x5dd9,%edi
   1a002:	e8 ee 23 ff ff       	callq  c3f5 <safe_mul_func_int16_t_s_s>
   1a007:	0f b7 05 ca b1 00 00 	movzwl 0xb1ca(%rip),%eax        # 251d8 <g_453>
   1a00e:	44 0f bf e0          	movswl %ax,%r12d
   1a012:	48 8b 85 10 ee ff ff 	mov    -0x11f0(%rbp),%rax
   1a019:	8b 18                	mov    (%rax),%ebx
   1a01b:	0f b6 05 d4 b1 00 00 	movzbl 0xb1d4(%rip),%eax        # 251f6 <g_640+0x16>
   1a022:	0f be c0             	movsbl %al,%eax
   1a025:	be d1 1f 80 8d       	mov    $0x8d801fd1,%esi
   1a02a:	89 c7                	mov    %eax,%edi
   1a02c:	e8 9f 2e ff ff       	callq  ced0 <safe_sub_func_uint32_t_u_u>
   1a031:	85 c0                	test   %eax,%eax
   1a033:	74 21                	je     1a056 <func_50+0x375c>
   1a035:	8b 05 49 b1 00 00    	mov    0xb149(%rip),%eax        # 25184 <g_92>
   1a03b:	39 85 cc ec ff ff    	cmp    %eax,-0x1334(%rbp)
   1a041:	0f 92 c0             	setb   %al
   1a044:	0f b6 c0             	movzbl %al,%eax
   1a047:	39 85 c8 ec ff ff    	cmp    %eax,-0x1338(%rbp)
   1a04d:	73 07                	jae    1a056 <func_50+0x375c>
   1a04f:	ba 01 00 00 00       	mov    $0x1,%edx
   1a054:	eb 05                	jmp    1a05b <func_50+0x3761>
   1a056:	ba 00 00 00 00       	mov    $0x0,%edx
   1a05b:	8b 05 23 b1 00 00    	mov    0xb123(%rip),%eax        # 25184 <g_92>
   1a061:	39 c2                	cmp    %eax,%edx
   1a063:	0f 9c c0             	setl   %al
   1a066:	89 c2                	mov    %eax,%edx
   1a068:	48 8b 85 a0 ee ff ff 	mov    -0x1160(%rbp),%rax
   1a06f:	8b 00                	mov    (%rax),%eax
   1a071:	09 d0                	or     %edx,%eax
   1a073:	0f be c0             	movsbl %al,%eax
   1a076:	be 00 00 00 00       	mov    $0x0,%esi
   1a07b:	89 c7                	mov    %eax,%edi
   1a07d:	e8 90 21 ff ff       	callq  c212 <safe_mul_func_int8_t_s_s>
   1a082:	0f b7 05 4f b1 00 00 	movzwl 0xb14f(%rip),%eax        # 251d8 <g_453>
   1a089:	66 3d f7 00          	cmp    $0xf7,%ax
   1a08d:	0f 95 c0             	setne  %al
   1a090:	0f b6 c0             	movzbl %al,%eax
   1a093:	89 de                	mov    %ebx,%esi
   1a095:	89 c7                	mov    %eax,%edi
   1a097:	e8 99 22 ff ff       	callq  c335 <safe_rshift_func_int8_t_s_s>
   1a09c:	48 0f be c0          	movsbq %al,%rax
   1a0a0:	48 c7 c6 fd ff ff ff 	mov    $0xfffffffffffffffd,%rsi
   1a0a7:	48 89 c7             	mov    %rax,%rdi
   1a0aa:	e8 7f 2f ff ff       	callq  d02e <safe_add_func_uint64_t_u_u>
   1a0af:	8b 95 cc ec ff ff    	mov    -0x1334(%rbp),%edx
   1a0b5:	48 09 d0             	or     %rdx,%rax
   1a0b8:	48 3d f7 00 00 00    	cmp    $0xf7,%rax
   1a0be:	0f 95 c0             	setne  %al
   1a0c1:	0f b6 d0             	movzbl %al,%edx
   1a0c4:	0f b6 05 2b b1 00 00 	movzbl 0xb12b(%rip),%eax        # 251f6 <g_640+0x16>
   1a0cb:	0f be c0             	movsbl %al,%eax
   1a0ce:	39 c2                	cmp    %eax,%edx
   1a0d0:	0f 95 c0             	setne  %al
   1a0d3:	0f b6 c0             	movzbl %al,%eax
   1a0d6:	44 09 e0             	or     %r12d,%eax
   1a0d9:	48 63 d0             	movslq %eax,%rdx
   1a0dc:	48 8b 85 c0 ec ff ff 	mov    -0x1340(%rbp),%rax
   1a0e3:	48 8b 00             	mov    (%rax),%rax
   1a0e6:	48 39 c2             	cmp    %rax,%rdx
   1a0e9:	0f 9c c0             	setl   %al
   1a0ec:	0f b6 d0             	movzbl %al,%edx
   1a0ef:	48 8b 85 b0 ee ff ff 	mov    -0x1150(%rbp),%rax
   1a0f6:	8b 00                	mov    (%rax),%eax
   1a0f8:	21 c2                	and    %eax,%edx
   1a0fa:	48 8b 85 b0 ee ff ff 	mov    -0x1150(%rbp),%rax
   1a101:	89 10                	mov    %edx,(%rax)
   1a103:	8b 05 7b b0 00 00    	mov    0xb07b(%rip),%eax        # 25184 <g_92>
   1a109:	be 09 00 00 00       	mov    $0x9,%esi
   1a10e:	89 c7                	mov    %eax,%edi
   1a110:	e8 a1 24 ff ff       	callq  c5b6 <safe_add_func_int32_t_s_s>
   1a115:	89 05 69 b0 00 00    	mov    %eax,0xb069(%rip)        # 25184 <g_92>
   1a11b:	8b 05 63 b0 00 00    	mov    0xb063(%rip),%eax        # 25184 <g_92>
   1a121:	83 f8 14             	cmp    $0x14,%eax
   1a124:	0f 85 c9 fe ff ff    	jne    19ff3 <func_50+0x36f9>
   1a12a:	e9 a1 00 00 00       	jmpq   1a1d0 <func_50+0x38d6>
   1a12f:	c6 85 e4 ec ff ff 13 	movb   $0x13,-0x131c(%rbp)
   1a136:	c7 85 60 ed ff ff ff 	movl   $0xffffffff,-0x12a0(%rbp)
   1a13d:	ff ff ff 
   1a140:	66 c7 85 ee ec ff ff 	movw   $0x0,-0x1312(%rbp)
   1a147:	00 00 
   1a149:	eb 37                	jmp    1a182 <func_50+0x3888>
   1a14b:	66 c7 85 f2 ec ff ff 	movw   $0x1,-0x130e(%rbp)
   1a152:	01 00 
   1a154:	48 8d 05 75 e1 00 00 	lea    0xe175(%rip),%rax        # 282d0 <g_799>
   1a15b:	48 89 85 00 ef ff ff 	mov    %rax,-0x1100(%rbp)
   1a162:	80 ad de ec ff ff 01 	subb   $0x1,-0x1322(%rbp)
   1a169:	48 8b 15 60 e1 00 00 	mov    0xe160(%rip),%rdx        # 282d0 <g_799>
   1a170:	48 8b 85 00 ef ff ff 	mov    -0x1100(%rbp),%rax
   1a177:	48 89 10             	mov    %rdx,(%rax)
   1a17a:	66 83 85 ee ec ff ff 	addw   $0x1,-0x1312(%rbp)
   1a181:	01 
   1a182:	66 83 bd ee ec ff ff 	cmpw   $0x1,-0x1312(%rbp)
   1a189:	01 
   1a18a:	76 bf                	jbe    1a14b <func_50+0x3851>
   1a18c:	48 8b 05 75 df 00 00 	mov    0xdf75(%rip),%rax        # 28108 <g_311>
   1a193:	8b 95 c8 ec ff ff    	mov    -0x1338(%rbp),%edx
   1a199:	88 10                	mov    %dl,(%rax)
   1a19b:	0f b6 00             	movzbl (%rax),%eax
   1a19e:	0f be d0             	movsbl %al,%edx
   1a1a1:	8b 05 0d b0 00 00    	mov    0xb00d(%rip),%eax        # 251b4 <g_213>
   1a1a7:	39 c2                	cmp    %eax,%edx
   1a1a9:	0f 95 c0             	setne  %al
   1a1ac:	0f b6 c0             	movzbl %al,%eax
   1a1af:	be 03 00 00 00       	mov    $0x3,%esi
   1a1b4:	89 c7                	mov    %eax,%edi
   1a1b6:	e8 d7 22 ff ff       	callq  c492 <safe_lshift_func_int16_t_s_s>
   1a1bb:	48 8b 95 a8 ee ff ff 	mov    -0x1158(%rbp),%rdx
   1a1c2:	8b 12                	mov    (%rdx),%edx
   1a1c4:	98                   	cwtl   
   1a1c5:	21 c2                	and    %eax,%edx
   1a1c7:	48 8b 85 a8 ee ff ff 	mov    -0x1158(%rbp),%rax
   1a1ce:	89 10                	mov    %edx,(%rax)
   1a1d0:	48 8b 85 10 ee ff ff 	mov    -0x11f0(%rbp),%rax
   1a1d7:	8b 18                	mov    (%rax),%ebx
   1a1d9:	48 8b 85 10 ee ff ff 	mov    -0x11f0(%rbp),%rax
   1a1e0:	8b 00                	mov    (%rax),%eax
   1a1e2:	89 85 88 f0 ff ff    	mov    %eax,-0xf78(%rbp)
   1a1e8:	48 8b 85 e0 ee ff ff 	mov    -0x1120(%rbp),%rax
   1a1ef:	48 89 05 fa e0 00 00 	mov    %rax,0xe0fa(%rip)        # 282f0 <g_818+0x10>
   1a1f6:	48 8b 05 f3 e0 00 00 	mov    0xe0f3(%rip),%rax        # 282f0 <g_818+0x10>
   1a1fd:	48 85 c0             	test   %rax,%rax
   1a200:	75 07                	jne    1a209 <func_50+0x390f>
   1a202:	ba 01 00 00 00       	mov    $0x1,%edx
   1a207:	eb 05                	jmp    1a20e <func_50+0x3914>
   1a209:	ba 00 00 00 00       	mov    $0x0,%edx
   1a20e:	48 8b 05 f3 de 00 00 	mov    0xdef3(%rip),%rax        # 28108 <g_311>
   1a215:	88 10                	mov    %dl,(%rax)
   1a217:	0f b6 00             	movzbl (%rax),%eax
   1a21a:	0f be c0             	movsbl %al,%eax
   1a21d:	be 07 00 00 00       	mov    $0x7,%esi
   1a222:	89 c7                	mov    %eax,%edi
   1a224:	e8 78 20 ff ff       	callq  c2a1 <safe_lshift_func_int8_t_s_s>
   1a229:	48 8b 85 d0 ee ff ff 	mov    -0x1130(%rbp),%rax
   1a230:	44 8b 20             	mov    (%rax),%r12d
   1a233:	8b 05 83 af 00 00    	mov    0xaf83(%rip),%eax        # 251bc <g_248>
   1a239:	89 c1                	mov    %eax,%ecx
   1a23b:	48 8b 85 d0 ed ff ff 	mov    -0x1230(%rbp),%rax
   1a242:	48 89 85 d0 ed ff ff 	mov    %rax,-0x1230(%rbp)
   1a249:	48 8b 85 d0 ed ff ff 	mov    -0x1230(%rbp),%rax
   1a250:	48 8d 15 79 e0 00 00 	lea    0xe079(%rip),%rdx        # 282d0 <g_799>
   1a257:	48 39 d0             	cmp    %rdx,%rax
   1a25a:	0f 95 c0             	setne  %al
   1a25d:	0f b6 c0             	movzbl %al,%eax
   1a260:	89 ce                	mov    %ecx,%esi
   1a262:	89 c7                	mov    %eax,%edi
   1a264:	e8 96 24 ff ff       	callq  c6ff <safe_div_func_int32_t_s_s>
   1a269:	41 39 c4             	cmp    %eax,%r12d
   1a26c:	0f 9c c0             	setl   %al
   1a26f:	0f b6 d0             	movzbl %al,%edx
   1a272:	48 8b 85 c0 ec ff ff 	mov    -0x1340(%rbp),%rax
   1a279:	48 8b 00             	mov    (%rax),%rax
   1a27c:	48 39 c2             	cmp    %rax,%rdx
   1a27f:	0f 9e c0             	setle  %al
   1a282:	0f b6 c0             	movzbl %al,%eax
   1a285:	39 85 c8 ec ff ff    	cmp    %eax,-0x1338(%rbp)
   1a28b:	0f 92 c0             	setb   %al
   1a28e:	0f b6 d0             	movzbl %al,%edx
   1a291:	48 8b 85 a8 ee ff ff 	mov    -0x1158(%rbp),%rax
   1a298:	89 10                	mov    %edx,(%rax)
   1a29a:	48 8b 85 a8 ee ff ff 	mov    -0x1158(%rbp),%rax
   1a2a1:	8b 00                	mov    (%rax),%eax
   1a2a3:	98                   	cwtl   
   1a2a4:	be 06 00 00 00       	mov    $0x6,%esi
   1a2a9:	89 c7                	mov    %eax,%edi
   1a2ab:	e8 7a 22 ff ff       	callq  c52a <safe_rshift_func_int16_t_s_s>
   1a2b0:	0f bf d0             	movswl %ax,%edx
   1a2b3:	48 8b 85 10 ee ff ff 	mov    -0x11f0(%rbp),%rax
   1a2ba:	8b 00                	mov    (%rax),%eax
   1a2bc:	39 c2                	cmp    %eax,%edx
   1a2be:	0f 9c c0             	setl   %al
   1a2c1:	0f b6 c0             	movzbl %al,%eax
   1a2c4:	89 de                	mov    %ebx,%esi
   1a2c6:	89 c7                	mov    %eax,%edi
   1a2c8:	e8 32 24 ff ff       	callq  c6ff <safe_div_func_int32_t_s_s>
   1a2cd:	8b 95 00 ed ff ff    	mov    -0x1300(%rbp),%edx
   1a2d3:	31 d0                	xor    %edx,%eax
   1a2d5:	89 85 00 ed ff ff    	mov    %eax,-0x1300(%rbp)
   1a2db:	48 8b 85 d8 ee ff ff 	mov    -0x1128(%rbp),%rax
   1a2e2:	48 8b 10             	mov    (%rax),%rdx
   1a2e5:	48 8b 85 d8 ee ff ff 	mov    -0x1128(%rbp),%rax
   1a2ec:	48 89 10             	mov    %rdx,(%rax)
   1a2ef:	0f b6 05 aa ae 00 00 	movzbl 0xaeaa(%rip),%eax        # 251a0 <g_177>
   1a2f6:	83 c0 01             	add    $0x1,%eax
   1a2f9:	88 05 a1 ae 00 00    	mov    %al,0xaea1(%rip)        # 251a0 <g_177>
   1a2ff:	0f b6 05 9a ae 00 00 	movzbl 0xae9a(%rip),%eax        # 251a0 <g_177>
   1a306:	3c 26                	cmp    $0x26,%al
   1a308:	0f 87 fc f3 ff ff    	ja     1970a <func_50+0x2e10>
   1a30e:	8b 9d cc ec ff ff    	mov    -0x1334(%rbp),%ebx
   1a314:	8b 05 9a ad 00 00    	mov    0xad9a(%rip),%eax        # 250b4 <g_3+0x74>
   1a31a:	41 89 c4             	mov    %eax,%r12d
   1a31d:	48 8b 95 c0 ec ff ff 	mov    -0x1340(%rbp),%rdx
   1a324:	48 8b 05 d5 dd 00 00 	mov    0xddd5(%rip),%rax        # 28100 <g_124>
   1a32b:	48 8b 12             	mov    (%rdx),%rdx
   1a32e:	48 89 10             	mov    %rdx,(%rax)
   1a331:	48 8b 00             	mov    (%rax),%rax
   1a334:	66 0d 4f a1          	or     $0xa14f,%ax
   1a338:	89 c1                	mov    %eax,%ecx
   1a33a:	8b 95 cc ec ff ff    	mov    -0x1334(%rbp),%edx
   1a340:	48 8b 85 c8 ee ff ff 	mov    -0x1138(%rbp),%rax
   1a347:	89 10                	mov    %edx,(%rax)
   1a349:	48 8b 85 c8 ee ff ff 	mov    -0x1138(%rbp),%rax
   1a350:	8b 00                	mov    (%rax),%eax
   1a352:	21 c1                	and    %eax,%ecx
   1a354:	89 ca                	mov    %ecx,%edx
   1a356:	48 8b 85 40 ee ff ff 	mov    -0x11c0(%rbp),%rax
   1a35d:	66 89 10             	mov    %dx,(%rax)
   1a360:	48 8b 85 40 ee ff ff 	mov    -0x11c0(%rbp),%rax
   1a367:	0f b7 00             	movzwl (%rax),%eax
   1a36a:	0f b7 d0             	movzwl %ax,%edx
   1a36d:	8b 0d 45 af 00 00    	mov    0xaf45(%rip),%ecx        # 252b8 <g_741>
   1a373:	48 8b 85 60 ee ff ff 	mov    -0x11a0(%rbp),%rax
   1a37a:	48 8b 00             	mov    (%rax),%rax
   1a37d:	66 89 08             	mov    %cx,(%rax)
   1a380:	0f b7 00             	movzwl (%rax),%eax
   1a383:	0f b7 c0             	movzwl %ax,%eax
   1a386:	89 d6                	mov    %edx,%esi
   1a388:	89 c7                	mov    %eax,%edi
   1a38a:	e8 ae 29 ff ff       	callq  cd3d <safe_mul_func_uint16_t_u_u>
   1a38f:	0f b7 d0             	movzwl %ax,%edx
   1a392:	8b 05 18 f6 00 00    	mov    0xf618(%rip),%eax        # 299b0 <g_145>
   1a398:	21 d0                	and    %edx,%eax
   1a39a:	44 21 e0             	and    %r12d,%eax
   1a39d:	89 c0                	mov    %eax,%eax
   1a39f:	48 89 c7             	mov    %rax,%rdi
   1a3a2:	e8 72 2c ff ff       	callq  d019 <safe_unary_minus_func_uint64_t_u>
   1a3a7:	48 8b 85 10 ee ff ff 	mov    -0x11f0(%rbp),%rax
   1a3ae:	8b 00                	mov    (%rax),%eax
   1a3b0:	4c 63 e0             	movslq %eax,%r12
   1a3b3:	8b 85 c8 ec ff ff    	mov    -0x1338(%rbp),%eax
   1a3b9:	0f be c0             	movsbl %al,%eax
   1a3bc:	be f6 ff ff ff       	mov    $0xfffffff6,%esi
   1a3c1:	89 c7                	mov    %eax,%edi
   1a3c3:	e8 4a 1e ff ff       	callq  c212 <safe_mul_func_int8_t_s_s>
   1a3c8:	66 98                	cbtw   
   1a3ca:	0f b7 c0             	movzwl %ax,%eax
   1a3cd:	be 89 65 00 00       	mov    $0x6589,%esi
   1a3d2:	89 c7                	mov    %eax,%edi
   1a3d4:	e8 64 29 ff ff       	callq  cd3d <safe_mul_func_uint16_t_u_u>
   1a3d9:	0f b7 05 f8 ad 00 00 	movzwl 0xadf8(%rip),%eax        # 251d8 <g_453>
   1a3e0:	66 85 c0             	test   %ax,%ax
   1a3e3:	48 8b 85 10 ee ff ff 	mov    -0x11f0(%rbp),%rax
   1a3ea:	8b 00                	mov    (%rax),%eax
   1a3ec:	39 85 c8 ec ff ff    	cmp    %eax,-0x1338(%rbp)
   1a3f2:	0f 92 c0             	setb   %al
   1a3f5:	0f b6 c0             	movzbl %al,%eax
   1a3f8:	4c 89 e6             	mov    %r12,%rsi
   1a3fb:	48 89 c7             	mov    %rax,%rdi
   1a3fe:	e8 3e 24 ff ff       	callq  c841 <safe_add_func_int64_t_s_s>
   1a403:	48 85 c0             	test   %rax,%rax
   1a406:	74 16                	je     1a41e <func_50+0x3b24>
   1a408:	48 8b 85 c0 ec ff ff 	mov    -0x1340(%rbp),%rax
   1a40f:	48 8b 00             	mov    (%rax),%rax
   1a412:	48 85 c0             	test   %rax,%rax
   1a415:	74 07                	je     1a41e <func_50+0x3b24>
   1a417:	b8 01 00 00 00       	mov    $0x1,%eax
   1a41c:	eb 05                	jmp    1a423 <func_50+0x3b29>
   1a41e:	b8 00 00 00 00       	mov    $0x0,%eax
   1a423:	83 f8 03             	cmp    $0x3,%eax
   1a426:	74 10                	je     1a438 <func_50+0x3b3e>
   1a428:	83 bd cc ec ff ff 00 	cmpl   $0x0,-0x1334(%rbp)
   1a42f:	74 07                	je     1a438 <func_50+0x3b3e>
   1a431:	b8 01 00 00 00       	mov    $0x1,%eax
   1a436:	eb 05                	jmp    1a43d <func_50+0x3b43>
   1a438:	b8 00 00 00 00       	mov    $0x0,%eax
   1a43d:	33 85 c8 ec ff ff    	xor    -0x1338(%rbp),%eax
   1a443:	39 85 c8 ec ff ff    	cmp    %eax,-0x1338(%rbp)
   1a449:	0f 93 c0             	setae  %al
   1a44c:	0f b6 c0             	movzbl %al,%eax
   1a44f:	89 de                	mov    %ebx,%esi
   1a451:	89 c7                	mov    %eax,%edi
   1a453:	e8 ad 21 ff ff       	callq  c605 <safe_sub_func_int32_t_s_s>
   1a458:	ba 01 00 00 00       	mov    $0x1,%edx
   1a45d:	48 8b 85 b0 ee ff ff 	mov    -0x1150(%rbp),%rax
   1a464:	8b 00                	mov    (%rax),%eax
   1a466:	09 c2                	or     %eax,%edx
   1a468:	48 8b 85 b0 ee ff ff 	mov    -0x1150(%rbp),%rax
   1a46f:	89 10                	mov    %edx,(%rax)
   1a471:	48 8b 85 b0 ee ff ff 	mov    -0x1150(%rbp),%rax
   1a478:	8b 10                	mov    (%rax),%edx
   1a47a:	48 8b 85 80 ee ff ff 	mov    -0x1180(%rbp),%rax
   1a481:	89 10                	mov    %edx,(%rax)
   1a483:	8b 85 c8 ec ff ff    	mov    -0x1338(%rbp),%eax
   1a489:	0f be c0             	movsbl %al,%eax
   1a48c:	be 00 00 00 00       	mov    $0x0,%esi
   1a491:	89 c7                	mov    %eax,%edi
   1a493:	e8 09 1e ff ff       	callq  c2a1 <safe_lshift_func_int8_t_s_s>
   1a498:	0f be d0             	movsbl %al,%edx
   1a49b:	48 8b 85 a8 ee ff ff 	mov    -0x1158(%rbp),%rax
   1a4a2:	89 10                	mov    %edx,(%rax)
   1a4a4:	c7 85 10 ed ff ff e6 	movl   $0xffffffe6,-0x12f0(%rbp)
   1a4ab:	ff ff ff 
   1a4ae:	e9 9c 02 00 00       	jmpq   1a74f <func_50+0x3e55>
   1a4b3:	8b 85 c8 ec ff ff    	mov    -0x1338(%rbp),%eax
   1a4b9:	e9 b7 02 00 00       	jmpq   1a775 <func_50+0x3e7b>
   1a4be:	48 8d 05 c3 ac 00 00 	lea    0xacc3(%rip),%rax        # 25188 <g_98>
   1a4c5:	48 89 85 e8 ee ff ff 	mov    %rax,-0x1118(%rbp)
   1a4cc:	48 8d 05 f5 ac 00 00 	lea    0xacf5(%rip),%rax        # 251c8 <g_359>
   1a4d3:	48 89 85 f0 ee ff ff 	mov    %rax,-0x1110(%rbp)
   1a4da:	48 8d 05 d7 ac 00 00 	lea    0xacd7(%rip),%rax        # 251b8 <g_217>
   1a4e1:	48 89 85 f8 ee ff ff 	mov    %rax,-0x1108(%rbp)
   1a4e8:	48 8d 85 fc ec ff ff 	lea    -0x1304(%rbp),%rax
   1a4ef:	48 89 85 40 fb ff ff 	mov    %rax,-0x4c0(%rbp)
   1a4f6:	48 8d 05 cb ac 00 00 	lea    0xaccb(%rip),%rax        # 251c8 <g_359>
   1a4fd:	48 89 85 48 fb ff ff 	mov    %rax,-0x4b8(%rbp)
   1a504:	48 8d 05 5d ac 00 00 	lea    0xac5d(%rip),%rax        # 25168 <g_12>
   1a50b:	48 89 85 50 fb ff ff 	mov    %rax,-0x4b0(%rbp)
   1a512:	48 8d 05 4f ac 00 00 	lea    0xac4f(%rip),%rax        # 25168 <g_12>
   1a519:	48 89 85 58 fb ff ff 	mov    %rax,-0x4a8(%rbp)
   1a520:	48 8d 05 a1 ac 00 00 	lea    0xaca1(%rip),%rax        # 251c8 <g_359>
   1a527:	48 89 85 60 fb ff ff 	mov    %rax,-0x4a0(%rbp)
   1a52e:	48 8d 05 93 ac 00 00 	lea    0xac93(%rip),%rax        # 251c8 <g_359>
   1a535:	48 89 85 68 fb ff ff 	mov    %rax,-0x498(%rbp)
   1a53c:	48 8d 85 fc ec ff ff 	lea    -0x1304(%rbp),%rax
   1a543:	48 89 85 70 fb ff ff 	mov    %rax,-0x490(%rbp)
   1a54a:	48 8d 05 17 ac 00 00 	lea    0xac17(%rip),%rax        # 25168 <g_12>
   1a551:	48 89 85 78 fb ff ff 	mov    %rax,-0x488(%rbp)
   1a558:	48 8d 85 50 f0 ff ff 	lea    -0xfb0(%rbp),%rax
   1a55f:	48 83 c0 14          	add    $0x14,%rax
   1a563:	48 89 85 80 fb ff ff 	mov    %rax,-0x480(%rbp)
   1a56a:	48 8d 05 57 ac 00 00 	lea    0xac57(%rip),%rax        # 251c8 <g_359>
   1a571:	48 89 85 88 fb ff ff 	mov    %rax,-0x478(%rbp)
   1a578:	48 8d 85 50 f0 ff ff 	lea    -0xfb0(%rbp),%rax
   1a57f:	48 83 c0 14          	add    $0x14,%rax
   1a583:	48 89 85 90 fb ff ff 	mov    %rax,-0x470(%rbp)
   1a58a:	48 8d 85 fc ec ff ff 	lea    -0x1304(%rbp),%rax
   1a591:	48 89 85 98 fb ff ff 	mov    %rax,-0x468(%rbp)
   1a598:	48 8d 85 50 f0 ff ff 	lea    -0xfb0(%rbp),%rax
   1a59f:	48 83 c0 14          	add    $0x14,%rax
   1a5a3:	48 89 85 a0 fb ff ff 	mov    %rax,-0x460(%rbp)
   1a5aa:	48 8d 85 fc ec ff ff 	lea    -0x1304(%rbp),%rax
   1a5b1:	48 89 85 a8 fb ff ff 	mov    %rax,-0x458(%rbp)
   1a5b8:	48 8d 85 fc ec ff ff 	lea    -0x1304(%rbp),%rax
   1a5bf:	48 89 85 b0 fb ff ff 	mov    %rax,-0x450(%rbp)
   1a5c6:	48 8d 85 50 f0 ff ff 	lea    -0xfb0(%rbp),%rax
   1a5cd:	48 83 c0 14          	add    $0x14,%rax
   1a5d1:	48 89 85 b8 fb ff ff 	mov    %rax,-0x448(%rbp)
   1a5d8:	48 8d 05 e9 ab 00 00 	lea    0xabe9(%rip),%rax        # 251c8 <g_359>
   1a5df:	48 89 85 c0 fb ff ff 	mov    %rax,-0x440(%rbp)
   1a5e6:	48 8d 85 fc ec ff ff 	lea    -0x1304(%rbp),%rax
   1a5ed:	48 89 85 c8 fb ff ff 	mov    %rax,-0x438(%rbp)
   1a5f4:	48 8d 05 6d ab 00 00 	lea    0xab6d(%rip),%rax        # 25168 <g_12>
   1a5fb:	48 89 85 d0 fb ff ff 	mov    %rax,-0x430(%rbp)
   1a602:	48 8d 85 fc ec ff ff 	lea    -0x1304(%rbp),%rax
   1a609:	48 89 85 d8 fb ff ff 	mov    %rax,-0x428(%rbp)
   1a610:	48 8d 85 fc ec ff ff 	lea    -0x1304(%rbp),%rax
   1a617:	48 89 85 e0 fb ff ff 	mov    %rax,-0x420(%rbp)
   1a61e:	48 8d 05 a3 ab 00 00 	lea    0xaba3(%rip),%rax        # 251c8 <g_359>
   1a625:	48 89 85 e8 fb ff ff 	mov    %rax,-0x418(%rbp)
   1a62c:	48 8d 05 35 ab 00 00 	lea    0xab35(%rip),%rax        # 25168 <g_12>
   1a633:	48 89 85 f0 fb ff ff 	mov    %rax,-0x410(%rbp)
   1a63a:	48 8d 05 27 ab 00 00 	lea    0xab27(%rip),%rax        # 25168 <g_12>
   1a641:	48 89 85 f8 fb ff ff 	mov    %rax,-0x408(%rbp)
   1a648:	48 8d 05 79 ab 00 00 	lea    0xab79(%rip),%rax        # 251c8 <g_359>
   1a64f:	48 89 85 00 fc ff ff 	mov    %rax,-0x400(%rbp)
   1a656:	48 8d 05 6b ab 00 00 	lea    0xab6b(%rip),%rax        # 251c8 <g_359>
   1a65d:	48 89 85 08 fc ff ff 	mov    %rax,-0x3f8(%rbp)
   1a664:	48 8d 85 fc ec ff ff 	lea    -0x1304(%rbp),%rax
   1a66b:	48 89 85 10 fc ff ff 	mov    %rax,-0x3f0(%rbp)
   1a672:	48 8d 05 ef aa 00 00 	lea    0xaaef(%rip),%rax        # 25168 <g_12>
   1a679:	48 89 85 18 fc ff ff 	mov    %rax,-0x3e8(%rbp)
   1a680:	48 8d 85 50 f0 ff ff 	lea    -0xfb0(%rbp),%rax
   1a687:	48 83 c0 14          	add    $0x14,%rax
   1a68b:	48 89 85 20 fc ff ff 	mov    %rax,-0x3e0(%rbp)
   1a692:	48 8d 05 2f ab 00 00 	lea    0xab2f(%rip),%rax        # 251c8 <g_359>
   1a699:	48 89 85 28 fc ff ff 	mov    %rax,-0x3d8(%rbp)
   1a6a0:	48 8d 85 50 f0 ff ff 	lea    -0xfb0(%rbp),%rax
   1a6a7:	48 83 c0 14          	add    $0x14,%rax
   1a6ab:	48 89 85 30 fc ff ff 	mov    %rax,-0x3d0(%rbp)
   1a6b2:	48 8d 85 fc ec ff ff 	lea    -0x1304(%rbp),%rax
   1a6b9:	48 89 85 38 fc ff ff 	mov    %rax,-0x3c8(%rbp)
   1a6c0:	48 8d 85 50 f0 ff ff 	lea    -0xfb0(%rbp),%rax
   1a6c7:	48 83 c0 14          	add    $0x14,%rax
   1a6cb:	48 89 85 40 fc ff ff 	mov    %rax,-0x3c0(%rbp)
   1a6d2:	48 8d 85 fc ec ff ff 	lea    -0x1304(%rbp),%rax
   1a6d9:	48 89 85 48 fc ff ff 	mov    %rax,-0x3b8(%rbp)
   1a6e0:	48 8d 85 fc ec ff ff 	lea    -0x1304(%rbp),%rax
   1a6e7:	48 89 85 50 fc ff ff 	mov    %rax,-0x3b0(%rbp)
   1a6ee:	48 8d 85 50 f0 ff ff 	lea    -0xfb0(%rbp),%rax
   1a6f5:	48 83 c0 14          	add    $0x14,%rax
   1a6f9:	48 89 85 58 fc ff ff 	mov    %rax,-0x3a8(%rbp)
   1a700:	c6 85 e2 ec ff ff 19 	movb   $0x19,-0x131e(%rbp)
   1a707:	c6 85 e3 ec ff ff f8 	movb   $0xf8,-0x131d(%rbp)
   1a70e:	48 83 bd 68 ee ff ff 	cmpq   $0x0,-0x1198(%rbp)
   1a715:	00 
   1a716:	75 46                	jne    1a75e <func_50+0x3e64>
   1a718:	0f b7 85 ec ec ff ff 	movzwl -0x1314(%rbp),%eax
   1a71f:	83 c0 01             	add    $0x1,%eax
   1a722:	66 89 85 ec ec ff ff 	mov    %ax,-0x1314(%rbp)
   1a729:	48 83 ad 08 ee ff ff 	subq   $0x1,-0x11f8(%rbp)
   1a730:	01 
   1a731:	8b 85 10 ed ff ff    	mov    -0x12f0(%rbp),%eax
   1a737:	0f b6 c0             	movzbl %al,%eax
   1a73a:	be 05 00 00 00       	mov    $0x5,%esi
   1a73f:	89 c7                	mov    %eax,%edi
   1a741:	e8 14 24 ff ff       	callq  cb5a <safe_add_func_uint8_t_u_u>
   1a746:	0f b6 c0             	movzbl %al,%eax
   1a749:	89 85 10 ed ff ff    	mov    %eax,-0x12f0(%rbp)
   1a74f:	83 bd 10 ed ff ff 18 	cmpl   $0x18,-0x12f0(%rbp)
   1a756:	0f 85 62 fd ff ff    	jne    1a4be <func_50+0x3bc4>
   1a75c:	eb 01                	jmp    1a75f <func_50+0x3e65>
   1a75e:	90                   	nop
   1a75f:	8b 85 cc ec ff ff    	mov    -0x1334(%rbp),%eax
   1a765:	89 85 f8 ec ff ff    	mov    %eax,-0x1308(%rbp)
   1a76b:	0f b6 05 c1 aa 00 00 	movzbl 0xaac1(%rip),%eax        # 25233 <g_640+0x53>
   1a772:	0f be c0             	movsbl %al,%eax
   1a775:	48 8b 4d c8          	mov    -0x38(%rbp),%rcx
   1a779:	64 48 33 0c 25 28 00 	xor    %fs:0x28,%rcx
   1a780:	00 00 
   1a782:	74 05                	je     1a789 <func_50+0x3e8f>
   1a784:	e8 e7 18 ff ff       	callq  c070 <__stack_chk_fail@plt>
   1a789:	48 81 c4 28 13 00 00 	add    $0x1328,%rsp
   1a790:	5b                   	pop    %rbx
   1a791:	41 5c                	pop    %r12
   1a793:	41 5d                	pop    %r13
   1a795:	41 5e                	pop    %r14
   1a797:	41 5f                	pop    %r15
   1a799:	5d                   	pop    %rbp
   1a79a:	c3                   	retq   

000000000001a79b <func_62>:
   1a79b:	f3 0f 1e fa          	endbr64 
   1a79f:	55                   	push   %rbp
   1a7a0:	48 89 e5             	mov    %rsp,%rbp
   1a7a3:	41 56                	push   %r14
   1a7a5:	41 55                	push   %r13
   1a7a7:	41 54                	push   %r12
   1a7a9:	53                   	push   %rbx
   1a7aa:	48 81 ec 70 0c 00 00 	sub    $0xc70,%rsp
   1a7b1:	48 89 bd 88 f3 ff ff 	mov    %rdi,-0xc78(%rbp)
   1a7b8:	48 89 b5 80 f3 ff ff 	mov    %rsi,-0xc80(%rbp)
   1a7bf:	89 d0                	mov    %edx,%eax
   1a7c1:	89 8d 78 f3 ff ff    	mov    %ecx,-0xc88(%rbp)
   1a7c7:	4c 89 85 70 f3 ff ff 	mov    %r8,-0xc90(%rbp)
   1a7ce:	66 89 85 7c f3 ff ff 	mov    %ax,-0xc84(%rbp)
   1a7d5:	64 48 8b 04 25 28 00 	mov    %fs:0x28,%rax
   1a7dc:	00 00 
   1a7de:	48 89 45 d8          	mov    %rax,-0x28(%rbp)
   1a7e2:	31 c0                	xor    %eax,%eax
   1a7e4:	66 c7 85 30 f5 ff ff 	movw   $0xeb76,-0xad0(%rbp)
   1a7eb:	76 eb 
   1a7ed:	66 c7 85 32 f5 ff ff 	movw   $0x77b5,-0xace(%rbp)
   1a7f4:	b5 77 
   1a7f6:	66 c7 85 34 f5 ff ff 	movw   $0x77b5,-0xacc(%rbp)
   1a7fd:	b5 77 
   1a7ff:	66 c7 85 36 f5 ff ff 	movw   $0xeb76,-0xaca(%rbp)
   1a806:	76 eb 
   1a808:	66 c7 85 38 f5 ff ff 	movw   $0x77b5,-0xac8(%rbp)
   1a80f:	b5 77 
   1a811:	66 c7 85 3a f5 ff ff 	movw   $0xeb76,-0xac6(%rbp)
   1a818:	76 eb 
   1a81a:	66 c7 85 3c f5 ff ff 	movw   $0xeb76,-0xac4(%rbp)
   1a821:	76 eb 
   1a823:	66 c7 85 3e f5 ff ff 	movw   $0xfff6,-0xac2(%rbp)
   1a82a:	f6 ff 
   1a82c:	66 c7 85 40 f5 ff ff 	movw   $0xeb76,-0xac0(%rbp)
   1a833:	76 eb 
   1a835:	66 c7 85 42 f5 ff ff 	movw   $0xeb76,-0xabe(%rbp)
   1a83c:	76 eb 
   1a83e:	66 c7 85 44 f5 ff ff 	movw   $0x77b5,-0xabc(%rbp)
   1a845:	b5 77 
   1a847:	66 c7 85 46 f5 ff ff 	movw   $0xeb76,-0xaba(%rbp)
   1a84e:	76 eb 
   1a850:	66 c7 85 48 f5 ff ff 	movw   $0x77b5,-0xab8(%rbp)
   1a857:	b5 77 
   1a859:	66 c7 85 4a f5 ff ff 	movw   $0x77b5,-0xab6(%rbp)
   1a860:	b5 77 
   1a862:	66 c7 85 4c f5 ff ff 	movw   $0xeb76,-0xab4(%rbp)
   1a869:	76 eb 
   1a86b:	66 c7 85 4e f5 ff ff 	movw   $0xeb76,-0xab2(%rbp)
   1a872:	76 eb 
   1a874:	66 c7 85 50 f5 ff ff 	movw   $0x77b5,-0xab0(%rbp)
   1a87b:	b5 77 
   1a87d:	66 c7 85 52 f5 ff ff 	movw   $0x77b5,-0xaae(%rbp)
   1a884:	b5 77 
   1a886:	66 c7 85 54 f5 ff ff 	movw   $0xeb76,-0xaac(%rbp)
   1a88d:	76 eb 
   1a88f:	66 c7 85 56 f5 ff ff 	movw   $0x77b5,-0xaaa(%rbp)
   1a896:	b5 77 
   1a898:	66 c7 85 58 f5 ff ff 	movw   $0xeb76,-0xaa8(%rbp)
   1a89f:	76 eb 
   1a8a1:	66 c7 85 5a f5 ff ff 	movw   $0xeb76,-0xaa6(%rbp)
   1a8a8:	76 eb 
   1a8aa:	66 c7 85 5c f5 ff ff 	movw   $0xfff6,-0xaa4(%rbp)
   1a8b1:	f6 ff 
   1a8b3:	66 c7 85 5e f5 ff ff 	movw   $0xeb76,-0xaa2(%rbp)
   1a8ba:	76 eb 
   1a8bc:	66 c7 85 60 f5 ff ff 	movw   $0xeb76,-0xaa0(%rbp)
   1a8c3:	76 eb 
   1a8c5:	66 c7 85 62 f5 ff ff 	movw   $0x77b5,-0xa9e(%rbp)
   1a8cc:	b5 77 
   1a8ce:	66 c7 85 64 f5 ff ff 	movw   $0xeb76,-0xa9c(%rbp)
   1a8d5:	76 eb 
   1a8d7:	66 c7 85 66 f5 ff ff 	movw   $0x77b5,-0xa9a(%rbp)
   1a8de:	b5 77 
   1a8e0:	66 c7 85 68 f5 ff ff 	movw   $0x77b5,-0xa98(%rbp)
   1a8e7:	b5 77 
   1a8e9:	66 c7 85 6a f5 ff ff 	movw   $0xeb76,-0xa96(%rbp)
   1a8f0:	76 eb 
   1a8f2:	66 c7 85 6c f5 ff ff 	movw   $0xeb76,-0xa94(%rbp)
   1a8f9:	76 eb 
   1a8fb:	66 c7 85 6e f5 ff ff 	movw   $0x77b5,-0xa92(%rbp)
   1a902:	b5 77 
   1a904:	66 c7 85 70 f5 ff ff 	movw   $0x77b5,-0xa90(%rbp)
   1a90b:	b5 77 
   1a90d:	66 c7 85 72 f5 ff ff 	movw   $0xeb76,-0xa8e(%rbp)
   1a914:	76 eb 
   1a916:	66 c7 85 74 f5 ff ff 	movw   $0x77b5,-0xa8c(%rbp)
   1a91d:	b5 77 
   1a91f:	66 c7 85 76 f5 ff ff 	movw   $0xeb76,-0xa8a(%rbp)
   1a926:	76 eb 
   1a928:	66 c7 85 78 f5 ff ff 	movw   $0xeb76,-0xa88(%rbp)
   1a92f:	76 eb 
   1a931:	66 c7 85 7a f5 ff ff 	movw   $0xfff6,-0xa86(%rbp)
   1a938:	f6 ff 
   1a93a:	66 c7 85 7c f5 ff ff 	movw   $0xeb76,-0xa84(%rbp)
   1a941:	76 eb 
   1a943:	66 c7 85 7e f5 ff ff 	movw   $0xeb76,-0xa82(%rbp)
   1a94a:	76 eb 
   1a94c:	66 c7 85 80 f5 ff ff 	movw   $0x77b5,-0xa80(%rbp)
   1a953:	b5 77 
   1a955:	66 c7 85 82 f5 ff ff 	movw   $0xeb76,-0xa7e(%rbp)
   1a95c:	76 eb 
   1a95e:	66 c7 85 84 f5 ff ff 	movw   $0x77b5,-0xa7c(%rbp)
   1a965:	b5 77 
   1a967:	66 c7 85 86 f5 ff ff 	movw   $0x77b5,-0xa7a(%rbp)
   1a96e:	b5 77 
   1a970:	66 c7 85 88 f5 ff ff 	movw   $0xeb76,-0xa78(%rbp)
   1a977:	76 eb 
   1a979:	66 c7 85 8a f5 ff ff 	movw   $0xeb76,-0xa76(%rbp)
   1a980:	76 eb 
   1a982:	66 c7 85 8c f5 ff ff 	movw   $0x77b5,-0xa74(%rbp)
   1a989:	b5 77 
   1a98b:	66 c7 85 8e f5 ff ff 	movw   $0x77b5,-0xa72(%rbp)
   1a992:	b5 77 
   1a994:	66 c7 85 90 f5 ff ff 	movw   $0xeb76,-0xa70(%rbp)
   1a99b:	76 eb 
   1a99d:	66 c7 85 92 f5 ff ff 	movw   $0x77b5,-0xa6e(%rbp)
   1a9a4:	b5 77 
   1a9a6:	c7 85 a0 f3 ff ff 00 	movl   $0xbc179a00,-0xc60(%rbp)
   1a9ad:	9a 17 bc 
   1a9b0:	c7 85 d4 f3 ff ff 01 	movl   $0x1,-0xc2c(%rbp)
   1a9b7:	00 00 00 
   1a9ba:	48 8d 05 e7 ef 00 00 	lea    0xefe7(%rip),%rax        # 299a8 <g_57>
   1a9c1:	48 89 85 f0 f3 ff ff 	mov    %rax,-0xc10(%rbp)
   1a9c8:	48 c7 85 10 f4 ff ff 	movq   $0x0,-0xbf0(%rbp)
   1a9cf:	00 00 00 00 
   1a9d3:	c7 85 d8 f3 ff ff ac 	movl   $0x210ba1ac,-0xc28(%rbp)
   1a9da:	a1 0b 21 
   1a9dd:	c7 85 78 f3 ff ff 00 	movl   $0x0,-0xc88(%rbp)
   1a9e4:	00 00 00 
   1a9e7:	e9 04 26 00 00       	jmpq   1cff0 <func_62+0x2855>
   1a9ec:	c6 85 98 f3 ff ff 00 	movb   $0x0,-0xc68(%rbp)
   1a9f3:	48 8d 05 ba a7 00 00 	lea    0xa7ba(%rip),%rax        # 251b4 <g_213>
   1a9fa:	48 89 85 f8 f3 ff ff 	mov    %rax,-0xc08(%rbp)
   1aa01:	c7 85 a0 f5 ff ff f7 	movl   $0xfffffff7,-0xa60(%rbp)
   1aa08:	ff ff ff 
   1aa0b:	c7 85 a4 f5 ff ff 02 	movl   $0x5645de02,-0xa5c(%rbp)
   1aa12:	de 45 56 
   1aa15:	c7 85 a8 f5 ff ff 18 	movl   $0x38dd4518,-0xa58(%rbp)
   1aa1c:	45 dd 38 
   1aa1f:	c7 85 ac f5 ff ff 02 	movl   $0x5645de02,-0xa54(%rbp)
   1aa26:	de 45 56 
   1aa29:	c7 85 b0 f5 ff ff f7 	movl   $0xfffffff7,-0xa50(%rbp)
   1aa30:	ff ff ff 
   1aa33:	c7 85 b4 f5 ff ff 9e 	movl   $0x5ef4969e,-0xa4c(%rbp)
   1aa3a:	96 f4 5e 
   1aa3d:	c7 85 b8 f5 ff ff 09 	movl   $0x9,-0xa48(%rbp)
   1aa44:	00 00 00 
   1aa47:	c7 85 bc f5 ff ff 18 	movl   $0x38dd4518,-0xa44(%rbp)
   1aa4e:	45 dd 38 
   1aa51:	c7 85 c0 f5 ff ff f2 	movl   $0xda4907f2,-0xa40(%rbp)
   1aa58:	07 49 da 
   1aa5b:	c7 85 c4 f5 ff ff 02 	movl   $0x5645de02,-0xa3c(%rbp)
   1aa62:	de 45 56 
   1aa65:	c7 85 c8 f5 ff ff 9e 	movl   $0x5ef4969e,-0xa38(%rbp)
   1aa6c:	96 f4 5e 
   1aa6f:	c7 85 cc f5 ff ff 02 	movl   $0x5645de02,-0xa34(%rbp)
   1aa76:	de 45 56 
   1aa79:	c7 85 d0 f5 ff ff f7 	movl   $0xfffffff7,-0xa30(%rbp)
   1aa80:	ff ff ff 
   1aa83:	c7 85 d4 f5 ff ff f7 	movl   $0xfffffff7,-0xa2c(%rbp)
   1aa8a:	ff ff ff 
   1aa8d:	c7 85 d8 f5 ff ff f7 	movl   $0xfffffff7,-0xa28(%rbp)
   1aa94:	ff ff ff 
   1aa97:	c7 85 dc f5 ff ff f2 	movl   $0xda4907f2,-0xa24(%rbp)
   1aa9e:	07 49 da 
   1aaa1:	c7 85 e0 f5 ff ff f2 	movl   $0x35b3a7f2,-0xa20(%rbp)
   1aaa8:	a7 b3 35 
   1aaab:	c7 85 e4 f5 ff ff f2 	movl   $0xda4907f2,-0xa1c(%rbp)
   1aab2:	07 49 da 
   1aab5:	c7 85 e8 f5 ff ff 09 	movl   $0x9,-0xa18(%rbp)
   1aabc:	00 00 00 
   1aabf:	c7 85 ec f5 ff ff 02 	movl   $0x5645de02,-0xa14(%rbp)
   1aac6:	de 45 56 
   1aac9:	c7 85 f0 f5 ff ff f7 	movl   $0xfffffff7,-0xa10(%rbp)
   1aad0:	ff ff ff 
   1aad3:	c7 85 f4 f5 ff ff f7 	movl   $0xfffffff7,-0xa0c(%rbp)
   1aada:	ff ff ff 
   1aadd:	c7 85 f8 f5 ff ff 02 	movl   $0x5645de02,-0xa08(%rbp)
   1aae4:	de 45 56 
   1aae7:	c7 85 fc f5 ff ff 09 	movl   $0x9,-0xa04(%rbp)
   1aaee:	00 00 00 
   1aaf1:	c7 85 00 f6 ff ff f2 	movl   $0xda4907f2,-0xa00(%rbp)
   1aaf8:	07 49 da 
   1aafb:	c7 85 04 f6 ff ff 02 	movl   $0x5645de02,-0x9fc(%rbp)
   1ab02:	de 45 56 
   1ab05:	c7 85 08 f6 ff ff f7 	movl   $0xfffffff7,-0x9f8(%rbp)
   1ab0c:	ff ff ff 
   1ab0f:	c7 85 0c f6 ff ff f7 	movl   $0xfffffff7,-0x9f4(%rbp)
   1ab16:	ff ff ff 
   1ab19:	c7 85 10 f6 ff ff f7 	movl   $0xfffffff7,-0x9f0(%rbp)
   1ab20:	ff ff ff 
   1ab23:	c7 85 14 f6 ff ff f7 	movl   $0xfffffff7,-0x9ec(%rbp)
   1ab2a:	ff ff ff 
   1ab2d:	c7 85 18 f6 ff ff f7 	movl   $0xfffffff7,-0x9e8(%rbp)
   1ab34:	ff ff ff 
   1ab37:	c7 85 1c f6 ff ff 01 	movl   $0x1,-0x9e4(%rbp)
   1ab3e:	00 00 00 
   1ab41:	c7 85 20 f6 ff ff 02 	movl   $0x5645de02,-0x9e0(%rbp)
   1ab48:	de 45 56 
   1ab4b:	c7 85 24 f6 ff ff f2 	movl   $0xda4907f2,-0x9dc(%rbp)
   1ab52:	07 49 da 
   1ab55:	c7 85 28 f6 ff ff 18 	movl   $0x38dd4518,-0x9d8(%rbp)
   1ab5c:	45 dd 38 
   1ab5f:	c7 85 2c f6 ff ff f2 	movl   $0x35b3a7f2,-0x9d4(%rbp)
   1ab66:	a7 b3 35 
   1ab69:	c7 85 30 f6 ff ff 01 	movl   $0x1,-0x9d0(%rbp)
   1ab70:	00 00 00 
   1ab73:	c7 85 34 f6 ff ff f2 	movl   $0xda4907f2,-0x9cc(%rbp)
   1ab7a:	07 49 da 
   1ab7d:	c7 85 38 f6 ff ff f6 	movl   $0xfffffff6,-0x9c8(%rbp)
   1ab84:	ff ff ff 
   1ab87:	c7 85 3c f6 ff ff ff 	movl   $0xffffffff,-0x9c4(%rbp)
   1ab8e:	ff ff ff 
   1ab91:	c7 85 a4 f3 ff ff f4 	movl   $0xc35386f4,-0xc5c(%rbp)
   1ab98:	86 53 c3 
   1ab9b:	48 8d 85 98 f3 ff ff 	lea    -0xc68(%rbp),%rax
   1aba2:	48 89 85 18 f4 ff ff 	mov    %rax,-0xbe8(%rbp)
   1aba9:	48 8d 85 a0 f5 ff ff 	lea    -0xa60(%rbp),%rax
   1abb0:	48 05 88 00 00 00    	add    $0x88,%rax
   1abb6:	48 89 85 20 f4 ff ff 	mov    %rax,-0xbe0(%rbp)
   1abbd:	c7 85 b8 f3 ff ff 00 	movl   $0x0,-0xc48(%rbp)
   1abc4:	00 00 00 
   1abc7:	eb 1e                	jmp    1abe7 <func_62+0x44c>
   1abc9:	8b 85 b8 f3 ff ff    	mov    -0xc48(%rbp),%eax
   1abcf:	48 98                	cltq   
   1abd1:	48 8d 15 e4 a5 00 00 	lea    0xa5e4(%rip),%rdx        # 251bc <g_248>
   1abd8:	48 89 94 c5 c8 f4 ff 	mov    %rdx,-0xb38(%rbp,%rax,8)
   1abdf:	ff 
   1abe0:	83 85 b8 f3 ff ff 01 	addl   $0x1,-0xc48(%rbp)
   1abe7:	83 bd b8 f3 ff ff 00 	cmpl   $0x0,-0xc48(%rbp)
   1abee:	7e d9                	jle    1abc9 <func_62+0x42e>
   1abf0:	c6 05 99 a5 00 00 00 	movb   $0x0,0xa599(%rip)        # 25190 <g_161>
   1abf7:	e9 6d 22 00 00       	jmpq   1ce69 <func_62+0x26ce>
   1abfc:	c7 85 a8 f3 ff ff e6 	movl   $0x680227e6,-0xc58(%rbp)
   1ac03:	27 02 68 
   1ac06:	66 c7 85 9a f3 ff ff 	movw   $0xbbf8,-0xc66(%rbp)
   1ac0d:	f8 bb 
   1ac0f:	c7 85 ac f3 ff ff ff 	movl   $0xffffffff,-0xc54(%rbp)
   1ac16:	ff ff ff 
   1ac19:	c7 85 b0 f3 ff ff 00 	movl   $0x0,-0xc50(%rbp)
   1ac20:	00 00 00 
   1ac23:	c6 85 99 f3 ff ff f3 	movb   $0xf3,-0xc67(%rbp)
   1ac2a:	66 c7 85 9c f3 ff ff 	movw   $0xffff,-0xc64(%rbp)
   1ac31:	ff ff 
   1ac33:	8b 05 7b a4 00 00    	mov    0xa47b(%rip),%eax        # 250b4 <g_3+0x74>
   1ac39:	83 f8 01             	cmp    $0x1,%eax
   1ac3c:	0f 9f c0             	setg   %al
   1ac3f:	0f b6 c0             	movzbl %al,%eax
   1ac42:	be 01 00 00 00       	mov    $0x1,%esi
   1ac47:	89 c7                	mov    %eax,%edi
   1ac49:	e8 1e 17 ff ff       	callq  c36c <safe_rshift_func_int8_t_s_u>
   1ac4e:	0f be d0             	movsbl %al,%edx
   1ac51:	0f b7 8d 7c f3 ff ff 	movzwl -0xc84(%rbp),%ecx
   1ac58:	48 8b 05 49 a5 00 00 	mov    0xa549(%rip),%rax        # 251a8 <g_184>
   1ac5f:	48 39 c1             	cmp    %rax,%rcx
   1ac62:	0f 97 c0             	seta   %al
   1ac65:	0f b6 c0             	movzbl %al,%eax
   1ac68:	89 d6                	mov    %edx,%esi
   1ac6a:	89 c7                	mov    %eax,%edi
   1ac6c:	e8 94 19 ff ff       	callq  c605 <safe_sub_func_int32_t_s_s>
   1ac71:	be a3 d9 b3 a0       	mov    $0xa0b3d9a3,%esi
   1ac76:	89 c7                	mov    %eax,%edi
   1ac78:	e8 39 19 ff ff       	callq  c5b6 <safe_add_func_int32_t_s_s>
   1ac7d:	0f be d8             	movsbl %al,%ebx
   1ac80:	0f b7 85 6c f5 ff ff 	movzwl -0xa94(%rbp),%eax
   1ac87:	48 0f bf c0          	movswq %ax,%rax
   1ac8b:	48 89 05 06 a5 00 00 	mov    %rax,0xa506(%rip)        # 25198 <g_176>
   1ac92:	48 8b 05 ff a4 00 00 	mov    0xa4ff(%rip),%rax        # 25198 <g_176>
   1ac99:	44 0f b7 e0          	movzwl %ax,%r12d
   1ac9d:	0f b6 05 ec a4 00 00 	movzbl 0xa4ec(%rip),%eax        # 25190 <g_161>
   1aca4:	0f b6 c0             	movzbl %al,%eax
   1aca7:	8d 50 05             	lea    0x5(%rax),%edx
   1acaa:	0f b6 05 df a4 00 00 	movzbl 0xa4df(%rip),%eax        # 25190 <g_161>
   1acb1:	0f b6 c0             	movzbl %al,%eax
   1acb4:	48 63 c8             	movslq %eax,%rcx
   1acb7:	48 63 d2             	movslq %edx,%rdx
   1acba:	48 89 d0             	mov    %rdx,%rax
   1acbd:	48 c1 e0 02          	shl    $0x2,%rax
   1acc1:	48 01 d0             	add    %rdx,%rax
   1acc4:	48 01 c8             	add    %rcx,%rax
   1acc7:	0f b7 84 45 30 f5 ff 	movzwl -0xad0(%rbp,%rax,2),%eax
   1acce:	ff 
   1accf:	66 85 c0             	test   %ax,%ax
   1acd2:	0f 95 c0             	setne  %al
   1acd5:	0f b6 c0             	movzbl %al,%eax
   1acd8:	be 0d 00 00 00       	mov    $0xd,%esi
   1acdd:	89 c7                	mov    %eax,%edi
   1acdf:	e8 46 18 ff ff       	callq  c52a <safe_rshift_func_int16_t_s_s>
   1ace4:	0f b7 c0             	movzwl %ax,%eax
   1ace7:	44 89 e6             	mov    %r12d,%esi
   1acea:	89 c7                	mov    %eax,%edi
   1acec:	e8 0e 20 ff ff       	callq  ccff <safe_add_func_uint16_t_u_u>
   1acf1:	0f b6 05 a8 a4 00 00 	movzbl 0xa4a8(%rip),%eax        # 251a0 <g_177>
   1acf8:	83 e8 01             	sub    $0x1,%eax
   1acfb:	88 05 9f a4 00 00    	mov    %al,0xa49f(%rip)        # 251a0 <g_177>
   1ad01:	48 8b 85 70 f3 ff ff 	mov    -0xc90(%rbp),%rax
   1ad08:	c6 00 de             	movb   $0xde,(%rax)
   1ad0b:	89 de                	mov    %ebx,%esi
   1ad0d:	bf de ff ff ff       	mov    $0xffffffde,%edi
   1ad12:	e8 bd 14 ff ff       	callq  c1d4 <safe_add_func_int8_t_s_s>
   1ad17:	89 c6                	mov    %eax,%esi
   1ad19:	0f b6 05 70 a4 00 00 	movzbl 0xa470(%rip),%eax        # 25190 <g_161>
   1ad20:	0f b6 c0             	movzbl %al,%eax
   1ad23:	8d 50 05             	lea    0x5(%rax),%edx
   1ad26:	0f b6 05 63 a4 00 00 	movzbl 0xa463(%rip),%eax        # 25190 <g_161>
   1ad2d:	0f b6 c0             	movzbl %al,%eax
   1ad30:	48 63 c8             	movslq %eax,%rcx
   1ad33:	48 63 d2             	movslq %edx,%rdx
   1ad36:	48 89 d0             	mov    %rdx,%rax
   1ad39:	48 c1 e0 02          	shl    $0x2,%rax
   1ad3d:	48 01 d0             	add    %rdx,%rax
   1ad40:	48 01 c8             	add    %rcx,%rax
   1ad43:	0f b7 84 45 30 f5 ff 	movzwl -0xad0(%rbp,%rax,2),%eax
   1ad4a:	ff 
   1ad4b:	09 f0                	or     %esi,%eax
   1ad4d:	0f b6 c8             	movzbl %al,%ecx
   1ad50:	0f b6 05 39 a4 00 00 	movzbl 0xa439(%rip),%eax        # 25190 <g_161>
   1ad57:	0f b6 c0             	movzbl %al,%eax
   1ad5a:	8d 50 05             	lea    0x5(%rax),%edx
   1ad5d:	0f b6 05 2c a4 00 00 	movzbl 0xa42c(%rip),%eax        # 25190 <g_161>
   1ad64:	0f b6 c0             	movzbl %al,%eax
   1ad67:	48 63 f0             	movslq %eax,%rsi
   1ad6a:	48 63 d2             	movslq %edx,%rdx
   1ad6d:	48 89 d0             	mov    %rdx,%rax
   1ad70:	48 c1 e0 02          	shl    $0x2,%rax
   1ad74:	48 01 d0             	add    %rdx,%rax
   1ad77:	48 01 f0             	add    %rsi,%rax
   1ad7a:	0f b7 84 45 30 f5 ff 	movzwl -0xad0(%rbp,%rax,2),%eax
   1ad81:	ff 
   1ad82:	0f b6 c0             	movzbl %al,%eax
   1ad85:	89 ce                	mov    %ecx,%esi
   1ad87:	89 c7                	mov    %eax,%edi
   1ad89:	e8 4d 1e ff ff       	callq  cbdb <safe_div_func_uint8_t_u_u>
   1ad8e:	84 c0                	test   %al,%al
   1ad90:	0f 84 a8 12 00 00    	je     1c03e <func_62+0x18a3>
   1ad96:	48 c7 85 90 f4 ff ff 	movq   $0x1,-0xb70(%rbp)
   1ad9d:	01 00 00 00 
   1ada1:	c7 85 b4 f3 ff ff 74 	movl   $0xd0c3c174,-0xc4c(%rbp)
   1ada8:	c1 c3 d0 
   1adab:	c7 85 e4 f3 ff ff fa 	movl   $0xfffffffa,-0xc1c(%rbp)
   1adb2:	ff ff ff 
   1adb5:	c7 85 e8 f3 ff ff 56 	movl   $0x2e381456,-0xc18(%rbp)
   1adbc:	14 38 2e 
   1adbf:	48 8d 85 e0 f6 ff ff 	lea    -0x920(%rbp),%rax
   1adc6:	48 8d 15 d3 6f 00 00 	lea    0x6fd3(%rip),%rdx        # 21da0 <g_1983+0x1d38>
   1adcd:	b9 2d 00 00 00       	mov    $0x2d,%ecx
   1add2:	48 89 c7             	mov    %rax,%rdi
   1add5:	48 89 d6             	mov    %rdx,%rsi
   1add8:	f3 48 a5             	rep movsq %ds:(%rsi),%es:(%rdi)
   1addb:	48 c7 05 92 a3 00 00 	movq   $0x3,0xa392(%rip)        # 25178 <g_55>
   1ade2:	03 00 00 00 
   1ade6:	e9 3e 12 00 00       	jmpq   1c029 <func_62+0x188e>
   1adeb:	c7 85 bc f3 ff ff aa 	movl   $0x3e278faa,-0xc44(%rbp)
   1adf2:	8f 27 3e 
   1adf5:	48 8d 85 b4 f3 ff ff 	lea    -0xc4c(%rbp),%rax
   1adfc:	48 89 85 00 f4 ff ff 	mov    %rax,-0xc00(%rbp)
   1ae03:	48 8d 85 00 f4 ff ff 	lea    -0xc00(%rbp),%rax
   1ae0a:	48 89 85 98 f4 ff ff 	mov    %rax,-0xb68(%rbp)
   1ae11:	48 8d 05 f0 a2 00 00 	lea    0xa2f0(%rip),%rax        # 25108 <g_3+0xc8>
   1ae18:	48 89 85 d0 f4 ff ff 	mov    %rax,-0xb30(%rbp)
   1ae1f:	48 8d 05 e2 a2 00 00 	lea    0xa2e2(%rip),%rax        # 25108 <g_3+0xc8>
   1ae26:	48 89 85 d8 f4 ff ff 	mov    %rax,-0xb28(%rbp)
   1ae2d:	48 8d 05 d4 a2 00 00 	lea    0xa2d4(%rip),%rax        # 25108 <g_3+0xc8>
   1ae34:	48 89 85 e0 f4 ff ff 	mov    %rax,-0xb20(%rbp)
   1ae3b:	48 8d 05 c6 a2 00 00 	lea    0xa2c6(%rip),%rax        # 25108 <g_3+0xc8>
   1ae42:	48 89 85 e8 f4 ff ff 	mov    %rax,-0xb18(%rbp)
   1ae49:	48 8d 05 b8 a2 00 00 	lea    0xa2b8(%rip),%rax        # 25108 <g_3+0xc8>
   1ae50:	48 89 85 f0 f4 ff ff 	mov    %rax,-0xb10(%rbp)
   1ae57:	48 8d 05 aa a2 00 00 	lea    0xa2aa(%rip),%rax        # 25108 <g_3+0xc8>
   1ae5e:	48 89 85 f8 f4 ff ff 	mov    %rax,-0xb08(%rbp)
   1ae65:	48 8d 05 9c a2 00 00 	lea    0xa29c(%rip),%rax        # 25108 <g_3+0xc8>
   1ae6c:	48 89 85 00 f5 ff ff 	mov    %rax,-0xb00(%rbp)
   1ae73:	48 8d 05 8e a2 00 00 	lea    0xa28e(%rip),%rax        # 25108 <g_3+0xc8>
   1ae7a:	48 89 85 08 f5 ff ff 	mov    %rax,-0xaf8(%rbp)
   1ae81:	48 8d 05 80 a2 00 00 	lea    0xa280(%rip),%rax        # 25108 <g_3+0xc8>
   1ae88:	48 89 85 10 f5 ff ff 	mov    %rax,-0xaf0(%rbp)
   1ae8f:	48 8d 05 72 a2 00 00 	lea    0xa272(%rip),%rax        # 25108 <g_3+0xc8>
   1ae96:	48 89 85 18 f5 ff ff 	mov    %rax,-0xae8(%rbp)
   1ae9d:	48 8d 05 64 a2 00 00 	lea    0xa264(%rip),%rax        # 25108 <g_3+0xc8>
   1aea4:	48 89 85 20 f5 ff ff 	mov    %rax,-0xae0(%rbp)
   1aeab:	48 8d 05 56 a2 00 00 	lea    0xa256(%rip),%rax        # 25108 <g_3+0xc8>
   1aeb2:	48 89 85 28 f5 ff ff 	mov    %rax,-0xad8(%rbp)
   1aeb9:	48 8d 85 d0 f4 ff ff 	lea    -0xb30(%rbp),%rax
   1aec0:	48 83 c0 50          	add    $0x50,%rax
   1aec4:	48 89 85 a0 f4 ff ff 	mov    %rax,-0xb60(%rbp)
   1aecb:	c7 05 b3 a2 00 00 01 	movl   $0x1,0xa2b3(%rip)        # 25188 <g_98>
   1aed2:	00 00 00 
   1aed5:	eb 16                	jmp    1aeed <func_62+0x752>
   1aed7:	83 85 bc f3 ff ff 01 	addl   $0x1,-0xc44(%rbp)
   1aede:	8b 05 a4 a2 00 00    	mov    0xa2a4(%rip),%eax        # 25188 <g_98>
   1aee4:	83 c0 01             	add    $0x1,%eax
   1aee7:	89 05 9b a2 00 00    	mov    %eax,0xa29b(%rip)        # 25188 <g_98>
   1aeed:	8b 05 95 a2 00 00    	mov    0xa295(%rip),%eax        # 25188 <g_98>
   1aef3:	83 f8 04             	cmp    $0x4,%eax
   1aef6:	7e df                	jle    1aed7 <func_62+0x73c>
   1aef8:	48 c7 05 a5 ea 00 00 	movq   $0x4,0xeaa5(%rip)        # 299a8 <g_57>
   1aeff:	04 00 00 00 
   1af03:	e9 b1 01 00 00       	jmpq   1b0b9 <func_62+0x91e>
   1af08:	48 8d 05 79 a2 00 00 	lea    0xa279(%rip),%rax        # 25188 <g_98>
   1af0f:	48 89 85 08 f4 ff ff 	mov    %rax,-0xbf8(%rbp)
   1af16:	48 8d 85 50 f8 ff ff 	lea    -0x7b0(%rbp),%rax
   1af1d:	48 8d 15 9c c0 00 00 	lea    0xc09c(%rip),%rdx        # 26fc0 <g_2684+0x1ae8>
   1af24:	b9 f0 00 00 00       	mov    $0xf0,%ecx
   1af29:	48 89 c7             	mov    %rax,%rdi
   1af2c:	48 89 d6             	mov    %rdx,%rsi
   1af2f:	f3 48 a5             	rep movsq %ds:(%rsi),%es:(%rdi)
   1af32:	48 8d 05 7b a2 00 00 	lea    0xa27b(%rip),%rax        # 251b4 <g_213>
   1af39:	48 89 85 b0 f4 ff ff 	mov    %rax,-0xb50(%rbp)
   1af40:	48 8d 85 08 f4 ff ff 	lea    -0xbf8(%rbp),%rax
   1af47:	48 89 85 b8 f4 ff ff 	mov    %rax,-0xb48(%rbp)
   1af4e:	48 8d 85 50 f8 ff ff 	lea    -0x7b0(%rbp),%rax
   1af55:	48 05 50 06 00 00    	add    $0x650,%rax
   1af5b:	48 89 85 c0 f4 ff ff 	mov    %rax,-0xb40(%rbp)
   1af62:	0f b7 05 47 a2 00 00 	movzwl 0xa247(%rip),%eax        # 251b0 <g_200>
   1af69:	83 e8 01             	sub    $0x1,%eax
   1af6c:	66 89 05 3d a2 00 00 	mov    %ax,0xa23d(%rip)        # 251b0 <g_200>
   1af73:	8b 9d b4 f3 ff ff    	mov    -0xc4c(%rbp),%ebx
   1af79:	48 8b 85 b0 f4 ff ff 	mov    -0xb50(%rbp),%rax
   1af80:	8b 10                	mov    (%rax),%edx
   1af82:	48 8b 85 b0 f4 ff ff 	mov    -0xb50(%rbp),%rax
   1af89:	89 10                	mov    %edx,(%rax)
   1af8b:	48 8b 85 80 f3 ff ff 	mov    -0xc80(%rbp),%rax
   1af92:	48 8b 00             	mov    (%rax),%rax
   1af95:	89 c2                	mov    %eax,%edx
   1af97:	0f b6 85 98 f3 ff ff 	movzbl -0xc68(%rbp),%eax
   1af9e:	66 98                	cbtw   
   1afa0:	21 d0                	and    %edx,%eax
   1afa2:	0f b7 c0             	movzwl %ax,%eax
   1afa5:	be 08 00 00 00       	mov    $0x8,%esi
   1afaa:	89 c7                	mov    %eax,%edi
   1afac:	e8 97 1e ff ff       	callq  ce48 <safe_rshift_func_uint16_t_u_s>
   1afb1:	0f b7 d0             	movzwl %ax,%edx
   1afb4:	8b 05 fe a1 00 00    	mov    0xa1fe(%rip),%eax        # 251b8 <g_217>
   1afba:	0f b7 c0             	movzwl %ax,%eax
   1afbd:	89 d6                	mov    %edx,%esi
   1afbf:	89 c7                	mov    %eax,%edi
   1afc1:	e8 82 1e ff ff       	callq  ce48 <safe_rshift_func_uint16_t_u_s>
   1afc6:	48 8b 85 b8 f4 ff ff 	mov    -0xb48(%rbp),%rax
   1afcd:	48 8b 95 b0 f4 ff ff 	mov    -0xb50(%rbp),%rdx
   1afd4:	48 89 10             	mov    %rdx,(%rax)
   1afd7:	48 8b 85 b8 f4 ff ff 	mov    -0xb48(%rbp),%rax
   1afde:	48 8b 10             	mov    (%rax),%rdx
   1afe1:	48 8b 85 c0 f4 ff ff 	mov    -0xb40(%rbp),%rax
   1afe8:	48 89 10             	mov    %rdx,(%rax)
   1afeb:	48 8b 85 c0 f4 ff ff 	mov    -0xb40(%rbp),%rax
   1aff2:	48 8b 10             	mov    (%rax),%rdx
   1aff5:	48 8d 85 a0 f3 ff ff 	lea    -0xc60(%rbp),%rax
   1affc:	48 39 c2             	cmp    %rax,%rdx
   1afff:	74 07                	je     1b008 <func_62+0x86d>
   1b001:	b8 2f b9 24 ea       	mov    $0xea24b92f,%eax
   1b006:	eb 05                	jmp    1b00d <func_62+0x872>
   1b008:	b8 2e b9 24 ea       	mov    $0xea24b92e,%eax
   1b00d:	89 de                	mov    %ebx,%esi
   1b00f:	89 c7                	mov    %eax,%edi
   1b011:	e8 a0 15 ff ff       	callq  c5b6 <safe_add_func_int32_t_s_s>
   1b016:	0f b6 c0             	movzbl %al,%eax
   1b019:	89 c6                	mov    %eax,%esi
   1b01b:	bf ff 00 00 00       	mov    $0xff,%edi
   1b020:	e8 89 1b ff ff       	callq  cbae <safe_mod_func_uint8_t_u_u>
   1b025:	0f b6 c0             	movzbl %al,%eax
   1b028:	be 0c 00 00 00       	mov    $0xc,%esi
   1b02d:	89 c7                	mov    %eax,%edi
   1b02f:	e8 d2 1d ff ff       	callq  ce06 <safe_lshift_func_uint16_t_u_u>
   1b034:	8b 05 7a a0 00 00    	mov    0xa07a(%rip),%eax        # 250b4 <g_3+0x74>
   1b03a:	48 63 d0             	movslq %eax,%rdx
   1b03d:	48 8b 05 64 a1 00 00 	mov    0xa164(%rip),%rax        # 251a8 <g_184>
   1b044:	48 39 c2             	cmp    %rax,%rdx
   1b047:	48 8b 05 5a e9 00 00 	mov    0xe95a(%rip),%rax        # 299a8 <g_57>
   1b04e:	48 8d 50 04          	lea    0x4(%rax),%rdx
   1b052:	0f b6 05 37 a1 00 00 	movzbl 0xa137(%rip),%eax        # 25190 <g_161>
   1b059:	0f b6 c0             	movzbl %al,%eax
   1b05c:	48 63 c8             	movslq %eax,%rcx
   1b05f:	48 89 d0             	mov    %rdx,%rax
   1b062:	48 c1 e0 02          	shl    $0x2,%rax
   1b066:	48 01 d0             	add    %rdx,%rax
   1b069:	48 01 c8             	add    %rcx,%rax
   1b06c:	0f b7 84 45 30 f5 ff 	movzwl -0xad0(%rbp,%rax,2),%eax
   1b073:	ff 
   1b074:	0f b6 c0             	movzbl %al,%eax
   1b077:	be 01 00 00 00       	mov    $0x1,%esi
   1b07c:	89 c7                	mov    %eax,%edi
   1b07e:	e8 f5 1a ff ff       	callq  cb78 <safe_sub_func_uint8_t_u_u>
   1b083:	0f b6 c0             	movzbl %al,%eax
   1b086:	89 05 fc a0 00 00    	mov    %eax,0xa0fc(%rip)        # 25188 <g_98>
   1b08c:	48 8b 85 80 f3 ff ff 	mov    -0xc80(%rbp),%rax
   1b093:	48 8b 00             	mov    (%rax),%rax
   1b096:	48 83 f8 02          	cmp    $0x2,%rax
   1b09a:	48 8b 85 08 f4 ff ff 	mov    -0xbf8(%rbp),%rax
   1b0a1:	c7 00 0e c6 3c 33    	movl   $0x333cc60e,(%rax)
   1b0a7:	48 8b 05 fa e8 00 00 	mov    0xe8fa(%rip),%rax        # 299a8 <g_57>
   1b0ae:	48 83 e8 01          	sub    $0x1,%rax
   1b0b2:	48 89 05 ef e8 00 00 	mov    %rax,0xe8ef(%rip)        # 299a8 <g_57>
   1b0b9:	48 8b 05 e8 e8 00 00 	mov    0xe8e8(%rip),%rax        # 299a8 <g_57>
   1b0c0:	48 85 c0             	test   %rax,%rax
   1b0c3:	0f 89 3f fe ff ff    	jns    1af08 <func_62+0x76d>
   1b0c9:	48 8b 85 98 f4 ff ff 	mov    -0xb68(%rbp),%rax
   1b0d0:	48 c7 00 00 00 00 00 	movq   $0x0,(%rax)
   1b0d7:	48 8b 85 98 f4 ff ff 	mov    -0xb68(%rbp),%rax
   1b0de:	48 8b 10             	mov    (%rax),%rdx
   1b0e1:	48 8b 85 a0 f4 ff ff 	mov    -0xb60(%rbp),%rax
   1b0e8:	48 89 10             	mov    %rdx,(%rax)
   1b0eb:	c7 05 93 a0 00 00 00 	movl   $0x0,0xa093(%rip)        # 25188 <g_98>
   1b0f2:	00 00 00 
   1b0f5:	e9 0e 0f 00 00       	jmpq   1c008 <func_62+0x186d>
   1b0fa:	48 8d 85 f8 f3 ff ff 	lea    -0xc08(%rbp),%rax
   1b101:	48 89 85 50 f8 ff ff 	mov    %rax,-0x7b0(%rbp)
   1b108:	48 8d 85 f8 f3 ff ff 	lea    -0xc08(%rbp),%rax
   1b10f:	48 89 85 58 f8 ff ff 	mov    %rax,-0x7a8(%rbp)
   1b116:	48 8d 85 f8 f3 ff ff 	lea    -0xc08(%rbp),%rax
   1b11d:	48 89 85 60 f8 ff ff 	mov    %rax,-0x7a0(%rbp)
   1b124:	48 8d 85 f8 f3 ff ff 	lea    -0xc08(%rbp),%rax
   1b12b:	48 89 85 68 f8 ff ff 	mov    %rax,-0x798(%rbp)
   1b132:	48 8d 85 f8 f3 ff ff 	lea    -0xc08(%rbp),%rax
   1b139:	48 89 85 70 f8 ff ff 	mov    %rax,-0x790(%rbp)
   1b140:	48 8d 85 f8 f3 ff ff 	lea    -0xc08(%rbp),%rax
   1b147:	48 89 85 78 f8 ff ff 	mov    %rax,-0x788(%rbp)
   1b14e:	48 8d 85 f8 f3 ff ff 	lea    -0xc08(%rbp),%rax
   1b155:	48 89 85 80 f8 ff ff 	mov    %rax,-0x780(%rbp)
   1b15c:	48 c7 85 88 f8 ff ff 	movq   $0x0,-0x778(%rbp)
   1b163:	00 00 00 00 
   1b167:	48 8d 85 f8 f3 ff ff 	lea    -0xc08(%rbp),%rax
   1b16e:	48 89 85 90 f8 ff ff 	mov    %rax,-0x770(%rbp)
   1b175:	48 c7 85 98 f8 ff ff 	movq   $0x0,-0x768(%rbp)
   1b17c:	00 00 00 00 
   1b180:	48 8d 85 f8 f3 ff ff 	lea    -0xc08(%rbp),%rax
   1b187:	48 89 85 a0 f8 ff ff 	mov    %rax,-0x760(%rbp)
   1b18e:	48 c7 85 a8 f8 ff ff 	movq   $0x0,-0x758(%rbp)
   1b195:	00 00 00 00 
   1b199:	48 8d 85 f8 f3 ff ff 	lea    -0xc08(%rbp),%rax
   1b1a0:	48 89 85 b0 f8 ff ff 	mov    %rax,-0x750(%rbp)
   1b1a7:	48 8d 85 f8 f3 ff ff 	lea    -0xc08(%rbp),%rax
   1b1ae:	48 89 85 b8 f8 ff ff 	mov    %rax,-0x748(%rbp)
   1b1b5:	48 8d 85 f8 f3 ff ff 	lea    -0xc08(%rbp),%rax
   1b1bc:	48 89 85 c0 f8 ff ff 	mov    %rax,-0x740(%rbp)
   1b1c3:	48 8d 85 f8 f3 ff ff 	lea    -0xc08(%rbp),%rax
   1b1ca:	48 89 85 c8 f8 ff ff 	mov    %rax,-0x738(%rbp)
   1b1d1:	48 c7 85 d0 f8 ff ff 	movq   $0x0,-0x730(%rbp)
   1b1d8:	00 00 00 00 
   1b1dc:	48 8d 85 f8 f3 ff ff 	lea    -0xc08(%rbp),%rax
   1b1e3:	48 89 85 d8 f8 ff ff 	mov    %rax,-0x728(%rbp)
   1b1ea:	48 8d 85 f8 f3 ff ff 	lea    -0xc08(%rbp),%rax
   1b1f1:	48 89 85 e0 f8 ff ff 	mov    %rax,-0x720(%rbp)
   1b1f8:	48 8d 85 f8 f3 ff ff 	lea    -0xc08(%rbp),%rax
   1b1ff:	48 89 85 e8 f8 ff ff 	mov    %rax,-0x718(%rbp)
   1b206:	48 8d 85 f8 f3 ff ff 	lea    -0xc08(%rbp),%rax
   1b20d:	48 89 85 f0 f8 ff ff 	mov    %rax,-0x710(%rbp)
   1b214:	48 8d 85 f8 f3 ff ff 	lea    -0xc08(%rbp),%rax
   1b21b:	48 89 85 f8 f8 ff ff 	mov    %rax,-0x708(%rbp)
   1b222:	48 8d 85 f8 f3 ff ff 	lea    -0xc08(%rbp),%rax
   1b229:	48 89 85 00 f9 ff ff 	mov    %rax,-0x700(%rbp)
   1b230:	48 8d 85 f8 f3 ff ff 	lea    -0xc08(%rbp),%rax
   1b237:	48 89 85 08 f9 ff ff 	mov    %rax,-0x6f8(%rbp)
   1b23e:	48 8d 85 f8 f3 ff ff 	lea    -0xc08(%rbp),%rax
   1b245:	48 89 85 10 f9 ff ff 	mov    %rax,-0x6f0(%rbp)
   1b24c:	48 c7 85 18 f9 ff ff 	movq   $0x0,-0x6e8(%rbp)
   1b253:	00 00 00 00 
   1b257:	48 c7 85 20 f9 ff ff 	movq   $0x0,-0x6e0(%rbp)
   1b25e:	00 00 00 00 
   1b262:	48 8d 85 f8 f3 ff ff 	lea    -0xc08(%rbp),%rax
   1b269:	48 89 85 28 f9 ff ff 	mov    %rax,-0x6d8(%rbp)
   1b270:	48 8d 85 f8 f3 ff ff 	lea    -0xc08(%rbp),%rax
   1b277:	48 89 85 30 f9 ff ff 	mov    %rax,-0x6d0(%rbp)
   1b27e:	48 8d 85 f8 f3 ff ff 	lea    -0xc08(%rbp),%rax
   1b285:	48 89 85 38 f9 ff ff 	mov    %rax,-0x6c8(%rbp)
   1b28c:	48 8d 85 f8 f3 ff ff 	lea    -0xc08(%rbp),%rax
   1b293:	48 89 85 40 f9 ff ff 	mov    %rax,-0x6c0(%rbp)
   1b29a:	48 c7 85 48 f9 ff ff 	movq   $0x0,-0x6b8(%rbp)
   1b2a1:	00 00 00 00 
   1b2a5:	48 8d 85 f8 f3 ff ff 	lea    -0xc08(%rbp),%rax
   1b2ac:	48 89 85 50 f9 ff ff 	mov    %rax,-0x6b0(%rbp)
   1b2b3:	48 8d 85 f8 f3 ff ff 	lea    -0xc08(%rbp),%rax
   1b2ba:	48 89 85 58 f9 ff ff 	mov    %rax,-0x6a8(%rbp)
   1b2c1:	48 8d 85 f8 f3 ff ff 	lea    -0xc08(%rbp),%rax
   1b2c8:	48 89 85 60 f9 ff ff 	mov    %rax,-0x6a0(%rbp)
   1b2cf:	48 8d 85 f8 f3 ff ff 	lea    -0xc08(%rbp),%rax
   1b2d6:	48 89 85 68 f9 ff ff 	mov    %rax,-0x698(%rbp)
   1b2dd:	48 c7 85 70 f9 ff ff 	movq   $0x0,-0x690(%rbp)
   1b2e4:	00 00 00 00 
   1b2e8:	48 8d 85 f8 f3 ff ff 	lea    -0xc08(%rbp),%rax
   1b2ef:	48 89 85 78 f9 ff ff 	mov    %rax,-0x688(%rbp)
   1b2f6:	48 8d 85 f8 f3 ff ff 	lea    -0xc08(%rbp),%rax
   1b2fd:	48 89 85 80 f9 ff ff 	mov    %rax,-0x680(%rbp)
   1b304:	48 8d 85 f8 f3 ff ff 	lea    -0xc08(%rbp),%rax
   1b30b:	48 89 85 88 f9 ff ff 	mov    %rax,-0x678(%rbp)
   1b312:	48 8d 85 f8 f3 ff ff 	lea    -0xc08(%rbp),%rax
   1b319:	48 89 85 90 f9 ff ff 	mov    %rax,-0x670(%rbp)
   1b320:	48 8d 85 f8 f3 ff ff 	lea    -0xc08(%rbp),%rax
   1b327:	48 89 85 98 f9 ff ff 	mov    %rax,-0x668(%rbp)
   1b32e:	48 8d 85 f8 f3 ff ff 	lea    -0xc08(%rbp),%rax
   1b335:	48 89 85 a0 f9 ff ff 	mov    %rax,-0x660(%rbp)
   1b33c:	48 c7 85 a8 f9 ff ff 	movq   $0x0,-0x658(%rbp)
   1b343:	00 00 00 00 
   1b347:	48 8d 85 f8 f3 ff ff 	lea    -0xc08(%rbp),%rax
   1b34e:	48 89 85 b0 f9 ff ff 	mov    %rax,-0x650(%rbp)
   1b355:	48 8d 85 f8 f3 ff ff 	lea    -0xc08(%rbp),%rax
   1b35c:	48 89 85 b8 f9 ff ff 	mov    %rax,-0x648(%rbp)
   1b363:	48 8d 85 f8 f3 ff ff 	lea    -0xc08(%rbp),%rax
   1b36a:	48 89 85 c0 f9 ff ff 	mov    %rax,-0x640(%rbp)
   1b371:	48 8d 85 f8 f3 ff ff 	lea    -0xc08(%rbp),%rax
   1b378:	48 89 85 c8 f9 ff ff 	mov    %rax,-0x638(%rbp)
   1b37f:	48 8d 85 f8 f3 ff ff 	lea    -0xc08(%rbp),%rax
   1b386:	48 89 85 d0 f9 ff ff 	mov    %rax,-0x630(%rbp)
   1b38d:	48 c7 85 d8 f9 ff ff 	movq   $0x0,-0x628(%rbp)
   1b394:	00 00 00 00 
   1b398:	48 c7 85 e0 f9 ff ff 	movq   $0x0,-0x620(%rbp)
   1b39f:	00 00 00 00 
   1b3a3:	48 8d 85 f8 f3 ff ff 	lea    -0xc08(%rbp),%rax
   1b3aa:	48 89 85 e8 f9 ff ff 	mov    %rax,-0x618(%rbp)
   1b3b1:	48 8d 85 f8 f3 ff ff 	lea    -0xc08(%rbp),%rax
   1b3b8:	48 89 85 f0 f9 ff ff 	mov    %rax,-0x610(%rbp)
   1b3bf:	48 c7 85 f8 f9 ff ff 	movq   $0x0,-0x608(%rbp)
   1b3c6:	00 00 00 00 
   1b3ca:	48 8d 85 f8 f3 ff ff 	lea    -0xc08(%rbp),%rax
   1b3d1:	48 89 85 00 fa ff ff 	mov    %rax,-0x600(%rbp)
   1b3d8:	48 8d 85 f8 f3 ff ff 	lea    -0xc08(%rbp),%rax
   1b3df:	48 89 85 08 fa ff ff 	mov    %rax,-0x5f8(%rbp)
   1b3e6:	48 8d 85 f8 f3 ff ff 	lea    -0xc08(%rbp),%rax
   1b3ed:	48 89 85 10 fa ff ff 	mov    %rax,-0x5f0(%rbp)
   1b3f4:	48 8d 85 f8 f3 ff ff 	lea    -0xc08(%rbp),%rax
   1b3fb:	48 89 85 18 fa ff ff 	mov    %rax,-0x5e8(%rbp)
   1b402:	48 c7 85 20 fa ff ff 	movq   $0x0,-0x5e0(%rbp)
   1b409:	00 00 00 00 
   1b40d:	48 8d 85 f8 f3 ff ff 	lea    -0xc08(%rbp),%rax
   1b414:	48 89 85 28 fa ff ff 	mov    %rax,-0x5d8(%rbp)
   1b41b:	48 8d 85 f8 f3 ff ff 	lea    -0xc08(%rbp),%rax
   1b422:	48 89 85 30 fa ff ff 	mov    %rax,-0x5d0(%rbp)
   1b429:	48 8d 85 f8 f3 ff ff 	lea    -0xc08(%rbp),%rax
   1b430:	48 89 85 38 fa ff ff 	mov    %rax,-0x5c8(%rbp)
   1b437:	48 8d 85 f8 f3 ff ff 	lea    -0xc08(%rbp),%rax
   1b43e:	48 89 85 40 fa ff ff 	mov    %rax,-0x5c0(%rbp)
   1b445:	48 8d 85 f8 f3 ff ff 	lea    -0xc08(%rbp),%rax
   1b44c:	48 89 85 48 fa ff ff 	mov    %rax,-0x5b8(%rbp)
   1b453:	48 8d 85 f8 f3 ff ff 	lea    -0xc08(%rbp),%rax
   1b45a:	48 89 85 50 fa ff ff 	mov    %rax,-0x5b0(%rbp)
   1b461:	48 8d 85 f8 f3 ff ff 	lea    -0xc08(%rbp),%rax
   1b468:	48 89 85 58 fa ff ff 	mov    %rax,-0x5a8(%rbp)
   1b46f:	48 c7 85 60 fa ff ff 	movq   $0x0,-0x5a0(%rbp)
   1b476:	00 00 00 00 
   1b47a:	48 c7 85 68 fa ff ff 	movq   $0x0,-0x598(%rbp)
   1b481:	00 00 00 00 
   1b485:	48 c7 85 70 fa ff ff 	movq   $0x0,-0x590(%rbp)
   1b48c:	00 00 00 00 
   1b490:	48 8d 85 f8 f3 ff ff 	lea    -0xc08(%rbp),%rax
   1b497:	48 89 85 78 fa ff ff 	mov    %rax,-0x588(%rbp)
   1b49e:	48 8d 85 f8 f3 ff ff 	lea    -0xc08(%rbp),%rax
   1b4a5:	48 89 85 80 fa ff ff 	mov    %rax,-0x580(%rbp)
   1b4ac:	48 8d 85 f8 f3 ff ff 	lea    -0xc08(%rbp),%rax
   1b4b3:	48 89 85 88 fa ff ff 	mov    %rax,-0x578(%rbp)
   1b4ba:	48 8d 85 f8 f3 ff ff 	lea    -0xc08(%rbp),%rax
   1b4c1:	48 89 85 90 fa ff ff 	mov    %rax,-0x570(%rbp)
   1b4c8:	48 c7 85 98 fa ff ff 	movq   $0x0,-0x568(%rbp)
   1b4cf:	00 00 00 00 
   1b4d3:	48 8d 85 f8 f3 ff ff 	lea    -0xc08(%rbp),%rax
   1b4da:	48 89 85 a0 fa ff ff 	mov    %rax,-0x560(%rbp)
   1b4e1:	48 8d 85 f8 f3 ff ff 	lea    -0xc08(%rbp),%rax
   1b4e8:	48 89 85 a8 fa ff ff 	mov    %rax,-0x558(%rbp)
   1b4ef:	48 c7 85 b0 fa ff ff 	movq   $0x0,-0x550(%rbp)
   1b4f6:	00 00 00 00 
   1b4fa:	48 8d 85 f8 f3 ff ff 	lea    -0xc08(%rbp),%rax
   1b501:	48 89 85 b8 fa ff ff 	mov    %rax,-0x548(%rbp)
   1b508:	48 c7 85 c0 fa ff ff 	movq   $0x0,-0x540(%rbp)
   1b50f:	00 00 00 00 
   1b513:	48 8d 85 f8 f3 ff ff 	lea    -0xc08(%rbp),%rax
   1b51a:	48 89 85 c8 fa ff ff 	mov    %rax,-0x538(%rbp)
   1b521:	48 c7 85 d0 fa ff ff 	movq   $0x0,-0x530(%rbp)
   1b528:	00 00 00 00 
   1b52c:	48 8d 85 f8 f3 ff ff 	lea    -0xc08(%rbp),%rax
   1b533:	48 89 85 d8 fa ff ff 	mov    %rax,-0x528(%rbp)
   1b53a:	48 8d 85 f8 f3 ff ff 	lea    -0xc08(%rbp),%rax
   1b541:	48 89 85 e0 fa ff ff 	mov    %rax,-0x520(%rbp)
   1b548:	48 8d 85 f8 f3 ff ff 	lea    -0xc08(%rbp),%rax
   1b54f:	48 89 85 e8 fa ff ff 	mov    %rax,-0x518(%rbp)
   1b556:	48 8d 85 f8 f3 ff ff 	lea    -0xc08(%rbp),%rax
   1b55d:	48 89 85 f0 fa ff ff 	mov    %rax,-0x510(%rbp)
   1b564:	48 8d 85 f8 f3 ff ff 	lea    -0xc08(%rbp),%rax
   1b56b:	48 89 85 f8 fa ff ff 	mov    %rax,-0x508(%rbp)
   1b572:	48 8d 85 f8 f3 ff ff 	lea    -0xc08(%rbp),%rax
   1b579:	48 89 85 00 fb ff ff 	mov    %rax,-0x500(%rbp)
   1b580:	48 8d 85 f8 f3 ff ff 	lea    -0xc08(%rbp),%rax
   1b587:	48 89 85 08 fb ff ff 	mov    %rax,-0x4f8(%rbp)
   1b58e:	48 8d 85 f8 f3 ff ff 	lea    -0xc08(%rbp),%rax
   1b595:	48 89 85 10 fb ff ff 	mov    %rax,-0x4f0(%rbp)
   1b59c:	48 8d 85 f8 f3 ff ff 	lea    -0xc08(%rbp),%rax
   1b5a3:	48 89 85 18 fb ff ff 	mov    %rax,-0x4e8(%rbp)
   1b5aa:	48 8d 85 f8 f3 ff ff 	lea    -0xc08(%rbp),%rax
   1b5b1:	48 89 85 20 fb ff ff 	mov    %rax,-0x4e0(%rbp)
   1b5b8:	48 8d 85 f8 f3 ff ff 	lea    -0xc08(%rbp),%rax
   1b5bf:	48 89 85 28 fb ff ff 	mov    %rax,-0x4d8(%rbp)
   1b5c6:	48 8d 85 f8 f3 ff ff 	lea    -0xc08(%rbp),%rax
   1b5cd:	48 89 85 30 fb ff ff 	mov    %rax,-0x4d0(%rbp)
   1b5d4:	48 8d 85 f8 f3 ff ff 	lea    -0xc08(%rbp),%rax
   1b5db:	48 89 85 38 fb ff ff 	mov    %rax,-0x4c8(%rbp)
   1b5e2:	48 8d 85 f8 f3 ff ff 	lea    -0xc08(%rbp),%rax
   1b5e9:	48 89 85 40 fb ff ff 	mov    %rax,-0x4c0(%rbp)
   1b5f0:	48 8d 85 f8 f3 ff ff 	lea    -0xc08(%rbp),%rax
   1b5f7:	48 89 85 48 fb ff ff 	mov    %rax,-0x4b8(%rbp)
   1b5fe:	48 8d 85 f8 f3 ff ff 	lea    -0xc08(%rbp),%rax
   1b605:	48 89 85 50 fb ff ff 	mov    %rax,-0x4b0(%rbp)
   1b60c:	48 c7 85 58 fb ff ff 	movq   $0x0,-0x4a8(%rbp)
   1b613:	00 00 00 00 
   1b617:	48 8d 85 f8 f3 ff ff 	lea    -0xc08(%rbp),%rax
   1b61e:	48 89 85 60 fb ff ff 	mov    %rax,-0x4a0(%rbp)
   1b625:	48 8d 85 f8 f3 ff ff 	lea    -0xc08(%rbp),%rax
   1b62c:	48 89 85 68 fb ff ff 	mov    %rax,-0x498(%rbp)
   1b633:	48 8d 85 f8 f3 ff ff 	lea    -0xc08(%rbp),%rax
   1b63a:	48 89 85 70 fb ff ff 	mov    %rax,-0x490(%rbp)
   1b641:	48 8d 85 f8 f3 ff ff 	lea    -0xc08(%rbp),%rax
   1b648:	48 89 85 78 fb ff ff 	mov    %rax,-0x488(%rbp)
   1b64f:	48 8d 85 f8 f3 ff ff 	lea    -0xc08(%rbp),%rax
   1b656:	48 89 85 80 fb ff ff 	mov    %rax,-0x480(%rbp)
   1b65d:	48 8d 85 f8 f3 ff ff 	lea    -0xc08(%rbp),%rax
   1b664:	48 89 85 88 fb ff ff 	mov    %rax,-0x478(%rbp)
   1b66b:	48 8d 85 f8 f3 ff ff 	lea    -0xc08(%rbp),%rax
   1b672:	48 89 85 90 fb ff ff 	mov    %rax,-0x470(%rbp)
   1b679:	48 8d 85 f8 f3 ff ff 	lea    -0xc08(%rbp),%rax
   1b680:	48 89 85 98 fb ff ff 	mov    %rax,-0x468(%rbp)
   1b687:	48 8d 85 f8 f3 ff ff 	lea    -0xc08(%rbp),%rax
   1b68e:	48 89 85 a0 fb ff ff 	mov    %rax,-0x460(%rbp)
   1b695:	48 8d 85 f8 f3 ff ff 	lea    -0xc08(%rbp),%rax
   1b69c:	48 89 85 a8 fb ff ff 	mov    %rax,-0x458(%rbp)
   1b6a3:	48 c7 85 b0 fb ff ff 	movq   $0x0,-0x450(%rbp)
   1b6aa:	00 00 00 00 
   1b6ae:	48 c7 85 b8 fb ff ff 	movq   $0x0,-0x448(%rbp)
   1b6b5:	00 00 00 00 
   1b6b9:	48 8d 85 f8 f3 ff ff 	lea    -0xc08(%rbp),%rax
   1b6c0:	48 89 85 c0 fb ff ff 	mov    %rax,-0x440(%rbp)
   1b6c7:	48 8d 85 f8 f3 ff ff 	lea    -0xc08(%rbp),%rax
   1b6ce:	48 89 85 c8 fb ff ff 	mov    %rax,-0x438(%rbp)
   1b6d5:	48 c7 85 d0 fb ff ff 	movq   $0x0,-0x430(%rbp)
   1b6dc:	00 00 00 00 
   1b6e0:	48 8d 85 f8 f3 ff ff 	lea    -0xc08(%rbp),%rax
   1b6e7:	48 89 85 d8 fb ff ff 	mov    %rax,-0x428(%rbp)
   1b6ee:	48 8d 85 f8 f3 ff ff 	lea    -0xc08(%rbp),%rax
   1b6f5:	48 89 85 e0 fb ff ff 	mov    %rax,-0x420(%rbp)
   1b6fc:	48 8d 85 f8 f3 ff ff 	lea    -0xc08(%rbp),%rax
   1b703:	48 89 85 e8 fb ff ff 	mov    %rax,-0x418(%rbp)
   1b70a:	48 8d 85 f8 f3 ff ff 	lea    -0xc08(%rbp),%rax
   1b711:	48 89 85 f0 fb ff ff 	mov    %rax,-0x410(%rbp)
   1b718:	48 8d 85 f8 f3 ff ff 	lea    -0xc08(%rbp),%rax
   1b71f:	48 89 85 f8 fb ff ff 	mov    %rax,-0x408(%rbp)
   1b726:	48 c7 85 00 fc ff ff 	movq   $0x0,-0x400(%rbp)
   1b72d:	00 00 00 00 
   1b731:	48 8d 85 f8 f3 ff ff 	lea    -0xc08(%rbp),%rax
   1b738:	48 89 85 08 fc ff ff 	mov    %rax,-0x3f8(%rbp)
   1b73f:	48 8d 85 f8 f3 ff ff 	lea    -0xc08(%rbp),%rax
   1b746:	48 89 85 10 fc ff ff 	mov    %rax,-0x3f0(%rbp)
   1b74d:	48 c7 85 18 fc ff ff 	movq   $0x0,-0x3e8(%rbp)
   1b754:	00 00 00 00 
   1b758:	48 8d 85 f8 f3 ff ff 	lea    -0xc08(%rbp),%rax
   1b75f:	48 89 85 20 fc ff ff 	mov    %rax,-0x3e0(%rbp)
   1b766:	48 8d 85 f8 f3 ff ff 	lea    -0xc08(%rbp),%rax
   1b76d:	48 89 85 28 fc ff ff 	mov    %rax,-0x3d8(%rbp)
   1b774:	48 8d 85 f8 f3 ff ff 	lea    -0xc08(%rbp),%rax
   1b77b:	48 89 85 30 fc ff ff 	mov    %rax,-0x3d0(%rbp)
   1b782:	48 8d 85 f8 f3 ff ff 	lea    -0xc08(%rbp),%rax
   1b789:	48 89 85 38 fc ff ff 	mov    %rax,-0x3c8(%rbp)
   1b790:	48 8d 85 f8 f3 ff ff 	lea    -0xc08(%rbp),%rax
   1b797:	48 89 85 40 fc ff ff 	mov    %rax,-0x3c0(%rbp)
   1b79e:	48 8d 85 f8 f3 ff ff 	lea    -0xc08(%rbp),%rax
   1b7a5:	48 89 85 48 fc ff ff 	mov    %rax,-0x3b8(%rbp)
   1b7ac:	48 8d 85 f8 f3 ff ff 	lea    -0xc08(%rbp),%rax
   1b7b3:	48 89 85 50 fc ff ff 	mov    %rax,-0x3b0(%rbp)
   1b7ba:	48 8d 85 f8 f3 ff ff 	lea    -0xc08(%rbp),%rax
   1b7c1:	48 89 85 58 fc ff ff 	mov    %rax,-0x3a8(%rbp)
   1b7c8:	48 8d 85 f8 f3 ff ff 	lea    -0xc08(%rbp),%rax
   1b7cf:	48 89 85 60 fc ff ff 	mov    %rax,-0x3a0(%rbp)
   1b7d6:	48 8d 85 f8 f3 ff ff 	lea    -0xc08(%rbp),%rax
   1b7dd:	48 89 85 68 fc ff ff 	mov    %rax,-0x398(%rbp)
   1b7e4:	48 8d 85 f8 f3 ff ff 	lea    -0xc08(%rbp),%rax
   1b7eb:	48 89 85 70 fc ff ff 	mov    %rax,-0x390(%rbp)
   1b7f2:	48 8d 85 f8 f3 ff ff 	lea    -0xc08(%rbp),%rax
   1b7f9:	48 89 85 78 fc ff ff 	mov    %rax,-0x388(%rbp)
   1b800:	48 c7 85 80 fc ff ff 	movq   $0x0,-0x380(%rbp)
   1b807:	00 00 00 00 
   1b80b:	48 c7 85 88 fc ff ff 	movq   $0x0,-0x378(%rbp)
   1b812:	00 00 00 00 
   1b816:	48 8d 85 f8 f3 ff ff 	lea    -0xc08(%rbp),%rax
   1b81d:	48 89 85 90 fc ff ff 	mov    %rax,-0x370(%rbp)
   1b824:	48 8d 85 f8 f3 ff ff 	lea    -0xc08(%rbp),%rax
   1b82b:	48 89 85 98 fc ff ff 	mov    %rax,-0x368(%rbp)
   1b832:	48 8d 85 f8 f3 ff ff 	lea    -0xc08(%rbp),%rax
   1b839:	48 89 85 a0 fc ff ff 	mov    %rax,-0x360(%rbp)
   1b840:	48 8d 85 f8 f3 ff ff 	lea    -0xc08(%rbp),%rax
   1b847:	48 89 85 a8 fc ff ff 	mov    %rax,-0x358(%rbp)
   1b84e:	48 8d 85 f8 f3 ff ff 	lea    -0xc08(%rbp),%rax
   1b855:	48 89 85 b0 fc ff ff 	mov    %rax,-0x350(%rbp)
   1b85c:	48 8d 85 f8 f3 ff ff 	lea    -0xc08(%rbp),%rax
   1b863:	48 89 85 b8 fc ff ff 	mov    %rax,-0x348(%rbp)
   1b86a:	48 c7 85 c0 fc ff ff 	movq   $0x0,-0x340(%rbp)
   1b871:	00 00 00 00 
   1b875:	48 8d 85 f8 f3 ff ff 	lea    -0xc08(%rbp),%rax
   1b87c:	48 89 85 c8 fc ff ff 	mov    %rax,-0x338(%rbp)
   1b883:	48 8d 85 f8 f3 ff ff 	lea    -0xc08(%rbp),%rax
   1b88a:	48 89 85 d0 fc ff ff 	mov    %rax,-0x330(%rbp)
   1b891:	48 8d 85 f8 f3 ff ff 	lea    -0xc08(%rbp),%rax
   1b898:	48 89 85 d8 fc ff ff 	mov    %rax,-0x328(%rbp)
   1b89f:	48 c7 85 e0 fc ff ff 	movq   $0x0,-0x320(%rbp)
   1b8a6:	00 00 00 00 
   1b8aa:	48 8d 85 f8 f3 ff ff 	lea    -0xc08(%rbp),%rax
   1b8b1:	48 89 85 e8 fc ff ff 	mov    %rax,-0x318(%rbp)
   1b8b8:	48 8d 85 f8 f3 ff ff 	lea    -0xc08(%rbp),%rax
   1b8bf:	48 89 85 f0 fc ff ff 	mov    %rax,-0x310(%rbp)
   1b8c6:	48 8d 85 f8 f3 ff ff 	lea    -0xc08(%rbp),%rax
   1b8cd:	48 89 85 f8 fc ff ff 	mov    %rax,-0x308(%rbp)
   1b8d4:	48 8d 85 f8 f3 ff ff 	lea    -0xc08(%rbp),%rax
   1b8db:	48 89 85 00 fd ff ff 	mov    %rax,-0x300(%rbp)
   1b8e2:	48 8d 85 f8 f3 ff ff 	lea    -0xc08(%rbp),%rax
   1b8e9:	48 89 85 08 fd ff ff 	mov    %rax,-0x2f8(%rbp)
   1b8f0:	48 8d 85 f8 f3 ff ff 	lea    -0xc08(%rbp),%rax
   1b8f7:	48 89 85 10 fd ff ff 	mov    %rax,-0x2f0(%rbp)
   1b8fe:	48 8d 85 f8 f3 ff ff 	lea    -0xc08(%rbp),%rax
   1b905:	48 89 85 18 fd ff ff 	mov    %rax,-0x2e8(%rbp)
   1b90c:	48 8d 85 f8 f3 ff ff 	lea    -0xc08(%rbp),%rax
   1b913:	48 89 85 20 fd ff ff 	mov    %rax,-0x2e0(%rbp)
   1b91a:	48 8d 85 f8 f3 ff ff 	lea    -0xc08(%rbp),%rax
   1b921:	48 89 85 28 fd ff ff 	mov    %rax,-0x2d8(%rbp)
   1b928:	48 8d 85 f8 f3 ff ff 	lea    -0xc08(%rbp),%rax
   1b92f:	48 89 85 30 fd ff ff 	mov    %rax,-0x2d0(%rbp)
   1b936:	48 8d 85 f8 f3 ff ff 	lea    -0xc08(%rbp),%rax
   1b93d:	48 89 85 38 fd ff ff 	mov    %rax,-0x2c8(%rbp)
   1b944:	48 8d 85 f8 f3 ff ff 	lea    -0xc08(%rbp),%rax
   1b94b:	48 89 85 40 fd ff ff 	mov    %rax,-0x2c0(%rbp)
   1b952:	48 8d 85 f8 f3 ff ff 	lea    -0xc08(%rbp),%rax
   1b959:	48 89 85 48 fd ff ff 	mov    %rax,-0x2b8(%rbp)
   1b960:	48 8d 85 f8 f3 ff ff 	lea    -0xc08(%rbp),%rax
   1b967:	48 89 85 50 fd ff ff 	mov    %rax,-0x2b0(%rbp)
   1b96e:	48 c7 85 58 fd ff ff 	movq   $0x0,-0x2a8(%rbp)
   1b975:	00 00 00 00 
   1b979:	48 8d 85 f8 f3 ff ff 	lea    -0xc08(%rbp),%rax
   1b980:	48 89 85 60 fd ff ff 	mov    %rax,-0x2a0(%rbp)
   1b987:	48 c7 85 68 fd ff ff 	movq   $0x0,-0x298(%rbp)
   1b98e:	00 00 00 00 
   1b992:	48 c7 85 70 fd ff ff 	movq   $0x0,-0x290(%rbp)
   1b999:	00 00 00 00 
   1b99d:	48 8d 85 f8 f3 ff ff 	lea    -0xc08(%rbp),%rax
   1b9a4:	48 89 85 78 fd ff ff 	mov    %rax,-0x288(%rbp)
   1b9ab:	48 c7 85 80 fd ff ff 	movq   $0x0,-0x280(%rbp)
   1b9b2:	00 00 00 00 
   1b9b6:	48 8d 85 f8 f3 ff ff 	lea    -0xc08(%rbp),%rax
   1b9bd:	48 89 85 88 fd ff ff 	mov    %rax,-0x278(%rbp)
   1b9c4:	48 8d 85 f8 f3 ff ff 	lea    -0xc08(%rbp),%rax
   1b9cb:	48 89 85 90 fd ff ff 	mov    %rax,-0x270(%rbp)
   1b9d2:	48 8d 85 f8 f3 ff ff 	lea    -0xc08(%rbp),%rax
   1b9d9:	48 89 85 98 fd ff ff 	mov    %rax,-0x268(%rbp)
   1b9e0:	48 8d 85 f8 f3 ff ff 	lea    -0xc08(%rbp),%rax
   1b9e7:	48 89 85 a0 fd ff ff 	mov    %rax,-0x260(%rbp)
   1b9ee:	48 8d 85 f8 f3 ff ff 	lea    -0xc08(%rbp),%rax
   1b9f5:	48 89 85 a8 fd ff ff 	mov    %rax,-0x258(%rbp)
   1b9fc:	48 c7 85 b0 fd ff ff 	movq   $0x0,-0x250(%rbp)
   1ba03:	00 00 00 00 
   1ba07:	48 8d 85 f8 f3 ff ff 	lea    -0xc08(%rbp),%rax
   1ba0e:	48 89 85 b8 fd ff ff 	mov    %rax,-0x248(%rbp)
   1ba15:	48 8d 85 f8 f3 ff ff 	lea    -0xc08(%rbp),%rax
   1ba1c:	48 89 85 c0 fd ff ff 	mov    %rax,-0x240(%rbp)
   1ba23:	48 c7 85 c8 fd ff ff 	movq   $0x0,-0x238(%rbp)
   1ba2a:	00 00 00 00 
   1ba2e:	48 8d 85 f8 f3 ff ff 	lea    -0xc08(%rbp),%rax
   1ba35:	48 89 85 d0 fd ff ff 	mov    %rax,-0x230(%rbp)
   1ba3c:	48 8d 85 f8 f3 ff ff 	lea    -0xc08(%rbp),%rax
   1ba43:	48 89 85 d8 fd ff ff 	mov    %rax,-0x228(%rbp)
   1ba4a:	48 8d 85 f8 f3 ff ff 	lea    -0xc08(%rbp),%rax
   1ba51:	48 89 85 e0 fd ff ff 	mov    %rax,-0x220(%rbp)
   1ba58:	48 8d 85 f8 f3 ff ff 	lea    -0xc08(%rbp),%rax
   1ba5f:	48 89 85 e8 fd ff ff 	mov    %rax,-0x218(%rbp)
   1ba66:	48 8d 85 f8 f3 ff ff 	lea    -0xc08(%rbp),%rax
   1ba6d:	48 89 85 f0 fd ff ff 	mov    %rax,-0x210(%rbp)
   1ba74:	48 8d 85 f8 f3 ff ff 	lea    -0xc08(%rbp),%rax
   1ba7b:	48 89 85 f8 fd ff ff 	mov    %rax,-0x208(%rbp)
   1ba82:	48 8d 85 f8 f3 ff ff 	lea    -0xc08(%rbp),%rax
   1ba89:	48 89 85 00 fe ff ff 	mov    %rax,-0x200(%rbp)
   1ba90:	48 8d 85 f8 f3 ff ff 	lea    -0xc08(%rbp),%rax
   1ba97:	48 89 85 08 fe ff ff 	mov    %rax,-0x1f8(%rbp)
   1ba9e:	48 8d 85 f8 f3 ff ff 	lea    -0xc08(%rbp),%rax
   1baa5:	48 89 85 10 fe ff ff 	mov    %rax,-0x1f0(%rbp)
   1baac:	48 8d 85 f8 f3 ff ff 	lea    -0xc08(%rbp),%rax
   1bab3:	48 89 85 18 fe ff ff 	mov    %rax,-0x1e8(%rbp)
   1baba:	48 8d 85 f8 f3 ff ff 	lea    -0xc08(%rbp),%rax
   1bac1:	48 89 85 20 fe ff ff 	mov    %rax,-0x1e0(%rbp)
   1bac8:	48 c7 85 28 fe ff ff 	movq   $0x0,-0x1d8(%rbp)
   1bacf:	00 00 00 00 
   1bad3:	48 c7 85 30 fe ff ff 	movq   $0x0,-0x1d0(%rbp)
   1bada:	00 00 00 00 
   1bade:	48 8d 85 f8 f3 ff ff 	lea    -0xc08(%rbp),%rax
   1bae5:	48 89 85 38 fe ff ff 	mov    %rax,-0x1c8(%rbp)
   1baec:	48 8d 85 f8 f3 ff ff 	lea    -0xc08(%rbp),%rax
   1baf3:	48 89 85 40 fe ff ff 	mov    %rax,-0x1c0(%rbp)
   1bafa:	48 8d 85 f8 f3 ff ff 	lea    -0xc08(%rbp),%rax
   1bb01:	48 89 85 48 fe ff ff 	mov    %rax,-0x1b8(%rbp)
   1bb08:	48 8d 85 f8 f3 ff ff 	lea    -0xc08(%rbp),%rax
   1bb0f:	48 89 85 50 fe ff ff 	mov    %rax,-0x1b0(%rbp)
   1bb16:	48 8d 85 f8 f3 ff ff 	lea    -0xc08(%rbp),%rax
   1bb1d:	48 89 85 58 fe ff ff 	mov    %rax,-0x1a8(%rbp)
   1bb24:	48 8d 85 f8 f3 ff ff 	lea    -0xc08(%rbp),%rax
   1bb2b:	48 89 85 60 fe ff ff 	mov    %rax,-0x1a0(%rbp)
   1bb32:	48 8d 85 f8 f3 ff ff 	lea    -0xc08(%rbp),%rax
   1bb39:	48 89 85 68 fe ff ff 	mov    %rax,-0x198(%rbp)
   1bb40:	48 8d 85 f8 f3 ff ff 	lea    -0xc08(%rbp),%rax
   1bb47:	48 89 85 70 fe ff ff 	mov    %rax,-0x190(%rbp)
   1bb4e:	48 c7 85 78 fe ff ff 	movq   $0x0,-0x188(%rbp)
   1bb55:	00 00 00 00 
   1bb59:	48 8d 85 f8 f3 ff ff 	lea    -0xc08(%rbp),%rax
   1bb60:	48 89 85 80 fe ff ff 	mov    %rax,-0x180(%rbp)
   1bb67:	48 8d 85 f8 f3 ff ff 	lea    -0xc08(%rbp),%rax
   1bb6e:	48 89 85 88 fe ff ff 	mov    %rax,-0x178(%rbp)
   1bb75:	48 8d 85 f8 f3 ff ff 	lea    -0xc08(%rbp),%rax
   1bb7c:	48 89 85 90 fe ff ff 	mov    %rax,-0x170(%rbp)
   1bb83:	48 8d 85 f8 f3 ff ff 	lea    -0xc08(%rbp),%rax
   1bb8a:	48 89 85 98 fe ff ff 	mov    %rax,-0x168(%rbp)
   1bb91:	48 8d 85 f8 f3 ff ff 	lea    -0xc08(%rbp),%rax
   1bb98:	48 89 85 a0 fe ff ff 	mov    %rax,-0x160(%rbp)
   1bb9f:	48 c7 85 a8 fe ff ff 	movq   $0x0,-0x158(%rbp)
   1bba6:	00 00 00 00 
   1bbaa:	48 8d 85 f8 f3 ff ff 	lea    -0xc08(%rbp),%rax
   1bbb1:	48 89 85 b0 fe ff ff 	mov    %rax,-0x150(%rbp)
   1bbb8:	48 c7 85 b8 fe ff ff 	movq   $0x0,-0x148(%rbp)
   1bbbf:	00 00 00 00 
   1bbc3:	48 8d 85 f8 f3 ff ff 	lea    -0xc08(%rbp),%rax
   1bbca:	48 89 85 c0 fe ff ff 	mov    %rax,-0x140(%rbp)
   1bbd1:	48 8d 85 f8 f3 ff ff 	lea    -0xc08(%rbp),%rax
   1bbd8:	48 89 85 c8 fe ff ff 	mov    %rax,-0x138(%rbp)
   1bbdf:	48 c7 85 d0 fe ff ff 	movq   $0x0,-0x130(%rbp)
   1bbe6:	00 00 00 00 
   1bbea:	48 8d 85 f8 f3 ff ff 	lea    -0xc08(%rbp),%rax
   1bbf1:	48 89 85 d8 fe ff ff 	mov    %rax,-0x128(%rbp)
   1bbf8:	48 8d 85 f8 f3 ff ff 	lea    -0xc08(%rbp),%rax
   1bbff:	48 89 85 e0 fe ff ff 	mov    %rax,-0x120(%rbp)
   1bc06:	48 8d 85 f8 f3 ff ff 	lea    -0xc08(%rbp),%rax
   1bc0d:	48 89 85 e8 fe ff ff 	mov    %rax,-0x118(%rbp)
   1bc14:	48 c7 85 f0 fe ff ff 	movq   $0x0,-0x110(%rbp)
   1bc1b:	00 00 00 00 
   1bc1f:	48 8d 85 f8 f3 ff ff 	lea    -0xc08(%rbp),%rax
   1bc26:	48 89 85 f8 fe ff ff 	mov    %rax,-0x108(%rbp)
   1bc2d:	48 c7 85 00 ff ff ff 	movq   $0x0,-0x100(%rbp)
   1bc34:	00 00 00 00 
   1bc38:	48 8d 85 f8 f3 ff ff 	lea    -0xc08(%rbp),%rax
   1bc3f:	48 89 85 08 ff ff ff 	mov    %rax,-0xf8(%rbp)
   1bc46:	48 8d 85 f8 f3 ff ff 	lea    -0xc08(%rbp),%rax
   1bc4d:	48 89 85 10 ff ff ff 	mov    %rax,-0xf0(%rbp)
   1bc54:	48 8d 85 f8 f3 ff ff 	lea    -0xc08(%rbp),%rax
   1bc5b:	48 89 85 18 ff ff ff 	mov    %rax,-0xe8(%rbp)
   1bc62:	48 8d 85 f8 f3 ff ff 	lea    -0xc08(%rbp),%rax
   1bc69:	48 89 85 20 ff ff ff 	mov    %rax,-0xe0(%rbp)
   1bc70:	48 8d 85 f8 f3 ff ff 	lea    -0xc08(%rbp),%rax
   1bc77:	48 89 85 28 ff ff ff 	mov    %rax,-0xd8(%rbp)
   1bc7e:	48 8d 85 f8 f3 ff ff 	lea    -0xc08(%rbp),%rax
   1bc85:	48 89 85 30 ff ff ff 	mov    %rax,-0xd0(%rbp)
   1bc8c:	48 c7 85 38 ff ff ff 	movq   $0x0,-0xc8(%rbp)
   1bc93:	00 00 00 00 
   1bc97:	48 8d 85 f8 f3 ff ff 	lea    -0xc08(%rbp),%rax
   1bc9e:	48 89 85 40 ff ff ff 	mov    %rax,-0xc0(%rbp)
   1bca5:	48 8d 85 f8 f3 ff ff 	lea    -0xc08(%rbp),%rax
   1bcac:	48 89 85 48 ff ff ff 	mov    %rax,-0xb8(%rbp)
   1bcb3:	48 8d 85 f8 f3 ff ff 	lea    -0xc08(%rbp),%rax
   1bcba:	48 89 85 50 ff ff ff 	mov    %rax,-0xb0(%rbp)
   1bcc1:	48 c7 85 58 ff ff ff 	movq   $0x0,-0xa8(%rbp)
   1bcc8:	00 00 00 00 
   1bccc:	48 8d 85 f8 f3 ff ff 	lea    -0xc08(%rbp),%rax
   1bcd3:	48 89 85 60 ff ff ff 	mov    %rax,-0xa0(%rbp)
   1bcda:	48 c7 85 68 ff ff ff 	movq   $0x0,-0x98(%rbp)
   1bce1:	00 00 00 00 
   1bce5:	48 8d 85 f8 f3 ff ff 	lea    -0xc08(%rbp),%rax
   1bcec:	48 89 85 70 ff ff ff 	mov    %rax,-0x90(%rbp)
   1bcf3:	48 c7 85 78 ff ff ff 	movq   $0x0,-0x88(%rbp)
   1bcfa:	00 00 00 00 
   1bcfe:	48 c7 45 80 00 00 00 	movq   $0x0,-0x80(%rbp)
   1bd05:	00 
   1bd06:	48 8d 85 f8 f3 ff ff 	lea    -0xc08(%rbp),%rax
   1bd0d:	48 89 45 88          	mov    %rax,-0x78(%rbp)
   1bd11:	48 8d 85 f8 f3 ff ff 	lea    -0xc08(%rbp),%rax
   1bd18:	48 89 45 90          	mov    %rax,-0x70(%rbp)
   1bd1c:	48 8d 85 f8 f3 ff ff 	lea    -0xc08(%rbp),%rax
   1bd23:	48 89 45 98          	mov    %rax,-0x68(%rbp)
   1bd27:	48 8d 85 f8 f3 ff ff 	lea    -0xc08(%rbp),%rax
   1bd2e:	48 89 45 a0          	mov    %rax,-0x60(%rbp)
   1bd32:	48 8d 85 f8 f3 ff ff 	lea    -0xc08(%rbp),%rax
   1bd39:	48 89 45 a8          	mov    %rax,-0x58(%rbp)
   1bd3d:	48 8d 85 f8 f3 ff ff 	lea    -0xc08(%rbp),%rax
   1bd44:	48 89 45 b0          	mov    %rax,-0x50(%rbp)
   1bd48:	48 8d 85 f8 f3 ff ff 	lea    -0xc08(%rbp),%rax
   1bd4f:	48 89 45 b8          	mov    %rax,-0x48(%rbp)
   1bd53:	48 8d 85 f8 f3 ff ff 	lea    -0xc08(%rbp),%rax
   1bd5a:	48 89 45 c0          	mov    %rax,-0x40(%rbp)
   1bd5e:	48 8d 85 f8 f3 ff ff 	lea    -0xc08(%rbp),%rax
   1bd65:	48 89 45 c8          	mov    %rax,-0x38(%rbp)
   1bd69:	48 8d 05 40 dc 00 00 	lea    0xdc40(%rip),%rax        # 299b0 <g_145>
   1bd70:	48 89 85 a8 f4 ff ff 	mov    %rax,-0xb58(%rbp)
   1bd77:	c7 85 ec f3 ff ff 00 	movl   $0x0,-0xc14(%rbp)
   1bd7e:	00 00 00 
   1bd81:	c7 85 40 f6 ff ff 00 	movl   $0x0,-0x9c0(%rbp)
   1bd88:	00 00 00 
   1bd8b:	c7 85 44 f6 ff ff 05 	movl   $0x5,-0x9bc(%rbp)
   1bd92:	00 00 00 
   1bd95:	c7 85 48 f6 ff ff f8 	movl   $0xfffffff8,-0x9b8(%rbp)
   1bd9c:	ff ff ff 
   1bd9f:	c7 85 4c f6 ff ff 05 	movl   $0x5,-0x9b4(%rbp)
   1bda6:	00 00 00 
   1bda9:	c7 85 50 f6 ff ff 00 	movl   $0x0,-0x9b0(%rbp)
   1bdb0:	00 00 00 
   1bdb3:	c7 85 54 f6 ff ff 05 	movl   $0x5,-0x9ac(%rbp)
   1bdba:	00 00 00 
   1bdbd:	c7 85 58 f6 ff ff f8 	movl   $0xfffffff8,-0x9a8(%rbp)
   1bdc4:	ff ff ff 
   1bdc7:	c7 85 5c f6 ff ff 05 	movl   $0x5,-0x9a4(%rbp)
   1bdce:	00 00 00 
   1bdd1:	c7 85 60 f6 ff ff 00 	movl   $0x0,-0x9a0(%rbp)
   1bdd8:	00 00 00 
   1bddb:	c7 85 64 f6 ff ff 05 	movl   $0x5,-0x99c(%rbp)
   1bde2:	00 00 00 
   1bde5:	c7 85 68 f6 ff ff f8 	movl   $0xfffffff8,-0x998(%rbp)
   1bdec:	ff ff ff 
   1bdef:	c7 85 6c f6 ff ff 05 	movl   $0x5,-0x994(%rbp)
   1bdf6:	00 00 00 
   1bdf9:	c7 85 70 f6 ff ff 00 	movl   $0x0,-0x990(%rbp)
   1be00:	00 00 00 
   1be03:	c7 85 74 f6 ff ff 05 	movl   $0x5,-0x98c(%rbp)
   1be0a:	00 00 00 
   1be0d:	c7 85 78 f6 ff ff f8 	movl   $0xfffffff8,-0x988(%rbp)
   1be14:	ff ff ff 
   1be17:	c7 85 7c f6 ff ff 05 	movl   $0x5,-0x984(%rbp)
   1be1e:	00 00 00 
   1be21:	c7 85 80 f6 ff ff 00 	movl   $0x0,-0x980(%rbp)
   1be28:	00 00 00 
   1be2b:	c7 85 84 f6 ff ff 05 	movl   $0x5,-0x97c(%rbp)
   1be32:	00 00 00 
   1be35:	c7 85 88 f6 ff ff f8 	movl   $0xfffffff8,-0x978(%rbp)
   1be3c:	ff ff ff 
   1be3f:	c7 85 8c f6 ff ff 05 	movl   $0x5,-0x974(%rbp)
   1be46:	00 00 00 
   1be49:	c7 85 90 f6 ff ff 00 	movl   $0x0,-0x970(%rbp)
   1be50:	00 00 00 
   1be53:	c7 85 94 f6 ff ff 05 	movl   $0x5,-0x96c(%rbp)
   1be5a:	00 00 00 
   1be5d:	c7 85 98 f6 ff ff f8 	movl   $0xfffffff8,-0x968(%rbp)
   1be64:	ff ff ff 
   1be67:	c7 85 9c f6 ff ff 05 	movl   $0x5,-0x964(%rbp)
   1be6e:	00 00 00 
   1be71:	c7 85 a0 f6 ff ff 00 	movl   $0x0,-0x960(%rbp)
   1be78:	00 00 00 
   1be7b:	c7 85 a4 f6 ff ff 05 	movl   $0x5,-0x95c(%rbp)
   1be82:	00 00 00 
   1be85:	c7 85 a8 f6 ff ff f8 	movl   $0xfffffff8,-0x958(%rbp)
   1be8c:	ff ff ff 
   1be8f:	c7 85 ac f6 ff ff 05 	movl   $0x5,-0x954(%rbp)
   1be96:	00 00 00 
   1be99:	c7 85 b0 f6 ff ff 00 	movl   $0x0,-0x950(%rbp)
   1bea0:	00 00 00 
   1bea3:	c7 85 b4 f6 ff ff 05 	movl   $0x5,-0x94c(%rbp)
   1beaa:	00 00 00 
   1bead:	c7 85 b8 f6 ff ff f8 	movl   $0xfffffff8,-0x948(%rbp)
   1beb4:	ff ff ff 
   1beb7:	c7 85 bc f6 ff ff 05 	movl   $0x5,-0x944(%rbp)
   1bebe:	00 00 00 
   1bec1:	c7 85 c0 f6 ff ff 00 	movl   $0x0,-0x940(%rbp)
   1bec8:	00 00 00 
   1becb:	c7 85 c4 f6 ff ff 05 	movl   $0x5,-0x93c(%rbp)
   1bed2:	00 00 00 
   1bed5:	c7 85 c8 f6 ff ff f8 	movl   $0xfffffff8,-0x938(%rbp)
   1bedc:	ff ff ff 
   1bedf:	c7 85 cc f6 ff ff 05 	movl   $0x5,-0x934(%rbp)
   1bee6:	00 00 00 
   1bee9:	c7 85 d0 f6 ff ff 00 	movl   $0x0,-0x930(%rbp)
   1bef0:	00 00 00 
   1bef3:	c7 85 d4 f6 ff ff 05 	movl   $0x5,-0x92c(%rbp)
   1befa:	00 00 00 
   1befd:	c7 85 d8 f6 ff ff f8 	movl   $0xfffffff8,-0x928(%rbp)
   1bf04:	ff ff ff 
   1bf07:	c7 85 dc f6 ff ff 05 	movl   $0x5,-0x924(%rbp)
   1bf0e:	00 00 00 
   1bf11:	8b 05 9d 92 00 00    	mov    0x929d(%rip),%eax        # 251b4 <g_213>
   1bf17:	0f b7 d8             	movzwl %ax,%ebx
   1bf1a:	48 8b 85 70 f3 ff ff 	mov    -0xc90(%rbp),%rax
   1bf21:	0f b6 00             	movzbl (%rax),%eax
   1bf24:	0f be c0             	movsbl %al,%eax
   1bf27:	48 c7 05 76 92 00 00 	movq   $0x1,0x9276(%rip)        # 251a8 <g_184>
   1bf2e:	01 00 00 00 
   1bf32:	48 8b 0d 6f 92 00 00 	mov    0x926f(%rip),%rcx        # 251a8 <g_184>
   1bf39:	8b 95 78 f3 ff ff    	mov    -0xc88(%rbp),%edx
   1bf3f:	48 39 d1             	cmp    %rdx,%rcx
   1bf42:	48 8b 95 f8 f3 ff ff 	mov    -0xc08(%rbp),%rdx
   1bf49:	48 89 95 10 f4 ff ff 	mov    %rdx,-0xbf0(%rbp)
   1bf50:	89 c6                	mov    %eax,%esi
   1bf52:	bf 01 00 00 00       	mov    $0x1,%edi
   1bf57:	e8 45 03 ff ff       	callq  c2a1 <safe_lshift_func_int8_t_s_s>
   1bf5c:	0f b7 85 88 f5 ff ff 	movzwl -0xa78(%rbp),%eax
   1bf63:	98                   	cwtl   
   1bf64:	39 85 78 f3 ff ff    	cmp    %eax,-0xc88(%rbp)
   1bf6a:	0f 97 c0             	seta   %al
   1bf6d:	0f b6 c0             	movzbl %al,%eax
   1bf70:	89 de                	mov    %ebx,%esi
   1bf72:	89 c7                	mov    %eax,%edi
   1bf74:	e8 a6 0d ff ff       	callq  cd1f <safe_sub_func_uint16_t_u_u>
   1bf79:	98                   	cwtl   
   1bf7a:	be 01 00 00 00       	mov    $0x1,%esi
   1bf7f:	89 c7                	mov    %eax,%edi
   1bf81:	e8 5b 05 ff ff       	callq  c4e1 <safe_lshift_func_int16_t_s_u>
   1bf86:	0f b7 c0             	movzwl %ax,%eax
   1bf89:	be 20 3d 00 00       	mov    $0x3d20,%esi
   1bf8e:	89 c7                	mov    %eax,%edi
   1bf90:	e8 f9 0d ff ff       	callq  cd8e <safe_div_func_uint16_t_u_u>
   1bf95:	0f b7 c0             	movzwl %ax,%eax
   1bf98:	89 85 28 f6 ff ff    	mov    %eax,-0x9d8(%rbp)
   1bf9e:	48 8b 85 a8 f4 ff ff 	mov    -0xb58(%rbp),%rax
   1bfa5:	8b 00                	mov    (%rax),%eax
   1bfa7:	8d 48 01             	lea    0x1(%rax),%ecx
   1bfaa:	48 8b 95 a8 f4 ff ff 	mov    -0xb58(%rbp),%rdx
   1bfb1:	89 0a                	mov    %ecx,(%rdx)
   1bfb3:	85 c0                	test   %eax,%eax
   1bfb5:	74 07                	je     1bfbe <func_62+0x1823>
   1bfb7:	ba 01 00 00 00       	mov    $0x1,%edx
   1bfbc:	eb 05                	jmp    1bfc3 <func_62+0x1828>
   1bfbe:	ba 00 00 00 00       	mov    $0x0,%edx
   1bfc3:	8b 85 ac f3 ff ff    	mov    -0xc54(%rbp),%eax
   1bfc9:	39 c2                	cmp    %eax,%edx
   1bfcb:	0f 9e c0             	setle  %al
   1bfce:	0f b6 c0             	movzbl %al,%eax
   1bfd1:	89 85 18 f6 ff ff    	mov    %eax,-0x9e8(%rbp)
   1bfd7:	8b 05 df 91 00 00    	mov    0x91df(%rip),%eax        # 251bc <g_248>
   1bfdd:	83 c0 01             	add    $0x1,%eax
   1bfe0:	89 05 d6 91 00 00    	mov    %eax,0x91d6(%rip)        # 251bc <g_248>
   1bfe6:	83 bd 78 f3 ff ff 00 	cmpl   $0x0,-0xc88(%rbp)
   1bfed:	0f 95 c0             	setne  %al
   1bff0:	0f b6 c0             	movzbl %al,%eax
   1bff3:	89 85 ac f3 ff ff    	mov    %eax,-0xc54(%rbp)
   1bff9:	8b 05 89 91 00 00    	mov    0x9189(%rip),%eax        # 25188 <g_98>
   1bfff:	83 c0 01             	add    $0x1,%eax
   1c002:	89 05 80 91 00 00    	mov    %eax,0x9180(%rip)        # 25188 <g_98>
   1c008:	8b 05 7a 91 00 00    	mov    0x917a(%rip),%eax        # 25188 <g_98>
   1c00e:	83 f8 04             	cmp    $0x4,%eax
   1c011:	0f 8e e3 f0 ff ff    	jle    1b0fa <func_62+0x95f>
   1c017:	48 8b 05 5a 91 00 00 	mov    0x915a(%rip),%rax        # 25178 <g_55>
   1c01e:	48 83 e8 01          	sub    $0x1,%rax
   1c022:	48 89 05 4f 91 00 00 	mov    %rax,0x914f(%rip)        # 25178 <g_55>
   1c029:	48 8b 05 48 91 00 00 	mov    0x9148(%rip),%rax        # 25178 <g_55>
   1c030:	48 85 c0             	test   %rax,%rax
   1c033:	0f 89 b2 ed ff ff    	jns    1adeb <func_62+0x650>
   1c039:	e9 1b 0e 00 00       	jmpq   1ce59 <func_62+0x26be>
   1c03e:	48 8d 05 7b 91 00 00 	lea    0x917b(%rip),%rax        # 251c0 <g_266>
   1c045:	48 89 85 e0 f6 ff ff 	mov    %rax,-0x920(%rbp)
   1c04c:	48 8d 05 6d 91 00 00 	lea    0x916d(%rip),%rax        # 251c0 <g_266>
   1c053:	48 89 85 e8 f6 ff ff 	mov    %rax,-0x918(%rbp)
   1c05a:	48 8d 05 5f 91 00 00 	lea    0x915f(%rip),%rax        # 251c0 <g_266>
   1c061:	48 89 85 f0 f6 ff ff 	mov    %rax,-0x910(%rbp)
   1c068:	48 8d 05 51 91 00 00 	lea    0x9151(%rip),%rax        # 251c0 <g_266>
   1c06f:	48 89 85 f8 f6 ff ff 	mov    %rax,-0x908(%rbp)
   1c076:	48 8d 05 43 91 00 00 	lea    0x9143(%rip),%rax        # 251c0 <g_266>
   1c07d:	48 89 85 00 f7 ff ff 	mov    %rax,-0x900(%rbp)
   1c084:	48 8d 05 35 91 00 00 	lea    0x9135(%rip),%rax        # 251c0 <g_266>
   1c08b:	48 89 85 08 f7 ff ff 	mov    %rax,-0x8f8(%rbp)
   1c092:	c7 85 08 f4 ff ff e1 	movl   $0xc2055be1,-0xbf8(%rbp)
   1c099:	5b 05 c2 
   1c09c:	c7 85 a0 f3 ff ff 03 	movl   $0x3,-0xc60(%rbp)
   1c0a3:	00 00 00 
   1c0a6:	e9 a0 0d 00 00       	jmpq   1ce4b <func_62+0x26b0>
   1c0ab:	48 c7 85 28 f4 ff ff 	movq   $0x0,-0xbd8(%rbp)
   1c0b2:	00 00 00 00 
   1c0b6:	48 8d 05 f3 d8 00 00 	lea    0xd8f3(%rip),%rax        # 299b0 <g_145>
   1c0bd:	48 89 85 30 f4 ff ff 	mov    %rax,-0xbd0(%rbp)
   1c0c4:	48 8d 05 d5 90 00 00 	lea    0x90d5(%rip),%rax        # 251a0 <g_177>
   1c0cb:	48 89 85 38 f4 ff ff 	mov    %rax,-0xbc8(%rbp)
   1c0d2:	66 c7 85 9e f3 ff ff 	movw   $0xe69d,-0xc62(%rbp)
   1c0d9:	9d e6 
   1c0db:	c7 85 e0 f3 ff ff 01 	movl   $0x1,-0xc20(%rbp)
   1c0e2:	00 00 00 
   1c0e5:	c7 85 c0 f3 ff ff 00 	movl   $0x0,-0xc40(%rbp)
   1c0ec:	00 00 00 
   1c0ef:	eb 50                	jmp    1c141 <func_62+0x19a6>
   1c0f1:	c7 85 c4 f3 ff ff 00 	movl   $0x0,-0xc3c(%rbp)
   1c0f8:	00 00 00 
   1c0fb:	eb 34                	jmp    1c131 <func_62+0x1996>
   1c0fd:	8b 85 c4 f3 ff ff    	mov    -0xc3c(%rbp),%eax
   1c103:	48 63 c8             	movslq %eax,%rcx
   1c106:	8b 85 c0 f3 ff ff    	mov    -0xc40(%rbp),%eax
   1c10c:	48 63 d0             	movslq %eax,%rdx
   1c10f:	48 89 d0             	mov    %rdx,%rax
   1c112:	48 01 c0             	add    %rax,%rax
   1c115:	48 01 d0             	add    %rdx,%rax
   1c118:	48 01 c8             	add    %rcx,%rax
   1c11b:	48 8d 15 8e 90 00 00 	lea    0x908e(%rip),%rdx        # 251b0 <g_200>
   1c122:	48 89 94 c5 d0 f4 ff 	mov    %rdx,-0xb30(%rbp,%rax,8)
   1c129:	ff 
   1c12a:	83 85 c4 f3 ff ff 01 	addl   $0x1,-0xc3c(%rbp)
   1c131:	83 bd c4 f3 ff ff 02 	cmpl   $0x2,-0xc3c(%rbp)
   1c138:	7e c3                	jle    1c0fd <func_62+0x1962>
   1c13a:	83 85 c0 f3 ff ff 01 	addl   $0x1,-0xc40(%rbp)
   1c141:	83 bd c0 f3 ff ff 00 	cmpl   $0x0,-0xc40(%rbp)
   1c148:	7e a7                	jle    1c0f1 <func_62+0x1956>
   1c14a:	48 8b 85 70 f3 ff ff 	mov    -0xc90(%rbp),%rax
   1c151:	0f b6 00             	movzbl (%rax),%eax
   1c154:	0f be d0             	movsbl %al,%edx
   1c157:	48 8b 85 88 f3 ff ff 	mov    -0xc78(%rbp),%rax
   1c15e:	48 8b 00             	mov    (%rax),%rax
   1c161:	48 89 c1             	mov    %rax,%rcx
   1c164:	48 b8 72 91 2e 8e 5e 	movabs $0xae86295e8e2e9172,%rax
   1c16b:	29 86 ae 
   1c16e:	48 21 c1             	and    %rax,%rcx
   1c171:	8b 05 41 90 00 00    	mov    0x9041(%rip),%eax        # 251b8 <g_217>
   1c177:	48 98                	cltq   
   1c179:	48 39 c1             	cmp    %rax,%rcx
   1c17c:	74 11                	je     1c18f <func_62+0x19f4>
   1c17e:	8b 85 04 f6 ff ff    	mov    -0x9fc(%rbp),%eax
   1c184:	85 c0                	test   %eax,%eax
   1c186:	74 07                	je     1c18f <func_62+0x19f4>
   1c188:	b8 01 00 00 00       	mov    $0x1,%eax
   1c18d:	eb 05                	jmp    1c194 <func_62+0x19f9>
   1c18f:	b8 00 00 00 00       	mov    $0x0,%eax
   1c194:	0f b6 c0             	movzbl %al,%eax
   1c197:	89 d6                	mov    %edx,%esi
   1c199:	89 c7                	mov    %eax,%edi
   1c19b:	e8 ed 0a ff ff       	callq  cc8d <safe_rshift_func_uint8_t_u_s>
   1c1a0:	0f b6 d0             	movzbl %al,%edx
   1c1a3:	8b 05 13 90 00 00    	mov    0x9013(%rip),%eax        # 251bc <g_248>
   1c1a9:	09 d0                	or     %edx,%eax
   1c1ab:	89 05 0b 90 00 00    	mov    %eax,0x900b(%rip)        # 251bc <g_248>
   1c1b1:	48 8b 05 e0 8f 00 00 	mov    0x8fe0(%rip),%rax        # 25198 <g_176>
   1c1b8:	48 85 c0             	test   %rax,%rax
   1c1bb:	74 07                	je     1c1c4 <func_62+0x1a29>
   1c1bd:	b8 01 00 00 00       	mov    $0x1,%eax
   1c1c2:	eb 05                	jmp    1c1c9 <func_62+0x1a2e>
   1c1c4:	b8 00 00 00 00       	mov    $0x0,%eax
   1c1c9:	85 c0                	test   %eax,%eax
   1c1cb:	0f 95 c0             	setne  %al
   1c1ce:	0f b6 c0             	movzbl %al,%eax
   1c1d1:	89 c6                	mov    %eax,%esi
   1c1d3:	bf 80 16 00 00       	mov    $0x1680,%edi
   1c1d8:	e8 42 0b ff ff       	callq  cd1f <safe_sub_func_uint16_t_u_u>
   1c1dd:	48 8b 85 00 f7 ff ff 	mov    -0x900(%rbp),%rax
   1c1e4:	48 85 c0             	test   %rax,%rax
   1c1e7:	0f 95 c0             	setne  %al
   1c1ea:	89 c2                	mov    %eax,%edx
   1c1ec:	48 8b 85 38 f4 ff ff 	mov    -0xbc8(%rbp),%rax
   1c1f3:	88 10                	mov    %dl,(%rax)
   1c1f5:	48 8b 85 30 f4 ff ff 	mov    -0xbd0(%rbp),%rax
   1c1fc:	8b 10                	mov    (%rax),%edx
   1c1fe:	8b 0d 98 8e 00 00    	mov    0x8e98(%rip),%ecx        # 2509c <g_3+0x5c>
   1c204:	0f b7 85 7c f3 ff ff 	movzwl -0xc84(%rbp),%eax
   1c20b:	39 c1                	cmp    %eax,%ecx
   1c20d:	0f 9c c0             	setl   %al
   1c210:	0f b6 c0             	movzbl %al,%eax
   1c213:	09 c2                	or     %eax,%edx
   1c215:	48 8b 85 30 f4 ff ff 	mov    -0xbd0(%rbp),%rax
   1c21c:	89 10                	mov    %edx,(%rax)
   1c21e:	48 8b 85 30 f4 ff ff 	mov    -0xbd0(%rbp),%rax
   1c225:	8b 00                	mov    (%rax),%eax
   1c227:	89 85 a4 f3 ff ff    	mov    %eax,-0xc5c(%rbp)
   1c22d:	8b 85 cc f5 ff ff    	mov    -0xa34(%rbp),%eax
   1c233:	0f b7 d0             	movzwl %ax,%edx
   1c236:	0f b7 05 73 8f 00 00 	movzwl 0x8f73(%rip),%eax        # 251b0 <g_200>
   1c23d:	8d 48 01             	lea    0x1(%rax),%ecx
   1c240:	66 89 0d 69 8f 00 00 	mov    %cx,0x8f69(%rip)        # 251b0 <g_200>
   1c247:	0f b7 c0             	movzwl %ax,%eax
   1c24a:	89 d6                	mov    %edx,%esi
   1c24c:	89 c7                	mov    %eax,%edi
   1c24e:	e8 3b 0b ff ff       	callq  cd8e <safe_div_func_uint16_t_u_u>
   1c253:	48 8b 85 f8 f3 ff ff 	mov    -0xc08(%rbp),%rax
   1c25a:	48 8d 15 53 8f 00 00 	lea    0x8f53(%rip),%rdx        # 251b4 <g_213>
   1c261:	48 39 d0             	cmp    %rdx,%rax
   1c264:	48 8d 05 3d 8f 00 00 	lea    0x8f3d(%rip),%rax        # 251a8 <g_184>
   1c26b:	48 89 85 40 f4 ff ff 	mov    %rax,-0xbc0(%rbp)
   1c272:	48 c7 85 48 f4 ff ff 	movq   $0x0,-0xbb8(%rbp)
   1c279:	00 00 00 00 
   1c27d:	48 8d 85 a4 f3 ff ff 	lea    -0xc5c(%rbp),%rax
   1c284:	48 89 85 50 f4 ff ff 	mov    %rax,-0xbb0(%rbp)
   1c28b:	48 8d 85 40 f6 ff ff 	lea    -0x9c0(%rbp),%rax
   1c292:	48 83 c0 0c          	add    $0xc,%rax
   1c296:	48 89 85 58 f4 ff ff 	mov    %rax,-0xba8(%rbp)
   1c29d:	48 c7 85 60 f4 ff ff 	movq   $0x0,-0xba0(%rbp)
   1c2a4:	00 00 00 00 
   1c2a8:	48 8d 85 b0 f3 ff ff 	lea    -0xc50(%rbp),%rax
   1c2af:	48 89 85 68 f4 ff ff 	mov    %rax,-0xb98(%rbp)
   1c2b6:	48 8d 85 40 f6 ff ff 	lea    -0x9c0(%rbp),%rax
   1c2bd:	48 83 c0 10          	add    $0x10,%rax
   1c2c1:	48 89 85 70 f4 ff ff 	mov    %rax,-0xb90(%rbp)
   1c2c8:	48 8d 85 40 f6 ff ff 	lea    -0x9c0(%rbp),%rax
   1c2cf:	48 83 c0 18          	add    $0x18,%rax
   1c2d3:	48 89 85 78 f4 ff ff 	mov    %rax,-0xb88(%rbp)
   1c2da:	48 8d 85 08 f4 ff ff 	lea    -0xbf8(%rbp),%rax
   1c2e1:	48 89 85 80 f4 ff ff 	mov    %rax,-0xb80(%rbp)
   1c2e8:	48 8d 85 a0 f5 ff ff 	lea    -0xa60(%rbp),%rax
   1c2ef:	48 05 84 00 00 00    	add    $0x84,%rax
   1c2f5:	48 89 85 88 f4 ff ff 	mov    %rax,-0xb78(%rbp)
   1c2fc:	48 8d 85 ac f3 ff ff 	lea    -0xc54(%rbp),%rax
   1c303:	48 89 85 50 f8 ff ff 	mov    %rax,-0x7b0(%rbp)
   1c30a:	48 8d 05 6b 8d 00 00 	lea    0x8d6b(%rip),%rax        # 2507c <g_3+0x3c>
   1c311:	48 89 85 58 f8 ff ff 	mov    %rax,-0x7a8(%rbp)
   1c318:	48 8d 05 45 8e 00 00 	lea    0x8e45(%rip),%rax        # 25164 <g_9>
   1c31f:	48 89 85 60 f8 ff ff 	mov    %rax,-0x7a0(%rbp)
   1c326:	48 8d 85 b0 f3 ff ff 	lea    -0xc50(%rbp),%rax
   1c32d:	48 89 85 68 f8 ff ff 	mov    %rax,-0x798(%rbp)
   1c334:	48 8d 05 4d 8e 00 00 	lea    0x8e4d(%rip),%rax        # 25188 <g_98>
   1c33b:	48 89 85 70 f8 ff ff 	mov    %rax,-0x790(%rbp)
   1c342:	48 8d 85 a0 f5 ff ff 	lea    -0xa60(%rbp),%rax
   1c349:	48 05 88 00 00 00    	add    $0x88,%rax
   1c34f:	48 89 85 78 f8 ff ff 	mov    %rax,-0x788(%rbp)
   1c356:	48 c7 85 80 f8 ff ff 	movq   $0x0,-0x780(%rbp)
   1c35d:	00 00 00 00 
   1c361:	48 8d 85 a0 f3 ff ff 	lea    -0xc60(%rbp),%rax
   1c368:	48 89 85 88 f8 ff ff 	mov    %rax,-0x778(%rbp)
   1c36f:	48 8d 85 40 f6 ff ff 	lea    -0x9c0(%rbp),%rax
   1c376:	48 83 c0 10          	add    $0x10,%rax
   1c37a:	48 89 85 90 f8 ff ff 	mov    %rax,-0x770(%rbp)
   1c381:	48 8d 85 40 f6 ff ff 	lea    -0x9c0(%rbp),%rax
   1c388:	48 83 c0 10          	add    $0x10,%rax
   1c38c:	48 89 85 98 f8 ff ff 	mov    %rax,-0x768(%rbp)
   1c393:	48 8d 85 ac f3 ff ff 	lea    -0xc54(%rbp),%rax
   1c39a:	48 89 85 a0 f8 ff ff 	mov    %rax,-0x760(%rbp)
   1c3a1:	48 c7 85 a8 f8 ff ff 	movq   $0x0,-0x758(%rbp)
   1c3a8:	00 00 00 00 
   1c3ac:	48 8d 85 ac f3 ff ff 	lea    -0xc54(%rbp),%rax
   1c3b3:	48 89 85 b0 f8 ff ff 	mov    %rax,-0x750(%rbp)
   1c3ba:	48 8d 85 a0 f3 ff ff 	lea    -0xc60(%rbp),%rax
   1c3c1:	48 89 85 b8 f8 ff ff 	mov    %rax,-0x748(%rbp)
   1c3c8:	48 8d 85 a8 f3 ff ff 	lea    -0xc58(%rbp),%rax
   1c3cf:	48 89 85 c0 f8 ff ff 	mov    %rax,-0x740(%rbp)
   1c3d6:	48 8d 85 a0 f3 ff ff 	lea    -0xc60(%rbp),%rax
   1c3dd:	48 89 85 c8 f8 ff ff 	mov    %rax,-0x738(%rbp)
   1c3e4:	48 c7 85 d0 f8 ff ff 	movq   $0x0,-0x730(%rbp)
   1c3eb:	00 00 00 00 
   1c3ef:	48 8d 85 a0 f5 ff ff 	lea    -0xa60(%rbp),%rax
   1c3f6:	48 05 88 00 00 00    	add    $0x88,%rax
   1c3fc:	48 89 85 d8 f8 ff ff 	mov    %rax,-0x728(%rbp)
   1c403:	48 c7 85 e0 f8 ff ff 	movq   $0x0,-0x720(%rbp)
   1c40a:	00 00 00 00 
   1c40e:	48 8d 05 53 8d 00 00 	lea    0x8d53(%rip),%rax        # 25168 <g_12>
   1c415:	48 89 85 e8 f8 ff ff 	mov    %rax,-0x718(%rbp)
   1c41c:	48 8d 05 41 8d 00 00 	lea    0x8d41(%rip),%rax        # 25164 <g_9>
   1c423:	48 89 85 f0 f8 ff ff 	mov    %rax,-0x710(%rbp)
   1c42a:	48 8d 05 4b 8c 00 00 	lea    0x8c4b(%rip),%rax        # 2507c <g_3+0x3c>
   1c431:	48 89 85 f8 f8 ff ff 	mov    %rax,-0x708(%rbp)
   1c438:	48 8d 85 ac f3 ff ff 	lea    -0xc54(%rbp),%rax
   1c43f:	48 89 85 00 f9 ff ff 	mov    %rax,-0x700(%rbp)
   1c446:	48 c7 85 08 f9 ff ff 	movq   $0x0,-0x6f8(%rbp)
   1c44d:	00 00 00 00 
   1c451:	48 8d 85 ac f3 ff ff 	lea    -0xc54(%rbp),%rax
   1c458:	48 89 85 10 f9 ff ff 	mov    %rax,-0x6f0(%rbp)
   1c45f:	48 8d 85 a0 f3 ff ff 	lea    -0xc60(%rbp),%rax
   1c466:	48 89 85 18 f9 ff ff 	mov    %rax,-0x6e8(%rbp)
   1c46d:	48 8d 05 10 8d 00 00 	lea    0x8d10(%rip),%rax        # 25184 <g_92>
   1c474:	48 89 85 20 f9 ff ff 	mov    %rax,-0x6e0(%rbp)
   1c47b:	48 8d 85 a0 f5 ff ff 	lea    -0xa60(%rbp),%rax
   1c482:	48 05 88 00 00 00    	add    $0x88,%rax
   1c488:	48 89 85 28 f9 ff ff 	mov    %rax,-0x6d8(%rbp)
   1c48f:	48 8d 05 d2 8c 00 00 	lea    0x8cd2(%rip),%rax        # 25168 <g_12>
   1c496:	48 89 85 30 f9 ff ff 	mov    %rax,-0x6d0(%rbp)
   1c49d:	48 c7 85 38 f9 ff ff 	movq   $0x0,-0x6c8(%rbp)
   1c4a4:	00 00 00 00 
   1c4a8:	48 8d 85 a0 f5 ff ff 	lea    -0xa60(%rbp),%rax
   1c4af:	48 89 85 40 f9 ff ff 	mov    %rax,-0x6c0(%rbp)
   1c4b6:	48 c7 85 48 f9 ff ff 	movq   $0x0,-0x6b8(%rbp)
   1c4bd:	00 00 00 00 
   1c4c1:	48 8d 85 ac f3 ff ff 	lea    -0xc54(%rbp),%rax
   1c4c8:	48 89 85 50 f9 ff ff 	mov    %rax,-0x6b0(%rbp)
   1c4cf:	48 c7 85 58 f9 ff ff 	movq   $0x0,-0x6a8(%rbp)
   1c4d6:	00 00 00 00 
   1c4da:	48 8d 85 a0 f5 ff ff 	lea    -0xa60(%rbp),%rax
   1c4e1:	48 89 85 60 f9 ff ff 	mov    %rax,-0x6a0(%rbp)
   1c4e8:	48 8d 05 95 8c 00 00 	lea    0x8c95(%rip),%rax        # 25184 <g_92>
   1c4ef:	48 89 85 68 f9 ff ff 	mov    %rax,-0x698(%rbp)
   1c4f6:	48 c7 85 70 f9 ff ff 	movq   $0x0,-0x690(%rbp)
   1c4fd:	00 00 00 00 
   1c501:	48 8d 85 a0 f3 ff ff 	lea    -0xc60(%rbp),%rax
   1c508:	48 89 85 78 f9 ff ff 	mov    %rax,-0x688(%rbp)
   1c50f:	48 8d 05 52 8c 00 00 	lea    0x8c52(%rip),%rax        # 25168 <g_12>
   1c516:	48 89 85 80 f9 ff ff 	mov    %rax,-0x680(%rbp)
   1c51d:	48 8d 85 a0 f5 ff ff 	lea    -0xa60(%rbp),%rax
   1c524:	48 05 94 00 00 00    	add    $0x94,%rax
   1c52a:	48 89 85 88 f9 ff ff 	mov    %rax,-0x678(%rbp)
   1c531:	48 c7 85 90 f9 ff ff 	movq   $0x0,-0x670(%rbp)
   1c538:	00 00 00 00 
   1c53c:	48 8d 85 a8 f3 ff ff 	lea    -0xc58(%rbp),%rax
   1c543:	48 89 85 98 f9 ff ff 	mov    %rax,-0x668(%rbp)
   1c54a:	48 8d 05 13 8c 00 00 	lea    0x8c13(%rip),%rax        # 25164 <g_9>
   1c551:	48 89 85 a0 f9 ff ff 	mov    %rax,-0x660(%rbp)
   1c558:	48 c7 85 a8 f9 ff ff 	movq   $0x0,-0x658(%rbp)
   1c55f:	00 00 00 00 
   1c563:	48 8d 85 a0 f5 ff ff 	lea    -0xa60(%rbp),%rax
   1c56a:	48 05 88 00 00 00    	add    $0x88,%rax
   1c570:	48 89 85 b0 f9 ff ff 	mov    %rax,-0x650(%rbp)
   1c577:	48 8d 85 40 f6 ff ff 	lea    -0x9c0(%rbp),%rax
   1c57e:	48 83 c0 10          	add    $0x10,%rax
   1c582:	48 89 85 b8 f9 ff ff 	mov    %rax,-0x648(%rbp)
   1c589:	48 8d 85 a0 f5 ff ff 	lea    -0xa60(%rbp),%rax
   1c590:	48 05 88 00 00 00    	add    $0x88,%rax
   1c596:	48 89 85 c0 f9 ff ff 	mov    %rax,-0x640(%rbp)
   1c59d:	48 8d 85 a0 f3 ff ff 	lea    -0xc60(%rbp),%rax
   1c5a4:	48 89 85 c8 f9 ff ff 	mov    %rax,-0x638(%rbp)
   1c5ab:	48 c7 85 d0 f9 ff ff 	movq   $0x0,-0x630(%rbp)
   1c5b2:	00 00 00 00 
   1c5b6:	48 8d 85 a0 f5 ff ff 	lea    -0xa60(%rbp),%rax
   1c5bd:	48 05 94 00 00 00    	add    $0x94,%rax
   1c5c3:	48 89 85 d8 f9 ff ff 	mov    %rax,-0x628(%rbp)
   1c5ca:	48 8d 85 40 f6 ff ff 	lea    -0x9c0(%rbp),%rax
   1c5d1:	48 83 c0 10          	add    $0x10,%rax
   1c5d5:	48 89 85 e0 f9 ff ff 	mov    %rax,-0x620(%rbp)
   1c5dc:	48 c7 85 e8 f9 ff ff 	movq   $0x0,-0x618(%rbp)
   1c5e3:	00 00 00 00 
   1c5e7:	48 8d 85 a0 f5 ff ff 	lea    -0xa60(%rbp),%rax
   1c5ee:	48 89 85 f0 f9 ff ff 	mov    %rax,-0x610(%rbp)
   1c5f5:	48 8d 85 a0 f3 ff ff 	lea    -0xc60(%rbp),%rax
   1c5fc:	48 89 85 f8 f9 ff ff 	mov    %rax,-0x608(%rbp)
   1c603:	48 8d 85 a0 f5 ff ff 	lea    -0xa60(%rbp),%rax
   1c60a:	48 89 85 00 fa ff ff 	mov    %rax,-0x600(%rbp)
   1c611:	48 8d 85 a0 f5 ff ff 	lea    -0xa60(%rbp),%rax
   1c618:	48 05 94 00 00 00    	add    $0x94,%rax
   1c61e:	48 89 85 08 fa ff ff 	mov    %rax,-0x5f8(%rbp)
   1c625:	48 8d 85 a0 f5 ff ff 	lea    -0xa60(%rbp),%rax
   1c62c:	48 05 94 00 00 00    	add    $0x94,%rax
   1c632:	48 89 85 10 fa ff ff 	mov    %rax,-0x5f0(%rbp)
   1c639:	48 8d 05 44 8b 00 00 	lea    0x8b44(%rip),%rax        # 25184 <g_92>
   1c640:	48 89 85 18 fa ff ff 	mov    %rax,-0x5e8(%rbp)
   1c647:	48 8d 85 40 f6 ff ff 	lea    -0x9c0(%rbp),%rax
   1c64e:	48 83 c0 10          	add    $0x10,%rax
   1c652:	48 89 85 20 fa ff ff 	mov    %rax,-0x5e0(%rbp)
   1c659:	48 c7 85 28 fa ff ff 	movq   $0x0,-0x5d8(%rbp)
   1c660:	00 00 00 00 
   1c664:	48 8d 85 40 f6 ff ff 	lea    -0x9c0(%rbp),%rax
   1c66b:	48 83 c0 10          	add    $0x10,%rax
   1c66f:	48 89 85 30 fa ff ff 	mov    %rax,-0x5d0(%rbp)
   1c676:	48 c7 85 38 fa ff ff 	movq   $0x0,-0x5c8(%rbp)
   1c67d:	00 00 00 00 
   1c681:	48 c7 85 40 fa ff ff 	movq   $0x0,-0x5c0(%rbp)
   1c688:	00 00 00 00 
   1c68c:	48 8d 85 b0 f3 ff ff 	lea    -0xc50(%rbp),%rax
   1c693:	48 89 85 48 fa ff ff 	mov    %rax,-0x5b8(%rbp)
   1c69a:	48 8d 85 ac f3 ff ff 	lea    -0xc54(%rbp),%rax
   1c6a1:	48 89 85 50 fa ff ff 	mov    %rax,-0x5b0(%rbp)
   1c6a8:	48 8d 85 40 f6 ff ff 	lea    -0x9c0(%rbp),%rax
   1c6af:	48 83 c0 10          	add    $0x10,%rax
   1c6b3:	48 89 85 58 fa ff ff 	mov    %rax,-0x5a8(%rbp)
   1c6ba:	48 8d 05 53 8a 00 00 	lea    0x8a53(%rip),%rax        # 25114 <g_3+0xd4>
   1c6c1:	48 89 85 60 fa ff ff 	mov    %rax,-0x5a0(%rbp)
   1c6c8:	48 8d 85 40 f6 ff ff 	lea    -0x9c0(%rbp),%rax
   1c6cf:	48 83 c0 10          	add    $0x10,%rax
   1c6d3:	48 89 85 68 fa ff ff 	mov    %rax,-0x598(%rbp)
   1c6da:	48 c7 85 70 fa ff ff 	movq   $0x0,-0x590(%rbp)
   1c6e1:	00 00 00 00 
   1c6e5:	48 8d 05 7c 8a 00 00 	lea    0x8a7c(%rip),%rax        # 25168 <g_12>
   1c6ec:	48 89 85 78 fa ff ff 	mov    %rax,-0x588(%rbp)
   1c6f3:	48 c7 85 80 fa ff ff 	movq   $0x0,-0x580(%rbp)
   1c6fa:	00 00 00 00 
   1c6fe:	48 c7 85 88 fa ff ff 	movq   $0x0,-0x578(%rbp)
   1c705:	00 00 00 00 
   1c709:	48 8d 85 40 f6 ff ff 	lea    -0x9c0(%rbp),%rax
   1c710:	48 83 c0 10          	add    $0x10,%rax
   1c714:	48 89 85 90 fa ff ff 	mov    %rax,-0x570(%rbp)
   1c71b:	48 8d 85 a8 f3 ff ff 	lea    -0xc58(%rbp),%rax
   1c722:	48 89 85 98 fa ff ff 	mov    %rax,-0x568(%rbp)
   1c729:	48 8d 85 a8 f3 ff ff 	lea    -0xc58(%rbp),%rax
   1c730:	48 89 85 a0 fa ff ff 	mov    %rax,-0x560(%rbp)
   1c737:	48 8d 05 46 8a 00 00 	lea    0x8a46(%rip),%rax        # 25184 <g_92>
   1c73e:	48 89 85 a8 fa ff ff 	mov    %rax,-0x558(%rbp)
   1c745:	48 8d 85 a0 f5 ff ff 	lea    -0xa60(%rbp),%rax
   1c74c:	48 05 94 00 00 00    	add    $0x94,%rax
   1c752:	48 89 85 b0 fa ff ff 	mov    %rax,-0x550(%rbp)
   1c759:	48 8d 85 a0 f5 ff ff 	lea    -0xa60(%rbp),%rax
   1c760:	48 05 94 00 00 00    	add    $0x94,%rax
   1c766:	48 89 85 b8 fa ff ff 	mov    %rax,-0x548(%rbp)
   1c76d:	48 8d 05 10 8a 00 00 	lea    0x8a10(%rip),%rax        # 25184 <g_92>
   1c774:	48 89 85 c0 fa ff ff 	mov    %rax,-0x540(%rbp)
   1c77b:	48 8d 85 40 f6 ff ff 	lea    -0x9c0(%rbp),%rax
   1c782:	48 83 c0 10          	add    $0x10,%rax
   1c786:	48 89 85 c8 fa ff ff 	mov    %rax,-0x538(%rbp)
   1c78d:	48 8d 85 a0 f5 ff ff 	lea    -0xa60(%rbp),%rax
   1c794:	48 89 85 d0 fa ff ff 	mov    %rax,-0x530(%rbp)
   1c79b:	48 c7 85 d8 fa ff ff 	movq   $0x0,-0x528(%rbp)
   1c7a2:	00 00 00 00 
   1c7a6:	48 8d 85 40 f6 ff ff 	lea    -0x9c0(%rbp),%rax
   1c7ad:	48 83 c0 10          	add    $0x10,%rax
   1c7b1:	48 89 85 e0 fa ff ff 	mov    %rax,-0x520(%rbp)
   1c7b8:	48 8d 85 40 f6 ff ff 	lea    -0x9c0(%rbp),%rax
   1c7bf:	48 83 c0 10          	add    $0x10,%rax
   1c7c3:	48 89 85 e8 fa ff ff 	mov    %rax,-0x518(%rbp)
   1c7ca:	48 8d 05 b7 89 00 00 	lea    0x89b7(%rip),%rax        # 25188 <g_98>
   1c7d1:	48 89 85 f0 fa ff ff 	mov    %rax,-0x510(%rbp)
   1c7d8:	48 8d 85 a0 f3 ff ff 	lea    -0xc60(%rbp),%rax
   1c7df:	48 89 85 f8 fa ff ff 	mov    %rax,-0x508(%rbp)
   1c7e6:	48 8d 85 a0 f5 ff ff 	lea    -0xa60(%rbp),%rax
   1c7ed:	48 05 88 00 00 00    	add    $0x88,%rax
   1c7f3:	48 89 85 00 fb ff ff 	mov    %rax,-0x500(%rbp)
   1c7fa:	48 8d 85 40 f6 ff ff 	lea    -0x9c0(%rbp),%rax
   1c801:	48 83 c0 10          	add    $0x10,%rax
   1c805:	48 89 85 08 fb ff ff 	mov    %rax,-0x4f8(%rbp)
   1c80c:	48 8d 85 a0 f5 ff ff 	lea    -0xa60(%rbp),%rax
   1c813:	48 05 88 00 00 00    	add    $0x88,%rax
   1c819:	48 89 85 10 fb ff ff 	mov    %rax,-0x4f0(%rbp)
   1c820:	48 8d 85 a0 f3 ff ff 	lea    -0xc60(%rbp),%rax
   1c827:	48 89 85 18 fb ff ff 	mov    %rax,-0x4e8(%rbp)
   1c82e:	48 8d 05 2f 89 00 00 	lea    0x892f(%rip),%rax        # 25164 <g_9>
   1c835:	48 89 85 20 fb ff ff 	mov    %rax,-0x4e0(%rbp)
   1c83c:	48 8d 85 a8 f3 ff ff 	lea    -0xc58(%rbp),%rax
   1c843:	48 89 85 28 fb ff ff 	mov    %rax,-0x4d8(%rbp)
   1c84a:	48 c7 85 30 fb ff ff 	movq   $0x0,-0x4d0(%rbp)
   1c851:	00 00 00 00 
   1c855:	48 8d 85 40 f6 ff ff 	lea    -0x9c0(%rbp),%rax
   1c85c:	48 83 c0 10          	add    $0x10,%rax
   1c860:	48 89 85 38 fb ff ff 	mov    %rax,-0x4c8(%rbp)
   1c867:	48 8d 85 ac f3 ff ff 	lea    -0xc54(%rbp),%rax
   1c86e:	48 89 85 40 fb ff ff 	mov    %rax,-0x4c0(%rbp)
   1c875:	48 8d 85 a0 f3 ff ff 	lea    -0xc60(%rbp),%rax
   1c87c:	48 89 85 48 fb ff ff 	mov    %rax,-0x4b8(%rbp)
   1c883:	48 c7 85 50 fb ff ff 	movq   $0x0,-0x4b0(%rbp)
   1c88a:	00 00 00 00 
   1c88e:	48 8d 05 ef 88 00 00 	lea    0x88ef(%rip),%rax        # 25184 <g_92>
   1c895:	48 89 85 58 fb ff ff 	mov    %rax,-0x4a8(%rbp)
   1c89c:	48 8d 05 e1 88 00 00 	lea    0x88e1(%rip),%rax        # 25184 <g_92>
   1c8a3:	48 89 85 60 fb ff ff 	mov    %rax,-0x4a0(%rbp)
   1c8aa:	48 c7 85 68 fb ff ff 	movq   $0x0,-0x498(%rbp)
   1c8b1:	00 00 00 00 
   1c8b5:	48 8d 85 a0 f5 ff ff 	lea    -0xa60(%rbp),%rax
   1c8bc:	48 05 88 00 00 00    	add    $0x88,%rax
   1c8c2:	48 89 85 70 fb ff ff 	mov    %rax,-0x490(%rbp)
   1c8c9:	48 c7 85 78 fb ff ff 	movq   $0x0,-0x488(%rbp)
   1c8d0:	00 00 00 00 
   1c8d4:	48 c7 85 80 fb ff ff 	movq   $0x0,-0x480(%rbp)
   1c8db:	00 00 00 00 
   1c8df:	48 c7 85 88 fb ff ff 	movq   $0x0,-0x478(%rbp)
   1c8e6:	00 00 00 00 
   1c8ea:	48 c7 85 90 fb ff ff 	movq   $0x0,-0x470(%rbp)
   1c8f1:	00 00 00 00 
   1c8f5:	48 8d 05 18 88 00 00 	lea    0x8818(%rip),%rax        # 25114 <g_3+0xd4>
   1c8fc:	48 89 85 98 fb ff ff 	mov    %rax,-0x468(%rbp)
   1c903:	48 8d 85 a0 f5 ff ff 	lea    -0xa60(%rbp),%rax
   1c90a:	48 05 94 00 00 00    	add    $0x94,%rax
   1c910:	48 89 85 a0 fb ff ff 	mov    %rax,-0x460(%rbp)
   1c917:	48 8d 85 a0 f3 ff ff 	lea    -0xc60(%rbp),%rax
   1c91e:	48 89 85 a8 fb ff ff 	mov    %rax,-0x458(%rbp)
   1c925:	48 8d 85 a0 f5 ff ff 	lea    -0xa60(%rbp),%rax
   1c92c:	48 05 88 00 00 00    	add    $0x88,%rax
   1c932:	48 89 85 b0 fb ff ff 	mov    %rax,-0x450(%rbp)
   1c939:	48 8d 85 a0 f3 ff ff 	lea    -0xc60(%rbp),%rax
   1c940:	48 89 85 b8 fb ff ff 	mov    %rax,-0x448(%rbp)
   1c947:	48 c7 85 c0 fb ff ff 	movq   $0x0,-0x440(%rbp)
   1c94e:	00 00 00 00 
   1c952:	48 8d 85 a0 f3 ff ff 	lea    -0xc60(%rbp),%rax
   1c959:	48 89 85 c8 fb ff ff 	mov    %rax,-0x438(%rbp)
   1c960:	48 8d 85 ac f3 ff ff 	lea    -0xc54(%rbp),%rax
   1c967:	48 89 85 d0 fb ff ff 	mov    %rax,-0x430(%rbp)
   1c96e:	48 8d 85 a8 f3 ff ff 	lea    -0xc58(%rbp),%rax
   1c975:	48 89 85 d8 fb ff ff 	mov    %rax,-0x428(%rbp)
   1c97c:	48 8d 85 a0 f5 ff ff 	lea    -0xa60(%rbp),%rax
   1c983:	48 89 85 e0 fb ff ff 	mov    %rax,-0x420(%rbp)
   1c98a:	48 8d 05 83 87 00 00 	lea    0x8783(%rip),%rax        # 25114 <g_3+0xd4>
   1c991:	48 89 85 e8 fb ff ff 	mov    %rax,-0x418(%rbp)
   1c998:	48 8d 85 a0 f3 ff ff 	lea    -0xc60(%rbp),%rax
   1c99f:	48 89 85 f0 fb ff ff 	mov    %rax,-0x410(%rbp)
   1c9a6:	48 8d 85 40 f6 ff ff 	lea    -0x9c0(%rbp),%rax
   1c9ad:	48 83 c0 10          	add    $0x10,%rax
   1c9b1:	48 89 85 f8 fb ff ff 	mov    %rax,-0x408(%rbp)
   1c9b8:	48 c7 85 00 fc ff ff 	movq   $0x0,-0x400(%rbp)
   1c9bf:	00 00 00 00 
   1c9c3:	48 c7 85 08 fc ff ff 	movq   $0x0,-0x3f8(%rbp)
   1c9ca:	00 00 00 00 
   1c9ce:	48 8d 85 a0 f5 ff ff 	lea    -0xa60(%rbp),%rax
   1c9d5:	48 05 88 00 00 00    	add    $0x88,%rax
   1c9db:	48 89 85 10 fc ff ff 	mov    %rax,-0x3f0(%rbp)
   1c9e2:	48 8d 85 40 f6 ff ff 	lea    -0x9c0(%rbp),%rax
   1c9e9:	48 83 c0 10          	add    $0x10,%rax
   1c9ed:	48 89 85 18 fc ff ff 	mov    %rax,-0x3e8(%rbp)
   1c9f4:	48 8d 85 a0 f5 ff ff 	lea    -0xa60(%rbp),%rax
   1c9fb:	48 05 88 00 00 00    	add    $0x88,%rax
   1ca01:	48 89 85 20 fc ff ff 	mov    %rax,-0x3e0(%rbp)
   1ca08:	48 c7 85 28 fc ff ff 	movq   $0x0,-0x3d8(%rbp)
   1ca0f:	00 00 00 00 
   1ca13:	48 8d 05 6e 87 00 00 	lea    0x876e(%rip),%rax        # 25188 <g_98>
   1ca1a:	48 89 85 30 fc ff ff 	mov    %rax,-0x3d0(%rbp)
   1ca21:	48 8d 85 40 f6 ff ff 	lea    -0x9c0(%rbp),%rax
   1ca28:	48 83 c0 10          	add    $0x10,%rax
   1ca2c:	48 89 85 38 fc ff ff 	mov    %rax,-0x3c8(%rbp)
   1ca33:	48 8d 85 a0 f3 ff ff 	lea    -0xc60(%rbp),%rax
   1ca3a:	48 89 85 40 fc ff ff 	mov    %rax,-0x3c0(%rbp)
   1ca41:	48 8d 05 cc 86 00 00 	lea    0x86cc(%rip),%rax        # 25114 <g_3+0xd4>
   1ca48:	48 89 85 48 fc ff ff 	mov    %rax,-0x3b8(%rbp)
   1ca4f:	48 8d 05 2e 87 00 00 	lea    0x872e(%rip),%rax        # 25184 <g_92>
   1ca56:	48 89 85 50 fc ff ff 	mov    %rax,-0x3b0(%rbp)
   1ca5d:	48 c7 85 58 fc ff ff 	movq   $0x0,-0x3a8(%rbp)
   1ca64:	00 00 00 00 
   1ca68:	48 8d 85 ac f3 ff ff 	lea    -0xc54(%rbp),%rax
   1ca6f:	48 89 85 60 fc ff ff 	mov    %rax,-0x3a0(%rbp)
   1ca76:	48 8d 85 a0 f3 ff ff 	lea    -0xc60(%rbp),%rax
   1ca7d:	48 89 85 68 fc ff ff 	mov    %rax,-0x398(%rbp)
   1ca84:	48 c7 85 70 fc ff ff 	movq   $0x0,-0x390(%rbp)
   1ca8b:	00 00 00 00 
   1ca8f:	48 8d 05 e6 85 00 00 	lea    0x85e6(%rip),%rax        # 2507c <g_3+0x3c>
   1ca96:	48 89 85 78 fc ff ff 	mov    %rax,-0x388(%rbp)
   1ca9d:	48 8d 85 a0 f5 ff ff 	lea    -0xa60(%rbp),%rax
   1caa4:	48 05 88 00 00 00    	add    $0x88,%rax
   1caaa:	48 89 85 80 fc ff ff 	mov    %rax,-0x380(%rbp)
   1cab1:	48 8d 85 a0 f3 ff ff 	lea    -0xc60(%rbp),%rax
   1cab8:	48 89 85 88 fc ff ff 	mov    %rax,-0x378(%rbp)
   1cabf:	48 8d 85 a0 f5 ff ff 	lea    -0xa60(%rbp),%rax
   1cac6:	48 05 94 00 00 00    	add    $0x94,%rax
   1cacc:	48 89 85 90 fc ff ff 	mov    %rax,-0x370(%rbp)
   1cad3:	48 8d 05 3a 86 00 00 	lea    0x863a(%rip),%rax        # 25114 <g_3+0xd4>
   1cada:	48 89 85 98 fc ff ff 	mov    %rax,-0x368(%rbp)
   1cae1:	48 c7 85 a0 fc ff ff 	movq   $0x0,-0x360(%rbp)
   1cae8:	00 00 00 00 
   1caec:	48 8d 85 a0 f3 ff ff 	lea    -0xc60(%rbp),%rax
   1caf3:	48 89 85 a8 fc ff ff 	mov    %rax,-0x358(%rbp)
   1cafa:	c7 85 c8 f3 ff ff 00 	movl   $0x0,-0xc38(%rbp)
   1cb01:	00 00 00 
   1cb04:	eb 6d                	jmp    1cb73 <func_62+0x23d8>
   1cb06:	c7 85 cc f3 ff ff 00 	movl   $0x0,-0xc34(%rbp)
   1cb0d:	00 00 00 
   1cb10:	eb 51                	jmp    1cb63 <func_62+0x23c8>
   1cb12:	c7 85 d0 f3 ff ff 00 	movl   $0x0,-0xc30(%rbp)
   1cb19:	00 00 00 
   1cb1c:	eb 35                	jmp    1cb53 <func_62+0x23b8>
   1cb1e:	8b 85 d0 f3 ff ff    	mov    -0xc30(%rbp),%eax
   1cb24:	48 63 d0             	movslq %eax,%rdx
   1cb27:	8b 85 cc f3 ff ff    	mov    -0xc34(%rbp),%eax
   1cb2d:	48 98                	cltq   
   1cb2f:	8b 8d c8 f3 ff ff    	mov    -0xc38(%rbp),%ecx
   1cb35:	48 63 c9             	movslq %ecx,%rcx
   1cb38:	48 01 c9             	add    %rcx,%rcx
   1cb3b:	48 01 ca             	add    %rcx,%rdx
   1cb3e:	48 01 d0             	add    %rdx,%rax
   1cb41:	c7 84 85 40 f6 ff ff 	movl   $0x0,-0x9c0(%rbp,%rax,4)
   1cb48:	00 00 00 00 
   1cb4c:	83 85 d0 f3 ff ff 01 	addl   $0x1,-0xc30(%rbp)
   1cb53:	83 bd d0 f3 ff ff 00 	cmpl   $0x0,-0xc30(%rbp)
   1cb5a:	7e c2                	jle    1cb1e <func_62+0x2383>
   1cb5c:	83 85 cc f3 ff ff 01 	addl   $0x1,-0xc34(%rbp)
   1cb63:	83 bd cc f3 ff ff 01 	cmpl   $0x1,-0xc34(%rbp)
   1cb6a:	7e a6                	jle    1cb12 <func_62+0x2377>
   1cb6c:	83 85 c8 f3 ff ff 01 	addl   $0x1,-0xc38(%rbp)
   1cb73:	83 bd c8 f3 ff ff 03 	cmpl   $0x3,-0xc38(%rbp)
   1cb7a:	7e 8a                	jle    1cb06 <func_62+0x236b>
   1cb7c:	44 8b 35 49 85 00 00 	mov    0x8549(%rip),%r14d        # 250cc <g_3+0x8c>
   1cb83:	8b 05 2b 86 00 00    	mov    0x862b(%rip),%eax        # 251b4 <g_213>
   1cb89:	0f be d8             	movsbl %al,%ebx
   1cb8c:	8b 05 26 86 00 00    	mov    0x8626(%rip),%eax        # 251b8 <g_217>
   1cb92:	4c 63 e0             	movslq %eax,%r12
   1cb95:	48 8b 85 40 f4 ff ff 	mov    -0xbc0(%rbp),%rax
   1cb9c:	48 8b 10             	mov    (%rax),%rdx
   1cb9f:	48 8b 85 40 f4 ff ff 	mov    -0xbc0(%rbp),%rax
   1cba6:	48 89 10             	mov    %rdx,(%rax)
   1cba9:	48 8b 85 40 f4 ff ff 	mov    -0xbc0(%rbp),%rax
   1cbb0:	48 8b 00             	mov    (%rax),%rax
   1cbb3:	48 83 f8 ff          	cmp    $0xffffffffffffffff,%rax
   1cbb7:	74 6e                	je     1cc27 <func_62+0x248c>
   1cbb9:	8b 85 a0 f3 ff ff    	mov    -0xc60(%rbp),%eax
   1cbbf:	44 0f be e8          	movsbl %al,%r13d
   1cbc3:	8b 85 a0 f3 ff ff    	mov    -0xc60(%rbp),%eax
   1cbc9:	8d 50 06             	lea    0x6(%rax),%edx
   1cbcc:	8b 85 a0 f3 ff ff    	mov    -0xc60(%rbp),%eax
   1cbd2:	83 c0 01             	add    $0x1,%eax
   1cbd5:	48 63 c8             	movslq %eax,%rcx
   1cbd8:	48 63 d2             	movslq %edx,%rdx
   1cbdb:	48 89 d0             	mov    %rdx,%rax
   1cbde:	48 c1 e0 02          	shl    $0x2,%rax
   1cbe2:	48 01 d0             	add    %rdx,%rax
   1cbe5:	48 01 c8             	add    %rcx,%rax
   1cbe8:	66 c7 84 45 30 f5 ff 	movw   $0x6,-0xad0(%rbp,%rax,2)
   1cbef:	ff 06 00 
   1cbf2:	0f b7 05 c7 85 00 00 	movzwl 0x85c7(%rip),%eax        # 251c0 <g_266>
   1cbf9:	0f b7 d0             	movzwl %ax,%edx
   1cbfc:	8b 85 50 f6 ff ff    	mov    -0x9b0(%rbp),%eax
   1cc02:	48 98                	cltq   
   1cc04:	48 89 d6             	mov    %rdx,%rsi
   1cc07:	48 89 c7             	mov    %rax,%rdi
   1cc0a:	e8 1f 04 ff ff       	callq  d02e <safe_add_func_uint64_t_u_u>
   1cc0f:	44 89 ee             	mov    %r13d,%esi
   1cc12:	bf 01 00 00 00       	mov    $0x1,%edi
   1cc17:	e8 b8 f5 fe ff       	callq  c1d4 <safe_add_func_int8_t_s_s>
   1cc1c:	84 c0                	test   %al,%al
   1cc1e:	74 07                	je     1cc27 <func_62+0x248c>
   1cc20:	b8 01 00 00 00       	mov    $0x1,%eax
   1cc25:	eb 05                	jmp    1cc2c <func_62+0x2491>
   1cc27:	b8 00 00 00 00       	mov    $0x0,%eax
   1cc2c:	48 98                	cltq   
   1cc2e:	4c 89 e6             	mov    %r12,%rsi
   1cc31:	48 89 c7             	mov    %rax,%rdi
   1cc34:	e8 be fd fe ff       	callq  c9f7 <safe_div_func_int64_t_s_s>
   1cc39:	0f be c0             	movsbl %al,%eax
   1cc3c:	89 de                	mov    %ebx,%esi
   1cc3e:	89 c7                	mov    %eax,%edi
   1cc40:	e8 cd f5 fe ff       	callq  c212 <safe_mul_func_int8_t_s_s>
   1cc45:	be 01 00 00 00       	mov    $0x1,%esi
   1cc4a:	bf 01 00 00 00       	mov    $0x1,%edi
   1cc4f:	e8 60 fd fe ff       	callq  c9b4 <safe_mod_func_int64_t_s_s>
   1cc54:	0f be c0             	movsbl %al,%eax
   1cc57:	be c6 ff ff ff       	mov    $0xffffffc6,%esi
   1cc5c:	89 c7                	mov    %eax,%edi
   1cc5e:	e8 07 f6 fe ff       	callq  c26a <safe_div_func_int8_t_s_s>
   1cc63:	89 c2                	mov    %eax,%edx
   1cc65:	48 8b 85 38 f4 ff ff 	mov    -0xbc8(%rbp),%rax
   1cc6c:	88 10                	mov    %dl,(%rax)
   1cc6e:	0f b6 05 0b 85 00 00 	movzbl 0x850b(%rip),%eax        # 25180 <g_80>
   1cc75:	48 0f be c0          	movsbq %al,%rax
   1cc79:	48 be 25 95 e1 40 12 	movabs $0xd49e831240e19525,%rsi
   1cc80:	83 9e d4 
   1cc83:	48 89 c7             	mov    %rax,%rdi
   1cc86:	e8 f5 03 ff ff       	callq  d080 <safe_mod_func_uint64_t_u_u>
   1cc8b:	98                   	cwtl   
   1cc8c:	89 c6                	mov    %eax,%esi
   1cc8e:	bf 01 00 00 00       	mov    $0x1,%edi
   1cc93:	e8 bd f7 fe ff       	callq  c455 <safe_div_func_int16_t_s_s>
   1cc98:	48 be e1 83 92 74 87 	movabs $0xb0ac4d87749283e1,%rsi
   1cc9f:	4d ac b0 
   1cca2:	bf 01 00 00 00       	mov    $0x1,%edi
   1cca7:	e8 4b fd fe ff       	callq  c9f7 <safe_div_func_int64_t_s_s>
   1ccac:	44 31 f0             	xor    %r14d,%eax
   1ccaf:	89 c2                	mov    %eax,%edx
   1ccb1:	8b 85 78 f3 ff ff    	mov    -0xc88(%rbp),%eax
   1ccb7:	89 c6                	mov    %eax,%esi
   1ccb9:	89 d7                	mov    %edx,%edi
   1ccbb:	e8 f8 01 ff ff       	callq  ceb8 <safe_add_func_uint32_t_u_u>
   1ccc0:	48 8b 95 50 f4 ff ff 	mov    -0xbb0(%rbp),%rdx
   1ccc7:	8b 12                	mov    (%rdx),%edx
   1ccc9:	09 d0                	or     %edx,%eax
   1cccb:	89 c2                	mov    %eax,%edx
   1cccd:	48 8b 85 50 f4 ff ff 	mov    -0xbb0(%rbp),%rax
   1ccd4:	89 10                	mov    %edx,(%rax)
   1ccd6:	8b 05 e0 84 00 00    	mov    0x84e0(%rip),%eax        # 251bc <g_248>
   1ccdc:	85 c0                	test   %eax,%eax
   1ccde:	0f 85 58 01 00 00    	jne    1ce3c <func_62+0x26a1>
   1cce4:	8b 05 a2 84 00 00    	mov    0x84a2(%rip),%eax        # 2518c <g_127>
   1ccea:	0f be d8             	movsbl %al,%ebx
   1cced:	8b 85 08 f4 ff ff    	mov    -0xbf8(%rbp),%eax
   1ccf3:	85 c0                	test   %eax,%eax
   1ccf5:	75 4f                	jne    1cd46 <func_62+0x25ab>
   1ccf7:	48 8b 05 aa 84 00 00 	mov    0x84aa(%rip),%rax        # 251a8 <g_184>
   1ccfe:	48 3d b4 cf f9 28    	cmp    $0x28f9cfb4,%rax
   1cd04:	0f 97 c0             	seta   %al
   1cd07:	0f b6 c0             	movzbl %al,%eax
   1cd0a:	39 85 78 f3 ff ff    	cmp    %eax,-0xc88(%rbp)
   1cd10:	0f 97 c0             	seta   %al
   1cd13:	0f b6 d0             	movzbl %al,%edx
   1cd16:	0f b7 85 9c f3 ff ff 	movzwl -0xc64(%rbp),%eax
   1cd1d:	39 c2                	cmp    %eax,%edx
   1cd1f:	0f 9d c0             	setge  %al
   1cd22:	0f b6 d0             	movzbl %al,%edx
   1cd25:	0f b7 85 7c f3 ff ff 	movzwl -0xc84(%rbp),%eax
   1cd2c:	89 d6                	mov    %edx,%esi
   1cd2e:	89 c7                	mov    %eax,%edi
   1cd30:	e8 08 00 ff ff       	callq  cd3d <safe_mul_func_uint16_t_u_u>
   1cd35:	66 89 05 84 84 00 00 	mov    %ax,0x8484(%rip)        # 251c0 <g_266>
   1cd3c:	0f b7 05 7d 84 00 00 	movzwl 0x847d(%rip),%eax        # 251c0 <g_266>
   1cd43:	66 85 c0             	test   %ax,%ax
   1cd46:	48 8b 85 38 f4 ff ff 	mov    -0xbc8(%rbp),%rax
   1cd4d:	c6 00 01             	movb   $0x1,(%rax)
   1cd50:	48 8b 85 38 f4 ff ff 	mov    -0xbc8(%rbp),%rax
   1cd57:	0f b6 00             	movzbl (%rax),%eax
   1cd5a:	3c f8                	cmp    $0xf8,%al
   1cd5c:	0f 97 c0             	seta   %al
   1cd5f:	0f b6 c0             	movzbl %al,%eax
   1cd62:	89 85 08 f4 ff ff    	mov    %eax,-0xbf8(%rbp)
   1cd68:	48 8b 85 70 f3 ff ff 	mov    -0xc90(%rbp),%rax
   1cd6f:	c6 00 00             	movb   $0x0,(%rax)
   1cd72:	48 8b 85 70 f3 ff ff 	mov    -0xc90(%rbp),%rax
   1cd79:	0f b6 00             	movzbl (%rax),%eax
   1cd7c:	0f be c0             	movsbl %al,%eax
   1cd7f:	89 85 a4 f3 ff ff    	mov    %eax,-0xc5c(%rbp)
   1cd85:	8b 95 a4 f3 ff ff    	mov    -0xc5c(%rbp),%edx
   1cd8b:	8b 05 d7 83 00 00    	mov    0x83d7(%rip),%eax        # 25168 <g_12>
   1cd91:	39 c2                	cmp    %eax,%edx
   1cd93:	0f 9d c0             	setge  %al
   1cd96:	89 c2                	mov    %eax,%edx
   1cd98:	8b 85 d4 f3 ff ff    	mov    -0xc2c(%rbp),%eax
   1cd9e:	09 d0                	or     %edx,%eax
   1cda0:	0f be c0             	movsbl %al,%eax
   1cda3:	89 de                	mov    %ebx,%esi
   1cda5:	89 c7                	mov    %eax,%edi
   1cda7:	e8 66 f4 fe ff       	callq  c212 <safe_mul_func_int8_t_s_s>
   1cdac:	c7 85 ac f3 ff ff 01 	movl   $0x1,-0xc54(%rbp)
   1cdb3:	00 00 00 
   1cdb6:	66 83 bd 7c f3 ff ff 	cmpw   $0x0,-0xc84(%rbp)
   1cdbd:	00 
   1cdbe:	8b 05 98 82 00 00    	mov    0x8298(%rip),%eax        # 2505c <g_3+0x1c>
   1cdc4:	48 63 d0             	movslq %eax,%rdx
   1cdc7:	48 8b 85 40 f4 ff ff 	mov    -0xbc0(%rbp),%rax
   1cdce:	48 89 10             	mov    %rdx,(%rax)
   1cdd1:	48 8b 85 40 f4 ff ff 	mov    -0xbc0(%rbp),%rax
   1cdd8:	48 8b 00             	mov    (%rax),%rax
   1cddb:	48 85 c0             	test   %rax,%rax
   1cdde:	0f 94 c0             	sete   %al
   1cde1:	0f b6 c0             	movzbl %al,%eax
   1cde4:	89 c6                	mov    %eax,%esi
   1cde6:	bf 59 00 00 00       	mov    $0x59,%edi
   1cdeb:	e8 a3 fd fe ff       	callq  cb93 <safe_mul_func_uint8_t_u_u>
   1cdf0:	3c 5d                	cmp    $0x5d,%al
   1cdf2:	0f 97 c0             	seta   %al
   1cdf5:	0f b6 c0             	movzbl %al,%eax
   1cdf8:	89 c6                	mov    %eax,%esi
   1cdfa:	bf 5d 00 00 00       	mov    $0x5d,%edi
   1cdff:	e8 0e f4 fe ff       	callq  c212 <safe_mul_func_int8_t_s_s>
   1ce04:	0f be c0             	movsbl %al,%eax
   1ce07:	be 0f 00 00 00       	mov    $0xf,%esi
   1ce0c:	89 c7                	mov    %eax,%edi
   1ce0e:	e8 50 f7 fe ff       	callq  c563 <safe_rshift_func_int16_t_s_u>
   1ce13:	48 8b 05 ee b2 00 00 	mov    0xb2ee(%rip),%rax        # 28108 <g_311>
   1ce1a:	48 85 c0             	test   %rax,%rax
   1ce1d:	0f 95 c0             	setne  %al
   1ce20:	0f b6 d0             	movzbl %al,%edx
   1ce23:	48 8b 85 58 f4 ff ff 	mov    -0xba8(%rbp),%rax
   1ce2a:	89 10                	mov    %edx,(%rax)
   1ce2c:	0f b6 05 90 83 00 00 	movzbl 0x8390(%rip),%eax        # 251c3 <g_323>
   1ce33:	83 c0 01             	add    $0x1,%eax
   1ce36:	88 05 87 83 00 00    	mov    %al,0x8387(%rip)        # 251c3 <g_323>
   1ce3c:	8b 85 a0 f3 ff ff    	mov    -0xc60(%rbp),%eax
   1ce42:	83 e8 01             	sub    $0x1,%eax
   1ce45:	89 85 a0 f3 ff ff    	mov    %eax,-0xc60(%rbp)
   1ce4b:	8b 85 a0 f3 ff ff    	mov    -0xc60(%rbp),%eax
   1ce51:	85 c0                	test   %eax,%eax
   1ce53:	0f 89 52 f2 ff ff    	jns    1c0ab <func_62+0x1910>
   1ce59:	0f b6 05 30 83 00 00 	movzbl 0x8330(%rip),%eax        # 25190 <g_161>
   1ce60:	83 c0 01             	add    $0x1,%eax
   1ce63:	88 05 27 83 00 00    	mov    %al,0x8327(%rip)        # 25190 <g_161>
   1ce69:	0f b6 05 20 83 00 00 	movzbl 0x8320(%rip),%eax        # 25190 <g_161>
   1ce70:	3c 04                	cmp    $0x4,%al
   1ce72:	0f 86 84 dd ff ff    	jbe    1abfc <func_62+0x461>
   1ce78:	c7 05 32 83 00 00 14 	movl   $0x14,0x8332(%rip)        # 251b4 <g_213>
   1ce7f:	00 00 00 
   1ce82:	e9 d8 00 00 00       	jmpq   1cf5f <func_62+0x27c4>
   1ce87:	c7 85 dc f3 ff ff e0 	movl   $0x265da1e0,-0xc24(%rbp)
   1ce8e:	a1 5d 26 
   1ce91:	0f b7 85 6e f5 ff ff 	movzwl -0xa92(%rbp),%eax
   1ce98:	0f b7 d8             	movzwl %ax,%ebx
   1ce9b:	8b 95 78 f3 ff ff    	mov    -0xc88(%rbp),%edx
   1cea1:	8b 85 dc f3 ff ff    	mov    -0xc24(%rbp),%eax
   1cea7:	83 e0 01             	and    $0x1,%eax
   1ceaa:	89 c1                	mov    %eax,%ecx
   1ceac:	8b 05 02 82 00 00    	mov    0x8202(%rip),%eax        # 250b4 <g_3+0x74>
   1ceb2:	39 c1                	cmp    %eax,%ecx
   1ceb4:	73 11                	jae    1cec7 <func_62+0x272c>
   1ceb6:	66 83 bd 7c f3 ff ff 	cmpw   $0x0,-0xc84(%rbp)
   1cebd:	00 
   1cebe:	74 07                	je     1cec7 <func_62+0x272c>
   1cec0:	b8 01 00 00 00       	mov    $0x1,%eax
   1cec5:	eb 05                	jmp    1cecc <func_62+0x2731>
   1cec7:	b8 00 00 00 00       	mov    $0x0,%eax
   1cecc:	98                   	cwtl   
   1cecd:	89 d6                	mov    %edx,%esi
   1cecf:	89 c7                	mov    %eax,%edi
   1ced1:	e8 bc f5 fe ff       	callq  c492 <safe_lshift_func_int16_t_s_s>
   1ced6:	98                   	cwtl   
   1ced7:	be 02 00 00 00       	mov    $0x2,%esi
   1cedc:	89 c7                	mov    %eax,%edi
   1cede:	e8 80 f6 fe ff       	callq  c563 <safe_rshift_func_int16_t_s_u>
   1cee3:	48 8b 85 f0 f3 ff ff 	mov    -0xc10(%rbp),%rax
   1ceea:	48 8d 15 b7 82 00 00 	lea    0x82b7(%rip),%rdx        # 251a8 <g_184>
   1cef1:	48 39 d0             	cmp    %rdx,%rax
   1cef4:	0f 95 c0             	setne  %al
   1cef7:	0f b6 d0             	movzbl %al,%edx
   1cefa:	0f b6 05 8f 82 00 00 	movzbl 0x828f(%rip),%eax        # 25190 <g_161>
   1cf01:	0f b6 c0             	movzbl %al,%eax
   1cf04:	89 d6                	mov    %edx,%esi
   1cf06:	89 c7                	mov    %eax,%edi
   1cf08:	e8 b1 fe fe ff       	callq  cdbe <safe_lshift_func_uint16_t_u_s>
   1cf0d:	0f b7 c0             	movzwl %ax,%eax
   1cf10:	89 de                	mov    %ebx,%esi
   1cf12:	89 c7                	mov    %eax,%edi
   1cf14:	e8 06 fe fe ff       	callq  cd1f <safe_sub_func_uint16_t_u_u>
   1cf19:	8b 95 28 f6 ff ff    	mov    -0x9d8(%rbp),%edx
   1cf1f:	0f b7 c0             	movzwl %ax,%eax
   1cf22:	31 d0                	xor    %edx,%eax
   1cf24:	89 85 28 f6 ff ff    	mov    %eax,-0x9d8(%rbp)
   1cf2a:	66 83 bd 7c f3 ff ff 	cmpw   $0x0,-0xc84(%rbp)
   1cf31:	00 
   1cf32:	75 10                	jne    1cf44 <func_62+0x27a9>
   1cf34:	48 8d 05 2d 82 00 00 	lea    0x822d(%rip),%rax        # 25168 <g_12>
   1cf3b:	48 89 05 76 ca 00 00 	mov    %rax,0xca76(%rip)        # 299b8 <g_340>
   1cf42:	eb 01                	jmp    1cf45 <func_62+0x27aa>
   1cf44:	90                   	nop
   1cf45:	8b 05 69 82 00 00    	mov    0x8269(%rip),%eax        # 251b4 <g_213>
   1cf4b:	98                   	cwtl   
   1cf4c:	be 08 00 00 00       	mov    $0x8,%esi
   1cf51:	89 c7                	mov    %eax,%edi
   1cf53:	e8 7b f4 fe ff       	callq  c3d3 <safe_sub_func_int16_t_s_s>
   1cf58:	98                   	cwtl   
   1cf59:	89 05 55 82 00 00    	mov    %eax,0x8255(%rip)        # 251b4 <g_213>
   1cf5f:	8b 05 4f 82 00 00    	mov    0x824f(%rip),%eax        # 251b4 <g_213>
   1cf65:	83 f8 0e             	cmp    $0xe,%eax
   1cf68:	0f 8f 19 ff ff ff    	jg     1ce87 <func_62+0x26ec>
   1cf6e:	8b 05 48 82 00 00    	mov    0x8248(%rip),%eax        # 251bc <g_248>
   1cf74:	83 c0 01             	add    $0x1,%eax
   1cf77:	89 05 3f 82 00 00    	mov    %eax,0x823f(%rip)        # 251bc <g_248>
   1cf7d:	8b 15 39 82 00 00    	mov    0x8239(%rip),%edx        # 251bc <g_248>
   1cf83:	8b 85 d8 f3 ff ff    	mov    -0xc28(%rbp),%eax
   1cf89:	21 d0                	and    %edx,%eax
   1cf8b:	85 c0                	test   %eax,%eax
   1cf8d:	74 4c                	je     1cfdb <func_62+0x2840>
   1cf8f:	48 8b 85 70 f3 ff ff 	mov    -0xc90(%rbp),%rax
   1cf96:	0f b6 00             	movzbl (%rax),%eax
   1cf99:	0f b6 c0             	movzbl %al,%eax
   1cf9c:	89 c6                	mov    %eax,%esi
   1cf9e:	bf 01 00 00 00       	mov    $0x1,%edi
   1cfa3:	e8 b2 fb fe ff       	callq  cb5a <safe_add_func_uint8_t_u_u>
   1cfa8:	0f b6 c0             	movzbl %al,%eax
   1cfab:	be 04 00 00 00       	mov    $0x4,%esi
   1cfb0:	89 c7                	mov    %eax,%edi
   1cfb2:	e8 19 ff fe ff       	callq  ced0 <safe_sub_func_uint32_t_u_u>
   1cfb7:	85 c0                	test   %eax,%eax
   1cfb9:	74 0a                	je     1cfc5 <func_62+0x282a>
   1cfbb:	0f b7 85 78 f5 ff ff 	movzwl -0xa88(%rbp),%eax
   1cfc2:	66 85 c0             	test   %ax,%ax
   1cfc5:	48 8b 05 34 b1 00 00 	mov    0xb134(%rip),%rax        # 28100 <g_124>
   1cfcc:	48 8b 00             	mov    (%rax),%rax
   1cfcf:	48 85 c0             	test   %rax,%rax
   1cfd2:	74 07                	je     1cfdb <func_62+0x2840>
   1cfd4:	ba 01 00 00 00       	mov    $0x1,%edx
   1cfd9:	eb 05                	jmp    1cfe0 <func_62+0x2845>
   1cfdb:	ba 00 00 00 00       	mov    $0x0,%edx
   1cfe0:	48 8b 85 20 f4 ff ff 	mov    -0xbe0(%rbp),%rax
   1cfe7:	89 10                	mov    %edx,(%rax)
   1cfe9:	83 85 78 f3 ff ff 01 	addl   $0x1,-0xc88(%rbp)
   1cff0:	83 bd 78 f3 ff ff 29 	cmpl   $0x29,-0xc88(%rbp)
   1cff7:	0f 86 ef d9 ff ff    	jbe    1a9ec <func_62+0x251>
   1cffd:	0f b7 85 6c f5 ff ff 	movzwl -0xa94(%rbp),%eax
   1d004:	48 0f bf c0          	movswq %ax,%rax
   1d008:	48 8b 5d d8          	mov    -0x28(%rbp),%rbx
   1d00c:	64 48 33 1c 25 28 00 	xor    %fs:0x28,%rbx
   1d013:	00 00 
   1d015:	74 05                	je     1d01c <func_62+0x2881>
   1d017:	e8 54 f0 fe ff       	callq  c070 <__stack_chk_fail@plt>
   1d01c:	48 81 c4 70 0c 00 00 	add    $0xc70,%rsp
   1d023:	5b                   	pop    %rbx
   1d024:	41 5c                	pop    %r12
   1d026:	41 5d                	pop    %r13
   1d028:	41 5e                	pop    %r14
   1d02a:	5d                   	pop    %rbp
   1d02b:	c3                   	retq   

000000000001d02c <func_68>:
   1d02c:	f3 0f 1e fa          	endbr64 
   1d030:	55                   	push   %rbp
   1d031:	48 89 e5             	mov    %rsp,%rbp
   1d034:	41 57                	push   %r15
   1d036:	41 56                	push   %r14
   1d038:	41 55                	push   %r13
   1d03a:	41 54                	push   %r12
   1d03c:	53                   	push   %rbx
   1d03d:	48 81 ec d8 09 00 00 	sub    $0x9d8,%rsp
   1d044:	48 89 bd 18 f6 ff ff 	mov    %rdi,-0x9e8(%rbp)
   1d04b:	48 89 b5 10 f6 ff ff 	mov    %rsi,-0x9f0(%rbp)
   1d052:	89 95 0c f6 ff ff    	mov    %edx,-0x9f4(%rbp)
   1d058:	64 48 8b 04 25 28 00 	mov    %fs:0x28,%rax
   1d05f:	00 00 
   1d061:	48 89 45 c8          	mov    %rax,-0x38(%rbp)
   1d065:	31 c0                	xor    %eax,%eax
   1d067:	c6 85 2f f6 ff ff 33 	movb   $0x33,-0x9d1(%rbp)
   1d06e:	48 c7 85 50 f6 ff ff 	movq   $0x0,-0x9b0(%rbp)
   1d075:	00 00 00 00 
   1d079:	48 8d 05 04 81 00 00 	lea    0x8104(%rip),%rax        # 25184 <g_92>
   1d080:	48 89 85 58 f6 ff ff 	mov    %rax,-0x9a8(%rbp)
   1d087:	48 8d 05 fa 80 00 00 	lea    0x80fa(%rip),%rax        # 25188 <g_98>
   1d08e:	48 89 85 60 f6 ff ff 	mov    %rax,-0x9a0(%rbp)
   1d095:	0f b6 85 2f f6 ff ff 	movzbl -0x9d1(%rbp),%eax
   1d09c:	0f be d0             	movsbl %al,%edx
   1d09f:	48 8b 85 58 f6 ff ff 	mov    -0x9a8(%rbp),%rax
   1d0a6:	89 10                	mov    %edx,(%rax)
   1d0a8:	48 8b 85 58 f6 ff ff 	mov    -0x9a8(%rbp),%rax
   1d0af:	8b 10                	mov    (%rax),%edx
   1d0b1:	48 8b 85 60 f6 ff ff 	mov    -0x9a0(%rbp),%rax
   1d0b8:	8b 00                	mov    (%rax),%eax
   1d0ba:	09 c2                	or     %eax,%edx
   1d0bc:	48 8b 85 60 f6 ff ff 	mov    -0x9a0(%rbp),%rax
   1d0c3:	89 10                	mov    %edx,(%rax)
   1d0c5:	c6 05 b4 80 00 00 00 	movb   $0x0,0x80b4(%rip)        # 25180 <g_80>
   1d0cc:	e9 ee 10 00 00       	jmpq   1e1bf <func_68+0x1193>
   1d0d1:	48 c7 85 68 f6 ff ff 	movq   $0x0,-0x998(%rbp)
   1d0d8:	00 00 00 00 
   1d0dc:	c7 85 34 f6 ff ff f9 	movl   $0xfffffff9,-0x9cc(%rbp)
   1d0e3:	ff ff ff 
   1d0e6:	48 c7 85 48 f6 ff ff 	movq   $0x0,-0x9b8(%rbp)
   1d0ed:	00 00 00 00 
   1d0f1:	48 8d 85 48 f6 ff ff 	lea    -0x9b8(%rbp),%rax
   1d0f8:	48 89 85 40 f8 ff ff 	mov    %rax,-0x7c0(%rbp)
   1d0ff:	48 c7 85 48 f8 ff ff 	movq   $0x0,-0x7b8(%rbp)
   1d106:	00 00 00 00 
   1d10a:	48 8d 85 48 f6 ff ff 	lea    -0x9b8(%rbp),%rax
   1d111:	48 89 85 50 f8 ff ff 	mov    %rax,-0x7b0(%rbp)
   1d118:	48 c7 85 58 f8 ff ff 	movq   $0x0,-0x7a8(%rbp)
   1d11f:	00 00 00 00 
   1d123:	48 8d 85 48 f6 ff ff 	lea    -0x9b8(%rbp),%rax
   1d12a:	48 89 85 60 f8 ff ff 	mov    %rax,-0x7a0(%rbp)
   1d131:	48 8d 85 48 f6 ff ff 	lea    -0x9b8(%rbp),%rax
   1d138:	48 89 85 68 f8 ff ff 	mov    %rax,-0x798(%rbp)
   1d13f:	48 c7 85 70 f8 ff ff 	movq   $0x0,-0x790(%rbp)
   1d146:	00 00 00 00 
   1d14a:	48 8d 85 48 f6 ff ff 	lea    -0x9b8(%rbp),%rax
   1d151:	48 89 85 78 f8 ff ff 	mov    %rax,-0x788(%rbp)
   1d158:	48 8d 85 48 f6 ff ff 	lea    -0x9b8(%rbp),%rax
   1d15f:	48 89 85 80 f8 ff ff 	mov    %rax,-0x780(%rbp)
   1d166:	48 c7 85 88 f8 ff ff 	movq   $0x0,-0x778(%rbp)
   1d16d:	00 00 00 00 
   1d171:	48 8d 85 48 f6 ff ff 	lea    -0x9b8(%rbp),%rax
   1d178:	48 89 85 90 f8 ff ff 	mov    %rax,-0x770(%rbp)
   1d17f:	48 8d 85 48 f6 ff ff 	lea    -0x9b8(%rbp),%rax
   1d186:	48 89 85 98 f8 ff ff 	mov    %rax,-0x768(%rbp)
   1d18d:	48 8d 85 48 f6 ff ff 	lea    -0x9b8(%rbp),%rax
   1d194:	48 89 85 a0 f8 ff ff 	mov    %rax,-0x760(%rbp)
   1d19b:	48 8d 85 48 f6 ff ff 	lea    -0x9b8(%rbp),%rax
   1d1a2:	48 89 85 a8 f8 ff ff 	mov    %rax,-0x758(%rbp)
   1d1a9:	48 8d 85 48 f6 ff ff 	lea    -0x9b8(%rbp),%rax
   1d1b0:	48 89 85 b0 f8 ff ff 	mov    %rax,-0x750(%rbp)
   1d1b7:	48 8d 85 48 f6 ff ff 	lea    -0x9b8(%rbp),%rax
   1d1be:	48 89 85 b8 f8 ff ff 	mov    %rax,-0x748(%rbp)
   1d1c5:	48 8d 85 48 f6 ff ff 	lea    -0x9b8(%rbp),%rax
   1d1cc:	48 89 85 c0 f8 ff ff 	mov    %rax,-0x740(%rbp)
   1d1d3:	48 8d 85 48 f6 ff ff 	lea    -0x9b8(%rbp),%rax
   1d1da:	48 89 85 c8 f8 ff ff 	mov    %rax,-0x738(%rbp)
   1d1e1:	48 8d 85 48 f6 ff ff 	lea    -0x9b8(%rbp),%rax
   1d1e8:	48 89 85 d0 f8 ff ff 	mov    %rax,-0x730(%rbp)
   1d1ef:	48 8d 85 48 f6 ff ff 	lea    -0x9b8(%rbp),%rax
   1d1f6:	48 89 85 d8 f8 ff ff 	mov    %rax,-0x728(%rbp)
   1d1fd:	48 8d 85 48 f6 ff ff 	lea    -0x9b8(%rbp),%rax
   1d204:	48 89 85 e0 f8 ff ff 	mov    %rax,-0x720(%rbp)
   1d20b:	48 8d 85 48 f6 ff ff 	lea    -0x9b8(%rbp),%rax
   1d212:	48 89 85 e8 f8 ff ff 	mov    %rax,-0x718(%rbp)
   1d219:	48 8d 85 48 f6 ff ff 	lea    -0x9b8(%rbp),%rax
   1d220:	48 89 85 f0 f8 ff ff 	mov    %rax,-0x710(%rbp)
   1d227:	48 8d 85 48 f6 ff ff 	lea    -0x9b8(%rbp),%rax
   1d22e:	48 89 85 f8 f8 ff ff 	mov    %rax,-0x708(%rbp)
   1d235:	48 8d 85 48 f6 ff ff 	lea    -0x9b8(%rbp),%rax
   1d23c:	48 89 85 00 f9 ff ff 	mov    %rax,-0x700(%rbp)
   1d243:	48 8d 85 48 f6 ff ff 	lea    -0x9b8(%rbp),%rax
   1d24a:	48 89 85 08 f9 ff ff 	mov    %rax,-0x6f8(%rbp)
   1d251:	48 8d 85 48 f6 ff ff 	lea    -0x9b8(%rbp),%rax
   1d258:	48 89 85 10 f9 ff ff 	mov    %rax,-0x6f0(%rbp)
   1d25f:	48 8d 85 48 f6 ff ff 	lea    -0x9b8(%rbp),%rax
   1d266:	48 89 85 18 f9 ff ff 	mov    %rax,-0x6e8(%rbp)
   1d26d:	48 8d 85 48 f6 ff ff 	lea    -0x9b8(%rbp),%rax
   1d274:	48 89 85 20 f9 ff ff 	mov    %rax,-0x6e0(%rbp)
   1d27b:	48 8d 85 48 f6 ff ff 	lea    -0x9b8(%rbp),%rax
   1d282:	48 89 85 28 f9 ff ff 	mov    %rax,-0x6d8(%rbp)
   1d289:	48 8d 85 48 f6 ff ff 	lea    -0x9b8(%rbp),%rax
   1d290:	48 89 85 30 f9 ff ff 	mov    %rax,-0x6d0(%rbp)
   1d297:	48 c7 85 38 f9 ff ff 	movq   $0x0,-0x6c8(%rbp)
   1d29e:	00 00 00 00 
   1d2a2:	48 8d 85 48 f6 ff ff 	lea    -0x9b8(%rbp),%rax
   1d2a9:	48 89 85 40 f9 ff ff 	mov    %rax,-0x6c0(%rbp)
   1d2b0:	48 c7 85 48 f9 ff ff 	movq   $0x0,-0x6b8(%rbp)
   1d2b7:	00 00 00 00 
   1d2bb:	48 8d 85 48 f6 ff ff 	lea    -0x9b8(%rbp),%rax
   1d2c2:	48 89 85 50 f9 ff ff 	mov    %rax,-0x6b0(%rbp)
   1d2c9:	48 8d 85 48 f6 ff ff 	lea    -0x9b8(%rbp),%rax
   1d2d0:	48 89 85 58 f9 ff ff 	mov    %rax,-0x6a8(%rbp)
   1d2d7:	48 c7 85 60 f9 ff ff 	movq   $0x0,-0x6a0(%rbp)
   1d2de:	00 00 00 00 
   1d2e2:	48 8d 85 48 f6 ff ff 	lea    -0x9b8(%rbp),%rax
   1d2e9:	48 89 85 68 f9 ff ff 	mov    %rax,-0x698(%rbp)
   1d2f0:	48 8d 85 48 f6 ff ff 	lea    -0x9b8(%rbp),%rax
   1d2f7:	48 89 85 70 f9 ff ff 	mov    %rax,-0x690(%rbp)
   1d2fe:	48 c7 85 78 f9 ff ff 	movq   $0x0,-0x688(%rbp)
   1d305:	00 00 00 00 
   1d309:	48 8d 85 48 f6 ff ff 	lea    -0x9b8(%rbp),%rax
   1d310:	48 89 85 80 f9 ff ff 	mov    %rax,-0x680(%rbp)
   1d317:	48 8d 85 48 f6 ff ff 	lea    -0x9b8(%rbp),%rax
   1d31e:	48 89 85 88 f9 ff ff 	mov    %rax,-0x678(%rbp)
   1d325:	48 8d 85 48 f6 ff ff 	lea    -0x9b8(%rbp),%rax
   1d32c:	48 89 85 90 f9 ff ff 	mov    %rax,-0x670(%rbp)
   1d333:	48 8d 85 48 f6 ff ff 	lea    -0x9b8(%rbp),%rax
   1d33a:	48 89 85 98 f9 ff ff 	mov    %rax,-0x668(%rbp)
   1d341:	48 8d 85 48 f6 ff ff 	lea    -0x9b8(%rbp),%rax
   1d348:	48 89 85 a0 f9 ff ff 	mov    %rax,-0x660(%rbp)
   1d34f:	48 8d 85 48 f6 ff ff 	lea    -0x9b8(%rbp),%rax
   1d356:	48 89 85 a8 f9 ff ff 	mov    %rax,-0x658(%rbp)
   1d35d:	48 8d 85 48 f6 ff ff 	lea    -0x9b8(%rbp),%rax
   1d364:	48 89 85 b0 f9 ff ff 	mov    %rax,-0x650(%rbp)
   1d36b:	48 8d 85 48 f6 ff ff 	lea    -0x9b8(%rbp),%rax
   1d372:	48 89 85 b8 f9 ff ff 	mov    %rax,-0x648(%rbp)
   1d379:	48 8d 85 48 f6 ff ff 	lea    -0x9b8(%rbp),%rax
   1d380:	48 89 85 c0 f9 ff ff 	mov    %rax,-0x640(%rbp)
   1d387:	48 8d 85 48 f6 ff ff 	lea    -0x9b8(%rbp),%rax
   1d38e:	48 89 85 c8 f9 ff ff 	mov    %rax,-0x638(%rbp)
   1d395:	48 8d 85 48 f6 ff ff 	lea    -0x9b8(%rbp),%rax
   1d39c:	48 89 85 d0 f9 ff ff 	mov    %rax,-0x630(%rbp)
   1d3a3:	48 8d 85 48 f6 ff ff 	lea    -0x9b8(%rbp),%rax
   1d3aa:	48 89 85 d8 f9 ff ff 	mov    %rax,-0x628(%rbp)
   1d3b1:	48 8d 85 48 f6 ff ff 	lea    -0x9b8(%rbp),%rax
   1d3b8:	48 89 85 e0 f9 ff ff 	mov    %rax,-0x620(%rbp)
   1d3bf:	48 8d 85 48 f6 ff ff 	lea    -0x9b8(%rbp),%rax
   1d3c6:	48 89 85 e8 f9 ff ff 	mov    %rax,-0x618(%rbp)
   1d3cd:	48 8d 85 48 f6 ff ff 	lea    -0x9b8(%rbp),%rax
   1d3d4:	48 89 85 f0 f9 ff ff 	mov    %rax,-0x610(%rbp)
   1d3db:	48 8d 85 48 f6 ff ff 	lea    -0x9b8(%rbp),%rax
   1d3e2:	48 89 85 f8 f9 ff ff 	mov    %rax,-0x608(%rbp)
   1d3e9:	48 8d 85 48 f6 ff ff 	lea    -0x9b8(%rbp),%rax
   1d3f0:	48 89 85 00 fa ff ff 	mov    %rax,-0x600(%rbp)
   1d3f7:	48 8d 85 48 f6 ff ff 	lea    -0x9b8(%rbp),%rax
   1d3fe:	48 89 85 08 fa ff ff 	mov    %rax,-0x5f8(%rbp)
   1d405:	48 8d 85 48 f6 ff ff 	lea    -0x9b8(%rbp),%rax
   1d40c:	48 89 85 10 fa ff ff 	mov    %rax,-0x5f0(%rbp)
   1d413:	48 8d 85 48 f6 ff ff 	lea    -0x9b8(%rbp),%rax
   1d41a:	48 89 85 18 fa ff ff 	mov    %rax,-0x5e8(%rbp)
   1d421:	48 8d 85 48 f6 ff ff 	lea    -0x9b8(%rbp),%rax
   1d428:	48 89 85 20 fa ff ff 	mov    %rax,-0x5e0(%rbp)
   1d42f:	48 c7 85 28 fa ff ff 	movq   $0x0,-0x5d8(%rbp)
   1d436:	00 00 00 00 
   1d43a:	48 8d 85 48 f6 ff ff 	lea    -0x9b8(%rbp),%rax
   1d441:	48 89 85 30 fa ff ff 	mov    %rax,-0x5d0(%rbp)
   1d448:	48 c7 85 38 fa ff ff 	movq   $0x0,-0x5c8(%rbp)
   1d44f:	00 00 00 00 
   1d453:	48 8d 85 48 f6 ff ff 	lea    -0x9b8(%rbp),%rax
   1d45a:	48 89 85 40 fa ff ff 	mov    %rax,-0x5c0(%rbp)
   1d461:	48 8d 85 48 f6 ff ff 	lea    -0x9b8(%rbp),%rax
   1d468:	48 89 85 48 fa ff ff 	mov    %rax,-0x5b8(%rbp)
   1d46f:	48 c7 85 50 fa ff ff 	movq   $0x0,-0x5b0(%rbp)
   1d476:	00 00 00 00 
   1d47a:	48 8d 85 48 f6 ff ff 	lea    -0x9b8(%rbp),%rax
   1d481:	48 89 85 58 fa ff ff 	mov    %rax,-0x5a8(%rbp)
   1d488:	48 8d 85 48 f6 ff ff 	lea    -0x9b8(%rbp),%rax
   1d48f:	48 89 85 60 fa ff ff 	mov    %rax,-0x5a0(%rbp)
   1d496:	48 c7 85 68 fa ff ff 	movq   $0x0,-0x598(%rbp)
   1d49d:	00 00 00 00 
   1d4a1:	48 8d 85 48 f6 ff ff 	lea    -0x9b8(%rbp),%rax
   1d4a8:	48 89 85 70 fa ff ff 	mov    %rax,-0x590(%rbp)
   1d4af:	48 8d 85 48 f6 ff ff 	lea    -0x9b8(%rbp),%rax
   1d4b6:	48 89 85 78 fa ff ff 	mov    %rax,-0x588(%rbp)
   1d4bd:	48 8d 85 48 f6 ff ff 	lea    -0x9b8(%rbp),%rax
   1d4c4:	48 89 85 80 fa ff ff 	mov    %rax,-0x580(%rbp)
   1d4cb:	48 8d 85 48 f6 ff ff 	lea    -0x9b8(%rbp),%rax
   1d4d2:	48 89 85 88 fa ff ff 	mov    %rax,-0x578(%rbp)
   1d4d9:	48 8d 85 48 f6 ff ff 	lea    -0x9b8(%rbp),%rax
   1d4e0:	48 89 85 90 fa ff ff 	mov    %rax,-0x570(%rbp)
   1d4e7:	48 8d 85 48 f6 ff ff 	lea    -0x9b8(%rbp),%rax
   1d4ee:	48 89 85 98 fa ff ff 	mov    %rax,-0x568(%rbp)
   1d4f5:	48 8d 85 48 f6 ff ff 	lea    -0x9b8(%rbp),%rax
   1d4fc:	48 89 85 a0 fa ff ff 	mov    %rax,-0x560(%rbp)
   1d503:	48 8d 85 48 f6 ff ff 	lea    -0x9b8(%rbp),%rax
   1d50a:	48 89 85 a8 fa ff ff 	mov    %rax,-0x558(%rbp)
   1d511:	48 8d 85 48 f6 ff ff 	lea    -0x9b8(%rbp),%rax
   1d518:	48 89 85 b0 fa ff ff 	mov    %rax,-0x550(%rbp)
   1d51f:	48 8d 85 48 f6 ff ff 	lea    -0x9b8(%rbp),%rax
   1d526:	48 89 85 b8 fa ff ff 	mov    %rax,-0x548(%rbp)
   1d52d:	48 8d 85 48 f6 ff ff 	lea    -0x9b8(%rbp),%rax
   1d534:	48 89 85 c0 fa ff ff 	mov    %rax,-0x540(%rbp)
   1d53b:	48 8d 85 48 f6 ff ff 	lea    -0x9b8(%rbp),%rax
   1d542:	48 89 85 c8 fa ff ff 	mov    %rax,-0x538(%rbp)
   1d549:	48 8d 85 48 f6 ff ff 	lea    -0x9b8(%rbp),%rax
   1d550:	48 89 85 d0 fa ff ff 	mov    %rax,-0x530(%rbp)
   1d557:	48 8d 85 48 f6 ff ff 	lea    -0x9b8(%rbp),%rax
   1d55e:	48 89 85 d8 fa ff ff 	mov    %rax,-0x528(%rbp)
   1d565:	48 8d 85 48 f6 ff ff 	lea    -0x9b8(%rbp),%rax
   1d56c:	48 89 85 e0 fa ff ff 	mov    %rax,-0x520(%rbp)
   1d573:	48 8d 85 48 f6 ff ff 	lea    -0x9b8(%rbp),%rax
   1d57a:	48 89 85 e8 fa ff ff 	mov    %rax,-0x518(%rbp)
   1d581:	48 8d 85 48 f6 ff ff 	lea    -0x9b8(%rbp),%rax
   1d588:	48 89 85 f0 fa ff ff 	mov    %rax,-0x510(%rbp)
   1d58f:	48 8d 85 48 f6 ff ff 	lea    -0x9b8(%rbp),%rax
   1d596:	48 89 85 f8 fa ff ff 	mov    %rax,-0x508(%rbp)
   1d59d:	48 8d 85 48 f6 ff ff 	lea    -0x9b8(%rbp),%rax
   1d5a4:	48 89 85 00 fb ff ff 	mov    %rax,-0x500(%rbp)
   1d5ab:	48 8d 85 48 f6 ff ff 	lea    -0x9b8(%rbp),%rax
   1d5b2:	48 89 85 08 fb ff ff 	mov    %rax,-0x4f8(%rbp)
   1d5b9:	48 8d 85 48 f6 ff ff 	lea    -0x9b8(%rbp),%rax
   1d5c0:	48 89 85 10 fb ff ff 	mov    %rax,-0x4f0(%rbp)
   1d5c7:	48 c7 85 18 fb ff ff 	movq   $0x0,-0x4e8(%rbp)
   1d5ce:	00 00 00 00 
   1d5d2:	48 8d 85 48 f6 ff ff 	lea    -0x9b8(%rbp),%rax
   1d5d9:	48 89 85 20 fb ff ff 	mov    %rax,-0x4e0(%rbp)
   1d5e0:	48 c7 85 28 fb ff ff 	movq   $0x0,-0x4d8(%rbp)
   1d5e7:	00 00 00 00 
   1d5eb:	48 8d 85 48 f6 ff ff 	lea    -0x9b8(%rbp),%rax
   1d5f2:	48 89 85 30 fb ff ff 	mov    %rax,-0x4d0(%rbp)
   1d5f9:	48 8d 85 48 f6 ff ff 	lea    -0x9b8(%rbp),%rax
   1d600:	48 89 85 38 fb ff ff 	mov    %rax,-0x4c8(%rbp)
   1d607:	48 c7 85 40 fb ff ff 	movq   $0x0,-0x4c0(%rbp)
   1d60e:	00 00 00 00 
   1d612:	48 8d 85 48 f6 ff ff 	lea    -0x9b8(%rbp),%rax
   1d619:	48 89 85 48 fb ff ff 	mov    %rax,-0x4b8(%rbp)
   1d620:	48 8d 85 48 f6 ff ff 	lea    -0x9b8(%rbp),%rax
   1d627:	48 89 85 50 fb ff ff 	mov    %rax,-0x4b0(%rbp)
   1d62e:	48 c7 85 58 fb ff ff 	movq   $0x0,-0x4a8(%rbp)
   1d635:	00 00 00 00 
   1d639:	48 8d 85 48 f6 ff ff 	lea    -0x9b8(%rbp),%rax
   1d640:	48 89 85 60 fb ff ff 	mov    %rax,-0x4a0(%rbp)
   1d647:	48 8d 85 48 f6 ff ff 	lea    -0x9b8(%rbp),%rax
   1d64e:	48 89 85 68 fb ff ff 	mov    %rax,-0x498(%rbp)
   1d655:	48 8d 85 48 f6 ff ff 	lea    -0x9b8(%rbp),%rax
   1d65c:	48 89 85 70 fb ff ff 	mov    %rax,-0x490(%rbp)
   1d663:	48 8d 85 48 f6 ff ff 	lea    -0x9b8(%rbp),%rax
   1d66a:	48 89 85 78 fb ff ff 	mov    %rax,-0x488(%rbp)
   1d671:	48 8d 85 48 f6 ff ff 	lea    -0x9b8(%rbp),%rax
   1d678:	48 89 85 80 fb ff ff 	mov    %rax,-0x480(%rbp)
   1d67f:	48 8d 85 48 f6 ff ff 	lea    -0x9b8(%rbp),%rax
   1d686:	48 89 85 88 fb ff ff 	mov    %rax,-0x478(%rbp)
   1d68d:	48 8d 85 48 f6 ff ff 	lea    -0x9b8(%rbp),%rax
   1d694:	48 89 85 90 fb ff ff 	mov    %rax,-0x470(%rbp)
   1d69b:	48 8d 85 48 f6 ff ff 	lea    -0x9b8(%rbp),%rax
   1d6a2:	48 89 85 98 fb ff ff 	mov    %rax,-0x468(%rbp)
   1d6a9:	48 8d 85 48 f6 ff ff 	lea    -0x9b8(%rbp),%rax
   1d6b0:	48 89 85 a0 fb ff ff 	mov    %rax,-0x460(%rbp)
   1d6b7:	48 8d 85 48 f6 ff ff 	lea    -0x9b8(%rbp),%rax
   1d6be:	48 89 85 a8 fb ff ff 	mov    %rax,-0x458(%rbp)
   1d6c5:	48 8d 85 48 f6 ff ff 	lea    -0x9b8(%rbp),%rax
   1d6cc:	48 89 85 b0 fb ff ff 	mov    %rax,-0x450(%rbp)
   1d6d3:	48 8d 85 48 f6 ff ff 	lea    -0x9b8(%rbp),%rax
   1d6da:	48 89 85 b8 fb ff ff 	mov    %rax,-0x448(%rbp)
   1d6e1:	48 8d 85 48 f6 ff ff 	lea    -0x9b8(%rbp),%rax
   1d6e8:	48 89 85 c0 fb ff ff 	mov    %rax,-0x440(%rbp)
   1d6ef:	48 8d 85 48 f6 ff ff 	lea    -0x9b8(%rbp),%rax
   1d6f6:	48 89 85 c8 fb ff ff 	mov    %rax,-0x438(%rbp)
   1d6fd:	48 8d 85 48 f6 ff ff 	lea    -0x9b8(%rbp),%rax
   1d704:	48 89 85 d0 fb ff ff 	mov    %rax,-0x430(%rbp)
   1d70b:	48 8d 85 48 f6 ff ff 	lea    -0x9b8(%rbp),%rax
   1d712:	48 89 85 d8 fb ff ff 	mov    %rax,-0x428(%rbp)
   1d719:	48 8d 85 48 f6 ff ff 	lea    -0x9b8(%rbp),%rax
   1d720:	48 89 85 e0 fb ff ff 	mov    %rax,-0x420(%rbp)
   1d727:	48 8d 85 48 f6 ff ff 	lea    -0x9b8(%rbp),%rax
   1d72e:	48 89 85 e8 fb ff ff 	mov    %rax,-0x418(%rbp)
   1d735:	48 8d 85 48 f6 ff ff 	lea    -0x9b8(%rbp),%rax
   1d73c:	48 89 85 f0 fb ff ff 	mov    %rax,-0x410(%rbp)
   1d743:	48 8d 85 48 f6 ff ff 	lea    -0x9b8(%rbp),%rax
   1d74a:	48 89 85 f8 fb ff ff 	mov    %rax,-0x408(%rbp)
   1d751:	48 8d 85 48 f6 ff ff 	lea    -0x9b8(%rbp),%rax
   1d758:	48 89 85 00 fc ff ff 	mov    %rax,-0x400(%rbp)
   1d75f:	48 c7 85 08 fc ff ff 	movq   $0x0,-0x3f8(%rbp)
   1d766:	00 00 00 00 
   1d76a:	48 8d 85 48 f6 ff ff 	lea    -0x9b8(%rbp),%rax
   1d771:	48 89 85 10 fc ff ff 	mov    %rax,-0x3f0(%rbp)
   1d778:	48 c7 85 18 fc ff ff 	movq   $0x0,-0x3e8(%rbp)
   1d77f:	00 00 00 00 
   1d783:	48 8d 85 48 f6 ff ff 	lea    -0x9b8(%rbp),%rax
   1d78a:	48 89 85 20 fc ff ff 	mov    %rax,-0x3e0(%rbp)
   1d791:	48 8d 85 48 f6 ff ff 	lea    -0x9b8(%rbp),%rax
   1d798:	48 89 85 28 fc ff ff 	mov    %rax,-0x3d8(%rbp)
   1d79f:	48 c7 85 30 fc ff ff 	movq   $0x0,-0x3d0(%rbp)
   1d7a6:	00 00 00 00 
   1d7aa:	48 8d 85 48 f6 ff ff 	lea    -0x9b8(%rbp),%rax
   1d7b1:	48 89 85 38 fc ff ff 	mov    %rax,-0x3c8(%rbp)
   1d7b8:	48 8d 85 48 f6 ff ff 	lea    -0x9b8(%rbp),%rax
   1d7bf:	48 89 85 40 fc ff ff 	mov    %rax,-0x3c0(%rbp)
   1d7c6:	48 c7 85 48 fc ff ff 	movq   $0x0,-0x3b8(%rbp)
   1d7cd:	00 00 00 00 
   1d7d1:	48 8d 85 48 f6 ff ff 	lea    -0x9b8(%rbp),%rax
   1d7d8:	48 89 85 50 fc ff ff 	mov    %rax,-0x3b0(%rbp)
   1d7df:	48 8d 85 48 f6 ff ff 	lea    -0x9b8(%rbp),%rax
   1d7e6:	48 89 85 58 fc ff ff 	mov    %rax,-0x3a8(%rbp)
   1d7ed:	48 8d 85 48 f6 ff ff 	lea    -0x9b8(%rbp),%rax
   1d7f4:	48 89 85 60 fc ff ff 	mov    %rax,-0x3a0(%rbp)
   1d7fb:	48 8d 85 48 f6 ff ff 	lea    -0x9b8(%rbp),%rax
   1d802:	48 89 85 68 fc ff ff 	mov    %rax,-0x398(%rbp)
   1d809:	48 8d 85 48 f6 ff ff 	lea    -0x9b8(%rbp),%rax
   1d810:	48 89 85 70 fc ff ff 	mov    %rax,-0x390(%rbp)
   1d817:	48 8d 85 48 f6 ff ff 	lea    -0x9b8(%rbp),%rax
   1d81e:	48 89 85 78 fc ff ff 	mov    %rax,-0x388(%rbp)
   1d825:	48 8d 85 48 f6 ff ff 	lea    -0x9b8(%rbp),%rax
   1d82c:	48 89 85 80 fc ff ff 	mov    %rax,-0x380(%rbp)
   1d833:	48 8d 85 48 f6 ff ff 	lea    -0x9b8(%rbp),%rax
   1d83a:	48 89 85 88 fc ff ff 	mov    %rax,-0x378(%rbp)
   1d841:	48 8d 85 48 f6 ff ff 	lea    -0x9b8(%rbp),%rax
   1d848:	48 89 85 90 fc ff ff 	mov    %rax,-0x370(%rbp)
   1d84f:	48 8d 85 48 f6 ff ff 	lea    -0x9b8(%rbp),%rax
   1d856:	48 89 85 98 fc ff ff 	mov    %rax,-0x368(%rbp)
   1d85d:	48 8d 85 48 f6 ff ff 	lea    -0x9b8(%rbp),%rax
   1d864:	48 89 85 a0 fc ff ff 	mov    %rax,-0x360(%rbp)
   1d86b:	48 8d 85 48 f6 ff ff 	lea    -0x9b8(%rbp),%rax
   1d872:	48 89 85 a8 fc ff ff 	mov    %rax,-0x358(%rbp)
   1d879:	48 8d 85 48 f6 ff ff 	lea    -0x9b8(%rbp),%rax
   1d880:	48 89 85 b0 fc ff ff 	mov    %rax,-0x350(%rbp)
   1d887:	48 8d 85 48 f6 ff ff 	lea    -0x9b8(%rbp),%rax
   1d88e:	48 89 85 b8 fc ff ff 	mov    %rax,-0x348(%rbp)
   1d895:	48 8d 85 48 f6 ff ff 	lea    -0x9b8(%rbp),%rax
   1d89c:	48 89 85 c0 fc ff ff 	mov    %rax,-0x340(%rbp)
   1d8a3:	48 8d 85 48 f6 ff ff 	lea    -0x9b8(%rbp),%rax
   1d8aa:	48 89 85 c8 fc ff ff 	mov    %rax,-0x338(%rbp)
   1d8b1:	48 8d 85 48 f6 ff ff 	lea    -0x9b8(%rbp),%rax
   1d8b8:	48 89 85 d0 fc ff ff 	mov    %rax,-0x330(%rbp)
   1d8bf:	48 8d 85 48 f6 ff ff 	lea    -0x9b8(%rbp),%rax
   1d8c6:	48 89 85 d8 fc ff ff 	mov    %rax,-0x328(%rbp)
   1d8cd:	48 8d 85 48 f6 ff ff 	lea    -0x9b8(%rbp),%rax
   1d8d4:	48 89 85 e0 fc ff ff 	mov    %rax,-0x320(%rbp)
   1d8db:	48 8d 85 48 f6 ff ff 	lea    -0x9b8(%rbp),%rax
   1d8e2:	48 89 85 e8 fc ff ff 	mov    %rax,-0x318(%rbp)
   1d8e9:	48 8d 85 48 f6 ff ff 	lea    -0x9b8(%rbp),%rax
   1d8f0:	48 89 85 f0 fc ff ff 	mov    %rax,-0x310(%rbp)
   1d8f7:	48 c7 85 f8 fc ff ff 	movq   $0x0,-0x308(%rbp)
   1d8fe:	00 00 00 00 
   1d902:	48 8d 85 48 f6 ff ff 	lea    -0x9b8(%rbp),%rax
   1d909:	48 89 85 00 fd ff ff 	mov    %rax,-0x300(%rbp)
   1d910:	48 8d 85 48 f6 ff ff 	lea    -0x9b8(%rbp),%rax
   1d917:	48 89 85 08 fd ff ff 	mov    %rax,-0x2f8(%rbp)
   1d91e:	48 8d 85 48 f6 ff ff 	lea    -0x9b8(%rbp),%rax
   1d925:	48 89 85 10 fd ff ff 	mov    %rax,-0x2f0(%rbp)
   1d92c:	48 8d 85 48 f6 ff ff 	lea    -0x9b8(%rbp),%rax
   1d933:	48 89 85 18 fd ff ff 	mov    %rax,-0x2e8(%rbp)
   1d93a:	48 8d 85 48 f6 ff ff 	lea    -0x9b8(%rbp),%rax
   1d941:	48 89 85 20 fd ff ff 	mov    %rax,-0x2e0(%rbp)
   1d948:	48 8d 85 48 f6 ff ff 	lea    -0x9b8(%rbp),%rax
   1d94f:	48 89 85 28 fd ff ff 	mov    %rax,-0x2d8(%rbp)
   1d956:	48 8d 85 48 f6 ff ff 	lea    -0x9b8(%rbp),%rax
   1d95d:	48 89 85 30 fd ff ff 	mov    %rax,-0x2d0(%rbp)
   1d964:	48 8d 85 48 f6 ff ff 	lea    -0x9b8(%rbp),%rax
   1d96b:	48 89 85 38 fd ff ff 	mov    %rax,-0x2c8(%rbp)
   1d972:	48 8d 85 48 f6 ff ff 	lea    -0x9b8(%rbp),%rax
   1d979:	48 89 85 40 fd ff ff 	mov    %rax,-0x2c0(%rbp)
   1d980:	48 8d 85 48 f6 ff ff 	lea    -0x9b8(%rbp),%rax
   1d987:	48 89 85 48 fd ff ff 	mov    %rax,-0x2b8(%rbp)
   1d98e:	48 8d 85 48 f6 ff ff 	lea    -0x9b8(%rbp),%rax
   1d995:	48 89 85 50 fd ff ff 	mov    %rax,-0x2b0(%rbp)
   1d99c:	48 8d 85 48 f6 ff ff 	lea    -0x9b8(%rbp),%rax
   1d9a3:	48 89 85 58 fd ff ff 	mov    %rax,-0x2a8(%rbp)
   1d9aa:	48 8d 85 48 f6 ff ff 	lea    -0x9b8(%rbp),%rax
   1d9b1:	48 89 85 60 fd ff ff 	mov    %rax,-0x2a0(%rbp)
   1d9b8:	48 8d 85 48 f6 ff ff 	lea    -0x9b8(%rbp),%rax
   1d9bf:	48 89 85 68 fd ff ff 	mov    %rax,-0x298(%rbp)
   1d9c6:	48 8d 85 48 f6 ff ff 	lea    -0x9b8(%rbp),%rax
   1d9cd:	48 89 85 70 fd ff ff 	mov    %rax,-0x290(%rbp)
   1d9d4:	48 8d 85 48 f6 ff ff 	lea    -0x9b8(%rbp),%rax
   1d9db:	48 89 85 78 fd ff ff 	mov    %rax,-0x288(%rbp)
   1d9e2:	48 8d 85 48 f6 ff ff 	lea    -0x9b8(%rbp),%rax
   1d9e9:	48 89 85 80 fd ff ff 	mov    %rax,-0x280(%rbp)
   1d9f0:	48 8d 85 48 f6 ff ff 	lea    -0x9b8(%rbp),%rax
   1d9f7:	48 89 85 88 fd ff ff 	mov    %rax,-0x278(%rbp)
   1d9fe:	48 8d 85 48 f6 ff ff 	lea    -0x9b8(%rbp),%rax
   1da05:	48 89 85 90 fd ff ff 	mov    %rax,-0x270(%rbp)
   1da0c:	48 8d 85 48 f6 ff ff 	lea    -0x9b8(%rbp),%rax
   1da13:	48 89 85 98 fd ff ff 	mov    %rax,-0x268(%rbp)
   1da1a:	48 8d 85 48 f6 ff ff 	lea    -0x9b8(%rbp),%rax
   1da21:	48 89 85 a0 fd ff ff 	mov    %rax,-0x260(%rbp)
   1da28:	48 8d 85 48 f6 ff ff 	lea    -0x9b8(%rbp),%rax
   1da2f:	48 89 85 a8 fd ff ff 	mov    %rax,-0x258(%rbp)
   1da36:	48 8d 85 48 f6 ff ff 	lea    -0x9b8(%rbp),%rax
   1da3d:	48 89 85 b0 fd ff ff 	mov    %rax,-0x250(%rbp)
   1da44:	48 8d 85 48 f6 ff ff 	lea    -0x9b8(%rbp),%rax
   1da4b:	48 89 85 b8 fd ff ff 	mov    %rax,-0x248(%rbp)
   1da52:	48 8d 85 48 f6 ff ff 	lea    -0x9b8(%rbp),%rax
   1da59:	48 89 85 c0 fd ff ff 	mov    %rax,-0x240(%rbp)
   1da60:	48 8d 85 48 f6 ff ff 	lea    -0x9b8(%rbp),%rax
   1da67:	48 89 85 c8 fd ff ff 	mov    %rax,-0x238(%rbp)
   1da6e:	48 8d 85 48 f6 ff ff 	lea    -0x9b8(%rbp),%rax
   1da75:	48 89 85 d0 fd ff ff 	mov    %rax,-0x230(%rbp)
   1da7c:	48 8d 85 48 f6 ff ff 	lea    -0x9b8(%rbp),%rax
   1da83:	48 89 85 d8 fd ff ff 	mov    %rax,-0x228(%rbp)
   1da8a:	48 8d 85 48 f6 ff ff 	lea    -0x9b8(%rbp),%rax
   1da91:	48 89 85 e0 fd ff ff 	mov    %rax,-0x220(%rbp)
   1da98:	48 c7 85 e8 fd ff ff 	movq   $0x0,-0x218(%rbp)
   1da9f:	00 00 00 00 
   1daa3:	48 8d 85 48 f6 ff ff 	lea    -0x9b8(%rbp),%rax
   1daaa:	48 89 85 f0 fd ff ff 	mov    %rax,-0x210(%rbp)
   1dab1:	48 8d 85 48 f6 ff ff 	lea    -0x9b8(%rbp),%rax
   1dab8:	48 89 85 f8 fd ff ff 	mov    %rax,-0x208(%rbp)
   1dabf:	48 8d 85 48 f6 ff ff 	lea    -0x9b8(%rbp),%rax
   1dac6:	48 89 85 00 fe ff ff 	mov    %rax,-0x200(%rbp)
   1dacd:	48 8d 85 48 f6 ff ff 	lea    -0x9b8(%rbp),%rax
   1dad4:	48 89 85 08 fe ff ff 	mov    %rax,-0x1f8(%rbp)
   1dadb:	48 8d 85 48 f6 ff ff 	lea    -0x9b8(%rbp),%rax
   1dae2:	48 89 85 10 fe ff ff 	mov    %rax,-0x1f0(%rbp)
   1dae9:	48 8d 85 48 f6 ff ff 	lea    -0x9b8(%rbp),%rax
   1daf0:	48 89 85 18 fe ff ff 	mov    %rax,-0x1e8(%rbp)
   1daf7:	48 8d 85 48 f6 ff ff 	lea    -0x9b8(%rbp),%rax
   1dafe:	48 89 85 20 fe ff ff 	mov    %rax,-0x1e0(%rbp)
   1db05:	48 8d 85 48 f6 ff ff 	lea    -0x9b8(%rbp),%rax
   1db0c:	48 89 85 28 fe ff ff 	mov    %rax,-0x1d8(%rbp)
   1db13:	48 8d 85 48 f6 ff ff 	lea    -0x9b8(%rbp),%rax
   1db1a:	48 89 85 30 fe ff ff 	mov    %rax,-0x1d0(%rbp)
   1db21:	48 8d 85 48 f6 ff ff 	lea    -0x9b8(%rbp),%rax
   1db28:	48 89 85 38 fe ff ff 	mov    %rax,-0x1c8(%rbp)
   1db2f:	48 8d 85 48 f6 ff ff 	lea    -0x9b8(%rbp),%rax
   1db36:	48 89 85 40 fe ff ff 	mov    %rax,-0x1c0(%rbp)
   1db3d:	48 8d 85 48 f6 ff ff 	lea    -0x9b8(%rbp),%rax
   1db44:	48 89 85 48 fe ff ff 	mov    %rax,-0x1b8(%rbp)
   1db4b:	48 8d 85 48 f6 ff ff 	lea    -0x9b8(%rbp),%rax
   1db52:	48 89 85 50 fe ff ff 	mov    %rax,-0x1b0(%rbp)
   1db59:	48 8d 85 48 f6 ff ff 	lea    -0x9b8(%rbp),%rax
   1db60:	48 89 85 58 fe ff ff 	mov    %rax,-0x1a8(%rbp)
   1db67:	48 8d 85 48 f6 ff ff 	lea    -0x9b8(%rbp),%rax
   1db6e:	48 89 85 60 fe ff ff 	mov    %rax,-0x1a0(%rbp)
   1db75:	48 8d 85 48 f6 ff ff 	lea    -0x9b8(%rbp),%rax
   1db7c:	48 89 85 68 fe ff ff 	mov    %rax,-0x198(%rbp)
   1db83:	48 8d 85 48 f6 ff ff 	lea    -0x9b8(%rbp),%rax
   1db8a:	48 89 85 70 fe ff ff 	mov    %rax,-0x190(%rbp)
   1db91:	48 8d 85 48 f6 ff ff 	lea    -0x9b8(%rbp),%rax
   1db98:	48 89 85 78 fe ff ff 	mov    %rax,-0x188(%rbp)
   1db9f:	48 8d 85 48 f6 ff ff 	lea    -0x9b8(%rbp),%rax
   1dba6:	48 89 85 80 fe ff ff 	mov    %rax,-0x180(%rbp)
   1dbad:	48 8d 85 48 f6 ff ff 	lea    -0x9b8(%rbp),%rax
   1dbb4:	48 89 85 88 fe ff ff 	mov    %rax,-0x178(%rbp)
   1dbbb:	48 8d 85 48 f6 ff ff 	lea    -0x9b8(%rbp),%rax
   1dbc2:	48 89 85 90 fe ff ff 	mov    %rax,-0x170(%rbp)
   1dbc9:	48 8d 85 48 f6 ff ff 	lea    -0x9b8(%rbp),%rax
   1dbd0:	48 89 85 98 fe ff ff 	mov    %rax,-0x168(%rbp)
   1dbd7:	48 8d 85 48 f6 ff ff 	lea    -0x9b8(%rbp),%rax
   1dbde:	48 89 85 a0 fe ff ff 	mov    %rax,-0x160(%rbp)
   1dbe5:	48 8d 85 48 f6 ff ff 	lea    -0x9b8(%rbp),%rax
   1dbec:	48 89 85 a8 fe ff ff 	mov    %rax,-0x158(%rbp)
   1dbf3:	48 8d 85 48 f6 ff ff 	lea    -0x9b8(%rbp),%rax
   1dbfa:	48 89 85 b0 fe ff ff 	mov    %rax,-0x150(%rbp)
   1dc01:	48 8d 85 48 f6 ff ff 	lea    -0x9b8(%rbp),%rax
   1dc08:	48 89 85 b8 fe ff ff 	mov    %rax,-0x148(%rbp)
   1dc0f:	48 8d 85 48 f6 ff ff 	lea    -0x9b8(%rbp),%rax
   1dc16:	48 89 85 c0 fe ff ff 	mov    %rax,-0x140(%rbp)
   1dc1d:	48 8d 85 48 f6 ff ff 	lea    -0x9b8(%rbp),%rax
   1dc24:	48 89 85 c8 fe ff ff 	mov    %rax,-0x138(%rbp)
   1dc2b:	48 8d 85 48 f6 ff ff 	lea    -0x9b8(%rbp),%rax
   1dc32:	48 89 85 d0 fe ff ff 	mov    %rax,-0x130(%rbp)
   1dc39:	48 c7 85 d8 fe ff ff 	movq   $0x0,-0x128(%rbp)
   1dc40:	00 00 00 00 
   1dc44:	48 8d 85 48 f6 ff ff 	lea    -0x9b8(%rbp),%rax
   1dc4b:	48 89 85 e0 fe ff ff 	mov    %rax,-0x120(%rbp)
   1dc52:	48 8d 85 48 f6 ff ff 	lea    -0x9b8(%rbp),%rax
   1dc59:	48 89 85 e8 fe ff ff 	mov    %rax,-0x118(%rbp)
   1dc60:	48 8d 85 48 f6 ff ff 	lea    -0x9b8(%rbp),%rax
   1dc67:	48 89 85 f0 fe ff ff 	mov    %rax,-0x110(%rbp)
   1dc6e:	48 8d 85 48 f6 ff ff 	lea    -0x9b8(%rbp),%rax
   1dc75:	48 89 85 f8 fe ff ff 	mov    %rax,-0x108(%rbp)
   1dc7c:	48 8d 85 48 f6 ff ff 	lea    -0x9b8(%rbp),%rax
   1dc83:	48 89 85 00 ff ff ff 	mov    %rax,-0x100(%rbp)
   1dc8a:	48 8d 85 48 f6 ff ff 	lea    -0x9b8(%rbp),%rax
   1dc91:	48 89 85 08 ff ff ff 	mov    %rax,-0xf8(%rbp)
   1dc98:	48 8d 85 48 f6 ff ff 	lea    -0x9b8(%rbp),%rax
   1dc9f:	48 89 85 10 ff ff ff 	mov    %rax,-0xf0(%rbp)
   1dca6:	48 8d 85 48 f6 ff ff 	lea    -0x9b8(%rbp),%rax
   1dcad:	48 89 85 18 ff ff ff 	mov    %rax,-0xe8(%rbp)
   1dcb4:	48 8d 85 48 f6 ff ff 	lea    -0x9b8(%rbp),%rax
   1dcbb:	48 89 85 20 ff ff ff 	mov    %rax,-0xe0(%rbp)
   1dcc2:	48 8d 85 48 f6 ff ff 	lea    -0x9b8(%rbp),%rax
   1dcc9:	48 89 85 28 ff ff ff 	mov    %rax,-0xd8(%rbp)
   1dcd0:	48 8d 85 48 f6 ff ff 	lea    -0x9b8(%rbp),%rax
   1dcd7:	48 89 85 30 ff ff ff 	mov    %rax,-0xd0(%rbp)
   1dcde:	48 8d 85 48 f6 ff ff 	lea    -0x9b8(%rbp),%rax
   1dce5:	48 89 85 38 ff ff ff 	mov    %rax,-0xc8(%rbp)
   1dcec:	48 8d 85 48 f6 ff ff 	lea    -0x9b8(%rbp),%rax
   1dcf3:	48 89 85 40 ff ff ff 	mov    %rax,-0xc0(%rbp)
   1dcfa:	48 8d 85 48 f6 ff ff 	lea    -0x9b8(%rbp),%rax
   1dd01:	48 89 85 48 ff ff ff 	mov    %rax,-0xb8(%rbp)
   1dd08:	48 8d 85 48 f6 ff ff 	lea    -0x9b8(%rbp),%rax
   1dd0f:	48 89 85 50 ff ff ff 	mov    %rax,-0xb0(%rbp)
   1dd16:	48 8d 85 48 f6 ff ff 	lea    -0x9b8(%rbp),%rax
   1dd1d:	48 89 85 58 ff ff ff 	mov    %rax,-0xa8(%rbp)
   1dd24:	48 8d 85 48 f6 ff ff 	lea    -0x9b8(%rbp),%rax
   1dd2b:	48 89 85 60 ff ff ff 	mov    %rax,-0xa0(%rbp)
   1dd32:	48 8d 85 48 f6 ff ff 	lea    -0x9b8(%rbp),%rax
   1dd39:	48 89 85 68 ff ff ff 	mov    %rax,-0x98(%rbp)
   1dd40:	48 8d 85 48 f6 ff ff 	lea    -0x9b8(%rbp),%rax
   1dd47:	48 89 85 70 ff ff ff 	mov    %rax,-0x90(%rbp)
   1dd4e:	48 8d 85 48 f6 ff ff 	lea    -0x9b8(%rbp),%rax
   1dd55:	48 89 85 78 ff ff ff 	mov    %rax,-0x88(%rbp)
   1dd5c:	48 8d 85 48 f6 ff ff 	lea    -0x9b8(%rbp),%rax
   1dd63:	48 89 45 80          	mov    %rax,-0x80(%rbp)
   1dd67:	48 8d 85 48 f6 ff ff 	lea    -0x9b8(%rbp),%rax
   1dd6e:	48 89 45 88          	mov    %rax,-0x78(%rbp)
   1dd72:	48 8d 85 48 f6 ff ff 	lea    -0x9b8(%rbp),%rax
   1dd79:	48 89 45 90          	mov    %rax,-0x70(%rbp)
   1dd7d:	48 8d 85 48 f6 ff ff 	lea    -0x9b8(%rbp),%rax
   1dd84:	48 89 45 98          	mov    %rax,-0x68(%rbp)
   1dd88:	48 8d 85 48 f6 ff ff 	lea    -0x9b8(%rbp),%rax
   1dd8f:	48 89 45 a0          	mov    %rax,-0x60(%rbp)
   1dd93:	48 8d 85 48 f6 ff ff 	lea    -0x9b8(%rbp),%rax
   1dd9a:	48 89 45 a8          	mov    %rax,-0x58(%rbp)
   1dd9e:	48 8d 85 48 f6 ff ff 	lea    -0x9b8(%rbp),%rax
   1dda5:	48 89 45 b0          	mov    %rax,-0x50(%rbp)
   1dda9:	48 8d 85 48 f6 ff ff 	lea    -0x9b8(%rbp),%rax
   1ddb0:	48 89 45 b8          	mov    %rax,-0x48(%rbp)
   1ddb4:	48 8d 05 cd 73 00 00 	lea    0x73cd(%rip),%rax        # 25188 <g_98>
   1ddbb:	48 89 85 70 f6 ff ff 	mov    %rax,-0x990(%rbp)
   1ddc2:	66 c7 85 32 f6 ff ff 	movw   $0x0,-0x9ce(%rbp)
   1ddc9:	00 00 
   1ddcb:	0f bf 9d 32 f6 ff ff 	movswl -0x9ce(%rbp),%ebx
   1ddd2:	8b 85 0c f6 ff ff    	mov    -0x9f4(%rbp),%eax
   1ddd8:	44 0f b7 e0          	movzwl %ax,%r12d
   1dddc:	48 8b 05 95 73 00 00 	mov    0x7395(%rip),%rax        # 25178 <g_55>
   1dde3:	49 89 c6             	mov    %rax,%r14
   1dde6:	8b 85 0c f6 ff ff    	mov    -0x9f4(%rbp),%eax
   1ddec:	44 0f bf e8          	movswl %ax,%r13d
   1ddf0:	8b 15 be 72 00 00    	mov    0x72be(%rip),%edx        # 250b4 <g_3+0x74>
   1ddf6:	48 8d 05 7b 73 00 00 	lea    0x737b(%rip),%rax        # 25178 <g_55>
   1ddfd:	48 89 05 fc a2 00 00 	mov    %rax,0xa2fc(%rip)        # 28100 <g_124>
   1de04:	48 8b 05 f5 a2 00 00 	mov    0xa2f5(%rip),%rax        # 28100 <g_124>
   1de0b:	48 8d 0d 66 73 00 00 	lea    0x7366(%rip),%rcx        # 25178 <g_55>
   1de12:	48 39 c8             	cmp    %rcx,%rax
   1de15:	0f 95 c0             	setne  %al
   1de18:	0f b6 c0             	movzbl %al,%eax
   1de1b:	39 85 0c f6 ff ff    	cmp    %eax,-0x9f4(%rbp)
   1de21:	0f 97 c0             	seta   %al
   1de24:	0f b6 c0             	movzbl %al,%eax
   1de27:	89 d6                	mov    %edx,%esi
   1de29:	89 c7                	mov    %eax,%edi
   1de2b:	e8 cf e8 fe ff       	callq  c6ff <safe_div_func_int32_t_s_s>
   1de30:	44 89 ee             	mov    %r13d,%esi
   1de33:	bf 01 00 00 00       	mov    $0x1,%edi
   1de38:	e8 b8 e5 fe ff       	callq  c3f5 <safe_mul_func_int16_t_s_s>
   1de3d:	66 85 c0             	test   %ax,%ax
   1de40:	75 0d                	jne    1de4f <func_68+0xe23>
   1de42:	48 8b 85 70 f6 ff ff 	mov    -0x990(%rbp),%rax
   1de49:	8b 00                	mov    (%rax),%eax
   1de4b:	85 c0                	test   %eax,%eax
   1de4d:	74 07                	je     1de56 <func_68+0xe2a>
   1de4f:	b8 01 00 00 00       	mov    $0x1,%eax
   1de54:	eb 05                	jmp    1de5b <func_68+0xe2f>
   1de56:	b8 00 00 00 00       	mov    $0x0,%eax
   1de5b:	39 85 0c f6 ff ff    	cmp    %eax,-0x9f4(%rbp)
   1de61:	0f 96 c0             	setbe  %al
   1de64:	0f b6 c0             	movzbl %al,%eax
   1de67:	39 85 0c f6 ff ff    	cmp    %eax,-0x9f4(%rbp)
   1de6d:	0f 93 c0             	setae  %al
   1de70:	44 0f b6 e8          	movzbl %al,%r13d
   1de74:	8b 05 ee 72 00 00    	mov    0x72ee(%rip),%eax        # 25168 <g_12>
   1de7a:	89 c1                	mov    %eax,%ecx
   1de7c:	48 8b 85 68 f6 ff ff 	mov    -0x998(%rbp),%rax
   1de83:	89 c2                	mov    %eax,%edx
   1de85:	8b 85 34 f6 ff ff    	mov    -0x9cc(%rbp),%eax
   1de8b:	21 d0                	and    %edx,%eax
   1de8d:	89 85 34 f6 ff ff    	mov    %eax,-0x9cc(%rbp)
   1de93:	8b 85 34 f6 ff ff    	mov    -0x9cc(%rbp),%eax
   1de99:	83 f0 07             	xor    $0x7,%eax
   1de9c:	89 c2                	mov    %eax,%edx
   1de9e:	8b 05 70 72 00 00    	mov    0x7270(%rip),%eax        # 25114 <g_3+0xd4>
   1dea4:	39 c2                	cmp    %eax,%edx
   1dea6:	0f 95 c0             	setne  %al
   1dea9:	0f b6 c0             	movzbl %al,%eax
   1deac:	89 ce                	mov    %ecx,%esi
   1deae:	89 c7                	mov    %eax,%edi
   1deb0:	e8 c5 ef fe ff       	callq  ce7a <safe_rshift_func_uint16_t_u_u>
   1deb5:	0f be c0             	movsbl %al,%eax
   1deb8:	44 89 ee             	mov    %r13d,%esi
   1debb:	89 c7                	mov    %eax,%edi
   1debd:	e8 50 e3 fe ff       	callq  c212 <safe_mul_func_int8_t_s_s>
   1dec2:	0f be c0             	movsbl %al,%eax
   1dec5:	0b 85 0c f6 ff ff    	or     -0x9f4(%rbp),%eax
   1decb:	89 c2                	mov    %eax,%edx
   1decd:	8b 85 0c f6 ff ff    	mov    -0x9f4(%rbp),%eax
   1ded3:	89 d6                	mov    %edx,%esi
   1ded5:	89 c7                	mov    %eax,%edi
   1ded7:	e8 da e6 fe ff       	callq  c5b6 <safe_add_func_int32_t_s_s>
   1dedc:	89 c2                	mov    %eax,%edx
   1dede:	8b 05 a0 72 00 00    	mov    0x72a0(%rip),%eax        # 25184 <g_92>
   1dee4:	98                   	cwtl   
   1dee5:	89 d6                	mov    %edx,%esi
   1dee7:	89 c7                	mov    %eax,%edi
   1dee9:	e8 a4 e5 fe ff       	callq  c492 <safe_lshift_func_int16_t_s_s>
   1deee:	8b 85 0c f6 ff ff    	mov    -0x9f4(%rbp),%eax
   1def4:	4c 89 f6             	mov    %r14,%rsi
   1def7:	48 89 c7             	mov    %rax,%rdi
   1defa:	e8 b0 f1 fe ff       	callq  d0af <safe_div_func_uint64_t_u_u>
   1deff:	48 8b 95 70 f6 ff ff 	mov    -0x990(%rbp),%rdx
   1df06:	8b 12                	mov    (%rdx),%edx
   1df08:	48 63 d2             	movslq %edx,%rdx
   1df0b:	48 39 d0             	cmp    %rdx,%rax
   1df0e:	0f 95 c0             	setne  %al
   1df11:	0f b6 c0             	movzbl %al,%eax
   1df14:	44 89 e6             	mov    %r12d,%esi
   1df17:	89 c7                	mov    %eax,%edi
   1df19:	e8 3e ee fe ff       	callq  cd5c <safe_mod_func_uint16_t_u_u>
   1df1e:	98                   	cwtl   
   1df1f:	89 de                	mov    %ebx,%esi
   1df21:	89 c7                	mov    %eax,%edi
   1df23:	e8 ee e4 fe ff       	callq  c416 <safe_mod_func_int16_t_s_s>
   1df28:	83 bd 0c f6 ff ff 01 	cmpl   $0x1,-0x9f4(%rbp)
   1df2f:	0f 97 c0             	seta   %al
   1df32:	0f b6 d0             	movzbl %al,%edx
   1df35:	48 8b 85 60 f6 ff ff 	mov    -0x9a0(%rbp),%rax
   1df3c:	89 10                	mov    %edx,(%rax)
   1df3e:	48 8b 85 60 f6 ff ff 	mov    -0x9a0(%rbp),%rax
   1df45:	8b 00                	mov    (%rax),%eax
   1df47:	89 05 3f 72 00 00    	mov    %eax,0x723f(%rip)        # 2518c <g_127>
   1df4d:	48 8b 85 58 f6 ff ff 	mov    -0x9a8(%rbp),%rax
   1df54:	c7 00 01 00 00 00    	movl   $0x1,(%rax)
   1df5a:	c7 05 24 72 00 00 00 	movl   $0x0,0x7224(%rip)        # 25188 <g_98>
   1df61:	00 00 00 
   1df64:	e9 34 02 00 00       	jmpq   1e19d <func_68+0x1171>
   1df69:	c6 85 31 f6 ff ff 07 	movb   $0x7,-0x9cf(%rbp)
   1df70:	c7 85 38 f6 ff ff ff 	movl   $0xffffffff,-0x9c8(%rbp)
   1df77:	ff ff ff 
   1df7a:	c7 85 3c f6 ff ff 00 	movl   $0x0,-0x9c4(%rbp)
   1df81:	00 00 00 
   1df84:	48 8b 85 60 f6 ff ff 	mov    -0x9a0(%rbp),%rax
   1df8b:	8b 00                	mov    (%rax),%eax
   1df8d:	be f4 61 d3 16       	mov    $0x16d361f4,%esi
   1df92:	89 c7                	mov    %eax,%edi
   1df94:	e8 6c e6 fe ff       	callq  c605 <safe_sub_func_int32_t_s_s>
   1df99:	41 89 c6             	mov    %eax,%r14d
   1df9c:	48 8b 85 58 f6 ff ff 	mov    -0x9a8(%rbp),%rax
   1dfa3:	44 8b 38             	mov    (%rax),%r15d
   1dfa6:	0f b6 9d 31 f6 ff ff 	movzbl -0x9cf(%rbp),%ebx
   1dfad:	8b 05 b9 70 00 00    	mov    0x70b9(%rip),%eax        # 2506c <g_3+0x2c>
   1dfb3:	44 0f be e0          	movsbl %al,%r12d
   1dfb7:	48 8b 85 70 f6 ff ff 	mov    -0x990(%rbp),%rax
   1dfbe:	8b 00                	mov    (%rax),%eax
   1dfc0:	44 0f bf e8          	movswl %ax,%r13d
   1dfc4:	8b 95 0c f6 ff ff    	mov    -0x9f4(%rbp),%edx
   1dfca:	48 8b 85 10 f6 ff ff 	mov    -0x9f0(%rbp),%rax
   1dfd1:	48 8b 00             	mov    (%rax),%rax
   1dfd4:	48 39 c2             	cmp    %rax,%rdx
   1dfd7:	0f 9d c0             	setge  %al
   1dfda:	0f b6 c0             	movzbl %al,%eax
   1dfdd:	be ff 00 00 00       	mov    $0xff,%esi
   1dfe2:	89 c7                	mov    %eax,%edi
   1dfe4:	e8 71 eb fe ff       	callq  cb5a <safe_add_func_uint8_t_u_u>
   1dfe9:	44 89 ee             	mov    %r13d,%esi
   1dfec:	bf 01 00 00 00       	mov    $0x1,%edi
   1dff1:	e8 ff e3 fe ff       	callq  c3f5 <safe_mul_func_int16_t_s_s>
   1dff6:	98                   	cwtl   
   1dff7:	8b 95 0c f6 ff ff    	mov    -0x9f4(%rbp),%edx
   1dffd:	89 d6                	mov    %edx,%esi
   1dfff:	89 c7                	mov    %eax,%edi
   1e001:	e8 f7 ee fe ff       	callq  cefd <safe_mod_func_uint32_t_u_u>
   1e006:	8b 15 80 71 00 00    	mov    0x7180(%rip),%edx        # 2518c <g_127>
   1e00c:	39 d0                	cmp    %edx,%eax
   1e00e:	0f 95 c0             	setne  %al
   1e011:	0f b6 c0             	movzbl %al,%eax
   1e014:	44 89 e6             	mov    %r12d,%esi
   1e017:	89 c7                	mov    %eax,%edi
   1e019:	e8 13 e2 fe ff       	callq  c231 <safe_mod_func_int8_t_s_s>
   1e01e:	0f be c0             	movsbl %al,%eax
   1e021:	0b 85 0c f6 ff ff    	or     -0x9f4(%rbp),%eax
   1e027:	89 c0                	mov    %eax,%eax
   1e029:	48 be 9b 50 b2 2d 09 	movabs $0xc353b0092db2509b,%rsi
   1e030:	b0 53 c3 
   1e033:	48 89 c7             	mov    %rax,%rdi
   1e036:	e8 79 e9 fe ff       	callq  c9b4 <safe_mod_func_int64_t_s_s>
   1e03b:	0f b7 c0             	movzwl %ax,%eax
   1e03e:	89 de                	mov    %ebx,%esi
   1e040:	89 c7                	mov    %eax,%edi
   1e042:	e8 77 ed fe ff       	callq  cdbe <safe_lshift_func_uint16_t_u_s>
   1e047:	0f b7 d0             	movzwl %ax,%edx
   1e04a:	8b 05 38 71 00 00    	mov    0x7138(%rip),%eax        # 25188 <g_98>
   1e050:	39 c2                	cmp    %eax,%edx
   1e052:	0f 95 c0             	setne  %al
   1e055:	0f b6 c0             	movzbl %al,%eax
   1e058:	41 39 c7             	cmp    %eax,%r15d
   1e05b:	0f 9c c0             	setl   %al
   1e05e:	0f b6 c0             	movzbl %al,%eax
   1e061:	23 85 0c f6 ff ff    	and    -0x9f4(%rbp),%eax
   1e067:	89 c2                	mov    %eax,%edx
   1e069:	48 8b 85 58 f6 ff ff 	mov    -0x9a8(%rbp),%rax
   1e070:	89 10                	mov    %edx,(%rax)
   1e072:	48 8b 85 58 f6 ff ff 	mov    -0x9a8(%rbp),%rax
   1e079:	8b 00                	mov    (%rax),%eax
   1e07b:	41 39 c6             	cmp    %eax,%r14d
   1e07e:	0f 9e c0             	setle  %al
   1e081:	0f b6 c0             	movzbl %al,%eax
   1e084:	89 05 26 b9 00 00    	mov    %eax,0xb926(%rip)        # 299b0 <g_145>
   1e08a:	48 8b 85 70 f6 ff ff 	mov    -0x990(%rbp),%rax
   1e091:	8b 00                	mov    (%rax),%eax
   1e093:	85 c0                	test   %eax,%eax
   1e095:	0f 85 13 01 00 00    	jne    1e1ae <func_68+0x1182>
   1e09b:	48 c7 05 02 b9 00 00 	movq   $0xb,0xb902(%rip)        # 299a8 <g_57>
   1e0a2:	0b 00 00 00 
   1e0a6:	90                   	nop
   1e0a7:	48 8b 05 fa b8 00 00 	mov    0xb8fa(%rip),%rax        # 299a8 <g_57>
   1e0ae:	48 83 f8 f9          	cmp    $0xfffffffffffffff9,%rax
   1e0b2:	7d 0e                	jge    1e0c2 <func_68+0x1096>
   1e0b4:	48 8b 85 58 f6 ff ff 	mov    -0x9a8(%rbp),%rax
   1e0bb:	8b 00                	mov    (%rax),%eax
   1e0bd:	e9 15 01 00 00       	jmpq   1e1d7 <func_68+0x11ab>
   1e0c2:	66 c7 85 32 f6 ff ff 	movw   $0xfff9,-0x9ce(%rbp)
   1e0c9:	f9 ff 
   1e0cb:	e9 b0 00 00 00       	jmpq   1e180 <func_68+0x1154>
   1e0d0:	c6 85 30 f6 ff ff f4 	movb   $0xf4,-0x9d0(%rbp)
   1e0d7:	c7 85 34 f6 ff ff 1d 	movl   $0x1d,-0x9cc(%rbp)
   1e0de:	00 00 00 
   1e0e1:	eb 63                	jmp    1e146 <func_68+0x111a>
   1e0e3:	c7 85 40 f6 ff ff 66 	movl   $0x5fa40266,-0x9c0(%rbp)
   1e0ea:	02 a4 5f 
   1e0ed:	c7 85 44 f6 ff ff 01 	movl   $0x1,-0x9bc(%rbp)
   1e0f4:	00 00 00 
   1e0f7:	48 c7 85 78 f6 ff ff 	movq   $0x0,-0x988(%rbp)
   1e0fe:	00 00 00 00 
   1e102:	48 8d 85 80 f6 ff ff 	lea    -0x980(%rbp),%rax
   1e109:	48 8d 15 30 96 00 00 	lea    0x9630(%rip),%rdx        # 27740 <g_2684+0x2268>
   1e110:	b9 38 00 00 00       	mov    $0x38,%ecx
   1e115:	48 89 c7             	mov    %rax,%rdi
   1e118:	48 89 d6             	mov    %rdx,%rsi
   1e11b:	f3 48 a5             	rep movsq %ds:(%rsi),%es:(%rdi)
   1e11e:	81 8d 40 f6 ff ff 45 	orl    $0xff954d45,-0x9c0(%rbp)
   1e125:	4d 95 ff 
   1e128:	80 85 30 f6 ff ff 01 	addb   $0x1,-0x9d0(%rbp)
   1e12f:	0f b6 05 5a 70 00 00 	movzbl 0x705a(%rip),%eax        # 25190 <g_161>
   1e136:	83 c0 01             	add    $0x1,%eax
   1e139:	88 05 51 70 00 00    	mov    %al,0x7051(%rip)        # 25190 <g_161>
   1e13f:	83 ad 34 f6 ff ff 01 	subl   $0x1,-0x9cc(%rbp)
   1e146:	83 bd 34 f6 ff ff ed 	cmpl   $0xffffffed,-0x9cc(%rbp)
   1e14d:	7d 94                	jge    1e0e3 <func_68+0x10b7>
   1e14f:	0f b6 05 3a 70 00 00 	movzbl 0x703a(%rip),%eax        # 25190 <g_161>
   1e156:	84 c0                	test   %al,%al
   1e158:	75 14                	jne    1e16e <func_68+0x1142>
   1e15a:	48 8b 85 58 f6 ff ff 	mov    -0x9a8(%rbp),%rax
   1e161:	8b 10                	mov    (%rax),%edx
   1e163:	48 8b 85 58 f6 ff ff 	mov    -0x9a8(%rbp),%rax
   1e16a:	89 10                	mov    %edx,(%rax)
   1e16c:	eb 01                	jmp    1e16f <func_68+0x1143>
   1e16e:	90                   	nop
   1e16f:	0f b7 85 32 f6 ff ff 	movzwl -0x9ce(%rbp),%eax
   1e176:	83 e8 01             	sub    $0x1,%eax
   1e179:	66 89 85 32 f6 ff ff 	mov    %ax,-0x9ce(%rbp)
   1e180:	66 83 bd 32 f6 ff ff 	cmpw   $0xffe3,-0x9ce(%rbp)
   1e187:	e3 
   1e188:	0f 8d 42 ff ff ff    	jge    1e0d0 <func_68+0x10a4>
   1e18e:	8b 05 f4 6f 00 00    	mov    0x6ff4(%rip),%eax        # 25188 <g_98>
   1e194:	83 e8 01             	sub    $0x1,%eax
   1e197:	89 05 eb 6f 00 00    	mov    %eax,0x6feb(%rip)        # 25188 <g_98>
   1e19d:	8b 05 e5 6f 00 00    	mov    0x6fe5(%rip),%eax        # 25188 <g_98>
   1e1a3:	83 f8 f8             	cmp    $0xfffffff8,%eax
   1e1a6:	0f 85 bd fd ff ff    	jne    1df69 <func_68+0xf3d>
   1e1ac:	eb 01                	jmp    1e1af <func_68+0x1183>
   1e1ae:	90                   	nop
   1e1af:	0f b6 05 ca 6f 00 00 	movzbl 0x6fca(%rip),%eax        # 25180 <g_80>
   1e1b6:	83 c0 01             	add    $0x1,%eax
   1e1b9:	88 05 c1 6f 00 00    	mov    %al,0x6fc1(%rip)        # 25180 <g_80>
   1e1bf:	0f b6 05 ba 6f 00 00 	movzbl 0x6fba(%rip),%eax        # 25180 <g_80>
   1e1c6:	3c 17                	cmp    $0x17,%al
   1e1c8:	0f 85 03 ef ff ff    	jne    1d0d1 <func_68+0xa5>
   1e1ce:	48 8b 85 60 f6 ff ff 	mov    -0x9a0(%rbp),%rax
   1e1d5:	8b 00                	mov    (%rax),%eax
   1e1d7:	48 8b 5d c8          	mov    -0x38(%rbp),%rbx
   1e1db:	64 48 33 1c 25 28 00 	xor    %fs:0x28,%rbx
   1e1e2:	00 00 
   1e1e4:	74 05                	je     1e1eb <func_68+0x11bf>
   1e1e6:	e8 85 de fe ff       	callq  c070 <__stack_chk_fail@plt>
   1e1eb:	48 81 c4 d8 09 00 00 	add    $0x9d8,%rsp
   1e1f2:	5b                   	pop    %rbx
   1e1f3:	41 5c                	pop    %r12
   1e1f5:	41 5d                	pop    %r13
   1e1f7:	41 5e                	pop    %r14
   1e1f9:	41 5f                	pop    %r15
   1e1fb:	5d                   	pop    %rbp
   1e1fc:	c3                   	retq   

000000000001e1fd <func_72>:
   1e1fd:	f3 0f 1e fa          	endbr64 
   1e201:	55                   	push   %rbp
   1e202:	48 89 e5             	mov    %rsp,%rbp
   1e205:	48 81 ec 30 08 00 00 	sub    $0x830,%rsp
   1e20c:	89 f8                	mov    %edi,%eax
   1e20e:	89 f1                	mov    %esi,%ecx
   1e210:	66 89 85 dc f7 ff ff 	mov    %ax,-0x824(%rbp)
   1e217:	89 c8                	mov    %ecx,%eax
   1e219:	88 85 d8 f7 ff ff    	mov    %al,-0x828(%rbp)
   1e21f:	89 d0                	mov    %edx,%eax
   1e221:	88 85 d4 f7 ff ff    	mov    %al,-0x82c(%rbp)
   1e227:	64 48 8b 04 25 28 00 	mov    %fs:0x28,%rax
   1e22e:	00 00 
   1e230:	48 89 45 f8          	mov    %rax,-0x8(%rbp)
   1e234:	31 c0                	xor    %eax,%eax
   1e236:	48 c7 85 e0 f7 ff ff 	movq   $0x0,-0x820(%rbp)
   1e23d:	00 00 00 00 
   1e241:	48 8d 05 3c 6f 00 00 	lea    0x6f3c(%rip),%rax        # 25184 <g_92>
   1e248:	48 89 85 e8 f7 ff ff 	mov    %rax,-0x818(%rbp)
   1e24f:	48 8d 85 f0 f7 ff ff 	lea    -0x810(%rbp),%rax
   1e256:	48 8d 15 a3 96 00 00 	lea    0x96a3(%rip),%rdx        # 27900 <g_2684+0x2428>
   1e25d:	b9 00 01 00 00       	mov    $0x100,%ecx
   1e262:	48 89 c7             	mov    %rax,%rdi
   1e265:	48 89 d6             	mov    %rdx,%rsi
   1e268:	f3 48 a5             	rep movsq %ds:(%rsi),%es:(%rdi)
   1e26b:	48 8b 85 e8 f7 ff ff 	mov    -0x818(%rbp),%rax
   1e272:	8b 00                	mov    (%rax),%eax
   1e274:	83 c8 fb             	or     $0xfffffffb,%eax
   1e277:	89 c2                	mov    %eax,%edx
   1e279:	48 8b 85 e8 f7 ff ff 	mov    -0x818(%rbp),%rax
   1e280:	89 10                	mov    %edx,(%rax)
   1e282:	48 8b 85 60 fd ff ff 	mov    -0x2a0(%rbp),%rax
   1e289:	48 8b 75 f8          	mov    -0x8(%rbp),%rsi
   1e28d:	64 48 33 34 25 28 00 	xor    %fs:0x28,%rsi
   1e294:	00 00 
   1e296:	74 05                	je     1e29d <func_72+0xa0>
   1e298:	e8 d3 dd fe ff       	callq  c070 <__stack_chk_fail@plt>
   1e29d:	c9                   	leaveq 
   1e29e:	c3                   	retq   

000000000001e29f <main>:
   1e29f:	f3 0f 1e fa          	endbr64 
   1e2a3:	55                   	push   %rbp
   1e2a4:	48 89 e5             	mov    %rsp,%rbp
   1e2a7:	48 83 ec 20          	sub    $0x20,%rsp
   1e2ab:	89 7d ec             	mov    %edi,-0x14(%rbp)
   1e2ae:	48 89 75 e0          	mov    %rsi,-0x20(%rbp)
   1e2b2:	c7 45 fc 00 00 00 00 	movl   $0x0,-0x4(%rbp)
   1e2b9:	83 7d ec 02          	cmpl   $0x2,-0x14(%rbp)
   1e2bd:	74 25                	je     1e2e4 <main+0x45>
   1e2bf:	48 8b 45 e0          	mov    -0x20(%rbp),%rax
   1e2c3:	48 83 c0 08          	add    $0x8,%rax
   1e2c7:	48 8b 00             	mov    (%rax),%rax
   1e2ca:	48 8d 35 37 3c 00 00 	lea    0x3c37(%rip),%rsi        # 21f08 <g_1983+0x1ea0>
   1e2d1:	48 89 c7             	mov    %rax,%rdi
   1e2d4:	e8 b7 dd fe ff       	callq  c090 <strcmp@plt>
   1e2d9:	85 c0                	test   %eax,%eax
   1e2db:	74 07                	je     1e2e4 <main+0x45>
   1e2dd:	c7 45 fc 01 00 00 00 	movl   $0x1,-0x4(%rbp)
   1e2e4:	e8 a0 de fe ff       	callq  c189 <platform_main_begin>
   1e2e9:	e8 aa f2 fe ff       	callq  d598 <crc32_gentab>
   1e2ee:	e8 c2 f4 fe ff       	callq  d7b5 <func_1>
   1e2f3:	c7 45 f0 00 00 00 00 	movl   $0x0,-0x10(%rbp)
   1e2fa:	eb 4b                	jmp    1e347 <main+0xa8>
   1e2fc:	8b 45 f0             	mov    -0x10(%rbp),%eax
   1e2ff:	48 98                	cltq   
   1e301:	48 8d 14 85 00 00 00 	lea    0x0(,%rax,4),%rdx
   1e308:	00 
   1e309:	48 8d 05 18 6d 00 00 	lea    0x6d18(%rip),%rax        # 25028 <g_2>
   1e310:	8b 04 02             	mov    (%rdx,%rax,1),%eax
   1e313:	48 98                	cltq   
   1e315:	8b 55 fc             	mov    -0x4(%rbp),%edx
   1e318:	48 8d 35 eb 3b 00 00 	lea    0x3beb(%rip),%rsi        # 21f0a <g_1983+0x1ea2>
   1e31f:	48 89 c7             	mov    %rax,%rdi
   1e322:	e8 cc f3 fe ff       	callq  d6f3 <transparent_crc>
   1e327:	83 7d fc 00          	cmpl   $0x0,-0x4(%rbp)
   1e32b:	74 16                	je     1e343 <main+0xa4>
   1e32d:	8b 45 f0             	mov    -0x10(%rbp),%eax
   1e330:	89 c6                	mov    %eax,%esi
   1e332:	48 8d 3d d8 3b 00 00 	lea    0x3bd8(%rip),%rdi        # 21f11 <g_1983+0x1ea9>
   1e339:	b8 00 00 00 00       	mov    $0x0,%eax
   1e33e:	e8 3d dd fe ff       	callq  c080 <printf@plt>
   1e343:	83 45 f0 01          	addl   $0x1,-0x10(%rbp)
   1e347:	83 7d f0 01          	cmpl   $0x1,-0x10(%rbp)
   1e34b:	7e af                	jle    1e2fc <main+0x5d>
   1e34d:	c7 45 f0 00 00 00 00 	movl   $0x0,-0x10(%rbp)
   1e354:	e9 9e 00 00 00       	jmpq   1e3f7 <main+0x158>
   1e359:	c7 45 f4 00 00 00 00 	movl   $0x0,-0xc(%rbp)
   1e360:	e9 84 00 00 00       	jmpq   1e3e9 <main+0x14a>
   1e365:	c7 45 f8 00 00 00 00 	movl   $0x0,-0x8(%rbp)
   1e36c:	eb 71                	jmp    1e3df <main+0x140>
   1e36e:	8b 45 f8             	mov    -0x8(%rbp),%eax
   1e371:	48 63 c8             	movslq %eax,%rcx
   1e374:	8b 45 f0             	mov    -0x10(%rbp),%eax
   1e377:	48 63 d0             	movslq %eax,%rdx
   1e37a:	8b 45 f4             	mov    -0xc(%rbp),%eax
   1e37d:	48 63 f0             	movslq %eax,%rsi
   1e380:	48 89 d0             	mov    %rdx,%rax
   1e383:	48 c1 e0 02          	shl    $0x2,%rax
   1e387:	48 01 d0             	add    %rdx,%rax
   1e38a:	48 01 f0             	add    %rsi,%rax
   1e38d:	48 01 c0             	add    %rax,%rax
   1e390:	48 01 c8             	add    %rcx,%rax
   1e393:	48 8d 14 85 00 00 00 	lea    0x0(,%rax,4),%rdx
   1e39a:	00 
   1e39b:	48 8d 05 9e 6c 00 00 	lea    0x6c9e(%rip),%rax        # 25040 <g_3>
   1e3a2:	8b 04 02             	mov    (%rdx,%rax,1),%eax
   1e3a5:	48 98                	cltq   
   1e3a7:	8b 55 fc             	mov    -0x4(%rbp),%edx
   1e3aa:	48 8d 35 6e 3b 00 00 	lea    0x3b6e(%rip),%rsi        # 21f1f <g_1983+0x1eb7>
   1e3b1:	48 89 c7             	mov    %rax,%rdi
   1e3b4:	e8 3a f3 fe ff       	callq  d6f3 <transparent_crc>
   1e3b9:	83 7d fc 00          	cmpl   $0x0,-0x4(%rbp)
   1e3bd:	74 1c                	je     1e3db <main+0x13c>
   1e3bf:	8b 4d f8             	mov    -0x8(%rbp),%ecx
   1e3c2:	8b 55 f4             	mov    -0xc(%rbp),%edx
   1e3c5:	8b 45 f0             	mov    -0x10(%rbp),%eax
   1e3c8:	89 c6                	mov    %eax,%esi
   1e3ca:	48 8d 3d 5b 3b 00 00 	lea    0x3b5b(%rip),%rdi        # 21f2c <g_1983+0x1ec4>
   1e3d1:	b8 00 00 00 00       	mov    $0x0,%eax
   1e3d6:	e8 a5 dc fe ff       	callq  c080 <printf@plt>
   1e3db:	83 45 f8 01          	addl   $0x1,-0x8(%rbp)
   1e3df:	83 7d f8 01          	cmpl   $0x1,-0x8(%rbp)
   1e3e3:	7e 89                	jle    1e36e <main+0xcf>
   1e3e5:	83 45 f4 01          	addl   $0x1,-0xc(%rbp)
   1e3e9:	83 7d f4 04          	cmpl   $0x4,-0xc(%rbp)
   1e3ed:	0f 8e 72 ff ff ff    	jle    1e365 <main+0xc6>
   1e3f3:	83 45 f0 01          	addl   $0x1,-0x10(%rbp)
   1e3f7:	83 7d f0 06          	cmpl   $0x6,-0x10(%rbp)
   1e3fb:	0f 8e 58 ff ff ff    	jle    1e359 <main+0xba>
   1e401:	8b 05 51 6d 00 00    	mov    0x6d51(%rip),%eax        # 25158 <g_6>
   1e407:	48 98                	cltq   
   1e409:	8b 55 fc             	mov    -0x4(%rbp),%edx
   1e40c:	48 8d 35 2f 3b 00 00 	lea    0x3b2f(%rip),%rsi        # 21f42 <g_1983+0x1eda>
   1e413:	48 89 c7             	mov    %rax,%rdi
   1e416:	e8 d8 f2 fe ff       	callq  d6f3 <transparent_crc>
   1e41b:	8b 05 3b 6d 00 00    	mov    0x6d3b(%rip),%eax        # 2515c <g_7>
   1e421:	48 98                	cltq   
   1e423:	8b 55 fc             	mov    -0x4(%rbp),%edx
   1e426:	48 8d 35 19 3b 00 00 	lea    0x3b19(%rip),%rsi        # 21f46 <g_1983+0x1ede>
   1e42d:	48 89 c7             	mov    %rax,%rdi
   1e430:	e8 be f2 fe ff       	callq  d6f3 <transparent_crc>
   1e435:	8b 05 25 6d 00 00    	mov    0x6d25(%rip),%eax        # 25160 <g_8>
   1e43b:	48 98                	cltq   
   1e43d:	8b 55 fc             	mov    -0x4(%rbp),%edx
   1e440:	48 8d 35 03 3b 00 00 	lea    0x3b03(%rip),%rsi        # 21f4a <g_1983+0x1ee2>
   1e447:	48 89 c7             	mov    %rax,%rdi
   1e44a:	e8 a4 f2 fe ff       	callq  d6f3 <transparent_crc>
   1e44f:	8b 05 0f 6d 00 00    	mov    0x6d0f(%rip),%eax        # 25164 <g_9>
   1e455:	48 98                	cltq   
   1e457:	8b 55 fc             	mov    -0x4(%rbp),%edx
   1e45a:	48 8d 35 ed 3a 00 00 	lea    0x3aed(%rip),%rsi        # 21f4e <g_1983+0x1ee6>
   1e461:	48 89 c7             	mov    %rax,%rdi
   1e464:	e8 8a f2 fe ff       	callq  d6f3 <transparent_crc>
   1e469:	8b 05 f9 6c 00 00    	mov    0x6cf9(%rip),%eax        # 25168 <g_12>
   1e46f:	48 98                	cltq   
   1e471:	8b 55 fc             	mov    -0x4(%rbp),%edx
   1e474:	48 8d 35 d7 3a 00 00 	lea    0x3ad7(%rip),%rsi        # 21f52 <g_1983+0x1eea>
   1e47b:	48 89 c7             	mov    %rax,%rdi
   1e47e:	e8 70 f2 fe ff       	callq  d6f3 <transparent_crc>
   1e483:	48 8b 05 e6 6c 00 00 	mov    0x6ce6(%rip),%rax        # 25170 <g_49>
   1e48a:	48 89 c1             	mov    %rax,%rcx
   1e48d:	8b 45 fc             	mov    -0x4(%rbp),%eax
   1e490:	89 c2                	mov    %eax,%edx
   1e492:	48 8d 35 be 3a 00 00 	lea    0x3abe(%rip),%rsi        # 21f57 <g_1983+0x1eef>
   1e499:	48 89 cf             	mov    %rcx,%rdi
   1e49c:	e8 52 f2 fe ff       	callq  d6f3 <transparent_crc>
   1e4a1:	48 8b 05 d0 6c 00 00 	mov    0x6cd0(%rip),%rax        # 25178 <g_55>
   1e4a8:	48 89 c1             	mov    %rax,%rcx
   1e4ab:	8b 45 fc             	mov    -0x4(%rbp),%eax
   1e4ae:	89 c2                	mov    %eax,%edx
   1e4b0:	48 8d 35 a5 3a 00 00 	lea    0x3aa5(%rip),%rsi        # 21f5c <g_1983+0x1ef4>
   1e4b7:	48 89 cf             	mov    %rcx,%rdi
   1e4ba:	e8 34 f2 fe ff       	callq  d6f3 <transparent_crc>
   1e4bf:	48 8b 05 e2 b4 00 00 	mov    0xb4e2(%rip),%rax        # 299a8 <g_57>
   1e4c6:	48 89 c1             	mov    %rax,%rcx
   1e4c9:	8b 45 fc             	mov    -0x4(%rbp),%eax
   1e4cc:	89 c2                	mov    %eax,%edx
   1e4ce:	48 8d 35 8c 3a 00 00 	lea    0x3a8c(%rip),%rsi        # 21f61 <g_1983+0x1ef9>
   1e4d5:	48 89 cf             	mov    %rcx,%rdi
   1e4d8:	e8 16 f2 fe ff       	callq  d6f3 <transparent_crc>
   1e4dd:	0f b6 05 9c 6c 00 00 	movzbl 0x6c9c(%rip),%eax        # 25180 <g_80>
   1e4e4:	48 0f be c0          	movsbq %al,%rax
   1e4e8:	8b 55 fc             	mov    -0x4(%rbp),%edx
   1e4eb:	48 8d 35 74 3a 00 00 	lea    0x3a74(%rip),%rsi        # 21f66 <g_1983+0x1efe>
   1e4f2:	48 89 c7             	mov    %rax,%rdi
   1e4f5:	e8 f9 f1 fe ff       	callq  d6f3 <transparent_crc>
   1e4fa:	8b 05 84 6c 00 00    	mov    0x6c84(%rip),%eax        # 25184 <g_92>
   1e500:	48 98                	cltq   
   1e502:	8b 55 fc             	mov    -0x4(%rbp),%edx
   1e505:	48 8d 35 5f 3a 00 00 	lea    0x3a5f(%rip),%rsi        # 21f6b <g_1983+0x1f03>
   1e50c:	48 89 c7             	mov    %rax,%rdi
   1e50f:	e8 df f1 fe ff       	callq  d6f3 <transparent_crc>
   1e514:	8b 05 6e 6c 00 00    	mov    0x6c6e(%rip),%eax        # 25188 <g_98>
   1e51a:	48 98                	cltq   
   1e51c:	8b 55 fc             	mov    -0x4(%rbp),%edx
   1e51f:	48 8d 35 4a 3a 00 00 	lea    0x3a4a(%rip),%rsi        # 21f70 <g_1983+0x1f08>
   1e526:	48 89 c7             	mov    %rax,%rdi
   1e529:	e8 c5 f1 fe ff       	callq  d6f3 <transparent_crc>
   1e52e:	8b 05 58 6c 00 00    	mov    0x6c58(%rip),%eax        # 2518c <g_127>
   1e534:	89 c1                	mov    %eax,%ecx
   1e536:	8b 45 fc             	mov    -0x4(%rbp),%eax
   1e539:	89 c2                	mov    %eax,%edx
   1e53b:	48 8d 35 33 3a 00 00 	lea    0x3a33(%rip),%rsi        # 21f75 <g_1983+0x1f0d>
   1e542:	48 89 cf             	mov    %rcx,%rdi
   1e545:	e8 a9 f1 fe ff       	callq  d6f3 <transparent_crc>
   1e54a:	8b 05 60 b4 00 00    	mov    0xb460(%rip),%eax        # 299b0 <g_145>
   1e550:	89 c1                	mov    %eax,%ecx
   1e552:	8b 45 fc             	mov    -0x4(%rbp),%eax
   1e555:	89 c2                	mov    %eax,%edx
   1e557:	48 8d 35 1d 3a 00 00 	lea    0x3a1d(%rip),%rsi        # 21f7b <g_1983+0x1f13>
   1e55e:	48 89 cf             	mov    %rcx,%rdi
   1e561:	e8 8d f1 fe ff       	callq  d6f3 <transparent_crc>
   1e566:	0f b6 05 23 6c 00 00 	movzbl 0x6c23(%rip),%eax        # 25190 <g_161>
   1e56d:	0f b6 c0             	movzbl %al,%eax
   1e570:	8b 55 fc             	mov    -0x4(%rbp),%edx
   1e573:	48 8d 35 07 3a 00 00 	lea    0x3a07(%rip),%rsi        # 21f81 <g_1983+0x1f19>
   1e57a:	48 89 c7             	mov    %rax,%rdi
   1e57d:	e8 71 f1 fe ff       	callq  d6f3 <transparent_crc>
   1e582:	48 8b 05 0f 6c 00 00 	mov    0x6c0f(%rip),%rax        # 25198 <g_176>
   1e589:	8b 55 fc             	mov    -0x4(%rbp),%edx
   1e58c:	48 8d 35 f4 39 00 00 	lea    0x39f4(%rip),%rsi        # 21f87 <g_1983+0x1f1f>
   1e593:	48 89 c7             	mov    %rax,%rdi
   1e596:	e8 58 f1 fe ff       	callq  d6f3 <transparent_crc>
   1e59b:	0f b6 05 fe 6b 00 00 	movzbl 0x6bfe(%rip),%eax        # 251a0 <g_177>
   1e5a2:	0f b6 c0             	movzbl %al,%eax
   1e5a5:	8b 55 fc             	mov    -0x4(%rbp),%edx
   1e5a8:	48 8d 35 de 39 00 00 	lea    0x39de(%rip),%rsi        # 21f8d <g_1983+0x1f25>
   1e5af:	48 89 c7             	mov    %rax,%rdi
   1e5b2:	e8 3c f1 fe ff       	callq  d6f3 <transparent_crc>
   1e5b7:	48 8b 05 ea 6b 00 00 	mov    0x6bea(%rip),%rax        # 251a8 <g_184>
   1e5be:	8b 55 fc             	mov    -0x4(%rbp),%edx
   1e5c1:	48 8d 35 cb 39 00 00 	lea    0x39cb(%rip),%rsi        # 21f93 <g_1983+0x1f2b>
   1e5c8:	48 89 c7             	mov    %rax,%rdi
   1e5cb:	e8 23 f1 fe ff       	callq  d6f3 <transparent_crc>
   1e5d0:	0f b7 05 d9 6b 00 00 	movzwl 0x6bd9(%rip),%eax        # 251b0 <g_200>
   1e5d7:	0f b7 c0             	movzwl %ax,%eax
   1e5da:	8b 55 fc             	mov    -0x4(%rbp),%edx
   1e5dd:	48 8d 35 b5 39 00 00 	lea    0x39b5(%rip),%rsi        # 21f99 <g_1983+0x1f31>
   1e5e4:	48 89 c7             	mov    %rax,%rdi
   1e5e7:	e8 07 f1 fe ff       	callq  d6f3 <transparent_crc>
   1e5ec:	8b 05 c2 6b 00 00    	mov    0x6bc2(%rip),%eax        # 251b4 <g_213>
   1e5f2:	48 98                	cltq   
   1e5f4:	8b 55 fc             	mov    -0x4(%rbp),%edx
   1e5f7:	48 8d 35 a1 39 00 00 	lea    0x39a1(%rip),%rsi        # 21f9f <g_1983+0x1f37>
   1e5fe:	48 89 c7             	mov    %rax,%rdi
   1e601:	e8 ed f0 fe ff       	callq  d6f3 <transparent_crc>
   1e606:	8b 05 ac 6b 00 00    	mov    0x6bac(%rip),%eax        # 251b8 <g_217>
   1e60c:	48 98                	cltq   
   1e60e:	8b 55 fc             	mov    -0x4(%rbp),%edx
   1e611:	48 8d 35 8d 39 00 00 	lea    0x398d(%rip),%rsi        # 21fa5 <g_1983+0x1f3d>
   1e618:	48 89 c7             	mov    %rax,%rdi
   1e61b:	e8 d3 f0 fe ff       	callq  d6f3 <transparent_crc>
   1e620:	8b 05 96 6b 00 00    	mov    0x6b96(%rip),%eax        # 251bc <g_248>
   1e626:	89 c1                	mov    %eax,%ecx
   1e628:	8b 45 fc             	mov    -0x4(%rbp),%eax
   1e62b:	89 c2                	mov    %eax,%edx
   1e62d:	48 8d 35 77 39 00 00 	lea    0x3977(%rip),%rsi        # 21fab <g_1983+0x1f43>
   1e634:	48 89 cf             	mov    %rcx,%rdi
   1e637:	e8 b7 f0 fe ff       	callq  d6f3 <transparent_crc>
   1e63c:	0f b7 05 7d 6b 00 00 	movzwl 0x6b7d(%rip),%eax        # 251c0 <g_266>
   1e643:	0f b7 c0             	movzwl %ax,%eax
   1e646:	8b 55 fc             	mov    -0x4(%rbp),%edx
   1e649:	48 8d 35 61 39 00 00 	lea    0x3961(%rip),%rsi        # 21fb1 <g_1983+0x1f49>
   1e650:	48 89 c7             	mov    %rax,%rdi
   1e653:	e8 9b f0 fe ff       	callq  d6f3 <transparent_crc>
   1e658:	0f b6 05 63 6b 00 00 	movzbl 0x6b63(%rip),%eax        # 251c2 <g_312>
   1e65f:	48 0f be c0          	movsbq %al,%rax
   1e663:	8b 55 fc             	mov    -0x4(%rbp),%edx
   1e666:	48 8d 35 4a 39 00 00 	lea    0x394a(%rip),%rsi        # 21fb7 <g_1983+0x1f4f>
   1e66d:	48 89 c7             	mov    %rax,%rdi
   1e670:	e8 7e f0 fe ff       	callq  d6f3 <transparent_crc>
   1e675:	c7 45 f0 00 00 00 00 	movl   $0x0,-0x10(%rbp)
   1e67c:	eb 45                	jmp    1e6c3 <main+0x424>
   1e67e:	8b 45 f0             	mov    -0x10(%rbp),%eax
   1e681:	48 98                	cltq   
   1e683:	48 8d 15 39 6b 00 00 	lea    0x6b39(%rip),%rdx        # 251c3 <g_323>
   1e68a:	0f b6 04 10          	movzbl (%rax,%rdx,1),%eax
   1e68e:	0f b6 c0             	movzbl %al,%eax
   1e691:	8b 55 fc             	mov    -0x4(%rbp),%edx
   1e694:	48 8d 35 22 39 00 00 	lea    0x3922(%rip),%rsi        # 21fbd <g_1983+0x1f55>
   1e69b:	48 89 c7             	mov    %rax,%rdi
   1e69e:	e8 50 f0 fe ff       	callq  d6f3 <transparent_crc>
   1e6a3:	83 7d fc 00          	cmpl   $0x0,-0x4(%rbp)
   1e6a7:	74 16                	je     1e6bf <main+0x420>
   1e6a9:	8b 45 f0             	mov    -0x10(%rbp),%eax
   1e6ac:	89 c6                	mov    %eax,%esi
   1e6ae:	48 8d 3d 5c 38 00 00 	lea    0x385c(%rip),%rdi        # 21f11 <g_1983+0x1ea9>
   1e6b5:	b8 00 00 00 00       	mov    $0x0,%eax
   1e6ba:	e8 c1 d9 fe ff       	callq  c080 <printf@plt>
   1e6bf:	83 45 f0 01          	addl   $0x1,-0x10(%rbp)
   1e6c3:	83 7d f0 01          	cmpl   $0x1,-0x10(%rbp)
   1e6c7:	7e b5                	jle    1e67e <main+0x3df>
   1e6c9:	8b 05 f9 6a 00 00    	mov    0x6af9(%rip),%eax        # 251c8 <g_359>
   1e6cf:	48 98                	cltq   
   1e6d1:	8b 55 fc             	mov    -0x4(%rbp),%edx
   1e6d4:	48 8d 35 eb 38 00 00 	lea    0x38eb(%rip),%rsi        # 21fc6 <g_1983+0x1f5e>
   1e6db:	48 89 c7             	mov    %rax,%rdi
   1e6de:	e8 10 f0 fe ff       	callq  d6f3 <transparent_crc>
   1e6e3:	48 8b 05 e6 6a 00 00 	mov    0x6ae6(%rip),%rax        # 251d0 <g_394>
   1e6ea:	8b 55 fc             	mov    -0x4(%rbp),%edx
   1e6ed:	48 8d 35 d8 38 00 00 	lea    0x38d8(%rip),%rsi        # 21fcc <g_1983+0x1f64>
   1e6f4:	48 89 c7             	mov    %rax,%rdi
   1e6f7:	e8 f7 ef fe ff       	callq  d6f3 <transparent_crc>
   1e6fc:	0f b7 05 d5 6a 00 00 	movzwl 0x6ad5(%rip),%eax        # 251d8 <g_453>
   1e703:	48 0f bf c0          	movswq %ax,%rax
   1e707:	8b 55 fc             	mov    -0x4(%rbp),%edx
   1e70a:	48 8d 35 c1 38 00 00 	lea    0x38c1(%rip),%rsi        # 21fd2 <g_1983+0x1f6a>
   1e711:	48 89 c7             	mov    %rax,%rdi
   1e714:	e8 da ef fe ff       	callq  d6f3 <transparent_crc>
   1e719:	8b 05 bd 6a 00 00    	mov    0x6abd(%rip),%eax        # 251dc <g_508>
   1e71f:	48 98                	cltq   
   1e721:	8b 55 fc             	mov    -0x4(%rbp),%edx
   1e724:	48 8d 35 ad 38 00 00 	lea    0x38ad(%rip),%rsi        # 21fd8 <g_1983+0x1f70>
   1e72b:	48 89 c7             	mov    %rax,%rdi
   1e72e:	e8 c0 ef fe ff       	callq  d6f3 <transparent_crc>
   1e733:	c7 45 f0 00 00 00 00 	movl   $0x0,-0x10(%rbp)
   1e73a:	e9 a5 00 00 00       	jmpq   1e7e4 <main+0x545>
   1e73f:	c7 45 f4 00 00 00 00 	movl   $0x0,-0xc(%rbp)
   1e746:	e9 8b 00 00 00       	jmpq   1e7d6 <main+0x537>
   1e74b:	c7 45 f8 00 00 00 00 	movl   $0x0,-0x8(%rbp)
   1e752:	eb 78                	jmp    1e7cc <main+0x52d>
   1e754:	8b 45 f8             	mov    -0x8(%rbp),%eax
   1e757:	48 63 f0             	movslq %eax,%rsi
   1e75a:	8b 45 f0             	mov    -0x10(%rbp),%eax
   1e75d:	48 63 d0             	movslq %eax,%rdx
   1e760:	8b 45 f4             	mov    -0xc(%rbp),%eax
   1e763:	48 63 c8             	movslq %eax,%rcx
   1e766:	48 89 d0             	mov    %rdx,%rax
   1e769:	48 c1 e0 04          	shl    $0x4,%rax
   1e76d:	48 29 d0             	sub    %rdx,%rax
   1e770:	48 01 c0             	add    %rax,%rax
   1e773:	48 89 ca             	mov    %rcx,%rdx
   1e776:	48 01 d2             	add    %rdx,%rdx
   1e779:	48 01 ca             	add    %rcx,%rdx
   1e77c:	48 01 d0             	add    %rdx,%rax
   1e77f:	48 8d 14 30          	lea    (%rax,%rsi,1),%rdx
   1e783:	48 8d 05 56 6a 00 00 	lea    0x6a56(%rip),%rax        # 251e0 <g_640>
   1e78a:	48 01 d0             	add    %rdx,%rax
   1e78d:	0f b6 00             	movzbl (%rax),%eax
   1e790:	48 0f be c0          	movsbq %al,%rax
   1e794:	8b 55 fc             	mov    -0x4(%rbp),%edx
   1e797:	48 8d 35 40 38 00 00 	lea    0x3840(%rip),%rsi        # 21fde <g_1983+0x1f76>
   1e79e:	48 89 c7             	mov    %rax,%rdi
   1e7a1:	e8 4d ef fe ff       	callq  d6f3 <transparent_crc>
   1e7a6:	83 7d fc 00          	cmpl   $0x0,-0x4(%rbp)
   1e7aa:	74 1c                	je     1e7c8 <main+0x529>
   1e7ac:	8b 4d f8             	mov    -0x8(%rbp),%ecx
   1e7af:	8b 55 f4             	mov    -0xc(%rbp),%edx
   1e7b2:	8b 45 f0             	mov    -0x10(%rbp),%eax
   1e7b5:	89 c6                	mov    %eax,%esi
   1e7b7:	48 8d 3d 6e 37 00 00 	lea    0x376e(%rip),%rdi        # 21f2c <g_1983+0x1ec4>
   1e7be:	b8 00 00 00 00       	mov    $0x0,%eax
   1e7c3:	e8 b8 d8 fe ff       	callq  c080 <printf@plt>
   1e7c8:	83 45 f8 01          	addl   $0x1,-0x8(%rbp)
   1e7cc:	83 7d f8 02          	cmpl   $0x2,-0x8(%rbp)
   1e7d0:	7e 82                	jle    1e754 <main+0x4b5>
   1e7d2:	83 45 f4 01          	addl   $0x1,-0xc(%rbp)
   1e7d6:	83 7d f4 09          	cmpl   $0x9,-0xc(%rbp)
   1e7da:	0f 8e 6b ff ff ff    	jle    1e74b <main+0x4ac>
   1e7e0:	83 45 f0 01          	addl   $0x1,-0x10(%rbp)
   1e7e4:	83 7d f0 06          	cmpl   $0x6,-0x10(%rbp)
   1e7e8:	0f 8e 51 ff ff ff    	jle    1e73f <main+0x4a0>
   1e7ee:	8b 05 c0 6a 00 00    	mov    0x6ac0(%rip),%eax        # 252b4 <g_641>
   1e7f4:	89 c1                	mov    %eax,%ecx
   1e7f6:	8b 45 fc             	mov    -0x4(%rbp),%eax
   1e7f9:	89 c2                	mov    %eax,%edx
   1e7fb:	48 8d 35 eb 37 00 00 	lea    0x37eb(%rip),%rsi        # 21fed <g_1983+0x1f85>
   1e802:	48 89 cf             	mov    %rcx,%rdi
   1e805:	e8 e9 ee fe ff       	callq  d6f3 <transparent_crc>
   1e80a:	8b 05 a8 6a 00 00    	mov    0x6aa8(%rip),%eax        # 252b8 <g_741>
   1e810:	89 c1                	mov    %eax,%ecx
   1e812:	8b 45 fc             	mov    -0x4(%rbp),%eax
   1e815:	89 c2                	mov    %eax,%edx
   1e817:	48 8d 35 d5 37 00 00 	lea    0x37d5(%rip),%rsi        # 21ff3 <g_1983+0x1f8b>
   1e81e:	48 89 cf             	mov    %rcx,%rdi
   1e821:	e8 cd ee fe ff       	callq  d6f3 <transparent_crc>
   1e826:	8b 05 90 6a 00 00    	mov    0x6a90(%rip),%eax        # 252bc <g_778>
   1e82c:	89 c1                	mov    %eax,%ecx
   1e82e:	8b 45 fc             	mov    -0x4(%rbp),%eax
   1e831:	89 c2                	mov    %eax,%edx
   1e833:	48 8d 35 bf 37 00 00 	lea    0x37bf(%rip),%rsi        # 21ff9 <g_1983+0x1f91>
   1e83a:	48 89 cf             	mov    %rcx,%rdi
   1e83d:	e8 b1 ee fe ff       	callq  d6f3 <transparent_crc>
   1e842:	0f b7 05 77 6a 00 00 	movzwl 0x6a77(%rip),%eax        # 252c0 <g_800>
   1e849:	0f b7 c0             	movzwl %ax,%eax
   1e84c:	8b 55 fc             	mov    -0x4(%rbp),%edx
   1e84f:	48 8d 35 a9 37 00 00 	lea    0x37a9(%rip),%rsi        # 21fff <g_1983+0x1f97>
   1e856:	48 89 c7             	mov    %rax,%rdi
   1e859:	e8 95 ee fe ff       	callq  d6f3 <transparent_crc>
   1e85e:	0f b7 05 5b 6a 00 00 	movzwl 0x6a5b(%rip),%eax        # 252c0 <g_800>
   1e865:	0f b7 c0             	movzwl %ax,%eax
   1e868:	8b 55 fc             	mov    -0x4(%rbp),%edx
   1e86b:	48 8d 35 96 37 00 00 	lea    0x3796(%rip),%rsi        # 22008 <g_1983+0x1fa0>
   1e872:	48 89 c7             	mov    %rax,%rdi
   1e875:	e8 79 ee fe ff       	callq  d6f3 <transparent_crc>
   1e87a:	8b 05 d8 17 00 00    	mov    0x17d8(%rip),%eax        # 20058 <g_812>
   1e880:	48 98                	cltq   
   1e882:	8b 55 fc             	mov    -0x4(%rbp),%edx
   1e885:	48 8d 35 85 37 00 00 	lea    0x3785(%rip),%rsi        # 22011 <g_1983+0x1fa9>
   1e88c:	48 89 c7             	mov    %rax,%rdi
   1e88f:	e8 5f ee fe ff       	callq  d6f3 <transparent_crc>
   1e894:	b8 9d 2b 00 00       	mov    $0x2b9d,%eax
   1e899:	0f b7 c0             	movzwl %ax,%eax
   1e89c:	8b 55 fc             	mov    -0x4(%rbp),%edx
   1e89f:	48 8d 35 74 37 00 00 	lea    0x3774(%rip),%rsi        # 2201a <g_1983+0x1fb2>
   1e8a6:	48 89 c7             	mov    %rax,%rdi
   1e8a9:	e8 45 ee fe ff       	callq  d6f3 <transparent_crc>
   1e8ae:	8b 05 a4 17 00 00    	mov    0x17a4(%rip),%eax        # 20058 <g_812>
   1e8b4:	48 98                	cltq   
   1e8b6:	8b 55 fc             	mov    -0x4(%rbp),%edx
   1e8b9:	48 8d 35 63 37 00 00 	lea    0x3763(%rip),%rsi        # 22023 <g_1983+0x1fbb>
   1e8c0:	48 89 c7             	mov    %rax,%rdi
   1e8c3:	e8 2b ee fe ff       	callq  d6f3 <transparent_crc>
   1e8c8:	0f b7 05 89 17 00 00 	movzwl 0x1789(%rip),%eax        # 20058 <g_812>
   1e8cf:	0f b7 c0             	movzwl %ax,%eax
   1e8d2:	8b 55 fc             	mov    -0x4(%rbp),%edx
   1e8d5:	48 8d 35 50 37 00 00 	lea    0x3750(%rip),%rsi        # 2202c <g_1983+0x1fc4>
   1e8dc:	48 89 c7             	mov    %rax,%rdi
   1e8df:	e8 0f ee fe ff       	callq  d6f3 <transparent_crc>
   1e8e4:	8b 05 de 69 00 00    	mov    0x69de(%rip),%eax        # 252c8 <g_841>
   1e8ea:	48 98                	cltq   
   1e8ec:	8b 55 fc             	mov    -0x4(%rbp),%edx
   1e8ef:	48 8d 35 3f 37 00 00 	lea    0x373f(%rip),%rsi        # 22035 <g_1983+0x1fcd>
   1e8f6:	48 89 c7             	mov    %rax,%rdi
   1e8f9:	e8 f5 ed fe ff       	callq  d6f3 <transparent_crc>
   1e8fe:	c7 45 f0 00 00 00 00 	movl   $0x0,-0x10(%rbp)
   1e905:	eb 6d                	jmp    1e974 <main+0x6d5>
   1e907:	c7 45 f4 00 00 00 00 	movl   $0x0,-0xc(%rbp)
   1e90e:	eb 5a                	jmp    1e96a <main+0x6cb>
   1e910:	8b 45 f4             	mov    -0xc(%rbp),%eax
   1e913:	48 98                	cltq   
   1e915:	8b 55 f0             	mov    -0x10(%rbp),%edx
   1e918:	48 63 d2             	movslq %edx,%rdx
   1e91b:	48 01 d2             	add    %rdx,%rdx
   1e91e:	48 01 d0             	add    %rdx,%rax
   1e921:	48 8d 14 85 00 00 00 	lea    0x0(,%rax,4),%rdx
   1e928:	00 
   1e929:	48 8d 05 b0 69 00 00 	lea    0x69b0(%rip),%rax        # 252e0 <g_842>
   1e930:	8b 04 02             	mov    (%rdx,%rax,1),%eax
   1e933:	48 98                	cltq   
   1e935:	8b 55 fc             	mov    -0x4(%rbp),%edx
   1e938:	48 8d 35 fc 36 00 00 	lea    0x36fc(%rip),%rsi        # 2203b <g_1983+0x1fd3>
   1e93f:	48 89 c7             	mov    %rax,%rdi
   1e942:	e8 ac ed fe ff       	callq  d6f3 <transparent_crc>
   1e947:	83 7d fc 00          	cmpl   $0x0,-0x4(%rbp)
   1e94b:	74 19                	je     1e966 <main+0x6c7>
   1e94d:	8b 55 f4             	mov    -0xc(%rbp),%edx
   1e950:	8b 45 f0             	mov    -0x10(%rbp),%eax
   1e953:	89 c6                	mov    %eax,%esi
   1e955:	48 8d 3d eb 36 00 00 	lea    0x36eb(%rip),%rdi        # 22047 <g_1983+0x1fdf>
   1e95c:	b8 00 00 00 00       	mov    $0x0,%eax
   1e961:	e8 1a d7 fe ff       	callq  c080 <printf@plt>
   1e966:	83 45 f4 01          	addl   $0x1,-0xc(%rbp)
   1e96a:	83 7d f4 01          	cmpl   $0x1,-0xc(%rbp)
   1e96e:	7e a0                	jle    1e910 <main+0x671>
   1e970:	83 45 f0 01          	addl   $0x1,-0x10(%rbp)
   1e974:	83 7d f0 07          	cmpl   $0x7,-0x10(%rbp)
   1e978:	7e 8d                	jle    1e907 <main+0x668>
   1e97a:	0f b6 05 9f 69 00 00 	movzbl 0x699f(%rip),%eax        # 25320 <g_950>
   1e981:	48 0f be c0          	movsbq %al,%rax
   1e985:	8b 55 fc             	mov    -0x4(%rbp),%edx
   1e988:	48 8d 35 ca 36 00 00 	lea    0x36ca(%rip),%rsi        # 22059 <g_1983+0x1ff1>
   1e98f:	48 89 c7             	mov    %rax,%rdi
   1e992:	e8 5c ed fe ff       	callq  d6f3 <transparent_crc>
   1e997:	0f b6 05 83 69 00 00 	movzbl 0x6983(%rip),%eax        # 25321 <g_1014>
   1e99e:	0f b6 c0             	movzbl %al,%eax
   1e9a1:	8b 55 fc             	mov    -0x4(%rbp),%edx
   1e9a4:	48 8d 35 b4 36 00 00 	lea    0x36b4(%rip),%rsi        # 2205f <g_1983+0x1ff7>
   1e9ab:	48 89 c7             	mov    %rax,%rdi
   1e9ae:	e8 40 ed fe ff       	callq  d6f3 <transparent_crc>
   1e9b3:	c7 45 f0 00 00 00 00 	movl   $0x0,-0x10(%rbp)
   1e9ba:	eb 72                	jmp    1ea2e <main+0x78f>
   1e9bc:	c7 45 f4 00 00 00 00 	movl   $0x0,-0xc(%rbp)
   1e9c3:	eb 5f                	jmp    1ea24 <main+0x785>
   1e9c5:	8b 45 f4             	mov    -0xc(%rbp),%eax
   1e9c8:	48 63 c8             	movslq %eax,%rcx
   1e9cb:	8b 45 f0             	mov    -0x10(%rbp),%eax
   1e9ce:	48 63 d0             	movslq %eax,%rdx
   1e9d1:	48 89 d0             	mov    %rdx,%rax
   1e9d4:	48 c1 e0 03          	shl    $0x3,%rax
   1e9d8:	48 29 d0             	sub    %rdx,%rax
   1e9db:	48 8d 14 08          	lea    (%rax,%rcx,1),%rdx
   1e9df:	48 8d 05 5a 69 00 00 	lea    0x695a(%rip),%rax        # 25340 <g_1015>
   1e9e6:	48 01 d0             	add    %rdx,%rax
   1e9e9:	0f b6 00             	movzbl (%rax),%eax
   1e9ec:	0f b6 c0             	movzbl %al,%eax
   1e9ef:	8b 55 fc             	mov    -0x4(%rbp),%edx
   1e9f2:	48 8d 35 6d 36 00 00 	lea    0x366d(%rip),%rsi        # 22066 <g_1983+0x1ffe>
   1e9f9:	48 89 c7             	mov    %rax,%rdi
   1e9fc:	e8 f2 ec fe ff       	callq  d6f3 <transparent_crc>
   1ea01:	83 7d fc 00          	cmpl   $0x0,-0x4(%rbp)
   1ea05:	74 19                	je     1ea20 <main+0x781>
   1ea07:	8b 55 f4             	mov    -0xc(%rbp),%edx
   1ea0a:	8b 45 f0             	mov    -0x10(%rbp),%eax
   1ea0d:	89 c6                	mov    %eax,%esi
   1ea0f:	48 8d 3d 31 36 00 00 	lea    0x3631(%rip),%rdi        # 22047 <g_1983+0x1fdf>
   1ea16:	b8 00 00 00 00       	mov    $0x0,%eax
   1ea1b:	e8 60 d6 fe ff       	callq  c080 <printf@plt>
   1ea20:	83 45 f4 01          	addl   $0x1,-0xc(%rbp)
   1ea24:	83 7d f4 06          	cmpl   $0x6,-0xc(%rbp)
   1ea28:	7e 9b                	jle    1e9c5 <main+0x726>
   1ea2a:	83 45 f0 01          	addl   $0x1,-0x10(%rbp)
   1ea2e:	83 7d f0 07          	cmpl   $0x7,-0x10(%rbp)
   1ea32:	7e 88                	jle    1e9bc <main+0x71d>
   1ea34:	c7 45 f0 00 00 00 00 	movl   $0x0,-0x10(%rbp)
   1ea3b:	e9 b8 00 00 00       	jmpq   1eaf8 <main+0x859>
   1ea40:	c7 45 f4 00 00 00 00 	movl   $0x0,-0xc(%rbp)
   1ea47:	e9 9e 00 00 00       	jmpq   1eaea <main+0x84b>
   1ea4c:	c7 45 f8 00 00 00 00 	movl   $0x0,-0x8(%rbp)
   1ea53:	e9 84 00 00 00       	jmpq   1eadc <main+0x83d>
   1ea58:	8b 45 f8             	mov    -0x8(%rbp),%eax
   1ea5b:	48 63 f0             	movslq %eax,%rsi
   1ea5e:	8b 45 f0             	mov    -0x10(%rbp),%eax
   1ea61:	48 63 d0             	movslq %eax,%rdx
   1ea64:	8b 45 f4             	mov    -0xc(%rbp),%eax
   1ea67:	48 63 c8             	movslq %eax,%rcx
   1ea6a:	48 89 d0             	mov    %rdx,%rax
   1ea6d:	48 01 c0             	add    %rax,%rax
   1ea70:	48 01 d0             	add    %rdx,%rax
   1ea73:	48 8d 14 c5 00 00 00 	lea    0x0(,%rax,8),%rdx
   1ea7a:	00 
   1ea7b:	48 01 d0             	add    %rdx,%rax
   1ea7e:	48 01 c0             	add    %rax,%rax
   1ea81:	48 89 ca             	mov    %rcx,%rdx
   1ea84:	48 01 d2             	add    %rdx,%rdx
   1ea87:	48 01 ca             	add    %rcx,%rdx
   1ea8a:	48 01 d2             	add    %rdx,%rdx
   1ea8d:	48 01 d0             	add    %rdx,%rax
   1ea90:	48 8d 14 30          	lea    (%rax,%rsi,1),%rdx
   1ea94:	48 8d 05 e5 68 00 00 	lea    0x68e5(%rip),%rax        # 25380 <g_1016>
   1ea9b:	48 01 d0             	add    %rdx,%rax
   1ea9e:	0f b6 00             	movzbl (%rax),%eax
   1eaa1:	0f b6 c0             	movzbl %al,%eax
   1eaa4:	8b 55 fc             	mov    -0x4(%rbp),%edx
   1eaa7:	48 8d 35 c5 35 00 00 	lea    0x35c5(%rip),%rsi        # 22073 <g_1983+0x200b>
   1eaae:	48 89 c7             	mov    %rax,%rdi
   1eab1:	e8 3d ec fe ff       	callq  d6f3 <transparent_crc>
   1eab6:	83 7d fc 00          	cmpl   $0x0,-0x4(%rbp)
   1eaba:	74 1c                	je     1ead8 <main+0x839>
   1eabc:	8b 4d f8             	mov    -0x8(%rbp),%ecx
   1eabf:	8b 55 f4             	mov    -0xc(%rbp),%edx
   1eac2:	8b 45 f0             	mov    -0x10(%rbp),%eax
   1eac5:	89 c6                	mov    %eax,%esi
   1eac7:	48 8d 3d 5e 34 00 00 	lea    0x345e(%rip),%rdi        # 21f2c <g_1983+0x1ec4>
   1eace:	b8 00 00 00 00       	mov    $0x0,%eax
   1ead3:	e8 a8 d5 fe ff       	callq  c080 <printf@plt>
   1ead8:	83 45 f8 01          	addl   $0x1,-0x8(%rbp)
   1eadc:	83 7d f8 05          	cmpl   $0x5,-0x8(%rbp)
   1eae0:	0f 8e 72 ff ff ff    	jle    1ea58 <main+0x7b9>
   1eae6:	83 45 f4 01          	addl   $0x1,-0xc(%rbp)
   1eaea:	83 7d f4 08          	cmpl   $0x8,-0xc(%rbp)
   1eaee:	0f 8e 58 ff ff ff    	jle    1ea4c <main+0x7ad>
   1eaf4:	83 45 f0 01          	addl   $0x1,-0x10(%rbp)
   1eaf8:	83 7d f0 01          	cmpl   $0x1,-0x10(%rbp)
   1eafc:	0f 8e 3e ff ff ff    	jle    1ea40 <main+0x7a1>
   1eb02:	0f b6 05 e3 68 00 00 	movzbl 0x68e3(%rip),%eax        # 253ec <g_1017>
   1eb09:	0f b6 c0             	movzbl %al,%eax
   1eb0c:	8b 55 fc             	mov    -0x4(%rbp),%edx
   1eb0f:	48 8d 35 6d 35 00 00 	lea    0x356d(%rip),%rsi        # 22083 <g_1983+0x201b>
   1eb16:	48 89 c7             	mov    %rax,%rdi
   1eb19:	e8 d5 eb fe ff       	callq  d6f3 <transparent_crc>
   1eb1e:	0f b6 05 c8 68 00 00 	movzbl 0x68c8(%rip),%eax        # 253ed <g_1018>
   1eb25:	0f b6 c0             	movzbl %al,%eax
   1eb28:	8b 55 fc             	mov    -0x4(%rbp),%edx
   1eb2b:	48 8d 35 58 35 00 00 	lea    0x3558(%rip),%rsi        # 2208a <g_1983+0x2022>
   1eb32:	48 89 c7             	mov    %rax,%rdi
   1eb35:	e8 b9 eb fe ff       	callq  d6f3 <transparent_crc>
   1eb3a:	0f b6 05 ad 68 00 00 	movzbl 0x68ad(%rip),%eax        # 253ee <g_1019>
   1eb41:	0f b6 c0             	movzbl %al,%eax
   1eb44:	8b 55 fc             	mov    -0x4(%rbp),%edx
   1eb47:	48 8d 35 43 35 00 00 	lea    0x3543(%rip),%rsi        # 22091 <g_1983+0x2029>
   1eb4e:	48 89 c7             	mov    %rax,%rdi
   1eb51:	e8 9d eb fe ff       	callq  d6f3 <transparent_crc>
   1eb56:	0f b6 05 92 68 00 00 	movzbl 0x6892(%rip),%eax        # 253ef <g_1242>
   1eb5d:	48 0f be c0          	movsbq %al,%rax
   1eb61:	8b 55 fc             	mov    -0x4(%rbp),%edx
   1eb64:	48 8d 35 2d 35 00 00 	lea    0x352d(%rip),%rsi        # 22098 <g_1983+0x2030>
   1eb6b:	48 89 c7             	mov    %rax,%rdi
   1eb6e:	e8 80 eb fe ff       	callq  d6f3 <transparent_crc>
   1eb73:	0f b6 05 76 68 00 00 	movzbl 0x6876(%rip),%eax        # 253f0 <g_1276>
   1eb7a:	0f b6 c0             	movzbl %al,%eax
   1eb7d:	8b 55 fc             	mov    -0x4(%rbp),%edx
   1eb80:	48 8d 35 18 35 00 00 	lea    0x3518(%rip),%rsi        # 2209f <g_1983+0x2037>
   1eb87:	48 89 c7             	mov    %rax,%rdi
   1eb8a:	e8 64 eb fe ff       	callq  d6f3 <transparent_crc>
   1eb8f:	0f b7 05 62 68 00 00 	movzwl 0x6862(%rip),%eax        # 253f8 <g_1381>
   1eb96:	0f b7 c0             	movzwl %ax,%eax
   1eb99:	8b 55 fc             	mov    -0x4(%rbp),%edx
   1eb9c:	48 8d 35 03 35 00 00 	lea    0x3503(%rip),%rsi        # 220a6 <g_1983+0x203e>
   1eba3:	48 89 c7             	mov    %rax,%rdi
   1eba6:	e8 48 eb fe ff       	callq  d6f3 <transparent_crc>
   1ebab:	0f b7 05 46 68 00 00 	movzwl 0x6846(%rip),%eax        # 253f8 <g_1381>
   1ebb2:	0f b7 c0             	movzwl %ax,%eax
   1ebb5:	8b 55 fc             	mov    -0x4(%rbp),%edx
   1ebb8:	48 8d 35 f1 34 00 00 	lea    0x34f1(%rip),%rsi        # 220b0 <g_1983+0x2048>
   1ebbf:	48 89 c7             	mov    %rax,%rdi
   1ebc2:	e8 2c eb fe ff       	callq  d6f3 <transparent_crc>
   1ebc7:	48 8b 05 32 68 00 00 	mov    0x6832(%rip),%rax        # 25400 <g_1397>
   1ebce:	8b 55 fc             	mov    -0x4(%rbp),%edx
   1ebd1:	48 8d 35 e2 34 00 00 	lea    0x34e2(%rip),%rsi        # 220ba <g_1983+0x2052>
   1ebd8:	48 89 c7             	mov    %rax,%rdi
   1ebdb:	e8 13 eb fe ff       	callq  d6f3 <transparent_crc>
   1ebe0:	8b 05 22 68 00 00    	mov    0x6822(%rip),%eax        # 25408 <g_1510>
   1ebe6:	48 98                	cltq   
   1ebe8:	8b 55 fc             	mov    -0x4(%rbp),%edx
   1ebeb:	48 8d 35 cf 34 00 00 	lea    0x34cf(%rip),%rsi        # 220c1 <g_1983+0x2059>
   1ebf2:	48 89 c7             	mov    %rax,%rdi
   1ebf5:	e8 f9 ea fe ff       	callq  d6f3 <transparent_crc>
   1ebfa:	0f b7 05 07 68 00 00 	movzwl 0x6807(%rip),%eax        # 25408 <g_1510>
   1ec01:	0f b7 c0             	movzwl %ax,%eax
   1ec04:	8b 55 fc             	mov    -0x4(%rbp),%edx
   1ec07:	48 8d 35 bd 34 00 00 	lea    0x34bd(%rip),%rsi        # 220cb <g_1983+0x2063>
   1ec0e:	48 89 c7             	mov    %rax,%rdi
   1ec11:	e8 dd ea fe ff       	callq  d6f3 <transparent_crc>
   1ec16:	8b 05 ec 67 00 00    	mov    0x67ec(%rip),%eax        # 25408 <g_1510>
   1ec1c:	48 98                	cltq   
   1ec1e:	8b 55 fc             	mov    -0x4(%rbp),%edx
   1ec21:	48 8d 35 ad 34 00 00 	lea    0x34ad(%rip),%rsi        # 220d5 <g_1983+0x206d>
   1ec28:	48 89 c7             	mov    %rax,%rdi
   1ec2b:	e8 c3 ea fe ff       	callq  d6f3 <transparent_crc>
   1ec30:	0f b7 05 d1 67 00 00 	movzwl 0x67d1(%rip),%eax        # 25408 <g_1510>
   1ec37:	0f b7 c0             	movzwl %ax,%eax
   1ec3a:	8b 55 fc             	mov    -0x4(%rbp),%edx
   1ec3d:	48 8d 35 9b 34 00 00 	lea    0x349b(%rip),%rsi        # 220df <g_1983+0x2077>
   1ec44:	48 89 c7             	mov    %rax,%rdi
   1ec47:	e8 a7 ea fe ff       	callq  d6f3 <transparent_crc>
   1ec4c:	0f b6 05 bd 67 00 00 	movzbl 0x67bd(%rip),%eax        # 25410 <g_1536>
   1ec53:	0f b6 c0             	movzbl %al,%eax
   1ec56:	8b 55 fc             	mov    -0x4(%rbp),%edx
   1ec59:	48 8d 35 89 34 00 00 	lea    0x3489(%rip),%rsi        # 220e9 <g_1983+0x2081>
   1ec60:	48 89 c7             	mov    %rax,%rdi
   1ec63:	e8 8b ea fe ff       	callq  d6f3 <transparent_crc>
   1ec68:	0f b7 05 a9 67 00 00 	movzwl 0x67a9(%rip),%eax        # 25418 <g_1588>
   1ec6f:	0f b7 c0             	movzwl %ax,%eax
   1ec72:	8b 55 fc             	mov    -0x4(%rbp),%edx
   1ec75:	48 8d 35 74 34 00 00 	lea    0x3474(%rip),%rsi        # 220f0 <g_1983+0x2088>
   1ec7c:	48 89 c7             	mov    %rax,%rdi
   1ec7f:	e8 6f ea fe ff       	callq  d6f3 <transparent_crc>
   1ec84:	0f b7 05 8d 67 00 00 	movzwl 0x678d(%rip),%eax        # 25418 <g_1588>
   1ec8b:	0f b7 c0             	movzwl %ax,%eax
   1ec8e:	8b 55 fc             	mov    -0x4(%rbp),%edx
   1ec91:	48 8d 35 62 34 00 00 	lea    0x3462(%rip),%rsi        # 220fa <g_1983+0x2092>
   1ec98:	48 89 c7             	mov    %rax,%rdi
   1ec9b:	e8 53 ea fe ff       	callq  d6f3 <transparent_crc>
   1eca0:	8b 05 7a 67 00 00    	mov    0x677a(%rip),%eax        # 25420 <g_1590>
   1eca6:	48 98                	cltq   
   1eca8:	8b 55 fc             	mov    -0x4(%rbp),%edx
   1ecab:	48 8d 35 52 34 00 00 	lea    0x3452(%rip),%rsi        # 22104 <g_1983+0x209c>
   1ecb2:	48 89 c7             	mov    %rax,%rdi
   1ecb5:	e8 39 ea fe ff       	callq  d6f3 <transparent_crc>
   1ecba:	0f b7 05 5f 67 00 00 	movzwl 0x675f(%rip),%eax        # 25420 <g_1590>
   1ecc1:	0f b7 c0             	movzwl %ax,%eax
   1ecc4:	8b 55 fc             	mov    -0x4(%rbp),%edx
   1ecc7:	48 8d 35 40 34 00 00 	lea    0x3440(%rip),%rsi        # 2210e <g_1983+0x20a6>
   1ecce:	48 89 c7             	mov    %rax,%rdi
   1ecd1:	e8 1d ea fe ff       	callq  d6f3 <transparent_crc>
   1ecd6:	8b 05 44 67 00 00    	mov    0x6744(%rip),%eax        # 25420 <g_1590>
   1ecdc:	48 98                	cltq   
   1ecde:	8b 55 fc             	mov    -0x4(%rbp),%edx
   1ece1:	48 8d 35 30 34 00 00 	lea    0x3430(%rip),%rsi        # 22118 <g_1983+0x20b0>
   1ece8:	48 89 c7             	mov    %rax,%rdi
   1eceb:	e8 03 ea fe ff       	callq  d6f3 <transparent_crc>
   1ecf0:	0f b7 05 29 67 00 00 	movzwl 0x6729(%rip),%eax        # 25420 <g_1590>
   1ecf7:	0f b7 c0             	movzwl %ax,%eax
   1ecfa:	8b 55 fc             	mov    -0x4(%rbp),%edx
   1ecfd:	48 8d 35 1e 34 00 00 	lea    0x341e(%rip),%rsi        # 22122 <g_1983+0x20ba>
   1ed04:	48 89 c7             	mov    %rax,%rdi
   1ed07:	e8 e7 e9 fe ff       	callq  d6f3 <transparent_crc>
   1ed0c:	8b 05 d6 ac 00 00    	mov    0xacd6(%rip),%eax        # 299e8 <g_1591>
   1ed12:	48 98                	cltq   
   1ed14:	8b 55 fc             	mov    -0x4(%rbp),%edx
   1ed17:	48 8d 35 0e 34 00 00 	lea    0x340e(%rip),%rsi        # 2212c <g_1983+0x20c4>
   1ed1e:	48 89 c7             	mov    %rax,%rdi
   1ed21:	e8 cd e9 fe ff       	callq  d6f3 <transparent_crc>
   1ed26:	0f b7 05 bb ac 00 00 	movzwl 0xacbb(%rip),%eax        # 299e8 <g_1591>
   1ed2d:	0f b7 c0             	movzwl %ax,%eax
   1ed30:	8b 55 fc             	mov    -0x4(%rbp),%edx
   1ed33:	48 8d 35 fc 33 00 00 	lea    0x33fc(%rip),%rsi        # 22136 <g_1983+0x20ce>
   1ed3a:	48 89 c7             	mov    %rax,%rdi
   1ed3d:	e8 b1 e9 fe ff       	callq  d6f3 <transparent_crc>
   1ed42:	8b 05 a0 ac 00 00    	mov    0xaca0(%rip),%eax        # 299e8 <g_1591>
   1ed48:	48 98                	cltq   
   1ed4a:	8b 55 fc             	mov    -0x4(%rbp),%edx
   1ed4d:	48 8d 35 ec 33 00 00 	lea    0x33ec(%rip),%rsi        # 22140 <g_1983+0x20d8>
   1ed54:	48 89 c7             	mov    %rax,%rdi
   1ed57:	e8 97 e9 fe ff       	callq  d6f3 <transparent_crc>
   1ed5c:	0f b7 05 85 ac 00 00 	movzwl 0xac85(%rip),%eax        # 299e8 <g_1591>
   1ed63:	0f b7 c0             	movzwl %ax,%eax
   1ed66:	8b 55 fc             	mov    -0x4(%rbp),%edx
   1ed69:	48 8d 35 da 33 00 00 	lea    0x33da(%rip),%rsi        # 2214a <g_1983+0x20e2>
   1ed70:	48 89 c7             	mov    %rax,%rdi
   1ed73:	e8 7b e9 fe ff       	callq  d6f3 <transparent_crc>
   1ed78:	8b 05 aa 66 00 00    	mov    0x66aa(%rip),%eax        # 25428 <g_1615>
   1ed7e:	48 98                	cltq   
   1ed80:	8b 55 fc             	mov    -0x4(%rbp),%edx
   1ed83:	48 8d 35 ca 33 00 00 	lea    0x33ca(%rip),%rsi        # 22154 <g_1983+0x20ec>
   1ed8a:	48 89 c7             	mov    %rax,%rdi
   1ed8d:	e8 61 e9 fe ff       	callq  d6f3 <transparent_crc>
   1ed92:	c7 45 f0 00 00 00 00 	movl   $0x0,-0x10(%rbp)
   1ed99:	eb 75                	jmp    1ee10 <main+0xb71>
   1ed9b:	c7 45 f4 00 00 00 00 	movl   $0x0,-0xc(%rbp)
   1eda2:	eb 62                	jmp    1ee06 <main+0xb67>
   1eda4:	8b 45 f4             	mov    -0xc(%rbp),%eax
   1eda7:	48 63 c8             	movslq %eax,%rcx
   1edaa:	8b 45 f0             	mov    -0x10(%rbp),%eax
   1edad:	48 63 d0             	movslq %eax,%rdx
   1edb0:	48 89 d0             	mov    %rdx,%rax
   1edb3:	48 01 c0             	add    %rax,%rax
   1edb6:	48 01 d0             	add    %rdx,%rax
   1edb9:	48 01 c0             	add    %rax,%rax
   1edbc:	48 01 c8             	add    %rcx,%rax
   1edbf:	48 8d 14 00          	lea    (%rax,%rax,1),%rdx
   1edc3:	48 8d 05 76 66 00 00 	lea    0x6676(%rip),%rax        # 25440 <g_1645>
   1edca:	0f b7 04 02          	movzwl (%rdx,%rax,1),%eax
   1edce:	0f b7 c0             	movzwl %ax,%eax
   1edd1:	8b 55 fc             	mov    -0x4(%rbp),%edx
   1edd4:	48 8d 35 80 33 00 00 	lea    0x3380(%rip),%rsi        # 2215b <g_1983+0x20f3>
   1eddb:	48 89 c7             	mov    %rax,%rdi
   1edde:	e8 10 e9 fe ff       	callq  d6f3 <transparent_crc>
   1ede3:	83 7d fc 00          	cmpl   $0x0,-0x4(%rbp)
   1ede7:	74 19                	je     1ee02 <main+0xb63>
   1ede9:	8b 55 f4             	mov    -0xc(%rbp),%edx
   1edec:	8b 45 f0             	mov    -0x10(%rbp),%eax
   1edef:	89 c6                	mov    %eax,%esi
   1edf1:	48 8d 3d 4f 32 00 00 	lea    0x324f(%rip),%rdi        # 22047 <g_1983+0x1fdf>
   1edf8:	b8 00 00 00 00       	mov    $0x0,%eax
   1edfd:	e8 7e d2 fe ff       	callq  c080 <printf@plt>
   1ee02:	83 45 f4 01          	addl   $0x1,-0xc(%rbp)
   1ee06:	83 7d f4 05          	cmpl   $0x5,-0xc(%rbp)
   1ee0a:	7e 98                	jle    1eda4 <main+0xb05>
   1ee0c:	83 45 f0 01          	addl   $0x1,-0x10(%rbp)
   1ee10:	83 7d f0 03          	cmpl   $0x3,-0x10(%rbp)
   1ee14:	7e 85                	jle    1ed9b <main+0xafc>
   1ee16:	8b 05 54 66 00 00    	mov    0x6654(%rip),%eax        # 25470 <g_1656>
   1ee1c:	89 c1                	mov    %eax,%ecx
   1ee1e:	8b 45 fc             	mov    -0x4(%rbp),%eax
   1ee21:	89 c2                	mov    %eax,%edx
   1ee23:	48 8d 35 3e 33 00 00 	lea    0x333e(%rip),%rsi        # 22168 <g_1983+0x2100>
   1ee2a:	48 89 cf             	mov    %rcx,%rdi
   1ee2d:	e8 c1 e8 fe ff       	callq  d6f3 <transparent_crc>
   1ee32:	8b 05 3c 66 00 00    	mov    0x663c(%rip),%eax        # 25474 <g_1809>
   1ee38:	89 c1                	mov    %eax,%ecx
   1ee3a:	8b 45 fc             	mov    -0x4(%rbp),%eax
   1ee3d:	89 c2                	mov    %eax,%edx
   1ee3f:	48 8d 35 29 33 00 00 	lea    0x3329(%rip),%rsi        # 2216f <g_1983+0x2107>
   1ee46:	48 89 cf             	mov    %rcx,%rdi
   1ee49:	e8 a5 e8 fe ff       	callq  d6f3 <transparent_crc>
   1ee4e:	8b 05 0c 12 00 00    	mov    0x120c(%rip),%eax        # 20060 <g_1889>
   1ee54:	48 98                	cltq   
   1ee56:	8b 55 fc             	mov    -0x4(%rbp),%edx
   1ee59:	48 8d 35 16 33 00 00 	lea    0x3316(%rip),%rsi        # 22176 <g_1983+0x210e>
   1ee60:	48 89 c7             	mov    %rax,%rdi
   1ee63:	e8 8b e8 fe ff       	callq  d6f3 <transparent_crc>
   1ee68:	b8 df 42 00 00       	mov    $0x42df,%eax
   1ee6d:	0f b7 c0             	movzwl %ax,%eax
   1ee70:	8b 55 fc             	mov    -0x4(%rbp),%edx
   1ee73:	48 8d 35 06 33 00 00 	lea    0x3306(%rip),%rsi        # 22180 <g_1983+0x2118>
   1ee7a:	48 89 c7             	mov    %rax,%rdi
   1ee7d:	e8 71 e8 fe ff       	callq  d6f3 <transparent_crc>
   1ee82:	8b 05 d8 11 00 00    	mov    0x11d8(%rip),%eax        # 20060 <g_1889>
   1ee88:	48 98                	cltq   
   1ee8a:	8b 55 fc             	mov    -0x4(%rbp),%edx
   1ee8d:	48 8d 35 f6 32 00 00 	lea    0x32f6(%rip),%rsi        # 2218a <g_1983+0x2122>
   1ee94:	48 89 c7             	mov    %rax,%rdi
   1ee97:	e8 57 e8 fe ff       	callq  d6f3 <transparent_crc>
   1ee9c:	0f b7 05 bd 11 00 00 	movzwl 0x11bd(%rip),%eax        # 20060 <g_1889>
   1eea3:	0f b7 c0             	movzwl %ax,%eax
   1eea6:	8b 55 fc             	mov    -0x4(%rbp),%edx
   1eea9:	48 8d 35 e4 32 00 00 	lea    0x32e4(%rip),%rsi        # 22194 <g_1983+0x212c>
   1eeb0:	48 89 c7             	mov    %rax,%rdi
   1eeb3:	e8 3b e8 fe ff       	callq  d6f3 <transparent_crc>
   1eeb8:	c7 45 f0 00 00 00 00 	movl   $0x0,-0x10(%rbp)
   1eebf:	e9 d0 00 00 00       	jmpq   1ef94 <main+0xcf5>
   1eec4:	8b 45 f0             	mov    -0x10(%rbp),%eax
   1eec7:	48 98                	cltq   
   1eec9:	48 8d 14 c5 00 00 00 	lea    0x0(,%rax,8),%rdx
   1eed0:	00 
   1eed1:	48 8d 05 a8 65 00 00 	lea    0x65a8(%rip),%rax        # 25480 <g_1891>
   1eed8:	8b 04 02             	mov    (%rdx,%rax,1),%eax
   1eedb:	48 98                	cltq   
   1eedd:	8b 55 fc             	mov    -0x4(%rbp),%edx
   1eee0:	48 8d 35 b7 32 00 00 	lea    0x32b7(%rip),%rsi        # 2219e <g_1983+0x2136>
   1eee7:	48 89 c7             	mov    %rax,%rdi
   1eeea:	e8 04 e8 fe ff       	callq  d6f3 <transparent_crc>
   1eeef:	8b 45 f0             	mov    -0x10(%rbp),%eax
   1eef2:	48 98                	cltq   
   1eef4:	48 8d 14 c5 00 00 00 	lea    0x0(,%rax,8),%rdx
   1eefb:	00 
   1eefc:	48 8d 05 7d 65 00 00 	lea    0x657d(%rip),%rax        # 25480 <g_1891>
   1ef03:	0f b7 04 02          	movzwl (%rdx,%rax,1),%eax
   1ef07:	0f b7 c0             	movzwl %ax,%eax
   1ef0a:	8b 55 fc             	mov    -0x4(%rbp),%edx
   1ef0d:	48 8d 35 97 32 00 00 	lea    0x3297(%rip),%rsi        # 221ab <g_1983+0x2143>
   1ef14:	48 89 c7             	mov    %rax,%rdi
   1ef17:	e8 d7 e7 fe ff       	callq  d6f3 <transparent_crc>
   1ef1c:	8b 45 f0             	mov    -0x10(%rbp),%eax
   1ef1f:	48 98                	cltq   
   1ef21:	48 8d 14 c5 00 00 00 	lea    0x0(,%rax,8),%rdx
   1ef28:	00 
   1ef29:	48 8d 05 50 65 00 00 	lea    0x6550(%rip),%rax        # 25480 <g_1891>
   1ef30:	8b 04 02             	mov    (%rdx,%rax,1),%eax
   1ef33:	48 98                	cltq   
   1ef35:	8b 55 fc             	mov    -0x4(%rbp),%edx
   1ef38:	48 8d 35 79 32 00 00 	lea    0x3279(%rip),%rsi        # 221b8 <g_1983+0x2150>
   1ef3f:	48 89 c7             	mov    %rax,%rdi
   1ef42:	e8 ac e7 fe ff       	callq  d6f3 <transparent_crc>
   1ef47:	8b 45 f0             	mov    -0x10(%rbp),%eax
   1ef4a:	48 98                	cltq   
   1ef4c:	48 8d 14 c5 00 00 00 	lea    0x0(,%rax,8),%rdx
   1ef53:	00 
   1ef54:	48 8d 05 25 65 00 00 	lea    0x6525(%rip),%rax        # 25480 <g_1891>
   1ef5b:	0f b7 04 02          	movzwl (%rdx,%rax,1),%eax
   1ef5f:	0f b7 c0             	movzwl %ax,%eax
   1ef62:	8b 55 fc             	mov    -0x4(%rbp),%edx
   1ef65:	48 8d 35 59 32 00 00 	lea    0x3259(%rip),%rsi        # 221c5 <g_1983+0x215d>
   1ef6c:	48 89 c7             	mov    %rax,%rdi
   1ef6f:	e8 7f e7 fe ff       	callq  d6f3 <transparent_crc>
   1ef74:	83 7d fc 00          	cmpl   $0x0,-0x4(%rbp)
   1ef78:	74 16                	je     1ef90 <main+0xcf1>
   1ef7a:	8b 45 f0             	mov    -0x10(%rbp),%eax
   1ef7d:	89 c6                	mov    %eax,%esi
   1ef7f:	48 8d 3d 8b 2f 00 00 	lea    0x2f8b(%rip),%rdi        # 21f11 <g_1983+0x1ea9>
   1ef86:	b8 00 00 00 00       	mov    $0x0,%eax
   1ef8b:	e8 f0 d0 fe ff       	callq  c080 <printf@plt>
   1ef90:	83 45 f0 01          	addl   $0x1,-0x10(%rbp)
   1ef94:	83 7d f0 06          	cmpl   $0x6,-0x10(%rbp)
   1ef98:	0f 8e 26 ff ff ff    	jle    1eec4 <main+0xc25>
   1ef9e:	0f b7 05 13 65 00 00 	movzwl 0x6513(%rip),%eax        # 254b8 <g_1919>
   1efa5:	0f b7 c0             	movzwl %ax,%eax
   1efa8:	8b 55 fc             	mov    -0x4(%rbp),%edx
   1efab:	48 8d 35 20 32 00 00 	lea    0x3220(%rip),%rsi        # 221d2 <g_1983+0x216a>
   1efb2:	48 89 c7             	mov    %rax,%rdi
   1efb5:	e8 39 e7 fe ff       	callq  d6f3 <transparent_crc>
   1efba:	b8 41 26 f5 d5       	mov    $0xd5f52641,%eax
   1efbf:	48 98                	cltq   
   1efc1:	8b 55 fc             	mov    -0x4(%rbp),%edx
   1efc4:	48 8d 35 0e 32 00 00 	lea    0x320e(%rip),%rsi        # 221d9 <g_1983+0x2171>
   1efcb:	48 89 c7             	mov    %rax,%rdi
   1efce:	e8 20 e7 fe ff       	callq  d6f3 <transparent_crc>
   1efd3:	8b 05 e3 64 00 00    	mov    0x64e3(%rip),%eax        # 254bc <g_2024>
   1efd9:	89 c1                	mov    %eax,%ecx
   1efdb:	8b 45 fc             	mov    -0x4(%rbp),%eax
   1efde:	89 c2                	mov    %eax,%edx
   1efe0:	48 8d 35 f9 31 00 00 	lea    0x31f9(%rip),%rsi        # 221e0 <g_1983+0x2178>
   1efe7:	48 89 cf             	mov    %rcx,%rdi
   1efea:	e8 04 e7 fe ff       	callq  d6f3 <transparent_crc>
   1efef:	0f b6 05 ca 64 00 00 	movzbl 0x64ca(%rip),%eax        # 254c0 <g_2036>
   1eff6:	48 0f be c0          	movsbq %al,%rax
   1effa:	8b 55 fc             	mov    -0x4(%rbp),%edx
   1effd:	48 8d 35 e3 31 00 00 	lea    0x31e3(%rip),%rsi        # 221e7 <g_1983+0x217f>
   1f004:	48 89 c7             	mov    %rax,%rdi
   1f007:	e8 e7 e6 fe ff       	callq  d6f3 <transparent_crc>
   1f00c:	0f b7 05 af 64 00 00 	movzwl 0x64af(%rip),%eax        # 254c2 <g_2217>
   1f013:	0f b7 c0             	movzwl %ax,%eax
   1f016:	8b 55 fc             	mov    -0x4(%rbp),%edx
   1f019:	48 8d 35 ce 31 00 00 	lea    0x31ce(%rip),%rsi        # 221ee <g_1983+0x2186>
   1f020:	48 89 c7             	mov    %rax,%rdi
   1f023:	e8 cb e6 fe ff       	callq  d6f3 <transparent_crc>
   1f028:	8b 05 96 64 00 00    	mov    0x6496(%rip),%eax        # 254c4 <g_2308>
   1f02e:	48 98                	cltq   
   1f030:	8b 55 fc             	mov    -0x4(%rbp),%edx
   1f033:	48 8d 35 bb 31 00 00 	lea    0x31bb(%rip),%rsi        # 221f5 <g_1983+0x218d>
   1f03a:	48 89 c7             	mov    %rax,%rdi
   1f03d:	e8 b1 e6 fe ff       	callq  d6f3 <transparent_crc>
   1f042:	48 8b 05 d7 a9 00 00 	mov    0xa9d7(%rip),%rax        # 29a20 <g_2354>
   1f049:	8b 55 fc             	mov    -0x4(%rbp),%edx
   1f04c:	48 8d 35 a9 31 00 00 	lea    0x31a9(%rip),%rsi        # 221fc <g_1983+0x2194>
   1f053:	48 89 c7             	mov    %rax,%rdi
   1f056:	e8 98 e6 fe ff       	callq  d6f3 <transparent_crc>
   1f05b:	0f b7 05 66 64 00 00 	movzwl 0x6466(%rip),%eax        # 254c8 <g_2617>
   1f062:	48 0f bf c0          	movswq %ax,%rax
   1f066:	8b 55 fc             	mov    -0x4(%rbp),%edx
   1f069:	48 8d 35 93 31 00 00 	lea    0x3193(%rip),%rsi        # 22203 <g_1983+0x219b>
   1f070:	48 89 c7             	mov    %rax,%rdi
   1f073:	e8 7b e6 fe ff       	callq  d6f3 <transparent_crc>
   1f078:	48 8b 05 51 64 00 00 	mov    0x6451(%rip),%rax        # 254d0 <g_2677>
   1f07f:	8b 55 fc             	mov    -0x4(%rbp),%edx
   1f082:	48 8d 35 81 31 00 00 	lea    0x3181(%rip),%rsi        # 2220a <g_1983+0x21a2>
   1f089:	48 89 c7             	mov    %rax,%rdi
   1f08c:	e8 62 e6 fe ff       	callq  d6f3 <transparent_crc>
   1f091:	8b 05 41 64 00 00    	mov    0x6441(%rip),%eax        # 254d8 <g_2684>
   1f097:	48 98                	cltq   
   1f099:	8b 55 fc             	mov    -0x4(%rbp),%edx
   1f09c:	48 8d 35 6e 31 00 00 	lea    0x316e(%rip),%rsi        # 22211 <g_1983+0x21a9>
   1f0a3:	48 89 c7             	mov    %rax,%rdi
   1f0a6:	e8 48 e6 fe ff       	callq  d6f3 <transparent_crc>
   1f0ab:	0f b7 05 26 64 00 00 	movzwl 0x6426(%rip),%eax        # 254d8 <g_2684>
   1f0b2:	0f b7 c0             	movzwl %ax,%eax
   1f0b5:	8b 55 fc             	mov    -0x4(%rbp),%edx
   1f0b8:	48 8d 35 5c 31 00 00 	lea    0x315c(%rip),%rsi        # 2221b <g_1983+0x21b3>
   1f0bf:	48 89 c7             	mov    %rax,%rdi
   1f0c2:	e8 2c e6 fe ff       	callq  d6f3 <transparent_crc>
   1f0c7:	8b 05 0b 64 00 00    	mov    0x640b(%rip),%eax        # 254d8 <g_2684>
   1f0cd:	48 98                	cltq   
   1f0cf:	8b 55 fc             	mov    -0x4(%rbp),%edx
   1f0d2:	48 8d 35 4c 31 00 00 	lea    0x314c(%rip),%rsi        # 22225 <g_1983+0x21bd>
   1f0d9:	48 89 c7             	mov    %rax,%rdi
   1f0dc:	e8 12 e6 fe ff       	callq  d6f3 <transparent_crc>
   1f0e1:	0f b7 05 f0 63 00 00 	movzwl 0x63f0(%rip),%eax        # 254d8 <g_2684>
   1f0e8:	0f b7 c0             	movzwl %ax,%eax
   1f0eb:	8b 55 fc             	mov    -0x4(%rbp),%edx
   1f0ee:	48 8d 35 3a 31 00 00 	lea    0x313a(%rip),%rsi        # 2222f <g_1983+0x21c7>
   1f0f5:	48 89 c7             	mov    %rax,%rdi
   1f0f8:	e8 f6 e5 fe ff       	callq  d6f3 <transparent_crc>
   1f0fd:	8b 05 1d 5f 00 00    	mov    0x5f1d(%rip),%eax        # 25020 <crc32_context>
   1f103:	f7 d0                	not    %eax
   1f105:	89 c2                	mov    %eax,%edx
   1f107:	8b 45 fc             	mov    -0x4(%rbp),%eax
   1f10a:	89 c6                	mov    %eax,%esi
   1f10c:	89 d7                	mov    %edx,%edi
   1f10e:	e8 81 d0 fe ff       	callq  c194 <platform_main_end>
   1f113:	b8 00 00 00 00       	mov    $0x0,%eax
   1f118:	c9                   	leaveq 
   1f119:	c3                   	retq   
   1f11a:	66 0f 1f 44 00 00    	nopw   0x0(%rax,%rax,1)

000000000001f120 <__libc_csu_init>:
   1f120:	f3 0f 1e fa          	endbr64 
   1f124:	41 57                	push   %r15
   1f126:	4c 8d 3d 63 57 00 00 	lea    0x5763(%rip),%r15        # 24890 <__frame_dummy_init_array_entry>
   1f12d:	41 56                	push   %r14
   1f12f:	49 89 d6             	mov    %rdx,%r14
   1f132:	41 55                	push   %r13
   1f134:	49 89 f5             	mov    %rsi,%r13
   1f137:	41 54                	push   %r12
   1f139:	41 89 fc             	mov    %edi,%r12d
   1f13c:	55                   	push   %rbp
   1f13d:	48 8d 2d 54 57 00 00 	lea    0x5754(%rip),%rbp        # 24898 <__do_global_dtors_aux_fini_array_entry>
   1f144:	53                   	push   %rbx
   1f145:	4c 29 fd             	sub    %r15,%rbp
   1f148:	48 83 ec 08          	sub    $0x8,%rsp
   1f14c:	e8 af ce fe ff       	callq  c000 <_init>
   1f151:	48 c1 fd 03          	sar    $0x3,%rbp
   1f155:	74 1f                	je     1f176 <__libc_csu_init+0x56>
   1f157:	31 db                	xor    %ebx,%ebx
   1f159:	0f 1f 80 00 00 00 00 	nopl   0x0(%rax)
   1f160:	4c 89 f2             	mov    %r14,%rdx
   1f163:	4c 89 ee             	mov    %r13,%rsi
   1f166:	44 89 e7             	mov    %r12d,%edi
   1f169:	41 ff 14 df          	callq  *(%r15,%rbx,8)
   1f16d:	48 83 c3 01          	add    $0x1,%rbx
   1f171:	48 39 dd             	cmp    %rbx,%rbp
   1f174:	75 ea                	jne    1f160 <__libc_csu_init+0x40>
   1f176:	48 83 c4 08          	add    $0x8,%rsp
   1f17a:	5b                   	pop    %rbx
   1f17b:	5d                   	pop    %rbp
   1f17c:	41 5c                	pop    %r12
   1f17e:	41 5d                	pop    %r13
   1f180:	41 5e                	pop    %r14
   1f182:	41 5f                	pop    %r15
   1f184:	c3                   	retq   
   1f185:	66 66 2e 0f 1f 84 00 	data16 nopw %cs:0x0(%rax,%rax,1)
   1f18c:	00 00 00 00 

000000000001f190 <__libc_csu_fini>:
   1f190:	f3 0f 1e fa          	endbr64 
   1f194:	c3                   	retq   
