


Disassembly of section .text:

00000000000070a0 <_start>:
    70a0:	f3 0f 1e fa          	endbr64 
    70a4:	31 ed                	xor    %ebp,%ebp
    70a6:	49 89 d1             	mov    %rdx,%r9
    70a9:	5e                   	pop    %rsi
    70aa:	48 89 e2             	mov    %rsp,%rdx
    70ad:	48 83 e4 f0          	and    $0xfffffffffffffff0,%rsp
    70b1:	50                   	push   %rax
    70b2:	54                   	push   %rsp
    70b3:	4c 8d 05 f6 02 01 00 	lea    0x102f6(%rip),%r8        # 173b0 <__libc_csu_fini>
    70ba:	48 8d 0d 7f 02 01 00 	lea    0x1027f(%rip),%rcx        # 17340 <__libc_csu_init>
    70c1:	48 8d 3d b7 f5 00 00 	lea    0xf5b7(%rip),%rdi        # 1667f <main>
    70c8:	ff 15 fa 5e 01 00    	callq  *0x15efa(%rip)        # 1cfc8 <__libc_start_main@GLIBC_2.2.5>
    70ce:	f4                   	hlt    
    70cf:	90                   	nop

00000000000070d0 <deregister_tm_clones>:
    70d0:	48 8d 3d e9 85 01 00 	lea    0x185e9(%rip),%rdi        # 1f6c0 <__TMC_END__>
    70d7:	48 8d 05 e2 85 01 00 	lea    0x185e2(%rip),%rax        # 1f6c0 <__TMC_END__>
    70de:	48 39 f8             	cmp    %rdi,%rax
    70e1:	74 15                	je     70f8 <deregister_tm_clones+0x28>
    70e3:	48 8b 05 d6 5e 01 00 	mov    0x15ed6(%rip),%rax        # 1cfc0 <_ITM_deregisterTMCloneTable>
    70ea:	48 85 c0             	test   %rax,%rax
    70ed:	74 09                	je     70f8 <deregister_tm_clones+0x28>
    70ef:	ff e0                	jmpq   *%rax
    70f1:	0f 1f 80 00 00 00 00 	nopl   0x0(%rax)
    70f8:	c3                   	retq   
    70f9:	0f 1f 80 00 00 00 00 	nopl   0x0(%rax)

0000000000007100 <register_tm_clones>:
    7100:	48 8d 3d b9 85 01 00 	lea    0x185b9(%rip),%rdi        # 1f6c0 <__TMC_END__>
    7107:	48 8d 35 b2 85 01 00 	lea    0x185b2(%rip),%rsi        # 1f6c0 <__TMC_END__>
    710e:	48 29 fe             	sub    %rdi,%rsi
    7111:	48 89 f0             	mov    %rsi,%rax
    7114:	48 c1 ee 3f          	shr    $0x3f,%rsi
    7118:	48 c1 f8 03          	sar    $0x3,%rax
    711c:	48 01 c6             	add    %rax,%rsi
    711f:	48 d1 fe             	sar    %rsi
    7122:	74 14                	je     7138 <register_tm_clones+0x38>
    7124:	48 8b 05 ad 5e 01 00 	mov    0x15ead(%rip),%rax        # 1cfd8 <_ITM_registerTMCloneTable>
    712b:	48 85 c0             	test   %rax,%rax
    712e:	74 08                	je     7138 <register_tm_clones+0x38>
    7130:	ff e0                	jmpq   *%rax
    7132:	66 0f 1f 44 00 00    	nopw   0x0(%rax,%rax,1)
    7138:	c3                   	retq   
    7139:	0f 1f 80 00 00 00 00 	nopl   0x0(%rax)

0000000000007140 <__do_global_dtors_aux>:
    7140:	f3 0f 1e fa          	endbr64 
    7144:	80 3d 75 85 01 00 00 	cmpb   $0x0,0x18575(%rip)        # 1f6c0 <__TMC_END__>
    714b:	75 2b                	jne    7178 <__do_global_dtors_aux+0x38>
    714d:	55                   	push   %rbp
    714e:	48 83 3d 8a 5e 01 00 	cmpq   $0x0,0x15e8a(%rip)        # 1cfe0 <__cxa_finalize@GLIBC_2.2.5>
    7155:	00 
    7156:	48 89 e5             	mov    %rsp,%rbp
    7159:	74 0c                	je     7167 <__do_global_dtors_aux+0x27>
    715b:	48 8b 3d a6 5e 01 00 	mov    0x15ea6(%rip),%rdi        # 1d008 <__dso_handle>
    7162:	e8 f9 fe ff ff       	callq  7060 <__cxa_finalize@plt>
    7167:	e8 64 ff ff ff       	callq  70d0 <deregister_tm_clones>
    716c:	c6 05 4d 85 01 00 01 	movb   $0x1,0x1854d(%rip)        # 1f6c0 <__TMC_END__>
    7173:	5d                   	pop    %rbp
    7174:	c3                   	retq   
    7175:	0f 1f 00             	nopl   (%rax)
    7178:	c3                   	retq   
    7179:	0f 1f 80 00 00 00 00 	nopl   0x0(%rax)

0000000000007180 <frame_dummy>:
    7180:	f3 0f 1e fa          	endbr64 
    7184:	e9 77 ff ff ff       	jmpq   7100 <register_tm_clones>

0000000000007189 <platform_main_begin>:
    7189:	f3 0f 1e fa          	endbr64 
    718d:	55                   	push   %rbp
    718e:	48 89 e5             	mov    %rsp,%rbp
    7191:	90                   	nop
    7192:	5d                   	pop    %rbp
    7193:	c3                   	retq   

0000000000007194 <platform_main_end>:
    7194:	f3 0f 1e fa          	endbr64 
    7198:	55                   	push   %rbp
    7199:	48 89 e5             	mov    %rsp,%rbp
    719c:	48 83 ec 10          	sub    $0x10,%rsp
    71a0:	89 7d fc             	mov    %edi,-0x4(%rbp)
    71a3:	89 75 f8             	mov    %esi,-0x8(%rbp)
    71a6:	8b 45 fc             	mov    -0x4(%rbp),%eax
    71a9:	89 c6                	mov    %eax,%esi
    71ab:	48 8d 3d 6e 0e 01 00 	lea    0x10e6e(%rip),%rdi        # 18020 <_IO_stdin_used+0x20>
    71b2:	b8 00 00 00 00       	mov    $0x0,%eax
    71b7:	e8 c4 fe ff ff       	callq  7080 <printf@plt>
    71bc:	90                   	nop
    71bd:	c9                   	leaveq 
    71be:	c3                   	retq   

00000000000071bf <safe_unary_minus_func_int8_t_s>:
    71bf:	f3 0f 1e fa          	endbr64 
    71c3:	55                   	push   %rbp
    71c4:	48 89 e5             	mov    %rsp,%rbp
    71c7:	89 f8                	mov    %edi,%eax
    71c9:	88 45 fc             	mov    %al,-0x4(%rbp)
    71cc:	0f b6 45 fc          	movzbl -0x4(%rbp),%eax
    71d0:	f7 d8                	neg    %eax
    71d2:	5d                   	pop    %rbp
    71d3:	c3                   	retq   

00000000000071d4 <safe_add_func_int8_t_s_s>:
    71d4:	f3 0f 1e fa          	endbr64 
    71d8:	55                   	push   %rbp
    71d9:	48 89 e5             	mov    %rsp,%rbp
    71dc:	89 fa                	mov    %edi,%edx
    71de:	89 f0                	mov    %esi,%eax
    71e0:	88 55 fc             	mov    %dl,-0x4(%rbp)
    71e3:	88 45 f8             	mov    %al,-0x8(%rbp)
    71e6:	0f b6 55 fc          	movzbl -0x4(%rbp),%edx
    71ea:	0f b6 45 f8          	movzbl -0x8(%rbp),%eax
    71ee:	01 d0                	add    %edx,%eax
    71f0:	5d                   	pop    %rbp
    71f1:	c3                   	retq   

00000000000071f2 <safe_sub_func_int8_t_s_s>:
    71f2:	f3 0f 1e fa          	endbr64 
    71f6:	55                   	push   %rbp
    71f7:	48 89 e5             	mov    %rsp,%rbp
    71fa:	89 fa                	mov    %edi,%edx
    71fc:	89 f0                	mov    %esi,%eax
    71fe:	88 55 fc             	mov    %dl,-0x4(%rbp)
    7201:	88 45 f8             	mov    %al,-0x8(%rbp)
    7204:	0f b6 55 fc          	movzbl -0x4(%rbp),%edx
    7208:	0f b6 45 f8          	movzbl -0x8(%rbp),%eax
    720c:	29 c2                	sub    %eax,%edx
    720e:	89 d0                	mov    %edx,%eax
    7210:	5d                   	pop    %rbp
    7211:	c3                   	retq   

0000000000007212 <safe_mul_func_int8_t_s_s>:
    7212:	f3 0f 1e fa          	endbr64 
    7216:	55                   	push   %rbp
    7217:	48 89 e5             	mov    %rsp,%rbp
    721a:	89 fa                	mov    %edi,%edx
    721c:	89 f0                	mov    %esi,%eax
    721e:	88 55 fc             	mov    %dl,-0x4(%rbp)
    7221:	88 45 f8             	mov    %al,-0x8(%rbp)
    7224:	0f b6 45 fc          	movzbl -0x4(%rbp),%eax
    7228:	0f b6 55 f8          	movzbl -0x8(%rbp),%edx
    722c:	0f af c2             	imul   %edx,%eax
    722f:	5d                   	pop    %rbp
    7230:	c3                   	retq   

0000000000007231 <safe_mod_func_int8_t_s_s>:
    7231:	f3 0f 1e fa          	endbr64 
    7235:	55                   	push   %rbp
    7236:	48 89 e5             	mov    %rsp,%rbp
    7239:	89 fa                	mov    %edi,%edx
    723b:	89 f0                	mov    %esi,%eax
    723d:	88 55 fc             	mov    %dl,-0x4(%rbp)
    7240:	88 45 f8             	mov    %al,-0x8(%rbp)
    7243:	80 7d f8 00          	cmpb   $0x0,-0x8(%rbp)
    7247:	74 1b                	je     7264 <safe_mod_func_int8_t_s_s+0x33>
    7249:	80 7d fc 80          	cmpb   $0x80,-0x4(%rbp)
    724d:	75 06                	jne    7255 <safe_mod_func_int8_t_s_s+0x24>
    724f:	80 7d f8 ff          	cmpb   $0xff,-0x8(%rbp)
    7253:	74 0f                	je     7264 <safe_mod_func_int8_t_s_s+0x33>
    7255:	0f be 45 fc          	movsbl -0x4(%rbp),%eax
    7259:	0f be 4d f8          	movsbl -0x8(%rbp),%ecx
    725d:	99                   	cltd   
    725e:	f7 f9                	idiv   %ecx
    7260:	89 d0                	mov    %edx,%eax
    7262:	eb 04                	jmp    7268 <safe_mod_func_int8_t_s_s+0x37>
    7264:	0f b6 45 fc          	movzbl -0x4(%rbp),%eax
    7268:	5d                   	pop    %rbp
    7269:	c3                   	retq   

000000000000726a <safe_div_func_int8_t_s_s>:
    726a:	f3 0f 1e fa          	endbr64 
    726e:	55                   	push   %rbp
    726f:	48 89 e5             	mov    %rsp,%rbp
    7272:	89 fa                	mov    %edi,%edx
    7274:	89 f0                	mov    %esi,%eax
    7276:	88 55 fc             	mov    %dl,-0x4(%rbp)
    7279:	88 45 f8             	mov    %al,-0x8(%rbp)
    727c:	80 7d f8 00          	cmpb   $0x0,-0x8(%rbp)
    7280:	74 19                	je     729b <safe_div_func_int8_t_s_s+0x31>
    7282:	80 7d fc 80          	cmpb   $0x80,-0x4(%rbp)
    7286:	75 06                	jne    728e <safe_div_func_int8_t_s_s+0x24>
    7288:	80 7d f8 ff          	cmpb   $0xff,-0x8(%rbp)
    728c:	74 0d                	je     729b <safe_div_func_int8_t_s_s+0x31>
    728e:	0f be 45 fc          	movsbl -0x4(%rbp),%eax
    7292:	0f be 4d f8          	movsbl -0x8(%rbp),%ecx
    7296:	99                   	cltd   
    7297:	f7 f9                	idiv   %ecx
    7299:	eb 04                	jmp    729f <safe_div_func_int8_t_s_s+0x35>
    729b:	0f b6 45 fc          	movzbl -0x4(%rbp),%eax
    729f:	5d                   	pop    %rbp
    72a0:	c3                   	retq   

00000000000072a1 <safe_lshift_func_int8_t_s_s>:
    72a1:	f3 0f 1e fa          	endbr64 
    72a5:	55                   	push   %rbp
    72a6:	48 89 e5             	mov    %rsp,%rbp
    72a9:	89 f8                	mov    %edi,%eax
    72ab:	89 75 f8             	mov    %esi,-0x8(%rbp)
    72ae:	88 45 fc             	mov    %al,-0x4(%rbp)
    72b1:	80 7d fc 00          	cmpb   $0x0,-0x4(%rbp)
    72b5:	78 31                	js     72e8 <safe_lshift_func_int8_t_s_s+0x47>
    72b7:	83 7d f8 00          	cmpl   $0x0,-0x8(%rbp)
    72bb:	78 2b                	js     72e8 <safe_lshift_func_int8_t_s_s+0x47>
    72bd:	83 7d f8 1f          	cmpl   $0x1f,-0x8(%rbp)
    72c1:	7f 25                	jg     72e8 <safe_lshift_func_int8_t_s_s+0x47>
    72c3:	0f be 55 fc          	movsbl -0x4(%rbp),%edx
    72c7:	8b 45 f8             	mov    -0x8(%rbp),%eax
    72ca:	be 7f 00 00 00       	mov    $0x7f,%esi
    72cf:	89 c1                	mov    %eax,%ecx
    72d1:	d3 fe                	sar    %cl,%esi
    72d3:	89 f0                	mov    %esi,%eax
    72d5:	39 c2                	cmp    %eax,%edx
    72d7:	7f 0f                	jg     72e8 <safe_lshift_func_int8_t_s_s+0x47>
    72d9:	0f be 55 fc          	movsbl -0x4(%rbp),%edx
    72dd:	8b 45 f8             	mov    -0x8(%rbp),%eax
    72e0:	89 c1                	mov    %eax,%ecx
    72e2:	d3 e2                	shl    %cl,%edx
    72e4:	89 d0                	mov    %edx,%eax
    72e6:	eb 04                	jmp    72ec <safe_lshift_func_int8_t_s_s+0x4b>
    72e8:	0f b6 45 fc          	movzbl -0x4(%rbp),%eax
    72ec:	5d                   	pop    %rbp
    72ed:	c3                   	retq   

00000000000072ee <safe_lshift_func_int8_t_s_u>:
    72ee:	f3 0f 1e fa          	endbr64 
    72f2:	55                   	push   %rbp
    72f3:	48 89 e5             	mov    %rsp,%rbp
    72f6:	89 f8                	mov    %edi,%eax
    72f8:	89 75 f8             	mov    %esi,-0x8(%rbp)
    72fb:	88 45 fc             	mov    %al,-0x4(%rbp)
    72fe:	80 7d fc 00          	cmpb   $0x0,-0x4(%rbp)
    7302:	78 2b                	js     732f <safe_lshift_func_int8_t_s_u+0x41>
    7304:	83 7d f8 1f          	cmpl   $0x1f,-0x8(%rbp)
    7308:	77 25                	ja     732f <safe_lshift_func_int8_t_s_u+0x41>
    730a:	0f be 55 fc          	movsbl -0x4(%rbp),%edx
    730e:	8b 45 f8             	mov    -0x8(%rbp),%eax
    7311:	be 7f 00 00 00       	mov    $0x7f,%esi
    7316:	89 c1                	mov    %eax,%ecx
    7318:	d3 fe                	sar    %cl,%esi
    731a:	89 f0                	mov    %esi,%eax
    731c:	39 c2                	cmp    %eax,%edx
    731e:	7f 0f                	jg     732f <safe_lshift_func_int8_t_s_u+0x41>
    7320:	0f be 55 fc          	movsbl -0x4(%rbp),%edx
    7324:	8b 45 f8             	mov    -0x8(%rbp),%eax
    7327:	89 c1                	mov    %eax,%ecx
    7329:	d3 e2                	shl    %cl,%edx
    732b:	89 d0                	mov    %edx,%eax
    732d:	eb 04                	jmp    7333 <safe_lshift_func_int8_t_s_u+0x45>
    732f:	0f b6 45 fc          	movzbl -0x4(%rbp),%eax
    7333:	5d                   	pop    %rbp
    7334:	c3                   	retq   

0000000000007335 <safe_rshift_func_int8_t_s_s>:
    7335:	f3 0f 1e fa          	endbr64 
    7339:	55                   	push   %rbp
    733a:	48 89 e5             	mov    %rsp,%rbp
    733d:	89 f8                	mov    %edi,%eax
    733f:	89 75 f8             	mov    %esi,-0x8(%rbp)
    7342:	88 45 fc             	mov    %al,-0x4(%rbp)
    7345:	80 7d fc 00          	cmpb   $0x0,-0x4(%rbp)
    7349:	78 1b                	js     7366 <safe_rshift_func_int8_t_s_s+0x31>
    734b:	83 7d f8 00          	cmpl   $0x0,-0x8(%rbp)
    734f:	78 15                	js     7366 <safe_rshift_func_int8_t_s_s+0x31>
    7351:	83 7d f8 1f          	cmpl   $0x1f,-0x8(%rbp)
    7355:	7f 0f                	jg     7366 <safe_rshift_func_int8_t_s_s+0x31>
    7357:	0f be 55 fc          	movsbl -0x4(%rbp),%edx
    735b:	8b 45 f8             	mov    -0x8(%rbp),%eax
    735e:	89 c1                	mov    %eax,%ecx
    7360:	d3 fa                	sar    %cl,%edx
    7362:	89 d0                	mov    %edx,%eax
    7364:	eb 04                	jmp    736a <safe_rshift_func_int8_t_s_s+0x35>
    7366:	0f b6 45 fc          	movzbl -0x4(%rbp),%eax
    736a:	5d                   	pop    %rbp
    736b:	c3                   	retq   

000000000000736c <safe_rshift_func_int8_t_s_u>:
    736c:	f3 0f 1e fa          	endbr64 
    7370:	55                   	push   %rbp
    7371:	48 89 e5             	mov    %rsp,%rbp
    7374:	89 f8                	mov    %edi,%eax
    7376:	89 75 f8             	mov    %esi,-0x8(%rbp)
    7379:	88 45 fc             	mov    %al,-0x4(%rbp)
    737c:	80 7d fc 00          	cmpb   $0x0,-0x4(%rbp)
    7380:	78 15                	js     7397 <safe_rshift_func_int8_t_s_u+0x2b>
    7382:	83 7d f8 1f          	cmpl   $0x1f,-0x8(%rbp)
    7386:	77 0f                	ja     7397 <safe_rshift_func_int8_t_s_u+0x2b>
    7388:	0f be 55 fc          	movsbl -0x4(%rbp),%edx
    738c:	8b 45 f8             	mov    -0x8(%rbp),%eax
    738f:	89 c1                	mov    %eax,%ecx
    7391:	d3 fa                	sar    %cl,%edx
    7393:	89 d0                	mov    %edx,%eax
    7395:	eb 04                	jmp    739b <safe_rshift_func_int8_t_s_u+0x2f>
    7397:	0f b6 45 fc          	movzbl -0x4(%rbp),%eax
    739b:	5d                   	pop    %rbp
    739c:	c3                   	retq   

000000000000739d <safe_unary_minus_func_int16_t_s>:
    739d:	f3 0f 1e fa          	endbr64 
    73a1:	55                   	push   %rbp
    73a2:	48 89 e5             	mov    %rsp,%rbp
    73a5:	89 f8                	mov    %edi,%eax
    73a7:	66 89 45 fc          	mov    %ax,-0x4(%rbp)
    73ab:	0f b7 45 fc          	movzwl -0x4(%rbp),%eax
    73af:	f7 d8                	neg    %eax
    73b1:	5d                   	pop    %rbp
    73b2:	c3                   	retq   

00000000000073b3 <safe_add_func_int16_t_s_s>:
    73b3:	f3 0f 1e fa          	endbr64 
    73b7:	55                   	push   %rbp
    73b8:	48 89 e5             	mov    %rsp,%rbp
    73bb:	89 fa                	mov    %edi,%edx
    73bd:	89 f0                	mov    %esi,%eax
    73bf:	66 89 55 fc          	mov    %dx,-0x4(%rbp)
    73c3:	66 89 45 f8          	mov    %ax,-0x8(%rbp)
    73c7:	0f b7 55 fc          	movzwl -0x4(%rbp),%edx
    73cb:	0f b7 45 f8          	movzwl -0x8(%rbp),%eax
    73cf:	01 d0                	add    %edx,%eax
    73d1:	5d                   	pop    %rbp
    73d2:	c3                   	retq   

00000000000073d3 <safe_sub_func_int16_t_s_s>:
    73d3:	f3 0f 1e fa          	endbr64 
    73d7:	55                   	push   %rbp
    73d8:	48 89 e5             	mov    %rsp,%rbp
    73db:	89 fa                	mov    %edi,%edx
    73dd:	89 f0                	mov    %esi,%eax
    73df:	66 89 55 fc          	mov    %dx,-0x4(%rbp)
    73e3:	66 89 45 f8          	mov    %ax,-0x8(%rbp)
    73e7:	0f b7 55 fc          	movzwl -0x4(%rbp),%edx
    73eb:	0f b7 45 f8          	movzwl -0x8(%rbp),%eax
    73ef:	29 c2                	sub    %eax,%edx
    73f1:	89 d0                	mov    %edx,%eax
    73f3:	5d                   	pop    %rbp
    73f4:	c3                   	retq   

00000000000073f5 <safe_mul_func_int16_t_s_s>:
    73f5:	f3 0f 1e fa          	endbr64 
    73f9:	55                   	push   %rbp
    73fa:	48 89 e5             	mov    %rsp,%rbp
    73fd:	89 fa                	mov    %edi,%edx
    73ff:	89 f0                	mov    %esi,%eax
    7401:	66 89 55 fc          	mov    %dx,-0x4(%rbp)
    7405:	66 89 45 f8          	mov    %ax,-0x8(%rbp)
    7409:	0f b7 55 fc          	movzwl -0x4(%rbp),%edx
    740d:	0f b7 45 f8          	movzwl -0x8(%rbp),%eax
    7411:	0f af c2             	imul   %edx,%eax
    7414:	5d                   	pop    %rbp
    7415:	c3                   	retq   

0000000000007416 <safe_mod_func_int16_t_s_s>:
    7416:	f3 0f 1e fa          	endbr64 
    741a:	55                   	push   %rbp
    741b:	48 89 e5             	mov    %rsp,%rbp
    741e:	89 fa                	mov    %edi,%edx
    7420:	89 f0                	mov    %esi,%eax
    7422:	66 89 55 fc          	mov    %dx,-0x4(%rbp)
    7426:	66 89 45 f8          	mov    %ax,-0x8(%rbp)
    742a:	66 83 7d f8 00       	cmpw   $0x0,-0x8(%rbp)
    742f:	74 1e                	je     744f <safe_mod_func_int16_t_s_s+0x39>
    7431:	66 81 7d fc 00 80    	cmpw   $0x8000,-0x4(%rbp)
    7437:	75 07                	jne    7440 <safe_mod_func_int16_t_s_s+0x2a>
    7439:	66 83 7d f8 ff       	cmpw   $0xffff,-0x8(%rbp)
    743e:	74 0f                	je     744f <safe_mod_func_int16_t_s_s+0x39>
    7440:	0f bf 45 fc          	movswl -0x4(%rbp),%eax
    7444:	0f bf 4d f8          	movswl -0x8(%rbp),%ecx
    7448:	99                   	cltd   
    7449:	f7 f9                	idiv   %ecx
    744b:	89 d0                	mov    %edx,%eax
    744d:	eb 04                	jmp    7453 <safe_mod_func_int16_t_s_s+0x3d>
    744f:	0f b7 45 fc          	movzwl -0x4(%rbp),%eax
    7453:	5d                   	pop    %rbp
    7454:	c3                   	retq   

0000000000007455 <safe_div_func_int16_t_s_s>:
    7455:	f3 0f 1e fa          	endbr64 
    7459:	55                   	push   %rbp
    745a:	48 89 e5             	mov    %rsp,%rbp
    745d:	89 fa                	mov    %edi,%edx
    745f:	89 f0                	mov    %esi,%eax
    7461:	66 89 55 fc          	mov    %dx,-0x4(%rbp)
    7465:	66 89 45 f8          	mov    %ax,-0x8(%rbp)
    7469:	66 83 7d f8 00       	cmpw   $0x0,-0x8(%rbp)
    746e:	74 1c                	je     748c <safe_div_func_int16_t_s_s+0x37>
    7470:	66 81 7d fc 00 80    	cmpw   $0x8000,-0x4(%rbp)
    7476:	75 07                	jne    747f <safe_div_func_int16_t_s_s+0x2a>
    7478:	66 83 7d f8 ff       	cmpw   $0xffff,-0x8(%rbp)
    747d:	74 0d                	je     748c <safe_div_func_int16_t_s_s+0x37>
    747f:	0f bf 45 fc          	movswl -0x4(%rbp),%eax
    7483:	0f bf 4d f8          	movswl -0x8(%rbp),%ecx
    7487:	99                   	cltd   
    7488:	f7 f9                	idiv   %ecx
    748a:	eb 04                	jmp    7490 <safe_div_func_int16_t_s_s+0x3b>
    748c:	0f b7 45 fc          	movzwl -0x4(%rbp),%eax
    7490:	5d                   	pop    %rbp
    7491:	c3                   	retq   

0000000000007492 <safe_lshift_func_int16_t_s_s>:
    7492:	f3 0f 1e fa          	endbr64 
    7496:	55                   	push   %rbp
    7497:	48 89 e5             	mov    %rsp,%rbp
    749a:	89 f8                	mov    %edi,%eax
    749c:	89 75 f8             	mov    %esi,-0x8(%rbp)
    749f:	66 89 45 fc          	mov    %ax,-0x4(%rbp)
    74a3:	66 83 7d fc 00       	cmpw   $0x0,-0x4(%rbp)
    74a8:	78 31                	js     74db <safe_lshift_func_int16_t_s_s+0x49>
    74aa:	83 7d f8 00          	cmpl   $0x0,-0x8(%rbp)
    74ae:	78 2b                	js     74db <safe_lshift_func_int16_t_s_s+0x49>
    74b0:	83 7d f8 1f          	cmpl   $0x1f,-0x8(%rbp)
    74b4:	7f 25                	jg     74db <safe_lshift_func_int16_t_s_s+0x49>
    74b6:	0f bf 55 fc          	movswl -0x4(%rbp),%edx
    74ba:	8b 45 f8             	mov    -0x8(%rbp),%eax
    74bd:	be ff 7f 00 00       	mov    $0x7fff,%esi
    74c2:	89 c1                	mov    %eax,%ecx
    74c4:	d3 fe                	sar    %cl,%esi
    74c6:	89 f0                	mov    %esi,%eax
    74c8:	39 c2                	cmp    %eax,%edx
    74ca:	7f 0f                	jg     74db <safe_lshift_func_int16_t_s_s+0x49>
    74cc:	0f bf 55 fc          	movswl -0x4(%rbp),%edx
    74d0:	8b 45 f8             	mov    -0x8(%rbp),%eax
    74d3:	89 c1                	mov    %eax,%ecx
    74d5:	d3 e2                	shl    %cl,%edx
    74d7:	89 d0                	mov    %edx,%eax
    74d9:	eb 04                	jmp    74df <safe_lshift_func_int16_t_s_s+0x4d>
    74db:	0f b7 45 fc          	movzwl -0x4(%rbp),%eax
    74df:	5d                   	pop    %rbp
    74e0:	c3                   	retq   

00000000000074e1 <safe_lshift_func_int16_t_s_u>:
    74e1:	f3 0f 1e fa          	endbr64 
    74e5:	55                   	push   %rbp
    74e6:	48 89 e5             	mov    %rsp,%rbp
    74e9:	89 f8                	mov    %edi,%eax
    74eb:	89 75 f8             	mov    %esi,-0x8(%rbp)
    74ee:	66 89 45 fc          	mov    %ax,-0x4(%rbp)
    74f2:	66 83 7d fc 00       	cmpw   $0x0,-0x4(%rbp)
    74f7:	78 2b                	js     7524 <safe_lshift_func_int16_t_s_u+0x43>
    74f9:	83 7d f8 1f          	cmpl   $0x1f,-0x8(%rbp)
    74fd:	77 25                	ja     7524 <safe_lshift_func_int16_t_s_u+0x43>
    74ff:	0f bf 55 fc          	movswl -0x4(%rbp),%edx
    7503:	8b 45 f8             	mov    -0x8(%rbp),%eax
    7506:	be ff 7f 00 00       	mov    $0x7fff,%esi
    750b:	89 c1                	mov    %eax,%ecx
    750d:	d3 fe                	sar    %cl,%esi
    750f:	89 f0                	mov    %esi,%eax
    7511:	39 c2                	cmp    %eax,%edx
    7513:	7f 0f                	jg     7524 <safe_lshift_func_int16_t_s_u+0x43>
    7515:	0f bf 55 fc          	movswl -0x4(%rbp),%edx
    7519:	8b 45 f8             	mov    -0x8(%rbp),%eax
    751c:	89 c1                	mov    %eax,%ecx
    751e:	d3 e2                	shl    %cl,%edx
    7520:	89 d0                	mov    %edx,%eax
    7522:	eb 04                	jmp    7528 <safe_lshift_func_int16_t_s_u+0x47>
    7524:	0f b7 45 fc          	movzwl -0x4(%rbp),%eax
    7528:	5d                   	pop    %rbp
    7529:	c3                   	retq   

000000000000752a <safe_rshift_func_int16_t_s_s>:
    752a:	f3 0f 1e fa          	endbr64 
    752e:	55                   	push   %rbp
    752f:	48 89 e5             	mov    %rsp,%rbp
    7532:	89 f8                	mov    %edi,%eax
    7534:	89 75 f8             	mov    %esi,-0x8(%rbp)
    7537:	66 89 45 fc          	mov    %ax,-0x4(%rbp)
    753b:	66 83 7d fc 00       	cmpw   $0x0,-0x4(%rbp)
    7540:	78 1b                	js     755d <safe_rshift_func_int16_t_s_s+0x33>
    7542:	83 7d f8 00          	cmpl   $0x0,-0x8(%rbp)
    7546:	78 15                	js     755d <safe_rshift_func_int16_t_s_s+0x33>
    7548:	83 7d f8 1f          	cmpl   $0x1f,-0x8(%rbp)
    754c:	7f 0f                	jg     755d <safe_rshift_func_int16_t_s_s+0x33>
    754e:	0f bf 55 fc          	movswl -0x4(%rbp),%edx
    7552:	8b 45 f8             	mov    -0x8(%rbp),%eax
    7555:	89 c1                	mov    %eax,%ecx
    7557:	d3 fa                	sar    %cl,%edx
    7559:	89 d0                	mov    %edx,%eax
    755b:	eb 04                	jmp    7561 <safe_rshift_func_int16_t_s_s+0x37>
    755d:	0f b7 45 fc          	movzwl -0x4(%rbp),%eax
    7561:	5d                   	pop    %rbp
    7562:	c3                   	retq   

0000000000007563 <safe_rshift_func_int16_t_s_u>:
    7563:	f3 0f 1e fa          	endbr64 
    7567:	55                   	push   %rbp
    7568:	48 89 e5             	mov    %rsp,%rbp
    756b:	89 f8                	mov    %edi,%eax
    756d:	89 75 f8             	mov    %esi,-0x8(%rbp)
    7570:	66 89 45 fc          	mov    %ax,-0x4(%rbp)
    7574:	66 83 7d fc 00       	cmpw   $0x0,-0x4(%rbp)
    7579:	78 15                	js     7590 <safe_rshift_func_int16_t_s_u+0x2d>
    757b:	83 7d f8 1f          	cmpl   $0x1f,-0x8(%rbp)
    757f:	77 0f                	ja     7590 <safe_rshift_func_int16_t_s_u+0x2d>
    7581:	0f bf 55 fc          	movswl -0x4(%rbp),%edx
    7585:	8b 45 f8             	mov    -0x8(%rbp),%eax
    7588:	89 c1                	mov    %eax,%ecx
    758a:	d3 fa                	sar    %cl,%edx
    758c:	89 d0                	mov    %edx,%eax
    758e:	eb 04                	jmp    7594 <safe_rshift_func_int16_t_s_u+0x31>
    7590:	0f b7 45 fc          	movzwl -0x4(%rbp),%eax
    7594:	5d                   	pop    %rbp
    7595:	c3                   	retq   

0000000000007596 <safe_unary_minus_func_int32_t_s>:
    7596:	f3 0f 1e fa          	endbr64 
    759a:	55                   	push   %rbp
    759b:	48 89 e5             	mov    %rsp,%rbp
    759e:	89 7d fc             	mov    %edi,-0x4(%rbp)
    75a1:	81 7d fc 00 00 00 80 	cmpl   $0x80000000,-0x4(%rbp)
    75a8:	74 07                	je     75b1 <safe_unary_minus_func_int32_t_s+0x1b>
    75aa:	8b 45 fc             	mov    -0x4(%rbp),%eax
    75ad:	f7 d8                	neg    %eax
    75af:	eb 03                	jmp    75b4 <safe_unary_minus_func_int32_t_s+0x1e>
    75b1:	8b 45 fc             	mov    -0x4(%rbp),%eax
    75b4:	5d                   	pop    %rbp
    75b5:	c3                   	retq   

00000000000075b6 <safe_add_func_int32_t_s_s>:
    75b6:	f3 0f 1e fa          	endbr64 
    75ba:	55                   	push   %rbp
    75bb:	48 89 e5             	mov    %rsp,%rbp
    75be:	89 7d fc             	mov    %edi,-0x4(%rbp)
    75c1:	89 75 f8             	mov    %esi,-0x8(%rbp)
    75c4:	83 7d fc 00          	cmpl   $0x0,-0x4(%rbp)
    75c8:	7e 13                	jle    75dd <safe_add_func_int32_t_s_s+0x27>
    75ca:	83 7d f8 00          	cmpl   $0x0,-0x8(%rbp)
    75ce:	7e 0d                	jle    75dd <safe_add_func_int32_t_s_s+0x27>
    75d0:	b8 ff ff ff 7f       	mov    $0x7fffffff,%eax
    75d5:	2b 45 f8             	sub    -0x8(%rbp),%eax
    75d8:	39 45 fc             	cmp    %eax,-0x4(%rbp)
    75db:	7f 23                	jg     7600 <safe_add_func_int32_t_s_s+0x4a>
    75dd:	83 7d fc 00          	cmpl   $0x0,-0x4(%rbp)
    75e1:	79 13                	jns    75f6 <safe_add_func_int32_t_s_s+0x40>
    75e3:	83 7d f8 00          	cmpl   $0x0,-0x8(%rbp)
    75e7:	79 0d                	jns    75f6 <safe_add_func_int32_t_s_s+0x40>
    75e9:	b8 00 00 00 80       	mov    $0x80000000,%eax
    75ee:	2b 45 f8             	sub    -0x8(%rbp),%eax
    75f1:	39 45 fc             	cmp    %eax,-0x4(%rbp)
    75f4:	7c 0a                	jl     7600 <safe_add_func_int32_t_s_s+0x4a>
    75f6:	8b 55 fc             	mov    -0x4(%rbp),%edx
    75f9:	8b 45 f8             	mov    -0x8(%rbp),%eax
    75fc:	01 d0                	add    %edx,%eax
    75fe:	eb 03                	jmp    7603 <safe_add_func_int32_t_s_s+0x4d>
    7600:	8b 45 fc             	mov    -0x4(%rbp),%eax
    7603:	5d                   	pop    %rbp
    7604:	c3                   	retq   

0000000000007605 <safe_sub_func_int32_t_s_s>:
    7605:	f3 0f 1e fa          	endbr64 
    7609:	55                   	push   %rbp
    760a:	48 89 e5             	mov    %rsp,%rbp
    760d:	89 7d fc             	mov    %edi,-0x4(%rbp)
    7610:	89 75 f8             	mov    %esi,-0x8(%rbp)
    7613:	8b 45 fc             	mov    -0x4(%rbp),%eax
    7616:	33 45 f8             	xor    -0x8(%rbp),%eax
    7619:	89 c2                	mov    %eax,%edx
    761b:	8b 45 fc             	mov    -0x4(%rbp),%eax
    761e:	33 45 f8             	xor    -0x8(%rbp),%eax
    7621:	25 00 00 00 80       	and    $0x80000000,%eax
    7626:	33 45 fc             	xor    -0x4(%rbp),%eax
    7629:	2b 45 f8             	sub    -0x8(%rbp),%eax
    762c:	33 45 f8             	xor    -0x8(%rbp),%eax
    762f:	21 d0                	and    %edx,%eax
    7631:	85 c0                	test   %eax,%eax
    7633:	78 08                	js     763d <safe_sub_func_int32_t_s_s+0x38>
    7635:	8b 45 fc             	mov    -0x4(%rbp),%eax
    7638:	2b 45 f8             	sub    -0x8(%rbp),%eax
    763b:	eb 03                	jmp    7640 <safe_sub_func_int32_t_s_s+0x3b>
    763d:	8b 45 fc             	mov    -0x4(%rbp),%eax
    7640:	5d                   	pop    %rbp
    7641:	c3                   	retq   

0000000000007642 <safe_mul_func_int32_t_s_s>:
    7642:	f3 0f 1e fa          	endbr64 
    7646:	55                   	push   %rbp
    7647:	48 89 e5             	mov    %rsp,%rbp
    764a:	89 7d fc             	mov    %edi,-0x4(%rbp)
    764d:	89 75 f8             	mov    %esi,-0x8(%rbp)
    7650:	83 7d fc 00          	cmpl   $0x0,-0x4(%rbp)
    7654:	7e 14                	jle    766a <safe_mul_func_int32_t_s_s+0x28>
    7656:	83 7d f8 00          	cmpl   $0x0,-0x8(%rbp)
    765a:	7e 0e                	jle    766a <safe_mul_func_int32_t_s_s+0x28>
    765c:	b8 ff ff ff 7f       	mov    $0x7fffffff,%eax
    7661:	99                   	cltd   
    7662:	f7 7d f8             	idivl  -0x8(%rbp)
    7665:	39 45 fc             	cmp    %eax,-0x4(%rbp)
    7668:	7f 5d                	jg     76c7 <safe_mul_func_int32_t_s_s+0x85>
    766a:	83 7d fc 00          	cmpl   $0x0,-0x4(%rbp)
    766e:	7e 14                	jle    7684 <safe_mul_func_int32_t_s_s+0x42>
    7670:	83 7d f8 00          	cmpl   $0x0,-0x8(%rbp)
    7674:	7f 0e                	jg     7684 <safe_mul_func_int32_t_s_s+0x42>
    7676:	b8 00 00 00 80       	mov    $0x80000000,%eax
    767b:	99                   	cltd   
    767c:	f7 7d fc             	idivl  -0x4(%rbp)
    767f:	39 45 f8             	cmp    %eax,-0x8(%rbp)
    7682:	7c 43                	jl     76c7 <safe_mul_func_int32_t_s_s+0x85>
    7684:	83 7d fc 00          	cmpl   $0x0,-0x4(%rbp)
    7688:	7f 14                	jg     769e <safe_mul_func_int32_t_s_s+0x5c>
    768a:	83 7d f8 00          	cmpl   $0x0,-0x8(%rbp)
    768e:	7e 0e                	jle    769e <safe_mul_func_int32_t_s_s+0x5c>
    7690:	b8 00 00 00 80       	mov    $0x80000000,%eax
    7695:	99                   	cltd   
    7696:	f7 7d f8             	idivl  -0x8(%rbp)
    7699:	39 45 fc             	cmp    %eax,-0x4(%rbp)
    769c:	7c 29                	jl     76c7 <safe_mul_func_int32_t_s_s+0x85>
    769e:	83 7d fc 00          	cmpl   $0x0,-0x4(%rbp)
    76a2:	7f 1a                	jg     76be <safe_mul_func_int32_t_s_s+0x7c>
    76a4:	83 7d f8 00          	cmpl   $0x0,-0x8(%rbp)
    76a8:	7f 14                	jg     76be <safe_mul_func_int32_t_s_s+0x7c>
    76aa:	83 7d fc 00          	cmpl   $0x0,-0x4(%rbp)
    76ae:	74 0e                	je     76be <safe_mul_func_int32_t_s_s+0x7c>
    76b0:	b8 ff ff ff 7f       	mov    $0x7fffffff,%eax
    76b5:	99                   	cltd   
    76b6:	f7 7d fc             	idivl  -0x4(%rbp)
    76b9:	39 45 f8             	cmp    %eax,-0x8(%rbp)
    76bc:	7c 09                	jl     76c7 <safe_mul_func_int32_t_s_s+0x85>
    76be:	8b 45 fc             	mov    -0x4(%rbp),%eax
    76c1:	0f af 45 f8          	imul   -0x8(%rbp),%eax
    76c5:	eb 03                	jmp    76ca <safe_mul_func_int32_t_s_s+0x88>
    76c7:	8b 45 fc             	mov    -0x4(%rbp),%eax
    76ca:	5d                   	pop    %rbp
    76cb:	c3                   	retq   

00000000000076cc <safe_mod_func_int32_t_s_s>:
    76cc:	f3 0f 1e fa          	endbr64 
    76d0:	55                   	push   %rbp
    76d1:	48 89 e5             	mov    %rsp,%rbp
    76d4:	89 7d fc             	mov    %edi,-0x4(%rbp)
    76d7:	89 75 f8             	mov    %esi,-0x8(%rbp)
    76da:	83 7d f8 00          	cmpl   $0x0,-0x8(%rbp)
    76de:	74 1a                	je     76fa <safe_mod_func_int32_t_s_s+0x2e>
    76e0:	81 7d fc 00 00 00 80 	cmpl   $0x80000000,-0x4(%rbp)
    76e7:	75 06                	jne    76ef <safe_mod_func_int32_t_s_s+0x23>
    76e9:	83 7d f8 ff          	cmpl   $0xffffffff,-0x8(%rbp)
    76ed:	74 0b                	je     76fa <safe_mod_func_int32_t_s_s+0x2e>
    76ef:	8b 45 fc             	mov    -0x4(%rbp),%eax
    76f2:	99                   	cltd   
    76f3:	f7 7d f8             	idivl  -0x8(%rbp)
    76f6:	89 d0                	mov    %edx,%eax
    76f8:	eb 03                	jmp    76fd <safe_mod_func_int32_t_s_s+0x31>
    76fa:	8b 45 fc             	mov    -0x4(%rbp),%eax
    76fd:	5d                   	pop    %rbp
    76fe:	c3                   	retq   

00000000000076ff <safe_div_func_int32_t_s_s>:
    76ff:	f3 0f 1e fa          	endbr64 
    7703:	55                   	push   %rbp
    7704:	48 89 e5             	mov    %rsp,%rbp
    7707:	89 7d fc             	mov    %edi,-0x4(%rbp)
    770a:	89 75 f8             	mov    %esi,-0x8(%rbp)
    770d:	83 7d f8 00          	cmpl   $0x0,-0x8(%rbp)
    7711:	74 18                	je     772b <safe_div_func_int32_t_s_s+0x2c>
    7713:	81 7d fc 00 00 00 80 	cmpl   $0x80000000,-0x4(%rbp)
    771a:	75 06                	jne    7722 <safe_div_func_int32_t_s_s+0x23>
    771c:	83 7d f8 ff          	cmpl   $0xffffffff,-0x8(%rbp)
    7720:	74 09                	je     772b <safe_div_func_int32_t_s_s+0x2c>
    7722:	8b 45 fc             	mov    -0x4(%rbp),%eax
    7725:	99                   	cltd   
    7726:	f7 7d f8             	idivl  -0x8(%rbp)
    7729:	eb 03                	jmp    772e <safe_div_func_int32_t_s_s+0x2f>
    772b:	8b 45 fc             	mov    -0x4(%rbp),%eax
    772e:	5d                   	pop    %rbp
    772f:	c3                   	retq   

0000000000007730 <safe_lshift_func_int32_t_s_s>:
    7730:	f3 0f 1e fa          	endbr64 
    7734:	55                   	push   %rbp
    7735:	48 89 e5             	mov    %rsp,%rbp
    7738:	89 7d fc             	mov    %edi,-0x4(%rbp)
    773b:	89 75 f8             	mov    %esi,-0x8(%rbp)
    773e:	83 7d fc 00          	cmpl   $0x0,-0x4(%rbp)
    7742:	78 2d                	js     7771 <safe_lshift_func_int32_t_s_s+0x41>
    7744:	83 7d f8 00          	cmpl   $0x0,-0x8(%rbp)
    7748:	78 27                	js     7771 <safe_lshift_func_int32_t_s_s+0x41>
    774a:	83 7d f8 1f          	cmpl   $0x1f,-0x8(%rbp)
    774e:	7f 21                	jg     7771 <safe_lshift_func_int32_t_s_s+0x41>
    7750:	8b 45 f8             	mov    -0x8(%rbp),%eax
    7753:	ba ff ff ff 7f       	mov    $0x7fffffff,%edx
    7758:	89 c1                	mov    %eax,%ecx
    775a:	d3 fa                	sar    %cl,%edx
    775c:	89 d0                	mov    %edx,%eax
    775e:	39 45 fc             	cmp    %eax,-0x4(%rbp)
    7761:	7f 0e                	jg     7771 <safe_lshift_func_int32_t_s_s+0x41>
    7763:	8b 45 f8             	mov    -0x8(%rbp),%eax
    7766:	8b 55 fc             	mov    -0x4(%rbp),%edx
    7769:	89 c1                	mov    %eax,%ecx
    776b:	d3 e2                	shl    %cl,%edx
    776d:	89 d0                	mov    %edx,%eax
    776f:	eb 03                	jmp    7774 <safe_lshift_func_int32_t_s_s+0x44>
    7771:	8b 45 fc             	mov    -0x4(%rbp),%eax
    7774:	5d                   	pop    %rbp
    7775:	c3                   	retq   

0000000000007776 <safe_lshift_func_int32_t_s_u>:
    7776:	f3 0f 1e fa          	endbr64 
    777a:	55                   	push   %rbp
    777b:	48 89 e5             	mov    %rsp,%rbp
    777e:	89 7d fc             	mov    %edi,-0x4(%rbp)
    7781:	89 75 f8             	mov    %esi,-0x8(%rbp)
    7784:	83 7d fc 00          	cmpl   $0x0,-0x4(%rbp)
    7788:	78 27                	js     77b1 <safe_lshift_func_int32_t_s_u+0x3b>
    778a:	83 7d f8 1f          	cmpl   $0x1f,-0x8(%rbp)
    778e:	77 21                	ja     77b1 <safe_lshift_func_int32_t_s_u+0x3b>
    7790:	8b 45 f8             	mov    -0x8(%rbp),%eax
    7793:	ba ff ff ff 7f       	mov    $0x7fffffff,%edx
    7798:	89 c1                	mov    %eax,%ecx
    779a:	d3 fa                	sar    %cl,%edx
    779c:	89 d0                	mov    %edx,%eax
    779e:	39 45 fc             	cmp    %eax,-0x4(%rbp)
    77a1:	7f 0e                	jg     77b1 <safe_lshift_func_int32_t_s_u+0x3b>
    77a3:	8b 45 f8             	mov    -0x8(%rbp),%eax
    77a6:	8b 55 fc             	mov    -0x4(%rbp),%edx
    77a9:	89 c1                	mov    %eax,%ecx
    77ab:	d3 e2                	shl    %cl,%edx
    77ad:	89 d0                	mov    %edx,%eax
    77af:	eb 03                	jmp    77b4 <safe_lshift_func_int32_t_s_u+0x3e>
    77b1:	8b 45 fc             	mov    -0x4(%rbp),%eax
    77b4:	5d                   	pop    %rbp
    77b5:	c3                   	retq   

00000000000077b6 <safe_rshift_func_int32_t_s_s>:
    77b6:	f3 0f 1e fa          	endbr64 
    77ba:	55                   	push   %rbp
    77bb:	48 89 e5             	mov    %rsp,%rbp
    77be:	89 7d fc             	mov    %edi,-0x4(%rbp)
    77c1:	89 75 f8             	mov    %esi,-0x8(%rbp)
    77c4:	83 7d fc 00          	cmpl   $0x0,-0x4(%rbp)
    77c8:	78 1a                	js     77e4 <safe_rshift_func_int32_t_s_s+0x2e>
    77ca:	83 7d f8 00          	cmpl   $0x0,-0x8(%rbp)
    77ce:	78 14                	js     77e4 <safe_rshift_func_int32_t_s_s+0x2e>
    77d0:	83 7d f8 1f          	cmpl   $0x1f,-0x8(%rbp)
    77d4:	7f 0e                	jg     77e4 <safe_rshift_func_int32_t_s_s+0x2e>
    77d6:	8b 45 f8             	mov    -0x8(%rbp),%eax
    77d9:	8b 55 fc             	mov    -0x4(%rbp),%edx
    77dc:	89 c1                	mov    %eax,%ecx
    77de:	d3 fa                	sar    %cl,%edx
    77e0:	89 d0                	mov    %edx,%eax
    77e2:	eb 03                	jmp    77e7 <safe_rshift_func_int32_t_s_s+0x31>
    77e4:	8b 45 fc             	mov    -0x4(%rbp),%eax
    77e7:	5d                   	pop    %rbp
    77e8:	c3                   	retq   

00000000000077e9 <safe_rshift_func_int32_t_s_u>:
    77e9:	f3 0f 1e fa          	endbr64 
    77ed:	55                   	push   %rbp
    77ee:	48 89 e5             	mov    %rsp,%rbp
    77f1:	89 7d fc             	mov    %edi,-0x4(%rbp)
    77f4:	89 75 f8             	mov    %esi,-0x8(%rbp)
    77f7:	83 7d fc 00          	cmpl   $0x0,-0x4(%rbp)
    77fb:	78 14                	js     7811 <safe_rshift_func_int32_t_s_u+0x28>
    77fd:	83 7d f8 1f          	cmpl   $0x1f,-0x8(%rbp)
    7801:	77 0e                	ja     7811 <safe_rshift_func_int32_t_s_u+0x28>
    7803:	8b 45 f8             	mov    -0x8(%rbp),%eax
    7806:	8b 55 fc             	mov    -0x4(%rbp),%edx
    7809:	89 c1                	mov    %eax,%ecx
    780b:	d3 fa                	sar    %cl,%edx
    780d:	89 d0                	mov    %edx,%eax
    780f:	eb 03                	jmp    7814 <safe_rshift_func_int32_t_s_u+0x2b>
    7811:	8b 45 fc             	mov    -0x4(%rbp),%eax
    7814:	5d                   	pop    %rbp
    7815:	c3                   	retq   

0000000000007816 <safe_unary_minus_func_int64_t_s>:
    7816:	f3 0f 1e fa          	endbr64 
    781a:	55                   	push   %rbp
    781b:	48 89 e5             	mov    %rsp,%rbp
    781e:	48 89 7d f8          	mov    %rdi,-0x8(%rbp)
    7822:	48 b8 00 00 00 00 00 	movabs $0x8000000000000000,%rax
    7829:	00 00 80 
    782c:	48 39 45 f8          	cmp    %rax,-0x8(%rbp)
    7830:	74 09                	je     783b <safe_unary_minus_func_int64_t_s+0x25>
    7832:	48 8b 45 f8          	mov    -0x8(%rbp),%rax
    7836:	48 f7 d8             	neg    %rax
    7839:	eb 04                	jmp    783f <safe_unary_minus_func_int64_t_s+0x29>
    783b:	48 8b 45 f8          	mov    -0x8(%rbp),%rax
    783f:	5d                   	pop    %rbp
    7840:	c3                   	retq   

0000000000007841 <safe_add_func_int64_t_s_s>:
    7841:	f3 0f 1e fa          	endbr64 
    7845:	55                   	push   %rbp
    7846:	48 89 e5             	mov    %rsp,%rbp
    7849:	48 89 7d f8          	mov    %rdi,-0x8(%rbp)
    784d:	48 89 75 f0          	mov    %rsi,-0x10(%rbp)
    7851:	48 83 7d f8 00       	cmpq   $0x0,-0x8(%rbp)
    7856:	7e 1b                	jle    7873 <safe_add_func_int64_t_s_s+0x32>
    7858:	48 83 7d f0 00       	cmpq   $0x0,-0x10(%rbp)
    785d:	7e 14                	jle    7873 <safe_add_func_int64_t_s_s+0x32>
    785f:	48 b8 ff ff ff ff ff 	movabs $0x7fffffffffffffff,%rax
    7866:	ff ff 7f 
    7869:	48 2b 45 f0          	sub    -0x10(%rbp),%rax
    786d:	48 39 45 f8          	cmp    %rax,-0x8(%rbp)
    7871:	7f 2f                	jg     78a2 <safe_add_func_int64_t_s_s+0x61>
    7873:	48 83 7d f8 00       	cmpq   $0x0,-0x8(%rbp)
    7878:	79 1b                	jns    7895 <safe_add_func_int64_t_s_s+0x54>
    787a:	48 83 7d f0 00       	cmpq   $0x0,-0x10(%rbp)
    787f:	79 14                	jns    7895 <safe_add_func_int64_t_s_s+0x54>
    7881:	48 b8 00 00 00 00 00 	movabs $0x8000000000000000,%rax
    7888:	00 00 80 
    788b:	48 2b 45 f0          	sub    -0x10(%rbp),%rax
    788f:	48 39 45 f8          	cmp    %rax,-0x8(%rbp)
    7893:	7c 0d                	jl     78a2 <safe_add_func_int64_t_s_s+0x61>
    7895:	48 8b 55 f8          	mov    -0x8(%rbp),%rdx
    7899:	48 8b 45 f0          	mov    -0x10(%rbp),%rax
    789d:	48 01 d0             	add    %rdx,%rax
    78a0:	eb 04                	jmp    78a6 <safe_add_func_int64_t_s_s+0x65>
    78a2:	48 8b 45 f8          	mov    -0x8(%rbp),%rax
    78a6:	5d                   	pop    %rbp
    78a7:	c3                   	retq   

00000000000078a8 <safe_sub_func_int64_t_s_s>:
    78a8:	f3 0f 1e fa          	endbr64 
    78ac:	55                   	push   %rbp
    78ad:	48 89 e5             	mov    %rsp,%rbp
    78b0:	48 89 7d f8          	mov    %rdi,-0x8(%rbp)
    78b4:	48 89 75 f0          	mov    %rsi,-0x10(%rbp)
    78b8:	48 8b 45 f8          	mov    -0x8(%rbp),%rax
    78bc:	48 33 45 f0          	xor    -0x10(%rbp),%rax
    78c0:	48 89 c2             	mov    %rax,%rdx
    78c3:	48 8b 45 f8          	mov    -0x8(%rbp),%rax
    78c7:	48 33 45 f0          	xor    -0x10(%rbp),%rax
    78cb:	48 b9 00 00 00 00 00 	movabs $0x8000000000000000,%rcx
    78d2:	00 00 80 
    78d5:	48 21 c8             	and    %rcx,%rax
    78d8:	48 33 45 f8          	xor    -0x8(%rbp),%rax
    78dc:	48 2b 45 f0          	sub    -0x10(%rbp),%rax
    78e0:	48 33 45 f0          	xor    -0x10(%rbp),%rax
    78e4:	48 21 d0             	and    %rdx,%rax
    78e7:	48 85 c0             	test   %rax,%rax
    78ea:	78 0a                	js     78f6 <safe_sub_func_int64_t_s_s+0x4e>
    78ec:	48 8b 45 f8          	mov    -0x8(%rbp),%rax
    78f0:	48 2b 45 f0          	sub    -0x10(%rbp),%rax
    78f4:	eb 04                	jmp    78fa <safe_sub_func_int64_t_s_s+0x52>
    78f6:	48 8b 45 f8          	mov    -0x8(%rbp),%rax
    78fa:	5d                   	pop    %rbp
    78fb:	c3                   	retq   

00000000000078fc <safe_mul_func_int64_t_s_s>:
    78fc:	f3 0f 1e fa          	endbr64 
    7900:	55                   	push   %rbp
    7901:	48 89 e5             	mov    %rsp,%rbp
    7904:	48 89 7d f8          	mov    %rdi,-0x8(%rbp)
    7908:	48 89 75 f0          	mov    %rsi,-0x10(%rbp)
    790c:	48 83 7d f8 00       	cmpq   $0x0,-0x8(%rbp)
    7911:	7e 1d                	jle    7930 <safe_mul_func_int64_t_s_s+0x34>
    7913:	48 83 7d f0 00       	cmpq   $0x0,-0x10(%rbp)
    7918:	7e 16                	jle    7930 <safe_mul_func_int64_t_s_s+0x34>
    791a:	48 b8 ff ff ff ff ff 	movabs $0x7fffffffffffffff,%rax
    7921:	ff ff 7f 
    7924:	48 99                	cqto   
    7926:	48 f7 7d f0          	idivq  -0x10(%rbp)
    792a:	48 39 45 f8          	cmp    %rax,-0x8(%rbp)
    792e:	7f 7e                	jg     79ae <safe_mul_func_int64_t_s_s+0xb2>
    7930:	48 83 7d f8 00       	cmpq   $0x0,-0x8(%rbp)
    7935:	7e 1d                	jle    7954 <safe_mul_func_int64_t_s_s+0x58>
    7937:	48 83 7d f0 00       	cmpq   $0x0,-0x10(%rbp)
    793c:	7f 16                	jg     7954 <safe_mul_func_int64_t_s_s+0x58>
    793e:	48 b8 00 00 00 00 00 	movabs $0x8000000000000000,%rax
    7945:	00 00 80 
    7948:	48 99                	cqto   
    794a:	48 f7 7d f8          	idivq  -0x8(%rbp)
    794e:	48 39 45 f0          	cmp    %rax,-0x10(%rbp)
    7952:	7c 5a                	jl     79ae <safe_mul_func_int64_t_s_s+0xb2>
    7954:	48 83 7d f8 00       	cmpq   $0x0,-0x8(%rbp)
    7959:	7f 1d                	jg     7978 <safe_mul_func_int64_t_s_s+0x7c>
    795b:	48 83 7d f0 00       	cmpq   $0x0,-0x10(%rbp)
    7960:	7e 16                	jle    7978 <safe_mul_func_int64_t_s_s+0x7c>
    7962:	48 b8 00 00 00 00 00 	movabs $0x8000000000000000,%rax
    7969:	00 00 80 
    796c:	48 99                	cqto   
    796e:	48 f7 7d f0          	idivq  -0x10(%rbp)
    7972:	48 39 45 f8          	cmp    %rax,-0x8(%rbp)
    7976:	7c 36                	jl     79ae <safe_mul_func_int64_t_s_s+0xb2>
    7978:	48 83 7d f8 00       	cmpq   $0x0,-0x8(%rbp)
    797d:	7f 24                	jg     79a3 <safe_mul_func_int64_t_s_s+0xa7>
    797f:	48 83 7d f0 00       	cmpq   $0x0,-0x10(%rbp)
    7984:	7f 1d                	jg     79a3 <safe_mul_func_int64_t_s_s+0xa7>
    7986:	48 83 7d f8 00       	cmpq   $0x0,-0x8(%rbp)
    798b:	74 16                	je     79a3 <safe_mul_func_int64_t_s_s+0xa7>
    798d:	48 b8 ff ff ff ff ff 	movabs $0x7fffffffffffffff,%rax
    7994:	ff ff 7f 
    7997:	48 99                	cqto   
    7999:	48 f7 7d f8          	idivq  -0x8(%rbp)
    799d:	48 39 45 f0          	cmp    %rax,-0x10(%rbp)
    79a1:	7c 0b                	jl     79ae <safe_mul_func_int64_t_s_s+0xb2>
    79a3:	48 8b 45 f8          	mov    -0x8(%rbp),%rax
    79a7:	48 0f af 45 f0       	imul   -0x10(%rbp),%rax
    79ac:	eb 04                	jmp    79b2 <safe_mul_func_int64_t_s_s+0xb6>
    79ae:	48 8b 45 f8          	mov    -0x8(%rbp),%rax
    79b2:	5d                   	pop    %rbp
    79b3:	c3                   	retq   

00000000000079b4 <safe_mod_func_int64_t_s_s>:
    79b4:	f3 0f 1e fa          	endbr64 
    79b8:	55                   	push   %rbp
    79b9:	48 89 e5             	mov    %rsp,%rbp
    79bc:	48 89 7d f8          	mov    %rdi,-0x8(%rbp)
    79c0:	48 89 75 f0          	mov    %rsi,-0x10(%rbp)
    79c4:	48 83 7d f0 00       	cmpq   $0x0,-0x10(%rbp)
    79c9:	74 26                	je     79f1 <safe_mod_func_int64_t_s_s+0x3d>
    79cb:	48 b8 00 00 00 00 00 	movabs $0x8000000000000000,%rax
    79d2:	00 00 80 
    79d5:	48 39 45 f8          	cmp    %rax,-0x8(%rbp)
    79d9:	75 07                	jne    79e2 <safe_mod_func_int64_t_s_s+0x2e>
    79db:	48 83 7d f0 ff       	cmpq   $0xffffffffffffffff,-0x10(%rbp)
    79e0:	74 0f                	je     79f1 <safe_mod_func_int64_t_s_s+0x3d>
    79e2:	48 8b 45 f8          	mov    -0x8(%rbp),%rax
    79e6:	48 99                	cqto   
    79e8:	48 f7 7d f0          	idivq  -0x10(%rbp)
    79ec:	48 89 d0             	mov    %rdx,%rax
    79ef:	eb 04                	jmp    79f5 <safe_mod_func_int64_t_s_s+0x41>
    79f1:	48 8b 45 f8          	mov    -0x8(%rbp),%rax
    79f5:	5d                   	pop    %rbp
    79f6:	c3                   	retq   

00000000000079f7 <safe_div_func_int64_t_s_s>:
    79f7:	f3 0f 1e fa          	endbr64 
    79fb:	55                   	push   %rbp
    79fc:	48 89 e5             	mov    %rsp,%rbp
    79ff:	48 89 7d f8          	mov    %rdi,-0x8(%rbp)
    7a03:	48 89 75 f0          	mov    %rsi,-0x10(%rbp)
    7a07:	48 83 7d f0 00       	cmpq   $0x0,-0x10(%rbp)
    7a0c:	74 23                	je     7a31 <safe_div_func_int64_t_s_s+0x3a>
    7a0e:	48 b8 00 00 00 00 00 	movabs $0x8000000000000000,%rax
    7a15:	00 00 80 
    7a18:	48 39 45 f8          	cmp    %rax,-0x8(%rbp)
    7a1c:	75 07                	jne    7a25 <safe_div_func_int64_t_s_s+0x2e>
    7a1e:	48 83 7d f0 ff       	cmpq   $0xffffffffffffffff,-0x10(%rbp)
    7a23:	74 0c                	je     7a31 <safe_div_func_int64_t_s_s+0x3a>
    7a25:	48 8b 45 f8          	mov    -0x8(%rbp),%rax
    7a29:	48 99                	cqto   
    7a2b:	48 f7 7d f0          	idivq  -0x10(%rbp)
    7a2f:	eb 04                	jmp    7a35 <safe_div_func_int64_t_s_s+0x3e>
    7a31:	48 8b 45 f8          	mov    -0x8(%rbp),%rax
    7a35:	5d                   	pop    %rbp
    7a36:	c3                   	retq   

0000000000007a37 <safe_lshift_func_int64_t_s_s>:
    7a37:	f3 0f 1e fa          	endbr64 
    7a3b:	55                   	push   %rbp
    7a3c:	48 89 e5             	mov    %rsp,%rbp
    7a3f:	48 89 7d f8          	mov    %rdi,-0x8(%rbp)
    7a43:	89 75 f4             	mov    %esi,-0xc(%rbp)
    7a46:	48 83 7d f8 00       	cmpq   $0x0,-0x8(%rbp)
    7a4b:	78 38                	js     7a85 <safe_lshift_func_int64_t_s_s+0x4e>
    7a4d:	83 7d f4 00          	cmpl   $0x0,-0xc(%rbp)
    7a51:	78 32                	js     7a85 <safe_lshift_func_int64_t_s_s+0x4e>
    7a53:	83 7d f4 1f          	cmpl   $0x1f,-0xc(%rbp)
    7a57:	7f 2c                	jg     7a85 <safe_lshift_func_int64_t_s_s+0x4e>
    7a59:	8b 45 f4             	mov    -0xc(%rbp),%eax
    7a5c:	48 ba ff ff ff ff ff 	movabs $0x7fffffffffffffff,%rdx
    7a63:	ff ff 7f 
    7a66:	89 c1                	mov    %eax,%ecx
    7a68:	48 d3 fa             	sar    %cl,%rdx
    7a6b:	48 89 d0             	mov    %rdx,%rax
    7a6e:	48 39 45 f8          	cmp    %rax,-0x8(%rbp)
    7a72:	7f 11                	jg     7a85 <safe_lshift_func_int64_t_s_s+0x4e>
    7a74:	8b 45 f4             	mov    -0xc(%rbp),%eax
    7a77:	48 8b 55 f8          	mov    -0x8(%rbp),%rdx
    7a7b:	89 c1                	mov    %eax,%ecx
    7a7d:	48 d3 e2             	shl    %cl,%rdx
    7a80:	48 89 d0             	mov    %rdx,%rax
    7a83:	eb 04                	jmp    7a89 <safe_lshift_func_int64_t_s_s+0x52>
    7a85:	48 8b 45 f8          	mov    -0x8(%rbp),%rax
    7a89:	5d                   	pop    %rbp
    7a8a:	c3                   	retq   

0000000000007a8b <safe_lshift_func_int64_t_s_u>:
    7a8b:	f3 0f 1e fa          	endbr64 
    7a8f:	55                   	push   %rbp
    7a90:	48 89 e5             	mov    %rsp,%rbp
    7a93:	48 89 7d f8          	mov    %rdi,-0x8(%rbp)
    7a97:	89 75 f4             	mov    %esi,-0xc(%rbp)
    7a9a:	48 83 7d f8 00       	cmpq   $0x0,-0x8(%rbp)
    7a9f:	78 32                	js     7ad3 <safe_lshift_func_int64_t_s_u+0x48>
    7aa1:	83 7d f4 1f          	cmpl   $0x1f,-0xc(%rbp)
    7aa5:	77 2c                	ja     7ad3 <safe_lshift_func_int64_t_s_u+0x48>
    7aa7:	8b 45 f4             	mov    -0xc(%rbp),%eax
    7aaa:	48 ba ff ff ff ff ff 	movabs $0x7fffffffffffffff,%rdx
    7ab1:	ff ff 7f 
    7ab4:	89 c1                	mov    %eax,%ecx
    7ab6:	48 d3 fa             	sar    %cl,%rdx
    7ab9:	48 89 d0             	mov    %rdx,%rax
    7abc:	48 39 45 f8          	cmp    %rax,-0x8(%rbp)
    7ac0:	7f 11                	jg     7ad3 <safe_lshift_func_int64_t_s_u+0x48>
    7ac2:	8b 45 f4             	mov    -0xc(%rbp),%eax
    7ac5:	48 8b 55 f8          	mov    -0x8(%rbp),%rdx
    7ac9:	89 c1                	mov    %eax,%ecx
    7acb:	48 d3 e2             	shl    %cl,%rdx
    7ace:	48 89 d0             	mov    %rdx,%rax
    7ad1:	eb 04                	jmp    7ad7 <safe_lshift_func_int64_t_s_u+0x4c>
    7ad3:	48 8b 45 f8          	mov    -0x8(%rbp),%rax
    7ad7:	5d                   	pop    %rbp
    7ad8:	c3                   	retq   

0000000000007ad9 <safe_rshift_func_int64_t_s_s>:
    7ad9:	f3 0f 1e fa          	endbr64 
    7add:	55                   	push   %rbp
    7ade:	48 89 e5             	mov    %rsp,%rbp
    7ae1:	48 89 7d f8          	mov    %rdi,-0x8(%rbp)
    7ae5:	89 75 f4             	mov    %esi,-0xc(%rbp)
    7ae8:	48 83 7d f8 00       	cmpq   $0x0,-0x8(%rbp)
    7aed:	78 1d                	js     7b0c <safe_rshift_func_int64_t_s_s+0x33>
    7aef:	83 7d f4 00          	cmpl   $0x0,-0xc(%rbp)
    7af3:	78 17                	js     7b0c <safe_rshift_func_int64_t_s_s+0x33>
    7af5:	83 7d f4 1f          	cmpl   $0x1f,-0xc(%rbp)
    7af9:	7f 11                	jg     7b0c <safe_rshift_func_int64_t_s_s+0x33>
    7afb:	8b 45 f4             	mov    -0xc(%rbp),%eax
    7afe:	48 8b 55 f8          	mov    -0x8(%rbp),%rdx
    7b02:	89 c1                	mov    %eax,%ecx
    7b04:	48 d3 fa             	sar    %cl,%rdx
    7b07:	48 89 d0             	mov    %rdx,%rax
    7b0a:	eb 04                	jmp    7b10 <safe_rshift_func_int64_t_s_s+0x37>
    7b0c:	48 8b 45 f8          	mov    -0x8(%rbp),%rax
    7b10:	5d                   	pop    %rbp
    7b11:	c3                   	retq   

0000000000007b12 <safe_rshift_func_int64_t_s_u>:
    7b12:	f3 0f 1e fa          	endbr64 
    7b16:	55                   	push   %rbp
    7b17:	48 89 e5             	mov    %rsp,%rbp
    7b1a:	48 89 7d f8          	mov    %rdi,-0x8(%rbp)
    7b1e:	89 75 f4             	mov    %esi,-0xc(%rbp)
    7b21:	48 83 7d f8 00       	cmpq   $0x0,-0x8(%rbp)
    7b26:	78 17                	js     7b3f <safe_rshift_func_int64_t_s_u+0x2d>
    7b28:	83 7d f4 1f          	cmpl   $0x1f,-0xc(%rbp)
    7b2c:	77 11                	ja     7b3f <safe_rshift_func_int64_t_s_u+0x2d>
    7b2e:	8b 45 f4             	mov    -0xc(%rbp),%eax
    7b31:	48 8b 55 f8          	mov    -0x8(%rbp),%rdx
    7b35:	89 c1                	mov    %eax,%ecx
    7b37:	48 d3 fa             	sar    %cl,%rdx
    7b3a:	48 89 d0             	mov    %rdx,%rax
    7b3d:	eb 04                	jmp    7b43 <safe_rshift_func_int64_t_s_u+0x31>
    7b3f:	48 8b 45 f8          	mov    -0x8(%rbp),%rax
    7b43:	5d                   	pop    %rbp
    7b44:	c3                   	retq   

0000000000007b45 <safe_unary_minus_func_uint8_t_u>:
    7b45:	f3 0f 1e fa          	endbr64 
    7b49:	55                   	push   %rbp
    7b4a:	48 89 e5             	mov    %rsp,%rbp
    7b4d:	89 f8                	mov    %edi,%eax
    7b4f:	88 45 fc             	mov    %al,-0x4(%rbp)
    7b52:	0f b6 45 fc          	movzbl -0x4(%rbp),%eax
    7b56:	f7 d8                	neg    %eax
    7b58:	5d                   	pop    %rbp
    7b59:	c3                   	retq   

0000000000007b5a <safe_add_func_uint8_t_u_u>:
    7b5a:	f3 0f 1e fa          	endbr64 
    7b5e:	55                   	push   %rbp
    7b5f:	48 89 e5             	mov    %rsp,%rbp
    7b62:	89 fa                	mov    %edi,%edx
    7b64:	89 f0                	mov    %esi,%eax
    7b66:	88 55 fc             	mov    %dl,-0x4(%rbp)
    7b69:	88 45 f8             	mov    %al,-0x8(%rbp)
    7b6c:	0f b6 55 fc          	movzbl -0x4(%rbp),%edx
    7b70:	0f b6 45 f8          	movzbl -0x8(%rbp),%eax
    7b74:	01 d0                	add    %edx,%eax
    7b76:	5d                   	pop    %rbp
    7b77:	c3                   	retq   

0000000000007b78 <safe_sub_func_uint8_t_u_u>:
    7b78:	f3 0f 1e fa          	endbr64 
    7b7c:	55                   	push   %rbp
    7b7d:	48 89 e5             	mov    %rsp,%rbp
    7b80:	89 fa                	mov    %edi,%edx
    7b82:	89 f0                	mov    %esi,%eax
    7b84:	88 55 fc             	mov    %dl,-0x4(%rbp)
    7b87:	88 45 f8             	mov    %al,-0x8(%rbp)
    7b8a:	0f b6 45 fc          	movzbl -0x4(%rbp),%eax
    7b8e:	2a 45 f8             	sub    -0x8(%rbp),%al
    7b91:	5d                   	pop    %rbp
    7b92:	c3                   	retq   

0000000000007b93 <safe_mul_func_uint8_t_u_u>:
    7b93:	f3 0f 1e fa          	endbr64 
    7b97:	55                   	push   %rbp
    7b98:	48 89 e5             	mov    %rsp,%rbp
    7b9b:	89 fa                	mov    %edi,%edx
    7b9d:	89 f0                	mov    %esi,%eax
    7b9f:	88 55 fc             	mov    %dl,-0x4(%rbp)
    7ba2:	88 45 f8             	mov    %al,-0x8(%rbp)
    7ba5:	0f b6 45 fc          	movzbl -0x4(%rbp),%eax
    7ba9:	f6 65 f8             	mulb   -0x8(%rbp)
    7bac:	5d                   	pop    %rbp
    7bad:	c3                   	retq   

0000000000007bae <safe_mod_func_uint8_t_u_u>:
    7bae:	f3 0f 1e fa          	endbr64 
    7bb2:	55                   	push   %rbp
    7bb3:	48 89 e5             	mov    %rsp,%rbp
    7bb6:	89 fa                	mov    %edi,%edx
    7bb8:	89 f0                	mov    %esi,%eax
    7bba:	88 55 fc             	mov    %dl,-0x4(%rbp)
    7bbd:	88 45 f8             	mov    %al,-0x8(%rbp)
    7bc0:	80 7d f8 00          	cmpb   $0x0,-0x8(%rbp)
    7bc4:	74 0f                	je     7bd5 <safe_mod_func_uint8_t_u_u+0x27>
    7bc6:	0f b6 45 fc          	movzbl -0x4(%rbp),%eax
    7bca:	0f b6 c0             	movzbl %al,%eax
    7bcd:	f6 75 f8             	divb   -0x8(%rbp)
    7bd0:	0f b6 c4             	movzbl %ah,%eax
    7bd3:	eb 04                	jmp    7bd9 <safe_mod_func_uint8_t_u_u+0x2b>
    7bd5:	0f b6 45 fc          	movzbl -0x4(%rbp),%eax
    7bd9:	5d                   	pop    %rbp
    7bda:	c3                   	retq   

0000000000007bdb <safe_div_func_uint8_t_u_u>:
    7bdb:	f3 0f 1e fa          	endbr64 
    7bdf:	55                   	push   %rbp
    7be0:	48 89 e5             	mov    %rsp,%rbp
    7be3:	89 fa                	mov    %edi,%edx
    7be5:	89 f0                	mov    %esi,%eax
    7be7:	88 55 fc             	mov    %dl,-0x4(%rbp)
    7bea:	88 45 f8             	mov    %al,-0x8(%rbp)
    7bed:	80 7d f8 00          	cmpb   $0x0,-0x8(%rbp)
    7bf1:	74 0c                	je     7bff <safe_div_func_uint8_t_u_u+0x24>
    7bf3:	0f b6 45 fc          	movzbl -0x4(%rbp),%eax
    7bf7:	0f b6 c0             	movzbl %al,%eax
    7bfa:	f6 75 f8             	divb   -0x8(%rbp)
    7bfd:	eb 04                	jmp    7c03 <safe_div_func_uint8_t_u_u+0x28>
    7bff:	0f b6 45 fc          	movzbl -0x4(%rbp),%eax
    7c03:	5d                   	pop    %rbp
    7c04:	c3                   	retq   

0000000000007c05 <safe_lshift_func_uint8_t_u_s>:
    7c05:	f3 0f 1e fa          	endbr64 
    7c09:	55                   	push   %rbp
    7c0a:	48 89 e5             	mov    %rsp,%rbp
    7c0d:	89 f8                	mov    %edi,%eax
    7c0f:	89 75 f8             	mov    %esi,-0x8(%rbp)
    7c12:	88 45 fc             	mov    %al,-0x4(%rbp)
    7c15:	83 7d f8 00          	cmpl   $0x0,-0x8(%rbp)
    7c19:	78 2b                	js     7c46 <safe_lshift_func_uint8_t_u_s+0x41>
    7c1b:	83 7d f8 1f          	cmpl   $0x1f,-0x8(%rbp)
    7c1f:	7f 25                	jg     7c46 <safe_lshift_func_uint8_t_u_s+0x41>
    7c21:	0f b6 55 fc          	movzbl -0x4(%rbp),%edx
    7c25:	8b 45 f8             	mov    -0x8(%rbp),%eax
    7c28:	be ff 00 00 00       	mov    $0xff,%esi
    7c2d:	89 c1                	mov    %eax,%ecx
    7c2f:	d3 fe                	sar    %cl,%esi
    7c31:	89 f0                	mov    %esi,%eax
    7c33:	39 c2                	cmp    %eax,%edx
    7c35:	7f 0f                	jg     7c46 <safe_lshift_func_uint8_t_u_s+0x41>
    7c37:	0f b6 55 fc          	movzbl -0x4(%rbp),%edx
    7c3b:	8b 45 f8             	mov    -0x8(%rbp),%eax
    7c3e:	89 c1                	mov    %eax,%ecx
    7c40:	d3 e2                	shl    %cl,%edx
    7c42:	89 d0                	mov    %edx,%eax
    7c44:	eb 04                	jmp    7c4a <safe_lshift_func_uint8_t_u_s+0x45>
    7c46:	0f b6 45 fc          	movzbl -0x4(%rbp),%eax
    7c4a:	5d                   	pop    %rbp
    7c4b:	c3                   	retq   

0000000000007c4c <safe_lshift_func_uint8_t_u_u>:
    7c4c:	f3 0f 1e fa          	endbr64 
    7c50:	55                   	push   %rbp
    7c51:	48 89 e5             	mov    %rsp,%rbp
    7c54:	89 f8                	mov    %edi,%eax
    7c56:	89 75 f8             	mov    %esi,-0x8(%rbp)
    7c59:	88 45 fc             	mov    %al,-0x4(%rbp)
    7c5c:	83 7d f8 1f          	cmpl   $0x1f,-0x8(%rbp)
    7c60:	77 25                	ja     7c87 <safe_lshift_func_uint8_t_u_u+0x3b>
    7c62:	0f b6 55 fc          	movzbl -0x4(%rbp),%edx
    7c66:	8b 45 f8             	mov    -0x8(%rbp),%eax
    7c69:	be ff 00 00 00       	mov    $0xff,%esi
    7c6e:	89 c1                	mov    %eax,%ecx
    7c70:	d3 fe                	sar    %cl,%esi
    7c72:	89 f0                	mov    %esi,%eax
    7c74:	39 c2                	cmp    %eax,%edx
    7c76:	7f 0f                	jg     7c87 <safe_lshift_func_uint8_t_u_u+0x3b>
    7c78:	0f b6 55 fc          	movzbl -0x4(%rbp),%edx
    7c7c:	8b 45 f8             	mov    -0x8(%rbp),%eax
    7c7f:	89 c1                	mov    %eax,%ecx
    7c81:	d3 e2                	shl    %cl,%edx
    7c83:	89 d0                	mov    %edx,%eax
    7c85:	eb 04                	jmp    7c8b <safe_lshift_func_uint8_t_u_u+0x3f>
    7c87:	0f b6 45 fc          	movzbl -0x4(%rbp),%eax
    7c8b:	5d                   	pop    %rbp
    7c8c:	c3                   	retq   

0000000000007c8d <safe_rshift_func_uint8_t_u_s>:
    7c8d:	f3 0f 1e fa          	endbr64 
    7c91:	55                   	push   %rbp
    7c92:	48 89 e5             	mov    %rsp,%rbp
    7c95:	89 f8                	mov    %edi,%eax
    7c97:	89 75 f8             	mov    %esi,-0x8(%rbp)
    7c9a:	88 45 fc             	mov    %al,-0x4(%rbp)
    7c9d:	83 7d f8 00          	cmpl   $0x0,-0x8(%rbp)
    7ca1:	78 15                	js     7cb8 <safe_rshift_func_uint8_t_u_s+0x2b>
    7ca3:	83 7d f8 1f          	cmpl   $0x1f,-0x8(%rbp)
    7ca7:	7f 0f                	jg     7cb8 <safe_rshift_func_uint8_t_u_s+0x2b>
    7ca9:	0f b6 55 fc          	movzbl -0x4(%rbp),%edx
    7cad:	8b 45 f8             	mov    -0x8(%rbp),%eax
    7cb0:	89 c1                	mov    %eax,%ecx
    7cb2:	d3 fa                	sar    %cl,%edx
    7cb4:	89 d0                	mov    %edx,%eax
    7cb6:	eb 04                	jmp    7cbc <safe_rshift_func_uint8_t_u_s+0x2f>
    7cb8:	0f b6 45 fc          	movzbl -0x4(%rbp),%eax
    7cbc:	5d                   	pop    %rbp
    7cbd:	c3                   	retq   

0000000000007cbe <safe_rshift_func_uint8_t_u_u>:
    7cbe:	f3 0f 1e fa          	endbr64 
    7cc2:	55                   	push   %rbp
    7cc3:	48 89 e5             	mov    %rsp,%rbp
    7cc6:	89 f8                	mov    %edi,%eax
    7cc8:	89 75 f8             	mov    %esi,-0x8(%rbp)
    7ccb:	88 45 fc             	mov    %al,-0x4(%rbp)
    7cce:	83 7d f8 1f          	cmpl   $0x1f,-0x8(%rbp)
    7cd2:	77 0f                	ja     7ce3 <safe_rshift_func_uint8_t_u_u+0x25>
    7cd4:	0f b6 55 fc          	movzbl -0x4(%rbp),%edx
    7cd8:	8b 45 f8             	mov    -0x8(%rbp),%eax
    7cdb:	89 c1                	mov    %eax,%ecx
    7cdd:	d3 fa                	sar    %cl,%edx
    7cdf:	89 d0                	mov    %edx,%eax
    7ce1:	eb 04                	jmp    7ce7 <safe_rshift_func_uint8_t_u_u+0x29>
    7ce3:	0f b6 45 fc          	movzbl -0x4(%rbp),%eax
    7ce7:	5d                   	pop    %rbp
    7ce8:	c3                   	retq   

0000000000007ce9 <safe_unary_minus_func_uint16_t_u>:
    7ce9:	f3 0f 1e fa          	endbr64 
    7ced:	55                   	push   %rbp
    7cee:	48 89 e5             	mov    %rsp,%rbp
    7cf1:	89 f8                	mov    %edi,%eax
    7cf3:	66 89 45 fc          	mov    %ax,-0x4(%rbp)
    7cf7:	0f b7 45 fc          	movzwl -0x4(%rbp),%eax
    7cfb:	f7 d8                	neg    %eax
    7cfd:	5d                   	pop    %rbp
    7cfe:	c3                   	retq   

0000000000007cff <safe_add_func_uint16_t_u_u>:
    7cff:	f3 0f 1e fa          	endbr64 
    7d03:	55                   	push   %rbp
    7d04:	48 89 e5             	mov    %rsp,%rbp
    7d07:	89 fa                	mov    %edi,%edx
    7d09:	89 f0                	mov    %esi,%eax
    7d0b:	66 89 55 fc          	mov    %dx,-0x4(%rbp)
    7d0f:	66 89 45 f8          	mov    %ax,-0x8(%rbp)
    7d13:	0f b7 55 fc          	movzwl -0x4(%rbp),%edx
    7d17:	0f b7 45 f8          	movzwl -0x8(%rbp),%eax
    7d1b:	01 d0                	add    %edx,%eax
    7d1d:	5d                   	pop    %rbp
    7d1e:	c3                   	retq   

0000000000007d1f <safe_sub_func_uint16_t_u_u>:
    7d1f:	f3 0f 1e fa          	endbr64 
    7d23:	55                   	push   %rbp
    7d24:	48 89 e5             	mov    %rsp,%rbp
    7d27:	89 fa                	mov    %edi,%edx
    7d29:	89 f0                	mov    %esi,%eax
    7d2b:	66 89 55 fc          	mov    %dx,-0x4(%rbp)
    7d2f:	66 89 45 f8          	mov    %ax,-0x8(%rbp)
    7d33:	0f b7 45 fc          	movzwl -0x4(%rbp),%eax
    7d37:	66 2b 45 f8          	sub    -0x8(%rbp),%ax
    7d3b:	5d                   	pop    %rbp
    7d3c:	c3                   	retq   

0000000000007d3d <safe_mul_func_uint16_t_u_u>:
    7d3d:	f3 0f 1e fa          	endbr64 
    7d41:	55                   	push   %rbp
    7d42:	48 89 e5             	mov    %rsp,%rbp
    7d45:	89 fa                	mov    %edi,%edx
    7d47:	89 f0                	mov    %esi,%eax
    7d49:	66 89 55 fc          	mov    %dx,-0x4(%rbp)
    7d4d:	66 89 45 f8          	mov    %ax,-0x8(%rbp)
    7d51:	0f b7 45 fc          	movzwl -0x4(%rbp),%eax
    7d55:	66 0f af 45 f8       	imul   -0x8(%rbp),%ax
    7d5a:	5d                   	pop    %rbp
    7d5b:	c3                   	retq   

0000000000007d5c <safe_mod_func_uint16_t_u_u>:
    7d5c:	f3 0f 1e fa          	endbr64 
    7d60:	55                   	push   %rbp
    7d61:	48 89 e5             	mov    %rsp,%rbp
    7d64:	89 fa                	mov    %edi,%edx
    7d66:	89 f0                	mov    %esi,%eax
    7d68:	66 89 55 fc          	mov    %dx,-0x4(%rbp)
    7d6c:	66 89 45 f8          	mov    %ax,-0x8(%rbp)
    7d70:	66 83 7d f8 00       	cmpw   $0x0,-0x8(%rbp)
    7d75:	74 11                	je     7d88 <safe_mod_func_uint16_t_u_u+0x2c>
    7d77:	0f b7 45 fc          	movzwl -0x4(%rbp),%eax
    7d7b:	ba 00 00 00 00       	mov    $0x0,%edx
    7d80:	66 f7 75 f8          	divw   -0x8(%rbp)
    7d84:	89 d0                	mov    %edx,%eax
    7d86:	eb 04                	jmp    7d8c <safe_mod_func_uint16_t_u_u+0x30>
    7d88:	0f b7 45 fc          	movzwl -0x4(%rbp),%eax
    7d8c:	5d                   	pop    %rbp
    7d8d:	c3                   	retq   

0000000000007d8e <safe_div_func_uint16_t_u_u>:
    7d8e:	f3 0f 1e fa          	endbr64 
    7d92:	55                   	push   %rbp
    7d93:	48 89 e5             	mov    %rsp,%rbp
    7d96:	89 fa                	mov    %edi,%edx
    7d98:	89 f0                	mov    %esi,%eax
    7d9a:	66 89 55 fc          	mov    %dx,-0x4(%rbp)
    7d9e:	66 89 45 f8          	mov    %ax,-0x8(%rbp)
    7da2:	66 83 7d f8 00       	cmpw   $0x0,-0x8(%rbp)
    7da7:	74 0f                	je     7db8 <safe_div_func_uint16_t_u_u+0x2a>
    7da9:	0f b7 45 fc          	movzwl -0x4(%rbp),%eax
    7dad:	ba 00 00 00 00       	mov    $0x0,%edx
    7db2:	66 f7 75 f8          	divw   -0x8(%rbp)
    7db6:	eb 04                	jmp    7dbc <safe_div_func_uint16_t_u_u+0x2e>
    7db8:	0f b7 45 fc          	movzwl -0x4(%rbp),%eax
    7dbc:	5d                   	pop    %rbp
    7dbd:	c3                   	retq   

0000000000007dbe <safe_lshift_func_uint16_t_u_s>:
    7dbe:	f3 0f 1e fa          	endbr64 
    7dc2:	55                   	push   %rbp
    7dc3:	48 89 e5             	mov    %rsp,%rbp
    7dc6:	89 f8                	mov    %edi,%eax
    7dc8:	89 75 f8             	mov    %esi,-0x8(%rbp)
    7dcb:	66 89 45 fc          	mov    %ax,-0x4(%rbp)
    7dcf:	83 7d f8 00          	cmpl   $0x0,-0x8(%rbp)
    7dd3:	78 2b                	js     7e00 <safe_lshift_func_uint16_t_u_s+0x42>
    7dd5:	83 7d f8 1f          	cmpl   $0x1f,-0x8(%rbp)
    7dd9:	7f 25                	jg     7e00 <safe_lshift_func_uint16_t_u_s+0x42>
    7ddb:	0f b7 55 fc          	movzwl -0x4(%rbp),%edx
    7ddf:	8b 45 f8             	mov    -0x8(%rbp),%eax
    7de2:	be ff ff 00 00       	mov    $0xffff,%esi
    7de7:	89 c1                	mov    %eax,%ecx
    7de9:	d3 fe                	sar    %cl,%esi
    7deb:	89 f0                	mov    %esi,%eax
    7ded:	39 c2                	cmp    %eax,%edx
    7def:	7f 0f                	jg     7e00 <safe_lshift_func_uint16_t_u_s+0x42>
    7df1:	0f b7 55 fc          	movzwl -0x4(%rbp),%edx
    7df5:	8b 45 f8             	mov    -0x8(%rbp),%eax
    7df8:	89 c1                	mov    %eax,%ecx
    7dfa:	d3 e2                	shl    %cl,%edx
    7dfc:	89 d0                	mov    %edx,%eax
    7dfe:	eb 04                	jmp    7e04 <safe_lshift_func_uint16_t_u_s+0x46>
    7e00:	0f b7 45 fc          	movzwl -0x4(%rbp),%eax
    7e04:	5d                   	pop    %rbp
    7e05:	c3                   	retq   

0000000000007e06 <safe_lshift_func_uint16_t_u_u>:
    7e06:	f3 0f 1e fa          	endbr64 
    7e0a:	55                   	push   %rbp
    7e0b:	48 89 e5             	mov    %rsp,%rbp
    7e0e:	89 f8                	mov    %edi,%eax
    7e10:	89 75 f8             	mov    %esi,-0x8(%rbp)
    7e13:	66 89 45 fc          	mov    %ax,-0x4(%rbp)
    7e17:	83 7d f8 1f          	cmpl   $0x1f,-0x8(%rbp)
    7e1b:	77 25                	ja     7e42 <safe_lshift_func_uint16_t_u_u+0x3c>
    7e1d:	0f b7 55 fc          	movzwl -0x4(%rbp),%edx
    7e21:	8b 45 f8             	mov    -0x8(%rbp),%eax
    7e24:	be ff ff 00 00       	mov    $0xffff,%esi
    7e29:	89 c1                	mov    %eax,%ecx
    7e2b:	d3 fe                	sar    %cl,%esi
    7e2d:	89 f0                	mov    %esi,%eax
    7e2f:	39 c2                	cmp    %eax,%edx
    7e31:	7f 0f                	jg     7e42 <safe_lshift_func_uint16_t_u_u+0x3c>
    7e33:	0f b7 55 fc          	movzwl -0x4(%rbp),%edx
    7e37:	8b 45 f8             	mov    -0x8(%rbp),%eax
    7e3a:	89 c1                	mov    %eax,%ecx
    7e3c:	d3 e2                	shl    %cl,%edx
    7e3e:	89 d0                	mov    %edx,%eax
    7e40:	eb 04                	jmp    7e46 <safe_lshift_func_uint16_t_u_u+0x40>
    7e42:	0f b7 45 fc          	movzwl -0x4(%rbp),%eax
    7e46:	5d                   	pop    %rbp
    7e47:	c3                   	retq   

0000000000007e48 <safe_rshift_func_uint16_t_u_s>:
    7e48:	f3 0f 1e fa          	endbr64 
    7e4c:	55                   	push   %rbp
    7e4d:	48 89 e5             	mov    %rsp,%rbp
    7e50:	89 f8                	mov    %edi,%eax
    7e52:	89 75 f8             	mov    %esi,-0x8(%rbp)
    7e55:	66 89 45 fc          	mov    %ax,-0x4(%rbp)
    7e59:	83 7d f8 00          	cmpl   $0x0,-0x8(%rbp)
    7e5d:	78 15                	js     7e74 <safe_rshift_func_uint16_t_u_s+0x2c>
    7e5f:	83 7d f8 1f          	cmpl   $0x1f,-0x8(%rbp)
    7e63:	7f 0f                	jg     7e74 <safe_rshift_func_uint16_t_u_s+0x2c>
    7e65:	0f b7 55 fc          	movzwl -0x4(%rbp),%edx
    7e69:	8b 45 f8             	mov    -0x8(%rbp),%eax
    7e6c:	89 c1                	mov    %eax,%ecx
    7e6e:	d3 fa                	sar    %cl,%edx
    7e70:	89 d0                	mov    %edx,%eax
    7e72:	eb 04                	jmp    7e78 <safe_rshift_func_uint16_t_u_s+0x30>
    7e74:	0f b7 45 fc          	movzwl -0x4(%rbp),%eax
    7e78:	5d                   	pop    %rbp
    7e79:	c3                   	retq   

0000000000007e7a <safe_rshift_func_uint16_t_u_u>:
    7e7a:	f3 0f 1e fa          	endbr64 
    7e7e:	55                   	push   %rbp
    7e7f:	48 89 e5             	mov    %rsp,%rbp
    7e82:	89 f8                	mov    %edi,%eax
    7e84:	89 75 f8             	mov    %esi,-0x8(%rbp)
    7e87:	66 89 45 fc          	mov    %ax,-0x4(%rbp)
    7e8b:	83 7d f8 1f          	cmpl   $0x1f,-0x8(%rbp)
    7e8f:	77 0f                	ja     7ea0 <safe_rshift_func_uint16_t_u_u+0x26>
    7e91:	0f b7 55 fc          	movzwl -0x4(%rbp),%edx
    7e95:	8b 45 f8             	mov    -0x8(%rbp),%eax
    7e98:	89 c1                	mov    %eax,%ecx
    7e9a:	d3 fa                	sar    %cl,%edx
    7e9c:	89 d0                	mov    %edx,%eax
    7e9e:	eb 04                	jmp    7ea4 <safe_rshift_func_uint16_t_u_u+0x2a>
    7ea0:	0f b7 45 fc          	movzwl -0x4(%rbp),%eax
    7ea4:	5d                   	pop    %rbp
    7ea5:	c3                   	retq   

0000000000007ea6 <safe_unary_minus_func_uint32_t_u>:
    7ea6:	f3 0f 1e fa          	endbr64 
    7eaa:	55                   	push   %rbp
    7eab:	48 89 e5             	mov    %rsp,%rbp
    7eae:	89 7d fc             	mov    %edi,-0x4(%rbp)
    7eb1:	8b 45 fc             	mov    -0x4(%rbp),%eax
    7eb4:	f7 d8                	neg    %eax
    7eb6:	5d                   	pop    %rbp
    7eb7:	c3                   	retq   

0000000000007eb8 <safe_add_func_uint32_t_u_u>:
    7eb8:	f3 0f 1e fa          	endbr64 
    7ebc:	55                   	push   %rbp
    7ebd:	48 89 e5             	mov    %rsp,%rbp
    7ec0:	89 7d fc             	mov    %edi,-0x4(%rbp)
    7ec3:	89 75 f8             	mov    %esi,-0x8(%rbp)
    7ec6:	8b 55 fc             	mov    -0x4(%rbp),%edx
    7ec9:	8b 45 f8             	mov    -0x8(%rbp),%eax
    7ecc:	01 d0                	add    %edx,%eax
    7ece:	5d                   	pop    %rbp
    7ecf:	c3                   	retq   

0000000000007ed0 <safe_sub_func_uint32_t_u_u>:
    7ed0:	f3 0f 1e fa          	endbr64 
    7ed4:	55                   	push   %rbp
    7ed5:	48 89 e5             	mov    %rsp,%rbp
    7ed8:	89 7d fc             	mov    %edi,-0x4(%rbp)
    7edb:	89 75 f8             	mov    %esi,-0x8(%rbp)
    7ede:	8b 45 fc             	mov    -0x4(%rbp),%eax
    7ee1:	2b 45 f8             	sub    -0x8(%rbp),%eax
    7ee4:	5d                   	pop    %rbp
    7ee5:	c3                   	retq   

0000000000007ee6 <safe_mul_func_uint32_t_u_u>:
    7ee6:	f3 0f 1e fa          	endbr64 
    7eea:	55                   	push   %rbp
    7eeb:	48 89 e5             	mov    %rsp,%rbp
    7eee:	89 7d fc             	mov    %edi,-0x4(%rbp)
    7ef1:	89 75 f8             	mov    %esi,-0x8(%rbp)
    7ef4:	8b 45 fc             	mov    -0x4(%rbp),%eax
    7ef7:	0f af 45 f8          	imul   -0x8(%rbp),%eax
    7efb:	5d                   	pop    %rbp
    7efc:	c3                   	retq   

0000000000007efd <safe_mod_func_uint32_t_u_u>:
    7efd:	f3 0f 1e fa          	endbr64 
    7f01:	55                   	push   %rbp
    7f02:	48 89 e5             	mov    %rsp,%rbp
    7f05:	89 7d fc             	mov    %edi,-0x4(%rbp)
    7f08:	89 75 f8             	mov    %esi,-0x8(%rbp)
    7f0b:	83 7d f8 00          	cmpl   $0x0,-0x8(%rbp)
    7f0f:	74 0f                	je     7f20 <safe_mod_func_uint32_t_u_u+0x23>
    7f11:	8b 45 fc             	mov    -0x4(%rbp),%eax
    7f14:	ba 00 00 00 00       	mov    $0x0,%edx
    7f19:	f7 75 f8             	divl   -0x8(%rbp)
    7f1c:	89 d0                	mov    %edx,%eax
    7f1e:	eb 03                	jmp    7f23 <safe_mod_func_uint32_t_u_u+0x26>
    7f20:	8b 45 fc             	mov    -0x4(%rbp),%eax
    7f23:	5d                   	pop    %rbp
    7f24:	c3                   	retq   

0000000000007f25 <safe_div_func_uint32_t_u_u>:
    7f25:	f3 0f 1e fa          	endbr64 
    7f29:	55                   	push   %rbp
    7f2a:	48 89 e5             	mov    %rsp,%rbp
    7f2d:	89 7d fc             	mov    %edi,-0x4(%rbp)
    7f30:	89 75 f8             	mov    %esi,-0x8(%rbp)
    7f33:	83 7d f8 00          	cmpl   $0x0,-0x8(%rbp)
    7f37:	74 0d                	je     7f46 <safe_div_func_uint32_t_u_u+0x21>
    7f39:	8b 45 fc             	mov    -0x4(%rbp),%eax
    7f3c:	ba 00 00 00 00       	mov    $0x0,%edx
    7f41:	f7 75 f8             	divl   -0x8(%rbp)
    7f44:	eb 03                	jmp    7f49 <safe_div_func_uint32_t_u_u+0x24>
    7f46:	8b 45 fc             	mov    -0x4(%rbp),%eax
    7f49:	5d                   	pop    %rbp
    7f4a:	c3                   	retq   

0000000000007f4b <safe_lshift_func_uint32_t_u_s>:
    7f4b:	f3 0f 1e fa          	endbr64 
    7f4f:	55                   	push   %rbp
    7f50:	48 89 e5             	mov    %rsp,%rbp
    7f53:	89 7d fc             	mov    %edi,-0x4(%rbp)
    7f56:	89 75 f8             	mov    %esi,-0x8(%rbp)
    7f59:	83 7d f8 00          	cmpl   $0x0,-0x8(%rbp)
    7f5d:	78 27                	js     7f86 <safe_lshift_func_uint32_t_u_s+0x3b>
    7f5f:	83 7d f8 1f          	cmpl   $0x1f,-0x8(%rbp)
    7f63:	7f 21                	jg     7f86 <safe_lshift_func_uint32_t_u_s+0x3b>
    7f65:	8b 45 f8             	mov    -0x8(%rbp),%eax
    7f68:	ba ff ff ff ff       	mov    $0xffffffff,%edx
    7f6d:	89 c1                	mov    %eax,%ecx
    7f6f:	d3 ea                	shr    %cl,%edx
    7f71:	89 d0                	mov    %edx,%eax
    7f73:	39 45 fc             	cmp    %eax,-0x4(%rbp)
    7f76:	77 0e                	ja     7f86 <safe_lshift_func_uint32_t_u_s+0x3b>
    7f78:	8b 45 f8             	mov    -0x8(%rbp),%eax
    7f7b:	8b 55 fc             	mov    -0x4(%rbp),%edx
    7f7e:	89 c1                	mov    %eax,%ecx
    7f80:	d3 e2                	shl    %cl,%edx
    7f82:	89 d0                	mov    %edx,%eax
    7f84:	eb 03                	jmp    7f89 <safe_lshift_func_uint32_t_u_s+0x3e>
    7f86:	8b 45 fc             	mov    -0x4(%rbp),%eax
    7f89:	5d                   	pop    %rbp
    7f8a:	c3                   	retq   

0000000000007f8b <safe_lshift_func_uint32_t_u_u>:
    7f8b:	f3 0f 1e fa          	endbr64 
    7f8f:	55                   	push   %rbp
    7f90:	48 89 e5             	mov    %rsp,%rbp
    7f93:	89 7d fc             	mov    %edi,-0x4(%rbp)
    7f96:	89 75 f8             	mov    %esi,-0x8(%rbp)
    7f99:	83 7d f8 1f          	cmpl   $0x1f,-0x8(%rbp)
    7f9d:	77 21                	ja     7fc0 <safe_lshift_func_uint32_t_u_u+0x35>
    7f9f:	8b 45 f8             	mov    -0x8(%rbp),%eax
    7fa2:	ba ff ff ff ff       	mov    $0xffffffff,%edx
    7fa7:	89 c1                	mov    %eax,%ecx
    7fa9:	d3 ea                	shr    %cl,%edx
    7fab:	89 d0                	mov    %edx,%eax
    7fad:	39 45 fc             	cmp    %eax,-0x4(%rbp)
    7fb0:	77 0e                	ja     7fc0 <safe_lshift_func_uint32_t_u_u+0x35>
    7fb2:	8b 45 f8             	mov    -0x8(%rbp),%eax
    7fb5:	8b 55 fc             	mov    -0x4(%rbp),%edx
    7fb8:	89 c1                	mov    %eax,%ecx
    7fba:	d3 e2                	shl    %cl,%edx
    7fbc:	89 d0                	mov    %edx,%eax
    7fbe:	eb 03                	jmp    7fc3 <safe_lshift_func_uint32_t_u_u+0x38>
    7fc0:	8b 45 fc             	mov    -0x4(%rbp),%eax
    7fc3:	5d                   	pop    %rbp
    7fc4:	c3                   	retq   

0000000000007fc5 <safe_rshift_func_uint32_t_u_s>:
    7fc5:	f3 0f 1e fa          	endbr64 
    7fc9:	55                   	push   %rbp
    7fca:	48 89 e5             	mov    %rsp,%rbp
    7fcd:	89 7d fc             	mov    %edi,-0x4(%rbp)
    7fd0:	89 75 f8             	mov    %esi,-0x8(%rbp)
    7fd3:	83 7d f8 00          	cmpl   $0x0,-0x8(%rbp)
    7fd7:	78 14                	js     7fed <safe_rshift_func_uint32_t_u_s+0x28>
    7fd9:	83 7d f8 1f          	cmpl   $0x1f,-0x8(%rbp)
    7fdd:	7f 0e                	jg     7fed <safe_rshift_func_uint32_t_u_s+0x28>
    7fdf:	8b 45 f8             	mov    -0x8(%rbp),%eax
    7fe2:	8b 55 fc             	mov    -0x4(%rbp),%edx
    7fe5:	89 c1                	mov    %eax,%ecx
    7fe7:	d3 ea                	shr    %cl,%edx
    7fe9:	89 d0                	mov    %edx,%eax
    7feb:	eb 03                	jmp    7ff0 <safe_rshift_func_uint32_t_u_s+0x2b>
    7fed:	8b 45 fc             	mov    -0x4(%rbp),%eax
    7ff0:	5d                   	pop    %rbp
    7ff1:	c3                   	retq   

0000000000007ff2 <safe_rshift_func_uint32_t_u_u>:
    7ff2:	f3 0f 1e fa          	endbr64 
    7ff6:	55                   	push   %rbp
    7ff7:	48 89 e5             	mov    %rsp,%rbp
    7ffa:	89 7d fc             	mov    %edi,-0x4(%rbp)
    7ffd:	89 75 f8             	mov    %esi,-0x8(%rbp)
    8000:	83 7d f8 1f          	cmpl   $0x1f,-0x8(%rbp)
    8004:	77 0e                	ja     8014 <safe_rshift_func_uint32_t_u_u+0x22>
    8006:	8b 45 f8             	mov    -0x8(%rbp),%eax
    8009:	8b 55 fc             	mov    -0x4(%rbp),%edx
    800c:	89 c1                	mov    %eax,%ecx
    800e:	d3 ea                	shr    %cl,%edx
    8010:	89 d0                	mov    %edx,%eax
    8012:	eb 03                	jmp    8017 <safe_rshift_func_uint32_t_u_u+0x25>
    8014:	8b 45 fc             	mov    -0x4(%rbp),%eax
    8017:	5d                   	pop    %rbp
    8018:	c3                   	retq   

0000000000008019 <safe_unary_minus_func_uint64_t_u>:
    8019:	f3 0f 1e fa          	endbr64 
    801d:	55                   	push   %rbp
    801e:	48 89 e5             	mov    %rsp,%rbp
    8021:	48 89 7d f8          	mov    %rdi,-0x8(%rbp)
    8025:	48 8b 45 f8          	mov    -0x8(%rbp),%rax
    8029:	48 f7 d8             	neg    %rax
    802c:	5d                   	pop    %rbp
    802d:	c3                   	retq   

000000000000802e <safe_add_func_uint64_t_u_u>:
    802e:	f3 0f 1e fa          	endbr64 
    8032:	55                   	push   %rbp
    8033:	48 89 e5             	mov    %rsp,%rbp
    8036:	48 89 7d f8          	mov    %rdi,-0x8(%rbp)
    803a:	48 89 75 f0          	mov    %rsi,-0x10(%rbp)
    803e:	48 8b 55 f8          	mov    -0x8(%rbp),%rdx
    8042:	48 8b 45 f0          	mov    -0x10(%rbp),%rax
    8046:	48 01 d0             	add    %rdx,%rax
    8049:	5d                   	pop    %rbp
    804a:	c3                   	retq   

000000000000804b <safe_sub_func_uint64_t_u_u>:
    804b:	f3 0f 1e fa          	endbr64 
    804f:	55                   	push   %rbp
    8050:	48 89 e5             	mov    %rsp,%rbp
    8053:	48 89 7d f8          	mov    %rdi,-0x8(%rbp)
    8057:	48 89 75 f0          	mov    %rsi,-0x10(%rbp)
    805b:	48 8b 45 f8          	mov    -0x8(%rbp),%rax
    805f:	48 2b 45 f0          	sub    -0x10(%rbp),%rax
    8063:	5d                   	pop    %rbp
    8064:	c3                   	retq   

0000000000008065 <safe_mul_func_uint64_t_u_u>:
    8065:	f3 0f 1e fa          	endbr64 
    8069:	55                   	push   %rbp
    806a:	48 89 e5             	mov    %rsp,%rbp
    806d:	48 89 7d f8          	mov    %rdi,-0x8(%rbp)
    8071:	48 89 75 f0          	mov    %rsi,-0x10(%rbp)
    8075:	48 8b 45 f8          	mov    -0x8(%rbp),%rax
    8079:	48 0f af 45 f0       	imul   -0x10(%rbp),%rax
    807e:	5d                   	pop    %rbp
    807f:	c3                   	retq   

0000000000008080 <safe_mod_func_uint64_t_u_u>:
    8080:	f3 0f 1e fa          	endbr64 
    8084:	55                   	push   %rbp
    8085:	48 89 e5             	mov    %rsp,%rbp
    8088:	48 89 7d f8          	mov    %rdi,-0x8(%rbp)
    808c:	48 89 75 f0          	mov    %rsi,-0x10(%rbp)
    8090:	48 83 7d f0 00       	cmpq   $0x0,-0x10(%rbp)
    8095:	74 12                	je     80a9 <safe_mod_func_uint64_t_u_u+0x29>
    8097:	48 8b 45 f8          	mov    -0x8(%rbp),%rax
    809b:	ba 00 00 00 00       	mov    $0x0,%edx
    80a0:	48 f7 75 f0          	divq   -0x10(%rbp)
    80a4:	48 89 d0             	mov    %rdx,%rax
    80a7:	eb 04                	jmp    80ad <safe_mod_func_uint64_t_u_u+0x2d>
    80a9:	48 8b 45 f8          	mov    -0x8(%rbp),%rax
    80ad:	5d                   	pop    %rbp
    80ae:	c3                   	retq   

00000000000080af <safe_div_func_uint64_t_u_u>:
    80af:	f3 0f 1e fa          	endbr64 
    80b3:	55                   	push   %rbp
    80b4:	48 89 e5             	mov    %rsp,%rbp
    80b7:	48 89 7d f8          	mov    %rdi,-0x8(%rbp)
    80bb:	48 89 75 f0          	mov    %rsi,-0x10(%rbp)
    80bf:	48 83 7d f0 00       	cmpq   $0x0,-0x10(%rbp)
    80c4:	74 0f                	je     80d5 <safe_div_func_uint64_t_u_u+0x26>
    80c6:	48 8b 45 f8          	mov    -0x8(%rbp),%rax
    80ca:	ba 00 00 00 00       	mov    $0x0,%edx
    80cf:	48 f7 75 f0          	divq   -0x10(%rbp)
    80d3:	eb 04                	jmp    80d9 <safe_div_func_uint64_t_u_u+0x2a>
    80d5:	48 8b 45 f8          	mov    -0x8(%rbp),%rax
    80d9:	5d                   	pop    %rbp
    80da:	c3                   	retq   

00000000000080db <safe_lshift_func_uint64_t_u_s>:
    80db:	f3 0f 1e fa          	endbr64 
    80df:	55                   	push   %rbp
    80e0:	48 89 e5             	mov    %rsp,%rbp
    80e3:	48 89 7d f8          	mov    %rdi,-0x8(%rbp)
    80e7:	89 75 f4             	mov    %esi,-0xc(%rbp)
    80ea:	83 7d f4 00          	cmpl   $0x0,-0xc(%rbp)
    80ee:	78 2f                	js     811f <safe_lshift_func_uint64_t_u_s+0x44>
    80f0:	83 7d f4 1f          	cmpl   $0x1f,-0xc(%rbp)
    80f4:	7f 29                	jg     811f <safe_lshift_func_uint64_t_u_s+0x44>
    80f6:	8b 45 f4             	mov    -0xc(%rbp),%eax
    80f9:	48 c7 c2 ff ff ff ff 	mov    $0xffffffffffffffff,%rdx
    8100:	89 c1                	mov    %eax,%ecx
    8102:	48 d3 ea             	shr    %cl,%rdx
    8105:	48 89 d0             	mov    %rdx,%rax
    8108:	48 39 45 f8          	cmp    %rax,-0x8(%rbp)
    810c:	77 11                	ja     811f <safe_lshift_func_uint64_t_u_s+0x44>
    810e:	8b 45 f4             	mov    -0xc(%rbp),%eax
    8111:	48 8b 55 f8          	mov    -0x8(%rbp),%rdx
    8115:	89 c1                	mov    %eax,%ecx
    8117:	48 d3 e2             	shl    %cl,%rdx
    811a:	48 89 d0             	mov    %rdx,%rax
    811d:	eb 04                	jmp    8123 <safe_lshift_func_uint64_t_u_s+0x48>
    811f:	48 8b 45 f8          	mov    -0x8(%rbp),%rax
    8123:	5d                   	pop    %rbp
    8124:	c3                   	retq   

0000000000008125 <safe_lshift_func_uint64_t_u_u>:
    8125:	f3 0f 1e fa          	endbr64 
    8129:	55                   	push   %rbp
    812a:	48 89 e5             	mov    %rsp,%rbp
    812d:	48 89 7d f8          	mov    %rdi,-0x8(%rbp)
    8131:	89 75 f4             	mov    %esi,-0xc(%rbp)
    8134:	83 7d f4 1f          	cmpl   $0x1f,-0xc(%rbp)
    8138:	77 29                	ja     8163 <safe_lshift_func_uint64_t_u_u+0x3e>
    813a:	8b 45 f4             	mov    -0xc(%rbp),%eax
    813d:	48 c7 c2 ff ff ff ff 	mov    $0xffffffffffffffff,%rdx
    8144:	89 c1                	mov    %eax,%ecx
    8146:	48 d3 ea             	shr    %cl,%rdx
    8149:	48 89 d0             	mov    %rdx,%rax
    814c:	48 39 45 f8          	cmp    %rax,-0x8(%rbp)
    8150:	77 11                	ja     8163 <safe_lshift_func_uint64_t_u_u+0x3e>
    8152:	8b 45 f4             	mov    -0xc(%rbp),%eax
    8155:	48 8b 55 f8          	mov    -0x8(%rbp),%rdx
    8159:	89 c1                	mov    %eax,%ecx
    815b:	48 d3 e2             	shl    %cl,%rdx
    815e:	48 89 d0             	mov    %rdx,%rax
    8161:	eb 04                	jmp    8167 <safe_lshift_func_uint64_t_u_u+0x42>
    8163:	48 8b 45 f8          	mov    -0x8(%rbp),%rax
    8167:	5d                   	pop    %rbp
    8168:	c3                   	retq   

0000000000008169 <safe_rshift_func_uint64_t_u_s>:
    8169:	f3 0f 1e fa          	endbr64 
    816d:	55                   	push   %rbp
    816e:	48 89 e5             	mov    %rsp,%rbp
    8171:	48 89 7d f8          	mov    %rdi,-0x8(%rbp)
    8175:	89 75 f4             	mov    %esi,-0xc(%rbp)
    8178:	83 7d f4 00          	cmpl   $0x0,-0xc(%rbp)
    817c:	78 17                	js     8195 <safe_rshift_func_uint64_t_u_s+0x2c>
    817e:	83 7d f4 1f          	cmpl   $0x1f,-0xc(%rbp)
    8182:	7f 11                	jg     8195 <safe_rshift_func_uint64_t_u_s+0x2c>
    8184:	8b 45 f4             	mov    -0xc(%rbp),%eax
    8187:	48 8b 55 f8          	mov    -0x8(%rbp),%rdx
    818b:	89 c1                	mov    %eax,%ecx
    818d:	48 d3 ea             	shr    %cl,%rdx
    8190:	48 89 d0             	mov    %rdx,%rax
    8193:	eb 04                	jmp    8199 <safe_rshift_func_uint64_t_u_s+0x30>
    8195:	48 8b 45 f8          	mov    -0x8(%rbp),%rax
    8199:	5d                   	pop    %rbp
    819a:	c3                   	retq   

000000000000819b <safe_rshift_func_uint64_t_u_u>:
    819b:	f3 0f 1e fa          	endbr64 
    819f:	55                   	push   %rbp
    81a0:	48 89 e5             	mov    %rsp,%rbp
    81a3:	48 89 7d f8          	mov    %rdi,-0x8(%rbp)
    81a7:	89 75 f4             	mov    %esi,-0xc(%rbp)
    81aa:	83 7d f4 1f          	cmpl   $0x1f,-0xc(%rbp)
    81ae:	77 11                	ja     81c1 <safe_rshift_func_uint64_t_u_u+0x26>
    81b0:	8b 45 f4             	mov    -0xc(%rbp),%eax
    81b3:	48 8b 55 f8          	mov    -0x8(%rbp),%rdx
    81b7:	89 c1                	mov    %eax,%ecx
    81b9:	48 d3 ea             	shr    %cl,%rdx
    81bc:	48 89 d0             	mov    %rdx,%rax
    81bf:	eb 04                	jmp    81c5 <safe_rshift_func_uint64_t_u_u+0x2a>
    81c1:	48 8b 45 f8          	mov    -0x8(%rbp),%rax
    81c5:	5d                   	pop    %rbp
    81c6:	c3                   	retq   

00000000000081c7 <safe_add_func_float_f_f>:
    81c7:	f3 0f 1e fa          	endbr64 
    81cb:	55                   	push   %rbp
    81cc:	48 89 e5             	mov    %rsp,%rbp
    81cf:	f3 0f 11 45 fc       	movss  %xmm0,-0x4(%rbp)
    81d4:	f3 0f 11 4d f8       	movss  %xmm1,-0x8(%rbp)
    81d9:	f3 0f 10 4d fc       	movss  -0x4(%rbp),%xmm1
    81de:	f3 0f 10 05 c6 16 01 	movss  0x116c6(%rip),%xmm0        # 198ac <g_1645+0x182c>
    81e5:	00 
    81e6:	f3 0f 59 c8          	mulss  %xmm0,%xmm1
    81ea:	f3 0f 10 55 f8       	movss  -0x8(%rbp),%xmm2
    81ef:	f3 0f 10 05 b5 16 01 	movss  0x116b5(%rip),%xmm0        # 198ac <g_1645+0x182c>
    81f6:	00 
    81f7:	f3 0f 59 c2          	mulss  %xmm2,%xmm0
    81fb:	f3 0f 58 c1          	addss  %xmm1,%xmm0
    81ff:	f3 0f 10 0d a9 16 01 	movss  0x116a9(%rip),%xmm1        # 198b0 <g_1645+0x1830>
    8206:	00 
    8207:	0f 54 c1             	andps  %xmm1,%xmm0
    820a:	0f 2f 05 af 16 01 00 	comiss 0x116af(%rip),%xmm0        # 198c0 <g_1645+0x1840>
    8211:	76 07                	jbe    821a <safe_add_func_float_f_f+0x53>
    8213:	f3 0f 10 45 fc       	movss  -0x4(%rbp),%xmm0
    8218:	eb 0a                	jmp    8224 <safe_add_func_float_f_f+0x5d>
    821a:	f3 0f 10 45 fc       	movss  -0x4(%rbp),%xmm0
    821f:	f3 0f 58 45 f8       	addss  -0x8(%rbp),%xmm0
    8224:	5d                   	pop    %rbp
    8225:	c3                   	retq   

0000000000008226 <safe_sub_func_float_f_f>:
    8226:	f3 0f 1e fa          	endbr64 
    822a:	55                   	push   %rbp
    822b:	48 89 e5             	mov    %rsp,%rbp
    822e:	f3 0f 11 45 fc       	movss  %xmm0,-0x4(%rbp)
    8233:	f3 0f 11 4d f8       	movss  %xmm1,-0x8(%rbp)
    8238:	f3 0f 10 4d fc       	movss  -0x4(%rbp),%xmm1
    823d:	f3 0f 10 05 67 16 01 	movss  0x11667(%rip),%xmm0        # 198ac <g_1645+0x182c>
    8244:	00 
    8245:	f3 0f 59 c1          	mulss  %xmm1,%xmm0
    8249:	f3 0f 10 55 f8       	movss  -0x8(%rbp),%xmm2
    824e:	f3 0f 10 0d 56 16 01 	movss  0x11656(%rip),%xmm1        # 198ac <g_1645+0x182c>
    8255:	00 
    8256:	f3 0f 59 ca          	mulss  %xmm2,%xmm1
    825a:	f3 0f 5c c1          	subss  %xmm1,%xmm0
    825e:	f3 0f 10 0d 4a 16 01 	movss  0x1164a(%rip),%xmm1        # 198b0 <g_1645+0x1830>
    8265:	00 
    8266:	0f 54 c1             	andps  %xmm1,%xmm0
    8269:	0f 2f 05 50 16 01 00 	comiss 0x11650(%rip),%xmm0        # 198c0 <g_1645+0x1840>
    8270:	76 07                	jbe    8279 <safe_sub_func_float_f_f+0x53>
    8272:	f3 0f 10 45 fc       	movss  -0x4(%rbp),%xmm0
    8277:	eb 0a                	jmp    8283 <safe_sub_func_float_f_f+0x5d>
    8279:	f3 0f 10 45 fc       	movss  -0x4(%rbp),%xmm0
    827e:	f3 0f 5c 45 f8       	subss  -0x8(%rbp),%xmm0
    8283:	5d                   	pop    %rbp
    8284:	c3                   	retq   

0000000000008285 <safe_mul_func_float_f_f>:
    8285:	f3 0f 1e fa          	endbr64 
    8289:	55                   	push   %rbp
    828a:	48 89 e5             	mov    %rsp,%rbp
    828d:	f3 0f 11 45 fc       	movss  %xmm0,-0x4(%rbp)
    8292:	f3 0f 11 4d f8       	movss  %xmm1,-0x8(%rbp)
    8297:	f3 0f 10 4d fc       	movss  -0x4(%rbp),%xmm1
    829c:	f3 0f 10 05 20 16 01 	movss  0x11620(%rip),%xmm0        # 198c4 <g_1645+0x1844>
    82a3:	00 
    82a4:	f3 0f 59 c8          	mulss  %xmm0,%xmm1
    82a8:	f3 0f 10 55 f8       	movss  -0x8(%rbp),%xmm2
    82ad:	f3 0f 10 05 13 16 01 	movss  0x11613(%rip),%xmm0        # 198c8 <g_1645+0x1848>
    82b4:	00 
    82b5:	f3 0f 59 c2          	mulss  %xmm2,%xmm0
    82b9:	f3 0f 59 c1          	mulss  %xmm1,%xmm0
    82bd:	f3 0f 10 0d eb 15 01 	movss  0x115eb(%rip),%xmm1        # 198b0 <g_1645+0x1830>
    82c4:	00 
    82c5:	0f 54 c1             	andps  %xmm1,%xmm0
    82c8:	0f 2f 05 fd 15 01 00 	comiss 0x115fd(%rip),%xmm0        # 198cc <g_1645+0x184c>
    82cf:	76 07                	jbe    82d8 <safe_mul_func_float_f_f+0x53>
    82d1:	f3 0f 10 45 fc       	movss  -0x4(%rbp),%xmm0
    82d6:	eb 0a                	jmp    82e2 <safe_mul_func_float_f_f+0x5d>
    82d8:	f3 0f 10 45 fc       	movss  -0x4(%rbp),%xmm0
    82dd:	f3 0f 59 45 f8       	mulss  -0x8(%rbp),%xmm0
    82e2:	5d                   	pop    %rbp
    82e3:	c3                   	retq   

00000000000082e4 <safe_div_func_float_f_f>:
    82e4:	f3 0f 1e fa          	endbr64 
    82e8:	55                   	push   %rbp
    82e9:	48 89 e5             	mov    %rsp,%rbp
    82ec:	f3 0f 11 45 fc       	movss  %xmm0,-0x4(%rbp)
    82f1:	f3 0f 11 4d f8       	movss  %xmm1,-0x8(%rbp)
    82f6:	f3 0f 10 45 f8       	movss  -0x8(%rbp),%xmm0
    82fb:	f3 0f 10 0d ad 15 01 	movss  0x115ad(%rip),%xmm1        # 198b0 <g_1645+0x1830>
    8302:	00 
    8303:	0f 54 c8             	andps  %xmm0,%xmm1
    8306:	f3 0f 10 05 c2 15 01 	movss  0x115c2(%rip),%xmm0        # 198d0 <g_1645+0x1850>
    830d:	00 
    830e:	0f 2f c1             	comiss %xmm1,%xmm0
    8311:	0f 97 c0             	seta   %al
    8314:	83 f0 01             	xor    $0x1,%eax
    8317:	84 c0                	test   %al,%al
    8319:	75 56                	jne    8371 <safe_div_func_float_f_f+0x8d>
    831b:	66 0f ef c0          	pxor   %xmm0,%xmm0
    831f:	0f 2e 45 f8          	ucomiss -0x8(%rbp),%xmm0
    8323:	7a 0a                	jp     832f <safe_div_func_float_f_f+0x4b>
    8325:	66 0f ef c0          	pxor   %xmm0,%xmm0
    8329:	0f 2e 45 f8          	ucomiss -0x8(%rbp),%xmm0
    832d:	74 4e                	je     837d <safe_div_func_float_f_f+0x99>
    832f:	f3 0f 10 4d fc       	movss  -0x4(%rbp),%xmm1
    8334:	f3 0f 10 05 98 15 01 	movss  0x11598(%rip),%xmm0        # 198d4 <g_1645+0x1854>
    833b:	00 
    833c:	f3 0f 59 c1          	mulss  %xmm1,%xmm0
    8340:	f3 0f 10 55 f8       	movss  -0x8(%rbp),%xmm2
    8345:	f3 0f 10 0d 8b 15 01 	movss  0x1158b(%rip),%xmm1        # 198d8 <g_1645+0x1858>
    834c:	00 
    834d:	f3 0f 59 ca          	mulss  %xmm2,%xmm1
    8351:	f3 0f 5e c1          	divss  %xmm1,%xmm0
    8355:	f3 0f 10 0d 53 15 01 	movss  0x11553(%rip),%xmm1        # 198b0 <g_1645+0x1830>
    835c:	00 
    835d:	0f 54 c1             	andps  %xmm1,%xmm0
    8360:	0f 2f 05 75 15 01 00 	comiss 0x11575(%rip),%xmm0        # 198dc <g_1645+0x185c>
    8367:	0f 97 c0             	seta   %al
    836a:	83 f0 01             	xor    $0x1,%eax
    836d:	84 c0                	test   %al,%al
    836f:	74 0c                	je     837d <safe_div_func_float_f_f+0x99>
    8371:	f3 0f 10 45 fc       	movss  -0x4(%rbp),%xmm0
    8376:	f3 0f 5e 45 f8       	divss  -0x8(%rbp),%xmm0
    837b:	eb 05                	jmp    8382 <safe_div_func_float_f_f+0x9e>
    837d:	f3 0f 10 45 fc       	movss  -0x4(%rbp),%xmm0
    8382:	5d                   	pop    %rbp
    8383:	c3                   	retq   

0000000000008384 <safe_add_func_double_f_f>:
    8384:	f3 0f 1e fa          	endbr64 
    8388:	55                   	push   %rbp
    8389:	48 89 e5             	mov    %rsp,%rbp
    838c:	f2 0f 11 45 f8       	movsd  %xmm0,-0x8(%rbp)
    8391:	f2 0f 11 4d f0       	movsd  %xmm1,-0x10(%rbp)
    8396:	f2 0f 10 4d f8       	movsd  -0x8(%rbp),%xmm1
    839b:	f2 0f 10 05 3d 15 01 	movsd  0x1153d(%rip),%xmm0        # 198e0 <g_1645+0x1860>
    83a2:	00 
    83a3:	f2 0f 59 c8          	mulsd  %xmm0,%xmm1
    83a7:	f2 0f 10 55 f0       	movsd  -0x10(%rbp),%xmm2
    83ac:	f2 0f 10 05 2c 15 01 	movsd  0x1152c(%rip),%xmm0        # 198e0 <g_1645+0x1860>
    83b3:	00 
    83b4:	f2 0f 59 c2          	mulsd  %xmm2,%xmm0
    83b8:	f2 0f 58 c1          	addsd  %xmm1,%xmm0
    83bc:	f3 0f 7e 0d 2c 15 01 	movq   0x1152c(%rip),%xmm1        # 198f0 <g_1645+0x1870>
    83c3:	00 
    83c4:	66 0f 54 c1          	andpd  %xmm1,%xmm0
    83c8:	66 0f 2f 05 30 15 01 	comisd 0x11530(%rip),%xmm0        # 19900 <g_1645+0x1880>
    83cf:	00 
    83d0:	76 07                	jbe    83d9 <safe_add_func_double_f_f+0x55>
    83d2:	f2 0f 10 45 f8       	movsd  -0x8(%rbp),%xmm0
    83d7:	eb 0a                	jmp    83e3 <safe_add_func_double_f_f+0x5f>
    83d9:	f2 0f 10 45 f8       	movsd  -0x8(%rbp),%xmm0
    83de:	f2 0f 58 45 f0       	addsd  -0x10(%rbp),%xmm0
    83e3:	5d                   	pop    %rbp
    83e4:	c3                   	retq   

00000000000083e5 <safe_sub_func_double_f_f>:
    83e5:	f3 0f 1e fa          	endbr64 
    83e9:	55                   	push   %rbp
    83ea:	48 89 e5             	mov    %rsp,%rbp
    83ed:	f2 0f 11 45 f8       	movsd  %xmm0,-0x8(%rbp)
    83f2:	f2 0f 11 4d f0       	movsd  %xmm1,-0x10(%rbp)
    83f7:	f2 0f 10 4d f8       	movsd  -0x8(%rbp),%xmm1
    83fc:	f2 0f 10 05 dc 14 01 	movsd  0x114dc(%rip),%xmm0        # 198e0 <g_1645+0x1860>
    8403:	00 
    8404:	f2 0f 59 c1          	mulsd  %xmm1,%xmm0
    8408:	f2 0f 10 55 f0       	movsd  -0x10(%rbp),%xmm2
    840d:	f2 0f 10 0d cb 14 01 	movsd  0x114cb(%rip),%xmm1        # 198e0 <g_1645+0x1860>
    8414:	00 
    8415:	f2 0f 59 ca          	mulsd  %xmm2,%xmm1
    8419:	f2 0f 5c c1          	subsd  %xmm1,%xmm0
    841d:	f3 0f 7e 0d cb 14 01 	movq   0x114cb(%rip),%xmm1        # 198f0 <g_1645+0x1870>
    8424:	00 
    8425:	66 0f 54 c1          	andpd  %xmm1,%xmm0
    8429:	66 0f 2f 05 cf 14 01 	comisd 0x114cf(%rip),%xmm0        # 19900 <g_1645+0x1880>
    8430:	00 
    8431:	76 07                	jbe    843a <safe_sub_func_double_f_f+0x55>
    8433:	f2 0f 10 45 f8       	movsd  -0x8(%rbp),%xmm0
    8438:	eb 0a                	jmp    8444 <safe_sub_func_double_f_f+0x5f>
    843a:	f2 0f 10 45 f8       	movsd  -0x8(%rbp),%xmm0
    843f:	f2 0f 5c 45 f0       	subsd  -0x10(%rbp),%xmm0
    8444:	5d                   	pop    %rbp
    8445:	c3                   	retq   

0000000000008446 <safe_mul_func_double_f_f>:
    8446:	f3 0f 1e fa          	endbr64 
    844a:	55                   	push   %rbp
    844b:	48 89 e5             	mov    %rsp,%rbp
    844e:	f2 0f 11 45 f8       	movsd  %xmm0,-0x8(%rbp)
    8453:	f2 0f 11 4d f0       	movsd  %xmm1,-0x10(%rbp)
    8458:	f2 0f 10 4d f8       	movsd  -0x8(%rbp),%xmm1
    845d:	f2 0f 10 05 a3 14 01 	movsd  0x114a3(%rip),%xmm0        # 19908 <g_1645+0x1888>
    8464:	00 
    8465:	f2 0f 59 c8          	mulsd  %xmm0,%xmm1
    8469:	f2 0f 10 55 f0       	movsd  -0x10(%rbp),%xmm2
    846e:	f2 0f 10 05 9a 14 01 	movsd  0x1149a(%rip),%xmm0        # 19910 <g_1645+0x1890>
    8475:	00 
    8476:	f2 0f 59 c2          	mulsd  %xmm2,%xmm0
    847a:	f2 0f 59 c1          	mulsd  %xmm1,%xmm0
    847e:	f3 0f 7e 0d 6a 14 01 	movq   0x1146a(%rip),%xmm1        # 198f0 <g_1645+0x1870>
    8485:	00 
    8486:	66 0f 54 c1          	andpd  %xmm1,%xmm0
    848a:	66 0f 2f 05 86 14 01 	comisd 0x11486(%rip),%xmm0        # 19918 <g_1645+0x1898>
    8491:	00 
    8492:	76 07                	jbe    849b <safe_mul_func_double_f_f+0x55>
    8494:	f2 0f 10 45 f8       	movsd  -0x8(%rbp),%xmm0
    8499:	eb 0a                	jmp    84a5 <safe_mul_func_double_f_f+0x5f>
    849b:	f2 0f 10 45 f8       	movsd  -0x8(%rbp),%xmm0
    84a0:	f2 0f 59 45 f0       	mulsd  -0x10(%rbp),%xmm0
    84a5:	5d                   	pop    %rbp
    84a6:	c3                   	retq   

00000000000084a7 <safe_div_func_double_f_f>:
    84a7:	f3 0f 1e fa          	endbr64 
    84ab:	55                   	push   %rbp
    84ac:	48 89 e5             	mov    %rsp,%rbp
    84af:	f2 0f 11 45 f8       	movsd  %xmm0,-0x8(%rbp)
    84b4:	f2 0f 11 4d f0       	movsd  %xmm1,-0x10(%rbp)
    84b9:	f2 0f 10 45 f0       	movsd  -0x10(%rbp),%xmm0
    84be:	f3 0f 7e 0d 2a 14 01 	movq   0x1142a(%rip),%xmm1        # 198f0 <g_1645+0x1870>
    84c5:	00 
    84c6:	66 0f 54 c8          	andpd  %xmm0,%xmm1
    84ca:	f2 0f 10 05 4e 14 01 	movsd  0x1144e(%rip),%xmm0        # 19920 <g_1645+0x18a0>
    84d1:	00 
    84d2:	66 0f 2f c1          	comisd %xmm1,%xmm0
    84d6:	0f 97 c0             	seta   %al
    84d9:	83 f0 01             	xor    $0x1,%eax
    84dc:	84 c0                	test   %al,%al
    84de:	75 5a                	jne    853a <safe_div_func_double_f_f+0x93>
    84e0:	66 0f ef c0          	pxor   %xmm0,%xmm0
    84e4:	66 0f 2e 45 f0       	ucomisd -0x10(%rbp),%xmm0
    84e9:	7a 0b                	jp     84f6 <safe_div_func_double_f_f+0x4f>
    84eb:	66 0f ef c0          	pxor   %xmm0,%xmm0
    84ef:	66 0f 2e 45 f0       	ucomisd -0x10(%rbp),%xmm0
    84f4:	74 50                	je     8546 <safe_div_func_double_f_f+0x9f>
    84f6:	f2 0f 10 4d f8       	movsd  -0x8(%rbp),%xmm1
    84fb:	f2 0f 10 05 25 14 01 	movsd  0x11425(%rip),%xmm0        # 19928 <g_1645+0x18a8>
    8502:	00 
    8503:	f2 0f 59 c1          	mulsd  %xmm1,%xmm0
    8507:	f2 0f 10 55 f0       	movsd  -0x10(%rbp),%xmm2
    850c:	f2 0f 10 0d 1c 14 01 	movsd  0x1141c(%rip),%xmm1        # 19930 <g_1645+0x18b0>
    8513:	00 
    8514:	f2 0f 59 ca          	mulsd  %xmm2,%xmm1
    8518:	f2 0f 5e c1          	divsd  %xmm1,%xmm0
    851c:	f3 0f 7e 0d cc 13 01 	movq   0x113cc(%rip),%xmm1        # 198f0 <g_1645+0x1870>
    8523:	00 
    8524:	66 0f 54 c1          	andpd  %xmm1,%xmm0
    8528:	66 0f 2f 05 08 14 01 	comisd 0x11408(%rip),%xmm0        # 19938 <g_1645+0x18b8>
    852f:	00 
    8530:	0f 97 c0             	seta   %al
    8533:	83 f0 01             	xor    $0x1,%eax
    8536:	84 c0                	test   %al,%al
    8538:	74 0c                	je     8546 <safe_div_func_double_f_f+0x9f>
    853a:	f2 0f 10 45 f8       	movsd  -0x8(%rbp),%xmm0
    853f:	f2 0f 5e 45 f0       	divsd  -0x10(%rbp),%xmm0
    8544:	eb 05                	jmp    854b <safe_div_func_double_f_f+0xa4>
    8546:	f2 0f 10 45 f8       	movsd  -0x8(%rbp),%xmm0
    854b:	5d                   	pop    %rbp
    854c:	c3                   	retq   

000000000000854d <safe_convert_func_float_to_int32_t>:
    854d:	f3 0f 1e fa          	endbr64 
    8551:	55                   	push   %rbp
    8552:	48 89 e5             	mov    %rsp,%rbp
    8555:	f3 0f 11 45 fc       	movss  %xmm0,-0x4(%rbp)
    855a:	f3 0f 10 05 de 13 01 	movss  0x113de(%rip),%xmm0        # 19940 <g_1645+0x18c0>
    8561:	00 
    8562:	0f 2f 45 fc          	comiss -0x4(%rbp),%xmm0
    8566:	0f 93 c0             	setae  %al
    8569:	83 f0 01             	xor    $0x1,%eax
    856c:	84 c0                	test   %al,%al
    856e:	74 21                	je     8591 <safe_convert_func_float_to_int32_t+0x44>
    8570:	f3 0f 10 45 fc       	movss  -0x4(%rbp),%xmm0
    8575:	0f 2f 05 c8 13 01 00 	comiss 0x113c8(%rip),%xmm0        # 19944 <g_1645+0x18c4>
    857c:	0f 93 c0             	setae  %al
    857f:	83 f0 01             	xor    $0x1,%eax
    8582:	84 c0                	test   %al,%al
    8584:	74 0b                	je     8591 <safe_convert_func_float_to_int32_t+0x44>
    8586:	f3 0f 10 45 fc       	movss  -0x4(%rbp),%xmm0
    858b:	f3 0f 2c c0          	cvttss2si %xmm0,%eax
    858f:	eb 05                	jmp    8596 <safe_convert_func_float_to_int32_t+0x49>
    8591:	b8 ff ff ff 7f       	mov    $0x7fffffff,%eax
    8596:	5d                   	pop    %rbp
    8597:	c3                   	retq   

0000000000008598 <crc32_gentab>:
    8598:	f3 0f 1e fa          	endbr64 
    859c:	55                   	push   %rbp
    859d:	48 89 e5             	mov    %rsp,%rbp
    85a0:	c7 45 fc 20 83 b8 ed 	movl   $0xedb88320,-0x4(%rbp)
    85a7:	c7 45 f4 00 00 00 00 	movl   $0x0,-0xc(%rbp)
    85ae:	eb 51                	jmp    8601 <crc32_gentab+0x69>
    85b0:	8b 45 f4             	mov    -0xc(%rbp),%eax
    85b3:	89 45 f0             	mov    %eax,-0x10(%rbp)
    85b6:	c7 45 f8 08 00 00 00 	movl   $0x8,-0x8(%rbp)
    85bd:	eb 1e                	jmp    85dd <crc32_gentab+0x45>
    85bf:	8b 45 f0             	mov    -0x10(%rbp),%eax
    85c2:	83 e0 01             	and    $0x1,%eax
    85c5:	85 c0                	test   %eax,%eax
    85c7:	74 0d                	je     85d6 <crc32_gentab+0x3e>
    85c9:	8b 45 f0             	mov    -0x10(%rbp),%eax
    85cc:	d1 e8                	shr    %eax
    85ce:	33 45 fc             	xor    -0x4(%rbp),%eax
    85d1:	89 45 f0             	mov    %eax,-0x10(%rbp)
    85d4:	eb 03                	jmp    85d9 <crc32_gentab+0x41>
    85d6:	d1 6d f0             	shrl   -0x10(%rbp)
    85d9:	83 6d f8 01          	subl   $0x1,-0x8(%rbp)
    85dd:	83 7d f8 00          	cmpl   $0x0,-0x8(%rbp)
    85e1:	7f dc                	jg     85bf <crc32_gentab+0x27>
    85e3:	8b 45 f4             	mov    -0xc(%rbp),%eax
    85e6:	48 98                	cltq   
    85e8:	48 8d 0c 85 00 00 00 	lea    0x0(,%rax,4),%rcx
    85ef:	00 
    85f0:	48 8d 15 e9 70 01 00 	lea    0x170e9(%rip),%rdx        # 1f6e0 <crc32_tab>
    85f7:	8b 45 f0             	mov    -0x10(%rbp),%eax
    85fa:	89 04 11             	mov    %eax,(%rcx,%rdx,1)
    85fd:	83 45 f4 01          	addl   $0x1,-0xc(%rbp)
    8601:	81 7d f4 ff 00 00 00 	cmpl   $0xff,-0xc(%rbp)
    8608:	7e a6                	jle    85b0 <crc32_gentab+0x18>
    860a:	90                   	nop
    860b:	90                   	nop
    860c:	5d                   	pop    %rbp
    860d:	c3                   	retq   

000000000000860e <crc32_byte>:
    860e:	f3 0f 1e fa          	endbr64 
    8612:	55                   	push   %rbp
    8613:	48 89 e5             	mov    %rsp,%rbp
    8616:	89 f8                	mov    %edi,%eax
    8618:	88 45 fc             	mov    %al,-0x4(%rbp)
    861b:	8b 05 ff 49 01 00    	mov    0x149ff(%rip),%eax        # 1d020 <crc32_context>
    8621:	c1 e8 08             	shr    $0x8,%eax
    8624:	89 c1                	mov    %eax,%ecx
    8626:	0f b6 55 fc          	movzbl -0x4(%rbp),%edx
    862a:	8b 05 f0 49 01 00    	mov    0x149f0(%rip),%eax        # 1d020 <crc32_context>
    8630:	31 d0                	xor    %edx,%eax
    8632:	0f b6 c0             	movzbl %al,%eax
    8635:	89 c0                	mov    %eax,%eax
    8637:	48 8d 14 85 00 00 00 	lea    0x0(,%rax,4),%rdx
    863e:	00 
    863f:	48 8d 05 9a 70 01 00 	lea    0x1709a(%rip),%rax        # 1f6e0 <crc32_tab>
    8646:	8b 04 02             	mov    (%rdx,%rax,1),%eax
    8649:	31 c8                	xor    %ecx,%eax
    864b:	89 05 cf 49 01 00    	mov    %eax,0x149cf(%rip)        # 1d020 <crc32_context>
    8651:	90                   	nop
    8652:	5d                   	pop    %rbp
    8653:	c3                   	retq   

0000000000008654 <crc32_8bytes>:
    8654:	f3 0f 1e fa          	endbr64 
    8658:	55                   	push   %rbp
    8659:	48 89 e5             	mov    %rsp,%rbp
    865c:	48 83 ec 08          	sub    $0x8,%rsp
    8660:	48 89 7d f8          	mov    %rdi,-0x8(%rbp)
    8664:	48 8b 45 f8          	mov    -0x8(%rbp),%rax
    8668:	0f b6 c0             	movzbl %al,%eax
    866b:	89 c7                	mov    %eax,%edi
    866d:	e8 9c ff ff ff       	callq  860e <crc32_byte>
    8672:	48 8b 45 f8          	mov    -0x8(%rbp),%rax
    8676:	48 c1 e8 08          	shr    $0x8,%rax
    867a:	0f b6 c0             	movzbl %al,%eax
    867d:	89 c7                	mov    %eax,%edi
    867f:	e8 8a ff ff ff       	callq  860e <crc32_byte>
    8684:	48 8b 45 f8          	mov    -0x8(%rbp),%rax
    8688:	48 c1 e8 10          	shr    $0x10,%rax
    868c:	0f b6 c0             	movzbl %al,%eax
    868f:	89 c7                	mov    %eax,%edi
    8691:	e8 78 ff ff ff       	callq  860e <crc32_byte>
    8696:	48 8b 45 f8          	mov    -0x8(%rbp),%rax
    869a:	48 c1 e8 18          	shr    $0x18,%rax
    869e:	0f b6 c0             	movzbl %al,%eax
    86a1:	89 c7                	mov    %eax,%edi
    86a3:	e8 66 ff ff ff       	callq  860e <crc32_byte>
    86a8:	48 8b 45 f8          	mov    -0x8(%rbp),%rax
    86ac:	48 c1 e8 20          	shr    $0x20,%rax
    86b0:	0f b6 c0             	movzbl %al,%eax
    86b3:	89 c7                	mov    %eax,%edi
    86b5:	e8 54 ff ff ff       	callq  860e <crc32_byte>
    86ba:	48 8b 45 f8          	mov    -0x8(%rbp),%rax
    86be:	48 c1 e8 28          	shr    $0x28,%rax
    86c2:	0f b6 c0             	movzbl %al,%eax
    86c5:	89 c7                	mov    %eax,%edi
    86c7:	e8 42 ff ff ff       	callq  860e <crc32_byte>
    86cc:	48 8b 45 f8          	mov    -0x8(%rbp),%rax
    86d0:	48 c1 e8 30          	shr    $0x30,%rax
    86d4:	0f b6 c0             	movzbl %al,%eax
    86d7:	89 c7                	mov    %eax,%edi
    86d9:	e8 30 ff ff ff       	callq  860e <crc32_byte>
    86de:	48 8b 45 f8          	mov    -0x8(%rbp),%rax
    86e2:	48 c1 e8 38          	shr    $0x38,%rax
    86e6:	0f b6 c0             	movzbl %al,%eax
    86e9:	89 c7                	mov    %eax,%edi
    86eb:	e8 1e ff ff ff       	callq  860e <crc32_byte>
    86f0:	90                   	nop
    86f1:	c9                   	leaveq 
    86f2:	c3                   	retq   

00000000000086f3 <transparent_crc>:
    86f3:	f3 0f 1e fa          	endbr64 
    86f7:	55                   	push   %rbp
    86f8:	48 89 e5             	mov    %rsp,%rbp
    86fb:	48 83 ec 20          	sub    $0x20,%rsp
    86ff:	48 89 7d f8          	mov    %rdi,-0x8(%rbp)
    8703:	48 89 75 f0          	mov    %rsi,-0x10(%rbp)
    8707:	89 55 ec             	mov    %edx,-0x14(%rbp)
    870a:	48 8b 45 f8          	mov    -0x8(%rbp),%rax
    870e:	48 89 c7             	mov    %rax,%rdi
    8711:	e8 3e ff ff ff       	callq  8654 <crc32_8bytes>
    8716:	83 7d ec 00          	cmpl   $0x0,-0x14(%rbp)
    871a:	74 22                	je     873e <transparent_crc+0x4b>
    871c:	8b 05 fe 48 01 00    	mov    0x148fe(%rip),%eax        # 1d020 <crc32_context>
    8722:	f7 d0                	not    %eax
    8724:	89 c2                	mov    %eax,%edx
    8726:	48 8b 45 f0          	mov    -0x10(%rbp),%rax
    872a:	48 89 c6             	mov    %rax,%rsi
    872d:	48 8d 3d fc f8 00 00 	lea    0xf8fc(%rip),%rdi        # 18030 <_IO_stdin_used+0x30>
    8734:	b8 00 00 00 00       	mov    $0x0,%eax
    8739:	e8 42 e9 ff ff       	callq  7080 <printf@plt>
    873e:	90                   	nop
    873f:	c9                   	leaveq 
    8740:	c3                   	retq   

0000000000008741 <transparent_crc_bytes>:
    8741:	f3 0f 1e fa          	endbr64 
    8745:	55                   	push   %rbp
    8746:	48 89 e5             	mov    %rsp,%rbp
    8749:	48 83 ec 30          	sub    $0x30,%rsp
    874d:	48 89 7d e8          	mov    %rdi,-0x18(%rbp)
    8751:	89 75 e4             	mov    %esi,-0x1c(%rbp)
    8754:	48 89 55 d8          	mov    %rdx,-0x28(%rbp)
    8758:	89 4d e0             	mov    %ecx,-0x20(%rbp)
    875b:	c7 45 fc 00 00 00 00 	movl   $0x0,-0x4(%rbp)
    8762:	eb 1e                	jmp    8782 <transparent_crc_bytes+0x41>
    8764:	8b 45 fc             	mov    -0x4(%rbp),%eax
    8767:	48 63 d0             	movslq %eax,%rdx
    876a:	48 8b 45 e8          	mov    -0x18(%rbp),%rax
    876e:	48 01 d0             	add    %rdx,%rax
    8771:	0f b6 00             	movzbl (%rax),%eax
    8774:	0f b6 c0             	movzbl %al,%eax
    8777:	89 c7                	mov    %eax,%edi
    8779:	e8 90 fe ff ff       	callq  860e <crc32_byte>
    877e:	83 45 fc 01          	addl   $0x1,-0x4(%rbp)
    8782:	8b 45 fc             	mov    -0x4(%rbp),%eax
    8785:	3b 45 e4             	cmp    -0x1c(%rbp),%eax
    8788:	7c da                	jl     8764 <transparent_crc_bytes+0x23>
    878a:	83 7d e0 00          	cmpl   $0x0,-0x20(%rbp)
    878e:	74 22                	je     87b2 <transparent_crc_bytes+0x71>
    8790:	8b 05 8a 48 01 00    	mov    0x1488a(%rip),%eax        # 1d020 <crc32_context>
    8796:	f7 d0                	not    %eax
    8798:	89 c2                	mov    %eax,%edx
    879a:	48 8b 45 d8          	mov    -0x28(%rbp),%rax
    879e:	48 89 c6             	mov    %rax,%rsi
    87a1:	48 8d 3d 88 f8 00 00 	lea    0xf888(%rip),%rdi        # 18030 <_IO_stdin_used+0x30>
    87a8:	b8 00 00 00 00       	mov    $0x0,%eax
    87ad:	e8 ce e8 ff ff       	callq  7080 <printf@plt>
    87b2:	90                   	nop
    87b3:	c9                   	leaveq 
    87b4:	c3                   	retq   

00000000000087b5 <func_1>:
    87b5:	f3 0f 1e fa          	endbr64 
    87b9:	55                   	push   %rbp
    87ba:	48 89 e5             	mov    %rsp,%rbp
    87bd:	41 56                	push   %r14
    87bf:	41 55                	push   %r13
    87c1:	41 54                	push   %r12
    87c3:	53                   	push   %rbx
    87c4:	48 81 ec f0 09 00 00 	sub    $0x9f0,%rsp
    87cb:	64 48 8b 04 25 28 00 	mov    %fs:0x28,%rax
    87d2:	00 00 
    87d4:	48 89 45 d8          	mov    %rax,-0x28(%rbp)
    87d8:	31 c0                	xor    %eax,%eax
    87da:	48 8d 05 f7 67 01 00 	lea    0x167f7(%rip),%rax        # 1efd8 <g_942>
    87e1:	48 89 85 40 f6 ff ff 	mov    %rax,-0x9c0(%rbp)
    87e8:	48 8d 85 40 f6 ff ff 	lea    -0x9c0(%rbp),%rax
    87ef:	48 89 85 88 f6 ff ff 	mov    %rax,-0x978(%rbp)
    87f6:	c7 85 10 f6 ff ff 00 	movl   $0x0,-0x9f0(%rbp)
    87fd:	00 00 00 
    8800:	48 8d 05 41 60 01 00 	lea    0x16041(%rip),%rax        # 1e848 <g_39>
    8807:	48 89 85 60 f9 ff ff 	mov    %rax,-0x6a0(%rbp)
    880e:	48 8d 05 33 60 01 00 	lea    0x16033(%rip),%rax        # 1e848 <g_39>
    8815:	48 89 85 68 f9 ff ff 	mov    %rax,-0x698(%rbp)
    881c:	48 8d 05 25 60 01 00 	lea    0x16025(%rip),%rax        # 1e848 <g_39>
    8823:	48 89 85 70 f9 ff ff 	mov    %rax,-0x690(%rbp)
    882a:	48 8d 05 17 60 01 00 	lea    0x16017(%rip),%rax        # 1e848 <g_39>
    8831:	48 89 85 78 f9 ff ff 	mov    %rax,-0x688(%rbp)
    8838:	48 8d 05 09 60 01 00 	lea    0x16009(%rip),%rax        # 1e848 <g_39>
    883f:	48 89 85 80 f9 ff ff 	mov    %rax,-0x680(%rbp)
    8846:	48 8d 05 fb 5f 01 00 	lea    0x15ffb(%rip),%rax        # 1e848 <g_39>
    884d:	48 89 85 88 f9 ff ff 	mov    %rax,-0x678(%rbp)
    8854:	48 8d 05 ed 5f 01 00 	lea    0x15fed(%rip),%rax        # 1e848 <g_39>
    885b:	48 89 85 90 f9 ff ff 	mov    %rax,-0x670(%rbp)
    8862:	48 8d 05 df 5f 01 00 	lea    0x15fdf(%rip),%rax        # 1e848 <g_39>
    8869:	48 89 85 98 f9 ff ff 	mov    %rax,-0x668(%rbp)
    8870:	48 8d 05 d1 5f 01 00 	lea    0x15fd1(%rip),%rax        # 1e848 <g_39>
    8877:	48 89 85 a0 f9 ff ff 	mov    %rax,-0x660(%rbp)
    887e:	48 8d 05 c3 5f 01 00 	lea    0x15fc3(%rip),%rax        # 1e848 <g_39>
    8885:	48 89 85 a8 f9 ff ff 	mov    %rax,-0x658(%rbp)
    888c:	48 8d 05 b5 5f 01 00 	lea    0x15fb5(%rip),%rax        # 1e848 <g_39>
    8893:	48 89 85 b0 f9 ff ff 	mov    %rax,-0x650(%rbp)
    889a:	48 8d 05 a7 5f 01 00 	lea    0x15fa7(%rip),%rax        # 1e848 <g_39>
    88a1:	48 89 85 b8 f9 ff ff 	mov    %rax,-0x648(%rbp)
    88a8:	48 8d 05 99 5f 01 00 	lea    0x15f99(%rip),%rax        # 1e848 <g_39>
    88af:	48 89 85 c0 f9 ff ff 	mov    %rax,-0x640(%rbp)
    88b6:	48 8d 05 8b 5f 01 00 	lea    0x15f8b(%rip),%rax        # 1e848 <g_39>
    88bd:	48 89 85 c8 f9 ff ff 	mov    %rax,-0x638(%rbp)
    88c4:	48 8d 05 7d 5f 01 00 	lea    0x15f7d(%rip),%rax        # 1e848 <g_39>
    88cb:	48 89 85 d0 f9 ff ff 	mov    %rax,-0x630(%rbp)
    88d2:	48 8d 05 6f 5f 01 00 	lea    0x15f6f(%rip),%rax        # 1e848 <g_39>
    88d9:	48 89 85 d8 f9 ff ff 	mov    %rax,-0x628(%rbp)
    88e0:	48 8d 05 61 5f 01 00 	lea    0x15f61(%rip),%rax        # 1e848 <g_39>
    88e7:	48 89 85 e0 f9 ff ff 	mov    %rax,-0x620(%rbp)
    88ee:	48 c7 85 e8 f9 ff ff 	movq   $0x0,-0x618(%rbp)
    88f5:	00 00 00 00 
    88f9:	48 8d 05 48 5f 01 00 	lea    0x15f48(%rip),%rax        # 1e848 <g_39>
    8900:	48 89 85 f0 f9 ff ff 	mov    %rax,-0x610(%rbp)
    8907:	48 8d 05 3a 5f 01 00 	lea    0x15f3a(%rip),%rax        # 1e848 <g_39>
    890e:	48 89 85 f8 f9 ff ff 	mov    %rax,-0x608(%rbp)
    8915:	48 8d 05 2c 5f 01 00 	lea    0x15f2c(%rip),%rax        # 1e848 <g_39>
    891c:	48 89 85 00 fa ff ff 	mov    %rax,-0x600(%rbp)
    8923:	48 c7 85 08 fa ff ff 	movq   $0x0,-0x5f8(%rbp)
    892a:	00 00 00 00 
    892e:	48 8d 05 13 5f 01 00 	lea    0x15f13(%rip),%rax        # 1e848 <g_39>
    8935:	48 89 85 10 fa ff ff 	mov    %rax,-0x5f0(%rbp)
    893c:	48 8d 05 05 5f 01 00 	lea    0x15f05(%rip),%rax        # 1e848 <g_39>
    8943:	48 89 85 18 fa ff ff 	mov    %rax,-0x5e8(%rbp)
    894a:	48 c7 85 20 fa ff ff 	movq   $0x0,-0x5e0(%rbp)
    8951:	00 00 00 00 
    8955:	48 8d 05 ec 5e 01 00 	lea    0x15eec(%rip),%rax        # 1e848 <g_39>
    895c:	48 89 85 28 fa ff ff 	mov    %rax,-0x5d8(%rbp)
    8963:	48 8d 05 de 5e 01 00 	lea    0x15ede(%rip),%rax        # 1e848 <g_39>
    896a:	48 89 85 30 fa ff ff 	mov    %rax,-0x5d0(%rbp)
    8971:	48 8d 05 d0 5e 01 00 	lea    0x15ed0(%rip),%rax        # 1e848 <g_39>
    8978:	48 89 85 38 fa ff ff 	mov    %rax,-0x5c8(%rbp)
    897f:	48 8d 05 c2 5e 01 00 	lea    0x15ec2(%rip),%rax        # 1e848 <g_39>
    8986:	48 89 85 40 fa ff ff 	mov    %rax,-0x5c0(%rbp)
    898d:	48 c7 85 48 fa ff ff 	movq   $0x0,-0x5b8(%rbp)
    8994:	00 00 00 00 
    8998:	48 8d 05 a9 5e 01 00 	lea    0x15ea9(%rip),%rax        # 1e848 <g_39>
    899f:	48 89 85 50 fa ff ff 	mov    %rax,-0x5b0(%rbp)
    89a6:	48 c7 85 58 fa ff ff 	movq   $0x0,-0x5a8(%rbp)
    89ad:	00 00 00 00 
    89b1:	c7 85 14 f6 ff ff 02 	movl   $0x2,-0x9ec(%rbp)
    89b8:	00 00 00 
    89bb:	48 c7 85 48 f6 ff ff 	movq   $0x0,-0x9b8(%rbp)
    89c2:	00 00 00 00 
    89c6:	48 8d 85 48 f6 ff ff 	lea    -0x9b8(%rbp),%rax
    89cd:	48 89 85 90 f6 ff ff 	mov    %rax,-0x970(%rbp)
    89d4:	48 8d 05 85 48 01 00 	lea    0x14885(%rip),%rax        # 1d260 <g_540>
    89db:	48 89 85 50 f6 ff ff 	mov    %rax,-0x9b0(%rbp)
    89e2:	48 8d 85 50 f6 ff ff 	lea    -0x9b0(%rbp),%rax
    89e9:	48 89 85 c0 f7 ff ff 	mov    %rax,-0x840(%rbp)
    89f0:	48 8d 85 50 f6 ff ff 	lea    -0x9b0(%rbp),%rax
    89f7:	48 89 85 c8 f7 ff ff 	mov    %rax,-0x838(%rbp)
    89fe:	48 8d 85 50 f6 ff ff 	lea    -0x9b0(%rbp),%rax
    8a05:	48 89 85 d0 f7 ff ff 	mov    %rax,-0x830(%rbp)
    8a0c:	48 8d 85 50 f6 ff ff 	lea    -0x9b0(%rbp),%rax
    8a13:	48 89 85 d8 f7 ff ff 	mov    %rax,-0x828(%rbp)
    8a1a:	48 8d 85 50 f6 ff ff 	lea    -0x9b0(%rbp),%rax
    8a21:	48 89 85 e0 f7 ff ff 	mov    %rax,-0x820(%rbp)
    8a28:	48 8d 85 50 f6 ff ff 	lea    -0x9b0(%rbp),%rax
    8a2f:	48 89 85 e8 f7 ff ff 	mov    %rax,-0x818(%rbp)
    8a36:	48 8d 85 50 f6 ff ff 	lea    -0x9b0(%rbp),%rax
    8a3d:	48 89 85 f0 f7 ff ff 	mov    %rax,-0x810(%rbp)
    8a44:	48 8d 05 95 4e 01 00 	lea    0x14e95(%rip),%rax        # 1d8e0 <g_1426+0x120>
    8a4b:	48 89 85 58 f6 ff ff 	mov    %rax,-0x9a8(%rbp)
    8a52:	48 8d 85 58 f6 ff ff 	lea    -0x9a8(%rbp),%rax
    8a59:	48 89 85 98 f6 ff ff 	mov    %rax,-0x968(%rbp)
    8a60:	48 c7 85 a0 f6 ff ff 	movq   $0x0,-0x960(%rbp)
    8a67:	00 00 00 00 
    8a6b:	48 8d 05 c6 47 01 00 	lea    0x147c6(%rip),%rax        # 1d238 <g_163>
    8a72:	48 89 85 a8 f6 ff ff 	mov    %rax,-0x958(%rbp)
    8a79:	c7 85 40 f8 ff ff 06 	movl   $0x6,-0x7c0(%rbp)
    8a80:	00 00 00 
    8a83:	c7 85 44 f8 ff ff 41 	movl   $0x5833a541,-0x7bc(%rbp)
    8a8a:	a5 33 58 
    8a8d:	c7 85 48 f8 ff ff 06 	movl   $0x6,-0x7b8(%rbp)
    8a94:	00 00 00 
    8a97:	c7 85 4c f8 ff ff 41 	movl   $0x5833a541,-0x7b4(%rbp)
    8a9e:	a5 33 58 
    8aa1:	c7 85 50 f8 ff ff 06 	movl   $0x6,-0x7b0(%rbp)
    8aa8:	00 00 00 
    8aab:	c7 85 54 f8 ff ff 41 	movl   $0x5833a541,-0x7ac(%rbp)
    8ab2:	a5 33 58 
    8ab5:	c7 85 58 f8 ff ff f1 	movl   $0x2fb2cf1,-0x7a8(%rbp)
    8abc:	2c fb 02 
    8abf:	c7 85 5c f8 ff ff 41 	movl   $0x5833a541,-0x7a4(%rbp)
    8ac6:	a5 33 58 
    8ac9:	c7 85 60 f8 ff ff f1 	movl   $0x2fb2cf1,-0x7a0(%rbp)
    8ad0:	2c fb 02 
    8ad3:	c7 85 64 f8 ff ff 41 	movl   $0x5833a541,-0x79c(%rbp)
    8ada:	a5 33 58 
    8add:	c7 85 68 f8 ff ff f1 	movl   $0x2fb2cf1,-0x798(%rbp)
    8ae4:	2c fb 02 
    8ae7:	c7 85 6c f8 ff ff 41 	movl   $0x5833a541,-0x794(%rbp)
    8aee:	a5 33 58 
    8af1:	c7 85 70 f8 ff ff 06 	movl   $0x6,-0x790(%rbp)
    8af8:	00 00 00 
    8afb:	c7 85 74 f8 ff ff 41 	movl   $0x5833a541,-0x78c(%rbp)
    8b02:	a5 33 58 
    8b05:	c7 85 78 f8 ff ff 06 	movl   $0x6,-0x788(%rbp)
    8b0c:	00 00 00 
    8b0f:	c7 85 7c f8 ff ff 41 	movl   $0x5833a541,-0x784(%rbp)
    8b16:	a5 33 58 
    8b19:	c7 85 80 f8 ff ff 06 	movl   $0x6,-0x780(%rbp)
    8b20:	00 00 00 
    8b23:	c7 85 84 f8 ff ff 41 	movl   $0x5833a541,-0x77c(%rbp)
    8b2a:	a5 33 58 
    8b2d:	c7 85 88 f8 ff ff f1 	movl   $0x2fb2cf1,-0x778(%rbp)
    8b34:	2c fb 02 
    8b37:	c7 85 8c f8 ff ff 41 	movl   $0x5833a541,-0x774(%rbp)
    8b3e:	a5 33 58 
    8b41:	c7 85 90 f8 ff ff f1 	movl   $0x2fb2cf1,-0x770(%rbp)
    8b48:	2c fb 02 
    8b4b:	c7 85 94 f8 ff ff 41 	movl   $0x5833a541,-0x76c(%rbp)
    8b52:	a5 33 58 
    8b55:	c7 85 98 f8 ff ff f1 	movl   $0x2fb2cf1,-0x768(%rbp)
    8b5c:	2c fb 02 
    8b5f:	c7 85 9c f8 ff ff 41 	movl   $0x5833a541,-0x764(%rbp)
    8b66:	a5 33 58 
    8b69:	c7 85 a0 f8 ff ff 06 	movl   $0x6,-0x760(%rbp)
    8b70:	00 00 00 
    8b73:	c7 85 a4 f8 ff ff 41 	movl   $0x5833a541,-0x75c(%rbp)
    8b7a:	a5 33 58 
    8b7d:	c7 85 a8 f8 ff ff 06 	movl   $0x6,-0x758(%rbp)
    8b84:	00 00 00 
    8b87:	c7 85 ac f8 ff ff 41 	movl   $0x5833a541,-0x754(%rbp)
    8b8e:	a5 33 58 
    8b91:	c7 85 b0 f8 ff ff 06 	movl   $0x6,-0x750(%rbp)
    8b98:	00 00 00 
    8b9b:	c7 85 b4 f8 ff ff 41 	movl   $0x5833a541,-0x74c(%rbp)
    8ba2:	a5 33 58 
    8ba5:	c6 85 f9 f5 ff ff be 	movb   $0xbe,-0xa07(%rbp)
    8bac:	48 8d 05 4d 5e 01 00 	lea    0x15e4d(%rip),%rax        # 1ea00 <g_290>
    8bb3:	48 89 85 b0 f6 ff ff 	mov    %rax,-0x950(%rbp)
    8bba:	48 8d 85 60 fa ff ff 	lea    -0x5a0(%rbp),%rax
    8bc1:	48 8d 15 78 f5 00 00 	lea    0xf578(%rip),%rdx        # 18140 <g_1645+0xc0>
    8bc8:	b9 af 00 00 00       	mov    $0xaf,%ecx
    8bcd:	48 89 c7             	mov    %rax,%rdi
    8bd0:	48 89 d6             	mov    %rdx,%rsi
    8bd3:	f3 48 a5             	rep movsq %ds:(%rsi),%es:(%rdi)
    8bd6:	66 c7 85 38 f7 ff ff 	movw   $0x919e,-0x8c8(%rbp)
    8bdd:	9e 91 
    8bdf:	66 c7 85 3a f7 ff ff 	movw   $0x919e,-0x8c6(%rbp)
    8be6:	9e 91 
    8be8:	66 c7 85 3c f7 ff ff 	movw   $0x919e,-0x8c4(%rbp)
    8bef:	9e 91 
    8bf1:	66 c7 85 3e f7 ff ff 	movw   $0x919e,-0x8c2(%rbp)
    8bf8:	9e 91 
    8bfa:	48 c7 85 b8 f6 ff ff 	movq   $0x0,-0x948(%rbp)
    8c01:	00 00 00 00 
    8c05:	c7 85 18 f6 ff ff e1 	movl   $0x98f2f3e1,-0x9e8(%rbp)
    8c0c:	f3 f2 98 
    8c0f:	66 c7 85 fc f5 ff ff 	movw   $0xfffa,-0xa04(%rbp)
    8c16:	fa ff 
    8c18:	c6 85 fa f5 ff ff 08 	movb   $0x8,-0xa06(%rbp)
    8c1f:	c7 85 00 f6 ff ff 00 	movl   $0x0,-0xa00(%rbp)
    8c26:	00 00 00 
    8c29:	eb 1a                	jmp    8c45 <func_1+0x490>
    8c2b:	8b 85 00 f6 ff ff    	mov    -0xa00(%rbp),%eax
    8c31:	48 98                	cltq   
    8c33:	c7 84 85 40 f7 ff ff 	movl   $0xc2cda287,-0x8c0(%rbp,%rax,4)
    8c3a:	87 a2 cd c2 
    8c3e:	83 85 00 f6 ff ff 01 	addl   $0x1,-0xa00(%rbp)
    8c45:	83 bd 00 f6 ff ff 03 	cmpl   $0x3,-0xa00(%rbp)
    8c4c:	7e dd                	jle    8c2b <func_1+0x476>
    8c4e:	c7 85 00 f6 ff ff 00 	movl   $0x0,-0xa00(%rbp)
    8c55:	00 00 00 
    8c58:	eb 7c                	jmp    8cd6 <func_1+0x521>
    8c5a:	c7 85 04 f6 ff ff 00 	movl   $0x0,-0x9fc(%rbp)
    8c61:	00 00 00 
    8c64:	eb 60                	jmp    8cc6 <func_1+0x511>
    8c66:	c7 85 08 f6 ff ff 00 	movl   $0x0,-0x9f8(%rbp)
    8c6d:	00 00 00 
    8c70:	eb 44                	jmp    8cb6 <func_1+0x501>
    8c72:	8b 85 08 f6 ff ff    	mov    -0x9f8(%rbp),%eax
    8c78:	48 63 f0             	movslq %eax,%rsi
    8c7b:	8b 85 00 f6 ff ff    	mov    -0xa00(%rbp),%eax
    8c81:	48 98                	cltq   
    8c83:	8b 95 04 f6 ff ff    	mov    -0x9fc(%rbp),%edx
    8c89:	48 63 ca             	movslq %edx,%rcx
    8c8c:	48 89 c2             	mov    %rax,%rdx
    8c8f:	48 c1 e2 04          	shl    $0x4,%rdx
    8c93:	48 29 c2             	sub    %rax,%rdx
    8c96:	48 89 c8             	mov    %rcx,%rax
    8c99:	48 01 c0             	add    %rax,%rax
    8c9c:	48 01 c8             	add    %rcx,%rax
    8c9f:	48 01 d0             	add    %rdx,%rax
    8ca2:	48 01 f0             	add    %rsi,%rax
    8ca5:	66 c7 84 45 c0 f8 ff 	movw   $0x4ba,-0x740(%rbp,%rax,2)
    8cac:	ff ba 04 
    8caf:	83 85 08 f6 ff ff 01 	addl   $0x1,-0x9f8(%rbp)
    8cb6:	83 bd 08 f6 ff ff 02 	cmpl   $0x2,-0x9f8(%rbp)
    8cbd:	7e b3                	jle    8c72 <func_1+0x4bd>
    8cbf:	83 85 04 f6 ff ff 01 	addl   $0x1,-0x9fc(%rbp)
    8cc6:	83 bd 04 f6 ff ff 04 	cmpl   $0x4,-0x9fc(%rbp)
    8ccd:	7e 97                	jle    8c66 <func_1+0x4b1>
    8ccf:	83 85 00 f6 ff ff 01 	addl   $0x1,-0xa00(%rbp)
    8cd6:	83 bd 00 f6 ff ff 04 	cmpl   $0x4,-0xa00(%rbp)
    8cdd:	0f 8e 77 ff ff ff    	jle    8c5a <func_1+0x4a5>
    8ce3:	0f b7 05 ac 43 01 00 	movzwl 0x143ac(%rip),%eax        # 1d096 <g_4+0x56>
    8cea:	0f be c0             	movsbl %al,%eax
    8ced:	48 8b 1d c4 68 01 00 	mov    0x168c4(%rip),%rbx        # 1f5b8 <g_1294>
    8cf4:	89 c7                	mov    %eax,%edi
    8cf6:	e8 f2 05 00 00       	callq  92ed <func_2>
    8cfb:	48 89 03             	mov    %rax,(%rbx)
    8cfe:	48 8b 15 63 61 01 00 	mov    0x16163(%rip),%rdx        # 1ee68 <g_739>
    8d05:	48 8b 05 b4 68 01 00 	mov    0x168b4(%rip),%rax        # 1f5c0 <g_1295>
    8d0c:	48 8b 12             	mov    (%rdx),%rdx
    8d0f:	48 89 10             	mov    %rdx,(%rax)
    8d12:	c7 05 5c 6e 01 00 01 	movl   $0x1,0x16e5c(%rip)        # 1fb78 <g_558>
    8d19:	00 00 00 
    8d1c:	e9 92 05 00 00       	jmpq   92b3 <func_1+0xafe>
    8d21:	48 c7 85 60 f6 ff ff 	movq   $0x0,-0x9a0(%rbp)
    8d28:	00 00 00 00 
    8d2c:	48 8d 85 60 f6 ff ff 	lea    -0x9a0(%rbp),%rax
    8d33:	48 89 85 c0 f6 ff ff 	mov    %rax,-0x940(%rbp)
    8d3a:	48 8d 05 07 5b 01 00 	lea    0x15b07(%rip),%rax        # 1e848 <g_39>
    8d41:	48 89 85 60 f7 ff ff 	mov    %rax,-0x8a0(%rbp)
    8d48:	48 8d 05 f9 5a 01 00 	lea    0x15af9(%rip),%rax        # 1e848 <g_39>
    8d4f:	48 89 85 68 f7 ff ff 	mov    %rax,-0x898(%rbp)
    8d56:	48 c7 85 70 f7 ff ff 	movq   $0x0,-0x890(%rbp)
    8d5d:	00 00 00 00 
    8d61:	48 8d 05 e0 5a 01 00 	lea    0x15ae0(%rip),%rax        # 1e848 <g_39>
    8d68:	48 89 85 78 f7 ff ff 	mov    %rax,-0x888(%rbp)
    8d6f:	48 8d 05 d2 5a 01 00 	lea    0x15ad2(%rip),%rax        # 1e848 <g_39>
    8d76:	48 89 85 80 f7 ff ff 	mov    %rax,-0x880(%rbp)
    8d7d:	48 c7 85 88 f7 ff ff 	movq   $0x0,-0x878(%rbp)
    8d84:	00 00 00 00 
    8d88:	48 8d 05 59 6d 01 00 	lea    0x16d59(%rip),%rax        # 1fae8 <g_38>
    8d8f:	48 89 85 68 f6 ff ff 	mov    %rax,-0x998(%rbp)
    8d96:	48 c7 85 c8 f6 ff ff 	movq   $0x0,-0x938(%rbp)
    8d9d:	00 00 00 00 
    8da1:	c7 85 1c f6 ff ff f8 	movl   $0xfffffff8,-0x9e4(%rbp)
    8da8:	ff ff ff 
    8dab:	48 8d 05 86 44 01 00 	lea    0x14486(%rip),%rax        # 1d238 <g_163>
    8db2:	48 89 85 d0 f6 ff ff 	mov    %rax,-0x930(%rbp)
    8db9:	48 c7 85 d8 f6 ff ff 	movq   $0x0,-0x928(%rbp)
    8dc0:	00 00 00 00 
    8dc4:	c7 85 20 f6 ff ff 50 	movl   $0x7238a050,-0x9e0(%rbp)
    8dcb:	a0 38 72 
    8dce:	48 8d 05 8b 60 01 00 	lea    0x1608b(%rip),%rax        # 1ee60 <g_615>
    8dd5:	48 89 85 70 f6 ff ff 	mov    %rax,-0x990(%rbp)
    8ddc:	48 8d 85 70 f6 ff ff 	lea    -0x990(%rbp),%rax
    8de3:	48 89 85 e0 f6 ff ff 	mov    %rax,-0x920(%rbp)
    8dea:	c6 85 fb f5 ff ff 01 	movb   $0x1,-0xa05(%rbp)
    8df1:	c7 85 24 f6 ff ff 05 	movl   $0x5,-0x9dc(%rbp)
    8df8:	00 00 00 
    8dfb:	c7 85 28 f6 ff ff 04 	movl   $0x4,-0x9d8(%rbp)
    8e02:	00 00 00 
    8e05:	c7 85 2c f6 ff ff f7 	movl   $0xfffffff7,-0x9d4(%rbp)
    8e0c:	ff ff ff 
    8e0f:	48 8d 05 ea 61 01 00 	lea    0x161ea(%rip),%rax        # 1f000 <g_967>
    8e16:	48 89 85 e8 f6 ff ff 	mov    %rax,-0x918(%rbp)
    8e1d:	48 8d 85 60 f7 ff ff 	lea    -0x8a0(%rbp),%rax
    8e24:	48 83 c0 20          	add    $0x20,%rax
    8e28:	48 89 85 78 f6 ff ff 	mov    %rax,-0x988(%rbp)
    8e2f:	48 8d 85 78 f6 ff ff 	lea    -0x988(%rbp),%rax
    8e36:	48 89 85 80 f6 ff ff 	mov    %rax,-0x980(%rbp)
    8e3d:	48 8d 85 80 f6 ff ff 	lea    -0x980(%rbp),%rax
    8e44:	48 89 85 f0 f6 ff ff 	mov    %rax,-0x910(%rbp)
    8e4b:	48 8d 05 0e 6d 01 00 	lea    0x16d0e(%rip),%rax        # 1fb60 <g_291>
    8e52:	48 89 85 f8 f6 ff ff 	mov    %rax,-0x908(%rbp)
    8e59:	c7 85 30 f6 ff ff 39 	movl   $0x3393da39,-0x9d0(%rbp)
    8e60:	da 93 33 
    8e63:	c7 85 34 f6 ff ff f7 	movl   $0xfffffff7,-0x9cc(%rbp)
    8e6a:	ff ff ff 
    8e6d:	66 c7 85 fe f5 ff ff 	movw   $0xdc6b,-0xa02(%rbp)
    8e74:	6b dc 
    8e76:	c7 85 38 f6 ff ff 34 	movl   $0xf7b6e134,-0x9c8(%rbp)
    8e7d:	e1 b6 f7 
    8e80:	c7 85 0c f6 ff ff 00 	movl   $0x0,-0x9f4(%rbp)
    8e87:	00 00 00 
    8e8a:	eb 1b                	jmp    8ea7 <func_1+0x6f2>
    8e8c:	8b 85 0c f6 ff ff    	mov    -0x9f4(%rbp),%eax
    8e92:	48 98                	cltq   
    8e94:	48 c7 84 c5 00 f8 ff 	movq   $0x0,-0x800(%rbp,%rax,8)
    8e9b:	ff 00 00 00 00 
    8ea0:	83 85 0c f6 ff ff 01 	addl   $0x1,-0x9f4(%rbp)
    8ea7:	83 bd 0c f6 ff ff 06 	cmpl   $0x6,-0x9f4(%rbp)
    8eae:	7e dc                	jle    8e8c <func_1+0x6d7>
    8eb0:	c7 85 0c f6 ff ff 00 	movl   $0x0,-0x9f4(%rbp)
    8eb7:	00 00 00 
    8eba:	eb 1e                	jmp    8eda <func_1+0x725>
    8ebc:	8b 85 0c f6 ff ff    	mov    -0x9f4(%rbp),%eax
    8ec2:	48 98                	cltq   
    8ec4:	48 8d 15 fd 60 01 00 	lea    0x160fd(%rip),%rdx        # 1efc8 <g_822>
    8ecb:	48 89 94 c5 90 f7 ff 	mov    %rdx,-0x870(%rbp,%rax,8)
    8ed2:	ff 
    8ed3:	83 85 0c f6 ff ff 01 	addl   $0x1,-0x9f4(%rbp)
    8eda:	83 bd 0c f6 ff ff 05 	cmpl   $0x5,-0x9f4(%rbp)
    8ee1:	7e d9                	jle    8ebc <func_1+0x707>
    8ee3:	c7 85 0c f6 ff ff 00 	movl   $0x0,-0x9f4(%rbp)
    8eea:	00 00 00 
    8eed:	eb 1e                	jmp    8f0d <func_1+0x758>
    8eef:	8b 85 0c f6 ff ff    	mov    -0x9f4(%rbp),%eax
    8ef5:	48 98                	cltq   
    8ef7:	48 8d 95 68 f6 ff ff 	lea    -0x998(%rbp),%rdx
    8efe:	48 89 94 c5 30 f7 ff 	mov    %rdx,-0x8d0(%rbp,%rax,8)
    8f05:	ff 
    8f06:	83 85 0c f6 ff ff 01 	addl   $0x1,-0x9f4(%rbp)
    8f0d:	83 bd 0c f6 ff ff 00 	cmpl   $0x0,-0x9f4(%rbp)
    8f14:	7e d9                	jle    8eef <func_1+0x73a>
    8f16:	c7 85 0c f6 ff ff 00 	movl   $0x0,-0x9f4(%rbp)
    8f1d:	00 00 00 
    8f20:	eb 21                	jmp    8f43 <func_1+0x78e>
    8f22:	8b 85 0c f6 ff ff    	mov    -0x9f4(%rbp),%eax
    8f28:	48 98                	cltq   
    8f2a:	48 b9 18 89 c8 a6 30 	movabs $0xb002b930a6c88918,%rcx
    8f31:	b9 02 b0 
    8f34:	48 89 8c c5 50 f7 ff 	mov    %rcx,-0x8b0(%rbp,%rax,8)
    8f3b:	ff 
    8f3c:	83 85 0c f6 ff ff 01 	addl   $0x1,-0x9f4(%rbp)
    8f43:	83 bd 0c f6 ff ff 01 	cmpl   $0x1,-0x9f4(%rbp)
    8f4a:	7e d6                	jle    8f22 <func_1+0x76d>
    8f4c:	b8 d4 66 13 bd       	mov    $0xbd1366d4,%eax
    8f51:	48 89 85 00 f8 ff ff 	mov    %rax,-0x800(%rbp)
    8f58:	48 c7 05 fd 42 01 00 	movq   $0x0,0x142fd(%rip)        # 1d260 <g_540>
    8f5f:	00 00 00 00 
    8f63:	e9 2b 03 00 00       	jmpq   9293 <func_1+0xade>
    8f68:	c7 85 3c f6 ff ff 92 	movl   $0xe0b51892,-0x9c4(%rbp)
    8f6f:	18 b5 e0 
    8f72:	48 8d 05 03 6c 01 00 	lea    0x16c03(%rip),%rax        # 1fb7c <g_564>
    8f79:	48 89 85 00 f7 ff ff 	mov    %rax,-0x900(%rbp)
    8f80:	48 c7 85 08 f7 ff ff 	movq   $0x0,-0x8f8(%rbp)
    8f87:	00 00 00 00 
    8f8b:	48 8d 05 9e 42 01 00 	lea    0x1429e(%rip),%rax        # 1d230 <g_129>
    8f92:	48 89 85 10 f7 ff ff 	mov    %rax,-0x8f0(%rbp)
    8f99:	48 8d 05 ca 42 01 00 	lea    0x142ca(%rip),%rax        # 1d26a <g_572>
    8fa0:	48 89 85 18 f7 ff ff 	mov    %rax,-0x8e8(%rbp)
    8fa7:	48 8d 05 a2 42 01 00 	lea    0x142a2(%rip),%rax        # 1d250 <g_264>
    8fae:	48 89 85 20 f7 ff ff 	mov    %rax,-0x8e0(%rbp)
    8fb5:	4c 8b a5 60 f7 ff ff 	mov    -0x8a0(%rbp),%r12
    8fbc:	48 8b 85 00 f7 ff ff 	mov    -0x900(%rbp),%rax
    8fc3:	8b 00                	mov    (%rax),%eax
    8fc5:	8d 50 ff             	lea    -0x1(%rax),%edx
    8fc8:	48 8b 85 00 f7 ff ff 	mov    -0x900(%rbp),%rax
    8fcf:	89 10                	mov    %edx,(%rax)
    8fd1:	48 8b 85 00 f7 ff ff 	mov    -0x900(%rbp),%rax
    8fd8:	8b 00                	mov    (%rax),%eax
    8fda:	89 05 60 42 01 00    	mov    %eax,0x14260(%rip)        # 1d240 <g_231>
    8fe0:	8b 05 5a 42 01 00    	mov    0x1425a(%rip),%eax        # 1d240 <g_231>
    8fe6:	85 c0                	test   %eax,%eax
    8fe8:	0f 85 8a 00 00 00    	jne    9078 <func_1+0x8c3>
    8fee:	8b 9d 10 f6 ff ff    	mov    -0x9f0(%rbp),%ebx
    8ff4:	48 8b 85 00 f8 ff ff 	mov    -0x800(%rbp),%rax
    8ffb:	0f b7 d0             	movzwl %ax,%edx
    8ffe:	48 8b 05 d3 41 01 00 	mov    0x141d3(%rip),%rax        # 1d1d8 <g_42>
    9005:	0f b7 c0             	movzwl %ax,%eax
    9008:	89 d6                	mov    %edx,%esi
    900a:	89 c7                	mov    %eax,%edi
    900c:	e8 ee ec ff ff       	callq  7cff <safe_add_func_uint16_t_u_u>
    9011:	0f bf d0             	movswl %ax,%edx
    9014:	8b 85 3c f6 ff ff    	mov    -0x9c4(%rbp),%eax
    901a:	98                   	cwtl   
    901b:	89 d6                	mov    %edx,%esi
    901d:	89 c7                	mov    %eax,%edi
    901f:	e8 d1 e3 ff ff       	callq  73f5 <safe_mul_func_int16_t_s_s>
    9024:	0f bf d0             	movswl %ax,%edx
    9027:	48 83 bd c0 f6 ff ff 	cmpq   $0x0,-0x940(%rbp)
    902e:	00 
    902f:	0f 95 c0             	setne  %al
    9032:	0f b6 c0             	movzbl %al,%eax
    9035:	89 d6                	mov    %edx,%esi
    9037:	89 c7                	mov    %eax,%edi
    9039:	e8 7a ee ff ff       	callq  7eb8 <safe_add_func_uint32_t_u_u>
    903e:	89 de                	mov    %ebx,%esi
    9040:	bf 01 00 00 00       	mov    $0x1,%edi
    9045:	e8 b3 ee ff ff       	callq  7efd <safe_mod_func_uint32_t_u_u>
    904a:	89 c2                	mov    %eax,%edx
    904c:	48 b8 ae 6e 18 20 ca 	movabs $0x547860ca20186eae,%rax
    9053:	60 78 54 
    9056:	21 d0                	and    %edx,%eax
    9058:	98                   	cwtl   
    9059:	8b 95 10 f6 ff ff    	mov    -0x9f0(%rbp),%edx
    905f:	89 d6                	mov    %edx,%esi
    9061:	89 c7                	mov    %eax,%edi
    9063:	e8 c2 e4 ff ff       	callq  752a <safe_rshift_func_int16_t_s_s>
    9068:	48 0f bf d0          	movswq %ax,%rdx
    906c:	48 8b 85 00 f8 ff ff 	mov    -0x800(%rbp),%rax
    9073:	48 39 c2             	cmp    %rax,%rdx
    9076:	75 07                	jne    907f <func_1+0x8ca>
    9078:	b8 01 00 00 00       	mov    $0x1,%eax
    907d:	eb 05                	jmp    9084 <func_1+0x8cf>
    907f:	b8 00 00 00 00       	mov    $0x0,%eax
    9084:	f7 d0                	not    %eax
    9086:	48 63 d0             	movslq %eax,%rdx
    9089:	48 8b 85 10 f7 ff ff 	mov    -0x8f0(%rbp),%rax
    9090:	48 89 10             	mov    %rdx,(%rax)
    9093:	8b 85 3c f6 ff ff    	mov    -0x9c4(%rbp),%eax
    9099:	0f b7 c0             	movzwl %ax,%eax
    909c:	be 01 00 00 00       	mov    $0x1,%esi
    90a1:	89 c7                	mov    %eax,%edi
    90a3:	e8 95 ec ff ff       	callq  7d3d <safe_mul_func_uint16_t_u_u>
    90a8:	48 8b 95 18 f7 ff ff 	mov    -0x8e8(%rbp),%rdx
    90af:	66 89 02             	mov    %ax,(%rdx)
    90b2:	48 8b 85 18 f7 ff ff 	mov    -0x8e8(%rbp),%rax
    90b9:	0f b7 10             	movzwl (%rax),%edx
    90bc:	48 8b 85 20 f7 ff ff 	mov    -0x8e0(%rbp),%rax
    90c3:	66 89 10             	mov    %dx,(%rax)
    90c6:	48 8b 85 20 f7 ff ff 	mov    -0x8e0(%rbp),%rax
    90cd:	0f b7 00             	movzwl (%rax),%eax
    90d0:	0f b7 d0             	movzwl %ax,%edx
    90d3:	48 83 bd 88 f6 ff ff 	cmpq   $0x0,-0x978(%rbp)
    90da:	00 
    90db:	0f 95 c0             	setne  %al
    90de:	0f b6 c0             	movzbl %al,%eax
    90e1:	89 d6                	mov    %edx,%esi
    90e3:	89 c7                	mov    %eax,%edi
    90e5:	e8 a4 ec ff ff       	callq  7d8e <safe_div_func_uint16_t_u_u>
    90ea:	66 85 c0             	test   %ax,%ax
    90ed:	48 8b 85 e8 f9 ff ff 	mov    -0x618(%rbp),%rax
    90f4:	48 8b 15 05 5f 01 00 	mov    0x15f05(%rip),%rdx        # 1f000 <g_967>
    90fb:	48 8b 1a             	mov    (%rdx),%rbx
    90fe:	4c 89 e6             	mov    %r12,%rsi
    9101:	48 89 c7             	mov    %rax,%rdi
    9104:	e8 d5 a2 00 00       	callq  133de <func_57>
    9109:	48 89 03             	mov    %rax,(%rbx)
    910c:	48 8b 05 fd 64 01 00 	mov    0x164fd(%rip),%rax        # 1f610 <g_1333>
    9113:	48 8b 13             	mov    (%rbx),%rdx
    9116:	48 89 10             	mov    %rdx,(%rax)
    9119:	48 c7 05 24 41 01 00 	movq   $0x0,0x14124(%rip)        # 1d248 <g_236>
    9120:	00 00 00 00 
    9124:	90                   	nop
    9125:	48 8b 05 1c 41 01 00 	mov    0x1411c(%rip),%rax        # 1d248 <g_236>
    912c:	48 83 f8 01          	cmp    $0x1,%rax
    9130:	0f 8f 4b 01 00 00    	jg     9281 <func_1+0xacc>
    9136:	48 8d 05 aa 40 01 00 	lea    0x140aa(%rip),%rax        # 1d1e7 <g_91+0x3>
    913d:	48 89 85 28 f7 ff ff 	mov    %rax,-0x8d8(%rbp)
    9144:	4c 8b ad 00 f8 ff ff 	mov    -0x800(%rbp),%r13
    914b:	0f b6 05 56 46 01 00 	movzbl 0x14656(%rip),%eax        # 1d7a8 <g_1347>
    9152:	0f be d8             	movsbl %al,%ebx
    9155:	b8 ff ff ff ff       	mov    $0xffffffff,%eax
    915a:	85 c0                	test   %eax,%eax
    915c:	0f 85 82 00 00 00    	jne    91e4 <func_1+0xa2f>
    9162:	48 8b 85 00 f8 ff ff 	mov    -0x800(%rbp),%rax
    9169:	44 0f bf e0          	movswl %ax,%r12d
    916d:	48 8b 05 3c 64 01 00 	mov    0x1643c(%rip),%rax        # 1f5b0 <g_1283>
    9174:	48 8b 10             	mov    (%rax),%rdx
    9177:	48 8b 85 10 f7 ff ff 	mov    -0x8f0(%rbp),%rax
    917e:	48 89 10             	mov    %rdx,(%rax)
    9181:	48 8b 85 10 f7 ff ff 	mov    -0x8f0(%rbp),%rax
    9188:	48 8b 10             	mov    (%rax),%rdx
    918b:	48 8b 85 00 f8 ff ff 	mov    -0x800(%rbp),%rax
    9192:	48 39 c2             	cmp    %rax,%rdx
    9195:	0f 9e c0             	setle  %al
    9198:	44 0f b6 f0          	movzbl %al,%r14d
    919c:	be ff ff ff ff       	mov    $0xffffffff,%esi
    91a1:	bf 00 00 00 00       	mov    $0x0,%edi
    91a6:	e8 86 e0 ff ff       	callq  7231 <safe_mod_func_int8_t_s_s>
    91ab:	be 01 00 00 00       	mov    $0x1,%esi
    91b0:	bf 31 35 00 00       	mov    $0x3531,%edi
    91b5:	e8 83 eb ff ff       	callq  7d3d <safe_mul_func_uint16_t_u_u>
    91ba:	66 85 c0             	test   %ax,%ax
    91bd:	75 07                	jne    91c6 <func_1+0xa11>
    91bf:	ba 0f 00 00 00       	mov    $0xf,%edx
    91c4:	eb 05                	jmp    91cb <func_1+0xa16>
    91c6:	ba 0e 00 00 00       	mov    $0xe,%edx
    91cb:	8b 85 10 f6 ff ff    	mov    -0x9f0(%rbp),%eax
    91d1:	31 d0                	xor    %edx,%eax
    91d3:	44 09 f0             	or     %r14d,%eax
    91d6:	98                   	cwtl   
    91d7:	44 89 e6             	mov    %r12d,%esi
    91da:	89 c7                	mov    %eax,%edi
    91dc:	e8 35 e2 ff ff       	callq  7416 <safe_mod_func_int16_t_s_s>
    91e1:	66 85 c0             	test   %ax,%ax
    91e4:	b9 01 00 00 00       	mov    $0x1,%ecx
    91e9:	48 8b 85 28 f7 ff ff 	mov    -0x8d8(%rbp),%rax
    91f0:	0f b6 00             	movzbl (%rax),%eax
    91f3:	89 c2                	mov    %eax,%edx
    91f5:	89 c8                	mov    %ecx,%eax
    91f7:	09 d0                	or     %edx,%eax
    91f9:	89 c2                	mov    %eax,%edx
    91fb:	48 8b 85 28 f7 ff ff 	mov    -0x8d8(%rbp),%rax
    9202:	88 10                	mov    %dl,(%rax)
    9204:	48 8b 85 28 f7 ff ff 	mov    -0x8d8(%rbp),%rax
    920b:	0f b6 00             	movzbl (%rax),%eax
    920e:	0f b6 c0             	movzbl %al,%eax
    9211:	39 85 3c f6 ff ff    	cmp    %eax,-0x9c4(%rbp)
    9217:	0f 94 c0             	sete   %al
    921a:	0f b6 c0             	movzbl %al,%eax
    921d:	39 85 3c f6 ff ff    	cmp    %eax,-0x9c4(%rbp)
    9223:	0f 9e c0             	setle  %al
    9226:	0f b6 c0             	movzbl %al,%eax
    9229:	89 05 4d 69 01 00    	mov    %eax,0x1694d(%rip)        # 1fb7c <g_564>
    922f:	8b 05 47 69 01 00    	mov    0x16947(%rip),%eax        # 1fb7c <g_564>
    9235:	89 de                	mov    %ebx,%esi
    9237:	89 c7                	mov    %eax,%edi
    9239:	e8 7a ec ff ff       	callq  7eb8 <safe_add_func_uint32_t_u_u>
    923e:	8b 15 9c 3f 01 00    	mov    0x13f9c(%rip),%edx        # 1d1e0 <g_65>
    9244:	31 d0                	xor    %edx,%eax
    9246:	89 c0                	mov    %eax,%eax
    9248:	49 39 c5             	cmp    %rax,%r13
    924b:	0f 94 c0             	sete   %al
    924e:	0f b6 c0             	movzbl %al,%eax
    9251:	48 be 9a b6 0f 9a 44 	movabs $0x28b10d449a0fb69a,%rsi
    9258:	0d b1 28 
    925b:	48 89 c7             	mov    %rax,%rdi
    925e:	e8 e8 ed ff ff       	callq  804b <safe_sub_func_uint64_t_u_u>
    9263:	89 c2                	mov    %eax,%edx
    9265:	8b 05 0d 69 01 00    	mov    0x1690d(%rip),%eax        # 1fb78 <g_558>
    926b:	09 c2                	or     %eax,%edx
    926d:	48 8b 05 ec 5b 01 00 	mov    0x15bec(%rip),%rax        # 1ee60 <g_615>
    9274:	48 8b 00             	mov    (%rax),%rax
    9277:	89 10                	mov    %edx,(%rax)
    9279:	8b 85 3c f6 ff ff    	mov    -0x9c4(%rbp),%eax
    927f:	eb 48                	jmp    92c9 <func_1+0xb14>
    9281:	48 8b 05 d8 3f 01 00 	mov    0x13fd8(%rip),%rax        # 1d260 <g_540>
    9288:	48 83 c0 01          	add    $0x1,%rax
    928c:	48 89 05 cd 3f 01 00 	mov    %rax,0x13fcd(%rip)        # 1d260 <g_540>
    9293:	48 8b 05 c6 3f 01 00 	mov    0x13fc6(%rip),%rax        # 1d260 <g_540>
    929a:	48 83 f8 01          	cmp    $0x1,%rax
    929e:	0f 8e c4 fc ff ff    	jle    8f68 <func_1+0x7b3>
    92a4:	8b 05 ce 68 01 00    	mov    0x168ce(%rip),%eax        # 1fb78 <g_558>
    92aa:	83 e8 01             	sub    $0x1,%eax
    92ad:	89 05 c5 68 01 00    	mov    %eax,0x168c5(%rip)        # 1fb78 <g_558>
    92b3:	8b 05 bf 68 01 00    	mov    0x168bf(%rip),%eax        # 1fb78 <g_558>
    92b9:	85 c0                	test   %eax,%eax
    92bb:	0f 89 60 fa ff ff    	jns    8d21 <func_1+0x56c>
    92c1:	0f b7 85 3e f7 ff ff 	movzwl -0x8c2(%rbp),%eax
    92c8:	98                   	cwtl   
    92c9:	48 8b 4d d8          	mov    -0x28(%rbp),%rcx
    92cd:	64 48 33 0c 25 28 00 	xor    %fs:0x28,%rcx
    92d4:	00 00 
    92d6:	74 05                	je     92dd <func_1+0xb28>
    92d8:	e8 93 dd ff ff       	callq  7070 <__stack_chk_fail@plt>
    92dd:	48 81 c4 f0 09 00 00 	add    $0x9f0,%rsp
    92e4:	5b                   	pop    %rbx
    92e5:	41 5c                	pop    %r12
    92e7:	41 5d                	pop    %r13
    92e9:	41 5e                	pop    %r14
    92eb:	5d                   	pop    %rbp
    92ec:	c3                   	retq   

00000000000092ed <func_2>:
    92ed:	f3 0f 1e fa          	endbr64 
    92f1:	55                   	push   %rbp
    92f2:	48 89 e5             	mov    %rsp,%rbp
    92f5:	41 57                	push   %r15
    92f7:	41 56                	push   %r14
    92f9:	41 55                	push   %r13
    92fb:	41 54                	push   %r12
    92fd:	53                   	push   %rbx
    92fe:	48 81 ec 00 10 00 00 	sub    $0x1000,%rsp
    9305:	48 83 0c 24 00       	orq    $0x0,(%rsp)
    930a:	48 81 ec 28 07 00 00 	sub    $0x728,%rsp
    9311:	89 f8                	mov    %edi,%eax
    9313:	88 85 bc e8 ff ff    	mov    %al,-0x1744(%rbp)
    9319:	64 48 8b 04 25 28 00 	mov    %fs:0x28,%rax
    9320:	00 00 
    9322:	48 89 45 c8          	mov    %rax,-0x38(%rbp)
    9326:	31 c0                	xor    %eax,%eax
    9328:	c7 85 f0 e8 ff ff 06 	movl   $0x6,-0x1710(%rbp)
    932f:	00 00 00 
    9332:	48 8d 85 20 ea ff ff 	lea    -0x15e0(%rbp),%rax
    9339:	48 83 c0 18          	add    $0x18,%rax
    933d:	48 89 85 28 e9 ff ff 	mov    %rax,-0x16d8(%rbp)
    9344:	48 8d 05 95 3e 01 00 	lea    0x13e95(%rip),%rax        # 1d1e0 <g_65>
    934b:	48 89 85 30 e9 ff ff 	mov    %rax,-0x16d0(%rbp)
    9352:	48 8d 05 fd 3e 01 00 	lea    0x13efd(%rip),%rax        # 1d256 <g_452>
    9359:	48 89 85 38 e9 ff ff 	mov    %rax,-0x16c8(%rbp)
    9360:	c7 85 cc e8 ff ff 04 	movl   $0x4,-0x1734(%rbp)
    9367:	00 00 00 
    936a:	c7 85 d0 e9 ff ff a6 	movl   $0x651302a6,-0x1630(%rbp)
    9371:	02 13 65 
    9374:	c7 85 d4 e9 ff ff a6 	movl   $0x651302a6,-0x162c(%rbp)
    937b:	02 13 65 
    937e:	c7 85 d8 e9 ff ff a6 	movl   $0x651302a6,-0x1628(%rbp)
    9385:	02 13 65 
    9388:	c7 85 dc e9 ff ff a6 	movl   $0x651302a6,-0x1624(%rbp)
    938f:	02 13 65 
    9392:	c7 85 e0 e9 ff ff a6 	movl   $0x651302a6,-0x1620(%rbp)
    9399:	02 13 65 
    939c:	c7 85 e4 e9 ff ff a6 	movl   $0x651302a6,-0x161c(%rbp)
    93a3:	02 13 65 
    93a6:	c7 85 e8 e9 ff ff a6 	movl   $0x651302a6,-0x1618(%rbp)
    93ad:	02 13 65 
    93b0:	48 8d 85 c0 f8 ff ff 	lea    -0x740(%rbp),%rax
    93b7:	48 8d 15 02 48 01 00 	lea    0x14802(%rip),%rdx        # 1dbc0 <g_1788+0x60>
    93be:	b9 e0 00 00 00       	mov    $0xe0,%ecx
    93c3:	48 89 c7             	mov    %rax,%rdi
    93c6:	48 89 d6             	mov    %rdx,%rsi
    93c9:	f3 48 a5             	rep movsq %ds:(%rsi),%es:(%rdi)
    93cc:	48 8d 05 69 3e 01 00 	lea    0x13e69(%rip),%rax        # 1d23c <g_215>
    93d3:	48 89 85 b0 ed ff ff 	mov    %rax,-0x1250(%rbp)
    93da:	48 8d 85 d0 e9 ff ff 	lea    -0x1630(%rbp),%rax
    93e1:	48 83 c0 18          	add    $0x18,%rax
    93e5:	48 89 85 b8 ed ff ff 	mov    %rax,-0x1248(%rbp)
    93ec:	48 8d 85 d0 e9 ff ff 	lea    -0x1630(%rbp),%rax
    93f3:	48 83 c0 18          	add    $0x18,%rax
    93f7:	48 89 85 c0 ed ff ff 	mov    %rax,-0x1240(%rbp)
    93fe:	48 8d 85 d0 e9 ff ff 	lea    -0x1630(%rbp),%rax
    9405:	48 83 c0 10          	add    $0x10,%rax
    9409:	48 89 85 c8 ed ff ff 	mov    %rax,-0x1238(%rbp)
    9410:	48 8d 05 25 3e 01 00 	lea    0x13e25(%rip),%rax        # 1d23c <g_215>
    9417:	48 89 85 d0 ed ff ff 	mov    %rax,-0x1230(%rbp)
    941e:	48 8d 05 5b 3e 01 00 	lea    0x13e5b(%rip),%rax        # 1d280 <g_617>
    9425:	48 89 85 d8 ed ff ff 	mov    %rax,-0x1228(%rbp)
    942c:	48 8d 05 4d 41 01 00 	lea    0x1414d(%rip),%rax        # 1d580 <g_1039>
    9433:	48 89 85 e0 ed ff ff 	mov    %rax,-0x1220(%rbp)
    943a:	48 c7 85 e8 ed ff ff 	movq   $0x0,-0x1218(%rbp)
    9441:	00 00 00 00 
    9445:	48 8d 85 cc e8 ff ff 	lea    -0x1734(%rbp),%rax
    944c:	48 89 85 f0 ed ff ff 	mov    %rax,-0x1210(%rbp)
    9453:	48 8d 85 d0 e9 ff ff 	lea    -0x1630(%rbp),%rax
    945a:	48 83 c0 10          	add    $0x10,%rax
    945e:	48 89 85 f8 ed ff ff 	mov    %rax,-0x1208(%rbp)
    9465:	48 c7 85 00 ee ff ff 	movq   $0x0,-0x1200(%rbp)
    946c:	00 00 00 00 
    9470:	48 8d 85 cc e8 ff ff 	lea    -0x1734(%rbp),%rax
    9477:	48 89 85 08 ee ff ff 	mov    %rax,-0x11f8(%rbp)
    947e:	48 c7 85 10 ee ff ff 	movq   $0x0,-0x11f0(%rbp)
    9485:	00 00 00 00 
    9489:	48 8d 85 cc e8 ff ff 	lea    -0x1734(%rbp),%rax
    9490:	48 89 85 18 ee ff ff 	mov    %rax,-0x11e8(%rbp)
    9497:	48 8d 85 d0 e9 ff ff 	lea    -0x1630(%rbp),%rax
    949e:	48 83 c0 18          	add    $0x18,%rax
    94a2:	48 89 85 20 ee ff ff 	mov    %rax,-0x11e0(%rbp)
    94a9:	48 8d 05 14 3d 01 00 	lea    0x13d14(%rip),%rax        # 1d1c4 <g_14>
    94b0:	48 89 85 28 ee ff ff 	mov    %rax,-0x11d8(%rbp)
    94b7:	48 8d 85 d0 e9 ff ff 	lea    -0x1630(%rbp),%rax
    94be:	48 83 c0 10          	add    $0x10,%rax
    94c2:	48 89 85 30 ee ff ff 	mov    %rax,-0x11d0(%rbp)
    94c9:	48 8d 05 10 3d 01 00 	lea    0x13d10(%rip),%rax        # 1d1e0 <g_65>
    94d0:	48 89 85 38 ee ff ff 	mov    %rax,-0x11c8(%rbp)
    94d7:	48 8d 85 d0 e9 ff ff 	lea    -0x1630(%rbp),%rax
    94de:	48 83 c0 10          	add    $0x10,%rax
    94e2:	48 89 85 40 ee ff ff 	mov    %rax,-0x11c0(%rbp)
    94e9:	48 8d 05 90 40 01 00 	lea    0x14090(%rip),%rax        # 1d580 <g_1039>
    94f0:	48 89 85 48 ee ff ff 	mov    %rax,-0x11b8(%rbp)
    94f7:	48 8d 85 d0 e9 ff ff 	lea    -0x1630(%rbp),%rax
    94fe:	48 83 c0 08          	add    $0x8,%rax
    9502:	48 89 85 50 ee ff ff 	mov    %rax,-0x11b0(%rbp)
    9509:	48 8d 05 2c 3d 01 00 	lea    0x13d2c(%rip),%rax        # 1d23c <g_215>
    9510:	48 89 85 58 ee ff ff 	mov    %rax,-0x11a8(%rbp)
    9517:	48 8d 05 1e 3d 01 00 	lea    0x13d1e(%rip),%rax        # 1d23c <g_215>
    951e:	48 89 85 60 ee ff ff 	mov    %rax,-0x11a0(%rbp)
    9525:	48 8d 05 94 3c 01 00 	lea    0x13c94(%rip),%rax        # 1d1c0 <g_11>
    952c:	48 89 85 68 ee ff ff 	mov    %rax,-0x1198(%rbp)
    9533:	48 8d 05 46 40 01 00 	lea    0x14046(%rip),%rax        # 1d580 <g_1039>
    953a:	48 89 85 70 ee ff ff 	mov    %rax,-0x1190(%rbp)
    9541:	48 c7 85 78 ee ff ff 	movq   $0x0,-0x1188(%rbp)
    9548:	00 00 00 00 
    954c:	48 8d 05 2d 3d 01 00 	lea    0x13d2d(%rip),%rax        # 1d280 <g_617>
    9553:	48 89 85 80 ee ff ff 	mov    %rax,-0x1180(%rbp)
    955a:	48 8d 05 7f 3c 01 00 	lea    0x13c7f(%rip),%rax        # 1d1e0 <g_65>
    9561:	48 89 85 88 ee ff ff 	mov    %rax,-0x1178(%rbp)
    9568:	48 c7 85 90 ee ff ff 	movq   $0x0,-0x1170(%rbp)
    956f:	00 00 00 00 
    9573:	48 8d 05 66 3c 01 00 	lea    0x13c66(%rip),%rax        # 1d1e0 <g_65>
    957a:	48 89 85 98 ee ff ff 	mov    %rax,-0x1168(%rbp)
    9581:	48 8d 85 d0 e9 ff ff 	lea    -0x1630(%rbp),%rax
    9588:	48 83 c0 08          	add    $0x8,%rax
    958c:	48 89 85 a0 ee ff ff 	mov    %rax,-0x1160(%rbp)
    9593:	48 8d 05 26 3c 01 00 	lea    0x13c26(%rip),%rax        # 1d1c0 <g_11>
    959a:	48 89 85 a8 ee ff ff 	mov    %rax,-0x1158(%rbp)
    95a1:	48 c7 85 b0 ee ff ff 	movq   $0x0,-0x1150(%rbp)
    95a8:	00 00 00 00 
    95ac:	48 c7 85 b8 ee ff ff 	movq   $0x0,-0x1148(%rbp)
    95b3:	00 00 00 00 
    95b7:	48 8d 05 c2 3f 01 00 	lea    0x13fc2(%rip),%rax        # 1d580 <g_1039>
    95be:	48 89 85 c0 ee ff ff 	mov    %rax,-0x1140(%rbp)
    95c5:	48 8d 85 cc e8 ff ff 	lea    -0x1734(%rbp),%rax
    95cc:	48 89 85 c8 ee ff ff 	mov    %rax,-0x1138(%rbp)
    95d3:	48 8d 85 d0 e9 ff ff 	lea    -0x1630(%rbp),%rax
    95da:	48 83 c0 18          	add    $0x18,%rax
    95de:	48 89 85 d0 ee ff ff 	mov    %rax,-0x1130(%rbp)
    95e5:	48 8d 05 d8 3b 01 00 	lea    0x13bd8(%rip),%rax        # 1d1c4 <g_14>
    95ec:	48 89 85 d8 ee ff ff 	mov    %rax,-0x1128(%rbp)
    95f3:	48 c7 85 e0 ee ff ff 	movq   $0x0,-0x1120(%rbp)
    95fa:	00 00 00 00 
    95fe:	48 8d 05 bb 3b 01 00 	lea    0x13bbb(%rip),%rax        # 1d1c0 <g_11>
    9605:	48 89 85 e8 ee ff ff 	mov    %rax,-0x1118(%rbp)
    960c:	48 8d 05 6d 3c 01 00 	lea    0x13c6d(%rip),%rax        # 1d280 <g_617>
    9613:	48 89 85 f0 ee ff ff 	mov    %rax,-0x1110(%rbp)
    961a:	48 8d 05 5f 3c 01 00 	lea    0x13c5f(%rip),%rax        # 1d280 <g_617>
    9621:	48 89 85 f8 ee ff ff 	mov    %rax,-0x1108(%rbp)
    9628:	48 8d 05 91 3b 01 00 	lea    0x13b91(%rip),%rax        # 1d1c0 <g_11>
    962f:	48 89 85 00 ef ff ff 	mov    %rax,-0x1100(%rbp)
    9636:	48 8d 05 87 3b 01 00 	lea    0x13b87(%rip),%rax        # 1d1c4 <g_14>
    963d:	48 89 85 08 ef ff ff 	mov    %rax,-0x10f8(%rbp)
    9644:	48 8d 85 d0 e9 ff ff 	lea    -0x1630(%rbp),%rax
    964b:	48 83 c0 18          	add    $0x18,%rax
    964f:	48 89 85 10 ef ff ff 	mov    %rax,-0x10f0(%rbp)
    9656:	48 8d 05 23 3f 01 00 	lea    0x13f23(%rip),%rax        # 1d580 <g_1039>
    965d:	48 89 85 18 ef ff ff 	mov    %rax,-0x10e8(%rbp)
    9664:	48 8d 05 75 3b 01 00 	lea    0x13b75(%rip),%rax        # 1d1e0 <g_65>
    966b:	48 89 85 20 ef ff ff 	mov    %rax,-0x10e0(%rbp)
    9672:	48 c7 85 28 ef ff ff 	movq   $0x0,-0x10d8(%rbp)
    9679:	00 00 00 00 
    967d:	48 c7 85 30 ef ff ff 	movq   $0x0,-0x10d0(%rbp)
    9684:	00 00 00 00 
    9688:	48 8d 05 f1 3b 01 00 	lea    0x13bf1(%rip),%rax        # 1d280 <g_617>
    968f:	48 89 85 38 ef ff ff 	mov    %rax,-0x10c8(%rbp)
    9696:	48 c7 85 40 ef ff ff 	movq   $0x0,-0x10c0(%rbp)
    969d:	00 00 00 00 
    96a1:	48 c7 85 48 ef ff ff 	movq   $0x0,-0x10b8(%rbp)
    96a8:	00 00 00 00 
    96ac:	48 8d 05 cd 3e 01 00 	lea    0x13ecd(%rip),%rax        # 1d580 <g_1039>
    96b3:	48 89 85 50 ef ff ff 	mov    %rax,-0x10b0(%rbp)
    96ba:	48 8d 85 d0 e9 ff ff 	lea    -0x1630(%rbp),%rax
    96c1:	48 83 c0 18          	add    $0x18,%rax
    96c5:	48 89 85 58 ef ff ff 	mov    %rax,-0x10a8(%rbp)
    96cc:	48 8d 85 d0 e9 ff ff 	lea    -0x1630(%rbp),%rax
    96d3:	48 83 c0 18          	add    $0x18,%rax
    96d7:	48 89 85 60 ef ff ff 	mov    %rax,-0x10a0(%rbp)
    96de:	48 8d 05 9b 3e 01 00 	lea    0x13e9b(%rip),%rax        # 1d580 <g_1039>
    96e5:	48 89 85 68 ef ff ff 	mov    %rax,-0x1098(%rbp)
    96ec:	48 c7 85 70 ef ff ff 	movq   $0x0,-0x1090(%rbp)
    96f3:	00 00 00 00 
    96f7:	48 8d 85 d0 e9 ff ff 	lea    -0x1630(%rbp),%rax
    96fe:	48 83 c0 18          	add    $0x18,%rax
    9702:	48 89 85 78 ef ff ff 	mov    %rax,-0x1088(%rbp)
    9709:	48 8d 05 70 3b 01 00 	lea    0x13b70(%rip),%rax        # 1d280 <g_617>
    9710:	48 89 85 80 ef ff ff 	mov    %rax,-0x1080(%rbp)
    9717:	48 8d 05 62 3b 01 00 	lea    0x13b62(%rip),%rax        # 1d280 <g_617>
    971e:	48 89 85 88 ef ff ff 	mov    %rax,-0x1078(%rbp)
    9725:	48 8d 05 54 3b 01 00 	lea    0x13b54(%rip),%rax        # 1d280 <g_617>
    972c:	48 89 85 90 ef ff ff 	mov    %rax,-0x1070(%rbp)
    9733:	48 c7 85 98 ef ff ff 	movq   $0x0,-0x1068(%rbp)
    973a:	00 00 00 00 
    973e:	48 8d 05 3b 3b 01 00 	lea    0x13b3b(%rip),%rax        # 1d280 <g_617>
    9745:	48 89 85 a0 ef ff ff 	mov    %rax,-0x1060(%rbp)
    974c:	48 8d 85 d0 e9 ff ff 	lea    -0x1630(%rbp),%rax
    9753:	48 83 c0 18          	add    $0x18,%rax
    9757:	48 89 85 a8 ef ff ff 	mov    %rax,-0x1058(%rbp)
    975e:	48 8d 05 7b 3a 01 00 	lea    0x13a7b(%rip),%rax        # 1d1e0 <g_65>
    9765:	48 89 85 b0 ef ff ff 	mov    %rax,-0x1050(%rbp)
    976c:	48 8d 85 cc e8 ff ff 	lea    -0x1734(%rbp),%rax
    9773:	48 89 85 b8 ef ff ff 	mov    %rax,-0x1048(%rbp)
    977a:	48 c7 85 c0 ef ff ff 	movq   $0x0,-0x1040(%rbp)
    9781:	00 00 00 00 
    9785:	48 8d 85 d0 e9 ff ff 	lea    -0x1630(%rbp),%rax
    978c:	48 83 c0 18          	add    $0x18,%rax
    9790:	48 89 85 c8 ef ff ff 	mov    %rax,-0x1038(%rbp)
    9797:	48 8d 85 d0 e9 ff ff 	lea    -0x1630(%rbp),%rax
    979e:	48 83 c0 08          	add    $0x8,%rax
    97a2:	48 89 85 d0 ef ff ff 	mov    %rax,-0x1030(%rbp)
    97a9:	48 c7 85 d8 ef ff ff 	movq   $0x0,-0x1028(%rbp)
    97b0:	00 00 00 00 
    97b4:	48 8d 05 05 3a 01 00 	lea    0x13a05(%rip),%rax        # 1d1c0 <g_11>
    97bb:	48 89 85 e0 ef ff ff 	mov    %rax,-0x1020(%rbp)
    97c2:	48 8d 05 b7 3a 01 00 	lea    0x13ab7(%rip),%rax        # 1d280 <g_617>
    97c9:	48 89 85 e8 ef ff ff 	mov    %rax,-0x1018(%rbp)
    97d0:	48 8d 05 ed 39 01 00 	lea    0x139ed(%rip),%rax        # 1d1c4 <g_14>
    97d7:	48 89 85 f0 ef ff ff 	mov    %rax,-0x1010(%rbp)
    97de:	48 8d 85 d0 e9 ff ff 	lea    -0x1630(%rbp),%rax
    97e5:	48 83 c0 18          	add    $0x18,%rax
    97e9:	48 89 85 f8 ef ff ff 	mov    %rax,-0x1008(%rbp)
    97f0:	48 8d 85 d0 e9 ff ff 	lea    -0x1630(%rbp),%rax
    97f7:	48 83 c0 18          	add    $0x18,%rax
    97fb:	48 89 85 00 f0 ff ff 	mov    %rax,-0x1000(%rbp)
    9802:	48 8d 05 77 3d 01 00 	lea    0x13d77(%rip),%rax        # 1d580 <g_1039>
    9809:	48 89 85 08 f0 ff ff 	mov    %rax,-0xff8(%rbp)
    9810:	48 8d 05 69 3a 01 00 	lea    0x13a69(%rip),%rax        # 1d280 <g_617>
    9817:	48 89 85 10 f0 ff ff 	mov    %rax,-0xff0(%rbp)
    981e:	48 8d 85 d0 e9 ff ff 	lea    -0x1630(%rbp),%rax
    9825:	48 83 c0 18          	add    $0x18,%rax
    9829:	48 89 85 18 f0 ff ff 	mov    %rax,-0xfe8(%rbp)
    9830:	48 8d 85 cc e8 ff ff 	lea    -0x1734(%rbp),%rax
    9837:	48 89 85 20 f0 ff ff 	mov    %rax,-0xfe0(%rbp)
    983e:	48 c7 85 28 f0 ff ff 	movq   $0x0,-0xfd8(%rbp)
    9845:	00 00 00 00 
    9849:	48 8d 85 cc e8 ff ff 	lea    -0x1734(%rbp),%rax
    9850:	48 89 85 30 f0 ff ff 	mov    %rax,-0xfd0(%rbp)
    9857:	48 8d 05 22 3a 01 00 	lea    0x13a22(%rip),%rax        # 1d280 <g_617>
    985e:	48 89 85 38 f0 ff ff 	mov    %rax,-0xfc8(%rbp)
    9865:	48 c7 85 40 f0 ff ff 	movq   $0x0,-0xfc0(%rbp)
    986c:	00 00 00 00 
    9870:	48 c7 85 48 f0 ff ff 	movq   $0x0,-0xfb8(%rbp)
    9877:	00 00 00 00 
    987b:	48 c7 85 50 f0 ff ff 	movq   $0x0,-0xfb0(%rbp)
    9882:	00 00 00 00 
    9886:	48 8d 05 f3 3c 01 00 	lea    0x13cf3(%rip),%rax        # 1d580 <g_1039>
    988d:	48 89 85 58 f0 ff ff 	mov    %rax,-0xfa8(%rbp)
    9894:	48 8d 85 d0 e9 ff ff 	lea    -0x1630(%rbp),%rax
    989b:	48 83 c0 18          	add    $0x18,%rax
    989f:	48 89 85 60 f0 ff ff 	mov    %rax,-0xfa0(%rbp)
    98a6:	48 8d 05 17 39 01 00 	lea    0x13917(%rip),%rax        # 1d1c4 <g_14>
    98ad:	48 89 85 68 f0 ff ff 	mov    %rax,-0xf98(%rbp)
    98b4:	48 8d 05 c5 39 01 00 	lea    0x139c5(%rip),%rax        # 1d280 <g_617>
    98bb:	48 89 85 70 f0 ff ff 	mov    %rax,-0xf90(%rbp)
    98c2:	48 8d 05 b7 39 01 00 	lea    0x139b7(%rip),%rax        # 1d280 <g_617>
    98c9:	48 89 85 78 f0 ff ff 	mov    %rax,-0xf88(%rbp)
    98d0:	48 8d 85 d0 e9 ff ff 	lea    -0x1630(%rbp),%rax
    98d7:	48 83 c0 18          	add    $0x18,%rax
    98db:	48 89 85 80 f0 ff ff 	mov    %rax,-0xf80(%rbp)
    98e2:	48 8d 05 d7 38 01 00 	lea    0x138d7(%rip),%rax        # 1d1c0 <g_11>
    98e9:	48 89 85 88 f0 ff ff 	mov    %rax,-0xf78(%rbp)
    98f0:	48 8d 85 cc e8 ff ff 	lea    -0x1734(%rbp),%rax
    98f7:	48 89 85 90 f0 ff ff 	mov    %rax,-0xf70(%rbp)
    98fe:	48 8d 05 bf 38 01 00 	lea    0x138bf(%rip),%rax        # 1d1c4 <g_14>
    9905:	48 89 85 98 f0 ff ff 	mov    %rax,-0xf68(%rbp)
    990c:	48 8d 05 29 39 01 00 	lea    0x13929(%rip),%rax        # 1d23c <g_215>
    9913:	48 89 85 a0 f0 ff ff 	mov    %rax,-0xf60(%rbp)
    991a:	48 8d 85 cc e8 ff ff 	lea    -0x1734(%rbp),%rax
    9921:	48 89 85 a8 f0 ff ff 	mov    %rax,-0xf58(%rbp)
    9928:	48 8d 85 cc e8 ff ff 	lea    -0x1734(%rbp),%rax
    992f:	48 89 85 b0 f0 ff ff 	mov    %rax,-0xf50(%rbp)
    9936:	48 c7 85 b8 f0 ff ff 	movq   $0x0,-0xf48(%rbp)
    993d:	00 00 00 00 
    9941:	48 8d 85 d0 e9 ff ff 	lea    -0x1630(%rbp),%rax
    9948:	48 83 c0 18          	add    $0x18,%rax
    994c:	48 89 85 c0 f0 ff ff 	mov    %rax,-0xf40(%rbp)
    9953:	48 8d 05 66 38 01 00 	lea    0x13866(%rip),%rax        # 1d1c0 <g_11>
    995a:	48 89 85 c8 f0 ff ff 	mov    %rax,-0xf38(%rbp)
    9961:	48 8d 05 58 38 01 00 	lea    0x13858(%rip),%rax        # 1d1c0 <g_11>
    9968:	48 89 85 d0 f0 ff ff 	mov    %rax,-0xf30(%rbp)
    996f:	48 8d 05 6a 38 01 00 	lea    0x1386a(%rip),%rax        # 1d1e0 <g_65>
    9976:	48 89 85 d8 f0 ff ff 	mov    %rax,-0xf28(%rbp)
    997d:	48 8d 05 5c 38 01 00 	lea    0x1385c(%rip),%rax        # 1d1e0 <g_65>
    9984:	48 89 85 e0 f0 ff ff 	mov    %rax,-0xf20(%rbp)
    998b:	48 8d 05 4e 38 01 00 	lea    0x1384e(%rip),%rax        # 1d1e0 <g_65>
    9992:	48 89 85 e8 f0 ff ff 	mov    %rax,-0xf18(%rbp)
    9999:	48 8d 85 d0 e9 ff ff 	lea    -0x1630(%rbp),%rax
    99a0:	48 83 c0 08          	add    $0x8,%rax
    99a4:	48 89 85 f0 f0 ff ff 	mov    %rax,-0xf10(%rbp)
    99ab:	48 c7 85 f8 f0 ff ff 	movq   $0x0,-0xf08(%rbp)
    99b2:	00 00 00 00 
    99b6:	48 8d 85 cc e8 ff ff 	lea    -0x1734(%rbp),%rax
    99bd:	48 89 85 00 f1 ff ff 	mov    %rax,-0xf00(%rbp)
    99c4:	48 8d 05 f5 37 01 00 	lea    0x137f5(%rip),%rax        # 1d1c0 <g_11>
    99cb:	48 89 85 08 f1 ff ff 	mov    %rax,-0xef8(%rbp)
    99d2:	48 8d 85 d0 e9 ff ff 	lea    -0x1630(%rbp),%rax
    99d9:	48 83 c0 18          	add    $0x18,%rax
    99dd:	48 89 85 10 f1 ff ff 	mov    %rax,-0xef0(%rbp)
    99e4:	48 8d 05 51 38 01 00 	lea    0x13851(%rip),%rax        # 1d23c <g_215>
    99eb:	48 89 85 18 f1 ff ff 	mov    %rax,-0xee8(%rbp)
    99f2:	48 8d 05 87 38 01 00 	lea    0x13887(%rip),%rax        # 1d280 <g_617>
    99f9:	48 89 85 20 f1 ff ff 	mov    %rax,-0xee0(%rbp)
    9a00:	48 8d 05 79 3b 01 00 	lea    0x13b79(%rip),%rax        # 1d580 <g_1039>
    9a07:	48 89 85 28 f1 ff ff 	mov    %rax,-0xed8(%rbp)
    9a0e:	48 8d 05 27 38 01 00 	lea    0x13827(%rip),%rax        # 1d23c <g_215>
    9a15:	48 89 85 30 f1 ff ff 	mov    %rax,-0xed0(%rbp)
    9a1c:	48 8d 05 bd 37 01 00 	lea    0x137bd(%rip),%rax        # 1d1e0 <g_65>
    9a23:	48 89 85 38 f1 ff ff 	mov    %rax,-0xec8(%rbp)
    9a2a:	48 8d 85 cc e8 ff ff 	lea    -0x1734(%rbp),%rax
    9a31:	48 89 85 40 f1 ff ff 	mov    %rax,-0xec0(%rbp)
    9a38:	48 8d 05 85 37 01 00 	lea    0x13785(%rip),%rax        # 1d1c4 <g_14>
    9a3f:	48 89 85 48 f1 ff ff 	mov    %rax,-0xeb8(%rbp)
    9a46:	48 c7 85 50 f1 ff ff 	movq   $0x0,-0xeb0(%rbp)
    9a4d:	00 00 00 00 
    9a51:	48 8d 85 cc e8 ff ff 	lea    -0x1734(%rbp),%rax
    9a58:	48 89 85 58 f1 ff ff 	mov    %rax,-0xea8(%rbp)
    9a5f:	48 c7 85 60 f1 ff ff 	movq   $0x0,-0xea0(%rbp)
    9a66:	00 00 00 00 
    9a6a:	48 8d 85 cc e8 ff ff 	lea    -0x1734(%rbp),%rax
    9a71:	48 89 85 68 f1 ff ff 	mov    %rax,-0xe98(%rbp)
    9a78:	48 8d 05 61 37 01 00 	lea    0x13761(%rip),%rax        # 1d1e0 <g_65>
    9a7f:	48 89 85 70 f1 ff ff 	mov    %rax,-0xe90(%rbp)
    9a86:	48 8d 85 d0 e9 ff ff 	lea    -0x1630(%rbp),%rax
    9a8d:	48 83 c0 10          	add    $0x10,%rax
    9a91:	48 89 85 78 f1 ff ff 	mov    %rax,-0xe88(%rbp)
    9a98:	48 c7 85 80 f1 ff ff 	movq   $0x0,-0xe80(%rbp)
    9a9f:	00 00 00 00 
    9aa3:	48 c7 85 88 f1 ff ff 	movq   $0x0,-0xe78(%rbp)
    9aaa:	00 00 00 00 
    9aae:	48 8d 85 cc e8 ff ff 	lea    -0x1734(%rbp),%rax
    9ab5:	48 89 85 90 f1 ff ff 	mov    %rax,-0xe70(%rbp)
    9abc:	48 8d 05 bd 37 01 00 	lea    0x137bd(%rip),%rax        # 1d280 <g_617>
    9ac3:	48 89 85 98 f1 ff ff 	mov    %rax,-0xe68(%rbp)
    9aca:	48 8d 85 d0 e9 ff ff 	lea    -0x1630(%rbp),%rax
    9ad1:	48 83 c0 10          	add    $0x10,%rax
    9ad5:	48 89 85 a0 f1 ff ff 	mov    %rax,-0xe60(%rbp)
    9adc:	48 8d 85 d0 e9 ff ff 	lea    -0x1630(%rbp),%rax
    9ae3:	48 83 c0 10          	add    $0x10,%rax
    9ae7:	48 89 85 a8 f1 ff ff 	mov    %rax,-0xe58(%rbp)
    9aee:	48 8d 85 d0 e9 ff ff 	lea    -0x1630(%rbp),%rax
    9af5:	48 83 c0 18          	add    $0x18,%rax
    9af9:	48 89 85 b0 f1 ff ff 	mov    %rax,-0xe50(%rbp)
    9b00:	48 8d 85 d0 e9 ff ff 	lea    -0x1630(%rbp),%rax
    9b07:	48 83 c0 18          	add    $0x18,%rax
    9b0b:	48 89 85 b8 f1 ff ff 	mov    %rax,-0xe48(%rbp)
    9b12:	48 8d 85 d0 e9 ff ff 	lea    -0x1630(%rbp),%rax
    9b19:	48 83 c0 10          	add    $0x10,%rax
    9b1d:	48 89 85 c0 f1 ff ff 	mov    %rax,-0xe40(%rbp)
    9b24:	48 c7 85 c8 f1 ff ff 	movq   $0x0,-0xe38(%rbp)
    9b2b:	00 00 00 00 
    9b2f:	48 8d 85 cc e8 ff ff 	lea    -0x1734(%rbp),%rax
    9b36:	48 89 85 d0 f1 ff ff 	mov    %rax,-0xe30(%rbp)
    9b3d:	48 c7 85 d8 f1 ff ff 	movq   $0x0,-0xe28(%rbp)
    9b44:	00 00 00 00 
    9b48:	48 c7 85 e0 f1 ff ff 	movq   $0x0,-0xe20(%rbp)
    9b4f:	00 00 00 00 
    9b53:	48 8d 05 6a 36 01 00 	lea    0x1366a(%rip),%rax        # 1d1c4 <g_14>
    9b5a:	48 89 85 e8 f1 ff ff 	mov    %rax,-0xe18(%rbp)
    9b61:	48 8d 05 78 36 01 00 	lea    0x13678(%rip),%rax        # 1d1e0 <g_65>
    9b68:	48 89 85 f0 f1 ff ff 	mov    %rax,-0xe10(%rbp)
    9b6f:	48 8d 85 d0 e9 ff ff 	lea    -0x1630(%rbp),%rax
    9b76:	48 83 c0 18          	add    $0x18,%rax
    9b7a:	48 89 85 f8 f1 ff ff 	mov    %rax,-0xe08(%rbp)
    9b81:	48 c7 85 00 f2 ff ff 	movq   $0x0,-0xe00(%rbp)
    9b88:	00 00 00 00 
    9b8c:	48 8d 05 4d 36 01 00 	lea    0x1364d(%rip),%rax        # 1d1e0 <g_65>
    9b93:	48 89 85 08 f2 ff ff 	mov    %rax,-0xdf8(%rbp)
    9b9a:	48 c7 85 10 f2 ff ff 	movq   $0x0,-0xdf0(%rbp)
    9ba1:	00 00 00 00 
    9ba5:	48 8d 05 d4 39 01 00 	lea    0x139d4(%rip),%rax        # 1d580 <g_1039>
    9bac:	48 89 85 18 f2 ff ff 	mov    %rax,-0xde8(%rbp)
    9bb3:	48 8d 05 c6 39 01 00 	lea    0x139c6(%rip),%rax        # 1d580 <g_1039>
    9bba:	48 89 85 20 f2 ff ff 	mov    %rax,-0xde0(%rbp)
    9bc1:	48 8d 85 d0 e9 ff ff 	lea    -0x1630(%rbp),%rax
    9bc8:	48 83 c0 18          	add    $0x18,%rax
    9bcc:	48 89 85 28 f2 ff ff 	mov    %rax,-0xdd8(%rbp)
    9bd3:	c7 85 ec e8 ff ff 00 	movl   $0x0,-0x1714(%rbp)
    9bda:	00 00 00 
    9bdd:	eb 1e                	jmp    9bfd <func_2+0x910>
    9bdf:	8b 85 ec e8 ff ff    	mov    -0x1714(%rbp),%eax
    9be5:	48 98                	cltq   
    9be7:	48 8d 15 42 36 01 00 	lea    0x13642(%rip),%rdx        # 1d230 <g_129>
    9bee:	48 89 94 c5 20 ea ff 	mov    %rdx,-0x15e0(%rbp,%rax,8)
    9bf5:	ff 
    9bf6:	83 85 ec e8 ff ff 01 	addl   $0x1,-0x1714(%rbp)
    9bfd:	83 bd ec e8 ff ff 08 	cmpl   $0x8,-0x1714(%rbp)
    9c04:	7e d9                	jle    9bdf <func_2+0x8f2>
    9c06:	c7 85 ec e8 ff ff 00 	movl   $0x0,-0x1714(%rbp)
    9c0d:	00 00 00 
    9c10:	eb 1b                	jmp    9c2d <func_2+0x940>
    9c12:	8b 85 ec e8 ff ff    	mov    -0x1714(%rbp),%eax
    9c18:	48 98                	cltq   
    9c1a:	48 c7 84 c5 a0 e9 ff 	movq   $0x0,-0x1660(%rbp,%rax,8)
    9c21:	ff 00 00 00 00 
    9c26:	83 85 ec e8 ff ff 01 	addl   $0x1,-0x1714(%rbp)
    9c2d:	83 bd ec e8 ff ff 01 	cmpl   $0x1,-0x1714(%rbp)
    9c34:	7e dc                	jle    9c12 <func_2+0x925>
    9c36:	48 8b 05 03 4c 01 00 	mov    0x14c03(%rip),%rax        # 1e840 <g_5>
    9c3d:	48 85 c0             	test   %rax,%rax
    9c40:	0f 85 a1 12 00 00    	jne    aee7 <func_2+0x1bfa>
    9c46:	66 c7 85 ca e8 ff ff 	movw   $0x0,-0x1736(%rbp)
    9c4d:	00 00 
    9c4f:	48 8d 05 ea 35 01 00 	lea    0x135ea(%rip),%rax        # 1d240 <g_231>
    9c56:	48 89 85 08 e9 ff ff 	mov    %rax,-0x16f8(%rbp)
    9c5d:	48 8d 85 08 e9 ff ff 	lea    -0x16f8(%rbp),%rax
    9c64:	48 89 85 48 e9 ff ff 	mov    %rax,-0x16b8(%rbp)
    9c6b:	c7 85 d0 e8 ff ff 76 	movl   $0xf0469876,-0x1730(%rbp)
    9c72:	98 46 f0 
    9c75:	48 8d 85 00 ec ff ff 	lea    -0x1400(%rbp),%rax
    9c7c:	48 8d 15 3d ea 00 00 	lea    0xea3d(%rip),%rdx        # 186c0 <g_1645+0x640>
    9c83:	b9 36 00 00 00       	mov    $0x36,%ecx
    9c88:	48 89 c7             	mov    %rax,%rdi
    9c8b:	48 89 d6             	mov    %rdx,%rsi
    9c8e:	f3 48 a5             	rep movsq %ds:(%rsi),%es:(%rdi)
    9c91:	c7 85 f8 e8 ff ff f8 	movl   $0xa170bef8,-0x1708(%rbp)
    9c98:	be 70 a1 
    9c9b:	48 c7 85 20 e9 ff ff 	movq   $0x1,-0x16e0(%rbp)
    9ca2:	01 00 00 00 
    9ca6:	c6 85 bc e8 ff ff f4 	movb   $0xf4,-0x1744(%rbp)
    9cad:	e9 23 12 00 00       	jmpq   aed5 <func_2+0x1be8>
    9cb2:	c7 85 fc e8 ff ff fb 	movl   $0xfffffffb,-0x1704(%rbp)
    9cb9:	ff ff ff 
    9cbc:	48 8d 05 9d 4c 01 00 	lea    0x14c9d(%rip),%rax        # 1e960 <g_228>
    9cc3:	48 89 85 50 e9 ff ff 	mov    %rax,-0x16b0(%rbp)
    9cca:	48 8d 05 2f 53 01 00 	lea    0x1532f(%rip),%rax        # 1f000 <g_967>
    9cd1:	48 89 85 58 e9 ff ff 	mov    %rax,-0x16a8(%rbp)
    9cd8:	48 8d 05 81 35 01 00 	lea    0x13581(%rip),%rax        # 1d260 <g_540>
    9cdf:	48 89 85 10 e9 ff ff 	mov    %rax,-0x16f0(%rbp)
    9ce6:	48 8d 85 d0 e8 ff ff 	lea    -0x1730(%rbp),%rax
    9ced:	48 89 85 60 e9 ff ff 	mov    %rax,-0x16a0(%rbp)
    9cf4:	48 c7 85 68 e9 ff ff 	movq   $0x0,-0x1698(%rbp)
    9cfb:	00 00 00 00 
    9cff:	c7 85 d4 e8 ff ff 00 	movl   $0x0,-0x172c(%rbp)
    9d06:	00 00 00 
    9d09:	eb 1e                	jmp    9d29 <func_2+0xa3c>
    9d0b:	8b 85 d4 e8 ff ff    	mov    -0x172c(%rbp),%eax
    9d11:	48 98                	cltq   
    9d13:	48 8d 95 10 e9 ff ff 	lea    -0x16f0(%rbp),%rdx
    9d1a:	48 89 94 c5 b0 e9 ff 	mov    %rdx,-0x1650(%rbp,%rax,8)
    9d21:	ff 
    9d22:	83 85 d4 e8 ff ff 01 	addl   $0x1,-0x172c(%rbp)
    9d29:	83 bd d4 e8 ff ff 02 	cmpl   $0x2,-0x172c(%rbp)
    9d30:	7e d9                	jle    9d0b <func_2+0xa1e>
    9d32:	c7 85 d4 e8 ff ff 00 	movl   $0x0,-0x172c(%rbp)
    9d39:	00 00 00 
    9d3c:	eb 51                	jmp    9d8f <func_2+0xaa2>
    9d3e:	c7 85 d8 e8 ff ff 00 	movl   $0x0,-0x1728(%rbp)
    9d45:	00 00 00 
    9d48:	eb 35                	jmp    9d7f <func_2+0xa92>
    9d4a:	8b 85 d8 e8 ff ff    	mov    -0x1728(%rbp),%eax
    9d50:	48 63 c8             	movslq %eax,%rcx
    9d53:	8b 85 d4 e8 ff ff    	mov    -0x172c(%rbp),%eax
    9d59:	48 63 d0             	movslq %eax,%rdx
    9d5c:	48 89 d0             	mov    %rdx,%rax
    9d5f:	48 c1 e0 03          	shl    $0x3,%rax
    9d63:	48 29 d0             	sub    %rdx,%rax
    9d66:	48 01 c8             	add    %rcx,%rax
    9d69:	48 8d 15 54 34 01 00 	lea    0x13454(%rip),%rdx        # 1d1c4 <g_14>
    9d70:	48 89 94 c5 70 ea ff 	mov    %rdx,-0x1590(%rbp,%rax,8)
    9d77:	ff 
    9d78:	83 85 d8 e8 ff ff 01 	addl   $0x1,-0x1728(%rbp)
    9d7f:	83 bd d8 e8 ff ff 06 	cmpl   $0x6,-0x1728(%rbp)
    9d86:	7e c2                	jle    9d4a <func_2+0xa5d>
    9d88:	83 85 d4 e8 ff ff 01 	addl   $0x1,-0x172c(%rbp)
    9d8f:	83 bd d4 e8 ff ff 06 	cmpl   $0x6,-0x172c(%rbp)
    9d96:	7e a6                	jle    9d3e <func_2+0xa51>
    9d98:	c7 05 1e 34 01 00 00 	movl   $0x0,0x1341e(%rip)        # 1d1c0 <g_11>
    9d9f:	00 00 00 
    9da2:	eb 72                	jmp    9e16 <func_2+0xb29>
    9da4:	48 8b 05 95 4a 01 00 	mov    0x14a95(%rip),%rax        # 1e840 <g_5>
    9dab:	8b 00                	mov    (%rax),%eax
    9dad:	85 c0                	test   %eax,%eax
    9daf:	75 72                	jne    9e23 <func_2+0xb36>
    9db1:	c7 05 09 34 01 00 07 	movl   $0x7,0x13409(%rip)        # 1d1c4 <g_14>
    9db8:	00 00 00 
    9dbb:	eb 3d                	jmp    9dfa <func_2+0xb0d>
    9dbd:	48 8d 05 00 34 01 00 	lea    0x13400(%rip),%rax        # 1d1c4 <g_14>
    9dc4:	48 89 85 70 e9 ff ff 	mov    %rax,-0x1690(%rbp)
    9dcb:	80 bd bc e8 ff ff 00 	cmpb   $0x0,-0x1744(%rbp)
    9dd2:	75 32                	jne    9e06 <func_2+0xb19>
    9dd4:	83 bd fc e8 ff ff 00 	cmpl   $0x0,-0x1704(%rbp)
    9ddb:	74 11                	je     9dee <func_2+0xb01>
    9ddd:	8b 05 e1 33 01 00    	mov    0x133e1(%rip),%eax        # 1d1c4 <g_14>
    9de3:	83 e8 01             	sub    $0x1,%eax
    9de6:	89 05 d8 33 01 00    	mov    %eax,0x133d8(%rip)        # 1d1c4 <g_14>
    9dec:	eb 0c                	jmp    9dfa <func_2+0xb0d>
    9dee:	48 8b 85 70 e9 ff ff 	mov    -0x1690(%rbp),%rax
    9df5:	e9 a3 11 00 00       	jmpq   af9d <func_2+0x1cb0>
    9dfa:	8b 05 c4 33 01 00    	mov    0x133c4(%rip),%eax        # 1d1c4 <g_14>
    9e00:	85 c0                	test   %eax,%eax
    9e02:	79 b9                	jns    9dbd <func_2+0xad0>
    9e04:	eb 01                	jmp    9e07 <func_2+0xb1a>
    9e06:	90                   	nop
    9e07:	8b 05 b3 33 01 00    	mov    0x133b3(%rip),%eax        # 1d1c0 <g_11>
    9e0d:	83 e8 01             	sub    $0x1,%eax
    9e10:	89 05 aa 33 01 00    	mov    %eax,0x133aa(%rip)        # 1d1c0 <g_11>
    9e16:	8b 05 a4 33 01 00    	mov    0x133a4(%rip),%eax        # 1d1c0 <g_11>
    9e1c:	83 f8 fe             	cmp    $0xfffffffe,%eax
    9e1f:	7c 83                	jl     9da4 <func_2+0xab7>
    9e21:	eb 01                	jmp    9e24 <func_2+0xb37>
    9e23:	90                   	nop
    9e24:	80 bd bc e8 ff ff 00 	cmpb   $0x0,-0x1744(%rbp)
    9e2b:	0f 85 8a 10 00 00    	jne    aebb <func_2+0x1bce>
    9e31:	c7 05 85 33 01 00 00 	movl   $0x0,0x13385(%rip)        # 1d1c0 <g_11>
    9e38:	00 00 00 
    9e3b:	e9 62 10 00 00       	jmpq   aea2 <func_2+0x1bb5>
    9e40:	48 8d 05 01 4a 01 00 	lea    0x14a01(%rip),%rax        # 1e848 <g_39>
    9e47:	48 89 85 78 e9 ff ff 	mov    %rax,-0x1688(%rbp)
    9e4e:	c7 85 00 e9 ff ff 01 	movl   $0x1,-0x1700(%rbp)
    9e55:	00 00 00 
    9e58:	48 8d 05 61 37 01 00 	lea    0x13761(%rip),%rax        # 1d5c0 <g_1094+0x20>
    9e5f:	48 89 85 f0 e9 ff ff 	mov    %rax,-0x1610(%rbp)
    9e66:	48 8d 05 53 37 01 00 	lea    0x13753(%rip),%rax        # 1d5c0 <g_1094+0x20>
    9e6d:	48 89 85 f8 e9 ff ff 	mov    %rax,-0x1608(%rbp)
    9e74:	48 8d 05 45 37 01 00 	lea    0x13745(%rip),%rax        # 1d5c0 <g_1094+0x20>
    9e7b:	48 89 85 00 ea ff ff 	mov    %rax,-0x1600(%rbp)
    9e82:	48 8d 05 37 37 01 00 	lea    0x13737(%rip),%rax        # 1d5c0 <g_1094+0x20>
    9e89:	48 89 85 08 ea ff ff 	mov    %rax,-0x15f8(%rbp)
    9e90:	48 8d 05 29 37 01 00 	lea    0x13729(%rip),%rax        # 1d5c0 <g_1094+0x20>
    9e97:	48 89 85 10 ea ff ff 	mov    %rax,-0x15f0(%rbp)
    9e9e:	48 8d 05 1b 37 01 00 	lea    0x1371b(%rip),%rax        # 1d5c0 <g_1094+0x20>
    9ea5:	48 89 85 18 ea ff ff 	mov    %rax,-0x15e8(%rbp)
    9eac:	48 8d 05 e9 38 01 00 	lea    0x138e9(%rip),%rax        # 1d79c <g_1262>
    9eb3:	48 89 85 80 e9 ff ff 	mov    %rax,-0x1680(%rbp)
    9eba:	48 8d 3d 03 33 01 00 	lea    0x13303(%rip),%rdi        # 1d1c4 <g_14>
    9ec1:	e8 fd 10 00 00       	callq  afc3 <func_17>
    9ec6:	8b 05 f4 32 01 00    	mov    0x132f4(%rip),%eax        # 1d1c0 <g_11>
    9ecc:	8d 50 02             	lea    0x2(%rax),%edx
    9ecf:	8b 05 eb 32 01 00    	mov    0x132eb(%rip),%eax        # 1d1c0 <g_11>
    9ed5:	48 63 c8             	movslq %eax,%rcx
    9ed8:	48 63 d2             	movslq %edx,%rdx
    9edb:	48 89 d0             	mov    %rdx,%rax
    9ede:	48 01 c0             	add    %rax,%rax
    9ee1:	48 01 d0             	add    %rdx,%rax
    9ee4:	48 01 c0             	add    %rax,%rax
    9ee7:	48 01 c8             	add    %rcx,%rax
    9eea:	48 8d 14 85 00 00 00 	lea    0x0(,%rax,4),%rdx
    9ef1:	00 
    9ef2:	48 8d 05 07 32 01 00 	lea    0x13207(%rip),%rax        # 1d100 <g_10>
    9ef9:	8b 04 02             	mov    (%rdx,%rax,1),%eax
    9efc:	85 c0                	test   %eax,%eax
    9efe:	75 0d                	jne    9f0d <func_2+0xc20>
    9f00:	80 bd bc e8 ff ff 00 	cmpb   $0x0,-0x1744(%rbp)
    9f07:	0f 84 c2 00 00 00    	je     9fcf <func_2+0xce2>
    9f0d:	c7 85 dc e8 ff ff 00 	movl   $0x0,-0x1724(%rbp)
    9f14:	00 00 00 
    9f17:	eb 7f                	jmp    9f98 <func_2+0xcab>
    9f19:	c7 85 e0 e8 ff ff 00 	movl   $0x0,-0x1720(%rbp)
    9f20:	00 00 00 
    9f23:	eb 63                	jmp    9f88 <func_2+0xc9b>
    9f25:	c7 85 e4 e8 ff ff 00 	movl   $0x0,-0x171c(%rbp)
    9f2c:	00 00 00 
    9f2f:	eb 47                	jmp    9f78 <func_2+0xc8b>
    9f31:	8b 85 e4 e8 ff ff    	mov    -0x171c(%rbp),%eax
    9f37:	48 63 c8             	movslq %eax,%rcx
    9f3a:	8b 85 dc e8 ff ff    	mov    -0x1724(%rbp),%eax
    9f40:	48 63 d0             	movslq %eax,%rdx
    9f43:	8b 85 e0 e8 ff ff    	mov    -0x1720(%rbp),%eax
    9f49:	48 63 f0             	movslq %eax,%rsi
    9f4c:	48 89 d0             	mov    %rdx,%rax
    9f4f:	48 01 c0             	add    %rax,%rax
    9f52:	48 01 d0             	add    %rdx,%rax
    9f55:	48 01 c0             	add    %rax,%rax
    9f58:	48 01 f0             	add    %rsi,%rax
    9f5b:	48 c1 e0 02          	shl    $0x2,%rax
    9f5f:	48 01 c8             	add    %rcx,%rax
    9f62:	48 8d 15 d3 32 01 00 	lea    0x132d3(%rip),%rdx        # 1d23c <g_215>
    9f69:	48 89 94 c5 30 f2 ff 	mov    %rdx,-0xdd0(%rbp,%rax,8)
    9f70:	ff 
    9f71:	83 85 e4 e8 ff ff 01 	addl   $0x1,-0x171c(%rbp)
    9f78:	83 bd e4 e8 ff ff 03 	cmpl   $0x3,-0x171c(%rbp)
    9f7f:	7e b0                	jle    9f31 <func_2+0xc44>
    9f81:	83 85 e0 e8 ff ff 01 	addl   $0x1,-0x1720(%rbp)
    9f88:	83 bd e0 e8 ff ff 05 	cmpl   $0x5,-0x1720(%rbp)
    9f8f:	7e 94                	jle    9f25 <func_2+0xc38>
    9f91:	83 85 dc e8 ff ff 01 	addl   $0x1,-0x1724(%rbp)
    9f98:	83 bd dc e8 ff ff 00 	cmpl   $0x0,-0x1724(%rbp)
    9f9f:	0f 8e 74 ff ff ff    	jle    9f19 <func_2+0xc2c>
    9fa5:	c7 05 15 32 01 00 05 	movl   $0x5,0x13215(%rip)        # 1d1c4 <g_14>
    9fac:	00 00 00 
    9faf:	eb 0f                	jmp    9fc0 <func_2+0xcd3>
    9fb1:	8b 05 0d 32 01 00    	mov    0x1320d(%rip),%eax        # 1d1c4 <g_14>
    9fb7:	83 e8 01             	sub    $0x1,%eax
    9fba:	89 05 04 32 01 00    	mov    %eax,0x13204(%rip)        # 1d1c4 <g_14>
    9fc0:	8b 05 fe 31 01 00    	mov    0x131fe(%rip),%eax        # 1d1c4 <g_14>
    9fc6:	85 c0                	test   %eax,%eax
    9fc8:	79 e7                	jns    9fb1 <func_2+0xcc4>
    9fca:	e9 0b 01 00 00       	jmpq   a0da <func_2+0xded>
    9fcf:	48 c7 85 88 e9 ff ff 	movq   $0x0,-0x1678(%rbp)
    9fd6:	00 00 00 00 
    9fda:	c7 85 04 e9 ff ff 00 	movl   $0x68d00500,-0x16fc(%rbp)
    9fe1:	05 d0 68 
    9fe4:	48 8d 85 20 ea ff ff 	lea    -0x15e0(%rbp),%rax
    9feb:	48 83 c0 18          	add    $0x18,%rax
    9fef:	48 89 85 90 e9 ff ff 	mov    %rax,-0x1670(%rbp)
    9ff6:	8b 05 c4 31 01 00    	mov    0x131c4(%rip),%eax        # 1d1c0 <g_11>
    9ffc:	8d 50 02             	lea    0x2(%rax),%edx
    9fff:	8b 05 bb 31 01 00    	mov    0x131bb(%rip),%eax        # 1d1c0 <g_11>
    a005:	48 63 c8             	movslq %eax,%rcx
    a008:	48 63 d2             	movslq %edx,%rdx
    a00b:	48 89 d0             	mov    %rdx,%rax
    a00e:	48 01 c0             	add    %rax,%rax
    a011:	48 01 d0             	add    %rdx,%rax
    a014:	48 01 c0             	add    %rax,%rax
    a017:	48 01 c8             	add    %rcx,%rax
    a01a:	48 8d 14 85 00 00 00 	lea    0x0(,%rax,4),%rdx
    a021:	00 
    a022:	48 8d 05 d7 30 01 00 	lea    0x130d7(%rip),%rax        # 1d100 <g_10>
    a029:	8b 0c 02             	mov    (%rdx,%rax,1),%ecx
    a02c:	0f be 95 bc e8 ff ff 	movsbl -0x1744(%rbp),%edx
    a033:	8b 05 87 31 01 00    	mov    0x13187(%rip),%eax        # 1d1c0 <g_11>
    a039:	8d 78 02             	lea    0x2(%rax),%edi
    a03c:	8b 05 7e 31 01 00    	mov    0x1317e(%rip),%eax        # 1d1c0 <g_11>
    a042:	09 d1                	or     %edx,%ecx
    a044:	48 63 f0             	movslq %eax,%rsi
    a047:	48 63 d7             	movslq %edi,%rdx
    a04a:	48 89 d0             	mov    %rdx,%rax
    a04d:	48 01 c0             	add    %rax,%rax
    a050:	48 01 d0             	add    %rdx,%rax
    a053:	48 01 c0             	add    %rax,%rax
    a056:	48 01 f0             	add    %rsi,%rax
    a059:	48 8d 14 85 00 00 00 	lea    0x0(,%rax,4),%rdx
    a060:	00 
    a061:	48 8d 05 98 30 01 00 	lea    0x13098(%rip),%rax        # 1d100 <g_10>
    a068:	89 0c 02             	mov    %ecx,(%rdx,%rax,1)
    a06b:	c7 05 07 5b 01 00 00 	movl   $0x0,0x15b07(%rip)        # 1fb7c <g_564>
    a072:	00 00 00 
    a075:	eb 33                	jmp    a0aa <func_2+0xdbd>
    a077:	80 bd bc e8 ff ff 00 	cmpb   $0x0,-0x1744(%rbp)
    a07e:	75 37                	jne    a0b7 <func_2+0xdca>
    a080:	48 8b 05 d9 4d 01 00 	mov    0x14dd9(%rip),%rax        # 1ee60 <g_615>
    a087:	48 8b 00             	mov    (%rax),%rax
    a08a:	8b 95 f0 e8 ff ff    	mov    -0x1710(%rbp),%edx
    a090:	89 10                	mov    %edx,(%rax)
    a092:	83 bd 04 e9 ff ff 00 	cmpl   $0x0,-0x16fc(%rbp)
    a099:	75 1f                	jne    a0ba <func_2+0xdcd>
    a09b:	8b 05 db 5a 01 00    	mov    0x15adb(%rip),%eax        # 1fb7c <g_564>
    a0a1:	83 c0 01             	add    $0x1,%eax
    a0a4:	89 05 d2 5a 01 00    	mov    %eax,0x15ad2(%rip)        # 1fb7c <g_564>
    a0aa:	8b 05 cc 5a 01 00    	mov    0x15acc(%rip),%eax        # 1fb7c <g_564>
    a0b0:	83 f8 02             	cmp    $0x2,%eax
    a0b3:	76 c2                	jbe    a077 <func_2+0xd8a>
    a0b5:	eb 04                	jmp    a0bb <func_2+0xdce>
    a0b7:	90                   	nop
    a0b8:	eb 01                	jmp    a0bb <func_2+0xdce>
    a0ba:	90                   	nop
    a0bb:	48 8b 05 9e 54 01 00 	mov    0x1549e(%rip),%rax        # 1f560 <g_1224>
    a0c2:	48 8b 15 cf 5a 01 00 	mov    0x15acf(%rip),%rdx        # 1fb98 <g_1222>
    a0c9:	48 89 10             	mov    %rdx,(%rax)
    a0cc:	48 8b 85 28 e9 ff ff 	mov    -0x16d8(%rbp),%rax
    a0d3:	48 89 85 90 e9 ff ff 	mov    %rax,-0x1670(%rbp)
    a0da:	c7 05 64 31 01 00 00 	movl   $0x0,0x13164(%rip)        # 1d248 <g_236>
    a0e1:	00 00 00 
    a0e4:	e9 8f 0b 00 00       	jmpq   ac78 <func_2+0x198b>
    a0e9:	48 8d 05 68 31 01 00 	lea    0x13168(%rip),%rax        # 1d258 <g_523>
    a0f0:	48 89 85 18 e9 ff ff 	mov    %rax,-0x16e8(%rbp)
    a0f7:	48 c7 85 30 f2 ff ff 	movq   $0x0,-0xdd0(%rbp)
    a0fe:	00 00 00 00 
    a102:	48 8d 85 18 e9 ff ff 	lea    -0x16e8(%rbp),%rax
    a109:	48 89 85 38 f2 ff ff 	mov    %rax,-0xdc8(%rbp)
    a110:	48 8d 85 18 e9 ff ff 	lea    -0x16e8(%rbp),%rax
    a117:	48 89 85 40 f2 ff ff 	mov    %rax,-0xdc0(%rbp)
    a11e:	48 8d 85 18 e9 ff ff 	lea    -0x16e8(%rbp),%rax
    a125:	48 89 85 48 f2 ff ff 	mov    %rax,-0xdb8(%rbp)
    a12c:	48 c7 85 50 f2 ff ff 	movq   $0x0,-0xdb0(%rbp)
    a133:	00 00 00 00 
    a137:	48 8d 85 18 e9 ff ff 	lea    -0x16e8(%rbp),%rax
    a13e:	48 89 85 58 f2 ff ff 	mov    %rax,-0xda8(%rbp)
    a145:	48 8d 85 18 e9 ff ff 	lea    -0x16e8(%rbp),%rax
    a14c:	48 89 85 60 f2 ff ff 	mov    %rax,-0xda0(%rbp)
    a153:	48 c7 85 68 f2 ff ff 	movq   $0x0,-0xd98(%rbp)
    a15a:	00 00 00 00 
    a15e:	48 8d 85 18 e9 ff ff 	lea    -0x16e8(%rbp),%rax
    a165:	48 89 85 70 f2 ff ff 	mov    %rax,-0xd90(%rbp)
    a16c:	48 8d 85 18 e9 ff ff 	lea    -0x16e8(%rbp),%rax
    a173:	48 89 85 78 f2 ff ff 	mov    %rax,-0xd88(%rbp)
    a17a:	48 8d 85 18 e9 ff ff 	lea    -0x16e8(%rbp),%rax
    a181:	48 89 85 80 f2 ff ff 	mov    %rax,-0xd80(%rbp)
    a188:	48 8d 85 18 e9 ff ff 	lea    -0x16e8(%rbp),%rax
    a18f:	48 89 85 88 f2 ff ff 	mov    %rax,-0xd78(%rbp)
    a196:	48 c7 85 90 f2 ff ff 	movq   $0x0,-0xd70(%rbp)
    a19d:	00 00 00 00 
    a1a1:	48 8d 85 18 e9 ff ff 	lea    -0x16e8(%rbp),%rax
    a1a8:	48 89 85 98 f2 ff ff 	mov    %rax,-0xd68(%rbp)
    a1af:	48 8d 85 18 e9 ff ff 	lea    -0x16e8(%rbp),%rax
    a1b6:	48 89 85 a0 f2 ff ff 	mov    %rax,-0xd60(%rbp)
    a1bd:	48 8d 85 18 e9 ff ff 	lea    -0x16e8(%rbp),%rax
    a1c4:	48 89 85 a8 f2 ff ff 	mov    %rax,-0xd58(%rbp)
    a1cb:	48 8d 85 18 e9 ff ff 	lea    -0x16e8(%rbp),%rax
    a1d2:	48 89 85 b0 f2 ff ff 	mov    %rax,-0xd50(%rbp)
    a1d9:	48 c7 85 b8 f2 ff ff 	movq   $0x0,-0xd48(%rbp)
    a1e0:	00 00 00 00 
    a1e4:	48 8d 85 18 e9 ff ff 	lea    -0x16e8(%rbp),%rax
    a1eb:	48 89 85 c0 f2 ff ff 	mov    %rax,-0xd40(%rbp)
    a1f2:	48 8d 85 18 e9 ff ff 	lea    -0x16e8(%rbp),%rax
    a1f9:	48 89 85 c8 f2 ff ff 	mov    %rax,-0xd38(%rbp)
    a200:	48 c7 85 d0 f2 ff ff 	movq   $0x0,-0xd30(%rbp)
    a207:	00 00 00 00 
    a20b:	48 8d 85 18 e9 ff ff 	lea    -0x16e8(%rbp),%rax
    a212:	48 89 85 d8 f2 ff ff 	mov    %rax,-0xd28(%rbp)
    a219:	48 8d 85 18 e9 ff ff 	lea    -0x16e8(%rbp),%rax
    a220:	48 89 85 e0 f2 ff ff 	mov    %rax,-0xd20(%rbp)
    a227:	48 c7 85 e8 f2 ff ff 	movq   $0x0,-0xd18(%rbp)
    a22e:	00 00 00 00 
    a232:	48 8d 85 18 e9 ff ff 	lea    -0x16e8(%rbp),%rax
    a239:	48 89 85 f0 f2 ff ff 	mov    %rax,-0xd10(%rbp)
    a240:	48 8d 85 18 e9 ff ff 	lea    -0x16e8(%rbp),%rax
    a247:	48 89 85 f8 f2 ff ff 	mov    %rax,-0xd08(%rbp)
    a24e:	48 8d 85 18 e9 ff ff 	lea    -0x16e8(%rbp),%rax
    a255:	48 89 85 00 f3 ff ff 	mov    %rax,-0xd00(%rbp)
    a25c:	48 8d 85 18 e9 ff ff 	lea    -0x16e8(%rbp),%rax
    a263:	48 89 85 08 f3 ff ff 	mov    %rax,-0xcf8(%rbp)
    a26a:	48 8d 85 18 e9 ff ff 	lea    -0x16e8(%rbp),%rax
    a271:	48 89 85 10 f3 ff ff 	mov    %rax,-0xcf0(%rbp)
    a278:	48 8d 85 18 e9 ff ff 	lea    -0x16e8(%rbp),%rax
    a27f:	48 89 85 18 f3 ff ff 	mov    %rax,-0xce8(%rbp)
    a286:	48 8d 85 18 e9 ff ff 	lea    -0x16e8(%rbp),%rax
    a28d:	48 89 85 20 f3 ff ff 	mov    %rax,-0xce0(%rbp)
    a294:	48 8d 85 18 e9 ff ff 	lea    -0x16e8(%rbp),%rax
    a29b:	48 89 85 28 f3 ff ff 	mov    %rax,-0xcd8(%rbp)
    a2a2:	48 8d 85 18 e9 ff ff 	lea    -0x16e8(%rbp),%rax
    a2a9:	48 89 85 30 f3 ff ff 	mov    %rax,-0xcd0(%rbp)
    a2b0:	48 8d 85 18 e9 ff ff 	lea    -0x16e8(%rbp),%rax
    a2b7:	48 89 85 38 f3 ff ff 	mov    %rax,-0xcc8(%rbp)
    a2be:	48 8d 85 18 e9 ff ff 	lea    -0x16e8(%rbp),%rax
    a2c5:	48 89 85 40 f3 ff ff 	mov    %rax,-0xcc0(%rbp)
    a2cc:	48 8d 85 18 e9 ff ff 	lea    -0x16e8(%rbp),%rax
    a2d3:	48 89 85 48 f3 ff ff 	mov    %rax,-0xcb8(%rbp)
    a2da:	48 8d 85 18 e9 ff ff 	lea    -0x16e8(%rbp),%rax
    a2e1:	48 89 85 50 f3 ff ff 	mov    %rax,-0xcb0(%rbp)
    a2e8:	48 c7 85 58 f3 ff ff 	movq   $0x0,-0xca8(%rbp)
    a2ef:	00 00 00 00 
    a2f3:	48 8d 85 18 e9 ff ff 	lea    -0x16e8(%rbp),%rax
    a2fa:	48 89 85 60 f3 ff ff 	mov    %rax,-0xca0(%rbp)
    a301:	48 8d 85 18 e9 ff ff 	lea    -0x16e8(%rbp),%rax
    a308:	48 89 85 68 f3 ff ff 	mov    %rax,-0xc98(%rbp)
    a30f:	48 c7 85 70 f3 ff ff 	movq   $0x0,-0xc90(%rbp)
    a316:	00 00 00 00 
    a31a:	48 8d 85 18 e9 ff ff 	lea    -0x16e8(%rbp),%rax
    a321:	48 89 85 78 f3 ff ff 	mov    %rax,-0xc88(%rbp)
    a328:	48 8d 85 18 e9 ff ff 	lea    -0x16e8(%rbp),%rax
    a32f:	48 89 85 80 f3 ff ff 	mov    %rax,-0xc80(%rbp)
    a336:	48 8d 85 18 e9 ff ff 	lea    -0x16e8(%rbp),%rax
    a33d:	48 89 85 88 f3 ff ff 	mov    %rax,-0xc78(%rbp)
    a344:	48 8d 85 18 e9 ff ff 	lea    -0x16e8(%rbp),%rax
    a34b:	48 89 85 90 f3 ff ff 	mov    %rax,-0xc70(%rbp)
    a352:	48 8d 85 18 e9 ff ff 	lea    -0x16e8(%rbp),%rax
    a359:	48 89 85 98 f3 ff ff 	mov    %rax,-0xc68(%rbp)
    a360:	48 8d 85 18 e9 ff ff 	lea    -0x16e8(%rbp),%rax
    a367:	48 89 85 a0 f3 ff ff 	mov    %rax,-0xc60(%rbp)
    a36e:	48 8d 85 18 e9 ff ff 	lea    -0x16e8(%rbp),%rax
    a375:	48 89 85 a8 f3 ff ff 	mov    %rax,-0xc58(%rbp)
    a37c:	48 8d 85 18 e9 ff ff 	lea    -0x16e8(%rbp),%rax
    a383:	48 89 85 b0 f3 ff ff 	mov    %rax,-0xc50(%rbp)
    a38a:	48 8d 85 18 e9 ff ff 	lea    -0x16e8(%rbp),%rax
    a391:	48 89 85 b8 f3 ff ff 	mov    %rax,-0xc48(%rbp)
    a398:	48 8d 85 18 e9 ff ff 	lea    -0x16e8(%rbp),%rax
    a39f:	48 89 85 c0 f3 ff ff 	mov    %rax,-0xc40(%rbp)
    a3a6:	48 8d 85 18 e9 ff ff 	lea    -0x16e8(%rbp),%rax
    a3ad:	48 89 85 c8 f3 ff ff 	mov    %rax,-0xc38(%rbp)
    a3b4:	48 8d 85 18 e9 ff ff 	lea    -0x16e8(%rbp),%rax
    a3bb:	48 89 85 d0 f3 ff ff 	mov    %rax,-0xc30(%rbp)
    a3c2:	48 c7 85 d8 f3 ff ff 	movq   $0x0,-0xc28(%rbp)
    a3c9:	00 00 00 00 
    a3cd:	48 8d 85 18 e9 ff ff 	lea    -0x16e8(%rbp),%rax
    a3d4:	48 89 85 e0 f3 ff ff 	mov    %rax,-0xc20(%rbp)
    a3db:	48 8d 85 18 e9 ff ff 	lea    -0x16e8(%rbp),%rax
    a3e2:	48 89 85 e8 f3 ff ff 	mov    %rax,-0xc18(%rbp)
    a3e9:	48 8d 85 18 e9 ff ff 	lea    -0x16e8(%rbp),%rax
    a3f0:	48 89 85 f0 f3 ff ff 	mov    %rax,-0xc10(%rbp)
    a3f7:	48 8d 85 18 e9 ff ff 	lea    -0x16e8(%rbp),%rax
    a3fe:	48 89 85 f8 f3 ff ff 	mov    %rax,-0xc08(%rbp)
    a405:	48 c7 85 00 f4 ff ff 	movq   $0x0,-0xc00(%rbp)
    a40c:	00 00 00 00 
    a410:	48 c7 85 08 f4 ff ff 	movq   $0x0,-0xbf8(%rbp)
    a417:	00 00 00 00 
    a41b:	48 8d 85 18 e9 ff ff 	lea    -0x16e8(%rbp),%rax
    a422:	48 89 85 10 f4 ff ff 	mov    %rax,-0xbf0(%rbp)
    a429:	48 c7 85 18 f4 ff ff 	movq   $0x0,-0xbe8(%rbp)
    a430:	00 00 00 00 
    a434:	48 8d 85 18 e9 ff ff 	lea    -0x16e8(%rbp),%rax
    a43b:	48 89 85 20 f4 ff ff 	mov    %rax,-0xbe0(%rbp)
    a442:	48 8d 85 18 e9 ff ff 	lea    -0x16e8(%rbp),%rax
    a449:	48 89 85 28 f4 ff ff 	mov    %rax,-0xbd8(%rbp)
    a450:	48 8d 85 18 e9 ff ff 	lea    -0x16e8(%rbp),%rax
    a457:	48 89 85 30 f4 ff ff 	mov    %rax,-0xbd0(%rbp)
    a45e:	48 8d 85 18 e9 ff ff 	lea    -0x16e8(%rbp),%rax
    a465:	48 89 85 38 f4 ff ff 	mov    %rax,-0xbc8(%rbp)
    a46c:	48 c7 85 40 f4 ff ff 	movq   $0x0,-0xbc0(%rbp)
    a473:	00 00 00 00 
    a477:	48 8d 85 18 e9 ff ff 	lea    -0x16e8(%rbp),%rax
    a47e:	48 89 85 48 f4 ff ff 	mov    %rax,-0xbb8(%rbp)
    a485:	48 8d 85 18 e9 ff ff 	lea    -0x16e8(%rbp),%rax
    a48c:	48 89 85 50 f4 ff ff 	mov    %rax,-0xbb0(%rbp)
    a493:	48 8d 85 18 e9 ff ff 	lea    -0x16e8(%rbp),%rax
    a49a:	48 89 85 58 f4 ff ff 	mov    %rax,-0xba8(%rbp)
    a4a1:	48 8d 85 18 e9 ff ff 	lea    -0x16e8(%rbp),%rax
    a4a8:	48 89 85 60 f4 ff ff 	mov    %rax,-0xba0(%rbp)
    a4af:	48 8d 85 18 e9 ff ff 	lea    -0x16e8(%rbp),%rax
    a4b6:	48 89 85 68 f4 ff ff 	mov    %rax,-0xb98(%rbp)
    a4bd:	48 8d 85 18 e9 ff ff 	lea    -0x16e8(%rbp),%rax
    a4c4:	48 89 85 70 f4 ff ff 	mov    %rax,-0xb90(%rbp)
    a4cb:	48 8d 85 18 e9 ff ff 	lea    -0x16e8(%rbp),%rax
    a4d2:	48 89 85 78 f4 ff ff 	mov    %rax,-0xb88(%rbp)
    a4d9:	48 8d 85 18 e9 ff ff 	lea    -0x16e8(%rbp),%rax
    a4e0:	48 89 85 80 f4 ff ff 	mov    %rax,-0xb80(%rbp)
    a4e7:	48 8d 85 18 e9 ff ff 	lea    -0x16e8(%rbp),%rax
    a4ee:	48 89 85 88 f4 ff ff 	mov    %rax,-0xb78(%rbp)
    a4f5:	48 8d 85 18 e9 ff ff 	lea    -0x16e8(%rbp),%rax
    a4fc:	48 89 85 90 f4 ff ff 	mov    %rax,-0xb70(%rbp)
    a503:	48 8d 85 18 e9 ff ff 	lea    -0x16e8(%rbp),%rax
    a50a:	48 89 85 98 f4 ff ff 	mov    %rax,-0xb68(%rbp)
    a511:	48 8d 85 18 e9 ff ff 	lea    -0x16e8(%rbp),%rax
    a518:	48 89 85 a0 f4 ff ff 	mov    %rax,-0xb60(%rbp)
    a51f:	48 8d 85 18 e9 ff ff 	lea    -0x16e8(%rbp),%rax
    a526:	48 89 85 a8 f4 ff ff 	mov    %rax,-0xb58(%rbp)
    a52d:	48 8d 85 18 e9 ff ff 	lea    -0x16e8(%rbp),%rax
    a534:	48 89 85 b0 f4 ff ff 	mov    %rax,-0xb50(%rbp)
    a53b:	48 8d 85 18 e9 ff ff 	lea    -0x16e8(%rbp),%rax
    a542:	48 89 85 b8 f4 ff ff 	mov    %rax,-0xb48(%rbp)
    a549:	48 8d 85 18 e9 ff ff 	lea    -0x16e8(%rbp),%rax
    a550:	48 89 85 c0 f4 ff ff 	mov    %rax,-0xb40(%rbp)
    a557:	48 8d 85 18 e9 ff ff 	lea    -0x16e8(%rbp),%rax
    a55e:	48 89 85 c8 f4 ff ff 	mov    %rax,-0xb38(%rbp)
    a565:	48 8d 85 18 e9 ff ff 	lea    -0x16e8(%rbp),%rax
    a56c:	48 89 85 d0 f4 ff ff 	mov    %rax,-0xb30(%rbp)
    a573:	48 8d 85 18 e9 ff ff 	lea    -0x16e8(%rbp),%rax
    a57a:	48 89 85 d8 f4 ff ff 	mov    %rax,-0xb28(%rbp)
    a581:	48 c7 85 e0 f4 ff ff 	movq   $0x0,-0xb20(%rbp)
    a588:	00 00 00 00 
    a58c:	48 8d 85 18 e9 ff ff 	lea    -0x16e8(%rbp),%rax
    a593:	48 89 85 e8 f4 ff ff 	mov    %rax,-0xb18(%rbp)
    a59a:	48 8d 85 18 e9 ff ff 	lea    -0x16e8(%rbp),%rax
    a5a1:	48 89 85 f0 f4 ff ff 	mov    %rax,-0xb10(%rbp)
    a5a8:	48 8d 85 18 e9 ff ff 	lea    -0x16e8(%rbp),%rax
    a5af:	48 89 85 f8 f4 ff ff 	mov    %rax,-0xb08(%rbp)
    a5b6:	48 8d 85 18 e9 ff ff 	lea    -0x16e8(%rbp),%rax
    a5bd:	48 89 85 00 f5 ff ff 	mov    %rax,-0xb00(%rbp)
    a5c4:	48 8d 85 18 e9 ff ff 	lea    -0x16e8(%rbp),%rax
    a5cb:	48 89 85 08 f5 ff ff 	mov    %rax,-0xaf8(%rbp)
    a5d2:	48 8d 85 18 e9 ff ff 	lea    -0x16e8(%rbp),%rax
    a5d9:	48 89 85 10 f5 ff ff 	mov    %rax,-0xaf0(%rbp)
    a5e0:	48 8d 85 18 e9 ff ff 	lea    -0x16e8(%rbp),%rax
    a5e7:	48 89 85 18 f5 ff ff 	mov    %rax,-0xae8(%rbp)
    a5ee:	48 8d 85 18 e9 ff ff 	lea    -0x16e8(%rbp),%rax
    a5f5:	48 89 85 20 f5 ff ff 	mov    %rax,-0xae0(%rbp)
    a5fc:	48 8d 85 18 e9 ff ff 	lea    -0x16e8(%rbp),%rax
    a603:	48 89 85 28 f5 ff ff 	mov    %rax,-0xad8(%rbp)
    a60a:	48 8d 85 18 e9 ff ff 	lea    -0x16e8(%rbp),%rax
    a611:	48 89 85 30 f5 ff ff 	mov    %rax,-0xad0(%rbp)
    a618:	48 8d 85 18 e9 ff ff 	lea    -0x16e8(%rbp),%rax
    a61f:	48 89 85 38 f5 ff ff 	mov    %rax,-0xac8(%rbp)
    a626:	48 8d 85 18 e9 ff ff 	lea    -0x16e8(%rbp),%rax
    a62d:	48 89 85 40 f5 ff ff 	mov    %rax,-0xac0(%rbp)
    a634:	48 8d 85 18 e9 ff ff 	lea    -0x16e8(%rbp),%rax
    a63b:	48 89 85 48 f5 ff ff 	mov    %rax,-0xab8(%rbp)
    a642:	48 8d 85 18 e9 ff ff 	lea    -0x16e8(%rbp),%rax
    a649:	48 89 85 50 f5 ff ff 	mov    %rax,-0xab0(%rbp)
    a650:	48 8d 85 18 e9 ff ff 	lea    -0x16e8(%rbp),%rax
    a657:	48 89 85 58 f5 ff ff 	mov    %rax,-0xaa8(%rbp)
    a65e:	48 8d 85 18 e9 ff ff 	lea    -0x16e8(%rbp),%rax
    a665:	48 89 85 60 f5 ff ff 	mov    %rax,-0xaa0(%rbp)
    a66c:	48 8d 85 18 e9 ff ff 	lea    -0x16e8(%rbp),%rax
    a673:	48 89 85 68 f5 ff ff 	mov    %rax,-0xa98(%rbp)
    a67a:	48 8d 85 18 e9 ff ff 	lea    -0x16e8(%rbp),%rax
    a681:	48 89 85 70 f5 ff ff 	mov    %rax,-0xa90(%rbp)
    a688:	48 8d 85 18 e9 ff ff 	lea    -0x16e8(%rbp),%rax
    a68f:	48 89 85 78 f5 ff ff 	mov    %rax,-0xa88(%rbp)
    a696:	48 8d 85 18 e9 ff ff 	lea    -0x16e8(%rbp),%rax
    a69d:	48 89 85 80 f5 ff ff 	mov    %rax,-0xa80(%rbp)
    a6a4:	48 8d 85 18 e9 ff ff 	lea    -0x16e8(%rbp),%rax
    a6ab:	48 89 85 88 f5 ff ff 	mov    %rax,-0xa78(%rbp)
    a6b2:	48 8d 85 18 e9 ff ff 	lea    -0x16e8(%rbp),%rax
    a6b9:	48 89 85 90 f5 ff ff 	mov    %rax,-0xa70(%rbp)
    a6c0:	48 8d 85 18 e9 ff ff 	lea    -0x16e8(%rbp),%rax
    a6c7:	48 89 85 98 f5 ff ff 	mov    %rax,-0xa68(%rbp)
    a6ce:	48 8d 85 18 e9 ff ff 	lea    -0x16e8(%rbp),%rax
    a6d5:	48 89 85 a0 f5 ff ff 	mov    %rax,-0xa60(%rbp)
    a6dc:	48 8d 85 18 e9 ff ff 	lea    -0x16e8(%rbp),%rax
    a6e3:	48 89 85 a8 f5 ff ff 	mov    %rax,-0xa58(%rbp)
    a6ea:	48 8d 85 18 e9 ff ff 	lea    -0x16e8(%rbp),%rax
    a6f1:	48 89 85 b0 f5 ff ff 	mov    %rax,-0xa50(%rbp)
    a6f8:	48 8d 85 18 e9 ff ff 	lea    -0x16e8(%rbp),%rax
    a6ff:	48 89 85 b8 f5 ff ff 	mov    %rax,-0xa48(%rbp)
    a706:	48 8d 85 18 e9 ff ff 	lea    -0x16e8(%rbp),%rax
    a70d:	48 89 85 c0 f5 ff ff 	mov    %rax,-0xa40(%rbp)
    a714:	48 8d 85 18 e9 ff ff 	lea    -0x16e8(%rbp),%rax
    a71b:	48 89 85 c8 f5 ff ff 	mov    %rax,-0xa38(%rbp)
    a722:	48 8d 85 18 e9 ff ff 	lea    -0x16e8(%rbp),%rax
    a729:	48 89 85 d0 f5 ff ff 	mov    %rax,-0xa30(%rbp)
    a730:	48 c7 85 d8 f5 ff ff 	movq   $0x0,-0xa28(%rbp)
    a737:	00 00 00 00 
    a73b:	48 8d 85 18 e9 ff ff 	lea    -0x16e8(%rbp),%rax
    a742:	48 89 85 e0 f5 ff ff 	mov    %rax,-0xa20(%rbp)
    a749:	48 8d 85 18 e9 ff ff 	lea    -0x16e8(%rbp),%rax
    a750:	48 89 85 e8 f5 ff ff 	mov    %rax,-0xa18(%rbp)
    a757:	48 c7 85 f0 f5 ff ff 	movq   $0x0,-0xa10(%rbp)
    a75e:	00 00 00 00 
    a762:	48 8d 85 18 e9 ff ff 	lea    -0x16e8(%rbp),%rax
    a769:	48 89 85 f8 f5 ff ff 	mov    %rax,-0xa08(%rbp)
    a770:	48 8d 85 18 e9 ff ff 	lea    -0x16e8(%rbp),%rax
    a777:	48 89 85 00 f6 ff ff 	mov    %rax,-0xa00(%rbp)
    a77e:	48 8d 85 18 e9 ff ff 	lea    -0x16e8(%rbp),%rax
    a785:	48 89 85 08 f6 ff ff 	mov    %rax,-0x9f8(%rbp)
    a78c:	48 8d 85 18 e9 ff ff 	lea    -0x16e8(%rbp),%rax
    a793:	48 89 85 10 f6 ff ff 	mov    %rax,-0x9f0(%rbp)
    a79a:	48 8d 85 18 e9 ff ff 	lea    -0x16e8(%rbp),%rax
    a7a1:	48 89 85 18 f6 ff ff 	mov    %rax,-0x9e8(%rbp)
    a7a8:	48 8d 85 18 e9 ff ff 	lea    -0x16e8(%rbp),%rax
    a7af:	48 89 85 20 f6 ff ff 	mov    %rax,-0x9e0(%rbp)
    a7b6:	48 8d 85 18 e9 ff ff 	lea    -0x16e8(%rbp),%rax
    a7bd:	48 89 85 28 f6 ff ff 	mov    %rax,-0x9d8(%rbp)
    a7c4:	48 c7 85 30 f6 ff ff 	movq   $0x0,-0x9d0(%rbp)
    a7cb:	00 00 00 00 
    a7cf:	48 8d 85 18 e9 ff ff 	lea    -0x16e8(%rbp),%rax
    a7d6:	48 89 85 38 f6 ff ff 	mov    %rax,-0x9c8(%rbp)
    a7dd:	48 8d 85 18 e9 ff ff 	lea    -0x16e8(%rbp),%rax
    a7e4:	48 89 85 40 f6 ff ff 	mov    %rax,-0x9c0(%rbp)
    a7eb:	48 8d 85 18 e9 ff ff 	lea    -0x16e8(%rbp),%rax
    a7f2:	48 89 85 48 f6 ff ff 	mov    %rax,-0x9b8(%rbp)
    a7f9:	48 8d 85 18 e9 ff ff 	lea    -0x16e8(%rbp),%rax
    a800:	48 89 85 50 f6 ff ff 	mov    %rax,-0x9b0(%rbp)
    a807:	48 8d 85 18 e9 ff ff 	lea    -0x16e8(%rbp),%rax
    a80e:	48 89 85 58 f6 ff ff 	mov    %rax,-0x9a8(%rbp)
    a815:	48 8d 85 18 e9 ff ff 	lea    -0x16e8(%rbp),%rax
    a81c:	48 89 85 60 f6 ff ff 	mov    %rax,-0x9a0(%rbp)
    a823:	48 8d 85 18 e9 ff ff 	lea    -0x16e8(%rbp),%rax
    a82a:	48 89 85 68 f6 ff ff 	mov    %rax,-0x998(%rbp)
    a831:	48 8d 85 18 e9 ff ff 	lea    -0x16e8(%rbp),%rax
    a838:	48 89 85 70 f6 ff ff 	mov    %rax,-0x990(%rbp)
    a83f:	48 8d 85 18 e9 ff ff 	lea    -0x16e8(%rbp),%rax
    a846:	48 89 85 78 f6 ff ff 	mov    %rax,-0x988(%rbp)
    a84d:	48 8d 85 18 e9 ff ff 	lea    -0x16e8(%rbp),%rax
    a854:	48 89 85 80 f6 ff ff 	mov    %rax,-0x980(%rbp)
    a85b:	48 8d 85 18 e9 ff ff 	lea    -0x16e8(%rbp),%rax
    a862:	48 89 85 88 f6 ff ff 	mov    %rax,-0x978(%rbp)
    a869:	48 8d 85 18 e9 ff ff 	lea    -0x16e8(%rbp),%rax
    a870:	48 89 85 90 f6 ff ff 	mov    %rax,-0x970(%rbp)
    a877:	48 8d 85 18 e9 ff ff 	lea    -0x16e8(%rbp),%rax
    a87e:	48 89 85 98 f6 ff ff 	mov    %rax,-0x968(%rbp)
    a885:	48 8d 85 18 e9 ff ff 	lea    -0x16e8(%rbp),%rax
    a88c:	48 89 85 a0 f6 ff ff 	mov    %rax,-0x960(%rbp)
    a893:	48 8d 85 18 e9 ff ff 	lea    -0x16e8(%rbp),%rax
    a89a:	48 89 85 a8 f6 ff ff 	mov    %rax,-0x958(%rbp)
    a8a1:	48 8d 85 18 e9 ff ff 	lea    -0x16e8(%rbp),%rax
    a8a8:	48 89 85 b0 f6 ff ff 	mov    %rax,-0x950(%rbp)
    a8af:	48 8d 85 18 e9 ff ff 	lea    -0x16e8(%rbp),%rax
    a8b6:	48 89 85 b8 f6 ff ff 	mov    %rax,-0x948(%rbp)
    a8bd:	48 8d 85 18 e9 ff ff 	lea    -0x16e8(%rbp),%rax
    a8c4:	48 89 85 c0 f6 ff ff 	mov    %rax,-0x940(%rbp)
    a8cb:	48 8d 85 18 e9 ff ff 	lea    -0x16e8(%rbp),%rax
    a8d2:	48 89 85 c8 f6 ff ff 	mov    %rax,-0x938(%rbp)
    a8d9:	48 8d 85 18 e9 ff ff 	lea    -0x16e8(%rbp),%rax
    a8e0:	48 89 85 d0 f6 ff ff 	mov    %rax,-0x930(%rbp)
    a8e7:	48 8d 85 18 e9 ff ff 	lea    -0x16e8(%rbp),%rax
    a8ee:	48 89 85 d8 f6 ff ff 	mov    %rax,-0x928(%rbp)
    a8f5:	48 8d 85 18 e9 ff ff 	lea    -0x16e8(%rbp),%rax
    a8fc:	48 89 85 e0 f6 ff ff 	mov    %rax,-0x920(%rbp)
    a903:	48 8d 85 18 e9 ff ff 	lea    -0x16e8(%rbp),%rax
    a90a:	48 89 85 e8 f6 ff ff 	mov    %rax,-0x918(%rbp)
    a911:	48 8d 85 18 e9 ff ff 	lea    -0x16e8(%rbp),%rax
    a918:	48 89 85 f0 f6 ff ff 	mov    %rax,-0x910(%rbp)
    a91f:	48 8d 85 18 e9 ff ff 	lea    -0x16e8(%rbp),%rax
    a926:	48 89 85 f8 f6 ff ff 	mov    %rax,-0x908(%rbp)
    a92d:	48 8d 85 18 e9 ff ff 	lea    -0x16e8(%rbp),%rax
    a934:	48 89 85 00 f7 ff ff 	mov    %rax,-0x900(%rbp)
    a93b:	48 8d 85 18 e9 ff ff 	lea    -0x16e8(%rbp),%rax
    a942:	48 89 85 08 f7 ff ff 	mov    %rax,-0x8f8(%rbp)
    a949:	48 8d 85 18 e9 ff ff 	lea    -0x16e8(%rbp),%rax
    a950:	48 89 85 10 f7 ff ff 	mov    %rax,-0x8f0(%rbp)
    a957:	48 8d 85 18 e9 ff ff 	lea    -0x16e8(%rbp),%rax
    a95e:	48 89 85 18 f7 ff ff 	mov    %rax,-0x8e8(%rbp)
    a965:	48 8d 85 18 e9 ff ff 	lea    -0x16e8(%rbp),%rax
    a96c:	48 89 85 20 f7 ff ff 	mov    %rax,-0x8e0(%rbp)
    a973:	48 8d 85 18 e9 ff ff 	lea    -0x16e8(%rbp),%rax
    a97a:	48 89 85 28 f7 ff ff 	mov    %rax,-0x8d8(%rbp)
    a981:	48 8d 85 18 e9 ff ff 	lea    -0x16e8(%rbp),%rax
    a988:	48 89 85 30 f7 ff ff 	mov    %rax,-0x8d0(%rbp)
    a98f:	48 8d 85 18 e9 ff ff 	lea    -0x16e8(%rbp),%rax
    a996:	48 89 85 38 f7 ff ff 	mov    %rax,-0x8c8(%rbp)
    a99d:	48 c7 85 40 f7 ff ff 	movq   $0x0,-0x8c0(%rbp)
    a9a4:	00 00 00 00 
    a9a8:	48 8d 85 18 e9 ff ff 	lea    -0x16e8(%rbp),%rax
    a9af:	48 89 85 48 f7 ff ff 	mov    %rax,-0x8b8(%rbp)
    a9b6:	48 8d 85 18 e9 ff ff 	lea    -0x16e8(%rbp),%rax
    a9bd:	48 89 85 50 f7 ff ff 	mov    %rax,-0x8b0(%rbp)
    a9c4:	48 c7 85 58 f7 ff ff 	movq   $0x0,-0x8a8(%rbp)
    a9cb:	00 00 00 00 
    a9cf:	48 8d 85 18 e9 ff ff 	lea    -0x16e8(%rbp),%rax
    a9d6:	48 89 85 60 f7 ff ff 	mov    %rax,-0x8a0(%rbp)
    a9dd:	48 8d 85 18 e9 ff ff 	lea    -0x16e8(%rbp),%rax
    a9e4:	48 89 85 68 f7 ff ff 	mov    %rax,-0x898(%rbp)
    a9eb:	48 8d 85 18 e9 ff ff 	lea    -0x16e8(%rbp),%rax
    a9f2:	48 89 85 70 f7 ff ff 	mov    %rax,-0x890(%rbp)
    a9f9:	48 8d 85 18 e9 ff ff 	lea    -0x16e8(%rbp),%rax
    aa00:	48 89 85 78 f7 ff ff 	mov    %rax,-0x888(%rbp)
    aa07:	48 8d 85 18 e9 ff ff 	lea    -0x16e8(%rbp),%rax
    aa0e:	48 89 85 80 f7 ff ff 	mov    %rax,-0x880(%rbp)
    aa15:	48 8d 85 18 e9 ff ff 	lea    -0x16e8(%rbp),%rax
    aa1c:	48 89 85 88 f7 ff ff 	mov    %rax,-0x878(%rbp)
    aa23:	48 8d 85 18 e9 ff ff 	lea    -0x16e8(%rbp),%rax
    aa2a:	48 89 85 90 f7 ff ff 	mov    %rax,-0x870(%rbp)
    aa31:	48 8d 85 18 e9 ff ff 	lea    -0x16e8(%rbp),%rax
    aa38:	48 89 85 98 f7 ff ff 	mov    %rax,-0x868(%rbp)
    aa3f:	48 8d 85 18 e9 ff ff 	lea    -0x16e8(%rbp),%rax
    aa46:	48 89 85 a0 f7 ff ff 	mov    %rax,-0x860(%rbp)
    aa4d:	48 8d 85 18 e9 ff ff 	lea    -0x16e8(%rbp),%rax
    aa54:	48 89 85 a8 f7 ff ff 	mov    %rax,-0x858(%rbp)
    aa5b:	48 8d 85 18 e9 ff ff 	lea    -0x16e8(%rbp),%rax
    aa62:	48 89 85 b0 f7 ff ff 	mov    %rax,-0x850(%rbp)
    aa69:	48 8d 85 18 e9 ff ff 	lea    -0x16e8(%rbp),%rax
    aa70:	48 89 85 b8 f7 ff ff 	mov    %rax,-0x848(%rbp)
    aa77:	48 8d 85 18 e9 ff ff 	lea    -0x16e8(%rbp),%rax
    aa7e:	48 89 85 c0 f7 ff ff 	mov    %rax,-0x840(%rbp)
    aa85:	48 8d 85 18 e9 ff ff 	lea    -0x16e8(%rbp),%rax
    aa8c:	48 89 85 c8 f7 ff ff 	mov    %rax,-0x838(%rbp)
    aa93:	48 8d 85 18 e9 ff ff 	lea    -0x16e8(%rbp),%rax
    aa9a:	48 89 85 d0 f7 ff ff 	mov    %rax,-0x830(%rbp)
    aaa1:	48 8d 85 18 e9 ff ff 	lea    -0x16e8(%rbp),%rax
    aaa8:	48 89 85 d8 f7 ff ff 	mov    %rax,-0x828(%rbp)
    aaaf:	48 8d 85 18 e9 ff ff 	lea    -0x16e8(%rbp),%rax
    aab6:	48 89 85 e0 f7 ff ff 	mov    %rax,-0x820(%rbp)
    aabd:	48 8d 85 18 e9 ff ff 	lea    -0x16e8(%rbp),%rax
    aac4:	48 89 85 e8 f7 ff ff 	mov    %rax,-0x818(%rbp)
    aacb:	48 8d 85 18 e9 ff ff 	lea    -0x16e8(%rbp),%rax
    aad2:	48 89 85 f0 f7 ff ff 	mov    %rax,-0x810(%rbp)
    aad9:	48 8d 85 18 e9 ff ff 	lea    -0x16e8(%rbp),%rax
    aae0:	48 89 85 f8 f7 ff ff 	mov    %rax,-0x808(%rbp)
    aae7:	48 8d 85 18 e9 ff ff 	lea    -0x16e8(%rbp),%rax
    aaee:	48 89 85 00 f8 ff ff 	mov    %rax,-0x800(%rbp)
    aaf5:	48 8d 85 18 e9 ff ff 	lea    -0x16e8(%rbp),%rax
    aafc:	48 89 85 08 f8 ff ff 	mov    %rax,-0x7f8(%rbp)
    ab03:	48 c7 85 10 f8 ff ff 	movq   $0x0,-0x7f0(%rbp)
    ab0a:	00 00 00 00 
    ab0e:	48 8d 85 18 e9 ff ff 	lea    -0x16e8(%rbp),%rax
    ab15:	48 89 85 18 f8 ff ff 	mov    %rax,-0x7e8(%rbp)
    ab1c:	48 8d 85 18 e9 ff ff 	lea    -0x16e8(%rbp),%rax
    ab23:	48 89 85 20 f8 ff ff 	mov    %rax,-0x7e0(%rbp)
    ab2a:	48 8d 85 18 e9 ff ff 	lea    -0x16e8(%rbp),%rax
    ab31:	48 89 85 28 f8 ff ff 	mov    %rax,-0x7d8(%rbp)
    ab38:	48 8d 85 18 e9 ff ff 	lea    -0x16e8(%rbp),%rax
    ab3f:	48 89 85 30 f8 ff ff 	mov    %rax,-0x7d0(%rbp)
    ab46:	48 8d 85 18 e9 ff ff 	lea    -0x16e8(%rbp),%rax
    ab4d:	48 89 85 38 f8 ff ff 	mov    %rax,-0x7c8(%rbp)
    ab54:	48 8d 85 18 e9 ff ff 	lea    -0x16e8(%rbp),%rax
    ab5b:	48 89 85 40 f8 ff ff 	mov    %rax,-0x7c0(%rbp)
    ab62:	48 8d 85 18 e9 ff ff 	lea    -0x16e8(%rbp),%rax
    ab69:	48 89 85 48 f8 ff ff 	mov    %rax,-0x7b8(%rbp)
    ab70:	48 8d 85 18 e9 ff ff 	lea    -0x16e8(%rbp),%rax
    ab77:	48 89 85 50 f8 ff ff 	mov    %rax,-0x7b0(%rbp)
    ab7e:	48 8d 85 18 e9 ff ff 	lea    -0x16e8(%rbp),%rax
    ab85:	48 89 85 58 f8 ff ff 	mov    %rax,-0x7a8(%rbp)
    ab8c:	48 8d 85 18 e9 ff ff 	lea    -0x16e8(%rbp),%rax
    ab93:	48 89 85 60 f8 ff ff 	mov    %rax,-0x7a0(%rbp)
    ab9a:	48 8d 85 18 e9 ff ff 	lea    -0x16e8(%rbp),%rax
    aba1:	48 89 85 68 f8 ff ff 	mov    %rax,-0x798(%rbp)
    aba8:	48 8d 85 18 e9 ff ff 	lea    -0x16e8(%rbp),%rax
    abaf:	48 89 85 70 f8 ff ff 	mov    %rax,-0x790(%rbp)
    abb6:	48 8d 85 18 e9 ff ff 	lea    -0x16e8(%rbp),%rax
    abbd:	48 89 85 78 f8 ff ff 	mov    %rax,-0x788(%rbp)
    abc4:	48 8d 85 18 e9 ff ff 	lea    -0x16e8(%rbp),%rax
    abcb:	48 89 85 80 f8 ff ff 	mov    %rax,-0x780(%rbp)
    abd2:	48 8d 85 18 e9 ff ff 	lea    -0x16e8(%rbp),%rax
    abd9:	48 89 85 88 f8 ff ff 	mov    %rax,-0x778(%rbp)
    abe0:	48 8d 85 18 e9 ff ff 	lea    -0x16e8(%rbp),%rax
    abe7:	48 89 85 90 f8 ff ff 	mov    %rax,-0x770(%rbp)
    abee:	48 8d 85 18 e9 ff ff 	lea    -0x16e8(%rbp),%rax
    abf5:	48 89 85 98 f8 ff ff 	mov    %rax,-0x768(%rbp)
    abfc:	48 8d 85 18 e9 ff ff 	lea    -0x16e8(%rbp),%rax
    ac03:	48 89 85 a0 f8 ff ff 	mov    %rax,-0x760(%rbp)
    ac0a:	48 8d 85 18 e9 ff ff 	lea    -0x16e8(%rbp),%rax
    ac11:	48 89 85 a8 f8 ff ff 	mov    %rax,-0x758(%rbp)
    ac18:	48 8d 85 18 e9 ff ff 	lea    -0x16e8(%rbp),%rax
    ac1f:	48 89 85 b0 f8 ff ff 	mov    %rax,-0x750(%rbp)
    ac26:	48 8d 85 18 e9 ff ff 	lea    -0x16e8(%rbp),%rax
    ac2d:	48 89 85 b8 f8 ff ff 	mov    %rax,-0x748(%rbp)
    ac34:	48 8d 85 30 f2 ff ff 	lea    -0xdd0(%rbp),%rax
    ac3b:	48 05 78 04 00 00    	add    $0x478,%rax
    ac41:	48 89 85 98 e9 ff ff 	mov    %rax,-0x1668(%rbp)
    ac48:	48 8b 95 38 f7 ff ff 	mov    -0x8c8(%rbp),%rdx
    ac4f:	48 8b 85 98 e9 ff ff 	mov    -0x1668(%rbp),%rax
    ac56:	48 89 10             	mov    %rdx,(%rax)
    ac59:	48 8d 15 20 26 01 00 	lea    0x12620(%rip),%rdx        # 1d280 <g_617>
    ac60:	0f be 85 bc e8 ff ff 	movsbl -0x1744(%rbp),%eax
    ac67:	89 02                	mov    %eax,(%rdx)
    ac69:	8b 05 d9 25 01 00    	mov    0x125d9(%rip),%eax        # 1d248 <g_236>
    ac6f:	83 c0 01             	add    $0x1,%eax
    ac72:	89 05 d0 25 01 00    	mov    %eax,0x125d0(%rip)        # 1d248 <g_236>
    ac78:	8b 05 ca 25 01 00    	mov    0x125ca(%rip),%eax        # 1d248 <g_236>
    ac7e:	83 f8 02             	cmp    $0x2,%eax
    ac81:	0f 8e 62 f4 ff ff    	jle    a0e9 <func_2+0xdfc>
    ac87:	48 8b 95 b0 e9 ff ff 	mov    -0x1650(%rbp),%rdx
    ac8e:	48 8b 05 03 49 01 00 	mov    0x14903(%rip),%rax        # 1f598 <g_1233+0x18>
    ac95:	48 39 c2             	cmp    %rax,%rdx
    ac98:	0f 95 c0             	setne  %al
    ac9b:	0f b6 c0             	movzbl %al,%eax
    ac9e:	89 85 b8 e8 ff ff    	mov    %eax,-0x1748(%rbp)
    aca4:	0f be 9d bc e8 ff ff 	movsbl -0x1744(%rbp),%ebx
    acab:	4c 0f be a5 bc e8 ff 	movsbq -0x1744(%rbp),%r12
    acb2:	ff 
    acb3:	44 8b ad 00 e9 ff ff 	mov    -0x1700(%rbp),%r13d
    acba:	4c 0f bf b5 ca e8 ff 	movswq -0x1736(%rbp),%r14
    acc1:	ff 
    acc2:	0f b6 05 e7 27 01 00 	movzbl 0x127e7(%rip),%eax        # 1d4b0 <g_987>
    acc9:	c1 e0 06             	shl    $0x6,%eax
    accc:	c0 f8 06             	sar    $0x6,%al
    accf:	44 0f be f8          	movsbl %al,%r15d
    acd3:	8b 05 a7 28 01 00    	mov    0x128a7(%rip),%eax        # 1d580 <g_1039>
    acd9:	0f b7 d0             	movzwl %ax,%edx
    acdc:	48 8b 05 1d 43 01 00 	mov    0x1431d(%rip),%rax        # 1f000 <g_967>
    ace3:	48 8b 08             	mov    (%rax),%rcx
    ace6:	48 8b 05 0b 43 01 00 	mov    0x1430b(%rip),%rax        # 1eff8 <g_968>
    aced:	48 8b 09             	mov    (%rcx),%rcx
    acf0:	48 89 08             	mov    %rcx,(%rax)
    acf3:	48 8b 00             	mov    (%rax),%rax
    acf6:	48 39 85 30 e9 ff ff 	cmp    %rax,-0x16d0(%rbp)
    acfd:	0f 95 c0             	setne  %al
    ad00:	0f b6 c8             	movzbl %al,%ecx
    ad03:	48 8d 05 4c 25 01 00 	lea    0x1254c(%rip),%rax        # 1d256 <g_452>
    ad0a:	48 89 05 8f 4e 01 00 	mov    %rax,0x14e8f(%rip)        # 1fba0 <g_1257>
    ad11:	48 8b 05 88 4e 01 00 	mov    0x14e88(%rip),%rax        # 1fba0 <g_1257>
    ad18:	48 39 85 38 e9 ff ff 	cmp    %rax,-0x16c8(%rbp)
    ad1f:	0f 94 c0             	sete   %al
    ad22:	0f b6 f0             	movzbl %al,%esi
    ad25:	48 8b 85 30 e9 ff ff 	mov    -0x16d0(%rbp),%rax
    ad2c:	8b 00                	mov    (%rax),%eax
    ad2e:	21 f0                	and    %esi,%eax
    ad30:	39 c1                	cmp    %eax,%ecx
    ad32:	0f 9e c0             	setle  %al
    ad35:	0f b6 c0             	movzbl %al,%eax
    ad38:	89 85 d0 e8 ff ff    	mov    %eax,-0x1730(%rbp)
    ad3e:	8b 85 d0 e8 ff ff    	mov    -0x1730(%rbp),%eax
    ad44:	39 85 00 e9 ff ff    	cmp    %eax,-0x1700(%rbp)
    ad4a:	0f 96 c0             	setbe  %al
    ad4d:	0f b6 c0             	movzbl %al,%eax
    ad50:	89 d6                	mov    %edx,%esi
    ad52:	89 c7                	mov    %eax,%edi
    ad54:	e8 a6 cf ff ff       	callq  7cff <safe_add_func_uint16_t_u_u>
    ad59:	66 83 bd ca e8 ff ff 	cmpw   $0x0,-0x1736(%rbp)
    ad60:	00 
    ad61:	0f 95 c0             	setne  %al
    ad64:	0f b6 c0             	movzbl %al,%eax
    ad67:	8b 95 00 e9 ff ff    	mov    -0x1700(%rbp),%edx
    ad6d:	89 d6                	mov    %edx,%esi
    ad6f:	89 c7                	mov    %eax,%edi
    ad71:	e8 48 cf ff ff       	callq  7cbe <safe_rshift_func_uint8_t_u_u>
    ad76:	0f b6 d0             	movzbl %al,%edx
    ad79:	8b 05 41 24 01 00    	mov    0x12441(%rip),%eax        # 1d1c0 <g_11>
    ad7f:	09 d0                	or     %edx,%eax
    ad81:	85 c0                	test   %eax,%eax
    ad83:	74 19                	je     ad9e <func_2+0x1ab1>
    ad85:	83 bd 00 e9 ff ff 00 	cmpl   $0x0,-0x1700(%rbp)
    ad8c:	74 10                	je     ad9e <func_2+0x1ab1>
    ad8e:	80 bd bc e8 ff ff 00 	cmpb   $0x0,-0x1744(%rbp)
    ad95:	74 07                	je     ad9e <func_2+0x1ab1>
    ad97:	b8 01 00 00 00       	mov    $0x1,%eax
    ad9c:	eb 05                	jmp    ada3 <func_2+0x1ab6>
    ad9e:	b8 00 00 00 00       	mov    $0x0,%eax
    ada3:	0f b6 d0             	movzbl %al,%edx
    ada6:	48 8b 8d a0 e9 ff ff 	mov    -0x1660(%rbp),%rcx
    adad:	48 8d 85 08 e9 ff ff 	lea    -0x16f8(%rbp),%rax
    adb4:	48 39 c1             	cmp    %rax,%rcx
    adb7:	0f 94 c0             	sete   %al
    adba:	0f b6 c0             	movzbl %al,%eax
    adbd:	89 d6                	mov    %edx,%esi
    adbf:	89 c7                	mov    %eax,%edi
    adc1:	e8 e8 cd ff ff       	callq  7bae <safe_mod_func_uint8_t_u_u>
    adc6:	0f be 85 bc e8 ff ff 	movsbl -0x1744(%rbp),%eax
    adcd:	44 89 fe             	mov    %r15d,%esi
    add0:	89 c7                	mov    %eax,%edi
    add2:	e8 8c c7 ff ff       	callq  7563 <safe_rshift_func_int16_t_s_u>
    add7:	48 0f bf c0          	movswq %ax,%rax
    addb:	4c 89 f6             	mov    %r14,%rsi
    adde:	48 89 c7             	mov    %rax,%rdi
    ade1:	e8 11 cc ff ff       	callq  79f7 <safe_div_func_int64_t_s_s>
    ade6:	0f b7 05 ed 22 01 00 	movzwl 0x122ed(%rip),%eax        # 1d0da <g_4+0x9a>
    aded:	0f b7 d0             	movzwl %ax,%edx
    adf0:	0f be 85 bc e8 ff ff 	movsbl -0x1744(%rbp),%eax
    adf7:	39 c2                	cmp    %eax,%edx
    adf9:	0f 9c c0             	setl   %al
    adfc:	0f b6 c0             	movzbl %al,%eax
    adff:	4c 89 ee             	mov    %r13,%rsi
    ae02:	48 89 c7             	mov    %rax,%rdi
    ae05:	e8 9e ca ff ff       	callq  78a8 <safe_sub_func_int64_t_s_s>
    ae0a:	89 c2                	mov    %eax,%edx
    ae0c:	48 8b 85 30 e9 ff ff 	mov    -0x16d0(%rbp),%rax
    ae13:	89 10                	mov    %edx,(%rax)
    ae15:	48 8b 85 30 e9 ff ff 	mov    -0x16d0(%rbp),%rax
    ae1c:	8b 00                	mov    (%rax),%eax
    ae1e:	48 98                	cltq   
    ae20:	4c 89 e6             	mov    %r12,%rsi
    ae23:	48 89 c7             	mov    %rax,%rdi
    ae26:	e8 03 d2 ff ff       	callq  802e <safe_add_func_uint64_t_u_u>
    ae2b:	48 8b 85 38 e9 ff ff 	mov    -0x16c8(%rbp),%rax
    ae32:	c6 00 01             	movb   $0x1,(%rax)
    ae35:	48 8b 85 38 e9 ff ff 	mov    -0x16c8(%rbp),%rax
    ae3c:	0f b6 10             	movzbl (%rax),%edx
    ae3f:	48 8b 85 80 e9 ff ff 	mov    -0x1680(%rbp),%rax
    ae46:	0f b6 00             	movzbl (%rax),%eax
    ae49:	09 c2                	or     %eax,%edx
    ae4b:	48 8b 85 80 e9 ff ff 	mov    -0x1680(%rbp),%rax
    ae52:	88 10                	mov    %dl,(%rax)
    ae54:	48 8b 85 80 e9 ff ff 	mov    -0x1680(%rbp),%rax
    ae5b:	0f b6 00             	movzbl (%rax),%eax
    ae5e:	0f be c0             	movsbl %al,%eax
    ae61:	89 de                	mov    %ebx,%esi
    ae63:	89 c7                	mov    %eax,%edi
    ae65:	e8 88 c3 ff ff       	callq  71f2 <safe_sub_func_int8_t_s_s>
    ae6a:	0f be c0             	movsbl %al,%eax
    ae6d:	39 85 b8 e8 ff ff    	cmp    %eax,-0x1748(%rbp)
    ae73:	0f 94 c0             	sete   %al
    ae76:	0f b6 c8             	movzbl %al,%ecx
    ae79:	48 8b 05 e0 3f 01 00 	mov    0x13fe0(%rip),%rax        # 1ee60 <g_615>
    ae80:	48 8b 00             	mov    (%rax),%rax
    ae83:	8b 10                	mov    (%rax),%edx
    ae85:	48 8b 05 d4 3f 01 00 	mov    0x13fd4(%rip),%rax        # 1ee60 <g_615>
    ae8c:	48 8b 00             	mov    (%rax),%rax
    ae8f:	09 ca                	or     %ecx,%edx
    ae91:	89 10                	mov    %edx,(%rax)
    ae93:	8b 05 27 23 01 00    	mov    0x12327(%rip),%eax        # 1d1c0 <g_11>
    ae99:	83 c0 01             	add    $0x1,%eax
    ae9c:	89 05 1e 23 01 00    	mov    %eax,0x1231e(%rip)        # 1d1c0 <g_11>
    aea2:	8b 05 18 23 01 00    	mov    0x12318(%rip),%eax        # 1d1c0 <g_11>
    aea8:	83 f8 05             	cmp    $0x5,%eax
    aeab:	0f 8e 8f ef ff ff    	jle    9e40 <func_2+0xb53>
    aeb1:	48 83 85 20 e9 ff ff 	addq   $0x1,-0x16e0(%rbp)
    aeb8:	01 
    aeb9:	eb 01                	jmp    aebc <func_2+0x1bcf>
    aebb:	90                   	nop
    aebc:	0f be 85 bc e8 ff ff 	movsbl -0x1744(%rbp),%eax
    aec3:	be 02 00 00 00       	mov    $0x2,%esi
    aec8:	89 c7                	mov    %eax,%edi
    aeca:	e8 e7 c6 ff ff       	callq  75b6 <safe_add_func_int32_t_s_s>
    aecf:	88 85 bc e8 ff ff    	mov    %al,-0x1744(%rbp)
    aed5:	80 bd bc e8 ff ff 1b 	cmpb   $0x1b,-0x1744(%rbp)
    aedc:	0f 8e d0 ed ff ff    	jle    9cb2 <func_2+0x9c5>
    aee2:	e9 97 00 00 00       	jmpq   af7e <func_2+0x1c91>
    aee7:	48 8d 05 6a d1 00 00 	lea    0xd16a(%rip),%rax        # 18058 <g_1282>
    aeee:	48 89 85 18 e9 ff ff 	mov    %rax,-0x16e8(%rbp)
    aef5:	48 8d 05 24 3b 01 00 	lea    0x13b24(%rip),%rax        # 1ea20 <g_471>
    aefc:	48 89 85 40 e9 ff ff 	mov    %rax,-0x16c0(%rbp)
    af03:	c7 85 f4 e8 ff ff ff 	movl   $0xffffffff,-0x170c(%rbp)
    af0a:	ff ff ff 
    af0d:	48 b8 88 b3 4c 51 fd 	movabs $0xde4aa7fd514cb388,%rax
    af14:	a7 4a de 
    af17:	48 89 85 30 f2 ff ff 	mov    %rax,-0xdd0(%rbp)
    af1e:	48 89 85 38 f2 ff ff 	mov    %rax,-0xdc8(%rbp)
    af25:	48 89 85 40 f2 ff ff 	mov    %rax,-0xdc0(%rbp)
    af2c:	48 89 85 48 f2 ff ff 	mov    %rax,-0xdb8(%rbp)
    af33:	48 89 85 50 f2 ff ff 	mov    %rax,-0xdb0(%rbp)
    af3a:	c7 85 e8 e8 ff ff 00 	movl   $0x0,-0x1718(%rbp)
    af41:	00 00 00 
    af44:	eb 1e                	jmp    af64 <func_2+0x1c77>
    af46:	8b 85 e8 e8 ff ff    	mov    -0x1718(%rbp),%eax
    af4c:	48 98                	cltq   
    af4e:	48 8d 95 18 e9 ff ff 	lea    -0x16e8(%rbp),%rdx
    af55:	48 89 94 c5 00 ec ff 	mov    %rdx,-0x1400(%rbp,%rax,8)
    af5c:	ff 
    af5d:	83 85 e8 e8 ff ff 01 	addl   $0x1,-0x1718(%rbp)
    af64:	83 bd e8 e8 ff ff 00 	cmpl   $0x0,-0x1718(%rbp)
    af6b:	7e d9                	jle    af46 <func_2+0x1c59>
    af6d:	48 8b 05 f4 3e 01 00 	mov    0x13ef4(%rip),%rax        # 1ee68 <g_739>
    af74:	48 8b 00             	mov    (%rax),%rax
    af77:	48 89 85 88 f0 ff ff 	mov    %rax,-0xf78(%rbp)
    af7e:	48 8b 05 73 40 01 00 	mov    0x14073(%rip),%rax        # 1eff8 <g_968>
    af85:	48 8d 95 d0 e9 ff ff 	lea    -0x1630(%rbp),%rdx
    af8c:	48 83 c2 18          	add    $0x18,%rdx
    af90:	48 89 10             	mov    %rdx,(%rax)
    af93:	48 8b 05 ce 3e 01 00 	mov    0x13ece(%rip),%rax        # 1ee68 <g_739>
    af9a:	48 8b 00             	mov    (%rax),%rax
    af9d:	48 8b 5d c8          	mov    -0x38(%rbp),%rbx
    afa1:	64 48 33 1c 25 28 00 	xor    %fs:0x28,%rbx
    afa8:	00 00 
    afaa:	74 05                	je     afb1 <func_2+0x1cc4>
    afac:	e8 bf c0 ff ff       	callq  7070 <__stack_chk_fail@plt>
    afb1:	48 81 c4 28 17 00 00 	add    $0x1728,%rsp
    afb8:	5b                   	pop    %rbx
    afb9:	41 5c                	pop    %r12
    afbb:	41 5d                	pop    %r13
    afbd:	41 5e                	pop    %r14
    afbf:	41 5f                	pop    %r15
    afc1:	5d                   	pop    %rbp
    afc2:	c3                   	retq   

000000000000afc3 <func_17>:
    afc3:	f3 0f 1e fa          	endbr64 
    afc7:	55                   	push   %rbp
    afc8:	48 89 e5             	mov    %rsp,%rbp
    afcb:	48 81 ec d0 05 00 00 	sub    $0x5d0,%rsp
    afd2:	48 89 bd 38 fa ff ff 	mov    %rdi,-0x5c8(%rbp)
    afd9:	64 48 8b 04 25 28 00 	mov    %fs:0x28,%rax
    afe0:	00 00 
    afe2:	48 89 45 f8          	mov    %rax,-0x8(%rbp)
    afe6:	31 c0                	xor    %eax,%eax
    afe8:	48 8d 05 05 21 01 00 	lea    0x12105(%rip),%rax        # 1d0f4 <g_6>
    afef:	48 89 85 48 fa ff ff 	mov    %rax,-0x5b8(%rbp)
    aff6:	48 8d 85 48 fa ff ff 	lea    -0x5b8(%rbp),%rax
    affd:	48 89 85 50 fa ff ff 	mov    %rax,-0x5b0(%rbp)
    b004:	48 8d 85 48 fa ff ff 	lea    -0x5b8(%rbp),%rax
    b00b:	48 89 85 58 fa ff ff 	mov    %rax,-0x5a8(%rbp)
    b012:	48 8d 85 48 fa ff ff 	lea    -0x5b8(%rbp),%rax
    b019:	48 89 85 60 fa ff ff 	mov    %rax,-0x5a0(%rbp)
    b020:	48 8d 85 48 fa ff ff 	lea    -0x5b8(%rbp),%rax
    b027:	48 89 85 68 fa ff ff 	mov    %rax,-0x598(%rbp)
    b02e:	48 8d 85 48 fa ff ff 	lea    -0x5b8(%rbp),%rax
    b035:	48 89 85 70 fa ff ff 	mov    %rax,-0x590(%rbp)
    b03c:	48 8d 85 48 fa ff ff 	lea    -0x5b8(%rbp),%rax
    b043:	48 89 85 78 fa ff ff 	mov    %rax,-0x588(%rbp)
    b04a:	48 8d 85 48 fa ff ff 	lea    -0x5b8(%rbp),%rax
    b051:	48 89 85 80 fa ff ff 	mov    %rax,-0x580(%rbp)
    b058:	48 8d 85 48 fa ff ff 	lea    -0x5b8(%rbp),%rax
    b05f:	48 89 85 88 fa ff ff 	mov    %rax,-0x578(%rbp)
    b066:	48 8d 85 48 fa ff ff 	lea    -0x5b8(%rbp),%rax
    b06d:	48 89 85 90 fa ff ff 	mov    %rax,-0x570(%rbp)
    b074:	48 c7 85 98 fa ff ff 	movq   $0x0,-0x568(%rbp)
    b07b:	00 00 00 00 
    b07f:	48 8d 85 48 fa ff ff 	lea    -0x5b8(%rbp),%rax
    b086:	48 89 85 a0 fa ff ff 	mov    %rax,-0x560(%rbp)
    b08d:	48 8d 85 48 fa ff ff 	lea    -0x5b8(%rbp),%rax
    b094:	48 89 85 a8 fa ff ff 	mov    %rax,-0x558(%rbp)
    b09b:	48 c7 85 b0 fa ff ff 	movq   $0x0,-0x550(%rbp)
    b0a2:	00 00 00 00 
    b0a6:	48 8d 85 48 fa ff ff 	lea    -0x5b8(%rbp),%rax
    b0ad:	48 89 85 b8 fa ff ff 	mov    %rax,-0x548(%rbp)
    b0b4:	48 8d 85 48 fa ff ff 	lea    -0x5b8(%rbp),%rax
    b0bb:	48 89 85 c0 fa ff ff 	mov    %rax,-0x540(%rbp)
    b0c2:	48 c7 85 c8 fa ff ff 	movq   $0x0,-0x538(%rbp)
    b0c9:	00 00 00 00 
    b0cd:	48 8d 85 48 fa ff ff 	lea    -0x5b8(%rbp),%rax
    b0d4:	48 89 85 d0 fa ff ff 	mov    %rax,-0x530(%rbp)
    b0db:	48 8d 85 48 fa ff ff 	lea    -0x5b8(%rbp),%rax
    b0e2:	48 89 85 d8 fa ff ff 	mov    %rax,-0x528(%rbp)
    b0e9:	48 8d 85 48 fa ff ff 	lea    -0x5b8(%rbp),%rax
    b0f0:	48 89 85 e0 fa ff ff 	mov    %rax,-0x520(%rbp)
    b0f7:	48 c7 85 e8 fa ff ff 	movq   $0x0,-0x518(%rbp)
    b0fe:	00 00 00 00 
    b102:	48 8d 85 48 fa ff ff 	lea    -0x5b8(%rbp),%rax
    b109:	48 89 85 f0 fa ff ff 	mov    %rax,-0x510(%rbp)
    b110:	48 8d 85 48 fa ff ff 	lea    -0x5b8(%rbp),%rax
    b117:	48 89 85 f8 fa ff ff 	mov    %rax,-0x508(%rbp)
    b11e:	48 8d 85 48 fa ff ff 	lea    -0x5b8(%rbp),%rax
    b125:	48 89 85 00 fb ff ff 	mov    %rax,-0x500(%rbp)
    b12c:	48 8d 85 48 fa ff ff 	lea    -0x5b8(%rbp),%rax
    b133:	48 89 85 08 fb ff ff 	mov    %rax,-0x4f8(%rbp)
    b13a:	48 8d 85 48 fa ff ff 	lea    -0x5b8(%rbp),%rax
    b141:	48 89 85 10 fb ff ff 	mov    %rax,-0x4f0(%rbp)
    b148:	48 8d 85 48 fa ff ff 	lea    -0x5b8(%rbp),%rax
    b14f:	48 89 85 18 fb ff ff 	mov    %rax,-0x4e8(%rbp)
    b156:	48 8d 85 48 fa ff ff 	lea    -0x5b8(%rbp),%rax
    b15d:	48 89 85 20 fb ff ff 	mov    %rax,-0x4e0(%rbp)
    b164:	48 8d 85 48 fa ff ff 	lea    -0x5b8(%rbp),%rax
    b16b:	48 89 85 28 fb ff ff 	mov    %rax,-0x4d8(%rbp)
    b172:	48 8d 85 48 fa ff ff 	lea    -0x5b8(%rbp),%rax
    b179:	48 89 85 30 fb ff ff 	mov    %rax,-0x4d0(%rbp)
    b180:	48 8d 85 48 fa ff ff 	lea    -0x5b8(%rbp),%rax
    b187:	48 89 85 38 fb ff ff 	mov    %rax,-0x4c8(%rbp)
    b18e:	48 8d 85 48 fa ff ff 	lea    -0x5b8(%rbp),%rax
    b195:	48 89 85 40 fb ff ff 	mov    %rax,-0x4c0(%rbp)
    b19c:	48 8d 85 48 fa ff ff 	lea    -0x5b8(%rbp),%rax
    b1a3:	48 89 85 48 fb ff ff 	mov    %rax,-0x4b8(%rbp)
    b1aa:	48 8d 85 48 fa ff ff 	lea    -0x5b8(%rbp),%rax
    b1b1:	48 89 85 50 fb ff ff 	mov    %rax,-0x4b0(%rbp)
    b1b8:	48 8d 85 48 fa ff ff 	lea    -0x5b8(%rbp),%rax
    b1bf:	48 89 85 58 fb ff ff 	mov    %rax,-0x4a8(%rbp)
    b1c6:	48 8d 85 48 fa ff ff 	lea    -0x5b8(%rbp),%rax
    b1cd:	48 89 85 60 fb ff ff 	mov    %rax,-0x4a0(%rbp)
    b1d4:	48 8d 85 48 fa ff ff 	lea    -0x5b8(%rbp),%rax
    b1db:	48 89 85 68 fb ff ff 	mov    %rax,-0x498(%rbp)
    b1e2:	48 8d 85 48 fa ff ff 	lea    -0x5b8(%rbp),%rax
    b1e9:	48 89 85 70 fb ff ff 	mov    %rax,-0x490(%rbp)
    b1f0:	48 8d 85 48 fa ff ff 	lea    -0x5b8(%rbp),%rax
    b1f7:	48 89 85 78 fb ff ff 	mov    %rax,-0x488(%rbp)
    b1fe:	48 8d 85 48 fa ff ff 	lea    -0x5b8(%rbp),%rax
    b205:	48 89 85 80 fb ff ff 	mov    %rax,-0x480(%rbp)
    b20c:	48 8d 85 48 fa ff ff 	lea    -0x5b8(%rbp),%rax
    b213:	48 89 85 88 fb ff ff 	mov    %rax,-0x478(%rbp)
    b21a:	48 8d 85 48 fa ff ff 	lea    -0x5b8(%rbp),%rax
    b221:	48 89 85 90 fb ff ff 	mov    %rax,-0x470(%rbp)
    b228:	48 8d 85 48 fa ff ff 	lea    -0x5b8(%rbp),%rax
    b22f:	48 89 85 98 fb ff ff 	mov    %rax,-0x468(%rbp)
    b236:	48 8d 85 48 fa ff ff 	lea    -0x5b8(%rbp),%rax
    b23d:	48 89 85 a0 fb ff ff 	mov    %rax,-0x460(%rbp)
    b244:	48 8d 85 48 fa ff ff 	lea    -0x5b8(%rbp),%rax
    b24b:	48 89 85 a8 fb ff ff 	mov    %rax,-0x458(%rbp)
    b252:	48 8d 85 48 fa ff ff 	lea    -0x5b8(%rbp),%rax
    b259:	48 89 85 b0 fb ff ff 	mov    %rax,-0x450(%rbp)
    b260:	48 8d 85 48 fa ff ff 	lea    -0x5b8(%rbp),%rax
    b267:	48 89 85 b8 fb ff ff 	mov    %rax,-0x448(%rbp)
    b26e:	48 8d 85 48 fa ff ff 	lea    -0x5b8(%rbp),%rax
    b275:	48 89 85 c0 fb ff ff 	mov    %rax,-0x440(%rbp)
    b27c:	48 c7 85 c8 fb ff ff 	movq   $0x0,-0x438(%rbp)
    b283:	00 00 00 00 
    b287:	48 8d 85 48 fa ff ff 	lea    -0x5b8(%rbp),%rax
    b28e:	48 89 85 d0 fb ff ff 	mov    %rax,-0x430(%rbp)
    b295:	48 8d 85 48 fa ff ff 	lea    -0x5b8(%rbp),%rax
    b29c:	48 89 85 d8 fb ff ff 	mov    %rax,-0x428(%rbp)
    b2a3:	48 8d 85 48 fa ff ff 	lea    -0x5b8(%rbp),%rax
    b2aa:	48 89 85 e0 fb ff ff 	mov    %rax,-0x420(%rbp)
    b2b1:	48 8d 85 48 fa ff ff 	lea    -0x5b8(%rbp),%rax
    b2b8:	48 89 85 e8 fb ff ff 	mov    %rax,-0x418(%rbp)
    b2bf:	48 8d 85 48 fa ff ff 	lea    -0x5b8(%rbp),%rax
    b2c6:	48 89 85 f0 fb ff ff 	mov    %rax,-0x410(%rbp)
    b2cd:	48 8d 85 48 fa ff ff 	lea    -0x5b8(%rbp),%rax
    b2d4:	48 89 85 f8 fb ff ff 	mov    %rax,-0x408(%rbp)
    b2db:	48 8d 85 48 fa ff ff 	lea    -0x5b8(%rbp),%rax
    b2e2:	48 89 85 00 fc ff ff 	mov    %rax,-0x400(%rbp)
    b2e9:	48 8d 85 48 fa ff ff 	lea    -0x5b8(%rbp),%rax
    b2f0:	48 89 85 08 fc ff ff 	mov    %rax,-0x3f8(%rbp)
    b2f7:	48 8d 85 48 fa ff ff 	lea    -0x5b8(%rbp),%rax
    b2fe:	48 89 85 10 fc ff ff 	mov    %rax,-0x3f0(%rbp)
    b305:	48 8d 85 48 fa ff ff 	lea    -0x5b8(%rbp),%rax
    b30c:	48 89 85 18 fc ff ff 	mov    %rax,-0x3e8(%rbp)
    b313:	48 8d 85 48 fa ff ff 	lea    -0x5b8(%rbp),%rax
    b31a:	48 89 85 20 fc ff ff 	mov    %rax,-0x3e0(%rbp)
    b321:	48 c7 85 28 fc ff ff 	movq   $0x0,-0x3d8(%rbp)
    b328:	00 00 00 00 
    b32c:	48 8d 85 48 fa ff ff 	lea    -0x5b8(%rbp),%rax
    b333:	48 89 85 30 fc ff ff 	mov    %rax,-0x3d0(%rbp)
    b33a:	48 8d 85 48 fa ff ff 	lea    -0x5b8(%rbp),%rax
    b341:	48 89 85 38 fc ff ff 	mov    %rax,-0x3c8(%rbp)
    b348:	48 8d 85 48 fa ff ff 	lea    -0x5b8(%rbp),%rax
    b34f:	48 89 85 40 fc ff ff 	mov    %rax,-0x3c0(%rbp)
    b356:	48 8d 85 48 fa ff ff 	lea    -0x5b8(%rbp),%rax
    b35d:	48 89 85 48 fc ff ff 	mov    %rax,-0x3b8(%rbp)
    b364:	48 8d 85 48 fa ff ff 	lea    -0x5b8(%rbp),%rax
    b36b:	48 89 85 50 fc ff ff 	mov    %rax,-0x3b0(%rbp)
    b372:	48 8d 85 48 fa ff ff 	lea    -0x5b8(%rbp),%rax
    b379:	48 89 85 58 fc ff ff 	mov    %rax,-0x3a8(%rbp)
    b380:	48 c7 85 60 fc ff ff 	movq   $0x0,-0x3a0(%rbp)
    b387:	00 00 00 00 
    b38b:	48 8d 85 48 fa ff ff 	lea    -0x5b8(%rbp),%rax
    b392:	48 89 85 68 fc ff ff 	mov    %rax,-0x398(%rbp)
    b399:	48 8d 85 48 fa ff ff 	lea    -0x5b8(%rbp),%rax
    b3a0:	48 89 85 70 fc ff ff 	mov    %rax,-0x390(%rbp)
    b3a7:	48 8d 85 48 fa ff ff 	lea    -0x5b8(%rbp),%rax
    b3ae:	48 89 85 78 fc ff ff 	mov    %rax,-0x388(%rbp)
    b3b5:	48 8d 85 48 fa ff ff 	lea    -0x5b8(%rbp),%rax
    b3bc:	48 89 85 80 fc ff ff 	mov    %rax,-0x380(%rbp)
    b3c3:	48 8d 85 48 fa ff ff 	lea    -0x5b8(%rbp),%rax
    b3ca:	48 89 85 88 fc ff ff 	mov    %rax,-0x378(%rbp)
    b3d1:	48 8d 85 48 fa ff ff 	lea    -0x5b8(%rbp),%rax
    b3d8:	48 89 85 90 fc ff ff 	mov    %rax,-0x370(%rbp)
    b3df:	48 8d 85 48 fa ff ff 	lea    -0x5b8(%rbp),%rax
    b3e6:	48 89 85 98 fc ff ff 	mov    %rax,-0x368(%rbp)
    b3ed:	48 8d 85 48 fa ff ff 	lea    -0x5b8(%rbp),%rax
    b3f4:	48 89 85 a0 fc ff ff 	mov    %rax,-0x360(%rbp)
    b3fb:	48 8d 85 48 fa ff ff 	lea    -0x5b8(%rbp),%rax
    b402:	48 89 85 a8 fc ff ff 	mov    %rax,-0x358(%rbp)
    b409:	48 8d 85 48 fa ff ff 	lea    -0x5b8(%rbp),%rax
    b410:	48 89 85 b0 fc ff ff 	mov    %rax,-0x350(%rbp)
    b417:	48 c7 85 b8 fc ff ff 	movq   $0x0,-0x348(%rbp)
    b41e:	00 00 00 00 
    b422:	48 8d 85 48 fa ff ff 	lea    -0x5b8(%rbp),%rax
    b429:	48 89 85 c0 fc ff ff 	mov    %rax,-0x340(%rbp)
    b430:	48 8d 85 48 fa ff ff 	lea    -0x5b8(%rbp),%rax
    b437:	48 89 85 c8 fc ff ff 	mov    %rax,-0x338(%rbp)
    b43e:	48 c7 85 d0 fc ff ff 	movq   $0x0,-0x330(%rbp)
    b445:	00 00 00 00 
    b449:	48 8d 85 48 fa ff ff 	lea    -0x5b8(%rbp),%rax
    b450:	48 89 85 d8 fc ff ff 	mov    %rax,-0x328(%rbp)
    b457:	48 c7 85 e0 fc ff ff 	movq   $0x0,-0x320(%rbp)
    b45e:	00 00 00 00 
    b462:	48 8d 85 48 fa ff ff 	lea    -0x5b8(%rbp),%rax
    b469:	48 89 85 e8 fc ff ff 	mov    %rax,-0x318(%rbp)
    b470:	48 c7 85 f0 fc ff ff 	movq   $0x0,-0x310(%rbp)
    b477:	00 00 00 00 
    b47b:	48 8d 85 48 fa ff ff 	lea    -0x5b8(%rbp),%rax
    b482:	48 89 85 f8 fc ff ff 	mov    %rax,-0x308(%rbp)
    b489:	48 8d 85 48 fa ff ff 	lea    -0x5b8(%rbp),%rax
    b490:	48 89 85 00 fd ff ff 	mov    %rax,-0x300(%rbp)
    b497:	48 8d 85 48 fa ff ff 	lea    -0x5b8(%rbp),%rax
    b49e:	48 89 85 08 fd ff ff 	mov    %rax,-0x2f8(%rbp)
    b4a5:	48 8d 85 48 fa ff ff 	lea    -0x5b8(%rbp),%rax
    b4ac:	48 89 85 10 fd ff ff 	mov    %rax,-0x2f0(%rbp)
    b4b3:	48 c7 85 18 fd ff ff 	movq   $0x0,-0x2e8(%rbp)
    b4ba:	00 00 00 00 
    b4be:	48 8d 85 48 fa ff ff 	lea    -0x5b8(%rbp),%rax
    b4c5:	48 89 85 20 fd ff ff 	mov    %rax,-0x2e0(%rbp)
    b4cc:	48 8d 85 48 fa ff ff 	lea    -0x5b8(%rbp),%rax
    b4d3:	48 89 85 28 fd ff ff 	mov    %rax,-0x2d8(%rbp)
    b4da:	48 8d 85 48 fa ff ff 	lea    -0x5b8(%rbp),%rax
    b4e1:	48 89 85 30 fd ff ff 	mov    %rax,-0x2d0(%rbp)
    b4e8:	48 8d 85 48 fa ff ff 	lea    -0x5b8(%rbp),%rax
    b4ef:	48 89 85 38 fd ff ff 	mov    %rax,-0x2c8(%rbp)
    b4f6:	48 c7 85 40 fd ff ff 	movq   $0x0,-0x2c0(%rbp)
    b4fd:	00 00 00 00 
    b501:	48 8d 85 48 fa ff ff 	lea    -0x5b8(%rbp),%rax
    b508:	48 89 85 48 fd ff ff 	mov    %rax,-0x2b8(%rbp)
    b50f:	48 8d 85 48 fa ff ff 	lea    -0x5b8(%rbp),%rax
    b516:	48 89 85 50 fd ff ff 	mov    %rax,-0x2b0(%rbp)
    b51d:	48 8d 85 48 fa ff ff 	lea    -0x5b8(%rbp),%rax
    b524:	48 89 85 58 fd ff ff 	mov    %rax,-0x2a8(%rbp)
    b52b:	48 c7 85 60 fd ff ff 	movq   $0x0,-0x2a0(%rbp)
    b532:	00 00 00 00 
    b536:	48 8d 85 48 fa ff ff 	lea    -0x5b8(%rbp),%rax
    b53d:	48 89 85 68 fd ff ff 	mov    %rax,-0x298(%rbp)
    b544:	48 8d 85 48 fa ff ff 	lea    -0x5b8(%rbp),%rax
    b54b:	48 89 85 70 fd ff ff 	mov    %rax,-0x290(%rbp)
    b552:	48 8d 85 48 fa ff ff 	lea    -0x5b8(%rbp),%rax
    b559:	48 89 85 78 fd ff ff 	mov    %rax,-0x288(%rbp)
    b560:	48 8d 85 48 fa ff ff 	lea    -0x5b8(%rbp),%rax
    b567:	48 89 85 80 fd ff ff 	mov    %rax,-0x280(%rbp)
    b56e:	48 c7 85 88 fd ff ff 	movq   $0x0,-0x278(%rbp)
    b575:	00 00 00 00 
    b579:	48 8d 85 48 fa ff ff 	lea    -0x5b8(%rbp),%rax
    b580:	48 89 85 90 fd ff ff 	mov    %rax,-0x270(%rbp)
    b587:	48 8d 85 48 fa ff ff 	lea    -0x5b8(%rbp),%rax
    b58e:	48 89 85 98 fd ff ff 	mov    %rax,-0x268(%rbp)
    b595:	48 8d 85 48 fa ff ff 	lea    -0x5b8(%rbp),%rax
    b59c:	48 89 85 a0 fd ff ff 	mov    %rax,-0x260(%rbp)
    b5a3:	48 8d 85 48 fa ff ff 	lea    -0x5b8(%rbp),%rax
    b5aa:	48 89 85 a8 fd ff ff 	mov    %rax,-0x258(%rbp)
    b5b1:	48 c7 85 b0 fd ff ff 	movq   $0x0,-0x250(%rbp)
    b5b8:	00 00 00 00 
    b5bc:	48 8d 85 48 fa ff ff 	lea    -0x5b8(%rbp),%rax
    b5c3:	48 89 85 b8 fd ff ff 	mov    %rax,-0x248(%rbp)
    b5ca:	48 c7 85 c0 fd ff ff 	movq   $0x0,-0x240(%rbp)
    b5d1:	00 00 00 00 
    b5d5:	48 8d 85 48 fa ff ff 	lea    -0x5b8(%rbp),%rax
    b5dc:	48 89 85 c8 fd ff ff 	mov    %rax,-0x238(%rbp)
    b5e3:	48 c7 85 d0 fd ff ff 	movq   $0x0,-0x230(%rbp)
    b5ea:	00 00 00 00 
    b5ee:	48 8d 85 48 fa ff ff 	lea    -0x5b8(%rbp),%rax
    b5f5:	48 89 85 d8 fd ff ff 	mov    %rax,-0x228(%rbp)
    b5fc:	48 8d 85 48 fa ff ff 	lea    -0x5b8(%rbp),%rax
    b603:	48 89 85 e0 fd ff ff 	mov    %rax,-0x220(%rbp)
    b60a:	48 c7 85 e8 fd ff ff 	movq   $0x0,-0x218(%rbp)
    b611:	00 00 00 00 
    b615:	48 8d 85 48 fa ff ff 	lea    -0x5b8(%rbp),%rax
    b61c:	48 89 85 f0 fd ff ff 	mov    %rax,-0x210(%rbp)
    b623:	48 8d 85 48 fa ff ff 	lea    -0x5b8(%rbp),%rax
    b62a:	48 89 85 f8 fd ff ff 	mov    %rax,-0x208(%rbp)
    b631:	48 8d 85 48 fa ff ff 	lea    -0x5b8(%rbp),%rax
    b638:	48 89 85 00 fe ff ff 	mov    %rax,-0x200(%rbp)
    b63f:	48 8d 85 48 fa ff ff 	lea    -0x5b8(%rbp),%rax
    b646:	48 89 85 08 fe ff ff 	mov    %rax,-0x1f8(%rbp)
    b64d:	48 8d 85 48 fa ff ff 	lea    -0x5b8(%rbp),%rax
    b654:	48 89 85 10 fe ff ff 	mov    %rax,-0x1f0(%rbp)
    b65b:	48 8d 85 48 fa ff ff 	lea    -0x5b8(%rbp),%rax
    b662:	48 89 85 18 fe ff ff 	mov    %rax,-0x1e8(%rbp)
    b669:	48 8d 85 48 fa ff ff 	lea    -0x5b8(%rbp),%rax
    b670:	48 89 85 20 fe ff ff 	mov    %rax,-0x1e0(%rbp)
    b677:	48 8d 85 48 fa ff ff 	lea    -0x5b8(%rbp),%rax
    b67e:	48 89 85 28 fe ff ff 	mov    %rax,-0x1d8(%rbp)
    b685:	48 8d 85 48 fa ff ff 	lea    -0x5b8(%rbp),%rax
    b68c:	48 89 85 30 fe ff ff 	mov    %rax,-0x1d0(%rbp)
    b693:	48 8d 85 48 fa ff ff 	lea    -0x5b8(%rbp),%rax
    b69a:	48 89 85 38 fe ff ff 	mov    %rax,-0x1c8(%rbp)
    b6a1:	48 c7 85 40 fe ff ff 	movq   $0x0,-0x1c0(%rbp)
    b6a8:	00 00 00 00 
    b6ac:	48 8d 85 48 fa ff ff 	lea    -0x5b8(%rbp),%rax
    b6b3:	48 89 85 48 fe ff ff 	mov    %rax,-0x1b8(%rbp)
    b6ba:	48 8d 85 48 fa ff ff 	lea    -0x5b8(%rbp),%rax
    b6c1:	48 89 85 50 fe ff ff 	mov    %rax,-0x1b0(%rbp)
    b6c8:	48 8d 85 48 fa ff ff 	lea    -0x5b8(%rbp),%rax
    b6cf:	48 89 85 58 fe ff ff 	mov    %rax,-0x1a8(%rbp)
    b6d6:	48 8d 85 48 fa ff ff 	lea    -0x5b8(%rbp),%rax
    b6dd:	48 89 85 60 fe ff ff 	mov    %rax,-0x1a0(%rbp)
    b6e4:	48 8d 85 48 fa ff ff 	lea    -0x5b8(%rbp),%rax
    b6eb:	48 89 85 68 fe ff ff 	mov    %rax,-0x198(%rbp)
    b6f2:	48 8d 85 48 fa ff ff 	lea    -0x5b8(%rbp),%rax
    b6f9:	48 89 85 70 fe ff ff 	mov    %rax,-0x190(%rbp)
    b700:	48 c7 85 78 fe ff ff 	movq   $0x0,-0x188(%rbp)
    b707:	00 00 00 00 
    b70b:	48 8d 85 48 fa ff ff 	lea    -0x5b8(%rbp),%rax
    b712:	48 89 85 80 fe ff ff 	mov    %rax,-0x180(%rbp)
    b719:	48 8d 85 48 fa ff ff 	lea    -0x5b8(%rbp),%rax
    b720:	48 89 85 88 fe ff ff 	mov    %rax,-0x178(%rbp)
    b727:	48 8d 85 48 fa ff ff 	lea    -0x5b8(%rbp),%rax
    b72e:	48 89 85 90 fe ff ff 	mov    %rax,-0x170(%rbp)
    b735:	48 8d 85 48 fa ff ff 	lea    -0x5b8(%rbp),%rax
    b73c:	48 89 85 98 fe ff ff 	mov    %rax,-0x168(%rbp)
    b743:	48 8d 85 48 fa ff ff 	lea    -0x5b8(%rbp),%rax
    b74a:	48 89 85 a0 fe ff ff 	mov    %rax,-0x160(%rbp)
    b751:	48 8d 85 48 fa ff ff 	lea    -0x5b8(%rbp),%rax
    b758:	48 89 85 a8 fe ff ff 	mov    %rax,-0x158(%rbp)
    b75f:	48 8d 85 48 fa ff ff 	lea    -0x5b8(%rbp),%rax
    b766:	48 89 85 b0 fe ff ff 	mov    %rax,-0x150(%rbp)
    b76d:	48 8d 85 48 fa ff ff 	lea    -0x5b8(%rbp),%rax
    b774:	48 89 85 b8 fe ff ff 	mov    %rax,-0x148(%rbp)
    b77b:	48 8d 85 48 fa ff ff 	lea    -0x5b8(%rbp),%rax
    b782:	48 89 85 c0 fe ff ff 	mov    %rax,-0x140(%rbp)
    b789:	48 8d 85 48 fa ff ff 	lea    -0x5b8(%rbp),%rax
    b790:	48 89 85 c8 fe ff ff 	mov    %rax,-0x138(%rbp)
    b797:	48 8d 85 48 fa ff ff 	lea    -0x5b8(%rbp),%rax
    b79e:	48 89 85 d0 fe ff ff 	mov    %rax,-0x130(%rbp)
    b7a5:	48 8d 85 48 fa ff ff 	lea    -0x5b8(%rbp),%rax
    b7ac:	48 89 85 d8 fe ff ff 	mov    %rax,-0x128(%rbp)
    b7b3:	48 8d 85 48 fa ff ff 	lea    -0x5b8(%rbp),%rax
    b7ba:	48 89 85 e0 fe ff ff 	mov    %rax,-0x120(%rbp)
    b7c1:	48 8d 85 48 fa ff ff 	lea    -0x5b8(%rbp),%rax
    b7c8:	48 89 85 e8 fe ff ff 	mov    %rax,-0x118(%rbp)
    b7cf:	48 8d 85 48 fa ff ff 	lea    -0x5b8(%rbp),%rax
    b7d6:	48 89 85 f0 fe ff ff 	mov    %rax,-0x110(%rbp)
    b7dd:	48 8d 85 48 fa ff ff 	lea    -0x5b8(%rbp),%rax
    b7e4:	48 89 85 f8 fe ff ff 	mov    %rax,-0x108(%rbp)
    b7eb:	48 c7 85 00 ff ff ff 	movq   $0x0,-0x100(%rbp)
    b7f2:	00 00 00 00 
    b7f6:	48 8d 85 48 fa ff ff 	lea    -0x5b8(%rbp),%rax
    b7fd:	48 89 85 08 ff ff ff 	mov    %rax,-0xf8(%rbp)
    b804:	48 8d 85 48 fa ff ff 	lea    -0x5b8(%rbp),%rax
    b80b:	48 89 85 10 ff ff ff 	mov    %rax,-0xf0(%rbp)
    b812:	48 8d 85 48 fa ff ff 	lea    -0x5b8(%rbp),%rax
    b819:	48 89 85 18 ff ff ff 	mov    %rax,-0xe8(%rbp)
    b820:	48 8d 85 48 fa ff ff 	lea    -0x5b8(%rbp),%rax
    b827:	48 89 85 20 ff ff ff 	mov    %rax,-0xe0(%rbp)
    b82e:	48 8d 85 48 fa ff ff 	lea    -0x5b8(%rbp),%rax
    b835:	48 89 85 28 ff ff ff 	mov    %rax,-0xd8(%rbp)
    b83c:	48 8d 85 48 fa ff ff 	lea    -0x5b8(%rbp),%rax
    b843:	48 89 85 30 ff ff ff 	mov    %rax,-0xd0(%rbp)
    b84a:	48 8d 85 48 fa ff ff 	lea    -0x5b8(%rbp),%rax
    b851:	48 89 85 38 ff ff ff 	mov    %rax,-0xc8(%rbp)
    b858:	48 8d 85 48 fa ff ff 	lea    -0x5b8(%rbp),%rax
    b85f:	48 89 85 40 ff ff ff 	mov    %rax,-0xc0(%rbp)
    b866:	48 8d 85 48 fa ff ff 	lea    -0x5b8(%rbp),%rax
    b86d:	48 89 85 48 ff ff ff 	mov    %rax,-0xb8(%rbp)
    b874:	48 8d 85 48 fa ff ff 	lea    -0x5b8(%rbp),%rax
    b87b:	48 89 85 50 ff ff ff 	mov    %rax,-0xb0(%rbp)
    b882:	48 8d 85 48 fa ff ff 	lea    -0x5b8(%rbp),%rax
    b889:	48 89 85 58 ff ff ff 	mov    %rax,-0xa8(%rbp)
    b890:	48 8d 85 48 fa ff ff 	lea    -0x5b8(%rbp),%rax
    b897:	48 89 85 60 ff ff ff 	mov    %rax,-0xa0(%rbp)
    b89e:	48 8d 85 48 fa ff ff 	lea    -0x5b8(%rbp),%rax
    b8a5:	48 89 85 68 ff ff ff 	mov    %rax,-0x98(%rbp)
    b8ac:	48 8d 85 48 fa ff ff 	lea    -0x5b8(%rbp),%rax
    b8b3:	48 89 85 70 ff ff ff 	mov    %rax,-0x90(%rbp)
    b8ba:	48 8d 85 48 fa ff ff 	lea    -0x5b8(%rbp),%rax
    b8c1:	48 89 85 78 ff ff ff 	mov    %rax,-0x88(%rbp)
    b8c8:	48 8d 85 48 fa ff ff 	lea    -0x5b8(%rbp),%rax
    b8cf:	48 89 45 80          	mov    %rax,-0x80(%rbp)
    b8d3:	48 8d 85 48 fa ff ff 	lea    -0x5b8(%rbp),%rax
    b8da:	48 89 45 88          	mov    %rax,-0x78(%rbp)
    b8de:	48 c7 45 90 00 00 00 	movq   $0x0,-0x70(%rbp)
    b8e5:	00 
    b8e6:	48 8d 85 48 fa ff ff 	lea    -0x5b8(%rbp),%rax
    b8ed:	48 89 45 98          	mov    %rax,-0x68(%rbp)
    b8f1:	48 8d 85 48 fa ff ff 	lea    -0x5b8(%rbp),%rax
    b8f8:	48 89 45 a0          	mov    %rax,-0x60(%rbp)
    b8fc:	48 8d 85 48 fa ff ff 	lea    -0x5b8(%rbp),%rax
    b903:	48 89 45 a8          	mov    %rax,-0x58(%rbp)
    b907:	48 8d 85 48 fa ff ff 	lea    -0x5b8(%rbp),%rax
    b90e:	48 89 45 b0          	mov    %rax,-0x50(%rbp)
    b912:	48 8d 85 48 fa ff ff 	lea    -0x5b8(%rbp),%rax
    b919:	48 89 45 b8          	mov    %rax,-0x48(%rbp)
    b91d:	48 8d 85 48 fa ff ff 	lea    -0x5b8(%rbp),%rax
    b924:	48 89 45 c0          	mov    %rax,-0x40(%rbp)
    b928:	48 8d 85 48 fa ff ff 	lea    -0x5b8(%rbp),%rax
    b92f:	48 89 45 c8          	mov    %rax,-0x38(%rbp)
    b933:	48 8d 85 48 fa ff ff 	lea    -0x5b8(%rbp),%rax
    b93a:	48 89 45 d0          	mov    %rax,-0x30(%rbp)
    b93e:	48 8d 85 48 fa ff ff 	lea    -0x5b8(%rbp),%rax
    b945:	48 89 45 d8          	mov    %rax,-0x28(%rbp)
    b949:	48 8d 85 48 fa ff ff 	lea    -0x5b8(%rbp),%rax
    b950:	48 89 45 e0          	mov    %rax,-0x20(%rbp)
    b954:	48 8d 85 48 fa ff ff 	lea    -0x5b8(%rbp),%rax
    b95b:	48 89 45 e8          	mov    %rax,-0x18(%rbp)
    b95f:	48 8b 05 da 2e 01 00 	mov    0x12eda(%rip),%rax        # 1e840 <g_5>
    b966:	8b 10                	mov    (%rax),%edx
    b968:	48 8b 85 38 fa ff ff 	mov    -0x5c8(%rbp),%rax
    b96f:	89 10                	mov    %edx,(%rax)
    b971:	48 8b 05 c8 2e 01 00 	mov    0x12ec8(%rip),%rax        # 1e840 <g_5>
    b978:	48 8b 95 38 fa ff ff 	mov    -0x5c8(%rbp),%rdx
    b97f:	8b 12                	mov    (%rdx),%edx
    b981:	89 10                	mov    %edx,(%rax)
    b983:	48 8d 05 6e 17 01 00 	lea    0x1176e(%rip),%rax        # 1d0f8 <g_9>
    b98a:	48 89 05 af 2e 01 00 	mov    %rax,0x12eaf(%rip)        # 1e840 <g_5>
    b991:	48 8b 05 30 18 01 00 	mov    0x11830(%rip),%rax        # 1d1c8 <g_21>
    b998:	48 8b 4d f8          	mov    -0x8(%rbp),%rcx
    b99c:	64 48 33 0c 25 28 00 	xor    %fs:0x28,%rcx
    b9a3:	00 00 
    b9a5:	74 05                	je     b9ac <func_17+0x9e9>
    b9a7:	e8 c4 b6 ff ff       	callq  7070 <__stack_chk_fail@plt>
    b9ac:	c9                   	leaveq 
    b9ad:	c3                   	retq   

000000000000b9ae <func_22>:
    b9ae:	f3 0f 1e fa          	endbr64 
    b9b2:	55                   	push   %rbp
    b9b3:	48 89 e5             	mov    %rsp,%rbp
    b9b6:	41 57                	push   %r15
    b9b8:	41 56                	push   %r14
    b9ba:	41 55                	push   %r13
    b9bc:	41 54                	push   %r12
    b9be:	53                   	push   %rbx
    b9bf:	48 81 ec 00 10 00 00 	sub    $0x1000,%rsp
    b9c6:	48 83 0c 24 00       	orq    $0x0,(%rsp)
    b9cb:	48 81 ec d8 09 00 00 	sub    $0x9d8,%rsp
    b9d2:	89 f8                	mov    %edi,%eax
    b9d4:	48 89 b5 20 e6 ff ff 	mov    %rsi,-0x19e0(%rbp)
    b9db:	89 95 28 e6 ff ff    	mov    %edx,-0x19d8(%rbp)
    b9e1:	88 85 2c e6 ff ff    	mov    %al,-0x19d4(%rbp)
    b9e7:	64 48 8b 04 25 28 00 	mov    %fs:0x28,%rax
    b9ee:	00 00 
    b9f0:	48 89 45 c8          	mov    %rax,-0x38(%rbp)
    b9f4:	31 c0                	xor    %eax,%eax
    b9f6:	48 c7 85 e8 e6 ff ff 	movq   $0x0,-0x1918(%rbp)
    b9fd:	00 00 00 00 
    ba01:	c6 85 30 e6 ff ff 4e 	movb   $0x4e,-0x19d0(%rbp)
    ba08:	c7 85 a0 e9 ff ff 01 	movl   $0x1,-0x1660(%rbp)
    ba0f:	00 00 00 
    ba12:	c7 85 a4 e9 ff ff 01 	movl   $0x1,-0x165c(%rbp)
    ba19:	00 00 00 
    ba1c:	c7 85 a8 e9 ff ff 06 	movl   $0x6,-0x1658(%rbp)
    ba23:	00 00 00 
    ba26:	c7 85 ac e9 ff ff 8d 	movl   $0x8a865b8d,-0x1654(%rbp)
    ba2d:	5b 86 8a 
    ba30:	c7 85 b0 e9 ff ff 06 	movl   $0x6,-0x1650(%rbp)
    ba37:	00 00 00 
    ba3a:	c7 85 b4 e9 ff ff 01 	movl   $0x1,-0x164c(%rbp)
    ba41:	00 00 00 
    ba44:	c7 85 b8 e9 ff ff 01 	movl   $0x1,-0x1648(%rbp)
    ba4b:	00 00 00 
    ba4e:	c7 85 bc e9 ff ff 06 	movl   $0x6,-0x1644(%rbp)
    ba55:	00 00 00 
    ba58:	c7 85 c0 e9 ff ff 8d 	movl   $0x8a865b8d,-0x1640(%rbp)
    ba5f:	5b 86 8a 
    ba62:	c7 85 c4 e9 ff ff 06 	movl   $0x6,-0x163c(%rbp)
    ba69:	00 00 00 
    ba6c:	c7 85 7c e6 ff ff ff 	movl   $0xffffffff,-0x1984(%rbp)
    ba73:	ff ff ff 
    ba76:	48 8d 05 23 33 01 00 	lea    0x13323(%rip),%rax        # 1eda0 <g_608>
    ba7d:	48 89 85 40 e7 ff ff 	mov    %rax,-0x18c0(%rbp)
    ba84:	c7 85 44 e6 ff ff 3b 	movl   $0xb383fc3b,-0x19bc(%rbp)
    ba8b:	fc 83 b3 
    ba8e:	c7 85 f0 eb ff ff fd 	movl   $0xfffffffd,-0x1410(%rbp)
    ba95:	ff ff ff 
    ba98:	c7 85 f4 eb ff ff f8 	movl   $0xfffffff8,-0x140c(%rbp)
    ba9f:	ff ff ff 
    baa2:	c7 85 f8 eb ff ff fd 	movl   $0xfffffffd,-0x1408(%rbp)
    baa9:	ff ff ff 
    baac:	c7 85 fc eb ff ff 06 	movl   $0x6,-0x1404(%rbp)
    bab3:	00 00 00 
    bab6:	c7 85 00 ec ff ff 06 	movl   $0x6,-0x1400(%rbp)
    babd:	00 00 00 
    bac0:	c7 85 04 ec ff ff fd 	movl   $0xfffffffd,-0x13fc(%rbp)
    bac7:	ff ff ff 
    baca:	c7 85 08 ec ff ff f8 	movl   $0xfffffff8,-0x13f8(%rbp)
    bad1:	ff ff ff 
    bad4:	c7 85 0c ec ff ff fd 	movl   $0xfffffffd,-0x13f4(%rbp)
    badb:	ff ff ff 
    bade:	c7 85 10 ec ff ff 06 	movl   $0x6,-0x13f0(%rbp)
    bae5:	00 00 00 
    bae8:	c7 85 14 ec ff ff 06 	movl   $0x6,-0x13ec(%rbp)
    baef:	00 00 00 
    baf2:	c7 85 18 ec ff ff fd 	movl   $0xfffffffd,-0x13e8(%rbp)
    baf9:	ff ff ff 
    bafc:	c7 85 1c ec ff ff f8 	movl   $0xfffffff8,-0x13e4(%rbp)
    bb03:	ff ff ff 
    bb06:	c7 85 20 ec ff ff fd 	movl   $0xfffffffd,-0x13e0(%rbp)
    bb0d:	ff ff ff 
    bb10:	c7 85 24 ec ff ff 06 	movl   $0x6,-0x13dc(%rbp)
    bb17:	00 00 00 
    bb1a:	c7 85 28 ec ff ff 06 	movl   $0x6,-0x13d8(%rbp)
    bb21:	00 00 00 
    bb24:	c7 85 2c ec ff ff fd 	movl   $0xfffffffd,-0x13d4(%rbp)
    bb2b:	ff ff ff 
    bb2e:	c7 85 30 ec ff ff f8 	movl   $0xfffffff8,-0x13d0(%rbp)
    bb35:	ff ff ff 
    bb38:	c7 85 34 ec ff ff fd 	movl   $0xfffffffd,-0x13cc(%rbp)
    bb3f:	ff ff ff 
    bb42:	c7 85 38 ec ff ff 06 	movl   $0x6,-0x13c8(%rbp)
    bb49:	00 00 00 
    bb4c:	c7 85 3c ec ff ff 06 	movl   $0x6,-0x13c4(%rbp)
    bb53:	00 00 00 
    bb56:	c7 85 40 ec ff ff fd 	movl   $0xfffffffd,-0x13c0(%rbp)
    bb5d:	ff ff ff 
    bb60:	c7 85 44 ec ff ff f8 	movl   $0xfffffff8,-0x13bc(%rbp)
    bb67:	ff ff ff 
    bb6a:	c7 85 48 ec ff ff fd 	movl   $0xfffffffd,-0x13b8(%rbp)
    bb71:	ff ff ff 
    bb74:	c7 85 4c ec ff ff 06 	movl   $0x6,-0x13b4(%rbp)
    bb7b:	00 00 00 
    bb7e:	c7 85 50 ec ff ff 06 	movl   $0x6,-0x13b0(%rbp)
    bb85:	00 00 00 
    bb88:	c7 85 54 ec ff ff fd 	movl   $0xfffffffd,-0x13ac(%rbp)
    bb8f:	ff ff ff 
    bb92:	c7 85 58 ec ff ff f8 	movl   $0xfffffff8,-0x13a8(%rbp)
    bb99:	ff ff ff 
    bb9c:	c7 85 5c ec ff ff fd 	movl   $0xfffffffd,-0x13a4(%rbp)
    bba3:	ff ff ff 
    bba6:	c7 85 60 ec ff ff 06 	movl   $0x6,-0x13a0(%rbp)
    bbad:	00 00 00 
    bbb0:	c7 85 64 ec ff ff 06 	movl   $0x6,-0x139c(%rbp)
    bbb7:	00 00 00 
    bbba:	c7 85 68 ec ff ff fd 	movl   $0xfffffffd,-0x1398(%rbp)
    bbc1:	ff ff ff 
    bbc4:	c7 85 6c ec ff ff f8 	movl   $0xfffffff8,-0x1394(%rbp)
    bbcb:	ff ff ff 
    bbce:	c7 85 70 ec ff ff fd 	movl   $0xfffffffd,-0x1390(%rbp)
    bbd5:	ff ff ff 
    bbd8:	c7 85 74 ec ff ff 06 	movl   $0x6,-0x138c(%rbp)
    bbdf:	00 00 00 
    bbe2:	c7 85 78 ec ff ff 06 	movl   $0x6,-0x1388(%rbp)
    bbe9:	00 00 00 
    bbec:	c7 85 7c ec ff ff fd 	movl   $0xfffffffd,-0x1384(%rbp)
    bbf3:	ff ff ff 
    bbf6:	c7 85 80 ec ff ff f8 	movl   $0xfffffff8,-0x1380(%rbp)
    bbfd:	ff ff ff 
    bc00:	c7 85 84 ec ff ff fd 	movl   $0xfffffffd,-0x137c(%rbp)
    bc07:	ff ff ff 
    bc0a:	c7 85 88 ec ff ff 06 	movl   $0x6,-0x1378(%rbp)
    bc11:	00 00 00 
    bc14:	c7 85 8c ec ff ff 06 	movl   $0x6,-0x1374(%rbp)
    bc1b:	00 00 00 
    bc1e:	c7 85 90 ec ff ff fd 	movl   $0xfffffffd,-0x1370(%rbp)
    bc25:	ff ff ff 
    bc28:	c7 85 94 ec ff ff f8 	movl   $0xfffffff8,-0x136c(%rbp)
    bc2f:	ff ff ff 
    bc32:	c7 85 98 ec ff ff fd 	movl   $0xfffffffd,-0x1368(%rbp)
    bc39:	ff ff ff 
    bc3c:	c7 85 9c ec ff ff 06 	movl   $0x6,-0x1364(%rbp)
    bc43:	00 00 00 
    bc46:	c7 85 a0 ec ff ff 06 	movl   $0x6,-0x1360(%rbp)
    bc4d:	00 00 00 
    bc50:	c7 85 a4 ec ff ff fd 	movl   $0xfffffffd,-0x135c(%rbp)
    bc57:	ff ff ff 
    bc5a:	c7 85 a8 ec ff ff f8 	movl   $0xfffffff8,-0x1358(%rbp)
    bc61:	ff ff ff 
    bc64:	c7 85 ac ec ff ff fd 	movl   $0xfffffffd,-0x1354(%rbp)
    bc6b:	ff ff ff 
    bc6e:	48 8d 05 f3 3e 01 00 	lea    0x13ef3(%rip),%rax        # 1fb68 <g_387>
    bc75:	48 89 85 48 e7 ff ff 	mov    %rax,-0x18b8(%rbp)
    bc7c:	48 8d 05 dd 3e 01 00 	lea    0x13edd(%rip),%rax        # 1fb60 <g_291>
    bc83:	48 89 85 50 e7 ff ff 	mov    %rax,-0x18b0(%rbp)
    bc8a:	48 c7 85 58 e7 ff ff 	movq   $0xffffffffffffffff,-0x18a8(%rbp)
    bc91:	ff ff ff ff 
    bc95:	48 8d 05 c4 31 01 00 	lea    0x131c4(%rip),%rax        # 1ee60 <g_615>
    bc9c:	48 89 85 f0 e6 ff ff 	mov    %rax,-0x1910(%rbp)
    bca3:	48 8d 85 f0 e6 ff ff 	lea    -0x1910(%rbp),%rax
    bcaa:	48 89 85 60 e7 ff ff 	mov    %rax,-0x18a0(%rbp)
    bcb1:	48 8d 05 d8 3e 01 00 	lea    0x13ed8(%rip),%rax        # 1fb90 <g_947>
    bcb8:	48 89 85 68 e7 ff ff 	mov    %rax,-0x1898(%rbp)
    bcbf:	c7 85 78 e6 ff ff 00 	movl   $0x0,-0x1988(%rbp)
    bcc6:	00 00 00 
    bcc9:	eb 19                	jmp    bce4 <func_22+0x336>
    bccb:	8b 85 78 e6 ff ff    	mov    -0x1988(%rbp),%eax
    bcd1:	48 98                	cltq   
    bcd3:	66 c7 84 45 2e e9 ff 	movw   $0xffff,-0x16d2(%rbp,%rax,2)
    bcda:	ff ff ff 
    bcdd:	83 85 78 e6 ff ff 01 	addl   $0x1,-0x1988(%rbp)
    bce4:	83 bd 78 e6 ff ff 02 	cmpl   $0x2,-0x1988(%rbp)
    bceb:	7e de                	jle    bccb <func_22+0x31d>
    bced:	c7 85 78 e6 ff ff 00 	movl   $0x0,-0x1988(%rbp)
    bcf4:	00 00 00 
    bcf7:	eb 1b                	jmp    bd14 <func_22+0x366>
    bcf9:	8b 85 78 e6 ff ff    	mov    -0x1988(%rbp),%eax
    bcff:	48 98                	cltq   
    bd01:	48 c7 84 c5 80 ea ff 	movq   $0x0,-0x1580(%rbp,%rax,8)
    bd08:	ff 00 00 00 00 
    bd0d:	83 85 78 e6 ff ff 01 	addl   $0x1,-0x1988(%rbp)
    bd14:	83 bd 78 e6 ff ff 09 	cmpl   $0x9,-0x1988(%rbp)
    bd1b:	7e dc                	jle    bcf9 <func_22+0x34b>
    bd1d:	90                   	nop
    bd1e:	48 8b 05 73 30 01 00 	mov    0x13073(%rip),%rax        # 1ed98 <g_590>
    bd25:	48 8b 00             	mov    (%rax),%rax
    bd28:	8b 85 28 e6 ff ff    	mov    -0x19d8(%rbp),%eax
    bd2e:	85 c0                	test   %eax,%eax
    bd30:	0f 84 a1 21 00 00    	je     ded7 <func_22+0x2529>
    bd36:	48 b8 b6 12 63 11 86 	movabs $0xd6a45986116312b6,%rax
    bd3d:	59 a4 d6 
    bd40:	48 89 85 b0 ec ff ff 	mov    %rax,-0x1350(%rbp)
    bd47:	48 89 85 b8 ec ff ff 	mov    %rax,-0x1348(%rbp)
    bd4e:	48 89 85 c0 ec ff ff 	mov    %rax,-0x1340(%rbp)
    bd55:	48 89 85 c8 ec ff ff 	mov    %rax,-0x1338(%rbp)
    bd5c:	48 89 85 d0 ec ff ff 	mov    %rax,-0x1330(%rbp)
    bd63:	48 89 85 d8 ec ff ff 	mov    %rax,-0x1328(%rbp)
    bd6a:	48 89 85 e0 ec ff ff 	mov    %rax,-0x1320(%rbp)
    bd71:	48 89 85 e8 ec ff ff 	mov    %rax,-0x1318(%rbp)
    bd78:	48 89 85 f0 ec ff ff 	mov    %rax,-0x1310(%rbp)
    bd7f:	48 89 85 f8 ec ff ff 	mov    %rax,-0x1308(%rbp)
    bd86:	48 89 85 00 ed ff ff 	mov    %rax,-0x1300(%rbp)
    bd8d:	48 89 85 08 ed ff ff 	mov    %rax,-0x12f8(%rbp)
    bd94:	48 89 85 10 ed ff ff 	mov    %rax,-0x12f0(%rbp)
    bd9b:	48 89 85 18 ed ff ff 	mov    %rax,-0x12e8(%rbp)
    bda2:	48 89 85 20 ed ff ff 	mov    %rax,-0x12e0(%rbp)
    bda9:	48 89 85 28 ed ff ff 	mov    %rax,-0x12d8(%rbp)
    bdb0:	48 89 85 30 ed ff ff 	mov    %rax,-0x12d0(%rbp)
    bdb7:	48 89 85 38 ed ff ff 	mov    %rax,-0x12c8(%rbp)
    bdbe:	48 89 85 40 ed ff ff 	mov    %rax,-0x12c0(%rbp)
    bdc5:	48 89 85 48 ed ff ff 	mov    %rax,-0x12b8(%rbp)
    bdcc:	48 89 85 50 ed ff ff 	mov    %rax,-0x12b0(%rbp)
    bdd3:	48 89 85 58 ed ff ff 	mov    %rax,-0x12a8(%rbp)
    bdda:	48 89 85 60 ed ff ff 	mov    %rax,-0x12a0(%rbp)
    bde1:	48 89 85 68 ed ff ff 	mov    %rax,-0x1298(%rbp)
    bde8:	48 c7 85 70 e8 ff ff 	movq   $0xffffffffffffffff,-0x1790(%rbp)
    bdef:	ff ff ff ff 
    bdf3:	c7 85 48 e6 ff ff 23 	movl   $0xbd8dab23,-0x19b8(%rbp)
    bdfa:	ab 8d bd 
    bdfd:	66 c7 85 40 e6 ff ff 	movw   $0xa556,-0x19c0(%rbp)
    be04:	56 a5 
    be06:	c7 85 c8 e6 ff ff ad 	movl   $0x45f90dad,-0x1938(%rbp)
    be0d:	0d f9 45 
    be10:	c7 85 cc e6 ff ff 09 	movl   $0x9,-0x1934(%rbp)
    be17:	00 00 00 
    be1a:	66 c7 85 36 e6 ff ff 	movw   $0xffff,-0x19ca(%rbp)
    be21:	ff ff 
    be23:	c7 85 d0 e6 ff ff 96 	movl   $0x70a81f96,-0x1930(%rbp)
    be2a:	1f a8 70 
    be2d:	66 c7 85 42 e6 ff ff 	movw   $0x18e,-0x19be(%rbp)
    be34:	8e 01 
    be36:	48 c7 85 78 e8 ff ff 	movq   $0x5,-0x1788(%rbp)
    be3d:	05 00 00 00 
    be41:	48 8d 05 8c 13 01 00 	lea    0x1138c(%rip),%rax        # 1d1d4 <g_40>
    be48:	48 89 85 38 e7 ff ff 	mov    %rax,-0x18c8(%rbp)
    be4f:	48 8d 05 00 14 01 00 	lea    0x11400(%rip),%rax        # 1d256 <g_452>
    be56:	48 89 85 f8 e6 ff ff 	mov    %rax,-0x1908(%rbp)
    be5d:	48 b8 f8 11 9a 56 09 	movabs $0x1af1c909569a11f8,%rax
    be64:	c9 f1 1a 
    be67:	48 89 85 80 e8 ff ff 	mov    %rax,-0x1780(%rbp)
    be6e:	c7 85 68 e6 ff ff 00 	movl   $0x0,-0x1998(%rbp)
    be75:	00 00 00 
    be78:	eb 1a                	jmp    be94 <func_22+0x4e6>
    be7a:	8b 85 68 e6 ff ff    	mov    -0x1998(%rbp),%eax
    be80:	48 98                	cltq   
    be82:	c7 84 85 30 ea ff ff 	movl   $0xe0225c80,-0x15d0(%rbp,%rax,4)
    be89:	80 5c 22 e0 
    be8d:	83 85 68 e6 ff ff 01 	addl   $0x1,-0x1998(%rbp)
    be94:	83 bd 68 e6 ff ff 01 	cmpl   $0x1,-0x1998(%rbp)
    be9b:	7e dd                	jle    be7a <func_22+0x4cc>
    be9d:	48 8b 85 e0 ec ff ff 	mov    -0x1320(%rbp),%rax
    bea4:	48 85 c0             	test   %rax,%rax
    bea7:	0f 84 9e 06 00 00    	je     c54b <func_22+0xb9d>
    bead:	48 b8 34 1a ec 16 1f 	movabs $0x9365e1f16ec1a34,%rax
    beb4:	5e 36 09 
    beb7:	48 89 85 e0 e8 ff ff 	mov    %rax,-0x1720(%rbp)
    bebe:	48 8d 05 91 13 01 00 	lea    0x11391(%rip),%rax        # 1d256 <g_452>
    bec5:	48 89 85 e8 e8 ff ff 	mov    %rax,-0x1718(%rbp)
    becc:	48 8d 85 48 e6 ff ff 	lea    -0x19b8(%rbp),%rax
    bed3:	48 89 85 f0 e8 ff ff 	mov    %rax,-0x1710(%rbp)
    beda:	c6 05 75 13 01 00 05 	movb   $0x5,0x11375(%rip)        # 1d256 <g_452>
    bee1:	e9 41 06 00 00       	jmpq   c527 <func_22+0xb79>
    bee6:	48 c7 85 f8 e8 ff ff 	movq   $0x0,-0x1708(%rbp)
    beed:	00 00 00 00 
    bef1:	48 8d 85 e0 f7 ff ff 	lea    -0x820(%rbp),%rax
    bef8:	48 8d 15 c1 23 01 00 	lea    0x123c1(%rip),%rdx        # 1e2c0 <g_1788+0x760>
    beff:	b9 32 00 00 00       	mov    $0x32,%ecx
    bf04:	48 89 c7             	mov    %rax,%rdi
    bf07:	48 89 d6             	mov    %rdx,%rsi
    bf0a:	f3 48 a5             	rep movsq %ds:(%rsi),%es:(%rdi)
    bf0d:	48 8d 05 14 13 01 00 	lea    0x11314(%rip),%rax        # 1d228 <g_125>
    bf14:	48 89 85 00 e9 ff ff 	mov    %rax,-0x1700(%rbp)
    bf1b:	c7 85 e4 e6 ff ff 26 	movl   $0x7078d026,-0x191c(%rbp)
    bf22:	d0 78 70 
    bf25:	48 8d 85 a0 e9 ff ff 	lea    -0x1660(%rbp),%rax
    bf2c:	48 83 c0 20          	add    $0x20,%rax
    bf30:	48 89 85 08 e9 ff ff 	mov    %rax,-0x16f8(%rbp)
    bf37:	48 8b 05 9a 12 01 00 	mov    0x1129a(%rip),%rax        # 1d1d8 <g_42>
    bf3e:	0f b7 d0             	movzwl %ax,%edx
    bf41:	48 83 bd 20 e6 ff ff 	cmpq   $0x0,-0x19e0(%rbp)
    bf48:	00 
    bf49:	0f 95 c0             	setne  %al
    bf4c:	0f b6 c0             	movzbl %al,%eax
    bf4f:	89 d6                	mov    %edx,%esi
    bf51:	89 c7                	mov    %eax,%edi
    bf53:	e8 36 be ff ff       	callq  7d8e <safe_div_func_uint16_t_u_u>
    bf58:	0f b6 05 88 12 01 00 	movzbl 0x11288(%rip),%eax        # 1d1e7 <g_91+0x3>
    bf5f:	83 e8 01             	sub    $0x1,%eax
    bf62:	88 05 7f 12 01 00    	mov    %al,0x1127f(%rip)        # 1d1e7 <g_91+0x3>
    bf68:	c7 85 48 e6 ff ff ce 	movl   $0x51ff90ce,-0x19b8(%rbp)
    bf6f:	90 ff 51 
    bf72:	be 05 00 00 00       	mov    $0x5,%esi
    bf77:	bf ce 90 00 00       	mov    $0x90ce,%edi
    bf7c:	e8 f9 be ff ff       	callq  7e7a <safe_rshift_func_uint16_t_u_u>
    bf81:	0f b7 c0             	movzwl %ax,%eax
    bf84:	be 82 82 00 00       	mov    $0x8282,%esi
    bf89:	89 c7                	mov    %eax,%edi
    bf8b:	e8 ad bd ff ff       	callq  7d3d <safe_mul_func_uint16_t_u_u>
    bf90:	0f b7 c0             	movzwl %ax,%eax
    bf93:	be 00 00 00 00       	mov    $0x0,%esi
    bf98:	89 c7                	mov    %eax,%edi
    bf9a:	e8 db be ff ff       	callq  7e7a <safe_rshift_func_uint16_t_u_u>
    bf9f:	0f b6 15 41 12 01 00 	movzbl 0x11241(%rip),%edx        # 1d1e7 <g_91+0x3>
    bfa6:	31 d0                	xor    %edx,%eax
    bfa8:	88 05 39 12 01 00    	mov    %al,0x11239(%rip)        # 1d1e7 <g_91+0x3>
    bfae:	0f b6 05 32 12 01 00 	movzbl 0x11232(%rip),%eax        # 1d1e7 <g_91+0x3>
    bfb5:	0f b6 c0             	movzbl %al,%eax
    bfb8:	48 39 85 20 e6 ff ff 	cmp    %rax,-0x19e0(%rbp)
    bfbf:	0f 93 c0             	setae  %al
    bfc2:	0f b6 d0             	movzbl %al,%edx
    bfc5:	8b 85 28 e6 ff ff    	mov    -0x19d8(%rbp),%eax
    bfcb:	39 c2                	cmp    %eax,%edx
    bfcd:	0f 93 c0             	setae  %al
    bfd0:	0f b6 c0             	movzbl %al,%eax
    bfd3:	be 07 00 00 00       	mov    $0x7,%esi
    bfd8:	89 c7                	mov    %eax,%edi
    bfda:	e8 b3 b4 ff ff       	callq  7492 <safe_lshift_func_int16_t_s_s>
    bfdf:	48 0f bf d0          	movswq %ax,%rdx
    bfe3:	48 8b 85 e8 e6 ff ff 	mov    -0x1918(%rbp),%rax
    bfea:	48 39 c2             	cmp    %rax,%rdx
    bfed:	0f 94 c0             	sete   %al
    bff0:	0f b6 d0             	movzbl %al,%edx
    bff3:	48 8b 85 70 e8 ff ff 	mov    -0x1790(%rbp),%rax
    bffa:	0f be c0             	movsbl %al,%eax
    bffd:	89 d6                	mov    %edx,%esi
    bfff:	89 c7                	mov    %eax,%edi
    c001:	e8 ce b1 ff ff       	callq  71d4 <safe_add_func_int8_t_s_s>
    c006:	0f b6 c0             	movzbl %al,%eax
    c009:	be 00 00 00 00       	mov    $0x0,%esi
    c00e:	89 c7                	mov    %eax,%edi
    c010:	e8 78 bc ff ff       	callq  7c8d <safe_rshift_func_uint8_t_u_s>
    c015:	3c 06                	cmp    $0x6,%al
    c017:	0f 96 c0             	setbe  %al
    c01a:	0f b6 c0             	movzbl %al,%eax
    c01d:	be 13 00 00 00       	mov    $0x13,%esi
    c022:	89 c7                	mov    %eax,%edi
    c024:	e8 b2 bb ff ff       	callq  7bdb <safe_div_func_uint8_t_u_u>
    c029:	0f b6 c0             	movzbl %al,%eax
    c02c:	be 05 00 00 00       	mov    $0x5,%esi
    c031:	89 c7                	mov    %eax,%edi
    c033:	e8 cd bb ff ff       	callq  7c05 <safe_lshift_func_uint8_t_u_s>
    c038:	0f b6 c0             	movzbl %al,%eax
    c03b:	48 0b 85 e0 e8 ff ff 	or     -0x1720(%rbp),%rax
    c042:	48 89 c2             	mov    %rax,%rdx
    c045:	0f b7 85 40 e6 ff ff 	movzwl -0x19c0(%rbp),%eax
    c04c:	48 39 c2             	cmp    %rax,%rdx
    c04f:	0f 9f c0             	setg   %al
    c052:	0f b6 d0             	movzbl %al,%edx
    c055:	48 8b 85 00 e9 ff ff 	mov    -0x1700(%rbp),%rax
    c05c:	0f b7 00             	movzwl (%rax),%eax
    c05f:	31 c2                	xor    %eax,%edx
    c061:	48 8b 85 00 e9 ff ff 	mov    -0x1700(%rbp),%rax
    c068:	66 89 10             	mov    %dx,(%rax)
    c06b:	48 8b 85 00 e9 ff ff 	mov    -0x1700(%rbp),%rax
    c072:	0f b7 00             	movzwl (%rax),%eax
    c075:	89 c2                	mov    %eax,%edx
    c077:	0f b6 85 30 e6 ff ff 	movzbl -0x19d0(%rbp),%eax
    c07e:	31 d0                	xor    %edx,%eax
    c080:	88 85 30 e6 ff ff    	mov    %al,-0x19d0(%rbp)
    c086:	0f b6 85 30 e6 ff ff 	movzbl -0x19d0(%rbp),%eax
    c08d:	0f b6 d0             	movzbl %al,%edx
    c090:	0f b7 05 bd 11 01 00 	movzwl 0x111bd(%rip),%eax        # 1d254 <g_320>
    c097:	0f b7 c0             	movzwl %ax,%eax
    c09a:	39 c2                	cmp    %eax,%edx
    c09c:	0f 9c c0             	setl   %al
    c09f:	0f b6 d0             	movzbl %al,%edx
    c0a2:	48 8b 85 c0 ec ff ff 	mov    -0x1340(%rbp),%rax
    c0a9:	48 39 c2             	cmp    %rax,%rdx
    c0ac:	0f 95 c0             	setne  %al
    c0af:	0f b6 c0             	movzbl %al,%eax
    c0b2:	48 39 85 e0 e8 ff ff 	cmp    %rax,-0x1720(%rbp)
    c0b9:	74 12                	je     c0cd <func_22+0x71f>
    c0bb:	0f b6 05 25 11 01 00 	movzbl 0x11125(%rip),%eax        # 1d1e7 <g_91+0x3>
    c0c2:	84 c0                	test   %al,%al
    c0c4:	74 07                	je     c0cd <func_22+0x71f>
    c0c6:	b8 01 00 00 00       	mov    $0x1,%eax
    c0cb:	eb 05                	jmp    c0d2 <func_22+0x724>
    c0cd:	b8 00 00 00 00       	mov    $0x0,%eax
    c0d2:	89 c2                	mov    %eax,%edx
    c0d4:	8b 85 28 e6 ff ff    	mov    -0x19d8(%rbp),%eax
    c0da:	39 c2                	cmp    %eax,%edx
    c0dc:	77 14                	ja     c0f2 <func_22+0x744>
    c0de:	0f b6 85 2c e6 ff ff 	movzbl -0x19d4(%rbp),%eax
    c0e5:	84 c0                	test   %al,%al
    c0e7:	0f 84 35 03 00 00    	je     c422 <func_22+0xa74>
    c0ed:	e9 44 04 00 00       	jmpq   c536 <func_22+0xb88>
    c0f2:	48 8d 05 e7 10 01 00 	lea    0x110e7(%rip),%rax        # 1d1e0 <g_65>
    c0f9:	48 89 85 10 e9 ff ff 	mov    %rax,-0x16f0(%rbp)
    c100:	48 8d 05 49 11 01 00 	lea    0x11149(%rip),%rax        # 1d250 <g_264>
    c107:	48 89 85 18 e9 ff ff 	mov    %rax,-0x16e8(%rbp)
    c10e:	48 8d 05 67 3a 01 00 	lea    0x13a67(%rip),%rax        # 1fb7c <g_564>
    c115:	48 89 85 20 e9 ff ff 	mov    %rax,-0x16e0(%rbp)
    c11c:	c7 85 6c e6 ff ff 00 	movl   $0x0,-0x1994(%rbp)
    c123:	00 00 00 
    c126:	eb 1b                	jmp    c143 <func_22+0x795>
    c128:	8b 85 6c e6 ff ff    	mov    -0x1994(%rbp),%eax
    c12e:	48 98                	cltq   
    c130:	48 c7 84 c5 d0 f0 ff 	movq   $0x0,-0xf30(%rbp,%rax,8)
    c137:	ff 00 00 00 00 
    c13c:	83 85 6c e6 ff ff 01 	addl   $0x1,-0x1994(%rbp)
    c143:	83 bd 6c e6 ff ff 01 	cmpl   $0x1,-0x1994(%rbp)
    c14a:	7e dc                	jle    c128 <func_22+0x77a>
    c14c:	48 8b 85 18 e9 ff ff 	mov    -0x16e8(%rbp),%rax
    c153:	0f b7 00             	movzwl (%rax),%eax
    c156:	89 c2                	mov    %eax,%edx
    c158:	48 8b 85 f8 e8 ff ff 	mov    -0x1708(%rbp),%rax
    c15f:	48 3b 85 10 e9 ff ff 	cmp    -0x16f0(%rbp),%rax
    c166:	0f 94 c0             	sete   %al
    c169:	0f b6 c0             	movzbl %al,%eax
    c16c:	21 d0                	and    %edx,%eax
    c16e:	89 c2                	mov    %eax,%edx
    c170:	48 8b 85 18 e9 ff ff 	mov    -0x16e8(%rbp),%rax
    c177:	66 89 10             	mov    %dx,(%rax)
    c17a:	48 8b 85 18 e9 ff ff 	mov    -0x16e8(%rbp),%rax
    c181:	0f b7 00             	movzwl (%rax),%eax
    c184:	0f b7 d8             	movzwl %ax,%ebx
    c187:	0f b6 05 da 10 01 00 	movzbl 0x110da(%rip),%eax        # 1d268 <g_548>
    c18e:	84 c0                	test   %al,%al
    c190:	75 0b                	jne    c19d <func_22+0x7ef>
    c192:	0f b6 85 30 e6 ff ff 	movzbl -0x19d0(%rbp),%eax
    c199:	84 c0                	test   %al,%al
    c19b:	74 07                	je     c1a4 <func_22+0x7f6>
    c19d:	b8 01 00 00 00       	mov    $0x1,%eax
    c1a2:	eb 05                	jmp    c1a9 <func_22+0x7fb>
    c1a4:	b8 00 00 00 00       	mov    $0x0,%eax
    c1a9:	41 89 c5             	mov    %eax,%r13d
    c1ac:	48 8b 85 20 e6 ff ff 	mov    -0x19e0(%rbp),%rax
    c1b3:	41 89 c4             	mov    %eax,%r12d
    c1b6:	48 8b 85 e0 e8 ff ff 	mov    -0x1720(%rbp),%rax
    c1bd:	0f be c0             	movsbl %al,%eax
    c1c0:	be 01 00 00 00       	mov    $0x1,%esi
    c1c5:	89 c7                	mov    %eax,%edi
    c1c7:	e8 26 b0 ff ff       	callq  71f2 <safe_sub_func_int8_t_s_s>
    c1cc:	0f be c0             	movsbl %al,%eax
    c1cf:	44 89 e6             	mov    %r12d,%esi
    c1d2:	89 c7                	mov    %eax,%edi
    c1d4:	e8 24 bd ff ff       	callq  7efd <safe_mod_func_uint32_t_u_u>
    c1d9:	44 89 ea             	mov    %r13d,%edx
    c1dc:	09 c2                	or     %eax,%edx
    c1de:	48 8b 05 83 39 01 00 	mov    0x13983(%rip),%rax        # 1fb68 <g_387>
    c1e5:	8b 00                	mov    (%rax),%eax
    c1e7:	39 c2                	cmp    %eax,%edx
    c1e9:	0f 95 c0             	setne  %al
    c1ec:	0f b6 d0             	movzbl %al,%edx
    c1ef:	48 8b 85 20 ed ff ff 	mov    -0x12e0(%rbp),%rax
    c1f6:	48 39 c2             	cmp    %rax,%rdx
    c1f9:	0f 95 c0             	setne  %al
    c1fc:	0f b6 c0             	movzbl %al,%eax
    c1ff:	be 00 00 00 00       	mov    $0x0,%esi
    c204:	89 c7                	mov    %eax,%edi
    c206:	e8 b3 bb ff ff       	callq  7dbe <safe_lshift_func_uint16_t_u_s>
    c20b:	0f b6 95 2c e6 ff ff 	movzbl -0x19d4(%rbp),%edx
    c212:	0f b6 d2             	movzbl %dl,%edx
    c215:	66 39 d0             	cmp    %dx,%ax
    c218:	0f 94 c0             	sete   %al
    c21b:	0f b6 d0             	movzbl %al,%edx
    c21e:	8b 85 28 e6 ff ff    	mov    -0x19d8(%rbp),%eax
    c224:	09 c2                	or     %eax,%edx
    c226:	8b 85 b8 e9 ff ff    	mov    -0x1648(%rbp),%eax
    c22c:	21 d0                	and    %edx,%eax
    c22e:	3d 23 2a 94 e6       	cmp    $0xe6942a23,%eax
    c233:	0f 96 c0             	setbe  %al
    c236:	0f b6 d0             	movzbl %al,%edx
    c239:	48 8b 85 20 e9 ff ff 	mov    -0x16e0(%rbp),%rax
    c240:	89 10                	mov    %edx,(%rax)
    c242:	48 8b 85 20 e9 ff ff 	mov    -0x16e0(%rbp),%rax
    c249:	8b 00                	mov    (%rax),%eax
    c24b:	f7 d0                	not    %eax
    c24d:	89 c2                	mov    %eax,%edx
    c24f:	0f b6 85 2c e6 ff ff 	movzbl -0x19d4(%rbp),%eax
    c256:	0f b6 c0             	movzbl %al,%eax
    c259:	39 c2                	cmp    %eax,%edx
    c25b:	0f 94 c0             	sete   %al
    c25e:	0f b6 c0             	movzbl %al,%eax
    c261:	21 c3                	and    %eax,%ebx
    c263:	89 d9                	mov    %ebx,%ecx
    c265:	48 8d 05 14 10 01 00 	lea    0x11014(%rip),%rax        # 1d280 <g_617>
    c26c:	8b 10                	mov    (%rax),%edx
    c26e:	48 8d 05 0b 10 01 00 	lea    0x1100b(%rip),%rax        # 1d280 <g_617>
    c275:	31 ca                	xor    %ecx,%edx
    c277:	89 10                	mov    %edx,(%rax)
    c279:	48 8b 05 d8 25 01 00 	mov    0x125d8(%rip),%rax        # 1e858 <g_218>
    c280:	8b 00                	mov    (%rax),%eax
    c282:	85 c0                	test   %eax,%eax
    c284:	74 06                	je     c28c <func_22+0x8de>
    c286:	90                   	nop
    c287:	e9 aa 02 00 00       	jmpq   c536 <func_22+0xb88>
    c28c:	0f b6 05 bf 0f 01 00 	movzbl 0x10fbf(%rip),%eax        # 1d252 <g_294>
    c293:	0f b6 d8             	movzbl %al,%ebx
    c296:	4c 8b a5 e8 e6 ff ff 	mov    -0x1918(%rbp),%r12
    c29d:	48 8b 85 20 e6 ff ff 	mov    -0x19e0(%rbp),%rax
    c2a4:	44 0f be e8          	movsbl %al,%r13d
    c2a8:	0f b6 85 2c e6 ff ff 	movzbl -0x19d4(%rbp),%eax
    c2af:	44 0f b6 f0          	movzbl %al,%r14d
    c2b3:	8b 85 28 e6 ff ff    	mov    -0x19d8(%rbp),%eax
    c2b9:	85 c0                	test   %eax,%eax
    c2bb:	74 11                	je     c2ce <func_22+0x920>
    c2bd:	8b 85 28 e6 ff ff    	mov    -0x19d8(%rbp),%eax
    c2c3:	85 c0                	test   %eax,%eax
    c2c5:	74 07                	je     c2ce <func_22+0x920>
    c2c7:	b8 01 00 00 00       	mov    $0x1,%eax
    c2cc:	eb 05                	jmp    c2d3 <func_22+0x925>
    c2ce:	b8 00 00 00 00       	mov    $0x0,%eax
    c2d3:	41 89 c7             	mov    %eax,%r15d
    c2d6:	48 8b 85 18 e9 ff ff 	mov    -0x16e8(%rbp),%rax
    c2dd:	0f b7 00             	movzwl (%rax),%eax
    c2e0:	66 0d 57 ca          	or     $0xca57,%ax
    c2e4:	89 c2                	mov    %eax,%edx
    c2e6:	48 8b 85 18 e9 ff ff 	mov    -0x16e8(%rbp),%rax
    c2ed:	66 89 10             	mov    %dx,(%rax)
    c2f0:	48 8b 85 18 e9 ff ff 	mov    -0x16e8(%rbp),%rax
    c2f7:	0f b7 00             	movzwl (%rax),%eax
    c2fa:	98                   	cwtl   
    c2fb:	89 c6                	mov    %eax,%esi
    c2fd:	bf 2d 6c 00 00       	mov    $0x6c2d,%edi
    c302:	e8 ee b0 ff ff       	callq  73f5 <safe_mul_func_int16_t_s_s>
    c307:	48 0f bf c0          	movswq %ax,%rax
    c30b:	48 be ac 0c f7 19 b2 	movabs $0xdec6ceb219f70cac,%rsi
    c312:	ce c6 de 
    c315:	48 89 c7             	mov    %rax,%rdi
    c318:	e8 92 bd ff ff       	callq  80af <safe_div_func_uint64_t_u_u>
    c31d:	44 21 f8             	and    %r15d,%eax
    c320:	89 85 48 e6 ff ff    	mov    %eax,-0x19b8(%rbp)
    c326:	0f b6 85 2c e6 ff ff 	movzbl -0x19d4(%rbp),%eax
    c32d:	0f b6 d0             	movzbl %al,%edx
    c330:	0f b6 85 30 e6 ff ff 	movzbl -0x19d0(%rbp),%eax
    c337:	0f b6 c0             	movzbl %al,%eax
    c33a:	89 d6                	mov    %edx,%esi
    c33c:	89 c7                	mov    %eax,%edi
    c33e:	e8 73 b2 ff ff       	callq  75b6 <safe_add_func_int32_t_s_s>
    c343:	c7 85 7c e6 ff ff 01 	movl   $0x1,-0x1984(%rbp)
    c34a:	00 00 00 
    c34d:	48 8b 85 00 e9 ff ff 	mov    -0x1700(%rbp),%rax
    c354:	0f b7 10             	movzwl (%rax),%edx
    c357:	0f b6 85 2c e6 ff ff 	movzbl -0x19d4(%rbp),%eax
    c35e:	0f b6 c0             	movzbl %al,%eax
    c361:	21 c2                	and    %eax,%edx
    c363:	48 8b 85 00 e9 ff ff 	mov    -0x1700(%rbp),%rax
    c36a:	66 89 10             	mov    %dx,(%rax)
    c36d:	48 8b 85 00 e9 ff ff 	mov    -0x1700(%rbp),%rax
    c374:	0f b7 00             	movzwl (%rax),%eax
    c377:	66 85 c0             	test   %ax,%ax
    c37a:	0f 9e c0             	setle  %al
    c37d:	0f b6 c0             	movzbl %al,%eax
    c380:	be 01 00 00 00       	mov    $0x1,%esi
    c385:	48 89 c7             	mov    %rax,%rdi
    c388:	e8 be bc ff ff       	callq  804b <safe_sub_func_uint64_t_u_u>
    c38d:	66 89 85 30 e9 ff ff 	mov    %ax,-0x16d0(%rbp)
    c394:	0f b7 85 30 e9 ff ff 	movzwl -0x16d0(%rbp),%eax
    c39b:	66 41 39 c6          	cmp    %ax,%r14w
    c39f:	0f 94 c0             	sete   %al
    c3a2:	0f b6 c0             	movzbl %al,%eax
    c3a5:	44 89 ee             	mov    %r13d,%esi
    c3a8:	89 c7                	mov    %eax,%edi
    c3aa:	e8 63 ae ff ff       	callq  7212 <safe_mul_func_int8_t_s_s>
    c3af:	0f b6 85 2c e6 ff ff 	movzbl -0x19d4(%rbp),%eax
    c3b6:	0f b6 c0             	movzbl %al,%eax
    c3b9:	4c 89 e6             	mov    %r12,%rsi
    c3bc:	48 89 c7             	mov    %rax,%rdi
    c3bf:	e8 bc bc ff ff       	callq  8080 <safe_mod_func_uint64_t_u_u>
    c3c4:	89 c1                	mov    %eax,%ecx
    c3c6:	48 8b 85 20 e9 ff ff 	mov    -0x16e0(%rbp),%rax
    c3cd:	8b 00                	mov    (%rax),%eax
    c3cf:	8d 50 ff             	lea    -0x1(%rax),%edx
    c3d2:	48 8b 85 20 e9 ff ff 	mov    -0x16e0(%rbp),%rax
    c3d9:	89 10                	mov    %edx,(%rax)
    c3db:	48 8b 85 20 e9 ff ff 	mov    -0x16e0(%rbp),%rax
    c3e2:	8b 00                	mov    (%rax),%eax
    c3e4:	89 ce                	mov    %ecx,%esi
    c3e6:	89 c7                	mov    %eax,%edi
    c3e8:	e8 cb ba ff ff       	callq  7eb8 <safe_add_func_uint32_t_u_u>
    c3ed:	98                   	cwtl   
    c3ee:	89 de                	mov    %ebx,%esi
    c3f0:	89 c7                	mov    %eax,%edi
    c3f2:	e8 6c b1 ff ff       	callq  7563 <safe_rshift_func_int16_t_s_u>
    c3f7:	66 85 c0             	test   %ax,%ax
    c3fa:	74 07                	je     c403 <func_22+0xa55>
    c3fc:	b9 01 00 00 00       	mov    $0x1,%ecx
    c401:	eb 05                	jmp    c408 <func_22+0xa5a>
    c403:	b9 00 00 00 00       	mov    $0x0,%ecx
    c408:	48 8b 05 51 2a 01 00 	mov    0x12a51(%rip),%rax        # 1ee60 <g_615>
    c40f:	48 8b 00             	mov    (%rax),%rax
    c412:	8b 10                	mov    (%rax),%edx
    c414:	48 8b 05 45 2a 01 00 	mov    0x12a45(%rip),%rax        # 1ee60 <g_615>
    c41b:	48 8b 00             	mov    (%rax),%rax
    c41e:	09 ca                	or     %ecx,%edx
    c420:	89 10                	mov    %edx,(%rax)
    c422:	0f b7 85 30 e9 ff ff 	movzwl -0x16d0(%rbp),%eax
    c429:	0f b7 d8             	movzwl %ax,%ebx
    c42c:	44 8b 25 45 37 01 00 	mov    0x13745(%rip),%r12d        # 1fb78 <g_558>
    c433:	48 8b 05 5e 29 01 00 	mov    0x1295e(%rip),%rax        # 1ed98 <g_590>
    c43a:	48 8b 00             	mov    (%rax),%rax
    c43d:	48 8b 85 20 e6 ff ff 	mov    -0x19e0(%rbp),%rax
    c444:	0f bf d0             	movswl %ax,%edx
    c447:	0f b7 05 1c 0e 01 00 	movzwl 0x10e1c(%rip),%eax        # 1d26a <g_572>
    c44e:	98                   	cwtl   
    c44f:	89 d6                	mov    %edx,%esi
    c451:	89 c7                	mov    %eax,%edi
    c453:	e8 9d af ff ff       	callq  73f5 <safe_mul_func_int16_t_s_s>
    c458:	0f bf d0             	movswl %ax,%edx
    c45b:	0f b7 05 34 0c 01 00 	movzwl 0x10c34(%rip),%eax        # 1d096 <g_4+0x56>
    c462:	0f b7 c0             	movzwl %ax,%eax
    c465:	39 c2                	cmp    %eax,%edx
    c467:	0f 9e c0             	setle  %al
    c46a:	0f b6 d0             	movzbl %al,%edx
    c46d:	8b 85 28 e6 ff ff    	mov    -0x19d8(%rbp),%eax
    c473:	39 c2                	cmp    %eax,%edx
    c475:	0f 95 c0             	setne  %al
    c478:	0f b6 c0             	movzbl %al,%eax
    c47b:	89 c6                	mov    %eax,%esi
    c47d:	bf bf 27 00 00       	mov    $0x27bf,%edi
    c482:	e8 78 b8 ff ff       	callq  7cff <safe_add_func_uint16_t_u_u>
    c487:	0f b7 d0             	movzwl %ax,%edx
    c48a:	8b 05 30 0d 01 00    	mov    0x10d30(%rip),%eax        # 1d1c0 <g_11>
    c490:	31 d0                	xor    %edx,%eax
    c492:	89 c2                	mov    %eax,%edx
    c494:	48 8b 85 08 e9 ff ff 	mov    -0x16f8(%rbp),%rax
    c49b:	89 10                	mov    %edx,(%rax)
    c49d:	0f b7 05 b0 0d 01 00 	movzwl 0x10db0(%rip),%eax        # 1d254 <g_320>
    c4a4:	98                   	cwtl   
    c4a5:	89 c7                	mov    %eax,%edi
    c4a7:	e8 f1 ae ff ff       	callq  739d <safe_unary_minus_func_int16_t_s>
    c4ac:	0f bf d0             	movswl %ax,%edx
    c4af:	8b 85 28 e6 ff ff    	mov    -0x19d8(%rbp),%eax
    c4b5:	0f b6 c0             	movzbl %al,%eax
    c4b8:	89 d6                	mov    %edx,%esi
    c4ba:	89 c7                	mov    %eax,%edi
    c4bc:	e8 cc b7 ff ff       	callq  7c8d <safe_rshift_func_uint8_t_u_s>
    c4c1:	44 89 e6             	mov    %r12d,%esi
    c4c4:	bf ff ff ff ff       	mov    $0xffffffff,%edi
    c4c9:	e8 5c b0 ff ff       	callq  752a <safe_rshift_func_int16_t_s_s>
    c4ce:	48 0f bf c0          	movswq %ax,%rax
    c4d2:	48 89 de             	mov    %rbx,%rsi
    c4d5:	48 89 c7             	mov    %rax,%rdi
    c4d8:	e8 d7 b4 ff ff       	callq  79b4 <safe_mod_func_int64_t_s_s>
    c4dd:	0f b7 c0             	movzwl %ax,%eax
    c4e0:	be 03 00 00 00       	mov    $0x3,%esi
    c4e5:	89 c7                	mov    %eax,%edi
    c4e7:	e8 8e b9 ff ff       	callq  7e7a <safe_rshift_func_uint16_t_u_u>
    c4ec:	0f b7 d0             	movzwl %ax,%edx
    c4ef:	48 83 bd e8 e8 ff ff 	cmpq   $0x0,-0x1718(%rbp)
    c4f6:	00 
    c4f7:	0f 95 c0             	setne  %al
    c4fa:	0f b6 c0             	movzbl %al,%eax
    c4fd:	89 d6                	mov    %edx,%esi
    c4ff:	89 c7                	mov    %eax,%edi
    c501:	e8 b2 b9 ff ff       	callq  7eb8 <safe_add_func_uint32_t_u_u>
    c506:	48 8b 05 5b 29 01 00 	mov    0x1295b(%rip),%rax        # 1ee68 <g_739>
    c50d:	48 8b 95 f0 e8 ff ff 	mov    -0x1710(%rbp),%rdx
    c514:	48 89 10             	mov    %rdx,(%rax)
    c517:	0f b6 05 38 0d 01 00 	movzbl 0x10d38(%rip),%eax        # 1d256 <g_452>
    c51e:	83 e8 01             	sub    $0x1,%eax
    c521:	88 05 2f 0d 01 00    	mov    %al,0x10d2f(%rip)        # 1d256 <g_452>
    c527:	0f b6 05 28 0d 01 00 	movzbl 0x10d28(%rip),%eax        # 1d256 <g_452>
    c52e:	84 c0                	test   %al,%al
    c530:	0f 89 b0 f9 ff ff    	jns    bee6 <func_22+0x538>
    c536:	8b 05 48 0d 01 00    	mov    0x10d48(%rip),%eax        # 1d284 <g_741>
    c53c:	c7 85 7c e6 ff ff 01 	movl   $0x1,-0x1984(%rbp)
    c543:	00 00 00 
    c546:	e9 78 19 00 00       	jmpq   dec3 <func_22+0x2515>
    c54b:	48 c7 85 20 eb ff ff 	movq   $0x0,-0x14e0(%rbp)
    c552:	00 00 00 00 
    c556:	48 c7 85 28 eb ff ff 	movq   $0x0,-0x14d8(%rbp)
    c55d:	00 00 00 00 
    c561:	48 c7 85 30 eb ff ff 	movq   $0x0,-0x14d0(%rbp)
    c568:	00 00 00 00 
    c56c:	48 c7 85 38 eb ff ff 	movq   $0x0,-0x14c8(%rbp)
    c573:	00 00 00 00 
    c577:	48 c7 85 40 eb ff ff 	movq   $0x0,-0x14c0(%rbp)
    c57e:	00 00 00 00 
    c582:	48 8d 05 cb 0c 01 00 	lea    0x10ccb(%rip),%rax        # 1d254 <g_320>
    c589:	48 89 85 00 e7 ff ff 	mov    %rax,-0x1900(%rbp)
    c590:	48 8d 85 00 e7 ff ff 	lea    -0x1900(%rbp),%rax
    c597:	48 89 85 88 e8 ff ff 	mov    %rax,-0x1778(%rbp)
    c59e:	48 8d 05 42 0c 01 00 	lea    0x10c42(%rip),%rax        # 1d1e7 <g_91+0x3>
    c5a5:	48 89 85 08 e7 ff ff 	mov    %rax,-0x18f8(%rbp)
    c5ac:	48 8d 85 08 e7 ff ff 	lea    -0x18f8(%rbp),%rax
    c5b3:	48 89 85 10 e7 ff ff 	mov    %rax,-0x18f0(%rbp)
    c5ba:	48 8d 85 10 e7 ff ff 	lea    -0x18f0(%rbp),%rax
    c5c1:	48 89 85 18 e7 ff ff 	mov    %rax,-0x18e8(%rbp)
    c5c8:	48 8d 85 18 e7 ff ff 	lea    -0x18e8(%rbp),%rax
    c5cf:	48 89 85 90 e8 ff ff 	mov    %rax,-0x1770(%rbp)
    c5d6:	48 8d 05 23 0c 01 00 	lea    0x10c23(%rip),%rax        # 1d200 <g_104>
    c5dd:	48 89 85 98 e8 ff ff 	mov    %rax,-0x1768(%rbp)
    c5e4:	48 c7 85 d0 ea ff ff 	movq   $0x0,-0x1530(%rbp)
    c5eb:	00 00 00 00 
    c5ef:	48 c7 85 d8 ea ff ff 	movq   $0x0,-0x1528(%rbp)
    c5f6:	00 00 00 00 
    c5fa:	48 c7 85 e0 ea ff ff 	movq   $0x0,-0x1520(%rbp)
    c601:	00 00 00 00 
    c605:	48 c7 85 e8 ea ff ff 	movq   $0x0,-0x1518(%rbp)
    c60c:	00 00 00 00 
    c610:	c7 85 70 e6 ff ff 96 	movl   $0xa974f596,-0x1990(%rbp)
    c617:	f5 74 a9 
    c61a:	48 83 ad 78 e8 ff ff 	subq   $0x1,-0x1788(%rbp)
    c621:	01 
    c622:	66 83 bd 40 e6 ff ff 	cmpw   $0x0,-0x19c0(%rbp)
    c629:	00 
    c62a:	74 1d                	je     c649 <func_22+0xc9b>
    c62c:	0f b6 85 2c e6 ff ff 	movzbl -0x19d4(%rbp),%eax
    c633:	84 c0                	test   %al,%al
    c635:	0f 95 c0             	setne  %al
    c638:	48 8d 15 41 0c 01 00 	lea    0x10c41(%rip),%rdx        # 1d280 <g_617>
    c63f:	0f b6 c0             	movzbl %al,%eax
    c642:	89 02                	mov    %eax,(%rdx)
    c644:	e9 52 02 00 00       	jmpq   c89b <func_22+0xeed>
    c649:	48 c7 85 28 e7 ff ff 	movq   $0x0,-0x18d8(%rbp)
    c650:	00 00 00 00 
    c654:	48 8d 85 2e e9 ff ff 	lea    -0x16d2(%rbp),%rax
    c65b:	48 83 c0 04          	add    $0x4,%rax
    c65f:	48 89 85 30 e7 ff ff 	mov    %rax,-0x18d0(%rbp)
    c666:	48 8d 85 30 e7 ff ff 	lea    -0x18d0(%rbp),%rax
    c66d:	48 89 85 a0 e8 ff ff 	mov    %rax,-0x1760(%rbp)
    c674:	48 c7 05 c9 0b 01 00 	movq   $0x16,0x10bc9(%rip)        # 1d248 <g_236>
    c67b:	16 00 00 00 
    c67f:	e9 06 02 00 00       	jmpq   c88a <func_22+0xedc>
    c684:	48 8d 85 d0 f0 ff ff 	lea    -0xf30(%rbp),%rax
    c68b:	48 89 85 e0 f7 ff ff 	mov    %rax,-0x820(%rbp)
    c692:	48 8d 85 d0 f0 ff ff 	lea    -0xf30(%rbp),%rax
    c699:	48 89 85 e8 f7 ff ff 	mov    %rax,-0x818(%rbp)
    c6a0:	48 8d 85 d0 f0 ff ff 	lea    -0xf30(%rbp),%rax
    c6a7:	48 89 85 f0 f7 ff ff 	mov    %rax,-0x810(%rbp)
    c6ae:	48 8d 85 d0 f0 ff ff 	lea    -0xf30(%rbp),%rax
    c6b5:	48 89 85 f8 f7 ff ff 	mov    %rax,-0x808(%rbp)
    c6bc:	48 8d 85 d0 f0 ff ff 	lea    -0xf30(%rbp),%rax
    c6c3:	48 89 85 00 f8 ff ff 	mov    %rax,-0x800(%rbp)
    c6ca:	c7 85 d4 e6 ff ff d6 	movl   $0x3da89bd6,-0x192c(%rbp)
    c6d1:	9b a8 3d 
    c6d4:	c7 85 d8 e6 ff ff 9d 	movl   $0x84e6f79d,-0x1928(%rbp)
    c6db:	f7 e6 84 
    c6de:	c7 85 74 e6 ff ff 00 	movl   $0x0,-0x198c(%rbp)
    c6e5:	00 00 00 
    c6e8:	eb 1e                	jmp    c708 <func_22+0xd5a>
    c6ea:	8b 85 74 e6 ff ff    	mov    -0x198c(%rbp),%eax
    c6f0:	48 98                	cltq   
    c6f2:	48 8d 15 5b 0b 01 00 	lea    0x10b5b(%rip),%rdx        # 1d254 <g_320>
    c6f9:	48 89 94 c5 d0 f0 ff 	mov    %rdx,-0xf30(%rbp,%rax,8)
    c700:	ff 
    c701:	83 85 74 e6 ff ff 01 	addl   $0x1,-0x198c(%rbp)
    c708:	83 bd 74 e6 ff ff 04 	cmpl   $0x4,-0x198c(%rbp)
    c70f:	7e d9                	jle    c6ea <func_22+0xd3c>
    c711:	c6 85 30 e6 ff ff 00 	movb   $0x0,-0x19d0(%rbp)
    c718:	e9 fc 00 00 00       	jmpq   c819 <func_22+0xe6b>
    c71d:	48 8d 85 e0 f7 ff ff 	lea    -0x820(%rbp),%rax
    c724:	48 83 c0 18          	add    $0x18,%rax
    c728:	48 89 85 a8 e8 ff ff 	mov    %rax,-0x1758(%rbp)
    c72f:	48 8d 85 28 e7 ff ff 	lea    -0x18d8(%rbp),%rax
    c736:	48 89 85 b0 e8 ff ff 	mov    %rax,-0x1750(%rbp)
    c73d:	48 8b 85 20 e6 ff ff 	mov    -0x19e0(%rbp),%rax
    c744:	0f b6 d8             	movzbl %al,%ebx
    c747:	0f b6 85 2c e6 ff ff 	movzbl -0x19d4(%rbp),%eax
    c74e:	44 0f b6 e0          	movzbl %al,%r12d
    c752:	48 8b 95 f8 f7 ff ff 	mov    -0x808(%rbp),%rdx
    c759:	48 8b 85 a8 e8 ff ff 	mov    -0x1758(%rbp),%rax
    c760:	48 89 10             	mov    %rdx,(%rax)
    c763:	48 8b 85 a8 e8 ff ff 	mov    -0x1758(%rbp),%rax
    c76a:	48 8b 00             	mov    (%rax),%rax
    c76d:	48 39 85 88 e8 ff ff 	cmp    %rax,-0x1778(%rbp)
    c774:	0f 95 c0             	setne  %al
    c777:	0f b6 c0             	movzbl %al,%eax
    c77a:	be 05 00 00 00       	mov    $0x5,%esi
    c77f:	89 c7                	mov    %eax,%edi
    c781:	e8 b7 b5 ff ff       	callq  7d3d <safe_mul_func_uint16_t_u_u>
    c786:	0f b7 c0             	movzwl %ax,%eax
    c789:	35 cb 43 b7 99       	xor    $0x99b743cb,%eax
    c78e:	89 c2                	mov    %eax,%edx
    c790:	48 8d 05 e9 0a 01 00 	lea    0x10ae9(%rip),%rax        # 1d280 <g_617>
    c797:	89 10                	mov    %edx,(%rax)
    c799:	8b 00                	mov    (%rax),%eax
    c79b:	3d 5b ef 02 07       	cmp    $0x702ef5b,%eax
    c7a0:	48 8b 05 89 0a 01 00 	mov    0x10a89(%rip),%rax        # 1d230 <g_129>
    c7a7:	98                   	cwtl   
    c7a8:	be 05 00 00 00       	mov    $0x5,%esi
    c7ad:	89 c7                	mov    %eax,%edi
    c7af:	e8 2d ad ff ff       	callq  74e1 <safe_lshift_func_int16_t_s_u>
    c7b4:	98                   	cwtl   
    c7b5:	83 e0 01             	and    $0x1,%eax
    c7b8:	41 39 c4             	cmp    %eax,%r12d
    c7bb:	0f 94 c0             	sete   %al
    c7be:	0f b6 c0             	movzbl %al,%eax
    c7c1:	89 de                	mov    %ebx,%esi
    c7c3:	89 c7                	mov    %eax,%edi
    c7c5:	e8 c9 b3 ff ff       	callq  7b93 <safe_mul_func_uint8_t_u_u>
    c7ca:	0f b6 c0             	movzbl %al,%eax
    c7cd:	89 c6                	mov    %eax,%esi
    c7cf:	bf 35 67 00 00       	mov    $0x6735,%edi
    c7d4:	e8 7c ac ff ff       	callq  7455 <safe_div_func_int16_t_s_s>
    c7d9:	98                   	cwtl   
    c7da:	8b 95 28 e6 ff ff    	mov    -0x19d8(%rbp),%edx
    c7e0:	f7 d2                	not    %edx
    c7e2:	21 c2                	and    %eax,%edx
    c7e4:	48 8b 05 7d 33 01 00 	mov    0x1337d(%rip),%rax        # 1fb68 <g_387>
    c7eb:	8b 00                	mov    (%rax),%eax
    c7ed:	09 c2                	or     %eax,%edx
    c7ef:	48 8b 05 72 33 01 00 	mov    0x13372(%rip),%rax        # 1fb68 <g_387>
    c7f6:	89 10                	mov    %edx,(%rax)
    c7f8:	48 8b 95 28 e7 ff ff 	mov    -0x18d8(%rbp),%rdx
    c7ff:	48 8b 85 b0 e8 ff ff 	mov    -0x1750(%rbp),%rax
    c806:	48 89 10             	mov    %rdx,(%rax)
    c809:	0f b6 85 30 e6 ff ff 	movzbl -0x19d0(%rbp),%eax
    c810:	83 c0 01             	add    $0x1,%eax
    c813:	88 85 30 e6 ff ff    	mov    %al,-0x19d0(%rbp)
    c819:	0f b6 85 30 e6 ff ff 	movzbl -0x19d0(%rbp),%eax
    c820:	3c 36                	cmp    $0x36,%al
    c822:	0f 84 f5 fe ff ff    	je     c71d <func_22+0xd6f>
    c828:	48 8d 85 30 e7 ff ff 	lea    -0x18d0(%rbp),%rax
    c82f:	48 39 85 a0 e8 ff ff 	cmp    %rax,-0x1760(%rbp)
    c836:	0f 95 c2             	setne  %dl
    c839:	48 8b 05 20 26 01 00 	mov    0x12620(%rip),%rax        # 1ee60 <g_615>
    c840:	48 8b 00             	mov    (%rax),%rax
    c843:	0f b6 d2             	movzbl %dl,%edx
    c846:	89 10                	mov    %edx,(%rax)
    c848:	8b 00                	mov    (%rax),%eax
    c84a:	89 85 d8 e6 ff ff    	mov    %eax,-0x1928(%rbp)
    c850:	48 8b 05 31 0a 01 00 	mov    0x10a31(%rip),%rax        # 1d288 <g_780>
    c857:	48 8b 85 40 e7 ff ff 	mov    -0x18c0(%rbp),%rax
    c85e:	48 8b 10             	mov    (%rax),%rdx
    c861:	48 8b 85 40 e7 ff ff 	mov    -0x18c0(%rbp),%rax
    c868:	48 89 10             	mov    %rdx,(%rax)
    c86b:	48 8b 05 d6 09 01 00 	mov    0x109d6(%rip),%rax        # 1d248 <g_236>
    c872:	98                   	cwtl   
    c873:	be 02 00 00 00       	mov    $0x2,%esi
    c878:	89 c7                	mov    %eax,%edi
    c87a:	e8 54 ab ff ff       	callq  73d3 <safe_sub_func_int16_t_s_s>
    c87f:	48 0f bf c0          	movswq %ax,%rax
    c883:	48 89 05 be 09 01 00 	mov    %rax,0x109be(%rip)        # 1d248 <g_236>
    c88a:	48 8b 05 b7 09 01 00 	mov    0x109b7(%rip),%rax        # 1d248 <g_236>
    c891:	48 83 f8 10          	cmp    $0x10,%rax
    c895:	0f 84 e9 fd ff ff    	je     c684 <func_22+0xcd6>
    c89b:	48 8b 85 90 e8 ff ff 	mov    -0x1770(%rbp),%rax
    c8a2:	48 c7 00 00 00 00 00 	movq   $0x0,(%rax)
    c8a9:	c7 05 c9 32 01 00 00 	movl   $0x0,0x132c9(%rip)        # 1fb7c <g_564>
    c8b0:	00 00 00 
    c8b3:	e9 fc 15 00 00       	jmpq   deb4 <func_22+0x2506>
    c8b8:	48 c7 85 20 e7 ff ff 	movq   $0x0,-0x18e0(%rbp)
    c8bf:	00 00 00 00 
    c8c3:	48 8d 85 20 e7 ff ff 	lea    -0x18e0(%rbp),%rax
    c8ca:	48 89 85 28 e7 ff ff 	mov    %rax,-0x18d8(%rbp)
    c8d1:	48 8d 85 28 e7 ff ff 	lea    -0x18d8(%rbp),%rax
    c8d8:	48 89 85 b8 e8 ff ff 	mov    %rax,-0x1748(%rbp)
    c8df:	c7 85 dc e6 ff ff 0e 	movl   $0x864c560e,-0x1924(%rbp)
    c8e6:	56 4c 86 
    c8e9:	48 8d 05 e0 08 01 00 	lea    0x108e0(%rip),%rax        # 1d1d0 <g_35>
    c8f0:	48 89 85 70 eb ff ff 	mov    %rax,-0x1490(%rbp)
    c8f7:	48 8d 05 d2 08 01 00 	lea    0x108d2(%rip),%rax        # 1d1d0 <g_35>
    c8fe:	48 89 85 78 eb ff ff 	mov    %rax,-0x1488(%rbp)
    c905:	48 8d 05 c4 08 01 00 	lea    0x108c4(%rip),%rax        # 1d1d0 <g_35>
    c90c:	48 89 85 80 eb ff ff 	mov    %rax,-0x1480(%rbp)
    c913:	48 8d 05 b6 08 01 00 	lea    0x108b6(%rip),%rax        # 1d1d0 <g_35>
    c91a:	48 89 85 88 eb ff ff 	mov    %rax,-0x1478(%rbp)
    c921:	48 8d 05 a8 08 01 00 	lea    0x108a8(%rip),%rax        # 1d1d0 <g_35>
    c928:	48 89 85 90 eb ff ff 	mov    %rax,-0x1470(%rbp)
    c92f:	48 8d 05 fa 08 01 00 	lea    0x108fa(%rip),%rax        # 1d230 <g_129>
    c936:	48 89 85 c0 e8 ff ff 	mov    %rax,-0x1740(%rbp)
    c93d:	48 8b 05 1c 25 01 00 	mov    0x1251c(%rip),%rax        # 1ee60 <g_615>
    c944:	48 8b 00             	mov    (%rax),%rax
    c947:	c7 00 71 1e 87 ff    	movl   $0xff871e71,(%rax)
    c94d:	c7 05 e9 08 01 00 00 	movl   $0x0,0x108e9(%rip)        # 1d240 <g_231>
    c954:	00 00 00 
    c957:	e9 b5 13 00 00       	jmpq   dd11 <func_22+0x2363>
    c95c:	48 8d 05 e5 1e 01 00 	lea    0x11ee5(%rip),%rax        # 1e848 <g_39>
    c963:	48 89 85 c8 e8 ff ff 	mov    %rax,-0x1738(%rbp)
    c96a:	c7 85 e0 e6 ff ff 00 	movl   $0x0,-0x1920(%rbp)
    c971:	00 00 00 
    c974:	48 8d 05 f5 08 01 00 	lea    0x108f5(%rip),%rax        # 1d270 <g_583>
    c97b:	48 89 85 30 e7 ff ff 	mov    %rax,-0x18d0(%rbp)
    c982:	48 8d 85 30 e7 ff ff 	lea    -0x18d0(%rbp),%rax
    c989:	48 89 85 70 ed ff ff 	mov    %rax,-0x1290(%rbp)
    c990:	48 8d 85 30 e7 ff ff 	lea    -0x18d0(%rbp),%rax
    c997:	48 89 85 78 ed ff ff 	mov    %rax,-0x1288(%rbp)
    c99e:	48 8d 85 30 e7 ff ff 	lea    -0x18d0(%rbp),%rax
    c9a5:	48 89 85 80 ed ff ff 	mov    %rax,-0x1280(%rbp)
    c9ac:	48 8d 85 30 e7 ff ff 	lea    -0x18d0(%rbp),%rax
    c9b3:	48 89 85 88 ed ff ff 	mov    %rax,-0x1278(%rbp)
    c9ba:	48 8d 85 30 e7 ff ff 	lea    -0x18d0(%rbp),%rax
    c9c1:	48 89 85 90 ed ff ff 	mov    %rax,-0x1270(%rbp)
    c9c8:	48 8d 85 30 e7 ff ff 	lea    -0x18d0(%rbp),%rax
    c9cf:	48 89 85 98 ed ff ff 	mov    %rax,-0x1268(%rbp)
    c9d6:	48 8d 85 30 e7 ff ff 	lea    -0x18d0(%rbp),%rax
    c9dd:	48 89 85 a0 ed ff ff 	mov    %rax,-0x1260(%rbp)
    c9e4:	48 8d 85 30 e7 ff ff 	lea    -0x18d0(%rbp),%rax
    c9eb:	48 89 85 a8 ed ff ff 	mov    %rax,-0x1258(%rbp)
    c9f2:	48 8d 85 30 e7 ff ff 	lea    -0x18d0(%rbp),%rax
    c9f9:	48 89 85 b0 ed ff ff 	mov    %rax,-0x1250(%rbp)
    ca00:	48 8d 85 30 e7 ff ff 	lea    -0x18d0(%rbp),%rax
    ca07:	48 89 85 b8 ed ff ff 	mov    %rax,-0x1248(%rbp)
    ca0e:	48 8d 85 30 e7 ff ff 	lea    -0x18d0(%rbp),%rax
    ca15:	48 89 85 c0 ed ff ff 	mov    %rax,-0x1240(%rbp)
    ca1c:	48 8d 85 30 e7 ff ff 	lea    -0x18d0(%rbp),%rax
    ca23:	48 89 85 c8 ed ff ff 	mov    %rax,-0x1238(%rbp)
    ca2a:	48 c7 85 d0 ed ff ff 	movq   $0x0,-0x1230(%rbp)
    ca31:	00 00 00 00 
    ca35:	48 8d 85 30 e7 ff ff 	lea    -0x18d0(%rbp),%rax
    ca3c:	48 89 85 d8 ed ff ff 	mov    %rax,-0x1228(%rbp)
    ca43:	48 8d 85 30 e7 ff ff 	lea    -0x18d0(%rbp),%rax
    ca4a:	48 89 85 e0 ed ff ff 	mov    %rax,-0x1220(%rbp)
    ca51:	48 c7 85 e8 ed ff ff 	movq   $0x0,-0x1218(%rbp)
    ca58:	00 00 00 00 
    ca5c:	48 8d 85 30 e7 ff ff 	lea    -0x18d0(%rbp),%rax
    ca63:	48 89 85 f0 ed ff ff 	mov    %rax,-0x1210(%rbp)
    ca6a:	48 8d 85 30 e7 ff ff 	lea    -0x18d0(%rbp),%rax
    ca71:	48 89 85 f8 ed ff ff 	mov    %rax,-0x1208(%rbp)
    ca78:	48 c7 85 00 ee ff ff 	movq   $0x0,-0x1200(%rbp)
    ca7f:	00 00 00 00 
    ca83:	48 8d 85 30 e7 ff ff 	lea    -0x18d0(%rbp),%rax
    ca8a:	48 89 85 08 ee ff ff 	mov    %rax,-0x11f8(%rbp)
    ca91:	48 8d 85 30 e7 ff ff 	lea    -0x18d0(%rbp),%rax
    ca98:	48 89 85 10 ee ff ff 	mov    %rax,-0x11f0(%rbp)
    ca9f:	48 8d 85 30 e7 ff ff 	lea    -0x18d0(%rbp),%rax
    caa6:	48 89 85 18 ee ff ff 	mov    %rax,-0x11e8(%rbp)
    caad:	48 8d 85 30 e7 ff ff 	lea    -0x18d0(%rbp),%rax
    cab4:	48 89 85 20 ee ff ff 	mov    %rax,-0x11e0(%rbp)
    cabb:	48 8d 85 30 e7 ff ff 	lea    -0x18d0(%rbp),%rax
    cac2:	48 89 85 28 ee ff ff 	mov    %rax,-0x11d8(%rbp)
    cac9:	48 8d 85 30 e7 ff ff 	lea    -0x18d0(%rbp),%rax
    cad0:	48 89 85 30 ee ff ff 	mov    %rax,-0x11d0(%rbp)
    cad7:	48 8d 85 30 e7 ff ff 	lea    -0x18d0(%rbp),%rax
    cade:	48 89 85 38 ee ff ff 	mov    %rax,-0x11c8(%rbp)
    cae5:	48 8d 85 30 e7 ff ff 	lea    -0x18d0(%rbp),%rax
    caec:	48 89 85 40 ee ff ff 	mov    %rax,-0x11c0(%rbp)
    caf3:	48 8d 85 30 e7 ff ff 	lea    -0x18d0(%rbp),%rax
    cafa:	48 89 85 48 ee ff ff 	mov    %rax,-0x11b8(%rbp)
    cb01:	48 8d 85 30 e7 ff ff 	lea    -0x18d0(%rbp),%rax
    cb08:	48 89 85 50 ee ff ff 	mov    %rax,-0x11b0(%rbp)
    cb0f:	48 8d 85 30 e7 ff ff 	lea    -0x18d0(%rbp),%rax
    cb16:	48 89 85 58 ee ff ff 	mov    %rax,-0x11a8(%rbp)
    cb1d:	c6 05 2e 07 01 00 f9 	movb   $0xf9,0x1072e(%rip)        # 1d252 <g_294>
    cb24:	e9 a0 11 00 00       	jmpq   dcc9 <func_22+0x231b>
    cb29:	48 c7 85 d0 f0 ff ff 	movq   $0x0,-0xf30(%rbp)
    cb30:	00 00 00 00 
    cb34:	48 8d 85 28 e7 ff ff 	lea    -0x18d8(%rbp),%rax
    cb3b:	48 89 85 d8 f0 ff ff 	mov    %rax,-0xf28(%rbp)
    cb42:	48 c7 85 e0 f0 ff ff 	movq   $0x0,-0xf20(%rbp)
    cb49:	00 00 00 00 
    cb4d:	48 8d 85 28 e7 ff ff 	lea    -0x18d8(%rbp),%rax
    cb54:	48 89 85 e8 f0 ff ff 	mov    %rax,-0xf18(%rbp)
    cb5b:	48 c7 85 f0 f0 ff ff 	movq   $0x0,-0xf10(%rbp)
    cb62:	00 00 00 00 
    cb66:	48 8d 85 28 e7 ff ff 	lea    -0x18d8(%rbp),%rax
    cb6d:	48 89 85 f8 f0 ff ff 	mov    %rax,-0xf08(%rbp)
    cb74:	48 8d 85 28 e7 ff ff 	lea    -0x18d8(%rbp),%rax
    cb7b:	48 89 85 00 f1 ff ff 	mov    %rax,-0xf00(%rbp)
    cb82:	48 8d 85 28 e7 ff ff 	lea    -0x18d8(%rbp),%rax
    cb89:	48 89 85 08 f1 ff ff 	mov    %rax,-0xef8(%rbp)
    cb90:	48 8d 85 28 e7 ff ff 	lea    -0x18d8(%rbp),%rax
    cb97:	48 89 85 10 f1 ff ff 	mov    %rax,-0xef0(%rbp)
    cb9e:	48 8d 85 28 e7 ff ff 	lea    -0x18d8(%rbp),%rax
    cba5:	48 89 85 18 f1 ff ff 	mov    %rax,-0xee8(%rbp)
    cbac:	48 8d 85 28 e7 ff ff 	lea    -0x18d8(%rbp),%rax
    cbb3:	48 89 85 20 f1 ff ff 	mov    %rax,-0xee0(%rbp)
    cbba:	48 8d 85 28 e7 ff ff 	lea    -0x18d8(%rbp),%rax
    cbc1:	48 89 85 28 f1 ff ff 	mov    %rax,-0xed8(%rbp)
    cbc8:	48 8d 85 28 e7 ff ff 	lea    -0x18d8(%rbp),%rax
    cbcf:	48 89 85 30 f1 ff ff 	mov    %rax,-0xed0(%rbp)
    cbd6:	48 8d 85 28 e7 ff ff 	lea    -0x18d8(%rbp),%rax
    cbdd:	48 89 85 38 f1 ff ff 	mov    %rax,-0xec8(%rbp)
    cbe4:	48 8d 85 28 e7 ff ff 	lea    -0x18d8(%rbp),%rax
    cbeb:	48 89 85 40 f1 ff ff 	mov    %rax,-0xec0(%rbp)
    cbf2:	48 c7 85 48 f1 ff ff 	movq   $0x0,-0xeb8(%rbp)
    cbf9:	00 00 00 00 
    cbfd:	48 8d 85 28 e7 ff ff 	lea    -0x18d8(%rbp),%rax
    cc04:	48 89 85 50 f1 ff ff 	mov    %rax,-0xeb0(%rbp)
    cc0b:	48 c7 85 58 f1 ff ff 	movq   $0x0,-0xea8(%rbp)
    cc12:	00 00 00 00 
    cc16:	48 8d 85 28 e7 ff ff 	lea    -0x18d8(%rbp),%rax
    cc1d:	48 89 85 60 f1 ff ff 	mov    %rax,-0xea0(%rbp)
    cc24:	48 8d 85 28 e7 ff ff 	lea    -0x18d8(%rbp),%rax
    cc2b:	48 89 85 68 f1 ff ff 	mov    %rax,-0xe98(%rbp)
    cc32:	48 8d 85 28 e7 ff ff 	lea    -0x18d8(%rbp),%rax
    cc39:	48 89 85 70 f1 ff ff 	mov    %rax,-0xe90(%rbp)
    cc40:	48 8d 85 28 e7 ff ff 	lea    -0x18d8(%rbp),%rax
    cc47:	48 89 85 78 f1 ff ff 	mov    %rax,-0xe88(%rbp)
    cc4e:	48 c7 85 80 f1 ff ff 	movq   $0x0,-0xe80(%rbp)
    cc55:	00 00 00 00 
    cc59:	48 8d 85 28 e7 ff ff 	lea    -0x18d8(%rbp),%rax
    cc60:	48 89 85 88 f1 ff ff 	mov    %rax,-0xe78(%rbp)
    cc67:	48 c7 85 90 f1 ff ff 	movq   $0x0,-0xe70(%rbp)
    cc6e:	00 00 00 00 
    cc72:	48 8d 85 28 e7 ff ff 	lea    -0x18d8(%rbp),%rax
    cc79:	48 89 85 98 f1 ff ff 	mov    %rax,-0xe68(%rbp)
    cc80:	48 8d 85 28 e7 ff ff 	lea    -0x18d8(%rbp),%rax
    cc87:	48 89 85 a0 f1 ff ff 	mov    %rax,-0xe60(%rbp)
    cc8e:	48 8d 85 28 e7 ff ff 	lea    -0x18d8(%rbp),%rax
    cc95:	48 89 85 a8 f1 ff ff 	mov    %rax,-0xe58(%rbp)
    cc9c:	48 c7 85 b0 f1 ff ff 	movq   $0x0,-0xe50(%rbp)
    cca3:	00 00 00 00 
    cca7:	48 8d 85 28 e7 ff ff 	lea    -0x18d8(%rbp),%rax
    ccae:	48 89 85 b8 f1 ff ff 	mov    %rax,-0xe48(%rbp)
    ccb5:	48 8d 85 28 e7 ff ff 	lea    -0x18d8(%rbp),%rax
    ccbc:	48 89 85 c0 f1 ff ff 	mov    %rax,-0xe40(%rbp)
    ccc3:	48 8d 85 28 e7 ff ff 	lea    -0x18d8(%rbp),%rax
    ccca:	48 89 85 c8 f1 ff ff 	mov    %rax,-0xe38(%rbp)
    ccd1:	48 8d 85 28 e7 ff ff 	lea    -0x18d8(%rbp),%rax
    ccd8:	48 89 85 d0 f1 ff ff 	mov    %rax,-0xe30(%rbp)
    ccdf:	48 c7 85 d8 f1 ff ff 	movq   $0x0,-0xe28(%rbp)
    cce6:	00 00 00 00 
    ccea:	48 c7 85 e0 f1 ff ff 	movq   $0x0,-0xe20(%rbp)
    ccf1:	00 00 00 00 
    ccf5:	48 c7 85 e8 f1 ff ff 	movq   $0x0,-0xe18(%rbp)
    ccfc:	00 00 00 00 
    cd00:	48 8d 85 28 e7 ff ff 	lea    -0x18d8(%rbp),%rax
    cd07:	48 89 85 f0 f1 ff ff 	mov    %rax,-0xe10(%rbp)
    cd0e:	48 c7 85 f8 f1 ff ff 	movq   $0x0,-0xe08(%rbp)
    cd15:	00 00 00 00 
    cd19:	48 8d 85 28 e7 ff ff 	lea    -0x18d8(%rbp),%rax
    cd20:	48 89 85 00 f2 ff ff 	mov    %rax,-0xe00(%rbp)
    cd27:	48 8d 85 28 e7 ff ff 	lea    -0x18d8(%rbp),%rax
    cd2e:	48 89 85 08 f2 ff ff 	mov    %rax,-0xdf8(%rbp)
    cd35:	48 8d 85 28 e7 ff ff 	lea    -0x18d8(%rbp),%rax
    cd3c:	48 89 85 10 f2 ff ff 	mov    %rax,-0xdf0(%rbp)
    cd43:	48 8d 85 28 e7 ff ff 	lea    -0x18d8(%rbp),%rax
    cd4a:	48 89 85 18 f2 ff ff 	mov    %rax,-0xde8(%rbp)
    cd51:	48 8d 85 28 e7 ff ff 	lea    -0x18d8(%rbp),%rax
    cd58:	48 89 85 20 f2 ff ff 	mov    %rax,-0xde0(%rbp)
    cd5f:	48 8d 85 28 e7 ff ff 	lea    -0x18d8(%rbp),%rax
    cd66:	48 89 85 28 f2 ff ff 	mov    %rax,-0xdd8(%rbp)
    cd6d:	48 8d 85 28 e7 ff ff 	lea    -0x18d8(%rbp),%rax
    cd74:	48 89 85 30 f2 ff ff 	mov    %rax,-0xdd0(%rbp)
    cd7b:	48 8d 85 28 e7 ff ff 	lea    -0x18d8(%rbp),%rax
    cd82:	48 89 85 38 f2 ff ff 	mov    %rax,-0xdc8(%rbp)
    cd89:	48 8d 85 28 e7 ff ff 	lea    -0x18d8(%rbp),%rax
    cd90:	48 89 85 40 f2 ff ff 	mov    %rax,-0xdc0(%rbp)
    cd97:	48 8d 85 28 e7 ff ff 	lea    -0x18d8(%rbp),%rax
    cd9e:	48 89 85 48 f2 ff ff 	mov    %rax,-0xdb8(%rbp)
    cda5:	48 8d 85 28 e7 ff ff 	lea    -0x18d8(%rbp),%rax
    cdac:	48 89 85 50 f2 ff ff 	mov    %rax,-0xdb0(%rbp)
    cdb3:	48 c7 85 58 f2 ff ff 	movq   $0x0,-0xda8(%rbp)
    cdba:	00 00 00 00 
    cdbe:	48 c7 85 60 f2 ff ff 	movq   $0x0,-0xda0(%rbp)
    cdc5:	00 00 00 00 
    cdc9:	48 8d 85 28 e7 ff ff 	lea    -0x18d8(%rbp),%rax
    cdd0:	48 89 85 68 f2 ff ff 	mov    %rax,-0xd98(%rbp)
    cdd7:	48 8d 85 28 e7 ff ff 	lea    -0x18d8(%rbp),%rax
    cdde:	48 89 85 70 f2 ff ff 	mov    %rax,-0xd90(%rbp)
    cde5:	48 8d 85 28 e7 ff ff 	lea    -0x18d8(%rbp),%rax
    cdec:	48 89 85 78 f2 ff ff 	mov    %rax,-0xd88(%rbp)
    cdf3:	48 8d 85 28 e7 ff ff 	lea    -0x18d8(%rbp),%rax
    cdfa:	48 89 85 80 f2 ff ff 	mov    %rax,-0xd80(%rbp)
    ce01:	48 c7 85 88 f2 ff ff 	movq   $0x0,-0xd78(%rbp)
    ce08:	00 00 00 00 
    ce0c:	48 8d 85 28 e7 ff ff 	lea    -0x18d8(%rbp),%rax
    ce13:	48 89 85 90 f2 ff ff 	mov    %rax,-0xd70(%rbp)
    ce1a:	48 c7 85 98 f2 ff ff 	movq   $0x0,-0xd68(%rbp)
    ce21:	00 00 00 00 
    ce25:	48 8d 85 28 e7 ff ff 	lea    -0x18d8(%rbp),%rax
    ce2c:	48 89 85 a0 f2 ff ff 	mov    %rax,-0xd60(%rbp)
    ce33:	48 c7 85 a8 f2 ff ff 	movq   $0x0,-0xd58(%rbp)
    ce3a:	00 00 00 00 
    ce3e:	48 8d 85 28 e7 ff ff 	lea    -0x18d8(%rbp),%rax
    ce45:	48 89 85 b0 f2 ff ff 	mov    %rax,-0xd50(%rbp)
    ce4c:	48 8d 85 28 e7 ff ff 	lea    -0x18d8(%rbp),%rax
    ce53:	48 89 85 b8 f2 ff ff 	mov    %rax,-0xd48(%rbp)
    ce5a:	48 8d 85 28 e7 ff ff 	lea    -0x18d8(%rbp),%rax
    ce61:	48 89 85 c0 f2 ff ff 	mov    %rax,-0xd40(%rbp)
    ce68:	48 8d 85 28 e7 ff ff 	lea    -0x18d8(%rbp),%rax
    ce6f:	48 89 85 c8 f2 ff ff 	mov    %rax,-0xd38(%rbp)
    ce76:	48 8d 85 28 e7 ff ff 	lea    -0x18d8(%rbp),%rax
    ce7d:	48 89 85 d0 f2 ff ff 	mov    %rax,-0xd30(%rbp)
    ce84:	48 8d 85 28 e7 ff ff 	lea    -0x18d8(%rbp),%rax
    ce8b:	48 89 85 d8 f2 ff ff 	mov    %rax,-0xd28(%rbp)
    ce92:	48 8d 85 28 e7 ff ff 	lea    -0x18d8(%rbp),%rax
    ce99:	48 89 85 e0 f2 ff ff 	mov    %rax,-0xd20(%rbp)
    cea0:	48 8d 85 28 e7 ff ff 	lea    -0x18d8(%rbp),%rax
    cea7:	48 89 85 e8 f2 ff ff 	mov    %rax,-0xd18(%rbp)
    ceae:	48 8d 85 28 e7 ff ff 	lea    -0x18d8(%rbp),%rax
    ceb5:	48 89 85 f0 f2 ff ff 	mov    %rax,-0xd10(%rbp)
    cebc:	48 8d 85 28 e7 ff ff 	lea    -0x18d8(%rbp),%rax
    cec3:	48 89 85 f8 f2 ff ff 	mov    %rax,-0xd08(%rbp)
    ceca:	48 8d 85 28 e7 ff ff 	lea    -0x18d8(%rbp),%rax
    ced1:	48 89 85 00 f3 ff ff 	mov    %rax,-0xd00(%rbp)
    ced8:	48 8d 85 28 e7 ff ff 	lea    -0x18d8(%rbp),%rax
    cedf:	48 89 85 08 f3 ff ff 	mov    %rax,-0xcf8(%rbp)
    cee6:	48 8d 85 28 e7 ff ff 	lea    -0x18d8(%rbp),%rax
    ceed:	48 89 85 10 f3 ff ff 	mov    %rax,-0xcf0(%rbp)
    cef4:	48 8d 85 28 e7 ff ff 	lea    -0x18d8(%rbp),%rax
    cefb:	48 89 85 18 f3 ff ff 	mov    %rax,-0xce8(%rbp)
    cf02:	48 8d 85 28 e7 ff ff 	lea    -0x18d8(%rbp),%rax
    cf09:	48 89 85 20 f3 ff ff 	mov    %rax,-0xce0(%rbp)
    cf10:	48 8d 85 28 e7 ff ff 	lea    -0x18d8(%rbp),%rax
    cf17:	48 89 85 28 f3 ff ff 	mov    %rax,-0xcd8(%rbp)
    cf1e:	48 8d 85 28 e7 ff ff 	lea    -0x18d8(%rbp),%rax
    cf25:	48 89 85 30 f3 ff ff 	mov    %rax,-0xcd0(%rbp)
    cf2c:	48 8d 85 28 e7 ff ff 	lea    -0x18d8(%rbp),%rax
    cf33:	48 89 85 38 f3 ff ff 	mov    %rax,-0xcc8(%rbp)
    cf3a:	48 8d 85 28 e7 ff ff 	lea    -0x18d8(%rbp),%rax
    cf41:	48 89 85 40 f3 ff ff 	mov    %rax,-0xcc0(%rbp)
    cf48:	48 8d 85 28 e7 ff ff 	lea    -0x18d8(%rbp),%rax
    cf4f:	48 89 85 48 f3 ff ff 	mov    %rax,-0xcb8(%rbp)
    cf56:	48 8d 85 28 e7 ff ff 	lea    -0x18d8(%rbp),%rax
    cf5d:	48 89 85 50 f3 ff ff 	mov    %rax,-0xcb0(%rbp)
    cf64:	48 8d 85 28 e7 ff ff 	lea    -0x18d8(%rbp),%rax
    cf6b:	48 89 85 58 f3 ff ff 	mov    %rax,-0xca8(%rbp)
    cf72:	48 8d 85 28 e7 ff ff 	lea    -0x18d8(%rbp),%rax
    cf79:	48 89 85 60 f3 ff ff 	mov    %rax,-0xca0(%rbp)
    cf80:	48 8d 85 28 e7 ff ff 	lea    -0x18d8(%rbp),%rax
    cf87:	48 89 85 68 f3 ff ff 	mov    %rax,-0xc98(%rbp)
    cf8e:	48 c7 85 70 f3 ff ff 	movq   $0x0,-0xc90(%rbp)
    cf95:	00 00 00 00 
    cf99:	48 8d 85 28 e7 ff ff 	lea    -0x18d8(%rbp),%rax
    cfa0:	48 89 85 78 f3 ff ff 	mov    %rax,-0xc88(%rbp)
    cfa7:	48 c7 85 80 f3 ff ff 	movq   $0x0,-0xc80(%rbp)
    cfae:	00 00 00 00 
    cfb2:	48 c7 85 88 f3 ff ff 	movq   $0x0,-0xc78(%rbp)
    cfb9:	00 00 00 00 
    cfbd:	48 8d 85 28 e7 ff ff 	lea    -0x18d8(%rbp),%rax
    cfc4:	48 89 85 90 f3 ff ff 	mov    %rax,-0xc70(%rbp)
    cfcb:	48 8d 85 28 e7 ff ff 	lea    -0x18d8(%rbp),%rax
    cfd2:	48 89 85 98 f3 ff ff 	mov    %rax,-0xc68(%rbp)
    cfd9:	48 8d 85 28 e7 ff ff 	lea    -0x18d8(%rbp),%rax
    cfe0:	48 89 85 a0 f3 ff ff 	mov    %rax,-0xc60(%rbp)
    cfe7:	48 8d 85 28 e7 ff ff 	lea    -0x18d8(%rbp),%rax
    cfee:	48 89 85 a8 f3 ff ff 	mov    %rax,-0xc58(%rbp)
    cff5:	48 8d 85 28 e7 ff ff 	lea    -0x18d8(%rbp),%rax
    cffc:	48 89 85 b0 f3 ff ff 	mov    %rax,-0xc50(%rbp)
    d003:	48 8d 85 28 e7 ff ff 	lea    -0x18d8(%rbp),%rax
    d00a:	48 89 85 b8 f3 ff ff 	mov    %rax,-0xc48(%rbp)
    d011:	48 8d 85 28 e7 ff ff 	lea    -0x18d8(%rbp),%rax
    d018:	48 89 85 c0 f3 ff ff 	mov    %rax,-0xc40(%rbp)
    d01f:	48 c7 85 c8 f3 ff ff 	movq   $0x0,-0xc38(%rbp)
    d026:	00 00 00 00 
    d02a:	48 c7 85 d0 f3 ff ff 	movq   $0x0,-0xc30(%rbp)
    d031:	00 00 00 00 
    d035:	48 8d 85 28 e7 ff ff 	lea    -0x18d8(%rbp),%rax
    d03c:	48 89 85 d8 f3 ff ff 	mov    %rax,-0xc28(%rbp)
    d043:	48 8d 85 28 e7 ff ff 	lea    -0x18d8(%rbp),%rax
    d04a:	48 89 85 e0 f3 ff ff 	mov    %rax,-0xc20(%rbp)
    d051:	48 8d 85 28 e7 ff ff 	lea    -0x18d8(%rbp),%rax
    d058:	48 89 85 e8 f3 ff ff 	mov    %rax,-0xc18(%rbp)
    d05f:	48 8d 85 28 e7 ff ff 	lea    -0x18d8(%rbp),%rax
    d066:	48 89 85 f0 f3 ff ff 	mov    %rax,-0xc10(%rbp)
    d06d:	48 8d 85 28 e7 ff ff 	lea    -0x18d8(%rbp),%rax
    d074:	48 89 85 f8 f3 ff ff 	mov    %rax,-0xc08(%rbp)
    d07b:	48 8d 85 28 e7 ff ff 	lea    -0x18d8(%rbp),%rax
    d082:	48 89 85 00 f4 ff ff 	mov    %rax,-0xc00(%rbp)
    d089:	48 8d 85 28 e7 ff ff 	lea    -0x18d8(%rbp),%rax
    d090:	48 89 85 08 f4 ff ff 	mov    %rax,-0xbf8(%rbp)
    d097:	48 8d 85 28 e7 ff ff 	lea    -0x18d8(%rbp),%rax
    d09e:	48 89 85 10 f4 ff ff 	mov    %rax,-0xbf0(%rbp)
    d0a5:	48 8d 85 28 e7 ff ff 	lea    -0x18d8(%rbp),%rax
    d0ac:	48 89 85 18 f4 ff ff 	mov    %rax,-0xbe8(%rbp)
    d0b3:	48 8d 85 28 e7 ff ff 	lea    -0x18d8(%rbp),%rax
    d0ba:	48 89 85 20 f4 ff ff 	mov    %rax,-0xbe0(%rbp)
    d0c1:	48 8d 85 28 e7 ff ff 	lea    -0x18d8(%rbp),%rax
    d0c8:	48 89 85 28 f4 ff ff 	mov    %rax,-0xbd8(%rbp)
    d0cf:	48 8d 85 28 e7 ff ff 	lea    -0x18d8(%rbp),%rax
    d0d6:	48 89 85 30 f4 ff ff 	mov    %rax,-0xbd0(%rbp)
    d0dd:	48 c7 85 38 f4 ff ff 	movq   $0x0,-0xbc8(%rbp)
    d0e4:	00 00 00 00 
    d0e8:	48 8d 85 28 e7 ff ff 	lea    -0x18d8(%rbp),%rax
    d0ef:	48 89 85 40 f4 ff ff 	mov    %rax,-0xbc0(%rbp)
    d0f6:	48 8d 85 28 e7 ff ff 	lea    -0x18d8(%rbp),%rax
    d0fd:	48 89 85 48 f4 ff ff 	mov    %rax,-0xbb8(%rbp)
    d104:	48 8d 85 28 e7 ff ff 	lea    -0x18d8(%rbp),%rax
    d10b:	48 89 85 50 f4 ff ff 	mov    %rax,-0xbb0(%rbp)
    d112:	48 8d 85 28 e7 ff ff 	lea    -0x18d8(%rbp),%rax
    d119:	48 89 85 58 f4 ff ff 	mov    %rax,-0xba8(%rbp)
    d120:	48 8d 85 28 e7 ff ff 	lea    -0x18d8(%rbp),%rax
    d127:	48 89 85 60 f4 ff ff 	mov    %rax,-0xba0(%rbp)
    d12e:	48 8d 85 28 e7 ff ff 	lea    -0x18d8(%rbp),%rax
    d135:	48 89 85 68 f4 ff ff 	mov    %rax,-0xb98(%rbp)
    d13c:	48 8d 85 28 e7 ff ff 	lea    -0x18d8(%rbp),%rax
    d143:	48 89 85 70 f4 ff ff 	mov    %rax,-0xb90(%rbp)
    d14a:	48 c7 85 78 f4 ff ff 	movq   $0x0,-0xb88(%rbp)
    d151:	00 00 00 00 
    d155:	48 8d 85 28 e7 ff ff 	lea    -0x18d8(%rbp),%rax
    d15c:	48 89 85 80 f4 ff ff 	mov    %rax,-0xb80(%rbp)
    d163:	48 8d 85 28 e7 ff ff 	lea    -0x18d8(%rbp),%rax
    d16a:	48 89 85 88 f4 ff ff 	mov    %rax,-0xb78(%rbp)
    d171:	48 8d 85 36 e6 ff ff 	lea    -0x19ca(%rbp),%rax
    d178:	48 89 85 d0 e8 ff ff 	mov    %rax,-0x1730(%rbp)
    d17f:	48 8d 85 70 ed ff ff 	lea    -0x1290(%rbp),%rax
    d186:	48 05 c0 00 00 00    	add    $0xc0,%rax
    d18c:	48 89 85 e0 f7 ff ff 	mov    %rax,-0x820(%rbp)
    d193:	48 c7 85 e8 f7 ff ff 	movq   $0x0,-0x818(%rbp)
    d19a:	00 00 00 00 
    d19e:	48 8d 85 70 ed ff ff 	lea    -0x1290(%rbp),%rax
    d1a5:	48 05 c0 00 00 00    	add    $0xc0,%rax
    d1ab:	48 89 85 f0 f7 ff ff 	mov    %rax,-0x810(%rbp)
    d1b2:	48 8d 85 70 ed ff ff 	lea    -0x1290(%rbp),%rax
    d1b9:	48 83 c0 68          	add    $0x68,%rax
    d1bd:	48 89 85 f8 f7 ff ff 	mov    %rax,-0x808(%rbp)
    d1c4:	48 8d 85 70 ed ff ff 	lea    -0x1290(%rbp),%rax
    d1cb:	48 83 c0 68          	add    $0x68,%rax
    d1cf:	48 89 85 00 f8 ff ff 	mov    %rax,-0x800(%rbp)
    d1d6:	48 8d 85 70 ed ff ff 	lea    -0x1290(%rbp),%rax
    d1dd:	48 05 c0 00 00 00    	add    $0xc0,%rax
    d1e3:	48 89 85 08 f8 ff ff 	mov    %rax,-0x7f8(%rbp)
    d1ea:	48 c7 85 10 f8 ff ff 	movq   $0x0,-0x7f0(%rbp)
    d1f1:	00 00 00 00 
    d1f5:	48 8d 85 70 ed ff ff 	lea    -0x1290(%rbp),%rax
    d1fc:	48 05 c0 00 00 00    	add    $0xc0,%rax
    d202:	48 89 85 18 f8 ff ff 	mov    %rax,-0x7e8(%rbp)
    d209:	48 c7 85 20 f8 ff ff 	movq   $0x0,-0x7e0(%rbp)
    d210:	00 00 00 00 
    d214:	48 8d 85 70 ed ff ff 	lea    -0x1290(%rbp),%rax
    d21b:	48 05 c0 00 00 00    	add    $0xc0,%rax
    d221:	48 89 85 28 f8 ff ff 	mov    %rax,-0x7d8(%rbp)
    d228:	48 8d 85 70 ed ff ff 	lea    -0x1290(%rbp),%rax
    d22f:	48 83 c0 68          	add    $0x68,%rax
    d233:	48 89 85 30 f8 ff ff 	mov    %rax,-0x7d0(%rbp)
    d23a:	48 c7 85 38 f8 ff ff 	movq   $0x0,-0x7c8(%rbp)
    d241:	00 00 00 00 
    d245:	48 8d 85 70 ed ff ff 	lea    -0x1290(%rbp),%rax
    d24c:	48 05 c0 00 00 00    	add    $0xc0,%rax
    d252:	48 89 85 40 f8 ff ff 	mov    %rax,-0x7c0(%rbp)
    d259:	48 c7 85 48 f8 ff ff 	movq   $0x0,-0x7b8(%rbp)
    d260:	00 00 00 00 
    d264:	48 8d 85 70 ed ff ff 	lea    -0x1290(%rbp),%rax
    d26b:	48 05 c0 00 00 00    	add    $0xc0,%rax
    d271:	48 89 85 50 f8 ff ff 	mov    %rax,-0x7b0(%rbp)
    d278:	48 c7 85 58 f8 ff ff 	movq   $0x0,-0x7a8(%rbp)
    d27f:	00 00 00 00 
    d283:	48 8d 85 70 ed ff ff 	lea    -0x1290(%rbp),%rax
    d28a:	48 05 c0 00 00 00    	add    $0xc0,%rax
    d290:	48 89 85 60 f8 ff ff 	mov    %rax,-0x7a0(%rbp)
    d297:	48 c7 85 68 f8 ff ff 	movq   $0x0,-0x798(%rbp)
    d29e:	00 00 00 00 
    d2a2:	48 8d 85 70 ed ff ff 	lea    -0x1290(%rbp),%rax
    d2a9:	48 83 c0 68          	add    $0x68,%rax
    d2ad:	48 89 85 70 f8 ff ff 	mov    %rax,-0x790(%rbp)
    d2b4:	48 8d 85 70 ed ff ff 	lea    -0x1290(%rbp),%rax
    d2bb:	48 05 c0 00 00 00    	add    $0xc0,%rax
    d2c1:	48 89 85 78 f8 ff ff 	mov    %rax,-0x788(%rbp)
    d2c8:	48 c7 85 80 f8 ff ff 	movq   $0x0,-0x780(%rbp)
    d2cf:	00 00 00 00 
    d2d3:	48 8d 85 70 ed ff ff 	lea    -0x1290(%rbp),%rax
    d2da:	48 05 c0 00 00 00    	add    $0xc0,%rax
    d2e0:	48 89 85 88 f8 ff ff 	mov    %rax,-0x778(%rbp)
    d2e7:	48 c7 85 90 f8 ff ff 	movq   $0x0,-0x770(%rbp)
    d2ee:	00 00 00 00 
    d2f2:	48 8d 85 70 ed ff ff 	lea    -0x1290(%rbp),%rax
    d2f9:	48 05 c0 00 00 00    	add    $0xc0,%rax
    d2ff:	48 89 85 98 f8 ff ff 	mov    %rax,-0x768(%rbp)
    d306:	48 8d 85 70 ed ff ff 	lea    -0x1290(%rbp),%rax
    d30d:	48 83 c0 68          	add    $0x68,%rax
    d311:	48 89 85 a0 f8 ff ff 	mov    %rax,-0x760(%rbp)
    d318:	48 8d 85 70 ed ff ff 	lea    -0x1290(%rbp),%rax
    d31f:	48 83 c0 68          	add    $0x68,%rax
    d323:	48 89 85 a8 f8 ff ff 	mov    %rax,-0x758(%rbp)
    d32a:	48 8d 85 70 ed ff ff 	lea    -0x1290(%rbp),%rax
    d331:	48 05 c0 00 00 00    	add    $0xc0,%rax
    d337:	48 89 85 b0 f8 ff ff 	mov    %rax,-0x750(%rbp)
    d33e:	48 c7 85 b8 f8 ff ff 	movq   $0x0,-0x748(%rbp)
    d345:	00 00 00 00 
    d349:	48 8d 85 70 ed ff ff 	lea    -0x1290(%rbp),%rax
    d350:	48 05 c0 00 00 00    	add    $0xc0,%rax
    d356:	48 89 85 c0 f8 ff ff 	mov    %rax,-0x740(%rbp)
    d35d:	48 c7 85 c8 f8 ff ff 	movq   $0x0,-0x738(%rbp)
    d364:	00 00 00 00 
    d368:	48 8d 85 70 ed ff ff 	lea    -0x1290(%rbp),%rax
    d36f:	48 05 c0 00 00 00    	add    $0xc0,%rax
    d375:	48 89 85 d0 f8 ff ff 	mov    %rax,-0x730(%rbp)
    d37c:	48 8d 85 70 ed ff ff 	lea    -0x1290(%rbp),%rax
    d383:	48 83 c0 68          	add    $0x68,%rax
    d387:	48 89 85 d8 f8 ff ff 	mov    %rax,-0x728(%rbp)
    d38e:	48 c7 85 e0 f8 ff ff 	movq   $0x0,-0x720(%rbp)
    d395:	00 00 00 00 
    d399:	48 8d 85 70 ed ff ff 	lea    -0x1290(%rbp),%rax
    d3a0:	48 05 c0 00 00 00    	add    $0xc0,%rax
    d3a6:	48 89 85 e8 f8 ff ff 	mov    %rax,-0x718(%rbp)
    d3ad:	48 c7 85 f0 f8 ff ff 	movq   $0x0,-0x710(%rbp)
    d3b4:	00 00 00 00 
    d3b8:	48 8d 85 70 ed ff ff 	lea    -0x1290(%rbp),%rax
    d3bf:	48 05 c0 00 00 00    	add    $0xc0,%rax
    d3c5:	48 89 85 f8 f8 ff ff 	mov    %rax,-0x708(%rbp)
    d3cc:	48 c7 85 00 f9 ff ff 	movq   $0x0,-0x700(%rbp)
    d3d3:	00 00 00 00 
    d3d7:	48 8d 85 70 ed ff ff 	lea    -0x1290(%rbp),%rax
    d3de:	48 05 c0 00 00 00    	add    $0xc0,%rax
    d3e4:	48 89 85 08 f9 ff ff 	mov    %rax,-0x6f8(%rbp)
    d3eb:	48 c7 85 10 f9 ff ff 	movq   $0x0,-0x6f0(%rbp)
    d3f2:	00 00 00 00 
    d3f6:	48 8d 85 70 ed ff ff 	lea    -0x1290(%rbp),%rax
    d3fd:	48 83 c0 68          	add    $0x68,%rax
    d401:	48 89 85 18 f9 ff ff 	mov    %rax,-0x6e8(%rbp)
    d408:	48 8d 85 70 ed ff ff 	lea    -0x1290(%rbp),%rax
    d40f:	48 05 c0 00 00 00    	add    $0xc0,%rax
    d415:	48 89 85 20 f9 ff ff 	mov    %rax,-0x6e0(%rbp)
    d41c:	48 c7 85 28 f9 ff ff 	movq   $0x0,-0x6d8(%rbp)
    d423:	00 00 00 00 
    d427:	48 8d 85 70 ed ff ff 	lea    -0x1290(%rbp),%rax
    d42e:	48 05 c0 00 00 00    	add    $0xc0,%rax
    d434:	48 89 85 30 f9 ff ff 	mov    %rax,-0x6d0(%rbp)
    d43b:	48 c7 85 38 f9 ff ff 	movq   $0x0,-0x6c8(%rbp)
    d442:	00 00 00 00 
    d446:	48 8d 85 70 ed ff ff 	lea    -0x1290(%rbp),%rax
    d44d:	48 05 c0 00 00 00    	add    $0xc0,%rax
    d453:	48 89 85 40 f9 ff ff 	mov    %rax,-0x6c0(%rbp)
    d45a:	48 8d 85 70 ed ff ff 	lea    -0x1290(%rbp),%rax
    d461:	48 83 c0 68          	add    $0x68,%rax
    d465:	48 89 85 48 f9 ff ff 	mov    %rax,-0x6b8(%rbp)
    d46c:	48 8d 85 70 ed ff ff 	lea    -0x1290(%rbp),%rax
    d473:	48 83 c0 68          	add    $0x68,%rax
    d477:	48 89 85 50 f9 ff ff 	mov    %rax,-0x6b0(%rbp)
    d47e:	48 8d 85 70 ed ff ff 	lea    -0x1290(%rbp),%rax
    d485:	48 05 c0 00 00 00    	add    $0xc0,%rax
    d48b:	48 89 85 58 f9 ff ff 	mov    %rax,-0x6a8(%rbp)
    d492:	48 c7 85 60 f9 ff ff 	movq   $0x0,-0x6a0(%rbp)
    d499:	00 00 00 00 
    d49d:	48 8d 85 70 ed ff ff 	lea    -0x1290(%rbp),%rax
    d4a4:	48 05 c0 00 00 00    	add    $0xc0,%rax
    d4aa:	48 89 85 68 f9 ff ff 	mov    %rax,-0x698(%rbp)
    d4b1:	48 c7 85 70 f9 ff ff 	movq   $0x0,-0x690(%rbp)
    d4b8:	00 00 00 00 
    d4bc:	48 8d 85 70 ed ff ff 	lea    -0x1290(%rbp),%rax
    d4c3:	48 05 c0 00 00 00    	add    $0xc0,%rax
    d4c9:	48 89 85 78 f9 ff ff 	mov    %rax,-0x688(%rbp)
    d4d0:	48 8d 85 70 ed ff ff 	lea    -0x1290(%rbp),%rax
    d4d7:	48 83 c0 68          	add    $0x68,%rax
    d4db:	48 89 85 80 f9 ff ff 	mov    %rax,-0x680(%rbp)
    d4e2:	48 c7 85 88 f9 ff ff 	movq   $0x0,-0x678(%rbp)
    d4e9:	00 00 00 00 
    d4ed:	48 8d 85 70 ed ff ff 	lea    -0x1290(%rbp),%rax
    d4f4:	48 05 c0 00 00 00    	add    $0xc0,%rax
    d4fa:	48 89 85 90 f9 ff ff 	mov    %rax,-0x670(%rbp)
    d501:	48 c7 85 98 f9 ff ff 	movq   $0x0,-0x668(%rbp)
    d508:	00 00 00 00 
    d50c:	48 8d 85 70 ed ff ff 	lea    -0x1290(%rbp),%rax
    d513:	48 05 c0 00 00 00    	add    $0xc0,%rax
    d519:	48 89 85 a0 f9 ff ff 	mov    %rax,-0x660(%rbp)
    d520:	48 c7 85 a8 f9 ff ff 	movq   $0x0,-0x658(%rbp)
    d527:	00 00 00 00 
    d52b:	48 8d 85 70 ed ff ff 	lea    -0x1290(%rbp),%rax
    d532:	48 05 c0 00 00 00    	add    $0xc0,%rax
    d538:	48 89 85 b0 f9 ff ff 	mov    %rax,-0x650(%rbp)
    d53f:	48 c7 85 b8 f9 ff ff 	movq   $0x0,-0x648(%rbp)
    d546:	00 00 00 00 
    d54a:	48 8d 85 70 ed ff ff 	lea    -0x1290(%rbp),%rax
    d551:	48 83 c0 68          	add    $0x68,%rax
    d555:	48 89 85 c0 f9 ff ff 	mov    %rax,-0x640(%rbp)
    d55c:	48 8d 85 70 ed ff ff 	lea    -0x1290(%rbp),%rax
    d563:	48 05 c0 00 00 00    	add    $0xc0,%rax
    d569:	48 89 85 c8 f9 ff ff 	mov    %rax,-0x638(%rbp)
    d570:	48 c7 85 d0 f9 ff ff 	movq   $0x0,-0x630(%rbp)
    d577:	00 00 00 00 
    d57b:	48 8d 85 70 ed ff ff 	lea    -0x1290(%rbp),%rax
    d582:	48 05 c0 00 00 00    	add    $0xc0,%rax
    d588:	48 89 85 d8 f9 ff ff 	mov    %rax,-0x628(%rbp)
    d58f:	48 c7 85 e0 f9 ff ff 	movq   $0x0,-0x620(%rbp)
    d596:	00 00 00 00 
    d59a:	48 8d 85 70 ed ff ff 	lea    -0x1290(%rbp),%rax
    d5a1:	48 05 c0 00 00 00    	add    $0xc0,%rax
    d5a7:	48 89 85 e8 f9 ff ff 	mov    %rax,-0x618(%rbp)
    d5ae:	48 8d 85 70 ed ff ff 	lea    -0x1290(%rbp),%rax
    d5b5:	48 83 c0 68          	add    $0x68,%rax
    d5b9:	48 89 85 f0 f9 ff ff 	mov    %rax,-0x610(%rbp)
    d5c0:	48 8d 85 70 ed ff ff 	lea    -0x1290(%rbp),%rax
    d5c7:	48 83 c0 68          	add    $0x68,%rax
    d5cb:	48 89 85 f8 f9 ff ff 	mov    %rax,-0x608(%rbp)
    d5d2:	48 8d 85 70 ed ff ff 	lea    -0x1290(%rbp),%rax
    d5d9:	48 05 c0 00 00 00    	add    $0xc0,%rax
    d5df:	48 89 85 00 fa ff ff 	mov    %rax,-0x600(%rbp)
    d5e6:	48 c7 85 08 fa ff ff 	movq   $0x0,-0x5f8(%rbp)
    d5ed:	00 00 00 00 
    d5f1:	48 8d 85 70 ed ff ff 	lea    -0x1290(%rbp),%rax
    d5f8:	48 05 c0 00 00 00    	add    $0xc0,%rax
    d5fe:	48 89 85 10 fa ff ff 	mov    %rax,-0x5f0(%rbp)
    d605:	48 c7 85 18 fa ff ff 	movq   $0x0,-0x5e8(%rbp)
    d60c:	00 00 00 00 
    d610:	48 8d 85 70 ed ff ff 	lea    -0x1290(%rbp),%rax
    d617:	48 05 c0 00 00 00    	add    $0xc0,%rax
    d61d:	48 89 85 20 fa ff ff 	mov    %rax,-0x5e0(%rbp)
    d624:	48 8d 85 70 ed ff ff 	lea    -0x1290(%rbp),%rax
    d62b:	48 83 c0 68          	add    $0x68,%rax
    d62f:	48 89 85 28 fa ff ff 	mov    %rax,-0x5d8(%rbp)
    d636:	48 c7 85 30 fa ff ff 	movq   $0x0,-0x5d0(%rbp)
    d63d:	00 00 00 00 
    d641:	48 8d 85 70 ed ff ff 	lea    -0x1290(%rbp),%rax
    d648:	48 05 c0 00 00 00    	add    $0xc0,%rax
    d64e:	48 89 85 38 fa ff ff 	mov    %rax,-0x5c8(%rbp)
    d655:	48 c7 85 40 fa ff ff 	movq   $0x0,-0x5c0(%rbp)
    d65c:	00 00 00 00 
    d660:	48 8d 85 70 ed ff ff 	lea    -0x1290(%rbp),%rax
    d667:	48 05 c0 00 00 00    	add    $0xc0,%rax
    d66d:	48 89 85 48 fa ff ff 	mov    %rax,-0x5b8(%rbp)
    d674:	48 c7 85 50 fa ff ff 	movq   $0x0,-0x5b0(%rbp)
    d67b:	00 00 00 00 
    d67f:	48 8d 85 70 ed ff ff 	lea    -0x1290(%rbp),%rax
    d686:	48 05 c0 00 00 00    	add    $0xc0,%rax
    d68c:	48 89 85 58 fa ff ff 	mov    %rax,-0x5a8(%rbp)
    d693:	48 c7 85 60 fa ff ff 	movq   $0x0,-0x5a0(%rbp)
    d69a:	00 00 00 00 
    d69e:	48 8d 85 70 ed ff ff 	lea    -0x1290(%rbp),%rax
    d6a5:	48 83 c0 68          	add    $0x68,%rax
    d6a9:	48 89 85 68 fa ff ff 	mov    %rax,-0x598(%rbp)
    d6b0:	48 8d 85 70 ed ff ff 	lea    -0x1290(%rbp),%rax
    d6b7:	48 05 c0 00 00 00    	add    $0xc0,%rax
    d6bd:	48 89 85 70 fa ff ff 	mov    %rax,-0x590(%rbp)
    d6c4:	48 c7 85 78 fa ff ff 	movq   $0x0,-0x588(%rbp)
    d6cb:	00 00 00 00 
    d6cf:	48 8d 85 70 ed ff ff 	lea    -0x1290(%rbp),%rax
    d6d6:	48 05 c0 00 00 00    	add    $0xc0,%rax
    d6dc:	48 89 85 80 fa ff ff 	mov    %rax,-0x580(%rbp)
    d6e3:	48 c7 85 88 fa ff ff 	movq   $0x0,-0x578(%rbp)
    d6ea:	00 00 00 00 
    d6ee:	48 8d 85 70 ed ff ff 	lea    -0x1290(%rbp),%rax
    d6f5:	48 05 c0 00 00 00    	add    $0xc0,%rax
    d6fb:	48 89 85 90 fa ff ff 	mov    %rax,-0x570(%rbp)
    d702:	48 8d 85 70 ed ff ff 	lea    -0x1290(%rbp),%rax
    d709:	48 83 c0 68          	add    $0x68,%rax
    d70d:	48 89 85 98 fa ff ff 	mov    %rax,-0x568(%rbp)
    d714:	48 8d 85 70 ed ff ff 	lea    -0x1290(%rbp),%rax
    d71b:	48 83 c0 68          	add    $0x68,%rax
    d71f:	48 89 85 a0 fa ff ff 	mov    %rax,-0x560(%rbp)
    d726:	48 8d 85 70 ed ff ff 	lea    -0x1290(%rbp),%rax
    d72d:	48 05 c0 00 00 00    	add    $0xc0,%rax
    d733:	48 89 85 a8 fa ff ff 	mov    %rax,-0x558(%rbp)
    d73a:	48 c7 85 b0 fa ff ff 	movq   $0x0,-0x550(%rbp)
    d741:	00 00 00 00 
    d745:	48 8d 85 70 ed ff ff 	lea    -0x1290(%rbp),%rax
    d74c:	48 05 c0 00 00 00    	add    $0xc0,%rax
    d752:	48 89 85 b8 fa ff ff 	mov    %rax,-0x548(%rbp)
    d759:	48 c7 85 c0 fa ff ff 	movq   $0x0,-0x540(%rbp)
    d760:	00 00 00 00 
    d764:	48 8d 85 70 ed ff ff 	lea    -0x1290(%rbp),%rax
    d76b:	48 05 c0 00 00 00    	add    $0xc0,%rax
    d771:	48 89 85 c8 fa ff ff 	mov    %rax,-0x538(%rbp)
    d778:	48 8d 85 70 ed ff ff 	lea    -0x1290(%rbp),%rax
    d77f:	48 83 c0 68          	add    $0x68,%rax
    d783:	48 89 85 d0 fa ff ff 	mov    %rax,-0x530(%rbp)
    d78a:	48 c7 85 d8 fa ff ff 	movq   $0x0,-0x528(%rbp)
    d791:	00 00 00 00 
    d795:	48 8d 85 70 ed ff ff 	lea    -0x1290(%rbp),%rax
    d79c:	48 05 c0 00 00 00    	add    $0xc0,%rax
    d7a2:	48 89 85 e0 fa ff ff 	mov    %rax,-0x520(%rbp)
    d7a9:	48 c7 85 e8 fa ff ff 	movq   $0x0,-0x518(%rbp)
    d7b0:	00 00 00 00 
    d7b4:	48 8d 85 70 ed ff ff 	lea    -0x1290(%rbp),%rax
    d7bb:	48 05 c0 00 00 00    	add    $0xc0,%rax
    d7c1:	48 89 85 f0 fa ff ff 	mov    %rax,-0x510(%rbp)
    d7c8:	48 c7 85 f8 fa ff ff 	movq   $0x0,-0x508(%rbp)
    d7cf:	00 00 00 00 
    d7d3:	48 8d 85 70 ed ff ff 	lea    -0x1290(%rbp),%rax
    d7da:	48 05 c0 00 00 00    	add    $0xc0,%rax
    d7e0:	48 89 85 00 fb ff ff 	mov    %rax,-0x500(%rbp)
    d7e7:	48 c7 85 08 fb ff ff 	movq   $0x0,-0x4f8(%rbp)
    d7ee:	00 00 00 00 
    d7f2:	48 8d 85 70 ed ff ff 	lea    -0x1290(%rbp),%rax
    d7f9:	48 83 c0 68          	add    $0x68,%rax
    d7fd:	48 89 85 10 fb ff ff 	mov    %rax,-0x4f0(%rbp)
    d804:	48 8d 85 70 ed ff ff 	lea    -0x1290(%rbp),%rax
    d80b:	48 05 c0 00 00 00    	add    $0xc0,%rax
    d811:	48 89 85 18 fb ff ff 	mov    %rax,-0x4e8(%rbp)
    d818:	48 c7 85 20 fb ff ff 	movq   $0x0,-0x4e0(%rbp)
    d81f:	00 00 00 00 
    d823:	48 8d 85 70 ed ff ff 	lea    -0x1290(%rbp),%rax
    d82a:	48 05 c0 00 00 00    	add    $0xc0,%rax
    d830:	48 89 85 28 fb ff ff 	mov    %rax,-0x4d8(%rbp)
    d837:	48 c7 85 30 fb ff ff 	movq   $0x0,-0x4d0(%rbp)
    d83e:	00 00 00 00 
    d842:	48 8d 85 70 ed ff ff 	lea    -0x1290(%rbp),%rax
    d849:	48 05 c0 00 00 00    	add    $0xc0,%rax
    d84f:	48 89 85 38 fb ff ff 	mov    %rax,-0x4c8(%rbp)
    d856:	48 8d 85 70 ed ff ff 	lea    -0x1290(%rbp),%rax
    d85d:	48 83 c0 68          	add    $0x68,%rax
    d861:	48 89 85 40 fb ff ff 	mov    %rax,-0x4c0(%rbp)
    d868:	48 8d 85 70 ed ff ff 	lea    -0x1290(%rbp),%rax
    d86f:	48 83 c0 68          	add    $0x68,%rax
    d873:	48 89 85 48 fb ff ff 	mov    %rax,-0x4b8(%rbp)
    d87a:	48 8d 85 70 ed ff ff 	lea    -0x1290(%rbp),%rax
    d881:	48 05 c0 00 00 00    	add    $0xc0,%rax
    d887:	48 89 85 50 fb ff ff 	mov    %rax,-0x4b0(%rbp)
    d88e:	48 c7 85 58 fb ff ff 	movq   $0x0,-0x4a8(%rbp)
    d895:	00 00 00 00 
    d899:	48 8d 85 70 ed ff ff 	lea    -0x1290(%rbp),%rax
    d8a0:	48 05 c0 00 00 00    	add    $0xc0,%rax
    d8a6:	48 89 85 60 fb ff ff 	mov    %rax,-0x4a0(%rbp)
    d8ad:	48 c7 85 68 fb ff ff 	movq   $0x0,-0x498(%rbp)
    d8b4:	00 00 00 00 
    d8b8:	48 8d 85 70 ed ff ff 	lea    -0x1290(%rbp),%rax
    d8bf:	48 05 c0 00 00 00    	add    $0xc0,%rax
    d8c5:	48 89 85 70 fb ff ff 	mov    %rax,-0x490(%rbp)
    d8cc:	48 8d 85 70 ed ff ff 	lea    -0x1290(%rbp),%rax
    d8d3:	48 83 c0 68          	add    $0x68,%rax
    d8d7:	48 89 85 78 fb ff ff 	mov    %rax,-0x488(%rbp)
    d8de:	48 c7 85 80 fb ff ff 	movq   $0x0,-0x480(%rbp)
    d8e5:	00 00 00 00 
    d8e9:	48 8d 85 70 ed ff ff 	lea    -0x1290(%rbp),%rax
    d8f0:	48 05 c0 00 00 00    	add    $0xc0,%rax
    d8f6:	48 89 85 88 fb ff ff 	mov    %rax,-0x478(%rbp)
    d8fd:	48 c7 85 90 fb ff ff 	movq   $0x0,-0x470(%rbp)
    d904:	00 00 00 00 
    d908:	48 8d 85 70 ed ff ff 	lea    -0x1290(%rbp),%rax
    d90f:	48 05 c0 00 00 00    	add    $0xc0,%rax
    d915:	48 89 85 98 fb ff ff 	mov    %rax,-0x468(%rbp)
    d91c:	48 c7 85 a0 fb ff ff 	movq   $0x0,-0x460(%rbp)
    d923:	00 00 00 00 
    d927:	48 8d 85 70 ed ff ff 	lea    -0x1290(%rbp),%rax
    d92e:	48 05 c0 00 00 00    	add    $0xc0,%rax
    d934:	48 89 85 a8 fb ff ff 	mov    %rax,-0x458(%rbp)
    d93b:	48 c7 85 b0 fb ff ff 	movq   $0x0,-0x450(%rbp)
    d942:	00 00 00 00 
    d946:	48 8d 85 70 ed ff ff 	lea    -0x1290(%rbp),%rax
    d94d:	48 83 c0 68          	add    $0x68,%rax
    d951:	48 89 85 b8 fb ff ff 	mov    %rax,-0x448(%rbp)
    d958:	48 8d 85 70 ed ff ff 	lea    -0x1290(%rbp),%rax
    d95f:	48 05 c0 00 00 00    	add    $0xc0,%rax
    d965:	48 89 85 c0 fb ff ff 	mov    %rax,-0x440(%rbp)
    d96c:	48 c7 85 c8 fb ff ff 	movq   $0x0,-0x438(%rbp)
    d973:	00 00 00 00 
    d977:	48 8d 85 70 ed ff ff 	lea    -0x1290(%rbp),%rax
    d97e:	48 05 c0 00 00 00    	add    $0xc0,%rax
    d984:	48 89 85 d0 fb ff ff 	mov    %rax,-0x430(%rbp)
    d98b:	48 c7 85 d8 fb ff ff 	movq   $0x0,-0x428(%rbp)
    d992:	00 00 00 00 
    d996:	48 8d 85 70 ed ff ff 	lea    -0x1290(%rbp),%rax
    d99d:	48 05 c0 00 00 00    	add    $0xc0,%rax
    d9a3:	48 89 85 e0 fb ff ff 	mov    %rax,-0x420(%rbp)
    d9aa:	48 8d 85 70 ed ff ff 	lea    -0x1290(%rbp),%rax
    d9b1:	48 83 c0 68          	add    $0x68,%rax
    d9b5:	48 89 85 e8 fb ff ff 	mov    %rax,-0x418(%rbp)
    d9bc:	48 8d 85 70 ed ff ff 	lea    -0x1290(%rbp),%rax
    d9c3:	48 83 c0 68          	add    $0x68,%rax
    d9c7:	48 89 85 f0 fb ff ff 	mov    %rax,-0x410(%rbp)
    d9ce:	48 8d 85 70 ed ff ff 	lea    -0x1290(%rbp),%rax
    d9d5:	48 05 c0 00 00 00    	add    $0xc0,%rax
    d9db:	48 89 85 f8 fb ff ff 	mov    %rax,-0x408(%rbp)
    d9e2:	48 c7 85 00 fc ff ff 	movq   $0x0,-0x400(%rbp)
    d9e9:	00 00 00 00 
    d9ed:	48 8d 85 70 ed ff ff 	lea    -0x1290(%rbp),%rax
    d9f4:	48 05 c0 00 00 00    	add    $0xc0,%rax
    d9fa:	48 89 85 08 fc ff ff 	mov    %rax,-0x3f8(%rbp)
    da01:	48 c7 85 10 fc ff ff 	movq   $0x0,-0x3f0(%rbp)
    da08:	00 00 00 00 
    da0c:	48 8d 85 70 ed ff ff 	lea    -0x1290(%rbp),%rax
    da13:	48 05 c0 00 00 00    	add    $0xc0,%rax
    da19:	48 89 85 18 fc ff ff 	mov    %rax,-0x3e8(%rbp)
    da20:	48 8d 85 70 ed ff ff 	lea    -0x1290(%rbp),%rax
    da27:	48 83 c0 68          	add    $0x68,%rax
    da2b:	48 89 85 20 fc ff ff 	mov    %rax,-0x3e0(%rbp)
    da32:	48 c7 85 28 fc ff ff 	movq   $0x0,-0x3d8(%rbp)
    da39:	00 00 00 00 
    da3d:	48 8d 85 70 ed ff ff 	lea    -0x1290(%rbp),%rax
    da44:	48 05 c0 00 00 00    	add    $0xc0,%rax
    da4a:	48 89 85 30 fc ff ff 	mov    %rax,-0x3d0(%rbp)
    da51:	48 c7 85 38 fc ff ff 	movq   $0x0,-0x3c8(%rbp)
    da58:	00 00 00 00 
    da5c:	48 8d 85 70 ed ff ff 	lea    -0x1290(%rbp),%rax
    da63:	48 05 c0 00 00 00    	add    $0xc0,%rax
    da69:	48 89 85 40 fc ff ff 	mov    %rax,-0x3c0(%rbp)
    da70:	48 8d 85 70 ed ff ff 	lea    -0x1290(%rbp),%rax
    da77:	48 05 c0 00 00 00    	add    $0xc0,%rax
    da7d:	48 89 85 48 fc ff ff 	mov    %rax,-0x3b8(%rbp)
    da84:	48 8d 85 70 ed ff ff 	lea    -0x1290(%rbp),%rax
    da8b:	48 83 c0 30          	add    $0x30,%rax
    da8f:	48 89 85 50 fc ff ff 	mov    %rax,-0x3b0(%rbp)
    da96:	48 8d 85 70 ed ff ff 	lea    -0x1290(%rbp),%rax
    da9d:	48 05 c0 00 00 00    	add    $0xc0,%rax
    daa3:	48 89 85 58 fc ff ff 	mov    %rax,-0x3a8(%rbp)
    daaa:	48 8d 85 f8 e6 ff ff 	lea    -0x1908(%rbp),%rax
    dab1:	48 89 85 d8 e8 ff ff 	mov    %rax,-0x1728(%rbp)
    dab8:	48 8b 95 a0 ea ff ff 	mov    -0x1560(%rbp),%rdx
    dabf:	48 8b 1d fa 14 01 00 	mov    0x114fa(%rip),%rbx        # 1efc0 <g_793>
    dac6:	48 8b 85 c8 e8 ff ff 	mov    -0x1738(%rbp),%rax
    dacd:	48 89 d6             	mov    %rdx,%rsi
    dad0:	48 89 c7             	mov    %rax,%rdi
    dad3:	e8 06 59 00 00       	callq  133de <func_57>
    dad8:	48 89 03             	mov    %rax,(%rbx)
    dadb:	48 8b 85 38 e7 ff ff 	mov    -0x18c8(%rbp),%rax
    dae2:	48 89 c6             	mov    %rax,%rsi
    dae5:	bf 00 00 00 00       	mov    $0x0,%edi
    daea:	e8 fb 3e 00 00       	callq  119ea <func_47>
    daef:	0f b7 85 42 e6 ff ff 	movzwl -0x19be(%rbp),%eax
    daf6:	0f b6 d8             	movzbl %al,%ebx
    daf9:	48 8b 85 20 e6 ff ff 	mov    -0x19e0(%rbp),%rax
    db00:	41 89 c5             	mov    %eax,%r13d
    db03:	8b 85 e0 e6 ff ff    	mov    -0x1920(%rbp),%eax
    db09:	44 0f b6 e0          	movzbl %al,%r12d
    db0d:	0f b6 05 24 f7 00 00 	movzbl 0xf724(%rip),%eax        # 1d238 <g_163>
    db14:	0f b6 c0             	movzbl %al,%eax
    db17:	89 c6                	mov    %eax,%esi
    db19:	bf fa ff ff ff       	mov    $0xfffffffa,%edi
    db1e:	e8 d2 98 ff ff       	callq  73f5 <safe_mul_func_int16_t_s_s>
    db23:	0f b6 c0             	movzbl %al,%eax
    db26:	44 89 e6             	mov    %r12d,%esi
    db29:	89 c7                	mov    %eax,%edi
    db2b:	e8 63 a0 ff ff       	callq  7b93 <safe_mul_func_uint8_t_u_u>
    db30:	0f b6 d0             	movzbl %al,%edx
    db33:	48 8b 85 d0 e8 ff ff 	mov    -0x1730(%rbp),%rax
    db3a:	66 89 10             	mov    %dx,(%rax)
    db3d:	48 8b 85 f8 e6 ff ff 	mov    -0x1908(%rbp),%rax
    db44:	48 8d 15 0b f7 00 00 	lea    0xf70b(%rip),%rdx        # 1d256 <g_452>
    db4b:	48 39 d0             	cmp    %rdx,%rax
    db4e:	0f 95 c0             	setne  %al
    db51:	0f b6 d0             	movzbl %al,%edx
    db54:	8b 85 68 ec ff ff    	mov    -0x1398(%rbp),%eax
    db5a:	39 c2                	cmp    %eax,%edx
    db5c:	0f 95 c0             	setne  %al
    db5f:	0f b6 c0             	movzbl %al,%eax
    db62:	44 89 ee             	mov    %r13d,%esi
    db65:	89 c7                	mov    %eax,%edi
    db67:	e8 f7 99 ff ff       	callq  7563 <safe_rshift_func_int16_t_s_u>
    db6c:	0f b6 c0             	movzbl %al,%eax
    db6f:	89 de                	mov    %ebx,%esi
    db71:	89 c7                	mov    %eax,%edi
    db73:	e8 e2 9f ff ff       	callq  7b5a <safe_add_func_uint8_t_u_u>
    db78:	48 8b 05 e1 12 01 00 	mov    0x112e1(%rip),%rax        # 1ee60 <g_615>
    db7f:	48 8b 10             	mov    (%rax),%rdx
    db82:	48 8b 05 df 1f 01 00 	mov    0x11fdf(%rip),%rax        # 1fb68 <g_387>
    db89:	8b 12                	mov    (%rdx),%edx
    db8b:	89 10                	mov    %edx,(%rax)
    db8d:	48 8b 85 30 ee ff ff 	mov    -0x11d0(%rbp),%rax
    db94:	48 89 85 e8 ea ff ff 	mov    %rax,-0x1518(%rbp)
    db9b:	48 8b 85 e8 ea ff ff 	mov    -0x1518(%rbp),%rax
    dba2:	48 8d 15 e7 11 01 00 	lea    0x111e7(%rip),%rdx        # 1ed90 <g_591>
    dba9:	48 39 d0             	cmp    %rdx,%rax
    dbac:	0f 94 c0             	sete   %al
    dbaf:	44 0f b6 e0          	movzbl %al,%r12d
    dbb3:	48 8b 85 d8 e8 ff ff 	mov    -0x1728(%rbp),%rax
    dbba:	48 c7 00 00 00 00 00 	movq   $0x0,(%rax)
    dbc1:	48 8b 85 d8 e8 ff ff 	mov    -0x1728(%rbp),%rax
    dbc8:	48 8b 00             	mov    (%rax),%rax
    dbcb:	48 85 c0             	test   %rax,%rax
    dbce:	0f 95 c0             	setne  %al
    dbd1:	0f b6 d0             	movzbl %al,%edx
    dbd4:	8b 05 86 f6 00 00    	mov    0xf686(%rip),%eax        # 1d260 <g_540>
    dbda:	39 c2                	cmp    %eax,%edx
    dbdc:	0f 9f c0             	setg   %al
    dbdf:	44 0f b6 e8          	movzbl %al,%r13d
    dbe3:	8b 05 5f f6 00 00    	mov    0xf65f(%rip),%eax        # 1d248 <g_236>
    dbe9:	0f bf d8             	movswl %ax,%ebx
    dbec:	48 8b 05 9d 11 01 00 	mov    0x1119d(%rip),%rax        # 1ed90 <g_591>
    dbf3:	0f b6 85 2c e6 ff ff 	movzbl -0x19d4(%rbp),%eax
    dbfa:	0f b6 d0             	movzbl %al,%edx
    dbfd:	48 8b 05 94 11 01 00 	mov    0x11194(%rip),%rax        # 1ed98 <g_590>
    dc04:	48 8b 08             	mov    (%rax),%rcx
    dc07:	48 8b 05 ba 13 01 00 	mov    0x113ba(%rip),%rax        # 1efc8 <g_822>
    dc0e:	48 89 05 b3 13 01 00 	mov    %rax,0x113b3(%rip)        # 1efc8 <g_822>
    dc15:	48 8b 05 ac 13 01 00 	mov    0x113ac(%rip),%rax        # 1efc8 <g_822>
    dc1c:	48 39 c1             	cmp    %rax,%rcx
    dc1f:	0f 95 c0             	setne  %al
    dc22:	0f b6 c0             	movzbl %al,%eax
    dc25:	89 d6                	mov    %edx,%esi
    dc27:	89 c7                	mov    %eax,%edi
    dc29:	e8 d7 9f ff ff       	callq  7c05 <safe_lshift_func_uint8_t_u_s>
    dc2e:	84 c0                	test   %al,%al
    dc30:	74 11                	je     dc43 <func_22+0x2295>
    dc32:	48 83 bd 20 e6 ff ff 	cmpq   $0x0,-0x19e0(%rbp)
    dc39:	00 
    dc3a:	74 07                	je     dc43 <func_22+0x2295>
    dc3c:	b8 01 00 00 00       	mov    $0x1,%eax
    dc41:	eb 05                	jmp    dc48 <func_22+0x229a>
    dc43:	b8 00 00 00 00       	mov    $0x0,%eax
    dc48:	89 c2                	mov    %eax,%edx
    dc4a:	8b 85 b8 e9 ff ff    	mov    -0x1648(%rbp),%eax
    dc50:	31 d0                	xor    %edx,%eax
    dc52:	66 35 e7 61          	xor    $0x61e7,%ax
    dc56:	98                   	cwtl   
    dc57:	89 de                	mov    %ebx,%esi
    dc59:	89 c7                	mov    %eax,%edi
    dc5b:	e8 95 97 ff ff       	callq  73f5 <safe_mul_func_int16_t_s_s>
    dc60:	8b 05 1a f6 00 00    	mov    0xf61a(%rip),%eax        # 1d280 <g_617>
    dc66:	85 c0                	test   %eax,%eax
    dc68:	7e 09                	jle    dc73 <func_22+0x22c5>
    dc6a:	83 bd e0 e6 ff ff 00 	cmpl   $0x0,-0x1920(%rbp)
    dc71:	74 07                	je     dc7a <func_22+0x22cc>
    dc73:	b8 01 00 00 00       	mov    $0x1,%eax
    dc78:	eb 05                	jmp    dc7f <func_22+0x22d1>
    dc7a:	b8 00 00 00 00       	mov    $0x0,%eax
    dc7f:	48 63 d0             	movslq %eax,%rdx
    dc82:	48 8b 05 a7 f5 00 00 	mov    0xf5a7(%rip),%rax        # 1d230 <g_129>
    dc89:	48 39 c2             	cmp    %rax,%rdx
    dc8c:	0f 9e c0             	setle  %al
    dc8f:	0f b6 c0             	movzbl %al,%eax
    dc92:	41 39 c5             	cmp    %eax,%r13d
    dc95:	0f 9d c0             	setge  %al
    dc98:	0f b6 c0             	movzbl %al,%eax
    dc9b:	89 c6                	mov    %eax,%esi
    dc9d:	bf 01 00 00 00       	mov    $0x1,%edi
    dca2:	e8 d1 9e ff ff       	callq  7b78 <safe_sub_func_uint8_t_u_u>
    dca7:	0f b6 c0             	movzbl %al,%eax
    dcaa:	41 39 c4             	cmp    %eax,%r12d
    dcad:	0f 95 c0             	setne  %al
    dcb0:	0f b6 c0             	movzbl %al,%eax
    dcb3:	89 85 dc e6 ff ff    	mov    %eax,-0x1924(%rbp)
    dcb9:	0f b6 05 92 f5 00 00 	movzbl 0xf592(%rip),%eax        # 1d252 <g_294>
    dcc0:	83 c0 01             	add    $0x1,%eax
    dcc3:	88 05 89 f5 00 00    	mov    %al,0xf589(%rip)        # 1d252 <g_294>
    dcc9:	0f b6 05 82 f5 00 00 	movzbl 0xf582(%rip),%eax        # 1d252 <g_294>
    dcd0:	3c 24                	cmp    $0x24,%al
    dcd2:	0f 86 51 ee ff ff    	jbe    cb29 <func_22+0x117b>
    dcd8:	48 8b 05 29 0d 01 00 	mov    0x10d29(%rip),%rax        # 1ea08 <g_472>
    dcdf:	48 8b 95 78 eb ff ff 	mov    -0x1488(%rbp),%rdx
    dce6:	48 89 10             	mov    %rdx,(%rax)
    dce9:	48 8b 00             	mov    (%rax),%rax
    dcec:	48 89 85 38 e7 ff ff 	mov    %rax,-0x18c8(%rbp)
    dcf3:	8b 05 47 f5 00 00    	mov    0xf547(%rip),%eax        # 1d240 <g_231>
    dcf9:	0f b7 c0             	movzwl %ax,%eax
    dcfc:	be 01 00 00 00       	mov    $0x1,%esi
    dd01:	89 c7                	mov    %eax,%edi
    dd03:	e8 f7 9f ff ff       	callq  7cff <safe_add_func_uint16_t_u_u>
    dd08:	0f b7 c0             	movzwl %ax,%eax
    dd0b:	89 05 2f f5 00 00    	mov    %eax,0xf52f(%rip)        # 1d240 <g_231>
    dd11:	8b 05 29 f5 00 00    	mov    0xf529(%rip),%eax        # 1d240 <g_231>
    dd17:	83 f8 37             	cmp    $0x37,%eax
    dd1a:	0f 87 3c ec ff ff    	ja     c95c <func_22+0xfae>
    dd20:	8b 8d 34 ea ff ff    	mov    -0x15cc(%rbp),%ecx
    dd26:	48 8b 05 63 10 01 00 	mov    0x11063(%rip),%rax        # 1ed90 <g_591>
    dd2d:	0f b6 85 2c e6 ff ff 	movzbl -0x19d4(%rbp),%eax
    dd34:	0f b6 d0             	movzbl %al,%edx
    dd37:	48 8b 85 c0 e8 ff ff 	mov    -0x1740(%rbp),%rax
    dd3e:	48 89 10             	mov    %rdx,(%rax)
    dd41:	48 8b 85 c0 e8 ff ff 	mov    -0x1740(%rbp),%rax
    dd48:	48 8b 00             	mov    (%rax),%rax
    dd4b:	48 85 c0             	test   %rax,%rax
    dd4e:	75 0c                	jne    dd5c <func_22+0x23ae>
    dd50:	0f b7 05 f9 f4 00 00 	movzwl 0xf4f9(%rip),%eax        # 1d250 <g_264>
    dd57:	66 85 c0             	test   %ax,%ax
    dd5a:	74 07                	je     dd63 <func_22+0x23b5>
    dd5c:	b8 01 00 00 00       	mov    $0x1,%eax
    dd61:	eb 05                	jmp    dd68 <func_22+0x23ba>
    dd63:	b8 00 00 00 00       	mov    $0x0,%eax
    dd68:	39 c8                	cmp    %ecx,%eax
    dd6a:	0f 9f c0             	setg   %al
    dd6d:	0f b6 d0             	movzbl %al,%edx
    dd70:	8b 85 28 e6 ff ff    	mov    -0x19d8(%rbp),%eax
    dd76:	89 d1                	mov    %edx,%ecx
    dd78:	09 c1                	or     %eax,%ecx
    dd7a:	48 8b 85 08 e7 ff ff 	mov    -0x18f8(%rbp),%rax
    dd81:	0f b6 10             	movzbl (%rax),%edx
    dd84:	48 8b 85 08 e7 ff ff 	mov    -0x18f8(%rbp),%rax
    dd8b:	21 ca                	and    %ecx,%edx
    dd8d:	88 10                	mov    %dl,(%rax)
    dd8f:	0f b6 00             	movzbl (%rax),%eax
    dd92:	0f b6 d0             	movzbl %al,%edx
    dd95:	48 83 bd 48 e7 ff ff 	cmpq   $0x0,-0x18b8(%rbp)
    dd9c:	00 
    dd9d:	0f 95 c0             	setne  %al
    dda0:	88 05 b0 f4 00 00    	mov    %al,0xf4b0(%rip)        # 1d256 <g_452>
    dda6:	0f b6 05 a9 f4 00 00 	movzbl 0xf4a9(%rip),%eax        # 1d256 <g_452>
    ddad:	0f be c0             	movsbl %al,%eax
    ddb0:	39 c2                	cmp    %eax,%edx
    ddb2:	0f 9e c0             	setle  %al
    ddb5:	0f b6 c0             	movzbl %al,%eax
    ddb8:	be 00 00 00 00       	mov    $0x0,%esi
    ddbd:	89 c7                	mov    %eax,%edi
    ddbf:	e8 ce 96 ff ff       	callq  7492 <safe_lshift_func_int16_t_s_s>
    ddc4:	44 0f bf e0          	movswl %ax,%r12d
    ddc8:	8b 05 b2 f4 00 00    	mov    0xf4b2(%rip),%eax        # 1d280 <g_617>
    ddce:	0f be d8             	movsbl %al,%ebx
    ddd1:	48 83 bd 80 e8 ff ff 	cmpq   $0x0,-0x1780(%rbp)
    ddd8:	00 
    ddd9:	74 11                	je     ddec <func_22+0x243e>
    dddb:	48 83 bd 20 e6 ff ff 	cmpq   $0x0,-0x19e0(%rbp)
    dde2:	00 
    dde3:	74 07                	je     ddec <func_22+0x243e>
    dde5:	ba 01 00 00 00       	mov    $0x1,%edx
    ddea:	eb 05                	jmp    ddf1 <func_22+0x2443>
    ddec:	ba 00 00 00 00       	mov    $0x0,%edx
    ddf1:	48 8b 85 48 e7 ff ff 	mov    -0x18b8(%rbp),%rax
    ddf8:	48 8b 00             	mov    (%rax),%rax
    ddfb:	8b 00                	mov    (%rax),%eax
    ddfd:	39 c2                	cmp    %eax,%edx
    ddff:	0f 9f c0             	setg   %al
    de02:	0f b6 c0             	movzbl %al,%eax
    de05:	be a5 23 00 00       	mov    $0x23a5,%esi
    de0a:	89 c7                	mov    %eax,%edi
    de0c:	e8 44 96 ff ff       	callq  7455 <safe_div_func_int16_t_s_s>
    de11:	0f be c0             	movsbl %al,%eax
    de14:	89 de                	mov    %ebx,%esi
    de16:	89 c7                	mov    %eax,%edi
    de18:	e8 d5 93 ff ff       	callq  71f2 <safe_sub_func_int8_t_s_s>
    de1d:	be 03 00 00 00       	mov    $0x3,%esi
    de22:	bf 00 00 00 00       	mov    $0x0,%edi
    de27:	e8 40 95 ff ff       	callq  736c <safe_rshift_func_int8_t_s_u>
    de2c:	48 83 bd 20 e6 ff ff 	cmpq   $0x0,-0x19e0(%rbp)
    de33:	00 
    de34:	75 0a                	jne    de40 <func_22+0x2492>
    de36:	48 83 bd 20 e6 ff ff 	cmpq   $0x0,-0x19e0(%rbp)
    de3d:	00 
    de3e:	74 07                	je     de47 <func_22+0x2499>
    de40:	b8 01 00 00 00       	mov    $0x1,%eax
    de45:	eb 05                	jmp    de4c <func_22+0x249e>
    de47:	b8 00 00 00 00       	mov    $0x0,%eax
    de4c:	89 c2                	mov    %eax,%edx
    de4e:	0f b6 05 93 1c 01 00 	movzbl 0x11c93(%rip),%eax        # 1fae8 <g_38>
    de55:	c1 e0 06             	shl    $0x6,%eax
    de58:	c0 f8 06             	sar    $0x6,%al
    de5b:	0f be c0             	movsbl %al,%eax
    de5e:	89 d6                	mov    %edx,%esi
    de60:	89 c7                	mov    %eax,%edi
    de62:	e8 be a0 ff ff       	callq  7f25 <safe_div_func_uint32_t_u_u>
    de67:	89 85 dc e6 ff ff    	mov    %eax,-0x1924(%rbp)
    de6d:	8b 85 dc e6 ff ff    	mov    -0x1924(%rbp),%eax
    de73:	89 85 d0 e6 ff ff    	mov    %eax,-0x1930(%rbp)
    de79:	8b 85 d0 e6 ff ff    	mov    -0x1930(%rbp),%eax
    de7f:	f7 d0                	not    %eax
    de81:	41 39 c4             	cmp    %eax,%r12d
    de84:	48 8b 05 dd 1c 01 00 	mov    0x11cdd(%rip),%rax        # 1fb68 <g_387>
    de8b:	c7 00 02 00 00 00    	movl   $0x2,(%rax)
    de91:	8b 00                	mov    (%rax),%eax
    de93:	09 85 70 e6 ff ff    	or     %eax,-0x1990(%rbp)
    de99:	8b 05 dd 1c 01 00    	mov    0x11cdd(%rip),%eax        # 1fb7c <g_564>
    de9f:	89 c0                	mov    %eax,%eax
    dea1:	be 01 00 00 00       	mov    $0x1,%esi
    dea6:	48 89 c7             	mov    %rax,%rdi
    dea9:	e8 93 99 ff ff       	callq  7841 <safe_add_func_int64_t_s_s>
    deae:	89 05 c8 1c 01 00    	mov    %eax,0x11cc8(%rip)        # 1fb7c <g_564>
    deb4:	8b 05 c2 1c 01 00    	mov    0x11cc2(%rip),%eax        # 1fb7c <g_564>
    deba:	83 f8 0a             	cmp    $0xa,%eax
    debd:	0f 87 f5 e9 ff ff    	ja     c8b8 <func_22+0xf0a>
    dec3:	8b 95 28 e6 ff ff    	mov    -0x19d8(%rbp),%edx
    dec9:	48 8d 05 b0 f3 00 00 	lea    0xf3b0(%rip),%rax        # 1d280 <g_617>
    ded0:	89 10                	mov    %edx,(%rax)
    ded2:	e9 2b 33 00 00       	jmpq   11202 <func_22+0x5854>
    ded7:	c7 85 60 e9 ff ff 6d 	movl   $0x73c7a16d,-0x16a0(%rbp)
    dede:	a1 c7 73 
    dee1:	c7 85 64 e9 ff ff c1 	movl   $0x876466c1,-0x169c(%rbp)
    dee8:	66 64 87 
    deeb:	c7 85 68 e9 ff ff 6d 	movl   $0x73c7a16d,-0x1698(%rbp)
    def2:	a1 c7 73 
    def5:	c7 85 6c e9 ff ff c1 	movl   $0x876466c1,-0x1694(%rbp)
    defc:	66 64 87 
    deff:	c7 85 70 e9 ff ff 6d 	movl   $0x73c7a16d,-0x1690(%rbp)
    df06:	a1 c7 73 
    df09:	c7 85 74 e9 ff ff c1 	movl   $0x876466c1,-0x168c(%rbp)
    df10:	66 64 87 
    df13:	c7 85 78 e9 ff ff 6d 	movl   $0x73c7a16d,-0x1688(%rbp)
    df1a:	a1 c7 73 
    df1d:	c7 85 7c e9 ff ff c1 	movl   $0x876466c1,-0x1684(%rbp)
    df24:	66 64 87 
    df27:	c7 85 80 e6 ff ff 45 	movl   $0xf5e94645,-0x1980(%rbp)
    df2e:	46 e9 f5 
    df31:	c7 85 48 e6 ff ff a6 	movl   $0x62c79fa6,-0x19b8(%rbp)
    df38:	9f c7 62 
    df3b:	48 c7 85 70 e7 ff ff 	movq   $0x0,-0x1890(%rbp)
    df42:	00 00 00 00 
    df46:	48 8d 05 eb f2 00 00 	lea    0xf2eb(%rip),%rax        # 1d238 <g_163>
    df4d:	48 89 85 78 e7 ff ff 	mov    %rax,-0x1888(%rbp)
    df54:	48 8d 05 0d 1c 01 00 	lea    0x11c0d(%rip),%rax        # 1fb68 <g_387>
    df5b:	48 89 85 00 e7 ff ff 	mov    %rax,-0x1900(%rbp)
    df62:	48 8d 85 00 e7 ff ff 	lea    -0x1900(%rbp),%rax
    df69:	48 89 85 70 ed ff ff 	mov    %rax,-0x1290(%rbp)
    df70:	48 8d 85 00 e7 ff ff 	lea    -0x1900(%rbp),%rax
    df77:	48 89 85 78 ed ff ff 	mov    %rax,-0x1288(%rbp)
    df7e:	48 8d 85 00 e7 ff ff 	lea    -0x1900(%rbp),%rax
    df85:	48 89 85 80 ed ff ff 	mov    %rax,-0x1280(%rbp)
    df8c:	48 8d 85 00 e7 ff ff 	lea    -0x1900(%rbp),%rax
    df93:	48 89 85 88 ed ff ff 	mov    %rax,-0x1278(%rbp)
    df9a:	48 8d 85 00 e7 ff ff 	lea    -0x1900(%rbp),%rax
    dfa1:	48 89 85 90 ed ff ff 	mov    %rax,-0x1270(%rbp)
    dfa8:	48 8d 85 00 e7 ff ff 	lea    -0x1900(%rbp),%rax
    dfaf:	48 89 85 98 ed ff ff 	mov    %rax,-0x1268(%rbp)
    dfb6:	48 8d 85 00 e7 ff ff 	lea    -0x1900(%rbp),%rax
    dfbd:	48 89 85 a0 ed ff ff 	mov    %rax,-0x1260(%rbp)
    dfc4:	48 8d 85 00 e7 ff ff 	lea    -0x1900(%rbp),%rax
    dfcb:	48 89 85 a8 ed ff ff 	mov    %rax,-0x1258(%rbp)
    dfd2:	48 8d 85 00 e7 ff ff 	lea    -0x1900(%rbp),%rax
    dfd9:	48 89 85 b0 ed ff ff 	mov    %rax,-0x1250(%rbp)
    dfe0:	48 8d 85 00 e7 ff ff 	lea    -0x1900(%rbp),%rax
    dfe7:	48 89 85 b8 ed ff ff 	mov    %rax,-0x1248(%rbp)
    dfee:	48 8d 85 00 e7 ff ff 	lea    -0x1900(%rbp),%rax
    dff5:	48 89 85 c0 ed ff ff 	mov    %rax,-0x1240(%rbp)
    dffc:	48 8d 85 00 e7 ff ff 	lea    -0x1900(%rbp),%rax
    e003:	48 89 85 c8 ed ff ff 	mov    %rax,-0x1238(%rbp)
    e00a:	48 8d 85 00 e7 ff ff 	lea    -0x1900(%rbp),%rax
    e011:	48 89 85 d0 ed ff ff 	mov    %rax,-0x1230(%rbp)
    e018:	48 8d 85 00 e7 ff ff 	lea    -0x1900(%rbp),%rax
    e01f:	48 89 85 d8 ed ff ff 	mov    %rax,-0x1228(%rbp)
    e026:	48 8d 85 00 e7 ff ff 	lea    -0x1900(%rbp),%rax
    e02d:	48 89 85 e0 ed ff ff 	mov    %rax,-0x1220(%rbp)
    e034:	48 8d 85 00 e7 ff ff 	lea    -0x1900(%rbp),%rax
    e03b:	48 89 85 e8 ed ff ff 	mov    %rax,-0x1218(%rbp)
    e042:	48 8d 85 00 e7 ff ff 	lea    -0x1900(%rbp),%rax
    e049:	48 89 85 f0 ed ff ff 	mov    %rax,-0x1210(%rbp)
    e050:	48 8d 85 00 e7 ff ff 	lea    -0x1900(%rbp),%rax
    e057:	48 89 85 f8 ed ff ff 	mov    %rax,-0x1208(%rbp)
    e05e:	48 8d 85 00 e7 ff ff 	lea    -0x1900(%rbp),%rax
    e065:	48 89 85 00 ee ff ff 	mov    %rax,-0x1200(%rbp)
    e06c:	48 8d 85 00 e7 ff ff 	lea    -0x1900(%rbp),%rax
    e073:	48 89 85 08 ee ff ff 	mov    %rax,-0x11f8(%rbp)
    e07a:	48 8d 85 00 e7 ff ff 	lea    -0x1900(%rbp),%rax
    e081:	48 89 85 10 ee ff ff 	mov    %rax,-0x11f0(%rbp)
    e088:	48 8d 85 00 e7 ff ff 	lea    -0x1900(%rbp),%rax
    e08f:	48 89 85 18 ee ff ff 	mov    %rax,-0x11e8(%rbp)
    e096:	48 8d 85 00 e7 ff ff 	lea    -0x1900(%rbp),%rax
    e09d:	48 89 85 20 ee ff ff 	mov    %rax,-0x11e0(%rbp)
    e0a4:	48 8d 85 00 e7 ff ff 	lea    -0x1900(%rbp),%rax
    e0ab:	48 89 85 28 ee ff ff 	mov    %rax,-0x11d8(%rbp)
    e0b2:	48 8d 85 00 e7 ff ff 	lea    -0x1900(%rbp),%rax
    e0b9:	48 89 85 30 ee ff ff 	mov    %rax,-0x11d0(%rbp)
    e0c0:	48 8d 85 00 e7 ff ff 	lea    -0x1900(%rbp),%rax
    e0c7:	48 89 85 38 ee ff ff 	mov    %rax,-0x11c8(%rbp)
    e0ce:	48 8d 85 00 e7 ff ff 	lea    -0x1900(%rbp),%rax
    e0d5:	48 89 85 40 ee ff ff 	mov    %rax,-0x11c0(%rbp)
    e0dc:	48 8d 85 00 e7 ff ff 	lea    -0x1900(%rbp),%rax
    e0e3:	48 89 85 48 ee ff ff 	mov    %rax,-0x11b8(%rbp)
    e0ea:	48 8d 85 00 e7 ff ff 	lea    -0x1900(%rbp),%rax
    e0f1:	48 89 85 50 ee ff ff 	mov    %rax,-0x11b0(%rbp)
    e0f8:	48 8d 85 00 e7 ff ff 	lea    -0x1900(%rbp),%rax
    e0ff:	48 89 85 58 ee ff ff 	mov    %rax,-0x11a8(%rbp)
    e106:	48 8d 85 00 e7 ff ff 	lea    -0x1900(%rbp),%rax
    e10d:	48 89 85 60 ee ff ff 	mov    %rax,-0x11a0(%rbp)
    e114:	48 8d 85 00 e7 ff ff 	lea    -0x1900(%rbp),%rax
    e11b:	48 89 85 68 ee ff ff 	mov    %rax,-0x1198(%rbp)
    e122:	48 8d 85 00 e7 ff ff 	lea    -0x1900(%rbp),%rax
    e129:	48 89 85 70 ee ff ff 	mov    %rax,-0x1190(%rbp)
    e130:	48 8d 85 00 e7 ff ff 	lea    -0x1900(%rbp),%rax
    e137:	48 89 85 78 ee ff ff 	mov    %rax,-0x1188(%rbp)
    e13e:	48 8d 85 00 e7 ff ff 	lea    -0x1900(%rbp),%rax
    e145:	48 89 85 80 ee ff ff 	mov    %rax,-0x1180(%rbp)
    e14c:	48 8d 85 00 e7 ff ff 	lea    -0x1900(%rbp),%rax
    e153:	48 89 85 88 ee ff ff 	mov    %rax,-0x1178(%rbp)
    e15a:	48 8d 85 00 e7 ff ff 	lea    -0x1900(%rbp),%rax
    e161:	48 89 85 90 ee ff ff 	mov    %rax,-0x1170(%rbp)
    e168:	48 8d 85 00 e7 ff ff 	lea    -0x1900(%rbp),%rax
    e16f:	48 89 85 98 ee ff ff 	mov    %rax,-0x1168(%rbp)
    e176:	48 8d 85 00 e7 ff ff 	lea    -0x1900(%rbp),%rax
    e17d:	48 89 85 a0 ee ff ff 	mov    %rax,-0x1160(%rbp)
    e184:	48 8d 85 00 e7 ff ff 	lea    -0x1900(%rbp),%rax
    e18b:	48 89 85 a8 ee ff ff 	mov    %rax,-0x1158(%rbp)
    e192:	48 8d 85 00 e7 ff ff 	lea    -0x1900(%rbp),%rax
    e199:	48 89 85 b0 ee ff ff 	mov    %rax,-0x1150(%rbp)
    e1a0:	48 8d 85 00 e7 ff ff 	lea    -0x1900(%rbp),%rax
    e1a7:	48 89 85 b8 ee ff ff 	mov    %rax,-0x1148(%rbp)
    e1ae:	48 8d 85 00 e7 ff ff 	lea    -0x1900(%rbp),%rax
    e1b5:	48 89 85 c0 ee ff ff 	mov    %rax,-0x1140(%rbp)
    e1bc:	48 8d 85 00 e7 ff ff 	lea    -0x1900(%rbp),%rax
    e1c3:	48 89 85 c8 ee ff ff 	mov    %rax,-0x1138(%rbp)
    e1ca:	48 8d 85 00 e7 ff ff 	lea    -0x1900(%rbp),%rax
    e1d1:	48 89 85 d0 ee ff ff 	mov    %rax,-0x1130(%rbp)
    e1d8:	48 8d 85 00 e7 ff ff 	lea    -0x1900(%rbp),%rax
    e1df:	48 89 85 d8 ee ff ff 	mov    %rax,-0x1128(%rbp)
    e1e6:	48 8d 85 00 e7 ff ff 	lea    -0x1900(%rbp),%rax
    e1ed:	48 89 85 e0 ee ff ff 	mov    %rax,-0x1120(%rbp)
    e1f4:	48 8d 85 00 e7 ff ff 	lea    -0x1900(%rbp),%rax
    e1fb:	48 89 85 e8 ee ff ff 	mov    %rax,-0x1118(%rbp)
    e202:	48 8d 85 00 e7 ff ff 	lea    -0x1900(%rbp),%rax
    e209:	48 89 85 f0 ee ff ff 	mov    %rax,-0x1110(%rbp)
    e210:	48 8d 85 00 e7 ff ff 	lea    -0x1900(%rbp),%rax
    e217:	48 89 85 f8 ee ff ff 	mov    %rax,-0x1108(%rbp)
    e21e:	48 8d 85 00 e7 ff ff 	lea    -0x1900(%rbp),%rax
    e225:	48 89 85 00 ef ff ff 	mov    %rax,-0x1100(%rbp)
    e22c:	48 8d 85 00 e7 ff ff 	lea    -0x1900(%rbp),%rax
    e233:	48 89 85 08 ef ff ff 	mov    %rax,-0x10f8(%rbp)
    e23a:	48 8d 85 00 e7 ff ff 	lea    -0x1900(%rbp),%rax
    e241:	48 89 85 10 ef ff ff 	mov    %rax,-0x10f0(%rbp)
    e248:	48 8d 85 00 e7 ff ff 	lea    -0x1900(%rbp),%rax
    e24f:	48 89 85 18 ef ff ff 	mov    %rax,-0x10e8(%rbp)
    e256:	48 8d 85 00 e7 ff ff 	lea    -0x1900(%rbp),%rax
    e25d:	48 89 85 20 ef ff ff 	mov    %rax,-0x10e0(%rbp)
    e264:	48 8d 85 00 e7 ff ff 	lea    -0x1900(%rbp),%rax
    e26b:	48 89 85 28 ef ff ff 	mov    %rax,-0x10d8(%rbp)
    e272:	48 8d 85 00 e7 ff ff 	lea    -0x1900(%rbp),%rax
    e279:	48 89 85 30 ef ff ff 	mov    %rax,-0x10d0(%rbp)
    e280:	48 8d 85 00 e7 ff ff 	lea    -0x1900(%rbp),%rax
    e287:	48 89 85 38 ef ff ff 	mov    %rax,-0x10c8(%rbp)
    e28e:	48 8d 85 00 e7 ff ff 	lea    -0x1900(%rbp),%rax
    e295:	48 89 85 40 ef ff ff 	mov    %rax,-0x10c0(%rbp)
    e29c:	48 8d 85 00 e7 ff ff 	lea    -0x1900(%rbp),%rax
    e2a3:	48 89 85 48 ef ff ff 	mov    %rax,-0x10b8(%rbp)
    e2aa:	48 8d 85 00 e7 ff ff 	lea    -0x1900(%rbp),%rax
    e2b1:	48 89 85 50 ef ff ff 	mov    %rax,-0x10b0(%rbp)
    e2b8:	48 8d 85 00 e7 ff ff 	lea    -0x1900(%rbp),%rax
    e2bf:	48 89 85 58 ef ff ff 	mov    %rax,-0x10a8(%rbp)
    e2c6:	48 8d 85 00 e7 ff ff 	lea    -0x1900(%rbp),%rax
    e2cd:	48 89 85 60 ef ff ff 	mov    %rax,-0x10a0(%rbp)
    e2d4:	48 8d 85 00 e7 ff ff 	lea    -0x1900(%rbp),%rax
    e2db:	48 89 85 68 ef ff ff 	mov    %rax,-0x1098(%rbp)
    e2e2:	48 8d 85 00 e7 ff ff 	lea    -0x1900(%rbp),%rax
    e2e9:	48 89 85 70 ef ff ff 	mov    %rax,-0x1090(%rbp)
    e2f0:	48 8d 85 00 e7 ff ff 	lea    -0x1900(%rbp),%rax
    e2f7:	48 89 85 78 ef ff ff 	mov    %rax,-0x1088(%rbp)
    e2fe:	48 8d 85 00 e7 ff ff 	lea    -0x1900(%rbp),%rax
    e305:	48 89 85 80 ef ff ff 	mov    %rax,-0x1080(%rbp)
    e30c:	48 8d 85 00 e7 ff ff 	lea    -0x1900(%rbp),%rax
    e313:	48 89 85 88 ef ff ff 	mov    %rax,-0x1078(%rbp)
    e31a:	48 8d 85 00 e7 ff ff 	lea    -0x1900(%rbp),%rax
    e321:	48 89 85 90 ef ff ff 	mov    %rax,-0x1070(%rbp)
    e328:	48 8d 85 00 e7 ff ff 	lea    -0x1900(%rbp),%rax
    e32f:	48 89 85 98 ef ff ff 	mov    %rax,-0x1068(%rbp)
    e336:	48 8d 85 00 e7 ff ff 	lea    -0x1900(%rbp),%rax
    e33d:	48 89 85 a0 ef ff ff 	mov    %rax,-0x1060(%rbp)
    e344:	48 8d 85 00 e7 ff ff 	lea    -0x1900(%rbp),%rax
    e34b:	48 89 85 a8 ef ff ff 	mov    %rax,-0x1058(%rbp)
    e352:	48 8d 85 00 e7 ff ff 	lea    -0x1900(%rbp),%rax
    e359:	48 89 85 b0 ef ff ff 	mov    %rax,-0x1050(%rbp)
    e360:	48 8d 85 00 e7 ff ff 	lea    -0x1900(%rbp),%rax
    e367:	48 89 85 b8 ef ff ff 	mov    %rax,-0x1048(%rbp)
    e36e:	48 8d 85 00 e7 ff ff 	lea    -0x1900(%rbp),%rax
    e375:	48 89 85 c0 ef ff ff 	mov    %rax,-0x1040(%rbp)
    e37c:	48 8d 85 00 e7 ff ff 	lea    -0x1900(%rbp),%rax
    e383:	48 89 85 c8 ef ff ff 	mov    %rax,-0x1038(%rbp)
    e38a:	48 8d 85 00 e7 ff ff 	lea    -0x1900(%rbp),%rax
    e391:	48 89 85 d0 ef ff ff 	mov    %rax,-0x1030(%rbp)
    e398:	48 8d 85 00 e7 ff ff 	lea    -0x1900(%rbp),%rax
    e39f:	48 89 85 d8 ef ff ff 	mov    %rax,-0x1028(%rbp)
    e3a6:	48 8d 85 00 e7 ff ff 	lea    -0x1900(%rbp),%rax
    e3ad:	48 89 85 e0 ef ff ff 	mov    %rax,-0x1020(%rbp)
    e3b4:	48 8d 85 00 e7 ff ff 	lea    -0x1900(%rbp),%rax
    e3bb:	48 89 85 e8 ef ff ff 	mov    %rax,-0x1018(%rbp)
    e3c2:	48 8d 85 00 e7 ff ff 	lea    -0x1900(%rbp),%rax
    e3c9:	48 89 85 f0 ef ff ff 	mov    %rax,-0x1010(%rbp)
    e3d0:	48 8d 85 00 e7 ff ff 	lea    -0x1900(%rbp),%rax
    e3d7:	48 89 85 f8 ef ff ff 	mov    %rax,-0x1008(%rbp)
    e3de:	48 8d 85 00 e7 ff ff 	lea    -0x1900(%rbp),%rax
    e3e5:	48 89 85 00 f0 ff ff 	mov    %rax,-0x1000(%rbp)
    e3ec:	48 8d 85 00 e7 ff ff 	lea    -0x1900(%rbp),%rax
    e3f3:	48 89 85 08 f0 ff ff 	mov    %rax,-0xff8(%rbp)
    e3fa:	48 8d 85 00 e7 ff ff 	lea    -0x1900(%rbp),%rax
    e401:	48 89 85 10 f0 ff ff 	mov    %rax,-0xff0(%rbp)
    e408:	48 8d 85 00 e7 ff ff 	lea    -0x1900(%rbp),%rax
    e40f:	48 89 85 18 f0 ff ff 	mov    %rax,-0xfe8(%rbp)
    e416:	48 8d 85 00 e7 ff ff 	lea    -0x1900(%rbp),%rax
    e41d:	48 89 85 20 f0 ff ff 	mov    %rax,-0xfe0(%rbp)
    e424:	48 8d 85 00 e7 ff ff 	lea    -0x1900(%rbp),%rax
    e42b:	48 89 85 28 f0 ff ff 	mov    %rax,-0xfd8(%rbp)
    e432:	48 8d 85 00 e7 ff ff 	lea    -0x1900(%rbp),%rax
    e439:	48 89 85 30 f0 ff ff 	mov    %rax,-0xfd0(%rbp)
    e440:	48 8d 85 00 e7 ff ff 	lea    -0x1900(%rbp),%rax
    e447:	48 89 85 38 f0 ff ff 	mov    %rax,-0xfc8(%rbp)
    e44e:	48 8d 85 00 e7 ff ff 	lea    -0x1900(%rbp),%rax
    e455:	48 89 85 40 f0 ff ff 	mov    %rax,-0xfc0(%rbp)
    e45c:	48 8d 85 00 e7 ff ff 	lea    -0x1900(%rbp),%rax
    e463:	48 89 85 48 f0 ff ff 	mov    %rax,-0xfb8(%rbp)
    e46a:	48 8d 85 00 e7 ff ff 	lea    -0x1900(%rbp),%rax
    e471:	48 89 85 50 f0 ff ff 	mov    %rax,-0xfb0(%rbp)
    e478:	48 8d 85 00 e7 ff ff 	lea    -0x1900(%rbp),%rax
    e47f:	48 89 85 58 f0 ff ff 	mov    %rax,-0xfa8(%rbp)
    e486:	48 8d 85 00 e7 ff ff 	lea    -0x1900(%rbp),%rax
    e48d:	48 89 85 60 f0 ff ff 	mov    %rax,-0xfa0(%rbp)
    e494:	48 8d 85 00 e7 ff ff 	lea    -0x1900(%rbp),%rax
    e49b:	48 89 85 68 f0 ff ff 	mov    %rax,-0xf98(%rbp)
    e4a2:	48 8d 85 00 e7 ff ff 	lea    -0x1900(%rbp),%rax
    e4a9:	48 89 85 70 f0 ff ff 	mov    %rax,-0xf90(%rbp)
    e4b0:	48 8d 85 00 e7 ff ff 	lea    -0x1900(%rbp),%rax
    e4b7:	48 89 85 78 f0 ff ff 	mov    %rax,-0xf88(%rbp)
    e4be:	48 8d 85 00 e7 ff ff 	lea    -0x1900(%rbp),%rax
    e4c5:	48 89 85 80 f0 ff ff 	mov    %rax,-0xf80(%rbp)
    e4cc:	48 8d 85 00 e7 ff ff 	lea    -0x1900(%rbp),%rax
    e4d3:	48 89 85 88 f0 ff ff 	mov    %rax,-0xf78(%rbp)
    e4da:	48 8d 85 00 e7 ff ff 	lea    -0x1900(%rbp),%rax
    e4e1:	48 89 85 90 f0 ff ff 	mov    %rax,-0xf70(%rbp)
    e4e8:	48 8d 85 00 e7 ff ff 	lea    -0x1900(%rbp),%rax
    e4ef:	48 89 85 98 f0 ff ff 	mov    %rax,-0xf68(%rbp)
    e4f6:	48 8d 85 00 e7 ff ff 	lea    -0x1900(%rbp),%rax
    e4fd:	48 89 85 a0 f0 ff ff 	mov    %rax,-0xf60(%rbp)
    e504:	48 8d 85 00 e7 ff ff 	lea    -0x1900(%rbp),%rax
    e50b:	48 89 85 a8 f0 ff ff 	mov    %rax,-0xf58(%rbp)
    e512:	48 8d 85 00 e7 ff ff 	lea    -0x1900(%rbp),%rax
    e519:	48 89 85 b0 f0 ff ff 	mov    %rax,-0xf50(%rbp)
    e520:	48 8d 85 00 e7 ff ff 	lea    -0x1900(%rbp),%rax
    e527:	48 89 85 b8 f0 ff ff 	mov    %rax,-0xf48(%rbp)
    e52e:	48 8d 85 00 e7 ff ff 	lea    -0x1900(%rbp),%rax
    e535:	48 89 85 c0 f0 ff ff 	mov    %rax,-0xf40(%rbp)
    e53c:	48 8d 85 00 e7 ff ff 	lea    -0x1900(%rbp),%rax
    e543:	48 89 85 c8 f0 ff ff 	mov    %rax,-0xf38(%rbp)
    e54a:	c6 85 31 e6 ff ff 01 	movb   $0x1,-0x19cf(%rbp)
    e551:	48 c7 85 80 e7 ff ff 	movq   $0x0,-0x1880(%rbp)
    e558:	00 00 00 00 
    e55c:	48 8d 05 35 f2 00 00 	lea    0xf235(%rip),%rax        # 1d798 <g_1154>
    e563:	48 89 85 d0 ea ff ff 	mov    %rax,-0x1530(%rbp)
    e56a:	48 8d 05 27 f2 00 00 	lea    0xf227(%rip),%rax        # 1d798 <g_1154>
    e571:	48 89 85 d8 ea ff ff 	mov    %rax,-0x1528(%rbp)
    e578:	48 8d 05 19 f2 00 00 	lea    0xf219(%rip),%rax        # 1d798 <g_1154>
    e57f:	48 89 85 e0 ea ff ff 	mov    %rax,-0x1520(%rbp)
    e586:	48 8d 05 0b f2 00 00 	lea    0xf20b(%rip),%rax        # 1d798 <g_1154>
    e58d:	48 89 85 e8 ea ff ff 	mov    %rax,-0x1518(%rbp)
    e594:	48 8d 05 fd f1 00 00 	lea    0xf1fd(%rip),%rax        # 1d798 <g_1154>
    e59b:	48 89 85 f0 ea ff ff 	mov    %rax,-0x1510(%rbp)
    e5a2:	48 8d 05 ef f1 00 00 	lea    0xf1ef(%rip),%rax        # 1d798 <g_1154>
    e5a9:	48 89 85 f8 ea ff ff 	mov    %rax,-0x1508(%rbp)
    e5b0:	48 8d 05 e1 f1 00 00 	lea    0xf1e1(%rip),%rax        # 1d798 <g_1154>
    e5b7:	48 89 85 00 eb ff ff 	mov    %rax,-0x1500(%rbp)
    e5be:	48 8d 05 d3 f1 00 00 	lea    0xf1d3(%rip),%rax        # 1d798 <g_1154>
    e5c5:	48 89 85 08 eb ff ff 	mov    %rax,-0x14f8(%rbp)
    e5cc:	48 8d 05 c5 f1 00 00 	lea    0xf1c5(%rip),%rax        # 1d798 <g_1154>
    e5d3:	48 89 85 10 eb ff ff 	mov    %rax,-0x14f0(%rbp)
    e5da:	48 8d 05 b7 f1 00 00 	lea    0xf1b7(%rip),%rax        # 1d798 <g_1154>
    e5e1:	48 89 85 18 eb ff ff 	mov    %rax,-0x14e8(%rbp)
    e5e8:	48 8d 85 d0 ea ff ff 	lea    -0x1530(%rbp),%rax
    e5ef:	48 83 c0 40          	add    $0x40,%rax
    e5f3:	48 89 85 d0 e9 ff ff 	mov    %rax,-0x1630(%rbp)
    e5fa:	48 8d 85 d0 ea ff ff 	lea    -0x1530(%rbp),%rax
    e601:	48 83 c0 40          	add    $0x40,%rax
    e605:	48 89 85 d8 e9 ff ff 	mov    %rax,-0x1628(%rbp)
    e60c:	48 8d 85 d0 ea ff ff 	lea    -0x1530(%rbp),%rax
    e613:	48 83 c0 40          	add    $0x40,%rax
    e617:	48 89 85 e0 e9 ff ff 	mov    %rax,-0x1620(%rbp)
    e61e:	48 8d 85 d0 ea ff ff 	lea    -0x1530(%rbp),%rax
    e625:	48 83 c0 40          	add    $0x40,%rax
    e629:	48 89 85 e8 e9 ff ff 	mov    %rax,-0x1618(%rbp)
    e630:	48 8d 85 d0 ea ff ff 	lea    -0x1530(%rbp),%rax
    e637:	48 83 c0 40          	add    $0x40,%rax
    e63b:	48 89 85 f0 e9 ff ff 	mov    %rax,-0x1610(%rbp)
    e642:	48 8d 85 e0 f7 ff ff 	lea    -0x820(%rbp),%rax
    e649:	48 8d 15 30 a2 00 00 	lea    0xa230(%rip),%rdx        # 18880 <g_1645+0x800>
    e650:	b9 fc 00 00 00       	mov    $0xfc,%ecx
    e655:	48 89 c7             	mov    %rax,%rdi
    e658:	48 89 d6             	mov    %rdx,%rsi
    e65b:	f3 48 a5             	rep movsq %ds:(%rsi),%es:(%rdi)
    e65e:	c7 05 d4 eb 00 00 00 	movl   $0x0,0xebd4(%rip)        # 1d23c <g_215>
    e665:	00 00 00 
    e668:	90                   	nop
    e669:	8b 05 cd eb 00 00    	mov    0xebcd(%rip),%eax        # 1d23c <g_215>
    e66f:	83 f8 f0             	cmp    $0xfffffff0,%eax
    e672:	75 0f                	jne    e683 <func_22+0x2cd5>
    e674:	48 8b 05 45 09 01 00 	mov    0x10945(%rip),%rax        # 1efc0 <g_793>
    e67b:	48 8b 00             	mov    (%rax),%rax
    e67e:	e9 9a 2b 00 00       	jmpq   1121d <func_22+0x586f>
    e683:	66 c7 05 c4 eb 00 00 	movw   $0x0,0xebc4(%rip)        # 1d250 <g_264>
    e68a:	00 00 
    e68c:	e9 c4 29 00 00       	jmpq   11055 <func_22+0x56a7>
    e691:	48 c7 85 a0 e7 ff ff 	movq   $0x0,-0x1860(%rbp)
    e698:	00 00 00 00 
    e69c:	c7 85 84 e6 ff ff ff 	movl   $0xffffffff,-0x197c(%rbp)
    e6a3:	ff ff ff 
    e6a6:	c7 85 88 e6 ff ff 01 	movl   $0x1,-0x1978(%rbp)
    e6ad:	00 00 00 
    e6b0:	66 c7 85 38 e6 ff ff 	movw   $0x1,-0x19c8(%rbp)
    e6b7:	01 00 
    e6b9:	66 c7 85 40 e9 ff ff 	movw   $0xa7a7,-0x16c0(%rbp)
    e6c0:	a7 a7 
    e6c2:	66 c7 85 42 e9 ff ff 	movw   $0xa7a7,-0x16be(%rbp)
    e6c9:	a7 a7 
    e6cb:	66 c7 85 44 e9 ff ff 	movw   $0xa7a7,-0x16bc(%rbp)
    e6d2:	a7 a7 
    e6d4:	66 c7 85 46 e9 ff ff 	movw   $0xa7a7,-0x16ba(%rbp)
    e6db:	a7 a7 
    e6dd:	66 c7 85 48 e9 ff ff 	movw   $0xa7a7,-0x16b8(%rbp)
    e6e4:	a7 a7 
    e6e6:	66 c7 85 4a e9 ff ff 	movw   $0xa7a7,-0x16b6(%rbp)
    e6ed:	a7 a7 
    e6ef:	66 c7 85 4c e9 ff ff 	movw   $0xa7a7,-0x16b4(%rbp)
    e6f6:	a7 a7 
    e6f8:	66 c7 85 4e e9 ff ff 	movw   $0xa7a7,-0x16b2(%rbp)
    e6ff:	a7 a7 
    e701:	48 8d 05 d8 ea 00 00 	lea    0xead8(%rip),%rax        # 1d1e0 <g_65>
    e708:	48 89 85 08 e7 ff ff 	mov    %rax,-0x18f8(%rbp)
    e70f:	c7 85 8c e6 ff ff 4d 	movl   $0xd5399c4d,-0x1974(%rbp)
    e716:	9c 39 d5 
    e719:	48 8d 05 b4 ea 00 00 	lea    0xeab4(%rip),%rax        # 1d1d4 <g_40>
    e720:	48 89 85 10 e7 ff ff 	mov    %rax,-0x18f0(%rbp)
    e727:	c7 85 5c e6 ff ff 00 	movl   $0x0,-0x19a4(%rbp)
    e72e:	00 00 00 
    e731:	eb 1e                	jmp    e751 <func_22+0x2da3>
    e733:	8b 85 5c e6 ff ff    	mov    -0x19a4(%rbp),%eax
    e739:	48 98                	cltq   
    e73b:	48 8d 15 26 14 01 00 	lea    0x11426(%rip),%rdx        # 1fb68 <g_387>
    e742:	48 89 94 c5 20 eb ff 	mov    %rdx,-0x14e0(%rbp,%rax,8)
    e749:	ff 
    e74a:	83 85 5c e6 ff ff 01 	addl   $0x1,-0x19a4(%rbp)
    e751:	83 bd 5c e6 ff ff 09 	cmpl   $0x9,-0x19a4(%rbp)
    e758:	7e d9                	jle    e733 <func_22+0x2d85>
    e75a:	c7 85 5c e6 ff ff 00 	movl   $0x0,-0x19a4(%rbp)
    e761:	00 00 00 
    e764:	eb 1b                	jmp    e781 <func_22+0x2dd3>
    e766:	8b 85 5c e6 ff ff    	mov    -0x19a4(%rbp),%eax
    e76c:	48 98                	cltq   
    e76e:	48 c7 84 c5 80 e9 ff 	movq   $0x0,-0x1680(%rbp,%rax,8)
    e775:	ff 00 00 00 00 
    e77a:	83 85 5c e6 ff ff 01 	addl   $0x1,-0x19a4(%rbp)
    e781:	83 bd 5c e6 ff ff 03 	cmpl   $0x3,-0x19a4(%rbp)
    e788:	7e dc                	jle    e766 <func_22+0x2db8>
    e78a:	c7 05 ec ea 00 00 01 	movl   $0x1,0xeaec(%rip)        # 1d280 <g_617>
    e791:	00 00 00 
    e794:	90                   	nop
    e795:	8b 05 e5 ea 00 00    	mov    0xeae5(%rip),%eax        # 1d280 <g_617>
    e79b:	85 c0                	test   %eax,%eax
    e79d:	0f 88 ce 21 00 00    	js     10971 <func_22+0x4fc3>
    e7a3:	48 8d 05 b6 13 01 00 	lea    0x113b6(%rip),%rax        # 1fb60 <g_291>
    e7aa:	48 89 85 d0 e7 ff ff 	mov    %rax,-0x1830(%rbp)
    e7b1:	48 8d 05 9e ea 00 00 	lea    0xea9e(%rip),%rax        # 1d256 <g_452>
    e7b8:	48 89 85 18 e7 ff ff 	mov    %rax,-0x18e8(%rbp)
    e7bf:	48 8d 05 02 ea 00 00 	lea    0xea02(%rip),%rax        # 1d1c8 <g_21>
    e7c6:	48 89 85 d8 e7 ff ff 	mov    %rax,-0x1828(%rbp)
    e7cd:	c7 85 94 e6 ff ff 8c 	movl   $0xbf35598c,-0x196c(%rbp)
    e7d4:	59 35 bf 
    e7d7:	c7 85 98 e6 ff ff 01 	movl   $0x1,-0x1968(%rbp)
    e7de:	00 00 00 
    e7e1:	48 8d 05 60 00 01 00 	lea    0x10060(%rip),%rax        # 1e848 <g_39>
    e7e8:	48 89 85 e0 e7 ff ff 	mov    %rax,-0x1820(%rbp)
    e7ef:	c6 85 32 e6 ff ff 95 	movb   $0x95,-0x19ce(%rbp)
    e7f6:	c6 85 33 e6 ff ff 02 	movb   $0x2,-0x19cd(%rbp)
    e7fd:	66 c7 85 3a e6 ff ff 	movw   $0x77f3,-0x19c6(%rbp)
    e804:	f3 77 
    e806:	c7 85 9c e6 ff ff ff 	movl   $0xffffffff,-0x1964(%rbp)
    e80d:	ff ff ff 
    e810:	c7 85 a0 e6 ff ff dc 	movl   $0x9feccadc,-0x1960(%rbp)
    e817:	ca ec 9f 
    e81a:	c7 85 a4 e6 ff ff 01 	movl   $0x1,-0x195c(%rbp)
    e821:	00 00 00 
    e824:	c7 85 a8 e6 ff ff f9 	movl   $0xfffffff9,-0x1958(%rbp)
    e82b:	ff ff ff 
    e82e:	c7 85 00 ea ff ff b4 	movl   $0xb5bc9ab4,-0x1600(%rbp)
    e835:	9a bc b5 
    e838:	c7 85 04 ea ff ff b4 	movl   $0xb5bc9ab4,-0x15fc(%rbp)
    e83f:	9a bc b5 
    e842:	c7 85 08 ea ff ff 85 	movl   $0x8826d185,-0x15f8(%rbp)
    e849:	d1 26 88 
    e84c:	c7 85 0c ea ff ff b4 	movl   $0xb5bc9ab4,-0x15f4(%rbp)
    e853:	9a bc b5 
    e856:	c7 85 10 ea ff ff b4 	movl   $0xb5bc9ab4,-0x15f0(%rbp)
    e85d:	9a bc b5 
    e860:	c7 85 14 ea ff ff 85 	movl   $0x8826d185,-0x15ec(%rbp)
    e867:	d1 26 88 
    e86a:	c7 85 18 ea ff ff b4 	movl   $0xb5bc9ab4,-0x15e8(%rbp)
    e871:	9a bc b5 
    e874:	c7 85 1c ea ff ff b4 	movl   $0xb5bc9ab4,-0x15e4(%rbp)
    e87b:	9a bc b5 
    e87e:	c7 85 20 ea ff ff 85 	movl   $0x8826d185,-0x15e0(%rbp)
    e885:	d1 26 88 
    e888:	c7 85 24 ea ff ff b4 	movl   $0xb5bc9ab4,-0x15dc(%rbp)
    e88f:	9a bc b5 
    e892:	c7 85 60 e6 ff ff 00 	movl   $0x0,-0x19a0(%rbp)
    e899:	00 00 00 
    e89c:	eb 21                	jmp    e8bf <func_22+0x2f11>
    e89e:	8b 85 60 e6 ff ff    	mov    -0x19a0(%rbp),%eax
    e8a4:	48 98                	cltq   
    e8a6:	48 bb 1c 8a c8 e1 98 	movabs $0x946e5c98e1c88a1c,%rbx
    e8ad:	5c 6e 94 
    e8b0:	48 89 9c c5 50 e9 ff 	mov    %rbx,-0x16b0(%rbp,%rax,8)
    e8b7:	ff 
    e8b8:	83 85 60 e6 ff ff 01 	addl   $0x1,-0x19a0(%rbp)
    e8bf:	83 bd 60 e6 ff ff 01 	cmpl   $0x1,-0x19a0(%rbp)
    e8c6:	7e d6                	jle    e89e <func_22+0x2ef0>
    e8c8:	0f b6 85 2c e6 ff ff 	movzbl -0x19d4(%rbp),%eax
    e8cf:	84 c0                	test   %al,%al
    e8d1:	0f 84 31 14 00 00    	je     fd08 <func_22+0x435a>
    e8d7:	48 8d 85 30 ea ff ff 	lea    -0x15d0(%rbp),%rax
    e8de:	48 83 c0 10          	add    $0x10,%rax
    e8e2:	48 89 85 00 e8 ff ff 	mov    %rax,-0x1800(%rbp)
    e8e9:	48 c7 85 08 e8 ff ff 	movq   $0x0,-0x17f8(%rbp)
    e8f0:	00 00 00 00 
    e8f4:	c7 85 f8 e6 ff ff de 	movl   $0xafd9c3de,-0x1908(%rbp)
    e8fb:	c3 d9 af 
    e8fe:	48 8d 05 23 e9 00 00 	lea    0xe923(%rip),%rax        # 1d228 <g_125>
    e905:	48 89 85 10 e8 ff ff 	mov    %rax,-0x17f0(%rbp)
    e90c:	48 8d 85 30 e6 ff ff 	lea    -0x19d0(%rbp),%rax
    e913:	48 89 85 b0 ec ff ff 	mov    %rax,-0x1350(%rbp)
    e91a:	48 8d 05 17 e9 00 00 	lea    0xe917(%rip),%rax        # 1d238 <g_163>
    e921:	48 89 85 b8 ec ff ff 	mov    %rax,-0x1348(%rbp)
    e928:	48 8d 85 30 e6 ff ff 	lea    -0x19d0(%rbp),%rax
    e92f:	48 89 85 c0 ec ff ff 	mov    %rax,-0x1340(%rbp)
    e936:	48 8d 05 15 e9 00 00 	lea    0xe915(%rip),%rax        # 1d252 <g_294>
    e93d:	48 89 85 c8 ec ff ff 	mov    %rax,-0x1338(%rbp)
    e944:	48 8d 85 30 e6 ff ff 	lea    -0x19d0(%rbp),%rax
    e94b:	48 89 85 d0 ec ff ff 	mov    %rax,-0x1330(%rbp)
    e952:	48 8d 05 f9 e8 00 00 	lea    0xe8f9(%rip),%rax        # 1d252 <g_294>
    e959:	48 89 85 d8 ec ff ff 	mov    %rax,-0x1328(%rbp)
    e960:	48 8d 85 30 e6 ff ff 	lea    -0x19d0(%rbp),%rax
    e967:	48 89 85 e0 ec ff ff 	mov    %rax,-0x1320(%rbp)
    e96e:	48 8d 05 c3 e8 00 00 	lea    0xe8c3(%rip),%rax        # 1d238 <g_163>
    e975:	48 89 85 e8 ec ff ff 	mov    %rax,-0x1318(%rbp)
    e97c:	48 8d 85 30 e6 ff ff 	lea    -0x19d0(%rbp),%rax
    e983:	48 89 85 f0 ec ff ff 	mov    %rax,-0x1310(%rbp)
    e98a:	48 8d 05 c1 e8 00 00 	lea    0xe8c1(%rip),%rax        # 1d252 <g_294>
    e991:	48 89 85 f8 ec ff ff 	mov    %rax,-0x1308(%rbp)
    e998:	48 8d 85 30 e6 ff ff 	lea    -0x19d0(%rbp),%rax
    e99f:	48 89 85 00 ed ff ff 	mov    %rax,-0x1300(%rbp)
    e9a6:	48 8d 05 a5 e8 00 00 	lea    0xe8a5(%rip),%rax        # 1d252 <g_294>
    e9ad:	48 89 85 08 ed ff ff 	mov    %rax,-0x12f8(%rbp)
    e9b4:	48 8d 85 30 e6 ff ff 	lea    -0x19d0(%rbp),%rax
    e9bb:	48 89 85 10 ed ff ff 	mov    %rax,-0x12f0(%rbp)
    e9c2:	48 8d 05 6f e8 00 00 	lea    0xe86f(%rip),%rax        # 1d238 <g_163>
    e9c9:	48 89 85 18 ed ff ff 	mov    %rax,-0x12e8(%rbp)
    e9d0:	48 8d 85 30 e6 ff ff 	lea    -0x19d0(%rbp),%rax
    e9d7:	48 89 85 20 ed ff ff 	mov    %rax,-0x12e0(%rbp)
    e9de:	48 8d 05 6d e8 00 00 	lea    0xe86d(%rip),%rax        # 1d252 <g_294>
    e9e5:	48 89 85 28 ed ff ff 	mov    %rax,-0x12d8(%rbp)
    e9ec:	48 8d 85 30 e6 ff ff 	lea    -0x19d0(%rbp),%rax
    e9f3:	48 89 85 30 ed ff ff 	mov    %rax,-0x12d0(%rbp)
    e9fa:	48 8d 05 51 e8 00 00 	lea    0xe851(%rip),%rax        # 1d252 <g_294>
    ea01:	48 89 85 38 ed ff ff 	mov    %rax,-0x12c8(%rbp)
    ea08:	48 8d 85 30 e6 ff ff 	lea    -0x19d0(%rbp),%rax
    ea0f:	48 89 85 40 ed ff ff 	mov    %rax,-0x12c0(%rbp)
    ea16:	48 8d 05 1b e8 00 00 	lea    0xe81b(%rip),%rax        # 1d238 <g_163>
    ea1d:	48 89 85 48 ed ff ff 	mov    %rax,-0x12b8(%rbp)
    ea24:	48 8d 85 30 e6 ff ff 	lea    -0x19d0(%rbp),%rax
    ea2b:	48 89 85 50 ed ff ff 	mov    %rax,-0x12b0(%rbp)
    ea32:	48 8d 05 19 e8 00 00 	lea    0xe819(%rip),%rax        # 1d252 <g_294>
    ea39:	48 89 85 58 ed ff ff 	mov    %rax,-0x12a8(%rbp)
    ea40:	48 8d 85 30 e6 ff ff 	lea    -0x19d0(%rbp),%rax
    ea47:	48 89 85 60 ed ff ff 	mov    %rax,-0x12a0(%rbp)
    ea4e:	48 8d 05 fd e7 00 00 	lea    0xe7fd(%rip),%rax        # 1d252 <g_294>
    ea55:	48 89 85 68 ed ff ff 	mov    %rax,-0x1298(%rbp)
    ea5c:	48 8d 85 b0 ec ff ff 	lea    -0x1350(%rbp),%rax
    ea63:	48 83 c0 60          	add    $0x60,%rax
    ea67:	48 89 85 20 e7 ff ff 	mov    %rax,-0x18e0(%rbp)
    ea6e:	48 8d 85 20 e7 ff ff 	lea    -0x18e0(%rbp),%rax
    ea75:	48 89 85 28 e7 ff ff 	mov    %rax,-0x18d8(%rbp)
    ea7c:	48 8d 85 28 e7 ff ff 	lea    -0x18d8(%rbp),%rax
    ea83:	48 89 85 d0 f0 ff ff 	mov    %rax,-0xf30(%rbp)
    ea8a:	48 8d 85 28 e7 ff ff 	lea    -0x18d8(%rbp),%rax
    ea91:	48 89 85 d8 f0 ff ff 	mov    %rax,-0xf28(%rbp)
    ea98:	48 8d 85 28 e7 ff ff 	lea    -0x18d8(%rbp),%rax
    ea9f:	48 89 85 e0 f0 ff ff 	mov    %rax,-0xf20(%rbp)
    eaa6:	48 8d 85 28 e7 ff ff 	lea    -0x18d8(%rbp),%rax
    eaad:	48 89 85 e8 f0 ff ff 	mov    %rax,-0xf18(%rbp)
    eab4:	48 8d 85 28 e7 ff ff 	lea    -0x18d8(%rbp),%rax
    eabb:	48 89 85 f0 f0 ff ff 	mov    %rax,-0xf10(%rbp)
    eac2:	48 c7 85 f8 f0 ff ff 	movq   $0x0,-0xf08(%rbp)
    eac9:	00 00 00 00 
    eacd:	48 8d 85 28 e7 ff ff 	lea    -0x18d8(%rbp),%rax
    ead4:	48 89 85 00 f1 ff ff 	mov    %rax,-0xf00(%rbp)
    eadb:	48 c7 85 08 f1 ff ff 	movq   $0x0,-0xef8(%rbp)
    eae2:	00 00 00 00 
    eae6:	48 8d 85 28 e7 ff ff 	lea    -0x18d8(%rbp),%rax
    eaed:	48 89 85 10 f1 ff ff 	mov    %rax,-0xef0(%rbp)
    eaf4:	48 8d 85 28 e7 ff ff 	lea    -0x18d8(%rbp),%rax
    eafb:	48 89 85 18 f1 ff ff 	mov    %rax,-0xee8(%rbp)
    eb02:	48 8d 85 28 e7 ff ff 	lea    -0x18d8(%rbp),%rax
    eb09:	48 89 85 20 f1 ff ff 	mov    %rax,-0xee0(%rbp)
    eb10:	48 c7 85 28 f1 ff ff 	movq   $0x0,-0xed8(%rbp)
    eb17:	00 00 00 00 
    eb1b:	48 c7 85 30 f1 ff ff 	movq   $0x0,-0xed0(%rbp)
    eb22:	00 00 00 00 
    eb26:	48 8d 85 28 e7 ff ff 	lea    -0x18d8(%rbp),%rax
    eb2d:	48 89 85 38 f1 ff ff 	mov    %rax,-0xec8(%rbp)
    eb34:	48 8d 85 28 e7 ff ff 	lea    -0x18d8(%rbp),%rax
    eb3b:	48 89 85 40 f1 ff ff 	mov    %rax,-0xec0(%rbp)
    eb42:	48 c7 85 48 f1 ff ff 	movq   $0x0,-0xeb8(%rbp)
    eb49:	00 00 00 00 
    eb4d:	48 8d 85 28 e7 ff ff 	lea    -0x18d8(%rbp),%rax
    eb54:	48 89 85 50 f1 ff ff 	mov    %rax,-0xeb0(%rbp)
    eb5b:	48 8d 85 28 e7 ff ff 	lea    -0x18d8(%rbp),%rax
    eb62:	48 89 85 58 f1 ff ff 	mov    %rax,-0xea8(%rbp)
    eb69:	48 8d 85 28 e7 ff ff 	lea    -0x18d8(%rbp),%rax
    eb70:	48 89 85 60 f1 ff ff 	mov    %rax,-0xea0(%rbp)
    eb77:	48 c7 85 68 f1 ff ff 	movq   $0x0,-0xe98(%rbp)
    eb7e:	00 00 00 00 
    eb82:	48 8d 85 28 e7 ff ff 	lea    -0x18d8(%rbp),%rax
    eb89:	48 89 85 70 f1 ff ff 	mov    %rax,-0xe90(%rbp)
    eb90:	48 8d 85 28 e7 ff ff 	lea    -0x18d8(%rbp),%rax
    eb97:	48 89 85 78 f1 ff ff 	mov    %rax,-0xe88(%rbp)
    eb9e:	48 8d 85 28 e7 ff ff 	lea    -0x18d8(%rbp),%rax
    eba5:	48 89 85 80 f1 ff ff 	mov    %rax,-0xe80(%rbp)
    ebac:	48 8d 85 28 e7 ff ff 	lea    -0x18d8(%rbp),%rax
    ebb3:	48 89 85 88 f1 ff ff 	mov    %rax,-0xe78(%rbp)
    ebba:	48 8d 85 28 e7 ff ff 	lea    -0x18d8(%rbp),%rax
    ebc1:	48 89 85 90 f1 ff ff 	mov    %rax,-0xe70(%rbp)
    ebc8:	48 8d 85 28 e7 ff ff 	lea    -0x18d8(%rbp),%rax
    ebcf:	48 89 85 98 f1 ff ff 	mov    %rax,-0xe68(%rbp)
    ebd6:	48 8d 85 28 e7 ff ff 	lea    -0x18d8(%rbp),%rax
    ebdd:	48 89 85 a0 f1 ff ff 	mov    %rax,-0xe60(%rbp)
    ebe4:	48 8d 85 28 e7 ff ff 	lea    -0x18d8(%rbp),%rax
    ebeb:	48 89 85 a8 f1 ff ff 	mov    %rax,-0xe58(%rbp)
    ebf2:	48 8d 85 28 e7 ff ff 	lea    -0x18d8(%rbp),%rax
    ebf9:	48 89 85 b0 f1 ff ff 	mov    %rax,-0xe50(%rbp)
    ec00:	48 c7 85 b8 f1 ff ff 	movq   $0x0,-0xe48(%rbp)
    ec07:	00 00 00 00 
    ec0b:	48 8d 85 28 e7 ff ff 	lea    -0x18d8(%rbp),%rax
    ec12:	48 89 85 c0 f1 ff ff 	mov    %rax,-0xe40(%rbp)
    ec19:	48 8d 85 28 e7 ff ff 	lea    -0x18d8(%rbp),%rax
    ec20:	48 89 85 c8 f1 ff ff 	mov    %rax,-0xe38(%rbp)
    ec27:	48 8d 85 28 e7 ff ff 	lea    -0x18d8(%rbp),%rax
    ec2e:	48 89 85 d0 f1 ff ff 	mov    %rax,-0xe30(%rbp)
    ec35:	48 8d 85 28 e7 ff ff 	lea    -0x18d8(%rbp),%rax
    ec3c:	48 89 85 d8 f1 ff ff 	mov    %rax,-0xe28(%rbp)
    ec43:	48 8d 85 28 e7 ff ff 	lea    -0x18d8(%rbp),%rax
    ec4a:	48 89 85 e0 f1 ff ff 	mov    %rax,-0xe20(%rbp)
    ec51:	48 8d 85 28 e7 ff ff 	lea    -0x18d8(%rbp),%rax
    ec58:	48 89 85 e8 f1 ff ff 	mov    %rax,-0xe18(%rbp)
    ec5f:	48 8d 85 28 e7 ff ff 	lea    -0x18d8(%rbp),%rax
    ec66:	48 89 85 f0 f1 ff ff 	mov    %rax,-0xe10(%rbp)
    ec6d:	48 c7 85 f8 f1 ff ff 	movq   $0x0,-0xe08(%rbp)
    ec74:	00 00 00 00 
    ec78:	48 8d 85 28 e7 ff ff 	lea    -0x18d8(%rbp),%rax
    ec7f:	48 89 85 00 f2 ff ff 	mov    %rax,-0xe00(%rbp)
    ec86:	48 c7 85 08 f2 ff ff 	movq   $0x0,-0xdf8(%rbp)
    ec8d:	00 00 00 00 
    ec91:	48 8d 85 28 e7 ff ff 	lea    -0x18d8(%rbp),%rax
    ec98:	48 89 85 10 f2 ff ff 	mov    %rax,-0xdf0(%rbp)
    ec9f:	48 8d 85 28 e7 ff ff 	lea    -0x18d8(%rbp),%rax
    eca6:	48 89 85 18 f2 ff ff 	mov    %rax,-0xde8(%rbp)
    ecad:	48 8d 85 28 e7 ff ff 	lea    -0x18d8(%rbp),%rax
    ecb4:	48 89 85 20 f2 ff ff 	mov    %rax,-0xde0(%rbp)
    ecbb:	48 8d 85 28 e7 ff ff 	lea    -0x18d8(%rbp),%rax
    ecc2:	48 89 85 28 f2 ff ff 	mov    %rax,-0xdd8(%rbp)
    ecc9:	48 8d 85 28 e7 ff ff 	lea    -0x18d8(%rbp),%rax
    ecd0:	48 89 85 30 f2 ff ff 	mov    %rax,-0xdd0(%rbp)
    ecd7:	48 8d 85 28 e7 ff ff 	lea    -0x18d8(%rbp),%rax
    ecde:	48 89 85 38 f2 ff ff 	mov    %rax,-0xdc8(%rbp)
    ece5:	48 8d 85 28 e7 ff ff 	lea    -0x18d8(%rbp),%rax
    ecec:	48 89 85 40 f2 ff ff 	mov    %rax,-0xdc0(%rbp)
    ecf3:	48 8d 85 28 e7 ff ff 	lea    -0x18d8(%rbp),%rax
    ecfa:	48 89 85 48 f2 ff ff 	mov    %rax,-0xdb8(%rbp)
    ed01:	48 8d 85 28 e7 ff ff 	lea    -0x18d8(%rbp),%rax
    ed08:	48 89 85 50 f2 ff ff 	mov    %rax,-0xdb0(%rbp)
    ed0f:	48 8d 85 28 e7 ff ff 	lea    -0x18d8(%rbp),%rax
    ed16:	48 89 85 58 f2 ff ff 	mov    %rax,-0xda8(%rbp)
    ed1d:	48 8d 85 28 e7 ff ff 	lea    -0x18d8(%rbp),%rax
    ed24:	48 89 85 60 f2 ff ff 	mov    %rax,-0xda0(%rbp)
    ed2b:	48 8d 85 28 e7 ff ff 	lea    -0x18d8(%rbp),%rax
    ed32:	48 89 85 68 f2 ff ff 	mov    %rax,-0xd98(%rbp)
    ed39:	48 c7 85 70 f2 ff ff 	movq   $0x0,-0xd90(%rbp)
    ed40:	00 00 00 00 
    ed44:	48 8d 85 28 e7 ff ff 	lea    -0x18d8(%rbp),%rax
    ed4b:	48 89 85 78 f2 ff ff 	mov    %rax,-0xd88(%rbp)
    ed52:	48 8d 85 28 e7 ff ff 	lea    -0x18d8(%rbp),%rax
    ed59:	48 89 85 80 f2 ff ff 	mov    %rax,-0xd80(%rbp)
    ed60:	48 8d 85 28 e7 ff ff 	lea    -0x18d8(%rbp),%rax
    ed67:	48 89 85 88 f2 ff ff 	mov    %rax,-0xd78(%rbp)
    ed6e:	48 c7 85 90 f2 ff ff 	movq   $0x0,-0xd70(%rbp)
    ed75:	00 00 00 00 
    ed79:	48 c7 85 98 f2 ff ff 	movq   $0x0,-0xd68(%rbp)
    ed80:	00 00 00 00 
    ed84:	48 8d 85 28 e7 ff ff 	lea    -0x18d8(%rbp),%rax
    ed8b:	48 89 85 a0 f2 ff ff 	mov    %rax,-0xd60(%rbp)
    ed92:	48 8d 85 28 e7 ff ff 	lea    -0x18d8(%rbp),%rax
    ed99:	48 89 85 a8 f2 ff ff 	mov    %rax,-0xd58(%rbp)
    eda0:	48 8d 85 28 e7 ff ff 	lea    -0x18d8(%rbp),%rax
    eda7:	48 89 85 b0 f2 ff ff 	mov    %rax,-0xd50(%rbp)
    edae:	48 c7 85 b8 f2 ff ff 	movq   $0x0,-0xd48(%rbp)
    edb5:	00 00 00 00 
    edb9:	48 c7 85 c0 f2 ff ff 	movq   $0x0,-0xd40(%rbp)
    edc0:	00 00 00 00 
    edc4:	48 8d 85 28 e7 ff ff 	lea    -0x18d8(%rbp),%rax
    edcb:	48 89 85 c8 f2 ff ff 	mov    %rax,-0xd38(%rbp)
    edd2:	48 c7 85 d0 f2 ff ff 	movq   $0x0,-0xd30(%rbp)
    edd9:	00 00 00 00 
    eddd:	48 8d 85 28 e7 ff ff 	lea    -0x18d8(%rbp),%rax
    ede4:	48 89 85 d8 f2 ff ff 	mov    %rax,-0xd28(%rbp)
    edeb:	48 8d 85 28 e7 ff ff 	lea    -0x18d8(%rbp),%rax
    edf2:	48 89 85 e0 f2 ff ff 	mov    %rax,-0xd20(%rbp)
    edf9:	48 8d 85 28 e7 ff ff 	lea    -0x18d8(%rbp),%rax
    ee00:	48 89 85 e8 f2 ff ff 	mov    %rax,-0xd18(%rbp)
    ee07:	48 8d 85 28 e7 ff ff 	lea    -0x18d8(%rbp),%rax
    ee0e:	48 89 85 f0 f2 ff ff 	mov    %rax,-0xd10(%rbp)
    ee15:	48 c7 85 f8 f2 ff ff 	movq   $0x0,-0xd08(%rbp)
    ee1c:	00 00 00 00 
    ee20:	48 8d 85 28 e7 ff ff 	lea    -0x18d8(%rbp),%rax
    ee27:	48 89 85 00 f3 ff ff 	mov    %rax,-0xd00(%rbp)
    ee2e:	48 8d 85 28 e7 ff ff 	lea    -0x18d8(%rbp),%rax
    ee35:	48 89 85 08 f3 ff ff 	mov    %rax,-0xcf8(%rbp)
    ee3c:	48 8d 85 28 e7 ff ff 	lea    -0x18d8(%rbp),%rax
    ee43:	48 89 85 10 f3 ff ff 	mov    %rax,-0xcf0(%rbp)
    ee4a:	48 8d 85 28 e7 ff ff 	lea    -0x18d8(%rbp),%rax
    ee51:	48 89 85 18 f3 ff ff 	mov    %rax,-0xce8(%rbp)
    ee58:	48 c7 85 20 f3 ff ff 	movq   $0x0,-0xce0(%rbp)
    ee5f:	00 00 00 00 
    ee63:	48 8d 85 28 e7 ff ff 	lea    -0x18d8(%rbp),%rax
    ee6a:	48 89 85 28 f3 ff ff 	mov    %rax,-0xcd8(%rbp)
    ee71:	48 c7 85 30 f3 ff ff 	movq   $0x0,-0xcd0(%rbp)
    ee78:	00 00 00 00 
    ee7c:	48 c7 85 38 f3 ff ff 	movq   $0x0,-0xcc8(%rbp)
    ee83:	00 00 00 00 
    ee87:	48 c7 85 40 f3 ff ff 	movq   $0x0,-0xcc0(%rbp)
    ee8e:	00 00 00 00 
    ee92:	48 8d 85 28 e7 ff ff 	lea    -0x18d8(%rbp),%rax
    ee99:	48 89 85 48 f3 ff ff 	mov    %rax,-0xcb8(%rbp)
    eea0:	48 8d 85 28 e7 ff ff 	lea    -0x18d8(%rbp),%rax
    eea7:	48 89 85 50 f3 ff ff 	mov    %rax,-0xcb0(%rbp)
    eeae:	48 c7 85 58 f3 ff ff 	movq   $0x0,-0xca8(%rbp)
    eeb5:	00 00 00 00 
    eeb9:	48 8d 85 28 e7 ff ff 	lea    -0x18d8(%rbp),%rax
    eec0:	48 89 85 60 f3 ff ff 	mov    %rax,-0xca0(%rbp)
    eec7:	48 8d 85 28 e7 ff ff 	lea    -0x18d8(%rbp),%rax
    eece:	48 89 85 68 f3 ff ff 	mov    %rax,-0xc98(%rbp)
    eed5:	48 8d 85 28 e7 ff ff 	lea    -0x18d8(%rbp),%rax
    eedc:	48 89 85 70 f3 ff ff 	mov    %rax,-0xc90(%rbp)
    eee3:	48 8d 85 28 e7 ff ff 	lea    -0x18d8(%rbp),%rax
    eeea:	48 89 85 78 f3 ff ff 	mov    %rax,-0xc88(%rbp)
    eef1:	48 8d 85 28 e7 ff ff 	lea    -0x18d8(%rbp),%rax
    eef8:	48 89 85 80 f3 ff ff 	mov    %rax,-0xc80(%rbp)
    eeff:	48 8d 85 28 e7 ff ff 	lea    -0x18d8(%rbp),%rax
    ef06:	48 89 85 88 f3 ff ff 	mov    %rax,-0xc78(%rbp)
    ef0d:	48 8d 85 28 e7 ff ff 	lea    -0x18d8(%rbp),%rax
    ef14:	48 89 85 90 f3 ff ff 	mov    %rax,-0xc70(%rbp)
    ef1b:	48 8d 85 28 e7 ff ff 	lea    -0x18d8(%rbp),%rax
    ef22:	48 89 85 98 f3 ff ff 	mov    %rax,-0xc68(%rbp)
    ef29:	48 c7 85 a0 f3 ff ff 	movq   $0x0,-0xc60(%rbp)
    ef30:	00 00 00 00 
    ef34:	48 8d 85 28 e7 ff ff 	lea    -0x18d8(%rbp),%rax
    ef3b:	48 89 85 a8 f3 ff ff 	mov    %rax,-0xc58(%rbp)
    ef42:	48 8d 85 28 e7 ff ff 	lea    -0x18d8(%rbp),%rax
    ef49:	48 89 85 b0 f3 ff ff 	mov    %rax,-0xc50(%rbp)
    ef50:	48 c7 85 b8 f3 ff ff 	movq   $0x0,-0xc48(%rbp)
    ef57:	00 00 00 00 
    ef5b:	48 8d 85 28 e7 ff ff 	lea    -0x18d8(%rbp),%rax
    ef62:	48 89 85 c0 f3 ff ff 	mov    %rax,-0xc40(%rbp)
    ef69:	48 8d 85 28 e7 ff ff 	lea    -0x18d8(%rbp),%rax
    ef70:	48 89 85 c8 f3 ff ff 	mov    %rax,-0xc38(%rbp)
    ef77:	48 8d 85 28 e7 ff ff 	lea    -0x18d8(%rbp),%rax
    ef7e:	48 89 85 d0 f3 ff ff 	mov    %rax,-0xc30(%rbp)
    ef85:	48 8d 85 28 e7 ff ff 	lea    -0x18d8(%rbp),%rax
    ef8c:	48 89 85 d8 f3 ff ff 	mov    %rax,-0xc28(%rbp)
    ef93:	48 8d 85 28 e7 ff ff 	lea    -0x18d8(%rbp),%rax
    ef9a:	48 89 85 e0 f3 ff ff 	mov    %rax,-0xc20(%rbp)
    efa1:	48 8d 85 28 e7 ff ff 	lea    -0x18d8(%rbp),%rax
    efa8:	48 89 85 e8 f3 ff ff 	mov    %rax,-0xc18(%rbp)
    efaf:	48 c7 85 f0 f3 ff ff 	movq   $0x0,-0xc10(%rbp)
    efb6:	00 00 00 00 
    efba:	48 8d 85 28 e7 ff ff 	lea    -0x18d8(%rbp),%rax
    efc1:	48 89 85 f8 f3 ff ff 	mov    %rax,-0xc08(%rbp)
    efc8:	48 8d 85 28 e7 ff ff 	lea    -0x18d8(%rbp),%rax
    efcf:	48 89 85 00 f4 ff ff 	mov    %rax,-0xc00(%rbp)
    efd6:	48 8d 85 28 e7 ff ff 	lea    -0x18d8(%rbp),%rax
    efdd:	48 89 85 08 f4 ff ff 	mov    %rax,-0xbf8(%rbp)
    efe4:	48 c7 85 10 f4 ff ff 	movq   $0x0,-0xbf0(%rbp)
    efeb:	00 00 00 00 
    efef:	48 8d 85 28 e7 ff ff 	lea    -0x18d8(%rbp),%rax
    eff6:	48 89 85 18 f4 ff ff 	mov    %rax,-0xbe8(%rbp)
    effd:	48 8d 85 28 e7 ff ff 	lea    -0x18d8(%rbp),%rax
    f004:	48 89 85 20 f4 ff ff 	mov    %rax,-0xbe0(%rbp)
    f00b:	48 8d 85 28 e7 ff ff 	lea    -0x18d8(%rbp),%rax
    f012:	48 89 85 28 f4 ff ff 	mov    %rax,-0xbd8(%rbp)
    f019:	48 8d 85 28 e7 ff ff 	lea    -0x18d8(%rbp),%rax
    f020:	48 89 85 30 f4 ff ff 	mov    %rax,-0xbd0(%rbp)
    f027:	48 c7 85 38 f4 ff ff 	movq   $0x0,-0xbc8(%rbp)
    f02e:	00 00 00 00 
    f032:	48 8d 85 28 e7 ff ff 	lea    -0x18d8(%rbp),%rax
    f039:	48 89 85 40 f4 ff ff 	mov    %rax,-0xbc0(%rbp)
    f040:	48 8d 85 28 e7 ff ff 	lea    -0x18d8(%rbp),%rax
    f047:	48 89 85 48 f4 ff ff 	mov    %rax,-0xbb8(%rbp)
    f04e:	48 8d 85 28 e7 ff ff 	lea    -0x18d8(%rbp),%rax
    f055:	48 89 85 50 f4 ff ff 	mov    %rax,-0xbb0(%rbp)
    f05c:	48 8d 85 28 e7 ff ff 	lea    -0x18d8(%rbp),%rax
    f063:	48 89 85 58 f4 ff ff 	mov    %rax,-0xba8(%rbp)
    f06a:	48 8d 85 28 e7 ff ff 	lea    -0x18d8(%rbp),%rax
    f071:	48 89 85 60 f4 ff ff 	mov    %rax,-0xba0(%rbp)
    f078:	48 8d 85 28 e7 ff ff 	lea    -0x18d8(%rbp),%rax
    f07f:	48 89 85 68 f4 ff ff 	mov    %rax,-0xb98(%rbp)
    f086:	48 8d 85 28 e7 ff ff 	lea    -0x18d8(%rbp),%rax
    f08d:	48 89 85 70 f4 ff ff 	mov    %rax,-0xb90(%rbp)
    f094:	48 8d 85 28 e7 ff ff 	lea    -0x18d8(%rbp),%rax
    f09b:	48 89 85 78 f4 ff ff 	mov    %rax,-0xb88(%rbp)
    f0a2:	48 8d 85 28 e7 ff ff 	lea    -0x18d8(%rbp),%rax
    f0a9:	48 89 85 80 f4 ff ff 	mov    %rax,-0xb80(%rbp)
    f0b0:	48 8d 85 28 e7 ff ff 	lea    -0x18d8(%rbp),%rax
    f0b7:	48 89 85 88 f4 ff ff 	mov    %rax,-0xb78(%rbp)
    f0be:	48 8d 85 28 e7 ff ff 	lea    -0x18d8(%rbp),%rax
    f0c5:	48 89 85 90 f4 ff ff 	mov    %rax,-0xb70(%rbp)
    f0cc:	48 8d 85 28 e7 ff ff 	lea    -0x18d8(%rbp),%rax
    f0d3:	48 89 85 98 f4 ff ff 	mov    %rax,-0xb68(%rbp)
    f0da:	48 8d 85 28 e7 ff ff 	lea    -0x18d8(%rbp),%rax
    f0e1:	48 89 85 a0 f4 ff ff 	mov    %rax,-0xb60(%rbp)
    f0e8:	48 c7 85 a8 f4 ff ff 	movq   $0x0,-0xb58(%rbp)
    f0ef:	00 00 00 00 
    f0f3:	48 8d 85 28 e7 ff ff 	lea    -0x18d8(%rbp),%rax
    f0fa:	48 89 85 b0 f4 ff ff 	mov    %rax,-0xb50(%rbp)
    f101:	48 8d 85 28 e7 ff ff 	lea    -0x18d8(%rbp),%rax
    f108:	48 89 85 b8 f4 ff ff 	mov    %rax,-0xb48(%rbp)
    f10f:	48 c7 85 c0 f4 ff ff 	movq   $0x0,-0xb40(%rbp)
    f116:	00 00 00 00 
    f11a:	48 8d 85 28 e7 ff ff 	lea    -0x18d8(%rbp),%rax
    f121:	48 89 85 c8 f4 ff ff 	mov    %rax,-0xb38(%rbp)
    f128:	48 8d 85 28 e7 ff ff 	lea    -0x18d8(%rbp),%rax
    f12f:	48 89 85 d0 f4 ff ff 	mov    %rax,-0xb30(%rbp)
    f136:	48 8d 85 28 e7 ff ff 	lea    -0x18d8(%rbp),%rax
    f13d:	48 89 85 d8 f4 ff ff 	mov    %rax,-0xb28(%rbp)
    f144:	48 8d 85 28 e7 ff ff 	lea    -0x18d8(%rbp),%rax
    f14b:	48 89 85 e0 f4 ff ff 	mov    %rax,-0xb20(%rbp)
    f152:	48 8d 85 28 e7 ff ff 	lea    -0x18d8(%rbp),%rax
    f159:	48 89 85 e8 f4 ff ff 	mov    %rax,-0xb18(%rbp)
    f160:	48 c7 85 f0 f4 ff ff 	movq   $0x0,-0xb10(%rbp)
    f167:	00 00 00 00 
    f16b:	48 8d 85 28 e7 ff ff 	lea    -0x18d8(%rbp),%rax
    f172:	48 89 85 f8 f4 ff ff 	mov    %rax,-0xb08(%rbp)
    f179:	48 8d 85 28 e7 ff ff 	lea    -0x18d8(%rbp),%rax
    f180:	48 89 85 00 f5 ff ff 	mov    %rax,-0xb00(%rbp)
    f187:	48 c7 85 08 f5 ff ff 	movq   $0x0,-0xaf8(%rbp)
    f18e:	00 00 00 00 
    f192:	48 8d 85 28 e7 ff ff 	lea    -0x18d8(%rbp),%rax
    f199:	48 89 85 10 f5 ff ff 	mov    %rax,-0xaf0(%rbp)
    f1a0:	48 8d 85 28 e7 ff ff 	lea    -0x18d8(%rbp),%rax
    f1a7:	48 89 85 18 f5 ff ff 	mov    %rax,-0xae8(%rbp)
    f1ae:	48 8d 85 28 e7 ff ff 	lea    -0x18d8(%rbp),%rax
    f1b5:	48 89 85 20 f5 ff ff 	mov    %rax,-0xae0(%rbp)
    f1bc:	48 8d 85 28 e7 ff ff 	lea    -0x18d8(%rbp),%rax
    f1c3:	48 89 85 28 f5 ff ff 	mov    %rax,-0xad8(%rbp)
    f1ca:	48 8d 85 28 e7 ff ff 	lea    -0x18d8(%rbp),%rax
    f1d1:	48 89 85 30 f5 ff ff 	mov    %rax,-0xad0(%rbp)
    f1d8:	48 c7 85 38 f5 ff ff 	movq   $0x0,-0xac8(%rbp)
    f1df:	00 00 00 00 
    f1e3:	48 8d 85 28 e7 ff ff 	lea    -0x18d8(%rbp),%rax
    f1ea:	48 89 85 40 f5 ff ff 	mov    %rax,-0xac0(%rbp)
    f1f1:	48 8d 85 28 e7 ff ff 	lea    -0x18d8(%rbp),%rax
    f1f8:	48 89 85 48 f5 ff ff 	mov    %rax,-0xab8(%rbp)
    f1ff:	48 c7 85 50 f5 ff ff 	movq   $0x0,-0xab0(%rbp)
    f206:	00 00 00 00 
    f20a:	48 8d 85 28 e7 ff ff 	lea    -0x18d8(%rbp),%rax
    f211:	48 89 85 58 f5 ff ff 	mov    %rax,-0xaa8(%rbp)
    f218:	48 8d 85 28 e7 ff ff 	lea    -0x18d8(%rbp),%rax
    f21f:	48 89 85 60 f5 ff ff 	mov    %rax,-0xaa0(%rbp)
    f226:	48 8d 85 28 e7 ff ff 	lea    -0x18d8(%rbp),%rax
    f22d:	48 89 85 68 f5 ff ff 	mov    %rax,-0xa98(%rbp)
    f234:	48 c7 85 70 f5 ff ff 	movq   $0x0,-0xa90(%rbp)
    f23b:	00 00 00 00 
    f23f:	48 8d 85 28 e7 ff ff 	lea    -0x18d8(%rbp),%rax
    f246:	48 89 85 78 f5 ff ff 	mov    %rax,-0xa88(%rbp)
    f24d:	48 8d 85 28 e7 ff ff 	lea    -0x18d8(%rbp),%rax
    f254:	48 89 85 80 f5 ff ff 	mov    %rax,-0xa80(%rbp)
    f25b:	48 8d 85 28 e7 ff ff 	lea    -0x18d8(%rbp),%rax
    f262:	48 89 85 88 f5 ff ff 	mov    %rax,-0xa78(%rbp)
    f269:	48 8d 85 28 e7 ff ff 	lea    -0x18d8(%rbp),%rax
    f270:	48 89 85 90 f5 ff ff 	mov    %rax,-0xa70(%rbp)
    f277:	48 8d 85 28 e7 ff ff 	lea    -0x18d8(%rbp),%rax
    f27e:	48 89 85 98 f5 ff ff 	mov    %rax,-0xa68(%rbp)
    f285:	48 c7 85 a0 f5 ff ff 	movq   $0x0,-0xa60(%rbp)
    f28c:	00 00 00 00 
    f290:	48 8d 85 28 e7 ff ff 	lea    -0x18d8(%rbp),%rax
    f297:	48 89 85 a8 f5 ff ff 	mov    %rax,-0xa58(%rbp)
    f29e:	48 8d 85 28 e7 ff ff 	lea    -0x18d8(%rbp),%rax
    f2a5:	48 89 85 b0 f5 ff ff 	mov    %rax,-0xa50(%rbp)
    f2ac:	48 8d 85 28 e7 ff ff 	lea    -0x18d8(%rbp),%rax
    f2b3:	48 89 85 b8 f5 ff ff 	mov    %rax,-0xa48(%rbp)
    f2ba:	48 8d 85 28 e7 ff ff 	lea    -0x18d8(%rbp),%rax
    f2c1:	48 89 85 c0 f5 ff ff 	mov    %rax,-0xa40(%rbp)
    f2c8:	48 8d 85 28 e7 ff ff 	lea    -0x18d8(%rbp),%rax
    f2cf:	48 89 85 c8 f5 ff ff 	mov    %rax,-0xa38(%rbp)
    f2d6:	48 8d 85 28 e7 ff ff 	lea    -0x18d8(%rbp),%rax
    f2dd:	48 89 85 d0 f5 ff ff 	mov    %rax,-0xa30(%rbp)
    f2e4:	48 8d 85 28 e7 ff ff 	lea    -0x18d8(%rbp),%rax
    f2eb:	48 89 85 d8 f5 ff ff 	mov    %rax,-0xa28(%rbp)
    f2f2:	48 8d 85 28 e7 ff ff 	lea    -0x18d8(%rbp),%rax
    f2f9:	48 89 85 e0 f5 ff ff 	mov    %rax,-0xa20(%rbp)
    f300:	48 8d 85 28 e7 ff ff 	lea    -0x18d8(%rbp),%rax
    f307:	48 89 85 e8 f5 ff ff 	mov    %rax,-0xa18(%rbp)
    f30e:	48 8d 85 28 e7 ff ff 	lea    -0x18d8(%rbp),%rax
    f315:	48 89 85 f0 f5 ff ff 	mov    %rax,-0xa10(%rbp)
    f31c:	48 c7 85 f8 f5 ff ff 	movq   $0x0,-0xa08(%rbp)
    f323:	00 00 00 00 
    f327:	48 c7 85 00 f6 ff ff 	movq   $0x0,-0xa00(%rbp)
    f32e:	00 00 00 00 
    f332:	48 c7 85 08 f6 ff ff 	movq   $0x0,-0x9f8(%rbp)
    f339:	00 00 00 00 
    f33d:	48 c7 85 10 f6 ff ff 	movq   $0x0,-0x9f0(%rbp)
    f344:	00 00 00 00 
    f348:	48 c7 85 18 f6 ff ff 	movq   $0x0,-0x9e8(%rbp)
    f34f:	00 00 00 00 
    f353:	48 8d 85 28 e7 ff ff 	lea    -0x18d8(%rbp),%rax
    f35a:	48 89 85 20 f6 ff ff 	mov    %rax,-0x9e0(%rbp)
    f361:	48 8d 85 28 e7 ff ff 	lea    -0x18d8(%rbp),%rax
    f368:	48 89 85 28 f6 ff ff 	mov    %rax,-0x9d8(%rbp)
    f36f:	48 8d 85 28 e7 ff ff 	lea    -0x18d8(%rbp),%rax
    f376:	48 89 85 30 f6 ff ff 	mov    %rax,-0x9d0(%rbp)
    f37d:	48 c7 85 38 f6 ff ff 	movq   $0x0,-0x9c8(%rbp)
    f384:	00 00 00 00 
    f388:	48 c7 85 40 f6 ff ff 	movq   $0x0,-0x9c0(%rbp)
    f38f:	00 00 00 00 
    f393:	48 8d 85 28 e7 ff ff 	lea    -0x18d8(%rbp),%rax
    f39a:	48 89 85 48 f6 ff ff 	mov    %rax,-0x9b8(%rbp)
    f3a1:	48 8d 85 28 e7 ff ff 	lea    -0x18d8(%rbp),%rax
    f3a8:	48 89 85 50 f6 ff ff 	mov    %rax,-0x9b0(%rbp)
    f3af:	48 8d 85 28 e7 ff ff 	lea    -0x18d8(%rbp),%rax
    f3b6:	48 89 85 58 f6 ff ff 	mov    %rax,-0x9a8(%rbp)
    f3bd:	48 c7 85 60 f6 ff ff 	movq   $0x0,-0x9a0(%rbp)
    f3c4:	00 00 00 00 
    f3c8:	48 8d 85 28 e7 ff ff 	lea    -0x18d8(%rbp),%rax
    f3cf:	48 89 85 68 f6 ff ff 	mov    %rax,-0x998(%rbp)
    f3d6:	48 c7 85 70 f6 ff ff 	movq   $0x0,-0x990(%rbp)
    f3dd:	00 00 00 00 
    f3e1:	48 8d 85 28 e7 ff ff 	lea    -0x18d8(%rbp),%rax
    f3e8:	48 89 85 78 f6 ff ff 	mov    %rax,-0x988(%rbp)
    f3ef:	48 8d 85 28 e7 ff ff 	lea    -0x18d8(%rbp),%rax
    f3f6:	48 89 85 80 f6 ff ff 	mov    %rax,-0x980(%rbp)
    f3fd:	48 8d 85 28 e7 ff ff 	lea    -0x18d8(%rbp),%rax
    f404:	48 89 85 88 f6 ff ff 	mov    %rax,-0x978(%rbp)
    f40b:	48 8d 85 28 e7 ff ff 	lea    -0x18d8(%rbp),%rax
    f412:	48 89 85 90 f6 ff ff 	mov    %rax,-0x970(%rbp)
    f419:	48 c7 85 98 f6 ff ff 	movq   $0x0,-0x968(%rbp)
    f420:	00 00 00 00 
    f424:	48 8d 85 28 e7 ff ff 	lea    -0x18d8(%rbp),%rax
    f42b:	48 89 85 a0 f6 ff ff 	mov    %rax,-0x960(%rbp)
    f432:	48 8d 85 28 e7 ff ff 	lea    -0x18d8(%rbp),%rax
    f439:	48 89 85 a8 f6 ff ff 	mov    %rax,-0x958(%rbp)
    f440:	48 c7 85 b0 f6 ff ff 	movq   $0x0,-0x950(%rbp)
    f447:	00 00 00 00 
    f44b:	48 8d 85 28 e7 ff ff 	lea    -0x18d8(%rbp),%rax
    f452:	48 89 85 b8 f6 ff ff 	mov    %rax,-0x948(%rbp)
    f459:	48 c7 85 c0 f6 ff ff 	movq   $0x0,-0x940(%rbp)
    f460:	00 00 00 00 
    f464:	48 8d 85 28 e7 ff ff 	lea    -0x18d8(%rbp),%rax
    f46b:	48 89 85 c8 f6 ff ff 	mov    %rax,-0x938(%rbp)
    f472:	48 8d 85 28 e7 ff ff 	lea    -0x18d8(%rbp),%rax
    f479:	48 89 85 d0 f6 ff ff 	mov    %rax,-0x930(%rbp)
    f480:	48 8d 85 28 e7 ff ff 	lea    -0x18d8(%rbp),%rax
    f487:	48 89 85 d8 f6 ff ff 	mov    %rax,-0x928(%rbp)
    f48e:	48 8d 85 28 e7 ff ff 	lea    -0x18d8(%rbp),%rax
    f495:	48 89 85 e0 f6 ff ff 	mov    %rax,-0x920(%rbp)
    f49c:	48 8d 85 28 e7 ff ff 	lea    -0x18d8(%rbp),%rax
    f4a3:	48 89 85 e8 f6 ff ff 	mov    %rax,-0x918(%rbp)
    f4aa:	48 8d 85 28 e7 ff ff 	lea    -0x18d8(%rbp),%rax
    f4b1:	48 89 85 f0 f6 ff ff 	mov    %rax,-0x910(%rbp)
    f4b8:	48 8d 85 28 e7 ff ff 	lea    -0x18d8(%rbp),%rax
    f4bf:	48 89 85 f8 f6 ff ff 	mov    %rax,-0x908(%rbp)
    f4c6:	48 8d 85 28 e7 ff ff 	lea    -0x18d8(%rbp),%rax
    f4cd:	48 89 85 00 f7 ff ff 	mov    %rax,-0x900(%rbp)
    f4d4:	48 8d 85 28 e7 ff ff 	lea    -0x18d8(%rbp),%rax
    f4db:	48 89 85 08 f7 ff ff 	mov    %rax,-0x8f8(%rbp)
    f4e2:	48 8d 85 28 e7 ff ff 	lea    -0x18d8(%rbp),%rax
    f4e9:	48 89 85 10 f7 ff ff 	mov    %rax,-0x8f0(%rbp)
    f4f0:	48 8d 85 28 e7 ff ff 	lea    -0x18d8(%rbp),%rax
    f4f7:	48 89 85 18 f7 ff ff 	mov    %rax,-0x8e8(%rbp)
    f4fe:	48 8d 85 28 e7 ff ff 	lea    -0x18d8(%rbp),%rax
    f505:	48 89 85 20 f7 ff ff 	mov    %rax,-0x8e0(%rbp)
    f50c:	48 c7 85 28 f7 ff ff 	movq   $0x0,-0x8d8(%rbp)
    f513:	00 00 00 00 
    f517:	48 8d 85 28 e7 ff ff 	lea    -0x18d8(%rbp),%rax
    f51e:	48 89 85 30 f7 ff ff 	mov    %rax,-0x8d0(%rbp)
    f525:	48 c7 85 38 f7 ff ff 	movq   $0x0,-0x8c8(%rbp)
    f52c:	00 00 00 00 
    f530:	48 8d 85 28 e7 ff ff 	lea    -0x18d8(%rbp),%rax
    f537:	48 89 85 40 f7 ff ff 	mov    %rax,-0x8c0(%rbp)
    f53e:	48 c7 85 48 f7 ff ff 	movq   $0x0,-0x8b8(%rbp)
    f545:	00 00 00 00 
    f549:	48 8d 85 28 e7 ff ff 	lea    -0x18d8(%rbp),%rax
    f550:	48 89 85 50 f7 ff ff 	mov    %rax,-0x8b0(%rbp)
    f557:	48 8d 85 28 e7 ff ff 	lea    -0x18d8(%rbp),%rax
    f55e:	48 89 85 58 f7 ff ff 	mov    %rax,-0x8a8(%rbp)
    f565:	48 8d 85 28 e7 ff ff 	lea    -0x18d8(%rbp),%rax
    f56c:	48 89 85 60 f7 ff ff 	mov    %rax,-0x8a0(%rbp)
    f573:	48 8d 85 28 e7 ff ff 	lea    -0x18d8(%rbp),%rax
    f57a:	48 89 85 68 f7 ff ff 	mov    %rax,-0x898(%rbp)
    f581:	48 8d 85 28 e7 ff ff 	lea    -0x18d8(%rbp),%rax
    f588:	48 89 85 70 f7 ff ff 	mov    %rax,-0x890(%rbp)
    f58f:	48 8d 85 28 e7 ff ff 	lea    -0x18d8(%rbp),%rax
    f596:	48 89 85 78 f7 ff ff 	mov    %rax,-0x888(%rbp)
    f59d:	48 c7 85 80 f7 ff ff 	movq   $0x0,-0x880(%rbp)
    f5a4:	00 00 00 00 
    f5a8:	48 c7 85 88 f7 ff ff 	movq   $0x0,-0x878(%rbp)
    f5af:	00 00 00 00 
    f5b3:	48 8d 85 28 e7 ff ff 	lea    -0x18d8(%rbp),%rax
    f5ba:	48 89 85 90 f7 ff ff 	mov    %rax,-0x870(%rbp)
    f5c1:	48 8d 85 28 e7 ff ff 	lea    -0x18d8(%rbp),%rax
    f5c8:	48 89 85 98 f7 ff ff 	mov    %rax,-0x868(%rbp)
    f5cf:	48 8d 85 28 e7 ff ff 	lea    -0x18d8(%rbp),%rax
    f5d6:	48 89 85 a0 f7 ff ff 	mov    %rax,-0x860(%rbp)
    f5dd:	48 8d 85 28 e7 ff ff 	lea    -0x18d8(%rbp),%rax
    f5e4:	48 89 85 a8 f7 ff ff 	mov    %rax,-0x858(%rbp)
    f5eb:	48 8d 85 28 e7 ff ff 	lea    -0x18d8(%rbp),%rax
    f5f2:	48 89 85 b0 f7 ff ff 	mov    %rax,-0x850(%rbp)
    f5f9:	48 c7 85 b8 f7 ff ff 	movq   $0x0,-0x848(%rbp)
    f600:	00 00 00 00 
    f604:	48 8d 85 28 e7 ff ff 	lea    -0x18d8(%rbp),%rax
    f60b:	48 89 85 c0 f7 ff ff 	mov    %rax,-0x840(%rbp)
    f612:	48 8d 85 28 e7 ff ff 	lea    -0x18d8(%rbp),%rax
    f619:	48 89 85 c8 f7 ff ff 	mov    %rax,-0x838(%rbp)
    f620:	48 8d 85 28 e7 ff ff 	lea    -0x18d8(%rbp),%rax
    f627:	48 89 85 d0 f7 ff ff 	mov    %rax,-0x830(%rbp)
    f62e:	c6 85 36 e6 ff ff 09 	movb   $0x9,-0x19ca(%rbp)
    f635:	c7 85 64 e6 ff ff 00 	movl   $0x0,-0x199c(%rbp)
    f63c:	00 00 00 
    f63f:	eb 1e                	jmp    f65f <func_22+0x3cb1>
    f641:	8b 85 64 e6 ff ff    	mov    -0x199c(%rbp),%eax
    f647:	48 98                	cltq   
    f649:	48 8d 15 f8 db 00 00 	lea    0xdbf8(%rip),%rdx        # 1d248 <g_236>
    f650:	48 89 94 c5 30 ea ff 	mov    %rdx,-0x15d0(%rbp,%rax,8)
    f657:	ff 
    f658:	83 85 64 e6 ff ff 01 	addl   $0x1,-0x199c(%rbp)
    f65f:	83 bd 64 e6 ff ff 08 	cmpl   $0x8,-0x199c(%rbp)
    f666:	7e d9                	jle    f641 <func_22+0x3c93>
    f668:	c7 85 64 e6 ff ff 00 	movl   $0x0,-0x199c(%rbp)
    f66f:	00 00 00 
    f672:	eb 1a                	jmp    f68e <func_22+0x3ce0>
    f674:	8b 85 64 e6 ff ff    	mov    -0x199c(%rbp),%eax
    f67a:	48 98                	cltq   
    f67c:	c7 84 85 34 e9 ff ff 	movl   $0xeaf32ccd,-0x16cc(%rbp,%rax,4)
    f683:	cd 2c f3 ea 
    f687:	83 85 64 e6 ff ff 01 	addl   $0x1,-0x199c(%rbp)
    f68e:	83 bd 64 e6 ff ff 02 	cmpl   $0x2,-0x199c(%rbp)
    f695:	7e dd                	jle    f674 <func_22+0x3cc6>
    f697:	48 8b 05 fa f6 00 00 	mov    0xf6fa(%rip),%rax        # 1ed98 <g_590>
    f69e:	48 8b 00             	mov    (%rax),%rax
    f6a1:	0f b7 05 a8 db 00 00 	movzwl 0xdba8(%rip),%eax        # 1d250 <g_264>
    f6a8:	0f b7 c0             	movzwl %ax,%eax
    f6ab:	48 63 d0             	movslq %eax,%rdx
    f6ae:	48 8d 0c d5 00 00 00 	lea    0x0(,%rdx,8),%rcx
    f6b5:	00 
    f6b6:	48 8d 15 e3 f6 00 00 	lea    0xf6e3(%rip),%rdx        # 1eda0 <g_608>
    f6bd:	48 c7 04 11 00 00 00 	movq   $0x0,(%rcx,%rdx,1)
    f6c4:	00 
    f6c5:	48 98                	cltq   
    f6c7:	48 8d 14 c5 00 00 00 	lea    0x0(,%rax,8),%rdx
    f6ce:	00 
    f6cf:	48 8d 05 ca f6 00 00 	lea    0xf6ca(%rip),%rax        # 1eda0 <g_608>
    f6d6:	48 8b 14 02          	mov    (%rdx,%rax,1),%rdx
    f6da:	48 8b 85 00 e8 ff ff 	mov    -0x1800(%rbp),%rax
    f6e1:	48 89 10             	mov    %rdx,(%rax)
    f6e4:	48 c7 85 20 e6 ff ff 	movq   $0x0,-0x19e0(%rbp)
    f6eb:	00 00 00 00 
    f6ef:	eb 16                	jmp    f707 <func_22+0x3d59>
    f6f1:	48 8d 05 08 f3 00 00 	lea    0xf308(%rip),%rax        # 1ea00 <g_290>
    f6f8:	48 89 85 50 e8 ff ff 	mov    %rax,-0x17b0(%rbp)
    f6ff:	48 83 85 20 e6 ff ff 	addq   $0x1,-0x19e0(%rbp)
    f706:	01 
    f707:	48 83 bd 20 e6 ff ff 	cmpq   $0x2d,-0x19e0(%rbp)
    f70e:	2d 
    f70f:	77 e0                	ja     f6f1 <func_22+0x3d43>
    f711:	8b 05 81 dd 00 00    	mov    0xdd81(%rip),%eax        # 1d498 <g_864>
    f717:	48 83 bd 08 e8 ff ff 	cmpq   $0x0,-0x17f8(%rbp)
    f71e:	00 
    f71f:	40 0f 95 c6          	setne  %sil
    f723:	8b 85 3c e9 ff ff    	mov    -0x16c4(%rbp),%eax
    f729:	88 05 09 db 00 00    	mov    %al,0xdb09(%rip)        # 1d238 <g_163>
    f72f:	0f b6 05 02 db 00 00 	movzbl 0xdb02(%rip),%eax        # 1d238 <g_163>
    f736:	0f b6 d0             	movzbl %al,%edx
    f739:	8b 8d 6c e9 ff ff    	mov    -0x1694(%rbp),%ecx
    f73f:	0f b6 85 2c e6 ff ff 	movzbl -0x19d4(%rbp),%eax
    f746:	0f b6 c0             	movzbl %al,%eax
    f749:	39 c1                	cmp    %eax,%ecx
    f74b:	0f 96 c1             	setbe  %cl
    f74e:	48 8b 85 18 e7 ff ff 	mov    -0x18e8(%rbp),%rax
    f755:	88 08                	mov    %cl,(%rax)
    f757:	0f b6 00             	movzbl (%rax),%eax
    f75a:	0f be c0             	movsbl %al,%eax
    f75d:	39 c2                	cmp    %eax,%edx
    f75f:	0f 9f c0             	setg   %al
    f762:	0f b6 d0             	movzbl %al,%edx
    f765:	8b 85 28 e6 ff ff    	mov    -0x19d8(%rbp),%eax
    f76b:	39 c2                	cmp    %eax,%edx
    f76d:	0f 92 c0             	setb   %al
    f770:	09 f0                	or     %esi,%eax
    f772:	84 c0                	test   %al,%al
    f774:	74 12                	je     f788 <func_22+0x3dda>
    f776:	0f b6 85 2c e6 ff ff 	movzbl -0x19d4(%rbp),%eax
    f77d:	84 c0                	test   %al,%al
    f77f:	74 07                	je     f788 <func_22+0x3dda>
    f781:	ba 01 00 00 00       	mov    $0x1,%edx
    f786:	eb 05                	jmp    f78d <func_22+0x3ddf>
    f788:	ba 00 00 00 00       	mov    $0x0,%edx
    f78d:	0f b6 05 be da 00 00 	movzbl 0xdabe(%rip),%eax        # 1d252 <g_294>
    f794:	0f b6 c0             	movzbl %al,%eax
    f797:	39 c2                	cmp    %eax,%edx
    f799:	0f 9c c0             	setl   %al
    f79c:	0f b6 d0             	movzbl %al,%edx
    f79f:	48 8d 05 da da 00 00 	lea    0xdada(%rip),%rax        # 1d280 <g_617>
    f7a6:	8b 00                	mov    (%rax),%eax
    f7a8:	39 c2                	cmp    %eax,%edx
    f7aa:	0f 95 c0             	setne  %al
    f7ad:	0f b6 d0             	movzbl %al,%edx
    f7b0:	8b 85 f8 e6 ff ff    	mov    -0x1908(%rbp),%eax
    f7b6:	21 d0                	and    %edx,%eax
    f7b8:	89 85 f8 e6 ff ff    	mov    %eax,-0x1908(%rbp)
    f7be:	8b 85 f8 e6 ff ff    	mov    -0x1908(%rbp),%eax
    f7c4:	48 98                	cltq   
    f7c6:	48 c7 c6 f7 ff ff ff 	mov    $0xfffffffffffffff7,%rsi
    f7cd:	48 89 c7             	mov    %rax,%rdi
    f7d0:	e8 59 88 ff ff       	callq  802e <safe_add_func_uint64_t_u_u>
    f7d5:	0f be c0             	movsbl %al,%eax
    f7d8:	89 c6                	mov    %eax,%esi
    f7da:	bf f5 ff ff ff       	mov    $0xfffffff5,%edi
    f7df:	e8 2e 7a ff ff       	callq  7212 <safe_mul_func_int8_t_s_s>
    f7e4:	0f be d0             	movsbl %al,%edx
    f7e7:	48 8b 85 20 e6 ff ff 	mov    -0x19e0(%rbp),%rax
    f7ee:	0f be c0             	movsbl %al,%eax
    f7f1:	89 d6                	mov    %edx,%esi
    f7f3:	89 c7                	mov    %eax,%edi
    f7f5:	e8 a7 7a ff ff       	callq  72a1 <safe_lshift_func_int8_t_s_s>
    f7fa:	48 8b 95 10 e8 ff ff 	mov    -0x17f0(%rbp),%rdx
    f801:	0f b7 12             	movzwl (%rdx),%edx
    f804:	66 98                	cbtw   
    f806:	09 c2                	or     %eax,%edx
    f808:	48 8b 85 10 e8 ff ff 	mov    -0x17f0(%rbp),%rax
    f80f:	66 89 10             	mov    %dx,(%rax)
    f812:	48 8b 85 10 e8 ff ff 	mov    -0x17f0(%rbp),%rax
    f819:	0f b7 00             	movzwl (%rax),%eax
    f81c:	0f bf d0             	movswl %ax,%edx
    f81f:	8b 05 17 da 00 00    	mov    0xda17(%rip),%eax        # 1d23c <g_215>
    f825:	39 c2                	cmp    %eax,%edx
    f827:	7f 0e                	jg     f837 <func_22+0x3e89>
    f829:	48 83 bd 20 e6 ff ff 	cmpq   $0x0,-0x19e0(%rbp)
    f830:	00 
    f831:	0f 84 b7 02 00 00    	je     faee <func_22+0x4140>
    f837:	48 8d 85 34 e9 ff ff 	lea    -0x16cc(%rbp),%rax
    f83e:	48 83 c0 08          	add    $0x8,%rax
    f842:	48 89 85 20 e8 ff ff 	mov    %rax,-0x17e0(%rbp)
    f849:	48 8d 85 f0 eb ff ff 	lea    -0x1410(%rbp),%rax
    f850:	48 89 85 28 e8 ff ff 	mov    %rax,-0x17d8(%rbp)
    f857:	48 c7 85 30 e8 ff ff 	movq   $0x0,-0x17d0(%rbp)
    f85e:	00 00 00 00 
    f862:	48 8d 85 f8 e6 ff ff 	lea    -0x1908(%rbp),%rax
    f869:	48 89 85 38 e8 ff ff 	mov    %rax,-0x17c8(%rbp)
    f870:	48 8d 05 6d d9 00 00 	lea    0xd96d(%rip),%rax        # 1d1e4 <g_91>
    f877:	48 89 85 40 e8 ff ff 	mov    %rax,-0x17c0(%rbp)
    f87e:	48 c7 85 30 e7 ff ff 	movq   $0x0,-0x18d0(%rbp)
    f885:	00 00 00 00 
    f889:	48 8d 85 30 e7 ff ff 	lea    -0x18d0(%rbp),%rax
    f890:	48 89 85 48 e8 ff ff 	mov    %rax,-0x17b8(%rbp)
    f897:	c7 85 4c e6 ff ff 00 	movl   $0x0,-0x19b4(%rbp)
    f89e:	00 00 00 
    f8a1:	eb 1e                	jmp    f8c1 <func_22+0x3f13>
    f8a3:	8b 85 4c e6 ff ff    	mov    -0x19b4(%rbp),%eax
    f8a9:	48 98                	cltq   
    f8ab:	48 8d 95 44 e6 ff ff 	lea    -0x19bc(%rbp),%rdx
    f8b2:	48 89 94 c5 70 eb ff 	mov    %rdx,-0x1490(%rbp,%rax,8)
    f8b9:	ff 
    f8ba:	83 85 4c e6 ff ff 01 	addl   $0x1,-0x19b4(%rbp)
    f8c1:	83 bd 4c e6 ff ff 01 	cmpl   $0x1,-0x19b4(%rbp)
    f8c8:	7e d9                	jle    f8a3 <func_22+0x3ef5>
    f8ca:	8b 05 cc db 00 00    	mov    0xdbcc(%rip),%eax        # 1d49c <g_878>
    f8d0:	83 c0 01             	add    $0x1,%eax
    f8d3:	89 05 c3 db 00 00    	mov    %eax,0xdbc3(%rip)        # 1d49c <g_878>
    f8d9:	48 8b 85 48 e7 ff ff 	mov    -0x18b8(%rbp),%rax
    f8e0:	48 8b 00             	mov    (%rax),%rax
    f8e3:	8b 00                	mov    (%rax),%eax
    f8e5:	89 85 84 e6 ff ff    	mov    %eax,-0x197c(%rbp)
    f8eb:	8b 9d 80 e6 ff ff    	mov    -0x1980(%rbp),%ebx
    f8f1:	0f b6 05 f0 01 01 00 	movzbl 0x101f0(%rip),%eax        # 1fae8 <g_38>
    f8f8:	c1 e0 06             	shl    $0x6,%eax
    f8fb:	c0 f8 06             	sar    $0x6,%al
    f8fe:	66 98                	cbtw   
    f900:	44 0f b7 e0          	movzwl %ax,%r12d
    f904:	0f b6 05 c9 d8 00 00 	movzbl 0xd8c9(%rip),%eax        # 1d1d4 <g_40>
    f90b:	c1 e0 06             	shl    $0x6,%eax
    f90e:	c0 f8 06             	sar    $0x6,%al
    f911:	44 0f be e8          	movsbl %al,%r13d
    f915:	48 8b 85 20 e6 ff ff 	mov    -0x19e0(%rbp),%rax
    f91c:	44 0f be f0          	movsbl %al,%r14d
    f920:	8b 85 3c e9 ff ff    	mov    -0x16c4(%rbp),%eax
    f926:	44 0f be f8          	movsbl %al,%r15d
    f92a:	0f b6 85 36 e6 ff ff 	movzbl -0x19ca(%rbp),%eax
    f931:	0f b6 c0             	movzbl %al,%eax
    f934:	89 85 1c e6 ff ff    	mov    %eax,-0x19e4(%rbp)
    f93a:	48 8b 85 20 e6 ff ff 	mov    -0x19e0(%rbp),%rax
    f941:	0f bf d0             	movswl %ax,%edx
    f944:	48 8b 85 40 e8 ff ff 	mov    -0x17c0(%rbp),%rax
    f94b:	0f b6 00             	movzbl (%rax),%eax
    f94e:	8d 48 01             	lea    0x1(%rax),%ecx
    f951:	48 8b 85 40 e8 ff ff 	mov    -0x17c0(%rbp),%rax
    f958:	88 08                	mov    %cl,(%rax)
    f95a:	48 8b 85 40 e8 ff ff 	mov    -0x17c0(%rbp),%rax
    f961:	0f b6 00             	movzbl (%rax),%eax
    f964:	0f b6 c8             	movzbl %al,%ecx
    f967:	48 8b 85 48 e7 ff ff 	mov    -0x18b8(%rbp),%rax
    f96e:	48 8b 00             	mov    (%rax),%rax
    f971:	8b 30                	mov    (%rax),%esi
    f973:	48 8b 85 48 e7 ff ff 	mov    -0x18b8(%rbp),%rax
    f97a:	48 8b 00             	mov    (%rax),%rax
    f97d:	81 e6 32 5f b1 6a    	and    $0x6ab15f32,%esi
    f983:	89 30                	mov    %esi,(%rax)
    f985:	8b 30                	mov    (%rax),%esi
    f987:	8b 85 7c e9 ff ff    	mov    -0x1684(%rbp),%eax
    f98d:	85 c0                	test   %eax,%eax
    f98f:	0f 94 c0             	sete   %al
    f992:	0f b6 c0             	movzbl %al,%eax
    f995:	39 c6                	cmp    %eax,%esi
    f997:	0f 9e c0             	setle  %al
    f99a:	0f b6 c0             	movzbl %al,%eax
    f99d:	39 c1                	cmp    %eax,%ecx
    f99f:	0f 95 c0             	setne  %al
    f9a2:	0f b6 c0             	movzbl %al,%eax
    f9a5:	89 d6                	mov    %edx,%esi
    f9a7:	89 c7                	mov    %eax,%edi
    f9a9:	e8 47 7a ff ff       	callq  73f5 <safe_mul_func_int16_t_s_s>
    f9ae:	48 8b 85 c8 f3 ff ff 	mov    -0xc38(%rbp),%rax
    f9b5:	48 85 c0             	test   %rax,%rax
    f9b8:	0f 94 c0             	sete   %al
    f9bb:	0f b6 c0             	movzbl %al,%eax
    f9be:	8b b5 1c e6 ff ff    	mov    -0x19e4(%rbp),%esi
    f9c4:	89 c7                	mov    %eax,%edi
    f9c6:	e8 8f 81 ff ff       	callq  7b5a <safe_add_func_uint8_t_u_u>
    f9cb:	8b 05 23 d7 00 00    	mov    0xd723(%rip),%eax        # 1d0f4 <g_6>
    f9d1:	0f be c0             	movsbl %al,%eax
    f9d4:	44 89 fe             	mov    %r15d,%esi
    f9d7:	89 c7                	mov    %eax,%edi
    f9d9:	e8 f6 77 ff ff       	callq  71d4 <safe_add_func_int8_t_s_s>
    f9de:	0f b6 85 2c e6 ff ff 	movzbl -0x19d4(%rbp),%eax
    f9e5:	0f b6 c0             	movzbl %al,%eax
    f9e8:	39 85 94 e6 ff ff    	cmp    %eax,-0x196c(%rbp)
    f9ee:	74 0a                	je     f9fa <func_22+0x404c>
    f9f0:	8b 85 6c e9 ff ff    	mov    -0x1694(%rbp),%eax
    f9f6:	85 c0                	test   %eax,%eax
    f9f8:	74 07                	je     fa01 <func_22+0x4053>
    f9fa:	b8 01 00 00 00       	mov    $0x1,%eax
    f9ff:	eb 05                	jmp    fa06 <func_22+0x4058>
    fa01:	b8 00 00 00 00       	mov    $0x0,%eax
    fa06:	83 f8 01             	cmp    $0x1,%eax
    fa09:	48 8b 85 48 e8 ff ff 	mov    -0x17b8(%rbp),%rax
    fa10:	48 c7 00 00 00 00 00 	movq   $0x0,(%rax)
    fa17:	48 8b 85 48 e8 ff ff 	mov    -0x17b8(%rbp),%rax
    fa1e:	48 8b 10             	mov    (%rax),%rdx
    fa21:	48 8d 85 36 e6 ff ff 	lea    -0x19ca(%rbp),%rax
    fa28:	48 39 c2             	cmp    %rax,%rdx
    fa2b:	0f 94 c0             	sete   %al
    fa2e:	0f b6 c0             	movzbl %al,%eax
    fa31:	44 89 f6             	mov    %r14d,%esi
    fa34:	89 c7                	mov    %eax,%edi
    fa36:	e8 f6 77 ff ff       	callq  7231 <safe_mod_func_int8_t_s_s>
    fa3b:	48 8b 95 28 e8 ff ff 	mov    -0x17d8(%rbp),%rdx
    fa42:	8b 12                	mov    (%rdx),%edx
    fa44:	0f be c0             	movsbl %al,%eax
    fa47:	21 c2                	and    %eax,%edx
    fa49:	48 8b 85 28 e8 ff ff 	mov    -0x17d8(%rbp),%rax
    fa50:	89 10                	mov    %edx,(%rax)
    fa52:	48 8b 85 28 e8 ff ff 	mov    -0x17d8(%rbp),%rax
    fa59:	8b 00                	mov    (%rax),%eax
    fa5b:	85 c0                	test   %eax,%eax
    fa5d:	75 0d                	jne    fa6c <func_22+0x40be>
    fa5f:	48 8b 85 20 e8 ff ff 	mov    -0x17e0(%rbp),%rax
    fa66:	8b 00                	mov    (%rax),%eax
    fa68:	85 c0                	test   %eax,%eax
    fa6a:	74 07                	je     fa73 <func_22+0x40c5>
    fa6c:	b8 01 00 00 00       	mov    $0x1,%eax
    fa71:	eb 05                	jmp    fa78 <func_22+0x40ca>
    fa73:	b8 00 00 00 00       	mov    $0x0,%eax
    fa78:	98                   	cwtl   
    fa79:	44 89 ee             	mov    %r13d,%esi
    fa7c:	89 c7                	mov    %eax,%edi
    fa7e:	e8 93 79 ff ff       	callq  7416 <safe_mod_func_int16_t_s_s>
    fa83:	0f bf d0             	movswl %ax,%edx
    fa86:	0f b6 85 2c e6 ff ff 	movzbl -0x19d4(%rbp),%eax
    fa8d:	0f b6 c0             	movzbl %al,%eax
    fa90:	39 c2                	cmp    %eax,%edx
    fa92:	44 89 e6             	mov    %r12d,%esi
    fa95:	bf 01 00 00 00       	mov    $0x1,%edi
    fa9a:	e8 9e 82 ff ff       	callq  7d3d <safe_mul_func_uint16_t_u_u>
    fa9f:	8b 85 28 e6 ff ff    	mov    -0x19d8(%rbp),%eax
    faa5:	98                   	cwtl   
    faa6:	be 00 00 00 00       	mov    $0x0,%esi
    faab:	89 c7                	mov    %eax,%edi
    faad:	e8 01 79 ff ff       	callq  73b3 <safe_add_func_int16_t_s_s>
    fab2:	98                   	cwtl   
    fab3:	89 de                	mov    %ebx,%esi
    fab5:	89 c7                	mov    %eax,%edi
    fab7:	e8 69 84 ff ff       	callq  7f25 <safe_div_func_uint32_t_u_u>
    fabc:	0f be d0             	movsbl %al,%edx
    fabf:	48 8b 85 20 e6 ff ff 	mov    -0x19e0(%rbp),%rax
    fac6:	0f be c0             	movsbl %al,%eax
    fac9:	89 d6                	mov    %edx,%esi
    facb:	89 c7                	mov    %eax,%edi
    facd:	e8 40 77 ff ff       	callq  7212 <safe_mul_func_int8_t_s_s>
    fad2:	0f be c0             	movsbl %al,%eax
    fad5:	89 85 48 e6 ff ff    	mov    %eax,-0x19b8(%rbp)
    fadb:	48 8b 05 ee f4 00 00 	mov    0xf4ee(%rip),%rax        # 1efd0 <g_914>
    fae2:	48 89 05 e7 f4 00 00 	mov    %rax,0xf4e7(%rip)        # 1efd0 <g_914>
    fae9:	e9 ce 06 00 00       	jmpq   101bc <func_22+0x480e>
    faee:	c7 85 bc e6 ff ff ff 	movl   $0xffffffff,-0x1944(%rbp)
    faf5:	ff ff ff 
    faf8:	48 8d 05 97 d5 00 00 	lea    0xd597(%rip),%rax        # 1d096 <g_4+0x56>
    faff:	48 89 85 70 eb ff ff 	mov    %rax,-0x1490(%rbp)
    fb06:	48 8d 05 89 d5 00 00 	lea    0xd589(%rip),%rax        # 1d096 <g_4+0x56>
    fb0d:	48 89 85 78 eb ff ff 	mov    %rax,-0x1488(%rbp)
    fb14:	48 8d 05 7b d5 00 00 	lea    0xd57b(%rip),%rax        # 1d096 <g_4+0x56>
    fb1b:	48 89 85 80 eb ff ff 	mov    %rax,-0x1480(%rbp)
    fb22:	48 8d 05 6d d5 00 00 	lea    0xd56d(%rip),%rax        # 1d096 <g_4+0x56>
    fb29:	48 89 85 88 eb ff ff 	mov    %rax,-0x1478(%rbp)
    fb30:	48 8d 05 5f d5 00 00 	lea    0xd55f(%rip),%rax        # 1d096 <g_4+0x56>
    fb37:	48 89 85 90 eb ff ff 	mov    %rax,-0x1470(%rbp)
    fb3e:	48 8d 05 51 d5 00 00 	lea    0xd551(%rip),%rax        # 1d096 <g_4+0x56>
    fb45:	48 89 85 98 eb ff ff 	mov    %rax,-0x1468(%rbp)
    fb4c:	48 8d 05 43 d5 00 00 	lea    0xd543(%rip),%rax        # 1d096 <g_4+0x56>
    fb53:	48 89 85 a0 eb ff ff 	mov    %rax,-0x1460(%rbp)
    fb5a:	48 8d 05 35 d5 00 00 	lea    0xd535(%rip),%rax        # 1d096 <g_4+0x56>
    fb61:	48 89 85 a8 eb ff ff 	mov    %rax,-0x1458(%rbp)
    fb68:	48 8d 05 27 d5 00 00 	lea    0xd527(%rip),%rax        # 1d096 <g_4+0x56>
    fb6f:	48 89 85 b0 eb ff ff 	mov    %rax,-0x1450(%rbp)
    fb76:	48 8d 05 19 d5 00 00 	lea    0xd519(%rip),%rax        # 1d096 <g_4+0x56>
    fb7d:	48 89 85 b8 eb ff ff 	mov    %rax,-0x1448(%rbp)
    fb84:	48 8d 05 0b d5 00 00 	lea    0xd50b(%rip),%rax        # 1d096 <g_4+0x56>
    fb8b:	48 89 85 c0 eb ff ff 	mov    %rax,-0x1440(%rbp)
    fb92:	48 8d 05 fd d4 00 00 	lea    0xd4fd(%rip),%rax        # 1d096 <g_4+0x56>
    fb99:	48 89 85 c8 eb ff ff 	mov    %rax,-0x1438(%rbp)
    fba0:	48 8d 05 ef d4 00 00 	lea    0xd4ef(%rip),%rax        # 1d096 <g_4+0x56>
    fba7:	48 89 85 d0 eb ff ff 	mov    %rax,-0x1430(%rbp)
    fbae:	48 8d 05 e1 d4 00 00 	lea    0xd4e1(%rip),%rax        # 1d096 <g_4+0x56>
    fbb5:	48 89 85 d8 eb ff ff 	mov    %rax,-0x1428(%rbp)
    fbbc:	48 8d 05 d3 d4 00 00 	lea    0xd4d3(%rip),%rax        # 1d096 <g_4+0x56>
    fbc3:	48 89 85 e0 eb ff ff 	mov    %rax,-0x1420(%rbp)
    fbca:	48 8d 05 c5 d4 00 00 	lea    0xd4c5(%rip),%rax        # 1d096 <g_4+0x56>
    fbd1:	48 89 85 e8 eb ff ff 	mov    %rax,-0x1418(%rbp)
    fbd8:	48 8d 85 70 eb ff ff 	lea    -0x1490(%rbp),%rax
    fbdf:	48 83 c0 60          	add    $0x60,%rax
    fbe3:	48 89 85 18 e8 ff ff 	mov    %rax,-0x17e8(%rbp)
    fbea:	0f b7 05 ab d4 00 00 	movzwl 0xd4ab(%rip),%eax        # 1d09c <g_4+0x5c>
    fbf1:	0f bf d8             	movswl %ax,%ebx
    fbf4:	8b 05 46 d6 00 00    	mov    0xd646(%rip),%eax        # 1d240 <g_231>
    fbfa:	83 c0 01             	add    $0x1,%eax
    fbfd:	89 05 3d d6 00 00    	mov    %eax,0xd63d(%rip)        # 1d240 <g_231>
    fc03:	0f b6 85 2c e6 ff ff 	movzbl -0x19d4(%rbp),%eax
    fc0a:	3c 05                	cmp    $0x5,%al
    fc0c:	0f 96 c0             	setbe  %al
    fc0f:	44 0f b6 e8          	movzbl %al,%r13d
    fc13:	8b 85 28 e6 ff ff    	mov    -0x19d8(%rbp),%eax
    fc19:	44 0f bf e0          	movswl %ax,%r12d
    fc1d:	0f b7 05 04 d6 00 00 	movzwl 0xd604(%rip),%eax        # 1d228 <g_125>
    fc24:	66 85 c0             	test   %ax,%ax
    fc27:	74 07                	je     fc30 <func_22+0x4282>
    fc29:	ba fe 00 00 00       	mov    $0xfe,%edx
    fc2e:	eb 05                	jmp    fc35 <func_22+0x4287>
    fc30:	ba ff 00 00 00       	mov    $0xff,%edx
    fc35:	48 8b 05 8c d5 00 00 	mov    0xd58c(%rip),%rax        # 1d1c8 <g_21>
    fc3c:	21 d0                	and    %edx,%eax
    fc3e:	0f b7 c0             	movzwl %ax,%eax
    fc41:	be 01 00 00 00       	mov    $0x1,%esi
    fc46:	89 c7                	mov    %eax,%edi
    fc48:	e8 f0 80 ff ff       	callq  7d3d <safe_mul_func_uint16_t_u_u>
    fc4d:	66 3d 9c 00          	cmp    $0x9c,%ax
    fc51:	0f 95 c0             	setne  %al
    fc54:	0f b6 c0             	movzbl %al,%eax
    fc57:	be 07 00 00 00       	mov    $0x7,%esi
    fc5c:	89 c7                	mov    %eax,%edi
    fc5e:	e8 5b 80 ff ff       	callq  7cbe <safe_rshift_func_uint8_t_u_u>
    fc63:	84 c0                	test   %al,%al
    fc65:	48 8b 85 70 e7 ff ff 	mov    -0x1890(%rbp),%rax
    fc6c:	48 89 85 18 e8 ff ff 	mov    %rax,-0x17e8(%rbp)
    fc73:	48 83 bd 18 e8 ff ff 	cmpq   $0x0,-0x17e8(%rbp)
    fc7a:	00 
    fc7b:	74 07                	je     fc84 <func_22+0x42d6>
    fc7d:	b8 01 00 00 00       	mov    $0x1,%eax
    fc82:	eb 05                	jmp    fc89 <func_22+0x42db>
    fc84:	b8 00 00 00 00       	mov    $0x0,%eax
    fc89:	be 00 00 00 00       	mov    $0x0,%esi
    fc8e:	89 c7                	mov    %eax,%edi
    fc90:	e8 1e 77 ff ff       	callq  73b3 <safe_add_func_int16_t_s_s>
    fc95:	48 8b 85 20 e6 ff ff 	mov    -0x19e0(%rbp),%rax
    fc9c:	98                   	cwtl   
    fc9d:	89 c7                	mov    %eax,%edi
    fc9f:	e8 f9 76 ff ff       	callq  739d <safe_unary_minus_func_int16_t_s>
    fca4:	98                   	cwtl   
    fca5:	44 89 e6             	mov    %r12d,%esi
    fca8:	89 c7                	mov    %eax,%edi
    fcaa:	e8 46 77 ff ff       	callq  73f5 <safe_mul_func_int16_t_s_s>
    fcaf:	66 3d 68 0e          	cmp    $0xe68,%ax
    fcb3:	0f 94 c0             	sete   %al
    fcb6:	0f b6 c0             	movzbl %al,%eax
    fcb9:	41 39 c5             	cmp    %eax,%r13d
    fcbc:	0f 9f c0             	setg   %al
    fcbf:	0f b6 c0             	movzbl %al,%eax
    fcc2:	39 85 bc e6 ff ff    	cmp    %eax,-0x1944(%rbp)
    fcc8:	0f 94 c0             	sete   %al
    fccb:	0f b6 d0             	movzbl %al,%edx
    fcce:	8b 85 28 e6 ff ff    	mov    -0x19d8(%rbp),%eax
    fcd4:	39 c2                	cmp    %eax,%edx
    fcd6:	76 11                	jbe    fce9 <func_22+0x433b>
    fcd8:	8b 85 3c e9 ff ff    	mov    -0x16c4(%rbp),%eax
    fcde:	85 c0                	test   %eax,%eax
    fce0:	74 07                	je     fce9 <func_22+0x433b>
    fce2:	b8 01 00 00 00       	mov    $0x1,%eax
    fce7:	eb 05                	jmp    fcee <func_22+0x4340>
    fce9:	b8 00 00 00 00       	mov    $0x0,%eax
    fcee:	98                   	cwtl   
    fcef:	89 de                	mov    %ebx,%esi
    fcf1:	89 c7                	mov    %eax,%edi
    fcf3:	e8 bb 76 ff ff       	callq  73b3 <safe_add_func_int16_t_s_s>
    fcf8:	48 0f bf c0          	movswq %ax,%rax
    fcfc:	48 89 85 58 e7 ff ff 	mov    %rax,-0x18a8(%rbp)
    fd03:	e9 b4 04 00 00       	jmpq   101bc <func_22+0x480e>
    fd08:	66 c7 85 3c e6 ff ff 	movw   $0xffff,-0x19c4(%rbp)
    fd0f:	ff ff 
    fd11:	48 8d 85 48 e6 ff ff 	lea    -0x19b8(%rbp),%rax
    fd18:	48 89 85 e8 e7 ff ff 	mov    %rax,-0x1818(%rbp)
    fd1f:	c7 85 ac e6 ff ff f7 	movl   $0xfffffff7,-0x1954(%rbp)
    fd26:	ff ff ff 
    fd29:	c6 85 30 e6 ff ff e5 	movb   $0xe5,-0x19d0(%rbp)
    fd30:	e9 be 01 00 00       	jmpq   fef3 <func_22+0x4545>
    fd35:	48 c7 85 f8 e7 ff ff 	movq   $0x0,-0x1808(%rbp)
    fd3c:	00 00 00 00 
    fd40:	48 8d 85 e8 e6 ff ff 	lea    -0x1918(%rbp),%rax
    fd47:	48 89 85 d0 f0 ff ff 	mov    %rax,-0xf30(%rbp)
    fd4e:	48 8d 85 e8 e6 ff ff 	lea    -0x1918(%rbp),%rax
    fd55:	48 89 85 d8 f0 ff ff 	mov    %rax,-0xf28(%rbp)
    fd5c:	48 8d 85 e8 e6 ff ff 	lea    -0x1918(%rbp),%rax
    fd63:	48 89 85 e0 f0 ff ff 	mov    %rax,-0xf20(%rbp)
    fd6a:	48 8d 85 e8 e6 ff ff 	lea    -0x1918(%rbp),%rax
    fd71:	48 89 85 e8 f0 ff ff 	mov    %rax,-0xf18(%rbp)
    fd78:	48 8d 85 e8 e6 ff ff 	lea    -0x1918(%rbp),%rax
    fd7f:	48 89 85 f0 f0 ff ff 	mov    %rax,-0xf10(%rbp)
    fd86:	48 8d 85 e8 e6 ff ff 	lea    -0x1918(%rbp),%rax
    fd8d:	48 89 85 f8 f0 ff ff 	mov    %rax,-0xf08(%rbp)
    fd94:	48 8d 85 e8 e6 ff ff 	lea    -0x1918(%rbp),%rax
    fd9b:	48 89 85 00 f1 ff ff 	mov    %rax,-0xf00(%rbp)
    fda2:	c7 85 50 e6 ff ff 00 	movl   $0x0,-0x19b0(%rbp)
    fda9:	00 00 00 
    fdac:	eb 1b                	jmp    fdc9 <func_22+0x441b>
    fdae:	8b 85 50 e6 ff ff    	mov    -0x19b0(%rbp),%eax
    fdb4:	48 98                	cltq   
    fdb6:	48 c7 84 c5 b0 ec ff 	movq   $0x0,-0x1350(%rbp,%rax,8)
    fdbd:	ff 00 00 00 00 
    fdc2:	83 85 50 e6 ff ff 01 	addl   $0x1,-0x19b0(%rbp)
    fdc9:	83 bd 50 e6 ff ff 04 	cmpl   $0x4,-0x19b0(%rbp)
    fdd0:	7e dc                	jle    fdae <func_22+0x4400>
    fdd2:	48 8b 05 c7 d6 00 00 	mov    0xd6c7(%rip),%rax        # 1d4a0 <g_937>
    fdd9:	0f b6 85 2c e6 ff ff 	movzbl -0x19d4(%rbp),%eax
    fde0:	0f be d8             	movsbl %al,%ebx
    fde3:	be ff ff ff ff       	mov    $0xffffffff,%esi
    fde8:	bf 93 e1 ff ff       	mov    $0xffffe193,%edi
    fded:	e8 c1 75 ff ff       	callq  73b3 <safe_add_func_int16_t_s_s>
    fdf2:	0f b6 05 db d3 00 00 	movzbl 0xd3db(%rip),%eax        # 1d1d4 <g_40>
    fdf9:	c1 e0 06             	shl    $0x6,%eax
    fdfc:	c0 f8 06             	sar    $0x6,%al
    fdff:	0f be d0             	movsbl %al,%edx
    fe02:	0f b7 05 1f d4 00 00 	movzwl 0xd41f(%rip),%eax        # 1d228 <g_125>
    fe09:	66 89 05 18 d4 00 00 	mov    %ax,0xd418(%rip)        # 1d228 <g_125>
    fe10:	0f b7 05 11 d4 00 00 	movzwl 0xd411(%rip),%eax        # 1d228 <g_125>
    fe17:	98                   	cwtl   
    fe18:	89 d6                	mov    %edx,%esi
    fe1a:	89 c7                	mov    %eax,%edi
    fe1c:	e8 42 77 ff ff       	callq  7563 <safe_rshift_func_int16_t_s_u>
    fe21:	89 c2                	mov    %eax,%edx
    fe23:	48 8b 85 18 e7 ff ff 	mov    -0x18e8(%rbp),%rax
    fe2a:	88 10                	mov    %dl,(%rax)
    fe2c:	0f b6 00             	movzbl (%rax),%eax
    fe2f:	0f be c0             	movsbl %al,%eax
    fe32:	89 de                	mov    %ebx,%esi
    fe34:	89 c7                	mov    %eax,%edi
    fe36:	e8 b7 73 ff ff       	callq  71f2 <safe_sub_func_int8_t_s_s>
    fe3b:	84 c0                	test   %al,%al
    fe3d:	74 11                	je     fe50 <func_22+0x44a2>
    fe3f:	66 83 bd 3c e6 ff ff 	cmpw   $0x0,-0x19c4(%rbp)
    fe46:	00 
    fe47:	74 07                	je     fe50 <func_22+0x44a2>
    fe49:	b8 01 00 00 00       	mov    $0x1,%eax
    fe4e:	eb 05                	jmp    fe55 <func_22+0x44a7>
    fe50:	b8 00 00 00 00       	mov    $0x0,%eax
    fe55:	48 63 d0             	movslq %eax,%rdx
    fe58:	48 8b 05 81 f1 00 00 	mov    0xf181(%rip),%rax        # 1efe0 <g_941>
    fe5f:	48 89 05 8a f1 00 00 	mov    %rax,0xf18a(%rip)        # 1eff0 <g_944>
    fe66:	48 8b 0d 83 f1 00 00 	mov    0xf183(%rip),%rcx        # 1eff0 <g_944>
    fe6d:	48 8b 05 5c f1 00 00 	mov    0xf15c(%rip),%rax        # 1efd0 <g_914>
    fe74:	48 8b 00             	mov    (%rax),%rax
    fe77:	48 39 c1             	cmp    %rax,%rcx
    fe7a:	0f 95 c0             	setne  %al
    fe7d:	0f b6 c0             	movzbl %al,%eax
    fe80:	48 89 d6             	mov    %rdx,%rsi
    fe83:	48 89 c7             	mov    %rax,%rdi
    fe86:	e8 24 82 ff ff       	callq  80af <safe_div_func_uint64_t_u_u>
    fe8b:	48 8d 85 2c e6 ff ff 	lea    -0x19d4(%rbp),%rax
    fe92:	48 39 85 78 e7 ff ff 	cmp    %rax,-0x1888(%rbp)
    fe99:	0f 95 c0             	setne  %al
    fe9c:	0f b6 c0             	movzbl %al,%eax
    fe9f:	48 89 05 32 d3 00 00 	mov    %rax,0xd332(%rip)        # 1d1d8 <g_42>
    fea6:	48 8b 05 2b d3 00 00 	mov    0xd32b(%rip),%rax        # 1d1d8 <g_42>
    fead:	83 e0 08             	and    $0x8,%eax
    feb0:	48 85 c0             	test   %rax,%rax
    feb3:	48 8b 05 b6 fc 00 00 	mov    0xfcb6(%rip),%rax        # 1fb70 <g_468>
    feba:	48 85 c0             	test   %rax,%rax
    febd:	0f 95 c0             	setne  %al
    fec0:	0f b6 c8             	movzbl %al,%ecx
    fec3:	48 8b 05 9e fc 00 00 	mov    0xfc9e(%rip),%rax        # 1fb68 <g_387>
    feca:	8b 10                	mov    (%rax),%edx
    fecc:	48 8b 05 95 fc 00 00 	mov    0xfc95(%rip),%rax        # 1fb68 <g_387>
    fed3:	31 ca                	xor    %ecx,%edx
    fed5:	89 10                	mov    %edx,(%rax)
    fed7:	0f b6 85 30 e6 ff ff 	movzbl -0x19d0(%rbp),%eax
    fede:	0f b6 c0             	movzbl %al,%eax
    fee1:	be 04 00 00 00       	mov    $0x4,%esi
    fee6:	89 c7                	mov    %eax,%edi
    fee8:	e8 c6 74 ff ff       	callq  73b3 <safe_add_func_int16_t_s_s>
    feed:	88 85 30 e6 ff ff    	mov    %al,-0x19d0(%rbp)
    fef3:	0f b6 85 30 e6 ff ff 	movzbl -0x19d0(%rbp),%eax
    fefa:	3c 01                	cmp    $0x1,%al
    fefc:	0f 85 33 fe ff ff    	jne    fd35 <func_22+0x4387>
    ff02:	48 c7 05 23 d3 00 00 	movq   $0x0,0xd323(%rip)        # 1d230 <g_129>
    ff09:	00 00 00 00 
    ff0d:	90                   	nop
    ff0e:	48 8b 05 1b d3 00 00 	mov    0xd31b(%rip),%rax        # 1d230 <g_129>
    ff15:	48 83 f8 e8          	cmp    $0xffffffffffffffe8,%rax
    ff19:	7c 1a                	jl     ff35 <func_22+0x4587>
    ff1b:	48 8d 05 9e d2 00 00 	lea    0xd29e(%rip),%rax        # 1d1c0 <g_11>
    ff22:	48 89 85 f0 e7 ff ff 	mov    %rax,-0x1810(%rbp)
    ff29:	48 8b 85 f0 e7 ff ff 	mov    -0x1810(%rbp),%rax
    ff30:	e9 e8 12 00 00       	jmpq   1121d <func_22+0x586f>
    ff35:	c7 05 01 d3 00 00 e6 	movl   $0xffffffe6,0xd301(%rip)        # 1d240 <g_231>
    ff3c:	ff ff ff 
    ff3f:	e9 47 02 00 00       	jmpq   1018b <func_22+0x47dd>
    ff44:	c7 85 b0 e6 ff ff 00 	movl   $0x0,-0x1950(%rbp)
    ff4b:	00 00 00 
    ff4e:	c7 85 b4 e6 ff ff 88 	movl   $0x6f2aab88,-0x194c(%rbp)
    ff55:	ab 2a 6f 
    ff58:	c7 85 b8 e6 ff ff 00 	movl   $0x0,-0x1948(%rbp)
    ff5f:	00 00 00 
    ff62:	48 8b 05 9f f0 00 00 	mov    0xf09f(%rip),%rax        # 1f008 <g_966>
    ff69:	48 8b 95 38 ef ff ff 	mov    -0x10c8(%rbp),%rdx
    ff70:	48 89 10             	mov    %rdx,(%rax)
    ff73:	8b 05 cf d2 00 00    	mov    0xd2cf(%rip),%eax        # 1d248 <g_236>
    ff79:	89 85 1c e6 ff ff    	mov    %eax,-0x19e4(%rbp)
    ff7f:	0f b6 85 2c e6 ff ff 	movzbl -0x19d4(%rbp),%eax
    ff86:	0f be d8             	movsbl %al,%ebx
    ff89:	44 0f b7 bd 38 e6 ff 	movzwl -0x19c8(%rbp),%r15d
    ff90:	ff 
    ff91:	8b 85 ac e6 ff ff    	mov    -0x1954(%rbp),%eax
    ff97:	44 0f be e0          	movsbl %al,%r12d
    ff9b:	8b 85 94 e6 ff ff    	mov    -0x196c(%rbp),%eax
    ffa1:	0f b6 c0             	movzbl %al,%eax
    ffa4:	be 00 00 00 00       	mov    $0x0,%esi
    ffa9:	89 c7                	mov    %eax,%edi
    ffab:	e8 55 7c ff ff       	callq  7c05 <safe_lshift_func_uint8_t_u_s>
    ffb0:	44 0f b6 e8          	movzbl %al,%r13d
    ffb4:	0f b6 85 31 e6 ff ff 	movzbl -0x19cf(%rbp),%eax
    ffbb:	48 89 c6             	mov    %rax,%rsi
    ffbe:	48 bf 7f 72 c7 ea f3 	movabs $0x2452fbf3eac7727f,%rdi
    ffc5:	fb 52 24 
    ffc8:	e8 b3 80 ff ff       	callq  8080 <safe_mod_func_uint64_t_u_u>
    ffcd:	0f b7 c0             	movzwl %ax,%eax
    ffd0:	44 89 ee             	mov    %r13d,%esi
    ffd3:	89 c7                	mov    %eax,%edi
    ffd5:	e8 45 7d ff ff       	callq  7d1f <safe_sub_func_uint16_t_u_u>
    ffda:	48 8b 95 e8 e7 ff ff 	mov    -0x1818(%rbp),%rdx
    ffe1:	8b 12                	mov    (%rdx),%edx
    ffe3:	0f b7 c0             	movzwl %ax,%eax
    ffe6:	31 c2                	xor    %eax,%edx
    ffe8:	48 8b 85 e8 e7 ff ff 	mov    -0x1818(%rbp),%rax
    ffef:	89 10                	mov    %edx,(%rax)
    fff1:	48 8b 85 e8 e7 ff ff 	mov    -0x1818(%rbp),%rax
    fff8:	8b 00                	mov    (%rax),%eax
    fffa:	48 63 c8             	movslq %eax,%rcx
    fffd:	48 89 8d 10 e6 ff ff 	mov    %rcx,-0x19f0(%rbp)
   10004:	44 8b ad b0 e6 ff ff 	mov    -0x1950(%rbp),%r13d
   1000b:	0f b6 85 2c e6 ff ff 	movzbl -0x19d4(%rbp),%eax
   10012:	44 0f b6 f0          	movzbl %al,%r14d
   10016:	8b 05 a4 d1 00 00    	mov    0xd1a4(%rip),%eax        # 1d1c0 <g_11>
   1001c:	0f bf d0             	movswl %ax,%edx
   1001f:	48 8b 05 ca ef 00 00 	mov    0xefca(%rip),%rax        # 1eff0 <g_944>
   10026:	48 8b 00             	mov    (%rax),%rax
   10029:	48 85 c0             	test   %rax,%rax
   1002c:	0f 94 c0             	sete   %al
   1002f:	0f b6 c0             	movzbl %al,%eax
   10032:	89 d6                	mov    %edx,%esi
   10034:	89 c7                	mov    %eax,%edi
   10036:	e8 98 73 ff ff       	callq  73d3 <safe_sub_func_int16_t_s_s>
   1003b:	be 0c 00 00 00       	mov    $0xc,%esi
   10040:	bf 01 00 00 00       	mov    $0x1,%edi
   10045:	e8 fe 7d ff ff       	callq  7e48 <safe_rshift_func_uint16_t_u_s>
   1004a:	0f b7 d0             	movzwl %ax,%edx
   1004d:	48 8b 85 20 e6 ff ff 	mov    -0x19e0(%rbp),%rax
   10054:	0f b7 c0             	movzwl %ax,%eax
   10057:	89 d6                	mov    %edx,%esi
   10059:	89 c7                	mov    %eax,%edi
   1005b:	e8 bf 7c ff ff       	callq  7d1f <safe_sub_func_uint16_t_u_u>
   10060:	0f b6 95 2c e6 ff ff 	movzbl -0x19d4(%rbp),%edx
   10067:	0f b6 d2             	movzbl %dl,%edx
   1006a:	66 39 d0             	cmp    %dx,%ax
   1006d:	0f 95 c0             	setne  %al
   10070:	0f b6 c0             	movzbl %al,%eax
   10073:	44 89 f6             	mov    %r14d,%esi
   10076:	89 c7                	mov    %eax,%edi
   10078:	e8 24 72 ff ff       	callq  72a1 <safe_lshift_func_int8_t_s_s>
   1007d:	be 07 00 00 00       	mov    $0x7,%esi
   10082:	bf 01 00 00 00       	mov    $0x1,%edi
   10087:	e8 c0 7b ff ff       	callq  7c4c <safe_lshift_func_uint8_t_u_u>
   1008c:	0f b6 c0             	movzbl %al,%eax
   1008f:	44 89 ee             	mov    %r13d,%esi
   10092:	89 c7                	mov    %eax,%edi
   10094:	e8 91 74 ff ff       	callq  752a <safe_rshift_func_int16_t_s_s>
   10099:	48 0f bf c0          	movswq %ax,%rax
   1009d:	25 f8 fa 00 00       	and    $0xfaf8,%eax
   100a2:	48 39 85 10 e6 ff ff 	cmp    %rax,-0x19f0(%rbp)
   100a9:	0f 9f c0             	setg   %al
   100ac:	0f b6 c0             	movzbl %al,%eax
   100af:	be 01 00 00 00       	mov    $0x1,%esi
   100b4:	89 c7                	mov    %eax,%edi
   100b6:	e8 7a 72 ff ff       	callq  7335 <safe_rshift_func_int8_t_s_s>
   100bb:	0f be d0             	movsbl %al,%edx
   100be:	8b 85 28 e6 ff ff    	mov    -0x19d8(%rbp),%eax
   100c4:	39 c2                	cmp    %eax,%edx
   100c6:	0f 96 c0             	setbe  %al
   100c9:	0f b6 c0             	movzbl %al,%eax
   100cc:	89 c7                	mov    %eax,%edi
   100ce:	e8 16 7c ff ff       	callq  7ce9 <safe_unary_minus_func_uint16_t_u>
   100d3:	0f be c0             	movsbl %al,%eax
   100d6:	44 89 e6             	mov    %r12d,%esi
   100d9:	89 c7                	mov    %eax,%edi
   100db:	e8 f4 70 ff ff       	callq  71d4 <safe_add_func_int8_t_s_s>
   100e0:	0f be c0             	movsbl %al,%eax
   100e3:	44 09 f8             	or     %r15d,%eax
   100e6:	39 85 b0 e6 ff ff    	cmp    %eax,-0x1950(%rbp)
   100ec:	0f 95 c0             	setne  %al
   100ef:	0f b6 c0             	movzbl %al,%eax
   100f2:	21 85 b4 e6 ff ff    	and    %eax,-0x194c(%rbp)
   100f8:	8b 85 b4 e6 ff ff    	mov    -0x194c(%rbp),%eax
   100fe:	48 98                	cltq   
   10100:	48 89 c7             	mov    %rax,%rdi
   10103:	e8 11 7f ff ff       	callq  8019 <safe_unary_minus_func_uint64_t_u>
   10108:	0f be c0             	movsbl %al,%eax
   1010b:	89 de                	mov    %ebx,%esi
   1010d:	89 c7                	mov    %eax,%edi
   1010f:	e8 fe 70 ff ff       	callq  7212 <safe_mul_func_int8_t_s_s>
   10114:	3c ff                	cmp    $0xff,%al
   10116:	0f 95 c0             	setne  %al
   10119:	0f b6 c0             	movzbl %al,%eax
   1011c:	8b b5 1c e6 ff ff    	mov    -0x19e4(%rbp),%esi
   10122:	89 c7                	mov    %eax,%edi
   10124:	e8 c5 71 ff ff       	callq  72ee <safe_lshift_func_int8_t_s_u>
   10129:	0f be d0             	movsbl %al,%edx
   1012c:	48 8b 85 48 e7 ff ff 	mov    -0x18b8(%rbp),%rax
   10133:	48 8b 00             	mov    (%rax),%rax
   10136:	8b 00                	mov    (%rax),%eax
   10138:	0f b7 c0             	movzwl %ax,%eax
   1013b:	89 d6                	mov    %edx,%esi
   1013d:	89 c7                	mov    %eax,%edi
   1013f:	e8 36 7d ff ff       	callq  7e7a <safe_rshift_func_uint16_t_u_u>
   10144:	66 83 f8 1c          	cmp    $0x1c,%ax
   10148:	0f 97 c0             	seta   %al
   1014b:	0f b6 c0             	movzbl %al,%eax
   1014e:	48 8b 95 50 e9 ff ff 	mov    -0x16b0(%rbp),%rdx
   10155:	48 98                	cltq   
   10157:	48 21 d0             	and    %rdx,%rax
   1015a:	48 89 85 50 e9 ff ff 	mov    %rax,-0x16b0(%rbp)
   10161:	8b 05 4d d3 00 00    	mov    0xd34d(%rip),%eax        # 1d4b4 <g_1007>
   10167:	83 c0 01             	add    $0x1,%eax
   1016a:	89 05 44 d3 00 00    	mov    %eax,0xd344(%rip)        # 1d4b4 <g_1007>
   10170:	8b 05 ca d0 00 00    	mov    0xd0ca(%rip),%eax        # 1d240 <g_231>
   10176:	89 c0                	mov    %eax,%eax
   10178:	be 03 00 00 00       	mov    $0x3,%esi
   1017d:	48 89 c7             	mov    %rax,%rdi
   10180:	e8 bc 76 ff ff       	callq  7841 <safe_add_func_int64_t_s_s>
   10185:	89 05 b5 d0 00 00    	mov    %eax,0xd0b5(%rip)        # 1d240 <g_231>
   1018b:	8b 05 af d0 00 00    	mov    0xd0af(%rip),%eax        # 1d240 <g_231>
   10191:	83 f8 0a             	cmp    $0xa,%eax
   10194:	0f 85 aa fd ff ff    	jne    ff44 <func_22+0x4596>
   1019a:	0f b6 85 2c e6 ff ff 	movzbl -0x19d4(%rbp),%eax
   101a1:	0f b6 c0             	movzbl %al,%eax
   101a4:	89 85 94 e6 ff ff    	mov    %eax,-0x196c(%rbp)
   101aa:	48 8b 85 00 e7 ff ff 	mov    -0x1900(%rbp),%rax
   101b1:	48 8b 00             	mov    (%rax),%rax
   101b4:	8b 95 94 e6 ff ff    	mov    -0x196c(%rbp),%edx
   101ba:	89 10                	mov    %edx,(%rax)
   101bc:	c6 05 75 d0 00 00 f3 	movb   $0xf3,0xd075(%rip)        # 1d238 <g_163>
   101c3:	90                   	nop
   101c4:	0f b6 05 6d d0 00 00 	movzbl 0xd06d(%rip),%eax        # 1d238 <g_163>
   101cb:	3c 3a                	cmp    $0x3a,%al
   101cd:	0f 86 8e 03 00 00    	jbe    10561 <func_22+0x4bb3>
   101d3:	48 8d 05 56 d0 00 00 	lea    0xd056(%rip),%rax        # 1d230 <g_129>
   101da:	48 89 85 30 e7 ff ff 	mov    %rax,-0x18d0(%rbp)
   101e1:	c7 85 c0 e6 ff ff 96 	movl   $0xec725b96,-0x1940(%rbp)
   101e8:	5b 72 ec 
   101eb:	c7 85 c4 e6 ff ff 01 	movl   $0x1,-0x193c(%rbp)
   101f2:	00 00 00 
   101f5:	48 8d 85 30 e7 ff ff 	lea    -0x18d0(%rbp),%rax
   101fc:	48 89 85 68 e8 ff ff 	mov    %rax,-0x1798(%rbp)
   10203:	c6 85 35 e6 ff ff de 	movb   $0xde,-0x19cb(%rbp)
   1020a:	0f b6 05 41 d0 00 00 	movzbl 0xd041(%rip),%eax        # 1d252 <g_294>
   10211:	0f b6 d8             	movzbl %al,%ebx
   10214:	8b 85 28 e6 ff ff    	mov    -0x19d8(%rbp),%eax
   1021a:	44 0f bf e0          	movswl %ax,%r12d
   1021e:	8b 05 5c d0 00 00    	mov    0xd05c(%rip),%eax        # 1d280 <g_617>
   10224:	44 0f b7 e8          	movzwl %ax,%r13d
   10228:	8b 05 a6 d2 00 00    	mov    0xd2a6(%rip),%eax        # 1d4d4 <g_1034+0x14>
   1022e:	48 8b 85 20 e6 ff ff 	mov    -0x19e0(%rbp),%rax
   10235:	89 85 94 e6 ff ff    	mov    %eax,-0x196c(%rbp)
   1023b:	8b 85 94 e6 ff ff    	mov    -0x196c(%rbp),%eax
   10241:	0f b7 c0             	movzwl %ax,%eax
   10244:	be 09 00 00 00       	mov    $0x9,%esi
   10249:	89 c7                	mov    %eax,%edi
   1024b:	e8 6e 7b ff ff       	callq  7dbe <safe_lshift_func_uint16_t_u_s>
   10250:	98                   	cwtl   
   10251:	be 4c a8 ff ff       	mov    $0xffffa84c,%esi
   10256:	89 c7                	mov    %eax,%edi
   10258:	e8 f8 71 ff ff       	callq  7455 <safe_div_func_int16_t_s_s>
   1025d:	0f b7 c0             	movzwl %ax,%eax
   10260:	44 89 ee             	mov    %r13d,%esi
   10263:	89 c7                	mov    %eax,%edi
   10265:	e8 b5 7a ff ff       	callq  7d1f <safe_sub_func_uint16_t_u_u>
   1026a:	98                   	cwtl   
   1026b:	44 89 e6             	mov    %r12d,%esi
   1026e:	89 c7                	mov    %eax,%edi
   10270:	e8 80 71 ff ff       	callq  73f5 <safe_mul_func_int16_t_s_s>
   10275:	98                   	cwtl   
   10276:	23 85 c0 e6 ff ff    	and    -0x1940(%rbp),%eax
   1027c:	48 98                	cltq   
   1027e:	48 89 c6             	mov    %rax,%rsi
   10281:	48 bf 86 2f 81 40 b8 	movabs $0xfda7a2b840812f86,%rdi
   10288:	a2 a7 fd 
   1028b:	e8 bb 7d ff ff       	callq  804b <safe_sub_func_uint64_t_u_u>
   10290:	0f be c0             	movsbl %al,%eax
   10293:	89 de                	mov    %ebx,%esi
   10295:	89 c7                	mov    %eax,%edi
   10297:	e8 99 70 ff ff       	callq  7335 <safe_rshift_func_int8_t_s_s>
   1029c:	48 0f be d0          	movsbq %al,%rdx
   102a0:	48 8d 05 a9 e5 00 00 	lea    0xe5a9(%rip),%rax        # 1e850 <g_87>
   102a7:	48 39 85 60 e7 ff ff 	cmp    %rax,-0x18a0(%rbp)
   102ae:	0f 94 c1             	sete   %cl
   102b1:	48 8b 85 30 e7 ff ff 	mov    -0x18d0(%rbp),%rax
   102b8:	0f b6 c9             	movzbl %cl,%ecx
   102bb:	48 89 08             	mov    %rcx,(%rax)
   102be:	48 8b 00             	mov    (%rax),%rax
   102c1:	48 89 d6             	mov    %rdx,%rsi
   102c4:	48 89 c7             	mov    %rax,%rdi
   102c7:	e8 dc 75 ff ff       	callq  78a8 <safe_sub_func_int64_t_s_s>
   102cc:	09 85 c4 e6 ff ff    	or     %eax,-0x193c(%rbp)
   102d2:	83 bd c4 e6 ff ff 00 	cmpl   $0x0,-0x193c(%rbp)
   102d9:	74 11                	je     102ec <func_22+0x493e>
   102db:	8b 85 28 e6 ff ff    	mov    -0x19d8(%rbp),%eax
   102e1:	85 c0                	test   %eax,%eax
   102e3:	74 07                	je     102ec <func_22+0x493e>
   102e5:	b8 01 00 00 00       	mov    $0x1,%eax
   102ea:	eb 05                	jmp    102f1 <func_22+0x4943>
   102ec:	b8 00 00 00 00       	mov    $0x0,%eax
   102f1:	0f b6 c0             	movzbl %al,%eax
   102f4:	be 01 00 00 00       	mov    $0x1,%esi
   102f9:	89 c7                	mov    %eax,%edi
   102fb:	e8 ae 78 ff ff       	callq  7bae <safe_mod_func_uint8_t_u_u>
   10300:	0f b6 15 de ce 00 00 	movzbl 0xcede(%rip),%edx        # 1d1e5 <g_91+0x1>
   10307:	0f b6 d2             	movzbl %dl,%edx
   1030a:	0f b6 c8             	movzbl %al,%ecx
   1030d:	8b 05 6d d2 00 00    	mov    0xd26d(%rip),%eax        # 1d580 <g_1039>
   10313:	09 c8                	or     %ecx,%eax
   10315:	89 05 65 d2 00 00    	mov    %eax,0xd265(%rip)        # 1d580 <g_1039>
   1031b:	8b 05 5f d2 00 00    	mov    0xd25f(%rip),%eax        # 1d580 <g_1039>
   10321:	39 c2                	cmp    %eax,%edx
   10323:	0f 9d c0             	setge  %al
   10326:	0f b6 c0             	movzbl %al,%eax
   10329:	be 00 00 00 00       	mov    $0x0,%esi
   1032e:	89 c7                	mov    %eax,%edi
   10330:	e8 dd 6e ff ff       	callq  7212 <safe_mul_func_int8_t_s_s>
   10335:	66 98                	cbtw   
   10337:	0f b7 d0             	movzwl %ax,%edx
   1033a:	0f b7 05 0f cf 00 00 	movzwl 0xcf0f(%rip),%eax        # 1d250 <g_264>
   10341:	0f b7 c0             	movzwl %ax,%eax
   10344:	89 d6                	mov    %edx,%esi
   10346:	89 c7                	mov    %eax,%edi
   10348:	e8 d2 79 ff ff       	callq  7d1f <safe_sub_func_uint16_t_u_u>
   1034d:	0f b7 c0             	movzwl %ax,%eax
   10350:	31 85 98 e6 ff ff    	xor    %eax,-0x1968(%rbp)
   10356:	48 8b 05 43 d1 00 00 	mov    0xd143(%rip),%rax        # 1d4a0 <g_937>
   1035d:	48 0f be 9d 35 e6 ff 	movsbq -0x19cb(%rbp),%rbx
   10364:	ff 
   10365:	48 8b 85 20 e6 ff ff 	mov    -0x19e0(%rbp),%rax
   1036c:	41 89 c5             	mov    %eax,%r13d
   1036f:	0f b6 85 4f e9 ff ff 	movzbl -0x16b1(%rbp),%eax
   10376:	44 0f b6 e0          	movzbl %al,%r12d
   1037a:	0f b6 05 2f d1 00 00 	movzbl 0xd12f(%rip),%eax        # 1d4b0 <g_987>
   10381:	c1 e0 06             	shl    $0x6,%eax
   10384:	c0 f8 06             	sar    $0x6,%al
   10387:	88 85 1c e6 ff ff    	mov    %al,-0x19e4(%rbp)
   1038d:	48 8b 85 f0 e6 ff ff 	mov    -0x1910(%rbp),%rax
   10394:	48 8b 00             	mov    (%rax),%rax
   10397:	48 8b 00             	mov    (%rax),%rax
   1039a:	8b 00                	mov    (%rax),%eax
   1039c:	41 89 c7             	mov    %eax,%r15d
   1039f:	48 8b 85 20 e6 ff ff 	mov    -0x19e0(%rbp),%rax
   103a6:	41 89 c6             	mov    %eax,%r14d
   103a9:	48 8b 05 a8 e4 00 00 	mov    0xe4a8(%rip),%rax        # 1e858 <g_218>
   103b0:	8b 00                	mov    (%rax),%eax
   103b2:	89 c1                	mov    %eax,%ecx
   103b4:	48 8b 85 68 e8 ff ff 	mov    -0x1798(%rbp),%rax
   103bb:	48 8d 95 50 e9 ff ff 	lea    -0x16b0(%rbp),%rdx
   103c2:	48 89 10             	mov    %rdx,(%rax)
   103c5:	48 8b 85 68 e8 ff ff 	mov    -0x1798(%rbp),%rax
   103cc:	48 8b 00             	mov    (%rax),%rax
   103cf:	48 8d 15 5a ce 00 00 	lea    0xce5a(%rip),%rdx        # 1d230 <g_129>
   103d6:	48 39 d0             	cmp    %rdx,%rax
   103d9:	0f 95 c0             	setne  %al
   103dc:	0f b6 c0             	movzbl %al,%eax
   103df:	89 ce                	mov    %ecx,%esi
   103e1:	89 c7                	mov    %eax,%edi
   103e3:	e8 15 7b ff ff       	callq  7efd <safe_mod_func_uint32_t_u_u>
   103e8:	0f b6 c0             	movzbl %al,%eax
   103eb:	44 89 f6             	mov    %r14d,%esi
   103ee:	89 c7                	mov    %eax,%edi
   103f0:	e8 10 78 ff ff       	callq  7c05 <safe_lshift_func_uint8_t_u_s>
   103f5:	0f b6 c0             	movzbl %al,%eax
   103f8:	8b 95 c4 e6 ff ff    	mov    -0x193c(%rbp),%edx
   103fe:	89 d6                	mov    %edx,%esi
   10400:	89 c7                	mov    %eax,%edi
   10402:	e8 fe 77 ff ff       	callq  7c05 <safe_lshift_func_uint8_t_u_s>
   10407:	0f b6 c0             	movzbl %al,%eax
   1040a:	44 09 f8             	or     %r15d,%eax
   1040d:	0f b7 d0             	movzwl %ax,%edx
   10410:	0f b6 05 79 f7 00 00 	movzbl 0xf779(%rip),%eax        # 1fb90 <g_947>
   10417:	c1 e0 06             	shl    $0x6,%eax
   1041a:	c0 f8 06             	sar    $0x6,%al
   1041d:	66 98                	cbtw   
   1041f:	0f b7 c0             	movzwl %ax,%eax
   10422:	89 d6                	mov    %edx,%esi
   10424:	89 c7                	mov    %eax,%edi
   10426:	e8 63 79 ff ff       	callq  7d8e <safe_div_func_uint16_t_u_u>
   1042b:	66 85 c0             	test   %ax,%ax
   1042e:	74 11                	je     10441 <func_22+0x4a93>
   10430:	8b 85 28 e6 ff ff    	mov    -0x19d8(%rbp),%eax
   10436:	85 c0                	test   %eax,%eax
   10438:	74 07                	je     10441 <func_22+0x4a93>
   1043a:	b8 01 00 00 00       	mov    $0x1,%eax
   1043f:	eb 05                	jmp    10446 <func_22+0x4a98>
   10441:	b8 00 00 00 00       	mov    $0x0,%eax
   10446:	0f be d0             	movsbl %al,%edx
   10449:	0f b7 05 04 ce 00 00 	movzwl 0xce04(%rip),%eax        # 1d254 <g_320>
   10450:	0f be c0             	movsbl %al,%eax
   10453:	89 d6                	mov    %edx,%esi
   10455:	89 c7                	mov    %eax,%edi
   10457:	e8 b6 6d ff ff       	callq  7212 <safe_mul_func_int8_t_s_s>
   1045c:	89 c2                	mov    %eax,%edx
   1045e:	48 8b 85 18 e7 ff ff 	mov    -0x18e8(%rbp),%rax
   10465:	f7 d2                	not    %edx
   10467:	88 10                	mov    %dl,(%rax)
   10469:	0f b6 00             	movzbl (%rax),%eax
   1046c:	32 85 1c e6 ff ff    	xor    -0x19e4(%rbp),%al
   10472:	0f be c0             	movsbl %al,%eax
   10475:	be 66 00 00 00       	mov    $0x66,%esi
   1047a:	89 c7                	mov    %eax,%edi
   1047c:	e8 53 6d ff ff       	callq  71d4 <safe_add_func_int8_t_s_s>
   10481:	66 98                	cbtw   
   10483:	0f b7 c0             	movzwl %ax,%eax
   10486:	44 89 e6             	mov    %r12d,%esi
   10489:	89 c7                	mov    %eax,%edi
   1048b:	e8 8f 78 ff ff       	callq  7d1f <safe_sub_func_uint16_t_u_u>
   10490:	66 85 c0             	test   %ax,%ax
   10493:	75 09                	jne    1049e <func_22+0x4af0>
   10495:	83 bd c4 e6 ff ff 00 	cmpl   $0x0,-0x193c(%rbp)
   1049c:	74 07                	je     104a5 <func_22+0x4af7>
   1049e:	b8 01 00 00 00       	mov    $0x1,%eax
   104a3:	eb 05                	jmp    104aa <func_22+0x4afc>
   104a5:	b8 00 00 00 00       	mov    $0x0,%eax
   104aa:	44 89 ee             	mov    %r13d,%esi
   104ad:	89 c7                	mov    %eax,%edi
   104af:	e8 04 7a ff ff       	callq  7eb8 <safe_add_func_uint32_t_u_u>
   104b4:	0f bf d0             	movswl %ax,%edx
   104b7:	8b 05 f7 cf 00 00    	mov    0xcff7(%rip),%eax        # 1d4b4 <g_1007>
   104bd:	98                   	cwtl   
   104be:	89 d6                	mov    %edx,%esi
   104c0:	89 c7                	mov    %eax,%edi
   104c2:	e8 2e 6f ff ff       	callq  73f5 <safe_mul_func_int16_t_s_s>
   104c7:	48 0f bf c0          	movswq %ax,%rax
   104cb:	83 e0 04             	and    $0x4,%eax
   104ce:	48 85 c0             	test   %rax,%rax
   104d1:	74 0a                	je     104dd <func_22+0x4b2f>
   104d3:	48 8b 85 50 e9 ff ff 	mov    -0x16b0(%rbp),%rax
   104da:	48 85 c0             	test   %rax,%rax
   104dd:	0f b6 85 2c e6 ff ff 	movzbl -0x19d4(%rbp),%eax
   104e4:	84 c0                	test   %al,%al
   104e6:	0f 94 c0             	sete   %al
   104e9:	0f b6 c0             	movzbl %al,%eax
   104ec:	48 89 de             	mov    %rbx,%rsi
   104ef:	48 89 c7             	mov    %rax,%rdi
   104f2:	e8 b1 73 ff ff       	callq  78a8 <safe_sub_func_int64_t_s_s>
   104f7:	0f be c0             	movsbl %al,%eax
   104fa:	be fc ff ff ff       	mov    $0xfffffffc,%esi
   104ff:	89 c7                	mov    %eax,%edi
   10501:	e8 ec 6c ff ff       	callq  71f2 <safe_sub_func_int8_t_s_s>
   10506:	0f be d0             	movsbl %al,%edx
   10509:	8b 85 28 e6 ff ff    	mov    -0x19d8(%rbp),%eax
   1050f:	39 c2                	cmp    %eax,%edx
   10511:	0f 97 c0             	seta   %al
   10514:	0f b6 d0             	movzbl %al,%edx
   10517:	48 8b 85 f0 e6 ff ff 	mov    -0x1910(%rbp),%rax
   1051e:	48 8b 00             	mov    (%rax),%rax
   10521:	48 8b 00             	mov    (%rax),%rax
   10524:	8b 00                	mov    (%rax),%eax
   10526:	39 c2                	cmp    %eax,%edx
   10528:	7c 0b                	jl     10535 <func_22+0x4b87>
   1052a:	0f b6 05 b6 cc 00 00 	movzbl 0xccb6(%rip),%eax        # 1d1e7 <g_91+0x3>
   10531:	84 c0                	test   %al,%al
   10533:	75 0c                	jne    10541 <func_22+0x4b93>
   10535:	48 8b 05 f4 e7 00 00 	mov    0xe7f4(%rip),%rax        # 1ed30 <g_547>
   1053c:	0f b6 00             	movzbl (%rax),%eax
   1053f:	84 c0                	test   %al,%al
   10541:	90                   	nop
   10542:	48 8b 05 af ea 00 00 	mov    0xeaaf(%rip),%rax        # 1eff8 <g_968>
   10549:	48 8b 00             	mov    (%rax),%rax
   1054c:	c7 00 01 00 00 00    	movl   $0x1,(%rax)
   10552:	48 8b 85 48 e7 ff ff 	mov    -0x18b8(%rbp),%rax
   10559:	48 8b 00             	mov    (%rax),%rax
   1055c:	e9 bc 0c 00 00       	jmpq   1121d <func_22+0x586f>
   10561:	48 c7 85 20 e6 ff ff 	movq   $0x0,-0x19e0(%rbp)
   10568:	00 00 00 00 
   1056c:	e9 e3 03 00 00       	jmpq   10954 <func_22+0x4fa6>
   10571:	c6 85 34 e6 ff ff 01 	movb   $0x1,-0x19cc(%rbp)
   10578:	48 b8 a0 05 42 58 af 	movabs $0x8cae13af584205a0,%rax
   1057f:	13 ae 8c 
   10582:	48 89 85 58 e8 ff ff 	mov    %rax,-0x17a8(%rbp)
   10589:	66 c7 85 3e e6 ff ff 	movw   $0x8ced,-0x19c2(%rbp)
   10590:	ed 8c 
   10592:	c7 85 54 e6 ff ff 00 	movl   $0x0,-0x19ac(%rbp)
   10599:	00 00 00 
   1059c:	eb 1a                	jmp    105b8 <func_22+0x4c0a>
   1059e:	8b 85 54 e6 ff ff    	mov    -0x19ac(%rbp),%eax
   105a4:	48 98                	cltq   
   105a6:	c7 84 85 70 eb ff ff 	movl   $0x0,-0x1490(%rbp,%rax,4)
   105ad:	00 00 00 00 
   105b1:	83 85 54 e6 ff ff 01 	addl   $0x1,-0x19ac(%rbp)
   105b8:	83 bd 54 e6 ff ff 04 	cmpl   $0x4,-0x19ac(%rbp)
   105bf:	7e dd                	jle    1059e <func_22+0x4bf0>
   105c1:	48 c7 85 08 e7 ff ff 	movq   $0x0,-0x18f8(%rbp)
   105c8:	00 00 00 00 
   105cc:	48 8b 95 80 e7 ff ff 	mov    -0x1880(%rbp),%rdx
   105d3:	48 8b 85 e0 e7 ff ff 	mov    -0x1820(%rbp),%rax
   105da:	48 89 d6             	mov    %rdx,%rsi
   105dd:	48 89 c7             	mov    %rax,%rdi
   105e0:	e8 f9 2d 00 00       	callq  133de <func_57>
   105e5:	48 8b 95 48 e7 ff ff 	mov    -0x18b8(%rbp),%rdx
   105ec:	48 89 02             	mov    %rax,(%rdx)
   105ef:	c6 05 60 cc 00 00 18 	movb   $0x18,0xcc60(%rip)        # 1d256 <g_452>
   105f6:	90                   	nop
   105f7:	0f b6 05 58 cc 00 00 	movzbl 0xcc58(%rip),%eax        # 1d256 <g_452>
   105fe:	3c eb                	cmp    $0xeb,%al
   10600:	0f 8d 33 03 00 00    	jge    10939 <func_22+0x4f8b>
   10606:	48 8d 05 1b e5 00 00 	lea    0xe51b(%rip),%rax        # 1eb28 <g_470+0xc8>
   1060d:	48 89 85 60 e8 ff ff 	mov    %rax,-0x17a0(%rbp)
   10614:	c7 85 d0 f0 ff ff 08 	movl   $0x8,-0xf30(%rbp)
   1061b:	00 00 00 
   1061e:	c7 85 d4 f0 ff ff f5 	movl   $0xe1cb85f5,-0xf2c(%rbp)
   10625:	85 cb e1 
   10628:	c7 85 d8 f0 ff ff fc 	movl   $0xfffffffc,-0xf28(%rbp)
   1062f:	ff ff ff 
   10632:	c7 85 dc f0 ff ff 32 	movl   $0xd5f75932,-0xf24(%rbp)
   10639:	59 f7 d5 
   1063c:	c7 85 e0 f0 ff ff f5 	movl   $0xe1cb85f5,-0xf20(%rbp)
   10643:	85 cb e1 
   10646:	c7 85 e4 f0 ff ff 74 	movl   $0x221efc74,-0xf1c(%rbp)
   1064d:	fc 1e 22 
   10650:	c7 85 e8 f0 ff ff f5 	movl   $0xe1cb85f5,-0xf18(%rbp)
   10657:	85 cb e1 
   1065a:	c7 85 ec f0 ff ff 0d 	movl   $0x891f600d,-0xf14(%rbp)
   10661:	60 1f 89 
   10664:	c7 85 f0 f0 ff ff 0d 	movl   $0x891f600d,-0xf10(%rbp)
   1066b:	60 1f 89 
   1066e:	c7 85 f4 f0 ff ff f5 	movl   $0xe1cb85f5,-0xf0c(%rbp)
   10675:	85 cb e1 
   10678:	c7 85 f8 f0 ff ff 08 	movl   $0x8,-0xf08(%rbp)
   1067f:	00 00 00 
   10682:	c7 85 fc f0 ff ff 63 	movl   $0x9313ce63,-0xf04(%rbp)
   10689:	ce 13 93 
   1068c:	c7 85 00 f1 ff ff 0d 	movl   $0x891f600d,-0xf00(%rbp)
   10693:	60 1f 89 
   10696:	c7 85 04 f1 ff ff 32 	movl   $0xd5f75932,-0xefc(%rbp)
   1069d:	59 f7 d5 
   106a0:	c7 85 08 f1 ff ff 63 	movl   $0x9313ce63,-0xef8(%rbp)
   106a7:	ce 13 93 
   106aa:	c7 85 0c f1 ff ff 08 	movl   $0x8,-0xef4(%rbp)
   106b1:	00 00 00 
   106b4:	c7 85 10 f1 ff ff f5 	movl   $0xe1cb85f5,-0xef0(%rbp)
   106bb:	85 cb e1 
   106be:	c7 85 14 f1 ff ff fc 	movl   $0xfffffffc,-0xeec(%rbp)
   106c5:	ff ff ff 
   106c8:	c7 85 18 f1 ff ff 32 	movl   $0xd5f75932,-0xee8(%rbp)
   106cf:	59 f7 d5 
   106d2:	c7 85 1c f1 ff ff f5 	movl   $0xe1cb85f5,-0xee4(%rbp)
   106d9:	85 cb e1 
   106dc:	c7 85 20 f1 ff ff 74 	movl   $0x221efc74,-0xee0(%rbp)
   106e3:	fc 1e 22 
   106e6:	c7 85 24 f1 ff ff f5 	movl   $0xe1cb85f5,-0xedc(%rbp)
   106ed:	85 cb e1 
   106f0:	c7 85 28 f1 ff ff 0d 	movl   $0x891f600d,-0xed8(%rbp)
   106f7:	60 1f 89 
   106fa:	c7 85 2c f1 ff ff 0d 	movl   $0x891f600d,-0xed4(%rbp)
   10701:	60 1f 89 
   10704:	c7 85 30 f1 ff ff f5 	movl   $0xe1cb85f5,-0xed0(%rbp)
   1070b:	85 cb e1 
   1070e:	c7 85 34 f1 ff ff 08 	movl   $0x8,-0xecc(%rbp)
   10715:	00 00 00 
   10718:	c7 85 38 f1 ff ff 63 	movl   $0x9313ce63,-0xec8(%rbp)
   1071f:	ce 13 93 
   10722:	c7 85 3c f1 ff ff 0d 	movl   $0x891f600d,-0xec4(%rbp)
   10729:	60 1f 89 
   1072c:	c7 85 40 f1 ff ff 32 	movl   $0xd5f75932,-0xec0(%rbp)
   10733:	59 f7 d5 
   10736:	c7 85 44 f1 ff ff 63 	movl   $0x9313ce63,-0xebc(%rbp)
   1073d:	ce 13 93 
   10740:	c7 85 48 f1 ff ff 08 	movl   $0x8,-0xeb8(%rbp)
   10747:	00 00 00 
   1074a:	c7 85 4c f1 ff ff f5 	movl   $0xe1cb85f5,-0xeb4(%rbp)
   10751:	85 cb e1 
   10754:	c7 85 50 f1 ff ff fc 	movl   $0xfffffffc,-0xeb0(%rbp)
   1075b:	ff ff ff 
   1075e:	c7 85 54 f1 ff ff 32 	movl   $0xd5f75932,-0xeac(%rbp)
   10765:	59 f7 d5 
   10768:	c7 85 58 f1 ff ff f5 	movl   $0xe1cb85f5,-0xea8(%rbp)
   1076f:	85 cb e1 
   10772:	c7 85 5c f1 ff ff 74 	movl   $0x221efc74,-0xea4(%rbp)
   10779:	fc 1e 22 
   1077c:	c7 85 60 f1 ff ff f5 	movl   $0xe1cb85f5,-0xea0(%rbp)
   10783:	85 cb e1 
   10786:	c7 85 64 f1 ff ff 0d 	movl   $0x891f600d,-0xe9c(%rbp)
   1078d:	60 1f 89 
   10790:	c7 85 68 f1 ff ff 0d 	movl   $0x891f600d,-0xe98(%rbp)
   10797:	60 1f 89 
   1079a:	c7 85 6c f1 ff ff f5 	movl   $0xe1cb85f5,-0xe94(%rbp)
   107a1:	85 cb e1 
   107a4:	48 8d 85 18 e7 ff ff 	lea    -0x18e8(%rbp),%rax
   107ab:	48 89 85 b0 ec ff ff 	mov    %rax,-0x1350(%rbp)
   107b2:	48 8d 85 18 e7 ff ff 	lea    -0x18e8(%rbp),%rax
   107b9:	48 89 85 b8 ec ff ff 	mov    %rax,-0x1348(%rbp)
   107c0:	48 8d 85 18 e7 ff ff 	lea    -0x18e8(%rbp),%rax
   107c7:	48 89 85 c0 ec ff ff 	mov    %rax,-0x1340(%rbp)
   107ce:	48 8d 85 18 e7 ff ff 	lea    -0x18e8(%rbp),%rax
   107d5:	48 89 85 c8 ec ff ff 	mov    %rax,-0x1338(%rbp)
   107dc:	66 c7 85 30 ea ff ff 	movw   $0xfffe,-0x15d0(%rbp)
   107e3:	fe ff 
   107e5:	66 c7 85 32 ea ff ff 	movw   $0x1,-0x15ce(%rbp)
   107ec:	01 00 
   107ee:	66 c7 85 34 ea ff ff 	movw   $0xfffe,-0x15cc(%rbp)
   107f5:	fe ff 
   107f7:	66 c7 85 36 ea ff ff 	movw   $0xfffe,-0x15ca(%rbp)
   107fe:	fe ff 
   10800:	66 c7 85 38 ea ff ff 	movw   $0x1,-0x15c8(%rbp)
   10807:	01 00 
   10809:	66 c7 85 3a ea ff ff 	movw   $0xfffe,-0x15c6(%rbp)
   10810:	fe ff 
   10812:	8b 85 28 e6 ff ff    	mov    -0x19d8(%rbp),%eax
   10818:	41 89 c6             	mov    %eax,%r14d
   1081b:	0f b6 85 2c e6 ff ff 	movzbl -0x19d4(%rbp),%eax
   10822:	0f b6 d8             	movzbl %al,%ebx
   10825:	44 8b ad f8 f0 ff ff 	mov    -0xf08(%rbp),%r13d
   1082c:	66 0f be 85 34 e6 ff 	movsbw -0x19cc(%rbp),%ax
   10833:	ff 
   10834:	44 0f b7 e0          	movzwl %ax,%r12d
   10838:	48 8b 85 c0 ec ff ff 	mov    -0x1340(%rbp),%rax
   1083f:	48 85 c0             	test   %rax,%rax
   10842:	0f 95 c0             	setne  %al
   10845:	0f b6 d0             	movzbl %al,%edx
   10848:	0f b6 05 85 c9 00 00 	movzbl 0xc985(%rip),%eax        # 1d1d4 <g_40>
   1084f:	c1 e0 06             	shl    $0x6,%eax
   10852:	c0 f8 06             	sar    $0x6,%al
   10855:	0f be c0             	movsbl %al,%eax
   10858:	89 d6                	mov    %edx,%esi
   1085a:	89 c7                	mov    %eax,%edi
   1085c:	e8 52 6b ff ff       	callq  73b3 <safe_add_func_int16_t_s_s>
   10861:	0f b7 c0             	movzwl %ax,%eax
   10864:	44 89 e6             	mov    %r12d,%esi
   10867:	89 c7                	mov    %eax,%edi
   10869:	e8 b1 74 ff ff       	callq  7d1f <safe_sub_func_uint16_t_u_u>
   1086e:	66 3d 57 33          	cmp    $0x3357,%ax
   10872:	0f 94 c0             	sete   %al
   10875:	0f b6 c0             	movzbl %al,%eax
   10878:	44 09 e8             	or     %r13d,%eax
   1087b:	89 de                	mov    %ebx,%esi
   1087d:	89 c7                	mov    %eax,%edi
   1087f:	e8 7b 6e ff ff       	callq  76ff <safe_div_func_int32_t_s_s>
   10884:	48 98                	cltq   
   10886:	48 89 05 33 cd 00 00 	mov    %rax,0xcd33(%rip)        # 1d5c0 <g_1094+0x20>
   1088d:	48 8b 05 2c cd 00 00 	mov    0xcd2c(%rip),%rax        # 1d5c0 <g_1094+0x20>
   10894:	0f be c0             	movsbl %al,%eax
   10897:	be 2b 00 00 00       	mov    $0x2b,%esi
   1089c:	89 c7                	mov    %eax,%edi
   1089e:	e8 8e 69 ff ff       	callq  7231 <safe_mod_func_int8_t_s_s>
   108a3:	0f be c0             	movsbl %al,%eax
   108a6:	44 89 f6             	mov    %r14d,%esi
   108a9:	89 c7                	mov    %eax,%edi
   108ab:	e8 4f 6e ff ff       	callq  76ff <safe_div_func_int32_t_s_s>
   108b0:	83 f0 06             	xor    $0x6,%eax
   108b3:	3d 8c ae a1 33       	cmp    $0x33a1ae8c,%eax
   108b8:	0f 9f c0             	setg   %al
   108bb:	0f b6 d0             	movzbl %al,%edx
   108be:	8b 05 f0 cb 00 00    	mov    0xcbf0(%rip),%eax        # 1d4b4 <g_1007>
   108c4:	09 c2                	or     %eax,%edx
   108c6:	0f b7 05 5b c9 00 00 	movzwl 0xc95b(%rip),%eax        # 1d228 <g_125>
   108cd:	98                   	cwtl   
   108ce:	39 c2                	cmp    %eax,%edx
   108d0:	0f 95 c0             	setne  %al
   108d3:	0f b6 d0             	movzbl %al,%edx
   108d6:	8b 05 04 c9 00 00    	mov    0xc904(%rip),%eax        # 1d1e0 <g_65>
   108dc:	39 c2                	cmp    %eax,%edx
   108de:	74 07                	je     108e7 <func_22+0x4f39>
   108e0:	ba 01 00 00 00       	mov    $0x1,%edx
   108e5:	eb 05                	jmp    108ec <func_22+0x4f3e>
   108e7:	ba 00 00 00 00       	mov    $0x0,%edx
   108ec:	48 8d 05 35 e2 00 00 	lea    0xe235(%rip),%rax        # 1eb28 <g_470+0xc8>
   108f3:	48 39 85 60 e8 ff ff 	cmp    %rax,-0x17a0(%rbp)
   108fa:	0f 95 c0             	setne  %al
   108fd:	0f b6 c0             	movzbl %al,%eax
   10900:	89 d6                	mov    %edx,%esi
   10902:	89 c7                	mov    %eax,%edi
   10904:	e8 98 69 ff ff       	callq  72a1 <safe_lshift_func_int8_t_s_s>
   10909:	0f be c0             	movsbl %al,%eax
   1090c:	21 85 98 e6 ff ff    	and    %eax,-0x1968(%rbp)
   10912:	0f b6 85 32 e6 ff ff 	movzbl -0x19ce(%rbp),%eax
   10919:	83 e8 01             	sub    $0x1,%eax
   1091c:	88 85 32 e6 ff ff    	mov    %al,-0x19ce(%rbp)
   10922:	66 83 85 3e e6 ff ff 	addw   $0x1,-0x19c2(%rbp)
   10929:	01 
   1092a:	48 8b 85 48 e7 ff ff 	mov    -0x18b8(%rbp),%rax
   10931:	48 8b 00             	mov    (%rax),%rax
   10934:	e9 e4 08 00 00       	jmpq   1121d <func_22+0x586f>
   10939:	48 8b 85 20 e6 ff ff 	mov    -0x19e0(%rbp),%rax
   10940:	be 06 00 00 00       	mov    $0x6,%esi
   10945:	48 89 c7             	mov    %rax,%rdi
   10948:	e8 f4 6e ff ff       	callq  7841 <safe_add_func_int64_t_s_s>
   1094d:	48 89 85 20 e6 ff ff 	mov    %rax,-0x19e0(%rbp)
   10954:	48 83 bd 20 e6 ff ff 	cmpq   $0x18,-0x19e0(%rbp)
   1095b:	18 
   1095c:	0f 85 0f fc ff ff    	jne    10571 <func_22+0x4bc3>
   10962:	48 8b 85 00 e7 ff ff 	mov    -0x1900(%rbp),%rax
   10969:	48 8b 00             	mov    (%rax),%rax
   1096c:	e9 ac 08 00 00       	jmpq   1121d <func_22+0x586f>
   10971:	48 c7 05 b4 c8 00 00 	movq   $0x0,0xc8b4(%rip)        # 1d230 <g_129>
   10978:	00 00 00 00 
   1097c:	e9 af 06 00 00       	jmpq   11030 <func_22+0x5682>
   10981:	48 8d 85 10 e7 ff ff 	lea    -0x18f0(%rbp),%rax
   10988:	48 89 85 a8 e7 ff ff 	mov    %rax,-0x1858(%rbp)
   1098f:	48 8d 05 42 c8 00 00 	lea    0xc842(%rip),%rax        # 1d1d8 <g_42>
   10996:	48 89 85 b0 e7 ff ff 	mov    %rax,-0x1850(%rbp)
   1099d:	48 8d 85 d0 f0 ff ff 	lea    -0xf30(%rbp),%rax
   109a4:	48 8d 15 b5 86 00 00 	lea    0x86b5(%rip),%rdx        # 19060 <g_1645+0xfe0>
   109ab:	b9 5e 00 00 00       	mov    $0x5e,%ecx
   109b0:	48 89 c7             	mov    %rax,%rdi
   109b3:	48 89 d6             	mov    %rdx,%rsi
   109b6:	f3 48 a5             	rep movsq %ds:(%rsi),%es:(%rdi)
   109b9:	48 89 f2             	mov    %rsi,%rdx
   109bc:	48 89 f8             	mov    %rdi,%rax
   109bf:	8b 0a                	mov    (%rdx),%ecx
   109c1:	89 08                	mov    %ecx,(%rax)
   109c3:	48 c7 85 b0 ec ff ff 	movq   $0x0,-0x1350(%rbp)
   109ca:	00 00 00 00 
   109ce:	48 8d 05 a7 f1 00 00 	lea    0xf1a7(%rip),%rax        # 1fb7c <g_564>
   109d5:	48 89 85 b8 ec ff ff 	mov    %rax,-0x1348(%rbp)
   109dc:	48 8d 85 60 e9 ff ff 	lea    -0x16a0(%rbp),%rax
   109e3:	48 83 c0 10          	add    $0x10,%rax
   109e7:	48 89 85 c0 ec ff ff 	mov    %rax,-0x1340(%rbp)
   109ee:	48 8d 05 87 f1 00 00 	lea    0xf187(%rip),%rax        # 1fb7c <g_564>
   109f5:	48 89 85 c8 ec ff ff 	mov    %rax,-0x1338(%rbp)
   109fc:	48 c7 85 d0 ec ff ff 	movq   $0x0,-0x1330(%rbp)
   10a03:	00 00 00 00 
   10a07:	48 8d 05 6e f1 00 00 	lea    0xf16e(%rip),%rax        # 1fb7c <g_564>
   10a0e:	48 89 85 d8 ec ff ff 	mov    %rax,-0x1328(%rbp)
   10a15:	48 8d 85 60 e9 ff ff 	lea    -0x16a0(%rbp),%rax
   10a1c:	48 83 c0 10          	add    $0x10,%rax
   10a20:	48 89 85 e0 ec ff ff 	mov    %rax,-0x1320(%rbp)
   10a27:	48 8d 05 4e f1 00 00 	lea    0xf14e(%rip),%rax        # 1fb7c <g_564>
   10a2e:	48 89 85 e8 ec ff ff 	mov    %rax,-0x1318(%rbp)
   10a35:	48 c7 85 f0 ec ff ff 	movq   $0x0,-0x1310(%rbp)
   10a3c:	00 00 00 00 
   10a40:	48 8d 05 35 f1 00 00 	lea    0xf135(%rip),%rax        # 1fb7c <g_564>
   10a47:	48 89 85 f8 ec ff ff 	mov    %rax,-0x1308(%rbp)
   10a4e:	48 8d 85 60 e9 ff ff 	lea    -0x16a0(%rbp),%rax
   10a55:	48 83 c0 10          	add    $0x10,%rax
   10a59:	48 89 85 00 ed ff ff 	mov    %rax,-0x1300(%rbp)
   10a60:	48 8d 05 15 f1 00 00 	lea    0xf115(%rip),%rax        # 1fb7c <g_564>
   10a67:	48 89 85 08 ed ff ff 	mov    %rax,-0x12f8(%rbp)
   10a6e:	48 c7 85 10 ed ff ff 	movq   $0x0,-0x12f0(%rbp)
   10a75:	00 00 00 00 
   10a79:	48 8d 05 fc f0 00 00 	lea    0xf0fc(%rip),%rax        # 1fb7c <g_564>
   10a80:	48 89 85 18 ed ff ff 	mov    %rax,-0x12e8(%rbp)
   10a87:	48 8d 85 60 e9 ff ff 	lea    -0x16a0(%rbp),%rax
   10a8e:	48 83 c0 10          	add    $0x10,%rax
   10a92:	48 89 85 20 ed ff ff 	mov    %rax,-0x12e0(%rbp)
   10a99:	48 8d 05 dc f0 00 00 	lea    0xf0dc(%rip),%rax        # 1fb7c <g_564>
   10aa0:	48 89 85 28 ed ff ff 	mov    %rax,-0x12d8(%rbp)
   10aa7:	48 8d 05 aa c7 00 00 	lea    0xc7aa(%rip),%rax        # 1d258 <g_523>
   10aae:	48 89 85 b8 e7 ff ff 	mov    %rax,-0x1848(%rbp)
   10ab5:	48 c7 85 c0 e7 ff ff 	movq   $0x0,-0x1840(%rbp)
   10abc:	00 00 00 00 
   10ac0:	48 8d 05 81 c7 00 00 	lea    0xc781(%rip),%rax        # 1d248 <g_236>
   10ac7:	48 89 85 c8 e7 ff ff 	mov    %rax,-0x1838(%rbp)
   10ace:	48 8d 05 5b c7 00 00 	lea    0xc75b(%rip),%rax        # 1d230 <g_129>
   10ad5:	48 89 85 30 ea ff ff 	mov    %rax,-0x15d0(%rbp)
   10adc:	48 8d 05 4d c7 00 00 	lea    0xc74d(%rip),%rax        # 1d230 <g_129>
   10ae3:	48 89 85 38 ea ff ff 	mov    %rax,-0x15c8(%rbp)
   10aea:	48 8d 05 3f c7 00 00 	lea    0xc73f(%rip),%rax        # 1d230 <g_129>
   10af1:	48 89 85 40 ea ff ff 	mov    %rax,-0x15c0(%rbp)
   10af8:	48 8d 05 31 c7 00 00 	lea    0xc731(%rip),%rax        # 1d230 <g_129>
   10aff:	48 89 85 48 ea ff ff 	mov    %rax,-0x15b8(%rbp)
   10b06:	48 8d 05 23 c7 00 00 	lea    0xc723(%rip),%rax        # 1d230 <g_129>
   10b0d:	48 89 85 50 ea ff ff 	mov    %rax,-0x15b0(%rbp)
   10b14:	c7 85 90 e6 ff ff 51 	movl   $0xe94e851,-0x1970(%rbp)
   10b1b:	e8 94 0e 
   10b1e:	c7 85 58 e6 ff ff 00 	movl   $0x0,-0x19a8(%rbp)
   10b25:	00 00 00 
   10b28:	eb 1e                	jmp    10b48 <func_22+0x519a>
   10b2a:	8b 85 58 e6 ff ff    	mov    -0x19a8(%rbp),%eax
   10b30:	48 98                	cltq   
   10b32:	48 8d 15 ae c6 00 00 	lea    0xc6ae(%rip),%rdx        # 1d1e7 <g_91+0x3>
   10b39:	48 89 94 c5 70 eb ff 	mov    %rdx,-0x1490(%rbp,%rax,8)
   10b40:	ff 
   10b41:	83 85 58 e6 ff ff 01 	addl   $0x1,-0x19a8(%rbp)
   10b48:	83 bd 58 e6 ff ff 06 	cmpl   $0x6,-0x19a8(%rbp)
   10b4f:	7e d9                	jle    10b2a <func_22+0x517c>
   10b51:	48 8b 05 b0 de 00 00 	mov    0xdeb0(%rip),%rax        # 1ea08 <g_472>
   10b58:	48 8b 95 68 e7 ff ff 	mov    -0x1898(%rbp),%rdx
   10b5f:	48 89 10             	mov    %rdx,(%rax)
   10b62:	48 8b 00             	mov    (%rax),%rax
   10b65:	48 89 85 10 e7 ff ff 	mov    %rax,-0x18f0(%rbp)
   10b6c:	48 8b 85 08 e7 ff ff 	mov    -0x18f8(%rbp),%rax
   10b73:	8b 00                	mov    (%rax),%eax
   10b75:	0f b6 d8             	movzbl %al,%ebx
   10b78:	8b 85 28 e6 ff ff    	mov    -0x19d8(%rbp),%eax
   10b7e:	89 85 1c e6 ff ff    	mov    %eax,-0x19e4(%rbp)
   10b84:	48 8d 05 f5 c6 00 00 	lea    0xc6f5(%rip),%rax        # 1d280 <g_617>
   10b8b:	8b 08                	mov    (%rax),%ecx
   10b8d:	89 8d 10 e6 ff ff    	mov    %ecx,-0x19f0(%rbp)
   10b93:	48 8b 85 60 e7 ff ff 	mov    -0x18a0(%rbp),%rax
   10b9a:	48 8b 00             	mov    (%rax),%rax
   10b9d:	48 8b 00             	mov    (%rax),%rax
   10ba0:	48 8b 00             	mov    (%rax),%rax
   10ba3:	8b 00                	mov    (%rax),%eax
   10ba5:	44 0f b6 e0          	movzbl %al,%r12d
   10ba9:	44 8b 2d d0 c9 00 00 	mov    0xc9d0(%rip),%r13d        # 1d580 <g_1039>
   10bb0:	8b 85 28 e6 ff ff    	mov    -0x19d8(%rbp),%eax
   10bb6:	44 0f b6 f0          	movzbl %al,%r14d
   10bba:	44 8b bd 44 f2 ff ff 	mov    -0xdbc(%rbp),%r15d
   10bc1:	8b bd 28 e6 ff ff    	mov    -0x19d8(%rbp),%edi
   10bc7:	89 bd 18 e6 ff ff    	mov    %edi,-0x19e8(%rbp)
   10bcd:	48 8b 85 60 e7 ff ff 	mov    -0x18a0(%rbp),%rax
   10bd4:	48 8b 00             	mov    (%rax),%rax
   10bd7:	48 8b 00             	mov    (%rax),%rax
   10bda:	48 8b 00             	mov    (%rax),%rax
   10bdd:	8b 00                	mov    (%rax),%eax
   10bdf:	85 c0                	test   %eax,%eax
   10be1:	0f 9f c0             	setg   %al
   10be4:	0f b6 c0             	movzbl %al,%eax
   10be7:	be 00 00 00 00       	mov    $0x0,%esi
   10bec:	89 c7                	mov    %eax,%edi
   10bee:	e8 cb 71 ff ff       	callq  7dbe <safe_lshift_func_uint16_t_u_s>
   10bf3:	0f b7 d0             	movzwl %ax,%edx
   10bf6:	8b 85 28 e6 ff ff    	mov    -0x19d8(%rbp),%eax
   10bfc:	39 c2                	cmp    %eax,%edx
   10bfe:	0f 95 c0             	setne  %al
   10c01:	0f b6 d0             	movzbl %al,%edx
   10c04:	48 8b 85 b0 e7 ff ff 	mov    -0x1850(%rbp),%rax
   10c0b:	48 89 10             	mov    %rdx,(%rax)
   10c0e:	48 8b 85 b0 e7 ff ff 	mov    -0x1850(%rbp),%rax
   10c15:	48 8b 00             	mov    (%rax),%rax
   10c18:	f7 d0                	not    %eax
   10c1a:	be 06 00 00 00       	mov    $0x6,%esi
   10c1f:	89 c7                	mov    %eax,%edi
   10c21:	e8 d7 72 ff ff       	callq  7efd <safe_mod_func_uint32_t_u_u>
   10c26:	3d fe ff 00 00       	cmp    $0xfffe,%eax
   10c2b:	0f 97 c0             	seta   %al
   10c2e:	0f b6 d0             	movzbl %al,%edx
   10c31:	48 8b 05 f8 c5 00 00 	mov    0xc5f8(%rip),%rax        # 1d230 <g_129>
   10c38:	48 39 c2             	cmp    %rax,%rdx
   10c3b:	0f 9d c0             	setge  %al
   10c3e:	0f b6 d0             	movzbl %al,%edx
   10c41:	8b 05 39 c9 00 00    	mov    0xc939(%rip),%eax        # 1d580 <g_1039>
   10c47:	21 d0                	and    %edx,%eax
   10c49:	89 85 0c e6 ff ff    	mov    %eax,-0x19f4(%rbp)
   10c4f:	bf 00 00 00 00       	mov    $0x0,%edi
   10c54:	e8 44 67 ff ff       	callq  739d <safe_unary_minus_func_int16_t_s>
   10c59:	0f b6 c0             	movzbl %al,%eax
   10c5c:	8b b5 0c e6 ff ff    	mov    -0x19f4(%rbp),%esi
   10c62:	89 c7                	mov    %eax,%edi
   10c64:	e8 e3 6f ff ff       	callq  7c4c <safe_lshift_func_uint8_t_u_u>
   10c69:	0f b6 c0             	movzbl %al,%eax
   10c6c:	8b b5 18 e6 ff ff    	mov    -0x19e8(%rbp),%esi
   10c72:	89 c7                	mov    %eax,%edi
   10c74:	e8 01 72 ff ff       	callq  7e7a <safe_rshift_func_uint16_t_u_u>
   10c79:	48 8b 85 20 e6 ff ff 	mov    -0x19e0(%rbp),%rax
   10c80:	44 89 fe             	mov    %r15d,%esi
   10c83:	89 c7                	mov    %eax,%edi
   10c85:	e8 75 6a ff ff       	callq  76ff <safe_div_func_int32_t_s_s>
   10c8a:	8b 15 e8 ee 00 00    	mov    0xeee8(%rip),%edx        # 1fb78 <g_558>
   10c90:	39 d0                	cmp    %edx,%eax
   10c92:	0f 9c c0             	setl   %al
   10c95:	0f b6 d0             	movzbl %al,%edx
   10c98:	48 8b 85 60 e7 ff ff 	mov    -0x18a0(%rbp),%rax
   10c9f:	48 8b 00             	mov    (%rax),%rax
   10ca2:	48 8b 00             	mov    (%rax),%rax
   10ca5:	48 8b 00             	mov    (%rax),%rax
   10ca8:	8b 00                	mov    (%rax),%eax
   10caa:	39 c2                	cmp    %eax,%edx
   10cac:	0f 95 c0             	setne  %al
   10caf:	0f b6 c0             	movzbl %al,%eax
   10cb2:	48 89 85 90 e9 ff ff 	mov    %rax,-0x1670(%rbp)
   10cb9:	be 6a 00 00 00       	mov    $0x6a,%esi
   10cbe:	bf 01 00 00 00       	mov    $0x1,%edi
   10cc3:	e8 4a 65 ff ff       	callq  7212 <safe_mul_func_int8_t_s_s>
   10cc8:	0f b6 c0             	movzbl %al,%eax
   10ccb:	44 89 f6             	mov    %r14d,%esi
   10cce:	89 c7                	mov    %eax,%edi
   10cd0:	e8 be 6e ff ff       	callq  7b93 <safe_mul_func_uint8_t_u_u>
   10cd5:	48 8d 85 10 e7 ff ff 	lea    -0x18f0(%rbp),%rax
   10cdc:	48 89 85 a8 e7 ff ff 	mov    %rax,-0x1858(%rbp)
   10ce3:	48 8b 85 e0 e9 ff ff 	mov    -0x1620(%rbp),%rax
   10cea:	48 39 85 a8 e7 ff ff 	cmp    %rax,-0x1858(%rbp)
   10cf1:	0f 94 c0             	sete   %al
   10cf4:	0f b6 c0             	movzbl %al,%eax
   10cf7:	44 89 ee             	mov    %r13d,%esi
   10cfa:	89 c7                	mov    %eax,%edi
   10cfc:	e8 29 68 ff ff       	callq  752a <safe_rshift_func_int16_t_s_s>
   10d01:	48 8b 85 78 e7 ff ff 	mov    -0x1888(%rbp),%rax
   10d08:	0f b6 10             	movzbl (%rax),%edx
   10d0b:	0f b6 85 2c e6 ff ff 	movzbl -0x19d4(%rbp),%eax
   10d12:	09 c2                	or     %eax,%edx
   10d14:	48 8b 85 78 e7 ff ff 	mov    -0x1888(%rbp),%rax
   10d1b:	88 10                	mov    %dl,(%rax)
   10d1d:	48 8b 85 78 e7 ff ff 	mov    -0x1888(%rbp),%rax
   10d24:	0f b6 00             	movzbl (%rax),%eax
   10d27:	89 c2                	mov    %eax,%edx
   10d29:	8b 85 44 f2 ff ff    	mov    -0xdbc(%rbp),%eax
   10d2f:	09 d0                	or     %edx,%eax
   10d31:	0f b6 c0             	movzbl %al,%eax
   10d34:	44 89 e6             	mov    %r12d,%esi
   10d37:	89 c7                	mov    %eax,%edi
   10d39:	e8 55 6e ff ff       	callq  7b93 <safe_mul_func_uint8_t_u_u>
   10d3e:	0f b6 c0             	movzbl %al,%eax
   10d41:	23 85 10 e6 ff ff    	and    -0x19f0(%rbp),%eax
   10d47:	48 63 d0             	movslq %eax,%rdx
   10d4a:	48 8b 05 df df 00 00 	mov    0xdfdf(%rip),%rax        # 1ed30 <g_547>
   10d51:	0f b6 00             	movzbl (%rax),%eax
   10d54:	84 c0                	test   %al,%al
   10d56:	0f 95 c0             	setne  %al
   10d59:	0f b6 c0             	movzbl %al,%eax
   10d5c:	48 89 d6             	mov    %rdx,%rsi
   10d5f:	48 89 c7             	mov    %rax,%rdi
   10d62:	e8 19 73 ff ff       	callq  8080 <safe_mod_func_uint64_t_u_u>
   10d67:	8b b5 1c e6 ff ff    	mov    -0x19e4(%rbp),%esi
   10d6d:	89 c7                	mov    %eax,%edi
   10d6f:	e8 42 68 ff ff       	callq  75b6 <safe_add_func_int32_t_s_s>
   10d74:	0f b6 d0             	movzbl %al,%edx
   10d77:	0f b6 85 2c e6 ff ff 	movzbl -0x19d4(%rbp),%eax
   10d7e:	0f b6 c0             	movzbl %al,%eax
   10d81:	89 d6                	mov    %edx,%esi
   10d83:	89 c7                	mov    %eax,%edi
   10d85:	e8 ee 6d ff ff       	callq  7b78 <safe_sub_func_uint8_t_u_u>
   10d8a:	0f b6 c0             	movzbl %al,%eax
   10d8d:	be 01 00 00 00       	mov    $0x1,%esi
   10d92:	89 c7                	mov    %eax,%edi
   10d94:	e8 5c 66 ff ff       	callq  73f5 <safe_mul_func_int16_t_s_s>
   10d99:	88 05 b3 c4 00 00    	mov    %al,0xc4b3(%rip)        # 1d252 <g_294>
   10d9f:	0f b6 05 ac c4 00 00 	movzbl 0xc4ac(%rip),%eax        # 1d252 <g_294>
   10da6:	0f b6 c0             	movzbl %al,%eax
   10da9:	89 de                	mov    %ebx,%esi
   10dab:	89 c7                	mov    %eax,%edi
   10dad:	e8 a8 6d ff ff       	callq  7b5a <safe_add_func_uint8_t_u_u>
   10db2:	89 c2                	mov    %eax,%edx
   10db4:	0f b6 05 dd c9 00 00 	movzbl 0xc9dd(%rip),%eax        # 1d798 <g_1154>
   10dbb:	c1 e0 06             	shl    $0x6,%eax
   10dbe:	c0 f8 06             	sar    $0x6,%al
   10dc1:	89 c1                	mov    %eax,%ecx
   10dc3:	89 d0                	mov    %edx,%eax
   10dc5:	21 c8                	and    %ecx,%eax
   10dc7:	c1 e0 06             	shl    $0x6,%eax
   10dca:	c0 f8 06             	sar    $0x6,%al
   10dcd:	83 e0 03             	and    $0x3,%eax
   10dd0:	89 c2                	mov    %eax,%edx
   10dd2:	0f b6 05 bf c9 00 00 	movzbl 0xc9bf(%rip),%eax        # 1d798 <g_1154>
   10dd9:	83 e0 fc             	and    $0xfffffffc,%eax
   10ddc:	09 d0                	or     %edx,%eax
   10dde:	88 05 b4 c9 00 00    	mov    %al,0xc9b4(%rip)        # 1d798 <g_1154>
   10de4:	48 8b 85 08 e7 ff ff 	mov    -0x18f8(%rbp),%rax
   10deb:	8b 00                	mov    (%rax),%eax
   10ded:	0f b7 d8             	movzwl %ax,%ebx
   10df0:	48 8b 05 09 e2 00 00 	mov    0xe209(%rip),%rax        # 1f000 <g_967>
   10df7:	48 8b 00             	mov    (%rax),%rax
   10dfa:	48 8b 00             	mov    (%rax),%rax
   10dfd:	44 8b 20             	mov    (%rax),%r12d
   10e00:	0f b6 05 cd c3 00 00 	movzbl 0xc3cd(%rip),%eax        # 1d1d4 <g_40>
   10e07:	c1 e0 06             	shl    $0x6,%eax
   10e0a:	c0 f8 06             	sar    $0x6,%al
   10e0d:	44 0f be e8          	movsbl %al,%r13d
   10e11:	48 8b 85 20 e6 ff ff 	mov    -0x19e0(%rbp),%rax
   10e18:	89 85 1c e6 ff ff    	mov    %eax,-0x19e4(%rbp)
   10e1e:	8b 85 d4 f1 ff ff    	mov    -0xe2c(%rbp),%eax
   10e24:	44 0f be f0          	movsbl %al,%r14d
   10e28:	0f b6 05 81 c6 00 00 	movzbl 0xc681(%rip),%eax        # 1d4b0 <g_987>
   10e2f:	c1 e0 06             	shl    $0x6,%eax
   10e32:	c0 f8 06             	sar    $0x6,%al
   10e35:	4c 0f be f8          	movsbq %al,%r15
   10e39:	0f b6 05 f8 c3 00 00 	movzbl 0xc3f8(%rip),%eax        # 1d238 <g_163>
   10e40:	0f b6 c0             	movzbl %al,%eax
   10e43:	89 85 10 e6 ff ff    	mov    %eax,-0x19f0(%rbp)
   10e49:	8b 85 28 f2 ff ff    	mov    -0xdd8(%rbp),%eax
   10e4f:	0f b7 c0             	movzwl %ax,%eax
   10e52:	83 e0 05             	and    $0x5,%eax
   10e55:	be 07 00 00 00       	mov    $0x7,%esi
   10e5a:	89 c7                	mov    %eax,%edi
   10e5c:	e8 a5 6f ff ff       	callq  7e06 <safe_lshift_func_uint16_t_u_u>
   10e61:	0f b6 c0             	movzbl %al,%eax
   10e64:	8b b5 10 e6 ff ff    	mov    -0x19f0(%rbp),%esi
   10e6a:	89 c7                	mov    %eax,%edi
   10e6c:	e8 22 6d ff ff       	callq  7b93 <safe_mul_func_uint8_t_u_u>
   10e71:	3c 03                	cmp    $0x3,%al
   10e73:	0f 95 c0             	setne  %al
   10e76:	0f b6 d0             	movzbl %al,%edx
   10e79:	48 8b 85 b8 e7 ff ff 	mov    -0x1848(%rbp),%rax
   10e80:	8b 00                	mov    (%rax),%eax
   10e82:	09 c2                	or     %eax,%edx
   10e84:	48 8b 85 b8 e7 ff ff 	mov    -0x1848(%rbp),%rax
   10e8b:	89 10                	mov    %edx,(%rax)
   10e8d:	8b 85 28 e6 ff ff    	mov    -0x19d8(%rbp),%eax
   10e93:	83 f8 09             	cmp    $0x9,%eax
   10e96:	0f 97 c0             	seta   %al
   10e99:	0f b6 c0             	movzbl %al,%eax
   10e9c:	89 c2                	mov    %eax,%edx
   10e9e:	8b 85 90 e6 ff ff    	mov    -0x1970(%rbp),%eax
   10ea4:	21 d0                	and    %edx,%eax
   10ea6:	89 85 90 e6 ff ff    	mov    %eax,-0x1970(%rbp)
   10eac:	8b 85 90 e6 ff ff    	mov    -0x1970(%rbp),%eax
   10eb2:	48 98                	cltq   
   10eb4:	4c 89 fe             	mov    %r15,%rsi
   10eb7:	48 89 c7             	mov    %rax,%rdi
   10eba:	e8 f5 6a ff ff       	callq  79b4 <safe_mod_func_int64_t_s_s>
   10ebf:	89 c2                	mov    %eax,%edx
   10ec1:	48 8b 85 78 e7 ff ff 	mov    -0x1888(%rbp),%rax
   10ec8:	88 10                	mov    %dl,(%rax)
   10eca:	48 8b 85 78 e7 ff ff 	mov    -0x1888(%rbp),%rax
   10ed1:	0f b6 00             	movzbl (%rax),%eax
   10ed4:	0f b6 d0             	movzbl %al,%edx
   10ed7:	0f b6 85 2c e6 ff ff 	movzbl -0x19d4(%rbp),%eax
   10ede:	84 c0                	test   %al,%al
   10ee0:	75 0a                	jne    10eec <func_22+0x553e>
   10ee2:	8b 85 28 e6 ff ff    	mov    -0x19d8(%rbp),%eax
   10ee8:	85 c0                	test   %eax,%eax
   10eea:	74 07                	je     10ef3 <func_22+0x5545>
   10eec:	b8 01 00 00 00       	mov    $0x1,%eax
   10ef1:	eb 05                	jmp    10ef8 <func_22+0x554a>
   10ef3:	b8 00 00 00 00       	mov    $0x0,%eax
   10ef8:	48 98                	cltq   
   10efa:	48 8b 0d 6f c3 00 00 	mov    0xc36f(%rip),%rcx        # 1d270 <g_583>
   10f01:	48 81 f1 a3 8a 00 00 	xor    $0x8aa3,%rcx
   10f08:	48 39 c8             	cmp    %rcx,%rax
   10f0b:	0f 96 c0             	setbe  %al
   10f0e:	0f b6 c0             	movzbl %al,%eax
   10f11:	89 d6                	mov    %edx,%esi
   10f13:	89 c7                	mov    %eax,%edi
   10f15:	e8 40 6c ff ff       	callq  7b5a <safe_add_func_uint8_t_u_u>
   10f1a:	84 c0                	test   %al,%al
   10f1c:	75 0b                	jne    10f29 <func_22+0x557b>
   10f1e:	0f b6 05 43 c3 00 00 	movzbl 0xc343(%rip),%eax        # 1d268 <g_548>
   10f25:	84 c0                	test   %al,%al
   10f27:	74 07                	je     10f30 <func_22+0x5582>
   10f29:	b8 01 00 00 00       	mov    $0x1,%eax
   10f2e:	eb 05                	jmp    10f35 <func_22+0x5587>
   10f30:	b8 00 00 00 00       	mov    $0x0,%eax
   10f35:	0f be c0             	movsbl %al,%eax
   10f38:	44 89 f6             	mov    %r14d,%esi
   10f3b:	89 c7                	mov    %eax,%edi
   10f3d:	e8 92 62 ff ff       	callq  71d4 <safe_add_func_int8_t_s_s>
   10f42:	84 c0                	test   %al,%al
   10f44:	75 0b                	jne    10f51 <func_22+0x55a3>
   10f46:	0f b6 85 2c e6 ff ff 	movzbl -0x19d4(%rbp),%eax
   10f4d:	84 c0                	test   %al,%al
   10f4f:	74 07                	je     10f58 <func_22+0x55aa>
   10f51:	b8 01 00 00 00       	mov    $0x1,%eax
   10f56:	eb 05                	jmp    10f5d <func_22+0x55af>
   10f58:	b8 00 00 00 00       	mov    $0x0,%eax
   10f5d:	8b b5 1c e6 ff ff    	mov    -0x19e4(%rbp),%esi
   10f63:	89 c7                	mov    %eax,%edi
   10f65:	e8 95 67 ff ff       	callq  76ff <safe_div_func_int32_t_s_s>
   10f6a:	44 89 ee             	mov    %r13d,%esi
   10f6d:	bf 01 00 00 00       	mov    $0x1,%edi
   10f72:	e8 7b 62 ff ff       	callq  71f2 <safe_sub_func_int8_t_s_s>
   10f77:	0f be c0             	movsbl %al,%eax
   10f7a:	44 89 e6             	mov    %r12d,%esi
   10f7d:	89 c7                	mov    %eax,%edi
   10f7f:	e8 81 66 ff ff       	callq  7605 <safe_sub_func_int32_t_s_s>
   10f84:	0f bf d0             	movswl %ax,%edx
   10f87:	48 8b 85 20 e6 ff ff 	mov    -0x19e0(%rbp),%rax
   10f8e:	98                   	cwtl   
   10f8f:	89 d6                	mov    %edx,%esi
   10f91:	89 c7                	mov    %eax,%edi
   10f93:	e8 7e 64 ff ff       	callq  7416 <safe_mod_func_int16_t_s_s>
   10f98:	0f b7 c0             	movzwl %ax,%eax
   10f9b:	89 de                	mov    %ebx,%esi
   10f9d:	89 c7                	mov    %eax,%edi
   10f9f:	e8 7b 6d ff ff       	callq  7d1f <safe_sub_func_uint16_t_u_u>
   10fa4:	0f b6 95 2c e6 ff ff 	movzbl -0x19d4(%rbp),%edx
   10fab:	0f b6 d2             	movzbl %dl,%edx
   10fae:	66 39 d0             	cmp    %dx,%ax
   10fb1:	0f 95 c2             	setne  %dl
   10fb4:	48 8b 85 60 e7 ff ff 	mov    -0x18a0(%rbp),%rax
   10fbb:	48 8b 00             	mov    (%rax),%rax
   10fbe:	48 8b 00             	mov    (%rax),%rax
   10fc1:	48 8b 00             	mov    (%rax),%rax
   10fc4:	0f b6 d2             	movzbl %dl,%edx
   10fc7:	89 10                	mov    %edx,(%rax)
   10fc9:	8b 00                	mov    (%rax),%eax
   10fcb:	48 98                	cltq   
   10fcd:	48 39 85 20 e6 ff ff 	cmp    %rax,-0x19e0(%rbp)
   10fd4:	0f 94 c0             	sete   %al
   10fd7:	0f b6 d0             	movzbl %al,%edx
   10fda:	0f b6 05 ef c1 00 00 	movzbl 0xc1ef(%rip),%eax        # 1d1d0 <g_35>
   10fe1:	c1 e0 06             	shl    $0x6,%eax
   10fe4:	c0 f8 06             	sar    $0x6,%al
   10fe7:	89 c1                	mov    %eax,%ecx
   10fe9:	89 d0                	mov    %edx,%eax
   10feb:	21 c8                	and    %ecx,%eax
   10fed:	c1 e0 06             	shl    $0x6,%eax
   10ff0:	c0 f8 06             	sar    $0x6,%al
   10ff3:	83 e0 03             	and    $0x3,%eax
   10ff6:	89 c2                	mov    %eax,%edx
   10ff8:	0f b6 05 d1 c1 00 00 	movzbl 0xc1d1(%rip),%eax        # 1d1d0 <g_35>
   10fff:	83 e0 fc             	and    $0xfffffffc,%eax
   11002:	09 d0                	or     %edx,%eax
   11004:	88 05 c6 c1 00 00    	mov    %al,0xc1c6(%rip)        # 1d1d0 <g_35>
   1100a:	0f b6 85 2c e6 ff ff 	movzbl -0x19d4(%rbp),%eax
   11011:	84 c0                	test   %al,%al
   11013:	75 2e                	jne    11043 <func_22+0x5695>
   11015:	48 8b 05 14 c2 00 00 	mov    0xc214(%rip),%rax        # 1d230 <g_129>
   1101c:	be 03 00 00 00       	mov    $0x3,%esi
   11021:	48 89 c7             	mov    %rax,%rdi
   11024:	e8 22 70 ff ff       	callq  804b <safe_sub_func_uint64_t_u_u>
   11029:	48 89 05 00 c2 00 00 	mov    %rax,0xc200(%rip)        # 1d230 <g_129>
   11030:	48 8b 05 f9 c1 00 00 	mov    0xc1f9(%rip),%rax        # 1d230 <g_129>
   11037:	48 83 f8 f0          	cmp    $0xfffffffffffffff0,%rax
   1103b:	0f 8d 40 f9 ff ff    	jge    10981 <func_22+0x4fd3>
   11041:	eb 01                	jmp    11044 <func_22+0x5696>
   11043:	90                   	nop
   11044:	0f b7 05 05 c2 00 00 	movzwl 0xc205(%rip),%eax        # 1d250 <g_264>
   1104b:	83 c0 01             	add    $0x1,%eax
   1104e:	66 89 05 fb c1 00 00 	mov    %ax,0xc1fb(%rip)        # 1d250 <g_264>
   11055:	0f b7 05 f4 c1 00 00 	movzwl 0xc1f4(%rip),%eax        # 1d250 <g_264>
   1105c:	66 83 f8 01          	cmp    $0x1,%ax
   11060:	0f 86 2b d6 ff ff    	jbe    e691 <func_22+0x2ce3>
   11066:	66 c7 05 e1 c1 00 00 	movw   $0x0,0xc1e1(%rip)        # 1d250 <g_264>
   1106d:	00 00 
   1106f:	e9 7d 01 00 00       	jmpq   111f1 <func_22+0x5843>
   11074:	48 8d 05 73 c0 00 00 	lea    0xc073(%rip),%rax        # 1d0ee <g_4+0xae>
   1107b:	48 89 85 88 e7 ff ff 	mov    %rax,-0x1878(%rbp)
   11082:	48 c7 85 90 e7 ff ff 	movq   $0x0,-0x1870(%rbp)
   11089:	00 00 00 00 
   1108d:	48 8d 05 c2 c1 00 00 	lea    0xc1c2(%rip),%rax        # 1d256 <g_452>
   11094:	48 89 85 98 e7 ff ff 	mov    %rax,-0x1868(%rbp)
   1109b:	48 8b 85 20 e6 ff ff 	mov    -0x19e0(%rbp),%rax
   110a2:	89 c2                	mov    %eax,%edx
   110a4:	48 8b 85 88 e7 ff ff 	mov    -0x1878(%rbp),%rax
   110ab:	66 89 10             	mov    %dx,(%rax)
   110ae:	48 8b 85 88 e7 ff ff 	mov    -0x1878(%rbp),%rax
   110b5:	0f b7 00             	movzwl (%rax),%eax
   110b8:	0f b7 d0             	movzwl %ax,%edx
   110bb:	8b 85 28 e6 ff ff    	mov    -0x19d8(%rbp),%eax
   110c1:	39 c2                	cmp    %eax,%edx
   110c3:	0f 95 c0             	setne  %al
   110c6:	0f b6 d8             	movzbl %al,%ebx
   110c9:	48 8b 05 98 ea 00 00 	mov    0xea98(%rip),%rax        # 1fb68 <g_387>
   110d0:	8b 10                	mov    (%rax),%edx
   110d2:	48 8b 85 98 e7 ff ff 	mov    -0x1868(%rbp),%rax
   110d9:	0f b6 08             	movzbl (%rax),%ecx
   110dc:	0f b6 05 ad ea 00 00 	movzbl 0xeaad(%rip),%eax        # 1fb90 <g_947>
   110e3:	c1 e0 06             	shl    $0x6,%eax
   110e6:	c0 f8 06             	sar    $0x6,%al
   110e9:	21 c1                	and    %eax,%ecx
   110eb:	48 8b 85 98 e7 ff ff 	mov    -0x1868(%rbp),%rax
   110f2:	88 08                	mov    %cl,(%rax)
   110f4:	48 8b 85 98 e7 ff ff 	mov    -0x1868(%rbp),%rax
   110fb:	0f b6 00             	movzbl (%rax),%eax
   110fe:	0f be c8             	movsbl %al,%ecx
   11101:	48 8b 85 00 e7 ff ff 	mov    -0x1900(%rbp),%rax
   11108:	48 8b 00             	mov    (%rax),%rax
   1110b:	8b 00                	mov    (%rax),%eax
   1110d:	39 c1                	cmp    %eax,%ecx
   1110f:	0f 9e c0             	setle  %al
   11112:	0f b6 c0             	movzbl %al,%eax
   11115:	89 d6                	mov    %edx,%esi
   11117:	89 c7                	mov    %eax,%edi
   11119:	e8 98 64 ff ff       	callq  75b6 <safe_add_func_int32_t_s_s>
   1111e:	39 c3                	cmp    %eax,%ebx
   11120:	0f 95 c0             	setne  %al
   11123:	0f b6 c0             	movzbl %al,%eax
   11126:	48 be 64 c1 a1 1f 52 	movabs $0xaa185e521fa1c164,%rsi
   1112d:	5e 18 aa 
   11130:	48 89 c7             	mov    %rax,%rdi
   11133:	e8 09 67 ff ff       	callq  7841 <safe_add_func_int64_t_s_s>
   11138:	0f be d8             	movsbl %al,%ebx
   1113b:	0f b6 85 2c e6 ff ff 	movzbl -0x19d4(%rbp),%eax
   11142:	0f b6 c0             	movzbl %al,%eax
   11145:	48 8b 95 20 e6 ff ff 	mov    -0x19e0(%rbp),%rdx
   1114c:	89 c6                	mov    %eax,%esi
   1114e:	89 d7                	mov    %edx,%edi
   11150:	e8 a8 6d ff ff       	callq  7efd <safe_mod_func_uint32_t_u_u>
   11155:	0f be c0             	movsbl %al,%eax
   11158:	89 de                	mov    %ebx,%esi
   1115a:	89 c7                	mov    %eax,%edi
   1115c:	e8 73 60 ff ff       	callq  71d4 <safe_add_func_int8_t_s_s>
   11161:	0f be c0             	movsbl %al,%eax
   11164:	89 05 d6 c0 00 00    	mov    %eax,0xc0d6(%rip)        # 1d240 <g_231>
   1116a:	8b 05 d0 c0 00 00    	mov    0xc0d0(%rip),%eax        # 1d240 <g_231>
   11170:	85 c0                	test   %eax,%eax
   11172:	0f 95 c0             	setne  %al
   11175:	0f b6 c0             	movzbl %al,%eax
   11178:	48 39 85 20 e6 ff ff 	cmp    %rax,-0x19e0(%rbp)
   1117f:	0f 96 c0             	setbe  %al
   11182:	0f b6 d0             	movzbl %al,%edx
   11185:	48 8b 05 3c c0 00 00 	mov    0xc03c(%rip),%rax        # 1d1c8 <g_21>
   1118c:	0f be c0             	movsbl %al,%eax
   1118f:	89 d6                	mov    %edx,%esi
   11191:	89 c7                	mov    %eax,%edi
   11193:	e8 d4 61 ff ff       	callq  736c <safe_rshift_func_int8_t_s_u>
   11198:	89 c2                	mov    %eax,%edx
   1119a:	48 8b 05 5f de 00 00 	mov    0xde5f(%rip),%rax        # 1f000 <g_967>
   111a1:	48 8b 00             	mov    (%rax),%rax
   111a4:	48 8b 00             	mov    (%rax),%rax
   111a7:	0f be d2             	movsbl %dl,%edx
   111aa:	89 10                	mov    %edx,(%rax)
   111ac:	8b 00                	mov    (%rax),%eax
   111ae:	48 8b 95 60 fd ff ff 	mov    -0x2a0(%rbp),%rdx
   111b5:	48 98                	cltq   
   111b7:	48 31 d0             	xor    %rdx,%rax
   111ba:	48 89 85 60 fd ff ff 	mov    %rax,-0x2a0(%rbp)
   111c1:	0f b6 85 2c e6 ff ff 	movzbl -0x19d4(%rbp),%eax
   111c8:	84 c0                	test   %al,%al
   111ca:	75 13                	jne    111df <func_22+0x5831>
   111cc:	0f b6 05 15 e9 00 00 	movzbl 0xe915(%rip),%eax        # 1fae8 <g_38>
   111d3:	83 e0 03             	and    $0x3,%eax
   111d6:	84 c0                	test   %al,%al
   111d8:	74 06                	je     111e0 <func_22+0x5832>
   111da:	e9 3f ab ff ff       	jmpq   bd1e <func_22+0x370>
   111df:	90                   	nop
   111e0:	0f b7 05 69 c0 00 00 	movzwl 0xc069(%rip),%eax        # 1d250 <g_264>
   111e7:	83 c0 01             	add    $0x1,%eax
   111ea:	66 89 05 5f c0 00 00 	mov    %ax,0xc05f(%rip)        # 1d250 <g_264>
   111f1:	0f b7 05 58 c0 00 00 	movzwl 0xc058(%rip),%eax        # 1d250 <g_264>
   111f8:	66 83 f8 36          	cmp    $0x36,%ax
   111fc:	0f 86 72 fe ff ff    	jbe    11074 <func_22+0x56c6>
   11202:	48 8b 05 f7 dd 00 00 	mov    0xddf7(%rip),%rax        # 1f000 <g_967>
   11209:	48 8b 00             	mov    (%rax),%rax
   1120c:	48 c7 00 00 00 00 00 	movq   $0x0,(%rax)
   11213:	48 8b 85 48 e7 ff ff 	mov    -0x18b8(%rbp),%rax
   1121a:	48 8b 00             	mov    (%rax),%rax
   1121d:	48 8b 5d c8          	mov    -0x38(%rbp),%rbx
   11221:	64 48 33 1c 25 28 00 	xor    %fs:0x28,%rbx
   11228:	00 00 
   1122a:	74 05                	je     11231 <func_22+0x5883>
   1122c:	e8 3f 5e ff ff       	callq  7070 <__stack_chk_fail@plt>
   11231:	48 81 c4 d8 19 00 00 	add    $0x19d8,%rsp
   11238:	5b                   	pop    %rbx
   11239:	41 5c                	pop    %r12
   1123b:	41 5d                	pop    %r13
   1123d:	41 5e                	pop    %r14
   1123f:	41 5f                	pop    %r15
   11241:	5d                   	pop    %rbp
   11242:	c3                   	retq   

0000000000011243 <func_26>:
   11243:	f3 0f 1e fa          	endbr64 
   11247:	55                   	push   %rbp
   11248:	48 89 e5             	mov    %rsp,%rbp
   1124b:	48 83 ec 40          	sub    $0x40,%rsp
   1124f:	89 f8                	mov    %edi,%eax
   11251:	66 89 45 cc          	mov    %ax,-0x34(%rbp)
   11255:	66 c7 45 de ff ff    	movw   $0xffff,-0x22(%rbp)
   1125b:	48 8d 05 e6 d5 00 00 	lea    0xd5e6(%rip),%rax        # 1e848 <g_39>
   11262:	48 89 45 e0          	mov    %rax,-0x20(%rbp)
   11266:	48 8d 05 db d5 00 00 	lea    0xd5db(%rip),%rax        # 1e848 <g_39>
   1126d:	48 89 45 e8          	mov    %rax,-0x18(%rbp)
   11271:	48 c7 45 f0 00 00 00 	movq   $0x0,-0x10(%rbp)
   11278:	00 
   11279:	48 8d 05 e8 e8 00 00 	lea    0xe8e8(%rip),%rax        # 1fb68 <g_387>
   11280:	48 89 45 f8          	mov    %rax,-0x8(%rbp)
   11284:	48 8b 45 e0          	mov    -0x20(%rbp),%rax
   11288:	48 89 45 e8          	mov    %rax,-0x18(%rbp)
   1128c:	48 8b 55 e8          	mov    -0x18(%rbp),%rdx
   11290:	48 8b 45 e0          	mov    -0x20(%rbp),%rax
   11294:	48 89 d6             	mov    %rdx,%rsi
   11297:	48 89 c7             	mov    %rax,%rdi
   1129a:	e8 3f 21 00 00       	callq  133de <func_57>
   1129f:	48 8b 55 f8          	mov    -0x8(%rbp),%rdx
   112a3:	48 89 02             	mov    %rax,(%rdx)
   112a6:	0f b7 45 cc          	movzwl -0x34(%rbp),%eax
   112aa:	c9                   	leaveq 
   112ab:	c3                   	retq   

00000000000112ac <func_28>:
   112ac:	f3 0f 1e fa          	endbr64 
   112b0:	55                   	push   %rbp
   112b1:	48 89 e5             	mov    %rsp,%rbp
   112b4:	41 57                	push   %r15
   112b6:	41 56                	push   %r14
   112b8:	41 55                	push   %r13
   112ba:	41 54                	push   %r12
   112bc:	53                   	push   %rbx
   112bd:	48 81 ec 98 02 00 00 	sub    $0x298,%rsp
   112c4:	89 f8                	mov    %edi,%eax
   112c6:	88 85 4c fd ff ff    	mov    %al,-0x2b4(%rbp)
   112cc:	64 48 8b 04 25 28 00 	mov    %fs:0x28,%rax
   112d3:	00 00 
   112d5:	48 89 45 c8          	mov    %rax,-0x38(%rbp)
   112d9:	31 c0                	xor    %eax,%eax
   112db:	c7 85 64 fd ff ff 68 	movl   $0xc8b69768,-0x29c(%rbp)
   112e2:	97 b6 c8 
   112e5:	48 8d 05 e4 be 00 00 	lea    0xbee4(%rip),%rax        # 1d1d0 <g_35>
   112ec:	48 89 85 68 fd ff ff 	mov    %rax,-0x298(%rbp)
   112f3:	48 8d 85 68 fd ff ff 	lea    -0x298(%rbp),%rax
   112fa:	48 89 85 90 fd ff ff 	mov    %rax,-0x270(%rbp)
   11301:	48 8d 05 e0 e7 00 00 	lea    0xe7e0(%rip),%rax        # 1fae8 <g_38>
   11308:	48 89 85 70 fd ff ff 	mov    %rax,-0x290(%rbp)
   1130f:	48 8d 85 70 fd ff ff 	lea    -0x290(%rbp),%rax
   11316:	48 89 85 60 fe ff ff 	mov    %rax,-0x1a0(%rbp)
   1131d:	48 8d 85 70 fd ff ff 	lea    -0x290(%rbp),%rax
   11324:	48 89 85 68 fe ff ff 	mov    %rax,-0x198(%rbp)
   1132b:	48 8d 85 70 fd ff ff 	lea    -0x290(%rbp),%rax
   11332:	48 89 85 70 fe ff ff 	mov    %rax,-0x190(%rbp)
   11339:	48 8d 85 70 fd ff ff 	lea    -0x290(%rbp),%rax
   11340:	48 89 85 78 fe ff ff 	mov    %rax,-0x188(%rbp)
   11347:	48 8d 85 70 fd ff ff 	lea    -0x290(%rbp),%rax
   1134e:	48 89 85 80 fe ff ff 	mov    %rax,-0x180(%rbp)
   11355:	48 8d 85 70 fd ff ff 	lea    -0x290(%rbp),%rax
   1135c:	48 89 85 88 fe ff ff 	mov    %rax,-0x178(%rbp)
   11363:	48 8d 85 70 fd ff ff 	lea    -0x290(%rbp),%rax
   1136a:	48 89 85 90 fe ff ff 	mov    %rax,-0x170(%rbp)
   11371:	48 8d 85 70 fd ff ff 	lea    -0x290(%rbp),%rax
   11378:	48 89 85 98 fe ff ff 	mov    %rax,-0x168(%rbp)
   1137f:	48 8d 85 70 fd ff ff 	lea    -0x290(%rbp),%rax
   11386:	48 89 85 a0 fe ff ff 	mov    %rax,-0x160(%rbp)
   1138d:	48 8d 85 70 fd ff ff 	lea    -0x290(%rbp),%rax
   11394:	48 89 85 a8 fe ff ff 	mov    %rax,-0x158(%rbp)
   1139b:	48 8d 85 70 fd ff ff 	lea    -0x290(%rbp),%rax
   113a2:	48 89 85 b0 fe ff ff 	mov    %rax,-0x150(%rbp)
   113a9:	48 8d 85 70 fd ff ff 	lea    -0x290(%rbp),%rax
   113b0:	48 89 85 b8 fe ff ff 	mov    %rax,-0x148(%rbp)
   113b7:	48 8d 85 70 fd ff ff 	lea    -0x290(%rbp),%rax
   113be:	48 89 85 c0 fe ff ff 	mov    %rax,-0x140(%rbp)
   113c5:	48 8d 85 70 fd ff ff 	lea    -0x290(%rbp),%rax
   113cc:	48 89 85 c8 fe ff ff 	mov    %rax,-0x138(%rbp)
   113d3:	48 8d 85 70 fd ff ff 	lea    -0x290(%rbp),%rax
   113da:	48 89 85 d0 fe ff ff 	mov    %rax,-0x130(%rbp)
   113e1:	48 8d 85 70 fd ff ff 	lea    -0x290(%rbp),%rax
   113e8:	48 89 85 d8 fe ff ff 	mov    %rax,-0x128(%rbp)
   113ef:	48 8d 85 70 fd ff ff 	lea    -0x290(%rbp),%rax
   113f6:	48 89 85 e0 fe ff ff 	mov    %rax,-0x120(%rbp)
   113fd:	48 8d 85 70 fd ff ff 	lea    -0x290(%rbp),%rax
   11404:	48 89 85 e8 fe ff ff 	mov    %rax,-0x118(%rbp)
   1140b:	48 8d 85 70 fd ff ff 	lea    -0x290(%rbp),%rax
   11412:	48 89 85 f0 fe ff ff 	mov    %rax,-0x110(%rbp)
   11419:	48 8d 85 70 fd ff ff 	lea    -0x290(%rbp),%rax
   11420:	48 89 85 f8 fe ff ff 	mov    %rax,-0x108(%rbp)
   11427:	48 8d 85 70 fd ff ff 	lea    -0x290(%rbp),%rax
   1142e:	48 89 85 00 ff ff ff 	mov    %rax,-0x100(%rbp)
   11435:	48 8d 85 70 fd ff ff 	lea    -0x290(%rbp),%rax
   1143c:	48 89 85 08 ff ff ff 	mov    %rax,-0xf8(%rbp)
   11443:	48 8d 85 70 fd ff ff 	lea    -0x290(%rbp),%rax
   1144a:	48 89 85 10 ff ff ff 	mov    %rax,-0xf0(%rbp)
   11451:	48 8d 85 70 fd ff ff 	lea    -0x290(%rbp),%rax
   11458:	48 89 85 18 ff ff ff 	mov    %rax,-0xe8(%rbp)
   1145f:	48 8d 85 70 fd ff ff 	lea    -0x290(%rbp),%rax
   11466:	48 89 85 20 ff ff ff 	mov    %rax,-0xe0(%rbp)
   1146d:	48 8d 85 70 fd ff ff 	lea    -0x290(%rbp),%rax
   11474:	48 89 85 28 ff ff ff 	mov    %rax,-0xd8(%rbp)
   1147b:	48 8d 85 70 fd ff ff 	lea    -0x290(%rbp),%rax
   11482:	48 89 85 30 ff ff ff 	mov    %rax,-0xd0(%rbp)
   11489:	48 8d 85 70 fd ff ff 	lea    -0x290(%rbp),%rax
   11490:	48 89 85 38 ff ff ff 	mov    %rax,-0xc8(%rbp)
   11497:	48 8d 85 70 fd ff ff 	lea    -0x290(%rbp),%rax
   1149e:	48 89 85 40 ff ff ff 	mov    %rax,-0xc0(%rbp)
   114a5:	48 8d 85 70 fd ff ff 	lea    -0x290(%rbp),%rax
   114ac:	48 89 85 48 ff ff ff 	mov    %rax,-0xb8(%rbp)
   114b3:	48 8d 85 70 fd ff ff 	lea    -0x290(%rbp),%rax
   114ba:	48 89 85 50 ff ff ff 	mov    %rax,-0xb0(%rbp)
   114c1:	48 8d 85 70 fd ff ff 	lea    -0x290(%rbp),%rax
   114c8:	48 89 85 58 ff ff ff 	mov    %rax,-0xa8(%rbp)
   114cf:	48 8d 85 70 fd ff ff 	lea    -0x290(%rbp),%rax
   114d6:	48 89 85 60 ff ff ff 	mov    %rax,-0xa0(%rbp)
   114dd:	48 8d 85 70 fd ff ff 	lea    -0x290(%rbp),%rax
   114e4:	48 89 85 68 ff ff ff 	mov    %rax,-0x98(%rbp)
   114eb:	48 8d 85 70 fd ff ff 	lea    -0x290(%rbp),%rax
   114f2:	48 89 85 70 ff ff ff 	mov    %rax,-0x90(%rbp)
   114f9:	48 8d 85 70 fd ff ff 	lea    -0x290(%rbp),%rax
   11500:	48 89 85 78 ff ff ff 	mov    %rax,-0x88(%rbp)
   11507:	48 8d 85 70 fd ff ff 	lea    -0x290(%rbp),%rax
   1150e:	48 89 45 80          	mov    %rax,-0x80(%rbp)
   11512:	48 8d 85 70 fd ff ff 	lea    -0x290(%rbp),%rax
   11519:	48 89 45 88          	mov    %rax,-0x78(%rbp)
   1151d:	48 8d 85 70 fd ff ff 	lea    -0x290(%rbp),%rax
   11524:	48 89 45 90          	mov    %rax,-0x70(%rbp)
   11528:	48 8d 85 70 fd ff ff 	lea    -0x290(%rbp),%rax
   1152f:	48 89 45 98          	mov    %rax,-0x68(%rbp)
   11533:	48 8d 85 70 fd ff ff 	lea    -0x290(%rbp),%rax
   1153a:	48 89 45 a0          	mov    %rax,-0x60(%rbp)
   1153e:	48 8d 85 70 fd ff ff 	lea    -0x290(%rbp),%rax
   11545:	48 89 45 a8          	mov    %rax,-0x58(%rbp)
   11549:	48 8d 85 70 fd ff ff 	lea    -0x290(%rbp),%rax
   11550:	48 89 45 b0          	mov    %rax,-0x50(%rbp)
   11554:	48 8d 85 70 fd ff ff 	lea    -0x290(%rbp),%rax
   1155b:	48 89 45 b8          	mov    %rax,-0x48(%rbp)
   1155f:	48 8d 85 70 fd ff ff 	lea    -0x290(%rbp),%rax
   11566:	48 89 45 c0          	mov    %rax,-0x40(%rbp)
   1156a:	48 8d 05 67 bc 00 00 	lea    0xbc67(%rip),%rax        # 1d1d8 <g_42>
   11571:	48 89 85 98 fd ff ff 	mov    %rax,-0x268(%rbp)
   11578:	48 8d 85 60 fe ff ff 	lea    -0x1a0(%rbp),%rax
   1157f:	48 05 a8 00 00 00    	add    $0xa8,%rax
   11585:	48 89 85 a0 fd ff ff 	mov    %rax,-0x260(%rbp)
   1158c:	48 8d 05 d5 e5 00 00 	lea    0xe5d5(%rip),%rax        # 1fb68 <g_387>
   11593:	48 89 85 a8 fd ff ff 	mov    %rax,-0x258(%rbp)
   1159a:	48 c7 85 b0 fd ff ff 	movq   $0x0,-0x250(%rbp)
   115a1:	00 00 00 00 
   115a5:	48 c7 85 78 fd ff ff 	movq   $0x0,-0x288(%rbp)
   115ac:	00 00 00 00 
   115b0:	48 8d 05 81 e5 00 00 	lea    0xe581(%rip),%rax        # 1fb38 <g_88+0x38>
   115b7:	48 89 85 80 fd ff ff 	mov    %rax,-0x280(%rbp)
   115be:	48 8d 85 80 fd ff ff 	lea    -0x280(%rbp),%rax
   115c5:	48 89 85 d0 fd ff ff 	mov    %rax,-0x230(%rbp)
   115cc:	48 8d 85 80 fd ff ff 	lea    -0x280(%rbp),%rax
   115d3:	48 89 85 d8 fd ff ff 	mov    %rax,-0x228(%rbp)
   115da:	48 8d 85 80 fd ff ff 	lea    -0x280(%rbp),%rax
   115e1:	48 89 85 e0 fd ff ff 	mov    %rax,-0x220(%rbp)
   115e8:	48 8d 85 80 fd ff ff 	lea    -0x280(%rbp),%rax
   115ef:	48 89 85 e8 fd ff ff 	mov    %rax,-0x218(%rbp)
   115f6:	48 8d 05 a3 d7 00 00 	lea    0xd7a3(%rip),%rax        # 1eda0 <g_608>
   115fd:	48 89 85 88 fd ff ff 	mov    %rax,-0x278(%rbp)
   11604:	48 8d 85 88 fd ff ff 	lea    -0x278(%rbp),%rax
   1160b:	48 89 85 b8 fd ff ff 	mov    %rax,-0x248(%rbp)
   11612:	48 8d 05 cf bb 00 00 	lea    0xbbcf(%rip),%rax        # 1d1e8 <g_91+0x4>
   11619:	48 89 85 c0 fd ff ff 	mov    %rax,-0x240(%rbp)
   11620:	48 8d 05 51 e5 00 00 	lea    0xe551(%rip),%rax        # 1fb78 <g_558>
   11627:	48 89 85 c8 fd ff ff 	mov    %rax,-0x238(%rbp)
   1162e:	66 c7 85 5e fd ff ff 	movw   $0xfffe,-0x2a2(%rbp)
   11635:	fe ff 
   11637:	c7 85 60 fd ff ff 00 	movl   $0x0,-0x2a0(%rbp)
   1163e:	00 00 00 
   11641:	eb 1e                	jmp    11661 <func_28+0x3b5>
   11643:	8b 85 60 fd ff ff    	mov    -0x2a0(%rbp),%eax
   11649:	48 98                	cltq   
   1164b:	48 8d 95 78 fd ff ff 	lea    -0x288(%rbp),%rdx
   11652:	48 89 94 c5 20 fe ff 	mov    %rdx,-0x1e0(%rbp,%rax,8)
   11659:	ff 
   1165a:	83 85 60 fd ff ff 01 	addl   $0x1,-0x2a0(%rbp)
   11661:	83 bd 60 fd ff ff 06 	cmpl   $0x6,-0x2a0(%rbp)
   11668:	7e d9                	jle    11643 <func_28+0x397>
   1166a:	c7 85 60 fd ff ff 00 	movl   $0x0,-0x2a0(%rbp)
   11671:	00 00 00 
   11674:	eb 1e                	jmp    11694 <func_28+0x3e8>
   11676:	8b 85 60 fd ff ff    	mov    -0x2a0(%rbp),%eax
   1167c:	48 98                	cltq   
   1167e:	48 8d 15 cd bb 00 00 	lea    0xbbcd(%rip),%rdx        # 1d252 <g_294>
   11685:	48 89 94 c5 f0 fd ff 	mov    %rdx,-0x210(%rbp,%rax,8)
   1168c:	ff 
   1168d:	83 85 60 fd ff ff 01 	addl   $0x1,-0x2a0(%rbp)
   11694:	83 bd 60 fd ff ff 05 	cmpl   $0x5,-0x2a0(%rbp)
   1169b:	7e d9                	jle    11676 <func_28+0x3ca>
   1169d:	83 85 64 fd ff ff 01 	addl   $0x1,-0x29c(%rbp)
   116a4:	48 8b 85 90 fd ff ff 	mov    -0x270(%rbp),%rax
   116ab:	48 c7 00 00 00 00 00 	movq   $0x0,(%rax)
   116b2:	48 8b 85 90 fd ff ff 	mov    -0x270(%rbp),%rax
   116b9:	48 8b 00             	mov    (%rax),%rax
   116bc:	48 89 05 85 d1 00 00 	mov    %rax,0xd185(%rip)        # 1e848 <g_39>
   116c3:	48 8b 85 98 fd ff ff 	mov    -0x268(%rbp),%rax
   116ca:	48 8b 00             	mov    (%rax),%rax
   116cd:	48 8d 50 01          	lea    0x1(%rax),%rdx
   116d1:	48 8b 85 98 fd ff ff 	mov    -0x268(%rbp),%rax
   116d8:	48 89 10             	mov    %rdx,(%rax)
   116db:	48 8b 85 98 fd ff ff 	mov    -0x268(%rbp),%rax
   116e2:	48 8b 00             	mov    (%rax),%rax
   116e5:	48 85 c0             	test   %rax,%rax
   116e8:	0f 84 f9 00 00 00    	je     117e7 <func_28+0x53b>
   116ee:	48 8b 85 90 fd ff ff 	mov    -0x270(%rbp),%rax
   116f5:	48 8b 10             	mov    (%rax),%rdx
   116f8:	66 0f be 85 4c fd ff 	movsbw -0x2b4(%rbp),%ax
   116ff:	ff 
   11700:	0f b7 c0             	movzwl %ax,%eax
   11703:	48 89 d6             	mov    %rdx,%rsi
   11706:	89 c7                	mov    %eax,%edi
   11708:	e8 dd 02 00 00       	callq  119ea <func_47>
   1170d:	44 0f be b5 4c fd ff 	movsbl -0x2b4(%rbp),%r14d
   11714:	ff 
   11715:	0f b6 85 4c fd ff ff 	movzbl -0x2b4(%rbp),%eax
   1171c:	44 0f b6 e8          	movzbl %al,%r13d
   11720:	0f b6 05 2b bb 00 00 	movzbl 0xbb2b(%rip),%eax        # 1d252 <g_294>
   11727:	44 0f b6 e0          	movzbl %al,%r12d
   1172b:	0f be 9d 4c fd ff ff 	movsbl -0x2b4(%rbp),%ebx
   11732:	8b 05 8c ba 00 00    	mov    0xba8c(%rip),%eax        # 1d1c4 <g_14>
   11738:	0f b7 c0             	movzwl %ax,%eax
   1173b:	48 8b 95 98 fd ff ff 	mov    -0x268(%rbp),%rdx
   11742:	48 8d 8d 70 fd ff ff 	lea    -0x290(%rbp),%rcx
   11749:	48 89 ce             	mov    %rcx,%rsi
   1174c:	89 c7                	mov    %eax,%edi
   1174e:	e8 8a 1d 00 00       	callq  134dd <func_60>
   11753:	48 8b 95 a0 fd ff ff 	mov    -0x260(%rbp),%rdx
   1175a:	48 89 02             	mov    %rax,(%rdx)
   1175d:	48 8b 85 a0 fd ff ff 	mov    -0x260(%rbp),%rax
   11764:	48 8b 10             	mov    (%rax),%rdx
   11767:	48 8d 85 68 fd ff ff 	lea    -0x298(%rbp),%rax
   1176e:	48 89 d6             	mov    %rdx,%rsi
   11771:	48 89 c7             	mov    %rax,%rdi
   11774:	e8 65 1c 00 00       	callq  133de <func_57>
   11779:	48 8b 95 a8 fd ff ff 	mov    -0x258(%rbp),%rdx
   11780:	48 89 02             	mov    %rax,(%rdx)
   11783:	48 83 bd 98 fd ff ff 	cmpq   $0x0,-0x268(%rbp)
   1178a:	00 
   1178b:	0f 94 c0             	sete   %al
   1178e:	0f b6 c0             	movzbl %al,%eax
   11791:	39 85 64 fd ff ff    	cmp    %eax,-0x29c(%rbp)
   11797:	0f 93 c0             	setae  %al
   1179a:	0f b6 c0             	movzbl %al,%eax
   1179d:	45 89 f0             	mov    %r14d,%r8d
   117a0:	44 89 e9             	mov    %r13d,%ecx
   117a3:	4c 89 e2             	mov    %r12,%rdx
   117a6:	89 de                	mov    %ebx,%esi
   117a8:	48 89 c7             	mov    %rax,%rdi
   117ab:	e8 61 02 00 00       	callq  11a11 <func_51>
   117b0:	48 89 05 a9 d6 00 00 	mov    %rax,0xd6a9(%rip)        # 1ee60 <g_615>
   117b7:	48 8b 05 a2 d6 00 00 	mov    0xd6a2(%rip),%rax        # 1ee60 <g_615>
   117be:	48 85 c0             	test   %rax,%rax
   117c1:	0f 94 c0             	sete   %al
   117c4:	0f b6 c0             	movzbl %al,%eax
   117c7:	be 03 00 00 00       	mov    $0x3,%esi
   117cc:	89 c7                	mov    %eax,%edi
   117ce:	e8 32 64 ff ff       	callq  7c05 <safe_lshift_func_uint8_t_u_s>
   117d3:	0f b6 d0             	movzbl %al,%edx
   117d6:	8b 05 e4 b9 00 00    	mov    0xb9e4(%rip),%eax        # 1d1c0 <g_11>
   117dc:	21 c2                	and    %eax,%edx
   117de:	0f be 85 4c fd ff ff 	movsbl -0x2b4(%rbp),%eax
   117e5:	39 c2                	cmp    %eax,%edx
   117e7:	48 8d 05 4a e3 00 00 	lea    0xe34a(%rip),%rax        # 1fb38 <g_88+0x38>
   117ee:	48 89 05 5b d0 00 00 	mov    %rax,0xd05b(%rip)        # 1e850 <g_87>
   117f5:	48 8b 1d 34 ba 00 00 	mov    0xba34(%rip),%rbx        # 1d230 <g_129>
   117fc:	44 0f be a5 4c fd ff 	movsbl -0x2b4(%rbp),%r12d
   11803:	ff 
   11804:	0f b6 85 4c fd ff ff 	movzbl -0x2b4(%rbp),%eax
   1180b:	0f b6 d0             	movzbl %al,%edx
   1180e:	0f b7 05 3f ba 00 00 	movzwl 0xba3f(%rip),%eax        # 1d254 <g_320>
   11815:	0f b6 c0             	movzbl %al,%eax
   11818:	89 d6                	mov    %edx,%esi
   1181a:	89 c7                	mov    %eax,%edi
   1181c:	e8 72 63 ff ff       	callq  7b93 <safe_mul_func_uint8_t_u_u>
   11821:	0f b6 d0             	movzbl %al,%edx
   11824:	48 8d 05 ad d5 00 00 	lea    0xd5ad(%rip),%rax        # 1edd8 <g_607+0x18>
   1182b:	48 39 85 b8 fd ff ff 	cmp    %rax,-0x248(%rbp)
   11832:	0f 95 c0             	setne  %al
   11835:	0f b6 c0             	movzbl %al,%eax
   11838:	89 d6                	mov    %edx,%esi
   1183a:	89 c7                	mov    %eax,%edi
   1183c:	e8 52 63 ff ff       	callq  7b93 <safe_mul_func_uint8_t_u_u>
   11841:	44 0f b6 f8          	movzbl %al,%r15d
   11845:	48 8b 05 e4 b9 00 00 	mov    0xb9e4(%rip),%rax        # 1d230 <g_129>
   1184c:	44 0f be e8          	movsbl %al,%r13d
   11850:	0f be 85 4c fd ff ff 	movsbl -0x2b4(%rbp),%eax
   11857:	89 85 48 fd ff ff    	mov    %eax,-0x2b8(%rbp)
   1185d:	48 8b 85 c0 fd ff ff 	mov    -0x240(%rbp),%rax
   11864:	0f b6 00             	movzbl (%rax),%eax
   11867:	8d 50 ff             	lea    -0x1(%rax),%edx
   1186a:	48 8b 85 c0 fd ff ff 	mov    -0x240(%rbp),%rax
   11871:	88 10                	mov    %dl,(%rax)
   11873:	48 8b 85 c0 fd ff ff 	mov    -0x240(%rbp),%rax
   1187a:	0f b6 10             	movzbl (%rax),%edx
   1187d:	0f b6 05 ce b9 00 00 	movzbl 0xb9ce(%rip),%eax        # 1d252 <g_294>
   11884:	31 d0                	xor    %edx,%eax
   11886:	88 05 c6 b9 00 00    	mov    %al,0xb9c6(%rip)        # 1d252 <g_294>
   1188c:	0f b6 05 bf b9 00 00 	movzbl 0xb9bf(%rip),%eax        # 1d252 <g_294>
   11893:	0f b6 c0             	movzbl %al,%eax
   11896:	89 85 44 fd ff ff    	mov    %eax,-0x2bc(%rbp)
   1189c:	0f b6 85 4c fd ff ff 	movzbl -0x2b4(%rbp),%eax
   118a3:	44 0f b6 f0          	movzbl %al,%r14d
   118a7:	8b 05 13 b9 00 00    	mov    0xb913(%rip),%eax        # 1d1c0 <g_11>
   118ad:	0f b7 c0             	movzwl %ax,%eax
   118b0:	89 c6                	mov    %eax,%esi
   118b2:	bf 01 00 00 00       	mov    $0x1,%edi
   118b7:	e8 43 64 ff ff       	callq  7cff <safe_add_func_uint16_t_u_u>
   118bc:	0f b7 15 a7 b9 00 00 	movzwl 0xb9a7(%rip),%edx        # 1d26a <g_572>
   118c3:	66 39 d0             	cmp    %dx,%ax
   118c6:	74 07                	je     118cf <func_28+0x623>
   118c8:	b8 02 00 00 00       	mov    $0x2,%eax
   118cd:	eb 05                	jmp    118d4 <func_28+0x628>
   118cf:	b8 03 00 00 00       	mov    $0x3,%eax
   118d4:	44 89 f6             	mov    %r14d,%esi
   118d7:	89 c7                	mov    %eax,%edi
   118d9:	e8 7c 62 ff ff       	callq  7b5a <safe_add_func_uint8_t_u_u>
   118de:	0f b6 d0             	movzbl %al,%edx
   118e1:	0f be 85 4c fd ff ff 	movsbl -0x2b4(%rbp),%eax
   118e8:	39 c2                	cmp    %eax,%edx
   118ea:	74 09                	je     118f5 <func_28+0x649>
   118ec:	80 bd 4c fd ff ff 00 	cmpb   $0x0,-0x2b4(%rbp)
   118f3:	74 07                	je     118fc <func_28+0x650>
   118f5:	b8 01 00 00 00       	mov    $0x1,%eax
   118fa:	eb 05                	jmp    11901 <func_28+0x655>
   118fc:	b8 00 00 00 00       	mov    $0x0,%eax
   11901:	98                   	cwtl   
   11902:	89 c7                	mov    %eax,%edi
   11904:	e8 94 5a ff ff       	callq  739d <safe_unary_minus_func_int16_t_s>
   11909:	98                   	cwtl   
   1190a:	39 85 44 fd ff ff    	cmp    %eax,-0x2bc(%rbp)
   11910:	0f 94 c0             	sete   %al
   11913:	0f b6 c0             	movzbl %al,%eax
   11916:	be 04 00 00 00       	mov    $0x4,%esi
   1191b:	89 c7                	mov    %eax,%edi
   1191d:	e8 13 5a ff ff       	callq  7335 <safe_rshift_func_int8_t_s_s>
   11922:	0f b6 c0             	movzbl %al,%eax
   11925:	be 01 00 00 00       	mov    $0x1,%esi
   1192a:	89 c7                	mov    %eax,%edi
   1192c:	e8 62 62 ff ff       	callq  7b93 <safe_mul_func_uint8_t_u_u>
   11931:	0f b6 c0             	movzbl %al,%eax
   11934:	39 85 48 fd ff ff    	cmp    %eax,-0x2b8(%rbp)
   1193a:	0f 9d c0             	setge  %al
   1193d:	88 05 13 b9 00 00    	mov    %al,0xb913(%rip)        # 1d256 <g_452>
   11943:	0f b6 05 0c b9 00 00 	movzbl 0xb90c(%rip),%eax        # 1d256 <g_452>
   1194a:	0f be c0             	movsbl %al,%eax
   1194d:	44 89 ee             	mov    %r13d,%esi
   11950:	89 c7                	mov    %eax,%edi
   11952:	e8 7d 58 ff ff       	callq  71d4 <safe_add_func_int8_t_s_s>
   11957:	0f be c0             	movsbl %al,%eax
   1195a:	41 39 c7             	cmp    %eax,%r15d
   1195d:	44 89 e6             	mov    %r12d,%esi
   11960:	bf 01 00 00 00       	mov    $0x1,%edi
   11965:	e8 c7 58 ff ff       	callq  7231 <safe_mod_func_int8_t_s_s>
   1196a:	0f b6 05 77 e1 00 00 	movzbl 0xe177(%rip),%eax        # 1fae8 <g_38>
   11971:	83 e0 03             	and    $0x3,%eax
   11974:	3c 01                	cmp    $0x1,%al
   11976:	0f 95 c0             	setne  %al
   11979:	0f b6 d0             	movzbl %al,%edx
   1197c:	48 8d 05 fd b8 00 00 	lea    0xb8fd(%rip),%rax        # 1d280 <g_617>
   11983:	8b 00                	mov    (%rax),%eax
   11985:	39 c2                	cmp    %eax,%edx
   11987:	0f 9e c0             	setle  %al
   1198a:	0f b6 d0             	movzbl %al,%edx
   1198d:	0f be 85 4c fd ff ff 	movsbl -0x2b4(%rbp),%eax
   11994:	89 d6                	mov    %edx,%esi
   11996:	89 c7                	mov    %eax,%edi
   11998:	e8 19 5c ff ff       	callq  75b6 <safe_add_func_int32_t_s_s>
   1199d:	48 98                	cltq   
   1199f:	48 89 de             	mov    %rbx,%rsi
   119a2:	48 89 c7             	mov    %rax,%rdi
   119a5:	e8 fe 5e ff ff       	callq  78a8 <safe_sub_func_int64_t_s_s>
   119aa:	89 c2                	mov    %eax,%edx
   119ac:	0f b7 85 5e fd ff ff 	movzwl -0x2a2(%rbp),%eax
   119b3:	21 d0                	and    %edx,%eax
   119b5:	66 89 85 5e fd ff ff 	mov    %ax,-0x2a2(%rbp)
   119bc:	66 0f be 85 4c fd ff 	movsbw -0x2b4(%rbp),%ax
   119c3:	ff 
   119c4:	48 8b 5d c8          	mov    -0x38(%rbp),%rbx
   119c8:	64 48 33 1c 25 28 00 	xor    %fs:0x28,%rbx
   119cf:	00 00 
   119d1:	74 05                	je     119d8 <func_28+0x72c>
   119d3:	e8 98 56 ff ff       	callq  7070 <__stack_chk_fail@plt>
   119d8:	48 81 c4 98 02 00 00 	add    $0x298,%rsp
   119df:	5b                   	pop    %rbx
   119e0:	41 5c                	pop    %r12
   119e2:	41 5d                	pop    %r13
   119e4:	41 5e                	pop    %r14
   119e6:	41 5f                	pop    %r15
   119e8:	5d                   	pop    %rbp
   119e9:	c3                   	retq   

00000000000119ea <func_47>:
   119ea:	f3 0f 1e fa          	endbr64 
   119ee:	55                   	push   %rbp
   119ef:	48 89 e5             	mov    %rsp,%rbp
   119f2:	89 f8                	mov    %edi,%eax
   119f4:	48 89 75 e0          	mov    %rsi,-0x20(%rbp)
   119f8:	66 89 45 ec          	mov    %ax,-0x14(%rbp)
   119fc:	48 c7 45 f8 00 00 00 	movq   $0x0,-0x8(%rbp)
   11a03:	00 
   11a04:	c7 45 f8 12 e4 e4 19 	movl   $0x19e4e412,-0x8(%rbp)
   11a0b:	48 8b 45 f8          	mov    -0x8(%rbp),%rax
   11a0f:	5d                   	pop    %rbp
   11a10:	c3                   	retq   

0000000000011a11 <func_51>:
   11a11:	f3 0f 1e fa          	endbr64 
   11a15:	55                   	push   %rbp
   11a16:	48 89 e5             	mov    %rsp,%rbp
   11a19:	41 57                	push   %r15
   11a1b:	41 56                	push   %r14
   11a1d:	41 55                	push   %r13
   11a1f:	41 54                	push   %r12
   11a21:	53                   	push   %rbx
   11a22:	48 81 ec 98 0a 00 00 	sub    $0xa98,%rsp
   11a29:	48 89 bd 58 f5 ff ff 	mov    %rdi,-0xaa8(%rbp)
   11a30:	89 f0                	mov    %esi,%eax
   11a32:	48 89 95 48 f5 ff ff 	mov    %rdx,-0xab8(%rbp)
   11a39:	89 ca                	mov    %ecx,%edx
   11a3b:	44 89 85 44 f5 ff ff 	mov    %r8d,-0xabc(%rbp)
   11a42:	66 89 85 54 f5 ff ff 	mov    %ax,-0xaac(%rbp)
   11a49:	89 d0                	mov    %edx,%eax
   11a4b:	88 85 50 f5 ff ff    	mov    %al,-0xab0(%rbp)
   11a51:	64 48 8b 04 25 28 00 	mov    %fs:0x28,%rax
   11a58:	00 00 
   11a5a:	48 89 45 c8          	mov    %rax,-0x38(%rbp)
   11a5e:	31 c0                	xor    %eax,%eax
   11a60:	c6 85 6f f5 ff ff 5b 	movb   $0x5b,-0xa91(%rbp)
   11a67:	48 8d 05 e8 b7 00 00 	lea    0xb7e8(%rip),%rax        # 1d256 <g_452>
   11a6e:	48 89 85 f0 f5 ff ff 	mov    %rax,-0xa10(%rbp)
   11a75:	c7 85 9c f5 ff ff f8 	movl   $0xfffffff8,-0xa64(%rbp)
   11a7c:	ff ff ff 
   11a7f:	48 8d 05 ba b7 00 00 	lea    0xb7ba(%rip),%rax        # 1d240 <g_231>
   11a86:	48 89 85 b0 f5 ff ff 	mov    %rax,-0xa50(%rbp)
   11a8d:	48 8d 85 b0 f5 ff ff 	lea    -0xa50(%rbp),%rax
   11a94:	48 89 85 f8 f5 ff ff 	mov    %rax,-0xa08(%rbp)
   11a9b:	48 c7 85 b8 f5 ff ff 	movq   $0x0,-0xa48(%rbp)
   11aa2:	00 00 00 00 
   11aa6:	48 8d 85 b8 f5 ff ff 	lea    -0xa48(%rbp),%rax
   11aad:	48 89 85 00 f6 ff ff 	mov    %rax,-0xa00(%rbp)
   11ab4:	48 8d 85 90 f8 ff ff 	lea    -0x770(%rbp),%rax
   11abb:	48 8d 15 9e c9 00 00 	lea    0xc99e(%rip),%rdx        # 1e460 <g_1788+0x900>
   11ac2:	b9 31 00 00 00       	mov    $0x31,%ecx
   11ac7:	48 89 c7             	mov    %rax,%rdi
   11aca:	48 89 d6             	mov    %rdx,%rsi
   11acd:	f3 48 a5             	rep movsq %ds:(%rsi),%es:(%rdi)
   11ad0:	48 c7 85 08 f6 ff ff 	movq   $0x0,-0x9f8(%rbp)
   11ad7:	00 00 00 00 
   11adb:	48 8d 05 8e d0 00 00 	lea    0xd08e(%rip),%rax        # 1eb70 <g_470+0x110>
   11ae2:	48 89 85 10 f6 ff ff 	mov    %rax,-0x9f0(%rbp)
   11ae9:	48 8d 05 58 cd 00 00 	lea    0xcd58(%rip),%rax        # 1e848 <g_39>
   11af0:	48 89 85 f0 f6 ff ff 	mov    %rax,-0x910(%rbp)
   11af7:	48 8d 05 4a cd 00 00 	lea    0xcd4a(%rip),%rax        # 1e848 <g_39>
   11afe:	48 89 85 f8 f6 ff ff 	mov    %rax,-0x908(%rbp)
   11b05:	48 8d 05 3c cd 00 00 	lea    0xcd3c(%rip),%rax        # 1e848 <g_39>
   11b0c:	48 89 85 00 f7 ff ff 	mov    %rax,-0x900(%rbp)
   11b13:	48 8d 05 2e cd 00 00 	lea    0xcd2e(%rip),%rax        # 1e848 <g_39>
   11b1a:	48 89 85 08 f7 ff ff 	mov    %rax,-0x8f8(%rbp)
   11b21:	48 8d 05 20 cd 00 00 	lea    0xcd20(%rip),%rax        # 1e848 <g_39>
   11b28:	48 89 85 10 f7 ff ff 	mov    %rax,-0x8f0(%rbp)
   11b2f:	48 8d 05 12 cd 00 00 	lea    0xcd12(%rip),%rax        # 1e848 <g_39>
   11b36:	48 89 85 18 f7 ff ff 	mov    %rax,-0x8e8(%rbp)
   11b3d:	48 8d 05 04 cd 00 00 	lea    0xcd04(%rip),%rax        # 1e848 <g_39>
   11b44:	48 89 85 20 f7 ff ff 	mov    %rax,-0x8e0(%rbp)
   11b4b:	48 8d 05 f6 cc 00 00 	lea    0xccf6(%rip),%rax        # 1e848 <g_39>
   11b52:	48 89 85 28 f7 ff ff 	mov    %rax,-0x8d8(%rbp)
   11b59:	48 8d 05 e8 cc 00 00 	lea    0xcce8(%rip),%rax        # 1e848 <g_39>
   11b60:	48 89 85 30 f7 ff ff 	mov    %rax,-0x8d0(%rbp)
   11b67:	48 8d 05 da cc 00 00 	lea    0xccda(%rip),%rax        # 1e848 <g_39>
   11b6e:	48 89 85 38 f7 ff ff 	mov    %rax,-0x8c8(%rbp)
   11b75:	48 c7 85 18 f6 ff ff 	movq   $0x0,-0x9e8(%rbp)
   11b7c:	00 00 00 00 
   11b80:	48 8d 05 81 ce 00 00 	lea    0xce81(%rip),%rax        # 1ea08 <g_472>
   11b87:	48 89 85 20 f6 ff ff 	mov    %rax,-0x9e0(%rbp)
   11b8e:	48 8d 05 b3 cc 00 00 	lea    0xccb3(%rip),%rax        # 1e848 <g_39>
   11b95:	48 89 85 28 f6 ff ff 	mov    %rax,-0x9d8(%rbp)
   11b9c:	48 8d 05 c5 df 00 00 	lea    0xdfc5(%rip),%rax        # 1fb68 <g_387>
   11ba3:	48 89 85 30 f6 ff ff 	mov    %rax,-0x9d0(%rbp)
   11baa:	c7 85 74 f5 ff ff 02 	movl   $0x2,-0xa8c(%rbp)
   11bb1:	00 00 00 
   11bb4:	c7 85 78 f5 ff ff f6 	movl   $0xfffffff6,-0xa88(%rbp)
   11bbb:	ff ff ff 
   11bbe:	c7 85 80 f5 ff ff 67 	movl   $0x36d94167,-0xa80(%rbp)
   11bc5:	41 d9 36 
   11bc8:	c7 85 a0 f5 ff ff 02 	movl   $0x2,-0xa60(%rbp)
   11bcf:	00 00 00 
   11bd2:	c7 85 84 f5 ff ff fa 	movl   $0x5d15f9fa,-0xa7c(%rbp)
   11bd9:	f9 15 5d 
   11bdc:	48 c7 85 c0 f5 ff ff 	movq   $0x0,-0xa40(%rbp)
   11be3:	00 00 00 00 
   11be7:	48 c7 85 e8 f5 ff ff 	movq   $0x0,-0xa18(%rbp)
   11bee:	00 00 00 00 
   11bf2:	66 c7 85 72 f5 ff ff 	movw   $0x3407,-0xa8e(%rbp)
   11bf9:	07 34 
   11bfb:	c7 85 88 f5 ff ff 00 	movl   $0x0,-0xa78(%rbp)
   11c02:	00 00 00 
   11c05:	eb 19                	jmp    11c20 <func_51+0x20f>
   11c07:	8b 85 88 f5 ff ff    	mov    -0xa78(%rbp),%eax
   11c0d:	48 98                	cltq   
   11c0f:	66 c7 84 45 b0 f6 ff 	movw   $0x0,-0x950(%rbp,%rax,2)
   11c16:	ff 00 00 
   11c19:	83 85 88 f5 ff ff 01 	addl   $0x1,-0xa78(%rbp)
   11c20:	83 bd 88 f5 ff ff 07 	cmpl   $0x7,-0xa78(%rbp)
   11c27:	7e de                	jle    11c07 <func_51+0x1f6>
   11c29:	90                   	nop
   11c2a:	0f b6 85 6f f5 ff ff 	movzbl -0xa91(%rbp),%eax
   11c31:	84 c0                	test   %al,%al
   11c33:	0f 84 a9 00 00 00    	je     11ce2 <func_51+0x2d1>
   11c39:	48 8b 85 58 f5 ff ff 	mov    -0xaa8(%rbp),%rax
   11c40:	41 89 c4             	mov    %eax,%r12d
   11c43:	0f b6 05 ee b5 00 00 	movzbl 0xb5ee(%rip),%eax        # 1d238 <g_163>
   11c4a:	84 c0                	test   %al,%al
   11c4c:	0f 95 c0             	setne  %al
   11c4f:	0f b6 d8             	movzbl %al,%ebx
   11c52:	0f b6 85 50 f5 ff ff 	movzbl -0xab0(%rbp),%eax
   11c59:	89 c6                	mov    %eax,%esi
   11c5b:	bf 00 00 00 00       	mov    $0x0,%edi
   11c60:	e8 c5 58 ff ff       	callq  752a <safe_rshift_func_int16_t_s_s>
   11c65:	98                   	cwtl   
   11c66:	39 c3                	cmp    %eax,%ebx
   11c68:	0f 94 c0             	sete   %al
   11c6b:	0f b6 c0             	movzbl %al,%eax
   11c6e:	be 0d 00 00 00       	mov    $0xd,%esi
   11c73:	89 c7                	mov    %eax,%edi
   11c75:	e8 ce 61 ff ff       	callq  7e48 <safe_rshift_func_uint16_t_u_s>
   11c7a:	0f be c0             	movsbl %al,%eax
   11c7d:	44 89 e6             	mov    %r12d,%esi
   11c80:	89 c7                	mov    %eax,%edi
   11c82:	e8 67 56 ff ff       	callq  72ee <safe_lshift_func_int8_t_s_u>
   11c87:	0f be d0             	movsbl %al,%edx
   11c8a:	0f b6 85 6f f5 ff ff 	movzbl -0xa91(%rbp),%eax
   11c91:	0f b6 c0             	movzbl %al,%eax
   11c94:	39 c2                	cmp    %eax,%edx
   11c96:	0f 95 c0             	setne  %al
   11c99:	0f b6 d0             	movzbl %al,%edx
   11c9c:	8b 05 9e b5 00 00    	mov    0xb59e(%rip),%eax        # 1d240 <g_231>
   11ca2:	39 c2                	cmp    %eax,%edx
   11ca4:	0f 97 c0             	seta   %al
   11ca7:	0f b6 c0             	movzbl %al,%eax
   11caa:	48 8b 95 f0 f5 ff ff 	mov    -0xa10(%rbp),%rdx
   11cb1:	c6 02 01             	movb   $0x1,(%rdx)
   11cb4:	89 c6                	mov    %eax,%esi
   11cb6:	bf 01 00 00 00       	mov    $0x1,%edi
   11cbb:	e8 e1 55 ff ff       	callq  72a1 <safe_lshift_func_int8_t_s_s>
   11cc0:	48 8b 85 f8 f5 ff ff 	mov    -0xa08(%rbp),%rax
   11cc7:	48 c7 00 00 00 00 00 	movq   $0x0,(%rax)
   11cce:	48 8b 85 f8 f5 ff ff 	mov    -0xa08(%rbp),%rax
   11cd5:	48 8b 10             	mov    (%rax),%rdx
   11cd8:	48 8b 85 00 f6 ff ff 	mov    -0xa00(%rbp),%rax
   11cdf:	48 89 10             	mov    %rdx,(%rax)
   11ce2:	ba 00 00 00 00       	mov    $0x0,%edx
   11ce7:	0f bf 85 54 f5 ff ff 	movswl -0xaac(%rbp),%eax
   11cee:	39 c2                	cmp    %eax,%edx
   11cf0:	0f 9c c0             	setl   %al
   11cf3:	0f b6 c0             	movzbl %al,%eax
   11cf6:	be fa 00 00 00       	mov    $0xfa,%esi
   11cfb:	89 c7                	mov    %eax,%edi
   11cfd:	e8 91 5e ff ff       	callq  7b93 <safe_mul_func_uint8_t_u_u>
   11d02:	0f b6 d0             	movzbl %al,%edx
   11d05:	0f b6 85 6f f5 ff ff 	movzbl -0xa91(%rbp),%eax
   11d0c:	0f b6 c0             	movzbl %al,%eax
   11d0f:	48 89 d6             	mov    %rdx,%rsi
   11d12:	48 89 c7             	mov    %rax,%rdi
   11d15:	e8 31 63 ff ff       	callq  804b <safe_sub_func_uint64_t_u_u>
   11d1a:	98                   	cwtl   
   11d1b:	be 0d 00 00 00       	mov    $0xd,%esi
   11d20:	89 c7                	mov    %eax,%edi
   11d22:	e8 3c 58 ff ff       	callq  7563 <safe_rshift_func_int16_t_s_u>
   11d27:	98                   	cwtl   
   11d28:	39 85 9c f5 ff ff    	cmp    %eax,-0xa64(%rbp)
   11d2e:	0f 9d c0             	setge  %al
   11d31:	0f b6 c0             	movzbl %al,%eax
   11d34:	be 03 00 00 00       	mov    $0x3,%esi
   11d39:	89 c7                	mov    %eax,%edi
   11d3b:	e8 0c 5f ff ff       	callq  7c4c <safe_lshift_func_uint8_t_u_u>
   11d40:	0f b6 d0             	movzbl %al,%edx
   11d43:	48 8b 05 1e de 00 00 	mov    0xde1e(%rip),%rax        # 1fb68 <g_387>
   11d4a:	0b 95 9c f5 ff ff    	or     -0xa64(%rbp),%edx
   11d50:	89 10                	mov    %edx,(%rax)
   11d52:	48 8b 95 20 f7 ff ff 	mov    -0x8e0(%rbp),%rdx
   11d59:	48 8b 85 20 f6 ff ff 	mov    -0x9e0(%rbp),%rax
   11d60:	48 89 10             	mov    %rdx,(%rax)
   11d63:	48 8b 85 20 f6 ff ff 	mov    -0x9e0(%rbp),%rax
   11d6a:	48 8b 00             	mov    (%rax),%rax
   11d6d:	48 8b 95 28 f6 ff ff 	mov    -0x9d8(%rbp),%rdx
   11d74:	48 89 d6             	mov    %rdx,%rsi
   11d77:	48 89 c7             	mov    %rax,%rdi
   11d7a:	e8 5f 16 00 00       	callq  133de <func_57>
   11d7f:	48 8b 95 30 f6 ff ff 	mov    -0x9d0(%rbp),%rdx
   11d86:	48 89 02             	mov    %rax,(%rdx)
   11d89:	48 c7 85 58 f5 ff ff 	movq   $0x2,-0xaa8(%rbp)
   11d90:	02 00 00 00 
   11d94:	e9 0a 16 00 00       	jmpq   133a3 <func_51+0x1992>
   11d99:	c7 45 c2 01 fb 01 01 	movl   $0x101fb01,-0x3e(%rbp)
   11da0:	66 c7 45 c6 fb 01    	movw   $0x1fb,-0x3a(%rbp)
   11da6:	48 8d 05 17 b4 00 00 	lea    0xb417(%rip),%rax        # 1d1c4 <g_14>
   11dad:	48 89 85 40 f7 ff ff 	mov    %rax,-0x8c0(%rbp)
   11db4:	48 8d 05 09 b4 00 00 	lea    0xb409(%rip),%rax        # 1d1c4 <g_14>
   11dbb:	48 89 85 48 f7 ff ff 	mov    %rax,-0x8b8(%rbp)
   11dc2:	48 8d 05 73 b4 00 00 	lea    0xb473(%rip),%rax        # 1d23c <g_215>
   11dc9:	48 89 85 50 f7 ff ff 	mov    %rax,-0x8b0(%rbp)
   11dd0:	48 8d 85 74 f5 ff ff 	lea    -0xa8c(%rbp),%rax
   11dd7:	48 89 85 58 f7 ff ff 	mov    %rax,-0x8a8(%rbp)
   11dde:	48 8d 05 57 b4 00 00 	lea    0xb457(%rip),%rax        # 1d23c <g_215>
   11de5:	48 89 85 60 f7 ff ff 	mov    %rax,-0x8a0(%rbp)
   11dec:	48 8d 05 49 b4 00 00 	lea    0xb449(%rip),%rax        # 1d23c <g_215>
   11df3:	48 89 85 68 f7 ff ff 	mov    %rax,-0x898(%rbp)
   11dfa:	48 8d 05 3b b4 00 00 	lea    0xb43b(%rip),%rax        # 1d23c <g_215>
   11e01:	48 89 85 70 f7 ff ff 	mov    %rax,-0x890(%rbp)
   11e08:	48 8d 05 b1 b3 00 00 	lea    0xb3b1(%rip),%rax        # 1d1c0 <g_11>
   11e0f:	48 89 85 78 f7 ff ff 	mov    %rax,-0x888(%rbp)
   11e16:	48 8d 05 c3 b3 00 00 	lea    0xb3c3(%rip),%rax        # 1d1e0 <g_65>
   11e1d:	48 89 85 80 f7 ff ff 	mov    %rax,-0x880(%rbp)
   11e24:	48 8d 85 74 f5 ff ff 	lea    -0xa8c(%rbp),%rax
   11e2b:	48 89 85 88 f7 ff ff 	mov    %rax,-0x878(%rbp)
   11e32:	48 8d 05 87 b3 00 00 	lea    0xb387(%rip),%rax        # 1d1c0 <g_11>
   11e39:	48 89 85 90 f7 ff ff 	mov    %rax,-0x870(%rbp)
   11e40:	48 8d 85 74 f5 ff ff 	lea    -0xa8c(%rbp),%rax
   11e47:	48 89 85 98 f7 ff ff 	mov    %rax,-0x868(%rbp)
   11e4e:	c7 85 a4 f5 ff ff ff 	movl   $0xffffffff,-0xa5c(%rbp)
   11e55:	ff ff ff 
   11e58:	48 8d 05 a1 cb 00 00 	lea    0xcba1(%rip),%rax        # 1ea00 <g_290>
   11e5f:	48 89 85 38 f6 ff ff 	mov    %rax,-0x9c8(%rbp)
   11e66:	48 8d 05 db b3 00 00 	lea    0xb3db(%rip),%rax        # 1d248 <g_236>
   11e6d:	48 89 85 c8 f5 ff ff 	mov    %rax,-0xa38(%rbp)
   11e74:	48 8d 05 cd c9 00 00 	lea    0xc9cd(%rip),%rax        # 1e848 <g_39>
   11e7b:	48 89 85 40 f6 ff ff 	mov    %rax,-0x9c0(%rbp)
   11e82:	48 c7 05 bb b3 00 00 	movq   $0x4,0xb3bb(%rip)        # 1d248 <g_236>
   11e89:	04 00 00 00 
   11e8d:	e9 23 01 00 00       	jmpq   11fb5 <func_51+0x5a4>
   11e92:	48 8d 85 a0 f7 ff ff 	lea    -0x860(%rbp),%rax
   11e99:	48 83 c0 18          	add    $0x18,%rax
   11e9d:	48 89 85 e0 f5 ff ff 	mov    %rax,-0xa20(%rbp)
   11ea4:	48 8d 85 e0 f5 ff ff 	lea    -0xa20(%rbp),%rax
   11eab:	48 89 85 a8 f6 ff ff 	mov    %rax,-0x958(%rbp)
   11eb2:	48 8d 85 20 fa ff ff 	lea    -0x5e0(%rbp),%rax
   11eb9:	48 8d 15 40 c7 00 00 	lea    0xc740(%rip),%rdx        # 1e600 <g_1788+0xaa0>
   11ec0:	b9 46 00 00 00       	mov    $0x46,%ecx
   11ec5:	48 89 c7             	mov    %rax,%rdi
   11ec8:	48 89 d6             	mov    %rdx,%rsi
   11ecb:	f3 48 a5             	rep movsq %ds:(%rsi),%es:(%rdi)
   11ece:	c7 85 8c f5 ff ff 00 	movl   $0x0,-0xa74(%rbp)
   11ed5:	00 00 00 
   11ed8:	eb 1e                	jmp    11ef8 <func_51+0x4e7>
   11eda:	8b 85 8c f5 ff ff    	mov    -0xa74(%rbp),%eax
   11ee0:	48 98                	cltq   
   11ee2:	48 8d 15 17 cb 00 00 	lea    0xcb17(%rip),%rdx        # 1ea00 <g_290>
   11ee9:	48 89 94 c5 a0 f7 ff 	mov    %rdx,-0x860(%rbp,%rax,8)
   11ef0:	ff 
   11ef1:	83 85 8c f5 ff ff 01 	addl   $0x1,-0xa74(%rbp)
   11ef8:	83 bd 8c f5 ff ff 07 	cmpl   $0x7,-0xa74(%rbp)
   11eff:	7e d9                	jle    11eda <func_51+0x4c9>
   11f01:	48 8b 95 e0 f5 ff ff 	mov    -0xa20(%rbp),%rdx
   11f08:	48 8b 85 a8 f6 ff ff 	mov    -0x958(%rbp),%rax
   11f0f:	48 89 10             	mov    %rdx,(%rax)
   11f12:	c6 05 3d b3 00 00 07 	movb   $0x7,0xb33d(%rip)        # 1d256 <g_452>
   11f19:	eb 73                	jmp    11f8e <func_51+0x57d>
   11f1b:	0f b6 05 ae b2 00 00 	movzbl 0xb2ae(%rip),%eax        # 1d1d0 <g_35>
   11f22:	c1 e0 06             	shl    $0x6,%eax
   11f25:	c0 f8 06             	sar    $0x6,%al
   11f28:	0f be d0             	movsbl %al,%edx
   11f2b:	48 8b 05 16 b3 00 00 	mov    0xb316(%rip),%rax        # 1d248 <g_236>
   11f32:	48 8d 0d ab b2 00 00 	lea    0xb2ab(%rip),%rcx        # 1d1e4 <g_91>
   11f39:	0f b6 04 08          	movzbl (%rax,%rcx,1),%eax
   11f3d:	0f b6 c0             	movzbl %al,%eax
   11f40:	89 d6                	mov    %edx,%esi
   11f42:	89 c7                	mov    %eax,%edi
   11f44:	e8 1a 56 ff ff       	callq  7563 <safe_rshift_func_int16_t_s_u>
   11f49:	98                   	cwtl   
   11f4a:	89 c7                	mov    %eax,%edi
   11f4c:	e8 4c 54 ff ff       	callq  739d <safe_unary_minus_func_int16_t_s>
   11f51:	89 c2                	mov    %eax,%edx
   11f53:	48 8b 85 30 f6 ff ff 	mov    -0x9d0(%rbp),%rax
   11f5a:	48 8b 00             	mov    (%rax),%rax
   11f5d:	0f bf d2             	movswl %dx,%edx
   11f60:	89 10                	mov    %edx,(%rax)
   11f62:	48 8b 05 ff db 00 00 	mov    0xdbff(%rip),%rax        # 1fb68 <g_387>
   11f69:	8b 00                	mov    (%rax),%eax
   11f6b:	89 c2                	mov    %eax,%edx
   11f6d:	8b 85 44 f5 ff ff    	mov    -0xabc(%rbp),%eax
   11f73:	09 c2                	or     %eax,%edx
   11f75:	48 8b 05 ec db 00 00 	mov    0xdbec(%rip),%rax        # 1fb68 <g_387>
   11f7c:	89 10                	mov    %edx,(%rax)
   11f7e:	0f b6 05 d1 b2 00 00 	movzbl 0xb2d1(%rip),%eax        # 1d256 <g_452>
   11f85:	83 e8 01             	sub    $0x1,%eax
   11f88:	88 05 c8 b2 00 00    	mov    %al,0xb2c8(%rip)        # 1d256 <g_452>
   11f8e:	0f b6 05 c1 b2 00 00 	movzbl 0xb2c1(%rip),%eax        # 1d256 <g_452>
   11f95:	84 c0                	test   %al,%al
   11f97:	7f 82                	jg     11f1b <func_51+0x50a>
   11f99:	0f b6 45 c4          	movzbl -0x3c(%rbp),%eax
   11f9d:	83 c0 01             	add    $0x1,%eax
   11fa0:	88 45 c4             	mov    %al,-0x3c(%rbp)
   11fa3:	48 8b 05 9e b2 00 00 	mov    0xb29e(%rip),%rax        # 1d248 <g_236>
   11faa:	48 83 e8 01          	sub    $0x1,%rax
   11fae:	48 89 05 93 b2 00 00 	mov    %rax,0xb293(%rip)        # 1d248 <g_236>
   11fb5:	48 8b 05 8c b2 00 00 	mov    0xb28c(%rip),%rax        # 1d248 <g_236>
   11fbc:	48 85 c0             	test   %rax,%rax
   11fbf:	0f 89 cd fe ff ff    	jns    11e92 <func_51+0x481>
   11fc5:	83 85 a4 f5 ff ff 01 	addl   $0x1,-0xa5c(%rbp)
   11fcc:	c7 05 72 b2 00 00 03 	movl   $0x3,0xb272(%rip)        # 1d248 <g_236>
   11fd3:	00 00 00 
   11fd6:	e9 ab 13 00 00       	jmpq   13386 <func_51+0x1975>
   11fdb:	48 8d 85 78 f5 ff ff 	lea    -0xa88(%rbp),%rax
   11fe2:	48 89 85 48 f6 ff ff 	mov    %rax,-0x9b8(%rbp)
   11fe9:	c7 85 7c f5 ff ff 00 	movl   $0x0,-0xa84(%rbp)
   11ff0:	00 00 00 
   11ff3:	c7 85 a8 f5 ff ff 06 	movl   $0x6,-0xa58(%rbp)
   11ffa:	00 00 00 
   11ffd:	48 8d 05 44 c8 00 00 	lea    0xc844(%rip),%rax        # 1e848 <g_39>
   12004:	48 89 85 c0 f6 ff ff 	mov    %rax,-0x940(%rbp)
   1200b:	48 8d 05 36 c8 00 00 	lea    0xc836(%rip),%rax        # 1e848 <g_39>
   12012:	48 89 85 c8 f6 ff ff 	mov    %rax,-0x938(%rbp)
   12019:	48 8d 05 28 c8 00 00 	lea    0xc828(%rip),%rax        # 1e848 <g_39>
   12020:	48 89 85 d0 f6 ff ff 	mov    %rax,-0x930(%rbp)
   12027:	48 8d 05 1a c8 00 00 	lea    0xc81a(%rip),%rax        # 1e848 <g_39>
   1202e:	48 89 85 d8 f6 ff ff 	mov    %rax,-0x928(%rbp)
   12035:	48 8d 05 0c c8 00 00 	lea    0xc80c(%rip),%rax        # 1e848 <g_39>
   1203c:	48 89 85 e0 f6 ff ff 	mov    %rax,-0x920(%rbp)
   12043:	48 8d 05 fe c7 00 00 	lea    0xc7fe(%rip),%rax        # 1e848 <g_39>
   1204a:	48 89 85 e8 f6 ff ff 	mov    %rax,-0x918(%rbp)
   12051:	48 8d 05 18 b2 00 00 	lea    0xb218(%rip),%rax        # 1d270 <g_583>
   12058:	48 89 85 d0 f5 ff ff 	mov    %rax,-0xa30(%rbp)
   1205f:	48 8d 05 da b1 00 00 	lea    0xb1da(%rip),%rax        # 1d240 <g_231>
   12066:	48 89 85 d8 f5 ff ff 	mov    %rax,-0xa28(%rbp)
   1206d:	c7 05 c5 b1 00 00 04 	movl   $0x4,0xb1c5(%rip)        # 1d23c <g_215>
   12074:	00 00 00 
   12077:	eb 5a                	jmp    120d3 <func_51+0x6c2>
   12079:	48 8d 85 20 fa ff ff 	lea    -0x5e0(%rbp),%rax
   12080:	48 8d 15 d9 72 00 00 	lea    0x72d9(%rip),%rdx        # 19360 <g_1645+0x12e0>
   12087:	b9 5a 00 00 00       	mov    $0x5a,%ecx
   1208c:	48 89 c7             	mov    %rax,%rdi
   1208f:	48 89 d6             	mov    %rdx,%rsi
   12092:	f3 48 a5             	rep movsq %ds:(%rsi),%es:(%rdi)
   12095:	c7 85 90 f5 ff ff 00 	movl   $0x0,-0xa70(%rbp)
   1209c:	00 00 00 
   1209f:	eb 1a                	jmp    120bb <func_51+0x6aa>
   120a1:	8b 85 90 f5 ff ff    	mov    -0xa70(%rbp),%eax
   120a7:	48 98                	cltq   
   120a9:	c7 84 85 a0 f7 ff ff 	movl   $0xffffffff,-0x860(%rbp,%rax,4)
   120b0:	ff ff ff ff 
   120b4:	83 85 90 f5 ff ff 01 	addl   $0x1,-0xa70(%rbp)
   120bb:	83 bd 90 f5 ff ff 02 	cmpl   $0x2,-0xa70(%rbp)
   120c2:	7e dd                	jle    120a1 <func_51+0x690>
   120c4:	8b 05 72 b1 00 00    	mov    0xb172(%rip),%eax        # 1d23c <g_215>
   120ca:	83 e8 01             	sub    $0x1,%eax
   120cd:	89 05 69 b1 00 00    	mov    %eax,0xb169(%rip)        # 1d23c <g_215>
   120d3:	8b 05 63 b1 00 00    	mov    0xb163(%rip),%eax        # 1d23c <g_215>
   120d9:	85 c0                	test   %eax,%eax
   120db:	7f 9c                	jg     12079 <func_51+0x668>
   120dd:	8b 05 e1 b0 00 00    	mov    0xb0e1(%rip),%eax        # 1d1c4 <g_14>
   120e3:	89 c3                	mov    %eax,%ebx
   120e5:	48 8b 85 48 f6 ff ff 	mov    -0x9b8(%rbp),%rax
   120ec:	8b 00                	mov    (%rax),%eax
   120ee:	98                   	cwtl   
   120ef:	be 0f 00 00 00       	mov    $0xf,%esi
   120f4:	89 c7                	mov    %eax,%edi
   120f6:	e8 e6 53 ff ff       	callq  74e1 <safe_lshift_func_int16_t_s_u>
   120fb:	98                   	cwtl   
   120fc:	89 de                	mov    %ebx,%esi
   120fe:	89 c7                	mov    %eax,%edi
   12100:	e8 5e 54 ff ff       	callq  7563 <safe_rshift_func_int16_t_s_u>
   12105:	0f bf d0             	movswl %ax,%edx
   12108:	48 8b 05 59 da 00 00 	mov    0xda59(%rip),%rax        # 1fb68 <g_387>
   1210f:	c7 00 02 00 00 00    	movl   $0x2,(%rax)
   12115:	8b 00                	mov    (%rax),%eax
   12117:	39 c2                	cmp    %eax,%edx
   12119:	0f 8e 2e 0b 00 00    	jle    12c4d <func_51+0x123c>
   1211f:	48 8d 05 22 b1 00 00 	lea    0xb122(%rip),%rax        # 1d248 <g_236>
   12126:	48 89 85 a0 f7 ff ff 	mov    %rax,-0x860(%rbp)
   1212d:	48 8d 05 14 b1 00 00 	lea    0xb114(%rip),%rax        # 1d248 <g_236>
   12134:	48 89 85 a8 f7 ff ff 	mov    %rax,-0x858(%rbp)
   1213b:	48 8d 05 1e b1 00 00 	lea    0xb11e(%rip),%rax        # 1d260 <g_540>
   12142:	48 89 85 b0 f7 ff ff 	mov    %rax,-0x850(%rbp)
   12149:	48 8d 05 f8 b0 00 00 	lea    0xb0f8(%rip),%rax        # 1d248 <g_236>
   12150:	48 89 85 b8 f7 ff ff 	mov    %rax,-0x848(%rbp)
   12157:	48 8d 05 ea b0 00 00 	lea    0xb0ea(%rip),%rax        # 1d248 <g_236>
   1215e:	48 89 85 c0 f7 ff ff 	mov    %rax,-0x840(%rbp)
   12165:	48 8d 05 f4 b0 00 00 	lea    0xb0f4(%rip),%rax        # 1d260 <g_540>
   1216c:	48 89 85 c8 f7 ff ff 	mov    %rax,-0x838(%rbp)
   12173:	48 8d 05 ce b0 00 00 	lea    0xb0ce(%rip),%rax        # 1d248 <g_236>
   1217a:	48 89 85 d0 f7 ff ff 	mov    %rax,-0x830(%rbp)
   12181:	48 8d 05 c0 b0 00 00 	lea    0xb0c0(%rip),%rax        # 1d248 <g_236>
   12188:	48 89 85 d8 f7 ff ff 	mov    %rax,-0x828(%rbp)
   1218f:	48 8d 05 ca b0 00 00 	lea    0xb0ca(%rip),%rax        # 1d260 <g_540>
   12196:	48 89 85 e0 f7 ff ff 	mov    %rax,-0x820(%rbp)
   1219d:	48 8d 05 a4 b0 00 00 	lea    0xb0a4(%rip),%rax        # 1d248 <g_236>
   121a4:	48 89 85 e8 f7 ff ff 	mov    %rax,-0x818(%rbp)
   121ab:	48 8d 05 96 b0 00 00 	lea    0xb096(%rip),%rax        # 1d248 <g_236>
   121b2:	48 89 85 f0 f7 ff ff 	mov    %rax,-0x810(%rbp)
   121b9:	48 8d 05 a0 b0 00 00 	lea    0xb0a0(%rip),%rax        # 1d260 <g_540>
   121c0:	48 89 85 f8 f7 ff ff 	mov    %rax,-0x808(%rbp)
   121c7:	48 8d 05 7a b0 00 00 	lea    0xb07a(%rip),%rax        # 1d248 <g_236>
   121ce:	48 89 85 00 f8 ff ff 	mov    %rax,-0x800(%rbp)
   121d5:	48 8d 05 6c b0 00 00 	lea    0xb06c(%rip),%rax        # 1d248 <g_236>
   121dc:	48 89 85 08 f8 ff ff 	mov    %rax,-0x7f8(%rbp)
   121e3:	48 8d 05 76 b0 00 00 	lea    0xb076(%rip),%rax        # 1d260 <g_540>
   121ea:	48 89 85 10 f8 ff ff 	mov    %rax,-0x7f0(%rbp)
   121f1:	48 8d 05 50 b0 00 00 	lea    0xb050(%rip),%rax        # 1d248 <g_236>
   121f8:	48 89 85 18 f8 ff ff 	mov    %rax,-0x7e8(%rbp)
   121ff:	48 8d 05 42 b0 00 00 	lea    0xb042(%rip),%rax        # 1d248 <g_236>
   12206:	48 89 85 20 f8 ff ff 	mov    %rax,-0x7e0(%rbp)
   1220d:	48 8d 05 4c b0 00 00 	lea    0xb04c(%rip),%rax        # 1d260 <g_540>
   12214:	48 89 85 28 f8 ff ff 	mov    %rax,-0x7d8(%rbp)
   1221b:	48 8d 05 26 b0 00 00 	lea    0xb026(%rip),%rax        # 1d248 <g_236>
   12222:	48 89 85 30 f8 ff ff 	mov    %rax,-0x7d0(%rbp)
   12229:	48 8d 05 18 b0 00 00 	lea    0xb018(%rip),%rax        # 1d248 <g_236>
   12230:	48 89 85 38 f8 ff ff 	mov    %rax,-0x7c8(%rbp)
   12237:	48 8d 05 22 b0 00 00 	lea    0xb022(%rip),%rax        # 1d260 <g_540>
   1223e:	48 89 85 40 f8 ff ff 	mov    %rax,-0x7c0(%rbp)
   12245:	48 8d 05 fc af 00 00 	lea    0xaffc(%rip),%rax        # 1d248 <g_236>
   1224c:	48 89 85 48 f8 ff ff 	mov    %rax,-0x7b8(%rbp)
   12253:	48 8d 05 ee af 00 00 	lea    0xafee(%rip),%rax        # 1d248 <g_236>
   1225a:	48 89 85 50 f8 ff ff 	mov    %rax,-0x7b0(%rbp)
   12261:	48 8d 05 f8 af 00 00 	lea    0xaff8(%rip),%rax        # 1d260 <g_540>
   12268:	48 89 85 58 f8 ff ff 	mov    %rax,-0x7a8(%rbp)
   1226f:	48 8d 05 d2 af 00 00 	lea    0xafd2(%rip),%rax        # 1d248 <g_236>
   12276:	48 89 85 60 f8 ff ff 	mov    %rax,-0x7a0(%rbp)
   1227d:	48 8d 05 c4 af 00 00 	lea    0xafc4(%rip),%rax        # 1d248 <g_236>
   12284:	48 89 85 68 f8 ff ff 	mov    %rax,-0x798(%rbp)
   1228b:	48 8d 05 ce af 00 00 	lea    0xafce(%rip),%rax        # 1d260 <g_540>
   12292:	48 89 85 70 f8 ff ff 	mov    %rax,-0x790(%rbp)
   12299:	48 8d 05 a8 af 00 00 	lea    0xafa8(%rip),%rax        # 1d248 <g_236>
   122a0:	48 89 85 78 f8 ff ff 	mov    %rax,-0x788(%rbp)
   122a7:	48 8d 05 9a af 00 00 	lea    0xaf9a(%rip),%rax        # 1d248 <g_236>
   122ae:	48 89 85 80 f8 ff ff 	mov    %rax,-0x780(%rbp)
   122b5:	48 8d 05 a4 af 00 00 	lea    0xafa4(%rip),%rax        # 1d260 <g_540>
   122bc:	48 89 85 88 f8 ff ff 	mov    %rax,-0x778(%rbp)
   122c3:	c6 05 8c af 00 00 00 	movb   $0x0,0xaf8c(%rip)        # 1d256 <g_452>
   122ca:	eb 5b                	jmp    12327 <func_51+0x916>
   122cc:	c7 85 84 f5 ff ff 01 	movl   $0x1,-0xa7c(%rbp)
   122d3:	00 00 00 
   122d6:	eb 33                	jmp    1230b <func_51+0x8fa>
   122d8:	c6 85 71 f5 ff ff 01 	movb   $0x1,-0xa8f(%rbp)
   122df:	66 83 bd 54 f5 ff ff 	cmpw   $0x0,-0xaac(%rbp)
   122e6:	00 
   122e7:	75 2d                	jne    12316 <func_51+0x905>
   122e9:	0f b6 85 71 f5 ff ff 	movzbl -0xa8f(%rbp),%eax
   122f0:	83 e8 01             	sub    $0x1,%eax
   122f3:	88 85 71 f5 ff ff    	mov    %al,-0xa8f(%rbp)
   122f9:	48 8b 85 48 f6 ff ff 	mov    -0x9b8(%rbp),%rax
   12300:	8b 00                	mov    (%rax),%eax
   12302:	85 c0                	test   %eax,%eax
   12304:	83 85 84 f5 ff ff 01 	addl   $0x1,-0xa7c(%rbp)
   1230b:	83 bd 84 f5 ff ff 08 	cmpl   $0x8,-0xa7c(%rbp)
   12312:	7e c4                	jle    122d8 <func_51+0x8c7>
   12314:	eb 01                	jmp    12317 <func_51+0x906>
   12316:	90                   	nop
   12317:	0f b6 05 38 af 00 00 	movzbl 0xaf38(%rip),%eax        # 1d256 <g_452>
   1231e:	83 c0 01             	add    $0x1,%eax
   12321:	88 05 2f af 00 00    	mov    %al,0xaf2f(%rip)        # 1d256 <g_452>
   12327:	0f b6 05 28 af 00 00 	movzbl 0xaf28(%rip),%eax        # 1d256 <g_452>
   1232e:	3c 08                	cmp    $0x8,%al
   12330:	7e 9a                	jle    122cc <func_51+0x8bb>
   12332:	c7 85 80 f5 ff ff 00 	movl   $0x0,-0xa80(%rbp)
   12339:	00 00 00 
   1233c:	e9 fa 08 00 00       	jmpq   12c3b <func_51+0x122a>
   12341:	48 8d 85 c8 f5 ff ff 	lea    -0xa38(%rbp),%rax
   12348:	48 89 85 98 f6 ff ff 	mov    %rax,-0x968(%rbp)
   1234f:	48 c7 85 20 fa ff ff 	movq   $0x0,-0x5e0(%rbp)
   12356:	00 00 00 00 
   1235a:	48 c7 85 28 fa ff ff 	movq   $0x0,-0x5d8(%rbp)
   12361:	00 00 00 00 
   12365:	48 c7 85 30 fa ff ff 	movq   $0x0,-0x5d0(%rbp)
   1236c:	00 00 00 00 
   12370:	48 c7 85 38 fa ff ff 	movq   $0x0,-0x5c8(%rbp)
   12377:	00 00 00 00 
   1237b:	48 c7 85 40 fa ff ff 	movq   $0x0,-0x5c0(%rbp)
   12382:	00 00 00 00 
   12386:	48 c7 85 48 fa ff ff 	movq   $0x0,-0x5b8(%rbp)
   1238d:	00 00 00 00 
   12391:	48 c7 85 50 fa ff ff 	movq   $0x0,-0x5b0(%rbp)
   12398:	00 00 00 00 
   1239c:	48 c7 85 58 fa ff ff 	movq   $0x0,-0x5a8(%rbp)
   123a3:	00 00 00 00 
   123a7:	48 c7 85 60 fa ff ff 	movq   $0x0,-0x5a0(%rbp)
   123ae:	00 00 00 00 
   123b2:	48 c7 85 68 fa ff ff 	movq   $0x0,-0x598(%rbp)
   123b9:	00 00 00 00 
   123bd:	48 c7 85 70 fa ff ff 	movq   $0x0,-0x590(%rbp)
   123c4:	00 00 00 00 
   123c8:	48 8d 85 74 f5 ff ff 	lea    -0xa8c(%rbp),%rax
   123cf:	48 89 85 78 fa ff ff 	mov    %rax,-0x588(%rbp)
   123d6:	48 8d 85 74 f5 ff ff 	lea    -0xa8c(%rbp),%rax
   123dd:	48 89 85 80 fa ff ff 	mov    %rax,-0x580(%rbp)
   123e4:	48 c7 85 88 fa ff ff 	movq   $0x0,-0x578(%rbp)
   123eb:	00 00 00 00 
   123ef:	48 8d 85 74 f5 ff ff 	lea    -0xa8c(%rbp),%rax
   123f6:	48 89 85 90 fa ff ff 	mov    %rax,-0x570(%rbp)
   123fd:	48 8d 85 74 f5 ff ff 	lea    -0xa8c(%rbp),%rax
   12404:	48 89 85 98 fa ff ff 	mov    %rax,-0x568(%rbp)
   1240b:	48 c7 85 a0 fa ff ff 	movq   $0x0,-0x560(%rbp)
   12412:	00 00 00 00 
   12416:	48 8d 85 74 f5 ff ff 	lea    -0xa8c(%rbp),%rax
   1241d:	48 89 85 a8 fa ff ff 	mov    %rax,-0x558(%rbp)
   12424:	48 8d 85 74 f5 ff ff 	lea    -0xa8c(%rbp),%rax
   1242b:	48 89 85 b0 fa ff ff 	mov    %rax,-0x550(%rbp)
   12432:	48 c7 85 b8 fa ff ff 	movq   $0x0,-0x548(%rbp)
   12439:	00 00 00 00 
   1243d:	48 8d 85 74 f5 ff ff 	lea    -0xa8c(%rbp),%rax
   12444:	48 89 85 c0 fa ff ff 	mov    %rax,-0x540(%rbp)
   1244b:	48 c7 85 c8 fa ff ff 	movq   $0x0,-0x538(%rbp)
   12452:	00 00 00 00 
   12456:	48 8d 85 74 f5 ff ff 	lea    -0xa8c(%rbp),%rax
   1245d:	48 89 85 d0 fa ff ff 	mov    %rax,-0x530(%rbp)
   12464:	48 8d 85 74 f5 ff ff 	lea    -0xa8c(%rbp),%rax
   1246b:	48 89 85 d8 fa ff ff 	mov    %rax,-0x528(%rbp)
   12472:	48 c7 85 e0 fa ff ff 	movq   $0x0,-0x520(%rbp)
   12479:	00 00 00 00 
   1247d:	48 8d 85 74 f5 ff ff 	lea    -0xa8c(%rbp),%rax
   12484:	48 89 85 e8 fa ff ff 	mov    %rax,-0x518(%rbp)
   1248b:	48 8d 85 74 f5 ff ff 	lea    -0xa8c(%rbp),%rax
   12492:	48 89 85 f0 fa ff ff 	mov    %rax,-0x510(%rbp)
   12499:	48 c7 85 f8 fa ff ff 	movq   $0x0,-0x508(%rbp)
   124a0:	00 00 00 00 
   124a4:	48 8d 85 74 f5 ff ff 	lea    -0xa8c(%rbp),%rax
   124ab:	48 89 85 00 fb ff ff 	mov    %rax,-0x500(%rbp)
   124b2:	48 8d 85 74 f5 ff ff 	lea    -0xa8c(%rbp),%rax
   124b9:	48 89 85 08 fb ff ff 	mov    %rax,-0x4f8(%rbp)
   124c0:	48 c7 85 10 fb ff ff 	movq   $0x0,-0x4f0(%rbp)
   124c7:	00 00 00 00 
   124cb:	48 c7 85 18 fb ff ff 	movq   $0x0,-0x4e8(%rbp)
   124d2:	00 00 00 00 
   124d6:	48 c7 85 20 fb ff ff 	movq   $0x0,-0x4e0(%rbp)
   124dd:	00 00 00 00 
   124e1:	48 c7 85 28 fb ff ff 	movq   $0x0,-0x4d8(%rbp)
   124e8:	00 00 00 00 
   124ec:	48 c7 85 30 fb ff ff 	movq   $0x0,-0x4d0(%rbp)
   124f3:	00 00 00 00 
   124f7:	48 c7 85 38 fb ff ff 	movq   $0x0,-0x4c8(%rbp)
   124fe:	00 00 00 00 
   12502:	48 c7 85 40 fb ff ff 	movq   $0x0,-0x4c0(%rbp)
   12509:	00 00 00 00 
   1250d:	48 c7 85 48 fb ff ff 	movq   $0x0,-0x4b8(%rbp)
   12514:	00 00 00 00 
   12518:	48 c7 85 50 fb ff ff 	movq   $0x0,-0x4b0(%rbp)
   1251f:	00 00 00 00 
   12523:	48 c7 85 58 fb ff ff 	movq   $0x0,-0x4a8(%rbp)
   1252a:	00 00 00 00 
   1252e:	48 c7 85 60 fb ff ff 	movq   $0x0,-0x4a0(%rbp)
   12535:	00 00 00 00 
   12539:	48 8d 85 74 f5 ff ff 	lea    -0xa8c(%rbp),%rax
   12540:	48 89 85 68 fb ff ff 	mov    %rax,-0x498(%rbp)
   12547:	48 8d 85 74 f5 ff ff 	lea    -0xa8c(%rbp),%rax
   1254e:	48 89 85 70 fb ff ff 	mov    %rax,-0x490(%rbp)
   12555:	48 c7 85 78 fb ff ff 	movq   $0x0,-0x488(%rbp)
   1255c:	00 00 00 00 
   12560:	48 8d 85 74 f5 ff ff 	lea    -0xa8c(%rbp),%rax
   12567:	48 89 85 80 fb ff ff 	mov    %rax,-0x480(%rbp)
   1256e:	48 8d 85 74 f5 ff ff 	lea    -0xa8c(%rbp),%rax
   12575:	48 89 85 88 fb ff ff 	mov    %rax,-0x478(%rbp)
   1257c:	48 c7 85 90 fb ff ff 	movq   $0x0,-0x470(%rbp)
   12583:	00 00 00 00 
   12587:	48 8d 85 74 f5 ff ff 	lea    -0xa8c(%rbp),%rax
   1258e:	48 89 85 98 fb ff ff 	mov    %rax,-0x468(%rbp)
   12595:	48 8d 85 74 f5 ff ff 	lea    -0xa8c(%rbp),%rax
   1259c:	48 89 85 a0 fb ff ff 	mov    %rax,-0x460(%rbp)
   125a3:	48 c7 85 a8 fb ff ff 	movq   $0x0,-0x458(%rbp)
   125aa:	00 00 00 00 
   125ae:	48 8d 85 74 f5 ff ff 	lea    -0xa8c(%rbp),%rax
   125b5:	48 89 85 b0 fb ff ff 	mov    %rax,-0x450(%rbp)
   125bc:	48 c7 85 b8 fb ff ff 	movq   $0x0,-0x448(%rbp)
   125c3:	00 00 00 00 
   125c7:	48 8d 85 74 f5 ff ff 	lea    -0xa8c(%rbp),%rax
   125ce:	48 89 85 c0 fb ff ff 	mov    %rax,-0x440(%rbp)
   125d5:	48 8d 85 74 f5 ff ff 	lea    -0xa8c(%rbp),%rax
   125dc:	48 89 85 c8 fb ff ff 	mov    %rax,-0x438(%rbp)
   125e3:	48 c7 85 d0 fb ff ff 	movq   $0x0,-0x430(%rbp)
   125ea:	00 00 00 00 
   125ee:	48 8d 85 74 f5 ff ff 	lea    -0xa8c(%rbp),%rax
   125f5:	48 89 85 d8 fb ff ff 	mov    %rax,-0x428(%rbp)
   125fc:	48 8d 85 74 f5 ff ff 	lea    -0xa8c(%rbp),%rax
   12603:	48 89 85 e0 fb ff ff 	mov    %rax,-0x420(%rbp)
   1260a:	48 c7 85 e8 fb ff ff 	movq   $0x0,-0x418(%rbp)
   12611:	00 00 00 00 
   12615:	48 8d 85 74 f5 ff ff 	lea    -0xa8c(%rbp),%rax
   1261c:	48 89 85 f0 fb ff ff 	mov    %rax,-0x410(%rbp)
   12623:	48 8d 85 74 f5 ff ff 	lea    -0xa8c(%rbp),%rax
   1262a:	48 89 85 f8 fb ff ff 	mov    %rax,-0x408(%rbp)
   12631:	48 c7 85 00 fc ff ff 	movq   $0x0,-0x400(%rbp)
   12638:	00 00 00 00 
   1263c:	48 c7 85 08 fc ff ff 	movq   $0x0,-0x3f8(%rbp)
   12643:	00 00 00 00 
   12647:	48 c7 85 10 fc ff ff 	movq   $0x0,-0x3f0(%rbp)
   1264e:	00 00 00 00 
   12652:	48 c7 85 18 fc ff ff 	movq   $0x0,-0x3e8(%rbp)
   12659:	00 00 00 00 
   1265d:	48 c7 85 20 fc ff ff 	movq   $0x0,-0x3e0(%rbp)
   12664:	00 00 00 00 
   12668:	48 c7 85 28 fc ff ff 	movq   $0x0,-0x3d8(%rbp)
   1266f:	00 00 00 00 
   12673:	48 c7 85 30 fc ff ff 	movq   $0x0,-0x3d0(%rbp)
   1267a:	00 00 00 00 
   1267e:	48 c7 85 38 fc ff ff 	movq   $0x0,-0x3c8(%rbp)
   12685:	00 00 00 00 
   12689:	48 c7 85 40 fc ff ff 	movq   $0x0,-0x3c0(%rbp)
   12690:	00 00 00 00 
   12694:	48 c7 85 48 fc ff ff 	movq   $0x0,-0x3b8(%rbp)
   1269b:	00 00 00 00 
   1269f:	48 c7 85 50 fc ff ff 	movq   $0x0,-0x3b0(%rbp)
   126a6:	00 00 00 00 
   126aa:	48 8d 85 74 f5 ff ff 	lea    -0xa8c(%rbp),%rax
   126b1:	48 89 85 58 fc ff ff 	mov    %rax,-0x3a8(%rbp)
   126b8:	48 8d 85 74 f5 ff ff 	lea    -0xa8c(%rbp),%rax
   126bf:	48 89 85 60 fc ff ff 	mov    %rax,-0x3a0(%rbp)
   126c6:	48 c7 85 68 fc ff ff 	movq   $0x0,-0x398(%rbp)
   126cd:	00 00 00 00 
   126d1:	48 8d 85 74 f5 ff ff 	lea    -0xa8c(%rbp),%rax
   126d8:	48 89 85 70 fc ff ff 	mov    %rax,-0x390(%rbp)
   126df:	48 8d 85 74 f5 ff ff 	lea    -0xa8c(%rbp),%rax
   126e6:	48 89 85 78 fc ff ff 	mov    %rax,-0x388(%rbp)
   126ed:	48 c7 85 80 fc ff ff 	movq   $0x0,-0x380(%rbp)
   126f4:	00 00 00 00 
   126f8:	48 8d 85 74 f5 ff ff 	lea    -0xa8c(%rbp),%rax
   126ff:	48 89 85 88 fc ff ff 	mov    %rax,-0x378(%rbp)
   12706:	48 8d 85 74 f5 ff ff 	lea    -0xa8c(%rbp),%rax
   1270d:	48 89 85 90 fc ff ff 	mov    %rax,-0x370(%rbp)
   12714:	48 c7 85 98 fc ff ff 	movq   $0x0,-0x368(%rbp)
   1271b:	00 00 00 00 
   1271f:	48 8d 85 74 f5 ff ff 	lea    -0xa8c(%rbp),%rax
   12726:	48 89 85 a0 fc ff ff 	mov    %rax,-0x360(%rbp)
   1272d:	48 c7 85 a8 fc ff ff 	movq   $0x0,-0x358(%rbp)
   12734:	00 00 00 00 
   12738:	48 8d 85 74 f5 ff ff 	lea    -0xa8c(%rbp),%rax
   1273f:	48 89 85 b0 fc ff ff 	mov    %rax,-0x350(%rbp)
   12746:	48 8d 85 74 f5 ff ff 	lea    -0xa8c(%rbp),%rax
   1274d:	48 89 85 b8 fc ff ff 	mov    %rax,-0x348(%rbp)
   12754:	48 c7 85 c0 fc ff ff 	movq   $0x0,-0x340(%rbp)
   1275b:	00 00 00 00 
   1275f:	48 c7 85 c8 fc ff ff 	movq   $0x0,-0x338(%rbp)
   12766:	00 00 00 00 
   1276a:	48 c7 85 d0 fc ff ff 	movq   $0x0,-0x330(%rbp)
   12771:	00 00 00 00 
   12775:	48 8d 85 74 f5 ff ff 	lea    -0xa8c(%rbp),%rax
   1277c:	48 89 85 d8 fc ff ff 	mov    %rax,-0x328(%rbp)
   12783:	48 c7 85 e0 fc ff ff 	movq   $0x0,-0x320(%rbp)
   1278a:	00 00 00 00 
   1278e:	48 c7 85 e8 fc ff ff 	movq   $0x0,-0x318(%rbp)
   12795:	00 00 00 00 
   12799:	48 8d 85 74 f5 ff ff 	lea    -0xa8c(%rbp),%rax
   127a0:	48 89 85 f0 fc ff ff 	mov    %rax,-0x310(%rbp)
   127a7:	48 8d 85 74 f5 ff ff 	lea    -0xa8c(%rbp),%rax
   127ae:	48 89 85 f8 fc ff ff 	mov    %rax,-0x308(%rbp)
   127b5:	48 c7 85 00 fd ff ff 	movq   $0x0,-0x300(%rbp)
   127bc:	00 00 00 00 
   127c0:	48 8d 85 74 f5 ff ff 	lea    -0xa8c(%rbp),%rax
   127c7:	48 89 85 08 fd ff ff 	mov    %rax,-0x2f8(%rbp)
   127ce:	48 8d 85 74 f5 ff ff 	lea    -0xa8c(%rbp),%rax
   127d5:	48 89 85 10 fd ff ff 	mov    %rax,-0x2f0(%rbp)
   127dc:	48 c7 85 18 fd ff ff 	movq   $0x0,-0x2e8(%rbp)
   127e3:	00 00 00 00 
   127e7:	48 8d 85 74 f5 ff ff 	lea    -0xa8c(%rbp),%rax
   127ee:	48 89 85 20 fd ff ff 	mov    %rax,-0x2e0(%rbp)
   127f5:	48 8d 85 74 f5 ff ff 	lea    -0xa8c(%rbp),%rax
   127fc:	48 89 85 28 fd ff ff 	mov    %rax,-0x2d8(%rbp)
   12803:	48 c7 85 30 fd ff ff 	movq   $0x0,-0x2d0(%rbp)
   1280a:	00 00 00 00 
   1280e:	48 8d 85 74 f5 ff ff 	lea    -0xa8c(%rbp),%rax
   12815:	48 89 85 38 fd ff ff 	mov    %rax,-0x2c8(%rbp)
   1281c:	48 8d 85 74 f5 ff ff 	lea    -0xa8c(%rbp),%rax
   12823:	48 89 85 40 fd ff ff 	mov    %rax,-0x2c0(%rbp)
   1282a:	48 c7 85 48 fd ff ff 	movq   $0x0,-0x2b8(%rbp)
   12831:	00 00 00 00 
   12835:	48 c7 85 50 fd ff ff 	movq   $0x0,-0x2b0(%rbp)
   1283c:	00 00 00 00 
   12840:	48 8d 85 74 f5 ff ff 	lea    -0xa8c(%rbp),%rax
   12847:	48 89 85 58 fd ff ff 	mov    %rax,-0x2a8(%rbp)
   1284e:	48 c7 85 60 fd ff ff 	movq   $0x0,-0x2a0(%rbp)
   12855:	00 00 00 00 
   12859:	48 c7 85 68 fd ff ff 	movq   $0x0,-0x298(%rbp)
   12860:	00 00 00 00 
   12864:	48 8d 85 74 f5 ff ff 	lea    -0xa8c(%rbp),%rax
   1286b:	48 89 85 70 fd ff ff 	mov    %rax,-0x290(%rbp)
   12872:	48 c7 85 78 fd ff ff 	movq   $0x0,-0x288(%rbp)
   12879:	00 00 00 00 
   1287d:	48 c7 85 80 fd ff ff 	movq   $0x0,-0x280(%rbp)
   12884:	00 00 00 00 
   12888:	48 8d 85 74 f5 ff ff 	lea    -0xa8c(%rbp),%rax
   1288f:	48 89 85 88 fd ff ff 	mov    %rax,-0x278(%rbp)
   12896:	48 c7 85 90 fd ff ff 	movq   $0x0,-0x270(%rbp)
   1289d:	00 00 00 00 
   128a1:	48 8d 85 74 f5 ff ff 	lea    -0xa8c(%rbp),%rax
   128a8:	48 89 85 98 fd ff ff 	mov    %rax,-0x268(%rbp)
   128af:	48 c7 85 a0 fd ff ff 	movq   $0x0,-0x260(%rbp)
   128b6:	00 00 00 00 
   128ba:	48 c7 85 a8 fd ff ff 	movq   $0x0,-0x258(%rbp)
   128c1:	00 00 00 00 
   128c5:	48 8d 85 74 f5 ff ff 	lea    -0xa8c(%rbp),%rax
   128cc:	48 89 85 b0 fd ff ff 	mov    %rax,-0x250(%rbp)
   128d3:	48 c7 85 b8 fd ff ff 	movq   $0x0,-0x248(%rbp)
   128da:	00 00 00 00 
   128de:	48 c7 85 c0 fd ff ff 	movq   $0x0,-0x240(%rbp)
   128e5:	00 00 00 00 
   128e9:	48 8d 85 74 f5 ff ff 	lea    -0xa8c(%rbp),%rax
   128f0:	48 89 85 c8 fd ff ff 	mov    %rax,-0x238(%rbp)
   128f7:	48 c7 85 d0 fd ff ff 	movq   $0x0,-0x230(%rbp)
   128fe:	00 00 00 00 
   12902:	48 c7 85 d8 fd ff ff 	movq   $0x0,-0x228(%rbp)
   12909:	00 00 00 00 
   1290d:	48 8d 85 74 f5 ff ff 	lea    -0xa8c(%rbp),%rax
   12914:	48 89 85 e0 fd ff ff 	mov    %rax,-0x220(%rbp)
   1291b:	48 8d 85 74 f5 ff ff 	lea    -0xa8c(%rbp),%rax
   12922:	48 89 85 e8 fd ff ff 	mov    %rax,-0x218(%rbp)
   12929:	48 c7 85 f0 fd ff ff 	movq   $0x0,-0x210(%rbp)
   12930:	00 00 00 00 
   12934:	48 8d 85 74 f5 ff ff 	lea    -0xa8c(%rbp),%rax
   1293b:	48 89 85 f8 fd ff ff 	mov    %rax,-0x208(%rbp)
   12942:	48 8d 85 74 f5 ff ff 	lea    -0xa8c(%rbp),%rax
   12949:	48 89 85 00 fe ff ff 	mov    %rax,-0x200(%rbp)
   12950:	48 c7 85 08 fe ff ff 	movq   $0x0,-0x1f8(%rbp)
   12957:	00 00 00 00 
   1295b:	48 8d 85 74 f5 ff ff 	lea    -0xa8c(%rbp),%rax
   12962:	48 89 85 10 fe ff ff 	mov    %rax,-0x1f0(%rbp)
   12969:	48 8d 85 74 f5 ff ff 	lea    -0xa8c(%rbp),%rax
   12970:	48 89 85 18 fe ff ff 	mov    %rax,-0x1e8(%rbp)
   12977:	48 c7 85 20 fe ff ff 	movq   $0x0,-0x1e0(%rbp)
   1297e:	00 00 00 00 
   12982:	48 8d 85 74 f5 ff ff 	lea    -0xa8c(%rbp),%rax
   12989:	48 89 85 28 fe ff ff 	mov    %rax,-0x1d8(%rbp)
   12990:	48 8d 85 74 f5 ff ff 	lea    -0xa8c(%rbp),%rax
   12997:	48 89 85 30 fe ff ff 	mov    %rax,-0x1d0(%rbp)
   1299e:	48 c7 85 38 fe ff ff 	movq   $0x0,-0x1c8(%rbp)
   129a5:	00 00 00 00 
   129a9:	48 c7 85 40 fe ff ff 	movq   $0x0,-0x1c0(%rbp)
   129b0:	00 00 00 00 
   129b4:	48 8d 85 74 f5 ff ff 	lea    -0xa8c(%rbp),%rax
   129bb:	48 89 85 48 fe ff ff 	mov    %rax,-0x1b8(%rbp)
   129c2:	48 c7 85 50 fe ff ff 	movq   $0x0,-0x1b0(%rbp)
   129c9:	00 00 00 00 
   129cd:	48 c7 85 58 fe ff ff 	movq   $0x0,-0x1a8(%rbp)
   129d4:	00 00 00 00 
   129d8:	48 8d 85 74 f5 ff ff 	lea    -0xa8c(%rbp),%rax
   129df:	48 89 85 60 fe ff ff 	mov    %rax,-0x1a0(%rbp)
   129e6:	48 c7 85 68 fe ff ff 	movq   $0x0,-0x198(%rbp)
   129ed:	00 00 00 00 
   129f1:	48 c7 85 70 fe ff ff 	movq   $0x0,-0x190(%rbp)
   129f8:	00 00 00 00 
   129fc:	48 8d 85 74 f5 ff ff 	lea    -0xa8c(%rbp),%rax
   12a03:	48 89 85 78 fe ff ff 	mov    %rax,-0x188(%rbp)
   12a0a:	48 c7 85 80 fe ff ff 	movq   $0x0,-0x180(%rbp)
   12a11:	00 00 00 00 
   12a15:	48 8d 85 74 f5 ff ff 	lea    -0xa8c(%rbp),%rax
   12a1c:	48 89 85 88 fe ff ff 	mov    %rax,-0x178(%rbp)
   12a23:	48 c7 85 90 fe ff ff 	movq   $0x0,-0x170(%rbp)
   12a2a:	00 00 00 00 
   12a2e:	48 c7 85 98 fe ff ff 	movq   $0x0,-0x168(%rbp)
   12a35:	00 00 00 00 
   12a39:	48 8d 85 74 f5 ff ff 	lea    -0xa8c(%rbp),%rax
   12a40:	48 89 85 a0 fe ff ff 	mov    %rax,-0x160(%rbp)
   12a47:	48 c7 85 a8 fe ff ff 	movq   $0x0,-0x158(%rbp)
   12a4e:	00 00 00 00 
   12a52:	48 c7 85 b0 fe ff ff 	movq   $0x0,-0x150(%rbp)
   12a59:	00 00 00 00 
   12a5d:	48 8d 85 74 f5 ff ff 	lea    -0xa8c(%rbp),%rax
   12a64:	48 89 85 b8 fe ff ff 	mov    %rax,-0x148(%rbp)
   12a6b:	48 c7 85 c0 fe ff ff 	movq   $0x0,-0x140(%rbp)
   12a72:	00 00 00 00 
   12a76:	48 c7 85 c8 fe ff ff 	movq   $0x0,-0x138(%rbp)
   12a7d:	00 00 00 00 
   12a81:	48 8d 85 74 f5 ff ff 	lea    -0xa8c(%rbp),%rax
   12a88:	48 89 85 d0 fe ff ff 	mov    %rax,-0x130(%rbp)
   12a8f:	48 8d 85 74 f5 ff ff 	lea    -0xa8c(%rbp),%rax
   12a96:	48 89 85 d8 fe ff ff 	mov    %rax,-0x128(%rbp)
   12a9d:	48 c7 85 e0 fe ff ff 	movq   $0x0,-0x120(%rbp)
   12aa4:	00 00 00 00 
   12aa8:	48 8d 85 74 f5 ff ff 	lea    -0xa8c(%rbp),%rax
   12aaf:	48 89 85 e8 fe ff ff 	mov    %rax,-0x118(%rbp)
   12ab6:	48 8d 85 74 f5 ff ff 	lea    -0xa8c(%rbp),%rax
   12abd:	48 89 85 f0 fe ff ff 	mov    %rax,-0x110(%rbp)
   12ac4:	48 c7 85 f8 fe ff ff 	movq   $0x0,-0x108(%rbp)
   12acb:	00 00 00 00 
   12acf:	48 8d 85 74 f5 ff ff 	lea    -0xa8c(%rbp),%rax
   12ad6:	48 89 85 00 ff ff ff 	mov    %rax,-0x100(%rbp)
   12add:	48 8d 85 74 f5 ff ff 	lea    -0xa8c(%rbp),%rax
   12ae4:	48 89 85 08 ff ff ff 	mov    %rax,-0xf8(%rbp)
   12aeb:	48 c7 85 10 ff ff ff 	movq   $0x0,-0xf0(%rbp)
   12af2:	00 00 00 00 
   12af6:	48 8d 85 74 f5 ff ff 	lea    -0xa8c(%rbp),%rax
   12afd:	48 89 85 18 ff ff ff 	mov    %rax,-0xe8(%rbp)
   12b04:	48 8d 85 74 f5 ff ff 	lea    -0xa8c(%rbp),%rax
   12b0b:	48 89 85 20 ff ff ff 	mov    %rax,-0xe0(%rbp)
   12b12:	48 c7 85 28 ff ff ff 	movq   $0x0,-0xd8(%rbp)
   12b19:	00 00 00 00 
   12b1d:	48 c7 85 30 ff ff ff 	movq   $0x0,-0xd0(%rbp)
   12b24:	00 00 00 00 
   12b28:	48 8d 85 74 f5 ff ff 	lea    -0xa8c(%rbp),%rax
   12b2f:	48 89 85 38 ff ff ff 	mov    %rax,-0xc8(%rbp)
   12b36:	48 c7 85 40 ff ff ff 	movq   $0x0,-0xc0(%rbp)
   12b3d:	00 00 00 00 
   12b41:	48 c7 85 48 ff ff ff 	movq   $0x0,-0xb8(%rbp)
   12b48:	00 00 00 00 
   12b4c:	48 8d 85 74 f5 ff ff 	lea    -0xa8c(%rbp),%rax
   12b53:	48 89 85 50 ff ff ff 	mov    %rax,-0xb0(%rbp)
   12b5a:	48 c7 85 58 ff ff ff 	movq   $0x0,-0xa8(%rbp)
   12b61:	00 00 00 00 
   12b65:	48 c7 85 60 ff ff ff 	movq   $0x0,-0xa0(%rbp)
   12b6c:	00 00 00 00 
   12b70:	48 8d 85 74 f5 ff ff 	lea    -0xa8c(%rbp),%rax
   12b77:	48 89 85 68 ff ff ff 	mov    %rax,-0x98(%rbp)
   12b7e:	48 c7 85 70 ff ff ff 	movq   $0x0,-0x90(%rbp)
   12b85:	00 00 00 00 
   12b89:	48 8d 85 74 f5 ff ff 	lea    -0xa8c(%rbp),%rax
   12b90:	48 89 85 78 ff ff ff 	mov    %rax,-0x88(%rbp)
   12b97:	48 c7 45 80 00 00 00 	movq   $0x0,-0x80(%rbp)
   12b9e:	00 
   12b9f:	48 c7 45 88 00 00 00 	movq   $0x0,-0x78(%rbp)
   12ba6:	00 
   12ba7:	48 8d 85 74 f5 ff ff 	lea    -0xa8c(%rbp),%rax
   12bae:	48 89 45 90          	mov    %rax,-0x70(%rbp)
   12bb2:	48 c7 45 98 00 00 00 	movq   $0x0,-0x68(%rbp)
   12bb9:	00 
   12bba:	48 c7 45 a0 00 00 00 	movq   $0x0,-0x60(%rbp)
   12bc1:	00 
   12bc2:	48 8d 85 74 f5 ff ff 	lea    -0xa8c(%rbp),%rax
   12bc9:	48 89 45 a8          	mov    %rax,-0x58(%rbp)
   12bcd:	48 c7 45 b0 00 00 00 	movq   $0x0,-0x50(%rbp)
   12bd4:	00 
   12bd5:	48 c7 45 b8 00 00 00 	movq   $0x0,-0x48(%rbp)
   12bdc:	00 
   12bdd:	48 8d 85 40 f7 ff ff 	lea    -0x8c0(%rbp),%rax
   12be4:	48 83 c0 10          	add    $0x10,%rax
   12be8:	48 89 85 a0 f6 ff ff 	mov    %rax,-0x960(%rbp)
   12bef:	48 8b 85 30 f6 ff ff 	mov    -0x9d0(%rbp),%rax
   12bf6:	48 8b 10             	mov    (%rax),%rdx
   12bf9:	48 8b 05 68 cf 00 00 	mov    0xcf68(%rip),%rax        # 1fb68 <g_387>
   12c00:	8b 12                	mov    (%rdx),%edx
   12c02:	89 10                	mov    %edx,(%rax)
   12c04:	48 8b 95 c8 f5 ff ff 	mov    -0xa38(%rbp),%rdx
   12c0b:	48 8b 85 98 f6 ff ff 	mov    -0x968(%rbp),%rax
   12c12:	48 89 10             	mov    %rdx,(%rax)
   12c15:	48 8b 85 98 f6 ff ff 	mov    -0x968(%rbp),%rax
   12c1c:	48 8b 00             	mov    (%rax),%rax
   12c1f:	48 89 85 d0 f7 ff ff 	mov    %rax,-0x830(%rbp)
   12c26:	48 8b 55 b0          	mov    -0x50(%rbp),%rdx
   12c2a:	48 8b 85 a0 f6 ff ff 	mov    -0x960(%rbp),%rax
   12c31:	48 89 10             	mov    %rdx,(%rax)
   12c34:	83 85 80 f5 ff ff 01 	addl   $0x1,-0xa80(%rbp)
   12c3b:	83 bd 80 f5 ff ff 08 	cmpl   $0x8,-0xa80(%rbp)
   12c42:	0f 8e f9 f6 ff ff    	jle    12341 <func_51+0x930>
   12c48:	e9 2a 07 00 00       	jmpq   13377 <func_51+0x1966>
   12c4d:	48 8d 85 c0 f5 ff ff 	lea    -0xa40(%rbp),%rax
   12c54:	48 89 85 50 f6 ff ff 	mov    %rax,-0x9b0(%rbp)
   12c5b:	c7 85 94 f5 ff ff 01 	movl   $0x1,-0xa6c(%rbp)
   12c62:	00 00 00 
   12c65:	48 8d 05 dc a5 00 00 	lea    0xa5dc(%rip),%rax        # 1d248 <g_236>
   12c6c:	48 89 85 a0 f7 ff ff 	mov    %rax,-0x860(%rbp)
   12c73:	48 8d 05 ce a5 00 00 	lea    0xa5ce(%rip),%rax        # 1d248 <g_236>
   12c7a:	48 89 85 a8 f7 ff ff 	mov    %rax,-0x858(%rbp)
   12c81:	48 8d 05 c0 a5 00 00 	lea    0xa5c0(%rip),%rax        # 1d248 <g_236>
   12c88:	48 89 85 b0 f7 ff ff 	mov    %rax,-0x850(%rbp)
   12c8f:	48 8d 05 b2 a5 00 00 	lea    0xa5b2(%rip),%rax        # 1d248 <g_236>
   12c96:	48 89 85 b8 f7 ff ff 	mov    %rax,-0x848(%rbp)
   12c9d:	48 8d 05 a4 a5 00 00 	lea    0xa5a4(%rip),%rax        # 1d248 <g_236>
   12ca4:	48 89 85 c0 f7 ff ff 	mov    %rax,-0x840(%rbp)
   12cab:	48 8d 05 96 a5 00 00 	lea    0xa596(%rip),%rax        # 1d248 <g_236>
   12cb2:	48 89 85 c8 f7 ff ff 	mov    %rax,-0x838(%rbp)
   12cb9:	48 8d 05 88 a5 00 00 	lea    0xa588(%rip),%rax        # 1d248 <g_236>
   12cc0:	48 89 85 d0 f7 ff ff 	mov    %rax,-0x830(%rbp)
   12cc7:	48 8d 05 7a a5 00 00 	lea    0xa57a(%rip),%rax        # 1d248 <g_236>
   12cce:	48 89 85 d8 f7 ff ff 	mov    %rax,-0x828(%rbp)
   12cd5:	48 8d 85 a0 f7 ff ff 	lea    -0x860(%rbp),%rax
   12cdc:	48 83 c0 38          	add    $0x38,%rax
   12ce0:	48 89 85 58 f6 ff ff 	mov    %rax,-0x9a8(%rbp)
   12ce7:	48 8d 85 40 f7 ff ff 	lea    -0x8c0(%rbp),%rax
   12cee:	48 83 c0 10          	add    $0x10,%rax
   12cf2:	48 89 85 60 f6 ff ff 	mov    %rax,-0x9a0(%rbp)
   12cf9:	48 8d 85 7c f5 ff ff 	lea    -0xa84(%rbp),%rax
   12d00:	48 89 85 68 f6 ff ff 	mov    %rax,-0x998(%rbp)
   12d07:	c6 85 70 f5 ff ff e0 	movb   $0xe0,-0xa90(%rbp)
   12d0e:	48 c7 85 e0 f5 ff ff 	movq   $0x0,-0xa20(%rbp)
   12d15:	00 00 00 00 
   12d19:	48 8d 85 e0 f5 ff ff 	lea    -0xa20(%rbp),%rax
   12d20:	48 89 85 70 f6 ff ff 	mov    %rax,-0x990(%rbp)
   12d27:	48 8b 85 58 f5 ff ff 	mov    -0xaa8(%rbp),%rax
   12d2e:	0f b7 d8             	movzwl %ax,%ebx
   12d31:	4c 8b a5 d8 f6 ff ff 	mov    -0x928(%rbp),%r12
   12d38:	0f b7 05 e9 a4 00 00 	movzwl 0xa4e9(%rip),%eax        # 1d228 <g_125>
   12d3f:	4c 0f bf f0          	movswq %ax,%r14
   12d43:	8b 05 f3 a4 00 00    	mov    0xa4f3(%rip),%eax        # 1d23c <g_215>
   12d49:	4c 63 e8             	movslq %eax,%r13
   12d4c:	44 0f bf bd 54 f5 ff 	movswl -0xaac(%rbp),%r15d
   12d53:	ff 
   12d54:	48 8b 85 20 f6 ff ff 	mov    -0x9e0(%rbp),%rax
   12d5b:	48 8b 00             	mov    (%rax),%rax
   12d5e:	48 8b 10             	mov    (%rax),%rdx
   12d61:	8b 85 94 f5 ff ff    	mov    -0xa6c(%rbp),%eax
   12d67:	0f b7 c0             	movzwl %ax,%eax
   12d6a:	48 89 d6             	mov    %rdx,%rsi
   12d6d:	89 c7                	mov    %eax,%edi
   12d6f:	e8 76 ec ff ff       	callq  119ea <func_47>
   12d74:	83 bd 94 f5 ff ff 00 	cmpl   $0x0,-0xa6c(%rbp)
   12d7b:	74 07                	je     12d84 <func_51+0x1373>
   12d7d:	b8 01 00 00 00       	mov    $0x1,%eax
   12d82:	eb 05                	jmp    12d89 <func_51+0x1378>
   12d84:	b8 00 00 00 00       	mov    $0x0,%eax
   12d89:	44 39 f8             	cmp    %r15d,%eax
   12d8c:	0f 9c c0             	setl   %al
   12d8f:	0f b6 c8             	movzbl %al,%ecx
   12d92:	48 8b 85 30 f6 ff ff 	mov    -0x9d0(%rbp),%rax
   12d99:	48 8b 00             	mov    (%rax),%rax
   12d9c:	8b 10                	mov    (%rax),%edx
   12d9e:	48 8b 85 30 f6 ff ff 	mov    -0x9d0(%rbp),%rax
   12da5:	48 8b 00             	mov    (%rax),%rax
   12da8:	21 ca                	and    %ecx,%edx
   12daa:	89 10                	mov    %edx,(%rax)
   12dac:	8b 00                	mov    (%rax),%eax
   12dae:	48 98                	cltq   
   12db0:	25 f9 80 94 7f       	and    $0x7f9480f9,%eax
   12db5:	89 c2                	mov    %eax,%edx
   12db7:	8b 05 bb cd 00 00    	mov    0xcdbb(%rip),%eax        # 1fb78 <g_558>
   12dbd:	09 d0                	or     %edx,%eax
   12dbf:	89 05 b3 cd 00 00    	mov    %eax,0xcdb3(%rip)        # 1fb78 <g_558>
   12dc5:	8b 05 ad cd 00 00    	mov    0xcdad(%rip),%eax        # 1fb78 <g_558>
   12dcb:	48 98                	cltq   
   12dcd:	4c 89 ee             	mov    %r13,%rsi
   12dd0:	48 89 c7             	mov    %rax,%rdi
   12dd3:	e8 d7 52 ff ff       	callq  80af <safe_div_func_uint64_t_u_u>
   12dd8:	be 17 ab 8a 51       	mov    $0x518aab17,%esi
   12ddd:	89 c7                	mov    %eax,%edi
   12ddf:	e8 d4 50 ff ff       	callq  7eb8 <safe_add_func_uint32_t_u_u>
   12de4:	0f bf 95 54 f5 ff ff 	movswl -0xaac(%rbp),%edx
   12deb:	39 d0                	cmp    %edx,%eax
   12ded:	0f 96 c0             	setbe  %al
   12df0:	0f b6 c0             	movzbl %al,%eax
   12df3:	48 33 85 48 f5 ff ff 	xor    -0xab8(%rbp),%rax
   12dfa:	49 39 c6             	cmp    %rax,%r14
   12dfd:	0f 9c c0             	setl   %al
   12e00:	0f b6 d0             	movzbl %al,%edx
   12e03:	48 8b 85 48 f6 ff ff 	mov    -0x9b8(%rbp),%rax
   12e0a:	8b 00                	mov    (%rax),%eax
   12e0c:	0f b6 c0             	movzbl %al,%eax
   12e0f:	89 d6                	mov    %edx,%esi
   12e11:	89 c7                	mov    %eax,%edi
   12e13:	e8 60 4d ff ff       	callq  7b78 <safe_sub_func_uint8_t_u_u>
   12e18:	48 8b 05 49 bf 00 00 	mov    0xbf49(%rip),%rax        # 1ed68 <g_546+0x28>
   12e1f:	48 39 85 e8 f5 ff ff 	cmp    %rax,-0xa18(%rbp)
   12e26:	0f 95 c0             	setne  %al
   12e29:	0f b6 d0             	movzbl %al,%edx
   12e2c:	48 8b 85 50 f6 ff ff 	mov    -0x9b0(%rbp),%rax
   12e33:	48 89 10             	mov    %rdx,(%rax)
   12e36:	48 8b 85 40 f6 ff ff 	mov    -0x9c0(%rbp),%rax
   12e3d:	4c 89 e6             	mov    %r12,%rsi
   12e40:	48 89 c7             	mov    %rax,%rdi
   12e43:	e8 96 05 00 00       	callq  133de <func_57>
   12e48:	48 8b 95 58 f6 ff ff 	mov    -0x9a8(%rbp),%rdx
   12e4f:	48 89 02             	mov    %rax,(%rdx)
   12e52:	48 8b 85 58 f6 ff ff 	mov    -0x9a8(%rbp),%rax
   12e59:	48 8b 00             	mov    (%rax),%rax
   12e5c:	48 85 c0             	test   %rax,%rax
   12e5f:	75 07                	jne    12e68 <func_51+0x1457>
   12e61:	b8 88 1e 00 00       	mov    $0x1e88,%eax
   12e66:	eb 05                	jmp    12e6d <func_51+0x145c>
   12e68:	b8 89 1e 00 00       	mov    $0x1e89,%eax
   12e6d:	89 de                	mov    %ebx,%esi
   12e6f:	89 c7                	mov    %eax,%edi
   12e71:	e8 89 4e ff ff       	callq  7cff <safe_add_func_uint16_t_u_u>
   12e76:	0f b6 c0             	movzbl %al,%eax
   12e79:	89 c7                	mov    %eax,%edi
   12e7b:	e8 c5 4c ff ff       	callq  7b45 <safe_unary_minus_func_uint8_t_u>
   12e80:	84 c0                	test   %al,%al
   12e82:	74 6f                	je     12ef3 <func_51+0x14e2>
   12e84:	8b 85 44 f5 ff ff    	mov    -0xabc(%rbp),%eax
   12e8a:	85 c0                	test   %eax,%eax
   12e8c:	74 51                	je     12edf <func_51+0x14ce>
   12e8e:	c7 85 98 f5 ff ff 00 	movl   $0x0,-0xa68(%rbp)
   12e95:	00 00 00 
   12e98:	eb 22                	jmp    12ebc <func_51+0x14ab>
   12e9a:	8b 85 98 f5 ff ff    	mov    -0xa68(%rbp),%eax
   12ea0:	48 98                	cltq   
   12ea2:	48 8d 95 40 f7 ff ff 	lea    -0x8c0(%rbp),%rdx
   12ea9:	48 83 c2 10          	add    $0x10,%rdx
   12ead:	48 89 94 c5 20 fa ff 	mov    %rdx,-0x5e0(%rbp,%rax,8)
   12eb4:	ff 
   12eb5:	83 85 98 f5 ff ff 01 	addl   $0x1,-0xa68(%rbp)
   12ebc:	83 bd 98 f5 ff ff 00 	cmpl   $0x0,-0xa68(%rbp)
   12ec3:	7e d5                	jle    12e9a <func_51+0x1489>
   12ec5:	48 83 bd 48 f5 ff ff 	cmpq   $0x0,-0xab8(%rbp)
   12ecc:	00 
   12ecd:	0f 85 c4 04 00 00    	jne    13397 <func_51+0x1986>
   12ed3:	48 8d 05 8e cc 00 00 	lea    0xcc8e(%rip),%rax        # 1fb68 <g_387>
   12eda:	e9 d9 04 00 00       	jmpq   133b8 <func_51+0x19a7>
   12edf:	8b 05 97 cc 00 00    	mov    0xcc97(%rip),%eax        # 1fb7c <g_564>
   12ee5:	83 c0 01             	add    $0x1,%eax
   12ee8:	89 05 8e cc 00 00    	mov    %eax,0xcc8e(%rip)        # 1fb7c <g_564>
   12eee:	e9 a9 01 00 00       	jmpq   1309c <func_51+0x168b>
   12ef3:	48 c7 85 78 f6 ff ff 	movq   $0xffffffffffffffff,-0x988(%rbp)
   12efa:	ff ff ff ff 
   12efe:	c7 85 20 fa ff ff 00 	movl   $0x0,-0x5e0(%rbp)
   12f05:	00 00 00 
   12f08:	c7 85 24 fa ff ff ff 	movl   $0xffffffff,-0x5dc(%rbp)
   12f0f:	ff ff ff 
   12f12:	c7 85 28 fa ff ff 00 	movl   $0x0,-0x5d8(%rbp)
   12f19:	00 00 00 
   12f1c:	c7 85 2c fa ff ff d8 	movl   $0x9e336dd8,-0x5d4(%rbp)
   12f23:	6d 33 9e 
   12f26:	c7 85 30 fa ff ff f7 	movl   $0xfffffff7,-0x5d0(%rbp)
   12f2d:	ff ff ff 
   12f30:	c7 85 34 fa ff ff ff 	movl   $0xffffffff,-0x5cc(%rbp)
   12f37:	ff ff ff 
   12f3a:	c7 85 38 fa ff ff ff 	movl   $0xffffffff,-0x5c8(%rbp)
   12f41:	ff ff ff 
   12f44:	c7 85 3c fa ff ff f7 	movl   $0xfffffff7,-0x5c4(%rbp)
   12f4b:	ff ff ff 
   12f4e:	c7 85 40 fa ff ff f7 	movl   $0xfffffff7,-0x5c0(%rbp)
   12f55:	ff ff ff 
   12f58:	c7 85 44 fa ff ff d9 	movl   $0x1bc52d9,-0x5bc(%rbp)
   12f5f:	52 bc 01 
   12f62:	c7 85 48 fa ff ff 00 	movl   $0x0,-0x5b8(%rbp)
   12f69:	00 00 00 
   12f6c:	c7 85 4c fa ff ff ca 	movl   $0xa93a18ca,-0x5b4(%rbp)
   12f73:	18 3a a9 
   12f76:	c7 85 50 fa ff ff 00 	movl   $0x0,-0x5b0(%rbp)
   12f7d:	00 00 00 
   12f80:	c7 85 54 fa ff ff f7 	movl   $0xfffffff7,-0x5ac(%rbp)
   12f87:	ff ff ff 
   12f8a:	c7 85 58 fa ff ff 65 	movl   $0x907d4f65,-0x5a8(%rbp)
   12f91:	4f 7d 90 
   12f94:	c7 85 5c fa ff ff 01 	movl   $0x1,-0x5a4(%rbp)
   12f9b:	00 00 00 
   12f9e:	c7 85 60 fa ff ff d8 	movl   $0x9e336dd8,-0x5a0(%rbp)
   12fa5:	6d 33 9e 
   12fa8:	c7 85 64 fa ff ff 04 	movl   $0x4,-0x59c(%rbp)
   12faf:	00 00 00 
   12fb2:	c7 85 68 fa ff ff d8 	movl   $0x9e336dd8,-0x598(%rbp)
   12fb9:	6d 33 9e 
   12fbc:	c7 85 6c fa ff ff 01 	movl   $0x1,-0x594(%rbp)
   12fc3:	00 00 00 
   12fc6:	c7 85 70 fa ff ff 65 	movl   $0x907d4f65,-0x590(%rbp)
   12fcd:	4f 7d 90 
   12fd0:	c7 85 74 fa ff ff f7 	movl   $0xfffffff7,-0x58c(%rbp)
   12fd7:	ff ff ff 
   12fda:	c7 85 78 fa ff ff 00 	movl   $0x0,-0x588(%rbp)
   12fe1:	00 00 00 
   12fe4:	c7 85 7c fa ff ff ca 	movl   $0xa93a18ca,-0x584(%rbp)
   12feb:	18 3a a9 
   12fee:	66 c7 05 59 a2 00 00 	movw   $0x0,0xa259(%rip)        # 1d250 <g_264>
   12ff5:	00 00 
   12ff7:	eb 54                	jmp    1304d <func_51+0x163c>
   12ff9:	48 8b 85 30 f6 ff ff 	mov    -0x9d0(%rbp),%rax
   13000:	48 8b 00             	mov    (%rax),%rax
   13003:	8b 00                	mov    (%rax),%eax
   13005:	39 85 94 f5 ff ff    	cmp    %eax,-0xa6c(%rbp)
   1300b:	0f 9f c0             	setg   %al
   1300e:	0f b6 c0             	movzbl %al,%eax
   13011:	89 c6                	mov    %eax,%esi
   13013:	bf 07 00 00 00       	mov    $0x7,%edi
   13018:	e8 e8 4b ff ff       	callq  7c05 <safe_lshift_func_uint8_t_u_s>
   1301d:	89 c2                	mov    %eax,%edx
   1301f:	48 8b 05 42 cb 00 00 	mov    0xcb42(%rip),%rax        # 1fb68 <g_387>
   13026:	0f b6 d2             	movzbl %dl,%edx
   13029:	89 10                	mov    %edx,(%rax)
   1302b:	0f b7 05 38 a2 00 00 	movzwl 0xa238(%rip),%eax        # 1d26a <g_572>
   13032:	83 c0 01             	add    $0x1,%eax
   13035:	66 89 05 2e a2 00 00 	mov    %ax,0xa22e(%rip)        # 1d26a <g_572>
   1303c:	0f b7 05 0d a2 00 00 	movzwl 0xa20d(%rip),%eax        # 1d250 <g_264>
   13043:	83 c0 01             	add    $0x1,%eax
   13046:	66 89 05 03 a2 00 00 	mov    %ax,0xa203(%rip)        # 1d250 <g_264>
   1304d:	0f b7 05 fc a1 00 00 	movzwl 0xa1fc(%rip),%eax        # 1d250 <g_264>
   13054:	66 83 f8 08          	cmp    $0x8,%ax
   13058:	76 9f                	jbe    12ff9 <func_51+0x15e8>
   1305a:	c6 05 f1 a1 00 00 00 	movb   $0x0,0xa1f1(%rip)        # 1d252 <g_294>
   13061:	90                   	nop
   13062:	0f b6 05 e9 a1 00 00 	movzbl 0xa1e9(%rip),%eax        # 1d252 <g_294>
   13069:	3c 08                	cmp    $0x8,%al
   1306b:	77 2f                	ja     1309c <func_51+0x168b>
   1306d:	48 8b 85 30 f6 ff ff 	mov    -0x9d0(%rbp),%rax
   13074:	48 8b 00             	mov    (%rax),%rax
   13077:	8b 08                	mov    (%rax),%ecx
   13079:	48 8b 05 d8 b7 00 00 	mov    0xb7d8(%rip),%rax        # 1e858 <g_218>
   13080:	8b 10                	mov    (%rax),%edx
   13082:	48 8b 85 30 f6 ff ff 	mov    -0x9d0(%rbp),%rax
   13089:	48 8b 00             	mov    (%rax),%rax
   1308c:	21 ca                	and    %ecx,%edx
   1308e:	89 10                	mov    %edx,(%rax)
   13090:	48 8d 05 d1 ca 00 00 	lea    0xcad1(%rip),%rax        # 1fb68 <g_387>
   13097:	e9 1c 03 00 00       	jmpq   133b8 <func_51+0x19a7>
   1309c:	66 83 bd 54 f5 ff ff 	cmpw   $0x0,-0xaac(%rbp)
   130a3:	00 
   130a4:	0f 85 f0 02 00 00    	jne    1339a <func_51+0x1989>
   130aa:	0f b6 85 50 f5 ff ff 	movzbl -0xab0(%rbp),%eax
   130b1:	89 c6                	mov    %eax,%esi
   130b3:	bf 17 43 b2 02       	mov    $0x2b24317,%edi
   130b8:	e8 f9 44 ff ff       	callq  75b6 <safe_add_func_int32_t_s_s>
   130bd:	48 8b 85 30 f6 ff ff 	mov    -0x9d0(%rbp),%rax
   130c4:	48 8b 00             	mov    (%rax),%rax
   130c7:	8b 00                	mov    (%rax),%eax
   130c9:	0f b7 c0             	movzwl %ax,%eax
   130cc:	83 e0 01             	and    $0x1,%eax
   130cf:	89 c2                	mov    %eax,%edx
   130d1:	48 8b 85 48 f5 ff ff 	mov    -0xab8(%rbp),%rax
   130d8:	0f b7 c0             	movzwl %ax,%eax
   130db:	89 d6                	mov    %edx,%esi
   130dd:	89 c7                	mov    %eax,%edi
   130df:	e8 aa 4c ff ff       	callq  7d8e <safe_div_func_uint16_t_u_u>
   130e4:	0f bf 95 54 f5 ff ff 	movswl -0xaac(%rbp),%edx
   130eb:	48 8b 05 66 b7 00 00 	mov    0xb766(%rip),%rax        # 1e858 <g_218>
   130f2:	8b 00                	mov    (%rax),%eax
   130f4:	83 f8 01             	cmp    $0x1,%eax
   130f7:	0f 94 c0             	sete   %al
   130fa:	0f b6 c0             	movzbl %al,%eax
   130fd:	39 c2                	cmp    %eax,%edx
   130ff:	0f 8d 30 01 00 00    	jge    13235 <func_51+0x1824>
   13105:	48 8d 85 a0 f7 ff ff 	lea    -0x860(%rbp),%rax
   1310c:	48 83 c0 38          	add    $0x38,%rax
   13110:	48 89 85 80 f6 ff ff 	mov    %rax,-0x980(%rbp)
   13117:	83 bd a4 f5 ff ff 00 	cmpl   $0x0,-0xa5c(%rbp)
   1311e:	74 05                	je     13125 <func_51+0x1714>
   13120:	e9 05 eb ff ff       	jmpq   11c2a <func_51+0x219>
   13125:	c7 85 94 f5 ff ff 08 	movl   $0x8,-0xa6c(%rbp)
   1312c:	00 00 00 
   1312f:	e9 f2 00 00 00       	jmpq   13226 <func_51+0x1815>
   13134:	48 8d 85 d0 f5 ff ff 	lea    -0xa30(%rbp),%rax
   1313b:	48 89 85 88 f6 ff ff 	mov    %rax,-0x978(%rbp)
   13142:	c7 85 ac f5 ff ff 03 	movl   $0x3,-0xa54(%rbp)
   13149:	00 00 00 
   1314c:	48 8d 85 d8 f5 ff ff 	lea    -0xa28(%rbp),%rax
   13153:	48 89 85 90 f6 ff ff 	mov    %rax,-0x970(%rbp)
   1315a:	48 83 bd 80 f6 ff ff 	cmpq   $0x0,-0x980(%rbp)
   13161:	00 
   13162:	0f 94 c2             	sete   %dl
   13165:	48 8b 85 30 f6 ff ff 	mov    -0x9d0(%rbp),%rax
   1316c:	48 8b 00             	mov    (%rax),%rax
   1316f:	0f b6 d2             	movzbl %dl,%edx
   13172:	89 10                	mov    %edx,(%rax)
   13174:	48 8b 95 d0 f5 ff ff 	mov    -0xa30(%rbp),%rdx
   1317b:	48 8b 85 88 f6 ff ff 	mov    -0x978(%rbp),%rax
   13182:	48 89 10             	mov    %rdx,(%rax)
   13185:	48 c7 85 68 f6 ff ff 	movq   $0x0,-0x998(%rbp)
   1318c:	00 00 00 00 
   13190:	8b 9d ac f5 ff ff    	mov    -0xa54(%rbp),%ebx
   13196:	8b 85 44 f5 ff ff    	mov    -0xabc(%rbp),%eax
   1319c:	0f b6 d0             	movzbl %al,%edx
   1319f:	48 8b 05 f2 bb 00 00 	mov    0xbbf2(%rip),%rax        # 1ed98 <g_590>
   131a6:	48 85 c0             	test   %rax,%rax
   131a9:	0f 95 c0             	setne  %al
   131ac:	0f b6 c8             	movzbl %al,%ecx
   131af:	8b 85 44 f5 ff ff    	mov    -0xabc(%rbp),%eax
   131b5:	39 c1                	cmp    %eax,%ecx
   131b7:	0f 93 c0             	setae  %al
   131ba:	0f b6 c0             	movzbl %al,%eax
   131bd:	89 d6                	mov    %edx,%esi
   131bf:	89 c7                	mov    %eax,%edi
   131c1:	e8 b2 49 ff ff       	callq  7b78 <safe_sub_func_uint8_t_u_u>
   131c6:	48 8b 85 00 f6 ff ff 	mov    -0xa00(%rbp),%rax
   131cd:	48 8b 10             	mov    (%rax),%rdx
   131d0:	48 8b 85 f8 f5 ff ff 	mov    -0xa08(%rbp),%rax
   131d7:	48 89 10             	mov    %rdx,(%rax)
   131da:	48 8b 95 d8 f5 ff ff 	mov    -0xa28(%rbp),%rdx
   131e1:	48 8b 85 90 f6 ff ff 	mov    -0x970(%rbp),%rax
   131e8:	48 89 10             	mov    %rdx,(%rax)
   131eb:	ba 00 00 00 00       	mov    $0x0,%edx
   131f0:	48 8b 05 71 c9 00 00 	mov    0xc971(%rip),%rax        # 1fb68 <g_387>
   131f7:	89 10                	mov    %edx,(%rax)
   131f9:	0f b6 85 70 f5 ff ff 	movzbl -0xa90(%rbp),%eax
   13200:	89 de                	mov    %ebx,%esi
   13202:	89 c7                	mov    %eax,%edi
   13204:	e8 f4 4c ff ff       	callq  7efd <safe_mod_func_uint32_t_u_u>
   13209:	48 8b 95 48 f6 ff ff 	mov    -0x9b8(%rbp),%rdx
   13210:	8b 12                	mov    (%rdx),%edx
   13212:	21 d0                	and    %edx,%eax
   13214:	89 c2                	mov    %eax,%edx
   13216:	48 8b 85 48 f6 ff ff 	mov    -0x9b8(%rbp),%rax
   1321d:	89 10                	mov    %edx,(%rax)
   1321f:	83 ad 94 f5 ff ff 01 	subl   $0x1,-0xa6c(%rbp)
   13226:	83 bd 94 f5 ff ff 01 	cmpl   $0x1,-0xa6c(%rbp)
   1322d:	0f 8f 01 ff ff ff    	jg     13134 <func_51+0x1723>
   13233:	eb 37                	jmp    1326c <func_51+0x185b>
   13235:	48 8b 85 48 f6 ff ff 	mov    -0x9b8(%rbp),%rax
   1323c:	8b 00                	mov    (%rax),%eax
   1323e:	0d 27 3a 3f 97       	or     $0x973f3a27,%eax
   13243:	89 c2                	mov    %eax,%edx
   13245:	48 8b 85 48 f6 ff ff 	mov    -0x9b8(%rbp),%rax
   1324c:	89 10                	mov    %edx,(%rax)
   1324e:	48 8b 85 48 f6 ff ff 	mov    -0x9b8(%rbp),%rax
   13255:	8b 10                	mov    (%rax),%edx
   13257:	48 8b 85 68 f6 ff ff 	mov    -0x998(%rbp),%rax
   1325e:	89 10                	mov    %edx,(%rax)
   13260:	48 8b 85 30 f6 ff ff 	mov    -0x9d0(%rbp),%rax
   13267:	e9 4c 01 00 00       	jmpq   133b8 <func_51+0x19a7>
   1326c:	48 8b 85 58 f5 ff ff 	mov    -0xaa8(%rbp),%rax
   13273:	0f b7 d8             	movzwl %ax,%ebx
   13276:	48 8b 85 48 f6 ff ff 	mov    -0x9b8(%rbp),%rax
   1327d:	8b 00                	mov    (%rax),%eax
   1327f:	41 89 c4             	mov    %eax,%r12d
   13282:	bf ff ff ff ff       	mov    $0xffffffff,%edi
   13287:	e8 11 41 ff ff       	callq  739d <safe_unary_minus_func_int16_t_s>
   1328c:	0f b6 c0             	movzbl %al,%eax
   1328f:	44 89 e6             	mov    %r12d,%esi
   13292:	89 c7                	mov    %eax,%edi
   13294:	e8 25 4a ff ff       	callq  7cbe <safe_rshift_func_uint8_t_u_u>
   13299:	0f b6 c0             	movzbl %al,%eax
   1329c:	89 c7                	mov    %eax,%edi
   1329e:	e8 03 4c ff ff       	callq  7ea6 <safe_unary_minus_func_uint32_t_u>
   132a3:	48 8b 05 5e b7 00 00 	mov    0xb75e(%rip),%rax        # 1ea08 <g_472>
   132aa:	48 8b 10             	mov    (%rax),%rdx
   132ad:	0f b7 05 74 9f 00 00 	movzwl 0x9f74(%rip),%eax        # 1d228 <g_125>
   132b4:	0f b7 c0             	movzwl %ax,%eax
   132b7:	48 89 d6             	mov    %rdx,%rsi
   132ba:	89 c7                	mov    %eax,%edi
   132bc:	e8 29 e7 ff ff       	callq  119ea <func_47>
   132c1:	48 8b 85 70 f6 ff ff 	mov    -0x990(%rbp),%rax
   132c8:	48 c7 00 00 00 00 00 	movq   $0x0,(%rax)
   132cf:	48 8b 05 02 bb 00 00 	mov    0xbb02(%rip),%rax        # 1edd8 <g_607+0x18>
   132d6:	48 85 c0             	test   %rax,%rax
   132d9:	0f 94 c0             	sete   %al
   132dc:	0f b6 d0             	movzbl %al,%edx
   132df:	80 bd 50 f5 ff ff 00 	cmpb   $0x0,-0xab0(%rbp)
   132e6:	75 0a                	jne    132f2 <func_51+0x18e1>
   132e8:	48 83 bd 58 f5 ff ff 	cmpq   $0x0,-0xaa8(%rbp)
   132ef:	00 
   132f0:	74 07                	je     132f9 <func_51+0x18e8>
   132f2:	b8 01 00 00 00       	mov    $0x1,%eax
   132f7:	eb 05                	jmp    132fe <func_51+0x18ed>
   132f9:	b8 00 00 00 00       	mov    $0x0,%eax
   132fe:	89 c1                	mov    %eax,%ecx
   13300:	8b 85 44 f5 ff ff    	mov    -0xabc(%rbp),%eax
   13306:	31 c1                	xor    %eax,%ecx
   13308:	48 8b 05 49 b5 00 00 	mov    0xb549(%rip),%rax        # 1e858 <g_218>
   1330f:	8b 00                	mov    (%rax),%eax
   13311:	09 c8                	or     %ecx,%eax
   13313:	39 c2                	cmp    %eax,%edx
   13315:	0f 96 c0             	setbe  %al
   13318:	0f b6 d0             	movzbl %al,%edx
   1331b:	0f bf 85 72 f5 ff ff 	movswl -0xa8e(%rbp),%eax
   13322:	39 c2                	cmp    %eax,%edx
   13324:	0f 95 c0             	setne  %al
   13327:	0f b6 c0             	movzbl %al,%eax
   1332a:	be 03 00 00 00       	mov    $0x3,%esi
   1332f:	89 c7                	mov    %eax,%edi
   13331:	e8 2d 42 ff ff       	callq  7563 <safe_rshift_func_int16_t_s_u>
   13336:	0f be c0             	movsbl %al,%eax
   13339:	be 03 00 00 00       	mov    $0x3,%esi
   1333e:	89 c7                	mov    %eax,%edi
   13340:	e8 a9 3f ff ff       	callq  72ee <safe_lshift_func_int8_t_s_u>
   13345:	b8 01 00 00 00       	mov    $0x1,%eax
   1334a:	0f b7 c0             	movzwl %ax,%eax
   1334d:	89 de                	mov    %ebx,%esi
   1334f:	89 c7                	mov    %eax,%edi
   13351:	e8 38 4a ff ff       	callq  7d8e <safe_div_func_uint16_t_u_u>
   13356:	0f b7 d0             	movzwl %ax,%edx
   13359:	48 8b 85 48 f6 ff ff 	mov    -0x9b8(%rbp),%rax
   13360:	89 10                	mov    %edx,(%rax)
   13362:	48 8b 85 30 f6 ff ff 	mov    -0x9d0(%rbp),%rax
   13369:	48 8b 00             	mov    (%rax),%rax
   1336c:	48 8b 95 48 f6 ff ff 	mov    -0x9b8(%rbp),%rdx
   13373:	8b 12                	mov    (%rdx),%edx
   13375:	89 10                	mov    %edx,(%rax)
   13377:	8b 05 cb 9e 00 00    	mov    0x9ecb(%rip),%eax        # 1d248 <g_236>
   1337d:	83 c0 01             	add    $0x1,%eax
   13380:	89 05 c2 9e 00 00    	mov    %eax,0x9ec2(%rip)        # 1d248 <g_236>
   13386:	8b 05 bc 9e 00 00    	mov    0x9ebc(%rip),%eax        # 1d248 <g_236>
   1338c:	83 f8 08             	cmp    $0x8,%eax
   1338f:	0f 8e 46 ec ff ff    	jle    11fdb <func_51+0x5ca>
   13395:	eb 04                	jmp    1339b <func_51+0x198a>
   13397:	90                   	nop
   13398:	eb 01                	jmp    1339b <func_51+0x198a>
   1339a:	90                   	nop
   1339b:	48 83 85 58 f5 ff ff 	addq   $0x1,-0xaa8(%rbp)
   133a2:	01 
   133a3:	48 83 bd 58 f5 ff ff 	cmpq   $0x8,-0xaa8(%rbp)
   133aa:	08 
   133ab:	0f 8e e8 e9 ff ff    	jle    11d99 <func_51+0x388>
   133b1:	48 8b 85 30 f6 ff ff 	mov    -0x9d0(%rbp),%rax
   133b8:	48 8b 5d c8          	mov    -0x38(%rbp),%rbx
   133bc:	64 48 33 1c 25 28 00 	xor    %fs:0x28,%rbx
   133c3:	00 00 
   133c5:	74 05                	je     133cc <func_51+0x19bb>
   133c7:	e8 a4 3c ff ff       	callq  7070 <__stack_chk_fail@plt>
   133cc:	48 81 c4 98 0a 00 00 	add    $0xa98,%rsp
   133d3:	5b                   	pop    %rbx
   133d4:	41 5c                	pop    %r12
   133d6:	41 5d                	pop    %r13
   133d8:	41 5e                	pop    %r14
   133da:	41 5f                	pop    %r15
   133dc:	5d                   	pop    %rbp
   133dd:	c3                   	retq   

00000000000133de <func_57>:
   133de:	f3 0f 1e fa          	endbr64 
   133e2:	55                   	push   %rbp
   133e3:	48 89 e5             	mov    %rsp,%rbp
   133e6:	41 56                	push   %r14
   133e8:	41 55                	push   %r13
   133ea:	41 54                	push   %r12
   133ec:	53                   	push   %rbx
   133ed:	48 83 ec 30          	sub    $0x30,%rsp
   133f1:	48 89 7d b8          	mov    %rdi,-0x48(%rbp)
   133f5:	48 89 75 b0          	mov    %rsi,-0x50(%rbp)
   133f9:	48 8d 05 28 9e 00 00 	lea    0x9e28(%rip),%rax        # 1d228 <g_125>
   13400:	48 89 45 c0          	mov    %rax,-0x40(%rbp)
   13404:	48 8d 05 b9 9d 00 00 	lea    0x9db9(%rip),%rax        # 1d1c4 <g_14>
   1340b:	48 89 45 c8          	mov    %rax,-0x38(%rbp)
   1340f:	48 8d 05 cf 9d 00 00 	lea    0x9dcf(%rip),%rax        # 1d1e5 <g_91+0x1>
   13416:	48 89 45 d0          	mov    %rax,-0x30(%rbp)
   1341a:	48 8d 05 bf 9d 00 00 	lea    0x9dbf(%rip),%rax        # 1d1e0 <g_65>
   13421:	48 89 45 d8          	mov    %rax,-0x28(%rbp)
   13425:	48 83 7d c0 00       	cmpq   $0x0,-0x40(%rbp)
   1342a:	0f 95 c0             	setne  %al
   1342d:	44 0f b6 e8          	movzbl %al,%r13d
   13431:	48 8b 45 c8          	mov    -0x38(%rbp),%rax
   13435:	8b 00                	mov    (%rax),%eax
   13437:	0f b6 d8             	movzbl %al,%ebx
   1343a:	48 8b 45 c8          	mov    -0x38(%rbp),%rax
   1343e:	8b 00                	mov    (%rax),%eax
   13440:	41 89 c6             	mov    %eax,%r14d
   13443:	48 bf 52 f0 c4 79 35 	movabs $0x1c0fab3579c4f052,%rdi
   1344a:	ab 0f 1c 
   1344d:	e8 c4 43 ff ff       	callq  7816 <safe_unary_minus_func_int64_t_s>
   13452:	48 85 c0             	test   %rax,%rax
   13455:	0f 94 c0             	sete   %al
   13458:	44 0f b6 e0          	movzbl %al,%r12d
   1345c:	48 8b 45 c8          	mov    -0x38(%rbp),%rax
   13460:	8b 10                	mov    (%rax),%edx
   13462:	48 83 7d c8 00       	cmpq   $0x0,-0x38(%rbp)
   13467:	0f 94 c0             	sete   %al
   1346a:	0f b6 c0             	movzbl %al,%eax
   1346d:	89 d6                	mov    %edx,%esi
   1346f:	89 c7                	mov    %eax,%edi
   13471:	e8 bf 3e ff ff       	callq  7335 <safe_rshift_func_int8_t_s_s>
   13476:	f7 d0                	not    %eax
   13478:	0f b6 c0             	movzbl %al,%eax
   1347b:	44 89 e6             	mov    %r12d,%esi
   1347e:	89 c7                	mov    %eax,%edi
   13480:	e8 d5 46 ff ff       	callq  7b5a <safe_add_func_uint8_t_u_u>
   13485:	44 89 f6             	mov    %r14d,%esi
   13488:	bf 00 00 00 00       	mov    $0x0,%edi
   1348d:	e8 e8 49 ff ff       	callq  7e7a <safe_rshift_func_uint16_t_u_u>
   13492:	0f b6 c0             	movzbl %al,%eax
   13495:	89 c7                	mov    %eax,%edi
   13497:	e8 a9 46 ff ff       	callq  7b45 <safe_unary_minus_func_uint8_t_u>
   1349c:	48 8b 55 d0          	mov    -0x30(%rbp),%rdx
   134a0:	0f b6 12             	movzbl (%rdx),%edx
   134a3:	21 c2                	and    %eax,%edx
   134a5:	48 8b 45 d0          	mov    -0x30(%rbp),%rax
   134a9:	88 10                	mov    %dl,(%rax)
   134ab:	48 8b 45 d0          	mov    -0x30(%rbp),%rax
   134af:	0f b6 00             	movzbl (%rax),%eax
   134b2:	0f b6 c0             	movzbl %al,%eax
   134b5:	89 de                	mov    %ebx,%esi
   134b7:	89 c7                	mov    %eax,%edi
   134b9:	e8 1d 47 ff ff       	callq  7bdb <safe_div_func_uint8_t_u_u>
   134be:	0f b6 c0             	movzbl %al,%eax
   134c1:	44 89 ea             	mov    %r13d,%edx
   134c4:	31 c2                	xor    %eax,%edx
   134c6:	48 8b 45 d8          	mov    -0x28(%rbp),%rax
   134ca:	89 10                	mov    %edx,(%rax)
   134cc:	48 8b 45 d8          	mov    -0x28(%rbp),%rax
   134d0:	48 83 c4 30          	add    $0x30,%rsp
   134d4:	5b                   	pop    %rbx
   134d5:	41 5c                	pop    %r12
   134d7:	41 5d                	pop    %r13
   134d9:	41 5e                	pop    %r14
   134db:	5d                   	pop    %rbp
   134dc:	c3                   	retq   

00000000000134dd <func_60>:
   134dd:	f3 0f 1e fa          	endbr64 
   134e1:	55                   	push   %rbp
   134e2:	48 89 e5             	mov    %rsp,%rbp
   134e5:	41 57                	push   %r15
   134e7:	41 56                	push   %r14
   134e9:	41 55                	push   %r13
   134eb:	41 54                	push   %r12
   134ed:	53                   	push   %rbx
   134ee:	48 81 ec 78 0b 00 00 	sub    $0xb78,%rsp
   134f5:	89 f8                	mov    %edi,%eax
   134f7:	48 89 b5 70 f4 ff ff 	mov    %rsi,-0xb90(%rbp)
   134fe:	48 89 95 68 f4 ff ff 	mov    %rdx,-0xb98(%rbp)
   13505:	66 89 85 7c f4 ff ff 	mov    %ax,-0xb84(%rbp)
   1350c:	64 48 8b 04 25 28 00 	mov    %fs:0x28,%rax
   13513:	00 00 
   13515:	48 89 45 c8          	mov    %rax,-0x38(%rbp)
   13519:	31 c0                	xor    %eax,%eax
   1351b:	66 c7 85 8a f4 ff ff 	movw   $0xffff,-0xb76(%rbp)
   13522:	ff ff 
   13524:	c6 85 89 f4 ff ff 00 	movb   $0x0,-0xb77(%rbp)
   1352b:	48 8d 05 ee 9c 00 00 	lea    0x9cee(%rip),%rax        # 1d220 <g_112>
   13532:	48 89 85 e0 f4 ff ff 	mov    %rax,-0xb20(%rbp)
   13539:	48 8d 05 a0 9c 00 00 	lea    0x9ca0(%rip),%rax        # 1d1e0 <g_65>
   13540:	48 89 85 e8 f4 ff ff 	mov    %rax,-0xb18(%rbp)
   13547:	66 c7 85 8c f4 ff ff 	movw   $0x1,-0xb74(%rbp)
   1354e:	01 00 
   13550:	c7 85 b8 f4 ff ff da 	movl   $0x967b1fda,-0xb48(%rbp)
   13557:	1f 7b 96 
   1355a:	c6 85 88 f4 ff ff f6 	movb   $0xf6,-0xb78(%rbp)
   13561:	66 c7 85 8e f4 ff ff 	movw   $0x6,-0xb72(%rbp)
   13568:	06 00 
   1356a:	c7 85 94 f4 ff ff fb 	movl   $0xfffffffb,-0xb6c(%rbp)
   13571:	ff ff ff 
   13574:	48 8d 05 cd b2 00 00 	lea    0xb2cd(%rip),%rax        # 1e848 <g_39>
   1357b:	48 89 85 60 f7 ff ff 	mov    %rax,-0x8a0(%rbp)
   13582:	48 8d 05 bf b2 00 00 	lea    0xb2bf(%rip),%rax        # 1e848 <g_39>
   13589:	48 89 85 68 f7 ff ff 	mov    %rax,-0x898(%rbp)
   13590:	48 8d 05 b1 b2 00 00 	lea    0xb2b1(%rip),%rax        # 1e848 <g_39>
   13597:	48 89 85 70 f7 ff ff 	mov    %rax,-0x890(%rbp)
   1359e:	48 8d 05 a3 b2 00 00 	lea    0xb2a3(%rip),%rax        # 1e848 <g_39>
   135a5:	48 89 85 78 f7 ff ff 	mov    %rax,-0x888(%rbp)
   135ac:	48 8d 05 95 b2 00 00 	lea    0xb295(%rip),%rax        # 1e848 <g_39>
   135b3:	48 89 85 80 f7 ff ff 	mov    %rax,-0x880(%rbp)
   135ba:	48 8d 05 87 b2 00 00 	lea    0xb287(%rip),%rax        # 1e848 <g_39>
   135c1:	48 89 85 88 f7 ff ff 	mov    %rax,-0x878(%rbp)
   135c8:	48 8d 05 79 b2 00 00 	lea    0xb279(%rip),%rax        # 1e848 <g_39>
   135cf:	48 89 85 90 f7 ff ff 	mov    %rax,-0x870(%rbp)
   135d6:	48 8d 05 6b b2 00 00 	lea    0xb26b(%rip),%rax        # 1e848 <g_39>
   135dd:	48 89 85 98 f7 ff ff 	mov    %rax,-0x868(%rbp)
   135e4:	48 8d 85 60 f7 ff ff 	lea    -0x8a0(%rbp),%rax
   135eb:	48 89 85 f0 f4 ff ff 	mov    %rax,-0xb10(%rbp)
   135f2:	48 8d 85 f0 f4 ff ff 	lea    -0xb10(%rbp),%rax
   135f9:	48 89 85 d0 f6 ff ff 	mov    %rax,-0x930(%rbp)
   13600:	48 8d 85 f0 f4 ff ff 	lea    -0xb10(%rbp),%rax
   13607:	48 89 85 d8 f6 ff ff 	mov    %rax,-0x928(%rbp)
   1360e:	48 8d 85 f0 f4 ff ff 	lea    -0xb10(%rbp),%rax
   13615:	48 89 85 e0 f6 ff ff 	mov    %rax,-0x920(%rbp)
   1361c:	48 8d 85 f0 f4 ff ff 	lea    -0xb10(%rbp),%rax
   13623:	48 89 85 e8 f6 ff ff 	mov    %rax,-0x918(%rbp)
   1362a:	48 8d 85 f0 f4 ff ff 	lea    -0xb10(%rbp),%rax
   13631:	48 89 85 f0 f6 ff ff 	mov    %rax,-0x910(%rbp)
   13638:	48 8d 05 01 9c 00 00 	lea    0x9c01(%rip),%rax        # 1d240 <g_231>
   1363f:	48 89 85 f8 f4 ff ff 	mov    %rax,-0xb08(%rbp)
   13646:	48 8d 85 f8 f4 ff ff 	lea    -0xb08(%rbp),%rax
   1364d:	48 89 85 00 f5 ff ff 	mov    %rax,-0xb00(%rbp)
   13654:	48 8d 85 00 f5 ff ff 	lea    -0xb00(%rbp),%rax
   1365b:	48 89 85 90 f6 ff ff 	mov    %rax,-0x970(%rbp)
   13662:	48 8d 85 00 f5 ff ff 	lea    -0xb00(%rbp),%rax
   13669:	48 89 85 98 f6 ff ff 	mov    %rax,-0x968(%rbp)
   13670:	48 8d 85 00 f5 ff ff 	lea    -0xb00(%rbp),%rax
   13677:	48 89 85 a0 f6 ff ff 	mov    %rax,-0x960(%rbp)
   1367e:	48 8d 85 00 f5 ff ff 	lea    -0xb00(%rbp),%rax
   13685:	48 89 85 a8 f6 ff ff 	mov    %rax,-0x958(%rbp)
   1368c:	48 8d 85 e8 f4 ff ff 	lea    -0xb18(%rbp),%rax
   13693:	48 89 85 60 fa ff ff 	mov    %rax,-0x5a0(%rbp)
   1369a:	48 8d 85 e8 f4 ff ff 	lea    -0xb18(%rbp),%rax
   136a1:	48 89 85 68 fa ff ff 	mov    %rax,-0x598(%rbp)
   136a8:	48 8d 05 b9 c4 00 00 	lea    0xc4b9(%rip),%rax        # 1fb68 <g_387>
   136af:	48 89 85 70 fa ff ff 	mov    %rax,-0x590(%rbp)
   136b6:	48 c7 85 78 fa ff ff 	movq   $0x0,-0x588(%rbp)
   136bd:	00 00 00 00 
   136c1:	48 8d 85 e8 f4 ff ff 	lea    -0xb18(%rbp),%rax
   136c8:	48 89 85 80 fa ff ff 	mov    %rax,-0x580(%rbp)
   136cf:	48 8d 05 92 c4 00 00 	lea    0xc492(%rip),%rax        # 1fb68 <g_387>
   136d6:	48 89 85 88 fa ff ff 	mov    %rax,-0x578(%rbp)
   136dd:	48 c7 85 90 fa ff ff 	movq   $0x0,-0x570(%rbp)
   136e4:	00 00 00 00 
   136e8:	48 8d 85 e8 f4 ff ff 	lea    -0xb18(%rbp),%rax
   136ef:	48 89 85 98 fa ff ff 	mov    %rax,-0x568(%rbp)
   136f6:	48 c7 85 a0 fa ff ff 	movq   $0x0,-0x560(%rbp)
   136fd:	00 00 00 00 
   13701:	48 8d 05 60 c4 00 00 	lea    0xc460(%rip),%rax        # 1fb68 <g_387>
   13708:	48 89 85 a8 fa ff ff 	mov    %rax,-0x558(%rbp)
   1370f:	48 8d 05 52 c4 00 00 	lea    0xc452(%rip),%rax        # 1fb68 <g_387>
   13716:	48 89 85 b0 fa ff ff 	mov    %rax,-0x550(%rbp)
   1371d:	48 c7 85 b8 fa ff ff 	movq   $0x0,-0x548(%rbp)
   13724:	00 00 00 00 
   13728:	48 8d 85 e8 f4 ff ff 	lea    -0xb18(%rbp),%rax
   1372f:	48 89 85 c0 fa ff ff 	mov    %rax,-0x540(%rbp)
   13736:	48 8d 85 e8 f4 ff ff 	lea    -0xb18(%rbp),%rax
   1373d:	48 89 85 c8 fa ff ff 	mov    %rax,-0x538(%rbp)
   13744:	48 c7 85 d0 fa ff ff 	movq   $0x0,-0x530(%rbp)
   1374b:	00 00 00 00 
   1374f:	48 c7 85 d8 fa ff ff 	movq   $0x0,-0x528(%rbp)
   13756:	00 00 00 00 
   1375a:	48 8d 05 07 c4 00 00 	lea    0xc407(%rip),%rax        # 1fb68 <g_387>
   13761:	48 89 85 e0 fa ff ff 	mov    %rax,-0x520(%rbp)
   13768:	48 c7 85 e8 fa ff ff 	movq   $0x0,-0x518(%rbp)
   1376f:	00 00 00 00 
   13773:	48 8d 05 ee c3 00 00 	lea    0xc3ee(%rip),%rax        # 1fb68 <g_387>
   1377a:	48 89 85 f0 fa ff ff 	mov    %rax,-0x510(%rbp)
   13781:	48 8d 05 e0 c3 00 00 	lea    0xc3e0(%rip),%rax        # 1fb68 <g_387>
   13788:	48 89 85 f8 fa ff ff 	mov    %rax,-0x508(%rbp)
   1378f:	48 c7 85 00 fb ff ff 	movq   $0x0,-0x500(%rbp)
   13796:	00 00 00 00 
   1379a:	48 8d 05 c7 c3 00 00 	lea    0xc3c7(%rip),%rax        # 1fb68 <g_387>
   137a1:	48 89 85 08 fb ff ff 	mov    %rax,-0x4f8(%rbp)
   137a8:	48 8d 85 e8 f4 ff ff 	lea    -0xb18(%rbp),%rax
   137af:	48 89 85 10 fb ff ff 	mov    %rax,-0x4f0(%rbp)
   137b6:	48 8d 05 ab c3 00 00 	lea    0xc3ab(%rip),%rax        # 1fb68 <g_387>
   137bd:	48 89 85 18 fb ff ff 	mov    %rax,-0x4e8(%rbp)
   137c4:	48 c7 85 20 fb ff ff 	movq   $0x0,-0x4e0(%rbp)
   137cb:	00 00 00 00 
   137cf:	48 8d 05 92 c3 00 00 	lea    0xc392(%rip),%rax        # 1fb68 <g_387>
   137d6:	48 89 85 28 fb ff ff 	mov    %rax,-0x4d8(%rbp)
   137dd:	48 8d 85 e8 f4 ff ff 	lea    -0xb18(%rbp),%rax
   137e4:	48 89 85 30 fb ff ff 	mov    %rax,-0x4d0(%rbp)
   137eb:	48 8d 05 76 c3 00 00 	lea    0xc376(%rip),%rax        # 1fb68 <g_387>
   137f2:	48 89 85 38 fb ff ff 	mov    %rax,-0x4c8(%rbp)
   137f9:	48 8d 85 e8 f4 ff ff 	lea    -0xb18(%rbp),%rax
   13800:	48 89 85 40 fb ff ff 	mov    %rax,-0x4c0(%rbp)
   13807:	48 8d 05 5a c3 00 00 	lea    0xc35a(%rip),%rax        # 1fb68 <g_387>
   1380e:	48 89 85 48 fb ff ff 	mov    %rax,-0x4b8(%rbp)
   13815:	48 8d 85 e8 f4 ff ff 	lea    -0xb18(%rbp),%rax
   1381c:	48 89 85 50 fb ff ff 	mov    %rax,-0x4b0(%rbp)
   13823:	48 8d 85 e8 f4 ff ff 	lea    -0xb18(%rbp),%rax
   1382a:	48 89 85 58 fb ff ff 	mov    %rax,-0x4a8(%rbp)
   13831:	48 8d 05 30 c3 00 00 	lea    0xc330(%rip),%rax        # 1fb68 <g_387>
   13838:	48 89 85 60 fb ff ff 	mov    %rax,-0x4a0(%rbp)
   1383f:	48 c7 85 68 fb ff ff 	movq   $0x0,-0x498(%rbp)
   13846:	00 00 00 00 
   1384a:	48 8d 85 e8 f4 ff ff 	lea    -0xb18(%rbp),%rax
   13851:	48 89 85 70 fb ff ff 	mov    %rax,-0x490(%rbp)
   13858:	48 8d 05 09 c3 00 00 	lea    0xc309(%rip),%rax        # 1fb68 <g_387>
   1385f:	48 89 85 78 fb ff ff 	mov    %rax,-0x488(%rbp)
   13866:	48 8d 85 e8 f4 ff ff 	lea    -0xb18(%rbp),%rax
   1386d:	48 89 85 80 fb ff ff 	mov    %rax,-0x480(%rbp)
   13874:	48 8d 85 e8 f4 ff ff 	lea    -0xb18(%rbp),%rax
   1387b:	48 89 85 88 fb ff ff 	mov    %rax,-0x478(%rbp)
   13882:	48 8d 85 e8 f4 ff ff 	lea    -0xb18(%rbp),%rax
   13889:	48 89 85 90 fb ff ff 	mov    %rax,-0x470(%rbp)
   13890:	48 8d 05 d1 c2 00 00 	lea    0xc2d1(%rip),%rax        # 1fb68 <g_387>
   13897:	48 89 85 98 fb ff ff 	mov    %rax,-0x468(%rbp)
   1389e:	48 8d 85 e8 f4 ff ff 	lea    -0xb18(%rbp),%rax
   138a5:	48 89 85 a0 fb ff ff 	mov    %rax,-0x460(%rbp)
   138ac:	48 8d 85 e8 f4 ff ff 	lea    -0xb18(%rbp),%rax
   138b3:	48 89 85 a8 fb ff ff 	mov    %rax,-0x458(%rbp)
   138ba:	48 8d 85 e8 f4 ff ff 	lea    -0xb18(%rbp),%rax
   138c1:	48 89 85 b0 fb ff ff 	mov    %rax,-0x450(%rbp)
   138c8:	48 8d 05 99 c2 00 00 	lea    0xc299(%rip),%rax        # 1fb68 <g_387>
   138cf:	48 89 85 b8 fb ff ff 	mov    %rax,-0x448(%rbp)
   138d6:	48 c7 85 c0 fb ff ff 	movq   $0x0,-0x440(%rbp)
   138dd:	00 00 00 00 
   138e1:	48 8d 85 e8 f4 ff ff 	lea    -0xb18(%rbp),%rax
   138e8:	48 89 85 c8 fb ff ff 	mov    %rax,-0x438(%rbp)
   138ef:	48 8d 05 72 c2 00 00 	lea    0xc272(%rip),%rax        # 1fb68 <g_387>
   138f6:	48 89 85 d0 fb ff ff 	mov    %rax,-0x430(%rbp)
   138fd:	48 8d 85 e8 f4 ff ff 	lea    -0xb18(%rbp),%rax
   13904:	48 89 85 d8 fb ff ff 	mov    %rax,-0x428(%rbp)
   1390b:	48 c7 85 e0 fb ff ff 	movq   $0x0,-0x420(%rbp)
   13912:	00 00 00 00 
   13916:	48 8d 05 4b c2 00 00 	lea    0xc24b(%rip),%rax        # 1fb68 <g_387>
   1391d:	48 89 85 e8 fb ff ff 	mov    %rax,-0x418(%rbp)
   13924:	48 8d 05 3d c2 00 00 	lea    0xc23d(%rip),%rax        # 1fb68 <g_387>
   1392b:	48 89 85 f0 fb ff ff 	mov    %rax,-0x410(%rbp)
   13932:	48 8d 05 2f c2 00 00 	lea    0xc22f(%rip),%rax        # 1fb68 <g_387>
   13939:	48 89 85 f8 fb ff ff 	mov    %rax,-0x408(%rbp)
   13940:	48 8d 85 e8 f4 ff ff 	lea    -0xb18(%rbp),%rax
   13947:	48 89 85 00 fc ff ff 	mov    %rax,-0x400(%rbp)
   1394e:	48 8d 85 e8 f4 ff ff 	lea    -0xb18(%rbp),%rax
   13955:	48 89 85 08 fc ff ff 	mov    %rax,-0x3f8(%rbp)
   1395c:	48 8d 85 e8 f4 ff ff 	lea    -0xb18(%rbp),%rax
   13963:	48 89 85 10 fc ff ff 	mov    %rax,-0x3f0(%rbp)
   1396a:	48 8d 05 f7 c1 00 00 	lea    0xc1f7(%rip),%rax        # 1fb68 <g_387>
   13971:	48 89 85 18 fc ff ff 	mov    %rax,-0x3e8(%rbp)
   13978:	48 c7 85 20 fc ff ff 	movq   $0x0,-0x3e0(%rbp)
   1397f:	00 00 00 00 
   13983:	48 8d 85 e8 f4 ff ff 	lea    -0xb18(%rbp),%rax
   1398a:	48 89 85 28 fc ff ff 	mov    %rax,-0x3d8(%rbp)
   13991:	48 c7 85 30 fc ff ff 	movq   $0x0,-0x3d0(%rbp)
   13998:	00 00 00 00 
   1399c:	48 8d 85 e8 f4 ff ff 	lea    -0xb18(%rbp),%rax
   139a3:	48 89 85 38 fc ff ff 	mov    %rax,-0x3c8(%rbp)
   139aa:	48 8d 85 e8 f4 ff ff 	lea    -0xb18(%rbp),%rax
   139b1:	48 89 85 40 fc ff ff 	mov    %rax,-0x3c0(%rbp)
   139b8:	48 c7 85 48 fc ff ff 	movq   $0x0,-0x3b8(%rbp)
   139bf:	00 00 00 00 
   139c3:	48 8d 85 e8 f4 ff ff 	lea    -0xb18(%rbp),%rax
   139ca:	48 89 85 50 fc ff ff 	mov    %rax,-0x3b0(%rbp)
   139d1:	48 c7 85 58 fc ff ff 	movq   $0x0,-0x3a8(%rbp)
   139d8:	00 00 00 00 
   139dc:	48 8d 05 fd 97 00 00 	lea    0x97fd(%rip),%rax        # 1d1e0 <g_65>
   139e3:	48 89 85 28 f5 ff ff 	mov    %rax,-0xad8(%rbp)
   139ea:	48 c7 05 e3 97 00 00 	movq   $0x0,0x97e3(%rip)        # 1d1d8 <g_42>
   139f1:	00 00 00 00 
   139f5:	e9 cd 0a 00 00       	jmpq   144c7 <func_60+0xfea>
   139fa:	c7 85 f0 f7 ff ff ff 	movl   $0xffffffff,-0x810(%rbp)
   13a01:	ff ff ff 
   13a04:	c7 85 f4 f7 ff ff ff 	movl   $0xffffffff,-0x80c(%rbp)
   13a0b:	ff ff ff 
   13a0e:	c7 85 f8 f7 ff ff ff 	movl   $0xffffffff,-0x808(%rbp)
   13a15:	ff ff ff 
   13a18:	c7 85 fc f7 ff ff ff 	movl   $0xffffffff,-0x804(%rbp)
   13a1f:	ff ff ff 
   13a22:	c7 85 00 f8 ff ff ff 	movl   $0xffffffff,-0x800(%rbp)
   13a29:	ff ff ff 
   13a2c:	c7 85 04 f8 ff ff ff 	movl   $0xffffffff,-0x7fc(%rbp)
   13a33:	ff ff ff 
   13a36:	c7 85 08 f8 ff ff ff 	movl   $0xffffffff,-0x7f8(%rbp)
   13a3d:	ff ff ff 
   13a40:	c7 85 0c f8 ff ff ff 	movl   $0xffffffff,-0x7f4(%rbp)
   13a47:	ff ff ff 
   13a4a:	c7 85 98 f4 ff ff 00 	movl   $0x0,-0xb68(%rbp)
   13a51:	00 00 00 
   13a54:	eb 1a                	jmp    13a70 <func_60+0x593>
   13a56:	8b 85 98 f4 ff ff    	mov    -0xb68(%rbp),%eax
   13a5c:	48 98                	cltq   
   13a5e:	c7 84 85 00 f7 ff ff 	movl   $0x5de3b0ba,-0x900(%rbp,%rax,4)
   13a65:	ba b0 e3 5d 
   13a69:	83 85 98 f4 ff ff 01 	addl   $0x1,-0xb68(%rbp)
   13a70:	83 bd 98 f4 ff ff 01 	cmpl   $0x1,-0xb68(%rbp)
   13a77:	7e dd                	jle    13a56 <func_60+0x579>
   13a79:	c7 85 98 f4 ff ff 00 	movl   $0x0,-0xb68(%rbp)
   13a80:	00 00 00 
   13a83:	eb 1e                	jmp    13aa3 <func_60+0x5c6>
   13a85:	8b 85 98 f4 ff ff    	mov    -0xb68(%rbp),%eax
   13a8b:	48 98                	cltq   
   13a8d:	48 8d 15 b4 ad 00 00 	lea    0xadb4(%rip),%rdx        # 1e848 <g_39>
   13a94:	48 89 94 c5 30 f7 ff 	mov    %rdx,-0x8d0(%rbp,%rax,8)
   13a9b:	ff 
   13a9c:	83 85 98 f4 ff ff 01 	addl   $0x1,-0xb68(%rbp)
   13aa3:	83 bd 98 f4 ff ff 02 	cmpl   $0x2,-0xb68(%rbp)
   13aaa:	7e d9                	jle    13a85 <func_60+0x5a8>
   13aac:	66 c7 85 7c f4 ff ff 	movw   $0x0,-0xb84(%rbp)
   13ab3:	00 00 
   13ab5:	66 83 bd 7c f4 ff ff 	cmpw   $0x8,-0xb84(%rbp)
   13abc:	08 
   13abd:	77 1a                	ja     13ad9 <func_60+0x5fc>
   13abf:	48 8d 05 82 ad 00 00 	lea    0xad82(%rip),%rax        # 1e848 <g_39>
   13ac6:	48 89 85 48 f6 ff ff 	mov    %rax,-0x9b8(%rbp)
   13acd:	48 8b 85 48 f6 ff ff 	mov    -0x9b8(%rbp),%rax
   13ad4:	e9 80 2b 00 00       	jmpq   16659 <func_60+0x317c>
   13ad9:	66 c7 85 7c f4 ff ff 	movw   $0x2,-0xb84(%rbp)
   13ae0:	02 00 
   13ae2:	e9 bd 09 00 00       	jmpq   144a4 <func_60+0xfc7>
   13ae7:	c7 85 08 f5 ff ff f7 	movl   $0x137083f7,-0xaf8(%rbp)
   13aee:	83 70 13 
   13af1:	48 8d 85 08 f5 ff ff 	lea    -0xaf8(%rbp),%rax
   13af8:	48 89 85 e0 f5 ff ff 	mov    %rax,-0xa20(%rbp)
   13aff:	c7 05 d7 96 00 00 00 	movl   $0x0,0x96d7(%rip)        # 1d1e0 <g_65>
   13b06:	00 00 00 
   13b09:	e9 57 05 00 00       	jmpq   14065 <func_60+0xb88>
   13b0e:	48 8d 85 08 f5 ff ff 	lea    -0xaf8(%rbp),%rax
   13b15:	48 89 85 e8 f5 ff ff 	mov    %rax,-0xa18(%rbp)
   13b1c:	48 c7 85 10 f5 ff ff 	movq   $0x0,-0xaf0(%rbp)
   13b23:	00 00 00 00 
   13b27:	48 8d 85 10 f5 ff ff 	lea    -0xaf0(%rbp),%rax
   13b2e:	48 89 85 18 f5 ff ff 	mov    %rax,-0xae8(%rbp)
   13b35:	48 8d 85 18 f5 ff ff 	lea    -0xae8(%rbp),%rax
   13b3c:	48 89 85 f0 f5 ff ff 	mov    %rax,-0xa10(%rbp)
   13b43:	48 c7 85 f8 f5 ff ff 	movq   $0x0,-0xa08(%rbp)
   13b4a:	00 00 00 00 
   13b4e:	48 8d 05 d3 96 00 00 	lea    0x96d3(%rip),%rax        # 1d228 <g_125>
   13b55:	48 89 85 00 f6 ff ff 	mov    %rax,-0xa00(%rbp)
   13b5c:	48 8d 05 cd 96 00 00 	lea    0x96cd(%rip),%rax        # 1d230 <g_129>
   13b63:	48 89 85 08 f6 ff ff 	mov    %rax,-0x9f8(%rbp)
   13b6a:	8b 85 08 f5 ff ff    	mov    -0xaf8(%rbp),%eax
   13b70:	98                   	cwtl   
   13b71:	be 05 00 00 00       	mov    $0x5,%esi
   13b76:	89 c7                	mov    %eax,%edi
   13b78:	e8 e6 39 ff ff       	callq  7563 <safe_rshift_func_int16_t_s_u>
   13b7d:	0f b7 c0             	movzwl %ax,%eax
   13b80:	be d2 18 00 00       	mov    $0x18d2,%esi
   13b85:	89 c7                	mov    %eax,%edi
   13b87:	e8 93 41 ff ff       	callq  7d1f <safe_sub_func_uint16_t_u_u>
   13b8c:	0f b7 d8             	movzwl %ax,%ebx
   13b8f:	8b 05 2f 96 00 00    	mov    0x962f(%rip),%eax        # 1d1c4 <g_14>
   13b95:	48 63 d0             	movslq %eax,%rdx
   13b98:	48 8b 85 70 f4 ff ff 	mov    -0xb90(%rbp),%rax
   13b9f:	48 8b 0d a2 ac 00 00 	mov    0xaca2(%rip),%rcx        # 1e848 <g_39>
   13ba6:	48 89 08             	mov    %rcx,(%rax)
   13ba9:	48 8b 08             	mov    (%rax),%rcx
   13bac:	48 8b 05 95 ac 00 00 	mov    0xac95(%rip),%rax        # 1e848 <g_39>
   13bb3:	48 39 c1             	cmp    %rax,%rcx
   13bb6:	0f 94 c0             	sete   %al
   13bb9:	0f b6 c0             	movzbl %al,%eax
   13bbc:	48 89 d6             	mov    %rdx,%rsi
   13bbf:	48 89 c7             	mov    %rax,%rdi
   13bc2:	e8 b9 44 ff ff       	callq  8080 <safe_mod_func_uint64_t_u_u>
   13bc7:	89 c6                	mov    %eax,%esi
   13bc9:	8b 05 11 96 00 00    	mov    0x9611(%rip),%eax        # 1d1e0 <g_65>
   13bcf:	48 8b 0d 02 96 00 00 	mov    0x9602(%rip),%rcx        # 1d1d8 <g_42>
   13bd6:	48 63 d0             	movslq %eax,%rdx
   13bd9:	48 89 d0             	mov    %rdx,%rax
   13bdc:	48 c1 e0 02          	shl    $0x2,%rax
   13be0:	48 01 d0             	add    %rdx,%rax
   13be3:	48 01 c0             	add    %rax,%rax
   13be6:	48 01 c8             	add    %rcx,%rax
   13be9:	48 8d 14 00          	lea    (%rax,%rax,1),%rdx
   13bed:	48 8d 05 4c 94 00 00 	lea    0x944c(%rip),%rax        # 1d040 <g_4>
   13bf4:	66 c7 04 02 b2 5e    	movw   $0x5eb2,(%rdx,%rax,1)
   13bfa:	bf 00 00 00 00       	mov    $0x0,%edi
   13bff:	e8 c8 3a ff ff       	callq  76cc <safe_mod_func_int32_t_s_s>
   13c04:	89 de                	mov    %ebx,%esi
   13c06:	89 c7                	mov    %eax,%edi
   13c08:	e8 f8 39 ff ff       	callq  7605 <safe_sub_func_int32_t_s_s>
   13c0d:	48 8b 95 e8 f5 ff ff 	mov    -0xa18(%rbp),%rdx
   13c14:	89 02                	mov    %eax,(%rdx)
   13c16:	48 8b 85 e8 f5 ff ff 	mov    -0xa18(%rbp),%rax
   13c1d:	8b 00                	mov    (%rax),%eax
   13c1f:	85 c0                	test   %eax,%eax
   13c21:	74 0c                	je     13c2f <func_60+0x752>
   13c23:	48 8d 05 1e ac 00 00 	lea    0xac1e(%rip),%rax        # 1e848 <g_39>
   13c2a:	e9 2a 2a 00 00       	jmpq   16659 <func_60+0x317c>
   13c2f:	c7 85 d4 f4 ff ff 07 	movl   $0x7,-0xb2c(%rbp)
   13c36:	00 00 00 
   13c39:	48 8d 85 18 f5 ff ff 	lea    -0xae8(%rbp),%rax
   13c40:	48 39 85 f0 f5 ff ff 	cmp    %rax,-0xa10(%rbp)
   13c47:	0f 94 c0             	sete   %al
   13c4a:	0f b6 c0             	movzbl %al,%eax
   13c4d:	89 85 04 f7 ff ff    	mov    %eax,-0x8fc(%rbp)
   13c53:	c7 85 08 f5 ff ff 00 	movl   $0x0,-0xaf8(%rbp)
   13c5a:	00 00 00 
   13c5d:	eb 19                	jmp    13c78 <func_60+0x79b>
   13c5f:	66 83 bd 7c f4 ff ff 	cmpw   $0x0,-0xb84(%rbp)
   13c66:	00 
   13c67:	75 1c                	jne    13c85 <func_60+0x7a8>
   13c69:	8b 85 08 f5 ff ff    	mov    -0xaf8(%rbp),%eax
   13c6f:	83 c0 01             	add    $0x1,%eax
   13c72:	89 85 08 f5 ff ff    	mov    %eax,-0xaf8(%rbp)
   13c78:	8b 85 08 f5 ff ff    	mov    -0xaf8(%rbp),%eax
   13c7e:	83 f8 08             	cmp    $0x8,%eax
   13c81:	7e dc                	jle    13c5f <func_60+0x782>
   13c83:	eb 01                	jmp    13c86 <func_60+0x7a9>
   13c85:	90                   	nop
   13c86:	c7 85 08 f5 ff ff 08 	movl   $0x8,-0xaf8(%rbp)
   13c8d:	00 00 00 
   13c90:	e9 26 01 00 00       	jmpq   13dbb <func_60+0x8de>
   13c95:	48 8d 05 4b 95 00 00 	lea    0x954b(%rip),%rax        # 1d1e7 <g_91+0x3>
   13c9c:	48 89 85 18 f6 ff ff 	mov    %rax,-0x9e8(%rbp)
   13ca3:	c7 85 d8 f4 ff ff a4 	movl   $0xe11ed7a4,-0xb28(%rbp)
   13caa:	d7 1e e1 
   13cad:	48 8d 05 4c 95 00 00 	lea    0x954c(%rip),%rax        # 1d200 <g_104>
   13cb4:	48 89 85 20 f5 ff ff 	mov    %rax,-0xae0(%rbp)
   13cbb:	48 8d 85 20 f5 ff ff 	lea    -0xae0(%rbp),%rax
   13cc2:	48 89 85 20 f6 ff ff 	mov    %rax,-0x9e0(%rbp)
   13cc9:	0f b6 05 04 95 00 00 	movzbl 0x9504(%rip),%eax        # 1d1d4 <g_40>
   13cd0:	c1 e0 06             	shl    $0x6,%eax
   13cd3:	c0 f8 06             	sar    $0x6,%al
   13cd6:	66 98                	cbtw   
   13cd8:	0f b7 d8             	movzwl %ax,%ebx
   13cdb:	0f b7 85 8a f4 ff ff 	movzwl -0xb76(%rbp),%eax
   13ce2:	44 0f bf e0          	movswl %ax,%r12d
   13ce6:	8b 85 d4 f4 ff ff    	mov    -0xb2c(%rbp),%eax
   13cec:	0f b7 c0             	movzwl %ax,%eax
   13cef:	be 01 00 00 00       	mov    $0x1,%esi
   13cf4:	89 c7                	mov    %eax,%edi
   13cf6:	e8 0b 41 ff ff       	callq  7e06 <safe_lshift_func_uint16_t_u_u>
   13cfb:	0f bf d0             	movswl %ax,%edx
   13cfe:	8b 85 d8 f4 ff ff    	mov    -0xb28(%rbp),%eax
   13d04:	98                   	cwtl   
   13d05:	89 d6                	mov    %edx,%esi
   13d07:	89 c7                	mov    %eax,%edi
   13d09:	e8 47 37 ff ff       	callq  7455 <safe_div_func_int16_t_s_s>
   13d0e:	0f b7 85 7c f4 ff ff 	movzwl -0xb84(%rbp),%eax
   13d15:	98                   	cwtl   
   13d16:	44 89 e6             	mov    %r12d,%esi
   13d19:	89 c7                	mov    %eax,%edi
   13d1b:	e8 b3 36 ff ff       	callq  73d3 <safe_sub_func_int16_t_s_s>
   13d20:	0f bf d0             	movswl %ax,%edx
   13d23:	0f b7 85 7c f4 ff ff 	movzwl -0xb84(%rbp),%eax
   13d2a:	39 c2                	cmp    %eax,%edx
   13d2c:	0f 95 c0             	setne  %al
   13d2f:	0f b6 d0             	movzbl %al,%edx
   13d32:	8b 05 a8 94 00 00    	mov    0x94a8(%rip),%eax        # 1d1e0 <g_65>
   13d38:	39 c2                	cmp    %eax,%edx
   13d3a:	0f 9e c0             	setle  %al
   13d3d:	0f b6 d0             	movzbl %al,%edx
   13d40:	8b 85 08 f5 ff ff    	mov    -0xaf8(%rbp),%eax
   13d46:	39 c2                	cmp    %eax,%edx
   13d48:	48 8b 05 01 ab 00 00 	mov    0xab01(%rip),%rax        # 1e850 <g_87>
   13d4f:	48 8d 15 e2 bd 00 00 	lea    0xbde2(%rip),%rdx        # 1fb38 <g_88+0x38>
   13d56:	48 39 d0             	cmp    %rdx,%rax
   13d59:	0f 94 c0             	sete   %al
   13d5c:	89 c2                	mov    %eax,%edx
   13d5e:	48 8b 85 18 f6 ff ff 	mov    -0x9e8(%rbp),%rax
   13d65:	88 10                	mov    %dl,(%rax)
   13d67:	89 de                	mov    %ebx,%esi
   13d69:	bf ff ff 00 00       	mov    $0xffff,%edi
   13d6e:	e8 ca 3f ff ff       	callq  7d3d <safe_mul_func_uint16_t_u_u>
   13d73:	0f b6 95 89 f4 ff ff 	movzbl -0xb77(%rbp),%edx
   13d7a:	66 39 d0             	cmp    %dx,%ax
   13d7d:	0f 94 c0             	sete   %al
   13d80:	0f b6 d0             	movzbl %al,%edx
   13d83:	0f b7 85 7c f4 ff ff 	movzwl -0xb84(%rbp),%eax
   13d8a:	31 d0                	xor    %edx,%eax
   13d8c:	83 e0 fd             	and    $0xfffffffd,%eax
   13d8f:	98                   	cwtl   
   13d90:	89 c7                	mov    %eax,%edi
   13d92:	e8 06 36 ff ff       	callq  739d <safe_unary_minus_func_int16_t_s>
   13d97:	48 8b 85 20 f6 ff ff 	mov    -0x9e0(%rbp),%rax
   13d9e:	48 c7 00 00 00 00 00 	movq   $0x0,(%rax)
   13da5:	83 bd d8 f4 ff ff 00 	cmpl   $0x0,-0xb28(%rbp)
   13dac:	8b 85 08 f5 ff ff    	mov    -0xaf8(%rbp),%eax
   13db2:	83 e8 01             	sub    $0x1,%eax
   13db5:	89 85 08 f5 ff ff    	mov    %eax,-0xaf8(%rbp)
   13dbb:	8b 85 08 f5 ff ff    	mov    -0xaf8(%rbp),%eax
   13dc1:	85 c0                	test   %eax,%eax
   13dc3:	0f 89 cc fe ff ff    	jns    13c95 <func_60+0x7b8>
   13dc9:	48 8b 85 70 f4 ff ff 	mov    -0xb90(%rbp),%rax
   13dd0:	48 8b 00             	mov    (%rax),%rax
   13dd3:	48 85 c0             	test   %rax,%rax
   13dd6:	0f 84 55 01 00 00    	je     13f31 <func_60+0xa54>
   13ddc:	48 8d 05 65 aa 00 00 	lea    0xaa65(%rip),%rax        # 1e848 <g_39>
   13de3:	48 89 85 60 fc ff ff 	mov    %rax,-0x3a0(%rbp)
   13dea:	48 8d 05 57 aa 00 00 	lea    0xaa57(%rip),%rax        # 1e848 <g_39>
   13df1:	48 89 85 68 fc ff ff 	mov    %rax,-0x398(%rbp)
   13df8:	48 8d 05 49 aa 00 00 	lea    0xaa49(%rip),%rax        # 1e848 <g_39>
   13dff:	48 89 85 70 fc ff ff 	mov    %rax,-0x390(%rbp)
   13e06:	48 8d 05 3b aa 00 00 	lea    0xaa3b(%rip),%rax        # 1e848 <g_39>
   13e0d:	48 89 85 78 fc ff ff 	mov    %rax,-0x388(%rbp)
   13e14:	48 8d 05 2d aa 00 00 	lea    0xaa2d(%rip),%rax        # 1e848 <g_39>
   13e1b:	48 89 85 80 fc ff ff 	mov    %rax,-0x380(%rbp)
   13e22:	48 8d 05 1f aa 00 00 	lea    0xaa1f(%rip),%rax        # 1e848 <g_39>
   13e29:	48 89 85 88 fc ff ff 	mov    %rax,-0x378(%rbp)
   13e30:	48 8d 05 11 aa 00 00 	lea    0xaa11(%rip),%rax        # 1e848 <g_39>
   13e37:	48 89 85 90 fc ff ff 	mov    %rax,-0x370(%rbp)
   13e3e:	48 8d 05 03 aa 00 00 	lea    0xaa03(%rip),%rax        # 1e848 <g_39>
   13e45:	48 89 85 98 fc ff ff 	mov    %rax,-0x368(%rbp)
   13e4c:	48 8d 05 f5 a9 00 00 	lea    0xa9f5(%rip),%rax        # 1e848 <g_39>
   13e53:	48 89 85 a0 fc ff ff 	mov    %rax,-0x360(%rbp)
   13e5a:	48 8d 85 60 fc ff ff 	lea    -0x3a0(%rbp),%rax
   13e61:	48 83 c0 30          	add    $0x30,%rax
   13e65:	48 89 85 10 f6 ff ff 	mov    %rax,-0x9f0(%rbp)
   13e6c:	48 8b 85 10 f6 ff ff 	mov    -0x9f0(%rbp),%rax
   13e73:	48 8d 15 ce a9 00 00 	lea    0xa9ce(%rip),%rdx        # 1e848 <g_39>
   13e7a:	48 89 10             	mov    %rdx,(%rax)
   13e7d:	48 8b 85 68 f4 ff ff 	mov    -0xb98(%rbp),%rax
   13e84:	48 8b 00             	mov    (%rax),%rax
   13e87:	49 89 c6             	mov    %rax,%r14
   13e8a:	0f b7 85 7c f4 ff ff 	movzwl -0xb84(%rbp),%eax
   13e91:	0f bf d8             	movswl %ax,%ebx
   13e94:	48 8b 85 e0 f4 ff ff 	mov    -0xb20(%rbp),%rax
   13e9b:	48 85 c0             	test   %rax,%rax
   13e9e:	0f 94 c0             	sete   %al
   13ea1:	44 0f b6 e8          	movzbl %al,%r13d
   13ea5:	0f b7 95 7c f4 ff ff 	movzwl -0xb84(%rbp),%edx
   13eac:	48 8b 05 25 93 00 00 	mov    0x9325(%rip),%rax        # 1d1d8 <g_42>
   13eb3:	48 8d 70 01          	lea    0x1(%rax),%rsi
   13eb7:	48 63 ca             	movslq %edx,%rcx
   13eba:	48 89 c8             	mov    %rcx,%rax
   13ebd:	48 c1 e0 02          	shl    $0x2,%rax
   13ec1:	48 01 c8             	add    %rcx,%rax
   13ec4:	48 01 c0             	add    %rax,%rax
   13ec7:	48 01 f0             	add    %rsi,%rax
   13eca:	48 8d 0c 00          	lea    (%rax,%rax,1),%rcx
   13ece:	48 8d 05 6b 91 00 00 	lea    0x916b(%rip),%rax        # 1d040 <g_4>
   13ed5:	0f b7 04 01          	movzwl (%rcx,%rax,1),%eax
   13ed9:	8d 78 ff             	lea    -0x1(%rax),%edi
   13edc:	48 63 ca             	movslq %edx,%rcx
   13edf:	48 89 c8             	mov    %rcx,%rax
   13ee2:	48 c1 e0 02          	shl    $0x2,%rax
   13ee6:	48 01 c8             	add    %rcx,%rax
   13ee9:	48 01 c0             	add    %rax,%rax
   13eec:	48 01 f0             	add    %rsi,%rax
   13eef:	48 8d 0c 00          	lea    (%rax,%rax,1),%rcx
   13ef3:	48 8d 05 46 91 00 00 	lea    0x9146(%rip),%rax        # 1d040 <g_4>
   13efa:	66 89 3c 01          	mov    %di,(%rcx,%rax,1)
   13efe:	48 63 d2             	movslq %edx,%rdx
   13f01:	48 89 d0             	mov    %rdx,%rax
   13f04:	48 c1 e0 02          	shl    $0x2,%rax
   13f08:	48 01 d0             	add    %rdx,%rax
   13f0b:	48 01 c0             	add    %rax,%rax
   13f0e:	be 04 00 00 00       	mov    $0x4,%esi
   13f13:	bf fe 00 00 00       	mov    $0xfe,%edi
   13f18:	e8 5b 3c ff ff       	callq  7b78 <safe_sub_func_uint8_t_u_u>
   13f1d:	44 0f b6 e0          	movzbl %al,%r12d
   13f21:	0f b6 05 ac 92 00 00 	movzbl 0x92ac(%rip),%eax        # 1d1d4 <g_40>
   13f28:	83 e0 03             	and    $0x3,%eax
   13f2b:	84 c0                	test   %al,%al
   13f2d:	74 5b                	je     13f8a <func_60+0xaad>
   13f2f:	eb 3a                	jmp    13f6b <func_60+0xa8e>
   13f31:	83 bd d4 f4 ff ff 00 	cmpl   $0x0,-0xb2c(%rbp)
   13f38:	0f 85 38 01 00 00    	jne    14076 <func_60+0xb99>
   13f3e:	48 8b 85 e8 f5 ff ff 	mov    -0xa18(%rbp),%rax
   13f45:	8b 00                	mov    (%rax),%eax
   13f47:	85 c0                	test   %eax,%eax
   13f49:	0f 85 2a 01 00 00    	jne    14079 <func_60+0xb9c>
   13f4f:	0f b7 95 7c f4 ff ff 	movzwl -0xb84(%rbp),%edx
   13f56:	48 8b 85 e8 f5 ff ff 	mov    -0xa18(%rbp),%rax
   13f5d:	89 10                	mov    %edx,(%rax)
   13f5f:	48 8d 05 e2 a8 00 00 	lea    0xa8e2(%rip),%rax        # 1e848 <g_39>
   13f66:	e9 ee 26 00 00       	jmpq   16659 <func_60+0x317c>
   13f6b:	48 8b 85 68 f4 ff ff 	mov    -0xb98(%rbp),%rax
   13f72:	48 8b 00             	mov    (%rax),%rax
   13f75:	48 89 c7             	mov    %rax,%rdi
   13f78:	e8 9c 40 ff ff       	callq  8019 <safe_unary_minus_func_uint64_t_u>
   13f7d:	48 85 c0             	test   %rax,%rax
   13f80:	74 08                	je     13f8a <func_60+0xaad>
   13f82:	41 bf 01 00 00 00    	mov    $0x1,%r15d
   13f88:	eb 06                	jmp    13f90 <func_60+0xab3>
   13f8a:	41 bf 00 00 00 00    	mov    $0x0,%r15d
   13f90:	0f b7 85 7c f4 ff ff 	movzwl -0xb84(%rbp),%eax
   13f97:	98                   	cwtl   
   13f98:	be 03 00 00 00       	mov    $0x3,%esi
   13f9d:	89 c7                	mov    %eax,%edi
   13f9f:	e8 bf 35 ff ff       	callq  7563 <safe_rshift_func_int16_t_s_u>
   13fa4:	89 c1                	mov    %eax,%ecx
   13fa6:	48 8b 85 00 f6 ff ff 	mov    -0xa00(%rbp),%rax
   13fad:	0f b7 00             	movzwl (%rax),%eax
   13fb0:	44 89 fa             	mov    %r15d,%edx
   13fb3:	31 c2                	xor    %eax,%edx
   13fb5:	48 8b 85 00 f6 ff ff 	mov    -0xa00(%rbp),%rax
   13fbc:	66 89 10             	mov    %dx,(%rax)
   13fbf:	48 8b 85 00 f6 ff ff 	mov    -0xa00(%rbp),%rax
   13fc6:	0f b7 00             	movzwl (%rax),%eax
   13fc9:	31 c8                	xor    %ecx,%eax
   13fcb:	0f b6 c0             	movzbl %al,%eax
   13fce:	44 89 e6             	mov    %r12d,%esi
   13fd1:	89 c7                	mov    %eax,%edi
   13fd3:	e8 74 3c ff ff       	callq  7c4c <safe_lshift_func_uint8_t_u_u>
   13fd8:	0f b6 05 08 92 00 00 	movzbl 0x9208(%rip),%eax        # 1d1e7 <g_91+0x3>
   13fdf:	0f b6 c0             	movzbl %al,%eax
   13fe2:	be 01 00 00 00       	mov    $0x1,%esi
   13fe7:	89 c7                	mov    %eax,%edi
   13fe9:	e8 17 36 ff ff       	callq  7605 <safe_sub_func_int32_t_s_s>
   13fee:	48 98                	cltq   
   13ff0:	48 89 c7             	mov    %rax,%rdi
   13ff3:	e8 1e 38 ff ff       	callq  7816 <safe_unary_minus_func_int64_t_s>
   13ff8:	49 39 c5             	cmp    %rax,%r13
   13ffb:	0f 9d c0             	setge  %al
   13ffe:	0f b6 c0             	movzbl %al,%eax
   14001:	89 de                	mov    %ebx,%esi
   14003:	89 c7                	mov    %eax,%edi
   14005:	e8 eb 33 ff ff       	callq  73f5 <safe_mul_func_int16_t_s_s>
   1400a:	f7 d0                	not    %eax
   1400c:	48 0f bf d0          	movswq %ax,%rdx
   14010:	48 8b 85 68 f4 ff ff 	mov    -0xb98(%rbp),%rax
   14017:	48 8b 00             	mov    (%rax),%rax
   1401a:	48 39 c2             	cmp    %rax,%rdx
   1401d:	0f 93 c0             	setae  %al
   14020:	0f b6 d0             	movzbl %al,%edx
   14023:	48 8b 85 08 f6 ff ff 	mov    -0x9f8(%rbp),%rax
   1402a:	48 89 10             	mov    %rdx,(%rax)
   1402d:	48 8b 85 08 f6 ff ff 	mov    -0x9f8(%rbp),%rax
   14034:	48 8b 00             	mov    (%rax),%rax
   14037:	4c 89 f6             	mov    %r14,%rsi
   1403a:	48 89 c7             	mov    %rax,%rdi
   1403d:	e8 72 39 ff ff       	callq  79b4 <safe_mod_func_int64_t_s_s>
   14042:	48 8b 95 e8 f5 ff ff 	mov    -0xa18(%rbp),%rdx
   14049:	8b 12                	mov    (%rdx),%edx
   1404b:	31 c2                	xor    %eax,%edx
   1404d:	48 8b 85 e8 f5 ff ff 	mov    -0xa18(%rbp),%rax
   14054:	89 10                	mov    %edx,(%rax)
   14056:	8b 05 84 91 00 00    	mov    0x9184(%rip),%eax        # 1d1e0 <g_65>
   1405c:	83 c0 01             	add    $0x1,%eax
   1405f:	89 05 7b 91 00 00    	mov    %eax,0x917b(%rip)        # 1d1e0 <g_65>
   14065:	8b 05 75 91 00 00    	mov    0x9175(%rip),%eax        # 1d1e0 <g_65>
   1406b:	83 f8 08             	cmp    $0x8,%eax
   1406e:	0f 8e 9a fa ff ff    	jle    13b0e <func_60+0x631>
   14074:	eb 04                	jmp    1407a <func_60+0xb9d>
   14076:	90                   	nop
   14077:	eb 01                	jmp    1407a <func_60+0xb9d>
   14079:	90                   	nop
   1407a:	48 8b 85 e8 f4 ff ff 	mov    -0xb18(%rbp),%rax
   14081:	8b 00                	mov    (%rax),%eax
   14083:	0f be d8             	movsbl %al,%ebx
   14086:	8b 95 08 f8 ff ff    	mov    -0x7f8(%rbp),%edx
   1408c:	66 83 bd 7c f4 ff ff 	cmpw   $0x1,-0xb84(%rbp)
   14093:	01 
   14094:	0f 97 c0             	seta   %al
   14097:	0f b6 c0             	movzbl %al,%eax
   1409a:	39 c2                	cmp    %eax,%edx
   1409c:	75 64                	jne    14102 <func_60+0xc25>
   1409e:	0f b7 95 7c f4 ff ff 	movzwl -0xb84(%rbp),%edx
   140a5:	8b 8d 04 f7 ff ff    	mov    -0x8fc(%rbp),%ecx
   140ab:	8b 05 0f 91 00 00    	mov    0x910f(%rip),%eax        # 1d1c0 <g_11>
   140b1:	48 63 f0             	movslq %eax,%rsi
   140b4:	48 8b 05 1d 91 00 00 	mov    0x911d(%rip),%rax        # 1d1d8 <g_42>
   140bb:	48 39 c6             	cmp    %rax,%rsi
   140be:	0f 92 c0             	setb   %al
   140c1:	0f b6 c0             	movzbl %al,%eax
   140c4:	09 c1                	or     %eax,%ecx
   140c6:	0f b7 05 5b 91 00 00 	movzwl 0x915b(%rip),%eax        # 1d228 <g_125>
   140cd:	98                   	cwtl   
   140ce:	39 c1                	cmp    %eax,%ecx
   140d0:	0f 95 c0             	setne  %al
   140d3:	0f b6 c0             	movzbl %al,%eax
   140d6:	48 89 d6             	mov    %rdx,%rsi
   140d9:	48 89 c7             	mov    %rax,%rdi
   140dc:	e8 4d 3f ff ff       	callq  802e <safe_add_func_uint64_t_u_u>
   140e1:	8b 15 dd 90 00 00    	mov    0x90dd(%rip),%edx        # 1d1c4 <g_14>
   140e7:	48 63 d2             	movslq %edx,%rdx
   140ea:	48 39 d0             	cmp    %rdx,%rax
   140ed:	0f 94 c0             	sete   %al
   140f0:	0f b6 d0             	movzbl %al,%edx
   140f3:	48 8b 05 de 90 00 00 	mov    0x90de(%rip),%rax        # 1d1d8 <g_42>
   140fa:	48 21 d0             	and    %rdx,%rax
   140fd:	48 85 c0             	test   %rax,%rax
   14100:	74 07                	je     14109 <func_60+0xc2c>
   14102:	ba 01 00 00 00       	mov    $0x1,%edx
   14107:	eb 05                	jmp    1410e <func_60+0xc31>
   14109:	ba 00 00 00 00       	mov    $0x0,%edx
   1410e:	48 8b 85 e8 f4 ff ff 	mov    -0xb18(%rbp),%rax
   14115:	8b 00                	mov    (%rax),%eax
   14117:	39 c2                	cmp    %eax,%edx
   14119:	0f 9c c0             	setl   %al
   1411c:	0f b6 c0             	movzbl %al,%eax
   1411f:	be 02 00 00 00       	mov    $0x2,%esi
   14124:	89 c7                	mov    %eax,%edi
   14126:	e8 62 3b ff ff       	callq  7c8d <safe_rshift_func_uint8_t_u_s>
   1412b:	0f b6 c0             	movzbl %al,%eax
   1412e:	89 c7                	mov    %eax,%edi
   14130:	e8 10 3a ff ff       	callq  7b45 <safe_unary_minus_func_uint8_t_u>
   14135:	0f be c0             	movsbl %al,%eax
   14138:	89 de                	mov    %ebx,%esi
   1413a:	89 c7                	mov    %eax,%edi
   1413c:	e8 93 30 ff ff       	callq  71d4 <safe_add_func_int8_t_s_s>
   14141:	0f be f8             	movsbl %al,%edi
   14144:	48 8b 85 e8 f4 ff ff 	mov    -0xb18(%rbp),%rax
   1414b:	48 8d 95 f0 f7 ff ff 	lea    -0x810(%rbp),%rdx
   14152:	48 83 c2 18          	add    $0x18,%rdx
   14156:	48 39 d0             	cmp    %rdx,%rax
   14159:	0f 95 c0             	setne  %al
   1415c:	0f b7 95 7c f4 ff ff 	movzwl -0xb84(%rbp),%edx
   14163:	0f b7 8d 7c f4 ff ff 	movzwl -0xb84(%rbp),%ecx
   1416a:	44 0f b6 c0          	movzbl %al,%r8d
   1416e:	4c 63 c9             	movslq %ecx,%r9
   14171:	48 63 f2             	movslq %edx,%rsi
   14174:	48 89 f0             	mov    %rsi,%rax
   14177:	48 c1 e0 02          	shl    $0x2,%rax
   1417b:	48 01 f0             	add    %rsi,%rax
   1417e:	48 01 c0             	add    %rax,%rax
   14181:	4c 01 c8             	add    %r9,%rax
   14184:	48 8d 34 00          	lea    (%rax,%rax,1),%rsi
   14188:	48 8d 05 b1 8e 00 00 	lea    0x8eb1(%rip),%rax        # 1d040 <g_4>
   1418f:	66 44 89 04 06       	mov    %r8w,(%rsi,%rax,1)
   14194:	48 63 c9             	movslq %ecx,%rcx
   14197:	48 63 d2             	movslq %edx,%rdx
   1419a:	48 89 d0             	mov    %rdx,%rax
   1419d:	48 c1 e0 02          	shl    $0x2,%rax
   141a1:	48 01 d0             	add    %rdx,%rax
   141a4:	48 01 c0             	add    %rax,%rax
   141a7:	48 01 c8             	add    %rcx,%rax
   141aa:	48 8d 14 00          	lea    (%rax,%rax,1),%rdx
   141ae:	48 8d 05 8b 8e 00 00 	lea    0x8e8b(%rip),%rax        # 1d040 <g_4>
   141b5:	0f b7 04 02          	movzwl (%rdx,%rax,1),%eax
   141b9:	0f b7 c0             	movzwl %ax,%eax
   141bc:	89 fe                	mov    %edi,%esi
   141be:	89 c7                	mov    %eax,%edi
   141c0:	e8 b5 3c ff ff       	callq  7e7a <safe_rshift_func_uint16_t_u_u>
   141c5:	48 8b 05 64 90 00 00 	mov    0x9064(%rip),%rax        # 1d230 <g_129>
   141cc:	83 e0 11             	and    $0x11,%eax
   141cf:	48 89 c2             	mov    %rax,%rdx
   141d2:	48 8b 85 e0 f5 ff ff 	mov    -0xa20(%rbp),%rax
   141d9:	8b 00                	mov    (%rax),%eax
   141db:	31 c2                	xor    %eax,%edx
   141dd:	48 8b 85 e0 f5 ff ff 	mov    -0xa20(%rbp),%rax
   141e4:	89 10                	mov    %edx,(%rax)
   141e6:	48 8b 85 e0 f5 ff ff 	mov    -0xa20(%rbp),%rax
   141ed:	8b 18                	mov    (%rax),%ebx
   141ef:	be 00 00 00 00       	mov    $0x0,%esi
   141f4:	bf 01 00 00 00       	mov    $0x1,%edi
   141f9:	e8 8f 3a ff ff       	callq  7c8d <safe_rshift_func_uint8_t_u_s>
   141fe:	0f b6 c0             	movzbl %al,%eax
   14201:	39 c3                	cmp    %eax,%ebx
   14203:	0f 84 89 02 00 00    	je     14492 <func_60+0xfb5>
   14209:	48 c7 85 28 f6 ff ff 	movq   $0x0,-0x9d8(%rbp)
   14210:	00 00 00 00 
   14214:	c7 85 9c f4 ff ff 00 	movl   $0x0,-0xb64(%rbp)
   1421b:	00 00 00 
   1421e:	eb 1e                	jmp    1423e <func_60+0xd61>
   14220:	8b 85 9c f4 ff ff    	mov    -0xb64(%rbp),%eax
   14226:	48 98                	cltq   
   14228:	48 8d 95 e8 f4 ff ff 	lea    -0xb18(%rbp),%rdx
   1422f:	48 89 94 c5 a0 f7 ff 	mov    %rdx,-0x860(%rbp,%rax,8)
   14236:	ff 
   14237:	83 85 9c f4 ff ff 01 	addl   $0x1,-0xb64(%rbp)
   1423e:	83 bd 9c f4 ff ff 02 	cmpl   $0x2,-0xb64(%rbp)
   14245:	7e d9                	jle    14220 <func_60+0xd43>
   14247:	48 8d 85 f0 f7 ff ff 	lea    -0x810(%rbp),%rax
   1424e:	48 83 c0 14          	add    $0x14,%rax
   14252:	48 89 85 e0 f5 ff ff 	mov    %rax,-0xa20(%rbp)
   14259:	8b 85 04 f7 ff ff    	mov    -0x8fc(%rbp),%eax
   1425f:	89 c2                	mov    %eax,%edx
   14261:	48 8b 85 68 f4 ff ff 	mov    -0xb98(%rbp),%rax
   14268:	48 8b 00             	mov    (%rax),%rax
   1426b:	48 89 d6             	mov    %rdx,%rsi
   1426e:	48 89 c7             	mov    %rax,%rdi
   14271:	e8 39 3e ff ff       	callq  80af <safe_div_func_uint64_t_u_u>
   14276:	48 85 c0             	test   %rax,%rax
   14279:	0f 84 d5 01 00 00    	je     14454 <func_60+0xf77>
   1427f:	c7 85 dc f4 ff ff fc 	movl   $0xfffffffc,-0xb24(%rbp)
   14286:	ff ff ff 
   14289:	0f b7 05 fc 8d 00 00 	movzwl 0x8dfc(%rip),%eax        # 1d08c <g_4+0x4c>
   14290:	66 83 f8 01          	cmp    $0x1,%ax
   14294:	0f 96 c0             	setbe  %al
   14297:	0f b6 c0             	movzbl %al,%eax
   1429a:	48 89 c6             	mov    %rax,%rsi
   1429d:	48 bf d6 90 69 1c 03 	movabs $0xc7d6a2031c6990d6,%rdi
   142a4:	a2 d6 c7 
   142a7:	e8 9f 3d ff ff       	callq  804b <safe_sub_func_uint64_t_u_u>
   142ac:	48 83 f8 02          	cmp    $0x2,%rax
   142b0:	0f 94 c0             	sete   %al
   142b3:	0f b6 c0             	movzbl %al,%eax
   142b6:	89 85 08 f8 ff ff    	mov    %eax,-0x7f8(%rbp)
   142bc:	c6 85 89 f4 ff ff f9 	movb   $0xf9,-0xb77(%rbp)
   142c3:	e9 7d 01 00 00       	jmpq   14445 <func_60+0xf68>
   142c8:	48 c7 85 30 f6 ff ff 	movq   $0x0,-0x9d0(%rbp)
   142cf:	00 00 00 00 
   142d3:	48 8d 05 0c 8f 00 00 	lea    0x8f0c(%rip),%rax        # 1d1e6 <g_91+0x2>
   142da:	48 89 85 38 f6 ff ff 	mov    %rax,-0x9c8(%rbp)
   142e1:	48 8d 05 50 8f 00 00 	lea    0x8f50(%rip),%rax        # 1d238 <g_163>
   142e8:	48 89 85 d0 f8 ff ff 	mov    %rax,-0x730(%rbp)
   142ef:	48 8d 05 42 8f 00 00 	lea    0x8f42(%rip),%rax        # 1d238 <g_163>
   142f6:	48 89 85 d8 f8 ff ff 	mov    %rax,-0x728(%rbp)
   142fd:	48 8d 05 34 8f 00 00 	lea    0x8f34(%rip),%rax        # 1d238 <g_163>
   14304:	48 89 85 e0 f8 ff ff 	mov    %rax,-0x720(%rbp)
   1430b:	48 8d 05 26 8f 00 00 	lea    0x8f26(%rip),%rax        # 1d238 <g_163>
   14312:	48 89 85 e8 f8 ff ff 	mov    %rax,-0x718(%rbp)
   14319:	48 8d 05 b8 8e 00 00 	lea    0x8eb8(%rip),%rax        # 1d1d8 <g_42>
   14320:	48 89 85 20 f5 ff ff 	mov    %rax,-0xae0(%rbp)
   14327:	48 8d 85 20 f5 ff ff 	lea    -0xae0(%rbp),%rax
   1432e:	48 89 85 40 f6 ff ff 	mov    %rax,-0x9c0(%rbp)
   14335:	c7 85 60 fc ff ff dc 	movl   $0x718655dc,-0x3a0(%rbp)
   1433c:	55 86 71 
   1433f:	c7 85 64 fc ff ff 00 	movl   $0x0,-0x39c(%rbp)
   14346:	00 00 00 
   14349:	c7 85 68 fc ff ff f7 	movl   $0xfffffff7,-0x398(%rbp)
   14350:	ff ff ff 
   14353:	c7 85 6c fc ff ff f7 	movl   $0xfffffff7,-0x394(%rbp)
   1435a:	ff ff ff 
   1435d:	c7 85 70 fc ff ff 00 	movl   $0x0,-0x390(%rbp)
   14364:	00 00 00 
   14367:	c7 85 74 fc ff ff dc 	movl   $0x718655dc,-0x38c(%rbp)
   1436e:	55 86 71 
   14371:	c7 85 78 fc ff ff 00 	movl   $0x0,-0x388(%rbp)
   14378:	00 00 00 
   1437b:	c7 85 7c fc ff ff f7 	movl   $0xfffffff7,-0x384(%rbp)
   14382:	ff ff ff 
   14385:	c7 85 80 fc ff ff f7 	movl   $0xfffffff7,-0x380(%rbp)
   1438c:	ff ff ff 
   1438f:	c7 85 84 fc ff ff 00 	movl   $0x0,-0x37c(%rbp)
   14396:	00 00 00 
   14399:	0f b7 05 88 8e 00 00 	movzwl 0x8e88(%rip),%eax        # 1d228 <g_125>
   143a0:	0f bf d8             	movswl %ax,%ebx
   143a3:	8b 05 1b 8e 00 00    	mov    0x8e1b(%rip),%eax        # 1d1c4 <g_14>
   143a9:	88 05 89 8e 00 00    	mov    %al,0x8e89(%rip)        # 1d238 <g_163>
   143af:	be 03 00 00 00       	mov    $0x3,%esi
   143b4:	bf 93 00 00 00       	mov    $0x93,%edi
   143b9:	e8 00 39 ff ff       	callq  7cbe <safe_rshift_func_uint8_t_u_u>
   143be:	48 8b 05 13 8e 00 00 	mov    0x8e13(%rip),%rax        # 1d1d8 <g_42>
   143c5:	98                   	cwtl   
   143c6:	48 8b 95 40 f6 ff ff 	mov    -0x9c0(%rbp),%rdx
   143cd:	48 8d 0d 04 8e 00 00 	lea    0x8e04(%rip),%rcx        # 1d1d8 <g_42>
   143d4:	48 89 0a             	mov    %rcx,(%rdx)
   143d7:	89 c6                	mov    %eax,%esi
   143d9:	bf 01 00 00 00       	mov    $0x1,%edi
   143de:	e8 72 30 ff ff       	callq  7455 <safe_div_func_int16_t_s_s>
   143e3:	44 0f b6 e0          	movzbl %al,%r12d
   143e7:	48 8b 85 38 f6 ff ff 	mov    -0x9c8(%rbp),%rax
   143ee:	c6 00 d1             	movb   $0xd1,(%rax)
   143f1:	0f b7 05 5a 8c 00 00 	movzwl 0x8c5a(%rip),%eax        # 1d052 <g_4+0x12>
   143f8:	0f be c0             	movsbl %al,%eax
   143fb:	be d1 ff ff ff       	mov    $0xffffffd1,%esi
   14400:	89 c7                	mov    %eax,%edi
   14402:	e8 cd 2d ff ff       	callq  71d4 <safe_add_func_int8_t_s_s>
   14407:	0f b6 c0             	movzbl %al,%eax
   1440a:	44 89 e6             	mov    %r12d,%esi
   1440d:	89 c7                	mov    %eax,%edi
   1440f:	e8 7f 37 ff ff       	callq  7b93 <safe_mul_func_uint8_t_u_u>
   14414:	0f b6 c0             	movzbl %al,%eax
   14417:	89 de                	mov    %ebx,%esi
   14419:	89 c7                	mov    %eax,%edi
   1441b:	e8 ac 32 ff ff       	callq  76cc <safe_mod_func_int32_t_s_s>
   14420:	8b 95 80 fc ff ff    	mov    -0x380(%rbp),%edx
   14426:	21 d0                	and    %edx,%eax
   14428:	89 85 80 fc ff ff    	mov    %eax,-0x380(%rbp)
   1442e:	83 bd dc f4 ff ff 00 	cmpl   $0x0,-0xb24(%rbp)
   14435:	0f b6 85 89 f4 ff ff 	movzbl -0xb77(%rbp),%eax
   1443c:	83 c0 01             	add    $0x1,%eax
   1443f:	88 85 89 f4 ff ff    	mov    %al,-0xb77(%rbp)
   14445:	80 bd 89 f4 ff ff 08 	cmpb   $0x8,-0xb77(%rbp)
   1444c:	0f 85 76 fe ff ff    	jne    142c8 <func_60+0xdeb>
   14452:	eb 28                	jmp    1447c <func_60+0xf9f>
   14454:	48 8b 85 e8 f4 ff ff 	mov    -0xb18(%rbp),%rax
   1445b:	8b 08                	mov    (%rax),%ecx
   1445d:	0f b7 95 7c f4 ff ff 	movzwl -0xb84(%rbp),%edx
   14464:	48 8b 85 e8 f4 ff ff 	mov    -0xb18(%rbp),%rax
   1446b:	21 ca                	and    %ecx,%edx
   1446d:	89 10                	mov    %edx,(%rax)
   1446f:	48 8b 85 e0 f5 ff ff 	mov    -0xa20(%rbp),%rax
   14476:	c7 00 23 1f 25 f1    	movl   $0xf1251f23,(%rax)
   1447c:	8b 05 5e 8d 00 00    	mov    0x8d5e(%rip),%eax        # 1d1e0 <g_65>
   14482:	85 c0                	test   %eax,%eax
   14484:	75 16                	jne    1449c <func_60+0xfbf>
   14486:	48 8b 85 30 f7 ff ff 	mov    -0x8d0(%rbp),%rax
   1448d:	e9 c7 21 00 00       	jmpq   16659 <func_60+0x317c>
   14492:	66 83 bd 7c f4 ff ff 	cmpw   $0x0,-0xb84(%rbp)
   14499:	00 
   1449a:	75 18                	jne    144b4 <func_60+0xfd7>
   1449c:	66 83 85 7c f4 ff ff 	addw   $0x1,-0xb84(%rbp)
   144a3:	01 
   144a4:	66 83 bd 7c f4 ff ff 	cmpw   $0x8,-0xb84(%rbp)
   144ab:	08 
   144ac:	0f 86 35 f6 ff ff    	jbe    13ae7 <func_60+0x60a>
   144b2:	eb 01                	jmp    144b5 <func_60+0xfd8>
   144b4:	90                   	nop
   144b5:	48 8b 05 1c 8d 00 00 	mov    0x8d1c(%rip),%rax        # 1d1d8 <g_42>
   144bc:	48 83 c0 01          	add    $0x1,%rax
   144c0:	48 89 05 11 8d 00 00 	mov    %rax,0x8d11(%rip)        # 1d1d8 <g_42>
   144c7:	48 8b 05 0a 8d 00 00 	mov    0x8d0a(%rip),%rax        # 1d1d8 <g_42>
   144ce:	48 83 f8 08          	cmp    $0x8,%rax
   144d2:	0f 86 22 f5 ff ff    	jbe    139fa <func_60+0x51d>
   144d8:	66 83 bd 7c f4 ff ff 	cmpw   $0x0,-0xb84(%rbp)
   144df:	00 
   144e0:	0f 84 7d 0c 00 00    	je     15163 <func_60+0x1c86>
   144e6:	48 b8 6b f2 d4 0e 7a 	movabs $0x95d4eb7a0ed4f26b,%rax
   144ed:	eb d4 95 
   144f0:	48 89 85 a0 f7 ff ff 	mov    %rax,-0x860(%rbp)
   144f7:	48 89 85 a8 f7 ff ff 	mov    %rax,-0x858(%rbp)
   144fe:	48 bb 26 42 de 68 7a 	movabs $0xd4b6e07a68de4226,%rbx
   14505:	e0 b6 d4 
   14508:	48 89 9d b0 f7 ff ff 	mov    %rbx,-0x850(%rbp)
   1450f:	48 89 85 b8 f7 ff ff 	mov    %rax,-0x848(%rbp)
   14516:	48 89 85 c0 f7 ff ff 	mov    %rax,-0x840(%rbp)
   1451d:	48 89 9d c8 f7 ff ff 	mov    %rbx,-0x838(%rbp)
   14524:	48 89 85 d0 f7 ff ff 	mov    %rax,-0x830(%rbp)
   1452b:	48 89 85 d8 f7 ff ff 	mov    %rax,-0x828(%rbp)
   14532:	48 89 9d e0 f7 ff ff 	mov    %rbx,-0x820(%rbp)
   14539:	48 89 85 e8 f7 ff ff 	mov    %rax,-0x818(%rbp)
   14540:	48 c7 85 b8 f5 ff ff 	movq   $0x0,-0xa48(%rbp)
   14547:	00 00 00 00 
   1454b:	48 8d 05 ea 8c 00 00 	lea    0x8cea(%rip),%rax        # 1d23c <g_215>
   14552:	48 89 85 f0 f7 ff ff 	mov    %rax,-0x810(%rbp)
   14559:	48 8d 05 dc 8c 00 00 	lea    0x8cdc(%rip),%rax        # 1d23c <g_215>
   14560:	48 89 85 f8 f7 ff ff 	mov    %rax,-0x808(%rbp)
   14567:	48 8d 05 ce 8c 00 00 	lea    0x8cce(%rip),%rax        # 1d23c <g_215>
   1456e:	48 89 85 00 f8 ff ff 	mov    %rax,-0x800(%rbp)
   14575:	48 8d 05 c0 8c 00 00 	lea    0x8cc0(%rip),%rax        # 1d23c <g_215>
   1457c:	48 89 85 08 f8 ff ff 	mov    %rax,-0x7f8(%rbp)
   14583:	48 8d 05 b2 8c 00 00 	lea    0x8cb2(%rip),%rax        # 1d23c <g_215>
   1458a:	48 89 85 10 f8 ff ff 	mov    %rax,-0x7f0(%rbp)
   14591:	48 8d 05 a4 8c 00 00 	lea    0x8ca4(%rip),%rax        # 1d23c <g_215>
   14598:	48 89 85 18 f8 ff ff 	mov    %rax,-0x7e8(%rbp)
   1459f:	48 8d 05 96 8c 00 00 	lea    0x8c96(%rip),%rax        # 1d23c <g_215>
   145a6:	48 89 85 20 f8 ff ff 	mov    %rax,-0x7e0(%rbp)
   145ad:	48 8d 05 88 8c 00 00 	lea    0x8c88(%rip),%rax        # 1d23c <g_215>
   145b4:	48 89 85 28 f8 ff ff 	mov    %rax,-0x7d8(%rbp)
   145bb:	48 8d 05 7a 8c 00 00 	lea    0x8c7a(%rip),%rax        # 1d23c <g_215>
   145c2:	48 89 85 30 f8 ff ff 	mov    %rax,-0x7d0(%rbp)
   145c9:	48 8d 05 6c 8c 00 00 	lea    0x8c6c(%rip),%rax        # 1d23c <g_215>
   145d0:	48 89 85 38 f8 ff ff 	mov    %rax,-0x7c8(%rbp)
   145d7:	48 8d 05 5e 8c 00 00 	lea    0x8c5e(%rip),%rax        # 1d23c <g_215>
   145de:	48 89 85 40 f8 ff ff 	mov    %rax,-0x7c0(%rbp)
   145e5:	48 8d 05 50 8c 00 00 	lea    0x8c50(%rip),%rax        # 1d23c <g_215>
   145ec:	48 89 85 48 f8 ff ff 	mov    %rax,-0x7b8(%rbp)
   145f3:	48 8d 05 42 8c 00 00 	lea    0x8c42(%rip),%rax        # 1d23c <g_215>
   145fa:	48 89 85 50 f8 ff ff 	mov    %rax,-0x7b0(%rbp)
   14601:	48 8d 05 34 8c 00 00 	lea    0x8c34(%rip),%rax        # 1d23c <g_215>
   14608:	48 89 85 58 f8 ff ff 	mov    %rax,-0x7a8(%rbp)
   1460f:	48 8d 05 26 8c 00 00 	lea    0x8c26(%rip),%rax        # 1d23c <g_215>
   14616:	48 89 85 60 f8 ff ff 	mov    %rax,-0x7a0(%rbp)
   1461d:	48 8d 05 18 8c 00 00 	lea    0x8c18(%rip),%rax        # 1d23c <g_215>
   14624:	48 89 85 68 f8 ff ff 	mov    %rax,-0x798(%rbp)
   1462b:	48 8d 05 0a 8c 00 00 	lea    0x8c0a(%rip),%rax        # 1d23c <g_215>
   14632:	48 89 85 70 f8 ff ff 	mov    %rax,-0x790(%rbp)
   14639:	48 8d 05 fc 8b 00 00 	lea    0x8bfc(%rip),%rax        # 1d23c <g_215>
   14640:	48 89 85 78 f8 ff ff 	mov    %rax,-0x788(%rbp)
   14647:	48 8d 05 ee 8b 00 00 	lea    0x8bee(%rip),%rax        # 1d23c <g_215>
   1464e:	48 89 85 80 f8 ff ff 	mov    %rax,-0x780(%rbp)
   14655:	48 8d 05 e0 8b 00 00 	lea    0x8be0(%rip),%rax        # 1d23c <g_215>
   1465c:	48 89 85 88 f8 ff ff 	mov    %rax,-0x778(%rbp)
   14663:	48 8d 05 d2 8b 00 00 	lea    0x8bd2(%rip),%rax        # 1d23c <g_215>
   1466a:	48 89 85 90 f8 ff ff 	mov    %rax,-0x770(%rbp)
   14671:	48 8d 05 c4 8b 00 00 	lea    0x8bc4(%rip),%rax        # 1d23c <g_215>
   14678:	48 89 85 98 f8 ff ff 	mov    %rax,-0x768(%rbp)
   1467f:	48 8d 05 b6 8b 00 00 	lea    0x8bb6(%rip),%rax        # 1d23c <g_215>
   14686:	48 89 85 a0 f8 ff ff 	mov    %rax,-0x760(%rbp)
   1468d:	48 8d 05 a8 8b 00 00 	lea    0x8ba8(%rip),%rax        # 1d23c <g_215>
   14694:	48 89 85 a8 f8 ff ff 	mov    %rax,-0x758(%rbp)
   1469b:	48 8d 05 fe a1 00 00 	lea    0xa1fe(%rip),%rax        # 1e8a0 <g_217+0x40>
   146a2:	48 89 85 c0 f5 ff ff 	mov    %rax,-0xa40(%rbp)
   146a9:	48 8d 05 98 a1 00 00 	lea    0xa198(%rip),%rax        # 1e848 <g_39>
   146b0:	48 89 85 18 f5 ff ff 	mov    %rax,-0xae8(%rbp)
   146b7:	48 8d 85 18 f5 ff ff 	lea    -0xae8(%rbp),%rax
   146be:	48 89 85 20 f5 ff ff 	mov    %rax,-0xae0(%rbp)
   146c5:	48 8d 85 20 f5 ff ff 	lea    -0xae0(%rbp),%rax
   146cc:	48 89 85 d0 f8 ff ff 	mov    %rax,-0x730(%rbp)
   146d3:	48 8d 85 20 f5 ff ff 	lea    -0xae0(%rbp),%rax
   146da:	48 89 85 d8 f8 ff ff 	mov    %rax,-0x728(%rbp)
   146e1:	48 c7 85 e0 f8 ff ff 	movq   $0x0,-0x720(%rbp)
   146e8:	00 00 00 00 
   146ec:	48 8d 85 20 f5 ff ff 	lea    -0xae0(%rbp),%rax
   146f3:	48 89 85 e8 f8 ff ff 	mov    %rax,-0x718(%rbp)
   146fa:	48 8d 85 20 f5 ff ff 	lea    -0xae0(%rbp),%rax
   14701:	48 89 85 f0 f8 ff ff 	mov    %rax,-0x710(%rbp)
   14708:	48 8d 85 20 f5 ff ff 	lea    -0xae0(%rbp),%rax
   1470f:	48 89 85 f8 f8 ff ff 	mov    %rax,-0x708(%rbp)
   14716:	48 8d 85 20 f5 ff ff 	lea    -0xae0(%rbp),%rax
   1471d:	48 89 85 00 f9 ff ff 	mov    %rax,-0x700(%rbp)
   14724:	48 8d 85 20 f5 ff ff 	lea    -0xae0(%rbp),%rax
   1472b:	48 89 85 08 f9 ff ff 	mov    %rax,-0x6f8(%rbp)
   14732:	48 c7 85 10 f9 ff ff 	movq   $0x0,-0x6f0(%rbp)
   14739:	00 00 00 00 
   1473d:	48 8d 85 20 f5 ff ff 	lea    -0xae0(%rbp),%rax
   14744:	48 89 85 18 f9 ff ff 	mov    %rax,-0x6e8(%rbp)
   1474b:	48 8d 85 20 f5 ff ff 	lea    -0xae0(%rbp),%rax
   14752:	48 89 85 20 f9 ff ff 	mov    %rax,-0x6e0(%rbp)
   14759:	48 c7 85 28 f9 ff ff 	movq   $0x0,-0x6d8(%rbp)
   14760:	00 00 00 00 
   14764:	48 8d 85 20 f5 ff ff 	lea    -0xae0(%rbp),%rax
   1476b:	48 89 85 30 f9 ff ff 	mov    %rax,-0x6d0(%rbp)
   14772:	48 8d 85 20 f5 ff ff 	lea    -0xae0(%rbp),%rax
   14779:	48 89 85 38 f9 ff ff 	mov    %rax,-0x6c8(%rbp)
   14780:	48 c7 85 40 f9 ff ff 	movq   $0x0,-0x6c0(%rbp)
   14787:	00 00 00 00 
   1478b:	48 c7 85 48 f9 ff ff 	movq   $0x0,-0x6b8(%rbp)
   14792:	00 00 00 00 
   14796:	48 c7 85 50 f9 ff ff 	movq   $0x0,-0x6b0(%rbp)
   1479d:	00 00 00 00 
   147a1:	48 8d 85 20 f5 ff ff 	lea    -0xae0(%rbp),%rax
   147a8:	48 89 85 58 f9 ff ff 	mov    %rax,-0x6a8(%rbp)
   147af:	48 8d 85 20 f5 ff ff 	lea    -0xae0(%rbp),%rax
   147b6:	48 89 85 60 f9 ff ff 	mov    %rax,-0x6a0(%rbp)
   147bd:	48 c7 85 68 f9 ff ff 	movq   $0x0,-0x698(%rbp)
   147c4:	00 00 00 00 
   147c8:	48 8d 85 20 f5 ff ff 	lea    -0xae0(%rbp),%rax
   147cf:	48 89 85 70 f9 ff ff 	mov    %rax,-0x690(%rbp)
   147d6:	48 c7 85 78 f9 ff ff 	movq   $0x0,-0x688(%rbp)
   147dd:	00 00 00 00 
   147e1:	48 8d 85 20 f5 ff ff 	lea    -0xae0(%rbp),%rax
   147e8:	48 89 85 80 f9 ff ff 	mov    %rax,-0x680(%rbp)
   147ef:	48 c7 85 88 f9 ff ff 	movq   $0x0,-0x678(%rbp)
   147f6:	00 00 00 00 
   147fa:	48 8d 85 20 f5 ff ff 	lea    -0xae0(%rbp),%rax
   14801:	48 89 85 90 f9 ff ff 	mov    %rax,-0x670(%rbp)
   14808:	48 c7 85 98 f9 ff ff 	movq   $0x0,-0x668(%rbp)
   1480f:	00 00 00 00 
   14813:	48 8d 85 20 f5 ff ff 	lea    -0xae0(%rbp),%rax
   1481a:	48 89 85 a0 f9 ff ff 	mov    %rax,-0x660(%rbp)
   14821:	48 8d 85 20 f5 ff ff 	lea    -0xae0(%rbp),%rax
   14828:	48 89 85 a8 f9 ff ff 	mov    %rax,-0x658(%rbp)
   1482f:	48 c7 85 b0 f9 ff ff 	movq   $0x0,-0x650(%rbp)
   14836:	00 00 00 00 
   1483a:	48 c7 85 b8 f9 ff ff 	movq   $0x0,-0x648(%rbp)
   14841:	00 00 00 00 
   14845:	48 c7 85 c0 f9 ff ff 	movq   $0x0,-0x640(%rbp)
   1484c:	00 00 00 00 
   14850:	48 8d 85 20 f5 ff ff 	lea    -0xae0(%rbp),%rax
   14857:	48 89 85 c8 f9 ff ff 	mov    %rax,-0x638(%rbp)
   1485e:	48 8d 85 20 f5 ff ff 	lea    -0xae0(%rbp),%rax
   14865:	48 89 85 d0 f9 ff ff 	mov    %rax,-0x630(%rbp)
   1486c:	48 c7 85 d8 f9 ff ff 	movq   $0x0,-0x628(%rbp)
   14873:	00 00 00 00 
   14877:	48 8d 85 20 f5 ff ff 	lea    -0xae0(%rbp),%rax
   1487e:	48 89 85 e0 f9 ff ff 	mov    %rax,-0x620(%rbp)
   14885:	48 8d 85 20 f5 ff ff 	lea    -0xae0(%rbp),%rax
   1488c:	48 89 85 e8 f9 ff ff 	mov    %rax,-0x618(%rbp)
   14893:	48 c7 85 f0 f9 ff ff 	movq   $0x0,-0x610(%rbp)
   1489a:	00 00 00 00 
   1489e:	48 8d 85 20 f5 ff ff 	lea    -0xae0(%rbp),%rax
   148a5:	48 89 85 f8 f9 ff ff 	mov    %rax,-0x608(%rbp)
   148ac:	48 8d 85 20 f5 ff ff 	lea    -0xae0(%rbp),%rax
   148b3:	48 89 85 00 fa ff ff 	mov    %rax,-0x600(%rbp)
   148ba:	48 8d 85 20 f5 ff ff 	lea    -0xae0(%rbp),%rax
   148c1:	48 89 85 08 fa ff ff 	mov    %rax,-0x5f8(%rbp)
   148c8:	48 8d 85 20 f5 ff ff 	lea    -0xae0(%rbp),%rax
   148cf:	48 89 85 10 fa ff ff 	mov    %rax,-0x5f0(%rbp)
   148d6:	48 8d 85 20 f5 ff ff 	lea    -0xae0(%rbp),%rax
   148dd:	48 89 85 18 fa ff ff 	mov    %rax,-0x5e8(%rbp)
   148e4:	48 c7 85 20 fa ff ff 	movq   $0x0,-0x5e0(%rbp)
   148eb:	00 00 00 00 
   148ef:	48 8d 85 20 f5 ff ff 	lea    -0xae0(%rbp),%rax
   148f6:	48 89 85 28 fa ff ff 	mov    %rax,-0x5d8(%rbp)
   148fd:	48 8d 85 20 f5 ff ff 	lea    -0xae0(%rbp),%rax
   14904:	48 89 85 30 fa ff ff 	mov    %rax,-0x5d0(%rbp)
   1490b:	48 c7 85 38 fa ff ff 	movq   $0x0,-0x5c8(%rbp)
   14912:	00 00 00 00 
   14916:	48 8d 85 20 f5 ff ff 	lea    -0xae0(%rbp),%rax
   1491d:	48 89 85 40 fa ff ff 	mov    %rax,-0x5c0(%rbp)
   14924:	48 8d 85 20 f5 ff ff 	lea    -0xae0(%rbp),%rax
   1492b:	48 89 85 48 fa ff ff 	mov    %rax,-0x5b8(%rbp)
   14932:	48 c7 85 c8 f5 ff ff 	movq   $0x0,-0xa38(%rbp)
   14939:	00 00 00 00 
   1493d:	48 c7 85 d0 f5 ff ff 	movq   $0x0,-0xa30(%rbp)
   14944:	00 00 00 00 
   14948:	c7 85 a0 f4 ff ff 00 	movl   $0x0,-0xb60(%rbp)
   1494f:	00 00 00 
   14952:	eb 25                	jmp    14979 <func_60+0x149c>
   14954:	8b 85 a0 f4 ff ff    	mov    -0xb60(%rbp),%eax
   1495a:	48 98                	cltq   
   1495c:	48 8d 95 d0 f8 ff ff 	lea    -0x730(%rbp),%rdx
   14963:	48 81 c2 90 00 00 00 	add    $0x90,%rdx
   1496a:	48 89 94 c5 30 f7 ff 	mov    %rdx,-0x8d0(%rbp,%rax,8)
   14971:	ff 
   14972:	83 85 a0 f4 ff ff 01 	addl   $0x1,-0xb60(%rbp)
   14979:	83 bd a0 f4 ff ff 02 	cmpl   $0x2,-0xb60(%rbp)
   14980:	7e d2                	jle    14954 <func_60+0x1477>
   14982:	c6 05 af 88 00 00 00 	movb   $0x0,0x88af(%rip)        # 1d238 <g_163>
   14989:	e9 b5 06 00 00       	jmpq   15043 <func_60+0x1b66>
   1498e:	66 c7 85 92 f4 ff ff 	movw   $0x516e,-0xb6e(%rbp)
   14995:	6e 51 
   14997:	c7 85 d0 f4 ff ff a3 	movl   $0xece53ca3,-0xb30(%rbp)
   1499e:	3c e5 ec 
   149a1:	48 c7 85 60 fc ff ff 	movq   $0x0,-0x3a0(%rbp)
   149a8:	00 00 00 00 
   149ac:	48 8d 85 e0 f4 ff ff 	lea    -0xb20(%rbp),%rax
   149b3:	48 89 85 68 fc ff ff 	mov    %rax,-0x398(%rbp)
   149ba:	48 8d 85 e0 f4 ff ff 	lea    -0xb20(%rbp),%rax
   149c1:	48 89 85 70 fc ff ff 	mov    %rax,-0x390(%rbp)
   149c8:	48 c7 85 78 fc ff ff 	movq   $0x0,-0x388(%rbp)
   149cf:	00 00 00 00 
   149d3:	48 8d 85 e0 f4 ff ff 	lea    -0xb20(%rbp),%rax
   149da:	48 89 85 80 fc ff ff 	mov    %rax,-0x380(%rbp)
   149e1:	48 8d 85 e0 f4 ff ff 	lea    -0xb20(%rbp),%rax
   149e8:	48 89 85 88 fc ff ff 	mov    %rax,-0x378(%rbp)
   149ef:	48 8d 85 e0 f4 ff ff 	lea    -0xb20(%rbp),%rax
   149f6:	48 89 85 90 fc ff ff 	mov    %rax,-0x370(%rbp)
   149fd:	48 8d 85 e0 f4 ff ff 	lea    -0xb20(%rbp),%rax
   14a04:	48 89 85 98 fc ff ff 	mov    %rax,-0x368(%rbp)
   14a0b:	48 c7 85 a0 fc ff ff 	movq   $0x0,-0x360(%rbp)
   14a12:	00 00 00 00 
   14a16:	48 8d 85 e0 f4 ff ff 	lea    -0xb20(%rbp),%rax
   14a1d:	48 89 85 a8 fc ff ff 	mov    %rax,-0x358(%rbp)
   14a24:	48 8d 85 e0 f4 ff ff 	lea    -0xb20(%rbp),%rax
   14a2b:	48 89 85 b0 fc ff ff 	mov    %rax,-0x350(%rbp)
   14a32:	48 8d 85 e0 f4 ff ff 	lea    -0xb20(%rbp),%rax
   14a39:	48 89 85 b8 fc ff ff 	mov    %rax,-0x348(%rbp)
   14a40:	48 c7 85 c0 fc ff ff 	movq   $0x0,-0x340(%rbp)
   14a47:	00 00 00 00 
   14a4b:	48 c7 85 c8 fc ff ff 	movq   $0x0,-0x338(%rbp)
   14a52:	00 00 00 00 
   14a56:	48 8d 85 e0 f4 ff ff 	lea    -0xb20(%rbp),%rax
   14a5d:	48 89 85 d0 fc ff ff 	mov    %rax,-0x330(%rbp)
   14a64:	48 c7 85 d8 fc ff ff 	movq   $0x0,-0x328(%rbp)
   14a6b:	00 00 00 00 
   14a6f:	48 8d 85 e0 f4 ff ff 	lea    -0xb20(%rbp),%rax
   14a76:	48 89 85 e0 fc ff ff 	mov    %rax,-0x320(%rbp)
   14a7d:	48 8d 85 e0 f4 ff ff 	lea    -0xb20(%rbp),%rax
   14a84:	48 89 85 e8 fc ff ff 	mov    %rax,-0x318(%rbp)
   14a8b:	48 8d 85 e0 f4 ff ff 	lea    -0xb20(%rbp),%rax
   14a92:	48 89 85 f0 fc ff ff 	mov    %rax,-0x310(%rbp)
   14a99:	48 8d 85 e0 f4 ff ff 	lea    -0xb20(%rbp),%rax
   14aa0:	48 89 85 f8 fc ff ff 	mov    %rax,-0x308(%rbp)
   14aa7:	48 8d 85 e0 f4 ff ff 	lea    -0xb20(%rbp),%rax
   14aae:	48 89 85 00 fd ff ff 	mov    %rax,-0x300(%rbp)
   14ab5:	48 c7 85 08 fd ff ff 	movq   $0x0,-0x2f8(%rbp)
   14abc:	00 00 00 00 
   14ac0:	48 8d 85 e0 f4 ff ff 	lea    -0xb20(%rbp),%rax
   14ac7:	48 89 85 10 fd ff ff 	mov    %rax,-0x2f0(%rbp)
   14ace:	48 8d 85 e0 f4 ff ff 	lea    -0xb20(%rbp),%rax
   14ad5:	48 89 85 18 fd ff ff 	mov    %rax,-0x2e8(%rbp)
   14adc:	48 8d 85 e0 f4 ff ff 	lea    -0xb20(%rbp),%rax
   14ae3:	48 89 85 20 fd ff ff 	mov    %rax,-0x2e0(%rbp)
   14aea:	48 c7 85 28 fd ff ff 	movq   $0x0,-0x2d8(%rbp)
   14af1:	00 00 00 00 
   14af5:	48 8d 85 e0 f4 ff ff 	lea    -0xb20(%rbp),%rax
   14afc:	48 89 85 30 fd ff ff 	mov    %rax,-0x2d0(%rbp)
   14b03:	48 c7 85 38 fd ff ff 	movq   $0x0,-0x2c8(%rbp)
   14b0a:	00 00 00 00 
   14b0e:	48 c7 85 40 fd ff ff 	movq   $0x0,-0x2c0(%rbp)
   14b15:	00 00 00 00 
   14b19:	48 8d 85 e0 f4 ff ff 	lea    -0xb20(%rbp),%rax
   14b20:	48 89 85 48 fd ff ff 	mov    %rax,-0x2b8(%rbp)
   14b27:	48 8d 85 e0 f4 ff ff 	lea    -0xb20(%rbp),%rax
   14b2e:	48 89 85 50 fd ff ff 	mov    %rax,-0x2b0(%rbp)
   14b35:	48 c7 85 58 fd ff ff 	movq   $0x0,-0x2a8(%rbp)
   14b3c:	00 00 00 00 
   14b40:	48 8d 85 e0 f4 ff ff 	lea    -0xb20(%rbp),%rax
   14b47:	48 89 85 60 fd ff ff 	mov    %rax,-0x2a0(%rbp)
   14b4e:	48 8d 85 e0 f4 ff ff 	lea    -0xb20(%rbp),%rax
   14b55:	48 89 85 68 fd ff ff 	mov    %rax,-0x298(%rbp)
   14b5c:	48 8d 85 e0 f4 ff ff 	lea    -0xb20(%rbp),%rax
   14b63:	48 89 85 70 fd ff ff 	mov    %rax,-0x290(%rbp)
   14b6a:	48 8d 85 e0 f4 ff ff 	lea    -0xb20(%rbp),%rax
   14b71:	48 89 85 78 fd ff ff 	mov    %rax,-0x288(%rbp)
   14b78:	48 8d 85 e0 f4 ff ff 	lea    -0xb20(%rbp),%rax
   14b7f:	48 89 85 80 fd ff ff 	mov    %rax,-0x280(%rbp)
   14b86:	48 c7 85 88 fd ff ff 	movq   $0x0,-0x278(%rbp)
   14b8d:	00 00 00 00 
   14b91:	48 c7 85 90 fd ff ff 	movq   $0x0,-0x270(%rbp)
   14b98:	00 00 00 00 
   14b9c:	48 8d 85 e0 f4 ff ff 	lea    -0xb20(%rbp),%rax
   14ba3:	48 89 85 98 fd ff ff 	mov    %rax,-0x268(%rbp)
   14baa:	48 8d 85 e0 f4 ff ff 	lea    -0xb20(%rbp),%rax
   14bb1:	48 89 85 a0 fd ff ff 	mov    %rax,-0x260(%rbp)
   14bb8:	48 8d 85 e0 f4 ff ff 	lea    -0xb20(%rbp),%rax
   14bbf:	48 89 85 a8 fd ff ff 	mov    %rax,-0x258(%rbp)
   14bc6:	48 c7 85 b0 fd ff ff 	movq   $0x0,-0x250(%rbp)
   14bcd:	00 00 00 00 
   14bd1:	48 8d 85 e0 f4 ff ff 	lea    -0xb20(%rbp),%rax
   14bd8:	48 89 85 b8 fd ff ff 	mov    %rax,-0x248(%rbp)
   14bdf:	48 8d 85 e0 f4 ff ff 	lea    -0xb20(%rbp),%rax
   14be6:	48 89 85 c0 fd ff ff 	mov    %rax,-0x240(%rbp)
   14bed:	48 c7 85 c8 fd ff ff 	movq   $0x0,-0x238(%rbp)
   14bf4:	00 00 00 00 
   14bf8:	48 c7 85 d0 fd ff ff 	movq   $0x0,-0x230(%rbp)
   14bff:	00 00 00 00 
   14c03:	48 8d 85 e0 f4 ff ff 	lea    -0xb20(%rbp),%rax
   14c0a:	48 89 85 d8 fd ff ff 	mov    %rax,-0x228(%rbp)
   14c11:	48 8d 85 e0 f4 ff ff 	lea    -0xb20(%rbp),%rax
   14c18:	48 89 85 e0 fd ff ff 	mov    %rax,-0x220(%rbp)
   14c1f:	48 8d 85 e0 f4 ff ff 	lea    -0xb20(%rbp),%rax
   14c26:	48 89 85 e8 fd ff ff 	mov    %rax,-0x218(%rbp)
   14c2d:	48 8d 85 e0 f4 ff ff 	lea    -0xb20(%rbp),%rax
   14c34:	48 89 85 f0 fd ff ff 	mov    %rax,-0x210(%rbp)
   14c3b:	48 8d 85 e0 f4 ff ff 	lea    -0xb20(%rbp),%rax
   14c42:	48 89 85 f8 fd ff ff 	mov    %rax,-0x208(%rbp)
   14c49:	48 c7 85 00 fe ff ff 	movq   $0x0,-0x200(%rbp)
   14c50:	00 00 00 00 
   14c54:	48 c7 85 08 fe ff ff 	movq   $0x0,-0x1f8(%rbp)
   14c5b:	00 00 00 00 
   14c5f:	48 8d 85 e0 f4 ff ff 	lea    -0xb20(%rbp),%rax
   14c66:	48 89 85 10 fe ff ff 	mov    %rax,-0x1f0(%rbp)
   14c6d:	48 8d 85 e0 f4 ff ff 	lea    -0xb20(%rbp),%rax
   14c74:	48 89 85 18 fe ff ff 	mov    %rax,-0x1e8(%rbp)
   14c7b:	48 8d 85 e0 f4 ff ff 	lea    -0xb20(%rbp),%rax
   14c82:	48 89 85 20 fe ff ff 	mov    %rax,-0x1e0(%rbp)
   14c89:	48 8d 85 e0 f4 ff ff 	lea    -0xb20(%rbp),%rax
   14c90:	48 89 85 28 fe ff ff 	mov    %rax,-0x1d8(%rbp)
   14c97:	48 8d 85 e0 f4 ff ff 	lea    -0xb20(%rbp),%rax
   14c9e:	48 89 85 30 fe ff ff 	mov    %rax,-0x1d0(%rbp)
   14ca5:	48 8d 85 e0 f4 ff ff 	lea    -0xb20(%rbp),%rax
   14cac:	48 89 85 38 fe ff ff 	mov    %rax,-0x1c8(%rbp)
   14cb3:	48 8d 85 e0 f4 ff ff 	lea    -0xb20(%rbp),%rax
   14cba:	48 89 85 40 fe ff ff 	mov    %rax,-0x1c0(%rbp)
   14cc1:	48 c7 85 48 fe ff ff 	movq   $0x0,-0x1b8(%rbp)
   14cc8:	00 00 00 00 
   14ccc:	48 8d 85 e0 f4 ff ff 	lea    -0xb20(%rbp),%rax
   14cd3:	48 89 85 50 fe ff ff 	mov    %rax,-0x1b0(%rbp)
   14cda:	48 8d 85 e0 f4 ff ff 	lea    -0xb20(%rbp),%rax
   14ce1:	48 89 85 58 fe ff ff 	mov    %rax,-0x1a8(%rbp)
   14ce8:	48 8d 85 e0 f4 ff ff 	lea    -0xb20(%rbp),%rax
   14cef:	48 89 85 60 fe ff ff 	mov    %rax,-0x1a0(%rbp)
   14cf6:	48 8d 85 e0 f4 ff ff 	lea    -0xb20(%rbp),%rax
   14cfd:	48 89 85 68 fe ff ff 	mov    %rax,-0x198(%rbp)
   14d04:	48 8d 85 e0 f4 ff ff 	lea    -0xb20(%rbp),%rax
   14d0b:	48 89 85 70 fe ff ff 	mov    %rax,-0x190(%rbp)
   14d12:	48 8d 85 e0 f4 ff ff 	lea    -0xb20(%rbp),%rax
   14d19:	48 89 85 78 fe ff ff 	mov    %rax,-0x188(%rbp)
   14d20:	48 8d 85 e0 f4 ff ff 	lea    -0xb20(%rbp),%rax
   14d27:	48 89 85 80 fe ff ff 	mov    %rax,-0x180(%rbp)
   14d2e:	48 c7 85 88 fe ff ff 	movq   $0x0,-0x178(%rbp)
   14d35:	00 00 00 00 
   14d39:	48 8d 85 e0 f4 ff ff 	lea    -0xb20(%rbp),%rax
   14d40:	48 89 85 90 fe ff ff 	mov    %rax,-0x170(%rbp)
   14d47:	48 8d 85 e0 f4 ff ff 	lea    -0xb20(%rbp),%rax
   14d4e:	48 89 85 98 fe ff ff 	mov    %rax,-0x168(%rbp)
   14d55:	48 8d 85 e0 f4 ff ff 	lea    -0xb20(%rbp),%rax
   14d5c:	48 89 85 a0 fe ff ff 	mov    %rax,-0x160(%rbp)
   14d63:	48 8d 85 e0 f4 ff ff 	lea    -0xb20(%rbp),%rax
   14d6a:	48 89 85 a8 fe ff ff 	mov    %rax,-0x158(%rbp)
   14d71:	48 c7 85 b0 fe ff ff 	movq   $0x0,-0x150(%rbp)
   14d78:	00 00 00 00 
   14d7c:	48 8d 85 e0 f4 ff ff 	lea    -0xb20(%rbp),%rax
   14d83:	48 89 85 b8 fe ff ff 	mov    %rax,-0x148(%rbp)
   14d8a:	48 c7 85 c0 fe ff ff 	movq   $0x0,-0x140(%rbp)
   14d91:	00 00 00 00 
   14d95:	48 8d 85 e0 f4 ff ff 	lea    -0xb20(%rbp),%rax
   14d9c:	48 89 85 c8 fe ff ff 	mov    %rax,-0x138(%rbp)
   14da3:	48 8d 85 e0 f4 ff ff 	lea    -0xb20(%rbp),%rax
   14daa:	48 89 85 d0 fe ff ff 	mov    %rax,-0x130(%rbp)
   14db1:	48 c7 85 d8 fe ff ff 	movq   $0x0,-0x128(%rbp)
   14db8:	00 00 00 00 
   14dbc:	48 8d 85 e0 f4 ff ff 	lea    -0xb20(%rbp),%rax
   14dc3:	48 89 85 e0 fe ff ff 	mov    %rax,-0x120(%rbp)
   14dca:	48 8d 85 e0 f4 ff ff 	lea    -0xb20(%rbp),%rax
   14dd1:	48 89 85 e8 fe ff ff 	mov    %rax,-0x118(%rbp)
   14dd8:	48 8d 85 e0 f4 ff ff 	lea    -0xb20(%rbp),%rax
   14ddf:	48 89 85 f0 fe ff ff 	mov    %rax,-0x110(%rbp)
   14de6:	48 8d 85 e0 f4 ff ff 	lea    -0xb20(%rbp),%rax
   14ded:	48 89 85 f8 fe ff ff 	mov    %rax,-0x108(%rbp)
   14df4:	48 8d 85 e0 f4 ff ff 	lea    -0xb20(%rbp),%rax
   14dfb:	48 89 85 00 ff ff ff 	mov    %rax,-0x100(%rbp)
   14e02:	48 8d 85 e0 f4 ff ff 	lea    -0xb20(%rbp),%rax
   14e09:	48 89 85 08 ff ff ff 	mov    %rax,-0xf8(%rbp)
   14e10:	48 8d 85 e0 f4 ff ff 	lea    -0xb20(%rbp),%rax
   14e17:	48 89 85 10 ff ff ff 	mov    %rax,-0xf0(%rbp)
   14e1e:	48 8d 85 e0 f4 ff ff 	lea    -0xb20(%rbp),%rax
   14e25:	48 89 85 18 ff ff ff 	mov    %rax,-0xe8(%rbp)
   14e2c:	48 8d 85 e0 f4 ff ff 	lea    -0xb20(%rbp),%rax
   14e33:	48 89 85 20 ff ff ff 	mov    %rax,-0xe0(%rbp)
   14e3a:	48 8d 85 e0 f4 ff ff 	lea    -0xb20(%rbp),%rax
   14e41:	48 89 85 28 ff ff ff 	mov    %rax,-0xd8(%rbp)
   14e48:	48 c7 85 30 ff ff ff 	movq   $0x0,-0xd0(%rbp)
   14e4f:	00 00 00 00 
   14e53:	48 8d 85 e0 f4 ff ff 	lea    -0xb20(%rbp),%rax
   14e5a:	48 89 85 38 ff ff ff 	mov    %rax,-0xc8(%rbp)
   14e61:	48 8d 85 e0 f4 ff ff 	lea    -0xb20(%rbp),%rax
   14e68:	48 89 85 40 ff ff ff 	mov    %rax,-0xc0(%rbp)
   14e6f:	48 8d 85 e0 f4 ff ff 	lea    -0xb20(%rbp),%rax
   14e76:	48 89 85 48 ff ff ff 	mov    %rax,-0xb8(%rbp)
   14e7d:	48 c7 85 50 ff ff ff 	movq   $0x0,-0xb0(%rbp)
   14e84:	00 00 00 00 
   14e88:	48 c7 85 58 ff ff ff 	movq   $0x0,-0xa8(%rbp)
   14e8f:	00 00 00 00 
   14e93:	48 c7 85 60 ff ff ff 	movq   $0x0,-0xa0(%rbp)
   14e9a:	00 00 00 00 
   14e9e:	48 c7 85 68 ff ff ff 	movq   $0x0,-0x98(%rbp)
   14ea5:	00 00 00 00 
   14ea9:	48 c7 85 70 ff ff ff 	movq   $0x0,-0x90(%rbp)
   14eb0:	00 00 00 00 
   14eb4:	48 8d 85 e0 f4 ff ff 	lea    -0xb20(%rbp),%rax
   14ebb:	48 89 85 78 ff ff ff 	mov    %rax,-0x88(%rbp)
   14ec2:	48 8d 85 e0 f4 ff ff 	lea    -0xb20(%rbp),%rax
   14ec9:	48 89 45 80          	mov    %rax,-0x80(%rbp)
   14ecd:	48 8d 85 e0 f4 ff ff 	lea    -0xb20(%rbp),%rax
   14ed4:	48 89 45 88          	mov    %rax,-0x78(%rbp)
   14ed8:	48 8d 85 e0 f4 ff ff 	lea    -0xb20(%rbp),%rax
   14edf:	48 89 45 90          	mov    %rax,-0x70(%rbp)
   14ee3:	48 8d 85 e0 f4 ff ff 	lea    -0xb20(%rbp),%rax
   14eea:	48 89 45 98          	mov    %rax,-0x68(%rbp)
   14eee:	48 c7 45 a0 00 00 00 	movq   $0x0,-0x60(%rbp)
   14ef5:	00 
   14ef6:	48 c7 45 a8 00 00 00 	movq   $0x0,-0x58(%rbp)
   14efd:	00 
   14efe:	48 8d 85 e0 f4 ff ff 	lea    -0xb20(%rbp),%rax
   14f05:	48 89 45 b0          	mov    %rax,-0x50(%rbp)
   14f09:	48 8d 85 e0 f4 ff ff 	lea    -0xb20(%rbp),%rax
   14f10:	48 89 45 b8          	mov    %rax,-0x48(%rbp)
   14f14:	48 8d 05 15 83 00 00 	lea    0x8315(%rip),%rax        # 1d230 <g_129>
   14f1b:	48 89 85 d8 f5 ff ff 	mov    %rax,-0xa28(%rbp)
   14f22:	48 8b 85 e8 f4 ff ff 	mov    -0xb18(%rbp),%rax
   14f29:	c7 00 9d f0 b7 68    	movl   $0x68b7f09d,(%rax)
   14f2f:	48 8b 85 c8 f7 ff ff 	mov    -0x838(%rbp),%rax
   14f36:	41 89 c5             	mov    %eax,%r13d
   14f39:	0f b6 05 a8 82 00 00 	movzbl 0x82a8(%rip),%eax        # 1d1e8 <g_91+0x4>
   14f40:	0f b6 d8             	movzbl %al,%ebx
   14f43:	48 8b 85 b0 f7 ff ff 	mov    -0x850(%rbp),%rax
   14f4a:	44 0f be e0          	movsbl %al,%r12d
   14f4e:	48 8b 85 c8 f7 ff ff 	mov    -0x838(%rbp),%rax
   14f55:	89 c2                	mov    %eax,%edx
   14f57:	48 8b 85 e8 f4 ff ff 	mov    -0xb18(%rbp),%rax
   14f5e:	8b 00                	mov    (%rax),%eax
   14f60:	98                   	cwtl   
   14f61:	89 d6                	mov    %edx,%esi
   14f63:	89 c7                	mov    %eax,%edi
   14f65:	e8 f9 25 ff ff       	callq  7563 <safe_rshift_func_int16_t_s_u>
   14f6a:	98                   	cwtl   
   14f6b:	89 85 d0 f4 ff ff    	mov    %eax,-0xb30(%rbp)
   14f71:	44 89 e6             	mov    %r12d,%esi
   14f74:	bf ff ff ff ff       	mov    $0xffffffff,%edi
   14f79:	e8 ec 22 ff ff       	callq  726a <safe_div_func_int8_t_s_s>
   14f7e:	0f b7 95 92 f4 ff ff 	movzwl -0xb6e(%rbp),%edx
   14f85:	0f b6 05 5c ab 00 00 	movzbl 0xab5c(%rip),%eax        # 1fae8 <g_38>
   14f8c:	c1 e0 06             	shl    $0x6,%eax
   14f8f:	c0 f8 06             	sar    $0x6,%al
   14f92:	66 98                	cbtw   
   14f94:	0f b7 c0             	movzwl %ax,%eax
   14f97:	89 d6                	mov    %edx,%esi
   14f99:	89 c7                	mov    %eax,%edi
   14f9b:	e8 bc 2d ff ff       	callq  7d5c <safe_mod_func_uint16_t_u_u>
   14fa0:	f7 d0                	not    %eax
   14fa2:	0f b7 c0             	movzwl %ax,%eax
   14fa5:	89 de                	mov    %ebx,%esi
   14fa7:	89 c7                	mov    %eax,%edi
   14fa9:	e8 51 2d ff ff       	callq  7cff <safe_add_func_uint16_t_u_u>
   14fae:	48 83 bd d8 f5 ff ff 	cmpq   $0x0,-0xa28(%rbp)
   14fb5:	00 
   14fb6:	0f 94 c0             	sete   %al
   14fb9:	0f b6 c0             	movzbl %al,%eax
   14fbc:	44 89 ee             	mov    %r13d,%esi
   14fbf:	89 c7                	mov    %eax,%edi
   14fc1:	e8 37 2f ff ff       	callq  7efd <safe_mod_func_uint32_t_u_u>
   14fc6:	48 8b 05 63 82 00 00 	mov    0x8263(%rip),%rax        # 1d230 <g_129>
   14fcd:	0f b6 d0             	movzbl %al,%edx
   14fd0:	48 8b 85 e8 f4 ff ff 	mov    -0xb18(%rbp),%rax
   14fd7:	8b 08                	mov    (%rax),%ecx
   14fd9:	0f b7 85 8c f4 ff ff 	movzwl -0xb74(%rbp),%eax
   14fe0:	98                   	cwtl   
   14fe1:	39 c1                	cmp    %eax,%ecx
   14fe3:	0f 94 c0             	sete   %al
   14fe6:	0f b6 c0             	movzbl %al,%eax
   14fe9:	89 d6                	mov    %edx,%esi
   14feb:	89 c7                	mov    %eax,%edi
   14fed:	e8 a1 2b ff ff       	callq  7b93 <safe_mul_func_uint8_t_u_u>
   14ff2:	48 8b 95 70 f4 ff ff 	mov    -0xb90(%rbp),%rdx
   14ff9:	48 8b 85 70 f4 ff ff 	mov    -0xb90(%rbp),%rax
   15000:	48 8b 12             	mov    (%rdx),%rdx
   15003:	48 89 10             	mov    %rdx,(%rax)
   15006:	83 bd d0 f4 ff ff 00 	cmpl   $0x0,-0xb30(%rbp)
   1500d:	75 45                	jne    15054 <func_60+0x1b77>
   1500f:	48 8b 05 1a 82 00 00 	mov    0x821a(%rip),%rax        # 1d230 <g_129>
   15016:	0f b6 c0             	movzbl %al,%eax
   15019:	be 04 00 00 00       	mov    $0x4,%esi
   1501e:	89 c7                	mov    %eax,%edi
   15020:	e8 68 2c ff ff       	callq  7c8d <safe_rshift_func_uint8_t_u_s>
   15025:	89 c2                	mov    %eax,%edx
   15027:	48 8b 85 e8 f4 ff ff 	mov    -0xb18(%rbp),%rax
   1502e:	0f b6 d2             	movzbl %dl,%edx
   15031:	89 10                	mov    %edx,(%rax)
   15033:	0f b6 05 fe 81 00 00 	movzbl 0x81fe(%rip),%eax        # 1d238 <g_163>
   1503a:	83 c0 01             	add    $0x1,%eax
   1503d:	88 05 f5 81 00 00    	mov    %al,0x81f5(%rip)        # 1d238 <g_163>
   15043:	0f b6 05 ee 81 00 00 	movzbl 0x81ee(%rip),%eax        # 1d238 <g_163>
   1504a:	3c 3a                	cmp    $0x3a,%al
   1504c:	0f 87 3c f9 ff ff    	ja     1498e <func_60+0x14b1>
   15052:	eb 01                	jmp    15055 <func_60+0x1b78>
   15054:	90                   	nop
   15055:	48 8b 05 d4 81 00 00 	mov    0x81d4(%rip),%rax        # 1d230 <g_129>
   1505c:	41 89 c4             	mov    %eax,%r12d
   1505f:	48 8b 85 c8 f7 ff ff 	mov    -0x838(%rbp),%rax
   15066:	0f b6 d8             	movzbl %al,%ebx
   15069:	48 8b 85 e8 f4 ff ff 	mov    -0xb18(%rbp),%rax
   15070:	8b 00                	mov    (%rax),%eax
   15072:	89 c6                	mov    %eax,%esi
   15074:	bf 01 00 00 00       	mov    $0x1,%edi
   15079:	e8 4e 26 ff ff       	callq  76cc <safe_mod_func_int32_t_s_s>
   1507e:	85 c0                	test   %eax,%eax
   15080:	74 08                	je     1508a <func_60+0x1bad>
   15082:	66 83 bd 7c f4 ff ff 	cmpw   $0x0,-0xb84(%rbp)
   15089:	00 
   1508a:	89 de                	mov    %ebx,%esi
   1508c:	bf fe 00 00 00       	mov    $0xfe,%edi
   15091:	e8 c4 2a ff ff       	callq  7b5a <safe_add_func_uint8_t_u_u>
   15096:	0f b6 c0             	movzbl %al,%eax
   15099:	44 89 e6             	mov    %r12d,%esi
   1509c:	89 c7                	mov    %eax,%edi
   1509e:	e8 3e 24 ff ff       	callq  74e1 <safe_lshift_func_int16_t_s_u>
   150a3:	0f b6 c0             	movzbl %al,%eax
   150a6:	be 07 00 00 00       	mov    $0x7,%esi
   150ab:	89 c7                	mov    %eax,%edi
   150ad:	e8 53 2b ff ff       	callq  7c05 <safe_lshift_func_uint8_t_u_s>
   150b2:	0f b6 d8             	movzbl %al,%ebx
   150b5:	48 83 bd b8 f5 ff ff 	cmpq   $0x0,-0xa48(%rbp)
   150bc:	00 
   150bd:	0f 95 c0             	setne  %al
   150c0:	0f b6 d0             	movzbl %al,%edx
   150c3:	0f b7 85 7c f4 ff ff 	movzwl -0xb84(%rbp),%eax
   150ca:	89 d6                	mov    %edx,%esi
   150cc:	89 c7                	mov    %eax,%edi
   150ce:	e8 33 2d ff ff       	callq  7e06 <safe_lshift_func_uint16_t_u_u>
   150d3:	66 85 c0             	test   %ax,%ax
   150d6:	89 de                	mov    %ebx,%esi
   150d8:	bf 00 00 00 00       	mov    $0x0,%edi
   150dd:	e8 23 25 ff ff       	callq  7605 <safe_sub_func_int32_t_s_s>
   150e2:	48 8b 95 e8 f4 ff ff 	mov    -0xb18(%rbp),%rdx
   150e9:	48 8b 85 e8 f4 ff ff 	mov    -0xb18(%rbp),%rax
   150f0:	8b 12                	mov    (%rdx),%edx
   150f2:	89 10                	mov    %edx,(%rax)
   150f4:	be f6 00 00 00       	mov    $0xf6,%esi
   150f9:	bf 01 00 00 00       	mov    $0x1,%edi
   150fe:	e8 90 2a ff ff       	callq  7b93 <safe_mul_func_uint8_t_u_u>
   15103:	c7 85 b8 f4 ff ff 01 	movl   $0x1,-0xb48(%rbp)
   1510a:	00 00 00 
   1510d:	48 8b 15 7c 97 00 00 	mov    0x977c(%rip),%rdx        # 1e890 <g_217+0x30>
   15114:	48 8b 85 c0 f5 ff ff 	mov    -0xa40(%rbp),%rax
   1511b:	48 89 10             	mov    %rdx,(%rax)
   1511e:	48 8b 85 c0 f5 ff ff 	mov    -0xa40(%rbp),%rax
   15125:	48 8b 00             	mov    (%rax),%rax
   15128:	48 8d 15 c1 a9 00 00 	lea    0xa9c1(%rip),%rdx        # 1faf0 <g_89>
   1512f:	48 39 d0             	cmp    %rdx,%rax
   15132:	0f 94 c0             	sete   %al
   15135:	88 85 88 f4 ff ff    	mov    %al,-0xb78(%rbp)
   1513b:	48 8b 85 60 f9 ff ff 	mov    -0x6a0(%rbp),%rax
   15142:	48 89 05 7f 98 00 00 	mov    %rax,0x987f(%rip)        # 1e9c8 <g_227+0x8>
   15149:	48 8d 85 94 f4 ff ff 	lea    -0xb6c(%rbp),%rax
   15150:	48 89 85 28 f5 ff ff 	mov    %rax,-0xad8(%rbp)
   15157:	48 8d 05 ea 96 00 00 	lea    0x96ea(%rip),%rax        # 1e848 <g_39>
   1515e:	e9 f6 14 00 00       	jmpq   16659 <func_60+0x317c>
   15163:	48 8d 05 d6 80 00 00 	lea    0x80d6(%rip),%rax        # 1d240 <g_231>
   1516a:	48 89 85 30 f5 ff ff 	mov    %rax,-0xad0(%rbp)
   15171:	48 8d 05 b8 80 00 00 	lea    0x80b8(%rip),%rax        # 1d230 <g_129>
   15178:	48 89 85 a0 f7 ff ff 	mov    %rax,-0x860(%rbp)
   1517f:	48 8d 05 aa 80 00 00 	lea    0x80aa(%rip),%rax        # 1d230 <g_129>
   15186:	48 89 85 a8 f7 ff ff 	mov    %rax,-0x858(%rbp)
   1518d:	48 8d 05 9c 80 00 00 	lea    0x809c(%rip),%rax        # 1d230 <g_129>
   15194:	48 89 85 b0 f7 ff ff 	mov    %rax,-0x850(%rbp)
   1519b:	48 8d 05 8e 80 00 00 	lea    0x808e(%rip),%rax        # 1d230 <g_129>
   151a2:	48 89 85 b8 f7 ff ff 	mov    %rax,-0x848(%rbp)
   151a9:	48 8d 05 80 80 00 00 	lea    0x8080(%rip),%rax        # 1d230 <g_129>
   151b0:	48 89 85 c0 f7 ff ff 	mov    %rax,-0x840(%rbp)
   151b7:	48 8d 05 72 80 00 00 	lea    0x8072(%rip),%rax        # 1d230 <g_129>
   151be:	48 89 85 c8 f7 ff ff 	mov    %rax,-0x838(%rbp)
   151c5:	48 8d 05 64 80 00 00 	lea    0x8064(%rip),%rax        # 1d230 <g_129>
   151cc:	48 89 85 d0 f7 ff ff 	mov    %rax,-0x830(%rbp)
   151d3:	48 8d 05 56 80 00 00 	lea    0x8056(%rip),%rax        # 1d230 <g_129>
   151da:	48 89 85 d8 f7 ff ff 	mov    %rax,-0x828(%rbp)
   151e1:	c7 85 bc f4 ff ff f9 	movl   $0x6c7ccf9,-0xb44(%rbp)
   151e8:	cc c7 06 
   151eb:	48 b8 c2 f3 32 76 cd 	movabs $0x7dc3e7cd7632f3c2,%rax
   151f2:	e7 c3 7d 
   151f5:	48 89 85 38 f5 ff ff 	mov    %rax,-0xac8(%rbp)
   151fc:	c7 85 a4 f4 ff ff 01 	movl   $0x1,-0xb5c(%rbp)
   15203:	00 00 00 
   15206:	48 8d 05 d3 7f 00 00 	lea    0x7fd3(%rip),%rax        # 1d1e0 <g_65>
   1520d:	48 89 85 40 f5 ff ff 	mov    %rax,-0xac0(%rbp)
   15214:	c7 85 a8 f4 ff ff 00 	movl   $0x0,-0xb58(%rbp)
   1521b:	00 00 00 
   1521e:	eb 1a                	jmp    1523a <func_60+0x1d5d>
   15220:	8b 85 a8 f4 ff ff    	mov    -0xb58(%rbp),%eax
   15226:	48 98                	cltq   
   15228:	c7 84 85 b0 f6 ff ff 	movl   $0x4bcf4e7,-0x950(%rbp,%rax,4)
   1522f:	e7 f4 bc 04 
   15233:	83 85 a8 f4 ff ff 01 	addl   $0x1,-0xb58(%rbp)
   1523a:	83 bd a8 f4 ff ff 07 	cmpl   $0x7,-0xb58(%rbp)
   15241:	7e dd                	jle    15220 <func_60+0x1d43>
   15243:	c7 85 a8 f4 ff ff 00 	movl   $0x0,-0xb58(%rbp)
   1524a:	00 00 00 
   1524d:	eb 1e                	jmp    1526d <func_60+0x1d90>
   1524f:	8b 85 a8 f4 ff ff    	mov    -0xb58(%rbp),%eax
   15255:	48 98                	cltq   
   15257:	48 8d 15 da 7f 00 00 	lea    0x7fda(%rip),%rdx        # 1d238 <g_163>
   1525e:	48 89 94 c5 50 f6 ff 	mov    %rdx,-0x9b0(%rbp,%rax,8)
   15265:	ff 
   15266:	83 85 a8 f4 ff ff 01 	addl   $0x1,-0xb58(%rbp)
   1526d:	83 bd a8 f4 ff ff 02 	cmpl   $0x2,-0xb58(%rbp)
   15274:	7e d9                	jle    1524f <func_60+0x1d72>
   15276:	90                   	nop
   15277:	0f b7 9d 7c f4 ff ff 	movzwl -0xb84(%rbp),%ebx
   1527e:	be b4 b2 86 d4       	mov    $0xd486b2b4,%esi
   15283:	bf 07 00 00 00       	mov    $0x7,%edi
   15288:	e8 43 2c ff ff       	callq  7ed0 <safe_sub_func_uint32_t_u_u>
   1528d:	39 c3                	cmp    %eax,%ebx
   1528f:	0f 94 c2             	sete   %dl
   15292:	0f b7 85 8e f4 ff ff 	movzwl -0xb72(%rbp),%eax
   15299:	89 85 cc f6 ff ff    	mov    %eax,-0x934(%rbp)
   1529f:	8b 85 cc f6 ff ff    	mov    -0x934(%rbp),%eax
   152a5:	85 c0                	test   %eax,%eax
   152a7:	0f 9e c0             	setle  %al
   152aa:	31 d0                	xor    %edx,%eax
   152ac:	84 c0                	test   %al,%al
   152ae:	0f 84 e4 12 00 00    	je     16598 <func_60+0x30bb>
   152b4:	48 c7 85 f0 f7 ff ff 	movq   $0x0,-0x810(%rbp)
   152bb:	00 00 00 00 
   152bf:	48 c7 85 f8 f7 ff ff 	movq   $0x0,-0x808(%rbp)
   152c6:	00 00 00 00 
   152ca:	48 8d 05 77 95 00 00 	lea    0x9577(%rip),%rax        # 1e848 <g_39>
   152d1:	48 89 85 00 f8 ff ff 	mov    %rax,-0x800(%rbp)
   152d8:	48 c7 85 08 f8 ff ff 	movq   $0x0,-0x7f8(%rbp)
   152df:	00 00 00 00 
   152e3:	48 8d 05 5e 95 00 00 	lea    0x955e(%rip),%rax        # 1e848 <g_39>
   152ea:	48 89 85 10 f8 ff ff 	mov    %rax,-0x7f0(%rbp)
   152f1:	48 c7 85 18 f8 ff ff 	movq   $0x0,-0x7e8(%rbp)
   152f8:	00 00 00 00 
   152fc:	48 8d 05 45 95 00 00 	lea    0x9545(%rip),%rax        # 1e848 <g_39>
   15303:	48 89 85 20 f8 ff ff 	mov    %rax,-0x7e0(%rbp)
   1530a:	48 c7 85 28 f8 ff ff 	movq   $0x0,-0x7d8(%rbp)
   15311:	00 00 00 00 
   15315:	48 c7 85 30 f8 ff ff 	movq   $0x0,-0x7d0(%rbp)
   1531c:	00 00 00 00 
   15320:	48 8d 05 21 95 00 00 	lea    0x9521(%rip),%rax        # 1e848 <g_39>
   15327:	48 89 85 38 f8 ff ff 	mov    %rax,-0x7c8(%rbp)
   1532e:	48 8d 05 13 95 00 00 	lea    0x9513(%rip),%rax        # 1e848 <g_39>
   15335:	48 89 85 40 f8 ff ff 	mov    %rax,-0x7c0(%rbp)
   1533c:	48 8d 05 05 95 00 00 	lea    0x9505(%rip),%rax        # 1e848 <g_39>
   15343:	48 89 85 48 f8 ff ff 	mov    %rax,-0x7b8(%rbp)
   1534a:	48 8d 05 f7 94 00 00 	lea    0x94f7(%rip),%rax        # 1e848 <g_39>
   15351:	48 89 85 50 f8 ff ff 	mov    %rax,-0x7b0(%rbp)
   15358:	48 c7 85 58 f8 ff ff 	movq   $0x0,-0x7a8(%rbp)
   1535f:	00 00 00 00 
   15363:	48 c7 85 60 f8 ff ff 	movq   $0x0,-0x7a0(%rbp)
   1536a:	00 00 00 00 
   1536e:	48 8d 05 d3 94 00 00 	lea    0x94d3(%rip),%rax        # 1e848 <g_39>
   15375:	48 89 85 68 f8 ff ff 	mov    %rax,-0x798(%rbp)
   1537c:	48 c7 85 70 f8 ff ff 	movq   $0x0,-0x790(%rbp)
   15383:	00 00 00 00 
   15387:	48 c7 85 78 f8 ff ff 	movq   $0x0,-0x788(%rbp)
   1538e:	00 00 00 00 
   15392:	48 8d 05 af 94 00 00 	lea    0x94af(%rip),%rax        # 1e848 <g_39>
   15399:	48 89 85 80 f8 ff ff 	mov    %rax,-0x780(%rbp)
   153a0:	48 8d 05 a1 94 00 00 	lea    0x94a1(%rip),%rax        # 1e848 <g_39>
   153a7:	48 89 85 88 f8 ff ff 	mov    %rax,-0x778(%rbp)
   153ae:	48 8d 05 93 94 00 00 	lea    0x9493(%rip),%rax        # 1e848 <g_39>
   153b5:	48 89 85 90 f8 ff ff 	mov    %rax,-0x770(%rbp)
   153bc:	48 8d 05 85 94 00 00 	lea    0x9485(%rip),%rax        # 1e848 <g_39>
   153c3:	48 89 85 98 f8 ff ff 	mov    %rax,-0x768(%rbp)
   153ca:	48 c7 85 a0 f8 ff ff 	movq   $0x0,-0x760(%rbp)
   153d1:	00 00 00 00 
   153d5:	48 8d 05 6c 94 00 00 	lea    0x946c(%rip),%rax        # 1e848 <g_39>
   153dc:	48 89 85 a8 f8 ff ff 	mov    %rax,-0x758(%rbp)
   153e3:	48 8d 05 5e 94 00 00 	lea    0x945e(%rip),%rax        # 1e848 <g_39>
   153ea:	48 89 85 b0 f8 ff ff 	mov    %rax,-0x750(%rbp)
   153f1:	48 c7 85 b8 f8 ff ff 	movq   $0x0,-0x748(%rbp)
   153f8:	00 00 00 00 
   153fc:	48 8d 05 45 94 00 00 	lea    0x9445(%rip),%rax        # 1e848 <g_39>
   15403:	48 89 85 c0 f8 ff ff 	mov    %rax,-0x740(%rbp)
   1540a:	c7 85 ac f4 ff ff 69 	movl   $0xb0b8d69,-0xb54(%rbp)
   15411:	8d 0b 0b 
   15414:	48 c7 85 50 f5 ff ff 	movq   $0x0,-0xab0(%rbp)
   1541b:	00 00 00 00 
   1541f:	48 8d 05 b2 7d 00 00 	lea    0x7db2(%rip),%rax        # 1d1d8 <g_42>
   15426:	48 89 85 30 f7 ff ff 	mov    %rax,-0x8d0(%rbp)
   1542d:	48 8d 05 a4 7d 00 00 	lea    0x7da4(%rip),%rax        # 1d1d8 <g_42>
   15434:	48 89 85 38 f7 ff ff 	mov    %rax,-0x8c8(%rbp)
   1543b:	48 8d 05 96 7d 00 00 	lea    0x7d96(%rip),%rax        # 1d1d8 <g_42>
   15442:	48 89 85 40 f7 ff ff 	mov    %rax,-0x8c0(%rbp)
   15449:	48 8d 05 88 7d 00 00 	lea    0x7d88(%rip),%rax        # 1d1d8 <g_42>
   15450:	48 89 85 48 f7 ff ff 	mov    %rax,-0x8b8(%rbp)
   15457:	48 8d 05 7a 7d 00 00 	lea    0x7d7a(%rip),%rax        # 1d1d8 <g_42>
   1545e:	48 89 85 50 f7 ff ff 	mov    %rax,-0x8b0(%rbp)
   15465:	48 8d 05 6c 7d 00 00 	lea    0x7d6c(%rip),%rax        # 1d1d8 <g_42>
   1546c:	48 89 85 58 f7 ff ff 	mov    %rax,-0x8a8(%rbp)
   15473:	48 c7 85 58 f5 ff ff 	movq   $0x0,-0xaa8(%rbp)
   1547a:	00 00 00 00 
   1547e:	48 c7 85 60 f5 ff ff 	movq   $0x0,-0xaa0(%rbp)
   15485:	00 00 00 00 
   15489:	48 8d 85 f0 f7 ff ff 	lea    -0x810(%rbp),%rax
   15490:	48 05 88 00 00 00    	add    $0x88,%rax
   15496:	48 89 85 08 f5 ff ff 	mov    %rax,-0xaf8(%rbp)
   1549d:	48 8d 85 00 f7 ff ff 	lea    -0x900(%rbp),%rax
   154a4:	48 89 85 60 fc ff ff 	mov    %rax,-0x3a0(%rbp)
   154ab:	48 8d 85 00 f7 ff ff 	lea    -0x900(%rbp),%rax
   154b2:	48 83 c0 20          	add    $0x20,%rax
   154b6:	48 89 85 68 fc ff ff 	mov    %rax,-0x398(%rbp)
   154bd:	48 8d 85 00 f7 ff ff 	lea    -0x900(%rbp),%rax
   154c4:	48 83 c0 20          	add    $0x20,%rax
   154c8:	48 89 85 70 fc ff ff 	mov    %rax,-0x390(%rbp)
   154cf:	48 8d 85 00 f7 ff ff 	lea    -0x900(%rbp),%rax
   154d6:	48 83 c0 18          	add    $0x18,%rax
   154da:	48 89 85 78 fc ff ff 	mov    %rax,-0x388(%rbp)
   154e1:	48 8d 85 00 f7 ff ff 	lea    -0x900(%rbp),%rax
   154e8:	48 83 c0 20          	add    $0x20,%rax
   154ec:	48 89 85 80 fc ff ff 	mov    %rax,-0x380(%rbp)
   154f3:	48 8d 85 00 f7 ff ff 	lea    -0x900(%rbp),%rax
   154fa:	48 83 c0 18          	add    $0x18,%rax
   154fe:	48 89 85 88 fc ff ff 	mov    %rax,-0x378(%rbp)
   15505:	48 8d 85 00 f7 ff ff 	lea    -0x900(%rbp),%rax
   1550c:	48 83 c0 18          	add    $0x18,%rax
   15510:	48 89 85 90 fc ff ff 	mov    %rax,-0x370(%rbp)
   15517:	48 8d 85 00 f7 ff ff 	lea    -0x900(%rbp),%rax
   1551e:	48 89 85 98 fc ff ff 	mov    %rax,-0x368(%rbp)
   15525:	48 8d 85 00 f7 ff ff 	lea    -0x900(%rbp),%rax
   1552c:	48 83 c0 20          	add    $0x20,%rax
   15530:	48 89 85 a0 fc ff ff 	mov    %rax,-0x360(%rbp)
   15537:	48 8d 85 00 f7 ff ff 	lea    -0x900(%rbp),%rax
   1553e:	48 83 c0 18          	add    $0x18,%rax
   15542:	48 89 85 a8 fc ff ff 	mov    %rax,-0x358(%rbp)
   15549:	48 8d 85 00 f7 ff ff 	lea    -0x900(%rbp),%rax
   15550:	48 83 c0 18          	add    $0x18,%rax
   15554:	48 89 85 b0 fc ff ff 	mov    %rax,-0x350(%rbp)
   1555b:	48 8d 85 00 f7 ff ff 	lea    -0x900(%rbp),%rax
   15562:	48 83 c0 20          	add    $0x20,%rax
   15566:	48 89 85 b8 fc ff ff 	mov    %rax,-0x348(%rbp)
   1556d:	48 8d 85 00 f7 ff ff 	lea    -0x900(%rbp),%rax
   15574:	48 89 85 c0 fc ff ff 	mov    %rax,-0x340(%rbp)
   1557b:	48 8d 85 00 f7 ff ff 	lea    -0x900(%rbp),%rax
   15582:	48 83 c0 18          	add    $0x18,%rax
   15586:	48 89 85 c8 fc ff ff 	mov    %rax,-0x338(%rbp)
   1558d:	48 8d 85 00 f7 ff ff 	lea    -0x900(%rbp),%rax
   15594:	48 83 c0 18          	add    $0x18,%rax
   15598:	48 89 85 d0 fc ff ff 	mov    %rax,-0x330(%rbp)
   1559f:	48 8d 85 00 f7 ff ff 	lea    -0x900(%rbp),%rax
   155a6:	48 83 c0 20          	add    $0x20,%rax
   155aa:	48 89 85 d8 fc ff ff 	mov    %rax,-0x328(%rbp)
   155b1:	48 8d 85 00 f7 ff ff 	lea    -0x900(%rbp),%rax
   155b8:	48 83 c0 18          	add    $0x18,%rax
   155bc:	48 89 85 e0 fc ff ff 	mov    %rax,-0x320(%rbp)
   155c3:	48 8d 85 00 f7 ff ff 	lea    -0x900(%rbp),%rax
   155ca:	48 83 c0 20          	add    $0x20,%rax
   155ce:	48 89 85 e8 fc ff ff 	mov    %rax,-0x318(%rbp)
   155d5:	48 8d 85 00 f7 ff ff 	lea    -0x900(%rbp),%rax
   155dc:	48 83 c0 20          	add    $0x20,%rax
   155e0:	48 89 85 f0 fc ff ff 	mov    %rax,-0x310(%rbp)
   155e7:	48 8d 85 00 f7 ff ff 	lea    -0x900(%rbp),%rax
   155ee:	48 89 85 f8 fc ff ff 	mov    %rax,-0x308(%rbp)
   155f5:	48 c7 85 00 fd ff ff 	movq   $0x0,-0x300(%rbp)
   155fc:	00 00 00 00 
   15600:	48 8d 85 00 f7 ff ff 	lea    -0x900(%rbp),%rax
   15607:	48 89 85 08 fd ff ff 	mov    %rax,-0x2f8(%rbp)
   1560e:	48 8d 85 00 f7 ff ff 	lea    -0x900(%rbp),%rax
   15615:	48 83 c0 20          	add    $0x20,%rax
   15619:	48 89 85 10 fd ff ff 	mov    %rax,-0x2f0(%rbp)
   15620:	48 8d 85 00 f7 ff ff 	lea    -0x900(%rbp),%rax
   15627:	48 83 c0 20          	add    $0x20,%rax
   1562b:	48 89 85 18 fd ff ff 	mov    %rax,-0x2e8(%rbp)
   15632:	48 8d 85 00 f7 ff ff 	lea    -0x900(%rbp),%rax
   15639:	48 83 c0 18          	add    $0x18,%rax
   1563d:	48 89 85 20 fd ff ff 	mov    %rax,-0x2e0(%rbp)
   15644:	48 8d 85 00 f7 ff ff 	lea    -0x900(%rbp),%rax
   1564b:	48 83 c0 20          	add    $0x20,%rax
   1564f:	48 89 85 28 fd ff ff 	mov    %rax,-0x2d8(%rbp)
   15656:	48 8d 85 00 f7 ff ff 	lea    -0x900(%rbp),%rax
   1565d:	48 83 c0 18          	add    $0x18,%rax
   15661:	48 89 85 30 fd ff ff 	mov    %rax,-0x2d0(%rbp)
   15668:	48 8d 85 00 f7 ff ff 	lea    -0x900(%rbp),%rax
   1566f:	48 83 c0 18          	add    $0x18,%rax
   15673:	48 89 85 38 fd ff ff 	mov    %rax,-0x2c8(%rbp)
   1567a:	48 8d 85 00 f7 ff ff 	lea    -0x900(%rbp),%rax
   15681:	48 89 85 40 fd ff ff 	mov    %rax,-0x2c0(%rbp)
   15688:	48 8d 85 00 f7 ff ff 	lea    -0x900(%rbp),%rax
   1568f:	48 83 c0 20          	add    $0x20,%rax
   15693:	48 89 85 48 fd ff ff 	mov    %rax,-0x2b8(%rbp)
   1569a:	48 8d 85 00 f7 ff ff 	lea    -0x900(%rbp),%rax
   156a1:	48 83 c0 18          	add    $0x18,%rax
   156a5:	48 89 85 50 fd ff ff 	mov    %rax,-0x2b0(%rbp)
   156ac:	48 8d 85 00 f7 ff ff 	lea    -0x900(%rbp),%rax
   156b3:	48 83 c0 18          	add    $0x18,%rax
   156b7:	48 89 85 58 fd ff ff 	mov    %rax,-0x2a8(%rbp)
   156be:	48 8d 85 00 f7 ff ff 	lea    -0x900(%rbp),%rax
   156c5:	48 83 c0 20          	add    $0x20,%rax
   156c9:	48 89 85 60 fd ff ff 	mov    %rax,-0x2a0(%rbp)
   156d0:	48 8d 85 00 f7 ff ff 	lea    -0x900(%rbp),%rax
   156d7:	48 89 85 68 fd ff ff 	mov    %rax,-0x298(%rbp)
   156de:	48 8d 85 00 f7 ff ff 	lea    -0x900(%rbp),%rax
   156e5:	48 83 c0 18          	add    $0x18,%rax
   156e9:	48 89 85 70 fd ff ff 	mov    %rax,-0x290(%rbp)
   156f0:	48 8d 85 00 f7 ff ff 	lea    -0x900(%rbp),%rax
   156f7:	48 83 c0 18          	add    $0x18,%rax
   156fb:	48 89 85 78 fd ff ff 	mov    %rax,-0x288(%rbp)
   15702:	48 8d 85 00 f7 ff ff 	lea    -0x900(%rbp),%rax
   15709:	48 83 c0 20          	add    $0x20,%rax
   1570d:	48 89 85 80 fd ff ff 	mov    %rax,-0x280(%rbp)
   15714:	48 8d 85 00 f7 ff ff 	lea    -0x900(%rbp),%rax
   1571b:	48 83 c0 18          	add    $0x18,%rax
   1571f:	48 89 85 88 fd ff ff 	mov    %rax,-0x278(%rbp)
   15726:	48 8d 85 00 f7 ff ff 	lea    -0x900(%rbp),%rax
   1572d:	48 83 c0 20          	add    $0x20,%rax
   15731:	48 89 85 90 fd ff ff 	mov    %rax,-0x270(%rbp)
   15738:	48 8d 85 00 f7 ff ff 	lea    -0x900(%rbp),%rax
   1573f:	48 83 c0 20          	add    $0x20,%rax
   15743:	48 89 85 98 fd ff ff 	mov    %rax,-0x268(%rbp)
   1574a:	48 8d 85 00 f7 ff ff 	lea    -0x900(%rbp),%rax
   15751:	48 89 85 a0 fd ff ff 	mov    %rax,-0x260(%rbp)
   15758:	48 c7 85 a8 fd ff ff 	movq   $0x0,-0x258(%rbp)
   1575f:	00 00 00 00 
   15763:	48 8d 85 00 f7 ff ff 	lea    -0x900(%rbp),%rax
   1576a:	48 89 85 b0 fd ff ff 	mov    %rax,-0x250(%rbp)
   15771:	48 8d 85 00 f7 ff ff 	lea    -0x900(%rbp),%rax
   15778:	48 83 c0 20          	add    $0x20,%rax
   1577c:	48 89 85 b8 fd ff ff 	mov    %rax,-0x248(%rbp)
   15783:	48 8d 85 00 f7 ff ff 	lea    -0x900(%rbp),%rax
   1578a:	48 83 c0 20          	add    $0x20,%rax
   1578e:	48 89 85 c0 fd ff ff 	mov    %rax,-0x240(%rbp)
   15795:	48 8d 85 00 f7 ff ff 	lea    -0x900(%rbp),%rax
   1579c:	48 83 c0 18          	add    $0x18,%rax
   157a0:	48 89 85 c8 fd ff ff 	mov    %rax,-0x238(%rbp)
   157a7:	48 8d 85 00 f7 ff ff 	lea    -0x900(%rbp),%rax
   157ae:	48 83 c0 20          	add    $0x20,%rax
   157b2:	48 89 85 d0 fd ff ff 	mov    %rax,-0x230(%rbp)
   157b9:	48 8d 85 00 f7 ff ff 	lea    -0x900(%rbp),%rax
   157c0:	48 83 c0 18          	add    $0x18,%rax
   157c4:	48 89 85 d8 fd ff ff 	mov    %rax,-0x228(%rbp)
   157cb:	48 8d 85 00 f7 ff ff 	lea    -0x900(%rbp),%rax
   157d2:	48 83 c0 18          	add    $0x18,%rax
   157d6:	48 89 85 e0 fd ff ff 	mov    %rax,-0x220(%rbp)
   157dd:	48 8d 85 00 f7 ff ff 	lea    -0x900(%rbp),%rax
   157e4:	48 89 85 e8 fd ff ff 	mov    %rax,-0x218(%rbp)
   157eb:	48 8d 85 00 f7 ff ff 	lea    -0x900(%rbp),%rax
   157f2:	48 83 c0 20          	add    $0x20,%rax
   157f6:	48 89 85 f0 fd ff ff 	mov    %rax,-0x210(%rbp)
   157fd:	48 8d 85 00 f7 ff ff 	lea    -0x900(%rbp),%rax
   15804:	48 83 c0 18          	add    $0x18,%rax
   15808:	48 89 85 f8 fd ff ff 	mov    %rax,-0x208(%rbp)
   1580f:	48 8d 85 00 f7 ff ff 	lea    -0x900(%rbp),%rax
   15816:	48 83 c0 18          	add    $0x18,%rax
   1581a:	48 89 85 00 fe ff ff 	mov    %rax,-0x200(%rbp)
   15821:	48 8d 85 00 f7 ff ff 	lea    -0x900(%rbp),%rax
   15828:	48 83 c0 20          	add    $0x20,%rax
   1582c:	48 89 85 08 fe ff ff 	mov    %rax,-0x1f8(%rbp)
   15833:	48 8d 85 00 f7 ff ff 	lea    -0x900(%rbp),%rax
   1583a:	48 89 85 10 fe ff ff 	mov    %rax,-0x1f0(%rbp)
   15841:	48 8d 85 00 f7 ff ff 	lea    -0x900(%rbp),%rax
   15848:	48 83 c0 18          	add    $0x18,%rax
   1584c:	48 89 85 18 fe ff ff 	mov    %rax,-0x1e8(%rbp)
   15853:	48 8d 85 00 f7 ff ff 	lea    -0x900(%rbp),%rax
   1585a:	48 83 c0 18          	add    $0x18,%rax
   1585e:	48 89 85 20 fe ff ff 	mov    %rax,-0x1e0(%rbp)
   15865:	48 8d 85 00 f7 ff ff 	lea    -0x900(%rbp),%rax
   1586c:	48 83 c0 20          	add    $0x20,%rax
   15870:	48 89 85 28 fe ff ff 	mov    %rax,-0x1d8(%rbp)
   15877:	48 8d 85 00 f7 ff ff 	lea    -0x900(%rbp),%rax
   1587e:	48 83 c0 18          	add    $0x18,%rax
   15882:	48 89 85 30 fe ff ff 	mov    %rax,-0x1d0(%rbp)
   15889:	48 8d 85 00 f7 ff ff 	lea    -0x900(%rbp),%rax
   15890:	48 83 c0 20          	add    $0x20,%rax
   15894:	48 89 85 38 fe ff ff 	mov    %rax,-0x1c8(%rbp)
   1589b:	48 8d 85 00 f7 ff ff 	lea    -0x900(%rbp),%rax
   158a2:	48 83 c0 20          	add    $0x20,%rax
   158a6:	48 89 85 40 fe ff ff 	mov    %rax,-0x1c0(%rbp)
   158ad:	48 8d 85 00 f7 ff ff 	lea    -0x900(%rbp),%rax
   158b4:	48 89 85 48 fe ff ff 	mov    %rax,-0x1b8(%rbp)
   158bb:	48 c7 85 50 fe ff ff 	movq   $0x0,-0x1b0(%rbp)
   158c2:	00 00 00 00 
   158c6:	48 8d 85 00 f7 ff ff 	lea    -0x900(%rbp),%rax
   158cd:	48 89 85 58 fe ff ff 	mov    %rax,-0x1a8(%rbp)
   158d4:	48 8d 85 00 f7 ff ff 	lea    -0x900(%rbp),%rax
   158db:	48 83 c0 20          	add    $0x20,%rax
   158df:	48 89 85 60 fe ff ff 	mov    %rax,-0x1a0(%rbp)
   158e6:	48 8d 85 00 f7 ff ff 	lea    -0x900(%rbp),%rax
   158ed:	48 83 c0 20          	add    $0x20,%rax
   158f1:	48 89 85 68 fe ff ff 	mov    %rax,-0x198(%rbp)
   158f8:	48 8d 85 00 f7 ff ff 	lea    -0x900(%rbp),%rax
   158ff:	48 83 c0 18          	add    $0x18,%rax
   15903:	48 89 85 70 fe ff ff 	mov    %rax,-0x190(%rbp)
   1590a:	48 8d 85 00 f7 ff ff 	lea    -0x900(%rbp),%rax
   15911:	48 83 c0 20          	add    $0x20,%rax
   15915:	48 89 85 78 fe ff ff 	mov    %rax,-0x188(%rbp)
   1591c:	48 8d 85 00 f7 ff ff 	lea    -0x900(%rbp),%rax
   15923:	48 83 c0 18          	add    $0x18,%rax
   15927:	48 89 85 80 fe ff ff 	mov    %rax,-0x180(%rbp)
   1592e:	48 8d 85 00 f7 ff ff 	lea    -0x900(%rbp),%rax
   15935:	48 83 c0 18          	add    $0x18,%rax
   15939:	48 89 85 88 fe ff ff 	mov    %rax,-0x178(%rbp)
   15940:	48 8d 85 00 f7 ff ff 	lea    -0x900(%rbp),%rax
   15947:	48 89 85 90 fe ff ff 	mov    %rax,-0x170(%rbp)
   1594e:	48 8d 85 00 f7 ff ff 	lea    -0x900(%rbp),%rax
   15955:	48 83 c0 20          	add    $0x20,%rax
   15959:	48 89 85 98 fe ff ff 	mov    %rax,-0x168(%rbp)
   15960:	48 8d 85 00 f7 ff ff 	lea    -0x900(%rbp),%rax
   15967:	48 83 c0 18          	add    $0x18,%rax
   1596b:	48 89 85 a0 fe ff ff 	mov    %rax,-0x160(%rbp)
   15972:	48 8d 85 00 f7 ff ff 	lea    -0x900(%rbp),%rax
   15979:	48 83 c0 18          	add    $0x18,%rax
   1597d:	48 89 85 a8 fe ff ff 	mov    %rax,-0x158(%rbp)
   15984:	48 8d 85 00 f7 ff ff 	lea    -0x900(%rbp),%rax
   1598b:	48 83 c0 20          	add    $0x20,%rax
   1598f:	48 89 85 b0 fe ff ff 	mov    %rax,-0x150(%rbp)
   15996:	48 8d 85 00 f7 ff ff 	lea    -0x900(%rbp),%rax
   1599d:	48 89 85 b8 fe ff ff 	mov    %rax,-0x148(%rbp)
   159a4:	48 8d 85 00 f7 ff ff 	lea    -0x900(%rbp),%rax
   159ab:	48 83 c0 18          	add    $0x18,%rax
   159af:	48 89 85 c0 fe ff ff 	mov    %rax,-0x140(%rbp)
   159b6:	48 8d 85 00 f7 ff ff 	lea    -0x900(%rbp),%rax
   159bd:	48 83 c0 18          	add    $0x18,%rax
   159c1:	48 89 85 c8 fe ff ff 	mov    %rax,-0x138(%rbp)
   159c8:	48 8d 85 00 f7 ff ff 	lea    -0x900(%rbp),%rax
   159cf:	48 83 c0 20          	add    $0x20,%rax
   159d3:	48 89 85 d0 fe ff ff 	mov    %rax,-0x130(%rbp)
   159da:	48 8d 85 00 f7 ff ff 	lea    -0x900(%rbp),%rax
   159e1:	48 83 c0 18          	add    $0x18,%rax
   159e5:	48 89 85 d8 fe ff ff 	mov    %rax,-0x128(%rbp)
   159ec:	48 8d 85 00 f7 ff ff 	lea    -0x900(%rbp),%rax
   159f3:	48 83 c0 20          	add    $0x20,%rax
   159f7:	48 89 85 e0 fe ff ff 	mov    %rax,-0x120(%rbp)
   159fe:	48 8d 85 00 f7 ff ff 	lea    -0x900(%rbp),%rax
   15a05:	48 83 c0 20          	add    $0x20,%rax
   15a09:	48 89 85 e8 fe ff ff 	mov    %rax,-0x118(%rbp)
   15a10:	48 8d 85 00 f7 ff ff 	lea    -0x900(%rbp),%rax
   15a17:	48 89 85 f0 fe ff ff 	mov    %rax,-0x110(%rbp)
   15a1e:	48 c7 85 f8 fe ff ff 	movq   $0x0,-0x108(%rbp)
   15a25:	00 00 00 00 
   15a29:	48 8d 85 00 f7 ff ff 	lea    -0x900(%rbp),%rax
   15a30:	48 89 85 00 ff ff ff 	mov    %rax,-0x100(%rbp)
   15a37:	48 8d 85 00 f7 ff ff 	lea    -0x900(%rbp),%rax
   15a3e:	48 83 c0 20          	add    $0x20,%rax
   15a42:	48 89 85 08 ff ff ff 	mov    %rax,-0xf8(%rbp)
   15a49:	48 8d 85 00 f7 ff ff 	lea    -0x900(%rbp),%rax
   15a50:	48 83 c0 20          	add    $0x20,%rax
   15a54:	48 89 85 10 ff ff ff 	mov    %rax,-0xf0(%rbp)
   15a5b:	48 8d 85 00 f7 ff ff 	lea    -0x900(%rbp),%rax
   15a62:	48 83 c0 18          	add    $0x18,%rax
   15a66:	48 89 85 18 ff ff ff 	mov    %rax,-0xe8(%rbp)
   15a6d:	48 8d 85 00 f7 ff ff 	lea    -0x900(%rbp),%rax
   15a74:	48 83 c0 20          	add    $0x20,%rax
   15a78:	48 89 85 20 ff ff ff 	mov    %rax,-0xe0(%rbp)
   15a7f:	48 8d 85 00 f7 ff ff 	lea    -0x900(%rbp),%rax
   15a86:	48 83 c0 18          	add    $0x18,%rax
   15a8a:	48 89 85 28 ff ff ff 	mov    %rax,-0xd8(%rbp)
   15a91:	48 8d 85 00 f7 ff ff 	lea    -0x900(%rbp),%rax
   15a98:	48 83 c0 18          	add    $0x18,%rax
   15a9c:	48 89 85 30 ff ff ff 	mov    %rax,-0xd0(%rbp)
   15aa3:	48 8d 85 00 f7 ff ff 	lea    -0x900(%rbp),%rax
   15aaa:	48 89 85 38 ff ff ff 	mov    %rax,-0xc8(%rbp)
   15ab1:	48 8d 85 00 f7 ff ff 	lea    -0x900(%rbp),%rax
   15ab8:	48 83 c0 20          	add    $0x20,%rax
   15abc:	48 89 85 40 ff ff ff 	mov    %rax,-0xc0(%rbp)
   15ac3:	48 8d 85 00 f7 ff ff 	lea    -0x900(%rbp),%rax
   15aca:	48 83 c0 18          	add    $0x18,%rax
   15ace:	48 89 85 48 ff ff ff 	mov    %rax,-0xb8(%rbp)
   15ad5:	48 8d 85 00 f7 ff ff 	lea    -0x900(%rbp),%rax
   15adc:	48 83 c0 18          	add    $0x18,%rax
   15ae0:	48 89 85 50 ff ff ff 	mov    %rax,-0xb0(%rbp)
   15ae7:	48 8d 85 00 f7 ff ff 	lea    -0x900(%rbp),%rax
   15aee:	48 83 c0 20          	add    $0x20,%rax
   15af2:	48 89 85 58 ff ff ff 	mov    %rax,-0xa8(%rbp)
   15af9:	48 8d 85 00 f7 ff ff 	lea    -0x900(%rbp),%rax
   15b00:	48 89 85 60 ff ff ff 	mov    %rax,-0xa0(%rbp)
   15b07:	48 8d 85 00 f7 ff ff 	lea    -0x900(%rbp),%rax
   15b0e:	48 83 c0 18          	add    $0x18,%rax
   15b12:	48 89 85 68 ff ff ff 	mov    %rax,-0x98(%rbp)
   15b19:	48 8d 85 00 f7 ff ff 	lea    -0x900(%rbp),%rax
   15b20:	48 83 c0 18          	add    $0x18,%rax
   15b24:	48 89 85 70 ff ff ff 	mov    %rax,-0x90(%rbp)
   15b2b:	48 8d 85 00 f7 ff ff 	lea    -0x900(%rbp),%rax
   15b32:	48 83 c0 20          	add    $0x20,%rax
   15b36:	48 89 85 78 ff ff ff 	mov    %rax,-0x88(%rbp)
   15b3d:	66 c7 85 90 f4 ff ff 	movw   $0x5d40,-0xb70(%rbp)
   15b44:	40 5d 
   15b46:	48 8d 05 ef 76 00 00 	lea    0x76ef(%rip),%rax        # 1d23c <g_215>
   15b4d:	48 89 85 68 f5 ff ff 	mov    %rax,-0xa98(%rbp)
   15b54:	c7 85 b0 f4 ff ff 00 	movl   $0x0,-0xb50(%rbp)
   15b5b:	00 00 00 
   15b5e:	eb 1e                	jmp    15b7e <func_60+0x26a1>
   15b60:	8b 85 b0 f4 ff ff    	mov    -0xb50(%rbp),%eax
   15b66:	48 98                	cltq   
   15b68:	48 8d 95 08 f5 ff ff 	lea    -0xaf8(%rbp),%rdx
   15b6f:	48 89 94 c5 00 f7 ff 	mov    %rdx,-0x900(%rbp,%rax,8)
   15b76:	ff 
   15b77:	83 85 b0 f4 ff ff 01 	addl   $0x1,-0xb50(%rbp)
   15b7e:	83 bd b0 f4 ff ff 04 	cmpl   $0x4,-0xb50(%rbp)
   15b85:	7e d9                	jle    15b60 <func_60+0x2683>
   15b87:	48 c7 05 b6 76 00 00 	movq   $0x4,0x76b6(%rip)        # 1d248 <g_236>
   15b8e:	04 00 00 00 
   15b92:	e9 1e 07 00 00       	jmpq   162b5 <func_60+0x2dd8>
   15b97:	48 8d 85 88 f4 ff ff 	lea    -0xb78(%rbp),%rax
   15b9e:	48 89 85 70 f5 ff ff 	mov    %rax,-0xa90(%rbp)
   15ba5:	48 8d 85 88 f4 ff ff 	lea    -0xb78(%rbp),%rax
   15bac:	48 89 85 10 f5 ff ff 	mov    %rax,-0xaf0(%rbp)
   15bb3:	48 8d 85 10 f5 ff ff 	lea    -0xaf0(%rbp),%rax
   15bba:	48 89 85 78 f5 ff ff 	mov    %rax,-0xa88(%rbp)
   15bc1:	48 8d 05 10 76 00 00 	lea    0x7610(%rip),%rax        # 1d1d8 <g_42>
   15bc8:	48 89 85 18 f5 ff ff 	mov    %rax,-0xae8(%rbp)
   15bcf:	48 8d 05 e0 74 00 00 	lea    0x74e0(%rip),%rax        # 1d0b6 <g_4+0x76>
   15bd6:	48 89 85 80 f5 ff ff 	mov    %rax,-0xa80(%rbp)
   15bdd:	48 8d 05 58 76 00 00 	lea    0x7658(%rip),%rax        # 1d23c <g_215>
   15be4:	48 89 85 20 f5 ff ff 	mov    %rax,-0xae0(%rbp)
   15beb:	c7 85 b4 f4 ff ff 00 	movl   $0x0,-0xb4c(%rbp)
   15bf2:	00 00 00 
   15bf5:	eb 1e                	jmp    15c15 <func_60+0x2738>
   15bf7:	8b 85 b4 f4 ff ff    	mov    -0xb4c(%rbp),%eax
   15bfd:	48 98                	cltq   
   15bff:	48 8d 95 8a f4 ff ff 	lea    -0xb76(%rbp),%rdx
   15c06:	48 89 94 c5 70 f6 ff 	mov    %rdx,-0x990(%rbp,%rax,8)
   15c0d:	ff 
   15c0e:	83 85 b4 f4 ff ff 01 	addl   $0x1,-0xb4c(%rbp)
   15c15:	83 bd b4 f4 ff ff 02 	cmpl   $0x2,-0xb4c(%rbp)
   15c1c:	7e d9                	jle    15bf7 <func_60+0x271a>
   15c1e:	66 83 bd 7c f4 ff ff 	cmpw   $0x0,-0xb84(%rbp)
   15c25:	00 
   15c26:	0f 85 9b 06 00 00    	jne    162c7 <func_60+0x2dea>
   15c2c:	83 bd bc f4 ff ff 00 	cmpl   $0x0,-0xb44(%rbp)
   15c33:	0f 85 69 06 00 00    	jne    162a2 <func_60+0x2dc5>
   15c39:	0f b7 9d 7c f4 ff ff 	movzwl -0xb84(%rbp),%ebx
   15c40:	8b 05 02 76 00 00    	mov    0x7602(%rip),%eax        # 1d248 <g_236>
   15c46:	44 0f be e0          	movsbl %al,%r12d
   15c4a:	48 8b 95 c0 f8 ff ff 	mov    -0x740(%rbp),%rdx
   15c51:	48 8b 85 70 f4 ff ff 	mov    -0xb90(%rbp),%rax
   15c58:	48 39 c2             	cmp    %rax,%rdx
   15c5b:	0f 95 c0             	setne  %al
   15c5e:	44 0f b6 e8          	movzbl %al,%r13d
   15c62:	48 8b 05 df 75 00 00 	mov    0x75df(%rip),%rax        # 1d248 <g_236>
   15c69:	48 8d 15 74 75 00 00 	lea    0x7574(%rip),%rdx        # 1d1e4 <g_91>
   15c70:	c6 04 10 01          	movb   $0x1,(%rax,%rdx,1)
   15c74:	48 8b 85 18 f5 ff ff 	mov    -0xae8(%rbp),%rax
   15c7b:	48 8b 10             	mov    (%rax),%rdx
   15c7e:	48 83 ea 01          	sub    $0x1,%rdx
   15c82:	48 89 10             	mov    %rdx,(%rax)
   15c85:	48 8b 85 80 f5 ff ff 	mov    -0xa80(%rbp),%rax
   15c8c:	0f b7 00             	movzwl (%rax),%eax
   15c8f:	8d 48 01             	lea    0x1(%rax),%ecx
   15c92:	48 8b 95 80 f5 ff ff 	mov    -0xa80(%rbp),%rdx
   15c99:	66 89 0a             	mov    %cx,(%rdx)
   15c9c:	66 89 05 ad 75 00 00 	mov    %ax,0x75ad(%rip)        # 1d250 <g_264>
   15ca3:	0f b7 05 a6 75 00 00 	movzwl 0x75a6(%rip),%eax        # 1d250 <g_264>
   15caa:	0f bf d0             	movswl %ax,%edx
   15cad:	48 8b 85 70 f5 ff ff 	mov    -0xa90(%rbp),%rax
   15cb4:	48 89 85 58 f6 ff ff 	mov    %rax,-0x9a8(%rbp)
   15cbb:	48 8b b5 58 f6 ff ff 	mov    -0x9a8(%rbp),%rsi
   15cc2:	48 8b 85 78 f5 ff ff 	mov    -0xa88(%rbp),%rax
   15cc9:	48 8d 8d 88 f4 ff ff 	lea    -0xb78(%rbp),%rcx
   15cd0:	48 89 08             	mov    %rcx,(%rax)
   15cd3:	48 8b 85 78 f5 ff ff 	mov    -0xa88(%rbp),%rax
   15cda:	48 8b 00             	mov    (%rax),%rax
   15cdd:	48 39 c6             	cmp    %rax,%rsi
   15ce0:	0f 94 c0             	sete   %al
   15ce3:	0f b6 c0             	movzbl %al,%eax
   15ce6:	89 d6                	mov    %edx,%esi
   15ce8:	89 c7                	mov    %eax,%edi
   15cea:	e8 c4 16 ff ff       	callq  73b3 <safe_add_func_int16_t_s_s>
   15cef:	83 f0 01             	xor    $0x1,%eax
   15cf2:	0f be c0             	movsbl %al,%eax
   15cf5:	44 89 ee             	mov    %r13d,%esi
   15cf8:	89 c7                	mov    %eax,%edi
   15cfa:	e8 13 15 ff ff       	callq  7212 <safe_mul_func_int8_t_s_s>
   15cff:	0f b7 85 7c f4 ff ff 	movzwl -0xb84(%rbp),%eax
   15d06:	98                   	cwtl   
   15d07:	be 00 00 00 00       	mov    $0x0,%esi
   15d0c:	89 c7                	mov    %eax,%edi
   15d0e:	e8 ce 17 ff ff       	callq  74e1 <safe_lshift_func_int16_t_s_u>
   15d13:	0f b6 c0             	movzbl %al,%eax
   15d16:	be 01 00 00 00       	mov    $0x1,%esi
   15d1b:	89 c7                	mov    %eax,%edi
   15d1d:	e8 71 1e ff ff       	callq  7b93 <safe_mul_func_uint8_t_u_u>
   15d22:	84 c0                	test   %al,%al
   15d24:	75 08                	jne    15d2e <func_60+0x2851>
   15d26:	66 83 bd 7c f4 ff ff 	cmpw   $0x0,-0xb84(%rbp)
   15d2d:	00 
   15d2e:	48 8b 05 a3 74 00 00 	mov    0x74a3(%rip),%rax        # 1d1d8 <g_42>
   15d35:	0f be c0             	movsbl %al,%eax
   15d38:	44 89 e6             	mov    %r12d,%esi
   15d3b:	89 c7                	mov    %eax,%edi
   15d3d:	e8 28 15 ff ff       	callq  726a <safe_div_func_int8_t_s_s>
   15d42:	48 0f be c0          	movsbq %al,%rax
   15d46:	48 89 de             	mov    %rbx,%rsi
   15d49:	48 89 c7             	mov    %rax,%rdi
   15d4c:	e8 2f 23 ff ff       	callq  8080 <safe_mod_func_uint64_t_u_u>
   15d51:	48 85 c0             	test   %rax,%rax
   15d54:	75 10                	jne    15d66 <func_60+0x2889>
   15d56:	48 8b 05 eb 74 00 00 	mov    0x74eb(%rip),%rax        # 1d248 <g_236>
   15d5d:	48 85 c0             	test   %rax,%rax
   15d60:	0f 84 c9 01 00 00    	je     15f2f <func_60+0x2a52>
   15d66:	c7 85 c4 f4 ff ff 17 	movl   $0x14f8bb17,-0xb3c(%rbp)
   15d6d:	bb f8 14 
   15d70:	66 c7 85 8a f4 ff ff 	movw   $0x9,-0xb76(%rbp)
   15d77:	09 00 
   15d79:	e9 9b 01 00 00       	jmpq   15f19 <func_60+0x2a3c>
   15d7e:	48 8d 85 20 f5 ff ff 	lea    -0xae0(%rbp),%rax
   15d85:	48 89 85 90 f5 ff ff 	mov    %rax,-0xa70(%rbp)
   15d8c:	48 8d 85 8c f4 ff ff 	lea    -0xb74(%rbp),%rax
   15d93:	48 89 85 98 f5 ff ff 	mov    %rax,-0xa68(%rbp)
   15d9a:	0f b7 85 8a f4 ff ff 	movzwl -0xb76(%rbp),%eax
   15da1:	66 85 c0             	test   %ax,%ax
   15da4:	74 05                	je     15dab <func_60+0x28ce>
   15da6:	e9 3f dc ff ff       	jmpq   139ea <func_60+0x50d>
   15dab:	48 8b 05 a6 8a 00 00 	mov    0x8aa6(%rip),%rax        # 1e858 <g_218>
   15db2:	8b 00                	mov    (%rax),%eax
   15db4:	85 c0                	test   %eax,%eax
   15db6:	0f 85 3c 01 00 00    	jne    15ef8 <func_60+0x2a1b>
   15dbc:	48 8b 95 20 f5 ff ff 	mov    -0xae0(%rbp),%rdx
   15dc3:	48 8b 85 90 f5 ff ff 	mov    -0xa70(%rbp),%rax
   15dca:	48 89 10             	mov    %rdx,(%rax)
   15dcd:	48 8b 85 38 f5 ff ff 	mov    -0xac8(%rbp),%rax
   15dd4:	41 89 c5             	mov    %eax,%r13d
   15dd7:	0f b7 85 7c f4 ff ff 	movzwl -0xb84(%rbp),%eax
   15dde:	0b 85 c4 f4 ff ff    	or     -0xb3c(%rbp),%eax
   15de4:	85 c0                	test   %eax,%eax
   15de6:	0f 95 c0             	setne  %al
   15de9:	0f b6 c0             	movzbl %al,%eax
   15dec:	f7 d0                	not    %eax
   15dee:	41 89 c4             	mov    %eax,%r12d
   15df1:	0f b7 05 9e 72 00 00 	movzwl 0x729e(%rip),%eax        # 1d096 <g_4+0x56>
   15df8:	0f b7 d8             	movzwl %ax,%ebx
   15dfb:	8b 85 94 f4 ff ff    	mov    -0xb6c(%rbp),%eax
   15e01:	85 c0                	test   %eax,%eax
   15e03:	0f 84 93 00 00 00    	je     15e9c <func_60+0x29bf>
   15e09:	0f b7 05 40 74 00 00 	movzwl 0x7440(%rip),%eax        # 1d250 <g_264>
   15e10:	0f b6 c0             	movzbl %al,%eax
   15e13:	be 05 00 00 00       	mov    $0x5,%esi
   15e18:	89 c7                	mov    %eax,%edi
   15e1a:	e8 2d 1e ff ff       	callq  7c4c <safe_lshift_func_uint8_t_u_u>
   15e1f:	0f b6 d0             	movzbl %al,%edx
   15e22:	48 8b 85 20 f5 ff ff 	mov    -0xae0(%rbp),%rax
   15e29:	8b 00                	mov    (%rax),%eax
   15e2b:	85 c0                	test   %eax,%eax
   15e2d:	74 10                	je     15e3f <func_60+0x2962>
   15e2f:	83 bd ac f4 ff ff 00 	cmpl   $0x0,-0xb54(%rbp)
   15e36:	74 07                	je     15e3f <func_60+0x2962>
   15e38:	b8 01 00 00 00       	mov    $0x1,%eax
   15e3d:	eb 05                	jmp    15e44 <func_60+0x2967>
   15e3f:	b8 00 00 00 00       	mov    $0x0,%eax
   15e44:	0b 85 c4 f4 ff ff    	or     -0xb3c(%rbp),%eax
   15e4a:	09 d0                	or     %edx,%eax
   15e4c:	89 85 ac f4 ff ff    	mov    %eax,-0xb54(%rbp)
   15e52:	8b 05 88 73 00 00    	mov    0x7388(%rip),%eax        # 1d1e0 <g_65>
   15e58:	39 85 ac f4 ff ff    	cmp    %eax,-0xb54(%rbp)
   15e5e:	0f 9f c0             	setg   %al
   15e61:	0f b6 d0             	movzbl %al,%edx
   15e64:	48 8b 85 98 f5 ff ff 	mov    -0xa68(%rbp),%rax
   15e6b:	0f b7 00             	movzwl (%rax),%eax
   15e6e:	31 c2                	xor    %eax,%edx
   15e70:	48 8b 85 98 f5 ff ff 	mov    -0xa68(%rbp),%rax
   15e77:	66 89 10             	mov    %dx,(%rax)
   15e7a:	48 8b 85 98 f5 ff ff 	mov    -0xa68(%rbp),%rax
   15e81:	0f b7 00             	movzwl (%rax),%eax
   15e84:	0f bf d0             	movswl %ax,%edx
   15e87:	0f b7 05 08 72 00 00 	movzwl 0x7208(%rip),%eax        # 1d096 <g_4+0x56>
   15e8e:	0f b7 c0             	movzwl %ax,%eax
   15e91:	39 c2                	cmp    %eax,%edx
   15e93:	7e 07                	jle    15e9c <func_60+0x29bf>
   15e95:	b8 01 00 00 00       	mov    $0x1,%eax
   15e9a:	eb 05                	jmp    15ea1 <func_60+0x29c4>
   15e9c:	b8 00 00 00 00       	mov    $0x0,%eax
   15ea1:	89 c2                	mov    %eax,%edx
   15ea3:	8b 05 97 73 00 00    	mov    0x7397(%rip),%eax        # 1d240 <g_231>
   15ea9:	39 c2                	cmp    %eax,%edx
   15eab:	0f 96 c0             	setbe  %al
   15eae:	0f b6 d0             	movzbl %al,%edx
   15eb1:	0f b7 05 70 73 00 00 	movzwl 0x7370(%rip),%eax        # 1d228 <g_125>
   15eb8:	98                   	cwtl   
   15eb9:	39 c2                	cmp    %eax,%edx
   15ebb:	0f 94 c0             	sete   %al
   15ebe:	0f b6 c0             	movzbl %al,%eax
   15ec1:	be 07 00 00 00       	mov    $0x7,%esi
   15ec6:	89 c7                	mov    %eax,%edi
   15ec8:	e8 68 14 ff ff       	callq  7335 <safe_rshift_func_int8_t_s_s>
   15ecd:	0f be c0             	movsbl %al,%eax
   15ed0:	39 c3                	cmp    %eax,%ebx
   15ed2:	0f 9f c0             	setg   %al
   15ed5:	0f b6 c0             	movzbl %al,%eax
   15ed8:	41 39 c4             	cmp    %eax,%r12d
   15edb:	0f 9f c0             	setg   %al
   15ede:	0f b6 c0             	movzbl %al,%eax
   15ee1:	44 89 ee             	mov    %r13d,%esi
   15ee4:	89 c7                	mov    %eax,%edi
   15ee6:	e8 e5 1f ff ff       	callq  7ed0 <safe_sub_func_uint32_t_u_u>
   15eeb:	89 c2                	mov    %eax,%edx
   15eed:	48 8b 85 e8 f4 ff ff 	mov    -0xb18(%rbp),%rax
   15ef4:	89 10                	mov    %edx,(%rax)
   15ef6:	eb 01                	jmp    15ef9 <func_60+0x2a1c>
   15ef8:	90                   	nop
   15ef9:	0f b7 85 8a f4 ff ff 	movzwl -0xb76(%rbp),%eax
   15f00:	0f b6 c0             	movzbl %al,%eax
   15f03:	be 04 00 00 00       	mov    $0x4,%esi
   15f08:	89 c7                	mov    %eax,%edi
   15f0a:	e8 4b 1c ff ff       	callq  7b5a <safe_add_func_uint8_t_u_u>
   15f0f:	0f b6 c0             	movzbl %al,%eax
   15f12:	66 89 85 8a f4 ff ff 	mov    %ax,-0xb76(%rbp)
   15f19:	0f b7 85 8a f4 ff ff 	movzwl -0xb76(%rbp),%eax
   15f20:	66 83 f8 2b          	cmp    $0x2b,%ax
   15f24:	0f 87 54 fe ff ff    	ja     15d7e <func_60+0x28a1>
   15f2a:	e9 50 03 00 00       	jmpq   1627f <func_60+0x2da2>
   15f2f:	48 8d 05 2a 9c 00 00 	lea    0x9c2a(%rip),%rax        # 1fb60 <g_291>
   15f36:	48 89 85 d0 f8 ff ff 	mov    %rax,-0x730(%rbp)
   15f3d:	48 8d 85 18 f5 ff ff 	lea    -0xae8(%rbp),%rax
   15f44:	48 89 85 d8 f8 ff ff 	mov    %rax,-0x728(%rbp)
   15f4b:	48 8d 05 0e 9c 00 00 	lea    0x9c0e(%rip),%rax        # 1fb60 <g_291>
   15f52:	48 89 85 e0 f8 ff ff 	mov    %rax,-0x720(%rbp)
   15f59:	48 8d 85 18 f5 ff ff 	lea    -0xae8(%rbp),%rax
   15f60:	48 89 85 e8 f8 ff ff 	mov    %rax,-0x718(%rbp)
   15f67:	48 8d 05 f2 9b 00 00 	lea    0x9bf2(%rip),%rax        # 1fb60 <g_291>
   15f6e:	48 89 85 f0 f8 ff ff 	mov    %rax,-0x710(%rbp)
   15f75:	48 8d 85 18 f5 ff ff 	lea    -0xae8(%rbp),%rax
   15f7c:	48 89 85 f8 f8 ff ff 	mov    %rax,-0x708(%rbp)
   15f83:	48 8d 85 18 f5 ff ff 	lea    -0xae8(%rbp),%rax
   15f8a:	48 89 85 00 f9 ff ff 	mov    %rax,-0x700(%rbp)
   15f91:	48 8d 85 18 f5 ff ff 	lea    -0xae8(%rbp),%rax
   15f98:	48 89 85 08 f9 ff ff 	mov    %rax,-0x6f8(%rbp)
   15f9f:	48 8d 85 18 f5 ff ff 	lea    -0xae8(%rbp),%rax
   15fa6:	48 89 85 10 f9 ff ff 	mov    %rax,-0x6f0(%rbp)
   15fad:	48 8d 05 ac 9b 00 00 	lea    0x9bac(%rip),%rax        # 1fb60 <g_291>
   15fb4:	48 89 85 18 f9 ff ff 	mov    %rax,-0x6e8(%rbp)
   15fbb:	48 8d 85 18 f5 ff ff 	lea    -0xae8(%rbp),%rax
   15fc2:	48 89 85 20 f9 ff ff 	mov    %rax,-0x6e0(%rbp)
   15fc9:	48 8d 05 90 9b 00 00 	lea    0x9b90(%rip),%rax        # 1fb60 <g_291>
   15fd0:	48 89 85 28 f9 ff ff 	mov    %rax,-0x6d8(%rbp)
   15fd7:	48 8d 05 82 9b 00 00 	lea    0x9b82(%rip),%rax        # 1fb60 <g_291>
   15fde:	48 89 85 30 f9 ff ff 	mov    %rax,-0x6d0(%rbp)
   15fe5:	48 8d 05 74 9b 00 00 	lea    0x9b74(%rip),%rax        # 1fb60 <g_291>
   15fec:	48 89 85 38 f9 ff ff 	mov    %rax,-0x6c8(%rbp)
   15ff3:	48 8d 05 66 9b 00 00 	lea    0x9b66(%rip),%rax        # 1fb60 <g_291>
   15ffa:	48 89 85 40 f9 ff ff 	mov    %rax,-0x6c0(%rbp)
   16001:	48 8d 05 58 9b 00 00 	lea    0x9b58(%rip),%rax        # 1fb60 <g_291>
   16008:	48 89 85 48 f9 ff ff 	mov    %rax,-0x6b8(%rbp)
   1600f:	48 c7 85 50 f9 ff ff 	movq   $0x0,-0x6b0(%rbp)
   16016:	00 00 00 00 
   1601a:	48 8d 05 3f 9b 00 00 	lea    0x9b3f(%rip),%rax        # 1fb60 <g_291>
   16021:	48 89 85 58 f9 ff ff 	mov    %rax,-0x6a8(%rbp)
   16028:	48 8d 05 31 9b 00 00 	lea    0x9b31(%rip),%rax        # 1fb60 <g_291>
   1602f:	48 89 85 60 f9 ff ff 	mov    %rax,-0x6a0(%rbp)
   16036:	48 8d 85 18 f5 ff ff 	lea    -0xae8(%rbp),%rax
   1603d:	48 89 85 68 f9 ff ff 	mov    %rax,-0x698(%rbp)
   16044:	48 8d 85 18 f5 ff ff 	lea    -0xae8(%rbp),%rax
   1604b:	48 89 85 70 f9 ff ff 	mov    %rax,-0x690(%rbp)
   16052:	48 8d 05 07 9b 00 00 	lea    0x9b07(%rip),%rax        # 1fb60 <g_291>
   16059:	48 89 85 78 f9 ff ff 	mov    %rax,-0x688(%rbp)
   16060:	48 8d 05 f9 9a 00 00 	lea    0x9af9(%rip),%rax        # 1fb60 <g_291>
   16067:	48 89 85 80 f9 ff ff 	mov    %rax,-0x680(%rbp)
   1606e:	48 8d 05 eb 9a 00 00 	lea    0x9aeb(%rip),%rax        # 1fb60 <g_291>
   16075:	48 89 85 88 f9 ff ff 	mov    %rax,-0x678(%rbp)
   1607c:	48 8d 85 18 f5 ff ff 	lea    -0xae8(%rbp),%rax
   16083:	48 89 85 90 f9 ff ff 	mov    %rax,-0x670(%rbp)
   1608a:	48 8d 05 cf 9a 00 00 	lea    0x9acf(%rip),%rax        # 1fb60 <g_291>
   16091:	48 89 85 98 f9 ff ff 	mov    %rax,-0x668(%rbp)
   16098:	48 8d 85 18 f5 ff ff 	lea    -0xae8(%rbp),%rax
   1609f:	48 89 85 a0 f9 ff ff 	mov    %rax,-0x660(%rbp)
   160a6:	48 c7 85 a8 f9 ff ff 	movq   $0x0,-0x658(%rbp)
   160ad:	00 00 00 00 
   160b1:	48 8d 85 18 f5 ff ff 	lea    -0xae8(%rbp),%rax
   160b8:	48 89 85 b0 f9 ff ff 	mov    %rax,-0x650(%rbp)
   160bf:	48 8d 85 18 f5 ff ff 	lea    -0xae8(%rbp),%rax
   160c6:	48 89 85 b8 f9 ff ff 	mov    %rax,-0x648(%rbp)
   160cd:	48 8d 85 18 f5 ff ff 	lea    -0xae8(%rbp),%rax
   160d4:	48 89 85 c0 f9 ff ff 	mov    %rax,-0x640(%rbp)
   160db:	48 8d 85 18 f5 ff ff 	lea    -0xae8(%rbp),%rax
   160e2:	48 89 85 c8 f9 ff ff 	mov    %rax,-0x638(%rbp)
   160e9:	48 8d 85 18 f5 ff ff 	lea    -0xae8(%rbp),%rax
   160f0:	48 89 85 d0 f9 ff ff 	mov    %rax,-0x630(%rbp)
   160f7:	48 8d 85 18 f5 ff ff 	lea    -0xae8(%rbp),%rax
   160fe:	48 89 85 d8 f9 ff ff 	mov    %rax,-0x628(%rbp)
   16105:	48 8d 05 54 9a 00 00 	lea    0x9a54(%rip),%rax        # 1fb60 <g_291>
   1610c:	48 89 85 e0 f9 ff ff 	mov    %rax,-0x620(%rbp)
   16113:	48 8d 05 46 9a 00 00 	lea    0x9a46(%rip),%rax        # 1fb60 <g_291>
   1611a:	48 89 85 e8 f9 ff ff 	mov    %rax,-0x618(%rbp)
   16121:	48 8d 85 18 f5 ff ff 	lea    -0xae8(%rbp),%rax
   16128:	48 89 85 f0 f9 ff ff 	mov    %rax,-0x610(%rbp)
   1612f:	48 8d 85 18 f5 ff ff 	lea    -0xae8(%rbp),%rax
   16136:	48 89 85 f8 f9 ff ff 	mov    %rax,-0x608(%rbp)
   1613d:	48 8d 85 18 f5 ff ff 	lea    -0xae8(%rbp),%rax
   16144:	48 89 85 00 fa ff ff 	mov    %rax,-0x600(%rbp)
   1614b:	48 8d 85 18 f5 ff ff 	lea    -0xae8(%rbp),%rax
   16152:	48 89 85 08 fa ff ff 	mov    %rax,-0x5f8(%rbp)
   16159:	48 8d 85 18 f5 ff ff 	lea    -0xae8(%rbp),%rax
   16160:	48 89 85 10 fa ff ff 	mov    %rax,-0x5f0(%rbp)
   16167:	48 8d 85 18 f5 ff ff 	lea    -0xae8(%rbp),%rax
   1616e:	48 89 85 18 fa ff ff 	mov    %rax,-0x5e8(%rbp)
   16175:	48 8d 85 18 f5 ff ff 	lea    -0xae8(%rbp),%rax
   1617c:	48 89 85 20 fa ff ff 	mov    %rax,-0x5e0(%rbp)
   16183:	48 8d 05 d6 99 00 00 	lea    0x99d6(%rip),%rax        # 1fb60 <g_291>
   1618a:	48 89 85 28 fa ff ff 	mov    %rax,-0x5d8(%rbp)
   16191:	48 8d 85 18 f5 ff ff 	lea    -0xae8(%rbp),%rax
   16198:	48 89 85 30 fa ff ff 	mov    %rax,-0x5d0(%rbp)
   1619f:	48 8d 85 18 f5 ff ff 	lea    -0xae8(%rbp),%rax
   161a6:	48 89 85 38 fa ff ff 	mov    %rax,-0x5c8(%rbp)
   161ad:	48 c7 85 40 fa ff ff 	movq   $0x0,-0x5c0(%rbp)
   161b4:	00 00 00 00 
   161b8:	48 8d 85 18 f5 ff ff 	lea    -0xae8(%rbp),%rax
   161bf:	48 89 85 48 fa ff ff 	mov    %rax,-0x5b8(%rbp)
   161c6:	48 8d 85 18 f5 ff ff 	lea    -0xae8(%rbp),%rax
   161cd:	48 89 85 50 fa ff ff 	mov    %rax,-0x5b0(%rbp)
   161d4:	48 8d 85 18 f5 ff ff 	lea    -0xae8(%rbp),%rax
   161db:	48 89 85 58 fa ff ff 	mov    %rax,-0x5a8(%rbp)
   161e2:	48 8d 85 d0 f8 ff ff 	lea    -0x730(%rbp),%rax
   161e9:	48 83 c0 10          	add    $0x10,%rax
   161ed:	48 89 85 88 f5 ff ff 	mov    %rax,-0xa78(%rbp)
   161f4:	c7 85 c0 f4 ff ff f0 	movl   $0x4cfcf2f0,-0xb40(%rbp)
   161fb:	f2 fc 4c 
   161fe:	48 8b 85 68 f4 ff ff 	mov    -0xb98(%rbp),%rax
   16205:	48 8b 00             	mov    (%rax),%rax
   16208:	48 89 c3             	mov    %rax,%rbx
   1620b:	48 8b 95 e0 f8 ff ff 	mov    -0x720(%rbp),%rdx
   16212:	48 8b 85 88 f5 ff ff 	mov    -0xa78(%rbp),%rax
   16219:	48 89 10             	mov    %rdx,(%rax)
   1621c:	48 8b 15 25 86 00 00 	mov    0x8625(%rip),%rdx        # 1e848 <g_39>
   16223:	48 8b 85 38 f5 ff ff 	mov    -0xac8(%rbp),%rax
   1622a:	0f b7 c0             	movzwl %ax,%eax
   1622d:	48 89 d6             	mov    %rdx,%rsi
   16230:	89 c7                	mov    %eax,%edi
   16232:	e8 b3 b7 ff ff       	callq  119ea <func_47>
   16237:	8b 85 ac f4 ff ff    	mov    -0xb54(%rbp),%eax
   1623d:	48 98                	cltq   
   1623f:	be 05 00 00 00       	mov    $0x5,%esi
   16244:	48 89 c7             	mov    %rax,%rdi
   16247:	e8 ab 17 ff ff       	callq  79f7 <safe_div_func_int64_t_s_s>
   1624c:	c7 85 c0 f4 ff ff d1 	movl   $0x9459b8d1,-0xb40(%rbp)
   16253:	b8 59 94 
   16256:	8b 85 c0 f4 ff ff    	mov    -0xb40(%rbp),%eax
   1625c:	48 98                	cltq   
   1625e:	48 89 de             	mov    %rbx,%rsi
   16261:	48 89 c7             	mov    %rax,%rdi
   16264:	e8 3f 16 ff ff       	callq  78a8 <safe_sub_func_int64_t_s_s>
   16269:	48 8b 95 e8 f4 ff ff 	mov    -0xb18(%rbp),%rdx
   16270:	8b 12                	mov    (%rdx),%edx
   16272:	89 c1                	mov    %eax,%ecx
   16274:	48 8b 85 e8 f4 ff ff 	mov    -0xb18(%rbp),%rax
   1627b:	09 ca                	or     %ecx,%edx
   1627d:	89 10                	mov    %edx,(%rax)
   1627f:	66 c7 05 a0 6f 00 00 	movw   $0xfff8,0x6fa0(%rip)        # 1d228 <g_125>
   16286:	f8 ff 
   16288:	90                   	nop
   16289:	0f b7 05 98 6f 00 00 	movzwl 0x6f98(%rip),%eax        # 1d228 <g_125>
   16290:	66 83 f8 16          	cmp    $0x16,%ax
   16294:	7f 0d                	jg     162a3 <func_60+0x2dc6>
   16296:	48 8d 05 ab 85 00 00 	lea    0x85ab(%rip),%rax        # 1e848 <g_39>
   1629d:	e9 b7 03 00 00       	jmpq   16659 <func_60+0x317c>
   162a2:	90                   	nop
   162a3:	48 8b 05 9e 6f 00 00 	mov    0x6f9e(%rip),%rax        # 1d248 <g_236>
   162aa:	48 83 e8 01          	sub    $0x1,%rax
   162ae:	48 89 05 93 6f 00 00 	mov    %rax,0x6f93(%rip)        # 1d248 <g_236>
   162b5:	48 8b 05 8c 6f 00 00 	mov    0x6f8c(%rip),%rax        # 1d248 <g_236>
   162bc:	48 85 c0             	test   %rax,%rax
   162bf:	0f 8f d2 f8 ff ff    	jg     15b97 <func_60+0x26ba>
   162c5:	eb 01                	jmp    162c8 <func_60+0x2deb>
   162c7:	90                   	nop
   162c8:	c6 85 89 f4 ff ff 00 	movb   $0x0,-0xb77(%rbp)
   162cf:	eb 1b                	jmp    162ec <func_60+0x2e0f>
   162d1:	0f b6 85 89 f4 ff ff 	movzbl -0xb77(%rbp),%eax
   162d8:	48 98                	cltq   
   162da:	c7 84 85 b0 f6 ff ff 	movl   $0x8,-0x950(%rbp,%rax,4)
   162e1:	08 00 00 00 
   162e5:	80 85 89 f4 ff ff 01 	addb   $0x1,-0xb77(%rbp)
   162ec:	80 bd 89 f4 ff ff 07 	cmpb   $0x7,-0xb77(%rbp)
   162f3:	76 dc                	jbe    162d1 <func_60+0x2df4>
   162f5:	0f b6 05 56 6f 00 00 	movzbl 0x6f56(%rip),%eax        # 1d252 <g_294>
   162fc:	0f b6 d8             	movzbl %al,%ebx
   162ff:	8b 05 37 6f 00 00    	mov    0x6f37(%rip),%eax        # 1d23c <g_215>
   16305:	4c 63 e0             	movslq %eax,%r12
   16308:	48 8b 05 49 85 00 00 	mov    0x8549(%rip),%rax        # 1e858 <g_218>
   1630f:	44 8b 28             	mov    (%rax),%r13d
   16312:	48 8b 85 30 f5 ff ff 	mov    -0xad0(%rbp),%rax
   16319:	c7 00 00 00 00 00    	movl   $0x0,(%rax)
   1631f:	0f b7 85 7c f4 ff ff 	movzwl -0xb84(%rbp),%eax
   16326:	89 85 64 f4 ff ff    	mov    %eax,-0xb9c(%rbp)
   1632c:	8b 05 0a 6f 00 00    	mov    0x6f0a(%rip),%eax        # 1d23c <g_215>
   16332:	44 0f be f0          	movsbl %al,%r14d
   16336:	44 0f b7 bd 7c f4 ff 	movzwl -0xb84(%rbp),%r15d
   1633d:	ff 
   1633e:	66 83 bd 7c f4 ff ff 	cmpw   $0x0,-0xb84(%rbp)
   16345:	00 
   16346:	0f 85 ca 00 00 00    	jne    16416 <func_60+0x2f39>
   1634c:	0f b7 85 7c f4 ff ff 	movzwl -0xb84(%rbp),%eax
   16353:	be 56 11 ea 69       	mov    $0x69ea1156,%esi
   16358:	89 c7                	mov    %eax,%edi
   1635a:	e8 57 12 ff ff       	callq  75b6 <safe_add_func_int32_t_s_s>
   1635f:	66 89 05 ee 6e 00 00 	mov    %ax,0x6eee(%rip)        # 1d254 <g_320>
   16366:	be f7 ff ff ff       	mov    $0xfffffff7,%esi
   1636b:	bf 01 00 00 00       	mov    $0x1,%edi
   16370:	e8 80 10 ff ff       	callq  73f5 <safe_mul_func_int16_t_s_s>
   16375:	98                   	cwtl   
   16376:	23 85 ac f4 ff ff    	and    -0xb54(%rbp),%eax
   1637c:	8b 95 bc f4 ff ff    	mov    -0xb44(%rbp),%edx
   16382:	89 d6                	mov    %edx,%esi
   16384:	89 c7                	mov    %eax,%edi
   16386:	e8 41 13 ff ff       	callq  76cc <safe_mod_func_int32_t_s_s>
   1638b:	48 63 d0             	movslq %eax,%rdx
   1638e:	48 8b 05 43 6e 00 00 	mov    0x6e43(%rip),%rax        # 1d1d8 <g_42>
   16395:	48 09 d0             	or     %rdx,%rax
   16398:	48 89 05 39 6e 00 00 	mov    %rax,0x6e39(%rip)        # 1d1d8 <g_42>
   1639f:	48 8b 05 32 6e 00 00 	mov    0x6e32(%rip),%rax        # 1d1d8 <g_42>
   163a6:	48 85 c0             	test   %rax,%rax
   163a9:	0f 95 c0             	setne  %al
   163ac:	0f b6 c0             	movzbl %al,%eax
   163af:	48 be 0f a9 bf bf 40 	movabs $0xd765c340bfbfa90f,%rsi
   163b6:	c3 65 d7 
   163b9:	48 89 c7             	mov    %rax,%rdi
   163bc:	e8 e7 14 ff ff       	callq  78a8 <safe_sub_func_int64_t_s_s>
   163c1:	8b 15 81 6e 00 00    	mov    0x6e81(%rip),%edx        # 1d248 <g_236>
   163c7:	48 63 d2             	movslq %edx,%rdx
   163ca:	48 39 d0             	cmp    %rdx,%rax
   163cd:	0f 9c c0             	setl   %al
   163d0:	0f b6 c0             	movzbl %al,%eax
   163d3:	be 36 81 00 00       	mov    $0x8136,%esi
   163d8:	89 c7                	mov    %eax,%edi
   163da:	e8 20 19 ff ff       	callq  7cff <safe_add_func_uint16_t_u_u>
   163df:	66 85 c0             	test   %ax,%ax
   163e2:	75 0c                	jne    163f0 <func_60+0x2f13>
   163e4:	0f b7 05 65 6e 00 00 	movzwl 0x6e65(%rip),%eax        # 1d250 <g_264>
   163eb:	66 85 c0             	test   %ax,%ax
   163ee:	74 07                	je     163f7 <func_60+0x2f1a>
   163f0:	b9 01 00 00 00       	mov    $0x1,%ecx
   163f5:	eb 05                	jmp    163fc <func_60+0x2f1f>
   163f7:	b9 00 00 00 00       	mov    $0x0,%ecx
   163fc:	48 8b 85 e8 f4 ff ff 	mov    -0xb18(%rbp),%rax
   16403:	8b 10                	mov    (%rax),%edx
   16405:	48 8b 85 e8 f4 ff ff 	mov    -0xb18(%rbp),%rax
   1640c:	09 ca                	or     %ecx,%edx
   1640e:	89 10                	mov    %edx,(%rax)
   16410:	8b 00                	mov    (%rax),%eax
   16412:	85 c0                	test   %eax,%eax
   16414:	74 07                	je     1641d <func_60+0x2f40>
   16416:	b8 01 00 00 00       	mov    $0x1,%eax
   1641b:	eb 05                	jmp    16422 <func_60+0x2f45>
   1641d:	b8 00 00 00 00       	mov    $0x0,%eax
   16422:	83 e0 06             	and    $0x6,%eax
   16425:	44 89 fe             	mov    %r15d,%esi
   16428:	89 c7                	mov    %eax,%edi
   1642a:	e8 87 11 ff ff       	callq  75b6 <safe_add_func_int32_t_s_s>
   1642f:	83 f8 ff             	cmp    $0xffffffff,%eax
   16432:	0f 9d c0             	setge  %al
   16435:	0f b6 c0             	movzbl %al,%eax
   16438:	44 89 f6             	mov    %r14d,%esi
   1643b:	89 c7                	mov    %eax,%edi
   1643d:	e8 ef 0d ff ff       	callq  7231 <safe_mod_func_int8_t_s_s>
   16442:	0f be c0             	movsbl %al,%eax
   16445:	39 85 64 f4 ff ff    	cmp    %eax,-0xb9c(%rbp)
   1644b:	0f 9e c0             	setle  %al
   1644e:	0f b6 c0             	movzbl %al,%eax
   16451:	39 85 ac f4 ff ff    	cmp    %eax,-0xb54(%rbp)
   16457:	0f b7 05 ca 6d 00 00 	movzwl 0x6dca(%rip),%eax        # 1d228 <g_125>
   1645e:	98                   	cwtl   
   1645f:	89 05 db 6d 00 00    	mov    %eax,0x6ddb(%rip)        # 1d240 <g_231>
   16465:	8b 05 d5 6d 00 00    	mov    0x6dd5(%rip),%eax        # 1d240 <g_231>
   1646b:	89 c2                	mov    %eax,%edx
   1646d:	48 8b 85 e8 f4 ff ff 	mov    -0xb18(%rbp),%rax
   16474:	8b 00                	mov    (%rax),%eax
   16476:	48 98                	cltq   
   16478:	48 33 85 38 f5 ff ff 	xor    -0xac8(%rbp),%rax
   1647f:	48 39 c2             	cmp    %rax,%rdx
   16482:	0f 94 c0             	sete   %al
   16485:	0f b6 c0             	movzbl %al,%eax
   16488:	0b 85 bc f4 ff ff    	or     -0xb44(%rbp),%eax
   1648e:	44 89 ee             	mov    %r13d,%esi
   16491:	89 c7                	mov    %eax,%edi
   16493:	e8 6d 11 ff ff       	callq  7605 <safe_sub_func_int32_t_s_s>
   16498:	48 98                	cltq   
   1649a:	4c 89 e6             	mov    %r12,%rsi
   1649d:	48 89 c7             	mov    %rax,%rdi
   164a0:	e8 52 15 ff ff       	callq  79f7 <safe_div_func_int64_t_s_s>
   164a5:	0f b6 c0             	movzbl %al,%eax
   164a8:	89 de                	mov    %ebx,%esi
   164aa:	89 c7                	mov    %eax,%edi
   164ac:	e8 9b 17 ff ff       	callq  7c4c <safe_lshift_func_uint8_t_u_u>
   164b1:	0f b6 c0             	movzbl %al,%eax
   164b4:	89 85 ac f4 ff ff    	mov    %eax,-0xb54(%rbp)
   164ba:	48 0f bf 9d 90 f4 ff 	movswq -0xb70(%rbp),%rbx
   164c1:	ff 
   164c2:	8b 85 b8 f6 ff ff    	mov    -0x948(%rbp),%eax
   164c8:	83 f8 01             	cmp    $0x1,%eax
   164cb:	7f 2e                	jg     164fb <func_60+0x301e>
   164cd:	8b 05 ed 6c 00 00    	mov    0x6ced(%rip),%eax        # 1d1c0 <g_11>
   164d3:	89 c7                	mov    %eax,%edi
   164d5:	e8 cc 19 ff ff       	callq  7ea6 <safe_unary_minus_func_uint32_t_u>
   164da:	48 8b 85 20 f7 ff ff 	mov    -0x8e0(%rbp),%rax
   164e1:	48 89 85 e8 f6 ff ff 	mov    %rax,-0x918(%rbp)
   164e8:	48 8b 85 e8 f6 ff ff 	mov    -0x918(%rbp),%rax
   164ef:	48 8d 15 6a 84 00 00 	lea    0x846a(%rip),%rdx        # 1e960 <g_228>
   164f6:	48 39 d0             	cmp    %rdx,%rax
   164f9:	74 07                	je     16502 <func_60+0x3025>
   164fb:	b8 01 00 00 00       	mov    $0x1,%eax
   16500:	eb 05                	jmp    16507 <func_60+0x302a>
   16502:	b8 00 00 00 00       	mov    $0x0,%eax
   16507:	0f b6 d0             	movzbl %al,%edx
   1650a:	0f b7 05 4d 6b 00 00 	movzwl 0x6b4d(%rip),%eax        # 1d05e <g_4+0x1e>
   16511:	0f b6 c0             	movzbl %al,%eax
   16514:	89 d6                	mov    %edx,%esi
   16516:	89 c7                	mov    %eax,%edi
   16518:	e8 91 16 ff ff       	callq  7bae <safe_mod_func_uint8_t_u_u>
   1651d:	44 0f b6 e0          	movzbl %al,%r12d
   16521:	0f b7 05 30 6b 00 00 	movzwl 0x6b30(%rip),%eax        # 1d058 <g_4+0x18>
   16528:	0f be c0             	movsbl %al,%eax
   1652b:	be 05 00 00 00       	mov    $0x5,%esi
   16530:	89 c7                	mov    %eax,%edi
   16532:	e8 fe 0d ff ff       	callq  7335 <safe_rshift_func_int8_t_s_s>
   16537:	0f be d0             	movsbl %al,%edx
   1653a:	48 8b 85 e8 f4 ff ff 	mov    -0xb18(%rbp),%rax
   16541:	44 21 e2             	and    %r12d,%edx
   16544:	89 10                	mov    %edx,(%rax)
   16546:	8b 00                	mov    (%rax),%eax
   16548:	09 85 a4 f4 ff ff    	or     %eax,-0xb5c(%rbp)
   1654e:	8b 85 a4 f4 ff ff    	mov    -0xb5c(%rbp),%eax
   16554:	48 98                	cltq   
   16556:	48 89 05 7b 6c 00 00 	mov    %rax,0x6c7b(%rip)        # 1d1d8 <g_42>
   1655d:	48 8b 05 74 6c 00 00 	mov    0x6c74(%rip),%rax        # 1d1d8 <g_42>
   16564:	48 89 c6             	mov    %rax,%rsi
   16567:	48 bf 0a 3e 52 ef 9b 	movabs $0x7b5e379bef523e0a,%rdi
   1656e:	37 5e 7b 
   16571:	e8 32 13 ff ff       	callq  78a8 <safe_sub_func_int64_t_s_s>
   16576:	48 8b 85 68 f4 ff ff 	mov    -0xb98(%rbp),%rax
   1657d:	48 8b 00             	mov    (%rax),%rax
   16580:	48 89 de             	mov    %rbx,%rsi
   16583:	48 89 c7             	mov    %rax,%rdi
   16586:	e8 a3 1a ff ff       	callq  802e <safe_add_func_uint64_t_u_u>
   1658b:	89 c2                	mov    %eax,%edx
   1658d:	48 8b 85 68 f5 ff ff 	mov    -0xa98(%rbp),%rax
   16594:	89 10                	mov    %edx,(%rax)
   16596:	eb 29                	jmp    165c1 <func_60+0x30e4>
   16598:	48 8d 85 e8 f4 ff ff 	lea    -0xb18(%rbp),%rax
   1659f:	48 89 85 48 f5 ff ff 	mov    %rax,-0xab8(%rbp)
   165a6:	48 8b 85 48 f5 ff ff 	mov    -0xab8(%rbp),%rax
   165ad:	48 8d 95 94 f4 ff ff 	lea    -0xb6c(%rbp),%rdx
   165b4:	48 89 10             	mov    %rdx,(%rax)
   165b7:	8b 05 7f 6c 00 00    	mov    0x6c7f(%rip),%eax        # 1d23c <g_215>
   165bd:	85 c0                	test   %eax,%eax
   165bf:	75 7d                	jne    1663e <func_60+0x3161>
   165c1:	c6 85 89 f4 ff ff fe 	movb   $0xfe,-0xb77(%rbp)
   165c8:	eb 69                	jmp    16633 <func_60+0x3156>
   165ca:	c7 85 c8 f4 ff ff fb 	movl   $0xfffffffb,-0xb38(%rbp)
   165d1:	ff ff ff 
   165d4:	48 8d 85 60 f7 ff ff 	lea    -0x8a0(%rbp),%rax
   165db:	48 83 c0 30          	add    $0x30,%rax
   165df:	48 89 85 20 f5 ff ff 	mov    %rax,-0xae0(%rbp)
   165e6:	48 8d 85 20 f5 ff ff 	lea    -0xae0(%rbp),%rax
   165ed:	48 89 85 a0 f5 ff ff 	mov    %rax,-0xa60(%rbp)
   165f4:	c7 85 cc f4 ff ff d1 	movl   $0xabf3a2d1,-0xb34(%rbp)
   165fb:	a2 f3 ab 
   165fe:	48 8d 85 e8 f4 ff ff 	lea    -0xb18(%rbp),%rax
   16605:	48 89 85 a8 f5 ff ff 	mov    %rax,-0xa58(%rbp)
   1660c:	48 8d 05 cd 6b 00 00 	lea    0x6bcd(%rip),%rax        # 1d1e0 <g_65>
   16613:	48 89 85 b0 f5 ff ff 	mov    %rax,-0xa50(%rbp)
   1661a:	0f b6 85 89 f4 ff ff 	movzbl -0xb77(%rbp),%eax
   16621:	be 06 00 00 00       	mov    $0x6,%esi
   16626:	89 c7                	mov    %eax,%edi
   16628:	e8 8b 18 ff ff       	callq  7eb8 <safe_add_func_uint32_t_u_u>
   1662d:	88 85 89 f4 ff ff    	mov    %al,-0xb77(%rbp)
   16633:	80 bd 89 f4 ff ff 09 	cmpb   $0x9,-0xb77(%rbp)
   1663a:	77 8e                	ja     165ca <func_60+0x30ed>
   1663c:	eb 01                	jmp    1663f <func_60+0x3162>
   1663e:	90                   	nop
   1663f:	0f b6 05 8e 6b 00 00 	movzbl 0x6b8e(%rip),%eax        # 1d1d4 <g_40>
   16646:	83 e0 03             	and    $0x3,%eax
   16649:	84 c0                	test   %al,%al
   1664b:	74 05                	je     16652 <func_60+0x3175>
   1664d:	e9 25 ec ff ff       	jmpq   15277 <func_60+0x1d9a>
   16652:	48 8d 05 ef 81 00 00 	lea    0x81ef(%rip),%rax        # 1e848 <g_39>
   16659:	48 8b 5d c8          	mov    -0x38(%rbp),%rbx
   1665d:	64 48 33 1c 25 28 00 	xor    %fs:0x28,%rbx
   16664:	00 00 
   16666:	74 05                	je     1666d <func_60+0x3190>
   16668:	e8 03 0a ff ff       	callq  7070 <__stack_chk_fail@plt>
   1666d:	48 81 c4 78 0b 00 00 	add    $0xb78,%rsp
   16674:	5b                   	pop    %rbx
   16675:	41 5c                	pop    %r12
   16677:	41 5d                	pop    %r13
   16679:	41 5e                	pop    %r14
   1667b:	41 5f                	pop    %r15
   1667d:	5d                   	pop    %rbp
   1667e:	c3                   	retq   

000000000001667f <main>:
   1667f:	f3 0f 1e fa          	endbr64 
   16683:	55                   	push   %rbp
   16684:	48 89 e5             	mov    %rsp,%rbp
   16687:	48 83 ec 20          	sub    $0x20,%rsp
   1668b:	89 7d ec             	mov    %edi,-0x14(%rbp)
   1668e:	48 89 75 e0          	mov    %rsi,-0x20(%rbp)
   16692:	c7 45 fc 00 00 00 00 	movl   $0x0,-0x4(%rbp)
   16699:	83 7d ec 02          	cmpl   $0x2,-0x14(%rbp)
   1669d:	75 25                	jne    166c4 <main+0x45>
   1669f:	48 8b 45 e0          	mov    -0x20(%rbp),%rax
   166a3:	48 83 c0 08          	add    $0x8,%rax
   166a7:	48 8b 00             	mov    (%rax),%rax
   166aa:	48 8d 35 7f 2f 00 00 	lea    0x2f7f(%rip),%rsi        # 19630 <g_1645+0x15b0>
   166b1:	48 89 c7             	mov    %rax,%rdi
   166b4:	e8 d7 09 ff ff       	callq  7090 <strcmp@plt>
   166b9:	85 c0                	test   %eax,%eax
   166bb:	75 07                	jne    166c4 <main+0x45>
   166bd:	c7 45 fc 01 00 00 00 	movl   $0x1,-0x4(%rbp)
   166c4:	e8 c0 0a ff ff       	callq  7189 <platform_main_begin>
   166c9:	e8 ca 1e ff ff       	callq  8598 <crc32_gentab>
   166ce:	e8 e2 20 ff ff       	callq  87b5 <func_1>
   166d3:	c7 45 f0 00 00 00 00 	movl   $0x0,-0x10(%rbp)
   166da:	eb 76                	jmp    16752 <main+0xd3>
   166dc:	c7 45 f4 00 00 00 00 	movl   $0x0,-0xc(%rbp)
   166e3:	eb 63                	jmp    16748 <main+0xc9>
   166e5:	8b 45 f4             	mov    -0xc(%rbp),%eax
   166e8:	48 63 c8             	movslq %eax,%rcx
   166eb:	8b 45 f0             	mov    -0x10(%rbp),%eax
   166ee:	48 63 d0             	movslq %eax,%rdx
   166f1:	48 89 d0             	mov    %rdx,%rax
   166f4:	48 c1 e0 02          	shl    $0x2,%rax
   166f8:	48 01 d0             	add    %rdx,%rax
   166fb:	48 01 c0             	add    %rax,%rax
   166fe:	48 01 c8             	add    %rcx,%rax
   16701:	48 8d 14 00          	lea    (%rax,%rax,1),%rdx
   16705:	48 8d 05 34 69 00 00 	lea    0x6934(%rip),%rax        # 1d040 <g_4>
   1670c:	0f b7 04 02          	movzwl (%rdx,%rax,1),%eax
   16710:	0f b7 c0             	movzwl %ax,%eax
   16713:	8b 55 fc             	mov    -0x4(%rbp),%edx
   16716:	48 8d 35 15 2f 00 00 	lea    0x2f15(%rip),%rsi        # 19632 <g_1645+0x15b2>
   1671d:	48 89 c7             	mov    %rax,%rdi
   16720:	e8 ce 1f ff ff       	callq  86f3 <transparent_crc>
   16725:	83 7d fc 00          	cmpl   $0x0,-0x4(%rbp)
   16729:	74 19                	je     16744 <main+0xc5>
   1672b:	8b 55 f4             	mov    -0xc(%rbp),%edx
   1672e:	8b 45 f0             	mov    -0x10(%rbp),%eax
   16731:	89 c6                	mov    %eax,%esi
   16733:	48 8d 3d 02 2f 00 00 	lea    0x2f02(%rip),%rdi        # 1963c <g_1645+0x15bc>
   1673a:	b8 00 00 00 00       	mov    $0x0,%eax
   1673f:	e8 3c 09 ff ff       	callq  7080 <printf@plt>
   16744:	83 45 f4 01          	addl   $0x1,-0xc(%rbp)
   16748:	83 7d f4 09          	cmpl   $0x9,-0xc(%rbp)
   1674c:	7e 97                	jle    166e5 <main+0x66>
   1674e:	83 45 f0 01          	addl   $0x1,-0x10(%rbp)
   16752:	83 7d f0 08          	cmpl   $0x8,-0x10(%rbp)
   16756:	7e 84                	jle    166dc <main+0x5d>
   16758:	8b 05 96 69 00 00    	mov    0x6996(%rip),%eax        # 1d0f4 <g_6>
   1675e:	48 98                	cltq   
   16760:	8b 55 fc             	mov    -0x4(%rbp),%edx
   16763:	48 8d 35 e4 2e 00 00 	lea    0x2ee4(%rip),%rsi        # 1964e <g_1645+0x15ce>
   1676a:	48 89 c7             	mov    %rax,%rdi
   1676d:	e8 81 1f ff ff       	callq  86f3 <transparent_crc>
   16772:	8b 05 80 69 00 00    	mov    0x6980(%rip),%eax        # 1d0f8 <g_9>
   16778:	48 98                	cltq   
   1677a:	8b 55 fc             	mov    -0x4(%rbp),%edx
   1677d:	48 8d 35 ce 2e 00 00 	lea    0x2ece(%rip),%rsi        # 19652 <g_1645+0x15d2>
   16784:	48 89 c7             	mov    %rax,%rdi
   16787:	e8 67 1f ff ff       	callq  86f3 <transparent_crc>
   1678c:	c7 45 f0 00 00 00 00 	movl   $0x0,-0x10(%rbp)
   16793:	eb 77                	jmp    1680c <main+0x18d>
   16795:	c7 45 f4 00 00 00 00 	movl   $0x0,-0xc(%rbp)
   1679c:	eb 64                	jmp    16802 <main+0x183>
   1679e:	8b 45 f4             	mov    -0xc(%rbp),%eax
   167a1:	48 63 c8             	movslq %eax,%rcx
   167a4:	8b 45 f0             	mov    -0x10(%rbp),%eax
   167a7:	48 63 d0             	movslq %eax,%rdx
   167aa:	48 89 d0             	mov    %rdx,%rax
   167ad:	48 01 c0             	add    %rax,%rax
   167b0:	48 01 d0             	add    %rdx,%rax
   167b3:	48 01 c0             	add    %rax,%rax
   167b6:	48 01 c8             	add    %rcx,%rax
   167b9:	48 8d 14 85 00 00 00 	lea    0x0(,%rax,4),%rdx
   167c0:	00 
   167c1:	48 8d 05 38 69 00 00 	lea    0x6938(%rip),%rax        # 1d100 <g_10>
   167c8:	8b 04 02             	mov    (%rdx,%rax,1),%eax
   167cb:	48 98                	cltq   
   167cd:	8b 55 fc             	mov    -0x4(%rbp),%edx
   167d0:	48 8d 35 7f 2e 00 00 	lea    0x2e7f(%rip),%rsi        # 19656 <g_1645+0x15d6>
   167d7:	48 89 c7             	mov    %rax,%rdi
   167da:	e8 14 1f ff ff       	callq  86f3 <transparent_crc>
   167df:	83 7d fc 00          	cmpl   $0x0,-0x4(%rbp)
   167e3:	74 19                	je     167fe <main+0x17f>
   167e5:	8b 55 f4             	mov    -0xc(%rbp),%edx
   167e8:	8b 45 f0             	mov    -0x10(%rbp),%eax
   167eb:	89 c6                	mov    %eax,%esi
   167ed:	48 8d 3d 48 2e 00 00 	lea    0x2e48(%rip),%rdi        # 1963c <g_1645+0x15bc>
   167f4:	b8 00 00 00 00       	mov    $0x0,%eax
   167f9:	e8 82 08 ff ff       	callq  7080 <printf@plt>
   167fe:	83 45 f4 01          	addl   $0x1,-0xc(%rbp)
   16802:	83 7d f4 05          	cmpl   $0x5,-0xc(%rbp)
   16806:	7e 96                	jle    1679e <main+0x11f>
   16808:	83 45 f0 01          	addl   $0x1,-0x10(%rbp)
   1680c:	83 7d f0 07          	cmpl   $0x7,-0x10(%rbp)
   16810:	7e 83                	jle    16795 <main+0x116>
   16812:	8b 05 a8 69 00 00    	mov    0x69a8(%rip),%eax        # 1d1c0 <g_11>
   16818:	48 98                	cltq   
   1681a:	8b 55 fc             	mov    -0x4(%rbp),%edx
   1681d:	48 8d 35 3d 2e 00 00 	lea    0x2e3d(%rip),%rsi        # 19661 <g_1645+0x15e1>
   16824:	48 89 c7             	mov    %rax,%rdi
   16827:	e8 c7 1e ff ff       	callq  86f3 <transparent_crc>
   1682c:	8b 05 92 69 00 00    	mov    0x6992(%rip),%eax        # 1d1c4 <g_14>
   16832:	48 98                	cltq   
   16834:	8b 55 fc             	mov    -0x4(%rbp),%edx
   16837:	48 8d 35 28 2e 00 00 	lea    0x2e28(%rip),%rsi        # 19666 <g_1645+0x15e6>
   1683e:	48 89 c7             	mov    %rax,%rdi
   16841:	e8 ad 1e ff ff       	callq  86f3 <transparent_crc>
   16846:	48 8b 05 7b 69 00 00 	mov    0x697b(%rip),%rax        # 1d1c8 <g_21>
   1684d:	8b 55 fc             	mov    -0x4(%rbp),%edx
   16850:	48 8d 35 14 2e 00 00 	lea    0x2e14(%rip),%rsi        # 1966b <g_1645+0x15eb>
   16857:	48 89 c7             	mov    %rax,%rdi
   1685a:	e8 94 1e ff ff       	callq  86f3 <transparent_crc>
   1685f:	0f b6 05 6a 69 00 00 	movzbl 0x696a(%rip),%eax        # 1d1d0 <g_35>
   16866:	c1 e0 06             	shl    $0x6,%eax
   16869:	c0 f8 06             	sar    $0x6,%al
   1686c:	48 0f be c0          	movsbq %al,%rax
   16870:	8b 55 fc             	mov    -0x4(%rbp),%edx
   16873:	48 8d 35 f9 2d 00 00 	lea    0x2df9(%rip),%rsi        # 19673 <g_1645+0x15f3>
   1687a:	48 89 c7             	mov    %rax,%rdi
   1687d:	e8 71 1e ff ff       	callq  86f3 <transparent_crc>
   16882:	0f b6 05 5f 92 00 00 	movzbl 0x925f(%rip),%eax        # 1fae8 <g_38>
   16889:	c1 e0 06             	shl    $0x6,%eax
   1688c:	c0 f8 06             	sar    $0x6,%al
   1688f:	48 0f be c0          	movsbq %al,%rax
   16893:	8b 55 fc             	mov    -0x4(%rbp),%edx
   16896:	48 8d 35 de 2d 00 00 	lea    0x2dde(%rip),%rsi        # 1967b <g_1645+0x15fb>
   1689d:	48 89 c7             	mov    %rax,%rdi
   168a0:	e8 4e 1e ff ff       	callq  86f3 <transparent_crc>
   168a5:	0f b6 05 28 69 00 00 	movzbl 0x6928(%rip),%eax        # 1d1d4 <g_40>
   168ac:	c1 e0 06             	shl    $0x6,%eax
   168af:	c0 f8 06             	sar    $0x6,%al
   168b2:	48 0f be c0          	movsbq %al,%rax
   168b6:	8b 55 fc             	mov    -0x4(%rbp),%edx
   168b9:	48 8d 35 c3 2d 00 00 	lea    0x2dc3(%rip),%rsi        # 19683 <g_1645+0x1603>
   168c0:	48 89 c7             	mov    %rax,%rdi
   168c3:	e8 2b 1e ff ff       	callq  86f3 <transparent_crc>
   168c8:	48 8b 05 09 69 00 00 	mov    0x6909(%rip),%rax        # 1d1d8 <g_42>
   168cf:	8b 55 fc             	mov    -0x4(%rbp),%edx
   168d2:	48 8d 35 b2 2d 00 00 	lea    0x2db2(%rip),%rsi        # 1968b <g_1645+0x160b>
   168d9:	48 89 c7             	mov    %rax,%rdi
   168dc:	e8 12 1e ff ff       	callq  86f3 <transparent_crc>
   168e1:	8b 05 f9 68 00 00    	mov    0x68f9(%rip),%eax        # 1d1e0 <g_65>
   168e7:	48 98                	cltq   
   168e9:	8b 55 fc             	mov    -0x4(%rbp),%edx
   168ec:	48 8d 35 9d 2d 00 00 	lea    0x2d9d(%rip),%rsi        # 19690 <g_1645+0x1610>
   168f3:	48 89 c7             	mov    %rax,%rdi
   168f6:	e8 f8 1d ff ff       	callq  86f3 <transparent_crc>
   168fb:	c7 45 f0 00 00 00 00 	movl   $0x0,-0x10(%rbp)
   16902:	eb 45                	jmp    16949 <main+0x2ca>
   16904:	8b 45 f0             	mov    -0x10(%rbp),%eax
   16907:	48 98                	cltq   
   16909:	48 8d 15 d4 68 00 00 	lea    0x68d4(%rip),%rdx        # 1d1e4 <g_91>
   16910:	0f b6 04 10          	movzbl (%rax,%rdx,1),%eax
   16914:	0f b6 c0             	movzbl %al,%eax
   16917:	8b 55 fc             	mov    -0x4(%rbp),%edx
   1691a:	48 8d 35 74 2d 00 00 	lea    0x2d74(%rip),%rsi        # 19695 <g_1645+0x1615>
   16921:	48 89 c7             	mov    %rax,%rdi
   16924:	e8 ca 1d ff ff       	callq  86f3 <transparent_crc>
   16929:	83 7d fc 00          	cmpl   $0x0,-0x4(%rbp)
   1692d:	74 16                	je     16945 <main+0x2c6>
   1692f:	8b 45 f0             	mov    -0x10(%rbp),%eax
   16932:	89 c6                	mov    %eax,%esi
   16934:	48 8d 3d 62 2d 00 00 	lea    0x2d62(%rip),%rdi        # 1969d <g_1645+0x161d>
   1693b:	b8 00 00 00 00       	mov    $0x0,%eax
   16940:	e8 3b 07 ff ff       	callq  7080 <printf@plt>
   16945:	83 45 f0 01          	addl   $0x1,-0x10(%rbp)
   16949:	83 7d f0 04          	cmpl   $0x4,-0x10(%rbp)
   1694d:	7e b5                	jle    16904 <main+0x285>
   1694f:	c7 45 f0 00 00 00 00 	movl   $0x0,-0x10(%rbp)
   16956:	eb 4a                	jmp    169a2 <main+0x323>
   16958:	8b 45 f0             	mov    -0x10(%rbp),%eax
   1695b:	48 98                	cltq   
   1695d:	48 8d 14 c5 00 00 00 	lea    0x0(,%rax,8),%rdx
   16964:	00 
   16965:	48 8d 05 94 68 00 00 	lea    0x6894(%rip),%rax        # 1d200 <g_104>
   1696c:	48 8b 04 02          	mov    (%rdx,%rax,1),%rax
   16970:	8b 55 fc             	mov    -0x4(%rbp),%edx
   16973:	48 8d 35 31 2d 00 00 	lea    0x2d31(%rip),%rsi        # 196ab <g_1645+0x162b>
   1697a:	48 89 c7             	mov    %rax,%rdi
   1697d:	e8 71 1d ff ff       	callq  86f3 <transparent_crc>
   16982:	83 7d fc 00          	cmpl   $0x0,-0x4(%rbp)
   16986:	74 16                	je     1699e <main+0x31f>
   16988:	8b 45 f0             	mov    -0x10(%rbp),%eax
   1698b:	89 c6                	mov    %eax,%esi
   1698d:	48 8d 3d 09 2d 00 00 	lea    0x2d09(%rip),%rdi        # 1969d <g_1645+0x161d>
   16994:	b8 00 00 00 00       	mov    $0x0,%eax
   16999:	e8 e2 06 ff ff       	callq  7080 <printf@plt>
   1699e:	83 45 f0 01          	addl   $0x1,-0x10(%rbp)
   169a2:	83 7d f0 03          	cmpl   $0x3,-0x10(%rbp)
   169a6:	7e b0                	jle    16958 <main+0x2d9>
   169a8:	48 8b 05 71 68 00 00 	mov    0x6871(%rip),%rax        # 1d220 <g_112>
   169af:	8b 55 fc             	mov    -0x4(%rbp),%edx
   169b2:	48 8d 35 fe 2c 00 00 	lea    0x2cfe(%rip),%rsi        # 196b7 <g_1645+0x1637>
   169b9:	48 89 c7             	mov    %rax,%rdi
   169bc:	e8 32 1d ff ff       	callq  86f3 <transparent_crc>
   169c1:	0f b7 05 60 68 00 00 	movzwl 0x6860(%rip),%eax        # 1d228 <g_125>
   169c8:	48 0f bf c0          	movswq %ax,%rax
   169cc:	8b 55 fc             	mov    -0x4(%rbp),%edx
   169cf:	48 8d 35 ea 2c 00 00 	lea    0x2cea(%rip),%rsi        # 196c0 <g_1645+0x1640>
   169d6:	48 89 c7             	mov    %rax,%rdi
   169d9:	e8 15 1d ff ff       	callq  86f3 <transparent_crc>
   169de:	48 8b 05 4b 68 00 00 	mov    0x684b(%rip),%rax        # 1d230 <g_129>
   169e5:	48 89 c1             	mov    %rax,%rcx
   169e8:	8b 45 fc             	mov    -0x4(%rbp),%eax
   169eb:	89 c2                	mov    %eax,%edx
   169ed:	48 8d 35 d2 2c 00 00 	lea    0x2cd2(%rip),%rsi        # 196c6 <g_1645+0x1646>
   169f4:	48 89 cf             	mov    %rcx,%rdi
   169f7:	e8 f7 1c ff ff       	callq  86f3 <transparent_crc>
   169fc:	0f b6 05 35 68 00 00 	movzbl 0x6835(%rip),%eax        # 1d238 <g_163>
   16a03:	0f b6 c0             	movzbl %al,%eax
   16a06:	8b 55 fc             	mov    -0x4(%rbp),%edx
   16a09:	48 8d 35 bc 2c 00 00 	lea    0x2cbc(%rip),%rsi        # 196cc <g_1645+0x164c>
   16a10:	48 89 c7             	mov    %rax,%rdi
   16a13:	e8 db 1c ff ff       	callq  86f3 <transparent_crc>
   16a18:	8b 05 1e 68 00 00    	mov    0x681e(%rip),%eax        # 1d23c <g_215>
   16a1e:	48 98                	cltq   
   16a20:	8b 55 fc             	mov    -0x4(%rbp),%edx
   16a23:	48 8d 35 a8 2c 00 00 	lea    0x2ca8(%rip),%rsi        # 196d2 <g_1645+0x1652>
   16a2a:	48 89 c7             	mov    %rax,%rdi
   16a2d:	e8 c1 1c ff ff       	callq  86f3 <transparent_crc>
   16a32:	8b 05 08 68 00 00    	mov    0x6808(%rip),%eax        # 1d240 <g_231>
   16a38:	89 c1                	mov    %eax,%ecx
   16a3a:	8b 45 fc             	mov    -0x4(%rbp),%eax
   16a3d:	89 c2                	mov    %eax,%edx
   16a3f:	48 8d 35 92 2c 00 00 	lea    0x2c92(%rip),%rsi        # 196d8 <g_1645+0x1658>
   16a46:	48 89 cf             	mov    %rcx,%rdi
   16a49:	e8 a5 1c ff ff       	callq  86f3 <transparent_crc>
   16a4e:	8b 05 f4 67 00 00    	mov    0x67f4(%rip),%eax        # 1d248 <g_236>
   16a54:	48 98                	cltq   
   16a56:	8b 55 fc             	mov    -0x4(%rbp),%edx
   16a59:	48 8d 35 7e 2c 00 00 	lea    0x2c7e(%rip),%rsi        # 196de <g_1645+0x165e>
   16a60:	48 89 c7             	mov    %rax,%rdi
   16a63:	e8 8b 1c ff ff       	callq  86f3 <transparent_crc>
   16a68:	0f b7 05 e1 67 00 00 	movzwl 0x67e1(%rip),%eax        # 1d250 <g_264>
   16a6f:	0f b7 c0             	movzwl %ax,%eax
   16a72:	8b 55 fc             	mov    -0x4(%rbp),%edx
   16a75:	48 8d 35 6b 2c 00 00 	lea    0x2c6b(%rip),%rsi        # 196e7 <g_1645+0x1667>
   16a7c:	48 89 c7             	mov    %rax,%rdi
   16a7f:	e8 6f 1c ff ff       	callq  86f3 <transparent_crc>
   16a84:	0f b6 05 c7 67 00 00 	movzbl 0x67c7(%rip),%eax        # 1d252 <g_294>
   16a8b:	0f b6 c0             	movzbl %al,%eax
   16a8e:	8b 55 fc             	mov    -0x4(%rbp),%edx
   16a91:	48 8d 35 55 2c 00 00 	lea    0x2c55(%rip),%rsi        # 196ed <g_1645+0x166d>
   16a98:	48 89 c7             	mov    %rax,%rdi
   16a9b:	e8 53 1c ff ff       	callq  86f3 <transparent_crc>
   16aa0:	0f b7 05 ad 67 00 00 	movzwl 0x67ad(%rip),%eax        # 1d254 <g_320>
   16aa7:	0f b7 c0             	movzwl %ax,%eax
   16aaa:	8b 55 fc             	mov    -0x4(%rbp),%edx
   16aad:	48 8d 35 3f 2c 00 00 	lea    0x2c3f(%rip),%rsi        # 196f3 <g_1645+0x1673>
   16ab4:	48 89 c7             	mov    %rax,%rdi
   16ab7:	e8 37 1c ff ff       	callq  86f3 <transparent_crc>
   16abc:	0f b6 05 93 67 00 00 	movzbl 0x6793(%rip),%eax        # 1d256 <g_452>
   16ac3:	48 0f be c0          	movsbq %al,%rax
   16ac7:	8b 55 fc             	mov    -0x4(%rbp),%edx
   16aca:	48 8d 35 28 2c 00 00 	lea    0x2c28(%rip),%rsi        # 196f9 <g_1645+0x1679>
   16ad1:	48 89 c7             	mov    %rax,%rdi
   16ad4:	e8 1a 1c ff ff       	callq  86f3 <transparent_crc>
   16ad9:	8b 05 79 67 00 00    	mov    0x6779(%rip),%eax        # 1d258 <g_523>
   16adf:	89 c1                	mov    %eax,%ecx
   16ae1:	8b 45 fc             	mov    -0x4(%rbp),%eax
   16ae4:	89 c2                	mov    %eax,%edx
   16ae6:	48 8d 35 12 2c 00 00 	lea    0x2c12(%rip),%rsi        # 196ff <g_1645+0x167f>
   16aed:	48 89 cf             	mov    %rcx,%rdi
   16af0:	e8 fe 1b ff ff       	callq  86f3 <transparent_crc>
   16af5:	8b 05 65 67 00 00    	mov    0x6765(%rip),%eax        # 1d260 <g_540>
   16afb:	48 98                	cltq   
   16afd:	8b 55 fc             	mov    -0x4(%rbp),%edx
   16b00:	48 8d 35 fe 2b 00 00 	lea    0x2bfe(%rip),%rsi        # 19705 <g_1645+0x1685>
   16b07:	48 89 c7             	mov    %rax,%rdi
   16b0a:	e8 e4 1b ff ff       	callq  86f3 <transparent_crc>
   16b0f:	0f b6 05 52 67 00 00 	movzbl 0x6752(%rip),%eax        # 1d268 <g_548>
   16b16:	0f b6 c0             	movzbl %al,%eax
   16b19:	8b 55 fc             	mov    -0x4(%rbp),%edx
   16b1c:	48 8d 35 eb 2b 00 00 	lea    0x2beb(%rip),%rsi        # 1970e <g_1645+0x168e>
   16b23:	48 89 c7             	mov    %rax,%rdi
   16b26:	e8 c8 1b ff ff       	callq  86f3 <transparent_crc>
   16b2b:	8b 05 47 90 00 00    	mov    0x9047(%rip),%eax        # 1fb78 <g_558>
   16b31:	48 98                	cltq   
   16b33:	8b 55 fc             	mov    -0x4(%rbp),%edx
   16b36:	48 8d 35 d7 2b 00 00 	lea    0x2bd7(%rip),%rsi        # 19714 <g_1645+0x1694>
   16b3d:	48 89 c7             	mov    %rax,%rdi
   16b40:	e8 ae 1b ff ff       	callq  86f3 <transparent_crc>
   16b45:	8b 05 31 90 00 00    	mov    0x9031(%rip),%eax        # 1fb7c <g_564>
   16b4b:	89 c1                	mov    %eax,%ecx
   16b4d:	8b 45 fc             	mov    -0x4(%rbp),%eax
   16b50:	89 c2                	mov    %eax,%edx
   16b52:	48 8d 35 c1 2b 00 00 	lea    0x2bc1(%rip),%rsi        # 1971a <g_1645+0x169a>
   16b59:	48 89 cf             	mov    %rcx,%rdi
   16b5c:	e8 92 1b ff ff       	callq  86f3 <transparent_crc>
   16b61:	0f b7 05 02 67 00 00 	movzwl 0x6702(%rip),%eax        # 1d26a <g_572>
   16b68:	0f b7 c0             	movzwl %ax,%eax
   16b6b:	8b 55 fc             	mov    -0x4(%rbp),%edx
   16b6e:	48 8d 35 ab 2b 00 00 	lea    0x2bab(%rip),%rsi        # 19720 <g_1645+0x16a0>
   16b75:	48 89 c7             	mov    %rax,%rdi
   16b78:	e8 76 1b ff ff       	callq  86f3 <transparent_crc>
   16b7d:	48 8b 05 ec 66 00 00 	mov    0x66ec(%rip),%rax        # 1d270 <g_583>
   16b84:	8b 55 fc             	mov    -0x4(%rbp),%edx
   16b87:	48 8d 35 98 2b 00 00 	lea    0x2b98(%rip),%rsi        # 19726 <g_1645+0x16a6>
   16b8e:	48 89 c7             	mov    %rax,%rdi
   16b91:	e8 5d 1b ff ff       	callq  86f3 <transparent_crc>
   16b96:	48 8b 05 db 66 00 00 	mov    0x66db(%rip),%rax        # 1d278 <g_592>
   16b9d:	8b 55 fc             	mov    -0x4(%rbp),%edx
   16ba0:	48 8d 35 88 2b 00 00 	lea    0x2b88(%rip),%rsi        # 1972f <g_1645+0x16af>
   16ba7:	48 89 c7             	mov    %rax,%rdi
   16baa:	e8 44 1b ff ff       	callq  86f3 <transparent_crc>
   16baf:	8b 05 cb 66 00 00    	mov    0x66cb(%rip),%eax        # 1d280 <g_617>
   16bb5:	48 98                	cltq   
   16bb7:	8b 55 fc             	mov    -0x4(%rbp),%edx
   16bba:	48 8d 35 77 2b 00 00 	lea    0x2b77(%rip),%rsi        # 19738 <g_1645+0x16b8>
   16bc1:	48 89 c7             	mov    %rax,%rdi
   16bc4:	e8 2a 1b ff ff       	callq  86f3 <transparent_crc>
   16bc9:	8b 05 b5 66 00 00    	mov    0x66b5(%rip),%eax        # 1d284 <g_741>
   16bcf:	c1 e0 06             	shl    $0x6,%eax
   16bd2:	c0 f8 06             	sar    $0x6,%al
   16bd5:	48 0f be c0          	movsbq %al,%rax
   16bd9:	8b 55 fc             	mov    -0x4(%rbp),%edx
   16bdc:	48 8d 35 5b 2b 00 00 	lea    0x2b5b(%rip),%rsi        # 1973e <g_1645+0x16be>
   16be3:	48 89 c7             	mov    %rax,%rdi
   16be6:	e8 08 1b ff ff       	callq  86f3 <transparent_crc>
   16beb:	48 8b 05 96 66 00 00 	mov    0x6696(%rip),%rax        # 1d288 <g_780>
   16bf2:	8b 55 fc             	mov    -0x4(%rbp),%edx
   16bf5:	48 8d 35 4b 2b 00 00 	lea    0x2b4b(%rip),%rsi        # 19747 <g_1645+0x16c7>
   16bfc:	48 89 c7             	mov    %rax,%rdi
   16bff:	e8 ef 1a ff ff       	callq  86f3 <transparent_crc>
   16c04:	c7 45 f0 00 00 00 00 	movl   $0x0,-0x10(%rbp)
   16c0b:	e9 ae 00 00 00       	jmpq   16cbe <main+0x63f>
   16c10:	c7 45 f4 00 00 00 00 	movl   $0x0,-0xc(%rbp)
   16c17:	e9 94 00 00 00       	jmpq   16cb0 <main+0x631>
   16c1c:	c7 45 f8 00 00 00 00 	movl   $0x0,-0x8(%rbp)
   16c23:	eb 7d                	jmp    16ca2 <main+0x623>
   16c25:	8b 45 f8             	mov    -0x8(%rbp),%eax
   16c28:	48 63 f0             	movslq %eax,%rsi
   16c2b:	8b 45 f0             	mov    -0x10(%rbp),%eax
   16c2e:	48 63 d0             	movslq %eax,%rdx
   16c31:	8b 45 f4             	mov    -0xc(%rbp),%eax
   16c34:	48 63 c8             	movslq %eax,%rcx
   16c37:	48 89 d0             	mov    %rdx,%rax
   16c3a:	48 c1 e0 02          	shl    $0x2,%rax
   16c3e:	48 01 d0             	add    %rdx,%rax
   16c41:	48 c1 e0 02          	shl    $0x2,%rax
   16c45:	48 01 d0             	add    %rdx,%rax
   16c48:	48 89 ca             	mov    %rcx,%rdx
   16c4b:	48 01 d2             	add    %rdx,%rdx
   16c4e:	48 01 ca             	add    %rcx,%rdx
   16c51:	48 01 d0             	add    %rdx,%rax
   16c54:	48 01 f0             	add    %rsi,%rax
   16c57:	48 8d 14 c5 00 00 00 	lea    0x0(,%rax,8),%rdx
   16c5e:	00 
   16c5f:	48 8d 05 3a 66 00 00 	lea    0x663a(%rip),%rax        # 1d2a0 <g_823>
   16c66:	48 8b 04 02          	mov    (%rdx,%rax,1),%rax
   16c6a:	8b 55 fc             	mov    -0x4(%rbp),%edx
   16c6d:	48 8d 35 dc 2a 00 00 	lea    0x2adc(%rip),%rsi        # 19750 <g_1645+0x16d0>
   16c74:	48 89 c7             	mov    %rax,%rdi
   16c77:	e8 77 1a ff ff       	callq  86f3 <transparent_crc>
   16c7c:	83 7d fc 00          	cmpl   $0x0,-0x4(%rbp)
   16c80:	74 1c                	je     16c9e <main+0x61f>
   16c82:	8b 4d f8             	mov    -0x8(%rbp),%ecx
   16c85:	8b 55 f4             	mov    -0xc(%rbp),%edx
   16c88:	8b 45 f0             	mov    -0x10(%rbp),%eax
   16c8b:	89 c6                	mov    %eax,%esi
   16c8d:	48 8d 3d ce 2a 00 00 	lea    0x2ace(%rip),%rdi        # 19762 <g_1645+0x16e2>
   16c94:	b8 00 00 00 00       	mov    $0x0,%eax
   16c99:	e8 e2 03 ff ff       	callq  7080 <printf@plt>
   16c9e:	83 45 f8 01          	addl   $0x1,-0x8(%rbp)
   16ca2:	83 7d f8 02          	cmpl   $0x2,-0x8(%rbp)
   16ca6:	0f 8e 79 ff ff ff    	jle    16c25 <main+0x5a6>
   16cac:	83 45 f4 01          	addl   $0x1,-0xc(%rbp)
   16cb0:	83 7d f4 06          	cmpl   $0x6,-0xc(%rbp)
   16cb4:	0f 8e 62 ff ff ff    	jle    16c1c <main+0x59d>
   16cba:	83 45 f0 01          	addl   $0x1,-0x10(%rbp)
   16cbe:	83 7d f0 02          	cmpl   $0x2,-0x10(%rbp)
   16cc2:	0f 8e 48 ff ff ff    	jle    16c10 <main+0x591>
   16cc8:	8b 05 ca 67 00 00    	mov    0x67ca(%rip),%eax        # 1d498 <g_864>
   16cce:	c1 e0 06             	shl    $0x6,%eax
   16cd1:	c0 f8 06             	sar    $0x6,%al
   16cd4:	48 0f be c0          	movsbq %al,%rax
   16cd8:	8b 55 fc             	mov    -0x4(%rbp),%edx
   16cdb:	48 8d 35 96 2a 00 00 	lea    0x2a96(%rip),%rsi        # 19778 <g_1645+0x16f8>
   16ce2:	48 89 c7             	mov    %rax,%rdi
   16ce5:	e8 09 1a ff ff       	callq  86f3 <transparent_crc>
   16cea:	8b 05 ac 67 00 00    	mov    0x67ac(%rip),%eax        # 1d49c <g_878>
   16cf0:	89 c1                	mov    %eax,%ecx
   16cf2:	8b 45 fc             	mov    -0x4(%rbp),%eax
   16cf5:	89 c2                	mov    %eax,%edx
   16cf7:	48 8d 35 83 2a 00 00 	lea    0x2a83(%rip),%rsi        # 19781 <g_1645+0x1701>
   16cfe:	48 89 cf             	mov    %rcx,%rdi
   16d01:	e8 ed 19 ff ff       	callq  86f3 <transparent_crc>
   16d06:	48 8b 05 93 67 00 00 	mov    0x6793(%rip),%rax        # 1d4a0 <g_937>
   16d0d:	8b 55 fc             	mov    -0x4(%rbp),%edx
   16d10:	48 8d 35 70 2a 00 00 	lea    0x2a70(%rip),%rsi        # 19787 <g_1645+0x1707>
   16d17:	48 89 c7             	mov    %rax,%rdi
   16d1a:	e8 d4 19 ff ff       	callq  86f3 <transparent_crc>
   16d1f:	0f b6 05 6a 8e 00 00 	movzbl 0x8e6a(%rip),%eax        # 1fb90 <g_947>
   16d26:	c1 e0 06             	shl    $0x6,%eax
   16d29:	c0 f8 06             	sar    $0x6,%al
   16d2c:	48 0f be c0          	movsbq %al,%rax
   16d30:	8b 55 fc             	mov    -0x4(%rbp),%edx
   16d33:	48 8d 35 56 2a 00 00 	lea    0x2a56(%rip),%rsi        # 19790 <g_1645+0x1710>
   16d3a:	48 89 c7             	mov    %rax,%rdi
   16d3d:	e8 b1 19 ff ff       	callq  86f3 <transparent_crc>
   16d42:	48 8b 05 5f 67 00 00 	mov    0x675f(%rip),%rax        # 1d4a8 <g_957>
   16d49:	8b 55 fc             	mov    -0x4(%rbp),%edx
   16d4c:	48 8d 35 46 2a 00 00 	lea    0x2a46(%rip),%rsi        # 19799 <g_1645+0x1719>
   16d53:	48 89 c7             	mov    %rax,%rdi
   16d56:	e8 98 19 ff ff       	callq  86f3 <transparent_crc>
   16d5b:	0f b6 05 4e 67 00 00 	movzbl 0x674e(%rip),%eax        # 1d4b0 <g_987>
   16d62:	c1 e0 06             	shl    $0x6,%eax
   16d65:	c0 f8 06             	sar    $0x6,%al
   16d68:	48 0f be c0          	movsbq %al,%rax
   16d6c:	8b 55 fc             	mov    -0x4(%rbp),%edx
   16d6f:	48 8d 35 2c 2a 00 00 	lea    0x2a2c(%rip),%rsi        # 197a2 <g_1645+0x1722>
   16d76:	48 89 c7             	mov    %rax,%rdi
   16d79:	e8 75 19 ff ff       	callq  86f3 <transparent_crc>
   16d7e:	8b 05 30 67 00 00    	mov    0x6730(%rip),%eax        # 1d4b4 <g_1007>
   16d84:	89 c1                	mov    %eax,%ecx
   16d86:	8b 45 fc             	mov    -0x4(%rbp),%eax
   16d89:	89 c2                	mov    %eax,%edx
   16d8b:	48 8d 35 19 2a 00 00 	lea    0x2a19(%rip),%rsi        # 197ab <g_1645+0x172b>
   16d92:	48 89 cf             	mov    %rcx,%rdi
   16d95:	e8 59 19 ff ff       	callq  86f3 <transparent_crc>
   16d9a:	c7 45 f0 00 00 00 00 	movl   $0x0,-0x10(%rbp)
   16da1:	e9 a0 00 00 00       	jmpq   16e46 <main+0x7c7>
   16da6:	c7 45 f4 00 00 00 00 	movl   $0x0,-0xc(%rbp)
   16dad:	e9 86 00 00 00       	jmpq   16e38 <main+0x7b9>
   16db2:	c7 45 f8 00 00 00 00 	movl   $0x0,-0x8(%rbp)
   16db9:	eb 73                	jmp    16e2e <main+0x7af>
   16dbb:	8b 45 f8             	mov    -0x8(%rbp),%eax
   16dbe:	48 98                	cltq   
   16dc0:	8b 55 f0             	mov    -0x10(%rbp),%edx
   16dc3:	48 63 ca             	movslq %edx,%rcx
   16dc6:	8b 55 f4             	mov    -0xc(%rbp),%edx
   16dc9:	48 63 d2             	movslq %edx,%rdx
   16dcc:	48 c1 e1 02          	shl    $0x2,%rcx
   16dd0:	48 01 ca             	add    %rcx,%rdx
   16dd3:	48 c1 e2 02          	shl    $0x2,%rdx
   16dd7:	48 01 d0             	add    %rdx,%rax
   16dda:	48 8d 14 85 00 00 00 	lea    0x0(,%rax,4),%rdx
   16de1:	00 
   16de2:	48 8d 05 d7 66 00 00 	lea    0x66d7(%rip),%rax        # 1d4c0 <g_1034>
   16de9:	8b 04 02             	mov    (%rdx,%rax,1),%eax
   16dec:	c1 e0 06             	shl    $0x6,%eax
   16def:	c0 f8 06             	sar    $0x6,%al
   16df2:	48 0f be c0          	movsbq %al,%rax
   16df6:	8b 55 fc             	mov    -0x4(%rbp),%edx
   16df9:	48 8d 35 b2 29 00 00 	lea    0x29b2(%rip),%rsi        # 197b2 <g_1645+0x1732>
   16e00:	48 89 c7             	mov    %rax,%rdi
   16e03:	e8 eb 18 ff ff       	callq  86f3 <transparent_crc>
   16e08:	83 7d fc 00          	cmpl   $0x0,-0x4(%rbp)
   16e0c:	74 1c                	je     16e2a <main+0x7ab>
   16e0e:	8b 4d f8             	mov    -0x8(%rbp),%ecx
   16e11:	8b 55 f4             	mov    -0xc(%rbp),%edx
   16e14:	8b 45 f0             	mov    -0x10(%rbp),%eax
   16e17:	89 c6                	mov    %eax,%esi
   16e19:	48 8d 3d 42 29 00 00 	lea    0x2942(%rip),%rdi        # 19762 <g_1645+0x16e2>
   16e20:	b8 00 00 00 00       	mov    $0x0,%eax
   16e25:	e8 56 02 ff ff       	callq  7080 <printf@plt>
   16e2a:	83 45 f8 01          	addl   $0x1,-0x8(%rbp)
   16e2e:	83 7d f8 03          	cmpl   $0x3,-0x8(%rbp)
   16e32:	7e 87                	jle    16dbb <main+0x73c>
   16e34:	83 45 f4 01          	addl   $0x1,-0xc(%rbp)
   16e38:	83 7d f4 03          	cmpl   $0x3,-0xc(%rbp)
   16e3c:	0f 8e 70 ff ff ff    	jle    16db2 <main+0x733>
   16e42:	83 45 f0 01          	addl   $0x1,-0x10(%rbp)
   16e46:	83 7d f0 02          	cmpl   $0x2,-0x10(%rbp)
   16e4a:	0f 8e 56 ff ff ff    	jle    16da6 <main+0x727>
   16e50:	8b 05 2a 67 00 00    	mov    0x672a(%rip),%eax        # 1d580 <g_1039>
   16e56:	48 98                	cltq   
   16e58:	8b 55 fc             	mov    -0x4(%rbp),%edx
   16e5b:	48 8d 35 63 29 00 00 	lea    0x2963(%rip),%rsi        # 197c5 <g_1645+0x1745>
   16e62:	48 89 c7             	mov    %rax,%rdi
   16e65:	e8 89 18 ff ff       	callq  86f3 <transparent_crc>
   16e6a:	48 8b 05 17 67 00 00 	mov    0x6717(%rip),%rax        # 1d588 <g_1078>
   16e71:	8b 55 fc             	mov    -0x4(%rbp),%edx
   16e74:	48 8d 35 51 29 00 00 	lea    0x2951(%rip),%rsi        # 197cc <g_1645+0x174c>
   16e7b:	48 89 c7             	mov    %rax,%rdi
   16e7e:	e8 70 18 ff ff       	callq  86f3 <transparent_crc>
   16e83:	c7 45 f0 00 00 00 00 	movl   $0x0,-0x10(%rbp)
   16e8a:	e9 a2 00 00 00       	jmpq   16f31 <main+0x8b2>
   16e8f:	c7 45 f4 00 00 00 00 	movl   $0x0,-0xc(%rbp)
   16e96:	e9 88 00 00 00       	jmpq   16f23 <main+0x8a4>
   16e9b:	c7 45 f8 00 00 00 00 	movl   $0x0,-0x8(%rbp)
   16ea2:	eb 75                	jmp    16f19 <main+0x89a>
   16ea4:	8b 45 f8             	mov    -0x8(%rbp),%eax
   16ea7:	48 63 f0             	movslq %eax,%rsi
   16eaa:	8b 45 f0             	mov    -0x10(%rbp),%eax
   16ead:	48 98                	cltq   
   16eaf:	8b 55 f4             	mov    -0xc(%rbp),%edx
   16eb2:	48 63 ca             	movslq %edx,%rcx
   16eb5:	48 89 c2             	mov    %rax,%rdx
   16eb8:	48 c1 e2 03          	shl    $0x3,%rdx
   16ebc:	48 01 c2             	add    %rax,%rdx
   16ebf:	48 89 c8             	mov    %rcx,%rax
   16ec2:	48 01 c0             	add    %rax,%rax
   16ec5:	48 01 c8             	add    %rcx,%rax
   16ec8:	48 01 d0             	add    %rdx,%rax
   16ecb:	48 01 f0             	add    %rsi,%rax
   16ece:	48 8d 14 c5 00 00 00 	lea    0x0(,%rax,8),%rdx
   16ed5:	00 
   16ed6:	48 8d 05 c3 66 00 00 	lea    0x66c3(%rip),%rax        # 1d5a0 <g_1094>
   16edd:	48 8b 04 02          	mov    (%rdx,%rax,1),%rax
   16ee1:	8b 55 fc             	mov    -0x4(%rbp),%edx
   16ee4:	48 8d 35 eb 28 00 00 	lea    0x28eb(%rip),%rsi        # 197d6 <g_1645+0x1756>
   16eeb:	48 89 c7             	mov    %rax,%rdi
   16eee:	e8 00 18 ff ff       	callq  86f3 <transparent_crc>
   16ef3:	83 7d fc 00          	cmpl   $0x0,-0x4(%rbp)
   16ef7:	74 1c                	je     16f15 <main+0x896>
   16ef9:	8b 4d f8             	mov    -0x8(%rbp),%ecx
   16efc:	8b 55 f4             	mov    -0xc(%rbp),%edx
   16eff:	8b 45 f0             	mov    -0x10(%rbp),%eax
   16f02:	89 c6                	mov    %eax,%esi
   16f04:	48 8d 3d 57 28 00 00 	lea    0x2857(%rip),%rdi        # 19762 <g_1645+0x16e2>
   16f0b:	b8 00 00 00 00       	mov    $0x0,%eax
   16f10:	e8 6b 01 ff ff       	callq  7080 <printf@plt>
   16f15:	83 45 f8 01          	addl   $0x1,-0x8(%rbp)
   16f19:	83 7d f8 02          	cmpl   $0x2,-0x8(%rbp)
   16f1d:	7e 85                	jle    16ea4 <main+0x825>
   16f1f:	83 45 f4 01          	addl   $0x1,-0xc(%rbp)
   16f23:	83 7d f4 02          	cmpl   $0x2,-0xc(%rbp)
   16f27:	0f 8e 6e ff ff ff    	jle    16e9b <main+0x81c>
   16f2d:	83 45 f0 01          	addl   $0x1,-0x10(%rbp)
   16f31:	83 7d f0 06          	cmpl   $0x6,-0x10(%rbp)
   16f35:	0f 8e 54 ff ff ff    	jle    16e8f <main+0x810>
   16f3b:	b8 fe ff ff ff       	mov    $0xfffffffe,%eax
   16f40:	48 0f be c0          	movsbq %al,%rax
   16f44:	8b 55 fc             	mov    -0x4(%rbp),%edx
   16f47:	48 8d 35 98 28 00 00 	lea    0x2898(%rip),%rsi        # 197e6 <g_1645+0x1766>
   16f4e:	48 89 c7             	mov    %rax,%rdi
   16f51:	e8 9d 17 ff ff       	callq  86f3 <transparent_crc>
   16f56:	0f b6 05 3b 68 00 00 	movzbl 0x683b(%rip),%eax        # 1d798 <g_1154>
   16f5d:	c1 e0 06             	shl    $0x6,%eax
   16f60:	c0 f8 06             	sar    $0x6,%al
   16f63:	48 0f be c0          	movsbq %al,%rax
   16f67:	8b 55 fc             	mov    -0x4(%rbp),%edx
   16f6a:	48 8d 35 7f 28 00 00 	lea    0x287f(%rip),%rsi        # 197f0 <g_1645+0x1770>
   16f71:	48 89 c7             	mov    %rax,%rdi
   16f74:	e8 7a 17 ff ff       	callq  86f3 <transparent_crc>
   16f79:	0f b6 05 1c 68 00 00 	movzbl 0x681c(%rip),%eax        # 1d79c <g_1262>
   16f80:	48 0f be c0          	movsbq %al,%rax
   16f84:	8b 55 fc             	mov    -0x4(%rbp),%edx
   16f87:	48 8d 35 6c 28 00 00 	lea    0x286c(%rip),%rsi        # 197fa <g_1645+0x177a>
   16f8e:	48 89 c7             	mov    %rax,%rdi
   16f91:	e8 5d 17 ff ff       	callq  86f3 <transparent_crc>
   16f96:	b8 03 00 00 00       	mov    $0x3,%eax
   16f9b:	48 89 c1             	mov    %rax,%rcx
   16f9e:	8b 45 fc             	mov    -0x4(%rbp),%eax
   16fa1:	89 c2                	mov    %eax,%edx
   16fa3:	48 8d 35 57 28 00 00 	lea    0x2857(%rip),%rsi        # 19801 <g_1645+0x1781>
   16faa:	48 89 cf             	mov    %rcx,%rdi
   16fad:	e8 41 17 ff ff       	callq  86f3 <transparent_crc>
   16fb2:	48 b8 ae 6e 18 20 ca 	movabs $0x547860ca20186eae,%rax
   16fb9:	60 78 54 
   16fbc:	48 89 c1             	mov    %rax,%rcx
   16fbf:	8b 45 fc             	mov    -0x4(%rbp),%eax
   16fc2:	89 c2                	mov    %eax,%edx
   16fc4:	48 8d 35 3d 28 00 00 	lea    0x283d(%rip),%rsi        # 19808 <g_1645+0x1788>
   16fcb:	48 89 cf             	mov    %rcx,%rdi
   16fce:	e8 20 17 ff ff       	callq  86f3 <transparent_crc>
   16fd3:	b8 ff ff ff ff       	mov    $0xffffffff,%eax
   16fd8:	48 98                	cltq   
   16fda:	8b 55 fc             	mov    -0x4(%rbp),%edx
   16fdd:	48 8d 35 2b 28 00 00 	lea    0x282b(%rip),%rsi        # 1980f <g_1645+0x178f>
   16fe4:	48 89 c7             	mov    %rax,%rdi
   16fe7:	e8 07 17 ff ff       	callq  86f3 <transparent_crc>
   16fec:	48 8b 05 ad 67 00 00 	mov    0x67ad(%rip),%rax        # 1d7a0 <g_1345>
   16ff3:	8b 55 fc             	mov    -0x4(%rbp),%edx
   16ff6:	48 8d 35 19 28 00 00 	lea    0x2819(%rip),%rsi        # 19816 <g_1645+0x1796>
   16ffd:	48 89 c7             	mov    %rax,%rdi
   17000:	e8 ee 16 ff ff       	callq  86f3 <transparent_crc>
   17005:	0f b6 05 9c 67 00 00 	movzbl 0x679c(%rip),%eax        # 1d7a8 <g_1347>
   1700c:	48 0f be c0          	movsbq %al,%rax
   17010:	8b 55 fc             	mov    -0x4(%rbp),%edx
   17013:	48 8d 35 06 28 00 00 	lea    0x2806(%rip),%rsi        # 19820 <g_1645+0x17a0>
   1701a:	48 89 c7             	mov    %rax,%rdi
   1701d:	e8 d1 16 ff ff       	callq  86f3 <transparent_crc>
   17022:	48 8b 05 87 67 00 00 	mov    0x6787(%rip),%rax        # 1d7b0 <g_1398>
   17029:	8b 55 fc             	mov    -0x4(%rbp),%edx
   1702c:	48 8d 35 f4 27 00 00 	lea    0x27f4(%rip),%rsi        # 19827 <g_1645+0x17a7>
   17033:	48 89 c7             	mov    %rax,%rdi
   17036:	e8 b8 16 ff ff       	callq  86f3 <transparent_crc>
   1703b:	c7 45 f0 00 00 00 00 	movl   $0x0,-0x10(%rbp)
   17042:	e9 b8 00 00 00       	jmpq   170ff <main+0xa80>
   17047:	c7 45 f4 00 00 00 00 	movl   $0x0,-0xc(%rbp)
   1704e:	e9 9e 00 00 00       	jmpq   170f1 <main+0xa72>
   17053:	c7 45 f8 00 00 00 00 	movl   $0x0,-0x8(%rbp)
   1705a:	e9 84 00 00 00       	jmpq   170e3 <main+0xa64>
   1705f:	8b 45 f8             	mov    -0x8(%rbp),%eax
   17062:	48 63 f0             	movslq %eax,%rsi
   17065:	8b 45 f0             	mov    -0x10(%rbp),%eax
   17068:	48 98                	cltq   
   1706a:	8b 55 f4             	mov    -0xc(%rbp),%edx
   1706d:	48 63 ca             	movslq %edx,%rcx
   17070:	48 89 c2             	mov    %rax,%rdx
   17073:	48 c1 e2 03          	shl    $0x3,%rdx
   17077:	48 01 c2             	add    %rax,%rdx
   1707a:	48 8d 04 12          	lea    (%rdx,%rdx,1),%rax
   1707e:	48 89 c2             	mov    %rax,%rdx
   17081:	48 89 c8             	mov    %rcx,%rax
   17084:	48 01 c0             	add    %rax,%rax
   17087:	48 01 c8             	add    %rcx,%rax
   1708a:	48 01 c0             	add    %rax,%rax
   1708d:	48 01 d0             	add    %rdx,%rax
   17090:	48 01 f0             	add    %rsi,%rax
   17093:	48 8d 14 c5 00 00 00 	lea    0x0(,%rax,8),%rdx
   1709a:	00 
   1709b:	48 8d 05 1e 67 00 00 	lea    0x671e(%rip),%rax        # 1d7c0 <g_1426>
   170a2:	48 8b 04 02          	mov    (%rdx,%rax,1),%rax
   170a6:	48 89 c1             	mov    %rax,%rcx
   170a9:	8b 45 fc             	mov    -0x4(%rbp),%eax
   170ac:	89 c2                	mov    %eax,%edx
   170ae:	48 8d 35 79 27 00 00 	lea    0x2779(%rip),%rsi        # 1982e <g_1645+0x17ae>
   170b5:	48 89 cf             	mov    %rcx,%rdi
   170b8:	e8 36 16 ff ff       	callq  86f3 <transparent_crc>
   170bd:	83 7d fc 00          	cmpl   $0x0,-0x4(%rbp)
   170c1:	74 1c                	je     170df <main+0xa60>
   170c3:	8b 4d f8             	mov    -0x8(%rbp),%ecx
   170c6:	8b 55 f4             	mov    -0xc(%rbp),%edx
   170c9:	8b 45 f0             	mov    -0x10(%rbp),%eax
   170cc:	89 c6                	mov    %eax,%esi
   170ce:	48 8d 3d 8d 26 00 00 	lea    0x268d(%rip),%rdi        # 19762 <g_1645+0x16e2>
   170d5:	b8 00 00 00 00       	mov    $0x0,%eax
   170da:	e8 a1 ff fe ff       	callq  7080 <printf@plt>
   170df:	83 45 f8 01          	addl   $0x1,-0x8(%rbp)
   170e3:	83 7d f8 05          	cmpl   $0x5,-0x8(%rbp)
   170e7:	0f 8e 72 ff ff ff    	jle    1705f <main+0x9e0>
   170ed:	83 45 f4 01          	addl   $0x1,-0xc(%rbp)
   170f1:	83 7d f4 02          	cmpl   $0x2,-0xc(%rbp)
   170f5:	0f 8e 58 ff ff ff    	jle    17053 <main+0x9d4>
   170fb:	83 45 f0 01          	addl   $0x1,-0x10(%rbp)
   170ff:	83 7d f0 05          	cmpl   $0x5,-0x10(%rbp)
   17103:	0f 8e 3e ff ff ff    	jle    17047 <main+0x9c8>
   17109:	48 8b 05 10 6a 00 00 	mov    0x6a10(%rip),%rax        # 1db20 <g_1452>
   17110:	8b 55 fc             	mov    -0x4(%rbp),%edx
   17113:	48 8d 35 24 27 00 00 	lea    0x2724(%rip),%rsi        # 1983e <g_1645+0x17be>
   1711a:	48 89 c7             	mov    %rax,%rdi
   1711d:	e8 d1 15 ff ff       	callq  86f3 <transparent_crc>
   17122:	48 8b 05 ff 69 00 00 	mov    0x69ff(%rip),%rax        # 1db28 <g_1453>
   17129:	8b 55 fc             	mov    -0x4(%rbp),%edx
   1712c:	48 8d 35 15 27 00 00 	lea    0x2715(%rip),%rsi        # 19848 <g_1645+0x17c8>
   17133:	48 89 c7             	mov    %rax,%rdi
   17136:	e8 b8 15 ff ff       	callq  86f3 <transparent_crc>
   1713b:	0f b6 05 ee 69 00 00 	movzbl 0x69ee(%rip),%eax        # 1db30 <g_1454>
   17142:	c1 e0 06             	shl    $0x6,%eax
   17145:	c0 f8 06             	sar    $0x6,%al
   17148:	48 0f be c0          	movsbq %al,%rax
   1714c:	8b 55 fc             	mov    -0x4(%rbp),%edx
   1714f:	48 8d 35 fc 26 00 00 	lea    0x26fc(%rip),%rsi        # 19852 <g_1645+0x17d2>
   17156:	48 89 c7             	mov    %rax,%rdi
   17159:	e8 95 15 ff ff       	callq  86f3 <transparent_crc>
   1715e:	48 8b 05 d3 69 00 00 	mov    0x69d3(%rip),%rax        # 1db38 <g_1606>
   17165:	8b 55 fc             	mov    -0x4(%rbp),%edx
   17168:	48 8d 35 ed 26 00 00 	lea    0x26ed(%rip),%rsi        # 1985c <g_1645+0x17dc>
   1716f:	48 89 c7             	mov    %rax,%rdi
   17172:	e8 7c 15 ff ff       	callq  86f3 <transparent_crc>
   17177:	0f b6 05 c2 69 00 00 	movzbl 0x69c2(%rip),%eax        # 1db40 <g_1630>
   1717e:	c1 e0 06             	shl    $0x6,%eax
   17181:	c0 f8 06             	sar    $0x6,%al
   17184:	48 0f be c0          	movsbq %al,%rax
   17188:	8b 55 fc             	mov    -0x4(%rbp),%edx
   1718b:	48 8d 35 d4 26 00 00 	lea    0x26d4(%rip),%rsi        # 19866 <g_1645+0x17e6>
   17192:	48 89 c7             	mov    %rax,%rdi
   17195:	e8 59 15 ff ff       	callq  86f3 <transparent_crc>
   1719a:	0f b6 05 a3 69 00 00 	movzbl 0x69a3(%rip),%eax        # 1db44 <g_1633>
   171a1:	0f b6 c0             	movzbl %al,%eax
   171a4:	8b 55 fc             	mov    -0x4(%rbp),%edx
   171a7:	48 8d 35 c2 26 00 00 	lea    0x26c2(%rip),%rsi        # 19870 <g_1645+0x17f0>
   171ae:	48 89 c7             	mov    %rax,%rdi
   171b1:	e8 3d 15 ff ff       	callq  86f3 <transparent_crc>
   171b6:	c7 45 f0 00 00 00 00 	movl   $0x0,-0x10(%rbp)
   171bd:	e9 9a 00 00 00       	jmpq   1725c <main+0xbdd>
   171c2:	c7 45 f4 00 00 00 00 	movl   $0x0,-0xc(%rbp)
   171c9:	e9 80 00 00 00       	jmpq   1724e <main+0xbcf>
   171ce:	c7 45 f8 00 00 00 00 	movl   $0x0,-0x8(%rbp)
   171d5:	eb 6d                	jmp    17244 <main+0xbc5>
   171d7:	8b 45 f8             	mov    -0x8(%rbp),%eax
   171da:	48 63 c8             	movslq %eax,%rcx
   171dd:	8b 45 f0             	mov    -0x10(%rbp),%eax
   171e0:	48 63 d0             	movslq %eax,%rdx
   171e3:	8b 45 f4             	mov    -0xc(%rbp),%eax
   171e6:	48 98                	cltq   
   171e8:	48 01 c2             	add    %rax,%rdx
   171eb:	48 89 d0             	mov    %rdx,%rax
   171ee:	48 c1 e0 03          	shl    $0x3,%rax
   171f2:	48 29 d0             	sub    %rdx,%rax
   171f5:	48 01 c8             	add    %rcx,%rax
   171f8:	48 8d 14 85 00 00 00 	lea    0x0(,%rax,4),%rdx
   171ff:	00 
   17200:	48 8d 05 79 0e 00 00 	lea    0xe79(%rip),%rax        # 18080 <g_1645>
   17207:	8b 04 02             	mov    (%rdx,%rax,1),%eax
   1720a:	48 98                	cltq   
   1720c:	8b 55 fc             	mov    -0x4(%rbp),%edx
   1720f:	48 8d 35 61 26 00 00 	lea    0x2661(%rip),%rsi        # 19877 <g_1645+0x17f7>
   17216:	48 89 c7             	mov    %rax,%rdi
   17219:	e8 d5 14 ff ff       	callq  86f3 <transparent_crc>
   1721e:	83 7d fc 00          	cmpl   $0x0,-0x4(%rbp)
   17222:	74 1c                	je     17240 <main+0xbc1>
   17224:	8b 4d f8             	mov    -0x8(%rbp),%ecx
   17227:	8b 55 f4             	mov    -0xc(%rbp),%edx
   1722a:	8b 45 f0             	mov    -0x10(%rbp),%eax
   1722d:	89 c6                	mov    %eax,%esi
   1722f:	48 8d 3d 2c 25 00 00 	lea    0x252c(%rip),%rdi        # 19762 <g_1645+0x16e2>
   17236:	b8 00 00 00 00       	mov    $0x0,%eax
   1723b:	e8 40 fe fe ff       	callq  7080 <printf@plt>
   17240:	83 45 f8 01          	addl   $0x1,-0x8(%rbp)
   17244:	83 7d f8 06          	cmpl   $0x6,-0x8(%rbp)
   17248:	7e 8d                	jle    171d7 <main+0xb58>
   1724a:	83 45 f4 01          	addl   $0x1,-0xc(%rbp)
   1724e:	83 7d f4 00          	cmpl   $0x0,-0xc(%rbp)
   17252:	0f 8e 76 ff ff ff    	jle    171ce <main+0xb4f>
   17258:	83 45 f0 01          	addl   $0x1,-0x10(%rbp)
   1725c:	83 7d f0 05          	cmpl   $0x5,-0x10(%rbp)
   17260:	0f 8e 5c ff ff ff    	jle    171c2 <main+0xb43>
   17266:	8b 05 dc 68 00 00    	mov    0x68dc(%rip),%eax        # 1db48 <g_1751>
   1726c:	48 98                	cltq   
   1726e:	8b 55 fc             	mov    -0x4(%rbp),%edx
   17271:	48 8d 35 0f 26 00 00 	lea    0x260f(%rip),%rsi        # 19887 <g_1645+0x1807>
   17278:	48 89 c7             	mov    %rax,%rdi
   1727b:	e8 73 14 ff ff       	callq  86f3 <transparent_crc>
   17280:	48 8b 05 31 89 00 00 	mov    0x8931(%rip),%rax        # 1fbb8 <g_1752>
   17287:	8b 55 fc             	mov    -0x4(%rbp),%edx
   1728a:	48 8d 35 fd 25 00 00 	lea    0x25fd(%rip),%rsi        # 1988e <g_1645+0x180e>
   17291:	48 89 c7             	mov    %rax,%rdi
   17294:	e8 5a 14 ff ff       	callq  86f3 <transparent_crc>
   17299:	0f b6 05 ac 68 00 00 	movzbl 0x68ac(%rip),%eax        # 1db4c <g_1774>
   172a0:	c1 e0 06             	shl    $0x6,%eax
   172a3:	c0 f8 06             	sar    $0x6,%al
   172a6:	48 0f be c0          	movsbq %al,%rax
   172aa:	8b 55 fc             	mov    -0x4(%rbp),%edx
   172ad:	48 8d 35 e4 25 00 00 	lea    0x25e4(%rip),%rsi        # 19898 <g_1645+0x1818>
   172b4:	48 89 c7             	mov    %rax,%rdi
   172b7:	e8 37 14 ff ff       	callq  86f3 <transparent_crc>
   172bc:	c7 45 f0 00 00 00 00 	movl   $0x0,-0x10(%rbp)
   172c3:	eb 4a                	jmp    1730f <main+0xc90>
   172c5:	8b 45 f0             	mov    -0x10(%rbp),%eax
   172c8:	48 98                	cltq   
   172ca:	48 8d 14 c5 00 00 00 	lea    0x0(,%rax,8),%rdx
   172d1:	00 
   172d2:	48 8d 05 87 68 00 00 	lea    0x6887(%rip),%rax        # 1db60 <g_1788>
   172d9:	48 8b 04 02          	mov    (%rdx,%rax,1),%rax
   172dd:	8b 55 fc             	mov    -0x4(%rbp),%edx
   172e0:	48 8d 35 bb 25 00 00 	lea    0x25bb(%rip),%rsi        # 198a2 <g_1645+0x1822>
   172e7:	48 89 c7             	mov    %rax,%rdi
   172ea:	e8 04 14 ff ff       	callq  86f3 <transparent_crc>
   172ef:	83 7d fc 00          	cmpl   $0x0,-0x4(%rbp)
   172f3:	74 16                	je     1730b <main+0xc8c>
   172f5:	8b 45 f0             	mov    -0x10(%rbp),%eax
   172f8:	89 c6                	mov    %eax,%esi
   172fa:	48 8d 3d 9c 23 00 00 	lea    0x239c(%rip),%rdi        # 1969d <g_1645+0x161d>
   17301:	b8 00 00 00 00       	mov    $0x0,%eax
   17306:	e8 75 fd fe ff       	callq  7080 <printf@plt>
   1730b:	83 45 f0 01          	addl   $0x1,-0x10(%rbp)
   1730f:	83 7d f0 08          	cmpl   $0x8,-0x10(%rbp)
   17313:	7e b0                	jle    172c5 <main+0xc46>
   17315:	8b 05 05 5d 00 00    	mov    0x5d05(%rip),%eax        # 1d020 <crc32_context>
   1731b:	f7 d0                	not    %eax
   1731d:	89 c2                	mov    %eax,%edx
   1731f:	8b 45 fc             	mov    -0x4(%rbp),%eax
   17322:	89 c6                	mov    %eax,%esi
   17324:	89 d7                	mov    %edx,%edi
   17326:	e8 69 fe fe ff       	callq  7194 <platform_main_end>
   1732b:	b8 00 00 00 00       	mov    $0x0,%eax
   17330:	c9                   	leaveq 
   17331:	c3                   	retq   
   17332:	66 2e 0f 1f 84 00 00 	nopw   %cs:0x0(%rax,%rax,1)
   17339:	00 00 00 
   1733c:	0f 1f 40 00          	nopl   0x0(%rax)

0000000000017340 <__libc_csu_init>:
   17340:	f3 0f 1e fa          	endbr64 
   17344:	41 57                	push   %r15
   17346:	4c 8d 3d e3 4f 00 00 	lea    0x4fe3(%rip),%r15        # 1c330 <__frame_dummy_init_array_entry>
   1734d:	41 56                	push   %r14
   1734f:	49 89 d6             	mov    %rdx,%r14
   17352:	41 55                	push   %r13
   17354:	49 89 f5             	mov    %rsi,%r13
   17357:	41 54                	push   %r12
   17359:	41 89 fc             	mov    %edi,%r12d
   1735c:	55                   	push   %rbp
   1735d:	48 8d 2d d4 4f 00 00 	lea    0x4fd4(%rip),%rbp        # 1c338 <__do_global_dtors_aux_fini_array_entry>
   17364:	53                   	push   %rbx
   17365:	4c 29 fd             	sub    %r15,%rbp
   17368:	48 83 ec 08          	sub    $0x8,%rsp
   1736c:	e8 8f fc fe ff       	callq  7000 <_init>
   17371:	48 c1 fd 03          	sar    $0x3,%rbp
   17375:	74 1f                	je     17396 <__libc_csu_init+0x56>
   17377:	31 db                	xor    %ebx,%ebx
   17379:	0f 1f 80 00 00 00 00 	nopl   0x0(%rax)
   17380:	4c 89 f2             	mov    %r14,%rdx
   17383:	4c 89 ee             	mov    %r13,%rsi
   17386:	44 89 e7             	mov    %r12d,%edi
   17389:	41 ff 14 df          	callq  *(%r15,%rbx,8)
   1738d:	48 83 c3 01          	add    $0x1,%rbx
   17391:	48 39 dd             	cmp    %rbx,%rbp
   17394:	75 ea                	jne    17380 <__libc_csu_init+0x40>
   17396:	48 83 c4 08          	add    $0x8,%rsp
   1739a:	5b                   	pop    %rbx
   1739b:	5d                   	pop    %rbp
   1739c:	41 5c                	pop    %r12
   1739e:	41 5d                	pop    %r13
   173a0:	41 5e                	pop    %r14
   173a2:	41 5f                	pop    %r15
   173a4:	c3                   	retq   
   173a5:	66 66 2e 0f 1f 84 00 	data16 nopw %cs:0x0(%rax,%rax,1)
   173ac:	00 00 00 00 

00000000000173b0 <__libc_csu_fini>:
   173b0:	f3 0f 1e fa          	endbr64 
   173b4:	c3                   	retq   
