


Disassembly of section .text:

000000000000c0a0 <_start>:
    c0a0:	f3 0f 1e fa          	endbr64 
    c0a4:	31 ed                	xor    %ebp,%ebp
    c0a6:	49 89 d1             	mov    %rdx,%r9
    c0a9:	5e                   	pop    %rsi
    c0aa:	48 89 e2             	mov    %rsp,%rdx
    c0ad:	48 83 e4 f0          	and    $0xfffffffffffffff0,%rsp
    c0b1:	50                   	push   %rax
    c0b2:	54                   	push   %rsp
    c0b3:	4c 8d 05 36 36 01 00 	lea    0x13636(%rip),%r8        # 1f6f0 <__libc_csu_fini>
    c0ba:	48 8d 0d bf 35 01 00 	lea    0x135bf(%rip),%rcx        # 1f680 <__libc_csu_init>
    c0c1:	48 8d 3d ca 27 01 00 	lea    0x127ca(%rip),%rdi        # 1e892 <main>
    c0c8:	ff 15 fa 9e 01 00    	callq  *0x19efa(%rip)        # 25fc8 <__libc_start_main@GLIBC_2.2.5>
    c0ce:	f4                   	hlt    
    c0cf:	90                   	nop

000000000000c0d0 <deregister_tm_clones>:
    c0d0:	48 8d 3d 69 e9 01 00 	lea    0x1e969(%rip),%rdi        # 2aa40 <__TMC_END__>
    c0d7:	48 8d 05 62 e9 01 00 	lea    0x1e962(%rip),%rax        # 2aa40 <__TMC_END__>
    c0de:	48 39 f8             	cmp    %rdi,%rax
    c0e1:	74 15                	je     c0f8 <deregister_tm_clones+0x28>
    c0e3:	48 8b 05 d6 9e 01 00 	mov    0x19ed6(%rip),%rax        # 25fc0 <_ITM_deregisterTMCloneTable>
    c0ea:	48 85 c0             	test   %rax,%rax
    c0ed:	74 09                	je     c0f8 <deregister_tm_clones+0x28>
    c0ef:	ff e0                	jmpq   *%rax
    c0f1:	0f 1f 80 00 00 00 00 	nopl   0x0(%rax)
    c0f8:	c3                   	retq   
    c0f9:	0f 1f 80 00 00 00 00 	nopl   0x0(%rax)

000000000000c100 <register_tm_clones>:
    c100:	48 8d 3d 39 e9 01 00 	lea    0x1e939(%rip),%rdi        # 2aa40 <__TMC_END__>
    c107:	48 8d 35 32 e9 01 00 	lea    0x1e932(%rip),%rsi        # 2aa40 <__TMC_END__>
    c10e:	48 29 fe             	sub    %rdi,%rsi
    c111:	48 89 f0             	mov    %rsi,%rax
    c114:	48 c1 ee 3f          	shr    $0x3f,%rsi
    c118:	48 c1 f8 03          	sar    $0x3,%rax
    c11c:	48 01 c6             	add    %rax,%rsi
    c11f:	48 d1 fe             	sar    %rsi
    c122:	74 14                	je     c138 <register_tm_clones+0x38>
    c124:	48 8b 05 ad 9e 01 00 	mov    0x19ead(%rip),%rax        # 25fd8 <_ITM_registerTMCloneTable>
    c12b:	48 85 c0             	test   %rax,%rax
    c12e:	74 08                	je     c138 <register_tm_clones+0x38>
    c130:	ff e0                	jmpq   *%rax
    c132:	66 0f 1f 44 00 00    	nopw   0x0(%rax,%rax,1)
    c138:	c3                   	retq   
    c139:	0f 1f 80 00 00 00 00 	nopl   0x0(%rax)

000000000000c140 <__do_global_dtors_aux>:
    c140:	f3 0f 1e fa          	endbr64 
    c144:	80 3d f5 e8 01 00 00 	cmpb   $0x0,0x1e8f5(%rip)        # 2aa40 <__TMC_END__>
    c14b:	75 2b                	jne    c178 <__do_global_dtors_aux+0x38>
    c14d:	55                   	push   %rbp
    c14e:	48 83 3d 8a 9e 01 00 	cmpq   $0x0,0x19e8a(%rip)        # 25fe0 <__cxa_finalize@GLIBC_2.2.5>
    c155:	00 
    c156:	48 89 e5             	mov    %rsp,%rbp
    c159:	74 0c                	je     c167 <__do_global_dtors_aux+0x27>
    c15b:	48 8b 3d a6 9e 01 00 	mov    0x19ea6(%rip),%rdi        # 26008 <__dso_handle>
    c162:	e8 f9 fe ff ff       	callq  c060 <__cxa_finalize@plt>
    c167:	e8 64 ff ff ff       	callq  c0d0 <deregister_tm_clones>
    c16c:	c6 05 cd e8 01 00 01 	movb   $0x1,0x1e8cd(%rip)        # 2aa40 <__TMC_END__>
    c173:	5d                   	pop    %rbp
    c174:	c3                   	retq   
    c175:	0f 1f 00             	nopl   (%rax)
    c178:	c3                   	retq   
    c179:	0f 1f 80 00 00 00 00 	nopl   0x0(%rax)

000000000000c180 <frame_dummy>:
    c180:	f3 0f 1e fa          	endbr64 
    c184:	e9 77 ff ff ff       	jmpq   c100 <register_tm_clones>

000000000000c189 <platform_main_begin>:
    c189:	f3 0f 1e fa          	endbr64 
    c18d:	55                   	push   %rbp
    c18e:	48 89 e5             	mov    %rsp,%rbp
    c191:	90                   	nop
    c192:	5d                   	pop    %rbp
    c193:	c3                   	retq   

000000000000c194 <platform_main_end>:
    c194:	f3 0f 1e fa          	endbr64 
    c198:	55                   	push   %rbp
    c199:	48 89 e5             	mov    %rsp,%rbp
    c19c:	48 83 ec 10          	sub    $0x10,%rsp
    c1a0:	89 7d fc             	mov    %edi,-0x4(%rbp)
    c1a3:	89 75 f8             	mov    %esi,-0x8(%rbp)
    c1a6:	8b 45 fc             	mov    -0x4(%rbp),%eax
    c1a9:	89 c6                	mov    %eax,%esi
    c1ab:	48 8d 3d 6e 3e 01 00 	lea    0x13e6e(%rip),%rdi        # 20020 <_IO_stdin_used+0x20>
    c1b2:	b8 00 00 00 00       	mov    $0x0,%eax
    c1b7:	e8 c4 fe ff ff       	callq  c080 <printf@plt>
    c1bc:	90                   	nop
    c1bd:	c9                   	leaveq 
    c1be:	c3                   	retq   

000000000000c1bf <safe_unary_minus_func_int8_t_s>:
    c1bf:	f3 0f 1e fa          	endbr64 
    c1c3:	55                   	push   %rbp
    c1c4:	48 89 e5             	mov    %rsp,%rbp
    c1c7:	89 f8                	mov    %edi,%eax
    c1c9:	88 45 fc             	mov    %al,-0x4(%rbp)
    c1cc:	0f b6 45 fc          	movzbl -0x4(%rbp),%eax
    c1d0:	f7 d8                	neg    %eax
    c1d2:	5d                   	pop    %rbp
    c1d3:	c3                   	retq   

000000000000c1d4 <safe_add_func_int8_t_s_s>:
    c1d4:	f3 0f 1e fa          	endbr64 
    c1d8:	55                   	push   %rbp
    c1d9:	48 89 e5             	mov    %rsp,%rbp
    c1dc:	89 fa                	mov    %edi,%edx
    c1de:	89 f0                	mov    %esi,%eax
    c1e0:	88 55 fc             	mov    %dl,-0x4(%rbp)
    c1e3:	88 45 f8             	mov    %al,-0x8(%rbp)
    c1e6:	0f b6 55 fc          	movzbl -0x4(%rbp),%edx
    c1ea:	0f b6 45 f8          	movzbl -0x8(%rbp),%eax
    c1ee:	01 d0                	add    %edx,%eax
    c1f0:	5d                   	pop    %rbp
    c1f1:	c3                   	retq   

000000000000c1f2 <safe_sub_func_int8_t_s_s>:
    c1f2:	f3 0f 1e fa          	endbr64 
    c1f6:	55                   	push   %rbp
    c1f7:	48 89 e5             	mov    %rsp,%rbp
    c1fa:	89 fa                	mov    %edi,%edx
    c1fc:	89 f0                	mov    %esi,%eax
    c1fe:	88 55 fc             	mov    %dl,-0x4(%rbp)
    c201:	88 45 f8             	mov    %al,-0x8(%rbp)
    c204:	0f b6 55 fc          	movzbl -0x4(%rbp),%edx
    c208:	0f b6 45 f8          	movzbl -0x8(%rbp),%eax
    c20c:	29 c2                	sub    %eax,%edx
    c20e:	89 d0                	mov    %edx,%eax
    c210:	5d                   	pop    %rbp
    c211:	c3                   	retq   

000000000000c212 <safe_mul_func_int8_t_s_s>:
    c212:	f3 0f 1e fa          	endbr64 
    c216:	55                   	push   %rbp
    c217:	48 89 e5             	mov    %rsp,%rbp
    c21a:	89 fa                	mov    %edi,%edx
    c21c:	89 f0                	mov    %esi,%eax
    c21e:	88 55 fc             	mov    %dl,-0x4(%rbp)
    c221:	88 45 f8             	mov    %al,-0x8(%rbp)
    c224:	0f b6 45 fc          	movzbl -0x4(%rbp),%eax
    c228:	0f b6 55 f8          	movzbl -0x8(%rbp),%edx
    c22c:	0f af c2             	imul   %edx,%eax
    c22f:	5d                   	pop    %rbp
    c230:	c3                   	retq   

000000000000c231 <safe_mod_func_int8_t_s_s>:
    c231:	f3 0f 1e fa          	endbr64 
    c235:	55                   	push   %rbp
    c236:	48 89 e5             	mov    %rsp,%rbp
    c239:	89 fa                	mov    %edi,%edx
    c23b:	89 f0                	mov    %esi,%eax
    c23d:	88 55 fc             	mov    %dl,-0x4(%rbp)
    c240:	88 45 f8             	mov    %al,-0x8(%rbp)
    c243:	80 7d f8 00          	cmpb   $0x0,-0x8(%rbp)
    c247:	74 1b                	je     c264 <safe_mod_func_int8_t_s_s+0x33>
    c249:	80 7d fc 80          	cmpb   $0x80,-0x4(%rbp)
    c24d:	75 06                	jne    c255 <safe_mod_func_int8_t_s_s+0x24>
    c24f:	80 7d f8 ff          	cmpb   $0xff,-0x8(%rbp)
    c253:	74 0f                	je     c264 <safe_mod_func_int8_t_s_s+0x33>
    c255:	0f be 45 fc          	movsbl -0x4(%rbp),%eax
    c259:	0f be 4d f8          	movsbl -0x8(%rbp),%ecx
    c25d:	99                   	cltd   
    c25e:	f7 f9                	idiv   %ecx
    c260:	89 d0                	mov    %edx,%eax
    c262:	eb 04                	jmp    c268 <safe_mod_func_int8_t_s_s+0x37>
    c264:	0f b6 45 fc          	movzbl -0x4(%rbp),%eax
    c268:	5d                   	pop    %rbp
    c269:	c3                   	retq   

000000000000c26a <safe_div_func_int8_t_s_s>:
    c26a:	f3 0f 1e fa          	endbr64 
    c26e:	55                   	push   %rbp
    c26f:	48 89 e5             	mov    %rsp,%rbp
    c272:	89 fa                	mov    %edi,%edx
    c274:	89 f0                	mov    %esi,%eax
    c276:	88 55 fc             	mov    %dl,-0x4(%rbp)
    c279:	88 45 f8             	mov    %al,-0x8(%rbp)
    c27c:	80 7d f8 00          	cmpb   $0x0,-0x8(%rbp)
    c280:	74 19                	je     c29b <safe_div_func_int8_t_s_s+0x31>
    c282:	80 7d fc 80          	cmpb   $0x80,-0x4(%rbp)
    c286:	75 06                	jne    c28e <safe_div_func_int8_t_s_s+0x24>
    c288:	80 7d f8 ff          	cmpb   $0xff,-0x8(%rbp)
    c28c:	74 0d                	je     c29b <safe_div_func_int8_t_s_s+0x31>
    c28e:	0f be 45 fc          	movsbl -0x4(%rbp),%eax
    c292:	0f be 4d f8          	movsbl -0x8(%rbp),%ecx
    c296:	99                   	cltd   
    c297:	f7 f9                	idiv   %ecx
    c299:	eb 04                	jmp    c29f <safe_div_func_int8_t_s_s+0x35>
    c29b:	0f b6 45 fc          	movzbl -0x4(%rbp),%eax
    c29f:	5d                   	pop    %rbp
    c2a0:	c3                   	retq   

000000000000c2a1 <safe_lshift_func_int8_t_s_s>:
    c2a1:	f3 0f 1e fa          	endbr64 
    c2a5:	55                   	push   %rbp
    c2a6:	48 89 e5             	mov    %rsp,%rbp
    c2a9:	89 f8                	mov    %edi,%eax
    c2ab:	89 75 f8             	mov    %esi,-0x8(%rbp)
    c2ae:	88 45 fc             	mov    %al,-0x4(%rbp)
    c2b1:	80 7d fc 00          	cmpb   $0x0,-0x4(%rbp)
    c2b5:	78 31                	js     c2e8 <safe_lshift_func_int8_t_s_s+0x47>
    c2b7:	83 7d f8 00          	cmpl   $0x0,-0x8(%rbp)
    c2bb:	78 2b                	js     c2e8 <safe_lshift_func_int8_t_s_s+0x47>
    c2bd:	83 7d f8 1f          	cmpl   $0x1f,-0x8(%rbp)
    c2c1:	7f 25                	jg     c2e8 <safe_lshift_func_int8_t_s_s+0x47>
    c2c3:	0f be 55 fc          	movsbl -0x4(%rbp),%edx
    c2c7:	8b 45 f8             	mov    -0x8(%rbp),%eax
    c2ca:	be 7f 00 00 00       	mov    $0x7f,%esi
    c2cf:	89 c1                	mov    %eax,%ecx
    c2d1:	d3 fe                	sar    %cl,%esi
    c2d3:	89 f0                	mov    %esi,%eax
    c2d5:	39 c2                	cmp    %eax,%edx
    c2d7:	7f 0f                	jg     c2e8 <safe_lshift_func_int8_t_s_s+0x47>
    c2d9:	0f be 55 fc          	movsbl -0x4(%rbp),%edx
    c2dd:	8b 45 f8             	mov    -0x8(%rbp),%eax
    c2e0:	89 c1                	mov    %eax,%ecx
    c2e2:	d3 e2                	shl    %cl,%edx
    c2e4:	89 d0                	mov    %edx,%eax
    c2e6:	eb 04                	jmp    c2ec <safe_lshift_func_int8_t_s_s+0x4b>
    c2e8:	0f b6 45 fc          	movzbl -0x4(%rbp),%eax
    c2ec:	5d                   	pop    %rbp
    c2ed:	c3                   	retq   

000000000000c2ee <safe_lshift_func_int8_t_s_u>:
    c2ee:	f3 0f 1e fa          	endbr64 
    c2f2:	55                   	push   %rbp
    c2f3:	48 89 e5             	mov    %rsp,%rbp
    c2f6:	89 f8                	mov    %edi,%eax
    c2f8:	89 75 f8             	mov    %esi,-0x8(%rbp)
    c2fb:	88 45 fc             	mov    %al,-0x4(%rbp)
    c2fe:	80 7d fc 00          	cmpb   $0x0,-0x4(%rbp)
    c302:	78 2b                	js     c32f <safe_lshift_func_int8_t_s_u+0x41>
    c304:	83 7d f8 1f          	cmpl   $0x1f,-0x8(%rbp)
    c308:	77 25                	ja     c32f <safe_lshift_func_int8_t_s_u+0x41>
    c30a:	0f be 55 fc          	movsbl -0x4(%rbp),%edx
    c30e:	8b 45 f8             	mov    -0x8(%rbp),%eax
    c311:	be 7f 00 00 00       	mov    $0x7f,%esi
    c316:	89 c1                	mov    %eax,%ecx
    c318:	d3 fe                	sar    %cl,%esi
    c31a:	89 f0                	mov    %esi,%eax
    c31c:	39 c2                	cmp    %eax,%edx
    c31e:	7f 0f                	jg     c32f <safe_lshift_func_int8_t_s_u+0x41>
    c320:	0f be 55 fc          	movsbl -0x4(%rbp),%edx
    c324:	8b 45 f8             	mov    -0x8(%rbp),%eax
    c327:	89 c1                	mov    %eax,%ecx
    c329:	d3 e2                	shl    %cl,%edx
    c32b:	89 d0                	mov    %edx,%eax
    c32d:	eb 04                	jmp    c333 <safe_lshift_func_int8_t_s_u+0x45>
    c32f:	0f b6 45 fc          	movzbl -0x4(%rbp),%eax
    c333:	5d                   	pop    %rbp
    c334:	c3                   	retq   

000000000000c335 <safe_rshift_func_int8_t_s_s>:
    c335:	f3 0f 1e fa          	endbr64 
    c339:	55                   	push   %rbp
    c33a:	48 89 e5             	mov    %rsp,%rbp
    c33d:	89 f8                	mov    %edi,%eax
    c33f:	89 75 f8             	mov    %esi,-0x8(%rbp)
    c342:	88 45 fc             	mov    %al,-0x4(%rbp)
    c345:	80 7d fc 00          	cmpb   $0x0,-0x4(%rbp)
    c349:	78 1b                	js     c366 <safe_rshift_func_int8_t_s_s+0x31>
    c34b:	83 7d f8 00          	cmpl   $0x0,-0x8(%rbp)
    c34f:	78 15                	js     c366 <safe_rshift_func_int8_t_s_s+0x31>
    c351:	83 7d f8 1f          	cmpl   $0x1f,-0x8(%rbp)
    c355:	7f 0f                	jg     c366 <safe_rshift_func_int8_t_s_s+0x31>
    c357:	0f be 55 fc          	movsbl -0x4(%rbp),%edx
    c35b:	8b 45 f8             	mov    -0x8(%rbp),%eax
    c35e:	89 c1                	mov    %eax,%ecx
    c360:	d3 fa                	sar    %cl,%edx
    c362:	89 d0                	mov    %edx,%eax
    c364:	eb 04                	jmp    c36a <safe_rshift_func_int8_t_s_s+0x35>
    c366:	0f b6 45 fc          	movzbl -0x4(%rbp),%eax
    c36a:	5d                   	pop    %rbp
    c36b:	c3                   	retq   

000000000000c36c <safe_rshift_func_int8_t_s_u>:
    c36c:	f3 0f 1e fa          	endbr64 
    c370:	55                   	push   %rbp
    c371:	48 89 e5             	mov    %rsp,%rbp
    c374:	89 f8                	mov    %edi,%eax
    c376:	89 75 f8             	mov    %esi,-0x8(%rbp)
    c379:	88 45 fc             	mov    %al,-0x4(%rbp)
    c37c:	80 7d fc 00          	cmpb   $0x0,-0x4(%rbp)
    c380:	78 15                	js     c397 <safe_rshift_func_int8_t_s_u+0x2b>
    c382:	83 7d f8 1f          	cmpl   $0x1f,-0x8(%rbp)
    c386:	77 0f                	ja     c397 <safe_rshift_func_int8_t_s_u+0x2b>
    c388:	0f be 55 fc          	movsbl -0x4(%rbp),%edx
    c38c:	8b 45 f8             	mov    -0x8(%rbp),%eax
    c38f:	89 c1                	mov    %eax,%ecx
    c391:	d3 fa                	sar    %cl,%edx
    c393:	89 d0                	mov    %edx,%eax
    c395:	eb 04                	jmp    c39b <safe_rshift_func_int8_t_s_u+0x2f>
    c397:	0f b6 45 fc          	movzbl -0x4(%rbp),%eax
    c39b:	5d                   	pop    %rbp
    c39c:	c3                   	retq   

000000000000c39d <safe_unary_minus_func_int16_t_s>:
    c39d:	f3 0f 1e fa          	endbr64 
    c3a1:	55                   	push   %rbp
    c3a2:	48 89 e5             	mov    %rsp,%rbp
    c3a5:	89 f8                	mov    %edi,%eax
    c3a7:	66 89 45 fc          	mov    %ax,-0x4(%rbp)
    c3ab:	0f b7 45 fc          	movzwl -0x4(%rbp),%eax
    c3af:	f7 d8                	neg    %eax
    c3b1:	5d                   	pop    %rbp
    c3b2:	c3                   	retq   

000000000000c3b3 <safe_add_func_int16_t_s_s>:
    c3b3:	f3 0f 1e fa          	endbr64 
    c3b7:	55                   	push   %rbp
    c3b8:	48 89 e5             	mov    %rsp,%rbp
    c3bb:	89 fa                	mov    %edi,%edx
    c3bd:	89 f0                	mov    %esi,%eax
    c3bf:	66 89 55 fc          	mov    %dx,-0x4(%rbp)
    c3c3:	66 89 45 f8          	mov    %ax,-0x8(%rbp)
    c3c7:	0f b7 55 fc          	movzwl -0x4(%rbp),%edx
    c3cb:	0f b7 45 f8          	movzwl -0x8(%rbp),%eax
    c3cf:	01 d0                	add    %edx,%eax
    c3d1:	5d                   	pop    %rbp
    c3d2:	c3                   	retq   

000000000000c3d3 <safe_sub_func_int16_t_s_s>:
    c3d3:	f3 0f 1e fa          	endbr64 
    c3d7:	55                   	push   %rbp
    c3d8:	48 89 e5             	mov    %rsp,%rbp
    c3db:	89 fa                	mov    %edi,%edx
    c3dd:	89 f0                	mov    %esi,%eax
    c3df:	66 89 55 fc          	mov    %dx,-0x4(%rbp)
    c3e3:	66 89 45 f8          	mov    %ax,-0x8(%rbp)
    c3e7:	0f b7 55 fc          	movzwl -0x4(%rbp),%edx
    c3eb:	0f b7 45 f8          	movzwl -0x8(%rbp),%eax
    c3ef:	29 c2                	sub    %eax,%edx
    c3f1:	89 d0                	mov    %edx,%eax
    c3f3:	5d                   	pop    %rbp
    c3f4:	c3                   	retq   

000000000000c3f5 <safe_mul_func_int16_t_s_s>:
    c3f5:	f3 0f 1e fa          	endbr64 
    c3f9:	55                   	push   %rbp
    c3fa:	48 89 e5             	mov    %rsp,%rbp
    c3fd:	89 fa                	mov    %edi,%edx
    c3ff:	89 f0                	mov    %esi,%eax
    c401:	66 89 55 fc          	mov    %dx,-0x4(%rbp)
    c405:	66 89 45 f8          	mov    %ax,-0x8(%rbp)
    c409:	0f b7 55 fc          	movzwl -0x4(%rbp),%edx
    c40d:	0f b7 45 f8          	movzwl -0x8(%rbp),%eax
    c411:	0f af c2             	imul   %edx,%eax
    c414:	5d                   	pop    %rbp
    c415:	c3                   	retq   

000000000000c416 <safe_mod_func_int16_t_s_s>:
    c416:	f3 0f 1e fa          	endbr64 
    c41a:	55                   	push   %rbp
    c41b:	48 89 e5             	mov    %rsp,%rbp
    c41e:	89 fa                	mov    %edi,%edx
    c420:	89 f0                	mov    %esi,%eax
    c422:	66 89 55 fc          	mov    %dx,-0x4(%rbp)
    c426:	66 89 45 f8          	mov    %ax,-0x8(%rbp)
    c42a:	66 83 7d f8 00       	cmpw   $0x0,-0x8(%rbp)
    c42f:	74 1e                	je     c44f <safe_mod_func_int16_t_s_s+0x39>
    c431:	66 81 7d fc 00 80    	cmpw   $0x8000,-0x4(%rbp)
    c437:	75 07                	jne    c440 <safe_mod_func_int16_t_s_s+0x2a>
    c439:	66 83 7d f8 ff       	cmpw   $0xffff,-0x8(%rbp)
    c43e:	74 0f                	je     c44f <safe_mod_func_int16_t_s_s+0x39>
    c440:	0f bf 45 fc          	movswl -0x4(%rbp),%eax
    c444:	0f bf 4d f8          	movswl -0x8(%rbp),%ecx
    c448:	99                   	cltd   
    c449:	f7 f9                	idiv   %ecx
    c44b:	89 d0                	mov    %edx,%eax
    c44d:	eb 04                	jmp    c453 <safe_mod_func_int16_t_s_s+0x3d>
    c44f:	0f b7 45 fc          	movzwl -0x4(%rbp),%eax
    c453:	5d                   	pop    %rbp
    c454:	c3                   	retq   

000000000000c455 <safe_div_func_int16_t_s_s>:
    c455:	f3 0f 1e fa          	endbr64 
    c459:	55                   	push   %rbp
    c45a:	48 89 e5             	mov    %rsp,%rbp
    c45d:	89 fa                	mov    %edi,%edx
    c45f:	89 f0                	mov    %esi,%eax
    c461:	66 89 55 fc          	mov    %dx,-0x4(%rbp)
    c465:	66 89 45 f8          	mov    %ax,-0x8(%rbp)
    c469:	66 83 7d f8 00       	cmpw   $0x0,-0x8(%rbp)
    c46e:	74 1c                	je     c48c <safe_div_func_int16_t_s_s+0x37>
    c470:	66 81 7d fc 00 80    	cmpw   $0x8000,-0x4(%rbp)
    c476:	75 07                	jne    c47f <safe_div_func_int16_t_s_s+0x2a>
    c478:	66 83 7d f8 ff       	cmpw   $0xffff,-0x8(%rbp)
    c47d:	74 0d                	je     c48c <safe_div_func_int16_t_s_s+0x37>
    c47f:	0f bf 45 fc          	movswl -0x4(%rbp),%eax
    c483:	0f bf 4d f8          	movswl -0x8(%rbp),%ecx
    c487:	99                   	cltd   
    c488:	f7 f9                	idiv   %ecx
    c48a:	eb 04                	jmp    c490 <safe_div_func_int16_t_s_s+0x3b>
    c48c:	0f b7 45 fc          	movzwl -0x4(%rbp),%eax
    c490:	5d                   	pop    %rbp
    c491:	c3                   	retq   

000000000000c492 <safe_lshift_func_int16_t_s_s>:
    c492:	f3 0f 1e fa          	endbr64 
    c496:	55                   	push   %rbp
    c497:	48 89 e5             	mov    %rsp,%rbp
    c49a:	89 f8                	mov    %edi,%eax
    c49c:	89 75 f8             	mov    %esi,-0x8(%rbp)
    c49f:	66 89 45 fc          	mov    %ax,-0x4(%rbp)
    c4a3:	66 83 7d fc 00       	cmpw   $0x0,-0x4(%rbp)
    c4a8:	78 31                	js     c4db <safe_lshift_func_int16_t_s_s+0x49>
    c4aa:	83 7d f8 00          	cmpl   $0x0,-0x8(%rbp)
    c4ae:	78 2b                	js     c4db <safe_lshift_func_int16_t_s_s+0x49>
    c4b0:	83 7d f8 1f          	cmpl   $0x1f,-0x8(%rbp)
    c4b4:	7f 25                	jg     c4db <safe_lshift_func_int16_t_s_s+0x49>
    c4b6:	0f bf 55 fc          	movswl -0x4(%rbp),%edx
    c4ba:	8b 45 f8             	mov    -0x8(%rbp),%eax
    c4bd:	be ff 7f 00 00       	mov    $0x7fff,%esi
    c4c2:	89 c1                	mov    %eax,%ecx
    c4c4:	d3 fe                	sar    %cl,%esi
    c4c6:	89 f0                	mov    %esi,%eax
    c4c8:	39 c2                	cmp    %eax,%edx
    c4ca:	7f 0f                	jg     c4db <safe_lshift_func_int16_t_s_s+0x49>
    c4cc:	0f bf 55 fc          	movswl -0x4(%rbp),%edx
    c4d0:	8b 45 f8             	mov    -0x8(%rbp),%eax
    c4d3:	89 c1                	mov    %eax,%ecx
    c4d5:	d3 e2                	shl    %cl,%edx
    c4d7:	89 d0                	mov    %edx,%eax
    c4d9:	eb 04                	jmp    c4df <safe_lshift_func_int16_t_s_s+0x4d>
    c4db:	0f b7 45 fc          	movzwl -0x4(%rbp),%eax
    c4df:	5d                   	pop    %rbp
    c4e0:	c3                   	retq   

000000000000c4e1 <safe_lshift_func_int16_t_s_u>:
    c4e1:	f3 0f 1e fa          	endbr64 
    c4e5:	55                   	push   %rbp
    c4e6:	48 89 e5             	mov    %rsp,%rbp
    c4e9:	89 f8                	mov    %edi,%eax
    c4eb:	89 75 f8             	mov    %esi,-0x8(%rbp)
    c4ee:	66 89 45 fc          	mov    %ax,-0x4(%rbp)
    c4f2:	66 83 7d fc 00       	cmpw   $0x0,-0x4(%rbp)
    c4f7:	78 2b                	js     c524 <safe_lshift_func_int16_t_s_u+0x43>
    c4f9:	83 7d f8 1f          	cmpl   $0x1f,-0x8(%rbp)
    c4fd:	77 25                	ja     c524 <safe_lshift_func_int16_t_s_u+0x43>
    c4ff:	0f bf 55 fc          	movswl -0x4(%rbp),%edx
    c503:	8b 45 f8             	mov    -0x8(%rbp),%eax
    c506:	be ff 7f 00 00       	mov    $0x7fff,%esi
    c50b:	89 c1                	mov    %eax,%ecx
    c50d:	d3 fe                	sar    %cl,%esi
    c50f:	89 f0                	mov    %esi,%eax
    c511:	39 c2                	cmp    %eax,%edx
    c513:	7f 0f                	jg     c524 <safe_lshift_func_int16_t_s_u+0x43>
    c515:	0f bf 55 fc          	movswl -0x4(%rbp),%edx
    c519:	8b 45 f8             	mov    -0x8(%rbp),%eax
    c51c:	89 c1                	mov    %eax,%ecx
    c51e:	d3 e2                	shl    %cl,%edx
    c520:	89 d0                	mov    %edx,%eax
    c522:	eb 04                	jmp    c528 <safe_lshift_func_int16_t_s_u+0x47>
    c524:	0f b7 45 fc          	movzwl -0x4(%rbp),%eax
    c528:	5d                   	pop    %rbp
    c529:	c3                   	retq   

000000000000c52a <safe_rshift_func_int16_t_s_s>:
    c52a:	f3 0f 1e fa          	endbr64 
    c52e:	55                   	push   %rbp
    c52f:	48 89 e5             	mov    %rsp,%rbp
    c532:	89 f8                	mov    %edi,%eax
    c534:	89 75 f8             	mov    %esi,-0x8(%rbp)
    c537:	66 89 45 fc          	mov    %ax,-0x4(%rbp)
    c53b:	66 83 7d fc 00       	cmpw   $0x0,-0x4(%rbp)
    c540:	78 1b                	js     c55d <safe_rshift_func_int16_t_s_s+0x33>
    c542:	83 7d f8 00          	cmpl   $0x0,-0x8(%rbp)
    c546:	78 15                	js     c55d <safe_rshift_func_int16_t_s_s+0x33>
    c548:	83 7d f8 1f          	cmpl   $0x1f,-0x8(%rbp)
    c54c:	7f 0f                	jg     c55d <safe_rshift_func_int16_t_s_s+0x33>
    c54e:	0f bf 55 fc          	movswl -0x4(%rbp),%edx
    c552:	8b 45 f8             	mov    -0x8(%rbp),%eax
    c555:	89 c1                	mov    %eax,%ecx
    c557:	d3 fa                	sar    %cl,%edx
    c559:	89 d0                	mov    %edx,%eax
    c55b:	eb 04                	jmp    c561 <safe_rshift_func_int16_t_s_s+0x37>
    c55d:	0f b7 45 fc          	movzwl -0x4(%rbp),%eax
    c561:	5d                   	pop    %rbp
    c562:	c3                   	retq   

000000000000c563 <safe_rshift_func_int16_t_s_u>:
    c563:	f3 0f 1e fa          	endbr64 
    c567:	55                   	push   %rbp
    c568:	48 89 e5             	mov    %rsp,%rbp
    c56b:	89 f8                	mov    %edi,%eax
    c56d:	89 75 f8             	mov    %esi,-0x8(%rbp)
    c570:	66 89 45 fc          	mov    %ax,-0x4(%rbp)
    c574:	66 83 7d fc 00       	cmpw   $0x0,-0x4(%rbp)
    c579:	78 15                	js     c590 <safe_rshift_func_int16_t_s_u+0x2d>
    c57b:	83 7d f8 1f          	cmpl   $0x1f,-0x8(%rbp)
    c57f:	77 0f                	ja     c590 <safe_rshift_func_int16_t_s_u+0x2d>
    c581:	0f bf 55 fc          	movswl -0x4(%rbp),%edx
    c585:	8b 45 f8             	mov    -0x8(%rbp),%eax
    c588:	89 c1                	mov    %eax,%ecx
    c58a:	d3 fa                	sar    %cl,%edx
    c58c:	89 d0                	mov    %edx,%eax
    c58e:	eb 04                	jmp    c594 <safe_rshift_func_int16_t_s_u+0x31>
    c590:	0f b7 45 fc          	movzwl -0x4(%rbp),%eax
    c594:	5d                   	pop    %rbp
    c595:	c3                   	retq   

000000000000c596 <safe_unary_minus_func_int32_t_s>:
    c596:	f3 0f 1e fa          	endbr64 
    c59a:	55                   	push   %rbp
    c59b:	48 89 e5             	mov    %rsp,%rbp
    c59e:	89 7d fc             	mov    %edi,-0x4(%rbp)
    c5a1:	81 7d fc 00 00 00 80 	cmpl   $0x80000000,-0x4(%rbp)
    c5a8:	74 07                	je     c5b1 <safe_unary_minus_func_int32_t_s+0x1b>
    c5aa:	8b 45 fc             	mov    -0x4(%rbp),%eax
    c5ad:	f7 d8                	neg    %eax
    c5af:	eb 03                	jmp    c5b4 <safe_unary_minus_func_int32_t_s+0x1e>
    c5b1:	8b 45 fc             	mov    -0x4(%rbp),%eax
    c5b4:	5d                   	pop    %rbp
    c5b5:	c3                   	retq   

000000000000c5b6 <safe_add_func_int32_t_s_s>:
    c5b6:	f3 0f 1e fa          	endbr64 
    c5ba:	55                   	push   %rbp
    c5bb:	48 89 e5             	mov    %rsp,%rbp
    c5be:	89 7d fc             	mov    %edi,-0x4(%rbp)
    c5c1:	89 75 f8             	mov    %esi,-0x8(%rbp)
    c5c4:	83 7d fc 00          	cmpl   $0x0,-0x4(%rbp)
    c5c8:	7e 13                	jle    c5dd <safe_add_func_int32_t_s_s+0x27>
    c5ca:	83 7d f8 00          	cmpl   $0x0,-0x8(%rbp)
    c5ce:	7e 0d                	jle    c5dd <safe_add_func_int32_t_s_s+0x27>
    c5d0:	b8 ff ff ff 7f       	mov    $0x7fffffff,%eax
    c5d5:	2b 45 f8             	sub    -0x8(%rbp),%eax
    c5d8:	39 45 fc             	cmp    %eax,-0x4(%rbp)
    c5db:	7f 23                	jg     c600 <safe_add_func_int32_t_s_s+0x4a>
    c5dd:	83 7d fc 00          	cmpl   $0x0,-0x4(%rbp)
    c5e1:	79 13                	jns    c5f6 <safe_add_func_int32_t_s_s+0x40>
    c5e3:	83 7d f8 00          	cmpl   $0x0,-0x8(%rbp)
    c5e7:	79 0d                	jns    c5f6 <safe_add_func_int32_t_s_s+0x40>
    c5e9:	b8 00 00 00 80       	mov    $0x80000000,%eax
    c5ee:	2b 45 f8             	sub    -0x8(%rbp),%eax
    c5f1:	39 45 fc             	cmp    %eax,-0x4(%rbp)
    c5f4:	7c 0a                	jl     c600 <safe_add_func_int32_t_s_s+0x4a>
    c5f6:	8b 55 fc             	mov    -0x4(%rbp),%edx
    c5f9:	8b 45 f8             	mov    -0x8(%rbp),%eax
    c5fc:	01 d0                	add    %edx,%eax
    c5fe:	eb 03                	jmp    c603 <safe_add_func_int32_t_s_s+0x4d>
    c600:	8b 45 fc             	mov    -0x4(%rbp),%eax
    c603:	5d                   	pop    %rbp
    c604:	c3                   	retq   

000000000000c605 <safe_sub_func_int32_t_s_s>:
    c605:	f3 0f 1e fa          	endbr64 
    c609:	55                   	push   %rbp
    c60a:	48 89 e5             	mov    %rsp,%rbp
    c60d:	89 7d fc             	mov    %edi,-0x4(%rbp)
    c610:	89 75 f8             	mov    %esi,-0x8(%rbp)
    c613:	8b 45 fc             	mov    -0x4(%rbp),%eax
    c616:	33 45 f8             	xor    -0x8(%rbp),%eax
    c619:	89 c2                	mov    %eax,%edx
    c61b:	8b 45 fc             	mov    -0x4(%rbp),%eax
    c61e:	33 45 f8             	xor    -0x8(%rbp),%eax
    c621:	25 00 00 00 80       	and    $0x80000000,%eax
    c626:	33 45 fc             	xor    -0x4(%rbp),%eax
    c629:	2b 45 f8             	sub    -0x8(%rbp),%eax
    c62c:	33 45 f8             	xor    -0x8(%rbp),%eax
    c62f:	21 d0                	and    %edx,%eax
    c631:	85 c0                	test   %eax,%eax
    c633:	78 08                	js     c63d <safe_sub_func_int32_t_s_s+0x38>
    c635:	8b 45 fc             	mov    -0x4(%rbp),%eax
    c638:	2b 45 f8             	sub    -0x8(%rbp),%eax
    c63b:	eb 03                	jmp    c640 <safe_sub_func_int32_t_s_s+0x3b>
    c63d:	8b 45 fc             	mov    -0x4(%rbp),%eax
    c640:	5d                   	pop    %rbp
    c641:	c3                   	retq   

000000000000c642 <safe_mul_func_int32_t_s_s>:
    c642:	f3 0f 1e fa          	endbr64 
    c646:	55                   	push   %rbp
    c647:	48 89 e5             	mov    %rsp,%rbp
    c64a:	89 7d fc             	mov    %edi,-0x4(%rbp)
    c64d:	89 75 f8             	mov    %esi,-0x8(%rbp)
    c650:	83 7d fc 00          	cmpl   $0x0,-0x4(%rbp)
    c654:	7e 14                	jle    c66a <safe_mul_func_int32_t_s_s+0x28>
    c656:	83 7d f8 00          	cmpl   $0x0,-0x8(%rbp)
    c65a:	7e 0e                	jle    c66a <safe_mul_func_int32_t_s_s+0x28>
    c65c:	b8 ff ff ff 7f       	mov    $0x7fffffff,%eax
    c661:	99                   	cltd   
    c662:	f7 7d f8             	idivl  -0x8(%rbp)
    c665:	39 45 fc             	cmp    %eax,-0x4(%rbp)
    c668:	7f 5d                	jg     c6c7 <safe_mul_func_int32_t_s_s+0x85>
    c66a:	83 7d fc 00          	cmpl   $0x0,-0x4(%rbp)
    c66e:	7e 14                	jle    c684 <safe_mul_func_int32_t_s_s+0x42>
    c670:	83 7d f8 00          	cmpl   $0x0,-0x8(%rbp)
    c674:	7f 0e                	jg     c684 <safe_mul_func_int32_t_s_s+0x42>
    c676:	b8 00 00 00 80       	mov    $0x80000000,%eax
    c67b:	99                   	cltd   
    c67c:	f7 7d fc             	idivl  -0x4(%rbp)
    c67f:	39 45 f8             	cmp    %eax,-0x8(%rbp)
    c682:	7c 43                	jl     c6c7 <safe_mul_func_int32_t_s_s+0x85>
    c684:	83 7d fc 00          	cmpl   $0x0,-0x4(%rbp)
    c688:	7f 14                	jg     c69e <safe_mul_func_int32_t_s_s+0x5c>
    c68a:	83 7d f8 00          	cmpl   $0x0,-0x8(%rbp)
    c68e:	7e 0e                	jle    c69e <safe_mul_func_int32_t_s_s+0x5c>
    c690:	b8 00 00 00 80       	mov    $0x80000000,%eax
    c695:	99                   	cltd   
    c696:	f7 7d f8             	idivl  -0x8(%rbp)
    c699:	39 45 fc             	cmp    %eax,-0x4(%rbp)
    c69c:	7c 29                	jl     c6c7 <safe_mul_func_int32_t_s_s+0x85>
    c69e:	83 7d fc 00          	cmpl   $0x0,-0x4(%rbp)
    c6a2:	7f 1a                	jg     c6be <safe_mul_func_int32_t_s_s+0x7c>
    c6a4:	83 7d f8 00          	cmpl   $0x0,-0x8(%rbp)
    c6a8:	7f 14                	jg     c6be <safe_mul_func_int32_t_s_s+0x7c>
    c6aa:	83 7d fc 00          	cmpl   $0x0,-0x4(%rbp)
    c6ae:	74 0e                	je     c6be <safe_mul_func_int32_t_s_s+0x7c>
    c6b0:	b8 ff ff ff 7f       	mov    $0x7fffffff,%eax
    c6b5:	99                   	cltd   
    c6b6:	f7 7d fc             	idivl  -0x4(%rbp)
    c6b9:	39 45 f8             	cmp    %eax,-0x8(%rbp)
    c6bc:	7c 09                	jl     c6c7 <safe_mul_func_int32_t_s_s+0x85>
    c6be:	8b 45 fc             	mov    -0x4(%rbp),%eax
    c6c1:	0f af 45 f8          	imul   -0x8(%rbp),%eax
    c6c5:	eb 03                	jmp    c6ca <safe_mul_func_int32_t_s_s+0x88>
    c6c7:	8b 45 fc             	mov    -0x4(%rbp),%eax
    c6ca:	5d                   	pop    %rbp
    c6cb:	c3                   	retq   

000000000000c6cc <safe_mod_func_int32_t_s_s>:
    c6cc:	f3 0f 1e fa          	endbr64 
    c6d0:	55                   	push   %rbp
    c6d1:	48 89 e5             	mov    %rsp,%rbp
    c6d4:	89 7d fc             	mov    %edi,-0x4(%rbp)
    c6d7:	89 75 f8             	mov    %esi,-0x8(%rbp)
    c6da:	83 7d f8 00          	cmpl   $0x0,-0x8(%rbp)
    c6de:	74 1a                	je     c6fa <safe_mod_func_int32_t_s_s+0x2e>
    c6e0:	81 7d fc 00 00 00 80 	cmpl   $0x80000000,-0x4(%rbp)
    c6e7:	75 06                	jne    c6ef <safe_mod_func_int32_t_s_s+0x23>
    c6e9:	83 7d f8 ff          	cmpl   $0xffffffff,-0x8(%rbp)
    c6ed:	74 0b                	je     c6fa <safe_mod_func_int32_t_s_s+0x2e>
    c6ef:	8b 45 fc             	mov    -0x4(%rbp),%eax
    c6f2:	99                   	cltd   
    c6f3:	f7 7d f8             	idivl  -0x8(%rbp)
    c6f6:	89 d0                	mov    %edx,%eax
    c6f8:	eb 03                	jmp    c6fd <safe_mod_func_int32_t_s_s+0x31>
    c6fa:	8b 45 fc             	mov    -0x4(%rbp),%eax
    c6fd:	5d                   	pop    %rbp
    c6fe:	c3                   	retq   

000000000000c6ff <safe_div_func_int32_t_s_s>:
    c6ff:	f3 0f 1e fa          	endbr64 
    c703:	55                   	push   %rbp
    c704:	48 89 e5             	mov    %rsp,%rbp
    c707:	89 7d fc             	mov    %edi,-0x4(%rbp)
    c70a:	89 75 f8             	mov    %esi,-0x8(%rbp)
    c70d:	83 7d f8 00          	cmpl   $0x0,-0x8(%rbp)
    c711:	74 18                	je     c72b <safe_div_func_int32_t_s_s+0x2c>
    c713:	81 7d fc 00 00 00 80 	cmpl   $0x80000000,-0x4(%rbp)
    c71a:	75 06                	jne    c722 <safe_div_func_int32_t_s_s+0x23>
    c71c:	83 7d f8 ff          	cmpl   $0xffffffff,-0x8(%rbp)
    c720:	74 09                	je     c72b <safe_div_func_int32_t_s_s+0x2c>
    c722:	8b 45 fc             	mov    -0x4(%rbp),%eax
    c725:	99                   	cltd   
    c726:	f7 7d f8             	idivl  -0x8(%rbp)
    c729:	eb 03                	jmp    c72e <safe_div_func_int32_t_s_s+0x2f>
    c72b:	8b 45 fc             	mov    -0x4(%rbp),%eax
    c72e:	5d                   	pop    %rbp
    c72f:	c3                   	retq   

000000000000c730 <safe_lshift_func_int32_t_s_s>:
    c730:	f3 0f 1e fa          	endbr64 
    c734:	55                   	push   %rbp
    c735:	48 89 e5             	mov    %rsp,%rbp
    c738:	89 7d fc             	mov    %edi,-0x4(%rbp)
    c73b:	89 75 f8             	mov    %esi,-0x8(%rbp)
    c73e:	83 7d fc 00          	cmpl   $0x0,-0x4(%rbp)
    c742:	78 2d                	js     c771 <safe_lshift_func_int32_t_s_s+0x41>
    c744:	83 7d f8 00          	cmpl   $0x0,-0x8(%rbp)
    c748:	78 27                	js     c771 <safe_lshift_func_int32_t_s_s+0x41>
    c74a:	83 7d f8 1f          	cmpl   $0x1f,-0x8(%rbp)
    c74e:	7f 21                	jg     c771 <safe_lshift_func_int32_t_s_s+0x41>
    c750:	8b 45 f8             	mov    -0x8(%rbp),%eax
    c753:	ba ff ff ff 7f       	mov    $0x7fffffff,%edx
    c758:	89 c1                	mov    %eax,%ecx
    c75a:	d3 fa                	sar    %cl,%edx
    c75c:	89 d0                	mov    %edx,%eax
    c75e:	39 45 fc             	cmp    %eax,-0x4(%rbp)
    c761:	7f 0e                	jg     c771 <safe_lshift_func_int32_t_s_s+0x41>
    c763:	8b 45 f8             	mov    -0x8(%rbp),%eax
    c766:	8b 55 fc             	mov    -0x4(%rbp),%edx
    c769:	89 c1                	mov    %eax,%ecx
    c76b:	d3 e2                	shl    %cl,%edx
    c76d:	89 d0                	mov    %edx,%eax
    c76f:	eb 03                	jmp    c774 <safe_lshift_func_int32_t_s_s+0x44>
    c771:	8b 45 fc             	mov    -0x4(%rbp),%eax
    c774:	5d                   	pop    %rbp
    c775:	c3                   	retq   

000000000000c776 <safe_lshift_func_int32_t_s_u>:
    c776:	f3 0f 1e fa          	endbr64 
    c77a:	55                   	push   %rbp
    c77b:	48 89 e5             	mov    %rsp,%rbp
    c77e:	89 7d fc             	mov    %edi,-0x4(%rbp)
    c781:	89 75 f8             	mov    %esi,-0x8(%rbp)
    c784:	83 7d fc 00          	cmpl   $0x0,-0x4(%rbp)
    c788:	78 27                	js     c7b1 <safe_lshift_func_int32_t_s_u+0x3b>
    c78a:	83 7d f8 1f          	cmpl   $0x1f,-0x8(%rbp)
    c78e:	77 21                	ja     c7b1 <safe_lshift_func_int32_t_s_u+0x3b>
    c790:	8b 45 f8             	mov    -0x8(%rbp),%eax
    c793:	ba ff ff ff 7f       	mov    $0x7fffffff,%edx
    c798:	89 c1                	mov    %eax,%ecx
    c79a:	d3 fa                	sar    %cl,%edx
    c79c:	89 d0                	mov    %edx,%eax
    c79e:	39 45 fc             	cmp    %eax,-0x4(%rbp)
    c7a1:	7f 0e                	jg     c7b1 <safe_lshift_func_int32_t_s_u+0x3b>
    c7a3:	8b 45 f8             	mov    -0x8(%rbp),%eax
    c7a6:	8b 55 fc             	mov    -0x4(%rbp),%edx
    c7a9:	89 c1                	mov    %eax,%ecx
    c7ab:	d3 e2                	shl    %cl,%edx
    c7ad:	89 d0                	mov    %edx,%eax
    c7af:	eb 03                	jmp    c7b4 <safe_lshift_func_int32_t_s_u+0x3e>
    c7b1:	8b 45 fc             	mov    -0x4(%rbp),%eax
    c7b4:	5d                   	pop    %rbp
    c7b5:	c3                   	retq   

000000000000c7b6 <safe_rshift_func_int32_t_s_s>:
    c7b6:	f3 0f 1e fa          	endbr64 
    c7ba:	55                   	push   %rbp
    c7bb:	48 89 e5             	mov    %rsp,%rbp
    c7be:	89 7d fc             	mov    %edi,-0x4(%rbp)
    c7c1:	89 75 f8             	mov    %esi,-0x8(%rbp)
    c7c4:	83 7d fc 00          	cmpl   $0x0,-0x4(%rbp)
    c7c8:	78 1a                	js     c7e4 <safe_rshift_func_int32_t_s_s+0x2e>
    c7ca:	83 7d f8 00          	cmpl   $0x0,-0x8(%rbp)
    c7ce:	78 14                	js     c7e4 <safe_rshift_func_int32_t_s_s+0x2e>
    c7d0:	83 7d f8 1f          	cmpl   $0x1f,-0x8(%rbp)
    c7d4:	7f 0e                	jg     c7e4 <safe_rshift_func_int32_t_s_s+0x2e>
    c7d6:	8b 45 f8             	mov    -0x8(%rbp),%eax
    c7d9:	8b 55 fc             	mov    -0x4(%rbp),%edx
    c7dc:	89 c1                	mov    %eax,%ecx
    c7de:	d3 fa                	sar    %cl,%edx
    c7e0:	89 d0                	mov    %edx,%eax
    c7e2:	eb 03                	jmp    c7e7 <safe_rshift_func_int32_t_s_s+0x31>
    c7e4:	8b 45 fc             	mov    -0x4(%rbp),%eax
    c7e7:	5d                   	pop    %rbp
    c7e8:	c3                   	retq   

000000000000c7e9 <safe_rshift_func_int32_t_s_u>:
    c7e9:	f3 0f 1e fa          	endbr64 
    c7ed:	55                   	push   %rbp
    c7ee:	48 89 e5             	mov    %rsp,%rbp
    c7f1:	89 7d fc             	mov    %edi,-0x4(%rbp)
    c7f4:	89 75 f8             	mov    %esi,-0x8(%rbp)
    c7f7:	83 7d fc 00          	cmpl   $0x0,-0x4(%rbp)
    c7fb:	78 14                	js     c811 <safe_rshift_func_int32_t_s_u+0x28>
    c7fd:	83 7d f8 1f          	cmpl   $0x1f,-0x8(%rbp)
    c801:	77 0e                	ja     c811 <safe_rshift_func_int32_t_s_u+0x28>
    c803:	8b 45 f8             	mov    -0x8(%rbp),%eax
    c806:	8b 55 fc             	mov    -0x4(%rbp),%edx
    c809:	89 c1                	mov    %eax,%ecx
    c80b:	d3 fa                	sar    %cl,%edx
    c80d:	89 d0                	mov    %edx,%eax
    c80f:	eb 03                	jmp    c814 <safe_rshift_func_int32_t_s_u+0x2b>
    c811:	8b 45 fc             	mov    -0x4(%rbp),%eax
    c814:	5d                   	pop    %rbp
    c815:	c3                   	retq   

000000000000c816 <safe_unary_minus_func_int64_t_s>:
    c816:	f3 0f 1e fa          	endbr64 
    c81a:	55                   	push   %rbp
    c81b:	48 89 e5             	mov    %rsp,%rbp
    c81e:	48 89 7d f8          	mov    %rdi,-0x8(%rbp)
    c822:	48 b8 00 00 00 00 00 	movabs $0x8000000000000000,%rax
    c829:	00 00 80 
    c82c:	48 39 45 f8          	cmp    %rax,-0x8(%rbp)
    c830:	74 09                	je     c83b <safe_unary_minus_func_int64_t_s+0x25>
    c832:	48 8b 45 f8          	mov    -0x8(%rbp),%rax
    c836:	48 f7 d8             	neg    %rax
    c839:	eb 04                	jmp    c83f <safe_unary_minus_func_int64_t_s+0x29>
    c83b:	48 8b 45 f8          	mov    -0x8(%rbp),%rax
    c83f:	5d                   	pop    %rbp
    c840:	c3                   	retq   

000000000000c841 <safe_add_func_int64_t_s_s>:
    c841:	f3 0f 1e fa          	endbr64 
    c845:	55                   	push   %rbp
    c846:	48 89 e5             	mov    %rsp,%rbp
    c849:	48 89 7d f8          	mov    %rdi,-0x8(%rbp)
    c84d:	48 89 75 f0          	mov    %rsi,-0x10(%rbp)
    c851:	48 83 7d f8 00       	cmpq   $0x0,-0x8(%rbp)
    c856:	7e 1b                	jle    c873 <safe_add_func_int64_t_s_s+0x32>
    c858:	48 83 7d f0 00       	cmpq   $0x0,-0x10(%rbp)
    c85d:	7e 14                	jle    c873 <safe_add_func_int64_t_s_s+0x32>
    c85f:	48 b8 ff ff ff ff ff 	movabs $0x7fffffffffffffff,%rax
    c866:	ff ff 7f 
    c869:	48 2b 45 f0          	sub    -0x10(%rbp),%rax
    c86d:	48 39 45 f8          	cmp    %rax,-0x8(%rbp)
    c871:	7f 2f                	jg     c8a2 <safe_add_func_int64_t_s_s+0x61>
    c873:	48 83 7d f8 00       	cmpq   $0x0,-0x8(%rbp)
    c878:	79 1b                	jns    c895 <safe_add_func_int64_t_s_s+0x54>
    c87a:	48 83 7d f0 00       	cmpq   $0x0,-0x10(%rbp)
    c87f:	79 14                	jns    c895 <safe_add_func_int64_t_s_s+0x54>
    c881:	48 b8 00 00 00 00 00 	movabs $0x8000000000000000,%rax
    c888:	00 00 80 
    c88b:	48 2b 45 f0          	sub    -0x10(%rbp),%rax
    c88f:	48 39 45 f8          	cmp    %rax,-0x8(%rbp)
    c893:	7c 0d                	jl     c8a2 <safe_add_func_int64_t_s_s+0x61>
    c895:	48 8b 55 f8          	mov    -0x8(%rbp),%rdx
    c899:	48 8b 45 f0          	mov    -0x10(%rbp),%rax
    c89d:	48 01 d0             	add    %rdx,%rax
    c8a0:	eb 04                	jmp    c8a6 <safe_add_func_int64_t_s_s+0x65>
    c8a2:	48 8b 45 f8          	mov    -0x8(%rbp),%rax
    c8a6:	5d                   	pop    %rbp
    c8a7:	c3                   	retq   

000000000000c8a8 <safe_sub_func_int64_t_s_s>:
    c8a8:	f3 0f 1e fa          	endbr64 
    c8ac:	55                   	push   %rbp
    c8ad:	48 89 e5             	mov    %rsp,%rbp
    c8b0:	48 89 7d f8          	mov    %rdi,-0x8(%rbp)
    c8b4:	48 89 75 f0          	mov    %rsi,-0x10(%rbp)
    c8b8:	48 8b 45 f8          	mov    -0x8(%rbp),%rax
    c8bc:	48 33 45 f0          	xor    -0x10(%rbp),%rax
    c8c0:	48 89 c2             	mov    %rax,%rdx
    c8c3:	48 8b 45 f8          	mov    -0x8(%rbp),%rax
    c8c7:	48 33 45 f0          	xor    -0x10(%rbp),%rax
    c8cb:	48 b9 00 00 00 00 00 	movabs $0x8000000000000000,%rcx
    c8d2:	00 00 80 
    c8d5:	48 21 c8             	and    %rcx,%rax
    c8d8:	48 33 45 f8          	xor    -0x8(%rbp),%rax
    c8dc:	48 2b 45 f0          	sub    -0x10(%rbp),%rax
    c8e0:	48 33 45 f0          	xor    -0x10(%rbp),%rax
    c8e4:	48 21 d0             	and    %rdx,%rax
    c8e7:	48 85 c0             	test   %rax,%rax
    c8ea:	78 0a                	js     c8f6 <safe_sub_func_int64_t_s_s+0x4e>
    c8ec:	48 8b 45 f8          	mov    -0x8(%rbp),%rax
    c8f0:	48 2b 45 f0          	sub    -0x10(%rbp),%rax
    c8f4:	eb 04                	jmp    c8fa <safe_sub_func_int64_t_s_s+0x52>
    c8f6:	48 8b 45 f8          	mov    -0x8(%rbp),%rax
    c8fa:	5d                   	pop    %rbp
    c8fb:	c3                   	retq   

000000000000c8fc <safe_mul_func_int64_t_s_s>:
    c8fc:	f3 0f 1e fa          	endbr64 
    c900:	55                   	push   %rbp
    c901:	48 89 e5             	mov    %rsp,%rbp
    c904:	48 89 7d f8          	mov    %rdi,-0x8(%rbp)
    c908:	48 89 75 f0          	mov    %rsi,-0x10(%rbp)
    c90c:	48 83 7d f8 00       	cmpq   $0x0,-0x8(%rbp)
    c911:	7e 1d                	jle    c930 <safe_mul_func_int64_t_s_s+0x34>
    c913:	48 83 7d f0 00       	cmpq   $0x0,-0x10(%rbp)
    c918:	7e 16                	jle    c930 <safe_mul_func_int64_t_s_s+0x34>
    c91a:	48 b8 ff ff ff ff ff 	movabs $0x7fffffffffffffff,%rax
    c921:	ff ff 7f 
    c924:	48 99                	cqto   
    c926:	48 f7 7d f0          	idivq  -0x10(%rbp)
    c92a:	48 39 45 f8          	cmp    %rax,-0x8(%rbp)
    c92e:	7f 7e                	jg     c9ae <safe_mul_func_int64_t_s_s+0xb2>
    c930:	48 83 7d f8 00       	cmpq   $0x0,-0x8(%rbp)
    c935:	7e 1d                	jle    c954 <safe_mul_func_int64_t_s_s+0x58>
    c937:	48 83 7d f0 00       	cmpq   $0x0,-0x10(%rbp)
    c93c:	7f 16                	jg     c954 <safe_mul_func_int64_t_s_s+0x58>
    c93e:	48 b8 00 00 00 00 00 	movabs $0x8000000000000000,%rax
    c945:	00 00 80 
    c948:	48 99                	cqto   
    c94a:	48 f7 7d f8          	idivq  -0x8(%rbp)
    c94e:	48 39 45 f0          	cmp    %rax,-0x10(%rbp)
    c952:	7c 5a                	jl     c9ae <safe_mul_func_int64_t_s_s+0xb2>
    c954:	48 83 7d f8 00       	cmpq   $0x0,-0x8(%rbp)
    c959:	7f 1d                	jg     c978 <safe_mul_func_int64_t_s_s+0x7c>
    c95b:	48 83 7d f0 00       	cmpq   $0x0,-0x10(%rbp)
    c960:	7e 16                	jle    c978 <safe_mul_func_int64_t_s_s+0x7c>
    c962:	48 b8 00 00 00 00 00 	movabs $0x8000000000000000,%rax
    c969:	00 00 80 
    c96c:	48 99                	cqto   
    c96e:	48 f7 7d f0          	idivq  -0x10(%rbp)
    c972:	48 39 45 f8          	cmp    %rax,-0x8(%rbp)
    c976:	7c 36                	jl     c9ae <safe_mul_func_int64_t_s_s+0xb2>
    c978:	48 83 7d f8 00       	cmpq   $0x0,-0x8(%rbp)
    c97d:	7f 24                	jg     c9a3 <safe_mul_func_int64_t_s_s+0xa7>
    c97f:	48 83 7d f0 00       	cmpq   $0x0,-0x10(%rbp)
    c984:	7f 1d                	jg     c9a3 <safe_mul_func_int64_t_s_s+0xa7>
    c986:	48 83 7d f8 00       	cmpq   $0x0,-0x8(%rbp)
    c98b:	74 16                	je     c9a3 <safe_mul_func_int64_t_s_s+0xa7>
    c98d:	48 b8 ff ff ff ff ff 	movabs $0x7fffffffffffffff,%rax
    c994:	ff ff 7f 
    c997:	48 99                	cqto   
    c999:	48 f7 7d f8          	idivq  -0x8(%rbp)
    c99d:	48 39 45 f0          	cmp    %rax,-0x10(%rbp)
    c9a1:	7c 0b                	jl     c9ae <safe_mul_func_int64_t_s_s+0xb2>
    c9a3:	48 8b 45 f8          	mov    -0x8(%rbp),%rax
    c9a7:	48 0f af 45 f0       	imul   -0x10(%rbp),%rax
    c9ac:	eb 04                	jmp    c9b2 <safe_mul_func_int64_t_s_s+0xb6>
    c9ae:	48 8b 45 f8          	mov    -0x8(%rbp),%rax
    c9b2:	5d                   	pop    %rbp
    c9b3:	c3                   	retq   

000000000000c9b4 <safe_mod_func_int64_t_s_s>:
    c9b4:	f3 0f 1e fa          	endbr64 
    c9b8:	55                   	push   %rbp
    c9b9:	48 89 e5             	mov    %rsp,%rbp
    c9bc:	48 89 7d f8          	mov    %rdi,-0x8(%rbp)
    c9c0:	48 89 75 f0          	mov    %rsi,-0x10(%rbp)
    c9c4:	48 83 7d f0 00       	cmpq   $0x0,-0x10(%rbp)
    c9c9:	74 26                	je     c9f1 <safe_mod_func_int64_t_s_s+0x3d>
    c9cb:	48 b8 00 00 00 00 00 	movabs $0x8000000000000000,%rax
    c9d2:	00 00 80 
    c9d5:	48 39 45 f8          	cmp    %rax,-0x8(%rbp)
    c9d9:	75 07                	jne    c9e2 <safe_mod_func_int64_t_s_s+0x2e>
    c9db:	48 83 7d f0 ff       	cmpq   $0xffffffffffffffff,-0x10(%rbp)
    c9e0:	74 0f                	je     c9f1 <safe_mod_func_int64_t_s_s+0x3d>
    c9e2:	48 8b 45 f8          	mov    -0x8(%rbp),%rax
    c9e6:	48 99                	cqto   
    c9e8:	48 f7 7d f0          	idivq  -0x10(%rbp)
    c9ec:	48 89 d0             	mov    %rdx,%rax
    c9ef:	eb 04                	jmp    c9f5 <safe_mod_func_int64_t_s_s+0x41>
    c9f1:	48 8b 45 f8          	mov    -0x8(%rbp),%rax
    c9f5:	5d                   	pop    %rbp
    c9f6:	c3                   	retq   

000000000000c9f7 <safe_div_func_int64_t_s_s>:
    c9f7:	f3 0f 1e fa          	endbr64 
    c9fb:	55                   	push   %rbp
    c9fc:	48 89 e5             	mov    %rsp,%rbp
    c9ff:	48 89 7d f8          	mov    %rdi,-0x8(%rbp)
    ca03:	48 89 75 f0          	mov    %rsi,-0x10(%rbp)
    ca07:	48 83 7d f0 00       	cmpq   $0x0,-0x10(%rbp)
    ca0c:	74 23                	je     ca31 <safe_div_func_int64_t_s_s+0x3a>
    ca0e:	48 b8 00 00 00 00 00 	movabs $0x8000000000000000,%rax
    ca15:	00 00 80 
    ca18:	48 39 45 f8          	cmp    %rax,-0x8(%rbp)
    ca1c:	75 07                	jne    ca25 <safe_div_func_int64_t_s_s+0x2e>
    ca1e:	48 83 7d f0 ff       	cmpq   $0xffffffffffffffff,-0x10(%rbp)
    ca23:	74 0c                	je     ca31 <safe_div_func_int64_t_s_s+0x3a>
    ca25:	48 8b 45 f8          	mov    -0x8(%rbp),%rax
    ca29:	48 99                	cqto   
    ca2b:	48 f7 7d f0          	idivq  -0x10(%rbp)
    ca2f:	eb 04                	jmp    ca35 <safe_div_func_int64_t_s_s+0x3e>
    ca31:	48 8b 45 f8          	mov    -0x8(%rbp),%rax
    ca35:	5d                   	pop    %rbp
    ca36:	c3                   	retq   

000000000000ca37 <safe_lshift_func_int64_t_s_s>:
    ca37:	f3 0f 1e fa          	endbr64 
    ca3b:	55                   	push   %rbp
    ca3c:	48 89 e5             	mov    %rsp,%rbp
    ca3f:	48 89 7d f8          	mov    %rdi,-0x8(%rbp)
    ca43:	89 75 f4             	mov    %esi,-0xc(%rbp)
    ca46:	48 83 7d f8 00       	cmpq   $0x0,-0x8(%rbp)
    ca4b:	78 38                	js     ca85 <safe_lshift_func_int64_t_s_s+0x4e>
    ca4d:	83 7d f4 00          	cmpl   $0x0,-0xc(%rbp)
    ca51:	78 32                	js     ca85 <safe_lshift_func_int64_t_s_s+0x4e>
    ca53:	83 7d f4 1f          	cmpl   $0x1f,-0xc(%rbp)
    ca57:	7f 2c                	jg     ca85 <safe_lshift_func_int64_t_s_s+0x4e>
    ca59:	8b 45 f4             	mov    -0xc(%rbp),%eax
    ca5c:	48 ba ff ff ff ff ff 	movabs $0x7fffffffffffffff,%rdx
    ca63:	ff ff 7f 
    ca66:	89 c1                	mov    %eax,%ecx
    ca68:	48 d3 fa             	sar    %cl,%rdx
    ca6b:	48 89 d0             	mov    %rdx,%rax
    ca6e:	48 39 45 f8          	cmp    %rax,-0x8(%rbp)
    ca72:	7f 11                	jg     ca85 <safe_lshift_func_int64_t_s_s+0x4e>
    ca74:	8b 45 f4             	mov    -0xc(%rbp),%eax
    ca77:	48 8b 55 f8          	mov    -0x8(%rbp),%rdx
    ca7b:	89 c1                	mov    %eax,%ecx
    ca7d:	48 d3 e2             	shl    %cl,%rdx
    ca80:	48 89 d0             	mov    %rdx,%rax
    ca83:	eb 04                	jmp    ca89 <safe_lshift_func_int64_t_s_s+0x52>
    ca85:	48 8b 45 f8          	mov    -0x8(%rbp),%rax
    ca89:	5d                   	pop    %rbp
    ca8a:	c3                   	retq   

000000000000ca8b <safe_lshift_func_int64_t_s_u>:
    ca8b:	f3 0f 1e fa          	endbr64 
    ca8f:	55                   	push   %rbp
    ca90:	48 89 e5             	mov    %rsp,%rbp
    ca93:	48 89 7d f8          	mov    %rdi,-0x8(%rbp)
    ca97:	89 75 f4             	mov    %esi,-0xc(%rbp)
    ca9a:	48 83 7d f8 00       	cmpq   $0x0,-0x8(%rbp)
    ca9f:	78 32                	js     cad3 <safe_lshift_func_int64_t_s_u+0x48>
    caa1:	83 7d f4 1f          	cmpl   $0x1f,-0xc(%rbp)
    caa5:	77 2c                	ja     cad3 <safe_lshift_func_int64_t_s_u+0x48>
    caa7:	8b 45 f4             	mov    -0xc(%rbp),%eax
    caaa:	48 ba ff ff ff ff ff 	movabs $0x7fffffffffffffff,%rdx
    cab1:	ff ff 7f 
    cab4:	89 c1                	mov    %eax,%ecx
    cab6:	48 d3 fa             	sar    %cl,%rdx
    cab9:	48 89 d0             	mov    %rdx,%rax
    cabc:	48 39 45 f8          	cmp    %rax,-0x8(%rbp)
    cac0:	7f 11                	jg     cad3 <safe_lshift_func_int64_t_s_u+0x48>
    cac2:	8b 45 f4             	mov    -0xc(%rbp),%eax
    cac5:	48 8b 55 f8          	mov    -0x8(%rbp),%rdx
    cac9:	89 c1                	mov    %eax,%ecx
    cacb:	48 d3 e2             	shl    %cl,%rdx
    cace:	48 89 d0             	mov    %rdx,%rax
    cad1:	eb 04                	jmp    cad7 <safe_lshift_func_int64_t_s_u+0x4c>
    cad3:	48 8b 45 f8          	mov    -0x8(%rbp),%rax
    cad7:	5d                   	pop    %rbp
    cad8:	c3                   	retq   

000000000000cad9 <safe_rshift_func_int64_t_s_s>:
    cad9:	f3 0f 1e fa          	endbr64 
    cadd:	55                   	push   %rbp
    cade:	48 89 e5             	mov    %rsp,%rbp
    cae1:	48 89 7d f8          	mov    %rdi,-0x8(%rbp)
    cae5:	89 75 f4             	mov    %esi,-0xc(%rbp)
    cae8:	48 83 7d f8 00       	cmpq   $0x0,-0x8(%rbp)
    caed:	78 1d                	js     cb0c <safe_rshift_func_int64_t_s_s+0x33>
    caef:	83 7d f4 00          	cmpl   $0x0,-0xc(%rbp)
    caf3:	78 17                	js     cb0c <safe_rshift_func_int64_t_s_s+0x33>
    caf5:	83 7d f4 1f          	cmpl   $0x1f,-0xc(%rbp)
    caf9:	7f 11                	jg     cb0c <safe_rshift_func_int64_t_s_s+0x33>
    cafb:	8b 45 f4             	mov    -0xc(%rbp),%eax
    cafe:	48 8b 55 f8          	mov    -0x8(%rbp),%rdx
    cb02:	89 c1                	mov    %eax,%ecx
    cb04:	48 d3 fa             	sar    %cl,%rdx
    cb07:	48 89 d0             	mov    %rdx,%rax
    cb0a:	eb 04                	jmp    cb10 <safe_rshift_func_int64_t_s_s+0x37>
    cb0c:	48 8b 45 f8          	mov    -0x8(%rbp),%rax
    cb10:	5d                   	pop    %rbp
    cb11:	c3                   	retq   

000000000000cb12 <safe_rshift_func_int64_t_s_u>:
    cb12:	f3 0f 1e fa          	endbr64 
    cb16:	55                   	push   %rbp
    cb17:	48 89 e5             	mov    %rsp,%rbp
    cb1a:	48 89 7d f8          	mov    %rdi,-0x8(%rbp)
    cb1e:	89 75 f4             	mov    %esi,-0xc(%rbp)
    cb21:	48 83 7d f8 00       	cmpq   $0x0,-0x8(%rbp)
    cb26:	78 17                	js     cb3f <safe_rshift_func_int64_t_s_u+0x2d>
    cb28:	83 7d f4 1f          	cmpl   $0x1f,-0xc(%rbp)
    cb2c:	77 11                	ja     cb3f <safe_rshift_func_int64_t_s_u+0x2d>
    cb2e:	8b 45 f4             	mov    -0xc(%rbp),%eax
    cb31:	48 8b 55 f8          	mov    -0x8(%rbp),%rdx
    cb35:	89 c1                	mov    %eax,%ecx
    cb37:	48 d3 fa             	sar    %cl,%rdx
    cb3a:	48 89 d0             	mov    %rdx,%rax
    cb3d:	eb 04                	jmp    cb43 <safe_rshift_func_int64_t_s_u+0x31>
    cb3f:	48 8b 45 f8          	mov    -0x8(%rbp),%rax
    cb43:	5d                   	pop    %rbp
    cb44:	c3                   	retq   

000000000000cb45 <safe_unary_minus_func_uint8_t_u>:
    cb45:	f3 0f 1e fa          	endbr64 
    cb49:	55                   	push   %rbp
    cb4a:	48 89 e5             	mov    %rsp,%rbp
    cb4d:	89 f8                	mov    %edi,%eax
    cb4f:	88 45 fc             	mov    %al,-0x4(%rbp)
    cb52:	0f b6 45 fc          	movzbl -0x4(%rbp),%eax
    cb56:	f7 d8                	neg    %eax
    cb58:	5d                   	pop    %rbp
    cb59:	c3                   	retq   

000000000000cb5a <safe_add_func_uint8_t_u_u>:
    cb5a:	f3 0f 1e fa          	endbr64 
    cb5e:	55                   	push   %rbp
    cb5f:	48 89 e5             	mov    %rsp,%rbp
    cb62:	89 fa                	mov    %edi,%edx
    cb64:	89 f0                	mov    %esi,%eax
    cb66:	88 55 fc             	mov    %dl,-0x4(%rbp)
    cb69:	88 45 f8             	mov    %al,-0x8(%rbp)
    cb6c:	0f b6 55 fc          	movzbl -0x4(%rbp),%edx
    cb70:	0f b6 45 f8          	movzbl -0x8(%rbp),%eax
    cb74:	01 d0                	add    %edx,%eax
    cb76:	5d                   	pop    %rbp
    cb77:	c3                   	retq   

000000000000cb78 <safe_sub_func_uint8_t_u_u>:
    cb78:	f3 0f 1e fa          	endbr64 
    cb7c:	55                   	push   %rbp
    cb7d:	48 89 e5             	mov    %rsp,%rbp
    cb80:	89 fa                	mov    %edi,%edx
    cb82:	89 f0                	mov    %esi,%eax
    cb84:	88 55 fc             	mov    %dl,-0x4(%rbp)
    cb87:	88 45 f8             	mov    %al,-0x8(%rbp)
    cb8a:	0f b6 45 fc          	movzbl -0x4(%rbp),%eax
    cb8e:	2a 45 f8             	sub    -0x8(%rbp),%al
    cb91:	5d                   	pop    %rbp
    cb92:	c3                   	retq   

000000000000cb93 <safe_mul_func_uint8_t_u_u>:
    cb93:	f3 0f 1e fa          	endbr64 
    cb97:	55                   	push   %rbp
    cb98:	48 89 e5             	mov    %rsp,%rbp
    cb9b:	89 fa                	mov    %edi,%edx
    cb9d:	89 f0                	mov    %esi,%eax
    cb9f:	88 55 fc             	mov    %dl,-0x4(%rbp)
    cba2:	88 45 f8             	mov    %al,-0x8(%rbp)
    cba5:	0f b6 45 fc          	movzbl -0x4(%rbp),%eax
    cba9:	f6 65 f8             	mulb   -0x8(%rbp)
    cbac:	5d                   	pop    %rbp
    cbad:	c3                   	retq   

000000000000cbae <safe_mod_func_uint8_t_u_u>:
    cbae:	f3 0f 1e fa          	endbr64 
    cbb2:	55                   	push   %rbp
    cbb3:	48 89 e5             	mov    %rsp,%rbp
    cbb6:	89 fa                	mov    %edi,%edx
    cbb8:	89 f0                	mov    %esi,%eax
    cbba:	88 55 fc             	mov    %dl,-0x4(%rbp)
    cbbd:	88 45 f8             	mov    %al,-0x8(%rbp)
    cbc0:	80 7d f8 00          	cmpb   $0x0,-0x8(%rbp)
    cbc4:	74 0f                	je     cbd5 <safe_mod_func_uint8_t_u_u+0x27>
    cbc6:	0f b6 45 fc          	movzbl -0x4(%rbp),%eax
    cbca:	0f b6 c0             	movzbl %al,%eax
    cbcd:	f6 75 f8             	divb   -0x8(%rbp)
    cbd0:	0f b6 c4             	movzbl %ah,%eax
    cbd3:	eb 04                	jmp    cbd9 <safe_mod_func_uint8_t_u_u+0x2b>
    cbd5:	0f b6 45 fc          	movzbl -0x4(%rbp),%eax
    cbd9:	5d                   	pop    %rbp
    cbda:	c3                   	retq   

000000000000cbdb <safe_div_func_uint8_t_u_u>:
    cbdb:	f3 0f 1e fa          	endbr64 
    cbdf:	55                   	push   %rbp
    cbe0:	48 89 e5             	mov    %rsp,%rbp
    cbe3:	89 fa                	mov    %edi,%edx
    cbe5:	89 f0                	mov    %esi,%eax
    cbe7:	88 55 fc             	mov    %dl,-0x4(%rbp)
    cbea:	88 45 f8             	mov    %al,-0x8(%rbp)
    cbed:	80 7d f8 00          	cmpb   $0x0,-0x8(%rbp)
    cbf1:	74 0c                	je     cbff <safe_div_func_uint8_t_u_u+0x24>
    cbf3:	0f b6 45 fc          	movzbl -0x4(%rbp),%eax
    cbf7:	0f b6 c0             	movzbl %al,%eax
    cbfa:	f6 75 f8             	divb   -0x8(%rbp)
    cbfd:	eb 04                	jmp    cc03 <safe_div_func_uint8_t_u_u+0x28>
    cbff:	0f b6 45 fc          	movzbl -0x4(%rbp),%eax
    cc03:	5d                   	pop    %rbp
    cc04:	c3                   	retq   

000000000000cc05 <safe_lshift_func_uint8_t_u_s>:
    cc05:	f3 0f 1e fa          	endbr64 
    cc09:	55                   	push   %rbp
    cc0a:	48 89 e5             	mov    %rsp,%rbp
    cc0d:	89 f8                	mov    %edi,%eax
    cc0f:	89 75 f8             	mov    %esi,-0x8(%rbp)
    cc12:	88 45 fc             	mov    %al,-0x4(%rbp)
    cc15:	83 7d f8 00          	cmpl   $0x0,-0x8(%rbp)
    cc19:	78 2b                	js     cc46 <safe_lshift_func_uint8_t_u_s+0x41>
    cc1b:	83 7d f8 1f          	cmpl   $0x1f,-0x8(%rbp)
    cc1f:	7f 25                	jg     cc46 <safe_lshift_func_uint8_t_u_s+0x41>
    cc21:	0f b6 55 fc          	movzbl -0x4(%rbp),%edx
    cc25:	8b 45 f8             	mov    -0x8(%rbp),%eax
    cc28:	be ff 00 00 00       	mov    $0xff,%esi
    cc2d:	89 c1                	mov    %eax,%ecx
    cc2f:	d3 fe                	sar    %cl,%esi
    cc31:	89 f0                	mov    %esi,%eax
    cc33:	39 c2                	cmp    %eax,%edx
    cc35:	7f 0f                	jg     cc46 <safe_lshift_func_uint8_t_u_s+0x41>
    cc37:	0f b6 55 fc          	movzbl -0x4(%rbp),%edx
    cc3b:	8b 45 f8             	mov    -0x8(%rbp),%eax
    cc3e:	89 c1                	mov    %eax,%ecx
    cc40:	d3 e2                	shl    %cl,%edx
    cc42:	89 d0                	mov    %edx,%eax
    cc44:	eb 04                	jmp    cc4a <safe_lshift_func_uint8_t_u_s+0x45>
    cc46:	0f b6 45 fc          	movzbl -0x4(%rbp),%eax
    cc4a:	5d                   	pop    %rbp
    cc4b:	c3                   	retq   

000000000000cc4c <safe_lshift_func_uint8_t_u_u>:
    cc4c:	f3 0f 1e fa          	endbr64 
    cc50:	55                   	push   %rbp
    cc51:	48 89 e5             	mov    %rsp,%rbp
    cc54:	89 f8                	mov    %edi,%eax
    cc56:	89 75 f8             	mov    %esi,-0x8(%rbp)
    cc59:	88 45 fc             	mov    %al,-0x4(%rbp)
    cc5c:	83 7d f8 1f          	cmpl   $0x1f,-0x8(%rbp)
    cc60:	77 25                	ja     cc87 <safe_lshift_func_uint8_t_u_u+0x3b>
    cc62:	0f b6 55 fc          	movzbl -0x4(%rbp),%edx
    cc66:	8b 45 f8             	mov    -0x8(%rbp),%eax
    cc69:	be ff 00 00 00       	mov    $0xff,%esi
    cc6e:	89 c1                	mov    %eax,%ecx
    cc70:	d3 fe                	sar    %cl,%esi
    cc72:	89 f0                	mov    %esi,%eax
    cc74:	39 c2                	cmp    %eax,%edx
    cc76:	7f 0f                	jg     cc87 <safe_lshift_func_uint8_t_u_u+0x3b>
    cc78:	0f b6 55 fc          	movzbl -0x4(%rbp),%edx
    cc7c:	8b 45 f8             	mov    -0x8(%rbp),%eax
    cc7f:	89 c1                	mov    %eax,%ecx
    cc81:	d3 e2                	shl    %cl,%edx
    cc83:	89 d0                	mov    %edx,%eax
    cc85:	eb 04                	jmp    cc8b <safe_lshift_func_uint8_t_u_u+0x3f>
    cc87:	0f b6 45 fc          	movzbl -0x4(%rbp),%eax
    cc8b:	5d                   	pop    %rbp
    cc8c:	c3                   	retq   

000000000000cc8d <safe_rshift_func_uint8_t_u_s>:
    cc8d:	f3 0f 1e fa          	endbr64 
    cc91:	55                   	push   %rbp
    cc92:	48 89 e5             	mov    %rsp,%rbp
    cc95:	89 f8                	mov    %edi,%eax
    cc97:	89 75 f8             	mov    %esi,-0x8(%rbp)
    cc9a:	88 45 fc             	mov    %al,-0x4(%rbp)
    cc9d:	83 7d f8 00          	cmpl   $0x0,-0x8(%rbp)
    cca1:	78 15                	js     ccb8 <safe_rshift_func_uint8_t_u_s+0x2b>
    cca3:	83 7d f8 1f          	cmpl   $0x1f,-0x8(%rbp)
    cca7:	7f 0f                	jg     ccb8 <safe_rshift_func_uint8_t_u_s+0x2b>
    cca9:	0f b6 55 fc          	movzbl -0x4(%rbp),%edx
    ccad:	8b 45 f8             	mov    -0x8(%rbp),%eax
    ccb0:	89 c1                	mov    %eax,%ecx
    ccb2:	d3 fa                	sar    %cl,%edx
    ccb4:	89 d0                	mov    %edx,%eax
    ccb6:	eb 04                	jmp    ccbc <safe_rshift_func_uint8_t_u_s+0x2f>
    ccb8:	0f b6 45 fc          	movzbl -0x4(%rbp),%eax
    ccbc:	5d                   	pop    %rbp
    ccbd:	c3                   	retq   

000000000000ccbe <safe_rshift_func_uint8_t_u_u>:
    ccbe:	f3 0f 1e fa          	endbr64 
    ccc2:	55                   	push   %rbp
    ccc3:	48 89 e5             	mov    %rsp,%rbp
    ccc6:	89 f8                	mov    %edi,%eax
    ccc8:	89 75 f8             	mov    %esi,-0x8(%rbp)
    cccb:	88 45 fc             	mov    %al,-0x4(%rbp)
    ccce:	83 7d f8 1f          	cmpl   $0x1f,-0x8(%rbp)
    ccd2:	77 0f                	ja     cce3 <safe_rshift_func_uint8_t_u_u+0x25>
    ccd4:	0f b6 55 fc          	movzbl -0x4(%rbp),%edx
    ccd8:	8b 45 f8             	mov    -0x8(%rbp),%eax
    ccdb:	89 c1                	mov    %eax,%ecx
    ccdd:	d3 fa                	sar    %cl,%edx
    ccdf:	89 d0                	mov    %edx,%eax
    cce1:	eb 04                	jmp    cce7 <safe_rshift_func_uint8_t_u_u+0x29>
    cce3:	0f b6 45 fc          	movzbl -0x4(%rbp),%eax
    cce7:	5d                   	pop    %rbp
    cce8:	c3                   	retq   

000000000000cce9 <safe_unary_minus_func_uint16_t_u>:
    cce9:	f3 0f 1e fa          	endbr64 
    cced:	55                   	push   %rbp
    ccee:	48 89 e5             	mov    %rsp,%rbp
    ccf1:	89 f8                	mov    %edi,%eax
    ccf3:	66 89 45 fc          	mov    %ax,-0x4(%rbp)
    ccf7:	0f b7 45 fc          	movzwl -0x4(%rbp),%eax
    ccfb:	f7 d8                	neg    %eax
    ccfd:	5d                   	pop    %rbp
    ccfe:	c3                   	retq   

000000000000ccff <safe_add_func_uint16_t_u_u>:
    ccff:	f3 0f 1e fa          	endbr64 
    cd03:	55                   	push   %rbp
    cd04:	48 89 e5             	mov    %rsp,%rbp
    cd07:	89 fa                	mov    %edi,%edx
    cd09:	89 f0                	mov    %esi,%eax
    cd0b:	66 89 55 fc          	mov    %dx,-0x4(%rbp)
    cd0f:	66 89 45 f8          	mov    %ax,-0x8(%rbp)
    cd13:	0f b7 55 fc          	movzwl -0x4(%rbp),%edx
    cd17:	0f b7 45 f8          	movzwl -0x8(%rbp),%eax
    cd1b:	01 d0                	add    %edx,%eax
    cd1d:	5d                   	pop    %rbp
    cd1e:	c3                   	retq   

000000000000cd1f <safe_sub_func_uint16_t_u_u>:
    cd1f:	f3 0f 1e fa          	endbr64 
    cd23:	55                   	push   %rbp
    cd24:	48 89 e5             	mov    %rsp,%rbp
    cd27:	89 fa                	mov    %edi,%edx
    cd29:	89 f0                	mov    %esi,%eax
    cd2b:	66 89 55 fc          	mov    %dx,-0x4(%rbp)
    cd2f:	66 89 45 f8          	mov    %ax,-0x8(%rbp)
    cd33:	0f b7 45 fc          	movzwl -0x4(%rbp),%eax
    cd37:	66 2b 45 f8          	sub    -0x8(%rbp),%ax
    cd3b:	5d                   	pop    %rbp
    cd3c:	c3                   	retq   

000000000000cd3d <safe_mul_func_uint16_t_u_u>:
    cd3d:	f3 0f 1e fa          	endbr64 
    cd41:	55                   	push   %rbp
    cd42:	48 89 e5             	mov    %rsp,%rbp
    cd45:	89 fa                	mov    %edi,%edx
    cd47:	89 f0                	mov    %esi,%eax
    cd49:	66 89 55 fc          	mov    %dx,-0x4(%rbp)
    cd4d:	66 89 45 f8          	mov    %ax,-0x8(%rbp)
    cd51:	0f b7 45 fc          	movzwl -0x4(%rbp),%eax
    cd55:	66 0f af 45 f8       	imul   -0x8(%rbp),%ax
    cd5a:	5d                   	pop    %rbp
    cd5b:	c3                   	retq   

000000000000cd5c <safe_mod_func_uint16_t_u_u>:
    cd5c:	f3 0f 1e fa          	endbr64 
    cd60:	55                   	push   %rbp
    cd61:	48 89 e5             	mov    %rsp,%rbp
    cd64:	89 fa                	mov    %edi,%edx
    cd66:	89 f0                	mov    %esi,%eax
    cd68:	66 89 55 fc          	mov    %dx,-0x4(%rbp)
    cd6c:	66 89 45 f8          	mov    %ax,-0x8(%rbp)
    cd70:	66 83 7d f8 00       	cmpw   $0x0,-0x8(%rbp)
    cd75:	74 11                	je     cd88 <safe_mod_func_uint16_t_u_u+0x2c>
    cd77:	0f b7 45 fc          	movzwl -0x4(%rbp),%eax
    cd7b:	ba 00 00 00 00       	mov    $0x0,%edx
    cd80:	66 f7 75 f8          	divw   -0x8(%rbp)
    cd84:	89 d0                	mov    %edx,%eax
    cd86:	eb 04                	jmp    cd8c <safe_mod_func_uint16_t_u_u+0x30>
    cd88:	0f b7 45 fc          	movzwl -0x4(%rbp),%eax
    cd8c:	5d                   	pop    %rbp
    cd8d:	c3                   	retq   

000000000000cd8e <safe_div_func_uint16_t_u_u>:
    cd8e:	f3 0f 1e fa          	endbr64 
    cd92:	55                   	push   %rbp
    cd93:	48 89 e5             	mov    %rsp,%rbp
    cd96:	89 fa                	mov    %edi,%edx
    cd98:	89 f0                	mov    %esi,%eax
    cd9a:	66 89 55 fc          	mov    %dx,-0x4(%rbp)
    cd9e:	66 89 45 f8          	mov    %ax,-0x8(%rbp)
    cda2:	66 83 7d f8 00       	cmpw   $0x0,-0x8(%rbp)
    cda7:	74 0f                	je     cdb8 <safe_div_func_uint16_t_u_u+0x2a>
    cda9:	0f b7 45 fc          	movzwl -0x4(%rbp),%eax
    cdad:	ba 00 00 00 00       	mov    $0x0,%edx
    cdb2:	66 f7 75 f8          	divw   -0x8(%rbp)
    cdb6:	eb 04                	jmp    cdbc <safe_div_func_uint16_t_u_u+0x2e>
    cdb8:	0f b7 45 fc          	movzwl -0x4(%rbp),%eax
    cdbc:	5d                   	pop    %rbp
    cdbd:	c3                   	retq   

000000000000cdbe <safe_lshift_func_uint16_t_u_s>:
    cdbe:	f3 0f 1e fa          	endbr64 
    cdc2:	55                   	push   %rbp
    cdc3:	48 89 e5             	mov    %rsp,%rbp
    cdc6:	89 f8                	mov    %edi,%eax
    cdc8:	89 75 f8             	mov    %esi,-0x8(%rbp)
    cdcb:	66 89 45 fc          	mov    %ax,-0x4(%rbp)
    cdcf:	83 7d f8 00          	cmpl   $0x0,-0x8(%rbp)
    cdd3:	78 2b                	js     ce00 <safe_lshift_func_uint16_t_u_s+0x42>
    cdd5:	83 7d f8 1f          	cmpl   $0x1f,-0x8(%rbp)
    cdd9:	7f 25                	jg     ce00 <safe_lshift_func_uint16_t_u_s+0x42>
    cddb:	0f b7 55 fc          	movzwl -0x4(%rbp),%edx
    cddf:	8b 45 f8             	mov    -0x8(%rbp),%eax
    cde2:	be ff ff 00 00       	mov    $0xffff,%esi
    cde7:	89 c1                	mov    %eax,%ecx
    cde9:	d3 fe                	sar    %cl,%esi
    cdeb:	89 f0                	mov    %esi,%eax
    cded:	39 c2                	cmp    %eax,%edx
    cdef:	7f 0f                	jg     ce00 <safe_lshift_func_uint16_t_u_s+0x42>
    cdf1:	0f b7 55 fc          	movzwl -0x4(%rbp),%edx
    cdf5:	8b 45 f8             	mov    -0x8(%rbp),%eax
    cdf8:	89 c1                	mov    %eax,%ecx
    cdfa:	d3 e2                	shl    %cl,%edx
    cdfc:	89 d0                	mov    %edx,%eax
    cdfe:	eb 04                	jmp    ce04 <safe_lshift_func_uint16_t_u_s+0x46>
    ce00:	0f b7 45 fc          	movzwl -0x4(%rbp),%eax
    ce04:	5d                   	pop    %rbp
    ce05:	c3                   	retq   

000000000000ce06 <safe_lshift_func_uint16_t_u_u>:
    ce06:	f3 0f 1e fa          	endbr64 
    ce0a:	55                   	push   %rbp
    ce0b:	48 89 e5             	mov    %rsp,%rbp
    ce0e:	89 f8                	mov    %edi,%eax
    ce10:	89 75 f8             	mov    %esi,-0x8(%rbp)
    ce13:	66 89 45 fc          	mov    %ax,-0x4(%rbp)
    ce17:	83 7d f8 1f          	cmpl   $0x1f,-0x8(%rbp)
    ce1b:	77 25                	ja     ce42 <safe_lshift_func_uint16_t_u_u+0x3c>
    ce1d:	0f b7 55 fc          	movzwl -0x4(%rbp),%edx
    ce21:	8b 45 f8             	mov    -0x8(%rbp),%eax
    ce24:	be ff ff 00 00       	mov    $0xffff,%esi
    ce29:	89 c1                	mov    %eax,%ecx
    ce2b:	d3 fe                	sar    %cl,%esi
    ce2d:	89 f0                	mov    %esi,%eax
    ce2f:	39 c2                	cmp    %eax,%edx
    ce31:	7f 0f                	jg     ce42 <safe_lshift_func_uint16_t_u_u+0x3c>
    ce33:	0f b7 55 fc          	movzwl -0x4(%rbp),%edx
    ce37:	8b 45 f8             	mov    -0x8(%rbp),%eax
    ce3a:	89 c1                	mov    %eax,%ecx
    ce3c:	d3 e2                	shl    %cl,%edx
    ce3e:	89 d0                	mov    %edx,%eax
    ce40:	eb 04                	jmp    ce46 <safe_lshift_func_uint16_t_u_u+0x40>
    ce42:	0f b7 45 fc          	movzwl -0x4(%rbp),%eax
    ce46:	5d                   	pop    %rbp
    ce47:	c3                   	retq   

000000000000ce48 <safe_rshift_func_uint16_t_u_s>:
    ce48:	f3 0f 1e fa          	endbr64 
    ce4c:	55                   	push   %rbp
    ce4d:	48 89 e5             	mov    %rsp,%rbp
    ce50:	89 f8                	mov    %edi,%eax
    ce52:	89 75 f8             	mov    %esi,-0x8(%rbp)
    ce55:	66 89 45 fc          	mov    %ax,-0x4(%rbp)
    ce59:	83 7d f8 00          	cmpl   $0x0,-0x8(%rbp)
    ce5d:	78 15                	js     ce74 <safe_rshift_func_uint16_t_u_s+0x2c>
    ce5f:	83 7d f8 1f          	cmpl   $0x1f,-0x8(%rbp)
    ce63:	7f 0f                	jg     ce74 <safe_rshift_func_uint16_t_u_s+0x2c>
    ce65:	0f b7 55 fc          	movzwl -0x4(%rbp),%edx
    ce69:	8b 45 f8             	mov    -0x8(%rbp),%eax
    ce6c:	89 c1                	mov    %eax,%ecx
    ce6e:	d3 fa                	sar    %cl,%edx
    ce70:	89 d0                	mov    %edx,%eax
    ce72:	eb 04                	jmp    ce78 <safe_rshift_func_uint16_t_u_s+0x30>
    ce74:	0f b7 45 fc          	movzwl -0x4(%rbp),%eax
    ce78:	5d                   	pop    %rbp
    ce79:	c3                   	retq   

000000000000ce7a <safe_rshift_func_uint16_t_u_u>:
    ce7a:	f3 0f 1e fa          	endbr64 
    ce7e:	55                   	push   %rbp
    ce7f:	48 89 e5             	mov    %rsp,%rbp
    ce82:	89 f8                	mov    %edi,%eax
    ce84:	89 75 f8             	mov    %esi,-0x8(%rbp)
    ce87:	66 89 45 fc          	mov    %ax,-0x4(%rbp)
    ce8b:	83 7d f8 1f          	cmpl   $0x1f,-0x8(%rbp)
    ce8f:	77 0f                	ja     cea0 <safe_rshift_func_uint16_t_u_u+0x26>
    ce91:	0f b7 55 fc          	movzwl -0x4(%rbp),%edx
    ce95:	8b 45 f8             	mov    -0x8(%rbp),%eax
    ce98:	89 c1                	mov    %eax,%ecx
    ce9a:	d3 fa                	sar    %cl,%edx
    ce9c:	89 d0                	mov    %edx,%eax
    ce9e:	eb 04                	jmp    cea4 <safe_rshift_func_uint16_t_u_u+0x2a>
    cea0:	0f b7 45 fc          	movzwl -0x4(%rbp),%eax
    cea4:	5d                   	pop    %rbp
    cea5:	c3                   	retq   

000000000000cea6 <safe_unary_minus_func_uint32_t_u>:
    cea6:	f3 0f 1e fa          	endbr64 
    ceaa:	55                   	push   %rbp
    ceab:	48 89 e5             	mov    %rsp,%rbp
    ceae:	89 7d fc             	mov    %edi,-0x4(%rbp)
    ceb1:	8b 45 fc             	mov    -0x4(%rbp),%eax
    ceb4:	f7 d8                	neg    %eax
    ceb6:	5d                   	pop    %rbp
    ceb7:	c3                   	retq   

000000000000ceb8 <safe_add_func_uint32_t_u_u>:
    ceb8:	f3 0f 1e fa          	endbr64 
    cebc:	55                   	push   %rbp
    cebd:	48 89 e5             	mov    %rsp,%rbp
    cec0:	89 7d fc             	mov    %edi,-0x4(%rbp)
    cec3:	89 75 f8             	mov    %esi,-0x8(%rbp)
    cec6:	8b 55 fc             	mov    -0x4(%rbp),%edx
    cec9:	8b 45 f8             	mov    -0x8(%rbp),%eax
    cecc:	01 d0                	add    %edx,%eax
    cece:	5d                   	pop    %rbp
    cecf:	c3                   	retq   

000000000000ced0 <safe_sub_func_uint32_t_u_u>:
    ced0:	f3 0f 1e fa          	endbr64 
    ced4:	55                   	push   %rbp
    ced5:	48 89 e5             	mov    %rsp,%rbp
    ced8:	89 7d fc             	mov    %edi,-0x4(%rbp)
    cedb:	89 75 f8             	mov    %esi,-0x8(%rbp)
    cede:	8b 45 fc             	mov    -0x4(%rbp),%eax
    cee1:	2b 45 f8             	sub    -0x8(%rbp),%eax
    cee4:	5d                   	pop    %rbp
    cee5:	c3                   	retq   

000000000000cee6 <safe_mul_func_uint32_t_u_u>:
    cee6:	f3 0f 1e fa          	endbr64 
    ceea:	55                   	push   %rbp
    ceeb:	48 89 e5             	mov    %rsp,%rbp
    ceee:	89 7d fc             	mov    %edi,-0x4(%rbp)
    cef1:	89 75 f8             	mov    %esi,-0x8(%rbp)
    cef4:	8b 45 fc             	mov    -0x4(%rbp),%eax
    cef7:	0f af 45 f8          	imul   -0x8(%rbp),%eax
    cefb:	5d                   	pop    %rbp
    cefc:	c3                   	retq   

000000000000cefd <safe_mod_func_uint32_t_u_u>:
    cefd:	f3 0f 1e fa          	endbr64 
    cf01:	55                   	push   %rbp
    cf02:	48 89 e5             	mov    %rsp,%rbp
    cf05:	89 7d fc             	mov    %edi,-0x4(%rbp)
    cf08:	89 75 f8             	mov    %esi,-0x8(%rbp)
    cf0b:	83 7d f8 00          	cmpl   $0x0,-0x8(%rbp)
    cf0f:	74 0f                	je     cf20 <safe_mod_func_uint32_t_u_u+0x23>
    cf11:	8b 45 fc             	mov    -0x4(%rbp),%eax
    cf14:	ba 00 00 00 00       	mov    $0x0,%edx
    cf19:	f7 75 f8             	divl   -0x8(%rbp)
    cf1c:	89 d0                	mov    %edx,%eax
    cf1e:	eb 03                	jmp    cf23 <safe_mod_func_uint32_t_u_u+0x26>
    cf20:	8b 45 fc             	mov    -0x4(%rbp),%eax
    cf23:	5d                   	pop    %rbp
    cf24:	c3                   	retq   

000000000000cf25 <safe_div_func_uint32_t_u_u>:
    cf25:	f3 0f 1e fa          	endbr64 
    cf29:	55                   	push   %rbp
    cf2a:	48 89 e5             	mov    %rsp,%rbp
    cf2d:	89 7d fc             	mov    %edi,-0x4(%rbp)
    cf30:	89 75 f8             	mov    %esi,-0x8(%rbp)
    cf33:	83 7d f8 00          	cmpl   $0x0,-0x8(%rbp)
    cf37:	74 0d                	je     cf46 <safe_div_func_uint32_t_u_u+0x21>
    cf39:	8b 45 fc             	mov    -0x4(%rbp),%eax
    cf3c:	ba 00 00 00 00       	mov    $0x0,%edx
    cf41:	f7 75 f8             	divl   -0x8(%rbp)
    cf44:	eb 03                	jmp    cf49 <safe_div_func_uint32_t_u_u+0x24>
    cf46:	8b 45 fc             	mov    -0x4(%rbp),%eax
    cf49:	5d                   	pop    %rbp
    cf4a:	c3                   	retq   

000000000000cf4b <safe_lshift_func_uint32_t_u_s>:
    cf4b:	f3 0f 1e fa          	endbr64 
    cf4f:	55                   	push   %rbp
    cf50:	48 89 e5             	mov    %rsp,%rbp
    cf53:	89 7d fc             	mov    %edi,-0x4(%rbp)
    cf56:	89 75 f8             	mov    %esi,-0x8(%rbp)
    cf59:	83 7d f8 00          	cmpl   $0x0,-0x8(%rbp)
    cf5d:	78 27                	js     cf86 <safe_lshift_func_uint32_t_u_s+0x3b>
    cf5f:	83 7d f8 1f          	cmpl   $0x1f,-0x8(%rbp)
    cf63:	7f 21                	jg     cf86 <safe_lshift_func_uint32_t_u_s+0x3b>
    cf65:	8b 45 f8             	mov    -0x8(%rbp),%eax
    cf68:	ba ff ff ff ff       	mov    $0xffffffff,%edx
    cf6d:	89 c1                	mov    %eax,%ecx
    cf6f:	d3 ea                	shr    %cl,%edx
    cf71:	89 d0                	mov    %edx,%eax
    cf73:	39 45 fc             	cmp    %eax,-0x4(%rbp)
    cf76:	77 0e                	ja     cf86 <safe_lshift_func_uint32_t_u_s+0x3b>
    cf78:	8b 45 f8             	mov    -0x8(%rbp),%eax
    cf7b:	8b 55 fc             	mov    -0x4(%rbp),%edx
    cf7e:	89 c1                	mov    %eax,%ecx
    cf80:	d3 e2                	shl    %cl,%edx
    cf82:	89 d0                	mov    %edx,%eax
    cf84:	eb 03                	jmp    cf89 <safe_lshift_func_uint32_t_u_s+0x3e>
    cf86:	8b 45 fc             	mov    -0x4(%rbp),%eax
    cf89:	5d                   	pop    %rbp
    cf8a:	c3                   	retq   

000000000000cf8b <safe_lshift_func_uint32_t_u_u>:
    cf8b:	f3 0f 1e fa          	endbr64 
    cf8f:	55                   	push   %rbp
    cf90:	48 89 e5             	mov    %rsp,%rbp
    cf93:	89 7d fc             	mov    %edi,-0x4(%rbp)
    cf96:	89 75 f8             	mov    %esi,-0x8(%rbp)
    cf99:	83 7d f8 1f          	cmpl   $0x1f,-0x8(%rbp)
    cf9d:	77 21                	ja     cfc0 <safe_lshift_func_uint32_t_u_u+0x35>
    cf9f:	8b 45 f8             	mov    -0x8(%rbp),%eax
    cfa2:	ba ff ff ff ff       	mov    $0xffffffff,%edx
    cfa7:	89 c1                	mov    %eax,%ecx
    cfa9:	d3 ea                	shr    %cl,%edx
    cfab:	89 d0                	mov    %edx,%eax
    cfad:	39 45 fc             	cmp    %eax,-0x4(%rbp)
    cfb0:	77 0e                	ja     cfc0 <safe_lshift_func_uint32_t_u_u+0x35>
    cfb2:	8b 45 f8             	mov    -0x8(%rbp),%eax
    cfb5:	8b 55 fc             	mov    -0x4(%rbp),%edx
    cfb8:	89 c1                	mov    %eax,%ecx
    cfba:	d3 e2                	shl    %cl,%edx
    cfbc:	89 d0                	mov    %edx,%eax
    cfbe:	eb 03                	jmp    cfc3 <safe_lshift_func_uint32_t_u_u+0x38>
    cfc0:	8b 45 fc             	mov    -0x4(%rbp),%eax
    cfc3:	5d                   	pop    %rbp
    cfc4:	c3                   	retq   

000000000000cfc5 <safe_rshift_func_uint32_t_u_s>:
    cfc5:	f3 0f 1e fa          	endbr64 
    cfc9:	55                   	push   %rbp
    cfca:	48 89 e5             	mov    %rsp,%rbp
    cfcd:	89 7d fc             	mov    %edi,-0x4(%rbp)
    cfd0:	89 75 f8             	mov    %esi,-0x8(%rbp)
    cfd3:	83 7d f8 00          	cmpl   $0x0,-0x8(%rbp)
    cfd7:	78 14                	js     cfed <safe_rshift_func_uint32_t_u_s+0x28>
    cfd9:	83 7d f8 1f          	cmpl   $0x1f,-0x8(%rbp)
    cfdd:	7f 0e                	jg     cfed <safe_rshift_func_uint32_t_u_s+0x28>
    cfdf:	8b 45 f8             	mov    -0x8(%rbp),%eax
    cfe2:	8b 55 fc             	mov    -0x4(%rbp),%edx
    cfe5:	89 c1                	mov    %eax,%ecx
    cfe7:	d3 ea                	shr    %cl,%edx
    cfe9:	89 d0                	mov    %edx,%eax
    cfeb:	eb 03                	jmp    cff0 <safe_rshift_func_uint32_t_u_s+0x2b>
    cfed:	8b 45 fc             	mov    -0x4(%rbp),%eax
    cff0:	5d                   	pop    %rbp
    cff1:	c3                   	retq   

000000000000cff2 <safe_rshift_func_uint32_t_u_u>:
    cff2:	f3 0f 1e fa          	endbr64 
    cff6:	55                   	push   %rbp
    cff7:	48 89 e5             	mov    %rsp,%rbp
    cffa:	89 7d fc             	mov    %edi,-0x4(%rbp)
    cffd:	89 75 f8             	mov    %esi,-0x8(%rbp)
    d000:	83 7d f8 1f          	cmpl   $0x1f,-0x8(%rbp)
    d004:	77 0e                	ja     d014 <safe_rshift_func_uint32_t_u_u+0x22>
    d006:	8b 45 f8             	mov    -0x8(%rbp),%eax
    d009:	8b 55 fc             	mov    -0x4(%rbp),%edx
    d00c:	89 c1                	mov    %eax,%ecx
    d00e:	d3 ea                	shr    %cl,%edx
    d010:	89 d0                	mov    %edx,%eax
    d012:	eb 03                	jmp    d017 <safe_rshift_func_uint32_t_u_u+0x25>
    d014:	8b 45 fc             	mov    -0x4(%rbp),%eax
    d017:	5d                   	pop    %rbp
    d018:	c3                   	retq   

000000000000d019 <safe_unary_minus_func_uint64_t_u>:
    d019:	f3 0f 1e fa          	endbr64 
    d01d:	55                   	push   %rbp
    d01e:	48 89 e5             	mov    %rsp,%rbp
    d021:	48 89 7d f8          	mov    %rdi,-0x8(%rbp)
    d025:	48 8b 45 f8          	mov    -0x8(%rbp),%rax
    d029:	48 f7 d8             	neg    %rax
    d02c:	5d                   	pop    %rbp
    d02d:	c3                   	retq   

000000000000d02e <safe_add_func_uint64_t_u_u>:
    d02e:	f3 0f 1e fa          	endbr64 
    d032:	55                   	push   %rbp
    d033:	48 89 e5             	mov    %rsp,%rbp
    d036:	48 89 7d f8          	mov    %rdi,-0x8(%rbp)
    d03a:	48 89 75 f0          	mov    %rsi,-0x10(%rbp)
    d03e:	48 8b 55 f8          	mov    -0x8(%rbp),%rdx
    d042:	48 8b 45 f0          	mov    -0x10(%rbp),%rax
    d046:	48 01 d0             	add    %rdx,%rax
    d049:	5d                   	pop    %rbp
    d04a:	c3                   	retq   

000000000000d04b <safe_sub_func_uint64_t_u_u>:
    d04b:	f3 0f 1e fa          	endbr64 
    d04f:	55                   	push   %rbp
    d050:	48 89 e5             	mov    %rsp,%rbp
    d053:	48 89 7d f8          	mov    %rdi,-0x8(%rbp)
    d057:	48 89 75 f0          	mov    %rsi,-0x10(%rbp)
    d05b:	48 8b 45 f8          	mov    -0x8(%rbp),%rax
    d05f:	48 2b 45 f0          	sub    -0x10(%rbp),%rax
    d063:	5d                   	pop    %rbp
    d064:	c3                   	retq   

000000000000d065 <safe_mul_func_uint64_t_u_u>:
    d065:	f3 0f 1e fa          	endbr64 
    d069:	55                   	push   %rbp
    d06a:	48 89 e5             	mov    %rsp,%rbp
    d06d:	48 89 7d f8          	mov    %rdi,-0x8(%rbp)
    d071:	48 89 75 f0          	mov    %rsi,-0x10(%rbp)
    d075:	48 8b 45 f8          	mov    -0x8(%rbp),%rax
    d079:	48 0f af 45 f0       	imul   -0x10(%rbp),%rax
    d07e:	5d                   	pop    %rbp
    d07f:	c3                   	retq   

000000000000d080 <safe_mod_func_uint64_t_u_u>:
    d080:	f3 0f 1e fa          	endbr64 
    d084:	55                   	push   %rbp
    d085:	48 89 e5             	mov    %rsp,%rbp
    d088:	48 89 7d f8          	mov    %rdi,-0x8(%rbp)
    d08c:	48 89 75 f0          	mov    %rsi,-0x10(%rbp)
    d090:	48 83 7d f0 00       	cmpq   $0x0,-0x10(%rbp)
    d095:	74 12                	je     d0a9 <safe_mod_func_uint64_t_u_u+0x29>
    d097:	48 8b 45 f8          	mov    -0x8(%rbp),%rax
    d09b:	ba 00 00 00 00       	mov    $0x0,%edx
    d0a0:	48 f7 75 f0          	divq   -0x10(%rbp)
    d0a4:	48 89 d0             	mov    %rdx,%rax
    d0a7:	eb 04                	jmp    d0ad <safe_mod_func_uint64_t_u_u+0x2d>
    d0a9:	48 8b 45 f8          	mov    -0x8(%rbp),%rax
    d0ad:	5d                   	pop    %rbp
    d0ae:	c3                   	retq   

000000000000d0af <safe_div_func_uint64_t_u_u>:
    d0af:	f3 0f 1e fa          	endbr64 
    d0b3:	55                   	push   %rbp
    d0b4:	48 89 e5             	mov    %rsp,%rbp
    d0b7:	48 89 7d f8          	mov    %rdi,-0x8(%rbp)
    d0bb:	48 89 75 f0          	mov    %rsi,-0x10(%rbp)
    d0bf:	48 83 7d f0 00       	cmpq   $0x0,-0x10(%rbp)
    d0c4:	74 0f                	je     d0d5 <safe_div_func_uint64_t_u_u+0x26>
    d0c6:	48 8b 45 f8          	mov    -0x8(%rbp),%rax
    d0ca:	ba 00 00 00 00       	mov    $0x0,%edx
    d0cf:	48 f7 75 f0          	divq   -0x10(%rbp)
    d0d3:	eb 04                	jmp    d0d9 <safe_div_func_uint64_t_u_u+0x2a>
    d0d5:	48 8b 45 f8          	mov    -0x8(%rbp),%rax
    d0d9:	5d                   	pop    %rbp
    d0da:	c3                   	retq   

000000000000d0db <safe_lshift_func_uint64_t_u_s>:
    d0db:	f3 0f 1e fa          	endbr64 
    d0df:	55                   	push   %rbp
    d0e0:	48 89 e5             	mov    %rsp,%rbp
    d0e3:	48 89 7d f8          	mov    %rdi,-0x8(%rbp)
    d0e7:	89 75 f4             	mov    %esi,-0xc(%rbp)
    d0ea:	83 7d f4 00          	cmpl   $0x0,-0xc(%rbp)
    d0ee:	78 2f                	js     d11f <safe_lshift_func_uint64_t_u_s+0x44>
    d0f0:	83 7d f4 1f          	cmpl   $0x1f,-0xc(%rbp)
    d0f4:	7f 29                	jg     d11f <safe_lshift_func_uint64_t_u_s+0x44>
    d0f6:	8b 45 f4             	mov    -0xc(%rbp),%eax
    d0f9:	48 c7 c2 ff ff ff ff 	mov    $0xffffffffffffffff,%rdx
    d100:	89 c1                	mov    %eax,%ecx
    d102:	48 d3 ea             	shr    %cl,%rdx
    d105:	48 89 d0             	mov    %rdx,%rax
    d108:	48 39 45 f8          	cmp    %rax,-0x8(%rbp)
    d10c:	77 11                	ja     d11f <safe_lshift_func_uint64_t_u_s+0x44>
    d10e:	8b 45 f4             	mov    -0xc(%rbp),%eax
    d111:	48 8b 55 f8          	mov    -0x8(%rbp),%rdx
    d115:	89 c1                	mov    %eax,%ecx
    d117:	48 d3 e2             	shl    %cl,%rdx
    d11a:	48 89 d0             	mov    %rdx,%rax
    d11d:	eb 04                	jmp    d123 <safe_lshift_func_uint64_t_u_s+0x48>
    d11f:	48 8b 45 f8          	mov    -0x8(%rbp),%rax
    d123:	5d                   	pop    %rbp
    d124:	c3                   	retq   

000000000000d125 <safe_lshift_func_uint64_t_u_u>:
    d125:	f3 0f 1e fa          	endbr64 
    d129:	55                   	push   %rbp
    d12a:	48 89 e5             	mov    %rsp,%rbp
    d12d:	48 89 7d f8          	mov    %rdi,-0x8(%rbp)
    d131:	89 75 f4             	mov    %esi,-0xc(%rbp)
    d134:	83 7d f4 1f          	cmpl   $0x1f,-0xc(%rbp)
    d138:	77 29                	ja     d163 <safe_lshift_func_uint64_t_u_u+0x3e>
    d13a:	8b 45 f4             	mov    -0xc(%rbp),%eax
    d13d:	48 c7 c2 ff ff ff ff 	mov    $0xffffffffffffffff,%rdx
    d144:	89 c1                	mov    %eax,%ecx
    d146:	48 d3 ea             	shr    %cl,%rdx
    d149:	48 89 d0             	mov    %rdx,%rax
    d14c:	48 39 45 f8          	cmp    %rax,-0x8(%rbp)
    d150:	77 11                	ja     d163 <safe_lshift_func_uint64_t_u_u+0x3e>
    d152:	8b 45 f4             	mov    -0xc(%rbp),%eax
    d155:	48 8b 55 f8          	mov    -0x8(%rbp),%rdx
    d159:	89 c1                	mov    %eax,%ecx
    d15b:	48 d3 e2             	shl    %cl,%rdx
    d15e:	48 89 d0             	mov    %rdx,%rax
    d161:	eb 04                	jmp    d167 <safe_lshift_func_uint64_t_u_u+0x42>
    d163:	48 8b 45 f8          	mov    -0x8(%rbp),%rax
    d167:	5d                   	pop    %rbp
    d168:	c3                   	retq   

000000000000d169 <safe_rshift_func_uint64_t_u_s>:
    d169:	f3 0f 1e fa          	endbr64 
    d16d:	55                   	push   %rbp
    d16e:	48 89 e5             	mov    %rsp,%rbp
    d171:	48 89 7d f8          	mov    %rdi,-0x8(%rbp)
    d175:	89 75 f4             	mov    %esi,-0xc(%rbp)
    d178:	83 7d f4 00          	cmpl   $0x0,-0xc(%rbp)
    d17c:	78 17                	js     d195 <safe_rshift_func_uint64_t_u_s+0x2c>
    d17e:	83 7d f4 1f          	cmpl   $0x1f,-0xc(%rbp)
    d182:	7f 11                	jg     d195 <safe_rshift_func_uint64_t_u_s+0x2c>
    d184:	8b 45 f4             	mov    -0xc(%rbp),%eax
    d187:	48 8b 55 f8          	mov    -0x8(%rbp),%rdx
    d18b:	89 c1                	mov    %eax,%ecx
    d18d:	48 d3 ea             	shr    %cl,%rdx
    d190:	48 89 d0             	mov    %rdx,%rax
    d193:	eb 04                	jmp    d199 <safe_rshift_func_uint64_t_u_s+0x30>
    d195:	48 8b 45 f8          	mov    -0x8(%rbp),%rax
    d199:	5d                   	pop    %rbp
    d19a:	c3                   	retq   

000000000000d19b <safe_rshift_func_uint64_t_u_u>:
    d19b:	f3 0f 1e fa          	endbr64 
    d19f:	55                   	push   %rbp
    d1a0:	48 89 e5             	mov    %rsp,%rbp
    d1a3:	48 89 7d f8          	mov    %rdi,-0x8(%rbp)
    d1a7:	89 75 f4             	mov    %esi,-0xc(%rbp)
    d1aa:	83 7d f4 1f          	cmpl   $0x1f,-0xc(%rbp)
    d1ae:	77 11                	ja     d1c1 <safe_rshift_func_uint64_t_u_u+0x26>
    d1b0:	8b 45 f4             	mov    -0xc(%rbp),%eax
    d1b3:	48 8b 55 f8          	mov    -0x8(%rbp),%rdx
    d1b7:	89 c1                	mov    %eax,%ecx
    d1b9:	48 d3 ea             	shr    %cl,%rdx
    d1bc:	48 89 d0             	mov    %rdx,%rax
    d1bf:	eb 04                	jmp    d1c5 <safe_rshift_func_uint64_t_u_u+0x2a>
    d1c1:	48 8b 45 f8          	mov    -0x8(%rbp),%rax
    d1c5:	5d                   	pop    %rbp
    d1c6:	c3                   	retq   

000000000000d1c7 <safe_add_func_float_f_f>:
    d1c7:	f3 0f 1e fa          	endbr64 
    d1cb:	55                   	push   %rbp
    d1cc:	48 89 e5             	mov    %rsp,%rbp
    d1cf:	f3 0f 11 45 fc       	movss  %xmm0,-0x4(%rbp)
    d1d4:	f3 0f 11 4d f8       	movss  %xmm1,-0x8(%rbp)
    d1d9:	f3 0f 10 4d fc       	movss  -0x4(%rbp),%xmm1
    d1de:	f3 0f 10 05 7e 54 01 	movss  0x1547e(%rip),%xmm0        # 22664 <g_2708+0x23dc>
    d1e5:	00 
    d1e6:	f3 0f 59 c8          	mulss  %xmm0,%xmm1
    d1ea:	f3 0f 10 55 f8       	movss  -0x8(%rbp),%xmm2
    d1ef:	f3 0f 10 05 6d 54 01 	movss  0x1546d(%rip),%xmm0        # 22664 <g_2708+0x23dc>
    d1f6:	00 
    d1f7:	f3 0f 59 c2          	mulss  %xmm2,%xmm0
    d1fb:	f3 0f 58 c1          	addss  %xmm1,%xmm0
    d1ff:	f3 0f 10 0d 69 54 01 	movss  0x15469(%rip),%xmm1        # 22670 <g_2708+0x23e8>
    d206:	00 
    d207:	0f 54 c1             	andps  %xmm1,%xmm0
    d20a:	0f 2f 05 6f 54 01 00 	comiss 0x1546f(%rip),%xmm0        # 22680 <g_2708+0x23f8>
    d211:	76 07                	jbe    d21a <safe_add_func_float_f_f+0x53>
    d213:	f3 0f 10 45 fc       	movss  -0x4(%rbp),%xmm0
    d218:	eb 0a                	jmp    d224 <safe_add_func_float_f_f+0x5d>
    d21a:	f3 0f 10 45 fc       	movss  -0x4(%rbp),%xmm0
    d21f:	f3 0f 58 45 f8       	addss  -0x8(%rbp),%xmm0
    d224:	5d                   	pop    %rbp
    d225:	c3                   	retq   

000000000000d226 <safe_sub_func_float_f_f>:
    d226:	f3 0f 1e fa          	endbr64 
    d22a:	55                   	push   %rbp
    d22b:	48 89 e5             	mov    %rsp,%rbp
    d22e:	f3 0f 11 45 fc       	movss  %xmm0,-0x4(%rbp)
    d233:	f3 0f 11 4d f8       	movss  %xmm1,-0x8(%rbp)
    d238:	f3 0f 10 4d fc       	movss  -0x4(%rbp),%xmm1
    d23d:	f3 0f 10 05 1f 54 01 	movss  0x1541f(%rip),%xmm0        # 22664 <g_2708+0x23dc>
    d244:	00 
    d245:	f3 0f 59 c1          	mulss  %xmm1,%xmm0
    d249:	f3 0f 10 55 f8       	movss  -0x8(%rbp),%xmm2
    d24e:	f3 0f 10 0d 0e 54 01 	movss  0x1540e(%rip),%xmm1        # 22664 <g_2708+0x23dc>
    d255:	00 
    d256:	f3 0f 59 ca          	mulss  %xmm2,%xmm1
    d25a:	f3 0f 5c c1          	subss  %xmm1,%xmm0
    d25e:	f3 0f 10 0d 0a 54 01 	movss  0x1540a(%rip),%xmm1        # 22670 <g_2708+0x23e8>
    d265:	00 
    d266:	0f 54 c1             	andps  %xmm1,%xmm0
    d269:	0f 2f 05 10 54 01 00 	comiss 0x15410(%rip),%xmm0        # 22680 <g_2708+0x23f8>
    d270:	76 07                	jbe    d279 <safe_sub_func_float_f_f+0x53>
    d272:	f3 0f 10 45 fc       	movss  -0x4(%rbp),%xmm0
    d277:	eb 0a                	jmp    d283 <safe_sub_func_float_f_f+0x5d>
    d279:	f3 0f 10 45 fc       	movss  -0x4(%rbp),%xmm0
    d27e:	f3 0f 5c 45 f8       	subss  -0x8(%rbp),%xmm0
    d283:	5d                   	pop    %rbp
    d284:	c3                   	retq   

000000000000d285 <safe_mul_func_float_f_f>:
    d285:	f3 0f 1e fa          	endbr64 
    d289:	55                   	push   %rbp
    d28a:	48 89 e5             	mov    %rsp,%rbp
    d28d:	f3 0f 11 45 fc       	movss  %xmm0,-0x4(%rbp)
    d292:	f3 0f 11 4d f8       	movss  %xmm1,-0x8(%rbp)
    d297:	f3 0f 10 4d fc       	movss  -0x4(%rbp),%xmm1
    d29c:	f3 0f 10 05 e0 53 01 	movss  0x153e0(%rip),%xmm0        # 22684 <g_2708+0x23fc>
    d2a3:	00 
    d2a4:	f3 0f 59 c8          	mulss  %xmm0,%xmm1
    d2a8:	f3 0f 10 55 f8       	movss  -0x8(%rbp),%xmm2
    d2ad:	f3 0f 10 05 d3 53 01 	movss  0x153d3(%rip),%xmm0        # 22688 <g_2708+0x2400>
    d2b4:	00 
    d2b5:	f3 0f 59 c2          	mulss  %xmm2,%xmm0
    d2b9:	f3 0f 59 c1          	mulss  %xmm1,%xmm0
    d2bd:	f3 0f 10 0d ab 53 01 	movss  0x153ab(%rip),%xmm1        # 22670 <g_2708+0x23e8>
    d2c4:	00 
    d2c5:	0f 54 c1             	andps  %xmm1,%xmm0
    d2c8:	0f 2f 05 bd 53 01 00 	comiss 0x153bd(%rip),%xmm0        # 2268c <g_2708+0x2404>
    d2cf:	76 07                	jbe    d2d8 <safe_mul_func_float_f_f+0x53>
    d2d1:	f3 0f 10 45 fc       	movss  -0x4(%rbp),%xmm0
    d2d6:	eb 0a                	jmp    d2e2 <safe_mul_func_float_f_f+0x5d>
    d2d8:	f3 0f 10 45 fc       	movss  -0x4(%rbp),%xmm0
    d2dd:	f3 0f 59 45 f8       	mulss  -0x8(%rbp),%xmm0
    d2e2:	5d                   	pop    %rbp
    d2e3:	c3                   	retq   

000000000000d2e4 <safe_div_func_float_f_f>:
    d2e4:	f3 0f 1e fa          	endbr64 
    d2e8:	55                   	push   %rbp
    d2e9:	48 89 e5             	mov    %rsp,%rbp
    d2ec:	f3 0f 11 45 fc       	movss  %xmm0,-0x4(%rbp)
    d2f1:	f3 0f 11 4d f8       	movss  %xmm1,-0x8(%rbp)
    d2f6:	f3 0f 10 45 f8       	movss  -0x8(%rbp),%xmm0
    d2fb:	f3 0f 10 0d 6d 53 01 	movss  0x1536d(%rip),%xmm1        # 22670 <g_2708+0x23e8>
    d302:	00 
    d303:	0f 54 c8             	andps  %xmm0,%xmm1
    d306:	f3 0f 10 05 82 53 01 	movss  0x15382(%rip),%xmm0        # 22690 <g_2708+0x2408>
    d30d:	00 
    d30e:	0f 2f c1             	comiss %xmm1,%xmm0
    d311:	0f 97 c0             	seta   %al
    d314:	83 f0 01             	xor    $0x1,%eax
    d317:	84 c0                	test   %al,%al
    d319:	75 56                	jne    d371 <safe_div_func_float_f_f+0x8d>
    d31b:	66 0f ef c0          	pxor   %xmm0,%xmm0
    d31f:	0f 2e 45 f8          	ucomiss -0x8(%rbp),%xmm0
    d323:	7a 0a                	jp     d32f <safe_div_func_float_f_f+0x4b>
    d325:	66 0f ef c0          	pxor   %xmm0,%xmm0
    d329:	0f 2e 45 f8          	ucomiss -0x8(%rbp),%xmm0
    d32d:	74 4e                	je     d37d <safe_div_func_float_f_f+0x99>
    d32f:	f3 0f 10 4d fc       	movss  -0x4(%rbp),%xmm1
    d334:	f3 0f 10 05 58 53 01 	movss  0x15358(%rip),%xmm0        # 22694 <g_2708+0x240c>
    d33b:	00 
    d33c:	f3 0f 59 c1          	mulss  %xmm1,%xmm0
    d340:	f3 0f 10 55 f8       	movss  -0x8(%rbp),%xmm2
    d345:	f3 0f 10 0d 4b 53 01 	movss  0x1534b(%rip),%xmm1        # 22698 <g_2708+0x2410>
    d34c:	00 
    d34d:	f3 0f 59 ca          	mulss  %xmm2,%xmm1
    d351:	f3 0f 5e c1          	divss  %xmm1,%xmm0
    d355:	f3 0f 10 0d 13 53 01 	movss  0x15313(%rip),%xmm1        # 22670 <g_2708+0x23e8>
    d35c:	00 
    d35d:	0f 54 c1             	andps  %xmm1,%xmm0
    d360:	0f 2f 05 35 53 01 00 	comiss 0x15335(%rip),%xmm0        # 2269c <g_2708+0x2414>
    d367:	0f 97 c0             	seta   %al
    d36a:	83 f0 01             	xor    $0x1,%eax
    d36d:	84 c0                	test   %al,%al
    d36f:	74 0c                	je     d37d <safe_div_func_float_f_f+0x99>
    d371:	f3 0f 10 45 fc       	movss  -0x4(%rbp),%xmm0
    d376:	f3 0f 5e 45 f8       	divss  -0x8(%rbp),%xmm0
    d37b:	eb 05                	jmp    d382 <safe_div_func_float_f_f+0x9e>
    d37d:	f3 0f 10 45 fc       	movss  -0x4(%rbp),%xmm0
    d382:	5d                   	pop    %rbp
    d383:	c3                   	retq   

000000000000d384 <safe_add_func_double_f_f>:
    d384:	f3 0f 1e fa          	endbr64 
    d388:	55                   	push   %rbp
    d389:	48 89 e5             	mov    %rsp,%rbp
    d38c:	f2 0f 11 45 f8       	movsd  %xmm0,-0x8(%rbp)
    d391:	f2 0f 11 4d f0       	movsd  %xmm1,-0x10(%rbp)
    d396:	f2 0f 10 4d f8       	movsd  -0x8(%rbp),%xmm1
    d39b:	f2 0f 10 05 fd 52 01 	movsd  0x152fd(%rip),%xmm0        # 226a0 <g_2708+0x2418>
    d3a2:	00 
    d3a3:	f2 0f 59 c8          	mulsd  %xmm0,%xmm1
    d3a7:	f2 0f 10 55 f0       	movsd  -0x10(%rbp),%xmm2
    d3ac:	f2 0f 10 05 ec 52 01 	movsd  0x152ec(%rip),%xmm0        # 226a0 <g_2708+0x2418>
    d3b3:	00 
    d3b4:	f2 0f 59 c2          	mulsd  %xmm2,%xmm0
    d3b8:	f2 0f 58 c1          	addsd  %xmm1,%xmm0
    d3bc:	f3 0f 7e 0d ec 52 01 	movq   0x152ec(%rip),%xmm1        # 226b0 <g_2708+0x2428>
    d3c3:	00 
    d3c4:	66 0f 54 c1          	andpd  %xmm1,%xmm0
    d3c8:	66 0f 2f 05 f0 52 01 	comisd 0x152f0(%rip),%xmm0        # 226c0 <g_2708+0x2438>
    d3cf:	00 
    d3d0:	76 07                	jbe    d3d9 <safe_add_func_double_f_f+0x55>
    d3d2:	f2 0f 10 45 f8       	movsd  -0x8(%rbp),%xmm0
    d3d7:	eb 0a                	jmp    d3e3 <safe_add_func_double_f_f+0x5f>
    d3d9:	f2 0f 10 45 f8       	movsd  -0x8(%rbp),%xmm0
    d3de:	f2 0f 58 45 f0       	addsd  -0x10(%rbp),%xmm0
    d3e3:	5d                   	pop    %rbp
    d3e4:	c3                   	retq   

000000000000d3e5 <safe_sub_func_double_f_f>:
    d3e5:	f3 0f 1e fa          	endbr64 
    d3e9:	55                   	push   %rbp
    d3ea:	48 89 e5             	mov    %rsp,%rbp
    d3ed:	f2 0f 11 45 f8       	movsd  %xmm0,-0x8(%rbp)
    d3f2:	f2 0f 11 4d f0       	movsd  %xmm1,-0x10(%rbp)
    d3f7:	f2 0f 10 4d f8       	movsd  -0x8(%rbp),%xmm1
    d3fc:	f2 0f 10 05 9c 52 01 	movsd  0x1529c(%rip),%xmm0        # 226a0 <g_2708+0x2418>
    d403:	00 
    d404:	f2 0f 59 c1          	mulsd  %xmm1,%xmm0
    d408:	f2 0f 10 55 f0       	movsd  -0x10(%rbp),%xmm2
    d40d:	f2 0f 10 0d 8b 52 01 	movsd  0x1528b(%rip),%xmm1        # 226a0 <g_2708+0x2418>
    d414:	00 
    d415:	f2 0f 59 ca          	mulsd  %xmm2,%xmm1
    d419:	f2 0f 5c c1          	subsd  %xmm1,%xmm0
    d41d:	f3 0f 7e 0d 8b 52 01 	movq   0x1528b(%rip),%xmm1        # 226b0 <g_2708+0x2428>
    d424:	00 
    d425:	66 0f 54 c1          	andpd  %xmm1,%xmm0
    d429:	66 0f 2f 05 8f 52 01 	comisd 0x1528f(%rip),%xmm0        # 226c0 <g_2708+0x2438>
    d430:	00 
    d431:	76 07                	jbe    d43a <safe_sub_func_double_f_f+0x55>
    d433:	f2 0f 10 45 f8       	movsd  -0x8(%rbp),%xmm0
    d438:	eb 0a                	jmp    d444 <safe_sub_func_double_f_f+0x5f>
    d43a:	f2 0f 10 45 f8       	movsd  -0x8(%rbp),%xmm0
    d43f:	f2 0f 5c 45 f0       	subsd  -0x10(%rbp),%xmm0
    d444:	5d                   	pop    %rbp
    d445:	c3                   	retq   

000000000000d446 <safe_mul_func_double_f_f>:
    d446:	f3 0f 1e fa          	endbr64 
    d44a:	55                   	push   %rbp
    d44b:	48 89 e5             	mov    %rsp,%rbp
    d44e:	f2 0f 11 45 f8       	movsd  %xmm0,-0x8(%rbp)
    d453:	f2 0f 11 4d f0       	movsd  %xmm1,-0x10(%rbp)
    d458:	f2 0f 10 4d f8       	movsd  -0x8(%rbp),%xmm1
    d45d:	f2 0f 10 05 63 52 01 	movsd  0x15263(%rip),%xmm0        # 226c8 <g_2708+0x2440>
    d464:	00 
    d465:	f2 0f 59 c8          	mulsd  %xmm0,%xmm1
    d469:	f2 0f 10 55 f0       	movsd  -0x10(%rbp),%xmm2
    d46e:	f2 0f 10 05 5a 52 01 	movsd  0x1525a(%rip),%xmm0        # 226d0 <g_2708+0x2448>
    d475:	00 
    d476:	f2 0f 59 c2          	mulsd  %xmm2,%xmm0
    d47a:	f2 0f 59 c1          	mulsd  %xmm1,%xmm0
    d47e:	f3 0f 7e 0d 2a 52 01 	movq   0x1522a(%rip),%xmm1        # 226b0 <g_2708+0x2428>
    d485:	00 
    d486:	66 0f 54 c1          	andpd  %xmm1,%xmm0
    d48a:	66 0f 2f 05 46 52 01 	comisd 0x15246(%rip),%xmm0        # 226d8 <g_2708+0x2450>
    d491:	00 
    d492:	76 07                	jbe    d49b <safe_mul_func_double_f_f+0x55>
    d494:	f2 0f 10 45 f8       	movsd  -0x8(%rbp),%xmm0
    d499:	eb 0a                	jmp    d4a5 <safe_mul_func_double_f_f+0x5f>
    d49b:	f2 0f 10 45 f8       	movsd  -0x8(%rbp),%xmm0
    d4a0:	f2 0f 59 45 f0       	mulsd  -0x10(%rbp),%xmm0
    d4a5:	5d                   	pop    %rbp
    d4a6:	c3                   	retq   

000000000000d4a7 <safe_div_func_double_f_f>:
    d4a7:	f3 0f 1e fa          	endbr64 
    d4ab:	55                   	push   %rbp
    d4ac:	48 89 e5             	mov    %rsp,%rbp
    d4af:	f2 0f 11 45 f8       	movsd  %xmm0,-0x8(%rbp)
    d4b4:	f2 0f 11 4d f0       	movsd  %xmm1,-0x10(%rbp)
    d4b9:	f2 0f 10 45 f0       	movsd  -0x10(%rbp),%xmm0
    d4be:	f3 0f 7e 0d ea 51 01 	movq   0x151ea(%rip),%xmm1        # 226b0 <g_2708+0x2428>
    d4c5:	00 
    d4c6:	66 0f 54 c8          	andpd  %xmm0,%xmm1
    d4ca:	f2 0f 10 05 0e 52 01 	movsd  0x1520e(%rip),%xmm0        # 226e0 <g_2708+0x2458>
    d4d1:	00 
    d4d2:	66 0f 2f c1          	comisd %xmm1,%xmm0
    d4d6:	0f 97 c0             	seta   %al
    d4d9:	83 f0 01             	xor    $0x1,%eax
    d4dc:	84 c0                	test   %al,%al
    d4de:	75 5a                	jne    d53a <safe_div_func_double_f_f+0x93>
    d4e0:	66 0f ef c0          	pxor   %xmm0,%xmm0
    d4e4:	66 0f 2e 45 f0       	ucomisd -0x10(%rbp),%xmm0
    d4e9:	7a 0b                	jp     d4f6 <safe_div_func_double_f_f+0x4f>
    d4eb:	66 0f ef c0          	pxor   %xmm0,%xmm0
    d4ef:	66 0f 2e 45 f0       	ucomisd -0x10(%rbp),%xmm0
    d4f4:	74 50                	je     d546 <safe_div_func_double_f_f+0x9f>
    d4f6:	f2 0f 10 4d f8       	movsd  -0x8(%rbp),%xmm1
    d4fb:	f2 0f 10 05 e5 51 01 	movsd  0x151e5(%rip),%xmm0        # 226e8 <g_2708+0x2460>
    d502:	00 
    d503:	f2 0f 59 c1          	mulsd  %xmm1,%xmm0
    d507:	f2 0f 10 55 f0       	movsd  -0x10(%rbp),%xmm2
    d50c:	f2 0f 10 0d dc 51 01 	movsd  0x151dc(%rip),%xmm1        # 226f0 <g_2708+0x2468>
    d513:	00 
    d514:	f2 0f 59 ca          	mulsd  %xmm2,%xmm1
    d518:	f2 0f 5e c1          	divsd  %xmm1,%xmm0
    d51c:	f3 0f 7e 0d 8c 51 01 	movq   0x1518c(%rip),%xmm1        # 226b0 <g_2708+0x2428>
    d523:	00 
    d524:	66 0f 54 c1          	andpd  %xmm1,%xmm0
    d528:	66 0f 2f 05 c8 51 01 	comisd 0x151c8(%rip),%xmm0        # 226f8 <g_2708+0x2470>
    d52f:	00 
    d530:	0f 97 c0             	seta   %al
    d533:	83 f0 01             	xor    $0x1,%eax
    d536:	84 c0                	test   %al,%al
    d538:	74 0c                	je     d546 <safe_div_func_double_f_f+0x9f>
    d53a:	f2 0f 10 45 f8       	movsd  -0x8(%rbp),%xmm0
    d53f:	f2 0f 5e 45 f0       	divsd  -0x10(%rbp),%xmm0
    d544:	eb 05                	jmp    d54b <safe_div_func_double_f_f+0xa4>
    d546:	f2 0f 10 45 f8       	movsd  -0x8(%rbp),%xmm0
    d54b:	5d                   	pop    %rbp
    d54c:	c3                   	retq   

000000000000d54d <safe_convert_func_float_to_int32_t>:
    d54d:	f3 0f 1e fa          	endbr64 
    d551:	55                   	push   %rbp
    d552:	48 89 e5             	mov    %rsp,%rbp
    d555:	f3 0f 11 45 fc       	movss  %xmm0,-0x4(%rbp)
    d55a:	f3 0f 10 05 9e 51 01 	movss  0x1519e(%rip),%xmm0        # 22700 <g_2708+0x2478>
    d561:	00 
    d562:	0f 2f 45 fc          	comiss -0x4(%rbp),%xmm0
    d566:	0f 93 c0             	setae  %al
    d569:	83 f0 01             	xor    $0x1,%eax
    d56c:	84 c0                	test   %al,%al
    d56e:	74 21                	je     d591 <safe_convert_func_float_to_int32_t+0x44>
    d570:	f3 0f 10 45 fc       	movss  -0x4(%rbp),%xmm0
    d575:	0f 2f 05 88 51 01 00 	comiss 0x15188(%rip),%xmm0        # 22704 <g_2708+0x247c>
    d57c:	0f 93 c0             	setae  %al
    d57f:	83 f0 01             	xor    $0x1,%eax
    d582:	84 c0                	test   %al,%al
    d584:	74 0b                	je     d591 <safe_convert_func_float_to_int32_t+0x44>
    d586:	f3 0f 10 45 fc       	movss  -0x4(%rbp),%xmm0
    d58b:	f3 0f 2c c0          	cvttss2si %xmm0,%eax
    d58f:	eb 05                	jmp    d596 <safe_convert_func_float_to_int32_t+0x49>
    d591:	b8 ff ff ff 7f       	mov    $0x7fffffff,%eax
    d596:	5d                   	pop    %rbp
    d597:	c3                   	retq   

000000000000d598 <crc32_gentab>:
    d598:	f3 0f 1e fa          	endbr64 
    d59c:	55                   	push   %rbp
    d59d:	48 89 e5             	mov    %rsp,%rbp
    d5a0:	c7 45 fc 20 83 b8 ed 	movl   $0xedb88320,-0x4(%rbp)
    d5a7:	c7 45 f4 00 00 00 00 	movl   $0x0,-0xc(%rbp)
    d5ae:	eb 51                	jmp    d601 <crc32_gentab+0x69>
    d5b0:	8b 45 f4             	mov    -0xc(%rbp),%eax
    d5b3:	89 45 f0             	mov    %eax,-0x10(%rbp)
    d5b6:	c7 45 f8 08 00 00 00 	movl   $0x8,-0x8(%rbp)
    d5bd:	eb 1e                	jmp    d5dd <crc32_gentab+0x45>
    d5bf:	8b 45 f0             	mov    -0x10(%rbp),%eax
    d5c2:	83 e0 01             	and    $0x1,%eax
    d5c5:	85 c0                	test   %eax,%eax
    d5c7:	74 0d                	je     d5d6 <crc32_gentab+0x3e>
    d5c9:	8b 45 f0             	mov    -0x10(%rbp),%eax
    d5cc:	d1 e8                	shr    %eax
    d5ce:	33 45 fc             	xor    -0x4(%rbp),%eax
    d5d1:	89 45 f0             	mov    %eax,-0x10(%rbp)
    d5d4:	eb 03                	jmp    d5d9 <crc32_gentab+0x41>
    d5d6:	d1 6d f0             	shrl   -0x10(%rbp)
    d5d9:	83 6d f8 01          	subl   $0x1,-0x8(%rbp)
    d5dd:	83 7d f8 00          	cmpl   $0x0,-0x8(%rbp)
    d5e1:	7f dc                	jg     d5bf <crc32_gentab+0x27>
    d5e3:	8b 45 f4             	mov    -0xc(%rbp),%eax
    d5e6:	48 98                	cltq   
    d5e8:	48 8d 0c 85 00 00 00 	lea    0x0(,%rax,4),%rcx
    d5ef:	00 
    d5f0:	48 8d 15 69 d4 01 00 	lea    0x1d469(%rip),%rdx        # 2aa60 <crc32_tab>
    d5f7:	8b 45 f0             	mov    -0x10(%rbp),%eax
    d5fa:	89 04 11             	mov    %eax,(%rcx,%rdx,1)
    d5fd:	83 45 f4 01          	addl   $0x1,-0xc(%rbp)
    d601:	81 7d f4 ff 00 00 00 	cmpl   $0xff,-0xc(%rbp)
    d608:	7e a6                	jle    d5b0 <crc32_gentab+0x18>
    d60a:	90                   	nop
    d60b:	90                   	nop
    d60c:	5d                   	pop    %rbp
    d60d:	c3                   	retq   

000000000000d60e <crc32_byte>:
    d60e:	f3 0f 1e fa          	endbr64 
    d612:	55                   	push   %rbp
    d613:	48 89 e5             	mov    %rsp,%rbp
    d616:	89 f8                	mov    %edi,%eax
    d618:	88 45 fc             	mov    %al,-0x4(%rbp)
    d61b:	8b 05 ff 89 01 00    	mov    0x189ff(%rip),%eax        # 26020 <crc32_context>
    d621:	c1 e8 08             	shr    $0x8,%eax
    d624:	89 c1                	mov    %eax,%ecx
    d626:	0f b6 55 fc          	movzbl -0x4(%rbp),%edx
    d62a:	8b 05 f0 89 01 00    	mov    0x189f0(%rip),%eax        # 26020 <crc32_context>
    d630:	31 d0                	xor    %edx,%eax
    d632:	0f b6 c0             	movzbl %al,%eax
    d635:	89 c0                	mov    %eax,%eax
    d637:	48 8d 14 85 00 00 00 	lea    0x0(,%rax,4),%rdx
    d63e:	00 
    d63f:	48 8d 05 1a d4 01 00 	lea    0x1d41a(%rip),%rax        # 2aa60 <crc32_tab>
    d646:	8b 04 02             	mov    (%rdx,%rax,1),%eax
    d649:	31 c8                	xor    %ecx,%eax
    d64b:	89 05 cf 89 01 00    	mov    %eax,0x189cf(%rip)        # 26020 <crc32_context>
    d651:	90                   	nop
    d652:	5d                   	pop    %rbp
    d653:	c3                   	retq   

000000000000d654 <crc32_8bytes>:
    d654:	f3 0f 1e fa          	endbr64 
    d658:	55                   	push   %rbp
    d659:	48 89 e5             	mov    %rsp,%rbp
    d65c:	48 83 ec 08          	sub    $0x8,%rsp
    d660:	48 89 7d f8          	mov    %rdi,-0x8(%rbp)
    d664:	48 8b 45 f8          	mov    -0x8(%rbp),%rax
    d668:	0f b6 c0             	movzbl %al,%eax
    d66b:	89 c7                	mov    %eax,%edi
    d66d:	e8 9c ff ff ff       	callq  d60e <crc32_byte>
    d672:	48 8b 45 f8          	mov    -0x8(%rbp),%rax
    d676:	48 c1 e8 08          	shr    $0x8,%rax
    d67a:	0f b6 c0             	movzbl %al,%eax
    d67d:	89 c7                	mov    %eax,%edi
    d67f:	e8 8a ff ff ff       	callq  d60e <crc32_byte>
    d684:	48 8b 45 f8          	mov    -0x8(%rbp),%rax
    d688:	48 c1 e8 10          	shr    $0x10,%rax
    d68c:	0f b6 c0             	movzbl %al,%eax
    d68f:	89 c7                	mov    %eax,%edi
    d691:	e8 78 ff ff ff       	callq  d60e <crc32_byte>
    d696:	48 8b 45 f8          	mov    -0x8(%rbp),%rax
    d69a:	48 c1 e8 18          	shr    $0x18,%rax
    d69e:	0f b6 c0             	movzbl %al,%eax
    d6a1:	89 c7                	mov    %eax,%edi
    d6a3:	e8 66 ff ff ff       	callq  d60e <crc32_byte>
    d6a8:	48 8b 45 f8          	mov    -0x8(%rbp),%rax
    d6ac:	48 c1 e8 20          	shr    $0x20,%rax
    d6b0:	0f b6 c0             	movzbl %al,%eax
    d6b3:	89 c7                	mov    %eax,%edi
    d6b5:	e8 54 ff ff ff       	callq  d60e <crc32_byte>
    d6ba:	48 8b 45 f8          	mov    -0x8(%rbp),%rax
    d6be:	48 c1 e8 28          	shr    $0x28,%rax
    d6c2:	0f b6 c0             	movzbl %al,%eax
    d6c5:	89 c7                	mov    %eax,%edi
    d6c7:	e8 42 ff ff ff       	callq  d60e <crc32_byte>
    d6cc:	48 8b 45 f8          	mov    -0x8(%rbp),%rax
    d6d0:	48 c1 e8 30          	shr    $0x30,%rax
    d6d4:	0f b6 c0             	movzbl %al,%eax
    d6d7:	89 c7                	mov    %eax,%edi
    d6d9:	e8 30 ff ff ff       	callq  d60e <crc32_byte>
    d6de:	48 8b 45 f8          	mov    -0x8(%rbp),%rax
    d6e2:	48 c1 e8 38          	shr    $0x38,%rax
    d6e6:	0f b6 c0             	movzbl %al,%eax
    d6e9:	89 c7                	mov    %eax,%edi
    d6eb:	e8 1e ff ff ff       	callq  d60e <crc32_byte>
    d6f0:	90                   	nop
    d6f1:	c9                   	leaveq 
    d6f2:	c3                   	retq   

000000000000d6f3 <transparent_crc>:
    d6f3:	f3 0f 1e fa          	endbr64 
    d6f7:	55                   	push   %rbp
    d6f8:	48 89 e5             	mov    %rsp,%rbp
    d6fb:	48 83 ec 20          	sub    $0x20,%rsp
    d6ff:	48 89 7d f8          	mov    %rdi,-0x8(%rbp)
    d703:	48 89 75 f0          	mov    %rsi,-0x10(%rbp)
    d707:	89 55 ec             	mov    %edx,-0x14(%rbp)
    d70a:	48 8b 45 f8          	mov    -0x8(%rbp),%rax
    d70e:	48 89 c7             	mov    %rax,%rdi
    d711:	e8 3e ff ff ff       	callq  d654 <crc32_8bytes>
    d716:	83 7d ec 00          	cmpl   $0x0,-0x14(%rbp)
    d71a:	74 22                	je     d73e <transparent_crc+0x4b>
    d71c:	8b 05 fe 88 01 00    	mov    0x188fe(%rip),%eax        # 26020 <crc32_context>
    d722:	f7 d0                	not    %eax
    d724:	89 c2                	mov    %eax,%edx
    d726:	48 8b 45 f0          	mov    -0x10(%rbp),%rax
    d72a:	48 89 c6             	mov    %rax,%rsi
    d72d:	48 8d 3d fc 28 01 00 	lea    0x128fc(%rip),%rdi        # 20030 <_IO_stdin_used+0x30>
    d734:	b8 00 00 00 00       	mov    $0x0,%eax
    d739:	e8 42 e9 ff ff       	callq  c080 <printf@plt>
    d73e:	90                   	nop
    d73f:	c9                   	leaveq 
    d740:	c3                   	retq   

000000000000d741 <transparent_crc_bytes>:
    d741:	f3 0f 1e fa          	endbr64 
    d745:	55                   	push   %rbp
    d746:	48 89 e5             	mov    %rsp,%rbp
    d749:	48 83 ec 30          	sub    $0x30,%rsp
    d74d:	48 89 7d e8          	mov    %rdi,-0x18(%rbp)
    d751:	89 75 e4             	mov    %esi,-0x1c(%rbp)
    d754:	48 89 55 d8          	mov    %rdx,-0x28(%rbp)
    d758:	89 4d e0             	mov    %ecx,-0x20(%rbp)
    d75b:	c7 45 fc 00 00 00 00 	movl   $0x0,-0x4(%rbp)
    d762:	eb 1e                	jmp    d782 <transparent_crc_bytes+0x41>
    d764:	8b 45 fc             	mov    -0x4(%rbp),%eax
    d767:	48 63 d0             	movslq %eax,%rdx
    d76a:	48 8b 45 e8          	mov    -0x18(%rbp),%rax
    d76e:	48 01 d0             	add    %rdx,%rax
    d771:	0f b6 00             	movzbl (%rax),%eax
    d774:	0f b6 c0             	movzbl %al,%eax
    d777:	89 c7                	mov    %eax,%edi
    d779:	e8 90 fe ff ff       	callq  d60e <crc32_byte>
    d77e:	83 45 fc 01          	addl   $0x1,-0x4(%rbp)
    d782:	8b 45 fc             	mov    -0x4(%rbp),%eax
    d785:	3b 45 e4             	cmp    -0x1c(%rbp),%eax
    d788:	7c da                	jl     d764 <transparent_crc_bytes+0x23>
    d78a:	83 7d e0 00          	cmpl   $0x0,-0x20(%rbp)
    d78e:	74 22                	je     d7b2 <transparent_crc_bytes+0x71>
    d790:	8b 05 8a 88 01 00    	mov    0x1888a(%rip),%eax        # 26020 <crc32_context>
    d796:	f7 d0                	not    %eax
    d798:	89 c2                	mov    %eax,%edx
    d79a:	48 8b 45 d8          	mov    -0x28(%rbp),%rax
    d79e:	48 89 c6             	mov    %rax,%rsi
    d7a1:	48 8d 3d 88 28 01 00 	lea    0x12888(%rip),%rdi        # 20030 <_IO_stdin_used+0x30>
    d7a8:	b8 00 00 00 00       	mov    $0x0,%eax
    d7ad:	e8 ce e8 ff ff       	callq  c080 <printf@plt>
    d7b2:	90                   	nop
    d7b3:	c9                   	leaveq 
    d7b4:	c3                   	retq   

000000000000d7b5 <func_1>:
    d7b5:	f3 0f 1e fa          	endbr64 
    d7b9:	55                   	push   %rbp
    d7ba:	48 89 e5             	mov    %rsp,%rbp
    d7bd:	41 57                	push   %r15
    d7bf:	41 56                	push   %r14
    d7c1:	41 55                	push   %r13
    d7c3:	41 54                	push   %r12
    d7c5:	53                   	push   %rbx
    d7c6:	48 81 ec 38 0e 00 00 	sub    $0xe38,%rsp
    d7cd:	64 48 8b 04 25 28 00 	mov    %fs:0x28,%rax
    d7d4:	00 00 
    d7d6:	48 89 45 c8          	mov    %rax,-0x38(%rbp)
    d7da:	31 c0                	xor    %eax,%eax
    d7dc:	c7 85 c4 f1 ff ff 01 	movl   $0x1,-0xe3c(%rbp)
    d7e3:	00 00 00 
    d7e6:	c7 85 c8 f1 ff ff f6 	movl   $0xfffffff6,-0xe38(%rbp)
    d7ed:	ff ff ff 
    d7f0:	c7 85 cc f1 ff ff 03 	movl   $0xe1cb9d03,-0xe34(%rbp)
    d7f7:	9d cb e1 
    d7fa:	48 b8 01 01 ff ff fd 	movabs $0x520029fdffff0101,%rax
    d801:	29 00 52 
    d804:	48 89 85 b0 f3 ff ff 	mov    %rax,-0xc50(%rbp)
    d80b:	c6 85 b8 f3 ff ff fa 	movb   $0xfa,-0xc48(%rbp)
    d812:	48 b8 05 cc 52 eb 30 	movabs $0xfd4f0130eb52cc05,%rax
    d819:	01 4f fd 
    d81c:	48 89 85 b9 f3 ff ff 	mov    %rax,-0xc47(%rbp)
    d823:	c6 85 c1 f3 ff ff fd 	movb   $0xfd,-0xc3f(%rbp)
    d82a:	48 b8 fa 00 ff 30 ff 	movabs $0x1fa00ff30ff00fa,%rax
    d831:	00 fa 01 
    d834:	48 89 85 c2 f3 ff ff 	mov    %rax,-0xc3e(%rbp)
    d83b:	c6 85 ca f3 ff ff fd 	movb   $0xfd,-0xc36(%rbp)
    d842:	48 b8 fa 4f 29 00 97 	movabs $0x101009700294ffa,%rax
    d849:	00 01 01 
    d84c:	48 89 85 cb f3 ff ff 	mov    %rax,-0xc35(%rbp)
    d853:	c6 85 d3 f3 ff ff ff 	movb   $0xff,-0xc2d(%rbp)
    d85a:	48 b8 05 fd 00 01 01 	movabs $0x19797010100fd05,%rax
    d861:	97 97 01 
    d864:	48 89 85 d4 f3 ff ff 	mov    %rax,-0xc2c(%rbp)
    d86b:	c6 85 dc f3 ff ff 01 	movb   $0x1,-0xc24(%rbp)
    d872:	48 b8 01 05 01 fd cc 	movabs $0xfd3097ccfd010501,%rax
    d879:	97 30 fd 
    d87c:	48 89 85 dd f3 ff ff 	mov    %rax,-0xc23(%rbp)
    d883:	c6 85 e5 f3 ff ff ff 	movb   $0xff,-0xc1b(%rbp)
    d88a:	48 b8 00 01 cc 29 01 	movabs $0x5205000129cc0100,%rax
    d891:	00 05 52 
    d894:	48 89 85 e6 f3 ff ff 	mov    %rax,-0xc1a(%rbp)
    d89b:	c6 85 ee f3 ff ff 01 	movb   $0x1,-0xc12(%rbp)
    d8a2:	48 b8 97 eb 00 fd fd 	movabs $0x97eb00fdfd00eb97,%rax
    d8a9:	00 eb 97 
    d8ac:	48 89 85 ef f3 ff ff 	mov    %rax,-0xc11(%rbp)
    d8b3:	c6 85 f7 f3 ff ff 01 	movb   $0x1,-0xc09(%rbp)
    d8ba:	48 c7 85 60 f2 ff ff 	movq   $0x0,-0xda0(%rbp)
    d8c1:	00 00 00 00 
    d8c5:	48 8d 05 f4 a9 01 00 	lea    0x1a9f4(%rip),%rax        # 282c0 <g_543>
    d8cc:	48 89 85 30 f2 ff ff 	mov    %rax,-0xdd0(%rbp)
    d8d3:	c7 85 e0 f1 ff ff f6 	movl   $0xfffffff6,-0xe20(%rbp)
    d8da:	ff ff ff 
    d8dd:	48 8d 05 1c 89 01 00 	lea    0x1891c(%rip),%rax        # 26200 <g_260>
    d8e4:	48 89 85 68 f2 ff ff 	mov    %rax,-0xd98(%rbp)
    d8eb:	c7 85 e4 f1 ff ff da 	movl   $0x40c3beda,-0xe1c(%rbp)
    d8f2:	be c3 40 
    d8f5:	c7 85 e8 f1 ff ff fd 	movl   $0xfffffffd,-0xe18(%rbp)
    d8fc:	ff ff ff 
    d8ff:	c6 85 b3 f1 ff ff 09 	movb   $0x9,-0xe4d(%rbp)
    d906:	c7 85 b0 f4 ff ff 04 	movl   $0x4,-0xb50(%rbp)
    d90d:	00 00 00 
    d910:	c7 85 b4 f4 ff ff fc 	movl   $0xfffffffc,-0xb4c(%rbp)
    d917:	ff ff ff 
    d91a:	c7 85 b8 f4 ff ff fc 	movl   $0xfffffffc,-0xb48(%rbp)
    d921:	ff ff ff 
    d924:	c7 85 bc f4 ff ff 04 	movl   $0x4,-0xb44(%rbp)
    d92b:	00 00 00 
    d92e:	c7 85 c0 f4 ff ff 97 	movl   $0x18ac1c97,-0xb40(%rbp)
    d935:	1c ac 18 
    d938:	c7 85 c4 f4 ff ff fc 	movl   $0xfffffffc,-0xb3c(%rbp)
    d93f:	ff ff ff 
    d942:	c7 85 c8 f4 ff ff ff 	movl   $0xffffffff,-0xb38(%rbp)
    d949:	ff ff ff 
    d94c:	c7 85 cc f4 ff ff 04 	movl   $0x4,-0xb34(%rbp)
    d953:	00 00 00 
    d956:	c7 85 d0 f4 ff ff 04 	movl   $0x4,-0xb30(%rbp)
    d95d:	00 00 00 
    d960:	c7 85 d4 f4 ff ff fc 	movl   $0xfffffffc,-0xb2c(%rbp)
    d967:	ff ff ff 
    d96a:	c7 85 d8 f4 ff ff fc 	movl   $0xfffffffc,-0xb28(%rbp)
    d971:	ff ff ff 
    d974:	c7 85 dc f4 ff ff 04 	movl   $0x4,-0xb24(%rbp)
    d97b:	00 00 00 
    d97e:	c7 85 e0 f4 ff ff 97 	movl   $0x18ac1c97,-0xb20(%rbp)
    d985:	1c ac 18 
    d988:	c7 85 e4 f4 ff ff fc 	movl   $0xfffffffc,-0xb1c(%rbp)
    d98f:	ff ff ff 
    d992:	c7 85 e8 f4 ff ff ff 	movl   $0xffffffff,-0xb18(%rbp)
    d999:	ff ff ff 
    d99c:	c7 85 ec f4 ff ff 04 	movl   $0x4,-0xb14(%rbp)
    d9a3:	00 00 00 
    d9a6:	c7 85 f0 f4 ff ff 04 	movl   $0x4,-0xb10(%rbp)
    d9ad:	00 00 00 
    d9b0:	c7 85 f4 f4 ff ff fc 	movl   $0xfffffffc,-0xb0c(%rbp)
    d9b7:	ff ff ff 
    d9ba:	c7 85 f8 f4 ff ff fc 	movl   $0xfffffffc,-0xb08(%rbp)
    d9c1:	ff ff ff 
    d9c4:	c7 85 fc f4 ff ff 04 	movl   $0x4,-0xb04(%rbp)
    d9cb:	00 00 00 
    d9ce:	c7 85 00 f5 ff ff 97 	movl   $0x18ac1c97,-0xb00(%rbp)
    d9d5:	1c ac 18 
    d9d8:	c7 85 04 f5 ff ff fc 	movl   $0xfffffffc,-0xafc(%rbp)
    d9df:	ff ff ff 
    d9e2:	c7 85 08 f5 ff ff ff 	movl   $0xffffffff,-0xaf8(%rbp)
    d9e9:	ff ff ff 
    d9ec:	c7 85 0c f5 ff ff 04 	movl   $0x4,-0xaf4(%rbp)
    d9f3:	00 00 00 
    d9f6:	c7 85 10 f5 ff ff 04 	movl   $0x4,-0xaf0(%rbp)
    d9fd:	00 00 00 
    da00:	c7 85 14 f5 ff ff fc 	movl   $0xfffffffc,-0xaec(%rbp)
    da07:	ff ff ff 
    da0a:	c7 85 18 f5 ff ff fc 	movl   $0xfffffffc,-0xae8(%rbp)
    da11:	ff ff ff 
    da14:	c7 85 1c f5 ff ff 04 	movl   $0x4,-0xae4(%rbp)
    da1b:	00 00 00 
    da1e:	c7 85 20 f5 ff ff 97 	movl   $0x18ac1c97,-0xae0(%rbp)
    da25:	1c ac 18 
    da28:	c7 85 24 f5 ff ff fc 	movl   $0xfffffffc,-0xadc(%rbp)
    da2f:	ff ff ff 
    da32:	c7 85 28 f5 ff ff ff 	movl   $0xffffffff,-0xad8(%rbp)
    da39:	ff ff ff 
    da3c:	c7 85 2c f5 ff ff 04 	movl   $0x4,-0xad4(%rbp)
    da43:	00 00 00 
    da46:	c7 85 30 f5 ff ff 04 	movl   $0x4,-0xad0(%rbp)
    da4d:	00 00 00 
    da50:	c7 85 34 f5 ff ff fc 	movl   $0xfffffffc,-0xacc(%rbp)
    da57:	ff ff ff 
    da5a:	c7 85 38 f5 ff ff fc 	movl   $0xfffffffc,-0xac8(%rbp)
    da61:	ff ff ff 
    da64:	c7 85 3c f5 ff ff 04 	movl   $0x4,-0xac4(%rbp)
    da6b:	00 00 00 
    da6e:	48 c7 85 00 f4 ff ff 	movq   $0x0,-0xc00(%rbp)
    da75:	00 00 00 00 
    da79:	48 c7 85 08 f4 ff ff 	movq   $0x0,-0xbf8(%rbp)
    da80:	00 00 00 00 
    da84:	48 c7 85 10 f4 ff ff 	movq   $0x0,-0xbf0(%rbp)
    da8b:	00 00 00 00 
    da8f:	48 c7 85 18 f4 ff ff 	movq   $0x0,-0xbe8(%rbp)
    da96:	00 00 00 00 
    da9a:	48 c7 85 20 f4 ff ff 	movq   $0x0,-0xbe0(%rbp)
    daa1:	00 00 00 00 
    daa5:	48 c7 85 28 f4 ff ff 	movq   $0x0,-0xbd8(%rbp)
    daac:	00 00 00 00 
    dab0:	48 c7 85 30 f4 ff ff 	movq   $0x0,-0xbd0(%rbp)
    dab7:	00 00 00 00 
    dabb:	48 c7 85 38 f4 ff ff 	movq   $0x0,-0xbc8(%rbp)
    dac2:	00 00 00 00 
    dac6:	48 c7 85 40 f4 ff ff 	movq   $0x0,-0xbc0(%rbp)
    dacd:	00 00 00 00 
    dad1:	48 c7 85 48 f4 ff ff 	movq   $0x0,-0xbb8(%rbp)
    dad8:	00 00 00 00 
    dadc:	48 8d 05 c5 d3 01 00 	lea    0x1d3c5(%rip),%rax        # 2aea8 <g_614>
    dae3:	48 89 85 70 f2 ff ff 	mov    %rax,-0xd90(%rbp)
    daea:	48 8d 05 47 a3 01 00 	lea    0x1a347(%rip),%rax        # 27e38 <g_480>
    daf1:	48 89 85 38 f2 ff ff 	mov    %rax,-0xdc8(%rbp)
    daf8:	48 8d 85 38 f2 ff ff 	lea    -0xdc8(%rbp),%rax
    daff:	48 89 85 40 f2 ff ff 	mov    %rax,-0xdc0(%rbp)
    db06:	48 8d 85 40 f2 ff ff 	lea    -0xdc0(%rbp),%rax
    db0d:	48 89 85 78 f2 ff ff 	mov    %rax,-0xd88(%rbp)
    db14:	48 8d 85 b0 f4 ff ff 	lea    -0xb50(%rbp),%rax
    db1b:	48 83 c0 70          	add    $0x70,%rax
    db1f:	48 89 85 80 f2 ff ff 	mov    %rax,-0xd80(%rbp)
    db26:	c7 85 ec f1 ff ff e6 	movl   $0x9caee3e6,-0xe14(%rbp)
    db2d:	e3 ae 9c 
    db30:	c7 85 f0 f1 ff ff f8 	movl   $0x420b73f8,-0xe10(%rbp)
    db37:	73 0b 42 
    db3a:	c7 85 f4 f1 ff ff 00 	movl   $0x0,-0xe0c(%rbp)
    db41:	00 00 00 
    db44:	66 c7 85 bc f1 ff ff 	movw   $0x5dae,-0xe44(%rbp)
    db4b:	ae 5d 
    db4d:	48 c7 85 88 f2 ff ff 	movq   $0xfffffffffffffff6,-0xd78(%rbp)
    db54:	f6 ff ff ff 
    db58:	c7 85 f8 f1 ff ff fa 	movl   $0xb50ad1fa,-0xe08(%rbp)
    db5f:	d1 0a b5 
    db62:	c6 85 b4 f1 ff ff 02 	movb   $0x2,-0xe4c(%rbp)
    db69:	48 8d 05 50 b3 01 00 	lea    0x1b350(%rip),%rax        # 28ec0 <g_2808>
    db70:	48 89 85 48 f2 ff ff 	mov    %rax,-0xdb8(%rbp)
    db77:	c7 85 fc f1 ff ff 00 	movl   $0x0,-0xe04(%rbp)
    db7e:	00 00 00 
    db81:	c6 85 b5 f1 ff ff 01 	movb   $0x1,-0xe4b(%rbp)
    db88:	8b 9d cc f1 ff ff    	mov    -0xe34(%rbp),%ebx
    db8e:	8b 85 cc f1 ff ff    	mov    -0xe34(%rbp),%eax
    db94:	4c 63 e0             	movslq %eax,%r12
    db97:	0f b6 05 b7 84 01 00 	movzbl 0x184b7(%rip),%eax        # 26055 <g_11+0x15>
    db9e:	48 8b 05 9b 87 01 00 	mov    0x1879b(%rip),%rax        # 26340 <g_2768>
    dba5:	44 0f b7 e8          	movzwl %ax,%r13d
    dba9:	8b 85 cc f1 ff ff    	mov    -0xe34(%rbp),%eax
    dbaf:	89 85 ac f1 ff ff    	mov    %eax,-0xe54(%rbp)
    dbb5:	0f b6 05 44 86 01 00 	movzbl 0x18644(%rip),%eax        # 26200 <g_260>
    dbbc:	0f b6 c0             	movzbl %al,%eax
    dbbf:	89 85 a8 f1 ff ff    	mov    %eax,-0xe58(%rbp)
    dbc5:	8b 85 c4 f1 ff ff    	mov    -0xe3c(%rbp),%eax
    dbcb:	4c 63 f8             	movslq %eax,%r15
    dbce:	8b 85 c4 f1 ff ff    	mov    -0xe3c(%rbp),%eax
    dbd4:	4c 63 f0             	movslq %eax,%r14
    dbd7:	8b 85 c4 f1 ff ff    	mov    -0xe3c(%rbp),%eax
    dbdd:	8b 15 c1 84 01 00    	mov    0x184c1(%rip),%edx        # 260a4 <g_24+0x4>
    dbe3:	89 c6                	mov    %eax,%esi
    dbe5:	89 d7                	mov    %edx,%edi
    dbe7:	e8 f7 ac 00 00       	callq  188e3 <func_26>
    dbec:	48 85 c0             	test   %rax,%rax
    dbef:	75 0a                	jne    dbfb <func_1+0x446>
    dbf1:	8b 85 c4 f1 ff ff    	mov    -0xe3c(%rbp),%eax
    dbf7:	85 c0                	test   %eax,%eax
    dbf9:	74 07                	je     dc02 <func_1+0x44d>
    dbfb:	b8 01 00 00 00       	mov    $0x1,%eax
    dc00:	eb 05                	jmp    dc07 <func_1+0x452>
    dc02:	b8 00 00 00 00       	mov    $0x0,%eax
    dc07:	48 63 f0             	movslq %eax,%rsi
    dc0a:	8b 85 c4 f1 ff ff    	mov    -0xe3c(%rbp),%eax
    dc10:	f7 d0                	not    %eax
    dc12:	48 98                	cltq   
    dc14:	44 8b 85 a8 f1 ff ff 	mov    -0xe58(%rbp),%r8d
    dc1b:	4c 89 f9             	mov    %r15,%rcx
    dc1e:	4c 89 f2             	mov    %r14,%rdx
    dc21:	48 89 c7             	mov    %rax,%rdi
    dc24:	e8 8a 57 00 00       	callq  133b3 <func_18>
    dc29:	0f b6 15 25 84 01 00 	movzbl 0x18425(%rip),%edx        # 26055 <g_11+0x15>
    dc30:	0f be d2             	movsbl %dl,%edx
    dc33:	0f bf c8             	movswl %ax,%ecx
    dc36:	8b 85 c8 f1 ff ff    	mov    -0xe38(%rbp),%eax
    dc3c:	09 c8                	or     %ecx,%eax
    dc3e:	89 85 c8 f1 ff ff    	mov    %eax,-0xe38(%rbp)
    dc44:	8b 85 c8 f1 ff ff    	mov    -0xe38(%rbp),%eax
    dc4a:	39 c2                	cmp    %eax,%edx
    dc4c:	0f 9d c0             	setge  %al
    dc4f:	0f b6 d0             	movzbl %al,%edx
    dc52:	8b 85 c4 f1 ff ff    	mov    -0xe3c(%rbp),%eax
    dc58:	39 c2                	cmp    %eax,%edx
    dc5a:	8b b5 ac f1 ff ff    	mov    -0xe54(%rbp),%esi
    dc60:	bf 5c 97 8a 2c       	mov    $0x2c8a975c,%edi
    dc65:	e8 88 2a 00 00       	callq  106f2 <func_14>
    dc6a:	0f b7 c0             	movzwl %ax,%eax
    dc6d:	89 85 c4 f1 ff ff    	mov    %eax,-0xe3c(%rbp)
    dc73:	8b 85 c4 f1 ff ff    	mov    -0xe3c(%rbp),%eax
    dc79:	0f b7 c0             	movzwl %ax,%eax
    dc7c:	44 89 ee             	mov    %r13d,%esi
    dc7f:	89 c7                	mov    %eax,%edi
    dc81:	e8 d6 f0 ff ff       	callq  cd5c <safe_mod_func_uint16_t_u_u>
    dc86:	0f b6 c0             	movzbl %al,%eax
    dc89:	4c 89 e6             	mov    %r12,%rsi
    dc8c:	89 c7                	mov    %eax,%edi
    dc8e:	e8 6d 27 00 00       	callq  10400 <func_8>
    dc93:	be 01 00 00 00       	mov    $0x1,%esi
    dc98:	bf 00 00 00 00       	mov    $0x0,%edi
    dc9d:	e8 31 e7 ff ff       	callq  c3d3 <safe_sub_func_int16_t_s_s>
    dca2:	89 de                	mov    %ebx,%esi
    dca4:	bf 00 00 00 00       	mov    $0x0,%edi
    dca9:	e8 26 1c 00 00       	callq  f8d4 <func_3>
    dcae:	84 c0                	test   %al,%al
    dcb0:	0f 85 22 05 00 00    	jne    e1d8 <func_1+0xa23>
    dcb6:	48 b8 b4 11 c6 09 09 	movabs $0xe971b00909c611b4,%rax
    dcbd:	b0 71 e9 
    dcc0:	48 89 85 d8 f2 ff ff 	mov    %rax,-0xd28(%rbp)
    dcc7:	c7 85 0c f2 ff ff d4 	movl   $0x405878d4,-0xdf4(%rbp)
    dcce:	78 58 40 
    dcd1:	48 c7 85 e0 f2 ff ff 	movq   $0x0,-0xd20(%rbp)
    dcd8:	00 00 00 00 
    dcdc:	48 c7 85 e8 f2 ff ff 	movq   $0x0,-0xd18(%rbp)
    dce3:	00 00 00 00 
    dce7:	48 8d 05 b2 85 01 00 	lea    0x185b2(%rip),%rax        # 262a0 <g_548>
    dcee:	48 89 85 f0 f2 ff ff 	mov    %rax,-0xd10(%rbp)
    dcf5:	48 8d 05 d4 d1 01 00 	lea    0x1d1d4(%rip),%rax        # 2aed0 <g_1215>
    dcfc:	48 89 85 f8 f2 ff ff 	mov    %rax,-0xd08(%rbp)
    dd03:	48 8d 05 32 d2 01 00 	lea    0x1d232(%rip),%rax        # 2af3c <g_3543>
    dd0a:	48 89 85 58 f2 ff ff 	mov    %rax,-0xda8(%rbp)
    dd11:	48 8d 85 58 f2 ff ff 	lea    -0xda8(%rbp),%rax
    dd18:	48 89 85 00 f3 ff ff 	mov    %rax,-0xd00(%rbp)
    dd1f:	48 8d 05 14 86 01 00 	lea    0x18614(%rip),%rax        # 2633a <g_2498>
    dd26:	48 89 85 08 f3 ff ff 	mov    %rax,-0xcf8(%rbp)
    dd2d:	c6 85 b8 f1 ff ff ee 	movb   $0xee,-0xe48(%rbp)
    dd34:	48 c7 85 10 f3 ff ff 	movq   $0x0,-0xcf0(%rbp)
    dd3b:	00 00 00 00 
    dd3f:	48 c7 85 18 f3 ff ff 	movq   $0x0,-0xce8(%rbp)
    dd46:	00 00 00 00 
    dd4a:	48 c7 85 20 f3 ff ff 	movq   $0x0,-0xce0(%rbp)
    dd51:	00 00 00 00 
    dd55:	c7 85 10 f2 ff ff 01 	movl   $0x1,-0xdf0(%rbp)
    dd5c:	00 00 00 
    dd5f:	66 c7 85 ba f1 ff ff 	movw   $0xfffd,-0xe46(%rbp)
    dd66:	fd ff 
    dd68:	c7 85 14 f2 ff ff f6 	movl   $0xfffffff6,-0xdec(%rbp)
    dd6f:	ff ff ff 
    dd72:	c7 85 18 f2 ff ff f8 	movl   $0xfffffff8,-0xde8(%rbp)
    dd79:	ff ff ff 
    dd7c:	c7 85 1c f2 ff ff c5 	movl   $0x63490cc5,-0xde4(%rbp)
    dd83:	0c 49 63 
    dd86:	c7 85 00 f9 ff ff 00 	movl   $0x0,-0x700(%rbp)
    dd8d:	00 00 00 
    dd90:	c7 85 04 f9 ff ff 00 	movl   $0x0,-0x6fc(%rbp)
    dd97:	00 00 00 
    dd9a:	c7 85 08 f9 ff ff 00 	movl   $0x0,-0x6f8(%rbp)
    dda1:	00 00 00 
    dda4:	c7 85 0c f9 ff ff 00 	movl   $0x0,-0x6f4(%rbp)
    ddab:	00 00 00 
    ddae:	c7 85 10 f9 ff ff 00 	movl   $0x0,-0x6f0(%rbp)
    ddb5:	00 00 00 
    ddb8:	c7 85 14 f9 ff ff ff 	movl   $0xffffffff,-0x6ec(%rbp)
    ddbf:	ff ff ff 
    ddc2:	c7 85 18 f9 ff ff 36 	movl   $0x60299936,-0x6e8(%rbp)
    ddc9:	99 29 60 
    ddcc:	c7 85 1c f9 ff ff ff 	movl   $0xffffffff,-0x6e4(%rbp)
    ddd3:	ff ff ff 
    ddd6:	c7 85 20 f9 ff ff 36 	movl   $0x60299936,-0x6e0(%rbp)
    dddd:	99 29 60 
    dde0:	c7 85 24 f9 ff ff ff 	movl   $0xffffffff,-0x6dc(%rbp)
    dde7:	ff ff ff 
    ddea:	c7 85 28 f9 ff ff 00 	movl   $0x0,-0x6d8(%rbp)
    ddf1:	00 00 00 
    ddf4:	c7 85 2c f9 ff ff 00 	movl   $0x0,-0x6d4(%rbp)
    ddfb:	00 00 00 
    ddfe:	c7 85 30 f9 ff ff 00 	movl   $0x0,-0x6d0(%rbp)
    de05:	00 00 00 
    de08:	c7 85 34 f9 ff ff 00 	movl   $0x0,-0x6cc(%rbp)
    de0f:	00 00 00 
    de12:	c7 85 38 f9 ff ff 00 	movl   $0x0,-0x6c8(%rbp)
    de19:	00 00 00 
    de1c:	66 c7 85 c0 f1 ff ff 	movw   $0xf254,-0xe40(%rbp)
    de23:	54 f2 
    de25:	c7 85 20 f2 ff ff fb 	movl   $0xfffffffb,-0xde0(%rbp)
    de2c:	ff ff ff 
    de2f:	48 83 ad d8 f2 ff ff 	subq   $0x1,-0xd28(%rbp)
    de36:	01 
    de37:	48 8b 85 d8 f2 ff ff 	mov    -0xd28(%rbp),%rax
    de3e:	41 89 c5             	mov    %eax,%r13d
    de41:	48 8b 05 48 bc 01 00 	mov    0x1bc48(%rip),%rax        # 29a90 <g_3687>
    de48:	48 8b 00             	mov    (%rax),%rax
    de4b:	48 39 85 f8 f2 ff ff 	cmp    %rax,-0xd08(%rbp)
    de52:	0f 94 c0             	sete   %al
    de55:	44 0f b6 e0          	movzbl %al,%r12d
    de59:	48 8b 1d 00 84 01 00 	mov    0x18400(%rip),%rbx        # 26260 <g_525>
    de60:	48 8b 85 00 f3 ff ff 	mov    -0xd00(%rbp),%rax
    de67:	48 8d 15 ee 84 01 00 	lea    0x184ee(%rip),%rdx        # 2635c <g_2856>
    de6e:	48 89 10             	mov    %rdx,(%rax)
    de71:	0f b6 85 b2 f3 ff ff 	movzbl -0xc4e(%rbp),%eax
    de78:	f7 d0                	not    %eax
    de7a:	0f be c0             	movsbl %al,%eax
    de7d:	be 00 00 00 00       	mov    $0x0,%esi
    de82:	89 c7                	mov    %eax,%edi
    de84:	e8 18 e4 ff ff       	callq  c2a1 <safe_lshift_func_int8_t_s_s>
    de89:	48 0f be c0          	movsbq %al,%rax
    de8d:	48 21 d8             	and    %rbx,%rax
    de90:	49 89 c6             	mov    %rax,%r14
    de93:	48 8b 05 7e 9f 01 00 	mov    0x19f7e(%rip),%rax        # 27e18 <g_410>
    de9a:	0f b6 00             	movzbl (%rax),%eax
    de9d:	0f b6 d8             	movzbl %al,%ebx
    dea0:	48 8b 15 59 9f 01 00 	mov    0x19f59(%rip),%rdx        # 27e00 <g_87>
    dea7:	48 8b 05 52 9f 01 00 	mov    0x19f52(%rip),%rax        # 27e00 <g_87>
    deae:	0f b6 12             	movzbl (%rdx),%edx
    deb1:	88 10                	mov    %dl,(%rax)
    deb3:	0f b6 00             	movzbl (%rax),%eax
    deb6:	0f b6 c0             	movzbl %al,%eax
    deb9:	89 c7                	mov    %eax,%edi
    debb:	e8 85 ec ff ff       	callq  cb45 <safe_unary_minus_func_uint8_t_u>
    dec0:	84 c0                	test   %al,%al
    dec2:	0f 94 c0             	sete   %al
    dec5:	0f b6 c0             	movzbl %al,%eax
    dec8:	89 de                	mov    %ebx,%esi
    deca:	89 c7                	mov    %eax,%edi
    decc:	e8 c2 ec ff ff       	callq  cb93 <safe_mul_func_uint8_t_u_u>
    ded1:	0f b6 c0             	movzbl %al,%eax
    ded4:	be 4f 00 00 00       	mov    $0x4f,%esi
    ded9:	89 c7                	mov    %eax,%edi
    dedb:	e8 ce ec ff ff       	callq  cbae <safe_mod_func_uint8_t_u_u>
    dee0:	0f b6 c0             	movzbl %al,%eax
    dee3:	48 33 85 d8 f2 ff ff 	xor    -0xd28(%rbp),%rax
    deea:	49 39 c6             	cmp    %rax,%r14
    deed:	74 0b                	je     defa <func_1+0x745>
    deef:	0f b6 85 b2 f3 ff ff 	movzbl -0xc4e(%rbp),%eax
    def6:	84 c0                	test   %al,%al
    def8:	74 07                	je     df01 <func_1+0x74c>
    defa:	b8 01 00 00 00       	mov    $0x1,%eax
    deff:	eb 05                	jmp    df06 <func_1+0x751>
    df01:	b8 00 00 00 00       	mov    $0x0,%eax
    df06:	33 85 0c f2 ff ff    	xor    -0xdf4(%rbp),%eax
    df0c:	89 c6                	mov    %eax,%esi
    df0e:	bf 2a a3 c6 99       	mov    $0x99c6a32a,%edi
    df13:	e8 ed e6 ff ff       	callq  c605 <safe_sub_func_int32_t_s_s>
    df18:	0f b6 c0             	movzbl %al,%eax
    df1b:	be 08 00 00 00       	mov    $0x8,%esi
    df20:	89 c7                	mov    %eax,%edi
    df22:	e8 6c ec ff ff       	callq  cb93 <safe_mul_func_uint8_t_u_u>
    df27:	0f b6 c0             	movzbl %al,%eax
    df2a:	44 89 e2             	mov    %r12d,%edx
    df2d:	31 c2                	xor    %eax,%edx
    df2f:	0f be 85 b8 f1 ff ff 	movsbl -0xe48(%rbp),%eax
    df36:	09 d0                	or     %edx,%eax
    df38:	48 63 d0             	movslq %eax,%rdx
    df3b:	48 8b 85 f0 f2 ff ff 	mov    -0xd10(%rbp),%rax
    df42:	48 8b 08             	mov    (%rax),%rcx
    df45:	8b 85 0c f2 ff ff    	mov    -0xdf4(%rbp),%eax
    df4b:	48 98                	cltq   
    df4d:	48 21 c1             	and    %rax,%rcx
    df50:	48 8b 85 f0 f2 ff ff 	mov    -0xd10(%rbp),%rax
    df57:	48 89 08             	mov    %rcx,(%rax)
    df5a:	48 8b 85 f0 f2 ff ff 	mov    -0xd10(%rbp),%rax
    df61:	48 8b 00             	mov    (%rax),%rax
    df64:	48 89 d6             	mov    %rdx,%rsi
    df67:	48 89 c7             	mov    %rax,%rdi
    df6a:	e8 88 ea ff ff       	callq  c9f7 <safe_div_func_int64_t_s_s>
    df6f:	48 8b 1d ea aa 01 00 	mov    0x1aaea(%rip),%rbx        # 28a60 <g_994>
    df76:	44 89 ee             	mov    %r13d,%esi
    df79:	89 c7                	mov    %eax,%edi
    df7b:	e8 85 e6 ff ff       	callq  c605 <safe_sub_func_int32_t_s_s>
    df80:	89 03                	mov    %eax,(%rbx)
    df82:	48 8b 85 60 f2 ff ff 	mov    -0xda0(%rbp),%rax
    df89:	48 89 85 10 f3 ff ff 	mov    %rax,-0xcf0(%rbp)
    df90:	48 8d 15 71 9e 01 00 	lea    0x19e71(%rip),%rdx        # 27e08 <g_296>
    df97:	48 8b 85 10 f3 ff ff 	mov    -0xcf0(%rbp),%rax
    df9e:	48 89 02             	mov    %rax,(%rdx)
    dfa1:	c7 05 a1 82 01 00 0a 	movl   $0xa,0x182a1(%rip)        # 2624c <g_424>
    dfa8:	00 00 00 
    dfab:	e9 14 02 00 00       	jmpq   e1c4 <func_1+0xa0f>
    dfb0:	48 8d 85 cc f1 ff ff 	lea    -0xe34(%rbp),%rax
    dfb7:	48 89 85 28 f3 ff ff 	mov    %rax,-0xcd8(%rbp)
    dfbe:	48 8d 85 30 f2 ff ff 	lea    -0xdd0(%rbp),%rax
    dfc5:	48 89 85 30 f3 ff ff 	mov    %rax,-0xcd0(%rbp)
    dfcc:	c7 85 24 f2 ff ff 03 	movl   $0x3,-0xddc(%rbp)
    dfd3:	00 00 00 
    dfd6:	c6 85 b9 f1 ff ff 24 	movb   $0x24,-0xe47(%rbp)
    dfdd:	48 8d 05 64 82 01 00 	lea    0x18264(%rip),%rax        # 26248 <g_397>
    dfe4:	48 89 85 00 f7 ff ff 	mov    %rax,-0x900(%rbp)
    dfeb:	48 8d 05 56 82 01 00 	lea    0x18256(%rip),%rax        # 26248 <g_397>
    dff2:	48 89 85 08 f7 ff ff 	mov    %rax,-0x8f8(%rbp)
    dff9:	48 8d 05 48 82 01 00 	lea    0x18248(%rip),%rax        # 26248 <g_397>
    e000:	48 89 85 10 f7 ff ff 	mov    %rax,-0x8f0(%rbp)
    e007:	48 8d 05 3a 82 01 00 	lea    0x1823a(%rip),%rax        # 26248 <g_397>
    e00e:	48 89 85 18 f7 ff ff 	mov    %rax,-0x8e8(%rbp)
    e015:	48 8d 05 2c 82 01 00 	lea    0x1822c(%rip),%rax        # 26248 <g_397>
    e01c:	48 89 85 20 f7 ff ff 	mov    %rax,-0x8e0(%rbp)
    e023:	48 8d 05 1e 82 01 00 	lea    0x1821e(%rip),%rax        # 26248 <g_397>
    e02a:	48 89 85 28 f7 ff ff 	mov    %rax,-0x8d8(%rbp)
    e031:	48 b8 0c 7f ad 75 44 	movabs $0xec14624475ad7f0c,%rax
    e038:	62 14 ec 
    e03b:	48 89 85 38 f3 ff ff 	mov    %rax,-0xcc8(%rbp)
    e042:	c7 85 28 f2 ff ff 9b 	movl   $0xa44d0c9b,-0xdd8(%rbp)
    e049:	0c 4d a4 
    e04c:	48 8b 85 28 f3 ff ff 	mov    -0xcd8(%rbp),%rax
    e053:	48 89 85 60 f2 ff ff 	mov    %rax,-0xda0(%rbp)
    e05a:	48 8b 05 b7 9d 01 00 	mov    0x19db7(%rip),%rax        # 27e18 <g_410>
    e061:	0f b6 00             	movzbl (%rax),%eax
    e064:	0f be d8             	movsbl %al,%ebx
    e067:	48 8b 85 28 f3 ff ff 	mov    -0xcd8(%rbp),%rax
    e06e:	c7 00 a7 e2 71 5c    	movl   $0x5c71e2a7,(%rax)
    e074:	44 8b a5 10 f2 ff ff 	mov    -0xdf0(%rbp),%r12d
    e07b:	48 8b 95 30 f2 ff ff 	mov    -0xdd0(%rbp),%rdx
    e082:	48 8b 85 30 f3 ff ff 	mov    -0xcd0(%rbp),%rax
    e089:	48 89 10             	mov    %rdx,(%rax)
    e08c:	48 8b 85 30 f3 ff ff 	mov    -0xcd0(%rbp),%rax
    e093:	48 8b 00             	mov    (%rax),%rax
    e096:	48 85 c0             	test   %rax,%rax
    e099:	0f 95 c0             	setne  %al
    e09c:	44 0f b6 e8          	movzbl %al,%r13d
    e0a0:	48 83 bd 20 f3 ff ff 	cmpq   $0x0,-0xce0(%rbp)
    e0a7:	00 
    e0a8:	0f 94 c0             	sete   %al
    e0ab:	0f b6 c0             	movzbl %al,%eax
    e0ae:	be 05 00 00 00       	mov    $0x5,%esi
    e0b3:	89 c7                	mov    %eax,%edi
    e0b5:	e8 d3 eb ff ff       	callq  cc8d <safe_rshift_func_uint8_t_u_s>
    e0ba:	0f b6 d0             	movzbl %al,%edx
    e0bd:	0f b6 85 b2 f3 ff ff 	movzbl -0xc4e(%rbp),%eax
    e0c4:	0f be c0             	movsbl %al,%eax
    e0c7:	89 85 c8 f1 ff ff    	mov    %eax,-0xe38(%rbp)
    e0cd:	8b 85 c8 f1 ff ff    	mov    -0xe38(%rbp),%eax
    e0d3:	39 c2                	cmp    %eax,%edx
    e0d5:	0f 9f c2             	setg   %dl
    e0d8:	48 8b 85 00 f3 ff ff 	mov    -0xd00(%rbp),%rax
    e0df:	48 8b 00             	mov    (%rax),%rax
    e0e2:	0f b6 d2             	movzbl %dl,%edx
    e0e5:	66 89 10             	mov    %dx,(%rax)
    e0e8:	48 8b 05 81 a9 01 00 	mov    0x1a981(%rip),%rax        # 28a70 <g_1156>
    e0ef:	8b 00                	mov    (%rax),%eax
    e0f1:	48 83 bd 18 f3 ff ff 	cmpq   $0x1,-0xce8(%rbp)
    e0f8:	01 
    e0f9:	48 8b 85 d8 f2 ff ff 	mov    -0xd28(%rbp),%rax
    e100:	0f b6 d0             	movzbl %al,%edx
    e103:	48 8b 05 06 ac 01 00 	mov    0x1ac06(%rip),%rax        # 28d10 <g_2687>
    e10a:	0f b6 00             	movzbl (%rax),%eax
    e10d:	0f b6 c0             	movzbl %al,%eax
    e110:	89 d6                	mov    %edx,%esi
    e112:	89 c7                	mov    %eax,%edi
    e114:	e8 41 ea ff ff       	callq  cb5a <safe_add_func_uint8_t_u_u>
    e119:	0f b6 c0             	movzbl %al,%eax
    e11c:	41 39 c5             	cmp    %eax,%r13d
    e11f:	0f 9c c0             	setl   %al
    e122:	0f b6 c0             	movzbl %al,%eax
    e125:	44 89 e6             	mov    %r12d,%esi
    e128:	89 c7                	mov    %eax,%edi
    e12a:	e8 d6 e4 ff ff       	callq  c605 <safe_sub_func_int32_t_s_s>
    e12f:	89 c2                	mov    %eax,%edx
    e131:	8b 85 24 f2 ff ff    	mov    -0xddc(%rbp),%eax
    e137:	21 d0                	and    %edx,%eax
    e139:	98                   	cwtl   
    e13a:	be fc ff ff ff       	mov    $0xfffffffc,%esi
    e13f:	89 c7                	mov    %eax,%edi
    e141:	e8 6d e2 ff ff       	callq  c3b3 <safe_add_func_int16_t_s_s>
    e146:	be 07 00 00 00       	mov    $0x7,%esi
    e14b:	bf a0 e2 ff ff       	mov    $0xffffe2a0,%edi
    e150:	e8 a0 e2 ff ff       	callq  c3f5 <safe_mul_func_int16_t_s_s>
    e155:	8b 85 24 f2 ff ff    	mov    -0xddc(%rbp),%eax
    e15b:	83 c8 4c             	or     $0x4c,%eax
    e15e:	0f b6 c0             	movzbl %al,%eax
    e161:	89 de                	mov    %ebx,%esi
    e163:	89 c7                	mov    %eax,%edi
    e165:	e8 23 eb ff ff       	callq  cc8d <safe_rshift_func_uint8_t_u_s>
    e16a:	48 83 bd 68 f2 ff ff 	cmpq   $0x0,-0xd98(%rbp)
    e171:	00 
    e172:	0f 95 c0             	setne  %al
    e175:	0f b6 d0             	movzbl %al,%edx
    e178:	48 8b 05 81 9c 01 00 	mov    0x19c81(%rip),%rax        # 27e00 <g_87>
    e17f:	0f b6 00             	movzbl (%rax),%eax
    e182:	0f b6 c0             	movzbl %al,%eax
    e185:	39 c2                	cmp    %eax,%edx
    e187:	0f 94 c0             	sete   %al
    e18a:	0f b6 d0             	movzbl %al,%edx
    e18d:	0f be 85 b9 f1 ff ff 	movsbl -0xe47(%rbp),%eax
    e194:	39 c2                	cmp    %eax,%edx
    e196:	0f 9c c0             	setl   %al
    e199:	0f b6 c0             	movzbl %al,%eax
    e19c:	66 09 85 ba f1 ff ff 	or     %ax,-0xe46(%rbp)
    e1a3:	48 8b 05 ee 81 01 00 	mov    0x181ee(%rip),%rax        # 26398 <g_4247>
    e1aa:	48 83 c0 01          	add    $0x1,%rax
    e1ae:	48 89 05 e3 81 01 00 	mov    %rax,0x181e3(%rip)        # 26398 <g_4247>
    e1b5:	8b 05 91 80 01 00    	mov    0x18091(%rip),%eax        # 2624c <g_424>
    e1bb:	83 c0 01             	add    $0x1,%eax
    e1be:	89 05 88 80 01 00    	mov    %eax,0x18088(%rip)        # 2624c <g_424>
    e1c4:	8b 05 82 80 01 00    	mov    0x18082(%rip),%eax        # 2624c <g_424>
    e1ca:	83 f8 14             	cmp    $0x14,%eax
    e1cd:	0f 87 dd fd ff ff    	ja     dfb0 <func_1+0x7fb>
    e1d3:	e9 30 09 00 00       	jmpq   eb08 <func_1+0x1353>
    e1d8:	c6 85 b6 f1 ff ff 00 	movb   $0x0,-0xe4a(%rbp)
    e1df:	c7 85 d0 f1 ff ff ac 	movl   $0xe8a5c4ac,-0xe30(%rbp)
    e1e6:	c4 a5 e8 
    e1e9:	c7 85 00 f2 ff ff ff 	movl   $0xffffffff,-0xe00(%rbp)
    e1f0:	ff ff ff 
    e1f3:	c7 85 04 f2 ff ff fb 	movl   $0xfffffffb,-0xdfc(%rbp)
    e1fa:	ff ff ff 
    e1fd:	48 8d 85 00 f9 ff ff 	lea    -0x700(%rbp),%rax
    e204:	48 8d 15 95 20 01 00 	lea    0x12095(%rip),%rdx        # 202a0 <g_2708+0x18>
    e20b:	b9 7e 00 00 00       	mov    $0x7e,%ecx
    e210:	48 89 c7             	mov    %rax,%rdi
    e213:	48 89 d6             	mov    %rdx,%rsi
    e216:	f3 48 a5             	rep movsq %ds:(%rsi),%es:(%rdi)
    e219:	c6 85 b7 f1 ff ff fe 	movb   $0xfe,-0xe49(%rbp)
    e220:	c7 85 d4 f1 ff ff f6 	movl   $0xfffffff6,-0xe2c(%rbp)
    e227:	ff ff ff 
    e22a:	66 c7 85 be f1 ff ff 	movw   $0xffff,-0xe42(%rbp)
    e231:	ff ff 
    e233:	48 8d 05 6e cc 01 00 	lea    0x1cc6e(%rip),%rax        # 2aea8 <g_614>
    e23a:	48 89 85 90 f2 ff ff 	mov    %rax,-0xd70(%rbp)
    e241:	48 b8 73 52 28 80 05 	movabs $0xb1e1e90580285273,%rax
    e248:	e9 e1 b1 
    e24b:	48 89 85 98 f2 ff ff 	mov    %rax,-0xd68(%rbp)
    e252:	48 8d 05 a7 7f 01 00 	lea    0x17fa7(%rip),%rax        # 26200 <g_260>
    e259:	48 89 85 a0 f2 ff ff 	mov    %rax,-0xd60(%rbp)
    e260:	48 c7 85 50 f2 ff ff 	movq   $0x0,-0xdb0(%rbp)
    e267:	00 00 00 00 
    e26b:	48 8d 85 50 f2 ff ff 	lea    -0xdb0(%rbp),%rax
    e272:	48 89 85 58 f2 ff ff 	mov    %rax,-0xda8(%rbp)
    e279:	48 8d 85 58 f2 ff ff 	lea    -0xda8(%rbp),%rax
    e280:	48 89 85 20 f6 ff ff 	mov    %rax,-0x9e0(%rbp)
    e287:	48 8d 85 58 f2 ff ff 	lea    -0xda8(%rbp),%rax
    e28e:	48 89 85 28 f6 ff ff 	mov    %rax,-0x9d8(%rbp)
    e295:	48 8d 85 58 f2 ff ff 	lea    -0xda8(%rbp),%rax
    e29c:	48 89 85 30 f6 ff ff 	mov    %rax,-0x9d0(%rbp)
    e2a3:	48 8d 85 58 f2 ff ff 	lea    -0xda8(%rbp),%rax
    e2aa:	48 89 85 38 f6 ff ff 	mov    %rax,-0x9c8(%rbp)
    e2b1:	48 8d 85 58 f2 ff ff 	lea    -0xda8(%rbp),%rax
    e2b8:	48 89 85 40 f6 ff ff 	mov    %rax,-0x9c0(%rbp)
    e2bf:	48 8d 85 58 f2 ff ff 	lea    -0xda8(%rbp),%rax
    e2c6:	48 89 85 48 f6 ff ff 	mov    %rax,-0x9b8(%rbp)
    e2cd:	48 8d 85 58 f2 ff ff 	lea    -0xda8(%rbp),%rax
    e2d4:	48 89 85 50 f6 ff ff 	mov    %rax,-0x9b0(%rbp)
    e2db:	48 8d 85 58 f2 ff ff 	lea    -0xda8(%rbp),%rax
    e2e2:	48 89 85 58 f6 ff ff 	mov    %rax,-0x9a8(%rbp)
    e2e9:	48 8d 85 58 f2 ff ff 	lea    -0xda8(%rbp),%rax
    e2f0:	48 89 85 60 f6 ff ff 	mov    %rax,-0x9a0(%rbp)
    e2f7:	48 8d 85 58 f2 ff ff 	lea    -0xda8(%rbp),%rax
    e2fe:	48 89 85 68 f6 ff ff 	mov    %rax,-0x998(%rbp)
    e305:	48 8d 85 58 f2 ff ff 	lea    -0xda8(%rbp),%rax
    e30c:	48 89 85 70 f6 ff ff 	mov    %rax,-0x990(%rbp)
    e313:	48 8d 85 58 f2 ff ff 	lea    -0xda8(%rbp),%rax
    e31a:	48 89 85 78 f6 ff ff 	mov    %rax,-0x988(%rbp)
    e321:	48 8d 85 58 f2 ff ff 	lea    -0xda8(%rbp),%rax
    e328:	48 89 85 80 f6 ff ff 	mov    %rax,-0x980(%rbp)
    e32f:	48 8d 85 58 f2 ff ff 	lea    -0xda8(%rbp),%rax
    e336:	48 89 85 88 f6 ff ff 	mov    %rax,-0x978(%rbp)
    e33d:	48 8d 85 58 f2 ff ff 	lea    -0xda8(%rbp),%rax
    e344:	48 89 85 90 f6 ff ff 	mov    %rax,-0x970(%rbp)
    e34b:	48 8d 85 58 f2 ff ff 	lea    -0xda8(%rbp),%rax
    e352:	48 89 85 98 f6 ff ff 	mov    %rax,-0x968(%rbp)
    e359:	48 8d 85 58 f2 ff ff 	lea    -0xda8(%rbp),%rax
    e360:	48 89 85 a0 f6 ff ff 	mov    %rax,-0x960(%rbp)
    e367:	48 8d 85 58 f2 ff ff 	lea    -0xda8(%rbp),%rax
    e36e:	48 89 85 a8 f6 ff ff 	mov    %rax,-0x958(%rbp)
    e375:	48 8d 85 58 f2 ff ff 	lea    -0xda8(%rbp),%rax
    e37c:	48 89 85 b0 f6 ff ff 	mov    %rax,-0x950(%rbp)
    e383:	48 8d 85 58 f2 ff ff 	lea    -0xda8(%rbp),%rax
    e38a:	48 89 85 b8 f6 ff ff 	mov    %rax,-0x948(%rbp)
    e391:	48 8d 85 58 f2 ff ff 	lea    -0xda8(%rbp),%rax
    e398:	48 89 85 c0 f6 ff ff 	mov    %rax,-0x940(%rbp)
    e39f:	48 8d 85 58 f2 ff ff 	lea    -0xda8(%rbp),%rax
    e3a6:	48 89 85 c8 f6 ff ff 	mov    %rax,-0x938(%rbp)
    e3ad:	48 8d 85 58 f2 ff ff 	lea    -0xda8(%rbp),%rax
    e3b4:	48 89 85 d0 f6 ff ff 	mov    %rax,-0x930(%rbp)
    e3bb:	48 8d 85 58 f2 ff ff 	lea    -0xda8(%rbp),%rax
    e3c2:	48 89 85 d8 f6 ff ff 	mov    %rax,-0x928(%rbp)
    e3c9:	48 8d 85 58 f2 ff ff 	lea    -0xda8(%rbp),%rax
    e3d0:	48 89 85 e0 f6 ff ff 	mov    %rax,-0x920(%rbp)
    e3d7:	48 8d 85 58 f2 ff ff 	lea    -0xda8(%rbp),%rax
    e3de:	48 89 85 e8 f6 ff ff 	mov    %rax,-0x918(%rbp)
    e3e5:	48 8d 85 58 f2 ff ff 	lea    -0xda8(%rbp),%rax
    e3ec:	48 89 85 f0 f6 ff ff 	mov    %rax,-0x910(%rbp)
    e3f3:	48 8d 85 58 f2 ff ff 	lea    -0xda8(%rbp),%rax
    e3fa:	48 89 85 f8 f6 ff ff 	mov    %rax,-0x908(%rbp)
    e401:	48 c7 85 a8 f2 ff ff 	movq   $0x1,-0xd58(%rbp)
    e408:	01 00 00 00 
    e40c:	48 c7 85 00 f7 ff ff 	movq   $0x0,-0x900(%rbp)
    e413:	00 00 00 00 
    e417:	48 8d 85 00 f4 ff ff 	lea    -0xc00(%rbp),%rax
    e41e:	48 83 c0 30          	add    $0x30,%rax
    e422:	48 89 85 08 f7 ff ff 	mov    %rax,-0x8f8(%rbp)
    e429:	48 8d 85 00 f4 ff ff 	lea    -0xc00(%rbp),%rax
    e430:	48 83 c0 30          	add    $0x30,%rax
    e434:	48 89 85 10 f7 ff ff 	mov    %rax,-0x8f0(%rbp)
    e43b:	48 8d 85 00 f4 ff ff 	lea    -0xc00(%rbp),%rax
    e442:	48 83 c0 30          	add    $0x30,%rax
    e446:	48 89 85 18 f7 ff ff 	mov    %rax,-0x8e8(%rbp)
    e44d:	48 8d 85 00 f4 ff ff 	lea    -0xc00(%rbp),%rax
    e454:	48 83 c0 30          	add    $0x30,%rax
    e458:	48 89 85 20 f7 ff ff 	mov    %rax,-0x8e0(%rbp)
    e45f:	48 8d 85 00 f4 ff ff 	lea    -0xc00(%rbp),%rax
    e466:	48 83 c0 28          	add    $0x28,%rax
    e46a:	48 89 85 28 f7 ff ff 	mov    %rax,-0x8d8(%rbp)
    e471:	48 8d 85 00 f4 ff ff 	lea    -0xc00(%rbp),%rax
    e478:	48 83 c0 30          	add    $0x30,%rax
    e47c:	48 89 85 30 f7 ff ff 	mov    %rax,-0x8d0(%rbp)
    e483:	48 8d 85 00 f4 ff ff 	lea    -0xc00(%rbp),%rax
    e48a:	48 83 c0 28          	add    $0x28,%rax
    e48e:	48 89 85 38 f7 ff ff 	mov    %rax,-0x8c8(%rbp)
    e495:	48 8d 85 00 f4 ff ff 	lea    -0xc00(%rbp),%rax
    e49c:	48 83 c0 30          	add    $0x30,%rax
    e4a0:	48 89 85 40 f7 ff ff 	mov    %rax,-0x8c0(%rbp)
    e4a7:	48 c7 85 48 f7 ff ff 	movq   $0x0,-0x8b8(%rbp)
    e4ae:	00 00 00 00 
    e4b2:	48 8d 05 57 a6 01 00 	lea    0x1a657(%rip),%rax        # 28b10 <g_1561>
    e4b9:	48 89 85 50 f7 ff ff 	mov    %rax,-0x8b0(%rbp)
    e4c0:	48 8d 05 49 a6 01 00 	lea    0x1a649(%rip),%rax        # 28b10 <g_1561>
    e4c7:	48 89 85 58 f7 ff ff 	mov    %rax,-0x8a8(%rbp)
    e4ce:	48 c7 85 60 f7 ff ff 	movq   $0x0,-0x8a0(%rbp)
    e4d5:	00 00 00 00 
    e4d9:	48 c7 85 68 f7 ff ff 	movq   $0x0,-0x898(%rbp)
    e4e0:	00 00 00 00 
    e4e4:	48 8d 85 00 f4 ff ff 	lea    -0xc00(%rbp),%rax
    e4eb:	48 83 c0 30          	add    $0x30,%rax
    e4ef:	48 89 85 70 f7 ff ff 	mov    %rax,-0x890(%rbp)
    e4f6:	48 8d 05 13 a6 01 00 	lea    0x1a613(%rip),%rax        # 28b10 <g_1561>
    e4fd:	48 89 85 78 f7 ff ff 	mov    %rax,-0x888(%rbp)
    e504:	48 8d 85 00 f4 ff ff 	lea    -0xc00(%rbp),%rax
    e50b:	48 83 c0 28          	add    $0x28,%rax
    e50f:	48 89 85 80 f7 ff ff 	mov    %rax,-0x880(%rbp)
    e516:	48 8d 05 f3 a5 01 00 	lea    0x1a5f3(%rip),%rax        # 28b10 <g_1561>
    e51d:	48 89 85 88 f7 ff ff 	mov    %rax,-0x878(%rbp)
    e524:	48 8d 05 e5 a5 01 00 	lea    0x1a5e5(%rip),%rax        # 28b10 <g_1561>
    e52b:	48 89 85 90 f7 ff ff 	mov    %rax,-0x870(%rbp)
    e532:	48 c7 85 98 f7 ff ff 	movq   $0x0,-0x868(%rbp)
    e539:	00 00 00 00 
    e53d:	48 8d 85 00 f4 ff ff 	lea    -0xc00(%rbp),%rax
    e544:	48 83 c0 20          	add    $0x20,%rax
    e548:	48 89 85 a0 f7 ff ff 	mov    %rax,-0x860(%rbp)
    e54f:	48 8d 85 00 f4 ff ff 	lea    -0xc00(%rbp),%rax
    e556:	48 83 c0 18          	add    $0x18,%rax
    e55a:	48 89 85 a8 f7 ff ff 	mov    %rax,-0x858(%rbp)
    e561:	48 c7 85 b0 f7 ff ff 	movq   $0x0,-0x850(%rbp)
    e568:	00 00 00 00 
    e56c:	48 8d 85 00 f4 ff ff 	lea    -0xc00(%rbp),%rax
    e573:	48 83 c0 30          	add    $0x30,%rax
    e577:	48 89 85 b8 f7 ff ff 	mov    %rax,-0x848(%rbp)
    e57e:	48 8d 85 00 f4 ff ff 	lea    -0xc00(%rbp),%rax
    e585:	48 83 c0 30          	add    $0x30,%rax
    e589:	48 89 85 c0 f7 ff ff 	mov    %rax,-0x840(%rbp)
    e590:	48 c7 85 c8 f7 ff ff 	movq   $0x0,-0x838(%rbp)
    e597:	00 00 00 00 
    e59b:	48 c7 85 d0 f7 ff ff 	movq   $0x0,-0x830(%rbp)
    e5a2:	00 00 00 00 
    e5a6:	48 8d 85 00 f4 ff ff 	lea    -0xc00(%rbp),%rax
    e5ad:	48 83 c0 30          	add    $0x30,%rax
    e5b1:	48 89 85 d8 f7 ff ff 	mov    %rax,-0x828(%rbp)
    e5b8:	48 8d 85 00 f4 ff ff 	lea    -0xc00(%rbp),%rax
    e5bf:	48 83 c0 28          	add    $0x28,%rax
    e5c3:	48 89 85 e0 f7 ff ff 	mov    %rax,-0x820(%rbp)
    e5ca:	48 c7 85 e8 f7 ff ff 	movq   $0x0,-0x818(%rbp)
    e5d1:	00 00 00 00 
    e5d5:	48 8d 85 00 f4 ff ff 	lea    -0xc00(%rbp),%rax
    e5dc:	48 83 c0 18          	add    $0x18,%rax
    e5e0:	48 89 85 f0 f7 ff ff 	mov    %rax,-0x810(%rbp)
    e5e7:	48 c7 85 f8 f7 ff ff 	movq   $0x0,-0x808(%rbp)
    e5ee:	00 00 00 00 
    e5f2:	48 8d 85 00 f4 ff ff 	lea    -0xc00(%rbp),%rax
    e5f9:	48 83 c0 28          	add    $0x28,%rax
    e5fd:	48 89 85 00 f8 ff ff 	mov    %rax,-0x800(%rbp)
    e604:	48 8d 85 00 f4 ff ff 	lea    -0xc00(%rbp),%rax
    e60b:	48 83 c0 30          	add    $0x30,%rax
    e60f:	48 89 85 08 f8 ff ff 	mov    %rax,-0x7f8(%rbp)
    e616:	48 8d 05 f3 a4 01 00 	lea    0x1a4f3(%rip),%rax        # 28b10 <g_1561>
    e61d:	48 89 85 10 f8 ff ff 	mov    %rax,-0x7f0(%rbp)
    e624:	48 8d 85 00 f4 ff ff 	lea    -0xc00(%rbp),%rax
    e62b:	48 83 c0 28          	add    $0x28,%rax
    e62f:	48 89 85 18 f8 ff ff 	mov    %rax,-0x7e8(%rbp)
    e636:	48 8d 85 00 f4 ff ff 	lea    -0xc00(%rbp),%rax
    e63d:	48 83 c0 18          	add    $0x18,%rax
    e641:	48 89 85 20 f8 ff ff 	mov    %rax,-0x7e0(%rbp)
    e648:	48 8d 85 00 f4 ff ff 	lea    -0xc00(%rbp),%rax
    e64f:	48 83 c0 28          	add    $0x28,%rax
    e653:	48 89 85 28 f8 ff ff 	mov    %rax,-0x7d8(%rbp)
    e65a:	48 8d 85 00 f4 ff ff 	lea    -0xc00(%rbp),%rax
    e661:	48 83 c0 20          	add    $0x20,%rax
    e665:	48 89 85 30 f8 ff ff 	mov    %rax,-0x7d0(%rbp)
    e66c:	48 c7 85 38 f8 ff ff 	movq   $0x0,-0x7c8(%rbp)
    e673:	00 00 00 00 
    e677:	48 8d 85 00 f4 ff ff 	lea    -0xc00(%rbp),%rax
    e67e:	48 83 c0 30          	add    $0x30,%rax
    e682:	48 89 85 40 f8 ff ff 	mov    %rax,-0x7c0(%rbp)
    e689:	48 8d 85 00 f4 ff ff 	lea    -0xc00(%rbp),%rax
    e690:	48 83 c0 30          	add    $0x30,%rax
    e694:	48 89 85 48 f8 ff ff 	mov    %rax,-0x7b8(%rbp)
    e69b:	48 8d 85 00 f4 ff ff 	lea    -0xc00(%rbp),%rax
    e6a2:	48 83 c0 30          	add    $0x30,%rax
    e6a6:	48 89 85 50 f8 ff ff 	mov    %rax,-0x7b0(%rbp)
    e6ad:	48 8d 85 00 f4 ff ff 	lea    -0xc00(%rbp),%rax
    e6b4:	48 83 c0 30          	add    $0x30,%rax
    e6b8:	48 89 85 58 f8 ff ff 	mov    %rax,-0x7a8(%rbp)
    e6bf:	48 8d 85 00 f4 ff ff 	lea    -0xc00(%rbp),%rax
    e6c6:	48 83 c0 28          	add    $0x28,%rax
    e6ca:	48 89 85 60 f8 ff ff 	mov    %rax,-0x7a0(%rbp)
    e6d1:	48 8d 85 00 f4 ff ff 	lea    -0xc00(%rbp),%rax
    e6d8:	48 83 c0 30          	add    $0x30,%rax
    e6dc:	48 89 85 68 f8 ff ff 	mov    %rax,-0x798(%rbp)
    e6e3:	48 c7 85 70 f8 ff ff 	movq   $0x0,-0x790(%rbp)
    e6ea:	00 00 00 00 
    e6ee:	48 8d 05 1b a4 01 00 	lea    0x1a41b(%rip),%rax        # 28b10 <g_1561>
    e6f5:	48 89 85 78 f8 ff ff 	mov    %rax,-0x788(%rbp)
    e6fc:	48 8d 85 00 f4 ff ff 	lea    -0xc00(%rbp),%rax
    e703:	48 83 c0 30          	add    $0x30,%rax
    e707:	48 89 85 80 f8 ff ff 	mov    %rax,-0x780(%rbp)
    e70e:	48 8d 85 00 f4 ff ff 	lea    -0xc00(%rbp),%rax
    e715:	48 83 c0 20          	add    $0x20,%rax
    e719:	48 89 85 88 f8 ff ff 	mov    %rax,-0x778(%rbp)
    e720:	48 8d 85 00 f4 ff ff 	lea    -0xc00(%rbp),%rax
    e727:	48 83 c0 20          	add    $0x20,%rax
    e72b:	48 89 85 90 f8 ff ff 	mov    %rax,-0x770(%rbp)
    e732:	48 8d 85 00 f4 ff ff 	lea    -0xc00(%rbp),%rax
    e739:	48 83 c0 30          	add    $0x30,%rax
    e73d:	48 89 85 98 f8 ff ff 	mov    %rax,-0x768(%rbp)
    e744:	48 8d 05 c5 a3 01 00 	lea    0x1a3c5(%rip),%rax        # 28b10 <g_1561>
    e74b:	48 89 85 a0 f8 ff ff 	mov    %rax,-0x760(%rbp)
    e752:	48 c7 85 a8 f8 ff ff 	movq   $0x0,-0x758(%rbp)
    e759:	00 00 00 00 
    e75d:	48 8d 05 ac a3 01 00 	lea    0x1a3ac(%rip),%rax        # 28b10 <g_1561>
    e764:	48 89 85 b0 f8 ff ff 	mov    %rax,-0x750(%rbp)
    e76b:	48 8d 05 9e a3 01 00 	lea    0x1a39e(%rip),%rax        # 28b10 <g_1561>
    e772:	48 89 85 b8 f8 ff ff 	mov    %rax,-0x748(%rbp)
    e779:	48 8d 85 00 f4 ff ff 	lea    -0xc00(%rbp),%rax
    e780:	48 83 c0 30          	add    $0x30,%rax
    e784:	48 89 85 c0 f8 ff ff 	mov    %rax,-0x740(%rbp)
    e78b:	48 8d 85 00 f4 ff ff 	lea    -0xc00(%rbp),%rax
    e792:	48 83 c0 30          	add    $0x30,%rax
    e796:	48 89 85 c8 f8 ff ff 	mov    %rax,-0x738(%rbp)
    e79d:	48 8d 85 00 f4 ff ff 	lea    -0xc00(%rbp),%rax
    e7a4:	48 83 c0 20          	add    $0x20,%rax
    e7a8:	48 89 85 d0 f8 ff ff 	mov    %rax,-0x730(%rbp)
    e7af:	48 8d 85 00 f4 ff ff 	lea    -0xc00(%rbp),%rax
    e7b6:	48 83 c0 30          	add    $0x30,%rax
    e7ba:	48 89 85 d8 f8 ff ff 	mov    %rax,-0x728(%rbp)
    e7c1:	48 8d 85 00 f4 ff ff 	lea    -0xc00(%rbp),%rax
    e7c8:	48 83 c0 30          	add    $0x30,%rax
    e7cc:	48 89 85 e0 f8 ff ff 	mov    %rax,-0x720(%rbp)
    e7d3:	48 c7 85 e8 f8 ff ff 	movq   $0x0,-0x718(%rbp)
    e7da:	00 00 00 00 
    e7de:	48 8d 05 2b a3 01 00 	lea    0x1a32b(%rip),%rax        # 28b10 <g_1561>
    e7e5:	48 89 85 f0 f8 ff ff 	mov    %rax,-0x710(%rbp)
    e7ec:	c7 85 08 f2 ff ff 23 	movl   $0x5d316223,-0xdf8(%rbp)
    e7f3:	62 31 5d 
    e7f6:	48 8d 05 9b 9a 01 00 	lea    0x19a9b(%rip),%rax        # 28298 <g_544+0x18>
    e7fd:	48 89 85 40 f5 ff ff 	mov    %rax,-0xac0(%rbp)
    e804:	48 8d 05 8d 9a 01 00 	lea    0x19a8d(%rip),%rax        # 28298 <g_544+0x18>
    e80b:	48 89 85 48 f5 ff ff 	mov    %rax,-0xab8(%rbp)
    e812:	48 8d 05 7f 9a 01 00 	lea    0x19a7f(%rip),%rax        # 28298 <g_544+0x18>
    e819:	48 89 85 50 f5 ff ff 	mov    %rax,-0xab0(%rbp)
    e820:	48 c7 85 58 f5 ff ff 	movq   $0x0,-0xaa8(%rbp)
    e827:	00 00 00 00 
    e82b:	48 8d 05 76 9a 01 00 	lea    0x19a76(%rip),%rax        # 282a8 <g_544+0x28>
    e832:	48 89 85 60 f5 ff ff 	mov    %rax,-0xaa0(%rbp)
    e839:	48 c7 85 68 f5 ff ff 	movq   $0x0,-0xa98(%rbp)
    e840:	00 00 00 00 
    e844:	48 c7 85 70 f5 ff ff 	movq   $0x0,-0xa90(%rbp)
    e84b:	00 00 00 00 
    e84f:	48 8d 05 42 9a 01 00 	lea    0x19a42(%rip),%rax        # 28298 <g_544+0x18>
    e856:	48 89 85 78 f5 ff ff 	mov    %rax,-0xa88(%rbp)
    e85d:	48 8d 05 44 9a 01 00 	lea    0x19a44(%rip),%rax        # 282a8 <g_544+0x28>
    e864:	48 89 85 80 f5 ff ff 	mov    %rax,-0xa80(%rbp)
    e86b:	48 8d 05 26 9a 01 00 	lea    0x19a26(%rip),%rax        # 28298 <g_544+0x18>
    e872:	48 89 85 88 f5 ff ff 	mov    %rax,-0xa78(%rbp)
    e879:	48 c7 85 90 f5 ff ff 	movq   $0x0,-0xa70(%rbp)
    e880:	00 00 00 00 
    e884:	48 c7 85 98 f5 ff ff 	movq   $0x0,-0xa68(%rbp)
    e88b:	00 00 00 00 
    e88f:	48 8d 05 12 9a 01 00 	lea    0x19a12(%rip),%rax        # 282a8 <g_544+0x28>
    e896:	48 89 85 a0 f5 ff ff 	mov    %rax,-0xa60(%rbp)
    e89d:	48 c7 85 a8 f5 ff ff 	movq   $0x0,-0xa58(%rbp)
    e8a4:	00 00 00 00 
    e8a8:	48 8d 05 e9 99 01 00 	lea    0x199e9(%rip),%rax        # 28298 <g_544+0x18>
    e8af:	48 89 85 b0 f5 ff ff 	mov    %rax,-0xa50(%rbp)
    e8b6:	48 8d 05 db 99 01 00 	lea    0x199db(%rip),%rax        # 28298 <g_544+0x18>
    e8bd:	48 89 85 b8 f5 ff ff 	mov    %rax,-0xa48(%rbp)
    e8c4:	48 8d 05 cd 99 01 00 	lea    0x199cd(%rip),%rax        # 28298 <g_544+0x18>
    e8cb:	48 89 85 c0 f5 ff ff 	mov    %rax,-0xa40(%rbp)
    e8d2:	48 c7 85 c8 f5 ff ff 	movq   $0x0,-0xa38(%rbp)
    e8d9:	00 00 00 00 
    e8dd:	48 8d 05 b4 99 01 00 	lea    0x199b4(%rip),%rax        # 28298 <g_544+0x18>
    e8e4:	48 89 85 d0 f5 ff ff 	mov    %rax,-0xa30(%rbp)
    e8eb:	48 8d 05 a6 99 01 00 	lea    0x199a6(%rip),%rax        # 28298 <g_544+0x18>
    e8f2:	48 89 85 d8 f5 ff ff 	mov    %rax,-0xa28(%rbp)
    e8f9:	48 8d 05 a8 99 01 00 	lea    0x199a8(%rip),%rax        # 282a8 <g_544+0x28>
    e900:	48 89 85 e0 f5 ff ff 	mov    %rax,-0xa20(%rbp)
    e907:	48 c7 85 e8 f5 ff ff 	movq   $0x0,-0xa18(%rbp)
    e90e:	00 00 00 00 
    e912:	48 8d 05 7f 99 01 00 	lea    0x1997f(%rip),%rax        # 28298 <g_544+0x18>
    e919:	48 89 85 f0 f5 ff ff 	mov    %rax,-0xa10(%rbp)
    e920:	48 c7 85 f8 f5 ff ff 	movq   $0x0,-0xa08(%rbp)
    e927:	00 00 00 00 
    e92b:	48 8d 05 66 99 01 00 	lea    0x19966(%rip),%rax        # 28298 <g_544+0x18>
    e932:	48 89 85 00 f6 ff ff 	mov    %rax,-0xa00(%rbp)
    e939:	48 8d 05 58 99 01 00 	lea    0x19958(%rip),%rax        # 28298 <g_544+0x18>
    e940:	48 89 85 08 f6 ff ff 	mov    %rax,-0x9f8(%rbp)
    e947:	48 8d 05 4a 99 01 00 	lea    0x1994a(%rip),%rax        # 28298 <g_544+0x18>
    e94e:	48 89 85 10 f6 ff ff 	mov    %rax,-0x9f0(%rbp)
    e955:	c7 85 d8 f1 ff ff 00 	movl   $0x0,-0xe28(%rbp)
    e95c:	00 00 00 
    e95f:	eb 56                	jmp    e9b7 <func_1+0x1202>
    e961:	c7 85 dc f1 ff ff 00 	movl   $0x0,-0xe24(%rbp)
    e968:	00 00 00 
    e96b:	eb 3a                	jmp    e9a7 <func_1+0x11f2>
    e96d:	8b 85 dc f1 ff ff    	mov    -0xe24(%rbp),%eax
    e973:	48 63 c8             	movslq %eax,%rcx
    e976:	8b 85 d8 f1 ff ff    	mov    -0xe28(%rbp),%eax
    e97c:	48 63 d0             	movslq %eax,%rdx
    e97f:	48 89 d0             	mov    %rdx,%rax
    e982:	48 01 c0             	add    %rax,%rax
    e985:	48 01 d0             	add    %rdx,%rax
    e988:	48 01 c0             	add    %rax,%rax
    e98b:	48 01 c8             	add    %rcx,%rax
    e98e:	48 bb 9c 19 c0 eb 01 	movabs $0x90cd6001ebc0199c,%rbx
    e995:	60 cd 90 
    e998:	48 89 9c c5 50 f4 ff 	mov    %rbx,-0xbb0(%rbp,%rax,8)
    e99f:	ff 
    e9a0:	83 85 dc f1 ff ff 01 	addl   $0x1,-0xe24(%rbp)
    e9a7:	83 bd dc f1 ff ff 05 	cmpl   $0x5,-0xe24(%rbp)
    e9ae:	7e bd                	jle    e96d <func_1+0x11b8>
    e9b0:	83 85 d8 f1 ff ff 01 	addl   $0x1,-0xe28(%rbp)
    e9b7:	83 bd d8 f1 ff ff 01 	cmpl   $0x1,-0xe28(%rbp)
    e9be:	7e a1                	jle    e961 <func_1+0x11ac>
    e9c0:	c7 85 d8 f1 ff ff 00 	movl   $0x0,-0xe28(%rbp)
    e9c7:	00 00 00 
    e9ca:	eb 43                	jmp    ea0f <func_1+0x125a>
    e9cc:	c7 85 dc f1 ff ff 00 	movl   $0x0,-0xe24(%rbp)
    e9d3:	00 00 00 
    e9d6:	eb 27                	jmp    e9ff <func_1+0x124a>
    e9d8:	8b 85 dc f1 ff ff    	mov    -0xe24(%rbp),%eax
    e9de:	48 63 d0             	movslq %eax,%rdx
    e9e1:	8b 85 d8 f1 ff ff    	mov    -0xe28(%rbp),%eax
    e9e7:	48 98                	cltq   
    e9e9:	48 01 d0             	add    %rdx,%rax
    e9ec:	48 c7 84 c5 60 f3 ff 	movq   $0x0,-0xca0(%rbp,%rax,8)
    e9f3:	ff 00 00 00 00 
    e9f8:	83 85 dc f1 ff ff 01 	addl   $0x1,-0xe24(%rbp)
    e9ff:	83 bd dc f1 ff ff 00 	cmpl   $0x0,-0xe24(%rbp)
    ea06:	7e d0                	jle    e9d8 <func_1+0x1223>
    ea08:	83 85 d8 f1 ff ff 01 	addl   $0x1,-0xe28(%rbp)
    ea0f:	83 bd d8 f1 ff ff 02 	cmpl   $0x2,-0xe28(%rbp)
    ea16:	7e b4                	jle    e9cc <func_1+0x1217>
    ea18:	c7 05 2a 78 01 00 fd 	movl   $0xfffffffd,0x1782a(%rip)        # 2624c <g_424>
    ea1f:	ff ff ff 
    ea22:	e9 d2 00 00 00       	jmpq   eaf9 <func_1+0x1344>
    ea27:	48 c7 85 b0 f2 ff ff 	movq   $0x0,-0xd50(%rbp)
    ea2e:	00 00 00 00 
    ea32:	48 8d 85 c4 f1 ff ff 	lea    -0xe3c(%rbp),%rax
    ea39:	48 89 85 b8 f2 ff ff 	mov    %rax,-0xd48(%rbp)
    ea40:	48 8d 85 c4 f1 ff ff 	lea    -0xe3c(%rbp),%rax
    ea47:	48 89 85 c0 f2 ff ff 	mov    %rax,-0xd40(%rbp)
    ea4e:	48 8d 85 cc f1 ff ff 	lea    -0xe34(%rbp),%rax
    ea55:	48 89 85 c8 f2 ff ff 	mov    %rax,-0xd38(%rbp)
    ea5c:	48 8d 85 c8 f1 ff ff 	lea    -0xe38(%rbp),%rax
    ea63:	48 89 85 d0 f2 ff ff 	mov    %rax,-0xd30(%rbp)
    ea6a:	48 8d 05 1f 79 01 00 	lea    0x1791f(%rip),%rax        # 26390 <g_4134>
    ea71:	48 89 85 80 f3 ff ff 	mov    %rax,-0xc80(%rbp)
    ea78:	48 8d 85 d0 f1 ff ff 	lea    -0xe30(%rbp),%rax
    ea7f:	48 89 85 88 f3 ff ff 	mov    %rax,-0xc78(%rbp)
    ea86:	48 8d 05 03 79 01 00 	lea    0x17903(%rip),%rax        # 26390 <g_4134>
    ea8d:	48 89 85 90 f3 ff ff 	mov    %rax,-0xc70(%rbp)
    ea94:	48 8d 05 f5 78 01 00 	lea    0x178f5(%rip),%rax        # 26390 <g_4134>
    ea9b:	48 89 85 98 f3 ff ff 	mov    %rax,-0xc68(%rbp)
    eaa2:	48 8d 85 d0 f1 ff ff 	lea    -0xe30(%rbp),%rax
    eaa9:	48 89 85 a0 f3 ff ff 	mov    %rax,-0xc60(%rbp)
    eab0:	48 8d 05 d9 78 01 00 	lea    0x178d9(%rip),%rax        # 26390 <g_4134>
    eab7:	48 89 85 a8 f3 ff ff 	mov    %rax,-0xc58(%rbp)
    eabe:	48 8b 05 d3 9f 01 00 	mov    0x19fd3(%rip),%rax        # 28a98 <g_1364>
    eac5:	48 8b 10             	mov    (%rax),%rdx
    eac8:	48 8b 05 c1 9f 01 00 	mov    0x19fc1(%rip),%rax        # 28a90 <g_1365>
    eacf:	48 8b 12             	mov    (%rdx),%rdx
    ead2:	48 89 10             	mov    %rdx,(%rax)
    ead5:	48 8d 85 cc f1 ff ff 	lea    -0xe34(%rbp),%rax
    eadc:	48 89 85 b0 f2 ff ff 	mov    %rax,-0xd50(%rbp)
    eae3:	83 ad d4 f1 ff ff 01 	subl   $0x1,-0xe2c(%rbp)
    eaea:	8b 05 5c 77 01 00    	mov    0x1775c(%rip),%eax        # 2624c <g_424>
    eaf0:	83 c0 01             	add    $0x1,%eax
    eaf3:	89 05 53 77 01 00    	mov    %eax,0x17753(%rip)        # 2624c <g_424>
    eaf9:	8b 05 4d 77 01 00    	mov    0x1774d(%rip),%eax        # 2624c <g_424>
    eaff:	83 f8 26             	cmp    $0x26,%eax
    eb02:	0f 85 1f ff ff ff    	jne    ea27 <func_1+0x1272>
    eb08:	c7 05 76 c3 01 00 f3 	movl   $0xfffffff3,0x1c376(%rip)        # 2ae88 <g_421>
    eb0f:	ff ff ff 
    eb12:	e9 81 0d 00 00       	jmpq   f898 <func_1+0x20e3>
    eb17:	48 8d 85 cc f1 ff ff 	lea    -0xe34(%rbp),%rax
    eb1e:	48 89 85 40 f3 ff ff 	mov    %rax,-0xcc0(%rbp)
    eb25:	c7 85 2c f2 ff ff ff 	movl   $0xffffffff,-0xdd4(%rbp)
    eb2c:	ff ff ff 
    eb2f:	48 8d 85 48 f2 ff ff 	lea    -0xdb8(%rbp),%rax
    eb36:	48 89 85 00 f9 ff ff 	mov    %rax,-0x700(%rbp)
    eb3d:	48 8d 85 48 f2 ff ff 	lea    -0xdb8(%rbp),%rax
    eb44:	48 89 85 08 f9 ff ff 	mov    %rax,-0x6f8(%rbp)
    eb4b:	48 8d 85 48 f2 ff ff 	lea    -0xdb8(%rbp),%rax
    eb52:	48 89 85 10 f9 ff ff 	mov    %rax,-0x6f0(%rbp)
    eb59:	48 8d 85 48 f2 ff ff 	lea    -0xdb8(%rbp),%rax
    eb60:	48 89 85 18 f9 ff ff 	mov    %rax,-0x6e8(%rbp)
    eb67:	48 8d 85 48 f2 ff ff 	lea    -0xdb8(%rbp),%rax
    eb6e:	48 89 85 20 f9 ff ff 	mov    %rax,-0x6e0(%rbp)
    eb75:	48 c7 85 28 f9 ff ff 	movq   $0x0,-0x6d8(%rbp)
    eb7c:	00 00 00 00 
    eb80:	48 8d 85 48 f2 ff ff 	lea    -0xdb8(%rbp),%rax
    eb87:	48 89 85 30 f9 ff ff 	mov    %rax,-0x6d0(%rbp)
    eb8e:	48 8d 85 48 f2 ff ff 	lea    -0xdb8(%rbp),%rax
    eb95:	48 89 85 38 f9 ff ff 	mov    %rax,-0x6c8(%rbp)
    eb9c:	48 8d 85 48 f2 ff ff 	lea    -0xdb8(%rbp),%rax
    eba3:	48 89 85 40 f9 ff ff 	mov    %rax,-0x6c0(%rbp)
    ebaa:	48 8d 85 48 f2 ff ff 	lea    -0xdb8(%rbp),%rax
    ebb1:	48 89 85 48 f9 ff ff 	mov    %rax,-0x6b8(%rbp)
    ebb8:	48 c7 85 50 f9 ff ff 	movq   $0x0,-0x6b0(%rbp)
    ebbf:	00 00 00 00 
    ebc3:	48 8d 85 48 f2 ff ff 	lea    -0xdb8(%rbp),%rax
    ebca:	48 89 85 58 f9 ff ff 	mov    %rax,-0x6a8(%rbp)
    ebd1:	48 8d 85 48 f2 ff ff 	lea    -0xdb8(%rbp),%rax
    ebd8:	48 89 85 60 f9 ff ff 	mov    %rax,-0x6a0(%rbp)
    ebdf:	48 8d 85 48 f2 ff ff 	lea    -0xdb8(%rbp),%rax
    ebe6:	48 89 85 68 f9 ff ff 	mov    %rax,-0x698(%rbp)
    ebed:	48 8d 85 48 f2 ff ff 	lea    -0xdb8(%rbp),%rax
    ebf4:	48 89 85 70 f9 ff ff 	mov    %rax,-0x690(%rbp)
    ebfb:	48 c7 85 78 f9 ff ff 	movq   $0x0,-0x688(%rbp)
    ec02:	00 00 00 00 
    ec06:	48 c7 85 80 f9 ff ff 	movq   $0x0,-0x680(%rbp)
    ec0d:	00 00 00 00 
    ec11:	48 8d 85 48 f2 ff ff 	lea    -0xdb8(%rbp),%rax
    ec18:	48 89 85 88 f9 ff ff 	mov    %rax,-0x678(%rbp)
    ec1f:	48 8d 85 48 f2 ff ff 	lea    -0xdb8(%rbp),%rax
    ec26:	48 89 85 90 f9 ff ff 	mov    %rax,-0x670(%rbp)
    ec2d:	48 8d 85 48 f2 ff ff 	lea    -0xdb8(%rbp),%rax
    ec34:	48 89 85 98 f9 ff ff 	mov    %rax,-0x668(%rbp)
    ec3b:	48 8d 85 48 f2 ff ff 	lea    -0xdb8(%rbp),%rax
    ec42:	48 89 85 a0 f9 ff ff 	mov    %rax,-0x660(%rbp)
    ec49:	48 8d 85 48 f2 ff ff 	lea    -0xdb8(%rbp),%rax
    ec50:	48 89 85 a8 f9 ff ff 	mov    %rax,-0x658(%rbp)
    ec57:	48 8d 85 48 f2 ff ff 	lea    -0xdb8(%rbp),%rax
    ec5e:	48 89 85 b0 f9 ff ff 	mov    %rax,-0x650(%rbp)
    ec65:	48 8d 85 48 f2 ff ff 	lea    -0xdb8(%rbp),%rax
    ec6c:	48 89 85 b8 f9 ff ff 	mov    %rax,-0x648(%rbp)
    ec73:	48 8d 85 48 f2 ff ff 	lea    -0xdb8(%rbp),%rax
    ec7a:	48 89 85 c0 f9 ff ff 	mov    %rax,-0x640(%rbp)
    ec81:	48 8d 85 48 f2 ff ff 	lea    -0xdb8(%rbp),%rax
    ec88:	48 89 85 c8 f9 ff ff 	mov    %rax,-0x638(%rbp)
    ec8f:	48 8d 85 48 f2 ff ff 	lea    -0xdb8(%rbp),%rax
    ec96:	48 89 85 d0 f9 ff ff 	mov    %rax,-0x630(%rbp)
    ec9d:	48 8d 85 48 f2 ff ff 	lea    -0xdb8(%rbp),%rax
    eca4:	48 89 85 d8 f9 ff ff 	mov    %rax,-0x628(%rbp)
    ecab:	48 8d 85 48 f2 ff ff 	lea    -0xdb8(%rbp),%rax
    ecb2:	48 89 85 e0 f9 ff ff 	mov    %rax,-0x620(%rbp)
    ecb9:	48 8d 85 48 f2 ff ff 	lea    -0xdb8(%rbp),%rax
    ecc0:	48 89 85 e8 f9 ff ff 	mov    %rax,-0x618(%rbp)
    ecc7:	48 8d 85 48 f2 ff ff 	lea    -0xdb8(%rbp),%rax
    ecce:	48 89 85 f0 f9 ff ff 	mov    %rax,-0x610(%rbp)
    ecd5:	48 8d 85 48 f2 ff ff 	lea    -0xdb8(%rbp),%rax
    ecdc:	48 89 85 f8 f9 ff ff 	mov    %rax,-0x608(%rbp)
    ece3:	48 c7 85 00 fa ff ff 	movq   $0x0,-0x600(%rbp)
    ecea:	00 00 00 00 
    ecee:	48 c7 85 08 fa ff ff 	movq   $0x0,-0x5f8(%rbp)
    ecf5:	00 00 00 00 
    ecf9:	48 8d 85 48 f2 ff ff 	lea    -0xdb8(%rbp),%rax
    ed00:	48 89 85 10 fa ff ff 	mov    %rax,-0x5f0(%rbp)
    ed07:	48 8d 85 48 f2 ff ff 	lea    -0xdb8(%rbp),%rax
    ed0e:	48 89 85 18 fa ff ff 	mov    %rax,-0x5e8(%rbp)
    ed15:	48 c7 85 20 fa ff ff 	movq   $0x0,-0x5e0(%rbp)
    ed1c:	00 00 00 00 
    ed20:	48 8d 85 48 f2 ff ff 	lea    -0xdb8(%rbp),%rax
    ed27:	48 89 85 28 fa ff ff 	mov    %rax,-0x5d8(%rbp)
    ed2e:	48 8d 85 48 f2 ff ff 	lea    -0xdb8(%rbp),%rax
    ed35:	48 89 85 30 fa ff ff 	mov    %rax,-0x5d0(%rbp)
    ed3c:	48 8d 85 48 f2 ff ff 	lea    -0xdb8(%rbp),%rax
    ed43:	48 89 85 38 fa ff ff 	mov    %rax,-0x5c8(%rbp)
    ed4a:	48 8d 85 48 f2 ff ff 	lea    -0xdb8(%rbp),%rax
    ed51:	48 89 85 40 fa ff ff 	mov    %rax,-0x5c0(%rbp)
    ed58:	48 c7 85 48 fa ff ff 	movq   $0x0,-0x5b8(%rbp)
    ed5f:	00 00 00 00 
    ed63:	48 8d 85 48 f2 ff ff 	lea    -0xdb8(%rbp),%rax
    ed6a:	48 89 85 50 fa ff ff 	mov    %rax,-0x5b0(%rbp)
    ed71:	48 c7 85 58 fa ff ff 	movq   $0x0,-0x5a8(%rbp)
    ed78:	00 00 00 00 
    ed7c:	48 8d 85 48 f2 ff ff 	lea    -0xdb8(%rbp),%rax
    ed83:	48 89 85 60 fa ff ff 	mov    %rax,-0x5a0(%rbp)
    ed8a:	48 c7 85 68 fa ff ff 	movq   $0x0,-0x598(%rbp)
    ed91:	00 00 00 00 
    ed95:	48 8d 85 48 f2 ff ff 	lea    -0xdb8(%rbp),%rax
    ed9c:	48 89 85 70 fa ff ff 	mov    %rax,-0x590(%rbp)
    eda3:	48 8d 85 48 f2 ff ff 	lea    -0xdb8(%rbp),%rax
    edaa:	48 89 85 78 fa ff ff 	mov    %rax,-0x588(%rbp)
    edb1:	48 8d 85 48 f2 ff ff 	lea    -0xdb8(%rbp),%rax
    edb8:	48 89 85 80 fa ff ff 	mov    %rax,-0x580(%rbp)
    edbf:	48 c7 85 88 fa ff ff 	movq   $0x0,-0x578(%rbp)
    edc6:	00 00 00 00 
    edca:	48 8d 85 48 f2 ff ff 	lea    -0xdb8(%rbp),%rax
    edd1:	48 89 85 90 fa ff ff 	mov    %rax,-0x570(%rbp)
    edd8:	48 8d 85 48 f2 ff ff 	lea    -0xdb8(%rbp),%rax
    eddf:	48 89 85 98 fa ff ff 	mov    %rax,-0x568(%rbp)
    ede6:	48 8d 85 48 f2 ff ff 	lea    -0xdb8(%rbp),%rax
    eded:	48 89 85 a0 fa ff ff 	mov    %rax,-0x560(%rbp)
    edf4:	48 8d 85 48 f2 ff ff 	lea    -0xdb8(%rbp),%rax
    edfb:	48 89 85 a8 fa ff ff 	mov    %rax,-0x558(%rbp)
    ee02:	48 8d 85 48 f2 ff ff 	lea    -0xdb8(%rbp),%rax
    ee09:	48 89 85 b0 fa ff ff 	mov    %rax,-0x550(%rbp)
    ee10:	48 8d 85 48 f2 ff ff 	lea    -0xdb8(%rbp),%rax
    ee17:	48 89 85 b8 fa ff ff 	mov    %rax,-0x548(%rbp)
    ee1e:	48 8d 85 48 f2 ff ff 	lea    -0xdb8(%rbp),%rax
    ee25:	48 89 85 c0 fa ff ff 	mov    %rax,-0x540(%rbp)
    ee2c:	48 8d 85 48 f2 ff ff 	lea    -0xdb8(%rbp),%rax
    ee33:	48 89 85 c8 fa ff ff 	mov    %rax,-0x538(%rbp)
    ee3a:	48 8d 85 48 f2 ff ff 	lea    -0xdb8(%rbp),%rax
    ee41:	48 89 85 d0 fa ff ff 	mov    %rax,-0x530(%rbp)
    ee48:	48 c7 85 d8 fa ff ff 	movq   $0x0,-0x528(%rbp)
    ee4f:	00 00 00 00 
    ee53:	48 8d 85 48 f2 ff ff 	lea    -0xdb8(%rbp),%rax
    ee5a:	48 89 85 e0 fa ff ff 	mov    %rax,-0x520(%rbp)
    ee61:	48 8d 85 48 f2 ff ff 	lea    -0xdb8(%rbp),%rax
    ee68:	48 89 85 e8 fa ff ff 	mov    %rax,-0x518(%rbp)
    ee6f:	48 8d 85 48 f2 ff ff 	lea    -0xdb8(%rbp),%rax
    ee76:	48 89 85 f0 fa ff ff 	mov    %rax,-0x510(%rbp)
    ee7d:	48 8d 85 48 f2 ff ff 	lea    -0xdb8(%rbp),%rax
    ee84:	48 89 85 f8 fa ff ff 	mov    %rax,-0x508(%rbp)
    ee8b:	48 8d 85 48 f2 ff ff 	lea    -0xdb8(%rbp),%rax
    ee92:	48 89 85 00 fb ff ff 	mov    %rax,-0x500(%rbp)
    ee99:	48 8d 85 48 f2 ff ff 	lea    -0xdb8(%rbp),%rax
    eea0:	48 89 85 08 fb ff ff 	mov    %rax,-0x4f8(%rbp)
    eea7:	48 8d 85 48 f2 ff ff 	lea    -0xdb8(%rbp),%rax
    eeae:	48 89 85 10 fb ff ff 	mov    %rax,-0x4f0(%rbp)
    eeb5:	48 8d 85 48 f2 ff ff 	lea    -0xdb8(%rbp),%rax
    eebc:	48 89 85 18 fb ff ff 	mov    %rax,-0x4e8(%rbp)
    eec3:	48 8d 85 48 f2 ff ff 	lea    -0xdb8(%rbp),%rax
    eeca:	48 89 85 20 fb ff ff 	mov    %rax,-0x4e0(%rbp)
    eed1:	48 8d 85 48 f2 ff ff 	lea    -0xdb8(%rbp),%rax
    eed8:	48 89 85 28 fb ff ff 	mov    %rax,-0x4d8(%rbp)
    eedf:	48 8d 85 48 f2 ff ff 	lea    -0xdb8(%rbp),%rax
    eee6:	48 89 85 30 fb ff ff 	mov    %rax,-0x4d0(%rbp)
    eeed:	48 8d 85 48 f2 ff ff 	lea    -0xdb8(%rbp),%rax
    eef4:	48 89 85 38 fb ff ff 	mov    %rax,-0x4c8(%rbp)
    eefb:	48 8d 85 48 f2 ff ff 	lea    -0xdb8(%rbp),%rax
    ef02:	48 89 85 40 fb ff ff 	mov    %rax,-0x4c0(%rbp)
    ef09:	48 8d 85 48 f2 ff ff 	lea    -0xdb8(%rbp),%rax
    ef10:	48 89 85 48 fb ff ff 	mov    %rax,-0x4b8(%rbp)
    ef17:	48 8d 85 48 f2 ff ff 	lea    -0xdb8(%rbp),%rax
    ef1e:	48 89 85 50 fb ff ff 	mov    %rax,-0x4b0(%rbp)
    ef25:	48 8d 85 48 f2 ff ff 	lea    -0xdb8(%rbp),%rax
    ef2c:	48 89 85 58 fb ff ff 	mov    %rax,-0x4a8(%rbp)
    ef33:	48 c7 85 60 fb ff ff 	movq   $0x0,-0x4a0(%rbp)
    ef3a:	00 00 00 00 
    ef3e:	48 c7 85 68 fb ff ff 	movq   $0x0,-0x498(%rbp)
    ef45:	00 00 00 00 
    ef49:	48 8d 85 48 f2 ff ff 	lea    -0xdb8(%rbp),%rax
    ef50:	48 89 85 70 fb ff ff 	mov    %rax,-0x490(%rbp)
    ef57:	48 8d 85 48 f2 ff ff 	lea    -0xdb8(%rbp),%rax
    ef5e:	48 89 85 78 fb ff ff 	mov    %rax,-0x488(%rbp)
    ef65:	48 c7 85 80 fb ff ff 	movq   $0x0,-0x480(%rbp)
    ef6c:	00 00 00 00 
    ef70:	48 8d 85 48 f2 ff ff 	lea    -0xdb8(%rbp),%rax
    ef77:	48 89 85 88 fb ff ff 	mov    %rax,-0x478(%rbp)
    ef7e:	48 c7 85 90 fb ff ff 	movq   $0x0,-0x470(%rbp)
    ef85:	00 00 00 00 
    ef89:	48 8d 85 48 f2 ff ff 	lea    -0xdb8(%rbp),%rax
    ef90:	48 89 85 98 fb ff ff 	mov    %rax,-0x468(%rbp)
    ef97:	48 8d 85 48 f2 ff ff 	lea    -0xdb8(%rbp),%rax
    ef9e:	48 89 85 a0 fb ff ff 	mov    %rax,-0x460(%rbp)
    efa5:	48 8d 85 48 f2 ff ff 	lea    -0xdb8(%rbp),%rax
    efac:	48 89 85 a8 fb ff ff 	mov    %rax,-0x458(%rbp)
    efb3:	48 8d 85 48 f2 ff ff 	lea    -0xdb8(%rbp),%rax
    efba:	48 89 85 b0 fb ff ff 	mov    %rax,-0x450(%rbp)
    efc1:	48 8d 85 48 f2 ff ff 	lea    -0xdb8(%rbp),%rax
    efc8:	48 89 85 b8 fb ff ff 	mov    %rax,-0x448(%rbp)
    efcf:	48 8d 85 48 f2 ff ff 	lea    -0xdb8(%rbp),%rax
    efd6:	48 89 85 c0 fb ff ff 	mov    %rax,-0x440(%rbp)
    efdd:	48 c7 85 c8 fb ff ff 	movq   $0x0,-0x438(%rbp)
    efe4:	00 00 00 00 
    efe8:	48 8d 85 48 f2 ff ff 	lea    -0xdb8(%rbp),%rax
    efef:	48 89 85 d0 fb ff ff 	mov    %rax,-0x430(%rbp)
    eff6:	48 8d 85 48 f2 ff ff 	lea    -0xdb8(%rbp),%rax
    effd:	48 89 85 d8 fb ff ff 	mov    %rax,-0x428(%rbp)
    f004:	48 8d 85 48 f2 ff ff 	lea    -0xdb8(%rbp),%rax
    f00b:	48 89 85 e0 fb ff ff 	mov    %rax,-0x420(%rbp)
    f012:	48 8d 85 48 f2 ff ff 	lea    -0xdb8(%rbp),%rax
    f019:	48 89 85 e8 fb ff ff 	mov    %rax,-0x418(%rbp)
    f020:	48 8d 85 48 f2 ff ff 	lea    -0xdb8(%rbp),%rax
    f027:	48 89 85 f0 fb ff ff 	mov    %rax,-0x410(%rbp)
    f02e:	48 c7 85 f8 fb ff ff 	movq   $0x0,-0x408(%rbp)
    f035:	00 00 00 00 
    f039:	48 8d 85 48 f2 ff ff 	lea    -0xdb8(%rbp),%rax
    f040:	48 89 85 00 fc ff ff 	mov    %rax,-0x400(%rbp)
    f047:	48 8d 85 48 f2 ff ff 	lea    -0xdb8(%rbp),%rax
    f04e:	48 89 85 08 fc ff ff 	mov    %rax,-0x3f8(%rbp)
    f055:	48 8d 85 48 f2 ff ff 	lea    -0xdb8(%rbp),%rax
    f05c:	48 89 85 10 fc ff ff 	mov    %rax,-0x3f0(%rbp)
    f063:	48 8d 85 48 f2 ff ff 	lea    -0xdb8(%rbp),%rax
    f06a:	48 89 85 18 fc ff ff 	mov    %rax,-0x3e8(%rbp)
    f071:	48 8d 85 48 f2 ff ff 	lea    -0xdb8(%rbp),%rax
    f078:	48 89 85 20 fc ff ff 	mov    %rax,-0x3e0(%rbp)
    f07f:	48 8d 85 48 f2 ff ff 	lea    -0xdb8(%rbp),%rax
    f086:	48 89 85 28 fc ff ff 	mov    %rax,-0x3d8(%rbp)
    f08d:	48 8d 85 48 f2 ff ff 	lea    -0xdb8(%rbp),%rax
    f094:	48 89 85 30 fc ff ff 	mov    %rax,-0x3d0(%rbp)
    f09b:	48 8d 85 48 f2 ff ff 	lea    -0xdb8(%rbp),%rax
    f0a2:	48 89 85 38 fc ff ff 	mov    %rax,-0x3c8(%rbp)
    f0a9:	48 c7 85 40 fc ff ff 	movq   $0x0,-0x3c0(%rbp)
    f0b0:	00 00 00 00 
    f0b4:	48 8d 85 48 f2 ff ff 	lea    -0xdb8(%rbp),%rax
    f0bb:	48 89 85 48 fc ff ff 	mov    %rax,-0x3b8(%rbp)
    f0c2:	48 8d 85 48 f2 ff ff 	lea    -0xdb8(%rbp),%rax
    f0c9:	48 89 85 50 fc ff ff 	mov    %rax,-0x3b0(%rbp)
    f0d0:	48 8d 85 48 f2 ff ff 	lea    -0xdb8(%rbp),%rax
    f0d7:	48 89 85 58 fc ff ff 	mov    %rax,-0x3a8(%rbp)
    f0de:	48 8d 85 48 f2 ff ff 	lea    -0xdb8(%rbp),%rax
    f0e5:	48 89 85 60 fc ff ff 	mov    %rax,-0x3a0(%rbp)
    f0ec:	48 c7 85 68 fc ff ff 	movq   $0x0,-0x398(%rbp)
    f0f3:	00 00 00 00 
    f0f7:	48 8d 85 48 f2 ff ff 	lea    -0xdb8(%rbp),%rax
    f0fe:	48 89 85 70 fc ff ff 	mov    %rax,-0x390(%rbp)
    f105:	48 8d 85 48 f2 ff ff 	lea    -0xdb8(%rbp),%rax
    f10c:	48 89 85 78 fc ff ff 	mov    %rax,-0x388(%rbp)
    f113:	48 8d 85 48 f2 ff ff 	lea    -0xdb8(%rbp),%rax
    f11a:	48 89 85 80 fc ff ff 	mov    %rax,-0x380(%rbp)
    f121:	48 8d 85 48 f2 ff ff 	lea    -0xdb8(%rbp),%rax
    f128:	48 89 85 88 fc ff ff 	mov    %rax,-0x378(%rbp)
    f12f:	48 c7 85 90 fc ff ff 	movq   $0x0,-0x370(%rbp)
    f136:	00 00 00 00 
    f13a:	48 c7 85 98 fc ff ff 	movq   $0x0,-0x368(%rbp)
    f141:	00 00 00 00 
    f145:	48 8d 85 48 f2 ff ff 	lea    -0xdb8(%rbp),%rax
    f14c:	48 89 85 a0 fc ff ff 	mov    %rax,-0x360(%rbp)
    f153:	48 8d 85 48 f2 ff ff 	lea    -0xdb8(%rbp),%rax
    f15a:	48 89 85 a8 fc ff ff 	mov    %rax,-0x358(%rbp)
    f161:	48 8d 85 48 f2 ff ff 	lea    -0xdb8(%rbp),%rax
    f168:	48 89 85 b0 fc ff ff 	mov    %rax,-0x350(%rbp)
    f16f:	48 8d 85 48 f2 ff ff 	lea    -0xdb8(%rbp),%rax
    f176:	48 89 85 b8 fc ff ff 	mov    %rax,-0x348(%rbp)
    f17d:	48 8d 85 48 f2 ff ff 	lea    -0xdb8(%rbp),%rax
    f184:	48 89 85 c0 fc ff ff 	mov    %rax,-0x340(%rbp)
    f18b:	48 8d 85 48 f2 ff ff 	lea    -0xdb8(%rbp),%rax
    f192:	48 89 85 c8 fc ff ff 	mov    %rax,-0x338(%rbp)
    f199:	48 8d 85 48 f2 ff ff 	lea    -0xdb8(%rbp),%rax
    f1a0:	48 89 85 d0 fc ff ff 	mov    %rax,-0x330(%rbp)
    f1a7:	48 8d 85 48 f2 ff ff 	lea    -0xdb8(%rbp),%rax
    f1ae:	48 89 85 d8 fc ff ff 	mov    %rax,-0x328(%rbp)
    f1b5:	48 8d 85 48 f2 ff ff 	lea    -0xdb8(%rbp),%rax
    f1bc:	48 89 85 e0 fc ff ff 	mov    %rax,-0x320(%rbp)
    f1c3:	48 8d 85 48 f2 ff ff 	lea    -0xdb8(%rbp),%rax
    f1ca:	48 89 85 e8 fc ff ff 	mov    %rax,-0x318(%rbp)
    f1d1:	48 8d 85 48 f2 ff ff 	lea    -0xdb8(%rbp),%rax
    f1d8:	48 89 85 f0 fc ff ff 	mov    %rax,-0x310(%rbp)
    f1df:	48 8d 85 48 f2 ff ff 	lea    -0xdb8(%rbp),%rax
    f1e6:	48 89 85 f8 fc ff ff 	mov    %rax,-0x308(%rbp)
    f1ed:	48 8d 85 48 f2 ff ff 	lea    -0xdb8(%rbp),%rax
    f1f4:	48 89 85 00 fd ff ff 	mov    %rax,-0x300(%rbp)
    f1fb:	48 8d 85 48 f2 ff ff 	lea    -0xdb8(%rbp),%rax
    f202:	48 89 85 08 fd ff ff 	mov    %rax,-0x2f8(%rbp)
    f209:	48 8d 85 48 f2 ff ff 	lea    -0xdb8(%rbp),%rax
    f210:	48 89 85 10 fd ff ff 	mov    %rax,-0x2f0(%rbp)
    f217:	48 c7 85 18 fd ff ff 	movq   $0x0,-0x2e8(%rbp)
    f21e:	00 00 00 00 
    f222:	48 c7 85 20 fd ff ff 	movq   $0x0,-0x2e0(%rbp)
    f229:	00 00 00 00 
    f22d:	48 8d 85 48 f2 ff ff 	lea    -0xdb8(%rbp),%rax
    f234:	48 89 85 28 fd ff ff 	mov    %rax,-0x2d8(%rbp)
    f23b:	48 8d 85 48 f2 ff ff 	lea    -0xdb8(%rbp),%rax
    f242:	48 89 85 30 fd ff ff 	mov    %rax,-0x2d0(%rbp)
    f249:	48 c7 85 38 fd ff ff 	movq   $0x0,-0x2c8(%rbp)
    f250:	00 00 00 00 
    f254:	48 8d 85 48 f2 ff ff 	lea    -0xdb8(%rbp),%rax
    f25b:	48 89 85 40 fd ff ff 	mov    %rax,-0x2c0(%rbp)
    f262:	48 8d 85 48 f2 ff ff 	lea    -0xdb8(%rbp),%rax
    f269:	48 89 85 48 fd ff ff 	mov    %rax,-0x2b8(%rbp)
    f270:	48 8d 85 48 f2 ff ff 	lea    -0xdb8(%rbp),%rax
    f277:	48 89 85 50 fd ff ff 	mov    %rax,-0x2b0(%rbp)
    f27e:	48 8d 85 48 f2 ff ff 	lea    -0xdb8(%rbp),%rax
    f285:	48 89 85 58 fd ff ff 	mov    %rax,-0x2a8(%rbp)
    f28c:	48 c7 85 60 fd ff ff 	movq   $0x0,-0x2a0(%rbp)
    f293:	00 00 00 00 
    f297:	48 8d 85 48 f2 ff ff 	lea    -0xdb8(%rbp),%rax
    f29e:	48 89 85 68 fd ff ff 	mov    %rax,-0x298(%rbp)
    f2a5:	48 c7 85 70 fd ff ff 	movq   $0x0,-0x290(%rbp)
    f2ac:	00 00 00 00 
    f2b0:	48 8d 85 48 f2 ff ff 	lea    -0xdb8(%rbp),%rax
    f2b7:	48 89 85 78 fd ff ff 	mov    %rax,-0x288(%rbp)
    f2be:	48 c7 85 80 fd ff ff 	movq   $0x0,-0x280(%rbp)
    f2c5:	00 00 00 00 
    f2c9:	48 8d 85 48 f2 ff ff 	lea    -0xdb8(%rbp),%rax
    f2d0:	48 89 85 88 fd ff ff 	mov    %rax,-0x278(%rbp)
    f2d7:	48 8d 85 48 f2 ff ff 	lea    -0xdb8(%rbp),%rax
    f2de:	48 89 85 90 fd ff ff 	mov    %rax,-0x270(%rbp)
    f2e5:	48 8d 85 48 f2 ff ff 	lea    -0xdb8(%rbp),%rax
    f2ec:	48 89 85 98 fd ff ff 	mov    %rax,-0x268(%rbp)
    f2f3:	48 c7 85 a0 fd ff ff 	movq   $0x0,-0x260(%rbp)
    f2fa:	00 00 00 00 
    f2fe:	48 8d 85 48 f2 ff ff 	lea    -0xdb8(%rbp),%rax
    f305:	48 89 85 a8 fd ff ff 	mov    %rax,-0x258(%rbp)
    f30c:	48 8d 85 48 f2 ff ff 	lea    -0xdb8(%rbp),%rax
    f313:	48 89 85 b0 fd ff ff 	mov    %rax,-0x250(%rbp)
    f31a:	48 8d 85 48 f2 ff ff 	lea    -0xdb8(%rbp),%rax
    f321:	48 89 85 b8 fd ff ff 	mov    %rax,-0x248(%rbp)
    f328:	48 8d 85 48 f2 ff ff 	lea    -0xdb8(%rbp),%rax
    f32f:	48 89 85 c0 fd ff ff 	mov    %rax,-0x240(%rbp)
    f336:	48 8d 85 48 f2 ff ff 	lea    -0xdb8(%rbp),%rax
    f33d:	48 89 85 c8 fd ff ff 	mov    %rax,-0x238(%rbp)
    f344:	48 8d 85 48 f2 ff ff 	lea    -0xdb8(%rbp),%rax
    f34b:	48 89 85 d0 fd ff ff 	mov    %rax,-0x230(%rbp)
    f352:	48 8d 85 48 f2 ff ff 	lea    -0xdb8(%rbp),%rax
    f359:	48 89 85 d8 fd ff ff 	mov    %rax,-0x228(%rbp)
    f360:	48 8d 85 48 f2 ff ff 	lea    -0xdb8(%rbp),%rax
    f367:	48 89 85 e0 fd ff ff 	mov    %rax,-0x220(%rbp)
    f36e:	48 8d 85 48 f2 ff ff 	lea    -0xdb8(%rbp),%rax
    f375:	48 89 85 e8 fd ff ff 	mov    %rax,-0x218(%rbp)
    f37c:	48 c7 85 f0 fd ff ff 	movq   $0x0,-0x210(%rbp)
    f383:	00 00 00 00 
    f387:	48 8d 85 48 f2 ff ff 	lea    -0xdb8(%rbp),%rax
    f38e:	48 89 85 f8 fd ff ff 	mov    %rax,-0x208(%rbp)
    f395:	48 8d 85 48 f2 ff ff 	lea    -0xdb8(%rbp),%rax
    f39c:	48 89 85 00 fe ff ff 	mov    %rax,-0x200(%rbp)
    f3a3:	48 8d 85 48 f2 ff ff 	lea    -0xdb8(%rbp),%rax
    f3aa:	48 89 85 08 fe ff ff 	mov    %rax,-0x1f8(%rbp)
    f3b1:	48 8d 85 48 f2 ff ff 	lea    -0xdb8(%rbp),%rax
    f3b8:	48 89 85 10 fe ff ff 	mov    %rax,-0x1f0(%rbp)
    f3bf:	48 8d 85 48 f2 ff ff 	lea    -0xdb8(%rbp),%rax
    f3c6:	48 89 85 18 fe ff ff 	mov    %rax,-0x1e8(%rbp)
    f3cd:	48 8d 85 48 f2 ff ff 	lea    -0xdb8(%rbp),%rax
    f3d4:	48 89 85 20 fe ff ff 	mov    %rax,-0x1e0(%rbp)
    f3db:	48 8d 85 48 f2 ff ff 	lea    -0xdb8(%rbp),%rax
    f3e2:	48 89 85 28 fe ff ff 	mov    %rax,-0x1d8(%rbp)
    f3e9:	48 8d 85 48 f2 ff ff 	lea    -0xdb8(%rbp),%rax
    f3f0:	48 89 85 30 fe ff ff 	mov    %rax,-0x1d0(%rbp)
    f3f7:	48 8d 85 48 f2 ff ff 	lea    -0xdb8(%rbp),%rax
    f3fe:	48 89 85 38 fe ff ff 	mov    %rax,-0x1c8(%rbp)
    f405:	48 8d 85 48 f2 ff ff 	lea    -0xdb8(%rbp),%rax
    f40c:	48 89 85 40 fe ff ff 	mov    %rax,-0x1c0(%rbp)
    f413:	48 8d 85 48 f2 ff ff 	lea    -0xdb8(%rbp),%rax
    f41a:	48 89 85 48 fe ff ff 	mov    %rax,-0x1b8(%rbp)
    f421:	48 8d 85 48 f2 ff ff 	lea    -0xdb8(%rbp),%rax
    f428:	48 89 85 50 fe ff ff 	mov    %rax,-0x1b0(%rbp)
    f42f:	48 8d 85 48 f2 ff ff 	lea    -0xdb8(%rbp),%rax
    f436:	48 89 85 58 fe ff ff 	mov    %rax,-0x1a8(%rbp)
    f43d:	48 8d 85 48 f2 ff ff 	lea    -0xdb8(%rbp),%rax
    f444:	48 89 85 60 fe ff ff 	mov    %rax,-0x1a0(%rbp)
    f44b:	48 8d 85 48 f2 ff ff 	lea    -0xdb8(%rbp),%rax
    f452:	48 89 85 68 fe ff ff 	mov    %rax,-0x198(%rbp)
    f459:	48 8d 85 48 f2 ff ff 	lea    -0xdb8(%rbp),%rax
    f460:	48 89 85 70 fe ff ff 	mov    %rax,-0x190(%rbp)
    f467:	48 8d 85 48 f2 ff ff 	lea    -0xdb8(%rbp),%rax
    f46e:	48 89 85 78 fe ff ff 	mov    %rax,-0x188(%rbp)
    f475:	48 8d 85 48 f2 ff ff 	lea    -0xdb8(%rbp),%rax
    f47c:	48 89 85 80 fe ff ff 	mov    %rax,-0x180(%rbp)
    f483:	48 8d 85 48 f2 ff ff 	lea    -0xdb8(%rbp),%rax
    f48a:	48 89 85 88 fe ff ff 	mov    %rax,-0x178(%rbp)
    f491:	48 c7 85 90 fe ff ff 	movq   $0x0,-0x170(%rbp)
    f498:	00 00 00 00 
    f49c:	48 c7 85 98 fe ff ff 	movq   $0x0,-0x168(%rbp)
    f4a3:	00 00 00 00 
    f4a7:	48 8d 85 48 f2 ff ff 	lea    -0xdb8(%rbp),%rax
    f4ae:	48 89 85 a0 fe ff ff 	mov    %rax,-0x160(%rbp)
    f4b5:	48 8d 85 48 f2 ff ff 	lea    -0xdb8(%rbp),%rax
    f4bc:	48 89 85 a8 fe ff ff 	mov    %rax,-0x158(%rbp)
    f4c3:	48 8d 85 48 f2 ff ff 	lea    -0xdb8(%rbp),%rax
    f4ca:	48 89 85 b0 fe ff ff 	mov    %rax,-0x150(%rbp)
    f4d1:	48 8d 85 48 f2 ff ff 	lea    -0xdb8(%rbp),%rax
    f4d8:	48 89 85 b8 fe ff ff 	mov    %rax,-0x148(%rbp)
    f4df:	48 8d 85 48 f2 ff ff 	lea    -0xdb8(%rbp),%rax
    f4e6:	48 89 85 c0 fe ff ff 	mov    %rax,-0x140(%rbp)
    f4ed:	48 c7 85 c8 fe ff ff 	movq   $0x0,-0x138(%rbp)
    f4f4:	00 00 00 00 
    f4f8:	48 8d 85 48 f2 ff ff 	lea    -0xdb8(%rbp),%rax
    f4ff:	48 89 85 d0 fe ff ff 	mov    %rax,-0x130(%rbp)
    f506:	48 8d 85 48 f2 ff ff 	lea    -0xdb8(%rbp),%rax
    f50d:	48 89 85 d8 fe ff ff 	mov    %rax,-0x128(%rbp)
    f514:	48 c7 85 e0 fe ff ff 	movq   $0x0,-0x120(%rbp)
    f51b:	00 00 00 00 
    f51f:	48 8d 85 48 f2 ff ff 	lea    -0xdb8(%rbp),%rax
    f526:	48 89 85 e8 fe ff ff 	mov    %rax,-0x118(%rbp)
    f52d:	48 8d 85 48 f2 ff ff 	lea    -0xdb8(%rbp),%rax
    f534:	48 89 85 f0 fe ff ff 	mov    %rax,-0x110(%rbp)
    f53b:	48 c7 85 f8 fe ff ff 	movq   $0x0,-0x108(%rbp)
    f542:	00 00 00 00 
    f546:	48 8d 85 48 f2 ff ff 	lea    -0xdb8(%rbp),%rax
    f54d:	48 89 85 00 ff ff ff 	mov    %rax,-0x100(%rbp)
    f554:	48 c7 85 08 ff ff ff 	movq   $0x0,-0xf8(%rbp)
    f55b:	00 00 00 00 
    f55f:	48 8d 85 48 f2 ff ff 	lea    -0xdb8(%rbp),%rax
    f566:	48 89 85 10 ff ff ff 	mov    %rax,-0xf0(%rbp)
    f56d:	48 c7 85 18 ff ff ff 	movq   $0x0,-0xe8(%rbp)
    f574:	00 00 00 00 
    f578:	48 c7 85 20 ff ff ff 	movq   $0x0,-0xe0(%rbp)
    f57f:	00 00 00 00 
    f583:	48 8d 85 48 f2 ff ff 	lea    -0xdb8(%rbp),%rax
    f58a:	48 89 85 28 ff ff ff 	mov    %rax,-0xd8(%rbp)
    f591:	48 8d 85 48 f2 ff ff 	lea    -0xdb8(%rbp),%rax
    f598:	48 89 85 30 ff ff ff 	mov    %rax,-0xd0(%rbp)
    f59f:	48 8d 85 48 f2 ff ff 	lea    -0xdb8(%rbp),%rax
    f5a6:	48 89 85 38 ff ff ff 	mov    %rax,-0xc8(%rbp)
    f5ad:	48 8d 85 48 f2 ff ff 	lea    -0xdb8(%rbp),%rax
    f5b4:	48 89 85 40 ff ff ff 	mov    %rax,-0xc0(%rbp)
    f5bb:	48 8d 85 48 f2 ff ff 	lea    -0xdb8(%rbp),%rax
    f5c2:	48 89 85 48 ff ff ff 	mov    %rax,-0xb8(%rbp)
    f5c9:	48 8d 85 48 f2 ff ff 	lea    -0xdb8(%rbp),%rax
    f5d0:	48 89 85 50 ff ff ff 	mov    %rax,-0xb0(%rbp)
    f5d7:	48 8d 85 48 f2 ff ff 	lea    -0xdb8(%rbp),%rax
    f5de:	48 89 85 58 ff ff ff 	mov    %rax,-0xa8(%rbp)
    f5e5:	48 8d 85 48 f2 ff ff 	lea    -0xdb8(%rbp),%rax
    f5ec:	48 89 85 60 ff ff ff 	mov    %rax,-0xa0(%rbp)
    f5f3:	48 8d 85 48 f2 ff ff 	lea    -0xdb8(%rbp),%rax
    f5fa:	48 89 85 68 ff ff ff 	mov    %rax,-0x98(%rbp)
    f601:	48 8d 85 48 f2 ff ff 	lea    -0xdb8(%rbp),%rax
    f608:	48 89 85 70 ff ff ff 	mov    %rax,-0x90(%rbp)
    f60f:	48 8d 85 48 f2 ff ff 	lea    -0xdb8(%rbp),%rax
    f616:	48 89 85 78 ff ff ff 	mov    %rax,-0x88(%rbp)
    f61d:	48 8d 85 48 f2 ff ff 	lea    -0xdb8(%rbp),%rax
    f624:	48 89 45 80          	mov    %rax,-0x80(%rbp)
    f628:	48 c7 45 88 00 00 00 	movq   $0x0,-0x78(%rbp)
    f62f:	00 
    f630:	48 8d 85 48 f2 ff ff 	lea    -0xdb8(%rbp),%rax
    f637:	48 89 45 90          	mov    %rax,-0x70(%rbp)
    f63b:	48 c7 45 98 00 00 00 	movq   $0x0,-0x68(%rbp)
    f642:	00 
    f643:	48 8d 85 48 f2 ff ff 	lea    -0xdb8(%rbp),%rax
    f64a:	48 89 45 a0          	mov    %rax,-0x60(%rbp)
    f64e:	48 8d 85 48 f2 ff ff 	lea    -0xdb8(%rbp),%rax
    f655:	48 89 45 a8          	mov    %rax,-0x58(%rbp)
    f659:	48 8d 85 48 f2 ff ff 	lea    -0xdb8(%rbp),%rax
    f660:	48 89 45 b0          	mov    %rax,-0x50(%rbp)
    f664:	48 c7 45 b8 00 00 00 	movq   $0x0,-0x48(%rbp)
    f66b:	00 
    f66c:	48 8d 05 56 6a 01 00 	lea    0x16a56(%rip),%rax        # 260c9 <g_88>
    f673:	48 89 85 00 f7 ff ff 	mov    %rax,-0x900(%rbp)
    f67a:	48 8d 05 48 6a 01 00 	lea    0x16a48(%rip),%rax        # 260c9 <g_88>
    f681:	48 89 85 08 f7 ff ff 	mov    %rax,-0x8f8(%rbp)
    f688:	48 8d 05 3a 6a 01 00 	lea    0x16a3a(%rip),%rax        # 260c9 <g_88>
    f68f:	48 89 85 10 f7 ff ff 	mov    %rax,-0x8f0(%rbp)
    f696:	48 8d 05 2c 6a 01 00 	lea    0x16a2c(%rip),%rax        # 260c9 <g_88>
    f69d:	48 89 85 18 f7 ff ff 	mov    %rax,-0x8e8(%rbp)
    f6a4:	48 8d 05 1e 6a 01 00 	lea    0x16a1e(%rip),%rax        # 260c9 <g_88>
    f6ab:	48 89 85 20 f7 ff ff 	mov    %rax,-0x8e0(%rbp)
    f6b2:	48 8d 05 10 6a 01 00 	lea    0x16a10(%rip),%rax        # 260c9 <g_88>
    f6b9:	48 89 85 28 f7 ff ff 	mov    %rax,-0x8d8(%rbp)
    f6c0:	48 8d 05 02 6a 01 00 	lea    0x16a02(%rip),%rax        # 260c9 <g_88>
    f6c7:	48 89 85 30 f7 ff ff 	mov    %rax,-0x8d0(%rbp)
    f6ce:	48 8d 05 f4 69 01 00 	lea    0x169f4(%rip),%rax        # 260c9 <g_88>
    f6d5:	48 89 85 38 f7 ff ff 	mov    %rax,-0x8c8(%rbp)
    f6dc:	48 8d 05 ed 6b 01 00 	lea    0x16bed(%rip),%rax        # 262d0 <g_1352>
    f6e3:	48 89 85 48 f3 ff ff 	mov    %rax,-0xcb8(%rbp)
    f6ea:	48 8d 05 47 6c 01 00 	lea    0x16c47(%rip),%rax        # 26338 <g_2496>
    f6f1:	48 89 85 50 f3 ff ff 	mov    %rax,-0xcb0(%rbp)
    f6f8:	48 c7 85 58 f3 ff ff 	movq   $0xfffffffffffffffd,-0xca8(%rbp)
    f6ff:	fd ff ff ff 
    f703:	66 c7 85 c2 f1 ff ff 	movw   $0x584d,-0xe3e(%rbp)
    f70a:	4d 58 
    f70c:	48 8b 15 7d 93 01 00 	mov    0x1937d(%rip),%rdx        # 28a90 <g_1365>
    f713:	48 8b 05 76 93 01 00 	mov    0x19376(%rip),%rax        # 28a90 <g_1365>
    f71a:	48 8b 12             	mov    (%rdx),%rdx
    f71d:	48 89 10             	mov    %rdx,(%rax)
    f720:	48 8d 85 b0 f4 ff ff 	lea    -0xb50(%rbp),%rax
    f727:	48 83 c0 04          	add    $0x4,%rax
    f72b:	48 89 85 40 f3 ff ff 	mov    %rax,-0xcc0(%rbp)
    f732:	48 8b 05 77 94 01 00 	mov    0x19477(%rip),%rax        # 28bb0 <g_1937>
    f739:	48 8b 95 40 f3 ff ff 	mov    -0xcc0(%rbp),%rdx
    f740:	48 89 10             	mov    %rdx,(%rax)
    f743:	48 8b 05 c6 95 01 00 	mov    0x195c6(%rip),%rax        # 28d10 <g_2687>
    f74a:	44 0f b6 20          	movzbl (%rax),%r12d
    f74e:	48 8b 85 58 f3 ff ff 	mov    -0xca8(%rbp),%rax
    f755:	0f bf d8             	movswl %ax,%ebx
    f758:	48 8b 85 48 f3 ff ff 	mov    -0xcb8(%rbp),%rax
    f75f:	48 8b 00             	mov    (%rax),%rax
    f762:	48 83 f0 f7          	xor    $0xfffffffffffffff7,%rax
    f766:	48 89 c2             	mov    %rax,%rdx
    f769:	48 8b 85 48 f3 ff ff 	mov    -0xcb8(%rbp),%rax
    f770:	48 89 10             	mov    %rdx,(%rax)
    f773:	48 8b 85 48 f3 ff ff 	mov    -0xcb8(%rbp),%rax
    f77a:	48 8b 00             	mov    (%rax),%rax
    f77d:	be 01 00 00 00       	mov    $0x1,%esi
    f782:	48 89 c7             	mov    %rax,%rdi
    f785:	e8 25 d9 ff ff       	callq  d0af <safe_div_func_uint64_t_u_u>
    f78a:	66 25 8e 1e          	and    $0x1e8e,%ax
    f78e:	89 c2                	mov    %eax,%edx
    f790:	48 8b 85 50 f3 ff ff 	mov    -0xcb0(%rbp),%rax
    f797:	66 89 10             	mov    %dx,(%rax)
    f79a:	48 8b 85 50 f3 ff ff 	mov    -0xcb0(%rbp),%rax
    f7a1:	0f b7 00             	movzwl (%rax),%eax
    f7a4:	98                   	cwtl   
    f7a5:	89 de                	mov    %ebx,%esi
    f7a7:	89 c7                	mov    %eax,%edi
    f7a9:	e8 a7 cc ff ff       	callq  c455 <safe_div_func_int16_t_s_s>
    f7ae:	48 8b 05 ab 95 01 00 	mov    0x195ab(%rip),%rax        # 28d60 <g_2685>
    f7b5:	48 8b 00             	mov    (%rax),%rax
    f7b8:	48 8b 00             	mov    (%rax),%rax
    f7bb:	0f b6 00             	movzbl (%rax),%eax
    f7be:	0f b6 d0             	movzbl %al,%edx
    f7c1:	48 8b 85 48 f2 ff ff 	mov    -0xdb8(%rbp),%rax
    f7c8:	48 89 05 21 ae 01 00 	mov    %rax,0x1ae21(%rip)        # 2a5f0 <g_4483+0x1f0>
    f7cf:	48 8b 05 1a ae 01 00 	mov    0x1ae1a(%rip),%rax        # 2a5f0 <g_4483+0x1f0>
    f7d6:	48 8d 0d 6b 94 01 00 	lea    0x1946b(%rip),%rcx        # 28c48 <g_2122>
    f7dd:	48 39 c8             	cmp    %rcx,%rax
    f7e0:	0f 94 c0             	sete   %al
    f7e3:	0f b6 c8             	movzbl %al,%ecx
    f7e6:	48 8b 85 40 f3 ff ff 	mov    -0xcc0(%rbp),%rax
    f7ed:	89 08                	mov    %ecx,(%rax)
    f7ef:	48 8b 85 40 f3 ff ff 	mov    -0xcc0(%rbp),%rax
    f7f6:	8b 00                	mov    (%rax),%eax
    f7f8:	0f b6 c0             	movzbl %al,%eax
    f7fb:	89 d6                	mov    %edx,%esi
    f7fd:	89 c7                	mov    %eax,%edi
    f7ff:	e8 d7 d3 ff ff       	callq  cbdb <safe_div_func_uint8_t_u_u>
    f804:	41 38 c4             	cmp    %al,%r12b
    f807:	0f 93 c0             	setae  %al
    f80a:	0f b6 d0             	movzbl %al,%edx
    f80d:	48 8b 05 2c 86 01 00 	mov    0x1862c(%rip),%rax        # 27e40 <g_479>
    f814:	48 8b 00             	mov    (%rax),%rax
    f817:	48 8b 00             	mov    (%rax),%rax
    f81a:	0f b7 00             	movzwl (%rax),%eax
    f81d:	98                   	cwtl   
    f81e:	09 d0                	or     %edx,%eax
    f820:	85 c0                	test   %eax,%eax
    f822:	75 0d                	jne    f831 <func_1+0x207c>
    f824:	48 8b 85 80 f2 ff ff 	mov    -0xd80(%rbp),%rax
    f82b:	8b 00                	mov    (%rax),%eax
    f82d:	85 c0                	test   %eax,%eax
    f82f:	74 07                	je     f838 <func_1+0x2083>
    f831:	b8 01 00 00 00       	mov    $0x1,%eax
    f836:	eb 05                	jmp    f83d <func_1+0x2088>
    f838:	b8 00 00 00 00       	mov    $0x0,%eax
    f83d:	3d 01 a1 15 25       	cmp    $0x2515a101,%eax
    f842:	be 07 00 00 00       	mov    $0x7,%esi
    f847:	bf 01 00 00 00       	mov    $0x1,%edi
    f84c:	e8 50 ca ff ff       	callq  c2a1 <safe_lshift_func_int8_t_s_s>
    f851:	0f be c0             	movsbl %al,%eax
    f854:	89 c6                	mov    %eax,%esi
    f856:	bf 34 ef ff ff       	mov    $0xffffef34,%edi
    f85b:	e8 b6 cb ff ff       	callq  c416 <safe_mod_func_int16_t_s_s>
    f860:	48 8b 85 80 f2 ff ff 	mov    -0xd80(%rbp),%rax
    f867:	8b 00                	mov    (%rax),%eax
    f869:	89 85 cc f1 ff ff    	mov    %eax,-0xe34(%rbp)
    f86f:	8b 8d cc f1 ff ff    	mov    -0xe34(%rbp),%ecx
    f875:	48 8b 05 e4 91 01 00 	mov    0x191e4(%rip),%rax        # 28a60 <g_994>
    f87c:	8b 10                	mov    (%rax),%edx
    f87e:	48 8b 05 db 91 01 00 	mov    0x191db(%rip),%rax        # 28a60 <g_994>
    f885:	31 ca                	xor    %ecx,%edx
    f887:	89 10                	mov    %edx,(%rax)
    f889:	8b 05 f9 b5 01 00    	mov    0x1b5f9(%rip),%eax        # 2ae88 <g_421>
    f88f:	83 c0 01             	add    $0x1,%eax
    f892:	89 05 f0 b5 01 00    	mov    %eax,0x1b5f0(%rip)        # 2ae88 <g_421>
    f898:	8b 05 ea b5 01 00    	mov    0x1b5ea(%rip),%eax        # 2ae88 <g_421>
    f89e:	83 f8 08             	cmp    $0x8,%eax
    f8a1:	0f 86 70 f2 ff ff    	jbe    eb17 <func_1+0x1362>
    f8a7:	0f be 85 b5 f1 ff ff 	movsbl -0xe4b(%rbp),%eax
    f8ae:	48 8b 5d c8          	mov    -0x38(%rbp),%rbx
    f8b2:	64 48 33 1c 25 28 00 	xor    %fs:0x28,%rbx
    f8b9:	00 00 
    f8bb:	74 05                	je     f8c2 <func_1+0x210d>
    f8bd:	e8 ae c7 ff ff       	callq  c070 <__stack_chk_fail@plt>
    f8c2:	48 81 c4 38 0e 00 00 	add    $0xe38,%rsp
    f8c9:	5b                   	pop    %rbx
    f8ca:	41 5c                	pop    %r12
    f8cc:	41 5d                	pop    %r13
    f8ce:	41 5e                	pop    %r14
    f8d0:	41 5f                	pop    %r15
    f8d2:	5d                   	pop    %rbp
    f8d3:	c3                   	retq   

000000000000f8d4 <func_3>:
    f8d4:	f3 0f 1e fa          	endbr64 
    f8d8:	55                   	push   %rbp
    f8d9:	48 89 e5             	mov    %rsp,%rbp
    f8dc:	41 57                	push   %r15
    f8de:	41 56                	push   %r14
    f8e0:	41 55                	push   %r13
    f8e2:	41 54                	push   %r12
    f8e4:	53                   	push   %rbx
    f8e5:	48 81 ec 58 06 00 00 	sub    $0x658,%rsp
    f8ec:	89 bd 8c f9 ff ff    	mov    %edi,-0x674(%rbp)
    f8f2:	89 b5 88 f9 ff ff    	mov    %esi,-0x678(%rbp)
    f8f8:	64 48 8b 04 25 28 00 	mov    %fs:0x28,%rax
    f8ff:	00 00 
    f901:	48 89 45 c8          	mov    %rax,-0x38(%rbp)
    f905:	31 c0                	xor    %eax,%eax
    f907:	48 8d 85 70 fd ff ff 	lea    -0x290(%rbp),%rax
    f90e:	48 8d 15 8b 0d 01 00 	lea    0x10d8b(%rip),%rdx        # 206a0 <g_2708+0x418>
    f915:	b9 4b 00 00 00       	mov    $0x4b,%ecx
    f91a:	48 89 c7             	mov    %rax,%rdi
    f91d:	48 89 d6             	mov    %rdx,%rsi
    f920:	f3 48 a5             	rep movsq %ds:(%rsi),%es:(%rdi)
    f923:	c7 85 a4 f9 ff ff 05 	movl   $0x7f958505,-0x65c(%rbp)
    f92a:	85 95 7f 
    f92d:	48 c7 85 c8 f9 ff ff 	movq   $0x0,-0x638(%rbp)
    f934:	00 00 00 00 
    f938:	c7 85 a8 f9 ff ff 03 	movl   $0x3,-0x658(%rbp)
    f93f:	00 00 00 
    f942:	48 c7 85 d0 f9 ff ff 	movq   $0x0,-0x630(%rbp)
    f949:	00 00 00 00 
    f94d:	48 c7 85 d8 f9 ff ff 	movq   $0x1,-0x628(%rbp)
    f954:	01 00 00 00 
    f958:	48 8b 85 88 fd ff ff 	mov    -0x278(%rbp),%rax
    f95f:	48 83 c0 01          	add    $0x1,%rax
    f963:	48 89 85 88 fd ff ff 	mov    %rax,-0x278(%rbp)
    f96a:	66 c7 05 7d 68 01 00 	movw   $0x0,0x1687d(%rip)        # 261f0 <g_218>
    f971:	00 00 
    f973:	e9 4b 0a 00 00       	jmpq   103c3 <func_3+0xaef>
    f978:	48 8d 85 20 fc ff ff 	lea    -0x3e0(%rbp),%rax
    f97f:	48 8d 15 7a 0f 01 00 	lea    0x10f7a(%rip),%rdx        # 20900 <g_2708+0x678>
    f986:	b9 2a 00 00 00       	mov    $0x2a,%ecx
    f98b:	48 89 c7             	mov    %rax,%rdi
    f98e:	48 89 d6             	mov    %rdx,%rsi
    f991:	f3 48 a5             	rep movsq %ds:(%rsi),%es:(%rdi)
    f994:	c7 85 9c f9 ff ff 9b 	movl   $0x20bcea9b,-0x664(%rbp)
    f99b:	ea bc 20 
    f99e:	48 8d 05 7b 91 01 00 	lea    0x1917b(%rip),%rax        # 28b20 <g_1772>
    f9a5:	48 89 85 e0 f9 ff ff 	mov    %rax,-0x620(%rbp)
    f9ac:	48 8d 05 1d b5 01 00 	lea    0x1b51d(%rip),%rax        # 2aed0 <g_1215>
    f9b3:	48 89 85 e8 f9 ff ff 	mov    %rax,-0x618(%rbp)
    f9ba:	c7 05 90 69 01 00 00 	movl   $0x0,0x16990(%rip)        # 26354 <g_2794>
    f9c1:	00 00 00 
    f9c4:	e9 6d 01 00 00       	jmpq   fb36 <func_3+0x262>
    f9c9:	48 8d 85 e0 fa ff ff 	lea    -0x520(%rbp),%rax
    f9d0:	48 8d 15 29 6a 01 00 	lea    0x16a29(%rip),%rdx        # 26400 <g_4408+0x20>
    f9d7:	b9 28 00 00 00       	mov    $0x28,%ecx
    f9dc:	48 89 c7             	mov    %rax,%rdi
    f9df:	48 89 d6             	mov    %rdx,%rsi
    f9e2:	f3 48 a5             	rep movsq %ds:(%rsi),%es:(%rdi)
    f9e5:	48 8d 85 e0 fa ff ff 	lea    -0x520(%rbp),%rax
    f9ec:	48 83 c0 60          	add    $0x60,%rax
    f9f0:	48 89 85 b8 f9 ff ff 	mov    %rax,-0x648(%rbp)
    f9f7:	48 8d 85 b8 f9 ff ff 	lea    -0x648(%rbp),%rax
    f9fe:	48 89 85 c0 f9 ff ff 	mov    %rax,-0x640(%rbp)
    fa05:	48 8d 85 c0 f9 ff ff 	lea    -0x640(%rbp),%rax
    fa0c:	48 89 85 50 fa ff ff 	mov    %rax,-0x5b0(%rbp)
    fa13:	48 8d 85 c0 f9 ff ff 	lea    -0x640(%rbp),%rax
    fa1a:	48 89 85 58 fa ff ff 	mov    %rax,-0x5a8(%rbp)
    fa21:	48 8d 85 c0 f9 ff ff 	lea    -0x640(%rbp),%rax
    fa28:	48 89 85 60 fa ff ff 	mov    %rax,-0x5a0(%rbp)
    fa2f:	48 8d 85 c0 f9 ff ff 	lea    -0x640(%rbp),%rax
    fa36:	48 89 85 68 fa ff ff 	mov    %rax,-0x598(%rbp)
    fa3d:	48 8d 85 c0 f9 ff ff 	lea    -0x640(%rbp),%rax
    fa44:	48 89 85 70 fa ff ff 	mov    %rax,-0x590(%rbp)
    fa4b:	48 c7 85 78 fa ff ff 	movq   $0x0,-0x588(%rbp)
    fa52:	00 00 00 00 
    fa56:	48 8d 85 c0 f9 ff ff 	lea    -0x640(%rbp),%rax
    fa5d:	48 89 85 80 fa ff ff 	mov    %rax,-0x580(%rbp)
    fa64:	48 8d 85 c0 f9 ff ff 	lea    -0x640(%rbp),%rax
    fa6b:	48 89 85 88 fa ff ff 	mov    %rax,-0x578(%rbp)
    fa72:	48 8d 85 c0 f9 ff ff 	lea    -0x640(%rbp),%rax
    fa79:	48 89 85 90 fa ff ff 	mov    %rax,-0x570(%rbp)
    fa80:	48 8d 85 c0 f9 ff ff 	lea    -0x640(%rbp),%rax
    fa87:	48 89 85 98 fa ff ff 	mov    %rax,-0x568(%rbp)
    fa8e:	48 8d 85 c0 f9 ff ff 	lea    -0x640(%rbp),%rax
    fa95:	48 89 85 a0 fa ff ff 	mov    %rax,-0x560(%rbp)
    fa9c:	48 8d 85 c0 f9 ff ff 	lea    -0x640(%rbp),%rax
    faa3:	48 89 85 a8 fa ff ff 	mov    %rax,-0x558(%rbp)
    faaa:	48 8d 85 c0 f9 ff ff 	lea    -0x640(%rbp),%rax
    fab1:	48 89 85 b0 fa ff ff 	mov    %rax,-0x550(%rbp)
    fab8:	48 8d 85 c0 f9 ff ff 	lea    -0x640(%rbp),%rax
    fabf:	48 89 85 b8 fa ff ff 	mov    %rax,-0x548(%rbp)
    fac6:	48 c7 85 c0 fa ff ff 	movq   $0x0,-0x540(%rbp)
    facd:	00 00 00 00 
    fad1:	48 8d 85 c0 f9 ff ff 	lea    -0x640(%rbp),%rax
    fad8:	48 89 85 c8 fa ff ff 	mov    %rax,-0x538(%rbp)
    fadf:	48 8d 85 c0 f9 ff ff 	lea    -0x640(%rbp),%rax
    fae6:	48 89 85 d0 fa ff ff 	mov    %rax,-0x530(%rbp)
    faed:	48 8d 85 c0 f9 ff ff 	lea    -0x640(%rbp),%rax
    faf4:	48 89 85 d8 fa ff ff 	mov    %rax,-0x528(%rbp)
    fafb:	48 8d 85 50 fa ff ff 	lea    -0x5b0(%rbp),%rax
    fb02:	48 83 c0 20          	add    $0x20,%rax
    fb06:	48 89 85 48 fa ff ff 	mov    %rax,-0x5b8(%rbp)
    fb0d:	48 8d 05 34 07 01 00 	lea    0x10734(%rip),%rax        # 20248 <g_828+0x8>
    fb14:	48 89 85 48 fa ff ff 	mov    %rax,-0x5b8(%rbp)
    fb1b:	8b 05 33 68 01 00    	mov    0x16833(%rip),%eax        # 26354 <g_2794>
    fb21:	89 c0                	mov    %eax,%eax
    fb23:	be 02 00 00 00       	mov    $0x2,%esi
    fb28:	48 89 c7             	mov    %rax,%rdi
    fb2b:	e8 11 cd ff ff       	callq  c841 <safe_add_func_int64_t_s_s>
    fb30:	89 05 1e 68 01 00    	mov    %eax,0x1681e(%rip)        # 26354 <g_2794>
    fb36:	8b 05 18 68 01 00    	mov    0x16818(%rip),%eax        # 26354 <g_2794>
    fb3c:	83 f8 39             	cmp    $0x39,%eax
    fb3f:	0f 86 84 fe ff ff    	jbe    f9c9 <func_3+0xf5>
    fb45:	c7 05 65 67 01 00 00 	movl   $0x0,0x16765(%rip)        # 262b4 <g_812>
    fb4c:	00 00 00 
    fb4f:	e9 4f 08 00 00       	jmpq   103a3 <func_3+0xacf>
    fb54:	48 8d 05 b5 82 01 00 	lea    0x182b5(%rip),%rax        # 27e10 <g_396>
    fb5b:	48 89 85 f0 f9 ff ff 	mov    %rax,-0x610(%rbp)
    fb62:	48 8d 05 3f 67 01 00 	lea    0x1673f(%rip),%rax        # 262a8 <g_622>
    fb69:	48 89 85 f8 f9 ff ff 	mov    %rax,-0x608(%rbp)
    fb70:	c7 85 50 fa ff ff 56 	movl   $0x7ef1dc56,-0x5b0(%rbp)
    fb77:	dc f1 7e 
    fb7a:	c7 85 54 fa ff ff 56 	movl   $0x7ef1dc56,-0x5ac(%rbp)
    fb81:	dc f1 7e 
    fb84:	c7 85 58 fa ff ff 56 	movl   $0x7ef1dc56,-0x5a8(%rbp)
    fb8b:	dc f1 7e 
    fb8e:	c7 85 5c fa ff ff 56 	movl   $0x7ef1dc56,-0x5a4(%rbp)
    fb95:	dc f1 7e 
    fb98:	c7 85 60 fa ff ff 56 	movl   $0x7ef1dc56,-0x5a0(%rbp)
    fb9f:	dc f1 7e 
    fba2:	c7 85 64 fa ff ff 56 	movl   $0x7ef1dc56,-0x59c(%rbp)
    fba9:	dc f1 7e 
    fbac:	c7 85 68 fa ff ff 56 	movl   $0x7ef1dc56,-0x598(%rbp)
    fbb3:	dc f1 7e 
    fbb6:	c7 85 6c fa ff ff 56 	movl   $0x7ef1dc56,-0x594(%rbp)
    fbbd:	dc f1 7e 
    fbc0:	48 8d 85 20 fc ff ff 	lea    -0x3e0(%rbp),%rax
    fbc7:	48 05 8e 00 00 00    	add    $0x8e,%rax
    fbcd:	48 89 85 00 fa ff ff 	mov    %rax,-0x600(%rbp)
    fbd4:	48 c7 85 08 fa ff ff 	movq   $0x4,-0x5f8(%rbp)
    fbdb:	04 00 00 00 
    fbdf:	0f b7 85 ae fc ff ff 	movzwl -0x352(%rbp),%eax
    fbe6:	66 85 c0             	test   %ax,%ax
    fbe9:	74 0c                	je     fbf7 <func_3+0x323>
    fbeb:	0f b7 85 b4 fc ff ff 	movzwl -0x34c(%rbp),%eax
    fbf2:	e9 e3 07 00 00       	jmpq   103da <func_3+0xb06>
    fbf7:	48 b8 16 62 34 a9 62 	movabs $0x6e94fc62a9346216,%rax
    fbfe:	fc 94 6e 
    fc01:	48 89 85 10 fa ff ff 	mov    %rax,-0x5f0(%rbp)
    fc08:	48 c7 05 25 66 01 00 	movq   $0x0,0x16625(%rip)        # 26238 <g_302>
    fc0f:	00 00 00 00 
    fc13:	90                   	nop
    fc14:	48 8b 05 1d 66 01 00 	mov    0x1661d(%rip),%rax        # 26238 <g_302>
    fc1b:	48 85 c0             	test   %rax,%rax
    fc1e:	78 1f                	js     fc3f <func_3+0x36b>
    fc20:	48 8b 05 11 66 01 00 	mov    0x16611(%rip),%rax        # 26238 <g_302>
    fc27:	48 8d 14 c5 00 00 00 	lea    0x0(,%rax,8),%rdx
    fc2e:	00 
    fc2f:	48 8d 05 0a 67 01 00 	lea    0x1670a(%rip),%rax        # 26340 <g_2768>
    fc36:	48 8b 04 02          	mov    (%rdx,%rax,1),%rax
    fc3a:	e9 9b 07 00 00       	jmpq   103da <func_3+0xb06>
    fc3f:	83 bd 8c f9 ff ff 00 	cmpl   $0x0,-0x674(%rbp)
    fc46:	0f 85 41 07 00 00    	jne    1038d <func_3+0xab9>
    fc4c:	48 8b 85 98 fd ff ff 	mov    -0x268(%rbp),%rax
    fc53:	44 0f b6 e0          	movzbl %al,%r12d
    fc57:	48 8b 05 1a 8e 01 00 	mov    0x18e1a(%rip),%rax        # 28a78 <g_1155>
    fc5e:	48 8b 00             	mov    (%rax),%rax
    fc61:	8b 00                	mov    (%rax),%eax
    fc63:	85 c0                	test   %eax,%eax
    fc65:	0f 84 92 00 00 00    	je     fcfd <func_3+0x429>
    fc6b:	48 8b 85 88 fd ff ff 	mov    -0x278(%rbp),%rax
    fc72:	0f be d0             	movsbl %al,%edx
    fc75:	48 8b 05 c4 81 01 00 	mov    0x181c4(%rip),%rax        # 27e40 <g_479>
    fc7c:	48 8b 00             	mov    (%rax),%rax
    fc7f:	48 85 c0             	test   %rax,%rax
    fc82:	0f 95 c0             	setne  %al
    fc85:	0f b6 c0             	movzbl %al,%eax
    fc88:	33 85 88 f9 ff ff    	xor    -0x678(%rbp),%eax
    fc8e:	89 85 a4 f9 ff ff    	mov    %eax,-0x65c(%rbp)
    fc94:	8b 85 a4 f9 ff ff    	mov    -0x65c(%rbp),%eax
    fc9a:	0f be c0             	movsbl %al,%eax
    fc9d:	89 d6                	mov    %edx,%esi
    fc9f:	89 c7                	mov    %eax,%edi
    fca1:	e8 4c c5 ff ff       	callq  c1f2 <safe_sub_func_int8_t_s_s>
    fca6:	0f be d0             	movsbl %al,%edx
    fca9:	48 8b 05 78 81 01 00 	mov    0x18178(%rip),%rax        # 27e28 <g_433>
    fcb0:	c7 00 1f f2 01 7a    	movl   $0x7a01f21f,(%rax)
    fcb6:	8b 00                	mov    (%rax),%eax
    fcb8:	89 d6                	mov    %edx,%esi
    fcba:	89 c7                	mov    %eax,%edi
    fcbc:	e8 64 d2 ff ff       	callq  cf25 <safe_div_func_uint32_t_u_u>
    fcc1:	89 c0                	mov    %eax,%eax
    fcc3:	be 01 00 00 00       	mov    $0x1,%esi
    fcc8:	48 89 c7             	mov    %rax,%rdi
    fccb:	e8 71 cb ff ff       	callq  c841 <safe_add_func_int64_t_s_s>
    fcd0:	48 85 c0             	test   %rax,%rax
    fcd3:	74 07                	je     fcdc <func_3+0x408>
    fcd5:	b8 01 00 00 00       	mov    $0x1,%eax
    fcda:	eb 05                	jmp    fce1 <func_3+0x40d>
    fcdc:	b8 00 00 00 00       	mov    $0x0,%eax
    fce1:	0f b7 c0             	movzwl %ax,%eax
    fce4:	89 c7                	mov    %eax,%edi
    fce6:	e8 fe cf ff ff       	callq  cce9 <safe_unary_minus_func_uint16_t_u>
    fceb:	0f b6 05 72 64 01 00 	movzbl 0x16472(%rip),%eax        # 26164 <g_164>
    fcf2:	84 c0                	test   %al,%al
    fcf4:	75 07                	jne    fcfd <func_3+0x429>
    fcf6:	83 bd 88 f9 ff ff 00 	cmpl   $0x0,-0x678(%rbp)
    fcfd:	90                   	nop
    fcfe:	48 83 bd e0 f9 ff ff 	cmpq   $0x0,-0x620(%rbp)
    fd05:	00 
    fd06:	0f 95 c0             	setne  %al
    fd09:	0f b6 c0             	movzbl %al,%eax
    fd0c:	23 85 88 f9 ff ff    	and    -0x678(%rbp),%eax
    fd12:	85 c0                	test   %eax,%eax
    fd14:	0f 95 c0             	setne  %al
    fd17:	0f b6 c0             	movzbl %al,%eax
    fd1a:	be 03 00 00 00       	mov    $0x3,%esi
    fd1f:	89 c7                	mov    %eax,%edi
    fd21:	e8 ae c4 ff ff       	callq  c1d4 <safe_add_func_int8_t_s_s>
    fd26:	0f be c0             	movsbl %al,%eax
    fd29:	c7 85 9c f9 ff ff ff 	movl   $0xffffffff,-0x664(%rbp)
    fd30:	ff ff ff 
    fd33:	89 c6                	mov    %eax,%esi
    fd35:	bf ff ff ff ff       	mov    $0xffffffff,%edi
    fd3a:	e8 f2 c4 ff ff       	callq  c231 <safe_mod_func_int8_t_s_s>
    fd3f:	48 8b 1d ba 80 01 00 	mov    0x180ba(%rip),%rbx        # 27e00 <g_87>
    fd46:	be 05 00 00 00       	mov    $0x5,%esi
    fd4b:	bf ff 00 00 00       	mov    $0xff,%edi
    fd50:	e8 3e ce ff ff       	callq  cb93 <safe_mul_func_uint8_t_u_u>
    fd55:	88 03                	mov    %al,(%rbx)
    fd57:	0f b6 03             	movzbl (%rbx),%eax
    fd5a:	0f b6 c0             	movzbl %al,%eax
    fd5d:	44 89 e6             	mov    %r12d,%esi
    fd60:	89 c7                	mov    %eax,%edi
    fd62:	e8 2c ce ff ff       	callq  cb93 <safe_mul_func_uint8_t_u_u>
    fd67:	84 c0                	test   %al,%al
    fd69:	75 08                	jne    fd73 <func_3+0x49f>
    fd6b:	48 83 bd 10 fa ff ff 	cmpq   $0x0,-0x5f0(%rbp)
    fd72:	00 
    fd73:	48 83 bd f0 f9 ff ff 	cmpq   $0x0,-0x610(%rbp)
    fd7a:	00 
    fd7b:	0f 95 c0             	setne  %al
    fd7e:	0f b6 c0             	movzbl %al,%eax
    fd81:	be 01 00 00 00       	mov    $0x1,%esi
    fd86:	89 c7                	mov    %eax,%edi
    fd88:	e8 a8 c5 ff ff       	callq  c335 <safe_rshift_func_int8_t_s_s>
    fd8d:	48 8b 05 04 8d 01 00 	mov    0x18d04(%rip),%rax        # 28a98 <g_1364>
    fd94:	48 8b 00             	mov    (%rax),%rax
    fd97:	48 8b 00             	mov    (%rax),%rax
    fd9a:	48 8b 95 10 fa ff ff 	mov    -0x5f0(%rbp),%rdx
    fda1:	89 10                	mov    %edx,(%rax)
    fda3:	48 8d 15 5e 80 01 00 	lea    0x1805e(%rip),%rdx        # 27e08 <g_296>
    fdaa:	48 8b 85 c8 f9 ff ff 	mov    -0x638(%rbp),%rax
    fdb1:	48 89 02             	mov    %rax,(%rdx)
    fdb4:	48 8b 05 dd 9c 01 00 	mov    0x19cdd(%rip),%rax        # 29a98 <g_3686>
    fdbb:	48 8b 00             	mov    (%rax),%rax
    fdbe:	48 85 c0             	test   %rax,%rax
    fdc1:	0f 94 c0             	sete   %al
    fdc4:	0f b6 d8             	movzbl %al,%ebx
    fdc7:	48 83 bd f0 f9 ff ff 	cmpq   $0x0,-0x610(%rbp)
    fdce:	00 
    fdcf:	0f 94 c0             	sete   %al
    fdd2:	0f b6 c0             	movzbl %al,%eax
    fdd5:	66 89 05 b2 65 01 00 	mov    %ax,0x165b2(%rip)        # 2638e <g_4103>
    fddc:	0f b7 05 ab 65 01 00 	movzwl 0x165ab(%rip),%eax        # 2638e <g_4103>
    fde3:	44 0f b7 e0          	movzwl %ax,%r12d
    fde7:	be 0d 00 00 00       	mov    $0xd,%esi
    fdec:	bf 01 00 00 00       	mov    $0x1,%edi
    fdf1:	e8 52 d0 ff ff       	callq  ce48 <safe_rshift_func_uint16_t_u_s>
    fdf6:	0f b7 c0             	movzwl %ax,%eax
    fdf9:	44 89 e6             	mov    %r12d,%esi
    fdfc:	89 c7                	mov    %eax,%edi
    fdfe:	e8 3a cf ff ff       	callq  cd3d <safe_mul_func_uint16_t_u_u>
    fe03:	44 0f b7 e0          	movzwl %ax,%r12d
    fe07:	8b 85 8c f9 ff ff    	mov    -0x674(%rbp),%eax
    fe0d:	0f b7 c0             	movzwl %ax,%eax
    fe10:	be 03 00 00 00       	mov    $0x3,%esi
    fe15:	89 c7                	mov    %eax,%edi
    fe17:	e8 2c d0 ff ff       	callq  ce48 <safe_rshift_func_uint16_t_u_s>
    fe1c:	0f b7 c0             	movzwl %ax,%eax
    fe1f:	89 c6                	mov    %eax,%esi
    fe21:	bf 7a b9 ff ff       	mov    $0xffffb97a,%edi
    fe26:	e8 38 c7 ff ff       	callq  c563 <safe_rshift_func_int16_t_s_u>
    fe2b:	89 c2                	mov    %eax,%edx
    fe2d:	48 8b 05 cc 7f 01 00 	mov    0x17fcc(%rip),%rax        # 27e00 <g_87>
    fe34:	88 10                	mov    %dl,(%rax)
    fe36:	0f b6 00             	movzbl (%rax),%eax
    fe39:	0f b6 c0             	movzbl %al,%eax
    fe3c:	44 89 e6             	mov    %r12d,%esi
    fe3f:	89 c7                	mov    %eax,%edi
    fe41:	e8 bf cd ff ff       	callq  cc05 <safe_lshift_func_uint8_t_u_s>
    fe46:	0f b6 c0             	movzbl %al,%eax
    fe49:	66 89 05 c8 62 01 00 	mov    %ax,0x162c8(%rip)        # 26118 <g_100+0x38>
    fe50:	48 8b 85 f8 f9 ff ff 	mov    -0x608(%rbp),%rax
    fe57:	8b 95 8c f9 ff ff    	mov    -0x674(%rbp),%edx
    fe5d:	89 10                	mov    %edx,(%rax)
    fe5f:	8b 85 60 fa ff ff    	mov    -0x5a0(%rbp),%eax
    fe65:	0f b6 c0             	movzbl %al,%eax
    fe68:	89 de                	mov    %ebx,%esi
    fe6a:	89 c7                	mov    %eax,%edi
    fe6c:	e8 94 cd ff ff       	callq  cc05 <safe_lshift_func_uint8_t_u_s>
    fe71:	0f b6 d0             	movzbl %al,%edx
    fe74:	48 8b 85 00 fa ff ff 	mov    -0x600(%rbp),%rax
    fe7b:	66 89 10             	mov    %dx,(%rax)
    fe7e:	48 8b 85 00 fa ff ff 	mov    -0x600(%rbp),%rax
    fe85:	0f b7 00             	movzwl (%rax),%eax
    fe88:	0f bf d0             	movswl %ax,%edx
    fe8b:	48 8b 05 06 8c 01 00 	mov    0x18c06(%rip),%rax        # 28a98 <g_1364>
    fe92:	48 8b 00             	mov    (%rax),%rax
    fe95:	48 8b 00             	mov    (%rax),%rax
    fe98:	33 95 88 f9 ff ff    	xor    -0x678(%rbp),%edx
    fe9e:	89 10                	mov    %edx,(%rax)
    fea0:	c7 05 32 64 01 00 00 	movl   $0x0,0x16432(%rip)        # 262dc <g_1943>
    fea7:	00 00 00 
    feaa:	e9 cd 04 00 00       	jmpq   1037c <func_3+0xaa8>
    feaf:	48 8d 85 9c f9 ff ff 	lea    -0x664(%rbp),%rax
    feb6:	48 89 85 18 fa ff ff 	mov    %rax,-0x5e8(%rbp)
    febd:	8b 95 88 f9 ff ff    	mov    -0x678(%rbp),%edx
    fec3:	8b 05 bf af 01 00    	mov    0x1afbf(%rip),%eax        # 2ae88 <g_421>
    fec9:	39 c2                	cmp    %eax,%edx
    fecb:	0f 97 c0             	seta   %al
    fece:	0f b6 d0             	movzbl %al,%edx
    fed1:	48 8b 85 18 fa ff ff 	mov    -0x5e8(%rbp),%rax
    fed8:	89 10                	mov    %edx,(%rax)
    feda:	48 8b 85 18 fa ff ff 	mov    -0x5e8(%rbp),%rax
    fee1:	8b 00                	mov    (%rax),%eax
    fee3:	85 c0                	test   %eax,%eax
    fee5:	74 19                	je     ff00 <func_3+0x62c>
    fee7:	48 8b 05 ca 8c 01 00 	mov    0x18cca(%rip),%rax        # 28bb8 <g_1936>
    feee:	48 8b 00             	mov    (%rax),%rax
    fef1:	48 8b 95 18 fa ff ff 	mov    -0x5e8(%rbp),%rdx
    fef8:	48 89 10             	mov    %rdx,(%rax)
    fefb:	e9 61 04 00 00       	jmpq   10361 <func_3+0xa8d>
    ff00:	c6 85 9a f9 ff ff 83 	movb   $0x83,-0x666(%rbp)
    ff07:	48 8d 05 c2 af 01 00 	lea    0x1afc2(%rip),%rax        # 2aed0 <g_1215>
    ff0e:	48 89 85 20 fa ff ff 	mov    %rax,-0x5e0(%rbp)
    ff15:	c7 85 ac f9 ff ff 3b 	movl   $0x6e36a53b,-0x654(%rbp)
    ff1c:	a5 36 6e 
    ff1f:	c6 85 9b f9 ff ff fd 	movb   $0xfd,-0x665(%rbp)
    ff26:	48 c7 85 28 fa ff ff 	movq   $0x0,-0x5d8(%rbp)
    ff2d:	00 00 00 00 
    ff31:	48 8d 05 b0 8d 01 00 	lea    0x18db0(%rip),%rax        # 28ce8 <g_2593+0x8>
    ff38:	48 89 85 c0 f9 ff ff 	mov    %rax,-0x640(%rbp)
    ff3f:	8b 85 88 f9 ff ff    	mov    -0x678(%rbp),%eax
    ff45:	0f be d8             	movsbl %al,%ebx
    ff48:	44 8b a5 8c f9 ff ff 	mov    -0x674(%rbp),%r12d
    ff4f:	48 8b 05 aa 7e 01 00 	mov    0x17eaa(%rip),%rax        # 27e00 <g_87>
    ff56:	c6 00 00             	movb   $0x0,(%rax)
    ff59:	be 00 00 00 00       	mov    $0x0,%esi
    ff5e:	bf 89 00 00 00       	mov    $0x89,%edi
    ff63:	e8 f2 cb ff ff       	callq  cb5a <safe_add_func_uint8_t_u_u>
    ff68:	44 0f be e8          	movsbl %al,%r13d
    ff6c:	48 8b 85 18 fa ff ff 	mov    -0x5e8(%rbp),%rax
    ff73:	8b 00                	mov    (%rax),%eax
    ff75:	0f b6 c0             	movzbl %al,%eax
    ff78:	be 03 00 00 00       	mov    $0x3,%esi
    ff7d:	89 c7                	mov    %eax,%edi
    ff7f:	e8 81 cc ff ff       	callq  cc05 <safe_lshift_func_uint8_t_u_s>
    ff84:	0f be c0             	movsbl %al,%eax
    ff87:	44 89 ee             	mov    %r13d,%esi
    ff8a:	89 c7                	mov    %eax,%edi
    ff8c:	e8 81 c2 ff ff       	callq  c212 <safe_mul_func_int8_t_s_s>
    ff91:	44 0f be e8          	movsbl %al,%r13d
    ff95:	48 8b 85 18 fa ff ff 	mov    -0x5e8(%rbp),%rax
    ff9c:	8b 00                	mov    (%rax),%eax
    ff9e:	85 c0                	test   %eax,%eax
    ffa0:	74 40                	je     ffe2 <func_3+0x70e>
    ffa2:	0f be 85 9a f9 ff ff 	movsbl -0x666(%rbp),%eax
    ffa9:	39 85 88 f9 ff ff    	cmp    %eax,-0x678(%rbp)
    ffaf:	0f 94 c0             	sete   %al
    ffb2:	44 0f b6 f0          	movzbl %al,%r14d
    ffb6:	8b 85 88 f9 ff ff    	mov    -0x678(%rbp),%eax
    ffbc:	83 c8 01             	or     $0x1,%eax
    ffbf:	0f be c0             	movsbl %al,%eax
    ffc2:	8b 95 a8 f9 ff ff    	mov    -0x658(%rbp),%edx
    ffc8:	89 d6                	mov    %edx,%esi
    ffca:	89 c7                	mov    %eax,%edi
    ffcc:	e8 64 c3 ff ff       	callq  c335 <safe_rshift_func_int8_t_s_s>
    ffd1:	0f be c0             	movsbl %al,%eax
    ffd4:	44 09 f0             	or     %r14d,%eax
    ffd7:	85 c0                	test   %eax,%eax
    ffd9:	74 07                	je     ffe2 <func_3+0x70e>
    ffdb:	b8 01 00 00 00       	mov    $0x1,%eax
    ffe0:	eb 05                	jmp    ffe7 <func_3+0x713>
    ffe2:	b8 00 00 00 00       	mov    $0x0,%eax
    ffe7:	44 21 e8             	and    %r13d,%eax
    ffea:	48 98                	cltq   
    ffec:	4c 89 e6             	mov    %r12,%rsi
    ffef:	48 89 c7             	mov    %rax,%rdi
    fff2:	e8 00 ca ff ff       	callq  c9f7 <safe_div_func_int64_t_s_s>
    fff7:	98                   	cwtl   
    fff8:	be 05 00 00 00       	mov    $0x5,%esi
    fffd:	89 c7                	mov    %eax,%edi
    ffff:	e8 dd c4 ff ff       	callq  c4e1 <safe_lshift_func_int16_t_s_u>
   10004:	98                   	cwtl   
   10005:	be 19 97 ba 50       	mov    $0x50ba9719,%esi
   1000a:	89 c7                	mov    %eax,%edi
   1000c:	e8 bb c6 ff ff       	callq  c6cc <safe_mod_func_int32_t_s_s>
   10011:	0f be c0             	movsbl %al,%eax
   10014:	89 de                	mov    %ebx,%esi
   10016:	89 c7                	mov    %eax,%edi
   10018:	e8 d5 c1 ff ff       	callq  c1f2 <safe_sub_func_int8_t_s_s>
   1001d:	84 c0                	test   %al,%al
   1001f:	75 0d                	jne    1002e <func_3+0x75a>
   10021:	48 8b 85 18 fa ff ff 	mov    -0x5e8(%rbp),%rax
   10028:	8b 00                	mov    (%rax),%eax
   1002a:	85 c0                	test   %eax,%eax
   1002c:	74 23                	je     10051 <func_3+0x77d>
   1002e:	80 bd 9a f9 ff ff 00 	cmpb   $0x0,-0x666(%rbp)
   10035:	0f 85 55 03 00 00    	jne    10390 <func_3+0xabc>
   1003b:	48 8b 05 26 8c 01 00 	mov    0x18c26(%rip),%rax        # 28c68 <g_2388>
   10042:	48 8b 95 d0 f9 ff ff 	mov    -0x630(%rbp),%rdx
   10049:	48 89 10             	mov    %rdx,(%rax)
   1004c:	e9 39 02 00 00       	jmpq   1028a <func_3+0x9b6>
   10051:	48 8d 05 a0 61 01 00 	lea    0x161a0(%rip),%rax        # 261f8 <g_244>
   10058:	48 89 85 30 fa ff ff 	mov    %rax,-0x5d0(%rbp)
   1005f:	c7 85 b0 f9 ff ff 11 	movl   $0xf2a02e11,-0x650(%rbp)
   10066:	2e a0 f2 
   10069:	48 c7 85 38 fa ff ff 	movq   $0x0,-0x5c8(%rbp)
   10070:	00 00 00 00 
   10074:	48 8d 05 d7 60 01 00 	lea    0x160d7(%rip),%rax        # 26152 <g_100+0x72>
   1007b:	48 89 85 e0 fa ff ff 	mov    %rax,-0x520(%rbp)
   10082:	48 8d 05 c9 60 01 00 	lea    0x160c9(%rip),%rax        # 26152 <g_100+0x72>
   10089:	48 89 85 e8 fa ff ff 	mov    %rax,-0x518(%rbp)
   10090:	48 8d 05 bb 60 01 00 	lea    0x160bb(%rip),%rax        # 26152 <g_100+0x72>
   10097:	48 89 85 f0 fa ff ff 	mov    %rax,-0x510(%rbp)
   1009e:	48 8d 05 ad 60 01 00 	lea    0x160ad(%rip),%rax        # 26152 <g_100+0x72>
   100a5:	48 89 85 f8 fa ff ff 	mov    %rax,-0x508(%rbp)
   100ac:	c7 85 b4 f9 ff ff fe 	movl   $0xfffffffe,-0x64c(%rbp)
   100b3:	ff ff ff 
   100b6:	0f be 85 9a f9 ff ff 	movsbl -0x666(%rbp),%eax
   100bd:	be 00 00 00 00       	mov    $0x0,%esi
   100c2:	89 c7                	mov    %eax,%edi
   100c4:	e8 49 c1 ff ff       	callq  c212 <safe_mul_func_int8_t_s_s>
   100c9:	0f be d8             	movsbl %al,%ebx
   100cc:	8b 05 be 62 01 00    	mov    0x162be(%rip),%eax        # 26390 <g_4134>
   100d2:	0f b7 c0             	movzwl %ax,%eax
   100d5:	be 0b 00 00 00       	mov    $0xb,%esi
   100da:	89 c7                	mov    %eax,%edi
   100dc:	e8 dd cc ff ff       	callq  cdbe <safe_lshift_func_uint16_t_u_s>
   100e1:	48 8b 85 20 fa ff ff 	mov    -0x5e0(%rbp),%rax
   100e8:	48 3b 85 e8 f9 ff ff 	cmp    -0x618(%rbp),%rax
   100ef:	0f 94 c0             	sete   %al
   100f2:	0f b6 c0             	movzbl %al,%eax
   100f5:	89 de                	mov    %ebx,%esi
   100f7:	89 c7                	mov    %eax,%edi
   100f9:	e8 b5 c2 ff ff       	callq  c3b3 <safe_add_func_int16_t_s_s>
   100fe:	98                   	cwtl   
   100ff:	89 85 ac f9 ff ff    	mov    %eax,-0x654(%rbp)
   10105:	8b 85 88 f9 ff ff    	mov    -0x678(%rbp),%eax
   1010b:	0f b6 d8             	movzbl %al,%ebx
   1010e:	8b 85 88 f9 ff ff    	mov    -0x678(%rbp),%eax
   10114:	44 0f b6 e0          	movzbl %al,%r12d
   10118:	48 8b 05 41 8c 01 00 	mov    0x18c41(%rip),%rax        # 28d60 <g_2685>
   1011f:	48 8b 00             	mov    (%rax),%rax
   10122:	48 8b 00             	mov    (%rax),%rax
   10125:	0f b6 00             	movzbl (%rax),%eax
   10128:	44 0f b6 e8          	movzbl %al,%r13d
   1012c:	48 83 bd f0 f9 ff ff 	cmpq   $0x0,-0x610(%rbp)
   10133:	00 
   10134:	0f 94 c0             	sete   %al
   10137:	0f b6 c0             	movzbl %al,%eax
   1013a:	be 05 00 00 00       	mov    $0x5,%esi
   1013f:	89 c7                	mov    %eax,%edi
   10141:	e8 02 cd ff ff       	callq  ce48 <safe_rshift_func_uint16_t_u_s>
   10146:	66 41 39 c5          	cmp    %ax,%r13w
   1014a:	0f 96 c0             	setbe  %al
   1014d:	0f b6 d0             	movzbl %al,%edx
   10150:	48 8b 85 18 fa ff ff 	mov    -0x5e8(%rbp),%rax
   10157:	89 10                	mov    %edx,(%rax)
   10159:	48 8b 85 18 fa ff ff 	mov    -0x5e8(%rbp),%rax
   10160:	8b 00                	mov    (%rax),%eax
   10162:	48 63 d0             	movslq %eax,%rdx
   10165:	48 8b 85 30 fa ff ff 	mov    -0x5d0(%rbp),%rax
   1016c:	48 89 10             	mov    %rdx,(%rax)
   1016f:	48 8b 85 30 fa ff ff 	mov    -0x5d0(%rbp),%rax
   10176:	4c 8b 30             	mov    (%rax),%r14
   10179:	8b 85 b0 f9 ff ff    	mov    -0x650(%rbp),%eax
   1017f:	44 0f b6 e8          	movzbl %al,%r13d
   10183:	0f b6 85 9b f9 ff ff 	movzbl -0x665(%rbp),%eax
   1018a:	8d 50 ff             	lea    -0x1(%rax),%edx
   1018d:	88 95 9b f9 ff ff    	mov    %dl,-0x665(%rbp)
   10193:	44 0f b6 f8          	movzbl %al,%r15d
   10197:	48 8b 85 08 fa ff ff 	mov    -0x5f8(%rbp),%rax
   1019e:	66 89 05 89 60 01 00 	mov    %ax,0x16089(%rip)        # 2622e <g_287>
   101a5:	83 bd 88 f9 ff ff 00 	cmpl   $0x0,-0x678(%rbp)
   101ac:	74 07                	je     101b5 <func_3+0x8e1>
   101ae:	b8 01 00 00 00       	mov    $0x1,%eax
   101b3:	eb 05                	jmp    101ba <func_3+0x8e6>
   101b5:	b8 00 00 00 00       	mov    $0x0,%eax
   101ba:	0f b7 d0             	movzwl %ax,%edx
   101bd:	8b 85 b0 f9 ff ff    	mov    -0x650(%rbp),%eax
   101c3:	0f b7 c0             	movzwl %ax,%eax
   101c6:	89 d6                	mov    %edx,%esi
   101c8:	89 c7                	mov    %eax,%edi
   101ca:	e8 6e cb ff ff       	callq  cd3d <safe_mul_func_uint16_t_u_u>
   101cf:	66 41 39 c7          	cmp    %ax,%r15w
   101d3:	0f 95 c0             	setne  %al
   101d6:	89 c2                	mov    %eax,%edx
   101d8:	8b 85 88 f9 ff ff    	mov    -0x678(%rbp),%eax
   101de:	31 d0                	xor    %edx,%eax
   101e0:	0f b6 c0             	movzbl %al,%eax
   101e3:	44 89 ee             	mov    %r13d,%esi
   101e6:	89 c7                	mov    %eax,%edi
   101e8:	e8 6d c9 ff ff       	callq  cb5a <safe_add_func_uint8_t_u_u>
   101ed:	0f b6 c0             	movzbl %al,%eax
   101f0:	39 85 88 f9 ff ff    	cmp    %eax,-0x678(%rbp)
   101f6:	0f 9e c0             	setle  %al
   101f9:	0f b6 d0             	movzbl %al,%edx
   101fc:	0f b6 05 4d ad 01 00 	movzbl 0x1ad4d(%rip),%eax        # 2af50 <g_4163>
   10203:	0f b6 c0             	movzbl %al,%eax
   10206:	31 d0                	xor    %edx,%eax
   10208:	48 98                	cltq   
   1020a:	49 39 c6             	cmp    %rax,%r14
   1020d:	0f 95 c0             	setne  %al
   10210:	0f b6 c0             	movzbl %al,%eax
   10213:	44 89 e6             	mov    %r12d,%esi
   10216:	89 c7                	mov    %eax,%edi
   10218:	e8 91 c9 ff ff       	callq  cbae <safe_mod_func_uint8_t_u_u>
   1021d:	8b 85 88 f9 ff ff    	mov    -0x678(%rbp),%eax
   10223:	48 98                	cltq   
   10225:	48 39 85 d8 f9 ff ff 	cmp    %rax,-0x628(%rbp)
   1022c:	0f 96 c0             	setbe  %al
   1022f:	89 c1                	mov    %eax,%ecx
   10231:	8b 85 88 f9 ff ff    	mov    -0x678(%rbp),%eax
   10237:	89 c2                	mov    %eax,%edx
   10239:	48 8b 05 d8 7b 01 00 	mov    0x17bd8(%rip),%rax        # 27e18 <g_410>
   10240:	21 ca                	and    %ecx,%edx
   10242:	88 10                	mov    %dl,(%rax)
   10244:	0f b6 00             	movzbl (%rax),%eax
   10247:	0f b6 c0             	movzbl %al,%eax
   1024a:	83 e0 06             	and    $0x6,%eax
   1024d:	89 c2                	mov    %eax,%edx
   1024f:	8b 85 88 f9 ff ff    	mov    -0x678(%rbp),%eax
   10255:	89 c6                	mov    %eax,%esi
   10257:	89 d7                	mov    %edx,%edi
   10259:	e8 2f ca ff ff       	callq  cc8d <safe_rshift_func_uint8_t_u_s>
   1025e:	0f be d0             	movsbl %al,%edx
   10261:	8b 85 88 f9 ff ff    	mov    -0x678(%rbp),%eax
   10267:	0f be c0             	movsbl %al,%eax
   1026a:	89 d6                	mov    %edx,%esi
   1026c:	89 c7                	mov    %eax,%edi
   1026e:	e8 9f bf ff ff       	callq  c212 <safe_mul_func_int8_t_s_s>
   10273:	0f b6 c0             	movzbl %al,%eax
   10276:	89 de                	mov    %ebx,%esi
   10278:	89 c7                	mov    %eax,%edi
   1027a:	e8 2f c9 ff ff       	callq  cbae <safe_mod_func_uint8_t_u_u>
   1027f:	48 c7 85 28 fa ff ff 	movq   $0x0,-0x5d8(%rbp)
   10286:	00 00 00 00 
   1028a:	c7 05 c4 60 01 00 00 	movl   $0x0,0x160c4(%rip)        # 26358 <g_2795>
   10291:	00 00 00 
   10294:	e9 b0 00 00 00       	jmpq   10349 <func_3+0xa75>
   10299:	48 8d 85 c0 f9 ff ff 	lea    -0x640(%rbp),%rax
   102a0:	48 89 85 40 fa ff ff 	mov    %rax,-0x5c0(%rbp)
   102a7:	c7 85 a0 f9 ff ff 00 	movl   $0x0,-0x660(%rbp)
   102ae:	00 00 00 
   102b1:	eb 1a                	jmp    102cd <func_3+0x9f9>
   102b3:	8b 85 a0 f9 ff ff    	mov    -0x660(%rbp),%eax
   102b9:	48 98                	cltq   
   102bb:	c7 84 85 e0 fa ff ff 	movl   $0x2,-0x520(%rbp,%rax,4)
   102c2:	02 00 00 00 
   102c6:	83 85 a0 f9 ff ff 01 	addl   $0x1,-0x660(%rbp)
   102cd:	83 bd a0 f9 ff ff 03 	cmpl   $0x3,-0x660(%rbp)
   102d4:	7e dd                	jle    102b3 <func_3+0x9df>
   102d6:	8b 95 e8 fa ff ff    	mov    -0x518(%rbp),%edx
   102dc:	48 8b 05 b5 87 01 00 	mov    0x187b5(%rip),%rax        # 28a98 <g_1364>
   102e3:	48 8b 00             	mov    (%rax),%rax
   102e6:	48 8b 00             	mov    (%rax),%rax
   102e9:	89 10                	mov    %edx,(%rax)
   102eb:	83 bd 88 f9 ff ff 00 	cmpl   $0x0,-0x678(%rbp)
   102f2:	75 45                	jne    10339 <func_3+0xa65>
   102f4:	48 8b 95 c0 f9 ff ff 	mov    -0x640(%rbp),%rdx
   102fb:	48 8b 85 40 fa ff ff 	mov    -0x5c0(%rbp),%rax
   10302:	48 89 10             	mov    %rdx,(%rax)
   10305:	83 bd 88 f9 ff ff 00 	cmpl   $0x0,-0x678(%rbp)
   1030c:	75 14                	jne    10322 <func_3+0xa4e>
   1030e:	48 8b 05 13 7b 01 00 	mov    0x17b13(%rip),%rax        # 27e28 <g_433>
   10315:	8b 10                	mov    (%rax),%edx
   10317:	83 ea 01             	sub    $0x1,%edx
   1031a:	89 10                	mov    %edx,(%rax)
   1031c:	8b 00                	mov    (%rax),%eax
   1031e:	85 c0                	test   %eax,%eax
   10320:	74 07                	je     10329 <func_3+0xa55>
   10322:	ba 01 00 00 00       	mov    $0x1,%edx
   10327:	eb 05                	jmp    1032e <func_3+0xa5a>
   10329:	ba 00 00 00 00       	mov    $0x0,%edx
   1032e:	48 8b 85 18 fa ff ff 	mov    -0x5e8(%rbp),%rax
   10335:	89 10                	mov    %edx,(%rax)
   10337:	eb 01                	jmp    1033a <func_3+0xa66>
   10339:	90                   	nop
   1033a:	8b 05 18 60 01 00    	mov    0x16018(%rip),%eax        # 26358 <g_2795>
   10340:	83 c0 01             	add    $0x1,%eax
   10343:	89 05 0f 60 01 00    	mov    %eax,0x1600f(%rip)        # 26358 <g_2795>
   10349:	8b 05 09 60 01 00    	mov    0x16009(%rip),%eax        # 26358 <g_2795>
   1034f:	83 f8 06             	cmp    $0x6,%eax
   10352:	0f 87 41 ff ff ff    	ja     10299 <func_3+0x9c5>
   10358:	83 bd 8c f9 ff ff 00 	cmpl   $0x0,-0x674(%rbp)
   1035f:	75 32                	jne    10393 <func_3+0xabf>
   10361:	8b 05 75 5f 01 00    	mov    0x15f75(%rip),%eax        # 262dc <g_1943>
   10367:	48 98                	cltq   
   10369:	be 05 00 00 00       	mov    $0x5,%esi
   1036e:	48 89 c7             	mov    %rax,%rdi
   10371:	e8 b8 cc ff ff       	callq  d02e <safe_add_func_uint64_t_u_u>
   10376:	89 05 60 5f 01 00    	mov    %eax,0x15f60(%rip)        # 262dc <g_1943>
   1037c:	8b 05 5a 5f 01 00    	mov    0x15f5a(%rip),%eax        # 262dc <g_1943>
   10382:	83 f8 17             	cmp    $0x17,%eax
   10385:	0f 8f 24 fb ff ff    	jg     feaf <func_3+0x5db>
   1038b:	eb 07                	jmp    10394 <func_3+0xac0>
   1038d:	90                   	nop
   1038e:	eb 04                	jmp    10394 <func_3+0xac0>
   10390:	90                   	nop
   10391:	eb 01                	jmp    10394 <func_3+0xac0>
   10393:	90                   	nop
   10394:	8b 05 1a 5f 01 00    	mov    0x15f1a(%rip),%eax        # 262b4 <g_812>
   1039a:	83 c0 01             	add    $0x1,%eax
   1039d:	89 05 11 5f 01 00    	mov    %eax,0x15f11(%rip)        # 262b4 <g_812>
   103a3:	8b 05 0b 5f 01 00    	mov    0x15f0b(%rip),%eax        # 262b4 <g_812>
   103a9:	83 f8 10             	cmp    $0x10,%eax
   103ac:	0f 84 a2 f7 ff ff    	je     fb54 <func_3+0x280>
   103b2:	0f b7 05 37 5e 01 00 	movzwl 0x15e37(%rip),%eax        # 261f0 <g_218>
   103b9:	83 c0 01             	add    $0x1,%eax
   103bc:	66 89 05 2d 5e 01 00 	mov    %ax,0x15e2d(%rip)        # 261f0 <g_218>
   103c3:	0f b7 05 26 5e 01 00 	movzwl 0x15e26(%rip),%eax        # 261f0 <g_218>
   103ca:	66 83 f8 13          	cmp    $0x13,%ax
   103ce:	0f 8f a4 f5 ff ff    	jg     f978 <func_3+0xa4>
   103d4:	8b 85 8c f9 ff ff    	mov    -0x674(%rbp),%eax
   103da:	48 8b 4d c8          	mov    -0x38(%rbp),%rcx
   103de:	64 48 33 0c 25 28 00 	xor    %fs:0x28,%rcx
   103e5:	00 00 
   103e7:	74 05                	je     103ee <func_3+0xb1a>
   103e9:	e8 82 bc ff ff       	callq  c070 <__stack_chk_fail@plt>
   103ee:	48 81 c4 58 06 00 00 	add    $0x658,%rsp
   103f5:	5b                   	pop    %rbx
   103f6:	41 5c                	pop    %r12
   103f8:	41 5d                	pop    %r13
   103fa:	41 5e                	pop    %r14
   103fc:	41 5f                	pop    %r15
   103fe:	5d                   	pop    %rbp
   103ff:	c3                   	retq   

0000000000010400 <func_8>:
   10400:	f3 0f 1e fa          	endbr64 
   10404:	55                   	push   %rbp
   10405:	48 89 e5             	mov    %rsp,%rbp
   10408:	41 57                	push   %r15
   1040a:	41 56                	push   %r14
   1040c:	41 55                	push   %r13
   1040e:	41 54                	push   %r12
   10410:	53                   	push   %rbx
   10411:	48 83 ec 50          	sub    $0x50,%rsp
   10415:	89 f8                	mov    %edi,%eax
   10417:	48 89 75 88          	mov    %rsi,-0x78(%rbp)
   1041b:	88 45 94             	mov    %al,-0x6c(%rbp)
   1041e:	48 8d 05 ab aa 01 00 	lea    0x1aaab(%rip),%rax        # 2aed0 <g_1215>
   10425:	48 89 45 b0          	mov    %rax,-0x50(%rbp)
   10429:	c7 45 a4 ff ff ff ff 	movl   $0xffffffff,-0x5c(%rbp)
   10430:	c7 45 a8 f9 ff ff ff 	movl   $0xfffffff9,-0x58(%rbp)
   10437:	48 c7 45 b8 00 00 00 	movq   $0x0,-0x48(%rbp)
   1043e:	00 
   1043f:	c7 45 ac 08 00 00 00 	movl   $0x8,-0x54(%rbp)
   10446:	c6 45 a3 fe          	movb   $0xfe,-0x5d(%rbp)
   1044a:	48 8d 05 dd 5d 01 00 	lea    0x15ddd(%rip),%rax        # 2622e <g_287>
   10451:	48 89 45 c0          	mov    %rax,-0x40(%rbp)
   10455:	48 8d 05 00 5f 01 00 	lea    0x15f00(%rip),%rax        # 2635c <g_2856>
   1045c:	48 89 45 c8          	mov    %rax,-0x38(%rbp)
   10460:	48 8d 05 99 79 01 00 	lea    0x17999(%rip),%rax        # 27e00 <g_87>
   10467:	48 89 45 d0          	mov    %rax,-0x30(%rbp)
   1046b:	8b 45 a4             	mov    -0x5c(%rbp),%eax
   1046e:	89 c2                	mov    %eax,%edx
   10470:	48 8b 05 89 79 01 00 	mov    0x17989(%rip),%rax        # 27e00 <g_87>
   10477:	f7 d2                	not    %edx
   10479:	88 10                	mov    %dl,(%rax)
   1047b:	0f b6 00             	movzbl (%rax),%eax
   1047e:	84 c0                	test   %al,%al
   10480:	74 0d                	je     1048f <func_8+0x8f>
   10482:	83 7d a4 00          	cmpl   $0x0,-0x5c(%rbp)
   10486:	74 07                	je     1048f <func_8+0x8f>
   10488:	b8 01 00 00 00       	mov    $0x1,%eax
   1048d:	eb 05                	jmp    10494 <func_8+0x94>
   1048f:	b8 00 00 00 00       	mov    $0x0,%eax
   10494:	89 c3                	mov    %eax,%ebx
   10496:	8b 45 a4             	mov    -0x5c(%rbp),%eax
   10499:	0f bf d0             	movswl %ax,%edx
   1049c:	0f b6 45 94          	movzbl -0x6c(%rbp),%eax
   104a0:	89 d6                	mov    %edx,%esi
   104a2:	89 c7                	mov    %eax,%edi
   104a4:	e8 4c bf ff ff       	callq  c3f5 <safe_mul_func_int16_t_s_s>
   104a9:	21 d8                	and    %ebx,%eax
   104ab:	0f be d0             	movsbl %al,%edx
   104ae:	48 83 7d b0 00       	cmpq   $0x0,-0x50(%rbp)
   104b3:	0f 94 c0             	sete   %al
   104b6:	0f b6 c0             	movzbl %al,%eax
   104b9:	89 d6                	mov    %edx,%esi
   104bb:	89 c7                	mov    %eax,%edi
   104bd:	e8 50 bd ff ff       	callq  c212 <safe_mul_func_int8_t_s_s>
   104c2:	0f be d0             	movsbl %al,%edx
   104c5:	0f b6 45 94          	movzbl -0x6c(%rbp),%eax
   104c9:	39 c2                	cmp    %eax,%edx
   104cb:	48 8b 05 56 79 01 00 	mov    0x17956(%rip),%rax        # 27e28 <g_433>
   104d2:	8b 10                	mov    (%rax),%edx
   104d4:	83 ea 01             	sub    $0x1,%edx
   104d7:	89 10                	mov    %edx,(%rax)
   104d9:	8b 00                	mov    (%rax),%eax
   104db:	85 c0                	test   %eax,%eax
   104dd:	0f 95 c0             	setne  %al
   104e0:	0f b6 c0             	movzbl %al,%eax
   104e3:	39 45 a4             	cmp    %eax,-0x5c(%rbp)
   104e6:	0f 9d c0             	setge  %al
   104e9:	0f b6 c0             	movzbl %al,%eax
   104ec:	48 39 45 88          	cmp    %rax,-0x78(%rbp)
   104f0:	48 8b 05 39 79 01 00 	mov    0x17939(%rip),%rax        # 27e30 <g_481>
   104f7:	0f b7 00             	movzwl (%rax),%eax
   104fa:	98                   	cwtl   
   104fb:	23 45 a4             	and    -0x5c(%rbp),%eax
   104fe:	89 45 a8             	mov    %eax,-0x58(%rbp)
   10501:	8b 45 a4             	mov    -0x5c(%rbp),%eax
   10504:	0f be d8             	movsbl %al,%ebx
   10507:	48 8b 45 88          	mov    -0x78(%rbp),%rax
   1050b:	89 45 90             	mov    %eax,-0x70(%rbp)
   1050e:	44 0f be 65 a3       	movsbl -0x5d(%rbp),%r12d
   10513:	8b 05 93 5c 01 00    	mov    0x15c93(%rip),%eax        # 261ac <g_211+0x2c>
   10519:	44 0f b7 e8          	movzwl %ax,%r13d
   1051d:	8b 45 a4             	mov    -0x5c(%rbp),%eax
   10520:	0f be c0             	movsbl %al,%eax
   10523:	89 c6                	mov    %eax,%esi
   10525:	bf b9 ff ff ff       	mov    $0xffffffb9,%edi
   1052a:	e8 02 bd ff ff       	callq  c231 <safe_mod_func_int8_t_s_s>
   1052f:	44 0f be f0          	movsbl %al,%r14d
   10533:	8b 45 a4             	mov    -0x5c(%rbp),%eax
   10536:	4c 63 f8             	movslq %eax,%r15
   10539:	48 83 7d 88 00       	cmpq   $0x0,-0x78(%rbp)
   1053e:	74 0e                	je     1054e <func_8+0x14e>
   10540:	48 83 7d 88 00       	cmpq   $0x0,-0x78(%rbp)
   10545:	74 07                	je     1054e <func_8+0x14e>
   10547:	b8 01 00 00 00       	mov    $0x1,%eax
   1054c:	eb 05                	jmp    10553 <func_8+0x153>
   1054e:	b8 00 00 00 00       	mov    $0x0,%eax
   10553:	48 98                	cltq   
   10555:	48 8b 55 88          	mov    -0x78(%rbp),%rdx
   10559:	48 89 d6             	mov    %rdx,%rsi
   1055c:	48 89 c7             	mov    %rax,%rdi
   1055f:	e8 93 c4 ff ff       	callq  c9f7 <safe_div_func_int64_t_s_s>
   10564:	0f b6 15 5e 5d 01 00 	movzbl 0x15d5e(%rip),%edx        # 262c9 <g_1299>
   1056b:	48 0f be d2          	movsbq %dl,%rdx
   1056f:	48 31 d0             	xor    %rdx,%rax
   10572:	49 39 c7             	cmp    %rax,%r15
   10575:	0f 9f c0             	setg   %al
   10578:	0f b6 c0             	movzbl %al,%eax
   1057b:	44 31 f0             	xor    %r14d,%eax
   1057e:	89 45 ac             	mov    %eax,-0x54(%rbp)
   10581:	83 7d ac 6c          	cmpl   $0x6c,-0x54(%rbp)
   10585:	0f 9f c0             	setg   %al
   10588:	0f b6 c0             	movzbl %al,%eax
   1058b:	44 89 ee             	mov    %r13d,%esi
   1058e:	89 c7                	mov    %eax,%edi
   10590:	e8 8a c7 ff ff       	callq  cd1f <safe_sub_func_uint16_t_u_u>
   10595:	0f be d0             	movsbl %al,%edx
   10598:	83 7d a8 00          	cmpl   $0x0,-0x58(%rbp)
   1059c:	74 14                	je     105b2 <func_8+0x1b2>
   1059e:	48 8b 05 83 78 01 00 	mov    0x17883(%rip),%rax        # 27e28 <g_433>
   105a5:	c7 00 13 7b b5 89    	movl   $0x89b57b13,(%rax)
   105ab:	b8 01 00 00 00       	mov    $0x1,%eax
   105b0:	eb 05                	jmp    105b7 <func_8+0x1b7>
   105b2:	b8 00 00 00 00       	mov    $0x0,%eax
   105b7:	0f be c0             	movsbl %al,%eax
   105ba:	89 d6                	mov    %edx,%esi
   105bc:	89 c7                	mov    %eax,%edi
   105be:	e8 6e bc ff ff       	callq  c231 <safe_mod_func_int8_t_s_s>
   105c3:	44 89 e6             	mov    %r12d,%esi
   105c6:	bf 01 00 00 00       	mov    $0x1,%edi
   105cb:	e8 46 be ff ff       	callq  c416 <safe_mod_func_int16_t_s_s>
   105d0:	0f bf d0             	movswl %ax,%edx
   105d3:	0f b6 45 94          	movzbl -0x6c(%rbp),%eax
   105d7:	31 c2                	xor    %eax,%edx
   105d9:	0f be 45 a3          	movsbl -0x5d(%rbp),%eax
   105dd:	39 c2                	cmp    %eax,%edx
   105df:	75 06                	jne    105e7 <func_8+0x1e7>
   105e1:	83 7d ac 00          	cmpl   $0x0,-0x54(%rbp)
   105e5:	74 07                	je     105ee <func_8+0x1ee>
   105e7:	b8 01 00 00 00       	mov    $0x1,%eax
   105ec:	eb 05                	jmp    105f3 <func_8+0x1f3>
   105ee:	b8 00 00 00 00       	mov    $0x0,%eax
   105f3:	0f b6 c0             	movzbl %al,%eax
   105f6:	8b 75 90             	mov    -0x70(%rbp),%esi
   105f9:	89 c7                	mov    %eax,%edi
   105fb:	e8 be c6 ff ff       	callq  ccbe <safe_rshift_func_uint8_t_u_u>
   10600:	0f b6 c0             	movzbl %al,%eax
   10603:	89 45 a8             	mov    %eax,-0x58(%rbp)
   10606:	8b 45 a8             	mov    -0x58(%rbp),%eax
   10609:	be d4 40 6d 88       	mov    $0x886d40d4,%esi
   1060e:	89 c7                	mov    %eax,%edi
   10610:	e8 b7 c0 ff ff       	callq  c6cc <safe_mod_func_int32_t_s_s>
   10615:	48 8b 55 c0          	mov    -0x40(%rbp),%rdx
   10619:	0f b7 12             	movzwl (%rdx),%edx
   1061c:	09 d0                	or     %edx,%eax
   1061e:	89 c2                	mov    %eax,%edx
   10620:	48 8b 45 c0          	mov    -0x40(%rbp),%rax
   10624:	66 89 10             	mov    %dx,(%rax)
   10627:	48 8b 45 c0          	mov    -0x40(%rbp),%rax
   1062b:	0f b7 10             	movzwl (%rax),%edx
   1062e:	48 8b 45 c8          	mov    -0x38(%rbp),%rax
   10632:	0f b7 00             	movzwl (%rax),%eax
   10635:	21 c2                	and    %eax,%edx
   10637:	48 8b 45 c8          	mov    -0x38(%rbp),%rax
   1063b:	66 89 10             	mov    %dx,(%rax)
   1063e:	48 8b 45 c8          	mov    -0x38(%rbp),%rax
   10642:	0f b7 00             	movzwl (%rax),%eax
   10645:	0f b7 c0             	movzwl %ax,%eax
   10648:	be 08 00 00 00       	mov    $0x8,%esi
   1064d:	89 c7                	mov    %eax,%edi
   1064f:	e8 26 c8 ff ff       	callq  ce7a <safe_rshift_func_uint16_t_u_u>
   10654:	0f be c0             	movsbl %al,%eax
   10657:	89 de                	mov    %ebx,%esi
   10659:	89 c7                	mov    %eax,%edi
   1065b:	e8 92 bb ff ff       	callq  c1f2 <safe_sub_func_int8_t_s_s>
   10660:	0f be d0             	movsbl %al,%edx
   10663:	0f b6 45 94          	movzbl -0x6c(%rbp),%eax
   10667:	89 d6                	mov    %edx,%esi
   10669:	89 c7                	mov    %eax,%edi
   1066b:	e8 95 bf ff ff       	callq  c605 <safe_sub_func_int32_t_s_s>
   10670:	89 c2                	mov    %eax,%edx
   10672:	48 8b 05 1f 84 01 00 	mov    0x1841f(%rip),%rax        # 28a98 <g_1364>
   10679:	48 8b 00             	mov    (%rax),%rax
   1067c:	48 8b 00             	mov    (%rax),%rax
   1067f:	8b 08                	mov    (%rax),%ecx
   10681:	48 8b 05 10 84 01 00 	mov    0x18410(%rip),%rax        # 28a98 <g_1364>
   10688:	48 8b 00             	mov    (%rax),%rax
   1068b:	48 8b 00             	mov    (%rax),%rax
   1068e:	31 ca                	xor    %ecx,%edx
   10690:	89 10                	mov    %edx,(%rax)
   10692:	0f b6 05 cb 5a 01 00 	movzbl 0x15acb(%rip),%eax        # 26164 <g_164>
   10699:	0f be d0             	movsbl %al,%edx
   1069c:	8b 45 a8             	mov    -0x58(%rbp),%eax
   1069f:	98                   	cwtl   
   106a0:	89 d6                	mov    %edx,%esi
   106a2:	89 c7                	mov    %eax,%edi
   106a4:	e8 ac bd ff ff       	callq  c455 <safe_div_func_int16_t_s_s>
   106a9:	8b 45 a8             	mov    -0x58(%rbp),%eax
   106ac:	48 63 d0             	movslq %eax,%rdx
   106af:	48 83 7d d0 00       	cmpq   $0x0,-0x30(%rbp)
   106b4:	0f 94 c0             	sete   %al
   106b7:	0f b6 c0             	movzbl %al,%eax
   106ba:	48 89 d6             	mov    %rdx,%rsi
   106bd:	48 89 c7             	mov    %rax,%rdi
   106c0:	e8 bb c9 ff ff       	callq  d080 <safe_mod_func_uint64_t_u_u>
   106c5:	48 8b 15 c4 83 01 00 	mov    0x183c4(%rip),%rdx        # 28a90 <g_1365>
   106cc:	48 8b 12             	mov    (%rdx),%rdx
   106cf:	8b 12                	mov    (%rdx),%edx
   106d1:	09 c2                	or     %eax,%edx
   106d3:	48 8b 05 b6 83 01 00 	mov    0x183b6(%rip),%rax        # 28a90 <g_1365>
   106da:	48 8b 00             	mov    (%rax),%rax
   106dd:	89 10                	mov    %edx,(%rax)
   106df:	48 8b 45 88          	mov    -0x78(%rbp),%rax
   106e3:	48 83 c4 50          	add    $0x50,%rsp
   106e7:	5b                   	pop    %rbx
   106e8:	41 5c                	pop    %r12
   106ea:	41 5d                	pop    %r13
   106ec:	41 5e                	pop    %r14
   106ee:	41 5f                	pop    %r15
   106f0:	5d                   	pop    %rbp
   106f1:	c3                   	retq   

00000000000106f2 <func_14>:
   106f2:	f3 0f 1e fa          	endbr64 
   106f6:	55                   	push   %rbp
   106f7:	48 89 e5             	mov    %rsp,%rbp
   106fa:	48 81 ec 00 10 00 00 	sub    $0x1000,%rsp
   10701:	48 83 0c 24 00       	orq    $0x0,(%rsp)
   10706:	48 81 ec 00 10 00 00 	sub    $0x1000,%rsp
   1070d:	48 83 0c 24 00       	orq    $0x0,(%rsp)
   10712:	48 83 ec 40          	sub    $0x40,%rsp
   10716:	89 bd cc df ff ff    	mov    %edi,-0x2034(%rbp)
   1071c:	89 b5 c8 df ff ff    	mov    %esi,-0x2038(%rbp)
   10722:	64 48 8b 04 25 28 00 	mov    %fs:0x28,%rax
   10729:	00 00 
   1072b:	48 89 45 f8          	mov    %rax,-0x8(%rbp)
   1072f:	31 c0                	xor    %eax,%eax
   10731:	48 8d 85 30 ec ff ff 	lea    -0x13d0(%rbp),%rax
   10738:	48 8d 15 01 5e 01 00 	lea    0x15e01(%rip),%rdx        # 26540 <g_4408+0x160>
   1073f:	b9 50 00 00 00       	mov    $0x50,%ecx
   10744:	48 89 c7             	mov    %rax,%rdi
   10747:	48 89 d6             	mov    %rdx,%rsi
   1074a:	f3 48 a5             	rep movsq %ds:(%rsi),%es:(%rdi)
   1074d:	c7 85 e4 df ff ff 89 	movl   $0x6abab989,-0x201c(%rbp)
   10754:	b9 ba 6a 
   10757:	48 8d 05 62 a7 01 00 	lea    0x1a762(%rip),%rax        # 2aec0 <g_1020>
   1075e:	48 89 85 40 e0 ff ff 	mov    %rax,-0x1fc0(%rbp)
   10765:	c7 85 30 e3 ff ff ff 	movl   $0xffffffff,-0x1cd0(%rbp)
   1076c:	ff ff ff 
   1076f:	c7 85 34 e3 ff ff 8e 	movl   $0x4d60928e,-0x1ccc(%rbp)
   10776:	92 60 4d 
   10779:	c7 85 38 e3 ff ff 25 	movl   $0xfa8e425,-0x1cc8(%rbp)
   10780:	e4 a8 0f 
   10783:	c7 85 3c e3 ff ff ed 	movl   $0x378ceded,-0x1cc4(%rbp)
   1078a:	ed 8c 37 
   1078d:	c7 85 40 e3 ff ff 25 	movl   $0xfa8e425,-0x1cc0(%rbp)
   10794:	e4 a8 0f 
   10797:	c7 85 44 e3 ff ff 8e 	movl   $0x4d60928e,-0x1cbc(%rbp)
   1079e:	92 60 4d 
   107a1:	c7 85 48 e3 ff ff ff 	movl   $0xffffffff,-0x1cb8(%rbp)
   107a8:	ff ff ff 
   107ab:	c7 85 4c e3 ff ff ff 	movl   $0xffffffff,-0x1cb4(%rbp)
   107b2:	ff ff ff 
   107b5:	c7 85 50 e3 ff ff 8e 	movl   $0x4d60928e,-0x1cb0(%rbp)
   107bc:	92 60 4d 
   107bf:	c7 85 54 e3 ff ff ed 	movl   $0x378ceded,-0x1cac(%rbp)
   107c6:	ed 8c 37 
   107c9:	c7 85 58 e3 ff ff bf 	movl   $0xac2bcbf,-0x1ca8(%rbp)
   107d0:	bc c2 0a 
   107d3:	c7 85 5c e3 ff ff bf 	movl   $0xac2bcbf,-0x1ca4(%rbp)
   107da:	bc c2 0a 
   107dd:	c7 85 60 e3 ff ff ed 	movl   $0x378ceded,-0x1ca0(%rbp)
   107e4:	ed 8c 37 
   107e7:	c7 85 64 e3 ff ff 8e 	movl   $0x4d60928e,-0x1c9c(%rbp)
   107ee:	92 60 4d 
   107f1:	c7 85 68 e3 ff ff 01 	movl   $0x1,-0x1c98(%rbp)
   107f8:	00 00 00 
   107fb:	c7 85 6c e3 ff ff 8e 	movl   $0x4d60928e,-0x1c94(%rbp)
   10802:	92 60 4d 
   10805:	c7 85 e8 df ff ff c7 	movl   $0x26d63ec7,-0x2018(%rbp)
   1080c:	3e d6 26 
   1080f:	48 c7 85 00 e6 ff ff 	movq   $0x0,-0x1a00(%rbp)
   10816:	00 00 00 00 
   1081a:	48 8d 05 19 5b 01 00 	lea    0x15b19(%rip),%rax        # 2633a <g_2498>
   10821:	48 89 85 08 e6 ff ff 	mov    %rax,-0x19f8(%rbp)
   10828:	48 8d 05 0b 5b 01 00 	lea    0x15b0b(%rip),%rax        # 2633a <g_2498>
   1082f:	48 89 85 10 e6 ff ff 	mov    %rax,-0x19f0(%rbp)
   10836:	48 c7 85 18 e6 ff ff 	movq   $0x0,-0x19e8(%rbp)
   1083d:	00 00 00 00 
   10841:	48 8d 05 f2 5a 01 00 	lea    0x15af2(%rip),%rax        # 2633a <g_2498>
   10848:	48 89 85 20 e6 ff ff 	mov    %rax,-0x19e0(%rbp)
   1084f:	48 8d 05 e4 5a 01 00 	lea    0x15ae4(%rip),%rax        # 2633a <g_2498>
   10856:	48 89 85 28 e6 ff ff 	mov    %rax,-0x19d8(%rbp)
   1085d:	48 c7 85 30 e6 ff ff 	movq   $0x0,-0x19d0(%rbp)
   10864:	00 00 00 00 
   10868:	48 8d 05 cb 5a 01 00 	lea    0x15acb(%rip),%rax        # 2633a <g_2498>
   1086f:	48 89 85 38 e6 ff ff 	mov    %rax,-0x19c8(%rbp)
   10876:	48 8d 05 bd 5a 01 00 	lea    0x15abd(%rip),%rax        # 2633a <g_2498>
   1087d:	48 89 85 40 e6 ff ff 	mov    %rax,-0x19c0(%rbp)
   10884:	48 c7 85 48 e6 ff ff 	movq   $0x0,-0x19b8(%rbp)
   1088b:	00 00 00 00 
   1088f:	48 8d 05 a4 5a 01 00 	lea    0x15aa4(%rip),%rax        # 2633a <g_2498>
   10896:	48 89 85 50 e6 ff ff 	mov    %rax,-0x19b0(%rbp)
   1089d:	48 c7 85 58 e6 ff ff 	movq   $0x0,-0x19a8(%rbp)
   108a4:	00 00 00 00 
   108a8:	48 8d 05 8b 5a 01 00 	lea    0x15a8b(%rip),%rax        # 2633a <g_2498>
   108af:	48 89 85 60 e6 ff ff 	mov    %rax,-0x19a0(%rbp)
   108b6:	48 8d 05 7d 5a 01 00 	lea    0x15a7d(%rip),%rax        # 2633a <g_2498>
   108bd:	48 89 85 68 e6 ff ff 	mov    %rax,-0x1998(%rbp)
   108c4:	48 c7 85 70 e6 ff ff 	movq   $0x0,-0x1990(%rbp)
   108cb:	00 00 00 00 
   108cf:	48 8d 05 64 5a 01 00 	lea    0x15a64(%rip),%rax        # 2633a <g_2498>
   108d6:	48 89 85 78 e6 ff ff 	mov    %rax,-0x1988(%rbp)
   108dd:	48 8d 05 56 5a 01 00 	lea    0x15a56(%rip),%rax        # 2633a <g_2498>
   108e4:	48 89 85 80 e6 ff ff 	mov    %rax,-0x1980(%rbp)
   108eb:	48 c7 85 88 e6 ff ff 	movq   $0x0,-0x1978(%rbp)
   108f2:	00 00 00 00 
   108f6:	48 8d 05 3d 5a 01 00 	lea    0x15a3d(%rip),%rax        # 2633a <g_2498>
   108fd:	48 89 85 90 e6 ff ff 	mov    %rax,-0x1970(%rbp)
   10904:	48 8d 05 2f 5a 01 00 	lea    0x15a2f(%rip),%rax        # 2633a <g_2498>
   1090b:	48 89 85 98 e6 ff ff 	mov    %rax,-0x1968(%rbp)
   10912:	48 c7 85 a0 e6 ff ff 	movq   $0x0,-0x1960(%rbp)
   10919:	00 00 00 00 
   1091d:	48 c7 85 a8 e6 ff ff 	movq   $0x0,-0x1958(%rbp)
   10924:	00 00 00 00 
   10928:	48 c7 85 b0 e6 ff ff 	movq   $0x0,-0x1950(%rbp)
   1092f:	00 00 00 00 
   10933:	48 c7 85 b8 e6 ff ff 	movq   $0x0,-0x1948(%rbp)
   1093a:	00 00 00 00 
   1093e:	48 c7 85 c0 e6 ff ff 	movq   $0x0,-0x1940(%rbp)
   10945:	00 00 00 00 
   10949:	48 c7 85 c8 e6 ff ff 	movq   $0x0,-0x1938(%rbp)
   10950:	00 00 00 00 
   10954:	48 c7 85 d0 e6 ff ff 	movq   $0x0,-0x1930(%rbp)
   1095b:	00 00 00 00 
   1095f:	48 c7 85 d8 e6 ff ff 	movq   $0x0,-0x1928(%rbp)
   10966:	00 00 00 00 
   1096a:	48 c7 85 e0 e6 ff ff 	movq   $0x0,-0x1920(%rbp)
   10971:	00 00 00 00 
   10975:	48 c7 85 e8 e6 ff ff 	movq   $0x0,-0x1918(%rbp)
   1097c:	00 00 00 00 
   10980:	48 8d 85 b0 e4 ff ff 	lea    -0x1b50(%rbp),%rax
   10987:	48 83 c0 10          	add    $0x10,%rax
   1098b:	48 89 85 48 e0 ff ff 	mov    %rax,-0x1fb8(%rbp)
   10992:	48 8d 05 57 4c 01 00 	lea    0x14c57(%rip),%rax        # 255f0 <g_2790+0x70>
   10999:	48 89 85 a8 e0 ff ff 	mov    %rax,-0x1f58(%rbp)
   109a0:	48 8d 05 fd 56 01 00 	lea    0x156fd(%rip),%rax        # 260a4 <g_24+0x4>
   109a7:	48 89 85 b0 e0 ff ff 	mov    %rax,-0x1f50(%rbp)
   109ae:	48 b8 ff ff 08 08 ff 	movabs $0x808ffff0808ffff,%rax
   109b5:	ff 08 08 
   109b8:	48 89 85 20 e2 ff ff 	mov    %rax,-0x1de0(%rbp)
   109bf:	c6 85 28 e2 ff ff ff 	movb   $0xff,-0x1dd8(%rbp)
   109c6:	48 b8 8e 01 8e 01 8e 	movabs $0x18e018e018e018e,%rax
   109cd:	01 8e 01 
   109d0:	48 89 85 29 e2 ff ff 	mov    %rax,-0x1dd7(%rbp)
   109d7:	c6 85 31 e2 ff ff 8e 	movb   $0x8e,-0x1dcf(%rbp)
   109de:	48 b8 ff 08 08 ff ff 	movabs $0xff0808ffff0808ff,%rax
   109e5:	08 08 ff 
   109e8:	48 89 85 32 e2 ff ff 	mov    %rax,-0x1dce(%rbp)
   109ef:	c6 85 3a e2 ff ff ff 	movb   $0xff,-0x1dc6(%rbp)
   109f6:	48 b8 ff 01 ff 01 ff 	movabs $0x1ff01ff01ff01ff,%rax
   109fd:	01 ff 01 
   10a00:	48 89 85 3b e2 ff ff 	mov    %rax,-0x1dc5(%rbp)
   10a07:	c6 85 43 e2 ff ff ff 	movb   $0xff,-0x1dbd(%rbp)
   10a0e:	48 8d 85 a0 e1 ff ff 	lea    -0x1e60(%rbp),%rax
   10a15:	48 83 c0 08          	add    $0x8,%rax
   10a19:	48 89 85 b8 e0 ff ff 	mov    %rax,-0x1f48(%rbp)
   10a20:	48 8d 05 d9 73 01 00 	lea    0x173d9(%rip),%rax        # 27e00 <g_87>
   10a27:	48 89 85 50 e2 ff ff 	mov    %rax,-0x1db0(%rbp)
   10a2e:	48 8d 05 cb 73 01 00 	lea    0x173cb(%rip),%rax        # 27e00 <g_87>
   10a35:	48 89 85 58 e2 ff ff 	mov    %rax,-0x1da8(%rbp)
   10a3c:	48 8d 05 bd 73 01 00 	lea    0x173bd(%rip),%rax        # 27e00 <g_87>
   10a43:	48 89 85 60 e2 ff ff 	mov    %rax,-0x1da0(%rbp)
   10a4a:	48 8d 05 af 73 01 00 	lea    0x173af(%rip),%rax        # 27e00 <g_87>
   10a51:	48 89 85 68 e2 ff ff 	mov    %rax,-0x1d98(%rbp)
   10a58:	48 8d 05 a1 73 01 00 	lea    0x173a1(%rip),%rax        # 27e00 <g_87>
   10a5f:	48 89 85 70 e2 ff ff 	mov    %rax,-0x1d90(%rbp)
   10a66:	48 8d 85 50 e2 ff ff 	lea    -0x1db0(%rbp),%rax
   10a6d:	48 83 c0 18          	add    $0x18,%rax
   10a71:	48 89 85 50 e0 ff ff 	mov    %rax,-0x1fb0(%rbp)
   10a78:	c7 85 14 e0 ff ff a8 	movl   $0x2ae2a3a8,-0x1fec(%rbp)
   10a7f:	a3 e2 2a 
   10a82:	48 8d 05 9f 73 01 00 	lea    0x1739f(%rip),%rax        # 27e28 <g_433>
   10a89:	48 89 85 58 e0 ff ff 	mov    %rax,-0x1fa8(%rbp)
   10a90:	48 c7 85 c0 e0 ff ff 	movq   $0x0,-0x1f40(%rbp)
   10a97:	00 00 00 00 
   10a9b:	c7 85 f0 e2 ff ff 01 	movl   $0x1,-0x1d10(%rbp)
   10aa2:	00 00 00 
   10aa5:	c7 85 f4 e2 ff ff 01 	movl   $0x1,-0x1d0c(%rbp)
   10aac:	00 00 00 
   10aaf:	c7 85 f8 e2 ff ff 00 	movl   $0x0,-0x1d08(%rbp)
   10ab6:	00 00 00 
   10ab9:	c7 85 fc e2 ff ff 01 	movl   $0x1,-0x1d04(%rbp)
   10ac0:	00 00 00 
   10ac3:	c7 85 00 e3 ff ff 01 	movl   $0x1,-0x1d00(%rbp)
   10aca:	00 00 00 
   10acd:	c7 85 04 e3 ff ff 35 	movl   $0x43de0b35,-0x1cfc(%rbp)
   10ad4:	0b de 43 
   10ad7:	c7 85 08 e3 ff ff 00 	movl   $0x0,-0x1cf8(%rbp)
   10ade:	00 00 00 
   10ae1:	c7 85 0c e3 ff ff 35 	movl   $0x43de0b35,-0x1cf4(%rbp)
   10ae8:	0b de 43 
   10aeb:	c7 85 10 e3 ff ff 35 	movl   $0x43de0b35,-0x1cf0(%rbp)
   10af2:	0b de 43 
   10af5:	c7 85 14 e3 ff ff 00 	movl   $0x0,-0x1cec(%rbp)
   10afc:	00 00 00 
   10aff:	c7 85 18 e3 ff ff 01 	movl   $0x1,-0x1ce8(%rbp)
   10b06:	00 00 00 
   10b09:	c7 85 1c e3 ff ff 75 	movl   $0x9f324575,-0x1ce4(%rbp)
   10b10:	45 32 9f 
   10b13:	c7 85 20 e3 ff ff 75 	movl   $0x9f324575,-0x1ce0(%rbp)
   10b1a:	45 32 9f 
   10b1d:	c7 85 24 e3 ff ff 01 	movl   $0x1,-0x1cdc(%rbp)
   10b24:	00 00 00 
   10b27:	c7 85 28 e3 ff ff 75 	movl   $0x9f324575,-0x1cd8(%rbp)
   10b2e:	45 32 9f 
   10b31:	c6 85 d5 df ff ff f3 	movb   $0xf3,-0x202b(%rbp)
   10b38:	66 c7 85 d8 df ff ff 	movw   $0xffff,-0x2028(%rbp)
   10b3f:	ff ff 
   10b41:	48 8d 85 58 e0 ff ff 	lea    -0x1fa8(%rbp),%rax
   10b48:	48 89 85 60 e0 ff ff 	mov    %rax,-0x1fa0(%rbp)
   10b4f:	48 8d 85 60 e0 ff ff 	lea    -0x1fa0(%rbp),%rax
   10b56:	48 89 85 c0 e3 ff ff 	mov    %rax,-0x1c40(%rbp)
   10b5d:	48 8d 85 60 e0 ff ff 	lea    -0x1fa0(%rbp),%rax
   10b64:	48 89 85 c8 e3 ff ff 	mov    %rax,-0x1c38(%rbp)
   10b6b:	48 8d 85 60 e0 ff ff 	lea    -0x1fa0(%rbp),%rax
   10b72:	48 89 85 d0 e3 ff ff 	mov    %rax,-0x1c30(%rbp)
   10b79:	48 8d 85 60 e0 ff ff 	lea    -0x1fa0(%rbp),%rax
   10b80:	48 89 85 d8 e3 ff ff 	mov    %rax,-0x1c28(%rbp)
   10b87:	48 8d 85 60 e0 ff ff 	lea    -0x1fa0(%rbp),%rax
   10b8e:	48 89 85 e0 e3 ff ff 	mov    %rax,-0x1c20(%rbp)
   10b95:	48 8d 85 60 e0 ff ff 	lea    -0x1fa0(%rbp),%rax
   10b9c:	48 89 85 e8 e3 ff ff 	mov    %rax,-0x1c18(%rbp)
   10ba3:	48 8d 85 60 e0 ff ff 	lea    -0x1fa0(%rbp),%rax
   10baa:	48 89 85 f0 e3 ff ff 	mov    %rax,-0x1c10(%rbp)
   10bb1:	48 8d 85 60 e0 ff ff 	lea    -0x1fa0(%rbp),%rax
   10bb8:	48 89 85 f8 e3 ff ff 	mov    %rax,-0x1c08(%rbp)
   10bbf:	48 8d 85 60 e0 ff ff 	lea    -0x1fa0(%rbp),%rax
   10bc6:	48 89 85 00 e4 ff ff 	mov    %rax,-0x1c00(%rbp)
   10bcd:	48 8d 85 60 e0 ff ff 	lea    -0x1fa0(%rbp),%rax
   10bd4:	48 89 85 08 e4 ff ff 	mov    %rax,-0x1bf8(%rbp)
   10bdb:	48 c7 85 c8 e0 ff ff 	movq   $0x8,-0x1f38(%rbp)
   10be2:	08 00 00 00 
   10be6:	48 c7 85 68 e0 ff ff 	movq   $0x0,-0x1f98(%rbp)
   10bed:	00 00 00 00 
   10bf1:	48 8d 85 68 e0 ff ff 	lea    -0x1f98(%rbp),%rax
   10bf8:	48 89 85 70 e0 ff ff 	mov    %rax,-0x1f90(%rbp)
   10bff:	48 8d 85 70 e0 ff ff 	lea    -0x1f90(%rbp),%rax
   10c06:	48 89 85 10 e4 ff ff 	mov    %rax,-0x1bf0(%rbp)
   10c0d:	48 8d 85 70 e0 ff ff 	lea    -0x1f90(%rbp),%rax
   10c14:	48 89 85 18 e4 ff ff 	mov    %rax,-0x1be8(%rbp)
   10c1b:	48 8d 85 70 e0 ff ff 	lea    -0x1f90(%rbp),%rax
   10c22:	48 89 85 20 e4 ff ff 	mov    %rax,-0x1be0(%rbp)
   10c29:	48 8d 85 70 e0 ff ff 	lea    -0x1f90(%rbp),%rax
   10c30:	48 89 85 28 e4 ff ff 	mov    %rax,-0x1bd8(%rbp)
   10c37:	48 8d 85 70 e0 ff ff 	lea    -0x1f90(%rbp),%rax
   10c3e:	48 89 85 30 e4 ff ff 	mov    %rax,-0x1bd0(%rbp)
   10c45:	48 8d 85 70 e0 ff ff 	lea    -0x1f90(%rbp),%rax
   10c4c:	48 89 85 38 e4 ff ff 	mov    %rax,-0x1bc8(%rbp)
   10c53:	48 8d 85 70 e0 ff ff 	lea    -0x1f90(%rbp),%rax
   10c5a:	48 89 85 40 e4 ff ff 	mov    %rax,-0x1bc0(%rbp)
   10c61:	48 8d 85 70 e0 ff ff 	lea    -0x1f90(%rbp),%rax
   10c68:	48 89 85 48 e4 ff ff 	mov    %rax,-0x1bb8(%rbp)
   10c6f:	48 8d 85 70 e0 ff ff 	lea    -0x1f90(%rbp),%rax
   10c76:	48 89 85 50 e4 ff ff 	mov    %rax,-0x1bb0(%rbp)
   10c7d:	48 8d 85 70 e0 ff ff 	lea    -0x1f90(%rbp),%rax
   10c84:	48 89 85 58 e4 ff ff 	mov    %rax,-0x1ba8(%rbp)
   10c8b:	48 8d 05 8e 7e 01 00 	lea    0x17e8e(%rip),%rax        # 28b20 <g_1772>
   10c92:	48 89 85 00 e2 ff ff 	mov    %rax,-0x1e00(%rbp)
   10c99:	48 8d 05 80 7e 01 00 	lea    0x17e80(%rip),%rax        # 28b20 <g_1772>
   10ca0:	48 89 85 08 e2 ff ff 	mov    %rax,-0x1df8(%rbp)
   10ca7:	48 8d 05 72 7e 01 00 	lea    0x17e72(%rip),%rax        # 28b20 <g_1772>
   10cae:	48 89 85 10 e2 ff ff 	mov    %rax,-0x1df0(%rbp)
   10cb5:	48 8d 05 64 7e 01 00 	lea    0x17e64(%rip),%rax        # 28b20 <g_1772>
   10cbc:	48 89 85 18 e2 ff ff 	mov    %rax,-0x1de8(%rbp)
   10cc3:	48 8d 85 50 e0 ff ff 	lea    -0x1fb0(%rbp),%rax
   10cca:	48 89 85 78 e0 ff ff 	mov    %rax,-0x1f88(%rbp)
   10cd1:	48 8d 85 78 e0 ff ff 	lea    -0x1f88(%rbp),%rax
   10cd8:	48 89 85 d0 e0 ff ff 	mov    %rax,-0x1f30(%rbp)
   10cdf:	48 8d 05 0a 80 01 00 	lea    0x1800a(%rip),%rax        # 28cf0 <g_2593+0x10>
   10ce6:	48 89 85 d8 e0 ff ff 	mov    %rax,-0x1f28(%rbp)
   10ced:	66 c7 85 da df ff ff 	movw   $0xfffd,-0x2026(%rbp)
   10cf4:	fd ff 
   10cf6:	48 c7 85 80 e0 ff ff 	movq   $0x0,-0x1f80(%rbp)
   10cfd:	00 00 00 00 
   10d01:	48 8d 85 80 e0 ff ff 	lea    -0x1f80(%rbp),%rax
   10d08:	48 89 85 70 ea ff ff 	mov    %rax,-0x1590(%rbp)
   10d0f:	48 8d 85 80 e0 ff ff 	lea    -0x1f80(%rbp),%rax
   10d16:	48 89 85 78 ea ff ff 	mov    %rax,-0x1588(%rbp)
   10d1d:	48 8d 85 80 e0 ff ff 	lea    -0x1f80(%rbp),%rax
   10d24:	48 89 85 80 ea ff ff 	mov    %rax,-0x1580(%rbp)
   10d2b:	48 8d 85 80 e0 ff ff 	lea    -0x1f80(%rbp),%rax
   10d32:	48 89 85 88 ea ff ff 	mov    %rax,-0x1578(%rbp)
   10d39:	48 8d 85 80 e0 ff ff 	lea    -0x1f80(%rbp),%rax
   10d40:	48 89 85 90 ea ff ff 	mov    %rax,-0x1570(%rbp)
   10d47:	48 8d 85 80 e0 ff ff 	lea    -0x1f80(%rbp),%rax
   10d4e:	48 89 85 98 ea ff ff 	mov    %rax,-0x1568(%rbp)
   10d55:	48 8d 85 80 e0 ff ff 	lea    -0x1f80(%rbp),%rax
   10d5c:	48 89 85 a0 ea ff ff 	mov    %rax,-0x1560(%rbp)
   10d63:	48 8d 85 80 e0 ff ff 	lea    -0x1f80(%rbp),%rax
   10d6a:	48 89 85 a8 ea ff ff 	mov    %rax,-0x1558(%rbp)
   10d71:	48 8d 85 80 e0 ff ff 	lea    -0x1f80(%rbp),%rax
   10d78:	48 89 85 b0 ea ff ff 	mov    %rax,-0x1550(%rbp)
   10d7f:	48 8d 85 80 e0 ff ff 	lea    -0x1f80(%rbp),%rax
   10d86:	48 89 85 b8 ea ff ff 	mov    %rax,-0x1548(%rbp)
   10d8d:	48 8d 85 80 e0 ff ff 	lea    -0x1f80(%rbp),%rax
   10d94:	48 89 85 c0 ea ff ff 	mov    %rax,-0x1540(%rbp)
   10d9b:	48 8d 85 80 e0 ff ff 	lea    -0x1f80(%rbp),%rax
   10da2:	48 89 85 c8 ea ff ff 	mov    %rax,-0x1538(%rbp)
   10da9:	48 8d 85 80 e0 ff ff 	lea    -0x1f80(%rbp),%rax
   10db0:	48 89 85 d0 ea ff ff 	mov    %rax,-0x1530(%rbp)
   10db7:	48 8d 85 80 e0 ff ff 	lea    -0x1f80(%rbp),%rax
   10dbe:	48 89 85 d8 ea ff ff 	mov    %rax,-0x1528(%rbp)
   10dc5:	48 8d 85 80 e0 ff ff 	lea    -0x1f80(%rbp),%rax
   10dcc:	48 89 85 e0 ea ff ff 	mov    %rax,-0x1520(%rbp)
   10dd3:	48 8d 85 80 e0 ff ff 	lea    -0x1f80(%rbp),%rax
   10dda:	48 89 85 e8 ea ff ff 	mov    %rax,-0x1518(%rbp)
   10de1:	48 8d 85 80 e0 ff ff 	lea    -0x1f80(%rbp),%rax
   10de8:	48 89 85 f0 ea ff ff 	mov    %rax,-0x1510(%rbp)
   10def:	48 8d 85 80 e0 ff ff 	lea    -0x1f80(%rbp),%rax
   10df6:	48 89 85 f8 ea ff ff 	mov    %rax,-0x1508(%rbp)
   10dfd:	48 8d 85 80 e0 ff ff 	lea    -0x1f80(%rbp),%rax
   10e04:	48 89 85 00 eb ff ff 	mov    %rax,-0x1500(%rbp)
   10e0b:	48 8d 85 80 e0 ff ff 	lea    -0x1f80(%rbp),%rax
   10e12:	48 89 85 08 eb ff ff 	mov    %rax,-0x14f8(%rbp)
   10e19:	48 8d 85 80 e0 ff ff 	lea    -0x1f80(%rbp),%rax
   10e20:	48 89 85 10 eb ff ff 	mov    %rax,-0x14f0(%rbp)
   10e27:	48 8d 85 80 e0 ff ff 	lea    -0x1f80(%rbp),%rax
   10e2e:	48 89 85 18 eb ff ff 	mov    %rax,-0x14e8(%rbp)
   10e35:	48 8d 85 80 e0 ff ff 	lea    -0x1f80(%rbp),%rax
   10e3c:	48 89 85 20 eb ff ff 	mov    %rax,-0x14e0(%rbp)
   10e43:	48 8d 85 80 e0 ff ff 	lea    -0x1f80(%rbp),%rax
   10e4a:	48 89 85 28 eb ff ff 	mov    %rax,-0x14d8(%rbp)
   10e51:	48 8d 85 80 e0 ff ff 	lea    -0x1f80(%rbp),%rax
   10e58:	48 89 85 30 eb ff ff 	mov    %rax,-0x14d0(%rbp)
   10e5f:	48 8d 85 80 e0 ff ff 	lea    -0x1f80(%rbp),%rax
   10e66:	48 89 85 38 eb ff ff 	mov    %rax,-0x14c8(%rbp)
   10e6d:	48 8d 85 80 e0 ff ff 	lea    -0x1f80(%rbp),%rax
   10e74:	48 89 85 40 eb ff ff 	mov    %rax,-0x14c0(%rbp)
   10e7b:	48 8d 85 80 e0 ff ff 	lea    -0x1f80(%rbp),%rax
   10e82:	48 89 85 48 eb ff ff 	mov    %rax,-0x14b8(%rbp)
   10e89:	48 8d 85 80 e0 ff ff 	lea    -0x1f80(%rbp),%rax
   10e90:	48 89 85 50 eb ff ff 	mov    %rax,-0x14b0(%rbp)
   10e97:	48 8d 85 80 e0 ff ff 	lea    -0x1f80(%rbp),%rax
   10e9e:	48 89 85 58 eb ff ff 	mov    %rax,-0x14a8(%rbp)
   10ea5:	48 8d 85 80 e0 ff ff 	lea    -0x1f80(%rbp),%rax
   10eac:	48 89 85 60 eb ff ff 	mov    %rax,-0x14a0(%rbp)
   10eb3:	48 8d 85 80 e0 ff ff 	lea    -0x1f80(%rbp),%rax
   10eba:	48 89 85 68 eb ff ff 	mov    %rax,-0x1498(%rbp)
   10ec1:	48 8d 85 80 e0 ff ff 	lea    -0x1f80(%rbp),%rax
   10ec8:	48 89 85 70 eb ff ff 	mov    %rax,-0x1490(%rbp)
   10ecf:	48 8d 85 80 e0 ff ff 	lea    -0x1f80(%rbp),%rax
   10ed6:	48 89 85 78 eb ff ff 	mov    %rax,-0x1488(%rbp)
   10edd:	48 8d 85 80 e0 ff ff 	lea    -0x1f80(%rbp),%rax
   10ee4:	48 89 85 80 eb ff ff 	mov    %rax,-0x1480(%rbp)
   10eeb:	48 8d 85 80 e0 ff ff 	lea    -0x1f80(%rbp),%rax
   10ef2:	48 89 85 88 eb ff ff 	mov    %rax,-0x1478(%rbp)
   10ef9:	48 8d 85 80 e0 ff ff 	lea    -0x1f80(%rbp),%rax
   10f00:	48 89 85 90 eb ff ff 	mov    %rax,-0x1470(%rbp)
   10f07:	48 8d 85 80 e0 ff ff 	lea    -0x1f80(%rbp),%rax
   10f0e:	48 89 85 98 eb ff ff 	mov    %rax,-0x1468(%rbp)
   10f15:	48 8d 85 80 e0 ff ff 	lea    -0x1f80(%rbp),%rax
   10f1c:	48 89 85 a0 eb ff ff 	mov    %rax,-0x1460(%rbp)
   10f23:	48 8d 85 80 e0 ff ff 	lea    -0x1f80(%rbp),%rax
   10f2a:	48 89 85 a8 eb ff ff 	mov    %rax,-0x1458(%rbp)
   10f31:	48 8d 85 80 e0 ff ff 	lea    -0x1f80(%rbp),%rax
   10f38:	48 89 85 b0 eb ff ff 	mov    %rax,-0x1450(%rbp)
   10f3f:	48 8d 85 80 e0 ff ff 	lea    -0x1f80(%rbp),%rax
   10f46:	48 89 85 b8 eb ff ff 	mov    %rax,-0x1448(%rbp)
   10f4d:	48 8d 85 80 e0 ff ff 	lea    -0x1f80(%rbp),%rax
   10f54:	48 89 85 c0 eb ff ff 	mov    %rax,-0x1440(%rbp)
   10f5b:	48 8d 85 80 e0 ff ff 	lea    -0x1f80(%rbp),%rax
   10f62:	48 89 85 c8 eb ff ff 	mov    %rax,-0x1438(%rbp)
   10f69:	48 8d 85 80 e0 ff ff 	lea    -0x1f80(%rbp),%rax
   10f70:	48 89 85 d0 eb ff ff 	mov    %rax,-0x1430(%rbp)
   10f77:	48 8d 85 80 e0 ff ff 	lea    -0x1f80(%rbp),%rax
   10f7e:	48 89 85 d8 eb ff ff 	mov    %rax,-0x1428(%rbp)
   10f85:	48 8d 85 80 e0 ff ff 	lea    -0x1f80(%rbp),%rax
   10f8c:	48 89 85 e0 eb ff ff 	mov    %rax,-0x1420(%rbp)
   10f93:	48 8d 85 80 e0 ff ff 	lea    -0x1f80(%rbp),%rax
   10f9a:	48 89 85 e8 eb ff ff 	mov    %rax,-0x1418(%rbp)
   10fa1:	48 8d 85 80 e0 ff ff 	lea    -0x1f80(%rbp),%rax
   10fa8:	48 89 85 f0 eb ff ff 	mov    %rax,-0x1410(%rbp)
   10faf:	48 8d 85 80 e0 ff ff 	lea    -0x1f80(%rbp),%rax
   10fb6:	48 89 85 f8 eb ff ff 	mov    %rax,-0x1408(%rbp)
   10fbd:	48 8d 85 80 e0 ff ff 	lea    -0x1f80(%rbp),%rax
   10fc4:	48 89 85 00 ec ff ff 	mov    %rax,-0x1400(%rbp)
   10fcb:	48 8d 85 80 e0 ff ff 	lea    -0x1f80(%rbp),%rax
   10fd2:	48 89 85 08 ec ff ff 	mov    %rax,-0x13f8(%rbp)
   10fd9:	48 8d 85 80 e0 ff ff 	lea    -0x1f80(%rbp),%rax
   10fe0:	48 89 85 10 ec ff ff 	mov    %rax,-0x13f0(%rbp)
   10fe7:	48 8d 85 80 e0 ff ff 	lea    -0x1f80(%rbp),%rax
   10fee:	48 89 85 18 ec ff ff 	mov    %rax,-0x13e8(%rbp)
   10ff5:	48 8d 85 80 e0 ff ff 	lea    -0x1f80(%rbp),%rax
   10ffc:	48 89 85 20 ec ff ff 	mov    %rax,-0x13e0(%rbp)
   11003:	48 8d 85 80 e0 ff ff 	lea    -0x1f80(%rbp),%rax
   1100a:	48 89 85 28 ec ff ff 	mov    %rax,-0x13d8(%rbp)
   11011:	48 8d 85 b0 ee ff ff 	lea    -0x1150(%rbp),%rax
   11018:	48 8d 15 a1 57 01 00 	lea    0x157a1(%rip),%rdx        # 267c0 <g_4408+0x3e0>
   1101f:	b9 60 00 00 00       	mov    $0x60,%ecx
   11024:	48 89 c7             	mov    %rax,%rdi
   11027:	48 89 d6             	mov    %rdx,%rsi
   1102a:	f3 48 a5             	rep movsq %ds:(%rsi),%es:(%rdi)
   1102d:	66 c7 85 dc df ff ff 	movw   $0x41f2,-0x2024(%rbp)
   11034:	f2 41 
   11036:	c7 85 18 e0 ff ff ff 	movl   $0xffffffff,-0x1fe8(%rbp)
   1103d:	ff ff ff 
   11040:	48 8d 05 21 7c 01 00 	lea    0x17c21(%rip),%rax        # 28c68 <g_2388>
   11047:	48 89 85 88 e0 ff ff 	mov    %rax,-0x1f78(%rbp)
   1104e:	48 c7 85 80 e2 ff ff 	movq   $0x0,-0x1d80(%rbp)
   11055:	00 00 00 00 
   11059:	48 c7 85 88 e2 ff ff 	movq   $0x0,-0x1d78(%rbp)
   11060:	00 00 00 00 
   11064:	48 c7 85 90 e2 ff ff 	movq   $0x0,-0x1d70(%rbp)
   1106b:	00 00 00 00 
   1106f:	48 c7 85 98 e2 ff ff 	movq   $0x0,-0x1d68(%rbp)
   11076:	00 00 00 00 
   1107a:	48 c7 85 a0 e2 ff ff 	movq   $0x0,-0x1d60(%rbp)
   11081:	00 00 00 00 
   11085:	48 b8 fd db e5 a1 8d 	movabs $0x252cd68da1e5dbfd,%rax
   1108c:	d6 2c 25 
   1108f:	48 89 85 e0 e0 ff ff 	mov    %rax,-0x1f20(%rbp)
   11096:	48 8d 05 7b 7a 01 00 	lea    0x17a7b(%rip),%rax        # 28b18 <g_1560>
   1109d:	48 89 85 e8 e0 ff ff 	mov    %rax,-0x1f18(%rbp)
   110a4:	c6 85 d6 df ff ff fc 	movb   $0xfc,-0x202a(%rbp)
   110ab:	48 b8 62 e7 53 5c b3 	movabs $0x14800db35c53e762,%rax
   110b2:	0d 80 14 
   110b5:	48 89 85 f0 e0 ff ff 	mov    %rax,-0x1f10(%rbp)
   110bc:	48 c7 85 a0 e0 ff ff 	movq   $0xfffffffffffffffe,-0x1f60(%rbp)
   110c3:	fe ff ff ff 
   110c7:	48 8d 85 10 e8 ff ff 	lea    -0x17f0(%rbp),%rax
   110ce:	48 8d 15 8b f9 00 00 	lea    0xf98b(%rip),%rdx        # 20a60 <g_2708+0x7d8>
   110d5:	b9 24 00 00 00       	mov    $0x24,%ecx
   110da:	48 89 c7             	mov    %rax,%rdi
   110dd:	48 89 d6             	mov    %rdx,%rsi
   110e0:	f3 48 a5             	rep movsq %ds:(%rsi),%es:(%rdi)
   110e3:	48 c7 85 f8 e0 ff ff 	movq   $0x0,-0x1f08(%rbp)
   110ea:	00 00 00 00 
   110ee:	48 8d 05 a3 9d 01 00 	lea    0x19da3(%rip),%rax        # 2ae98 <g_430>
   110f5:	48 89 85 00 e1 ff ff 	mov    %rax,-0x1f00(%rbp)
   110fc:	48 c7 85 08 e1 ff ff 	movq   $0x1,-0x1ef8(%rbp)
   11103:	01 00 00 00 
   11107:	c7 85 10 e0 ff ff 00 	movl   $0x0,-0x1ff0(%rbp)
   1110e:	00 00 00 
   11111:	eb 51                	jmp    11164 <func_14+0xa72>
   11113:	c7 85 08 e0 ff ff 00 	movl   $0x0,-0x1ff8(%rbp)
   1111a:	00 00 00 
   1111d:	eb 35                	jmp    11154 <func_14+0xa62>
   1111f:	8b 85 08 e0 ff ff    	mov    -0x1ff8(%rbp),%eax
   11125:	48 63 c8             	movslq %eax,%rcx
   11128:	8b 85 10 e0 ff ff    	mov    -0x1ff0(%rbp),%eax
   1112e:	48 63 d0             	movslq %eax,%rdx
   11131:	48 89 d0             	mov    %rdx,%rax
   11134:	48 c1 e0 03          	shl    $0x3,%rax
   11138:	48 29 d0             	sub    %rdx,%rax
   1113b:	48 01 c8             	add    %rcx,%rax
   1113e:	48 8d 15 5b 9d 01 00 	lea    0x19d5b(%rip),%rdx        # 2aea0 <g_545>
   11145:	48 89 94 c5 b0 e4 ff 	mov    %rdx,-0x1b50(%rbp,%rax,8)
   1114c:	ff 
   1114d:	83 85 08 e0 ff ff 01 	addl   $0x1,-0x1ff8(%rbp)
   11154:	83 bd 08 e0 ff ff 06 	cmpl   $0x6,-0x1ff8(%rbp)
   1115b:	7e c2                	jle    1111f <func_14+0xa2d>
   1115d:	83 85 10 e0 ff ff 01 	addl   $0x1,-0x1ff0(%rbp)
   11164:	83 bd 10 e0 ff ff 01 	cmpl   $0x1,-0x1ff0(%rbp)
   1116b:	7e a6                	jle    11113 <func_14+0xa21>
   1116d:	c7 85 10 e0 ff ff 00 	movl   $0x0,-0x1ff0(%rbp)
   11174:	00 00 00 
   11177:	eb 1e                	jmp    11197 <func_14+0xaa5>
   11179:	8b 85 10 e0 ff ff    	mov    -0x1ff0(%rbp),%eax
   1117f:	48 98                	cltq   
   11181:	48 8d 95 40 e0 ff ff 	lea    -0x1fc0(%rbp),%rdx
   11188:	48 89 94 c5 90 e1 ff 	mov    %rdx,-0x1e70(%rbp,%rax,8)
   1118f:	ff 
   11190:	83 85 10 e0 ff ff 01 	addl   $0x1,-0x1ff0(%rbp)
   11197:	83 bd 10 e0 ff ff 01 	cmpl   $0x1,-0x1ff0(%rbp)
   1119e:	7e d9                	jle    11179 <func_14+0xa87>
   111a0:	c7 85 10 e0 ff ff 00 	movl   $0x0,-0x1ff0(%rbp)
   111a7:	00 00 00 
   111aa:	eb 1e                	jmp    111ca <func_14+0xad8>
   111ac:	8b 85 10 e0 ff ff    	mov    -0x1ff0(%rbp),%eax
   111b2:	48 98                	cltq   
   111b4:	48 8d 15 65 51 01 00 	lea    0x15165(%rip),%rdx        # 26320 <g_2089+0x20>
   111bb:	48 89 94 c5 a0 e1 ff 	mov    %rdx,-0x1e60(%rbp,%rax,8)
   111c2:	ff 
   111c3:	83 85 10 e0 ff ff 01 	addl   $0x1,-0x1ff0(%rbp)
   111ca:	83 bd 10 e0 ff ff 01 	cmpl   $0x1,-0x1ff0(%rbp)
   111d1:	7e d9                	jle    111ac <func_14+0xaba>
   111d3:	c7 85 10 e0 ff ff 00 	movl   $0x0,-0x1ff0(%rbp)
   111da:	00 00 00 
   111dd:	eb 46                	jmp    11225 <func_14+0xb33>
   111df:	c7 85 08 e0 ff ff 00 	movl   $0x0,-0x1ff8(%rbp)
   111e6:	00 00 00 
   111e9:	eb 2a                	jmp    11215 <func_14+0xb23>
   111eb:	8b 85 08 e0 ff ff    	mov    -0x1ff8(%rbp),%eax
   111f1:	48 98                	cltq   
   111f3:	8b 95 10 e0 ff ff    	mov    -0x1ff0(%rbp),%edx
   111f9:	48 63 d2             	movslq %edx,%rdx
   111fc:	48 01 d2             	add    %rdx,%rdx
   111ff:	48 01 d0             	add    %rdx,%rax
   11202:	48 c7 84 c5 b0 e1 ff 	movq   $0x6,-0x1e50(%rbp,%rax,8)
   11209:	ff 06 00 00 00 
   1120e:	83 85 08 e0 ff ff 01 	addl   $0x1,-0x1ff8(%rbp)
   11215:	83 bd 08 e0 ff ff 01 	cmpl   $0x1,-0x1ff8(%rbp)
   1121c:	7e cd                	jle    111eb <func_14+0xaf9>
   1121e:	83 85 10 e0 ff ff 01 	addl   $0x1,-0x1ff0(%rbp)
   11225:	83 bd 10 e0 ff ff 00 	cmpl   $0x0,-0x1ff0(%rbp)
   1122c:	7e b1                	jle    111df <func_14+0xaed>
   1122e:	c7 85 10 e0 ff ff 00 	movl   $0x0,-0x1ff0(%rbp)
   11235:	00 00 00 
   11238:	eb 45                	jmp    1127f <func_14+0xb8d>
   1123a:	c7 85 08 e0 ff ff 00 	movl   $0x0,-0x1ff8(%rbp)
   11241:	00 00 00 
   11244:	eb 29                	jmp    1126f <func_14+0xb7d>
   11246:	8b 85 08 e0 ff ff    	mov    -0x1ff8(%rbp),%eax
   1124c:	48 98                	cltq   
   1124e:	8b 95 10 e0 ff ff    	mov    -0x1ff0(%rbp),%edx
   11254:	48 63 d2             	movslq %edx,%rdx
   11257:	48 01 d2             	add    %rdx,%rdx
   1125a:	48 01 d0             	add    %rdx,%rax
   1125d:	c7 84 85 60 e4 ff ff 	movl   $0xff370f8,-0x1ba0(%rbp,%rax,4)
   11264:	f8 70 f3 0f 
   11268:	83 85 08 e0 ff ff 01 	addl   $0x1,-0x1ff8(%rbp)
   1126f:	83 bd 08 e0 ff ff 01 	cmpl   $0x1,-0x1ff8(%rbp)
   11276:	7e ce                	jle    11246 <func_14+0xb54>
   11278:	83 85 10 e0 ff ff 01 	addl   $0x1,-0x1ff0(%rbp)
   1127f:	83 bd 10 e0 ff ff 09 	cmpl   $0x9,-0x1ff0(%rbp)
   11286:	7e b2                	jle    1123a <func_14+0xb48>
   11288:	8b 85 e4 df ff ff    	mov    -0x201c(%rbp),%eax
   1128e:	85 c0                	test   %eax,%eax
   11290:	75 4d                	jne    112df <func_14+0xbed>
   11292:	8b 85 e4 df ff ff    	mov    -0x201c(%rbp),%eax
   11298:	85 c0                	test   %eax,%eax
   1129a:	75 25                	jne    112c1 <func_14+0xbcf>
   1129c:	8b 85 cc df ff ff    	mov    -0x2034(%rbp),%eax
   112a2:	98                   	cwtl   
   112a3:	be 01 00 00 00       	mov    $0x1,%esi
   112a8:	89 c7                	mov    %eax,%edi
   112aa:	e8 04 b1 ff ff       	callq  c3b3 <safe_add_func_int16_t_s_s>
   112af:	8b 85 cc df ff ff    	mov    -0x2034(%rbp),%eax
   112b5:	85 c0                	test   %eax,%eax
   112b7:	75 08                	jne    112c1 <func_14+0xbcf>
   112b9:	8b 85 cc df ff ff    	mov    -0x2034(%rbp),%eax
   112bf:	85 c0                	test   %eax,%eax
   112c1:	90                   	nop
   112c2:	be 01 00 00 00       	mov    $0x1,%esi
   112c7:	bf fa 00 00 00       	mov    $0xfa,%edi
   112cc:	e8 7b b9 ff ff       	callq  cc4c <safe_lshift_func_uint8_t_u_u>
   112d1:	48 8b 15 28 6b 01 00 	mov    0x16b28(%rip),%rdx        # 27e00 <g_87>
   112d8:	0f b6 12             	movzbl (%rdx),%edx
   112db:	38 d0                	cmp    %dl,%al
   112dd:	72 07                	jb     112e6 <func_14+0xbf4>
   112df:	b8 01 00 00 00       	mov    $0x1,%eax
   112e4:	eb 05                	jmp    112eb <func_14+0xbf9>
   112e6:	b8 00 00 00 00       	mov    $0x0,%eax
   112eb:	0f b7 d0             	movzwl %ax,%edx
   112ee:	48 8b 85 c0 e4 ff ff 	mov    -0x1b40(%rbp),%rax
   112f5:	48 89 85 c0 e4 ff ff 	mov    %rax,-0x1b40(%rbp)
   112fc:	48 8b 8d c0 e4 ff ff 	mov    -0x1b40(%rbp),%rcx
   11303:	48 8b 05 66 7e 01 00 	mov    0x17e66(%rip),%rax        # 29170 <g_2899+0x290>
   1130a:	48 89 05 5f 7e 01 00 	mov    %rax,0x17e5f(%rip)        # 29170 <g_2899+0x290>
   11311:	48 8b 05 58 7e 01 00 	mov    0x17e58(%rip),%rax        # 29170 <g_2899+0x290>
   11318:	48 39 c1             	cmp    %rax,%rcx
   1131b:	0f 95 c0             	setne  %al
   1131e:	0f b6 c0             	movzbl %al,%eax
   11321:	89 d6                	mov    %edx,%esi
   11323:	89 c7                	mov    %eax,%edi
   11325:	e8 64 ba ff ff       	callq  cd8e <safe_div_func_uint16_t_u_u>
   1132a:	c7 85 e4 df ff ff 3d 	movl   $0x3d,-0x201c(%rbp)
   11331:	00 00 00 
   11334:	c7 85 1c e0 ff ff f0 	movl   $0x35b6e8f0,-0x1fe4(%rbp)
   1133b:	e8 b6 35 
   1133e:	48 8d 05 03 4f 01 00 	lea    0x14f03(%rip),%rax        # 26248 <g_397>
   11345:	48 89 85 10 e1 ff ff 	mov    %rax,-0x1ef0(%rbp)
   1134c:	c7 85 20 e0 ff ff 43 	movl   $0x192bd443,-0x1fe0(%rbp)
   11353:	d4 2b 19 
   11356:	48 8d 05 a3 4e 01 00 	lea    0x14ea3(%rip),%rax        # 26200 <g_260>
   1135d:	48 89 85 18 e1 ff ff 	mov    %rax,-0x1ee8(%rbp)
   11364:	48 c7 85 90 e0 ff ff 	movq   $0x0,-0x1f70(%rbp)
   1136b:	00 00 00 00 
   1136f:	48 8d 85 90 e0 ff ff 	lea    -0x1f70(%rbp),%rax
   11376:	48 89 85 70 f8 ff ff 	mov    %rax,-0x790(%rbp)
   1137d:	48 8d 85 90 e0 ff ff 	lea    -0x1f70(%rbp),%rax
   11384:	48 89 85 78 f8 ff ff 	mov    %rax,-0x788(%rbp)
   1138b:	48 8d 85 90 e0 ff ff 	lea    -0x1f70(%rbp),%rax
   11392:	48 89 85 80 f8 ff ff 	mov    %rax,-0x780(%rbp)
   11399:	48 8d 85 90 e0 ff ff 	lea    -0x1f70(%rbp),%rax
   113a0:	48 89 85 88 f8 ff ff 	mov    %rax,-0x778(%rbp)
   113a7:	48 8d 85 90 e0 ff ff 	lea    -0x1f70(%rbp),%rax
   113ae:	48 89 85 90 f8 ff ff 	mov    %rax,-0x770(%rbp)
   113b5:	48 8d 85 90 e0 ff ff 	lea    -0x1f70(%rbp),%rax
   113bc:	48 89 85 98 f8 ff ff 	mov    %rax,-0x768(%rbp)
   113c3:	48 8d 85 90 e0 ff ff 	lea    -0x1f70(%rbp),%rax
   113ca:	48 89 85 a0 f8 ff ff 	mov    %rax,-0x760(%rbp)
   113d1:	48 c7 85 a8 f8 ff ff 	movq   $0x0,-0x758(%rbp)
   113d8:	00 00 00 00 
   113dc:	48 8d 85 90 e0 ff ff 	lea    -0x1f70(%rbp),%rax
   113e3:	48 89 85 b0 f8 ff ff 	mov    %rax,-0x750(%rbp)
   113ea:	48 8d 85 90 e0 ff ff 	lea    -0x1f70(%rbp),%rax
   113f1:	48 89 85 b8 f8 ff ff 	mov    %rax,-0x748(%rbp)
   113f8:	48 8d 85 90 e0 ff ff 	lea    -0x1f70(%rbp),%rax
   113ff:	48 89 85 c0 f8 ff ff 	mov    %rax,-0x740(%rbp)
   11406:	48 c7 85 c8 f8 ff ff 	movq   $0x0,-0x738(%rbp)
   1140d:	00 00 00 00 
   11411:	48 c7 85 d0 f8 ff ff 	movq   $0x0,-0x730(%rbp)
   11418:	00 00 00 00 
   1141c:	48 8d 85 90 e0 ff ff 	lea    -0x1f70(%rbp),%rax
   11423:	48 89 85 d8 f8 ff ff 	mov    %rax,-0x728(%rbp)
   1142a:	48 c7 85 e0 f8 ff ff 	movq   $0x0,-0x720(%rbp)
   11431:	00 00 00 00 
   11435:	48 8d 85 90 e0 ff ff 	lea    -0x1f70(%rbp),%rax
   1143c:	48 89 85 e8 f8 ff ff 	mov    %rax,-0x718(%rbp)
   11443:	48 8d 85 90 e0 ff ff 	lea    -0x1f70(%rbp),%rax
   1144a:	48 89 85 f0 f8 ff ff 	mov    %rax,-0x710(%rbp)
   11451:	48 8d 85 90 e0 ff ff 	lea    -0x1f70(%rbp),%rax
   11458:	48 89 85 f8 f8 ff ff 	mov    %rax,-0x708(%rbp)
   1145f:	48 c7 85 00 f9 ff ff 	movq   $0x0,-0x700(%rbp)
   11466:	00 00 00 00 
   1146a:	48 c7 85 08 f9 ff ff 	movq   $0x0,-0x6f8(%rbp)
   11471:	00 00 00 00 
   11475:	48 c7 85 10 f9 ff ff 	movq   $0x0,-0x6f0(%rbp)
   1147c:	00 00 00 00 
   11480:	48 c7 85 18 f9 ff ff 	movq   $0x0,-0x6e8(%rbp)
   11487:	00 00 00 00 
   1148b:	48 8d 85 90 e0 ff ff 	lea    -0x1f70(%rbp),%rax
   11492:	48 89 85 20 f9 ff ff 	mov    %rax,-0x6e0(%rbp)
   11499:	48 8d 85 90 e0 ff ff 	lea    -0x1f70(%rbp),%rax
   114a0:	48 89 85 28 f9 ff ff 	mov    %rax,-0x6d8(%rbp)
   114a7:	48 c7 85 30 f9 ff ff 	movq   $0x0,-0x6d0(%rbp)
   114ae:	00 00 00 00 
   114b2:	48 c7 85 38 f9 ff ff 	movq   $0x0,-0x6c8(%rbp)
   114b9:	00 00 00 00 
   114bd:	48 8d 85 90 e0 ff ff 	lea    -0x1f70(%rbp),%rax
   114c4:	48 89 85 40 f9 ff ff 	mov    %rax,-0x6c0(%rbp)
   114cb:	48 8d 85 90 e0 ff ff 	lea    -0x1f70(%rbp),%rax
   114d2:	48 89 85 48 f9 ff ff 	mov    %rax,-0x6b8(%rbp)
   114d9:	48 c7 85 50 f9 ff ff 	movq   $0x0,-0x6b0(%rbp)
   114e0:	00 00 00 00 
   114e4:	48 8d 85 90 e0 ff ff 	lea    -0x1f70(%rbp),%rax
   114eb:	48 89 85 58 f9 ff ff 	mov    %rax,-0x6a8(%rbp)
   114f2:	48 8d 85 90 e0 ff ff 	lea    -0x1f70(%rbp),%rax
   114f9:	48 89 85 60 f9 ff ff 	mov    %rax,-0x6a0(%rbp)
   11500:	48 8d 85 90 e0 ff ff 	lea    -0x1f70(%rbp),%rax
   11507:	48 89 85 68 f9 ff ff 	mov    %rax,-0x698(%rbp)
   1150e:	48 c7 85 70 f9 ff ff 	movq   $0x0,-0x690(%rbp)
   11515:	00 00 00 00 
   11519:	48 8d 85 90 e0 ff ff 	lea    -0x1f70(%rbp),%rax
   11520:	48 89 85 78 f9 ff ff 	mov    %rax,-0x688(%rbp)
   11527:	48 8d 85 90 e0 ff ff 	lea    -0x1f70(%rbp),%rax
   1152e:	48 89 85 80 f9 ff ff 	mov    %rax,-0x680(%rbp)
   11535:	48 8d 85 90 e0 ff ff 	lea    -0x1f70(%rbp),%rax
   1153c:	48 89 85 88 f9 ff ff 	mov    %rax,-0x678(%rbp)
   11543:	48 8d 85 90 e0 ff ff 	lea    -0x1f70(%rbp),%rax
   1154a:	48 89 85 90 f9 ff ff 	mov    %rax,-0x670(%rbp)
   11551:	48 c7 85 98 f9 ff ff 	movq   $0x0,-0x668(%rbp)
   11558:	00 00 00 00 
   1155c:	48 8d 85 90 e0 ff ff 	lea    -0x1f70(%rbp),%rax
   11563:	48 89 85 a0 f9 ff ff 	mov    %rax,-0x660(%rbp)
   1156a:	48 8d 85 90 e0 ff ff 	lea    -0x1f70(%rbp),%rax
   11571:	48 89 85 a8 f9 ff ff 	mov    %rax,-0x658(%rbp)
   11578:	48 8d 85 90 e0 ff ff 	lea    -0x1f70(%rbp),%rax
   1157f:	48 89 85 b0 f9 ff ff 	mov    %rax,-0x650(%rbp)
   11586:	48 c7 85 b8 f9 ff ff 	movq   $0x0,-0x648(%rbp)
   1158d:	00 00 00 00 
   11591:	48 c7 85 c0 f9 ff ff 	movq   $0x0,-0x640(%rbp)
   11598:	00 00 00 00 
   1159c:	48 c7 85 c8 f9 ff ff 	movq   $0x0,-0x638(%rbp)
   115a3:	00 00 00 00 
   115a7:	48 8d 85 90 e0 ff ff 	lea    -0x1f70(%rbp),%rax
   115ae:	48 89 85 d0 f9 ff ff 	mov    %rax,-0x630(%rbp)
   115b5:	48 8d 85 90 e0 ff ff 	lea    -0x1f70(%rbp),%rax
   115bc:	48 89 85 d8 f9 ff ff 	mov    %rax,-0x628(%rbp)
   115c3:	48 8d 85 90 e0 ff ff 	lea    -0x1f70(%rbp),%rax
   115ca:	48 89 85 e0 f9 ff ff 	mov    %rax,-0x620(%rbp)
   115d1:	48 8d 85 90 e0 ff ff 	lea    -0x1f70(%rbp),%rax
   115d8:	48 89 85 e8 f9 ff ff 	mov    %rax,-0x618(%rbp)
   115df:	48 8d 85 90 e0 ff ff 	lea    -0x1f70(%rbp),%rax
   115e6:	48 89 85 f0 f9 ff ff 	mov    %rax,-0x610(%rbp)
   115ed:	48 8d 85 90 e0 ff ff 	lea    -0x1f70(%rbp),%rax
   115f4:	48 89 85 f8 f9 ff ff 	mov    %rax,-0x608(%rbp)
   115fb:	48 8d 85 90 e0 ff ff 	lea    -0x1f70(%rbp),%rax
   11602:	48 89 85 00 fa ff ff 	mov    %rax,-0x600(%rbp)
   11609:	48 c7 85 08 fa ff ff 	movq   $0x0,-0x5f8(%rbp)
   11610:	00 00 00 00 
   11614:	48 8d 85 90 e0 ff ff 	lea    -0x1f70(%rbp),%rax
   1161b:	48 89 85 10 fa ff ff 	mov    %rax,-0x5f0(%rbp)
   11622:	48 8d 85 90 e0 ff ff 	lea    -0x1f70(%rbp),%rax
   11629:	48 89 85 18 fa ff ff 	mov    %rax,-0x5e8(%rbp)
   11630:	48 8d 85 90 e0 ff ff 	lea    -0x1f70(%rbp),%rax
   11637:	48 89 85 20 fa ff ff 	mov    %rax,-0x5e0(%rbp)
   1163e:	48 c7 85 28 fa ff ff 	movq   $0x0,-0x5d8(%rbp)
   11645:	00 00 00 00 
   11649:	48 c7 85 30 fa ff ff 	movq   $0x0,-0x5d0(%rbp)
   11650:	00 00 00 00 
   11654:	48 8d 85 90 e0 ff ff 	lea    -0x1f70(%rbp),%rax
   1165b:	48 89 85 38 fa ff ff 	mov    %rax,-0x5c8(%rbp)
   11662:	48 8d 85 90 e0 ff ff 	lea    -0x1f70(%rbp),%rax
   11669:	48 89 85 40 fa ff ff 	mov    %rax,-0x5c0(%rbp)
   11670:	48 8d 85 90 e0 ff ff 	lea    -0x1f70(%rbp),%rax
   11677:	48 89 85 48 fa ff ff 	mov    %rax,-0x5b8(%rbp)
   1167e:	48 8d 85 90 e0 ff ff 	lea    -0x1f70(%rbp),%rax
   11685:	48 89 85 50 fa ff ff 	mov    %rax,-0x5b0(%rbp)
   1168c:	48 8d 85 90 e0 ff ff 	lea    -0x1f70(%rbp),%rax
   11693:	48 89 85 58 fa ff ff 	mov    %rax,-0x5a8(%rbp)
   1169a:	48 8d 85 90 e0 ff ff 	lea    -0x1f70(%rbp),%rax
   116a1:	48 89 85 60 fa ff ff 	mov    %rax,-0x5a0(%rbp)
   116a8:	48 c7 85 68 fa ff ff 	movq   $0x0,-0x598(%rbp)
   116af:	00 00 00 00 
   116b3:	48 8d 85 90 e0 ff ff 	lea    -0x1f70(%rbp),%rax
   116ba:	48 89 85 70 fa ff ff 	mov    %rax,-0x590(%rbp)
   116c1:	48 8d 85 90 e0 ff ff 	lea    -0x1f70(%rbp),%rax
   116c8:	48 89 85 78 fa ff ff 	mov    %rax,-0x588(%rbp)
   116cf:	48 c7 85 80 fa ff ff 	movq   $0x0,-0x580(%rbp)
   116d6:	00 00 00 00 
   116da:	48 c7 85 88 fa ff ff 	movq   $0x0,-0x578(%rbp)
   116e1:	00 00 00 00 
   116e5:	48 c7 85 90 fa ff ff 	movq   $0x0,-0x570(%rbp)
   116ec:	00 00 00 00 
   116f0:	48 8d 85 90 e0 ff ff 	lea    -0x1f70(%rbp),%rax
   116f7:	48 89 85 98 fa ff ff 	mov    %rax,-0x568(%rbp)
   116fe:	48 8d 85 90 e0 ff ff 	lea    -0x1f70(%rbp),%rax
   11705:	48 89 85 a0 fa ff ff 	mov    %rax,-0x560(%rbp)
   1170c:	48 8d 85 90 e0 ff ff 	lea    -0x1f70(%rbp),%rax
   11713:	48 89 85 a8 fa ff ff 	mov    %rax,-0x558(%rbp)
   1171a:	48 c7 85 b0 fa ff ff 	movq   $0x0,-0x550(%rbp)
   11721:	00 00 00 00 
   11725:	48 8d 85 90 e0 ff ff 	lea    -0x1f70(%rbp),%rax
   1172c:	48 89 85 b8 fa ff ff 	mov    %rax,-0x548(%rbp)
   11733:	48 c7 85 c0 fa ff ff 	movq   $0x0,-0x540(%rbp)
   1173a:	00 00 00 00 
   1173e:	48 8d 85 90 e0 ff ff 	lea    -0x1f70(%rbp),%rax
   11745:	48 89 85 c8 fa ff ff 	mov    %rax,-0x538(%rbp)
   1174c:	48 8d 85 90 e0 ff ff 	lea    -0x1f70(%rbp),%rax
   11753:	48 89 85 d0 fa ff ff 	mov    %rax,-0x530(%rbp)
   1175a:	48 8d 85 90 e0 ff ff 	lea    -0x1f70(%rbp),%rax
   11761:	48 89 85 d8 fa ff ff 	mov    %rax,-0x528(%rbp)
   11768:	48 8d 85 90 e0 ff ff 	lea    -0x1f70(%rbp),%rax
   1176f:	48 89 85 e0 fa ff ff 	mov    %rax,-0x520(%rbp)
   11776:	48 8d 85 90 e0 ff ff 	lea    -0x1f70(%rbp),%rax
   1177d:	48 89 85 e8 fa ff ff 	mov    %rax,-0x518(%rbp)
   11784:	48 8d 85 90 e0 ff ff 	lea    -0x1f70(%rbp),%rax
   1178b:	48 89 85 f0 fa ff ff 	mov    %rax,-0x510(%rbp)
   11792:	48 8d 85 90 e0 ff ff 	lea    -0x1f70(%rbp),%rax
   11799:	48 89 85 f8 fa ff ff 	mov    %rax,-0x508(%rbp)
   117a0:	48 8d 85 90 e0 ff ff 	lea    -0x1f70(%rbp),%rax
   117a7:	48 89 85 00 fb ff ff 	mov    %rax,-0x500(%rbp)
   117ae:	48 c7 85 08 fb ff ff 	movq   $0x0,-0x4f8(%rbp)
   117b5:	00 00 00 00 
   117b9:	48 c7 85 10 fb ff ff 	movq   $0x0,-0x4f0(%rbp)
   117c0:	00 00 00 00 
   117c4:	48 8d 85 90 e0 ff ff 	lea    -0x1f70(%rbp),%rax
   117cb:	48 89 85 18 fb ff ff 	mov    %rax,-0x4e8(%rbp)
   117d2:	48 8d 85 90 e0 ff ff 	lea    -0x1f70(%rbp),%rax
   117d9:	48 89 85 20 fb ff ff 	mov    %rax,-0x4e0(%rbp)
   117e0:	48 8d 85 90 e0 ff ff 	lea    -0x1f70(%rbp),%rax
   117e7:	48 89 85 28 fb ff ff 	mov    %rax,-0x4d8(%rbp)
   117ee:	48 8d 85 90 e0 ff ff 	lea    -0x1f70(%rbp),%rax
   117f5:	48 89 85 30 fb ff ff 	mov    %rax,-0x4d0(%rbp)
   117fc:	48 8d 85 90 e0 ff ff 	lea    -0x1f70(%rbp),%rax
   11803:	48 89 85 38 fb ff ff 	mov    %rax,-0x4c8(%rbp)
   1180a:	48 8d 85 90 e0 ff ff 	lea    -0x1f70(%rbp),%rax
   11811:	48 89 85 40 fb ff ff 	mov    %rax,-0x4c0(%rbp)
   11818:	48 8d 85 90 e0 ff ff 	lea    -0x1f70(%rbp),%rax
   1181f:	48 89 85 48 fb ff ff 	mov    %rax,-0x4b8(%rbp)
   11826:	48 8d 85 90 e0 ff ff 	lea    -0x1f70(%rbp),%rax
   1182d:	48 89 85 50 fb ff ff 	mov    %rax,-0x4b0(%rbp)
   11834:	48 c7 85 58 fb ff ff 	movq   $0x0,-0x4a8(%rbp)
   1183b:	00 00 00 00 
   1183f:	48 8d 85 90 e0 ff ff 	lea    -0x1f70(%rbp),%rax
   11846:	48 89 85 60 fb ff ff 	mov    %rax,-0x4a0(%rbp)
   1184d:	48 8d 85 90 e0 ff ff 	lea    -0x1f70(%rbp),%rax
   11854:	48 89 85 68 fb ff ff 	mov    %rax,-0x498(%rbp)
   1185b:	48 8d 85 90 e0 ff ff 	lea    -0x1f70(%rbp),%rax
   11862:	48 89 85 70 fb ff ff 	mov    %rax,-0x490(%rbp)
   11869:	48 c7 85 78 fb ff ff 	movq   $0x0,-0x488(%rbp)
   11870:	00 00 00 00 
   11874:	48 c7 85 80 fb ff ff 	movq   $0x0,-0x480(%rbp)
   1187b:	00 00 00 00 
   1187f:	48 8d 85 90 e0 ff ff 	lea    -0x1f70(%rbp),%rax
   11886:	48 89 85 88 fb ff ff 	mov    %rax,-0x478(%rbp)
   1188d:	48 8d 85 90 e0 ff ff 	lea    -0x1f70(%rbp),%rax
   11894:	48 89 85 90 fb ff ff 	mov    %rax,-0x470(%rbp)
   1189b:	48 8d 85 90 e0 ff ff 	lea    -0x1f70(%rbp),%rax
   118a2:	48 89 85 98 fb ff ff 	mov    %rax,-0x468(%rbp)
   118a9:	48 8d 85 90 e0 ff ff 	lea    -0x1f70(%rbp),%rax
   118b0:	48 89 85 a0 fb ff ff 	mov    %rax,-0x460(%rbp)
   118b7:	48 8d 85 90 e0 ff ff 	lea    -0x1f70(%rbp),%rax
   118be:	48 89 85 a8 fb ff ff 	mov    %rax,-0x458(%rbp)
   118c5:	48 8d 85 90 e0 ff ff 	lea    -0x1f70(%rbp),%rax
   118cc:	48 89 85 b0 fb ff ff 	mov    %rax,-0x450(%rbp)
   118d3:	48 8d 85 90 e0 ff ff 	lea    -0x1f70(%rbp),%rax
   118da:	48 89 85 b8 fb ff ff 	mov    %rax,-0x448(%rbp)
   118e1:	48 8d 85 90 e0 ff ff 	lea    -0x1f70(%rbp),%rax
   118e8:	48 89 85 c0 fb ff ff 	mov    %rax,-0x440(%rbp)
   118ef:	48 8d 85 90 e0 ff ff 	lea    -0x1f70(%rbp),%rax
   118f6:	48 89 85 c8 fb ff ff 	mov    %rax,-0x438(%rbp)
   118fd:	48 c7 85 d0 fb ff ff 	movq   $0x0,-0x430(%rbp)
   11904:	00 00 00 00 
   11908:	48 c7 85 d8 fb ff ff 	movq   $0x0,-0x428(%rbp)
   1190f:	00 00 00 00 
   11913:	48 8d 85 90 e0 ff ff 	lea    -0x1f70(%rbp),%rax
   1191a:	48 89 85 e0 fb ff ff 	mov    %rax,-0x420(%rbp)
   11921:	48 8d 85 90 e0 ff ff 	lea    -0x1f70(%rbp),%rax
   11928:	48 89 85 e8 fb ff ff 	mov    %rax,-0x418(%rbp)
   1192f:	48 c7 85 f0 fb ff ff 	movq   $0x0,-0x410(%rbp)
   11936:	00 00 00 00 
   1193a:	48 8d 85 90 e0 ff ff 	lea    -0x1f70(%rbp),%rax
   11941:	48 89 85 f8 fb ff ff 	mov    %rax,-0x408(%rbp)
   11948:	48 8d 85 90 e0 ff ff 	lea    -0x1f70(%rbp),%rax
   1194f:	48 89 85 00 fc ff ff 	mov    %rax,-0x400(%rbp)
   11956:	48 8d 85 90 e0 ff ff 	lea    -0x1f70(%rbp),%rax
   1195d:	48 89 85 08 fc ff ff 	mov    %rax,-0x3f8(%rbp)
   11964:	48 c7 85 10 fc ff ff 	movq   $0x0,-0x3f0(%rbp)
   1196b:	00 00 00 00 
   1196f:	48 8d 85 90 e0 ff ff 	lea    -0x1f70(%rbp),%rax
   11976:	48 89 85 18 fc ff ff 	mov    %rax,-0x3e8(%rbp)
   1197d:	48 8d 85 90 e0 ff ff 	lea    -0x1f70(%rbp),%rax
   11984:	48 89 85 20 fc ff ff 	mov    %rax,-0x3e0(%rbp)
   1198b:	48 8d 85 90 e0 ff ff 	lea    -0x1f70(%rbp),%rax
   11992:	48 89 85 28 fc ff ff 	mov    %rax,-0x3d8(%rbp)
   11999:	48 c7 85 30 fc ff ff 	movq   $0x0,-0x3d0(%rbp)
   119a0:	00 00 00 00 
   119a4:	48 c7 85 38 fc ff ff 	movq   $0x0,-0x3c8(%rbp)
   119ab:	00 00 00 00 
   119af:	48 c7 85 40 fc ff ff 	movq   $0x0,-0x3c0(%rbp)
   119b6:	00 00 00 00 
   119ba:	48 8d 85 90 e0 ff ff 	lea    -0x1f70(%rbp),%rax
   119c1:	48 89 85 48 fc ff ff 	mov    %rax,-0x3b8(%rbp)
   119c8:	48 8d 85 90 e0 ff ff 	lea    -0x1f70(%rbp),%rax
   119cf:	48 89 85 50 fc ff ff 	mov    %rax,-0x3b0(%rbp)
   119d6:	48 c7 85 58 fc ff ff 	movq   $0x0,-0x3a8(%rbp)
   119dd:	00 00 00 00 
   119e1:	48 c7 85 60 fc ff ff 	movq   $0x0,-0x3a0(%rbp)
   119e8:	00 00 00 00 
   119ec:	48 8d 85 90 e0 ff ff 	lea    -0x1f70(%rbp),%rax
   119f3:	48 89 85 68 fc ff ff 	mov    %rax,-0x398(%rbp)
   119fa:	48 c7 85 70 fc ff ff 	movq   $0x0,-0x390(%rbp)
   11a01:	00 00 00 00 
   11a05:	48 8d 85 90 e0 ff ff 	lea    -0x1f70(%rbp),%rax
   11a0c:	48 89 85 78 fc ff ff 	mov    %rax,-0x388(%rbp)
   11a13:	48 8d 85 90 e0 ff ff 	lea    -0x1f70(%rbp),%rax
   11a1a:	48 89 85 80 fc ff ff 	mov    %rax,-0x380(%rbp)
   11a21:	48 8d 85 90 e0 ff ff 	lea    -0x1f70(%rbp),%rax
   11a28:	48 89 85 88 fc ff ff 	mov    %rax,-0x378(%rbp)
   11a2f:	48 8d 85 90 e0 ff ff 	lea    -0x1f70(%rbp),%rax
   11a36:	48 89 85 90 fc ff ff 	mov    %rax,-0x370(%rbp)
   11a3d:	48 8d 85 90 e0 ff ff 	lea    -0x1f70(%rbp),%rax
   11a44:	48 89 85 98 fc ff ff 	mov    %rax,-0x368(%rbp)
   11a4b:	48 8d 85 90 e0 ff ff 	lea    -0x1f70(%rbp),%rax
   11a52:	48 89 85 a0 fc ff ff 	mov    %rax,-0x360(%rbp)
   11a59:	48 c7 85 a8 fc ff ff 	movq   $0x0,-0x358(%rbp)
   11a60:	00 00 00 00 
   11a64:	48 8d 85 90 e0 ff ff 	lea    -0x1f70(%rbp),%rax
   11a6b:	48 89 85 b0 fc ff ff 	mov    %rax,-0x350(%rbp)
   11a72:	48 8d 85 90 e0 ff ff 	lea    -0x1f70(%rbp),%rax
   11a79:	48 89 85 b8 fc ff ff 	mov    %rax,-0x348(%rbp)
   11a80:	48 8d 85 90 e0 ff ff 	lea    -0x1f70(%rbp),%rax
   11a87:	48 89 85 c0 fc ff ff 	mov    %rax,-0x340(%rbp)
   11a8e:	48 8d 85 90 e0 ff ff 	lea    -0x1f70(%rbp),%rax
   11a95:	48 89 85 c8 fc ff ff 	mov    %rax,-0x338(%rbp)
   11a9c:	48 8d 85 90 e0 ff ff 	lea    -0x1f70(%rbp),%rax
   11aa3:	48 89 85 d0 fc ff ff 	mov    %rax,-0x330(%rbp)
   11aaa:	48 8d 85 90 e0 ff ff 	lea    -0x1f70(%rbp),%rax
   11ab1:	48 89 85 d8 fc ff ff 	mov    %rax,-0x328(%rbp)
   11ab8:	48 8d 85 90 e0 ff ff 	lea    -0x1f70(%rbp),%rax
   11abf:	48 89 85 e0 fc ff ff 	mov    %rax,-0x320(%rbp)
   11ac6:	48 8d 85 90 e0 ff ff 	lea    -0x1f70(%rbp),%rax
   11acd:	48 89 85 e8 fc ff ff 	mov    %rax,-0x318(%rbp)
   11ad4:	48 8d 85 90 e0 ff ff 	lea    -0x1f70(%rbp),%rax
   11adb:	48 89 85 f0 fc ff ff 	mov    %rax,-0x310(%rbp)
   11ae2:	48 8d 85 90 e0 ff ff 	lea    -0x1f70(%rbp),%rax
   11ae9:	48 89 85 f8 fc ff ff 	mov    %rax,-0x308(%rbp)
   11af0:	48 c7 85 00 fd ff ff 	movq   $0x0,-0x300(%rbp)
   11af7:	00 00 00 00 
   11afb:	48 8d 85 90 e0 ff ff 	lea    -0x1f70(%rbp),%rax
   11b02:	48 89 85 08 fd ff ff 	mov    %rax,-0x2f8(%rbp)
   11b09:	48 c7 85 10 fd ff ff 	movq   $0x0,-0x2f0(%rbp)
   11b10:	00 00 00 00 
   11b14:	48 8d 85 90 e0 ff ff 	lea    -0x1f70(%rbp),%rax
   11b1b:	48 89 85 18 fd ff ff 	mov    %rax,-0x2e8(%rbp)
   11b22:	48 c7 85 20 fd ff ff 	movq   $0x0,-0x2e0(%rbp)
   11b29:	00 00 00 00 
   11b2d:	48 c7 85 28 fd ff ff 	movq   $0x0,-0x2d8(%rbp)
   11b34:	00 00 00 00 
   11b38:	48 8d 85 90 e0 ff ff 	lea    -0x1f70(%rbp),%rax
   11b3f:	48 89 85 30 fd ff ff 	mov    %rax,-0x2d0(%rbp)
   11b46:	48 8d 85 90 e0 ff ff 	lea    -0x1f70(%rbp),%rax
   11b4d:	48 89 85 38 fd ff ff 	mov    %rax,-0x2c8(%rbp)
   11b54:	48 8d 85 90 e0 ff ff 	lea    -0x1f70(%rbp),%rax
   11b5b:	48 89 85 40 fd ff ff 	mov    %rax,-0x2c0(%rbp)
   11b62:	48 c7 85 48 fd ff ff 	movq   $0x0,-0x2b8(%rbp)
   11b69:	00 00 00 00 
   11b6d:	48 8d 85 90 e0 ff ff 	lea    -0x1f70(%rbp),%rax
   11b74:	48 89 85 50 fd ff ff 	mov    %rax,-0x2b0(%rbp)
   11b7b:	48 8d 85 90 e0 ff ff 	lea    -0x1f70(%rbp),%rax
   11b82:	48 89 85 58 fd ff ff 	mov    %rax,-0x2a8(%rbp)
   11b89:	48 8d 85 90 e0 ff ff 	lea    -0x1f70(%rbp),%rax
   11b90:	48 89 85 60 fd ff ff 	mov    %rax,-0x2a0(%rbp)
   11b97:	48 8d 85 90 e0 ff ff 	lea    -0x1f70(%rbp),%rax
   11b9e:	48 89 85 68 fd ff ff 	mov    %rax,-0x298(%rbp)
   11ba5:	48 8d 85 90 e0 ff ff 	lea    -0x1f70(%rbp),%rax
   11bac:	48 89 85 70 fd ff ff 	mov    %rax,-0x290(%rbp)
   11bb3:	48 8d 85 90 e0 ff ff 	lea    -0x1f70(%rbp),%rax
   11bba:	48 89 85 78 fd ff ff 	mov    %rax,-0x288(%rbp)
   11bc1:	48 8d 85 90 e0 ff ff 	lea    -0x1f70(%rbp),%rax
   11bc8:	48 89 85 80 fd ff ff 	mov    %rax,-0x280(%rbp)
   11bcf:	48 8d 85 90 e0 ff ff 	lea    -0x1f70(%rbp),%rax
   11bd6:	48 89 85 88 fd ff ff 	mov    %rax,-0x278(%rbp)
   11bdd:	48 c7 85 90 fd ff ff 	movq   $0x0,-0x270(%rbp)
   11be4:	00 00 00 00 
   11be8:	48 8d 85 90 e0 ff ff 	lea    -0x1f70(%rbp),%rax
   11bef:	48 89 85 98 fd ff ff 	mov    %rax,-0x268(%rbp)
   11bf6:	48 8d 85 90 e0 ff ff 	lea    -0x1f70(%rbp),%rax
   11bfd:	48 89 85 a0 fd ff ff 	mov    %rax,-0x260(%rbp)
   11c04:	48 c7 85 a8 fd ff ff 	movq   $0x0,-0x258(%rbp)
   11c0b:	00 00 00 00 
   11c0f:	48 8d 85 90 e0 ff ff 	lea    -0x1f70(%rbp),%rax
   11c16:	48 89 85 b0 fd ff ff 	mov    %rax,-0x250(%rbp)
   11c1d:	48 c7 85 b8 fd ff ff 	movq   $0x0,-0x248(%rbp)
   11c24:	00 00 00 00 
   11c28:	48 8d 85 90 e0 ff ff 	lea    -0x1f70(%rbp),%rax
   11c2f:	48 89 85 c0 fd ff ff 	mov    %rax,-0x240(%rbp)
   11c36:	48 8d 85 90 e0 ff ff 	lea    -0x1f70(%rbp),%rax
   11c3d:	48 89 85 c8 fd ff ff 	mov    %rax,-0x238(%rbp)
   11c44:	48 8d 85 90 e0 ff ff 	lea    -0x1f70(%rbp),%rax
   11c4b:	48 89 85 d0 fd ff ff 	mov    %rax,-0x230(%rbp)
   11c52:	48 c7 85 d8 fd ff ff 	movq   $0x0,-0x228(%rbp)
   11c59:	00 00 00 00 
   11c5d:	48 8d 85 90 e0 ff ff 	lea    -0x1f70(%rbp),%rax
   11c64:	48 89 85 e0 fd ff ff 	mov    %rax,-0x220(%rbp)
   11c6b:	48 8d 85 90 e0 ff ff 	lea    -0x1f70(%rbp),%rax
   11c72:	48 89 85 e8 fd ff ff 	mov    %rax,-0x218(%rbp)
   11c79:	48 c7 85 f0 fd ff ff 	movq   $0x0,-0x210(%rbp)
   11c80:	00 00 00 00 
   11c84:	48 c7 85 f8 fd ff ff 	movq   $0x0,-0x208(%rbp)
   11c8b:	00 00 00 00 
   11c8f:	48 8d 85 90 e0 ff ff 	lea    -0x1f70(%rbp),%rax
   11c96:	48 89 85 00 fe ff ff 	mov    %rax,-0x200(%rbp)
   11c9d:	48 8d 85 90 e0 ff ff 	lea    -0x1f70(%rbp),%rax
   11ca4:	48 89 85 08 fe ff ff 	mov    %rax,-0x1f8(%rbp)
   11cab:	48 8d 85 90 e0 ff ff 	lea    -0x1f70(%rbp),%rax
   11cb2:	48 89 85 10 fe ff ff 	mov    %rax,-0x1f0(%rbp)
   11cb9:	48 8d 85 90 e0 ff ff 	lea    -0x1f70(%rbp),%rax
   11cc0:	48 89 85 18 fe ff ff 	mov    %rax,-0x1e8(%rbp)
   11cc7:	48 8d 85 90 e0 ff ff 	lea    -0x1f70(%rbp),%rax
   11cce:	48 89 85 20 fe ff ff 	mov    %rax,-0x1e0(%rbp)
   11cd5:	48 8d 85 90 e0 ff ff 	lea    -0x1f70(%rbp),%rax
   11cdc:	48 89 85 28 fe ff ff 	mov    %rax,-0x1d8(%rbp)
   11ce3:	48 8d 85 90 e0 ff ff 	lea    -0x1f70(%rbp),%rax
   11cea:	48 89 85 30 fe ff ff 	mov    %rax,-0x1d0(%rbp)
   11cf1:	48 8d 85 90 e0 ff ff 	lea    -0x1f70(%rbp),%rax
   11cf8:	48 89 85 38 fe ff ff 	mov    %rax,-0x1c8(%rbp)
   11cff:	48 8d 85 90 e0 ff ff 	lea    -0x1f70(%rbp),%rax
   11d06:	48 89 85 40 fe ff ff 	mov    %rax,-0x1c0(%rbp)
   11d0d:	48 8d 85 90 e0 ff ff 	lea    -0x1f70(%rbp),%rax
   11d14:	48 89 85 48 fe ff ff 	mov    %rax,-0x1b8(%rbp)
   11d1b:	48 c7 85 50 fe ff ff 	movq   $0x0,-0x1b0(%rbp)
   11d22:	00 00 00 00 
   11d26:	48 8d 85 90 e0 ff ff 	lea    -0x1f70(%rbp),%rax
   11d2d:	48 89 85 58 fe ff ff 	mov    %rax,-0x1a8(%rbp)
   11d34:	48 8d 85 90 e0 ff ff 	lea    -0x1f70(%rbp),%rax
   11d3b:	48 89 85 60 fe ff ff 	mov    %rax,-0x1a0(%rbp)
   11d42:	48 8d 85 90 e0 ff ff 	lea    -0x1f70(%rbp),%rax
   11d49:	48 89 85 68 fe ff ff 	mov    %rax,-0x198(%rbp)
   11d50:	48 8d 85 90 e0 ff ff 	lea    -0x1f70(%rbp),%rax
   11d57:	48 89 85 70 fe ff ff 	mov    %rax,-0x190(%rbp)
   11d5e:	48 8d 85 90 e0 ff ff 	lea    -0x1f70(%rbp),%rax
   11d65:	48 89 85 78 fe ff ff 	mov    %rax,-0x188(%rbp)
   11d6c:	48 8d 85 90 e0 ff ff 	lea    -0x1f70(%rbp),%rax
   11d73:	48 89 85 80 fe ff ff 	mov    %rax,-0x180(%rbp)
   11d7a:	48 8d 85 90 e0 ff ff 	lea    -0x1f70(%rbp),%rax
   11d81:	48 89 85 88 fe ff ff 	mov    %rax,-0x178(%rbp)
   11d88:	48 8d 85 90 e0 ff ff 	lea    -0x1f70(%rbp),%rax
   11d8f:	48 89 85 90 fe ff ff 	mov    %rax,-0x170(%rbp)
   11d96:	48 c7 85 98 fe ff ff 	movq   $0x0,-0x168(%rbp)
   11d9d:	00 00 00 00 
   11da1:	48 8d 85 90 e0 ff ff 	lea    -0x1f70(%rbp),%rax
   11da8:	48 89 85 a0 fe ff ff 	mov    %rax,-0x160(%rbp)
   11daf:	48 8d 85 90 e0 ff ff 	lea    -0x1f70(%rbp),%rax
   11db6:	48 89 85 a8 fe ff ff 	mov    %rax,-0x158(%rbp)
   11dbd:	48 8d 85 90 e0 ff ff 	lea    -0x1f70(%rbp),%rax
   11dc4:	48 89 85 b0 fe ff ff 	mov    %rax,-0x150(%rbp)
   11dcb:	48 c7 85 b8 fe ff ff 	movq   $0x0,-0x148(%rbp)
   11dd2:	00 00 00 00 
   11dd6:	48 8d 85 90 e0 ff ff 	lea    -0x1f70(%rbp),%rax
   11ddd:	48 89 85 c0 fe ff ff 	mov    %rax,-0x140(%rbp)
   11de4:	48 8d 85 90 e0 ff ff 	lea    -0x1f70(%rbp),%rax
   11deb:	48 89 85 c8 fe ff ff 	mov    %rax,-0x138(%rbp)
   11df2:	48 8d 85 90 e0 ff ff 	lea    -0x1f70(%rbp),%rax
   11df9:	48 89 85 d0 fe ff ff 	mov    %rax,-0x130(%rbp)
   11e00:	48 c7 85 d8 fe ff ff 	movq   $0x0,-0x128(%rbp)
   11e07:	00 00 00 00 
   11e0b:	48 8d 85 90 e0 ff ff 	lea    -0x1f70(%rbp),%rax
   11e12:	48 89 85 e0 fe ff ff 	mov    %rax,-0x120(%rbp)
   11e19:	48 c7 85 e8 fe ff ff 	movq   $0x0,-0x118(%rbp)
   11e20:	00 00 00 00 
   11e24:	48 8d 85 90 e0 ff ff 	lea    -0x1f70(%rbp),%rax
   11e2b:	48 89 85 f0 fe ff ff 	mov    %rax,-0x110(%rbp)
   11e32:	48 8d 85 90 e0 ff ff 	lea    -0x1f70(%rbp),%rax
   11e39:	48 89 85 f8 fe ff ff 	mov    %rax,-0x108(%rbp)
   11e40:	48 8d 85 90 e0 ff ff 	lea    -0x1f70(%rbp),%rax
   11e47:	48 89 85 00 ff ff ff 	mov    %rax,-0x100(%rbp)
   11e4e:	48 8d 85 90 e0 ff ff 	lea    -0x1f70(%rbp),%rax
   11e55:	48 89 85 08 ff ff ff 	mov    %rax,-0xf8(%rbp)
   11e5c:	48 c7 85 10 ff ff ff 	movq   $0x0,-0xf0(%rbp)
   11e63:	00 00 00 00 
   11e67:	48 8d 85 90 e0 ff ff 	lea    -0x1f70(%rbp),%rax
   11e6e:	48 89 85 18 ff ff ff 	mov    %rax,-0xe8(%rbp)
   11e75:	48 c7 85 20 ff ff ff 	movq   $0x0,-0xe0(%rbp)
   11e7c:	00 00 00 00 
   11e80:	48 8d 85 90 e0 ff ff 	lea    -0x1f70(%rbp),%rax
   11e87:	48 89 85 28 ff ff ff 	mov    %rax,-0xd8(%rbp)
   11e8e:	48 c7 85 30 ff ff ff 	movq   $0x0,-0xd0(%rbp)
   11e95:	00 00 00 00 
   11e99:	48 8d 85 90 e0 ff ff 	lea    -0x1f70(%rbp),%rax
   11ea0:	48 89 85 38 ff ff ff 	mov    %rax,-0xc8(%rbp)
   11ea7:	48 8d 85 90 e0 ff ff 	lea    -0x1f70(%rbp),%rax
   11eae:	48 89 85 40 ff ff ff 	mov    %rax,-0xc0(%rbp)
   11eb5:	48 c7 85 48 ff ff ff 	movq   $0x0,-0xb8(%rbp)
   11ebc:	00 00 00 00 
   11ec0:	48 8d 85 90 e0 ff ff 	lea    -0x1f70(%rbp),%rax
   11ec7:	48 89 85 50 ff ff ff 	mov    %rax,-0xb0(%rbp)
   11ece:	48 8d 85 90 e0 ff ff 	lea    -0x1f70(%rbp),%rax
   11ed5:	48 89 85 58 ff ff ff 	mov    %rax,-0xa8(%rbp)
   11edc:	48 8d 85 90 e0 ff ff 	lea    -0x1f70(%rbp),%rax
   11ee3:	48 89 85 60 ff ff ff 	mov    %rax,-0xa0(%rbp)
   11eea:	48 8d 85 90 e0 ff ff 	lea    -0x1f70(%rbp),%rax
   11ef1:	48 89 85 68 ff ff ff 	mov    %rax,-0x98(%rbp)
   11ef8:	48 c7 85 70 ff ff ff 	movq   $0x0,-0x90(%rbp)
   11eff:	00 00 00 00 
   11f03:	48 c7 85 78 ff ff ff 	movq   $0x0,-0x88(%rbp)
   11f0a:	00 00 00 00 
   11f0e:	48 8d 85 90 e0 ff ff 	lea    -0x1f70(%rbp),%rax
   11f15:	48 89 45 80          	mov    %rax,-0x80(%rbp)
   11f19:	48 c7 45 88 00 00 00 	movq   $0x0,-0x78(%rbp)
   11f20:	00 
   11f21:	48 c7 45 90 00 00 00 	movq   $0x0,-0x70(%rbp)
   11f28:	00 
   11f29:	48 8d 85 90 e0 ff ff 	lea    -0x1f70(%rbp),%rax
   11f30:	48 89 45 98          	mov    %rax,-0x68(%rbp)
   11f34:	48 8d 85 90 e0 ff ff 	lea    -0x1f70(%rbp),%rax
   11f3b:	48 89 45 a0          	mov    %rax,-0x60(%rbp)
   11f3f:	48 8d 85 90 e0 ff ff 	lea    -0x1f70(%rbp),%rax
   11f46:	48 89 45 a8          	mov    %rax,-0x58(%rbp)
   11f4a:	48 8d 85 90 e0 ff ff 	lea    -0x1f70(%rbp),%rax
   11f51:	48 89 45 b0          	mov    %rax,-0x50(%rbp)
   11f55:	48 c7 45 b8 00 00 00 	movq   $0x0,-0x48(%rbp)
   11f5c:	00 
   11f5d:	48 8d 85 90 e0 ff ff 	lea    -0x1f70(%rbp),%rax
   11f64:	48 89 45 c0          	mov    %rax,-0x40(%rbp)
   11f68:	48 c7 45 c8 00 00 00 	movq   $0x0,-0x38(%rbp)
   11f6f:	00 
   11f70:	48 c7 45 d0 00 00 00 	movq   $0x0,-0x30(%rbp)
   11f77:	00 
   11f78:	48 8d 85 90 e0 ff ff 	lea    -0x1f70(%rbp),%rax
   11f7f:	48 89 45 d8          	mov    %rax,-0x28(%rbp)
   11f83:	48 c7 45 e0 00 00 00 	movq   $0x0,-0x20(%rbp)
   11f8a:	00 
   11f8b:	48 c7 45 e8 00 00 00 	movq   $0x0,-0x18(%rbp)
   11f92:	00 
   11f93:	c7 85 24 e0 ff ff fa 	movl   $0xfffffffa,-0x1fdc(%rbp)
   11f9a:	ff ff ff 
   11f9d:	c7 85 ec df ff ff 03 	movl   $0xb5b13f03,-0x2014(%rbp)
   11fa4:	3f b1 b5 
   11fa7:	c7 85 f0 df ff ff 74 	movl   $0x550f2e74,-0x2010(%rbp)
   11fae:	2e 0f 55 
   11fb1:	c7 85 f4 df ff ff f6 	movl   $0xfffffff6,-0x200c(%rbp)
   11fb8:	ff ff ff 
   11fbb:	c7 85 f8 df ff ff f7 	movl   $0xfffffff7,-0x2008(%rbp)
   11fc2:	ff ff ff 
   11fc5:	c7 85 fc df ff ff 43 	movl   $0xfea84e43,-0x2004(%rbp)
   11fcc:	4e a8 fe 
   11fcf:	c7 85 00 e0 ff ff 39 	movl   $0xb29c5139,-0x2000(%rbp)
   11fd6:	51 9c b2 
   11fd9:	48 b8 66 48 4f 49 9d 	movabs $0xa0ef949d494f4866,%rax
   11fe0:	94 ef a0 
   11fe3:	48 89 85 20 e1 ff ff 	mov    %rax,-0x1ee0(%rbp)
   11fea:	c7 85 04 e0 ff ff d5 	movl   $0x414e3fd5,-0x1ffc(%rbp)
   11ff1:	3f 4e 41 
   11ff4:	48 c7 85 28 e1 ff ff 	movq   $0xffffffffffffffff,-0x1ed8(%rbp)
   11ffb:	ff ff ff ff 
   11fff:	48 c7 85 20 e5 ff ff 	movq   $0xfffffffffffffffe,-0x1ae0(%rbp)
   12006:	fe ff ff ff 
   1200a:	48 b8 83 5b 1c 7d fd 	movabs $0xc9bbe4fd7d1c5b83,%rax
   12011:	e4 bb c9 
   12014:	48 89 85 28 e5 ff ff 	mov    %rax,-0x1ad8(%rbp)
   1201b:	48 c7 85 30 e5 ff ff 	movq   $0x4,-0x1ad0(%rbp)
   12022:	04 00 00 00 
   12026:	48 b9 4c 29 0c f9 98 	movabs $0xd302c98f90c294c,%rcx
   1202d:	2c 30 0d 
   12030:	48 89 8d 38 e5 ff ff 	mov    %rcx,-0x1ac8(%rbp)
   12037:	48 c7 85 40 e5 ff ff 	movq   $0xfffffffffffffffe,-0x1ac0(%rbp)
   1203e:	fe ff ff ff 
   12042:	48 c7 85 48 e5 ff ff 	movq   $0x4,-0x1ab8(%rbp)
   12049:	04 00 00 00 
   1204d:	48 c7 85 50 e5 ff ff 	movq   $0xfffffffffffffffe,-0x1ab0(%rbp)
   12054:	fe ff ff ff 
   12058:	48 be 41 84 60 53 ca 	movabs $0xef6546ca53608441,%rsi
   1205f:	46 65 ef 
   12062:	48 89 b5 58 e5 ff ff 	mov    %rsi,-0x1aa8(%rbp)
   12069:	48 89 85 60 e5 ff ff 	mov    %rax,-0x1aa0(%rbp)
   12070:	48 89 8d 68 e5 ff ff 	mov    %rcx,-0x1a98(%rbp)
   12077:	48 89 b5 70 e5 ff ff 	mov    %rsi,-0x1a90(%rbp)
   1207e:	48 89 b5 78 e5 ff ff 	mov    %rsi,-0x1a88(%rbp)
   12085:	48 c7 85 80 e5 ff ff 	movq   $0x4,-0x1a80(%rbp)
   1208c:	04 00 00 00 
   12090:	48 c7 85 88 e5 ff ff 	movq   $0x4,-0x1a78(%rbp)
   12097:	04 00 00 00 
   1209b:	48 c7 85 90 e5 ff ff 	movq   $0xffffffffffffffff,-0x1a70(%rbp)
   120a2:	ff ff ff ff 
   120a6:	48 89 8d 98 e5 ff ff 	mov    %rcx,-0x1a68(%rbp)
   120ad:	48 89 8d a0 e5 ff ff 	mov    %rcx,-0x1a60(%rbp)
   120b4:	48 89 85 a8 e5 ff ff 	mov    %rax,-0x1a58(%rbp)
   120bb:	48 c7 85 b0 e5 ff ff 	movq   $0xffffffffffffffff,-0x1a50(%rbp)
   120c2:	ff ff ff ff 
   120c6:	48 89 85 b8 e5 ff ff 	mov    %rax,-0x1a48(%rbp)
   120cd:	48 c7 85 c0 e5 ff ff 	movq   $0x4,-0x1a40(%rbp)
   120d4:	04 00 00 00 
   120d8:	48 c7 85 c8 e5 ff ff 	movq   $0xfffffffffffffffe,-0x1a38(%rbp)
   120df:	fe ff ff ff 
   120e3:	48 89 b5 d0 e5 ff ff 	mov    %rsi,-0x1a30(%rbp)
   120ea:	48 c7 85 d8 e5 ff ff 	movq   $0xffffffffffffffff,-0x1a28(%rbp)
   120f1:	ff ff ff ff 
   120f5:	48 89 85 e0 e5 ff ff 	mov    %rax,-0x1a20(%rbp)
   120fc:	48 c7 85 e8 e5 ff ff 	movq   $0xfffffffffffffffe,-0x1a18(%rbp)
   12103:	fe ff ff ff 
   12107:	48 c7 85 f0 e5 ff ff 	movq   $0xfffffffffffffffe,-0x1a10(%rbp)
   1210e:	fe ff ff ff 
   12112:	48 89 85 f8 e5 ff ff 	mov    %rax,-0x1a08(%rbp)
   12119:	66 c7 85 de df ff ff 	movw   $0xd64d,-0x2022(%rbp)
   12120:	4d d6 
   12122:	48 8d 85 40 e0 ff ff 	lea    -0x1fc0(%rbp),%rax
   12129:	48 89 85 30 e9 ff ff 	mov    %rax,-0x16d0(%rbp)
   12130:	48 8d 05 31 69 01 00 	lea    0x16931(%rip),%rax        # 28a68 <g_1019>
   12137:	48 89 85 38 e9 ff ff 	mov    %rax,-0x16c8(%rbp)
   1213e:	48 8d 05 23 69 01 00 	lea    0x16923(%rip),%rax        # 28a68 <g_1019>
   12145:	48 89 85 40 e9 ff ff 	mov    %rax,-0x16c0(%rbp)
   1214c:	48 8d 85 40 e0 ff ff 	lea    -0x1fc0(%rbp),%rax
   12153:	48 89 85 48 e9 ff ff 	mov    %rax,-0x16b8(%rbp)
   1215a:	48 8d 05 07 69 01 00 	lea    0x16907(%rip),%rax        # 28a68 <g_1019>
   12161:	48 89 85 50 e9 ff ff 	mov    %rax,-0x16b0(%rbp)
   12168:	48 8d 05 f9 68 01 00 	lea    0x168f9(%rip),%rax        # 28a68 <g_1019>
   1216f:	48 89 85 58 e9 ff ff 	mov    %rax,-0x16a8(%rbp)
   12176:	48 8d 85 40 e0 ff ff 	lea    -0x1fc0(%rbp),%rax
   1217d:	48 89 85 60 e9 ff ff 	mov    %rax,-0x16a0(%rbp)
   12184:	48 8d 05 dd 68 01 00 	lea    0x168dd(%rip),%rax        # 28a68 <g_1019>
   1218b:	48 89 85 68 e9 ff ff 	mov    %rax,-0x1698(%rbp)
   12192:	48 8d 05 cf 68 01 00 	lea    0x168cf(%rip),%rax        # 28a68 <g_1019>
   12199:	48 89 85 70 e9 ff ff 	mov    %rax,-0x1690(%rbp)
   121a0:	48 8d 85 40 e0 ff ff 	lea    -0x1fc0(%rbp),%rax
   121a7:	48 89 85 78 e9 ff ff 	mov    %rax,-0x1688(%rbp)
   121ae:	48 8d 05 b3 68 01 00 	lea    0x168b3(%rip),%rax        # 28a68 <g_1019>
   121b5:	48 89 85 80 e9 ff ff 	mov    %rax,-0x1680(%rbp)
   121bc:	48 8d 05 a5 68 01 00 	lea    0x168a5(%rip),%rax        # 28a68 <g_1019>
   121c3:	48 89 85 88 e9 ff ff 	mov    %rax,-0x1678(%rbp)
   121ca:	48 8d 85 40 e0 ff ff 	lea    -0x1fc0(%rbp),%rax
   121d1:	48 89 85 90 e9 ff ff 	mov    %rax,-0x1670(%rbp)
   121d8:	48 8d 05 89 68 01 00 	lea    0x16889(%rip),%rax        # 28a68 <g_1019>
   121df:	48 89 85 98 e9 ff ff 	mov    %rax,-0x1668(%rbp)
   121e6:	48 8d 05 7b 68 01 00 	lea    0x1687b(%rip),%rax        # 28a68 <g_1019>
   121ed:	48 89 85 a0 e9 ff ff 	mov    %rax,-0x1660(%rbp)
   121f4:	48 8d 85 40 e0 ff ff 	lea    -0x1fc0(%rbp),%rax
   121fb:	48 89 85 a8 e9 ff ff 	mov    %rax,-0x1658(%rbp)
   12202:	48 8d 05 5f 68 01 00 	lea    0x1685f(%rip),%rax        # 28a68 <g_1019>
   12209:	48 89 85 b0 e9 ff ff 	mov    %rax,-0x1650(%rbp)
   12210:	48 8d 05 51 68 01 00 	lea    0x16851(%rip),%rax        # 28a68 <g_1019>
   12217:	48 89 85 b8 e9 ff ff 	mov    %rax,-0x1648(%rbp)
   1221e:	48 8d 85 40 e0 ff ff 	lea    -0x1fc0(%rbp),%rax
   12225:	48 89 85 c0 e9 ff ff 	mov    %rax,-0x1640(%rbp)
   1222c:	48 8d 05 35 68 01 00 	lea    0x16835(%rip),%rax        # 28a68 <g_1019>
   12233:	48 89 85 c8 e9 ff ff 	mov    %rax,-0x1638(%rbp)
   1223a:	48 8d 05 27 68 01 00 	lea    0x16827(%rip),%rax        # 28a68 <g_1019>
   12241:	48 89 85 d0 e9 ff ff 	mov    %rax,-0x1630(%rbp)
   12248:	48 8d 85 40 e0 ff ff 	lea    -0x1fc0(%rbp),%rax
   1224f:	48 89 85 d8 e9 ff ff 	mov    %rax,-0x1628(%rbp)
   12256:	48 8d 05 0b 68 01 00 	lea    0x1680b(%rip),%rax        # 28a68 <g_1019>
   1225d:	48 89 85 e0 e9 ff ff 	mov    %rax,-0x1620(%rbp)
   12264:	48 8d 05 fd 67 01 00 	lea    0x167fd(%rip),%rax        # 28a68 <g_1019>
   1226b:	48 89 85 e8 e9 ff ff 	mov    %rax,-0x1618(%rbp)
   12272:	48 8d 85 40 e0 ff ff 	lea    -0x1fc0(%rbp),%rax
   12279:	48 89 85 f0 e9 ff ff 	mov    %rax,-0x1610(%rbp)
   12280:	48 8d 05 e1 67 01 00 	lea    0x167e1(%rip),%rax        # 28a68 <g_1019>
   12287:	48 89 85 f8 e9 ff ff 	mov    %rax,-0x1608(%rbp)
   1228e:	48 8d 05 d3 67 01 00 	lea    0x167d3(%rip),%rax        # 28a68 <g_1019>
   12295:	48 89 85 00 ea ff ff 	mov    %rax,-0x1600(%rbp)
   1229c:	48 8d 85 40 e0 ff ff 	lea    -0x1fc0(%rbp),%rax
   122a3:	48 89 85 08 ea ff ff 	mov    %rax,-0x15f8(%rbp)
   122aa:	48 8d 05 b7 67 01 00 	lea    0x167b7(%rip),%rax        # 28a68 <g_1019>
   122b1:	48 89 85 10 ea ff ff 	mov    %rax,-0x15f0(%rbp)
   122b8:	48 8d 05 a9 67 01 00 	lea    0x167a9(%rip),%rax        # 28a68 <g_1019>
   122bf:	48 89 85 18 ea ff ff 	mov    %rax,-0x15e8(%rbp)
   122c6:	48 8d 85 40 e0 ff ff 	lea    -0x1fc0(%rbp),%rax
   122cd:	48 89 85 20 ea ff ff 	mov    %rax,-0x15e0(%rbp)
   122d4:	48 8d 05 8d 67 01 00 	lea    0x1678d(%rip),%rax        # 28a68 <g_1019>
   122db:	48 89 85 28 ea ff ff 	mov    %rax,-0x15d8(%rbp)
   122e2:	48 8d 05 7f 67 01 00 	lea    0x1677f(%rip),%rax        # 28a68 <g_1019>
   122e9:	48 89 85 30 ea ff ff 	mov    %rax,-0x15d0(%rbp)
   122f0:	48 8d 85 40 e0 ff ff 	lea    -0x1fc0(%rbp),%rax
   122f7:	48 89 85 38 ea ff ff 	mov    %rax,-0x15c8(%rbp)
   122fe:	48 8d 05 63 67 01 00 	lea    0x16763(%rip),%rax        # 28a68 <g_1019>
   12305:	48 89 85 40 ea ff ff 	mov    %rax,-0x15c0(%rbp)
   1230c:	48 8d 05 55 67 01 00 	lea    0x16755(%rip),%rax        # 28a68 <g_1019>
   12313:	48 89 85 48 ea ff ff 	mov    %rax,-0x15b8(%rbp)
   1231a:	48 8d 85 40 e0 ff ff 	lea    -0x1fc0(%rbp),%rax
   12321:	48 89 85 50 ea ff ff 	mov    %rax,-0x15b0(%rbp)
   12328:	48 8d 05 39 67 01 00 	lea    0x16739(%rip),%rax        # 28a68 <g_1019>
   1232f:	48 89 85 58 ea ff ff 	mov    %rax,-0x15a8(%rbp)
   12336:	48 8d 05 2b 67 01 00 	lea    0x1672b(%rip),%rax        # 28a68 <g_1019>
   1233d:	48 89 85 60 ea ff ff 	mov    %rax,-0x15a0(%rbp)
   12344:	48 8d 85 40 e0 ff ff 	lea    -0x1fc0(%rbp),%rax
   1234b:	48 89 85 68 ea ff ff 	mov    %rax,-0x1598(%rbp)
   12352:	48 c7 85 70 e3 ff ff 	movq   $0x0,-0x1c90(%rbp)
   12359:	00 00 00 00 
   1235d:	48 8d 05 44 69 01 00 	lea    0x16944(%rip),%rax        # 28ca8 <g_2594+0x28>
   12364:	48 89 85 78 e3 ff ff 	mov    %rax,-0x1c88(%rbp)
   1236b:	48 c7 85 80 e3 ff ff 	movq   $0x0,-0x1c80(%rbp)
   12372:	00 00 00 00 
   12376:	48 8d 05 2b 69 01 00 	lea    0x1692b(%rip),%rax        # 28ca8 <g_2594+0x28>
   1237d:	48 89 85 88 e3 ff ff 	mov    %rax,-0x1c78(%rbp)
   12384:	48 c7 85 90 e3 ff ff 	movq   $0x0,-0x1c70(%rbp)
   1238b:	00 00 00 00 
   1238f:	48 8d 05 12 69 01 00 	lea    0x16912(%rip),%rax        # 28ca8 <g_2594+0x28>
   12396:	48 89 85 98 e3 ff ff 	mov    %rax,-0x1c68(%rbp)
   1239d:	48 c7 85 a0 e3 ff ff 	movq   $0x0,-0x1c60(%rbp)
   123a4:	00 00 00 00 
   123a8:	48 8d 05 f9 68 01 00 	lea    0x168f9(%rip),%rax        # 28ca8 <g_2594+0x28>
   123af:	48 89 85 a8 e3 ff ff 	mov    %rax,-0x1c58(%rbp)
   123b6:	48 c7 85 b0 e3 ff ff 	movq   $0x0,-0x1c50(%rbp)
   123bd:	00 00 00 00 
   123c1:	48 b8 00 01 01 00 01 	movabs $0x4cfffb0100010100,%rax
   123c8:	fb ff 4c 
   123cb:	48 89 85 b0 e2 ff ff 	mov    %rax,-0x1d50(%rbp)
   123d2:	c6 85 b8 e2 ff ff b2 	movb   $0xb2,-0x1d48(%rbp)
   123d9:	48 b8 fa e5 84 db db 	movabs $0xfae584dbdb84e5fa,%rax
   123e0:	84 e5 fa 
   123e3:	48 89 85 b9 e2 ff ff 	mov    %rax,-0x1d47(%rbp)
   123ea:	c6 85 c1 e2 ff ff b0 	movb   $0xb0,-0x1d3f(%rbp)
   123f1:	48 b8 f9 2f b2 70 01 	movabs $0x14c4c0170b22ff9,%rax
   123f8:	4c 4c 01 
   123fb:	48 89 85 c2 e2 ff ff 	mov    %rax,-0x1d3e(%rbp)
   12402:	c6 85 ca e2 ff ff 70 	movb   $0x70,-0x1d36(%rbp)
   12409:	48 b8 03 ff 03 09 00 	movabs $0xff0384000903ff03,%rax
   12410:	84 03 ff 
   12413:	48 89 85 cb e2 ff ff 	mov    %rax,-0x1d35(%rbp)
   1241a:	c6 85 d3 e2 ff ff ff 	movb   $0xff,-0x1d2d(%rbp)
   12421:	48 b8 00 70 ff 01 ff 	movabs $0x250070ff01ff7000,%rax
   12428:	70 00 25 
   1242b:	48 89 85 d4 e2 ff ff 	mov    %rax,-0x1d2c(%rbp)
   12432:	c6 85 dc e2 ff ff 20 	movb   $0x20,-0x1d24(%rbp)
   12439:	48 b8 03 84 00 17 db 	movabs $0x17dbfadb17008403,%rax
   12440:	fa db 17 
   12443:	48 89 85 dd e2 ff ff 	mov    %rax,-0x1d23(%rbp)
   1244a:	c6 85 e5 e2 ff ff 00 	movb   $0x0,-0x1d1b(%rbp)
   12451:	c7 85 c0 e1 ff ff de 	movl   $0xd8f6dede,-0x1e40(%rbp)
   12458:	de f6 d8 
   1245b:	66 c7 85 c4 e1 ff ff 	movw   $0xd8ff,-0x1e3c(%rbp)
   12462:	ff d8 
   12464:	c7 85 c6 e1 ff ff 06 	movl   $0xfd06de06,-0x1e3a(%rbp)
   1246b:	de 06 fd 
   1246e:	66 c7 85 ca e1 ff ff 	movw   $0xf6f6,-0x1e36(%rbp)
   12475:	f6 f6 
   12477:	c7 85 cc e1 ff ff f7 	movl   $0xf70606f7,-0x1e34(%rbp)
   1247e:	06 06 f7 
   12481:	66 c7 85 d0 e1 ff ff 	movw   $0xd8de,-0x1e30(%rbp)
   12488:	de d8 
   1248a:	c7 85 d2 e1 ff ff d8 	movl   $0xf7f6f7d8,-0x1e2e(%rbp)
   12491:	f7 f6 f7 
   12494:	66 c7 85 d6 e1 ff ff 	movw   $0xfdd8,-0x1e2a(%rbp)
   1249b:	d8 fd 
   1249d:	48 8d 85 60 e0 ff ff 	lea    -0x1fa0(%rbp),%rax
   124a4:	48 89 85 30 e1 ff ff 	mov    %rax,-0x1ed0(%rbp)
   124ab:	48 8d 05 5e 66 01 00 	lea    0x1665e(%rip),%rax        # 28b10 <g_1561>
   124b2:	48 89 85 98 e0 ff ff 	mov    %rax,-0x1f68(%rbp)
   124b9:	48 8d 85 98 e0 ff ff 	lea    -0x1f68(%rbp),%rax
   124c0:	48 89 85 38 e1 ff ff 	mov    %rax,-0x1ec8(%rbp)
   124c7:	48 8d 05 5a 59 01 00 	lea    0x1595a(%rip),%rax        # 27e28 <g_433>
   124ce:	48 89 85 40 e1 ff ff 	mov    %rax,-0x1ec0(%rbp)
   124d5:	48 8d 05 8c 30 01 00 	lea    0x1308c(%rip),%rax        # 25568 <g_488>
   124dc:	48 89 85 48 e1 ff ff 	mov    %rax,-0x1eb8(%rbp)
   124e3:	48 c7 85 50 e1 ff ff 	movq   $0x0,-0x1eb0(%rbp)
   124ea:	00 00 00 00 
   124ee:	66 c7 85 e0 df ff ff 	movw   $0xc59b,-0x2020(%rbp)
   124f5:	9b c5 
   124f7:	48 8d 05 c2 89 01 00 	lea    0x189c2(%rip),%rax        # 2aec0 <g_1020>
   124fe:	48 89 85 58 e1 ff ff 	mov    %rax,-0x1ea8(%rbp)
   12505:	c7 85 28 e0 ff ff 03 	movl   $0x3,-0x1fd8(%rbp)
   1250c:	00 00 00 
   1250f:	48 8d 85 30 e3 ff ff 	lea    -0x1cd0(%rbp),%rax
   12516:	48 83 c0 30          	add    $0x30,%rax
   1251a:	48 89 85 b0 f1 ff ff 	mov    %rax,-0xe50(%rbp)
   12521:	48 8d 05 b4 3d 01 00 	lea    0x13db4(%rip),%rax        # 262dc <g_1943>
   12528:	48 89 85 b8 f1 ff ff 	mov    %rax,-0xe48(%rbp)
   1252f:	48 c7 85 c0 f1 ff ff 	movq   $0x0,-0xe40(%rbp)
   12536:	00 00 00 00 
   1253a:	48 8d 85 30 e3 ff ff 	lea    -0x1cd0(%rbp),%rax
   12541:	48 83 c0 10          	add    $0x10,%rax
   12545:	48 89 85 c8 f1 ff ff 	mov    %rax,-0xe38(%rbp)
   1254c:	48 c7 85 d0 f1 ff ff 	movq   $0x0,-0xe30(%rbp)
   12553:	00 00 00 00 
   12557:	48 8d 85 30 e3 ff ff 	lea    -0x1cd0(%rbp),%rax
   1255e:	48 89 85 d8 f1 ff ff 	mov    %rax,-0xe28(%rbp)
   12565:	48 c7 85 e0 f1 ff ff 	movq   $0x0,-0xe20(%rbp)
   1256c:	00 00 00 00 
   12570:	48 8d 85 04 e0 ff ff 	lea    -0x1ffc(%rbp),%rax
   12577:	48 89 85 e8 f1 ff ff 	mov    %rax,-0xe18(%rbp)
   1257e:	48 c7 85 f0 f1 ff ff 	movq   $0x0,-0xe10(%rbp)
   12585:	00 00 00 00 
   12589:	48 8d 85 e8 df ff ff 	lea    -0x2018(%rbp),%rax
   12590:	48 89 85 f8 f1 ff ff 	mov    %rax,-0xe08(%rbp)
   12597:	48 c7 85 00 f2 ff ff 	movq   $0x0,-0xe00(%rbp)
   1259e:	00 00 00 00 
   125a2:	48 8d 85 f4 df ff ff 	lea    -0x200c(%rbp),%rax
   125a9:	48 89 85 08 f2 ff ff 	mov    %rax,-0xdf8(%rbp)
   125b0:	48 8d 85 f8 df ff ff 	lea    -0x2008(%rbp),%rax
   125b7:	48 89 85 10 f2 ff ff 	mov    %rax,-0xdf0(%rbp)
   125be:	48 8d 85 30 e3 ff ff 	lea    -0x1cd0(%rbp),%rax
   125c5:	48 83 c0 10          	add    $0x10,%rax
   125c9:	48 89 85 18 f2 ff ff 	mov    %rax,-0xde8(%rbp)
   125d0:	48 8d 85 f8 df ff ff 	lea    -0x2008(%rbp),%rax
   125d7:	48 89 85 20 f2 ff ff 	mov    %rax,-0xde0(%rbp)
   125de:	48 c7 85 28 f2 ff ff 	movq   $0x0,-0xdd8(%rbp)
   125e5:	00 00 00 00 
   125e9:	48 8d 85 30 e3 ff ff 	lea    -0x1cd0(%rbp),%rax
   125f0:	48 89 85 30 f2 ff ff 	mov    %rax,-0xdd0(%rbp)
   125f7:	48 8d 85 f4 df ff ff 	lea    -0x200c(%rbp),%rax
   125fe:	48 89 85 38 f2 ff ff 	mov    %rax,-0xdc8(%rbp)
   12605:	48 8d 85 04 e0 ff ff 	lea    -0x1ffc(%rbp),%rax
   1260c:	48 89 85 40 f2 ff ff 	mov    %rax,-0xdc0(%rbp)
   12613:	48 c7 85 48 f2 ff ff 	movq   $0x0,-0xdb8(%rbp)
   1261a:	00 00 00 00 
   1261e:	48 8d 85 f0 df ff ff 	lea    -0x2010(%rbp),%rax
   12625:	48 89 85 50 f2 ff ff 	mov    %rax,-0xdb0(%rbp)
   1262c:	48 c7 85 58 f2 ff ff 	movq   $0x0,-0xda8(%rbp)
   12633:	00 00 00 00 
   12637:	48 8d 05 0a 3c 01 00 	lea    0x13c0a(%rip),%rax        # 26248 <g_397>
   1263e:	48 89 85 60 f2 ff ff 	mov    %rax,-0xda0(%rbp)
   12645:	48 8d 85 fc df ff ff 	lea    -0x2004(%rbp),%rax
   1264c:	48 89 85 68 f2 ff ff 	mov    %rax,-0xd98(%rbp)
   12653:	48 8d 05 82 3c 01 00 	lea    0x13c82(%rip),%rax        # 262dc <g_1943>
   1265a:	48 89 85 70 f2 ff ff 	mov    %rax,-0xd90(%rbp)
   12661:	48 8d 85 f0 e2 ff ff 	lea    -0x1d10(%rbp),%rax
   12668:	48 83 c0 34          	add    $0x34,%rax
   1266c:	48 89 85 78 f2 ff ff 	mov    %rax,-0xd88(%rbp)
   12673:	48 c7 85 80 f2 ff ff 	movq   $0x0,-0xd80(%rbp)
   1267a:	00 00 00 00 
   1267e:	48 8d 85 f0 df ff ff 	lea    -0x2010(%rbp),%rax
   12685:	48 89 85 88 f2 ff ff 	mov    %rax,-0xd78(%rbp)
   1268c:	48 8d 85 e8 df ff ff 	lea    -0x2018(%rbp),%rax
   12693:	48 89 85 90 f2 ff ff 	mov    %rax,-0xd70(%rbp)
   1269a:	48 c7 85 98 f2 ff ff 	movq   $0x0,-0xd68(%rbp)
   126a1:	00 00 00 00 
   126a5:	48 8d 85 04 e0 ff ff 	lea    -0x1ffc(%rbp),%rax
   126ac:	48 89 85 a0 f2 ff ff 	mov    %rax,-0xd60(%rbp)
   126b3:	48 c7 85 a8 f2 ff ff 	movq   $0x0,-0xd58(%rbp)
   126ba:	00 00 00 00 
   126be:	48 8d 05 83 3b 01 00 	lea    0x13b83(%rip),%rax        # 26248 <g_397>
   126c5:	48 89 85 b0 f2 ff ff 	mov    %rax,-0xd50(%rbp)
   126cc:	48 8d 85 00 e0 ff ff 	lea    -0x2000(%rbp),%rax
   126d3:	48 89 85 b8 f2 ff ff 	mov    %rax,-0xd48(%rbp)
   126da:	48 8d 85 30 e3 ff ff 	lea    -0x1cd0(%rbp),%rax
   126e1:	48 83 c0 10          	add    $0x10,%rax
   126e5:	48 89 85 c0 f2 ff ff 	mov    %rax,-0xd40(%rbp)
   126ec:	48 8d 85 00 e0 ff ff 	lea    -0x2000(%rbp),%rax
   126f3:	48 89 85 c8 f2 ff ff 	mov    %rax,-0xd38(%rbp)
   126fa:	48 8d 85 e8 df ff ff 	lea    -0x2018(%rbp),%rax
   12701:	48 89 85 d0 f2 ff ff 	mov    %rax,-0xd30(%rbp)
   12708:	48 8d 85 04 e0 ff ff 	lea    -0x1ffc(%rbp),%rax
   1270f:	48 89 85 d8 f2 ff ff 	mov    %rax,-0xd28(%rbp)
   12716:	48 8d 85 e8 df ff ff 	lea    -0x2018(%rbp),%rax
   1271d:	48 89 85 e0 f2 ff ff 	mov    %rax,-0xd20(%rbp)
   12724:	48 8d 85 04 e0 ff ff 	lea    -0x1ffc(%rbp),%rax
   1272b:	48 89 85 e8 f2 ff ff 	mov    %rax,-0xd18(%rbp)
   12732:	48 c7 85 f0 f2 ff ff 	movq   $0x0,-0xd10(%rbp)
   12739:	00 00 00 00 
   1273d:	48 c7 85 f8 f2 ff ff 	movq   $0x0,-0xd08(%rbp)
   12744:	00 00 00 00 
   12748:	48 8d 85 04 e0 ff ff 	lea    -0x1ffc(%rbp),%rax
   1274f:	48 89 85 00 f3 ff ff 	mov    %rax,-0xd00(%rbp)
   12756:	48 8d 05 7f 3b 01 00 	lea    0x13b7f(%rip),%rax        # 262dc <g_1943>
   1275d:	48 89 85 08 f3 ff ff 	mov    %rax,-0xcf8(%rbp)
   12764:	48 8d 85 30 e3 ff ff 	lea    -0x1cd0(%rbp),%rax
   1276b:	48 89 85 10 f3 ff ff 	mov    %rax,-0xcf0(%rbp)
   12772:	48 8d 85 30 e3 ff ff 	lea    -0x1cd0(%rbp),%rax
   12779:	48 83 c0 30          	add    $0x30,%rax
   1277d:	48 89 85 18 f3 ff ff 	mov    %rax,-0xce8(%rbp)
   12784:	48 8d 85 e4 df ff ff 	lea    -0x201c(%rbp),%rax
   1278b:	48 89 85 20 f3 ff ff 	mov    %rax,-0xce0(%rbp)
   12792:	48 8d 85 f0 e2 ff ff 	lea    -0x1d10(%rbp),%rax
   12799:	48 83 c0 34          	add    $0x34,%rax
   1279d:	48 89 85 28 f3 ff ff 	mov    %rax,-0xcd8(%rbp)
   127a4:	48 8d 85 e8 df ff ff 	lea    -0x2018(%rbp),%rax
   127ab:	48 89 85 30 f3 ff ff 	mov    %rax,-0xcd0(%rbp)
   127b2:	48 8d 05 8f 3a 01 00 	lea    0x13a8f(%rip),%rax        # 26248 <g_397>
   127b9:	48 89 85 38 f3 ff ff 	mov    %rax,-0xcc8(%rbp)
   127c0:	48 c7 85 40 f3 ff ff 	movq   $0x0,-0xcc0(%rbp)
   127c7:	00 00 00 00 
   127cb:	48 8d 85 30 e3 ff ff 	lea    -0x1cd0(%rbp),%rax
   127d2:	48 83 c0 30          	add    $0x30,%rax
   127d6:	48 89 85 48 f3 ff ff 	mov    %rax,-0xcb8(%rbp)
   127dd:	48 8d 85 04 e0 ff ff 	lea    -0x1ffc(%rbp),%rax
   127e4:	48 89 85 50 f3 ff ff 	mov    %rax,-0xcb0(%rbp)
   127eb:	48 8d 85 04 e0 ff ff 	lea    -0x1ffc(%rbp),%rax
   127f2:	48 89 85 58 f3 ff ff 	mov    %rax,-0xca8(%rbp)
   127f9:	48 8d 85 04 e0 ff ff 	lea    -0x1ffc(%rbp),%rax
   12800:	48 89 85 60 f3 ff ff 	mov    %rax,-0xca0(%rbp)
   12807:	48 8d 85 f8 df ff ff 	lea    -0x2008(%rbp),%rax
   1280e:	48 89 85 68 f3 ff ff 	mov    %rax,-0xc98(%rbp)
   12815:	48 8d 85 f0 e2 ff ff 	lea    -0x1d10(%rbp),%rax
   1281c:	48 83 c0 34          	add    $0x34,%rax
   12820:	48 89 85 70 f3 ff ff 	mov    %rax,-0xc90(%rbp)
   12827:	48 8d 85 04 e0 ff ff 	lea    -0x1ffc(%rbp),%rax
   1282e:	48 89 85 78 f3 ff ff 	mov    %rax,-0xc88(%rbp)
   12835:	48 c7 85 80 f3 ff ff 	movq   $0x0,-0xc80(%rbp)
   1283c:	00 00 00 00 
   12840:	48 8d 85 f8 df ff ff 	lea    -0x2008(%rbp),%rax
   12847:	48 89 85 88 f3 ff ff 	mov    %rax,-0xc78(%rbp)
   1284e:	48 8d 85 e8 df ff ff 	lea    -0x2018(%rbp),%rax
   12855:	48 89 85 90 f3 ff ff 	mov    %rax,-0xc70(%rbp)
   1285c:	48 c7 85 98 f3 ff ff 	movq   $0x0,-0xc68(%rbp)
   12863:	00 00 00 00 
   12867:	48 c7 85 a0 f3 ff ff 	movq   $0x0,-0xc60(%rbp)
   1286e:	00 00 00 00 
   12872:	48 8d 85 00 e0 ff ff 	lea    -0x2000(%rbp),%rax
   12879:	48 89 85 a8 f3 ff ff 	mov    %rax,-0xc58(%rbp)
   12880:	48 8d 85 f8 df ff ff 	lea    -0x2008(%rbp),%rax
   12887:	48 89 85 b0 f3 ff ff 	mov    %rax,-0xc50(%rbp)
   1288e:	48 8d 85 e8 df ff ff 	lea    -0x2018(%rbp),%rax
   12895:	48 89 85 b8 f3 ff ff 	mov    %rax,-0xc48(%rbp)
   1289c:	48 8d 85 04 e0 ff ff 	lea    -0x1ffc(%rbp),%rax
   128a3:	48 89 85 c0 f3 ff ff 	mov    %rax,-0xc40(%rbp)
   128aa:	48 c7 85 c8 f3 ff ff 	movq   $0x0,-0xc38(%rbp)
   128b1:	00 00 00 00 
   128b5:	48 8d 85 f0 e2 ff ff 	lea    -0x1d10(%rbp),%rax
   128bc:	48 83 c0 34          	add    $0x34,%rax
   128c0:	48 89 85 d0 f3 ff ff 	mov    %rax,-0xc30(%rbp)
   128c7:	48 8d 85 f0 df ff ff 	lea    -0x2010(%rbp),%rax
   128ce:	48 89 85 d8 f3 ff ff 	mov    %rax,-0xc28(%rbp)
   128d5:	48 c7 85 e0 f3 ff ff 	movq   $0x0,-0xc20(%rbp)
   128dc:	00 00 00 00 
   128e0:	48 c7 85 e8 f3 ff ff 	movq   $0x0,-0xc18(%rbp)
   128e7:	00 00 00 00 
   128eb:	48 8d 05 ea 39 01 00 	lea    0x139ea(%rip),%rax        # 262dc <g_1943>
   128f2:	48 89 85 f0 f3 ff ff 	mov    %rax,-0xc10(%rbp)
   128f9:	48 8d 85 f4 df ff ff 	lea    -0x200c(%rbp),%rax
   12900:	48 89 85 f8 f3 ff ff 	mov    %rax,-0xc08(%rbp)
   12907:	48 c7 85 00 f4 ff ff 	movq   $0x0,-0xc00(%rbp)
   1290e:	00 00 00 00 
   12912:	48 c7 85 08 f4 ff ff 	movq   $0x0,-0xbf8(%rbp)
   12919:	00 00 00 00 
   1291d:	48 8d 85 f4 df ff ff 	lea    -0x200c(%rbp),%rax
   12924:	48 89 85 10 f4 ff ff 	mov    %rax,-0xbf0(%rbp)
   1292b:	48 8d 85 f8 df ff ff 	lea    -0x2008(%rbp),%rax
   12932:	48 89 85 18 f4 ff ff 	mov    %rax,-0xbe8(%rbp)
   12939:	48 8d 85 04 e0 ff ff 	lea    -0x1ffc(%rbp),%rax
   12940:	48 89 85 20 f4 ff ff 	mov    %rax,-0xbe0(%rbp)
   12947:	48 c7 85 28 f4 ff ff 	movq   $0x0,-0xbd8(%rbp)
   1294e:	00 00 00 00 
   12952:	48 8d 85 fc df ff ff 	lea    -0x2004(%rbp),%rax
   12959:	48 89 85 30 f4 ff ff 	mov    %rax,-0xbd0(%rbp)
   12960:	48 c7 85 38 f4 ff ff 	movq   $0x0,-0xbc8(%rbp)
   12967:	00 00 00 00 
   1296b:	48 8d 85 f0 df ff ff 	lea    -0x2010(%rbp),%rax
   12972:	48 89 85 40 f4 ff ff 	mov    %rax,-0xbc0(%rbp)
   12979:	48 8d 85 30 e3 ff ff 	lea    -0x1cd0(%rbp),%rax
   12980:	48 83 c0 30          	add    $0x30,%rax
   12984:	48 89 85 48 f4 ff ff 	mov    %rax,-0xbb8(%rbp)
   1298b:	48 8d 85 f8 df ff ff 	lea    -0x2008(%rbp),%rax
   12992:	48 89 85 50 f4 ff ff 	mov    %rax,-0xbb0(%rbp)
   12999:	48 8d 85 f8 df ff ff 	lea    -0x2008(%rbp),%rax
   129a0:	48 89 85 58 f4 ff ff 	mov    %rax,-0xba8(%rbp)
   129a7:	48 8d 05 2e 39 01 00 	lea    0x1392e(%rip),%rax        # 262dc <g_1943>
   129ae:	48 89 85 60 f4 ff ff 	mov    %rax,-0xba0(%rbp)
   129b5:	48 8d 85 e8 df ff ff 	lea    -0x2018(%rbp),%rax
   129bc:	48 89 85 68 f4 ff ff 	mov    %rax,-0xb98(%rbp)
   129c3:	48 8d 85 e8 df ff ff 	lea    -0x2018(%rbp),%rax
   129ca:	48 89 85 70 f4 ff ff 	mov    %rax,-0xb90(%rbp)
   129d1:	48 8d 05 04 39 01 00 	lea    0x13904(%rip),%rax        # 262dc <g_1943>
   129d8:	48 89 85 78 f4 ff ff 	mov    %rax,-0xb88(%rbp)
   129df:	48 c7 85 80 f4 ff ff 	movq   $0x0,-0xb80(%rbp)
   129e6:	00 00 00 00 
   129ea:	48 c7 85 88 f4 ff ff 	movq   $0x0,-0xb78(%rbp)
   129f1:	00 00 00 00 
   129f5:	48 8d 85 e8 df ff ff 	lea    -0x2018(%rbp),%rax
   129fc:	48 89 85 90 f4 ff ff 	mov    %rax,-0xb70(%rbp)
   12a03:	48 8d 85 30 e3 ff ff 	lea    -0x1cd0(%rbp),%rax
   12a0a:	48 83 c0 10          	add    $0x10,%rax
   12a0e:	48 89 85 98 f4 ff ff 	mov    %rax,-0xb68(%rbp)
   12a15:	48 c7 85 a0 f4 ff ff 	movq   $0x0,-0xb60(%rbp)
   12a1c:	00 00 00 00 
   12a20:	48 8d 85 30 e3 ff ff 	lea    -0x1cd0(%rbp),%rax
   12a27:	48 89 85 a8 f4 ff ff 	mov    %rax,-0xb58(%rbp)
   12a2e:	48 8d 85 04 e0 ff ff 	lea    -0x1ffc(%rbp),%rax
   12a35:	48 89 85 b0 f4 ff ff 	mov    %rax,-0xb50(%rbp)
   12a3c:	48 c7 85 b8 f4 ff ff 	movq   $0x0,-0xb48(%rbp)
   12a43:	00 00 00 00 
   12a47:	48 c7 85 c0 f4 ff ff 	movq   $0x0,-0xb40(%rbp)
   12a4e:	00 00 00 00 
   12a52:	48 c7 85 c8 f4 ff ff 	movq   $0x0,-0xb38(%rbp)
   12a59:	00 00 00 00 
   12a5d:	48 8d 85 f0 e2 ff ff 	lea    -0x1d10(%rbp),%rax
   12a64:	48 83 c0 34          	add    $0x34,%rax
   12a68:	48 89 85 d0 f4 ff ff 	mov    %rax,-0xb30(%rbp)
   12a6f:	48 8d 05 d2 37 01 00 	lea    0x137d2(%rip),%rax        # 26248 <g_397>
   12a76:	48 89 85 d8 f4 ff ff 	mov    %rax,-0xb28(%rbp)
   12a7d:	48 8d 85 f8 df ff ff 	lea    -0x2008(%rbp),%rax
   12a84:	48 89 85 e0 f4 ff ff 	mov    %rax,-0xb20(%rbp)
   12a8b:	48 8d 85 04 e0 ff ff 	lea    -0x1ffc(%rbp),%rax
   12a92:	48 89 85 e8 f4 ff ff 	mov    %rax,-0xb18(%rbp)
   12a99:	48 c7 85 f0 f4 ff ff 	movq   $0x0,-0xb10(%rbp)
   12aa0:	00 00 00 00 
   12aa4:	48 8d 85 e8 df ff ff 	lea    -0x2018(%rbp),%rax
   12aab:	48 89 85 f8 f4 ff ff 	mov    %rax,-0xb08(%rbp)
   12ab2:	48 8d 85 f4 df ff ff 	lea    -0x200c(%rbp),%rax
   12ab9:	48 89 85 00 f5 ff ff 	mov    %rax,-0xb00(%rbp)
   12ac0:	48 8d 85 30 e3 ff ff 	lea    -0x1cd0(%rbp),%rax
   12ac7:	48 89 85 08 f5 ff ff 	mov    %rax,-0xaf8(%rbp)
   12ace:	48 8d 85 30 e3 ff ff 	lea    -0x1cd0(%rbp),%rax
   12ad5:	48 89 85 10 f5 ff ff 	mov    %rax,-0xaf0(%rbp)
   12adc:	48 8d 85 e8 df ff ff 	lea    -0x2018(%rbp),%rax
   12ae3:	48 89 85 18 f5 ff ff 	mov    %rax,-0xae8(%rbp)
   12aea:	48 8d 05 57 37 01 00 	lea    0x13757(%rip),%rax        # 26248 <g_397>
   12af1:	48 89 85 20 f5 ff ff 	mov    %rax,-0xae0(%rbp)
   12af8:	48 c7 85 28 f5 ff ff 	movq   $0x0,-0xad8(%rbp)
   12aff:	00 00 00 00 
   12b03:	48 c7 85 30 f5 ff ff 	movq   $0x0,-0xad0(%rbp)
   12b0a:	00 00 00 00 
   12b0e:	48 c7 85 38 f5 ff ff 	movq   $0x0,-0xac8(%rbp)
   12b15:	00 00 00 00 
   12b19:	48 c7 85 40 f5 ff ff 	movq   $0x0,-0xac0(%rbp)
   12b20:	00 00 00 00 
   12b24:	48 c7 85 48 f5 ff ff 	movq   $0x0,-0xab8(%rbp)
   12b2b:	00 00 00 00 
   12b2f:	48 c7 85 50 f5 ff ff 	movq   $0x0,-0xab0(%rbp)
   12b36:	00 00 00 00 
   12b3a:	48 c7 85 58 f5 ff ff 	movq   $0x0,-0xaa8(%rbp)
   12b41:	00 00 00 00 
   12b45:	48 8d 85 30 e3 ff ff 	lea    -0x1cd0(%rbp),%rax
   12b4c:	48 83 c0 30          	add    $0x30,%rax
   12b50:	48 89 85 60 f5 ff ff 	mov    %rax,-0xaa0(%rbp)
   12b57:	48 8d 85 04 e0 ff ff 	lea    -0x1ffc(%rbp),%rax
   12b5e:	48 89 85 68 f5 ff ff 	mov    %rax,-0xa98(%rbp)
   12b65:	48 c7 85 70 f5 ff ff 	movq   $0x0,-0xa90(%rbp)
   12b6c:	00 00 00 00 
   12b70:	48 8d 85 fc df ff ff 	lea    -0x2004(%rbp),%rax
   12b77:	48 89 85 78 f5 ff ff 	mov    %rax,-0xa88(%rbp)
   12b7e:	48 8d 85 e8 df ff ff 	lea    -0x2018(%rbp),%rax
   12b85:	48 89 85 80 f5 ff ff 	mov    %rax,-0xa80(%rbp)
   12b8c:	48 8d 85 f8 df ff ff 	lea    -0x2008(%rbp),%rax
   12b93:	48 89 85 88 f5 ff ff 	mov    %rax,-0xa78(%rbp)
   12b9a:	48 8d 85 e8 df ff ff 	lea    -0x2018(%rbp),%rax
   12ba1:	48 89 85 90 f5 ff ff 	mov    %rax,-0xa70(%rbp)
   12ba8:	48 8d 85 f0 e2 ff ff 	lea    -0x1d10(%rbp),%rax
   12baf:	48 83 c0 30          	add    $0x30,%rax
   12bb3:	48 89 85 98 f5 ff ff 	mov    %rax,-0xa68(%rbp)
   12bba:	48 8d 85 e8 df ff ff 	lea    -0x2018(%rbp),%rax
   12bc1:	48 89 85 a0 f5 ff ff 	mov    %rax,-0xa60(%rbp)
   12bc8:	48 8d 85 e8 df ff ff 	lea    -0x2018(%rbp),%rax
   12bcf:	48 89 85 a8 f5 ff ff 	mov    %rax,-0xa58(%rbp)
   12bd6:	48 c7 85 b0 f5 ff ff 	movq   $0x0,-0xa50(%rbp)
   12bdd:	00 00 00 00 
   12be1:	48 c7 85 b8 f5 ff ff 	movq   $0x0,-0xa48(%rbp)
   12be8:	00 00 00 00 
   12bec:	48 8d 85 e4 df ff ff 	lea    -0x201c(%rbp),%rax
   12bf3:	48 89 85 c0 f5 ff ff 	mov    %rax,-0xa40(%rbp)
   12bfa:	48 8d 85 00 e0 ff ff 	lea    -0x2000(%rbp),%rax
   12c01:	48 89 85 c8 f5 ff ff 	mov    %rax,-0xa38(%rbp)
   12c08:	48 c7 85 d0 f5 ff ff 	movq   $0x0,-0xa30(%rbp)
   12c0f:	00 00 00 00 
   12c13:	48 c7 85 d8 f5 ff ff 	movq   $0x0,-0xa28(%rbp)
   12c1a:	00 00 00 00 
   12c1e:	48 c7 85 e0 f5 ff ff 	movq   $0x0,-0xa20(%rbp)
   12c25:	00 00 00 00 
   12c29:	48 8d 85 f8 df ff ff 	lea    -0x2008(%rbp),%rax
   12c30:	48 89 85 e8 f5 ff ff 	mov    %rax,-0xa18(%rbp)
   12c37:	48 8d 85 30 e3 ff ff 	lea    -0x1cd0(%rbp),%rax
   12c3e:	48 89 85 f0 f5 ff ff 	mov    %rax,-0xa10(%rbp)
   12c45:	48 c7 85 f8 f5 ff ff 	movq   $0x0,-0xa08(%rbp)
   12c4c:	00 00 00 00 
   12c50:	48 8d 85 f0 e2 ff ff 	lea    -0x1d10(%rbp),%rax
   12c57:	48 83 c0 34          	add    $0x34,%rax
   12c5b:	48 89 85 00 f6 ff ff 	mov    %rax,-0xa00(%rbp)
   12c62:	48 c7 85 08 f6 ff ff 	movq   $0x0,-0x9f8(%rbp)
   12c69:	00 00 00 00 
   12c6d:	48 8d 85 ec df ff ff 	lea    -0x2014(%rbp),%rax
   12c74:	48 89 85 10 f6 ff ff 	mov    %rax,-0x9f0(%rbp)
   12c7b:	48 c7 85 18 f6 ff ff 	movq   $0x0,-0x9e8(%rbp)
   12c82:	00 00 00 00 
   12c86:	48 8d 85 ec df ff ff 	lea    -0x2014(%rbp),%rax
   12c8d:	48 89 85 20 f6 ff ff 	mov    %rax,-0x9e0(%rbp)
   12c94:	48 c7 85 28 f6 ff ff 	movq   $0x0,-0x9d8(%rbp)
   12c9b:	00 00 00 00 
   12c9f:	48 8d 05 a2 35 01 00 	lea    0x135a2(%rip),%rax        # 26248 <g_397>
   12ca6:	48 89 85 30 f6 ff ff 	mov    %rax,-0x9d0(%rbp)
   12cad:	48 8d 85 30 e3 ff ff 	lea    -0x1cd0(%rbp),%rax
   12cb4:	48 89 85 38 f6 ff ff 	mov    %rax,-0x9c8(%rbp)
   12cbb:	48 8d 85 30 e3 ff ff 	lea    -0x1cd0(%rbp),%rax
   12cc2:	48 89 85 40 f6 ff ff 	mov    %rax,-0x9c0(%rbp)
   12cc9:	48 8d 85 f0 e2 ff ff 	lea    -0x1d10(%rbp),%rax
   12cd0:	48 83 c0 30          	add    $0x30,%rax
   12cd4:	48 89 85 48 f6 ff ff 	mov    %rax,-0x9b8(%rbp)
   12cdb:	48 c7 85 50 f6 ff ff 	movq   $0x0,-0x9b0(%rbp)
   12ce2:	00 00 00 00 
   12ce6:	48 8d 85 f0 e2 ff ff 	lea    -0x1d10(%rbp),%rax
   12ced:	48 83 c0 34          	add    $0x34,%rax
   12cf1:	48 89 85 58 f6 ff ff 	mov    %rax,-0x9a8(%rbp)
   12cf8:	48 8d 85 30 e3 ff ff 	lea    -0x1cd0(%rbp),%rax
   12cff:	48 83 c0 10          	add    $0x10,%rax
   12d03:	48 89 85 60 f6 ff ff 	mov    %rax,-0x9a0(%rbp)
   12d0a:	48 8d 85 f4 df ff ff 	lea    -0x200c(%rbp),%rax
   12d11:	48 89 85 68 f6 ff ff 	mov    %rax,-0x998(%rbp)
   12d18:	48 8d 85 04 e0 ff ff 	lea    -0x1ffc(%rbp),%rax
   12d1f:	48 89 85 70 f6 ff ff 	mov    %rax,-0x990(%rbp)
   12d26:	48 c7 85 78 f6 ff ff 	movq   $0x0,-0x988(%rbp)
   12d2d:	00 00 00 00 
   12d31:	48 c7 85 80 f6 ff ff 	movq   $0x0,-0x980(%rbp)
   12d38:	00 00 00 00 
   12d3c:	48 c7 85 88 f6 ff ff 	movq   $0x0,-0x978(%rbp)
   12d43:	00 00 00 00 
   12d47:	48 c7 85 90 f6 ff ff 	movq   $0x0,-0x970(%rbp)
   12d4e:	00 00 00 00 
   12d52:	48 8d 85 f4 df ff ff 	lea    -0x200c(%rbp),%rax
   12d59:	48 89 85 98 f6 ff ff 	mov    %rax,-0x968(%rbp)
   12d60:	48 c7 85 a0 f6 ff ff 	movq   $0x0,-0x960(%rbp)
   12d67:	00 00 00 00 
   12d6b:	48 8d 85 04 e0 ff ff 	lea    -0x1ffc(%rbp),%rax
   12d72:	48 89 85 a8 f6 ff ff 	mov    %rax,-0x958(%rbp)
   12d79:	48 c7 85 b0 f6 ff ff 	movq   $0x0,-0x950(%rbp)
   12d80:	00 00 00 00 
   12d84:	48 8d 85 f4 df ff ff 	lea    -0x200c(%rbp),%rax
   12d8b:	48 89 85 b8 f6 ff ff 	mov    %rax,-0x948(%rbp)
   12d92:	48 8d 05 af 34 01 00 	lea    0x134af(%rip),%rax        # 26248 <g_397>
   12d99:	48 89 85 c0 f6 ff ff 	mov    %rax,-0x940(%rbp)
   12da0:	48 8d 85 30 e3 ff ff 	lea    -0x1cd0(%rbp),%rax
   12da7:	48 89 85 c8 f6 ff ff 	mov    %rax,-0x938(%rbp)
   12dae:	48 c7 85 d0 f6 ff ff 	movq   $0x0,-0x930(%rbp)
   12db5:	00 00 00 00 
   12db9:	48 c7 85 d8 f6 ff ff 	movq   $0x0,-0x928(%rbp)
   12dc0:	00 00 00 00 
   12dc4:	48 8d 85 ec df ff ff 	lea    -0x2014(%rbp),%rax
   12dcb:	48 89 85 e0 f6 ff ff 	mov    %rax,-0x920(%rbp)
   12dd2:	48 c7 85 e8 f6 ff ff 	movq   $0x0,-0x918(%rbp)
   12dd9:	00 00 00 00 
   12ddd:	48 c7 85 f0 f6 ff ff 	movq   $0x0,-0x910(%rbp)
   12de4:	00 00 00 00 
   12de8:	48 c7 85 f8 f6 ff ff 	movq   $0x0,-0x908(%rbp)
   12def:	00 00 00 00 
   12df3:	48 8d 05 e2 34 01 00 	lea    0x134e2(%rip),%rax        # 262dc <g_1943>
   12dfa:	48 89 85 00 f7 ff ff 	mov    %rax,-0x900(%rbp)
   12e01:	48 c7 85 08 f7 ff ff 	movq   $0x0,-0x8f8(%rbp)
   12e08:	00 00 00 00 
   12e0c:	48 8d 85 30 e3 ff ff 	lea    -0x1cd0(%rbp),%rax
   12e13:	48 89 85 10 f7 ff ff 	mov    %rax,-0x8f0(%rbp)
   12e1a:	48 8d 85 f0 e2 ff ff 	lea    -0x1d10(%rbp),%rax
   12e21:	48 83 c0 34          	add    $0x34,%rax
   12e25:	48 89 85 18 f7 ff ff 	mov    %rax,-0x8e8(%rbp)
   12e2c:	48 c7 85 20 f7 ff ff 	movq   $0x0,-0x8e0(%rbp)
   12e33:	00 00 00 00 
   12e37:	48 c7 85 28 f7 ff ff 	movq   $0x0,-0x8d8(%rbp)
   12e3e:	00 00 00 00 
   12e42:	48 c7 85 30 f7 ff ff 	movq   $0x0,-0x8d0(%rbp)
   12e49:	00 00 00 00 
   12e4d:	48 8d 85 f4 df ff ff 	lea    -0x200c(%rbp),%rax
   12e54:	48 89 85 38 f7 ff ff 	mov    %rax,-0x8c8(%rbp)
   12e5b:	48 8d 85 e4 df ff ff 	lea    -0x201c(%rbp),%rax
   12e62:	48 89 85 40 f7 ff ff 	mov    %rax,-0x8c0(%rbp)
   12e69:	48 8d 85 e8 df ff ff 	lea    -0x2018(%rbp),%rax
   12e70:	48 89 85 48 f7 ff ff 	mov    %rax,-0x8b8(%rbp)
   12e77:	48 c7 85 50 f7 ff ff 	movq   $0x0,-0x8b0(%rbp)
   12e7e:	00 00 00 00 
   12e82:	48 8d 85 e8 df ff ff 	lea    -0x2018(%rbp),%rax
   12e89:	48 89 85 58 f7 ff ff 	mov    %rax,-0x8a8(%rbp)
   12e90:	48 8d 85 04 e0 ff ff 	lea    -0x1ffc(%rbp),%rax
   12e97:	48 89 85 60 f7 ff ff 	mov    %rax,-0x8a0(%rbp)
   12e9e:	48 8d 85 f0 e2 ff ff 	lea    -0x1d10(%rbp),%rax
   12ea5:	48 83 c0 34          	add    $0x34,%rax
   12ea9:	48 89 85 68 f7 ff ff 	mov    %rax,-0x898(%rbp)
   12eb0:	48 8d 85 e8 df ff ff 	lea    -0x2018(%rbp),%rax
   12eb7:	48 89 85 70 f7 ff ff 	mov    %rax,-0x890(%rbp)
   12ebe:	48 c7 85 78 f7 ff ff 	movq   $0x0,-0x888(%rbp)
   12ec5:	00 00 00 00 
   12ec9:	48 c7 85 80 f7 ff ff 	movq   $0x0,-0x880(%rbp)
   12ed0:	00 00 00 00 
   12ed4:	48 8d 85 fc df ff ff 	lea    -0x2004(%rbp),%rax
   12edb:	48 89 85 88 f7 ff ff 	mov    %rax,-0x878(%rbp)
   12ee2:	48 c7 85 90 f7 ff ff 	movq   $0x0,-0x870(%rbp)
   12ee9:	00 00 00 00 
   12eed:	48 8d 85 f0 df ff ff 	lea    -0x2010(%rbp),%rax
   12ef4:	48 89 85 98 f7 ff ff 	mov    %rax,-0x868(%rbp)
   12efb:	48 8d 85 30 e3 ff ff 	lea    -0x1cd0(%rbp),%rax
   12f02:	48 83 c0 30          	add    $0x30,%rax
   12f06:	48 89 85 a0 f7 ff ff 	mov    %rax,-0x860(%rbp)
   12f0d:	48 c7 85 a8 f7 ff ff 	movq   $0x0,-0x858(%rbp)
   12f14:	00 00 00 00 
   12f18:	48 8d 85 f8 df ff ff 	lea    -0x2008(%rbp),%rax
   12f1f:	48 89 85 b0 f7 ff ff 	mov    %rax,-0x850(%rbp)
   12f26:	48 c7 85 b8 f7 ff ff 	movq   $0x0,-0x848(%rbp)
   12f2d:	00 00 00 00 
   12f31:	48 8d 85 f8 df ff ff 	lea    -0x2008(%rbp),%rax
   12f38:	48 89 85 c0 f7 ff ff 	mov    %rax,-0x840(%rbp)
   12f3f:	48 8d 85 f8 df ff ff 	lea    -0x2008(%rbp),%rax
   12f46:	48 89 85 c8 f7 ff ff 	mov    %rax,-0x838(%rbp)
   12f4d:	48 c7 85 d0 f7 ff ff 	movq   $0x0,-0x830(%rbp)
   12f54:	00 00 00 00 
   12f58:	48 8d 85 f8 df ff ff 	lea    -0x2008(%rbp),%rax
   12f5f:	48 89 85 d8 f7 ff ff 	mov    %rax,-0x828(%rbp)
   12f66:	48 8d 85 ec df ff ff 	lea    -0x2014(%rbp),%rax
   12f6d:	48 89 85 e0 f7 ff ff 	mov    %rax,-0x820(%rbp)
   12f74:	48 8d 85 e8 df ff ff 	lea    -0x2018(%rbp),%rax
   12f7b:	48 89 85 e8 f7 ff ff 	mov    %rax,-0x818(%rbp)
   12f82:	48 c7 85 f0 f7 ff ff 	movq   $0x0,-0x810(%rbp)
   12f89:	00 00 00 00 
   12f8d:	48 8d 85 f4 df ff ff 	lea    -0x200c(%rbp),%rax
   12f94:	48 89 85 f8 f7 ff ff 	mov    %rax,-0x808(%rbp)
   12f9b:	48 8d 85 f4 df ff ff 	lea    -0x200c(%rbp),%rax
   12fa2:	48 89 85 00 f8 ff ff 	mov    %rax,-0x800(%rbp)
   12fa9:	48 8d 05 2c 33 01 00 	lea    0x1332c(%rip),%rax        # 262dc <g_1943>
   12fb0:	48 89 85 08 f8 ff ff 	mov    %rax,-0x7f8(%rbp)
   12fb7:	48 8d 85 f0 e2 ff ff 	lea    -0x1d10(%rbp),%rax
   12fbe:	48 83 c0 34          	add    $0x34,%rax
   12fc2:	48 89 85 10 f8 ff ff 	mov    %rax,-0x7f0(%rbp)
   12fc9:	48 8d 85 04 e0 ff ff 	lea    -0x1ffc(%rbp),%rax
   12fd0:	48 89 85 18 f8 ff ff 	mov    %rax,-0x7e8(%rbp)
   12fd7:	48 c7 85 20 f8 ff ff 	movq   $0x0,-0x7e0(%rbp)
   12fde:	00 00 00 00 
   12fe2:	48 8d 85 30 e3 ff ff 	lea    -0x1cd0(%rbp),%rax
   12fe9:	48 83 c0 10          	add    $0x10,%rax
   12fed:	48 89 85 28 f8 ff ff 	mov    %rax,-0x7d8(%rbp)
   12ff4:	48 8d 85 f0 e2 ff ff 	lea    -0x1d10(%rbp),%rax
   12ffb:	48 83 c0 34          	add    $0x34,%rax
   12fff:	48 89 85 30 f8 ff ff 	mov    %rax,-0x7d0(%rbp)
   13006:	48 8d 85 f8 df ff ff 	lea    -0x2008(%rbp),%rax
   1300d:	48 89 85 38 f8 ff ff 	mov    %rax,-0x7c8(%rbp)
   13014:	48 8d 85 f0 e2 ff ff 	lea    -0x1d10(%rbp),%rax
   1301b:	48 83 c0 34          	add    $0x34,%rax
   1301f:	48 89 85 40 f8 ff ff 	mov    %rax,-0x7c0(%rbp)
   13026:	48 c7 85 48 f8 ff ff 	movq   $0x0,-0x7b8(%rbp)
   1302d:	00 00 00 00 
   13031:	48 8d 85 30 e3 ff ff 	lea    -0x1cd0(%rbp),%rax
   13038:	48 83 c0 10          	add    $0x10,%rax
   1303c:	48 89 85 50 f8 ff ff 	mov    %rax,-0x7b0(%rbp)
   13043:	48 8d 85 f4 df ff ff 	lea    -0x200c(%rbp),%rax
   1304a:	48 89 85 58 f8 ff ff 	mov    %rax,-0x7a8(%rbp)
   13051:	48 c7 85 60 f8 ff ff 	movq   $0x0,-0x7a0(%rbp)
   13058:	00 00 00 00 
   1305c:	48 8d 85 f4 df ff ff 	lea    -0x200c(%rbp),%rax
   13063:	48 89 85 68 f8 ff ff 	mov    %rax,-0x798(%rbp)
   1306a:	48 8d 85 48 e0 ff ff 	lea    -0x1fb8(%rbp),%rax
   13071:	48 89 85 f0 e6 ff ff 	mov    %rax,-0x1910(%rbp)
   13078:	48 c7 85 f8 e6 ff ff 	movq   $0x0,-0x1908(%rbp)
   1307f:	00 00 00 00 
   13083:	48 8d 05 36 52 01 00 	lea    0x15236(%rip),%rax        # 282c0 <g_543>
   1308a:	48 89 85 00 e7 ff ff 	mov    %rax,-0x1900(%rbp)
   13091:	48 c7 85 08 e7 ff ff 	movq   $0x0,-0x18f8(%rbp)
   13098:	00 00 00 00 
   1309c:	48 8d 85 48 e0 ff ff 	lea    -0x1fb8(%rbp),%rax
   130a3:	48 89 85 10 e7 ff ff 	mov    %rax,-0x18f0(%rbp)
   130aa:	48 8d 85 48 e0 ff ff 	lea    -0x1fb8(%rbp),%rax
   130b1:	48 89 85 18 e7 ff ff 	mov    %rax,-0x18e8(%rbp)
   130b8:	48 c7 85 20 e7 ff ff 	movq   $0x0,-0x18e0(%rbp)
   130bf:	00 00 00 00 
   130c3:	48 8d 05 f6 51 01 00 	lea    0x151f6(%rip),%rax        # 282c0 <g_543>
   130ca:	48 89 85 28 e7 ff ff 	mov    %rax,-0x18d8(%rbp)
   130d1:	48 8d 85 48 e0 ff ff 	lea    -0x1fb8(%rbp),%rax
   130d8:	48 89 85 30 e7 ff ff 	mov    %rax,-0x18d0(%rbp)
   130df:	48 8d 05 da 51 01 00 	lea    0x151da(%rip),%rax        # 282c0 <g_543>
   130e6:	48 89 85 38 e7 ff ff 	mov    %rax,-0x18c8(%rbp)
   130ed:	48 8d 05 cc 51 01 00 	lea    0x151cc(%rip),%rax        # 282c0 <g_543>
   130f4:	48 89 85 40 e7 ff ff 	mov    %rax,-0x18c0(%rbp)
   130fb:	48 8d 05 be 51 01 00 	lea    0x151be(%rip),%rax        # 282c0 <g_543>
   13102:	48 89 85 48 e7 ff ff 	mov    %rax,-0x18b8(%rbp)
   13109:	48 8d 05 b0 51 01 00 	lea    0x151b0(%rip),%rax        # 282c0 <g_543>
   13110:	48 89 85 50 e7 ff ff 	mov    %rax,-0x18b0(%rbp)
   13117:	48 8d 85 48 e0 ff ff 	lea    -0x1fb8(%rbp),%rax
   1311e:	48 89 85 58 e7 ff ff 	mov    %rax,-0x18a8(%rbp)
   13125:	48 8d 05 94 51 01 00 	lea    0x15194(%rip),%rax        # 282c0 <g_543>
   1312c:	48 89 85 60 e7 ff ff 	mov    %rax,-0x18a0(%rbp)
   13133:	48 c7 85 68 e7 ff ff 	movq   $0x0,-0x1898(%rbp)
   1313a:	00 00 00 00 
   1313e:	48 8d 85 48 e0 ff ff 	lea    -0x1fb8(%rbp),%rax
   13145:	48 89 85 70 e7 ff ff 	mov    %rax,-0x1890(%rbp)
   1314c:	48 8d 85 48 e0 ff ff 	lea    -0x1fb8(%rbp),%rax
   13153:	48 89 85 78 e7 ff ff 	mov    %rax,-0x1888(%rbp)
   1315a:	48 c7 85 80 e7 ff ff 	movq   $0x0,-0x1880(%rbp)
   13161:	00 00 00 00 
   13165:	48 8d 05 54 51 01 00 	lea    0x15154(%rip),%rax        # 282c0 <g_543>
   1316c:	48 89 85 88 e7 ff ff 	mov    %rax,-0x1878(%rbp)
   13173:	48 c7 85 90 e7 ff ff 	movq   $0x0,-0x1870(%rbp)
   1317a:	00 00 00 00 
   1317e:	48 8d 85 48 e0 ff ff 	lea    -0x1fb8(%rbp),%rax
   13185:	48 89 85 98 e7 ff ff 	mov    %rax,-0x1868(%rbp)
   1318c:	48 8d 85 48 e0 ff ff 	lea    -0x1fb8(%rbp),%rax
   13193:	48 89 85 a0 e7 ff ff 	mov    %rax,-0x1860(%rbp)
   1319a:	48 8d 85 48 e0 ff ff 	lea    -0x1fb8(%rbp),%rax
   131a1:	48 89 85 a8 e7 ff ff 	mov    %rax,-0x1858(%rbp)
   131a8:	48 8d 85 48 e0 ff ff 	lea    -0x1fb8(%rbp),%rax
   131af:	48 89 85 b0 e7 ff ff 	mov    %rax,-0x1850(%rbp)
   131b6:	48 8d 05 03 51 01 00 	lea    0x15103(%rip),%rax        # 282c0 <g_543>
   131bd:	48 89 85 b8 e7 ff ff 	mov    %rax,-0x1848(%rbp)
   131c4:	48 8d 85 48 e0 ff ff 	lea    -0x1fb8(%rbp),%rax
   131cb:	48 89 85 c0 e7 ff ff 	mov    %rax,-0x1840(%rbp)
   131d2:	48 8d 85 48 e0 ff ff 	lea    -0x1fb8(%rbp),%rax
   131d9:	48 89 85 c8 e7 ff ff 	mov    %rax,-0x1838(%rbp)
   131e0:	48 8d 05 d9 50 01 00 	lea    0x150d9(%rip),%rax        # 282c0 <g_543>
   131e7:	48 89 85 d0 e7 ff ff 	mov    %rax,-0x1830(%rbp)
   131ee:	48 8d 05 cb 50 01 00 	lea    0x150cb(%rip),%rax        # 282c0 <g_543>
   131f5:	48 89 85 d8 e7 ff ff 	mov    %rax,-0x1828(%rbp)
   131fc:	48 8d 85 48 e0 ff ff 	lea    -0x1fb8(%rbp),%rax
   13203:	48 89 85 e0 e7 ff ff 	mov    %rax,-0x1820(%rbp)
   1320a:	48 8d 05 af 50 01 00 	lea    0x150af(%rip),%rax        # 282c0 <g_543>
   13211:	48 89 85 e8 e7 ff ff 	mov    %rax,-0x1818(%rbp)
   13218:	48 8d 85 48 e0 ff ff 	lea    -0x1fb8(%rbp),%rax
   1321f:	48 89 85 f0 e7 ff ff 	mov    %rax,-0x1810(%rbp)
   13226:	48 8d 85 48 e0 ff ff 	lea    -0x1fb8(%rbp),%rax
   1322d:	48 89 85 f8 e7 ff ff 	mov    %rax,-0x1808(%rbp)
   13234:	48 8d 05 85 50 01 00 	lea    0x15085(%rip),%rax        # 282c0 <g_543>
   1323b:	48 89 85 00 e8 ff ff 	mov    %rax,-0x1800(%rbp)
   13242:	48 8d 85 f0 e6 ff ff 	lea    -0x1910(%rbp),%rax
   13249:	48 05 d0 00 00 00    	add    $0xd0,%rax
   1324f:	48 89 85 60 e1 ff ff 	mov    %rax,-0x1ea0(%rbp)
   13256:	c7 85 2c e0 ff ff fa 	movl   $0xfffffffa,-0x1fd4(%rbp)
   1325d:	ff ff ff 
   13260:	48 8d 85 88 e0 ff ff 	lea    -0x1f78(%rbp),%rax
   13267:	48 89 85 68 e1 ff ff 	mov    %rax,-0x1e98(%rbp)
   1326e:	66 c7 85 e2 df ff ff 	movw   $0x74c5,-0x201e(%rbp)
   13275:	c5 74 
   13277:	48 c7 85 70 e1 ff ff 	movq   $0x0,-0x1e90(%rbp)
   1327e:	00 00 00 00 
   13282:	c7 85 30 e0 ff ff a8 	movl   $0x55ff5fa8,-0x1fd0(%rbp)
   13289:	5f ff 55 
   1328c:	48 8d 85 98 e0 ff ff 	lea    -0x1f68(%rbp),%rax
   13293:	48 89 85 78 e1 ff ff 	mov    %rax,-0x1e88(%rbp)
   1329a:	c7 85 0c e0 ff ff 00 	movl   $0x0,-0x1ff4(%rbp)
   132a1:	00 00 00 
   132a4:	eb 1a                	jmp    132c0 <func_14+0x2bce>
   132a6:	8b 85 0c e0 ff ff    	mov    -0x1ff4(%rbp),%eax
   132ac:	48 98                	cltq   
   132ae:	c7 84 85 e0 e1 ff ff 	movl   $0xcdd27830,-0x1e20(%rbp,%rax,4)
   132b5:	30 78 d2 cd 
   132b9:	83 85 0c e0 ff ff 01 	addl   $0x1,-0x1ff4(%rbp)
   132c0:	83 bd 0c e0 ff ff 05 	cmpl   $0x5,-0x1ff4(%rbp)
   132c7:	7e dd                	jle    132a6 <func_14+0x2bb4>
   132c9:	48 c7 85 a0 e0 ff ff 	movq   $0x0,-0x1f60(%rbp)
   132d0:	00 00 00 00 
   132d4:	e9 9e 00 00 00       	jmpq   13377 <func_14+0x2c85>
   132d9:	48 c7 85 80 e1 ff ff 	movq   $0xffffffffffffffff,-0x1e80(%rbp)
   132e0:	ff ff ff ff 
   132e4:	c7 85 34 e0 ff ff f7 	movl   $0xfffffff7,-0x1fcc(%rbp)
   132eb:	ff ff ff 
   132ee:	c7 85 38 e0 ff ff ff 	movl   $0xffffffff,-0x1fc8(%rbp)
   132f5:	ff ff ff 
   132f8:	48 8d 85 70 f8 ff ff 	lea    -0x790(%rbp),%rax
   132ff:	48 8d 15 7a d8 00 00 	lea    0xd87a(%rip),%rdx        # 20b80 <g_2708+0x8f8>
   13306:	b9 7a 00 00 00       	mov    $0x7a,%ecx
   1330b:	48 89 c7             	mov    %rax,%rdi
   1330e:	48 89 d6             	mov    %rdx,%rsi
   13311:	f3 48 a5             	rep movsq %ds:(%rsi),%es:(%rdi)
   13314:	48 89 f2             	mov    %rsi,%rdx
   13317:	48 89 f8             	mov    %rdi,%rax
   1331a:	8b 0a                	mov    (%rdx),%ecx
   1331c:	89 08                	mov    %ecx,(%rax)
   1331e:	48 8d 40 04          	lea    0x4(%rax),%rax
   13322:	48 8d 52 04          	lea    0x4(%rdx),%rdx
   13326:	c6 85 d7 df ff ff 00 	movb   $0x0,-0x2029(%rbp)
   1332d:	c7 85 3c e0 ff ff 00 	movl   $0x0,-0x1fc4(%rbp)
   13334:	00 00 00 
   13337:	48 b8 3b 9f fc da 5b 	movabs $0x84c3475bdafc9f3b,%rax
   1333e:	47 c3 84 
   13341:	48 89 85 88 e1 ff ff 	mov    %rax,-0x1e78(%rbp)
   13348:	83 ad 3c e0 ff ff 01 	subl   $0x1,-0x1fc4(%rbp)
   1334f:	48 83 85 88 e1 ff ff 	addq   $0x1,-0x1e78(%rbp)
   13356:	01 
   13357:	48 8b 85 a0 e0 ff ff 	mov    -0x1f60(%rbp),%rax
   1335e:	0f b7 c0             	movzwl %ax,%eax
   13361:	be 01 00 00 00       	mov    $0x1,%esi
   13366:	89 c7                	mov    %eax,%edi
   13368:	e8 92 99 ff ff       	callq  ccff <safe_add_func_uint16_t_u_u>
   1336d:	0f b7 c0             	movzwl %ax,%eax
   13370:	48 89 85 a0 e0 ff ff 	mov    %rax,-0x1f60(%rbp)
   13377:	48 83 bd a0 e0 ff ff 	cmpq   $0xb,-0x1f60(%rbp)
   1337e:	0b 
   1337f:	0f 84 54 ff ff ff    	je     132d9 <func_14+0x2be7>
   13385:	48 8b 05 e4 59 01 00 	mov    0x159e4(%rip),%rax        # 28d70 <g_2788>
   1338c:	48 8b 95 00 e1 ff ff 	mov    -0x1f00(%rbp),%rdx
   13393:	48 89 10             	mov    %rdx,(%rax)
   13396:	48 8b 85 08 e1 ff ff 	mov    -0x1ef8(%rbp),%rax
   1339d:	48 8b 7d f8          	mov    -0x8(%rbp),%rdi
   133a1:	64 48 33 3c 25 28 00 	xor    %fs:0x28,%rdi
   133a8:	00 00 
   133aa:	74 05                	je     133b1 <func_14+0x2cbf>
   133ac:	e8 bf 8c ff ff       	callq  c070 <__stack_chk_fail@plt>
   133b1:	c9                   	leaveq 
   133b2:	c3                   	retq   

00000000000133b3 <func_18>:
   133b3:	f3 0f 1e fa          	endbr64 
   133b7:	55                   	push   %rbp
   133b8:	48 89 e5             	mov    %rsp,%rbp
   133bb:	41 57                	push   %r15
   133bd:	41 56                	push   %r14
   133bf:	41 55                	push   %r13
   133c1:	41 54                	push   %r12
   133c3:	53                   	push   %rbx
   133c4:	48 81 ec 00 10 00 00 	sub    $0x1000,%rsp
   133cb:	48 83 0c 24 00       	orq    $0x0,(%rsp)
   133d0:	48 81 ec c8 00 00 00 	sub    $0xc8,%rsp
   133d7:	48 89 bd 48 ef ff ff 	mov    %rdi,-0x10b8(%rbp)
   133de:	48 89 b5 40 ef ff ff 	mov    %rsi,-0x10c0(%rbp)
   133e5:	48 89 95 38 ef ff ff 	mov    %rdx,-0x10c8(%rbp)
   133ec:	48 89 8d 30 ef ff ff 	mov    %rcx,-0x10d0(%rbp)
   133f3:	44 89 85 2c ef ff ff 	mov    %r8d,-0x10d4(%rbp)
   133fa:	64 48 8b 04 25 28 00 	mov    %fs:0x28,%rax
   13401:	00 00 
   13403:	48 89 45 c8          	mov    %rax,-0x38(%rbp)
   13407:	31 c0                	xor    %eax,%eax
   13409:	48 8d 05 cc 2e 01 00 	lea    0x12ecc(%rip),%rax        # 262dc <g_1943>
   13410:	48 89 85 78 f0 ff ff 	mov    %rax,-0xf88(%rbp)
   13417:	48 8d 05 b2 7a 01 00 	lea    0x17ab2(%rip),%rax        # 2aed0 <g_1215>
   1341e:	48 89 85 80 f0 ff ff 	mov    %rax,-0xf80(%rbp)
   13425:	48 8d 85 80 f0 ff ff 	lea    -0xf80(%rbp),%rax
   1342c:	48 89 85 40 f1 ff ff 	mov    %rax,-0xec0(%rbp)
   13433:	c7 85 84 ef ff ff ff 	movl   $0xffffffff,-0x107c(%rbp)
   1343a:	ff ff ff 
   1343d:	48 b8 ac df a8 b4 b3 	movabs $0xc4173fb3b4a8dfac,%rax
   13444:	3f 17 c4 
   13447:	48 89 85 38 f1 ff ff 	mov    %rax,-0xec8(%rbp)
   1344e:	c7 85 d4 ef ff ff ff 	movl   $0xffffffff,-0x102c(%rbp)
   13455:	ff ff ff 
   13458:	c6 85 5c ef ff ff 01 	movb   $0x1,-0x10a4(%rbp)
   1345f:	c7 85 e8 ef ff ff e3 	movl   $0x9bf50ee3,-0x1018(%rbp)
   13466:	0e f5 9b 
   13469:	c7 85 ec ef ff ff 00 	movl   $0x0,-0x1014(%rbp)
   13470:	00 00 00 
   13473:	c7 85 88 ef ff ff 00 	movl   $0x0,-0x1078(%rbp)
   1347a:	00 00 00 
   1347d:	c7 85 8c ef ff ff 88 	movl   $0xabbdbf88,-0x1074(%rbp)
   13484:	bf bd ab 
   13487:	c7 85 f0 ef ff ff f9 	movl   $0xfffffff9,-0x1010(%rbp)
   1348e:	ff ff ff 
   13491:	c6 85 5d ef ff ff 8a 	movb   $0x8a,-0x10a3(%rbp)
   13498:	48 8d 05 29 4e 01 00 	lea    0x14e29(%rip),%rax        # 282c8 <g_613>
   1349f:	48 89 85 60 f7 ff ff 	mov    %rax,-0x8a0(%rbp)
   134a6:	48 8d 05 1b 4e 01 00 	lea    0x14e1b(%rip),%rax        # 282c8 <g_613>
   134ad:	48 89 85 68 f7 ff ff 	mov    %rax,-0x898(%rbp)
   134b4:	48 8d 05 0d 4e 01 00 	lea    0x14e0d(%rip),%rax        # 282c8 <g_613>
   134bb:	48 89 85 70 f7 ff ff 	mov    %rax,-0x890(%rbp)
   134c2:	48 8d 05 ff 4d 01 00 	lea    0x14dff(%rip),%rax        # 282c8 <g_613>
   134c9:	48 89 85 78 f7 ff ff 	mov    %rax,-0x888(%rbp)
   134d0:	48 c7 85 80 f7 ff ff 	movq   $0x0,-0x880(%rbp)
   134d7:	00 00 00 00 
   134db:	48 8d 05 e6 4d 01 00 	lea    0x14de6(%rip),%rax        # 282c8 <g_613>
   134e2:	48 89 85 88 f7 ff ff 	mov    %rax,-0x878(%rbp)
   134e9:	48 c7 85 90 f7 ff ff 	movq   $0x0,-0x870(%rbp)
   134f0:	00 00 00 00 
   134f4:	48 8d 05 cd 4d 01 00 	lea    0x14dcd(%rip),%rax        # 282c8 <g_613>
   134fb:	48 89 85 98 f7 ff ff 	mov    %rax,-0x868(%rbp)
   13502:	48 8d 05 bf 4d 01 00 	lea    0x14dbf(%rip),%rax        # 282c8 <g_613>
   13509:	48 89 85 a0 f7 ff ff 	mov    %rax,-0x860(%rbp)
   13510:	48 8d 05 b1 4d 01 00 	lea    0x14db1(%rip),%rax        # 282c8 <g_613>
   13517:	48 89 85 a8 f7 ff ff 	mov    %rax,-0x858(%rbp)
   1351e:	48 8d 05 a3 4d 01 00 	lea    0x14da3(%rip),%rax        # 282c8 <g_613>
   13525:	48 89 85 b0 f7 ff ff 	mov    %rax,-0x850(%rbp)
   1352c:	48 8d 05 95 4d 01 00 	lea    0x14d95(%rip),%rax        # 282c8 <g_613>
   13533:	48 89 85 b8 f7 ff ff 	mov    %rax,-0x848(%rbp)
   1353a:	48 8d 05 87 4d 01 00 	lea    0x14d87(%rip),%rax        # 282c8 <g_613>
   13541:	48 89 85 c0 f7 ff ff 	mov    %rax,-0x840(%rbp)
   13548:	48 8d 05 79 4d 01 00 	lea    0x14d79(%rip),%rax        # 282c8 <g_613>
   1354f:	48 89 85 c8 f7 ff ff 	mov    %rax,-0x838(%rbp)
   13556:	48 c7 85 d0 f7 ff ff 	movq   $0x0,-0x830(%rbp)
   1355d:	00 00 00 00 
   13561:	48 8d 05 60 4d 01 00 	lea    0x14d60(%rip),%rax        # 282c8 <g_613>
   13568:	48 89 85 d8 f7 ff ff 	mov    %rax,-0x828(%rbp)
   1356f:	48 8d 05 52 4d 01 00 	lea    0x14d52(%rip),%rax        # 282c8 <g_613>
   13576:	48 89 85 e0 f7 ff ff 	mov    %rax,-0x820(%rbp)
   1357d:	48 c7 85 e8 f7 ff ff 	movq   $0x0,-0x818(%rbp)
   13584:	00 00 00 00 
   13588:	48 8d 05 39 4d 01 00 	lea    0x14d39(%rip),%rax        # 282c8 <g_613>
   1358f:	48 89 85 f0 f7 ff ff 	mov    %rax,-0x810(%rbp)
   13596:	48 c7 85 f8 f7 ff ff 	movq   $0x0,-0x808(%rbp)
   1359d:	00 00 00 00 
   135a1:	48 8d 05 20 4d 01 00 	lea    0x14d20(%rip),%rax        # 282c8 <g_613>
   135a8:	48 89 85 00 f8 ff ff 	mov    %rax,-0x800(%rbp)
   135af:	48 8d 05 12 4d 01 00 	lea    0x14d12(%rip),%rax        # 282c8 <g_613>
   135b6:	48 89 85 08 f8 ff ff 	mov    %rax,-0x7f8(%rbp)
   135bd:	48 c7 85 10 f8 ff ff 	movq   $0x0,-0x7f0(%rbp)
   135c4:	00 00 00 00 
   135c8:	48 c7 85 18 f8 ff ff 	movq   $0x0,-0x7e8(%rbp)
   135cf:	00 00 00 00 
   135d3:	48 c7 85 20 f8 ff ff 	movq   $0x0,-0x7e0(%rbp)
   135da:	00 00 00 00 
   135de:	48 c7 85 28 f8 ff ff 	movq   $0x0,-0x7d8(%rbp)
   135e5:	00 00 00 00 
   135e9:	48 8d 05 d8 4c 01 00 	lea    0x14cd8(%rip),%rax        # 282c8 <g_613>
   135f0:	48 89 85 30 f8 ff ff 	mov    %rax,-0x7d0(%rbp)
   135f7:	48 8d 05 ca 4c 01 00 	lea    0x14cca(%rip),%rax        # 282c8 <g_613>
   135fe:	48 89 85 38 f8 ff ff 	mov    %rax,-0x7c8(%rbp)
   13605:	c7 85 f4 ef ff ff 00 	movl   $0x0,-0x100c(%rbp)
   1360c:	00 00 00 
   1360f:	48 8d 05 1a 2b 01 00 	lea    0x12b1a(%rip),%rax        # 26130 <g_100+0x50>
   13616:	48 89 85 48 f1 ff ff 	mov    %rax,-0xeb8(%rbp)
   1361d:	48 8d 85 f0 f4 ff ff 	lea    -0xb10(%rbp),%rax
   13624:	48 83 c0 08          	add    $0x8,%rax
   13628:	48 89 85 88 f0 ff ff 	mov    %rax,-0xf78(%rbp)
   1362f:	c7 85 f8 ef ff ff dd 	movl   $0x4a548edd,-0x1008(%rbp)
   13636:	8e 54 4a 
   13639:	c7 85 d8 ef ff ff 9d 	movl   $0x8ea2c39d,-0x1028(%rbp)
   13640:	c3 a2 8e 
   13643:	48 8d 85 10 f5 ff ff 	lea    -0xaf0(%rbp),%rax
   1364a:	48 83 c0 08          	add    $0x8,%rax
   1364e:	48 89 85 90 f0 ff ff 	mov    %rax,-0xf70(%rbp)
   13655:	48 8d 85 90 f0 ff ff 	lea    -0xf70(%rbp),%rax
   1365c:	48 89 85 98 f0 ff ff 	mov    %rax,-0xf68(%rbp)
   13663:	66 c7 85 70 ef ff ff 	movw   $0x5c0e,-0x1090(%rbp)
   1366a:	0e 5c 
   1366c:	48 8d 05 25 78 01 00 	lea    0x17825(%rip),%rax        # 2ae98 <g_430>
   13673:	48 89 85 50 f1 ff ff 	mov    %rax,-0xeb0(%rbp)
   1367a:	48 b8 8c ae 74 e1 ff 	movabs $0x6895e1ffe174ae8c,%rax
   13681:	e1 95 68 
   13684:	48 89 85 a0 f0 ff ff 	mov    %rax,-0xf60(%rbp)
   1368b:	48 8d 05 26 78 01 00 	lea    0x17826(%rip),%rax        # 2aeb8 <g_954>
   13692:	48 89 85 58 f1 ff ff 	mov    %rax,-0xea8(%rbp)
   13699:	48 8d 05 90 2b 01 00 	lea    0x12b90(%rip),%rax        # 26230 <g_298>
   136a0:	48 89 85 60 f1 ff ff 	mov    %rax,-0xea0(%rbp)
   136a7:	48 c7 85 68 f1 ff ff 	movq   $0xffffffffffffffff,-0xe98(%rbp)
   136ae:	ff ff ff ff 
   136b2:	48 8d 05 fb 2b 01 00 	lea    0x12bfb(%rip),%rax        # 262b4 <g_812>
   136b9:	48 89 85 a8 f0 ff ff 	mov    %rax,-0xf58(%rbp)
   136c0:	48 c7 85 70 f1 ff ff 	movq   $0x0,-0xe90(%rbp)
   136c7:	00 00 00 00 
   136cb:	c7 85 dc ef ff ff 00 	movl   $0x0,-0x1024(%rbp)
   136d2:	00 00 00 
   136d5:	eb 1e                	jmp    136f5 <func_18+0x342>
   136d7:	8b 85 dc ef ff ff    	mov    -0x1024(%rbp),%eax
   136dd:	48 98                	cltq   
   136df:	48 8d 15 7a 2a 01 00 	lea    0x12a7a(%rip),%rdx        # 26160 <g_133>
   136e6:	48 89 94 c5 d0 f4 ff 	mov    %rdx,-0xb30(%rbp,%rax,8)
   136ed:	ff 
   136ee:	83 85 dc ef ff ff 01 	addl   $0x1,-0x1024(%rbp)
   136f5:	83 bd dc ef ff ff 02 	cmpl   $0x2,-0x1024(%rbp)
   136fc:	7e d9                	jle    136d7 <func_18+0x324>
   136fe:	c7 85 dc ef ff ff 00 	movl   $0x0,-0x1024(%rbp)
   13705:	00 00 00 
   13708:	eb 1b                	jmp    13725 <func_18+0x372>
   1370a:	8b 85 dc ef ff ff    	mov    -0x1024(%rbp),%eax
   13710:	48 98                	cltq   
   13712:	48 c7 84 c5 f0 f4 ff 	movq   $0x0,-0xb10(%rbp,%rax,8)
   13719:	ff 00 00 00 00 
   1371e:	83 85 dc ef ff ff 01 	addl   $0x1,-0x1024(%rbp)
   13725:	83 bd dc ef ff ff 02 	cmpl   $0x2,-0x1024(%rbp)
   1372c:	7e dc                	jle    1370a <func_18+0x357>
   1372e:	c7 85 dc ef ff ff 00 	movl   $0x0,-0x1024(%rbp)
   13735:	00 00 00 
   13738:	eb 1b                	jmp    13755 <func_18+0x3a2>
   1373a:	8b 85 dc ef ff ff    	mov    -0x1024(%rbp),%eax
   13740:	48 98                	cltq   
   13742:	48 c7 84 c5 60 f4 ff 	movq   $0x0,-0xba0(%rbp,%rax,8)
   13749:	ff 00 00 00 00 
   1374e:	83 85 dc ef ff ff 01 	addl   $0x1,-0x1024(%rbp)
   13755:	83 bd dc ef ff ff 00 	cmpl   $0x0,-0x1024(%rbp)
   1375c:	7e dc                	jle    1373a <func_18+0x387>
   1375e:	c7 85 dc ef ff ff 00 	movl   $0x0,-0x1024(%rbp)
   13765:	00 00 00 
   13768:	eb 1a                	jmp    13784 <func_18+0x3d1>
   1376a:	8b 85 dc ef ff ff    	mov    -0x1024(%rbp),%eax
   13770:	48 98                	cltq   
   13772:	c7 84 85 80 f4 ff ff 	movl   $0x1,-0xb80(%rbp,%rax,4)
   13779:	01 00 00 00 
   1377d:	83 85 dc ef ff ff 01 	addl   $0x1,-0x1024(%rbp)
   13784:	83 bd dc ef ff ff 02 	cmpl   $0x2,-0x1024(%rbp)
   1378b:	7e dd                	jle    1376a <func_18+0x3b7>
   1378d:	c7 85 dc ef ff ff 00 	movl   $0x0,-0x1024(%rbp)
   13794:	00 00 00 
   13797:	eb 1e                	jmp    137b7 <func_18+0x404>
   13799:	8b 85 dc ef ff ff    	mov    -0x1024(%rbp),%eax
   1379f:	48 98                	cltq   
   137a1:	48 8d 95 78 f0 ff ff 	lea    -0xf88(%rbp),%rdx
   137a8:	48 89 94 c5 10 f5 ff 	mov    %rdx,-0xaf0(%rbp,%rax,8)
   137af:	ff 
   137b0:	83 85 dc ef ff ff 01 	addl   $0x1,-0x1024(%rbp)
   137b7:	83 bd dc ef ff ff 02 	cmpl   $0x2,-0x1024(%rbp)
   137be:	7e d9                	jle    13799 <func_18+0x3e6>
   137c0:	c7 85 dc ef ff ff 00 	movl   $0x0,-0x1024(%rbp)
   137c7:	00 00 00 
   137ca:	eb 43                	jmp    1380f <func_18+0x45c>
   137cc:	c7 85 e0 ef ff ff 00 	movl   $0x0,-0x1020(%rbp)
   137d3:	00 00 00 
   137d6:	eb 27                	jmp    137ff <func_18+0x44c>
   137d8:	8b 85 e0 ef ff ff    	mov    -0x1020(%rbp),%eax
   137de:	48 63 d0             	movslq %eax,%rdx
   137e1:	8b 85 dc ef ff ff    	mov    -0x1024(%rbp),%eax
   137e7:	48 98                	cltq   
   137e9:	48 01 d0             	add    %rdx,%rax
   137ec:	48 c7 84 c5 68 f4 ff 	movq   $0x1,-0xb98(%rbp,%rax,8)
   137f3:	ff 01 00 00 00 
   137f8:	83 85 e0 ef ff ff 01 	addl   $0x1,-0x1020(%rbp)
   137ff:	83 bd e0 ef ff ff 00 	cmpl   $0x0,-0x1020(%rbp)
   13806:	7e d0                	jle    137d8 <func_18+0x425>
   13808:	83 85 dc ef ff ff 01 	addl   $0x1,-0x1024(%rbp)
   1380f:	83 bd dc ef ff ff 00 	cmpl   $0x0,-0x1024(%rbp)
   13816:	7e b4                	jle    137cc <func_18+0x419>
   13818:	90                   	nop
   13819:	48 8b 05 90 53 01 00 	mov    0x15390(%rip),%rax        # 28bb0 <g_1937>
   13820:	48 8b 95 d0 f4 ff ff 	mov    -0xb30(%rbp),%rdx
   13827:	48 89 10             	mov    %rdx,(%rax)
   1382a:	48 8b 95 48 ef ff ff 	mov    -0x10b8(%rbp),%rdx
   13831:	48 8b 85 78 f0 ff ff 	mov    -0xf88(%rbp),%rax
   13838:	89 10                	mov    %edx,(%rax)
   1383a:	8b 00                	mov    (%rax),%eax
   1383c:	85 c0                	test   %eax,%eax
   1383e:	0f 84 11 06 00 00    	je     13e55 <func_18+0xaa2>
   13844:	c7 85 70 f0 ff ff cf 	movl   $0xb9a6c2cf,-0xf90(%rbp)
   1384b:	c2 a6 b9 
   1384e:	c7 85 74 f0 ff ff 2e 	movl   $0x3e83ac2e,-0xf8c(%rbp)
   13855:	ac 83 3e 
   13858:	c6 85 6c ef ff ff ff 	movb   $0xff,-0x1094(%rbp)
   1385f:	c7 85 e4 ef ff ff ff 	movl   $0xffffffff,-0x101c(%rbp)
   13866:	ff ff ff 
   13869:	c7 05 41 2a 01 00 00 	movl   $0x0,0x12a41(%rip)        # 262b4 <g_812>
   13870:	00 00 00 
   13873:	e9 aa 05 00 00       	jmpq   13e22 <func_18+0xa6f>
   13878:	c6 85 6d ef ff ff 00 	movb   $0x0,-0x1093(%rbp)
   1387f:	c7 85 18 f1 ff ff f9 	movl   $0xfffffff9,-0xee8(%rbp)
   13886:	ff ff ff 
   13889:	c7 05 b5 29 01 00 02 	movl   $0x2,0x129b5(%rip)        # 26248 <g_397>
   13890:	00 00 00 
   13893:	e9 6a 05 00 00       	jmpq   13e02 <func_18+0xa4f>
   13898:	48 8d 05 f9 75 01 00 	lea    0x175f9(%rip),%rax        # 2ae98 <g_430>
   1389f:	48 89 85 28 f4 ff ff 	mov    %rax,-0xbd8(%rbp)
   138a6:	66 c7 85 82 ef ff ff 	movw   $0xffff,-0x107e(%rbp)
   138ad:	ff ff 
   138af:	48 8d 85 18 f1 ff ff 	lea    -0xee8(%rbp),%rax
   138b6:	48 89 85 70 fd ff ff 	mov    %rax,-0x290(%rbp)
   138bd:	48 8d 05 18 2a 01 00 	lea    0x12a18(%rip),%rax        # 262dc <g_1943>
   138c4:	48 89 85 78 fd ff ff 	mov    %rax,-0x288(%rbp)
   138cb:	48 8d 05 76 29 01 00 	lea    0x12976(%rip),%rax        # 26248 <g_397>
   138d2:	48 89 85 80 fd ff ff 	mov    %rax,-0x280(%rbp)
   138d9:	48 8d 05 68 29 01 00 	lea    0x12968(%rip),%rax        # 26248 <g_397>
   138e0:	48 89 85 88 fd ff ff 	mov    %rax,-0x278(%rbp)
   138e7:	48 8d 05 ee 29 01 00 	lea    0x129ee(%rip),%rax        # 262dc <g_1943>
   138ee:	48 89 85 90 fd ff ff 	mov    %rax,-0x270(%rbp)
   138f5:	48 8d 85 18 f1 ff ff 	lea    -0xee8(%rbp),%rax
   138fc:	48 89 85 98 fd ff ff 	mov    %rax,-0x268(%rbp)
   13903:	48 8d 05 d2 29 01 00 	lea    0x129d2(%rip),%rax        # 262dc <g_1943>
   1390a:	48 89 85 a0 fd ff ff 	mov    %rax,-0x260(%rbp)
   13911:	48 8d 05 30 29 01 00 	lea    0x12930(%rip),%rax        # 26248 <g_397>
   13918:	48 89 85 a8 fd ff ff 	mov    %rax,-0x258(%rbp)
   1391f:	48 8d 05 22 29 01 00 	lea    0x12922(%rip),%rax        # 26248 <g_397>
   13926:	48 89 85 b0 fd ff ff 	mov    %rax,-0x250(%rbp)
   1392d:	48 8d 05 a8 29 01 00 	lea    0x129a8(%rip),%rax        # 262dc <g_1943>
   13934:	48 89 85 b8 fd ff ff 	mov    %rax,-0x248(%rbp)
   1393b:	48 8d 85 18 f1 ff ff 	lea    -0xee8(%rbp),%rax
   13942:	48 89 85 c0 fd ff ff 	mov    %rax,-0x240(%rbp)
   13949:	48 8d 05 8c 29 01 00 	lea    0x1298c(%rip),%rax        # 262dc <g_1943>
   13950:	48 89 85 c8 fd ff ff 	mov    %rax,-0x238(%rbp)
   13957:	48 8d 05 ea 28 01 00 	lea    0x128ea(%rip),%rax        # 26248 <g_397>
   1395e:	48 89 85 d0 fd ff ff 	mov    %rax,-0x230(%rbp)
   13965:	48 8d 05 dc 28 01 00 	lea    0x128dc(%rip),%rax        # 26248 <g_397>
   1396c:	48 89 85 d8 fd ff ff 	mov    %rax,-0x228(%rbp)
   13973:	48 8d 05 62 29 01 00 	lea    0x12962(%rip),%rax        # 262dc <g_1943>
   1397a:	48 89 85 e0 fd ff ff 	mov    %rax,-0x220(%rbp)
   13981:	48 8d 85 18 f1 ff ff 	lea    -0xee8(%rbp),%rax
   13988:	48 89 85 e8 fd ff ff 	mov    %rax,-0x218(%rbp)
   1398f:	48 8d 05 46 29 01 00 	lea    0x12946(%rip),%rax        # 262dc <g_1943>
   13996:	48 89 85 f0 fd ff ff 	mov    %rax,-0x210(%rbp)
   1399d:	48 8d 05 a4 28 01 00 	lea    0x128a4(%rip),%rax        # 26248 <g_397>
   139a4:	48 89 85 f8 fd ff ff 	mov    %rax,-0x208(%rbp)
   139ab:	48 8d 05 96 28 01 00 	lea    0x12896(%rip),%rax        # 26248 <g_397>
   139b2:	48 89 85 00 fe ff ff 	mov    %rax,-0x200(%rbp)
   139b9:	48 8d 05 1c 29 01 00 	lea    0x1291c(%rip),%rax        # 262dc <g_1943>
   139c0:	48 89 85 08 fe ff ff 	mov    %rax,-0x1f8(%rbp)
   139c7:	48 8d 85 18 f1 ff ff 	lea    -0xee8(%rbp),%rax
   139ce:	48 89 85 10 fe ff ff 	mov    %rax,-0x1f0(%rbp)
   139d5:	48 8d 05 00 29 01 00 	lea    0x12900(%rip),%rax        # 262dc <g_1943>
   139dc:	48 89 85 18 fe ff ff 	mov    %rax,-0x1e8(%rbp)
   139e3:	48 8d 05 5e 28 01 00 	lea    0x1285e(%rip),%rax        # 26248 <g_397>
   139ea:	48 89 85 20 fe ff ff 	mov    %rax,-0x1e0(%rbp)
   139f1:	48 8d 05 50 28 01 00 	lea    0x12850(%rip),%rax        # 26248 <g_397>
   139f8:	48 89 85 28 fe ff ff 	mov    %rax,-0x1d8(%rbp)
   139ff:	48 8d 05 d6 28 01 00 	lea    0x128d6(%rip),%rax        # 262dc <g_1943>
   13a06:	48 89 85 30 fe ff ff 	mov    %rax,-0x1d0(%rbp)
   13a0d:	48 8d 85 18 f1 ff ff 	lea    -0xee8(%rbp),%rax
   13a14:	48 89 85 38 fe ff ff 	mov    %rax,-0x1c8(%rbp)
   13a1b:	48 8d 05 ba 28 01 00 	lea    0x128ba(%rip),%rax        # 262dc <g_1943>
   13a22:	48 89 85 40 fe ff ff 	mov    %rax,-0x1c0(%rbp)
   13a29:	48 8d 05 18 28 01 00 	lea    0x12818(%rip),%rax        # 26248 <g_397>
   13a30:	48 89 85 48 fe ff ff 	mov    %rax,-0x1b8(%rbp)
   13a37:	48 8d 05 0a 28 01 00 	lea    0x1280a(%rip),%rax        # 26248 <g_397>
   13a3e:	48 89 85 50 fe ff ff 	mov    %rax,-0x1b0(%rbp)
   13a45:	48 8d 05 90 28 01 00 	lea    0x12890(%rip),%rax        # 262dc <g_1943>
   13a4c:	48 89 85 58 fe ff ff 	mov    %rax,-0x1a8(%rbp)
   13a53:	48 8d 85 18 f1 ff ff 	lea    -0xee8(%rbp),%rax
   13a5a:	48 89 85 60 fe ff ff 	mov    %rax,-0x1a0(%rbp)
   13a61:	48 8d 05 74 28 01 00 	lea    0x12874(%rip),%rax        # 262dc <g_1943>
   13a68:	48 89 85 68 fe ff ff 	mov    %rax,-0x198(%rbp)
   13a6f:	48 8d 05 d2 27 01 00 	lea    0x127d2(%rip),%rax        # 26248 <g_397>
   13a76:	48 89 85 70 fe ff ff 	mov    %rax,-0x190(%rbp)
   13a7d:	48 8d 05 c4 27 01 00 	lea    0x127c4(%rip),%rax        # 26248 <g_397>
   13a84:	48 89 85 78 fe ff ff 	mov    %rax,-0x188(%rbp)
   13a8b:	48 8d 05 4a 28 01 00 	lea    0x1284a(%rip),%rax        # 262dc <g_1943>
   13a92:	48 89 85 80 fe ff ff 	mov    %rax,-0x180(%rbp)
   13a99:	48 8d 85 18 f1 ff ff 	lea    -0xee8(%rbp),%rax
   13aa0:	48 89 85 88 fe ff ff 	mov    %rax,-0x178(%rbp)
   13aa7:	48 8d 05 2e 28 01 00 	lea    0x1282e(%rip),%rax        # 262dc <g_1943>
   13aae:	48 89 85 90 fe ff ff 	mov    %rax,-0x170(%rbp)
   13ab5:	48 8d 05 8c 27 01 00 	lea    0x1278c(%rip),%rax        # 26248 <g_397>
   13abc:	48 89 85 98 fe ff ff 	mov    %rax,-0x168(%rbp)
   13ac3:	48 8d 05 7e 27 01 00 	lea    0x1277e(%rip),%rax        # 26248 <g_397>
   13aca:	48 89 85 a0 fe ff ff 	mov    %rax,-0x160(%rbp)
   13ad1:	48 8d 05 04 28 01 00 	lea    0x12804(%rip),%rax        # 262dc <g_1943>
   13ad8:	48 89 85 a8 fe ff ff 	mov    %rax,-0x158(%rbp)
   13adf:	c7 05 6b 27 01 00 00 	movl   $0x0,0x1276b(%rip)        # 26254 <g_515>
   13ae6:	00 00 00 
   13ae9:	e9 cb 02 00 00       	jmpq   13db9 <func_18+0xa06>
   13aee:	48 c7 85 30 f4 ff ff 	movq   $0x0,-0xbd0(%rbp)
   13af5:	00 00 00 00 
   13af9:	48 c7 85 38 f4 ff ff 	movq   $0x0,-0xbc8(%rbp)
   13b00:	00 00 00 00 
   13b04:	48 8d 05 23 27 01 00 	lea    0x12723(%rip),%rax        # 2622e <g_287>
   13b0b:	48 89 85 40 f4 ff ff 	mov    %rax,-0xbc0(%rbp)
   13b12:	48 8d 05 27 27 01 00 	lea    0x12727(%rip),%rax        # 26240 <g_365>
   13b19:	48 89 85 48 f4 ff ff 	mov    %rax,-0xbb8(%rbp)
   13b20:	48 8d 05 79 27 01 00 	lea    0x12779(%rip),%rax        # 262a0 <g_548>
   13b27:	48 89 85 50 f4 ff ff 	mov    %rax,-0xbb0(%rbp)
   13b2e:	48 8b 05 e3 42 01 00 	mov    0x142e3(%rip),%rax        # 27e18 <g_410>
   13b35:	0f b6 00             	movzbl (%rax),%eax
   13b38:	0f be d0             	movsbl %al,%edx
   13b3b:	48 8b 85 30 ef ff ff 	mov    -0x10d0(%rbp),%rax
   13b42:	83 f0 09             	xor    $0x9,%eax
   13b45:	0f be c0             	movsbl %al,%eax
   13b48:	89 d6                	mov    %edx,%esi
   13b4a:	89 c7                	mov    %eax,%edi
   13b4c:	e8 19 87 ff ff       	callq  c26a <safe_div_func_int8_t_s_s>
   13b51:	0f be 85 6d ef ff ff 	movsbl -0x1093(%rbp),%eax
   13b58:	be 40 9b 91 f5       	mov    $0xf5919b40,%esi
   13b5d:	89 c7                	mov    %eax,%edi
   13b5f:	e8 99 93 ff ff       	callq  cefd <safe_mod_func_uint32_t_u_u>
   13b64:	85 c0                	test   %eax,%eax
   13b66:	74 11                	je     13b79 <func_18+0x7c6>
   13b68:	48 83 bd 30 ef ff ff 	cmpq   $0x0,-0x10d0(%rbp)
   13b6f:	00 
   13b70:	74 07                	je     13b79 <func_18+0x7c6>
   13b72:	b8 01 00 00 00       	mov    $0x1,%eax
   13b77:	eb 05                	jmp    13b7e <func_18+0x7cb>
   13b79:	b8 00 00 00 00       	mov    $0x0,%eax
   13b7e:	3d f1 b3 13 77       	cmp    $0x7713b3f1,%eax
   13b83:	0f 95 c0             	setne  %al
   13b86:	0f b6 d0             	movzbl %al,%edx
   13b89:	48 0f bf 85 82 ef ff 	movswq -0x107e(%rbp),%rax
   13b90:	ff 
   13b91:	48 89 d6             	mov    %rdx,%rsi
   13b94:	48 89 c7             	mov    %rax,%rdi
   13b97:	e8 a5 8c ff ff       	callq  c841 <safe_add_func_int64_t_s_s>
   13b9c:	48 8b 05 6d 4f 01 00 	mov    0x14f6d(%rip),%rax        # 28b10 <g_1561>
   13ba3:	48 8b 00             	mov    (%rax),%rax
   13ba6:	48 39 85 28 f4 ff ff 	cmp    %rax,-0xbd8(%rbp)
   13bad:	0f 94 c0             	sete   %al
   13bb0:	0f b6 d0             	movzbl %al,%edx
   13bb3:	48 8d 05 46 50 01 00 	lea    0x15046(%rip),%rax        # 28c00 <g_1980>
   13bba:	48 39 85 40 f1 ff ff 	cmp    %rax,-0xec0(%rbp)
   13bc1:	0f 95 c0             	setne  %al
   13bc4:	0f b6 c0             	movzbl %al,%eax
   13bc7:	89 d1                	mov    %edx,%ecx
   13bc9:	31 c1                	xor    %eax,%ecx
   13bcb:	48 8b 05 2e 42 01 00 	mov    0x1422e(%rip),%rax        # 27e00 <g_87>
   13bd2:	0f b6 10             	movzbl (%rax),%edx
   13bd5:	8d 72 ff             	lea    -0x1(%rdx),%esi
   13bd8:	40 88 30             	mov    %sil,(%rax)
   13bdb:	0f b6 c2             	movzbl %dl,%eax
   13bde:	89 ce                	mov    %ecx,%esi
   13be0:	89 c7                	mov    %eax,%edi
   13be2:	e8 a6 90 ff ff       	callq  cc8d <safe_rshift_func_uint8_t_u_s>
   13be7:	84 c0                	test   %al,%al
   13be9:	0f 94 c0             	sete   %al
   13bec:	0f b6 d0             	movzbl %al,%edx
   13bef:	48 8b 05 7a 72 01 00 	mov    0x1727a(%rip),%rax        # 2ae70 <g_240>
   13bf6:	48 39 c2             	cmp    %rax,%rdx
   13bf9:	0f 93 c0             	setae  %al
   13bfc:	0f b6 c0             	movzbl %al,%eax
   13bff:	be 04 00 00 00       	mov    $0x4,%esi
   13c04:	89 c7                	mov    %eax,%edi
   13c06:	e8 82 90 ff ff       	callq  cc8d <safe_rshift_func_uint8_t_u_s>
   13c0b:	0f b6 c0             	movzbl %al,%eax
   13c0e:	89 85 18 f1 ff ff    	mov    %eax,-0xee8(%rbp)
   13c14:	8b 05 9a 26 01 00    	mov    0x1269a(%rip),%eax        # 262b4 <g_812>
   13c1a:	8d 70 03             	lea    0x3(%rax),%esi
   13c1d:	8b 15 31 26 01 00    	mov    0x12631(%rip),%edx        # 26254 <g_515>
   13c23:	8b 05 2b 26 01 00    	mov    0x1262b(%rip),%eax        # 26254 <g_515>
   13c29:	48 8b 8d b0 fd ff ff 	mov    -0x250(%rbp),%rcx
   13c30:	89 c7                	mov    %eax,%edi
   13c32:	89 f0                	mov    %esi,%eax
   13c34:	89 d6                	mov    %edx,%esi
   13c36:	48 89 c2             	mov    %rax,%rdx
   13c39:	48 c1 e2 04          	shl    $0x4,%rdx
   13c3d:	48 29 c2             	sub    %rax,%rdx
   13c40:	48 8d 04 12          	lea    (%rdx,%rdx,1),%rax
   13c44:	48 89 c2             	mov    %rax,%rdx
   13c47:	48 89 f0             	mov    %rsi,%rax
   13c4a:	48 c1 e0 02          	shl    $0x2,%rax
   13c4e:	48 01 f0             	add    %rsi,%rax
   13c51:	48 01 c0             	add    %rax,%rax
   13c54:	48 01 d0             	add    %rdx,%rax
   13c57:	48 01 f8             	add    %rdi,%rax
   13c5a:	48 8d 14 c5 00 00 00 	lea    0x0(,%rax,8),%rdx
   13c61:	00 
   13c62:	48 8d 05 77 46 01 00 	lea    0x14677(%rip),%rax        # 282e0 <g_986>
   13c69:	48 89 0c 02          	mov    %rcx,(%rdx,%rax,1)
   13c6d:	8b 85 2c ef ff ff    	mov    -0x10d4(%rbp),%eax
   13c73:	0f b7 d8             	movzwl %ax,%ebx
   13c76:	8b 85 2c ef ff ff    	mov    -0x10d4(%rbp),%eax
   13c7c:	44 0f be e0          	movsbl %al,%r12d
   13c80:	44 0f be ad 6d ef ff 	movsbl -0x1093(%rbp),%r13d
   13c87:	ff 
   13c88:	48 8b 85 48 f4 ff ff 	mov    -0xbb8(%rbp),%rax
   13c8f:	0f b7 10             	movzwl (%rax),%edx
   13c92:	48 8b 85 78 f0 ff ff 	mov    -0xf88(%rbp),%rax
   13c99:	8b 00                	mov    (%rax),%eax
   13c9b:	48 98                	cltq   
   13c9d:	48 39 85 30 ef ff ff 	cmp    %rax,-0x10d0(%rbp)
   13ca4:	7c 09                	jl     13caf <func_18+0x8fc>
   13ca6:	83 bd 74 f0 ff ff 00 	cmpl   $0x0,-0xf8c(%rbp)
   13cad:	74 07                	je     13cb6 <func_18+0x903>
   13caf:	b8 01 00 00 00       	mov    $0x1,%eax
   13cb4:	eb 05                	jmp    13cbb <func_18+0x908>
   13cb6:	b8 00 00 00 00       	mov    $0x0,%eax
   13cbb:	09 c2                	or     %eax,%edx
   13cbd:	48 8b 85 48 f4 ff ff 	mov    -0xbb8(%rbp),%rax
   13cc4:	66 89 10             	mov    %dx,(%rax)
   13cc7:	be 00 00 00 00       	mov    $0x0,%esi
   13ccc:	bf 05 00 00 00       	mov    $0x5,%edi
   13cd1:	e8 fa 91 ff ff       	callq  ced0 <safe_sub_func_uint32_t_u_u>
   13cd6:	3d 43 bc 00 00       	cmp    $0xbc43,%eax
   13cdb:	0f 97 c0             	seta   %al
   13cde:	0f b6 c0             	movzbl %al,%eax
   13ce1:	44 31 e8             	xor    %r13d,%eax
   13ce4:	48 63 d0             	movslq %eax,%rdx
   13ce7:	48 c7 85 40 ef ff ff 	movq   $0xfffffffffffffff7,-0x10c0(%rbp)
   13cee:	f7 ff ff ff 
   13cf2:	48 8b 85 40 ef ff ff 	mov    -0x10c0(%rbp),%rax
   13cf9:	48 89 d6             	mov    %rdx,%rsi
   13cfc:	48 89 c7             	mov    %rax,%rdi
   13cff:	e8 b0 8c ff ff       	callq  c9b4 <safe_mod_func_int64_t_s_s>
   13d04:	44 0f b7 e8          	movzwl %ax,%r13d
   13d08:	48 8b 85 40 f4 ff ff 	mov    -0xbc0(%rbp),%rax
   13d0f:	66 c7 00 ff ff       	movw   $0xffff,(%rax)
   13d14:	c7 85 70 f0 ff ff ff 	movl   $0xffff,-0xf90(%rbp)
   13d1b:	ff 00 00 
   13d1e:	8b 85 70 f0 ff ff    	mov    -0xf90(%rbp),%eax
   13d24:	0f b7 d0             	movzwl %ax,%edx
   13d27:	48 8b 85 30 ef ff ff 	mov    -0x10d0(%rbp),%rax
   13d2e:	0f b7 c0             	movzwl %ax,%eax
   13d31:	89 d6                	mov    %edx,%esi
   13d33:	89 c7                	mov    %eax,%edi
   13d35:	e8 22 90 ff ff       	callq  cd5c <safe_mod_func_uint16_t_u_u>
   13d3a:	0f b7 c0             	movzwl %ax,%eax
   13d3d:	44 89 ee             	mov    %r13d,%esi
   13d40:	89 c7                	mov    %eax,%edi
   13d42:	e8 b8 8f ff ff       	callq  ccff <safe_add_func_uint16_t_u_u>
   13d47:	0f be c0             	movsbl %al,%eax
   13d4a:	44 89 e6             	mov    %r12d,%esi
   13d4d:	89 c7                	mov    %eax,%edi
   13d4f:	e8 be 84 ff ff       	callq  c212 <safe_mul_func_int8_t_s_s>
   13d54:	84 c0                	test   %al,%al
   13d56:	75 09                	jne    13d61 <func_18+0x9ae>
   13d58:	80 bd 6c ef ff ff 00 	cmpb   $0x0,-0x1094(%rbp)
   13d5f:	74 07                	je     13d68 <func_18+0x9b5>
   13d61:	b8 01 00 00 00       	mov    $0x1,%eax
   13d66:	eb 05                	jmp    13d6d <func_18+0x9ba>
   13d68:	b8 00 00 00 00       	mov    $0x0,%eax
   13d6d:	3d a1 00 00 00       	cmp    $0xa1,%eax
   13d72:	48 8b 05 87 40 01 00 	mov    0x14087(%rip),%rax        # 27e00 <g_87>
   13d79:	0f b6 00             	movzbl (%rax),%eax
   13d7c:	3c 01                	cmp    $0x1,%al
   13d7e:	0f 96 c0             	setbe  %al
   13d81:	0f b6 c0             	movzbl %al,%eax
   13d84:	89 de                	mov    %ebx,%esi
   13d86:	89 c7                	mov    %eax,%edi
   13d88:	e8 cf 8f ff ff       	callq  cd5c <safe_mod_func_uint16_t_u_u>
   13d8d:	48 8b 85 50 f4 ff ff 	mov    -0xbb0(%rbp),%rax
   13d94:	48 8b 95 38 ef ff ff 	mov    -0x10c8(%rbp),%rdx
   13d9b:	48 89 10             	mov    %rdx,(%rax)
   13d9e:	8b 85 2c ef ff ff    	mov    -0x10d4(%rbp),%eax
   13da4:	21 85 e4 ef ff ff    	and    %eax,-0x101c(%rbp)
   13daa:	8b 05 a4 24 01 00    	mov    0x124a4(%rip),%eax        # 26254 <g_515>
   13db0:	83 c0 01             	add    $0x1,%eax
   13db3:	89 05 9b 24 01 00    	mov    %eax,0x1249b(%rip)        # 26254 <g_515>
   13db9:	8b 05 95 24 01 00    	mov    0x12495(%rip),%eax        # 26254 <g_515>
   13dbf:	83 f8 02             	cmp    $0x2,%eax
   13dc2:	0f 86 26 fd ff ff    	jbe    13aee <func_18+0x73b>
   13dc8:	48 83 bd 38 ef ff ff 	cmpq   $0x0,-0x10c8(%rbp)
   13dcf:	00 
   13dd0:	75 20                	jne    13df2 <func_18+0xa3f>
   13dd2:	48 8b 85 78 f0 ff ff 	mov    -0xf88(%rbp),%rax
   13dd9:	8b 00                	mov    (%rax),%eax
   13ddb:	85 c0                	test   %eax,%eax
   13ddd:	75 33                	jne    13e12 <func_18+0xa5f>
   13ddf:	48 8b 05 ca 4d 01 00 	mov    0x14dca(%rip),%rax        # 28bb0 <g_1937>
   13de6:	48 8d 95 18 f1 ff ff 	lea    -0xee8(%rbp),%rdx
   13ded:	48 89 10             	mov    %rdx,(%rax)
   13df0:	eb 01                	jmp    13df3 <func_18+0xa40>
   13df2:	90                   	nop
   13df3:	8b 05 4f 24 01 00    	mov    0x1244f(%rip),%eax        # 26248 <g_397>
   13df9:	83 e8 01             	sub    $0x1,%eax
   13dfc:	89 05 46 24 01 00    	mov    %eax,0x12446(%rip)        # 26248 <g_397>
   13e02:	8b 05 40 24 01 00    	mov    0x12440(%rip),%eax        # 26248 <g_397>
   13e08:	85 c0                	test   %eax,%eax
   13e0a:	0f 89 88 fa ff ff    	jns    13898 <func_18+0x4e5>
   13e10:	eb 01                	jmp    13e13 <func_18+0xa60>
   13e12:	90                   	nop
   13e13:	8b 05 9b 24 01 00    	mov    0x1249b(%rip),%eax        # 262b4 <g_812>
   13e19:	83 c0 01             	add    $0x1,%eax
   13e1c:	89 05 92 24 01 00    	mov    %eax,0x12492(%rip)        # 262b4 <g_812>
   13e22:	8b 05 8c 24 01 00    	mov    0x1248c(%rip),%eax        # 262b4 <g_812>
   13e28:	83 f8 02             	cmp    $0x2,%eax
   13e2b:	0f 86 47 fa ff ff    	jbe    13878 <func_18+0x4c5>
   13e31:	48 8b 95 78 f0 ff ff 	mov    -0xf88(%rbp),%rdx
   13e38:	48 8b 85 78 f0 ff ff 	mov    -0xf88(%rbp),%rax
   13e3f:	8b 12                	mov    (%rdx),%edx
   13e41:	89 10                	mov    %edx,(%rax)
   13e43:	83 bd e4 ef ff ff 00 	cmpl   $0x0,-0x101c(%rbp)
   13e4a:	0f 84 66 4a 00 00    	je     188b6 <func_18+0x5503>
   13e50:	e9 c4 f9 ff ff       	jmpq   13819 <func_18+0x466>
   13e55:	48 c7 85 30 f1 ff ff 	movq   $0x4,-0xed0(%rbp)
   13e5c:	04 00 00 00 
   13e60:	48 c7 85 b0 f6 ff ff 	movq   $0x0,-0x950(%rbp)
   13e67:	00 00 00 00 
   13e6b:	48 c7 85 b8 f6 ff ff 	movq   $0x0,-0x948(%rbp)
   13e72:	00 00 00 00 
   13e76:	48 c7 85 c0 f6 ff ff 	movq   $0x0,-0x940(%rbp)
   13e7d:	00 00 00 00 
   13e81:	48 c7 85 c8 f6 ff ff 	movq   $0x0,-0x938(%rbp)
   13e88:	00 00 00 00 
   13e8c:	48 c7 85 d0 f6 ff ff 	movq   $0x0,-0x930(%rbp)
   13e93:	00 00 00 00 
   13e97:	48 c7 85 d8 f6 ff ff 	movq   $0x0,-0x928(%rbp)
   13e9e:	00 00 00 00 
   13ea2:	48 c7 85 e0 f6 ff ff 	movq   $0x0,-0x920(%rbp)
   13ea9:	00 00 00 00 
   13ead:	48 c7 85 e8 f6 ff ff 	movq   $0x0,-0x918(%rbp)
   13eb4:	00 00 00 00 
   13eb8:	48 c7 85 f0 f6 ff ff 	movq   $0x0,-0x910(%rbp)
   13ebf:	00 00 00 00 
   13ec3:	48 c7 85 f8 f6 ff ff 	movq   $0x0,-0x908(%rbp)
   13eca:	00 00 00 00 
   13ece:	48 c7 85 b0 f0 ff ff 	movq   $0x0,-0xf50(%rbp)
   13ed5:	00 00 00 00 
   13ed9:	c7 85 90 ef ff ff 03 	movl   $0x3,-0x1070(%rbp)
   13ee0:	00 00 00 
   13ee3:	c6 85 5e ef ff ff aa 	movb   $0xaa,-0x10a2(%rbp)
   13eea:	48 8d 05 a7 43 01 00 	lea    0x143a7(%rip),%rax        # 28298 <g_544+0x18>
   13ef1:	48 89 85 30 f5 ff ff 	mov    %rax,-0xad0(%rbp)
   13ef8:	48 8d 05 99 43 01 00 	lea    0x14399(%rip),%rax        # 28298 <g_544+0x18>
   13eff:	48 89 85 38 f5 ff ff 	mov    %rax,-0xac8(%rbp)
   13f06:	48 8d 05 8b 43 01 00 	lea    0x1438b(%rip),%rax        # 28298 <g_544+0x18>
   13f0d:	48 89 85 40 f5 ff ff 	mov    %rax,-0xac0(%rbp)
   13f14:	48 8d 05 7d 43 01 00 	lea    0x1437d(%rip),%rax        # 28298 <g_544+0x18>
   13f1b:	48 89 85 48 f5 ff ff 	mov    %rax,-0xab8(%rbp)
   13f22:	48 8d 05 6f 43 01 00 	lea    0x1436f(%rip),%rax        # 28298 <g_544+0x18>
   13f29:	48 89 85 50 f5 ff ff 	mov    %rax,-0xab0(%rbp)
   13f30:	48 8d 05 6d 21 01 00 	lea    0x1216d(%rip),%rax        # 260a4 <g_24+0x4>
   13f37:	48 89 85 78 f1 ff ff 	mov    %rax,-0xe88(%rbp)
   13f3e:	48 8d 05 0b 40 01 00 	lea    0x1400b(%rip),%rax        # 27f50 <g_487+0xf0>
   13f45:	48 89 85 80 f1 ff ff 	mov    %rax,-0xe80(%rbp)
   13f4c:	48 8d 05 c5 21 01 00 	lea    0x121c5(%rip),%rax        # 26118 <g_100+0x38>
   13f53:	48 89 85 88 f1 ff ff 	mov    %rax,-0xe78(%rbp)
   13f5a:	c7 85 cc ef ff ff 01 	movl   $0x1,-0x1034(%rbp)
   13f61:	00 00 00 
   13f64:	48 8d 85 f0 f4 ff ff 	lea    -0xb10(%rbp),%rax
   13f6b:	48 83 c0 08          	add    $0x8,%rax
   13f6f:	48 89 85 40 f8 ff ff 	mov    %rax,-0x7c0(%rbp)
   13f76:	48 8d 85 f0 f4 ff ff 	lea    -0xb10(%rbp),%rax
   13f7d:	48 83 c0 08          	add    $0x8,%rax
   13f81:	48 89 85 48 f8 ff ff 	mov    %rax,-0x7b8(%rbp)
   13f88:	48 c7 85 50 f8 ff ff 	movq   $0x0,-0x7b0(%rbp)
   13f8f:	00 00 00 00 
   13f93:	48 c7 85 58 f8 ff ff 	movq   $0x0,-0x7a8(%rbp)
   13f9a:	00 00 00 00 
   13f9e:	48 8d 85 f0 f4 ff ff 	lea    -0xb10(%rbp),%rax
   13fa5:	48 83 c0 08          	add    $0x8,%rax
   13fa9:	48 89 85 60 f8 ff ff 	mov    %rax,-0x7a0(%rbp)
   13fb0:	48 8d 85 f0 f4 ff ff 	lea    -0xb10(%rbp),%rax
   13fb7:	48 83 c0 08          	add    $0x8,%rax
   13fbb:	48 89 85 68 f8 ff ff 	mov    %rax,-0x798(%rbp)
   13fc2:	48 8d 85 f0 f4 ff ff 	lea    -0xb10(%rbp),%rax
   13fc9:	48 83 c0 08          	add    $0x8,%rax
   13fcd:	48 89 85 70 f8 ff ff 	mov    %rax,-0x790(%rbp)
   13fd4:	48 8d 85 f0 f4 ff ff 	lea    -0xb10(%rbp),%rax
   13fdb:	48 83 c0 08          	add    $0x8,%rax
   13fdf:	48 89 85 78 f8 ff ff 	mov    %rax,-0x788(%rbp)
   13fe6:	48 8d 85 f0 f4 ff ff 	lea    -0xb10(%rbp),%rax
   13fed:	48 83 c0 08          	add    $0x8,%rax
   13ff1:	48 89 85 80 f8 ff ff 	mov    %rax,-0x780(%rbp)
   13ff8:	48 8d 85 f0 f4 ff ff 	lea    -0xb10(%rbp),%rax
   13fff:	48 83 c0 08          	add    $0x8,%rax
   14003:	48 89 85 88 f8 ff ff 	mov    %rax,-0x778(%rbp)
   1400a:	48 8d 85 f0 f4 ff ff 	lea    -0xb10(%rbp),%rax
   14011:	48 83 c0 08          	add    $0x8,%rax
   14015:	48 89 85 90 f8 ff ff 	mov    %rax,-0x770(%rbp)
   1401c:	48 8d 85 f0 f4 ff ff 	lea    -0xb10(%rbp),%rax
   14023:	48 83 c0 08          	add    $0x8,%rax
   14027:	48 89 85 98 f8 ff ff 	mov    %rax,-0x768(%rbp)
   1402e:	48 8d 85 f0 f4 ff ff 	lea    -0xb10(%rbp),%rax
   14035:	48 83 c0 08          	add    $0x8,%rax
   14039:	48 89 85 a0 f8 ff ff 	mov    %rax,-0x760(%rbp)
   14040:	48 8d 85 f0 f4 ff ff 	lea    -0xb10(%rbp),%rax
   14047:	48 83 c0 08          	add    $0x8,%rax
   1404b:	48 89 85 a8 f8 ff ff 	mov    %rax,-0x758(%rbp)
   14052:	48 c7 85 b0 f8 ff ff 	movq   $0x0,-0x750(%rbp)
   14059:	00 00 00 00 
   1405d:	48 8d 85 f0 f4 ff ff 	lea    -0xb10(%rbp),%rax
   14064:	48 83 c0 08          	add    $0x8,%rax
   14068:	48 89 85 b8 f8 ff ff 	mov    %rax,-0x748(%rbp)
   1406f:	48 8d 85 f0 f4 ff ff 	lea    -0xb10(%rbp),%rax
   14076:	48 83 c0 08          	add    $0x8,%rax
   1407a:	48 89 85 c0 f8 ff ff 	mov    %rax,-0x740(%rbp)
   14081:	48 c7 85 c8 f8 ff ff 	movq   $0x0,-0x738(%rbp)
   14088:	00 00 00 00 
   1408c:	48 8d 85 f0 f4 ff ff 	lea    -0xb10(%rbp),%rax
   14093:	48 83 c0 08          	add    $0x8,%rax
   14097:	48 89 85 d0 f8 ff ff 	mov    %rax,-0x730(%rbp)
   1409e:	48 8d 85 f0 f4 ff ff 	lea    -0xb10(%rbp),%rax
   140a5:	48 83 c0 08          	add    $0x8,%rax
   140a9:	48 89 85 d8 f8 ff ff 	mov    %rax,-0x728(%rbp)
   140b0:	48 c7 85 e0 f8 ff ff 	movq   $0x0,-0x720(%rbp)
   140b7:	00 00 00 00 
   140bb:	48 8d 85 f0 f4 ff ff 	lea    -0xb10(%rbp),%rax
   140c2:	48 83 c0 08          	add    $0x8,%rax
   140c6:	48 89 85 e8 f8 ff ff 	mov    %rax,-0x718(%rbp)
   140cd:	48 8d 85 f0 f4 ff ff 	lea    -0xb10(%rbp),%rax
   140d4:	48 83 c0 08          	add    $0x8,%rax
   140d8:	48 89 85 f0 f8 ff ff 	mov    %rax,-0x710(%rbp)
   140df:	48 8d 85 f0 f4 ff ff 	lea    -0xb10(%rbp),%rax
   140e6:	48 83 c0 10          	add    $0x10,%rax
   140ea:	48 89 85 f8 f8 ff ff 	mov    %rax,-0x708(%rbp)
   140f1:	48 8d 85 f0 f4 ff ff 	lea    -0xb10(%rbp),%rax
   140f8:	48 83 c0 08          	add    $0x8,%rax
   140fc:	48 89 85 00 f9 ff ff 	mov    %rax,-0x700(%rbp)
   14103:	48 8d 85 f0 f4 ff ff 	lea    -0xb10(%rbp),%rax
   1410a:	48 83 c0 08          	add    $0x8,%rax
   1410e:	48 89 85 08 f9 ff ff 	mov    %rax,-0x6f8(%rbp)
   14115:	48 8d 85 f0 f4 ff ff 	lea    -0xb10(%rbp),%rax
   1411c:	48 83 c0 08          	add    $0x8,%rax
   14120:	48 89 85 10 f9 ff ff 	mov    %rax,-0x6f0(%rbp)
   14127:	48 c7 85 18 f9 ff ff 	movq   $0x0,-0x6e8(%rbp)
   1412e:	00 00 00 00 
   14132:	48 8d 85 f0 f4 ff ff 	lea    -0xb10(%rbp),%rax
   14139:	48 83 c0 08          	add    $0x8,%rax
   1413d:	48 89 85 20 f9 ff ff 	mov    %rax,-0x6e0(%rbp)
   14144:	48 c7 85 28 f9 ff ff 	movq   $0x0,-0x6d8(%rbp)
   1414b:	00 00 00 00 
   1414f:	48 8d 85 f0 f4 ff ff 	lea    -0xb10(%rbp),%rax
   14156:	48 83 c0 08          	add    $0x8,%rax
   1415a:	48 89 85 30 f9 ff ff 	mov    %rax,-0x6d0(%rbp)
   14161:	48 8d 85 f0 f4 ff ff 	lea    -0xb10(%rbp),%rax
   14168:	48 83 c0 08          	add    $0x8,%rax
   1416c:	48 89 85 38 f9 ff ff 	mov    %rax,-0x6c8(%rbp)
   14173:	48 8d 85 f0 f4 ff ff 	lea    -0xb10(%rbp),%rax
   1417a:	48 83 c0 08          	add    $0x8,%rax
   1417e:	48 89 85 40 f9 ff ff 	mov    %rax,-0x6c0(%rbp)
   14185:	48 8d 85 f0 f4 ff ff 	lea    -0xb10(%rbp),%rax
   1418c:	48 83 c0 08          	add    $0x8,%rax
   14190:	48 89 85 48 f9 ff ff 	mov    %rax,-0x6b8(%rbp)
   14197:	48 8d 85 f0 f4 ff ff 	lea    -0xb10(%rbp),%rax
   1419e:	48 83 c0 08          	add    $0x8,%rax
   141a2:	48 89 85 50 f9 ff ff 	mov    %rax,-0x6b0(%rbp)
   141a9:	48 8d 85 f0 f4 ff ff 	lea    -0xb10(%rbp),%rax
   141b0:	48 83 c0 10          	add    $0x10,%rax
   141b4:	48 89 85 58 f9 ff ff 	mov    %rax,-0x6a8(%rbp)
   141bb:	48 8d 85 f0 f4 ff ff 	lea    -0xb10(%rbp),%rax
   141c2:	48 83 c0 08          	add    $0x8,%rax
   141c6:	48 89 85 60 f9 ff ff 	mov    %rax,-0x6a0(%rbp)
   141cd:	48 8d 85 f0 f4 ff ff 	lea    -0xb10(%rbp),%rax
   141d4:	48 83 c0 08          	add    $0x8,%rax
   141d8:	48 89 85 68 f9 ff ff 	mov    %rax,-0x698(%rbp)
   141df:	48 c7 85 70 f9 ff ff 	movq   $0x0,-0x690(%rbp)
   141e6:	00 00 00 00 
   141ea:	48 8d 85 f0 f4 ff ff 	lea    -0xb10(%rbp),%rax
   141f1:	48 83 c0 08          	add    $0x8,%rax
   141f5:	48 89 85 78 f9 ff ff 	mov    %rax,-0x688(%rbp)
   141fc:	48 8d 85 f0 f4 ff ff 	lea    -0xb10(%rbp),%rax
   14203:	48 83 c0 08          	add    $0x8,%rax
   14207:	48 89 85 80 f9 ff ff 	mov    %rax,-0x680(%rbp)
   1420e:	48 c7 85 88 f9 ff ff 	movq   $0x0,-0x678(%rbp)
   14215:	00 00 00 00 
   14219:	48 8d 85 f0 f4 ff ff 	lea    -0xb10(%rbp),%rax
   14220:	48 83 c0 08          	add    $0x8,%rax
   14224:	48 89 85 90 f9 ff ff 	mov    %rax,-0x670(%rbp)
   1422b:	48 8d 85 f0 f4 ff ff 	lea    -0xb10(%rbp),%rax
   14232:	48 83 c0 08          	add    $0x8,%rax
   14236:	48 89 85 98 f9 ff ff 	mov    %rax,-0x668(%rbp)
   1423d:	48 c7 85 a0 f9 ff ff 	movq   $0x0,-0x660(%rbp)
   14244:	00 00 00 00 
   14248:	48 c7 85 a8 f9 ff ff 	movq   $0x0,-0x658(%rbp)
   1424f:	00 00 00 00 
   14253:	48 8d 85 f0 f4 ff ff 	lea    -0xb10(%rbp),%rax
   1425a:	48 83 c0 08          	add    $0x8,%rax
   1425e:	48 89 85 b0 f9 ff ff 	mov    %rax,-0x650(%rbp)
   14265:	48 8d 85 f0 f4 ff ff 	lea    -0xb10(%rbp),%rax
   1426c:	48 83 c0 08          	add    $0x8,%rax
   14270:	48 89 85 b8 f9 ff ff 	mov    %rax,-0x648(%rbp)
   14277:	48 8d 85 40 f8 ff ff 	lea    -0x7c0(%rbp),%rax
   1427e:	48 05 10 01 00 00    	add    $0x110,%rax
   14284:	48 89 85 90 f1 ff ff 	mov    %rax,-0xe70(%rbp)
   1428b:	c6 85 5f ef ff ff 46 	movb   $0x46,-0x10a1(%rbp)
   14292:	48 8d 85 70 f4 ff ff 	lea    -0xb90(%rbp),%rax
   14299:	48 83 c0 04          	add    $0x4,%rax
   1429d:	48 89 85 b8 f0 ff ff 	mov    %rax,-0xf48(%rbp)
   142a4:	48 8d 85 b8 f0 ff ff 	lea    -0xf48(%rbp),%rax
   142ab:	48 89 85 c0 f0 ff ff 	mov    %rax,-0xf40(%rbp)
   142b2:	66 c7 85 72 ef ff ff 	movw   $0x646f,-0x108e(%rbp)
   142b9:	6f 64 
   142bb:	c6 85 60 ef ff ff 00 	movb   $0x0,-0x10a0(%rbp)
   142c2:	c6 85 61 ef ff ff ff 	movb   $0xff,-0x109f(%rbp)
   142c9:	c7 85 d0 ef ff ff 00 	movl   $0x0,-0x1030(%rbp)
   142d0:	00 00 00 
   142d3:	eb 1a                	jmp    142ef <func_18+0xf3c>
   142d5:	8b 85 d0 ef ff ff    	mov    -0x1030(%rbp),%eax
   142db:	48 98                	cltq   
   142dd:	c7 84 85 b0 f4 ff ff 	movl   $0xfffffffa,-0xb50(%rbp,%rax,4)
   142e4:	fa ff ff ff 
   142e8:	83 85 d0 ef ff ff 01 	addl   $0x1,-0x1030(%rbp)
   142ef:	83 bd d0 ef ff ff 03 	cmpl   $0x3,-0x1030(%rbp)
   142f6:	7e dd                	jle    142d5 <func_18+0xf22>
   142f8:	c7 85 d0 ef ff ff 00 	movl   $0x0,-0x1030(%rbp)
   142ff:	00 00 00 
   14302:	eb 1a                	jmp    1431e <func_18+0xf6b>
   14304:	8b 85 d0 ef ff ff    	mov    -0x1030(%rbp),%eax
   1430a:	48 98                	cltq   
   1430c:	c7 84 85 70 f4 ff ff 	movl   $0xfffffff6,-0xb90(%rbp,%rax,4)
   14313:	f6 ff ff ff 
   14317:	83 85 d0 ef ff ff 01 	addl   $0x1,-0x1030(%rbp)
   1431e:	83 bd d0 ef ff ff 01 	cmpl   $0x1,-0x1030(%rbp)
   14325:	7e dd                	jle    14304 <func_18+0xf51>
   14327:	c7 85 d0 ef ff ff 00 	movl   $0x0,-0x1030(%rbp)
   1432e:	00 00 00 
   14331:	eb 1a                	jmp    1434d <func_18+0xf9a>
   14333:	8b 85 d0 ef ff ff    	mov    -0x1030(%rbp),%eax
   14339:	48 98                	cltq   
   1433b:	c7 84 85 8c f4 ff ff 	movl   $0x58dec75,-0xb74(%rbp,%rax,4)
   14342:	75 ec 8d 05 
   14346:	83 85 d0 ef ff ff 01 	addl   $0x1,-0x1030(%rbp)
   1434d:	83 bd d0 ef ff ff 02 	cmpl   $0x2,-0x1030(%rbp)
   14354:	7e dd                	jle    14333 <func_18+0xf80>
   14356:	48 8b 85 78 f0 ff ff 	mov    -0xf88(%rbp),%rax
   1435d:	44 8b 20             	mov    (%rax),%r12d
   14360:	48 8b 05 b1 3a 01 00 	mov    0x13ab1(%rip),%rax        # 27e18 <g_410>
   14367:	0f b6 00             	movzbl (%rax),%eax
   1436a:	0f b6 d8             	movzbl %al,%ebx
   1436d:	8b 85 2c ef ff ff    	mov    -0x10d4(%rbp),%eax
   14373:	0f bf d0             	movswl %ax,%edx
   14376:	48 8b 85 48 ef ff ff 	mov    -0x10b8(%rbp),%rax
   1437d:	98                   	cwtl   
   1437e:	89 d6                	mov    %edx,%esi
   14380:	89 c7                	mov    %eax,%edi
   14382:	e8 8f 80 ff ff       	callq  c416 <safe_mod_func_int16_t_s_s>
   14387:	48 0f bf c0          	movswq %ax,%rax
   1438b:	48 8b 95 30 ef ff ff 	mov    -0x10d0(%rbp),%rdx
   14392:	48 89 d6             	mov    %rdx,%rsi
   14395:	48 89 c7             	mov    %rax,%rdi
   14398:	e8 0b 85 ff ff       	callq  c8a8 <safe_sub_func_int64_t_s_s>
   1439d:	48 8b 85 40 ef ff ff 	mov    -0x10c0(%rbp),%rax
   143a4:	0f be c0             	movsbl %al,%eax
   143a7:	89 c6                	mov    %eax,%esi
   143a9:	bf b1 ff ff ff       	mov    $0xffffffb1,%edi
   143ae:	e8 5f 7e ff ff       	callq  c212 <safe_mul_func_int8_t_s_s>
   143b3:	89 de                	mov    %ebx,%esi
   143b5:	bf 00 00 00 00       	mov    $0x0,%edi
   143ba:	e8 1c 88 ff ff       	callq  cbdb <safe_div_func_uint8_t_u_u>
   143bf:	48 81 bd 30 f1 ff ff 	cmpq   $0xe238,-0xed0(%rbp)
   143c6:	38 e2 00 00 
   143ca:	7e 09                	jle    143d5 <func_18+0x1022>
   143cc:	83 bd 2c ef ff ff 00 	cmpl   $0x0,-0x10d4(%rbp)
   143d3:	74 07                	je     143dc <func_18+0x1029>
   143d5:	b9 01 00 00 00       	mov    $0x1,%ecx
   143da:	eb 05                	jmp    143e1 <func_18+0x102e>
   143dc:	b9 00 00 00 00       	mov    $0x0,%ecx
   143e1:	48 8b 05 40 47 01 00 	mov    0x14740(%rip),%rax        # 28b28 <g_1771>
   143e8:	48 8b 00             	mov    (%rax),%rax
   143eb:	48 8d 95 78 f0 ff ff 	lea    -0xf88(%rbp),%rdx
   143f2:	48 89 10             	mov    %rdx,(%rax)
   143f5:	89 ce                	mov    %ecx,%esi
   143f7:	bf 00 00 00 00       	mov    $0x0,%edi
   143fc:	e8 47 8a ff ff       	callq  ce48 <safe_rshift_func_uint16_t_u_s>
   14401:	0f b7 d0             	movzwl %ax,%edx
   14404:	48 8b 85 78 f0 ff ff 	mov    -0xf88(%rbp),%rax
   1440b:	44 21 e2             	and    %r12d,%edx
   1440e:	89 10                	mov    %edx,(%rax)
   14410:	8b 00                	mov    (%rax),%eax
   14412:	0f b6 c0             	movzbl %al,%eax
   14415:	be 04 00 00 00       	mov    $0x4,%esi
   1441a:	89 c7                	mov    %eax,%edi
   1441c:	e8 e4 87 ff ff       	callq  cc05 <safe_lshift_func_uint8_t_u_s>
   14421:	0f b6 d0             	movzbl %al,%edx
   14424:	8b 85 2c ef ff ff    	mov    -0x10d4(%rbp),%eax
   1442a:	98                   	cwtl   
   1442b:	89 d6                	mov    %edx,%esi
   1442d:	89 c7                	mov    %eax,%edi
   1442f:	e8 c1 7f ff ff       	callq  c3f5 <safe_mul_func_int16_t_s_s>
   14434:	48 0f bf c0          	movswq %ax,%rax
   14438:	48 23 85 40 ef ff ff 	and    -0x10c0(%rbp),%rax
   1443f:	48 89 c2             	mov    %rax,%rdx
   14442:	48 8b 85 48 ef ff ff 	mov    -0x10b8(%rbp),%rax
   14449:	48 39 c2             	cmp    %rax,%rdx
   1444c:	0f 97 c0             	seta   %al
   1444f:	0f b6 c0             	movzbl %al,%eax
   14452:	be 00 00 00 00       	mov    $0x0,%esi
   14457:	89 c7                	mov    %eax,%edi
   14459:	e8 c1 88 ff ff       	callq  cd1f <safe_sub_func_uint16_t_u_u>
   1445e:	0f b7 d0             	movzwl %ax,%edx
   14461:	48 8b 05 78 1e 01 00 	mov    0x11e78(%rip),%rax        # 262e0 <g_2038>
   14468:	48 39 c2             	cmp    %rax,%rdx
   1446b:	0f 92 c0             	setb   %al
   1446e:	0f b6 d0             	movzbl %al,%edx
   14471:	48 8b 05 88 39 01 00 	mov    0x13988(%rip),%rax        # 27e00 <g_87>
   14478:	0f b6 00             	movzbl (%rax),%eax
   1447b:	0f b6 c0             	movzbl %al,%eax
   1447e:	21 d0                	and    %edx,%eax
   14480:	be fb ff ff ff       	mov    $0xfffffffb,%esi
   14485:	89 c7                	mov    %eax,%edi
   14487:	e8 71 8a ff ff       	callq  cefd <safe_mod_func_uint32_t_u_u>
   1448c:	89 c0                	mov    %eax,%eax
   1448e:	48 39 85 30 ef ff ff 	cmp    %rax,-0x10d0(%rbp)
   14495:	0f 9d c0             	setge  %al
   14498:	0f b6 c0             	movzbl %al,%eax
   1449b:	89 c6                	mov    %eax,%esi
   1449d:	bf ff 31 00 00       	mov    $0x31ff,%edi
   144a2:	e8 96 88 ff ff       	callq  cd3d <safe_mul_func_uint16_t_u_u>
   144a7:	48 8b 85 48 ef ff ff 	mov    -0x10b8(%rbp),%rax
   144ae:	48 83 f8 06          	cmp    $0x6,%rax
   144b2:	0f 87 c4 40 00 00    	ja     1857c <func_18+0x51c9>
   144b8:	48 8d 05 41 39 01 00 	lea    0x13941(%rip),%rax        # 27e00 <g_87>
   144bf:	48 89 85 c8 f0 ff ff 	mov    %rax,-0xf38(%rbp)
   144c6:	48 8d 85 c8 f0 ff ff 	lea    -0xf38(%rbp),%rax
   144cd:	48 89 85 d0 f0 ff ff 	mov    %rax,-0xf30(%rbp)
   144d4:	48 8d 85 d0 f0 ff ff 	lea    -0xf30(%rbp),%rax
   144db:	48 89 85 d8 f0 ff ff 	mov    %rax,-0xf28(%rbp)
   144e2:	48 8d 85 d8 f0 ff ff 	lea    -0xf28(%rbp),%rax
   144e9:	48 89 85 98 f1 ff ff 	mov    %rax,-0xe68(%rbp)
   144f0:	48 8d 85 80 f0 ff ff 	lea    -0xf80(%rbp),%rax
   144f7:	48 89 85 a0 f1 ff ff 	mov    %rax,-0xe60(%rbp)
   144fe:	48 8d 05 43 1d 01 00 	lea    0x11d43(%rip),%rax        # 26248 <g_397>
   14505:	48 89 85 28 f1 ff ff 	mov    %rax,-0xed8(%rbp)
   1450c:	48 8d 05 ad 3d 01 00 	lea    0x13dad(%rip),%rax        # 282c0 <g_543>
   14513:	48 89 85 c0 f5 ff ff 	mov    %rax,-0xa40(%rbp)
   1451a:	48 8d 05 9f 3d 01 00 	lea    0x13d9f(%rip),%rax        # 282c0 <g_543>
   14521:	48 89 85 c8 f5 ff ff 	mov    %rax,-0xa38(%rbp)
   14528:	48 8d 05 91 3d 01 00 	lea    0x13d91(%rip),%rax        # 282c0 <g_543>
   1452f:	48 89 85 d0 f5 ff ff 	mov    %rax,-0xa30(%rbp)
   14536:	48 8d 05 83 3d 01 00 	lea    0x13d83(%rip),%rax        # 282c0 <g_543>
   1453d:	48 89 85 d8 f5 ff ff 	mov    %rax,-0xa28(%rbp)
   14544:	48 8d 05 75 3d 01 00 	lea    0x13d75(%rip),%rax        # 282c0 <g_543>
   1454b:	48 89 85 e0 f5 ff ff 	mov    %rax,-0xa20(%rbp)
   14552:	48 8d 05 67 3d 01 00 	lea    0x13d67(%rip),%rax        # 282c0 <g_543>
   14559:	48 89 85 e8 f5 ff ff 	mov    %rax,-0xa18(%rbp)
   14560:	48 8d 05 59 3d 01 00 	lea    0x13d59(%rip),%rax        # 282c0 <g_543>
   14567:	48 89 85 f0 f5 ff ff 	mov    %rax,-0xa10(%rbp)
   1456e:	48 8d 05 4b 3d 01 00 	lea    0x13d4b(%rip),%rax        # 282c0 <g_543>
   14575:	48 89 85 f8 f5 ff ff 	mov    %rax,-0xa08(%rbp)
   1457c:	48 8d 05 3d 3d 01 00 	lea    0x13d3d(%rip),%rax        # 282c0 <g_543>
   14583:	48 89 85 00 f6 ff ff 	mov    %rax,-0xa00(%rbp)
   1458a:	48 8d 05 77 45 01 00 	lea    0x14577(%rip),%rax        # 28b08 <g_1562>
   14591:	48 89 85 60 f5 ff ff 	mov    %rax,-0xaa0(%rbp)
   14598:	48 8d 05 69 45 01 00 	lea    0x14569(%rip),%rax        # 28b08 <g_1562>
   1459f:	48 89 85 68 f5 ff ff 	mov    %rax,-0xa98(%rbp)
   145a6:	48 8d 05 5b 45 01 00 	lea    0x1455b(%rip),%rax        # 28b08 <g_1562>
   145ad:	48 89 85 70 f5 ff ff 	mov    %rax,-0xa90(%rbp)
   145b4:	48 8d 05 4d 45 01 00 	lea    0x1454d(%rip),%rax        # 28b08 <g_1562>
   145bb:	48 89 85 78 f5 ff ff 	mov    %rax,-0xa88(%rbp)
   145c2:	48 8d 05 3f 45 01 00 	lea    0x1453f(%rip),%rax        # 28b08 <g_1562>
   145c9:	48 89 85 80 f5 ff ff 	mov    %rax,-0xa80(%rbp)
   145d0:	66 c7 85 74 ef ff ff 	movw   $0xcaa,-0x108c(%rbp)
   145d7:	aa 0c 
   145d9:	48 c7 85 e0 f0 ff ff 	movq   $0x0,-0xf20(%rbp)
   145e0:	00 00 00 00 
   145e4:	c6 85 63 ef ff ff 01 	movb   $0x1,-0x109d(%rbp)
   145eb:	48 8d 05 be 1c 01 00 	lea    0x11cbe(%rip),%rax        # 262b0 <g_766>
   145f2:	48 89 85 e8 f0 ff ff 	mov    %rax,-0xf18(%rbp)
   145f9:	48 8d 85 e8 f0 ff ff 	lea    -0xf18(%rbp),%rax
   14600:	48 89 85 a8 f1 ff ff 	mov    %rax,-0xe58(%rbp)
   14607:	c7 85 94 ef ff ff 31 	movl   $0x9ff7c631,-0x106c(%rbp)
   1460e:	c6 f7 9f 
   14611:	48 8d 05 30 1b 01 00 	lea    0x11b30(%rip),%rax        # 26148 <g_100+0x68>
   14618:	48 89 85 b0 f1 ff ff 	mov    %rax,-0xe50(%rbp)
   1461f:	66 c7 85 76 ef ff ff 	movw   $0xb379,-0x108a(%rbp)
   14626:	79 b3 
   14628:	c7 85 b0 ef ff ff c9 	movl   $0x84d210c9,-0x1050(%rbp)
   1462f:	10 d2 84 
   14632:	48 c7 85 f0 f0 ff ff 	movq   $0x0,-0xf10(%rbp)
   14639:	00 00 00 00 
   1463d:	c7 85 b4 ef ff ff 00 	movl   $0x0,-0x104c(%rbp)
   14644:	00 00 00 
   14647:	66 c7 85 00 f7 ff ff 	movw   $0x1937,-0x900(%rbp)
   1464e:	37 19 
   14650:	66 c7 85 02 f7 ff ff 	movw   $0x1937,-0x8fe(%rbp)
   14657:	37 19 
   14659:	66 c7 85 04 f7 ff ff 	movw   $0x1937,-0x8fc(%rbp)
   14660:	37 19 
   14662:	66 c7 85 06 f7 ff ff 	movw   $0x1937,-0x8fa(%rbp)
   14669:	37 19 
   1466b:	66 c7 85 08 f7 ff ff 	movw   $0x1937,-0x8f8(%rbp)
   14672:	37 19 
   14674:	66 c7 85 0a f7 ff ff 	movw   $0x1937,-0x8f6(%rbp)
   1467b:	37 19 
   1467d:	66 c7 85 0c f7 ff ff 	movw   $0x1937,-0x8f4(%rbp)
   14684:	37 19 
   14686:	66 c7 85 0e f7 ff ff 	movw   $0x1937,-0x8f2(%rbp)
   1468d:	37 19 
   1468f:	66 c7 85 10 f7 ff ff 	movw   $0x1937,-0x8f0(%rbp)
   14696:	37 19 
   14698:	66 c7 85 12 f7 ff ff 	movw   $0x1937,-0x8ee(%rbp)
   1469f:	37 19 
   146a1:	66 c7 85 14 f7 ff ff 	movw   $0x1937,-0x8ec(%rbp)
   146a8:	37 19 
   146aa:	66 c7 85 16 f7 ff ff 	movw   $0x1937,-0x8ea(%rbp)
   146b1:	37 19 
   146b3:	66 c7 85 18 f7 ff ff 	movw   $0x1937,-0x8e8(%rbp)
   146ba:	37 19 
   146bc:	66 c7 85 1a f7 ff ff 	movw   $0x1937,-0x8e6(%rbp)
   146c3:	37 19 
   146c5:	66 c7 85 1c f7 ff ff 	movw   $0x1937,-0x8e4(%rbp)
   146cc:	37 19 
   146ce:	66 c7 85 1e f7 ff ff 	movw   $0x1937,-0x8e2(%rbp)
   146d5:	37 19 
   146d7:	66 c7 85 20 f7 ff ff 	movw   $0x1937,-0x8e0(%rbp)
   146de:	37 19 
   146e0:	66 c7 85 22 f7 ff ff 	movw   $0x1937,-0x8de(%rbp)
   146e7:	37 19 
   146e9:	66 c7 85 24 f7 ff ff 	movw   $0x1937,-0x8dc(%rbp)
   146f0:	37 19 
   146f2:	66 c7 85 26 f7 ff ff 	movw   $0x1937,-0x8da(%rbp)
   146f9:	37 19 
   146fb:	66 c7 85 28 f7 ff ff 	movw   $0x1937,-0x8d8(%rbp)
   14702:	37 19 
   14704:	66 c7 85 2a f7 ff ff 	movw   $0x1937,-0x8d6(%rbp)
   1470b:	37 19 
   1470d:	66 c7 85 2c f7 ff ff 	movw   $0x1937,-0x8d4(%rbp)
   14714:	37 19 
   14716:	66 c7 85 2e f7 ff ff 	movw   $0x1937,-0x8d2(%rbp)
   1471d:	37 19 
   1471f:	66 c7 85 30 f7 ff ff 	movw   $0x1937,-0x8d0(%rbp)
   14726:	37 19 
   14728:	66 c7 85 32 f7 ff ff 	movw   $0x1937,-0x8ce(%rbp)
   1472f:	37 19 
   14731:	66 c7 85 34 f7 ff ff 	movw   $0x1937,-0x8cc(%rbp)
   14738:	37 19 
   1473a:	66 c7 85 36 f7 ff ff 	movw   $0x1937,-0x8ca(%rbp)
   14741:	37 19 
   14743:	66 c7 85 38 f7 ff ff 	movw   $0x1937,-0x8c8(%rbp)
   1474a:	37 19 
   1474c:	66 c7 85 3a f7 ff ff 	movw   $0x1937,-0x8c6(%rbp)
   14753:	37 19 
   14755:	66 c7 85 3c f7 ff ff 	movw   $0x1937,-0x8c4(%rbp)
   1475c:	37 19 
   1475e:	66 c7 85 3e f7 ff ff 	movw   $0x1937,-0x8c2(%rbp)
   14765:	37 19 
   14767:	66 c7 85 40 f7 ff ff 	movw   $0x1937,-0x8c0(%rbp)
   1476e:	37 19 
   14770:	66 c7 85 42 f7 ff ff 	movw   $0x1937,-0x8be(%rbp)
   14777:	37 19 
   14779:	66 c7 85 44 f7 ff ff 	movw   $0x1937,-0x8bc(%rbp)
   14780:	37 19 
   14782:	66 c7 85 46 f7 ff ff 	movw   $0x1937,-0x8ba(%rbp)
   14789:	37 19 
   1478b:	66 c7 85 48 f7 ff ff 	movw   $0x1937,-0x8b8(%rbp)
   14792:	37 19 
   14794:	66 c7 85 4a f7 ff ff 	movw   $0x1937,-0x8b6(%rbp)
   1479b:	37 19 
   1479d:	66 c7 85 4c f7 ff ff 	movw   $0x1937,-0x8b4(%rbp)
   147a4:	37 19 
   147a6:	66 c7 85 4e f7 ff ff 	movw   $0x1937,-0x8b2(%rbp)
   147ad:	37 19 
   147af:	66 c7 85 50 f7 ff ff 	movw   $0x1937,-0x8b0(%rbp)
   147b6:	37 19 
   147b8:	66 c7 85 52 f7 ff ff 	movw   $0x1937,-0x8ae(%rbp)
   147bf:	37 19 
   147c1:	66 c7 85 54 f7 ff ff 	movw   $0x1937,-0x8ac(%rbp)
   147c8:	37 19 
   147ca:	66 c7 85 56 f7 ff ff 	movw   $0x1937,-0x8aa(%rbp)
   147d1:	37 19 
   147d3:	66 c7 85 58 f7 ff ff 	movw   $0x1937,-0x8a8(%rbp)
   147da:	37 19 
   147dc:	66 c7 85 5a f7 ff ff 	movw   $0x1937,-0x8a6(%rbp)
   147e3:	37 19 
   147e5:	66 c7 85 5c f7 ff ff 	movw   $0x1937,-0x8a4(%rbp)
   147ec:	37 19 
   147ee:	66 c7 85 5e f7 ff ff 	movw   $0x1937,-0x8a2(%rbp)
   147f5:	37 19 
   147f7:	c7 85 c0 f4 ff ff 30 	movl   $0x2fc59f30,-0xb40(%rbp)
   147fe:	9f c5 2f 
   14801:	c7 85 c4 f4 ff ff 30 	movl   $0x2fc59f30,-0xb3c(%rbp)
   14808:	9f c5 2f 
   1480b:	c7 85 c8 f4 ff ff 30 	movl   $0x2fc59f30,-0xb38(%rbp)
   14812:	9f c5 2f 
   14815:	c7 85 cc f4 ff ff 30 	movl   $0x2fc59f30,-0xb34(%rbp)
   1481c:	9f c5 2f 
   1481f:	48 8d 85 5c ef ff ff 	lea    -0x10a4(%rbp),%rax
   14826:	48 89 85 b8 f1 ff ff 	mov    %rax,-0xe48(%rbp)
   1482d:	c7 85 00 f0 ff ff d0 	movl   $0x58447ad0,-0x1000(%rbp)
   14834:	7a 44 58 
   14837:	66 c7 85 78 ef ff ff 	movw   $0x9,-0x1088(%rbp)
   1483e:	09 00 
   14840:	48 8d 85 70 fd ff ff 	lea    -0x290(%rbp),%rax
   14847:	48 8d 15 72 22 01 00 	lea    0x12272(%rip),%rdx        # 26ac0 <g_4408+0x6e0>
   1484e:	b9 48 00 00 00       	mov    $0x48,%ecx
   14853:	48 89 c7             	mov    %rax,%rdi
   14856:	48 89 d6             	mov    %rdx,%rsi
   14859:	f3 48 a5             	rep movsq %ds:(%rsi),%es:(%rdi)
   1485c:	c6 85 64 ef ff ff b9 	movb   $0xb9,-0x109c(%rbp)
   14863:	48 c7 85 c0 f1 ff ff 	movq   $0x0,-0xe40(%rbp)
   1486a:	00 00 00 00 
   1486e:	48 8d 85 c8 f0 ff ff 	lea    -0xf38(%rbp),%rax
   14875:	48 89 85 c8 f1 ff ff 	mov    %rax,-0xe38(%rbp)
   1487c:	66 c7 85 7a ef ff ff 	movw   $0xf3ff,-0x1086(%rbp)
   14883:	ff f3 
   14885:	c7 85 04 f0 ff ff ad 	movl   $0x5adf17ad,-0xffc(%rbp)
   1488c:	17 df 5a 
   1488f:	c7 85 b8 ef ff ff 00 	movl   $0x0,-0x1048(%rbp)
   14896:	00 00 00 
   14899:	eb 1a                	jmp    148b5 <func_18+0x1502>
   1489b:	8b 85 b8 ef ff ff    	mov    -0x1048(%rbp),%eax
   148a1:	48 98                	cltq   
   148a3:	c7 84 85 98 f4 ff ff 	movl   $0x8,-0xb68(%rbp,%rax,4)
   148aa:	08 00 00 00 
   148ae:	83 85 b8 ef ff ff 01 	addl   $0x1,-0x1048(%rbp)
   148b5:	83 bd b8 ef ff ff 02 	cmpl   $0x2,-0x1048(%rbp)
   148bc:	7e dd                	jle    1489b <func_18+0x14e8>
   148be:	c7 85 b8 ef ff ff 00 	movl   $0x0,-0x1048(%rbp)
   148c5:	00 00 00 
   148c8:	eb 1a                	jmp    148e4 <func_18+0x1531>
   148ca:	8b 85 b8 ef ff ff    	mov    -0x1048(%rbp),%eax
   148d0:	48 98                	cltq   
   148d2:	c7 84 85 a4 f4 ff ff 	movl   $0xc2534954,-0xb5c(%rbp,%rax,4)
   148d9:	54 49 53 c2 
   148dd:	83 85 b8 ef ff ff 01 	addl   $0x1,-0x1048(%rbp)
   148e4:	83 bd b8 ef ff ff 02 	cmpl   $0x2,-0x1048(%rbp)
   148eb:	7e dd                	jle    148ca <func_18+0x1517>
   148ed:	c7 85 b8 ef ff ff 00 	movl   $0x0,-0x1048(%rbp)
   148f4:	00 00 00 
   148f7:	eb 14                	jmp    1490d <func_18+0x155a>
   148f9:	8b 85 b8 ef ff ff    	mov    -0x1048(%rbp),%eax
   148ff:	48 98                	cltq   
   14901:	c6 44 05 bb 01       	movb   $0x1,-0x45(%rbp,%rax,1)
   14906:	83 85 b8 ef ff ff 01 	addl   $0x1,-0x1048(%rbp)
   1490d:	83 bd b8 ef ff ff 02 	cmpl   $0x2,-0x1048(%rbp)
   14914:	7e e3                	jle    148f9 <func_18+0x1546>
   14916:	90                   	nop
   14917:	48 8b 95 d8 f0 ff ff 	mov    -0xf28(%rbp),%rdx
   1491e:	48 8b 85 98 f1 ff ff 	mov    -0xe68(%rbp),%rax
   14925:	48 89 10             	mov    %rdx,(%rax)
   14928:	48 8b 05 19 35 01 00 	mov    0x13519(%rip),%rax        # 27e48 <g_489>
   1492f:	48 8b 00             	mov    (%rax),%rax
   14932:	48 8b 95 40 ef ff ff 	mov    -0x10c0(%rbp),%rdx
   14939:	89 10                	mov    %edx,(%rax)
   1493b:	8b 00                	mov    (%rax),%eax
   1493d:	85 c0                	test   %eax,%eax
   1493f:	0f 84 b5 0f 00 00    	je     158fa <func_18+0x2547>
   14945:	66 c7 85 6e ef ff ff 	movw   $0x0,-0x1092(%rbp)
   1494c:	00 00 
   1494e:	48 8d 05 5b 19 01 00 	lea    0x1195b(%rip),%rax        # 262b0 <g_766>
   14955:	48 89 85 f8 f0 ff ff 	mov    %rax,-0xf08(%rbp)
   1495c:	48 8d 85 f8 f0 ff ff 	lea    -0xf08(%rbp),%rax
   14963:	48 89 85 48 f2 ff ff 	mov    %rax,-0xdb8(%rbp)
   1496a:	48 8d 05 3f 19 01 00 	lea    0x1193f(%rip),%rax        # 262b0 <g_766>
   14971:	48 89 85 00 f1 ff ff 	mov    %rax,-0xf00(%rbp)
   14978:	48 8d 85 00 f1 ff ff 	lea    -0xf00(%rbp),%rax
   1497f:	48 89 85 50 f2 ff ff 	mov    %rax,-0xdb0(%rbp)
   14986:	48 8d 05 db 64 01 00 	lea    0x164db(%rip),%rax        # 2ae68 <g_215>
   1498d:	48 89 85 08 f1 ff ff 	mov    %rax,-0xef8(%rbp)
   14994:	48 c7 85 58 f2 ff ff 	movq   $0x0,-0xda8(%rbp)
   1499b:	00 00 00 00 
   1499f:	c7 85 98 ef ff ff 01 	movl   $0x1,-0x1068(%rbp)
   149a6:	00 00 00 
   149a9:	c7 85 14 f0 ff ff 4b 	movl   $0x7b51004b,-0xfec(%rbp)
   149b0:	00 51 7b 
   149b3:	48 8d 85 70 fb ff ff 	lea    -0x490(%rbp),%rax
   149ba:	48 8d 15 9f c5 00 00 	lea    0xc59f(%rip),%rdx        # 20f60 <g_2708+0xcd8>
   149c1:	b9 2d 00 00 00       	mov    $0x2d,%ecx
   149c6:	48 89 c7             	mov    %rax,%rdi
   149c9:	48 89 d6             	mov    %rdx,%rsi
   149cc:	f3 48 a5             	rep movsq %ds:(%rsi),%es:(%rdi)
   149cf:	66 c7 85 7c ef ff ff 	movw   $0x444d,-0x1084(%rbp)
   149d6:	4d 44 
   149d8:	48 c7 85 30 f1 ff ff 	movq   $0xfffffffffffffff6,-0xed0(%rbp)
   149df:	f6 ff ff ff 
   149e3:	e9 9d 00 00 00       	jmpq   14a85 <func_18+0x16d2>
   149e8:	c6 85 68 ef ff ff e0 	movb   $0xe0,-0x1098(%rbp)
   149ef:	48 c7 85 58 f3 ff ff 	movq   $0x0,-0xca8(%rbp)
   149f6:	00 00 00 00 
   149fa:	48 8d 85 b0 f4 ff ff 	lea    -0xb50(%rbp),%rax
   14a01:	48 83 c0 04          	add    $0x4,%rax
   14a05:	48 89 85 60 f3 ff ff 	mov    %rax,-0xca0(%rbp)
   14a0c:	c7 85 bc ef ff ff 00 	movl   $0x0,-0x1044(%rbp)
   14a13:	00 00 00 
   14a16:	eb 1e                	jmp    14a36 <func_18+0x1683>
   14a18:	8b 85 bc ef ff ff    	mov    -0x1044(%rbp),%eax
   14a1e:	48 98                	cltq   
   14a20:	48 8d 15 21 18 01 00 	lea    0x11821(%rip),%rdx        # 26248 <g_397>
   14a27:	48 89 94 c5 c0 f9 ff 	mov    %rdx,-0x640(%rbp,%rax,8)
   14a2e:	ff 
   14a2f:	83 85 bc ef ff ff 01 	addl   $0x1,-0x1044(%rbp)
   14a36:	83 bd bc ef ff ff 05 	cmpl   $0x5,-0x1044(%rbp)
   14a3d:	7e d9                	jle    14a18 <func_18+0x1665>
   14a3f:	66 c7 05 e6 17 01 00 	movw   $0x0,0x117e6(%rip)        # 2622e <g_287>
   14a46:	00 00 
   14a48:	90                   	nop
   14a49:	0f b7 05 de 17 01 00 	movzwl 0x117de(%rip),%eax        # 2622e <g_287>
   14a50:	66 83 f8 22          	cmp    $0x22,%ax
   14a54:	75 0c                	jne    14a62 <func_18+0x16af>
   14a56:	48 8b 85 30 ef ff ff 	mov    -0x10d0(%rbp),%rax
   14a5d:	e9 5b 3e 00 00       	jmpq   188bd <func_18+0x550a>
   14a62:	48 83 ad 38 f1 ff ff 	subq   $0x1,-0xec8(%rbp)
   14a69:	01 
   14a6a:	48 8b 85 30 f1 ff ff 	mov    -0xed0(%rbp),%rax
   14a71:	be 07 00 00 00       	mov    $0x7,%esi
   14a76:	48 89 c7             	mov    %rax,%rdi
   14a79:	e8 2a 7e ff ff       	callq  c8a8 <safe_sub_func_int64_t_s_s>
   14a7e:	48 89 85 30 f1 ff ff 	mov    %rax,-0xed0(%rbp)
   14a85:	48 83 bd 30 f1 ff ff 	cmpq   $0xfffffffffffffff4,-0xed0(%rbp)
   14a8c:	f4 
   14a8d:	0f 8c 55 ff ff ff    	jl     149e8 <func_18+0x1635>
   14a93:	8b 85 b4 f4 ff ff    	mov    -0xb4c(%rbp),%eax
   14a99:	0f be d8             	movsbl %al,%ebx
   14a9c:	8b 85 9c f4 ff ff    	mov    -0xb64(%rbp),%eax
   14aa2:	44 0f be e0          	movsbl %al,%r12d
   14aa6:	8b 85 a0 f4 ff ff    	mov    -0xb60(%rbp),%eax
   14aac:	41 89 c7             	mov    %eax,%r15d
   14aaf:	48 8b 85 48 f2 ff ff 	mov    -0xdb8(%rbp),%rax
   14ab6:	48 c7 00 00 00 00 00 	movq   $0x0,(%rax)
   14abd:	48 8b 85 48 f2 ff ff 	mov    -0xdb8(%rbp),%rax
   14ac4:	48 8b 10             	mov    (%rax),%rdx
   14ac7:	48 8b 85 50 f2 ff ff 	mov    -0xdb0(%rbp),%rax
   14ace:	48 89 10             	mov    %rdx,(%rax)
   14ad1:	48 8b 85 50 f2 ff ff 	mov    -0xdb0(%rbp),%rax
   14ad8:	48 8b 00             	mov    (%rax),%rax
   14adb:	48 8d 15 ce 17 01 00 	lea    0x117ce(%rip),%rdx        # 262b0 <g_766>
   14ae2:	48 39 d0             	cmp    %rdx,%rax
   14ae5:	0f 94 c0             	sete   %al
   14ae8:	44 0f b6 e8          	movzbl %al,%r13d
   14aec:	48 8b 85 40 ef ff ff 	mov    -0x10c0(%rbp),%rax
   14af3:	0f b6 d0             	movzbl %al,%edx
   14af6:	48 8b 85 38 ef ff ff 	mov    -0x10c8(%rbp),%rax
   14afd:	0f b6 c0             	movzbl %al,%eax
   14b00:	89 d6                	mov    %edx,%esi
   14b02:	89 c7                	mov    %eax,%edi
   14b04:	e8 8a 80 ff ff       	callq  cb93 <safe_mul_func_uint8_t_u_u>
   14b09:	44 0f b6 f0          	movzbl %al,%r14d
   14b0d:	48 8b 85 08 f1 ff ff 	mov    -0xef8(%rbp),%rax
   14b14:	48 8b 95 40 ef ff ff 	mov    -0x10c0(%rbp),%rdx
   14b1b:	66 89 10             	mov    %dx,(%rax)
   14b1e:	0f b7 00             	movzwl (%rax),%eax
   14b21:	98                   	cwtl   
   14b22:	be 0f 00 00 00       	mov    $0xf,%esi
   14b27:	89 c7                	mov    %eax,%edi
   14b29:	e8 64 79 ff ff       	callq  c492 <safe_lshift_func_int16_t_s_s>
   14b2e:	98                   	cwtl   
   14b2f:	41 39 c6             	cmp    %eax,%r14d
   14b32:	0f 95 c0             	setne  %al
   14b35:	0f b6 c0             	movzbl %al,%eax
   14b38:	48 89 85 38 ef ff ff 	mov    %rax,-0x10c8(%rbp)
   14b3f:	48 83 bd 38 ef ff ff 	cmpq   $0x0,-0x10c8(%rbp)
   14b46:	00 
   14b47:	75 0c                	jne    14b55 <func_18+0x17a2>
   14b49:	48 8b 85 48 ef ff ff 	mov    -0x10b8(%rbp),%rax
   14b50:	48 85 c0             	test   %rax,%rax
   14b53:	74 07                	je     14b5c <func_18+0x17a9>
   14b55:	b8 01 00 00 00       	mov    $0x1,%eax
   14b5a:	eb 05                	jmp    14b61 <func_18+0x17ae>
   14b5c:	b8 00 00 00 00       	mov    $0x0,%eax
   14b61:	44 89 ea             	mov    %r13d,%edx
   14b64:	31 c2                	xor    %eax,%edx
   14b66:	8b 85 2c ef ff ff    	mov    -0x10d4(%rbp),%eax
   14b6c:	31 d0                	xor    %edx,%eax
   14b6e:	83 f0 09             	xor    $0x9,%eax
   14b71:	89 c2                	mov    %eax,%edx
   14b73:	48 8b 85 78 f0 ff ff 	mov    -0xf88(%rbp),%rax
   14b7a:	89 10                	mov    %edx,(%rax)
   14b7c:	8b 00                	mov    (%rax),%eax
   14b7e:	3d 8e 73 00 00       	cmp    $0x738e,%eax
   14b83:	0f 9e c0             	setle  %al
   14b86:	0f b6 c0             	movzbl %al,%eax
   14b89:	be 00 00 00 00       	mov    $0x0,%esi
   14b8e:	89 c7                	mov    %eax,%edi
   14b90:	e8 23 83 ff ff       	callq  ceb8 <safe_add_func_uint32_t_u_u>
   14b95:	85 c0                	test   %eax,%eax
   14b97:	74 08                	je     14ba1 <func_18+0x17ee>
   14b99:	8b 05 19 16 01 00    	mov    0x11619(%rip),%eax        # 261b8 <g_211+0x38>
   14b9f:	85 c0                	test   %eax,%eax
   14ba1:	8b 85 9c f4 ff ff    	mov    -0xb64(%rbp),%eax
   14ba7:	44 89 fe             	mov    %r15d,%esi
   14baa:	89 c7                	mov    %eax,%edi
   14bac:	e8 07 83 ff ff       	callq  ceb8 <safe_add_func_uint32_t_u_u>
   14bb1:	8b 95 2c ef ff ff    	mov    -0x10d4(%rbp),%edx
   14bb7:	39 d0                	cmp    %edx,%eax
   14bb9:	0f 97 c0             	seta   %al
   14bbc:	0f b6 c0             	movzbl %al,%eax
   14bbf:	44 89 e6             	mov    %r12d,%esi
   14bc2:	89 c7                	mov    %eax,%edi
   14bc4:	e8 a1 76 ff ff       	callq  c26a <safe_div_func_int8_t_s_s>
   14bc9:	48 8d 85 80 f0 ff ff 	lea    -0xf80(%rbp),%rax
   14bd0:	48 39 85 a0 f1 ff ff 	cmp    %rax,-0xe60(%rbp)
   14bd7:	0f 94 c0             	sete   %al
   14bda:	0f b6 c0             	movzbl %al,%eax
   14bdd:	89 de                	mov    %ebx,%esi
   14bdf:	89 c7                	mov    %eax,%edi
   14be1:	e8 0c 76 ff ff       	callq  c1f2 <safe_sub_func_int8_t_s_s>
   14be6:	48 8b 85 40 ef ff ff 	mov    -0x10c0(%rbp),%rax
   14bed:	0f bf d0             	movswl %ax,%edx
   14bf0:	48 8b 05 41 32 01 00 	mov    0x13241(%rip),%rax        # 27e38 <g_480>
   14bf7:	48 8b 00             	mov    (%rax),%rax
   14bfa:	0f b7 00             	movzwl (%rax),%eax
   14bfd:	98                   	cwtl   
   14bfe:	89 d6                	mov    %edx,%esi
   14c00:	89 c7                	mov    %eax,%edi
   14c02:	e8 4e 78 ff ff       	callq  c455 <safe_div_func_int16_t_s_s>
   14c07:	98                   	cwtl   
   14c08:	be 05 00 00 00       	mov    $0x5,%esi
   14c0d:	89 c7                	mov    %eax,%edi
   14c0f:	e8 11 83 ff ff       	callq  cf25 <safe_div_func_uint32_t_u_u>
   14c14:	85 c0                	test   %eax,%eax
   14c16:	0f 84 43 02 00 00    	je     14e5f <func_18+0x1aac>
   14c1c:	48 8d 05 0b 16 01 00 	lea    0x1160b(%rip),%rax        # 2622e <g_287>
   14c23:	48 89 85 a0 f2 ff ff 	mov    %rax,-0xd60(%rbp)
   14c2a:	48 8d 05 ef 16 01 00 	lea    0x116ef(%rip),%rax        # 26320 <g_2089+0x20>
   14c31:	48 89 85 10 f1 ff ff 	mov    %rax,-0xef0(%rbp)
   14c38:	48 8d 85 10 f1 ff ff 	lea    -0xef0(%rbp),%rax
   14c3f:	48 89 85 18 f1 ff ff 	mov    %rax,-0xee8(%rbp)
   14c46:	48 8d 85 18 f1 ff ff 	lea    -0xee8(%rbp),%rax
   14c4d:	48 89 85 a8 f2 ff ff 	mov    %rax,-0xd58(%rbp)
   14c54:	c7 85 20 f0 ff ff e1 	movl   $0x16e978e1,-0xfe0(%rbp)
   14c5b:	78 e9 16 
   14c5e:	66 c7 85 7e ef ff ff 	movw   $0xfff9,-0x1082(%rbp)
   14c65:	f9 ff 
   14c67:	48 8b 85 a8 f2 ff ff 	mov    -0xd58(%rbp),%rax
   14c6e:	48 c7 00 00 00 00 00 	movq   $0x0,(%rax)
   14c75:	48 8b 85 a8 f2 ff ff 	mov    -0xd58(%rbp),%rax
   14c7c:	48 8b 00             	mov    (%rax),%rax
   14c7f:	48 85 c0             	test   %rax,%rax
   14c82:	41 0f 94 c5          	sete   %r13b
   14c86:	8b 95 98 f4 ff ff    	mov    -0xb68(%rbp),%edx
   14c8c:	8b 85 9c f4 ff ff    	mov    -0xb64(%rbp),%eax
   14c92:	39 c2                	cmp    %eax,%edx
   14c94:	0f 94 c0             	sete   %al
   14c97:	44 0f b6 e0          	movzbl %al,%r12d
   14c9b:	48 83 bd 30 ef ff ff 	cmpq   $0x1,-0x10d0(%rbp)
   14ca2:	01 
   14ca3:	41 0f 9f c6          	setg   %r14b
   14ca7:	48 8b 85 30 ef ff ff 	mov    -0x10d0(%rbp),%rax
   14cae:	0f bf d8             	movswl %ax,%ebx
   14cb1:	48 8b 85 40 ef ff ff 	mov    -0x10c0(%rbp),%rax
   14cb8:	0f be d0             	movsbl %al,%edx
   14cbb:	8b 85 9c f4 ff ff    	mov    -0xb64(%rbp),%eax
   14cc1:	0f be c0             	movsbl %al,%eax
   14cc4:	89 d6                	mov    %edx,%esi
   14cc6:	89 c7                	mov    %eax,%edi
   14cc8:	e8 64 75 ff ff       	callq  c231 <safe_mod_func_int8_t_s_s>
   14ccd:	48 0f be c0          	movsbq %al,%rax
   14cd1:	48 39 85 38 ef ff ff 	cmp    %rax,-0x10c8(%rbp)
   14cd8:	0f 95 c0             	setne  %al
   14cdb:	0f b6 c0             	movzbl %al,%eax
   14cde:	48 8b 95 30 ef ff ff 	mov    -0x10d0(%rbp),%rdx
   14ce5:	31 d0                	xor    %edx,%eax
   14ce7:	98                   	cwtl   
   14ce8:	89 de                	mov    %ebx,%esi
   14cea:	89 c7                	mov    %eax,%edi
   14cec:	e8 64 77 ff ff       	callq  c455 <safe_div_func_int16_t_s_s>
   14cf1:	66 85 c0             	test   %ax,%ax
   14cf4:	0f 94 c0             	sete   %al
   14cf7:	44 09 f0             	or     %r14d,%eax
   14cfa:	0f b6 c0             	movzbl %al,%eax
   14cfd:	8b 95 d4 ef ff ff    	mov    -0x102c(%rbp),%edx
   14d03:	89 d6                	mov    %edx,%esi
   14d05:	89 c7                	mov    %eax,%edi
   14d07:	e8 ac 81 ff ff       	callq  ceb8 <safe_add_func_uint32_t_u_u>
   14d0c:	44 31 e0             	xor    %r12d,%eax
   14d0f:	89 c2                	mov    %eax,%edx
   14d11:	8b 85 20 f0 ff ff    	mov    -0xfe0(%rbp),%eax
   14d17:	48 98                	cltq   
   14d19:	48 89 d6             	mov    %rdx,%rsi
   14d1c:	48 89 c7             	mov    %rax,%rdi
   14d1f:	e8 90 7c ff ff       	callq  c9b4 <safe_mod_func_int64_t_s_s>
   14d24:	48 85 c0             	test   %rax,%rax
   14d27:	75 0d                	jne    14d36 <func_18+0x1983>
   14d29:	48 8b 85 78 f0 ff ff 	mov    -0xf88(%rbp),%rax
   14d30:	8b 00                	mov    (%rax),%eax
   14d32:	85 c0                	test   %eax,%eax
   14d34:	74 07                	je     14d3d <func_18+0x198a>
   14d36:	b8 01 00 00 00       	mov    $0x1,%eax
   14d3b:	eb 05                	jmp    14d42 <func_18+0x198f>
   14d3d:	b8 00 00 00 00       	mov    $0x0,%eax
   14d42:	0f b7 c0             	movzwl %ax,%eax
   14d45:	be 0a 00 00 00       	mov    $0xa,%esi
   14d4a:	89 c7                	mov    %eax,%edi
   14d4c:	e8 6d 80 ff ff       	callq  cdbe <safe_lshift_func_uint16_t_u_s>
   14d51:	66 85 c0             	test   %ax,%ax
   14d54:	74 11                	je     14d67 <func_18+0x19b4>
   14d56:	8b 85 9c f4 ff ff    	mov    -0xb64(%rbp),%eax
   14d5c:	85 c0                	test   %eax,%eax
   14d5e:	74 07                	je     14d67 <func_18+0x19b4>
   14d60:	b8 01 00 00 00       	mov    $0x1,%eax
   14d65:	eb 05                	jmp    14d6c <func_18+0x19b9>
   14d67:	b8 00 00 00 00       	mov    $0x0,%eax
   14d6c:	83 e0 01             	and    $0x1,%eax
   14d6f:	44 31 e8             	xor    %r13d,%eax
   14d72:	0f b6 c0             	movzbl %al,%eax
   14d75:	be bf ff ff ff       	mov    $0xffffffbf,%esi
   14d7a:	89 c7                	mov    %eax,%edi
   14d7c:	e8 71 74 ff ff       	callq  c1f2 <safe_sub_func_int8_t_s_s>
   14d81:	48 8b 85 a0 f2 ff ff 	mov    -0xd60(%rbp),%rax
   14d88:	66 c7 00 6e d5       	movw   $0xd56e,(%rax)
   14d8d:	be ff ff 00 00       	mov    $0xffff,%esi
   14d92:	bf 6e d5 00 00       	mov    $0xd56e,%edi
   14d97:	e8 f2 7f ff ff       	callq  cd8e <safe_div_func_uint16_t_u_u>
   14d9c:	8b 95 b4 f4 ff ff    	mov    -0xb4c(%rbp),%edx
   14da2:	0f b7 c0             	movzwl %ax,%eax
   14da5:	21 d0                	and    %edx,%eax
   14da7:	89 85 b4 f4 ff ff    	mov    %eax,-0xb4c(%rbp)
   14dad:	8b 85 b4 f4 ff ff    	mov    -0xb4c(%rbp),%eax
   14db3:	85 c0                	test   %eax,%eax
   14db5:	75 0c                	jne    14dc3 <func_18+0x1a10>
   14db7:	48 8b 85 f8 f6 ff ff 	mov    -0x908(%rbp),%rax
   14dbe:	48 85 c0             	test   %rax,%rax
   14dc1:	74 07                	je     14dca <func_18+0x1a17>
   14dc3:	b8 01 00 00 00       	mov    $0x1,%eax
   14dc8:	eb 05                	jmp    14dcf <func_18+0x1a1c>
   14dca:	b8 00 00 00 00       	mov    $0x0,%eax
   14dcf:	89 85 9c f4 ff ff    	mov    %eax,-0xb64(%rbp)
   14dd5:	66 c7 85 6e ef ff ff 	movw   $0x1,-0x1092(%rbp)
   14ddc:	01 00 
   14dde:	eb 5c                	jmp    14e3c <func_18+0x1a89>
   14de0:	48 8d 85 84 ef ff ff 	lea    -0x107c(%rbp),%rax
   14de7:	48 89 85 28 f1 ff ff 	mov    %rax,-0xed8(%rbp)
   14dee:	0f bf 85 6e ef ff ff 	movswl -0x1092(%rbp),%eax
   14df5:	48 98                	cltq   
   14df7:	48 8d 14 c5 00 00 00 	lea    0x0(,%rax,8),%rdx
   14dfe:	00 
   14dff:	48 8d 05 fa 14 01 00 	lea    0x114fa(%rip),%rax        # 26300 <g_2089>
   14e06:	48 8b 14 02          	mov    (%rdx,%rax,1),%rdx
   14e0a:	48 8b 85 38 ef ff ff 	mov    -0x10c8(%rbp),%rax
   14e11:	48 39 c2             	cmp    %rax,%rdx
   14e14:	0f 95 c2             	setne  %dl
   14e17:	48 8b 85 78 f0 ff ff 	mov    -0xf88(%rbp),%rax
   14e1e:	0f b6 d2             	movzbl %dl,%edx
   14e21:	89 10                	mov    %edx,(%rax)
   14e23:	66 83 bd 7e ef ff ff 	cmpw   $0x0,-0x1082(%rbp)
   14e2a:	00 
   14e2b:	0f b7 85 6e ef ff ff 	movzwl -0x1092(%rbp),%eax
   14e32:	83 c0 01             	add    $0x1,%eax
   14e35:	66 89 85 6e ef ff ff 	mov    %ax,-0x1092(%rbp)
   14e3c:	66 83 bd 6e ef ff ff 	cmpw   $0x5,-0x1092(%rbp)
   14e43:	05 
   14e44:	7e 9a                	jle    14de0 <func_18+0x1a2d>
   14e46:	48 8b 05 6b 3d 01 00 	mov    0x13d6b(%rip),%rax        # 28bb8 <g_1936>
   14e4d:	48 8b 00             	mov    (%rax),%rax
   14e50:	48 8d 95 98 f4 ff ff 	lea    -0xb68(%rbp),%rdx
   14e57:	48 89 10             	mov    %rdx,(%rax)
   14e5a:	e9 87 03 00 00       	jmpq   151e6 <func_18+0x1e33>
   14e5f:	c6 85 66 ef ff ff f5 	movb   $0xf5,-0x109a(%rbp)
   14e66:	48 c7 85 60 f2 ff ff 	movq   $0x0,-0xda0(%rbp)
   14e6d:	00 00 00 00 
   14e71:	c7 85 18 f1 ff ff f9 	movl   $0xfffffff9,-0xee8(%rbp)
   14e78:	ff ff ff 
   14e7b:	c7 85 18 f0 ff ff 01 	movl   $0x1,-0xfe8(%rbp)
   14e82:	00 00 00 
   14e85:	c7 85 1c f0 ff ff fa 	movl   $0xfffffffa,-0xfe4(%rbp)
   14e8c:	ff ff ff 
   14e8f:	c7 85 c0 ef ff ff 00 	movl   $0x0,-0x1040(%rbp)
   14e96:	00 00 00 
   14e99:	eb 1a                	jmp    14eb5 <func_18+0x1b02>
   14e9b:	8b 85 c0 ef ff ff    	mov    -0x1040(%rbp),%eax
   14ea1:	48 98                	cltq   
   14ea3:	c7 84 85 c0 f9 ff ff 	movl   $0x0,-0x640(%rbp,%rax,4)
   14eaa:	00 00 00 00 
   14eae:	83 85 c0 ef ff ff 01 	addl   $0x1,-0x1040(%rbp)
   14eb5:	83 bd c0 ef ff ff 05 	cmpl   $0x5,-0x1040(%rbp)
   14ebc:	7e dd                	jle    14e9b <func_18+0x1ae8>
   14ebe:	0f b6 85 5c ef ff ff 	movzbl -0x10a4(%rbp),%eax
   14ec5:	0f be d8             	movsbl %al,%ebx
   14ec8:	48 8b 05 71 2f 01 00 	mov    0x12f71(%rip),%rax        # 27e40 <g_479>
   14ecf:	48 8b 00             	mov    (%rax),%rax
   14ed2:	48 8b 00             	mov    (%rax),%rax
   14ed5:	0f b7 00             	movzwl (%rax),%eax
   14ed8:	44 0f bf e0          	movswl %ax,%r12d
   14edc:	44 8b ad 2c ef ff ff 	mov    -0x10d4(%rbp),%r13d
   14ee3:	48 8b 85 b0 f6 ff ff 	mov    -0x950(%rbp),%rax
   14eea:	44 0f bf f0          	movswl %ax,%r14d
   14eee:	8b 85 2c ef ff ff    	mov    -0x10d4(%rbp),%eax
   14ef4:	44 0f b6 f8          	movzbl %al,%r15d
   14ef8:	0f be 85 66 ef ff ff 	movsbl -0x109a(%rbp),%eax
   14eff:	89 85 20 ef ff ff    	mov    %eax,-0x10e0(%rbp)
   14f05:	48 0f bf 8d 74 ef ff 	movswq -0x108c(%rbp),%rcx
   14f0c:	ff 
   14f0d:	48 89 8d 18 ef ff ff 	mov    %rcx,-0x10e8(%rbp)
   14f14:	48 8b 85 48 ef ff ff 	mov    -0x10b8(%rbp),%rax
   14f1b:	0f bf f8             	movswl %ax,%edi
   14f1e:	89 bd 28 ef ff ff    	mov    %edi,-0x10d8(%rbp)
   14f24:	48 8b 85 28 f1 ff ff 	mov    -0xed8(%rbp),%rax
   14f2b:	8b 10                	mov    (%rax),%edx
   14f2d:	0f be 85 66 ef ff ff 	movsbl -0x109a(%rbp),%eax
   14f34:	89 d6                	mov    %edx,%esi
   14f36:	89 c7                	mov    %eax,%edi
   14f38:	e8 ed 75 ff ff       	callq  c52a <safe_rshift_func_int16_t_s_s>
   14f3d:	98                   	cwtl   
   14f3e:	89 c7                	mov    %eax,%edi
   14f40:	e8 58 74 ff ff       	callq  c39d <safe_unary_minus_func_int16_t_s>
   14f45:	66 85 c0             	test   %ax,%ax
   14f48:	8b b5 28 ef ff ff    	mov    -0x10d8(%rbp),%esi
   14f4e:	bf 00 00 00 00       	mov    $0x0,%edi
   14f53:	e8 fd 74 ff ff       	callq  c455 <safe_div_func_int16_t_s_s>
   14f58:	66 83 f8 f8          	cmp    $0xfff8,%ax
   14f5c:	0f 9c c0             	setl   %al
   14f5f:	0f b6 c0             	movzbl %al,%eax
   14f62:	48 8b b5 18 ef ff ff 	mov    -0x10e8(%rbp),%rsi
   14f69:	48 89 c7             	mov    %rax,%rdi
   14f6c:	e8 86 7a ff ff       	callq  c9f7 <safe_div_func_int64_t_s_s>
   14f71:	48 8b 95 78 f0 ff ff 	mov    -0xf88(%rbp),%rdx
   14f78:	8b 12                	mov    (%rdx),%edx
   14f7a:	89 c1                	mov    %eax,%ecx
   14f7c:	48 8b 85 78 f0 ff ff 	mov    -0xf88(%rbp),%rax
   14f83:	09 ca                	or     %ecx,%edx
   14f85:	89 10                	mov    %edx,(%rax)
   14f87:	8b 00                	mov    (%rax),%eax
   14f89:	0f bf d0             	movswl %ax,%edx
   14f8c:	0f be 85 66 ef ff ff 	movsbl -0x109a(%rbp),%eax
   14f93:	89 d6                	mov    %edx,%esi
   14f95:	89 c7                	mov    %eax,%edi
   14f97:	e8 17 74 ff ff       	callq  c3b3 <safe_add_func_int16_t_s_s>
   14f9c:	48 8b 05 85 2e 01 00 	mov    0x12e85(%rip),%rax        # 27e28 <g_433>
   14fa3:	8b 10                	mov    (%rax),%edx
   14fa5:	8d 4a ff             	lea    -0x1(%rdx),%ecx
   14fa8:	89 08                	mov    %ecx,(%rax)
   14faa:	48 83 bd 30 ef ff ff 	cmpq   $0x4,-0x10d0(%rbp)
   14fb1:	04 
   14fb2:	0f 9f c0             	setg   %al
   14fb5:	0f b6 c0             	movzbl %al,%eax
   14fb8:	39 c2                	cmp    %eax,%edx
   14fba:	0f 95 c0             	setne  %al
   14fbd:	0f b6 c0             	movzbl %al,%eax
   14fc0:	8b 95 2c ef ff ff    	mov    -0x10d4(%rbp),%edx
   14fc6:	89 d6                	mov    %edx,%esi
   14fc8:	89 c7                	mov    %eax,%edi
   14fca:	e8 36 7c ff ff       	callq  cc05 <safe_lshift_func_uint8_t_u_s>
   14fcf:	0f b6 c0             	movzbl %al,%eax
   14fd2:	8b b5 20 ef ff ff    	mov    -0x10e0(%rbp),%esi
   14fd8:	89 c7                	mov    %eax,%edi
   14fda:	e8 46 7f ff ff       	callq  cf25 <safe_div_func_uint32_t_u_u>
   14fdf:	89 c2                	mov    %eax,%edx
   14fe1:	8b 85 2c ef ff ff    	mov    -0x10d4(%rbp),%eax
   14fe7:	31 d0                	xor    %edx,%eax
   14fe9:	0f b6 c0             	movzbl %al,%eax
   14fec:	44 89 fe             	mov    %r15d,%esi
   14fef:	89 c7                	mov    %eax,%edi
   14ff1:	e8 82 7b ff ff       	callq  cb78 <safe_sub_func_uint8_t_u_u>
   14ff6:	0f b6 c0             	movzbl %al,%eax
   14ff9:	44 89 f6             	mov    %r14d,%esi
   14ffc:	89 c7                	mov    %eax,%edi
   14ffe:	e8 b0 73 ff ff       	callq  c3b3 <safe_add_func_int16_t_s_s>
   15003:	0f bf d0             	movswl %ax,%edx
   15006:	8b 85 2c ef ff ff    	mov    -0x10d4(%rbp),%eax
   1500c:	98                   	cwtl   
   1500d:	89 d6                	mov    %edx,%esi
   1500f:	89 c7                	mov    %eax,%edi
   15011:	e8 00 74 ff ff       	callq  c416 <safe_mod_func_int16_t_s_s>
   15016:	98                   	cwtl   
   15017:	44 89 ee             	mov    %r13d,%esi
   1501a:	89 c7                	mov    %eax,%edi
   1501c:	e8 04 7f ff ff       	callq  cf25 <safe_div_func_uint32_t_u_u>
   15021:	89 c0                	mov    %eax,%eax
   15023:	48 39 85 30 ef ff ff 	cmp    %rax,-0x10d0(%rbp)
   1502a:	0f 95 c0             	setne  %al
   1502d:	0f b6 c0             	movzbl %al,%eax
   15030:	44 89 e6             	mov    %r12d,%esi
   15033:	89 c7                	mov    %eax,%edi
   15035:	e8 79 73 ff ff       	callq  c3b3 <safe_add_func_int16_t_s_s>
   1503a:	0f b6 c0             	movzbl %al,%eax
   1503d:	89 de                	mov    %ebx,%esi
   1503f:	89 c7                	mov    %eax,%edi
   15041:	e8 47 7c ff ff       	callq  cc8d <safe_rshift_func_uint8_t_u_s>
   15046:	0f b6 c0             	movzbl %al,%eax
   15049:	be fa ff ff ff       	mov    $0xfffffffa,%esi
   1504e:	89 c7                	mov    %eax,%edi
   15050:	e8 7b 7e ff ff       	callq  ced0 <safe_sub_func_uint32_t_u_u>
   15055:	8b 95 18 f1 ff ff    	mov    -0xee8(%rbp),%edx
   1505b:	21 d0                	and    %edx,%eax
   1505d:	89 85 18 f1 ff ff    	mov    %eax,-0xee8(%rbp)
   15063:	48 8b 85 30 ef ff ff 	mov    -0x10d0(%rbp),%rax
   1506a:	0f be d8             	movsbl %al,%ebx
   1506d:	0f bf 95 6e ef ff ff 	movswl -0x1092(%rbp),%edx
   15074:	48 8b 85 28 f1 ff ff 	mov    -0xed8(%rbp),%rax
   1507b:	8b 00                	mov    (%rax),%eax
   1507d:	98                   	cwtl   
   1507e:	89 d6                	mov    %edx,%esi
   15080:	89 c7                	mov    %eax,%edi
   15082:	e8 4c 73 ff ff       	callq  c3d3 <safe_sub_func_int16_t_s_s>
   15087:	0f bf d0             	movswl %ax,%edx
   1508a:	48 8b 85 78 f0 ff ff 	mov    -0xf88(%rbp),%rax
   15091:	8b 00                	mov    (%rax),%eax
   15093:	21 d0                	and    %edx,%eax
   15095:	85 c0                	test   %eax,%eax
   15097:	74 13                	je     150ac <func_18+0x1cf9>
   15099:	48 8b 85 48 ef ff ff 	mov    -0x10b8(%rbp),%rax
   150a0:	48 85 c0             	test   %rax,%rax
   150a3:	74 07                	je     150ac <func_18+0x1cf9>
   150a5:	ba 01 00 00 00       	mov    $0x1,%edx
   150aa:	eb 05                	jmp    150b1 <func_18+0x1cfe>
   150ac:	ba 00 00 00 00       	mov    $0x0,%edx
   150b1:	48 8b 85 28 f1 ff ff 	mov    -0xed8(%rbp),%rax
   150b8:	8b 00                	mov    (%rax),%eax
   150ba:	31 c2                	xor    %eax,%edx
   150bc:	48 8d 05 85 2d 01 00 	lea    0x12d85(%rip),%rax        # 27e48 <g_489>
   150c3:	48 8b 00             	mov    (%rax),%rax
   150c6:	48 8b 00             	mov    (%rax),%rax
   150c9:	83 e2 fd             	and    $0xfffffffd,%edx
   150cc:	89 10                	mov    %edx,(%rax)
   150ce:	89 de                	mov    %ebx,%esi
   150d0:	bf 65 00 00 00       	mov    $0x65,%edi
   150d5:	e8 38 71 ff ff       	callq  c212 <safe_mul_func_int8_t_s_s>
   150da:	0f b6 d8             	movzbl %al,%ebx
   150dd:	48 8d 05 3c 11 01 00 	lea    0x1113c(%rip),%rax        # 26220 <g_266+0x10>
   150e4:	48 39 85 58 f2 ff ff 	cmp    %rax,-0xda8(%rbp)
   150eb:	0f 94 c0             	sete   %al
   150ee:	0f b6 c0             	movzbl %al,%eax
   150f1:	be 01 00 00 00       	mov    $0x1,%esi
   150f6:	89 c7                	mov    %eax,%edi
   150f8:	e8 bb 7d ff ff       	callq  ceb8 <safe_add_func_uint32_t_u_u>
   150fd:	89 c2                	mov    %eax,%edx
   150ff:	48 8b 85 c8 f0 ff ff 	mov    -0xf38(%rbp),%rax
   15106:	48 8b 00             	mov    (%rax),%rax
   15109:	88 10                	mov    %dl,(%rax)
   1510b:	0f b6 00             	movzbl (%rax),%eax
   1510e:	0f b6 c0             	movzbl %al,%eax
   15111:	89 de                	mov    %ebx,%esi
   15113:	89 c7                	mov    %eax,%edi
   15115:	e8 c1 7a ff ff       	callq  cbdb <safe_div_func_uint8_t_u_u>
   1511a:	0f b6 d0             	movzbl %al,%edx
   1511d:	0f bf 85 6e ef ff ff 	movswl -0x1092(%rbp),%eax
   15124:	39 c2                	cmp    %eax,%edx
   15126:	7f 22                	jg     1514a <func_18+0x1d97>
   15128:	48 8d 05 31 10 01 00 	lea    0x11031(%rip),%rax        # 26160 <g_133>
   1512f:	48 89 85 98 f2 ff ff 	mov    %rax,-0xd68(%rbp)
   15136:	8b 05 f4 11 01 00    	mov    0x111f4(%rip),%eax        # 26330 <g_2156>
   1513c:	83 c0 01             	add    $0x1,%eax
   1513f:	89 05 eb 11 01 00    	mov    %eax,0x111eb(%rip)        # 26330 <g_2156>
   15145:	e9 9c 00 00 00       	jmpq   151e6 <func_18+0x1e33>
   1514a:	48 8d 85 98 f4 ff ff 	lea    -0xb68(%rbp),%rax
   15151:	48 89 85 68 f2 ff ff 	mov    %rax,-0xd98(%rbp)
   15158:	48 8d 85 98 f4 ff ff 	lea    -0xb68(%rbp),%rax
   1515f:	48 89 85 70 f2 ff ff 	mov    %rax,-0xd90(%rbp)
   15166:	48 8d 05 6f 11 01 00 	lea    0x1116f(%rip),%rax        # 262dc <g_1943>
   1516d:	48 89 85 78 f2 ff ff 	mov    %rax,-0xd88(%rbp)
   15174:	48 c7 85 80 f2 ff ff 	movq   $0x0,-0xd80(%rbp)
   1517b:	00 00 00 00 
   1517f:	48 8d 85 18 f1 ff ff 	lea    -0xee8(%rbp),%rax
   15186:	48 89 85 88 f2 ff ff 	mov    %rax,-0xd78(%rbp)
   1518d:	48 8d 85 b0 f4 ff ff 	lea    -0xb50(%rbp),%rax
   15194:	48 83 c0 04          	add    $0x4,%rax
   15198:	48 89 85 90 f2 ff ff 	mov    %rax,-0xd70(%rbp)
   1519f:	c7 85 c4 ef ff ff 00 	movl   $0x0,-0x103c(%rbp)
   151a6:	00 00 00 
   151a9:	eb 22                	jmp    151cd <func_18+0x1e1a>
   151ab:	8b 85 c4 ef ff ff    	mov    -0x103c(%rbp),%eax
   151b1:	48 98                	cltq   
   151b3:	48 8d 95 b0 f4 ff ff 	lea    -0xb50(%rbp),%rdx
   151ba:	48 83 c2 04          	add    $0x4,%rdx
   151be:	48 89 94 c5 60 f6 ff 	mov    %rdx,-0x9a0(%rbp,%rax,8)
   151c5:	ff 
   151c6:	83 85 c4 ef ff ff 01 	addl   $0x1,-0x103c(%rbp)
   151cd:	83 bd c4 ef ff ff 00 	cmpl   $0x0,-0x103c(%rbp)
   151d4:	7e d5                	jle    151ab <func_18+0x1df8>
   151d6:	0f b6 05 57 11 01 00 	movzbl 0x11157(%rip),%eax        # 26334 <g_2178>
   151dd:	83 c0 01             	add    $0x1,%eax
   151e0:	88 05 4e 11 01 00    	mov    %al,0x1114e(%rip)        # 26334 <g_2178>
   151e6:	48 83 bd 38 ef ff ff 	cmpq   $0x0,-0x10c8(%rbp)
   151ed:	00 
   151ee:	0f 84 df 04 00 00    	je     156d3 <func_18+0x2320>
   151f4:	c7 85 18 f1 ff ff 81 	movl   $0xf1082881,-0xee8(%rbp)
   151fb:	28 08 f1 
   151fe:	c7 85 28 f0 ff ff c6 	movl   $0x638e63c6,-0xfd8(%rbp)
   15205:	63 8e 63 
   15208:	48 8d 05 51 0f 01 00 	lea    0x10f51(%rip),%rax        # 26160 <g_133>
   1520f:	48 89 85 b8 f2 ff ff 	mov    %rax,-0xd48(%rbp)
   15216:	48 8d 05 43 0f 01 00 	lea    0x10f43(%rip),%rax        # 26160 <g_133>
   1521d:	48 89 85 c0 f2 ff ff 	mov    %rax,-0xd40(%rbp)
   15224:	48 8d 05 35 0f 01 00 	lea    0x10f35(%rip),%rax        # 26160 <g_133>
   1522b:	48 89 85 c8 f2 ff ff 	mov    %rax,-0xd38(%rbp)
   15232:	48 8d 85 84 ef ff ff 	lea    -0x107c(%rbp),%rax
   15239:	48 89 85 d0 f2 ff ff 	mov    %rax,-0xd30(%rbp)
   15240:	48 c7 85 d8 f2 ff ff 	movq   $0x0,-0xd28(%rbp)
   15247:	00 00 00 00 
   1524b:	48 8d 85 b0 f4 ff ff 	lea    -0xb50(%rbp),%rax
   15252:	48 83 c0 04          	add    $0x4,%rax
   15256:	48 89 85 e0 f2 ff ff 	mov    %rax,-0xd20(%rbp)
   1525d:	48 8d 85 98 ef ff ff 	lea    -0x1068(%rbp),%rax
   15264:	48 89 85 e8 f2 ff ff 	mov    %rax,-0xd18(%rbp)
   1526b:	48 8d 85 b0 f4 ff ff 	lea    -0xb50(%rbp),%rax
   15272:	48 83 c0 04          	add    $0x4,%rax
   15276:	48 89 85 f0 f2 ff ff 	mov    %rax,-0xd10(%rbp)
   1527d:	48 8d 85 88 ef ff ff 	lea    -0x1078(%rbp),%rax
   15284:	48 89 85 f8 f2 ff ff 	mov    %rax,-0xd08(%rbp)
   1528b:	48 8d 85 90 ef ff ff 	lea    -0x1070(%rbp),%rax
   15292:	48 89 85 00 f3 ff ff 	mov    %rax,-0xd00(%rbp)
   15299:	48 8d 05 3c 10 01 00 	lea    0x1103c(%rip),%rax        # 262dc <g_1943>
   152a0:	48 89 85 08 f3 ff ff 	mov    %rax,-0xcf8(%rbp)
   152a7:	48 8d 85 18 f1 ff ff 	lea    -0xee8(%rbp),%rax
   152ae:	48 89 85 10 f3 ff ff 	mov    %rax,-0xcf0(%rbp)
   152b5:	48 8d 05 8c 0f 01 00 	lea    0x10f8c(%rip),%rax        # 26248 <g_397>
   152bc:	48 89 85 18 f3 ff ff 	mov    %rax,-0xce8(%rbp)
   152c3:	48 8d 85 8c ef ff ff 	lea    -0x1074(%rbp),%rax
   152ca:	48 89 85 20 f3 ff ff 	mov    %rax,-0xce0(%rbp)
   152d1:	48 8d 05 04 10 01 00 	lea    0x11004(%rip),%rax        # 262dc <g_1943>
   152d8:	48 89 85 c0 f9 ff ff 	mov    %rax,-0x640(%rbp)
   152df:	48 8d 05 f6 0f 01 00 	lea    0x10ff6(%rip),%rax        # 262dc <g_1943>
   152e6:	48 89 85 c8 f9 ff ff 	mov    %rax,-0x638(%rbp)
   152ed:	48 8d 05 e8 0f 01 00 	lea    0x10fe8(%rip),%rax        # 262dc <g_1943>
   152f4:	48 89 85 d0 f9 ff ff 	mov    %rax,-0x630(%rbp)
   152fb:	48 8d 05 da 0f 01 00 	lea    0x10fda(%rip),%rax        # 262dc <g_1943>
   15302:	48 89 85 d8 f9 ff ff 	mov    %rax,-0x628(%rbp)
   15309:	48 8d 05 cc 0f 01 00 	lea    0x10fcc(%rip),%rax        # 262dc <g_1943>
   15310:	48 89 85 e0 f9 ff ff 	mov    %rax,-0x620(%rbp)
   15317:	48 8d 05 be 0f 01 00 	lea    0x10fbe(%rip),%rax        # 262dc <g_1943>
   1531e:	48 89 85 e8 f9 ff ff 	mov    %rax,-0x618(%rbp)
   15325:	48 8d 05 b0 0f 01 00 	lea    0x10fb0(%rip),%rax        # 262dc <g_1943>
   1532c:	48 89 85 f0 f9 ff ff 	mov    %rax,-0x610(%rbp)
   15333:	48 8d 05 a2 0f 01 00 	lea    0x10fa2(%rip),%rax        # 262dc <g_1943>
   1533a:	48 89 85 f8 f9 ff ff 	mov    %rax,-0x608(%rbp)
   15341:	48 8d 05 94 0f 01 00 	lea    0x10f94(%rip),%rax        # 262dc <g_1943>
   15348:	48 89 85 00 fa ff ff 	mov    %rax,-0x600(%rbp)
   1534f:	48 8d 05 86 0f 01 00 	lea    0x10f86(%rip),%rax        # 262dc <g_1943>
   15356:	48 89 85 08 fa ff ff 	mov    %rax,-0x5f8(%rbp)
   1535d:	48 8b 85 28 f1 ff ff 	mov    -0xed8(%rbp),%rax
   15364:	8b 00                	mov    (%rax),%eax
   15366:	48 8b 95 30 f1 ff ff 	mov    -0xed0(%rbp),%rdx
   1536d:	21 c2                	and    %eax,%edx
   1536f:	48 8b 85 28 f1 ff ff 	mov    -0xed8(%rbp),%rax
   15376:	89 10                	mov    %edx,(%rax)
   15378:	0f b6 85 5e ef ff ff 	movzbl -0x10a2(%rbp),%eax
   1537f:	83 c0 01             	add    $0x1,%eax
   15382:	88 85 5e ef ff ff    	mov    %al,-0x10a2(%rbp)
   15388:	c7 05 f6 5a 01 00 00 	movl   $0x0,0x15af6(%rip)        # 2ae88 <g_421>
   1538f:	00 00 00 
   15392:	e9 16 03 00 00       	jmpq   156ad <func_18+0x22fa>
   15397:	c7 85 60 f6 ff ff fb 	movl   $0xfffffffb,-0x9a0(%rbp)
   1539e:	ff ff ff 
   153a1:	c7 85 64 f6 ff ff fb 	movl   $0xfffffffb,-0x99c(%rbp)
   153a8:	ff ff ff 
   153ab:	c7 85 68 f6 ff ff fb 	movl   $0xfffffffb,-0x998(%rbp)
   153b2:	ff ff ff 
   153b5:	c7 85 6c f6 ff ff fb 	movl   $0xfffffffb,-0x994(%rbp)
   153bc:	ff ff ff 
   153bf:	c7 85 70 f6 ff ff fb 	movl   $0xfffffffb,-0x990(%rbp)
   153c6:	ff ff ff 
   153c9:	48 8d 85 08 f1 ff ff 	lea    -0xef8(%rbp),%rax
   153d0:	48 89 85 28 f3 ff ff 	mov    %rax,-0xcd8(%rbp)
   153d7:	c7 85 2c f0 ff ff af 	movl   $0x6e5030af,-0xfd4(%rbp)
   153de:	30 50 6e 
   153e1:	8b 85 6c f6 ff ff    	mov    -0x994(%rbp),%eax
   153e7:	85 c0                	test   %eax,%eax
   153e9:	0f 85 cf 02 00 00    	jne    156be <func_18+0x230b>
   153ef:	8b 05 af 0c 01 00    	mov    0x10caf(%rip),%eax        # 260a4 <g_24+0x4>
   153f5:	0f b7 c0             	movzwl %ax,%eax
   153f8:	be 09 00 00 00       	mov    $0x9,%esi
   153fd:	89 c7                	mov    %eax,%edi
   153ff:	e8 ba 79 ff ff       	callq  cdbe <safe_lshift_func_uint16_t_u_s>
   15404:	0f b7 d0             	movzwl %ax,%edx
   15407:	8b 85 6c f6 ff ff    	mov    -0x994(%rbp),%eax
   1540d:	48 98                	cltq   
   1540f:	48 89 d6             	mov    %rdx,%rsi
   15412:	48 89 c7             	mov    %rax,%rdi
   15415:	e8 27 74 ff ff       	callq  c841 <safe_add_func_int64_t_s_s>
   1541a:	49 89 c6             	mov    %rax,%r14
   1541d:	44 0f b7 a5 7c ef ff 	movzwl -0x1084(%rbp),%r12d
   15424:	ff 
   15425:	8b 85 b4 f4 ff ff    	mov    -0xb4c(%rbp),%eax
   1542b:	41 89 c7             	mov    %eax,%r15d
   1542e:	48 8b 05 cb 29 01 00 	mov    0x129cb(%rip),%rax        # 27e00 <g_87>
   15435:	0f b6 00             	movzbl (%rax),%eax
   15438:	44 0f b6 e8          	movzbl %al,%r13d
   1543c:	48 8b 85 38 ef ff ff 	mov    -0x10c8(%rbp),%rax
   15443:	0f be d0             	movsbl %al,%edx
   15446:	8b 85 ac fb ff ff    	mov    -0x454(%rbp),%eax
   1544c:	0f be c0             	movsbl %al,%eax
   1544f:	89 d6                	mov    %edx,%esi
   15451:	89 c7                	mov    %eax,%edi
   15453:	e8 ba 6d ff ff       	callq  c212 <safe_mul_func_int8_t_s_s>
   15458:	48 8b 85 78 f0 ff ff 	mov    -0xf88(%rbp),%rax
   1545f:	c7 00 01 00 00 00    	movl   $0x1,(%rax)
   15465:	be ff ff ff ff       	mov    $0xffffffff,%esi
   1546a:	bf ac 35 77 a8       	mov    $0xa87735ac,%edi
   1546f:	e8 42 71 ff ff       	callq  c5b6 <safe_add_func_int32_t_s_s>
   15474:	0f b6 c0             	movzbl %al,%eax
   15477:	48 8b 95 98 f1 ff ff 	mov    -0xe68(%rbp),%rdx
   1547e:	48 8b 12             	mov    (%rdx),%rdx
   15481:	48 8b 12             	mov    (%rdx),%rdx
   15484:	48 8b 12             	mov    (%rdx),%rdx
   15487:	48 8b 1a             	mov    (%rdx),%rbx
   1548a:	44 89 ee             	mov    %r13d,%esi
   1548d:	89 c7                	mov    %eax,%edi
   1548f:	e8 c6 76 ff ff       	callq  cb5a <safe_add_func_uint8_t_u_u>
   15494:	88 03                	mov    %al,(%rbx)
   15496:	0f b6 03             	movzbl (%rbx),%eax
   15499:	3c 01                	cmp    $0x1,%al
   1549b:	0f 97 c0             	seta   %al
   1549e:	0f b6 d0             	movzbl %al,%edx
   154a1:	48 8b 85 48 ef ff ff 	mov    -0x10b8(%rbp),%rax
   154a8:	0f be c0             	movsbl %al,%eax
   154ab:	89 d6                	mov    %edx,%esi
   154ad:	89 c7                	mov    %eax,%edi
   154af:	e8 ed 6d ff ff       	callq  c2a1 <safe_lshift_func_int8_t_s_s>
   154b4:	48 8b 85 28 f1 ff ff 	mov    -0xed8(%rbp),%rax
   154bb:	8b 00                	mov    (%rax),%eax
   154bd:	0f be c0             	movsbl %al,%eax
   154c0:	be 06 00 00 00       	mov    $0x6,%esi
   154c5:	89 c7                	mov    %eax,%edi
   154c7:	e8 65 6d ff ff       	callq  c231 <safe_mod_func_int8_t_s_s>
   154cc:	66 98                	cbtw   
   154ce:	0f b7 d0             	movzwl %ax,%edx
   154d1:	0f b6 05 f0 0d 01 00 	movzbl 0x10df0(%rip),%eax        # 262c8 <g_1297>
   154d8:	0f b6 c0             	movzbl %al,%eax
   154db:	89 d6                	mov    %edx,%esi
   154dd:	89 c7                	mov    %eax,%edi
   154df:	e8 78 78 ff ff       	callq  cd5c <safe_mod_func_uint16_t_u_u>
   154e4:	0f be d0             	movsbl %al,%edx
   154e7:	48 8b 05 2a 29 01 00 	mov    0x1292a(%rip),%rax        # 27e18 <g_410>
   154ee:	0f b6 00             	movzbl (%rax),%eax
   154f1:	0f be c0             	movsbl %al,%eax
   154f4:	89 d6                	mov    %edx,%esi
   154f6:	89 c7                	mov    %eax,%edi
   154f8:	e8 6d 6d ff ff       	callq  c26a <safe_div_func_int8_t_s_s>
   154fd:	0f b6 c0             	movzbl %al,%eax
   15500:	44 89 fe             	mov    %r15d,%esi
   15503:	89 c7                	mov    %eax,%edi
   15505:	e8 b4 77 ff ff       	callq  ccbe <safe_rshift_func_uint8_t_u_u>
   1550a:	44 89 e6             	mov    %r12d,%esi
   1550d:	bf 00 00 00 00       	mov    $0x0,%edi
   15512:	e8 8a 6d ff ff       	callq  c2a1 <safe_lshift_func_int8_t_s_s>
   15517:	48 0f be c0          	movsbq %al,%rax
   1551b:	49 39 c6             	cmp    %rax,%r14
   1551e:	0f 9e c0             	setle  %al
   15521:	0f b6 c0             	movzbl %al,%eax
   15524:	48 39 85 38 ef ff ff 	cmp    %rax,-0x10c8(%rbp)
   1552b:	74 08                	je     15535 <func_18+0x2182>
   1552d:	48 83 bd 40 ef ff ff 	cmpq   $0x0,-0x10c0(%rbp)
   15534:	00 
   15535:	48 8b 85 30 f1 ff ff 	mov    -0xed0(%rbp),%rax
   1553c:	0d c1 54 b3 00       	or     $0xb354c1,%eax
   15541:	89 c2                	mov    %eax,%edx
   15543:	48 8b 85 10 f3 ff ff 	mov    -0xcf0(%rbp),%rax
   1554a:	89 10                	mov    %edx,(%rax)
   1554c:	48 8b 85 10 f3 ff ff 	mov    -0xcf0(%rbp),%rax
   15553:	8b 10                	mov    (%rax),%edx
   15555:	48 8b 85 20 f3 ff ff 	mov    -0xce0(%rbp),%rax
   1555c:	8b 00                	mov    (%rax),%eax
   1555e:	21 c2                	and    %eax,%edx
   15560:	48 8b 85 20 f3 ff ff 	mov    -0xce0(%rbp),%rax
   15567:	89 10                	mov    %edx,(%rax)
   15569:	8b 85 30 fc ff ff    	mov    -0x3d0(%rbp),%eax
   1556f:	48 63 d8             	movslq %eax,%rbx
   15572:	48 8b 85 00 f3 ff ff 	mov    -0xd00(%rbp),%rax
   15579:	c7 00 04 e8 5a a2    	movl   $0xa25ae804,(%rax)
   1557f:	8b 95 6c f6 ff ff    	mov    -0x994(%rbp),%edx
   15585:	b8 42 e9 7f a6       	mov    $0xa67fe942,%eax
   1558a:	48 39 85 40 ef ff ff 	cmp    %rax,-0x10c0(%rbp)
   15591:	0f 9f c0             	setg   %al
   15594:	0f b6 c0             	movzbl %al,%eax
   15597:	39 c2                	cmp    %eax,%edx
   15599:	0f 9f c0             	setg   %al
   1559c:	0f b6 d0             	movzbl %al,%edx
   1559f:	48 8b 05 82 28 01 00 	mov    0x12882(%rip),%rax        # 27e28 <g_433>
   155a6:	8b 30                	mov    (%rax),%esi
   155a8:	8b 85 14 f0 ff ff    	mov    -0xfec(%rbp),%eax
   155ae:	f7 d0                	not    %eax
   155b0:	c1 e8 1f             	shr    $0x1f,%eax
   155b3:	0f b6 c8             	movzbl %al,%ecx
   155b6:	48 8b 05 6b 28 01 00 	mov    0x1286b(%rip),%rax        # 27e28 <g_433>
   155bd:	21 f1                	and    %esi,%ecx
   155bf:	89 08                	mov    %ecx,(%rax)
   155c1:	8b 00                	mov    (%rax),%eax
   155c3:	31 d0                	xor    %edx,%eax
   155c5:	98                   	cwtl   
   155c6:	be 08 00 00 00       	mov    $0x8,%esi
   155cb:	89 c7                	mov    %eax,%edi
   155cd:	e8 58 6f ff ff       	callq  c52a <safe_rshift_func_int16_t_s_s>
   155d2:	0f be c0             	movsbl %al,%eax
   155d5:	be ff ff ff ff       	mov    $0xffffffff,%esi
   155da:	89 c7                	mov    %eax,%edi
   155dc:	e8 31 6c ff ff       	callq  c212 <safe_mul_func_int8_t_s_s>
   155e1:	3c fe                	cmp    $0xfe,%al
   155e3:	0f 9d c0             	setge  %al
   155e6:	0f b6 c0             	movzbl %al,%eax
   155e9:	be 01 00 00 00       	mov    $0x1,%esi
   155ee:	89 c7                	mov    %eax,%edi
   155f0:	e8 ac 6c ff ff       	callq  c2a1 <safe_lshift_func_int8_t_s_s>
   155f5:	0f be c0             	movsbl %al,%eax
   155f8:	09 85 2c f0 ff ff    	or     %eax,-0xfd4(%rbp)
   155fe:	8b 85 2c f0 ff ff    	mov    -0xfd4(%rbp),%eax
   15604:	48 98                	cltq   
   15606:	48 39 85 38 ef ff ff 	cmp    %rax,-0x10c8(%rbp)
   1560d:	75 07                	jne    15616 <func_18+0x2263>
   1560f:	ba 01 08 12 22       	mov    $0x22120801,%edx
   15614:	eb 05                	jmp    1561b <func_18+0x2268>
   15616:	ba 00 08 12 22       	mov    $0x22120800,%edx
   1561b:	48 8b 85 f0 f2 ff ff 	mov    -0xd10(%rbp),%rax
   15622:	89 10                	mov    %edx,(%rax)
   15624:	48 8b 85 f0 f2 ff ff 	mov    -0xd10(%rbp),%rax
   1562b:	8b 00                	mov    (%rax),%eax
   1562d:	be ed 2e f3 5b       	mov    $0x5bf32eed,%esi
   15632:	89 c7                	mov    %eax,%edi
   15634:	e8 93 70 ff ff       	callq  c6cc <safe_mod_func_int32_t_s_s>
   15639:	85 c0                	test   %eax,%eax
   1563b:	74 14                	je     15651 <func_18+0x229e>
   1563d:	48 8b 85 78 f0 ff ff 	mov    -0xf88(%rbp),%rax
   15644:	8b 00                	mov    (%rax),%eax
   15646:	85 c0                	test   %eax,%eax
   15648:	74 07                	je     15651 <func_18+0x229e>
   1564a:	b8 01 00 00 00       	mov    $0x1,%eax
   1564f:	eb 05                	jmp    15656 <func_18+0x22a3>
   15651:	b8 00 00 00 00       	mov    $0x0,%eax
   15656:	83 f8 52             	cmp    $0x52,%eax
   15659:	0f 94 c0             	sete   %al
   1565c:	0f b6 c0             	movzbl %al,%eax
   1565f:	48 89 de             	mov    %rbx,%rsi
   15662:	48 89 c7             	mov    %rax,%rdi
   15665:	e8 c4 79 ff ff       	callq  d02e <safe_add_func_uint64_t_u_u>
   1566a:	48 85 c0             	test   %rax,%rax
   1566d:	74 07                	je     15676 <func_18+0x22c3>
   1566f:	ba 01 00 00 00       	mov    $0x1,%edx
   15674:	eb 05                	jmp    1567b <func_18+0x22c8>
   15676:	ba 00 00 00 00       	mov    $0x0,%edx
   1567b:	48 8b 85 c8 f2 ff ff 	mov    -0xd38(%rbp),%rax
   15682:	8b 00                	mov    (%rax),%eax
   15684:	09 c2                	or     %eax,%edx
   15686:	48 8b 85 c8 f2 ff ff 	mov    -0xd38(%rbp),%rax
   1568d:	89 10                	mov    %edx,(%rax)
   1568f:	8b 05 f3 57 01 00    	mov    0x157f3(%rip),%eax        # 2ae88 <g_421>
   15695:	0f be c0             	movsbl %al,%eax
   15698:	be 09 00 00 00       	mov    $0x9,%esi
   1569d:	89 c7                	mov    %eax,%edi
   1569f:	e8 30 6b ff ff       	callq  c1d4 <safe_add_func_int8_t_s_s>
   156a4:	0f be c0             	movsbl %al,%eax
   156a7:	89 05 db 57 01 00    	mov    %eax,0x157db(%rip)        # 2ae88 <g_421>
   156ad:	8b 05 d5 57 01 00    	mov    0x157d5(%rip),%eax        # 2ae88 <g_421>
   156b3:	83 f8 1a             	cmp    $0x1a,%eax
   156b6:	0f 86 db fc ff ff    	jbe    15397 <func_18+0x1fe4>
   156bc:	eb 01                	jmp    156bf <func_18+0x230c>
   156be:	90                   	nop
   156bf:	0f b6 05 6e 0c 01 00 	movzbl 0x10c6e(%rip),%eax        # 26334 <g_2178>
   156c6:	84 c0                	test   %al,%al
   156c8:	0f 84 e5 00 00 00    	je     157b3 <func_18+0x2400>
   156ce:	e9 55 f2 ff ff       	jmpq   14928 <func_18+0x1575>
   156d3:	48 8d 05 36 27 01 00 	lea    0x12736(%rip),%rax        # 27e10 <g_396>
   156da:	48 89 85 b0 f2 ff ff 	mov    %rax,-0xd50(%rbp)
   156e1:	c7 85 84 ef ff ff 00 	movl   $0x0,-0x107c(%rbp)
   156e8:	00 00 00 
   156eb:	e9 b4 00 00 00       	jmpq   157a4 <func_18+0x23f1>
   156f0:	c7 85 24 f0 ff ff 71 	movl   $0x5d28bb71,-0xfdc(%rbp)
   156f7:	bb 28 5d 
   156fa:	c7 85 b4 f4 ff ff 01 	movl   $0x1,-0xb4c(%rbp)
   15701:	00 00 00 
   15704:	48 8b 05 25 27 01 00 	mov    0x12725(%rip),%rax        # 27e30 <g_481>
   1570b:	0f b7 00             	movzwl (%rax),%eax
   1570e:	0f b7 d8             	movzwl %ax,%ebx
   15711:	0f b7 85 6e ef ff ff 	movzwl -0x1092(%rbp),%eax
   15718:	0f b7 d0             	movzwl %ax,%edx
   1571b:	48 8b 85 e0 f0 ff ff 	mov    -0xf20(%rbp),%rax
   15722:	48 85 c0             	test   %rax,%rax
   15725:	0f 94 c0             	sete   %al
   15728:	0f b6 c0             	movzbl %al,%eax
   1572b:	89 d6                	mov    %edx,%esi
   1572d:	89 c7                	mov    %eax,%edi
   1572f:	e8 28 76 ff ff       	callq  cd5c <safe_mod_func_uint16_t_u_u>
   15734:	66 3d 8b 68          	cmp    $0x688b,%ax
   15738:	0f 95 c0             	setne  %al
   1573b:	0f b6 c0             	movzbl %al,%eax
   1573e:	89 de                	mov    %ebx,%esi
   15740:	89 c7                	mov    %eax,%edi
   15742:	e8 15 76 ff ff       	callq  cd5c <safe_mod_func_uint16_t_u_u>
   15747:	48 8b 85 30 f5 ff ff 	mov    -0xad0(%rbp),%rax
   1574e:	48 85 c0             	test   %rax,%rax
   15751:	0f 94 c0             	sete   %al
   15754:	0f b6 c0             	movzbl %al,%eax
   15757:	39 85 24 f0 ff ff    	cmp    %eax,-0xfdc(%rbp)
   1575d:	0f 9d c0             	setge  %al
   15760:	0f b6 c0             	movzbl %al,%eax
   15763:	89 c6                	mov    %eax,%esi
   15765:	bf 00 00 00 00       	mov    $0x0,%edi
   1576a:	e8 eb 73 ff ff       	callq  cb5a <safe_add_func_uint8_t_u_u>
   1576f:	0f b6 d0             	movzbl %al,%edx
   15772:	0f be 85 63 ef ff ff 	movsbl -0x109d(%rbp),%eax
   15779:	39 c2                	cmp    %eax,%edx
   1577b:	0f 95 c0             	setne  %al
   1577e:	0f b6 c0             	movzbl %al,%eax
   15781:	89 85 90 ef ff ff    	mov    %eax,-0x1070(%rbp)
   15787:	48 8d 05 72 34 01 00 	lea    0x13472(%rip),%rax        # 28c00 <g_1980>
   1578e:	48 c7 00 00 00 00 00 	movq   $0x0,(%rax)
   15795:	8b 85 84 ef ff ff    	mov    -0x107c(%rbp),%eax
   1579b:	83 c0 01             	add    $0x1,%eax
   1579e:	89 85 84 ef ff ff    	mov    %eax,-0x107c(%rbp)
   157a4:	8b 85 84 ef ff ff    	mov    -0x107c(%rbp),%eax
   157aa:	83 f8 1a             	cmp    $0x1a,%eax
   157ad:	0f 8f 3d ff ff ff    	jg     156f0 <func_18+0x233d>
   157b3:	48 8b 85 b0 f0 ff ff 	mov    -0xf50(%rbp),%rax
   157ba:	48 39 85 a8 f1 ff ff 	cmp    %rax,-0xe58(%rbp)
   157c1:	75 41                	jne    15804 <func_18+0x2451>
   157c3:	48 8b 05 56 33 01 00 	mov    0x13356(%rip),%rax        # 28b20 <g_1772>
   157ca:	48 8b 00             	mov    (%rax),%rax
   157cd:	48 8b 00             	mov    (%rax),%rax
   157d0:	8b 08                	mov    (%rax),%ecx
   157d2:	8b 95 b0 f4 ff ff    	mov    -0xb50(%rbp),%edx
   157d8:	48 8b 05 41 33 01 00 	mov    0x13341(%rip),%rax        # 28b20 <g_1772>
   157df:	48 8b 00             	mov    (%rax),%rax
   157e2:	48 8b 00             	mov    (%rax),%rax
   157e5:	09 ca                	or     %ecx,%edx
   157e7:	89 10                	mov    %edx,(%rax)
   157e9:	8b 10                	mov    (%rax),%edx
   157eb:	48 8b 85 28 f1 ff ff 	mov    -0xed8(%rbp),%rax
   157f2:	8b 00                	mov    (%rax),%eax
   157f4:	21 c2                	and    %eax,%edx
   157f6:	48 8b 85 28 f1 ff ff 	mov    -0xed8(%rbp),%rax
   157fd:	89 10                	mov    %edx,(%rax)
   157ff:	e9 d0 0b 00 00       	jmpq   163d4 <func_18+0x3021>
   15804:	48 c7 85 30 f3 ff ff 	movq   $0x2,-0xcd0(%rbp)
   1580b:	02 00 00 00 
   1580f:	c7 85 30 f0 ff ff 02 	movl   $0x2,-0xfd0(%rbp)
   15816:	00 00 00 
   15819:	c7 85 34 f0 ff ff fe 	movl   $0xfffffffe,-0xfcc(%rbp)
   15820:	ff ff ff 
   15823:	c6 85 67 ef ff ff 6f 	movb   $0x6f,-0x1099(%rbp)
   1582a:	c7 85 38 f0 ff ff 1d 	movl   $0x5b6ba41d,-0xfc8(%rbp)
   15831:	a4 6b 5b 
   15834:	c7 05 12 0a 01 00 e8 	movl   $0xffffffe8,0x10a12(%rip)        # 26250 <g_452>
   1583b:	ff ff ff 
   1583e:	e9 a3 00 00 00       	jmpq   158e6 <func_18+0x2533>
   15843:	48 8d 85 60 f5 ff ff 	lea    -0xaa0(%rbp),%rax
   1584a:	48 83 c0 08          	add    $0x8,%rax
   1584e:	48 89 85 18 f1 ff ff 	mov    %rax,-0xee8(%rbp)
   15855:	48 8d 85 18 f1 ff ff 	lea    -0xee8(%rbp),%rax
   1585c:	48 89 85 38 f3 ff ff 	mov    %rax,-0xcc8(%rbp)
   15863:	48 8d 05 66 56 01 00 	lea    0x15666(%rip),%rax        # 2aed0 <g_1215>
   1586a:	48 89 85 40 f3 ff ff 	mov    %rax,-0xcc0(%rbp)
   15871:	c7 85 3c f0 ff ff f9 	movl   $0xfffffff9,-0xfc4(%rbp)
   15878:	ff ff ff 
   1587b:	48 8d 05 5e 0a 01 00 	lea    0x10a5e(%rip),%rax        # 262e0 <g_2038>
   15882:	48 89 85 48 f3 ff ff 	mov    %rax,-0xcb8(%rbp)
   15889:	48 8d 85 5d ef ff ff 	lea    -0x10a3(%rbp),%rax
   15890:	48 89 85 50 f3 ff ff 	mov    %rax,-0xcb0(%rbp)
   15897:	c7 85 c8 ef ff ff 00 	movl   $0x0,-0x1038(%rbp)
   1589e:	00 00 00 
   158a1:	eb 22                	jmp    158c5 <func_18+0x2512>
   158a3:	8b 85 c8 ef ff ff    	mov    -0x1038(%rbp),%eax
   158a9:	48 98                	cltq   
   158ab:	48 8d 95 b0 f4 ff ff 	lea    -0xb50(%rbp),%rdx
   158b2:	48 83 c2 04          	add    $0x4,%rdx
   158b6:	48 89 94 c5 c0 f9 ff 	mov    %rdx,-0x640(%rbp,%rax,8)
   158bd:	ff 
   158be:	83 85 c8 ef ff ff 01 	addl   $0x1,-0x1038(%rbp)
   158c5:	83 bd c8 ef ff ff 00 	cmpl   $0x0,-0x1038(%rbp)
   158cc:	7e d5                	jle    158a3 <func_18+0x24f0>
   158ce:	8b 05 7c 09 01 00    	mov    0x1097c(%rip),%eax        # 26250 <g_452>
   158d4:	be 06 00 00 00       	mov    $0x6,%esi
   158d9:	89 c7                	mov    %eax,%edi
   158db:	e8 d6 6c ff ff       	callq  c5b6 <safe_add_func_int32_t_s_s>
   158e0:	89 05 6a 09 01 00    	mov    %eax,0x1096a(%rip)        # 26250 <g_452>
   158e6:	8b 05 64 09 01 00    	mov    0x10964(%rip),%eax        # 26250 <g_452>
   158ec:	83 f8 30             	cmp    $0x30,%eax
   158ef:	0f 85 4e ff ff ff    	jne    15843 <func_18+0x2490>
   158f5:	e9 da 0a 00 00       	jmpq   163d4 <func_18+0x3021>
   158fa:	48 b8 ba ba 00 ba ba 	movabs $0xbaba00baba00baba,%rax
   15901:	00 ba ba 
   15904:	48 89 45 be          	mov    %rax,-0x42(%rbp)
   15908:	48 c7 85 18 f1 ff ff 	movq   $0x0,-0xee8(%rbp)
   1590f:	00 00 00 00 
   15913:	48 8d 85 18 f1 ff ff 	lea    -0xee8(%rbp),%rax
   1591a:	48 89 85 d0 f1 ff ff 	mov    %rax,-0xe30(%rbp)
   15921:	c7 85 60 f6 ff ff 04 	movl   $0x4,-0x9a0(%rbp)
   15928:	00 00 00 
   1592b:	c7 85 64 f6 ff ff 04 	movl   $0x4,-0x99c(%rbp)
   15932:	00 00 00 
   15935:	c7 85 68 f6 ff ff 5c 	movl   $0x8a58915c,-0x998(%rbp)
   1593c:	91 58 8a 
   1593f:	c7 85 6c f6 ff ff 94 	movl   $0x965d8794,-0x994(%rbp)
   15946:	87 5d 96 
   15949:	c7 85 70 f6 ff ff 5c 	movl   $0x8a58915c,-0x990(%rbp)
   15950:	91 58 8a 
   15953:	c7 85 74 f6 ff ff 04 	movl   $0x4,-0x98c(%rbp)
   1595a:	00 00 00 
   1595d:	c7 85 78 f6 ff ff 04 	movl   $0x4,-0x988(%rbp)
   15964:	00 00 00 
   15967:	c7 85 7c f6 ff ff 5c 	movl   $0x8a58915c,-0x984(%rbp)
   1596e:	91 58 8a 
   15971:	c7 85 80 f6 ff ff 94 	movl   $0x965d8794,-0x980(%rbp)
   15978:	87 5d 96 
   1597b:	c7 85 84 f6 ff ff 5c 	movl   $0x8a58915c,-0x97c(%rbp)
   15982:	91 58 8a 
   15985:	c7 85 08 f0 ff ff fb 	movl   $0xfffffffb,-0xff8(%rbp)
   1598c:	ff ff ff 
   1598f:	48 b8 08 2b b6 4d ff 	movabs $0x2a5514ff4db62b08,%rax
   15996:	14 55 2a 
   15999:	48 89 85 d8 f1 ff ff 	mov    %rax,-0xe28(%rbp)
   159a0:	c7 85 70 fb ff ff 01 	movl   $0x68080801,-0x490(%rbp)
   159a7:	08 08 68 
   159aa:	66 c7 85 74 fb ff ff 	movw   $0x1fe,-0x48c(%rbp)
   159b1:	fe 01 
   159b3:	c7 85 76 fb ff ff 68 	movl   $0xfe01fe68,-0x48a(%rbp)
   159ba:	fe 01 fe 
   159bd:	66 c7 85 7a fb ff ff 	movw   $0x868,-0x486(%rbp)
   159c4:	68 08 
   159c6:	c7 85 7c fb ff ff 9a 	movl   $0x101c59a,-0x484(%rbp)
   159cd:	c5 01 01 
   159d0:	66 c7 85 80 fb ff ff 	movw   $0x108,-0x480(%rbp)
   159d7:	08 01 
   159d9:	c7 85 82 fb ff ff 08 	movl   $0xc5080108,-0x47e(%rbp)
   159e0:	01 08 c5 
   159e3:	66 c7 85 86 fb ff ff 	movw   $0x107,-0x47a(%rbp)
   159ea:	07 01 
   159ec:	c7 85 88 fb ff ff c5 	movl   $0x9a0107c5,-0x478(%rbp)
   159f3:	07 01 9a 
   159f6:	66 c7 85 8c fb ff ff 	movw   $0x890,-0x474(%rbp)
   159fd:	90 08 
   159ff:	c7 85 8e fb ff ff 07 	movl   $0x1016807,-0x472(%rbp)
   15a06:	68 01 01 
   15a09:	66 c7 85 92 fb ff ff 	movw   $0x101,-0x46e(%rbp)
   15a10:	01 01 
   15a12:	c7 85 94 fb ff ff 01 	movl   $0x90080101,-0x46c(%rbp)
   15a19:	01 08 90 
   15a1c:	66 c7 85 98 fb ff ff 	movw   $0x19a,-0x468(%rbp)
   15a23:	9a 01 
   15a25:	c7 85 9a fb ff ff 90 	movl   $0x7019a90,-0x466(%rbp)
   15a2c:	9a 01 07 
   15a2f:	66 c7 85 9e fb ff ff 	movw   $0x8c5,-0x462(%rbp)
   15a36:	c5 08 
   15a38:	c7 85 a0 fb ff ff fe 	movl   $0x80190fe,-0x460(%rbp)
   15a3f:	90 01 08 
   15a42:	66 c7 85 a4 fb ff ff 	movw   $0x101,-0x45c(%rbp)
   15a49:	01 01 
   15a4b:	c7 85 a6 fb ff ff 01 	movl   $0x68080801,-0x45a(%rbp)
   15a52:	08 08 68 
   15a55:	66 c7 85 aa fb ff ff 	movw   $0x1fe,-0x456(%rbp)
   15a5c:	fe 01 
   15a5e:	48 8d 05 fb 06 01 00 	lea    0x106fb(%rip),%rax        # 26160 <g_133>
   15a65:	48 89 85 e0 f1 ff ff 	mov    %rax,-0xe20(%rbp)
   15a6c:	48 8d 05 f5 31 01 00 	lea    0x131f5(%rip),%rax        # 28c68 <g_2388>
   15a73:	48 89 85 e8 f1 ff ff 	mov    %rax,-0xe18(%rbp)
   15a7a:	c7 85 0c f0 ff ff bd 	movl   $0xc5fc37bd,-0xff4(%rbp)
   15a81:	37 fc c5 
   15a84:	c7 85 5c f4 ff ff 52 	movl   $0x52525252,-0xba4(%rbp)
   15a8b:	52 52 52 
   15a8e:	48 b8 91 f1 82 a7 de 	movabs $0xcb0af2dea782f191,%rax
   15a95:	f2 0a cb 
   15a98:	48 89 85 f0 f1 ff ff 	mov    %rax,-0xe10(%rbp)
   15a9f:	c7 85 a4 ef ff ff 00 	movl   $0x0,-0x105c(%rbp)
   15aa6:	00 00 00 
   15aa9:	eb 1e                	jmp    15ac9 <func_18+0x2716>
   15aab:	8b 85 a4 ef ff ff    	mov    -0x105c(%rbp),%eax
   15ab1:	48 98                	cltq   
   15ab3:	48 8d 15 f6 27 01 00 	lea    0x127f6(%rip),%rdx        # 282b0 <g_544+0x30>
   15aba:	48 89 94 c5 90 f5 ff 	mov    %rdx,-0xa70(%rbp,%rax,8)
   15ac1:	ff 
   15ac2:	83 85 a4 ef ff ff 01 	addl   $0x1,-0x105c(%rbp)
   15ac9:	83 bd a4 ef ff ff 02 	cmpl   $0x2,-0x105c(%rbp)
   15ad0:	7e d9                	jle    15aab <func_18+0x26f8>
   15ad2:	c7 85 a4 ef ff ff 00 	movl   $0x0,-0x105c(%rbp)
   15ad9:	00 00 00 
   15adc:	eb 49                	jmp    15b27 <func_18+0x2774>
   15ade:	c7 85 a8 ef ff ff 00 	movl   $0x0,-0x1058(%rbp)
   15ae5:	00 00 00 
   15ae8:	eb 2d                	jmp    15b17 <func_18+0x2764>
   15aea:	8b 85 a8 ef ff ff    	mov    -0x1058(%rbp),%eax
   15af0:	48 63 d0             	movslq %eax,%rdx
   15af3:	8b 85 a4 ef ff ff    	mov    -0x105c(%rbp),%eax
   15af9:	48 98                	cltq   
   15afb:	48 01 d0             	add    %rdx,%rax
   15afe:	48 bb 4e 9b 05 da 16 	movabs $0x28c74816da059b4e,%rbx
   15b05:	48 c7 28 
   15b08:	48 89 9c c5 c0 f9 ff 	mov    %rbx,-0x640(%rbp,%rax,8)
   15b0f:	ff 
   15b10:	83 85 a8 ef ff ff 01 	addl   $0x1,-0x1058(%rbp)
   15b17:	83 bd a8 ef ff ff 00 	cmpl   $0x0,-0x1058(%rbp)
   15b1e:	7e ca                	jle    15aea <func_18+0x2737>
   15b20:	83 85 a4 ef ff ff 01 	addl   $0x1,-0x105c(%rbp)
   15b27:	83 bd a4 ef ff ff 04 	cmpl   $0x4,-0x105c(%rbp)
   15b2e:	7e ae                	jle    15ade <func_18+0x272b>
   15b30:	c7 85 a4 ef ff ff 00 	movl   $0x0,-0x105c(%rbp)
   15b37:	00 00 00 
   15b3a:	eb 1a                	jmp    15b56 <func_18+0x27a3>
   15b3c:	8b 85 a4 ef ff ff    	mov    -0x105c(%rbp),%eax
   15b42:	48 98                	cltq   
   15b44:	c7 84 85 78 f4 ff ff 	movl   $0x1,-0xb88(%rbp,%rax,4)
   15b4b:	01 00 00 00 
   15b4f:	83 85 a4 ef ff ff 01 	addl   $0x1,-0x105c(%rbp)
   15b56:	83 bd a4 ef ff ff 01 	cmpl   $0x1,-0x105c(%rbp)
   15b5d:	7e dd                	jle    15b3c <func_18+0x2789>
   15b5f:	8b 9d 08 f0 ff ff    	mov    -0xff8(%rbp),%ebx
   15b65:	44 8b 25 2c 07 01 00 	mov    0x1072c(%rip),%r12d        # 26298 <g_528>
   15b6c:	48 8b 85 38 ef ff ff 	mov    -0x10c8(%rbp),%rax
   15b73:	41 89 c7             	mov    %eax,%r15d
   15b76:	48 8b 05 b3 22 01 00 	mov    0x122b3(%rip),%rax        # 27e30 <g_481>
   15b7d:	0f b7 00             	movzwl (%rax),%eax
   15b80:	44 0f bf e8          	movswl %ax,%r13d
   15b84:	48 8b 85 98 f5 ff ff 	mov    -0xa68(%rbp),%rax
   15b8b:	48 85 c0             	test   %rax,%rax
   15b8e:	0f 94 c0             	sete   %al
   15b91:	44 0f b6 f0          	movzbl %al,%r14d
   15b95:	48 8b 05 8c 22 01 00 	mov    0x1228c(%rip),%rax        # 27e28 <g_433>
   15b9c:	8b 00                	mov    (%rax),%eax
   15b9e:	85 c0                	test   %eax,%eax
   15ba0:	75 08                	jne    15baa <func_18+0x27f7>
   15ba2:	0f b6 45 c3          	movzbl -0x3d(%rbp),%eax
   15ba6:	84 c0                	test   %al,%al
   15ba8:	74 07                	je     15bb1 <func_18+0x27fe>
   15baa:	b9 01 00 00 00       	mov    $0x1,%ecx
   15baf:	eb 05                	jmp    15bb6 <func_18+0x2803>
   15bb1:	b9 00 00 00 00       	mov    $0x0,%ecx
   15bb6:	48 8b 85 d0 f1 ff ff 	mov    -0xe30(%rbp),%rax
   15bbd:	48 89 05 94 30 01 00 	mov    %rax,0x13094(%rip)        # 28c58 <g_2347>
   15bc4:	48 8b 15 8d 30 01 00 	mov    0x1308d(%rip),%rdx        # 28c58 <g_2347>
   15bcb:	48 8b 85 88 f0 ff ff 	mov    -0xf78(%rbp),%rax
   15bd2:	48 39 c2             	cmp    %rax,%rdx
   15bd5:	0f 94 c0             	sete   %al
   15bd8:	0f b6 c0             	movzbl %al,%eax
   15bdb:	89 ce                	mov    %ecx,%esi
   15bdd:	89 c7                	mov    %eax,%edi
   15bdf:	e8 46 69 ff ff       	callq  c52a <safe_rshift_func_int16_t_s_s>
   15be4:	0f bf d0             	movswl %ax,%edx
   15be7:	8b 85 68 f6 ff ff    	mov    -0x998(%rbp),%eax
   15bed:	31 d0                	xor    %edx,%eax
   15bef:	83 f8 01             	cmp    $0x1,%eax
   15bf2:	0f 9f c0             	setg   %al
   15bf5:	0f b6 c0             	movzbl %al,%eax
   15bf8:	41 39 c6             	cmp    %eax,%r14d
   15bfb:	0f 9c c0             	setl   %al
   15bfe:	0f b6 c0             	movzbl %al,%eax
   15c01:	44 89 ee             	mov    %r13d,%esi
   15c04:	89 c7                	mov    %eax,%edi
   15c06:	e8 1f 69 ff ff       	callq  c52a <safe_rshift_func_int16_t_s_s>
   15c0b:	98                   	cwtl   
   15c0c:	44 89 fe             	mov    %r15d,%esi
   15c0f:	89 c7                	mov    %eax,%edi
   15c11:	e8 0f 73 ff ff       	callq  cf25 <safe_div_func_uint32_t_u_u>
   15c16:	89 c2                	mov    %eax,%edx
   15c18:	48 8b 85 30 ef ff ff 	mov    -0x10d0(%rbp),%rax
   15c1f:	48 89 d6             	mov    %rdx,%rsi
   15c22:	48 89 c7             	mov    %rax,%rdi
   15c25:	e8 8a 6d ff ff       	callq  c9b4 <safe_mod_func_int64_t_s_s>
   15c2a:	98                   	cwtl   
   15c2b:	44 89 e6             	mov    %r12d,%esi
   15c2e:	89 c7                	mov    %eax,%edi
   15c30:	e8 2e 69 ff ff       	callq  c563 <safe_rshift_func_int16_t_s_u>
   15c35:	48 8b 95 e8 f0 ff ff 	mov    -0xf18(%rbp),%rdx
   15c3c:	8b 0a                	mov    (%rdx),%ecx
   15c3e:	0f bf d0             	movswl %ax,%edx
   15c41:	48 8b 85 e8 f0 ff ff 	mov    -0xf18(%rbp),%rax
   15c48:	09 ca                	or     %ecx,%edx
   15c4a:	89 10                	mov    %edx,(%rax)
   15c4c:	48 8b 85 40 ef ff ff 	mov    -0x10c0(%rbp),%rax
   15c53:	41 89 c4             	mov    %eax,%r12d
   15c56:	0f b6 45 c4          	movzbl -0x3c(%rbp),%eax
   15c5a:	0f b6 c0             	movzbl %al,%eax
   15c5d:	89 c6                	mov    %eax,%esi
   15c5f:	bf 5f 00 00 00       	mov    $0x5f,%edi
   15c64:	e8 45 6f ff ff       	callq  cbae <safe_mod_func_uint8_t_u_u>
   15c69:	0f be c0             	movsbl %al,%eax
   15c6c:	44 89 e6             	mov    %r12d,%esi
   15c6f:	89 c7                	mov    %eax,%edi
   15c71:	e8 f6 66 ff ff       	callq  c36c <safe_rshift_func_int8_t_s_u>
   15c76:	8b 85 74 f6 ff ff    	mov    -0x98c(%rbp),%eax
   15c7c:	48 98                	cltq   
   15c7e:	48 89 de             	mov    %rbx,%rsi
   15c81:	48 89 c7             	mov    %rax,%rdi
   15c84:	e8 26 74 ff ff       	callq  d0af <safe_div_func_uint64_t_u_u>
   15c89:	48 8b 05 90 2e 01 00 	mov    0x12e90(%rip),%rax        # 28b20 <g_1772>
   15c90:	48 8b 00             	mov    (%rax),%rax
   15c93:	48 8b 10             	mov    (%rax),%rdx
   15c96:	48 8b 05 83 2e 01 00 	mov    0x12e83(%rip),%rax        # 28b20 <g_1772>
   15c9d:	48 8b 00             	mov    (%rax),%rax
   15ca0:	48 8b 00             	mov    (%rax),%rax
   15ca3:	8b 12                	mov    (%rdx),%edx
   15ca5:	89 10                	mov    %edx,(%rax)
   15ca7:	48 8b 85 38 ef ff ff 	mov    -0x10c8(%rbp),%rax
   15cae:	41 89 c6             	mov    %eax,%r14d
   15cb1:	0f b6 85 72 fb ff ff 	movzbl -0x48e(%rbp),%eax
   15cb8:	0f b6 d8             	movzbl %al,%ebx
   15cbb:	48 8b 05 7e 21 01 00 	mov    0x1217e(%rip),%rax        # 27e40 <g_479>
   15cc2:	48 8b 00             	mov    (%rax),%rax
   15cc5:	48 8b 00             	mov    (%rax),%rax
   15cc8:	0f b7 00             	movzwl (%rax),%eax
   15ccb:	44 0f b7 e0          	movzwl %ax,%r12d
   15ccf:	48 8b 15 3a 06 01 00 	mov    0x1063a(%rip),%rdx        # 26310 <g_2089+0x10>
   15cd6:	48 8b 85 48 ef ff ff 	mov    -0x10b8(%rbp),%rax
   15cdd:	48 31 d0             	xor    %rdx,%rax
   15ce0:	48 89 05 29 06 01 00 	mov    %rax,0x10629(%rip)        # 26310 <g_2089+0x10>
   15ce7:	4c 8b 2d 22 06 01 00 	mov    0x10622(%rip),%r13        # 26310 <g_2089+0x10>
   15cee:	8b 85 2c ef ff ff    	mov    -0x10d4(%rbp),%eax
   15cf4:	48 98                	cltq   
   15cf6:	48 39 85 d8 f1 ff ff 	cmp    %rax,-0xe28(%rbp)
   15cfd:	0f 9e c0             	setle  %al
   15d00:	0f b6 c0             	movzbl %al,%eax
   15d03:	be 64 02 00 00       	mov    $0x264,%esi
   15d08:	89 c7                	mov    %eax,%edi
   15d0a:	e8 46 67 ff ff       	callq  c455 <safe_div_func_int16_t_s_s>
   15d0f:	48 0f bf c0          	movswq %ax,%rax
   15d13:	49 39 c5             	cmp    %rax,%r13
   15d16:	0f 97 c0             	seta   %al
   15d19:	0f b6 d0             	movzbl %al,%edx
   15d1c:	48 8b 85 28 f1 ff ff 	mov    -0xed8(%rbp),%rax
   15d23:	8b 00                	mov    (%rax),%eax
   15d25:	0f be c0             	movsbl %al,%eax
   15d28:	89 d6                	mov    %edx,%esi
   15d2a:	89 c7                	mov    %eax,%edi
   15d2c:	e8 04 66 ff ff       	callq  c335 <safe_rshift_func_int8_t_s_s>
   15d31:	0f be c0             	movsbl %al,%eax
   15d34:	be 01 00 00 00       	mov    $0x1,%esi
   15d39:	89 c7                	mov    %eax,%edi
   15d3b:	e8 bf 69 ff ff       	callq  c6ff <safe_div_func_int32_t_s_s>
   15d40:	0f b7 c0             	movzwl %ax,%eax
   15d43:	44 89 e6             	mov    %r12d,%esi
   15d46:	89 c7                	mov    %eax,%edi
   15d48:	e8 b2 6f ff ff       	callq  ccff <safe_add_func_uint16_t_u_u>
   15d4d:	89 de                	mov    %ebx,%esi
   15d4f:	bf 00 00 00 00       	mov    $0x0,%edi
   15d54:	e8 c6 6f ff ff       	callq  cd1f <safe_sub_func_uint16_t_u_u>
   15d59:	48 8b 85 48 ef ff ff 	mov    -0x10b8(%rbp),%rax
   15d60:	89 85 b0 f4 ff ff    	mov    %eax,-0xb50(%rbp)
   15d66:	44 89 f6             	mov    %r14d,%esi
   15d69:	bf 01 00 00 00       	mov    $0x1,%edi
   15d6e:	e8 8c 69 ff ff       	callq  c6ff <safe_div_func_int32_t_s_s>
   15d73:	89 c6                	mov    %eax,%esi
   15d75:	bf 02 00 00 00       	mov    $0x2,%edi
   15d7a:	e8 86 6e ff ff       	callq  cc05 <safe_lshift_func_uint8_t_u_s>
   15d7f:	0f b6 c0             	movzbl %al,%eax
   15d82:	be ff ff ff ff       	mov    $0xffffffff,%esi
   15d87:	89 c7                	mov    %eax,%edi
   15d89:	e8 45 66 ff ff       	callq  c3d3 <safe_sub_func_int16_t_s_s>
   15d8e:	48 8b 15 93 20 01 00 	mov    0x12093(%rip),%rdx        # 27e28 <g_433>
   15d95:	8b 0a                	mov    (%rdx),%ecx
   15d97:	0f bf d0             	movswl %ax,%edx
   15d9a:	48 8b 05 87 20 01 00 	mov    0x12087(%rip),%rax        # 27e28 <g_433>
   15da1:	21 ca                	and    %ecx,%edx
   15da3:	89 10                	mov    %edx,(%rax)
   15da5:	8b 00                	mov    (%rax),%eax
   15da7:	85 c0                	test   %eax,%eax
   15da9:	74 07                	je     15db2 <func_18+0x29ff>
   15dab:	b8 01 00 00 00       	mov    $0x1,%eax
   15db0:	eb 05                	jmp    15db7 <func_18+0x2a04>
   15db2:	b8 00 00 00 00       	mov    $0x0,%eax
   15db7:	0f b7 c0             	movzwl %ax,%eax
   15dba:	be 02 00 00 00       	mov    $0x2,%esi
   15dbf:	89 c7                	mov    %eax,%edi
   15dc1:	e8 b4 70 ff ff       	callq  ce7a <safe_rshift_func_uint16_t_u_u>
   15dc6:	0f b7 c0             	movzwl %ax,%eax
   15dc9:	39 85 b0 ef ff ff    	cmp    %eax,-0x1050(%rbp)
   15dcf:	0f 95 c0             	setne  %al
   15dd2:	0f b6 c0             	movzbl %al,%eax
   15dd5:	89 c7                	mov    %eax,%edi
   15dd7:	e8 69 6d ff ff       	callq  cb45 <safe_unary_minus_func_uint8_t_u>
   15ddc:	48 8b 85 78 f0 ff ff 	mov    -0xf88(%rbp),%rax
   15de3:	8b 00                	mov    (%rax),%eax
   15de5:	39 85 08 f0 ff ff    	cmp    %eax,-0xff8(%rbp)
   15deb:	0f 97 c0             	seta   %al
   15dee:	0f b6 c0             	movzbl %al,%eax
   15df1:	be 07 00 00 00       	mov    $0x7,%esi
   15df6:	89 c7                	mov    %eax,%edi
   15df8:	e8 38 65 ff ff       	callq  c335 <safe_rshift_func_int8_t_s_s>
   15dfd:	ba 01 00 00 00       	mov    $0x1,%edx
   15e02:	48 8b 85 e0 f1 ff ff 	mov    -0xe20(%rbp),%rax
   15e09:	8b 00                	mov    (%rax),%eax
   15e0b:	31 c2                	xor    %eax,%edx
   15e0d:	48 8b 85 e0 f1 ff ff 	mov    -0xe20(%rbp),%rax
   15e14:	89 10                	mov    %edx,(%rax)
   15e16:	48 83 bd 78 f1 ff ff 	cmpq   $0x0,-0xe88(%rbp)
   15e1d:	00 
   15e1e:	0f 94 c0             	sete   %al
   15e21:	0f b6 d0             	movzbl %al,%edx
   15e24:	48 8b 85 48 f1 ff ff 	mov    -0xeb8(%rbp),%rax
   15e2b:	66 89 10             	mov    %dx,(%rax)
   15e2e:	48 8b 05 f3 1f 01 00 	mov    0x11ff3(%rip),%rax        # 27e28 <g_433>
   15e35:	8b 00                	mov    (%rax),%eax
   15e37:	89 c3                	mov    %eax,%ebx
   15e39:	48 8b 85 e0 f1 ff ff 	mov    -0xe20(%rbp),%rax
   15e40:	8b 00                	mov    (%rax),%eax
   15e42:	89 c6                	mov    %eax,%esi
   15e44:	bf ad 33 00 00       	mov    $0x33ad,%edi
   15e49:	e8 44 66 ff ff       	callq  c492 <safe_lshift_func_int16_t_s_s>
   15e4e:	66 3d 25 66          	cmp    $0x6625,%ax
   15e52:	0f 9f c0             	setg   %al
   15e55:	0f b6 c0             	movzbl %al,%eax
   15e58:	89 de                	mov    %ebx,%esi
   15e5a:	89 c7                	mov    %eax,%edi
   15e5c:	e8 6b 68 ff ff       	callq  c6cc <safe_mod_func_int32_t_s_s>
   15e61:	48 8b 85 f0 f0 ff ff 	mov    -0xf10(%rbp),%rax
   15e68:	48 89 85 60 f4 ff ff 	mov    %rax,-0xba0(%rbp)
   15e6f:	48 8b 8d 60 f4 ff ff 	mov    -0xba0(%rbp),%rcx
   15e76:	48 8b 15 eb 2d 01 00 	mov    0x12deb(%rip),%rdx        # 28c68 <g_2388>
   15e7d:	48 8b 85 e8 f1 ff ff 	mov    -0xe18(%rbp),%rax
   15e84:	48 89 10             	mov    %rdx,(%rax)
   15e87:	48 8b 85 e8 f1 ff ff 	mov    -0xe18(%rbp),%rax
   15e8e:	48 8b 00             	mov    (%rax),%rax
   15e91:	48 39 c1             	cmp    %rax,%rcx
   15e94:	0f 94 c0             	sete   %al
   15e97:	0f b6 c0             	movzbl %al,%eax
   15e9a:	be 01 00 00 00       	mov    $0x1,%esi
   15e9f:	89 c7                	mov    %eax,%edi
   15ea1:	e8 97 6e ff ff       	callq  cd3d <safe_mul_func_uint16_t_u_u>
   15ea6:	89 c2                	mov    %eax,%edx
   15ea8:	8b 05 9a 03 01 00    	mov    0x1039a(%rip),%eax        # 26248 <g_397>
   15eae:	31 d0                	xor    %edx,%eax
   15eb0:	0f be d8             	movsbl %al,%ebx
   15eb3:	48 8b 85 78 f0 ff ff 	mov    -0xf88(%rbp),%rax
   15eba:	8b 00                	mov    (%rax),%eax
   15ebc:	89 c6                	mov    %eax,%esi
   15ebe:	bf 00 00 00 00       	mov    $0x0,%edi
   15ec3:	e8 ee 66 ff ff       	callq  c5b6 <safe_add_func_int32_t_s_s>
   15ec8:	89 c2                	mov    %eax,%edx
   15eca:	48 8b 85 40 ef ff ff 	mov    -0x10c0(%rbp),%rax
   15ed1:	09 d0                	or     %edx,%eax
   15ed3:	0f be c0             	movsbl %al,%eax
   15ed6:	89 de                	mov    %ebx,%esi
   15ed8:	89 c7                	mov    %eax,%edi
   15eda:	e8 13 63 ff ff       	callq  c1f2 <safe_sub_func_int8_t_s_s>
   15edf:	c6 85 65 ef ff ff ff 	movb   $0xff,-0x109b(%rbp)
   15ee6:	c7 85 10 f6 ff ff 5e 	movl   $0x2ef4575e,-0x9f0(%rbp)
   15eed:	57 f4 2e 
   15ef0:	c7 85 14 f6 ff ff 5e 	movl   $0x2ef4575e,-0x9ec(%rbp)
   15ef7:	57 f4 2e 
   15efa:	c7 85 18 f6 ff ff 5e 	movl   $0x2ef4575e,-0x9e8(%rbp)
   15f01:	57 f4 2e 
   15f04:	c7 85 1c f6 ff ff 5e 	movl   $0x2ef4575e,-0x9e4(%rbp)
   15f0b:	57 f4 2e 
   15f0e:	c7 85 20 f6 ff ff 5e 	movl   $0x2ef4575e,-0x9e0(%rbp)
   15f15:	57 f4 2e 
   15f18:	c7 85 24 f6 ff ff 5e 	movl   $0x2ef4575e,-0x9dc(%rbp)
   15f1f:	57 f4 2e 
   15f22:	c7 85 28 f6 ff ff 5e 	movl   $0x2ef4575e,-0x9d8(%rbp)
   15f29:	57 f4 2e 
   15f2c:	c7 85 2c f6 ff ff 5e 	movl   $0x2ef4575e,-0x9d4(%rbp)
   15f33:	57 f4 2e 
   15f36:	c7 85 30 f6 ff ff 5e 	movl   $0x2ef4575e,-0x9d0(%rbp)
   15f3d:	57 f4 2e 
   15f40:	48 8d 05 e1 2b 01 00 	lea    0x12be1(%rip),%rax        # 28b28 <g_1771>
   15f47:	48 89 85 f8 f1 ff ff 	mov    %rax,-0xe08(%rbp)
   15f4e:	48 c7 85 00 f2 ff ff 	movq   $0x0,-0xe00(%rbp)
   15f55:	00 00 00 00 
   15f59:	48 c7 05 cc 02 01 00 	movq   $0x2,0x102cc(%rip)        # 26230 <g_298>
   15f60:	02 00 00 00 
   15f64:	e9 58 01 00 00       	jmpq   160c1 <func_18+0x2d0e>
   15f69:	48 8d 05 38 4f 01 00 	lea    0x14f38(%rip),%rax        # 2aea8 <g_614>
   15f70:	48 89 85 08 f2 ff ff 	mov    %rax,-0xdf8(%rbp)
   15f77:	c7 85 10 f0 ff ff ff 	movl   $0xffffffff,-0xff0(%rbp)
   15f7e:	ff ff ff 
   15f81:	48 c7 85 10 f2 ff ff 	movq   $0x0,-0xdf0(%rbp)
   15f88:	00 00 00 00 
   15f8c:	48 8d 85 b0 f4 ff ff 	lea    -0xb50(%rbp),%rax
   15f93:	48 83 c0 08          	add    $0x8,%rax
   15f97:	48 89 85 18 f2 ff ff 	mov    %rax,-0xde8(%rbp)
   15f9e:	48 c7 85 20 f2 ff ff 	movq   $0x0,-0xde0(%rbp)
   15fa5:	00 00 00 00 
   15fa9:	48 8d 05 98 02 01 00 	lea    0x10298(%rip),%rax        # 26248 <g_397>
   15fb0:	48 89 85 28 f2 ff ff 	mov    %rax,-0xdd8(%rbp)
   15fb7:	48 8d 85 98 f4 ff ff 	lea    -0xb68(%rbp),%rax
   15fbe:	48 83 c0 08          	add    $0x8,%rax
   15fc2:	48 89 85 30 f2 ff ff 	mov    %rax,-0xdd0(%rbp)
   15fc9:	48 8d 85 94 ef ff ff 	lea    -0x106c(%rbp),%rax
   15fd0:	48 89 85 38 f2 ff ff 	mov    %rax,-0xdc8(%rbp)
   15fd7:	48 8d 85 98 f4 ff ff 	lea    -0xb68(%rbp),%rax
   15fde:	48 83 c0 04          	add    $0x4,%rax
   15fe2:	48 89 85 40 f2 ff ff 	mov    %rax,-0xdc0(%rbp)
   15fe9:	48 8b 05 30 2b 01 00 	mov    0x12b30(%rip),%rax        # 28b20 <g_1772>
   15ff0:	48 8b 00             	mov    (%rax),%rax
   15ff3:	48 8b 00             	mov    (%rax),%rax
   15ff6:	0f be 95 65 ef ff ff 	movsbl -0x109b(%rbp),%edx
   15ffd:	89 10                	mov    %edx,(%rax)
   15fff:	48 8b 85 78 f0 ff ff 	mov    -0xf88(%rbp),%rax
   16006:	c7 00 00 00 00 00    	movl   $0x0,(%rax)
   1600c:	48 8b 85 a8 f1 ff ff 	mov    -0xe58(%rbp),%rax
   16013:	48 8d 15 ae 4e 01 00 	lea    0x14eae(%rip),%rdx        # 2aec8 <g_1067>
   1601a:	48 89 10             	mov    %rdx,(%rax)
   1601d:	48 8b 05 24 2c 01 00 	mov    0x12c24(%rip),%rax        # 28c48 <g_2122>
   16024:	48 c7 00 00 00 00 00 	movq   $0x0,(%rax)
   1602b:	48 8b 85 40 ef ff ff 	mov    -0x10c0(%rbp),%rax
   16032:	0f b6 d8             	movzbl %al,%ebx
   16035:	be 0c 00 00 00       	mov    $0xc,%esi
   1603a:	bf 01 00 00 00       	mov    $0x1,%edi
   1603f:	e8 4e 64 ff ff       	callq  c492 <safe_lshift_func_int16_t_s_s>
   16044:	8b 85 a4 f4 ff ff    	mov    -0xb5c(%rbp),%eax
   1604a:	85 c0                	test   %eax,%eax
   1604c:	0f 94 c0             	sete   %al
   1604f:	0f b6 c0             	movzbl %al,%eax
   16052:	39 85 10 f0 ff ff    	cmp    %eax,-0xff0(%rbp)
   16058:	0f 94 c0             	sete   %al
   1605b:	0f b6 c0             	movzbl %al,%eax
   1605e:	89 de                	mov    %ebx,%esi
   16060:	89 c7                	mov    %eax,%edi
   16062:	e8 2c 6b ff ff       	callq  cb93 <safe_mul_func_uint8_t_u_u>
   16067:	0f b6 c0             	movzbl %al,%eax
   1606a:	be 0a 00 00 00       	mov    $0xa,%esi
   1606f:	89 c7                	mov    %eax,%edi
   16071:	e8 90 6d ff ff       	callq  ce06 <safe_lshift_func_uint16_t_u_u>
   16076:	0f b7 c0             	movzwl %ax,%eax
   16079:	be f3 f6 c0 62       	mov    $0x62c0f6f3,%esi
   1607e:	89 c7                	mov    %eax,%edi
   16080:	e8 7a 66 ff ff       	callq  c6ff <safe_div_func_int32_t_s_s>
   16085:	89 c2                	mov    %eax,%edx
   16087:	48 8b 85 40 ef ff ff 	mov    -0x10c0(%rbp),%rax
   1608e:	31 d0                	xor    %edx,%eax
   16090:	0f b6 c0             	movzbl %al,%eax
   16093:	be 00 00 00 00       	mov    $0x0,%esi
   16098:	89 c7                	mov    %eax,%edi
   1609a:	e8 ad 6b ff ff       	callq  cc4c <safe_lshift_func_uint8_t_u_u>
   1609f:	0f b6 c0             	movzbl %al,%eax
   160a2:	89 85 1c f6 ff ff    	mov    %eax,-0x9e4(%rbp)
   160a8:	83 85 b4 ef ff ff 01 	addl   $0x1,-0x104c(%rbp)
   160af:	48 8b 05 7a 01 01 00 	mov    0x1017a(%rip),%rax        # 26230 <g_298>
   160b6:	48 83 e8 01          	sub    $0x1,%rax
   160ba:	48 89 05 6f 01 01 00 	mov    %rax,0x1016f(%rip)        # 26230 <g_298>
   160c1:	48 8b 05 68 01 01 00 	mov    0x10168(%rip),%rax        # 26230 <g_298>
   160c8:	48 85 c0             	test   %rax,%rax
   160cb:	0f 89 98 fe ff ff    	jns    15f69 <func_18+0x2bb6>
   160d1:	48 8b 85 48 ef ff ff 	mov    -0x10b8(%rbp),%rax
   160d8:	0f be d8             	movsbl %al,%ebx
   160db:	48 8b 85 f8 f1 ff ff 	mov    -0xe08(%rbp),%rax
   160e2:	48 3b 85 80 f1 ff ff 	cmp    -0xe80(%rbp),%rax
   160e9:	0f b6 05 d8 ff 00 00 	movzbl 0xffd8(%rip),%eax        # 260c8 <g_56>
   160f0:	44 0f b6 e0          	movzbl %al,%r12d
   160f4:	8b 85 74 f4 ff ff    	mov    -0xb8c(%rbp),%eax
   160fa:	98                   	cwtl   
   160fb:	89 c6                	mov    %eax,%esi
   160fd:	bf 00 00 00 00       	mov    $0x0,%edi
   16102:	e8 ac 62 ff ff       	callq  c3b3 <safe_add_func_int16_t_s_s>
   16107:	98                   	cwtl   
   16108:	44 89 e6             	mov    %r12d,%esi
   1610b:	89 c7                	mov    %eax,%edi
   1610d:	e8 a1 62 ff ff       	callq  c3b3 <safe_add_func_int16_t_s_s>
   16112:	66 85 c0             	test   %ax,%ax
   16115:	74 07                	je     1611e <func_18+0x2d6b>
   16117:	b8 01 00 00 00       	mov    $0x1,%eax
   1611c:	eb 05                	jmp    16123 <func_18+0x2d70>
   1611e:	b8 00 00 00 00       	mov    $0x0,%eax
   16123:	89 c2                	mov    %eax,%edx
   16125:	48 8b 85 40 ef ff ff 	mov    -0x10c0(%rbp),%rax
   1612c:	89 d6                	mov    %edx,%esi
   1612e:	89 c7                	mov    %eax,%edi
   16130:	e8 c8 6d ff ff       	callq  cefd <safe_mod_func_uint32_t_u_u>
   16135:	85 c0                	test   %eax,%eax
   16137:	75 0d                	jne    16146 <func_18+0x2d93>
   16139:	48 8b 05 e8 1c 01 00 	mov    0x11ce8(%rip),%rax        # 27e28 <g_433>
   16140:	8b 00                	mov    (%rax),%eax
   16142:	85 c0                	test   %eax,%eax
   16144:	74 07                	je     1614d <func_18+0x2d9a>
   16146:	b8 01 00 00 00       	mov    $0x1,%eax
   1614b:	eb 05                	jmp    16152 <func_18+0x2d9f>
   1614d:	b8 00 00 00 00       	mov    $0x0,%eax
   16152:	85 c0                	test   %eax,%eax
   16154:	74 17                	je     1616d <func_18+0x2dba>
   16156:	48 8b 85 f8 f1 ff ff 	mov    -0xe08(%rbp),%rax
   1615d:	48 8b 00             	mov    (%rax),%rax
   16160:	48 8b 00             	mov    (%rax),%rax
   16163:	48 8b 00             	mov    (%rax),%rax
   16166:	48 8b 00             	mov    (%rax),%rax
   16169:	8b 00                	mov    (%rax),%eax
   1616b:	85 c0                	test   %eax,%eax
   1616d:	48 8b 05 1c 29 01 00 	mov    0x1291c(%rip),%rax        # 28a90 <g_1365>
   16174:	48 8b 00             	mov    (%rax),%rax
   16177:	48 8d 95 98 f4 ff ff 	lea    -0xb68(%rbp),%rdx
   1617e:	48 83 c2 04          	add    $0x4,%rdx
   16182:	48 39 d0             	cmp    %rdx,%rax
   16185:	0f 94 c2             	sete   %dl
   16188:	48 8b 85 f8 f1 ff ff 	mov    -0xe08(%rbp),%rax
   1618f:	48 8b 00             	mov    (%rax),%rax
   16192:	48 8b 00             	mov    (%rax),%rax
   16195:	48 8b 00             	mov    (%rax),%rax
   16198:	48 8b 00             	mov    (%rax),%rax
   1619b:	0f b6 d2             	movzbl %dl,%edx
   1619e:	89 10                	mov    %edx,(%rax)
   161a0:	8b 00                	mov    (%rax),%eax
   161a2:	83 c8 fa             	or     $0xfffffffa,%eax
   161a5:	0f be c0             	movsbl %al,%eax
   161a8:	89 de                	mov    %ebx,%esi
   161aa:	89 c7                	mov    %eax,%edi
   161ac:	e8 61 60 ff ff       	callq  c212 <safe_mul_func_int8_t_s_s>
   161b1:	0f be c0             	movsbl %al,%eax
   161b4:	f7 d0                	not    %eax
   161b6:	be 1f b6 0d de       	mov    $0xde0db61f,%esi
   161bb:	89 c7                	mov    %eax,%edi
   161bd:	e8 43 64 ff ff       	callq  c605 <safe_sub_func_int32_t_s_s>
   161c2:	0f b7 95 40 f7 ff ff 	movzwl -0x8c0(%rbp),%edx
   161c9:	0f bf d2             	movswl %dx,%edx
   161cc:	39 d0                	cmp    %edx,%eax
   161ce:	0f 8e 99 00 00 00    	jle    1626d <func_18+0x2eba>
   161d4:	48 8b 85 38 ef ff ff 	mov    -0x10c8(%rbp),%rax
   161db:	89 c2                	mov    %eax,%edx
   161dd:	48 83 bd 88 f1 ff ff 	cmpq   $0x0,-0xe78(%rbp)
   161e4:	00 
   161e5:	0f 94 c0             	sete   %al
   161e8:	0f b6 c0             	movzbl %al,%eax
   161eb:	89 d6                	mov    %edx,%esi
   161ed:	89 c7                	mov    %eax,%edi
   161ef:	e8 0b 65 ff ff       	callq  c6ff <safe_div_func_int32_t_s_s>
   161f4:	98                   	cwtl   
   161f5:	48 8b 95 28 f1 ff ff 	mov    -0xed8(%rbp),%rdx
   161fc:	8b 12                	mov    (%rdx),%edx
   161fe:	83 f2 fc             	xor    $0xfffffffc,%edx
   16201:	89 d1                	mov    %edx,%ecx
   16203:	48 8b 95 28 f1 ff ff 	mov    -0xed8(%rbp),%rdx
   1620a:	89 0a                	mov    %ecx,(%rdx)
   1620c:	89 c6                	mov    %eax,%esi
   1620e:	bf 01 00 00 00       	mov    $0x1,%edi
   16213:	e8 fe 61 ff ff       	callq  c416 <safe_mod_func_int16_t_s_s>
   16218:	48 0f bf c0          	movswq %ax,%rax
   1621c:	48 3d 93 83 e1 5f    	cmp    $0x5fe18393,%rax
   16222:	74 07                	je     1622b <func_18+0x2e78>
   16224:	b8 01 00 00 00       	mov    $0x1,%eax
   16229:	eb 05                	jmp    16230 <func_18+0x2e7d>
   1622b:	b8 00 00 00 00       	mov    $0x0,%eax
   16230:	84 c0                	test   %al,%al
   16232:	75 14                	jne    16248 <func_18+0x2e95>
   16234:	48 8b 05 ed 28 01 00 	mov    0x128ed(%rip),%rax        # 28b28 <g_1771>
   1623b:	48 8b 00             	mov    (%rax),%rax
   1623e:	48 8b 00             	mov    (%rax),%rax
   16241:	48 8b 00             	mov    (%rax),%rax
   16244:	8b 00                	mov    (%rax),%eax
   16246:	85 c0                	test   %eax,%eax
   16248:	48 8b 85 40 ef ff ff 	mov    -0x10c0(%rbp),%rax
   1624f:	89 c2                	mov    %eax,%edx
   16251:	48 8b 85 e0 f1 ff ff 	mov    -0xe20(%rbp),%rax
   16258:	89 10                	mov    %edx,(%rax)
   1625a:	66 83 bd 74 ef ff ff 	cmpw   $0x0,-0x108c(%rbp)
   16261:	00 
   16262:	0f 84 6c 01 00 00    	je     163d4 <func_18+0x3021>
   16268:	e9 aa e6 ff ff       	jmpq   14917 <func_18+0x1564>
   1626d:	48 8b 05 8c 1b 01 00 	mov    0x11b8c(%rip),%rax        # 27e00 <g_87>
   16274:	0f b6 00             	movzbl (%rax),%eax
   16277:	0f b6 c0             	movzbl %al,%eax
   1627a:	be 03 00 00 00       	mov    $0x3,%esi
   1627f:	89 c7                	mov    %eax,%edi
   16281:	e8 07 6a ff ff       	callq  cc8d <safe_rshift_func_uint8_t_u_s>
   16286:	44 0f b6 e0          	movzbl %al,%r12d
   1628a:	8b 85 2c ef ff ff    	mov    -0x10d4(%rbp),%eax
   16290:	0f be d8             	movsbl %al,%ebx
   16293:	0f b7 05 9c 00 01 00 	movzwl 0x1009c(%rip),%eax        # 26336 <g_2459>
   1629a:	0f b7 c0             	movzwl %ax,%eax
   1629d:	be 01 00 00 00       	mov    $0x1,%esi
   162a2:	89 c7                	mov    %eax,%edi
   162a4:	e8 e5 6a ff ff       	callq  cd8e <safe_div_func_uint16_t_u_u>
   162a9:	be 67 e4 00 00       	mov    $0xe467,%esi
   162ae:	bf 00 00 00 00       	mov    $0x0,%edi
   162b3:	e8 47 6a ff ff       	callq  ccff <safe_add_func_uint16_t_u_u>
   162b8:	89 de                	mov    %ebx,%esi
   162ba:	bf 01 00 00 00       	mov    $0x1,%edi
   162bf:	e8 2e 5f ff ff       	callq  c1f2 <safe_sub_func_int8_t_s_s>
   162c4:	84 c0                	test   %al,%al
   162c6:	75 0c                	jne    162d4 <func_18+0x2f21>
   162c8:	48 8b 85 48 ef ff ff 	mov    -0x10b8(%rbp),%rax
   162cf:	48 85 c0             	test   %rax,%rax
   162d2:	74 07                	je     162db <func_18+0x2f28>
   162d4:	b8 01 00 00 00       	mov    $0x1,%eax
   162d9:	eb 05                	jmp    162e0 <func_18+0x2f2d>
   162db:	b8 00 00 00 00       	mov    $0x0,%eax
   162e0:	48 63 d0             	movslq %eax,%rdx
   162e3:	48 8b 85 48 ef ff ff 	mov    -0x10b8(%rbp),%rax
   162ea:	48 39 c2             	cmp    %rax,%rdx
   162ed:	0f 95 c0             	setne  %al
   162f0:	0f b6 c0             	movzbl %al,%eax
   162f3:	48 be 5f f3 ca 74 2e 	movabs $0x8e39d72e74caf35f,%rsi
   162fa:	d7 39 8e 
   162fd:	48 89 c7             	mov    %rax,%rdi
   16300:	e8 29 6d ff ff       	callq  d02e <safe_add_func_uint64_t_u_u>
   16305:	48 8b 95 30 ef ff ff 	mov    -0x10d0(%rbp),%rdx
   1630c:	48 09 d0             	or     %rdx,%rax
   1630f:	49 39 c4             	cmp    %rax,%r12
   16312:	74 17                	je     1632b <func_18+0x2f78>
   16314:	48 8b 85 f8 f1 ff ff 	mov    -0xe08(%rbp),%rax
   1631b:	48 8b 00             	mov    (%rax),%rax
   1631e:	48 8b 00             	mov    (%rax),%rax
   16321:	48 8b 00             	mov    (%rax),%rax
   16324:	48 8b 00             	mov    (%rax),%rax
   16327:	8b 00                	mov    (%rax),%eax
   16329:	85 c0                	test   %eax,%eax
   1632b:	8b 85 2c ef ff ff    	mov    -0x10d4(%rbp),%eax
   16331:	be 65 0c 20 6f       	mov    $0x6f200c65,%esi
   16336:	89 c7                	mov    %eax,%edi
   16338:	e8 c0 6b ff ff       	callq  cefd <safe_mod_func_uint32_t_u_u>
   1633d:	48 8b 85 30 ef ff ff 	mov    -0x10d0(%rbp),%rax
   16344:	98                   	cwtl   
   16345:	be 01 00 00 00       	mov    $0x1,%esi
   1634a:	89 c7                	mov    %eax,%edi
   1634c:	e8 62 60 ff ff       	callq  c3b3 <safe_add_func_int16_t_s_s>
   16351:	8b 05 41 ff 00 00    	mov    0xff41(%rip),%eax        # 26298 <g_528>
   16357:	85 c0                	test   %eax,%eax
   16359:	0f 95 c0             	setne  %al
   1635c:	0f b6 d0             	movzbl %al,%edx
   1635f:	48 8b 85 a8 f1 ff ff 	mov    -0xe58(%rbp),%rax
   16366:	48 8d 0d 5b 4b 01 00 	lea    0x14b5b(%rip),%rcx        # 2aec8 <g_1067>
   1636d:	48 89 08             	mov    %rcx,(%rax)
   16370:	48 8b 85 a8 f1 ff ff 	mov    -0xe58(%rbp),%rax
   16377:	48 8b 00             	mov    (%rax),%rax
   1637a:	48 8d 8d 60 f6 ff ff 	lea    -0x9a0(%rbp),%rcx
   16381:	48 83 c1 08          	add    $0x8,%rcx
   16385:	48 39 c8             	cmp    %rcx,%rax
   16388:	0f 94 c0             	sete   %al
   1638b:	0f b6 c0             	movzbl %al,%eax
   1638e:	89 d6                	mov    %edx,%esi
   16390:	89 c7                	mov    %eax,%edi
   16392:	e8 5e 60 ff ff       	callq  c3f5 <safe_mul_func_int16_t_s_s>
   16397:	89 c2                	mov    %eax,%edx
   16399:	48 8b 85 78 f0 ff ff 	mov    -0xf88(%rbp),%rax
   163a0:	0f bf d2             	movswl %dx,%edx
   163a3:	89 10                	mov    %edx,(%rax)
   163a5:	8b 85 2c ef ff ff    	mov    -0x10d4(%rbp),%eax
   163ab:	48 98                	cltq   
   163ad:	48 39 85 30 ef ff ff 	cmp    %rax,-0x10d0(%rbp)
   163b4:	0f 9c c2             	setl   %dl
   163b7:	48 8d 05 8a 1a 01 00 	lea    0x11a8a(%rip),%rax        # 27e48 <g_489>
   163be:	48 8b 00             	mov    (%rax),%rax
   163c1:	48 8b 00             	mov    (%rax),%rax
   163c4:	0f b6 d2             	movzbl %dl,%edx
   163c7:	89 10                	mov    %edx,(%rax)
   163c9:	8b 10                	mov    (%rax),%edx
   163cb:	48 8b 85 28 f1 ff ff 	mov    -0xed8(%rbp),%rax
   163d2:	89 10                	mov    %edx,(%rax)
   163d4:	0f b6 45 bd          	movzbl -0x43(%rbp),%eax
   163d8:	0f be d8             	movsbl %al,%ebx
   163db:	48 8b 85 38 ef ff ff 	mov    -0x10c8(%rbp),%rax
   163e2:	41 89 c4             	mov    %eax,%r12d
   163e5:	48 8b 85 b8 f1 ff ff 	mov    -0xe48(%rbp),%rax
   163ec:	0f b6 00             	movzbl (%rax),%eax
   163ef:	83 c8 fc             	or     $0xfffffffc,%eax
   163f2:	89 c2                	mov    %eax,%edx
   163f4:	48 8b 85 b8 f1 ff ff 	mov    -0xe48(%rbp),%rax
   163fb:	88 10                	mov    %dl,(%rax)
   163fd:	48 8b 85 b8 f1 ff ff 	mov    -0xe48(%rbp),%rax
   16404:	0f b6 00             	movzbl (%rax),%eax
   16407:	0f be c0             	movsbl %al,%eax
   1640a:	48 8b 8d 38 ef ff ff 	mov    -0x10c8(%rbp),%rcx
   16411:	48 8b 95 48 ef ff ff 	mov    -0x10b8(%rbp),%rdx
   16418:	48 39 d1             	cmp    %rdx,%rcx
   1641b:	76 07                	jbe    16424 <func_18+0x3071>
   1641d:	ba 01 00 00 00       	mov    $0x1,%edx
   16422:	eb 05                	jmp    16429 <func_18+0x3076>
   16424:	ba 00 00 00 00       	mov    $0x0,%edx
   16429:	39 c2                	cmp    %eax,%edx
   1642b:	0f 9c c0             	setl   %al
   1642e:	0f b6 c0             	movzbl %al,%eax
   16431:	48 39 85 38 ef ff ff 	cmp    %rax,-0x10c8(%rbp)
   16438:	0f 94 c2             	sete   %dl
   1643b:	48 8b 85 78 f0 ff ff 	mov    -0xf88(%rbp),%rax
   16442:	0f b6 d2             	movzbl %dl,%edx
   16445:	89 10                	mov    %edx,(%rax)
   16447:	8b 85 d8 ef ff ff    	mov    -0x1028(%rbp),%eax
   1644d:	48 98                	cltq   
   1644f:	48 39 85 38 ef ff ff 	cmp    %rax,-0x10c8(%rbp)
   16456:	0f 94 c0             	sete   %al
   16459:	0f b6 c0             	movzbl %al,%eax
   1645c:	89 85 f0 ef ff ff    	mov    %eax,-0x1010(%rbp)
   16462:	48 8b 05 97 19 01 00 	mov    0x11997(%rip),%rax        # 27e00 <g_87>
   16469:	0f b6 00             	movzbl (%rax),%eax
   1646c:	0f b6 c0             	movzbl %al,%eax
   1646f:	be 06 00 00 00       	mov    $0x6,%esi
   16474:	89 c7                	mov    %eax,%edi
   16476:	e8 8a 67 ff ff       	callq  cc05 <safe_lshift_func_uint8_t_u_s>
   1647b:	84 c0                	test   %al,%al
   1647d:	74 08                	je     16487 <func_18+0x30d4>
   1647f:	48 83 bd 30 ef ff ff 	cmpq   $0x0,-0x10d0(%rbp)
   16486:	00 
   16487:	48 8b 85 48 ef ff ff 	mov    -0x10b8(%rbp),%rax
   1648e:	48 85 c0             	test   %rax,%rax
   16491:	48 8b 05 80 26 01 00 	mov    0x12680(%rip),%rax        # 28b18 <g_1560>
   16498:	48 8b 00             	mov    (%rax),%rax
   1649b:	48 8b 00             	mov    (%rax),%rax
   1649e:	48 85 c0             	test   %rax,%rax
   164a1:	0f 95 c0             	setne  %al
   164a4:	0f b6 c0             	movzbl %al,%eax
   164a7:	48 0b 85 30 ef ff ff 	or     -0x10d0(%rbp),%rax
   164ae:	48 39 85 30 ef ff ff 	cmp    %rax,-0x10d0(%rbp)
   164b5:	0f 9c c0             	setl   %al
   164b8:	0f b6 c0             	movzbl %al,%eax
   164bb:	44 89 e6             	mov    %r12d,%esi
   164be:	89 c7                	mov    %eax,%edi
   164c0:	e8 9e 60 ff ff       	callq  c563 <safe_rshift_func_int16_t_s_u>
   164c5:	48 8b 85 28 f1 ff ff 	mov    -0xed8(%rbp),%rax
   164cc:	8b 00                	mov    (%rax),%eax
   164ce:	85 c0                	test   %eax,%eax
   164d0:	75 0b                	jne    164dd <func_18+0x312a>
   164d2:	0f b6 85 5e ef ff ff 	movzbl -0x10a2(%rbp),%eax
   164d9:	84 c0                	test   %al,%al
   164db:	74 07                	je     164e4 <func_18+0x3131>
   164dd:	ba 01 00 00 00       	mov    $0x1,%edx
   164e2:	eb 05                	jmp    164e9 <func_18+0x3136>
   164e4:	ba 00 00 00 00       	mov    $0x0,%edx
   164e9:	48 8b 85 28 f1 ff ff 	mov    -0xed8(%rbp),%rax
   164f0:	89 10                	mov    %edx,(%rax)
   164f2:	8b 85 2c ef ff ff    	mov    -0x10d4(%rbp),%eax
   164f8:	83 f0 01             	xor    $0x1,%eax
   164fb:	0f be d0             	movsbl %al,%edx
   164fe:	48 8b 05 13 19 01 00 	mov    0x11913(%rip),%rax        # 27e18 <g_410>
   16505:	48 8b 8d 30 f1 ff ff 	mov    -0xed0(%rbp),%rcx
   1650c:	88 08                	mov    %cl,(%rax)
   1650e:	0f b6 00             	movzbl (%rax),%eax
   16511:	0f be c0             	movsbl %al,%eax
   16514:	89 d6                	mov    %edx,%esi
   16516:	89 c7                	mov    %eax,%edi
   16518:	e8 d5 5c ff ff       	callq  c1f2 <safe_sub_func_int8_t_s_s>
   1651d:	48 8b 85 a0 f1 ff ff 	mov    -0xe60(%rbp),%rax
   16524:	48 8b 00             	mov    (%rax),%rax
   16527:	48 8b 00             	mov    (%rax),%rax
   1652a:	48 85 c0             	test   %rax,%rax
   1652d:	0f 94 c0             	sete   %al
   16530:	0f b6 c0             	movzbl %al,%eax
   16533:	89 de                	mov    %ebx,%esi
   16535:	89 c7                	mov    %eax,%edi
   16537:	e8 b6 5c ff ff       	callq  c1f2 <safe_sub_func_int8_t_s_s>
   1653c:	83 bd 2c ef ff ff 01 	cmpl   $0x1,-0x10d4(%rbp)
   16543:	0f 9e c0             	setle  %al
   16546:	0f b6 c0             	movzbl %al,%eax
   16549:	48 8b 95 30 ef ff ff 	mov    -0x10d0(%rbp),%rdx
   16550:	48 89 d6             	mov    %rdx,%rsi
   16553:	48 89 c7             	mov    %rax,%rdi
   16556:	e8 4d 63 ff ff       	callq  c8a8 <safe_sub_func_int64_t_s_s>
   1655b:	48 85 c0             	test   %rax,%rax
   1655e:	0f 84 79 16 00 00    	je     17bdd <func_18+0x482a>
   16564:	48 8d 05 b5 25 01 00 	lea    0x125b5(%rip),%rax        # 28b20 <g_1772>
   1656b:	48 89 85 10 f6 ff ff 	mov    %rax,-0x9f0(%rbp)
   16572:	48 8d 05 a7 25 01 00 	lea    0x125a7(%rip),%rax        # 28b20 <g_1772>
   16579:	48 89 85 18 f6 ff ff 	mov    %rax,-0x9e8(%rbp)
   16580:	48 8d 05 99 25 01 00 	lea    0x12599(%rip),%rax        # 28b20 <g_1772>
   16587:	48 89 85 20 f6 ff ff 	mov    %rax,-0x9e0(%rbp)
   1658e:	48 8d 05 8b 25 01 00 	lea    0x1258b(%rip),%rax        # 28b20 <g_1772>
   16595:	48 89 85 28 f6 ff ff 	mov    %rax,-0x9d8(%rbp)
   1659c:	48 8d 05 7d 25 01 00 	lea    0x1257d(%rip),%rax        # 28b20 <g_1772>
   165a3:	48 89 85 30 f6 ff ff 	mov    %rax,-0x9d0(%rbp)
   165aa:	48 8d 05 6f 25 01 00 	lea    0x1256f(%rip),%rax        # 28b20 <g_1772>
   165b1:	48 89 85 38 f6 ff ff 	mov    %rax,-0x9c8(%rbp)
   165b8:	48 8d 05 61 25 01 00 	lea    0x12561(%rip),%rax        # 28b20 <g_1772>
   165bf:	48 89 85 40 f6 ff ff 	mov    %rax,-0x9c0(%rbp)
   165c6:	48 8d 05 53 25 01 00 	lea    0x12553(%rip),%rax        # 28b20 <g_1772>
   165cd:	48 89 85 48 f6 ff ff 	mov    %rax,-0x9b8(%rbp)
   165d4:	48 8d 05 45 25 01 00 	lea    0x12545(%rip),%rax        # 28b20 <g_1772>
   165db:	48 89 85 50 f6 ff ff 	mov    %rax,-0x9b0(%rbp)
   165e2:	48 8d 05 17 fc 00 00 	lea    0xfc17(%rip),%rax        # 26200 <g_260>
   165e9:	48 89 85 a0 f3 ff ff 	mov    %rax,-0xc60(%rbp)
   165f0:	c6 85 6a ef ff ff f9 	movb   $0xf9,-0x1096(%rbp)
   165f7:	48 8d 05 72 48 01 00 	lea    0x14872(%rip),%rax        # 2ae70 <g_240>
   165fe:	48 89 85 a8 f3 ff ff 	mov    %rax,-0xc58(%rbp)
   16605:	c7 85 48 f0 ff ff 01 	movl   $0x1,-0xfb8(%rbp)
   1660c:	00 00 00 
   1660f:	c7 85 ac ef ff ff 00 	movl   $0x0,-0x1054(%rbp)
   16616:	00 00 00 
   16619:	eb 1b                	jmp    16636 <func_18+0x3283>
   1661b:	8b 85 ac ef ff ff    	mov    -0x1054(%rbp),%eax
   16621:	48 98                	cltq   
   16623:	48 c7 84 c5 78 f4 ff 	movq   $0x0,-0xb88(%rbp,%rax,8)
   1662a:	ff 00 00 00 00 
   1662f:	83 85 ac ef ff ff 01 	addl   $0x1,-0x1054(%rbp)
   16636:	83 bd ac ef ff ff 00 	cmpl   $0x0,-0x1054(%rbp)
   1663d:	7e dc                	jle    1661b <func_18+0x3268>
   1663f:	c7 85 d8 ef ff ff 02 	movl   $0x2,-0x1028(%rbp)
   16646:	00 00 00 
   16649:	e9 d3 0f 00 00       	jmpq   17621 <func_18+0x426e>
   1664e:	c6 85 6b ef ff ff 36 	movb   $0x36,-0x1095(%rbp)
   16655:	48 8d 05 54 25 01 00 	lea    0x12554(%rip),%rax        # 28bb0 <g_1937>
   1665c:	48 89 85 b8 f3 ff ff 	mov    %rax,-0xc48(%rbp)
   16663:	48 8d 05 4e fc 00 00 	lea    0xfc4e(%rip),%rax        # 262b8 <g_854>
   1666a:	48 89 85 c0 f3 ff ff 	mov    %rax,-0xc40(%rbp)
   16671:	48 8d 05 50 fa 00 00 	lea    0xfa50(%rip),%rax        # 260c8 <g_56>
   16678:	48 89 85 c8 f3 ff ff 	mov    %rax,-0xc38(%rbp)
   1667f:	c7 85 90 f5 ff ff 01 	movl   $0x1,-0xa70(%rbp)
   16686:	00 00 00 
   16689:	c7 85 94 f5 ff ff 01 	movl   $0x1,-0xa6c(%rbp)
   16690:	00 00 00 
   16693:	c7 85 98 f5 ff ff 01 	movl   $0x1,-0xa68(%rbp)
   1669a:	00 00 00 
   1669d:	c7 85 9c f5 ff ff 2d 	movl   $0xffb4b72d,-0xa64(%rbp)
   166a4:	b7 b4 ff 
   166a7:	c7 85 a0 f5 ff ff 2d 	movl   $0xffb4b72d,-0xa60(%rbp)
   166ae:	b7 b4 ff 
   166b1:	c7 85 a4 f5 ff ff 01 	movl   $0x1,-0xa5c(%rbp)
   166b8:	00 00 00 
   166bb:	c7 85 a8 f5 ff ff 01 	movl   $0x1,-0xa58(%rbp)
   166c2:	00 00 00 
   166c5:	c7 85 ac f5 ff ff 01 	movl   $0x1,-0xa54(%rbp)
   166cc:	00 00 00 
   166cf:	c7 85 b0 f5 ff ff 2d 	movl   $0xffb4b72d,-0xa50(%rbp)
   166d6:	b7 b4 ff 
   166d9:	c7 85 b4 f5 ff ff 2d 	movl   $0xffb4b72d,-0xa4c(%rbp)
   166e0:	b7 b4 ff 
   166e3:	48 8d 85 70 fb ff ff 	lea    -0x490(%rbp),%rax
   166ea:	48 8d 15 0f 06 01 00 	lea    0x1060f(%rip),%rdx        # 26d00 <g_4408+0x920>
   166f1:	b9 40 00 00 00       	mov    $0x40,%ecx
   166f6:	48 89 c7             	mov    %rax,%rdi
   166f9:	48 89 d6             	mov    %rdx,%rsi
   166fc:	f3 48 a5             	rep movsq %ds:(%rsi),%es:(%rdi)
   166ff:	48 8d 05 62 25 01 00 	lea    0x12562(%rip),%rax        # 28c68 <g_2388>
   16706:	48 89 85 d0 f3 ff ff 	mov    %rax,-0xc30(%rbp)
   1670d:	48 8b 05 0c 24 01 00 	mov    0x1240c(%rip),%rax        # 28b20 <g_1772>
   16714:	48 8b 00             	mov    (%rax),%rax
   16717:	48 8b 00             	mov    (%rax),%rax
   1671a:	8b 10                	mov    (%rax),%edx
   1671c:	48 8b 85 30 ef ff ff 	mov    -0x10d0(%rbp),%rax
   16723:	89 c1                	mov    %eax,%ecx
   16725:	48 8b 05 f4 23 01 00 	mov    0x123f4(%rip),%rax        # 28b20 <g_1772>
   1672c:	48 8b 00             	mov    (%rax),%rax
   1672f:	48 8b 00             	mov    (%rax),%rax
   16732:	31 ca                	xor    %ecx,%edx
   16734:	89 10                	mov    %edx,(%rax)
   16736:	48 8b 05 db 16 01 00 	mov    0x116db(%rip),%rax        # 27e18 <g_410>
   1673d:	0f b6 00             	movzbl (%rax),%eax
   16740:	0f be d8             	movsbl %al,%ebx
   16743:	8b 85 74 f4 ff ff    	mov    -0xb8c(%rbp),%eax
   16749:	0f b7 c0             	movzwl %ax,%eax
   1674c:	be 04 00 00 00       	mov    $0x4,%esi
   16751:	89 c7                	mov    %eax,%edi
   16753:	e8 22 67 ff ff       	callq  ce7a <safe_rshift_func_uint16_t_u_u>
   16758:	0f b7 d0             	movzwl %ax,%edx
   1675b:	48 8b 85 28 f1 ff ff 	mov    -0xed8(%rbp),%rax
   16762:	8b 00                	mov    (%rax),%eax
   16764:	39 c2                	cmp    %eax,%edx
   16766:	0f 9c c0             	setl   %al
   16769:	0f b6 c0             	movzbl %al,%eax
   1676c:	be 07 00 00 00       	mov    $0x7,%esi
   16771:	89 c7                	mov    %eax,%edi
   16773:	e8 eb 5d ff ff       	callq  c563 <safe_rshift_func_int16_t_s_u>
   16778:	0f be c0             	movsbl %al,%eax
   1677b:	89 de                	mov    %ebx,%esi
   1677d:	89 c7                	mov    %eax,%edi
   1677f:	e8 ad 5a ff ff       	callq  c231 <safe_mod_func_int8_t_s_s>
   16784:	84 c0                	test   %al,%al
   16786:	74 11                	je     16799 <func_18+0x33e6>
   16788:	48 83 bd 40 ef ff ff 	cmpq   $0x0,-0x10c0(%rbp)
   1678f:	00 
   16790:	74 07                	je     16799 <func_18+0x33e6>
   16792:	b8 01 00 00 00       	mov    $0x1,%eax
   16797:	eb 05                	jmp    1679e <func_18+0x33eb>
   16799:	b8 00 00 00 00       	mov    $0x0,%eax
   1679e:	0f b6 d0             	movzbl %al,%edx
   167a1:	0f b6 85 6b ef ff ff 	movzbl -0x1095(%rbp),%eax
   167a8:	0f b6 c0             	movzbl %al,%eax
   167ab:	89 d6                	mov    %edx,%esi
   167ad:	89 c7                	mov    %eax,%edi
   167af:	e8 fa 63 ff ff       	callq  cbae <safe_mod_func_uint8_t_u_u>
   167b4:	48 8b 05 6d 23 01 00 	mov    0x1236d(%rip),%rax        # 28b28 <g_1771>
   167bb:	48 8b 00             	mov    (%rax),%rax
   167be:	48 8b 00             	mov    (%rax),%rax
   167c1:	48 8b 00             	mov    (%rax),%rax
   167c4:	c7 00 01 00 00 00    	movl   $0x1,(%rax)
   167ca:	48 8d 85 c0 f9 ff ff 	lea    -0x640(%rbp),%rax
   167d1:	48 8d 15 08 a9 00 00 	lea    0xa908(%rip),%rdx        # 210e0 <g_2708+0xe58>
   167d8:	b9 2d 00 00 00       	mov    $0x2d,%ecx
   167dd:	48 89 c7             	mov    %rax,%rdi
   167e0:	48 89 d6             	mov    %rdx,%rsi
   167e3:	f3 48 a5             	rep movsq %ds:(%rsi),%es:(%rdi)
   167e6:	c7 85 5c f0 ff ff 5c 	movl   $0x3a23b15c,-0xfa4(%rbp)
   167ed:	b1 23 3a 
   167f0:	48 8d 05 89 9a 00 00 	lea    0x9a89(%rip),%rax        # 20280 <g_2580>
   167f7:	48 89 85 18 f1 ff ff 	mov    %rax,-0xee8(%rbp)
   167fe:	48 8d 85 18 f1 ff ff 	lea    -0xee8(%rbp),%rax
   16805:	48 89 85 d8 f3 ff ff 	mov    %rax,-0xc28(%rbp)
   1680c:	48 8d 85 88 f0 ff ff 	lea    -0xf78(%rbp),%rax
   16813:	48 89 85 e0 f3 ff ff 	mov    %rax,-0xc20(%rbp)
   1681a:	c7 85 a0 ef ff ff 00 	movl   $0x0,-0x1060(%rbp)
   16821:	00 00 00 
   16824:	eb 1e                	jmp    16844 <func_18+0x3491>
   16826:	8b 85 a0 ef ff ff    	mov    -0x1060(%rbp),%eax
   1682c:	48 98                	cltq   
   1682e:	48 8d 95 e0 f0 ff ff 	lea    -0xf20(%rbp),%rdx
   16835:	48 89 94 c5 60 f6 ff 	mov    %rdx,-0x9a0(%rbp,%rax,8)
   1683c:	ff 
   1683d:	83 85 a0 ef ff ff 01 	addl   $0x1,-0x1060(%rbp)
   16844:	83 bd a0 ef ff ff 02 	cmpl   $0x2,-0x1060(%rbp)
   1684b:	7e d9                	jle    16826 <func_18+0x3473>
   1684d:	48 8b 85 40 ef ff ff 	mov    -0x10c0(%rbp),%rax
   16854:	0f b7 d8             	movzwl %ax,%ebx
   16857:	48 83 bd b8 f3 ff ff 	cmpq   $0x0,-0xc48(%rbp)
   1685e:	00 
   1685f:	0f 95 c0             	setne  %al
   16862:	44 0f b6 e0          	movzbl %al,%r12d
   16866:	48 8b 85 38 ef ff ff 	mov    -0x10c8(%rbp),%rax
   1686d:	48 89 85 30 ef ff ff 	mov    %rax,-0x10d0(%rbp)
   16874:	48 b8 36 30 d5 49 23 	movabs $0x9f7adb2349d53036,%rax
   1687b:	db 7a 9f 
   1687e:	49 89 c5             	mov    %rax,%r13
   16881:	48 8b 85 40 ef ff ff 	mov    -0x10c0(%rbp),%rax
   16888:	89 c2                	mov    %eax,%edx
   1688a:	48 8b 85 38 ef ff ff 	mov    -0x10c8(%rbp),%rax
   16891:	89 c1                	mov    %eax,%ecx
   16893:	48 8b 85 28 f1 ff ff 	mov    -0xed8(%rbp),%rax
   1689a:	89 08                	mov    %ecx,(%rax)
   1689c:	48 8b 85 28 f1 ff ff 	mov    -0xed8(%rbp),%rax
   168a3:	8b 00                	mov    (%rax),%eax
   168a5:	89 d6                	mov    %edx,%esi
   168a7:	89 c7                	mov    %eax,%edi
   168a9:	e8 1e 5e ff ff       	callq  c6cc <safe_mod_func_int32_t_s_s>
   168ae:	89 c2                	mov    %eax,%edx
   168b0:	48 8d 05 91 15 01 00 	lea    0x11591(%rip),%rax        # 27e48 <g_489>
   168b7:	48 8b 00             	mov    (%rax),%rax
   168ba:	48 8b 00             	mov    (%rax),%rax
   168bd:	8b 08                	mov    (%rax),%ecx
   168bf:	48 8d 05 82 15 01 00 	lea    0x11582(%rip),%rax        # 27e48 <g_489>
   168c6:	48 8b 00             	mov    (%rax),%rax
   168c9:	48 8b 00             	mov    (%rax),%rax
   168cc:	31 ca                	xor    %ecx,%edx
   168ce:	89 10                	mov    %edx,(%rax)
   168d0:	8b 00                	mov    (%rax),%eax
   168d2:	48 98                	cltq   
   168d4:	48 89 85 88 fa ff ff 	mov    %rax,-0x578(%rbp)
   168db:	48 8b 85 b0 f1 ff ff 	mov    -0xe50(%rbp),%rax
   168e2:	66 c7 00 00 00       	movw   $0x0,(%rax)
   168e7:	48 8b 85 b0 f1 ff ff 	mov    -0xe50(%rbp),%rax
   168ee:	0f b7 00             	movzwl (%rax),%eax
   168f1:	0f b7 c0             	movzwl %ax,%eax
   168f4:	48 39 85 38 ef ff ff 	cmp    %rax,-0x10c8(%rbp)
   168fb:	0f 95 c0             	setne  %al
   168fe:	0f b6 c0             	movzbl %al,%eax
   16901:	4c 89 ee             	mov    %r13,%rsi
   16904:	48 89 c7             	mov    %rax,%rdi
   16907:	e8 22 67 ff ff       	callq  d02e <safe_add_func_uint64_t_u_u>
   1690c:	0f b7 85 70 ef ff ff 	movzwl -0x1090(%rbp),%eax
   16913:	0f b7 c0             	movzwl %ax,%eax
   16916:	be 0e 00 00 00       	mov    $0xe,%esi
   1691b:	89 c7                	mov    %eax,%edi
   1691d:	e8 9c 64 ff ff       	callq  cdbe <safe_lshift_func_uint16_t_u_s>
   16922:	0f b7 c0             	movzwl %ax,%eax
   16925:	48 39 85 38 ef ff ff 	cmp    %rax,-0x10c8(%rbp)
   1692c:	0f 9c c0             	setl   %al
   1692f:	0f b6 c0             	movzbl %al,%eax
   16932:	31 85 5c f0 ff ff    	xor    %eax,-0xfa4(%rbp)
   16938:	48 8b 05 d9 14 01 00 	mov    0x114d9(%rip),%rax        # 27e18 <g_410>
   1693f:	0f b6 00             	movzbl (%rax),%eax
   16942:	89 c1                	mov    %eax,%ecx
   16944:	48 8b 85 48 ef ff ff 	mov    -0x10b8(%rbp),%rax
   1694b:	89 c2                	mov    %eax,%edx
   1694d:	48 8b 85 98 f1 ff ff 	mov    -0xe68(%rbp),%rax
   16954:	48 8b 00             	mov    (%rax),%rax
   16957:	48 8b 00             	mov    (%rax),%rax
   1695a:	48 8b 00             	mov    (%rax),%rax
   1695d:	48 8b 00             	mov    (%rax),%rax
   16960:	21 ca                	and    %ecx,%edx
   16962:	88 10                	mov    %dl,(%rax)
   16964:	0f b6 00             	movzbl (%rax),%eax
   16967:	0f b6 c0             	movzbl %al,%eax
   1696a:	41 39 c4             	cmp    %eax,%r12d
   1696d:	0f 95 c0             	setne  %al
   16970:	0f b6 c0             	movzbl %al,%eax
   16973:	89 de                	mov    %ebx,%esi
   16975:	89 c7                	mov    %eax,%edi
   16977:	e8 c1 63 ff ff       	callq  cd3d <safe_mul_func_uint16_t_u_u>
   1697c:	0f b7 d0             	movzwl %ax,%edx
   1697f:	48 8b 05 92 14 01 00 	mov    0x11492(%rip),%rax        # 27e18 <g_410>
   16986:	0f b6 00             	movzbl (%rax),%eax
   16989:	0f be c0             	movsbl %al,%eax
   1698c:	39 c2                	cmp    %eax,%edx
   1698e:	0f 95 c0             	setne  %al
   16991:	0f b6 c0             	movzbl %al,%eax
   16994:	be 07 00 00 00       	mov    $0x7,%esi
   16999:	89 c7                	mov    %eax,%edi
   1699b:	e8 65 62 ff ff       	callq  cc05 <safe_lshift_func_uint8_t_u_s>
   169a0:	0f b6 c0             	movzbl %al,%eax
   169a3:	89 85 9c f4 ff ff    	mov    %eax,-0xb64(%rbp)
   169a9:	8b 85 9c f4 ff ff    	mov    -0xb64(%rbp),%eax
   169af:	85 c0                	test   %eax,%eax
   169b1:	75 0e                	jne    169c1 <func_18+0x360e>
   169b3:	48 8b 05 46 14 01 00 	mov    0x11446(%rip),%rax        # 27e00 <g_87>
   169ba:	0f b6 00             	movzbl (%rax),%eax
   169bd:	84 c0                	test   %al,%al
   169bf:	74 07                	je     169c8 <func_18+0x3615>
   169c1:	ba 01 00 00 00       	mov    $0x1,%edx
   169c6:	eb 05                	jmp    169cd <func_18+0x361a>
   169c8:	ba 00 00 00 00       	mov    $0x0,%edx
   169cd:	8b 85 b4 f4 ff ff    	mov    -0xb4c(%rbp),%eax
   169d3:	09 d0                	or     %edx,%eax
   169d5:	89 85 b4 f4 ff ff    	mov    %eax,-0xb4c(%rbp)
   169db:	48 8b 85 38 ef ff ff 	mov    -0x10c8(%rbp),%rax
   169e2:	41 89 c6             	mov    %eax,%r14d
   169e5:	48 83 bd 40 ef ff ff 	cmpq   $0x0,-0x10c0(%rbp)
   169ec:	00 
   169ed:	0f 84 49 01 00 00    	je     16b3c <func_18+0x3789>
   169f3:	48 8b 05 2e 14 01 00 	mov    0x1142e(%rip),%rax        # 27e28 <g_433>
   169fa:	8b 00                	mov    (%rax),%eax
   169fc:	41 89 c7             	mov    %eax,%r15d
   169ff:	48 8b 85 40 ef ff ff 	mov    -0x10c0(%rbp),%rax
   16a06:	0f b6 d8             	movzbl %al,%ebx
   16a09:	8b 85 2c ef ff ff    	mov    -0x10d4(%rbp),%eax
   16a0f:	44 0f b7 e0          	movzwl %ax,%r12d
   16a13:	0f b7 05 1c f9 00 00 	movzwl 0xf91c(%rip),%eax        # 26336 <g_2459>
   16a1a:	44 0f bf e8          	movswl %ax,%r13d
   16a1e:	48 8b 85 d8 f3 ff ff 	mov    -0xc28(%rbp),%rax
   16a25:	48 8d 95 48 ef ff ff 	lea    -0x10b8(%rbp),%rdx
   16a2c:	48 89 10             	mov    %rdx,(%rax)
   16a2f:	48 8b 85 d8 f3 ff ff 	mov    -0xc28(%rbp),%rax
   16a36:	48 8b 10             	mov    (%rax),%rdx
   16a39:	48 8d 85 48 ef ff ff 	lea    -0x10b8(%rbp),%rax
   16a40:	48 39 c2             	cmp    %rax,%rdx
   16a43:	75 11                	jne    16a56 <func_18+0x36a3>
   16a45:	48 8d 05 fc 13 01 00 	lea    0x113fc(%rip),%rax        # 27e48 <g_489>
   16a4c:	48 8b 00             	mov    (%rax),%rax
   16a4f:	48 8b 00             	mov    (%rax),%rax
   16a52:	8b 00                	mov    (%rax),%eax
   16a54:	85 c0                	test   %eax,%eax
   16a56:	48 8b 85 88 fa ff ff 	mov    -0x578(%rbp),%rax
   16a5d:	48 89 c2             	mov    %rax,%rdx
   16a60:	8b 85 00 f0 ff ff    	mov    -0x1000(%rbp),%eax
   16a66:	48 39 85 38 ef ff ff 	cmp    %rax,-0x10c8(%rbp)
   16a6d:	0f 94 c0             	sete   %al
   16a70:	0f b6 c0             	movzbl %al,%eax
   16a73:	48 89 d6             	mov    %rdx,%rsi
   16a76:	48 89 c7             	mov    %rax,%rdi
   16a79:	e8 b0 65 ff ff       	callq  d02e <safe_add_func_uint64_t_u_u>
   16a7e:	0f b7 05 93 f7 00 00 	movzwl 0xf793(%rip),%eax        # 26218 <g_266+0x8>
   16a85:	0f b7 c0             	movzwl %ax,%eax
   16a88:	be 06 00 00 00       	mov    $0x6,%esi
   16a8d:	89 c7                	mov    %eax,%edi
   16a8f:	e8 72 63 ff ff       	callq  ce06 <safe_lshift_func_uint16_t_u_u>
   16a94:	48 8b 15 65 13 01 00 	mov    0x11365(%rip),%rdx        # 27e00 <g_87>
   16a9b:	0f b6 12             	movzbl (%rdx),%edx
   16a9e:	0f b6 d2             	movzbl %dl,%edx
   16aa1:	66 39 d0             	cmp    %dx,%ax
   16aa4:	48 8d 85 d8 f0 ff ff 	lea    -0xf28(%rbp),%rax
   16aab:	48 39 85 e0 f3 ff ff 	cmp    %rax,-0xc20(%rbp)
   16ab2:	0f 95 c0             	setne  %al
   16ab5:	0f b6 d0             	movzbl %al,%edx
   16ab8:	48 8b 85 30 ef ff ff 	mov    -0x10d0(%rbp),%rax
   16abf:	0f b6 c0             	movzbl %al,%eax
   16ac2:	89 d6                	mov    %edx,%esi
   16ac4:	89 c7                	mov    %eax,%edi
   16ac6:	e8 f3 61 ff ff       	callq  ccbe <safe_rshift_func_uint8_t_u_u>
   16acb:	44 89 ee             	mov    %r13d,%esi
   16ace:	bf 98 5d 00 00       	mov    $0x5d98,%edi
   16ad3:	e8 fb 58 ff ff       	callq  c3d3 <safe_sub_func_int16_t_s_s>
   16ad8:	0f b7 c0             	movzwl %ax,%eax
   16adb:	44 89 e6             	mov    %r12d,%esi
   16ade:	89 c7                	mov    %eax,%edi
   16ae0:	e8 3a 62 ff ff       	callq  cd1f <safe_sub_func_uint16_t_u_u>
   16ae5:	0f b6 c0             	movzbl %al,%eax
   16ae8:	89 de                	mov    %ebx,%esi
   16aea:	89 c7                	mov    %eax,%edi
   16aec:	e8 87 60 ff ff       	callq  cb78 <safe_sub_func_uint8_t_u_u>
   16af1:	44 21 f8             	and    %r15d,%eax
   16af4:	83 e0 fd             	and    $0xfffffffd,%eax
   16af7:	89 c2                	mov    %eax,%edx
   16af9:	48 8b 85 b8 f1 ff ff 	mov    -0xe48(%rbp),%rax
   16b00:	88 10                	mov    %dl,(%rax)
   16b02:	48 8b 85 78 f1 ff ff 	mov    -0xe88(%rbp),%rax
   16b09:	c7 00 00 00 00 00    	movl   $0x0,(%rax)
   16b0f:	48 8b 85 30 ef ff ff 	mov    -0x10d0(%rbp),%rax
   16b16:	be db 2e 6e 3b       	mov    $0x3b6e2edb,%esi
   16b1b:	89 c7                	mov    %eax,%edi
   16b1d:	e8 ae 63 ff ff       	callq  ced0 <safe_sub_func_uint32_t_u_u>
   16b22:	0f b6 c0             	movzbl %al,%eax
   16b25:	be 06 00 00 00       	mov    $0x6,%esi
   16b2a:	89 c7                	mov    %eax,%edi
   16b2c:	e8 d4 60 ff ff       	callq  cc05 <safe_lshift_func_uint8_t_u_s>
   16b31:	84 c0                	test   %al,%al
   16b33:	74 07                	je     16b3c <func_18+0x3789>
   16b35:	b8 01 00 00 00       	mov    $0x1,%eax
   16b3a:	eb 05                	jmp    16b41 <func_18+0x378e>
   16b3c:	b8 00 00 00 00       	mov    $0x0,%eax
   16b41:	48 98                	cltq   
   16b43:	48 39 85 38 ef ff ff 	cmp    %rax,-0x10c8(%rbp)
   16b4a:	0f 9f c0             	setg   %al
   16b4d:	0f b6 c0             	movzbl %al,%eax
   16b50:	44 89 f6             	mov    %r14d,%esi
   16b53:	89 c7                	mov    %eax,%edi
   16b55:	e8 72 5b ff ff       	callq  c6cc <safe_mod_func_int32_t_s_s>
   16b5a:	b8 4b db a1 21       	mov    $0x21a1db4b,%eax
   16b5f:	31 85 5c f0 ff ff    	xor    %eax,-0xfa4(%rbp)
   16b65:	48 8b 05 04 43 01 00 	mov    0x14304(%rip),%rax        # 2ae70 <g_240>
   16b6c:	48 83 e8 01          	sub    $0x1,%rax
   16b70:	48 89 05 f9 42 01 00 	mov    %rax,0x142f9(%rip)        # 2ae70 <g_240>
   16b77:	48 c7 05 7e 21 01 00 	movq   $0x0,0x1217e(%rip)        # 28d00 <g_2593+0x20>
   16b7e:	00 00 00 00 
   16b82:	48 8b 05 77 21 01 00 	mov    0x12177(%rip),%rax        # 28d00 <g_2593+0x20>
   16b89:	48 85 c0             	test   %rax,%rax
   16b8c:	0f 94 c0             	sete   %al
   16b8f:	0f b6 c0             	movzbl %al,%eax
   16b92:	39 85 2c ef ff ff    	cmp    %eax,-0x10d4(%rbp)
   16b98:	0f 94 c2             	sete   %dl
   16b9b:	48 8b 05 a6 12 01 00 	mov    0x112a6(%rip),%rax        # 27e48 <g_489>
   16ba2:	48 8b 00             	mov    (%rax),%rax
   16ba5:	0f b6 d2             	movzbl %dl,%edx
   16ba8:	89 10                	mov    %edx,(%rax)
   16baa:	c7 85 d4 ef ff ff 00 	movl   $0x0,-0x102c(%rbp)
   16bb1:	00 00 00 
   16bb4:	e9 00 07 00 00       	jmpq   172b9 <func_18+0x3f06>
   16bb9:	66 c7 85 60 f6 ff ff 	movw   $0x2844,-0x9a0(%rbp)
   16bc0:	44 28 
   16bc2:	66 c7 85 62 f6 ff ff 	movw   $0xffff,-0x99e(%rbp)
   16bc9:	ff ff 
   16bcb:	66 c7 85 64 f6 ff ff 	movw   $0x2844,-0x99c(%rbp)
   16bd2:	44 28 
   16bd4:	66 c7 85 66 f6 ff ff 	movw   $0x4623,-0x99a(%rbp)
   16bdb:	23 46 
   16bdd:	66 c7 85 68 f6 ff ff 	movw   $0xda64,-0x998(%rbp)
   16be4:	64 da 
   16be6:	66 c7 85 6a f6 ff ff 	movw   $0x543d,-0x996(%rbp)
   16bed:	3d 54 
   16bef:	66 c7 85 6c f6 ff ff 	movw   $0xffff,-0x994(%rbp)
   16bf6:	ff ff 
   16bf8:	66 c7 85 6e f6 ff ff 	movw   $0xd028,-0x992(%rbp)
   16bff:	28 d0 
   16c01:	66 c7 85 70 f6 ff ff 	movw   $0x543d,-0x990(%rbp)
   16c08:	3d 54 
   16c0a:	66 c7 85 72 f6 ff ff 	movw   $0x1,-0x98e(%rbp)
   16c11:	01 00 
   16c13:	66 c7 85 74 f6 ff ff 	movw   $0xffff,-0x98c(%rbp)
   16c1a:	ff ff 
   16c1c:	66 c7 85 76 f6 ff ff 	movw   $0xffff,-0x98a(%rbp)
   16c23:	ff ff 
   16c25:	66 c7 85 78 f6 ff ff 	movw   $0xda64,-0x988(%rbp)
   16c2c:	64 da 
   16c2e:	66 c7 85 7a f6 ff ff 	movw   $0xda64,-0x986(%rbp)
   16c35:	64 da 
   16c37:	66 c7 85 7c f6 ff ff 	movw   $0x2844,-0x984(%rbp)
   16c3e:	44 28 
   16c40:	66 c7 85 7e f6 ff ff 	movw   $0x36b1,-0x982(%rbp)
   16c47:	b1 36 
   16c49:	66 c7 85 80 f6 ff ff 	movw   $0x4623,-0x980(%rbp)
   16c50:	23 46 
   16c52:	66 c7 85 82 f6 ff ff 	movw   $0x5eb,-0x97e(%rbp)
   16c59:	eb 05 
   16c5b:	66 c7 85 84 f6 ff ff 	movw   $0x1,-0x97c(%rbp)
   16c62:	01 00 
   16c64:	66 c7 85 86 f6 ff ff 	movw   $0xd028,-0x97a(%rbp)
   16c6b:	28 d0 
   16c6d:	66 c7 85 88 f6 ff ff 	movw   $0x1,-0x978(%rbp)
   16c74:	01 00 
   16c76:	66 c7 85 8a f6 ff ff 	movw   $0xd028,-0x976(%rbp)
   16c7d:	28 d0 
   16c7f:	66 c7 85 8c f6 ff ff 	movw   $0x543d,-0x974(%rbp)
   16c86:	3d 54 
   16c88:	66 c7 85 8e f6 ff ff 	movw   $0x1,-0x972(%rbp)
   16c8f:	01 00 
   16c91:	66 c7 85 90 f6 ff ff 	movw   $0xda64,-0x970(%rbp)
   16c98:	64 da 
   16c9a:	66 c7 85 92 f6 ff ff 	movw   $0xd028,-0x96e(%rbp)
   16ca1:	28 d0 
   16ca3:	66 c7 85 94 f6 ff ff 	movw   $0x0,-0x96c(%rbp)
   16caa:	00 00 
   16cac:	66 c7 85 96 f6 ff ff 	movw   $0xd028,-0x96a(%rbp)
   16cb3:	28 d0 
   16cb5:	66 c7 85 98 f6 ff ff 	movw   $0xd028,-0x968(%rbp)
   16cbc:	28 d0 
   16cbe:	66 c7 85 9a f6 ff ff 	movw   $0x5eb,-0x966(%rbp)
   16cc5:	eb 05 
   16cc7:	66 c7 85 9c f6 ff ff 	movw   $0xffff,-0x964(%rbp)
   16cce:	ff ff 
   16cd0:	66 c7 85 9e f6 ff ff 	movw   $0x36b1,-0x962(%rbp)
   16cd7:	b1 36 
   16cd9:	66 c7 85 a0 f6 ff ff 	movw   $0xdcfd,-0x960(%rbp)
   16ce0:	fd dc 
   16ce2:	66 c7 85 a2 f6 ff ff 	movw   $0xda64,-0x95e(%rbp)
   16ce9:	64 da 
   16ceb:	66 c7 85 a4 f6 ff ff 	movw   $0x543d,-0x95c(%rbp)
   16cf2:	3d 54 
   16cf4:	66 c7 85 a6 f6 ff ff 	movw   $0xffff,-0x95a(%rbp)
   16cfb:	ff ff 
   16cfd:	48 c7 85 00 f4 ff ff 	movq   $0x0,-0xc00(%rbp)
   16d04:	00 00 00 00 
   16d08:	c7 85 c0 f9 ff ff ff 	movl   $0xffffffff,-0x640(%rbp)
   16d0f:	ff ff ff 
   16d12:	c7 85 c4 f9 ff ff 00 	movl   $0x0,-0x63c(%rbp)
   16d19:	00 00 00 
   16d1c:	c7 85 c8 f9 ff ff 00 	movl   $0x0,-0x638(%rbp)
   16d23:	00 00 00 
   16d26:	c7 85 cc f9 ff ff 0d 	movl   $0x2139280d,-0x634(%rbp)
   16d2d:	28 39 21 
   16d30:	c7 85 d0 f9 ff ff 00 	movl   $0x0,-0x630(%rbp)
   16d37:	00 00 00 
   16d3a:	c7 85 d4 f9 ff ff 00 	movl   $0x0,-0x62c(%rbp)
   16d41:	00 00 00 
   16d44:	c7 85 d8 f9 ff ff ff 	movl   $0xffffffff,-0x628(%rbp)
   16d4b:	ff ff ff 
   16d4e:	c7 85 dc f9 ff ff 01 	movl   $0x1,-0x624(%rbp)
   16d55:	00 00 00 
   16d58:	c7 85 e0 f9 ff ff 00 	movl   $0x0,-0x620(%rbp)
   16d5f:	00 00 00 
   16d62:	c7 85 e4 f9 ff ff 01 	movl   $0x1,-0x61c(%rbp)
   16d69:	00 00 00 
   16d6c:	c7 85 e8 f9 ff ff 82 	movl   $0xf37f1d82,-0x618(%rbp)
   16d73:	1d 7f f3 
   16d76:	c7 85 ec f9 ff ff ff 	movl   $0xffffffff,-0x614(%rbp)
   16d7d:	ff ff ff 
   16d80:	c7 85 f0 f9 ff ff 01 	movl   $0x1,-0x610(%rbp)
   16d87:	00 00 00 
   16d8a:	c7 85 f4 f9 ff ff 01 	movl   $0x1,-0x60c(%rbp)
   16d91:	00 00 00 
   16d94:	c7 85 f8 f9 ff ff 01 	movl   $0x1,-0x608(%rbp)
   16d9b:	00 00 00 
   16d9e:	c7 85 fc f9 ff ff 4a 	movl   $0xdbd024a,-0x604(%rbp)
   16da5:	02 bd 0d 
   16da8:	c7 85 00 fa ff ff 00 	movl   $0x0,-0x600(%rbp)
   16daf:	00 00 00 
   16db2:	c7 85 04 fa ff ff 26 	movl   $0x182eb926,-0x5fc(%rbp)
   16db9:	b9 2e 18 
   16dbc:	c7 85 08 fa ff ff 62 	movl   $0xd4bfa962,-0x5f8(%rbp)
   16dc3:	a9 bf d4 
   16dc6:	c7 85 0c fa ff ff 82 	movl   $0xf37f1d82,-0x5f4(%rbp)
   16dcd:	1d 7f f3 
   16dd0:	c7 85 10 fa ff ff da 	movl   $0xe0bededa,-0x5f0(%rbp)
   16dd7:	de be e0 
   16dda:	c7 85 14 fa ff ff 2c 	movl   $0xace3552c,-0x5ec(%rbp)
   16de1:	55 e3 ac 
   16de4:	c7 85 18 fa ff ff 01 	movl   $0x1,-0x5e8(%rbp)
   16deb:	00 00 00 
   16dee:	c7 85 1c fa ff ff 2c 	movl   $0xace3552c,-0x5e4(%rbp)
   16df5:	55 e3 ac 
   16df8:	c7 85 20 fa ff ff da 	movl   $0xe0bededa,-0x5e0(%rbp)
   16dff:	de be e0 
   16e02:	c7 85 24 fa ff ff 82 	movl   $0xf37f1d82,-0x5dc(%rbp)
   16e09:	1d 7f f3 
   16e0c:	c7 85 28 fa ff ff 62 	movl   $0xd4bfa962,-0x5d8(%rbp)
   16e13:	a9 bf d4 
   16e16:	c7 85 2c fa ff ff 26 	movl   $0x182eb926,-0x5d4(%rbp)
   16e1d:	b9 2e 18 
   16e20:	c7 85 30 fa ff ff 00 	movl   $0x0,-0x5d0(%rbp)
   16e27:	00 00 00 
   16e2a:	c7 85 34 fa ff ff 4a 	movl   $0xdbd024a,-0x5cc(%rbp)
   16e31:	02 bd 0d 
   16e34:	c7 85 38 fa ff ff 01 	movl   $0x1,-0x5c8(%rbp)
   16e3b:	00 00 00 
   16e3e:	c7 85 3c fa ff ff 01 	movl   $0x1,-0x5c4(%rbp)
   16e45:	00 00 00 
   16e48:	c7 85 40 fa ff ff 01 	movl   $0x1,-0x5c0(%rbp)
   16e4f:	00 00 00 
   16e52:	c7 85 44 fa ff ff ff 	movl   $0xffffffff,-0x5bc(%rbp)
   16e59:	ff ff ff 
   16e5c:	c7 85 48 fa ff ff 82 	movl   $0xf37f1d82,-0x5b8(%rbp)
   16e63:	1d 7f f3 
   16e66:	c7 85 4c fa ff ff 01 	movl   $0x1,-0x5b4(%rbp)
   16e6d:	00 00 00 
   16e70:	c7 85 50 fa ff ff 00 	movl   $0x0,-0x5b0(%rbp)
   16e77:	00 00 00 
   16e7a:	c7 85 54 fa ff ff 01 	movl   $0x1,-0x5ac(%rbp)
   16e81:	00 00 00 
   16e84:	c7 85 58 fa ff ff ff 	movl   $0xffffffff,-0x5a8(%rbp)
   16e8b:	ff ff ff 
   16e8e:	c7 85 5c fa ff ff 00 	movl   $0x0,-0x5a4(%rbp)
   16e95:	00 00 00 
   16e98:	c7 85 60 fa ff ff 00 	movl   $0x0,-0x5a0(%rbp)
   16e9f:	00 00 00 
   16ea2:	c7 85 64 fa ff ff 0d 	movl   $0x2139280d,-0x59c(%rbp)
   16ea9:	28 39 21 
   16eac:	c7 85 68 fa ff ff 00 	movl   $0x0,-0x598(%rbp)
   16eb3:	00 00 00 
   16eb6:	c7 85 6c fa ff ff 00 	movl   $0x0,-0x594(%rbp)
   16ebd:	00 00 00 
   16ec0:	c7 85 70 fa ff ff ff 	movl   $0xffffffff,-0x590(%rbp)
   16ec7:	ff ff ff 
   16eca:	c7 85 74 fa ff ff 01 	movl   $0x1,-0x58c(%rbp)
   16ed1:	00 00 00 
   16ed4:	c7 85 78 fa ff ff 00 	movl   $0x0,-0x588(%rbp)
   16edb:	00 00 00 
   16ede:	c7 85 7c fa ff ff 01 	movl   $0x1,-0x584(%rbp)
   16ee5:	00 00 00 
   16ee8:	c7 85 80 fa ff ff 82 	movl   $0xf37f1d82,-0x580(%rbp)
   16eef:	1d 7f f3 
   16ef2:	c7 85 84 fa ff ff ff 	movl   $0xffffffff,-0x57c(%rbp)
   16ef9:	ff ff ff 
   16efc:	c7 85 88 fa ff ff 01 	movl   $0x1,-0x578(%rbp)
   16f03:	00 00 00 
   16f06:	c7 85 8c fa ff ff 01 	movl   $0x1,-0x574(%rbp)
   16f0d:	00 00 00 
   16f10:	c7 85 90 fa ff ff 01 	movl   $0x1,-0x570(%rbp)
   16f17:	00 00 00 
   16f1a:	c7 85 94 fa ff ff 4a 	movl   $0xdbd024a,-0x56c(%rbp)
   16f21:	02 bd 0d 
   16f24:	c7 85 64 f0 ff ff 17 	movl   $0x906cfe17,-0xf9c(%rbp)
   16f2b:	fe 6c 90 
   16f2e:	48 8b 85 48 ef ff ff 	mov    -0x10b8(%rbp),%rax
   16f35:	41 89 c4             	mov    %eax,%r12d
   16f38:	48 8b 85 48 ef ff ff 	mov    -0x10b8(%rbp),%rax
   16f3f:	48 89 c2             	mov    %rax,%rdx
   16f42:	48 8b 85 40 ef ff ff 	mov    -0x10c0(%rbp),%rax
   16f49:	48 89 d6             	mov    %rdx,%rsi
   16f4c:	48 89 c7             	mov    %rax,%rdi
   16f4f:	e8 54 59 ff ff       	callq  c8a8 <safe_sub_func_int64_t_s_s>
   16f54:	48 8b 85 a0 f3 ff ff 	mov    -0xc60(%rbp),%rax
   16f5b:	48 3b 85 c8 f3 ff ff 	cmp    -0xc38(%rbp),%rax
   16f62:	0f 94 c0             	sete   %al
   16f65:	0f b6 d0             	movzbl %al,%edx
   16f68:	48 8b 85 28 f1 ff ff 	mov    -0xed8(%rbp),%rax
   16f6f:	8b 00                	mov    (%rax),%eax
   16f71:	39 c2                	cmp    %eax,%edx
   16f73:	0f 9e c0             	setle  %al
   16f76:	0f b6 d8             	movzbl %al,%ebx
   16f79:	48 8b 05 78 f2 00 00 	mov    0xf278(%rip),%rax        # 261f8 <g_244>
   16f80:	0f b7 c0             	movzwl %ax,%eax
   16f83:	be 0b 00 00 00       	mov    $0xb,%esi
   16f88:	89 c7                	mov    %eax,%edi
   16f8a:	e8 77 5e ff ff       	callq  ce06 <safe_lshift_func_uint16_t_u_u>
   16f8f:	0f b7 c0             	movzwl %ax,%eax
   16f92:	39 c3                	cmp    %eax,%ebx
   16f94:	0f 95 c0             	setne  %al
   16f97:	0f b6 c0             	movzbl %al,%eax
   16f9a:	44 89 e6             	mov    %r12d,%esi
   16f9d:	89 c7                	mov    %eax,%edi
   16f9f:	e8 5b 57 ff ff       	callq  c6ff <safe_div_func_int32_t_s_s>
   16fa4:	48 8b 95 28 f1 ff ff 	mov    -0xed8(%rbp),%rdx
   16fab:	8b 12                	mov    (%rdx),%edx
   16fad:	39 d0                	cmp    %edx,%eax
   16faf:	0f 9f c0             	setg   %al
   16fb2:	0f b6 d0             	movzbl %al,%edx
   16fb5:	48 8b 05 6c 0e 01 00 	mov    0x10e6c(%rip),%rax        # 27e28 <g_433>
   16fbc:	8b 00                	mov    (%rax),%eax
   16fbe:	39 c2                	cmp    %eax,%edx
   16fc0:	0f 94 c0             	sete   %al
   16fc3:	0f b6 c0             	movzbl %al,%eax
   16fc6:	be e8 00 00 00       	mov    $0xe8,%esi
   16fcb:	89 c7                	mov    %eax,%edi
   16fcd:	e8 c1 5b ff ff       	callq  cb93 <safe_mul_func_uint8_t_u_u>
   16fd2:	48 8b 85 28 f1 ff ff 	mov    -0xed8(%rbp),%rax
   16fd9:	8b 10                	mov    (%rax),%edx
   16fdb:	0f b7 85 64 f6 ff ff 	movzwl -0x99c(%rbp),%eax
   16fe2:	31 d0                	xor    %edx,%eax
   16fe4:	66 89 85 64 f6 ff ff 	mov    %ax,-0x99c(%rbp)
   16feb:	48 8b 85 90 f0 ff ff 	mov    -0xf70(%rbp),%rax
   16ff2:	48 8b 00             	mov    (%rax),%rax
   16ff5:	48 8b 00             	mov    (%rax),%rax
   16ff8:	8b 08                	mov    (%rax),%ecx
   16ffa:	0f b7 85 64 f6 ff ff 	movzwl -0x99c(%rbp),%eax
   17001:	66 83 f8 01          	cmp    $0x1,%ax
   17005:	0f 95 c0             	setne  %al
   17008:	0f b6 d0             	movzbl %al,%edx
   1700b:	48 8b 85 90 f0 ff ff 	mov    -0xf70(%rbp),%rax
   17012:	48 8b 00             	mov    (%rax),%rax
   17015:	48 8b 00             	mov    (%rax),%rax
   17018:	09 ca                	or     %ecx,%edx
   1701a:	89 10                	mov    %edx,(%rax)
   1701c:	48 8b 85 48 ef ff ff 	mov    -0x10b8(%rbp),%rax
   17023:	41 89 c5             	mov    %eax,%r13d
   17026:	48 8b 05 13 0e 01 00 	mov    0x10e13(%rip),%rax        # 27e40 <g_479>
   1702d:	48 8b 00             	mov    (%rax),%rax
   17030:	48 8b 00             	mov    (%rax),%rax
   17033:	0f b7 00             	movzwl (%rax),%eax
   17036:	0f bf d8             	movswl %ax,%ebx
   17039:	44 0f b6 a5 6a ef ff 	movzbl -0x1096(%rbp),%r12d
   17040:	ff 
   17041:	48 8b 95 38 ef ff ff 	mov    -0x10c8(%rbp),%rdx
   17048:	48 8b 05 c9 0d 01 00 	mov    0x10dc9(%rip),%rax        # 27e18 <g_410>
   1704f:	c6 00 00             	movb   $0x0,(%rax)
   17052:	b8 00 00 00 00       	mov    $0x0,%eax
   17057:	89 85 b0 f5 ff ff    	mov    %eax,-0xa50(%rbp)
   1705d:	8b 85 b0 f5 ff ff    	mov    -0xa50(%rbp),%eax
   17063:	48 98                	cltq   
   17065:	48 89 d6             	mov    %rdx,%rsi
   17068:	48 89 c7             	mov    %rax,%rdi
   1706b:	e8 3f 60 ff ff       	callq  d0af <safe_div_func_uint64_t_u_u>
   17070:	4c 89 e6             	mov    %r12,%rsi
   17073:	bf 00 00 00 00       	mov    $0x0,%edi
   17078:	e8 03 60 ff ff       	callq  d080 <safe_mod_func_uint64_t_u_u>
   1707d:	89 de                	mov    %ebx,%esi
   1707f:	bf 00 00 00 00       	mov    $0x0,%edi
   17084:	e8 8d 53 ff ff       	callq  c416 <safe_mod_func_int16_t_s_s>
   17089:	48 83 bd 00 f4 ff ff 	cmpq   $0x0,-0xc00(%rbp)
   17090:	00 
   17091:	0f 94 c0             	sete   %al
   17094:	0f b6 c0             	movzbl %al,%eax
   17097:	48 39 85 38 ef ff ff 	cmp    %rax,-0x10c8(%rbp)
   1709e:	0f 9f c0             	setg   %al
   170a1:	0f b6 d0             	movzbl %al,%edx
   170a4:	48 8b 05 7d 1a 01 00 	mov    0x11a7d(%rip),%rax        # 28b28 <g_1771>
   170ab:	48 8b 00             	mov    (%rax),%rax
   170ae:	48 8b 00             	mov    (%rax),%rax
   170b1:	48 8b 00             	mov    (%rax),%rax
   170b4:	8b 00                	mov    (%rax),%eax
   170b6:	48 98                	cltq   
   170b8:	48 39 85 38 ef ff ff 	cmp    %rax,-0x10c8(%rbp)
   170bf:	0f 9e c0             	setle  %al
   170c2:	0f b6 c0             	movzbl %al,%eax
   170c5:	31 d0                	xor    %edx,%eax
   170c7:	48 98                	cltq   
   170c9:	48 39 85 38 ef ff ff 	cmp    %rax,-0x10c8(%rbp)
   170d0:	0f 9d c0             	setge  %al
   170d3:	0f b6 c0             	movzbl %al,%eax
   170d6:	89 c6                	mov    %eax,%esi
   170d8:	bf 1d de ff ff       	mov    $0xffffde1d,%edi
   170dd:	e8 48 54 ff ff       	callq  c52a <safe_rshift_func_int16_t_s_s>
   170e2:	98                   	cwtl   
   170e3:	44 89 ee             	mov    %r13d,%esi
   170e6:	89 c7                	mov    %eax,%edi
   170e8:	e8 12 56 ff ff       	callq  c6ff <safe_div_func_int32_t_s_s>
   170ed:	89 c2                	mov    %eax,%edx
   170ef:	48 8b 85 98 f1 ff ff 	mov    -0xe68(%rbp),%rax
   170f6:	48 8b 00             	mov    (%rax),%rax
   170f9:	48 8b 00             	mov    (%rax),%rax
   170fc:	48 8b 00             	mov    (%rax),%rax
   170ff:	48 8b 00             	mov    (%rax),%rax
   17102:	88 10                	mov    %dl,(%rax)
   17104:	0f b6 00             	movzbl (%rax),%eax
   17107:	0f b6 c0             	movzbl %al,%eax
   1710a:	be fe 00 00 00       	mov    $0xfe,%esi
   1710f:	89 c7                	mov    %eax,%edi
   17111:	e8 98 5a ff ff       	callq  cbae <safe_mod_func_uint8_t_u_u>
   17116:	0f b6 d0             	movzbl %al,%edx
   17119:	48 8b 85 28 f1 ff ff 	mov    -0xed8(%rbp),%rax
   17120:	89 10                	mov    %edx,(%rax)
   17122:	48 8b 85 78 f0 ff ff 	mov    -0xf88(%rbp),%rax
   17129:	48 8b 95 28 f1 ff ff 	mov    -0xed8(%rbp),%rdx
   17130:	8b 12                	mov    (%rdx),%edx
   17132:	89 10                	mov    %edx,(%rax)
   17134:	8b 10                	mov    (%rax),%edx
   17136:	8b 85 78 fa ff ff    	mov    -0x588(%rbp),%eax
   1713c:	21 d0                	and    %edx,%eax
   1713e:	89 85 78 fa ff ff    	mov    %eax,-0x588(%rbp)
   17144:	0f b6 05 1a f0 00 00 	movzbl 0xf01a(%rip),%eax        # 26165 <g_164+0x1>
   1714b:	0f be d8             	movsbl %al,%ebx
   1714e:	48 8b 85 38 ef ff ff 	mov    -0x10c8(%rbp),%rax
   17155:	44 0f bf e0          	movswl %ax,%r12d
   17159:	48 8b 85 40 ef ff ff 	mov    -0x10c0(%rbp),%rax
   17160:	44 0f bf e8          	movswl %ax,%r13d
   17164:	48 8b 95 40 f6 ff ff 	mov    -0x9c0(%rbp),%rdx
   1716b:	48 8b 45 88          	mov    -0x78(%rbp),%rax
   1716f:	48 39 c2             	cmp    %rax,%rdx
   17172:	be 0e 00 00 00       	mov    $0xe,%esi
   17177:	bf a5 74 00 00       	mov    $0x74a5,%edi
   1717c:	e8 3d 5c ff ff       	callq  cdbe <safe_lshift_func_uint16_t_u_s>
   17181:	48 8b 05 e0 18 01 00 	mov    0x118e0(%rip),%rax        # 28a68 <g_1019>
   17188:	48 8b 10             	mov    (%rax),%rdx
   1718b:	48 8b 85 68 fc ff ff 	mov    -0x398(%rbp),%rax
   17192:	48 39 c2             	cmp    %rax,%rdx
   17195:	0f 95 c0             	setne  %al
   17198:	0f b6 c0             	movzbl %al,%eax
   1719b:	be fa 00 00 00       	mov    $0xfa,%esi
   171a0:	89 c7                	mov    %eax,%edi
   171a2:	e8 b3 59 ff ff       	callq  cb5a <safe_add_func_uint8_t_u_u>
   171a7:	0f b6 c0             	movzbl %al,%eax
   171aa:	44 89 ee             	mov    %r13d,%esi
   171ad:	89 c7                	mov    %eax,%edi
   171af:	e8 41 52 ff ff       	callq  c3f5 <safe_mul_func_int16_t_s_s>
   171b4:	66 85 c0             	test   %ax,%ax
   171b7:	75 0a                	jne    171c3 <func_18+0x3e10>
   171b9:	48 83 bd 30 ef ff ff 	cmpq   $0x0,-0x10d0(%rbp)
   171c0:	00 
   171c1:	74 07                	je     171ca <func_18+0x3e17>
   171c3:	b8 01 00 00 00       	mov    $0x1,%eax
   171c8:	eb 05                	jmp    171cf <func_18+0x3e1c>
   171ca:	b8 00 00 00 00       	mov    $0x0,%eax
   171cf:	98                   	cwtl   
   171d0:	44 89 e6             	mov    %r12d,%esi
   171d3:	89 c7                	mov    %eax,%edi
   171d5:	e8 1b 52 ff ff       	callq  c3f5 <safe_mul_func_int16_t_s_s>
   171da:	48 8b 05 5f 0c 01 00 	mov    0x10c5f(%rip),%rax        # 27e40 <g_479>
   171e1:	48 8b 00             	mov    (%rax),%rax
   171e4:	48 8b 85 78 f0 ff ff 	mov    -0xf88(%rbp),%rax
   171eb:	8b 00                	mov    (%rax),%eax
   171ed:	0f be d0             	movsbl %al,%edx
   171f0:	48 8b 85 28 f1 ff ff 	mov    -0xed8(%rbp),%rax
   171f7:	8b 00                	mov    (%rax),%eax
   171f9:	0f be c0             	movsbl %al,%eax
   171fc:	89 d6                	mov    %edx,%esi
   171fe:	89 c7                	mov    %eax,%edi
   17200:	e8 0d 50 ff ff       	callq  c212 <safe_mul_func_int8_t_s_s>
   17205:	84 c0                	test   %al,%al
   17207:	74 12                	je     1721b <func_18+0x3e68>
   17209:	0f b6 05 b8 f0 00 00 	movzbl 0xf0b8(%rip),%eax        # 262c8 <g_1297>
   17210:	84 c0                	test   %al,%al
   17212:	74 07                	je     1721b <func_18+0x3e68>
   17214:	b8 01 00 00 00       	mov    $0x1,%eax
   17219:	eb 05                	jmp    17220 <func_18+0x3e6d>
   1721b:	b8 00 00 00 00       	mov    $0x0,%eax
   17220:	89 c2                	mov    %eax,%edx
   17222:	48 8b 85 48 f1 ff ff 	mov    -0xeb8(%rbp),%rax
   17229:	66 89 10             	mov    %dx,(%rax)
   1722c:	8b 85 78 fa ff ff    	mov    -0x588(%rbp),%eax
   17232:	4c 63 e0             	movslq %eax,%r12
   17235:	48 8b 85 48 ef ff ff 	mov    -0x10b8(%rbp),%rax
   1723c:	48 0d 68 3c 00 00    	or     $0x3c68,%rax
   17242:	48 89 c6             	mov    %rax,%rsi
   17245:	48 c7 c7 ff ff ff ff 	mov    $0xffffffffffffffff,%rdi
   1724c:	e8 a6 57 ff ff       	callq  c9f7 <safe_div_func_int64_t_s_s>
   17251:	4c 89 e6             	mov    %r12,%rsi
   17254:	48 89 c7             	mov    %rax,%rdi
   17257:	e8 53 5e ff ff       	callq  d0af <safe_div_func_uint64_t_u_u>
   1725c:	48 8b 95 48 ef ff ff 	mov    -0x10b8(%rbp),%rdx
   17263:	48 39 d0             	cmp    %rdx,%rax
   17266:	0f 95 c0             	setne  %al
   17269:	0f b6 c0             	movzbl %al,%eax
   1726c:	48 39 85 30 ef ff ff 	cmp    %rax,-0x10d0(%rbp)
   17273:	0f 9d c0             	setge  %al
   17276:	0f b6 c0             	movzbl %al,%eax
   17279:	0f b7 15 98 ef 00 00 	movzwl 0xef98(%rip),%edx        # 26218 <g_266+0x8>
   17280:	21 d0                	and    %edx,%eax
   17282:	66 89 05 8f ef 00 00 	mov    %ax,0xef8f(%rip)        # 26218 <g_266+0x8>
   17289:	0f b7 05 88 ef 00 00 	movzwl 0xef88(%rip),%eax        # 26218 <g_266+0x8>
   17290:	0f b7 c0             	movzwl %ax,%eax
   17293:	be 08 00 00 00       	mov    $0x8,%esi
   17298:	89 c7                	mov    %eax,%edi
   1729a:	e8 67 5b ff ff       	callq  ce06 <safe_lshift_func_uint16_t_u_u>
   1729f:	89 de                	mov    %ebx,%esi
   172a1:	bf 01 00 00 00       	mov    $0x1,%edi
   172a6:	e8 4a 51 ff ff       	callq  c3f5 <safe_mul_func_int16_t_s_s>
   172ab:	98                   	cwtl   
   172ac:	31 85 64 f0 ff ff    	xor    %eax,-0xf9c(%rbp)
   172b2:	83 85 d4 ef ff ff 01 	addl   $0x1,-0x102c(%rbp)
   172b9:	83 bd d4 ef ff ff 08 	cmpl   $0x8,-0x102c(%rbp)
   172c0:	0f 86 f3 f8 ff ff    	jbe    16bb9 <func_18+0x3806>
   172c6:	48 c7 05 67 ef 00 00 	movq   $0x0,0xef67(%rip)        # 26238 <g_302>
   172cd:	00 00 00 00 
   172d1:	e9 dd 01 00 00       	jmpq   174b3 <func_18+0x4100>
   172d6:	48 c7 85 e8 f3 ff ff 	movq   $0x0,-0xc18(%rbp)
   172dd:	00 00 00 00 
   172e1:	48 8d 85 c0 f9 ff ff 	lea    -0x640(%rbp),%rax
   172e8:	48 8d 15 11 fc 00 00 	lea    0xfc11(%rip),%rdx        # 26f00 <g_4408+0xb20>
   172ef:	b9 36 00 00 00       	mov    $0x36,%ecx
   172f4:	48 89 c7             	mov    %rax,%rdi
   172f7:	48 89 d6             	mov    %rdx,%rsi
   172fa:	f3 48 a5             	rep movsq %ds:(%rsi),%es:(%rdi)
   172fd:	48 8d 85 c0 f9 ff ff 	lea    -0x640(%rbp),%rax
   17304:	48 05 88 01 00 00    	add    $0x188,%rax
   1730a:	48 89 85 f0 f3 ff ff 	mov    %rax,-0xc10(%rbp)
   17311:	c7 85 60 f0 ff ff 09 	movl   $0x9,-0xfa0(%rbp)
   17318:	00 00 00 
   1731b:	48 8d 05 46 19 01 00 	lea    0x11946(%rip),%rax        # 28c68 <g_2388>
   17322:	48 89 85 d0 f3 ff ff 	mov    %rax,-0xc30(%rbp)
   17329:	48 8b 85 f0 f3 ff ff 	mov    -0xc10(%rbp),%rax
   17330:	48 8b 95 d0 f3 ff ff 	mov    -0xc30(%rbp),%rdx
   17337:	48 89 10             	mov    %rdx,(%rax)
   1733a:	48 8b 05 ff 0a 01 00 	mov    0x10aff(%rip),%rax        # 27e40 <g_479>
   17341:	48 8b 00             	mov    (%rax),%rax
   17344:	48 8b 00             	mov    (%rax),%rax
   17347:	0f b7 00             	movzwl (%rax),%eax
   1734a:	0f b7 d8             	movzwl %ax,%ebx
   1734d:	8b 85 2c ef ff ff    	mov    -0x10d4(%rbp),%eax
   17353:	98                   	cwtl   
   17354:	be 05 00 00 00       	mov    $0x5,%esi
   17359:	89 c7                	mov    %eax,%edi
   1735b:	e8 03 52 ff ff       	callq  c563 <safe_rshift_func_int16_t_s_u>
   17360:	be 53 a9 36 b1       	mov    $0xb136a953,%esi
   17365:	bf 1a 00 00 00       	mov    $0x1a,%edi
   1736a:	e8 1e 59 ff ff       	callq  cc8d <safe_rshift_func_uint8_t_u_s>
   1736f:	44 0f b6 e0          	movzbl %al,%r12d
   17373:	48 8b 05 ae 0a 01 00 	mov    0x10aae(%rip),%rax        # 27e28 <g_433>
   1737a:	8b 10                	mov    (%rax),%edx
   1737c:	8b 85 2c ef ff ff    	mov    -0x10d4(%rbp),%eax
   17382:	89 d6                	mov    %edx,%esi
   17384:	89 c7                	mov    %eax,%edi
   17386:	e8 72 5b ff ff       	callq  cefd <safe_mod_func_uint32_t_u_u>
   1738b:	48 8b 15 ae 0a 01 00 	mov    0x10aae(%rip),%rdx        # 27e40 <g_479>
   17392:	48 8b 12             	mov    (%rdx),%rdx
   17395:	48 8b 12             	mov    (%rdx),%rdx
   17398:	0f b7 12             	movzwl (%rdx),%edx
   1739b:	0f bf d2             	movswl %dx,%edx
   1739e:	39 d0                	cmp    %edx,%eax
   173a0:	0f 95 c0             	setne  %al
   173a3:	0f b6 c0             	movzbl %al,%eax
   173a6:	41 39 c4             	cmp    %eax,%r12d
   173a9:	0f 95 c0             	setne  %al
   173ac:	0f b6 d0             	movzbl %al,%edx
   173af:	48 8b 85 38 ef ff ff 	mov    -0x10c8(%rbp),%rax
   173b6:	0f b6 c0             	movzbl %al,%eax
   173b9:	89 d6                	mov    %edx,%esi
   173bb:	89 c7                	mov    %eax,%edi
   173bd:	e8 98 57 ff ff       	callq  cb5a <safe_add_func_uint8_t_u_u>
   173c2:	0f b6 c0             	movzbl %al,%eax
   173c5:	48 31 85 40 ef ff ff 	xor    %rax,-0x10c0(%rbp)
   173cc:	0f b7 05 5b ee 00 00 	movzwl 0xee5b(%rip),%eax        # 2622e <g_287>
   173d3:	0f b7 c0             	movzwl %ax,%eax
   173d6:	39 85 60 f0 ff ff    	cmp    %eax,-0xfa0(%rbp)
   173dc:	74 07                	je     173e5 <func_18+0x4032>
   173de:	b8 01 00 00 00       	mov    $0x1,%eax
   173e3:	eb 05                	jmp    173ea <func_18+0x4037>
   173e5:	b8 00 00 00 00       	mov    $0x0,%eax
   173ea:	98                   	cwtl   
   173eb:	be ff ff ff ff       	mov    $0xffffffff,%esi
   173f0:	89 c7                	mov    %eax,%edi
   173f2:	e8 dc 4f ff ff       	callq  c3d3 <safe_sub_func_int16_t_s_s>
   173f7:	be 00 00 00 00       	mov    $0x0,%esi
   173fc:	48 bf 02 65 f5 4e 6d 	movabs $0x6e3d5b6d4ef56502,%rdi
   17403:	5b 3d 6e 
   17406:	e8 40 5c ff ff       	callq  d04b <safe_sub_func_uint64_t_u_u>
   1740b:	88 85 5f ef ff ff    	mov    %al,-0x10a1(%rbp)
   17411:	0f be 85 5f ef ff ff 	movsbl -0x10a1(%rbp),%eax
   17418:	be f9 ff ff ff       	mov    $0xfffffff9,%esi
   1741d:	89 c7                	mov    %eax,%edi
   1741f:	e8 b0 4d ff ff       	callq  c1d4 <safe_add_func_int8_t_s_s>
   17424:	8b 05 8e ec 00 00    	mov    0xec8e(%rip),%eax        # 260b8 <g_24+0x18>
   1742a:	85 c0                	test   %eax,%eax
   1742c:	75 07                	jne    17435 <func_18+0x4082>
   1742e:	83 bd 2c ef ff ff 00 	cmpl   $0x0,-0x10d4(%rbp)
   17435:	48 8b 85 d0 f3 ff ff 	mov    -0xc30(%rbp),%rax
   1743c:	48 8b 00             	mov    (%rax),%rax
   1743f:	48 8b 00             	mov    (%rax),%rax
   17442:	48 8b 10             	mov    (%rax),%rdx
   17445:	48 8b 85 78 f4 ff ff 	mov    -0xb88(%rbp),%rax
   1744c:	48 39 c2             	cmp    %rax,%rdx
   1744f:	0f 94 c1             	sete   %cl
   17452:	48 8b 15 af ee 00 00 	mov    0xeeaf(%rip),%rdx        # 26308 <g_2089+0x8>
   17459:	48 8b 85 38 ef ff ff 	mov    -0x10c8(%rbp),%rax
   17460:	48 39 c2             	cmp    %rax,%rdx
   17463:	0f 93 c0             	setae  %al
   17466:	09 c8                	or     %ecx,%eax
   17468:	0f b6 c0             	movzbl %al,%eax
   1746b:	89 de                	mov    %ebx,%esi
   1746d:	89 c7                	mov    %eax,%edi
   1746f:	e8 c9 58 ff ff       	callq  cd3d <safe_mul_func_uint16_t_u_u>
   17474:	89 c2                	mov    %eax,%edx
   17476:	48 8b 85 90 f0 ff ff 	mov    -0xf70(%rbp),%rax
   1747d:	48 8b 00             	mov    (%rax),%rax
   17480:	48 8b 00             	mov    (%rax),%rax
   17483:	0f b7 d2             	movzwl %dx,%edx
   17486:	89 10                	mov    %edx,(%rax)
   17488:	83 bd 60 f0 ff ff 00 	cmpl   $0x0,-0xfa0(%rbp)
   1748f:	75 35                	jne    174c6 <func_18+0x4113>
   17491:	48 8b 05 b0 09 01 00 	mov    0x109b0(%rip),%rax        # 27e48 <g_489>
   17498:	48 8b 00             	mov    (%rax),%rax
   1749b:	8b 00                	mov    (%rax),%eax
   1749d:	85 c0                	test   %eax,%eax
   1749f:	75 28                	jne    174c9 <func_18+0x4116>
   174a1:	48 8b 05 90 ed 00 00 	mov    0xed90(%rip),%rax        # 26238 <g_302>
   174a8:	48 83 c0 01          	add    $0x1,%rax
   174ac:	48 89 05 85 ed 00 00 	mov    %rax,0xed85(%rip)        # 26238 <g_302>
   174b3:	48 8b 05 7e ed 00 00 	mov    0xed7e(%rip),%rax        # 26238 <g_302>
   174ba:	48 83 f8 02          	cmp    $0x2,%rax
   174be:	0f 8e 12 fe ff ff    	jle    172d6 <func_18+0x3f23>
   174c4:	eb 04                	jmp    174ca <func_18+0x4117>
   174c6:	90                   	nop
   174c7:	eb 01                	jmp    174ca <func_18+0x4117>
   174c9:	90                   	nop
   174ca:	48 c7 05 23 ed 00 00 	movq   $0x0,0xed23(%rip)        # 261f8 <g_244>
   174d1:	00 00 00 00 
   174d5:	90                   	nop
   174d6:	48 8b 05 1b ed 00 00 	mov    0xed1b(%rip),%rax        # 261f8 <g_244>
   174dd:	48 83 f8 02          	cmp    $0x2,%rax
   174e1:	0f 87 33 01 00 00    	ja     1761a <func_18+0x4267>
   174e7:	48 8d 85 c0 f0 ff ff 	lea    -0xf40(%rbp),%rax
   174ee:	48 89 85 f8 f3 ff ff 	mov    %rax,-0xc08(%rbp)
   174f5:	48 8b 85 98 f0 ff ff 	mov    -0xf68(%rbp),%rax
   174fc:	48 8b 00             	mov    (%rax),%rax
   174ff:	48 8b 00             	mov    (%rax),%rax
   17502:	48 8b 00             	mov    (%rax),%rax
   17505:	c7 00 01 00 00 00    	movl   $0x1,(%rax)
   1750b:	48 8b 85 48 ef ff ff 	mov    -0x10b8(%rbp),%rax
   17512:	89 c3                	mov    %eax,%ebx
   17514:	c7 85 b0 f5 ff ff 80 	movl   $0x80,-0xa50(%rbp)
   1751b:	00 00 00 
   1751e:	48 8b 05 d3 ec 00 00 	mov    0xecd3(%rip),%rax        # 261f8 <g_244>
   17525:	48 8b 94 c5 f0 f4 ff 	mov    -0xb10(%rbp,%rax,8),%rdx
   1752c:	ff 
   1752d:	48 8b 05 2c 18 01 00 	mov    0x1182c(%rip),%rax        # 28d60 <g_2685>
   17534:	48 89 05 25 18 01 00 	mov    %rax,0x11825(%rip)        # 28d60 <g_2685>
   1753b:	48 8b 05 1e 18 01 00 	mov    0x1181e(%rip),%rax        # 28d60 <g_2685>
   17542:	48 39 c2             	cmp    %rax,%rdx
   17545:	0f 94 c0             	sete   %al
   17548:	0f b6 c0             	movzbl %al,%eax
   1754b:	be 80 00 00 00       	mov    $0x80,%esi
   17550:	89 c7                	mov    %eax,%edi
   17552:	e8 03 56 ff ff       	callq  cb5a <safe_add_func_uint8_t_u_u>
   17557:	48 8b 05 b2 15 01 00 	mov    0x115b2(%rip),%rax        # 28b10 <g_1561>
   1755e:	48 8b 95 50 f1 ff ff 	mov    -0xeb0(%rbp),%rdx
   17565:	48 89 10             	mov    %rdx,(%rax)
   17568:	48 8b 08             	mov    (%rax),%rcx
   1756b:	48 8b 95 c0 f0 ff ff 	mov    -0xf40(%rbp),%rdx
   17572:	48 8b 85 f8 f3 ff ff 	mov    -0xc08(%rbp),%rax
   17579:	48 89 10             	mov    %rdx,(%rax)
   1757c:	48 8b 85 f8 f3 ff ff 	mov    -0xc08(%rbp),%rax
   17583:	48 8b 00             	mov    (%rax),%rax
   17586:	48 39 c1             	cmp    %rax,%rcx
   17589:	0f 95 c0             	setne  %al
   1758c:	0f b6 d0             	movzbl %al,%edx
   1758f:	48 8d 85 80 f0 ff ff 	lea    -0xf80(%rbp),%rax
   17596:	48 89 85 a0 f1 ff ff 	mov    %rax,-0xe60(%rbp)
   1759d:	48 8d 85 80 f0 ff ff 	lea    -0xf80(%rbp),%rax
   175a4:	48 39 85 a0 f1 ff ff 	cmp    %rax,-0xe60(%rbp)
   175ab:	0f 95 c0             	setne  %al
   175ae:	0f b6 c8             	movzbl %al,%ecx
   175b1:	48 8b 05 88 08 01 00 	mov    0x10888(%rip),%rax        # 27e40 <g_479>
   175b8:	48 8b 00             	mov    (%rax),%rax
   175bb:	48 8b 00             	mov    (%rax),%rax
   175be:	0f b7 00             	movzwl (%rax),%eax
   175c1:	98                   	cwtl   
   175c2:	21 c8                	and    %ecx,%eax
   175c4:	39 c2                	cmp    %eax,%edx
   175c6:	0f 9f c0             	setg   %al
   175c9:	0f b6 c0             	movzbl %al,%eax
   175cc:	89 de                	mov    %ebx,%esi
   175ce:	89 c7                	mov    %eax,%edi
   175d0:	e8 e1 4f ff ff       	callq  c5b6 <safe_add_func_int32_t_s_s>
   175d5:	89 c2                	mov    %eax,%edx
   175d7:	48 8b 85 b0 f1 ff ff 	mov    -0xe50(%rbp),%rax
   175de:	66 89 10             	mov    %dx,(%rax)
   175e1:	be 05 00 00 00       	mov    $0x5,%esi
   175e6:	bf 9d ff ff ff       	mov    $0xffffff9d,%edi
   175eb:	e8 7c 4d ff ff       	callq  c36c <safe_rshift_func_int8_t_s_u>
   175f0:	83 c8 f7             	or     $0xfffffff7,%eax
   175f3:	0f be c0             	movsbl %al,%eax
   175f6:	f7 d0                	not    %eax
   175f8:	89 c2                	mov    %eax,%edx
   175fa:	48 8b 85 48 ef ff ff 	mov    -0x10b8(%rbp),%rax
   17601:	21 d0                	and    %edx,%eax
   17603:	89 c2                	mov    %eax,%edx
   17605:	48 8b 85 28 f1 ff ff 	mov    -0xed8(%rbp),%rax
   1760c:	89 10                	mov    %edx,(%rax)
   1760e:	48 8b 85 38 ef ff ff 	mov    -0x10c8(%rbp),%rax
   17615:	e9 a3 12 00 00       	jmpq   188bd <func_18+0x550a>
   1761a:	83 85 d8 ef ff ff 01 	addl   $0x1,-0x1028(%rbp)
   17621:	83 bd d8 ef ff ff 08 	cmpl   $0x8,-0x1028(%rbp)
   17628:	0f 8e 20 f0 ff ff    	jle    1664e <func_18+0x329b>
   1762e:	48 8b 85 48 ef ff ff 	mov    -0x10b8(%rbp),%rax
   17635:	0f be d8             	movsbl %al,%ebx
   17638:	48 8b 05 21 17 01 00 	mov    0x11721(%rip),%rax        # 28d60 <g_2685>
   1763f:	48 8b 00             	mov    (%rax),%rax
   17642:	48 8b 00             	mov    (%rax),%rax
   17645:	0f b6 10             	movzbl (%rax),%edx
   17648:	48 8b 85 48 ef ff ff 	mov    -0x10b8(%rbp),%rax
   1764f:	89 c1                	mov    %eax,%ecx
   17651:	48 8b 85 a0 f3 ff ff 	mov    -0xc60(%rbp),%rax
   17658:	88 08                	mov    %cl,(%rax)
   1765a:	48 8b 85 a0 f3 ff ff 	mov    -0xc60(%rbp),%rax
   17661:	0f b6 00             	movzbl (%rax),%eax
   17664:	38 c2                	cmp    %al,%dl
   17666:	0f 84 04 01 00 00    	je     17770 <func_18+0x43bd>
   1766c:	48 8b 85 78 f0 ff ff 	mov    -0xf88(%rbp),%rax
   17673:	8b 00                	mov    (%rax),%eax
   17675:	4c 63 e0             	movslq %eax,%r12
   17678:	48 8b 85 a0 f1 ff ff 	mov    -0xe60(%rbp),%rax
   1767f:	48 8b 00             	mov    (%rax),%rax
   17682:	48 85 c0             	test   %rax,%rax
   17685:	75 2b                	jne    176b2 <func_18+0x42ff>
   17687:	48 8b 85 38 ef ff ff 	mov    -0x10c8(%rbp),%rax
   1768e:	44 0f be e8          	movsbl %al,%r13d
   17692:	be 0e 00 00 00       	mov    $0xe,%esi
   17697:	bf ff ff ff ff       	mov    $0xffffffff,%edi
   1769c:	e8 c2 4e ff ff       	callq  c563 <safe_rshift_func_int16_t_s_u>
   176a1:	0f be c0             	movsbl %al,%eax
   176a4:	44 89 ee             	mov    %r13d,%esi
   176a7:	89 c7                	mov    %eax,%edi
   176a9:	e8 83 4b ff ff       	callq  c231 <safe_mod_func_int8_t_s_s>
   176ae:	84 c0                	test   %al,%al
   176b0:	74 07                	je     176b9 <func_18+0x4306>
   176b2:	b8 01 00 00 00       	mov    $0x1,%eax
   176b7:	eb 05                	jmp    176be <func_18+0x430b>
   176b9:	b8 00 00 00 00       	mov    $0x0,%eax
   176be:	0f be c0             	movsbl %al,%eax
   176c1:	be 01 00 00 00       	mov    $0x1,%esi
   176c6:	89 c7                	mov    %eax,%edi
   176c8:	e8 9d 4b ff ff       	callq  c26a <safe_div_func_int8_t_s_s>
   176cd:	84 c0                	test   %al,%al
   176cf:	75 0b                	jne    176dc <func_18+0x4329>
   176d1:	48 8b 85 28 f1 ff ff 	mov    -0xed8(%rbp),%rax
   176d8:	8b 00                	mov    (%rax),%eax
   176da:	85 c0                	test   %eax,%eax
   176dc:	8b 85 2c ef ff ff    	mov    -0x10d4(%rbp),%eax
   176e2:	48 63 d0             	movslq %eax,%rdx
   176e5:	48 8b 05 54 07 01 00 	mov    0x10754(%rip),%rax        # 27e40 <g_479>
   176ec:	48 8b 00             	mov    (%rax),%rax
   176ef:	48 8b 00             	mov    (%rax),%rax
   176f2:	0f b7 00             	movzwl (%rax),%eax
   176f5:	48 0f bf c0          	movswq %ax,%rax
   176f9:	48 0d ff ff 00 00    	or     $0xffff,%rax
   176ff:	48 39 c2             	cmp    %rax,%rdx
   17702:	48 8b 85 a8 f3 ff ff 	mov    -0xc58(%rbp),%rax
   17709:	48 c7 00 00 00 00 00 	movq   $0x0,(%rax)
   17710:	48 8b 85 a8 f3 ff ff 	mov    -0xc58(%rbp),%rax
   17717:	48 8b 00             	mov    (%rax),%rax
   1771a:	4c 89 e6             	mov    %r12,%rsi
   1771d:	48 89 c7             	mov    %rax,%rdi
   17720:	e8 5b 59 ff ff       	callq  d080 <safe_mod_func_uint64_t_u_u>
   17725:	48 8b 85 48 ef ff ff 	mov    -0x10b8(%rbp),%rax
   1772c:	48 3d fe 00 00 00    	cmp    $0xfe,%rax
   17732:	0f 97 c0             	seta   %al
   17735:	0f b6 c0             	movzbl %al,%eax
   17738:	be f8 ff ff ff       	mov    $0xfffffff8,%esi
   1773d:	89 c7                	mov    %eax,%edi
   1773f:	e8 b1 4c ff ff       	callq  c3f5 <safe_mul_func_int16_t_s_s>
   17744:	48 0f bf d0          	movswq %ax,%rdx
   17748:	48 8b 05 f9 14 01 00 	mov    0x114f9(%rip),%rax        # 28c48 <g_2122>
   1774f:	48 8b 00             	mov    (%rax),%rax
   17752:	48 85 c0             	test   %rax,%rax
   17755:	0f 95 c0             	setne  %al
   17758:	0f b6 c0             	movzbl %al,%eax
   1775b:	48 89 d6             	mov    %rdx,%rsi
   1775e:	48 89 c7             	mov    %rax,%rdi
   17761:	e8 e5 58 ff ff       	callq  d04b <safe_sub_func_uint64_t_u_u>
   17766:	48 8b 95 48 ef ff ff 	mov    -0x10b8(%rbp),%rdx
   1776d:	48 39 d0             	cmp    %rdx,%rax
   17770:	48 8b 85 38 ef ff ff 	mov    -0x10c8(%rbp),%rax
   17777:	0f be c0             	movsbl %al,%eax
   1777a:	be 00 00 00 00       	mov    $0x0,%esi
   1777f:	89 c7                	mov    %eax,%edi
   17781:	e8 68 4b ff ff       	callq  c2ee <safe_lshift_func_int8_t_s_u>
   17786:	84 c0                	test   %al,%al
   17788:	74 0e                	je     17798 <func_18+0x43e5>
   1778a:	48 8b 05 87 06 01 00 	mov    0x10687(%rip),%rax        # 27e18 <g_410>
   17791:	0f b6 00             	movzbl (%rax),%eax
   17794:	84 c0                	test   %al,%al
   17796:	75 07                	jne    1779f <func_18+0x43ec>
   17798:	b8 01 00 00 00       	mov    $0x1,%eax
   1779d:	eb 05                	jmp    177a4 <func_18+0x43f1>
   1779f:	b8 00 00 00 00       	mov    $0x0,%eax
   177a4:	48 63 d0             	movslq %eax,%rdx
   177a7:	48 8b 05 52 eb 00 00 	mov    0xeb52(%rip),%rax        # 26300 <g_2089>
   177ae:	48 39 c2             	cmp    %rax,%rdx
   177b1:	0f 92 c0             	setb   %al
   177b4:	0f b6 c0             	movzbl %al,%eax
   177b7:	be 00 00 00 00       	mov    $0x0,%esi
   177bc:	89 c7                	mov    %eax,%edi
   177be:	e8 23 57 ff ff       	callq  cee6 <safe_mul_func_uint32_t_u_u>
   177c3:	48 8b 05 4e 06 01 00 	mov    0x1064e(%rip),%rax        # 27e18 <g_410>
   177ca:	0f b6 00             	movzbl (%rax),%eax
   177cd:	0f be c0             	movsbl %al,%eax
   177d0:	89 de                	mov    %ebx,%esi
   177d2:	89 c7                	mov    %eax,%edi
   177d4:	e8 39 4a ff ff       	callq  c212 <safe_mul_func_int8_t_s_s>
   177d9:	b8 c2 6a 00 00       	mov    $0x6ac2,%eax
   177de:	66 85 c0             	test   %ax,%ax
   177e1:	74 1b                	je     177fe <func_18+0x444b>
   177e3:	48 8b 85 90 f0 ff ff 	mov    -0xf70(%rbp),%rax
   177ea:	48 8b 00             	mov    (%rax),%rax
   177ed:	48 8b 00             	mov    (%rax),%rax
   177f0:	48 8b 95 40 ef ff ff 	mov    -0x10c0(%rbp),%rdx
   177f7:	89 10                	mov    %edx,(%rax)
   177f9:	e9 40 0d 00 00       	jmpq   1853e <func_18+0x518b>
   177fe:	48 8d 85 b0 f4 ff ff 	lea    -0xb50(%rbp),%rax
   17805:	48 83 c0 0c          	add    $0xc,%rax
   17809:	48 89 85 20 f1 ff ff 	mov    %rax,-0xee0(%rbp)
   17810:	c7 85 4c f0 ff ff 36 	movl   $0xa2a92a36,-0xfb4(%rbp)
   17817:	2a a9 a2 
   1781a:	c7 85 70 fb ff ff 6c 	movl   $0xf306726c,-0x490(%rbp)
   17821:	72 06 f3 
   17824:	c7 85 74 fb ff ff 6c 	movl   $0xf306726c,-0x48c(%rbp)
   1782b:	72 06 f3 
   1782e:	c7 85 78 fb ff ff 6c 	movl   $0xf306726c,-0x488(%rbp)
   17835:	72 06 f3 
   17838:	c7 85 7c fb ff ff 6c 	movl   $0xf306726c,-0x484(%rbp)
   1783f:	72 06 f3 
   17842:	c7 85 80 fb ff ff 6c 	movl   $0xf306726c,-0x480(%rbp)
   17849:	72 06 f3 
   1784c:	c7 85 84 fb ff ff 6c 	movl   $0xf306726c,-0x47c(%rbp)
   17853:	72 06 f3 
   17856:	c7 85 88 fb ff ff 6c 	movl   $0xf306726c,-0x478(%rbp)
   1785d:	72 06 f3 
   17860:	c7 85 8c fb ff ff 6c 	movl   $0xf306726c,-0x474(%rbp)
   17867:	72 06 f3 
   1786a:	c7 85 cc ef ff ff eb 	movl   $0xffffffeb,-0x1034(%rbp)
   17871:	ff ff ff 
   17874:	eb 39                	jmp    178af <func_18+0x44fc>
   17876:	48 8b 05 cb 05 01 00 	mov    0x105cb(%rip),%rax        # 27e48 <g_489>
   1787d:	48 8b 00             	mov    (%rax),%rax
   17880:	48 89 85 78 f0 ff ff 	mov    %rax,-0xf88(%rbp)
   17887:	48 8b 05 9a 12 01 00 	mov    0x1129a(%rip),%rax        # 28b28 <g_1771>
   1788e:	48 8b 00             	mov    (%rax),%rax
   17891:	48 8b 00             	mov    (%rax),%rax
   17894:	48 8b 95 20 f1 ff ff 	mov    -0xee0(%rbp),%rdx
   1789b:	48 89 10             	mov    %rdx,(%rax)
   1789e:	48 8b 00             	mov    (%rax),%rax
   178a1:	48 89 85 20 f1 ff ff 	mov    %rax,-0xee0(%rbp)
   178a8:	83 85 cc ef ff ff 01 	addl   $0x1,-0x1034(%rbp)
   178af:	83 bd cc ef ff ff 24 	cmpl   $0x24,-0x1034(%rbp)
   178b6:	75 be                	jne    17876 <func_18+0x44c3>
   178b8:	48 8b 85 40 ef ff ff 	mov    -0x10c0(%rbp),%rax
   178bf:	0f bf d8             	movswl %ax,%ebx
   178c2:	48 8b 85 a0 f0 ff ff 	mov    -0xf60(%rbp),%rax
   178c9:	48 85 c0             	test   %rax,%rax
   178cc:	0f 85 57 01 00 00    	jne    17a29 <func_18+0x4676>
   178d2:	8b 85 48 f0 ff ff    	mov    -0xfb8(%rbp),%eax
   178d8:	44 0f b7 e0          	movzwl %ax,%r12d
   178dc:	48 8b 05 35 05 01 00 	mov    0x10535(%rip),%rax        # 27e18 <g_410>
   178e3:	0f b6 00             	movzbl (%rax),%eax
   178e6:	44 0f be e8          	movsbl %al,%r13d
   178ea:	48 8b 85 48 ef ff ff 	mov    -0x10b8(%rbp),%rax
   178f1:	44 0f b7 f0          	movzwl %ax,%r14d
   178f5:	8b 05 c9 e7 00 00    	mov    0xe7c9(%rip),%eax        # 260c4 <g_24+0x24>
   178fb:	44 0f b7 f8          	movzwl %ax,%r15d
   178ff:	8b 85 2c ef ff ff    	mov    -0x10d4(%rbp),%eax
   17905:	48 98                	cltq   
   17907:	48 89 85 20 ef ff ff 	mov    %rax,-0x10e0(%rbp)
   1790e:	48 8b 85 48 ef ff ff 	mov    -0x10b8(%rbp),%rax
   17915:	48 85 c0             	test   %rax,%rax
   17918:	74 26                	je     17940 <func_18+0x458d>
   1791a:	48 8b 85 38 ef ff ff 	mov    -0x10c8(%rbp),%rax
   17921:	89 c2                	mov    %eax,%edx
   17923:	48 8b 05 fe 04 01 00 	mov    0x104fe(%rip),%rax        # 27e28 <g_433>
   1792a:	8b 00                	mov    (%rax),%eax
   1792c:	89 d6                	mov    %edx,%esi
   1792e:	89 c7                	mov    %eax,%edi
   17930:	e8 f0 55 ff ff       	callq  cf25 <safe_div_func_uint32_t_u_u>
   17935:	85 c0                	test   %eax,%eax
   17937:	74 07                	je     17940 <func_18+0x458d>
   17939:	b9 01 00 00 00       	mov    $0x1,%ecx
   1793e:	eb 05                	jmp    17945 <func_18+0x4592>
   17940:	b9 00 00 00 00       	mov    $0x0,%ecx
   17945:	48 8b 05 d4 11 01 00 	mov    0x111d4(%rip),%rax        # 28b20 <g_1772>
   1794c:	48 8b 00             	mov    (%rax),%rax
   1794f:	48 8b 00             	mov    (%rax),%rax
   17952:	48 8b 95 38 ef ff ff 	mov    -0x10c8(%rbp),%rdx
   17959:	89 10                	mov    %edx,(%rax)
   1795b:	8b 00                	mov    (%rax),%eax
   1795d:	89 ce                	mov    %ecx,%esi
   1795f:	89 c7                	mov    %eax,%edi
   17961:	e8 99 4d ff ff       	callq  c6ff <safe_div_func_int32_t_s_s>
   17966:	48 8b 15 93 04 01 00 	mov    0x10493(%rip),%rdx        # 27e00 <g_87>
   1796d:	0f b6 12             	movzbl (%rdx),%edx
   17970:	0f b6 d2             	movzbl %dl,%edx
   17973:	21 d0                	and    %edx,%eax
   17975:	48 98                	cltq   
   17977:	48 8b 95 30 ef ff ff 	mov    -0x10d0(%rbp),%rdx
   1797e:	48 89 d6             	mov    %rdx,%rsi
   17981:	48 89 c7             	mov    %rax,%rdi
   17984:	e8 b8 4e ff ff       	callq  c841 <safe_add_func_int64_t_s_s>
   17989:	48 83 bd 40 ef ff ff 	cmpq   $0x0,-0x10c0(%rbp)
   17990:	00 
   17991:	75 09                	jne    1799c <func_18+0x45e9>
   17993:	80 bd 64 ef ff ff 00 	cmpb   $0x0,-0x109c(%rbp)
   1799a:	74 07                	je     179a3 <func_18+0x45f0>
   1799c:	b8 01 00 00 00       	mov    $0x1,%eax
   179a1:	eb 05                	jmp    179a8 <func_18+0x45f5>
   179a3:	b8 00 00 00 00       	mov    $0x0,%eax
   179a8:	48 98                	cltq   
   179aa:	48 39 85 38 ef ff ff 	cmp    %rax,-0x10c8(%rbp)
   179b1:	0f 94 c0             	sete   %al
   179b4:	0f b6 d0             	movzbl %al,%edx
   179b7:	8b 05 cb 34 01 00    	mov    0x134cb(%rip),%eax        # 2ae88 <g_421>
   179bd:	39 c2                	cmp    %eax,%edx
   179bf:	0f 93 c0             	setae  %al
   179c2:	0f b6 c0             	movzbl %al,%eax
   179c5:	48 39 85 38 ef ff ff 	cmp    %rax,-0x10c8(%rbp)
   179cc:	0f 9e c0             	setle  %al
   179cf:	0f b6 c0             	movzbl %al,%eax
   179d2:	48 8b b5 20 ef ff ff 	mov    -0x10e0(%rbp),%rsi
   179d9:	48 89 c7             	mov    %rax,%rdi
   179dc:	e8 60 4e ff ff       	callq  c841 <safe_add_func_int64_t_s_s>
   179e1:	44 89 fe             	mov    %r15d,%esi
   179e4:	bf 01 00 00 00       	mov    $0x1,%edi
   179e9:	e8 11 53 ff ff       	callq  ccff <safe_add_func_uint16_t_u_u>
   179ee:	48 8b 05 23 04 01 00 	mov    0x10423(%rip),%rax        # 27e18 <g_410>
   179f5:	0f b6 00             	movzbl (%rax),%eax
   179f8:	3c 01                	cmp    $0x1,%al
   179fa:	0f 95 c0             	setne  %al
   179fd:	0f b6 c0             	movzbl %al,%eax
   17a00:	44 89 f6             	mov    %r14d,%esi
   17a03:	89 c7                	mov    %eax,%edi
   17a05:	e8 33 53 ff ff       	callq  cd3d <safe_mul_func_uint16_t_u_u>
   17a0a:	0f b6 c0             	movzbl %al,%eax
   17a0d:	44 89 ee             	mov    %r13d,%esi
   17a10:	89 c7                	mov    %eax,%edi
   17a12:	e8 76 52 ff ff       	callq  cc8d <safe_rshift_func_uint8_t_u_s>
   17a17:	0f b6 c0             	movzbl %al,%eax
   17a1a:	44 89 e6             	mov    %r12d,%esi
   17a1d:	89 c7                	mov    %eax,%edi
   17a1f:	e8 fb 52 ff ff       	callq  cd1f <safe_sub_func_uint16_t_u_u>
   17a24:	66 85 c0             	test   %ax,%ax
   17a27:	74 07                	je     17a30 <func_18+0x467d>
   17a29:	b8 01 00 00 00       	mov    $0x1,%eax
   17a2e:	eb 05                	jmp    17a35 <func_18+0x4682>
   17a30:	b8 00 00 00 00       	mov    $0x0,%eax
   17a35:	0f b7 c0             	movzwl %ax,%eax
   17a38:	be 04 00 00 00       	mov    $0x4,%esi
   17a3d:	89 c7                	mov    %eax,%edi
   17a3f:	e8 04 54 ff ff       	callq  ce48 <safe_rshift_func_uint16_t_u_s>
   17a44:	89 c2                	mov    %eax,%edx
   17a46:	48 8b 05 b3 03 01 00 	mov    0x103b3(%rip),%rax        # 27e00 <g_87>
   17a4d:	88 10                	mov    %dl,(%rax)
   17a4f:	0f b6 00             	movzbl (%rax),%eax
   17a52:	0f b6 d0             	movzbl %al,%edx
   17a55:	8b 05 e1 e8 00 00    	mov    0xe8e1(%rip),%eax        # 2633c <g_2747>
   17a5b:	39 c2                	cmp    %eax,%edx
   17a5d:	0f 9e c0             	setle  %al
   17a60:	0f b6 c0             	movzbl %al,%eax
   17a63:	48 be f3 c2 5d 79 53 	movabs $0xf3013d53795dc2f3,%rsi
   17a6a:	3d 01 f3 
   17a6d:	48 89 c7             	mov    %rax,%rdi
   17a70:	e8 3f 4f ff ff       	callq  c9b4 <safe_mod_func_int64_t_s_s>
   17a75:	8b 15 39 e7 00 00    	mov    0xe739(%rip),%edx        # 261b4 <g_211+0x34>
   17a7b:	89 d2                	mov    %edx,%edx
   17a7d:	48 31 d0             	xor    %rdx,%rax
   17a80:	48 39 85 38 ef ff ff 	cmp    %rax,-0x10c8(%rbp)
   17a87:	48 c7 c6 ff ff ff ff 	mov    $0xffffffffffffffff,%rsi
   17a8e:	bf 08 00 00 00       	mov    $0x8,%edi
   17a93:	e8 e8 55 ff ff       	callq  d080 <safe_mod_func_uint64_t_u_u>
   17a98:	41 89 c4             	mov    %eax,%r12d
   17a9b:	0f b7 85 72 ef ff ff 	movzwl -0x108e(%rbp),%eax
   17aa2:	98                   	cwtl   
   17aa3:	89 c7                	mov    %eax,%edi
   17aa5:	e8 f3 48 ff ff       	callq  c39d <safe_unary_minus_func_int16_t_s>
   17aaa:	0f b7 c0             	movzwl %ax,%eax
   17aad:	44 89 e6             	mov    %r12d,%esi
   17ab0:	89 c7                	mov    %eax,%edi
   17ab2:	e8 07 53 ff ff       	callq  cdbe <safe_lshift_func_uint16_t_u_s>
   17ab7:	0f b7 c0             	movzwl %ax,%eax
   17aba:	be 08 00 00 00       	mov    $0x8,%esi
   17abf:	89 c7                	mov    %eax,%edi
   17ac1:	e8 77 52 ff ff       	callq  cd3d <safe_mul_func_uint16_t_u_u>
   17ac6:	66 85 c0             	test   %ax,%ax
   17ac9:	74 07                	je     17ad2 <func_18+0x471f>
   17acb:	b8 01 00 00 00       	mov    $0x1,%eax
   17ad0:	eb 05                	jmp    17ad7 <func_18+0x4724>
   17ad2:	b8 00 00 00 00       	mov    $0x0,%eax
   17ad7:	98                   	cwtl   
   17ad8:	89 de                	mov    %ebx,%esi
   17ada:	89 c7                	mov    %eax,%edi
   17adc:	e8 f2 48 ff ff       	callq  c3d3 <safe_sub_func_int16_t_s_s>
   17ae1:	0f b7 c0             	movzwl %ax,%eax
   17ae4:	be 0a 00 00 00       	mov    $0xa,%esi
   17ae9:	89 c7                	mov    %eax,%edi
   17aeb:	e8 ce 52 ff ff       	callq  cdbe <safe_lshift_func_uint16_t_u_s>
   17af0:	66 85 c0             	test   %ax,%ax
   17af3:	74 3e                	je     17b33 <func_18+0x4780>
   17af5:	48 8d 85 98 f0 ff ff 	lea    -0xf68(%rbp),%rax
   17afc:	48 89 85 b0 f3 ff ff 	mov    %rax,-0xc50(%rbp)
   17b03:	48 8b 05 16 10 01 00 	mov    0x11016(%rip),%rax        # 28b20 <g_1772>
   17b0a:	48 8b 10             	mov    (%rax),%rdx
   17b0d:	48 8b 05 14 10 01 00 	mov    0x11014(%rip),%rax        # 28b28 <g_1771>
   17b14:	48 8b 00             	mov    (%rax),%rax
   17b17:	48 8b 00             	mov    (%rax),%rax
   17b1a:	48 8b 12             	mov    (%rdx),%rdx
   17b1d:	48 89 10             	mov    %rdx,(%rax)
   17b20:	48 8b 85 b0 f3 ff ff 	mov    -0xc50(%rbp),%rax
   17b27:	48 8d 95 90 f0 ff ff 	lea    -0xf70(%rbp),%rdx
   17b2e:	48 89 10             	mov    %rdx,(%rax)
   17b31:	eb 6a                	jmp    17b9d <func_18+0x47ea>
   17b33:	c7 85 50 f0 ff ff 0a 	movl   $0xb698c00a,-0xfb0(%rbp)
   17b3a:	c0 98 b6 
   17b3d:	c7 85 54 f0 ff ff f4 	movl   $0xd81e34f4,-0xfac(%rbp)
   17b44:	34 1e d8 
   17b47:	c7 85 c0 f9 ff ff fe 	movl   $0xfffffffe,-0x640(%rbp)
   17b4e:	ff ff ff 
   17b51:	c7 85 c4 f9 ff ff fe 	movl   $0xfffffffe,-0x63c(%rbp)
   17b58:	ff ff ff 
   17b5b:	c7 85 c8 f9 ff ff fe 	movl   $0xfffffffe,-0x638(%rbp)
   17b62:	ff ff ff 
   17b65:	c7 85 cc f9 ff ff fe 	movl   $0xfffffffe,-0x634(%rbp)
   17b6c:	ff ff ff 
   17b6f:	48 8b 85 28 f1 ff ff 	mov    -0xed8(%rbp),%rax
   17b76:	8b 10                	mov    (%rax),%edx
   17b78:	48 8b 05 a9 0f 01 00 	mov    0x10fa9(%rip),%rax        # 28b28 <g_1771>
   17b7f:	48 8b 00             	mov    (%rax),%rax
   17b82:	48 8b 00             	mov    (%rax),%rax
   17b85:	48 8b 00             	mov    (%rax),%rax
   17b88:	8b 00                	mov    (%rax),%eax
   17b8a:	31 c2                	xor    %eax,%edx
   17b8c:	48 8b 85 28 f1 ff ff 	mov    -0xed8(%rbp),%rax
   17b93:	89 10                	mov    %edx,(%rax)
   17b95:	48 83 ad c0 f1 ff ff 	subq   $0x1,-0xe40(%rbp)
   17b9c:	01 
   17b9d:	c6 05 90 e7 00 00 eb 	movb   $0xeb,0xe790(%rip)        # 26334 <g_2178>
   17ba4:	eb 27                	jmp    17bcd <func_18+0x481a>
   17ba6:	c7 85 58 f0 ff ff 06 	movl   $0x6,-0xfa8(%rbp)
   17bad:	00 00 00 
   17bb0:	83 bd 58 f0 ff ff 00 	cmpl   $0x0,-0xfa8(%rbp)
   17bb7:	0f 85 80 09 00 00    	jne    1853d <func_18+0x518a>
   17bbd:	0f b6 05 70 e7 00 00 	movzbl 0xe770(%rip),%eax        # 26334 <g_2178>
   17bc4:	83 c0 01             	add    $0x1,%eax
   17bc7:	88 05 67 e7 00 00    	mov    %al,0xe767(%rip)        # 26334 <g_2178>
   17bcd:	0f b6 05 60 e7 00 00 	movzbl 0xe760(%rip),%eax        # 26334 <g_2178>
   17bd4:	3c 30                	cmp    $0x30,%al
   17bd6:	76 ce                	jbe    17ba6 <func_18+0x47f3>
   17bd8:	e9 61 09 00 00       	jmpq   1853e <func_18+0x518b>
   17bdd:	48 8d 05 bc 32 01 00 	lea    0x132bc(%rip),%rax        # 2aea0 <g_545>
   17be4:	48 89 85 68 f3 ff ff 	mov    %rax,-0xc98(%rbp)
   17beb:	48 8d 05 d6 32 01 00 	lea    0x132d6(%rip),%rax        # 2aec8 <g_1067>
   17bf2:	48 89 85 70 f3 ff ff 	mov    %rax,-0xc90(%rbp)
   17bf9:	48 8d 05 a8 10 01 00 	lea    0x110a8(%rip),%rax        # 28ca8 <g_2594+0x28>
   17c00:	48 89 85 78 f3 ff ff 	mov    %rax,-0xc88(%rbp)
   17c07:	c7 85 18 f1 ff ff 2c 	movl   $0xa6e4b32c,-0xee8(%rbp)
   17c0e:	b3 e4 a6 
   17c11:	c6 85 69 ef ff ff 65 	movb   $0x65,-0x1097(%rbp)
   17c18:	48 8d 85 a8 f0 ff ff 	lea    -0xf58(%rbp),%rax
   17c1f:	48 89 85 c0 f9 ff ff 	mov    %rax,-0x640(%rbp)
   17c26:	48 8d 85 a8 f0 ff ff 	lea    -0xf58(%rbp),%rax
   17c2d:	48 89 85 c8 f9 ff ff 	mov    %rax,-0x638(%rbp)
   17c34:	48 8d 85 a8 f0 ff ff 	lea    -0xf58(%rbp),%rax
   17c3b:	48 89 85 d0 f9 ff ff 	mov    %rax,-0x630(%rbp)
   17c42:	48 8d 85 a8 f0 ff ff 	lea    -0xf58(%rbp),%rax
   17c49:	48 89 85 d8 f9 ff ff 	mov    %rax,-0x628(%rbp)
   17c50:	48 8d 85 a8 f0 ff ff 	lea    -0xf58(%rbp),%rax
   17c57:	48 89 85 e0 f9 ff ff 	mov    %rax,-0x620(%rbp)
   17c5e:	48 8d 85 a8 f0 ff ff 	lea    -0xf58(%rbp),%rax
   17c65:	48 89 85 e8 f9 ff ff 	mov    %rax,-0x618(%rbp)
   17c6c:	48 8d 85 a8 f0 ff ff 	lea    -0xf58(%rbp),%rax
   17c73:	48 89 85 f0 f9 ff ff 	mov    %rax,-0x610(%rbp)
   17c7a:	48 8d 85 a8 f0 ff ff 	lea    -0xf58(%rbp),%rax
   17c81:	48 89 85 f8 f9 ff ff 	mov    %rax,-0x608(%rbp)
   17c88:	48 8d 85 a8 f0 ff ff 	lea    -0xf58(%rbp),%rax
   17c8f:	48 89 85 00 fa ff ff 	mov    %rax,-0x600(%rbp)
   17c96:	48 8b 05 c3 10 01 00 	mov    0x110c3(%rip),%rax        # 28d60 <g_2685>
   17c9d:	48 8b 00             	mov    (%rax),%rax
   17ca0:	48 8b 00             	mov    (%rax),%rax
   17ca3:	0f b6 00             	movzbl (%rax),%eax
   17ca6:	0f b6 d8             	movzbl %al,%ebx
   17ca9:	48 8b 05 b0 10 01 00 	mov    0x110b0(%rip),%rax        # 28d60 <g_2685>
   17cb0:	48 8b 00             	mov    (%rax),%rax
   17cb3:	48 8b 00             	mov    (%rax),%rax
   17cb6:	0f b6 00             	movzbl (%rax),%eax
   17cb9:	44 0f b6 e0          	movzbl %al,%r12d
   17cbd:	8b 85 2c ef ff ff    	mov    -0x10d4(%rbp),%eax
   17cc3:	48 83 bd 30 ef ff ff 	cmpq   $0x0,-0x10d0(%rbp)
   17cca:	00 
   17ccb:	74 13                	je     17ce0 <func_18+0x492d>
   17ccd:	48 8b 95 48 ef ff ff 	mov    -0x10b8(%rbp),%rdx
   17cd4:	48 85 d2             	test   %rdx,%rdx
   17cd7:	74 07                	je     17ce0 <func_18+0x492d>
   17cd9:	ba 01 00 00 00       	mov    $0x1,%edx
   17cde:	eb 05                	jmp    17ce5 <func_18+0x4932>
   17ce0:	ba 00 00 00 00       	mov    $0x0,%edx
   17ce5:	89 c6                	mov    %eax,%esi
   17ce7:	89 d7                	mov    %edx,%edi
   17ce9:	e8 e2 51 ff ff       	callq  ced0 <safe_sub_func_uint32_t_u_u>
   17cee:	85 c0                	test   %eax,%eax
   17cf0:	0f 94 c0             	sete   %al
   17cf3:	0f b6 c0             	movzbl %al,%eax
   17cf6:	8b 95 2c ef ff ff    	mov    -0x10d4(%rbp),%edx
   17cfc:	89 d6                	mov    %edx,%esi
   17cfe:	89 c7                	mov    %eax,%edi
   17d00:	e8 9c 45 ff ff       	callq  c2a1 <safe_lshift_func_int8_t_s_s>
   17d05:	0f be c0             	movsbl %al,%eax
   17d08:	44 89 e6             	mov    %r12d,%esi
   17d0b:	89 c7                	mov    %eax,%edi
   17d0d:	e8 dc 45 ff ff       	callq  c2ee <safe_lshift_func_int8_t_s_u>
   17d12:	48 8d 85 a0 f0 ff ff 	lea    -0xf60(%rbp),%rax
   17d19:	48 89 85 60 f1 ff ff 	mov    %rax,-0xea0(%rbp)
   17d20:	48 8b 05 51 05 01 00 	mov    0x10551(%rip),%rax        # 28278 <g_522>
   17d27:	48 8b 00             	mov    (%rax),%rax
   17d2a:	48 8b 05 e7 00 01 00 	mov    0x100e7(%rip),%rax        # 27e18 <g_410>
   17d31:	0f b6 00             	movzbl (%rax),%eax
   17d34:	48 0f be d0          	movsbq %al,%rdx
   17d38:	48 8b 85 48 ef ff ff 	mov    -0x10b8(%rbp),%rax
   17d3f:	48 39 c2             	cmp    %rax,%rdx
   17d42:	0f 96 c0             	setbe  %al
   17d45:	0f b6 c0             	movzbl %al,%eax
   17d48:	89 de                	mov    %ebx,%esi
   17d4a:	89 c7                	mov    %eax,%edi
   17d4c:	e8 1b 46 ff ff       	callq  c36c <safe_rshift_func_int8_t_s_u>
   17d51:	48 8b 85 e0 f0 ff ff 	mov    -0xf20(%rbp),%rax
   17d58:	48 39 85 78 f3 ff ff 	cmp    %rax,-0xc88(%rbp)
   17d5f:	0f 95 c0             	setne  %al
   17d62:	0f b6 d0             	movzbl %al,%edx
   17d65:	48 8b 85 48 ef ff ff 	mov    -0x10b8(%rbp),%rax
   17d6c:	48 39 c2             	cmp    %rax,%rdx
   17d6f:	0f 93 c0             	setae  %al
   17d72:	0f b6 c0             	movzbl %al,%eax
   17d75:	8b 95 18 f1 ff ff    	mov    -0xee8(%rbp),%edx
   17d7b:	31 d0                	xor    %edx,%eax
   17d7d:	0f bf d8             	movswl %ax,%ebx
   17d80:	48 8b 85 38 ef ff ff 	mov    -0x10c8(%rbp),%rax
   17d87:	48 be b5 53 96 13 e5 	movabs $0x4c383be5139653b5,%rsi
   17d8e:	3b 38 4c 
   17d91:	48 89 c7             	mov    %rax,%rdi
   17d94:	e8 0f 4b ff ff       	callq  c8a8 <safe_sub_func_int64_t_s_s>
   17d99:	98                   	cwtl   
   17d9a:	89 de                	mov    %ebx,%esi
   17d9c:	89 c7                	mov    %eax,%edi
   17d9e:	e8 b2 46 ff ff       	callq  c455 <safe_div_func_int16_t_s_s>
   17da3:	66 85 c0             	test   %ax,%ax
   17da6:	74 11                	je     17db9 <func_18+0x4a06>
   17da8:	48 83 bd 68 f1 ff ff 	cmpq   $0x0,-0xe98(%rbp)
   17daf:	00 
   17db0:	74 07                	je     17db9 <func_18+0x4a06>
   17db2:	b9 01 00 00 00       	mov    $0x1,%ecx
   17db7:	eb 05                	jmp    17dbe <func_18+0x4a0b>
   17db9:	b9 00 00 00 00       	mov    $0x0,%ecx
   17dbe:	48 8b 85 98 f0 ff ff 	mov    -0xf68(%rbp),%rax
   17dc5:	48 8b 00             	mov    (%rax),%rax
   17dc8:	48 8b 00             	mov    (%rax),%rax
   17dcb:	48 8b 00             	mov    (%rax),%rax
   17dce:	8b 10                	mov    (%rax),%edx
   17dd0:	48 8b 85 98 f0 ff ff 	mov    -0xf68(%rbp),%rax
   17dd7:	48 8b 00             	mov    (%rax),%rax
   17dda:	48 8b 00             	mov    (%rax),%rax
   17ddd:	48 8b 00             	mov    (%rax),%rax
   17de0:	31 ca                	xor    %ecx,%edx
   17de2:	89 10                	mov    %edx,(%rax)
   17de4:	c7 85 b0 ef ff ff 00 	movl   $0x0,-0x1050(%rbp)
   17deb:	00 00 00 
   17dee:	e9 3a 05 00 00       	jmpq   1832d <func_18+0x4f7a>
   17df3:	66 c7 85 80 ef ff ff 	movw   $0x9,-0x1080(%rbp)
   17dfa:	09 00 
   17dfc:	48 c7 85 80 f3 ff ff 	movq   $0x0,-0xc80(%rbp)
   17e03:	00 00 00 00 
   17e07:	48 8d 05 fa 0f 01 00 	lea    0x10ffa(%rip),%rax        # 28e08 <g_2809+0x88>
   17e0e:	48 89 85 88 f3 ff ff 	mov    %rax,-0xc78(%rbp)
   17e15:	c7 85 40 f0 ff ff 39 	movl   $0x8a8c2a39,-0xfc0(%rbp)
   17e1c:	2a 8c 8a 
   17e1f:	48 8b 85 48 ef ff ff 	mov    -0x10b8(%rbp),%rax
   17e26:	0f b6 d8             	movzbl %al,%ebx
   17e29:	48 8b 85 28 f1 ff ff 	mov    -0xed8(%rbp),%rax
   17e30:	8b 00                	mov    (%rax),%eax
   17e32:	44 0f b6 e0          	movzbl %al,%r12d
   17e36:	8b 85 2c ef ff ff    	mov    -0x10d4(%rbp),%eax
   17e3c:	f7 d0                	not    %eax
   17e3e:	0f be d0             	movsbl %al,%edx
   17e41:	48 8b 85 38 ef ff ff 	mov    -0x10c8(%rbp),%rax
   17e48:	0f be c0             	movsbl %al,%eax
   17e4b:	89 d6                	mov    %edx,%esi
   17e4d:	89 c7                	mov    %eax,%edi
   17e4f:	e8 dd 43 ff ff       	callq  c231 <safe_mod_func_int8_t_s_s>
   17e54:	84 c0                	test   %al,%al
   17e56:	0f 95 c0             	setne  %al
   17e59:	0f b6 c0             	movzbl %al,%eax
   17e5c:	48 39 85 30 ef ff ff 	cmp    %rax,-0x10d0(%rbp)
   17e63:	0f 95 c0             	setne  %al
   17e66:	0f b6 d0             	movzbl %al,%edx
   17e69:	48 8b 05 c8 ff 00 00 	mov    0xffc8(%rip),%rax        # 27e38 <g_480>
   17e70:	48 8b 00             	mov    (%rax),%rax
   17e73:	0f b7 00             	movzwl (%rax),%eax
   17e76:	98                   	cwtl   
   17e77:	39 c2                	cmp    %eax,%edx
   17e79:	0f 95 c0             	setne  %al
   17e7c:	0f b6 c0             	movzbl %al,%eax
   17e7f:	44 89 e6             	mov    %r12d,%esi
   17e82:	89 c7                	mov    %eax,%edi
   17e84:	e8 d1 4c ff ff       	callq  cb5a <safe_add_func_uint8_t_u_u>
   17e89:	0f b6 c0             	movzbl %al,%eax
   17e8c:	89 de                	mov    %ebx,%esi
   17e8e:	89 c7                	mov    %eax,%edi
   17e90:	e8 fe 4c ff ff       	callq  cb93 <safe_mul_func_uint8_t_u_u>
   17e95:	0f b6 d0             	movzbl %al,%edx
   17e98:	48 8b 85 80 f3 ff ff 	mov    -0xc80(%rbp),%rax
   17e9f:	48 89 05 d2 0e 01 00 	mov    %rax,0x10ed2(%rip)        # 28d78 <g_2787>
   17ea6:	48 8b 05 cb 0e 01 00 	mov    0x10ecb(%rip),%rax        # 28d78 <g_2787>
   17ead:	48 8d 0d 5c 0c 01 00 	lea    0x10c5c(%rip),%rcx        # 28b10 <g_1561>
   17eb4:	48 39 c8             	cmp    %rcx,%rax
   17eb7:	0f 94 c0             	sete   %al
   17eba:	0f b6 c0             	movzbl %al,%eax
   17ebd:	89 d6                	mov    %edx,%esi
   17ebf:	89 c7                	mov    %eax,%edi
   17ec1:	e8 59 4e ff ff       	callq  cd1f <safe_sub_func_uint16_t_u_u>
   17ec6:	0f b6 c0             	movzbl %al,%eax
   17ec9:	be f9 00 00 00       	mov    $0xf9,%esi
   17ece:	89 c7                	mov    %eax,%edi
   17ed0:	e8 be 4c ff ff       	callq  cb93 <safe_mul_func_uint8_t_u_u>
   17ed5:	48 8b 05 5c ff 00 00 	mov    0xff5c(%rip),%rax        # 27e38 <g_480>
   17edc:	48 8b 00             	mov    (%rax),%rax
   17edf:	0f b7 00             	movzwl (%rax),%eax
   17ee2:	48 0f bf c0          	movswq %ax,%rax
   17ee6:	48 39 85 30 ef ff ff 	cmp    %rax,-0x10d0(%rbp)
   17eed:	75 0c                	jne    17efb <func_18+0x4b48>
   17eef:	48 8b 85 48 ef ff ff 	mov    -0x10b8(%rbp),%rax
   17ef6:	e9 c2 09 00 00       	jmpq   188bd <func_18+0x550a>
   17efb:	48 b8 a8 a8 1c a8 a8 	movabs $0xa8a81ca8a81ca8a8,%rax
   17f02:	1c a8 a8 
   17f05:	48 89 45 be          	mov    %rax,-0x42(%rbp)
   17f09:	66 c7 45 c6 1c a8    	movw   $0xa81c,-0x3a(%rbp)
   17f0f:	48 8d 05 aa 0f 01 00 	lea    0x10faa(%rip),%rax        # 28ec0 <g_2808>
   17f16:	48 89 85 90 f3 ff ff 	mov    %rax,-0xc70(%rbp)
   17f1d:	48 8d 85 b0 f0 ff ff 	lea    -0xf50(%rbp),%rax
   17f24:	48 89 85 98 f3 ff ff 	mov    %rax,-0xc68(%rbp)
   17f2b:	66 c7 85 70 fb ff ff 	movw   $0x3309,-0x490(%rbp)
   17f32:	09 33 
   17f34:	66 c7 85 72 fb ff ff 	movw   $0xea22,-0x48e(%rbp)
   17f3b:	22 ea 
   17f3d:	66 c7 85 74 fb ff ff 	movw   $0xea22,-0x48c(%rbp)
   17f44:	22 ea 
   17f46:	66 c7 85 76 fb ff ff 	movw   $0x3309,-0x48a(%rbp)
   17f4d:	09 33 
   17f4f:	66 c7 85 78 fb ff ff 	movw   $0xea22,-0x488(%rbp)
   17f56:	22 ea 
   17f58:	66 c7 85 7a fb ff ff 	movw   $0xea22,-0x486(%rbp)
   17f5f:	22 ea 
   17f61:	66 c7 85 7c fb ff ff 	movw   $0x3309,-0x484(%rbp)
   17f68:	09 33 
   17f6a:	66 c7 85 7e fb ff ff 	movw   $0xea22,-0x482(%rbp)
   17f71:	22 ea 
   17f73:	66 c7 85 80 fb ff ff 	movw   $0xea22,-0x480(%rbp)
   17f7a:	22 ea 
   17f7c:	66 c7 85 82 fb ff ff 	movw   $0x3309,-0x47e(%rbp)
   17f83:	09 33 
   17f85:	66 c7 85 84 fb ff ff 	movw   $0xea22,-0x47c(%rbp)
   17f8c:	22 ea 
   17f8e:	66 c7 85 86 fb ff ff 	movw   $0xea22,-0x47a(%rbp)
   17f95:	22 ea 
   17f97:	66 c7 85 88 fb ff ff 	movw   $0x3309,-0x478(%rbp)
   17f9e:	09 33 
   17fa0:	66 c7 85 8a fb ff ff 	movw   $0xea22,-0x476(%rbp)
   17fa7:	22 ea 
   17fa9:	66 c7 85 8c fb ff ff 	movw   $0xea22,-0x474(%rbp)
   17fb0:	22 ea 
   17fb2:	66 c7 85 8e fb ff ff 	movw   $0x3309,-0x472(%rbp)
   17fb9:	09 33 
   17fbb:	66 c7 85 90 fb ff ff 	movw   $0xea22,-0x470(%rbp)
   17fc2:	22 ea 
   17fc4:	66 c7 85 92 fb ff ff 	movw   $0xcebe,-0x46e(%rbp)
   17fcb:	be ce 
   17fcd:	66 c7 85 94 fb ff ff 	movw   $0xea22,-0x46c(%rbp)
   17fd4:	22 ea 
   17fd6:	66 c7 85 96 fb ff ff 	movw   $0xcebe,-0x46a(%rbp)
   17fdd:	be ce 
   17fdf:	66 c7 85 98 fb ff ff 	movw   $0xcebe,-0x468(%rbp)
   17fe6:	be ce 
   17fe8:	66 c7 85 9a fb ff ff 	movw   $0xea22,-0x466(%rbp)
   17fef:	22 ea 
   17ff1:	66 c7 85 9c fb ff ff 	movw   $0xcebe,-0x464(%rbp)
   17ff8:	be ce 
   17ffa:	66 c7 85 9e fb ff ff 	movw   $0xcebe,-0x462(%rbp)
   18001:	be ce 
   18003:	66 c7 85 a0 fb ff ff 	movw   $0xea22,-0x460(%rbp)
   1800a:	22 ea 
   1800c:	66 c7 85 a2 fb ff ff 	movw   $0xcebe,-0x45e(%rbp)
   18013:	be ce 
   18015:	66 c7 85 a4 fb ff ff 	movw   $0xcebe,-0x45c(%rbp)
   1801c:	be ce 
   1801e:	66 c7 85 a6 fb ff ff 	movw   $0xea22,-0x45a(%rbp)
   18025:	22 ea 
   18027:	66 c7 85 a8 fb ff ff 	movw   $0xcebe,-0x458(%rbp)
   1802e:	be ce 
   18030:	66 c7 85 aa fb ff ff 	movw   $0xcebe,-0x456(%rbp)
   18037:	be ce 
   18039:	66 c7 85 ac fb ff ff 	movw   $0xea22,-0x454(%rbp)
   18040:	22 ea 
   18042:	66 c7 85 ae fb ff ff 	movw   $0xcebe,-0x452(%rbp)
   18049:	be ce 
   1804b:	66 c7 85 b0 fb ff ff 	movw   $0xcebe,-0x450(%rbp)
   18052:	be ce 
   18054:	66 c7 85 b2 fb ff ff 	movw   $0xea22,-0x44e(%rbp)
   1805b:	22 ea 
   1805d:	66 c7 85 b4 fb ff ff 	movw   $0xcebe,-0x44c(%rbp)
   18064:	be ce 
   18066:	66 c7 85 b6 fb ff ff 	movw   $0xcebe,-0x44a(%rbp)
   1806d:	be ce 
   1806f:	66 c7 85 b8 fb ff ff 	movw   $0xea22,-0x448(%rbp)
   18076:	22 ea 
   18078:	66 c7 85 ba fb ff ff 	movw   $0xcebe,-0x446(%rbp)
   1807f:	be ce 
   18081:	66 c7 85 bc fb ff ff 	movw   $0xcebe,-0x444(%rbp)
   18088:	be ce 
   1808a:	66 c7 85 be fb ff ff 	movw   $0xea22,-0x442(%rbp)
   18091:	22 ea 
   18093:	66 c7 85 c0 fb ff ff 	movw   $0xcebe,-0x440(%rbp)
   1809a:	be ce 
   1809c:	66 c7 85 c2 fb ff ff 	movw   $0xcebe,-0x43e(%rbp)
   180a3:	be ce 
   180a5:	c7 85 44 f0 ff ff 01 	movl   $0x1,-0xfbc(%rbp)
   180ac:	00 00 00 
   180af:	0f b6 45 c1          	movzbl -0x3f(%rbp),%eax
   180b3:	89 c2                	mov    %eax,%edx
   180b5:	48 8d 05 8c fd 00 00 	lea    0xfd8c(%rip),%rax        # 27e48 <g_489>
   180bc:	48 8b 00             	mov    (%rax),%rax
   180bf:	48 8b 00             	mov    (%rax),%rax
   180c2:	8b 00                	mov    (%rax),%eax
   180c4:	21 d0                	and    %edx,%eax
   180c6:	88 45 c1             	mov    %al,-0x3f(%rbp)
   180c9:	0f b6 45 c1          	movzbl -0x3f(%rbp),%eax
   180cd:	0f be d8             	movsbl %al,%ebx
   180d0:	48 8d 85 c8 f0 ff ff 	lea    -0xf38(%rbp),%rax
   180d7:	48 89 85 c8 f1 ff ff 	mov    %rax,-0xe38(%rbp)
   180de:	48 8b 05 43 0a 01 00 	mov    0x10a43(%rip),%rax        # 28b28 <g_1771>
   180e5:	48 8b 00             	mov    (%rax),%rax
   180e8:	48 8b 00             	mov    (%rax),%rax
   180eb:	48 8b 00             	mov    (%rax),%rax
   180ee:	8b 10                	mov    (%rax),%edx
   180f0:	0f b7 85 80 ef ff ff 	movzwl -0x1080(%rbp),%eax
   180f7:	83 f0 01             	xor    $0x1,%eax
   180fa:	48 0f bf c0          	movswq %ax,%rax
   180fe:	48 39 85 30 ef ff ff 	cmp    %rax,-0x10d0(%rbp)
   18105:	0f 94 c0             	sete   %al
   18108:	0f b6 c0             	movzbl %al,%eax
   1810b:	89 85 40 f0 ff ff    	mov    %eax,-0xfc0(%rbp)
   18111:	83 bd 40 f0 ff ff 00 	cmpl   $0x0,-0xfc0(%rbp)
   18118:	74 07                	je     18121 <func_18+0x4d6e>
   1811a:	b9 01 00 00 00       	mov    $0x1,%ecx
   1811f:	eb 05                	jmp    18126 <func_18+0x4d73>
   18121:	b9 00 00 00 00       	mov    $0x0,%ecx
   18126:	0f b6 45 c4          	movzbl -0x3c(%rbp),%eax
   1812a:	0f b6 c0             	movzbl %al,%eax
   1812d:	31 c1                	xor    %eax,%ecx
   1812f:	0f b7 85 9e fb ff ff 	movzwl -0x462(%rbp),%eax
   18136:	0f b7 c0             	movzwl %ax,%eax
   18139:	39 c1                	cmp    %eax,%ecx
   1813b:	0f 9c c0             	setl   %al
   1813e:	0f b6 c0             	movzbl %al,%eax
   18141:	39 c2                	cmp    %eax,%edx
   18143:	7e 07                	jle    1814c <func_18+0x4d99>
   18145:	b8 01 00 00 00       	mov    $0x1,%eax
   1814a:	eb 05                	jmp    18151 <func_18+0x4d9e>
   1814c:	b8 00 00 00 00       	mov    $0x0,%eax
   18151:	0f bf d0             	movswl %ax,%edx
   18154:	48 8b 0d 65 0d 01 00 	mov    0x10d65(%rip),%rcx        # 28ec0 <g_2808>
   1815b:	48 8b 85 90 f3 ff ff 	mov    -0xc70(%rbp),%rax
   18162:	48 89 08             	mov    %rcx,(%rax)
   18165:	48 8b 85 90 f3 ff ff 	mov    -0xc70(%rbp),%rax
   1816c:	48 8b 08             	mov    (%rax),%rcx
   1816f:	48 8b 85 98 f3 ff ff 	mov    -0xc68(%rbp),%rax
   18176:	48 89 08             	mov    %rcx,(%rax)
   18179:	48 8b 85 98 f3 ff ff 	mov    -0xc68(%rbp),%rax
   18180:	48 8b 00             	mov    (%rax),%rax
   18183:	48 8d 0d 0e 0d 01 00 	lea    0x10d0e(%rip),%rcx        # 28e98 <g_2809+0x118>
   1818a:	48 89 8d 88 f3 ff ff 	mov    %rcx,-0xc78(%rbp)
   18191:	48 39 85 88 f3 ff ff 	cmp    %rax,-0xc78(%rbp)
   18198:	0f 94 c0             	sete   %al
   1819b:	0f b6 c0             	movzbl %al,%eax
   1819e:	48 39 85 30 ef ff ff 	cmp    %rax,-0x10d0(%rbp)
   181a5:	0f 9d c0             	setge  %al
   181a8:	0f b6 c0             	movzbl %al,%eax
   181ab:	66 89 05 8e e0 00 00 	mov    %ax,0xe08e(%rip)        # 26240 <g_365>
   181b2:	0f b7 05 87 e0 00 00 	movzwl 0xe087(%rip),%eax        # 26240 <g_365>
   181b9:	98                   	cwtl   
   181ba:	89 d6                	mov    %edx,%esi
   181bc:	89 c7                	mov    %eax,%edi
   181be:	e8 53 42 ff ff       	callq  c416 <safe_mod_func_int16_t_s_s>
   181c3:	48 0f bf d0          	movswq %ax,%rdx
   181c7:	48 8b 85 48 ef ff ff 	mov    -0x10b8(%rbp),%rax
   181ce:	48 39 c2             	cmp    %rax,%rdx
   181d1:	0f 96 c0             	setbe  %al
   181d4:	0f b6 c8             	movzbl %al,%ecx
   181d7:	48 8b 05 3a fc 00 00 	mov    0xfc3a(%rip),%rax        # 27e18 <g_410>
   181de:	0f b6 10             	movzbl (%rax),%edx
   181e1:	48 8b 05 30 fc 00 00 	mov    0xfc30(%rip),%rax        # 27e18 <g_410>
   181e8:	31 ca                	xor    %ecx,%edx
   181ea:	88 10                	mov    %dl,(%rax)
   181ec:	0f b6 00             	movzbl (%rax),%eax
   181ef:	0f be c0             	movsbl %al,%eax
   181f2:	89 de                	mov    %ebx,%esi
   181f4:	89 c7                	mov    %eax,%edi
   181f6:	e8 f7 3f ff ff       	callq  c1f2 <safe_sub_func_int8_t_s_s>
   181fb:	89 c2                	mov    %eax,%edx
   181fd:	48 8b 85 98 f0 ff ff 	mov    -0xf68(%rbp),%rax
   18204:	48 8b 00             	mov    (%rax),%rax
   18207:	48 8b 00             	mov    (%rax),%rax
   1820a:	48 8b 00             	mov    (%rax),%rax
   1820d:	0f be d2             	movsbl %dl,%edx
   18210:	89 10                	mov    %edx,(%rax)
   18212:	8b 00                	mov    (%rax),%eax
   18214:	f7 d0                	not    %eax
   18216:	c1 e8 1f             	shr    $0x1f,%eax
   18219:	0f b6 c0             	movzbl %al,%eax
   1821c:	89 85 44 f0 ff ff    	mov    %eax,-0xfbc(%rbp)
   18222:	48 8b 05 f7 08 01 00 	mov    0x108f7(%rip),%rax        # 28b20 <g_1772>
   18229:	48 8b 00             	mov    (%rax),%rax
   1822c:	48 8b 00             	mov    (%rax),%rax
   1822f:	8b 00                	mov    (%rax),%eax
   18231:	85 c0                	test   %eax,%eax
   18233:	0f 85 03 01 00 00    	jne    1833c <func_18+0x4f89>
   18239:	48 8b 05 e0 08 01 00 	mov    0x108e0(%rip),%rax        # 28b20 <g_1772>
   18240:	48 8b 00             	mov    (%rax),%rax
   18243:	48 8b 00             	mov    (%rax),%rax
   18246:	c7 00 f6 ff ff ff    	movl   $0xfffffff6,(%rax)
   1824c:	8b 10                	mov    (%rax),%edx
   1824e:	48 8b 85 28 f1 ff ff 	mov    -0xed8(%rbp),%rax
   18255:	89 10                	mov    %edx,(%rax)
   18257:	48 8b 85 90 f0 ff ff 	mov    -0xf70(%rbp),%rax
   1825e:	48 8b 00             	mov    (%rax),%rax
   18261:	48 8b 00             	mov    (%rax),%rax
   18264:	c7 00 3e 4c d8 c4    	movl   $0xc4d84c3e,(%rax)
   1826a:	8b 85 2c ef ff ff    	mov    -0x10d4(%rbp),%eax
   18270:	0f bf d8             	movswl %ax,%ebx
   18273:	48 8b 85 f8 f6 ff ff 	mov    -0x908(%rbp),%rax
   1827a:	0f b6 d0             	movzbl %al,%edx
   1827d:	48 8b 85 28 f1 ff ff 	mov    -0xed8(%rbp),%rax
   18284:	c7 00 36 fa f2 8e    	movl   $0x8ef2fa36,(%rax)
   1828a:	48 8b 85 48 ef ff ff 	mov    -0x10b8(%rbp),%rax
   18291:	0f b6 c0             	movzbl %al,%eax
   18294:	89 d6                	mov    %edx,%esi
   18296:	89 c7                	mov    %eax,%edi
   18298:	e8 f6 48 ff ff       	callq  cb93 <safe_mul_func_uint8_t_u_u>
   1829d:	0f be c0             	movsbl %al,%eax
   182a0:	be 03 00 00 00       	mov    $0x3,%esi
   182a5:	89 c7                	mov    %eax,%edi
   182a7:	e8 c0 40 ff ff       	callq  c36c <safe_rshift_func_int8_t_s_u>
   182ac:	89 de                	mov    %ebx,%esi
   182ae:	bf 05 00 00 00       	mov    $0x5,%edi
   182b3:	e8 fb 40 ff ff       	callq  c3b3 <safe_add_func_int16_t_s_s>
   182b8:	0f b7 c0             	movzwl %ax,%eax
   182bb:	be 04 00 00 00       	mov    $0x4,%esi
   182c0:	89 c7                	mov    %eax,%edi
   182c2:	e8 3f 4b ff ff       	callq  ce06 <safe_lshift_func_uint16_t_u_u>
   182c7:	0f b7 d0             	movzwl %ax,%edx
   182ca:	48 8b 85 f8 f6 ff ff 	mov    -0x908(%rbp),%rax
   182d1:	48 39 c2             	cmp    %rax,%rdx
   182d4:	0f 9c c2             	setl   %dl
   182d7:	48 8b 05 4a 08 01 00 	mov    0x1084a(%rip),%rax        # 28b28 <g_1771>
   182de:	48 8b 00             	mov    (%rax),%rax
   182e1:	48 8b 00             	mov    (%rax),%rax
   182e4:	48 8b 00             	mov    (%rax),%rax
   182e7:	0f b6 d2             	movzbl %dl,%edx
   182ea:	89 10                	mov    %edx,(%rax)
   182ec:	c7 05 3a e0 00 00 00 	movl   $0x0,0xe03a(%rip)        # 26330 <g_2156>
   182f3:	00 00 00 
   182f6:	eb 23                	jmp    1831b <func_18+0x4f68>
   182f8:	48 8d 05 49 fb 00 00 	lea    0xfb49(%rip),%rax        # 27e48 <g_489>
   182ff:	48 8b 00             	mov    (%rax),%rax
   18302:	48 8d 95 18 f1 ff ff 	lea    -0xee8(%rbp),%rdx
   18309:	48 89 10             	mov    %rdx,(%rax)
   1830c:	8b 05 1e e0 00 00    	mov    0xe01e(%rip),%eax        # 26330 <g_2156>
   18312:	83 c0 01             	add    $0x1,%eax
   18315:	89 05 15 e0 00 00    	mov    %eax,0xe015(%rip)        # 26330 <g_2156>
   1831b:	8b 05 0f e0 00 00    	mov    0xe00f(%rip),%eax        # 26330 <g_2156>
   18321:	83 f8 07             	cmp    $0x7,%eax
   18324:	76 d2                	jbe    182f8 <func_18+0x4f45>
   18326:	83 85 b0 ef ff ff 01 	addl   $0x1,-0x1050(%rbp)
   1832d:	83 bd b0 ef ff ff 04 	cmpl   $0x4,-0x1050(%rbp)
   18334:	0f 86 b9 fa ff ff    	jbe    17df3 <func_18+0x4a40>
   1833a:	eb 01                	jmp    1833d <func_18+0x4f8a>
   1833c:	90                   	nop
   1833d:	48 8b 85 38 ef ff ff 	mov    -0x10c8(%rbp),%rax
   18344:	0f b6 d0             	movzbl %al,%edx
   18347:	48 8b 05 b2 fa 00 00 	mov    0xfab2(%rip),%rax        # 27e00 <g_87>
   1834e:	0f b6 00             	movzbl (%rax),%eax
   18351:	0f b6 c0             	movzbl %al,%eax
   18354:	89 d6                	mov    %edx,%esi
   18356:	89 c7                	mov    %eax,%edi
   18358:	e8 fd 47 ff ff       	callq  cb5a <safe_add_func_uint8_t_u_u>
   1835d:	89 c2                	mov    %eax,%edx
   1835f:	48 8b 05 c2 07 01 00 	mov    0x107c2(%rip),%rax        # 28b28 <g_1771>
   18366:	48 8b 00             	mov    (%rax),%rax
   18369:	48 8b 00             	mov    (%rax),%rax
   1836c:	48 8b 00             	mov    (%rax),%rax
   1836f:	0f b6 d2             	movzbl %dl,%edx
   18372:	89 10                	mov    %edx,(%rax)
   18374:	48 8b 85 38 ef ff ff 	mov    -0x10c8(%rbp),%rax
   1837b:	0f be d8             	movsbl %al,%ebx
   1837e:	48 8b 85 78 f0 ff ff 	mov    -0xf88(%rbp),%rax
   18385:	8b 00                	mov    (%rax),%eax
   18387:	41 89 c5             	mov    %eax,%r13d
   1838a:	48 8b 85 a8 f0 ff ff 	mov    -0xf58(%rbp),%rax
   18391:	48 89 05 30 0b 01 00 	mov    %rax,0x10b30(%rip)        # 28ec8 <g_2845>
   18398:	48 8b 05 29 0b 01 00 	mov    0x10b29(%rip),%rax        # 28ec8 <g_2845>
   1839f:	48 85 c0             	test   %rax,%rax
   183a2:	0f 94 c0             	sete   %al
   183a5:	44 0f b6 e0          	movzbl %al,%r12d
   183a9:	0f b7 05 60 2b 01 00 	movzwl 0x12b60(%rip),%eax        # 2af10 <g_2283>
   183b0:	0f b7 d0             	movzwl %ax,%edx
   183b3:	48 8b 85 48 ef ff ff 	mov    -0x10b8(%rbp),%rax
   183ba:	48 83 f8 01          	cmp    $0x1,%rax
   183be:	74 07                	je     183c7 <func_18+0x5014>
   183c0:	b9 fe 00 00 00       	mov    $0xfe,%ecx
   183c5:	eb 05                	jmp    183cc <func_18+0x5019>
   183c7:	b9 ff 00 00 00       	mov    $0xff,%ecx
   183cc:	48 8b 85 30 ef ff ff 	mov    -0x10d0(%rbp),%rax
   183d3:	48 39 c1             	cmp    %rax,%rcx
   183d6:	0f 93 c1             	setae  %cl
   183d9:	48 8b 05 48 fa 00 00 	mov    0xfa48(%rip),%rax        # 27e28 <g_433>
   183e0:	0f b6 c9             	movzbl %cl,%ecx
   183e3:	89 08                	mov    %ecx,(%rax)
   183e5:	8b 08                	mov    (%rax),%ecx
   183e7:	8b 85 2c ef ff ff    	mov    -0x10d4(%rbp),%eax
   183ed:	39 c1                	cmp    %eax,%ecx
   183ef:	0f 96 c0             	setbe  %al
   183f2:	0f b6 c0             	movzbl %al,%eax
   183f5:	89 d6                	mov    %edx,%esi
   183f7:	89 c7                	mov    %eax,%edi
   183f9:	e8 e3 40 ff ff       	callq  c4e1 <safe_lshift_func_int16_t_s_u>
   183fe:	98                   	cwtl   
   183ff:	39 85 2c ef ff ff    	cmp    %eax,-0x10d4(%rbp)
   18405:	0f 9c c0             	setl   %al
   18408:	0f b6 c0             	movzbl %al,%eax
   1840b:	41 39 c4             	cmp    %eax,%r12d
   1840e:	7c 0c                	jl     1841c <func_18+0x5069>
   18410:	48 8b 85 48 ef ff ff 	mov    -0x10b8(%rbp),%rax
   18417:	48 85 c0             	test   %rax,%rax
   1841a:	74 07                	je     18423 <func_18+0x5070>
   1841c:	b8 01 00 00 00       	mov    $0x1,%eax
   18421:	eb 05                	jmp    18428 <func_18+0x5075>
   18423:	b8 00 00 00 00       	mov    $0x0,%eax
   18428:	98                   	cwtl   
   18429:	be 9a bc ff ff       	mov    $0xffffbc9a,%esi
   1842e:	89 c7                	mov    %eax,%edi
   18430:	e8 c0 3f ff ff       	callq  c3f5 <safe_mul_func_int16_t_s_s>
   18435:	66 89 05 04 de 00 00 	mov    %ax,0xde04(%rip)        # 26240 <g_365>
   1843c:	0f b7 05 fd dd 00 00 	movzwl 0xddfd(%rip),%eax        # 26240 <g_365>
   18443:	48 0f bf c0          	movswq %ax,%rax
   18447:	48 89 85 68 f4 ff ff 	mov    %rax,-0xb98(%rbp)
   1844e:	48 8b 85 68 f4 ff ff 	mov    -0xb98(%rbp),%rax
   18455:	98                   	cwtl   
   18456:	be 05 00 00 00       	mov    $0x5,%esi
   1845b:	89 c7                	mov    %eax,%edi
   1845d:	e8 c8 40 ff ff       	callq  c52a <safe_rshift_func_int16_t_s_s>
   18462:	0f b7 c0             	movzwl %ax,%eax
   18465:	44 89 ee             	mov    %r13d,%esi
   18468:	89 c7                	mov    %eax,%edi
   1846a:	e8 0b 4a ff ff       	callq  ce7a <safe_rshift_func_uint16_t_u_u>
   1846f:	0f b7 c0             	movzwl %ax,%eax
   18472:	48 8b 95 40 ef ff ff 	mov    -0x10c0(%rbp),%rdx
   18479:	89 c6                	mov    %eax,%esi
   1847b:	89 d7                	mov    %edx,%edi
   1847d:	e8 4e 4a ff ff       	callq  ced0 <safe_sub_func_uint32_t_u_u>
   18482:	48 8b 05 9f f9 00 00 	mov    0xf99f(%rip),%rax        # 27e28 <g_433>
   18489:	8b 00                	mov    (%rax),%eax
   1848b:	85 c0                	test   %eax,%eax
   1848d:	75 0a                	jne    18499 <func_18+0x50e6>
   1848f:	48 83 bd 38 ef ff ff 	cmpq   $0x0,-0x10c8(%rbp)
   18496:	00 
   18497:	74 07                	je     184a0 <func_18+0x50ed>
   18499:	b8 01 00 00 00       	mov    $0x1,%eax
   1849e:	eb 05                	jmp    184a5 <func_18+0x50f2>
   184a0:	b8 00 00 00 00       	mov    $0x0,%eax
   184a5:	0f be c0             	movsbl %al,%eax
   184a8:	be 1c 00 00 00       	mov    $0x1c,%esi
   184ad:	89 c7                	mov    %eax,%edi
   184af:	e8 5e 3d ff ff       	callq  c212 <safe_mul_func_int8_t_s_s>
   184b4:	0f be c0             	movsbl %al,%eax
   184b7:	89 de                	mov    %ebx,%esi
   184b9:	89 c7                	mov    %eax,%edi
   184bb:	e8 32 3d ff ff       	callq  c1f2 <safe_sub_func_int8_t_s_s>
   184c0:	89 c2                	mov    %eax,%edx
   184c2:	48 8b 85 c8 f0 ff ff 	mov    -0xf38(%rbp),%rax
   184c9:	48 8b 00             	mov    (%rax),%rax
   184cc:	88 10                	mov    %dl,(%rax)
   184ce:	0f b6 00             	movzbl (%rax),%eax
   184d1:	0f b6 c0             	movzbl %al,%eax
   184d4:	39 85 04 f0 ff ff    	cmp    %eax,-0xffc(%rbp)
   184da:	0f 92 c0             	setb   %al
   184dd:	0f b6 c0             	movzbl %al,%eax
   184e0:	89 c6                	mov    %eax,%esi
   184e2:	bf 27 4b 00 00       	mov    $0x4b27,%edi
   184e7:	e8 09 3f ff ff       	callq  c3f5 <safe_mul_func_int16_t_s_s>
   184ec:	66 0f be 95 60 ef ff 	movsbw -0x10a0(%rbp),%dx
   184f3:	ff 
   184f4:	66 39 d0             	cmp    %dx,%ax
   184f7:	0f 95 c0             	setne  %al
   184fa:	0f b6 d0             	movzbl %al,%edx
   184fd:	48 8b 85 78 f0 ff ff 	mov    -0xf88(%rbp),%rax
   18504:	8b 00                	mov    (%rax),%eax
   18506:	39 c2                	cmp    %eax,%edx
   18508:	0f 94 c0             	sete   %al
   1850b:	0f b6 d0             	movzbl %al,%edx
   1850e:	8b 05 90 db 00 00    	mov    0xdb90(%rip),%eax        # 260a4 <g_24+0x4>
   18514:	39 c2                	cmp    %eax,%edx
   18516:	0f 96 c0             	setbe  %al
   18519:	0f b6 d0             	movzbl %al,%edx
   1851c:	48 8b 85 48 ef ff ff 	mov    -0x10b8(%rbp),%rax
   18523:	48 39 c2             	cmp    %rax,%rdx
   18526:	0f 94 c2             	sete   %dl
   18529:	48 8b 05 f0 05 01 00 	mov    0x105f0(%rip),%rax        # 28b20 <g_1772>
   18530:	48 8b 00             	mov    (%rax),%rax
   18533:	48 8b 00             	mov    (%rax),%rax
   18536:	0f b6 d2             	movzbl %dl,%edx
   18539:	89 10                	mov    %edx,(%rax)
   1853b:	eb 01                	jmp    1853e <func_18+0x518b>
   1853d:	90                   	nop
   1853e:	48 8b 85 c8 f0 ff ff 	mov    -0xf38(%rbp),%rax
   18545:	48 8d 15 7d db 00 00 	lea    0xdb7d(%rip),%rdx        # 260c9 <g_88>
   1854c:	48 89 10             	mov    %rdx,(%rax)
   1854f:	48 8d 05 73 db 00 00 	lea    0xdb73(%rip),%rax        # 260c9 <g_88>
   18556:	48 39 85 70 f1 ff ff 	cmp    %rax,-0xe90(%rbp)
   1855d:	0f 95 c0             	setne  %al
   18560:	0f b6 d0             	movzbl %al,%edx
   18563:	48 8b 85 28 f1 ff ff 	mov    -0xed8(%rbp),%rax
   1856a:	8b 00                	mov    (%rax),%eax
   1856c:	31 c2                	xor    %eax,%edx
   1856e:	48 8b 85 28 f1 ff ff 	mov    -0xed8(%rbp),%rax
   18575:	89 10                	mov    %edx,(%rax)
   18577:	e9 16 01 00 00       	jmpq   18692 <func_18+0x52df>
   1857c:	c6 85 62 ef ff ff 8a 	movb   $0x8a,-0x109e(%rbp)
   18583:	c7 85 fc ef ff ff 01 	movl   $0x1,-0x1004(%rbp)
   1858a:	00 00 00 
   1858d:	8b 85 2c ef ff ff    	mov    -0x10d4(%rbp),%eax
   18593:	0f b7 d0             	movzwl %ax,%edx
   18596:	0f b6 05 c8 db 00 00 	movzbl 0xdbc8(%rip),%eax        # 26165 <g_164+0x1>
   1859d:	66 98                	cbtw   
   1859f:	0f b7 c0             	movzwl %ax,%eax
   185a2:	89 d6                	mov    %edx,%esi
   185a4:	89 c7                	mov    %eax,%edi
   185a6:	e8 54 47 ff ff       	callq  ccff <safe_add_func_uint16_t_u_u>
   185ab:	89 c2                	mov    %eax,%edx
   185ad:	48 8b 05 64 f8 00 00 	mov    0xf864(%rip),%rax        # 27e18 <g_410>
   185b4:	88 10                	mov    %dl,(%rax)
   185b6:	0f b6 00             	movzbl (%rax),%eax
   185b9:	0f be d0             	movsbl %al,%edx
   185bc:	48 8b 0d 65 f8 00 00 	mov    0xf865(%rip),%rcx        # 27e28 <g_433>
   185c3:	48 8b 05 5e f8 00 00 	mov    0xf85e(%rip),%rax        # 27e28 <g_433>
   185ca:	8b 09                	mov    (%rcx),%ecx
   185cc:	89 08                	mov    %ecx,(%rax)
   185ce:	8b 00                	mov    (%rax),%eax
   185d0:	88 85 62 ef ff ff    	mov    %al,-0x109e(%rbp)
   185d6:	0f b6 8d 62 ef ff ff 	movzbl -0x109e(%rbp),%ecx
   185dd:	48 8b 85 78 f0 ff ff 	mov    -0xf88(%rbp),%rax
   185e4:	8b 30                	mov    (%rax),%esi
   185e6:	0f be c9             	movsbl %cl,%ecx
   185e9:	48 8b 85 78 f0 ff ff 	mov    -0xf88(%rbp),%rax
   185f0:	31 f1                	xor    %esi,%ecx
   185f2:	89 08                	mov    %ecx,(%rax)
   185f4:	0f b7 05 61 dd 00 00 	movzwl 0xdd61(%rip),%eax        # 2635c <g_2856>
   185fb:	32 85 62 ef ff ff    	xor    -0x109e(%rbp),%al
   18601:	0f be c0             	movsbl %al,%eax
   18604:	89 d6                	mov    %edx,%esi
   18606:	89 c7                	mov    %eax,%edi
   18608:	e8 c7 3b ff ff       	callq  c1d4 <safe_add_func_int8_t_s_s>
   1860d:	84 c0                	test   %al,%al
   1860f:	75 44                	jne    18655 <func_18+0x52a2>
   18611:	48 8b 85 30 ef ff ff 	mov    -0x10d0(%rbp),%rax
   18618:	0f be d8             	movsbl %al,%ebx
   1861b:	48 81 bd 30 ef ff ff 	cmpq   $0x327a,-0x10d0(%rbp)
   18622:	7a 32 00 00 
   18626:	0f 9f c0             	setg   %al
   18629:	0f b6 c0             	movzbl %al,%eax
   1862c:	be 00 00 00 00       	mov    $0x0,%esi
   18631:	89 c7                	mov    %eax,%edi
   18633:	e8 40 45 ff ff       	callq  cb78 <safe_sub_func_uint8_t_u_u>
   18638:	89 de                	mov    %ebx,%esi
   1863a:	bf 01 00 00 00       	mov    $0x1,%edi
   1863f:	e8 90 3b ff ff       	callq  c1d4 <safe_add_func_int8_t_s_s>
   18644:	0f b6 c0             	movzbl %al,%eax
   18647:	be 02 00 00 00       	mov    $0x2,%esi
   1864c:	89 c7                	mov    %eax,%edi
   1864e:	e8 f9 45 ff ff       	callq  cc4c <safe_lshift_func_uint8_t_u_u>
   18653:	84 c0                	test   %al,%al
   18655:	b8 00 00 00 00       	mov    $0x0,%eax
   1865a:	21 85 fc ef ff ff    	and    %eax,-0x1004(%rbp)
   18660:	48 8d 05 e1 f7 00 00 	lea    0xf7e1(%rip),%rax        # 27e48 <g_489>
   18667:	48 8b 00             	mov    (%rax),%rax
   1866a:	48 8b 00             	mov    (%rax),%rax
   1866d:	8b 10                	mov    (%rax),%edx
   1866f:	48 8d 05 d2 f7 00 00 	lea    0xf7d2(%rip),%rax        # 27e48 <g_489>
   18676:	48 8b 00             	mov    (%rax),%rax
   18679:	48 8b 00             	mov    (%rax),%rax
   1867c:	83 f2 09             	xor    $0x9,%edx
   1867f:	89 10                	mov    %edx,(%rax)
   18681:	48 8b 05 28 05 01 00 	mov    0x10528(%rip),%rax        # 28bb0 <g_1937>
   18688:	48 8d 95 90 ef ff ff 	lea    -0x1070(%rbp),%rdx
   1868f:	48 89 10             	mov    %rdx,(%rax)
   18692:	48 83 bd 38 ef ff ff 	cmpq   $0x0,-0x10c8(%rbp)
   18699:	00 
   1869a:	74 19                	je     186b5 <func_18+0x5302>
   1869c:	c7 85 6c f0 ff ff 7a 	movl   $0xdde08e7a,-0xf94(%rbp)
   186a3:	8e e0 dd 
   186a6:	c7 85 6c f0 ff ff 20 	movl   $0xbf6bab20,-0xf94(%rbp)
   186ad:	ab 6b bf 
   186b0:	e9 01 02 00 00       	jmpq   188b6 <func_18+0x5503>
   186b5:	c6 85 10 f1 ff ff 4d 	movb   $0x4d,-0xef0(%rbp)
   186bc:	c7 85 68 f0 ff ff f9 	movl   $0xfffffff9,-0xf98(%rbp)
   186c3:	ff ff ff 
   186c6:	48 c7 85 08 f4 ff ff 	movq   $0x0,-0xbf8(%rbp)
   186cd:	00 00 00 00 
   186d1:	48 8d 85 5c ef ff ff 	lea    -0x10a4(%rbp),%rax
   186d8:	48 89 85 10 f4 ff ff 	mov    %rax,-0xbf0(%rbp)
   186df:	48 8d 05 da fb 00 00 	lea    0xfbda(%rip),%rax        # 282c0 <g_543>
   186e6:	48 89 85 18 f4 ff ff 	mov    %rax,-0xbe8(%rbp)
   186ed:	48 8d 05 0c 06 01 00 	lea    0x1060c(%rip),%rax        # 28d00 <g_2593+0x20>
   186f4:	48 89 85 18 f1 ff ff 	mov    %rax,-0xee8(%rbp)
   186fb:	48 8d 85 18 f1 ff ff 	lea    -0xee8(%rbp),%rax
   18702:	48 89 85 20 f4 ff ff 	mov    %rax,-0xbe0(%rbp)
   18709:	c7 85 9c ef ff ff 00 	movl   $0x0,-0x1064(%rbp)
   18710:	00 00 00 
   18713:	eb 1a                	jmp    1872f <func_18+0x537c>
   18715:	8b 85 9c ef ff ff    	mov    -0x1064(%rbp),%eax
   1871b:	48 98                	cltq   
   1871d:	c7 84 85 70 fb ff ff 	movl   $0xc694b760,-0x490(%rbp,%rax,4)
   18724:	60 b7 94 c6 
   18728:	83 85 9c ef ff ff 01 	addl   $0x1,-0x1064(%rbp)
   1872f:	83 bd 9c ef ff ff 01 	cmpl   $0x1,-0x1064(%rbp)
   18736:	7e dd                	jle    18715 <func_18+0x5362>
   18738:	c7 85 9c ef ff ff 00 	movl   $0x0,-0x1064(%rbp)
   1873f:	00 00 00 
   18742:	eb 1a                	jmp    1875e <func_18+0x53ab>
   18744:	8b 85 9c ef ff ff    	mov    -0x1064(%rbp),%eax
   1874a:	48 98                	cltq   
   1874c:	c7 84 85 70 fd ff ff 	movl   $0xc583fd01,-0x290(%rbp,%rax,4)
   18753:	01 fd 83 c5 
   18757:	83 85 9c ef ff ff 01 	addl   $0x1,-0x1064(%rbp)
   1875e:	83 bd 9c ef ff ff 08 	cmpl   $0x8,-0x1064(%rbp)
   18765:	7e dd                	jle    18744 <func_18+0x5391>
   18767:	0f b6 85 61 ef ff ff 	movzbl -0x109f(%rbp),%eax
   1876e:	83 e8 01             	sub    $0x1,%eax
   18771:	88 85 61 ef ff ff    	mov    %al,-0x109f(%rbp)
   18777:	48 8b 05 92 05 01 00 	mov    0x10592(%rip),%rax        # 28d10 <g_2687>
   1877e:	0f b6 00             	movzbl (%rax),%eax
   18781:	0f b6 d8             	movzbl %al,%ebx
   18784:	48 8b 85 58 f1 ff ff 	mov    -0xea8(%rbp),%rax
   1878b:	48 8b 10             	mov    (%rax),%rdx
   1878e:	48 8b 85 58 f1 ff ff 	mov    -0xea8(%rbp),%rax
   18795:	48 89 10             	mov    %rdx,(%rax)
   18798:	8b 95 74 fd ff ff    	mov    -0x28c(%rbp),%edx
   1879e:	48 8b 05 73 f6 00 00 	mov    0xf673(%rip),%rax        # 27e18 <g_410>
   187a5:	88 10                	mov    %dl,(%rax)
   187a7:	0f b6 10             	movzbl (%rax),%edx
   187aa:	48 8b 85 10 f4 ff ff 	mov    -0xbf0(%rbp),%rax
   187b1:	88 10                	mov    %dl,(%rax)
   187b3:	48 8b 85 10 f4 ff ff 	mov    -0xbf0(%rbp),%rax
   187ba:	0f b6 00             	movzbl (%rax),%eax
   187bd:	0f b6 c0             	movzbl %al,%eax
   187c0:	89 c6                	mov    %eax,%esi
   187c2:	bf ff 00 00 00       	mov    $0xff,%edi
   187c7:	e8 0f 44 ff ff       	callq  cbdb <safe_div_func_uint8_t_u_u>
   187cc:	48 8b 85 18 f4 ff ff 	mov    -0xbe8(%rbp),%rax
   187d3:	48 c7 00 00 00 00 00 	movq   $0x0,(%rax)
   187da:	48 8b 85 18 f4 ff ff 	mov    -0xbe8(%rbp),%rax
   187e1:	48 8b 10             	mov    (%rax),%rdx
   187e4:	48 8b 85 48 f5 ff ff 	mov    -0xab8(%rbp),%rax
   187eb:	48 39 c2             	cmp    %rax,%rdx
   187ee:	0f 95 c0             	setne  %al
   187f1:	0f b6 c0             	movzbl %al,%eax
   187f4:	48 39 85 40 ef ff ff 	cmp    %rax,-0x10c0(%rbp)
   187fb:	0f 9d c0             	setge  %al
   187fe:	0f b6 d0             	movzbl %al,%edx
   18801:	8b 85 90 f4 ff ff    	mov    -0xb70(%rbp),%eax
   18807:	39 c2                	cmp    %eax,%edx
   18809:	0f 92 c0             	setb   %al
   1880c:	44 0f b6 e0          	movzbl %al,%r12d
   18810:	48 8b 85 90 f0 ff ff 	mov    -0xf70(%rbp),%rax
   18817:	48 8b 00             	mov    (%rax),%rax
   1881a:	48 85 c0             	test   %rax,%rax
   1881d:	0f 95 c0             	setne  %al
   18820:	0f b6 c0             	movzbl %al,%eax
   18823:	be 0f 00 00 00       	mov    $0xf,%esi
   18828:	89 c7                	mov    %eax,%edi
   1882a:	e8 63 3c ff ff       	callq  c492 <safe_lshift_func_int16_t_s_s>
   1882f:	0f b7 d0             	movzwl %ax,%edx
   18832:	48 8b 85 48 f1 ff ff 	mov    -0xeb8(%rbp),%rax
   18839:	0f b7 00             	movzwl (%rax),%eax
   1883c:	8d 48 ff             	lea    -0x1(%rax),%ecx
   1883f:	48 8b 85 48 f1 ff ff 	mov    -0xeb8(%rbp),%rax
   18846:	66 89 08             	mov    %cx,(%rax)
   18849:	48 8b 85 48 f1 ff ff 	mov    -0xeb8(%rbp),%rax
   18850:	0f b7 00             	movzwl (%rax),%eax
   18853:	0f b7 c0             	movzwl %ax,%eax
   18856:	89 d6                	mov    %edx,%esi
   18858:	89 c7                	mov    %eax,%edi
   1885a:	e8 de 44 ff ff       	callq  cd3d <safe_mul_func_uint16_t_u_u>
   1885f:	0f b6 c0             	movzbl %al,%eax
   18862:	44 89 e6             	mov    %r12d,%esi
   18865:	89 c7                	mov    %eax,%edi
   18867:	e8 ee 42 ff ff       	callq  cb5a <safe_add_func_uint8_t_u_u>
   1886c:	48 8b 15 8d f5 00 00 	mov    0xf58d(%rip),%rdx        # 27e00 <g_87>
   18873:	0f b6 12             	movzbl (%rdx),%edx
   18876:	38 d0                	cmp    %dl,%al
   18878:	0f 92 c0             	setb   %al
   1887b:	0f b6 d0             	movzbl %al,%edx
   1887e:	48 8b 85 48 ef ff ff 	mov    -0x10b8(%rbp),%rax
   18885:	48 39 c2             	cmp    %rax,%rdx
   18888:	0f 95 c0             	setne  %al
   1888b:	0f b6 c0             	movzbl %al,%eax
   1888e:	89 de                	mov    %ebx,%esi
   18890:	89 c7                	mov    %eax,%edi
   18892:	e8 44 43 ff ff       	callq  cbdb <safe_div_func_uint8_t_u_u>
   18897:	8b 95 74 fb ff ff    	mov    -0x48c(%rbp),%edx
   1889d:	0f b6 c0             	movzbl %al,%eax
   188a0:	09 d0                	or     %edx,%eax
   188a2:	89 85 74 fb ff ff    	mov    %eax,-0x48c(%rbp)
   188a8:	48 8b 85 20 f4 ff ff 	mov    -0xbe0(%rbp),%rax
   188af:	48 89 05 6a 26 01 00 	mov    %rax,0x1266a(%rip)        # 2af20 <g_2893>
   188b6:	48 8b 85 40 ef ff ff 	mov    -0x10c0(%rbp),%rax
   188bd:	48 8b 5d c8          	mov    -0x38(%rbp),%rbx
   188c1:	64 48 33 1c 25 28 00 	xor    %fs:0x28,%rbx
   188c8:	00 00 
   188ca:	74 05                	je     188d1 <func_18+0x551e>
   188cc:	e8 9f 37 ff ff       	callq  c070 <__stack_chk_fail@plt>
   188d1:	48 81 c4 c8 10 00 00 	add    $0x10c8,%rsp
   188d8:	5b                   	pop    %rbx
   188d9:	41 5c                	pop    %r12
   188db:	41 5d                	pop    %r13
   188dd:	41 5e                	pop    %r14
   188df:	41 5f                	pop    %r15
   188e1:	5d                   	pop    %rbp
   188e2:	c3                   	retq   

00000000000188e3 <func_26>:
   188e3:	f3 0f 1e fa          	endbr64 
   188e7:	55                   	push   %rbp
   188e8:	48 89 e5             	mov    %rsp,%rbp
   188eb:	41 57                	push   %r15
   188ed:	41 56                	push   %r14
   188ef:	41 55                	push   %r13
   188f1:	41 54                	push   %r12
   188f3:	53                   	push   %rbx
   188f4:	48 81 ec 00 10 00 00 	sub    $0x1000,%rsp
   188fb:	48 83 0c 24 00       	orq    $0x0,(%rsp)
   18900:	48 81 ec b8 06 00 00 	sub    $0x6b8,%rsp
   18907:	89 bd 2c e9 ff ff    	mov    %edi,-0x16d4(%rbp)
   1890d:	89 b5 28 e9 ff ff    	mov    %esi,-0x16d8(%rbp)
   18913:	64 48 8b 04 25 28 00 	mov    %fs:0x28,%rax
   1891a:	00 00 
   1891c:	48 89 45 c8          	mov    %rax,-0x38(%rbp)
   18920:	31 c0                	xor    %eax,%eax
   18922:	c7 85 54 e9 ff ff fe 	movl   $0xfffffffe,-0x16ac(%rbp)
   18929:	ff ff ff 
   1892c:	48 8d 05 96 d9 00 00 	lea    0xd996(%rip),%rax        # 262c9 <g_1299>
   18933:	48 89 85 e0 e9 ff ff 	mov    %rax,-0x1620(%rbp)
   1893a:	48 8d 05 07 d9 00 00 	lea    0xd907(%rip),%rax        # 26248 <g_397>
   18941:	48 89 85 a8 e9 ff ff 	mov    %rax,-0x1658(%rbp)
   18948:	48 8d 85 90 ea ff ff 	lea    -0x1570(%rbp),%rax
   1894f:	48 83 c0 10          	add    $0x10,%rax
   18953:	48 89 85 00 eb ff ff 	mov    %rax,-0x1500(%rbp)
   1895a:	48 8d 85 90 ea ff ff 	lea    -0x1570(%rbp),%rax
   18961:	48 83 c0 10          	add    $0x10,%rax
   18965:	48 89 85 08 eb ff ff 	mov    %rax,-0x14f8(%rbp)
   1896c:	48 8d 85 90 ea ff ff 	lea    -0x1570(%rbp),%rax
   18973:	48 83 c0 10          	add    $0x10,%rax
   18977:	48 89 85 10 eb ff ff 	mov    %rax,-0x14f0(%rbp)
   1897e:	48 8d 85 90 ea ff ff 	lea    -0x1570(%rbp),%rax
   18985:	48 83 c0 10          	add    $0x10,%rax
   18989:	48 89 85 18 eb ff ff 	mov    %rax,-0x14e8(%rbp)
   18990:	48 8d 85 90 ea ff ff 	lea    -0x1570(%rbp),%rax
   18997:	48 83 c0 10          	add    $0x10,%rax
   1899b:	48 89 85 20 eb ff ff 	mov    %rax,-0x14e0(%rbp)
   189a2:	48 c7 85 30 eb ff ff 	movq   $0x0,-0x14d0(%rbp)
   189a9:	00 00 00 00 
   189ad:	48 c7 85 38 eb ff ff 	movq   $0x0,-0x14c8(%rbp)
   189b4:	00 00 00 00 
   189b8:	48 c7 85 40 eb ff ff 	movq   $0x0,-0x14c0(%rbp)
   189bf:	00 00 00 00 
   189c3:	48 c7 85 48 eb ff ff 	movq   $0x0,-0x14b8(%rbp)
   189ca:	00 00 00 00 
   189ce:	48 c7 85 50 eb ff ff 	movq   $0x0,-0x14b0(%rbp)
   189d5:	00 00 00 00 
   189d9:	48 8d 05 d0 d8 00 00 	lea    0xd8d0(%rip),%rax        # 262b0 <g_766>
   189e0:	48 89 85 e0 eb ff ff 	mov    %rax,-0x1420(%rbp)
   189e7:	48 8d 05 c2 d8 00 00 	lea    0xd8c2(%rip),%rax        # 262b0 <g_766>
   189ee:	48 89 85 e8 eb ff ff 	mov    %rax,-0x1418(%rbp)
   189f5:	48 8d 05 b4 d8 00 00 	lea    0xd8b4(%rip),%rax        # 262b0 <g_766>
   189fc:	48 89 85 f0 eb ff ff 	mov    %rax,-0x1410(%rbp)
   18a03:	48 8d 05 a6 d8 00 00 	lea    0xd8a6(%rip),%rax        # 262b0 <g_766>
   18a0a:	48 89 85 f8 eb ff ff 	mov    %rax,-0x1408(%rbp)
   18a11:	48 8d 05 98 d8 00 00 	lea    0xd898(%rip),%rax        # 262b0 <g_766>
   18a18:	48 89 85 00 ec ff ff 	mov    %rax,-0x1400(%rbp)
   18a1f:	48 8d 05 8a d8 00 00 	lea    0xd88a(%rip),%rax        # 262b0 <g_766>
   18a26:	48 89 85 08 ec ff ff 	mov    %rax,-0x13f8(%rbp)
   18a2d:	48 8d 05 7c d8 00 00 	lea    0xd87c(%rip),%rax        # 262b0 <g_766>
   18a34:	48 89 85 10 ec ff ff 	mov    %rax,-0x13f0(%rbp)
   18a3b:	48 8d 05 6e d8 00 00 	lea    0xd86e(%rip),%rax        # 262b0 <g_766>
   18a42:	48 89 85 18 ec ff ff 	mov    %rax,-0x13e8(%rbp)
   18a49:	48 8d 05 60 d8 00 00 	lea    0xd860(%rip),%rax        # 262b0 <g_766>
   18a50:	48 89 85 20 ec ff ff 	mov    %rax,-0x13e0(%rbp)
   18a57:	48 8d 05 52 d8 00 00 	lea    0xd852(%rip),%rax        # 262b0 <g_766>
   18a5e:	48 89 85 28 ec ff ff 	mov    %rax,-0x13d8(%rbp)
   18a65:	48 8d 85 d0 ef ff ff 	lea    -0x1030(%rbp),%rax
   18a6c:	48 8d 15 ed 87 00 00 	lea    0x87ed(%rip),%rdx        # 21260 <g_2708+0xfd8>
   18a73:	b9 5a 00 00 00       	mov    $0x5a,%ecx
   18a78:	48 89 c7             	mov    %rax,%rdi
   18a7b:	48 89 d6             	mov    %rdx,%rsi
   18a7e:	f3 48 a5             	rep movsq %ds:(%rsi),%es:(%rdi)
   18a81:	48 8d 05 70 d7 00 00 	lea    0xd770(%rip),%rax        # 261f8 <g_244>
   18a88:	48 89 85 e8 e9 ff ff 	mov    %rax,-0x1618(%rbp)
   18a8f:	c7 85 58 e9 ff ff 01 	movl   $0x1,-0x16a8(%rbp)
   18a96:	00 00 00 
   18a99:	48 b8 cb 5a 6d 0e 77 	movabs $0x96d980770e6d5acb,%rax
   18aa0:	80 d9 96 
   18aa3:	48 89 85 b0 e9 ff ff 	mov    %rax,-0x1650(%rbp)
   18aaa:	48 b8 ed c9 45 30 90 	movabs $0xb700c1903045c9ed,%rax
   18ab1:	c1 00 b7 
   18ab4:	48 89 85 f0 e9 ff ff 	mov    %rax,-0x1610(%rbp)
   18abb:	c7 85 5c e9 ff ff fe 	movl   $0xfd924bfe,-0x16a4(%rbp)
   18ac2:	4b 92 fd 
   18ac5:	48 8d 05 34 f3 00 00 	lea    0xf334(%rip),%rax        # 27e00 <g_87>
   18acc:	48 89 85 b8 e9 ff ff 	mov    %rax,-0x1648(%rbp)
   18ad3:	48 8d 85 b8 e9 ff ff 	lea    -0x1648(%rbp),%rax
   18ada:	48 89 85 c0 e9 ff ff 	mov    %rax,-0x1640(%rbp)
   18ae1:	48 8d 85 c0 e9 ff ff 	lea    -0x1640(%rbp),%rax
   18ae8:	48 89 85 c8 e9 ff ff 	mov    %rax,-0x1638(%rbp)
   18aef:	c7 85 60 e9 ff ff 01 	movl   $0x1,-0x16a0(%rbp)
   18af6:	00 00 00 
   18af9:	48 8d 85 a0 f2 ff ff 	lea    -0xd60(%rbp),%rax
   18b00:	48 8d 15 b9 e5 00 00 	lea    0xe5b9(%rip),%rdx        # 270c0 <g_4408+0xce0>
   18b07:	b9 d2 00 00 00       	mov    $0xd2,%ecx
   18b0c:	48 89 c7             	mov    %rax,%rdi
   18b0f:	48 89 d6             	mov    %rdx,%rsi
   18b12:	f3 48 a5             	rep movsq %ds:(%rsi),%es:(%rdi)
   18b15:	c7 85 64 e9 ff ff 00 	movl   $0x0,-0x169c(%rbp)
   18b1c:	00 00 00 
   18b1f:	66 c7 85 34 e9 ff ff 	movw   $0x6507,-0x16cc(%rbp)
   18b26:	07 65 
   18b28:	48 c7 85 f8 e9 ff ff 	movq   $0x0,-0x1608(%rbp)
   18b2f:	00 00 00 00 
   18b33:	66 c7 85 36 e9 ff ff 	movw   $0x1,-0x16ca(%rbp)
   18b3a:	01 00 
   18b3c:	48 8d 85 30 ec ff ff 	lea    -0x13d0(%rbp),%rax
   18b43:	48 8d 15 f6 89 00 00 	lea    0x89f6(%rip),%rdx        # 21540 <g_2708+0x12b8>
   18b4a:	b9 28 00 00 00       	mov    $0x28,%ecx
   18b4f:	48 89 c7             	mov    %rax,%rdi
   18b52:	48 89 d6             	mov    %rdx,%rsi
   18b55:	f3 48 a5             	rep movsq %ds:(%rsi),%es:(%rdi)
   18b58:	48 89 f2             	mov    %rsi,%rdx
   18b5b:	48 89 f8             	mov    %rdi,%rax
   18b5e:	8b 0a                	mov    (%rdx),%ecx
   18b60:	89 08                	mov    %ecx,(%rax)
   18b62:	c6 85 30 e9 ff ff 00 	movb   $0x0,-0x16d0(%rbp)
   18b69:	c7 85 3c e9 ff ff 00 	movl   $0x0,-0x16c4(%rbp)
   18b70:	00 00 00 
   18b73:	eb 1e                	jmp    18b93 <func_26+0x2b0>
   18b75:	8b 85 3c e9 ff ff    	mov    -0x16c4(%rbp),%eax
   18b7b:	48 98                	cltq   
   18b7d:	48 8d 95 a8 e9 ff ff 	lea    -0x1658(%rbp),%rdx
   18b84:	48 89 94 c5 90 ea ff 	mov    %rdx,-0x1570(%rbp,%rax,8)
   18b8b:	ff 
   18b8c:	83 85 3c e9 ff ff 01 	addl   $0x1,-0x16c4(%rbp)
   18b93:	83 bd 3c e9 ff ff 03 	cmpl   $0x3,-0x16c4(%rbp)
   18b9a:	7e d9                	jle    18b75 <func_26+0x292>
   18b9c:	c7 85 3c e9 ff ff 00 	movl   $0x0,-0x16c4(%rbp)
   18ba3:	00 00 00 
   18ba6:	eb 1e                	jmp    18bc6 <func_26+0x2e3>
   18ba8:	8b 85 3c e9 ff ff    	mov    -0x16c4(%rbp),%eax
   18bae:	48 98                	cltq   
   18bb0:	48 8d 95 30 eb ff ff 	lea    -0x14d0(%rbp),%rdx
   18bb7:	48 89 94 c5 70 ea ff 	mov    %rdx,-0x1590(%rbp,%rax,8)
   18bbe:	ff 
   18bbf:	83 85 3c e9 ff ff 01 	addl   $0x1,-0x16c4(%rbp)
   18bc6:	83 bd 3c e9 ff ff 01 	cmpl   $0x1,-0x16c4(%rbp)
   18bcd:	7e d9                	jle    18ba8 <func_26+0x2c5>
   18bcf:	8b 85 28 e9 ff ff    	mov    -0x16d8(%rbp),%eax
   18bd5:	0f b6 d0             	movzbl %al,%edx
   18bd8:	8b 05 c6 d4 00 00    	mov    0xd4c6(%rip),%eax        # 260a4 <g_24+0x4>
   18bde:	0f b6 c0             	movzbl %al,%eax
   18be1:	89 d6                	mov    %edx,%esi
   18be3:	89 c7                	mov    %eax,%edi
   18be5:	e8 8e 3f ff ff       	callq  cb78 <safe_sub_func_uint8_t_u_u>
   18bea:	8b 85 28 e9 ff ff    	mov    -0x16d8(%rbp),%eax
   18bf0:	0f be d8             	movsbl %al,%ebx
   18bf3:	8b 05 ab d4 00 00    	mov    0xd4ab(%rip),%eax        # 260a4 <g_24+0x4>
   18bf9:	41 89 c7             	mov    %eax,%r15d
   18bfc:	8b 05 a6 d4 00 00    	mov    0xd4a6(%rip),%eax        # 260a8 <g_24+0x8>
   18c02:	41 89 c6             	mov    %eax,%r14d
   18c05:	8b 85 28 e9 ff ff    	mov    -0x16d8(%rbp),%eax
   18c0b:	4c 63 e0             	movslq %eax,%r12
   18c0e:	8b 85 2c e9 ff ff    	mov    -0x16d4(%rbp),%eax
   18c14:	44 0f b6 e8          	movzbl %al,%r13d
   18c18:	8b 95 54 e9 ff ff    	mov    -0x16ac(%rbp),%edx
   18c1e:	8b 85 28 e9 ff ff    	mov    -0x16d8(%rbp),%eax
   18c24:	98                   	cwtl   
   18c25:	89 d6                	mov    %edx,%esi
   18c27:	89 c7                	mov    %eax,%edi
   18c29:	e8 64 38 ff ff       	callq  c492 <safe_lshift_func_int16_t_s_s>
   18c2e:	0f b6 c0             	movzbl %al,%eax
   18c31:	44 89 ee             	mov    %r13d,%esi
   18c34:	89 c7                	mov    %eax,%edi
   18c36:	e8 a0 3f ff ff       	callq  cbdb <safe_div_func_uint8_t_u_u>
   18c3b:	0f b6 c0             	movzbl %al,%eax
   18c3e:	39 85 54 e9 ff ff    	cmp    %eax,-0x16ac(%rbp)
   18c44:	0f 94 c0             	sete   %al
   18c47:	0f b6 c0             	movzbl %al,%eax
   18c4a:	44 89 f2             	mov    %r14d,%edx
   18c4d:	4c 89 e6             	mov    %r12,%rsi
   18c50:	89 c7                	mov    %eax,%edi
   18c52:	e8 7b 17 00 00       	callq  1a3d2 <func_40>
   18c57:	3c 08                	cmp    $0x8,%al
   18c59:	0f 95 c0             	setne  %al
   18c5c:	44 09 f8             	or     %r15d,%eax
   18c5f:	83 c8 d7             	or     $0xffffffd7,%eax
   18c62:	88 05 60 d6 00 00    	mov    %al,0xd660(%rip)        # 262c8 <g_1297>
   18c68:	8b 85 2c e9 ff ff    	mov    -0x16d4(%rbp),%eax
   18c6e:	98                   	cwtl   
   18c6f:	be ff ff ff ff       	mov    $0xffffffff,%esi
   18c74:	89 c7                	mov    %eax,%edi
   18c76:	e8 58 37 ff ff       	callq  c3d3 <safe_sub_func_int16_t_s_s>
   18c7b:	98                   	cwtl   
   18c7c:	39 85 54 e9 ff ff    	cmp    %eax,-0x16ac(%rbp)
   18c82:	0f 93 c0             	setae  %al
   18c85:	0f b6 c0             	movzbl %al,%eax
   18c88:	be e8 a2 91 81       	mov    $0x8191a2e8,%esi
   18c8d:	89 c7                	mov    %eax,%edi
   18c8f:	e8 69 42 ff ff       	callq  cefd <safe_mod_func_uint32_t_u_u>
   18c94:	0f bf d0             	movswl %ax,%edx
   18c97:	8b 85 54 e9 ff ff    	mov    -0x16ac(%rbp),%eax
   18c9d:	98                   	cwtl   
   18c9e:	89 d6                	mov    %edx,%esi
   18ca0:	89 c7                	mov    %eax,%edi
   18ca2:	e8 4e 37 ff ff       	callq  c3f5 <safe_mul_func_int16_t_s_s>
   18ca7:	83 bd 54 e9 ff ff 00 	cmpl   $0x0,-0x16ac(%rbp)
   18cae:	48 8b 05 63 f1 00 00 	mov    0xf163(%rip),%rax        # 27e18 <g_410>
   18cb5:	0f b6 00             	movzbl (%rax),%eax
   18cb8:	0f be c0             	movsbl %al,%eax
   18cbb:	89 de                	mov    %ebx,%esi
   18cbd:	89 c7                	mov    %eax,%edi
   18cbf:	e8 6d 35 ff ff       	callq  c231 <safe_mod_func_int8_t_s_s>
   18cc4:	0f be c0             	movsbl %al,%eax
   18cc7:	39 85 54 e9 ff ff    	cmp    %eax,-0x16ac(%rbp)
   18ccd:	0f 94 c0             	sete   %al
   18cd0:	0f b6 c0             	movzbl %al,%eax
   18cd3:	39 85 28 e9 ff ff    	cmp    %eax,-0x16d8(%rbp)
   18cd9:	0f 9e c2             	setle  %dl
   18cdc:	48 8b 05 45 f1 00 00 	mov    0xf145(%rip),%rax        # 27e28 <g_433>
   18ce3:	0f b6 d2             	movzbl %dl,%edx
   18ce6:	89 10                	mov    %edx,(%rax)
   18ce8:	8b 00                	mov    (%rax),%eax
   18cea:	39 85 54 e9 ff ff    	cmp    %eax,-0x16ac(%rbp)
   18cf0:	0f 97 c0             	seta   %al
   18cf3:	0f b6 c0             	movzbl %al,%eax
   18cf6:	39 85 54 e9 ff ff    	cmp    %eax,-0x16ac(%rbp)
   18cfc:	0f 92 c0             	setb   %al
   18cff:	0f b6 d0             	movzbl %al,%edx
   18d02:	48 8b 85 e0 e9 ff ff 	mov    -0x1620(%rbp),%rax
   18d09:	0f b6 00             	movzbl (%rax),%eax
   18d0c:	09 c2                	or     %eax,%edx
   18d0e:	48 8b 85 e0 e9 ff ff 	mov    -0x1620(%rbp),%rax
   18d15:	88 10                	mov    %dl,(%rax)
   18d17:	48 8b 85 e0 e9 ff ff 	mov    -0x1620(%rbp),%rax
   18d1e:	0f b6 00             	movzbl (%rax),%eax
   18d21:	0f be c0             	movsbl %al,%eax
   18d24:	23 85 28 e9 ff ff    	and    -0x16d8(%rbp),%eax
   18d2a:	85 c0                	test   %eax,%eax
   18d2c:	0f 84 88 01 00 00    	je     18eba <func_26+0x5d7>
   18d32:	48 c7 85 40 ea ff ff 	movq   $0x0,-0x15c0(%rbp)
   18d39:	00 00 00 00 
   18d3d:	48 8d 85 30 eb ff ff 	lea    -0x14d0(%rbp),%rax
   18d44:	48 89 85 48 ea ff ff 	mov    %rax,-0x15b8(%rbp)
   18d4b:	48 8d 05 56 21 01 00 	lea    0x12156(%rip),%rax        # 2aea8 <g_614>
   18d52:	48 89 85 50 ea ff ff 	mov    %rax,-0x15b0(%rbp)
   18d59:	c7 85 90 e9 ff ff 69 	movl   $0x19ca6269,-0x1670(%rbp)
   18d60:	62 ca 19 
   18d63:	48 c7 85 58 ea ff ff 	movq   $0x0,-0x15a8(%rbp)
   18d6a:	00 00 00 00 
   18d6e:	c7 85 94 e9 ff ff 4c 	movl   $0x4656a74c,-0x166c(%rbp)
   18d75:	a7 56 46 
   18d78:	c7 85 98 e9 ff ff 64 	movl   $0x2a7c2664,-0x1668(%rbp)
   18d7f:	26 7c 2a 
   18d82:	c7 85 9c e9 ff ff 00 	movl   $0x0,-0x1664(%rbp)
   18d89:	00 00 00 
   18d8c:	48 8d 85 80 ed ff ff 	lea    -0x1280(%rbp),%rax
   18d93:	48 8d 15 06 89 00 00 	lea    0x8906(%rip),%rdx        # 216a0 <g_2708+0x1418>
   18d9a:	b9 23 00 00 00       	mov    $0x23,%ecx
   18d9f:	48 89 c7             	mov    %rax,%rdi
   18da2:	48 89 d6             	mov    %rdx,%rsi
   18da5:	f3 48 a5             	rep movsq %ds:(%rsi),%es:(%rdi)
   18da8:	48 c7 85 60 ea ff ff 	movq   $0x0,-0x15a0(%rbp)
   18daf:	00 00 00 00 
   18db3:	c7 85 a0 eb ff ff ff 	movl   $0xff0000ff,-0x1460(%rbp)
   18dba:	00 00 ff 
   18dbd:	66 c7 85 a4 eb ff ff 	movw   $0x0,-0x145c(%rbp)
   18dc4:	00 00 
   18dc6:	c7 85 a6 eb ff ff ff 	movl   $0xff0000ff,-0x145a(%rbp)
   18dcd:	00 00 ff 
   18dd0:	66 c7 85 aa eb ff ff 	movw   $0x0,-0x1456(%rbp)
   18dd7:	00 00 
   18dd9:	c7 85 ac eb ff ff ff 	movl   $0xff0000ff,-0x1454(%rbp)
   18de0:	00 00 ff 
   18de3:	66 c7 85 b0 eb ff ff 	movw   $0x0,-0x1450(%rbp)
   18dea:	00 00 
   18dec:	48 c7 85 d8 e9 ff ff 	movq   $0x0,-0x1628(%rbp)
   18df3:	00 00 00 00 
   18df7:	48 8d 85 d8 e9 ff ff 	lea    -0x1628(%rbp),%rax
   18dfe:	48 89 85 68 ea ff ff 	mov    %rax,-0x1598(%rbp)
   18e05:	48 8d 85 30 f9 ff ff 	lea    -0x6d0(%rbp),%rax
   18e0c:	48 8d 15 ad 89 00 00 	lea    0x89ad(%rip),%rdx        # 217c0 <g_2708+0x1538>
   18e13:	b9 d2 00 00 00       	mov    $0xd2,%ecx
   18e18:	48 89 c7             	mov    %rax,%rdi
   18e1b:	48 89 d6             	mov    %rdx,%rsi
   18e1e:	f3 48 a5             	rep movsq %ds:(%rsi),%es:(%rdi)
   18e21:	c6 85 33 e9 ff ff ff 	movb   $0xff,-0x16cd(%rbp)
   18e28:	c7 85 a0 e9 ff ff 01 	movl   $0x1,-0x1660(%rbp)
   18e2f:	00 00 00 
   18e32:	c7 85 a4 e9 ff ff 13 	movl   $0xfe918b13,-0x165c(%rbp)
   18e39:	8b 91 fe 
   18e3c:	c7 85 40 e9 ff ff 00 	movl   $0x0,-0x16c0(%rbp)
   18e43:	00 00 00 
   18e46:	eb 14                	jmp    18e5c <func_26+0x579>
   18e48:	8b 85 40 e9 ff ff    	mov    -0x16c0(%rbp),%eax
   18e4e:	48 98                	cltq   
   18e50:	c6 44 05 c4 68       	movb   $0x68,-0x3c(%rbp,%rax,1)
   18e55:	83 85 40 e9 ff ff 01 	addl   $0x1,-0x16c0(%rbp)
   18e5c:	83 bd 40 e9 ff ff 03 	cmpl   $0x3,-0x16c0(%rbp)
   18e63:	7e e3                	jle    18e48 <func_26+0x565>
   18e65:	48 8d 05 dc ef 00 00 	lea    0xefdc(%rip),%rax        # 27e48 <g_489>
   18e6c:	48 8b 00             	mov    (%rax),%rax
   18e6f:	48 8b 95 a8 e9 ff ff 	mov    -0x1658(%rbp),%rdx
   18e76:	48 89 10             	mov    %rdx,(%rax)
   18e79:	48 8b 85 a8 e9 ff ff 	mov    -0x1658(%rbp),%rax
   18e80:	8b 08                	mov    (%rax),%ecx
   18e82:	48 83 bd 40 ea ff ff 	cmpq   $0x0,-0x15c0(%rbp)
   18e89:	00 
   18e8a:	0f 95 c0             	setne  %al
   18e8d:	0f b6 d0             	movzbl %al,%edx
   18e90:	48 8b 85 a8 e9 ff ff 	mov    -0x1658(%rbp),%rax
   18e97:	31 ca                	xor    %ecx,%edx
   18e99:	89 10                	mov    %edx,(%rax)
   18e9b:	48 8d 05 a6 ef 00 00 	lea    0xefa6(%rip),%rax        # 27e48 <g_489>
   18ea2:	48 8b 10             	mov    (%rax),%rdx
   18ea5:	48 8d 05 9c ef 00 00 	lea    0xef9c(%rip),%rax        # 27e48 <g_489>
   18eac:	48 8b 00             	mov    (%rax),%rax
   18eaf:	48 8b 12             	mov    (%rdx),%rdx
   18eb2:	48 89 10             	mov    %rdx,(%rax)
   18eb5:	e9 ea 14 00 00       	jmpq   1a3a4 <func_26+0x1ac1>
   18eba:	c7 85 44 e9 ff ff ff 	movl   $0xffffffff,-0x16bc(%rbp)
   18ec1:	ff ff ff 
   18ec4:	c7 85 48 e9 ff ff dd 	movl   $0x8bdddadd,-0x16b8(%rbp)
   18ecb:	da dd 8b 
   18ece:	c7 85 68 e9 ff ff f7 	movl   $0xfffffff7,-0x1698(%rbp)
   18ed5:	ff ff ff 
   18ed8:	c7 85 6c e9 ff ff 09 	movl   $0x9,-0x1694(%rbp)
   18edf:	00 00 00 
   18ee2:	c7 85 70 e9 ff ff 01 	movl   $0x8e7001,-0x1690(%rbp)
   18ee9:	70 8e 00 
   18eec:	c7 85 74 e9 ff ff ce 	movl   $0x180397ce,-0x168c(%rbp)
   18ef3:	97 03 18 
   18ef6:	c7 85 d0 ea ff ff ff 	movl   $0xffffffff,-0x1530(%rbp)
   18efd:	ff ff ff 
   18f00:	c7 85 d4 ea ff ff 00 	movl   $0x0,-0x152c(%rbp)
   18f07:	00 00 00 
   18f0a:	c7 85 d8 ea ff ff 00 	movl   $0x0,-0x1528(%rbp)
   18f11:	00 00 00 
   18f14:	c7 85 dc ea ff ff ff 	movl   $0xffffffff,-0x1524(%rbp)
   18f1b:	ff ff ff 
   18f1e:	c7 85 e0 ea ff ff 00 	movl   $0x0,-0x1520(%rbp)
   18f25:	00 00 00 
   18f28:	c7 85 e4 ea ff ff 00 	movl   $0x0,-0x151c(%rbp)
   18f2f:	00 00 00 
   18f32:	c7 85 e8 ea ff ff ff 	movl   $0xffffffff,-0x1518(%rbp)
   18f39:	ff ff ff 
   18f3c:	c7 85 ec ea ff ff 00 	movl   $0x0,-0x1514(%rbp)
   18f43:	00 00 00 
   18f46:	c7 85 f0 ea ff ff 00 	movl   $0x0,-0x1510(%rbp)
   18f4d:	00 00 00 
   18f50:	48 8d 05 71 f3 00 00 	lea    0xf371(%rip),%rax        # 282c8 <g_613>
   18f57:	48 89 85 00 ea ff ff 	mov    %rax,-0x1600(%rbp)
   18f5e:	48 8d 85 80 ed ff ff 	lea    -0x1280(%rbp),%rax
   18f65:	48 8d 15 f4 8e 00 00 	lea    0x8ef4(%rip),%rdx        # 21e60 <g_2708+0x1bd8>
   18f6c:	b9 49 00 00 00       	mov    $0x49,%ecx
   18f71:	48 89 c7             	mov    %rax,%rdi
   18f74:	48 89 d6             	mov    %rdx,%rsi
   18f77:	f3 48 a5             	rep movsq %ds:(%rsi),%es:(%rdi)
   18f7a:	48 89 f2             	mov    %rsi,%rdx
   18f7d:	48 89 f8             	mov    %rdi,%rax
   18f80:	8b 0a                	mov    (%rdx),%ecx
   18f82:	89 08                	mov    %ecx,(%rax)
   18f84:	48 c7 85 30 f9 ff ff 	movq   $0x0,-0x6d0(%rbp)
   18f8b:	00 00 00 00 
   18f8f:	48 8d 85 c8 e9 ff ff 	lea    -0x1638(%rbp),%rax
   18f96:	48 89 85 38 f9 ff ff 	mov    %rax,-0x6c8(%rbp)
   18f9d:	48 c7 85 40 f9 ff ff 	movq   $0x0,-0x6c0(%rbp)
   18fa4:	00 00 00 00 
   18fa8:	48 c7 85 48 f9 ff ff 	movq   $0x0,-0x6b8(%rbp)
   18faf:	00 00 00 00 
   18fb3:	48 c7 85 50 f9 ff ff 	movq   $0x0,-0x6b0(%rbp)
   18fba:	00 00 00 00 
   18fbe:	48 c7 85 58 f9 ff ff 	movq   $0x0,-0x6a8(%rbp)
   18fc5:	00 00 00 00 
   18fc9:	48 c7 85 60 f9 ff ff 	movq   $0x0,-0x6a0(%rbp)
   18fd0:	00 00 00 00 
   18fd4:	48 8d 85 c8 e9 ff ff 	lea    -0x1638(%rbp),%rax
   18fdb:	48 89 85 68 f9 ff ff 	mov    %rax,-0x698(%rbp)
   18fe2:	48 8d 85 c8 e9 ff ff 	lea    -0x1638(%rbp),%rax
   18fe9:	48 89 85 70 f9 ff ff 	mov    %rax,-0x690(%rbp)
   18ff0:	48 8d 85 c8 e9 ff ff 	lea    -0x1638(%rbp),%rax
   18ff7:	48 89 85 78 f9 ff ff 	mov    %rax,-0x688(%rbp)
   18ffe:	48 8d 85 c8 e9 ff ff 	lea    -0x1638(%rbp),%rax
   19005:	48 89 85 80 f9 ff ff 	mov    %rax,-0x680(%rbp)
   1900c:	48 8d 85 c8 e9 ff ff 	lea    -0x1638(%rbp),%rax
   19013:	48 89 85 88 f9 ff ff 	mov    %rax,-0x678(%rbp)
   1901a:	48 8d 85 c8 e9 ff ff 	lea    -0x1638(%rbp),%rax
   19021:	48 89 85 90 f9 ff ff 	mov    %rax,-0x670(%rbp)
   19028:	48 8d 85 c8 e9 ff ff 	lea    -0x1638(%rbp),%rax
   1902f:	48 89 85 98 f9 ff ff 	mov    %rax,-0x668(%rbp)
   19036:	48 c7 85 a0 f9 ff ff 	movq   $0x0,-0x660(%rbp)
   1903d:	00 00 00 00 
   19041:	48 8d 85 c8 e9 ff ff 	lea    -0x1638(%rbp),%rax
   19048:	48 89 85 a8 f9 ff ff 	mov    %rax,-0x658(%rbp)
   1904f:	48 8d 85 c8 e9 ff ff 	lea    -0x1638(%rbp),%rax
   19056:	48 89 85 b0 f9 ff ff 	mov    %rax,-0x650(%rbp)
   1905d:	48 8d 85 c8 e9 ff ff 	lea    -0x1638(%rbp),%rax
   19064:	48 89 85 b8 f9 ff ff 	mov    %rax,-0x648(%rbp)
   1906b:	48 8d 85 c8 e9 ff ff 	lea    -0x1638(%rbp),%rax
   19072:	48 89 85 c0 f9 ff ff 	mov    %rax,-0x640(%rbp)
   19079:	48 8d 85 c8 e9 ff ff 	lea    -0x1638(%rbp),%rax
   19080:	48 89 85 c8 f9 ff ff 	mov    %rax,-0x638(%rbp)
   19087:	48 8d 85 c8 e9 ff ff 	lea    -0x1638(%rbp),%rax
   1908e:	48 89 85 d0 f9 ff ff 	mov    %rax,-0x630(%rbp)
   19095:	48 c7 85 d8 f9 ff ff 	movq   $0x0,-0x628(%rbp)
   1909c:	00 00 00 00 
   190a0:	48 c7 85 e0 f9 ff ff 	movq   $0x0,-0x620(%rbp)
   190a7:	00 00 00 00 
   190ab:	48 8d 85 c8 e9 ff ff 	lea    -0x1638(%rbp),%rax
   190b2:	48 89 85 e8 f9 ff ff 	mov    %rax,-0x618(%rbp)
   190b9:	48 c7 85 f0 f9 ff ff 	movq   $0x0,-0x610(%rbp)
   190c0:	00 00 00 00 
   190c4:	48 8d 85 c8 e9 ff ff 	lea    -0x1638(%rbp),%rax
   190cb:	48 89 85 f8 f9 ff ff 	mov    %rax,-0x608(%rbp)
   190d2:	48 8d 85 c8 e9 ff ff 	lea    -0x1638(%rbp),%rax
   190d9:	48 89 85 00 fa ff ff 	mov    %rax,-0x600(%rbp)
   190e0:	48 8d 85 c8 e9 ff ff 	lea    -0x1638(%rbp),%rax
   190e7:	48 89 85 08 fa ff ff 	mov    %rax,-0x5f8(%rbp)
   190ee:	48 8d 85 c8 e9 ff ff 	lea    -0x1638(%rbp),%rax
   190f5:	48 89 85 10 fa ff ff 	mov    %rax,-0x5f0(%rbp)
   190fc:	48 8d 85 c8 e9 ff ff 	lea    -0x1638(%rbp),%rax
   19103:	48 89 85 18 fa ff ff 	mov    %rax,-0x5e8(%rbp)
   1910a:	48 8d 85 c8 e9 ff ff 	lea    -0x1638(%rbp),%rax
   19111:	48 89 85 20 fa ff ff 	mov    %rax,-0x5e0(%rbp)
   19118:	48 8d 85 c8 e9 ff ff 	lea    -0x1638(%rbp),%rax
   1911f:	48 89 85 28 fa ff ff 	mov    %rax,-0x5d8(%rbp)
   19126:	48 8d 85 c8 e9 ff ff 	lea    -0x1638(%rbp),%rax
   1912d:	48 89 85 30 fa ff ff 	mov    %rax,-0x5d0(%rbp)
   19134:	48 8d 85 c8 e9 ff ff 	lea    -0x1638(%rbp),%rax
   1913b:	48 89 85 38 fa ff ff 	mov    %rax,-0x5c8(%rbp)
   19142:	48 8d 85 c8 e9 ff ff 	lea    -0x1638(%rbp),%rax
   19149:	48 89 85 40 fa ff ff 	mov    %rax,-0x5c0(%rbp)
   19150:	48 8d 85 c8 e9 ff ff 	lea    -0x1638(%rbp),%rax
   19157:	48 89 85 48 fa ff ff 	mov    %rax,-0x5b8(%rbp)
   1915e:	48 8d 85 c8 e9 ff ff 	lea    -0x1638(%rbp),%rax
   19165:	48 89 85 50 fa ff ff 	mov    %rax,-0x5b0(%rbp)
   1916c:	48 c7 85 58 fa ff ff 	movq   $0x0,-0x5a8(%rbp)
   19173:	00 00 00 00 
   19177:	48 c7 85 60 fa ff ff 	movq   $0x0,-0x5a0(%rbp)
   1917e:	00 00 00 00 
   19182:	48 8d 85 c8 e9 ff ff 	lea    -0x1638(%rbp),%rax
   19189:	48 89 85 68 fa ff ff 	mov    %rax,-0x598(%rbp)
   19190:	48 8d 85 c8 e9 ff ff 	lea    -0x1638(%rbp),%rax
   19197:	48 89 85 70 fa ff ff 	mov    %rax,-0x590(%rbp)
   1919e:	48 c7 85 78 fa ff ff 	movq   $0x0,-0x588(%rbp)
   191a5:	00 00 00 00 
   191a9:	48 c7 85 80 fa ff ff 	movq   $0x0,-0x580(%rbp)
   191b0:	00 00 00 00 
   191b4:	48 8d 85 c8 e9 ff ff 	lea    -0x1638(%rbp),%rax
   191bb:	48 89 85 88 fa ff ff 	mov    %rax,-0x578(%rbp)
   191c2:	48 8d 85 c8 e9 ff ff 	lea    -0x1638(%rbp),%rax
   191c9:	48 89 85 90 fa ff ff 	mov    %rax,-0x570(%rbp)
   191d0:	48 8d 85 c8 e9 ff ff 	lea    -0x1638(%rbp),%rax
   191d7:	48 89 85 98 fa ff ff 	mov    %rax,-0x568(%rbp)
   191de:	48 8d 85 c8 e9 ff ff 	lea    -0x1638(%rbp),%rax
   191e5:	48 89 85 a0 fa ff ff 	mov    %rax,-0x560(%rbp)
   191ec:	48 8d 85 c8 e9 ff ff 	lea    -0x1638(%rbp),%rax
   191f3:	48 89 85 a8 fa ff ff 	mov    %rax,-0x558(%rbp)
   191fa:	48 8d 85 c8 e9 ff ff 	lea    -0x1638(%rbp),%rax
   19201:	48 89 85 b0 fa ff ff 	mov    %rax,-0x550(%rbp)
   19208:	48 8d 85 c8 e9 ff ff 	lea    -0x1638(%rbp),%rax
   1920f:	48 89 85 b8 fa ff ff 	mov    %rax,-0x548(%rbp)
   19216:	48 c7 85 c0 fa ff ff 	movq   $0x0,-0x540(%rbp)
   1921d:	00 00 00 00 
   19221:	48 8d 85 c8 e9 ff ff 	lea    -0x1638(%rbp),%rax
   19228:	48 89 85 c8 fa ff ff 	mov    %rax,-0x538(%rbp)
   1922f:	48 8d 85 c8 e9 ff ff 	lea    -0x1638(%rbp),%rax
   19236:	48 89 85 d0 fa ff ff 	mov    %rax,-0x530(%rbp)
   1923d:	48 8d 85 c8 e9 ff ff 	lea    -0x1638(%rbp),%rax
   19244:	48 89 85 d8 fa ff ff 	mov    %rax,-0x528(%rbp)
   1924b:	48 8d 85 c8 e9 ff ff 	lea    -0x1638(%rbp),%rax
   19252:	48 89 85 e0 fa ff ff 	mov    %rax,-0x520(%rbp)
   19259:	48 8d 85 c8 e9 ff ff 	lea    -0x1638(%rbp),%rax
   19260:	48 89 85 e8 fa ff ff 	mov    %rax,-0x518(%rbp)
   19267:	48 8d 85 c8 e9 ff ff 	lea    -0x1638(%rbp),%rax
   1926e:	48 89 85 f0 fa ff ff 	mov    %rax,-0x510(%rbp)
   19275:	48 8d 85 c8 e9 ff ff 	lea    -0x1638(%rbp),%rax
   1927c:	48 89 85 f8 fa ff ff 	mov    %rax,-0x508(%rbp)
   19283:	48 8d 85 c8 e9 ff ff 	lea    -0x1638(%rbp),%rax
   1928a:	48 89 85 00 fb ff ff 	mov    %rax,-0x500(%rbp)
   19291:	48 8d 85 c8 e9 ff ff 	lea    -0x1638(%rbp),%rax
   19298:	48 89 85 08 fb ff ff 	mov    %rax,-0x4f8(%rbp)
   1929f:	48 8d 85 c8 e9 ff ff 	lea    -0x1638(%rbp),%rax
   192a6:	48 89 85 10 fb ff ff 	mov    %rax,-0x4f0(%rbp)
   192ad:	48 c7 85 18 fb ff ff 	movq   $0x0,-0x4e8(%rbp)
   192b4:	00 00 00 00 
   192b8:	48 8d 85 c8 e9 ff ff 	lea    -0x1638(%rbp),%rax
   192bf:	48 89 85 20 fb ff ff 	mov    %rax,-0x4e0(%rbp)
   192c6:	48 8d 85 c8 e9 ff ff 	lea    -0x1638(%rbp),%rax
   192cd:	48 89 85 28 fb ff ff 	mov    %rax,-0x4d8(%rbp)
   192d4:	48 8d 85 c8 e9 ff ff 	lea    -0x1638(%rbp),%rax
   192db:	48 89 85 30 fb ff ff 	mov    %rax,-0x4d0(%rbp)
   192e2:	48 8d 85 c8 e9 ff ff 	lea    -0x1638(%rbp),%rax
   192e9:	48 89 85 38 fb ff ff 	mov    %rax,-0x4c8(%rbp)
   192f0:	48 c7 85 40 fb ff ff 	movq   $0x0,-0x4c0(%rbp)
   192f7:	00 00 00 00 
   192fb:	48 8d 85 c8 e9 ff ff 	lea    -0x1638(%rbp),%rax
   19302:	48 89 85 48 fb ff ff 	mov    %rax,-0x4b8(%rbp)
   19309:	48 8d 85 c8 e9 ff ff 	lea    -0x1638(%rbp),%rax
   19310:	48 89 85 50 fb ff ff 	mov    %rax,-0x4b0(%rbp)
   19317:	48 8d 85 c8 e9 ff ff 	lea    -0x1638(%rbp),%rax
   1931e:	48 89 85 58 fb ff ff 	mov    %rax,-0x4a8(%rbp)
   19325:	48 8d 85 c8 e9 ff ff 	lea    -0x1638(%rbp),%rax
   1932c:	48 89 85 60 fb ff ff 	mov    %rax,-0x4a0(%rbp)
   19333:	48 8d 85 c8 e9 ff ff 	lea    -0x1638(%rbp),%rax
   1933a:	48 89 85 68 fb ff ff 	mov    %rax,-0x498(%rbp)
   19341:	48 c7 85 70 fb ff ff 	movq   $0x0,-0x490(%rbp)
   19348:	00 00 00 00 
   1934c:	48 8d 85 c8 e9 ff ff 	lea    -0x1638(%rbp),%rax
   19353:	48 89 85 78 fb ff ff 	mov    %rax,-0x488(%rbp)
   1935a:	48 8d 85 c8 e9 ff ff 	lea    -0x1638(%rbp),%rax
   19361:	48 89 85 80 fb ff ff 	mov    %rax,-0x480(%rbp)
   19368:	48 8d 85 c8 e9 ff ff 	lea    -0x1638(%rbp),%rax
   1936f:	48 89 85 88 fb ff ff 	mov    %rax,-0x478(%rbp)
   19376:	48 c7 85 90 fb ff ff 	movq   $0x0,-0x470(%rbp)
   1937d:	00 00 00 00 
   19381:	48 c7 85 98 fb ff ff 	movq   $0x0,-0x468(%rbp)
   19388:	00 00 00 00 
   1938c:	48 8d 85 c8 e9 ff ff 	lea    -0x1638(%rbp),%rax
   19393:	48 89 85 a0 fb ff ff 	mov    %rax,-0x460(%rbp)
   1939a:	48 c7 85 a8 fb ff ff 	movq   $0x0,-0x458(%rbp)
   193a1:	00 00 00 00 
   193a5:	48 8d 85 c8 e9 ff ff 	lea    -0x1638(%rbp),%rax
   193ac:	48 89 85 b0 fb ff ff 	mov    %rax,-0x450(%rbp)
   193b3:	48 8d 85 c8 e9 ff ff 	lea    -0x1638(%rbp),%rax
   193ba:	48 89 85 b8 fb ff ff 	mov    %rax,-0x448(%rbp)
   193c1:	48 8d 85 c8 e9 ff ff 	lea    -0x1638(%rbp),%rax
   193c8:	48 89 85 c0 fb ff ff 	mov    %rax,-0x440(%rbp)
   193cf:	48 8d 85 c8 e9 ff ff 	lea    -0x1638(%rbp),%rax
   193d6:	48 89 85 c8 fb ff ff 	mov    %rax,-0x438(%rbp)
   193dd:	48 8d 85 c8 e9 ff ff 	lea    -0x1638(%rbp),%rax
   193e4:	48 89 85 d0 fb ff ff 	mov    %rax,-0x430(%rbp)
   193eb:	48 8d 85 c8 e9 ff ff 	lea    -0x1638(%rbp),%rax
   193f2:	48 89 85 d8 fb ff ff 	mov    %rax,-0x428(%rbp)
   193f9:	48 8d 85 c8 e9 ff ff 	lea    -0x1638(%rbp),%rax
   19400:	48 89 85 e0 fb ff ff 	mov    %rax,-0x420(%rbp)
   19407:	48 c7 85 e8 fb ff ff 	movq   $0x0,-0x418(%rbp)
   1940e:	00 00 00 00 
   19412:	48 c7 85 f0 fb ff ff 	movq   $0x0,-0x410(%rbp)
   19419:	00 00 00 00 
   1941d:	48 8d 85 c8 e9 ff ff 	lea    -0x1638(%rbp),%rax
   19424:	48 89 85 f8 fb ff ff 	mov    %rax,-0x408(%rbp)
   1942b:	48 8d 85 c8 e9 ff ff 	lea    -0x1638(%rbp),%rax
   19432:	48 89 85 00 fc ff ff 	mov    %rax,-0x400(%rbp)
   19439:	48 c7 85 08 fc ff ff 	movq   $0x0,-0x3f8(%rbp)
   19440:	00 00 00 00 
   19444:	48 8d 85 c8 e9 ff ff 	lea    -0x1638(%rbp),%rax
   1944b:	48 89 85 10 fc ff ff 	mov    %rax,-0x3f0(%rbp)
   19452:	48 8d 85 c8 e9 ff ff 	lea    -0x1638(%rbp),%rax
   19459:	48 89 85 18 fc ff ff 	mov    %rax,-0x3e8(%rbp)
   19460:	48 8d 85 c8 e9 ff ff 	lea    -0x1638(%rbp),%rax
   19467:	48 89 85 20 fc ff ff 	mov    %rax,-0x3e0(%rbp)
   1946e:	48 8d 85 c8 e9 ff ff 	lea    -0x1638(%rbp),%rax
   19475:	48 89 85 28 fc ff ff 	mov    %rax,-0x3d8(%rbp)
   1947c:	48 c7 85 30 fc ff ff 	movq   $0x0,-0x3d0(%rbp)
   19483:	00 00 00 00 
   19487:	48 c7 85 38 fc ff ff 	movq   $0x0,-0x3c8(%rbp)
   1948e:	00 00 00 00 
   19492:	48 8d 85 c8 e9 ff ff 	lea    -0x1638(%rbp),%rax
   19499:	48 89 85 40 fc ff ff 	mov    %rax,-0x3c0(%rbp)
   194a0:	48 c7 85 48 fc ff ff 	movq   $0x0,-0x3b8(%rbp)
   194a7:	00 00 00 00 
   194ab:	48 c7 85 50 fc ff ff 	movq   $0x0,-0x3b0(%rbp)
   194b2:	00 00 00 00 
   194b6:	48 8d 85 c8 e9 ff ff 	lea    -0x1638(%rbp),%rax
   194bd:	48 89 85 58 fc ff ff 	mov    %rax,-0x3a8(%rbp)
   194c4:	48 8d 85 c8 e9 ff ff 	lea    -0x1638(%rbp),%rax
   194cb:	48 89 85 60 fc ff ff 	mov    %rax,-0x3a0(%rbp)
   194d2:	48 c7 85 68 fc ff ff 	movq   $0x0,-0x398(%rbp)
   194d9:	00 00 00 00 
   194dd:	48 c7 85 70 fc ff ff 	movq   $0x0,-0x390(%rbp)
   194e4:	00 00 00 00 
   194e8:	48 8d 85 c8 e9 ff ff 	lea    -0x1638(%rbp),%rax
   194ef:	48 89 85 78 fc ff ff 	mov    %rax,-0x388(%rbp)
   194f6:	48 8d 85 c8 e9 ff ff 	lea    -0x1638(%rbp),%rax
   194fd:	48 89 85 80 fc ff ff 	mov    %rax,-0x380(%rbp)
   19504:	48 8d 85 c8 e9 ff ff 	lea    -0x1638(%rbp),%rax
   1950b:	48 89 85 88 fc ff ff 	mov    %rax,-0x378(%rbp)
   19512:	48 c7 85 90 fc ff ff 	movq   $0x0,-0x370(%rbp)
   19519:	00 00 00 00 
   1951d:	48 c7 85 98 fc ff ff 	movq   $0x0,-0x368(%rbp)
   19524:	00 00 00 00 
   19528:	48 c7 85 a0 fc ff ff 	movq   $0x0,-0x360(%rbp)
   1952f:	00 00 00 00 
   19533:	48 c7 85 a8 fc ff ff 	movq   $0x0,-0x358(%rbp)
   1953a:	00 00 00 00 
   1953e:	48 8d 85 c8 e9 ff ff 	lea    -0x1638(%rbp),%rax
   19545:	48 89 85 b0 fc ff ff 	mov    %rax,-0x350(%rbp)
   1954c:	48 8d 85 c8 e9 ff ff 	lea    -0x1638(%rbp),%rax
   19553:	48 89 85 b8 fc ff ff 	mov    %rax,-0x348(%rbp)
   1955a:	48 c7 85 c0 fc ff ff 	movq   $0x0,-0x340(%rbp)
   19561:	00 00 00 00 
   19565:	48 c7 85 c8 fc ff ff 	movq   $0x0,-0x338(%rbp)
   1956c:	00 00 00 00 
   19570:	48 8d 85 c8 e9 ff ff 	lea    -0x1638(%rbp),%rax
   19577:	48 89 85 d0 fc ff ff 	mov    %rax,-0x330(%rbp)
   1957e:	48 8d 85 c8 e9 ff ff 	lea    -0x1638(%rbp),%rax
   19585:	48 89 85 d8 fc ff ff 	mov    %rax,-0x328(%rbp)
   1958c:	48 8d 85 c8 e9 ff ff 	lea    -0x1638(%rbp),%rax
   19593:	48 89 85 e0 fc ff ff 	mov    %rax,-0x320(%rbp)
   1959a:	48 8d 85 c8 e9 ff ff 	lea    -0x1638(%rbp),%rax
   195a1:	48 89 85 e8 fc ff ff 	mov    %rax,-0x318(%rbp)
   195a8:	48 8d 85 c8 e9 ff ff 	lea    -0x1638(%rbp),%rax
   195af:	48 89 85 f0 fc ff ff 	mov    %rax,-0x310(%rbp)
   195b6:	48 8d 85 c8 e9 ff ff 	lea    -0x1638(%rbp),%rax
   195bd:	48 89 85 f8 fc ff ff 	mov    %rax,-0x308(%rbp)
   195c4:	48 c7 85 00 fd ff ff 	movq   $0x0,-0x300(%rbp)
   195cb:	00 00 00 00 
   195cf:	48 8d 85 c8 e9 ff ff 	lea    -0x1638(%rbp),%rax
   195d6:	48 89 85 08 fd ff ff 	mov    %rax,-0x2f8(%rbp)
   195dd:	48 8d 85 c8 e9 ff ff 	lea    -0x1638(%rbp),%rax
   195e4:	48 89 85 10 fd ff ff 	mov    %rax,-0x2f0(%rbp)
   195eb:	48 8d 85 c8 e9 ff ff 	lea    -0x1638(%rbp),%rax
   195f2:	48 89 85 18 fd ff ff 	mov    %rax,-0x2e8(%rbp)
   195f9:	48 8d 85 c8 e9 ff ff 	lea    -0x1638(%rbp),%rax
   19600:	48 89 85 20 fd ff ff 	mov    %rax,-0x2e0(%rbp)
   19607:	48 8d 85 c8 e9 ff ff 	lea    -0x1638(%rbp),%rax
   1960e:	48 89 85 28 fd ff ff 	mov    %rax,-0x2d8(%rbp)
   19615:	48 8d 85 c8 e9 ff ff 	lea    -0x1638(%rbp),%rax
   1961c:	48 89 85 30 fd ff ff 	mov    %rax,-0x2d0(%rbp)
   19623:	48 c7 85 38 fd ff ff 	movq   $0x0,-0x2c8(%rbp)
   1962a:	00 00 00 00 
   1962e:	48 8d 85 c8 e9 ff ff 	lea    -0x1638(%rbp),%rax
   19635:	48 89 85 40 fd ff ff 	mov    %rax,-0x2c0(%rbp)
   1963c:	48 8d 85 c8 e9 ff ff 	lea    -0x1638(%rbp),%rax
   19643:	48 89 85 48 fd ff ff 	mov    %rax,-0x2b8(%rbp)
   1964a:	48 c7 85 50 fd ff ff 	movq   $0x0,-0x2b0(%rbp)
   19651:	00 00 00 00 
   19655:	48 8d 85 c8 e9 ff ff 	lea    -0x1638(%rbp),%rax
   1965c:	48 89 85 58 fd ff ff 	mov    %rax,-0x2a8(%rbp)
   19663:	48 8d 85 c8 e9 ff ff 	lea    -0x1638(%rbp),%rax
   1966a:	48 89 85 60 fd ff ff 	mov    %rax,-0x2a0(%rbp)
   19671:	48 8d 85 c8 e9 ff ff 	lea    -0x1638(%rbp),%rax
   19678:	48 89 85 68 fd ff ff 	mov    %rax,-0x298(%rbp)
   1967f:	48 8d 85 c8 e9 ff ff 	lea    -0x1638(%rbp),%rax
   19686:	48 89 85 70 fd ff ff 	mov    %rax,-0x290(%rbp)
   1968d:	48 8d 85 c8 e9 ff ff 	lea    -0x1638(%rbp),%rax
   19694:	48 89 85 78 fd ff ff 	mov    %rax,-0x288(%rbp)
   1969b:	48 c7 85 80 fd ff ff 	movq   $0x0,-0x280(%rbp)
   196a2:	00 00 00 00 
   196a6:	48 8d 85 c8 e9 ff ff 	lea    -0x1638(%rbp),%rax
   196ad:	48 89 85 88 fd ff ff 	mov    %rax,-0x278(%rbp)
   196b4:	48 8d 85 c8 e9 ff ff 	lea    -0x1638(%rbp),%rax
   196bb:	48 89 85 90 fd ff ff 	mov    %rax,-0x270(%rbp)
   196c2:	48 c7 85 98 fd ff ff 	movq   $0x0,-0x268(%rbp)
   196c9:	00 00 00 00 
   196cd:	48 c7 85 a0 fd ff ff 	movq   $0x0,-0x260(%rbp)
   196d4:	00 00 00 00 
   196d8:	48 8d 85 c8 e9 ff ff 	lea    -0x1638(%rbp),%rax
   196df:	48 89 85 a8 fd ff ff 	mov    %rax,-0x258(%rbp)
   196e6:	48 8d 85 c8 e9 ff ff 	lea    -0x1638(%rbp),%rax
   196ed:	48 89 85 b0 fd ff ff 	mov    %rax,-0x250(%rbp)
   196f4:	48 c7 85 b8 fd ff ff 	movq   $0x0,-0x248(%rbp)
   196fb:	00 00 00 00 
   196ff:	48 8d 85 c8 e9 ff ff 	lea    -0x1638(%rbp),%rax
   19706:	48 89 85 c0 fd ff ff 	mov    %rax,-0x240(%rbp)
   1970d:	48 8d 85 c8 e9 ff ff 	lea    -0x1638(%rbp),%rax
   19714:	48 89 85 c8 fd ff ff 	mov    %rax,-0x238(%rbp)
   1971b:	48 8d 85 c8 e9 ff ff 	lea    -0x1638(%rbp),%rax
   19722:	48 89 85 d0 fd ff ff 	mov    %rax,-0x230(%rbp)
   19729:	48 8d 85 c8 e9 ff ff 	lea    -0x1638(%rbp),%rax
   19730:	48 89 85 d8 fd ff ff 	mov    %rax,-0x228(%rbp)
   19737:	48 c7 85 e0 fd ff ff 	movq   $0x0,-0x220(%rbp)
   1973e:	00 00 00 00 
   19742:	48 c7 85 e8 fd ff ff 	movq   $0x0,-0x218(%rbp)
   19749:	00 00 00 00 
   1974d:	48 c7 85 f0 fd ff ff 	movq   $0x0,-0x210(%rbp)
   19754:	00 00 00 00 
   19758:	48 8d 85 c8 e9 ff ff 	lea    -0x1638(%rbp),%rax
   1975f:	48 89 85 f8 fd ff ff 	mov    %rax,-0x208(%rbp)
   19766:	48 8d 85 c8 e9 ff ff 	lea    -0x1638(%rbp),%rax
   1976d:	48 89 85 00 fe ff ff 	mov    %rax,-0x200(%rbp)
   19774:	48 8d 85 c8 e9 ff ff 	lea    -0x1638(%rbp),%rax
   1977b:	48 89 85 08 fe ff ff 	mov    %rax,-0x1f8(%rbp)
   19782:	48 8d 85 c8 e9 ff ff 	lea    -0x1638(%rbp),%rax
   19789:	48 89 85 10 fe ff ff 	mov    %rax,-0x1f0(%rbp)
   19790:	48 c7 85 18 fe ff ff 	movq   $0x0,-0x1e8(%rbp)
   19797:	00 00 00 00 
   1979b:	48 8d 85 c8 e9 ff ff 	lea    -0x1638(%rbp),%rax
   197a2:	48 89 85 20 fe ff ff 	mov    %rax,-0x1e0(%rbp)
   197a9:	48 c7 85 28 fe ff ff 	movq   $0x0,-0x1d8(%rbp)
   197b0:	00 00 00 00 
   197b4:	48 c7 85 30 fe ff ff 	movq   $0x0,-0x1d0(%rbp)
   197bb:	00 00 00 00 
   197bf:	48 8d 85 c8 e9 ff ff 	lea    -0x1638(%rbp),%rax
   197c6:	48 89 85 38 fe ff ff 	mov    %rax,-0x1c8(%rbp)
   197cd:	48 8d 85 c8 e9 ff ff 	lea    -0x1638(%rbp),%rax
   197d4:	48 89 85 40 fe ff ff 	mov    %rax,-0x1c0(%rbp)
   197db:	48 c7 85 48 fe ff ff 	movq   $0x0,-0x1b8(%rbp)
   197e2:	00 00 00 00 
   197e6:	48 c7 85 50 fe ff ff 	movq   $0x0,-0x1b0(%rbp)
   197ed:	00 00 00 00 
   197f1:	48 8d 85 c8 e9 ff ff 	lea    -0x1638(%rbp),%rax
   197f8:	48 89 85 58 fe ff ff 	mov    %rax,-0x1a8(%rbp)
   197ff:	48 8d 85 c8 e9 ff ff 	lea    -0x1638(%rbp),%rax
   19806:	48 89 85 60 fe ff ff 	mov    %rax,-0x1a0(%rbp)
   1980d:	48 c7 85 68 fe ff ff 	movq   $0x0,-0x198(%rbp)
   19814:	00 00 00 00 
   19818:	48 8d 85 c8 e9 ff ff 	lea    -0x1638(%rbp),%rax
   1981f:	48 89 85 70 fe ff ff 	mov    %rax,-0x190(%rbp)
   19826:	48 c7 85 78 fe ff ff 	movq   $0x0,-0x188(%rbp)
   1982d:	00 00 00 00 
   19831:	48 8d 85 c8 e9 ff ff 	lea    -0x1638(%rbp),%rax
   19838:	48 89 85 80 fe ff ff 	mov    %rax,-0x180(%rbp)
   1983f:	48 8d 85 c8 e9 ff ff 	lea    -0x1638(%rbp),%rax
   19846:	48 89 85 88 fe ff ff 	mov    %rax,-0x178(%rbp)
   1984d:	48 8d 85 c8 e9 ff ff 	lea    -0x1638(%rbp),%rax
   19854:	48 89 85 90 fe ff ff 	mov    %rax,-0x170(%rbp)
   1985b:	48 8d 85 c8 e9 ff ff 	lea    -0x1638(%rbp),%rax
   19862:	48 89 85 98 fe ff ff 	mov    %rax,-0x168(%rbp)
   19869:	48 c7 85 a0 fe ff ff 	movq   $0x0,-0x160(%rbp)
   19870:	00 00 00 00 
   19874:	48 8d 85 c8 e9 ff ff 	lea    -0x1638(%rbp),%rax
   1987b:	48 89 85 a8 fe ff ff 	mov    %rax,-0x158(%rbp)
   19882:	48 8d 85 c8 e9 ff ff 	lea    -0x1638(%rbp),%rax
   19889:	48 89 85 b0 fe ff ff 	mov    %rax,-0x150(%rbp)
   19890:	48 c7 85 b8 fe ff ff 	movq   $0x0,-0x148(%rbp)
   19897:	00 00 00 00 
   1989b:	48 8d 85 c8 e9 ff ff 	lea    -0x1638(%rbp),%rax
   198a2:	48 89 85 c0 fe ff ff 	mov    %rax,-0x140(%rbp)
   198a9:	48 8d 85 c8 e9 ff ff 	lea    -0x1638(%rbp),%rax
   198b0:	48 89 85 c8 fe ff ff 	mov    %rax,-0x138(%rbp)
   198b7:	c7 85 78 e9 ff ff c3 	movl   $0xe6af23c3,-0x1688(%rbp)
   198be:	23 af e6 
   198c1:	48 8d 85 00 eb ff ff 	lea    -0x1500(%rbp),%rax
   198c8:	48 83 c0 10          	add    $0x10,%rax
   198cc:	48 89 85 08 ea ff ff 	mov    %rax,-0x15f8(%rbp)
   198d3:	48 83 85 f8 e9 ff ff 	addq   $0x1,-0x1608(%rbp)
   198da:	01 
   198db:	c7 85 48 e9 ff ff 00 	movl   $0x0,-0x16b8(%rbp)
   198e2:	00 00 00 
   198e5:	e9 ad 0a 00 00       	jmpq   1a397 <func_26+0x1ab4>
   198ea:	c6 85 31 e9 ff ff ff 	movb   $0xff,-0x16cf(%rbp)
   198f1:	c7 85 7c e9 ff ff f7 	movl   $0xfffffff7,-0x1684(%rbp)
   198f8:	ff ff ff 
   198fb:	c7 85 80 e9 ff ff 00 	movl   $0x0,-0x1680(%rbp)
   19902:	00 00 00 
   19905:	66 c7 05 20 c9 00 00 	movw   $0x0,0xc920(%rip)        # 2622e <g_287>
   1990c:	00 00 
   1990e:	e9 6c 0a 00 00       	jmpq   1a37f <func_26+0x1a9c>
   19913:	c6 85 32 e9 ff ff 01 	movb   $0x1,-0x16ce(%rbp)
   1991a:	48 8d 85 b0 e9 ff ff 	lea    -0x1650(%rbp),%rax
   19921:	48 89 85 60 eb ff ff 	mov    %rax,-0x14a0(%rbp)
   19928:	48 8d 85 b0 e9 ff ff 	lea    -0x1650(%rbp),%rax
   1992f:	48 89 85 68 eb ff ff 	mov    %rax,-0x1498(%rbp)
   19936:	48 8d 85 b0 e9 ff ff 	lea    -0x1650(%rbp),%rax
   1993d:	48 89 85 70 eb ff ff 	mov    %rax,-0x1490(%rbp)
   19944:	48 8d 85 b0 e9 ff ff 	lea    -0x1650(%rbp),%rax
   1994b:	48 89 85 78 eb ff ff 	mov    %rax,-0x1488(%rbp)
   19952:	48 8d 85 b0 e9 ff ff 	lea    -0x1650(%rbp),%rax
   19959:	48 89 85 80 eb ff ff 	mov    %rax,-0x1480(%rbp)
   19960:	48 8d 85 b0 e9 ff ff 	lea    -0x1650(%rbp),%rax
   19967:	48 89 85 88 eb ff ff 	mov    %rax,-0x1478(%rbp)
   1996e:	48 8d 85 b0 e9 ff ff 	lea    -0x1650(%rbp),%rax
   19975:	48 89 85 90 eb ff ff 	mov    %rax,-0x1470(%rbp)
   1997c:	48 c7 85 10 ea ff ff 	movq   $0x0,-0x15f0(%rbp)
   19983:	00 00 00 00 
   19987:	48 8d 05 8a c8 00 00 	lea    0xc88a(%rip),%rax        # 26218 <g_266+0x8>
   1998e:	48 89 85 18 ea ff ff 	mov    %rax,-0x15e8(%rbp)
   19995:	c7 85 4c e9 ff ff 1a 	movl   $0x7ab4091a,-0x16b4(%rbp)
   1999c:	09 b4 7a 
   1999f:	66 c7 85 38 e9 ff ff 	movw   $0xffff,-0x16c8(%rbp)
   199a6:	ff ff 
   199a8:	48 8d 05 81 e6 00 00 	lea    0xe681(%rip),%rax        # 28030 <g_487+0x1d0>
   199af:	48 89 85 a0 eb ff ff 	mov    %rax,-0x1460(%rbp)
   199b6:	48 8d 05 73 e6 00 00 	lea    0xe673(%rip),%rax        # 28030 <g_487+0x1d0>
   199bd:	48 89 85 a8 eb ff ff 	mov    %rax,-0x1458(%rbp)
   199c4:	48 8d 05 65 e6 00 00 	lea    0xe665(%rip),%rax        # 28030 <g_487+0x1d0>
   199cb:	48 89 85 b0 eb ff ff 	mov    %rax,-0x1450(%rbp)
   199d2:	48 8d 05 57 e6 00 00 	lea    0xe657(%rip),%rax        # 28030 <g_487+0x1d0>
   199d9:	48 89 85 b8 eb ff ff 	mov    %rax,-0x1448(%rbp)
   199e0:	48 8d 05 49 e6 00 00 	lea    0xe649(%rip),%rax        # 28030 <g_487+0x1d0>
   199e7:	48 89 85 c0 eb ff ff 	mov    %rax,-0x1440(%rbp)
   199ee:	48 8d 05 3b e6 00 00 	lea    0xe63b(%rip),%rax        # 28030 <g_487+0x1d0>
   199f5:	48 89 85 c8 eb ff ff 	mov    %rax,-0x1438(%rbp)
   199fc:	48 8d 05 2d e6 00 00 	lea    0xe62d(%rip),%rax        # 28030 <g_487+0x1d0>
   19a03:	48 89 85 d0 eb ff ff 	mov    %rax,-0x1430(%rbp)
   19a0a:	48 8d 05 1f e6 00 00 	lea    0xe61f(%rip),%rax        # 28030 <g_487+0x1d0>
   19a11:	48 89 85 d8 eb ff ff 	mov    %rax,-0x1428(%rbp)
   19a18:	8b 05 7a c8 00 00    	mov    0xc87a(%rip),%eax        # 26298 <g_528>
   19a1e:	0f b7 d8             	movzwl %ax,%ebx
   19a21:	8b 85 2c e9 ff ff    	mov    -0x16d4(%rbp),%eax
   19a27:	35 1b 26 00 00       	xor    $0x261b,%eax
   19a2c:	41 89 c6             	mov    %eax,%r14d
   19a2f:	48 8b 05 ca e3 00 00 	mov    0xe3ca(%rip),%rax        # 27e00 <g_87>
   19a36:	0f b6 00             	movzbl (%rax),%eax
   19a39:	44 0f b6 e0          	movzbl %al,%r12d
   19a3d:	8b 85 2c e9 ff ff    	mov    -0x16d4(%rbp),%eax
   19a43:	4c 63 e8             	movslq %eax,%r13
   19a46:	8b 85 28 e9 ff ff    	mov    -0x16d8(%rbp),%eax
   19a4c:	48 98                	cltq   
   19a4e:	48 89 c6             	mov    %rax,%rsi
   19a51:	bf 08 00 00 00       	mov    $0x8,%edi
   19a56:	e8 f0 35 ff ff       	callq  d04b <safe_sub_func_uint64_t_u_u>
   19a5b:	4c 89 ee             	mov    %r13,%rsi
   19a5e:	48 89 c7             	mov    %rax,%rdi
   19a61:	e8 49 36 ff ff       	callq  d0af <safe_div_func_uint64_t_u_u>
   19a66:	be 00 00 00 00       	mov    $0x0,%esi
   19a6b:	48 89 c7             	mov    %rax,%rdi
   19a6e:	e8 ce 2d ff ff       	callq  c841 <safe_add_func_int64_t_s_s>
   19a73:	48 8b 15 ae e3 00 00 	mov    0xe3ae(%rip),%rdx        # 27e28 <g_433>
   19a7a:	8b 12                	mov    (%rdx),%edx
   19a7c:	21 c2                	and    %eax,%edx
   19a7e:	48 8b 05 a3 e3 00 00 	mov    0xe3a3(%rip),%rax        # 27e28 <g_433>
   19a85:	89 10                	mov    %edx,(%rax)
   19a87:	8b 10                	mov    (%rax),%edx
   19a89:	8b 85 28 e9 ff ff    	mov    -0x16d8(%rbp),%eax
   19a8f:	09 c2                	or     %eax,%edx
   19a91:	0f be 85 32 e9 ff ff 	movsbl -0x16ce(%rbp),%eax
   19a98:	39 c2                	cmp    %eax,%edx
   19a9a:	0f 92 c0             	setb   %al
   19a9d:	0f b6 c0             	movzbl %al,%eax
   19aa0:	44 89 e6             	mov    %r12d,%esi
   19aa3:	89 c7                	mov    %eax,%edi
   19aa5:	e8 04 31 ff ff       	callq  cbae <safe_mod_func_uint8_t_u_u>
   19aaa:	48 8b 95 e8 e9 ff ff 	mov    -0x1618(%rbp),%rdx
   19ab1:	48 8b 12             	mov    (%rdx),%rdx
   19ab4:	0f b6 c0             	movzbl %al,%eax
   19ab7:	48 31 c2             	xor    %rax,%rdx
   19aba:	48 8b 85 e8 e9 ff ff 	mov    -0x1618(%rbp),%rax
   19ac1:	48 89 10             	mov    %rdx,(%rax)
   19ac4:	c7 85 74 e9 ff ff 01 	movl   $0x1,-0x168c(%rbp)
   19acb:	00 00 00 
   19ace:	44 39 b5 74 e9 ff ff 	cmp    %r14d,-0x168c(%rbp)
   19ad5:	0f 9e c0             	setle  %al
   19ad8:	0f b6 d0             	movzbl %al,%edx
   19adb:	8b 85 44 e9 ff ff    	mov    -0x16bc(%rbp),%eax
   19ae1:	98                   	cwtl   
   19ae2:	89 d6                	mov    %edx,%esi
   19ae4:	89 c7                	mov    %eax,%edi
   19ae6:	e8 0a 29 ff ff       	callq  c3f5 <safe_mul_func_int16_t_s_s>
   19aeb:	8b 05 bf c7 00 00    	mov    0xc7bf(%rip),%eax        # 262b0 <g_766>
   19af1:	85 c0                	test   %eax,%eax
   19af3:	90                   	nop
   19af4:	83 bd 28 e9 ff ff 00 	cmpl   $0x0,-0x16d8(%rbp)
   19afb:	66 0f be 95 32 e9 ff 	movsbw -0x16ce(%rbp),%dx
   19b02:	ff 
   19b03:	48 8b 85 18 ea ff ff 	mov    -0x15e8(%rbp),%rax
   19b0a:	66 89 10             	mov    %dx,(%rax)
   19b0d:	48 8b 85 18 ea ff ff 	mov    -0x15e8(%rbp),%rax
   19b14:	0f b7 00             	movzwl (%rax),%eax
   19b17:	0f b7 c0             	movzwl %ax,%eax
   19b1a:	89 de                	mov    %ebx,%esi
   19b1c:	89 c7                	mov    %eax,%edi
   19b1e:	e8 dc 31 ff ff       	callq  ccff <safe_add_func_uint16_t_u_u>
   19b23:	0f b7 d0             	movzwl %ax,%edx
   19b26:	0f be 85 32 e9 ff ff 	movsbl -0x16ce(%rbp),%eax
   19b2d:	39 c2                	cmp    %eax,%edx
   19b2f:	7f 15                	jg     19b46 <func_26+0x1263>
   19b31:	c7 85 8c e9 ff ff 1b 	movl   $0xe1a5e41b,-0x1674(%rbp)
   19b38:	e4 a5 e1 
   19b3b:	8b 85 8c e9 ff ff    	mov    -0x1674(%rbp),%eax
   19b41:	e9 66 08 00 00       	jmpq   1a3ac <func_26+0x1ac9>
   19b46:	48 b8 37 25 33 3b e2 	movabs $0x7fb86ce23b332537,%rax
   19b4d:	6c b8 7f 
   19b50:	48 89 85 20 ea ff ff 	mov    %rax,-0x15e0(%rbp)
   19b57:	8b 85 b8 ed ff ff    	mov    -0x1248(%rbp),%eax
   19b5d:	0f b7 d0             	movzwl %ax,%edx
   19b60:	8b 85 28 e9 ff ff    	mov    -0x16d8(%rbp),%eax
   19b66:	0f b7 c0             	movzwl %ax,%eax
   19b69:	89 d6                	mov    %edx,%esi
   19b6b:	89 c7                	mov    %eax,%edi
   19b6d:	e8 cb 31 ff ff       	callq  cd3d <safe_mul_func_uint16_t_u_u>
   19b72:	0f b7 c0             	movzwl %ax,%eax
   19b75:	33 85 28 e9 ff ff    	xor    -0x16d8(%rbp),%eax
   19b7b:	83 f0 70             	xor    $0x70,%eax
   19b7e:	0b 85 28 e9 ff ff    	or     -0x16d8(%rbp),%eax
   19b84:	48 98                	cltq   
   19b86:	48 89 85 20 ea ff ff 	mov    %rax,-0x15e0(%rbp)
   19b8d:	48 81 bd 20 ea ff ff 	cmpq   $0xfe,-0x15e0(%rbp)
   19b94:	fe 00 00 00 
   19b98:	0f 96 c0             	setbe  %al
   19b9b:	0f b6 c0             	movzbl %al,%eax
   19b9e:	be ff ff 00 00       	mov    $0xffff,%esi
   19ba3:	89 c7                	mov    %eax,%edi
   19ba5:	e8 55 31 ff ff       	callq  ccff <safe_add_func_uint16_t_u_u>
   19baa:	be 08 00 00 00       	mov    $0x8,%esi
   19baf:	bf 00 00 00 00       	mov    $0x0,%edi
   19bb4:	e8 6c 33 ff ff       	callq  cf25 <safe_div_func_uint32_t_u_u>
   19bb9:	98                   	cwtl   
   19bba:	be 5b 18 00 00       	mov    $0x185b,%esi
   19bbf:	89 c7                	mov    %eax,%edi
   19bc1:	e8 50 28 ff ff       	callq  c416 <safe_mod_func_int16_t_s_s>
   19bc6:	98                   	cwtl   
   19bc7:	89 85 4c e9 ff ff    	mov    %eax,-0x16b4(%rbp)
   19bcd:	c7 05 6d c6 00 00 00 	movl   $0x0,0xc66d(%rip)        # 26244 <g_390>
   19bd4:	00 00 00 
   19bd7:	e9 23 06 00 00       	jmpq   1a1ff <func_26+0x191c>
   19bdc:	c7 85 84 e9 ff ff 8a 	movl   $0x3a5e9f8a,-0x167c(%rbp)
   19be3:	9f 5e 3a 
   19be6:	66 c7 85 3a e9 ff ff 	movw   $0xe1f4,-0x16c6(%rbp)
   19bed:	f4 e1 
   19bef:	c7 85 50 e9 ff ff 00 	movl   $0x0,-0x16b0(%rbp)
   19bf6:	00 00 00 
   19bf9:	eb 1a                	jmp    19c15 <func_26+0x1332>
   19bfb:	8b 85 50 e9 ff ff    	mov    -0x16b0(%rbp),%eax
   19c01:	48 98                	cltq   
   19c03:	c7 84 85 80 ea ff ff 	movl   $0x1,-0x1580(%rbp,%rax,4)
   19c0a:	01 00 00 00 
   19c0e:	83 85 50 e9 ff ff 01 	addl   $0x1,-0x16b0(%rbp)
   19c15:	83 bd 50 e9 ff ff 03 	cmpl   $0x3,-0x16b0(%rbp)
   19c1c:	7e dd                	jle    19bfb <func_26+0x1318>
   19c1e:	48 8d 05 23 e2 00 00 	lea    0xe223(%rip),%rax        # 27e48 <g_489>
   19c25:	48 8b 00             	mov    (%rax),%rax
   19c28:	48 c7 00 00 00 00 00 	movq   $0x0,(%rax)
   19c2f:	8b 85 2c e9 ff ff    	mov    -0x16d4(%rbp),%eax
   19c35:	44 0f bf e0          	movswl %ax,%r12d
   19c39:	8b 85 28 e9 ff ff    	mov    -0x16d8(%rbp),%eax
   19c3f:	44 0f be e8          	movsbl %al,%r13d
   19c43:	8b 05 67 c4 00 00    	mov    0xc467(%rip),%eax        # 260b0 <g_24+0x10>
   19c49:	89 85 24 e9 ff ff    	mov    %eax,-0x16dc(%rbp)
   19c4f:	44 0f be b5 31 e9 ff 	movsbl -0x16cf(%rbp),%r14d
   19c56:	ff 
   19c57:	8b 85 2c e9 ff ff    	mov    -0x16d4(%rbp),%eax
   19c5d:	33 85 28 e9 ff ff    	xor    -0x16d8(%rbp),%eax
   19c63:	21 85 4c e9 ff ff    	and    %eax,-0x16b4(%rbp)
   19c69:	8b 9d 2c e9 ff ff    	mov    -0x16d4(%rbp),%ebx
   19c6f:	44 8b bd 2c e9 ff ff 	mov    -0x16d4(%rbp),%r15d
   19c76:	8b 85 28 e9 ff ff    	mov    -0x16d8(%rbp),%eax
   19c7c:	98                   	cwtl   
   19c7d:	89 85 20 e9 ff ff    	mov    %eax,-0x16e0(%rbp)
   19c83:	8b 85 28 e9 ff ff    	mov    -0x16d8(%rbp),%eax
   19c89:	98                   	cwtl   
   19c8a:	89 c6                	mov    %eax,%esi
   19c8c:	bf 06 96 ff ff       	mov    $0xffff9606,%edi
   19c91:	e8 80 27 ff ff       	callq  c416 <safe_mod_func_int16_t_s_s>
   19c96:	8b 85 28 e9 ff ff    	mov    -0x16d8(%rbp),%eax
   19c9c:	98                   	cwtl   
   19c9d:	8b b5 20 e9 ff ff    	mov    -0x16e0(%rbp),%esi
   19ca3:	89 c7                	mov    %eax,%edi
   19ca5:	e8 6c 27 ff ff       	callq  c416 <safe_mod_func_int16_t_s_s>
   19caa:	98                   	cwtl   
   19cab:	8b 95 2c e9 ff ff    	mov    -0x16d4(%rbp),%edx
   19cb1:	89 d6                	mov    %edx,%esi
   19cb3:	89 c7                	mov    %eax,%edi
   19cb5:	e8 fc 28 ff ff       	callq  c5b6 <safe_add_func_int32_t_s_s>
   19cba:	83 bd 6c e9 ff ff ff 	cmpl   $0xffffffff,-0x1694(%rbp)
   19cc1:	83 bd 28 e9 ff ff 00 	cmpl   $0x0,-0x16d8(%rbp)
   19cc8:	74 10                	je     19cda <func_26+0x13f7>
   19cca:	83 bd 28 e9 ff ff 00 	cmpl   $0x0,-0x16d8(%rbp)
   19cd1:	74 07                	je     19cda <func_26+0x13f7>
   19cd3:	b8 01 00 00 00       	mov    $0x1,%eax
   19cd8:	eb 05                	jmp    19cdf <func_26+0x13fc>
   19cda:	b8 00 00 00 00       	mov    $0x0,%eax
   19cdf:	33 85 2c e9 ff ff    	xor    -0x16d4(%rbp),%eax
   19ce5:	39 85 2c e9 ff ff    	cmp    %eax,-0x16d4(%rbp)
   19ceb:	0f 9e c0             	setle  %al
   19cee:	0f b6 c0             	movzbl %al,%eax
   19cf1:	39 85 28 e9 ff ff    	cmp    %eax,-0x16d8(%rbp)
   19cf7:	0f 9d c0             	setge  %al
   19cfa:	0f b6 c0             	movzbl %al,%eax
   19cfd:	39 85 28 e9 ff ff    	cmp    %eax,-0x16d8(%rbp)
   19d03:	0f 9d c0             	setge  %al
   19d06:	0f b6 d0             	movzbl %al,%edx
   19d09:	48 8b 85 18 ea ff ff 	mov    -0x15e8(%rbp),%rax
   19d10:	66 89 10             	mov    %dx,(%rax)
   19d13:	48 8b 85 18 ea ff ff 	mov    -0x15e8(%rbp),%rax
   19d1a:	0f b7 00             	movzwl (%rax),%eax
   19d1d:	0f b7 c0             	movzwl %ax,%eax
   19d20:	44 89 fe             	mov    %r15d,%esi
   19d23:	89 c7                	mov    %eax,%edi
   19d25:	e8 dc 30 ff ff       	callq  ce06 <safe_lshift_func_uint16_t_u_u>
   19d2a:	66 3d bc 00          	cmp    $0xbc,%ax
   19d2e:	0f 97 c0             	seta   %al
   19d31:	89 c2                	mov    %eax,%edx
   19d33:	8b 85 70 e9 ff ff    	mov    -0x1690(%rbp),%eax
   19d39:	21 d0                	and    %edx,%eax
   19d3b:	0f be c0             	movsbl %al,%eax
   19d3e:	89 de                	mov    %ebx,%esi
   19d40:	89 c7                	mov    %eax,%edi
   19d42:	e8 25 26 ff ff       	callq  c36c <safe_rshift_func_int8_t_s_u>
   19d47:	0f be c0             	movsbl %al,%eax
   19d4a:	39 85 28 e9 ff ff    	cmp    %eax,-0x16d8(%rbp)
   19d50:	0f 9f c0             	setg   %al
   19d53:	0f b6 c0             	movzbl %al,%eax
   19d56:	be 4a fd 00 00       	mov    $0xfd4a,%esi
   19d5b:	89 c7                	mov    %eax,%edi
   19d5d:	e8 fa 2f ff ff       	callq  cd5c <safe_mod_func_uint16_t_u_u>
   19d62:	0f be c0             	movsbl %al,%eax
   19d65:	48 8b 1d ac e0 00 00 	mov    0xe0ac(%rip),%rbx        # 27e18 <g_410>
   19d6c:	be 07 00 00 00       	mov    $0x7,%esi
   19d71:	89 c7                	mov    %eax,%edi
   19d73:	e8 9a 24 ff ff       	callq  c212 <safe_mul_func_int8_t_s_s>
   19d78:	88 03                	mov    %al,(%rbx)
   19d7a:	0f b6 03             	movzbl (%rbx),%eax
   19d7d:	0f be c0             	movsbl %al,%eax
   19d80:	be 05 00 00 00       	mov    $0x5,%esi
   19d85:	89 c7                	mov    %eax,%edi
   19d87:	e8 e0 25 ff ff       	callq  c36c <safe_rshift_func_int8_t_s_u>
   19d8c:	66 98                	cbtw   
   19d8e:	0f b7 d0             	movzwl %ax,%edx
   19d91:	8b 85 84 e9 ff ff    	mov    -0x167c(%rbp),%eax
   19d97:	0f b7 c0             	movzwl %ax,%eax
   19d9a:	89 d6                	mov    %edx,%esi
   19d9c:	89 c7                	mov    %eax,%edi
   19d9e:	e8 5c 2f ff ff       	callq  ccff <safe_add_func_uint16_t_u_u>
   19da3:	8b 85 2c e9 ff ff    	mov    -0x16d4(%rbp),%eax
   19da9:	0f b6 c0             	movzbl %al,%eax
   19dac:	44 89 f6             	mov    %r14d,%esi
   19daf:	89 c7                	mov    %eax,%edi
   19db1:	e8 d7 2e ff ff       	callq  cc8d <safe_rshift_func_uint8_t_u_s>
   19db6:	0f be c0             	movsbl %al,%eax
   19db9:	8b b5 24 e9 ff ff    	mov    -0x16dc(%rbp),%esi
   19dbf:	89 c7                	mov    %eax,%edi
   19dc1:	e8 db 24 ff ff       	callq  c2a1 <safe_lshift_func_int8_t_s_s>
   19dc6:	8b 95 2c e9 ff ff    	mov    -0x16d4(%rbp),%edx
   19dcc:	8b 85 2c e9 ff ff    	mov    -0x16d4(%rbp),%eax
   19dd2:	89 d6                	mov    %edx,%esi
   19dd4:	89 c7                	mov    %eax,%edi
   19dd6:	e8 24 29 ff ff       	callq  c6ff <safe_div_func_int32_t_s_s>
   19ddb:	0f be c0             	movsbl %al,%eax
   19dde:	44 89 ee             	mov    %r13d,%esi
   19de1:	89 c7                	mov    %eax,%edi
   19de3:	e8 82 24 ff ff       	callq  c26a <safe_div_func_int8_t_s_s>
   19de8:	0f be c0             	movsbl %al,%eax
   19deb:	44 89 e6             	mov    %r12d,%esi
   19dee:	89 c7                	mov    %eax,%edi
   19df0:	e8 be 25 ff ff       	callq  c3b3 <safe_add_func_int16_t_s_s>
   19df5:	98                   	cwtl   
   19df6:	39 85 6c e9 ff ff    	cmp    %eax,-0x1694(%rbp)
   19dfc:	0f 9d c0             	setge  %al
   19dff:	0f b6 d0             	movzbl %al,%edx
   19e02:	48 8b 05 2f e0 00 00 	mov    0xe02f(%rip),%rax        # 27e38 <g_480>
   19e09:	48 8b 00             	mov    (%rax),%rax
   19e0c:	0f b7 00             	movzwl (%rax),%eax
   19e0f:	98                   	cwtl   
   19e10:	89 d6                	mov    %edx,%esi
   19e12:	89 c7                	mov    %eax,%edi
   19e14:	e8 9a 25 ff ff       	callq  c3b3 <safe_add_func_int16_t_s_s>
   19e19:	0f b7 d0             	movzwl %ax,%edx
   19e1c:	8b 05 8a c4 00 00    	mov    0xc48a(%rip),%eax        # 262ac <g_680>
   19e22:	0f b7 c0             	movzwl %ax,%eax
   19e25:	89 d6                	mov    %edx,%esi
   19e27:	89 c7                	mov    %eax,%edi
   19e29:	e8 60 2f ff ff       	callq  cd8e <safe_div_func_uint16_t_u_u>
   19e2e:	0f b7 c0             	movzwl %ax,%eax
   19e31:	48 89 c7             	mov    %rax,%rdi
   19e34:	e8 e0 31 ff ff       	callq  d019 <safe_unary_minus_func_uint64_t_u>
   19e39:	48 3d f7 ff 00 00    	cmp    $0xfff7,%rax
   19e3f:	0f 96 c0             	setbe  %al
   19e42:	0f b6 d0             	movzbl %al,%edx
   19e45:	0f be 85 31 e9 ff ff 	movsbl -0x16cf(%rbp),%eax
   19e4c:	39 c2                	cmp    %eax,%edx
   19e4e:	0f 95 c0             	setne  %al
   19e51:	0f b6 d0             	movzbl %al,%edx
   19e54:	8b 85 84 e9 ff ff    	mov    -0x167c(%rbp),%eax
   19e5a:	48 89 d6             	mov    %rdx,%rsi
   19e5d:	48 89 c7             	mov    %rax,%rdi
   19e60:	e8 dc 29 ff ff       	callq  c841 <safe_add_func_int64_t_s_s>
   19e65:	0f b6 c0             	movzbl %al,%eax
   19e68:	be 73 00 00 00       	mov    $0x73,%esi
   19e6d:	89 c7                	mov    %eax,%edi
   19e6f:	e8 1f 2d ff ff       	callq  cb93 <safe_mul_func_uint8_t_u_u>
   19e74:	66 83 bd 3a e9 ff ff 	cmpw   $0x0,-0x16c6(%rbp)
   19e7b:	00 
   19e7c:	0f 84 03 02 00 00    	je     1a085 <func_26+0x17a2>
   19e82:	c7 85 88 e9 ff ff ff 	movl   $0xffffffff,-0x1678(%rbp)
   19e89:	ff ff ff 
   19e8c:	48 8d 05 dd e9 00 00 	lea    0xe9dd(%rip),%rax        # 28870 <g_986+0x590>
   19e93:	48 89 85 b0 ea ff ff 	mov    %rax,-0x1550(%rbp)
   19e9a:	48 8d 05 cf e9 00 00 	lea    0xe9cf(%rip),%rax        # 28870 <g_986+0x590>
   19ea1:	48 89 85 b8 ea ff ff 	mov    %rax,-0x1548(%rbp)
   19ea8:	48 8d 05 c1 e9 00 00 	lea    0xe9c1(%rip),%rax        # 28870 <g_986+0x590>
   19eaf:	48 89 85 c0 ea ff ff 	mov    %rax,-0x1540(%rbp)
   19eb6:	48 8d 05 b3 e9 00 00 	lea    0xe9b3(%rip),%rax        # 28870 <g_986+0x590>
   19ebd:	48 89 85 c8 ea ff ff 	mov    %rax,-0x1538(%rbp)
   19ec4:	48 8d 85 b0 ea ff ff 	lea    -0x1550(%rbp),%rax
   19ecb:	48 83 c0 18          	add    $0x18,%rax
   19ecf:	48 89 85 38 ea ff ff 	mov    %rax,-0x15c8(%rbp)
   19ed6:	8b 85 28 e9 ff ff    	mov    -0x16d8(%rbp),%eax
   19edc:	48 63 d8             	movslq %eax,%rbx
   19edf:	0f b6 85 31 e9 ff ff 	movzbl -0x16cf(%rbp),%eax
   19ee6:	44 0f b6 e0          	movzbl %al,%r12d
   19eea:	44 8b ad 88 e9 ff ff 	mov    -0x1678(%rbp),%r13d
   19ef1:	8b 85 2c e9 ff ff    	mov    -0x16d4(%rbp),%eax
   19ef7:	0f bf d0             	movswl %ax,%edx
   19efa:	48 8b 05 7f 0f 01 00 	mov    0x10f7f(%rip),%rax        # 2ae80 <g_240+0x10>
   19f01:	89 c1                	mov    %eax,%ecx
   19f03:	8b 05 a7 c3 00 00    	mov    0xc3a7(%rip),%eax        # 262b0 <g_766>
   19f09:	09 c8                	or     %ecx,%eax
   19f0b:	89 05 9f c3 00 00    	mov    %eax,0xc39f(%rip)        # 262b0 <g_766>
   19f11:	66 c7 05 d6 c2 00 00 	movw   $0x759a,0xc2d6(%rip)        # 261f0 <g_218>
   19f18:	9a 75 
   19f1a:	0f b7 05 cf c2 00 00 	movzwl 0xc2cf(%rip),%eax        # 261f0 <g_218>
   19f21:	98                   	cwtl   
   19f22:	89 d6                	mov    %edx,%esi
   19f24:	89 c7                	mov    %eax,%edi
   19f26:	e8 ca 24 ff ff       	callq  c3f5 <safe_mul_func_int16_t_s_s>
   19f2b:	0f bf d0             	movswl %ax,%edx
   19f2e:	0f b7 85 38 e9 ff ff 	movzwl -0x16c8(%rbp),%eax
   19f35:	21 d0                	and    %edx,%eax
   19f37:	85 c0                	test   %eax,%eax
   19f39:	74 10                	je     19f4b <func_26+0x1668>
   19f3b:	83 bd 28 e9 ff ff 00 	cmpl   $0x0,-0x16d8(%rbp)
   19f42:	74 07                	je     19f4b <func_26+0x1668>
   19f44:	b8 01 00 00 00       	mov    $0x1,%eax
   19f49:	eb 05                	jmp    19f50 <func_26+0x166d>
   19f4b:	b8 00 00 00 00       	mov    $0x0,%eax
   19f50:	09 85 44 e9 ff ff    	or     %eax,-0x16bc(%rbp)
   19f56:	8b 95 2c e9 ff ff    	mov    -0x16d4(%rbp),%edx
   19f5c:	8b 85 44 e9 ff ff    	mov    -0x16bc(%rbp),%eax
   19f62:	89 d6                	mov    %edx,%esi
   19f64:	89 c7                	mov    %eax,%edi
   19f66:	e8 94 27 ff ff       	callq  c6ff <safe_div_func_int32_t_s_s>
   19f6b:	83 bd 2c e9 ff ff 00 	cmpl   $0x0,-0x16d4(%rbp)
   19f72:	74 10                	je     19f84 <func_26+0x16a1>
   19f74:	83 bd 4c e9 ff ff 00 	cmpl   $0x0,-0x16b4(%rbp)
   19f7b:	74 07                	je     19f84 <func_26+0x16a1>
   19f7d:	b8 01 00 00 00       	mov    $0x1,%eax
   19f82:	eb 05                	jmp    19f89 <func_26+0x16a6>
   19f84:	b8 00 00 00 00       	mov    $0x0,%eax
   19f89:	44 89 ee             	mov    %r13d,%esi
   19f8c:	89 c7                	mov    %eax,%edi
   19f8e:	e8 72 26 ff ff       	callq  c605 <safe_sub_func_int32_t_s_s>
   19f93:	85 c0                	test   %eax,%eax
   19f95:	8b 85 2c e9 ff ff    	mov    -0x16d4(%rbp),%eax
   19f9b:	0f b7 d0             	movzwl %ax,%edx
   19f9e:	8b 85 2c e9 ff ff    	mov    -0x16d4(%rbp),%eax
   19fa4:	0f b7 c0             	movzwl %ax,%eax
   19fa7:	89 d6                	mov    %edx,%esi
   19fa9:	89 c7                	mov    %eax,%edi
   19fab:	e8 4f 2d ff ff       	callq  ccff <safe_add_func_uint16_t_u_u>
   19fb0:	0f b7 c0             	movzwl %ax,%eax
   19fb3:	be 92 0d f7 10       	mov    $0x10f70d92,%esi
   19fb8:	89 c7                	mov    %eax,%edi
   19fba:	e8 40 27 ff ff       	callq  c6ff <safe_div_func_int32_t_s_s>
   19fbf:	44 89 e6             	mov    %r12d,%esi
   19fc2:	bf 84 00 00 00       	mov    $0x84,%edi
   19fc7:	e8 ac 2b ff ff       	callq  cb78 <safe_sub_func_uint8_t_u_u>
   19fcc:	0f b6 c0             	movzbl %al,%eax
   19fcf:	48 89 c6             	mov    %rax,%rsi
   19fd2:	bf 00 00 00 00       	mov    $0x0,%edi
   19fd7:	e8 52 30 ff ff       	callq  d02e <safe_add_func_uint64_t_u_u>
   19fdc:	b9 01 00 00 00       	mov    $0x1,%ecx
   19fe1:	48 8b 85 18 ea ff ff 	mov    -0x15e8(%rbp),%rax
   19fe8:	0f b7 00             	movzwl (%rax),%eax
   19feb:	89 c2                	mov    %eax,%edx
   19fed:	89 c8                	mov    %ecx,%eax
   19fef:	09 d0                	or     %edx,%eax
   19ff1:	89 c2                	mov    %eax,%edx
   19ff3:	48 8b 85 18 ea ff ff 	mov    -0x15e8(%rbp),%rax
   19ffa:	66 89 10             	mov    %dx,(%rax)
   19ffd:	48 8b 05 14 de 00 00 	mov    0xde14(%rip),%rax        # 27e18 <g_410>
   1a004:	0f b6 00             	movzbl (%rax),%eax
   1a007:	48 0f be c0          	movsbq %al,%rax
   1a00b:	25 e3 00 00 00       	and    $0xe3,%eax
   1a010:	48 89 de             	mov    %rbx,%rsi
   1a013:	48 89 c7             	mov    %rax,%rdi
   1a016:	e8 dc 29 ff ff       	callq  c9f7 <safe_div_func_int64_t_s_s>
   1a01b:	0f bf d0             	movswl %ax,%edx
   1a01e:	8b 85 2c e9 ff ff    	mov    -0x16d4(%rbp),%eax
   1a024:	39 85 88 e9 ff ff    	cmp    %eax,-0x1678(%rbp)
   1a02a:	0f 96 c0             	setbe  %al
   1a02d:	0f b6 c0             	movzbl %al,%eax
   1a030:	89 d6                	mov    %edx,%esi
   1a032:	89 c7                	mov    %eax,%edi
   1a034:	e8 7a 23 ff ff       	callq  c3b3 <safe_add_func_int16_t_s_s>
   1a039:	98                   	cwtl   
   1a03a:	39 85 28 e9 ff ff    	cmp    %eax,-0x16d8(%rbp)
   1a040:	0f 95 c2             	setne  %dl
   1a043:	48 8b 85 c8 e9 ff ff 	mov    -0x1638(%rbp),%rax
   1a04a:	48 8b 00             	mov    (%rax),%rax
   1a04d:	48 8b 00             	mov    (%rax),%rax
   1a050:	48 8b 00             	mov    (%rax),%rax
   1a053:	88 10                	mov    %dl,(%rax)
   1a055:	48 83 bd 38 ea ff ff 	cmpq   $0x0,-0x15c8(%rbp)
   1a05c:	00 
   1a05d:	0f 94 c0             	sete   %al
   1a060:	0f b6 c0             	movzbl %al,%eax
   1a063:	f7 d0                	not    %eax
   1a065:	89 85 4c e9 ff ff    	mov    %eax,-0x16b4(%rbp)
   1a06b:	48 8b 85 a8 e9 ff ff 	mov    -0x1658(%rbp),%rax
   1a072:	8b 10                	mov    (%rax),%edx
   1a074:	48 8b 85 a8 e9 ff ff 	mov    -0x1658(%rbp),%rax
   1a07b:	83 ca 02             	or     $0x2,%edx
   1a07e:	89 10                	mov    %edx,(%rax)
   1a080:	e9 6b 01 00 00       	jmpq   1a1f0 <func_26+0x190d>
   1a085:	48 8d 05 14 c2 00 00 	lea    0xc214(%rip),%rax        # 262a0 <g_548>
   1a08c:	48 89 85 28 ea ff ff 	mov    %rax,-0x15d8(%rbp)
   1a093:	48 8d 05 ae dd 00 00 	lea    0xddae(%rip),%rax        # 27e48 <g_489>
   1a09a:	48 89 85 d0 e9 ff ff 	mov    %rax,-0x1630(%rbp)
   1a0a1:	48 8d 85 d0 e9 ff ff 	lea    -0x1630(%rbp),%rax
   1a0a8:	48 89 85 d8 e9 ff ff 	mov    %rax,-0x1628(%rbp)
   1a0af:	48 8d 85 d8 e9 ff ff 	lea    -0x1628(%rbp),%rax
   1a0b6:	48 89 85 30 ea ff ff 	mov    %rax,-0x15d0(%rbp)
   1a0bd:	48 8b 05 74 dd 00 00 	mov    0xdd74(%rip),%rax        # 27e38 <g_480>
   1a0c4:	48 8b 00             	mov    (%rax),%rax
   1a0c7:	0f b7 00             	movzwl (%rax),%eax
   1a0ca:	0f bf d8             	movswl %ax,%ebx
   1a0cd:	44 8b a5 2c e9 ff ff 	mov    -0x16d4(%rbp),%r12d
   1a0d4:	44 0f be ad 31 e9 ff 	movsbl -0x16cf(%rbp),%r13d
   1a0db:	ff 
   1a0dc:	48 8b 85 18 ea ff ff 	mov    -0x15e8(%rbp),%rax
   1a0e3:	0f b7 00             	movzwl (%rax),%eax
   1a0e6:	8d 50 01             	lea    0x1(%rax),%edx
   1a0e9:	48 8b 85 18 ea ff ff 	mov    -0x15e8(%rbp),%rax
   1a0f0:	66 89 10             	mov    %dx,(%rax)
   1a0f3:	48 8b 85 18 ea ff ff 	mov    -0x15e8(%rbp),%rax
   1a0fa:	0f b7 00             	movzwl (%rax),%eax
   1a0fd:	44 0f b7 f0          	movzwl %ax,%r14d
   1a101:	48 8d 05 f8 dd 00 00 	lea    0xddf8(%rip),%rax        # 27f00 <g_487+0xa0>
   1a108:	48 89 85 b0 eb ff ff 	mov    %rax,-0x1450(%rbp)
   1a10f:	48 8b 85 30 ea ff ff 	mov    -0x15d0(%rbp),%rax
   1a116:	48 89 05 63 ea 00 00 	mov    %rax,0xea63(%rip)        # 28b80 <g_1770+0x40>
   1a11d:	48 8b 05 5c ea 00 00 	mov    0xea5c(%rip),%rax        # 28b80 <g_1770+0x40>
   1a124:	48 8d 15 d5 dd 00 00 	lea    0xddd5(%rip),%rdx        # 27f00 <g_487+0xa0>
   1a12b:	48 39 d0             	cmp    %rdx,%rax
   1a12e:	0f 94 c0             	sete   %al
   1a131:	0f b6 c0             	movzbl %al,%eax
   1a134:	be 00 00 00 00       	mov    $0x0,%esi
   1a139:	89 c7                	mov    %eax,%edi
   1a13b:	e8 f5 21 ff ff       	callq  c335 <safe_rshift_func_int8_t_s_s>
   1a140:	0f be c0             	movsbl %al,%eax
   1a143:	41 39 c6             	cmp    %eax,%r14d
   1a146:	0f 9f c0             	setg   %al
   1a149:	0f b6 c0             	movzbl %al,%eax
   1a14c:	be 0d 00 00 00       	mov    $0xd,%esi
   1a151:	89 c7                	mov    %eax,%edi
   1a153:	e8 66 2c ff ff       	callq  cdbe <safe_lshift_func_uint16_t_u_s>
   1a158:	be 01 00 00 00       	mov    $0x1,%esi
   1a15d:	bf 95 29 00 00       	mov    $0x2995,%edi
   1a162:	e8 d6 2b ff ff       	callq  cd3d <safe_mul_func_uint16_t_u_u>
   1a167:	98                   	cwtl   
   1a168:	44 89 ee             	mov    %r13d,%esi
   1a16b:	89 c7                	mov    %eax,%edi
   1a16d:	e8 83 22 ff ff       	callq  c3f5 <safe_mul_func_int16_t_s_s>
   1a172:	98                   	cwtl   
   1a173:	89 c6                	mov    %eax,%esi
   1a175:	bf 52 39 00 00       	mov    $0x3952,%edi
   1a17a:	e8 97 22 ff ff       	callq  c416 <safe_mod_func_int16_t_s_s>
   1a17f:	98                   	cwtl   
   1a180:	33 85 2c e9 ff ff    	xor    -0x16d4(%rbp),%eax
   1a186:	48 98                	cltq   
   1a188:	83 e0 05             	and    $0x5,%eax
   1a18b:	48 89 c2             	mov    %rax,%rdx
   1a18e:	8b 85 4c e9 ff ff    	mov    -0x16b4(%rbp),%eax
   1a194:	48 98                	cltq   
   1a196:	48 39 c2             	cmp    %rax,%rdx
   1a199:	0f 95 c0             	setne  %al
   1a19c:	0f b6 c0             	movzbl %al,%eax
   1a19f:	44 89 e6             	mov    %r12d,%esi
   1a1a2:	89 c7                	mov    %eax,%edi
   1a1a4:	e8 45 21 ff ff       	callq  c2ee <safe_lshift_func_int8_t_s_u>
   1a1a9:	0f be c0             	movsbl %al,%eax
   1a1ac:	89 de                	mov    %ebx,%esi
   1a1ae:	89 c7                	mov    %eax,%edi
   1a1b0:	e8 a0 22 ff ff       	callq  c455 <safe_div_func_int16_t_s_s>
   1a1b5:	98                   	cwtl   
   1a1b6:	89 c6                	mov    %eax,%esi
   1a1b8:	bf db 8d 00 00       	mov    $0x8ddb,%edi
   1a1bd:	e8 fc 2b ff ff       	callq  cdbe <safe_lshift_func_uint16_t_u_s>
   1a1c2:	0f b7 c0             	movzwl %ax,%eax
   1a1c5:	89 85 7c e9 ff ff    	mov    %eax,-0x1684(%rbp)
   1a1cb:	48 83 bd 28 ea ff ff 	cmpq   $0x0,-0x15d8(%rbp)
   1a1d2:	00 
   1a1d3:	75 09                	jne    1a1de <func_26+0x18fb>
   1a1d5:	83 bd 2c e9 ff ff 00 	cmpl   $0x0,-0x16d4(%rbp)
   1a1dc:	74 07                	je     1a1e5 <func_26+0x1902>
   1a1de:	b8 01 00 00 00       	mov    $0x1,%eax
   1a1e3:	eb 05                	jmp    1a1ea <func_26+0x1907>
   1a1e5:	b8 00 00 00 00       	mov    $0x0,%eax
   1a1ea:	89 85 80 ea ff ff    	mov    %eax,-0x1580(%rbp)
   1a1f0:	8b 05 4e c0 00 00    	mov    0xc04e(%rip),%eax        # 26244 <g_390>
   1a1f6:	83 c0 01             	add    $0x1,%eax
   1a1f9:	89 05 45 c0 00 00    	mov    %eax,0xc045(%rip)        # 26244 <g_390>
   1a1ff:	8b 05 3f c0 00 00    	mov    0xc03f(%rip),%eax        # 26244 <g_390>
   1a205:	83 f8 03             	cmp    $0x3,%eax
   1a208:	0f 86 ce f9 ff ff    	jbe    19bdc <func_26+0x12f9>
   1a20e:	48 8b 05 2b dc 00 00 	mov    0xdc2b(%rip),%rax        # 27e40 <g_479>
   1a215:	48 8b 00             	mov    (%rax),%rax
   1a218:	48 8b 00             	mov    (%rax),%rax
   1a21b:	0f b7 00             	movzwl (%rax),%eax
   1a21e:	66 85 c0             	test   %ax,%ax
   1a221:	0f 84 17 01 00 00    	je     1a33e <func_26+0x1a5b>
   1a227:	0f b7 85 36 e9 ff ff 	movzwl -0x16ca(%rbp),%eax
   1a22e:	8b 95 28 e9 ff ff    	mov    -0x16d8(%rbp),%edx
   1a234:	89 d6                	mov    %edx,%esi
   1a236:	89 c7                	mov    %eax,%edi
   1a238:	e8 c2 24 ff ff       	callq  c6ff <safe_div_func_int32_t_s_s>
   1a23d:	0f b6 c0             	movzbl %al,%eax
   1a240:	be ed 00 00 00       	mov    $0xed,%esi
   1a245:	89 c7                	mov    %eax,%edi
   1a247:	e8 47 29 ff ff       	callq  cb93 <safe_mul_func_uint8_t_u_u>
   1a24c:	0f b6 c0             	movzbl %al,%eax
   1a24f:	48 be ac 71 b7 ca 2c 	movabs $0x1e9ce62ccab771ac,%rsi
   1a256:	e6 9c 1e 
   1a259:	48 89 c7             	mov    %rax,%rdi
   1a25c:	e8 ea 2d ff ff       	callq  d04b <safe_sub_func_uint64_t_u_u>
   1a261:	48 85 c0             	test   %rax,%rax
   1a264:	74 15                	je     1a27b <func_26+0x1998>
   1a266:	48 8b 05 93 db 00 00 	mov    0xdb93(%rip),%rax        # 27e00 <g_87>
   1a26d:	0f b6 00             	movzbl (%rax),%eax
   1a270:	84 c0                	test   %al,%al
   1a272:	74 07                	je     1a27b <func_26+0x1998>
   1a274:	ba 01 00 00 00       	mov    $0x1,%edx
   1a279:	eb 05                	jmp    1a280 <func_26+0x199d>
   1a27b:	ba 00 00 00 00       	mov    $0x0,%edx
   1a280:	0f b6 05 42 c0 00 00 	movzbl 0xc042(%rip),%eax        # 262c9 <g_1299>
   1a287:	0f be c0             	movsbl %al,%eax
   1a28a:	39 c2                	cmp    %eax,%edx
   1a28c:	0f 95 c0             	setne  %al
   1a28f:	0f b6 c0             	movzbl %al,%eax
   1a292:	89 05 18 c0 00 00    	mov    %eax,0xc018(%rip)        # 262b0 <g_766>
   1a298:	8b 85 28 e9 ff ff    	mov    -0x16d8(%rbp),%eax
   1a29e:	89 85 80 e9 ff ff    	mov    %eax,-0x1680(%rbp)
   1a2a4:	8b 85 e0 ea ff ff    	mov    -0x1520(%rbp),%eax
   1a2aa:	33 85 28 e9 ff ff    	xor    -0x16d8(%rbp),%eax
   1a2b0:	89 85 e0 ea ff ff    	mov    %eax,-0x1520(%rbp)
   1a2b6:	8b 95 e0 ea ff ff    	mov    -0x1520(%rbp),%edx
   1a2bc:	0f b6 85 31 e9 ff ff 	movzbl -0x16cf(%rbp),%eax
   1a2c3:	3c 01                	cmp    $0x1,%al
   1a2c5:	0f 96 c0             	setbe  %al
   1a2c8:	0f b6 c8             	movzbl %al,%ecx
   1a2cb:	83 bd 2c e9 ff ff 00 	cmpl   $0x0,-0x16d4(%rbp)
   1a2d2:	0f 9e c0             	setle  %al
   1a2d5:	0f b6 c0             	movzbl %al,%eax
   1a2d8:	39 c1                	cmp    %eax,%ecx
   1a2da:	0f 9e c0             	setle  %al
   1a2dd:	0f b6 c0             	movzbl %al,%eax
   1a2e0:	09 d0                	or     %edx,%eax
   1a2e2:	85 c0                	test   %eax,%eax
   1a2e4:	75 09                	jne    1a2ef <func_26+0x1a0c>
   1a2e6:	83 bd 2c e9 ff ff 00 	cmpl   $0x0,-0x16d4(%rbp)
   1a2ed:	74 07                	je     1a2f6 <func_26+0x1a13>
   1a2ef:	b8 01 00 00 00       	mov    $0x1,%eax
   1a2f4:	eb 05                	jmp    1a2fb <func_26+0x1a18>
   1a2f6:	b8 00 00 00 00       	mov    $0x0,%eax
   1a2fb:	0f b6 d0             	movzbl %al,%edx
   1a2fe:	48 8b 05 13 e8 00 00 	mov    0xe813(%rip),%rax        # 28b18 <g_1560>
   1a305:	48 8b 00             	mov    (%rax),%rax
   1a308:	48 8b 00             	mov    (%rax),%rax
   1a30b:	48 8b 00             	mov    (%rax),%rax
   1a30e:	48 85 c0             	test   %rax,%rax
   1a311:	0f 95 c0             	setne  %al
   1a314:	0f b6 c0             	movzbl %al,%eax
   1a317:	89 d6                	mov    %edx,%esi
   1a319:	89 c7                	mov    %eax,%edi
   1a31b:	e8 bb 28 ff ff       	callq  cbdb <safe_div_func_uint8_t_u_u>
   1a320:	0f b6 c0             	movzbl %al,%eax
   1a323:	8b 95 28 e9 ff ff    	mov    -0x16d8(%rbp),%edx
   1a329:	89 d6                	mov    %edx,%esi
   1a32b:	89 c7                	mov    %eax,%edi
   1a32d:	e8 60 21 ff ff       	callq  c492 <safe_lshift_func_int16_t_s_s>
   1a332:	66 85 c0             	test   %ax,%ax
   1a335:	74 07                	je     1a33e <func_26+0x1a5b>
   1a337:	b8 01 00 00 00       	mov    $0x1,%eax
   1a33c:	eb 05                	jmp    1a343 <func_26+0x1a60>
   1a33e:	b8 00 00 00 00       	mov    $0x0,%eax
   1a343:	89 c2                	mov    %eax,%edx
   1a345:	8b 85 2c e9 ff ff    	mov    -0x16d4(%rbp),%eax
   1a34b:	0f be c0             	movsbl %al,%eax
   1a34e:	89 d6                	mov    %edx,%esi
   1a350:	89 c7                	mov    %eax,%edi
   1a352:	e8 97 1f ff ff       	callq  c2ee <safe_lshift_func_int8_t_s_u>
   1a357:	48 8b 95 a8 e9 ff ff 	mov    -0x1658(%rbp),%rdx
   1a35e:	8b 0a                	mov    (%rdx),%ecx
   1a360:	0f be d0             	movsbl %al,%edx
   1a363:	48 8b 85 a8 e9 ff ff 	mov    -0x1658(%rbp),%rax
   1a36a:	21 ca                	and    %ecx,%edx
   1a36c:	89 10                	mov    %edx,(%rax)
   1a36e:	0f b7 05 b9 be 00 00 	movzwl 0xbeb9(%rip),%eax        # 2622e <g_287>
   1a375:	83 c0 01             	add    $0x1,%eax
   1a378:	66 89 05 af be 00 00 	mov    %ax,0xbeaf(%rip)        # 2622e <g_287>
   1a37f:	0f b7 05 a8 be 00 00 	movzwl 0xbea8(%rip),%eax        # 2622e <g_287>
   1a386:	66 83 f8 03          	cmp    $0x3,%ax
   1a38a:	0f 86 83 f5 ff ff    	jbe    19913 <func_26+0x1030>
   1a390:	83 85 48 e9 ff ff 01 	addl   $0x1,-0x16b8(%rbp)
   1a397:	83 bd 48 e9 ff ff 09 	cmpl   $0x9,-0x16b8(%rbp)
   1a39e:	0f 8e 46 f5 ff ff    	jle    198ea <func_26+0x1007>
   1a3a4:	8b 85 28 e9 ff ff    	mov    -0x16d8(%rbp),%eax
   1a3aa:	48 98                	cltq   
   1a3ac:	48 8b 5d c8          	mov    -0x38(%rbp),%rbx
   1a3b0:	64 48 33 1c 25 28 00 	xor    %fs:0x28,%rbx
   1a3b7:	00 00 
   1a3b9:	74 05                	je     1a3c0 <func_26+0x1add>
   1a3bb:	e8 b0 1c ff ff       	callq  c070 <__stack_chk_fail@plt>
   1a3c0:	48 81 c4 b8 16 00 00 	add    $0x16b8,%rsp
   1a3c7:	5b                   	pop    %rbx
   1a3c8:	41 5c                	pop    %r12
   1a3ca:	41 5d                	pop    %r13
   1a3cc:	41 5e                	pop    %r14
   1a3ce:	41 5f                	pop    %r15
   1a3d0:	5d                   	pop    %rbp
   1a3d1:	c3                   	retq   

000000000001a3d2 <func_40>:
   1a3d2:	f3 0f 1e fa          	endbr64 
   1a3d6:	55                   	push   %rbp
   1a3d7:	48 89 e5             	mov    %rsp,%rbp
   1a3da:	41 57                	push   %r15
   1a3dc:	41 56                	push   %r14
   1a3de:	41 55                	push   %r13
   1a3e0:	41 54                	push   %r12
   1a3e2:	53                   	push   %rbx
   1a3e3:	48 81 ec 88 0f 00 00 	sub    $0xf88,%rsp
   1a3ea:	89 f8                	mov    %edi,%eax
   1a3ec:	48 89 b5 50 f0 ff ff 	mov    %rsi,-0xfb0(%rbp)
   1a3f3:	89 95 58 f0 ff ff    	mov    %edx,-0xfa8(%rbp)
   1a3f9:	88 85 5c f0 ff ff    	mov    %al,-0xfa4(%rbp)
   1a3ff:	64 48 8b 04 25 28 00 	mov    %fs:0x28,%rax
   1a406:	00 00 
   1a408:	48 89 45 c8          	mov    %rax,-0x38(%rbp)
   1a40c:	31 c0                	xor    %eax,%eax
   1a40e:	c7 85 b4 f0 ff ff 01 	movl   $0x1,-0xf4c(%rbp)
   1a415:	00 00 00 
   1a418:	48 c7 85 70 f6 ff ff 	movq   $0x0,-0x990(%rbp)
   1a41f:	00 00 00 00 
   1a423:	48 8d 05 9e bc 00 00 	lea    0xbc9e(%rip),%rax        # 260c8 <g_56>
   1a42a:	48 89 85 78 f6 ff ff 	mov    %rax,-0x988(%rbp)
   1a431:	48 c7 85 80 f6 ff ff 	movq   $0x0,-0x980(%rbp)
   1a438:	00 00 00 00 
   1a43c:	48 8d 05 85 bc 00 00 	lea    0xbc85(%rip),%rax        # 260c8 <g_56>
   1a443:	48 89 85 88 f6 ff ff 	mov    %rax,-0x978(%rbp)
   1a44a:	48 8d 05 77 bc 00 00 	lea    0xbc77(%rip),%rax        # 260c8 <g_56>
   1a451:	48 89 85 90 f6 ff ff 	mov    %rax,-0x970(%rbp)
   1a458:	48 8d 05 69 bc 00 00 	lea    0xbc69(%rip),%rax        # 260c8 <g_56>
   1a45f:	48 89 85 98 f6 ff ff 	mov    %rax,-0x968(%rbp)
   1a466:	48 c7 85 a0 f6 ff ff 	movq   $0x0,-0x960(%rbp)
   1a46d:	00 00 00 00 
   1a471:	48 8d 05 50 bc 00 00 	lea    0xbc50(%rip),%rax        # 260c8 <g_56>
   1a478:	48 89 85 a8 f6 ff ff 	mov    %rax,-0x958(%rbp)
   1a47f:	48 c7 85 b0 f6 ff ff 	movq   $0x0,-0x950(%rbp)
   1a486:	00 00 00 00 
   1a48a:	48 8d 05 37 bc 00 00 	lea    0xbc37(%rip),%rax        # 260c8 <g_56>
   1a491:	48 89 85 b8 f6 ff ff 	mov    %rax,-0x948(%rbp)
   1a498:	48 8d 05 29 bc 00 00 	lea    0xbc29(%rip),%rax        # 260c8 <g_56>
   1a49f:	48 89 85 c0 f6 ff ff 	mov    %rax,-0x940(%rbp)
   1a4a6:	48 8d 05 1b bc 00 00 	lea    0xbc1b(%rip),%rax        # 260c8 <g_56>
   1a4ad:	48 89 85 c8 f6 ff ff 	mov    %rax,-0x938(%rbp)
   1a4b4:	48 c7 85 d0 f6 ff ff 	movq   $0x0,-0x930(%rbp)
   1a4bb:	00 00 00 00 
   1a4bf:	48 8d 05 02 bc 00 00 	lea    0xbc02(%rip),%rax        # 260c8 <g_56>
   1a4c6:	48 89 85 d8 f6 ff ff 	mov    %rax,-0x928(%rbp)
   1a4cd:	48 c7 85 e0 f6 ff ff 	movq   $0x0,-0x920(%rbp)
   1a4d4:	00 00 00 00 
   1a4d8:	48 8d 05 e9 bb 00 00 	lea    0xbbe9(%rip),%rax        # 260c8 <g_56>
   1a4df:	48 89 85 e8 f6 ff ff 	mov    %rax,-0x918(%rbp)
   1a4e6:	48 8d 05 db bb 00 00 	lea    0xbbdb(%rip),%rax        # 260c8 <g_56>
   1a4ed:	48 89 85 f0 f6 ff ff 	mov    %rax,-0x910(%rbp)
   1a4f4:	48 8d 05 cd bb 00 00 	lea    0xbbcd(%rip),%rax        # 260c8 <g_56>
   1a4fb:	48 89 85 f8 f6 ff ff 	mov    %rax,-0x908(%rbp)
   1a502:	48 c7 85 00 f7 ff ff 	movq   $0x0,-0x900(%rbp)
   1a509:	00 00 00 00 
   1a50d:	48 8d 05 b4 bb 00 00 	lea    0xbbb4(%rip),%rax        # 260c8 <g_56>
   1a514:	48 89 85 08 f7 ff ff 	mov    %rax,-0x8f8(%rbp)
   1a51b:	48 c7 85 10 f7 ff ff 	movq   $0x0,-0x8f0(%rbp)
   1a522:	00 00 00 00 
   1a526:	48 8d 05 9b bb 00 00 	lea    0xbb9b(%rip),%rax        # 260c8 <g_56>
   1a52d:	48 89 85 18 f7 ff ff 	mov    %rax,-0x8e8(%rbp)
   1a534:	48 8d 05 8d bb 00 00 	lea    0xbb8d(%rip),%rax        # 260c8 <g_56>
   1a53b:	48 89 85 20 f7 ff ff 	mov    %rax,-0x8e0(%rbp)
   1a542:	48 8d 05 7f bb 00 00 	lea    0xbb7f(%rip),%rax        # 260c8 <g_56>
   1a549:	48 89 85 28 f7 ff ff 	mov    %rax,-0x8d8(%rbp)
   1a550:	c7 85 60 f3 ff ff be 	movl   $0xf98e47be,-0xca0(%rbp)
   1a557:	47 8e f9 
   1a55a:	c7 85 64 f3 ff ff 01 	movl   $0x1,-0xc9c(%rbp)
   1a561:	00 00 00 
   1a564:	c7 85 68 f3 ff ff be 	movl   $0xf98e47be,-0xc98(%rbp)
   1a56b:	47 8e f9 
   1a56e:	c7 85 6c f3 ff ff ff 	movl   $0xffffffff,-0xc94(%rbp)
   1a575:	ff ff ff 
   1a578:	c7 85 70 f3 ff ff ff 	movl   $0xffffffff,-0xc90(%rbp)
   1a57f:	ff ff ff 
   1a582:	c7 85 74 f3 ff ff ff 	movl   $0xffffffff,-0xc8c(%rbp)
   1a589:	ff ff ff 
   1a58c:	c7 85 78 f3 ff ff be 	movl   $0xf98e47be,-0xc88(%rbp)
   1a593:	47 8e f9 
   1a596:	c7 85 7c f3 ff ff 01 	movl   $0x1,-0xc84(%rbp)
   1a59d:	00 00 00 
   1a5a0:	c7 85 80 f3 ff ff be 	movl   $0xf98e47be,-0xc80(%rbp)
   1a5a7:	47 8e f9 
   1a5aa:	66 c7 85 68 f0 ff ff 	movw   $0xffff,-0xf98(%rbp)
   1a5b1:	ff ff 
   1a5b3:	48 c7 85 08 f1 ff ff 	movq   $0x0,-0xef8(%rbp)
   1a5ba:	00 00 00 00 
   1a5be:	c7 85 80 f0 ff ff 00 	movl   $0x0,-0xf80(%rbp)
   1a5c5:	00 00 00 
   1a5c8:	c7 85 f0 f3 ff ff 00 	movl   $0x0,-0xc10(%rbp)
   1a5cf:	00 00 00 
   1a5d2:	c7 85 f4 f3 ff ff f9 	movl   $0x4ea966f9,-0xc0c(%rbp)
   1a5d9:	66 a9 4e 
   1a5dc:	c7 85 f8 f3 ff ff 2a 	movl   $0xf3c2982a,-0xc08(%rbp)
   1a5e3:	98 c2 f3 
   1a5e6:	c7 85 fc f3 ff ff f9 	movl   $0x4ea966f9,-0xc04(%rbp)
   1a5ed:	66 a9 4e 
   1a5f0:	c7 85 00 f4 ff ff f9 	movl   $0x4ea966f9,-0xc00(%rbp)
   1a5f7:	66 a9 4e 
   1a5fa:	c7 85 04 f4 ff ff 00 	movl   $0x0,-0xbfc(%rbp)
   1a601:	00 00 00 
   1a604:	c7 85 08 f4 ff ff 2a 	movl   $0xf3c2982a,-0xbf8(%rbp)
   1a60b:	98 c2 f3 
   1a60e:	c7 85 0c f4 ff ff 2a 	movl   $0xf3c2982a,-0xbf4(%rbp)
   1a615:	98 c2 f3 
   1a618:	c7 85 10 f4 ff ff 00 	movl   $0x0,-0xbf0(%rbp)
   1a61f:	00 00 00 
   1a622:	c7 85 14 f4 ff ff 00 	movl   $0x0,-0xbec(%rbp)
   1a629:	00 00 00 
   1a62c:	c7 85 18 f4 ff ff f9 	movl   $0x4ea966f9,-0xbe8(%rbp)
   1a633:	66 a9 4e 
   1a636:	c7 85 1c f4 ff ff 2a 	movl   $0xf3c2982a,-0xbe4(%rbp)
   1a63d:	98 c2 f3 
   1a640:	c7 85 b8 f0 ff ff 8e 	movl   $0x646f3c8e,-0xf48(%rbp)
   1a647:	3c 6f 64 
   1a64a:	48 c7 85 90 f4 ff ff 	movq   $0x0,-0xb70(%rbp)
   1a651:	00 00 00 00 
   1a655:	48 8d 05 6c dc 00 00 	lea    0xdc6c(%rip),%rax        # 282c8 <g_613>
   1a65c:	48 89 85 98 f4 ff ff 	mov    %rax,-0xb68(%rbp)
   1a663:	48 c7 85 a0 f4 ff ff 	movq   $0x0,-0xb60(%rbp)
   1a66a:	00 00 00 00 
   1a66e:	48 8d 05 53 dc 00 00 	lea    0xdc53(%rip),%rax        # 282c8 <g_613>
   1a675:	48 89 85 a8 f4 ff ff 	mov    %rax,-0xb58(%rbp)
   1a67c:	48 c7 85 b0 f4 ff ff 	movq   $0x0,-0xb50(%rbp)
   1a683:	00 00 00 00 
   1a687:	48 c7 85 b8 f4 ff ff 	movq   $0x0,-0xb48(%rbp)
   1a68e:	00 00 00 00 
   1a692:	48 c7 85 c0 f4 ff ff 	movq   $0x0,-0xb40(%rbp)
   1a699:	00 00 00 00 
   1a69d:	48 c7 85 c8 f4 ff ff 	movq   $0x0,-0xb38(%rbp)
   1a6a4:	00 00 00 00 
   1a6a8:	48 8d 05 19 dc 00 00 	lea    0xdc19(%rip),%rax        # 282c8 <g_613>
   1a6af:	48 89 85 d0 f4 ff ff 	mov    %rax,-0xb30(%rbp)
   1a6b6:	48 8d 05 0b dc 00 00 	lea    0xdc0b(%rip),%rax        # 282c8 <g_613>
   1a6bd:	48 89 85 d8 f4 ff ff 	mov    %rax,-0xb28(%rbp)
   1a6c4:	48 8d 05 fd db 00 00 	lea    0xdbfd(%rip),%rax        # 282c8 <g_613>
   1a6cb:	48 89 85 e0 f4 ff ff 	mov    %rax,-0xb20(%rbp)
   1a6d2:	48 c7 85 e8 f4 ff ff 	movq   $0x0,-0xb18(%rbp)
   1a6d9:	00 00 00 00 
   1a6dd:	48 c7 85 f0 f4 ff ff 	movq   $0x0,-0xb10(%rbp)
   1a6e4:	00 00 00 00 
   1a6e8:	48 8d 05 d9 db 00 00 	lea    0xdbd9(%rip),%rax        # 282c8 <g_613>
   1a6ef:	48 89 85 f8 f4 ff ff 	mov    %rax,-0xb08(%rbp)
   1a6f6:	48 c7 85 00 f5 ff ff 	movq   $0x0,-0xb00(%rbp)
   1a6fd:	00 00 00 00 
   1a701:	48 8d 85 00 f3 ff ff 	lea    -0xd00(%rbp),%rax
   1a708:	48 89 85 10 f1 ff ff 	mov    %rax,-0xef0(%rbp)
   1a70f:	48 8d 85 10 f1 ff ff 	lea    -0xef0(%rbp),%rax
   1a716:	48 89 85 90 f1 ff ff 	mov    %rax,-0xe70(%rbp)
   1a71d:	48 8d 05 ec d6 00 00 	lea    0xd6ec(%rip),%rax        # 27e10 <g_396>
   1a724:	48 89 85 18 f1 ff ff 	mov    %rax,-0xee8(%rbp)
   1a72b:	48 8d 85 18 f1 ff ff 	lea    -0xee8(%rbp),%rax
   1a732:	48 89 85 20 f1 ff ff 	mov    %rax,-0xee0(%rbp)
   1a739:	c7 85 bc f0 ff ff 09 	movl   $0x9,-0xf44(%rbp)
   1a740:	00 00 00 
   1a743:	48 8d 05 26 07 01 00 	lea    0x10726(%rip),%rax        # 2ae70 <g_240>
   1a74a:	48 89 85 28 f1 ff ff 	mov    %rax,-0xed8(%rbp)
   1a751:	c6 85 63 f0 ff ff f9 	movb   $0xf9,-0xf9d(%rbp)
   1a758:	48 c7 85 98 f1 ff ff 	movq   $0x0,-0xe68(%rbp)
   1a75f:	00 00 00 00 
   1a763:	48 c7 85 a0 f1 ff ff 	movq   $0x0,-0xe60(%rbp)
   1a76a:	00 00 00 00 
   1a76e:	48 8d 05 9f b9 00 00 	lea    0xb99f(%rip),%rax        # 26114 <g_100+0x34>
   1a775:	48 89 85 a8 f1 ff ff 	mov    %rax,-0xe58(%rbp)
   1a77c:	c7 85 74 f0 ff ff 80 	movl   $0x41a07f80,-0xf8c(%rbp)
   1a783:	7f a0 41 
   1a786:	48 8d 05 db e2 00 00 	lea    0xe2db(%rip),%rax        # 28a68 <g_1019>
   1a78d:	48 89 85 b0 f1 ff ff 	mov    %rax,-0xe50(%rbp)
   1a794:	48 8d 05 7d d6 00 00 	lea    0xd67d(%rip),%rax        # 27e18 <g_410>
   1a79b:	48 89 85 30 f1 ff ff 	mov    %rax,-0xed0(%rbp)
   1a7a2:	c7 85 c0 f0 ff ff 55 	movl   $0x87f8dc55,-0xf40(%rbp)
   1a7a9:	dc f8 87 
   1a7ac:	48 b8 09 e5 04 e2 a8 	movabs $0x7771d7a8e204e509,%rax
   1a7b3:	d7 71 77 
   1a7b6:	48 89 85 b8 f1 ff ff 	mov    %rax,-0xe48(%rbp)
   1a7bd:	c7 85 c4 f0 ff ff 4d 	movl   $0x8058574d,-0xf3c(%rbp)
   1a7c4:	57 58 80 
   1a7c7:	48 8d 85 70 f6 ff ff 	lea    -0x990(%rbp),%rax
   1a7ce:	48 83 c0 08          	add    $0x8,%rax
   1a7d2:	48 89 85 38 f1 ff ff 	mov    %rax,-0xec8(%rbp)
   1a7d9:	48 8d 85 38 f1 ff ff 	lea    -0xec8(%rbp),%rax
   1a7e0:	48 89 85 20 f4 ff ff 	mov    %rax,-0xbe0(%rbp)
   1a7e7:	48 8d 85 38 f1 ff ff 	lea    -0xec8(%rbp),%rax
   1a7ee:	48 89 85 28 f4 ff ff 	mov    %rax,-0xbd8(%rbp)
   1a7f5:	48 8d 85 38 f1 ff ff 	lea    -0xec8(%rbp),%rax
   1a7fc:	48 89 85 30 f4 ff ff 	mov    %rax,-0xbd0(%rbp)
   1a803:	48 8d 85 38 f1 ff ff 	lea    -0xec8(%rbp),%rax
   1a80a:	48 89 85 38 f4 ff ff 	mov    %rax,-0xbc8(%rbp)
   1a811:	48 8d 85 38 f1 ff ff 	lea    -0xec8(%rbp),%rax
   1a818:	48 89 85 40 f4 ff ff 	mov    %rax,-0xbc0(%rbp)
   1a81f:	48 c7 85 48 f4 ff ff 	movq   $0x0,-0xbb8(%rbp)
   1a826:	00 00 00 00 
   1a82a:	48 b8 a4 b4 68 c3 b8 	movabs $0xfd09bbb8c368b4a4,%rax
   1a831:	bb 09 fd 
   1a834:	48 89 85 c0 f1 ff ff 	mov    %rax,-0xe40(%rbp)
   1a83b:	c7 85 78 f0 ff ff 00 	movl   $0x0,-0xf88(%rbp)
   1a842:	00 00 00 
   1a845:	eb 1e                	jmp    1a865 <func_40+0x493>
   1a847:	8b 85 78 f0 ff ff    	mov    -0xf88(%rbp),%eax
   1a84d:	48 98                	cltq   
   1a84f:	48 8d 15 f2 d5 00 00 	lea    0xd5f2(%rip),%rdx        # 27e48 <g_489>
   1a856:	48 89 94 c5 00 f3 ff 	mov    %rdx,-0xd00(%rbp,%rax,8)
   1a85d:	ff 
   1a85e:	83 85 78 f0 ff ff 01 	addl   $0x1,-0xf88(%rbp)
   1a865:	83 bd 78 f0 ff ff 00 	cmpl   $0x0,-0xf88(%rbp)
   1a86c:	7e d9                	jle    1a847 <func_40+0x475>
   1a86e:	c7 85 78 f0 ff ff 00 	movl   $0x0,-0xf88(%rbp)
   1a875:	00 00 00 
   1a878:	eb 1e                	jmp    1a898 <func_40+0x4c6>
   1a87a:	8b 85 78 f0 ff ff    	mov    -0xf88(%rbp),%eax
   1a880:	48 98                	cltq   
   1a882:	48 8d 15 27 ba 00 00 	lea    0xba27(%rip),%rdx        # 262b0 <g_766>
   1a889:	48 89 94 c5 20 f3 ff 	mov    %rdx,-0xce0(%rbp,%rax,8)
   1a890:	ff 
   1a891:	83 85 78 f0 ff ff 01 	addl   $0x1,-0xf88(%rbp)
   1a898:	83 bd 78 f0 ff ff 02 	cmpl   $0x2,-0xf88(%rbp)
   1a89f:	7e d9                	jle    1a87a <func_40+0x4a8>
   1a8a1:	c7 85 78 f0 ff ff 00 	movl   $0x0,-0xf88(%rbp)
   1a8a8:	00 00 00 
   1a8ab:	eb 46                	jmp    1a8f3 <func_40+0x521>
   1a8ad:	c7 85 7c f0 ff ff 00 	movl   $0x0,-0xf84(%rbp)
   1a8b4:	00 00 00 
   1a8b7:	eb 2a                	jmp    1a8e3 <func_40+0x511>
   1a8b9:	8b 85 7c f0 ff ff    	mov    -0xf84(%rbp),%eax
   1a8bf:	48 63 d0             	movslq %eax,%rdx
   1a8c2:	8b 85 78 f0 ff ff    	mov    -0xf88(%rbp),%eax
   1a8c8:	48 98                	cltq   
   1a8ca:	48 01 d0             	add    %rdx,%rax
   1a8cd:	48 8d 15 54 d5 00 00 	lea    0xd554(%rip),%rdx        # 27e28 <g_433>
   1a8d4:	48 89 94 c5 10 f3 ff 	mov    %rdx,-0xcf0(%rbp,%rax,8)
   1a8db:	ff 
   1a8dc:	83 85 7c f0 ff ff 01 	addl   $0x1,-0xf84(%rbp)
   1a8e3:	83 bd 7c f0 ff ff 00 	cmpl   $0x0,-0xf84(%rbp)
   1a8ea:	7e cd                	jle    1a8b9 <func_40+0x4e7>
   1a8ec:	83 85 78 f0 ff ff 01 	addl   $0x1,-0xf88(%rbp)
   1a8f3:	83 bd 78 f0 ff ff 01 	cmpl   $0x1,-0xf88(%rbp)
   1a8fa:	7e b1                	jle    1a8ad <func_40+0x4db>
   1a8fc:	c7 85 78 f0 ff ff 00 	movl   $0x0,-0xf88(%rbp)
   1a903:	00 00 00 
   1a906:	eb 51                	jmp    1a959 <func_40+0x587>
   1a908:	c7 85 7c f0 ff ff 00 	movl   $0x0,-0xf84(%rbp)
   1a90f:	00 00 00 
   1a912:	eb 35                	jmp    1a949 <func_40+0x577>
   1a914:	8b 85 7c f0 ff ff    	mov    -0xf84(%rbp),%eax
   1a91a:	48 63 c8             	movslq %eax,%rcx
   1a91d:	8b 85 78 f0 ff ff    	mov    -0xf88(%rbp),%eax
   1a923:	48 63 d0             	movslq %eax,%rdx
   1a926:	48 89 d0             	mov    %rdx,%rax
   1a929:	48 c1 e0 03          	shl    $0x3,%rax
   1a92d:	48 29 d0             	sub    %rdx,%rax
   1a930:	48 01 c8             	add    %rcx,%rax
   1a933:	48 8d 15 2a b8 00 00 	lea    0xb82a(%rip),%rdx        # 26164 <g_164>
   1a93a:	48 89 94 c5 10 f5 ff 	mov    %rdx,-0xaf0(%rbp,%rax,8)
   1a941:	ff 
   1a942:	83 85 7c f0 ff ff 01 	addl   $0x1,-0xf84(%rbp)
   1a949:	83 bd 7c f0 ff ff 06 	cmpl   $0x6,-0xf84(%rbp)
   1a950:	7e c2                	jle    1a914 <func_40+0x542>
   1a952:	83 85 78 f0 ff ff 01 	addl   $0x1,-0xf88(%rbp)
   1a959:	83 bd 78 f0 ff ff 02 	cmpl   $0x2,-0xf88(%rbp)
   1a960:	7e a6                	jle    1a908 <func_40+0x536>
   1a962:	0f b6 85 5c f0 ff ff 	movzbl -0xfa4(%rbp),%eax
   1a969:	0f be d8             	movsbl %al,%ebx
   1a96c:	8b 85 58 f0 ff ff    	mov    -0xfa8(%rbp),%eax
   1a972:	44 0f b7 e0          	movzwl %ax,%r12d
   1a976:	48 8b 85 50 f0 ff ff 	mov    -0xfb0(%rbp),%rax
   1a97d:	0f b7 d0             	movzwl %ax,%edx
   1a980:	8b 85 58 f0 ff ff    	mov    -0xfa8(%rbp),%eax
   1a986:	0f b7 c0             	movzwl %ax,%eax
   1a989:	89 d6                	mov    %edx,%esi
   1a98b:	89 c7                	mov    %eax,%edi
   1a98d:	e8 ab 23 ff ff       	callq  cd3d <safe_mul_func_uint16_t_u_u>
   1a992:	83 bd b4 f0 ff ff 00 	cmpl   $0x0,-0xf4c(%rbp)
   1a999:	75 09                	jne    1a9a4 <func_40+0x5d2>
   1a99b:	83 bd b4 f0 ff ff 00 	cmpl   $0x0,-0xf4c(%rbp)
   1a9a2:	74 08                	je     1a9ac <func_40+0x5da>
   1a9a4:	41 bd 01 00 00 00    	mov    $0x1,%r13d
   1a9aa:	eb 06                	jmp    1a9b2 <func_40+0x5e0>
   1a9ac:	41 bd 00 00 00 00    	mov    $0x0,%r13d
   1a9b2:	0f b6 05 0f b7 00 00 	movzbl 0xb70f(%rip),%eax        # 260c8 <g_56>
   1a9b9:	0f b6 d0             	movzbl %al,%edx
   1a9bc:	8b 85 60 f3 ff ff    	mov    -0xca0(%rbp),%eax
   1a9c2:	0f b6 c0             	movzbl %al,%eax
   1a9c5:	89 d6                	mov    %edx,%esi
   1a9c7:	89 c7                	mov    %eax,%edi
   1a9c9:	e8 c5 21 ff ff       	callq  cb93 <safe_mul_func_uint8_t_u_u>
   1a9ce:	0f b6 d0             	movzbl %al,%edx
   1a9d1:	0f b7 85 68 f0 ff ff 	movzwl -0xf98(%rbp),%eax
   1a9d8:	66 89 85 68 f0 ff ff 	mov    %ax,-0xf98(%rbp)
   1a9df:	0f b7 85 68 f0 ff ff 	movzwl -0xf98(%rbp),%eax
   1a9e6:	0f b7 c0             	movzwl %ax,%eax
   1a9e9:	39 c2                	cmp    %eax,%edx
   1a9eb:	75 36                	jne    1aa23 <func_40+0x651>
   1a9ed:	0f b6 05 d4 b6 00 00 	movzbl 0xb6d4(%rip),%eax        # 260c8 <g_56>
   1a9f4:	0f be d0             	movsbl %al,%edx
   1a9f7:	8b 05 a7 b6 00 00    	mov    0xb6a7(%rip),%eax        # 260a4 <g_24+0x4>
   1a9fd:	89 c7                	mov    %eax,%edi
   1a9ff:	0f b6 85 5c f0 ff ff 	movzbl -0xfa4(%rbp),%eax
   1aa06:	66 98                	cbtw   
   1aa08:	0f b7 f0             	movzwl %ax,%esi
   1aa0b:	8b 85 60 f3 ff ff    	mov    -0xca0(%rbp),%eax
   1aa11:	48 98                	cltq   
   1aa13:	89 d1                	mov    %edx,%ecx
   1aa15:	89 fa                	mov    %edi,%edx
   1aa17:	48 89 c7             	mov    %rax,%rdi
   1aa1a:	e8 33 26 00 00       	callq  1d052 <func_61>
   1aa1f:	84 c0                	test   %al,%al
   1aa21:	74 07                	je     1aa2a <func_40+0x658>
   1aa23:	b8 01 00 00 00       	mov    $0x1,%eax
   1aa28:	eb 05                	jmp    1aa2f <func_40+0x65d>
   1aa2a:	b8 00 00 00 00       	mov    $0x0,%eax
   1aa2f:	41 39 c5             	cmp    %eax,%r13d
   1aa32:	0f 9d c0             	setge  %al
   1aa35:	0f b6 c0             	movzbl %al,%eax
   1aa38:	44 89 e6             	mov    %r12d,%esi
   1aa3b:	89 c7                	mov    %eax,%edi
   1aa3d:	e8 4c 23 ff ff       	callq  cd8e <safe_div_func_uint16_t_u_u>
   1aa42:	0f b7 c0             	movzwl %ax,%eax
   1aa45:	89 de                	mov    %ebx,%esi
   1aa47:	89 c7                	mov    %eax,%edi
   1aa49:	e8 b1 1c ff ff       	callq  c6ff <safe_div_func_int32_t_s_s>
   1aa4e:	0f b6 95 5c f0 ff ff 	movzbl -0xfa4(%rbp),%edx
   1aa55:	0f be d2             	movsbl %dl,%edx
   1aa58:	09 d0                	or     %edx,%eax
   1aa5a:	85 c0                	test   %eax,%eax
   1aa5c:	0f 84 dd 03 00 00    	je     1ae3f <func_40+0xa6d>
   1aa62:	c6 85 64 f0 ff ff 15 	movb   $0x15,-0xf9c(%rbp)
   1aa69:	48 8d 05 f0 b6 00 00 	lea    0xb6f0(%rip),%rax        # 26160 <g_133>
   1aa70:	48 89 85 78 f1 ff ff 	mov    %rax,-0xe88(%rbp)
   1aa77:	c7 85 a0 f9 ff ff 05 	movl   $0x5,-0x660(%rbp)
   1aa7e:	00 00 00 
   1aa81:	c7 85 a4 f9 ff ff 22 	movl   $0x5f514122,-0x65c(%rbp)
   1aa88:	41 51 5f 
   1aa8b:	c7 85 a8 f9 ff ff 05 	movl   $0x5,-0x658(%rbp)
   1aa92:	00 00 00 
   1aa95:	c7 85 ac f9 ff ff 05 	movl   $0x5,-0x654(%rbp)
   1aa9c:	00 00 00 
   1aa9f:	c7 85 b0 f9 ff ff 22 	movl   $0x5f514122,-0x650(%rbp)
   1aaa6:	41 51 5f 
   1aaa9:	c7 85 b4 f9 ff ff 05 	movl   $0x5,-0x64c(%rbp)
   1aab0:	00 00 00 
   1aab3:	66 c7 85 6c f0 ff ff 	movw   $0x2af1,-0xf94(%rbp)
   1aaba:	f1 2a 
   1aabc:	66 c7 85 6e f0 ff ff 	movw   $0xb288,-0xf92(%rbp)
   1aac3:	88 b2 
   1aac5:	48 8d 85 70 f6 ff ff 	lea    -0x990(%rbp),%rax
   1aacc:	48 83 c0 58          	add    $0x58,%rax
   1aad0:	48 89 85 80 f1 ff ff 	mov    %rax,-0xe80(%rbp)
   1aad7:	48 8d 85 80 f1 ff ff 	lea    -0xe80(%rbp),%rax
   1aade:	48 89 85 e8 f1 ff ff 	mov    %rax,-0xe18(%rbp)
   1aae5:	48 8d 05 3c b7 00 00 	lea    0xb73c(%rip),%rax        # 26228 <g_266+0x18>
   1aaec:	48 89 85 f0 f1 ff ff 	mov    %rax,-0xe10(%rbp)
   1aaf3:	48 8d 85 10 f1 ff ff 	lea    -0xef0(%rbp),%rax
   1aafa:	48 89 85 f8 f1 ff ff 	mov    %rax,-0xe08(%rbp)
   1ab01:	c7 85 84 f0 ff ff 00 	movl   $0x0,-0xf7c(%rbp)
   1ab08:	00 00 00 
   1ab0b:	eb 1e                	jmp    1ab2b <func_40+0x759>
   1ab0d:	8b 85 84 f0 ff ff    	mov    -0xf7c(%rbp),%eax
   1ab13:	48 98                	cltq   
   1ab15:	48 8d 15 98 b7 00 00 	lea    0xb798(%rip),%rdx        # 262b4 <g_812>
   1ab1c:	48 89 94 c5 60 fb ff 	mov    %rdx,-0x4a0(%rbp,%rax,8)
   1ab23:	ff 
   1ab24:	83 85 84 f0 ff ff 01 	addl   $0x1,-0xf7c(%rbp)
   1ab2b:	83 bd 84 f0 ff ff 04 	cmpl   $0x4,-0xf7c(%rbp)
   1ab32:	7e d9                	jle    1ab0d <func_40+0x73b>
   1ab34:	48 8b 05 d5 d2 00 00 	mov    0xd2d5(%rip),%rax        # 27e10 <g_396>
   1ab3b:	8b 08                	mov    (%rax),%ecx
   1ab3d:	0f be 95 64 f0 ff ff 	movsbl -0xf9c(%rbp),%edx
   1ab44:	48 8b 05 c5 d2 00 00 	mov    0xd2c5(%rip),%rax        # 27e10 <g_396>
   1ab4b:	21 ca                	and    %ecx,%edx
   1ab4d:	89 10                	mov    %edx,(%rax)
   1ab4f:	48 c7 05 de b6 00 00 	movq   $0x0,0xb6de(%rip)        # 26238 <g_302>
   1ab56:	00 00 00 00 
   1ab5a:	e9 88 00 00 00       	jmpq   1abe7 <func_40+0x815>
   1ab5f:	48 c7 85 00 f2 ff ff 	movq   $0x0,-0xe00(%rbp)
   1ab66:	00 00 00 00 
   1ab6a:	c7 85 d0 f0 ff ff 6b 	movl   $0x8e7c286b,-0xf30(%rbp)
   1ab71:	28 7c 8e 
   1ab74:	c7 85 d4 f0 ff ff bd 	movl   $0x888cbabd,-0xf2c(%rbp)
   1ab7b:	ba 8c 88 
   1ab7e:	c7 85 d8 f0 ff ff 04 	movl   $0x4,-0xf28(%rbp)
   1ab85:	00 00 00 
   1ab88:	66 c7 85 70 f0 ff ff 	movw   $0x1,-0xf90(%rbp)
   1ab8f:	01 00 
   1ab91:	c6 85 65 f0 ff ff 31 	movb   $0x31,-0xf9b(%rbp)
   1ab98:	48 8d 85 78 f1 ff ff 	lea    -0xe88(%rbp),%rax
   1ab9f:	48 89 85 08 f2 ff ff 	mov    %rax,-0xdf8(%rbp)
   1aba6:	c7 85 88 f0 ff ff 00 	movl   $0x0,-0xf78(%rbp)
   1abad:	00 00 00 
   1abb0:	eb 1a                	jmp    1abcc <func_40+0x7fa>
   1abb2:	8b 85 88 f0 ff ff    	mov    -0xf78(%rbp),%eax
   1abb8:	48 98                	cltq   
   1abba:	c7 84 85 30 f8 ff ff 	movl   $0x987610f,-0x7d0(%rbp,%rax,4)
   1abc1:	0f 61 87 09 
   1abc5:	83 85 88 f0 ff ff 01 	addl   $0x1,-0xf78(%rbp)
   1abcc:	83 bd 88 f0 ff ff 04 	cmpl   $0x4,-0xf78(%rbp)
   1abd3:	7e dd                	jle    1abb2 <func_40+0x7e0>
   1abd5:	48 8b 05 5c b6 00 00 	mov    0xb65c(%rip),%rax        # 26238 <g_302>
   1abdc:	48 83 c0 01          	add    $0x1,%rax
   1abe0:	48 89 05 51 b6 00 00 	mov    %rax,0xb651(%rip)        # 26238 <g_302>
   1abe7:	48 8b 05 4a b6 00 00 	mov    0xb64a(%rip),%rax        # 26238 <g_302>
   1abee:	48 83 f8 1b          	cmp    $0x1b,%rax
   1abf2:	0f 8e 67 ff ff ff    	jle    1ab5f <func_40+0x78d>
   1abf8:	be 88 00 00 00       	mov    $0x88,%esi
   1abfd:	bf 01 00 00 00       	mov    $0x1,%edi
   1ac02:	e8 8c 1f ff ff       	callq  cb93 <safe_mul_func_uint8_t_u_u>
   1ac07:	ba 00 00 00 00       	mov    $0x0,%edx
   1ac0c:	b8 00 00 00 00       	mov    $0x0,%eax
   1ac11:	48 39 c2             	cmp    %rax,%rdx
   1ac14:	0f 94 c0             	sete   %al
   1ac17:	0f b6 d0             	movzbl %al,%edx
   1ac1a:	48 8b 85 50 f0 ff ff 	mov    -0xfb0(%rbp),%rax
   1ac21:	48 39 c2             	cmp    %rax,%rdx
   1ac24:	75 19                	jne    1ac3f <func_40+0x86d>
   1ac26:	8b 85 58 f0 ff ff    	mov    -0xfa8(%rbp),%eax
   1ac2c:	0f be c0             	movsbl %al,%eax
   1ac2f:	89 c6                	mov    %eax,%esi
   1ac31:	bf fd ff ff ff       	mov    $0xfffffffd,%edi
   1ac36:	e8 2f 16 ff ff       	callq  c26a <safe_div_func_int8_t_s_s>
   1ac3b:	84 c0                	test   %al,%al
   1ac3d:	74 07                	je     1ac46 <func_40+0x874>
   1ac3f:	ba 01 00 00 00       	mov    $0x1,%edx
   1ac44:	eb 05                	jmp    1ac4b <func_40+0x879>
   1ac46:	ba 00 00 00 00       	mov    $0x0,%edx
   1ac4b:	0f b6 85 5c f0 ff ff 	movzbl -0xfa4(%rbp),%eax
   1ac52:	0f be c0             	movsbl %al,%eax
   1ac55:	39 c2                	cmp    %eax,%edx
   1ac57:	0f 9e c2             	setle  %dl
   1ac5a:	8b 85 10 f4 ff ff    	mov    -0xbf0(%rbp),%eax
   1ac60:	83 f8 f9             	cmp    $0xfffffff9,%eax
   1ac63:	0f 9d c0             	setge  %al
   1ac66:	31 d0                	xor    %edx,%eax
   1ac68:	0f b6 c8             	movzbl %al,%ecx
   1ac6b:	48 8b 05 d6 d1 00 00 	mov    0xd1d6(%rip),%rax        # 27e48 <g_489>
   1ac72:	48 8b 00             	mov    (%rax),%rax
   1ac75:	8b 10                	mov    (%rax),%edx
   1ac77:	48 8b 05 ca d1 00 00 	mov    0xd1ca(%rip),%rax        # 27e48 <g_489>
   1ac7e:	48 8b 00             	mov    (%rax),%rax
   1ac81:	09 ca                	or     %ecx,%edx
   1ac83:	89 10                	mov    %edx,(%rax)
   1ac85:	48 8b 05 8c d1 00 00 	mov    0xd18c(%rip),%rax        # 27e18 <g_410>
   1ac8c:	0f b6 00             	movzbl (%rax),%eax
   1ac8f:	0f be d0             	movsbl %al,%edx
   1ac92:	0f b6 85 5c f0 ff ff 	movzbl -0xfa4(%rbp),%eax
   1ac99:	0f be c0             	movsbl %al,%eax
   1ac9c:	89 d6                	mov    %edx,%esi
   1ac9e:	89 c7                	mov    %eax,%edi
   1aca0:	e8 8c 15 ff ff       	callq  c231 <safe_mod_func_int8_t_s_s>
   1aca5:	0f b6 85 5c f0 ff ff 	movzbl -0xfa4(%rbp),%eax
   1acac:	66 0f be d0          	movsbw %al,%dx
   1acb0:	48 8b 85 f0 f1 ff ff 	mov    -0xe10(%rbp),%rax
   1acb7:	66 89 10             	mov    %dx,(%rax)
   1acba:	48 8b 85 f0 f1 ff ff 	mov    -0xe10(%rbp),%rax
   1acc1:	0f b7 00             	movzwl (%rax),%eax
   1acc4:	0f bf d0             	movswl %ax,%edx
   1acc7:	48 8d 05 7a d1 00 00 	lea    0xd17a(%rip),%rax        # 27e48 <g_489>
   1acce:	48 8b 00             	mov    (%rax),%rax
   1acd1:	48 8b 00             	mov    (%rax),%rax
   1acd4:	8b 00                	mov    (%rax),%eax
   1acd6:	98                   	cwtl   
   1acd7:	89 d6                	mov    %edx,%esi
   1acd9:	89 c7                	mov    %eax,%edi
   1acdb:	e8 f3 16 ff ff       	callq  c3d3 <safe_sub_func_int16_t_s_s>
   1ace0:	41 89 c5             	mov    %eax,%r13d
   1ace3:	0f b6 85 5c f0 ff ff 	movzbl -0xfa4(%rbp),%eax
   1acea:	0f be d8             	movsbl %al,%ebx
   1aced:	4c 8b a5 50 f0 ff ff 	mov    -0xfb0(%rbp),%r12
   1acf4:	8b 85 04 f4 ff ff    	mov    -0xbfc(%rbp),%eax
   1acfa:	98                   	cwtl   
   1acfb:	be 00 00 00 00       	mov    $0x0,%esi
   1ad00:	89 c7                	mov    %eax,%edi
   1ad02:	e8 5c 18 ff ff       	callq  c563 <safe_rshift_func_int16_t_s_u>
   1ad07:	89 c2                	mov    %eax,%edx
   1ad09:	48 8b 85 78 f1 ff ff 	mov    -0xe88(%rbp),%rax
   1ad10:	0f bf d2             	movswl %dx,%edx
   1ad13:	89 10                	mov    %edx,(%rax)
   1ad15:	8b 05 31 b5 00 00    	mov    0xb531(%rip),%eax        # 2624c <g_424>
   1ad1b:	0f b7 c0             	movzwl %ax,%eax
   1ad1e:	be 07 00 00 00       	mov    $0x7,%esi
   1ad23:	89 c7                	mov    %eax,%edi
   1ad25:	e8 dc 20 ff ff       	callq  ce06 <safe_lshift_func_uint16_t_u_u>
   1ad2a:	0f b7 c0             	movzwl %ax,%eax
   1ad2d:	4c 89 e6             	mov    %r12,%rsi
   1ad30:	48 89 c7             	mov    %rax,%rdi
   1ad33:	e8 09 1b ff ff       	callq  c841 <safe_add_func_int64_t_s_s>
   1ad38:	98                   	cwtl   
   1ad39:	89 de                	mov    %ebx,%esi
   1ad3b:	89 c7                	mov    %eax,%edi
   1ad3d:	e8 e8 17 ff ff       	callq  c52a <safe_rshift_func_int16_t_s_s>
   1ad42:	66 41 39 c5          	cmp    %ax,%r13w
   1ad46:	0f 9d c0             	setge  %al
   1ad49:	0f b6 d0             	movzbl %al,%edx
   1ad4c:	8b 85 58 f0 ff ff    	mov    -0xfa8(%rbp),%eax
   1ad52:	39 c2                	cmp    %eax,%edx
   1ad54:	0f 95 c0             	setne  %al
   1ad57:	0f b6 c8             	movzbl %al,%ecx
   1ad5a:	48 8b 05 b7 d0 00 00 	mov    0xd0b7(%rip),%rax        # 27e18 <g_410>
   1ad61:	0f b6 00             	movzbl (%rax),%eax
   1ad64:	0f be d0             	movsbl %al,%edx
   1ad67:	48 8b 85 90 f1 ff ff 	mov    -0xe70(%rbp),%rax
   1ad6e:	48 8b 00             	mov    (%rax),%rax
   1ad71:	48 8b 00             	mov    (%rax),%rax
   1ad74:	48 8b 00             	mov    (%rax),%rax
   1ad77:	48 8b 00             	mov    (%rax),%rax
   1ad7a:	21 ca                	and    %ecx,%edx
   1ad7c:	89 10                	mov    %edx,(%rax)
   1ad7e:	8b 00                	mov    (%rax),%eax
   1ad80:	89 05 2e b5 00 00    	mov    %eax,0xb52e(%rip)        # 262b4 <g_812>
   1ad86:	8b 15 28 b5 00 00    	mov    0xb528(%rip),%edx        # 262b4 <g_812>
   1ad8c:	8b 05 06 b5 00 00    	mov    0xb506(%rip),%eax        # 26298 <g_528>
   1ad92:	09 d0                	or     %edx,%eax
   1ad94:	89 05 fe b4 00 00    	mov    %eax,0xb4fe(%rip)        # 26298 <g_528>
   1ad9a:	8b 05 18 b5 00 00    	mov    0xb518(%rip),%eax        # 262b8 <g_854>
   1ada0:	83 f8 01             	cmp    $0x1,%eax
   1ada3:	75 07                	jne    1adac <func_40+0x9da>
   1ada5:	b8 01 00 00 00       	mov    $0x1,%eax
   1adaa:	eb 05                	jmp    1adb1 <func_40+0x9df>
   1adac:	b8 00 00 00 00       	mov    $0x0,%eax
   1adb1:	84 c0                	test   %al,%al
   1adb3:	74 73                	je     1ae28 <func_40+0xa56>
   1adb5:	c7 85 8c f0 ff ff 04 	movl   $0x4,-0xf74(%rbp)
   1adbc:	00 00 00 
   1adbf:	c6 85 5c f0 ff ff 00 	movb   $0x0,-0xfa4(%rbp)
   1adc6:	eb 2d                	jmp    1adf5 <func_40+0xa23>
   1adc8:	48 8b 05 79 d0 00 00 	mov    0xd079(%rip),%rax        # 27e48 <g_489>
   1adcf:	48 8b 00             	mov    (%rax),%rax
   1add2:	8b 00                	mov    (%rax),%eax
   1add4:	09 85 8c f0 ff ff    	or     %eax,-0xf74(%rbp)
   1adda:	80 bd 64 f0 ff ff 00 	cmpb   $0x0,-0xf9c(%rbp)
   1ade1:	74 02                	je     1ade5 <func_40+0xa13>
   1ade3:	eb da                	jmp    1adbf <func_40+0x9ed>
   1ade5:	0f b6 85 5c f0 ff ff 	movzbl -0xfa4(%rbp),%eax
   1adec:	83 e8 01             	sub    $0x1,%eax
   1adef:	88 85 5c f0 ff ff    	mov    %al,-0xfa4(%rbp)
   1adf5:	0f b6 85 5c f0 ff ff 	movzbl -0xfa4(%rbp),%eax
   1adfc:	3c e6                	cmp    $0xe6,%al
   1adfe:	75 c8                	jne    1adc8 <func_40+0x9f6>
   1ae00:	48 8b 85 10 f1 ff ff 	mov    -0xef0(%rbp),%rax
   1ae07:	48 8b 00             	mov    (%rax),%rax
   1ae0a:	48 8b 00             	mov    (%rax),%rax
   1ae0d:	48 8b 00             	mov    (%rax),%rax
   1ae10:	8b 95 58 f0 ff ff    	mov    -0xfa8(%rbp),%edx
   1ae16:	89 10                	mov    %edx,(%rax)
   1ae18:	48 8b 95 78 f1 ff ff 	mov    -0xe88(%rbp),%rdx
   1ae1f:	8b 00                	mov    (%rax),%eax
   1ae21:	89 02                	mov    %eax,(%rdx)
   1ae23:	e9 89 03 00 00       	jmpq   1b1b1 <func_40+0xddf>
   1ae28:	48 8b 85 10 f1 ff ff 	mov    -0xef0(%rbp),%rax
   1ae2f:	48 8b 00             	mov    (%rax),%rax
   1ae32:	48 8b 00             	mov    (%rax),%rax
   1ae35:	48 8b 00             	mov    (%rax),%rax
   1ae38:	8b 00                	mov    (%rax),%eax
   1ae3a:	e9 ed 21 00 00       	jmpq   1d02c <func_40+0x2c5a>
   1ae3f:	48 8d 85 20 f1 ff ff 	lea    -0xee0(%rbp),%rax
   1ae46:	48 89 85 c8 f1 ff ff 	mov    %rax,-0xe38(%rbp)
   1ae4d:	48 8d 05 ac b3 00 00 	lea    0xb3ac(%rip),%rax        # 26200 <g_260>
   1ae54:	48 89 85 d0 f1 ff ff 	mov    %rax,-0xe30(%rbp)
   1ae5b:	48 c7 85 30 f8 ff ff 	movq   $0x0,-0x7d0(%rbp)
   1ae62:	00 00 00 00 
   1ae66:	48 8d 05 cb b3 00 00 	lea    0xb3cb(%rip),%rax        # 26238 <g_302>
   1ae6d:	48 89 85 38 f8 ff ff 	mov    %rax,-0x7c8(%rbp)
   1ae74:	48 c7 85 40 f8 ff ff 	movq   $0x0,-0x7c0(%rbp)
   1ae7b:	00 00 00 00 
   1ae7f:	48 c7 85 48 f8 ff ff 	movq   $0x0,-0x7b8(%rbp)
   1ae86:	00 00 00 00 
   1ae8a:	48 8d 05 a7 b3 00 00 	lea    0xb3a7(%rip),%rax        # 26238 <g_302>
   1ae91:	48 89 85 50 f8 ff ff 	mov    %rax,-0x7b0(%rbp)
   1ae98:	48 c7 85 58 f8 ff ff 	movq   $0x0,-0x7a8(%rbp)
   1ae9f:	00 00 00 00 
   1aea3:	48 c7 85 60 f8 ff ff 	movq   $0x0,-0x7a0(%rbp)
   1aeaa:	00 00 00 00 
   1aeae:	48 8d 05 83 b3 00 00 	lea    0xb383(%rip),%rax        # 26238 <g_302>
   1aeb5:	48 89 85 68 f8 ff ff 	mov    %rax,-0x798(%rbp)
   1aebc:	c7 85 c8 f0 ff ff 51 	movl   $0xdf82a551,-0xf38(%rbp)
   1aec3:	a5 82 df 
   1aec6:	48 c7 85 d8 f1 ff ff 	movq   $0x0,-0xe28(%rbp)
   1aecd:	00 00 00 00 
   1aed1:	48 8d 05 f0 b1 00 00 	lea    0xb1f0(%rip),%rax        # 260c8 <g_56>
   1aed8:	48 89 85 78 f1 ff ff 	mov    %rax,-0xe88(%rbp)
   1aedf:	48 8d 85 78 f1 ff ff 	lea    -0xe88(%rbp),%rax
   1aee6:	48 89 85 a0 f9 ff ff 	mov    %rax,-0x660(%rbp)
   1aeed:	48 8d 85 78 f1 ff ff 	lea    -0xe88(%rbp),%rax
   1aef4:	48 89 85 a8 f9 ff ff 	mov    %rax,-0x658(%rbp)
   1aefb:	48 8d 85 78 f1 ff ff 	lea    -0xe88(%rbp),%rax
   1af02:	48 89 85 b0 f9 ff ff 	mov    %rax,-0x650(%rbp)
   1af09:	48 8d 85 78 f1 ff ff 	lea    -0xe88(%rbp),%rax
   1af10:	48 89 85 b8 f9 ff ff 	mov    %rax,-0x648(%rbp)
   1af17:	48 8d 85 78 f1 ff ff 	lea    -0xe88(%rbp),%rax
   1af1e:	48 89 85 c0 f9 ff ff 	mov    %rax,-0x640(%rbp)
   1af25:	48 8d 85 78 f1 ff ff 	lea    -0xe88(%rbp),%rax
   1af2c:	48 89 85 c8 f9 ff ff 	mov    %rax,-0x638(%rbp)
   1af33:	48 8d 85 78 f1 ff ff 	lea    -0xe88(%rbp),%rax
   1af3a:	48 89 85 d0 f9 ff ff 	mov    %rax,-0x630(%rbp)
   1af41:	48 8d 85 78 f1 ff ff 	lea    -0xe88(%rbp),%rax
   1af48:	48 89 85 d8 f9 ff ff 	mov    %rax,-0x628(%rbp)
   1af4f:	48 8d 85 a0 f9 ff ff 	lea    -0x660(%rbp),%rax
   1af56:	48 89 85 80 f1 ff ff 	mov    %rax,-0xe80(%rbp)
   1af5d:	48 c7 85 60 fb ff ff 	movq   $0x0,-0x4a0(%rbp)
   1af64:	00 00 00 00 
   1af68:	48 8d 85 80 f1 ff ff 	lea    -0xe80(%rbp),%rax
   1af6f:	48 89 85 68 fb ff ff 	mov    %rax,-0x498(%rbp)
   1af76:	48 c7 85 70 fb ff ff 	movq   $0x0,-0x490(%rbp)
   1af7d:	00 00 00 00 
   1af81:	48 8d 85 80 f1 ff ff 	lea    -0xe80(%rbp),%rax
   1af88:	48 89 85 78 fb ff ff 	mov    %rax,-0x488(%rbp)
   1af8f:	48 c7 85 80 fb ff ff 	movq   $0x0,-0x480(%rbp)
   1af96:	00 00 00 00 
   1af9a:	48 8d 85 80 f1 ff ff 	lea    -0xe80(%rbp),%rax
   1afa1:	48 89 85 88 fb ff ff 	mov    %rax,-0x478(%rbp)
   1afa8:	48 c7 85 90 fb ff ff 	movq   $0x0,-0x470(%rbp)
   1afaf:	00 00 00 00 
   1afb3:	48 8d 85 80 f1 ff ff 	lea    -0xe80(%rbp),%rax
   1afba:	48 89 85 98 fb ff ff 	mov    %rax,-0x468(%rbp)
   1afc1:	48 c7 85 a0 fb ff ff 	movq   $0x0,-0x460(%rbp)
   1afc8:	00 00 00 00 
   1afcc:	48 8d 85 60 fb ff ff 	lea    -0x4a0(%rbp),%rax
   1afd3:	48 83 c0 38          	add    $0x38,%rax
   1afd7:	48 89 85 e0 f1 ff ff 	mov    %rax,-0xe20(%rbp)
   1afde:	c7 85 cc f0 ff ff be 	movl   $0x68b9fbbe,-0xf34(%rbp)
   1afe5:	fb b9 68 
   1afe8:	c7 85 90 f0 ff ff 00 	movl   $0x0,-0xf70(%rbp)
   1afef:	00 00 00 
   1aff2:	eb 14                	jmp    1b008 <func_40+0xc36>
   1aff4:	8b 85 90 f0 ff ff    	mov    -0xf70(%rbp),%eax
   1affa:	48 98                	cltq   
   1affc:	c6 44 05 c0 1c       	movb   $0x1c,-0x40(%rbp,%rax,1)
   1b001:	83 85 90 f0 ff ff 01 	addl   $0x1,-0xf70(%rbp)
   1b008:	83 bd 90 f0 ff ff 02 	cmpl   $0x2,-0xf70(%rbp)
   1b00f:	7e e3                	jle    1aff4 <func_40+0xc22>
   1b011:	48 8b 95 20 f1 ff ff 	mov    -0xee0(%rbp),%rdx
   1b018:	48 8b 85 c8 f1 ff ff 	mov    -0xe38(%rbp),%rax
   1b01f:	48 89 10             	mov    %rdx,(%rax)
   1b022:	0f b7 05 3f fe 00 00 	movzwl 0xfe3f(%rip),%eax        # 2ae68 <g_215>
   1b029:	48 0f bf d8          	movswq %ax,%rbx
   1b02d:	8b 85 58 f0 ff ff    	mov    -0xfa8(%rbp),%eax
   1b033:	be ff ff ff ff       	mov    $0xffffffff,%esi
   1b038:	89 c7                	mov    %eax,%edi
   1b03a:	e8 8d 16 ff ff       	callq  c6cc <safe_mod_func_int32_t_s_s>
   1b03f:	0f b7 05 aa b1 00 00 	movzwl 0xb1aa(%rip),%eax        # 261f0 <g_218>
   1b046:	98                   	cwtl   
   1b047:	89 c6                	mov    %eax,%esi
   1b049:	bf f8 ff 00 00       	mov    $0xfff8,%edi
   1b04e:	e8 27 1e ff ff       	callq  ce7a <safe_rshift_func_uint16_t_u_u>
   1b053:	0f be c0             	movsbl %al,%eax
   1b056:	89 c6                	mov    %eax,%esi
   1b058:	bf 92 ff ff ff       	mov    $0xffffff92,%edi
   1b05d:	e8 b0 11 ff ff       	callq  c212 <safe_mul_func_int8_t_s_s>
   1b062:	48 0f be c0          	movsbq %al,%rax
   1b066:	48 89 85 50 f0 ff ff 	mov    %rax,-0xfb0(%rbp)
   1b06d:	48 89 de             	mov    %rbx,%rsi
   1b070:	bf 01 00 00 00       	mov    $0x1,%edi
   1b075:	e8 c7 17 ff ff       	callq  c841 <safe_add_func_int64_t_s_s>
   1b07a:	83 bd c8 f0 ff ff 00 	cmpl   $0x0,-0xf38(%rbp)
   1b081:	75 0d                	jne    1b090 <func_40+0xcbe>
   1b083:	48 8b 05 9e cd 00 00 	mov    0xcd9e(%rip),%rax        # 27e28 <g_433>
   1b08a:	8b 00                	mov    (%rax),%eax
   1b08c:	85 c0                	test   %eax,%eax
   1b08e:	74 08                	je     1b098 <func_40+0xcc6>
   1b090:	8b 85 58 f0 ff ff    	mov    -0xfa8(%rbp),%eax
   1b096:	85 c0                	test   %eax,%eax
   1b098:	48 8b 85 c8 f1 ff ff 	mov    -0xe38(%rbp),%rax
   1b09f:	48 8b 00             	mov    (%rax),%rax
   1b0a2:	48 8b 00             	mov    (%rax),%rax
   1b0a5:	48 8b 00             	mov    (%rax),%rax
   1b0a8:	8b 00                	mov    (%rax),%eax
   1b0aa:	3d 42 df 00 00       	cmp    $0xdf42,%eax
   1b0af:	0f 9f c2             	setg   %dl
   1b0b2:	48 8b 85 c8 f6 ff ff 	mov    -0x938(%rbp),%rax
   1b0b9:	48 39 85 d0 f1 ff ff 	cmp    %rax,-0xe30(%rbp)
   1b0c0:	0f 94 c0             	sete   %al
   1b0c3:	31 d0                	xor    %edx,%eax
   1b0c5:	0f b6 d0             	movzbl %al,%edx
   1b0c8:	48 8b 05 61 cd 00 00 	mov    0xcd61(%rip),%rax        # 27e30 <g_481>
   1b0cf:	0f b7 00             	movzwl (%rax),%eax
   1b0d2:	98                   	cwtl   
   1b0d3:	39 c2                	cmp    %eax,%edx
   1b0d5:	0f 9c c0             	setl   %al
   1b0d8:	0f b6 c0             	movzbl %al,%eax
   1b0db:	89 85 bc f0 ff ff    	mov    %eax,-0xf44(%rbp)
   1b0e1:	ba 01 00 00 00       	mov    $0x1,%edx
   1b0e6:	48 8b 85 10 f1 ff ff 	mov    -0xef0(%rbp),%rax
   1b0ed:	48 8b 00             	mov    (%rax),%rax
   1b0f0:	48 8b 00             	mov    (%rax),%rax
   1b0f3:	48 8b 00             	mov    (%rax),%rax
   1b0f6:	89 10                	mov    %edx,(%rax)
   1b0f8:	48 8b 05 21 cd 00 00 	mov    0xcd21(%rip),%rax        # 27e20 <g_425>
   1b0ff:	48 8b 00             	mov    (%rax),%rax
   1b102:	48 85 c0             	test   %rax,%rax
   1b105:	40 0f 95 c7          	setne  %dil
   1b109:	48 8b 85 50 f8 ff ff 	mov    -0x7b0(%rbp),%rax
   1b110:	48 89 85 d8 f1 ff ff 	mov    %rax,-0xe28(%rbp)
   1b117:	48 8b 85 28 f1 ff ff 	mov    -0xed8(%rbp),%rax
   1b11e:	48 39 85 d8 f1 ff ff 	cmp    %rax,-0xe28(%rbp)
   1b125:	75 07                	jne    1b12e <func_40+0xd5c>
   1b127:	be a9 23 5b 04       	mov    $0x45b23a9,%esi
   1b12c:	eb 05                	jmp    1b133 <func_40+0xd61>
   1b12e:	be a8 23 5b 04       	mov    $0x45b23a8,%esi
   1b133:	48 8b 85 c8 f1 ff ff 	mov    -0xe38(%rbp),%rax
   1b13a:	48 8b 00             	mov    (%rax),%rax
   1b13d:	48 8b 00             	mov    (%rax),%rax
   1b140:	48 8b 00             	mov    (%rax),%rax
   1b143:	8b 10                	mov    (%rax),%edx
   1b145:	48 8d 05 0c 51 00 00 	lea    0x510c(%rip),%rax        # 20258 <g_828+0x18>
   1b14c:	48 39 85 e0 f1 ff ff 	cmp    %rax,-0xe20(%rbp)
   1b153:	0f 94 c0             	sete   %al
   1b156:	0f b6 c8             	movzbl %al,%ecx
   1b159:	0f b6 45 c0          	movzbl -0x40(%rbp),%eax
   1b15d:	0f be c0             	movsbl %al,%eax
   1b160:	39 c1                	cmp    %eax,%ecx
   1b162:	0f 94 c0             	sete   %al
   1b165:	0f b6 c0             	movzbl %al,%eax
   1b168:	39 c2                	cmp    %eax,%edx
   1b16a:	0f 9d c0             	setge  %al
   1b16d:	0f b6 c0             	movzbl %al,%eax
   1b170:	48 21 f0             	and    %rsi,%rax
   1b173:	48 3d 79 20 0b 71    	cmp    $0x710b2079,%rax
   1b179:	0f 9e c0             	setle  %al
   1b17c:	31 f8                	xor    %edi,%eax
   1b17e:	0f b6 d0             	movzbl %al,%edx
   1b181:	8b 05 c5 b0 00 00    	mov    0xb0c5(%rip),%eax        # 2624c <g_424>
   1b187:	39 c2                	cmp    %eax,%edx
   1b189:	0f 93 c0             	setae  %al
   1b18c:	0f b6 d0             	movzbl %al,%edx
   1b18f:	8b 85 58 f0 ff ff    	mov    -0xfa8(%rbp),%eax
   1b195:	39 c2                	cmp    %eax,%edx
   1b197:	0f 9d c2             	setge  %dl
   1b19a:	48 8b 85 18 f1 ff ff 	mov    -0xee8(%rbp),%rax
   1b1a1:	48 8b 00             	mov    (%rax),%rax
   1b1a4:	0f b6 d2             	movzbl %dl,%edx
   1b1a7:	89 10                	mov    %edx,(%rax)
   1b1a9:	8b 00                	mov    (%rax),%eax
   1b1ab:	21 85 cc f0 ff ff    	and    %eax,-0xf34(%rbp)
   1b1b1:	8b 85 58 f0 ff ff    	mov    -0xfa8(%rbp),%eax
   1b1b7:	0f be d8             	movsbl %al,%ebx
   1b1ba:	0f b6 85 5c f0 ff ff 	movzbl -0xfa4(%rbp),%eax
   1b1c1:	44 0f be e0          	movsbl %al,%r12d
   1b1c5:	48 8b 05 64 cc 00 00 	mov    0xcc64(%rip),%rax        # 27e30 <g_481>
   1b1cc:	0f b7 00             	movzwl (%rax),%eax
   1b1cf:	44 0f bf e8          	movswl %ax,%r13d
   1b1d3:	8b 85 58 f0 ff ff    	mov    -0xfa8(%rbp),%eax
   1b1d9:	41 89 c6             	mov    %eax,%r14d
   1b1dc:	0f b6 95 63 f0 ff ff 	movzbl -0xf9d(%rbp),%edx
   1b1e3:	48 8b 05 8e d0 00 00 	mov    0xd08e(%rip),%rax        # 28278 <g_522>
   1b1ea:	48 8b 00             	mov    (%rax),%rax
   1b1ed:	48 8b 08             	mov    (%rax),%rcx
   1b1f0:	48 8b 85 28 f1 ff ff 	mov    -0xed8(%rbp),%rax
   1b1f7:	48 39 c1             	cmp    %rax,%rcx
   1b1fa:	0f 95 c0             	setne  %al
   1b1fd:	0f b6 c0             	movzbl %al,%eax
   1b200:	89 d6                	mov    %edx,%esi
   1b202:	89 c7                	mov    %eax,%edi
   1b204:	e8 21 13 ff ff       	callq  c52a <safe_rshift_func_int16_t_s_s>
   1b209:	48 0f bf c0          	movswq %ax,%rax
   1b20d:	48 89 c6             	mov    %rax,%rsi
   1b210:	48 bf 79 f5 60 a2 00 	movabs $0x15f69d00a260f579,%rdi
   1b217:	9d f6 15 
   1b21a:	e8 95 17 ff ff       	callq  c9b4 <safe_mod_func_int64_t_s_s>
   1b21f:	44 89 f6             	mov    %r14d,%esi
   1b222:	89 c7                	mov    %eax,%edi
   1b224:	e8 fc 1c ff ff       	callq  cf25 <safe_div_func_uint32_t_u_u>
   1b229:	0f b6 85 5c f0 ff ff 	movzbl -0xfa4(%rbp),%eax
   1b230:	3c 01                	cmp    $0x1,%al
   1b232:	0f 94 c2             	sete   %dl
   1b235:	48 8b 85 20 f1 ff ff 	mov    -0xee0(%rbp),%rax
   1b23c:	48 8b 00             	mov    (%rax),%rax
   1b23f:	48 8b 00             	mov    (%rax),%rax
   1b242:	0f b6 d2             	movzbl %dl,%edx
   1b245:	89 10                	mov    %edx,(%rax)
   1b247:	44 89 ee             	mov    %r13d,%esi
   1b24a:	bf 01 00 00 00       	mov    $0x1,%edi
   1b24f:	e8 a1 11 ff ff       	callq  c3f5 <safe_mul_func_int16_t_s_s>
   1b254:	b8 00 00 00 00       	mov    $0x0,%eax
   1b259:	89 c2                	mov    %eax,%edx
   1b25b:	0f b7 05 06 fc 00 00 	movzwl 0xfc06(%rip),%eax        # 2ae68 <g_215>
   1b262:	21 d0                	and    %edx,%eax
   1b264:	66 89 05 fd fb 00 00 	mov    %ax,0xfbfd(%rip)        # 2ae68 <g_215>
   1b26b:	0f b7 05 f6 fb 00 00 	movzwl 0xfbf6(%rip),%eax        # 2ae68 <g_215>
   1b272:	0f b7 d0             	movzwl %ax,%edx
   1b275:	0f b7 05 9c af 00 00 	movzwl 0xaf9c(%rip),%eax        # 26218 <g_266+0x8>
   1b27c:	8d 48 01             	lea    0x1(%rax),%ecx
   1b27f:	66 89 0d 92 af 00 00 	mov    %cx,0xaf92(%rip)        # 26218 <g_266+0x8>
   1b286:	0f b7 c0             	movzwl %ax,%eax
   1b289:	89 d6                	mov    %edx,%esi
   1b28b:	89 c7                	mov    %eax,%edi
   1b28d:	e8 6d 1a ff ff       	callq  ccff <safe_add_func_uint16_t_u_u>
   1b292:	89 c2                	mov    %eax,%edx
   1b294:	0f b7 05 a5 af 00 00 	movzwl 0xafa5(%rip),%eax        # 26240 <g_365>
   1b29b:	21 d0                	and    %edx,%eax
   1b29d:	66 89 05 9c af 00 00 	mov    %ax,0xaf9c(%rip)        # 26240 <g_365>
   1b2a4:	bf 00 00 00 00       	mov    $0x0,%edi
   1b2a9:	e8 e8 12 ff ff       	callq  c596 <safe_unary_minus_func_int32_t_s>
   1b2ae:	48 8b 05 83 cb 00 00 	mov    0xcb83(%rip),%rax        # 27e38 <g_480>
   1b2b5:	48 8b 00             	mov    (%rax),%rax
   1b2b8:	0f b7 00             	movzwl (%rax),%eax
   1b2bb:	98                   	cwtl   
   1b2bc:	44 89 e6             	mov    %r12d,%esi
   1b2bf:	89 c7                	mov    %eax,%edi
   1b2c1:	e8 2f 11 ff ff       	callq  c3f5 <safe_mul_func_int16_t_s_s>
   1b2c6:	8b 85 58 f0 ff ff    	mov    -0xfa8(%rbp),%eax
   1b2cc:	85 c0                	test   %eax,%eax
   1b2ce:	0f 95 c0             	setne  %al
   1b2d1:	0f b6 c0             	movzbl %al,%eax
   1b2d4:	89 05 d6 af 00 00    	mov    %eax,0xafd6(%rip)        # 262b0 <g_766>
   1b2da:	48 8b 85 20 f1 ff ff 	mov    -0xee0(%rbp),%rax
   1b2e1:	48 8b 00             	mov    (%rax),%rax
   1b2e4:	48 8b 00             	mov    (%rax),%rax
   1b2e7:	8b 00                	mov    (%rax),%eax
   1b2e9:	89 c2                	mov    %eax,%edx
   1b2eb:	48 8b 05 46 af 00 00 	mov    0xaf46(%rip),%rax        # 26238 <g_302>
   1b2f2:	09 d0                	or     %edx,%eax
   1b2f4:	0f be c0             	movsbl %al,%eax
   1b2f7:	89 de                	mov    %ebx,%esi
   1b2f9:	89 c7                	mov    %eax,%edi
   1b2fb:	e8 12 0f ff ff       	callq  c212 <safe_mul_func_int8_t_s_s>
   1b300:	0f be d0             	movsbl %al,%edx
   1b303:	8b 85 58 f0 ff ff    	mov    -0xfa8(%rbp),%eax
   1b309:	39 c2                	cmp    %eax,%edx
   1b30b:	7c 07                	jl     1b314 <func_40+0xf42>
   1b30d:	ba bb eb ff ff       	mov    $0xffffebbb,%edx
   1b312:	eb 05                	jmp    1b319 <func_40+0xf47>
   1b314:	ba ba eb ff ff       	mov    $0xffffebba,%edx
   1b319:	48 8b 85 a8 f1 ff ff 	mov    -0xe58(%rbp),%rax
   1b320:	66 89 10             	mov    %dx,(%rax)
   1b323:	48 8b 85 a8 f1 ff ff 	mov    -0xe58(%rbp),%rax
   1b32a:	0f b7 00             	movzwl (%rax),%eax
   1b32d:	0f b7 c0             	movzwl %ax,%eax
   1b330:	89 c6                	mov    %eax,%esi
   1b332:	bf 00 00 00 00       	mov    $0x0,%edi
   1b337:	e8 3e 1b ff ff       	callq  ce7a <safe_rshift_func_uint16_t_u_u>
   1b33c:	66 85 c0             	test   %ax,%ax
   1b33f:	0f 84 6d 01 00 00    	je     1b4b2 <func_40+0x10e0>
   1b345:	48 8d 05 fc ca 00 00 	lea    0xcafc(%rip),%rax        # 27e48 <g_489>
   1b34c:	48 8b 00             	mov    (%rax),%rax
   1b34f:	48 8b 00             	mov    (%rax),%rax
   1b352:	c7 00 00 00 00 00    	movl   $0x0,(%rax)
   1b358:	48 8b 05 d9 ca 00 00 	mov    0xcad9(%rip),%rax        # 27e38 <g_480>
   1b35f:	48 8b 00             	mov    (%rax),%rax
   1b362:	0f b7 00             	movzwl (%rax),%eax
   1b365:	0f bf d8             	movswl %ax,%ebx
   1b368:	8b 05 36 ad 00 00    	mov    0xad36(%rip),%eax        # 260a4 <g_24+0x4>
   1b36e:	44 0f bf e0          	movswl %ax,%r12d
   1b372:	be 06 00 00 00       	mov    $0x6,%esi
   1b377:	bf 0e 00 00 00       	mov    $0xe,%edi
   1b37c:	e8 20 0f ff ff       	callq  c2a1 <safe_lshift_func_int8_t_s_s>
   1b381:	0f be d0             	movsbl %al,%edx
   1b384:	8b 85 58 f0 ff ff    	mov    -0xfa8(%rbp),%eax
   1b38a:	39 c2                	cmp    %eax,%edx
   1b38c:	0f 9d c0             	setge  %al
   1b38f:	0f b6 c0             	movzbl %al,%eax
   1b392:	89 c6                	mov    %eax,%esi
   1b394:	bf 94 ff ff ff       	mov    $0xffffff94,%edi
   1b399:	e8 97 0f ff ff       	callq  c335 <safe_rshift_func_int8_t_s_s>
   1b39e:	66 0f be d0          	movsbw %al,%dx
   1b3a2:	48 8b 85 a8 f1 ff ff 	mov    -0xe58(%rbp),%rax
   1b3a9:	66 89 10             	mov    %dx,(%rax)
   1b3ac:	48 8b 85 a8 f1 ff ff 	mov    -0xe58(%rbp),%rax
   1b3b3:	0f b7 00             	movzwl (%rax),%eax
   1b3b6:	66 89 05 5b ae 00 00 	mov    %ax,0xae5b(%rip)        # 26218 <g_266+0x8>
   1b3bd:	0f b6 85 5c f0 ff ff 	movzbl -0xfa4(%rbp),%eax
   1b3c4:	0f be c0             	movsbl %al,%eax
   1b3c7:	44 89 e6             	mov    %r12d,%esi
   1b3ca:	89 c7                	mov    %eax,%edi
   1b3cc:	e8 84 10 ff ff       	callq  c455 <safe_div_func_int16_t_s_s>
   1b3d1:	0f b7 c0             	movzwl %ax,%eax
   1b3d4:	89 de                	mov    %ebx,%esi
   1b3d6:	89 c7                	mov    %eax,%edi
   1b3d8:	e8 6b 1a ff ff       	callq  ce48 <safe_rshift_func_uint16_t_u_s>
   1b3dd:	89 c2                	mov    %eax,%edx
   1b3df:	48 8b 85 10 f1 ff ff 	mov    -0xef0(%rbp),%rax
   1b3e6:	48 8b 00             	mov    (%rax),%rax
   1b3e9:	48 8b 00             	mov    (%rax),%rax
   1b3ec:	48 8b 00             	mov    (%rax),%rax
   1b3ef:	0f b7 d2             	movzwl %dx,%edx
   1b3f2:	89 10                	mov    %edx,(%rax)
   1b3f4:	48 8b 05 45 ca 00 00 	mov    0xca45(%rip),%rax        # 27e40 <g_479>
   1b3fb:	48 8b 00             	mov    (%rax),%rax
   1b3fe:	48 8b 00             	mov    (%rax),%rax
   1b401:	0f b7 00             	movzwl (%rax),%eax
   1b404:	0f b7 d8             	movzwl %ax,%ebx
   1b407:	48 8b 85 30 f1 ff ff 	mov    -0xed0(%rbp),%rax
   1b40e:	48 8d 15 4f ad 00 00 	lea    0xad4f(%rip),%rdx        # 26164 <g_164>
   1b415:	48 89 10             	mov    %rdx,(%rax)
   1b418:	0f b6 85 5c f0 ff ff 	movzbl -0xfa4(%rbp),%eax
   1b41f:	66 98                	cbtw   
   1b421:	83 c8 f6             	or     $0xfffffff6,%eax
   1b424:	41 89 c4             	mov    %eax,%r12d
   1b427:	48 8b 85 18 f1 ff ff 	mov    -0xee8(%rbp),%rax
   1b42e:	48 8b 00             	mov    (%rax),%rax
   1b431:	8b 10                	mov    (%rax),%edx
   1b433:	8b 85 58 f0 ff ff    	mov    -0xfa8(%rbp),%eax
   1b439:	89 d6                	mov    %edx,%esi
   1b43b:	89 c7                	mov    %eax,%edi
   1b43d:	e8 bd 12 ff ff       	callq  c6ff <safe_div_func_int32_t_s_s>
   1b442:	44 21 e0             	and    %r12d,%eax
   1b445:	0f b7 c0             	movzwl %ax,%eax
   1b448:	be 03 00 00 00       	mov    $0x3,%esi
   1b44d:	89 c7                	mov    %eax,%edi
   1b44f:	e8 26 1a ff ff       	callq  ce7a <safe_rshift_func_uint16_t_u_u>
   1b454:	48 be 82 71 4d 59 19 	movabs $0x84fc6b19594d7182,%rsi
   1b45b:	6b fc 84 
   1b45e:	bf 00 00 00 00       	mov    $0x0,%edi
   1b463:	e8 40 14 ff ff       	callq  c8a8 <safe_sub_func_int64_t_s_s>
   1b468:	0f b7 c0             	movzwl %ax,%eax
   1b46b:	89 de                	mov    %ebx,%esi
   1b46d:	89 c7                	mov    %eax,%edi
   1b46f:	e8 c9 18 ff ff       	callq  cd3d <safe_mul_func_uint16_t_u_u>
   1b474:	0f be c0             	movsbl %al,%eax
   1b477:	89 c6                	mov    %eax,%esi
   1b479:	bf fb ff ff ff       	mov    $0xfffffffb,%edi
   1b47e:	e8 8f 0d ff ff       	callq  c212 <safe_mul_func_int8_t_s_s>
   1b483:	8b 85 58 f0 ff ff    	mov    -0xfa8(%rbp),%eax
   1b489:	85 c0                	test   %eax,%eax
   1b48b:	0f 9f c2             	setg   %dl
   1b48e:	48 8b 85 10 f1 ff ff 	mov    -0xef0(%rbp),%rax
   1b495:	48 8b 00             	mov    (%rax),%rax
   1b498:	48 8b 00             	mov    (%rax),%rax
   1b49b:	48 8b 00             	mov    (%rax),%rax
   1b49e:	0f b6 d2             	movzbl %dl,%edx
   1b4a1:	89 10                	mov    %edx,(%rax)
   1b4a3:	8b 00                	mov    (%rax),%eax
   1b4a5:	85 c0                	test   %eax,%eax
   1b4a7:	0f 84 25 1b 00 00    	je     1cfd2 <func_40+0x2c00>
   1b4ad:	e9 0e 1b 00 00       	jmpq   1cfc0 <func_40+0x2bee>
   1b4b2:	48 8d 85 a0 f9 ff ff 	lea    -0x660(%rbp),%rax
   1b4b9:	48 8d 15 00 6c 00 00 	lea    0x6c00(%rip),%rdx        # 220c0 <g_2708+0x1e38>
   1b4c0:	b9 38 00 00 00       	mov    $0x38,%ecx
   1b4c5:	48 89 c7             	mov    %rax,%rdi
   1b4c8:	48 89 d6             	mov    %rdx,%rsi
   1b4cb:	f3 48 a5             	rep movsq %ds:(%rsi),%es:(%rdi)
   1b4ce:	c7 85 dc f0 ff ff ff 	movl   $0xffffffff,-0xf24(%rbp)
   1b4d5:	ff ff ff 
   1b4d8:	48 8d 05 b9 f9 00 00 	lea    0xf9b9(%rip),%rax        # 2ae98 <g_430>
   1b4df:	48 89 85 10 f2 ff ff 	mov    %rax,-0xdf0(%rbp)
   1b4e6:	48 8d 05 5b ad 00 00 	lea    0xad5b(%rip),%rax        # 26248 <g_397>
   1b4ed:	48 89 85 18 f2 ff ff 	mov    %rax,-0xde8(%rbp)
   1b4f4:	48 8d 85 30 f8 ff ff 	lea    -0x7d0(%rbp),%rax
   1b4fb:	48 8d 15 7e 6d 00 00 	lea    0x6d7e(%rip),%rdx        # 22280 <g_2708+0x1ff8>
   1b502:	b9 2d 00 00 00       	mov    $0x2d,%ecx
   1b507:	48 89 c7             	mov    %rax,%rdi
   1b50a:	48 89 d6             	mov    %rdx,%rsi
   1b50d:	f3 48 a5             	rep movsq %ds:(%rsi),%es:(%rdi)
   1b510:	48 8d 05 51 f9 00 00 	lea    0xf951(%rip),%rax        # 2ae68 <g_215>
   1b517:	48 89 85 40 f1 ff ff 	mov    %rax,-0xec0(%rbp)
   1b51e:	48 8d 85 90 f4 ff ff 	lea    -0xb70(%rbp),%rax
   1b525:	48 83 c0 50          	add    $0x50,%rax
   1b529:	48 89 85 20 f2 ff ff 	mov    %rax,-0xde0(%rbp)
   1b530:	c6 85 66 f0 ff ff fe 	movb   $0xfe,-0xf9a(%rbp)
   1b537:	48 8d 05 0a c9 00 00 	lea    0xc90a(%rip),%rax        # 27e48 <g_489>
   1b53e:	48 89 85 28 f2 ff ff 	mov    %rax,-0xdd8(%rbp)
   1b545:	48 8d 05 5c f9 00 00 	lea    0xf95c(%rip),%rax        # 2aea8 <g_614>
   1b54c:	48 89 85 30 f2 ff ff 	mov    %rax,-0xdd0(%rbp)
   1b553:	48 8d 05 4e f9 00 00 	lea    0xf94e(%rip),%rax        # 2aea8 <g_614>
   1b55a:	48 89 85 38 f2 ff ff 	mov    %rax,-0xdc8(%rbp)
   1b561:	48 c7 85 48 f1 ff ff 	movq   $0x0,-0xeb8(%rbp)
   1b568:	00 00 00 00 
   1b56c:	c7 85 e0 f0 ff ff 00 	movl   $0x0,-0xf20(%rbp)
   1b573:	00 00 00 
   1b576:	48 8d 85 08 f1 ff ff 	lea    -0xef8(%rbp),%rax
   1b57d:	48 89 85 50 f1 ff ff 	mov    %rax,-0xeb0(%rbp)
   1b584:	48 8d 85 50 f1 ff ff 	lea    -0xeb0(%rbp),%rax
   1b58b:	48 89 85 40 f2 ff ff 	mov    %rax,-0xdc0(%rbp)
   1b592:	48 8d 05 d7 f8 00 00 	lea    0xf8d7(%rip),%rax        # 2ae70 <g_240>
   1b599:	48 89 85 58 f1 ff ff 	mov    %rax,-0xea8(%rbp)
   1b5a0:	48 8b 05 59 c8 00 00 	mov    0xc859(%rip),%rax        # 27e00 <g_87>
   1b5a7:	0f b6 00             	movzbl (%rax),%eax
   1b5aa:	0f b6 c0             	movzbl %al,%eax
   1b5ad:	89 85 cc f9 ff ff    	mov    %eax,-0x634(%rbp)
   1b5b3:	8b 85 cc f9 ff ff    	mov    -0x634(%rbp),%eax
   1b5b9:	0f b6 c0             	movzbl %al,%eax
   1b5bc:	be 02 00 00 00       	mov    $0x2,%esi
   1b5c1:	89 c7                	mov    %eax,%edi
   1b5c3:	e8 84 16 ff ff       	callq  cc4c <safe_lshift_func_uint8_t_u_u>
   1b5c8:	84 c0                	test   %al,%al
   1b5ca:	74 0f                	je     1b5db <func_40+0x1209>
   1b5cc:	48 8b 05 2d c8 00 00 	mov    0xc82d(%rip),%rax        # 27e00 <g_87>
   1b5d3:	0f b6 00             	movzbl (%rax),%eax
   1b5d6:	e9 51 1a 00 00       	jmpq   1d02c <func_40+0x2c5a>
   1b5db:	66 c7 85 6a f0 ff ff 	movw   $0xfffa,-0xf96(%rbp)
   1b5e2:	fa ff 
   1b5e4:	48 8d 05 25 c8 00 00 	lea    0xc825(%rip),%rax        # 27e10 <g_396>
   1b5eb:	48 89 85 48 f2 ff ff 	mov    %rax,-0xdb8(%rbp)
   1b5f2:	48 8d 05 6d ab 00 00 	lea    0xab6d(%rip),%rax        # 26166 <g_164+0x2>
   1b5f9:	48 89 85 50 f2 ff ff 	mov    %rax,-0xdb0(%rbp)
   1b600:	48 8d 85 f0 f3 ff ff 	lea    -0xc10(%rbp),%rax
   1b607:	48 83 c0 14          	add    $0x14,%rax
   1b60b:	48 89 85 30 f7 ff ff 	mov    %rax,-0x8d0(%rbp)
   1b612:	48 c7 85 38 f7 ff ff 	movq   $0x0,-0x8c8(%rbp)
   1b619:	00 00 00 00 
   1b61d:	48 c7 85 40 f7 ff ff 	movq   $0x0,-0x8c0(%rbp)
   1b624:	00 00 00 00 
   1b628:	48 8d 85 f0 f3 ff ff 	lea    -0xc10(%rbp),%rax
   1b62f:	48 83 c0 14          	add    $0x14,%rax
   1b633:	48 89 85 48 f7 ff ff 	mov    %rax,-0x8b8(%rbp)
   1b63a:	48 8d 85 f0 f3 ff ff 	lea    -0xc10(%rbp),%rax
   1b641:	48 83 c0 1c          	add    $0x1c,%rax
   1b645:	48 89 85 50 f7 ff ff 	mov    %rax,-0x8b0(%rbp)
   1b64c:	48 8d 85 f0 f3 ff ff 	lea    -0xc10(%rbp),%rax
   1b653:	48 83 c0 08          	add    $0x8,%rax
   1b657:	48 89 85 58 f7 ff ff 	mov    %rax,-0x8a8(%rbp)
   1b65e:	48 c7 85 60 f7 ff ff 	movq   $0x0,-0x8a0(%rbp)
   1b665:	00 00 00 00 
   1b669:	48 c7 85 68 f7 ff ff 	movq   $0x0,-0x898(%rbp)
   1b670:	00 00 00 00 
   1b674:	48 8d 85 f0 f3 ff ff 	lea    -0xc10(%rbp),%rax
   1b67b:	48 83 c0 08          	add    $0x8,%rax
   1b67f:	48 89 85 70 f7 ff ff 	mov    %rax,-0x890(%rbp)
   1b686:	48 8d 85 f0 f3 ff ff 	lea    -0xc10(%rbp),%rax
   1b68d:	48 83 c0 14          	add    $0x14,%rax
   1b691:	48 89 85 78 f7 ff ff 	mov    %rax,-0x888(%rbp)
   1b698:	48 8d 05 11 ac 00 00 	lea    0xac11(%rip),%rax        # 262b0 <g_766>
   1b69f:	48 89 85 80 f7 ff ff 	mov    %rax,-0x880(%rbp)
   1b6a6:	48 8d 85 74 f0 ff ff 	lea    -0xf8c(%rbp),%rax
   1b6ad:	48 89 85 88 f7 ff ff 	mov    %rax,-0x878(%rbp)
   1b6b4:	48 8d 85 f0 f3 ff ff 	lea    -0xc10(%rbp),%rax
   1b6bb:	48 83 c0 10          	add    $0x10,%rax
   1b6bf:	48 89 85 90 f7 ff ff 	mov    %rax,-0x870(%rbp)
   1b6c6:	48 8d 85 f0 f3 ff ff 	lea    -0xc10(%rbp),%rax
   1b6cd:	48 83 c0 1c          	add    $0x1c,%rax
   1b6d1:	48 89 85 98 f7 ff ff 	mov    %rax,-0x868(%rbp)
   1b6d8:	48 c7 85 a0 f7 ff ff 	movq   $0x0,-0x860(%rbp)
   1b6df:	00 00 00 00 
   1b6e3:	48 8d 85 74 f0 ff ff 	lea    -0xf8c(%rbp),%rax
   1b6ea:	48 89 85 a8 f7 ff ff 	mov    %rax,-0x858(%rbp)
   1b6f1:	48 c7 85 b0 f7 ff ff 	movq   $0x0,-0x850(%rbp)
   1b6f8:	00 00 00 00 
   1b6fc:	48 8d 85 f0 f3 ff ff 	lea    -0xc10(%rbp),%rax
   1b703:	48 83 c0 14          	add    $0x14,%rax
   1b707:	48 89 85 b8 f7 ff ff 	mov    %rax,-0x848(%rbp)
   1b70e:	48 c7 85 c0 f7 ff ff 	movq   $0x0,-0x840(%rbp)
   1b715:	00 00 00 00 
   1b719:	48 c7 85 c8 f7 ff ff 	movq   $0x0,-0x838(%rbp)
   1b720:	00 00 00 00 
   1b724:	48 8d 85 f0 f3 ff ff 	lea    -0xc10(%rbp),%rax
   1b72b:	48 83 c0 14          	add    $0x14,%rax
   1b72f:	48 89 85 d0 f7 ff ff 	mov    %rax,-0x830(%rbp)
   1b736:	48 8d 85 f0 f3 ff ff 	lea    -0xc10(%rbp),%rax
   1b73d:	48 83 c0 08          	add    $0x8,%rax
   1b741:	48 89 85 d8 f7 ff ff 	mov    %rax,-0x828(%rbp)
   1b748:	48 8d 85 f0 f3 ff ff 	lea    -0xc10(%rbp),%rax
   1b74f:	48 83 c0 10          	add    $0x10,%rax
   1b753:	48 89 85 e0 f7 ff ff 	mov    %rax,-0x820(%rbp)
   1b75a:	48 8d 85 f0 f3 ff ff 	lea    -0xc10(%rbp),%rax
   1b761:	48 83 c0 14          	add    $0x14,%rax
   1b765:	48 89 85 e8 f7 ff ff 	mov    %rax,-0x818(%rbp)
   1b76c:	48 8d 85 f0 f3 ff ff 	lea    -0xc10(%rbp),%rax
   1b773:	48 83 c0 10          	add    $0x10,%rax
   1b777:	48 89 85 f0 f7 ff ff 	mov    %rax,-0x810(%rbp)
   1b77e:	48 c7 85 f8 f7 ff ff 	movq   $0x0,-0x808(%rbp)
   1b785:	00 00 00 00 
   1b789:	48 c7 85 00 f8 ff ff 	movq   $0x0,-0x800(%rbp)
   1b790:	00 00 00 00 
   1b794:	48 8d 85 f0 f3 ff ff 	lea    -0xc10(%rbp),%rax
   1b79b:	48 83 c0 08          	add    $0x8,%rax
   1b79f:	48 89 85 08 f8 ff ff 	mov    %rax,-0x7f8(%rbp)
   1b7a6:	48 c7 85 10 f8 ff ff 	movq   $0x0,-0x7f0(%rbp)
   1b7ad:	00 00 00 00 
   1b7b1:	48 8d 85 f0 f3 ff ff 	lea    -0xc10(%rbp),%rax
   1b7b8:	48 83 c0 14          	add    $0x14,%rax
   1b7bc:	48 89 85 18 f8 ff ff 	mov    %rax,-0x7e8(%rbp)
   1b7c3:	48 c7 85 20 f8 ff ff 	movq   $0x0,-0x7e0(%rbp)
   1b7ca:	00 00 00 00 
   1b7ce:	48 c7 85 28 f8 ff ff 	movq   $0x0,-0x7d8(%rbp)
   1b7d5:	00 00 00 00 
   1b7d9:	48 8d 05 c8 f6 00 00 	lea    0xf6c8(%rip),%rax        # 2aea8 <g_614>
   1b7e0:	48 89 85 60 f1 ff ff 	mov    %rax,-0xea0(%rbp)
   1b7e7:	48 c7 85 c0 f5 ff ff 	movq   $0x1,-0xa40(%rbp)
   1b7ee:	01 00 00 00 
   1b7f2:	48 c7 85 c8 f5 ff ff 	movq   $0x1,-0xa38(%rbp)
   1b7f9:	01 00 00 00 
   1b7fd:	48 b8 5d 9d 3e b7 2c 	movabs $0x7a7af22cb73e9d5d,%rax
   1b804:	f2 7a 7a 
   1b807:	48 89 85 d0 f5 ff ff 	mov    %rax,-0xa30(%rbp)
   1b80e:	48 bb ac 00 ff 42 b5 	movabs $0x86858bb542ff00ac,%rbx
   1b815:	8b 85 86 
   1b818:	48 89 9d d8 f5 ff ff 	mov    %rbx,-0xa28(%rbp)
   1b81f:	48 89 85 e0 f5 ff ff 	mov    %rax,-0xa20(%rbp)
   1b826:	48 89 85 e8 f5 ff ff 	mov    %rax,-0xa18(%rbp)
   1b82d:	48 89 85 f0 f5 ff ff 	mov    %rax,-0xa10(%rbp)
   1b834:	48 c7 85 f8 f5 ff ff 	movq   $0xfffffffffffffff6,-0xa08(%rbp)
   1b83b:	f6 ff ff ff 
   1b83f:	48 b9 04 59 36 3f af 	movabs $0x6f2638af3f365904,%rcx
   1b846:	38 26 6f 
   1b849:	48 89 8d 00 f6 ff ff 	mov    %rcx,-0xa00(%rbp)
   1b850:	48 89 9d 08 f6 ff ff 	mov    %rbx,-0x9f8(%rbp)
   1b857:	48 c7 85 10 f6 ff ff 	movq   $0xfffffffffffffff6,-0x9f0(%rbp)
   1b85e:	f6 ff ff ff 
   1b862:	48 89 9d 18 f6 ff ff 	mov    %rbx,-0x9e8(%rbp)
   1b869:	48 c7 85 20 f6 ff ff 	movq   $0x1,-0x9e0(%rbp)
   1b870:	01 00 00 00 
   1b874:	48 89 85 28 f6 ff ff 	mov    %rax,-0x9d8(%rbp)
   1b87b:	48 89 8d 30 f6 ff ff 	mov    %rcx,-0x9d0(%rbp)
   1b882:	48 c7 85 38 f6 ff ff 	movq   $0x1,-0x9c8(%rbp)
   1b889:	01 00 00 00 
   1b88d:	48 c7 85 40 f6 ff ff 	movq   $0x1,-0x9c0(%rbp)
   1b894:	01 00 00 00 
   1b898:	48 89 85 48 f6 ff ff 	mov    %rax,-0x9b8(%rbp)
   1b89f:	48 89 9d 50 f6 ff ff 	mov    %rbx,-0x9b0(%rbp)
   1b8a6:	48 89 85 58 f6 ff ff 	mov    %rax,-0x9a8(%rbp)
   1b8ad:	48 89 85 60 f6 ff ff 	mov    %rax,-0x9a0(%rbp)
   1b8b4:	c7 85 e4 f0 ff ff 28 	movl   $0xe5525028,-0xf1c(%rbp)
   1b8bb:	50 52 e5 
   1b8be:	c7 85 94 f0 ff ff 00 	movl   $0x0,-0xf6c(%rbp)
   1b8c5:	00 00 00 
   1b8c8:	eb 19                	jmp    1b8e3 <func_40+0x1511>
   1b8ca:	8b 85 94 f0 ff ff    	mov    -0xf6c(%rbp),%eax
   1b8d0:	48 98                	cltq   
   1b8d2:	66 c7 84 45 fa f2 ff 	movw   $0x0,-0xd06(%rbp,%rax,2)
   1b8d9:	ff 00 00 
   1b8dc:	83 85 94 f0 ff ff 01 	addl   $0x1,-0xf6c(%rbp)
   1b8e3:	83 bd 94 f0 ff ff 02 	cmpl   $0x2,-0xf6c(%rbp)
   1b8ea:	7e de                	jle    1b8ca <func_40+0x14f8>
   1b8ec:	48 c7 05 39 a9 00 00 	movq   $0x0,0xa939(%rip)        # 26230 <g_298>
   1b8f3:	00 00 00 00 
   1b8f7:	eb 76                	jmp    1b96f <func_40+0x159d>
   1b8f9:	48 8d 05 18 c5 00 00 	lea    0xc518(%rip),%rax        # 27e18 <g_410>
   1b900:	48 89 85 e0 f2 ff ff 	mov    %rax,-0xd20(%rbp)
   1b907:	c7 85 04 f1 ff ff 69 	movl   $0x123fd669,-0xefc(%rbp)
   1b90e:	d6 3f 12 
   1b911:	48 8d 05 4f a8 00 00 	lea    0xa84f(%rip),%rax        # 26167 <g_164+0x3>
   1b918:	48 89 85 e8 f2 ff ff 	mov    %rax,-0xd18(%rbp)
   1b91f:	c6 85 67 f0 ff ff 2c 	movb   $0x2c,-0xf99(%rbp)
   1b926:	48 8d 05 6b f5 00 00 	lea    0xf56b(%rip),%rax        # 2ae98 <g_430>
   1b92d:	48 89 85 f0 f2 ff ff 	mov    %rax,-0xd10(%rbp)
   1b934:	c7 85 98 f0 ff ff 00 	movl   $0x0,-0xf68(%rbp)
   1b93b:	00 00 00 
   1b93e:	eb 14                	jmp    1b954 <func_40+0x1582>
   1b940:	8b 85 98 f0 ff ff    	mov    -0xf68(%rbp),%eax
   1b946:	48 98                	cltq   
   1b948:	c6 44 05 c0 05       	movb   $0x5,-0x40(%rbp,%rax,1)
   1b94d:	83 85 98 f0 ff ff 01 	addl   $0x1,-0xf68(%rbp)
   1b954:	83 bd 98 f0 ff ff 07 	cmpl   $0x7,-0xf68(%rbp)
   1b95b:	7e e3                	jle    1b940 <func_40+0x156e>
   1b95d:	48 8b 05 cc a8 00 00 	mov    0xa8cc(%rip),%rax        # 26230 <g_298>
   1b964:	48 83 c0 01          	add    $0x1,%rax
   1b968:	48 89 05 c1 a8 00 00 	mov    %rax,0xa8c1(%rip)        # 26230 <g_298>
   1b96f:	48 8b 05 ba a8 00 00 	mov    0xa8ba(%rip),%rax        # 26230 <g_298>
   1b976:	48 83 f8 05          	cmp    $0x5,%rax
   1b97a:	0f 8e 79 ff ff ff    	jle    1b8f9 <func_40+0x1527>
   1b980:	48 8d 05 c1 c4 00 00 	lea    0xc4c1(%rip),%rax        # 27e48 <g_489>
   1b987:	48 8b 00             	mov    (%rax),%rax
   1b98a:	48 8d 95 58 f0 ff ff 	lea    -0xfa8(%rbp),%rdx
   1b991:	48 89 10             	mov    %rdx,(%rax)
   1b994:	48 8b 05 05 a9 00 00 	mov    0xa905(%rip),%rax        # 262a0 <g_548>
   1b99b:	48 85 c0             	test   %rax,%rax
   1b99e:	0f 85 b4 f9 ff ff    	jne    1b358 <func_40+0xf86>
   1b9a4:	48 8b 85 48 f2 ff ff 	mov    -0xdb8(%rbp),%rax
   1b9ab:	48 8b 00             	mov    (%rax),%rax
   1b9ae:	8b 00                	mov    (%rax),%eax
   1b9b0:	85 c0                	test   %eax,%eax
   1b9b2:	0f 84 5a 01 00 00    	je     1bb12 <func_40+0x1740>
   1b9b8:	c7 85 9c f0 ff ff 00 	movl   $0x0,-0xf64(%rbp)
   1b9bf:	00 00 00 
   1b9c2:	eb 1e                	jmp    1b9e2 <func_40+0x1610>
   1b9c4:	8b 85 9c f0 ff ff    	mov    -0xf64(%rbp),%eax
   1b9ca:	48 98                	cltq   
   1b9cc:	48 8d 15 ed a8 00 00 	lea    0xa8ed(%rip),%rdx        # 262c0 <g_997>
   1b9d3:	48 89 94 c5 50 f4 ff 	mov    %rdx,-0xbb0(%rbp,%rax,8)
   1b9da:	ff 
   1b9db:	83 85 9c f0 ff ff 01 	addl   $0x1,-0xf64(%rbp)
   1b9e2:	83 bd 9c f0 ff ff 02 	cmpl   $0x2,-0xf64(%rbp)
   1b9e9:	7e d9                	jle    1b9c4 <func_40+0x15f2>
   1b9eb:	66 c7 85 6a f0 ff ff 	movw   $0x0,-0xf96(%rbp)
   1b9f2:	00 00 
   1b9f4:	e9 f8 00 00 00       	jmpq   1baf1 <func_40+0x171f>
   1b9f9:	c7 85 a0 f0 ff ff 00 	movl   $0x0,-0xf60(%rbp)
   1ba00:	00 00 00 
   1ba03:	eb 46                	jmp    1ba4b <func_40+0x1679>
   1ba05:	c7 85 a4 f0 ff ff 00 	movl   $0x0,-0xf5c(%rbp)
   1ba0c:	00 00 00 
   1ba0f:	eb 2a                	jmp    1ba3b <func_40+0x1669>
   1ba11:	8b 85 a4 f0 ff ff    	mov    -0xf5c(%rbp),%eax
   1ba17:	48 63 d0             	movslq %eax,%rdx
   1ba1a:	8b 85 a0 f0 ff ff    	mov    -0xf60(%rbp),%eax
   1ba20:	48 98                	cltq   
   1ba22:	48 01 d0             	add    %rdx,%rax
   1ba25:	48 8d 15 34 a7 00 00 	lea    0xa734(%rip),%rdx        # 26160 <g_133>
   1ba2c:	48 89 94 c5 60 fb ff 	mov    %rdx,-0x4a0(%rbp,%rax,8)
   1ba33:	ff 
   1ba34:	83 85 a4 f0 ff ff 01 	addl   $0x1,-0xf5c(%rbp)
   1ba3b:	83 bd a4 f0 ff ff 00 	cmpl   $0x0,-0xf5c(%rbp)
   1ba42:	7e cd                	jle    1ba11 <func_40+0x163f>
   1ba44:	83 85 a0 f0 ff ff 01 	addl   $0x1,-0xf60(%rbp)
   1ba4b:	83 bd a0 f0 ff ff 03 	cmpl   $0x3,-0xf60(%rbp)
   1ba52:	7e b1                	jle    1ba05 <func_40+0x1633>
   1ba54:	48 8b 05 ed c3 00 00 	mov    0xc3ed(%rip),%rax        # 27e48 <g_489>
   1ba5b:	48 8b 95 70 fb ff ff 	mov    -0x490(%rbp),%rdx
   1ba62:	48 89 10             	mov    %rdx,(%rax)
   1ba65:	66 c7 05 82 a7 00 00 	movw   $0x2,0xa782(%rip)        # 261f0 <g_218>
   1ba6c:	02 00 
   1ba6e:	eb 55                	jmp    1bac5 <func_40+0x16f3>
   1ba70:	0f b7 05 79 a7 00 00 	movzwl 0xa779(%rip),%eax        # 261f0 <g_218>
   1ba77:	0f bf d0             	movswl %ax,%edx
   1ba7a:	0f b7 05 6f a7 00 00 	movzwl 0xa76f(%rip),%eax        # 261f0 <g_218>
   1ba81:	98                   	cwtl   
   1ba82:	83 c0 01             	add    $0x1,%eax
   1ba85:	48 98                	cltq   
   1ba87:	48 63 d2             	movslq %edx,%rdx
   1ba8a:	48 c1 e2 02          	shl    $0x2,%rdx
   1ba8e:	48 01 d0             	add    %rdx,%rax
   1ba91:	8b 84 85 f0 f3 ff ff 	mov    -0xc10(%rbp,%rax,4),%eax
   1ba98:	85 c0                	test   %eax,%eax
   1ba9a:	75 37                	jne    1bad3 <func_40+0x1701>
   1ba9c:	48 8b 05 bd cf 00 00 	mov    0xcfbd(%rip),%rax        # 28a60 <g_994>
   1baa3:	48 89 85 58 f4 ff ff 	mov    %rax,-0xba8(%rbp)
   1baaa:	8b 85 58 f0 ff ff    	mov    -0xfa8(%rbp),%eax
   1bab0:	85 c0                	test   %eax,%eax
   1bab2:	75 22                	jne    1bad6 <func_40+0x1704>
   1bab4:	0f b7 05 35 a7 00 00 	movzwl 0xa735(%rip),%eax        # 261f0 <g_218>
   1babb:	83 e8 01             	sub    $0x1,%eax
   1babe:	66 89 05 2b a7 00 00 	mov    %ax,0xa72b(%rip)        # 261f0 <g_218>
   1bac5:	0f b7 05 24 a7 00 00 	movzwl 0xa724(%rip),%eax        # 261f0 <g_218>
   1bacc:	66 85 c0             	test   %ax,%ax
   1bacf:	79 9f                	jns    1ba70 <func_40+0x169e>
   1bad1:	eb 04                	jmp    1bad7 <func_40+0x1705>
   1bad3:	90                   	nop
   1bad4:	eb 01                	jmp    1bad7 <func_40+0x1705>
   1bad6:	90                   	nop
   1bad7:	0f b7 85 6a f0 ff ff 	movzwl -0xf96(%rbp),%eax
   1bade:	be 04 00 00 00       	mov    $0x4,%esi
   1bae3:	89 c7                	mov    %eax,%edi
   1bae5:	e8 cc 0a ff ff       	callq  c5b6 <safe_add_func_int32_t_s_s>
   1baea:	66 89 85 6a f0 ff ff 	mov    %ax,-0xf96(%rbp)
   1baf1:	66 83 bd 6a f0 ff ff 	cmpw   $0x38,-0xf96(%rbp)
   1baf8:	38 
   1baf9:	0f 86 fa fe ff ff    	jbe    1b9f9 <func_40+0x1627>
   1baff:	48 8b 85 60 f1 ff ff 	mov    -0xea0(%rbp),%rax
   1bb06:	48 89 05 bb c7 00 00 	mov    %rax,0xc7bb(%rip)        # 282c8 <g_613>
   1bb0d:	e9 a2 14 00 00       	jmpq   1cfb4 <func_40+0x2be2>
   1bb12:	c7 45 c0 f9 f9 f9 f9 	movl   $0xf9f9f9f9,-0x40(%rbp)
   1bb19:	c7 85 a8 f0 ff ff 08 	movl   $0x8,-0xf58(%rbp)
   1bb20:	00 00 00 
   1bb23:	c7 85 e8 f0 ff ff 82 	movl   $0x625c882,-0xf18(%rbp)
   1bb2a:	c8 25 06 
   1bb2d:	48 8d 05 74 f3 00 00 	lea    0xf374(%rip),%rax        # 2aea8 <g_614>
   1bb34:	48 89 85 58 f2 ff ff 	mov    %rax,-0xda8(%rbp)
   1bb3b:	66 c7 85 08 f3 ff ff 	movw   $0x0,-0xcf8(%rbp)
   1bb42:	00 00 
   1bb44:	66 c7 85 0a f3 ff ff 	movw   $0x0,-0xcf6(%rbp)
   1bb4b:	00 00 
   1bb4d:	66 c7 85 0c f3 ff ff 	movw   $0x0,-0xcf4(%rbp)
   1bb54:	00 00 
   1bb56:	66 c7 85 0e f3 ff ff 	movw   $0x0,-0xcf2(%rbp)
   1bb5d:	00 00 
   1bb5f:	48 8d 85 28 f1 ff ff 	lea    -0xed8(%rbp),%rax
   1bb66:	48 89 85 68 f1 ff ff 	mov    %rax,-0xe98(%rbp)
   1bb6d:	48 c7 85 70 f1 ff ff 	movq   $0x0,-0xe90(%rbp)
   1bb74:	00 00 00 00 
   1bb78:	48 c7 85 78 f1 ff ff 	movq   $0x0,-0xe88(%rbp)
   1bb7f:	00 00 00 00 
   1bb83:	48 8d 85 78 f1 ff ff 	lea    -0xe88(%rbp),%rax
   1bb8a:	48 89 85 60 f2 ff ff 	mov    %rax,-0xda0(%rbp)
   1bb91:	c7 85 ec f0 ff ff 01 	movl   $0x1,-0xf14(%rbp)
   1bb98:	00 00 00 
   1bb9b:	c7 85 90 f3 ff ff 01 	movl   $0x1,-0xc70(%rbp)
   1bba2:	00 00 00 
   1bba5:	c7 85 94 f3 ff ff 35 	movl   $0x121ef335,-0xc6c(%rbp)
   1bbac:	f3 1e 12 
   1bbaf:	c7 85 98 f3 ff ff 01 	movl   $0x1,-0xc68(%rbp)
   1bbb6:	00 00 00 
   1bbb9:	c7 85 9c f3 ff ff 35 	movl   $0x121ef335,-0xc64(%rbp)
   1bbc0:	f3 1e 12 
   1bbc3:	c7 85 a0 f3 ff ff 01 	movl   $0x1,-0xc60(%rbp)
   1bbca:	00 00 00 
   1bbcd:	c7 85 a4 f3 ff ff 01 	movl   $0x1,-0xc5c(%rbp)
   1bbd4:	00 00 00 
   1bbd7:	c7 85 a8 f3 ff ff 35 	movl   $0x121ef335,-0xc58(%rbp)
   1bbde:	f3 1e 12 
   1bbe1:	c7 85 ac f3 ff ff 01 	movl   $0x1,-0xc54(%rbp)
   1bbe8:	00 00 00 
   1bbeb:	c7 85 b0 f3 ff ff 35 	movl   $0x121ef335,-0xc50(%rbp)
   1bbf2:	f3 1e 12 
   1bbf5:	c7 85 b4 f3 ff ff 01 	movl   $0x1,-0xc4c(%rbp)
   1bbfc:	00 00 00 
   1bbff:	c7 85 ac f0 ff ff 00 	movl   $0x0,-0xf54(%rbp)
   1bc06:	00 00 00 
   1bc09:	eb 1e                	jmp    1bc29 <func_40+0x1857>
   1bc0b:	8b 85 ac f0 ff ff    	mov    -0xf54(%rbp),%eax
   1bc11:	48 98                	cltq   
   1bc13:	48 8d 15 3a a6 00 00 	lea    0xa63a(%rip),%rdx        # 26254 <g_515>
   1bc1a:	48 89 94 c5 50 f4 ff 	mov    %rdx,-0xbb0(%rbp,%rax,8)
   1bc21:	ff 
   1bc22:	83 85 ac f0 ff ff 01 	addl   $0x1,-0xf54(%rbp)
   1bc29:	83 bd ac f0 ff ff 06 	cmpl   $0x6,-0xf54(%rbp)
   1bc30:	7e d9                	jle    1bc0b <func_40+0x1839>
   1bc32:	48 8b 85 40 f1 ff ff 	mov    -0xec0(%rbp),%rax
   1bc39:	48 85 c0             	test   %rax,%rax
   1bc3c:	0f 95 c0             	setne  %al
   1bc3f:	0f b6 d8             	movzbl %al,%ebx
   1bc42:	0f b6 85 5c f0 ff ff 	movzbl -0xfa4(%rbp),%eax
   1bc49:	44 0f be e0          	movsbl %al,%r12d
   1bc4d:	48 8b 85 48 f2 ff ff 	mov    -0xdb8(%rbp),%rax
   1bc54:	48 8b 00             	mov    (%rax),%rax
   1bc57:	8b 00                	mov    (%rax),%eax
   1bc59:	4c 63 e8             	movslq %eax,%r13
   1bc5c:	0f b6 45 c2          	movzbl -0x3e(%rbp),%eax
   1bc60:	3c 01                	cmp    $0x1,%al
   1bc62:	0f 95 c0             	setne  %al
   1bc65:	0f b6 c0             	movzbl %al,%eax
   1bc68:	89 c7                	mov    %eax,%edi
   1bc6a:	e8 27 09 ff ff       	callq  c596 <safe_unary_minus_func_int32_t_s>
   1bc6f:	0f b7 c0             	movzwl %ax,%eax
   1bc72:	be 02 00 00 00       	mov    $0x2,%esi
   1bc77:	89 c7                	mov    %eax,%edi
   1bc79:	e8 fc 11 ff ff       	callq  ce7a <safe_rshift_func_uint16_t_u_u>
   1bc7e:	0f b6 c0             	movzbl %al,%eax
   1bc81:	89 c7                	mov    %eax,%edi
   1bc83:	e8 bd 0e ff ff       	callq  cb45 <safe_unary_minus_func_uint8_t_u>
   1bc88:	48 8b 95 28 f1 ff ff 	mov    -0xed8(%rbp),%rdx
   1bc8f:	48 8b 0a             	mov    (%rdx),%rcx
   1bc92:	0f b6 d0             	movzbl %al,%edx
   1bc95:	48 8b 85 28 f1 ff ff 	mov    -0xed8(%rbp),%rax
   1bc9c:	48 09 ca             	or     %rcx,%rdx
   1bc9f:	48 89 10             	mov    %rdx,(%rax)
   1bca2:	48 8b 00             	mov    (%rax),%rax
   1bca5:	48 ba 99 e4 d8 47 77 	movabs $0xbaf1737747d8e499,%rdx
   1bcac:	73 f1 ba 
   1bcaf:	48 39 d0             	cmp    %rdx,%rax
   1bcb2:	0f 94 c0             	sete   %al
   1bcb5:	0f b6 c0             	movzbl %al,%eax
   1bcb8:	48 8b 95 08 f6 ff ff 	mov    -0x9f8(%rbp),%rdx
   1bcbf:	48 89 c6             	mov    %rax,%rsi
   1bcc2:	48 89 d7             	mov    %rdx,%rdi
   1bcc5:	e8 77 0b ff ff       	callq  c841 <safe_add_func_int64_t_s_s>
   1bcca:	49 39 c5             	cmp    %rax,%r13
   1bccd:	0f 94 c2             	sete   %dl
   1bcd0:	48 8b 85 48 f2 ff ff 	mov    -0xdb8(%rbp),%rax
   1bcd7:	48 8b 00             	mov    (%rax),%rax
   1bcda:	0f b6 d2             	movzbl %dl,%edx
   1bcdd:	89 10                	mov    %edx,(%rax)
   1bcdf:	8b 00                	mov    (%rax),%eax
   1bce1:	48 63 d0             	movslq %eax,%rdx
   1bce4:	48 8b 85 08 f6 ff ff 	mov    -0x9f8(%rbp),%rax
   1bceb:	48 39 c2             	cmp    %rax,%rdx
   1bcee:	0f 92 c0             	setb   %al
   1bcf1:	0f b6 c0             	movzbl %al,%eax
   1bcf4:	41 39 c4             	cmp    %eax,%r12d
   1bcf7:	74 1c                	je     1bd15 <func_40+0x1943>
   1bcf9:	48 8b 05 40 c1 00 00 	mov    0xc140(%rip),%rax        # 27e40 <g_479>
   1bd00:	48 8b 00             	mov    (%rax),%rax
   1bd03:	48 8b 00             	mov    (%rax),%rax
   1bd06:	0f b7 00             	movzwl (%rax),%eax
   1bd09:	66 85 c0             	test   %ax,%ax
   1bd0c:	74 07                	je     1bd15 <func_40+0x1943>
   1bd0e:	b8 01 00 00 00       	mov    $0x1,%eax
   1bd13:	eb 05                	jmp    1bd1a <func_40+0x1948>
   1bd15:	b8 00 00 00 00       	mov    $0x0,%eax
   1bd1a:	48 63 d0             	movslq %eax,%rdx
   1bd1d:	48 8b 85 50 f0 ff ff 	mov    -0xfb0(%rbp),%rax
   1bd24:	48 89 d6             	mov    %rdx,%rsi
   1bd27:	48 89 c7             	mov    %rax,%rdi
   1bd2a:	e8 12 0b ff ff       	callq  c841 <safe_add_func_int64_t_s_s>
   1bd2f:	48 85 c0             	test   %rax,%rax
   1bd32:	0f 94 c0             	sete   %al
   1bd35:	0f b6 d0             	movzbl %al,%edx
   1bd38:	48 8b 05 d9 c0 00 00 	mov    0xc0d9(%rip),%rax        # 27e18 <g_410>
   1bd3f:	0f b6 00             	movzbl (%rax),%eax
   1bd42:	0f be c0             	movsbl %al,%eax
   1bd45:	89 d6                	mov    %edx,%esi
   1bd47:	89 c7                	mov    %eax,%edi
   1bd49:	e8 1e 06 ff ff       	callq  c36c <safe_rshift_func_int8_t_s_u>
   1bd4e:	48 8b 85 48 f2 ff ff 	mov    -0xdb8(%rbp),%rax
   1bd55:	48 8b 00             	mov    (%rax),%rax
   1bd58:	8b 00                	mov    (%rax),%eax
   1bd5a:	21 85 a8 f0 ff ff    	and    %eax,-0xf58(%rbp)
   1bd60:	48 8b 05 99 c0 00 00 	mov    0xc099(%rip),%rax        # 27e00 <g_87>
   1bd67:	0f b6 00             	movzbl (%rax),%eax
   1bd6a:	0f b6 c0             	movzbl %al,%eax
   1bd6d:	be 01 00 00 00       	mov    $0x1,%esi
   1bd72:	89 c7                	mov    %eax,%edi
   1bd74:	e8 45 0f ff ff       	callq  ccbe <safe_rshift_func_uint8_t_u_u>
   1bd79:	89 c2                	mov    %eax,%edx
   1bd7b:	48 8b 85 40 f1 ff ff 	mov    -0xec0(%rbp),%rax
   1bd82:	0f b6 d2             	movzbl %dl,%edx
   1bd85:	66 89 10             	mov    %dx,(%rax)
   1bd88:	0f b7 00             	movzwl (%rax),%eax
   1bd8b:	66 89 85 fa f2 ff ff 	mov    %ax,-0xd06(%rbp)
   1bd92:	0f b7 95 fa f2 ff ff 	movzwl -0xd06(%rbp),%edx
   1bd99:	0f b6 45 c2          	movzbl -0x3e(%rbp),%eax
   1bd9d:	0f b6 c0             	movzbl %al,%eax
   1bda0:	66 39 c2             	cmp    %ax,%dx
   1bda3:	0f 93 c2             	setae  %dl
   1bda6:	48 8b 05 7b c0 00 00 	mov    0xc07b(%rip),%rax        # 27e28 <g_433>
   1bdad:	0f b6 d2             	movzbl %dl,%edx
   1bdb0:	89 10                	mov    %edx,(%rax)
   1bdb2:	8b 00                	mov    (%rax),%eax
   1bdb4:	39 c3                	cmp    %eax,%ebx
   1bdb6:	0f 85 2b 03 00 00    	jne    1c0e7 <func_40+0x1d15>
   1bdbc:	48 8d 05 9d a3 00 00 	lea    0xa39d(%rip),%rax        # 26160 <g_133>
   1bdc3:	48 89 85 b0 f2 ff ff 	mov    %rax,-0xd50(%rbp)
   1bdca:	48 8d 85 60 fb ff ff 	lea    -0x4a0(%rbp),%rax
   1bdd1:	48 8d 15 88 b9 00 00 	lea    0xb988(%rip),%rdx        # 27760 <g_4408+0x1380>
   1bdd8:	b9 8c 00 00 00       	mov    $0x8c,%ecx
   1bddd:	48 89 c7             	mov    %rax,%rdi
   1bde0:	48 89 d6             	mov    %rdx,%rsi
   1bde3:	f3 48 a5             	rep movsq %ds:(%rsi),%es:(%rdi)
   1bde6:	66 c7 85 72 f0 ff ff 	movw   $0x71b7,-0xf8e(%rbp)
   1bded:	b7 71 
   1bdef:	48 8d 05 24 a4 00 00 	lea    0xa424(%rip),%rax        # 2621a <g_266+0xa>
   1bdf6:	48 89 85 b8 f2 ff ff 	mov    %rax,-0xd48(%rbp)
   1bdfd:	48 8b 85 10 f1 ff ff 	mov    -0xef0(%rbp),%rax
   1be04:	48 8b 00             	mov    (%rax),%rax
   1be07:	48 8b 00             	mov    (%rax),%rax
   1be0a:	48 8b 95 b0 f2 ff ff 	mov    -0xd50(%rbp),%rdx
   1be11:	48 89 10             	mov    %rdx,(%rax)
   1be14:	0f b6 85 5c f0 ff ff 	movzbl -0xfa4(%rbp),%eax
   1be1b:	0f be d0             	movsbl %al,%edx
   1be1e:	48 8b 05 f3 bf 00 00 	mov    0xbff3(%rip),%rax        # 27e18 <g_410>
   1be25:	0f b6 00             	movzbl (%rax),%eax
   1be28:	0f be c0             	movsbl %al,%eax
   1be2b:	21 85 a8 f0 ff ff    	and    %eax,-0xf58(%rbp)
   1be31:	8b 85 a8 f0 ff ff    	mov    -0xf58(%rbp),%eax
   1be37:	0f be c0             	movsbl %al,%eax
   1be3a:	89 d6                	mov    %edx,%esi
   1be3c:	89 c7                	mov    %eax,%edi
   1be3e:	e8 cf 03 ff ff       	callq  c212 <safe_mul_func_int8_t_s_s>
   1be43:	48 8b 05 1e cc 00 00 	mov    0xcc1e(%rip),%rax        # 28a68 <g_1019>
   1be4a:	48 89 85 20 f2 ff ff 	mov    %rax,-0xde0(%rbp)
   1be51:	48 8d 85 90 f4 ff ff 	lea    -0xb70(%rbp),%rax
   1be58:	48 83 c0 30          	add    $0x30,%rax
   1be5c:	48 39 85 20 f2 ff ff 	cmp    %rax,-0xde0(%rbp)
   1be63:	0f 94 c0             	sete   %al
   1be66:	0f b6 c0             	movzbl %al,%eax
   1be69:	89 85 e8 f0 ff ff    	mov    %eax,-0xf18(%rbp)
   1be6f:	83 bd e8 f0 ff ff 00 	cmpl   $0x0,-0xf18(%rbp)
   1be76:	75 0f                	jne    1be87 <func_40+0x1ab5>
   1be78:	48 8b 05 b1 bf 00 00 	mov    0xbfb1(%rip),%rax        # 27e30 <g_481>
   1be7f:	0f b7 00             	movzwl (%rax),%eax
   1be82:	66 85 c0             	test   %ax,%ax
   1be85:	74 07                	je     1be8e <func_40+0x1abc>
   1be87:	ba 01 00 00 00       	mov    $0x1,%edx
   1be8c:	eb 05                	jmp    1be93 <func_40+0x1ac1>
   1be8e:	ba 00 00 00 00       	mov    $0x0,%edx
   1be93:	8b 85 58 f0 ff ff    	mov    -0xfa8(%rbp),%eax
   1be99:	21 d0                	and    %edx,%eax
   1be9b:	89 85 58 f0 ff ff    	mov    %eax,-0xfa8(%rbp)
   1bea1:	c7 05 dd ef 00 00 00 	movl   $0x0,0xefdd(%rip)        # 2ae88 <g_421>
   1bea8:	00 00 00 
   1beab:	90                   	nop
   1beac:	8b 05 d6 ef 00 00    	mov    0xefd6(%rip),%eax        # 2ae88 <g_421>
   1beb2:	83 f8 31             	cmp    $0x31,%eax
   1beb5:	0f 87 c7 00 00 00    	ja     1bf82 <func_40+0x1bb0>
   1bebb:	48 83 bd b0 f1 ff ff 	cmpq   $0x0,-0xe50(%rbp)
   1bec2:	00 
   1bec3:	0f 94 c0             	sete   %al
   1bec6:	0f b6 d8             	movzbl %al,%ebx
   1bec9:	be 00 00 00 00       	mov    $0x0,%esi
   1bece:	bf 00 00 00 00       	mov    $0x0,%edi
   1bed3:	e8 e6 0d ff ff       	callq  ccbe <safe_rshift_func_uint8_t_u_u>
   1bed8:	0f b6 c0             	movzbl %al,%eax
   1bedb:	39 c3                	cmp    %eax,%ebx
   1bedd:	0f 94 c0             	sete   %al
   1bee0:	0f b6 c0             	movzbl %al,%eax
   1bee3:	89 c7                	mov    %eax,%edi
   1bee5:	e8 b3 04 ff ff       	callq  c39d <safe_unary_minus_func_int16_t_s>
   1beea:	66 85 c0             	test   %ax,%ax
   1beed:	74 49                	je     1bf38 <func_40+0x1b66>
   1beef:	48 8b 85 18 f1 ff ff 	mov    -0xee8(%rbp),%rax
   1bef6:	48 8b 00             	mov    (%rax),%rax
   1bef9:	8b 00                	mov    (%rax),%eax
   1befb:	85 c0                	test   %eax,%eax
   1befd:	74 39                	je     1bf38 <func_40+0x1b66>
   1beff:	8b 05 4b a3 00 00    	mov    0xa34b(%rip),%eax        # 26250 <g_452>
   1bf05:	0f be d0             	movsbl %al,%edx
   1bf08:	48 8b 05 59 cb 00 00 	mov    0xcb59(%rip),%rax        # 28a68 <g_1019>
   1bf0f:	48 8b 08             	mov    (%rax),%rcx
   1bf12:	48 8d 85 60 f1 ff ff 	lea    -0xea0(%rbp),%rax
   1bf19:	48 39 c1             	cmp    %rax,%rcx
   1bf1c:	0f 94 c1             	sete   %cl
   1bf1f:	48 8b 05 f2 be 00 00 	mov    0xbef2(%rip),%rax        # 27e18 <g_410>
   1bf26:	88 08                	mov    %cl,(%rax)
   1bf28:	0f b6 00             	movzbl (%rax),%eax
   1bf2b:	0f be c0             	movsbl %al,%eax
   1bf2e:	89 d6                	mov    %edx,%esi
   1bf30:	89 c7                	mov    %eax,%edi
   1bf32:	e8 33 03 ff ff       	callq  c26a <safe_div_func_int8_t_s_s>
   1bf37:	90                   	nop
   1bf38:	b8 00 00 00 00       	mov    $0x0,%eax
   1bf3d:	0f b6 c0             	movzbl %al,%eax
   1bf40:	89 c7                	mov    %eax,%edi
   1bf42:	e8 fe 0b ff ff       	callq  cb45 <safe_unary_minus_func_uint8_t_u>
   1bf47:	89 c2                	mov    %eax,%edx
   1bf49:	48 8b 85 48 f2 ff ff 	mov    -0xdb8(%rbp),%rax
   1bf50:	48 8b 00             	mov    (%rax),%rax
   1bf53:	0f b6 d2             	movzbl %dl,%edx
   1bf56:	89 10                	mov    %edx,(%rax)
   1bf58:	48 8b 15 b1 be 00 00 	mov    0xbeb1(%rip),%rdx        # 27e10 <g_396>
   1bf5f:	48 8b 85 10 f1 ff ff 	mov    -0xef0(%rbp),%rax
   1bf66:	48 8b 00             	mov    (%rax),%rax
   1bf69:	48 8b 00             	mov    (%rax),%rax
   1bf6c:	48 8b 00             	mov    (%rax),%rax
   1bf6f:	8b 12                	mov    (%rdx),%edx
   1bf71:	89 10                	mov    %edx,(%rax)
   1bf73:	48 8b 05 86 be 00 00 	mov    0xbe86(%rip),%rax        # 27e00 <g_87>
   1bf7a:	0f b6 00             	movzbl (%rax),%eax
   1bf7d:	e9 aa 10 00 00       	jmpq   1d02c <func_40+0x2c5a>
   1bf82:	0f b6 95 66 f0 ff ff 	movzbl -0xf9a(%rbp),%edx
   1bf89:	48 8b 05 88 be 00 00 	mov    0xbe88(%rip),%rax        # 27e18 <g_410>
   1bf90:	0f b6 00             	movzbl (%rax),%eax
   1bf93:	0f be c0             	movsbl %al,%eax
   1bf96:	89 d6                	mov    %edx,%esi
   1bf98:	89 c7                	mov    %eax,%edi
   1bf9a:	e8 02 03 ff ff       	callq  c2a1 <safe_lshift_func_int8_t_s_s>
   1bf9f:	66 98                	cbtw   
   1bfa1:	0f b7 c0             	movzwl %ax,%eax
   1bfa4:	be 09 00 00 00       	mov    $0x9,%esi
   1bfa9:	89 c7                	mov    %eax,%edi
   1bfab:	e8 98 0e ff ff       	callq  ce48 <safe_rshift_func_uint16_t_u_s>
   1bfb0:	41 89 c4             	mov    %eax,%r12d
   1bfb3:	48 8b 85 48 f2 ff ff 	mov    -0xdb8(%rbp),%rax
   1bfba:	48 8b 00             	mov    (%rax),%rax
   1bfbd:	8b 00                	mov    (%rax),%eax
   1bfbf:	0f b6 d0             	movzbl %al,%edx
   1bfc2:	48 8d 05 7f be 00 00 	lea    0xbe7f(%rip),%rax        # 27e48 <g_489>
   1bfc9:	48 8b 00             	mov    (%rax),%rax
   1bfcc:	48 8b 00             	mov    (%rax),%rax
   1bfcf:	8b 08                	mov    (%rax),%ecx
   1bfd1:	0f b7 85 72 f0 ff ff 	movzwl -0xf8e(%rbp),%eax
   1bfd8:	31 c8                	xor    %ecx,%eax
   1bfda:	83 f8 f8             	cmp    $0xfffffff8,%eax
   1bfdd:	74 0e                	je     1bfed <func_40+0x1c1b>
   1bfdf:	48 8b 05 1a be 00 00 	mov    0xbe1a(%rip),%rax        # 27e00 <g_87>
   1bfe6:	0f b6 00             	movzbl (%rax),%eax
   1bfe9:	84 c0                	test   %al,%al
   1bfeb:	74 07                	je     1bff4 <func_40+0x1c22>
   1bfed:	b8 01 00 00 00       	mov    $0x1,%eax
   1bff2:	eb 05                	jmp    1bff9 <func_40+0x1c27>
   1bff4:	b8 00 00 00 00       	mov    $0x0,%eax
   1bff9:	0f b6 c0             	movzbl %al,%eax
   1bffc:	89 d6                	mov    %edx,%esi
   1bffe:	89 c7                	mov    %eax,%edi
   1c000:	e8 d6 0b ff ff       	callq  cbdb <safe_div_func_uint8_t_u_u>
   1c005:	48 8b 15 f4 bd 00 00 	mov    0xbdf4(%rip),%rdx        # 27e00 <g_87>
   1c00c:	0f b6 12             	movzbl (%rdx),%edx
   1c00f:	38 d0                	cmp    %dl,%al
   1c011:	75 0d                	jne    1c020 <func_40+0x1c4e>
   1c013:	48 8b 85 b0 f2 ff ff 	mov    -0xd50(%rbp),%rax
   1c01a:	8b 00                	mov    (%rax),%eax
   1c01c:	85 c0                	test   %eax,%eax
   1c01e:	74 07                	je     1c027 <func_40+0x1c55>
   1c020:	b8 01 00 00 00       	mov    $0x1,%eax
   1c025:	eb 05                	jmp    1c02c <func_40+0x1c5a>
   1c027:	b8 00 00 00 00       	mov    $0x0,%eax
   1c02c:	89 c2                	mov    %eax,%edx
   1c02e:	48 8b 85 a8 f1 ff ff 	mov    -0xe58(%rbp),%rax
   1c035:	66 89 10             	mov    %dx,(%rax)
   1c038:	48 8b 85 a8 f1 ff ff 	mov    -0xe58(%rbp),%rax
   1c03f:	0f b7 00             	movzwl (%rax),%eax
   1c042:	0f b7 d0             	movzwl %ax,%edx
   1c045:	48 8b 85 48 f2 ff ff 	mov    -0xdb8(%rbp),%rax
   1c04c:	48 8b 00             	mov    (%rax),%rax
   1c04f:	8b 00                	mov    (%rax),%eax
   1c051:	39 c2                	cmp    %eax,%edx
   1c053:	0f 9d c0             	setge  %al
   1c056:	0f b6 d0             	movzbl %al,%edx
   1c059:	48 8b 85 b8 f2 ff ff 	mov    -0xd48(%rbp),%rax
   1c060:	66 89 10             	mov    %dx,(%rax)
   1c063:	0f b6 45 c2          	movzbl -0x3e(%rbp),%eax
   1c067:	0f b6 d8             	movzbl %al,%ebx
   1c06a:	48 8b 85 18 f2 ff ff 	mov    -0xde8(%rbp),%rax
   1c071:	8b 00                	mov    (%rax),%eax
   1c073:	89 c2                	mov    %eax,%edx
   1c075:	0f b6 85 5c f0 ff ff 	movzbl -0xfa4(%rbp),%eax
   1c07c:	31 d0                	xor    %edx,%eax
   1c07e:	0f be d0             	movsbl %al,%edx
   1c081:	48 8b 05 90 bd 00 00 	mov    0xbd90(%rip),%rax        # 27e18 <g_410>
   1c088:	0f b6 00             	movzbl (%rax),%eax
   1c08b:	0f be c0             	movsbl %al,%eax
   1c08e:	89 d6                	mov    %edx,%esi
   1c090:	89 c7                	mov    %eax,%edi
   1c092:	e8 9a 01 ff ff       	callq  c231 <safe_mod_func_int8_t_s_s>
   1c097:	66 98                	cbtw   
   1c099:	0f b7 c0             	movzwl %ax,%eax
   1c09c:	89 de                	mov    %ebx,%esi
   1c09e:	89 c7                	mov    %eax,%edi
   1c0a0:	e8 e9 0c ff ff       	callq  cd8e <safe_div_func_uint16_t_u_u>
   1c0a5:	66 41 39 c4          	cmp    %ax,%r12w
   1c0a9:	0f 94 c0             	sete   %al
   1c0ac:	0f b6 d0             	movzbl %al,%edx
   1c0af:	48 8b 05 82 a1 00 00 	mov    0xa182(%rip),%rax        # 26238 <g_302>
   1c0b6:	0f b7 c0             	movzwl %ax,%eax
   1c0b9:	89 d6                	mov    %edx,%esi
   1c0bb:	89 c7                	mov    %eax,%edi
   1c0bd:	e8 5d 0c ff ff       	callq  cd1f <safe_sub_func_uint16_t_u_u>
   1c0c2:	0f b7 c0             	movzwl %ax,%eax
   1c0c5:	48 ba 24 2c f5 fa e4 	movabs $0xb276bee4faf52c24,%rdx
   1c0cc:	be 76 b2 
   1c0cf:	48 09 d0             	or     %rdx,%rax
   1c0d2:	89 c2                	mov    %eax,%edx
   1c0d4:	8b 85 e8 f0 ff ff    	mov    -0xf18(%rbp),%eax
   1c0da:	21 d0                	and    %edx,%eax
   1c0dc:	89 85 e8 f0 ff ff    	mov    %eax,-0xf18(%rbp)
   1c0e2:	e9 b5 09 00 00       	jmpq   1ca9c <func_40+0x26ca>
   1c0e7:	48 8d 05 2a bd 00 00 	lea    0xbd2a(%rip),%rax        # 27e18 <g_410>
   1c0ee:	48 89 85 80 f1 ff ff 	mov    %rax,-0xe80(%rbp)
   1c0f5:	48 8d 85 80 f1 ff ff 	lea    -0xe80(%rbp),%rax
   1c0fc:	48 89 85 68 f2 ff ff 	mov    %rax,-0xd98(%rbp)
   1c103:	48 8d 85 30 f1 ff ff 	lea    -0xed0(%rbp),%rax
   1c10a:	48 89 85 70 f2 ff ff 	mov    %rax,-0xd90(%rbp)
   1c111:	c7 85 f0 f0 ff ff ff 	movl   $0xffffffff,-0xf10(%rbp)
   1c118:	ff ff ff 
   1c11b:	48 8d 85 40 f1 ff ff 	lea    -0xec0(%rbp),%rax
   1c122:	48 89 85 88 f1 ff ff 	mov    %rax,-0xe78(%rbp)
   1c129:	48 8d 05 08 a1 00 00 	lea    0xa108(%rip),%rax        # 26238 <g_302>
   1c130:	48 89 85 78 f2 ff ff 	mov    %rax,-0xd88(%rbp)
   1c137:	48 8d 05 d2 bc 00 00 	lea    0xbcd2(%rip),%rax        # 27e10 <g_396>
   1c13e:	48 89 85 80 f2 ff ff 	mov    %rax,-0xd80(%rbp)
   1c145:	c7 85 c0 f3 ff ff 00 	movl   $0x0,-0xc40(%rbp)
   1c14c:	00 00 00 
   1c14f:	c7 85 c4 f3 ff ff 07 	movl   $0x7,-0xc3c(%rbp)
   1c156:	00 00 00 
   1c159:	c7 85 c8 f3 ff ff 00 	movl   $0x0,-0xc38(%rbp)
   1c160:	00 00 00 
   1c163:	c7 85 cc f3 ff ff 00 	movl   $0x0,-0xc34(%rbp)
   1c16a:	00 00 00 
   1c16d:	c7 85 d0 f3 ff ff 07 	movl   $0x7,-0xc30(%rbp)
   1c174:	00 00 00 
   1c177:	c7 85 d4 f3 ff ff 00 	movl   $0x0,-0xc2c(%rbp)
   1c17e:	00 00 00 
   1c181:	c7 85 d8 f3 ff ff 00 	movl   $0x0,-0xc28(%rbp)
   1c188:	00 00 00 
   1c18b:	c7 85 dc f3 ff ff 07 	movl   $0x7,-0xc24(%rbp)
   1c192:	00 00 00 
   1c195:	83 bd a8 f0 ff ff 00 	cmpl   $0x0,-0xf58(%rbp)
   1c19c:	0f 84 fe 00 00 00    	je     1c2a0 <func_40+0x1ece>
   1c1a2:	48 8b 85 18 f1 ff ff 	mov    -0xee8(%rbp),%rax
   1c1a9:	48 8b 00             	mov    (%rax),%rax
   1c1ac:	8b 00                	mov    (%rax),%eax
   1c1ae:	0f b6 c0             	movzbl %al,%eax
   1c1b1:	be 06 00 00 00       	mov    $0x6,%esi
   1c1b6:	89 c7                	mov    %eax,%edi
   1c1b8:	e8 01 0b ff ff       	callq  ccbe <safe_rshift_func_uint8_t_u_u>
   1c1bd:	0f b6 d8             	movzbl %al,%ebx
   1c1c0:	48 8b 95 80 f1 ff ff 	mov    -0xe80(%rbp),%rdx
   1c1c7:	48 8b 85 68 f2 ff ff 	mov    -0xd98(%rbp),%rax
   1c1ce:	48 89 10             	mov    %rdx,(%rax)
   1c1d1:	48 8b 85 68 f2 ff ff 	mov    -0xd98(%rbp),%rax
   1c1d8:	48 8b 08             	mov    (%rax),%rcx
   1c1db:	48 8b 95 30 f1 ff ff 	mov    -0xed0(%rbp),%rdx
   1c1e2:	48 8b 85 70 f2 ff ff 	mov    -0xd90(%rbp),%rax
   1c1e9:	48 89 10             	mov    %rdx,(%rax)
   1c1ec:	48 8b 85 70 f2 ff ff 	mov    -0xd90(%rbp),%rax
   1c1f3:	48 8b 00             	mov    (%rax),%rax
   1c1f6:	48 39 c1             	cmp    %rax,%rcx
   1c1f9:	74 79                	je     1c274 <func_40+0x1ea2>
   1c1fb:	48 8b 95 70 f4 ff ff 	mov    -0xb90(%rbp),%rdx
   1c202:	48 8b 85 10 f2 ff ff 	mov    -0xdf0(%rbp),%rax
   1c209:	48 8b 00             	mov    (%rax),%rax
   1c20c:	48 39 c2             	cmp    %rax,%rdx
   1c20f:	0f 94 c0             	sete   %al
   1c212:	0f b6 d0             	movzbl %al,%edx
   1c215:	48 8b 85 28 f1 ff ff 	mov    -0xed8(%rbp),%rax
   1c21c:	48 8b 08             	mov    (%rax),%rcx
   1c21f:	48 8b 85 28 f1 ff ff 	mov    -0xed8(%rbp),%rax
   1c226:	48 f7 d1             	not    %rcx
   1c229:	48 89 08             	mov    %rcx,(%rax)
   1c22c:	48 8b 00             	mov    (%rax),%rax
   1c22f:	48 89 d6             	mov    %rdx,%rsi
   1c232:	48 89 c7             	mov    %rax,%rdi
   1c235:	e8 11 0e ff ff       	callq  d04b <safe_sub_func_uint64_t_u_u>
   1c23a:	be c6 82 9e 83       	mov    $0x839e82c6,%esi
   1c23f:	89 c7                	mov    %eax,%edi
   1c241:	e8 70 03 ff ff       	callq  c5b6 <safe_add_func_int32_t_s_s>
   1c246:	c7 85 e8 f0 ff ff 00 	movl   $0x0,-0xf18(%rbp)
   1c24d:	00 00 00 
   1c250:	c7 85 f0 f0 ff ff 00 	movl   $0x0,-0xf10(%rbp)
   1c257:	00 00 00 
   1c25a:	83 bd f0 f0 ff ff 00 	cmpl   $0x0,-0xf10(%rbp)
   1c261:	75 0a                	jne    1c26d <func_40+0x1e9b>
   1c263:	8b 05 5f ec 00 00    	mov    0xec5f(%rip),%eax        # 2aec8 <g_1067>
   1c269:	85 c0                	test   %eax,%eax
   1c26b:	74 07                	je     1c274 <func_40+0x1ea2>
   1c26d:	ba 01 00 00 00       	mov    $0x1,%edx
   1c272:	eb 05                	jmp    1c279 <func_40+0x1ea7>
   1c274:	ba 00 00 00 00       	mov    $0x0,%edx
   1c279:	8b 85 58 f0 ff ff    	mov    -0xfa8(%rbp),%eax
   1c27f:	39 c2                	cmp    %eax,%edx
   1c281:	0f 9c c0             	setl   %al
   1c284:	0f b6 c0             	movzbl %al,%eax
   1c287:	39 c3                	cmp    %eax,%ebx
   1c289:	74 15                	je     1c2a0 <func_40+0x1ece>
   1c28b:	c7 85 f4 f0 ff ff 8b 	movl   $0xb704da8b,-0xf0c(%rbp)
   1c292:	da 04 b7 
   1c295:	8b 85 f4 f0 ff ff    	mov    -0xf0c(%rbp),%eax
   1c29b:	e9 8c 0d 00 00       	jmpq   1d02c <func_40+0x2c5a>
   1c2a0:	48 8d 85 40 f1 ff ff 	lea    -0xec0(%rbp),%rax
   1c2a7:	48 89 85 88 f2 ff ff 	mov    %rax,-0xd78(%rbp)
   1c2ae:	48 c7 85 90 f2 ff ff 	movq   $0x0,-0xd70(%rbp)
   1c2b5:	00 00 00 00 
   1c2b9:	48 8d 85 48 f1 ff ff 	lea    -0xeb8(%rbp),%rax
   1c2c0:	48 89 85 98 f2 ff ff 	mov    %rax,-0xd68(%rbp)
   1c2c7:	48 8d 85 68 f0 ff ff 	lea    -0xf98(%rbp),%rax
   1c2ce:	48 89 85 a0 f2 ff ff 	mov    %rax,-0xd60(%rbp)
   1c2d5:	48 8b 05 64 bb 00 00 	mov    0xbb64(%rip),%rax        # 27e40 <g_479>
   1c2dc:	48 8b 00             	mov    (%rax),%rax
   1c2df:	48 8b 00             	mov    (%rax),%rax
   1c2e2:	0f b7 00             	movzwl (%rax),%eax
   1c2e5:	0f b7 d8             	movzwl %ax,%ebx
   1c2e8:	48 8b 85 88 f2 ff ff 	mov    -0xd78(%rbp),%rax
   1c2ef:	48 8b 00             	mov    (%rax),%rax
   1c2f2:	0f b7 10             	movzwl (%rax),%edx
   1c2f5:	8b 85 58 f0 ff ff    	mov    -0xfa8(%rbp),%eax
   1c2fb:	89 c1                	mov    %eax,%ecx
   1c2fd:	48 8b 85 88 f2 ff ff 	mov    -0xd78(%rbp),%rax
   1c304:	48 8b 00             	mov    (%rax),%rax
   1c307:	09 ca                	or     %ecx,%edx
   1c309:	66 89 10             	mov    %dx,(%rax)
   1c30c:	0f b7 00             	movzwl (%rax),%eax
   1c30f:	44 0f bf f0          	movswl %ax,%r14d
   1c313:	48 8b 05 e6 ba 00 00 	mov    0xbae6(%rip),%rax        # 27e00 <g_87>
   1c31a:	0f b6 00             	movzbl (%rax),%eax
   1c31d:	44 0f b6 e0          	movzbl %al,%r12d
   1c321:	48 8b 85 48 f2 ff ff 	mov    -0xdb8(%rbp),%rax
   1c328:	48 8b 00             	mov    (%rax),%rax
   1c32b:	8b 00                	mov    (%rax),%eax
   1c32d:	44 0f b6 e8          	movzbl %al,%r13d
   1c331:	0f b6 85 5c f0 ff ff 	movzbl -0xfa4(%rbp),%eax
   1c338:	0f be d0             	movsbl %al,%edx
   1c33b:	48 8b 05 d6 ba 00 00 	mov    0xbad6(%rip),%rax        # 27e18 <g_410>
   1c342:	0f b6 00             	movzbl (%rax),%eax
   1c345:	0f be c0             	movsbl %al,%eax
   1c348:	89 d6                	mov    %edx,%esi
   1c34a:	89 c7                	mov    %eax,%edi
   1c34c:	e8 a1 fe fe ff       	callq  c1f2 <safe_sub_func_int8_t_s_s>
   1c351:	0f b6 c0             	movzbl %al,%eax
   1c354:	44 89 ee             	mov    %r13d,%esi
   1c357:	89 c7                	mov    %eax,%edi
   1c359:	e8 fc 07 ff ff       	callq  cb5a <safe_add_func_uint8_t_u_u>
   1c35e:	0f b6 c0             	movzbl %al,%eax
   1c361:	44 89 e6             	mov    %r12d,%esi
   1c364:	89 c7                	mov    %eax,%edi
   1c366:	e8 43 08 ff ff       	callq  cbae <safe_mod_func_uint8_t_u_u>
   1c36b:	0f b6 c0             	movzbl %al,%eax
   1c36e:	be 04 00 00 00       	mov    $0x4,%esi
   1c373:	89 c7                	mov    %eax,%edi
   1c375:	e8 67 01 ff ff       	callq  c4e1 <safe_lshift_func_int16_t_s_u>
   1c37a:	0f b6 05 e3 9d 00 00 	movzbl 0x9de3(%rip),%eax        # 26164 <g_164>
   1c381:	66 0f be d0          	movsbw %al,%dx
   1c385:	48 8b 85 a8 f1 ff ff 	mov    -0xe58(%rbp),%rax
   1c38c:	66 89 10             	mov    %dx,(%rax)
   1c38f:	48 8b 85 a8 f1 ff ff 	mov    -0xe58(%rbp),%rax
   1c396:	0f b7 00             	movzwl (%rax),%eax
   1c399:	0f b7 c0             	movzwl %ax,%eax
   1c39c:	41 39 c6             	cmp    %eax,%r14d
   1c39f:	0f 9e c0             	setle  %al
   1c3a2:	0f b6 d0             	movzbl %al,%edx
   1c3a5:	8b 85 58 f0 ff ff    	mov    -0xfa8(%rbp),%eax
   1c3ab:	39 c2                	cmp    %eax,%edx
   1c3ad:	0f 94 c0             	sete   %al
   1c3b0:	44 0f b6 e0          	movzbl %al,%r12d
   1c3b4:	48 8b 85 50 f0 ff ff 	mov    -0xfb0(%rbp),%rax
   1c3bb:	48 85 c0             	test   %rax,%rax
   1c3be:	74 4a                	je     1c40a <func_40+0x2038>
   1c3c0:	48 8b 85 88 f2 ff ff 	mov    -0xd78(%rbp),%rax
   1c3c7:	48 89 85 30 f2 ff ff 	mov    %rax,-0xdd0(%rbp)
   1c3ce:	48 8b 85 30 f2 ff ff 	mov    -0xdd0(%rbp),%rax
   1c3d5:	48 89 85 88 f1 ff ff 	mov    %rax,-0xe78(%rbp)
   1c3dc:	48 8b 85 88 f1 ff ff 	mov    -0xe78(%rbp),%rax
   1c3e3:	48 3b 85 58 f2 ff ff 	cmp    -0xda8(%rbp),%rax
   1c3ea:	0f 94 c0             	sete   %al
   1c3ed:	0f b6 d0             	movzbl %al,%edx
   1c3f0:	48 8b 05 21 ba 00 00 	mov    0xba21(%rip),%rax        # 27e18 <g_410>
   1c3f7:	0f b6 00             	movzbl (%rax),%eax
   1c3fa:	0f be c0             	movsbl %al,%eax
   1c3fd:	21 d0                	and    %edx,%eax
   1c3ff:	85 c0                	test   %eax,%eax
   1c401:	74 07                	je     1c40a <func_40+0x2038>
   1c403:	b8 01 00 00 00       	mov    $0x1,%eax
   1c408:	eb 05                	jmp    1c40f <func_40+0x203d>
   1c40a:	b8 00 00 00 00       	mov    $0x0,%eax
   1c40f:	0f be d0             	movsbl %al,%edx
   1c412:	48 8b 85 48 f2 ff ff 	mov    -0xdb8(%rbp),%rax
   1c419:	48 8b 00             	mov    (%rax),%rax
   1c41c:	8b 00                	mov    (%rax),%eax
   1c41e:	0f be c0             	movsbl %al,%eax
   1c421:	89 d6                	mov    %edx,%esi
   1c423:	89 c7                	mov    %eax,%edi
   1c425:	e8 07 fe fe ff       	callq  c231 <safe_mod_func_int8_t_s_s>
   1c42a:	0f be c0             	movsbl %al,%eax
   1c42d:	44 89 e6             	mov    %r12d,%esi
   1c430:	89 c7                	mov    %eax,%edi
   1c432:	e8 9c ff fe ff       	callq  c3d3 <safe_sub_func_int16_t_s_s>
   1c437:	48 8b 85 90 f2 ff ff 	mov    -0xd70(%rbp),%rax
   1c43e:	48 3b 85 28 f2 ff ff 	cmp    -0xdd8(%rbp),%rax
   1c445:	75 07                	jne    1c44e <func_40+0x207c>
   1c447:	b8 01 00 00 00       	mov    $0x1,%eax
   1c44c:	eb 05                	jmp    1c453 <func_40+0x2081>
   1c44e:	b8 00 00 00 00       	mov    $0x0,%eax
   1c453:	89 de                	mov    %ebx,%esi
   1c455:	89 c7                	mov    %eax,%edi
   1c457:	e8 a3 08 ff ff       	callq  ccff <safe_add_func_uint16_t_u_u>
   1c45c:	0f b7 c0             	movzwl %ax,%eax
   1c45f:	be 8f bc be 7f       	mov    $0x7fbebc8f,%esi
   1c464:	89 c7                	mov    %eax,%edi
   1c466:	e8 4b 01 ff ff       	callq  c5b6 <safe_add_func_int32_t_s_s>
   1c46b:	48 c7 85 38 f2 ff ff 	movq   $0x0,-0xdc8(%rbp)
   1c472:	00 00 00 00 
   1c476:	48 8b 95 48 f1 ff ff 	mov    -0xeb8(%rbp),%rdx
   1c47d:	48 8b 85 98 f2 ff ff 	mov    -0xd68(%rbp),%rax
   1c484:	48 89 10             	mov    %rdx,(%rax)
   1c487:	48 8b 05 b2 b9 00 00 	mov    0xb9b2(%rip),%rax        # 27e40 <g_479>
   1c48e:	48 8b 00             	mov    (%rax),%rax
   1c491:	48 8b 00             	mov    (%rax),%rax
   1c494:	0f b7 00             	movzwl (%rax),%eax
   1c497:	0f b7 d8             	movzwl %ax,%ebx
   1c49a:	44 8b a5 58 f0 ff ff 	mov    -0xfa8(%rbp),%r12d
   1c4a1:	48 8b 85 50 f0 ff ff 	mov    -0xfb0(%rbp),%rax
   1c4a8:	41 89 c6             	mov    %eax,%r14d
   1c4ab:	48 8b 85 20 f1 ff ff 	mov    -0xee0(%rbp),%rax
   1c4b2:	48 8b 00             	mov    (%rax),%rax
   1c4b5:	48 8b 00             	mov    (%rax),%rax
   1c4b8:	44 8b 28             	mov    (%rax),%r13d
   1c4bb:	0f b7 05 6c 9d 00 00 	movzwl 0x9d6c(%rip),%eax        # 2622e <g_287>
   1c4c2:	0f b7 c0             	movzwl %ax,%eax
   1c4c5:	be 01 00 00 00       	mov    $0x1,%esi
   1c4ca:	89 c7                	mov    %eax,%edi
   1c4cc:	e8 4e 08 ff ff       	callq  cd1f <safe_sub_func_uint16_t_u_u>
   1c4d1:	48 8b 05 28 b9 00 00 	mov    0xb928(%rip),%rax        # 27e00 <g_87>
   1c4d8:	0f b6 00             	movzbl (%rax),%eax
   1c4db:	0f b6 d0             	movzbl %al,%edx
   1c4de:	48 83 bd 80 f2 ff ff 	cmpq   $0x0,-0xd80(%rbp)
   1c4e5:	00 
   1c4e6:	0f 94 c0             	sete   %al
   1c4e9:	0f b6 c0             	movzbl %al,%eax
   1c4ec:	39 c2                	cmp    %eax,%edx
   1c4ee:	0f 9c c0             	setl   %al
   1c4f1:	0f b6 c0             	movzbl %al,%eax
   1c4f4:	44 89 ee             	mov    %r13d,%esi
   1c4f7:	89 c7                	mov    %eax,%edi
   1c4f9:	e8 01 02 ff ff       	callq  c6ff <safe_div_func_int32_t_s_s>
   1c4fe:	48 8d 85 50 f0 ff ff 	lea    -0xfb0(%rbp),%rax
   1c505:	48 89 85 78 f2 ff ff 	mov    %rax,-0xd88(%rbp)
   1c50c:	48 8b 05 ad bd 00 00 	mov    0xbdad(%rip),%rax        # 282c0 <g_543>
   1c513:	48 8b 00             	mov    (%rax),%rax
   1c516:	48 8d 95 50 f0 ff ff 	lea    -0xfb0(%rbp),%rdx
   1c51d:	48 89 10             	mov    %rdx,(%rax)
   1c520:	48 8b 05 f9 b8 00 00 	mov    0xb8f9(%rip),%rax        # 27e20 <g_425>
   1c527:	48 8b 00             	mov    (%rax),%rax
   1c52a:	48 85 c0             	test   %rax,%rax
   1c52d:	0f 95 c0             	setne  %al
   1c530:	0f b6 d0             	movzbl %al,%edx
   1c533:	48 8b 85 a8 f1 ff ff 	mov    -0xe58(%rbp),%rax
   1c53a:	66 89 10             	mov    %dx,(%rax)
   1c53d:	48 8b 85 a8 f1 ff ff 	mov    -0xe58(%rbp),%rax
   1c544:	0f b7 00             	movzwl (%rax),%eax
   1c547:	0f b7 d0             	movzwl %ax,%edx
   1c54a:	8b 85 58 f0 ff ff    	mov    -0xfa8(%rbp),%eax
   1c550:	48 98                	cltq   
   1c552:	48 83 f8 ff          	cmp    $0xffffffffffffffff,%rax
   1c556:	0f 94 c0             	sete   %al
   1c559:	0f b6 c0             	movzbl %al,%eax
   1c55c:	39 c2                	cmp    %eax,%edx
   1c55e:	0f 94 c0             	sete   %al
   1c561:	0f b6 d0             	movzbl %al,%edx
   1c564:	48 8b 05 95 b8 00 00 	mov    0xb895(%rip),%rax        # 27e00 <g_87>
   1c56b:	0f b6 00             	movzbl (%rax),%eax
   1c56e:	0f b6 c0             	movzbl %al,%eax
   1c571:	21 d0                	and    %edx,%eax
   1c573:	39 85 e0 f0 ff ff    	cmp    %eax,-0xf20(%rbp)
   1c579:	0f 9f c0             	setg   %al
   1c57c:	0f b6 c0             	movzbl %al,%eax
   1c57f:	44 89 f6             	mov    %r14d,%esi
   1c582:	89 c7                	mov    %eax,%edi
   1c584:	e8 9c 09 ff ff       	callq  cf25 <safe_div_func_uint32_t_u_u>
   1c589:	85 c0                	test   %eax,%eax
   1c58b:	74 17                	je     1c5a4 <func_40+0x21d2>
   1c58d:	48 8b 85 80 f2 ff ff 	mov    -0xd80(%rbp),%rax
   1c594:	48 8b 00             	mov    (%rax),%rax
   1c597:	8b 00                	mov    (%rax),%eax
   1c599:	85 c0                	test   %eax,%eax
   1c59b:	74 07                	je     1c5a4 <func_40+0x21d2>
   1c59d:	b8 01 00 00 00       	mov    $0x1,%eax
   1c5a2:	eb 05                	jmp    1c5a9 <func_40+0x21d7>
   1c5a4:	b8 00 00 00 00       	mov    $0x0,%eax
   1c5a9:	44 89 e6             	mov    %r12d,%esi
   1c5ac:	89 c7                	mov    %eax,%edi
   1c5ae:	e8 52 00 ff ff       	callq  c605 <safe_sub_func_int32_t_s_s>
   1c5b3:	0f b6 95 5c f0 ff ff 	movzbl -0xfa4(%rbp),%edx
   1c5ba:	0f be d2             	movsbl %dl,%edx
   1c5bd:	39 d0                	cmp    %edx,%eax
   1c5bf:	48 8b 85 18 f2 ff ff 	mov    -0xde8(%rbp),%rax
   1c5c6:	8b 10                	mov    (%rax),%edx
   1c5c8:	48 8b 85 a0 f2 ff ff 	mov    -0xd60(%rbp),%rax
   1c5cf:	0f b7 00             	movzwl (%rax),%eax
   1c5d2:	89 c1                	mov    %eax,%ecx
   1c5d4:	89 d0                	mov    %edx,%eax
   1c5d6:	31 c8                	xor    %ecx,%eax
   1c5d8:	89 c2                	mov    %eax,%edx
   1c5da:	48 8b 85 a0 f2 ff ff 	mov    -0xd60(%rbp),%rax
   1c5e1:	66 89 10             	mov    %dx,(%rax)
   1c5e4:	48 8b 85 a0 f2 ff ff 	mov    -0xd60(%rbp),%rax
   1c5eb:	0f b7 00             	movzwl (%rax),%eax
   1c5ee:	0f b7 c0             	movzwl %ax,%eax
   1c5f1:	89 de                	mov    %ebx,%esi
   1c5f3:	89 c7                	mov    %eax,%edi
   1c5f5:	e8 25 07 ff ff       	callq  cd1f <safe_sub_func_uint16_t_u_u>
   1c5fa:	0f b7 d0             	movzwl %ax,%edx
   1c5fd:	0f b6 85 5c f0 ff ff 	movzbl -0xfa4(%rbp),%eax
   1c604:	48 0f be c0          	movsbq %al,%rax
   1c608:	48 89 d6             	mov    %rdx,%rsi
   1c60b:	48 89 c7             	mov    %rax,%rdi
   1c60e:	e8 95 02 ff ff       	callq  c8a8 <safe_sub_func_int64_t_s_s>
   1c613:	89 85 58 f0 ff ff    	mov    %eax,-0xfa8(%rbp)
   1c619:	0f b7 85 0a f3 ff ff 	movzwl -0xcf6(%rbp),%eax
   1c620:	83 e8 01             	sub    $0x1,%eax
   1c623:	66 89 85 0a f3 ff ff 	mov    %ax,-0xcf6(%rbp)
   1c62a:	c7 85 80 f0 ff ff 01 	movl   $0x1,-0xf80(%rbp)
   1c631:	00 00 00 
   1c634:	e9 56 04 00 00       	jmpq   1ca8f <func_40+0x26bd>
   1c639:	48 8d 05 b0 9b 00 00 	lea    0x9bb0(%rip),%rax        # 261f0 <g_218>
   1c640:	48 89 85 60 fb ff ff 	mov    %rax,-0x4a0(%rbp)
   1c647:	48 8d 05 a2 9b 00 00 	lea    0x9ba2(%rip),%rax        # 261f0 <g_218>
   1c64e:	48 89 85 68 fb ff ff 	mov    %rax,-0x498(%rbp)
   1c655:	48 8d 05 94 9b 00 00 	lea    0x9b94(%rip),%rax        # 261f0 <g_218>
   1c65c:	48 89 85 70 fb ff ff 	mov    %rax,-0x490(%rbp)
   1c663:	48 8d 05 86 9b 00 00 	lea    0x9b86(%rip),%rax        # 261f0 <g_218>
   1c66a:	48 89 85 78 fb ff ff 	mov    %rax,-0x488(%rbp)
   1c671:	48 8d 05 78 9b 00 00 	lea    0x9b78(%rip),%rax        # 261f0 <g_218>
   1c678:	48 89 85 80 fb ff ff 	mov    %rax,-0x480(%rbp)
   1c67f:	48 8d 05 6a 9b 00 00 	lea    0x9b6a(%rip),%rax        # 261f0 <g_218>
   1c686:	48 89 85 88 fb ff ff 	mov    %rax,-0x478(%rbp)
   1c68d:	48 8d 05 5c 9b 00 00 	lea    0x9b5c(%rip),%rax        # 261f0 <g_218>
   1c694:	48 89 85 90 fb ff ff 	mov    %rax,-0x470(%rbp)
   1c69b:	48 8d 05 4e 9b 00 00 	lea    0x9b4e(%rip),%rax        # 261f0 <g_218>
   1c6a2:	48 89 85 98 fb ff ff 	mov    %rax,-0x468(%rbp)
   1c6a9:	48 8d 05 40 9b 00 00 	lea    0x9b40(%rip),%rax        # 261f0 <g_218>
   1c6b0:	48 89 85 a0 fb ff ff 	mov    %rax,-0x460(%rbp)
   1c6b7:	48 8d 05 32 9b 00 00 	lea    0x9b32(%rip),%rax        # 261f0 <g_218>
   1c6be:	48 89 85 a8 fb ff ff 	mov    %rax,-0x458(%rbp)
   1c6c5:	48 8d 05 24 9b 00 00 	lea    0x9b24(%rip),%rax        # 261f0 <g_218>
   1c6cc:	48 89 85 b0 fb ff ff 	mov    %rax,-0x450(%rbp)
   1c6d3:	48 8d 05 16 9b 00 00 	lea    0x9b16(%rip),%rax        # 261f0 <g_218>
   1c6da:	48 89 85 b8 fb ff ff 	mov    %rax,-0x448(%rbp)
   1c6e1:	48 8d 05 08 9b 00 00 	lea    0x9b08(%rip),%rax        # 261f0 <g_218>
   1c6e8:	48 89 85 c0 fb ff ff 	mov    %rax,-0x440(%rbp)
   1c6ef:	48 8d 05 fa 9a 00 00 	lea    0x9afa(%rip),%rax        # 261f0 <g_218>
   1c6f6:	48 89 85 c8 fb ff ff 	mov    %rax,-0x438(%rbp)
   1c6fd:	48 8d 05 ec 9a 00 00 	lea    0x9aec(%rip),%rax        # 261f0 <g_218>
   1c704:	48 89 85 d0 fb ff ff 	mov    %rax,-0x430(%rbp)
   1c70b:	c7 85 40 f3 ff ff 07 	movl   $0x7,-0xcc0(%rbp)
   1c712:	00 00 00 
   1c715:	c7 85 44 f3 ff ff 07 	movl   $0x7,-0xcbc(%rbp)
   1c71c:	00 00 00 
   1c71f:	c7 85 48 f3 ff ff 07 	movl   $0x7,-0xcb8(%rbp)
   1c726:	00 00 00 
   1c729:	c7 85 4c f3 ff ff 07 	movl   $0x7,-0xcb4(%rbp)
   1c730:	00 00 00 
   1c733:	c7 85 50 f3 ff ff 07 	movl   $0x7,-0xcb0(%rbp)
   1c73a:	00 00 00 
   1c73d:	c7 85 54 f3 ff ff 07 	movl   $0x7,-0xcac(%rbp)
   1c744:	00 00 00 
   1c747:	48 8d 05 3a c3 00 00 	lea    0xc33a(%rip),%rax        # 28a88 <g_1153>
   1c74e:	48 89 85 a8 f2 ff ff 	mov    %rax,-0xd58(%rbp)
   1c755:	0f b6 85 5c f0 ff ff 	movzbl -0xfa4(%rbp),%eax
   1c75c:	48 0f be d8          	movsbq %al,%rbx
   1c760:	48 8b 85 18 f2 ff ff 	mov    -0xde8(%rbp),%rax
   1c767:	8b 00                	mov    (%rax),%eax
   1c769:	4c 63 e0             	movslq %eax,%r12
   1c76c:	48 8b 85 48 f2 ff ff 	mov    -0xdb8(%rbp),%rax
   1c773:	48 8b 00             	mov    (%rax),%rax
   1c776:	44 8b 28             	mov    (%rax),%r13d
   1c779:	48 8b 85 18 f3 ff ff 	mov    -0xce8(%rbp),%rax
   1c780:	48 8d 15 11 e7 00 00 	lea    0xe711(%rip),%rdx        # 2ae98 <g_430>
   1c787:	48 39 d0             	cmp    %rdx,%rax
   1c78a:	0f 95 c0             	setne  %al
   1c78d:	0f b6 d0             	movzbl %al,%edx
   1c790:	48 8b 85 d0 fb ff ff 	mov    -0x430(%rbp),%rax
   1c797:	48 85 c0             	test   %rax,%rax
   1c79a:	0f 94 c0             	sete   %al
   1c79d:	0f b6 c0             	movzbl %al,%eax
   1c7a0:	89 d6                	mov    %edx,%esi
   1c7a2:	89 c7                	mov    %eax,%edi
   1c7a4:	e8 56 05 ff ff       	callq  ccff <safe_add_func_uint16_t_u_u>
   1c7a9:	48 8b 85 48 f2 ff ff 	mov    -0xdb8(%rbp),%rax
   1c7b0:	48 8b 00             	mov    (%rax),%rax
   1c7b3:	8b 00                	mov    (%rax),%eax
   1c7b5:	85 c0                	test   %eax,%eax
   1c7b7:	74 07                	je     1c7c0 <func_40+0x23ee>
   1c7b9:	b8 01 00 00 00       	mov    $0x1,%eax
   1c7be:	eb 05                	jmp    1c7c5 <func_40+0x23f3>
   1c7c0:	b8 00 00 00 00       	mov    $0x0,%eax
   1c7c5:	44 21 e8             	and    %r13d,%eax
   1c7c8:	48 98                	cltq   
   1c7ca:	4c 89 e6             	mov    %r12,%rsi
   1c7cd:	48 89 c7             	mov    %rax,%rdi
   1c7d0:	e8 59 08 ff ff       	callq  d02e <safe_add_func_uint64_t_u_u>
   1c7d5:	89 c2                	mov    %eax,%edx
   1c7d7:	0f b7 05 12 9a 00 00 	movzwl 0x9a12(%rip),%eax        # 261f0 <g_218>
   1c7de:	21 d0                	and    %edx,%eax
   1c7e0:	66 89 05 09 9a 00 00 	mov    %ax,0x9a09(%rip)        # 261f0 <g_218>
   1c7e7:	48 8b 85 88 f1 ff ff 	mov    -0xe78(%rbp),%rax
   1c7ee:	48 8b 00             	mov    (%rax),%rax
   1c7f1:	66 c7 00 62 8d       	movw   $0x8d62,(%rax)
   1c7f6:	48 8b 85 48 f2 ff ff 	mov    -0xdb8(%rbp),%rax
   1c7fd:	48 8b 00             	mov    (%rax),%rax
   1c800:	8b 00                	mov    (%rax),%eax
   1c802:	0f b7 c0             	movzwl %ax,%eax
   1c805:	be 62 8d 00 00       	mov    $0x8d62,%esi
   1c80a:	89 c7                	mov    %eax,%edi
   1c80c:	e8 4b 05 ff ff       	callq  cd5c <safe_mod_func_uint16_t_u_u>
   1c811:	be 00 00 00 00       	mov    $0x0,%esi
   1c816:	bf 01 00 00 00       	mov    $0x1,%edi
   1c81b:	e8 e5 fd fe ff       	callq  c605 <safe_sub_func_int32_t_s_s>
   1c820:	8b 85 d0 f3 ff ff    	mov    -0xc30(%rbp),%eax
   1c826:	48 63 d0             	movslq %eax,%rdx
   1c829:	48 8b 85 50 f0 ff ff 	mov    -0xfb0(%rbp),%rax
   1c830:	48 21 d0             	and    %rdx,%rax
   1c833:	48 89 de             	mov    %rbx,%rsi
   1c836:	48 89 c7             	mov    %rax,%rdi
   1c839:	e8 f0 07 ff ff       	callq  d02e <safe_add_func_uint64_t_u_u>
   1c83e:	48 89 c2             	mov    %rax,%rdx
   1c841:	48 8b 05 00 b6 00 00 	mov    0xb600(%rip),%rax        # 27e48 <g_489>
   1c848:	48 8b 00             	mov    (%rax),%rax
   1c84b:	89 10                	mov    %edx,(%rax)
   1c84d:	48 8b 85 a8 f1 ff ff 	mov    -0xe58(%rbp),%rax
   1c854:	66 c7 00 22 be       	movw   $0xbe22,(%rax)
   1c859:	8b 05 f5 99 00 00    	mov    0x99f5(%rip),%eax        # 26254 <g_515>
   1c85f:	0f b7 c0             	movzwl %ax,%eax
   1c862:	be 22 be 00 00       	mov    $0xbe22,%esi
   1c867:	89 c7                	mov    %eax,%edi
   1c869:	e8 98 05 ff ff       	callq  ce06 <safe_lshift_func_uint16_t_u_u>
   1c86e:	89 c2                	mov    %eax,%edx
   1c870:	48 8d 05 d1 b5 00 00 	lea    0xb5d1(%rip),%rax        # 27e48 <g_489>
   1c877:	48 8b 00             	mov    (%rax),%rax
   1c87a:	48 8b 00             	mov    (%rax),%rax
   1c87d:	0f b7 d2             	movzwl %dx,%edx
   1c880:	89 10                	mov    %edx,(%rax)
   1c882:	48 8b 85 80 f2 ff ff 	mov    -0xd80(%rbp),%rax
   1c889:	48 8b 00             	mov    (%rax),%rax
   1c88c:	8b 18                	mov    (%rax),%ebx
   1c88e:	8b 85 a8 f0 ff ff    	mov    -0xf58(%rbp),%eax
   1c894:	4c 63 f8             	movslq %eax,%r15
   1c897:	8b 85 58 f0 ff ff    	mov    -0xfa8(%rbp),%eax
   1c89d:	44 0f b6 e0          	movzbl %al,%r12d
   1c8a1:	8b 85 58 f0 ff ff    	mov    -0xfa8(%rbp),%eax
   1c8a7:	44 0f be e8          	movsbl %al,%r13d
   1c8ab:	48 8b 05 4e b5 00 00 	mov    0xb54e(%rip),%rax        # 27e00 <g_87>
   1c8b2:	0f b6 00             	movzbl (%rax),%eax
   1c8b5:	44 0f b6 f0          	movzbl %al,%r14d
   1c8b9:	48 8b 05 80 b5 00 00 	mov    0xb580(%rip),%rax        # 27e40 <g_479>
   1c8c0:	48 8b 00             	mov    (%rax),%rax
   1c8c3:	48 8b 00             	mov    (%rax),%rax
   1c8c6:	0f b7 00             	movzwl (%rax),%eax
   1c8c9:	0f bf d0             	movswl %ax,%edx
   1c8cc:	48 8b 85 28 f2 ff ff 	mov    -0xdd8(%rbp),%rax
   1c8d3:	48 8b 00             	mov    (%rax),%rax
   1c8d6:	48 8b 00             	mov    (%rax),%rax
   1c8d9:	8b 00                	mov    (%rax),%eax
   1c8db:	0f b7 c0             	movzwl %ax,%eax
   1c8de:	89 d6                	mov    %edx,%esi
   1c8e0:	89 c7                	mov    %eax,%edi
   1c8e2:	e8 d7 04 ff ff       	callq  cdbe <safe_lshift_func_uint16_t_u_s>
   1c8e7:	83 c8 1d             	or     $0x1d,%eax
   1c8ea:	0f b6 c0             	movzbl %al,%eax
   1c8ed:	44 89 f6             	mov    %r14d,%esi
   1c8f0:	89 c7                	mov    %eax,%edi
   1c8f2:	e8 9c 02 ff ff       	callq  cb93 <safe_mul_func_uint8_t_u_u>
   1c8f7:	0f b6 95 5c f0 ff ff 	movzbl -0xfa4(%rbp),%edx
   1c8fe:	48 8b 05 fb b4 00 00 	mov    0xb4fb(%rip),%rax        # 27e00 <g_87>
   1c905:	88 10                	mov    %dl,(%rax)
   1c907:	0f b6 00             	movzbl (%rax),%eax
   1c90a:	0f b6 d0             	movzbl %al,%edx
   1c90d:	0f b6 85 5c f0 ff ff 	movzbl -0xfa4(%rbp),%eax
   1c914:	0f be c0             	movsbl %al,%eax
   1c917:	39 c2                	cmp    %eax,%edx
   1c919:	0f 9e c0             	setle  %al
   1c91c:	0f b6 d0             	movzbl %al,%edx
   1c91f:	48 8b 85 50 f0 ff ff 	mov    -0xfb0(%rbp),%rax
   1c926:	48 31 d0             	xor    %rdx,%rax
   1c929:	48 3d ac 17 00 00    	cmp    $0x17ac,%rax
   1c92f:	0f 95 c0             	setne  %al
   1c932:	0f b6 c0             	movzbl %al,%eax
   1c935:	be 08 00 00 00       	mov    $0x8,%esi
   1c93a:	89 c7                	mov    %eax,%edi
   1c93c:	e8 c5 04 ff ff       	callq  ce06 <safe_lshift_func_uint16_t_u_u>
   1c941:	48 8b 05 b8 b4 00 00 	mov    0xb4b8(%rip),%rax        # 27e00 <g_87>
   1c948:	0f b6 00             	movzbl (%rax),%eax
   1c94b:	44 0f be f0          	movsbl %al,%r14d
   1c94f:	0f b7 85 08 f3 ff ff 	movzwl -0xcf8(%rbp),%eax
   1c956:	66 89 85 5e f0 ff ff 	mov    %ax,-0xfa2(%rbp)
   1c95d:	be 01 00 00 00       	mov    $0x1,%esi
   1c962:	bf 7f 00 00 00       	mov    $0x7f,%edi
   1c967:	e8 99 02 ff ff       	callq  cc05 <safe_lshift_func_uint8_t_u_s>
   1c96c:	0f b6 c0             	movzbl %al,%eax
   1c96f:	66 39 85 5e f0 ff ff 	cmp    %ax,-0xfa2(%rbp)
   1c976:	0f 95 c0             	setne  %al
   1c979:	0f b6 c0             	movzbl %al,%eax
   1c97c:	44 89 f6             	mov    %r14d,%esi
   1c97f:	89 c7                	mov    %eax,%edi
   1c981:	e8 6c f8 fe ff       	callq  c1f2 <safe_sub_func_int8_t_s_s>
   1c986:	0f be c0             	movsbl %al,%eax
   1c989:	44 89 ee             	mov    %r13d,%esi
   1c98c:	89 c7                	mov    %eax,%edi
   1c98e:	e8 9e f8 fe ff       	callq  c231 <safe_mod_func_int8_t_s_s>
   1c993:	0f b6 c0             	movzbl %al,%eax
   1c996:	44 89 e6             	mov    %r12d,%esi
   1c999:	89 c7                	mov    %eax,%edi
   1c99b:	e8 d8 01 ff ff       	callq  cb78 <safe_sub_func_uint8_t_u_u>
   1c9a0:	0f b6 d0             	movzbl %al,%edx
   1c9a3:	0f b6 85 5c f0 ff ff 	movzbl -0xfa4(%rbp),%eax
   1c9aa:	0f be c0             	movsbl %al,%eax
   1c9ad:	39 c2                	cmp    %eax,%edx
   1c9af:	74 15                	je     1c9c6 <func_40+0x25f4>
   1c9b1:	48 8b 05 48 b4 00 00 	mov    0xb448(%rip),%rax        # 27e00 <g_87>
   1c9b8:	0f b6 00             	movzbl (%rax),%eax
   1c9bb:	84 c0                	test   %al,%al
   1c9bd:	74 07                	je     1c9c6 <func_40+0x25f4>
   1c9bf:	ba 01 00 00 00       	mov    $0x1,%edx
   1c9c4:	eb 05                	jmp    1c9cb <func_40+0x25f9>
   1c9c6:	ba 00 00 00 00       	mov    $0x0,%edx
   1c9cb:	48 8b 85 80 f2 ff ff 	mov    -0xd80(%rbp),%rax
   1c9d2:	48 8b 00             	mov    (%rax),%rax
   1c9d5:	8b 00                	mov    (%rax),%eax
   1c9d7:	39 c2                	cmp    %eax,%edx
   1c9d9:	0f 95 c0             	setne  %al
   1c9dc:	0f b6 c0             	movzbl %al,%eax
   1c9df:	4c 89 fa             	mov    %r15,%rdx
   1c9e2:	48 09 c2             	or     %rax,%rdx
   1c9e5:	8b 85 58 f0 ff ff    	mov    -0xfa8(%rbp),%eax
   1c9eb:	48 98                	cltq   
   1c9ed:	48 39 c2             	cmp    %rax,%rdx
   1c9f0:	0f 9d c0             	setge  %al
   1c9f3:	0f b6 c0             	movzbl %al,%eax
   1c9f6:	89 de                	mov    %ebx,%esi
   1c9f8:	89 c7                	mov    %eax,%edi
   1c9fa:	e8 06 fc fe ff       	callq  c605 <safe_sub_func_int32_t_s_s>
   1c9ff:	48 63 d0             	movslq %eax,%rdx
   1ca02:	48 8b 85 50 f0 ff ff 	mov    -0xfb0(%rbp),%rax
   1ca09:	48 39 c2             	cmp    %rax,%rdx
   1ca0c:	0f 9f c0             	setg   %al
   1ca0f:	0f b6 d8             	movzbl %al,%ebx
   1ca12:	8b 85 e4 f0 ff ff    	mov    -0xf1c(%rbp),%eax
   1ca18:	0f b7 c0             	movzwl %ax,%eax
   1ca1b:	be 28 0f 00 00       	mov    $0xf28,%esi
   1ca20:	89 c7                	mov    %eax,%edi
   1ca22:	e8 d8 02 ff ff       	callq  ccff <safe_add_func_uint16_t_u_u>
   1ca27:	98                   	cwtl   
   1ca28:	89 de                	mov    %ebx,%esi
   1ca2a:	89 c7                	mov    %eax,%edi
   1ca2c:	e8 c4 f9 fe ff       	callq  c3f5 <safe_mul_func_int16_t_s_s>
   1ca31:	48 8b 85 80 f2 ff ff 	mov    -0xd80(%rbp),%rax
   1ca38:	48 8b 00             	mov    (%rax),%rax
   1ca3b:	8b 00                	mov    (%rax),%eax
   1ca3d:	48 98                	cltq   
   1ca3f:	48 83 f8 ff          	cmp    $0xffffffffffffffff,%rax
   1ca43:	75 13                	jne    1ca58 <func_40+0x2686>
   1ca45:	48 8b 05 f4 b3 00 00 	mov    0xb3f4(%rip),%rax        # 27e40 <g_479>
   1ca4c:	48 8b 00             	mov    (%rax),%rax
   1ca4f:	48 8b 00             	mov    (%rax),%rax
   1ca52:	0f b7 00             	movzwl (%rax),%eax
   1ca55:	66 85 c0             	test   %ax,%ax
   1ca58:	48 8b 85 80 f2 ff ff 	mov    -0xd80(%rbp),%rax
   1ca5f:	48 8b 00             	mov    (%rax),%rax
   1ca62:	8b 00                	mov    (%rax),%eax
   1ca64:	83 e0 01             	and    $0x1,%eax
   1ca67:	89 c2                	mov    %eax,%edx
   1ca69:	8b 85 4c f3 ff ff    	mov    -0xcb4(%rbp),%eax
   1ca6f:	31 d0                	xor    %edx,%eax
   1ca71:	89 85 4c f3 ff ff    	mov    %eax,-0xcb4(%rbp)
   1ca77:	48 8b 15 0a c0 00 00 	mov    0xc00a(%rip),%rdx        # 28a88 <g_1153>
   1ca7e:	48 8b 85 a8 f2 ff ff 	mov    -0xd58(%rbp),%rax
   1ca85:	48 89 10             	mov    %rdx,(%rax)
   1ca88:	83 ad 80 f0 ff ff 01 	subl   $0x1,-0xf80(%rbp)
   1ca8f:	83 bd 80 f0 ff ff 00 	cmpl   $0x0,-0xf80(%rbp)
   1ca96:	0f 89 9d fb ff ff    	jns    1c639 <func_40+0x2267>
   1ca9c:	c7 05 06 98 00 00 00 	movl   $0x0,0x9806(%rip)        # 262ac <g_680>
   1caa3:	00 00 00 
   1caa6:	e9 6b 01 00 00       	jmpq   1cc16 <func_40+0x2844>
   1caab:	c7 85 fc f0 ff ff 09 	movl   $0x9,-0xf04(%rbp)
   1cab2:	00 00 00 
   1cab5:	c7 85 00 f1 ff ff a8 	movl   $0x787c70a8,-0xf00(%rbp)
   1cabc:	70 7c 78 
   1cabf:	48 8d 05 b2 e3 00 00 	lea    0xe3b2(%rip),%rax        # 2ae78 <g_240+0x8>
   1cac6:	48 89 85 d0 f2 ff ff 	mov    %rax,-0xd30(%rbp)
   1cacd:	48 c7 85 d8 f2 ff ff 	movq   $0x0,-0xd28(%rbp)
   1cad4:	00 00 00 00 
   1cad8:	66 c7 85 60 fb ff ff 	movw   $0xeaaf,-0x4a0(%rbp)
   1cadf:	af ea 
   1cae1:	66 c7 85 62 fb ff ff 	movw   $0x212a,-0x49e(%rbp)
   1cae8:	2a 21 
   1caea:	66 c7 85 64 fb ff ff 	movw   $0x6f34,-0x49c(%rbp)
   1caf1:	34 6f 
   1caf3:	66 c7 85 66 fb ff ff 	movw   $0x6f34,-0x49a(%rbp)
   1cafa:	34 6f 
   1cafc:	66 c7 85 68 fb ff ff 	movw   $0x6f34,-0x498(%rbp)
   1cb03:	34 6f 
   1cb05:	66 c7 85 6a fb ff ff 	movw   $0x212a,-0x496(%rbp)
   1cb0c:	2a 21 
   1cb0e:	66 c7 85 6c fb ff ff 	movw   $0xeaaf,-0x494(%rbp)
   1cb15:	af ea 
   1cb17:	66 c7 85 6e fb ff ff 	movw   $0xf17d,-0x492(%rbp)
   1cb1e:	7d f1 
   1cb20:	66 c7 85 70 fb ff ff 	movw   $0x212a,-0x490(%rbp)
   1cb27:	2a 21 
   1cb29:	66 c7 85 72 fb ff ff 	movw   $0xf17d,-0x48e(%rbp)
   1cb30:	7d f1 
   1cb32:	66 c7 85 74 fb ff ff 	movw   $0xeaaf,-0x48c(%rbp)
   1cb39:	af ea 
   1cb3b:	66 c7 85 76 fb ff ff 	movw   $0x212a,-0x48a(%rbp)
   1cb42:	2a 21 
   1cb44:	66 c7 85 78 fb ff ff 	movw   $0x6f34,-0x488(%rbp)
   1cb4b:	34 6f 
   1cb4d:	66 c7 85 7a fb ff ff 	movw   $0x6f34,-0x486(%rbp)
   1cb54:	34 6f 
   1cb56:	66 c7 85 7c fb ff ff 	movw   $0x6f34,-0x484(%rbp)
   1cb5d:	34 6f 
   1cb5f:	66 c7 85 7e fb ff ff 	movw   $0x212a,-0x482(%rbp)
   1cb66:	2a 21 
   1cb68:	66 c7 85 80 fb ff ff 	movw   $0xeaaf,-0x480(%rbp)
   1cb6f:	af ea 
   1cb71:	66 c7 85 82 fb ff ff 	movw   $0xf17d,-0x47e(%rbp)
   1cb78:	7d f1 
   1cb7a:	66 c7 85 84 fb ff ff 	movw   $0x212a,-0x47c(%rbp)
   1cb81:	2a 21 
   1cb83:	66 c7 85 86 fb ff ff 	movw   $0xf17d,-0x47a(%rbp)
   1cb8a:	7d f1 
   1cb8c:	66 c7 85 88 fb ff ff 	movw   $0xeaaf,-0x478(%rbp)
   1cb93:	af ea 
   1cb95:	66 c7 85 8a fb ff ff 	movw   $0x212a,-0x476(%rbp)
   1cb9c:	2a 21 
   1cb9e:	66 c7 85 8c fb ff ff 	movw   $0x6f34,-0x474(%rbp)
   1cba5:	34 6f 
   1cba7:	66 c7 85 8e fb ff ff 	movw   $0x6f34,-0x472(%rbp)
   1cbae:	34 6f 
   1cbb0:	66 c7 85 90 fb ff ff 	movw   $0x6f34,-0x470(%rbp)
   1cbb7:	34 6f 
   1cbb9:	66 c7 85 92 fb ff ff 	movw   $0x212a,-0x46e(%rbp)
   1cbc0:	2a 21 
   1cbc2:	66 c7 85 94 fb ff ff 	movw   $0xeaaf,-0x46c(%rbp)
   1cbc9:	af ea 
   1cbcb:	66 c7 85 96 fb ff ff 	movw   $0xf17d,-0x46a(%rbp)
   1cbd2:	7d f1 
   1cbd4:	c7 85 b0 f0 ff ff 00 	movl   $0x0,-0xf50(%rbp)
   1cbdb:	00 00 00 
   1cbde:	eb 1e                	jmp    1cbfe <func_40+0x282c>
   1cbe0:	8b 85 b0 f0 ff ff    	mov    -0xf50(%rbp),%eax
   1cbe6:	48 98                	cltq   
   1cbe8:	48 8d 15 a9 b6 00 00 	lea    0xb6a9(%rip),%rdx        # 28298 <g_544+0x18>
   1cbef:	48 89 94 c5 c0 f3 ff 	mov    %rdx,-0xc40(%rbp,%rax,8)
   1cbf6:	ff 
   1cbf7:	83 85 b0 f0 ff ff 01 	addl   $0x1,-0xf50(%rbp)
   1cbfe:	83 bd b0 f0 ff ff 04 	cmpl   $0x4,-0xf50(%rbp)
   1cc05:	7e d9                	jle    1cbe0 <func_40+0x280e>
   1cc07:	8b 05 9f 96 00 00    	mov    0x969f(%rip),%eax        # 262ac <g_680>
   1cc0d:	83 c0 01             	add    $0x1,%eax
   1cc10:	89 05 96 96 00 00    	mov    %eax,0x9696(%rip)        # 262ac <g_680>
   1cc16:	8b 05 90 96 00 00    	mov    0x9690(%rip),%eax        # 262ac <g_680>
   1cc1c:	83 f8 29             	cmp    $0x29,%eax
   1cc1f:	0f 86 86 fe ff ff    	jbe    1caab <func_40+0x26d9>
   1cc25:	c7 85 a8 f0 ff ff 00 	movl   $0x0,-0xf58(%rbp)
   1cc2c:	00 00 00 
   1cc2f:	e9 73 03 00 00       	jmpq   1cfa7 <func_40+0x2bd5>
   1cc34:	48 8d 85 58 f1 ff ff 	lea    -0xea8(%rbp),%rax
   1cc3b:	48 89 85 c0 f2 ff ff 	mov    %rax,-0xd40(%rbp)
   1cc42:	48 8d 05 67 95 00 00 	lea    0x9567(%rip),%rax        # 261b0 <g_211+0x30>
   1cc49:	48 89 85 c8 f2 ff ff 	mov    %rax,-0xd38(%rbp)
   1cc50:	c7 85 f8 f0 ff ff ff 	movl   $0xffffffff,-0xf08(%rbp)
   1cc57:	ff ff ff 
   1cc5a:	48 8b 85 48 f2 ff ff 	mov    -0xdb8(%rbp),%rax
   1cc61:	48 8b 00             	mov    (%rax),%rax
   1cc64:	c7 00 fb ff ff ff    	movl   $0xfffffffb,(%rax)
   1cc6a:	48 8d 05 5f e2 00 00 	lea    0xe25f(%rip),%rax        # 2aed0 <g_1215>
   1cc71:	48 89 85 60 fb ff ff 	mov    %rax,-0x4a0(%rbp)
   1cc78:	48 c7 85 68 fb ff ff 	movq   $0x0,-0x498(%rbp)
   1cc7f:	00 00 00 00 
   1cc83:	48 8d 85 70 f1 ff ff 	lea    -0xe90(%rbp),%rax
   1cc8a:	48 89 85 70 fb ff ff 	mov    %rax,-0x490(%rbp)
   1cc91:	48 8d 85 68 f1 ff ff 	lea    -0xe98(%rbp),%rax
   1cc98:	48 89 85 78 fb ff ff 	mov    %rax,-0x488(%rbp)
   1cc9f:	48 8d 05 2a e2 00 00 	lea    0xe22a(%rip),%rax        # 2aed0 <g_1215>
   1cca6:	48 89 85 80 fb ff ff 	mov    %rax,-0x480(%rbp)
   1ccad:	48 8d 85 70 f1 ff ff 	lea    -0xe90(%rbp),%rax
   1ccb4:	48 89 85 88 fb ff ff 	mov    %rax,-0x478(%rbp)
   1ccbb:	48 c7 85 90 fb ff ff 	movq   $0x0,-0x470(%rbp)
   1ccc2:	00 00 00 00 
   1ccc6:	48 8d 85 68 f1 ff ff 	lea    -0xe98(%rbp),%rax
   1cccd:	48 89 85 98 fb ff ff 	mov    %rax,-0x468(%rbp)
   1ccd4:	48 8d 05 f5 e1 00 00 	lea    0xe1f5(%rip),%rax        # 2aed0 <g_1215>
   1ccdb:	48 89 85 a0 fb ff ff 	mov    %rax,-0x460(%rbp)
   1cce2:	48 8d 85 68 f1 ff ff 	lea    -0xe98(%rbp),%rax
   1cce9:	48 89 85 a8 fb ff ff 	mov    %rax,-0x458(%rbp)
   1ccf0:	48 8d 85 70 f1 ff ff 	lea    -0xe90(%rbp),%rax
   1ccf7:	48 89 85 b0 fb ff ff 	mov    %rax,-0x450(%rbp)
   1ccfe:	48 8d 05 cb e1 00 00 	lea    0xe1cb(%rip),%rax        # 2aed0 <g_1215>
   1cd05:	48 89 85 b8 fb ff ff 	mov    %rax,-0x448(%rbp)
   1cd0c:	48 8d 05 bd e1 00 00 	lea    0xe1bd(%rip),%rax        # 2aed0 <g_1215>
   1cd13:	48 89 85 c0 fb ff ff 	mov    %rax,-0x440(%rbp)
   1cd1a:	48 8d 85 68 f1 ff ff 	lea    -0xe98(%rbp),%rax
   1cd21:	48 89 85 c8 fb ff ff 	mov    %rax,-0x438(%rbp)
   1cd28:	48 8d 85 68 f1 ff ff 	lea    -0xe98(%rbp),%rax
   1cd2f:	48 89 85 d0 fb ff ff 	mov    %rax,-0x430(%rbp)
   1cd36:	48 8d 05 93 e1 00 00 	lea    0xe193(%rip),%rax        # 2aed0 <g_1215>
   1cd3d:	48 89 85 d8 fb ff ff 	mov    %rax,-0x428(%rbp)
   1cd44:	48 8d 85 70 f1 ff ff 	lea    -0xe90(%rbp),%rax
   1cd4b:	48 89 85 e0 fb ff ff 	mov    %rax,-0x420(%rbp)
   1cd52:	48 8d 85 68 f1 ff ff 	lea    -0xe98(%rbp),%rax
   1cd59:	48 89 85 e8 fb ff ff 	mov    %rax,-0x418(%rbp)
   1cd60:	48 8d 05 69 e1 00 00 	lea    0xe169(%rip),%rax        # 2aed0 <g_1215>
   1cd67:	48 89 85 f0 fb ff ff 	mov    %rax,-0x410(%rbp)
   1cd6e:	48 8d 85 68 f1 ff ff 	lea    -0xe98(%rbp),%rax
   1cd75:	48 89 85 f8 fb ff ff 	mov    %rax,-0x408(%rbp)
   1cd7c:	48 c7 85 00 fc ff ff 	movq   $0x0,-0x400(%rbp)
   1cd83:	00 00 00 00 
   1cd87:	48 8d 05 42 e1 00 00 	lea    0xe142(%rip),%rax        # 2aed0 <g_1215>
   1cd8e:	48 89 85 08 fc ff ff 	mov    %rax,-0x3f8(%rbp)
   1cd95:	48 8d 85 70 f1 ff ff 	lea    -0xe90(%rbp),%rax
   1cd9c:	48 89 85 10 fc ff ff 	mov    %rax,-0x3f0(%rbp)
   1cda3:	48 c7 85 18 fc ff ff 	movq   $0x0,-0x3e8(%rbp)
   1cdaa:	00 00 00 00 
   1cdae:	48 8d 85 70 f1 ff ff 	lea    -0xe90(%rbp),%rax
   1cdb5:	48 89 85 20 fc ff ff 	mov    %rax,-0x3e0(%rbp)
   1cdbc:	48 8d 85 68 f1 ff ff 	lea    -0xe98(%rbp),%rax
   1cdc3:	48 89 85 28 fc ff ff 	mov    %rax,-0x3d8(%rbp)
   1cdca:	48 8d 85 70 f1 ff ff 	lea    -0xe90(%rbp),%rax
   1cdd1:	48 89 85 30 fc ff ff 	mov    %rax,-0x3d0(%rbp)
   1cdd8:	48 c7 85 38 fc ff ff 	movq   $0x0,-0x3c8(%rbp)
   1cddf:	00 00 00 00 
   1cde3:	48 8d 85 68 f1 ff ff 	lea    -0xe98(%rbp),%rax
   1cdea:	48 89 85 40 fc ff ff 	mov    %rax,-0x3c0(%rbp)
   1cdf1:	48 8d 05 d8 e0 00 00 	lea    0xe0d8(%rip),%rax        # 2aed0 <g_1215>
   1cdf8:	48 89 85 48 fc ff ff 	mov    %rax,-0x3b8(%rbp)
   1cdff:	48 8d 05 ca e0 00 00 	lea    0xe0ca(%rip),%rax        # 2aed0 <g_1215>
   1ce06:	48 89 85 50 fc ff ff 	mov    %rax,-0x3b0(%rbp)
   1ce0d:	48 8d 85 68 f1 ff ff 	lea    -0xe98(%rbp),%rax
   1ce14:	48 89 85 58 fc ff ff 	mov    %rax,-0x3a8(%rbp)
   1ce1b:	48 8d 85 68 f1 ff ff 	lea    -0xe98(%rbp),%rax
   1ce22:	48 89 85 60 fc ff ff 	mov    %rax,-0x3a0(%rbp)
   1ce29:	48 8d 85 68 f1 ff ff 	lea    -0xe98(%rbp),%rax
   1ce30:	48 89 85 68 fc ff ff 	mov    %rax,-0x398(%rbp)
   1ce37:	48 8d 85 68 f1 ff ff 	lea    -0xe98(%rbp),%rax
   1ce3e:	48 89 85 70 fc ff ff 	mov    %rax,-0x390(%rbp)
   1ce45:	48 8d 05 84 e0 00 00 	lea    0xe084(%rip),%rax        # 2aed0 <g_1215>
   1ce4c:	48 89 85 78 fc ff ff 	mov    %rax,-0x388(%rbp)
   1ce53:	48 8d 85 70 f1 ff ff 	lea    -0xe90(%rbp),%rax
   1ce5a:	48 89 85 80 fc ff ff 	mov    %rax,-0x380(%rbp)
   1ce61:	48 8d 85 68 f1 ff ff 	lea    -0xe98(%rbp),%rax
   1ce68:	48 89 85 88 fc ff ff 	mov    %rax,-0x378(%rbp)
   1ce6f:	48 8d 05 5a e0 00 00 	lea    0xe05a(%rip),%rax        # 2aed0 <g_1215>
   1ce76:	48 89 85 90 fc ff ff 	mov    %rax,-0x370(%rbp)
   1ce7d:	48 8d 05 4c e0 00 00 	lea    0xe04c(%rip),%rax        # 2aed0 <g_1215>
   1ce84:	48 89 85 98 fc ff ff 	mov    %rax,-0x368(%rbp)
   1ce8b:	48 8b 05 b6 af 00 00 	mov    0xafb6(%rip),%rax        # 27e48 <g_489>
   1ce92:	48 8d 95 58 f0 ff ff 	lea    -0xfa8(%rbp),%rdx
   1ce99:	48 89 10             	mov    %rdx,(%rax)
   1ce9c:	48 c7 85 c0 f2 ff ff 	movq   $0x0,-0xd40(%rbp)
   1cea3:	00 00 00 00 
   1cea7:	48 8d 85 58 f1 ff ff 	lea    -0xea8(%rbp),%rax
   1ceae:	48 39 85 c0 f2 ff ff 	cmp    %rax,-0xd40(%rbp)
   1ceb5:	c7 85 e8 f0 ff ff 01 	movl   $0x1,-0xf18(%rbp)
   1cebc:	00 00 00 
   1cebf:	48 8b 1d 3a af 00 00 	mov    0xaf3a(%rip),%rbx        # 27e00 <g_87>
   1cec6:	be 00 00 00 00       	mov    $0x0,%esi
   1cecb:	bf 00 00 00 00       	mov    $0x0,%edi
   1ced0:	e8 77 fd fe ff       	callq  cc4c <safe_lshift_func_uint8_t_u_u>
   1ced5:	88 03                	mov    %al,(%rbx)
   1ced7:	0f b6 03             	movzbl (%rbx),%eax
   1ceda:	3c 01                	cmp    $0x1,%al
   1cedc:	0f 94 c0             	sete   %al
   1cedf:	0f b6 d0             	movzbl %al,%edx
   1cee2:	48 8b 85 28 f2 ff ff 	mov    -0xdd8(%rbp),%rax
   1cee9:	48 8b 00             	mov    (%rax),%rax
   1ceec:	48 8b 00             	mov    (%rax),%rax
   1ceef:	8b 08                	mov    (%rax),%ecx
   1cef1:	48 83 bd c8 f2 ff ff 	cmpq   $0x0,-0xd38(%rbp)
   1cef8:	00 
   1cef9:	75 09                	jne    1cf04 <func_40+0x2b32>
   1cefb:	83 bd f8 f0 ff ff 00 	cmpl   $0x0,-0xf08(%rbp)
   1cf02:	74 07                	je     1cf0b <func_40+0x2b39>
   1cf04:	be 01 00 00 00       	mov    $0x1,%esi
   1cf09:	eb 05                	jmp    1cf10 <func_40+0x2b3e>
   1cf0b:	be 00 00 00 00       	mov    $0x0,%esi
   1cf10:	8b 85 58 f0 ff ff    	mov    -0xfa8(%rbp),%eax
   1cf16:	21 f0                	and    %esi,%eax
   1cf18:	83 f0 05             	xor    $0x5,%eax
   1cf1b:	83 f8 fa             	cmp    $0xfffffffa,%eax
   1cf1e:	0f 96 c0             	setbe  %al
   1cf21:	0f b6 c0             	movzbl %al,%eax
   1cf24:	39 c1                	cmp    %eax,%ecx
   1cf26:	0f 9c c0             	setl   %al
   1cf29:	0f b6 c0             	movzbl %al,%eax
   1cf2c:	39 c2                	cmp    %eax,%edx
   1cf2e:	0f 9d c0             	setge  %al
   1cf31:	0f b6 c0             	movzbl %al,%eax
   1cf34:	89 85 ec f0 ff ff    	mov    %eax,-0xf14(%rbp)
   1cf3a:	8b 85 ec f0 ff ff    	mov    -0xf14(%rbp),%eax
   1cf40:	0f be c0             	movsbl %al,%eax
   1cf43:	be ff ff ff ff       	mov    $0xffffffff,%esi
   1cf48:	89 c7                	mov    %eax,%edi
   1cf4a:	e8 c3 f2 fe ff       	callq  c212 <safe_mul_func_int8_t_s_s>
   1cf4f:	48 8b 85 50 f0 ff ff 	mov    -0xfb0(%rbp),%rax
   1cf56:	48 85 c0             	test   %rax,%rax
   1cf59:	0f 9f c0             	setg   %al
   1cf5c:	0f b6 d0             	movzbl %al,%edx
   1cf5f:	8b 85 90 f3 ff ff    	mov    -0xc70(%rbp),%eax
   1cf65:	09 d0                	or     %edx,%eax
   1cf67:	89 85 90 f3 ff ff    	mov    %eax,-0xc70(%rbp)
   1cf6d:	48 8b 85 50 f2 ff ff 	mov    -0xdb0(%rbp),%rax
   1cf74:	c6 00 00             	movb   $0x0,(%rax)
   1cf77:	48 8b 05 ca ae 00 00 	mov    0xaeca(%rip),%rax        # 27e48 <g_489>
   1cf7e:	48 8b 10             	mov    (%rax),%rdx
   1cf81:	48 8b 85 18 f1 ff ff 	mov    -0xee8(%rbp),%rax
   1cf88:	48 8b 00             	mov    (%rax),%rax
   1cf8b:	8b 12                	mov    (%rdx),%edx
   1cf8d:	89 10                	mov    %edx,(%rax)
   1cf8f:	8b 85 a8 f0 ff ff    	mov    -0xf58(%rbp),%eax
   1cf95:	be 05 00 00 00       	mov    $0x5,%esi
   1cf9a:	89 c7                	mov    %eax,%edi
   1cf9c:	e8 64 f6 fe ff       	callq  c605 <safe_sub_func_int32_t_s_s>
   1cfa1:	89 85 a8 f0 ff ff    	mov    %eax,-0xf58(%rbp)
   1cfa7:	83 bd a8 f0 ff ff ed 	cmpl   $0xffffffed,-0xf58(%rbp)
   1cfae:	0f 8c 80 fc ff ff    	jl     1cc34 <func_40+0x2862>
   1cfb4:	48 8b 05 45 ae 00 00 	mov    0xae45(%rip),%rax        # 27e00 <g_87>
   1cfbb:	0f b6 00             	movzbl (%rax),%eax
   1cfbe:	eb 6c                	jmp    1d02c <func_40+0x2c5a>
   1cfc0:	0f b6 85 5c f0 ff ff 	movzbl -0xfa4(%rbp),%eax
   1cfc7:	84 c0                	test   %al,%al
   1cfc9:	74 07                	je     1cfd2 <func_40+0x2c00>
   1cfcb:	b8 01 00 00 00       	mov    $0x1,%eax
   1cfd0:	eb 05                	jmp    1cfd7 <func_40+0x2c05>
   1cfd2:	b8 00 00 00 00       	mov    $0x0,%eax
   1cfd7:	0f b6 c0             	movzbl %al,%eax
   1cfda:	be 00 00 00 00       	mov    $0x0,%esi
   1cfdf:	89 c7                	mov    %eax,%edi
   1cfe1:	e8 ad fb fe ff       	callq  cb93 <safe_mul_func_uint8_t_u_u>
   1cfe6:	0f b6 d8             	movzbl %al,%ebx
   1cfe9:	0f b6 85 5c f0 ff ff 	movzbl -0xfa4(%rbp),%eax
   1cff0:	0f b6 c8             	movzbl %al,%ecx
   1cff3:	48 8b 05 06 ae 00 00 	mov    0xae06(%rip),%rax        # 27e00 <g_87>
   1cffa:	0f b6 10             	movzbl (%rax),%edx
   1cffd:	8d 72 ff             	lea    -0x1(%rdx),%esi
   1d000:	40 88 30             	mov    %sil,(%rax)
   1d003:	0f b6 c2             	movzbl %dl,%eax
   1d006:	89 ce                	mov    %ecx,%esi
   1d008:	89 c7                	mov    %eax,%edi
   1d00a:	e8 69 fb fe ff       	callq  cb78 <safe_sub_func_uint8_t_u_u>
   1d00f:	0f b6 c0             	movzbl %al,%eax
   1d012:	89 de                	mov    %ebx,%esi
   1d014:	89 c7                	mov    %eax,%edi
   1d016:	e8 da f3 fe ff       	callq  c3f5 <safe_mul_func_int16_t_s_s>
   1d01b:	48 c7 85 c0 f1 ff ff 	movq   $0xb225bc2,-0xe40(%rbp)
   1d022:	c2 5b 22 0b 
   1d026:	8b 85 58 f0 ff ff    	mov    -0xfa8(%rbp),%eax
   1d02c:	48 8b 5d c8          	mov    -0x38(%rbp),%rbx
   1d030:	64 48 33 1c 25 28 00 	xor    %fs:0x28,%rbx
   1d037:	00 00 
   1d039:	74 05                	je     1d040 <func_40+0x2c6e>
   1d03b:	e8 30 f0 fe ff       	callq  c070 <__stack_chk_fail@plt>
   1d040:	48 81 c4 88 0f 00 00 	add    $0xf88,%rsp
   1d047:	5b                   	pop    %rbx
   1d048:	41 5c                	pop    %r12
   1d04a:	41 5d                	pop    %r13
   1d04c:	41 5e                	pop    %r14
   1d04e:	41 5f                	pop    %r15
   1d050:	5d                   	pop    %rbp
   1d051:	c3                   	retq   

000000000001d052 <func_61>:
   1d052:	f3 0f 1e fa          	endbr64 
   1d056:	55                   	push   %rbp
   1d057:	48 89 e5             	mov    %rsp,%rbp
   1d05a:	48 83 ec 30          	sub    $0x30,%rsp
   1d05e:	48 89 7d e8          	mov    %rdi,-0x18(%rbp)
   1d062:	89 f0                	mov    %esi,%eax
   1d064:	89 55 e0             	mov    %edx,-0x20(%rbp)
   1d067:	89 ca                	mov    %ecx,%edx
   1d069:	66 89 45 e4          	mov    %ax,-0x1c(%rbp)
   1d06d:	89 d0                	mov    %edx,%eax
   1d06f:	88 45 dc             	mov    %al,-0x24(%rbp)
   1d072:	c7 45 fc ff ff ff ff 	movl   $0xffffffff,-0x4(%rbp)
   1d079:	c7 45 e0 00 00 00 00 	movl   $0x0,-0x20(%rbp)
   1d080:	eb 48                	jmp    1d0ca <func_61+0x78>
   1d082:	0f be 55 dc          	movsbl -0x24(%rbp),%edx
   1d086:	0f b6 05 3b 90 00 00 	movzbl 0x903b(%rip),%eax        # 260c8 <g_56>
   1d08d:	0f b6 c0             	movzbl %al,%eax
   1d090:	89 d6                	mov    %edx,%esi
   1d092:	89 c7                	mov    %eax,%edi
   1d094:	e8 3c 00 00 00       	callq  1d0d5 <func_68>
   1d099:	89 c2                	mov    %eax,%edx
   1d09b:	48 8b 05 a6 ad 00 00 	mov    0xada6(%rip),%rax        # 27e48 <g_489>
   1d0a2:	48 8b 00             	mov    (%rax),%rax
   1d0a5:	8b 08                	mov    (%rax),%ecx
   1d0a7:	48 8b 05 9a ad 00 00 	mov    0xad9a(%rip),%rax        # 27e48 <g_489>
   1d0ae:	48 8b 00             	mov    (%rax),%rax
   1d0b1:	21 ca                	and    %ecx,%edx
   1d0b3:	89 10                	mov    %edx,(%rax)
   1d0b5:	48 8d 05 8c ad 00 00 	lea    0xad8c(%rip),%rax        # 27e48 <g_489>
   1d0bc:	48 8b 00             	mov    (%rax),%rax
   1d0bf:	48 8b 00             	mov    (%rax),%rax
   1d0c2:	8b 00                	mov    (%rax),%eax
   1d0c4:	85 c0                	test   %eax,%eax
   1d0c6:	83 6d e0 01          	subl   $0x1,-0x20(%rbp)
   1d0ca:	83 7d e0 f6          	cmpl   $0xfffffff6,-0x20(%rbp)
   1d0ce:	7c b2                	jl     1d082 <func_61+0x30>
   1d0d0:	8b 45 fc             	mov    -0x4(%rbp),%eax
   1d0d3:	c9                   	leaveq 
   1d0d4:	c3                   	retq   

000000000001d0d5 <func_68>:
   1d0d5:	f3 0f 1e fa          	endbr64 
   1d0d9:	55                   	push   %rbp
   1d0da:	48 89 e5             	mov    %rsp,%rbp
   1d0dd:	41 56                	push   %r14
   1d0df:	41 55                	push   %r13
   1d0e1:	41 54                	push   %r12
   1d0e3:	53                   	push   %rbx
   1d0e4:	48 81 ec e0 0a 00 00 	sub    $0xae0,%rsp
   1d0eb:	89 bd 0c f5 ff ff    	mov    %edi,-0xaf4(%rbp)
   1d0f1:	89 b5 08 f5 ff ff    	mov    %esi,-0xaf8(%rbp)
   1d0f7:	64 48 8b 04 25 28 00 	mov    %fs:0x28,%rax
   1d0fe:	00 00 
   1d100:	48 89 45 d8          	mov    %rax,-0x28(%rbp)
   1d104:	31 c0                	xor    %eax,%eax
   1d106:	c7 85 34 f5 ff ff 9d 	movl   $0x3f201f9d,-0xacc(%rbp)
   1d10d:	1f 20 3f 
   1d110:	c7 85 18 f5 ff ff 1b 	movl   $0xcb6e431b,-0xae8(%rbp)
   1d117:	43 6e cb 
   1d11a:	48 c7 85 50 f5 ff ff 	movq   $0x0,-0xab0(%rbp)
   1d121:	00 00 00 00 
   1d125:	c7 85 1c f5 ff ff fb 	movl   $0xfffffffb,-0xae4(%rbp)
   1d12c:	ff ff ff 
   1d12f:	c7 45 d1 c1 c1 c1 c1 	movl   $0xc1c1c1c1,-0x2f(%rbp)
   1d136:	66 c7 45 d5 c1 c1    	movw   $0xc1c1,-0x2b(%rbp)
   1d13c:	c6 45 d7 c1          	movb   $0xc1,-0x29(%rbp)
   1d140:	48 c7 85 58 f5 ff ff 	movq   $0x0,-0xaa8(%rbp)
   1d147:	00 00 00 00 
   1d14b:	48 8d 85 58 f5 ff ff 	lea    -0xaa8(%rbp),%rax
   1d152:	48 89 85 b8 f5 ff ff 	mov    %rax,-0xa48(%rbp)
   1d159:	48 8d 05 08 dd 00 00 	lea    0xdd08(%rip),%rax        # 2ae68 <g_215>
   1d160:	48 89 85 c0 f5 ff ff 	mov    %rax,-0xa40(%rbp)
   1d167:	48 c7 85 c8 f5 ff ff 	movq   $0x0,-0xa38(%rbp)
   1d16e:	00 00 00 00 
   1d172:	48 8d 05 77 90 00 00 	lea    0x9077(%rip),%rax        # 261f0 <g_218>
   1d179:	48 89 85 d0 f5 ff ff 	mov    %rax,-0xa30(%rbp)
   1d180:	48 8d 85 50 f5 ff ff 	lea    -0xab0(%rbp),%rax
   1d187:	48 89 85 20 fa ff ff 	mov    %rax,-0x5e0(%rbp)
   1d18e:	48 8d 85 50 f5 ff ff 	lea    -0xab0(%rbp),%rax
   1d195:	48 89 85 28 fa ff ff 	mov    %rax,-0x5d8(%rbp)
   1d19c:	48 c7 85 30 fa ff ff 	movq   $0x0,-0x5d0(%rbp)
   1d1a3:	00 00 00 00 
   1d1a7:	48 c7 85 38 fa ff ff 	movq   $0x0,-0x5c8(%rbp)
   1d1ae:	00 00 00 00 
   1d1b2:	48 8d 85 50 f5 ff ff 	lea    -0xab0(%rbp),%rax
   1d1b9:	48 89 85 40 fa ff ff 	mov    %rax,-0x5c0(%rbp)
   1d1c0:	48 8d 85 50 f5 ff ff 	lea    -0xab0(%rbp),%rax
   1d1c7:	48 89 85 48 fa ff ff 	mov    %rax,-0x5b8(%rbp)
   1d1ce:	48 c7 85 50 fa ff ff 	movq   $0x0,-0x5b0(%rbp)
   1d1d5:	00 00 00 00 
   1d1d9:	48 8d 85 50 f5 ff ff 	lea    -0xab0(%rbp),%rax
   1d1e0:	48 89 85 58 fa ff ff 	mov    %rax,-0x5a8(%rbp)
   1d1e7:	48 8d 05 12 ac 00 00 	lea    0xac12(%rip),%rax        # 27e00 <g_87>
   1d1ee:	48 89 85 60 fa ff ff 	mov    %rax,-0x5a0(%rbp)
   1d1f5:	48 8d 85 50 f5 ff ff 	lea    -0xab0(%rbp),%rax
   1d1fc:	48 89 85 68 fa ff ff 	mov    %rax,-0x598(%rbp)
   1d203:	48 8d 05 f6 ab 00 00 	lea    0xabf6(%rip),%rax        # 27e00 <g_87>
   1d20a:	48 89 85 70 fa ff ff 	mov    %rax,-0x590(%rbp)
   1d211:	48 c7 85 78 fa ff ff 	movq   $0x0,-0x588(%rbp)
   1d218:	00 00 00 00 
   1d21c:	48 8d 05 dd ab 00 00 	lea    0xabdd(%rip),%rax        # 27e00 <g_87>
   1d223:	48 89 85 80 fa ff ff 	mov    %rax,-0x580(%rbp)
   1d22a:	48 8d 85 50 f5 ff ff 	lea    -0xab0(%rbp),%rax
   1d231:	48 89 85 88 fa ff ff 	mov    %rax,-0x578(%rbp)
   1d238:	48 8d 05 c1 ab 00 00 	lea    0xabc1(%rip),%rax        # 27e00 <g_87>
   1d23f:	48 89 85 90 fa ff ff 	mov    %rax,-0x570(%rbp)
   1d246:	48 c7 85 98 fa ff ff 	movq   $0x0,-0x568(%rbp)
   1d24d:	00 00 00 00 
   1d251:	48 8d 05 a8 ab 00 00 	lea    0xaba8(%rip),%rax        # 27e00 <g_87>
   1d258:	48 89 85 a0 fa ff ff 	mov    %rax,-0x560(%rbp)
   1d25f:	48 c7 85 a8 fa ff ff 	movq   $0x0,-0x558(%rbp)
   1d266:	00 00 00 00 
   1d26a:	48 8d 85 50 f5 ff ff 	lea    -0xab0(%rbp),%rax
   1d271:	48 89 85 b0 fa ff ff 	mov    %rax,-0x550(%rbp)
   1d278:	48 8d 85 50 f5 ff ff 	lea    -0xab0(%rbp),%rax
   1d27f:	48 89 85 b8 fa ff ff 	mov    %rax,-0x548(%rbp)
   1d286:	48 8d 05 73 ab 00 00 	lea    0xab73(%rip),%rax        # 27e00 <g_87>
   1d28d:	48 89 85 c0 fa ff ff 	mov    %rax,-0x540(%rbp)
   1d294:	48 8d 85 50 f5 ff ff 	lea    -0xab0(%rbp),%rax
   1d29b:	48 89 85 c8 fa ff ff 	mov    %rax,-0x538(%rbp)
   1d2a2:	48 8d 85 50 f5 ff ff 	lea    -0xab0(%rbp),%rax
   1d2a9:	48 89 85 d0 fa ff ff 	mov    %rax,-0x530(%rbp)
   1d2b0:	48 8d 85 50 f5 ff ff 	lea    -0xab0(%rbp),%rax
   1d2b7:	48 89 85 d8 fa ff ff 	mov    %rax,-0x528(%rbp)
   1d2be:	48 8d 85 50 f5 ff ff 	lea    -0xab0(%rbp),%rax
   1d2c5:	48 89 85 e0 fa ff ff 	mov    %rax,-0x520(%rbp)
   1d2cc:	48 c7 85 e8 fa ff ff 	movq   $0x0,-0x518(%rbp)
   1d2d3:	00 00 00 00 
   1d2d7:	48 8d 05 22 ab 00 00 	lea    0xab22(%rip),%rax        # 27e00 <g_87>
   1d2de:	48 89 85 f0 fa ff ff 	mov    %rax,-0x510(%rbp)
   1d2e5:	48 8d 85 50 f5 ff ff 	lea    -0xab0(%rbp),%rax
   1d2ec:	48 89 85 f8 fa ff ff 	mov    %rax,-0x508(%rbp)
   1d2f3:	48 c7 85 00 fb ff ff 	movq   $0x0,-0x500(%rbp)
   1d2fa:	00 00 00 00 
   1d2fe:	48 8d 85 50 f5 ff ff 	lea    -0xab0(%rbp),%rax
   1d305:	48 89 85 08 fb ff ff 	mov    %rax,-0x4f8(%rbp)
   1d30c:	48 c7 85 10 fb ff ff 	movq   $0x0,-0x4f0(%rbp)
   1d313:	00 00 00 00 
   1d317:	48 8d 05 e2 aa 00 00 	lea    0xaae2(%rip),%rax        # 27e00 <g_87>
   1d31e:	48 89 85 18 fb ff ff 	mov    %rax,-0x4e8(%rbp)
   1d325:	48 8d 85 50 f5 ff ff 	lea    -0xab0(%rbp),%rax
   1d32c:	48 89 85 20 fb ff ff 	mov    %rax,-0x4e0(%rbp)
   1d333:	48 c7 85 28 fb ff ff 	movq   $0x0,-0x4d8(%rbp)
   1d33a:	00 00 00 00 
   1d33e:	48 8d 85 50 f5 ff ff 	lea    -0xab0(%rbp),%rax
   1d345:	48 89 85 30 fb ff ff 	mov    %rax,-0x4d0(%rbp)
   1d34c:	48 c7 85 38 fb ff ff 	movq   $0x0,-0x4c8(%rbp)
   1d353:	00 00 00 00 
   1d357:	48 8d 85 50 f5 ff ff 	lea    -0xab0(%rbp),%rax
   1d35e:	48 89 85 40 fb ff ff 	mov    %rax,-0x4c0(%rbp)
   1d365:	48 8d 05 94 aa 00 00 	lea    0xaa94(%rip),%rax        # 27e00 <g_87>
   1d36c:	48 89 85 48 fb ff ff 	mov    %rax,-0x4b8(%rbp)
   1d373:	48 c7 85 50 fb ff ff 	movq   $0x0,-0x4b0(%rbp)
   1d37a:	00 00 00 00 
   1d37e:	48 8d 85 50 f5 ff ff 	lea    -0xab0(%rbp),%rax
   1d385:	48 89 85 58 fb ff ff 	mov    %rax,-0x4a8(%rbp)
   1d38c:	48 8d 85 50 f5 ff ff 	lea    -0xab0(%rbp),%rax
   1d393:	48 89 85 60 fb ff ff 	mov    %rax,-0x4a0(%rbp)
   1d39a:	48 8d 85 50 f5 ff ff 	lea    -0xab0(%rbp),%rax
   1d3a1:	48 89 85 68 fb ff ff 	mov    %rax,-0x498(%rbp)
   1d3a8:	48 8d 85 50 f5 ff ff 	lea    -0xab0(%rbp),%rax
   1d3af:	48 89 85 70 fb ff ff 	mov    %rax,-0x490(%rbp)
   1d3b6:	48 8d 85 50 f5 ff ff 	lea    -0xab0(%rbp),%rax
   1d3bd:	48 89 85 78 fb ff ff 	mov    %rax,-0x488(%rbp)
   1d3c4:	48 8d 05 35 aa 00 00 	lea    0xaa35(%rip),%rax        # 27e00 <g_87>
   1d3cb:	48 89 85 80 fb ff ff 	mov    %rax,-0x480(%rbp)
   1d3d2:	48 8d 05 27 aa 00 00 	lea    0xaa27(%rip),%rax        # 27e00 <g_87>
   1d3d9:	48 89 85 88 fb ff ff 	mov    %rax,-0x478(%rbp)
   1d3e0:	48 8d 85 50 f5 ff ff 	lea    -0xab0(%rbp),%rax
   1d3e7:	48 89 85 90 fb ff ff 	mov    %rax,-0x470(%rbp)
   1d3ee:	48 8d 85 50 f5 ff ff 	lea    -0xab0(%rbp),%rax
   1d3f5:	48 89 85 98 fb ff ff 	mov    %rax,-0x468(%rbp)
   1d3fc:	48 8d 85 50 f5 ff ff 	lea    -0xab0(%rbp),%rax
   1d403:	48 89 85 a0 fb ff ff 	mov    %rax,-0x460(%rbp)
   1d40a:	48 8d 85 50 f5 ff ff 	lea    -0xab0(%rbp),%rax
   1d411:	48 89 85 a8 fb ff ff 	mov    %rax,-0x458(%rbp)
   1d418:	48 8d 85 50 f5 ff ff 	lea    -0xab0(%rbp),%rax
   1d41f:	48 89 85 b0 fb ff ff 	mov    %rax,-0x450(%rbp)
   1d426:	48 c7 85 b8 fb ff ff 	movq   $0x0,-0x448(%rbp)
   1d42d:	00 00 00 00 
   1d431:	48 c7 85 c0 fb ff ff 	movq   $0x0,-0x440(%rbp)
   1d438:	00 00 00 00 
   1d43c:	48 8d 85 50 f5 ff ff 	lea    -0xab0(%rbp),%rax
   1d443:	48 89 85 c8 fb ff ff 	mov    %rax,-0x438(%rbp)
   1d44a:	48 8d 85 50 f5 ff ff 	lea    -0xab0(%rbp),%rax
   1d451:	48 89 85 d0 fb ff ff 	mov    %rax,-0x430(%rbp)
   1d458:	48 8d 85 50 f5 ff ff 	lea    -0xab0(%rbp),%rax
   1d45f:	48 89 85 d8 fb ff ff 	mov    %rax,-0x428(%rbp)
   1d466:	48 8d 85 50 f5 ff ff 	lea    -0xab0(%rbp),%rax
   1d46d:	48 89 85 e0 fb ff ff 	mov    %rax,-0x420(%rbp)
   1d474:	48 8d 85 50 f5 ff ff 	lea    -0xab0(%rbp),%rax
   1d47b:	48 89 85 e8 fb ff ff 	mov    %rax,-0x418(%rbp)
   1d482:	48 c7 85 f0 fb ff ff 	movq   $0x0,-0x410(%rbp)
   1d489:	00 00 00 00 
   1d48d:	48 c7 85 f8 fb ff ff 	movq   $0x0,-0x408(%rbp)
   1d494:	00 00 00 00 
   1d498:	48 8d 85 50 f5 ff ff 	lea    -0xab0(%rbp),%rax
   1d49f:	48 89 85 00 fc ff ff 	mov    %rax,-0x400(%rbp)
   1d4a6:	48 8d 85 50 f5 ff ff 	lea    -0xab0(%rbp),%rax
   1d4ad:	48 89 85 08 fc ff ff 	mov    %rax,-0x3f8(%rbp)
   1d4b4:	48 8d 85 50 f5 ff ff 	lea    -0xab0(%rbp),%rax
   1d4bb:	48 89 85 10 fc ff ff 	mov    %rax,-0x3f0(%rbp)
   1d4c2:	48 c7 85 18 fc ff ff 	movq   $0x0,-0x3e8(%rbp)
   1d4c9:	00 00 00 00 
   1d4cd:	48 8d 85 50 f5 ff ff 	lea    -0xab0(%rbp),%rax
   1d4d4:	48 89 85 20 fc ff ff 	mov    %rax,-0x3e0(%rbp)
   1d4db:	48 8d 05 1e a9 00 00 	lea    0xa91e(%rip),%rax        # 27e00 <g_87>
   1d4e2:	48 89 85 28 fc ff ff 	mov    %rax,-0x3d8(%rbp)
   1d4e9:	48 8d 05 10 a9 00 00 	lea    0xa910(%rip),%rax        # 27e00 <g_87>
   1d4f0:	48 89 85 30 fc ff ff 	mov    %rax,-0x3d0(%rbp)
   1d4f7:	48 8d 85 50 f5 ff ff 	lea    -0xab0(%rbp),%rax
   1d4fe:	48 89 85 38 fc ff ff 	mov    %rax,-0x3c8(%rbp)
   1d505:	48 c7 85 40 fc ff ff 	movq   $0x0,-0x3c0(%rbp)
   1d50c:	00 00 00 00 
   1d510:	48 8d 85 50 f5 ff ff 	lea    -0xab0(%rbp),%rax
   1d517:	48 89 85 48 fc ff ff 	mov    %rax,-0x3b8(%rbp)
   1d51e:	48 8d 85 50 f5 ff ff 	lea    -0xab0(%rbp),%rax
   1d525:	48 89 85 50 fc ff ff 	mov    %rax,-0x3b0(%rbp)
   1d52c:	48 8d 85 50 f5 ff ff 	lea    -0xab0(%rbp),%rax
   1d533:	48 89 85 58 fc ff ff 	mov    %rax,-0x3a8(%rbp)
   1d53a:	48 8d 85 50 f5 ff ff 	lea    -0xab0(%rbp),%rax
   1d541:	48 89 85 60 fc ff ff 	mov    %rax,-0x3a0(%rbp)
   1d548:	48 8d 85 50 f5 ff ff 	lea    -0xab0(%rbp),%rax
   1d54f:	48 89 85 68 fc ff ff 	mov    %rax,-0x398(%rbp)
   1d556:	48 8d 05 a3 a8 00 00 	lea    0xa8a3(%rip),%rax        # 27e00 <g_87>
   1d55d:	48 89 85 70 fc ff ff 	mov    %rax,-0x390(%rbp)
   1d564:	48 8d 05 95 a8 00 00 	lea    0xa895(%rip),%rax        # 27e00 <g_87>
   1d56b:	48 89 85 78 fc ff ff 	mov    %rax,-0x388(%rbp)
   1d572:	48 c7 85 80 fc ff ff 	movq   $0x0,-0x380(%rbp)
   1d579:	00 00 00 00 
   1d57d:	48 8d 05 7c a8 00 00 	lea    0xa87c(%rip),%rax        # 27e00 <g_87>
   1d584:	48 89 85 88 fc ff ff 	mov    %rax,-0x378(%rbp)
   1d58b:	48 8d 05 6e a8 00 00 	lea    0xa86e(%rip),%rax        # 27e00 <g_87>
   1d592:	48 89 85 90 fc ff ff 	mov    %rax,-0x370(%rbp)
   1d599:	48 8d 85 50 f5 ff ff 	lea    -0xab0(%rbp),%rax
   1d5a0:	48 89 85 98 fc ff ff 	mov    %rax,-0x368(%rbp)
   1d5a7:	48 8d 85 20 fa ff ff 	lea    -0x5e0(%rbp),%rax
   1d5ae:	48 05 48 01 00 00    	add    $0x148,%rax
   1d5b4:	48 89 85 d0 f6 ff ff 	mov    %rax,-0x930(%rbp)
   1d5bb:	48 8d 85 20 fa ff ff 	lea    -0x5e0(%rbp),%rax
   1d5c2:	48 05 48 01 00 00    	add    $0x148,%rax
   1d5c8:	48 89 85 d8 f6 ff ff 	mov    %rax,-0x928(%rbp)
   1d5cf:	48 8d 85 20 fa ff ff 	lea    -0x5e0(%rbp),%rax
   1d5d6:	48 05 48 01 00 00    	add    $0x148,%rax
   1d5dc:	48 89 85 e0 f6 ff ff 	mov    %rax,-0x920(%rbp)
   1d5e3:	48 8d 85 20 fa ff ff 	lea    -0x5e0(%rbp),%rax
   1d5ea:	48 89 85 e8 f6 ff ff 	mov    %rax,-0x918(%rbp)
   1d5f1:	48 8d 85 20 fa ff ff 	lea    -0x5e0(%rbp),%rax
   1d5f8:	48 89 85 f0 f6 ff ff 	mov    %rax,-0x910(%rbp)
   1d5ff:	48 8d 85 20 fa ff ff 	lea    -0x5e0(%rbp),%rax
   1d606:	48 89 85 f8 f6 ff ff 	mov    %rax,-0x908(%rbp)
   1d60d:	48 8d 85 20 fa ff ff 	lea    -0x5e0(%rbp),%rax
   1d614:	48 05 48 01 00 00    	add    $0x148,%rax
   1d61a:	48 89 85 00 f7 ff ff 	mov    %rax,-0x900(%rbp)
   1d621:	48 8d 85 20 fa ff ff 	lea    -0x5e0(%rbp),%rax
   1d628:	48 05 48 01 00 00    	add    $0x148,%rax
   1d62e:	48 89 85 08 f7 ff ff 	mov    %rax,-0x8f8(%rbp)
   1d635:	48 8d 85 20 fa ff ff 	lea    -0x5e0(%rbp),%rax
   1d63c:	48 05 48 01 00 00    	add    $0x148,%rax
   1d642:	48 89 85 10 f7 ff ff 	mov    %rax,-0x8f0(%rbp)
   1d649:	48 8d 05 e0 8b 00 00 	lea    0x8be0(%rip),%rax        # 26230 <g_298>
   1d650:	48 89 85 60 f5 ff ff 	mov    %rax,-0xaa0(%rbp)
   1d657:	48 8d 85 60 f5 ff ff 	lea    -0xaa0(%rbp),%rax
   1d65e:	48 89 85 d8 f5 ff ff 	mov    %rax,-0xa28(%rbp)
   1d665:	48 8d 05 f4 8a 00 00 	lea    0x8af4(%rip),%rax        # 26160 <g_133>
   1d66c:	48 89 85 e0 f5 ff ff 	mov    %rax,-0xa20(%rbp)
   1d673:	c7 85 38 f5 ff ff 26 	movl   $0xd5a5f326,-0xac8(%rbp)
   1d67a:	f3 a5 d5 
   1d67d:	48 c7 85 20 f7 ff ff 	movq   $0x0,-0x8e0(%rbp)
   1d684:	00 00 00 00 
   1d688:	48 c7 85 28 f7 ff ff 	movq   $0x0,-0x8d8(%rbp)
   1d68f:	00 00 00 00 
   1d693:	48 8d 05 0a 8b 00 00 	lea    0x8b0a(%rip),%rax        # 261a4 <g_211+0x24>
   1d69a:	48 89 85 30 f7 ff ff 	mov    %rax,-0x8d0(%rbp)
   1d6a1:	48 c7 85 38 f7 ff ff 	movq   $0x0,-0x8c8(%rbp)
   1d6a8:	00 00 00 00 
   1d6ac:	48 c7 85 40 f7 ff ff 	movq   $0x0,-0x8c0(%rbp)
   1d6b3:	00 00 00 00 
   1d6b7:	48 8d 05 e6 8a 00 00 	lea    0x8ae6(%rip),%rax        # 261a4 <g_211+0x24>
   1d6be:	48 89 85 48 f7 ff ff 	mov    %rax,-0x8b8(%rbp)
   1d6c5:	48 c7 85 50 f7 ff ff 	movq   $0x0,-0x8b0(%rbp)
   1d6cc:	00 00 00 00 
   1d6d0:	48 c7 85 58 f7 ff ff 	movq   $0x0,-0x8a8(%rbp)
   1d6d7:	00 00 00 00 
   1d6db:	48 8d 05 c2 8a 00 00 	lea    0x8ac2(%rip),%rax        # 261a4 <g_211+0x24>
   1d6e2:	48 89 85 60 f7 ff ff 	mov    %rax,-0x8a0(%rbp)
   1d6e9:	c7 85 3c f5 ff ff 74 	movl   $0x23f62d74,-0xac4(%rbp)
   1d6f0:	2d f6 23 
   1d6f3:	c7 85 40 f5 ff ff f8 	movl   $0xfffffff8,-0xac0(%rbp)
   1d6fa:	ff ff ff 
   1d6fd:	c7 85 70 f7 ff ff da 	movl   $0x25df65da,-0x890(%rbp)
   1d704:	65 df 25 
   1d707:	c7 85 74 f7 ff ff 01 	movl   $0x1,-0x88c(%rbp)
   1d70e:	00 00 00 
   1d711:	c7 85 78 f7 ff ff 15 	movl   $0x9e11b615,-0x888(%rbp)
   1d718:	b6 11 9e 
   1d71b:	c7 85 7c f7 ff ff fe 	movl   $0x14954dfe,-0x884(%rbp)
   1d722:	4d 95 14 
   1d725:	c7 85 80 f7 ff ff fe 	movl   $0x14954dfe,-0x880(%rbp)
   1d72c:	4d 95 14 
   1d72f:	c7 85 84 f7 ff ff 92 	movl   $0x82808992,-0x87c(%rbp)
   1d736:	89 80 82 
   1d739:	c7 85 88 f7 ff ff da 	movl   $0x25df65da,-0x878(%rbp)
   1d740:	65 df 25 
   1d743:	c7 85 8c f7 ff ff 01 	movl   $0x1,-0x874(%rbp)
   1d74a:	00 00 00 
   1d74d:	c7 85 90 f7 ff ff 15 	movl   $0x9e11b615,-0x870(%rbp)
   1d754:	b6 11 9e 
   1d757:	c7 85 94 f7 ff ff fe 	movl   $0x14954dfe,-0x86c(%rbp)
   1d75e:	4d 95 14 
   1d761:	c7 85 98 f7 ff ff fe 	movl   $0x14954dfe,-0x868(%rbp)
   1d768:	4d 95 14 
   1d76b:	c7 85 9c f7 ff ff 92 	movl   $0x82808992,-0x864(%rbp)
   1d772:	89 80 82 
   1d775:	c7 85 a0 f7 ff ff da 	movl   $0x25df65da,-0x860(%rbp)
   1d77c:	65 df 25 
   1d77f:	c7 85 a4 f7 ff ff 01 	movl   $0x1,-0x85c(%rbp)
   1d786:	00 00 00 
   1d789:	c7 85 a8 f7 ff ff 15 	movl   $0x9e11b615,-0x858(%rbp)
   1d790:	b6 11 9e 
   1d793:	c7 85 ac f7 ff ff fe 	movl   $0x14954dfe,-0x854(%rbp)
   1d79a:	4d 95 14 
   1d79d:	c7 85 b0 f7 ff ff fe 	movl   $0x14954dfe,-0x850(%rbp)
   1d7a4:	4d 95 14 
   1d7a7:	c7 85 b4 f7 ff ff 92 	movl   $0x82808992,-0x84c(%rbp)
   1d7ae:	89 80 82 
   1d7b1:	c7 85 b8 f7 ff ff da 	movl   $0x25df65da,-0x848(%rbp)
   1d7b8:	65 df 25 
   1d7bb:	c7 85 bc f7 ff ff 01 	movl   $0x1,-0x844(%rbp)
   1d7c2:	00 00 00 
   1d7c5:	c7 85 c0 f7 ff ff 15 	movl   $0x9e11b615,-0x840(%rbp)
   1d7cc:	b6 11 9e 
   1d7cf:	c7 85 c4 f7 ff ff fe 	movl   $0x14954dfe,-0x83c(%rbp)
   1d7d6:	4d 95 14 
   1d7d9:	c7 85 c8 f7 ff ff fe 	movl   $0x14954dfe,-0x838(%rbp)
   1d7e0:	4d 95 14 
   1d7e3:	c7 85 cc f7 ff ff 92 	movl   $0x82808992,-0x834(%rbp)
   1d7ea:	89 80 82 
   1d7ed:	c7 85 d0 f7 ff ff da 	movl   $0x25df65da,-0x830(%rbp)
   1d7f4:	65 df 25 
   1d7f7:	c7 85 d4 f7 ff ff 01 	movl   $0x1,-0x82c(%rbp)
   1d7fe:	00 00 00 
   1d801:	c7 85 d8 f7 ff ff 15 	movl   $0x9e11b615,-0x828(%rbp)
   1d808:	b6 11 9e 
   1d80b:	c7 85 dc f7 ff ff fe 	movl   $0x14954dfe,-0x824(%rbp)
   1d812:	4d 95 14 
   1d815:	c7 85 e0 f7 ff ff fe 	movl   $0x14954dfe,-0x820(%rbp)
   1d81c:	4d 95 14 
   1d81f:	c7 85 e4 f7 ff ff 92 	movl   $0x82808992,-0x81c(%rbp)
   1d826:	89 80 82 
   1d829:	c7 85 28 f5 ff ff 00 	movl   $0x0,-0xad8(%rbp)
   1d830:	00 00 00 
   1d833:	eb 1e                	jmp    1d853 <func_68+0x77e>
   1d835:	8b 85 28 f5 ff ff    	mov    -0xad8(%rbp),%eax
   1d83b:	48 98                	cltq   
   1d83d:	48 8d 15 e4 88 00 00 	lea    0x88e4(%rip),%rdx        # 26128 <g_100+0x48>
   1d844:	48 89 94 c5 a0 f6 ff 	mov    %rdx,-0x960(%rbp,%rax,8)
   1d84b:	ff 
   1d84c:	83 85 28 f5 ff ff 01 	addl   $0x1,-0xad8(%rbp)
   1d853:	83 bd 28 f5 ff ff 05 	cmpl   $0x5,-0xad8(%rbp)
   1d85a:	7e d9                	jle    1d835 <func_68+0x760>
   1d85c:	c7 85 28 f5 ff ff 00 	movl   $0x0,-0xad8(%rbp)
   1d863:	00 00 00 
   1d866:	eb 22                	jmp    1d88a <func_68+0x7b5>
   1d868:	8b 85 28 f5 ff ff    	mov    -0xad8(%rbp),%eax
   1d86e:	48 98                	cltq   
   1d870:	48 8d 95 20 f7 ff ff 	lea    -0x8e0(%rbp),%rdx
   1d877:	48 83 c2 38          	add    $0x38,%rdx
   1d87b:	48 89 94 c5 70 f6 ff 	mov    %rdx,-0x990(%rbp,%rax,8)
   1d882:	ff 
   1d883:	83 85 28 f5 ff ff 01 	addl   $0x1,-0xad8(%rbp)
   1d88a:	83 bd 28 f5 ff ff 01 	cmpl   $0x1,-0xad8(%rbp)
   1d891:	7e d5                	jle    1d868 <func_68+0x793>
   1d893:	c7 85 28 f5 ff ff 00 	movl   $0x0,-0xad8(%rbp)
   1d89a:	00 00 00 
   1d89d:	eb 1a                	jmp    1d8b9 <func_68+0x7e4>
   1d89f:	8b 85 28 f5 ff ff    	mov    -0xad8(%rbp),%eax
   1d8a5:	48 98                	cltq   
   1d8a7:	c7 84 85 64 f6 ff ff 	movl   $0xd2e6b156,-0x99c(%rbp,%rax,4)
   1d8ae:	56 b1 e6 d2 
   1d8b2:	83 85 28 f5 ff ff 01 	addl   $0x1,-0xad8(%rbp)
   1d8b9:	83 bd 28 f5 ff ff 02 	cmpl   $0x2,-0xad8(%rbp)
   1d8c0:	7e dd                	jle    1d89f <func_68+0x7ca>
   1d8c2:	83 bd 34 f5 ff ff 00 	cmpl   $0x0,-0xacc(%rbp)
   1d8c9:	0f 84 65 0e 00 00    	je     1e734 <func_68+0x165f>
   1d8cf:	48 c7 85 68 f5 ff ff 	movq   $0x0,-0xa98(%rbp)
   1d8d6:	00 00 00 00 
   1d8da:	c7 85 20 f5 ff ff 00 	movl   $0x0,-0xae0(%rbp)
   1d8e1:	00 00 00 
   1d8e4:	48 c7 85 70 f5 ff ff 	movq   $0x0,-0xa90(%rbp)
   1d8eb:	00 00 00 00 
   1d8ef:	48 8d 85 70 f5 ff ff 	lea    -0xa90(%rbp),%rax
   1d8f6:	48 89 85 78 f5 ff ff 	mov    %rax,-0xa88(%rbp)
   1d8fd:	48 8d 85 70 f5 ff ff 	lea    -0xa90(%rbp),%rax
   1d904:	48 89 85 08 f6 ff ff 	mov    %rax,-0x9f8(%rbp)
   1d90b:	c7 85 80 f6 ff ff 62 	movl   $0x710a1762,-0x980(%rbp)
   1d912:	17 0a 71 
   1d915:	c7 85 84 f6 ff ff 62 	movl   $0x710a1762,-0x97c(%rbp)
   1d91c:	17 0a 71 
   1d91f:	c7 85 88 f6 ff ff 9a 	movl   $0x62f8029a,-0x978(%rbp)
   1d926:	02 f8 62 
   1d929:	c7 85 8c f6 ff ff 62 	movl   $0x710a1762,-0x974(%rbp)
   1d930:	17 0a 71 
   1d933:	c7 85 90 f6 ff ff 62 	movl   $0x710a1762,-0x970(%rbp)
   1d93a:	17 0a 71 
   1d93d:	c7 85 94 f6 ff ff 9a 	movl   $0x62f8029a,-0x96c(%rbp)
   1d944:	02 f8 62 
   1d947:	c7 85 98 f6 ff ff 62 	movl   $0x710a1762,-0x968(%rbp)
   1d94e:	17 0a 71 
   1d951:	c7 85 9c f6 ff ff 62 	movl   $0x710a1762,-0x964(%rbp)
   1d958:	17 0a 71 
   1d95b:	48 8d 85 1c f5 ff ff 	lea    -0xae4(%rbp),%rax
   1d962:	48 89 85 80 f5 ff ff 	mov    %rax,-0xa80(%rbp)
   1d969:	48 8d 85 80 f5 ff ff 	lea    -0xa80(%rbp),%rax
   1d970:	48 89 85 88 f5 ff ff 	mov    %rax,-0xa78(%rbp)
   1d977:	48 8d 85 88 f5 ff ff 	lea    -0xa78(%rbp),%rax
   1d97e:	48 89 85 90 f5 ff ff 	mov    %rax,-0xa70(%rbp)
   1d985:	48 8d 85 90 f5 ff ff 	lea    -0xa70(%rbp),%rax
   1d98c:	48 89 85 a0 fc ff ff 	mov    %rax,-0x360(%rbp)
   1d993:	48 8d 85 90 f5 ff ff 	lea    -0xa70(%rbp),%rax
   1d99a:	48 89 85 a8 fc ff ff 	mov    %rax,-0x358(%rbp)
   1d9a1:	48 8d 85 90 f5 ff ff 	lea    -0xa70(%rbp),%rax
   1d9a8:	48 89 85 b0 fc ff ff 	mov    %rax,-0x350(%rbp)
   1d9af:	48 c7 85 b8 fc ff ff 	movq   $0x0,-0x348(%rbp)
   1d9b6:	00 00 00 00 
   1d9ba:	48 8d 85 90 f5 ff ff 	lea    -0xa70(%rbp),%rax
   1d9c1:	48 89 85 c0 fc ff ff 	mov    %rax,-0x340(%rbp)
   1d9c8:	48 8d 85 90 f5 ff ff 	lea    -0xa70(%rbp),%rax
   1d9cf:	48 89 85 c8 fc ff ff 	mov    %rax,-0x338(%rbp)
   1d9d6:	48 8d 85 90 f5 ff ff 	lea    -0xa70(%rbp),%rax
   1d9dd:	48 89 85 d0 fc ff ff 	mov    %rax,-0x330(%rbp)
   1d9e4:	48 8d 85 90 f5 ff ff 	lea    -0xa70(%rbp),%rax
   1d9eb:	48 89 85 d8 fc ff ff 	mov    %rax,-0x328(%rbp)
   1d9f2:	48 8d 85 90 f5 ff ff 	lea    -0xa70(%rbp),%rax
   1d9f9:	48 89 85 e0 fc ff ff 	mov    %rax,-0x320(%rbp)
   1da00:	48 8d 85 90 f5 ff ff 	lea    -0xa70(%rbp),%rax
   1da07:	48 89 85 e8 fc ff ff 	mov    %rax,-0x318(%rbp)
   1da0e:	48 8d 85 90 f5 ff ff 	lea    -0xa70(%rbp),%rax
   1da15:	48 89 85 f0 fc ff ff 	mov    %rax,-0x310(%rbp)
   1da1c:	48 c7 85 f8 fc ff ff 	movq   $0x0,-0x308(%rbp)
   1da23:	00 00 00 00 
   1da27:	48 8d 85 90 f5 ff ff 	lea    -0xa70(%rbp),%rax
   1da2e:	48 89 85 00 fd ff ff 	mov    %rax,-0x300(%rbp)
   1da35:	48 8d 85 90 f5 ff ff 	lea    -0xa70(%rbp),%rax
   1da3c:	48 89 85 08 fd ff ff 	mov    %rax,-0x2f8(%rbp)
   1da43:	48 8d 85 90 f5 ff ff 	lea    -0xa70(%rbp),%rax
   1da4a:	48 89 85 10 fd ff ff 	mov    %rax,-0x2f0(%rbp)
   1da51:	48 8d 85 90 f5 ff ff 	lea    -0xa70(%rbp),%rax
   1da58:	48 89 85 18 fd ff ff 	mov    %rax,-0x2e8(%rbp)
   1da5f:	48 8d 85 90 f5 ff ff 	lea    -0xa70(%rbp),%rax
   1da66:	48 89 85 20 fd ff ff 	mov    %rax,-0x2e0(%rbp)
   1da6d:	48 8d 85 90 f5 ff ff 	lea    -0xa70(%rbp),%rax
   1da74:	48 89 85 28 fd ff ff 	mov    %rax,-0x2d8(%rbp)
   1da7b:	48 8d 85 90 f5 ff ff 	lea    -0xa70(%rbp),%rax
   1da82:	48 89 85 30 fd ff ff 	mov    %rax,-0x2d0(%rbp)
   1da89:	48 8d 85 90 f5 ff ff 	lea    -0xa70(%rbp),%rax
   1da90:	48 89 85 38 fd ff ff 	mov    %rax,-0x2c8(%rbp)
   1da97:	48 8d 85 90 f5 ff ff 	lea    -0xa70(%rbp),%rax
   1da9e:	48 89 85 40 fd ff ff 	mov    %rax,-0x2c0(%rbp)
   1daa5:	48 8d 85 90 f5 ff ff 	lea    -0xa70(%rbp),%rax
   1daac:	48 89 85 48 fd ff ff 	mov    %rax,-0x2b8(%rbp)
   1dab3:	48 8d 85 90 f5 ff ff 	lea    -0xa70(%rbp),%rax
   1daba:	48 89 85 50 fd ff ff 	mov    %rax,-0x2b0(%rbp)
   1dac1:	48 8d 85 90 f5 ff ff 	lea    -0xa70(%rbp),%rax
   1dac8:	48 89 85 58 fd ff ff 	mov    %rax,-0x2a8(%rbp)
   1dacf:	48 8d 85 90 f5 ff ff 	lea    -0xa70(%rbp),%rax
   1dad6:	48 89 85 60 fd ff ff 	mov    %rax,-0x2a0(%rbp)
   1dadd:	48 8d 85 90 f5 ff ff 	lea    -0xa70(%rbp),%rax
   1dae4:	48 89 85 68 fd ff ff 	mov    %rax,-0x298(%rbp)
   1daeb:	48 8d 85 90 f5 ff ff 	lea    -0xa70(%rbp),%rax
   1daf2:	48 89 85 70 fd ff ff 	mov    %rax,-0x290(%rbp)
   1daf9:	48 8d 85 90 f5 ff ff 	lea    -0xa70(%rbp),%rax
   1db00:	48 89 85 78 fd ff ff 	mov    %rax,-0x288(%rbp)
   1db07:	48 8d 85 90 f5 ff ff 	lea    -0xa70(%rbp),%rax
   1db0e:	48 89 85 80 fd ff ff 	mov    %rax,-0x280(%rbp)
   1db15:	48 8d 85 90 f5 ff ff 	lea    -0xa70(%rbp),%rax
   1db1c:	48 89 85 88 fd ff ff 	mov    %rax,-0x278(%rbp)
   1db23:	48 8d 85 90 f5 ff ff 	lea    -0xa70(%rbp),%rax
   1db2a:	48 89 85 90 fd ff ff 	mov    %rax,-0x270(%rbp)
   1db31:	48 8d 85 90 f5 ff ff 	lea    -0xa70(%rbp),%rax
   1db38:	48 89 85 98 fd ff ff 	mov    %rax,-0x268(%rbp)
   1db3f:	48 8d 85 90 f5 ff ff 	lea    -0xa70(%rbp),%rax
   1db46:	48 89 85 a0 fd ff ff 	mov    %rax,-0x260(%rbp)
   1db4d:	48 c7 85 a8 fd ff ff 	movq   $0x0,-0x258(%rbp)
   1db54:	00 00 00 00 
   1db58:	48 8d 85 90 f5 ff ff 	lea    -0xa70(%rbp),%rax
   1db5f:	48 89 85 b0 fd ff ff 	mov    %rax,-0x250(%rbp)
   1db66:	48 8d 85 90 f5 ff ff 	lea    -0xa70(%rbp),%rax
   1db6d:	48 89 85 b8 fd ff ff 	mov    %rax,-0x248(%rbp)
   1db74:	48 8d 85 90 f5 ff ff 	lea    -0xa70(%rbp),%rax
   1db7b:	48 89 85 c0 fd ff ff 	mov    %rax,-0x240(%rbp)
   1db82:	48 8d 85 90 f5 ff ff 	lea    -0xa70(%rbp),%rax
   1db89:	48 89 85 c8 fd ff ff 	mov    %rax,-0x238(%rbp)
   1db90:	48 8d 85 90 f5 ff ff 	lea    -0xa70(%rbp),%rax
   1db97:	48 89 85 d0 fd ff ff 	mov    %rax,-0x230(%rbp)
   1db9e:	48 8d 85 90 f5 ff ff 	lea    -0xa70(%rbp),%rax
   1dba5:	48 89 85 d8 fd ff ff 	mov    %rax,-0x228(%rbp)
   1dbac:	48 8d 85 90 f5 ff ff 	lea    -0xa70(%rbp),%rax
   1dbb3:	48 89 85 e0 fd ff ff 	mov    %rax,-0x220(%rbp)
   1dbba:	48 8d 85 90 f5 ff ff 	lea    -0xa70(%rbp),%rax
   1dbc1:	48 89 85 e8 fd ff ff 	mov    %rax,-0x218(%rbp)
   1dbc8:	48 8d 85 90 f5 ff ff 	lea    -0xa70(%rbp),%rax
   1dbcf:	48 89 85 f0 fd ff ff 	mov    %rax,-0x210(%rbp)
   1dbd6:	48 8d 85 90 f5 ff ff 	lea    -0xa70(%rbp),%rax
   1dbdd:	48 89 85 f8 fd ff ff 	mov    %rax,-0x208(%rbp)
   1dbe4:	48 8d 85 90 f5 ff ff 	lea    -0xa70(%rbp),%rax
   1dbeb:	48 89 85 00 fe ff ff 	mov    %rax,-0x200(%rbp)
   1dbf2:	48 8d 85 90 f5 ff ff 	lea    -0xa70(%rbp),%rax
   1dbf9:	48 89 85 08 fe ff ff 	mov    %rax,-0x1f8(%rbp)
   1dc00:	48 8d 85 90 f5 ff ff 	lea    -0xa70(%rbp),%rax
   1dc07:	48 89 85 10 fe ff ff 	mov    %rax,-0x1f0(%rbp)
   1dc0e:	48 8d 85 90 f5 ff ff 	lea    -0xa70(%rbp),%rax
   1dc15:	48 89 85 18 fe ff ff 	mov    %rax,-0x1e8(%rbp)
   1dc1c:	48 8d 85 90 f5 ff ff 	lea    -0xa70(%rbp),%rax
   1dc23:	48 89 85 20 fe ff ff 	mov    %rax,-0x1e0(%rbp)
   1dc2a:	48 8d 85 90 f5 ff ff 	lea    -0xa70(%rbp),%rax
   1dc31:	48 89 85 28 fe ff ff 	mov    %rax,-0x1d8(%rbp)
   1dc38:	48 8d 85 90 f5 ff ff 	lea    -0xa70(%rbp),%rax
   1dc3f:	48 89 85 30 fe ff ff 	mov    %rax,-0x1d0(%rbp)
   1dc46:	48 8d 85 90 f5 ff ff 	lea    -0xa70(%rbp),%rax
   1dc4d:	48 89 85 38 fe ff ff 	mov    %rax,-0x1c8(%rbp)
   1dc54:	48 8d 85 90 f5 ff ff 	lea    -0xa70(%rbp),%rax
   1dc5b:	48 89 85 40 fe ff ff 	mov    %rax,-0x1c0(%rbp)
   1dc62:	48 8d 85 90 f5 ff ff 	lea    -0xa70(%rbp),%rax
   1dc69:	48 89 85 48 fe ff ff 	mov    %rax,-0x1b8(%rbp)
   1dc70:	48 8d 85 90 f5 ff ff 	lea    -0xa70(%rbp),%rax
   1dc77:	48 89 85 50 fe ff ff 	mov    %rax,-0x1b0(%rbp)
   1dc7e:	48 8d 85 90 f5 ff ff 	lea    -0xa70(%rbp),%rax
   1dc85:	48 89 85 58 fe ff ff 	mov    %rax,-0x1a8(%rbp)
   1dc8c:	48 8d 85 90 f5 ff ff 	lea    -0xa70(%rbp),%rax
   1dc93:	48 89 85 60 fe ff ff 	mov    %rax,-0x1a0(%rbp)
   1dc9a:	48 8d 85 90 f5 ff ff 	lea    -0xa70(%rbp),%rax
   1dca1:	48 89 85 68 fe ff ff 	mov    %rax,-0x198(%rbp)
   1dca8:	48 8d 85 90 f5 ff ff 	lea    -0xa70(%rbp),%rax
   1dcaf:	48 89 85 70 fe ff ff 	mov    %rax,-0x190(%rbp)
   1dcb6:	48 8d 85 90 f5 ff ff 	lea    -0xa70(%rbp),%rax
   1dcbd:	48 89 85 78 fe ff ff 	mov    %rax,-0x188(%rbp)
   1dcc4:	48 8d 85 90 f5 ff ff 	lea    -0xa70(%rbp),%rax
   1dccb:	48 89 85 80 fe ff ff 	mov    %rax,-0x180(%rbp)
   1dcd2:	48 8d 85 90 f5 ff ff 	lea    -0xa70(%rbp),%rax
   1dcd9:	48 89 85 88 fe ff ff 	mov    %rax,-0x178(%rbp)
   1dce0:	48 8d 85 90 f5 ff ff 	lea    -0xa70(%rbp),%rax
   1dce7:	48 89 85 90 fe ff ff 	mov    %rax,-0x170(%rbp)
   1dcee:	48 8d 85 90 f5 ff ff 	lea    -0xa70(%rbp),%rax
   1dcf5:	48 89 85 98 fe ff ff 	mov    %rax,-0x168(%rbp)
   1dcfc:	48 8d 85 90 f5 ff ff 	lea    -0xa70(%rbp),%rax
   1dd03:	48 89 85 a0 fe ff ff 	mov    %rax,-0x160(%rbp)
   1dd0a:	48 8d 85 90 f5 ff ff 	lea    -0xa70(%rbp),%rax
   1dd11:	48 89 85 a8 fe ff ff 	mov    %rax,-0x158(%rbp)
   1dd18:	48 8d 85 90 f5 ff ff 	lea    -0xa70(%rbp),%rax
   1dd1f:	48 89 85 b0 fe ff ff 	mov    %rax,-0x150(%rbp)
   1dd26:	48 8d 85 90 f5 ff ff 	lea    -0xa70(%rbp),%rax
   1dd2d:	48 89 85 b8 fe ff ff 	mov    %rax,-0x148(%rbp)
   1dd34:	48 8d 85 90 f5 ff ff 	lea    -0xa70(%rbp),%rax
   1dd3b:	48 89 85 c0 fe ff ff 	mov    %rax,-0x140(%rbp)
   1dd42:	48 8d 85 90 f5 ff ff 	lea    -0xa70(%rbp),%rax
   1dd49:	48 89 85 c8 fe ff ff 	mov    %rax,-0x138(%rbp)
   1dd50:	48 8d 85 90 f5 ff ff 	lea    -0xa70(%rbp),%rax
   1dd57:	48 89 85 d0 fe ff ff 	mov    %rax,-0x130(%rbp)
   1dd5e:	48 8d 85 90 f5 ff ff 	lea    -0xa70(%rbp),%rax
   1dd65:	48 89 85 d8 fe ff ff 	mov    %rax,-0x128(%rbp)
   1dd6c:	48 8d 85 90 f5 ff ff 	lea    -0xa70(%rbp),%rax
   1dd73:	48 89 85 e0 fe ff ff 	mov    %rax,-0x120(%rbp)
   1dd7a:	48 c7 85 e8 fe ff ff 	movq   $0x0,-0x118(%rbp)
   1dd81:	00 00 00 00 
   1dd85:	48 8d 85 90 f5 ff ff 	lea    -0xa70(%rbp),%rax
   1dd8c:	48 89 85 f0 fe ff ff 	mov    %rax,-0x110(%rbp)
   1dd93:	48 8d 85 90 f5 ff ff 	lea    -0xa70(%rbp),%rax
   1dd9a:	48 89 85 f8 fe ff ff 	mov    %rax,-0x108(%rbp)
   1dda1:	48 8d 85 90 f5 ff ff 	lea    -0xa70(%rbp),%rax
   1dda8:	48 89 85 00 ff ff ff 	mov    %rax,-0x100(%rbp)
   1ddaf:	48 8d 85 90 f5 ff ff 	lea    -0xa70(%rbp),%rax
   1ddb6:	48 89 85 08 ff ff ff 	mov    %rax,-0xf8(%rbp)
   1ddbd:	48 8d 85 90 f5 ff ff 	lea    -0xa70(%rbp),%rax
   1ddc4:	48 89 85 10 ff ff ff 	mov    %rax,-0xf0(%rbp)
   1ddcb:	48 8d 85 90 f5 ff ff 	lea    -0xa70(%rbp),%rax
   1ddd2:	48 89 85 18 ff ff ff 	mov    %rax,-0xe8(%rbp)
   1ddd9:	48 8d 85 90 f5 ff ff 	lea    -0xa70(%rbp),%rax
   1dde0:	48 89 85 20 ff ff ff 	mov    %rax,-0xe0(%rbp)
   1dde7:	48 8d 85 90 f5 ff ff 	lea    -0xa70(%rbp),%rax
   1ddee:	48 89 85 28 ff ff ff 	mov    %rax,-0xd8(%rbp)
   1ddf5:	48 8d 85 90 f5 ff ff 	lea    -0xa70(%rbp),%rax
   1ddfc:	48 89 85 30 ff ff ff 	mov    %rax,-0xd0(%rbp)
   1de03:	48 8d 85 90 f5 ff ff 	lea    -0xa70(%rbp),%rax
   1de0a:	48 89 85 38 ff ff ff 	mov    %rax,-0xc8(%rbp)
   1de11:	48 8d 85 90 f5 ff ff 	lea    -0xa70(%rbp),%rax
   1de18:	48 89 85 40 ff ff ff 	mov    %rax,-0xc0(%rbp)
   1de1f:	48 8d 85 90 f5 ff ff 	lea    -0xa70(%rbp),%rax
   1de26:	48 89 85 48 ff ff ff 	mov    %rax,-0xb8(%rbp)
   1de2d:	48 8d 85 90 f5 ff ff 	lea    -0xa70(%rbp),%rax
   1de34:	48 89 85 50 ff ff ff 	mov    %rax,-0xb0(%rbp)
   1de3b:	48 8d 85 90 f5 ff ff 	lea    -0xa70(%rbp),%rax
   1de42:	48 89 85 58 ff ff ff 	mov    %rax,-0xa8(%rbp)
   1de49:	48 8d 85 90 f5 ff ff 	lea    -0xa70(%rbp),%rax
   1de50:	48 89 85 60 ff ff ff 	mov    %rax,-0xa0(%rbp)
   1de57:	48 8d 85 90 f5 ff ff 	lea    -0xa70(%rbp),%rax
   1de5e:	48 89 85 68 ff ff ff 	mov    %rax,-0x98(%rbp)
   1de65:	48 8d 85 90 f5 ff ff 	lea    -0xa70(%rbp),%rax
   1de6c:	48 89 85 70 ff ff ff 	mov    %rax,-0x90(%rbp)
   1de73:	48 8d 85 90 f5 ff ff 	lea    -0xa70(%rbp),%rax
   1de7a:	48 89 85 78 ff ff ff 	mov    %rax,-0x88(%rbp)
   1de81:	48 8d 85 90 f5 ff ff 	lea    -0xa70(%rbp),%rax
   1de88:	48 89 45 80          	mov    %rax,-0x80(%rbp)
   1de8c:	48 8d 85 90 f5 ff ff 	lea    -0xa70(%rbp),%rax
   1de93:	48 89 45 88          	mov    %rax,-0x78(%rbp)
   1de97:	48 8d 85 90 f5 ff ff 	lea    -0xa70(%rbp),%rax
   1de9e:	48 89 45 90          	mov    %rax,-0x70(%rbp)
   1dea2:	48 8d 85 90 f5 ff ff 	lea    -0xa70(%rbp),%rax
   1dea9:	48 89 45 98          	mov    %rax,-0x68(%rbp)
   1dead:	48 8d 85 90 f5 ff ff 	lea    -0xa70(%rbp),%rax
   1deb4:	48 89 45 a0          	mov    %rax,-0x60(%rbp)
   1deb8:	48 8d 85 90 f5 ff ff 	lea    -0xa70(%rbp),%rax
   1debf:	48 89 45 a8          	mov    %rax,-0x58(%rbp)
   1dec3:	48 8d 85 90 f5 ff ff 	lea    -0xa70(%rbp),%rax
   1deca:	48 89 45 b0          	mov    %rax,-0x50(%rbp)
   1dece:	48 8d 85 90 f5 ff ff 	lea    -0xa70(%rbp),%rax
   1ded5:	48 89 45 b8          	mov    %rax,-0x48(%rbp)
   1ded9:	c6 85 17 f5 ff ff 9b 	movb   $0x9b,-0xae9(%rbp)
   1dee0:	c7 85 08 f5 ff ff f4 	movl   $0xfffffff4,-0xaf8(%rbp)
   1dee7:	ff ff ff 
   1deea:	90                   	nop
   1deeb:	8b 85 08 f5 ff ff    	mov    -0xaf8(%rbp),%eax
   1def1:	83 f8 25             	cmp    $0x25,%eax
   1def4:	0f 87 f3 06 00 00    	ja     1e5ed <func_68+0x1518>
   1defa:	c7 85 48 f5 ff ff ff 	movl   $0xf105eeff,-0xab8(%rbp)
   1df01:	ee 05 f1 
   1df04:	48 8d 05 bd 81 00 00 	lea    0x81bd(%rip),%rax        # 260c8 <g_56>
   1df0b:	48 89 85 98 f5 ff ff 	mov    %rax,-0xa68(%rbp)
   1df12:	c7 85 2c f5 ff ff 00 	movl   $0x0,-0xad4(%rbp)
   1df19:	00 00 00 
   1df1c:	48 c7 85 a0 f5 ff ff 	movq   $0x0,-0xa60(%rbp)
   1df23:	00 00 00 00 
   1df27:	48 8d 05 32 82 00 00 	lea    0x8232(%rip),%rax        # 26160 <g_133>
   1df2e:	48 89 85 10 f6 ff ff 	mov    %rax,-0x9f0(%rbp)
   1df35:	c6 05 8c 81 00 00 ef 	movb   $0xef,0x818c(%rip)        # 260c8 <g_56>
   1df3c:	e9 bc 03 00 00       	jmpq   1e2fd <func_68+0x1228>
   1df41:	48 8d 85 68 f5 ff ff 	lea    -0xa98(%rbp),%rax
   1df48:	48 89 85 b0 f5 ff ff 	mov    %rax,-0xa50(%rbp)
   1df4f:	48 c7 85 30 f6 ff ff 	movq   $0x0,-0x9d0(%rbp)
   1df56:	00 00 00 00 
   1df5a:	48 8d 05 6b 81 00 00 	lea    0x816b(%rip),%rax        # 260cc <g_98>
   1df61:	48 89 85 38 f6 ff ff 	mov    %rax,-0x9c8(%rbp)
   1df68:	48 8d 05 a9 81 00 00 	lea    0x81a9(%rip),%rax        # 26118 <g_100+0x38>
   1df6f:	48 89 85 40 f6 ff ff 	mov    %rax,-0x9c0(%rbp)
   1df76:	c7 85 4c f5 ff ff 25 	movl   $0x76a26825,-0xab4(%rbp)
   1df7d:	68 a2 76 
   1df80:	48 8d 85 20 f5 ff ff 	lea    -0xae0(%rbp),%rax
   1df87:	48 89 85 48 f6 ff ff 	mov    %rax,-0x9b8(%rbp)
   1df8e:	48 8d 85 b0 f5 ff ff 	lea    -0xa50(%rbp),%rax
   1df95:	48 89 85 50 f6 ff ff 	mov    %rax,-0x9b0(%rbp)
   1df9c:	c7 45 cb 01 01 fa 01 	movl   $0x1fa0101,-0x35(%rbp)
   1dfa3:	66 c7 45 cf 01 fa    	movw   $0xfa01,-0x31(%rbp)
   1dfa9:	c7 85 30 f5 ff ff 00 	movl   $0x0,-0xad0(%rbp)
   1dfb0:	00 00 00 
   1dfb3:	eb 1e                	jmp    1dfd3 <func_68+0xefe>
   1dfb5:	8b 85 30 f5 ff ff    	mov    -0xad0(%rbp),%eax
   1dfbb:	48 98                	cltq   
   1dfbd:	48 8d 15 04 81 00 00 	lea    0x8104(%rip),%rdx        # 260c8 <g_56>
   1dfc4:	48 89 94 c5 58 f6 ff 	mov    %rdx,-0x9a8(%rbp,%rax,8)
   1dfcb:	ff 
   1dfcc:	83 85 30 f5 ff ff 01 	addl   $0x1,-0xad0(%rbp)
   1dfd3:	83 bd 30 f5 ff ff 00 	cmpl   $0x0,-0xad0(%rbp)
   1dfda:	7e d9                	jle    1dfb5 <func_68+0xee0>
   1dfdc:	c7 85 30 f5 ff ff 00 	movl   $0x0,-0xad0(%rbp)
   1dfe3:	00 00 00 
   1dfe6:	eb 1e                	jmp    1e006 <func_68+0xf31>
   1dfe8:	8b 85 30 f5 ff ff    	mov    -0xad0(%rbp),%eax
   1dfee:	48 98                	cltq   
   1dff0:	48 8d 15 69 81 00 00 	lea    0x8169(%rip),%rdx        # 26160 <g_133>
   1dff7:	48 89 94 c5 f0 f7 ff 	mov    %rdx,-0x810(%rbp,%rax,8)
   1dffe:	ff 
   1dfff:	83 85 30 f5 ff ff 01 	addl   $0x1,-0xad0(%rbp)
   1e006:	83 bd 30 f5 ff ff 05 	cmpl   $0x5,-0xad0(%rbp)
   1e00d:	7e d9                	jle    1dfe8 <func_68+0xf13>
   1e00f:	8b 85 20 f5 ff ff    	mov    -0xae0(%rbp),%eax
   1e015:	4c 63 e0             	movslq %eax,%r12
   1e018:	8b 85 08 f5 ff ff    	mov    -0xaf8(%rbp),%eax
   1e01e:	0f b7 d8             	movzwl %ax,%ebx
   1e021:	83 bd 48 f5 ff ff 00 	cmpl   $0x0,-0xab8(%rbp)
   1e028:	0f 84 3b 01 00 00    	je     1e169 <func_68+0x1094>
   1e02e:	8b 85 08 f5 ff ff    	mov    -0xaf8(%rbp),%eax
   1e034:	41 89 c5             	mov    %eax,%r13d
   1e037:	48 8b 85 58 f6 ff ff 	mov    -0x9a8(%rbp),%rax
   1e03e:	48 89 05 bb 9d 00 00 	mov    %rax,0x9dbb(%rip)        # 27e00 <g_87>
   1e045:	48 8b 0d b4 9d 00 00 	mov    0x9db4(%rip),%rcx        # 27e00 <g_87>
   1e04c:	48 8b 85 b0 f5 ff ff 	mov    -0xa50(%rbp),%rax
   1e053:	48 8b 95 68 f5 ff ff 	mov    -0xa98(%rbp),%rdx
   1e05a:	48 89 10             	mov    %rdx,(%rax)
   1e05d:	48 8b 00             	mov    (%rax),%rax
   1e060:	48 39 c1             	cmp    %rax,%rcx
   1e063:	0f 94 c0             	sete   %al
   1e066:	0f b6 c0             	movzbl %al,%eax
   1e069:	be 0e 00 00 00       	mov    $0xe,%esi
   1e06e:	89 c7                	mov    %eax,%edi
   1e070:	e8 05 ee fe ff       	callq  ce7a <safe_rshift_func_uint16_t_u_u>
   1e075:	66 85 c0             	test   %ax,%ax
   1e078:	0f 84 c3 00 00 00    	je     1e141 <func_68+0x106c>
   1e07e:	8b 85 08 f5 ff ff    	mov    -0xaf8(%rbp),%eax
   1e084:	85 c0                	test   %eax,%eax
   1e086:	74 07                	je     1e08f <func_68+0xfba>
   1e088:	b8 01 00 00 00       	mov    $0x1,%eax
   1e08d:	eb 05                	jmp    1e094 <func_68+0xfbf>
   1e08f:	b8 00 00 00 00       	mov    $0x0,%eax
   1e094:	48 98                	cltq   
   1e096:	8b 8d 0c f5 ff ff    	mov    -0xaf4(%rbp),%ecx
   1e09c:	8b 95 08 f5 ff ff    	mov    -0xaf8(%rbp),%edx
   1e0a2:	31 ca                	xor    %ecx,%edx
   1e0a4:	89 95 0c f5 ff ff    	mov    %edx,-0xaf4(%rbp)
   1e0aa:	48 8b 95 38 f6 ff ff 	mov    -0x9c8(%rbp),%rdx
   1e0b1:	c7 02 ff ff ff ff    	movl   $0xffffffff,(%rdx)
   1e0b7:	48 8b 95 38 f6 ff ff 	mov    -0x9c8(%rbp),%rdx
   1e0be:	8b 12                	mov    (%rdx),%edx
   1e0c0:	0b 95 48 f5 ff ff    	or     -0xab8(%rbp),%edx
   1e0c6:	89 d2                	mov    %edx,%edx
   1e0c8:	48 89 c6             	mov    %rax,%rsi
   1e0cb:	48 89 d7             	mov    %rdx,%rdi
   1e0ce:	e8 78 ef fe ff       	callq  d04b <safe_sub_func_uint64_t_u_u>
   1e0d3:	8b 95 08 f5 ff ff    	mov    -0xaf8(%rbp),%edx
   1e0d9:	89 d2                	mov    %edx,%edx
   1e0db:	48 39 d0             	cmp    %rdx,%rax
   1e0de:	0f 92 c0             	setb   %al
   1e0e1:	0f b6 d0             	movzbl %al,%edx
   1e0e4:	48 8b 85 b0 f5 ff ff 	mov    -0xa50(%rbp),%rax
   1e0eb:	48 8d 0d d7 7f 00 00 	lea    0x7fd7(%rip),%rcx        # 260c9 <g_88>
   1e0f2:	48 89 08             	mov    %rcx,(%rax)
   1e0f5:	48 8b 08             	mov    (%rax),%rcx
   1e0f8:	48 8b 85 98 f5 ff ff 	mov    -0xa68(%rbp),%rax
   1e0ff:	48 39 c1             	cmp    %rax,%rcx
   1e102:	0f 94 c0             	sete   %al
   1e105:	0f b6 c0             	movzbl %al,%eax
   1e108:	89 d6                	mov    %edx,%esi
   1e10a:	89 c7                	mov    %eax,%edi
   1e10c:	e8 c3 e0 fe ff       	callq  c1d4 <safe_add_func_int8_t_s_s>
   1e111:	48 8b 95 40 f6 ff ff 	mov    -0x9c0(%rbp),%rdx
   1e118:	0f b7 12             	movzwl (%rdx),%edx
   1e11b:	66 98                	cbtw   
   1e11d:	21 d0                	and    %edx,%eax
   1e11f:	89 c2                	mov    %eax,%edx
   1e121:	48 8b 85 40 f6 ff ff 	mov    -0x9c0(%rbp),%rax
   1e128:	66 89 10             	mov    %dx,(%rax)
   1e12b:	48 8b 85 40 f6 ff ff 	mov    -0x9c0(%rbp),%rax
   1e132:	0f b7 00             	movzwl (%rax),%eax
   1e135:	66 85 c0             	test   %ax,%ax
   1e138:	74 07                	je     1e141 <func_68+0x106c>
   1e13a:	b8 01 00 00 00       	mov    $0x1,%eax
   1e13f:	eb 05                	jmp    1e146 <func_68+0x1071>
   1e141:	b8 00 00 00 00       	mov    $0x0,%eax
   1e146:	3b 85 4c f5 ff ff    	cmp    -0xab4(%rbp),%eax
   1e14c:	0f 9d c0             	setge  %al
   1e14f:	0f b6 c0             	movzbl %al,%eax
   1e152:	4c 89 ee             	mov    %r13,%rsi
   1e155:	48 89 c7             	mov    %rax,%rdi
   1e158:	e8 9a e8 fe ff       	callq  c9f7 <safe_div_func_int64_t_s_s>
   1e15d:	48 85 c0             	test   %rax,%rax
   1e160:	74 07                	je     1e169 <func_68+0x1094>
   1e162:	b8 01 00 00 00       	mov    $0x1,%eax
   1e167:	eb 05                	jmp    1e16e <func_68+0x1099>
   1e169:	b8 00 00 00 00       	mov    $0x0,%eax
   1e16e:	4c 89 e1             	mov    %r12,%rcx
   1e171:	89 da                	mov    %ebx,%edx
   1e173:	48 8d 35 4f 7f 00 00 	lea    0x7f4f(%rip),%rsi        # 260c9 <g_88>
   1e17a:	89 c7                	mov    %eax,%edi
   1e17c:	e8 f3 06 00 00       	callq  1e874 <func_76>
   1e181:	48 8b 95 48 f6 ff ff 	mov    -0x9b8(%rbp),%rdx
   1e188:	89 02                	mov    %eax,(%rdx)
   1e18a:	8b 05 28 7f 00 00    	mov    0x7f28(%rip),%eax        # 260b8 <g_24+0x18>
   1e190:	41 89 c6             	mov    %eax,%r14d
   1e193:	8b 1d 23 7f 00 00    	mov    0x7f23(%rip),%ebx        # 260bc <g_24+0x1c>
   1e199:	0f b6 45 cc          	movzbl -0x34(%rbp),%eax
   1e19d:	44 0f be e0          	movsbl %al,%r12d
   1e1a1:	48 8b 85 50 f6 ff ff 	mov    -0x9b0(%rbp),%rax
   1e1a8:	48 8d 15 51 9c 00 00 	lea    0x9c51(%rip),%rdx        # 27e00 <g_87>
   1e1af:	48 89 10             	mov    %rdx,(%rax)
   1e1b2:	48 8b 85 50 f6 ff ff 	mov    -0x9b0(%rbp),%rax
   1e1b9:	48 8b 10             	mov    (%rax),%rdx
   1e1bc:	48 8d 85 98 f5 ff ff 	lea    -0xa68(%rbp),%rax
   1e1c3:	48 39 c2             	cmp    %rax,%rdx
   1e1c6:	0f 94 c0             	sete   %al
   1e1c9:	0f b6 d0             	movzbl %al,%edx
   1e1cc:	48 8b 85 40 f6 ff ff 	mov    -0x9c0(%rbp),%rax
   1e1d3:	0f b7 00             	movzwl (%rax),%eax
   1e1d6:	8d 70 ff             	lea    -0x1(%rax),%esi
   1e1d9:	48 8b 8d 40 f6 ff ff 	mov    -0x9c0(%rbp),%rcx
   1e1e0:	66 89 31             	mov    %si,(%rcx)
   1e1e3:	0f b7 c0             	movzwl %ax,%eax
   1e1e6:	89 d6                	mov    %edx,%esi
   1e1e8:	89 c7                	mov    %eax,%edi
   1e1ea:	e8 17 ec fe ff       	callq  ce06 <safe_lshift_func_uint16_t_u_u>
   1e1ef:	44 0f b7 e8          	movzwl %ax,%r13d
   1e1f3:	8b 85 34 f5 ff ff    	mov    -0xacc(%rbp),%eax
   1e1f9:	98                   	cwtl   
   1e1fa:	89 c6                	mov    %eax,%esi
   1e1fc:	bf 55 e7 ff ff       	mov    $0xffffe755,%edi
   1e201:	e8 cd e1 fe ff       	callq  c3d3 <safe_sub_func_int16_t_s_s>
   1e206:	98                   	cwtl   
   1e207:	41 39 c5             	cmp    %eax,%r13d
   1e20a:	0f 95 c0             	setne  %al
   1e20d:	41 89 c5             	mov    %eax,%r13d
   1e210:	8b 85 20 f5 ff ff    	mov    -0xae0(%rbp),%eax
   1e216:	0f be d0             	movsbl %al,%edx
   1e219:	48 8b 85 48 f6 ff ff 	mov    -0x9b8(%rbp),%rax
   1e220:	8b 00                	mov    (%rax),%eax
   1e222:	89 c1                	mov    %eax,%ecx
   1e224:	0f b6 05 9d 7e 00 00 	movzbl 0x7e9d(%rip),%eax        # 260c8 <g_56>
   1e22b:	31 c8                	xor    %ecx,%eax
   1e22d:	0f be c0             	movsbl %al,%eax
   1e230:	89 d6                	mov    %edx,%esi
   1e232:	89 c7                	mov    %eax,%edi
   1e234:	e8 f8 df fe ff       	callq  c231 <safe_mod_func_int8_t_s_s>
   1e239:	0f be c0             	movsbl %al,%eax
   1e23c:	89 85 2c f5 ff ff    	mov    %eax,-0xad4(%rbp)
   1e242:	8b 85 2c f5 ff ff    	mov    -0xad4(%rbp),%eax
   1e248:	44 21 e8             	and    %r13d,%eax
   1e24b:	0f b6 c0             	movzbl %al,%eax
   1e24e:	8b 95 0c f5 ff ff    	mov    -0xaf4(%rbp),%edx
   1e254:	89 d6                	mov    %edx,%esi
   1e256:	89 c7                	mov    %eax,%edi
   1e258:	e8 30 ea fe ff       	callq  cc8d <safe_rshift_func_uint8_t_u_s>
   1e25d:	0f b6 c0             	movzbl %al,%eax
   1e260:	44 89 e6             	mov    %r12d,%esi
   1e263:	89 c7                	mov    %eax,%edi
   1e265:	e8 8b e1 fe ff       	callq  c3f5 <safe_mul_func_int16_t_s_s>
   1e26a:	0f be c0             	movsbl %al,%eax
   1e26d:	be 8a ff ff ff       	mov    $0xffffff8a,%esi
   1e272:	89 c7                	mov    %eax,%edi
   1e274:	e8 f1 df fe ff       	callq  c26a <safe_div_func_int8_t_s_s>
   1e279:	0f be c0             	movsbl %al,%eax
   1e27c:	89 de                	mov    %ebx,%esi
   1e27e:	89 c7                	mov    %eax,%edi
   1e280:	e8 de e2 fe ff       	callq  c563 <safe_rshift_func_int16_t_s_u>
   1e285:	48 8b 05 74 9b 00 00 	mov    0x9b74(%rip),%rax        # 27e00 <g_87>
   1e28c:	0f b6 00             	movzbl (%rax),%eax
   1e28f:	83 f0 06             	xor    $0x6,%eax
   1e292:	0f b6 c0             	movzbl %al,%eax
   1e295:	89 c6                	mov    %eax,%esi
   1e297:	bf db 6a 00 00       	mov    $0x6adb,%edi
   1e29c:	e8 bb ea fe ff       	callq  cd5c <safe_mod_func_uint16_t_u_u>
   1e2a1:	0f b7 c0             	movzwl %ax,%eax
   1e2a4:	4c 89 f6             	mov    %r14,%rsi
   1e2a7:	48 89 c7             	mov    %rax,%rdi
   1e2aa:	e8 f9 e5 fe ff       	callq  c8a8 <safe_sub_func_int64_t_s_s>
   1e2af:	0f bf d8             	movswl %ax,%ebx
   1e2b2:	8b 85 48 f5 ff ff    	mov    -0xab8(%rbp),%eax
   1e2b8:	98                   	cwtl   
   1e2b9:	89 c6                	mov    %eax,%esi
   1e2bb:	bf 01 00 00 00       	mov    $0x1,%edi
   1e2c0:	e8 51 e1 fe ff       	callq  c416 <safe_mod_func_int16_t_s_s>
   1e2c5:	98                   	cwtl   
   1e2c6:	89 de                	mov    %ebx,%esi
   1e2c8:	89 c7                	mov    %eax,%edi
   1e2ca:	e8 26 e1 fe ff       	callq  c3f5 <safe_mul_func_int16_t_s_s>
   1e2cf:	0f bf d0             	movswl %ax,%edx
   1e2d2:	8b 85 18 f5 ff ff    	mov    -0xae8(%rbp),%eax
   1e2d8:	21 d0                	and    %edx,%eax
   1e2da:	89 85 18 f5 ff ff    	mov    %eax,-0xae8(%rbp)
   1e2e0:	0f b6 05 e1 7d 00 00 	movzbl 0x7de1(%rip),%eax        # 260c8 <g_56>
   1e2e7:	0f b6 c0             	movzbl %al,%eax
   1e2ea:	be 07 00 00 00       	mov    $0x7,%esi
   1e2ef:	48 89 c7             	mov    %rax,%rdi
   1e2f2:	e8 4a e5 fe ff       	callq  c841 <safe_add_func_int64_t_s_s>
   1e2f7:	88 05 cb 7d 00 00    	mov    %al,0x7dcb(%rip)        # 260c8 <g_56>
   1e2fd:	0f b6 05 c4 7d 00 00 	movzbl 0x7dc4(%rip),%eax        # 260c8 <g_56>
   1e304:	3c 13                	cmp    $0x13,%al
   1e306:	0f 84 35 fc ff ff    	je     1df41 <func_68+0xe6c>
   1e30c:	8b 85 2c f5 ff ff    	mov    -0xad4(%rbp),%eax
   1e312:	0f b6 c0             	movzbl %al,%eax
   1e315:	be 04 00 00 00       	mov    $0x4,%esi
   1e31a:	89 c7                	mov    %eax,%edi
   1e31c:	e8 2b e9 fe ff       	callq  cc4c <safe_lshift_func_uint8_t_u_u>
   1e321:	48 8b 95 10 f6 ff ff 	mov    -0x9f0(%rbp),%rdx
   1e328:	8b 12                	mov    (%rdx),%edx
   1e32a:	0f b6 c0             	movzbl %al,%eax
   1e32d:	21 c2                	and    %eax,%edx
   1e32f:	48 8b 85 10 f6 ff ff 	mov    -0x9f0(%rbp),%rax
   1e336:	89 10                	mov    %edx,(%rax)
   1e338:	48 8b 85 10 f6 ff ff 	mov    -0x9f0(%rbp),%rax
   1e33f:	8b 00                	mov    (%rax),%eax
   1e341:	89 85 0c f5 ff ff    	mov    %eax,-0xaf4(%rbp)
   1e347:	c6 05 7b 7d 00 00 00 	movb   $0x0,0x7d7b(%rip)        # 260c9 <g_88>
   1e34e:	e9 80 02 00 00       	jmpq   1e5d3 <func_68+0x14fe>
   1e353:	48 8d 85 78 f5 ff ff 	lea    -0xa88(%rbp),%rax
   1e35a:	48 89 85 18 f6 ff ff 	mov    %rax,-0x9e8(%rbp)
   1e361:	c7 85 24 f5 ff ff 03 	movl   $0x3,-0xadc(%rbp)
   1e368:	00 00 00 
   1e36b:	48 8d 05 f2 7d 00 00 	lea    0x7df2(%rip),%rax        # 26164 <g_164>
   1e372:	48 89 85 20 f6 ff ff 	mov    %rax,-0x9e0(%rbp)
   1e379:	48 8d 85 f0 f7 ff ff 	lea    -0x810(%rbp),%rax
   1e380:	48 8d 15 39 98 00 00 	lea    0x9839(%rip),%rdx        # 27bc0 <g_4408+0x17e0>
   1e387:	b9 46 00 00 00       	mov    $0x46,%ecx
   1e38c:	48 89 c7             	mov    %rax,%rdi
   1e38f:	48 89 d6             	mov    %rdx,%rsi
   1e392:	f3 48 a5             	rep movsq %ds:(%rsi),%es:(%rdi)
   1e395:	c7 85 0c f5 ff ff 00 	movl   $0x0,-0xaf4(%rbp)
   1e39c:	00 00 00 
   1e39f:	8b 85 34 f5 ff ff    	mov    -0xacc(%rbp),%eax
   1e3a5:	0f be d8             	movsbl %al,%ebx
   1e3a8:	48 8b 05 51 9a 00 00 	mov    0x9a51(%rip),%rax        # 27e00 <g_87>
   1e3af:	0f b6 00             	movzbl (%rax),%eax
   1e3b2:	44 0f b6 e0          	movzbl %al,%r12d
   1e3b6:	8b 85 20 f5 ff ff    	mov    -0xae0(%rbp),%eax
   1e3bc:	44 0f b7 e8          	movzwl %ax,%r13d
   1e3c0:	be ca ff ff ff       	mov    $0xffffffca,%esi
   1e3c5:	bf 01 00 00 00       	mov    $0x1,%edi
   1e3ca:	e8 9b de fe ff       	callq  c26a <safe_div_func_int8_t_s_s>
   1e3cf:	8b 95 0c f5 ff ff    	mov    -0xaf4(%rbp),%edx
   1e3d5:	31 d0                	xor    %edx,%eax
   1e3d7:	0f b6 c0             	movzbl %al,%eax
   1e3da:	89 c7                	mov    %eax,%edi
   1e3dc:	e8 64 e7 fe ff       	callq  cb45 <safe_unary_minus_func_uint8_t_u>
   1e3e1:	0f b6 d0             	movzbl %al,%edx
   1e3e4:	8b 85 08 f5 ff ff    	mov    -0xaf8(%rbp),%eax
   1e3ea:	39 c2                	cmp    %eax,%edx
   1e3ec:	74 07                	je     1e3f5 <func_68+0x1320>
   1e3ee:	b8 01 00 00 00       	mov    $0x1,%eax
   1e3f3:	eb 05                	jmp    1e3fa <func_68+0x1325>
   1e3f5:	b8 00 00 00 00       	mov    $0x0,%eax
   1e3fa:	0f b7 c0             	movzwl %ax,%eax
   1e3fd:	44 89 ee             	mov    %r13d,%esi
   1e400:	89 c7                	mov    %eax,%edi
   1e402:	e8 87 e9 fe ff       	callq  cd8e <safe_div_func_uint16_t_u_u>
   1e407:	0f bf d0             	movswl %ax,%edx
   1e40a:	8b 05 50 7d 00 00    	mov    0x7d50(%rip),%eax        # 26160 <g_133>
   1e410:	98                   	cwtl   
   1e411:	89 d6                	mov    %edx,%esi
   1e413:	89 c7                	mov    %eax,%edi
   1e415:	e8 3b e0 fe ff       	callq  c455 <safe_div_func_int16_t_s_s>
   1e41a:	89 c2                	mov    %eax,%edx
   1e41c:	48 8b 85 20 f6 ff ff 	mov    -0x9e0(%rbp),%rax
   1e423:	0f b6 00             	movzbl (%rax),%eax
   1e426:	21 c2                	and    %eax,%edx
   1e428:	48 8b 85 20 f6 ff ff 	mov    -0x9e0(%rbp),%rax
   1e42f:	88 10                	mov    %dl,(%rax)
   1e431:	8b 05 71 7c 00 00    	mov    0x7c71(%rip),%eax        # 260a8 <g_24+0x8>
   1e437:	83 f0 01             	xor    $0x1,%eax
   1e43a:	0f b7 c0             	movzwl %ax,%eax
   1e43d:	89 c7                	mov    %eax,%edi
   1e43f:	e8 a5 e8 fe ff       	callq  cce9 <safe_unary_minus_func_uint16_t_u>
   1e444:	98                   	cwtl   
   1e445:	be ff ff ff ff       	mov    $0xffffffff,%esi
   1e44a:	89 c7                	mov    %eax,%edi
   1e44c:	e8 c5 df fe ff       	callq  c416 <safe_mod_func_int16_t_s_s>
   1e451:	98                   	cwtl   
   1e452:	89 85 24 f5 ff ff    	mov    %eax,-0xadc(%rbp)
   1e458:	8b 85 24 f5 ff ff    	mov    -0xadc(%rbp),%eax
   1e45e:	0f bf d0             	movswl %ax,%edx
   1e461:	8b 85 0c f5 ff ff    	mov    -0xaf4(%rbp),%eax
   1e467:	98                   	cwtl   
   1e468:	89 d6                	mov    %edx,%esi
   1e46a:	89 c7                	mov    %eax,%edi
   1e46c:	e8 42 df fe ff       	callq  c3b3 <safe_add_func_int16_t_s_s>
   1e471:	66 85 c0             	test   %ax,%ax
   1e474:	74 08                	je     1e47e <func_68+0x13a9>
   1e476:	8b 85 18 f5 ff ff    	mov    -0xae8(%rbp),%eax
   1e47c:	85 c0                	test   %eax,%eax
   1e47e:	8b 85 08 f5 ff ff    	mov    -0xaf8(%rbp),%eax
   1e484:	85 c0                	test   %eax,%eax
   1e486:	0f 94 c0             	sete   %al
   1e489:	0f b6 c0             	movzbl %al,%eax
   1e48c:	be c2 d8 00 00       	mov    $0xd8c2,%esi
   1e491:	89 c7                	mov    %eax,%edi
   1e493:	e8 c4 e8 fe ff       	callq  cd5c <safe_mod_func_uint16_t_u_u>
   1e498:	0f b6 c0             	movzbl %al,%eax
   1e49b:	44 89 e6             	mov    %r12d,%esi
   1e49e:	89 c7                	mov    %eax,%edi
   1e4a0:	e8 09 e7 fe ff       	callq  cbae <safe_mod_func_uint8_t_u_u>
   1e4a5:	89 de                	mov    %ebx,%esi
   1e4a7:	bf 07 00 00 00       	mov    $0x7,%edi
   1e4ac:	e8 41 dd fe ff       	callq  c1f2 <safe_sub_func_int8_t_s_s>
   1e4b1:	84 c0                	test   %al,%al
   1e4b3:	75 0a                	jne    1e4bf <func_68+0x13ea>
   1e4b5:	8b 85 08 f5 ff ff    	mov    -0xaf8(%rbp),%eax
   1e4bb:	85 c0                	test   %eax,%eax
   1e4bd:	74 07                	je     1e4c6 <func_68+0x13f1>
   1e4bf:	b8 01 00 00 00       	mov    $0x1,%eax
   1e4c4:	eb 05                	jmp    1e4cb <func_68+0x13f6>
   1e4c6:	b8 00 00 00 00       	mov    $0x0,%eax
   1e4cb:	89 c2                	mov    %eax,%edx
   1e4cd:	8b 85 08 f5 ff ff    	mov    -0xaf8(%rbp),%eax
   1e4d3:	21 c2                	and    %eax,%edx
   1e4d5:	0f b7 05 3c 7c 00 00 	movzwl 0x7c3c(%rip),%eax        # 26118 <g_100+0x38>
   1e4dc:	0f b7 c0             	movzwl %ax,%eax
   1e4df:	21 c2                	and    %eax,%edx
   1e4e1:	8b 85 94 f6 ff ff    	mov    -0x96c(%rbp),%eax
   1e4e7:	39 c2                	cmp    %eax,%edx
   1e4e9:	0f 96 c0             	setbe  %al
   1e4ec:	0f b6 d0             	movzbl %al,%edx
   1e4ef:	48 8b 85 10 f6 ff ff 	mov    -0x9f0(%rbp),%rax
   1e4f6:	89 10                	mov    %edx,(%rax)
   1e4f8:	48 8b 85 10 f6 ff ff 	mov    -0x9f0(%rbp),%rax
   1e4ff:	8b 10                	mov    (%rax),%edx
   1e501:	8b 85 1c f5 ff ff    	mov    -0xae4(%rbp),%eax
   1e507:	21 d0                	and    %edx,%eax
   1e509:	89 85 1c f5 ff ff    	mov    %eax,-0xae4(%rbp)
   1e50f:	c7 85 1c f5 ff ff 01 	movl   $0x1,-0xae4(%rbp)
   1e516:	00 00 00 
   1e519:	e9 97 00 00 00       	jmpq   1e5b5 <func_68+0x14e0>
   1e51e:	48 8d 85 a0 f5 ff ff 	lea    -0xa60(%rbp),%rax
   1e525:	48 89 85 a8 f5 ff ff 	mov    %rax,-0xa58(%rbp)
   1e52c:	48 8b 85 a8 f5 ff ff 	mov    -0xa58(%rbp),%rax
   1e533:	48 8d 15 26 7c 00 00 	lea    0x7c26(%rip),%rdx        # 26160 <g_133>
   1e53a:	48 89 10             	mov    %rdx,(%rax)
   1e53d:	c7 85 20 f5 ff ff 01 	movl   $0x1,-0xae0(%rbp)
   1e544:	00 00 00 
   1e547:	eb 53                	jmp    1e59c <func_68+0x14c7>
   1e549:	48 8d 85 a8 f5 ff ff 	lea    -0xa58(%rbp),%rax
   1e550:	48 89 85 b0 f5 ff ff 	mov    %rax,-0xa50(%rbp)
   1e557:	48 8d 85 b0 f5 ff ff 	lea    -0xa50(%rbp),%rax
   1e55e:	48 89 85 28 f6 ff ff 	mov    %rax,-0x9d8(%rbp)
   1e565:	48 8b 85 28 f6 ff ff 	mov    -0x9d8(%rbp),%rax
   1e56c:	48 8d 95 a8 f5 ff ff 	lea    -0xa58(%rbp),%rdx
   1e573:	48 89 10             	mov    %rdx,(%rax)
   1e576:	48 8b 85 28 f6 ff ff 	mov    -0x9d8(%rbp),%rax
   1e57d:	48 8b 00             	mov    (%rax),%rax
   1e580:	48 8b 00             	mov    (%rax),%rax
   1e583:	48 8d 95 24 f5 ff ff 	lea    -0xadc(%rbp),%rdx
   1e58a:	48 89 10             	mov    %rdx,(%rax)
   1e58d:	8b 85 20 f5 ff ff    	mov    -0xae0(%rbp),%eax
   1e593:	83 e8 01             	sub    $0x1,%eax
   1e596:	89 85 20 f5 ff ff    	mov    %eax,-0xae0(%rbp)
   1e59c:	8b 85 20 f5 ff ff    	mov    -0xae0(%rbp),%eax
   1e5a2:	85 c0                	test   %eax,%eax
   1e5a4:	79 a3                	jns    1e549 <func_68+0x1474>
   1e5a6:	8b 85 1c f5 ff ff    	mov    -0xae4(%rbp),%eax
   1e5ac:	83 e8 01             	sub    $0x1,%eax
   1e5af:	89 85 1c f5 ff ff    	mov    %eax,-0xae4(%rbp)
   1e5b5:	8b 85 1c f5 ff ff    	mov    -0xae4(%rbp),%eax
   1e5bb:	85 c0                	test   %eax,%eax
   1e5bd:	0f 89 5b ff ff ff    	jns    1e51e <func_68+0x1449>
   1e5c3:	0f b6 05 ff 7a 00 00 	movzbl 0x7aff(%rip),%eax        # 260c9 <g_88>
   1e5ca:	83 c0 01             	add    $0x1,%eax
   1e5cd:	88 05 f6 7a 00 00    	mov    %al,0x7af6(%rip)        # 260c9 <g_88>
   1e5d3:	0f b6 05 ef 7a 00 00 	movzbl 0x7aef(%rip),%eax        # 260c9 <g_88>
   1e5da:	3c 01                	cmp    $0x1,%al
   1e5dc:	0f 86 71 fd ff ff    	jbe    1e353 <func_68+0x127e>
   1e5e2:	8b 85 94 f6 ff ff    	mov    -0x96c(%rbp),%eax
   1e5e8:	e9 63 02 00 00       	jmpq   1e850 <func_68+0x177b>
   1e5ed:	0f b6 45 d1          	movzbl -0x2f(%rbp),%eax
   1e5f1:	84 c0                	test   %al,%al
   1e5f3:	75 0a                	jne    1e5ff <func_68+0x152a>
   1e5f5:	8b 85 18 f5 ff ff    	mov    -0xae8(%rbp),%eax
   1e5fb:	85 c0                	test   %eax,%eax
   1e5fd:	74 07                	je     1e606 <func_68+0x1531>
   1e5ff:	b8 01 00 00 00       	mov    $0x1,%eax
   1e604:	eb 05                	jmp    1e60b <func_68+0x1536>
   1e606:	b8 00 00 00 00       	mov    $0x0,%eax
   1e60b:	83 f8 ff             	cmp    $0xffffffff,%eax
   1e60e:	0f 95 c0             	setne  %al
   1e611:	0f b6 c0             	movzbl %al,%eax
   1e614:	be 00 00 00 00       	mov    $0x0,%esi
   1e619:	89 c7                	mov    %eax,%edi
   1e61b:	e8 e5 e5 fe ff       	callq  cc05 <safe_lshift_func_uint8_t_u_s>
   1e620:	84 c0                	test   %al,%al
   1e622:	0f 84 bf 00 00 00    	je     1e6e7 <func_68+0x1612>
   1e628:	8b 85 08 f5 ff ff    	mov    -0xaf8(%rbp),%eax
   1e62e:	89 c2                	mov    %eax,%edx
   1e630:	0f b6 45 d1          	movzbl -0x2f(%rbp),%eax
   1e634:	0f b6 c0             	movzbl %al,%eax
   1e637:	89 d6                	mov    %edx,%esi
   1e639:	89 c7                	mov    %eax,%edi
   1e63b:	e8 c5 df fe ff       	callq  c605 <safe_sub_func_int32_t_s_s>
   1e640:	48 98                	cltq   
   1e642:	48 be 8e ce 19 47 6f 	movabs $0xe195f76f4719ce8e,%rsi
   1e649:	f7 95 e1 
   1e64c:	48 89 c7             	mov    %rax,%rdi
   1e64f:	e8 ed e1 fe ff       	callq  c841 <safe_add_func_int64_t_s_s>
   1e654:	48 89 c3             	mov    %rax,%rbx
   1e657:	0f b6 05 09 7b 00 00 	movzbl 0x7b09(%rip),%eax        # 26167 <g_164+0x3>
   1e65e:	48 0f be d0          	movsbq %al,%rdx
   1e662:	48 8b 85 a8 fe ff ff 	mov    -0x158(%rbp),%rax
   1e669:	48 39 85 b8 f5 ff ff 	cmp    %rax,-0xa48(%rbp)
   1e670:	0f 95 c0             	setne  %al
   1e673:	0f b6 c0             	movzbl %al,%eax
   1e676:	48 89 d6             	mov    %rdx,%rsi
   1e679:	48 89 c7             	mov    %rax,%rdi
   1e67c:	e8 33 e3 fe ff       	callq  c9b4 <safe_mod_func_int64_t_s_s>
   1e681:	98                   	cwtl   
   1e682:	89 c6                	mov    %eax,%esi
   1e684:	bf 01 53 00 00       	mov    $0x5301,%edi
   1e689:	e8 25 dd fe ff       	callq  c3b3 <safe_add_func_int16_t_s_s>
   1e68e:	48 0f bf c0          	movswq %ax,%rax
   1e692:	48 31 c3             	xor    %rax,%rbx
   1e695:	48 89 da             	mov    %rbx,%rdx
   1e698:	8b 85 94 f6 ff ff    	mov    -0x96c(%rbp),%eax
   1e69e:	48 98                	cltq   
   1e6a0:	48 89 d6             	mov    %rdx,%rsi
   1e6a3:	48 89 c7             	mov    %rax,%rdi
   1e6a6:	e8 09 e3 fe ff       	callq  c9b4 <safe_mod_func_int64_t_s_s>
   1e6ab:	b9 00 00 00 00       	mov    $0x0,%ecx
   1e6b0:	48 8b 85 80 f5 ff ff 	mov    -0xa80(%rbp),%rax
   1e6b7:	8b 10                	mov    (%rax),%edx
   1e6b9:	48 8b 85 80 f5 ff ff 	mov    -0xa80(%rbp),%rax
   1e6c0:	21 ca                	and    %ecx,%edx
   1e6c2:	89 10                	mov    %edx,(%rax)
   1e6c4:	8b 10                	mov    (%rax),%edx
   1e6c6:	0f b6 05 97 7a 00 00 	movzbl 0x7a97(%rip),%eax        # 26164 <g_164>
   1e6cd:	0f be c0             	movsbl %al,%eax
   1e6d0:	39 c2                	cmp    %eax,%edx
   1e6d2:	0f 9c c0             	setl   %al
   1e6d5:	0f b6 c0             	movzbl %al,%eax
   1e6d8:	39 85 0c f5 ff ff    	cmp    %eax,-0xaf4(%rbp)
   1e6de:	7f 07                	jg     1e6e7 <func_68+0x1612>
   1e6e0:	b8 01 00 00 00       	mov    $0x1,%eax
   1e6e5:	eb 05                	jmp    1e6ec <func_68+0x1617>
   1e6e7:	b8 00 00 00 00       	mov    $0x0,%eax
   1e6ec:	85 c0                	test   %eax,%eax
   1e6ee:	0f 94 c0             	sete   %al
   1e6f1:	0f b6 c0             	movzbl %al,%eax
   1e6f4:	8b 95 0c f5 ff ff    	mov    -0xaf4(%rbp),%edx
   1e6fa:	89 d6                	mov    %edx,%esi
   1e6fc:	89 c7                	mov    %eax,%edi
   1e6fe:	e8 b3 de fe ff       	callq  c5b6 <safe_add_func_int32_t_s_s>
   1e703:	0f be c0             	movsbl %al,%eax
   1e706:	89 c7                	mov    %eax,%edi
   1e708:	e8 b2 da fe ff       	callq  c1bf <safe_unary_minus_func_int8_t_s>
   1e70d:	48 8b 85 c0 f6 ff ff 	mov    -0x940(%rbp),%rax
   1e714:	48 85 c0             	test   %rax,%rax
   1e717:	0f 95 c0             	setne  %al
   1e71a:	0f b6 c0             	movzbl %al,%eax
   1e71d:	89 85 0c f5 ff ff    	mov    %eax,-0xaf4(%rbp)
   1e723:	8b 85 0c f5 ff ff    	mov    -0xaf4(%rbp),%eax
   1e729:	20 85 17 f5 ff ff    	and    %al,-0xae9(%rbp)
   1e72f:	e9 16 01 00 00       	jmpq   1e84a <func_68+0x1775>
   1e734:	48 8d 45 d1          	lea    -0x2f(%rbp),%rax
   1e738:	48 83 c0 01          	add    $0x1,%rax
   1e73c:	48 89 85 e8 f5 ff ff 	mov    %rax,-0xa18(%rbp)
   1e743:	c7 85 44 f5 ff ff 63 	movl   $0xfd0f7563,-0xabc(%rbp)
   1e74a:	75 0f fd 
   1e74d:	48 8d 05 ac 96 00 00 	lea    0x96ac(%rip),%rax        # 27e00 <g_87>
   1e754:	48 89 85 a8 f5 ff ff 	mov    %rax,-0xa58(%rbp)
   1e75b:	48 8d 85 a8 f5 ff ff 	lea    -0xa58(%rbp),%rax
   1e762:	48 89 85 f0 f5 ff ff 	mov    %rax,-0xa10(%rbp)
   1e769:	48 8b 05 90 96 00 00 	mov    0x9690(%rip),%rax        # 27e00 <g_87>
   1e770:	0f b6 00             	movzbl (%rax),%eax
   1e773:	0f b6 d0             	movzbl %al,%edx
   1e776:	48 83 bd e8 f5 ff ff 	cmpq   $0x0,-0xa18(%rbp)
   1e77d:	00 
   1e77e:	0f 95 c0             	setne  %al
   1e781:	0f b6 c0             	movzbl %al,%eax
   1e784:	39 c2                	cmp    %eax,%edx
   1e786:	41 0f 9e c4          	setle  %r12b
   1e78a:	c7 85 44 f5 ff ff fc 	movl   $0xfc,-0xabc(%rbp)
   1e791:	00 00 00 
   1e794:	8b 85 08 f5 ff ff    	mov    -0xaf8(%rbp),%eax
   1e79a:	0f bf d8             	movswl %ax,%ebx
   1e79d:	48 8b 85 e8 f5 ff ff 	mov    -0xa18(%rbp),%rax
   1e7a4:	c6 00 90             	movb   $0x90,(%rax)
   1e7a7:	be 9d 00 00 00       	mov    $0x9d,%esi
   1e7ac:	bf 90 00 00 00       	mov    $0x90,%edi
   1e7b1:	e8 c2 e3 fe ff       	callq  cb78 <safe_sub_func_uint8_t_u_u>
   1e7b6:	8b 05 e8 78 00 00    	mov    0x78e8(%rip),%eax        # 260a4 <g_24+0x4>
   1e7bc:	85 c0                	test   %eax,%eax
   1e7be:	74 07                	je     1e7c7 <func_68+0x16f2>
   1e7c0:	b8 01 00 00 00       	mov    $0x1,%eax
   1e7c5:	eb 05                	jmp    1e7cc <func_68+0x16f7>
   1e7c7:	b8 00 00 00 00       	mov    $0x0,%eax
   1e7cc:	98                   	cwtl   
   1e7cd:	89 de                	mov    %ebx,%esi
   1e7cf:	89 c7                	mov    %eax,%edi
   1e7d1:	e8 1f dc fe ff       	callq  c3f5 <safe_mul_func_int16_t_s_s>
   1e7d6:	98                   	cwtl   
   1e7d7:	39 85 44 f5 ff ff    	cmp    %eax,-0xabc(%rbp)
   1e7dd:	7d 07                	jge    1e7e6 <func_68+0x1711>
   1e7df:	b8 01 00 00 00       	mov    $0x1,%eax
   1e7e4:	eb 05                	jmp    1e7eb <func_68+0x1716>
   1e7e6:	b8 00 00 00 00       	mov    $0x0,%eax
   1e7eb:	83 e0 01             	and    $0x1,%eax
   1e7ee:	44 31 e0             	xor    %r12d,%eax
   1e7f1:	84 c0                	test   %al,%al
   1e7f3:	74 08                	je     1e7fd <func_68+0x1728>
   1e7f5:	8b 85 0c f5 ff ff    	mov    -0xaf4(%rbp),%eax
   1e7fb:	eb 53                	jmp    1e850 <func_68+0x177b>
   1e7fd:	48 c7 85 f8 f5 ff ff 	movq   $0x0,-0xa08(%rbp)
   1e804:	00 00 00 00 
   1e808:	48 8d 85 18 f5 ff ff 	lea    -0xae8(%rbp),%rax
   1e80f:	48 89 85 b0 f5 ff ff 	mov    %rax,-0xa50(%rbp)
   1e816:	48 8d 85 b0 f5 ff ff 	lea    -0xa50(%rbp),%rax
   1e81d:	48 89 85 00 f6 ff ff 	mov    %rax,-0xa00(%rbp)
   1e824:	48 8b 85 00 f6 ff ff 	mov    -0xa00(%rbp),%rax
   1e82b:	48 8d 15 2e 79 00 00 	lea    0x792e(%rip),%rdx        # 26160 <g_133>
   1e832:	48 89 10             	mov    %rdx,(%rax)
   1e835:	48 8b 85 b0 f5 ff ff 	mov    -0xa50(%rbp),%rax
   1e83c:	c7 00 f6 ff ff ff    	movl   $0xfffffff6,(%rax)
   1e842:	8b 00                	mov    (%rax),%eax
   1e844:	89 85 1c f5 ff ff    	mov    %eax,-0xae4(%rbp)
   1e84a:	8b 85 0c f5 ff ff    	mov    -0xaf4(%rbp),%eax
   1e850:	48 8b 5d d8          	mov    -0x28(%rbp),%rbx
   1e854:	64 48 33 1c 25 28 00 	xor    %fs:0x28,%rbx
   1e85b:	00 00 
   1e85d:	74 05                	je     1e864 <func_68+0x178f>
   1e85f:	e8 0c d8 fe ff       	callq  c070 <__stack_chk_fail@plt>
   1e864:	48 81 c4 e0 0a 00 00 	add    $0xae0,%rsp
   1e86b:	5b                   	pop    %rbx
   1e86c:	41 5c                	pop    %r12
   1e86e:	41 5d                	pop    %r13
   1e870:	41 5e                	pop    %r14
   1e872:	5d                   	pop    %rbp
   1e873:	c3                   	retq   

000000000001e874 <func_76>:
   1e874:	f3 0f 1e fa          	endbr64 
   1e878:	55                   	push   %rbp
   1e879:	48 89 e5             	mov    %rsp,%rbp
   1e87c:	89 7d fc             	mov    %edi,-0x4(%rbp)
   1e87f:	48 89 75 f0          	mov    %rsi,-0x10(%rbp)
   1e883:	89 d0                	mov    %edx,%eax
   1e885:	48 89 4d e8          	mov    %rcx,-0x18(%rbp)
   1e889:	66 89 45 f8          	mov    %ax,-0x8(%rbp)
   1e88d:	8b 45 fc             	mov    -0x4(%rbp),%eax
   1e890:	5d                   	pop    %rbp
   1e891:	c3                   	retq   

000000000001e892 <main>:
   1e892:	f3 0f 1e fa          	endbr64 
   1e896:	55                   	push   %rbp
   1e897:	48 89 e5             	mov    %rsp,%rbp
   1e89a:	48 83 ec 20          	sub    $0x20,%rsp
   1e89e:	89 7d ec             	mov    %edi,-0x14(%rbp)
   1e8a1:	48 89 75 e0          	mov    %rsi,-0x20(%rbp)
   1e8a5:	c7 45 fc 00 00 00 00 	movl   $0x0,-0x4(%rbp)
   1e8ac:	83 7d ec 02          	cmpl   $0x2,-0x14(%rbp)
   1e8b0:	75 25                	jne    1e8d7 <main+0x45>
   1e8b2:	48 8b 45 e0          	mov    -0x20(%rbp),%rax
   1e8b6:	48 83 c0 08          	add    $0x8,%rax
   1e8ba:	48 8b 00             	mov    (%rax),%rax
   1e8bd:	48 8d 35 24 3b 00 00 	lea    0x3b24(%rip),%rsi        # 223e8 <g_2708+0x2160>
   1e8c4:	48 89 c7             	mov    %rax,%rdi
   1e8c7:	e8 c4 d7 fe ff       	callq  c090 <strcmp@plt>
   1e8cc:	85 c0                	test   %eax,%eax
   1e8ce:	75 07                	jne    1e8d7 <main+0x45>
   1e8d0:	c7 45 fc 01 00 00 00 	movl   $0x1,-0x4(%rbp)
   1e8d7:	e8 ad d8 fe ff       	callq  c189 <platform_main_begin>
   1e8dc:	e8 b7 ec fe ff       	callq  d598 <crc32_gentab>
   1e8e1:	e8 cf ee fe ff       	callq  d7b5 <func_1>
   1e8e6:	c7 45 f0 00 00 00 00 	movl   $0x0,-0x10(%rbp)
   1e8ed:	eb 6b                	jmp    1e95a <main+0xc8>
   1e8ef:	c7 45 f4 00 00 00 00 	movl   $0x0,-0xc(%rbp)
   1e8f6:	eb 58                	jmp    1e950 <main+0xbe>
   1e8f8:	8b 45 f4             	mov    -0xc(%rbp),%eax
   1e8fb:	48 98                	cltq   
   1e8fd:	8b 55 f0             	mov    -0x10(%rbp),%edx
   1e900:	48 63 d2             	movslq %edx,%rdx
   1e903:	48 c1 e2 03          	shl    $0x3,%rdx
   1e907:	48 01 c2             	add    %rax,%rdx
   1e90a:	48 8d 05 2f 77 00 00 	lea    0x772f(%rip),%rax        # 26040 <g_11>
   1e911:	48 01 d0             	add    %rdx,%rax
   1e914:	0f b6 00             	movzbl (%rax),%eax
   1e917:	48 0f be c0          	movsbq %al,%rax
   1e91b:	8b 55 fc             	mov    -0x4(%rbp),%edx
   1e91e:	48 8d 35 c5 3a 00 00 	lea    0x3ac5(%rip),%rsi        # 223ea <g_2708+0x2162>
   1e925:	48 89 c7             	mov    %rax,%rdi
   1e928:	e8 c6 ed fe ff       	callq  d6f3 <transparent_crc>
   1e92d:	83 7d fc 00          	cmpl   $0x0,-0x4(%rbp)
   1e931:	74 19                	je     1e94c <main+0xba>
   1e933:	8b 55 f4             	mov    -0xc(%rbp),%edx
   1e936:	8b 45 f0             	mov    -0x10(%rbp),%eax
   1e939:	89 c6                	mov    %eax,%esi
   1e93b:	48 8d 3d b3 3a 00 00 	lea    0x3ab3(%rip),%rdi        # 223f5 <g_2708+0x216d>
   1e942:	b8 00 00 00 00       	mov    $0x0,%eax
   1e947:	e8 34 d7 fe ff       	callq  c080 <printf@plt>
   1e94c:	83 45 f4 01          	addl   $0x1,-0xc(%rbp)
   1e950:	83 7d f4 07          	cmpl   $0x7,-0xc(%rbp)
   1e954:	7e a2                	jle    1e8f8 <main+0x66>
   1e956:	83 45 f0 01          	addl   $0x1,-0x10(%rbp)
   1e95a:	83 7d f0 08          	cmpl   $0x8,-0x10(%rbp)
   1e95e:	7e 8f                	jle    1e8ef <main+0x5d>
   1e960:	c7 45 f0 00 00 00 00 	movl   $0x0,-0x10(%rbp)
   1e967:	eb 4d                	jmp    1e9b6 <main+0x124>
   1e969:	8b 45 f0             	mov    -0x10(%rbp),%eax
   1e96c:	48 98                	cltq   
   1e96e:	48 8d 14 85 00 00 00 	lea    0x0(,%rax,4),%rdx
   1e975:	00 
   1e976:	48 8d 05 23 77 00 00 	lea    0x7723(%rip),%rax        # 260a0 <g_24>
   1e97d:	8b 04 02             	mov    (%rdx,%rax,1),%eax
   1e980:	89 c1                	mov    %eax,%ecx
   1e982:	8b 45 fc             	mov    -0x4(%rbp),%eax
   1e985:	89 c2                	mov    %eax,%edx
   1e987:	48 8d 35 79 3a 00 00 	lea    0x3a79(%rip),%rsi        # 22407 <g_2708+0x217f>
   1e98e:	48 89 cf             	mov    %rcx,%rdi
   1e991:	e8 5d ed fe ff       	callq  d6f3 <transparent_crc>
   1e996:	83 7d fc 00          	cmpl   $0x0,-0x4(%rbp)
   1e99a:	74 16                	je     1e9b2 <main+0x120>
   1e99c:	8b 45 f0             	mov    -0x10(%rbp),%eax
   1e99f:	89 c6                	mov    %eax,%esi
   1e9a1:	48 8d 3d 67 3a 00 00 	lea    0x3a67(%rip),%rdi        # 2240f <g_2708+0x2187>
   1e9a8:	b8 00 00 00 00       	mov    $0x0,%eax
   1e9ad:	e8 ce d6 fe ff       	callq  c080 <printf@plt>
   1e9b2:	83 45 f0 01          	addl   $0x1,-0x10(%rbp)
   1e9b6:	83 7d f0 09          	cmpl   $0x9,-0x10(%rbp)
   1e9ba:	7e ad                	jle    1e969 <main+0xd7>
   1e9bc:	0f b6 05 05 77 00 00 	movzbl 0x7705(%rip),%eax        # 260c8 <g_56>
   1e9c3:	0f b6 c0             	movzbl %al,%eax
   1e9c6:	8b 55 fc             	mov    -0x4(%rbp),%edx
   1e9c9:	48 8d 35 4d 3a 00 00 	lea    0x3a4d(%rip),%rsi        # 2241d <g_2708+0x2195>
   1e9d0:	48 89 c7             	mov    %rax,%rdi
   1e9d3:	e8 1b ed fe ff       	callq  d6f3 <transparent_crc>
   1e9d8:	0f b6 05 ea 76 00 00 	movzbl 0x76ea(%rip),%eax        # 260c9 <g_88>
   1e9df:	0f b6 c0             	movzbl %al,%eax
   1e9e2:	8b 55 fc             	mov    -0x4(%rbp),%edx
   1e9e5:	48 8d 35 36 3a 00 00 	lea    0x3a36(%rip),%rsi        # 22422 <g_2708+0x219a>
   1e9ec:	48 89 c7             	mov    %rax,%rdi
   1e9ef:	e8 ff ec fe ff       	callq  d6f3 <transparent_crc>
   1e9f4:	8b 05 d2 76 00 00    	mov    0x76d2(%rip),%eax        # 260cc <g_98>
   1e9fa:	89 c1                	mov    %eax,%ecx
   1e9fc:	8b 45 fc             	mov    -0x4(%rbp),%eax
   1e9ff:	89 c2                	mov    %eax,%edx
   1ea01:	48 8d 35 1f 3a 00 00 	lea    0x3a1f(%rip),%rsi        # 22427 <g_2708+0x219f>
   1ea08:	48 89 cf             	mov    %rcx,%rdi
   1ea0b:	e8 e3 ec fe ff       	callq  d6f3 <transparent_crc>
   1ea10:	c7 45 f0 00 00 00 00 	movl   $0x0,-0x10(%rbp)
   1ea17:	e9 92 00 00 00       	jmpq   1eaae <main+0x21c>
   1ea1c:	c7 45 f4 00 00 00 00 	movl   $0x0,-0xc(%rbp)
   1ea23:	eb 7b                	jmp    1eaa0 <main+0x20e>
   1ea25:	c7 45 f8 00 00 00 00 	movl   $0x0,-0x8(%rbp)
   1ea2c:	eb 68                	jmp    1ea96 <main+0x204>
   1ea2e:	8b 45 f8             	mov    -0x8(%rbp),%eax
   1ea31:	48 98                	cltq   
   1ea33:	8b 55 f0             	mov    -0x10(%rbp),%edx
   1ea36:	48 63 ca             	movslq %edx,%rcx
   1ea39:	8b 55 f4             	mov    -0xc(%rbp),%edx
   1ea3c:	48 63 d2             	movslq %edx,%rdx
   1ea3f:	48 c1 e1 03          	shl    $0x3,%rcx
   1ea43:	48 01 ca             	add    %rcx,%rdx
   1ea46:	48 01 d2             	add    %rdx,%rdx
   1ea49:	48 01 d0             	add    %rdx,%rax
   1ea4c:	48 8d 14 00          	lea    (%rax,%rax,1),%rdx
   1ea50:	48 8d 05 89 76 00 00 	lea    0x7689(%rip),%rax        # 260e0 <g_100>
   1ea57:	0f b7 04 02          	movzwl (%rdx,%rax,1),%eax
   1ea5b:	0f b7 c0             	movzwl %ax,%eax
   1ea5e:	8b 55 fc             	mov    -0x4(%rbp),%edx
   1ea61:	48 8d 35 c4 39 00 00 	lea    0x39c4(%rip),%rsi        # 2242c <g_2708+0x21a4>
   1ea68:	48 89 c7             	mov    %rax,%rdi
   1ea6b:	e8 83 ec fe ff       	callq  d6f3 <transparent_crc>
   1ea70:	83 7d fc 00          	cmpl   $0x0,-0x4(%rbp)
   1ea74:	74 1c                	je     1ea92 <main+0x200>
   1ea76:	8b 4d f8             	mov    -0x8(%rbp),%ecx
   1ea79:	8b 55 f4             	mov    -0xc(%rbp),%edx
   1ea7c:	8b 45 f0             	mov    -0x10(%rbp),%eax
   1ea7f:	89 c6                	mov    %eax,%esi
   1ea81:	48 8d 3d b3 39 00 00 	lea    0x39b3(%rip),%rdi        # 2243b <g_2708+0x21b3>
   1ea88:	b8 00 00 00 00       	mov    $0x0,%eax
   1ea8d:	e8 ee d5 fe ff       	callq  c080 <printf@plt>
   1ea92:	83 45 f8 01          	addl   $0x1,-0x8(%rbp)
   1ea96:	83 7d f8 01          	cmpl   $0x1,-0x8(%rbp)
   1ea9a:	7e 92                	jle    1ea2e <main+0x19c>
   1ea9c:	83 45 f4 01          	addl   $0x1,-0xc(%rbp)
   1eaa0:	83 7d f4 07          	cmpl   $0x7,-0xc(%rbp)
   1eaa4:	0f 8e 7b ff ff ff    	jle    1ea25 <main+0x193>
   1eaaa:	83 45 f0 01          	addl   $0x1,-0x10(%rbp)
   1eaae:	83 7d f0 03          	cmpl   $0x3,-0x10(%rbp)
   1eab2:	0f 8e 64 ff ff ff    	jle    1ea1c <main+0x18a>
   1eab8:	8b 05 a2 76 00 00    	mov    0x76a2(%rip),%eax        # 26160 <g_133>
   1eabe:	48 98                	cltq   
   1eac0:	8b 55 fc             	mov    -0x4(%rbp),%edx
   1eac3:	48 8d 35 87 39 00 00 	lea    0x3987(%rip),%rsi        # 22451 <g_2708+0x21c9>
   1eaca:	48 89 c7             	mov    %rax,%rdi
   1eacd:	e8 21 ec fe ff       	callq  d6f3 <transparent_crc>
   1ead2:	c7 45 f0 00 00 00 00 	movl   $0x0,-0x10(%rbp)
   1ead9:	eb 46                	jmp    1eb21 <main+0x28f>
   1eadb:	8b 45 f0             	mov    -0x10(%rbp),%eax
   1eade:	48 98                	cltq   
   1eae0:	48 8d 15 7d 76 00 00 	lea    0x767d(%rip),%rdx        # 26164 <g_164>
   1eae7:	0f b6 04 10          	movzbl (%rax,%rdx,1),%eax
   1eaeb:	48 0f be c0          	movsbq %al,%rax
   1eaef:	8b 55 fc             	mov    -0x4(%rbp),%edx
   1eaf2:	48 8d 35 5e 39 00 00 	lea    0x395e(%rip),%rsi        # 22457 <g_2708+0x21cf>
   1eaf9:	48 89 c7             	mov    %rax,%rdi
   1eafc:	e8 f2 eb fe ff       	callq  d6f3 <transparent_crc>
   1eb01:	83 7d fc 00          	cmpl   $0x0,-0x4(%rbp)
   1eb05:	74 16                	je     1eb1d <main+0x28b>
   1eb07:	8b 45 f0             	mov    -0x10(%rbp),%eax
   1eb0a:	89 c6                	mov    %eax,%esi
   1eb0c:	48 8d 3d fc 38 00 00 	lea    0x38fc(%rip),%rdi        # 2240f <g_2708+0x2187>
   1eb13:	b8 00 00 00 00       	mov    $0x0,%eax
   1eb18:	e8 63 d5 fe ff       	callq  c080 <printf@plt>
   1eb1d:	83 45 f0 01          	addl   $0x1,-0x10(%rbp)
   1eb21:	83 7d f0 03          	cmpl   $0x3,-0x10(%rbp)
   1eb25:	7e b4                	jle    1eadb <main+0x249>
   1eb27:	c7 45 f0 00 00 00 00 	movl   $0x0,-0x10(%rbp)
   1eb2e:	e9 af 00 00 00       	jmpq   1ebe2 <main+0x350>
   1eb33:	c7 45 f4 00 00 00 00 	movl   $0x0,-0xc(%rbp)
   1eb3a:	e9 95 00 00 00       	jmpq   1ebd4 <main+0x342>
   1eb3f:	c7 45 f8 00 00 00 00 	movl   $0x0,-0x8(%rbp)
   1eb46:	eb 7e                	jmp    1ebc6 <main+0x334>
   1eb48:	8b 45 f8             	mov    -0x8(%rbp),%eax
   1eb4b:	48 63 f0             	movslq %eax,%rsi
   1eb4e:	8b 45 f0             	mov    -0x10(%rbp),%eax
   1eb51:	48 63 d0             	movslq %eax,%rdx
   1eb54:	8b 45 f4             	mov    -0xc(%rbp),%eax
   1eb57:	48 63 c8             	movslq %eax,%rcx
   1eb5a:	48 89 d0             	mov    %rdx,%rax
   1eb5d:	48 c1 e0 03          	shl    $0x3,%rax
   1eb61:	48 29 d0             	sub    %rdx,%rax
   1eb64:	48 c1 e0 02          	shl    $0x2,%rax
   1eb68:	48 89 ca             	mov    %rcx,%rdx
   1eb6b:	48 c1 e2 03          	shl    $0x3,%rdx
   1eb6f:	48 29 ca             	sub    %rcx,%rdx
   1eb72:	48 01 d0             	add    %rdx,%rax
   1eb75:	48 01 f0             	add    %rsi,%rax
   1eb78:	48 8d 14 85 00 00 00 	lea    0x0(,%rax,4),%rdx
   1eb7f:	00 
   1eb80:	48 8d 05 f9 75 00 00 	lea    0x75f9(%rip),%rax        # 26180 <g_211>
   1eb87:	8b 04 02             	mov    (%rdx,%rax,1),%eax
   1eb8a:	89 c1                	mov    %eax,%ecx
   1eb8c:	8b 45 fc             	mov    -0x4(%rbp),%eax
   1eb8f:	89 c2                	mov    %eax,%edx
   1eb91:	48 8d 35 c8 38 00 00 	lea    0x38c8(%rip),%rsi        # 22460 <g_2708+0x21d8>
   1eb98:	48 89 cf             	mov    %rcx,%rdi
   1eb9b:	e8 53 eb fe ff       	callq  d6f3 <transparent_crc>
   1eba0:	83 7d fc 00          	cmpl   $0x0,-0x4(%rbp)
   1eba4:	74 1c                	je     1ebc2 <main+0x330>
   1eba6:	8b 4d f8             	mov    -0x8(%rbp),%ecx
   1eba9:	8b 55 f4             	mov    -0xc(%rbp),%edx
   1ebac:	8b 45 f0             	mov    -0x10(%rbp),%eax
   1ebaf:	89 c6                	mov    %eax,%esi
   1ebb1:	48 8d 3d 83 38 00 00 	lea    0x3883(%rip),%rdi        # 2243b <g_2708+0x21b3>
   1ebb8:	b8 00 00 00 00       	mov    $0x0,%eax
   1ebbd:	e8 be d4 fe ff       	callq  c080 <printf@plt>
   1ebc2:	83 45 f8 01          	addl   $0x1,-0x8(%rbp)
   1ebc6:	83 7d f8 06          	cmpl   $0x6,-0x8(%rbp)
   1ebca:	0f 8e 78 ff ff ff    	jle    1eb48 <main+0x2b6>
   1ebd0:	83 45 f4 01          	addl   $0x1,-0xc(%rbp)
   1ebd4:	83 7d f4 03          	cmpl   $0x3,-0xc(%rbp)
   1ebd8:	0f 8e 61 ff ff ff    	jle    1eb3f <main+0x2ad>
   1ebde:	83 45 f0 01          	addl   $0x1,-0x10(%rbp)
   1ebe2:	83 7d f0 00          	cmpl   $0x0,-0x10(%rbp)
   1ebe6:	0f 8e 47 ff ff ff    	jle    1eb33 <main+0x2a1>
   1ebec:	0f b7 05 75 c2 00 00 	movzwl 0xc275(%rip),%eax        # 2ae68 <g_215>
   1ebf3:	48 0f bf c0          	movswq %ax,%rax
   1ebf7:	8b 55 fc             	mov    -0x4(%rbp),%edx
   1ebfa:	48 8d 35 6e 38 00 00 	lea    0x386e(%rip),%rsi        # 2246f <g_2708+0x21e7>
   1ec01:	48 89 c7             	mov    %rax,%rdi
   1ec04:	e8 ea ea fe ff       	callq  d6f3 <transparent_crc>
   1ec09:	0f b7 05 e0 75 00 00 	movzwl 0x75e0(%rip),%eax        # 261f0 <g_218>
   1ec10:	48 0f bf c0          	movswq %ax,%rax
   1ec14:	8b 55 fc             	mov    -0x4(%rbp),%edx
   1ec17:	48 8d 35 57 38 00 00 	lea    0x3857(%rip),%rsi        # 22475 <g_2708+0x21ed>
   1ec1e:	48 89 c7             	mov    %rax,%rdi
   1ec21:	e8 cd ea fe ff       	callq  d6f3 <transparent_crc>
   1ec26:	c7 45 f0 00 00 00 00 	movl   $0x0,-0x10(%rbp)
   1ec2d:	eb 4a                	jmp    1ec79 <main+0x3e7>
   1ec2f:	8b 45 f0             	mov    -0x10(%rbp),%eax
   1ec32:	48 98                	cltq   
   1ec34:	48 8d 14 c5 00 00 00 	lea    0x0(,%rax,8),%rdx
   1ec3b:	00 
   1ec3c:	48 8d 05 2d c2 00 00 	lea    0xc22d(%rip),%rax        # 2ae70 <g_240>
   1ec43:	48 8b 04 02          	mov    (%rdx,%rax,1),%rax
   1ec47:	8b 55 fc             	mov    -0x4(%rbp),%edx
   1ec4a:	48 8d 35 2a 38 00 00 	lea    0x382a(%rip),%rsi        # 2247b <g_2708+0x21f3>
   1ec51:	48 89 c7             	mov    %rax,%rdi
   1ec54:	e8 9a ea fe ff       	callq  d6f3 <transparent_crc>
   1ec59:	83 7d fc 00          	cmpl   $0x0,-0x4(%rbp)
   1ec5d:	74 16                	je     1ec75 <main+0x3e3>
   1ec5f:	8b 45 f0             	mov    -0x10(%rbp),%eax
   1ec62:	89 c6                	mov    %eax,%esi
   1ec64:	48 8d 3d a4 37 00 00 	lea    0x37a4(%rip),%rdi        # 2240f <g_2708+0x2187>
   1ec6b:	b8 00 00 00 00       	mov    $0x0,%eax
   1ec70:	e8 0b d4 fe ff       	callq  c080 <printf@plt>
   1ec75:	83 45 f0 01          	addl   $0x1,-0x10(%rbp)
   1ec79:	83 7d f0 02          	cmpl   $0x2,-0x10(%rbp)
   1ec7d:	7e b0                	jle    1ec2f <main+0x39d>
   1ec7f:	48 8b 05 72 75 00 00 	mov    0x7572(%rip),%rax        # 261f8 <g_244>
   1ec86:	8b 55 fc             	mov    -0x4(%rbp),%edx
   1ec89:	48 8d 35 f4 37 00 00 	lea    0x37f4(%rip),%rsi        # 22484 <g_2708+0x21fc>
   1ec90:	48 89 c7             	mov    %rax,%rdi
   1ec93:	e8 5b ea fe ff       	callq  d6f3 <transparent_crc>
   1ec98:	0f b6 05 61 75 00 00 	movzbl 0x7561(%rip),%eax        # 26200 <g_260>
   1ec9f:	0f b6 c0             	movzbl %al,%eax
   1eca2:	8b 55 fc             	mov    -0x4(%rbp),%edx
   1eca5:	48 8d 35 de 37 00 00 	lea    0x37de(%rip),%rsi        # 2248a <g_2708+0x2202>
   1ecac:	48 89 c7             	mov    %rax,%rdi
   1ecaf:	e8 3f ea fe ff       	callq  d6f3 <transparent_crc>
   1ecb4:	c7 45 f0 00 00 00 00 	movl   $0x0,-0x10(%rbp)
   1ecbb:	eb 73                	jmp    1ed30 <main+0x49e>
   1ecbd:	c7 45 f4 00 00 00 00 	movl   $0x0,-0xc(%rbp)
   1ecc4:	eb 60                	jmp    1ed26 <main+0x494>
   1ecc6:	8b 45 f4             	mov    -0xc(%rbp),%eax
   1ecc9:	48 63 c8             	movslq %eax,%rcx
   1eccc:	8b 45 f0             	mov    -0x10(%rbp),%eax
   1eccf:	48 63 d0             	movslq %eax,%rdx
   1ecd2:	48 89 d0             	mov    %rdx,%rax
   1ecd5:	48 c1 e0 02          	shl    $0x2,%rax
   1ecd9:	48 01 d0             	add    %rdx,%rax
   1ecdc:	48 01 c8             	add    %rcx,%rax
   1ecdf:	48 8d 14 00          	lea    (%rax,%rax,1),%rdx
   1ece3:	48 8d 05 26 75 00 00 	lea    0x7526(%rip),%rax        # 26210 <g_266>
   1ecea:	0f b7 04 02          	movzwl (%rdx,%rax,1),%eax
   1ecee:	0f b7 c0             	movzwl %ax,%eax
   1ecf1:	8b 55 fc             	mov    -0x4(%rbp),%edx
   1ecf4:	48 8d 35 95 37 00 00 	lea    0x3795(%rip),%rsi        # 22490 <g_2708+0x2208>
   1ecfb:	48 89 c7             	mov    %rax,%rdi
   1ecfe:	e8 f0 e9 fe ff       	callq  d6f3 <transparent_crc>
   1ed03:	83 7d fc 00          	cmpl   $0x0,-0x4(%rbp)
   1ed07:	74 19                	je     1ed22 <main+0x490>
   1ed09:	8b 55 f4             	mov    -0xc(%rbp),%edx
   1ed0c:	8b 45 f0             	mov    -0x10(%rbp),%eax
   1ed0f:	89 c6                	mov    %eax,%esi
   1ed11:	48 8d 3d dd 36 00 00 	lea    0x36dd(%rip),%rdi        # 223f5 <g_2708+0x216d>
   1ed18:	b8 00 00 00 00       	mov    $0x0,%eax
   1ed1d:	e8 5e d3 fe ff       	callq  c080 <printf@plt>
   1ed22:	83 45 f4 01          	addl   $0x1,-0xc(%rbp)
   1ed26:	83 7d f4 04          	cmpl   $0x4,-0xc(%rbp)
   1ed2a:	7e 9a                	jle    1ecc6 <main+0x434>
   1ed2c:	83 45 f0 01          	addl   $0x1,-0x10(%rbp)
   1ed30:	83 7d f0 02          	cmpl   $0x2,-0x10(%rbp)
   1ed34:	7e 87                	jle    1ecbd <main+0x42b>
   1ed36:	0f b7 05 f1 74 00 00 	movzwl 0x74f1(%rip),%eax        # 2622e <g_287>
   1ed3d:	0f b7 c0             	movzwl %ax,%eax
   1ed40:	8b 55 fc             	mov    -0x4(%rbp),%edx
   1ed43:	48 8d 35 52 37 00 00 	lea    0x3752(%rip),%rsi        # 2249c <g_2708+0x2214>
   1ed4a:	48 89 c7             	mov    %rax,%rdi
   1ed4d:	e8 a1 e9 fe ff       	callq  d6f3 <transparent_crc>
   1ed52:	48 8b 05 d7 74 00 00 	mov    0x74d7(%rip),%rax        # 26230 <g_298>
   1ed59:	48 89 c1             	mov    %rax,%rcx
   1ed5c:	8b 45 fc             	mov    -0x4(%rbp),%eax
   1ed5f:	89 c2                	mov    %eax,%edx
   1ed61:	48 8d 35 3a 37 00 00 	lea    0x373a(%rip),%rsi        # 224a2 <g_2708+0x221a>
   1ed68:	48 89 cf             	mov    %rcx,%rdi
   1ed6b:	e8 83 e9 fe ff       	callq  d6f3 <transparent_crc>
   1ed70:	48 8b 05 c1 74 00 00 	mov    0x74c1(%rip),%rax        # 26238 <g_302>
   1ed77:	48 89 c1             	mov    %rax,%rcx
   1ed7a:	8b 45 fc             	mov    -0x4(%rbp),%eax
   1ed7d:	89 c2                	mov    %eax,%edx
   1ed7f:	48 8d 35 22 37 00 00 	lea    0x3722(%rip),%rsi        # 224a8 <g_2708+0x2220>
   1ed86:	48 89 cf             	mov    %rcx,%rdi
   1ed89:	e8 65 e9 fe ff       	callq  d6f3 <transparent_crc>
   1ed8e:	0f b7 05 ab 74 00 00 	movzwl 0x74ab(%rip),%eax        # 26240 <g_365>
   1ed95:	48 0f bf c0          	movswq %ax,%rax
   1ed99:	8b 55 fc             	mov    -0x4(%rbp),%edx
   1ed9c:	48 8d 35 0b 37 00 00 	lea    0x370b(%rip),%rsi        # 224ae <g_2708+0x2226>
   1eda3:	48 89 c7             	mov    %rax,%rdi
   1eda6:	e8 48 e9 fe ff       	callq  d6f3 <transparent_crc>
   1edab:	c7 45 f0 00 00 00 00 	movl   $0x0,-0x10(%rbp)
   1edb2:	eb 7c                	jmp    1ee30 <main+0x59e>
   1edb4:	c7 45 f4 00 00 00 00 	movl   $0x0,-0xc(%rbp)
   1edbb:	eb 69                	jmp    1ee26 <main+0x594>
   1edbd:	8b 45 f4             	mov    -0xc(%rbp),%eax
   1edc0:	48 63 c8             	movslq %eax,%rcx
   1edc3:	8b 45 f0             	mov    -0x10(%rbp),%eax
   1edc6:	48 63 d0             	movslq %eax,%rdx
   1edc9:	48 89 d0             	mov    %rdx,%rax
   1edcc:	48 c1 e0 02          	shl    $0x2,%rax
   1edd0:	48 01 d0             	add    %rdx,%rax
   1edd3:	48 01 c0             	add    %rax,%rax
   1edd6:	48 01 c8             	add    %rcx,%rax
   1edd9:	48 8d 14 c5 00 00 00 	lea    0x0(,%rax,8),%rdx
   1ede0:	00 
   1ede1:	48 8d 05 78 12 00 00 	lea    0x1278(%rip),%rax        # 20060 <g_386>
   1ede8:	48 8b 04 02          	mov    (%rdx,%rax,1),%rax
   1edec:	48 89 c1             	mov    %rax,%rcx
   1edef:	8b 45 fc             	mov    -0x4(%rbp),%eax
   1edf2:	89 c2                	mov    %eax,%edx
   1edf4:	48 8d 35 b9 36 00 00 	lea    0x36b9(%rip),%rsi        # 224b4 <g_2708+0x222c>
   1edfb:	48 89 cf             	mov    %rcx,%rdi
   1edfe:	e8 f0 e8 fe ff       	callq  d6f3 <transparent_crc>
   1ee03:	83 7d fc 00          	cmpl   $0x0,-0x4(%rbp)
   1ee07:	74 19                	je     1ee22 <main+0x590>
   1ee09:	8b 55 f4             	mov    -0xc(%rbp),%edx
   1ee0c:	8b 45 f0             	mov    -0x10(%rbp),%eax
   1ee0f:	89 c6                	mov    %eax,%esi
   1ee11:	48 8d 3d dd 35 00 00 	lea    0x35dd(%rip),%rdi        # 223f5 <g_2708+0x216d>
   1ee18:	b8 00 00 00 00       	mov    $0x0,%eax
   1ee1d:	e8 5e d2 fe ff       	callq  c080 <printf@plt>
   1ee22:	83 45 f4 01          	addl   $0x1,-0xc(%rbp)
   1ee26:	83 7d f4 09          	cmpl   $0x9,-0xc(%rbp)
   1ee2a:	7e 91                	jle    1edbd <main+0x52b>
   1ee2c:	83 45 f0 01          	addl   $0x1,-0x10(%rbp)
   1ee30:	83 7d f0 05          	cmpl   $0x5,-0x10(%rbp)
   1ee34:	0f 8e 7a ff ff ff    	jle    1edb4 <main+0x522>
   1ee3a:	8b 05 04 74 00 00    	mov    0x7404(%rip),%eax        # 26244 <g_390>
   1ee40:	89 c1                	mov    %eax,%ecx
   1ee42:	8b 45 fc             	mov    -0x4(%rbp),%eax
   1ee45:	89 c2                	mov    %eax,%edx
   1ee47:	48 8d 35 72 36 00 00 	lea    0x3672(%rip),%rsi        # 224c0 <g_2708+0x2238>
   1ee4e:	48 89 cf             	mov    %rcx,%rdi
   1ee51:	e8 9d e8 fe ff       	callq  d6f3 <transparent_crc>
   1ee56:	8b 05 ec 73 00 00    	mov    0x73ec(%rip),%eax        # 26248 <g_397>
   1ee5c:	48 98                	cltq   
   1ee5e:	8b 55 fc             	mov    -0x4(%rbp),%edx
   1ee61:	48 8d 35 5e 36 00 00 	lea    0x365e(%rip),%rsi        # 224c6 <g_2708+0x223e>
   1ee68:	48 89 c7             	mov    %rax,%rdi
   1ee6b:	e8 83 e8 fe ff       	callq  d6f3 <transparent_crc>
   1ee70:	8b 05 12 c0 00 00    	mov    0xc012(%rip),%eax        # 2ae88 <g_421>
   1ee76:	89 c1                	mov    %eax,%ecx
   1ee78:	8b 45 fc             	mov    -0x4(%rbp),%eax
   1ee7b:	89 c2                	mov    %eax,%edx
   1ee7d:	48 8d 35 48 36 00 00 	lea    0x3648(%rip),%rsi        # 224cc <g_2708+0x2244>
   1ee84:	48 89 cf             	mov    %rcx,%rdi
   1ee87:	e8 67 e8 fe ff       	callq  d6f3 <transparent_crc>
   1ee8c:	8b 05 ba 73 00 00    	mov    0x73ba(%rip),%eax        # 2624c <g_424>
   1ee92:	89 c1                	mov    %eax,%ecx
   1ee94:	8b 45 fc             	mov    -0x4(%rbp),%eax
   1ee97:	89 c2                	mov    %eax,%edx
   1ee99:	48 8d 35 32 36 00 00 	lea    0x3632(%rip),%rsi        # 224d2 <g_2708+0x224a>
   1eea0:	48 89 cf             	mov    %rcx,%rdi
   1eea3:	e8 4b e8 fe ff       	callq  d6f3 <transparent_crc>
   1eea8:	8b 05 a2 73 00 00    	mov    0x73a2(%rip),%eax        # 26250 <g_452>
   1eeae:	89 c1                	mov    %eax,%ecx
   1eeb0:	8b 45 fc             	mov    -0x4(%rbp),%eax
   1eeb3:	89 c2                	mov    %eax,%edx
   1eeb5:	48 8d 35 1c 36 00 00 	lea    0x361c(%rip),%rsi        # 224d8 <g_2708+0x2250>
   1eebc:	48 89 cf             	mov    %rcx,%rdi
   1eebf:	e8 2f e8 fe ff       	callq  d6f3 <transparent_crc>
   1eec4:	8b 05 8a 73 00 00    	mov    0x738a(%rip),%eax        # 26254 <g_515>
   1eeca:	89 c1                	mov    %eax,%ecx
   1eecc:	8b 45 fc             	mov    -0x4(%rbp),%eax
   1eecf:	89 c2                	mov    %eax,%edx
   1eed1:	48 8d 35 06 36 00 00 	lea    0x3606(%rip),%rsi        # 224de <g_2708+0x2256>
   1eed8:	48 89 cf             	mov    %rcx,%rdi
   1eedb:	e8 13 e8 fe ff       	callq  d6f3 <transparent_crc>
   1eee0:	c7 45 f0 00 00 00 00 	movl   $0x0,-0x10(%rbp)
   1eee7:	eb 4f                	jmp    1ef38 <main+0x6a6>
   1eee9:	8b 45 f0             	mov    -0x10(%rbp),%eax
   1eeec:	48 98                	cltq   
   1eeee:	48 8d 14 c5 00 00 00 	lea    0x0(,%rax,8),%rdx
   1eef5:	00 
   1eef6:	48 8d 05 63 73 00 00 	lea    0x7363(%rip),%rax        # 26260 <g_525>
   1eefd:	48 8b 04 02          	mov    (%rdx,%rax,1),%rax
   1ef01:	48 89 c1             	mov    %rax,%rcx
   1ef04:	8b 45 fc             	mov    -0x4(%rbp),%eax
   1ef07:	89 c2                	mov    %eax,%edx
   1ef09:	48 8d 35 d4 35 00 00 	lea    0x35d4(%rip),%rsi        # 224e4 <g_2708+0x225c>
   1ef10:	48 89 cf             	mov    %rcx,%rdi
   1ef13:	e8 db e7 fe ff       	callq  d6f3 <transparent_crc>
   1ef18:	83 7d fc 00          	cmpl   $0x0,-0x4(%rbp)
   1ef1c:	74 16                	je     1ef34 <main+0x6a2>
   1ef1e:	8b 45 f0             	mov    -0x10(%rbp),%eax
   1ef21:	89 c6                	mov    %eax,%esi
   1ef23:	48 8d 3d e5 34 00 00 	lea    0x34e5(%rip),%rdi        # 2240f <g_2708+0x2187>
   1ef2a:	b8 00 00 00 00       	mov    $0x0,%eax
   1ef2f:	e8 4c d1 fe ff       	callq  c080 <printf@plt>
   1ef34:	83 45 f0 01          	addl   $0x1,-0x10(%rbp)
   1ef38:	83 7d f0 06          	cmpl   $0x6,-0x10(%rbp)
   1ef3c:	7e ab                	jle    1eee9 <main+0x657>
   1ef3e:	8b 05 54 73 00 00    	mov    0x7354(%rip),%eax        # 26298 <g_528>
   1ef44:	89 c1                	mov    %eax,%ecx
   1ef46:	8b 45 fc             	mov    -0x4(%rbp),%eax
   1ef49:	89 c2                	mov    %eax,%edx
   1ef4b:	48 8d 35 9b 35 00 00 	lea    0x359b(%rip),%rsi        # 224ed <g_2708+0x2265>
   1ef52:	48 89 cf             	mov    %rcx,%rdi
   1ef55:	e8 99 e7 fe ff       	callq  d6f3 <transparent_crc>
   1ef5a:	48 8b 05 3f 73 00 00 	mov    0x733f(%rip),%rax        # 262a0 <g_548>
   1ef61:	48 89 c1             	mov    %rax,%rcx
   1ef64:	8b 45 fc             	mov    -0x4(%rbp),%eax
   1ef67:	89 c2                	mov    %eax,%edx
   1ef69:	48 8d 35 83 35 00 00 	lea    0x3583(%rip),%rsi        # 224f3 <g_2708+0x226b>
   1ef70:	48 89 cf             	mov    %rcx,%rdi
   1ef73:	e8 7b e7 fe ff       	callq  d6f3 <transparent_crc>
   1ef78:	8b 05 2a 73 00 00    	mov    0x732a(%rip),%eax        # 262a8 <g_622>
   1ef7e:	89 c1                	mov    %eax,%ecx
   1ef80:	8b 45 fc             	mov    -0x4(%rbp),%eax
   1ef83:	89 c2                	mov    %eax,%edx
   1ef85:	48 8d 35 6d 35 00 00 	lea    0x356d(%rip),%rsi        # 224f9 <g_2708+0x2271>
   1ef8c:	48 89 cf             	mov    %rcx,%rdi
   1ef8f:	e8 5f e7 fe ff       	callq  d6f3 <transparent_crc>
   1ef94:	8b 05 12 73 00 00    	mov    0x7312(%rip),%eax        # 262ac <g_680>
   1ef9a:	89 c1                	mov    %eax,%ecx
   1ef9c:	8b 45 fc             	mov    -0x4(%rbp),%eax
   1ef9f:	89 c2                	mov    %eax,%edx
   1efa1:	48 8d 35 57 35 00 00 	lea    0x3557(%rip),%rsi        # 224ff <g_2708+0x2277>
   1efa8:	48 89 cf             	mov    %rcx,%rdi
   1efab:	e8 43 e7 fe ff       	callq  d6f3 <transparent_crc>
   1efb0:	8b 05 fa 72 00 00    	mov    0x72fa(%rip),%eax        # 262b0 <g_766>
   1efb6:	48 98                	cltq   
   1efb8:	8b 55 fc             	mov    -0x4(%rbp),%edx
   1efbb:	48 8d 35 43 35 00 00 	lea    0x3543(%rip),%rsi        # 22505 <g_2708+0x227d>
   1efc2:	48 89 c7             	mov    %rax,%rdi
   1efc5:	e8 29 e7 fe ff       	callq  d6f3 <transparent_crc>
   1efca:	8b 05 e4 72 00 00    	mov    0x72e4(%rip),%eax        # 262b4 <g_812>
   1efd0:	89 c1                	mov    %eax,%ecx
   1efd2:	8b 45 fc             	mov    -0x4(%rbp),%eax
   1efd5:	89 c2                	mov    %eax,%edx
   1efd7:	48 8d 35 2d 35 00 00 	lea    0x352d(%rip),%rsi        # 2250b <g_2708+0x2283>
   1efde:	48 89 cf             	mov    %rcx,%rdi
   1efe1:	e8 0d e7 fe ff       	callq  d6f3 <transparent_crc>
   1efe6:	8b 05 cc 72 00 00    	mov    0x72cc(%rip),%eax        # 262b8 <g_854>
   1efec:	89 c1                	mov    %eax,%ecx
   1efee:	8b 45 fc             	mov    -0x4(%rbp),%eax
   1eff1:	89 c2                	mov    %eax,%edx
   1eff3:	48 8d 35 17 35 00 00 	lea    0x3517(%rip),%rsi        # 22511 <g_2708+0x2289>
   1effa:	48 89 cf             	mov    %rcx,%rdi
   1effd:	e8 f1 e6 fe ff       	callq  d6f3 <transparent_crc>
   1f002:	8b 05 b4 72 00 00    	mov    0x72b4(%rip),%eax        # 262bc <g_995>
   1f008:	48 98                	cltq   
   1f00a:	8b 55 fc             	mov    -0x4(%rbp),%edx
   1f00d:	48 8d 35 03 35 00 00 	lea    0x3503(%rip),%rsi        # 22517 <g_2708+0x228f>
   1f014:	48 89 c7             	mov    %rax,%rdi
   1f017:	e8 d7 e6 fe ff       	callq  d6f3 <transparent_crc>
   1f01c:	8b 05 9e 72 00 00    	mov    0x729e(%rip),%eax        # 262c0 <g_997>
   1f022:	48 98                	cltq   
   1f024:	8b 55 fc             	mov    -0x4(%rbp),%edx
   1f027:	48 8d 35 ef 34 00 00 	lea    0x34ef(%rip),%rsi        # 2251d <g_2708+0x2295>
   1f02e:	48 89 c7             	mov    %rax,%rdi
   1f031:	e8 bd e6 fe ff       	callq  d6f3 <transparent_crc>
   1f036:	8b 05 8c be 00 00    	mov    0xbe8c(%rip),%eax        # 2aec8 <g_1067>
   1f03c:	48 98                	cltq   
   1f03e:	8b 55 fc             	mov    -0x4(%rbp),%edx
   1f041:	48 8d 35 db 34 00 00 	lea    0x34db(%rip),%rsi        # 22523 <g_2708+0x229b>
   1f048:	48 89 c7             	mov    %rax,%rdi
   1f04b:	e8 a3 e6 fe ff       	callq  d6f3 <transparent_crc>
   1f050:	8b 05 6e 72 00 00    	mov    0x726e(%rip),%eax        # 262c4 <g_1157>
   1f056:	89 c1                	mov    %eax,%ecx
   1f058:	8b 45 fc             	mov    -0x4(%rbp),%eax
   1f05b:	89 c2                	mov    %eax,%edx
   1f05d:	48 8d 35 c6 34 00 00 	lea    0x34c6(%rip),%rsi        # 2252a <g_2708+0x22a2>
   1f064:	48 89 cf             	mov    %rcx,%rdi
   1f067:	e8 87 e6 fe ff       	callq  d6f3 <transparent_crc>
   1f06c:	0f b6 05 55 72 00 00 	movzbl 0x7255(%rip),%eax        # 262c8 <g_1297>
   1f073:	0f b6 c0             	movzbl %al,%eax
   1f076:	8b 55 fc             	mov    -0x4(%rbp),%edx
   1f079:	48 8d 35 b1 34 00 00 	lea    0x34b1(%rip),%rsi        # 22531 <g_2708+0x22a9>
   1f080:	48 89 c7             	mov    %rax,%rdi
   1f083:	e8 6b e6 fe ff       	callq  d6f3 <transparent_crc>
   1f088:	0f b6 05 3a 72 00 00 	movzbl 0x723a(%rip),%eax        # 262c9 <g_1299>
   1f08f:	48 0f be c0          	movsbq %al,%rax
   1f093:	8b 55 fc             	mov    -0x4(%rbp),%edx
   1f096:	48 8d 35 9b 34 00 00 	lea    0x349b(%rip),%rsi        # 22538 <g_2708+0x22b0>
   1f09d:	48 89 c7             	mov    %rax,%rdi
   1f0a0:	e8 4e e6 fe ff       	callq  d6f3 <transparent_crc>
   1f0a5:	48 8b 05 24 72 00 00 	mov    0x7224(%rip),%rax        # 262d0 <g_1352>
   1f0ac:	8b 55 fc             	mov    -0x4(%rbp),%edx
   1f0af:	48 8d 35 89 34 00 00 	lea    0x3489(%rip),%rsi        # 2253f <g_2708+0x22b7>
   1f0b6:	48 89 c7             	mov    %rax,%rdi
   1f0b9:	e8 35 e6 fe ff       	callq  d6f3 <transparent_crc>
   1f0be:	0f b6 05 13 72 00 00 	movzbl 0x7213(%rip),%eax        # 262d8 <g_1622>
   1f0c5:	0f b6 c0             	movzbl %al,%eax
   1f0c8:	8b 55 fc             	mov    -0x4(%rbp),%edx
   1f0cb:	48 8d 35 74 34 00 00 	lea    0x3474(%rip),%rsi        # 22546 <g_2708+0x22be>
   1f0d2:	48 89 c7             	mov    %rax,%rdi
   1f0d5:	e8 19 e6 fe ff       	callq  d6f3 <transparent_crc>
   1f0da:	8b 05 fc 71 00 00    	mov    0x71fc(%rip),%eax        # 262dc <g_1943>
   1f0e0:	48 98                	cltq   
   1f0e2:	8b 55 fc             	mov    -0x4(%rbp),%edx
   1f0e5:	48 8d 35 61 34 00 00 	lea    0x3461(%rip),%rsi        # 2254d <g_2708+0x22c5>
   1f0ec:	48 89 c7             	mov    %rax,%rdi
   1f0ef:	e8 ff e5 fe ff       	callq  d6f3 <transparent_crc>
   1f0f4:	48 8b 05 e5 71 00 00 	mov    0x71e5(%rip),%rax        # 262e0 <g_2038>
   1f0fb:	8b 55 fc             	mov    -0x4(%rbp),%edx
   1f0fe:	48 8d 35 4f 34 00 00 	lea    0x344f(%rip),%rsi        # 22554 <g_2708+0x22cc>
   1f105:	48 89 c7             	mov    %rax,%rdi
   1f108:	e8 e6 e5 fe ff       	callq  d6f3 <transparent_crc>
   1f10d:	c7 45 f0 00 00 00 00 	movl   $0x0,-0x10(%rbp)
   1f114:	eb 4a                	jmp    1f160 <main+0x8ce>
   1f116:	8b 45 f0             	mov    -0x10(%rbp),%eax
   1f119:	48 98                	cltq   
   1f11b:	48 8d 14 c5 00 00 00 	lea    0x0(,%rax,8),%rdx
   1f122:	00 
   1f123:	48 8d 05 d6 71 00 00 	lea    0x71d6(%rip),%rax        # 26300 <g_2089>
   1f12a:	48 8b 04 02          	mov    (%rdx,%rax,1),%rax
   1f12e:	8b 55 fc             	mov    -0x4(%rbp),%edx
   1f131:	48 8d 35 23 34 00 00 	lea    0x3423(%rip),%rsi        # 2255b <g_2708+0x22d3>
   1f138:	48 89 c7             	mov    %rax,%rdi
   1f13b:	e8 b3 e5 fe ff       	callq  d6f3 <transparent_crc>
   1f140:	83 7d fc 00          	cmpl   $0x0,-0x4(%rbp)
   1f144:	74 16                	je     1f15c <main+0x8ca>
   1f146:	8b 45 f0             	mov    -0x10(%rbp),%eax
   1f149:	89 c6                	mov    %eax,%esi
   1f14b:	48 8d 3d bd 32 00 00 	lea    0x32bd(%rip),%rdi        # 2240f <g_2708+0x2187>
   1f152:	b8 00 00 00 00       	mov    $0x0,%eax
   1f157:	e8 24 cf fe ff       	callq  c080 <printf@plt>
   1f15c:	83 45 f0 01          	addl   $0x1,-0x10(%rbp)
   1f160:	83 7d f0 05          	cmpl   $0x5,-0x10(%rbp)
   1f164:	7e b0                	jle    1f116 <main+0x884>
   1f166:	8b 05 c4 71 00 00    	mov    0x71c4(%rip),%eax        # 26330 <g_2156>
   1f16c:	89 c1                	mov    %eax,%ecx
   1f16e:	8b 45 fc             	mov    -0x4(%rbp),%eax
   1f171:	89 c2                	mov    %eax,%edx
   1f173:	48 8d 35 eb 33 00 00 	lea    0x33eb(%rip),%rsi        # 22565 <g_2708+0x22dd>
   1f17a:	48 89 cf             	mov    %rcx,%rdi
   1f17d:	e8 71 e5 fe ff       	callq  d6f3 <transparent_crc>
   1f182:	0f b6 05 ab 71 00 00 	movzbl 0x71ab(%rip),%eax        # 26334 <g_2178>
   1f189:	0f b6 c0             	movzbl %al,%eax
   1f18c:	8b 55 fc             	mov    -0x4(%rbp),%edx
   1f18f:	48 8d 35 d6 33 00 00 	lea    0x33d6(%rip),%rsi        # 2256c <g_2708+0x22e4>
   1f196:	48 89 c7             	mov    %rax,%rdi
   1f199:	e8 55 e5 fe ff       	callq  d6f3 <transparent_crc>
   1f19e:	0f b7 05 6b bd 00 00 	movzwl 0xbd6b(%rip),%eax        # 2af10 <g_2283>
   1f1a5:	0f b7 c0             	movzwl %ax,%eax
   1f1a8:	8b 55 fc             	mov    -0x4(%rbp),%edx
   1f1ab:	48 8d 35 c1 33 00 00 	lea    0x33c1(%rip),%rsi        # 22573 <g_2708+0x22eb>
   1f1b2:	48 89 c7             	mov    %rax,%rdi
   1f1b5:	e8 39 e5 fe ff       	callq  d6f3 <transparent_crc>
   1f1ba:	0f b7 05 75 71 00 00 	movzwl 0x7175(%rip),%eax        # 26336 <g_2459>
   1f1c1:	0f b7 c0             	movzwl %ax,%eax
   1f1c4:	8b 55 fc             	mov    -0x4(%rbp),%edx
   1f1c7:	48 8d 35 ac 33 00 00 	lea    0x33ac(%rip),%rsi        # 2257a <g_2708+0x22f2>
   1f1ce:	48 89 c7             	mov    %rax,%rdi
   1f1d1:	e8 1d e5 fe ff       	callq  d6f3 <transparent_crc>
   1f1d6:	0f b7 05 5b 71 00 00 	movzwl 0x715b(%rip),%eax        # 26338 <g_2496>
   1f1dd:	48 0f bf c0          	movswq %ax,%rax
   1f1e1:	8b 55 fc             	mov    -0x4(%rbp),%edx
   1f1e4:	48 8d 35 96 33 00 00 	lea    0x3396(%rip),%rsi        # 22581 <g_2708+0x22f9>
   1f1eb:	48 89 c7             	mov    %rax,%rdi
   1f1ee:	e8 00 e5 fe ff       	callq  d6f3 <transparent_crc>
   1f1f3:	0f b6 05 40 71 00 00 	movzbl 0x7140(%rip),%eax        # 2633a <g_2498>
   1f1fa:	48 0f be c0          	movsbq %al,%rax
   1f1fe:	8b 55 fc             	mov    -0x4(%rbp),%edx
   1f201:	48 8d 35 80 33 00 00 	lea    0x3380(%rip),%rsi        # 22588 <g_2708+0x2300>
   1f208:	48 89 c7             	mov    %rax,%rdi
   1f20b:	e8 e3 e4 fe ff       	callq  d6f3 <transparent_crc>
   1f210:	48 b8 36 30 d5 49 23 	movabs $0x9f7adb2349d53036,%rax
   1f217:	db 7a 9f 
   1f21a:	48 89 c1             	mov    %rax,%rcx
   1f21d:	8b 45 fc             	mov    -0x4(%rbp),%eax
   1f220:	89 c2                	mov    %eax,%edx
   1f222:	48 8d 35 66 33 00 00 	lea    0x3366(%rip),%rsi        # 2258f <g_2708+0x2307>
   1f229:	48 89 cf             	mov    %rcx,%rdi
   1f22c:	e8 c2 e4 fe ff       	callq  d6f3 <transparent_crc>
   1f231:	48 b9 73 28 19 19 6a 	movabs $0x5a5da86a19192873,%rcx
   1f238:	a8 5d 5a 
   1f23b:	8b 45 fc             	mov    -0x4(%rbp),%eax
   1f23e:	89 c2                	mov    %eax,%edx
   1f240:	48 8d 35 4f 33 00 00 	lea    0x334f(%rip),%rsi        # 22596 <g_2708+0x230e>
   1f247:	48 89 cf             	mov    %rcx,%rdi
   1f24a:	e8 a4 e4 fe ff       	callq  d6f3 <transparent_crc>
   1f24f:	b8 c2 6a 00 00       	mov    $0x6ac2,%eax
   1f254:	0f b7 c0             	movzwl %ax,%eax
   1f257:	8b 55 fc             	mov    -0x4(%rbp),%edx
   1f25a:	48 8d 35 3c 33 00 00 	lea    0x333c(%rip),%rsi        # 2259d <g_2708+0x2315>
   1f261:	48 89 c7             	mov    %rax,%rdi
   1f264:	e8 8a e4 fe ff       	callq  d6f3 <transparent_crc>
   1f269:	8b 05 cd 70 00 00    	mov    0x70cd(%rip),%eax        # 2633c <g_2747>
   1f26f:	48 98                	cltq   
   1f271:	8b 55 fc             	mov    -0x4(%rbp),%edx
   1f274:	48 8d 35 29 33 00 00 	lea    0x3329(%rip),%rsi        # 225a4 <g_2708+0x231c>
   1f27b:	48 89 c7             	mov    %rax,%rdi
   1f27e:	e8 70 e4 fe ff       	callq  d6f3 <transparent_crc>
   1f283:	c7 45 f0 00 00 00 00 	movl   $0x0,-0x10(%rbp)
   1f28a:	eb 4a                	jmp    1f2d6 <main+0xa44>
   1f28c:	8b 45 f0             	mov    -0x10(%rbp),%eax
   1f28f:	48 98                	cltq   
   1f291:	48 8d 14 c5 00 00 00 	lea    0x0(,%rax,8),%rdx
   1f298:	00 
   1f299:	48 8d 05 a0 70 00 00 	lea    0x70a0(%rip),%rax        # 26340 <g_2768>
   1f2a0:	48 8b 04 02          	mov    (%rdx,%rax,1),%rax
   1f2a4:	8b 55 fc             	mov    -0x4(%rbp),%edx
   1f2a7:	48 8d 35 fd 32 00 00 	lea    0x32fd(%rip),%rsi        # 225ab <g_2708+0x2323>
   1f2ae:	48 89 c7             	mov    %rax,%rdi
   1f2b1:	e8 3d e4 fe ff       	callq  d6f3 <transparent_crc>
   1f2b6:	83 7d fc 00          	cmpl   $0x0,-0x4(%rbp)
   1f2ba:	74 16                	je     1f2d2 <main+0xa40>
   1f2bc:	8b 45 f0             	mov    -0x10(%rbp),%eax
   1f2bf:	89 c6                	mov    %eax,%esi
   1f2c1:	48 8d 3d 47 31 00 00 	lea    0x3147(%rip),%rdi        # 2240f <g_2708+0x2187>
   1f2c8:	b8 00 00 00 00       	mov    $0x0,%eax
   1f2cd:	e8 ae cd fe ff       	callq  c080 <printf@plt>
   1f2d2:	83 45 f0 01          	addl   $0x1,-0x10(%rbp)
   1f2d6:	83 7d f0 00          	cmpl   $0x0,-0x10(%rbp)
   1f2da:	7e b0                	jle    1f28c <main+0x9fa>
   1f2dc:	c7 45 f0 00 00 00 00 	movl   $0x0,-0x10(%rbp)
   1f2e3:	eb 4d                	jmp    1f332 <main+0xaa0>
   1f2e5:	8b 45 f0             	mov    -0x10(%rbp),%eax
   1f2e8:	48 98                	cltq   
   1f2ea:	48 8d 14 85 00 00 00 	lea    0x0(,%rax,4),%rdx
   1f2f1:	00 
   1f2f2:	48 8d 05 4f 70 00 00 	lea    0x704f(%rip),%rax        # 26348 <g_2791>
   1f2f9:	8b 04 02             	mov    (%rdx,%rax,1),%eax
   1f2fc:	89 c1                	mov    %eax,%ecx
   1f2fe:	8b 45 fc             	mov    -0x4(%rbp),%eax
   1f301:	89 c2                	mov    %eax,%edx
   1f303:	48 8d 35 ab 32 00 00 	lea    0x32ab(%rip),%rsi        # 225b5 <g_2708+0x232d>
   1f30a:	48 89 cf             	mov    %rcx,%rdi
   1f30d:	e8 e1 e3 fe ff       	callq  d6f3 <transparent_crc>
   1f312:	83 7d fc 00          	cmpl   $0x0,-0x4(%rbp)
   1f316:	74 16                	je     1f32e <main+0xa9c>
   1f318:	8b 45 f0             	mov    -0x10(%rbp),%eax
   1f31b:	89 c6                	mov    %eax,%esi
   1f31d:	48 8d 3d eb 30 00 00 	lea    0x30eb(%rip),%rdi        # 2240f <g_2708+0x2187>
   1f324:	b8 00 00 00 00       	mov    $0x0,%eax
   1f329:	e8 52 cd fe ff       	callq  c080 <printf@plt>
   1f32e:	83 45 f0 01          	addl   $0x1,-0x10(%rbp)
   1f332:	83 7d f0 00          	cmpl   $0x0,-0x10(%rbp)
   1f336:	7e ad                	jle    1f2e5 <main+0xa53>
   1f338:	8b 05 0e 70 00 00    	mov    0x700e(%rip),%eax        # 2634c <g_2792>
   1f33e:	89 c1                	mov    %eax,%ecx
   1f340:	8b 45 fc             	mov    -0x4(%rbp),%eax
   1f343:	89 c2                	mov    %eax,%edx
   1f345:	48 8d 35 73 32 00 00 	lea    0x3273(%rip),%rsi        # 225bf <g_2708+0x2337>
   1f34c:	48 89 cf             	mov    %rcx,%rdi
   1f34f:	e8 9f e3 fe ff       	callq  d6f3 <transparent_crc>
   1f354:	8b 05 f6 6f 00 00    	mov    0x6ff6(%rip),%eax        # 26350 <g_2793>
   1f35a:	89 c1                	mov    %eax,%ecx
   1f35c:	8b 45 fc             	mov    -0x4(%rbp),%eax
   1f35f:	89 c2                	mov    %eax,%edx
   1f361:	48 8d 35 5e 32 00 00 	lea    0x325e(%rip),%rsi        # 225c6 <g_2708+0x233e>
   1f368:	48 89 cf             	mov    %rcx,%rdi
   1f36b:	e8 83 e3 fe ff       	callq  d6f3 <transparent_crc>
   1f370:	8b 05 de 6f 00 00    	mov    0x6fde(%rip),%eax        # 26354 <g_2794>
   1f376:	89 c1                	mov    %eax,%ecx
   1f378:	8b 45 fc             	mov    -0x4(%rbp),%eax
   1f37b:	89 c2                	mov    %eax,%edx
   1f37d:	48 8d 35 49 32 00 00 	lea    0x3249(%rip),%rsi        # 225cd <g_2708+0x2345>
   1f384:	48 89 cf             	mov    %rcx,%rdi
   1f387:	e8 67 e3 fe ff       	callq  d6f3 <transparent_crc>
   1f38c:	8b 05 c6 6f 00 00    	mov    0x6fc6(%rip),%eax        # 26358 <g_2795>
   1f392:	89 c1                	mov    %eax,%ecx
   1f394:	8b 45 fc             	mov    -0x4(%rbp),%eax
   1f397:	89 c2                	mov    %eax,%edx
   1f399:	48 8d 35 34 32 00 00 	lea    0x3234(%rip),%rsi        # 225d4 <g_2708+0x234c>
   1f3a0:	48 89 cf             	mov    %rcx,%rdi
   1f3a3:	e8 4b e3 fe ff       	callq  d6f3 <transparent_crc>
   1f3a8:	0f b7 05 ad 6f 00 00 	movzwl 0x6fad(%rip),%eax        # 2635c <g_2856>
   1f3af:	0f b7 c0             	movzwl %ax,%eax
   1f3b2:	8b 55 fc             	mov    -0x4(%rbp),%edx
   1f3b5:	48 8d 35 1f 32 00 00 	lea    0x321f(%rip),%rsi        # 225db <g_2708+0x2353>
   1f3bc:	48 89 c7             	mov    %rax,%rdi
   1f3bf:	e8 2f e3 fe ff       	callq  d6f3 <transparent_crc>
   1f3c4:	48 8b 05 95 6f 00 00 	mov    0x6f95(%rip),%rax        # 26360 <g_2916>
   1f3cb:	48 89 c1             	mov    %rax,%rcx
   1f3ce:	8b 45 fc             	mov    -0x4(%rbp),%eax
   1f3d1:	89 c2                	mov    %eax,%edx
   1f3d3:	48 8d 35 08 32 00 00 	lea    0x3208(%rip),%rsi        # 225e2 <g_2708+0x235a>
   1f3da:	48 89 cf             	mov    %rcx,%rdi
   1f3dd:	e8 11 e3 fe ff       	callq  d6f3 <transparent_crc>
   1f3e2:	8b 05 50 bb 00 00    	mov    0xbb50(%rip),%eax        # 2af38 <g_3291>
   1f3e8:	48 98                	cltq   
   1f3ea:	8b 55 fc             	mov    -0x4(%rbp),%edx
   1f3ed:	48 8d 35 f5 31 00 00 	lea    0x31f5(%rip),%rsi        # 225e9 <g_2708+0x2361>
   1f3f4:	48 89 c7             	mov    %rax,%rdi
   1f3f7:	e8 f7 e2 fe ff       	callq  d6f3 <transparent_crc>
   1f3fc:	0f b7 05 39 bb 00 00 	movzwl 0xbb39(%rip),%eax        # 2af3c <g_3543>
   1f403:	0f b7 c0             	movzwl %ax,%eax
   1f406:	8b 55 fc             	mov    -0x4(%rbp),%edx
   1f409:	48 8d 35 e0 31 00 00 	lea    0x31e0(%rip),%rsi        # 225f0 <g_2708+0x2368>
   1f410:	48 89 c7             	mov    %rax,%rdi
   1f413:	e8 db e2 fe ff       	callq  d6f3 <transparent_crc>
   1f418:	48 8b 05 49 6f 00 00 	mov    0x6f49(%rip),%rax        # 26368 <g_3646>
   1f41f:	8b 55 fc             	mov    -0x4(%rbp),%edx
   1f422:	48 8d 35 ce 31 00 00 	lea    0x31ce(%rip),%rsi        # 225f7 <g_2708+0x236f>
   1f429:	48 89 c7             	mov    %rax,%rdi
   1f42c:	e8 c2 e2 fe ff       	callq  d6f3 <transparent_crc>
   1f431:	0f b7 05 06 bb 00 00 	movzwl 0xbb06(%rip),%eax        # 2af3e <g_3654>
   1f438:	0f b7 c0             	movzwl %ax,%eax
   1f43b:	8b 55 fc             	mov    -0x4(%rbp),%edx
   1f43e:	48 8d 35 b9 31 00 00 	lea    0x31b9(%rip),%rsi        # 225fe <g_2708+0x2376>
   1f445:	48 89 c7             	mov    %rax,%rdi
   1f448:	e8 a6 e2 fe ff       	callq  d6f3 <transparent_crc>
   1f44d:	8b 05 1d 6f 00 00    	mov    0x6f1d(%rip),%eax        # 26370 <g_3751>
   1f453:	89 c1                	mov    %eax,%ecx
   1f455:	8b 45 fc             	mov    -0x4(%rbp),%eax
   1f458:	89 c2                	mov    %eax,%edx
   1f45a:	48 8d 35 a4 31 00 00 	lea    0x31a4(%rip),%rsi        # 22605 <g_2708+0x237d>
   1f461:	48 89 cf             	mov    %rcx,%rdi
   1f464:	e8 8a e2 fe ff       	callq  d6f3 <transparent_crc>
   1f469:	48 8b 05 08 6f 00 00 	mov    0x6f08(%rip),%rax        # 26378 <g_3796>
   1f470:	8b 55 fc             	mov    -0x4(%rbp),%edx
   1f473:	48 8d 35 92 31 00 00 	lea    0x3192(%rip),%rsi        # 2260c <g_2708+0x2384>
   1f47a:	48 89 c7             	mov    %rax,%rdi
   1f47d:	e8 71 e2 fe ff       	callq  d6f3 <transparent_crc>
   1f482:	48 8b 05 f7 6e 00 00 	mov    0x6ef7(%rip),%rax        # 26380 <g_3810>
   1f489:	48 89 c1             	mov    %rax,%rcx
   1f48c:	8b 45 fc             	mov    -0x4(%rbp),%eax
   1f48f:	89 c2                	mov    %eax,%edx
   1f491:	48 8d 35 7b 31 00 00 	lea    0x317b(%rip),%rsi        # 22613 <g_2708+0x238b>
   1f498:	48 89 cf             	mov    %rcx,%rdi
   1f49b:	e8 53 e2 fe ff       	callq  d6f3 <transparent_crc>
   1f4a0:	8b 05 e2 6e 00 00    	mov    0x6ee2(%rip),%eax        # 26388 <g_3985>
   1f4a6:	89 c1                	mov    %eax,%ecx
   1f4a8:	8b 45 fc             	mov    -0x4(%rbp),%eax
   1f4ab:	89 c2                	mov    %eax,%edx
   1f4ad:	48 8d 35 66 31 00 00 	lea    0x3166(%rip),%rsi        # 2261a <g_2708+0x2392>
   1f4b4:	48 89 cf             	mov    %rcx,%rdi
   1f4b7:	e8 37 e2 fe ff       	callq  d6f3 <transparent_crc>
   1f4bc:	0f b6 05 c9 6e 00 00 	movzbl 0x6ec9(%rip),%eax        # 2638c <g_4062>
   1f4c3:	0f b6 c0             	movzbl %al,%eax
   1f4c6:	8b 55 fc             	mov    -0x4(%rbp),%edx
   1f4c9:	48 8d 35 51 31 00 00 	lea    0x3151(%rip),%rsi        # 22621 <g_2708+0x2399>
   1f4d0:	48 89 c7             	mov    %rax,%rdi
   1f4d3:	e8 1b e2 fe ff       	callq  d6f3 <transparent_crc>
   1f4d8:	0f b7 05 af 6e 00 00 	movzwl 0x6eaf(%rip),%eax        # 2638e <g_4103>
   1f4df:	0f b7 c0             	movzwl %ax,%eax
   1f4e2:	8b 55 fc             	mov    -0x4(%rbp),%edx
   1f4e5:	48 8d 35 3c 31 00 00 	lea    0x313c(%rip),%rsi        # 22628 <g_2708+0x23a0>
   1f4ec:	48 89 c7             	mov    %rax,%rdi
   1f4ef:	e8 ff e1 fe ff       	callq  d6f3 <transparent_crc>
   1f4f4:	8b 05 96 6e 00 00    	mov    0x6e96(%rip),%eax        # 26390 <g_4134>
   1f4fa:	48 98                	cltq   
   1f4fc:	8b 55 fc             	mov    -0x4(%rbp),%edx
   1f4ff:	48 8d 35 29 31 00 00 	lea    0x3129(%rip),%rsi        # 2262f <g_2708+0x23a7>
   1f506:	48 89 c7             	mov    %rax,%rdi
   1f509:	e8 e5 e1 fe ff       	callq  d6f3 <transparent_crc>
   1f50e:	0f b6 05 3b ba 00 00 	movzbl 0xba3b(%rip),%eax        # 2af50 <g_4163>
   1f515:	0f b6 c0             	movzbl %al,%eax
   1f518:	8b 55 fc             	mov    -0x4(%rbp),%edx
   1f51b:	48 8d 35 14 31 00 00 	lea    0x3114(%rip),%rsi        # 22636 <g_2708+0x23ae>
   1f522:	48 89 c7             	mov    %rax,%rdi
   1f525:	e8 c9 e1 fe ff       	callq  d6f3 <transparent_crc>
   1f52a:	c7 45 f0 00 00 00 00 	movl   $0x0,-0x10(%rbp)
   1f531:	eb 4a                	jmp    1f57d <main+0xceb>
   1f533:	8b 45 f0             	mov    -0x10(%rbp),%eax
   1f536:	48 98                	cltq   
   1f538:	48 8d 14 c5 00 00 00 	lea    0x0(,%rax,8),%rdx
   1f53f:	00 
   1f540:	48 8d 05 51 6e 00 00 	lea    0x6e51(%rip),%rax        # 26398 <g_4247>
   1f547:	48 8b 04 02          	mov    (%rdx,%rax,1),%rax
   1f54b:	8b 55 fc             	mov    -0x4(%rbp),%edx
   1f54e:	48 8d 35 e8 30 00 00 	lea    0x30e8(%rip),%rsi        # 2263d <g_2708+0x23b5>
   1f555:	48 89 c7             	mov    %rax,%rdi
   1f558:	e8 96 e1 fe ff       	callq  d6f3 <transparent_crc>
   1f55d:	83 7d fc 00          	cmpl   $0x0,-0x4(%rbp)
   1f561:	74 16                	je     1f579 <main+0xce7>
   1f563:	8b 45 f0             	mov    -0x10(%rbp),%eax
   1f566:	89 c6                	mov    %eax,%esi
   1f568:	48 8d 3d a0 2e 00 00 	lea    0x2ea0(%rip),%rdi        # 2240f <g_2708+0x2187>
   1f56f:	b8 00 00 00 00       	mov    $0x0,%eax
   1f574:	e8 07 cb fe ff       	callq  c080 <printf@plt>
   1f579:	83 45 f0 01          	addl   $0x1,-0x10(%rbp)
   1f57d:	83 7d f0 00          	cmpl   $0x0,-0x10(%rbp)
   1f581:	7e b0                	jle    1f533 <main+0xca1>
   1f583:	48 8b 05 16 6e 00 00 	mov    0x6e16(%rip),%rax        # 263a0 <g_4307>
   1f58a:	48 89 c1             	mov    %rax,%rcx
   1f58d:	8b 45 fc             	mov    -0x4(%rbp),%eax
   1f590:	89 c2                	mov    %eax,%edx
   1f592:	48 8d 35 ae 30 00 00 	lea    0x30ae(%rip),%rsi        # 22647 <g_2708+0x23bf>
   1f599:	48 89 cf             	mov    %rcx,%rdi
   1f59c:	e8 52 e1 fe ff       	callq  d6f3 <transparent_crc>
   1f5a1:	c7 45 f0 00 00 00 00 	movl   $0x0,-0x10(%rbp)
   1f5a8:	eb 4d                	jmp    1f5f7 <main+0xd65>
   1f5aa:	8b 45 f0             	mov    -0x10(%rbp),%eax
   1f5ad:	48 98                	cltq   
   1f5af:	48 8d 14 85 00 00 00 	lea    0x0(,%rax,4),%rdx
   1f5b6:	00 
   1f5b7:	48 8d 05 02 6e 00 00 	lea    0x6e02(%rip),%rax        # 263c0 <g_4404>
   1f5be:	8b 04 02             	mov    (%rdx,%rax,1),%eax
   1f5c1:	89 c1                	mov    %eax,%ecx
   1f5c3:	8b 45 fc             	mov    -0x4(%rbp),%eax
   1f5c6:	89 c2                	mov    %eax,%edx
   1f5c8:	48 8d 35 7f 30 00 00 	lea    0x307f(%rip),%rsi        # 2264e <g_2708+0x23c6>
   1f5cf:	48 89 cf             	mov    %rcx,%rdi
   1f5d2:	e8 1c e1 fe ff       	callq  d6f3 <transparent_crc>
   1f5d7:	83 7d fc 00          	cmpl   $0x0,-0x4(%rbp)
   1f5db:	74 16                	je     1f5f3 <main+0xd61>
   1f5dd:	8b 45 f0             	mov    -0x10(%rbp),%eax
   1f5e0:	89 c6                	mov    %eax,%esi
   1f5e2:	48 8d 3d 26 2e 00 00 	lea    0x2e26(%rip),%rdi        # 2240f <g_2708+0x2187>
   1f5e9:	b8 00 00 00 00       	mov    $0x0,%eax
   1f5ee:	e8 8d ca fe ff       	callq  c080 <printf@plt>
   1f5f3:	83 45 f0 01          	addl   $0x1,-0x10(%rbp)
   1f5f7:	83 7d f0 07          	cmpl   $0x7,-0x10(%rbp)
   1f5fb:	7e ad                	jle    1f5aa <main+0xd18>
   1f5fd:	c7 45 f0 00 00 00 00 	movl   $0x0,-0x10(%rbp)
   1f604:	eb 4d                	jmp    1f653 <main+0xdc1>
   1f606:	8b 45 f0             	mov    -0x10(%rbp),%eax
   1f609:	48 98                	cltq   
   1f60b:	48 8d 14 85 00 00 00 	lea    0x0(,%rax,4),%rdx
   1f612:	00 
   1f613:	48 8d 05 c6 6d 00 00 	lea    0x6dc6(%rip),%rax        # 263e0 <g_4408>
   1f61a:	8b 04 02             	mov    (%rdx,%rax,1),%eax
   1f61d:	89 c1                	mov    %eax,%ecx
   1f61f:	8b 45 fc             	mov    -0x4(%rbp),%eax
   1f622:	89 c2                	mov    %eax,%edx
   1f624:	48 8d 35 2d 30 00 00 	lea    0x302d(%rip),%rsi        # 22658 <g_2708+0x23d0>
   1f62b:	48 89 cf             	mov    %rcx,%rdi
   1f62e:	e8 c0 e0 fe ff       	callq  d6f3 <transparent_crc>
   1f633:	83 7d fc 00          	cmpl   $0x0,-0x4(%rbp)
   1f637:	74 16                	je     1f64f <main+0xdbd>
   1f639:	8b 45 f0             	mov    -0x10(%rbp),%eax
   1f63c:	89 c6                	mov    %eax,%esi
   1f63e:	48 8d 3d ca 2d 00 00 	lea    0x2dca(%rip),%rdi        # 2240f <g_2708+0x2187>
   1f645:	b8 00 00 00 00       	mov    $0x0,%eax
   1f64a:	e8 31 ca fe ff       	callq  c080 <printf@plt>
   1f64f:	83 45 f0 01          	addl   $0x1,-0x10(%rbp)
   1f653:	83 7d f0 04          	cmpl   $0x4,-0x10(%rbp)
   1f657:	7e ad                	jle    1f606 <main+0xd74>
   1f659:	8b 05 c1 69 00 00    	mov    0x69c1(%rip),%eax        # 26020 <crc32_context>
   1f65f:	f7 d0                	not    %eax
   1f661:	89 c2                	mov    %eax,%edx
   1f663:	8b 45 fc             	mov    -0x4(%rbp),%eax
   1f666:	89 c6                	mov    %eax,%esi
   1f668:	89 d7                	mov    %edx,%edi
   1f66a:	e8 25 cb fe ff       	callq  c194 <platform_main_end>
   1f66f:	b8 00 00 00 00       	mov    $0x0,%eax
   1f674:	c9                   	leaveq 
   1f675:	c3                   	retq   
   1f676:	66 2e 0f 1f 84 00 00 	nopw   %cs:0x0(%rax,%rax,1)
   1f67d:	00 00 00 

000000000001f680 <__libc_csu_init>:
   1f680:	f3 0f 1e fa          	endbr64 
   1f684:	41 57                	push   %r15
   1f686:	4c 8d 3d c3 5e 00 00 	lea    0x5ec3(%rip),%r15        # 25550 <__frame_dummy_init_array_entry>
   1f68d:	41 56                	push   %r14
   1f68f:	49 89 d6             	mov    %rdx,%r14
   1f692:	41 55                	push   %r13
   1f694:	49 89 f5             	mov    %rsi,%r13
   1f697:	41 54                	push   %r12
   1f699:	41 89 fc             	mov    %edi,%r12d
   1f69c:	55                   	push   %rbp
   1f69d:	48 8d 2d b4 5e 00 00 	lea    0x5eb4(%rip),%rbp        # 25558 <__do_global_dtors_aux_fini_array_entry>
   1f6a4:	53                   	push   %rbx
   1f6a5:	4c 29 fd             	sub    %r15,%rbp
   1f6a8:	48 83 ec 08          	sub    $0x8,%rsp
   1f6ac:	e8 4f c9 fe ff       	callq  c000 <_init>
   1f6b1:	48 c1 fd 03          	sar    $0x3,%rbp
   1f6b5:	74 1f                	je     1f6d6 <__libc_csu_init+0x56>
   1f6b7:	31 db                	xor    %ebx,%ebx
   1f6b9:	0f 1f 80 00 00 00 00 	nopl   0x0(%rax)
   1f6c0:	4c 89 f2             	mov    %r14,%rdx
   1f6c3:	4c 89 ee             	mov    %r13,%rsi
   1f6c6:	44 89 e7             	mov    %r12d,%edi
   1f6c9:	41 ff 14 df          	callq  *(%r15,%rbx,8)
   1f6cd:	48 83 c3 01          	add    $0x1,%rbx
   1f6d1:	48 39 dd             	cmp    %rbx,%rbp
   1f6d4:	75 ea                	jne    1f6c0 <__libc_csu_init+0x40>
   1f6d6:	48 83 c4 08          	add    $0x8,%rsp
   1f6da:	5b                   	pop    %rbx
   1f6db:	5d                   	pop    %rbp
   1f6dc:	41 5c                	pop    %r12
   1f6de:	41 5d                	pop    %r13
   1f6e0:	41 5e                	pop    %r14
   1f6e2:	41 5f                	pop    %r15
   1f6e4:	c3                   	retq   
   1f6e5:	66 66 2e 0f 1f 84 00 	data16 nopw %cs:0x0(%rax,%rax,1)
   1f6ec:	00 00 00 00 

000000000001f6f0 <__libc_csu_fini>:
   1f6f0:	f3 0f 1e fa          	endbr64 
   1f6f4:	c3                   	retq   
