


Disassembly of section .text:

00000000000040a0 <_start>:
    40a0:	f3 0f 1e fa          	endbr64 
    40a4:	31 ed                	xor    %ebp,%ebp
    40a6:	49 89 d1             	mov    %rdx,%r9
    40a9:	5e                   	pop    %rsi
    40aa:	48 89 e2             	mov    %rsp,%rdx
    40ad:	48 83 e4 f0          	and    $0xfffffffffffffff0,%rsp
    40b1:	50                   	push   %rax
    40b2:	54                   	push   %rsp
    40b3:	4c 8d 05 56 64 00 00 	lea    0x6456(%rip),%r8        # a510 <__libc_csu_fini>
    40ba:	48 8d 0d df 63 00 00 	lea    0x63df(%rip),%rcx        # a4a0 <__libc_csu_init>
    40c1:	48 8d 3d f5 5b 00 00 	lea    0x5bf5(%rip),%rdi        # 9cbd <main>
    40c8:	ff 15 0a 9f 00 00    	callq  *0x9f0a(%rip)        # dfd8 <__libc_start_main@GLIBC_2.2.5>
    40ce:	f4                   	hlt    
    40cf:	90                   	nop

00000000000040d0 <deregister_tm_clones>:
    40d0:	48 8d 3d a9 b6 00 00 	lea    0xb6a9(%rip),%rdi        # f780 <__TMC_END__>
    40d7:	48 8d 05 a2 b6 00 00 	lea    0xb6a2(%rip),%rax        # f780 <__TMC_END__>
    40de:	48 39 f8             	cmp    %rdi,%rax
    40e1:	74 15                	je     40f8 <deregister_tm_clones+0x28>
    40e3:	48 8b 05 e6 9e 00 00 	mov    0x9ee6(%rip),%rax        # dfd0 <_ITM_deregisterTMCloneTable>
    40ea:	48 85 c0             	test   %rax,%rax
    40ed:	74 09                	je     40f8 <deregister_tm_clones+0x28>
    40ef:	ff e0                	jmpq   *%rax
    40f1:	0f 1f 80 00 00 00 00 	nopl   0x0(%rax)
    40f8:	c3                   	retq   
    40f9:	0f 1f 80 00 00 00 00 	nopl   0x0(%rax)

0000000000004100 <register_tm_clones>:
    4100:	48 8d 3d 79 b6 00 00 	lea    0xb679(%rip),%rdi        # f780 <__TMC_END__>
    4107:	48 8d 35 72 b6 00 00 	lea    0xb672(%rip),%rsi        # f780 <__TMC_END__>
    410e:	48 29 fe             	sub    %rdi,%rsi
    4111:	48 89 f0             	mov    %rsi,%rax
    4114:	48 c1 ee 3f          	shr    $0x3f,%rsi
    4118:	48 c1 f8 03          	sar    $0x3,%rax
    411c:	48 01 c6             	add    %rax,%rsi
    411f:	48 d1 fe             	sar    %rsi
    4122:	74 14                	je     4138 <register_tm_clones+0x38>
    4124:	48 8b 05 bd 9e 00 00 	mov    0x9ebd(%rip),%rax        # dfe8 <_ITM_registerTMCloneTable>
    412b:	48 85 c0             	test   %rax,%rax
    412e:	74 08                	je     4138 <register_tm_clones+0x38>
    4130:	ff e0                	jmpq   *%rax
    4132:	66 0f 1f 44 00 00    	nopw   0x0(%rax,%rax,1)
    4138:	c3                   	retq   
    4139:	0f 1f 80 00 00 00 00 	nopl   0x0(%rax)

0000000000004140 <__do_global_dtors_aux>:
    4140:	f3 0f 1e fa          	endbr64 
    4144:	80 3d 35 b6 00 00 00 	cmpb   $0x0,0xb635(%rip)        # f780 <__TMC_END__>
    414b:	75 2b                	jne    4178 <__do_global_dtors_aux+0x38>
    414d:	55                   	push   %rbp
    414e:	48 83 3d 9a 9e 00 00 	cmpq   $0x0,0x9e9a(%rip)        # dff0 <__cxa_finalize@GLIBC_2.2.5>
    4155:	00 
    4156:	48 89 e5             	mov    %rsp,%rbp
    4159:	74 0c                	je     4167 <__do_global_dtors_aux+0x27>
    415b:	48 8b 3d a6 9e 00 00 	mov    0x9ea6(%rip),%rdi        # e008 <__dso_handle>
    4162:	e8 f9 fe ff ff       	callq  4060 <__cxa_finalize@plt>
    4167:	e8 64 ff ff ff       	callq  40d0 <deregister_tm_clones>
    416c:	c6 05 0d b6 00 00 01 	movb   $0x1,0xb60d(%rip)        # f780 <__TMC_END__>
    4173:	5d                   	pop    %rbp
    4174:	c3                   	retq   
    4175:	0f 1f 00             	nopl   (%rax)
    4178:	c3                   	retq   
    4179:	0f 1f 80 00 00 00 00 	nopl   0x0(%rax)

0000000000004180 <frame_dummy>:
    4180:	f3 0f 1e fa          	endbr64 
    4184:	e9 77 ff ff ff       	jmpq   4100 <register_tm_clones>

0000000000004189 <platform_main_begin>:
    4189:	f3 0f 1e fa          	endbr64 
    418d:	55                   	push   %rbp
    418e:	48 89 e5             	mov    %rsp,%rbp
    4191:	90                   	nop
    4192:	5d                   	pop    %rbp
    4193:	c3                   	retq   

0000000000004194 <platform_main_end>:
    4194:	f3 0f 1e fa          	endbr64 
    4198:	55                   	push   %rbp
    4199:	48 89 e5             	mov    %rsp,%rbp
    419c:	48 83 ec 10          	sub    $0x10,%rsp
    41a0:	89 7d fc             	mov    %edi,-0x4(%rbp)
    41a3:	89 75 f8             	mov    %esi,-0x8(%rbp)
    41a6:	8b 45 fc             	mov    -0x4(%rbp),%eax
    41a9:	89 c6                	mov    %eax,%esi
    41ab:	48 8d 3d 6e 6e 00 00 	lea    0x6e6e(%rip),%rdi        # b020 <_IO_stdin_used+0x20>
    41b2:	b8 00 00 00 00       	mov    $0x0,%eax
    41b7:	e8 c4 fe ff ff       	callq  4080 <printf@plt>
    41bc:	90                   	nop
    41bd:	c9                   	leaveq 
    41be:	c3                   	retq   

00000000000041bf <safe_unary_minus_func_int8_t_s>:
    41bf:	f3 0f 1e fa          	endbr64 
    41c3:	55                   	push   %rbp
    41c4:	48 89 e5             	mov    %rsp,%rbp
    41c7:	89 f8                	mov    %edi,%eax
    41c9:	88 45 fc             	mov    %al,-0x4(%rbp)
    41cc:	0f b6 45 fc          	movzbl -0x4(%rbp),%eax
    41d0:	f7 d8                	neg    %eax
    41d2:	5d                   	pop    %rbp
    41d3:	c3                   	retq   

00000000000041d4 <safe_add_func_int8_t_s_s>:
    41d4:	f3 0f 1e fa          	endbr64 
    41d8:	55                   	push   %rbp
    41d9:	48 89 e5             	mov    %rsp,%rbp
    41dc:	89 fa                	mov    %edi,%edx
    41de:	89 f0                	mov    %esi,%eax
    41e0:	88 55 fc             	mov    %dl,-0x4(%rbp)
    41e3:	88 45 f8             	mov    %al,-0x8(%rbp)
    41e6:	0f b6 55 fc          	movzbl -0x4(%rbp),%edx
    41ea:	0f b6 45 f8          	movzbl -0x8(%rbp),%eax
    41ee:	01 d0                	add    %edx,%eax
    41f0:	5d                   	pop    %rbp
    41f1:	c3                   	retq   

00000000000041f2 <safe_sub_func_int8_t_s_s>:
    41f2:	f3 0f 1e fa          	endbr64 
    41f6:	55                   	push   %rbp
    41f7:	48 89 e5             	mov    %rsp,%rbp
    41fa:	89 fa                	mov    %edi,%edx
    41fc:	89 f0                	mov    %esi,%eax
    41fe:	88 55 fc             	mov    %dl,-0x4(%rbp)
    4201:	88 45 f8             	mov    %al,-0x8(%rbp)
    4204:	0f b6 55 fc          	movzbl -0x4(%rbp),%edx
    4208:	0f b6 45 f8          	movzbl -0x8(%rbp),%eax
    420c:	29 c2                	sub    %eax,%edx
    420e:	89 d0                	mov    %edx,%eax
    4210:	5d                   	pop    %rbp
    4211:	c3                   	retq   

0000000000004212 <safe_mul_func_int8_t_s_s>:
    4212:	f3 0f 1e fa          	endbr64 
    4216:	55                   	push   %rbp
    4217:	48 89 e5             	mov    %rsp,%rbp
    421a:	89 fa                	mov    %edi,%edx
    421c:	89 f0                	mov    %esi,%eax
    421e:	88 55 fc             	mov    %dl,-0x4(%rbp)
    4221:	88 45 f8             	mov    %al,-0x8(%rbp)
    4224:	0f b6 45 fc          	movzbl -0x4(%rbp),%eax
    4228:	0f b6 55 f8          	movzbl -0x8(%rbp),%edx
    422c:	0f af c2             	imul   %edx,%eax
    422f:	5d                   	pop    %rbp
    4230:	c3                   	retq   

0000000000004231 <safe_mod_func_int8_t_s_s>:
    4231:	f3 0f 1e fa          	endbr64 
    4235:	55                   	push   %rbp
    4236:	48 89 e5             	mov    %rsp,%rbp
    4239:	89 fa                	mov    %edi,%edx
    423b:	89 f0                	mov    %esi,%eax
    423d:	88 55 fc             	mov    %dl,-0x4(%rbp)
    4240:	88 45 f8             	mov    %al,-0x8(%rbp)
    4243:	80 7d f8 00          	cmpb   $0x0,-0x8(%rbp)
    4247:	74 1b                	je     4264 <safe_mod_func_int8_t_s_s+0x33>
    4249:	80 7d fc 80          	cmpb   $0x80,-0x4(%rbp)
    424d:	75 06                	jne    4255 <safe_mod_func_int8_t_s_s+0x24>
    424f:	80 7d f8 ff          	cmpb   $0xff,-0x8(%rbp)
    4253:	74 0f                	je     4264 <safe_mod_func_int8_t_s_s+0x33>
    4255:	0f be 45 fc          	movsbl -0x4(%rbp),%eax
    4259:	0f be 4d f8          	movsbl -0x8(%rbp),%ecx
    425d:	99                   	cltd   
    425e:	f7 f9                	idiv   %ecx
    4260:	89 d0                	mov    %edx,%eax
    4262:	eb 04                	jmp    4268 <safe_mod_func_int8_t_s_s+0x37>
    4264:	0f b6 45 fc          	movzbl -0x4(%rbp),%eax
    4268:	5d                   	pop    %rbp
    4269:	c3                   	retq   

000000000000426a <safe_div_func_int8_t_s_s>:
    426a:	f3 0f 1e fa          	endbr64 
    426e:	55                   	push   %rbp
    426f:	48 89 e5             	mov    %rsp,%rbp
    4272:	89 fa                	mov    %edi,%edx
    4274:	89 f0                	mov    %esi,%eax
    4276:	88 55 fc             	mov    %dl,-0x4(%rbp)
    4279:	88 45 f8             	mov    %al,-0x8(%rbp)
    427c:	80 7d f8 00          	cmpb   $0x0,-0x8(%rbp)
    4280:	74 19                	je     429b <safe_div_func_int8_t_s_s+0x31>
    4282:	80 7d fc 80          	cmpb   $0x80,-0x4(%rbp)
    4286:	75 06                	jne    428e <safe_div_func_int8_t_s_s+0x24>
    4288:	80 7d f8 ff          	cmpb   $0xff,-0x8(%rbp)
    428c:	74 0d                	je     429b <safe_div_func_int8_t_s_s+0x31>
    428e:	0f be 45 fc          	movsbl -0x4(%rbp),%eax
    4292:	0f be 4d f8          	movsbl -0x8(%rbp),%ecx
    4296:	99                   	cltd   
    4297:	f7 f9                	idiv   %ecx
    4299:	eb 04                	jmp    429f <safe_div_func_int8_t_s_s+0x35>
    429b:	0f b6 45 fc          	movzbl -0x4(%rbp),%eax
    429f:	5d                   	pop    %rbp
    42a0:	c3                   	retq   

00000000000042a1 <safe_lshift_func_int8_t_s_s>:
    42a1:	f3 0f 1e fa          	endbr64 
    42a5:	55                   	push   %rbp
    42a6:	48 89 e5             	mov    %rsp,%rbp
    42a9:	89 f8                	mov    %edi,%eax
    42ab:	89 75 f8             	mov    %esi,-0x8(%rbp)
    42ae:	88 45 fc             	mov    %al,-0x4(%rbp)
    42b1:	80 7d fc 00          	cmpb   $0x0,-0x4(%rbp)
    42b5:	78 31                	js     42e8 <safe_lshift_func_int8_t_s_s+0x47>
    42b7:	83 7d f8 00          	cmpl   $0x0,-0x8(%rbp)
    42bb:	78 2b                	js     42e8 <safe_lshift_func_int8_t_s_s+0x47>
    42bd:	83 7d f8 1f          	cmpl   $0x1f,-0x8(%rbp)
    42c1:	7f 25                	jg     42e8 <safe_lshift_func_int8_t_s_s+0x47>
    42c3:	0f be 55 fc          	movsbl -0x4(%rbp),%edx
    42c7:	8b 45 f8             	mov    -0x8(%rbp),%eax
    42ca:	be 7f 00 00 00       	mov    $0x7f,%esi
    42cf:	89 c1                	mov    %eax,%ecx
    42d1:	d3 fe                	sar    %cl,%esi
    42d3:	89 f0                	mov    %esi,%eax
    42d5:	39 c2                	cmp    %eax,%edx
    42d7:	7f 0f                	jg     42e8 <safe_lshift_func_int8_t_s_s+0x47>
    42d9:	0f be 55 fc          	movsbl -0x4(%rbp),%edx
    42dd:	8b 45 f8             	mov    -0x8(%rbp),%eax
    42e0:	89 c1                	mov    %eax,%ecx
    42e2:	d3 e2                	shl    %cl,%edx
    42e4:	89 d0                	mov    %edx,%eax
    42e6:	eb 04                	jmp    42ec <safe_lshift_func_int8_t_s_s+0x4b>
    42e8:	0f b6 45 fc          	movzbl -0x4(%rbp),%eax
    42ec:	5d                   	pop    %rbp
    42ed:	c3                   	retq   

00000000000042ee <safe_lshift_func_int8_t_s_u>:
    42ee:	f3 0f 1e fa          	endbr64 
    42f2:	55                   	push   %rbp
    42f3:	48 89 e5             	mov    %rsp,%rbp
    42f6:	89 f8                	mov    %edi,%eax
    42f8:	89 75 f8             	mov    %esi,-0x8(%rbp)
    42fb:	88 45 fc             	mov    %al,-0x4(%rbp)
    42fe:	80 7d fc 00          	cmpb   $0x0,-0x4(%rbp)
    4302:	78 2b                	js     432f <safe_lshift_func_int8_t_s_u+0x41>
    4304:	83 7d f8 1f          	cmpl   $0x1f,-0x8(%rbp)
    4308:	77 25                	ja     432f <safe_lshift_func_int8_t_s_u+0x41>
    430a:	0f be 55 fc          	movsbl -0x4(%rbp),%edx
    430e:	8b 45 f8             	mov    -0x8(%rbp),%eax
    4311:	be 7f 00 00 00       	mov    $0x7f,%esi
    4316:	89 c1                	mov    %eax,%ecx
    4318:	d3 fe                	sar    %cl,%esi
    431a:	89 f0                	mov    %esi,%eax
    431c:	39 c2                	cmp    %eax,%edx
    431e:	7f 0f                	jg     432f <safe_lshift_func_int8_t_s_u+0x41>
    4320:	0f be 55 fc          	movsbl -0x4(%rbp),%edx
    4324:	8b 45 f8             	mov    -0x8(%rbp),%eax
    4327:	89 c1                	mov    %eax,%ecx
    4329:	d3 e2                	shl    %cl,%edx
    432b:	89 d0                	mov    %edx,%eax
    432d:	eb 04                	jmp    4333 <safe_lshift_func_int8_t_s_u+0x45>
    432f:	0f b6 45 fc          	movzbl -0x4(%rbp),%eax
    4333:	5d                   	pop    %rbp
    4334:	c3                   	retq   

0000000000004335 <safe_rshift_func_int8_t_s_s>:
    4335:	f3 0f 1e fa          	endbr64 
    4339:	55                   	push   %rbp
    433a:	48 89 e5             	mov    %rsp,%rbp
    433d:	89 f8                	mov    %edi,%eax
    433f:	89 75 f8             	mov    %esi,-0x8(%rbp)
    4342:	88 45 fc             	mov    %al,-0x4(%rbp)
    4345:	80 7d fc 00          	cmpb   $0x0,-0x4(%rbp)
    4349:	78 1b                	js     4366 <safe_rshift_func_int8_t_s_s+0x31>
    434b:	83 7d f8 00          	cmpl   $0x0,-0x8(%rbp)
    434f:	78 15                	js     4366 <safe_rshift_func_int8_t_s_s+0x31>
    4351:	83 7d f8 1f          	cmpl   $0x1f,-0x8(%rbp)
    4355:	7f 0f                	jg     4366 <safe_rshift_func_int8_t_s_s+0x31>
    4357:	0f be 55 fc          	movsbl -0x4(%rbp),%edx
    435b:	8b 45 f8             	mov    -0x8(%rbp),%eax
    435e:	89 c1                	mov    %eax,%ecx
    4360:	d3 fa                	sar    %cl,%edx
    4362:	89 d0                	mov    %edx,%eax
    4364:	eb 04                	jmp    436a <safe_rshift_func_int8_t_s_s+0x35>
    4366:	0f b6 45 fc          	movzbl -0x4(%rbp),%eax
    436a:	5d                   	pop    %rbp
    436b:	c3                   	retq   

000000000000436c <safe_rshift_func_int8_t_s_u>:
    436c:	f3 0f 1e fa          	endbr64 
    4370:	55                   	push   %rbp
    4371:	48 89 e5             	mov    %rsp,%rbp
    4374:	89 f8                	mov    %edi,%eax
    4376:	89 75 f8             	mov    %esi,-0x8(%rbp)
    4379:	88 45 fc             	mov    %al,-0x4(%rbp)
    437c:	80 7d fc 00          	cmpb   $0x0,-0x4(%rbp)
    4380:	78 15                	js     4397 <safe_rshift_func_int8_t_s_u+0x2b>
    4382:	83 7d f8 1f          	cmpl   $0x1f,-0x8(%rbp)
    4386:	77 0f                	ja     4397 <safe_rshift_func_int8_t_s_u+0x2b>
    4388:	0f be 55 fc          	movsbl -0x4(%rbp),%edx
    438c:	8b 45 f8             	mov    -0x8(%rbp),%eax
    438f:	89 c1                	mov    %eax,%ecx
    4391:	d3 fa                	sar    %cl,%edx
    4393:	89 d0                	mov    %edx,%eax
    4395:	eb 04                	jmp    439b <safe_rshift_func_int8_t_s_u+0x2f>
    4397:	0f b6 45 fc          	movzbl -0x4(%rbp),%eax
    439b:	5d                   	pop    %rbp
    439c:	c3                   	retq   

000000000000439d <safe_unary_minus_func_int16_t_s>:
    439d:	f3 0f 1e fa          	endbr64 
    43a1:	55                   	push   %rbp
    43a2:	48 89 e5             	mov    %rsp,%rbp
    43a5:	89 f8                	mov    %edi,%eax
    43a7:	66 89 45 fc          	mov    %ax,-0x4(%rbp)
    43ab:	0f b7 45 fc          	movzwl -0x4(%rbp),%eax
    43af:	f7 d8                	neg    %eax
    43b1:	5d                   	pop    %rbp
    43b2:	c3                   	retq   

00000000000043b3 <safe_add_func_int16_t_s_s>:
    43b3:	f3 0f 1e fa          	endbr64 
    43b7:	55                   	push   %rbp
    43b8:	48 89 e5             	mov    %rsp,%rbp
    43bb:	89 fa                	mov    %edi,%edx
    43bd:	89 f0                	mov    %esi,%eax
    43bf:	66 89 55 fc          	mov    %dx,-0x4(%rbp)
    43c3:	66 89 45 f8          	mov    %ax,-0x8(%rbp)
    43c7:	0f b7 55 fc          	movzwl -0x4(%rbp),%edx
    43cb:	0f b7 45 f8          	movzwl -0x8(%rbp),%eax
    43cf:	01 d0                	add    %edx,%eax
    43d1:	5d                   	pop    %rbp
    43d2:	c3                   	retq   

00000000000043d3 <safe_sub_func_int16_t_s_s>:
    43d3:	f3 0f 1e fa          	endbr64 
    43d7:	55                   	push   %rbp
    43d8:	48 89 e5             	mov    %rsp,%rbp
    43db:	89 fa                	mov    %edi,%edx
    43dd:	89 f0                	mov    %esi,%eax
    43df:	66 89 55 fc          	mov    %dx,-0x4(%rbp)
    43e3:	66 89 45 f8          	mov    %ax,-0x8(%rbp)
    43e7:	0f b7 55 fc          	movzwl -0x4(%rbp),%edx
    43eb:	0f b7 45 f8          	movzwl -0x8(%rbp),%eax
    43ef:	29 c2                	sub    %eax,%edx
    43f1:	89 d0                	mov    %edx,%eax
    43f3:	5d                   	pop    %rbp
    43f4:	c3                   	retq   

00000000000043f5 <safe_mul_func_int16_t_s_s>:
    43f5:	f3 0f 1e fa          	endbr64 
    43f9:	55                   	push   %rbp
    43fa:	48 89 e5             	mov    %rsp,%rbp
    43fd:	89 fa                	mov    %edi,%edx
    43ff:	89 f0                	mov    %esi,%eax
    4401:	66 89 55 fc          	mov    %dx,-0x4(%rbp)
    4405:	66 89 45 f8          	mov    %ax,-0x8(%rbp)
    4409:	0f b7 55 fc          	movzwl -0x4(%rbp),%edx
    440d:	0f b7 45 f8          	movzwl -0x8(%rbp),%eax
    4411:	0f af c2             	imul   %edx,%eax
    4414:	5d                   	pop    %rbp
    4415:	c3                   	retq   

0000000000004416 <safe_mod_func_int16_t_s_s>:
    4416:	f3 0f 1e fa          	endbr64 
    441a:	55                   	push   %rbp
    441b:	48 89 e5             	mov    %rsp,%rbp
    441e:	89 fa                	mov    %edi,%edx
    4420:	89 f0                	mov    %esi,%eax
    4422:	66 89 55 fc          	mov    %dx,-0x4(%rbp)
    4426:	66 89 45 f8          	mov    %ax,-0x8(%rbp)
    442a:	66 83 7d f8 00       	cmpw   $0x0,-0x8(%rbp)
    442f:	74 1e                	je     444f <safe_mod_func_int16_t_s_s+0x39>
    4431:	66 81 7d fc 00 80    	cmpw   $0x8000,-0x4(%rbp)
    4437:	75 07                	jne    4440 <safe_mod_func_int16_t_s_s+0x2a>
    4439:	66 83 7d f8 ff       	cmpw   $0xffff,-0x8(%rbp)
    443e:	74 0f                	je     444f <safe_mod_func_int16_t_s_s+0x39>
    4440:	0f bf 45 fc          	movswl -0x4(%rbp),%eax
    4444:	0f bf 4d f8          	movswl -0x8(%rbp),%ecx
    4448:	99                   	cltd   
    4449:	f7 f9                	idiv   %ecx
    444b:	89 d0                	mov    %edx,%eax
    444d:	eb 04                	jmp    4453 <safe_mod_func_int16_t_s_s+0x3d>
    444f:	0f b7 45 fc          	movzwl -0x4(%rbp),%eax
    4453:	5d                   	pop    %rbp
    4454:	c3                   	retq   

0000000000004455 <safe_div_func_int16_t_s_s>:
    4455:	f3 0f 1e fa          	endbr64 
    4459:	55                   	push   %rbp
    445a:	48 89 e5             	mov    %rsp,%rbp
    445d:	89 fa                	mov    %edi,%edx
    445f:	89 f0                	mov    %esi,%eax
    4461:	66 89 55 fc          	mov    %dx,-0x4(%rbp)
    4465:	66 89 45 f8          	mov    %ax,-0x8(%rbp)
    4469:	66 83 7d f8 00       	cmpw   $0x0,-0x8(%rbp)
    446e:	74 1c                	je     448c <safe_div_func_int16_t_s_s+0x37>
    4470:	66 81 7d fc 00 80    	cmpw   $0x8000,-0x4(%rbp)
    4476:	75 07                	jne    447f <safe_div_func_int16_t_s_s+0x2a>
    4478:	66 83 7d f8 ff       	cmpw   $0xffff,-0x8(%rbp)
    447d:	74 0d                	je     448c <safe_div_func_int16_t_s_s+0x37>
    447f:	0f bf 45 fc          	movswl -0x4(%rbp),%eax
    4483:	0f bf 4d f8          	movswl -0x8(%rbp),%ecx
    4487:	99                   	cltd   
    4488:	f7 f9                	idiv   %ecx
    448a:	eb 04                	jmp    4490 <safe_div_func_int16_t_s_s+0x3b>
    448c:	0f b7 45 fc          	movzwl -0x4(%rbp),%eax
    4490:	5d                   	pop    %rbp
    4491:	c3                   	retq   

0000000000004492 <safe_lshift_func_int16_t_s_s>:
    4492:	f3 0f 1e fa          	endbr64 
    4496:	55                   	push   %rbp
    4497:	48 89 e5             	mov    %rsp,%rbp
    449a:	89 f8                	mov    %edi,%eax
    449c:	89 75 f8             	mov    %esi,-0x8(%rbp)
    449f:	66 89 45 fc          	mov    %ax,-0x4(%rbp)
    44a3:	66 83 7d fc 00       	cmpw   $0x0,-0x4(%rbp)
    44a8:	78 31                	js     44db <safe_lshift_func_int16_t_s_s+0x49>
    44aa:	83 7d f8 00          	cmpl   $0x0,-0x8(%rbp)
    44ae:	78 2b                	js     44db <safe_lshift_func_int16_t_s_s+0x49>
    44b0:	83 7d f8 1f          	cmpl   $0x1f,-0x8(%rbp)
    44b4:	7f 25                	jg     44db <safe_lshift_func_int16_t_s_s+0x49>
    44b6:	0f bf 55 fc          	movswl -0x4(%rbp),%edx
    44ba:	8b 45 f8             	mov    -0x8(%rbp),%eax
    44bd:	be ff 7f 00 00       	mov    $0x7fff,%esi
    44c2:	89 c1                	mov    %eax,%ecx
    44c4:	d3 fe                	sar    %cl,%esi
    44c6:	89 f0                	mov    %esi,%eax
    44c8:	39 c2                	cmp    %eax,%edx
    44ca:	7f 0f                	jg     44db <safe_lshift_func_int16_t_s_s+0x49>
    44cc:	0f bf 55 fc          	movswl -0x4(%rbp),%edx
    44d0:	8b 45 f8             	mov    -0x8(%rbp),%eax
    44d3:	89 c1                	mov    %eax,%ecx
    44d5:	d3 e2                	shl    %cl,%edx
    44d7:	89 d0                	mov    %edx,%eax
    44d9:	eb 04                	jmp    44df <safe_lshift_func_int16_t_s_s+0x4d>
    44db:	0f b7 45 fc          	movzwl -0x4(%rbp),%eax
    44df:	5d                   	pop    %rbp
    44e0:	c3                   	retq   

00000000000044e1 <safe_lshift_func_int16_t_s_u>:
    44e1:	f3 0f 1e fa          	endbr64 
    44e5:	55                   	push   %rbp
    44e6:	48 89 e5             	mov    %rsp,%rbp
    44e9:	89 f8                	mov    %edi,%eax
    44eb:	89 75 f8             	mov    %esi,-0x8(%rbp)
    44ee:	66 89 45 fc          	mov    %ax,-0x4(%rbp)
    44f2:	66 83 7d fc 00       	cmpw   $0x0,-0x4(%rbp)
    44f7:	78 2b                	js     4524 <safe_lshift_func_int16_t_s_u+0x43>
    44f9:	83 7d f8 1f          	cmpl   $0x1f,-0x8(%rbp)
    44fd:	77 25                	ja     4524 <safe_lshift_func_int16_t_s_u+0x43>
    44ff:	0f bf 55 fc          	movswl -0x4(%rbp),%edx
    4503:	8b 45 f8             	mov    -0x8(%rbp),%eax
    4506:	be ff 7f 00 00       	mov    $0x7fff,%esi
    450b:	89 c1                	mov    %eax,%ecx
    450d:	d3 fe                	sar    %cl,%esi
    450f:	89 f0                	mov    %esi,%eax
    4511:	39 c2                	cmp    %eax,%edx
    4513:	7f 0f                	jg     4524 <safe_lshift_func_int16_t_s_u+0x43>
    4515:	0f bf 55 fc          	movswl -0x4(%rbp),%edx
    4519:	8b 45 f8             	mov    -0x8(%rbp),%eax
    451c:	89 c1                	mov    %eax,%ecx
    451e:	d3 e2                	shl    %cl,%edx
    4520:	89 d0                	mov    %edx,%eax
    4522:	eb 04                	jmp    4528 <safe_lshift_func_int16_t_s_u+0x47>
    4524:	0f b7 45 fc          	movzwl -0x4(%rbp),%eax
    4528:	5d                   	pop    %rbp
    4529:	c3                   	retq   

000000000000452a <safe_rshift_func_int16_t_s_s>:
    452a:	f3 0f 1e fa          	endbr64 
    452e:	55                   	push   %rbp
    452f:	48 89 e5             	mov    %rsp,%rbp
    4532:	89 f8                	mov    %edi,%eax
    4534:	89 75 f8             	mov    %esi,-0x8(%rbp)
    4537:	66 89 45 fc          	mov    %ax,-0x4(%rbp)
    453b:	66 83 7d fc 00       	cmpw   $0x0,-0x4(%rbp)
    4540:	78 1b                	js     455d <safe_rshift_func_int16_t_s_s+0x33>
    4542:	83 7d f8 00          	cmpl   $0x0,-0x8(%rbp)
    4546:	78 15                	js     455d <safe_rshift_func_int16_t_s_s+0x33>
    4548:	83 7d f8 1f          	cmpl   $0x1f,-0x8(%rbp)
    454c:	7f 0f                	jg     455d <safe_rshift_func_int16_t_s_s+0x33>
    454e:	0f bf 55 fc          	movswl -0x4(%rbp),%edx
    4552:	8b 45 f8             	mov    -0x8(%rbp),%eax
    4555:	89 c1                	mov    %eax,%ecx
    4557:	d3 fa                	sar    %cl,%edx
    4559:	89 d0                	mov    %edx,%eax
    455b:	eb 04                	jmp    4561 <safe_rshift_func_int16_t_s_s+0x37>
    455d:	0f b7 45 fc          	movzwl -0x4(%rbp),%eax
    4561:	5d                   	pop    %rbp
    4562:	c3                   	retq   

0000000000004563 <safe_rshift_func_int16_t_s_u>:
    4563:	f3 0f 1e fa          	endbr64 
    4567:	55                   	push   %rbp
    4568:	48 89 e5             	mov    %rsp,%rbp
    456b:	89 f8                	mov    %edi,%eax
    456d:	89 75 f8             	mov    %esi,-0x8(%rbp)
    4570:	66 89 45 fc          	mov    %ax,-0x4(%rbp)
    4574:	66 83 7d fc 00       	cmpw   $0x0,-0x4(%rbp)
    4579:	78 15                	js     4590 <safe_rshift_func_int16_t_s_u+0x2d>
    457b:	83 7d f8 1f          	cmpl   $0x1f,-0x8(%rbp)
    457f:	77 0f                	ja     4590 <safe_rshift_func_int16_t_s_u+0x2d>
    4581:	0f bf 55 fc          	movswl -0x4(%rbp),%edx
    4585:	8b 45 f8             	mov    -0x8(%rbp),%eax
    4588:	89 c1                	mov    %eax,%ecx
    458a:	d3 fa                	sar    %cl,%edx
    458c:	89 d0                	mov    %edx,%eax
    458e:	eb 04                	jmp    4594 <safe_rshift_func_int16_t_s_u+0x31>
    4590:	0f b7 45 fc          	movzwl -0x4(%rbp),%eax
    4594:	5d                   	pop    %rbp
    4595:	c3                   	retq   

0000000000004596 <safe_unary_minus_func_int32_t_s>:
    4596:	f3 0f 1e fa          	endbr64 
    459a:	55                   	push   %rbp
    459b:	48 89 e5             	mov    %rsp,%rbp
    459e:	89 7d fc             	mov    %edi,-0x4(%rbp)
    45a1:	81 7d fc 00 00 00 80 	cmpl   $0x80000000,-0x4(%rbp)
    45a8:	74 07                	je     45b1 <safe_unary_minus_func_int32_t_s+0x1b>
    45aa:	8b 45 fc             	mov    -0x4(%rbp),%eax
    45ad:	f7 d8                	neg    %eax
    45af:	eb 03                	jmp    45b4 <safe_unary_minus_func_int32_t_s+0x1e>
    45b1:	8b 45 fc             	mov    -0x4(%rbp),%eax
    45b4:	5d                   	pop    %rbp
    45b5:	c3                   	retq   

00000000000045b6 <safe_add_func_int32_t_s_s>:
    45b6:	f3 0f 1e fa          	endbr64 
    45ba:	55                   	push   %rbp
    45bb:	48 89 e5             	mov    %rsp,%rbp
    45be:	89 7d fc             	mov    %edi,-0x4(%rbp)
    45c1:	89 75 f8             	mov    %esi,-0x8(%rbp)
    45c4:	83 7d fc 00          	cmpl   $0x0,-0x4(%rbp)
    45c8:	7e 13                	jle    45dd <safe_add_func_int32_t_s_s+0x27>
    45ca:	83 7d f8 00          	cmpl   $0x0,-0x8(%rbp)
    45ce:	7e 0d                	jle    45dd <safe_add_func_int32_t_s_s+0x27>
    45d0:	b8 ff ff ff 7f       	mov    $0x7fffffff,%eax
    45d5:	2b 45 f8             	sub    -0x8(%rbp),%eax
    45d8:	39 45 fc             	cmp    %eax,-0x4(%rbp)
    45db:	7f 23                	jg     4600 <safe_add_func_int32_t_s_s+0x4a>
    45dd:	83 7d fc 00          	cmpl   $0x0,-0x4(%rbp)
    45e1:	79 13                	jns    45f6 <safe_add_func_int32_t_s_s+0x40>
    45e3:	83 7d f8 00          	cmpl   $0x0,-0x8(%rbp)
    45e7:	79 0d                	jns    45f6 <safe_add_func_int32_t_s_s+0x40>
    45e9:	b8 00 00 00 80       	mov    $0x80000000,%eax
    45ee:	2b 45 f8             	sub    -0x8(%rbp),%eax
    45f1:	39 45 fc             	cmp    %eax,-0x4(%rbp)
    45f4:	7c 0a                	jl     4600 <safe_add_func_int32_t_s_s+0x4a>
    45f6:	8b 55 fc             	mov    -0x4(%rbp),%edx
    45f9:	8b 45 f8             	mov    -0x8(%rbp),%eax
    45fc:	01 d0                	add    %edx,%eax
    45fe:	eb 03                	jmp    4603 <safe_add_func_int32_t_s_s+0x4d>
    4600:	8b 45 fc             	mov    -0x4(%rbp),%eax
    4603:	5d                   	pop    %rbp
    4604:	c3                   	retq   

0000000000004605 <safe_sub_func_int32_t_s_s>:
    4605:	f3 0f 1e fa          	endbr64 
    4609:	55                   	push   %rbp
    460a:	48 89 e5             	mov    %rsp,%rbp
    460d:	89 7d fc             	mov    %edi,-0x4(%rbp)
    4610:	89 75 f8             	mov    %esi,-0x8(%rbp)
    4613:	8b 45 fc             	mov    -0x4(%rbp),%eax
    4616:	33 45 f8             	xor    -0x8(%rbp),%eax
    4619:	89 c2                	mov    %eax,%edx
    461b:	8b 45 fc             	mov    -0x4(%rbp),%eax
    461e:	33 45 f8             	xor    -0x8(%rbp),%eax
    4621:	25 00 00 00 80       	and    $0x80000000,%eax
    4626:	33 45 fc             	xor    -0x4(%rbp),%eax
    4629:	2b 45 f8             	sub    -0x8(%rbp),%eax
    462c:	33 45 f8             	xor    -0x8(%rbp),%eax
    462f:	21 d0                	and    %edx,%eax
    4631:	85 c0                	test   %eax,%eax
    4633:	78 08                	js     463d <safe_sub_func_int32_t_s_s+0x38>
    4635:	8b 45 fc             	mov    -0x4(%rbp),%eax
    4638:	2b 45 f8             	sub    -0x8(%rbp),%eax
    463b:	eb 03                	jmp    4640 <safe_sub_func_int32_t_s_s+0x3b>
    463d:	8b 45 fc             	mov    -0x4(%rbp),%eax
    4640:	5d                   	pop    %rbp
    4641:	c3                   	retq   

0000000000004642 <safe_mul_func_int32_t_s_s>:
    4642:	f3 0f 1e fa          	endbr64 
    4646:	55                   	push   %rbp
    4647:	48 89 e5             	mov    %rsp,%rbp
    464a:	89 7d fc             	mov    %edi,-0x4(%rbp)
    464d:	89 75 f8             	mov    %esi,-0x8(%rbp)
    4650:	83 7d fc 00          	cmpl   $0x0,-0x4(%rbp)
    4654:	7e 14                	jle    466a <safe_mul_func_int32_t_s_s+0x28>
    4656:	83 7d f8 00          	cmpl   $0x0,-0x8(%rbp)
    465a:	7e 0e                	jle    466a <safe_mul_func_int32_t_s_s+0x28>
    465c:	b8 ff ff ff 7f       	mov    $0x7fffffff,%eax
    4661:	99                   	cltd   
    4662:	f7 7d f8             	idivl  -0x8(%rbp)
    4665:	39 45 fc             	cmp    %eax,-0x4(%rbp)
    4668:	7f 5d                	jg     46c7 <safe_mul_func_int32_t_s_s+0x85>
    466a:	83 7d fc 00          	cmpl   $0x0,-0x4(%rbp)
    466e:	7e 14                	jle    4684 <safe_mul_func_int32_t_s_s+0x42>
    4670:	83 7d f8 00          	cmpl   $0x0,-0x8(%rbp)
    4674:	7f 0e                	jg     4684 <safe_mul_func_int32_t_s_s+0x42>
    4676:	b8 00 00 00 80       	mov    $0x80000000,%eax
    467b:	99                   	cltd   
    467c:	f7 7d fc             	idivl  -0x4(%rbp)
    467f:	39 45 f8             	cmp    %eax,-0x8(%rbp)
    4682:	7c 43                	jl     46c7 <safe_mul_func_int32_t_s_s+0x85>
    4684:	83 7d fc 00          	cmpl   $0x0,-0x4(%rbp)
    4688:	7f 14                	jg     469e <safe_mul_func_int32_t_s_s+0x5c>
    468a:	83 7d f8 00          	cmpl   $0x0,-0x8(%rbp)
    468e:	7e 0e                	jle    469e <safe_mul_func_int32_t_s_s+0x5c>
    4690:	b8 00 00 00 80       	mov    $0x80000000,%eax
    4695:	99                   	cltd   
    4696:	f7 7d f8             	idivl  -0x8(%rbp)
    4699:	39 45 fc             	cmp    %eax,-0x4(%rbp)
    469c:	7c 29                	jl     46c7 <safe_mul_func_int32_t_s_s+0x85>
    469e:	83 7d fc 00          	cmpl   $0x0,-0x4(%rbp)
    46a2:	7f 1a                	jg     46be <safe_mul_func_int32_t_s_s+0x7c>
    46a4:	83 7d f8 00          	cmpl   $0x0,-0x8(%rbp)
    46a8:	7f 14                	jg     46be <safe_mul_func_int32_t_s_s+0x7c>
    46aa:	83 7d fc 00          	cmpl   $0x0,-0x4(%rbp)
    46ae:	74 0e                	je     46be <safe_mul_func_int32_t_s_s+0x7c>
    46b0:	b8 ff ff ff 7f       	mov    $0x7fffffff,%eax
    46b5:	99                   	cltd   
    46b6:	f7 7d fc             	idivl  -0x4(%rbp)
    46b9:	39 45 f8             	cmp    %eax,-0x8(%rbp)
    46bc:	7c 09                	jl     46c7 <safe_mul_func_int32_t_s_s+0x85>
    46be:	8b 45 fc             	mov    -0x4(%rbp),%eax
    46c1:	0f af 45 f8          	imul   -0x8(%rbp),%eax
    46c5:	eb 03                	jmp    46ca <safe_mul_func_int32_t_s_s+0x88>
    46c7:	8b 45 fc             	mov    -0x4(%rbp),%eax
    46ca:	5d                   	pop    %rbp
    46cb:	c3                   	retq   

00000000000046cc <safe_mod_func_int32_t_s_s>:
    46cc:	f3 0f 1e fa          	endbr64 
    46d0:	55                   	push   %rbp
    46d1:	48 89 e5             	mov    %rsp,%rbp
    46d4:	89 7d fc             	mov    %edi,-0x4(%rbp)
    46d7:	89 75 f8             	mov    %esi,-0x8(%rbp)
    46da:	83 7d f8 00          	cmpl   $0x0,-0x8(%rbp)
    46de:	74 1a                	je     46fa <safe_mod_func_int32_t_s_s+0x2e>
    46e0:	81 7d fc 00 00 00 80 	cmpl   $0x80000000,-0x4(%rbp)
    46e7:	75 06                	jne    46ef <safe_mod_func_int32_t_s_s+0x23>
    46e9:	83 7d f8 ff          	cmpl   $0xffffffff,-0x8(%rbp)
    46ed:	74 0b                	je     46fa <safe_mod_func_int32_t_s_s+0x2e>
    46ef:	8b 45 fc             	mov    -0x4(%rbp),%eax
    46f2:	99                   	cltd   
    46f3:	f7 7d f8             	idivl  -0x8(%rbp)
    46f6:	89 d0                	mov    %edx,%eax
    46f8:	eb 03                	jmp    46fd <safe_mod_func_int32_t_s_s+0x31>
    46fa:	8b 45 fc             	mov    -0x4(%rbp),%eax
    46fd:	5d                   	pop    %rbp
    46fe:	c3                   	retq   

00000000000046ff <safe_div_func_int32_t_s_s>:
    46ff:	f3 0f 1e fa          	endbr64 
    4703:	55                   	push   %rbp
    4704:	48 89 e5             	mov    %rsp,%rbp
    4707:	89 7d fc             	mov    %edi,-0x4(%rbp)
    470a:	89 75 f8             	mov    %esi,-0x8(%rbp)
    470d:	83 7d f8 00          	cmpl   $0x0,-0x8(%rbp)
    4711:	74 18                	je     472b <safe_div_func_int32_t_s_s+0x2c>
    4713:	81 7d fc 00 00 00 80 	cmpl   $0x80000000,-0x4(%rbp)
    471a:	75 06                	jne    4722 <safe_div_func_int32_t_s_s+0x23>
    471c:	83 7d f8 ff          	cmpl   $0xffffffff,-0x8(%rbp)
    4720:	74 09                	je     472b <safe_div_func_int32_t_s_s+0x2c>
    4722:	8b 45 fc             	mov    -0x4(%rbp),%eax
    4725:	99                   	cltd   
    4726:	f7 7d f8             	idivl  -0x8(%rbp)
    4729:	eb 03                	jmp    472e <safe_div_func_int32_t_s_s+0x2f>
    472b:	8b 45 fc             	mov    -0x4(%rbp),%eax
    472e:	5d                   	pop    %rbp
    472f:	c3                   	retq   

0000000000004730 <safe_lshift_func_int32_t_s_s>:
    4730:	f3 0f 1e fa          	endbr64 
    4734:	55                   	push   %rbp
    4735:	48 89 e5             	mov    %rsp,%rbp
    4738:	89 7d fc             	mov    %edi,-0x4(%rbp)
    473b:	89 75 f8             	mov    %esi,-0x8(%rbp)
    473e:	83 7d fc 00          	cmpl   $0x0,-0x4(%rbp)
    4742:	78 2d                	js     4771 <safe_lshift_func_int32_t_s_s+0x41>
    4744:	83 7d f8 00          	cmpl   $0x0,-0x8(%rbp)
    4748:	78 27                	js     4771 <safe_lshift_func_int32_t_s_s+0x41>
    474a:	83 7d f8 1f          	cmpl   $0x1f,-0x8(%rbp)
    474e:	7f 21                	jg     4771 <safe_lshift_func_int32_t_s_s+0x41>
    4750:	8b 45 f8             	mov    -0x8(%rbp),%eax
    4753:	ba ff ff ff 7f       	mov    $0x7fffffff,%edx
    4758:	89 c1                	mov    %eax,%ecx
    475a:	d3 fa                	sar    %cl,%edx
    475c:	89 d0                	mov    %edx,%eax
    475e:	39 45 fc             	cmp    %eax,-0x4(%rbp)
    4761:	7f 0e                	jg     4771 <safe_lshift_func_int32_t_s_s+0x41>
    4763:	8b 45 f8             	mov    -0x8(%rbp),%eax
    4766:	8b 55 fc             	mov    -0x4(%rbp),%edx
    4769:	89 c1                	mov    %eax,%ecx
    476b:	d3 e2                	shl    %cl,%edx
    476d:	89 d0                	mov    %edx,%eax
    476f:	eb 03                	jmp    4774 <safe_lshift_func_int32_t_s_s+0x44>
    4771:	8b 45 fc             	mov    -0x4(%rbp),%eax
    4774:	5d                   	pop    %rbp
    4775:	c3                   	retq   

0000000000004776 <safe_lshift_func_int32_t_s_u>:
    4776:	f3 0f 1e fa          	endbr64 
    477a:	55                   	push   %rbp
    477b:	48 89 e5             	mov    %rsp,%rbp
    477e:	89 7d fc             	mov    %edi,-0x4(%rbp)
    4781:	89 75 f8             	mov    %esi,-0x8(%rbp)
    4784:	83 7d fc 00          	cmpl   $0x0,-0x4(%rbp)
    4788:	78 27                	js     47b1 <safe_lshift_func_int32_t_s_u+0x3b>
    478a:	83 7d f8 1f          	cmpl   $0x1f,-0x8(%rbp)
    478e:	77 21                	ja     47b1 <safe_lshift_func_int32_t_s_u+0x3b>
    4790:	8b 45 f8             	mov    -0x8(%rbp),%eax
    4793:	ba ff ff ff 7f       	mov    $0x7fffffff,%edx
    4798:	89 c1                	mov    %eax,%ecx
    479a:	d3 fa                	sar    %cl,%edx
    479c:	89 d0                	mov    %edx,%eax
    479e:	39 45 fc             	cmp    %eax,-0x4(%rbp)
    47a1:	7f 0e                	jg     47b1 <safe_lshift_func_int32_t_s_u+0x3b>
    47a3:	8b 45 f8             	mov    -0x8(%rbp),%eax
    47a6:	8b 55 fc             	mov    -0x4(%rbp),%edx
    47a9:	89 c1                	mov    %eax,%ecx
    47ab:	d3 e2                	shl    %cl,%edx
    47ad:	89 d0                	mov    %edx,%eax
    47af:	eb 03                	jmp    47b4 <safe_lshift_func_int32_t_s_u+0x3e>
    47b1:	8b 45 fc             	mov    -0x4(%rbp),%eax
    47b4:	5d                   	pop    %rbp
    47b5:	c3                   	retq   

00000000000047b6 <safe_rshift_func_int32_t_s_s>:
    47b6:	f3 0f 1e fa          	endbr64 
    47ba:	55                   	push   %rbp
    47bb:	48 89 e5             	mov    %rsp,%rbp
    47be:	89 7d fc             	mov    %edi,-0x4(%rbp)
    47c1:	89 75 f8             	mov    %esi,-0x8(%rbp)
    47c4:	83 7d fc 00          	cmpl   $0x0,-0x4(%rbp)
    47c8:	78 1a                	js     47e4 <safe_rshift_func_int32_t_s_s+0x2e>
    47ca:	83 7d f8 00          	cmpl   $0x0,-0x8(%rbp)
    47ce:	78 14                	js     47e4 <safe_rshift_func_int32_t_s_s+0x2e>
    47d0:	83 7d f8 1f          	cmpl   $0x1f,-0x8(%rbp)
    47d4:	7f 0e                	jg     47e4 <safe_rshift_func_int32_t_s_s+0x2e>
    47d6:	8b 45 f8             	mov    -0x8(%rbp),%eax
    47d9:	8b 55 fc             	mov    -0x4(%rbp),%edx
    47dc:	89 c1                	mov    %eax,%ecx
    47de:	d3 fa                	sar    %cl,%edx
    47e0:	89 d0                	mov    %edx,%eax
    47e2:	eb 03                	jmp    47e7 <safe_rshift_func_int32_t_s_s+0x31>
    47e4:	8b 45 fc             	mov    -0x4(%rbp),%eax
    47e7:	5d                   	pop    %rbp
    47e8:	c3                   	retq   

00000000000047e9 <safe_rshift_func_int32_t_s_u>:
    47e9:	f3 0f 1e fa          	endbr64 
    47ed:	55                   	push   %rbp
    47ee:	48 89 e5             	mov    %rsp,%rbp
    47f1:	89 7d fc             	mov    %edi,-0x4(%rbp)
    47f4:	89 75 f8             	mov    %esi,-0x8(%rbp)
    47f7:	83 7d fc 00          	cmpl   $0x0,-0x4(%rbp)
    47fb:	78 14                	js     4811 <safe_rshift_func_int32_t_s_u+0x28>
    47fd:	83 7d f8 1f          	cmpl   $0x1f,-0x8(%rbp)
    4801:	77 0e                	ja     4811 <safe_rshift_func_int32_t_s_u+0x28>
    4803:	8b 45 f8             	mov    -0x8(%rbp),%eax
    4806:	8b 55 fc             	mov    -0x4(%rbp),%edx
    4809:	89 c1                	mov    %eax,%ecx
    480b:	d3 fa                	sar    %cl,%edx
    480d:	89 d0                	mov    %edx,%eax
    480f:	eb 03                	jmp    4814 <safe_rshift_func_int32_t_s_u+0x2b>
    4811:	8b 45 fc             	mov    -0x4(%rbp),%eax
    4814:	5d                   	pop    %rbp
    4815:	c3                   	retq   

0000000000004816 <safe_unary_minus_func_int64_t_s>:
    4816:	f3 0f 1e fa          	endbr64 
    481a:	55                   	push   %rbp
    481b:	48 89 e5             	mov    %rsp,%rbp
    481e:	48 89 7d f8          	mov    %rdi,-0x8(%rbp)
    4822:	48 b8 00 00 00 00 00 	movabs $0x8000000000000000,%rax
    4829:	00 00 80 
    482c:	48 39 45 f8          	cmp    %rax,-0x8(%rbp)
    4830:	74 09                	je     483b <safe_unary_minus_func_int64_t_s+0x25>
    4832:	48 8b 45 f8          	mov    -0x8(%rbp),%rax
    4836:	48 f7 d8             	neg    %rax
    4839:	eb 04                	jmp    483f <safe_unary_minus_func_int64_t_s+0x29>
    483b:	48 8b 45 f8          	mov    -0x8(%rbp),%rax
    483f:	5d                   	pop    %rbp
    4840:	c3                   	retq   

0000000000004841 <safe_add_func_int64_t_s_s>:
    4841:	f3 0f 1e fa          	endbr64 
    4845:	55                   	push   %rbp
    4846:	48 89 e5             	mov    %rsp,%rbp
    4849:	48 89 7d f8          	mov    %rdi,-0x8(%rbp)
    484d:	48 89 75 f0          	mov    %rsi,-0x10(%rbp)
    4851:	48 83 7d f8 00       	cmpq   $0x0,-0x8(%rbp)
    4856:	7e 1b                	jle    4873 <safe_add_func_int64_t_s_s+0x32>
    4858:	48 83 7d f0 00       	cmpq   $0x0,-0x10(%rbp)
    485d:	7e 14                	jle    4873 <safe_add_func_int64_t_s_s+0x32>
    485f:	48 b8 ff ff ff ff ff 	movabs $0x7fffffffffffffff,%rax
    4866:	ff ff 7f 
    4869:	48 2b 45 f0          	sub    -0x10(%rbp),%rax
    486d:	48 39 45 f8          	cmp    %rax,-0x8(%rbp)
    4871:	7f 2f                	jg     48a2 <safe_add_func_int64_t_s_s+0x61>
    4873:	48 83 7d f8 00       	cmpq   $0x0,-0x8(%rbp)
    4878:	79 1b                	jns    4895 <safe_add_func_int64_t_s_s+0x54>
    487a:	48 83 7d f0 00       	cmpq   $0x0,-0x10(%rbp)
    487f:	79 14                	jns    4895 <safe_add_func_int64_t_s_s+0x54>
    4881:	48 b8 00 00 00 00 00 	movabs $0x8000000000000000,%rax
    4888:	00 00 80 
    488b:	48 2b 45 f0          	sub    -0x10(%rbp),%rax
    488f:	48 39 45 f8          	cmp    %rax,-0x8(%rbp)
    4893:	7c 0d                	jl     48a2 <safe_add_func_int64_t_s_s+0x61>
    4895:	48 8b 55 f8          	mov    -0x8(%rbp),%rdx
    4899:	48 8b 45 f0          	mov    -0x10(%rbp),%rax
    489d:	48 01 d0             	add    %rdx,%rax
    48a0:	eb 04                	jmp    48a6 <safe_add_func_int64_t_s_s+0x65>
    48a2:	48 8b 45 f8          	mov    -0x8(%rbp),%rax
    48a6:	5d                   	pop    %rbp
    48a7:	c3                   	retq   

00000000000048a8 <safe_sub_func_int64_t_s_s>:
    48a8:	f3 0f 1e fa          	endbr64 
    48ac:	55                   	push   %rbp
    48ad:	48 89 e5             	mov    %rsp,%rbp
    48b0:	48 89 7d f8          	mov    %rdi,-0x8(%rbp)
    48b4:	48 89 75 f0          	mov    %rsi,-0x10(%rbp)
    48b8:	48 8b 45 f8          	mov    -0x8(%rbp),%rax
    48bc:	48 33 45 f0          	xor    -0x10(%rbp),%rax
    48c0:	48 89 c2             	mov    %rax,%rdx
    48c3:	48 8b 45 f8          	mov    -0x8(%rbp),%rax
    48c7:	48 33 45 f0          	xor    -0x10(%rbp),%rax
    48cb:	48 b9 00 00 00 00 00 	movabs $0x8000000000000000,%rcx
    48d2:	00 00 80 
    48d5:	48 21 c8             	and    %rcx,%rax
    48d8:	48 33 45 f8          	xor    -0x8(%rbp),%rax
    48dc:	48 2b 45 f0          	sub    -0x10(%rbp),%rax
    48e0:	48 33 45 f0          	xor    -0x10(%rbp),%rax
    48e4:	48 21 d0             	and    %rdx,%rax
    48e7:	48 85 c0             	test   %rax,%rax
    48ea:	78 0a                	js     48f6 <safe_sub_func_int64_t_s_s+0x4e>
    48ec:	48 8b 45 f8          	mov    -0x8(%rbp),%rax
    48f0:	48 2b 45 f0          	sub    -0x10(%rbp),%rax
    48f4:	eb 04                	jmp    48fa <safe_sub_func_int64_t_s_s+0x52>
    48f6:	48 8b 45 f8          	mov    -0x8(%rbp),%rax
    48fa:	5d                   	pop    %rbp
    48fb:	c3                   	retq   

00000000000048fc <safe_mul_func_int64_t_s_s>:
    48fc:	f3 0f 1e fa          	endbr64 
    4900:	55                   	push   %rbp
    4901:	48 89 e5             	mov    %rsp,%rbp
    4904:	48 89 7d f8          	mov    %rdi,-0x8(%rbp)
    4908:	48 89 75 f0          	mov    %rsi,-0x10(%rbp)
    490c:	48 83 7d f8 00       	cmpq   $0x0,-0x8(%rbp)
    4911:	7e 1d                	jle    4930 <safe_mul_func_int64_t_s_s+0x34>
    4913:	48 83 7d f0 00       	cmpq   $0x0,-0x10(%rbp)
    4918:	7e 16                	jle    4930 <safe_mul_func_int64_t_s_s+0x34>
    491a:	48 b8 ff ff ff ff ff 	movabs $0x7fffffffffffffff,%rax
    4921:	ff ff 7f 
    4924:	48 99                	cqto   
    4926:	48 f7 7d f0          	idivq  -0x10(%rbp)
    492a:	48 39 45 f8          	cmp    %rax,-0x8(%rbp)
    492e:	7f 7e                	jg     49ae <safe_mul_func_int64_t_s_s+0xb2>
    4930:	48 83 7d f8 00       	cmpq   $0x0,-0x8(%rbp)
    4935:	7e 1d                	jle    4954 <safe_mul_func_int64_t_s_s+0x58>
    4937:	48 83 7d f0 00       	cmpq   $0x0,-0x10(%rbp)
    493c:	7f 16                	jg     4954 <safe_mul_func_int64_t_s_s+0x58>
    493e:	48 b8 00 00 00 00 00 	movabs $0x8000000000000000,%rax
    4945:	00 00 80 
    4948:	48 99                	cqto   
    494a:	48 f7 7d f8          	idivq  -0x8(%rbp)
    494e:	48 39 45 f0          	cmp    %rax,-0x10(%rbp)
    4952:	7c 5a                	jl     49ae <safe_mul_func_int64_t_s_s+0xb2>
    4954:	48 83 7d f8 00       	cmpq   $0x0,-0x8(%rbp)
    4959:	7f 1d                	jg     4978 <safe_mul_func_int64_t_s_s+0x7c>
    495b:	48 83 7d f0 00       	cmpq   $0x0,-0x10(%rbp)
    4960:	7e 16                	jle    4978 <safe_mul_func_int64_t_s_s+0x7c>
    4962:	48 b8 00 00 00 00 00 	movabs $0x8000000000000000,%rax
    4969:	00 00 80 
    496c:	48 99                	cqto   
    496e:	48 f7 7d f0          	idivq  -0x10(%rbp)
    4972:	48 39 45 f8          	cmp    %rax,-0x8(%rbp)
    4976:	7c 36                	jl     49ae <safe_mul_func_int64_t_s_s+0xb2>
    4978:	48 83 7d f8 00       	cmpq   $0x0,-0x8(%rbp)
    497d:	7f 24                	jg     49a3 <safe_mul_func_int64_t_s_s+0xa7>
    497f:	48 83 7d f0 00       	cmpq   $0x0,-0x10(%rbp)
    4984:	7f 1d                	jg     49a3 <safe_mul_func_int64_t_s_s+0xa7>
    4986:	48 83 7d f8 00       	cmpq   $0x0,-0x8(%rbp)
    498b:	74 16                	je     49a3 <safe_mul_func_int64_t_s_s+0xa7>
    498d:	48 b8 ff ff ff ff ff 	movabs $0x7fffffffffffffff,%rax
    4994:	ff ff 7f 
    4997:	48 99                	cqto   
    4999:	48 f7 7d f8          	idivq  -0x8(%rbp)
    499d:	48 39 45 f0          	cmp    %rax,-0x10(%rbp)
    49a1:	7c 0b                	jl     49ae <safe_mul_func_int64_t_s_s+0xb2>
    49a3:	48 8b 45 f8          	mov    -0x8(%rbp),%rax
    49a7:	48 0f af 45 f0       	imul   -0x10(%rbp),%rax
    49ac:	eb 04                	jmp    49b2 <safe_mul_func_int64_t_s_s+0xb6>
    49ae:	48 8b 45 f8          	mov    -0x8(%rbp),%rax
    49b2:	5d                   	pop    %rbp
    49b3:	c3                   	retq   

00000000000049b4 <safe_mod_func_int64_t_s_s>:
    49b4:	f3 0f 1e fa          	endbr64 
    49b8:	55                   	push   %rbp
    49b9:	48 89 e5             	mov    %rsp,%rbp
    49bc:	48 89 7d f8          	mov    %rdi,-0x8(%rbp)
    49c0:	48 89 75 f0          	mov    %rsi,-0x10(%rbp)
    49c4:	48 83 7d f0 00       	cmpq   $0x0,-0x10(%rbp)
    49c9:	74 26                	je     49f1 <safe_mod_func_int64_t_s_s+0x3d>
    49cb:	48 b8 00 00 00 00 00 	movabs $0x8000000000000000,%rax
    49d2:	00 00 80 
    49d5:	48 39 45 f8          	cmp    %rax,-0x8(%rbp)
    49d9:	75 07                	jne    49e2 <safe_mod_func_int64_t_s_s+0x2e>
    49db:	48 83 7d f0 ff       	cmpq   $0xffffffffffffffff,-0x10(%rbp)
    49e0:	74 0f                	je     49f1 <safe_mod_func_int64_t_s_s+0x3d>
    49e2:	48 8b 45 f8          	mov    -0x8(%rbp),%rax
    49e6:	48 99                	cqto   
    49e8:	48 f7 7d f0          	idivq  -0x10(%rbp)
    49ec:	48 89 d0             	mov    %rdx,%rax
    49ef:	eb 04                	jmp    49f5 <safe_mod_func_int64_t_s_s+0x41>
    49f1:	48 8b 45 f8          	mov    -0x8(%rbp),%rax
    49f5:	5d                   	pop    %rbp
    49f6:	c3                   	retq   

00000000000049f7 <safe_div_func_int64_t_s_s>:
    49f7:	f3 0f 1e fa          	endbr64 
    49fb:	55                   	push   %rbp
    49fc:	48 89 e5             	mov    %rsp,%rbp
    49ff:	48 89 7d f8          	mov    %rdi,-0x8(%rbp)
    4a03:	48 89 75 f0          	mov    %rsi,-0x10(%rbp)
    4a07:	48 83 7d f0 00       	cmpq   $0x0,-0x10(%rbp)
    4a0c:	74 23                	je     4a31 <safe_div_func_int64_t_s_s+0x3a>
    4a0e:	48 b8 00 00 00 00 00 	movabs $0x8000000000000000,%rax
    4a15:	00 00 80 
    4a18:	48 39 45 f8          	cmp    %rax,-0x8(%rbp)
    4a1c:	75 07                	jne    4a25 <safe_div_func_int64_t_s_s+0x2e>
    4a1e:	48 83 7d f0 ff       	cmpq   $0xffffffffffffffff,-0x10(%rbp)
    4a23:	74 0c                	je     4a31 <safe_div_func_int64_t_s_s+0x3a>
    4a25:	48 8b 45 f8          	mov    -0x8(%rbp),%rax
    4a29:	48 99                	cqto   
    4a2b:	48 f7 7d f0          	idivq  -0x10(%rbp)
    4a2f:	eb 04                	jmp    4a35 <safe_div_func_int64_t_s_s+0x3e>
    4a31:	48 8b 45 f8          	mov    -0x8(%rbp),%rax
    4a35:	5d                   	pop    %rbp
    4a36:	c3                   	retq   

0000000000004a37 <safe_lshift_func_int64_t_s_s>:
    4a37:	f3 0f 1e fa          	endbr64 
    4a3b:	55                   	push   %rbp
    4a3c:	48 89 e5             	mov    %rsp,%rbp
    4a3f:	48 89 7d f8          	mov    %rdi,-0x8(%rbp)
    4a43:	89 75 f4             	mov    %esi,-0xc(%rbp)
    4a46:	48 83 7d f8 00       	cmpq   $0x0,-0x8(%rbp)
    4a4b:	78 38                	js     4a85 <safe_lshift_func_int64_t_s_s+0x4e>
    4a4d:	83 7d f4 00          	cmpl   $0x0,-0xc(%rbp)
    4a51:	78 32                	js     4a85 <safe_lshift_func_int64_t_s_s+0x4e>
    4a53:	83 7d f4 1f          	cmpl   $0x1f,-0xc(%rbp)
    4a57:	7f 2c                	jg     4a85 <safe_lshift_func_int64_t_s_s+0x4e>
    4a59:	8b 45 f4             	mov    -0xc(%rbp),%eax
    4a5c:	48 ba ff ff ff ff ff 	movabs $0x7fffffffffffffff,%rdx
    4a63:	ff ff 7f 
    4a66:	89 c1                	mov    %eax,%ecx
    4a68:	48 d3 fa             	sar    %cl,%rdx
    4a6b:	48 89 d0             	mov    %rdx,%rax
    4a6e:	48 39 45 f8          	cmp    %rax,-0x8(%rbp)
    4a72:	7f 11                	jg     4a85 <safe_lshift_func_int64_t_s_s+0x4e>
    4a74:	8b 45 f4             	mov    -0xc(%rbp),%eax
    4a77:	48 8b 55 f8          	mov    -0x8(%rbp),%rdx
    4a7b:	89 c1                	mov    %eax,%ecx
    4a7d:	48 d3 e2             	shl    %cl,%rdx
    4a80:	48 89 d0             	mov    %rdx,%rax
    4a83:	eb 04                	jmp    4a89 <safe_lshift_func_int64_t_s_s+0x52>
    4a85:	48 8b 45 f8          	mov    -0x8(%rbp),%rax
    4a89:	5d                   	pop    %rbp
    4a8a:	c3                   	retq   

0000000000004a8b <safe_lshift_func_int64_t_s_u>:
    4a8b:	f3 0f 1e fa          	endbr64 
    4a8f:	55                   	push   %rbp
    4a90:	48 89 e5             	mov    %rsp,%rbp
    4a93:	48 89 7d f8          	mov    %rdi,-0x8(%rbp)
    4a97:	89 75 f4             	mov    %esi,-0xc(%rbp)
    4a9a:	48 83 7d f8 00       	cmpq   $0x0,-0x8(%rbp)
    4a9f:	78 32                	js     4ad3 <safe_lshift_func_int64_t_s_u+0x48>
    4aa1:	83 7d f4 1f          	cmpl   $0x1f,-0xc(%rbp)
    4aa5:	77 2c                	ja     4ad3 <safe_lshift_func_int64_t_s_u+0x48>
    4aa7:	8b 45 f4             	mov    -0xc(%rbp),%eax
    4aaa:	48 ba ff ff ff ff ff 	movabs $0x7fffffffffffffff,%rdx
    4ab1:	ff ff 7f 
    4ab4:	89 c1                	mov    %eax,%ecx
    4ab6:	48 d3 fa             	sar    %cl,%rdx
    4ab9:	48 89 d0             	mov    %rdx,%rax
    4abc:	48 39 45 f8          	cmp    %rax,-0x8(%rbp)
    4ac0:	7f 11                	jg     4ad3 <safe_lshift_func_int64_t_s_u+0x48>
    4ac2:	8b 45 f4             	mov    -0xc(%rbp),%eax
    4ac5:	48 8b 55 f8          	mov    -0x8(%rbp),%rdx
    4ac9:	89 c1                	mov    %eax,%ecx
    4acb:	48 d3 e2             	shl    %cl,%rdx
    4ace:	48 89 d0             	mov    %rdx,%rax
    4ad1:	eb 04                	jmp    4ad7 <safe_lshift_func_int64_t_s_u+0x4c>
    4ad3:	48 8b 45 f8          	mov    -0x8(%rbp),%rax
    4ad7:	5d                   	pop    %rbp
    4ad8:	c3                   	retq   

0000000000004ad9 <safe_rshift_func_int64_t_s_s>:
    4ad9:	f3 0f 1e fa          	endbr64 
    4add:	55                   	push   %rbp
    4ade:	48 89 e5             	mov    %rsp,%rbp
    4ae1:	48 89 7d f8          	mov    %rdi,-0x8(%rbp)
    4ae5:	89 75 f4             	mov    %esi,-0xc(%rbp)
    4ae8:	48 83 7d f8 00       	cmpq   $0x0,-0x8(%rbp)
    4aed:	78 1d                	js     4b0c <safe_rshift_func_int64_t_s_s+0x33>
    4aef:	83 7d f4 00          	cmpl   $0x0,-0xc(%rbp)
    4af3:	78 17                	js     4b0c <safe_rshift_func_int64_t_s_s+0x33>
    4af5:	83 7d f4 1f          	cmpl   $0x1f,-0xc(%rbp)
    4af9:	7f 11                	jg     4b0c <safe_rshift_func_int64_t_s_s+0x33>
    4afb:	8b 45 f4             	mov    -0xc(%rbp),%eax
    4afe:	48 8b 55 f8          	mov    -0x8(%rbp),%rdx
    4b02:	89 c1                	mov    %eax,%ecx
    4b04:	48 d3 fa             	sar    %cl,%rdx
    4b07:	48 89 d0             	mov    %rdx,%rax
    4b0a:	eb 04                	jmp    4b10 <safe_rshift_func_int64_t_s_s+0x37>
    4b0c:	48 8b 45 f8          	mov    -0x8(%rbp),%rax
    4b10:	5d                   	pop    %rbp
    4b11:	c3                   	retq   

0000000000004b12 <safe_rshift_func_int64_t_s_u>:
    4b12:	f3 0f 1e fa          	endbr64 
    4b16:	55                   	push   %rbp
    4b17:	48 89 e5             	mov    %rsp,%rbp
    4b1a:	48 89 7d f8          	mov    %rdi,-0x8(%rbp)
    4b1e:	89 75 f4             	mov    %esi,-0xc(%rbp)
    4b21:	48 83 7d f8 00       	cmpq   $0x0,-0x8(%rbp)
    4b26:	78 17                	js     4b3f <safe_rshift_func_int64_t_s_u+0x2d>
    4b28:	83 7d f4 1f          	cmpl   $0x1f,-0xc(%rbp)
    4b2c:	77 11                	ja     4b3f <safe_rshift_func_int64_t_s_u+0x2d>
    4b2e:	8b 45 f4             	mov    -0xc(%rbp),%eax
    4b31:	48 8b 55 f8          	mov    -0x8(%rbp),%rdx
    4b35:	89 c1                	mov    %eax,%ecx
    4b37:	48 d3 fa             	sar    %cl,%rdx
    4b3a:	48 89 d0             	mov    %rdx,%rax
    4b3d:	eb 04                	jmp    4b43 <safe_rshift_func_int64_t_s_u+0x31>
    4b3f:	48 8b 45 f8          	mov    -0x8(%rbp),%rax
    4b43:	5d                   	pop    %rbp
    4b44:	c3                   	retq   

0000000000004b45 <safe_unary_minus_func_uint8_t_u>:
    4b45:	f3 0f 1e fa          	endbr64 
    4b49:	55                   	push   %rbp
    4b4a:	48 89 e5             	mov    %rsp,%rbp
    4b4d:	89 f8                	mov    %edi,%eax
    4b4f:	88 45 fc             	mov    %al,-0x4(%rbp)
    4b52:	0f b6 45 fc          	movzbl -0x4(%rbp),%eax
    4b56:	f7 d8                	neg    %eax
    4b58:	5d                   	pop    %rbp
    4b59:	c3                   	retq   

0000000000004b5a <safe_add_func_uint8_t_u_u>:
    4b5a:	f3 0f 1e fa          	endbr64 
    4b5e:	55                   	push   %rbp
    4b5f:	48 89 e5             	mov    %rsp,%rbp
    4b62:	89 fa                	mov    %edi,%edx
    4b64:	89 f0                	mov    %esi,%eax
    4b66:	88 55 fc             	mov    %dl,-0x4(%rbp)
    4b69:	88 45 f8             	mov    %al,-0x8(%rbp)
    4b6c:	0f b6 55 fc          	movzbl -0x4(%rbp),%edx
    4b70:	0f b6 45 f8          	movzbl -0x8(%rbp),%eax
    4b74:	01 d0                	add    %edx,%eax
    4b76:	5d                   	pop    %rbp
    4b77:	c3                   	retq   

0000000000004b78 <safe_sub_func_uint8_t_u_u>:
    4b78:	f3 0f 1e fa          	endbr64 
    4b7c:	55                   	push   %rbp
    4b7d:	48 89 e5             	mov    %rsp,%rbp
    4b80:	89 fa                	mov    %edi,%edx
    4b82:	89 f0                	mov    %esi,%eax
    4b84:	88 55 fc             	mov    %dl,-0x4(%rbp)
    4b87:	88 45 f8             	mov    %al,-0x8(%rbp)
    4b8a:	0f b6 45 fc          	movzbl -0x4(%rbp),%eax
    4b8e:	2a 45 f8             	sub    -0x8(%rbp),%al
    4b91:	5d                   	pop    %rbp
    4b92:	c3                   	retq   

0000000000004b93 <safe_mul_func_uint8_t_u_u>:
    4b93:	f3 0f 1e fa          	endbr64 
    4b97:	55                   	push   %rbp
    4b98:	48 89 e5             	mov    %rsp,%rbp
    4b9b:	89 fa                	mov    %edi,%edx
    4b9d:	89 f0                	mov    %esi,%eax
    4b9f:	88 55 fc             	mov    %dl,-0x4(%rbp)
    4ba2:	88 45 f8             	mov    %al,-0x8(%rbp)
    4ba5:	0f b6 45 fc          	movzbl -0x4(%rbp),%eax
    4ba9:	f6 65 f8             	mulb   -0x8(%rbp)
    4bac:	5d                   	pop    %rbp
    4bad:	c3                   	retq   

0000000000004bae <safe_mod_func_uint8_t_u_u>:
    4bae:	f3 0f 1e fa          	endbr64 
    4bb2:	55                   	push   %rbp
    4bb3:	48 89 e5             	mov    %rsp,%rbp
    4bb6:	89 fa                	mov    %edi,%edx
    4bb8:	89 f0                	mov    %esi,%eax
    4bba:	88 55 fc             	mov    %dl,-0x4(%rbp)
    4bbd:	88 45 f8             	mov    %al,-0x8(%rbp)
    4bc0:	80 7d f8 00          	cmpb   $0x0,-0x8(%rbp)
    4bc4:	74 0f                	je     4bd5 <safe_mod_func_uint8_t_u_u+0x27>
    4bc6:	0f b6 45 fc          	movzbl -0x4(%rbp),%eax
    4bca:	0f b6 c0             	movzbl %al,%eax
    4bcd:	f6 75 f8             	divb   -0x8(%rbp)
    4bd0:	0f b6 c4             	movzbl %ah,%eax
    4bd3:	eb 04                	jmp    4bd9 <safe_mod_func_uint8_t_u_u+0x2b>
    4bd5:	0f b6 45 fc          	movzbl -0x4(%rbp),%eax
    4bd9:	5d                   	pop    %rbp
    4bda:	c3                   	retq   

0000000000004bdb <safe_div_func_uint8_t_u_u>:
    4bdb:	f3 0f 1e fa          	endbr64 
    4bdf:	55                   	push   %rbp
    4be0:	48 89 e5             	mov    %rsp,%rbp
    4be3:	89 fa                	mov    %edi,%edx
    4be5:	89 f0                	mov    %esi,%eax
    4be7:	88 55 fc             	mov    %dl,-0x4(%rbp)
    4bea:	88 45 f8             	mov    %al,-0x8(%rbp)
    4bed:	80 7d f8 00          	cmpb   $0x0,-0x8(%rbp)
    4bf1:	74 0c                	je     4bff <safe_div_func_uint8_t_u_u+0x24>
    4bf3:	0f b6 45 fc          	movzbl -0x4(%rbp),%eax
    4bf7:	0f b6 c0             	movzbl %al,%eax
    4bfa:	f6 75 f8             	divb   -0x8(%rbp)
    4bfd:	eb 04                	jmp    4c03 <safe_div_func_uint8_t_u_u+0x28>
    4bff:	0f b6 45 fc          	movzbl -0x4(%rbp),%eax
    4c03:	5d                   	pop    %rbp
    4c04:	c3                   	retq   

0000000000004c05 <safe_lshift_func_uint8_t_u_s>:
    4c05:	f3 0f 1e fa          	endbr64 
    4c09:	55                   	push   %rbp
    4c0a:	48 89 e5             	mov    %rsp,%rbp
    4c0d:	89 f8                	mov    %edi,%eax
    4c0f:	89 75 f8             	mov    %esi,-0x8(%rbp)
    4c12:	88 45 fc             	mov    %al,-0x4(%rbp)
    4c15:	83 7d f8 00          	cmpl   $0x0,-0x8(%rbp)
    4c19:	78 2b                	js     4c46 <safe_lshift_func_uint8_t_u_s+0x41>
    4c1b:	83 7d f8 1f          	cmpl   $0x1f,-0x8(%rbp)
    4c1f:	7f 25                	jg     4c46 <safe_lshift_func_uint8_t_u_s+0x41>
    4c21:	0f b6 55 fc          	movzbl -0x4(%rbp),%edx
    4c25:	8b 45 f8             	mov    -0x8(%rbp),%eax
    4c28:	be ff 00 00 00       	mov    $0xff,%esi
    4c2d:	89 c1                	mov    %eax,%ecx
    4c2f:	d3 fe                	sar    %cl,%esi
    4c31:	89 f0                	mov    %esi,%eax
    4c33:	39 c2                	cmp    %eax,%edx
    4c35:	7f 0f                	jg     4c46 <safe_lshift_func_uint8_t_u_s+0x41>
    4c37:	0f b6 55 fc          	movzbl -0x4(%rbp),%edx
    4c3b:	8b 45 f8             	mov    -0x8(%rbp),%eax
    4c3e:	89 c1                	mov    %eax,%ecx
    4c40:	d3 e2                	shl    %cl,%edx
    4c42:	89 d0                	mov    %edx,%eax
    4c44:	eb 04                	jmp    4c4a <safe_lshift_func_uint8_t_u_s+0x45>
    4c46:	0f b6 45 fc          	movzbl -0x4(%rbp),%eax
    4c4a:	5d                   	pop    %rbp
    4c4b:	c3                   	retq   

0000000000004c4c <safe_lshift_func_uint8_t_u_u>:
    4c4c:	f3 0f 1e fa          	endbr64 
    4c50:	55                   	push   %rbp
    4c51:	48 89 e5             	mov    %rsp,%rbp
    4c54:	89 f8                	mov    %edi,%eax
    4c56:	89 75 f8             	mov    %esi,-0x8(%rbp)
    4c59:	88 45 fc             	mov    %al,-0x4(%rbp)
    4c5c:	83 7d f8 1f          	cmpl   $0x1f,-0x8(%rbp)
    4c60:	77 25                	ja     4c87 <safe_lshift_func_uint8_t_u_u+0x3b>
    4c62:	0f b6 55 fc          	movzbl -0x4(%rbp),%edx
    4c66:	8b 45 f8             	mov    -0x8(%rbp),%eax
    4c69:	be ff 00 00 00       	mov    $0xff,%esi
    4c6e:	89 c1                	mov    %eax,%ecx
    4c70:	d3 fe                	sar    %cl,%esi
    4c72:	89 f0                	mov    %esi,%eax
    4c74:	39 c2                	cmp    %eax,%edx
    4c76:	7f 0f                	jg     4c87 <safe_lshift_func_uint8_t_u_u+0x3b>
    4c78:	0f b6 55 fc          	movzbl -0x4(%rbp),%edx
    4c7c:	8b 45 f8             	mov    -0x8(%rbp),%eax
    4c7f:	89 c1                	mov    %eax,%ecx
    4c81:	d3 e2                	shl    %cl,%edx
    4c83:	89 d0                	mov    %edx,%eax
    4c85:	eb 04                	jmp    4c8b <safe_lshift_func_uint8_t_u_u+0x3f>
    4c87:	0f b6 45 fc          	movzbl -0x4(%rbp),%eax
    4c8b:	5d                   	pop    %rbp
    4c8c:	c3                   	retq   

0000000000004c8d <safe_rshift_func_uint8_t_u_s>:
    4c8d:	f3 0f 1e fa          	endbr64 
    4c91:	55                   	push   %rbp
    4c92:	48 89 e5             	mov    %rsp,%rbp
    4c95:	89 f8                	mov    %edi,%eax
    4c97:	89 75 f8             	mov    %esi,-0x8(%rbp)
    4c9a:	88 45 fc             	mov    %al,-0x4(%rbp)
    4c9d:	83 7d f8 00          	cmpl   $0x0,-0x8(%rbp)
    4ca1:	78 15                	js     4cb8 <safe_rshift_func_uint8_t_u_s+0x2b>
    4ca3:	83 7d f8 1f          	cmpl   $0x1f,-0x8(%rbp)
    4ca7:	7f 0f                	jg     4cb8 <safe_rshift_func_uint8_t_u_s+0x2b>
    4ca9:	0f b6 55 fc          	movzbl -0x4(%rbp),%edx
    4cad:	8b 45 f8             	mov    -0x8(%rbp),%eax
    4cb0:	89 c1                	mov    %eax,%ecx
    4cb2:	d3 fa                	sar    %cl,%edx
    4cb4:	89 d0                	mov    %edx,%eax
    4cb6:	eb 04                	jmp    4cbc <safe_rshift_func_uint8_t_u_s+0x2f>
    4cb8:	0f b6 45 fc          	movzbl -0x4(%rbp),%eax
    4cbc:	5d                   	pop    %rbp
    4cbd:	c3                   	retq   

0000000000004cbe <safe_rshift_func_uint8_t_u_u>:
    4cbe:	f3 0f 1e fa          	endbr64 
    4cc2:	55                   	push   %rbp
    4cc3:	48 89 e5             	mov    %rsp,%rbp
    4cc6:	89 f8                	mov    %edi,%eax
    4cc8:	89 75 f8             	mov    %esi,-0x8(%rbp)
    4ccb:	88 45 fc             	mov    %al,-0x4(%rbp)
    4cce:	83 7d f8 1f          	cmpl   $0x1f,-0x8(%rbp)
    4cd2:	77 0f                	ja     4ce3 <safe_rshift_func_uint8_t_u_u+0x25>
    4cd4:	0f b6 55 fc          	movzbl -0x4(%rbp),%edx
    4cd8:	8b 45 f8             	mov    -0x8(%rbp),%eax
    4cdb:	89 c1                	mov    %eax,%ecx
    4cdd:	d3 fa                	sar    %cl,%edx
    4cdf:	89 d0                	mov    %edx,%eax
    4ce1:	eb 04                	jmp    4ce7 <safe_rshift_func_uint8_t_u_u+0x29>
    4ce3:	0f b6 45 fc          	movzbl -0x4(%rbp),%eax
    4ce7:	5d                   	pop    %rbp
    4ce8:	c3                   	retq   

0000000000004ce9 <safe_unary_minus_func_uint16_t_u>:
    4ce9:	f3 0f 1e fa          	endbr64 
    4ced:	55                   	push   %rbp
    4cee:	48 89 e5             	mov    %rsp,%rbp
    4cf1:	89 f8                	mov    %edi,%eax
    4cf3:	66 89 45 fc          	mov    %ax,-0x4(%rbp)
    4cf7:	0f b7 45 fc          	movzwl -0x4(%rbp),%eax
    4cfb:	f7 d8                	neg    %eax
    4cfd:	5d                   	pop    %rbp
    4cfe:	c3                   	retq   

0000000000004cff <safe_add_func_uint16_t_u_u>:
    4cff:	f3 0f 1e fa          	endbr64 
    4d03:	55                   	push   %rbp
    4d04:	48 89 e5             	mov    %rsp,%rbp
    4d07:	89 fa                	mov    %edi,%edx
    4d09:	89 f0                	mov    %esi,%eax
    4d0b:	66 89 55 fc          	mov    %dx,-0x4(%rbp)
    4d0f:	66 89 45 f8          	mov    %ax,-0x8(%rbp)
    4d13:	0f b7 55 fc          	movzwl -0x4(%rbp),%edx
    4d17:	0f b7 45 f8          	movzwl -0x8(%rbp),%eax
    4d1b:	01 d0                	add    %edx,%eax
    4d1d:	5d                   	pop    %rbp
    4d1e:	c3                   	retq   

0000000000004d1f <safe_sub_func_uint16_t_u_u>:
    4d1f:	f3 0f 1e fa          	endbr64 
    4d23:	55                   	push   %rbp
    4d24:	48 89 e5             	mov    %rsp,%rbp
    4d27:	89 fa                	mov    %edi,%edx
    4d29:	89 f0                	mov    %esi,%eax
    4d2b:	66 89 55 fc          	mov    %dx,-0x4(%rbp)
    4d2f:	66 89 45 f8          	mov    %ax,-0x8(%rbp)
    4d33:	0f b7 45 fc          	movzwl -0x4(%rbp),%eax
    4d37:	66 2b 45 f8          	sub    -0x8(%rbp),%ax
    4d3b:	5d                   	pop    %rbp
    4d3c:	c3                   	retq   

0000000000004d3d <safe_mul_func_uint16_t_u_u>:
    4d3d:	f3 0f 1e fa          	endbr64 
    4d41:	55                   	push   %rbp
    4d42:	48 89 e5             	mov    %rsp,%rbp
    4d45:	89 fa                	mov    %edi,%edx
    4d47:	89 f0                	mov    %esi,%eax
    4d49:	66 89 55 fc          	mov    %dx,-0x4(%rbp)
    4d4d:	66 89 45 f8          	mov    %ax,-0x8(%rbp)
    4d51:	0f b7 45 fc          	movzwl -0x4(%rbp),%eax
    4d55:	66 0f af 45 f8       	imul   -0x8(%rbp),%ax
    4d5a:	5d                   	pop    %rbp
    4d5b:	c3                   	retq   

0000000000004d5c <safe_mod_func_uint16_t_u_u>:
    4d5c:	f3 0f 1e fa          	endbr64 
    4d60:	55                   	push   %rbp
    4d61:	48 89 e5             	mov    %rsp,%rbp
    4d64:	89 fa                	mov    %edi,%edx
    4d66:	89 f0                	mov    %esi,%eax
    4d68:	66 89 55 fc          	mov    %dx,-0x4(%rbp)
    4d6c:	66 89 45 f8          	mov    %ax,-0x8(%rbp)
    4d70:	66 83 7d f8 00       	cmpw   $0x0,-0x8(%rbp)
    4d75:	74 11                	je     4d88 <safe_mod_func_uint16_t_u_u+0x2c>
    4d77:	0f b7 45 fc          	movzwl -0x4(%rbp),%eax
    4d7b:	ba 00 00 00 00       	mov    $0x0,%edx
    4d80:	66 f7 75 f8          	divw   -0x8(%rbp)
    4d84:	89 d0                	mov    %edx,%eax
    4d86:	eb 04                	jmp    4d8c <safe_mod_func_uint16_t_u_u+0x30>
    4d88:	0f b7 45 fc          	movzwl -0x4(%rbp),%eax
    4d8c:	5d                   	pop    %rbp
    4d8d:	c3                   	retq   

0000000000004d8e <safe_div_func_uint16_t_u_u>:
    4d8e:	f3 0f 1e fa          	endbr64 
    4d92:	55                   	push   %rbp
    4d93:	48 89 e5             	mov    %rsp,%rbp
    4d96:	89 fa                	mov    %edi,%edx
    4d98:	89 f0                	mov    %esi,%eax
    4d9a:	66 89 55 fc          	mov    %dx,-0x4(%rbp)
    4d9e:	66 89 45 f8          	mov    %ax,-0x8(%rbp)
    4da2:	66 83 7d f8 00       	cmpw   $0x0,-0x8(%rbp)
    4da7:	74 0f                	je     4db8 <safe_div_func_uint16_t_u_u+0x2a>
    4da9:	0f b7 45 fc          	movzwl -0x4(%rbp),%eax
    4dad:	ba 00 00 00 00       	mov    $0x0,%edx
    4db2:	66 f7 75 f8          	divw   -0x8(%rbp)
    4db6:	eb 04                	jmp    4dbc <safe_div_func_uint16_t_u_u+0x2e>
    4db8:	0f b7 45 fc          	movzwl -0x4(%rbp),%eax
    4dbc:	5d                   	pop    %rbp
    4dbd:	c3                   	retq   

0000000000004dbe <safe_lshift_func_uint16_t_u_s>:
    4dbe:	f3 0f 1e fa          	endbr64 
    4dc2:	55                   	push   %rbp
    4dc3:	48 89 e5             	mov    %rsp,%rbp
    4dc6:	89 f8                	mov    %edi,%eax
    4dc8:	89 75 f8             	mov    %esi,-0x8(%rbp)
    4dcb:	66 89 45 fc          	mov    %ax,-0x4(%rbp)
    4dcf:	83 7d f8 00          	cmpl   $0x0,-0x8(%rbp)
    4dd3:	78 2b                	js     4e00 <safe_lshift_func_uint16_t_u_s+0x42>
    4dd5:	83 7d f8 1f          	cmpl   $0x1f,-0x8(%rbp)
    4dd9:	7f 25                	jg     4e00 <safe_lshift_func_uint16_t_u_s+0x42>
    4ddb:	0f b7 55 fc          	movzwl -0x4(%rbp),%edx
    4ddf:	8b 45 f8             	mov    -0x8(%rbp),%eax
    4de2:	be ff ff 00 00       	mov    $0xffff,%esi
    4de7:	89 c1                	mov    %eax,%ecx
    4de9:	d3 fe                	sar    %cl,%esi
    4deb:	89 f0                	mov    %esi,%eax
    4ded:	39 c2                	cmp    %eax,%edx
    4def:	7f 0f                	jg     4e00 <safe_lshift_func_uint16_t_u_s+0x42>
    4df1:	0f b7 55 fc          	movzwl -0x4(%rbp),%edx
    4df5:	8b 45 f8             	mov    -0x8(%rbp),%eax
    4df8:	89 c1                	mov    %eax,%ecx
    4dfa:	d3 e2                	shl    %cl,%edx
    4dfc:	89 d0                	mov    %edx,%eax
    4dfe:	eb 04                	jmp    4e04 <safe_lshift_func_uint16_t_u_s+0x46>
    4e00:	0f b7 45 fc          	movzwl -0x4(%rbp),%eax
    4e04:	5d                   	pop    %rbp
    4e05:	c3                   	retq   

0000000000004e06 <safe_lshift_func_uint16_t_u_u>:
    4e06:	f3 0f 1e fa          	endbr64 
    4e0a:	55                   	push   %rbp
    4e0b:	48 89 e5             	mov    %rsp,%rbp
    4e0e:	89 f8                	mov    %edi,%eax
    4e10:	89 75 f8             	mov    %esi,-0x8(%rbp)
    4e13:	66 89 45 fc          	mov    %ax,-0x4(%rbp)
    4e17:	83 7d f8 1f          	cmpl   $0x1f,-0x8(%rbp)
    4e1b:	77 25                	ja     4e42 <safe_lshift_func_uint16_t_u_u+0x3c>
    4e1d:	0f b7 55 fc          	movzwl -0x4(%rbp),%edx
    4e21:	8b 45 f8             	mov    -0x8(%rbp),%eax
    4e24:	be ff ff 00 00       	mov    $0xffff,%esi
    4e29:	89 c1                	mov    %eax,%ecx
    4e2b:	d3 fe                	sar    %cl,%esi
    4e2d:	89 f0                	mov    %esi,%eax
    4e2f:	39 c2                	cmp    %eax,%edx
    4e31:	7f 0f                	jg     4e42 <safe_lshift_func_uint16_t_u_u+0x3c>
    4e33:	0f b7 55 fc          	movzwl -0x4(%rbp),%edx
    4e37:	8b 45 f8             	mov    -0x8(%rbp),%eax
    4e3a:	89 c1                	mov    %eax,%ecx
    4e3c:	d3 e2                	shl    %cl,%edx
    4e3e:	89 d0                	mov    %edx,%eax
    4e40:	eb 04                	jmp    4e46 <safe_lshift_func_uint16_t_u_u+0x40>
    4e42:	0f b7 45 fc          	movzwl -0x4(%rbp),%eax
    4e46:	5d                   	pop    %rbp
    4e47:	c3                   	retq   

0000000000004e48 <safe_rshift_func_uint16_t_u_s>:
    4e48:	f3 0f 1e fa          	endbr64 
    4e4c:	55                   	push   %rbp
    4e4d:	48 89 e5             	mov    %rsp,%rbp
    4e50:	89 f8                	mov    %edi,%eax
    4e52:	89 75 f8             	mov    %esi,-0x8(%rbp)
    4e55:	66 89 45 fc          	mov    %ax,-0x4(%rbp)
    4e59:	83 7d f8 00          	cmpl   $0x0,-0x8(%rbp)
    4e5d:	78 15                	js     4e74 <safe_rshift_func_uint16_t_u_s+0x2c>
    4e5f:	83 7d f8 1f          	cmpl   $0x1f,-0x8(%rbp)
    4e63:	7f 0f                	jg     4e74 <safe_rshift_func_uint16_t_u_s+0x2c>
    4e65:	0f b7 55 fc          	movzwl -0x4(%rbp),%edx
    4e69:	8b 45 f8             	mov    -0x8(%rbp),%eax
    4e6c:	89 c1                	mov    %eax,%ecx
    4e6e:	d3 fa                	sar    %cl,%edx
    4e70:	89 d0                	mov    %edx,%eax
    4e72:	eb 04                	jmp    4e78 <safe_rshift_func_uint16_t_u_s+0x30>
    4e74:	0f b7 45 fc          	movzwl -0x4(%rbp),%eax
    4e78:	5d                   	pop    %rbp
    4e79:	c3                   	retq   

0000000000004e7a <safe_rshift_func_uint16_t_u_u>:
    4e7a:	f3 0f 1e fa          	endbr64 
    4e7e:	55                   	push   %rbp
    4e7f:	48 89 e5             	mov    %rsp,%rbp
    4e82:	89 f8                	mov    %edi,%eax
    4e84:	89 75 f8             	mov    %esi,-0x8(%rbp)
    4e87:	66 89 45 fc          	mov    %ax,-0x4(%rbp)
    4e8b:	83 7d f8 1f          	cmpl   $0x1f,-0x8(%rbp)
    4e8f:	77 0f                	ja     4ea0 <safe_rshift_func_uint16_t_u_u+0x26>
    4e91:	0f b7 55 fc          	movzwl -0x4(%rbp),%edx
    4e95:	8b 45 f8             	mov    -0x8(%rbp),%eax
    4e98:	89 c1                	mov    %eax,%ecx
    4e9a:	d3 fa                	sar    %cl,%edx
    4e9c:	89 d0                	mov    %edx,%eax
    4e9e:	eb 04                	jmp    4ea4 <safe_rshift_func_uint16_t_u_u+0x2a>
    4ea0:	0f b7 45 fc          	movzwl -0x4(%rbp),%eax
    4ea4:	5d                   	pop    %rbp
    4ea5:	c3                   	retq   

0000000000004ea6 <safe_unary_minus_func_uint32_t_u>:
    4ea6:	f3 0f 1e fa          	endbr64 
    4eaa:	55                   	push   %rbp
    4eab:	48 89 e5             	mov    %rsp,%rbp
    4eae:	89 7d fc             	mov    %edi,-0x4(%rbp)
    4eb1:	8b 45 fc             	mov    -0x4(%rbp),%eax
    4eb4:	f7 d8                	neg    %eax
    4eb6:	5d                   	pop    %rbp
    4eb7:	c3                   	retq   

0000000000004eb8 <safe_add_func_uint32_t_u_u>:
    4eb8:	f3 0f 1e fa          	endbr64 
    4ebc:	55                   	push   %rbp
    4ebd:	48 89 e5             	mov    %rsp,%rbp
    4ec0:	89 7d fc             	mov    %edi,-0x4(%rbp)
    4ec3:	89 75 f8             	mov    %esi,-0x8(%rbp)
    4ec6:	8b 55 fc             	mov    -0x4(%rbp),%edx
    4ec9:	8b 45 f8             	mov    -0x8(%rbp),%eax
    4ecc:	01 d0                	add    %edx,%eax
    4ece:	5d                   	pop    %rbp
    4ecf:	c3                   	retq   

0000000000004ed0 <safe_sub_func_uint32_t_u_u>:
    4ed0:	f3 0f 1e fa          	endbr64 
    4ed4:	55                   	push   %rbp
    4ed5:	48 89 e5             	mov    %rsp,%rbp
    4ed8:	89 7d fc             	mov    %edi,-0x4(%rbp)
    4edb:	89 75 f8             	mov    %esi,-0x8(%rbp)
    4ede:	8b 45 fc             	mov    -0x4(%rbp),%eax
    4ee1:	2b 45 f8             	sub    -0x8(%rbp),%eax
    4ee4:	5d                   	pop    %rbp
    4ee5:	c3                   	retq   

0000000000004ee6 <safe_mul_func_uint32_t_u_u>:
    4ee6:	f3 0f 1e fa          	endbr64 
    4eea:	55                   	push   %rbp
    4eeb:	48 89 e5             	mov    %rsp,%rbp
    4eee:	89 7d fc             	mov    %edi,-0x4(%rbp)
    4ef1:	89 75 f8             	mov    %esi,-0x8(%rbp)
    4ef4:	8b 45 fc             	mov    -0x4(%rbp),%eax
    4ef7:	0f af 45 f8          	imul   -0x8(%rbp),%eax
    4efb:	5d                   	pop    %rbp
    4efc:	c3                   	retq   

0000000000004efd <safe_mod_func_uint32_t_u_u>:
    4efd:	f3 0f 1e fa          	endbr64 
    4f01:	55                   	push   %rbp
    4f02:	48 89 e5             	mov    %rsp,%rbp
    4f05:	89 7d fc             	mov    %edi,-0x4(%rbp)
    4f08:	89 75 f8             	mov    %esi,-0x8(%rbp)
    4f0b:	83 7d f8 00          	cmpl   $0x0,-0x8(%rbp)
    4f0f:	74 0f                	je     4f20 <safe_mod_func_uint32_t_u_u+0x23>
    4f11:	8b 45 fc             	mov    -0x4(%rbp),%eax
    4f14:	ba 00 00 00 00       	mov    $0x0,%edx
    4f19:	f7 75 f8             	divl   -0x8(%rbp)
    4f1c:	89 d0                	mov    %edx,%eax
    4f1e:	eb 03                	jmp    4f23 <safe_mod_func_uint32_t_u_u+0x26>
    4f20:	8b 45 fc             	mov    -0x4(%rbp),%eax
    4f23:	5d                   	pop    %rbp
    4f24:	c3                   	retq   

0000000000004f25 <safe_div_func_uint32_t_u_u>:
    4f25:	f3 0f 1e fa          	endbr64 
    4f29:	55                   	push   %rbp
    4f2a:	48 89 e5             	mov    %rsp,%rbp
    4f2d:	89 7d fc             	mov    %edi,-0x4(%rbp)
    4f30:	89 75 f8             	mov    %esi,-0x8(%rbp)
    4f33:	83 7d f8 00          	cmpl   $0x0,-0x8(%rbp)
    4f37:	74 0d                	je     4f46 <safe_div_func_uint32_t_u_u+0x21>
    4f39:	8b 45 fc             	mov    -0x4(%rbp),%eax
    4f3c:	ba 00 00 00 00       	mov    $0x0,%edx
    4f41:	f7 75 f8             	divl   -0x8(%rbp)
    4f44:	eb 03                	jmp    4f49 <safe_div_func_uint32_t_u_u+0x24>
    4f46:	8b 45 fc             	mov    -0x4(%rbp),%eax
    4f49:	5d                   	pop    %rbp
    4f4a:	c3                   	retq   

0000000000004f4b <safe_lshift_func_uint32_t_u_s>:
    4f4b:	f3 0f 1e fa          	endbr64 
    4f4f:	55                   	push   %rbp
    4f50:	48 89 e5             	mov    %rsp,%rbp
    4f53:	89 7d fc             	mov    %edi,-0x4(%rbp)
    4f56:	89 75 f8             	mov    %esi,-0x8(%rbp)
    4f59:	83 7d f8 00          	cmpl   $0x0,-0x8(%rbp)
    4f5d:	78 27                	js     4f86 <safe_lshift_func_uint32_t_u_s+0x3b>
    4f5f:	83 7d f8 1f          	cmpl   $0x1f,-0x8(%rbp)
    4f63:	7f 21                	jg     4f86 <safe_lshift_func_uint32_t_u_s+0x3b>
    4f65:	8b 45 f8             	mov    -0x8(%rbp),%eax
    4f68:	ba ff ff ff ff       	mov    $0xffffffff,%edx
    4f6d:	89 c1                	mov    %eax,%ecx
    4f6f:	d3 ea                	shr    %cl,%edx
    4f71:	89 d0                	mov    %edx,%eax
    4f73:	39 45 fc             	cmp    %eax,-0x4(%rbp)
    4f76:	77 0e                	ja     4f86 <safe_lshift_func_uint32_t_u_s+0x3b>
    4f78:	8b 45 f8             	mov    -0x8(%rbp),%eax
    4f7b:	8b 55 fc             	mov    -0x4(%rbp),%edx
    4f7e:	89 c1                	mov    %eax,%ecx
    4f80:	d3 e2                	shl    %cl,%edx
    4f82:	89 d0                	mov    %edx,%eax
    4f84:	eb 03                	jmp    4f89 <safe_lshift_func_uint32_t_u_s+0x3e>
    4f86:	8b 45 fc             	mov    -0x4(%rbp),%eax
    4f89:	5d                   	pop    %rbp
    4f8a:	c3                   	retq   

0000000000004f8b <safe_lshift_func_uint32_t_u_u>:
    4f8b:	f3 0f 1e fa          	endbr64 
    4f8f:	55                   	push   %rbp
    4f90:	48 89 e5             	mov    %rsp,%rbp
    4f93:	89 7d fc             	mov    %edi,-0x4(%rbp)
    4f96:	89 75 f8             	mov    %esi,-0x8(%rbp)
    4f99:	83 7d f8 1f          	cmpl   $0x1f,-0x8(%rbp)
    4f9d:	77 21                	ja     4fc0 <safe_lshift_func_uint32_t_u_u+0x35>
    4f9f:	8b 45 f8             	mov    -0x8(%rbp),%eax
    4fa2:	ba ff ff ff ff       	mov    $0xffffffff,%edx
    4fa7:	89 c1                	mov    %eax,%ecx
    4fa9:	d3 ea                	shr    %cl,%edx
    4fab:	89 d0                	mov    %edx,%eax
    4fad:	39 45 fc             	cmp    %eax,-0x4(%rbp)
    4fb0:	77 0e                	ja     4fc0 <safe_lshift_func_uint32_t_u_u+0x35>
    4fb2:	8b 45 f8             	mov    -0x8(%rbp),%eax
    4fb5:	8b 55 fc             	mov    -0x4(%rbp),%edx
    4fb8:	89 c1                	mov    %eax,%ecx
    4fba:	d3 e2                	shl    %cl,%edx
    4fbc:	89 d0                	mov    %edx,%eax
    4fbe:	eb 03                	jmp    4fc3 <safe_lshift_func_uint32_t_u_u+0x38>
    4fc0:	8b 45 fc             	mov    -0x4(%rbp),%eax
    4fc3:	5d                   	pop    %rbp
    4fc4:	c3                   	retq   

0000000000004fc5 <safe_rshift_func_uint32_t_u_s>:
    4fc5:	f3 0f 1e fa          	endbr64 
    4fc9:	55                   	push   %rbp
    4fca:	48 89 e5             	mov    %rsp,%rbp
    4fcd:	89 7d fc             	mov    %edi,-0x4(%rbp)
    4fd0:	89 75 f8             	mov    %esi,-0x8(%rbp)
    4fd3:	83 7d f8 00          	cmpl   $0x0,-0x8(%rbp)
    4fd7:	78 14                	js     4fed <safe_rshift_func_uint32_t_u_s+0x28>
    4fd9:	83 7d f8 1f          	cmpl   $0x1f,-0x8(%rbp)
    4fdd:	7f 0e                	jg     4fed <safe_rshift_func_uint32_t_u_s+0x28>
    4fdf:	8b 45 f8             	mov    -0x8(%rbp),%eax
    4fe2:	8b 55 fc             	mov    -0x4(%rbp),%edx
    4fe5:	89 c1                	mov    %eax,%ecx
    4fe7:	d3 ea                	shr    %cl,%edx
    4fe9:	89 d0                	mov    %edx,%eax
    4feb:	eb 03                	jmp    4ff0 <safe_rshift_func_uint32_t_u_s+0x2b>
    4fed:	8b 45 fc             	mov    -0x4(%rbp),%eax
    4ff0:	5d                   	pop    %rbp
    4ff1:	c3                   	retq   

0000000000004ff2 <safe_rshift_func_uint32_t_u_u>:
    4ff2:	f3 0f 1e fa          	endbr64 
    4ff6:	55                   	push   %rbp
    4ff7:	48 89 e5             	mov    %rsp,%rbp
    4ffa:	89 7d fc             	mov    %edi,-0x4(%rbp)
    4ffd:	89 75 f8             	mov    %esi,-0x8(%rbp)
    5000:	83 7d f8 1f          	cmpl   $0x1f,-0x8(%rbp)
    5004:	77 0e                	ja     5014 <safe_rshift_func_uint32_t_u_u+0x22>
    5006:	8b 45 f8             	mov    -0x8(%rbp),%eax
    5009:	8b 55 fc             	mov    -0x4(%rbp),%edx
    500c:	89 c1                	mov    %eax,%ecx
    500e:	d3 ea                	shr    %cl,%edx
    5010:	89 d0                	mov    %edx,%eax
    5012:	eb 03                	jmp    5017 <safe_rshift_func_uint32_t_u_u+0x25>
    5014:	8b 45 fc             	mov    -0x4(%rbp),%eax
    5017:	5d                   	pop    %rbp
    5018:	c3                   	retq   

0000000000005019 <safe_unary_minus_func_uint64_t_u>:
    5019:	f3 0f 1e fa          	endbr64 
    501d:	55                   	push   %rbp
    501e:	48 89 e5             	mov    %rsp,%rbp
    5021:	48 89 7d f8          	mov    %rdi,-0x8(%rbp)
    5025:	48 8b 45 f8          	mov    -0x8(%rbp),%rax
    5029:	48 f7 d8             	neg    %rax
    502c:	5d                   	pop    %rbp
    502d:	c3                   	retq   

000000000000502e <safe_add_func_uint64_t_u_u>:
    502e:	f3 0f 1e fa          	endbr64 
    5032:	55                   	push   %rbp
    5033:	48 89 e5             	mov    %rsp,%rbp
    5036:	48 89 7d f8          	mov    %rdi,-0x8(%rbp)
    503a:	48 89 75 f0          	mov    %rsi,-0x10(%rbp)
    503e:	48 8b 55 f8          	mov    -0x8(%rbp),%rdx
    5042:	48 8b 45 f0          	mov    -0x10(%rbp),%rax
    5046:	48 01 d0             	add    %rdx,%rax
    5049:	5d                   	pop    %rbp
    504a:	c3                   	retq   

000000000000504b <safe_sub_func_uint64_t_u_u>:
    504b:	f3 0f 1e fa          	endbr64 
    504f:	55                   	push   %rbp
    5050:	48 89 e5             	mov    %rsp,%rbp
    5053:	48 89 7d f8          	mov    %rdi,-0x8(%rbp)
    5057:	48 89 75 f0          	mov    %rsi,-0x10(%rbp)
    505b:	48 8b 45 f8          	mov    -0x8(%rbp),%rax
    505f:	48 2b 45 f0          	sub    -0x10(%rbp),%rax
    5063:	5d                   	pop    %rbp
    5064:	c3                   	retq   

0000000000005065 <safe_mul_func_uint64_t_u_u>:
    5065:	f3 0f 1e fa          	endbr64 
    5069:	55                   	push   %rbp
    506a:	48 89 e5             	mov    %rsp,%rbp
    506d:	48 89 7d f8          	mov    %rdi,-0x8(%rbp)
    5071:	48 89 75 f0          	mov    %rsi,-0x10(%rbp)
    5075:	48 8b 45 f8          	mov    -0x8(%rbp),%rax
    5079:	48 0f af 45 f0       	imul   -0x10(%rbp),%rax
    507e:	5d                   	pop    %rbp
    507f:	c3                   	retq   

0000000000005080 <safe_mod_func_uint64_t_u_u>:
    5080:	f3 0f 1e fa          	endbr64 
    5084:	55                   	push   %rbp
    5085:	48 89 e5             	mov    %rsp,%rbp
    5088:	48 89 7d f8          	mov    %rdi,-0x8(%rbp)
    508c:	48 89 75 f0          	mov    %rsi,-0x10(%rbp)
    5090:	48 83 7d f0 00       	cmpq   $0x0,-0x10(%rbp)
    5095:	74 12                	je     50a9 <safe_mod_func_uint64_t_u_u+0x29>
    5097:	48 8b 45 f8          	mov    -0x8(%rbp),%rax
    509b:	ba 00 00 00 00       	mov    $0x0,%edx
    50a0:	48 f7 75 f0          	divq   -0x10(%rbp)
    50a4:	48 89 d0             	mov    %rdx,%rax
    50a7:	eb 04                	jmp    50ad <safe_mod_func_uint64_t_u_u+0x2d>
    50a9:	48 8b 45 f8          	mov    -0x8(%rbp),%rax
    50ad:	5d                   	pop    %rbp
    50ae:	c3                   	retq   

00000000000050af <safe_div_func_uint64_t_u_u>:
    50af:	f3 0f 1e fa          	endbr64 
    50b3:	55                   	push   %rbp
    50b4:	48 89 e5             	mov    %rsp,%rbp
    50b7:	48 89 7d f8          	mov    %rdi,-0x8(%rbp)
    50bb:	48 89 75 f0          	mov    %rsi,-0x10(%rbp)
    50bf:	48 83 7d f0 00       	cmpq   $0x0,-0x10(%rbp)
    50c4:	74 0f                	je     50d5 <safe_div_func_uint64_t_u_u+0x26>
    50c6:	48 8b 45 f8          	mov    -0x8(%rbp),%rax
    50ca:	ba 00 00 00 00       	mov    $0x0,%edx
    50cf:	48 f7 75 f0          	divq   -0x10(%rbp)
    50d3:	eb 04                	jmp    50d9 <safe_div_func_uint64_t_u_u+0x2a>
    50d5:	48 8b 45 f8          	mov    -0x8(%rbp),%rax
    50d9:	5d                   	pop    %rbp
    50da:	c3                   	retq   

00000000000050db <safe_lshift_func_uint64_t_u_s>:
    50db:	f3 0f 1e fa          	endbr64 
    50df:	55                   	push   %rbp
    50e0:	48 89 e5             	mov    %rsp,%rbp
    50e3:	48 89 7d f8          	mov    %rdi,-0x8(%rbp)
    50e7:	89 75 f4             	mov    %esi,-0xc(%rbp)
    50ea:	83 7d f4 00          	cmpl   $0x0,-0xc(%rbp)
    50ee:	78 2f                	js     511f <safe_lshift_func_uint64_t_u_s+0x44>
    50f0:	83 7d f4 1f          	cmpl   $0x1f,-0xc(%rbp)
    50f4:	7f 29                	jg     511f <safe_lshift_func_uint64_t_u_s+0x44>
    50f6:	8b 45 f4             	mov    -0xc(%rbp),%eax
    50f9:	48 c7 c2 ff ff ff ff 	mov    $0xffffffffffffffff,%rdx
    5100:	89 c1                	mov    %eax,%ecx
    5102:	48 d3 ea             	shr    %cl,%rdx
    5105:	48 89 d0             	mov    %rdx,%rax
    5108:	48 39 45 f8          	cmp    %rax,-0x8(%rbp)
    510c:	77 11                	ja     511f <safe_lshift_func_uint64_t_u_s+0x44>
    510e:	8b 45 f4             	mov    -0xc(%rbp),%eax
    5111:	48 8b 55 f8          	mov    -0x8(%rbp),%rdx
    5115:	89 c1                	mov    %eax,%ecx
    5117:	48 d3 e2             	shl    %cl,%rdx
    511a:	48 89 d0             	mov    %rdx,%rax
    511d:	eb 04                	jmp    5123 <safe_lshift_func_uint64_t_u_s+0x48>
    511f:	48 8b 45 f8          	mov    -0x8(%rbp),%rax
    5123:	5d                   	pop    %rbp
    5124:	c3                   	retq   

0000000000005125 <safe_lshift_func_uint64_t_u_u>:
    5125:	f3 0f 1e fa          	endbr64 
    5129:	55                   	push   %rbp
    512a:	48 89 e5             	mov    %rsp,%rbp
    512d:	48 89 7d f8          	mov    %rdi,-0x8(%rbp)
    5131:	89 75 f4             	mov    %esi,-0xc(%rbp)
    5134:	83 7d f4 1f          	cmpl   $0x1f,-0xc(%rbp)
    5138:	77 29                	ja     5163 <safe_lshift_func_uint64_t_u_u+0x3e>
    513a:	8b 45 f4             	mov    -0xc(%rbp),%eax
    513d:	48 c7 c2 ff ff ff ff 	mov    $0xffffffffffffffff,%rdx
    5144:	89 c1                	mov    %eax,%ecx
    5146:	48 d3 ea             	shr    %cl,%rdx
    5149:	48 89 d0             	mov    %rdx,%rax
    514c:	48 39 45 f8          	cmp    %rax,-0x8(%rbp)
    5150:	77 11                	ja     5163 <safe_lshift_func_uint64_t_u_u+0x3e>
    5152:	8b 45 f4             	mov    -0xc(%rbp),%eax
    5155:	48 8b 55 f8          	mov    -0x8(%rbp),%rdx
    5159:	89 c1                	mov    %eax,%ecx
    515b:	48 d3 e2             	shl    %cl,%rdx
    515e:	48 89 d0             	mov    %rdx,%rax
    5161:	eb 04                	jmp    5167 <safe_lshift_func_uint64_t_u_u+0x42>
    5163:	48 8b 45 f8          	mov    -0x8(%rbp),%rax
    5167:	5d                   	pop    %rbp
    5168:	c3                   	retq   

0000000000005169 <safe_rshift_func_uint64_t_u_s>:
    5169:	f3 0f 1e fa          	endbr64 
    516d:	55                   	push   %rbp
    516e:	48 89 e5             	mov    %rsp,%rbp
    5171:	48 89 7d f8          	mov    %rdi,-0x8(%rbp)
    5175:	89 75 f4             	mov    %esi,-0xc(%rbp)
    5178:	83 7d f4 00          	cmpl   $0x0,-0xc(%rbp)
    517c:	78 17                	js     5195 <safe_rshift_func_uint64_t_u_s+0x2c>
    517e:	83 7d f4 1f          	cmpl   $0x1f,-0xc(%rbp)
    5182:	7f 11                	jg     5195 <safe_rshift_func_uint64_t_u_s+0x2c>
    5184:	8b 45 f4             	mov    -0xc(%rbp),%eax
    5187:	48 8b 55 f8          	mov    -0x8(%rbp),%rdx
    518b:	89 c1                	mov    %eax,%ecx
    518d:	48 d3 ea             	shr    %cl,%rdx
    5190:	48 89 d0             	mov    %rdx,%rax
    5193:	eb 04                	jmp    5199 <safe_rshift_func_uint64_t_u_s+0x30>
    5195:	48 8b 45 f8          	mov    -0x8(%rbp),%rax
    5199:	5d                   	pop    %rbp
    519a:	c3                   	retq   

000000000000519b <safe_rshift_func_uint64_t_u_u>:
    519b:	f3 0f 1e fa          	endbr64 
    519f:	55                   	push   %rbp
    51a0:	48 89 e5             	mov    %rsp,%rbp
    51a3:	48 89 7d f8          	mov    %rdi,-0x8(%rbp)
    51a7:	89 75 f4             	mov    %esi,-0xc(%rbp)
    51aa:	83 7d f4 1f          	cmpl   $0x1f,-0xc(%rbp)
    51ae:	77 11                	ja     51c1 <safe_rshift_func_uint64_t_u_u+0x26>
    51b0:	8b 45 f4             	mov    -0xc(%rbp),%eax
    51b3:	48 8b 55 f8          	mov    -0x8(%rbp),%rdx
    51b7:	89 c1                	mov    %eax,%ecx
    51b9:	48 d3 ea             	shr    %cl,%rdx
    51bc:	48 89 d0             	mov    %rdx,%rax
    51bf:	eb 04                	jmp    51c5 <safe_rshift_func_uint64_t_u_u+0x2a>
    51c1:	48 8b 45 f8          	mov    -0x8(%rbp),%rax
    51c5:	5d                   	pop    %rbp
    51c6:	c3                   	retq   

00000000000051c7 <safe_add_func_float_f_f>:
    51c7:	f3 0f 1e fa          	endbr64 
    51cb:	55                   	push   %rbp
    51cc:	48 89 e5             	mov    %rsp,%rbp
    51cf:	f3 0f 11 45 fc       	movss  %xmm0,-0x4(%rbp)
    51d4:	f3 0f 11 4d f8       	movss  %xmm1,-0x8(%rbp)
    51d9:	f3 0f 10 4d fc       	movss  -0x4(%rbp),%xmm1
    51de:	f3 0f 10 05 26 67 00 	movss  0x6726(%rip),%xmm0        # b90c <g_291+0x8b8>
    51e5:	00 
    51e6:	f3 0f 59 c8          	mulss  %xmm0,%xmm1
    51ea:	f3 0f 10 55 f8       	movss  -0x8(%rbp),%xmm2
    51ef:	f3 0f 10 05 15 67 00 	movss  0x6715(%rip),%xmm0        # b90c <g_291+0x8b8>
    51f6:	00 
    51f7:	f3 0f 59 c2          	mulss  %xmm2,%xmm0
    51fb:	f3 0f 58 c1          	addss  %xmm1,%xmm0
    51ff:	f3 0f 10 0d 09 67 00 	movss  0x6709(%rip),%xmm1        # b910 <g_291+0x8bc>
    5206:	00 
    5207:	0f 54 c1             	andps  %xmm1,%xmm0
    520a:	0f 2f 05 0f 67 00 00 	comiss 0x670f(%rip),%xmm0        # b920 <g_291+0x8cc>
    5211:	76 07                	jbe    521a <safe_add_func_float_f_f+0x53>
    5213:	f3 0f 10 45 fc       	movss  -0x4(%rbp),%xmm0
    5218:	eb 0a                	jmp    5224 <safe_add_func_float_f_f+0x5d>
    521a:	f3 0f 10 45 fc       	movss  -0x4(%rbp),%xmm0
    521f:	f3 0f 58 45 f8       	addss  -0x8(%rbp),%xmm0
    5224:	5d                   	pop    %rbp
    5225:	c3                   	retq   

0000000000005226 <safe_sub_func_float_f_f>:
    5226:	f3 0f 1e fa          	endbr64 
    522a:	55                   	push   %rbp
    522b:	48 89 e5             	mov    %rsp,%rbp
    522e:	f3 0f 11 45 fc       	movss  %xmm0,-0x4(%rbp)
    5233:	f3 0f 11 4d f8       	movss  %xmm1,-0x8(%rbp)
    5238:	f3 0f 10 4d fc       	movss  -0x4(%rbp),%xmm1
    523d:	f3 0f 10 05 c7 66 00 	movss  0x66c7(%rip),%xmm0        # b90c <g_291+0x8b8>
    5244:	00 
    5245:	f3 0f 59 c1          	mulss  %xmm1,%xmm0
    5249:	f3 0f 10 55 f8       	movss  -0x8(%rbp),%xmm2
    524e:	f3 0f 10 0d b6 66 00 	movss  0x66b6(%rip),%xmm1        # b90c <g_291+0x8b8>
    5255:	00 
    5256:	f3 0f 59 ca          	mulss  %xmm2,%xmm1
    525a:	f3 0f 5c c1          	subss  %xmm1,%xmm0
    525e:	f3 0f 10 0d aa 66 00 	movss  0x66aa(%rip),%xmm1        # b910 <g_291+0x8bc>
    5265:	00 
    5266:	0f 54 c1             	andps  %xmm1,%xmm0
    5269:	0f 2f 05 b0 66 00 00 	comiss 0x66b0(%rip),%xmm0        # b920 <g_291+0x8cc>
    5270:	76 07                	jbe    5279 <safe_sub_func_float_f_f+0x53>
    5272:	f3 0f 10 45 fc       	movss  -0x4(%rbp),%xmm0
    5277:	eb 0a                	jmp    5283 <safe_sub_func_float_f_f+0x5d>
    5279:	f3 0f 10 45 fc       	movss  -0x4(%rbp),%xmm0
    527e:	f3 0f 5c 45 f8       	subss  -0x8(%rbp),%xmm0
    5283:	5d                   	pop    %rbp
    5284:	c3                   	retq   

0000000000005285 <safe_mul_func_float_f_f>:
    5285:	f3 0f 1e fa          	endbr64 
    5289:	55                   	push   %rbp
    528a:	48 89 e5             	mov    %rsp,%rbp
    528d:	f3 0f 11 45 fc       	movss  %xmm0,-0x4(%rbp)
    5292:	f3 0f 11 4d f8       	movss  %xmm1,-0x8(%rbp)
    5297:	f3 0f 10 4d fc       	movss  -0x4(%rbp),%xmm1
    529c:	f3 0f 10 05 80 66 00 	movss  0x6680(%rip),%xmm0        # b924 <g_291+0x8d0>
    52a3:	00 
    52a4:	f3 0f 59 c8          	mulss  %xmm0,%xmm1
    52a8:	f3 0f 10 55 f8       	movss  -0x8(%rbp),%xmm2
    52ad:	f3 0f 10 05 73 66 00 	movss  0x6673(%rip),%xmm0        # b928 <g_291+0x8d4>
    52b4:	00 
    52b5:	f3 0f 59 c2          	mulss  %xmm2,%xmm0
    52b9:	f3 0f 59 c1          	mulss  %xmm1,%xmm0
    52bd:	f3 0f 10 0d 4b 66 00 	movss  0x664b(%rip),%xmm1        # b910 <g_291+0x8bc>
    52c4:	00 
    52c5:	0f 54 c1             	andps  %xmm1,%xmm0
    52c8:	0f 2f 05 5d 66 00 00 	comiss 0x665d(%rip),%xmm0        # b92c <g_291+0x8d8>
    52cf:	76 07                	jbe    52d8 <safe_mul_func_float_f_f+0x53>
    52d1:	f3 0f 10 45 fc       	movss  -0x4(%rbp),%xmm0
    52d6:	eb 0a                	jmp    52e2 <safe_mul_func_float_f_f+0x5d>
    52d8:	f3 0f 10 45 fc       	movss  -0x4(%rbp),%xmm0
    52dd:	f3 0f 59 45 f8       	mulss  -0x8(%rbp),%xmm0
    52e2:	5d                   	pop    %rbp
    52e3:	c3                   	retq   

00000000000052e4 <safe_div_func_float_f_f>:
    52e4:	f3 0f 1e fa          	endbr64 
    52e8:	55                   	push   %rbp
    52e9:	48 89 e5             	mov    %rsp,%rbp
    52ec:	f3 0f 11 45 fc       	movss  %xmm0,-0x4(%rbp)
    52f1:	f3 0f 11 4d f8       	movss  %xmm1,-0x8(%rbp)
    52f6:	f3 0f 10 45 f8       	movss  -0x8(%rbp),%xmm0
    52fb:	f3 0f 10 0d 0d 66 00 	movss  0x660d(%rip),%xmm1        # b910 <g_291+0x8bc>
    5302:	00 
    5303:	0f 54 c8             	andps  %xmm0,%xmm1
    5306:	f3 0f 10 05 22 66 00 	movss  0x6622(%rip),%xmm0        # b930 <g_291+0x8dc>
    530d:	00 
    530e:	0f 2f c1             	comiss %xmm1,%xmm0
    5311:	0f 97 c0             	seta   %al
    5314:	83 f0 01             	xor    $0x1,%eax
    5317:	84 c0                	test   %al,%al
    5319:	75 56                	jne    5371 <safe_div_func_float_f_f+0x8d>
    531b:	66 0f ef c0          	pxor   %xmm0,%xmm0
    531f:	0f 2e 45 f8          	ucomiss -0x8(%rbp),%xmm0
    5323:	7a 0a                	jp     532f <safe_div_func_float_f_f+0x4b>
    5325:	66 0f ef c0          	pxor   %xmm0,%xmm0
    5329:	0f 2e 45 f8          	ucomiss -0x8(%rbp),%xmm0
    532d:	74 4e                	je     537d <safe_div_func_float_f_f+0x99>
    532f:	f3 0f 10 4d fc       	movss  -0x4(%rbp),%xmm1
    5334:	f3 0f 10 05 f8 65 00 	movss  0x65f8(%rip),%xmm0        # b934 <g_291+0x8e0>
    533b:	00 
    533c:	f3 0f 59 c1          	mulss  %xmm1,%xmm0
    5340:	f3 0f 10 55 f8       	movss  -0x8(%rbp),%xmm2
    5345:	f3 0f 10 0d eb 65 00 	movss  0x65eb(%rip),%xmm1        # b938 <g_291+0x8e4>
    534c:	00 
    534d:	f3 0f 59 ca          	mulss  %xmm2,%xmm1
    5351:	f3 0f 5e c1          	divss  %xmm1,%xmm0
    5355:	f3 0f 10 0d b3 65 00 	movss  0x65b3(%rip),%xmm1        # b910 <g_291+0x8bc>
    535c:	00 
    535d:	0f 54 c1             	andps  %xmm1,%xmm0
    5360:	0f 2f 05 d5 65 00 00 	comiss 0x65d5(%rip),%xmm0        # b93c <g_291+0x8e8>
    5367:	0f 97 c0             	seta   %al
    536a:	83 f0 01             	xor    $0x1,%eax
    536d:	84 c0                	test   %al,%al
    536f:	74 0c                	je     537d <safe_div_func_float_f_f+0x99>
    5371:	f3 0f 10 45 fc       	movss  -0x4(%rbp),%xmm0
    5376:	f3 0f 5e 45 f8       	divss  -0x8(%rbp),%xmm0
    537b:	eb 05                	jmp    5382 <safe_div_func_float_f_f+0x9e>
    537d:	f3 0f 10 45 fc       	movss  -0x4(%rbp),%xmm0
    5382:	5d                   	pop    %rbp
    5383:	c3                   	retq   

0000000000005384 <safe_add_func_double_f_f>:
    5384:	f3 0f 1e fa          	endbr64 
    5388:	55                   	push   %rbp
    5389:	48 89 e5             	mov    %rsp,%rbp
    538c:	f2 0f 11 45 f8       	movsd  %xmm0,-0x8(%rbp)
    5391:	f2 0f 11 4d f0       	movsd  %xmm1,-0x10(%rbp)
    5396:	f2 0f 10 4d f8       	movsd  -0x8(%rbp),%xmm1
    539b:	f2 0f 10 05 9d 65 00 	movsd  0x659d(%rip),%xmm0        # b940 <g_291+0x8ec>
    53a2:	00 
    53a3:	f2 0f 59 c8          	mulsd  %xmm0,%xmm1
    53a7:	f2 0f 10 55 f0       	movsd  -0x10(%rbp),%xmm2
    53ac:	f2 0f 10 05 8c 65 00 	movsd  0x658c(%rip),%xmm0        # b940 <g_291+0x8ec>
    53b3:	00 
    53b4:	f2 0f 59 c2          	mulsd  %xmm2,%xmm0
    53b8:	f2 0f 58 c1          	addsd  %xmm1,%xmm0
    53bc:	f3 0f 7e 0d 8c 65 00 	movq   0x658c(%rip),%xmm1        # b950 <g_291+0x8fc>
    53c3:	00 
    53c4:	66 0f 54 c1          	andpd  %xmm1,%xmm0
    53c8:	66 0f 2f 05 90 65 00 	comisd 0x6590(%rip),%xmm0        # b960 <g_291+0x90c>
    53cf:	00 
    53d0:	76 07                	jbe    53d9 <safe_add_func_double_f_f+0x55>
    53d2:	f2 0f 10 45 f8       	movsd  -0x8(%rbp),%xmm0
    53d7:	eb 0a                	jmp    53e3 <safe_add_func_double_f_f+0x5f>
    53d9:	f2 0f 10 45 f8       	movsd  -0x8(%rbp),%xmm0
    53de:	f2 0f 58 45 f0       	addsd  -0x10(%rbp),%xmm0
    53e3:	5d                   	pop    %rbp
    53e4:	c3                   	retq   

00000000000053e5 <safe_sub_func_double_f_f>:
    53e5:	f3 0f 1e fa          	endbr64 
    53e9:	55                   	push   %rbp
    53ea:	48 89 e5             	mov    %rsp,%rbp
    53ed:	f2 0f 11 45 f8       	movsd  %xmm0,-0x8(%rbp)
    53f2:	f2 0f 11 4d f0       	movsd  %xmm1,-0x10(%rbp)
    53f7:	f2 0f 10 4d f8       	movsd  -0x8(%rbp),%xmm1
    53fc:	f2 0f 10 05 3c 65 00 	movsd  0x653c(%rip),%xmm0        # b940 <g_291+0x8ec>
    5403:	00 
    5404:	f2 0f 59 c1          	mulsd  %xmm1,%xmm0
    5408:	f2 0f 10 55 f0       	movsd  -0x10(%rbp),%xmm2
    540d:	f2 0f 10 0d 2b 65 00 	movsd  0x652b(%rip),%xmm1        # b940 <g_291+0x8ec>
    5414:	00 
    5415:	f2 0f 59 ca          	mulsd  %xmm2,%xmm1
    5419:	f2 0f 5c c1          	subsd  %xmm1,%xmm0
    541d:	f3 0f 7e 0d 2b 65 00 	movq   0x652b(%rip),%xmm1        # b950 <g_291+0x8fc>
    5424:	00 
    5425:	66 0f 54 c1          	andpd  %xmm1,%xmm0
    5429:	66 0f 2f 05 2f 65 00 	comisd 0x652f(%rip),%xmm0        # b960 <g_291+0x90c>
    5430:	00 
    5431:	76 07                	jbe    543a <safe_sub_func_double_f_f+0x55>
    5433:	f2 0f 10 45 f8       	movsd  -0x8(%rbp),%xmm0
    5438:	eb 0a                	jmp    5444 <safe_sub_func_double_f_f+0x5f>
    543a:	f2 0f 10 45 f8       	movsd  -0x8(%rbp),%xmm0
    543f:	f2 0f 5c 45 f0       	subsd  -0x10(%rbp),%xmm0
    5444:	5d                   	pop    %rbp
    5445:	c3                   	retq   

0000000000005446 <safe_mul_func_double_f_f>:
    5446:	f3 0f 1e fa          	endbr64 
    544a:	55                   	push   %rbp
    544b:	48 89 e5             	mov    %rsp,%rbp
    544e:	f2 0f 11 45 f8       	movsd  %xmm0,-0x8(%rbp)
    5453:	f2 0f 11 4d f0       	movsd  %xmm1,-0x10(%rbp)
    5458:	f2 0f 10 4d f8       	movsd  -0x8(%rbp),%xmm1
    545d:	f2 0f 10 05 03 65 00 	movsd  0x6503(%rip),%xmm0        # b968 <g_291+0x914>
    5464:	00 
    5465:	f2 0f 59 c8          	mulsd  %xmm0,%xmm1
    5469:	f2 0f 10 55 f0       	movsd  -0x10(%rbp),%xmm2
    546e:	f2 0f 10 05 fa 64 00 	movsd  0x64fa(%rip),%xmm0        # b970 <g_291+0x91c>
    5475:	00 
    5476:	f2 0f 59 c2          	mulsd  %xmm2,%xmm0
    547a:	f2 0f 59 c1          	mulsd  %xmm1,%xmm0
    547e:	f3 0f 7e 0d ca 64 00 	movq   0x64ca(%rip),%xmm1        # b950 <g_291+0x8fc>
    5485:	00 
    5486:	66 0f 54 c1          	andpd  %xmm1,%xmm0
    548a:	66 0f 2f 05 e6 64 00 	comisd 0x64e6(%rip),%xmm0        # b978 <g_291+0x924>
    5491:	00 
    5492:	76 07                	jbe    549b <safe_mul_func_double_f_f+0x55>
    5494:	f2 0f 10 45 f8       	movsd  -0x8(%rbp),%xmm0
    5499:	eb 0a                	jmp    54a5 <safe_mul_func_double_f_f+0x5f>
    549b:	f2 0f 10 45 f8       	movsd  -0x8(%rbp),%xmm0
    54a0:	f2 0f 59 45 f0       	mulsd  -0x10(%rbp),%xmm0
    54a5:	5d                   	pop    %rbp
    54a6:	c3                   	retq   

00000000000054a7 <safe_div_func_double_f_f>:
    54a7:	f3 0f 1e fa          	endbr64 
    54ab:	55                   	push   %rbp
    54ac:	48 89 e5             	mov    %rsp,%rbp
    54af:	f2 0f 11 45 f8       	movsd  %xmm0,-0x8(%rbp)
    54b4:	f2 0f 11 4d f0       	movsd  %xmm1,-0x10(%rbp)
    54b9:	f2 0f 10 45 f0       	movsd  -0x10(%rbp),%xmm0
    54be:	f3 0f 7e 0d 8a 64 00 	movq   0x648a(%rip),%xmm1        # b950 <g_291+0x8fc>
    54c5:	00 
    54c6:	66 0f 54 c8          	andpd  %xmm0,%xmm1
    54ca:	f2 0f 10 05 ae 64 00 	movsd  0x64ae(%rip),%xmm0        # b980 <g_291+0x92c>
    54d1:	00 
    54d2:	66 0f 2f c1          	comisd %xmm1,%xmm0
    54d6:	0f 97 c0             	seta   %al
    54d9:	83 f0 01             	xor    $0x1,%eax
    54dc:	84 c0                	test   %al,%al
    54de:	75 5a                	jne    553a <safe_div_func_double_f_f+0x93>
    54e0:	66 0f ef c0          	pxor   %xmm0,%xmm0
    54e4:	66 0f 2e 45 f0       	ucomisd -0x10(%rbp),%xmm0
    54e9:	7a 0b                	jp     54f6 <safe_div_func_double_f_f+0x4f>
    54eb:	66 0f ef c0          	pxor   %xmm0,%xmm0
    54ef:	66 0f 2e 45 f0       	ucomisd -0x10(%rbp),%xmm0
    54f4:	74 50                	je     5546 <safe_div_func_double_f_f+0x9f>
    54f6:	f2 0f 10 4d f8       	movsd  -0x8(%rbp),%xmm1
    54fb:	f2 0f 10 05 85 64 00 	movsd  0x6485(%rip),%xmm0        # b988 <g_291+0x934>
    5502:	00 
    5503:	f2 0f 59 c1          	mulsd  %xmm1,%xmm0
    5507:	f2 0f 10 55 f0       	movsd  -0x10(%rbp),%xmm2
    550c:	f2 0f 10 0d 7c 64 00 	movsd  0x647c(%rip),%xmm1        # b990 <g_291+0x93c>
    5513:	00 
    5514:	f2 0f 59 ca          	mulsd  %xmm2,%xmm1
    5518:	f2 0f 5e c1          	divsd  %xmm1,%xmm0
    551c:	f3 0f 7e 0d 2c 64 00 	movq   0x642c(%rip),%xmm1        # b950 <g_291+0x8fc>
    5523:	00 
    5524:	66 0f 54 c1          	andpd  %xmm1,%xmm0
    5528:	66 0f 2f 05 68 64 00 	comisd 0x6468(%rip),%xmm0        # b998 <g_291+0x944>
    552f:	00 
    5530:	0f 97 c0             	seta   %al
    5533:	83 f0 01             	xor    $0x1,%eax
    5536:	84 c0                	test   %al,%al
    5538:	74 0c                	je     5546 <safe_div_func_double_f_f+0x9f>
    553a:	f2 0f 10 45 f8       	movsd  -0x8(%rbp),%xmm0
    553f:	f2 0f 5e 45 f0       	divsd  -0x10(%rbp),%xmm0
    5544:	eb 05                	jmp    554b <safe_div_func_double_f_f+0xa4>
    5546:	f2 0f 10 45 f8       	movsd  -0x8(%rbp),%xmm0
    554b:	5d                   	pop    %rbp
    554c:	c3                   	retq   

000000000000554d <safe_convert_func_float_to_int32_t>:
    554d:	f3 0f 1e fa          	endbr64 
    5551:	55                   	push   %rbp
    5552:	48 89 e5             	mov    %rsp,%rbp
    5555:	f3 0f 11 45 fc       	movss  %xmm0,-0x4(%rbp)
    555a:	f3 0f 10 05 3e 64 00 	movss  0x643e(%rip),%xmm0        # b9a0 <g_291+0x94c>
    5561:	00 
    5562:	0f 2f 45 fc          	comiss -0x4(%rbp),%xmm0
    5566:	0f 93 c0             	setae  %al
    5569:	83 f0 01             	xor    $0x1,%eax
    556c:	84 c0                	test   %al,%al
    556e:	74 21                	je     5591 <safe_convert_func_float_to_int32_t+0x44>
    5570:	f3 0f 10 45 fc       	movss  -0x4(%rbp),%xmm0
    5575:	0f 2f 05 28 64 00 00 	comiss 0x6428(%rip),%xmm0        # b9a4 <g_291+0x950>
    557c:	0f 93 c0             	setae  %al
    557f:	83 f0 01             	xor    $0x1,%eax
    5582:	84 c0                	test   %al,%al
    5584:	74 0b                	je     5591 <safe_convert_func_float_to_int32_t+0x44>
    5586:	f3 0f 10 45 fc       	movss  -0x4(%rbp),%xmm0
    558b:	f3 0f 2c c0          	cvttss2si %xmm0,%eax
    558f:	eb 05                	jmp    5596 <safe_convert_func_float_to_int32_t+0x49>
    5591:	b8 ff ff ff 7f       	mov    $0x7fffffff,%eax
    5596:	5d                   	pop    %rbp
    5597:	c3                   	retq   

0000000000005598 <crc32_gentab>:
    5598:	f3 0f 1e fa          	endbr64 
    559c:	55                   	push   %rbp
    559d:	48 89 e5             	mov    %rsp,%rbp
    55a0:	c7 45 fc 20 83 b8 ed 	movl   $0xedb88320,-0x4(%rbp)
    55a7:	c7 45 f4 00 00 00 00 	movl   $0x0,-0xc(%rbp)
    55ae:	eb 51                	jmp    5601 <crc32_gentab+0x69>
    55b0:	8b 45 f4             	mov    -0xc(%rbp),%eax
    55b3:	89 45 f0             	mov    %eax,-0x10(%rbp)
    55b6:	c7 45 f8 08 00 00 00 	movl   $0x8,-0x8(%rbp)
    55bd:	eb 1e                	jmp    55dd <crc32_gentab+0x45>
    55bf:	8b 45 f0             	mov    -0x10(%rbp),%eax
    55c2:	83 e0 01             	and    $0x1,%eax
    55c5:	85 c0                	test   %eax,%eax
    55c7:	74 0d                	je     55d6 <crc32_gentab+0x3e>
    55c9:	8b 45 f0             	mov    -0x10(%rbp),%eax
    55cc:	d1 e8                	shr    %eax
    55ce:	33 45 fc             	xor    -0x4(%rbp),%eax
    55d1:	89 45 f0             	mov    %eax,-0x10(%rbp)
    55d4:	eb 03                	jmp    55d9 <crc32_gentab+0x41>
    55d6:	d1 6d f0             	shrl   -0x10(%rbp)
    55d9:	83 6d f8 01          	subl   $0x1,-0x8(%rbp)
    55dd:	83 7d f8 00          	cmpl   $0x0,-0x8(%rbp)
    55e1:	7f dc                	jg     55bf <crc32_gentab+0x27>
    55e3:	8b 45 f4             	mov    -0xc(%rbp),%eax
    55e6:	48 98                	cltq   
    55e8:	48 8d 0c 85 00 00 00 	lea    0x0(,%rax,4),%rcx
    55ef:	00 
    55f0:	48 8d 15 a9 a1 00 00 	lea    0xa1a9(%rip),%rdx        # f7a0 <crc32_tab>
    55f7:	8b 45 f0             	mov    -0x10(%rbp),%eax
    55fa:	89 04 11             	mov    %eax,(%rcx,%rdx,1)
    55fd:	83 45 f4 01          	addl   $0x1,-0xc(%rbp)
    5601:	81 7d f4 ff 00 00 00 	cmpl   $0xff,-0xc(%rbp)
    5608:	7e a6                	jle    55b0 <crc32_gentab+0x18>
    560a:	90                   	nop
    560b:	90                   	nop
    560c:	5d                   	pop    %rbp
    560d:	c3                   	retq   

000000000000560e <crc32_byte>:
    560e:	f3 0f 1e fa          	endbr64 
    5612:	55                   	push   %rbp
    5613:	48 89 e5             	mov    %rsp,%rbp
    5616:	89 f8                	mov    %edi,%eax
    5618:	88 45 fc             	mov    %al,-0x4(%rbp)
    561b:	8b 05 ff 89 00 00    	mov    0x89ff(%rip),%eax        # e020 <crc32_context>
    5621:	c1 e8 08             	shr    $0x8,%eax
    5624:	89 c1                	mov    %eax,%ecx
    5626:	0f b6 55 fc          	movzbl -0x4(%rbp),%edx
    562a:	8b 05 f0 89 00 00    	mov    0x89f0(%rip),%eax        # e020 <crc32_context>
    5630:	31 d0                	xor    %edx,%eax
    5632:	0f b6 c0             	movzbl %al,%eax
    5635:	89 c0                	mov    %eax,%eax
    5637:	48 8d 14 85 00 00 00 	lea    0x0(,%rax,4),%rdx
    563e:	00 
    563f:	48 8d 05 5a a1 00 00 	lea    0xa15a(%rip),%rax        # f7a0 <crc32_tab>
    5646:	8b 04 02             	mov    (%rdx,%rax,1),%eax
    5649:	31 c8                	xor    %ecx,%eax
    564b:	89 05 cf 89 00 00    	mov    %eax,0x89cf(%rip)        # e020 <crc32_context>
    5651:	90                   	nop
    5652:	5d                   	pop    %rbp
    5653:	c3                   	retq   

0000000000005654 <crc32_8bytes>:
    5654:	f3 0f 1e fa          	endbr64 
    5658:	55                   	push   %rbp
    5659:	48 89 e5             	mov    %rsp,%rbp
    565c:	48 83 ec 08          	sub    $0x8,%rsp
    5660:	48 89 7d f8          	mov    %rdi,-0x8(%rbp)
    5664:	48 8b 45 f8          	mov    -0x8(%rbp),%rax
    5668:	0f b6 c0             	movzbl %al,%eax
    566b:	89 c7                	mov    %eax,%edi
    566d:	e8 9c ff ff ff       	callq  560e <crc32_byte>
    5672:	48 8b 45 f8          	mov    -0x8(%rbp),%rax
    5676:	48 c1 e8 08          	shr    $0x8,%rax
    567a:	0f b6 c0             	movzbl %al,%eax
    567d:	89 c7                	mov    %eax,%edi
    567f:	e8 8a ff ff ff       	callq  560e <crc32_byte>
    5684:	48 8b 45 f8          	mov    -0x8(%rbp),%rax
    5688:	48 c1 e8 10          	shr    $0x10,%rax
    568c:	0f b6 c0             	movzbl %al,%eax
    568f:	89 c7                	mov    %eax,%edi
    5691:	e8 78 ff ff ff       	callq  560e <crc32_byte>
    5696:	48 8b 45 f8          	mov    -0x8(%rbp),%rax
    569a:	48 c1 e8 18          	shr    $0x18,%rax
    569e:	0f b6 c0             	movzbl %al,%eax
    56a1:	89 c7                	mov    %eax,%edi
    56a3:	e8 66 ff ff ff       	callq  560e <crc32_byte>
    56a8:	48 8b 45 f8          	mov    -0x8(%rbp),%rax
    56ac:	48 c1 e8 20          	shr    $0x20,%rax
    56b0:	0f b6 c0             	movzbl %al,%eax
    56b3:	89 c7                	mov    %eax,%edi
    56b5:	e8 54 ff ff ff       	callq  560e <crc32_byte>
    56ba:	48 8b 45 f8          	mov    -0x8(%rbp),%rax
    56be:	48 c1 e8 28          	shr    $0x28,%rax
    56c2:	0f b6 c0             	movzbl %al,%eax
    56c5:	89 c7                	mov    %eax,%edi
    56c7:	e8 42 ff ff ff       	callq  560e <crc32_byte>
    56cc:	48 8b 45 f8          	mov    -0x8(%rbp),%rax
    56d0:	48 c1 e8 30          	shr    $0x30,%rax
    56d4:	0f b6 c0             	movzbl %al,%eax
    56d7:	89 c7                	mov    %eax,%edi
    56d9:	e8 30 ff ff ff       	callq  560e <crc32_byte>
    56de:	48 8b 45 f8          	mov    -0x8(%rbp),%rax
    56e2:	48 c1 e8 38          	shr    $0x38,%rax
    56e6:	0f b6 c0             	movzbl %al,%eax
    56e9:	89 c7                	mov    %eax,%edi
    56eb:	e8 1e ff ff ff       	callq  560e <crc32_byte>
    56f0:	90                   	nop
    56f1:	c9                   	leaveq 
    56f2:	c3                   	retq   

00000000000056f3 <transparent_crc>:
    56f3:	f3 0f 1e fa          	endbr64 
    56f7:	55                   	push   %rbp
    56f8:	48 89 e5             	mov    %rsp,%rbp
    56fb:	48 83 ec 20          	sub    $0x20,%rsp
    56ff:	48 89 7d f8          	mov    %rdi,-0x8(%rbp)
    5703:	48 89 75 f0          	mov    %rsi,-0x10(%rbp)
    5707:	89 55 ec             	mov    %edx,-0x14(%rbp)
    570a:	48 8b 45 f8          	mov    -0x8(%rbp),%rax
    570e:	48 89 c7             	mov    %rax,%rdi
    5711:	e8 3e ff ff ff       	callq  5654 <crc32_8bytes>
    5716:	83 7d ec 00          	cmpl   $0x0,-0x14(%rbp)
    571a:	74 22                	je     573e <transparent_crc+0x4b>
    571c:	8b 05 fe 88 00 00    	mov    0x88fe(%rip),%eax        # e020 <crc32_context>
    5722:	f7 d0                	not    %eax
    5724:	89 c2                	mov    %eax,%edx
    5726:	48 8b 45 f0          	mov    -0x10(%rbp),%rax
    572a:	48 89 c6             	mov    %rax,%rsi
    572d:	48 8d 3d fc 58 00 00 	lea    0x58fc(%rip),%rdi        # b030 <_IO_stdin_used+0x30>
    5734:	b8 00 00 00 00       	mov    $0x0,%eax
    5739:	e8 42 e9 ff ff       	callq  4080 <printf@plt>
    573e:	90                   	nop
    573f:	c9                   	leaveq 
    5740:	c3                   	retq   

0000000000005741 <transparent_crc_bytes>:
    5741:	f3 0f 1e fa          	endbr64 
    5745:	55                   	push   %rbp
    5746:	48 89 e5             	mov    %rsp,%rbp
    5749:	48 83 ec 30          	sub    $0x30,%rsp
    574d:	48 89 7d e8          	mov    %rdi,-0x18(%rbp)
    5751:	89 75 e4             	mov    %esi,-0x1c(%rbp)
    5754:	48 89 55 d8          	mov    %rdx,-0x28(%rbp)
    5758:	89 4d e0             	mov    %ecx,-0x20(%rbp)
    575b:	c7 45 fc 00 00 00 00 	movl   $0x0,-0x4(%rbp)
    5762:	eb 1e                	jmp    5782 <transparent_crc_bytes+0x41>
    5764:	8b 45 fc             	mov    -0x4(%rbp),%eax
    5767:	48 63 d0             	movslq %eax,%rdx
    576a:	48 8b 45 e8          	mov    -0x18(%rbp),%rax
    576e:	48 01 d0             	add    %rdx,%rax
    5771:	0f b6 00             	movzbl (%rax),%eax
    5774:	0f b6 c0             	movzbl %al,%eax
    5777:	89 c7                	mov    %eax,%edi
    5779:	e8 90 fe ff ff       	callq  560e <crc32_byte>
    577e:	83 45 fc 01          	addl   $0x1,-0x4(%rbp)
    5782:	8b 45 fc             	mov    -0x4(%rbp),%eax
    5785:	3b 45 e4             	cmp    -0x1c(%rbp),%eax
    5788:	7c da                	jl     5764 <transparent_crc_bytes+0x23>
    578a:	83 7d e0 00          	cmpl   $0x0,-0x20(%rbp)
    578e:	74 22                	je     57b2 <transparent_crc_bytes+0x71>
    5790:	8b 05 8a 88 00 00    	mov    0x888a(%rip),%eax        # e020 <crc32_context>
    5796:	f7 d0                	not    %eax
    5798:	89 c2                	mov    %eax,%edx
    579a:	48 8b 45 d8          	mov    -0x28(%rbp),%rax
    579e:	48 89 c6             	mov    %rax,%rsi
    57a1:	48 8d 3d 88 58 00 00 	lea    0x5888(%rip),%rdi        # b030 <_IO_stdin_used+0x30>
    57a8:	b8 00 00 00 00       	mov    $0x0,%eax
    57ad:	e8 ce e8 ff ff       	callq  4080 <printf@plt>
    57b2:	90                   	nop
    57b3:	c9                   	leaveq 
    57b4:	c3                   	retq   

00000000000057b5 <func_1>:
    57b5:	f3 0f 1e fa          	endbr64 
    57b9:	55                   	push   %rbp
    57ba:	48 89 e5             	mov    %rsp,%rbp
    57bd:	41 54                	push   %r12
    57bf:	53                   	push   %rbx
    57c0:	48 81 ec 90 0d 00 00 	sub    $0xd90,%rsp
    57c7:	64 48 8b 04 25 28 00 	mov    %fs:0x28,%rax
    57ce:	00 00 
    57d0:	48 89 45 e8          	mov    %rax,-0x18(%rbp)
    57d4:	31 c0                	xor    %eax,%eax
    57d6:	c6 45 dc f3          	movb   $0xf3,-0x24(%rbp)
    57da:	48 c7 85 18 f3 ff ff 	movq   $0xfffffffffffffffe,-0xce8(%rbp)
    57e1:	fe ff ff ff 
    57e5:	48 b8 c5 da 12 4a 23 	movabs $0xa33fcc234a12dac5,%rax
    57ec:	cc 3f a3 
    57ef:	48 89 85 e0 f2 ff ff 	mov    %rax,-0xd20(%rbp)
    57f6:	48 8d 05 84 88 00 00 	lea    0x8884(%rip),%rax        # e081 <g_246+0x21>
    57fd:	48 89 85 20 f3 ff ff 	mov    %rax,-0xce0(%rbp)
    5804:	48 8d 05 11 89 00 00 	lea    0x8911(%rip),%rax        # e11c <g_652+0x1c>
    580b:	48 89 85 28 f3 ff ff 	mov    %rax,-0xcd8(%rbp)
    5812:	48 8d 05 7f 9d 00 00 	lea    0x9d7f(%rip),%rax        # f598 <g_898>
    5819:	48 89 85 e8 f2 ff ff 	mov    %rax,-0xd18(%rbp)
    5820:	48 8d 05 61 9d 00 00 	lea    0x9d61(%rip),%rax        # f588 <g_639>
    5827:	48 89 85 30 f3 ff ff 	mov    %rax,-0xcd0(%rbp)
    582e:	c7 85 78 f2 ff ff 0b 	movl   $0x2e13df0b,-0xd88(%rbp)
    5835:	df 13 2e 
    5838:	c7 85 98 f2 ff ff fb 	movl   $0xfffffffb,-0xd68(%rbp)
    583f:	ff ff ff 
    5842:	c7 85 9c f2 ff ff 92 	movl   $0x4bdff392,-0xd64(%rbp)
    5849:	f3 df 4b 
    584c:	c7 85 a0 f2 ff ff f6 	movl   $0xfffffff6,-0xd60(%rbp)
    5853:	ff ff ff 
    5856:	c7 85 a4 f2 ff ff b6 	movl   $0x124a43b6,-0xd5c(%rbp)
    585d:	43 4a 12 
    5860:	48 c7 85 38 f3 ff ff 	movq   $0x0,-0xcc8(%rbp)
    5867:	00 00 00 00 
    586b:	48 8d 85 d0 fa ff ff 	lea    -0x530(%rbp),%rax
    5872:	48 8d 15 47 8a 00 00 	lea    0x8a47(%rip),%rdx        # e2c0 <g_1446+0x18>
    5879:	b9 50 00 00 00       	mov    $0x50,%ecx
    587e:	48 89 c7             	mov    %rax,%rdi
    5881:	48 89 d6             	mov    %rdx,%rsi
    5884:	f3 48 a5             	rep movsq %ds:(%rsi),%es:(%rdi)
    5887:	48 b8 00 00 01 d8 d8 	movabs $0x1d8d8010000,%rax
    588e:	01 00 00 
    5891:	48 89 85 00 f5 ff ff 	mov    %rax,-0xb00(%rbp)
    5898:	c6 85 08 f5 ff ff ff 	movb   $0xff,-0xaf8(%rbp)
    589f:	48 b8 20 fd 88 05 a9 	movabs $0x490005a90588fd20,%rax
    58a6:	05 00 49 
    58a9:	48 89 85 09 f5 ff ff 	mov    %rax,-0xaf7(%rbp)
    58b0:	c6 85 11 f5 ff ff 49 	movb   $0x49,-0xaef(%rbp)
    58b7:	48 b8 27 55 71 00 71 	movabs $0xf27557100715527,%rax
    58be:	55 27 0f 
    58c1:	48 89 85 12 f5 ff ff 	mov    %rax,-0xaee(%rbp)
    58c8:	c6 85 1a f5 ff ff ff 	movb   $0xff,-0xae6(%rbp)
    58cf:	48 b8 05 20 1a 50 49 	movabs $0xfdfda949501a2005,%rax
    58d6:	a9 fd fd 
    58d9:	48 89 85 1b f5 ff ff 	mov    %rax,-0xae5(%rbp)
    58e0:	c6 85 23 f5 ff ff fd 	movb   $0xfd,-0xadd(%rbp)
    58e7:	48 b8 5b 01 4e 4e 01 	movabs $0x1ff5b014e4e015b,%rax
    58ee:	5b ff 01 
    58f1:	48 89 85 24 f5 ff ff 	mov    %rax,-0xadc(%rbp)
    58f8:	c6 85 2c f5 ff ff 00 	movb   $0x0,-0xad4(%rbp)
    58ff:	48 b8 1a 01 01 05 07 	movabs $0xfdfd20070501011a,%rax
    5906:	20 fd fd 
    5909:	48 89 85 2d f5 ff ff 	mov    %rax,-0xad3(%rbp)
    5910:	c6 85 35 f5 ff ff 20 	movb   $0x20,-0xacb(%rbp)
    5917:	48 b8 55 71 00 71 55 	movabs $0xff0f275571007155,%rax
    591e:	27 0f ff 
    5921:	48 89 85 36 f5 ff ff 	mov    %rax,-0xaca(%rbp)
    5928:	c6 85 3e f5 ff ff 5b 	movb   $0x5b,-0xac2(%rbp)
    592f:	48 b8 00 fd 1a fd 01 	movabs $0xff49ff01fd1afd00,%rax
    5936:	ff 49 ff 
    5939:	48 89 85 3f f5 ff ff 	mov    %rax,-0xac1(%rbp)
    5940:	c6 85 47 f5 ff ff 01 	movb   $0x1,-0xab9(%rbp)
    5947:	48 b8 0f 08 08 0f ff 	movabs $0xfb0027ff0f08080f,%rax
    594e:	27 00 fb 
    5951:	48 89 85 48 f5 ff ff 	mov    %rax,-0xab8(%rbp)
    5958:	c6 85 50 f5 ff ff d8 	movb   $0xd8,-0xab0(%rbp)
    595f:	48 b8 05 88 20 1a a9 	movabs $0xa92020a91a208805,%rax
    5966:	20 20 a9 
    5969:	48 89 85 51 f5 ff ff 	mov    %rax,-0xaaf(%rbp)
    5970:	c6 85 59 f5 ff ff 1a 	movb   $0x1a,-0xaa7(%rbp)
    5977:	48 8d 05 ba 9d 00 00 	lea    0x9dba(%rip),%rax        # f738 <g_1228>
    597e:	48 89 85 40 f3 ff ff 	mov    %rax,-0xcc0(%rbp)
    5985:	48 b8 8b e2 c1 ad 80 	movabs $0xb4d5b080adc1e28b,%rax
    598c:	b0 d5 b4 
    598f:	48 89 85 48 f3 ff ff 	mov    %rax,-0xcb8(%rbp)
    5996:	c7 85 a8 f2 ff ff e3 	movl   $0xf25bb9e3,-0xd58(%rbp)
    599d:	b9 5b f2 
    59a0:	c7 85 60 f5 ff ff 46 	movl   $0x544d3346,-0xaa0(%rbp)
    59a7:	33 4d 54 
    59aa:	c7 85 64 f5 ff ff f1 	movl   $0xf279a7f1,-0xa9c(%rbp)
    59b1:	a7 79 f2 
    59b4:	c7 85 68 f5 ff ff 02 	movl   $0x2,-0xa98(%rbp)
    59bb:	00 00 00 
    59be:	c7 85 6c f5 ff ff 00 	movl   $0xbc40d00,-0xa94(%rbp)
    59c5:	0d c4 0b 
    59c8:	c7 85 70 f5 ff ff 02 	movl   $0x2,-0xa90(%rbp)
    59cf:	00 00 00 
    59d2:	c7 85 74 f5 ff ff f1 	movl   $0xf279a7f1,-0xa8c(%rbp)
    59d9:	a7 79 f2 
    59dc:	c7 85 78 f5 ff ff 46 	movl   $0x544d3346,-0xa88(%rbp)
    59e3:	33 4d 54 
    59e6:	c7 85 7c f5 ff ff f1 	movl   $0xf279a7f1,-0xa84(%rbp)
    59ed:	a7 79 f2 
    59f0:	c7 85 80 f5 ff ff 02 	movl   $0x2,-0xa80(%rbp)
    59f7:	00 00 00 
    59fa:	c7 85 84 f5 ff ff 00 	movl   $0xbc40d00,-0xa7c(%rbp)
    5a01:	0d c4 0b 
    5a04:	c7 85 88 f5 ff ff 02 	movl   $0x2,-0xa78(%rbp)
    5a0b:	00 00 00 
    5a0e:	c7 85 8c f5 ff ff f1 	movl   $0xf279a7f1,-0xa74(%rbp)
    5a15:	a7 79 f2 
    5a18:	c7 85 90 f5 ff ff 46 	movl   $0x544d3346,-0xa70(%rbp)
    5a1f:	33 4d 54 
    5a22:	c7 85 94 f5 ff ff f1 	movl   $0xf279a7f1,-0xa6c(%rbp)
    5a29:	a7 79 f2 
    5a2c:	c7 85 98 f5 ff ff 02 	movl   $0x2,-0xa68(%rbp)
    5a33:	00 00 00 
    5a36:	c7 85 9c f5 ff ff 00 	movl   $0xbc40d00,-0xa64(%rbp)
    5a3d:	0d c4 0b 
    5a40:	c7 85 a0 f5 ff ff 02 	movl   $0x2,-0xa60(%rbp)
    5a47:	00 00 00 
    5a4a:	c7 85 a4 f5 ff ff f1 	movl   $0xf279a7f1,-0xa5c(%rbp)
    5a51:	a7 79 f2 
    5a54:	c7 85 a8 f5 ff ff 46 	movl   $0x544d3346,-0xa58(%rbp)
    5a5b:	33 4d 54 
    5a5e:	c7 85 ac f5 ff ff f1 	movl   $0xf279a7f1,-0xa54(%rbp)
    5a65:	a7 79 f2 
    5a68:	c7 85 b0 f5 ff ff 02 	movl   $0x2,-0xa50(%rbp)
    5a6f:	00 00 00 
    5a72:	c7 85 b4 f5 ff ff 00 	movl   $0xbc40d00,-0xa4c(%rbp)
    5a79:	0d c4 0b 
    5a7c:	c7 85 b8 f5 ff ff 02 	movl   $0x2,-0xa48(%rbp)
    5a83:	00 00 00 
    5a86:	c7 85 bc f5 ff ff f1 	movl   $0xf279a7f1,-0xa44(%rbp)
    5a8d:	a7 79 f2 
    5a90:	c7 85 c0 f5 ff ff 46 	movl   $0x544d3346,-0xa40(%rbp)
    5a97:	33 4d 54 
    5a9a:	c7 85 c4 f5 ff ff f1 	movl   $0xf279a7f1,-0xa3c(%rbp)
    5aa1:	a7 79 f2 
    5aa4:	c7 85 c8 f5 ff ff 02 	movl   $0x2,-0xa38(%rbp)
    5aab:	00 00 00 
    5aae:	c7 85 cc f5 ff ff 00 	movl   $0xbc40d00,-0xa34(%rbp)
    5ab5:	0d c4 0b 
    5ab8:	c7 85 d0 f5 ff ff 02 	movl   $0x2,-0xa30(%rbp)
    5abf:	00 00 00 
    5ac2:	c7 85 d4 f5 ff ff f1 	movl   $0xf279a7f1,-0xa2c(%rbp)
    5ac9:	a7 79 f2 
    5acc:	48 c7 85 50 f3 ff ff 	movq   $0x0,-0xcb0(%rbp)
    5ad3:	00 00 00 00 
    5ad7:	66 c7 85 70 f2 ff ff 	movw   $0xc4ac,-0xd90(%rbp)
    5ade:	ac c4 
    5ae0:	c7 85 90 f2 ff ff ff 	movl   $0xffffffff,-0xd70(%rbp)
    5ae7:	ff ff ff 
    5aea:	48 8d 05 53 87 00 00 	lea    0x8753(%rip),%rax        # e244 <g_936+0x2>
    5af1:	48 89 85 58 f3 ff ff 	mov    %rax,-0xca8(%rbp)
    5af8:	48 c7 85 60 f3 ff ff 	movq   $0x0,-0xca0(%rbp)
    5aff:	00 00 00 00 
    5b03:	c7 85 94 f2 ff ff 00 	movl   $0x0,-0xd6c(%rbp)
    5b0a:	00 00 00 
    5b0d:	eb 1e                	jmp    5b2d <func_1+0x378>
    5b0f:	8b 85 94 f2 ff ff    	mov    -0xd6c(%rbp),%eax
    5b15:	48 98                	cltq   
    5b17:	48 8d 15 52 9c 00 00 	lea    0x9c52(%rip),%rdx        # f770 <g_1498>
    5b1e:	48 89 94 c5 10 f4 ff 	mov    %rdx,-0xbf0(%rbp,%rax,8)
    5b25:	ff 
    5b26:	83 85 94 f2 ff ff 01 	addl   $0x1,-0xd6c(%rbp)
    5b2d:	83 bd 94 f2 ff ff 03 	cmpl   $0x3,-0xd6c(%rbp)
    5b34:	7e d9                	jle    5b0f <func_1+0x35a>
    5b36:	c6 85 6e f2 ff ff ff 	movb   $0xff,-0xd92(%rbp)
    5b3d:	48 8d 05 8c 9a 00 00 	lea    0x9a8c(%rip),%rax        # f5d0 <g_897+0x30>
    5b44:	48 89 85 68 f3 ff ff 	mov    %rax,-0xc98(%rbp)
    5b4b:	c7 85 8c f2 ff ff 01 	movl   $0x1,-0xd74(%rbp)
    5b52:	00 00 00 
    5b55:	48 8d 05 24 91 00 00 	lea    0x9124(%rip),%rax        # ec80 <g_60>
    5b5c:	48 89 85 70 f3 ff ff 	mov    %rax,-0xc90(%rbp)
    5b63:	48 8d 05 56 9b 00 00 	lea    0x9b56(%rip),%rax        # f6c0 <g_1067+0xc0>
    5b6a:	48 89 85 78 f3 ff ff 	mov    %rax,-0xc88(%rbp)
    5b71:	66 c7 85 72 f2 ff ff 	movw   $0xfff9,-0xd8e(%rbp)
    5b78:	f9 ff 
    5b7a:	48 b8 9c da 9c da 9c 	movabs $0xda9cda9cda9cda9c,%rax
    5b81:	da 9c da 
    5b84:	48 89 45 df          	mov    %rax,-0x21(%rbp)
    5b88:	c6 45 e7 9c          	movb   $0x9c,-0x19(%rbp)
    5b8c:	66 c7 85 74 f2 ff ff 	movw   $0x177c,-0xd8c(%rbp)
    5b93:	7c 17 
    5b95:	48 c7 85 f0 f2 ff ff 	movq   $0x0,-0xd10(%rbp)
    5b9c:	00 00 00 00 
    5ba0:	48 8d 85 f0 f2 ff ff 	lea    -0xd10(%rbp),%rax
    5ba7:	48 89 85 f8 f2 ff ff 	mov    %rax,-0xd08(%rbp)
    5bae:	48 c7 85 00 f3 ff ff 	movq   $0x0,-0xd00(%rbp)
    5bb5:	00 00 00 00 
    5bb9:	48 8d 85 00 f3 ff ff 	lea    -0xd00(%rbp),%rax
    5bc0:	48 89 85 80 f3 ff ff 	mov    %rax,-0xc80(%rbp)
    5bc7:	48 8d 85 f0 f8 ff ff 	lea    -0x710(%rbp),%rax
    5bce:	48 8d 15 8b 54 00 00 	lea    0x548b(%rip),%rdx        # b060 <g_291+0xc>
    5bd5:	b9 3c 00 00 00       	mov    $0x3c,%ecx
    5bda:	48 89 c7             	mov    %rax,%rdi
    5bdd:	48 89 d6             	mov    %rdx,%rsi
    5be0:	f3 48 a5             	rep movsq %ds:(%rsi),%es:(%rdi)
    5be3:	48 8d 85 78 f2 ff ff 	lea    -0xd88(%rbp),%rax
    5bea:	48 89 85 e0 f5 ff ff 	mov    %rax,-0xa20(%rbp)
    5bf1:	48 8d 85 78 f2 ff ff 	lea    -0xd88(%rbp),%rax
    5bf8:	48 89 85 e8 f5 ff ff 	mov    %rax,-0xa18(%rbp)
    5bff:	48 8d 85 78 f2 ff ff 	lea    -0xd88(%rbp),%rax
    5c06:	48 89 85 f0 f5 ff ff 	mov    %rax,-0xa10(%rbp)
    5c0d:	48 8d 85 78 f2 ff ff 	lea    -0xd88(%rbp),%rax
    5c14:	48 89 85 f8 f5 ff ff 	mov    %rax,-0xa08(%rbp)
    5c1b:	48 8d 85 78 f2 ff ff 	lea    -0xd88(%rbp),%rax
    5c22:	48 89 85 00 f6 ff ff 	mov    %rax,-0xa00(%rbp)
    5c29:	48 8d 85 78 f2 ff ff 	lea    -0xd88(%rbp),%rax
    5c30:	48 89 85 08 f6 ff ff 	mov    %rax,-0x9f8(%rbp)
    5c37:	48 8d 85 78 f2 ff ff 	lea    -0xd88(%rbp),%rax
    5c3e:	48 89 85 10 f6 ff ff 	mov    %rax,-0x9f0(%rbp)
    5c45:	48 8d 85 78 f2 ff ff 	lea    -0xd88(%rbp),%rax
    5c4c:	48 89 85 18 f6 ff ff 	mov    %rax,-0x9e8(%rbp)
    5c53:	48 8d 85 78 f2 ff ff 	lea    -0xd88(%rbp),%rax
    5c5a:	48 89 85 20 f6 ff ff 	mov    %rax,-0x9e0(%rbp)
    5c61:	48 8d 85 78 f2 ff ff 	lea    -0xd88(%rbp),%rax
    5c68:	48 89 85 28 f6 ff ff 	mov    %rax,-0x9d8(%rbp)
    5c6f:	48 8d 85 78 f2 ff ff 	lea    -0xd88(%rbp),%rax
    5c76:	48 89 85 30 f6 ff ff 	mov    %rax,-0x9d0(%rbp)
    5c7d:	48 8d 85 78 f2 ff ff 	lea    -0xd88(%rbp),%rax
    5c84:	48 89 85 38 f6 ff ff 	mov    %rax,-0x9c8(%rbp)
    5c8b:	48 8d 85 78 f2 ff ff 	lea    -0xd88(%rbp),%rax
    5c92:	48 89 85 40 f6 ff ff 	mov    %rax,-0x9c0(%rbp)
    5c99:	48 8d 85 78 f2 ff ff 	lea    -0xd88(%rbp),%rax
    5ca0:	48 89 85 48 f6 ff ff 	mov    %rax,-0x9b8(%rbp)
    5ca7:	48 8d 85 78 f2 ff ff 	lea    -0xd88(%rbp),%rax
    5cae:	48 89 85 50 f6 ff ff 	mov    %rax,-0x9b0(%rbp)
    5cb5:	48 8d 85 78 f2 ff ff 	lea    -0xd88(%rbp),%rax
    5cbc:	48 89 85 58 f6 ff ff 	mov    %rax,-0x9a8(%rbp)
    5cc3:	48 8d 85 78 f2 ff ff 	lea    -0xd88(%rbp),%rax
    5cca:	48 89 85 60 f6 ff ff 	mov    %rax,-0x9a0(%rbp)
    5cd1:	48 8d 85 78 f2 ff ff 	lea    -0xd88(%rbp),%rax
    5cd8:	48 89 85 68 f6 ff ff 	mov    %rax,-0x998(%rbp)
    5cdf:	48 8d 85 78 f2 ff ff 	lea    -0xd88(%rbp),%rax
    5ce6:	48 89 85 70 f6 ff ff 	mov    %rax,-0x990(%rbp)
    5ced:	48 8d 85 78 f2 ff ff 	lea    -0xd88(%rbp),%rax
    5cf4:	48 89 85 78 f6 ff ff 	mov    %rax,-0x988(%rbp)
    5cfb:	48 8d 85 78 f2 ff ff 	lea    -0xd88(%rbp),%rax
    5d02:	48 89 85 80 f6 ff ff 	mov    %rax,-0x980(%rbp)
    5d09:	48 8d 85 78 f2 ff ff 	lea    -0xd88(%rbp),%rax
    5d10:	48 89 85 88 f6 ff ff 	mov    %rax,-0x978(%rbp)
    5d17:	48 8d 85 78 f2 ff ff 	lea    -0xd88(%rbp),%rax
    5d1e:	48 89 85 90 f6 ff ff 	mov    %rax,-0x970(%rbp)
    5d25:	48 8d 85 78 f2 ff ff 	lea    -0xd88(%rbp),%rax
    5d2c:	48 89 85 98 f6 ff ff 	mov    %rax,-0x968(%rbp)
    5d33:	48 8d 85 78 f2 ff ff 	lea    -0xd88(%rbp),%rax
    5d3a:	48 89 85 a0 f6 ff ff 	mov    %rax,-0x960(%rbp)
    5d41:	48 8d 85 78 f2 ff ff 	lea    -0xd88(%rbp),%rax
    5d48:	48 89 85 a8 f6 ff ff 	mov    %rax,-0x958(%rbp)
    5d4f:	48 8d 85 78 f2 ff ff 	lea    -0xd88(%rbp),%rax
    5d56:	48 89 85 b0 f6 ff ff 	mov    %rax,-0x950(%rbp)
    5d5d:	48 8d 85 78 f2 ff ff 	lea    -0xd88(%rbp),%rax
    5d64:	48 89 85 b8 f6 ff ff 	mov    %rax,-0x948(%rbp)
    5d6b:	48 8d 85 78 f2 ff ff 	lea    -0xd88(%rbp),%rax
    5d72:	48 89 85 c0 f6 ff ff 	mov    %rax,-0x940(%rbp)
    5d79:	48 8d 85 78 f2 ff ff 	lea    -0xd88(%rbp),%rax
    5d80:	48 89 85 c8 f6 ff ff 	mov    %rax,-0x938(%rbp)
    5d87:	48 8d 85 78 f2 ff ff 	lea    -0xd88(%rbp),%rax
    5d8e:	48 89 85 d0 f6 ff ff 	mov    %rax,-0x930(%rbp)
    5d95:	48 8d 85 78 f2 ff ff 	lea    -0xd88(%rbp),%rax
    5d9c:	48 89 85 d8 f6 ff ff 	mov    %rax,-0x928(%rbp)
    5da3:	48 8d 85 78 f2 ff ff 	lea    -0xd88(%rbp),%rax
    5daa:	48 89 85 e0 f6 ff ff 	mov    %rax,-0x920(%rbp)
    5db1:	48 8d 85 78 f2 ff ff 	lea    -0xd88(%rbp),%rax
    5db8:	48 89 85 e8 f6 ff ff 	mov    %rax,-0x918(%rbp)
    5dbf:	48 8d 85 78 f2 ff ff 	lea    -0xd88(%rbp),%rax
    5dc6:	48 89 85 f0 f6 ff ff 	mov    %rax,-0x910(%rbp)
    5dcd:	48 8d 85 78 f2 ff ff 	lea    -0xd88(%rbp),%rax
    5dd4:	48 89 85 f8 f6 ff ff 	mov    %rax,-0x908(%rbp)
    5ddb:	48 8d 85 78 f2 ff ff 	lea    -0xd88(%rbp),%rax
    5de2:	48 89 85 00 f7 ff ff 	mov    %rax,-0x900(%rbp)
    5de9:	48 8d 85 78 f2 ff ff 	lea    -0xd88(%rbp),%rax
    5df0:	48 89 85 08 f7 ff ff 	mov    %rax,-0x8f8(%rbp)
    5df7:	48 8d 85 78 f2 ff ff 	lea    -0xd88(%rbp),%rax
    5dfe:	48 89 85 10 f7 ff ff 	mov    %rax,-0x8f0(%rbp)
    5e05:	48 8d 85 78 f2 ff ff 	lea    -0xd88(%rbp),%rax
    5e0c:	48 89 85 18 f7 ff ff 	mov    %rax,-0x8e8(%rbp)
    5e13:	48 8d 85 78 f2 ff ff 	lea    -0xd88(%rbp),%rax
    5e1a:	48 89 85 20 f7 ff ff 	mov    %rax,-0x8e0(%rbp)
    5e21:	48 8d 85 78 f2 ff ff 	lea    -0xd88(%rbp),%rax
    5e28:	48 89 85 28 f7 ff ff 	mov    %rax,-0x8d8(%rbp)
    5e2f:	c7 85 ac f2 ff ff 31 	movl   $0x66a8fe31,-0xd54(%rbp)
    5e36:	fe a8 66 
    5e39:	66 c7 85 76 f2 ff ff 	movw   $0x0,-0xd8a(%rbp)
    5e40:	00 00 
    5e42:	48 8d 85 30 f7 ff ff 	lea    -0x8d0(%rbp),%rax
    5e49:	48 8d 15 f0 86 00 00 	lea    0x86f0(%rip),%rdx        # e540 <g_1446+0x298>
    5e50:	b9 38 00 00 00       	mov    $0x38,%ecx
    5e55:	48 89 c7             	mov    %rax,%rdi
    5e58:	48 89 d6             	mov    %rdx,%rsi
    5e5b:	f3 48 a5             	rep movsq %ds:(%rsi),%es:(%rdi)
    5e5e:	48 c7 85 88 f3 ff ff 	movq   $0x0,-0xc78(%rbp)
    5e65:	00 00 00 00 
    5e69:	c7 85 88 f2 ff ff 00 	movl   $0x0,-0xd78(%rbp)
    5e70:	00 00 00 
    5e73:	eb 1e                	jmp    5e93 <func_1+0x6de>
    5e75:	8b 85 88 f2 ff ff    	mov    -0xd78(%rbp),%eax
    5e7b:	48 98                	cltq   
    5e7d:	48 8d 15 04 97 00 00 	lea    0x9704(%rip),%rdx        # f588 <g_639>
    5e84:	48 89 94 c5 30 f4 ff 	mov    %rdx,-0xbd0(%rbp,%rax,8)
    5e8b:	ff 
    5e8c:	83 85 88 f2 ff ff 01 	addl   $0x1,-0xd78(%rbp)
    5e93:	83 bd 88 f2 ff ff 03 	cmpl   $0x3,-0xd78(%rbp)
    5e9a:	7e d9                	jle    5e75 <func_1+0x6c0>
    5e9c:	c7 85 88 f2 ff ff 00 	movl   $0x0,-0xd78(%rbp)
    5ea3:	00 00 00 
    5ea6:	eb 1e                	jmp    5ec6 <func_1+0x711>
    5ea8:	8b 85 88 f2 ff ff    	mov    -0xd78(%rbp),%eax
    5eae:	48 98                	cltq   
    5eb0:	48 8d 95 f8 f2 ff ff 	lea    -0xd08(%rbp),%rdx
    5eb7:	48 89 94 c5 08 f4 ff 	mov    %rdx,-0xbf8(%rbp,%rax,8)
    5ebe:	ff 
    5ebf:	83 85 88 f2 ff ff 01 	addl   $0x1,-0xd78(%rbp)
    5ec6:	83 bd 88 f2 ff ff 00 	cmpl   $0x0,-0xd78(%rbp)
    5ecd:	7e d9                	jle    5ea8 <func_1+0x6f3>
    5ecf:	90                   	nop
    5ed0:	66 c7 05 67 83 00 00 	movw   $0x6,0x8367(%rip)        # e240 <g_880>
    5ed7:	06 00 
    5ed9:	e9 23 01 00 00       	jmpq   6001 <func_1+0x84c>
    5ede:	c7 85 d0 f2 ff ff df 	movl   $0xf75c0bdf,-0xd30(%rbp)
    5ee5:	0b 5c f7 
    5ee8:	c7 85 d4 f2 ff ff a1 	movl   $0xb06bdda1,-0xd2c(%rbp)
    5eef:	dd 6b b0 
    5ef2:	48 c7 85 e0 f3 ff ff 	movq   $0x0,-0xc20(%rbp)
    5ef9:	00 00 00 00 
    5efd:	c7 85 d8 f2 ff ff 09 	movl   $0x9,-0xd28(%rbp)
    5f04:	00 00 00 
    5f07:	c7 85 dc f2 ff ff f3 	movl   $0x834a5df3,-0xd24(%rbp)
    5f0e:	5d 4a 83 
    5f11:	48 8d 05 70 96 00 00 	lea    0x9670(%rip),%rax        # f588 <g_639>
    5f18:	48 89 85 e8 f3 ff ff 	mov    %rax,-0xc18(%rbp)
    5f1f:	48 8d 05 1a 83 00 00 	lea    0x831a(%rip),%rax        # e240 <g_880>
    5f26:	48 89 85 f0 f3 ff ff 	mov    %rax,-0xc10(%rbp)
    5f2d:	48 b8 e7 93 74 e4 75 	movabs $0x8940c775e47493e7,%rax
    5f34:	c7 40 89 
    5f37:	48 89 85 f8 f3 ff ff 	mov    %rax,-0xc08(%rbp)
    5f3e:	48 c7 85 08 f3 ff ff 	movq   $0x0,-0xcf8(%rbp)
    5f45:	00 00 00 00 
    5f49:	48 8d 85 08 f3 ff ff 	lea    -0xcf8(%rbp),%rax
    5f50:	48 89 85 10 f3 ff ff 	mov    %rax,-0xcf0(%rbp)
    5f57:	48 8d 85 10 f3 ff ff 	lea    -0xcf0(%rbp),%rax
    5f5e:	48 89 85 00 f4 ff ff 	mov    %rax,-0xc00(%rbp)
    5f65:	c7 85 7c f2 ff ff 00 	movl   $0x0,-0xd84(%rbp)
    5f6c:	00 00 00 
    5f6f:	eb 14                	jmp    5f85 <func_1+0x7d0>
    5f71:	8b 85 7c f2 ff ff    	mov    -0xd84(%rbp),%eax
    5f77:	48 98                	cltq   
    5f79:	c6 44 05 dd a8       	movb   $0xa8,-0x23(%rbp,%rax,1)
    5f7e:	83 85 7c f2 ff ff 01 	addl   $0x1,-0xd84(%rbp)
    5f85:	83 bd 7c f2 ff ff 01 	cmpl   $0x1,-0xd84(%rbp)
    5f8c:	7e e3                	jle    5f71 <func_1+0x7bc>
    5f8e:	c7 85 7c f2 ff ff 00 	movl   $0x0,-0xd84(%rbp)
    5f95:	00 00 00 
    5f98:	eb 4d                	jmp    5fe7 <func_1+0x832>
    5f9a:	c7 85 80 f2 ff ff 00 	movl   $0x0,-0xd80(%rbp)
    5fa1:	00 00 00 
    5fa4:	eb 31                	jmp    5fd7 <func_1+0x822>
    5fa6:	8b 85 80 f2 ff ff    	mov    -0xd80(%rbp),%eax
    5fac:	48 63 c8             	movslq %eax,%rcx
    5faf:	8b 85 7c f2 ff ff    	mov    -0xd84(%rbp),%eax
    5fb5:	48 63 d0             	movslq %eax,%rdx
    5fb8:	48 89 d0             	mov    %rdx,%rax
    5fbb:	48 c1 e0 03          	shl    $0x3,%rax
    5fbf:	48 01 d0             	add    %rdx,%rax
    5fc2:	48 01 c8             	add    %rcx,%rax
    5fc5:	c7 84 85 50 fd ff ff 	movl   $0x0,-0x2b0(%rbp,%rax,4)
    5fcc:	00 00 00 00 
    5fd0:	83 85 80 f2 ff ff 01 	addl   $0x1,-0xd80(%rbp)
    5fd7:	83 bd 80 f2 ff ff 08 	cmpl   $0x8,-0xd80(%rbp)
    5fde:	7e c6                	jle    5fa6 <func_1+0x7f1>
    5fe0:	83 85 7c f2 ff ff 01 	addl   $0x1,-0xd84(%rbp)
    5fe7:	83 bd 7c f2 ff ff 00 	cmpl   $0x0,-0xd84(%rbp)
    5fee:	7e aa                	jle    5f9a <func_1+0x7e5>
    5ff0:	0f b7 05 49 82 00 00 	movzwl 0x8249(%rip),%eax        # e240 <g_880>
    5ff7:	83 e8 01             	sub    $0x1,%eax
    5ffa:	66 89 05 3f 82 00 00 	mov    %ax,0x823f(%rip)        # e240 <g_880>
    6001:	0f b7 05 38 82 00 00 	movzwl 0x8238(%rip),%eax        # e240 <g_880>
    6008:	66 83 f8 01          	cmp    $0x1,%ax
    600c:	0f 8f cc fe ff ff    	jg     5ede <func_1+0x729>
    6012:	48 8b 85 70 f3 ff ff 	mov    -0xc90(%rbp),%rax
    6019:	48 8b 00             	mov    (%rax),%rax
    601c:	8b 00                	mov    (%rax),%eax
    601e:	0f bf d8             	movswl %ax,%ebx
    6021:	48 8b 85 80 f3 ff ff 	mov    -0xc80(%rbp),%rax
    6028:	48 8d 15 09 82 00 00 	lea    0x8209(%rip),%rdx        # e238 <g_825>
    602f:	48 89 10             	mov    %rdx,(%rax)
    6032:	48 8b 85 80 f3 ff ff 	mov    -0xc80(%rbp),%rax
    6039:	48 8b 10             	mov    (%rax),%rdx
    603c:	48 8d 85 e0 f2 ff ff 	lea    -0xd20(%rbp),%rax
    6043:	48 39 c2             	cmp    %rax,%rdx
    6046:	0f 95 c0             	setne  %al
    6049:	44 0f b6 e0          	movzbl %al,%r12d
    604d:	48 8b 05 34 95 00 00 	mov    0x9534(%rip),%rax        # f588 <g_639>
    6054:	0f b6 00             	movzbl (%rax),%eax
    6057:	0f be d0             	movsbl %al,%edx
    605a:	48 8b 85 28 f3 ff ff 	mov    -0xcd8(%rbp),%rax
    6061:	8b 00                	mov    (%rax),%eax
    6063:	09 d0                	or     %edx,%eax
    6065:	83 f8 01             	cmp    $0x1,%eax
    6068:	0f 9f c0             	setg   %al
    606b:	89 c2                	mov    %eax,%edx
    606d:	48 8b 85 70 f3 ff ff 	mov    -0xc90(%rbp),%rax
    6074:	48 8b 00             	mov    (%rax),%rax
    6077:	8b 00                	mov    (%rax),%eax
    6079:	21 c2                	and    %eax,%edx
    607b:	48 8b 05 2e 8c 00 00 	mov    0x8c2e(%rip),%rax        # ecb0 <g_268>
    6082:	88 10                	mov    %dl,(%rax)
    6084:	48 8d 85 e8 f2 ff ff 	lea    -0xd18(%rbp),%rax
    608b:	48 39 85 68 f3 ff ff 	cmp    %rax,-0xc98(%rbp)
    6092:	48 8b 85 28 f3 ff ff 	mov    -0xcd8(%rbp),%rax
    6099:	8b 00                	mov    (%rax),%eax
    609b:	85 c0                	test   %eax,%eax
    609d:	8b 85 04 fa ff ff    	mov    -0x5fc(%rbp),%eax
    60a3:	89 c0                	mov    %eax,%eax
    60a5:	48 39 85 48 f3 ff ff 	cmp    %rax,-0xcb8(%rbp)
    60ac:	0f 94 c0             	sete   %al
    60af:	0f b6 d0             	movzbl %al,%edx
    60b2:	48 8b 05 cf 94 00 00 	mov    0x94cf(%rip),%rax        # f588 <g_639>
    60b9:	0f b6 00             	movzbl (%rax),%eax
    60bc:	0f be c0             	movsbl %al,%eax
    60bf:	39 c2                	cmp    %eax,%edx
    60c1:	0f 9e c0             	setle  %al
    60c4:	f7 d0                	not    %eax
    60c6:	89 c2                	mov    %eax,%edx
    60c8:	0f b6 05 a2 7f 00 00 	movzbl 0x7fa2(%rip),%eax        # e071 <g_246+0x11>
    60cf:	21 d0                	and    %edx,%eax
    60d1:	0f be c0             	movsbl %al,%eax
    60d4:	be 32 00 00 00       	mov    $0x32,%esi
    60d9:	89 c7                	mov    %eax,%edi
    60db:	e8 f4 e0 ff ff       	callq  41d4 <safe_add_func_int8_t_s_s>
    60e0:	0f be c0             	movsbl %al,%eax
    60e3:	41 39 c4             	cmp    %eax,%r12d
    60e6:	48 8b 85 68 f3 ff ff 	mov    -0xc98(%rbp),%rax
    60ed:	48 8b 00             	mov    (%rax),%rax
    60f0:	48 8b 00             	mov    (%rax),%rax
    60f3:	48 8b 00             	mov    (%rax),%rax
    60f6:	48 85 c0             	test   %rax,%rax
    60f9:	0f 95 c0             	setne  %al
    60fc:	0f b6 c0             	movzbl %al,%eax
    60ff:	be 01 00 00 00       	mov    $0x1,%esi
    6104:	89 c7                	mov    %eax,%edi
    6106:	e8 f4 e5 ff ff       	callq  46ff <safe_div_func_int32_t_s_s>
    610b:	98                   	cwtl   
    610c:	89 de                	mov    %ebx,%esi
    610e:	89 c7                	mov    %eax,%edi
    6110:	e8 e0 e2 ff ff       	callq  43f5 <safe_mul_func_int16_t_s_s>
    6115:	be 0b 00 00 00       	mov    $0xb,%esi
    611a:	bf 01 00 00 00       	mov    $0x1,%edi
    611f:	e8 9a ec ff ff       	callq  4dbe <safe_lshift_func_uint16_t_u_s>
    6124:	66 85 c0             	test   %ax,%ax
    6127:	75 0b                	jne    6134 <func_1+0x97f>
    6129:	0f b6 05 3d 7f 00 00 	movzbl 0x7f3d(%rip),%eax        # e06d <g_246+0xd>
    6130:	84 c0                	test   %al,%al
    6132:	74 10                	je     6144 <func_1+0x98f>
    6134:	83 bd a8 f2 ff ff 00 	cmpl   $0x0,-0xd58(%rbp)
    613b:	74 07                	je     6144 <func_1+0x98f>
    613d:	b8 01 00 00 00       	mov    $0x1,%eax
    6142:	eb 05                	jmp    6149 <func_1+0x994>
    6144:	b8 00 00 00 00       	mov    $0x0,%eax
    6149:	48 98                	cltq   
    614b:	be 09 00 00 00       	mov    $0x9,%esi
    6150:	48 89 c7             	mov    %rax,%rdi
    6153:	e8 5c e8 ff ff       	callq  49b4 <safe_mod_func_int64_t_s_s>
    6158:	48 89 c2             	mov    %rax,%rdx
    615b:	48 8b 05 2e 94 00 00 	mov    0x942e(%rip),%rax        # f590 <g_846>
    6162:	8b 08                	mov    (%rax),%ecx
    6164:	31 ca                	xor    %ecx,%edx
    6166:	89 10                	mov    %edx,(%rax)
    6168:	c7 05 d2 7e 00 00 fd 	movl   $0xfffffffd,0x7ed2(%rip)        # e044 <g_102>
    616f:	ff ff ff 
    6172:	e9 cc 04 00 00       	jmpq   6643 <func_1+0xe8e>
    6177:	c7 85 b0 f2 ff ff 01 	movl   $0x1,-0xd50(%rbp)
    617e:	00 00 00 
    6181:	c7 85 b4 f2 ff ff ff 	movl   $0xffffffff,-0xd4c(%rbp)
    6188:	ff ff ff 
    618b:	48 c7 85 90 f3 ff ff 	movq   $0x0,-0xc70(%rbp)
    6192:	00 00 00 00 
    6196:	48 8d 05 8b 95 00 00 	lea    0x958b(%rip),%rax        # f728 <g_1171+0x28>
    619d:	48 89 85 98 f3 ff ff 	mov    %rax,-0xc68(%rbp)
    61a4:	48 8d 85 50 fd ff ff 	lea    -0x2b0(%rbp),%rax
    61ab:	48 8d 15 8e 50 00 00 	lea    0x508e(%rip),%rdx        # b240 <g_291+0x1ec>
    61b2:	b9 51 00 00 00       	mov    $0x51,%ecx
    61b7:	48 89 c7             	mov    %rax,%rdi
    61ba:	48 89 d6             	mov    %rdx,%rsi
    61bd:	f3 48 a5             	rep movsq %ds:(%rsi),%es:(%rdi)
    61c0:	48 8d 05 19 94 00 00 	lea    0x9419(%rip),%rax        # f5e0 <g_896>
    61c7:	48 89 85 a0 f3 ff ff 	mov    %rax,-0xc60(%rbp)
    61ce:	48 c7 85 b0 f4 ff ff 	movq   $0x0,-0xb50(%rbp)
    61d5:	00 00 00 00 
    61d9:	48 c7 85 b8 f4 ff ff 	movq   $0x0,-0xb48(%rbp)
    61e0:	00 00 00 00 
    61e4:	48 c7 85 c0 f4 ff ff 	movq   $0x0,-0xb40(%rbp)
    61eb:	00 00 00 00 
    61ef:	48 c7 85 c8 f4 ff ff 	movq   $0x0,-0xb38(%rbp)
    61f6:	00 00 00 00 
    61fa:	48 c7 85 d0 f4 ff ff 	movq   $0x0,-0xb30(%rbp)
    6201:	00 00 00 00 
    6205:	48 c7 85 d8 f4 ff ff 	movq   $0x0,-0xb28(%rbp)
    620c:	00 00 00 00 
    6210:	48 c7 85 e0 f4 ff ff 	movq   $0x0,-0xb20(%rbp)
    6217:	00 00 00 00 
    621b:	48 c7 85 e8 f4 ff ff 	movq   $0x0,-0xb18(%rbp)
    6222:	00 00 00 00 
    6226:	48 c7 85 f0 f4 ff ff 	movq   $0x0,-0xb10(%rbp)
    622d:	00 00 00 00 
    6231:	48 b8 dd 82 3f 53 e5 	movabs $0x398f06e5533f82dd,%rax
    6238:	06 8f 39 
    623b:	48 89 85 a8 f3 ff ff 	mov    %rax,-0xc58(%rbp)
    6242:	48 c7 05 83 7e 00 00 	movq   $0x0,0x7e83(%rip)        # e0d0 <g_316>
    6249:	00 00 00 00 
    624d:	e9 6a 01 00 00       	jmpq   63bc <func_1+0xc07>
    6252:	48 8d 05 47 7e 00 00 	lea    0x7e47(%rip),%rax        # e0a0 <g_280>
    6259:	48 89 85 50 f4 ff ff 	mov    %rax,-0xbb0(%rbp)
    6260:	48 8d 05 39 7e 00 00 	lea    0x7e39(%rip),%rax        # e0a0 <g_280>
    6267:	48 89 85 58 f4 ff ff 	mov    %rax,-0xba8(%rbp)
    626e:	48 8d 05 2b 7e 00 00 	lea    0x7e2b(%rip),%rax        # e0a0 <g_280>
    6275:	48 89 85 60 f4 ff ff 	mov    %rax,-0xba0(%rbp)
    627c:	48 8d 05 1d 7e 00 00 	lea    0x7e1d(%rip),%rax        # e0a0 <g_280>
    6283:	48 89 85 68 f4 ff ff 	mov    %rax,-0xb98(%rbp)
    628a:	48 8d 05 0f 7e 00 00 	lea    0x7e0f(%rip),%rax        # e0a0 <g_280>
    6291:	48 89 85 70 f4 ff ff 	mov    %rax,-0xb90(%rbp)
    6298:	c7 85 c4 f2 ff ff ce 	movl   $0x8a2292ce,-0xd3c(%rbp)
    629f:	92 22 8a 
    62a2:	c7 85 c8 f2 ff ff 95 	movl   $0x3277a695,-0xd38(%rbp)
    62a9:	a6 77 32 
    62ac:	c7 85 cc f2 ff ff 3e 	movl   $0x23cd273e,-0xd34(%rbp)
    62b3:	27 cd 23 
    62b6:	66 c7 85 80 f4 ff ff 	movw   $0xbb47,-0xb80(%rbp)
    62bd:	47 bb 
    62bf:	66 c7 85 82 f4 ff ff 	movw   $0xcb54,-0xb7e(%rbp)
    62c6:	54 cb 
    62c8:	66 c7 85 84 f4 ff ff 	movw   $0xbb47,-0xb7c(%rbp)
    62cf:	47 bb 
    62d1:	66 c7 85 86 f4 ff ff 	movw   $0xb327,-0xb7a(%rbp)
    62d8:	27 b3 
    62da:	66 c7 85 88 f4 ff ff 	movw   $0xffde,-0xb78(%rbp)
    62e1:	de ff 
    62e3:	66 c7 85 8a f4 ff ff 	movw   $0xb327,-0xb76(%rbp)
    62ea:	27 b3 
    62ec:	66 c7 85 8c f4 ff ff 	movw   $0xbb47,-0xb74(%rbp)
    62f3:	47 bb 
    62f5:	66 c7 85 8e f4 ff ff 	movw   $0xcb54,-0xb72(%rbp)
    62fc:	54 cb 
    62fe:	66 c7 85 90 f4 ff ff 	movw   $0xbb47,-0xb70(%rbp)
    6305:	47 bb 
    6307:	66 c7 85 92 f4 ff ff 	movw   $0xb327,-0xb6e(%rbp)
    630e:	27 b3 
    6310:	66 c7 85 94 f4 ff ff 	movw   $0xffde,-0xb6c(%rbp)
    6317:	de ff 
    6319:	66 c7 85 96 f4 ff ff 	movw   $0xb327,-0xb6a(%rbp)
    6320:	27 b3 
    6322:	66 c7 85 98 f4 ff ff 	movw   $0xbb47,-0xb68(%rbp)
    6329:	47 bb 
    632b:	66 c7 85 9a f4 ff ff 	movw   $0xcb54,-0xb66(%rbp)
    6332:	54 cb 
    6334:	66 c7 85 9c f4 ff ff 	movw   $0xbb47,-0xb64(%rbp)
    633b:	47 bb 
    633d:	66 c7 85 9e f4 ff ff 	movw   $0xb327,-0xb62(%rbp)
    6344:	27 b3 
    6346:	66 c7 85 a0 f4 ff ff 	movw   $0xffde,-0xb60(%rbp)
    634d:	de ff 
    634f:	66 c7 85 a2 f4 ff ff 	movw   $0xb327,-0xb5e(%rbp)
    6356:	27 b3 
    6358:	66 c7 85 a4 f4 ff ff 	movw   $0xbb47,-0xb5c(%rbp)
    635f:	47 bb 
    6361:	66 c7 85 a6 f4 ff ff 	movw   $0xcb54,-0xb5a(%rbp)
    6368:	54 cb 
    636a:	66 c7 85 a8 f4 ff ff 	movw   $0xbb47,-0xb58(%rbp)
    6371:	47 bb 
    6373:	66 c7 85 aa f4 ff ff 	movw   $0xb327,-0xb56(%rbp)
    637a:	27 b3 
    637c:	66 c7 85 ac f4 ff ff 	movw   $0xffde,-0xb54(%rbp)
    6383:	de ff 
    6385:	66 c7 85 ae f4 ff ff 	movw   $0xb327,-0xb52(%rbp)
    638c:	27 b3 
    638e:	48 8d 05 8b 7e 00 00 	lea    0x7e8b(%rip),%rax        # e220 <g_778>
    6395:	48 89 85 d0 f3 ff ff 	mov    %rax,-0xc30(%rbp)
    639c:	48 8d 05 85 7c 00 00 	lea    0x7c85(%rip),%rax        # e028 <g_58>
    63a3:	48 89 85 d8 f3 ff ff 	mov    %rax,-0xc28(%rbp)
    63aa:	48 8b 05 1f 7d 00 00 	mov    0x7d1f(%rip),%rax        # e0d0 <g_316>
    63b1:	48 83 e8 01          	sub    $0x1,%rax
    63b5:	48 89 05 14 7d 00 00 	mov    %rax,0x7d14(%rip)        # e0d0 <g_316>
    63bc:	48 8b 05 0d 7d 00 00 	mov    0x7d0d(%rip),%rax        # e0d0 <g_316>
    63c3:	48 83 f8 e3          	cmp    $0xffffffffffffffe3,%rax
    63c7:	0f 84 85 fe ff ff    	je     6252 <func_1+0xa9d>
    63cd:	48 8d 05 0c 92 00 00 	lea    0x920c(%rip),%rax        # f5e0 <g_896>
    63d4:	48 39 85 a0 f3 ff ff 	cmp    %rax,-0xc60(%rbp)
    63db:	75 13                	jne    63f0 <func_1+0xc3b>
    63dd:	66 83 bd 70 f2 ff ff 	cmpw   $0x0,-0xd90(%rbp)
    63e4:	00 
    63e5:	0f 84 3b 02 00 00    	je     6626 <func_1+0xe71>
    63eb:	e9 62 02 00 00       	jmpq   6652 <func_1+0xe9d>
    63f0:	c7 85 b8 f2 ff ff 94 	movl   $0xf2843994,-0xd48(%rbp)
    63f7:	39 84 f2 
    63fa:	c6 85 6f f2 ff ff 01 	movb   $0x1,-0xd91(%rbp)
    6401:	48 c7 85 b0 f3 ff ff 	movq   $0x0,-0xc50(%rbp)
    6408:	00 00 00 00 
    640c:	48 c7 85 b8 f3 ff ff 	movq   $0x0,-0xc48(%rbp)
    6413:	00 00 00 00 
    6417:	c7 85 bc f2 ff ff ff 	movl   $0xffffffff,-0xd44(%rbp)
    641e:	ff ff ff 
    6421:	c7 85 c0 f2 ff ff af 	movl   $0xba5e3daf,-0xd40(%rbp)
    6428:	3d 5e ba 
    642b:	48 b8 1e 5f 04 d3 3a 	movabs $0x9237a03ad3045f1e,%rax
    6432:	a0 37 92 
    6435:	48 89 85 c0 f3 ff ff 	mov    %rax,-0xc40(%rbp)
    643c:	48 8d 05 05 93 00 00 	lea    0x9305(%rip),%rax        # f748 <g_1248>
    6443:	48 89 85 c8 f3 ff ff 	mov    %rax,-0xc38(%rbp)
    644a:	8b 85 b8 f2 ff ff    	mov    -0xd48(%rbp),%eax
    6450:	0f be c0             	movsbl %al,%eax
    6453:	be 02 00 00 00       	mov    $0x2,%esi
    6458:	89 c7                	mov    %eax,%edi
    645a:	e8 0d df ff ff       	callq  436c <safe_rshift_func_int8_t_s_u>
    645f:	48 8b 05 ba 90 00 00 	mov    0x90ba(%rip),%rax        # f520 <g_511>
    6466:	48 8b 00             	mov    (%rax),%rax
    6469:	48 85 c0             	test   %rax,%rax
    646c:	0f 94 c0             	sete   %al
    646f:	0f b6 c0             	movzbl %al,%eax
    6472:	be 0b 00 00 00       	mov    $0xb,%esi
    6477:	89 c7                	mov    %eax,%edi
    6479:	e8 14 e0 ff ff       	callq  4492 <safe_lshift_func_int16_t_s_s>
    647e:	48 8b 15 fb 87 00 00 	mov    0x87fb(%rip),%rdx        # ec80 <g_60>
    6485:	8b 0a                	mov    (%rdx),%ecx
    6487:	0f bf d0             	movswl %ax,%edx
    648a:	48 8b 05 ef 87 00 00 	mov    0x87ef(%rip),%rax        # ec80 <g_60>
    6491:	21 ca                	and    %ecx,%edx
    6493:	89 10                	mov    %edx,(%rax)
    6495:	8b 00                	mov    (%rax),%eax
    6497:	0b 85 ac f2 ff ff    	or     -0xd54(%rbp),%eax
    649d:	09 85 90 f2 ff ff    	or     %eax,-0xd70(%rbp)
    64a3:	48 8b 05 16 7c 00 00 	mov    0x7c16(%rip),%rax        # e0c0 <g_280+0x20>
    64aa:	48 89 c3             	mov    %rax,%rbx
    64ad:	48 8b 85 28 f3 ff ff 	mov    -0xcd8(%rbp),%rax
    64b4:	8b 00                	mov    (%rax),%eax
    64b6:	0f bf d0             	movswl %ax,%edx
    64b9:	48 8b 8d d8 f4 ff ff 	mov    -0xb28(%rbp),%rcx
    64c0:	48 8b 05 79 92 00 00 	mov    0x9279(%rip),%rax        # f740 <g_1227>
    64c7:	48 8b 00             	mov    (%rax),%rax
    64ca:	48 39 c1             	cmp    %rax,%rcx
    64cd:	0f 95 c0             	setne  %al
    64d0:	0f b6 c0             	movzbl %al,%eax
    64d3:	89 d6                	mov    %edx,%esi
    64d5:	89 c7                	mov    %eax,%edi
    64d7:	e8 79 df ff ff       	callq  4455 <safe_div_func_int16_t_s_s>
    64dc:	48 8b 05 cd 87 00 00 	mov    0x87cd(%rip),%rax        # ecb0 <g_268>
    64e3:	0f b6 00             	movzbl (%rax),%eax
    64e6:	84 c0                	test   %al,%al
    64e8:	75 28                	jne    6512 <func_1+0xd5d>
    64ea:	48 8b 05 6f 92 00 00 	mov    0x926f(%rip),%rax        # f760 <g_1245>
    64f1:	48 8b 00             	mov    (%rax),%rax
    64f4:	48 39 85 b8 f3 ff ff 	cmp    %rax,-0xc48(%rbp)
    64fb:	0f 94 c0             	sete   %al
    64fe:	0f b6 c0             	movzbl %al,%eax
    6501:	48 89 05 60 7d 00 00 	mov    %rax,0x7d60(%rip)        # e268 <g_1420+0x8>
    6508:	48 8b 05 59 7d 00 00 	mov    0x7d59(%rip),%rax        # e268 <g_1420+0x8>
    650f:	48 85 c0             	test   %rax,%rax
    6512:	8b 05 14 7b 00 00    	mov    0x7b14(%rip),%eax        # e02c <g_61>
    6518:	85 c0                	test   %eax,%eax
    651a:	74 07                	je     6523 <func_1+0xd6e>
    651c:	b8 01 00 00 00       	mov    $0x1,%eax
    6521:	eb 05                	jmp    6528 <func_1+0xd73>
    6523:	b8 00 00 00 00       	mov    $0x0,%eax
    6528:	0f b6 d0             	movzbl %al,%edx
    652b:	48 8b 05 0e 92 00 00 	mov    0x920e(%rip),%rax        # f740 <g_1227>
    6532:	48 8b 00             	mov    (%rax),%rax
    6535:	48 8b 00             	mov    (%rax),%rax
    6538:	48 39 85 b0 f3 ff ff 	cmp    %rax,-0xc50(%rbp)
    653f:	0f 94 c0             	sete   %al
    6542:	0f b6 c0             	movzbl %al,%eax
    6545:	89 d6                	mov    %edx,%esi
    6547:	89 c7                	mov    %eax,%edi
    6549:	e8 8d e6 ff ff       	callq  4bdb <safe_div_func_uint8_t_u_u>
    654e:	0f b7 85 76 f2 ff ff 	movzwl -0xd8a(%rbp),%eax
    6555:	0f be c0             	movsbl %al,%eax
    6558:	be 95 ff ff ff       	mov    $0xffffff95,%esi
    655d:	89 c7                	mov    %eax,%edi
    655f:	e8 cd dc ff ff       	callq  4231 <safe_mod_func_int8_t_s_s>
    6564:	8b 85 b8 f2 ff ff    	mov    -0xd48(%rbp),%eax
    656a:	0f b7 c0             	movzwl %ax,%eax
    656d:	be 05 00 00 00       	mov    $0x5,%esi
    6572:	89 c7                	mov    %eax,%edi
    6574:	e8 8d e8 ff ff       	callq  4e06 <safe_lshift_func_uint16_t_u_u>
    6579:	66 85 c0             	test   %ax,%ax
    657c:	75 08                	jne    6586 <func_1+0xdd1>
    657e:	8b 85 f8 fd ff ff    	mov    -0x208(%rbp),%eax
    6584:	85 c0                	test   %eax,%eax
    6586:	48 89 de             	mov    %rbx,%rsi
    6589:	48 c7 c7 ff ff ff ff 	mov    $0xffffffffffffffff,%rdi
    6590:	e8 99 ea ff ff       	callq  502e <safe_add_func_uint64_t_u_u>
    6595:	48 8b 95 70 f3 ff ff 	mov    -0xc90(%rbp),%rdx
    659c:	48 8b 12             	mov    (%rdx),%rdx
    659f:	8b 12                	mov    (%rdx),%edx
    65a1:	21 c2                	and    %eax,%edx
    65a3:	48 8b 85 70 f3 ff ff 	mov    -0xc90(%rbp),%rax
    65aa:	48 8b 00             	mov    (%rax),%rax
    65ad:	89 10                	mov    %edx,(%rax)
    65af:	c7 85 8c f2 ff ff 00 	movl   $0x0,-0xd74(%rbp)
    65b6:	00 00 00 
    65b9:	eb 62                	jmp    661d <func_1+0xe68>
    65bb:	48 c7 85 50 f4 ff ff 	movq   $0x0,-0xbb0(%rbp)
    65c2:	00 00 00 00 
    65c6:	48 c7 85 58 f4 ff ff 	movq   $0x0,-0xba8(%rbp)
    65cd:	00 00 00 00 
    65d1:	48 c7 85 60 f4 ff ff 	movq   $0x0,-0xba0(%rbp)
    65d8:	00 00 00 00 
    65dc:	48 c7 85 68 f4 ff ff 	movq   $0x0,-0xb98(%rbp)
    65e3:	00 00 00 00 
    65e7:	c7 85 84 f2 ff ff 00 	movl   $0x0,-0xd7c(%rbp)
    65ee:	00 00 00 
    65f1:	eb 1a                	jmp    660d <func_1+0xe58>
    65f3:	8b 85 84 f2 ff ff    	mov    -0xd7c(%rbp),%eax
    65f9:	48 98                	cltq   
    65fb:	c7 84 85 80 f4 ff ff 	movl   $0x5,-0xb80(%rbp,%rax,4)
    6602:	05 00 00 00 
    6606:	83 85 84 f2 ff ff 01 	addl   $0x1,-0xd7c(%rbp)
    660d:	83 bd 84 f2 ff ff 08 	cmpl   $0x8,-0xd7c(%rbp)
    6614:	7e dd                	jle    65f3 <func_1+0xe3e>
    6616:	83 85 8c f2 ff ff 01 	addl   $0x1,-0xd74(%rbp)
    661d:	83 bd 8c f2 ff ff 01 	cmpl   $0x1,-0xd74(%rbp)
    6624:	7e 95                	jle    65bb <func_1+0xe06>
    6626:	83 bd b0 f2 ff ff 00 	cmpl   $0x0,-0xd50(%rbp)
    662d:	74 05                	je     6634 <func_1+0xe7f>
    662f:	e9 9c f8 ff ff       	jmpq   5ed0 <func_1+0x71b>
    6634:	8b 05 0a 7a 00 00    	mov    0x7a0a(%rip),%eax        # e044 <g_102>
    663a:	83 c0 01             	add    $0x1,%eax
    663d:	89 05 01 7a 00 00    	mov    %eax,0x7a01(%rip)        # e044 <g_102>
    6643:	8b 05 fb 79 00 00    	mov    0x79fb(%rip),%eax        # e044 <g_102>
    6649:	83 f8 15             	cmp    $0x15,%eax
    664c:	0f 87 25 fb ff ff    	ja     6177 <func_1+0x9c2>
    6652:	48 8b 85 70 f3 ff ff 	mov    -0xc90(%rbp),%rax
    6659:	48 8b 00             	mov    (%rax),%rax
    665c:	8b 00                	mov    (%rax),%eax
    665e:	0f b6 d8             	movzbl %al,%ebx
    6661:	48 8b 85 88 f3 ff ff 	mov    -0xc78(%rbp),%rax
    6668:	44 0f b7 e0          	movzwl %ax,%r12d
    666c:	48 8b 05 15 8f 00 00 	mov    0x8f15(%rip),%rax        # f588 <g_639>
    6673:	0f b6 00             	movzbl (%rax),%eax
    6676:	3c 01                	cmp    $0x1,%al
    6678:	0f 94 c0             	sete   %al
    667b:	0f b6 c0             	movzbl %al,%eax
    667e:	be 84 ff ff ff       	mov    $0xffffff84,%esi
    6683:	89 c7                	mov    %eax,%edi
    6685:	e8 e0 db ff ff       	callq  426a <safe_div_func_int8_t_s_s>
    668a:	66 98                	cbtw   
    668c:	0f b7 c0             	movzwl %ax,%eax
    668f:	44 89 e6             	mov    %r12d,%esi
    6692:	89 c7                	mov    %eax,%edi
    6694:	e8 66 e6 ff ff       	callq  4cff <safe_add_func_uint16_t_u_u>
    6699:	0f b6 c0             	movzbl %al,%eax
    669c:	89 de                	mov    %ebx,%esi
    669e:	89 c7                	mov    %eax,%edi
    66a0:	e8 ee e4 ff ff       	callq  4b93 <safe_mul_func_uint8_t_u_u>
    66a5:	0f b6 c0             	movzbl %al,%eax
    66a8:	be 0e 00 00 00       	mov    $0xe,%esi
    66ad:	89 c7                	mov    %eax,%edi
    66af:	e8 76 de ff ff       	callq  452a <safe_rshift_func_int16_t_s_s>
    66b4:	48 8b 85 70 f3 ff ff 	mov    -0xc90(%rbp),%rax
    66bb:	48 8b 00             	mov    (%rax),%rax
    66be:	c7 00 01 00 00 00    	movl   $0x1,(%rax)
    66c4:	48 8b 05 bd 85 00 00 	mov    0x85bd(%rip),%rax        # ec88 <g_59>
    66cb:	48 8b 10             	mov    (%rax),%rdx
    66ce:	48 8b 05 ab 85 00 00 	mov    0x85ab(%rip),%rax        # ec80 <g_60>
    66d5:	8b 12                	mov    (%rdx),%edx
    66d7:	89 10                	mov    %edx,(%rax)
    66d9:	48 8d 05 90 8e 00 00 	lea    0x8e90(%rip),%rax        # f570 <g_560>
    66e0:	48 8b 00             	mov    (%rax),%rax
    66e3:	48 8b 00             	mov    (%rax),%rax
    66e6:	48 8b 00             	mov    (%rax),%rax
    66e9:	0f b7 00             	movzwl (%rax),%eax
    66ec:	48 8b 5d e8          	mov    -0x18(%rbp),%rbx
    66f0:	64 48 33 1c 25 28 00 	xor    %fs:0x28,%rbx
    66f7:	00 00 
    66f9:	74 05                	je     6700 <func_1+0xf4b>
    66fb:	e8 70 d9 ff ff       	callq  4070 <__stack_chk_fail@plt>
    6700:	48 81 c4 90 0d 00 00 	add    $0xd90,%rsp
    6707:	5b                   	pop    %rbx
    6708:	41 5c                	pop    %r12
    670a:	5d                   	pop    %rbp
    670b:	c3                   	retq   

000000000000670c <func_2>:
    670c:	f3 0f 1e fa          	endbr64 
    6710:	55                   	push   %rbp
    6711:	48 89 e5             	mov    %rsp,%rbp
    6714:	48 81 ec 20 04 00 00 	sub    $0x420,%rsp
    671b:	89 f8                	mov    %edi,%eax
    671d:	89 b5 e8 fb ff ff    	mov    %esi,-0x418(%rbp)
    6723:	66 89 85 ec fb ff ff 	mov    %ax,-0x414(%rbp)
    672a:	89 d0                	mov    %edx,%eax
    672c:	88 85 e4 fb ff ff    	mov    %al,-0x41c(%rbp)
    6732:	64 48 8b 04 25 28 00 	mov    %fs:0x28,%rax
    6739:	00 00 
    673b:	48 89 45 f8          	mov    %rax,-0x8(%rbp)
    673f:	31 c0                	xor    %eax,%eax
    6741:	48 b8 15 c6 98 f7 c7 	movabs $0x415a9c7f798c615,%rax
    6748:	a9 15 04 
    674b:	48 89 85 18 fc ff ff 	mov    %rax,-0x3e8(%rbp)
    6752:	c7 85 fc fb ff ff 00 	movl   $0x0,-0x404(%rbp)
    6759:	00 00 00 
    675c:	c7 85 00 fc ff ff 03 	movl   $0x3,-0x400(%rbp)
    6763:	00 00 00 
    6766:	48 c7 85 20 fc ff ff 	movq   $0x9,-0x3e0(%rbp)
    676d:	09 00 00 00 
    6771:	c7 85 04 fc ff ff ff 	movl   $0xffffffff,-0x3fc(%rbp)
    6778:	ff ff ff 
    677b:	c7 85 08 fc ff ff c8 	movl   $0x2aba38c8,-0x3f8(%rbp)
    6782:	38 ba 2a 
    6785:	48 b8 82 e1 93 5c 18 	movabs $0x3abe5d185c93e182,%rax
    678c:	5d be 3a 
    678f:	48 89 85 28 fc ff ff 	mov    %rax,-0x3d8(%rbp)
    6796:	c7 85 0c fc ff ff 07 	movl   $0x9f4fd807,-0x3f4(%rbp)
    679d:	d8 4f 9f 
    67a0:	c7 85 50 fc ff ff 02 	movl   $0x2,-0x3b0(%rbp)
    67a7:	00 00 00 
    67aa:	c7 85 54 fc ff ff 02 	movl   $0x2,-0x3ac(%rbp)
    67b1:	00 00 00 
    67b4:	c7 85 58 fc ff ff 02 	movl   $0x2,-0x3a8(%rbp)
    67bb:	00 00 00 
    67be:	c7 85 5c fc ff ff 02 	movl   $0x2,-0x3a4(%rbp)
    67c5:	00 00 00 
    67c8:	c7 85 60 fc ff ff 02 	movl   $0x2,-0x3a0(%rbp)
    67cf:	00 00 00 
    67d2:	c7 85 64 fc ff ff 02 	movl   $0x2,-0x39c(%rbp)
    67d9:	00 00 00 
    67dc:	c7 85 68 fc ff ff 02 	movl   $0x2,-0x398(%rbp)
    67e3:	00 00 00 
    67e6:	c7 85 6c fc ff ff 02 	movl   $0x2,-0x394(%rbp)
    67ed:	00 00 00 
    67f0:	48 83 bd 18 fc ff ff 	cmpq   $0x0,-0x3e8(%rbp)
    67f7:	00 
    67f8:	75 22                	jne    681c <func_2+0x110>
    67fa:	8b 85 e8 fb ff ff    	mov    -0x418(%rbp),%eax
    6800:	0f bf d0             	movswl %ax,%edx
    6803:	48 8b 05 76 8d 00 00 	mov    0x8d76(%rip),%rax        # f580 <g_587>
    680a:	0f b7 00             	movzwl (%rax),%eax
    680d:	98                   	cwtl   
    680e:	89 d6                	mov    %edx,%esi
    6810:	89 c7                	mov    %eax,%edi
    6812:	e8 3e dc ff ff       	callq  4455 <safe_div_func_int16_t_s_s>
    6817:	66 85 c0             	test   %ax,%ax
    681a:	74 07                	je     6823 <func_2+0x117>
    681c:	b8 01 00 00 00       	mov    $0x1,%eax
    6821:	eb 05                	jmp    6828 <func_2+0x11c>
    6823:	b8 00 00 00 00       	mov    $0x0,%eax
    6828:	31 85 fc fb ff ff    	xor    %eax,-0x404(%rbp)
    682e:	be 03 00 00 00       	mov    $0x3,%esi
    6833:	bf 01 00 00 00       	mov    $0x1,%edi
    6838:	e8 81 e4 ff ff       	callq  4cbe <safe_rshift_func_uint8_t_u_u>
    683d:	0f b6 c0             	movzbl %al,%eax
    6840:	89 85 fc fb ff ff    	mov    %eax,-0x404(%rbp)
    6846:	48 8b 05 33 84 00 00 	mov    0x8433(%rip),%rax        # ec80 <g_60>
    684d:	8b 95 fc fb ff ff    	mov    -0x404(%rbp),%edx
    6853:	89 10                	mov    %edx,(%rax)
    6855:	c7 05 b9 79 00 00 01 	movl   $0x1,0x79b9(%rip)        # e218 <g_656>
    685c:	00 00 00 
    685f:	e9 9c 00 00 00       	jmpq   6900 <func_2+0x1f4>
    6864:	48 8d 05 3d 93 00 00 	lea    0x933d(%rip),%rax        # fba8 <g_398>
    686b:	48 89 85 30 fc ff ff 	mov    %rax,-0x3d0(%rbp)
    6872:	48 8d 05 13 79 00 00 	lea    0x7913(%rip),%rax        # e18c <g_652+0x8c>
    6879:	48 89 85 38 fc ff ff 	mov    %rax,-0x3c8(%rbp)
    6880:	48 8d 05 a9 77 00 00 	lea    0x77a9(%rip),%rax        # e030 <g_62>
    6887:	48 89 85 40 fc ff ff 	mov    %rax,-0x3c0(%rbp)
    688e:	48 8d 05 93 77 00 00 	lea    0x7793(%rip),%rax        # e028 <g_58>
    6895:	48 89 85 48 fc ff ff 	mov    %rax,-0x3b8(%rbp)
    689c:	48 8d 85 70 fc ff ff 	lea    -0x390(%rbp),%rax
    68a3:	48 8d 15 56 7e 00 00 	lea    0x7e56(%rip),%rdx        # e700 <g_1446+0x458>
    68aa:	b9 70 00 00 00       	mov    $0x70,%ecx
    68af:	48 89 c7             	mov    %rax,%rdi
    68b2:	48 89 d6             	mov    %rdx,%rsi
    68b5:	f3 48 a5             	rep movsq %ds:(%rsi),%es:(%rdi)
    68b8:	c7 85 10 fc ff ff 00 	movl   $0xafa68a00,-0x3f0(%rbp)
    68bf:	8a a6 af 
    68c2:	c7 85 14 fc ff ff fd 	movl   $0x926be9fd,-0x3ec(%rbp)
    68c9:	e9 6b 92 
    68cc:	83 85 10 fc ff ff 01 	addl   $0x1,-0x3f0(%rbp)
    68d3:	8b 05 3f 79 00 00    	mov    0x793f(%rip),%eax        # e218 <g_656>
    68d9:	89 c2                	mov    %eax,%edx
    68db:	48 8d 05 12 78 00 00 	lea    0x7812(%rip),%rax        # e0f4 <g_606>
    68e2:	0f b6 04 02          	movzbl (%rdx,%rax,1),%eax
    68e6:	84 c0                	test   %al,%al
    68e8:	75 27                	jne    6911 <func_2+0x205>
    68ea:	83 ad 14 fc ff ff 01 	subl   $0x1,-0x3ec(%rbp)
    68f1:	8b 05 21 79 00 00    	mov    0x7921(%rip),%eax        # e218 <g_656>
    68f7:	83 c0 01             	add    $0x1,%eax
    68fa:	89 05 18 79 00 00    	mov    %eax,0x7918(%rip)        # e218 <g_656>
    6900:	8b 05 12 79 00 00    	mov    0x7912(%rip),%eax        # e218 <g_656>
    6906:	83 f8 05             	cmp    $0x5,%eax
    6909:	0f 86 55 ff ff ff    	jbe    6864 <func_2+0x158>
    690f:	eb 01                	jmp    6912 <func_2+0x206>
    6911:	90                   	nop
    6912:	8b 85 e8 fb ff ff    	mov    -0x418(%rbp),%eax
    6918:	48 8b 4d f8          	mov    -0x8(%rbp),%rcx
    691c:	64 48 33 0c 25 28 00 	xor    %fs:0x28,%rcx
    6923:	00 00 
    6925:	74 05                	je     692c <func_2+0x220>
    6927:	e8 44 d7 ff ff       	callq  4070 <__stack_chk_fail@plt>
    692c:	c9                   	leaveq 
    692d:	c3                   	retq   

000000000000692e <func_12>:
    692e:	f3 0f 1e fa          	endbr64 
    6932:	55                   	push   %rbp
    6933:	48 89 e5             	mov    %rsp,%rbp
    6936:	48 81 ec c0 00 00 00 	sub    $0xc0,%rsp
    693d:	48 89 bd 58 ff ff ff 	mov    %rdi,-0xa8(%rbp)
    6944:	48 89 b5 50 ff ff ff 	mov    %rsi,-0xb0(%rbp)
    694b:	48 89 95 48 ff ff ff 	mov    %rdx,-0xb8(%rbp)
    6952:	89 c8                	mov    %ecx,%eax
    6954:	66 89 85 44 ff ff ff 	mov    %ax,-0xbc(%rbp)
    695b:	64 48 8b 04 25 28 00 	mov    %fs:0x28,%rax
    6962:	00 00 
    6964:	48 89 45 f8          	mov    %rax,-0x8(%rbp)
    6968:	31 c0                	xor    %eax,%eax
    696a:	48 8d 05 37 92 00 00 	lea    0x9237(%rip),%rax        # fba8 <g_398>
    6971:	48 89 85 70 ff ff ff 	mov    %rax,-0x90(%rbp)
    6978:	48 8d 05 85 78 00 00 	lea    0x7885(%rip),%rax        # e204 <g_652+0x104>
    697f:	48 89 85 78 ff ff ff 	mov    %rax,-0x88(%rbp)
    6986:	48 c7 45 80 00 00 00 	movq   $0x0,-0x80(%rbp)
    698d:	00 
    698e:	48 8d 05 9f 76 00 00 	lea    0x769f(%rip),%rax        # e034 <g_62+0x4>
    6995:	48 89 45 88          	mov    %rax,-0x78(%rbp)
    6999:	48 8d 05 08 92 00 00 	lea    0x9208(%rip),%rax        # fba8 <g_398>
    69a0:	48 89 45 90          	mov    %rax,-0x70(%rbp)
    69a4:	48 8d 05 71 77 00 00 	lea    0x7771(%rip),%rax        # e11c <g_652+0x1c>
    69ab:	48 89 45 98          	mov    %rax,-0x68(%rbp)
    69af:	66 c7 85 66 ff ff ff 	movw   $0xfffe,-0x9a(%rbp)
    69b6:	fe ff 
    69b8:	c7 85 68 ff ff ff 00 	movl   $0x0,-0x98(%rbp)
    69bf:	00 00 00 
    69c2:	eb 43                	jmp    6a07 <func_12+0xd9>
    69c4:	c7 85 6c ff ff ff 00 	movl   $0x0,-0x94(%rbp)
    69cb:	00 00 00 
    69ce:	eb 27                	jmp    69f7 <func_12+0xc9>
    69d0:	8b 85 6c ff ff ff    	mov    -0x94(%rbp),%eax
    69d6:	48 63 d0             	movslq %eax,%rdx
    69d9:	8b 85 68 ff ff ff    	mov    -0x98(%rbp),%eax
    69df:	48 98                	cltq   
    69e1:	48 01 d0             	add    %rdx,%rax
    69e4:	48 8d 15 bd 91 00 00 	lea    0x91bd(%rip),%rdx        # fba8 <g_398>
    69eb:	48 89 54 c5 a0       	mov    %rdx,-0x60(%rbp,%rax,8)
    69f0:	83 85 6c ff ff ff 01 	addl   $0x1,-0x94(%rbp)
    69f7:	83 bd 6c ff ff ff 00 	cmpl   $0x0,-0x94(%rbp)
    69fe:	7e d0                	jle    69d0 <func_12+0xa2>
    6a00:	83 85 68 ff ff ff 01 	addl   $0x1,-0x98(%rbp)
    6a07:	83 bd 68 ff ff ff 09 	cmpl   $0x9,-0x98(%rbp)
    6a0e:	7e b4                	jle    69c4 <func_12+0x96>
    6a10:	66 83 85 66 ff ff ff 	addw   $0x1,-0x9a(%rbp)
    6a17:	01 
    6a18:	48 8b 85 48 ff ff ff 	mov    -0xb8(%rbp),%rax
    6a1f:	48 8b 4d f8          	mov    -0x8(%rbp),%rcx
    6a23:	64 48 33 0c 25 28 00 	xor    %fs:0x28,%rcx
    6a2a:	00 00 
    6a2c:	74 05                	je     6a33 <func_12+0x105>
    6a2e:	e8 3d d6 ff ff       	callq  4070 <__stack_chk_fail@plt>
    6a33:	c9                   	leaveq 
    6a34:	c3                   	retq   

0000000000006a35 <func_19>:
    6a35:	f3 0f 1e fa          	endbr64 
    6a39:	55                   	push   %rbp
    6a3a:	48 89 e5             	mov    %rsp,%rbp
    6a3d:	48 81 ec 20 02 00 00 	sub    $0x220,%rsp
    6a44:	89 bd ec fd ff ff    	mov    %edi,-0x214(%rbp)
    6a4a:	89 b5 e8 fd ff ff    	mov    %esi,-0x218(%rbp)
    6a50:	89 d0                	mov    %edx,%eax
    6a52:	88 85 e4 fd ff ff    	mov    %al,-0x21c(%rbp)
    6a58:	64 48 8b 04 25 28 00 	mov    %fs:0x28,%rax
    6a5f:	00 00 
    6a61:	48 89 45 f8          	mov    %rax,-0x8(%rbp)
    6a65:	31 c0                	xor    %eax,%eax
    6a67:	48 c7 85 20 fe ff ff 	movq   $0x0,-0x1e0(%rbp)
    6a6e:	00 00 00 00 
    6a72:	48 c7 85 28 fe ff ff 	movq   $0x0,-0x1d8(%rbp)
    6a79:	00 00 00 00 
    6a7d:	48 c7 85 30 fe ff ff 	movq   $0x0,-0x1d0(%rbp)
    6a84:	00 00 00 00 
    6a88:	48 c7 85 38 fe ff ff 	movq   $0x0,-0x1c8(%rbp)
    6a8f:	00 00 00 00 
    6a93:	48 c7 85 40 fe ff ff 	movq   $0x0,-0x1c0(%rbp)
    6a9a:	00 00 00 00 
    6a9e:	c7 85 fc fd ff ff d7 	movl   $0x1dba1dd7,-0x204(%rbp)
    6aa5:	1d ba 1d 
    6aa8:	c6 85 f6 fd ff ff e0 	movb   $0xe0,-0x20a(%rbp)
    6aaf:	48 8d 85 90 fe ff ff 	lea    -0x170(%rbp),%rax
    6ab6:	48 8d 15 23 4a 00 00 	lea    0x4a23(%rip),%rdx        # b4e0 <g_291+0x48c>
    6abd:	b9 2d 00 00 00       	mov    $0x2d,%ecx
    6ac2:	48 89 c7             	mov    %rax,%rdi
    6ac5:	48 89 d6             	mov    %rdx,%rsi
    6ac8:	f3 48 a5             	rep movsq %ds:(%rsi),%es:(%rdi)
    6acb:	48 c7 85 00 fe ff ff 	movq   $0x0,-0x200(%rbp)
    6ad2:	00 00 00 00 
    6ad6:	48 8d 05 03 76 00 00 	lea    0x7603(%rip),%rax        # e0e0 <g_414>
    6add:	48 89 85 08 fe ff ff 	mov    %rax,-0x1f8(%rbp)
    6ae4:	48 8d 05 f9 75 00 00 	lea    0x75f9(%rip),%rax        # e0e4 <g_421>
    6aeb:	48 89 85 10 fe ff ff 	mov    %rax,-0x1f0(%rbp)
    6af2:	c6 85 f7 fd ff ff 93 	movb   $0x93,-0x209(%rbp)
    6af9:	c7 85 f8 fd ff ff 00 	movl   $0x0,-0x208(%rbp)
    6b00:	00 00 00 
    6b03:	eb 1e                	jmp    6b23 <func_19+0xee>
    6b05:	8b 85 f8 fd ff ff    	mov    -0x208(%rbp),%eax
    6b0b:	48 98                	cltq   
    6b0d:	48 8d 15 2c 75 00 00 	lea    0x752c(%rip),%rdx        # e040 <g_100>
    6b14:	48 89 94 c5 50 fe ff 	mov    %rdx,-0x1b0(%rbp,%rax,8)
    6b1b:	ff 
    6b1c:	83 85 f8 fd ff ff 01 	addl   $0x1,-0x208(%rbp)
    6b23:	83 bd f8 fd ff ff 06 	cmpl   $0x6,-0x208(%rbp)
    6b2a:	7e d9                	jle    6b05 <func_19+0xd0>
    6b2c:	c7 85 f8 fd ff ff 00 	movl   $0x0,-0x208(%rbp)
    6b33:	00 00 00 
    6b36:	eb 1e                	jmp    6b56 <func_19+0x121>
    6b38:	8b 85 f8 fd ff ff    	mov    -0x208(%rbp),%eax
    6b3e:	48 98                	cltq   
    6b40:	48 8d 15 69 81 00 00 	lea    0x8169(%rip),%rdx        # ecb0 <g_268>
    6b47:	48 89 94 c5 18 fe ff 	mov    %rdx,-0x1e8(%rbp,%rax,8)
    6b4e:	ff 
    6b4f:	83 85 f8 fd ff ff 01 	addl   $0x1,-0x208(%rbp)
    6b56:	83 bd f8 fd ff ff 00 	cmpl   $0x0,-0x208(%rbp)
    6b5d:	7e d9                	jle    6b38 <func_19+0x103>
    6b5f:	8b 85 ec fd ff ff    	mov    -0x214(%rbp),%eax
    6b65:	48 8b 4d f8          	mov    -0x8(%rbp),%rcx
    6b69:	64 48 33 0c 25 28 00 	xor    %fs:0x28,%rcx
    6b70:	00 00 
    6b72:	74 05                	je     6b79 <func_19+0x144>
    6b74:	e8 f7 d4 ff ff       	callq  4070 <__stack_chk_fail@plt>
    6b79:	c9                   	leaveq 
    6b7a:	c3                   	retq   

0000000000006b7b <func_27>:
    6b7b:	f3 0f 1e fa          	endbr64 
    6b7f:	55                   	push   %rbp
    6b80:	48 89 e5             	mov    %rsp,%rbp
    6b83:	41 57                	push   %r15
    6b85:	41 56                	push   %r14
    6b87:	41 55                	push   %r13
    6b89:	41 54                	push   %r12
    6b8b:	53                   	push   %rbx
    6b8c:	48 81 ec 38 09 00 00 	sub    $0x938,%rsp
    6b93:	48 89 bd a8 f6 ff ff 	mov    %rdi,-0x958(%rbp)
    6b9a:	89 f0                	mov    %esi,%eax
    6b9c:	88 85 a4 f6 ff ff    	mov    %al,-0x95c(%rbp)
    6ba2:	64 48 8b 04 25 28 00 	mov    %fs:0x28,%rax
    6ba9:	00 00 
    6bab:	48 89 45 c8          	mov    %rax,-0x38(%rbp)
    6baf:	31 c0                	xor    %eax,%eax
    6bb1:	48 8d 05 c8 84 00 00 	lea    0x84c8(%rip),%rax        # f080 <g_422>
    6bb8:	48 89 85 68 f7 ff ff 	mov    %rax,-0x898(%rbp)
    6bbf:	c7 85 fc f6 ff ff 06 	movl   $0x6,-0x904(%rbp)
    6bc6:	00 00 00 
    6bc9:	c7 85 c4 f6 ff ff f1 	movl   $0x955fc9f1,-0x93c(%rbp)
    6bd0:	c9 5f 95 
    6bd3:	48 8d 85 c4 f6 ff ff 	lea    -0x93c(%rbp),%rax
    6bda:	48 89 85 c0 fd ff ff 	mov    %rax,-0x240(%rbp)
    6be1:	48 8d 05 f8 74 00 00 	lea    0x74f8(%rip),%rax        # e0e0 <g_414>
    6be8:	48 89 85 c8 fd ff ff 	mov    %rax,-0x238(%rbp)
    6bef:	48 c7 85 d0 fd ff ff 	movq   $0x0,-0x230(%rbp)
    6bf6:	00 00 00 00 
    6bfa:	48 8d 05 df 74 00 00 	lea    0x74df(%rip),%rax        # e0e0 <g_414>
    6c01:	48 89 85 d8 fd ff ff 	mov    %rax,-0x228(%rbp)
    6c08:	48 8d 05 d1 74 00 00 	lea    0x74d1(%rip),%rax        # e0e0 <g_414>
    6c0f:	48 89 85 e0 fd ff ff 	mov    %rax,-0x220(%rbp)
    6c16:	48 c7 85 e8 fd ff ff 	movq   $0x0,-0x218(%rbp)
    6c1d:	00 00 00 00 
    6c21:	48 8d 05 b8 74 00 00 	lea    0x74b8(%rip),%rax        # e0e0 <g_414>
    6c28:	48 89 85 f0 fd ff ff 	mov    %rax,-0x210(%rbp)
    6c2f:	48 8d 85 c4 f6 ff ff 	lea    -0x93c(%rbp),%rax
    6c36:	48 89 85 f8 fd ff ff 	mov    %rax,-0x208(%rbp)
    6c3d:	48 8d 05 9c 74 00 00 	lea    0x749c(%rip),%rax        # e0e0 <g_414>
    6c44:	48 89 85 00 fe ff ff 	mov    %rax,-0x200(%rbp)
    6c4b:	48 8d 05 8e 74 00 00 	lea    0x748e(%rip),%rax        # e0e0 <g_414>
    6c52:	48 89 85 08 fe ff ff 	mov    %rax,-0x1f8(%rbp)
    6c59:	48 c7 85 10 fe ff ff 	movq   $0x0,-0x1f0(%rbp)
    6c60:	00 00 00 00 
    6c64:	48 8d 05 75 74 00 00 	lea    0x7475(%rip),%rax        # e0e0 <g_414>
    6c6b:	48 89 85 18 fe ff ff 	mov    %rax,-0x1e8(%rbp)
    6c72:	48 8d 05 67 74 00 00 	lea    0x7467(%rip),%rax        # e0e0 <g_414>
    6c79:	48 89 85 20 fe ff ff 	mov    %rax,-0x1e0(%rbp)
    6c80:	48 8d 05 59 74 00 00 	lea    0x7459(%rip),%rax        # e0e0 <g_414>
    6c87:	48 89 85 28 fe ff ff 	mov    %rax,-0x1d8(%rbp)
    6c8e:	48 c7 85 30 fe ff ff 	movq   $0x0,-0x1d0(%rbp)
    6c95:	00 00 00 00 
    6c99:	48 8d 05 40 74 00 00 	lea    0x7440(%rip),%rax        # e0e0 <g_414>
    6ca0:	48 89 85 38 fe ff ff 	mov    %rax,-0x1c8(%rbp)
    6ca7:	48 8d 85 c4 f6 ff ff 	lea    -0x93c(%rbp),%rax
    6cae:	48 89 85 40 fe ff ff 	mov    %rax,-0x1c0(%rbp)
    6cb5:	48 c7 85 48 fe ff ff 	movq   $0x0,-0x1b8(%rbp)
    6cbc:	00 00 00 00 
    6cc0:	48 8d 05 19 74 00 00 	lea    0x7419(%rip),%rax        # e0e0 <g_414>
    6cc7:	48 89 85 50 fe ff ff 	mov    %rax,-0x1b0(%rbp)
    6cce:	48 8d 85 c4 f6 ff ff 	lea    -0x93c(%rbp),%rax
    6cd5:	48 89 85 58 fe ff ff 	mov    %rax,-0x1a8(%rbp)
    6cdc:	48 8d 05 fd 73 00 00 	lea    0x73fd(%rip),%rax        # e0e0 <g_414>
    6ce3:	48 89 85 60 fe ff ff 	mov    %rax,-0x1a0(%rbp)
    6cea:	48 8d 05 ef 73 00 00 	lea    0x73ef(%rip),%rax        # e0e0 <g_414>
    6cf1:	48 89 85 68 fe ff ff 	mov    %rax,-0x198(%rbp)
    6cf8:	48 8d 85 c4 f6 ff ff 	lea    -0x93c(%rbp),%rax
    6cff:	48 89 85 70 fe ff ff 	mov    %rax,-0x190(%rbp)
    6d06:	48 8d 05 d3 73 00 00 	lea    0x73d3(%rip),%rax        # e0e0 <g_414>
    6d0d:	48 89 85 78 fe ff ff 	mov    %rax,-0x188(%rbp)
    6d14:	48 8d 05 c5 73 00 00 	lea    0x73c5(%rip),%rax        # e0e0 <g_414>
    6d1b:	48 89 85 80 fe ff ff 	mov    %rax,-0x180(%rbp)
    6d22:	48 8d 05 b7 73 00 00 	lea    0x73b7(%rip),%rax        # e0e0 <g_414>
    6d29:	48 89 85 88 fe ff ff 	mov    %rax,-0x178(%rbp)
    6d30:	48 c7 85 90 fe ff ff 	movq   $0x0,-0x170(%rbp)
    6d37:	00 00 00 00 
    6d3b:	48 8d 05 9e 73 00 00 	lea    0x739e(%rip),%rax        # e0e0 <g_414>
    6d42:	48 89 85 98 fe ff ff 	mov    %rax,-0x168(%rbp)
    6d49:	48 8d 85 c4 f6 ff ff 	lea    -0x93c(%rbp),%rax
    6d50:	48 89 85 a0 fe ff ff 	mov    %rax,-0x160(%rbp)
    6d57:	48 c7 85 a8 fe ff ff 	movq   $0x0,-0x158(%rbp)
    6d5e:	00 00 00 00 
    6d62:	48 8d 85 c4 f6 ff ff 	lea    -0x93c(%rbp),%rax
    6d69:	48 89 85 b0 fe ff ff 	mov    %rax,-0x150(%rbp)
    6d70:	48 8d 05 69 73 00 00 	lea    0x7369(%rip),%rax        # e0e0 <g_414>
    6d77:	48 89 85 b8 fe ff ff 	mov    %rax,-0x148(%rbp)
    6d7e:	48 8d 05 5b 73 00 00 	lea    0x735b(%rip),%rax        # e0e0 <g_414>
    6d85:	48 89 85 c0 fe ff ff 	mov    %rax,-0x140(%rbp)
    6d8c:	48 8d 05 4d 73 00 00 	lea    0x734d(%rip),%rax        # e0e0 <g_414>
    6d93:	48 89 85 c8 fe ff ff 	mov    %rax,-0x138(%rbp)
    6d9a:	48 8d 05 3f 73 00 00 	lea    0x733f(%rip),%rax        # e0e0 <g_414>
    6da1:	48 89 85 d0 fe ff ff 	mov    %rax,-0x130(%rbp)
    6da8:	48 8d 05 31 73 00 00 	lea    0x7331(%rip),%rax        # e0e0 <g_414>
    6daf:	48 89 85 d8 fe ff ff 	mov    %rax,-0x128(%rbp)
    6db6:	48 c7 85 e0 fe ff ff 	movq   $0x0,-0x120(%rbp)
    6dbd:	00 00 00 00 
    6dc1:	48 c7 85 e8 fe ff ff 	movq   $0x0,-0x118(%rbp)
    6dc8:	00 00 00 00 
    6dcc:	48 c7 85 f0 fe ff ff 	movq   $0x0,-0x110(%rbp)
    6dd3:	00 00 00 00 
    6dd7:	48 c7 85 f8 fe ff ff 	movq   $0x0,-0x108(%rbp)
    6dde:	00 00 00 00 
    6de2:	48 c7 85 00 ff ff ff 	movq   $0x0,-0x100(%rbp)
    6de9:	00 00 00 00 
    6ded:	48 c7 85 08 ff ff ff 	movq   $0x0,-0xf8(%rbp)
    6df4:	00 00 00 00 
    6df8:	48 c7 85 10 ff ff ff 	movq   $0x0,-0xf0(%rbp)
    6dff:	00 00 00 00 
    6e03:	48 c7 85 18 ff ff ff 	movq   $0x0,-0xe8(%rbp)
    6e0a:	00 00 00 00 
    6e0e:	48 c7 85 20 ff ff ff 	movq   $0x0,-0xe0(%rbp)
    6e15:	00 00 00 00 
    6e19:	48 8d 05 c4 72 00 00 	lea    0x72c4(%rip),%rax        # e0e4 <g_421>
    6e20:	48 89 85 28 ff ff ff 	mov    %rax,-0xd8(%rbp)
    6e27:	48 c7 85 30 ff ff ff 	movq   $0x0,-0xd0(%rbp)
    6e2e:	00 00 00 00 
    6e32:	48 8d 05 ab 72 00 00 	lea    0x72ab(%rip),%rax        # e0e4 <g_421>
    6e39:	48 89 85 38 ff ff ff 	mov    %rax,-0xc8(%rbp)
    6e40:	48 c7 85 40 ff ff ff 	movq   $0x0,-0xc0(%rbp)
    6e47:	00 00 00 00 
    6e4b:	48 8d 05 8e 72 00 00 	lea    0x728e(%rip),%rax        # e0e0 <g_414>
    6e52:	48 89 85 48 ff ff ff 	mov    %rax,-0xb8(%rbp)
    6e59:	48 8d 05 80 72 00 00 	lea    0x7280(%rip),%rax        # e0e0 <g_414>
    6e60:	48 89 85 50 ff ff ff 	mov    %rax,-0xb0(%rbp)
    6e67:	48 8d 05 72 72 00 00 	lea    0x7272(%rip),%rax        # e0e0 <g_414>
    6e6e:	48 89 85 58 ff ff ff 	mov    %rax,-0xa8(%rbp)
    6e75:	48 c7 85 60 ff ff ff 	movq   $0x0,-0xa0(%rbp)
    6e7c:	00 00 00 00 
    6e80:	48 8d 05 59 72 00 00 	lea    0x7259(%rip),%rax        # e0e0 <g_414>
    6e87:	48 89 85 68 ff ff ff 	mov    %rax,-0x98(%rbp)
    6e8e:	48 8d 05 4b 72 00 00 	lea    0x724b(%rip),%rax        # e0e0 <g_414>
    6e95:	48 89 85 70 ff ff ff 	mov    %rax,-0x90(%rbp)
    6e9c:	48 8d 05 3d 72 00 00 	lea    0x723d(%rip),%rax        # e0e0 <g_414>
    6ea3:	48 89 85 78 ff ff ff 	mov    %rax,-0x88(%rbp)
    6eaa:	48 8d 05 33 72 00 00 	lea    0x7233(%rip),%rax        # e0e4 <g_421>
    6eb1:	48 89 45 80          	mov    %rax,-0x80(%rbp)
    6eb5:	48 8d 05 24 72 00 00 	lea    0x7224(%rip),%rax        # e0e0 <g_414>
    6ebc:	48 89 45 88          	mov    %rax,-0x78(%rbp)
    6ec0:	48 c7 45 90 00 00 00 	movq   $0x0,-0x70(%rbp)
    6ec7:	00 
    6ec8:	48 c7 45 98 00 00 00 	movq   $0x0,-0x68(%rbp)
    6ecf:	00 
    6ed0:	48 8d 05 09 72 00 00 	lea    0x7209(%rip),%rax        # e0e0 <g_414>
    6ed7:	48 89 45 a0          	mov    %rax,-0x60(%rbp)
    6edb:	48 8d 05 02 72 00 00 	lea    0x7202(%rip),%rax        # e0e4 <g_421>
    6ee2:	48 89 45 a8          	mov    %rax,-0x58(%rbp)
    6ee6:	48 c7 45 b0 00 00 00 	movq   $0x0,-0x50(%rbp)
    6eed:	00 
    6eee:	48 8d 05 eb 71 00 00 	lea    0x71eb(%rip),%rax        # e0e0 <g_414>
    6ef5:	48 89 45 b8          	mov    %rax,-0x48(%rbp)
    6ef9:	48 8d 05 48 71 00 00 	lea    0x7148(%rip),%rax        # e048 <g_153>
    6f00:	48 89 85 48 f7 ff ff 	mov    %rax,-0x8b8(%rbp)
    6f07:	c7 85 cc f6 ff ff eb 	movl   $0xa26be1eb,-0x934(%rbp)
    6f0e:	e1 6b a2 
    6f11:	48 8d 85 10 f8 ff ff 	lea    -0x7f0(%rbp),%rax
    6f18:	48 89 85 70 f7 ff ff 	mov    %rax,-0x890(%rbp)
    6f1f:	c7 85 00 f7 ff ff 39 	movl   $0xc99b8239,-0x900(%rbp)
    6f26:	82 9b c9 
    6f29:	c7 85 04 f7 ff ff 71 	movl   $0xa731d471,-0x8fc(%rbp)
    6f30:	d4 31 a7 
    6f33:	c7 85 d0 f6 ff ff 43 	movl   $0x576cb143,-0x930(%rbp)
    6f3a:	b1 6c 57 
    6f3d:	c7 85 08 f7 ff ff d3 	movl   $0x8f3944d3,-0x8f8(%rbp)
    6f44:	44 39 8f 
    6f47:	c7 85 0c f7 ff ff d6 	movl   $0x841366d6,-0x8f4(%rbp)
    6f4e:	66 13 84 
    6f51:	c7 85 c8 f6 ff ff d5 	movl   $0x2dff37d5,-0x938(%rbp)
    6f58:	37 ff 2d 
    6f5b:	c7 85 d4 f6 ff ff ff 	movl   $0xffffffff,-0x92c(%rbp)
    6f62:	ff ff ff 
    6f65:	c7 85 d8 f6 ff ff 07 	movl   $0x7,-0x928(%rbp)
    6f6c:	00 00 00 
    6f6f:	c7 85 10 f7 ff ff ff 	movl   $0xffffffff,-0x8f0(%rbp)
    6f76:	ff ff ff 
    6f79:	48 c7 85 50 f7 ff ff 	movq   $0x0,-0x8b0(%rbp)
    6f80:	00 00 00 00 
    6f84:	48 8d 85 c8 f6 ff ff 	lea    -0x938(%rbp),%rax
    6f8b:	48 89 85 d0 f8 ff ff 	mov    %rax,-0x730(%rbp)
    6f92:	48 8d 85 c8 f6 ff ff 	lea    -0x938(%rbp),%rax
    6f99:	48 89 85 d8 f8 ff ff 	mov    %rax,-0x728(%rbp)
    6fa0:	48 8d 85 c8 f6 ff ff 	lea    -0x938(%rbp),%rax
    6fa7:	48 89 85 e0 f8 ff ff 	mov    %rax,-0x720(%rbp)
    6fae:	48 8d 85 c8 f6 ff ff 	lea    -0x938(%rbp),%rax
    6fb5:	48 89 85 e8 f8 ff ff 	mov    %rax,-0x718(%rbp)
    6fbc:	48 8d 85 c8 f6 ff ff 	lea    -0x938(%rbp),%rax
    6fc3:	48 89 85 f0 f8 ff ff 	mov    %rax,-0x710(%rbp)
    6fca:	48 8d 85 c8 f6 ff ff 	lea    -0x938(%rbp),%rax
    6fd1:	48 89 85 f8 f8 ff ff 	mov    %rax,-0x708(%rbp)
    6fd8:	c7 85 14 f7 ff ff a3 	movl   $0x745a2da3,-0x8ec(%rbp)
    6fdf:	2d 5a 74 
    6fe2:	66 c7 85 bc f6 ff ff 	movw   $0x3714,-0x944(%rbp)
    6fe9:	14 37 
    6feb:	66 c7 85 be f6 ff ff 	movw   $0x1,-0x942(%rbp)
    6ff2:	01 00 
    6ff4:	c7 85 18 f7 ff ff 01 	movl   $0x1,-0x8e8(%rbp)
    6ffb:	00 00 00 
    6ffe:	48 8d 05 3b 70 00 00 	lea    0x703b(%rip),%rax        # e040 <g_100>
    7005:	48 89 85 40 f9 ff ff 	mov    %rax,-0x6c0(%rbp)
    700c:	48 8d 05 2d 70 00 00 	lea    0x702d(%rip),%rax        # e040 <g_100>
    7013:	48 89 85 48 f9 ff ff 	mov    %rax,-0x6b8(%rbp)
    701a:	48 8d 05 1f 70 00 00 	lea    0x701f(%rip),%rax        # e040 <g_100>
    7021:	48 89 85 50 f9 ff ff 	mov    %rax,-0x6b0(%rbp)
    7028:	48 8d 05 11 70 00 00 	lea    0x7011(%rip),%rax        # e040 <g_100>
    702f:	48 89 85 58 f9 ff ff 	mov    %rax,-0x6a8(%rbp)
    7036:	48 8d 05 03 70 00 00 	lea    0x7003(%rip),%rax        # e040 <g_100>
    703d:	48 89 85 60 f9 ff ff 	mov    %rax,-0x6a0(%rbp)
    7044:	48 8d 05 f5 6f 00 00 	lea    0x6ff5(%rip),%rax        # e040 <g_100>
    704b:	48 89 85 68 f9 ff ff 	mov    %rax,-0x698(%rbp)
    7052:	48 8d 05 e7 6f 00 00 	lea    0x6fe7(%rip),%rax        # e040 <g_100>
    7059:	48 89 85 70 f9 ff ff 	mov    %rax,-0x690(%rbp)
    7060:	48 8d 05 d9 6f 00 00 	lea    0x6fd9(%rip),%rax        # e040 <g_100>
    7067:	48 89 85 78 f9 ff ff 	mov    %rax,-0x688(%rbp)
    706e:	48 8d 05 cb 6f 00 00 	lea    0x6fcb(%rip),%rax        # e040 <g_100>
    7075:	48 89 85 80 f9 ff ff 	mov    %rax,-0x680(%rbp)
    707c:	48 8d 05 bd 6f 00 00 	lea    0x6fbd(%rip),%rax        # e040 <g_100>
    7083:	48 89 85 88 f9 ff ff 	mov    %rax,-0x678(%rbp)
    708a:	48 8d 85 40 f9 ff ff 	lea    -0x6c0(%rbp),%rax
    7091:	48 83 c0 30          	add    $0x30,%rax
    7095:	48 89 85 00 f9 ff ff 	mov    %rax,-0x700(%rbp)
    709c:	48 8d 85 40 f9 ff ff 	lea    -0x6c0(%rbp),%rax
    70a3:	48 89 85 08 f9 ff ff 	mov    %rax,-0x6f8(%rbp)
    70aa:	48 8d 85 40 f9 ff ff 	lea    -0x6c0(%rbp),%rax
    70b1:	48 83 c0 30          	add    $0x30,%rax
    70b5:	48 89 85 10 f9 ff ff 	mov    %rax,-0x6f0(%rbp)
    70bc:	48 8d 85 40 f9 ff ff 	lea    -0x6c0(%rbp),%rax
    70c3:	48 89 85 18 f9 ff ff 	mov    %rax,-0x6e8(%rbp)
    70ca:	48 8d 85 40 f9 ff ff 	lea    -0x6c0(%rbp),%rax
    70d1:	48 83 c0 30          	add    $0x30,%rax
    70d5:	48 89 85 20 f9 ff ff 	mov    %rax,-0x6e0(%rbp)
    70dc:	48 8d 85 40 f9 ff ff 	lea    -0x6c0(%rbp),%rax
    70e3:	48 89 85 28 f9 ff ff 	mov    %rax,-0x6d8(%rbp)
    70ea:	48 8d 85 40 f9 ff ff 	lea    -0x6c0(%rbp),%rax
    70f1:	48 83 c0 30          	add    $0x30,%rax
    70f5:	48 89 85 30 f9 ff ff 	mov    %rax,-0x6d0(%rbp)
    70fc:	48 8d 85 40 f9 ff ff 	lea    -0x6c0(%rbp),%rax
    7103:	48 89 85 38 f9 ff ff 	mov    %rax,-0x6c8(%rbp)
    710a:	48 8d 85 00 f9 ff ff 	lea    -0x700(%rbp),%rax
    7111:	48 89 85 78 f7 ff ff 	mov    %rax,-0x888(%rbp)
    7118:	c6 85 ba f6 ff ff ba 	movb   $0xba,-0x946(%rbp)
    711f:	66 c7 85 90 f9 ff ff 	movw   $0xbbc9,-0x670(%rbp)
    7126:	c9 bb 
    7128:	66 c7 85 92 f9 ff ff 	movw   $0x1,-0x66e(%rbp)
    712f:	01 00 
    7131:	66 c7 85 94 f9 ff ff 	movw   $0xbbc9,-0x66c(%rbp)
    7138:	c9 bb 
    713a:	66 c7 85 96 f9 ff ff 	movw   $0xffff,-0x66a(%rbp)
    7141:	ff ff 
    7143:	66 c7 85 98 f9 ff ff 	movw   $0x1,-0x668(%rbp)
    714a:	01 00 
    714c:	66 c7 85 9a f9 ff ff 	movw   $0xffff,-0x666(%rbp)
    7153:	ff ff 
    7155:	66 c7 85 9c f9 ff ff 	movw   $0xbbc9,-0x664(%rbp)
    715c:	c9 bb 
    715e:	66 c7 85 9e f9 ff ff 	movw   $0x1,-0x662(%rbp)
    7165:	01 00 
    7167:	66 c7 85 a0 f9 ff ff 	movw   $0xbbc9,-0x660(%rbp)
    716e:	c9 bb 
    7170:	66 c7 85 a2 f9 ff ff 	movw   $0xffff,-0x65e(%rbp)
    7177:	ff ff 
    7179:	66 c7 85 a4 f9 ff ff 	movw   $0x1,-0x65c(%rbp)
    7180:	01 00 
    7182:	66 c7 85 a6 f9 ff ff 	movw   $0xffff,-0x65a(%rbp)
    7189:	ff ff 
    718b:	66 c7 85 a8 f9 ff ff 	movw   $0xbbc9,-0x658(%rbp)
    7192:	c9 bb 
    7194:	66 c7 85 aa f9 ff ff 	movw   $0x1,-0x656(%rbp)
    719b:	01 00 
    719d:	66 c7 85 ac f9 ff ff 	movw   $0xbbc9,-0x654(%rbp)
    71a4:	c9 bb 
    71a6:	66 c7 85 ae f9 ff ff 	movw   $0xffff,-0x652(%rbp)
    71ad:	ff ff 
    71af:	66 c7 85 b0 f9 ff ff 	movw   $0x1,-0x650(%rbp)
    71b6:	01 00 
    71b8:	66 c7 85 b2 f9 ff ff 	movw   $0xffff,-0x64e(%rbp)
    71bf:	ff ff 
    71c1:	66 c7 85 b4 f9 ff ff 	movw   $0xbbc9,-0x64c(%rbp)
    71c8:	c9 bb 
    71ca:	66 c7 85 b6 f9 ff ff 	movw   $0x1,-0x64a(%rbp)
    71d1:	01 00 
    71d3:	66 c7 85 b8 f9 ff ff 	movw   $0xbbc9,-0x648(%rbp)
    71da:	c9 bb 
    71dc:	66 c7 85 ba f9 ff ff 	movw   $0xffff,-0x646(%rbp)
    71e3:	ff ff 
    71e5:	66 c7 85 bc f9 ff ff 	movw   $0x1,-0x644(%rbp)
    71ec:	01 00 
    71ee:	66 c7 85 be f9 ff ff 	movw   $0xffff,-0x642(%rbp)
    71f5:	ff ff 
    71f7:	66 c7 85 c0 f9 ff ff 	movw   $0xbbc9,-0x640(%rbp)
    71fe:	c9 bb 
    7200:	66 c7 85 c2 f9 ff ff 	movw   $0x1,-0x63e(%rbp)
    7207:	01 00 
    7209:	66 c7 85 c4 f9 ff ff 	movw   $0xbbc9,-0x63c(%rbp)
    7210:	c9 bb 
    7212:	66 c7 85 c6 f9 ff ff 	movw   $0xffff,-0x63a(%rbp)
    7219:	ff ff 
    721b:	66 c7 85 c8 f9 ff ff 	movw   $0x1,-0x638(%rbp)
    7222:	01 00 
    7224:	66 c7 85 ca f9 ff ff 	movw   $0xffff,-0x636(%rbp)
    722b:	ff ff 
    722d:	66 c7 85 cc f9 ff ff 	movw   $0xbbc9,-0x634(%rbp)
    7234:	c9 bb 
    7236:	66 c7 85 ce f9 ff ff 	movw   $0x1,-0x632(%rbp)
    723d:	01 00 
    723f:	66 c7 85 d0 f9 ff ff 	movw   $0xbbc9,-0x630(%rbp)
    7246:	c9 bb 
    7248:	66 c7 85 d2 f9 ff ff 	movw   $0xffff,-0x62e(%rbp)
    724f:	ff ff 
    7251:	66 c7 85 d4 f9 ff ff 	movw   $0x1,-0x62c(%rbp)
    7258:	01 00 
    725a:	66 c7 85 d6 f9 ff ff 	movw   $0xffff,-0x62a(%rbp)
    7261:	ff ff 
    7263:	66 c7 85 d8 f9 ff ff 	movw   $0xbbc9,-0x628(%rbp)
    726a:	c9 bb 
    726c:	66 c7 85 da f9 ff ff 	movw   $0x1,-0x626(%rbp)
    7273:	01 00 
    7275:	66 c7 85 dc f9 ff ff 	movw   $0xbbc9,-0x624(%rbp)
    727c:	c9 bb 
    727e:	66 c7 85 de f9 ff ff 	movw   $0xffff,-0x622(%rbp)
    7285:	ff ff 
    7287:	66 c7 85 e0 f9 ff ff 	movw   $0x1,-0x620(%rbp)
    728e:	01 00 
    7290:	66 c7 85 e2 f9 ff ff 	movw   $0xffff,-0x61e(%rbp)
    7297:	ff ff 
    7299:	48 8d 85 d0 f8 ff ff 	lea    -0x730(%rbp),%rax
    72a0:	48 89 85 80 f7 ff ff 	mov    %rax,-0x880(%rbp)
    72a7:	c7 85 dc f6 ff ff 00 	movl   $0x0,-0x924(%rbp)
    72ae:	00 00 00 
    72b1:	eb 1b                	jmp    72ce <func_27+0x753>
    72b3:	8b 85 dc f6 ff ff    	mov    -0x924(%rbp),%eax
    72b9:	48 98                	cltq   
    72bb:	48 c7 84 c5 10 f8 ff 	movq   $0x0,-0x7f0(%rbp,%rax,8)
    72c2:	ff 00 00 00 00 
    72c7:	83 85 dc f6 ff ff 01 	addl   $0x1,-0x924(%rbp)
    72ce:	83 bd dc f6 ff ff 03 	cmpl   $0x3,-0x924(%rbp)
    72d5:	7e dc                	jle    72b3 <func_27+0x738>
    72d7:	48 8b 15 aa 79 00 00 	mov    0x79aa(%rip),%rdx        # ec88 <g_59>
    72de:	48 8b 05 b3 79 00 00 	mov    0x79b3(%rip),%rax        # ec98 <g_159>
    72e5:	48 8b 12             	mov    (%rdx),%rdx
    72e8:	48 89 10             	mov    %rdx,(%rax)
    72eb:	48 8b 85 a8 f6 ff ff 	mov    -0x958(%rbp),%rax
    72f2:	0f bf d8             	movswl %ax,%ebx
    72f5:	44 8b a5 fc f6 ff ff 	mov    -0x904(%rbp),%r12d
    72fc:	0f b6 05 55 6d 00 00 	movzbl 0x6d55(%rip),%eax        # e058 <g_243>
    7303:	44 0f b6 e8          	movzbl %al,%r13d
    7307:	8b 85 fc f6 ff ff    	mov    -0x904(%rbp),%eax
    730d:	44 0f b7 f0          	movzwl %ax,%r14d
    7311:	8b 05 91 88 00 00    	mov    0x8891(%rip),%eax        # fba8 <g_398>
    7317:	48 98                	cltq   
    7319:	48 89 c6             	mov    %rax,%rsi
    731c:	bf 01 00 00 00       	mov    $0x1,%edi
    7321:	e8 1b d5 ff ff       	callq  4841 <safe_add_func_int64_t_s_s>
    7326:	f7 d0                	not    %eax
    7328:	0f b7 c0             	movzwl %ax,%eax
    732b:	44 89 f6             	mov    %r14d,%esi
    732e:	89 c7                	mov    %eax,%edi
    7330:	e8 ca d9 ff ff       	callq  4cff <safe_add_func_uint16_t_u_u>
    7335:	0f b7 c0             	movzwl %ax,%eax
    7338:	be f6 ff ff ff       	mov    $0xfffffff6,%esi
    733d:	89 c7                	mov    %eax,%edi
    733f:	e8 72 d2 ff ff       	callq  45b6 <safe_add_func_int32_t_s_s>
    7344:	0f b6 d0             	movzbl %al,%edx
    7347:	8b 85 fc f6 ff ff    	mov    -0x904(%rbp),%eax
    734d:	0f b6 c0             	movzbl %al,%eax
    7350:	89 d6                	mov    %edx,%esi
    7352:	89 c7                	mov    %eax,%edi
    7354:	e8 3a d8 ff ff       	callq  4b93 <safe_mul_func_uint8_t_u_u>
    7359:	0f b6 d0             	movzbl %al,%edx
    735c:	8b 05 82 6d 00 00    	mov    0x6d82(%rip),%eax        # e0e4 <g_421>
    7362:	39 c2                	cmp    %eax,%edx
    7364:	0f 92 c0             	setb   %al
    7367:	0f b6 c0             	movzbl %al,%eax
    736a:	be 01 00 00 00       	mov    $0x1,%esi
    736f:	89 c7                	mov    %eax,%edi
    7371:	e8 af db ff ff       	callq  4f25 <safe_div_func_uint32_t_u_u>
    7376:	8b 85 c4 f6 ff ff    	mov    -0x93c(%rbp),%eax
    737c:	0f b7 c0             	movzwl %ax,%eax
    737f:	44 89 ee             	mov    %r13d,%esi
    7382:	89 c7                	mov    %eax,%edi
    7384:	e8 d3 d9 ff ff       	callq  4d5c <safe_mod_func_uint16_t_u_u>
    7389:	0f b7 c0             	movzwl %ax,%eax
    738c:	44 89 e6             	mov    %r12d,%esi
    738f:	89 c7                	mov    %eax,%edi
    7391:	e8 22 db ff ff       	callq  4eb8 <safe_add_func_uint32_t_u_u>
    7396:	98                   	cwtl   
    7397:	89 de                	mov    %ebx,%esi
    7399:	89 c7                	mov    %eax,%edi
    739b:	e8 33 d0 ff ff       	callq  43d3 <safe_sub_func_int16_t_s_s>
    73a0:	48 8b 05 f9 78 00 00 	mov    0x78f9(%rip),%rax        # eca0 <g_199>
    73a7:	0f b7 00             	movzwl (%rax),%eax
    73aa:	0f b7 c0             	movzwl %ax,%eax
    73ad:	be 00 00 00 00       	mov    $0x0,%esi
    73b2:	89 c7                	mov    %eax,%edi
    73b4:	e8 84 d9 ff ff       	callq  4d3d <safe_mul_func_uint16_t_u_u>
    73b9:	0f b7 c0             	movzwl %ax,%eax
    73bc:	48 0d b2 66 cc 20    	or     $0x20cc66b2,%rax
    73c2:	48 be f2 42 d1 0a b5 	movabs $0x7411e9b50ad142f2,%rsi
    73c9:	e9 11 74 
    73cc:	48 89 c7             	mov    %rax,%rdi
    73cf:	e8 ac dc ff ff       	callq  5080 <safe_mod_func_uint64_t_u_u>
    73d4:	0f bf d0             	movswl %ax,%edx
    73d7:	8b 85 fc f6 ff ff    	mov    -0x904(%rbp),%eax
    73dd:	98                   	cwtl   
    73de:	89 d6                	mov    %edx,%esi
    73e0:	89 c7                	mov    %eax,%edi
    73e2:	e8 cc cf ff ff       	callq  43b3 <safe_add_func_int16_t_s_s>
    73e7:	98                   	cwtl   
    73e8:	89 05 f6 6c 00 00    	mov    %eax,0x6cf6(%rip)        # e0e4 <g_421>
    73ee:	48 8b 15 8b 7c 00 00 	mov    0x7c8b(%rip),%rdx        # f080 <g_422>
    73f5:	48 8b 85 68 f7 ff ff 	mov    -0x898(%rbp),%rax
    73fc:	48 89 10             	mov    %rdx,(%rax)
    73ff:	48 8b 85 68 f7 ff ff 	mov    -0x898(%rbp),%rax
    7406:	48 8b 00             	mov    (%rax),%rax
    7409:	48 85 c0             	test   %rax,%rax
    740c:	0f 94 c0             	sete   %al
    740f:	0f b6 c8             	movzbl %al,%ecx
    7412:	48 8b 05 67 78 00 00 	mov    0x7867(%rip),%rax        # ec80 <g_60>
    7419:	8b 10                	mov    (%rax),%edx
    741b:	48 8b 05 5e 78 00 00 	mov    0x785e(%rip),%rax        # ec80 <g_60>
    7422:	21 ca                	and    %ecx,%edx
    7424:	89 10                	mov    %edx,(%rax)
    7426:	48 8b 05 ab 6c 00 00 	mov    0x6cab(%rip),%rax        # e0d8 <g_400>
    742d:	0f b6 d8             	movzbl %al,%ebx
    7430:	0f b6 05 52 6c 00 00 	movzbl 0x6c52(%rip),%eax        # e089 <g_246+0x29>
    7437:	44 0f b6 e0          	movzbl %al,%r12d
    743b:	48 8b 85 48 f7 ff ff 	mov    -0x8b8(%rbp),%rax
    7442:	48 85 c0             	test   %rax,%rax
    7445:	0f 94 c0             	sete   %al
    7448:	0f b6 c0             	movzbl %al,%eax
    744b:	48 39 85 a8 f6 ff ff 	cmp    %rax,-0x958(%rbp)
    7452:	0f 96 c0             	setbe  %al
    7455:	0f b6 c0             	movzbl %al,%eax
    7458:	48 39 85 a8 f6 ff ff 	cmp    %rax,-0x958(%rbp)
    745f:	0f 93 c2             	setae  %dl
    7462:	48 8b 05 17 78 00 00 	mov    0x7817(%rip),%rax        # ec80 <g_60>
    7469:	0f b6 d2             	movzbl %dl,%edx
    746c:	89 10                	mov    %edx,(%rax)
    746e:	8b 00                	mov    (%rax),%eax
    7470:	85 c0                	test   %eax,%eax
    7472:	0f 95 c0             	setne  %al
    7475:	0f b6 c0             	movzbl %al,%eax
    7478:	89 c6                	mov    %eax,%esi
    747a:	bf b3 c3 ff ff       	mov    $0xffffc3b3,%edi
    747f:	e8 71 cf ff ff       	callq  43f5 <safe_mul_func_int16_t_s_s>
    7484:	98                   	cwtl   
    7485:	be 05 00 00 00       	mov    $0x5,%esi
    748a:	89 c7                	mov    %eax,%edi
    748c:	e8 64 cf ff ff       	callq  43f5 <safe_mul_func_int16_t_s_s>
    7491:	66 83 f8 01          	cmp    $0x1,%ax
    7495:	0f 9e c0             	setle  %al
    7498:	0f b6 d0             	movzbl %al,%edx
    749b:	0f be 85 a4 f6 ff ff 	movsbl -0x95c(%rbp),%eax
    74a2:	39 c2                	cmp    %eax,%edx
    74a4:	0f 9c c0             	setl   %al
    74a7:	0f b6 d0             	movzbl %al,%edx
    74aa:	8b 85 fc f6 ff ff    	mov    -0x904(%rbp),%eax
    74b0:	98                   	cwtl   
    74b1:	89 d6                	mov    %edx,%esi
    74b3:	89 c7                	mov    %eax,%edi
    74b5:	e8 3b cf ff ff       	callq  43f5 <safe_mul_func_int16_t_s_s>
    74ba:	98                   	cwtl   
    74bb:	44 89 e6             	mov    %r12d,%esi
    74be:	89 c7                	mov    %eax,%edi
    74c0:	e8 30 cf ff ff       	callq  43f5 <safe_mul_func_int16_t_s_s>
    74c5:	0f b7 d0             	movzwl %ax,%edx
    74c8:	48 8b 85 a8 f6 ff ff 	mov    -0x958(%rbp),%rax
    74cf:	0f b7 c0             	movzwl %ax,%eax
    74d2:	89 d6                	mov    %edx,%esi
    74d4:	89 c7                	mov    %eax,%edi
    74d6:	e8 81 d8 ff ff       	callq  4d5c <safe_mod_func_uint16_t_u_u>
    74db:	0f b6 c0             	movzbl %al,%eax
    74de:	89 de                	mov    %ebx,%esi
    74e0:	89 c7                	mov    %eax,%edi
    74e2:	e8 f4 d6 ff ff       	callq  4bdb <safe_div_func_uint8_t_u_u>
    74e7:	0f b6 c0             	movzbl %al,%eax
    74ea:	09 85 cc f6 ff ff    	or     %eax,-0x934(%rbp)
    74f0:	48 c7 05 dd 6b 00 00 	movq   $0x0,0x6bdd(%rip)        # e0d8 <g_400>
    74f7:	00 00 00 00 
    74fb:	e9 7e 13 00 00       	jmpq   887e <func_27+0x1d03>
    7500:	48 c7 85 58 f7 ff ff 	movq   $0x0,-0x8a8(%rbp)
    7507:	00 00 00 00 
    750b:	48 c7 85 30 fb ff ff 	movq   $0x0,-0x4d0(%rbp)
    7512:	00 00 00 00 
    7516:	48 8d 85 30 f8 ff ff 	lea    -0x7d0(%rbp),%rax
    751d:	48 89 85 38 fb ff ff 	mov    %rax,-0x4c8(%rbp)
    7524:	48 8d 85 30 f8 ff ff 	lea    -0x7d0(%rbp),%rax
    752b:	48 89 85 40 fb ff ff 	mov    %rax,-0x4c0(%rbp)
    7532:	48 c7 85 48 fb ff ff 	movq   $0x0,-0x4b8(%rbp)
    7539:	00 00 00 00 
    753d:	48 8d 85 30 f8 ff ff 	lea    -0x7d0(%rbp),%rax
    7544:	48 89 85 50 fb ff ff 	mov    %rax,-0x4b0(%rbp)
    754b:	48 c7 85 58 fb ff ff 	movq   $0x0,-0x4a8(%rbp)
    7552:	00 00 00 00 
    7556:	48 8d 85 30 f8 ff ff 	lea    -0x7d0(%rbp),%rax
    755d:	48 83 c0 08          	add    $0x8,%rax
    7561:	48 89 85 60 fb ff ff 	mov    %rax,-0x4a0(%rbp)
    7568:	48 8d 85 30 f8 ff ff 	lea    -0x7d0(%rbp),%rax
    756f:	48 89 85 68 fb ff ff 	mov    %rax,-0x498(%rbp)
    7576:	48 8d 85 30 f8 ff ff 	lea    -0x7d0(%rbp),%rax
    757d:	48 89 85 70 fb ff ff 	mov    %rax,-0x490(%rbp)
    7584:	48 8d 85 30 f8 ff ff 	lea    -0x7d0(%rbp),%rax
    758b:	48 83 c0 08          	add    $0x8,%rax
    758f:	48 89 85 78 fb ff ff 	mov    %rax,-0x488(%rbp)
    7596:	48 8d 85 30 f8 ff ff 	lea    -0x7d0(%rbp),%rax
    759d:	48 89 85 80 fb ff ff 	mov    %rax,-0x480(%rbp)
    75a4:	48 8d 85 30 f8 ff ff 	lea    -0x7d0(%rbp),%rax
    75ab:	48 89 85 88 fb ff ff 	mov    %rax,-0x478(%rbp)
    75b2:	48 8d 85 30 f8 ff ff 	lea    -0x7d0(%rbp),%rax
    75b9:	48 83 c0 08          	add    $0x8,%rax
    75bd:	48 89 85 90 fb ff ff 	mov    %rax,-0x470(%rbp)
    75c4:	48 8d 85 30 f8 ff ff 	lea    -0x7d0(%rbp),%rax
    75cb:	48 89 85 98 fb ff ff 	mov    %rax,-0x468(%rbp)
    75d2:	48 c7 85 a0 fb ff ff 	movq   $0x0,-0x460(%rbp)
    75d9:	00 00 00 00 
    75dd:	48 8d 85 30 f8 ff ff 	lea    -0x7d0(%rbp),%rax
    75e4:	48 83 c0 08          	add    $0x8,%rax
    75e8:	48 89 85 a8 fb ff ff 	mov    %rax,-0x458(%rbp)
    75ef:	48 8d 85 30 f8 ff ff 	lea    -0x7d0(%rbp),%rax
    75f6:	48 89 85 b0 fb ff ff 	mov    %rax,-0x450(%rbp)
    75fd:	48 8d 85 30 f8 ff ff 	lea    -0x7d0(%rbp),%rax
    7604:	48 89 85 b8 fb ff ff 	mov    %rax,-0x448(%rbp)
    760b:	48 c7 85 c0 fb ff ff 	movq   $0x0,-0x440(%rbp)
    7612:	00 00 00 00 
    7616:	48 8d 85 30 f8 ff ff 	lea    -0x7d0(%rbp),%rax
    761d:	48 89 85 c8 fb ff ff 	mov    %rax,-0x438(%rbp)
    7624:	48 8d 85 30 f8 ff ff 	lea    -0x7d0(%rbp),%rax
    762b:	48 89 85 d0 fb ff ff 	mov    %rax,-0x430(%rbp)
    7632:	48 c7 85 d8 fb ff ff 	movq   $0x0,-0x428(%rbp)
    7639:	00 00 00 00 
    763d:	48 8d 85 30 f8 ff ff 	lea    -0x7d0(%rbp),%rax
    7644:	48 89 85 e0 fb ff ff 	mov    %rax,-0x420(%rbp)
    764b:	48 c7 85 e8 fb ff ff 	movq   $0x0,-0x418(%rbp)
    7652:	00 00 00 00 
    7656:	48 8d 85 30 f8 ff ff 	lea    -0x7d0(%rbp),%rax
    765d:	48 83 c0 08          	add    $0x8,%rax
    7661:	48 89 85 f0 fb ff ff 	mov    %rax,-0x410(%rbp)
    7668:	48 8d 85 30 f8 ff ff 	lea    -0x7d0(%rbp),%rax
    766f:	48 89 85 f8 fb ff ff 	mov    %rax,-0x408(%rbp)
    7676:	48 8d 85 30 f8 ff ff 	lea    -0x7d0(%rbp),%rax
    767d:	48 89 85 00 fc ff ff 	mov    %rax,-0x400(%rbp)
    7684:	48 8d 85 30 f8 ff ff 	lea    -0x7d0(%rbp),%rax
    768b:	48 83 c0 08          	add    $0x8,%rax
    768f:	48 89 85 08 fc ff ff 	mov    %rax,-0x3f8(%rbp)
    7696:	48 8d 85 30 f8 ff ff 	lea    -0x7d0(%rbp),%rax
    769d:	48 89 85 10 fc ff ff 	mov    %rax,-0x3f0(%rbp)
    76a4:	48 8d 85 30 f8 ff ff 	lea    -0x7d0(%rbp),%rax
    76ab:	48 89 85 18 fc ff ff 	mov    %rax,-0x3e8(%rbp)
    76b2:	48 8d 85 30 f8 ff ff 	lea    -0x7d0(%rbp),%rax
    76b9:	48 83 c0 08          	add    $0x8,%rax
    76bd:	48 89 85 20 fc ff ff 	mov    %rax,-0x3e0(%rbp)
    76c4:	48 8d 85 30 f8 ff ff 	lea    -0x7d0(%rbp),%rax
    76cb:	48 89 85 28 fc ff ff 	mov    %rax,-0x3d8(%rbp)
    76d2:	48 c7 85 30 fc ff ff 	movq   $0x0,-0x3d0(%rbp)
    76d9:	00 00 00 00 
    76dd:	48 8d 85 30 f8 ff ff 	lea    -0x7d0(%rbp),%rax
    76e4:	48 83 c0 08          	add    $0x8,%rax
    76e8:	48 89 85 38 fc ff ff 	mov    %rax,-0x3c8(%rbp)
    76ef:	48 8d 85 30 f8 ff ff 	lea    -0x7d0(%rbp),%rax
    76f6:	48 89 85 40 fc ff ff 	mov    %rax,-0x3c0(%rbp)
    76fd:	48 8d 85 30 f8 ff ff 	lea    -0x7d0(%rbp),%rax
    7704:	48 89 85 48 fc ff ff 	mov    %rax,-0x3b8(%rbp)
    770b:	c7 85 e0 f7 ff ff 01 	movl   $0x1,-0x820(%rbp)
    7712:	00 00 00 
    7715:	c7 85 e4 f7 ff ff 01 	movl   $0x1,-0x81c(%rbp)
    771c:	00 00 00 
    771f:	c7 85 e8 f7 ff ff 01 	movl   $0x1,-0x818(%rbp)
    7726:	00 00 00 
    7729:	c7 85 ec f7 ff ff 01 	movl   $0x1,-0x814(%rbp)
    7730:	00 00 00 
    7733:	48 8d 05 33 69 00 00 	lea    0x6933(%rip),%rax        # e06d <g_246+0xd>
    773a:	48 89 85 88 f7 ff ff 	mov    %rax,-0x878(%rbp)
    7741:	c7 85 1c f7 ff ff 0d 	movl   $0x67661d0d,-0x8e4(%rbp)
    7748:	1d 66 67 
    774b:	48 8d 85 00 f9 ff ff 	lea    -0x700(%rbp),%rax
    7752:	48 89 85 90 f7 ff ff 	mov    %rax,-0x870(%rbp)
    7759:	c7 85 e0 f6 ff ff 00 	movl   $0x0,-0x920(%rbp)
    7760:	00 00 00 
    7763:	eb 1e                	jmp    7783 <func_27+0xc08>
    7765:	8b 85 e0 f6 ff ff    	mov    -0x920(%rbp),%eax
    776b:	48 98                	cltq   
    776d:	48 8d 95 58 f7 ff ff 	lea    -0x8a8(%rbp),%rdx
    7774:	48 89 94 c5 30 f8 ff 	mov    %rdx,-0x7d0(%rbp,%rax,8)
    777b:	ff 
    777c:	83 85 e0 f6 ff ff 01 	addl   $0x1,-0x920(%rbp)
    7783:	83 bd e0 f6 ff ff 03 	cmpl   $0x3,-0x920(%rbp)
    778a:	7e d9                	jle    7765 <func_27+0xbea>
    778c:	c7 85 e0 f6 ff ff 00 	movl   $0x0,-0x920(%rbp)
    7793:	00 00 00 
    7796:	eb 1e                	jmp    77b6 <func_27+0xc3b>
    7798:	8b 85 e0 f6 ff ff    	mov    -0x920(%rbp),%eax
    779e:	48 98                	cltq   
    77a0:	48 8d 15 01 84 00 00 	lea    0x8401(%rip),%rdx        # fba8 <g_398>
    77a7:	48 89 94 c5 50 f8 ff 	mov    %rdx,-0x7b0(%rbp,%rax,8)
    77ae:	ff 
    77af:	83 85 e0 f6 ff ff 01 	addl   $0x1,-0x920(%rbp)
    77b6:	83 bd e0 f6 ff ff 03 	cmpl   $0x3,-0x920(%rbp)
    77bd:	7e d9                	jle    7798 <func_27+0xc1d>
    77bf:	be 04 00 00 00       	mov    $0x4,%esi
    77c4:	bf 58 00 00 00       	mov    $0x58,%edi
    77c9:	e8 67 cb ff ff       	callq  4335 <safe_rshift_func_int8_t_s_s>
    77ce:	48 8b 85 30 f8 ff ff 	mov    -0x7d0(%rbp),%rax
    77d5:	48 89 85 70 f7 ff ff 	mov    %rax,-0x890(%rbp)
    77dc:	c7 85 00 f7 ff ff 19 	movl   $0x4419,-0x900(%rbp)
    77e3:	44 00 00 
    77e6:	8b 85 00 f7 ff ff    	mov    -0x900(%rbp),%eax
    77ec:	89 85 e4 f7 ff ff    	mov    %eax,-0x81c(%rbp)
    77f2:	8b 95 e4 f7 ff ff    	mov    -0x81c(%rbp),%edx
    77f8:	0f be 85 a4 f6 ff ff 	movsbl -0x95c(%rbp),%eax
    77ff:	39 c2                	cmp    %eax,%edx
    7801:	0f 9d c0             	setge  %al
    7804:	0f b6 c0             	movzbl %al,%eax
    7807:	48 8b 95 a8 f6 ff ff 	mov    -0x958(%rbp),%rdx
    780e:	09 d0                	or     %edx,%eax
    7810:	41 89 c4             	mov    %eax,%r12d
    7813:	8b 85 cc f6 ff ff    	mov    -0x934(%rbp),%eax
    7819:	0f b7 c0             	movzwl %ax,%eax
    781c:	48 8b 1d 7d 74 00 00 	mov    0x747d(%rip),%rbx        # eca0 <g_199>
    7823:	89 c6                	mov    %eax,%esi
    7825:	bf 08 00 00 00       	mov    $0x8,%edi
    782a:	e8 0e d5 ff ff       	callq  4d3d <safe_mul_func_uint16_t_u_u>
    782f:	66 89 03             	mov    %ax,(%rbx)
    7832:	0f b7 03             	movzwl (%rbx),%eax
    7835:	0f b7 c0             	movzwl %ax,%eax
    7838:	48 39 85 a8 f6 ff ff 	cmp    %rax,-0x958(%rbp)
    783f:	0f 96 c0             	setbe  %al
    7842:	0f b6 c0             	movzbl %al,%eax
    7845:	44 89 e6             	mov    %r12d,%esi
    7848:	89 c7                	mov    %eax,%edi
    784a:	e8 b6 cd ff ff       	callq  4605 <safe_sub_func_int32_t_s_s>
    784f:	8b 05 d3 67 00 00    	mov    0x67d3(%rip),%eax        # e028 <g_58>
    7855:	98                   	cwtl   
    7856:	be fb a0 ff ff       	mov    $0xffffa0fb,%esi
    785b:	89 c7                	mov    %eax,%edi
    785d:	e8 51 cb ff ff       	callq  43b3 <safe_add_func_int16_t_s_s>
    7862:	48 8b 15 7f 68 00 00 	mov    0x687f(%rip),%rdx        # e0e8 <g_482>
    7869:	48 8b 05 10 74 00 00 	mov    0x7410(%rip),%rax        # ec80 <g_60>
    7870:	89 10                	mov    %edx,(%rax)
    7872:	48 8b 85 50 f7 ff ff 	mov    -0x8b0(%rbp),%rax
    7879:	48 83 e8 01          	sub    $0x1,%rax
    787d:	48 89 85 50 f7 ff ff 	mov    %rax,-0x8b0(%rbp)
    7884:	c6 85 a4 f6 ff ff 00 	movb   $0x0,-0x95c(%rbp)
    788b:	e9 6b 0d 00 00       	jmpq   85fb <func_27+0x1a80>
    7890:	48 8d 85 50 f7 ff ff 	lea    -0x8b0(%rbp),%rax
    7897:	48 89 85 98 f7 ff ff 	mov    %rax,-0x868(%rbp)
    789e:	c7 85 e4 f6 ff ff 6c 	movl   $0xe572716c,-0x91c(%rbp)
    78a5:	71 72 e5 
    78a8:	c7 85 24 f7 ff ff b1 	movl   $0x6985acb1,-0x8dc(%rbp)
    78af:	ac 85 69 
    78b2:	c7 85 f0 f7 ff ff 55 	movl   $0x4e7c9555,-0x810(%rbp)
    78b9:	95 7c 4e 
    78bc:	c7 85 f4 f7 ff ff 55 	movl   $0x4e7c9555,-0x80c(%rbp)
    78c3:	95 7c 4e 
    78c6:	c7 85 f8 f7 ff ff 55 	movl   $0x4e7c9555,-0x808(%rbp)
    78cd:	95 7c 4e 
    78d0:	c7 85 fc f7 ff ff 55 	movl   $0x4e7c9555,-0x804(%rbp)
    78d7:	95 7c 4e 
    78da:	c7 85 00 f8 ff ff 55 	movl   $0x4e7c9555,-0x800(%rbp)
    78e1:	95 7c 4e 
    78e4:	c7 85 04 f8 ff ff 55 	movl   $0x4e7c9555,-0x7fc(%rbp)
    78eb:	95 7c 4e 
    78ee:	c7 85 08 f8 ff ff 55 	movl   $0x4e7c9555,-0x7f8(%rbp)
    78f5:	95 7c 4e 
    78f8:	66 c7 85 c0 f6 ff ff 	movw   $0xffff,-0x940(%rbp)
    78ff:	ff ff 
    7901:	48 8d 05 98 73 00 00 	lea    0x7398(%rip),%rax        # eca0 <g_199>
    7908:	48 89 85 a0 f8 ff ff 	mov    %rax,-0x760(%rbp)
    790f:	48 8d 05 8a 73 00 00 	lea    0x738a(%rip),%rax        # eca0 <g_199>
    7916:	48 89 85 a8 f8 ff ff 	mov    %rax,-0x758(%rbp)
    791d:	48 8d 05 7c 73 00 00 	lea    0x737c(%rip),%rax        # eca0 <g_199>
    7924:	48 89 85 b0 f8 ff ff 	mov    %rax,-0x750(%rbp)
    792b:	48 8d 05 6e 73 00 00 	lea    0x736e(%rip),%rax        # eca0 <g_199>
    7932:	48 89 85 b8 f8 ff ff 	mov    %rax,-0x748(%rbp)
    7939:	48 8d 05 60 73 00 00 	lea    0x7360(%rip),%rax        # eca0 <g_199>
    7940:	48 89 85 c0 f8 ff ff 	mov    %rax,-0x740(%rbp)
    7947:	48 8d 85 a0 f8 ff ff 	lea    -0x760(%rbp),%rax
    794e:	48 83 c0 20          	add    $0x20,%rax
    7952:	48 89 85 a0 f7 ff ff 	mov    %rax,-0x860(%rbp)
    7959:	c7 85 28 f7 ff ff 5d 	movl   $0x4164925d,-0x8d8(%rbp)
    7960:	92 64 41 
    7963:	48 8d 05 1e 7c 00 00 	lea    0x7c1e(%rip),%rax        # f588 <g_639>
    796a:	48 89 85 a8 f7 ff ff 	mov    %rax,-0x858(%rbp)
    7971:	c7 85 e8 f6 ff ff 00 	movl   $0x0,-0x918(%rbp)
    7978:	00 00 00 
    797b:	eb 1a                	jmp    7997 <func_27+0xe1c>
    797d:	8b 85 e8 f6 ff ff    	mov    -0x918(%rbp),%eax
    7983:	48 98                	cltq   
    7985:	c7 84 85 70 f8 ff ff 	movl   $0x7b613db5,-0x790(%rbp,%rax,4)
    798c:	b5 3d 61 7b 
    7990:	83 85 e8 f6 ff ff 01 	addl   $0x1,-0x918(%rbp)
    7997:	83 bd e8 f6 ff ff 09 	cmpl   $0x9,-0x918(%rbp)
    799e:	7e dd                	jle    797d <func_27+0xe02>
    79a0:	8b 85 78 f8 ff ff    	mov    -0x788(%rbp),%eax
    79a6:	85 c0                	test   %eax,%eax
    79a8:	0f 88 dc 00 00 00    	js     7a8a <func_27+0xf0f>
    79ae:	8b 9d 70 f8 ff ff    	mov    -0x790(%rbp),%ebx
    79b4:	44 0f be a5 a4 f6 ff 	movsbl -0x95c(%rbp),%r12d
    79bb:	ff 
    79bc:	8b 85 fc f6 ff ff    	mov    -0x904(%rbp),%eax
    79c2:	44 0f bf e8          	movswl %ax,%r13d
    79c6:	44 8b b5 7c f8 ff ff 	mov    -0x784(%rbp),%r14d
    79cd:	48 8b 85 a8 f6 ff ff 	mov    -0x958(%rbp),%rax
    79d4:	41 89 c7             	mov    %eax,%r15d
    79d7:	48 8b 05 42 7b 00 00 	mov    0x7b42(%rip),%rax        # f520 <g_511>
    79de:	48 83 bd 88 f7 ff ff 	cmpq   $0x0,-0x878(%rbp)
    79e5:	00 
    79e6:	8b 85 d0 f6 ff ff    	mov    -0x930(%rbp),%eax
    79ec:	89 c6                	mov    %eax,%esi
    79ee:	bf ff ff ff ff       	mov    $0xffffffff,%edi
    79f3:	e8 be cb ff ff       	callq  45b6 <safe_add_func_int32_t_s_s>
    79f8:	be ff ff ff ff       	mov    $0xffffffff,%esi
    79fd:	89 c7                	mov    %eax,%edi
    79ff:	e8 cc d4 ff ff       	callq  4ed0 <safe_sub_func_uint32_t_u_u>
    7a04:	44 89 fe             	mov    %r15d,%esi
    7a07:	bf 00 00 00 00       	mov    $0x0,%edi
    7a0c:	e8 ec d4 ff ff       	callq  4efd <safe_mod_func_uint32_t_u_u>
    7a11:	be 01 00 00 00       	mov    $0x1,%esi
    7a16:	89 c7                	mov    %eax,%edi
    7a18:	e8 e0 d4 ff ff       	callq  4efd <safe_mod_func_uint32_t_u_u>
    7a1d:	0f be c0             	movsbl %al,%eax
    7a20:	be 07 00 00 00       	mov    $0x7,%esi
    7a25:	89 c7                	mov    %eax,%edi
    7a27:	e8 75 c8 ff ff       	callq  42a1 <safe_lshift_func_int8_t_s_s>
    7a2c:	0f be c0             	movsbl %al,%eax
    7a2f:	41 39 c6             	cmp    %eax,%r14d
    7a32:	0f 9f c0             	setg   %al
    7a35:	0f b6 c0             	movzbl %al,%eax
    7a38:	44 89 ee             	mov    %r13d,%esi
    7a3b:	89 c7                	mov    %eax,%edi
    7a3d:	e8 91 c9 ff ff       	callq  43d3 <safe_sub_func_int16_t_s_s>
    7a42:	98                   	cwtl   
    7a43:	44 89 e6             	mov    %r12d,%esi
    7a46:	89 c7                	mov    %eax,%edi
    7a48:	e8 b0 d4 ff ff       	callq  4efd <safe_mod_func_uint32_t_u_u>
    7a4d:	89 c2                	mov    %eax,%edx
    7a4f:	48 8b 85 98 f7 ff ff 	mov    -0x868(%rbp),%rax
    7a56:	48 89 10             	mov    %rdx,(%rax)
    7a59:	48 8b 85 98 f7 ff ff 	mov    -0x868(%rbp),%rax
    7a60:	48 8b 10             	mov    (%rax),%rdx
    7a63:	8b 85 8c f8 ff ff    	mov    -0x774(%rbp),%eax
    7a69:	48 98                	cltq   
    7a6b:	48 39 c2             	cmp    %rax,%rdx
    7a6e:	0f 94 c0             	sete   %al
    7a71:	0f b6 c0             	movzbl %al,%eax
    7a74:	89 de                	mov    %ebx,%esi
    7a76:	89 c7                	mov    %eax,%edi
    7a78:	e8 15 ca ff ff       	callq  4492 <safe_lshift_func_int16_t_s_s>
    7a7d:	0f bf d0             	movswl %ax,%edx
    7a80:	8b 05 a2 65 00 00    	mov    0x65a2(%rip),%eax        # e028 <g_58>
    7a86:	39 c2                	cmp    %eax,%edx
    7a88:	74 58                	je     7ae2 <func_27+0xf67>
    7a8a:	66 c7 85 c2 f6 ff ff 	movw   $0xfff7,-0x93e(%rbp)
    7a91:	f7 ff 
    7a93:	0f be 85 a4 f6 ff ff 	movsbl -0x95c(%rbp),%eax
    7a9a:	89 c6                	mov    %eax,%esi
    7a9c:	bf b6 ff ff ff       	mov    $0xffffffb6,%edi
    7aa1:	e8 c4 c7 ff ff       	callq  426a <safe_div_func_int8_t_s_s>
    7aa6:	48 0f be c0          	movsbq %al,%rax
    7aaa:	48 39 85 a8 f6 ff ff 	cmp    %rax,-0x958(%rbp)
    7ab1:	0f 94 c0             	sete   %al
    7ab4:	0f b6 c0             	movzbl %al,%eax
    7ab7:	31 85 e4 f6 ff ff    	xor    %eax,-0x91c(%rbp)
    7abd:	66 83 85 c2 f6 ff ff 	addw   $0x1,-0x93e(%rbp)
    7ac4:	01 
    7ac5:	48 8b 05 b4 71 00 00 	mov    0x71b4(%rip),%rax        # ec80 <g_60>
    7acc:	8b 10                	mov    (%rax),%edx
    7ace:	48 8b 05 ab 71 00 00 	mov    0x71ab(%rip),%rax        # ec80 <g_60>
    7ad5:	81 e2 67 ca 19 6e    	and    $0x6e19ca67,%edx
    7adb:	89 10                	mov    %edx,(%rax)
    7add:	e9 aa 05 00 00       	jmpq   808c <func_27+0x1511>
    7ae2:	48 8d 85 50 fc ff ff 	lea    -0x3b0(%rbp),%rax
    7ae9:	48 8d 15 70 3b 00 00 	lea    0x3b70(%rip),%rdx        # b660 <g_291+0x60c>
    7af0:	b9 2d 00 00 00       	mov    $0x2d,%ecx
    7af5:	48 89 c7             	mov    %rax,%rdi
    7af8:	48 89 d6             	mov    %rdx,%rsi
    7afb:	f3 48 a5             	rep movsq %ds:(%rsi),%es:(%rdi)
    7afe:	c7 85 ec f6 ff ff 00 	movl   $0x0,-0x914(%rbp)
    7b05:	00 00 00 
    7b08:	e9 8d 00 00 00       	jmpq   7b9a <func_27+0x101f>
    7b0d:	c7 85 f0 f6 ff ff 00 	movl   $0x0,-0x910(%rbp)
    7b14:	00 00 00 
    7b17:	eb 71                	jmp    7b8a <func_27+0x100f>
    7b19:	c7 85 f4 f6 ff ff 00 	movl   $0x0,-0x90c(%rbp)
    7b20:	00 00 00 
    7b23:	eb 55                	jmp    7b7a <func_27+0xfff>
    7b25:	8b 85 f4 f6 ff ff    	mov    -0x90c(%rbp),%eax
    7b2b:	48 63 f0             	movslq %eax,%rsi
    7b2e:	8b 85 ec f6 ff ff    	mov    -0x914(%rbp),%eax
    7b34:	48 63 d0             	movslq %eax,%rdx
    7b37:	8b 85 f0 f6 ff ff    	mov    -0x910(%rbp),%eax
    7b3d:	48 63 c8             	movslq %eax,%rcx
    7b40:	48 89 d0             	mov    %rdx,%rax
    7b43:	48 01 c0             	add    %rax,%rax
    7b46:	48 01 d0             	add    %rdx,%rax
    7b49:	48 8d 14 c5 00 00 00 	lea    0x0(,%rax,8),%rdx
    7b50:	00 
    7b51:	48 01 d0             	add    %rdx,%rax
    7b54:	48 89 ca             	mov    %rcx,%rdx
    7b57:	48 01 d2             	add    %rdx,%rdx
    7b5a:	48 01 ca             	add    %rcx,%rdx
    7b5d:	48 01 d0             	add    %rdx,%rax
    7b60:	48 8d 5d d0          	lea    -0x30(%rbp),%rbx
    7b64:	48 01 d8             	add    %rbx,%rax
    7b67:	48 01 f0             	add    %rsi,%rax
    7b6a:	48 2d 50 05 00 00    	sub    $0x550,%rax
    7b70:	c6 00 54             	movb   $0x54,(%rax)
    7b73:	83 85 f4 f6 ff ff 01 	addl   $0x1,-0x90c(%rbp)
    7b7a:	83 bd f4 f6 ff ff 02 	cmpl   $0x2,-0x90c(%rbp)
    7b81:	7e a2                	jle    7b25 <func_27+0xfaa>
    7b83:	83 85 f0 f6 ff ff 01 	addl   $0x1,-0x910(%rbp)
    7b8a:	83 bd f0 f6 ff ff 08 	cmpl   $0x8,-0x910(%rbp)
    7b91:	7e 86                	jle    7b19 <func_27+0xf9e>
    7b93:	83 85 ec f6 ff ff 01 	addl   $0x1,-0x914(%rbp)
    7b9a:	83 bd ec f6 ff ff 05 	cmpl   $0x5,-0x914(%rbp)
    7ba1:	0f 8e 66 ff ff ff    	jle    7b0d <func_27+0xf92>
    7ba7:	c7 85 d0 f6 ff ff 00 	movl   $0x0,-0x930(%rbp)
    7bae:	00 00 00 
    7bb1:	e9 c9 04 00 00       	jmpq   807f <func_27+0x1504>
    7bb6:	c7 85 2c f7 ff ff 60 	movl   $0x2a343060,-0x8d4(%rbp)
    7bbd:	30 34 2a 
    7bc0:	c7 05 7a 64 00 00 00 	movl   $0x0,0x647a(%rip)        # e044 <g_102>
    7bc7:	00 00 00 
    7bca:	90                   	nop
    7bcb:	8b 05 73 64 00 00    	mov    0x6473(%rip),%eax        # e044 <g_102>
    7bd1:	83 f8 01             	cmp    $0x1,%eax
    7bd4:	77 4f                	ja     7c25 <func_27+0x10aa>
    7bd6:	48 8b 05 bb 70 00 00 	mov    0x70bb(%rip),%rax        # ec98 <g_159>
    7bdd:	8b 95 d0 f6 ff ff    	mov    -0x930(%rbp),%edx
    7be3:	48 63 d2             	movslq %edx,%rdx
    7be6:	48 8d 0c 95 00 00 00 	lea    0x0(,%rdx,4),%rcx
    7bed:	00 
    7bee:	48 8d 15 33 64 00 00 	lea    0x6433(%rip),%rdx        # e028 <g_58>
    7bf5:	48 01 ca             	add    %rcx,%rdx
    7bf8:	48 89 10             	mov    %rdx,(%rax)
    7bfb:	8b 85 d0 f6 ff ff    	mov    -0x930(%rbp),%eax
    7c01:	48 98                	cltq   
    7c03:	48 8d 14 85 00 00 00 	lea    0x0(,%rax,4),%rdx
    7c0a:	00 
    7c0b:	48 8d 05 16 64 00 00 	lea    0x6416(%rip),%rax        # e028 <g_58>
    7c12:	c7 04 02 01 00 00 00 	movl   $0x1,(%rdx,%rax,1)
    7c19:	48 8b 85 a8 f6 ff ff 	mov    -0x958(%rbp),%rax
    7c20:	e9 71 0c 00 00       	jmpq   8896 <func_27+0x1d1b>
    7c25:	c7 05 15 64 00 00 00 	movl   $0x0,0x6415(%rip)        # e044 <g_102>
    7c2c:	00 00 00 
    7c2f:	e9 35 04 00 00       	jmpq   8069 <func_27+0x14ee>
    7c34:	48 c7 85 b0 f7 ff ff 	movq   $0x0,-0x850(%rbp)
    7c3b:	00 00 00 00 
    7c3f:	48 8d 05 50 64 00 00 	lea    0x6450(%rip),%rax        # e096 <g_263>
    7c46:	48 89 85 f0 f9 ff ff 	mov    %rax,-0x610(%rbp)
    7c4d:	48 8d 85 80 fa ff ff 	lea    -0x580(%rbp),%rax
    7c54:	48 83 c0 0c          	add    $0xc,%rax
    7c58:	48 89 85 f8 f9 ff ff 	mov    %rax,-0x608(%rbp)
    7c5f:	48 8d 05 30 64 00 00 	lea    0x6430(%rip),%rax        # e096 <g_263>
    7c66:	48 89 85 00 fa ff ff 	mov    %rax,-0x600(%rbp)
    7c6d:	48 8d 85 80 fa ff ff 	lea    -0x580(%rbp),%rax
    7c74:	48 83 c0 0c          	add    $0xc,%rax
    7c78:	48 89 85 08 fa ff ff 	mov    %rax,-0x5f8(%rbp)
    7c7f:	48 8d 05 10 64 00 00 	lea    0x6410(%rip),%rax        # e096 <g_263>
    7c86:	48 89 85 10 fa ff ff 	mov    %rax,-0x5f0(%rbp)
    7c8d:	48 8d 85 80 fa ff ff 	lea    -0x580(%rbp),%rax
    7c94:	48 83 c0 0c          	add    $0xc,%rax
    7c98:	48 89 85 18 fa ff ff 	mov    %rax,-0x5e8(%rbp)
    7c9f:	48 8d 05 f0 63 00 00 	lea    0x63f0(%rip),%rax        # e096 <g_263>
    7ca6:	48 89 85 20 fa ff ff 	mov    %rax,-0x5e0(%rbp)
    7cad:	48 8d 85 80 fa ff ff 	lea    -0x580(%rbp),%rax
    7cb4:	48 83 c0 0c          	add    $0xc,%rax
    7cb8:	48 89 85 28 fa ff ff 	mov    %rax,-0x5d8(%rbp)
    7cbf:	48 8d 05 d0 63 00 00 	lea    0x63d0(%rip),%rax        # e096 <g_263>
    7cc6:	48 89 85 30 fa ff ff 	mov    %rax,-0x5d0(%rbp)
    7ccd:	48 8d 85 80 fa ff ff 	lea    -0x580(%rbp),%rax
    7cd4:	48 83 c0 0c          	add    $0xc,%rax
    7cd8:	48 89 85 38 fa ff ff 	mov    %rax,-0x5c8(%rbp)
    7cdf:	48 8d 05 b0 63 00 00 	lea    0x63b0(%rip),%rax        # e096 <g_263>
    7ce6:	48 89 85 40 fa ff ff 	mov    %rax,-0x5c0(%rbp)
    7ced:	48 8d 85 80 fa ff ff 	lea    -0x580(%rbp),%rax
    7cf4:	48 83 c0 0c          	add    $0xc,%rax
    7cf8:	48 89 85 48 fa ff ff 	mov    %rax,-0x5b8(%rbp)
    7cff:	48 8d 05 90 63 00 00 	lea    0x6390(%rip),%rax        # e096 <g_263>
    7d06:	48 89 85 50 fa ff ff 	mov    %rax,-0x5b0(%rbp)
    7d0d:	48 8d 85 80 fa ff ff 	lea    -0x580(%rbp),%rax
    7d14:	48 83 c0 0c          	add    $0xc,%rax
    7d18:	48 89 85 58 fa ff ff 	mov    %rax,-0x5a8(%rbp)
    7d1f:	48 8d 05 70 63 00 00 	lea    0x6370(%rip),%rax        # e096 <g_263>
    7d26:	48 89 85 60 fa ff ff 	mov    %rax,-0x5a0(%rbp)
    7d2d:	48 8d 85 80 fa ff ff 	lea    -0x580(%rbp),%rax
    7d34:	48 83 c0 0c          	add    $0xc,%rax
    7d38:	48 89 85 68 fa ff ff 	mov    %rax,-0x598(%rbp)
    7d3f:	48 8d 05 50 63 00 00 	lea    0x6350(%rip),%rax        # e096 <g_263>
    7d46:	48 89 85 70 fa ff ff 	mov    %rax,-0x590(%rbp)
    7d4d:	48 8d 85 80 fa ff ff 	lea    -0x580(%rbp),%rax
    7d54:	48 83 c0 0c          	add    $0xc,%rax
    7d58:	48 89 85 78 fa ff ff 	mov    %rax,-0x588(%rbp)
    7d5f:	48 8b 85 b0 f7 ff ff 	mov    -0x850(%rbp),%rax
    7d66:	48 89 85 e0 f8 ff ff 	mov    %rax,-0x720(%rbp)
    7d6d:	8b 85 1c f7 ff ff    	mov    -0x8e4(%rbp),%eax
    7d73:	0f bf d8             	movswl %ax,%ebx
    7d76:	48 8b 0d 5b 63 00 00 	mov    0x635b(%rip),%rcx        # e0d8 <g_400>
    7d7d:	8b 05 c1 62 00 00    	mov    0x62c1(%rip),%eax        # e044 <g_102>
    7d83:	83 c0 01             	add    $0x1,%eax
    7d86:	89 c6                	mov    %eax,%esi
    7d88:	8b 85 d0 f6 ff ff    	mov    -0x930(%rbp),%eax
    7d8e:	48 63 d0             	movslq %eax,%rdx
    7d91:	48 89 d0             	mov    %rdx,%rax
    7d94:	48 01 c0             	add    %rax,%rax
    7d97:	48 01 d0             	add    %rdx,%rax
    7d9a:	48 8d 14 c5 00 00 00 	lea    0x0(,%rax,8),%rdx
    7da1:	00 
    7da2:	48 01 d0             	add    %rdx,%rax
    7da5:	48 89 ca             	mov    %rcx,%rdx
    7da8:	48 c1 e2 03          	shl    $0x3,%rdx
    7dac:	48 01 ca             	add    %rcx,%rdx
    7daf:	48 01 d0             	add    %rdx,%rax
    7db2:	48 8d 14 30          	lea    (%rax,%rsi,1),%rdx
    7db6:	48 8d 05 a3 62 00 00 	lea    0x62a3(%rip),%rax        # e060 <g_246>
    7dbd:	48 01 d0             	add    %rdx,%rax
    7dc0:	0f b6 00             	movzbl (%rax),%eax
    7dc3:	32 85 a4 f6 ff ff    	xor    -0x95c(%rbp),%al
    7dc9:	89 c2                	mov    %eax,%edx
    7dcb:	48 8b 0d 06 63 00 00 	mov    0x6306(%rip),%rcx        # e0d8 <g_400>
    7dd2:	8b 05 6c 62 00 00    	mov    0x626c(%rip),%eax        # e044 <g_102>
    7dd8:	83 c0 01             	add    $0x1,%eax
    7ddb:	89 d6                	mov    %edx,%esi
    7ddd:	89 c7                	mov    %eax,%edi
    7ddf:	8b 85 d0 f6 ff ff    	mov    -0x930(%rbp),%eax
    7de5:	48 63 d0             	movslq %eax,%rdx
    7de8:	48 89 d0             	mov    %rdx,%rax
    7deb:	48 01 c0             	add    %rax,%rax
    7dee:	48 01 d0             	add    %rdx,%rax
    7df1:	48 8d 14 c5 00 00 00 	lea    0x0(,%rax,8),%rdx
    7df8:	00 
    7df9:	48 01 d0             	add    %rdx,%rax
    7dfc:	48 89 ca             	mov    %rcx,%rdx
    7dff:	48 c1 e2 03          	shl    $0x3,%rdx
    7e03:	48 01 ca             	add    %rcx,%rdx
    7e06:	48 01 d0             	add    %rdx,%rax
    7e09:	48 8d 14 38          	lea    (%rax,%rdi,1),%rdx
    7e0d:	48 8d 05 4c 62 00 00 	lea    0x624c(%rip),%rax        # e060 <g_246>
    7e14:	48 01 d0             	add    %rdx,%rax
    7e17:	40 88 30             	mov    %sil,(%rax)
    7e1a:	8b 85 d0 f6 ff ff    	mov    -0x930(%rbp),%eax
    7e20:	48 63 d0             	movslq %eax,%rdx
    7e23:	48 89 d0             	mov    %rdx,%rax
    7e26:	48 01 c0             	add    %rax,%rax
    7e29:	48 01 d0             	add    %rdx,%rax
    7e2c:	48 8d 14 c5 00 00 00 	lea    0x0(,%rax,8),%rdx
    7e33:	00 
    7e34:	48 01 d0             	add    %rdx,%rax
    7e37:	48 8b 85 a8 f6 ff ff 	mov    -0x958(%rbp),%rax
    7e3e:	44 0f b7 e0          	movzwl %ax,%r12d
    7e42:	8b 85 2c f7 ff ff    	mov    -0x8d4(%rbp),%eax
    7e48:	44 0f be e8          	movsbl %al,%r13d
    7e4c:	44 8b 35 55 7d 00 00 	mov    0x7d55(%rip),%r14d        # fba8 <g_398>
    7e53:	44 0f be bd a4 f6 ff 	movsbl -0x95c(%rbp),%r15d
    7e5a:	ff 
    7e5b:	0f be 95 a4 f6 ff ff 	movsbl -0x95c(%rbp),%edx
    7e62:	0f b6 85 a4 f6 ff ff 	movzbl -0x95c(%rbp),%eax
    7e69:	f7 d0                	not    %eax
    7e6b:	c0 e8 07             	shr    $0x7,%al
    7e6e:	0f b6 c0             	movzbl %al,%eax
    7e71:	89 d6                	mov    %edx,%esi
    7e73:	89 c7                	mov    %eax,%edi
    7e75:	e8 78 c3 ff ff       	callq  41f2 <safe_sub_func_int8_t_s_s>
    7e7a:	0f be c0             	movsbl %al,%eax
    7e7d:	be 03 00 00 00       	mov    $0x3,%esi
    7e82:	89 c7                	mov    %eax,%edi
    7e84:	e8 65 c4 ff ff       	callq  42ee <safe_lshift_func_int8_t_s_u>
    7e89:	0f be c0             	movsbl %al,%eax
    7e8c:	44 89 fe             	mov    %r15d,%esi
    7e8f:	89 c7                	mov    %eax,%edi
    7e91:	e8 36 c8 ff ff       	callq  46cc <safe_mod_func_int32_t_s_s>
    7e96:	85 c0                	test   %eax,%eax
    7e98:	75 08                	jne    7ea2 <func_27+0x1327>
    7e9a:	8b 05 88 61 00 00    	mov    0x6188(%rip),%eax        # e028 <g_58>
    7ea0:	85 c0                	test   %eax,%eax
    7ea2:	48 8b 05 2f 62 00 00 	mov    0x622f(%rip),%rax        # e0d8 <g_400>
    7ea9:	48 8d 50 03          	lea    0x3(%rax),%rdx
    7ead:	48 8b 05 24 62 00 00 	mov    0x6224(%rip),%rax        # e0d8 <g_400>
    7eb4:	48 8d 48 02          	lea    0x2(%rax),%rcx
    7eb8:	48 89 d0             	mov    %rdx,%rax
    7ebb:	48 01 c0             	add    %rax,%rax
    7ebe:	48 01 d0             	add    %rdx,%rax
    7ec1:	48 01 c0             	add    %rax,%rax
    7ec4:	48 01 c8             	add    %rcx,%rax
    7ec7:	48 c7 84 c5 30 fb ff 	movq   $0x0,-0x4d0(%rbp,%rax,8)
    7ece:	ff 00 00 00 00 
    7ed3:	48 89 d0             	mov    %rdx,%rax
    7ed6:	48 01 c0             	add    %rax,%rax
    7ed9:	48 01 d0             	add    %rdx,%rax
    7edc:	48 01 c0             	add    %rax,%rax
    7edf:	48 01 c8             	add    %rcx,%rax
    7ee2:	48 8b 94 c5 30 fb ff 	mov    -0x4d0(%rbp,%rax,8),%rdx
    7ee9:	ff 
    7eea:	48 8b 05 87 76 00 00 	mov    0x7687(%rip),%rax        # f578 <g_558>
    7ef1:	48 39 c2             	cmp    %rax,%rdx
    7ef4:	0f 94 c0             	sete   %al
    7ef7:	0f b6 c0             	movzbl %al,%eax
    7efa:	be 01 00 00 00       	mov    $0x1,%esi
    7eff:	89 c7                	mov    %eax,%edi
    7f01:	e8 8d cc ff ff       	callq  4b93 <safe_mul_func_uint8_t_u_u>
    7f06:	0f b6 d0             	movzbl %al,%edx
    7f09:	48 8b 05 c8 61 00 00 	mov    0x61c8(%rip),%rax        # e0d8 <g_400>
    7f10:	48 39 c2             	cmp    %rax,%rdx
    7f13:	0f 92 c0             	setb   %al
    7f16:	0f b6 c0             	movzbl %al,%eax
    7f19:	44 89 f6             	mov    %r14d,%esi
    7f1c:	89 c7                	mov    %eax,%edi
    7f1e:	e8 6f c5 ff ff       	callq  4492 <safe_lshift_func_int16_t_s_s>
    7f23:	66 0f be 95 a4 f6 ff 	movsbw -0x95c(%rbp),%dx
    7f2a:	ff 
    7f2b:	66 39 d0             	cmp    %dx,%ax
    7f2e:	0f 9f c0             	setg   %al
    7f31:	0f b6 c0             	movzbl %al,%eax
    7f34:	8b 15 6e 7c 00 00    	mov    0x7c6e(%rip),%edx        # fba8 <g_398>
    7f3a:	09 d0                	or     %edx,%eax
    7f3c:	89 c2                	mov    %eax,%edx
    7f3e:	48 8b 05 93 61 00 00 	mov    0x6193(%rip),%rax        # e0d8 <g_400>
    7f45:	09 d0                	or     %edx,%eax
    7f47:	0f b7 c0             	movzwl %ax,%eax
    7f4a:	be 07 00 00 00       	mov    $0x7,%esi
    7f4f:	89 c7                	mov    %eax,%edi
    7f51:	e8 f2 ce ff ff       	callq  4e48 <safe_rshift_func_uint16_t_u_s>
    7f56:	0f b6 85 ed fa ff ff 	movzbl -0x513(%rbp),%eax
    7f5d:	84 c0                	test   %al,%al
    7f5f:	74 07                	je     7f68 <func_27+0x13ed>
    7f61:	ba 01 00 00 00       	mov    $0x1,%edx
    7f66:	eb 05                	jmp    7f6d <func_27+0x13f2>
    7f68:	ba 00 00 00 00       	mov    $0x0,%edx
    7f6d:	0f be 85 a4 f6 ff ff 	movsbl -0x95c(%rbp),%eax
    7f74:	39 c2                	cmp    %eax,%edx
    7f76:	0f 9c c0             	setl   %al
    7f79:	0f b6 c0             	movzbl %al,%eax
    7f7c:	44 89 ee             	mov    %r13d,%esi
    7f7f:	89 c7                	mov    %eax,%edi
    7f81:	e8 8c c2 ff ff       	callq  4212 <safe_mul_func_int8_t_s_s>
    7f86:	0f be c0             	movsbl %al,%eax
    7f89:	be 00 00 00 00       	mov    $0x0,%esi
    7f8e:	89 c7                	mov    %eax,%edi
    7f90:	e8 a0 c3 ff ff       	callq  4335 <safe_rshift_func_int8_t_s_s>
    7f95:	66 98                	cbtw   
    7f97:	0f b7 c0             	movzwl %ax,%eax
    7f9a:	44 89 e6             	mov    %r12d,%esi
    7f9d:	89 c7                	mov    %eax,%edi
    7f9f:	e8 5b cd ff ff       	callq  4cff <safe_add_func_uint16_t_u_u>
    7fa4:	0f be 95 a4 f6 ff ff 	movsbl -0x95c(%rbp),%edx
    7fab:	0f b6 85 94 fa ff ff 	movzbl -0x56c(%rbp),%eax
    7fb2:	84 c0                	test   %al,%al
    7fb4:	0f 94 c0             	sete   %al
    7fb7:	0f b6 c0             	movzbl %al,%eax
    7fba:	39 c2                	cmp    %eax,%edx
    7fbc:	0f 9e c0             	setle  %al
    7fbf:	0f b6 c0             	movzbl %al,%eax
    7fc2:	89 c6                	mov    %eax,%esi
    7fc4:	bf fa ff 00 00       	mov    $0xfffa,%edi
    7fc9:	e8 6f cd ff ff       	callq  4d3d <safe_mul_func_uint16_t_u_u>
    7fce:	bf 00 00 00 00       	mov    $0x0,%edi
    7fd3:	e8 6d cb ff ff       	callq  4b45 <safe_unary_minus_func_uint8_t_u>
    7fd8:	0f b6 c0             	movzbl %al,%eax
    7fdb:	89 c7                	mov    %eax,%edi
    7fdd:	e8 bb c3 ff ff       	callq  439d <safe_unary_minus_func_int16_t_s>
    7fe2:	66 85 c0             	test   %ax,%ax
    7fe5:	0f 9e c0             	setle  %al
    7fe8:	0f b6 c0             	movzbl %al,%eax
    7feb:	89 de                	mov    %ebx,%esi
    7fed:	89 c7                	mov    %eax,%edi
    7fef:	e8 bf c3 ff ff       	callq  43b3 <safe_add_func_int16_t_s_s>
    7ff4:	98                   	cwtl   
    7ff5:	89 c6                	mov    %eax,%esi
    7ff7:	bf fe ff 00 00       	mov    $0xfffe,%edi
    7ffc:	e8 47 ce ff ff       	callq  4e48 <safe_rshift_func_uint16_t_u_s>
    8001:	48 8b 05 98 6c 00 00 	mov    0x6c98(%rip),%rax        # eca0 <g_199>
    8008:	0f b7 10             	movzwl (%rax),%edx
    800b:	83 ea 01             	sub    $0x1,%edx
    800e:	66 89 10             	mov    %dx,(%rax)
    8011:	0f b7 00             	movzwl (%rax),%eax
    8014:	0f b7 d0             	movzwl %ax,%edx
    8017:	83 bd 2c f7 ff ff 00 	cmpl   $0x0,-0x8d4(%rbp)
    801e:	0f 94 c0             	sete   %al
    8021:	0f b6 c0             	movzbl %al,%eax
    8024:	39 c2                	cmp    %eax,%edx
    8026:	48 8b 85 a8 f6 ff ff 	mov    -0x958(%rbp),%rax
    802d:	89 85 e4 f6 ff ff    	mov    %eax,-0x91c(%rbp)
    8033:	8b 85 e4 f6 ff ff    	mov    -0x91c(%rbp),%eax
    8039:	48 63 d0             	movslq %eax,%rdx
    803c:	48 8b 05 85 60 00 00 	mov    0x6085(%rip),%rax        # e0c8 <g_280+0x28>
    8043:	48 39 c2             	cmp    %rax,%rdx
    8046:	0f 9c c0             	setl   %al
    8049:	0f b6 d0             	movzbl %al,%edx
    804c:	8b 85 00 fd ff ff    	mov    -0x300(%rbp),%eax
    8052:	31 d0                	xor    %edx,%eax
    8054:	89 85 00 fd ff ff    	mov    %eax,-0x300(%rbp)
    805a:	8b 05 e4 5f 00 00    	mov    0x5fe4(%rip),%eax        # e044 <g_102>
    8060:	83 c0 01             	add    $0x1,%eax
    8063:	89 05 db 5f 00 00    	mov    %eax,0x5fdb(%rip)        # e044 <g_102>
    8069:	8b 05 d5 5f 00 00    	mov    0x5fd5(%rip),%eax        # e044 <g_102>
    806f:	83 f8 01             	cmp    $0x1,%eax
    8072:	0f 86 bc fb ff ff    	jbe    7c34 <func_27+0x10b9>
    8078:	83 ad d0 f6 ff ff 01 	subl   $0x1,-0x930(%rbp)
    807f:	83 bd d0 f6 ff ff 00 	cmpl   $0x0,-0x930(%rbp)
    8086:	0f 89 2a fb ff ff    	jns    7bb6 <func_27+0x103b>
    808c:	c7 05 ae 5f 00 00 00 	movl   $0x0,0x5fae(%rip)        # e044 <g_102>
    8093:	00 00 00 
    8096:	e9 3e 05 00 00       	jmpq   85d9 <func_27+0x1a5e>
    809b:	c7 85 30 f7 ff ff ff 	movl   $0xffffffff,-0x8d0(%rbp)
    80a2:	ff ff ff 
    80a5:	48 8d 05 46 60 00 00 	lea    0x6046(%rip),%rax        # e0f2 <g_586>
    80ac:	48 89 85 b8 f7 ff ff 	mov    %rax,-0x848(%rbp)
    80b3:	48 c7 85 60 f7 ff ff 	movq   $0xffffffffffffffff,-0x8a0(%rbp)
    80ba:	ff ff ff ff 
    80be:	c7 85 d8 f6 ff ff 05 	movl   $0x5,-0x928(%rbp)
    80c5:	00 00 00 
    80c8:	83 bd d8 f6 ff ff 00 	cmpl   $0x0,-0x928(%rbp)
    80cf:	7e 53                	jle    8124 <func_27+0x15a9>
    80d1:	c7 85 c8 f6 ff ff 01 	movl   $0x1,-0x938(%rbp)
    80d8:	00 00 00 
    80db:	eb 2e                	jmp    810b <func_27+0x1590>
    80dd:	c7 85 44 f7 ff ff f7 	movl   $0xfffffff7,-0x8bc(%rbp)
    80e4:	ff ff ff 
    80e7:	8b 85 44 f7 ff ff    	mov    -0x8bc(%rbp),%eax
    80ed:	89 85 30 f7 ff ff    	mov    %eax,-0x8d0(%rbp)
    80f3:	80 bd a4 f6 ff ff 00 	cmpb   $0x0,-0x95c(%rbp)
    80fa:	75 1b                	jne    8117 <func_27+0x159c>
    80fc:	8b 85 c8 f6 ff ff    	mov    -0x938(%rbp),%eax
    8102:	83 e8 01             	sub    $0x1,%eax
    8105:	89 85 c8 f6 ff ff    	mov    %eax,-0x938(%rbp)
    810b:	8b 85 c8 f6 ff ff    	mov    -0x938(%rbp),%eax
    8111:	85 c0                	test   %eax,%eax
    8113:	79 c8                	jns    80dd <func_27+0x1562>
    8115:	eb 01                	jmp    8118 <func_27+0x159d>
    8117:	90                   	nop
    8118:	0f be 85 a4 f6 ff ff 	movsbl -0x95c(%rbp),%eax
    811f:	e9 72 07 00 00       	jmpq   8896 <func_27+0x1d1b>
    8124:	48 c7 85 50 f7 ff ff 	movq   $0x0,-0x8b0(%rbp)
    812b:	00 00 00 00 
    812f:	e9 4d 02 00 00       	jmpq   8381 <func_27+0x1806>
    8134:	48 8d 05 85 5f 00 00 	lea    0x5f85(%rip),%rax        # e0c0 <g_280+0x20>
    813b:	48 89 85 50 fc ff ff 	mov    %rax,-0x3b0(%rbp)
    8142:	48 8d 05 6f 5f 00 00 	lea    0x5f6f(%rip),%rax        # e0b8 <g_280+0x18>
    8149:	48 89 85 58 fc ff ff 	mov    %rax,-0x3a8(%rbp)
    8150:	48 8d 05 69 5f 00 00 	lea    0x5f69(%rip),%rax        # e0c0 <g_280+0x20>
    8157:	48 89 85 60 fc ff ff 	mov    %rax,-0x3a0(%rbp)
    815e:	48 8d 05 53 5f 00 00 	lea    0x5f53(%rip),%rax        # e0b8 <g_280+0x18>
    8165:	48 89 85 68 fc ff ff 	mov    %rax,-0x398(%rbp)
    816c:	48 8d 05 4d 5f 00 00 	lea    0x5f4d(%rip),%rax        # e0c0 <g_280+0x20>
    8173:	48 89 85 70 fc ff ff 	mov    %rax,-0x390(%rbp)
    817a:	48 8d 05 37 5f 00 00 	lea    0x5f37(%rip),%rax        # e0b8 <g_280+0x18>
    8181:	48 89 85 78 fc ff ff 	mov    %rax,-0x388(%rbp)
    8188:	48 8d 05 31 5f 00 00 	lea    0x5f31(%rip),%rax        # e0c0 <g_280+0x20>
    818f:	48 89 85 80 fc ff ff 	mov    %rax,-0x380(%rbp)
    8196:	48 8d 05 1b 5f 00 00 	lea    0x5f1b(%rip),%rax        # e0b8 <g_280+0x18>
    819d:	48 89 85 88 fc ff ff 	mov    %rax,-0x378(%rbp)
    81a4:	48 8d 05 15 5f 00 00 	lea    0x5f15(%rip),%rax        # e0c0 <g_280+0x20>
    81ab:	48 89 85 90 fc ff ff 	mov    %rax,-0x370(%rbp)
    81b2:	48 8d 05 17 5f 00 00 	lea    0x5f17(%rip),%rax        # e0d0 <g_316>
    81b9:	48 89 85 98 fc ff ff 	mov    %rax,-0x368(%rbp)
    81c0:	48 8d 05 09 5f 00 00 	lea    0x5f09(%rip),%rax        # e0d0 <g_316>
    81c7:	48 89 85 a0 fc ff ff 	mov    %rax,-0x360(%rbp)
    81ce:	48 8d 05 fb 5e 00 00 	lea    0x5efb(%rip),%rax        # e0d0 <g_316>
    81d5:	48 89 85 a8 fc ff ff 	mov    %rax,-0x358(%rbp)
    81dc:	48 8d 05 ed 5e 00 00 	lea    0x5eed(%rip),%rax        # e0d0 <g_316>
    81e3:	48 89 85 b0 fc ff ff 	mov    %rax,-0x350(%rbp)
    81ea:	48 8d 05 df 5e 00 00 	lea    0x5edf(%rip),%rax        # e0d0 <g_316>
    81f1:	48 89 85 b8 fc ff ff 	mov    %rax,-0x348(%rbp)
    81f8:	48 8d 05 d1 5e 00 00 	lea    0x5ed1(%rip),%rax        # e0d0 <g_316>
    81ff:	48 89 85 c0 fc ff ff 	mov    %rax,-0x340(%rbp)
    8206:	48 8d 05 c3 5e 00 00 	lea    0x5ec3(%rip),%rax        # e0d0 <g_316>
    820d:	48 89 85 c8 fc ff ff 	mov    %rax,-0x338(%rbp)
    8214:	48 8d 05 b5 5e 00 00 	lea    0x5eb5(%rip),%rax        # e0d0 <g_316>
    821b:	48 89 85 d0 fc ff ff 	mov    %rax,-0x330(%rbp)
    8222:	48 8d 05 a7 5e 00 00 	lea    0x5ea7(%rip),%rax        # e0d0 <g_316>
    8229:	48 89 85 d8 fc ff ff 	mov    %rax,-0x328(%rbp)
    8230:	48 c7 85 c8 f7 ff ff 	movq   $0x0,-0x838(%rbp)
    8237:	00 00 00 00 
    823b:	48 8d 85 50 fc ff ff 	lea    -0x3b0(%rbp),%rax
    8242:	48 89 85 d0 f7 ff ff 	mov    %rax,-0x830(%rbp)
    8249:	c7 85 40 f7 ff ff 00 	movl   $0x0,-0x8c0(%rbp)
    8250:	00 00 00 
    8253:	48 c7 85 d8 f7 ff ff 	movq   $0x0,-0x828(%rbp)
    825a:	00 00 00 00 
    825e:	8b 05 d8 5d 00 00    	mov    0x5dd8(%rip),%eax        # e03c <g_62+0xc>
    8264:	48 63 d8             	movslq %eax,%rbx
    8267:	48 8b 95 50 fc ff ff 	mov    -0x3b0(%rbp),%rdx
    826e:	48 8b 85 d0 f7 ff ff 	mov    -0x830(%rbp),%rax
    8275:	48 89 10             	mov    %rdx,(%rax)
    8278:	48 8b 85 d0 f7 ff ff 	mov    -0x830(%rbp),%rax
    827f:	48 8b 10             	mov    (%rax),%rdx
    8282:	48 8b 05 97 72 00 00 	mov    0x7297(%rip),%rax        # f520 <g_511>
    8289:	48 8b 00             	mov    (%rax),%rax
    828c:	48 39 c2             	cmp    %rax,%rdx
    828f:	0f 95 c0             	setne  %al
    8292:	0f b6 c0             	movzbl %al,%eax
    8295:	89 c7                	mov    %eax,%edi
    8297:	e8 01 c1 ff ff       	callq  439d <safe_unary_minus_func_int16_t_s>
    829c:	89 c2                	mov    %eax,%edx
    829e:	48 8b 85 48 f7 ff ff 	mov    -0x8b8(%rbp),%rax
    82a5:	0f b7 08             	movzwl (%rax),%ecx
    82a8:	48 8b 85 48 f7 ff ff 	mov    -0x8b8(%rbp),%rax
    82af:	31 ca                	xor    %ecx,%edx
    82b1:	66 89 10             	mov    %dx,(%rax)
    82b4:	0f b7 00             	movzwl (%rax),%eax
    82b7:	44 0f bf e8          	movswl %ax,%r13d
    82bb:	44 0f be a5 a4 f6 ff 	movsbl -0x95c(%rbp),%r12d
    82c2:	ff 
    82c3:	48 8b 85 a8 f6 ff ff 	mov    -0x958(%rbp),%rax
    82ca:	89 c1                	mov    %eax,%ecx
    82cc:	48 8b 05 cd 69 00 00 	mov    0x69cd(%rip),%rax        # eca0 <g_199>
    82d3:	48 89 85 b8 f7 ff ff 	mov    %rax,-0x848(%rbp)
    82da:	48 8b 85 b8 f7 ff ff 	mov    -0x848(%rbp),%rax
    82e1:	48 89 05 98 72 00 00 	mov    %rax,0x7298(%rip)        # f580 <g_587>
    82e8:	8b 85 78 f8 ff ff    	mov    -0x788(%rbp),%eax
    82ee:	39 85 24 f7 ff ff    	cmp    %eax,-0x8dc(%rbp)
    82f4:	0f 9c c2             	setl   %dl
    82f7:	48 8b 05 a2 69 00 00 	mov    0x69a2(%rip),%rax        # eca0 <g_199>
    82fe:	0f b6 d2             	movzbl %dl,%edx
    8301:	66 89 10             	mov    %dx,(%rax)
    8304:	0f b7 00             	movzwl (%rax),%eax
    8307:	0f b7 c0             	movzwl %ax,%eax
    830a:	89 ce                	mov    %ecx,%esi
    830c:	89 c7                	mov    %eax,%edi
    830e:	e8 f3 ca ff ff       	callq  4e06 <safe_lshift_func_uint16_t_u_u>
    8313:	0f b7 c0             	movzwl %ax,%eax
    8316:	0f b6 15 50 5d 00 00 	movzbl 0x5d50(%rip),%edx        # e06d <g_246+0xd>
    831d:	0f b6 d2             	movzbl %dl,%edx
    8320:	81 ca 42 24 07 0f    	or     $0xf072442,%edx
    8326:	89 c6                	mov    %eax,%esi
    8328:	89 d7                	mov    %edx,%edi
    832a:	e8 f6 cb ff ff       	callq  4f25 <safe_div_func_uint32_t_u_u>
    832f:	3d 13 5f 00 00       	cmp    $0x5f13,%eax
    8334:	0f 95 c0             	setne  %al
    8337:	0f b6 c0             	movzbl %al,%eax
    833a:	44 89 e6             	mov    %r12d,%esi
    833d:	89 c7                	mov    %eax,%edi
    833f:	e8 7a c9 ff ff       	callq  4cbe <safe_rshift_func_uint8_t_u_u>
    8344:	0f b6 c0             	movzbl %al,%eax
    8347:	39 85 40 f7 ff ff    	cmp    %eax,-0x8c0(%rbp)
    834d:	0f 95 c0             	setne  %al
    8350:	0f b6 c0             	movzbl %al,%eax
    8353:	44 31 e8             	xor    %r13d,%eax
    8356:	48 98                	cltq   
    8358:	48 89 de             	mov    %rbx,%rsi
    835b:	48 89 c7             	mov    %rax,%rdi
    835e:	e8 45 c5 ff ff       	callq  48a8 <safe_sub_func_int64_t_s_s>
    8363:	48 89 c2             	mov    %rax,%rdx
    8366:	48 8b 05 13 69 00 00 	mov    0x6913(%rip),%rax        # ec80 <g_60>
    836d:	89 10                	mov    %edx,(%rax)
    836f:	48 8b 85 50 f7 ff ff 	mov    -0x8b0(%rbp),%rax
    8376:	48 83 c0 01          	add    $0x1,%rax
    837a:	48 89 85 50 f7 ff ff 	mov    %rax,-0x8b0(%rbp)
    8381:	48 8b 85 50 f7 ff ff 	mov    -0x8b0(%rbp),%rax
    8388:	48 83 f8 03          	cmp    $0x3,%rax
    838c:	0f 86 a2 fd ff ff    	jbe    8134 <func_27+0x15b9>
    8392:	83 bd e4 f6 ff ff 00 	cmpl   $0x0,-0x91c(%rbp)
    8399:	0f 85 4b 02 00 00    	jne    85ea <func_27+0x1a6f>
    839f:	c7 85 c4 f6 ff ff 00 	movl   $0x0,-0x93c(%rbp)
    83a6:	00 00 00 
    83a9:	e9 0e 02 00 00       	jmpq   85bc <func_27+0x1a41>
    83ae:	c7 85 34 f7 ff ff 3d 	movl   $0x538c8d3d,-0x8cc(%rbp)
    83b5:	8d 8c 53 
    83b8:	c7 85 38 f7 ff ff e3 	movl   $0xf6e5a6e3,-0x8c8(%rbp)
    83bf:	a6 e5 f6 
    83c2:	c7 85 f0 f9 ff ff 04 	movl   $0x4,-0x610(%rbp)
    83c9:	00 00 00 
    83cc:	c7 85 f4 f9 ff ff 04 	movl   $0x4,-0x60c(%rbp)
    83d3:	00 00 00 
    83d6:	c7 85 f8 f9 ff ff 04 	movl   $0x4,-0x608(%rbp)
    83dd:	00 00 00 
    83e0:	c7 85 fc f9 ff ff 04 	movl   $0x4,-0x604(%rbp)
    83e7:	00 00 00 
    83ea:	c7 85 00 fa ff ff 04 	movl   $0x4,-0x600(%rbp)
    83f1:	00 00 00 
    83f4:	c7 85 04 fa ff ff 04 	movl   $0x4,-0x5fc(%rbp)
    83fb:	00 00 00 
    83fe:	c7 85 08 fa ff ff 04 	movl   $0x4,-0x5f8(%rbp)
    8405:	00 00 00 
    8408:	48 8d 85 80 fa ff ff 	lea    -0x580(%rbp),%rax
    840f:	48 83 c0 20          	add    $0x20,%rax
    8413:	48 89 85 c0 f7 ff ff 	mov    %rax,-0x840(%rbp)
    841a:	c7 85 f8 f6 ff ff 00 	movl   $0x0,-0x908(%rbp)
    8421:	00 00 00 
    8424:	eb 1e                	jmp    8444 <func_27+0x18c9>
    8426:	8b 85 f8 f6 ff ff    	mov    -0x908(%rbp),%eax
    842c:	48 98                	cltq   
    842e:	48 8d 15 c2 5c 00 00 	lea    0x5cc2(%rip),%rdx        # e0f7 <g_606+0x3>
    8435:	48 89 94 c5 50 fc ff 	mov    %rdx,-0x3b0(%rbp,%rax,8)
    843c:	ff 
    843d:	83 85 f8 f6 ff ff 01 	addl   $0x1,-0x908(%rbp)
    8444:	83 bd f8 f6 ff ff 09 	cmpl   $0x9,-0x908(%rbp)
    844b:	7e d9                	jle    8426 <func_27+0x18ab>
    844d:	c7 85 f8 f6 ff ff 00 	movl   $0x0,-0x908(%rbp)
    8454:	00 00 00 
    8457:	eb 1e                	jmp    8477 <func_27+0x18fc>
    8459:	8b 85 f8 f6 ff ff    	mov    -0x908(%rbp),%eax
    845f:	48 98                	cltq   
    8461:	48 8d 95 48 f7 ff ff 	lea    -0x8b8(%rbp),%rdx
    8468:	48 89 94 c5 80 fa ff 	mov    %rdx,-0x580(%rbp,%rax,8)
    846f:	ff 
    8470:	83 85 f8 f6 ff ff 01 	addl   $0x1,-0x908(%rbp)
    8477:	83 bd f8 f6 ff ff 07 	cmpl   $0x7,-0x908(%rbp)
    847e:	7e d9                	jle    8459 <func_27+0x18de>
    8480:	c7 85 d4 f6 ff ff 00 	movl   $0x0,-0x92c(%rbp)
    8487:	00 00 00 
    848a:	eb 19                	jmp    84a5 <func_27+0x192a>
    848c:	c7 85 3c f7 ff ff ff 	movl   $0xffffffff,-0x8c4(%rbp)
    8493:	ff ff ff 
    8496:	48 83 ad 60 f7 ff ff 	subq   $0x1,-0x8a0(%rbp)
    849d:	01 
    849e:	83 85 d4 f6 ff ff 01 	addl   $0x1,-0x92c(%rbp)
    84a5:	83 bd d4 f6 ff ff 01 	cmpl   $0x1,-0x92c(%rbp)
    84ac:	7e de                	jle    848c <func_27+0x1911>
    84ae:	c6 05 42 5c 00 00 ff 	movb   $0xff,0x5c42(%rip)        # e0f7 <g_606+0x3>
    84b5:	8b 85 c4 f6 ff ff    	mov    -0x93c(%rbp),%eax
    84bb:	89 c0                	mov    %eax,%eax
    84bd:	48 8d 14 85 00 00 00 	lea    0x0(,%rax,4),%rdx
    84c4:	00 
    84c5:	48 8d 05 5c 5b 00 00 	lea    0x5b5c(%rip),%rax        # e028 <g_58>
    84cc:	8b 04 02             	mov    (%rdx,%rax,1),%eax
    84cf:	0f be c0             	movsbl %al,%eax
    84d2:	89 c6                	mov    %eax,%esi
    84d4:	bf 9e ff ff ff       	mov    $0xffffff9e,%edi
    84d9:	e8 8c bd ff ff       	callq  426a <safe_div_func_int8_t_s_s>
    84de:	66 98                	cbtw   
    84e0:	0f b7 c0             	movzwl %ax,%eax
    84e3:	89 c6                	mov    %eax,%esi
    84e5:	bf ff ff 00 00       	mov    $0xffff,%edi
    84ea:	e8 10 c8 ff ff       	callq  4cff <safe_add_func_uint16_t_u_u>
    84ef:	0f b7 d8             	movzwl %ax,%ebx
    84f2:	be 07 00 00 00       	mov    $0x7,%esi
    84f7:	bf 00 00 00 00       	mov    $0x0,%edi
    84fc:	e8 79 c9 ff ff       	callq  4e7a <safe_rshift_func_uint16_t_u_u>
    8501:	0f b7 c0             	movzwl %ax,%eax
    8504:	89 de                	mov    %ebx,%esi
    8506:	89 c7                	mov    %eax,%edi
    8508:	e8 f2 c1 ff ff       	callq  46ff <safe_div_func_int32_t_s_s>
    850d:	0f b6 c0             	movzbl %al,%eax
    8510:	89 c7                	mov    %eax,%edi
    8512:	e8 2e c6 ff ff       	callq  4b45 <safe_unary_minus_func_uint8_t_u>
    8517:	0f b6 d0             	movzbl %al,%edx
    851a:	8b 85 c4 f6 ff ff    	mov    -0x93c(%rbp),%eax
    8520:	89 c0                	mov    %eax,%eax
    8522:	48 8d 0c 85 00 00 00 	lea    0x0(,%rax,4),%rcx
    8529:	00 
    852a:	48 8d 05 f7 5a 00 00 	lea    0x5af7(%rip),%rax        # e028 <g_58>
    8531:	8b 0c 01             	mov    (%rcx,%rax,1),%ecx
    8534:	48 8b 85 c0 f7 ff ff 	mov    -0x840(%rbp),%rax
    853b:	48 8d 35 3e 70 00 00 	lea    0x703e(%rip),%rsi        # f580 <g_587>
    8542:	48 89 30             	mov    %rsi,(%rax)
    8545:	48 8b 85 c0 f7 ff ff 	mov    -0x840(%rbp),%rax
    854c:	48 8b 00             	mov    (%rax),%rax
    854f:	48 8d 35 2a 70 00 00 	lea    0x702a(%rip),%rsi        # f580 <g_587>
    8556:	48 39 f0             	cmp    %rsi,%rax
    8559:	0f 95 c0             	setne  %al
    855c:	0f b6 f0             	movzbl %al,%esi
    855f:	0f be 85 a4 f6 ff ff 	movsbl -0x95c(%rbp),%eax
    8566:	39 c6                	cmp    %eax,%esi
    8568:	0f 9e c0             	setle  %al
    856b:	0f b6 c0             	movzbl %al,%eax
    856e:	39 c1                	cmp    %eax,%ecx
    8570:	0f 9d c0             	setge  %al
    8573:	0f b6 c0             	movzbl %al,%eax
    8576:	39 c2                	cmp    %eax,%edx
    8578:	0f 9e c0             	setle  %al
    857b:	0f b6 d0             	movzbl %al,%edx
    857e:	48 8b 85 98 f7 ff ff 	mov    -0x868(%rbp),%rax
    8585:	48 89 10             	mov    %rdx,(%rax)
    8588:	48 8b 05 91 6f 00 00 	mov    0x6f91(%rip),%rax        # f520 <g_511>
    858f:	48 8b 00             	mov    (%rax),%rax
    8592:	48 39 85 98 f7 ff ff 	cmp    %rax,-0x868(%rbp)
    8599:	0f 94 c0             	sete   %al
    859c:	0f b6 d0             	movzbl %al,%edx
    859f:	8b 85 08 fa ff ff    	mov    -0x5f8(%rbp),%eax
    85a5:	21 d0                	and    %edx,%eax
    85a7:	89 85 08 fa ff ff    	mov    %eax,-0x5f8(%rbp)
    85ad:	8b 85 c4 f6 ff ff    	mov    -0x93c(%rbp),%eax
    85b3:	83 c0 01             	add    $0x1,%eax
    85b6:	89 85 c4 f6 ff ff    	mov    %eax,-0x93c(%rbp)
    85bc:	8b 85 c4 f6 ff ff    	mov    -0x93c(%rbp),%eax
    85c2:	85 c0                	test   %eax,%eax
    85c4:	0f 84 e4 fd ff ff    	je     83ae <func_27+0x1833>
    85ca:	8b 05 74 5a 00 00    	mov    0x5a74(%rip),%eax        # e044 <g_102>
    85d0:	83 c0 01             	add    $0x1,%eax
    85d3:	89 05 6b 5a 00 00    	mov    %eax,0x5a6b(%rip)        # e044 <g_102>
    85d9:	8b 05 65 5a 00 00    	mov    0x5a65(%rip),%eax        # e044 <g_102>
    85df:	83 f8 01             	cmp    $0x1,%eax
    85e2:	0f 86 b3 fa ff ff    	jbe    809b <func_27+0x1520>
    85e8:	eb 01                	jmp    85eb <func_27+0x1a70>
    85ea:	90                   	nop
    85eb:	0f b6 85 a4 f6 ff ff 	movzbl -0x95c(%rbp),%eax
    85f2:	83 c0 01             	add    $0x1,%eax
    85f5:	88 85 a4 f6 ff ff    	mov    %al,-0x95c(%rbp)
    85fb:	80 bd a4 f6 ff ff 01 	cmpb   $0x1,-0x95c(%rbp)
    8602:	0f 8e 88 f2 ff ff    	jle    7890 <func_27+0xd15>
    8608:	0f b6 05 49 5a 00 00 	movzbl 0x5a49(%rip),%eax        # e058 <g_243>
    860f:	0f b6 d8             	movzbl %al,%ebx
    8612:	48 8b 05 87 66 00 00 	mov    0x6687(%rip),%rax        # eca0 <g_199>
    8619:	0f b7 00             	movzwl (%rax),%eax
    861c:	44 0f b7 e0          	movzwl %ax,%r12d
    8620:	48 8b 85 58 f8 ff ff 	mov    -0x7a8(%rbp),%rax
    8627:	48 8d 15 16 5a 00 00 	lea    0x5a16(%rip),%rdx        # e044 <g_102>
    862e:	48 39 d0             	cmp    %rdx,%rax
    8631:	0f 95 c0             	setne  %al
    8634:	0f b6 c0             	movzbl %al,%eax
    8637:	be 01 00 00 00       	mov    $0x1,%esi
    863c:	89 c7                	mov    %eax,%edi
    863e:	e8 c2 c5 ff ff       	callq  4c05 <safe_lshift_func_uint8_t_u_s>
    8643:	0f b6 d0             	movzbl %al,%edx
    8646:	48 8d 85 d0 f8 ff ff 	lea    -0x730(%rbp),%rax
    864d:	48 83 c0 18          	add    $0x18,%rax
    8651:	48 89 85 80 f7 ff ff 	mov    %rax,-0x880(%rbp)
    8658:	48 8b 85 a8 f6 ff ff 	mov    -0x958(%rbp),%rax
    865f:	0f b6 c0             	movzbl %al,%eax
    8662:	89 d6                	mov    %edx,%esi
    8664:	89 c7                	mov    %eax,%edi
    8666:	e8 22 c6 ff ff       	callq  4c8d <safe_rshift_func_uint8_t_u_s>
    866b:	48 8b 05 2e 66 00 00 	mov    0x662e(%rip),%rax        # eca0 <g_199>
    8672:	0f b7 00             	movzwl (%rax),%eax
    8675:	0f b7 d0             	movzwl %ax,%edx
    8678:	48 8d 05 f1 6e 00 00 	lea    0x6ef1(%rip),%rax        # f570 <g_560>
    867f:	48 8b 00             	mov    (%rax),%rax
    8682:	48 8b 00             	mov    (%rax),%rax
    8685:	48 8b 00             	mov    (%rax),%rax
    8688:	0f b7 00             	movzwl (%rax),%eax
    868b:	0f b7 c0             	movzwl %ax,%eax
    868e:	89 d6                	mov    %edx,%esi
    8690:	89 c7                	mov    %eax,%edi
    8692:	e8 e3 c7 ff ff       	callq  4e7a <safe_rshift_func_uint16_t_u_u>
    8697:	44 89 e6             	mov    %r12d,%esi
    869a:	bf 01 00 00 00       	mov    $0x1,%edi
    869f:	e8 b8 c6 ff ff       	callq  4d5c <safe_mod_func_uint16_t_u_u>
    86a4:	0f b7 d0             	movzwl %ax,%edx
    86a7:	0f be 85 a4 f6 ff ff 	movsbl -0x95c(%rbp),%eax
    86ae:	89 d6                	mov    %edx,%esi
    86b0:	89 c7                	mov    %eax,%edi
    86b2:	e8 19 c8 ff ff       	callq  4ed0 <safe_sub_func_uint32_t_u_u>
    86b7:	89 de                	mov    %ebx,%esi
    86b9:	89 c7                	mov    %eax,%edi
    86bb:	e8 65 c8 ff ff       	callq  4f25 <safe_div_func_uint32_t_u_u>
    86c0:	b9 01 00 00 00       	mov    $0x1,%ecx
    86c5:	48 8b 05 b4 65 00 00 	mov    0x65b4(%rip),%rax        # ec80 <g_60>
    86cc:	8b 10                	mov    (%rax),%edx
    86ce:	48 8b 05 ab 65 00 00 	mov    0x65ab(%rip),%rax        # ec80 <g_60>
    86d5:	09 ca                	or     %ecx,%edx
    86d7:	89 10                	mov    %edx,(%rax)
    86d9:	c7 85 d8 f6 ff ff 00 	movl   $0x0,-0x928(%rbp)
    86e0:	00 00 00 
    86e3:	e9 77 01 00 00       	jmpq   885f <func_27+0x1ce4>
    86e8:	c6 85 bb f6 ff ff 03 	movb   $0x3,-0x945(%rbp)
    86ef:	80 bd bb f6 ff ff ff 	cmpb   $0xff,-0x945(%rbp)
    86f6:	0f 95 c1             	setne  %cl
    86f9:	48 8b 05 88 6e 00 00 	mov    0x6e88(%rip),%rax        # f588 <g_639>
    8700:	48 8b 95 a8 f6 ff ff 	mov    -0x958(%rbp),%rdx
    8707:	88 10                	mov    %dl,(%rax)
    8709:	0f b6 00             	movzbl (%rax),%eax
    870c:	0f be d0             	movsbl %al,%edx
    870f:	80 bd a4 f6 ff ff 01 	cmpb   $0x1,-0x95c(%rbp)
    8716:	0f 95 c0             	setne  %al
    8719:	0f b6 c0             	movzbl %al,%eax
    871c:	39 c2                	cmp    %eax,%edx
    871e:	0f 9e c0             	setle  %al
    8721:	21 c8                	and    %ecx,%eax
    8723:	0f b6 c8             	movzbl %al,%ecx
    8726:	48 8b 05 53 65 00 00 	mov    0x6553(%rip),%rax        # ec80 <g_60>
    872d:	8b 10                	mov    (%rax),%edx
    872f:	48 8b 05 4a 65 00 00 	mov    0x654a(%rip),%rax        # ec80 <g_60>
    8736:	09 ca                	or     %ecx,%edx
    8738:	89 10                	mov    %edx,(%rax)
    873a:	c7 05 d4 5a 00 00 00 	movl   $0x0,0x5ad4(%rip)        # e218 <g_656>
    8741:	00 00 00 
    8744:	e9 01 01 00 00       	jmpq   884a <func_27+0x1ccf>
    8749:	c6 05 08 59 00 00 00 	movb   $0x0,0x5908(%rip)        # e058 <g_243>
    8750:	e9 d7 00 00 00       	jmpq   882c <func_27+0x1cb1>
    8755:	c7 85 20 f7 ff ff f8 	movl   $0xfffffff8,-0x8e0(%rbp)
    875c:	ff ff ff 
    875f:	c7 85 d4 f6 ff ff 00 	movl   $0x0,-0x92c(%rbp)
    8766:	00 00 00 
    8769:	eb 34                	jmp    879f <func_27+0x1c24>
    876b:	8b 05 a7 5a 00 00    	mov    0x5aa7(%rip),%eax        # e218 <g_656>
    8771:	89 c0                	mov    %eax,%eax
    8773:	48 8d 14 85 00 00 00 	lea    0x0(,%rax,4),%rdx
    877a:	00 
    877b:	48 8d 05 a6 58 00 00 	lea    0x58a6(%rip),%rax        # e028 <g_58>
    8782:	48 01 c2             	add    %rax,%rdx
    8785:	48 8b 85 80 f7 ff ff 	mov    -0x880(%rbp),%rax
    878c:	48 89 10             	mov    %rdx,(%rax)
    878f:	80 bd a4 f6 ff ff 00 	cmpb   $0x0,-0x95c(%rbp)
    8796:	75 12                	jne    87aa <func_27+0x1c2f>
    8798:	83 ad d4 f6 ff ff 01 	subl   $0x1,-0x92c(%rbp)
    879f:	83 bd d4 f6 ff ff 00 	cmpl   $0x0,-0x92c(%rbp)
    87a6:	79 c3                	jns    876b <func_27+0x1bf0>
    87a8:	eb 01                	jmp    87ab <func_27+0x1c30>
    87aa:	90                   	nop
    87ab:	48 8b 85 80 f7 ff ff 	mov    -0x880(%rbp),%rax
    87b2:	48 c7 00 00 00 00 00 	movq   $0x0,(%rax)
    87b9:	48 8b 05 d8 64 00 00 	mov    0x64d8(%rip),%rax        # ec98 <g_159>
    87c0:	48 c7 00 00 00 00 00 	movq   $0x0,(%rax)
    87c7:	8b 05 4b 5a 00 00    	mov    0x5a4b(%rip),%eax        # e218 <g_656>
    87cd:	89 c0                	mov    %eax,%eax
    87cf:	48 8d 14 85 00 00 00 	lea    0x0(,%rax,4),%rdx
    87d6:	00 
    87d7:	48 8d 05 4a 58 00 00 	lea    0x584a(%rip),%rax        # e028 <g_58>
    87de:	8b 04 02             	mov    (%rdx,%rax,1),%eax
    87e1:	8b 35 31 5a 00 00    	mov    0x5a31(%rip),%esi        # e218 <g_656>
    87e7:	25 72 24 ea 9d       	and    $0x9dea2472,%eax
    87ec:	89 c1                	mov    %eax,%ecx
    87ee:	89 f0                	mov    %esi,%eax
    87f0:	48 8d 14 85 00 00 00 	lea    0x0(,%rax,4),%rdx
    87f7:	00 
    87f8:	48 8d 05 29 58 00 00 	lea    0x5829(%rip),%rax        # e028 <g_58>
    87ff:	89 0c 02             	mov    %ecx,(%rdx,%rax,1)
    8802:	89 f0                	mov    %esi,%eax
    8804:	48 8d 14 85 00 00 00 	lea    0x0(,%rax,4),%rdx
    880b:	00 
    880c:	48 8d 05 15 58 00 00 	lea    0x5815(%rip),%rax        # e028 <g_58>
    8813:	8b 04 02             	mov    (%rdx,%rax,1),%eax
    8816:	31 85 20 f7 ff ff    	xor    %eax,-0x8e0(%rbp)
    881c:	0f b6 05 35 58 00 00 	movzbl 0x5835(%rip),%eax        # e058 <g_243>
    8823:	83 c0 01             	add    $0x1,%eax
    8826:	88 05 2c 58 00 00    	mov    %al,0x582c(%rip)        # e058 <g_243>
    882c:	0f b6 05 25 58 00 00 	movzbl 0x5825(%rip),%eax        # e058 <g_243>
    8833:	3c 01                	cmp    $0x1,%al
    8835:	0f 86 1a ff ff ff    	jbe    8755 <func_27+0x1bda>
    883b:	8b 05 d7 59 00 00    	mov    0x59d7(%rip),%eax        # e218 <g_656>
    8841:	83 c0 01             	add    $0x1,%eax
    8844:	89 05 ce 59 00 00    	mov    %eax,0x59ce(%rip)        # e218 <g_656>
    884a:	8b 05 c8 59 00 00    	mov    0x59c8(%rip),%eax        # e218 <g_656>
    8850:	85 c0                	test   %eax,%eax
    8852:	0f 84 f1 fe ff ff    	je     8749 <func_27+0x1bce>
    8858:	83 85 d8 f6 ff ff 01 	addl   $0x1,-0x928(%rbp)
    885f:	83 bd d8 f6 ff ff 01 	cmpl   $0x1,-0x928(%rbp)
    8866:	0f 8e 7c fe ff ff    	jle    86e8 <func_27+0x1b6d>
    886c:	48 8b 05 65 58 00 00 	mov    0x5865(%rip),%rax        # e0d8 <g_400>
    8873:	48 83 c0 01          	add    $0x1,%rax
    8877:	48 89 05 5a 58 00 00 	mov    %rax,0x585a(%rip)        # e0d8 <g_400>
    887e:	48 8b 05 53 58 00 00 	mov    0x5853(%rip),%rax        # e0d8 <g_400>
    8885:	48 83 f8 01          	cmp    $0x1,%rax
    8889:	0f 86 71 ec ff ff    	jbe    7500 <func_27+0x985>
    888f:	0f be 85 a4 f6 ff ff 	movsbl -0x95c(%rbp),%eax
    8896:	48 8b 5d c8          	mov    -0x38(%rbp),%rbx
    889a:	64 48 33 1c 25 28 00 	xor    %fs:0x28,%rbx
    88a1:	00 00 
    88a3:	74 05                	je     88aa <func_27+0x1d2f>
    88a5:	e8 c6 b7 ff ff       	callq  4070 <__stack_chk_fail@plt>
    88aa:	48 81 c4 38 09 00 00 	add    $0x938,%rsp
    88b1:	5b                   	pop    %rbx
    88b2:	41 5c                	pop    %r12
    88b4:	41 5d                	pop    %r13
    88b6:	41 5e                	pop    %r14
    88b8:	41 5f                	pop    %r15
    88ba:	5d                   	pop    %rbp
    88bb:	c3                   	retq   

00000000000088bc <func_39>:
    88bc:	f3 0f 1e fa          	endbr64 
    88c0:	55                   	push   %rbp
    88c1:	48 89 e5             	mov    %rsp,%rbp
    88c4:	53                   	push   %rbx
    88c5:	48 83 ec 30          	sub    $0x30,%rsp
    88c9:	89 7d d4             	mov    %edi,-0x2c(%rbp)
    88cc:	89 75 d0             	mov    %esi,-0x30(%rbp)
    88cf:	48 89 55 c8          	mov    %rdx,-0x38(%rbp)
    88d3:	48 8d 05 d6 63 00 00 	lea    0x63d6(%rip),%rax        # ecb0 <g_268>
    88da:	48 89 45 e8          	mov    %rax,-0x18(%rbp)
    88de:	48 8d 05 fb 57 00 00 	lea    0x57fb(%rip),%rax        # e0e0 <g_414>
    88e5:	48 89 45 f0          	mov    %rax,-0x10(%rbp)
    88e9:	c7 45 e4 28 46 3c 5a 	movl   $0x5a3c4628,-0x1c(%rbp)
    88f0:	48 83 7d e8 00       	cmpq   $0x0,-0x18(%rbp)
    88f5:	0f 95 c0             	setne  %al
    88f8:	0f b6 d8             	movzbl %al,%ebx
    88fb:	48 8b 05 a6 63 00 00 	mov    0x63a6(%rip),%rax        # eca8 <g_264>
    8902:	0f b6 00             	movzbl (%rax),%eax
    8905:	0f b6 c0             	movzbl %al,%eax
    8908:	be 07 00 00 00       	mov    $0x7,%esi
    890d:	89 c7                	mov    %eax,%edi
    890f:	e8 f1 c2 ff ff       	callq  4c05 <safe_lshift_func_uint8_t_u_s>
    8914:	48 8b 05 a5 57 00 00 	mov    0x57a5(%rip),%rax        # e0c0 <g_280+0x20>
    891b:	48 85 c0             	test   %rax,%rax
    891e:	0f 94 c0             	sete   %al
    8921:	0f b6 c0             	movzbl %al,%eax
    8924:	be ff ff 00 00       	mov    $0xffff,%esi
    8929:	89 c7                	mov    %eax,%edi
    892b:	e8 b1 bb ff ff       	callq  44e1 <safe_lshift_func_int16_t_s_u>
    8930:	98                   	cwtl   
    8931:	39 c3                	cmp    %eax,%ebx
    8933:	0f 94 c0             	sete   %al
    8936:	0f b6 d0             	movzbl %al,%edx
    8939:	48 8b 45 f0          	mov    -0x10(%rbp),%rax
    893d:	89 10                	mov    %edx,(%rax)
    893f:	48 8b 45 f0          	mov    -0x10(%rbp),%rax
    8943:	8b 00                	mov    (%rax),%eax
    8945:	89 c2                	mov    %eax,%edx
    8947:	8b 45 e4             	mov    -0x1c(%rbp),%eax
    894a:	21 d0                	and    %edx,%eax
    894c:	98                   	cwtl   
    894d:	be 0e 00 00 00       	mov    $0xe,%esi
    8952:	89 c7                	mov    %eax,%edi
    8954:	e8 d1 bb ff ff       	callq  452a <safe_rshift_func_int16_t_s_s>
    8959:	48 83 7d c8 00       	cmpq   $0x0,-0x38(%rbp)
    895e:	0f 95 c2             	setne  %dl
    8961:	48 8b 05 18 63 00 00 	mov    0x6318(%rip),%rax        # ec80 <g_60>
    8968:	0f b6 d2             	movzbl %dl,%edx
    896b:	89 10                	mov    %edx,(%rax)
    896d:	8b 45 d0             	mov    -0x30(%rbp),%eax
    8970:	48 83 c4 30          	add    $0x30,%rsp
    8974:	5b                   	pop    %rbx
    8975:	5d                   	pop    %rbp
    8976:	c3                   	retq   

0000000000008977 <func_47>:
    8977:	f3 0f 1e fa          	endbr64 
    897b:	55                   	push   %rbp
    897c:	48 89 e5             	mov    %rsp,%rbp
    897f:	53                   	push   %rbx
    8980:	48 81 ec e8 00 00 00 	sub    $0xe8,%rsp
    8987:	89 f0                	mov    %esi,%eax
    8989:	89 95 14 ff ff ff    	mov    %edx,-0xec(%rbp)
    898f:	89 8d 10 ff ff ff    	mov    %ecx,-0xf0(%rbp)
    8995:	89 fa                	mov    %edi,%edx
    8997:	66 89 95 1c ff ff ff 	mov    %dx,-0xe4(%rbp)
    899e:	66 89 85 18 ff ff ff 	mov    %ax,-0xe8(%rbp)
    89a5:	64 48 8b 04 25 28 00 	mov    %fs:0x28,%rax
    89ac:	00 00 
    89ae:	48 89 45 e8          	mov    %rax,-0x18(%rbp)
    89b2:	31 c0                	xor    %eax,%eax
    89b4:	48 c7 85 20 ff ff ff 	movq   $0x0,-0xe0(%rbp)
    89bb:	00 00 00 00 
    89bf:	48 8d 05 ba 62 00 00 	lea    0x62ba(%rip),%rax        # ec80 <g_60>
    89c6:	48 89 45 90          	mov    %rax,-0x70(%rbp)
    89ca:	48 8d 05 af 62 00 00 	lea    0x62af(%rip),%rax        # ec80 <g_60>
    89d1:	48 89 45 98          	mov    %rax,-0x68(%rbp)
    89d5:	48 8d 05 a4 62 00 00 	lea    0x62a4(%rip),%rax        # ec80 <g_60>
    89dc:	48 89 45 a0          	mov    %rax,-0x60(%rbp)
    89e0:	48 8d 05 99 62 00 00 	lea    0x6299(%rip),%rax        # ec80 <g_60>
    89e7:	48 89 45 a8          	mov    %rax,-0x58(%rbp)
    89eb:	48 8d 05 8e 62 00 00 	lea    0x628e(%rip),%rax        # ec80 <g_60>
    89f2:	48 89 45 b0          	mov    %rax,-0x50(%rbp)
    89f6:	48 8d 05 83 62 00 00 	lea    0x6283(%rip),%rax        # ec80 <g_60>
    89fd:	48 89 45 b8          	mov    %rax,-0x48(%rbp)
    8a01:	48 8d 05 78 62 00 00 	lea    0x6278(%rip),%rax        # ec80 <g_60>
    8a08:	48 89 45 c0          	mov    %rax,-0x40(%rbp)
    8a0c:	48 8d 05 6d 62 00 00 	lea    0x626d(%rip),%rax        # ec80 <g_60>
    8a13:	48 89 45 c8          	mov    %rax,-0x38(%rbp)
    8a17:	48 8d 05 62 62 00 00 	lea    0x6262(%rip),%rax        # ec80 <g_60>
    8a1e:	48 89 45 d0          	mov    %rax,-0x30(%rbp)
    8a22:	48 8d 05 57 62 00 00 	lea    0x6257(%rip),%rax        # ec80 <g_60>
    8a29:	48 89 45 d8          	mov    %rax,-0x28(%rbp)
    8a2d:	48 8d 05 a4 56 00 00 	lea    0x56a4(%rip),%rax        # e0d8 <g_400>
    8a34:	48 89 85 28 ff ff ff 	mov    %rax,-0xd8(%rbp)
    8a3b:	48 8d 05 06 56 00 00 	lea    0x5606(%rip),%rax        # e048 <g_153>
    8a42:	48 89 85 30 ff ff ff 	mov    %rax,-0xd0(%rbp)
    8a49:	c7 85 40 ff ff ff ff 	movl   $0xffcc5eff,-0xc0(%rbp)
    8a50:	5e cc ff 
    8a53:	66 c7 85 44 ff ff ff 	movw   $0x153,-0xbc(%rbp)
    8a5a:	53 01 
    8a5c:	c6 85 46 ff ff ff 00 	movb   $0x0,-0xba(%rbp)
    8a63:	c7 85 47 ff ff ff 01 	movl   $0xbf039b01,-0xb9(%rbp)
    8a6a:	9b 03 bf 
    8a6d:	66 c7 85 4b ff ff ff 	movw   $0x75,-0xb5(%rbp)
    8a74:	75 00 
    8a76:	c6 85 4d ff ff ff 75 	movb   $0x75,-0xb3(%rbp)
    8a7d:	c7 85 4e ff ff ff ff 	movl   $0xff0404ff,-0xb2(%rbp)
    8a84:	04 04 ff 
    8a87:	66 c7 85 52 ff ff ff 	movw   $0xbd,-0xae(%rbp)
    8a8e:	bd 00 
    8a90:	c6 85 54 ff ff ff 38 	movb   $0x38,-0xac(%rbp)
    8a97:	c7 85 55 ff ff ff ff 	movl   $0x175ff,-0xab(%rbp)
    8a9e:	75 01 00 
    8aa1:	66 c7 85 59 ff ff ff 	movw   $0x0,-0xa7(%rbp)
    8aa8:	00 00 
    8aaa:	c6 85 5b ff ff ff 53 	movb   $0x53,-0xa5(%rbp)
    8ab1:	c7 85 5c ff ff ff 38 	movl   $0x5e001f38,-0xa4(%rbp)
    8ab8:	1f 00 5e 
    8abb:	66 c7 85 60 ff ff ff 	movw   $0x1f00,-0xa0(%rbp)
    8ac2:	00 1f 
    8ac4:	c6 85 62 ff ff ff 38 	movb   $0x38,-0x9e(%rbp)
    8acb:	c7 85 63 ff ff ff 4f 	movl   $0x539bff4f,-0x9d(%rbp)
    8ad2:	ff 9b 53 
    8ad5:	66 c7 85 67 ff ff ff 	movw   $0xe4ff,-0x99(%rbp)
    8adc:	ff e4 
    8ade:	c6 85 69 ff ff ff 75 	movb   $0x75,-0x97(%rbp)
    8ae5:	c7 85 6a ff ff ff 15 	movl   $0xfac815,-0x96(%rbp)
    8aec:	c8 fa 00 
    8aef:	66 c7 85 6e ff ff ff 	movw   $0xffff,-0x92(%rbp)
    8af6:	ff ff 
    8af8:	c6 85 70 ff ff ff 00 	movb   $0x0,-0x90(%rbp)
    8aff:	c7 85 71 ff ff ff 9b 	movl   $0x3e9b2d9b,-0x8f(%rbp)
    8b06:	2d 9b 3e 
    8b09:	66 c7 85 75 ff ff ff 	movw   $0xf700,-0x8b(%rbp)
    8b10:	00 f7 
    8b12:	c6 85 77 ff ff ff e4 	movb   $0xe4,-0x89(%rbp)
    8b19:	c7 85 78 ff ff ff 1f 	movl   $0xc800091f,-0x88(%rbp)
    8b20:	09 00 c8 
    8b23:	66 c7 85 7c ff ff ff 	movw   $0xcc04,-0x84(%rbp)
    8b2a:	04 cc 
    8b2c:	c6 85 7e ff ff ff 15 	movb   $0x15,-0x82(%rbp)
    8b33:	c7 85 7f ff ff ff f7 	movl   $0x1014ff7,-0x81(%rbp)
    8b3a:	4f 01 01 
    8b3d:	66 c7 45 83 4f f7    	movw   $0xf74f,-0x7d(%rbp)
    8b43:	c6 45 85 fe          	movb   $0xfe,-0x7b(%rbp)
    8b47:	48 8d 05 ee 54 00 00 	lea    0x54ee(%rip),%rax        # e03c <g_62+0xc>
    8b4e:	48 89 85 38 ff ff ff 	mov    %rax,-0xc8(%rbp)
    8b55:	0f b7 05 e4 54 00 00 	movzwl 0x54e4(%rip),%eax        # e040 <g_100>
    8b5c:	0f b7 d8             	movzwl %ax,%ebx
    8b5f:	0f b7 95 1c ff ff ff 	movzwl -0xe4(%rbp),%edx
    8b66:	8b 85 14 ff ff ff    	mov    -0xec(%rbp),%eax
    8b6c:	39 c2                	cmp    %eax,%edx
    8b6e:	0f 96 c0             	setbe  %al
    8b71:	0f b6 c0             	movzbl %al,%eax
    8b74:	89 c7                	mov    %eax,%edi
    8b76:	e8 1b ba ff ff       	callq  4596 <safe_unary_minus_func_int32_t_s>
    8b7b:	48 8b 05 3e 55 00 00 	mov    0x553e(%rip),%rax        # e0c0 <g_280+0x20>
    8b82:	48 85 c0             	test   %rax,%rax
    8b85:	74 08                	je     8b8f <func_47+0x218>
    8b87:	8b 85 14 ff ff ff    	mov    -0xec(%rbp),%eax
    8b8d:	85 c0                	test   %eax,%eax
    8b8f:	8b 85 14 ff ff ff    	mov    -0xec(%rbp),%eax
    8b95:	85 c0                	test   %eax,%eax
    8b97:	75 53                	jne    8bec <func_47+0x275>
    8b99:	48 8b 55 b0          	mov    -0x50(%rbp),%rdx
    8b9d:	48 8b 45 b0          	mov    -0x50(%rbp),%rax
    8ba1:	48 89 05 88 61 00 00 	mov    %rax,0x6188(%rip)        # ed30 <g_396+0x70>
    8ba8:	48 8b 05 81 61 00 00 	mov    0x6181(%rip),%rax        # ed30 <g_396+0x70>
    8baf:	48 39 c2             	cmp    %rax,%rdx
    8bb2:	0f 95 c0             	setne  %al
    8bb5:	0f b6 d0             	movzbl %al,%edx
    8bb8:	48 8b 85 28 ff ff ff 	mov    -0xd8(%rbp),%rax
    8bbf:	48 89 10             	mov    %rdx,(%rax)
    8bc2:	48 8b 85 28 ff ff ff 	mov    -0xd8(%rbp),%rax
    8bc9:	48 8b 00             	mov    (%rax),%rax
    8bcc:	48 85 c0             	test   %rax,%rax
    8bcf:	74 08                	je     8bd9 <func_47+0x262>
    8bd1:	8b 85 14 ff ff ff    	mov    -0xec(%rbp),%eax
    8bd7:	85 c0                	test   %eax,%eax
    8bd9:	ba 01 00 00 00       	mov    $0x1,%edx
    8bde:	0f b7 05 5b 54 00 00 	movzwl 0x545b(%rip),%eax        # e040 <g_100>
    8be5:	0f b7 c0             	movzwl %ax,%eax
    8be8:	39 c2                	cmp    %eax,%edx
    8bea:	7c 07                	jl     8bf3 <func_47+0x27c>
    8bec:	ba 01 00 00 00       	mov    $0x1,%edx
    8bf1:	eb 05                	jmp    8bf8 <func_47+0x281>
    8bf3:	ba 00 00 00 00       	mov    $0x0,%edx
    8bf8:	0f bf 85 18 ff ff ff 	movswl -0xe8(%rbp),%eax
    8bff:	39 c2                	cmp    %eax,%edx
    8c01:	0f 9f c0             	setg   %al
    8c04:	0f b6 c0             	movzbl %al,%eax
    8c07:	23 85 10 ff ff ff    	and    -0xf0(%rbp),%eax
    8c0d:	48 98                	cltq   
    8c0f:	48 be 90 15 2f 47 af 	movabs $0x98bd19af472f1590,%rsi
    8c16:	19 bd 98 
    8c19:	48 89 c7             	mov    %rax,%rdi
    8c1c:	e8 20 bc ff ff       	callq  4841 <safe_add_func_int64_t_s_s>
    8c21:	be 04 00 00 00       	mov    $0x4,%esi
    8c26:	bf 6c 00 00 00       	mov    $0x6c,%edi
    8c2b:	e8 71 b6 ff ff       	callq  42a1 <safe_lshift_func_int8_t_s_s>
    8c30:	bf 00 00 00 00       	mov    $0x0,%edi
    8c35:	e8 63 b7 ff ff       	callq  439d <safe_unary_minus_func_int16_t_s>
    8c3a:	48 0f bf c0          	movswq %ax,%rax
    8c3e:	25 1f 2f 97 8c       	and    $0x8c972f1f,%eax
    8c43:	48 85 c0             	test   %rax,%rax
    8c46:	74 07                	je     8c4f <func_47+0x2d8>
    8c48:	ba 01 00 00 00       	mov    $0x1,%edx
    8c4d:	eb 05                	jmp    8c54 <func_47+0x2dd>
    8c4f:	ba 00 00 00 00       	mov    $0x0,%edx
    8c54:	8b 85 10 ff ff ff    	mov    -0xf0(%rbp),%eax
    8c5a:	89 c6                	mov    %eax,%esi
    8c5c:	89 d7                	mov    %edx,%edi
    8c5e:	e8 53 b9 ff ff       	callq  45b6 <safe_add_func_int32_t_s_s>
    8c63:	48 8b 85 30 ff ff ff 	mov    -0xd0(%rbp),%rax
    8c6a:	66 c7 00 9a eb       	movw   $0xeb9a,(%rax)
    8c6f:	be ff e1 77 42       	mov    $0x4277e1ff,%esi
    8c74:	bf 00 00 00 00       	mov    $0x0,%edi
    8c79:	e8 7f c2 ff ff       	callq  4efd <safe_mod_func_uint32_t_u_u>
    8c7e:	0f b6 55 84          	movzbl -0x7c(%rbp),%edx
    8c82:	0f b6 d2             	movzbl %dl,%edx
    8c85:	39 d0                	cmp    %edx,%eax
    8c87:	74 07                	je     8c90 <func_47+0x319>
    8c89:	b8 01 00 00 00       	mov    $0x1,%eax
    8c8e:	eb 05                	jmp    8c95 <func_47+0x31e>
    8c90:	b8 00 00 00 00       	mov    $0x0,%eax
    8c95:	89 c2                	mov    %eax,%edx
    8c97:	8b 85 14 ff ff ff    	mov    -0xec(%rbp),%eax
    8c9d:	39 c2                	cmp    %eax,%edx
    8c9f:	0f 94 c0             	sete   %al
    8ca2:	0f b6 c0             	movzbl %al,%eax
    8ca5:	39 85 10 ff ff ff    	cmp    %eax,-0xf0(%rbp)
    8cab:	0f 94 c0             	sete   %al
    8cae:	0f b6 c0             	movzbl %al,%eax
    8cb1:	48 89 de             	mov    %rbx,%rsi
    8cb4:	48 89 c7             	mov    %rax,%rdi
    8cb7:	e8 72 c3 ff ff       	callq  502e <safe_add_func_uint64_t_u_u>
    8cbc:	48 8b 85 38 ff ff ff 	mov    -0xc8(%rbp),%rax
    8cc3:	8b 00                	mov    (%rax),%eax
    8cc5:	48 8b 4d e8          	mov    -0x18(%rbp),%rcx
    8cc9:	64 48 33 0c 25 28 00 	xor    %fs:0x28,%rcx
    8cd0:	00 00 
    8cd2:	74 05                	je     8cd9 <func_47+0x362>
    8cd4:	e8 97 b3 ff ff       	callq  4070 <__stack_chk_fail@plt>
    8cd9:	48 81 c4 e8 00 00 00 	add    $0xe8,%rsp
    8ce0:	5b                   	pop    %rbx
    8ce1:	5d                   	pop    %rbp
    8ce2:	c3                   	retq   

0000000000008ce3 <func_55>:
    8ce3:	f3 0f 1e fa          	endbr64 
    8ce7:	55                   	push   %rbp
    8ce8:	48 89 e5             	mov    %rsp,%rbp
    8ceb:	41 57                	push   %r15
    8ced:	41 56                	push   %r14
    8cef:	41 55                	push   %r13
    8cf1:	41 54                	push   %r12
    8cf3:	53                   	push   %rbx
    8cf4:	48 81 ec d8 03 00 00 	sub    $0x3d8,%rsp
    8cfb:	89 f8                	mov    %edi,%eax
    8cfd:	88 85 0c fc ff ff    	mov    %al,-0x3f4(%rbp)
    8d03:	64 48 8b 04 25 28 00 	mov    %fs:0x28,%rax
    8d0a:	00 00 
    8d0c:	48 89 45 c8          	mov    %rax,-0x38(%rbp)
    8d10:	31 c0                	xor    %eax,%eax
    8d12:	48 8d 05 0f 53 00 00 	lea    0x530f(%rip),%rax        # e028 <g_58>
    8d19:	48 89 85 c0 fc ff ff 	mov    %rax,-0x340(%rbp)
    8d20:	c7 85 34 fc ff ff 04 	movl   $0x4,-0x3cc(%rbp)
    8d27:	00 00 00 
    8d2a:	c7 85 2c fc ff ff 02 	movl   $0x401cea02,-0x3d4(%rbp)
    8d31:	ea 1c 40 
    8d34:	c7 85 18 fc ff ff 40 	movl   $0xd3b3e240,-0x3e8(%rbp)
    8d3b:	e2 b3 d3 
    8d3e:	c7 85 30 fc ff ff 84 	movl   $0x315eac84,-0x3d0(%rbp)
    8d45:	ac 5e 31 
    8d48:	c7 85 20 fc ff ff 07 	movl   $0x7,-0x3e0(%rbp)
    8d4f:	00 00 00 
    8d52:	c7 85 70 fd ff ff 31 	movl   $0x2e4bcf31,-0x290(%rbp)
    8d59:	cf 4b 2e 
    8d5c:	c7 85 74 fd ff ff 5f 	movl   $0xc7e2165f,-0x28c(%rbp)
    8d63:	16 e2 c7 
    8d66:	c7 85 78 fd ff ff 19 	movl   $0xad0f0019,-0x288(%rbp)
    8d6d:	00 0f ad 
    8d70:	c7 85 7c fd ff ff 69 	movl   $0x66a39569,-0x284(%rbp)
    8d77:	95 a3 66 
    8d7a:	c7 85 80 fd ff ff 5f 	movl   $0xc7e2165f,-0x280(%rbp)
    8d81:	16 e2 c7 
    8d84:	c7 85 84 fd ff ff 69 	movl   $0x66a39569,-0x27c(%rbp)
    8d8b:	95 a3 66 
    8d8e:	c7 85 88 fd ff ff 31 	movl   $0x2e4bcf31,-0x278(%rbp)
    8d95:	cf 4b 2e 
    8d98:	c7 85 8c fd ff ff 01 	movl   $0x1,-0x274(%rbp)
    8d9f:	00 00 00 
    8da2:	c7 85 90 fd ff ff 31 	movl   $0x2e4bcf31,-0x270(%rbp)
    8da9:	cf 4b 2e 
    8dac:	c7 85 94 fd ff ff 69 	movl   $0x66a39569,-0x26c(%rbp)
    8db3:	95 a3 66 
    8db6:	c7 85 98 fd ff ff 01 	movl   $0x1,-0x268(%rbp)
    8dbd:	00 00 00 
    8dc0:	c7 85 9c fd ff ff 19 	movl   $0xad0f0019,-0x264(%rbp)
    8dc7:	00 0f ad 
    8dca:	c7 85 a0 fd ff ff 31 	movl   $0x2e4bcf31,-0x260(%rbp)
    8dd1:	cf 4b 2e 
    8dd4:	c7 85 a4 fd ff ff 01 	movl   $0x1,-0x25c(%rbp)
    8ddb:	00 00 00 
    8dde:	c7 85 a8 fd ff ff 69 	movl   $0x66a39569,-0x258(%rbp)
    8de5:	95 a3 66 
    8de8:	c7 85 ac fd ff ff 69 	movl   $0x66a39569,-0x254(%rbp)
    8def:	95 a3 66 
    8df2:	c7 85 b0 fd ff ff 01 	movl   $0x1,-0x250(%rbp)
    8df9:	00 00 00 
    8dfc:	c7 85 b4 fd ff ff 31 	movl   $0x2e4bcf31,-0x24c(%rbp)
    8e03:	cf 4b 2e 
    8e06:	c6 85 12 fc ff ff ff 	movb   $0xff,-0x3ee(%rbp)
    8e0d:	48 8d 05 34 52 00 00 	lea    0x5234(%rip),%rax        # e048 <g_153>
    8e14:	48 89 85 80 fc ff ff 	mov    %rax,-0x380(%rbp)
    8e1b:	48 8d 05 74 52 00 00 	lea    0x5274(%rip),%rax        # e096 <g_263>
    8e22:	48 89 85 88 fc ff ff 	mov    %rax,-0x378(%rbp)
    8e29:	48 c7 85 90 fc ff ff 	movq   $0x0,-0x370(%rbp)
    8e30:	00 00 00 00 
    8e34:	48 b8 04 e8 ca 3e 87 	movabs $0x81af97873ecae804,%rax
    8e3b:	97 af 81 
    8e3e:	48 89 85 98 fc ff ff 	mov    %rax,-0x368(%rbp)
    8e45:	c7 85 1c fc ff ff 00 	movl   $0x0,-0x3e4(%rbp)
    8e4c:	00 00 00 
    8e4f:	eb 1a                	jmp    8e6b <func_55+0x188>
    8e51:	8b 85 1c fc ff ff    	mov    -0x3e4(%rbp),%eax
    8e57:	48 98                	cltq   
    8e59:	c7 84 85 d4 fc ff ff 	movl   $0x1,-0x32c(%rbp,%rax,4)
    8e60:	01 00 00 00 
    8e64:	83 85 1c fc ff ff 01 	addl   $0x1,-0x3e4(%rbp)
    8e6b:	83 bd 1c fc ff ff 02 	cmpl   $0x2,-0x3e4(%rbp)
    8e72:	7e dd                	jle    8e51 <func_55+0x16e>
    8e74:	48 8b 05 0d 5e 00 00 	mov    0x5e0d(%rip),%rax        # ec88 <g_59>
    8e7b:	48 8b 95 c0 fc ff ff 	mov    -0x340(%rbp),%rdx
    8e82:	48 89 10             	mov    %rdx,(%rax)
    8e85:	c7 05 ad 51 00 00 00 	movl   $0x0,0x51ad(%rip)        # e03c <g_62+0xc>
    8e8c:	00 00 00 
    8e8f:	e9 7c 04 00 00       	jmpq   9310 <func_55+0x62d>
    8e94:	48 c7 85 a0 fc ff ff 	movq   $0x0,-0x360(%rbp)
    8e9b:	00 00 00 00 
    8e9f:	48 c7 85 38 fc ff ff 	movq   $0x0,-0x3c8(%rbp)
    8ea6:	00 00 00 00 
    8eaa:	8b 05 8c 51 00 00    	mov    0x518c(%rip),%eax        # e03c <g_62+0xc>
    8eb0:	48 98                	cltq   
    8eb2:	48 8d 14 85 00 00 00 	lea    0x0(,%rax,4),%rdx
    8eb9:	00 
    8eba:	48 8d 05 67 51 00 00 	lea    0x5167(%rip),%rax        # e028 <g_58>
    8ec1:	48 01 d0             	add    %rdx,%rax
    8ec4:	48 89 85 40 fc ff ff 	mov    %rax,-0x3c0(%rbp)
    8ecb:	48 8d 85 cc fc ff ff 	lea    -0x334(%rbp),%rax
    8ed2:	48 89 85 a8 fc ff ff 	mov    %rax,-0x358(%rbp)
    8ed9:	48 c7 85 b0 fc ff ff 	movq   $0x0,-0x350(%rbp)
    8ee0:	00 00 00 00 
    8ee4:	48 8d 05 3d 51 00 00 	lea    0x513d(%rip),%rax        # e028 <g_58>
    8eeb:	48 89 85 48 fc ff ff 	mov    %rax,-0x3b8(%rbp)
    8ef2:	48 8d 05 2f 51 00 00 	lea    0x512f(%rip),%rax        # e028 <g_58>
    8ef9:	48 89 85 b8 fc ff ff 	mov    %rax,-0x348(%rbp)
    8f00:	48 8d 85 cc fc ff ff 	lea    -0x334(%rbp),%rax
    8f07:	48 83 c0 04          	add    $0x4,%rax
    8f0b:	48 89 85 40 fd ff ff 	mov    %rax,-0x2c0(%rbp)
    8f12:	48 8d 85 18 fc ff ff 	lea    -0x3e8(%rbp),%rax
    8f19:	48 89 85 48 fd ff ff 	mov    %rax,-0x2b8(%rbp)
    8f20:	48 8d 85 cc fc ff ff 	lea    -0x334(%rbp),%rax
    8f27:	48 83 c0 04          	add    $0x4,%rax
    8f2b:	48 89 85 50 fd ff ff 	mov    %rax,-0x2b0(%rbp)
    8f32:	48 8d 85 cc fc ff ff 	lea    -0x334(%rbp),%rax
    8f39:	48 83 c0 04          	add    $0x4,%rax
    8f3d:	48 89 85 58 fd ff ff 	mov    %rax,-0x2a8(%rbp)
    8f44:	48 8d 85 cc fc ff ff 	lea    -0x334(%rbp),%rax
    8f4b:	48 83 c0 04          	add    $0x4,%rax
    8f4f:	48 89 85 60 fd ff ff 	mov    %rax,-0x2a0(%rbp)
    8f56:	48 8d 85 cc fc ff ff 	lea    -0x334(%rbp),%rax
    8f5d:	48 89 85 68 fd ff ff 	mov    %rax,-0x298(%rbp)
    8f64:	c7 45 c2 f9 f9 f9 f9 	movl   $0xf9f9f9f9,-0x3e(%rbp)
    8f6b:	66 c7 45 c6 f9 f9    	movw   $0xf9f9,-0x3a(%rbp)
    8f71:	48 8d 05 cc 50 00 00 	lea    0x50cc(%rip),%rax        # e044 <g_102>
    8f78:	48 89 85 70 fc ff ff 	mov    %rax,-0x390(%rbp)
    8f7f:	48 8d 85 c0 fd ff ff 	lea    -0x240(%rbp),%rax
    8f86:	48 8d 15 f3 5a 00 00 	lea    0x5af3(%rip),%rdx        # ea80 <g_1446+0x7d8>
    8f8d:	b9 3f 00 00 00       	mov    $0x3f,%ecx
    8f92:	48 89 c7             	mov    %rax,%rdi
    8f95:	48 89 d6             	mov    %rdx,%rsi
    8f98:	f3 48 a5             	rep movsq %ds:(%rsi),%es:(%rdi)
    8f9b:	c6 85 13 fc ff ff 92 	movb   $0x92,-0x3ed(%rbp)
    8fa2:	48 b8 c8 fa 12 08 5b 	movabs $0x24c1845b0812fac8,%rax
    8fa9:	84 c1 24 
    8fac:	48 89 85 78 fc ff ff 	mov    %rax,-0x388(%rbp)
    8fb3:	66 c7 85 16 fc ff ff 	movw   $0xffff,-0x3ea(%rbp)
    8fba:	ff ff 
    8fbc:	c7 85 24 fc ff ff 00 	movl   $0x0,-0x3dc(%rbp)
    8fc3:	00 00 00 
    8fc6:	eb 1a                	jmp    8fe2 <func_55+0x2ff>
    8fc8:	8b 85 24 fc ff ff    	mov    -0x3dc(%rbp),%eax
    8fce:	48 98                	cltq   
    8fd0:	c7 84 85 cc fc ff ff 	movl   $0x2c91076,-0x334(%rbp,%rax,4)
    8fd7:	76 10 c9 02 
    8fdb:	83 85 24 fc ff ff 01 	addl   $0x1,-0x3dc(%rbp)
    8fe2:	83 bd 24 fc ff ff 01 	cmpl   $0x1,-0x3dc(%rbp)
    8fe9:	7e dd                	jle    8fc8 <func_55+0x2e5>
    8feb:	c7 85 24 fc ff ff 00 	movl   $0x0,-0x3dc(%rbp)
    8ff2:	00 00 00 
    8ff5:	eb 1e                	jmp    9015 <func_55+0x332>
    8ff7:	8b 85 24 fc ff ff    	mov    -0x3dc(%rbp),%eax
    8ffd:	48 98                	cltq   
    8fff:	48 8d 15 3a 50 00 00 	lea    0x503a(%rip),%rdx        # e040 <g_100>
    9006:	48 89 94 c5 e0 fc ff 	mov    %rdx,-0x320(%rbp,%rax,8)
    900d:	ff 
    900e:	83 85 24 fc ff ff 01 	addl   $0x1,-0x3dc(%rbp)
    9015:	83 bd 24 fc ff ff 04 	cmpl   $0x4,-0x3dc(%rbp)
    901c:	7e d9                	jle    8ff7 <func_55+0x314>
    901e:	0f b6 45 c2          	movzbl -0x3e(%rbp),%eax
    9022:	83 e8 01             	sub    $0x1,%eax
    9025:	88 45 c2             	mov    %al,-0x3e(%rbp)
    9028:	0f b6 85 0c fc ff ff 	movzbl -0x3f4(%rbp),%eax
    902f:	44 0f b6 e8          	movzbl %al,%r13d
    9033:	0f b6 85 0c fc ff ff 	movzbl -0x3f4(%rbp),%eax
    903a:	44 0f b6 e0          	movzbl %al,%r12d
    903e:	0f b6 85 0c fc ff ff 	movzbl -0x3f4(%rbp),%eax
    9045:	0f b6 d8             	movzbl %al,%ebx
    9048:	8b 05 ee 4f 00 00    	mov    0x4fee(%rip),%eax        # e03c <g_62+0xc>
    904e:	48 98                	cltq   
    9050:	48 8d 14 85 00 00 00 	lea    0x0(,%rax,4),%rdx
    9057:	00 
    9058:	48 8d 05 c9 4f 00 00 	lea    0x4fc9(%rip),%rax        # e028 <g_58>
    905f:	44 8b 3c 02          	mov    (%rdx,%rax,1),%r15d
    9063:	0f b6 85 0c fc ff ff 	movzbl -0x3f4(%rbp),%eax
    906a:	44 0f b6 f0          	movzbl %al,%r14d
    906e:	0f b6 85 0c fc ff ff 	movzbl -0x3f4(%rbp),%eax
    9075:	0f b6 c0             	movzbl %al,%eax
    9078:	be 07 00 00 00       	mov    $0x7,%esi
    907d:	89 c7                	mov    %eax,%edi
    907f:	e8 c8 bb ff ff       	callq  4c4c <safe_lshift_func_uint8_t_u_u>
    9084:	0f b6 c0             	movzbl %al,%eax
    9087:	be 04 00 00 00       	mov    $0x4,%esi
    908c:	89 c7                	mov    %eax,%edi
    908e:	e8 72 bb ff ff       	callq  4c05 <safe_lshift_func_uint8_t_u_s>
    9093:	84 c0                	test   %al,%al
    9095:	75 28                	jne    90bf <func_55+0x3dc>
    9097:	0f b6 85 0c fc ff ff 	movzbl -0x3f4(%rbp),%eax
    909e:	0f b6 d0             	movzbl %al,%edx
    90a1:	48 8b 85 c0 fc ff ff 	mov    -0x340(%rbp),%rax
    90a8:	8b 00                	mov    (%rax),%eax
    90aa:	39 c2                	cmp    %eax,%edx
    90ac:	0f 95 c0             	setne  %al
    90af:	0f b6 d0             	movzbl %al,%edx
    90b2:	48 8b 85 c0 fc ff ff 	mov    -0x340(%rbp),%rax
    90b9:	8b 00                	mov    (%rax),%eax
    90bb:	39 c2                	cmp    %eax,%edx
    90bd:	74 07                	je     90c6 <func_55+0x3e3>
    90bf:	b8 01 00 00 00       	mov    $0x1,%eax
    90c4:	eb 05                	jmp    90cb <func_55+0x3e8>
    90c6:	b8 00 00 00 00       	mov    $0x0,%eax
    90cb:	89 c2                	mov    %eax,%edx
    90cd:	8b 85 90 fd ff ff    	mov    -0x270(%rbp),%eax
    90d3:	31 d0                	xor    %edx,%eax
    90d5:	44 89 f6             	mov    %r14d,%esi
    90d8:	89 c7                	mov    %eax,%edi
    90da:	e8 d7 b4 ff ff       	callq  45b6 <safe_add_func_int32_t_s_s>
    90df:	48 8b 95 c0 fc ff ff 	mov    -0x340(%rbp),%rdx
    90e6:	8b 12                	mov    (%rdx),%edx
    90e8:	21 d0                	and    %edx,%eax
    90ea:	85 c0                	test   %eax,%eax
    90ec:	0f 94 c0             	sete   %al
    90ef:	0f b6 c0             	movzbl %al,%eax
    90f2:	66 89 05 47 4f 00 00 	mov    %ax,0x4f47(%rip)        # e040 <g_100>
    90f9:	0f b7 05 40 4f 00 00 	movzwl 0x4f40(%rip),%eax        # e040 <g_100>
    9100:	0f b7 c0             	movzwl %ax,%eax
    9103:	44 89 fa             	mov    %r15d,%edx
    9106:	09 c2                	or     %eax,%edx
    9108:	48 8b 85 70 fc ff ff 	mov    -0x390(%rbp),%rax
    910f:	8b 00                	mov    (%rax),%eax
    9111:	09 c2                	or     %eax,%edx
    9113:	48 8b 85 70 fc ff ff 	mov    -0x390(%rbp),%rax
    911a:	89 10                	mov    %edx,(%rax)
    911c:	48 8b 85 70 fc ff ff 	mov    -0x390(%rbp),%rax
    9123:	8b 38                	mov    (%rax),%edi
    9125:	8b 05 11 4f 00 00    	mov    0x4f11(%rip),%eax        # e03c <g_62+0xc>
    912b:	48 98                	cltq   
    912d:	48 8d 14 85 00 00 00 	lea    0x0(,%rax,4),%rdx
    9134:	00 
    9135:	48 8d 05 ec 4e 00 00 	lea    0x4eec(%rip),%rax        # e028 <g_58>
    913c:	8b 04 02             	mov    (%rdx,%rax,1),%eax
    913f:	85 c0                	test   %eax,%eax
    9141:	0f 9e c0             	setle  %al
    9144:	0f b6 d0             	movzbl %al,%edx
    9147:	48 8b 05 3a 5b 00 00 	mov    0x5b3a(%rip),%rax        # ec88 <g_59>
    914e:	48 8b 00             	mov    (%rax),%rax
    9151:	48 8d 8d cc fc ff ff 	lea    -0x334(%rbp),%rcx
    9158:	48 8d b5 38 fc ff ff 	lea    -0x3c8(%rbp),%rsi
    915f:	41 89 f8             	mov    %edi,%r8d
    9162:	48 89 c7             	mov    %rax,%rdi
    9165:	e8 46 02 00 00       	callq  93b0 <func_86>
    916a:	4c 89 e9             	mov    %r13,%rcx
    916d:	4c 89 e2             	mov    %r12,%rdx
    9170:	89 de                	mov    %ebx,%esi
    9172:	48 89 c7             	mov    %rax,%rdi
    9175:	e8 d7 01 00 00       	callq  9351 <func_81>
    917a:	3c 19                	cmp    $0x19,%al
    917c:	74 24                	je     91a2 <func_55+0x4bf>
    917e:	c7 85 20 fc ff ff 00 	movl   $0x0,-0x3e0(%rbp)
    9185:	00 00 00 
    9188:	83 bd 20 fc ff ff 10 	cmpl   $0x10,-0x3e0(%rbp)
    918f:	0f 84 6f 01 00 00    	je     9304 <func_55+0x621>
    9195:	8b 05 8d 4e 00 00    	mov    0x4e8d(%rip),%eax        # e028 <g_58>
    919b:	48 98                	cltq   
    919d:	e9 89 01 00 00       	jmpq   932b <func_55+0x648>
    91a2:	48 8d 05 7f 4e 00 00 	lea    0x4e7f(%rip),%rax        # e028 <g_58>
    91a9:	48 89 85 50 fc ff ff 	mov    %rax,-0x3b0(%rbp)
    91b0:	48 8d 05 df 4e 00 00 	lea    0x4edf(%rip),%rax        # e096 <g_263>
    91b7:	48 89 85 58 fc ff ff 	mov    %rax,-0x3a8(%rbp)
    91be:	c7 85 28 fc ff ff 00 	movl   $0x0,-0x3d8(%rbp)
    91c5:	00 00 00 
    91c8:	c7 85 10 fd ff ff 4b 	movl   $0xd522f74b,-0x2f0(%rbp)
    91cf:	f7 22 d5 
    91d2:	c7 85 14 fd ff ff f7 	movl   $0xfffffff7,-0x2ec(%rbp)
    91d9:	ff ff ff 
    91dc:	c7 85 18 fd ff ff 4b 	movl   $0xd522f74b,-0x2e8(%rbp)
    91e3:	f7 22 d5 
    91e6:	c7 85 1c fd ff ff 6b 	movl   $0xa2a8a86b,-0x2e4(%rbp)
    91ed:	a8 a8 a2 
    91f0:	c7 85 20 fd ff ff 6b 	movl   $0xa2a8a86b,-0x2e0(%rbp)
    91f7:	a8 a8 a2 
    91fa:	c7 85 24 fd ff ff 4b 	movl   $0xd522f74b,-0x2dc(%rbp)
    9201:	f7 22 d5 
    9204:	c7 85 28 fd ff ff f7 	movl   $0xfffffff7,-0x2d8(%rbp)
    920b:	ff ff ff 
    920e:	c7 85 2c fd ff ff 4b 	movl   $0xd522f74b,-0x2d4(%rbp)
    9215:	f7 22 d5 
    9218:	c7 85 30 fd ff ff 6b 	movl   $0xa2a8a86b,-0x2d0(%rbp)
    921f:	a8 a8 a2 
    9222:	c7 85 34 fd ff ff 6b 	movl   $0xa2a8a86b,-0x2cc(%rbp)
    9229:	a8 a8 a2 
    922c:	48 b8 f9 46 3c 51 92 	movabs $0x40a3092513c46f9,%rax
    9233:	30 0a 04 
    9236:	48 89 85 60 fc ff ff 	mov    %rax,-0x3a0(%rbp)
    923d:	48 c7 85 68 fc ff ff 	movq   $0x9,-0x398(%rbp)
    9244:	09 00 00 00 
    9248:	48 8b 85 c0 fc ff ff 	mov    -0x340(%rbp),%rax
    924f:	8b 00                	mov    (%rax),%eax
    9251:	66 89 05 e8 4d 00 00 	mov    %ax,0x4de8(%rip)        # e040 <g_100>
    9258:	0f b7 05 e1 4d 00 00 	movzwl 0x4de1(%rip),%eax        # e040 <g_100>
    925f:	0f bf d0             	movswl %ax,%edx
    9262:	0f b6 85 0c fc ff ff 	movzbl -0x3f4(%rbp),%eax
    9269:	0f b6 c0             	movzbl %al,%eax
    926c:	89 d6                	mov    %edx,%esi
    926e:	89 c7                	mov    %eax,%edi
    9270:	e8 a1 b1 ff ff       	callq  4416 <safe_mod_func_int16_t_s_s>
    9275:	66 85 c0             	test   %ax,%ax
    9278:	75 1b                	jne    9295 <func_55+0x5b2>
    927a:	48 8b 85 40 fc ff ff 	mov    -0x3c0(%rbp),%rax
    9281:	8b 00                	mov    (%rax),%eax
    9283:	98                   	cwtl   
    9284:	be 0d 00 00 00       	mov    $0xd,%esi
    9289:	89 c7                	mov    %eax,%edi
    928b:	e8 02 b2 ff ff       	callq  4492 <safe_lshift_func_int16_t_s_s>
    9290:	66 85 c0             	test   %ax,%ax
    9293:	74 07                	je     929c <func_55+0x5b9>
    9295:	b8 01 00 00 00       	mov    $0x1,%eax
    929a:	eb 05                	jmp    92a1 <func_55+0x5be>
    929c:	b8 00 00 00 00       	mov    $0x0,%eax
    92a1:	0f b6 c0             	movzbl %al,%eax
    92a4:	89 c6                	mov    %eax,%esi
    92a6:	bf ff 00 00 00       	mov    $0xff,%edi
    92ab:	e8 aa b8 ff ff       	callq  4b5a <safe_add_func_uint8_t_u_u>
    92b0:	66 c7 85 14 fc ff ff 	movw   $0xad5,-0x3ec(%rbp)
    92b7:	d5 0a 
    92b9:	48 8b 05 d8 59 00 00 	mov    0x59d8(%rip),%rax        # ec98 <g_159>
    92c0:	48 8b 00             	mov    (%rax),%rax
    92c3:	8b 00                	mov    (%rax),%eax
    92c5:	85 c0                	test   %eax,%eax
    92c7:	75 57                	jne    9320 <func_55+0x63d>
    92c9:	48 8b 15 b8 59 00 00 	mov    0x59b8(%rip),%rdx        # ec88 <g_59>
    92d0:	48 8b 05 c1 59 00 00 	mov    0x59c1(%rip),%rax        # ec98 <g_159>
    92d7:	48 8b 12             	mov    (%rdx),%rdx
    92da:	48 89 10             	mov    %rdx,(%rax)
    92dd:	66 83 bd 14 fc ff ff 	cmpw   $0x0,-0x3ec(%rbp)
    92e4:	00 
    92e5:	74 11                	je     92f8 <func_55+0x615>
    92e7:	8b 05 4f 4d 00 00    	mov    0x4d4f(%rip),%eax        # e03c <g_62+0xc>
    92ed:	83 c0 01             	add    $0x1,%eax
    92f0:	89 05 46 4d 00 00    	mov    %eax,0x4d46(%rip)        # e03c <g_62+0xc>
    92f6:	eb 18                	jmp    9310 <func_55+0x62d>
    92f8:	0f b6 85 0c fc ff ff 	movzbl -0x3f4(%rbp),%eax
    92ff:	0f b6 c0             	movzbl %al,%eax
    9302:	eb 27                	jmp    932b <func_55+0x648>
    9304:	0f b6 05 60 4d 00 00 	movzbl 0x4d60(%rip),%eax        # e06b <g_246+0xb>
    930b:	0f b6 c0             	movzbl %al,%eax
    930e:	eb 1b                	jmp    932b <func_55+0x648>
    9310:	8b 05 26 4d 00 00    	mov    0x4d26(%rip),%eax        # e03c <g_62+0xc>
    9316:	85 c0                	test   %eax,%eax
    9318:	0f 8e 76 fb ff ff    	jle    8e94 <func_55+0x1b1>
    931e:	eb 01                	jmp    9321 <func_55+0x63e>
    9320:	90                   	nop
    9321:	0f b6 85 0c fc ff ff 	movzbl -0x3f4(%rbp),%eax
    9328:	0f b6 c0             	movzbl %al,%eax
    932b:	48 8b 5d c8          	mov    -0x38(%rbp),%rbx
    932f:	64 48 33 1c 25 28 00 	xor    %fs:0x28,%rbx
    9336:	00 00 
    9338:	74 05                	je     933f <func_55+0x65c>
    933a:	e8 31 ad ff ff       	callq  4070 <__stack_chk_fail@plt>
    933f:	48 81 c4 d8 03 00 00 	add    $0x3d8,%rsp
    9346:	5b                   	pop    %rbx
    9347:	41 5c                	pop    %r12
    9349:	41 5d                	pop    %r13
    934b:	41 5e                	pop    %r14
    934d:	41 5f                	pop    %r15
    934f:	5d                   	pop    %rbp
    9350:	c3                   	retq   

0000000000009351 <func_81>:
    9351:	f3 0f 1e fa          	endbr64 
    9355:	55                   	push   %rbp
    9356:	48 89 e5             	mov    %rsp,%rbp
    9359:	48 89 7d f8          	mov    %rdi,-0x8(%rbp)
    935d:	89 75 f4             	mov    %esi,-0xc(%rbp)
    9360:	48 89 55 e8          	mov    %rdx,-0x18(%rbp)
    9364:	48 89 4d e0          	mov    %rcx,-0x20(%rbp)
    9368:	48 8b 05 11 59 00 00 	mov    0x5911(%rip),%rax        # ec80 <g_60>
    936f:	8b 10                	mov    (%rax),%edx
    9371:	48 8b 05 08 59 00 00 	mov    0x5908(%rip),%rax        # ec80 <g_60>
    9378:	83 f2 04             	xor    $0x4,%edx
    937b:	89 10                	mov    %edx,(%rax)
    937d:	c7 45 f4 00 00 00 00 	movl   $0x0,-0xc(%rbp)
    9384:	eb 1f                	jmp    93a5 <func_81+0x54>
    9386:	8b 45 f4             	mov    -0xc(%rbp),%eax
    9389:	48 98                	cltq   
    938b:	48 8d 14 85 00 00 00 	lea    0x0(,%rax,4),%rdx
    9392:	00 
    9393:	48 8d 05 8e 4c 00 00 	lea    0x4c8e(%rip),%rax        # e028 <g_58>
    939a:	c7 04 02 ff ff ff ff 	movl   $0xffffffff,(%rdx,%rax,1)
    93a1:	83 45 f4 01          	addl   $0x1,-0xc(%rbp)
    93a5:	83 7d f4 00          	cmpl   $0x0,-0xc(%rbp)
    93a9:	7e db                	jle    9386 <func_81+0x35>
    93ab:	8b 45 f4             	mov    -0xc(%rbp),%eax
    93ae:	5d                   	pop    %rbp
    93af:	c3                   	retq   

00000000000093b0 <func_86>:
    93b0:	f3 0f 1e fa          	endbr64 
    93b4:	55                   	push   %rbp
    93b5:	48 89 e5             	mov    %rsp,%rbp
    93b8:	41 54                	push   %r12
    93ba:	53                   	push   %rbx
    93bb:	48 81 ec 50 03 00 00 	sub    $0x350,%rsp
    93c2:	48 89 bd b8 fc ff ff 	mov    %rdi,-0x348(%rbp)
    93c9:	48 89 b5 b0 fc ff ff 	mov    %rsi,-0x350(%rbp)
    93d0:	89 95 ac fc ff ff    	mov    %edx,-0x354(%rbp)
    93d6:	48 89 8d a0 fc ff ff 	mov    %rcx,-0x360(%rbp)
    93dd:	44 89 85 a8 fc ff ff 	mov    %r8d,-0x358(%rbp)
    93e4:	64 48 8b 04 25 28 00 	mov    %fs:0x28,%rax
    93eb:	00 00 
    93ed:	48 89 45 e8          	mov    %rax,-0x18(%rbp)
    93f1:	31 c0                	xor    %eax,%eax
    93f3:	66 c7 85 c6 fc ff ff 	movw   $0x7,-0x33a(%rbp)
    93fa:	07 00 
    93fc:	c7 85 c8 fc ff ff ff 	movl   $0xffffffff,-0x338(%rbp)
    9403:	ff ff ff 
    9406:	c7 85 90 fd ff ff 08 	movl   $0x8,-0x270(%rbp)
    940d:	00 00 00 
    9410:	c7 85 94 fd ff ff 62 	movl   $0x558e2862,-0x26c(%rbp)
    9417:	28 8e 55 
    941a:	c7 85 98 fd ff ff 08 	movl   $0x8,-0x268(%rbp)
    9421:	00 00 00 
    9424:	c7 85 9c fd ff ff 08 	movl   $0x8,-0x264(%rbp)
    942b:	00 00 00 
    942e:	c7 85 a0 fd ff ff 62 	movl   $0x558e2862,-0x260(%rbp)
    9435:	28 8e 55 
    9438:	c7 85 a4 fd ff ff 08 	movl   $0x8,-0x25c(%rbp)
    943f:	00 00 00 
    9442:	c7 85 a8 fd ff ff 08 	movl   $0x8,-0x258(%rbp)
    9449:	00 00 00 
    944c:	c7 85 ac fd ff ff 62 	movl   $0x558e2862,-0x254(%rbp)
    9453:	28 8e 55 
    9456:	c7 85 b0 fd ff ff 08 	movl   $0x8,-0x250(%rbp)
    945d:	00 00 00 
    9460:	c7 85 b4 fd ff ff 08 	movl   $0x8,-0x24c(%rbp)
    9467:	00 00 00 
    946a:	c7 85 b8 fd ff ff 62 	movl   $0x558e2862,-0x248(%rbp)
    9471:	28 8e 55 
    9474:	c7 85 bc fd ff ff 08 	movl   $0x8,-0x244(%rbp)
    947b:	00 00 00 
    947e:	c7 85 c0 fd ff ff 08 	movl   $0x8,-0x240(%rbp)
    9485:	00 00 00 
    9488:	c7 85 c4 fd ff ff 62 	movl   $0x558e2862,-0x23c(%rbp)
    948f:	28 8e 55 
    9492:	c7 85 c8 fd ff ff 08 	movl   $0x8,-0x238(%rbp)
    9499:	00 00 00 
    949c:	c7 85 cc fd ff ff 08 	movl   $0x8,-0x234(%rbp)
    94a3:	00 00 00 
    94a6:	c7 85 d0 fd ff ff 62 	movl   $0x558e2862,-0x230(%rbp)
    94ad:	28 8e 55 
    94b0:	c7 85 d4 fd ff ff 08 	movl   $0x8,-0x22c(%rbp)
    94b7:	00 00 00 
    94ba:	48 8d 95 60 fe ff ff 	lea    -0x1a0(%rbp),%rdx
    94c1:	b8 00 00 00 00       	mov    $0x0,%eax
    94c6:	b9 18 00 00 00       	mov    $0x18,%ecx
    94cb:	48 89 d7             	mov    %rdx,%rdi
    94ce:	f3 48 ab             	rep stos %rax,%es:(%rdi)
    94d1:	48 8d 05 b8 57 00 00 	lea    0x57b8(%rip),%rax        # ec90 <g_160>
    94d8:	48 89 85 60 fe ff ff 	mov    %rax,-0x1a0(%rbp)
    94df:	48 8d 05 aa 57 00 00 	lea    0x57aa(%rip),%rax        # ec90 <g_160>
    94e6:	48 89 85 b0 fe ff ff 	mov    %rax,-0x150(%rbp)
    94ed:	48 8d 05 9c 57 00 00 	lea    0x579c(%rip),%rax        # ec90 <g_160>
    94f4:	48 89 85 10 ff ff ff 	mov    %rax,-0xf0(%rbp)
    94fb:	c7 85 ac fc ff ff 12 	movl   $0x12,-0x354(%rbp)
    9502:	00 00 00 
    9505:	e9 42 07 00 00       	jmpq   9c4c <func_86+0x89c>
    950a:	c7 85 cc fc ff ff a7 	movl   $0xd6be2ea7,-0x334(%rbp)
    9511:	2e be d6 
    9514:	c7 85 d8 fc ff ff ec 	movl   $0xf0126cec,-0x328(%rbp)
    951b:	6c 12 f0 
    951e:	48 c7 85 f0 fc ff ff 	movq   $0x0,-0x310(%rbp)
    9525:	00 00 00 00 
    9529:	48 8d 05 f8 4a 00 00 	lea    0x4af8(%rip),%rax        # e028 <g_58>
    9530:	48 89 85 f8 fc ff ff 	mov    %rax,-0x308(%rbp)
    9537:	48 8d 85 c8 fc ff ff 	lea    -0x338(%rbp),%rax
    953e:	48 89 85 00 fd ff ff 	mov    %rax,-0x300(%rbp)
    9545:	48 8d 85 cc fc ff ff 	lea    -0x334(%rbp),%rax
    954c:	48 89 85 50 fd ff ff 	mov    %rax,-0x2b0(%rbp)
    9553:	48 8d 85 cc fc ff ff 	lea    -0x334(%rbp),%rax
    955a:	48 89 85 58 fd ff ff 	mov    %rax,-0x2a8(%rbp)
    9561:	48 8d 85 cc fc ff ff 	lea    -0x334(%rbp),%rax
    9568:	48 89 85 60 fd ff ff 	mov    %rax,-0x2a0(%rbp)
    956f:	48 8d 85 cc fc ff ff 	lea    -0x334(%rbp),%rax
    9576:	48 89 85 68 fd ff ff 	mov    %rax,-0x298(%rbp)
    957d:	48 8d 85 cc fc ff ff 	lea    -0x334(%rbp),%rax
    9584:	48 89 85 70 fd ff ff 	mov    %rax,-0x290(%rbp)
    958b:	48 8d 85 cc fc ff ff 	lea    -0x334(%rbp),%rax
    9592:	48 89 85 78 fd ff ff 	mov    %rax,-0x288(%rbp)
    9599:	48 8d 85 cc fc ff ff 	lea    -0x334(%rbp),%rax
    95a0:	48 89 85 80 fd ff ff 	mov    %rax,-0x280(%rbp)
    95a7:	48 8d 85 cc fc ff ff 	lea    -0x334(%rbp),%rax
    95ae:	48 89 85 88 fd ff ff 	mov    %rax,-0x278(%rbp)
    95b5:	48 b8 77 e7 5d c1 b5 	movabs $0xcb076eb5c15de777,%rax
    95bc:	6e 07 cb 
    95bf:	48 89 85 e0 fd ff ff 	mov    %rax,-0x220(%rbp)
    95c6:	48 89 85 e8 fd ff ff 	mov    %rax,-0x218(%rbp)
    95cd:	48 89 85 f0 fd ff ff 	mov    %rax,-0x210(%rbp)
    95d4:	48 89 85 f8 fd ff ff 	mov    %rax,-0x208(%rbp)
    95db:	48 89 85 00 fe ff ff 	mov    %rax,-0x200(%rbp)
    95e2:	48 bb 65 e5 48 9d 41 	movabs $0xc73bdd419d48e565,%rbx
    95e9:	dd 3b c7 
    95ec:	48 89 9d 08 fe ff ff 	mov    %rbx,-0x1f8(%rbp)
    95f3:	48 89 9d 10 fe ff ff 	mov    %rbx,-0x1f0(%rbp)
    95fa:	48 89 9d 18 fe ff ff 	mov    %rbx,-0x1e8(%rbp)
    9601:	48 89 9d 20 fe ff ff 	mov    %rbx,-0x1e0(%rbp)
    9608:	48 89 9d 28 fe ff ff 	mov    %rbx,-0x1d8(%rbp)
    960f:	48 89 85 30 fe ff ff 	mov    %rax,-0x1d0(%rbp)
    9616:	48 89 85 38 fe ff ff 	mov    %rax,-0x1c8(%rbp)
    961d:	48 89 85 40 fe ff ff 	mov    %rax,-0x1c0(%rbp)
    9624:	48 89 85 48 fe ff ff 	mov    %rax,-0x1b8(%rbp)
    962b:	48 89 85 50 fe ff ff 	mov    %rax,-0x1b0(%rbp)
    9632:	c6 85 c5 fc ff ff 80 	movb   $0x80,-0x33b(%rbp)
    9639:	66 c7 05 fe 49 00 00 	movw   $0x0,0x49fe(%rip)        # e040 <g_100>
    9640:	00 00 
    9642:	e9 85 05 00 00       	jmpq   9bcc <func_86+0x81c>
    9647:	c6 85 c4 fc ff ff bc 	movb   $0xbc,-0x33c(%rbp)
    964e:	c7 85 20 ff ff ff 2e 	movl   $0xd806202e,-0xe0(%rbp)
    9655:	20 06 d8 
    9658:	c7 85 24 ff ff ff 2e 	movl   $0xd806202e,-0xdc(%rbp)
    965f:	20 06 d8 
    9662:	c7 85 28 ff ff ff 09 	movl   $0x9,-0xd8(%rbp)
    9669:	00 00 00 
    966c:	c7 85 2c ff ff ff 76 	movl   $0x8818bc76,-0xd4(%rbp)
    9673:	bc 18 88 
    9676:	c7 85 30 ff ff ff 7f 	movl   $0x9c37587f,-0xd0(%rbp)
    967d:	58 37 9c 
    9680:	c7 85 34 ff ff ff 00 	movl   $0x0,-0xcc(%rbp)
    9687:	00 00 00 
    968a:	c7 85 38 ff ff ff 76 	movl   $0x8818bc76,-0xc8(%rbp)
    9691:	bc 18 88 
    9694:	c7 85 3c ff ff ff 2a 	movl   $0x40c11e2a,-0xc4(%rbp)
    969b:	1e c1 40 
    969e:	c7 85 40 ff ff ff 3b 	movl   $0xb44d923b,-0xc0(%rbp)
    96a5:	92 4d b4 
    96a8:	c7 85 44 ff ff ff 76 	movl   $0x8818bc76,-0xbc(%rbp)
    96af:	bc 18 88 
    96b2:	c7 85 48 ff ff ff 2e 	movl   $0xd806202e,-0xb8(%rbp)
    96b9:	20 06 d8 
    96bc:	c7 85 4c ff ff ff 09 	movl   $0x9,-0xb4(%rbp)
    96c3:	00 00 00 
    96c6:	c7 85 50 ff ff ff 2e 	movl   $0xd806202e,-0xb0(%rbp)
    96cd:	20 06 d8 
    96d0:	c7 85 54 ff ff ff 76 	movl   $0x8818bc76,-0xac(%rbp)
    96d7:	bc 18 88 
    96da:	c7 85 58 ff ff ff 3b 	movl   $0xb44d923b,-0xa8(%rbp)
    96e1:	92 4d b4 
    96e4:	c7 85 5c ff ff ff 2a 	movl   $0x40c11e2a,-0xa4(%rbp)
    96eb:	1e c1 40 
    96ee:	c7 85 60 ff ff ff 76 	movl   $0x8818bc76,-0xa0(%rbp)
    96f5:	bc 18 88 
    96f8:	c7 85 64 ff ff ff 00 	movl   $0x0,-0x9c(%rbp)
    96ff:	00 00 00 
    9702:	c7 85 68 ff ff ff 7f 	movl   $0x9c37587f,-0x98(%rbp)
    9709:	58 37 9c 
    970c:	c7 85 6c ff ff ff 76 	movl   $0x8818bc76,-0x94(%rbp)
    9713:	bc 18 88 
    9716:	c7 85 70 ff ff ff 09 	movl   $0x9,-0x90(%rbp)
    971d:	00 00 00 
    9720:	c7 85 74 ff ff ff 2e 	movl   $0xd806202e,-0x8c(%rbp)
    9727:	20 06 d8 
    972a:	c7 85 78 ff ff ff 2e 	movl   $0xd806202e,-0x88(%rbp)
    9731:	20 06 d8 
    9734:	c7 85 7c ff ff ff 2b 	movl   $0x8778202b,-0x84(%rbp)
    973b:	20 78 87 
    973e:	c7 45 80 7f 58 37 9c 	movl   $0x9c37587f,-0x80(%rbp)
    9745:	c7 45 84 2a 1e c1 40 	movl   $0x40c11e2a,-0x7c(%rbp)
    974c:	c7 45 88 2b 20 78 87 	movl   $0x8778202b,-0x78(%rbp)
    9753:	c7 45 8c 2a 1e c1 40 	movl   $0x40c11e2a,-0x74(%rbp)
    975a:	c7 45 90 7f 58 37 9c 	movl   $0x9c37587f,-0x70(%rbp)
    9761:	c7 45 94 2b 20 78 87 	movl   $0x8778202b,-0x6c(%rbp)
    9768:	c7 45 98 2e 20 06 d8 	movl   $0xd806202e,-0x68(%rbp)
    976f:	c7 45 9c 2e 20 06 d8 	movl   $0xd806202e,-0x64(%rbp)
    9776:	c7 45 a0 09 00 00 00 	movl   $0x9,-0x60(%rbp)
    977d:	c7 45 a4 76 bc 18 88 	movl   $0x8818bc76,-0x5c(%rbp)
    9784:	c7 45 a8 7f 58 37 9c 	movl   $0x9c37587f,-0x58(%rbp)
    978b:	c7 45 ac 00 00 00 00 	movl   $0x0,-0x54(%rbp)
    9792:	c7 45 b0 76 bc 18 88 	movl   $0x8818bc76,-0x50(%rbp)
    9799:	c7 45 b4 2a 1e c1 40 	movl   $0x40c11e2a,-0x4c(%rbp)
    97a0:	c7 45 b8 3b 92 4d b4 	movl   $0xb44d923b,-0x48(%rbp)
    97a7:	c7 45 bc 76 bc 18 88 	movl   $0x8818bc76,-0x44(%rbp)
    97ae:	c7 45 c0 2e 20 06 d8 	movl   $0xd806202e,-0x40(%rbp)
    97b5:	c7 45 c4 09 00 00 00 	movl   $0x9,-0x3c(%rbp)
    97bc:	c7 45 c8 2e 20 06 d8 	movl   $0xd806202e,-0x38(%rbp)
    97c3:	c7 45 cc 76 bc 18 88 	movl   $0x8818bc76,-0x34(%rbp)
    97ca:	c7 45 d0 3b 92 4d b4 	movl   $0xb44d923b,-0x30(%rbp)
    97d1:	c7 45 d4 2a 1e c1 40 	movl   $0x40c11e2a,-0x2c(%rbp)
    97d8:	c7 45 d8 76 bc 18 88 	movl   $0x8818bc76,-0x28(%rbp)
    97df:	c7 45 dc 00 00 00 00 	movl   $0x0,-0x24(%rbp)
    97e6:	c7 45 e0 7f 58 37 9c 	movl   $0x9c37587f,-0x20(%rbp)
    97ed:	c7 45 e4 76 bc 18 88 	movl   $0x8818bc76,-0x1c(%rbp)
    97f4:	8b 85 cc fc ff ff    	mov    -0x334(%rbp),%eax
    97fa:	3d cc db 00 00       	cmp    $0xdbcc,%eax
    97ff:	0f 9e c0             	setle  %al
    9802:	0f b6 c0             	movzbl %al,%eax
    9805:	be 08 00 00 00       	mov    $0x8,%esi
    980a:	89 c7                	mov    %eax,%edi
    980c:	e8 ad b5 ff ff       	callq  4dbe <safe_lshift_func_uint16_t_u_s>
    9811:	66 85 c0             	test   %ax,%ax
    9814:	0f 84 69 03 00 00    	je     9b83 <func_86+0x7d3>
    981a:	48 c7 85 08 fd ff ff 	movq   $0xfffffffffffffff8,-0x2f8(%rbp)
    9821:	f8 ff ff ff 
    9825:	c7 85 d0 fc ff ff 32 	movl   $0x3a33ba32,-0x330(%rbp)
    982c:	ba 33 3a 
    982f:	c7 85 a8 fc ff ff e5 	movl   $0xffffffe5,-0x358(%rbp)
    9836:	ff ff ff 
    9839:	e9 cb 02 00 00       	jmpq   9b09 <func_86+0x759>
    983e:	48 8d 05 e3 47 00 00 	lea    0x47e3(%rip),%rax        # e028 <g_58>
    9845:	48 89 85 e0 fc ff ff 	mov    %rax,-0x320(%rbp)
    984c:	48 8d 85 e0 fc ff ff 	lea    -0x320(%rbp),%rax
    9853:	48 89 85 10 fd ff ff 	mov    %rax,-0x2f0(%rbp)
    985a:	c7 85 dc fc ff ff 01 	movl   $0x1,-0x324(%rbp)
    9861:	00 00 00 
    9864:	48 8b 95 b8 fc ff ff 	mov    -0x348(%rbp),%rdx
    986b:	48 8b 05 0e 54 00 00 	mov    0x540e(%rip),%rax        # ec80 <g_60>
    9872:	8b 12                	mov    (%rdx),%edx
    9874:	89 10                	mov    %edx,(%rax)
    9876:	48 8b 05 0b 54 00 00 	mov    0x540b(%rip),%rax        # ec88 <g_59>
    987d:	48 8b 10             	mov    (%rax),%rdx
    9880:	48 8b 85 b8 fc ff ff 	mov    -0x348(%rbp),%rax
    9887:	8b 12                	mov    (%rdx),%edx
    9889:	89 10                	mov    %edx,(%rax)
    988b:	c7 05 af 47 00 00 00 	movl   $0x0,0x47af(%rip)        # e044 <g_102>
    9892:	00 00 00 
    9895:	e9 3b 02 00 00       	jmpq   9ad5 <func_86+0x725>
    989a:	48 8d 85 c4 fc ff ff 	lea    -0x33c(%rbp),%rax
    98a1:	48 89 85 18 fd ff ff 	mov    %rax,-0x2e8(%rbp)
    98a8:	c7 85 d4 fc ff ff 00 	movl   $0x0,-0x32c(%rbp)
    98af:	00 00 00 
    98b2:	eb 1e                	jmp    98d2 <func_86+0x522>
    98b4:	8b 85 d4 fc ff ff    	mov    -0x32c(%rbp),%eax
    98ba:	48 98                	cltq   
    98bc:	48 8d 15 85 47 00 00 	lea    0x4785(%rip),%rdx        # e048 <g_153>
    98c3:	48 89 94 c5 20 fd ff 	mov    %rdx,-0x2e0(%rbp,%rax,8)
    98ca:	ff 
    98cb:	83 85 d4 fc ff ff 01 	addl   $0x1,-0x32c(%rbp)
    98d2:	83 bd d4 fc ff ff 04 	cmpl   $0x4,-0x32c(%rbp)
    98d9:	7e d9                	jle    98b4 <func_86+0x504>
    98db:	0f b7 95 c6 fc ff ff 	movzwl -0x33a(%rbp),%edx
    98e2:	8b 05 5c 47 00 00    	mov    0x475c(%rip),%eax        # e044 <g_102>
    98e8:	89 c0                	mov    %eax,%eax
    98ea:	48 8d 0c 85 00 00 00 	lea    0x0(,%rax,4),%rcx
    98f1:	00 
    98f2:	48 8d 05 2f 47 00 00 	lea    0x472f(%rip),%rax        # e028 <g_58>
    98f9:	8b 04 01             	mov    (%rcx,%rax,1),%eax
    98fc:	0f b7 c0             	movzwl %ax,%eax
    98ff:	89 d6                	mov    %edx,%esi
    9901:	89 c7                	mov    %eax,%edi
    9903:	e8 f7 b3 ff ff       	callq  4cff <safe_add_func_uint16_t_u_u>
    9908:	8b 15 36 47 00 00    	mov    0x4736(%rip),%edx        # e044 <g_102>
    990e:	0f b7 c0             	movzwl %ax,%eax
    9911:	89 d2                	mov    %edx,%edx
    9913:	48 8d 0c 95 00 00 00 	lea    0x0(,%rdx,4),%rcx
    991a:	00 
    991b:	48 8d 15 06 47 00 00 	lea    0x4706(%rip),%rdx        # e028 <g_58>
    9922:	89 04 11             	mov    %eax,(%rcx,%rdx,1)
    9925:	8b 05 05 47 00 00    	mov    0x4705(%rip),%eax        # e030 <g_62>
    992b:	0f be d8             	movsbl %al,%ebx
    992e:	0f b6 95 c4 fc ff ff 	movzbl -0x33c(%rbp),%edx
    9935:	48 8b 85 18 fd ff ff 	mov    -0x2e8(%rbp),%rax
    993c:	88 10                	mov    %dl,(%rax)
    993e:	48 8b 85 18 fd ff ff 	mov    -0x2e8(%rbp),%rax
    9945:	0f b6 00             	movzbl (%rax),%eax
    9948:	48 0f be c0          	movsbq %al,%rax
    994c:	48 89 85 08 fd ff ff 	mov    %rax,-0x2f8(%rbp)
    9953:	48 8b 85 08 fd ff ff 	mov    -0x2f8(%rbp),%rax
    995a:	0f be c0             	movsbl %al,%eax
    995d:	8b 95 ac fc ff ff    	mov    -0x354(%rbp),%edx
    9963:	89 d6                	mov    %edx,%esi
    9965:	89 c7                	mov    %eax,%edi
    9967:	e8 82 a9 ff ff       	callq  42ee <safe_lshift_func_int8_t_s_u>
    996c:	8b 05 d2 46 00 00    	mov    0x46d2(%rip),%eax        # e044 <g_102>
    9972:	89 c2                	mov    %eax,%edx
    9974:	8b 85 d8 fc ff ff    	mov    -0x328(%rbp),%eax
    997a:	48 98                	cltq   
    997c:	48 89 d6             	mov    %rdx,%rsi
    997f:	48 89 c7             	mov    %rax,%rdi
    9982:	e8 70 b0 ff ff       	callq  49f7 <safe_div_func_int64_t_s_s>
    9987:	48 8b 05 fa 52 00 00 	mov    0x52fa(%rip),%rax        # ec88 <g_59>
    998e:	48 8b 00             	mov    (%rax),%rax
    9991:	48 85 c0             	test   %rax,%rax
    9994:	8b 05 aa 46 00 00    	mov    0x46aa(%rip),%eax        # e044 <g_102>
    999a:	89 c0                	mov    %eax,%eax
    999c:	48 8d 14 85 00 00 00 	lea    0x0(,%rax,4),%rdx
    99a3:	00 
    99a4:	48 8d 05 7d 46 00 00 	lea    0x467d(%rip),%rax        # e028 <g_58>
    99ab:	c7 04 02 fa ff ff ff 	movl   $0xfffffffa,(%rdx,%rax,1)
    99b2:	89 de                	mov    %ebx,%esi
    99b4:	bf 01 00 00 00       	mov    $0x1,%edi
    99b9:	e8 34 a8 ff ff       	callq  41f2 <safe_sub_func_int8_t_s_s>
    99be:	81 bd a8 fc ff ff fe 	cmpl   $0xfffe,-0x358(%rbp)
    99c5:	ff 00 00 
    99c8:	0f 96 c0             	setbe  %al
    99cb:	0f b6 c0             	movzbl %al,%eax
    99ce:	be 00 00 00 00       	mov    $0x0,%esi
    99d3:	89 c7                	mov    %eax,%edi
    99d5:	e8 38 a8 ff ff       	callq  4212 <safe_mul_func_int8_t_s_s>
    99da:	0f be c0             	movsbl %al,%eax
    99dd:	09 85 d0 fc ff ff    	or     %eax,-0x330(%rbp)
    99e3:	0f b6 85 c4 fc ff ff 	movzbl -0x33c(%rbp),%eax
    99ea:	0f be d8             	movsbl %al,%ebx
    99ed:	8b 85 ac fc ff ff    	mov    -0x354(%rbp),%eax
    99f3:	48 89 c7             	mov    %rax,%rdi
    99f6:	e8 1e b6 ff ff       	callq  5019 <safe_unary_minus_func_uint64_t_u>
    99fb:	83 bd d0 fc ff ff 00 	cmpl   $0x0,-0x330(%rbp)
    9a02:	0f 95 c0             	setne  %al
    9a05:	0f b6 c0             	movzbl %al,%eax
    9a08:	be 14 00 00 00       	mov    $0x14,%esi
    9a0d:	89 c7                	mov    %eax,%edi
    9a0f:	e8 9a b1 ff ff       	callq  4bae <safe_mod_func_uint8_t_u_u>
    9a14:	48 83 bd 10 fd ff ff 	cmpq   $0x0,-0x2f0(%rbp)
    9a1b:	00 
    9a1c:	0f 94 c0             	sete   %al
    9a1f:	44 0f b6 e0          	movzbl %al,%r12d
    9a23:	be 05 00 00 00       	mov    $0x5,%esi
    9a28:	bf ff 2d 00 00       	mov    $0x2dff,%edi
    9a2d:	e8 8c b3 ff ff       	callq  4dbe <safe_lshift_func_uint16_t_u_s>
    9a32:	0f b7 c0             	movzwl %ax,%eax
    9a35:	44 89 e6             	mov    %r12d,%esi
    9a38:	89 c7                	mov    %eax,%edi
    9a3a:	e8 c0 b2 ff ff       	callq  4cff <safe_add_func_uint16_t_u_u>
    9a3f:	0f b6 c0             	movzbl %al,%eax
    9a42:	be 00 00 00 00       	mov    $0x0,%esi
    9a47:	89 c7                	mov    %eax,%edi
    9a49:	e8 3f b2 ff ff       	callq  4c8d <safe_rshift_func_uint8_t_u_s>
    9a4e:	0f b6 c0             	movzbl %al,%eax
    9a51:	89 85 dc fc ff ff    	mov    %eax,-0x324(%rbp)
    9a57:	b8 00 00 00 00       	mov    $0x0,%eax
    9a5c:	0f b6 c0             	movzbl %al,%eax
    9a5f:	be 09 00 00 00       	mov    $0x9,%esi
    9a64:	89 c7                	mov    %eax,%edi
    9a66:	e8 43 b1 ff ff       	callq  4bae <safe_mod_func_uint8_t_u_u>
    9a6b:	0f b6 d0             	movzbl %al,%edx
    9a6e:	8b 05 b8 45 00 00    	mov    0x45b8(%rip),%eax        # e02c <g_61>
    9a74:	48 98                	cltq   
    9a76:	48 89 d6             	mov    %rdx,%rsi
    9a79:	48 89 c7             	mov    %rax,%rdi
    9a7c:	e8 2e b6 ff ff       	callq  50af <safe_div_func_uint64_t_u_u>
    9a81:	48 8b 85 b8 fc ff ff 	mov    -0x348(%rbp),%rax
    9a88:	8b 00                	mov    (%rax),%eax
    9a8a:	0f b6 c0             	movzbl %al,%eax
    9a8d:	be 00 00 00 00       	mov    $0x0,%esi
    9a92:	89 c7                	mov    %eax,%edi
    9a94:	e8 df b0 ff ff       	callq  4b78 <safe_sub_func_uint8_t_u_u>
    9a99:	0f b6 d0             	movzbl %al,%edx
    9a9c:	8b 85 cc fc ff ff    	mov    -0x334(%rbp),%eax
    9aa2:	31 d0                	xor    %edx,%eax
    9aa4:	89 85 28 ff ff ff    	mov    %eax,-0xd8(%rbp)
    9aaa:	8b 85 28 ff ff ff    	mov    -0xd8(%rbp),%eax
    9ab0:	98                   	cwtl   
    9ab1:	89 de                	mov    %ebx,%esi
    9ab3:	89 c7                	mov    %eax,%edi
    9ab5:	e8 9b a9 ff ff       	callq  4455 <safe_div_func_int16_t_s_s>
    9aba:	0f bf d0             	movswl %ax,%edx
    9abd:	48 8b 85 a0 fc ff ff 	mov    -0x360(%rbp),%rax
    9ac4:	89 10                	mov    %edx,(%rax)
    9ac6:	8b 05 78 45 00 00    	mov    0x4578(%rip),%eax        # e044 <g_102>
    9acc:	83 c0 01             	add    $0x1,%eax
    9acf:	89 05 6f 45 00 00    	mov    %eax,0x456f(%rip)        # e044 <g_102>
    9ad5:	8b 05 69 45 00 00    	mov    0x4569(%rip),%eax        # e044 <g_102>
    9adb:	85 c0                	test   %eax,%eax
    9add:	0f 84 b7 fd ff ff    	je     989a <func_86+0x4ea>
    9ae3:	48 8b 05 96 51 00 00 	mov    0x5196(%rip),%rax        # ec80 <g_60>
    9aea:	8b 00                	mov    (%rax),%eax
    9aec:	85 c0                	test   %eax,%eax
    9aee:	75 28                	jne    9b18 <func_86+0x768>
    9af0:	8b 85 a8 fc ff ff    	mov    -0x358(%rbp),%eax
    9af6:	be 08 00 00 00       	mov    $0x8,%esi
    9afb:	48 89 c7             	mov    %rax,%rdi
    9afe:	e8 2b b5 ff ff       	callq  502e <safe_add_func_uint64_t_u_u>
    9b03:	89 85 a8 fc ff ff    	mov    %eax,-0x358(%rbp)
    9b09:	83 bd a8 fc ff ff 33 	cmpl   $0x33,-0x358(%rbp)
    9b10:	0f 87 28 fd ff ff    	ja     983e <func_86+0x48e>
    9b16:	eb 01                	jmp    9b19 <func_86+0x769>
    9b18:	90                   	nop
    9b19:	c7 05 21 45 00 00 00 	movl   $0x0,0x4521(%rip)        # e044 <g_102>
    9b20:	00 00 00 
    9b23:	eb 39                	jmp    9b5e <func_86+0x7ae>
    9b25:	48 c7 85 08 fd ff ff 	movq   $0xffffffffffffffe8,-0x2f8(%rbp)
    9b2c:	e8 ff ff ff 
    9b30:	48 83 bd 08 fd ff ff 	cmpq   $0x20,-0x2f8(%rbp)
    9b37:	20 
    9b38:	77 0c                	ja     9b46 <func_86+0x796>
    9b3a:	48 8b 05 57 51 00 00 	mov    0x5157(%rip),%rax        # ec98 <g_159>
    9b41:	e9 57 01 00 00       	jmpq   9c9d <func_86+0x8ed>
    9b46:	8b 05 f8 44 00 00    	mov    0x44f8(%rip),%eax        # e044 <g_102>
    9b4c:	be 06 00 00 00       	mov    $0x6,%esi
    9b51:	89 c7                	mov    %eax,%edi
    9b53:	e8 5e aa ff ff       	callq  45b6 <safe_add_func_int32_t_s_s>
    9b58:	89 05 e6 44 00 00    	mov    %eax,0x44e6(%rip)        # e044 <g_102>
    9b5e:	8b 05 e0 44 00 00    	mov    0x44e0(%rip),%eax        # e044 <g_102>
    9b64:	83 f8 2d             	cmp    $0x2d,%eax
    9b67:	76 bc                	jbe    9b25 <func_86+0x775>
    9b69:	be 00 00 00 00       	mov    $0x0,%esi
    9b6e:	bf ff ff ff ff       	mov    $0xffffffff,%edi
    9b73:	e8 f4 a7 ff ff       	callq  436c <safe_rshift_func_int8_t_s_u>
    9b78:	0f be c0             	movsbl %al,%eax
    9b7b:	09 85 d0 fc ff ff    	or     %eax,-0x330(%rbp)
    9b81:	eb 2a                	jmp    9bad <func_86+0x7fd>
    9b83:	48 8b 85 b0 fc ff ff 	mov    -0x350(%rbp),%rax
    9b8a:	48 8d 95 20 ff ff ff 	lea    -0xe0(%rbp),%rdx
    9b91:	48 83 c2 54          	add    $0x54,%rdx
    9b95:	48 89 10             	mov    %rdx,(%rax)
    9b98:	48 8b 85 b0 fc ff ff 	mov    -0x350(%rbp),%rax
    9b9f:	48 8b 10             	mov    (%rax),%rdx
    9ba2:	48 8b 05 d7 50 00 00 	mov    0x50d7(%rip),%rax        # ec80 <g_60>
    9ba9:	8b 12                	mov    (%rdx),%edx
    9bab:	89 10                	mov    %edx,(%rax)
    9bad:	0f b7 05 8c 44 00 00 	movzwl 0x448c(%rip),%eax        # e040 <g_100>
    9bb4:	0f be c0             	movsbl %al,%eax
    9bb7:	be 01 00 00 00       	mov    $0x1,%esi
    9bbc:	89 c7                	mov    %eax,%edi
    9bbe:	e8 11 a6 ff ff       	callq  41d4 <safe_add_func_int8_t_s_s>
    9bc3:	66 98                	cbtw   
    9bc5:	66 89 05 74 44 00 00 	mov    %ax,0x4474(%rip)        # e040 <g_100>
    9bcc:	0f b7 05 6d 44 00 00 	movzwl 0x446d(%rip),%eax        # e040 <g_100>
    9bd3:	66 83 f8 18          	cmp    $0x18,%ax
    9bd7:	0f 86 6a fa ff ff    	jbe    9647 <func_86+0x297>
    9bdd:	80 85 c5 fc ff ff 01 	addb   $0x1,-0x33b(%rbp)
    9be4:	c7 85 c8 fc ff ff 04 	movl   $0x4,-0x338(%rbp)
    9beb:	00 00 00 
    9bee:	eb 4a                	jmp    9c3a <func_86+0x88a>
    9bf0:	48 8b 05 91 50 00 00 	mov    0x5091(%rip),%rax        # ec88 <g_59>
    9bf7:	48 8b 00             	mov    (%rax),%rax
    9bfa:	8b 08                	mov    (%rax),%ecx
    9bfc:	48 8b 95 a0 fc ff ff 	mov    -0x360(%rbp),%rdx
    9c03:	8b 12                	mov    (%rdx),%edx
    9c05:	09 ca                	or     %ecx,%edx
    9c07:	89 10                	mov    %edx,(%rax)
    9c09:	48 8b 85 a0 fc ff ff 	mov    -0x360(%rbp),%rax
    9c10:	8b 00                	mov    (%rax),%eax
    9c12:	35 ff e7 a4 88       	xor    $0x88a4e7ff,%eax
    9c17:	89 c2                	mov    %eax,%edx
    9c19:	48 8b 85 a0 fc ff ff 	mov    -0x360(%rbp),%rax
    9c20:	89 10                	mov    %edx,(%rax)
    9c22:	8b 85 c8 fc ff ff    	mov    -0x338(%rbp),%eax
    9c28:	be 08 00 00 00       	mov    $0x8,%esi
    9c2d:	89 c7                	mov    %eax,%edi
    9c2f:	e8 84 b2 ff ff       	callq  4eb8 <safe_add_func_uint32_t_u_u>
    9c34:	89 85 c8 fc ff ff    	mov    %eax,-0x338(%rbp)
    9c3a:	8b 85 c8 fc ff ff    	mov    -0x338(%rbp),%eax
    9c40:	83 f8 0f             	cmp    $0xf,%eax
    9c43:	7f ab                	jg     9bf0 <func_86+0x840>
    9c45:	83 85 ac fc ff ff 01 	addl   $0x1,-0x354(%rbp)
    9c4c:	83 bd ac fc ff ff 12 	cmpl   $0x12,-0x354(%rbp)
    9c53:	0f 87 b1 f8 ff ff    	ja     950a <func_86+0x15a>
    9c59:	c7 05 e1 43 00 00 00 	movl   $0x0,0x43e1(%rip)        # e044 <g_102>
    9c60:	00 00 00 
    9c63:	90                   	nop
    9c64:	8b 05 da 43 00 00    	mov    0x43da(%rip),%eax        # e044 <g_102>
    9c6a:	85 c0                	test   %eax,%eax
    9c6c:	75 17                	jne    9c85 <func_86+0x8d5>
    9c6e:	48 8d 05 1b 50 00 00 	lea    0x501b(%rip),%rax        # ec90 <g_160>
    9c75:	48 89 85 e8 fc ff ff 	mov    %rax,-0x318(%rbp)
    9c7c:	48 8b 85 e8 fc ff ff 	mov    -0x318(%rbp),%rax
    9c83:	eb 18                	jmp    9c9d <func_86+0x8ed>
    9c85:	0f b7 05 b4 43 00 00 	movzwl 0x43b4(%rip),%eax        # e040 <g_100>
    9c8c:	66 85 c0             	test   %ax,%ax
    9c8f:	74 05                	je     9c96 <func_86+0x8e6>
    9c91:	e9 65 f8 ff ff       	jmpq   94fb <func_86+0x14b>
    9c96:	48 8b 85 a0 fe ff ff 	mov    -0x160(%rbp),%rax
    9c9d:	48 8b 4d e8          	mov    -0x18(%rbp),%rcx
    9ca1:	64 48 33 0c 25 28 00 	xor    %fs:0x28,%rcx
    9ca8:	00 00 
    9caa:	74 05                	je     9cb1 <func_86+0x901>
    9cac:	e8 bf a3 ff ff       	callq  4070 <__stack_chk_fail@plt>
    9cb1:	48 81 c4 50 03 00 00 	add    $0x350,%rsp
    9cb8:	5b                   	pop    %rbx
    9cb9:	41 5c                	pop    %r12
    9cbb:	5d                   	pop    %rbp
    9cbc:	c3                   	retq   

0000000000009cbd <main>:
    9cbd:	f3 0f 1e fa          	endbr64 
    9cc1:	55                   	push   %rbp
    9cc2:	48 89 e5             	mov    %rsp,%rbp
    9cc5:	48 83 ec 20          	sub    $0x20,%rsp
    9cc9:	89 7d ec             	mov    %edi,-0x14(%rbp)
    9ccc:	48 89 75 e0          	mov    %rsi,-0x20(%rbp)
    9cd0:	c7 45 fc 00 00 00 00 	movl   $0x0,-0x4(%rbp)
    9cd7:	83 7d ec 02          	cmpl   $0x2,-0x14(%rbp)
    9cdb:	75 25                	jne    9d02 <main+0x45>
    9cdd:	48 8b 45 e0          	mov    -0x20(%rbp),%rax
    9ce1:	48 83 c0 08          	add    $0x8,%rax
    9ce5:	48 8b 00             	mov    (%rax),%rax
    9ce8:	48 8d 35 d9 1a 00 00 	lea    0x1ad9(%rip),%rsi        # b7c8 <g_291+0x774>
    9cef:	48 89 c7             	mov    %rax,%rdi
    9cf2:	e8 99 a3 ff ff       	callq  4090 <strcmp@plt>
    9cf7:	85 c0                	test   %eax,%eax
    9cf9:	75 07                	jne    9d02 <main+0x45>
    9cfb:	c7 45 fc 01 00 00 00 	movl   $0x1,-0x4(%rbp)
    9d02:	e8 82 a4 ff ff       	callq  4189 <platform_main_begin>
    9d07:	e8 8c b8 ff ff       	callq  5598 <crc32_gentab>
    9d0c:	e8 a4 ba ff ff       	callq  57b5 <func_1>
    9d11:	8b 05 0d 43 00 00    	mov    0x430d(%rip),%eax        # e024 <g_17>
    9d17:	89 c1                	mov    %eax,%ecx
    9d19:	8b 45 fc             	mov    -0x4(%rbp),%eax
    9d1c:	89 c2                	mov    %eax,%edx
    9d1e:	48 8d 35 a5 1a 00 00 	lea    0x1aa5(%rip),%rsi        # b7ca <g_291+0x776>
    9d25:	48 89 cf             	mov    %rcx,%rdi
    9d28:	e8 c6 b9 ff ff       	callq  56f3 <transparent_crc>
    9d2d:	c7 45 f0 00 00 00 00 	movl   $0x0,-0x10(%rbp)
    9d34:	eb 4b                	jmp    9d81 <main+0xc4>
    9d36:	8b 45 f0             	mov    -0x10(%rbp),%eax
    9d39:	48 98                	cltq   
    9d3b:	48 8d 14 85 00 00 00 	lea    0x0(,%rax,4),%rdx
    9d42:	00 
    9d43:	48 8d 05 de 42 00 00 	lea    0x42de(%rip),%rax        # e028 <g_58>
    9d4a:	8b 04 02             	mov    (%rdx,%rax,1),%eax
    9d4d:	48 98                	cltq   
    9d4f:	8b 55 fc             	mov    -0x4(%rbp),%edx
    9d52:	48 8d 35 76 1a 00 00 	lea    0x1a76(%rip),%rsi        # b7cf <g_291+0x77b>
    9d59:	48 89 c7             	mov    %rax,%rdi
    9d5c:	e8 92 b9 ff ff       	callq  56f3 <transparent_crc>
    9d61:	83 7d fc 00          	cmpl   $0x0,-0x4(%rbp)
    9d65:	74 16                	je     9d7d <main+0xc0>
    9d67:	8b 45 f0             	mov    -0x10(%rbp),%eax
    9d6a:	89 c6                	mov    %eax,%esi
    9d6c:	48 8d 3d 64 1a 00 00 	lea    0x1a64(%rip),%rdi        # b7d7 <g_291+0x783>
    9d73:	b8 00 00 00 00       	mov    $0x0,%eax
    9d78:	e8 03 a3 ff ff       	callq  4080 <printf@plt>
    9d7d:	83 45 f0 01          	addl   $0x1,-0x10(%rbp)
    9d81:	83 7d f0 00          	cmpl   $0x0,-0x10(%rbp)
    9d85:	7e af                	jle    9d36 <main+0x79>
    9d87:	8b 05 9f 42 00 00    	mov    0x429f(%rip),%eax        # e02c <g_61>
    9d8d:	48 98                	cltq   
    9d8f:	8b 55 fc             	mov    -0x4(%rbp),%edx
    9d92:	48 8d 35 4c 1a 00 00 	lea    0x1a4c(%rip),%rsi        # b7e5 <g_291+0x791>
    9d99:	48 89 c7             	mov    %rax,%rdi
    9d9c:	e8 52 b9 ff ff       	callq  56f3 <transparent_crc>
    9da1:	c7 45 f0 00 00 00 00 	movl   $0x0,-0x10(%rbp)
    9da8:	eb 4b                	jmp    9df5 <main+0x138>
    9daa:	8b 45 f0             	mov    -0x10(%rbp),%eax
    9dad:	48 98                	cltq   
    9daf:	48 8d 14 85 00 00 00 	lea    0x0(,%rax,4),%rdx
    9db6:	00 
    9db7:	48 8d 05 72 42 00 00 	lea    0x4272(%rip),%rax        # e030 <g_62>
    9dbe:	8b 04 02             	mov    (%rdx,%rax,1),%eax
    9dc1:	48 98                	cltq   
    9dc3:	8b 55 fc             	mov    -0x4(%rbp),%edx
    9dc6:	48 8d 35 1d 1a 00 00 	lea    0x1a1d(%rip),%rsi        # b7ea <g_291+0x796>
    9dcd:	48 89 c7             	mov    %rax,%rdi
    9dd0:	e8 1e b9 ff ff       	callq  56f3 <transparent_crc>
    9dd5:	83 7d fc 00          	cmpl   $0x0,-0x4(%rbp)
    9dd9:	74 16                	je     9df1 <main+0x134>
    9ddb:	8b 45 f0             	mov    -0x10(%rbp),%eax
    9dde:	89 c6                	mov    %eax,%esi
    9de0:	48 8d 3d f0 19 00 00 	lea    0x19f0(%rip),%rdi        # b7d7 <g_291+0x783>
    9de7:	b8 00 00 00 00       	mov    $0x0,%eax
    9dec:	e8 8f a2 ff ff       	callq  4080 <printf@plt>
    9df1:	83 45 f0 01          	addl   $0x1,-0x10(%rbp)
    9df5:	83 7d f0 03          	cmpl   $0x3,-0x10(%rbp)
    9df9:	7e af                	jle    9daa <main+0xed>
    9dfb:	0f b7 05 3e 42 00 00 	movzwl 0x423e(%rip),%eax        # e040 <g_100>
    9e02:	0f b7 c0             	movzwl %ax,%eax
    9e05:	8b 55 fc             	mov    -0x4(%rbp),%edx
    9e08:	48 8d 35 e3 19 00 00 	lea    0x19e3(%rip),%rsi        # b7f2 <g_291+0x79e>
    9e0f:	48 89 c7             	mov    %rax,%rdi
    9e12:	e8 dc b8 ff ff       	callq  56f3 <transparent_crc>
    9e17:	8b 05 27 42 00 00    	mov    0x4227(%rip),%eax        # e044 <g_102>
    9e1d:	89 c1                	mov    %eax,%ecx
    9e1f:	8b 45 fc             	mov    -0x4(%rbp),%eax
    9e22:	89 c2                	mov    %eax,%edx
    9e24:	48 8d 35 cd 19 00 00 	lea    0x19cd(%rip),%rsi        # b7f8 <g_291+0x7a4>
    9e2b:	48 89 cf             	mov    %rcx,%rdi
    9e2e:	e8 c0 b8 ff ff       	callq  56f3 <transparent_crc>
    9e33:	0f b7 05 0e 42 00 00 	movzwl 0x420e(%rip),%eax        # e048 <g_153>
    9e3a:	48 0f bf c0          	movswq %ax,%rax
    9e3e:	8b 55 fc             	mov    -0x4(%rbp),%edx
    9e41:	48 8d 35 b6 19 00 00 	lea    0x19b6(%rip),%rsi        # b7fe <g_291+0x7aa>
    9e48:	48 89 c7             	mov    %rax,%rdi
    9e4b:	e8 a3 b8 ff ff       	callq  56f3 <transparent_crc>
    9e50:	48 8b 05 f9 41 00 00 	mov    0x41f9(%rip),%rax        # e050 <g_170>
    9e57:	48 89 c1             	mov    %rax,%rcx
    9e5a:	8b 45 fc             	mov    -0x4(%rbp),%eax
    9e5d:	89 c2                	mov    %eax,%edx
    9e5f:	48 8d 35 9e 19 00 00 	lea    0x199e(%rip),%rsi        # b804 <g_291+0x7b0>
    9e66:	48 89 cf             	mov    %rcx,%rdi
    9e69:	e8 85 b8 ff ff       	callq  56f3 <transparent_crc>
    9e6e:	0f b6 05 e3 41 00 00 	movzbl 0x41e3(%rip),%eax        # e058 <g_243>
    9e75:	0f b6 c0             	movzbl %al,%eax
    9e78:	8b 55 fc             	mov    -0x4(%rbp),%edx
    9e7b:	48 8d 35 88 19 00 00 	lea    0x1988(%rip),%rsi        # b80a <g_291+0x7b6>
    9e82:	48 89 c7             	mov    %rax,%rdi
    9e85:	e8 69 b8 ff ff       	callq  56f3 <transparent_crc>
    9e8a:	c7 45 f0 00 00 00 00 	movl   $0x0,-0x10(%rbp)
    9e91:	e9 b0 00 00 00       	jmpq   9f46 <main+0x289>
    9e96:	c7 45 f4 00 00 00 00 	movl   $0x0,-0xc(%rbp)
    9e9d:	e9 96 00 00 00       	jmpq   9f38 <main+0x27b>
    9ea2:	c7 45 f8 00 00 00 00 	movl   $0x0,-0x8(%rbp)
    9ea9:	eb 7f                	jmp    9f2a <main+0x26d>
    9eab:	8b 45 f8             	mov    -0x8(%rbp),%eax
    9eae:	48 63 f0             	movslq %eax,%rsi
    9eb1:	8b 45 f0             	mov    -0x10(%rbp),%eax
    9eb4:	48 63 d0             	movslq %eax,%rdx
    9eb7:	8b 45 f4             	mov    -0xc(%rbp),%eax
    9eba:	48 63 c8             	movslq %eax,%rcx
    9ebd:	48 89 d0             	mov    %rdx,%rax
    9ec0:	48 01 c0             	add    %rax,%rax
    9ec3:	48 01 d0             	add    %rdx,%rax
    9ec6:	48 8d 14 c5 00 00 00 	lea    0x0(,%rax,8),%rdx
    9ecd:	00 
    9ece:	48 01 d0             	add    %rdx,%rax
    9ed1:	48 89 ca             	mov    %rcx,%rdx
    9ed4:	48 c1 e2 03          	shl    $0x3,%rdx
    9ed8:	48 01 ca             	add    %rcx,%rdx
    9edb:	48 01 d0             	add    %rdx,%rax
    9ede:	48 8d 14 30          	lea    (%rax,%rsi,1),%rdx
    9ee2:	48 8d 05 77 41 00 00 	lea    0x4177(%rip),%rax        # e060 <g_246>
    9ee9:	48 01 d0             	add    %rdx,%rax
    9eec:	0f b6 00             	movzbl (%rax),%eax
    9eef:	0f b6 c0             	movzbl %al,%eax
    9ef2:	8b 55 fc             	mov    -0x4(%rbp),%edx
    9ef5:	48 8d 35 14 19 00 00 	lea    0x1914(%rip),%rsi        # b810 <g_291+0x7bc>
    9efc:	48 89 c7             	mov    %rax,%rdi
    9eff:	e8 ef b7 ff ff       	callq  56f3 <transparent_crc>
    9f04:	83 7d fc 00          	cmpl   $0x0,-0x4(%rbp)
    9f08:	74 1c                	je     9f26 <main+0x269>
    9f0a:	8b 4d f8             	mov    -0x8(%rbp),%ecx
    9f0d:	8b 55 f4             	mov    -0xc(%rbp),%edx
    9f10:	8b 45 f0             	mov    -0x10(%rbp),%eax
    9f13:	89 c6                	mov    %eax,%esi
    9f15:	48 8d 3d 03 19 00 00 	lea    0x1903(%rip),%rdi        # b81f <g_291+0x7cb>
    9f1c:	b8 00 00 00 00       	mov    $0x0,%eax
    9f21:	e8 5a a1 ff ff       	callq  4080 <printf@plt>
    9f26:	83 45 f8 01          	addl   $0x1,-0x8(%rbp)
    9f2a:	83 7d f8 08          	cmpl   $0x8,-0x8(%rbp)
    9f2e:	0f 8e 77 ff ff ff    	jle    9eab <main+0x1ee>
    9f34:	83 45 f4 01          	addl   $0x1,-0xc(%rbp)
    9f38:	83 7d f4 02          	cmpl   $0x2,-0xc(%rbp)
    9f3c:	0f 8e 60 ff ff ff    	jle    9ea2 <main+0x1e5>
    9f42:	83 45 f0 01          	addl   $0x1,-0x10(%rbp)
    9f46:	83 7d f0 01          	cmpl   $0x1,-0x10(%rbp)
    9f4a:	0f 8e 46 ff ff ff    	jle    9e96 <main+0x1d9>
    9f50:	0f b6 05 3f 41 00 00 	movzbl 0x413f(%rip),%eax        # e096 <g_263>
    9f57:	0f b6 c0             	movzbl %al,%eax
    9f5a:	8b 55 fc             	mov    -0x4(%rbp),%edx
    9f5d:	48 8d 35 d1 18 00 00 	lea    0x18d1(%rip),%rsi        # b835 <g_291+0x7e1>
    9f64:	48 89 c7             	mov    %rax,%rdi
    9f67:	e8 87 b7 ff ff       	callq  56f3 <transparent_crc>
    9f6c:	c7 45 f0 00 00 00 00 	movl   $0x0,-0x10(%rbp)
    9f73:	eb 78                	jmp    9fed <main+0x330>
    9f75:	c7 45 f4 00 00 00 00 	movl   $0x0,-0xc(%rbp)
    9f7c:	eb 65                	jmp    9fe3 <main+0x326>
    9f7e:	8b 45 f4             	mov    -0xc(%rbp),%eax
    9f81:	48 63 c8             	movslq %eax,%rcx
    9f84:	8b 45 f0             	mov    -0x10(%rbp),%eax
    9f87:	48 63 d0             	movslq %eax,%rdx
    9f8a:	48 89 d0             	mov    %rdx,%rax
    9f8d:	48 01 c0             	add    %rax,%rax
    9f90:	48 01 d0             	add    %rdx,%rax
    9f93:	48 01 c8             	add    %rcx,%rax
    9f96:	48 8d 14 c5 00 00 00 	lea    0x0(,%rax,8),%rdx
    9f9d:	00 
    9f9e:	48 8d 05 fb 40 00 00 	lea    0x40fb(%rip),%rax        # e0a0 <g_280>
    9fa5:	48 8b 04 02          	mov    (%rdx,%rax,1),%rax
    9fa9:	48 89 c1             	mov    %rax,%rcx
    9fac:	8b 45 fc             	mov    -0x4(%rbp),%eax
    9faf:	89 c2                	mov    %eax,%edx
    9fb1:	48 8d 35 83 18 00 00 	lea    0x1883(%rip),%rsi        # b83b <g_291+0x7e7>
    9fb8:	48 89 cf             	mov    %rcx,%rdi
    9fbb:	e8 33 b7 ff ff       	callq  56f3 <transparent_crc>
    9fc0:	83 7d fc 00          	cmpl   $0x0,-0x4(%rbp)
    9fc4:	74 19                	je     9fdf <main+0x322>
    9fc6:	8b 55 f4             	mov    -0xc(%rbp),%edx
    9fc9:	8b 45 f0             	mov    -0x10(%rbp),%eax
    9fcc:	89 c6                	mov    %eax,%esi
    9fce:	48 8d 3d 72 18 00 00 	lea    0x1872(%rip),%rdi        # b847 <g_291+0x7f3>
    9fd5:	b8 00 00 00 00       	mov    $0x0,%eax
    9fda:	e8 a1 a0 ff ff       	callq  4080 <printf@plt>
    9fdf:	83 45 f4 01          	addl   $0x1,-0xc(%rbp)
    9fe3:	83 7d f4 02          	cmpl   $0x2,-0xc(%rbp)
    9fe7:	7e 95                	jle    9f7e <main+0x2c1>
    9fe9:	83 45 f0 01          	addl   $0x1,-0x10(%rbp)
    9fed:	83 7d f0 01          	cmpl   $0x1,-0x10(%rbp)
    9ff1:	7e 82                	jle    9f75 <main+0x2b8>
    9ff3:	b8 6c 1c 00 00       	mov    $0x1c6c,%eax
    9ff8:	48 0f bf c0          	movswq %ax,%rax
    9ffc:	8b 55 fc             	mov    -0x4(%rbp),%edx
    9fff:	48 8d 35 53 18 00 00 	lea    0x1853(%rip),%rsi        # b859 <g_291+0x805>
    a006:	48 89 c7             	mov    %rax,%rdi
    a009:	e8 e5 b6 ff ff       	callq  56f3 <transparent_crc>
    a00e:	48 8b 05 bb 40 00 00 	mov    0x40bb(%rip),%rax        # e0d0 <g_316>
    a015:	48 89 c1             	mov    %rax,%rcx
    a018:	8b 45 fc             	mov    -0x4(%rbp),%eax
    a01b:	89 c2                	mov    %eax,%edx
    a01d:	48 8d 35 3b 18 00 00 	lea    0x183b(%rip),%rsi        # b85f <g_291+0x80b>
    a024:	48 89 cf             	mov    %rcx,%rdi
    a027:	e8 c7 b6 ff ff       	callq  56f3 <transparent_crc>
    a02c:	c7 45 f0 00 00 00 00 	movl   $0x0,-0x10(%rbp)
    a033:	eb 4b                	jmp    a080 <main+0x3c3>
    a035:	8b 45 f0             	mov    -0x10(%rbp),%eax
    a038:	48 98                	cltq   
    a03a:	48 8d 14 85 00 00 00 	lea    0x0(,%rax,4),%rdx
    a041:	00 
    a042:	48 8d 05 5f 5b 00 00 	lea    0x5b5f(%rip),%rax        # fba8 <g_398>
    a049:	8b 04 02             	mov    (%rdx,%rax,1),%eax
    a04c:	48 98                	cltq   
    a04e:	8b 55 fc             	mov    -0x4(%rbp),%edx
    a051:	48 8d 35 0d 18 00 00 	lea    0x180d(%rip),%rsi        # b865 <g_291+0x811>
    a058:	48 89 c7             	mov    %rax,%rdi
    a05b:	e8 93 b6 ff ff       	callq  56f3 <transparent_crc>
    a060:	83 7d fc 00          	cmpl   $0x0,-0x4(%rbp)
    a064:	74 16                	je     a07c <main+0x3bf>
    a066:	8b 45 f0             	mov    -0x10(%rbp),%eax
    a069:	89 c6                	mov    %eax,%esi
    a06b:	48 8d 3d 65 17 00 00 	lea    0x1765(%rip),%rdi        # b7d7 <g_291+0x783>
    a072:	b8 00 00 00 00       	mov    $0x0,%eax
    a077:	e8 04 a0 ff ff       	callq  4080 <printf@plt>
    a07c:	83 45 f0 01          	addl   $0x1,-0x10(%rbp)
    a080:	83 7d f0 00          	cmpl   $0x0,-0x10(%rbp)
    a084:	7e af                	jle    a035 <main+0x378>
    a086:	48 8b 05 4b 40 00 00 	mov    0x404b(%rip),%rax        # e0d8 <g_400>
    a08d:	8b 55 fc             	mov    -0x4(%rbp),%edx
    a090:	48 8d 35 d7 17 00 00 	lea    0x17d7(%rip),%rsi        # b86e <g_291+0x81a>
    a097:	48 89 c7             	mov    %rax,%rdi
    a09a:	e8 54 b6 ff ff       	callq  56f3 <transparent_crc>
    a09f:	8b 05 3b 40 00 00    	mov    0x403b(%rip),%eax        # e0e0 <g_414>
    a0a5:	89 c1                	mov    %eax,%ecx
    a0a7:	8b 45 fc             	mov    -0x4(%rbp),%eax
    a0aa:	89 c2                	mov    %eax,%edx
    a0ac:	48 8d 35 c1 17 00 00 	lea    0x17c1(%rip),%rsi        # b874 <g_291+0x820>
    a0b3:	48 89 cf             	mov    %rcx,%rdi
    a0b6:	e8 38 b6 ff ff       	callq  56f3 <transparent_crc>
    a0bb:	8b 05 23 40 00 00    	mov    0x4023(%rip),%eax        # e0e4 <g_421>
    a0c1:	89 c1                	mov    %eax,%ecx
    a0c3:	8b 45 fc             	mov    -0x4(%rbp),%eax
    a0c6:	89 c2                	mov    %eax,%edx
    a0c8:	48 8d 35 ab 17 00 00 	lea    0x17ab(%rip),%rsi        # b87a <g_291+0x826>
    a0cf:	48 89 cf             	mov    %rcx,%rdi
    a0d2:	e8 1c b6 ff ff       	callq  56f3 <transparent_crc>
    a0d7:	48 8b 05 0a 40 00 00 	mov    0x400a(%rip),%rax        # e0e8 <g_482>
    a0de:	48 89 c1             	mov    %rax,%rcx
    a0e1:	8b 45 fc             	mov    -0x4(%rbp),%eax
    a0e4:	89 c2                	mov    %eax,%edx
    a0e6:	48 8d 35 93 17 00 00 	lea    0x1793(%rip),%rsi        # b880 <g_291+0x82c>
    a0ed:	48 89 cf             	mov    %rcx,%rdi
    a0f0:	e8 fe b5 ff ff       	callq  56f3 <transparent_crc>
    a0f5:	0f b7 05 f4 3f 00 00 	movzwl 0x3ff4(%rip),%eax        # e0f0 <g_563>
    a0fc:	0f b7 c0             	movzwl %ax,%eax
    a0ff:	8b 55 fc             	mov    -0x4(%rbp),%edx
    a102:	48 8d 35 7d 17 00 00 	lea    0x177d(%rip),%rsi        # b886 <g_291+0x832>
    a109:	48 89 c7             	mov    %rax,%rdi
    a10c:	e8 e2 b5 ff ff       	callq  56f3 <transparent_crc>
    a111:	0f b7 05 da 3f 00 00 	movzwl 0x3fda(%rip),%eax        # e0f2 <g_586>
    a118:	48 0f bf c0          	movswq %ax,%rax
    a11c:	8b 55 fc             	mov    -0x4(%rbp),%edx
    a11f:	48 8d 35 66 17 00 00 	lea    0x1766(%rip),%rsi        # b88c <g_291+0x838>
    a126:	48 89 c7             	mov    %rax,%rdi
    a129:	e8 c5 b5 ff ff       	callq  56f3 <transparent_crc>
    a12e:	c7 45 f0 00 00 00 00 	movl   $0x0,-0x10(%rbp)
    a135:	eb 46                	jmp    a17d <main+0x4c0>
    a137:	8b 45 f0             	mov    -0x10(%rbp),%eax
    a13a:	48 98                	cltq   
    a13c:	48 8d 15 b1 3f 00 00 	lea    0x3fb1(%rip),%rdx        # e0f4 <g_606>
    a143:	0f b6 04 10          	movzbl (%rax,%rdx,1),%eax
    a147:	48 0f be c0          	movsbq %al,%rax
    a14b:	8b 55 fc             	mov    -0x4(%rbp),%edx
    a14e:	48 8d 35 3d 17 00 00 	lea    0x173d(%rip),%rsi        # b892 <g_291+0x83e>
    a155:	48 89 c7             	mov    %rax,%rdi
    a158:	e8 96 b5 ff ff       	callq  56f3 <transparent_crc>
    a15d:	83 7d fc 00          	cmpl   $0x0,-0x4(%rbp)
    a161:	74 16                	je     a179 <main+0x4bc>
    a163:	8b 45 f0             	mov    -0x10(%rbp),%eax
    a166:	89 c6                	mov    %eax,%esi
    a168:	48 8d 3d 68 16 00 00 	lea    0x1668(%rip),%rdi        # b7d7 <g_291+0x783>
    a16f:	b8 00 00 00 00       	mov    $0x0,%eax
    a174:	e8 07 9f ff ff       	callq  4080 <printf@plt>
    a179:	83 45 f0 01          	addl   $0x1,-0x10(%rbp)
    a17d:	83 7d f0 05          	cmpl   $0x5,-0x10(%rbp)
    a181:	7e b4                	jle    a137 <main+0x47a>
    a183:	c7 45 f0 00 00 00 00 	movl   $0x0,-0x10(%rbp)
    a18a:	e9 9e 00 00 00       	jmpq   a22d <main+0x570>
    a18f:	c7 45 f4 00 00 00 00 	movl   $0x0,-0xc(%rbp)
    a196:	e9 84 00 00 00       	jmpq   a21f <main+0x562>
    a19b:	c7 45 f8 00 00 00 00 	movl   $0x0,-0x8(%rbp)
    a1a2:	eb 71                	jmp    a215 <main+0x558>
    a1a4:	8b 45 f8             	mov    -0x8(%rbp),%eax
    a1a7:	48 63 c8             	movslq %eax,%rcx
    a1aa:	8b 45 f0             	mov    -0x10(%rbp),%eax
    a1ad:	48 63 d0             	movslq %eax,%rdx
    a1b0:	8b 45 f4             	mov    -0xc(%rbp),%eax
    a1b3:	48 63 f0             	movslq %eax,%rsi
    a1b6:	48 89 d0             	mov    %rdx,%rax
    a1b9:	48 c1 e0 03          	shl    $0x3,%rax
    a1bd:	48 29 d0             	sub    %rdx,%rax
    a1c0:	48 01 f0             	add    %rsi,%rax
    a1c3:	48 01 c0             	add    %rax,%rax
    a1c6:	48 01 c8             	add    %rcx,%rax
    a1c9:	48 8d 14 85 00 00 00 	lea    0x0(,%rax,4),%rdx
    a1d0:	00 
    a1d1:	48 8d 05 28 3f 00 00 	lea    0x3f28(%rip),%rax        # e100 <g_652>
    a1d8:	8b 04 02             	mov    (%rdx,%rax,1),%eax
    a1db:	48 98                	cltq   
    a1dd:	8b 55 fc             	mov    -0x4(%rbp),%edx
    a1e0:	48 8d 35 b4 16 00 00 	lea    0x16b4(%rip),%rsi        # b89b <g_291+0x847>
    a1e7:	48 89 c7             	mov    %rax,%rdi
    a1ea:	e8 04 b5 ff ff       	callq  56f3 <transparent_crc>
    a1ef:	83 7d fc 00          	cmpl   $0x0,-0x4(%rbp)
    a1f3:	74 1c                	je     a211 <main+0x554>
    a1f5:	8b 4d f8             	mov    -0x8(%rbp),%ecx
    a1f8:	8b 55 f4             	mov    -0xc(%rbp),%edx
    a1fb:	8b 45 f0             	mov    -0x10(%rbp),%eax
    a1fe:	89 c6                	mov    %eax,%esi
    a200:	48 8d 3d 18 16 00 00 	lea    0x1618(%rip),%rdi        # b81f <g_291+0x7cb>
    a207:	b8 00 00 00 00       	mov    $0x0,%eax
    a20c:	e8 6f 9e ff ff       	callq  4080 <printf@plt>
    a211:	83 45 f8 01          	addl   $0x1,-0x8(%rbp)
    a215:	83 7d f8 01          	cmpl   $0x1,-0x8(%rbp)
    a219:	7e 89                	jle    a1a4 <main+0x4e7>
    a21b:	83 45 f4 01          	addl   $0x1,-0xc(%rbp)
    a21f:	83 7d f4 06          	cmpl   $0x6,-0xc(%rbp)
    a223:	0f 8e 72 ff ff ff    	jle    a19b <main+0x4de>
    a229:	83 45 f0 01          	addl   $0x1,-0x10(%rbp)
    a22d:	83 7d f0 04          	cmpl   $0x4,-0x10(%rbp)
    a231:	0f 8e 58 ff ff ff    	jle    a18f <main+0x4d2>
    a237:	8b 05 db 3f 00 00    	mov    0x3fdb(%rip),%eax        # e218 <g_656>
    a23d:	89 c1                	mov    %eax,%ecx
    a23f:	8b 45 fc             	mov    -0x4(%rbp),%eax
    a242:	89 c2                	mov    %eax,%edx
    a244:	48 8d 35 5f 16 00 00 	lea    0x165f(%rip),%rsi        # b8aa <g_291+0x856>
    a24b:	48 89 cf             	mov    %rcx,%rdi
    a24e:	e8 a0 b4 ff ff       	callq  56f3 <transparent_crc>
    a253:	c7 45 f0 00 00 00 00 	movl   $0x0,-0x10(%rbp)
    a25a:	eb 6a                	jmp    a2c6 <main+0x609>
    a25c:	c7 45 f4 00 00 00 00 	movl   $0x0,-0xc(%rbp)
    a263:	eb 57                	jmp    a2bc <main+0x5ff>
    a265:	8b 45 f4             	mov    -0xc(%rbp),%eax
    a268:	48 98                	cltq   
    a26a:	8b 55 f0             	mov    -0x10(%rbp),%edx
    a26d:	48 63 d2             	movslq %edx,%rdx
    a270:	48 01 d2             	add    %rdx,%rdx
    a273:	48 01 c2             	add    %rax,%rdx
    a276:	48 8d 05 a3 3f 00 00 	lea    0x3fa3(%rip),%rax        # e220 <g_778>
    a27d:	48 01 d0             	add    %rdx,%rax
    a280:	0f b6 00             	movzbl (%rax),%eax
    a283:	48 0f be c0          	movsbq %al,%rax
    a287:	8b 55 fc             	mov    -0x4(%rbp),%edx
    a28a:	48 8d 35 1f 16 00 00 	lea    0x161f(%rip),%rsi        # b8b0 <g_291+0x85c>
    a291:	48 89 c7             	mov    %rax,%rdi
    a294:	e8 5a b4 ff ff       	callq  56f3 <transparent_crc>
    a299:	83 7d fc 00          	cmpl   $0x0,-0x4(%rbp)
    a29d:	74 19                	je     a2b8 <main+0x5fb>
    a29f:	8b 55 f4             	mov    -0xc(%rbp),%edx
    a2a2:	8b 45 f0             	mov    -0x10(%rbp),%eax
    a2a5:	89 c6                	mov    %eax,%esi
    a2a7:	48 8d 3d 99 15 00 00 	lea    0x1599(%rip),%rdi        # b847 <g_291+0x7f3>
    a2ae:	b8 00 00 00 00       	mov    $0x0,%eax
    a2b3:	e8 c8 9d ff ff       	callq  4080 <printf@plt>
    a2b8:	83 45 f4 01          	addl   $0x1,-0xc(%rbp)
    a2bc:	83 7d f4 01          	cmpl   $0x1,-0xc(%rbp)
    a2c0:	7e a3                	jle    a265 <main+0x5a8>
    a2c2:	83 45 f0 01          	addl   $0x1,-0x10(%rbp)
    a2c6:	83 7d f0 06          	cmpl   $0x6,-0x10(%rbp)
    a2ca:	7e 90                	jle    a25c <main+0x59f>
    a2cc:	48 8b 05 5d 3f 00 00 	mov    0x3f5d(%rip),%rax        # e230 <g_806>
    a2d3:	48 89 c1             	mov    %rax,%rcx
    a2d6:	8b 45 fc             	mov    -0x4(%rbp),%eax
    a2d9:	89 c2                	mov    %eax,%edx
    a2db:	48 8d 35 da 15 00 00 	lea    0x15da(%rip),%rsi        # b8bc <g_291+0x868>
    a2e2:	48 89 cf             	mov    %rcx,%rdi
    a2e5:	e8 09 b4 ff ff       	callq  56f3 <transparent_crc>
    a2ea:	48 8b 05 47 3f 00 00 	mov    0x3f47(%rip),%rax        # e238 <g_825>
    a2f1:	8b 55 fc             	mov    -0x4(%rbp),%edx
    a2f4:	48 8d 35 c7 15 00 00 	lea    0x15c7(%rip),%rsi        # b8c2 <g_291+0x86e>
    a2fb:	48 89 c7             	mov    %rax,%rdi
    a2fe:	e8 f0 b3 ff ff       	callq  56f3 <transparent_crc>
    a303:	0f b7 05 36 3f 00 00 	movzwl 0x3f36(%rip),%eax        # e240 <g_880>
    a30a:	48 0f bf c0          	movswq %ax,%rax
    a30e:	8b 55 fc             	mov    -0x4(%rbp),%edx
    a311:	48 8d 35 b0 15 00 00 	lea    0x15b0(%rip),%rsi        # b8c8 <g_291+0x874>
    a318:	48 89 c7             	mov    %rax,%rdi
    a31b:	e8 d3 b3 ff ff       	callq  56f3 <transparent_crc>
    a320:	c7 45 f0 00 00 00 00 	movl   $0x0,-0x10(%rbp)
    a327:	eb 49                	jmp    a372 <main+0x6b5>
    a329:	8b 45 f0             	mov    -0x10(%rbp),%eax
    a32c:	48 98                	cltq   
    a32e:	48 8d 14 00          	lea    (%rax,%rax,1),%rdx
    a332:	48 8d 05 09 3f 00 00 	lea    0x3f09(%rip),%rax        # e242 <g_936>
    a339:	0f b7 04 02          	movzwl (%rdx,%rax,1),%eax
    a33d:	0f b7 c0             	movzwl %ax,%eax
    a340:	8b 55 fc             	mov    -0x4(%rbp),%edx
    a343:	48 8d 35 84 15 00 00 	lea    0x1584(%rip),%rsi        # b8ce <g_291+0x87a>
    a34a:	48 89 c7             	mov    %rax,%rdi
    a34d:	e8 a1 b3 ff ff       	callq  56f3 <transparent_crc>
    a352:	83 7d fc 00          	cmpl   $0x0,-0x4(%rbp)
    a356:	74 16                	je     a36e <main+0x6b1>
    a358:	8b 45 f0             	mov    -0x10(%rbp),%eax
    a35b:	89 c6                	mov    %eax,%esi
    a35d:	48 8d 3d 73 14 00 00 	lea    0x1473(%rip),%rdi        # b7d7 <g_291+0x783>
    a364:	b8 00 00 00 00       	mov    $0x0,%eax
    a369:	e8 12 9d ff ff       	callq  4080 <printf@plt>
    a36e:	83 45 f0 01          	addl   $0x1,-0x10(%rbp)
    a372:	83 7d f0 02          	cmpl   $0x2,-0x10(%rbp)
    a376:	7e b1                	jle    a329 <main+0x66c>
    a378:	8b 05 ca 3e 00 00    	mov    0x3eca(%rip),%eax        # e248 <g_1086>
    a37e:	89 c1                	mov    %eax,%ecx
    a380:	8b 45 fc             	mov    -0x4(%rbp),%eax
    a383:	89 c2                	mov    %eax,%edx
    a385:	48 8d 35 4b 15 00 00 	lea    0x154b(%rip),%rsi        # b8d7 <g_291+0x883>
    a38c:	48 89 cf             	mov    %rcx,%rdi
    a38f:	e8 5f b3 ff ff       	callq  56f3 <transparent_crc>
    a394:	8b 05 b2 3e 00 00    	mov    0x3eb2(%rip),%eax        # e24c <g_1159>
    a39a:	48 98                	cltq   
    a39c:	8b 55 fc             	mov    -0x4(%rbp),%edx
    a39f:	48 8d 35 38 15 00 00 	lea    0x1538(%rip),%rsi        # b8de <g_291+0x88a>
    a3a6:	48 89 c7             	mov    %rax,%rdi
    a3a9:	e8 45 b3 ff ff       	callq  56f3 <transparent_crc>
    a3ae:	0f b6 05 9b 3e 00 00 	movzbl 0x3e9b(%rip),%eax        # e250 <g_1285>
    a3b5:	0f b6 c0             	movzbl %al,%eax
    a3b8:	8b 55 fc             	mov    -0x4(%rbp),%edx
    a3bb:	48 8d 35 23 15 00 00 	lea    0x1523(%rip),%rsi        # b8e5 <g_291+0x891>
    a3c2:	48 89 c7             	mov    %rax,%rdi
    a3c5:	e8 29 b3 ff ff       	callq  56f3 <transparent_crc>
    a3ca:	8b 05 84 3e 00 00    	mov    0x3e84(%rip),%eax        # e254 <g_1387>
    a3d0:	89 c1                	mov    %eax,%ecx
    a3d2:	8b 45 fc             	mov    -0x4(%rbp),%eax
    a3d5:	89 c2                	mov    %eax,%edx
    a3d7:	48 8d 35 0e 15 00 00 	lea    0x150e(%rip),%rsi        # b8ec <g_291+0x898>
    a3de:	48 89 cf             	mov    %rcx,%rdi
    a3e1:	e8 0d b3 ff ff       	callq  56f3 <transparent_crc>
    a3e6:	c7 45 f0 00 00 00 00 	movl   $0x0,-0x10(%rbp)
    a3ed:	eb 4a                	jmp    a439 <main+0x77c>
    a3ef:	8b 45 f0             	mov    -0x10(%rbp),%eax
    a3f2:	48 98                	cltq   
    a3f4:	48 8d 14 c5 00 00 00 	lea    0x0(,%rax,8),%rdx
    a3fb:	00 
    a3fc:	48 8d 05 5d 3e 00 00 	lea    0x3e5d(%rip),%rax        # e260 <g_1420>
    a403:	48 8b 04 02          	mov    (%rdx,%rax,1),%rax
    a407:	8b 55 fc             	mov    -0x4(%rbp),%edx
    a40a:	48 8d 35 e2 14 00 00 	lea    0x14e2(%rip),%rsi        # b8f3 <g_291+0x89f>
    a411:	48 89 c7             	mov    %rax,%rdi
    a414:	e8 da b2 ff ff       	callq  56f3 <transparent_crc>
    a419:	83 7d fc 00          	cmpl   $0x0,-0x4(%rbp)
    a41d:	74 16                	je     a435 <main+0x778>
    a41f:	8b 45 f0             	mov    -0x10(%rbp),%eax
    a422:	89 c6                	mov    %eax,%esi
    a424:	48 8d 3d ac 13 00 00 	lea    0x13ac(%rip),%rdi        # b7d7 <g_291+0x783>
    a42b:	b8 00 00 00 00       	mov    $0x0,%eax
    a430:	e8 4b 9c ff ff       	callq  4080 <printf@plt>
    a435:	83 45 f0 01          	addl   $0x1,-0x10(%rbp)
    a439:	83 7d f0 07          	cmpl   $0x7,-0x10(%rbp)
    a43d:	7e b0                	jle    a3ef <main+0x732>
    a43f:	0f b7 05 5a 3e 00 00 	movzwl 0x3e5a(%rip),%eax        # e2a0 <g_1426>
    a446:	48 0f bf c0          	movswq %ax,%rax
    a44a:	8b 55 fc             	mov    -0x4(%rbp),%edx
    a44d:	48 8d 35 a9 14 00 00 	lea    0x14a9(%rip),%rsi        # b8fd <g_291+0x8a9>
    a454:	48 89 c7             	mov    %rax,%rdi
    a457:	e8 97 b2 ff ff       	callq  56f3 <transparent_crc>
    a45c:	48 8b 05 45 3e 00 00 	mov    0x3e45(%rip),%rax        # e2a8 <g_1446>
    a463:	8b 55 fc             	mov    -0x4(%rbp),%edx
    a466:	48 8d 35 97 14 00 00 	lea    0x1497(%rip),%rsi        # b904 <g_291+0x8b0>
    a46d:	48 89 c7             	mov    %rax,%rdi
    a470:	e8 7e b2 ff ff       	callq  56f3 <transparent_crc>
    a475:	8b 05 a5 3b 00 00    	mov    0x3ba5(%rip),%eax        # e020 <crc32_context>
    a47b:	f7 d0                	not    %eax
    a47d:	89 c2                	mov    %eax,%edx
    a47f:	8b 45 fc             	mov    -0x4(%rbp),%eax
    a482:	89 c6                	mov    %eax,%esi
    a484:	89 d7                	mov    %edx,%edi
    a486:	e8 09 9d ff ff       	callq  4194 <platform_main_end>
    a48b:	b8 00 00 00 00       	mov    $0x0,%eax
    a490:	c9                   	leaveq 
    a491:	c3                   	retq   
    a492:	66 2e 0f 1f 84 00 00 	nopw   %cs:0x0(%rax,%rax,1)
    a499:	00 00 00 
    a49c:	0f 1f 40 00          	nopl   0x0(%rax)

000000000000a4a0 <__libc_csu_init>:
    a4a0:	f3 0f 1e fa          	endbr64 
    a4a4:	41 57                	push   %r15
    a4a6:	4c 8d 3d c3 38 00 00 	lea    0x38c3(%rip),%r15        # dd70 <__frame_dummy_init_array_entry>
    a4ad:	41 56                	push   %r14
    a4af:	49 89 d6             	mov    %rdx,%r14
    a4b2:	41 55                	push   %r13
    a4b4:	49 89 f5             	mov    %rsi,%r13
    a4b7:	41 54                	push   %r12
    a4b9:	41 89 fc             	mov    %edi,%r12d
    a4bc:	55                   	push   %rbp
    a4bd:	48 8d 2d b4 38 00 00 	lea    0x38b4(%rip),%rbp        # dd78 <__do_global_dtors_aux_fini_array_entry>
    a4c4:	53                   	push   %rbx
    a4c5:	4c 29 fd             	sub    %r15,%rbp
    a4c8:	48 83 ec 08          	sub    $0x8,%rsp
    a4cc:	e8 2f 9b ff ff       	callq  4000 <_init>
    a4d1:	48 c1 fd 03          	sar    $0x3,%rbp
    a4d5:	74 1f                	je     a4f6 <__libc_csu_init+0x56>
    a4d7:	31 db                	xor    %ebx,%ebx
    a4d9:	0f 1f 80 00 00 00 00 	nopl   0x0(%rax)
    a4e0:	4c 89 f2             	mov    %r14,%rdx
    a4e3:	4c 89 ee             	mov    %r13,%rsi
    a4e6:	44 89 e7             	mov    %r12d,%edi
    a4e9:	41 ff 14 df          	callq  *(%r15,%rbx,8)
    a4ed:	48 83 c3 01          	add    $0x1,%rbx
    a4f1:	48 39 dd             	cmp    %rbx,%rbp
    a4f4:	75 ea                	jne    a4e0 <__libc_csu_init+0x40>
    a4f6:	48 83 c4 08          	add    $0x8,%rsp
    a4fa:	5b                   	pop    %rbx
    a4fb:	5d                   	pop    %rbp
    a4fc:	41 5c                	pop    %r12
    a4fe:	41 5d                	pop    %r13
    a500:	41 5e                	pop    %r14
    a502:	41 5f                	pop    %r15
    a504:	c3                   	retq   
    a505:	66 66 2e 0f 1f 84 00 	data16 nopw %cs:0x0(%rax,%rax,1)
    a50c:	00 00 00 00 

000000000000a510 <__libc_csu_fini>:
    a510:	f3 0f 1e fa          	endbr64 
    a514:	c3                   	retq   
