


Disassembly of section .text:

000000000000a0a0 <_start>:
    a0a0:	f3 0f 1e fa          	endbr64 
    a0a4:	31 ed                	xor    %ebp,%ebp
    a0a6:	49 89 d1             	mov    %rdx,%r9
    a0a9:	5e                   	pop    %rsi
    a0aa:	48 89 e2             	mov    %rsp,%rdx
    a0ad:	48 83 e4 f0          	and    $0xfffffffffffffff0,%rsp
    a0b1:	50                   	push   %rax
    a0b2:	54                   	push   %rsp
    a0b3:	4c 8d 05 56 19 01 00 	lea    0x11956(%rip),%r8        # 1ba10 <__libc_csu_fini>
    a0ba:	48 8d 0d df 18 01 00 	lea    0x118df(%rip),%rcx        # 1b9a0 <__libc_csu_init>
    a0c1:	48 8d 3d 07 10 01 00 	lea    0x11007(%rip),%rdi        # 1b0cf <main>
    a0c8:	ff 15 12 6f 01 00    	callq  *0x16f12(%rip)        # 20fe0 <__libc_start_main@GLIBC_2.2.5>
    a0ce:	f4                   	hlt    
    a0cf:	90                   	nop

000000000000a0d0 <deregister_tm_clones>:
    a0d0:	48 8d 3d f1 b1 01 00 	lea    0x1b1f1(%rip),%rdi        # 252c8 <__TMC_END__>
    a0d7:	48 8d 05 ea b1 01 00 	lea    0x1b1ea(%rip),%rax        # 252c8 <__TMC_END__>
    a0de:	48 39 f8             	cmp    %rdi,%rax
    a0e1:	74 15                	je     a0f8 <deregister_tm_clones+0x28>
    a0e3:	48 8b 05 ee 6e 01 00 	mov    0x16eee(%rip),%rax        # 20fd8 <_ITM_deregisterTMCloneTable>
    a0ea:	48 85 c0             	test   %rax,%rax
    a0ed:	74 09                	je     a0f8 <deregister_tm_clones+0x28>
    a0ef:	ff e0                	jmpq   *%rax
    a0f1:	0f 1f 80 00 00 00 00 	nopl   0x0(%rax)
    a0f8:	c3                   	retq   
    a0f9:	0f 1f 80 00 00 00 00 	nopl   0x0(%rax)

000000000000a100 <register_tm_clones>:
    a100:	48 8d 3d c1 b1 01 00 	lea    0x1b1c1(%rip),%rdi        # 252c8 <__TMC_END__>
    a107:	48 8d 35 ba b1 01 00 	lea    0x1b1ba(%rip),%rsi        # 252c8 <__TMC_END__>
    a10e:	48 29 fe             	sub    %rdi,%rsi
    a111:	48 89 f0             	mov    %rsi,%rax
    a114:	48 c1 ee 3f          	shr    $0x3f,%rsi
    a118:	48 c1 f8 03          	sar    $0x3,%rax
    a11c:	48 01 c6             	add    %rax,%rsi
    a11f:	48 d1 fe             	sar    %rsi
    a122:	74 14                	je     a138 <register_tm_clones+0x38>
    a124:	48 8b 05 c5 6e 01 00 	mov    0x16ec5(%rip),%rax        # 20ff0 <_ITM_registerTMCloneTable>
    a12b:	48 85 c0             	test   %rax,%rax
    a12e:	74 08                	je     a138 <register_tm_clones+0x38>
    a130:	ff e0                	jmpq   *%rax
    a132:	66 0f 1f 44 00 00    	nopw   0x0(%rax,%rax,1)
    a138:	c3                   	retq   
    a139:	0f 1f 80 00 00 00 00 	nopl   0x0(%rax)

000000000000a140 <__do_global_dtors_aux>:
    a140:	f3 0f 1e fa          	endbr64 
    a144:	80 3d 95 b1 01 00 00 	cmpb   $0x0,0x1b195(%rip)        # 252e0 <completed.8061>
    a14b:	75 2b                	jne    a178 <__do_global_dtors_aux+0x38>
    a14d:	55                   	push   %rbp
    a14e:	48 83 3d a2 6e 01 00 	cmpq   $0x0,0x16ea2(%rip)        # 20ff8 <__cxa_finalize@GLIBC_2.2.5>
    a155:	00 
    a156:	48 89 e5             	mov    %rsp,%rbp
    a159:	74 0c                	je     a167 <__do_global_dtors_aux+0x27>
    a15b:	48 8b 3d a6 6e 01 00 	mov    0x16ea6(%rip),%rdi        # 21008 <__dso_handle>
    a162:	e8 f9 fe ff ff       	callq  a060 <__cxa_finalize@plt>
    a167:	e8 64 ff ff ff       	callq  a0d0 <deregister_tm_clones>
    a16c:	c6 05 6d b1 01 00 01 	movb   $0x1,0x1b16d(%rip)        # 252e0 <completed.8061>
    a173:	5d                   	pop    %rbp
    a174:	c3                   	retq   
    a175:	0f 1f 00             	nopl   (%rax)
    a178:	c3                   	retq   
    a179:	0f 1f 80 00 00 00 00 	nopl   0x0(%rax)

000000000000a180 <frame_dummy>:
    a180:	f3 0f 1e fa          	endbr64 
    a184:	e9 77 ff ff ff       	jmpq   a100 <register_tm_clones>

000000000000a189 <platform_main_begin>:
    a189:	f3 0f 1e fa          	endbr64 
    a18d:	55                   	push   %rbp
    a18e:	48 89 e5             	mov    %rsp,%rbp
    a191:	90                   	nop
    a192:	5d                   	pop    %rbp
    a193:	c3                   	retq   

000000000000a194 <platform_main_end>:
    a194:	f3 0f 1e fa          	endbr64 
    a198:	55                   	push   %rbp
    a199:	48 89 e5             	mov    %rsp,%rbp
    a19c:	48 83 ec 10          	sub    $0x10,%rsp
    a1a0:	89 7d fc             	mov    %edi,-0x4(%rbp)
    a1a3:	89 75 f8             	mov    %esi,-0x8(%rbp)
    a1a6:	8b 45 fc             	mov    -0x4(%rbp),%eax
    a1a9:	89 c6                	mov    %eax,%esi
    a1ab:	48 8d 3d 6e 1e 01 00 	lea    0x11e6e(%rip),%rdi        # 1c020 <_IO_stdin_used+0x20>
    a1b2:	b8 00 00 00 00       	mov    $0x0,%eax
    a1b7:	e8 c4 fe ff ff       	callq  a080 <printf@plt>
    a1bc:	90                   	nop
    a1bd:	c9                   	leaveq 
    a1be:	c3                   	retq   

000000000000a1bf <safe_unary_minus_func_int8_t_s>:
    a1bf:	f3 0f 1e fa          	endbr64 
    a1c3:	55                   	push   %rbp
    a1c4:	48 89 e5             	mov    %rsp,%rbp
    a1c7:	89 f8                	mov    %edi,%eax
    a1c9:	88 45 fc             	mov    %al,-0x4(%rbp)
    a1cc:	0f b6 45 fc          	movzbl -0x4(%rbp),%eax
    a1d0:	f7 d8                	neg    %eax
    a1d2:	5d                   	pop    %rbp
    a1d3:	c3                   	retq   

000000000000a1d4 <safe_add_func_int8_t_s_s>:
    a1d4:	f3 0f 1e fa          	endbr64 
    a1d8:	55                   	push   %rbp
    a1d9:	48 89 e5             	mov    %rsp,%rbp
    a1dc:	89 fa                	mov    %edi,%edx
    a1de:	89 f0                	mov    %esi,%eax
    a1e0:	88 55 fc             	mov    %dl,-0x4(%rbp)
    a1e3:	88 45 f8             	mov    %al,-0x8(%rbp)
    a1e6:	0f b6 55 fc          	movzbl -0x4(%rbp),%edx
    a1ea:	0f b6 45 f8          	movzbl -0x8(%rbp),%eax
    a1ee:	01 d0                	add    %edx,%eax
    a1f0:	5d                   	pop    %rbp
    a1f1:	c3                   	retq   

000000000000a1f2 <safe_sub_func_int8_t_s_s>:
    a1f2:	f3 0f 1e fa          	endbr64 
    a1f6:	55                   	push   %rbp
    a1f7:	48 89 e5             	mov    %rsp,%rbp
    a1fa:	89 fa                	mov    %edi,%edx
    a1fc:	89 f0                	mov    %esi,%eax
    a1fe:	88 55 fc             	mov    %dl,-0x4(%rbp)
    a201:	88 45 f8             	mov    %al,-0x8(%rbp)
    a204:	0f b6 55 fc          	movzbl -0x4(%rbp),%edx
    a208:	0f b6 45 f8          	movzbl -0x8(%rbp),%eax
    a20c:	29 c2                	sub    %eax,%edx
    a20e:	89 d0                	mov    %edx,%eax
    a210:	5d                   	pop    %rbp
    a211:	c3                   	retq   

000000000000a212 <safe_mul_func_int8_t_s_s>:
    a212:	f3 0f 1e fa          	endbr64 
    a216:	55                   	push   %rbp
    a217:	48 89 e5             	mov    %rsp,%rbp
    a21a:	89 fa                	mov    %edi,%edx
    a21c:	89 f0                	mov    %esi,%eax
    a21e:	88 55 fc             	mov    %dl,-0x4(%rbp)
    a221:	88 45 f8             	mov    %al,-0x8(%rbp)
    a224:	0f b6 45 fc          	movzbl -0x4(%rbp),%eax
    a228:	0f b6 55 f8          	movzbl -0x8(%rbp),%edx
    a22c:	0f af c2             	imul   %edx,%eax
    a22f:	5d                   	pop    %rbp
    a230:	c3                   	retq   

000000000000a231 <safe_mod_func_int8_t_s_s>:
    a231:	f3 0f 1e fa          	endbr64 
    a235:	55                   	push   %rbp
    a236:	48 89 e5             	mov    %rsp,%rbp
    a239:	89 fa                	mov    %edi,%edx
    a23b:	89 f0                	mov    %esi,%eax
    a23d:	88 55 fc             	mov    %dl,-0x4(%rbp)
    a240:	88 45 f8             	mov    %al,-0x8(%rbp)
    a243:	80 7d f8 00          	cmpb   $0x0,-0x8(%rbp)
    a247:	74 1b                	je     a264 <safe_mod_func_int8_t_s_s+0x33>
    a249:	80 7d fc 80          	cmpb   $0x80,-0x4(%rbp)
    a24d:	75 06                	jne    a255 <safe_mod_func_int8_t_s_s+0x24>
    a24f:	80 7d f8 ff          	cmpb   $0xff,-0x8(%rbp)
    a253:	74 0f                	je     a264 <safe_mod_func_int8_t_s_s+0x33>
    a255:	0f be 45 fc          	movsbl -0x4(%rbp),%eax
    a259:	0f be 4d f8          	movsbl -0x8(%rbp),%ecx
    a25d:	99                   	cltd   
    a25e:	f7 f9                	idiv   %ecx
    a260:	89 d0                	mov    %edx,%eax
    a262:	eb 04                	jmp    a268 <safe_mod_func_int8_t_s_s+0x37>
    a264:	0f b6 45 fc          	movzbl -0x4(%rbp),%eax
    a268:	5d                   	pop    %rbp
    a269:	c3                   	retq   

000000000000a26a <safe_div_func_int8_t_s_s>:
    a26a:	f3 0f 1e fa          	endbr64 
    a26e:	55                   	push   %rbp
    a26f:	48 89 e5             	mov    %rsp,%rbp
    a272:	89 fa                	mov    %edi,%edx
    a274:	89 f0                	mov    %esi,%eax
    a276:	88 55 fc             	mov    %dl,-0x4(%rbp)
    a279:	88 45 f8             	mov    %al,-0x8(%rbp)
    a27c:	80 7d f8 00          	cmpb   $0x0,-0x8(%rbp)
    a280:	74 19                	je     a29b <safe_div_func_int8_t_s_s+0x31>
    a282:	80 7d fc 80          	cmpb   $0x80,-0x4(%rbp)
    a286:	75 06                	jne    a28e <safe_div_func_int8_t_s_s+0x24>
    a288:	80 7d f8 ff          	cmpb   $0xff,-0x8(%rbp)
    a28c:	74 0d                	je     a29b <safe_div_func_int8_t_s_s+0x31>
    a28e:	0f be 45 fc          	movsbl -0x4(%rbp),%eax
    a292:	0f be 4d f8          	movsbl -0x8(%rbp),%ecx
    a296:	99                   	cltd   
    a297:	f7 f9                	idiv   %ecx
    a299:	eb 04                	jmp    a29f <safe_div_func_int8_t_s_s+0x35>
    a29b:	0f b6 45 fc          	movzbl -0x4(%rbp),%eax
    a29f:	5d                   	pop    %rbp
    a2a0:	c3                   	retq   

000000000000a2a1 <safe_lshift_func_int8_t_s_s>:
    a2a1:	f3 0f 1e fa          	endbr64 
    a2a5:	55                   	push   %rbp
    a2a6:	48 89 e5             	mov    %rsp,%rbp
    a2a9:	89 f8                	mov    %edi,%eax
    a2ab:	89 75 f8             	mov    %esi,-0x8(%rbp)
    a2ae:	88 45 fc             	mov    %al,-0x4(%rbp)
    a2b1:	80 7d fc 00          	cmpb   $0x0,-0x4(%rbp)
    a2b5:	78 31                	js     a2e8 <safe_lshift_func_int8_t_s_s+0x47>
    a2b7:	83 7d f8 00          	cmpl   $0x0,-0x8(%rbp)
    a2bb:	78 2b                	js     a2e8 <safe_lshift_func_int8_t_s_s+0x47>
    a2bd:	83 7d f8 1f          	cmpl   $0x1f,-0x8(%rbp)
    a2c1:	7f 25                	jg     a2e8 <safe_lshift_func_int8_t_s_s+0x47>
    a2c3:	0f be 55 fc          	movsbl -0x4(%rbp),%edx
    a2c7:	8b 45 f8             	mov    -0x8(%rbp),%eax
    a2ca:	be 7f 00 00 00       	mov    $0x7f,%esi
    a2cf:	89 c1                	mov    %eax,%ecx
    a2d1:	d3 fe                	sar    %cl,%esi
    a2d3:	89 f0                	mov    %esi,%eax
    a2d5:	39 c2                	cmp    %eax,%edx
    a2d7:	7f 0f                	jg     a2e8 <safe_lshift_func_int8_t_s_s+0x47>
    a2d9:	0f be 55 fc          	movsbl -0x4(%rbp),%edx
    a2dd:	8b 45 f8             	mov    -0x8(%rbp),%eax
    a2e0:	89 c1                	mov    %eax,%ecx
    a2e2:	d3 e2                	shl    %cl,%edx
    a2e4:	89 d0                	mov    %edx,%eax
    a2e6:	eb 04                	jmp    a2ec <safe_lshift_func_int8_t_s_s+0x4b>
    a2e8:	0f b6 45 fc          	movzbl -0x4(%rbp),%eax
    a2ec:	5d                   	pop    %rbp
    a2ed:	c3                   	retq   

000000000000a2ee <safe_lshift_func_int8_t_s_u>:
    a2ee:	f3 0f 1e fa          	endbr64 
    a2f2:	55                   	push   %rbp
    a2f3:	48 89 e5             	mov    %rsp,%rbp
    a2f6:	89 f8                	mov    %edi,%eax
    a2f8:	89 75 f8             	mov    %esi,-0x8(%rbp)
    a2fb:	88 45 fc             	mov    %al,-0x4(%rbp)
    a2fe:	80 7d fc 00          	cmpb   $0x0,-0x4(%rbp)
    a302:	78 2b                	js     a32f <safe_lshift_func_int8_t_s_u+0x41>
    a304:	83 7d f8 1f          	cmpl   $0x1f,-0x8(%rbp)
    a308:	77 25                	ja     a32f <safe_lshift_func_int8_t_s_u+0x41>
    a30a:	0f be 55 fc          	movsbl -0x4(%rbp),%edx
    a30e:	8b 45 f8             	mov    -0x8(%rbp),%eax
    a311:	be 7f 00 00 00       	mov    $0x7f,%esi
    a316:	89 c1                	mov    %eax,%ecx
    a318:	d3 fe                	sar    %cl,%esi
    a31a:	89 f0                	mov    %esi,%eax
    a31c:	39 c2                	cmp    %eax,%edx
    a31e:	7f 0f                	jg     a32f <safe_lshift_func_int8_t_s_u+0x41>
    a320:	0f be 55 fc          	movsbl -0x4(%rbp),%edx
    a324:	8b 45 f8             	mov    -0x8(%rbp),%eax
    a327:	89 c1                	mov    %eax,%ecx
    a329:	d3 e2                	shl    %cl,%edx
    a32b:	89 d0                	mov    %edx,%eax
    a32d:	eb 04                	jmp    a333 <safe_lshift_func_int8_t_s_u+0x45>
    a32f:	0f b6 45 fc          	movzbl -0x4(%rbp),%eax
    a333:	5d                   	pop    %rbp
    a334:	c3                   	retq   

000000000000a335 <safe_rshift_func_int8_t_s_s>:
    a335:	f3 0f 1e fa          	endbr64 
    a339:	55                   	push   %rbp
    a33a:	48 89 e5             	mov    %rsp,%rbp
    a33d:	89 f8                	mov    %edi,%eax
    a33f:	89 75 f8             	mov    %esi,-0x8(%rbp)
    a342:	88 45 fc             	mov    %al,-0x4(%rbp)
    a345:	80 7d fc 00          	cmpb   $0x0,-0x4(%rbp)
    a349:	78 1b                	js     a366 <safe_rshift_func_int8_t_s_s+0x31>
    a34b:	83 7d f8 00          	cmpl   $0x0,-0x8(%rbp)
    a34f:	78 15                	js     a366 <safe_rshift_func_int8_t_s_s+0x31>
    a351:	83 7d f8 1f          	cmpl   $0x1f,-0x8(%rbp)
    a355:	7f 0f                	jg     a366 <safe_rshift_func_int8_t_s_s+0x31>
    a357:	0f be 55 fc          	movsbl -0x4(%rbp),%edx
    a35b:	8b 45 f8             	mov    -0x8(%rbp),%eax
    a35e:	89 c1                	mov    %eax,%ecx
    a360:	d3 fa                	sar    %cl,%edx
    a362:	89 d0                	mov    %edx,%eax
    a364:	eb 04                	jmp    a36a <safe_rshift_func_int8_t_s_s+0x35>
    a366:	0f b6 45 fc          	movzbl -0x4(%rbp),%eax
    a36a:	5d                   	pop    %rbp
    a36b:	c3                   	retq   

000000000000a36c <safe_rshift_func_int8_t_s_u>:
    a36c:	f3 0f 1e fa          	endbr64 
    a370:	55                   	push   %rbp
    a371:	48 89 e5             	mov    %rsp,%rbp
    a374:	89 f8                	mov    %edi,%eax
    a376:	89 75 f8             	mov    %esi,-0x8(%rbp)
    a379:	88 45 fc             	mov    %al,-0x4(%rbp)
    a37c:	80 7d fc 00          	cmpb   $0x0,-0x4(%rbp)
    a380:	78 15                	js     a397 <safe_rshift_func_int8_t_s_u+0x2b>
    a382:	83 7d f8 1f          	cmpl   $0x1f,-0x8(%rbp)
    a386:	77 0f                	ja     a397 <safe_rshift_func_int8_t_s_u+0x2b>
    a388:	0f be 55 fc          	movsbl -0x4(%rbp),%edx
    a38c:	8b 45 f8             	mov    -0x8(%rbp),%eax
    a38f:	89 c1                	mov    %eax,%ecx
    a391:	d3 fa                	sar    %cl,%edx
    a393:	89 d0                	mov    %edx,%eax
    a395:	eb 04                	jmp    a39b <safe_rshift_func_int8_t_s_u+0x2f>
    a397:	0f b6 45 fc          	movzbl -0x4(%rbp),%eax
    a39b:	5d                   	pop    %rbp
    a39c:	c3                   	retq   

000000000000a39d <safe_unary_minus_func_int16_t_s>:
    a39d:	f3 0f 1e fa          	endbr64 
    a3a1:	55                   	push   %rbp
    a3a2:	48 89 e5             	mov    %rsp,%rbp
    a3a5:	89 f8                	mov    %edi,%eax
    a3a7:	66 89 45 fc          	mov    %ax,-0x4(%rbp)
    a3ab:	0f b7 45 fc          	movzwl -0x4(%rbp),%eax
    a3af:	f7 d8                	neg    %eax
    a3b1:	5d                   	pop    %rbp
    a3b2:	c3                   	retq   

000000000000a3b3 <safe_add_func_int16_t_s_s>:
    a3b3:	f3 0f 1e fa          	endbr64 
    a3b7:	55                   	push   %rbp
    a3b8:	48 89 e5             	mov    %rsp,%rbp
    a3bb:	89 fa                	mov    %edi,%edx
    a3bd:	89 f0                	mov    %esi,%eax
    a3bf:	66 89 55 fc          	mov    %dx,-0x4(%rbp)
    a3c3:	66 89 45 f8          	mov    %ax,-0x8(%rbp)
    a3c7:	0f b7 55 fc          	movzwl -0x4(%rbp),%edx
    a3cb:	0f b7 45 f8          	movzwl -0x8(%rbp),%eax
    a3cf:	01 d0                	add    %edx,%eax
    a3d1:	5d                   	pop    %rbp
    a3d2:	c3                   	retq   

000000000000a3d3 <safe_sub_func_int16_t_s_s>:
    a3d3:	f3 0f 1e fa          	endbr64 
    a3d7:	55                   	push   %rbp
    a3d8:	48 89 e5             	mov    %rsp,%rbp
    a3db:	89 fa                	mov    %edi,%edx
    a3dd:	89 f0                	mov    %esi,%eax
    a3df:	66 89 55 fc          	mov    %dx,-0x4(%rbp)
    a3e3:	66 89 45 f8          	mov    %ax,-0x8(%rbp)
    a3e7:	0f b7 55 fc          	movzwl -0x4(%rbp),%edx
    a3eb:	0f b7 45 f8          	movzwl -0x8(%rbp),%eax
    a3ef:	29 c2                	sub    %eax,%edx
    a3f1:	89 d0                	mov    %edx,%eax
    a3f3:	5d                   	pop    %rbp
    a3f4:	c3                   	retq   

000000000000a3f5 <safe_mul_func_int16_t_s_s>:
    a3f5:	f3 0f 1e fa          	endbr64 
    a3f9:	55                   	push   %rbp
    a3fa:	48 89 e5             	mov    %rsp,%rbp
    a3fd:	89 fa                	mov    %edi,%edx
    a3ff:	89 f0                	mov    %esi,%eax
    a401:	66 89 55 fc          	mov    %dx,-0x4(%rbp)
    a405:	66 89 45 f8          	mov    %ax,-0x8(%rbp)
    a409:	0f b7 55 fc          	movzwl -0x4(%rbp),%edx
    a40d:	0f b7 45 f8          	movzwl -0x8(%rbp),%eax
    a411:	0f af c2             	imul   %edx,%eax
    a414:	5d                   	pop    %rbp
    a415:	c3                   	retq   

000000000000a416 <safe_mod_func_int16_t_s_s>:
    a416:	f3 0f 1e fa          	endbr64 
    a41a:	55                   	push   %rbp
    a41b:	48 89 e5             	mov    %rsp,%rbp
    a41e:	89 fa                	mov    %edi,%edx
    a420:	89 f0                	mov    %esi,%eax
    a422:	66 89 55 fc          	mov    %dx,-0x4(%rbp)
    a426:	66 89 45 f8          	mov    %ax,-0x8(%rbp)
    a42a:	66 83 7d f8 00       	cmpw   $0x0,-0x8(%rbp)
    a42f:	74 1e                	je     a44f <safe_mod_func_int16_t_s_s+0x39>
    a431:	66 81 7d fc 00 80    	cmpw   $0x8000,-0x4(%rbp)
    a437:	75 07                	jne    a440 <safe_mod_func_int16_t_s_s+0x2a>
    a439:	66 83 7d f8 ff       	cmpw   $0xffff,-0x8(%rbp)
    a43e:	74 0f                	je     a44f <safe_mod_func_int16_t_s_s+0x39>
    a440:	0f bf 45 fc          	movswl -0x4(%rbp),%eax
    a444:	0f bf 4d f8          	movswl -0x8(%rbp),%ecx
    a448:	99                   	cltd   
    a449:	f7 f9                	idiv   %ecx
    a44b:	89 d0                	mov    %edx,%eax
    a44d:	eb 04                	jmp    a453 <safe_mod_func_int16_t_s_s+0x3d>
    a44f:	0f b7 45 fc          	movzwl -0x4(%rbp),%eax
    a453:	5d                   	pop    %rbp
    a454:	c3                   	retq   

000000000000a455 <safe_div_func_int16_t_s_s>:
    a455:	f3 0f 1e fa          	endbr64 
    a459:	55                   	push   %rbp
    a45a:	48 89 e5             	mov    %rsp,%rbp
    a45d:	89 fa                	mov    %edi,%edx
    a45f:	89 f0                	mov    %esi,%eax
    a461:	66 89 55 fc          	mov    %dx,-0x4(%rbp)
    a465:	66 89 45 f8          	mov    %ax,-0x8(%rbp)
    a469:	66 83 7d f8 00       	cmpw   $0x0,-0x8(%rbp)
    a46e:	74 1c                	je     a48c <safe_div_func_int16_t_s_s+0x37>
    a470:	66 81 7d fc 00 80    	cmpw   $0x8000,-0x4(%rbp)
    a476:	75 07                	jne    a47f <safe_div_func_int16_t_s_s+0x2a>
    a478:	66 83 7d f8 ff       	cmpw   $0xffff,-0x8(%rbp)
    a47d:	74 0d                	je     a48c <safe_div_func_int16_t_s_s+0x37>
    a47f:	0f bf 45 fc          	movswl -0x4(%rbp),%eax
    a483:	0f bf 4d f8          	movswl -0x8(%rbp),%ecx
    a487:	99                   	cltd   
    a488:	f7 f9                	idiv   %ecx
    a48a:	eb 04                	jmp    a490 <safe_div_func_int16_t_s_s+0x3b>
    a48c:	0f b7 45 fc          	movzwl -0x4(%rbp),%eax
    a490:	5d                   	pop    %rbp
    a491:	c3                   	retq   

000000000000a492 <safe_lshift_func_int16_t_s_s>:
    a492:	f3 0f 1e fa          	endbr64 
    a496:	55                   	push   %rbp
    a497:	48 89 e5             	mov    %rsp,%rbp
    a49a:	89 f8                	mov    %edi,%eax
    a49c:	89 75 f8             	mov    %esi,-0x8(%rbp)
    a49f:	66 89 45 fc          	mov    %ax,-0x4(%rbp)
    a4a3:	66 83 7d fc 00       	cmpw   $0x0,-0x4(%rbp)
    a4a8:	78 31                	js     a4db <safe_lshift_func_int16_t_s_s+0x49>
    a4aa:	83 7d f8 00          	cmpl   $0x0,-0x8(%rbp)
    a4ae:	78 2b                	js     a4db <safe_lshift_func_int16_t_s_s+0x49>
    a4b0:	83 7d f8 1f          	cmpl   $0x1f,-0x8(%rbp)
    a4b4:	7f 25                	jg     a4db <safe_lshift_func_int16_t_s_s+0x49>
    a4b6:	0f bf 55 fc          	movswl -0x4(%rbp),%edx
    a4ba:	8b 45 f8             	mov    -0x8(%rbp),%eax
    a4bd:	be ff 7f 00 00       	mov    $0x7fff,%esi
    a4c2:	89 c1                	mov    %eax,%ecx
    a4c4:	d3 fe                	sar    %cl,%esi
    a4c6:	89 f0                	mov    %esi,%eax
    a4c8:	39 c2                	cmp    %eax,%edx
    a4ca:	7f 0f                	jg     a4db <safe_lshift_func_int16_t_s_s+0x49>
    a4cc:	0f bf 55 fc          	movswl -0x4(%rbp),%edx
    a4d0:	8b 45 f8             	mov    -0x8(%rbp),%eax
    a4d3:	89 c1                	mov    %eax,%ecx
    a4d5:	d3 e2                	shl    %cl,%edx
    a4d7:	89 d0                	mov    %edx,%eax
    a4d9:	eb 04                	jmp    a4df <safe_lshift_func_int16_t_s_s+0x4d>
    a4db:	0f b7 45 fc          	movzwl -0x4(%rbp),%eax
    a4df:	5d                   	pop    %rbp
    a4e0:	c3                   	retq   

000000000000a4e1 <safe_lshift_func_int16_t_s_u>:
    a4e1:	f3 0f 1e fa          	endbr64 
    a4e5:	55                   	push   %rbp
    a4e6:	48 89 e5             	mov    %rsp,%rbp
    a4e9:	89 f8                	mov    %edi,%eax
    a4eb:	89 75 f8             	mov    %esi,-0x8(%rbp)
    a4ee:	66 89 45 fc          	mov    %ax,-0x4(%rbp)
    a4f2:	66 83 7d fc 00       	cmpw   $0x0,-0x4(%rbp)
    a4f7:	78 2b                	js     a524 <safe_lshift_func_int16_t_s_u+0x43>
    a4f9:	83 7d f8 1f          	cmpl   $0x1f,-0x8(%rbp)
    a4fd:	77 25                	ja     a524 <safe_lshift_func_int16_t_s_u+0x43>
    a4ff:	0f bf 55 fc          	movswl -0x4(%rbp),%edx
    a503:	8b 45 f8             	mov    -0x8(%rbp),%eax
    a506:	be ff 7f 00 00       	mov    $0x7fff,%esi
    a50b:	89 c1                	mov    %eax,%ecx
    a50d:	d3 fe                	sar    %cl,%esi
    a50f:	89 f0                	mov    %esi,%eax
    a511:	39 c2                	cmp    %eax,%edx
    a513:	7f 0f                	jg     a524 <safe_lshift_func_int16_t_s_u+0x43>
    a515:	0f bf 55 fc          	movswl -0x4(%rbp),%edx
    a519:	8b 45 f8             	mov    -0x8(%rbp),%eax
    a51c:	89 c1                	mov    %eax,%ecx
    a51e:	d3 e2                	shl    %cl,%edx
    a520:	89 d0                	mov    %edx,%eax
    a522:	eb 04                	jmp    a528 <safe_lshift_func_int16_t_s_u+0x47>
    a524:	0f b7 45 fc          	movzwl -0x4(%rbp),%eax
    a528:	5d                   	pop    %rbp
    a529:	c3                   	retq   

000000000000a52a <safe_rshift_func_int16_t_s_s>:
    a52a:	f3 0f 1e fa          	endbr64 
    a52e:	55                   	push   %rbp
    a52f:	48 89 e5             	mov    %rsp,%rbp
    a532:	89 f8                	mov    %edi,%eax
    a534:	89 75 f8             	mov    %esi,-0x8(%rbp)
    a537:	66 89 45 fc          	mov    %ax,-0x4(%rbp)
    a53b:	66 83 7d fc 00       	cmpw   $0x0,-0x4(%rbp)
    a540:	78 1b                	js     a55d <safe_rshift_func_int16_t_s_s+0x33>
    a542:	83 7d f8 00          	cmpl   $0x0,-0x8(%rbp)
    a546:	78 15                	js     a55d <safe_rshift_func_int16_t_s_s+0x33>
    a548:	83 7d f8 1f          	cmpl   $0x1f,-0x8(%rbp)
    a54c:	7f 0f                	jg     a55d <safe_rshift_func_int16_t_s_s+0x33>
    a54e:	0f bf 55 fc          	movswl -0x4(%rbp),%edx
    a552:	8b 45 f8             	mov    -0x8(%rbp),%eax
    a555:	89 c1                	mov    %eax,%ecx
    a557:	d3 fa                	sar    %cl,%edx
    a559:	89 d0                	mov    %edx,%eax
    a55b:	eb 04                	jmp    a561 <safe_rshift_func_int16_t_s_s+0x37>
    a55d:	0f b7 45 fc          	movzwl -0x4(%rbp),%eax
    a561:	5d                   	pop    %rbp
    a562:	c3                   	retq   

000000000000a563 <safe_rshift_func_int16_t_s_u>:
    a563:	f3 0f 1e fa          	endbr64 
    a567:	55                   	push   %rbp
    a568:	48 89 e5             	mov    %rsp,%rbp
    a56b:	89 f8                	mov    %edi,%eax
    a56d:	89 75 f8             	mov    %esi,-0x8(%rbp)
    a570:	66 89 45 fc          	mov    %ax,-0x4(%rbp)
    a574:	66 83 7d fc 00       	cmpw   $0x0,-0x4(%rbp)
    a579:	78 15                	js     a590 <safe_rshift_func_int16_t_s_u+0x2d>
    a57b:	83 7d f8 1f          	cmpl   $0x1f,-0x8(%rbp)
    a57f:	77 0f                	ja     a590 <safe_rshift_func_int16_t_s_u+0x2d>
    a581:	0f bf 55 fc          	movswl -0x4(%rbp),%edx
    a585:	8b 45 f8             	mov    -0x8(%rbp),%eax
    a588:	89 c1                	mov    %eax,%ecx
    a58a:	d3 fa                	sar    %cl,%edx
    a58c:	89 d0                	mov    %edx,%eax
    a58e:	eb 04                	jmp    a594 <safe_rshift_func_int16_t_s_u+0x31>
    a590:	0f b7 45 fc          	movzwl -0x4(%rbp),%eax
    a594:	5d                   	pop    %rbp
    a595:	c3                   	retq   

000000000000a596 <safe_unary_minus_func_int32_t_s>:
    a596:	f3 0f 1e fa          	endbr64 
    a59a:	55                   	push   %rbp
    a59b:	48 89 e5             	mov    %rsp,%rbp
    a59e:	89 7d fc             	mov    %edi,-0x4(%rbp)
    a5a1:	81 7d fc 00 00 00 80 	cmpl   $0x80000000,-0x4(%rbp)
    a5a8:	74 07                	je     a5b1 <safe_unary_minus_func_int32_t_s+0x1b>
    a5aa:	8b 45 fc             	mov    -0x4(%rbp),%eax
    a5ad:	f7 d8                	neg    %eax
    a5af:	eb 03                	jmp    a5b4 <safe_unary_minus_func_int32_t_s+0x1e>
    a5b1:	8b 45 fc             	mov    -0x4(%rbp),%eax
    a5b4:	5d                   	pop    %rbp
    a5b5:	c3                   	retq   

000000000000a5b6 <safe_add_func_int32_t_s_s>:
    a5b6:	f3 0f 1e fa          	endbr64 
    a5ba:	55                   	push   %rbp
    a5bb:	48 89 e5             	mov    %rsp,%rbp
    a5be:	89 7d fc             	mov    %edi,-0x4(%rbp)
    a5c1:	89 75 f8             	mov    %esi,-0x8(%rbp)
    a5c4:	83 7d fc 00          	cmpl   $0x0,-0x4(%rbp)
    a5c8:	7e 13                	jle    a5dd <safe_add_func_int32_t_s_s+0x27>
    a5ca:	83 7d f8 00          	cmpl   $0x0,-0x8(%rbp)
    a5ce:	7e 0d                	jle    a5dd <safe_add_func_int32_t_s_s+0x27>
    a5d0:	b8 ff ff ff 7f       	mov    $0x7fffffff,%eax
    a5d5:	2b 45 f8             	sub    -0x8(%rbp),%eax
    a5d8:	39 45 fc             	cmp    %eax,-0x4(%rbp)
    a5db:	7f 23                	jg     a600 <safe_add_func_int32_t_s_s+0x4a>
    a5dd:	83 7d fc 00          	cmpl   $0x0,-0x4(%rbp)
    a5e1:	79 13                	jns    a5f6 <safe_add_func_int32_t_s_s+0x40>
    a5e3:	83 7d f8 00          	cmpl   $0x0,-0x8(%rbp)
    a5e7:	79 0d                	jns    a5f6 <safe_add_func_int32_t_s_s+0x40>
    a5e9:	b8 00 00 00 80       	mov    $0x80000000,%eax
    a5ee:	2b 45 f8             	sub    -0x8(%rbp),%eax
    a5f1:	39 45 fc             	cmp    %eax,-0x4(%rbp)
    a5f4:	7c 0a                	jl     a600 <safe_add_func_int32_t_s_s+0x4a>
    a5f6:	8b 55 fc             	mov    -0x4(%rbp),%edx
    a5f9:	8b 45 f8             	mov    -0x8(%rbp),%eax
    a5fc:	01 d0                	add    %edx,%eax
    a5fe:	eb 03                	jmp    a603 <safe_add_func_int32_t_s_s+0x4d>
    a600:	8b 45 fc             	mov    -0x4(%rbp),%eax
    a603:	5d                   	pop    %rbp
    a604:	c3                   	retq   

000000000000a605 <safe_sub_func_int32_t_s_s>:
    a605:	f3 0f 1e fa          	endbr64 
    a609:	55                   	push   %rbp
    a60a:	48 89 e5             	mov    %rsp,%rbp
    a60d:	89 7d fc             	mov    %edi,-0x4(%rbp)
    a610:	89 75 f8             	mov    %esi,-0x8(%rbp)
    a613:	8b 45 fc             	mov    -0x4(%rbp),%eax
    a616:	33 45 f8             	xor    -0x8(%rbp),%eax
    a619:	89 c2                	mov    %eax,%edx
    a61b:	8b 45 fc             	mov    -0x4(%rbp),%eax
    a61e:	33 45 f8             	xor    -0x8(%rbp),%eax
    a621:	25 00 00 00 80       	and    $0x80000000,%eax
    a626:	33 45 fc             	xor    -0x4(%rbp),%eax
    a629:	2b 45 f8             	sub    -0x8(%rbp),%eax
    a62c:	33 45 f8             	xor    -0x8(%rbp),%eax
    a62f:	21 d0                	and    %edx,%eax
    a631:	85 c0                	test   %eax,%eax
    a633:	78 08                	js     a63d <safe_sub_func_int32_t_s_s+0x38>
    a635:	8b 45 fc             	mov    -0x4(%rbp),%eax
    a638:	2b 45 f8             	sub    -0x8(%rbp),%eax
    a63b:	eb 03                	jmp    a640 <safe_sub_func_int32_t_s_s+0x3b>
    a63d:	8b 45 fc             	mov    -0x4(%rbp),%eax
    a640:	5d                   	pop    %rbp
    a641:	c3                   	retq   

000000000000a642 <safe_mul_func_int32_t_s_s>:
    a642:	f3 0f 1e fa          	endbr64 
    a646:	55                   	push   %rbp
    a647:	48 89 e5             	mov    %rsp,%rbp
    a64a:	89 7d fc             	mov    %edi,-0x4(%rbp)
    a64d:	89 75 f8             	mov    %esi,-0x8(%rbp)
    a650:	83 7d fc 00          	cmpl   $0x0,-0x4(%rbp)
    a654:	7e 14                	jle    a66a <safe_mul_func_int32_t_s_s+0x28>
    a656:	83 7d f8 00          	cmpl   $0x0,-0x8(%rbp)
    a65a:	7e 0e                	jle    a66a <safe_mul_func_int32_t_s_s+0x28>
    a65c:	b8 ff ff ff 7f       	mov    $0x7fffffff,%eax
    a661:	99                   	cltd   
    a662:	f7 7d f8             	idivl  -0x8(%rbp)
    a665:	39 45 fc             	cmp    %eax,-0x4(%rbp)
    a668:	7f 5d                	jg     a6c7 <safe_mul_func_int32_t_s_s+0x85>
    a66a:	83 7d fc 00          	cmpl   $0x0,-0x4(%rbp)
    a66e:	7e 14                	jle    a684 <safe_mul_func_int32_t_s_s+0x42>
    a670:	83 7d f8 00          	cmpl   $0x0,-0x8(%rbp)
    a674:	7f 0e                	jg     a684 <safe_mul_func_int32_t_s_s+0x42>
    a676:	b8 00 00 00 80       	mov    $0x80000000,%eax
    a67b:	99                   	cltd   
    a67c:	f7 7d fc             	idivl  -0x4(%rbp)
    a67f:	39 45 f8             	cmp    %eax,-0x8(%rbp)
    a682:	7c 43                	jl     a6c7 <safe_mul_func_int32_t_s_s+0x85>
    a684:	83 7d fc 00          	cmpl   $0x0,-0x4(%rbp)
    a688:	7f 14                	jg     a69e <safe_mul_func_int32_t_s_s+0x5c>
    a68a:	83 7d f8 00          	cmpl   $0x0,-0x8(%rbp)
    a68e:	7e 0e                	jle    a69e <safe_mul_func_int32_t_s_s+0x5c>
    a690:	b8 00 00 00 80       	mov    $0x80000000,%eax
    a695:	99                   	cltd   
    a696:	f7 7d f8             	idivl  -0x8(%rbp)
    a699:	39 45 fc             	cmp    %eax,-0x4(%rbp)
    a69c:	7c 29                	jl     a6c7 <safe_mul_func_int32_t_s_s+0x85>
    a69e:	83 7d fc 00          	cmpl   $0x0,-0x4(%rbp)
    a6a2:	7f 1a                	jg     a6be <safe_mul_func_int32_t_s_s+0x7c>
    a6a4:	83 7d f8 00          	cmpl   $0x0,-0x8(%rbp)
    a6a8:	7f 14                	jg     a6be <safe_mul_func_int32_t_s_s+0x7c>
    a6aa:	83 7d fc 00          	cmpl   $0x0,-0x4(%rbp)
    a6ae:	74 0e                	je     a6be <safe_mul_func_int32_t_s_s+0x7c>
    a6b0:	b8 ff ff ff 7f       	mov    $0x7fffffff,%eax
    a6b5:	99                   	cltd   
    a6b6:	f7 7d fc             	idivl  -0x4(%rbp)
    a6b9:	39 45 f8             	cmp    %eax,-0x8(%rbp)
    a6bc:	7c 09                	jl     a6c7 <safe_mul_func_int32_t_s_s+0x85>
    a6be:	8b 45 fc             	mov    -0x4(%rbp),%eax
    a6c1:	0f af 45 f8          	imul   -0x8(%rbp),%eax
    a6c5:	eb 03                	jmp    a6ca <safe_mul_func_int32_t_s_s+0x88>
    a6c7:	8b 45 fc             	mov    -0x4(%rbp),%eax
    a6ca:	5d                   	pop    %rbp
    a6cb:	c3                   	retq   

000000000000a6cc <safe_mod_func_int32_t_s_s>:
    a6cc:	f3 0f 1e fa          	endbr64 
    a6d0:	55                   	push   %rbp
    a6d1:	48 89 e5             	mov    %rsp,%rbp
    a6d4:	89 7d fc             	mov    %edi,-0x4(%rbp)
    a6d7:	89 75 f8             	mov    %esi,-0x8(%rbp)
    a6da:	83 7d f8 00          	cmpl   $0x0,-0x8(%rbp)
    a6de:	74 1a                	je     a6fa <safe_mod_func_int32_t_s_s+0x2e>
    a6e0:	81 7d fc 00 00 00 80 	cmpl   $0x80000000,-0x4(%rbp)
    a6e7:	75 06                	jne    a6ef <safe_mod_func_int32_t_s_s+0x23>
    a6e9:	83 7d f8 ff          	cmpl   $0xffffffff,-0x8(%rbp)
    a6ed:	74 0b                	je     a6fa <safe_mod_func_int32_t_s_s+0x2e>
    a6ef:	8b 45 fc             	mov    -0x4(%rbp),%eax
    a6f2:	99                   	cltd   
    a6f3:	f7 7d f8             	idivl  -0x8(%rbp)
    a6f6:	89 d0                	mov    %edx,%eax
    a6f8:	eb 03                	jmp    a6fd <safe_mod_func_int32_t_s_s+0x31>
    a6fa:	8b 45 fc             	mov    -0x4(%rbp),%eax
    a6fd:	5d                   	pop    %rbp
    a6fe:	c3                   	retq   

000000000000a6ff <safe_div_func_int32_t_s_s>:
    a6ff:	f3 0f 1e fa          	endbr64 
    a703:	55                   	push   %rbp
    a704:	48 89 e5             	mov    %rsp,%rbp
    a707:	89 7d fc             	mov    %edi,-0x4(%rbp)
    a70a:	89 75 f8             	mov    %esi,-0x8(%rbp)
    a70d:	83 7d f8 00          	cmpl   $0x0,-0x8(%rbp)
    a711:	74 18                	je     a72b <safe_div_func_int32_t_s_s+0x2c>
    a713:	81 7d fc 00 00 00 80 	cmpl   $0x80000000,-0x4(%rbp)
    a71a:	75 06                	jne    a722 <safe_div_func_int32_t_s_s+0x23>
    a71c:	83 7d f8 ff          	cmpl   $0xffffffff,-0x8(%rbp)
    a720:	74 09                	je     a72b <safe_div_func_int32_t_s_s+0x2c>
    a722:	8b 45 fc             	mov    -0x4(%rbp),%eax
    a725:	99                   	cltd   
    a726:	f7 7d f8             	idivl  -0x8(%rbp)
    a729:	eb 03                	jmp    a72e <safe_div_func_int32_t_s_s+0x2f>
    a72b:	8b 45 fc             	mov    -0x4(%rbp),%eax
    a72e:	5d                   	pop    %rbp
    a72f:	c3                   	retq   

000000000000a730 <safe_lshift_func_int32_t_s_s>:
    a730:	f3 0f 1e fa          	endbr64 
    a734:	55                   	push   %rbp
    a735:	48 89 e5             	mov    %rsp,%rbp
    a738:	89 7d fc             	mov    %edi,-0x4(%rbp)
    a73b:	89 75 f8             	mov    %esi,-0x8(%rbp)
    a73e:	83 7d fc 00          	cmpl   $0x0,-0x4(%rbp)
    a742:	78 2d                	js     a771 <safe_lshift_func_int32_t_s_s+0x41>
    a744:	83 7d f8 00          	cmpl   $0x0,-0x8(%rbp)
    a748:	78 27                	js     a771 <safe_lshift_func_int32_t_s_s+0x41>
    a74a:	83 7d f8 1f          	cmpl   $0x1f,-0x8(%rbp)
    a74e:	7f 21                	jg     a771 <safe_lshift_func_int32_t_s_s+0x41>
    a750:	8b 45 f8             	mov    -0x8(%rbp),%eax
    a753:	ba ff ff ff 7f       	mov    $0x7fffffff,%edx
    a758:	89 c1                	mov    %eax,%ecx
    a75a:	d3 fa                	sar    %cl,%edx
    a75c:	89 d0                	mov    %edx,%eax
    a75e:	39 45 fc             	cmp    %eax,-0x4(%rbp)
    a761:	7f 0e                	jg     a771 <safe_lshift_func_int32_t_s_s+0x41>
    a763:	8b 45 f8             	mov    -0x8(%rbp),%eax
    a766:	8b 55 fc             	mov    -0x4(%rbp),%edx
    a769:	89 c1                	mov    %eax,%ecx
    a76b:	d3 e2                	shl    %cl,%edx
    a76d:	89 d0                	mov    %edx,%eax
    a76f:	eb 03                	jmp    a774 <safe_lshift_func_int32_t_s_s+0x44>
    a771:	8b 45 fc             	mov    -0x4(%rbp),%eax
    a774:	5d                   	pop    %rbp
    a775:	c3                   	retq   

000000000000a776 <safe_lshift_func_int32_t_s_u>:
    a776:	f3 0f 1e fa          	endbr64 
    a77a:	55                   	push   %rbp
    a77b:	48 89 e5             	mov    %rsp,%rbp
    a77e:	89 7d fc             	mov    %edi,-0x4(%rbp)
    a781:	89 75 f8             	mov    %esi,-0x8(%rbp)
    a784:	83 7d fc 00          	cmpl   $0x0,-0x4(%rbp)
    a788:	78 27                	js     a7b1 <safe_lshift_func_int32_t_s_u+0x3b>
    a78a:	83 7d f8 1f          	cmpl   $0x1f,-0x8(%rbp)
    a78e:	77 21                	ja     a7b1 <safe_lshift_func_int32_t_s_u+0x3b>
    a790:	8b 45 f8             	mov    -0x8(%rbp),%eax
    a793:	ba ff ff ff 7f       	mov    $0x7fffffff,%edx
    a798:	89 c1                	mov    %eax,%ecx
    a79a:	d3 fa                	sar    %cl,%edx
    a79c:	89 d0                	mov    %edx,%eax
    a79e:	39 45 fc             	cmp    %eax,-0x4(%rbp)
    a7a1:	7f 0e                	jg     a7b1 <safe_lshift_func_int32_t_s_u+0x3b>
    a7a3:	8b 45 f8             	mov    -0x8(%rbp),%eax
    a7a6:	8b 55 fc             	mov    -0x4(%rbp),%edx
    a7a9:	89 c1                	mov    %eax,%ecx
    a7ab:	d3 e2                	shl    %cl,%edx
    a7ad:	89 d0                	mov    %edx,%eax
    a7af:	eb 03                	jmp    a7b4 <safe_lshift_func_int32_t_s_u+0x3e>
    a7b1:	8b 45 fc             	mov    -0x4(%rbp),%eax
    a7b4:	5d                   	pop    %rbp
    a7b5:	c3                   	retq   

000000000000a7b6 <safe_rshift_func_int32_t_s_s>:
    a7b6:	f3 0f 1e fa          	endbr64 
    a7ba:	55                   	push   %rbp
    a7bb:	48 89 e5             	mov    %rsp,%rbp
    a7be:	89 7d fc             	mov    %edi,-0x4(%rbp)
    a7c1:	89 75 f8             	mov    %esi,-0x8(%rbp)
    a7c4:	83 7d fc 00          	cmpl   $0x0,-0x4(%rbp)
    a7c8:	78 1a                	js     a7e4 <safe_rshift_func_int32_t_s_s+0x2e>
    a7ca:	83 7d f8 00          	cmpl   $0x0,-0x8(%rbp)
    a7ce:	78 14                	js     a7e4 <safe_rshift_func_int32_t_s_s+0x2e>
    a7d0:	83 7d f8 1f          	cmpl   $0x1f,-0x8(%rbp)
    a7d4:	7f 0e                	jg     a7e4 <safe_rshift_func_int32_t_s_s+0x2e>
    a7d6:	8b 45 f8             	mov    -0x8(%rbp),%eax
    a7d9:	8b 55 fc             	mov    -0x4(%rbp),%edx
    a7dc:	89 c1                	mov    %eax,%ecx
    a7de:	d3 fa                	sar    %cl,%edx
    a7e0:	89 d0                	mov    %edx,%eax
    a7e2:	eb 03                	jmp    a7e7 <safe_rshift_func_int32_t_s_s+0x31>
    a7e4:	8b 45 fc             	mov    -0x4(%rbp),%eax
    a7e7:	5d                   	pop    %rbp
    a7e8:	c3                   	retq   

000000000000a7e9 <safe_rshift_func_int32_t_s_u>:
    a7e9:	f3 0f 1e fa          	endbr64 
    a7ed:	55                   	push   %rbp
    a7ee:	48 89 e5             	mov    %rsp,%rbp
    a7f1:	89 7d fc             	mov    %edi,-0x4(%rbp)
    a7f4:	89 75 f8             	mov    %esi,-0x8(%rbp)
    a7f7:	83 7d fc 00          	cmpl   $0x0,-0x4(%rbp)
    a7fb:	78 14                	js     a811 <safe_rshift_func_int32_t_s_u+0x28>
    a7fd:	83 7d f8 1f          	cmpl   $0x1f,-0x8(%rbp)
    a801:	77 0e                	ja     a811 <safe_rshift_func_int32_t_s_u+0x28>
    a803:	8b 45 f8             	mov    -0x8(%rbp),%eax
    a806:	8b 55 fc             	mov    -0x4(%rbp),%edx
    a809:	89 c1                	mov    %eax,%ecx
    a80b:	d3 fa                	sar    %cl,%edx
    a80d:	89 d0                	mov    %edx,%eax
    a80f:	eb 03                	jmp    a814 <safe_rshift_func_int32_t_s_u+0x2b>
    a811:	8b 45 fc             	mov    -0x4(%rbp),%eax
    a814:	5d                   	pop    %rbp
    a815:	c3                   	retq   

000000000000a816 <safe_unary_minus_func_int64_t_s>:
    a816:	f3 0f 1e fa          	endbr64 
    a81a:	55                   	push   %rbp
    a81b:	48 89 e5             	mov    %rsp,%rbp
    a81e:	48 89 7d f8          	mov    %rdi,-0x8(%rbp)
    a822:	48 b8 00 00 00 00 00 	movabs $0x8000000000000000,%rax
    a829:	00 00 80 
    a82c:	48 39 45 f8          	cmp    %rax,-0x8(%rbp)
    a830:	74 09                	je     a83b <safe_unary_minus_func_int64_t_s+0x25>
    a832:	48 8b 45 f8          	mov    -0x8(%rbp),%rax
    a836:	48 f7 d8             	neg    %rax
    a839:	eb 04                	jmp    a83f <safe_unary_minus_func_int64_t_s+0x29>
    a83b:	48 8b 45 f8          	mov    -0x8(%rbp),%rax
    a83f:	5d                   	pop    %rbp
    a840:	c3                   	retq   

000000000000a841 <safe_add_func_int64_t_s_s>:
    a841:	f3 0f 1e fa          	endbr64 
    a845:	55                   	push   %rbp
    a846:	48 89 e5             	mov    %rsp,%rbp
    a849:	48 89 7d f8          	mov    %rdi,-0x8(%rbp)
    a84d:	48 89 75 f0          	mov    %rsi,-0x10(%rbp)
    a851:	48 83 7d f8 00       	cmpq   $0x0,-0x8(%rbp)
    a856:	7e 1b                	jle    a873 <safe_add_func_int64_t_s_s+0x32>
    a858:	48 83 7d f0 00       	cmpq   $0x0,-0x10(%rbp)
    a85d:	7e 14                	jle    a873 <safe_add_func_int64_t_s_s+0x32>
    a85f:	48 b8 ff ff ff ff ff 	movabs $0x7fffffffffffffff,%rax
    a866:	ff ff 7f 
    a869:	48 2b 45 f0          	sub    -0x10(%rbp),%rax
    a86d:	48 39 45 f8          	cmp    %rax,-0x8(%rbp)
    a871:	7f 2f                	jg     a8a2 <safe_add_func_int64_t_s_s+0x61>
    a873:	48 83 7d f8 00       	cmpq   $0x0,-0x8(%rbp)
    a878:	79 1b                	jns    a895 <safe_add_func_int64_t_s_s+0x54>
    a87a:	48 83 7d f0 00       	cmpq   $0x0,-0x10(%rbp)
    a87f:	79 14                	jns    a895 <safe_add_func_int64_t_s_s+0x54>
    a881:	48 b8 00 00 00 00 00 	movabs $0x8000000000000000,%rax
    a888:	00 00 80 
    a88b:	48 2b 45 f0          	sub    -0x10(%rbp),%rax
    a88f:	48 39 45 f8          	cmp    %rax,-0x8(%rbp)
    a893:	7c 0d                	jl     a8a2 <safe_add_func_int64_t_s_s+0x61>
    a895:	48 8b 55 f8          	mov    -0x8(%rbp),%rdx
    a899:	48 8b 45 f0          	mov    -0x10(%rbp),%rax
    a89d:	48 01 d0             	add    %rdx,%rax
    a8a0:	eb 04                	jmp    a8a6 <safe_add_func_int64_t_s_s+0x65>
    a8a2:	48 8b 45 f8          	mov    -0x8(%rbp),%rax
    a8a6:	5d                   	pop    %rbp
    a8a7:	c3                   	retq   

000000000000a8a8 <safe_sub_func_int64_t_s_s>:
    a8a8:	f3 0f 1e fa          	endbr64 
    a8ac:	55                   	push   %rbp
    a8ad:	48 89 e5             	mov    %rsp,%rbp
    a8b0:	48 89 7d f8          	mov    %rdi,-0x8(%rbp)
    a8b4:	48 89 75 f0          	mov    %rsi,-0x10(%rbp)
    a8b8:	48 8b 45 f8          	mov    -0x8(%rbp),%rax
    a8bc:	48 33 45 f0          	xor    -0x10(%rbp),%rax
    a8c0:	48 89 c2             	mov    %rax,%rdx
    a8c3:	48 8b 45 f8          	mov    -0x8(%rbp),%rax
    a8c7:	48 33 45 f0          	xor    -0x10(%rbp),%rax
    a8cb:	48 b9 00 00 00 00 00 	movabs $0x8000000000000000,%rcx
    a8d2:	00 00 80 
    a8d5:	48 21 c8             	and    %rcx,%rax
    a8d8:	48 33 45 f8          	xor    -0x8(%rbp),%rax
    a8dc:	48 2b 45 f0          	sub    -0x10(%rbp),%rax
    a8e0:	48 33 45 f0          	xor    -0x10(%rbp),%rax
    a8e4:	48 21 d0             	and    %rdx,%rax
    a8e7:	48 85 c0             	test   %rax,%rax
    a8ea:	78 0a                	js     a8f6 <safe_sub_func_int64_t_s_s+0x4e>
    a8ec:	48 8b 45 f8          	mov    -0x8(%rbp),%rax
    a8f0:	48 2b 45 f0          	sub    -0x10(%rbp),%rax
    a8f4:	eb 04                	jmp    a8fa <safe_sub_func_int64_t_s_s+0x52>
    a8f6:	48 8b 45 f8          	mov    -0x8(%rbp),%rax
    a8fa:	5d                   	pop    %rbp
    a8fb:	c3                   	retq   

000000000000a8fc <safe_mul_func_int64_t_s_s>:
    a8fc:	f3 0f 1e fa          	endbr64 
    a900:	55                   	push   %rbp
    a901:	48 89 e5             	mov    %rsp,%rbp
    a904:	48 89 7d f8          	mov    %rdi,-0x8(%rbp)
    a908:	48 89 75 f0          	mov    %rsi,-0x10(%rbp)
    a90c:	48 83 7d f8 00       	cmpq   $0x0,-0x8(%rbp)
    a911:	7e 1d                	jle    a930 <safe_mul_func_int64_t_s_s+0x34>
    a913:	48 83 7d f0 00       	cmpq   $0x0,-0x10(%rbp)
    a918:	7e 16                	jle    a930 <safe_mul_func_int64_t_s_s+0x34>
    a91a:	48 b8 ff ff ff ff ff 	movabs $0x7fffffffffffffff,%rax
    a921:	ff ff 7f 
    a924:	48 99                	cqto   
    a926:	48 f7 7d f0          	idivq  -0x10(%rbp)
    a92a:	48 39 45 f8          	cmp    %rax,-0x8(%rbp)
    a92e:	7f 7e                	jg     a9ae <safe_mul_func_int64_t_s_s+0xb2>
    a930:	48 83 7d f8 00       	cmpq   $0x0,-0x8(%rbp)
    a935:	7e 1d                	jle    a954 <safe_mul_func_int64_t_s_s+0x58>
    a937:	48 83 7d f0 00       	cmpq   $0x0,-0x10(%rbp)
    a93c:	7f 16                	jg     a954 <safe_mul_func_int64_t_s_s+0x58>
    a93e:	48 b8 00 00 00 00 00 	movabs $0x8000000000000000,%rax
    a945:	00 00 80 
    a948:	48 99                	cqto   
    a94a:	48 f7 7d f8          	idivq  -0x8(%rbp)
    a94e:	48 39 45 f0          	cmp    %rax,-0x10(%rbp)
    a952:	7c 5a                	jl     a9ae <safe_mul_func_int64_t_s_s+0xb2>
    a954:	48 83 7d f8 00       	cmpq   $0x0,-0x8(%rbp)
    a959:	7f 1d                	jg     a978 <safe_mul_func_int64_t_s_s+0x7c>
    a95b:	48 83 7d f0 00       	cmpq   $0x0,-0x10(%rbp)
    a960:	7e 16                	jle    a978 <safe_mul_func_int64_t_s_s+0x7c>
    a962:	48 b8 00 00 00 00 00 	movabs $0x8000000000000000,%rax
    a969:	00 00 80 
    a96c:	48 99                	cqto   
    a96e:	48 f7 7d f0          	idivq  -0x10(%rbp)
    a972:	48 39 45 f8          	cmp    %rax,-0x8(%rbp)
    a976:	7c 36                	jl     a9ae <safe_mul_func_int64_t_s_s+0xb2>
    a978:	48 83 7d f8 00       	cmpq   $0x0,-0x8(%rbp)
    a97d:	7f 24                	jg     a9a3 <safe_mul_func_int64_t_s_s+0xa7>
    a97f:	48 83 7d f0 00       	cmpq   $0x0,-0x10(%rbp)
    a984:	7f 1d                	jg     a9a3 <safe_mul_func_int64_t_s_s+0xa7>
    a986:	48 83 7d f8 00       	cmpq   $0x0,-0x8(%rbp)
    a98b:	74 16                	je     a9a3 <safe_mul_func_int64_t_s_s+0xa7>
    a98d:	48 b8 ff ff ff ff ff 	movabs $0x7fffffffffffffff,%rax
    a994:	ff ff 7f 
    a997:	48 99                	cqto   
    a999:	48 f7 7d f8          	idivq  -0x8(%rbp)
    a99d:	48 39 45 f0          	cmp    %rax,-0x10(%rbp)
    a9a1:	7c 0b                	jl     a9ae <safe_mul_func_int64_t_s_s+0xb2>
    a9a3:	48 8b 45 f8          	mov    -0x8(%rbp),%rax
    a9a7:	48 0f af 45 f0       	imul   -0x10(%rbp),%rax
    a9ac:	eb 04                	jmp    a9b2 <safe_mul_func_int64_t_s_s+0xb6>
    a9ae:	48 8b 45 f8          	mov    -0x8(%rbp),%rax
    a9b2:	5d                   	pop    %rbp
    a9b3:	c3                   	retq   

000000000000a9b4 <safe_mod_func_int64_t_s_s>:
    a9b4:	f3 0f 1e fa          	endbr64 
    a9b8:	55                   	push   %rbp
    a9b9:	48 89 e5             	mov    %rsp,%rbp
    a9bc:	48 89 7d f8          	mov    %rdi,-0x8(%rbp)
    a9c0:	48 89 75 f0          	mov    %rsi,-0x10(%rbp)
    a9c4:	48 83 7d f0 00       	cmpq   $0x0,-0x10(%rbp)
    a9c9:	74 26                	je     a9f1 <safe_mod_func_int64_t_s_s+0x3d>
    a9cb:	48 b8 00 00 00 00 00 	movabs $0x8000000000000000,%rax
    a9d2:	00 00 80 
    a9d5:	48 39 45 f8          	cmp    %rax,-0x8(%rbp)
    a9d9:	75 07                	jne    a9e2 <safe_mod_func_int64_t_s_s+0x2e>
    a9db:	48 83 7d f0 ff       	cmpq   $0xffffffffffffffff,-0x10(%rbp)
    a9e0:	74 0f                	je     a9f1 <safe_mod_func_int64_t_s_s+0x3d>
    a9e2:	48 8b 45 f8          	mov    -0x8(%rbp),%rax
    a9e6:	48 99                	cqto   
    a9e8:	48 f7 7d f0          	idivq  -0x10(%rbp)
    a9ec:	48 89 d0             	mov    %rdx,%rax
    a9ef:	eb 04                	jmp    a9f5 <safe_mod_func_int64_t_s_s+0x41>
    a9f1:	48 8b 45 f8          	mov    -0x8(%rbp),%rax
    a9f5:	5d                   	pop    %rbp
    a9f6:	c3                   	retq   

000000000000a9f7 <safe_div_func_int64_t_s_s>:
    a9f7:	f3 0f 1e fa          	endbr64 
    a9fb:	55                   	push   %rbp
    a9fc:	48 89 e5             	mov    %rsp,%rbp
    a9ff:	48 89 7d f8          	mov    %rdi,-0x8(%rbp)
    aa03:	48 89 75 f0          	mov    %rsi,-0x10(%rbp)
    aa07:	48 83 7d f0 00       	cmpq   $0x0,-0x10(%rbp)
    aa0c:	74 23                	je     aa31 <safe_div_func_int64_t_s_s+0x3a>
    aa0e:	48 b8 00 00 00 00 00 	movabs $0x8000000000000000,%rax
    aa15:	00 00 80 
    aa18:	48 39 45 f8          	cmp    %rax,-0x8(%rbp)
    aa1c:	75 07                	jne    aa25 <safe_div_func_int64_t_s_s+0x2e>
    aa1e:	48 83 7d f0 ff       	cmpq   $0xffffffffffffffff,-0x10(%rbp)
    aa23:	74 0c                	je     aa31 <safe_div_func_int64_t_s_s+0x3a>
    aa25:	48 8b 45 f8          	mov    -0x8(%rbp),%rax
    aa29:	48 99                	cqto   
    aa2b:	48 f7 7d f0          	idivq  -0x10(%rbp)
    aa2f:	eb 04                	jmp    aa35 <safe_div_func_int64_t_s_s+0x3e>
    aa31:	48 8b 45 f8          	mov    -0x8(%rbp),%rax
    aa35:	5d                   	pop    %rbp
    aa36:	c3                   	retq   

000000000000aa37 <safe_lshift_func_int64_t_s_s>:
    aa37:	f3 0f 1e fa          	endbr64 
    aa3b:	55                   	push   %rbp
    aa3c:	48 89 e5             	mov    %rsp,%rbp
    aa3f:	48 89 7d f8          	mov    %rdi,-0x8(%rbp)
    aa43:	89 75 f4             	mov    %esi,-0xc(%rbp)
    aa46:	48 83 7d f8 00       	cmpq   $0x0,-0x8(%rbp)
    aa4b:	78 38                	js     aa85 <safe_lshift_func_int64_t_s_s+0x4e>
    aa4d:	83 7d f4 00          	cmpl   $0x0,-0xc(%rbp)
    aa51:	78 32                	js     aa85 <safe_lshift_func_int64_t_s_s+0x4e>
    aa53:	83 7d f4 1f          	cmpl   $0x1f,-0xc(%rbp)
    aa57:	7f 2c                	jg     aa85 <safe_lshift_func_int64_t_s_s+0x4e>
    aa59:	8b 45 f4             	mov    -0xc(%rbp),%eax
    aa5c:	48 ba ff ff ff ff ff 	movabs $0x7fffffffffffffff,%rdx
    aa63:	ff ff 7f 
    aa66:	89 c1                	mov    %eax,%ecx
    aa68:	48 d3 fa             	sar    %cl,%rdx
    aa6b:	48 89 d0             	mov    %rdx,%rax
    aa6e:	48 39 45 f8          	cmp    %rax,-0x8(%rbp)
    aa72:	7f 11                	jg     aa85 <safe_lshift_func_int64_t_s_s+0x4e>
    aa74:	8b 45 f4             	mov    -0xc(%rbp),%eax
    aa77:	48 8b 55 f8          	mov    -0x8(%rbp),%rdx
    aa7b:	89 c1                	mov    %eax,%ecx
    aa7d:	48 d3 e2             	shl    %cl,%rdx
    aa80:	48 89 d0             	mov    %rdx,%rax
    aa83:	eb 04                	jmp    aa89 <safe_lshift_func_int64_t_s_s+0x52>
    aa85:	48 8b 45 f8          	mov    -0x8(%rbp),%rax
    aa89:	5d                   	pop    %rbp
    aa8a:	c3                   	retq   

000000000000aa8b <safe_lshift_func_int64_t_s_u>:
    aa8b:	f3 0f 1e fa          	endbr64 
    aa8f:	55                   	push   %rbp
    aa90:	48 89 e5             	mov    %rsp,%rbp
    aa93:	48 89 7d f8          	mov    %rdi,-0x8(%rbp)
    aa97:	89 75 f4             	mov    %esi,-0xc(%rbp)
    aa9a:	48 83 7d f8 00       	cmpq   $0x0,-0x8(%rbp)
    aa9f:	78 32                	js     aad3 <safe_lshift_func_int64_t_s_u+0x48>
    aaa1:	83 7d f4 1f          	cmpl   $0x1f,-0xc(%rbp)
    aaa5:	77 2c                	ja     aad3 <safe_lshift_func_int64_t_s_u+0x48>
    aaa7:	8b 45 f4             	mov    -0xc(%rbp),%eax
    aaaa:	48 ba ff ff ff ff ff 	movabs $0x7fffffffffffffff,%rdx
    aab1:	ff ff 7f 
    aab4:	89 c1                	mov    %eax,%ecx
    aab6:	48 d3 fa             	sar    %cl,%rdx
    aab9:	48 89 d0             	mov    %rdx,%rax
    aabc:	48 39 45 f8          	cmp    %rax,-0x8(%rbp)
    aac0:	7f 11                	jg     aad3 <safe_lshift_func_int64_t_s_u+0x48>
    aac2:	8b 45 f4             	mov    -0xc(%rbp),%eax
    aac5:	48 8b 55 f8          	mov    -0x8(%rbp),%rdx
    aac9:	89 c1                	mov    %eax,%ecx
    aacb:	48 d3 e2             	shl    %cl,%rdx
    aace:	48 89 d0             	mov    %rdx,%rax
    aad1:	eb 04                	jmp    aad7 <safe_lshift_func_int64_t_s_u+0x4c>
    aad3:	48 8b 45 f8          	mov    -0x8(%rbp),%rax
    aad7:	5d                   	pop    %rbp
    aad8:	c3                   	retq   

000000000000aad9 <safe_rshift_func_int64_t_s_s>:
    aad9:	f3 0f 1e fa          	endbr64 
    aadd:	55                   	push   %rbp
    aade:	48 89 e5             	mov    %rsp,%rbp
    aae1:	48 89 7d f8          	mov    %rdi,-0x8(%rbp)
    aae5:	89 75 f4             	mov    %esi,-0xc(%rbp)
    aae8:	48 83 7d f8 00       	cmpq   $0x0,-0x8(%rbp)
    aaed:	78 1d                	js     ab0c <safe_rshift_func_int64_t_s_s+0x33>
    aaef:	83 7d f4 00          	cmpl   $0x0,-0xc(%rbp)
    aaf3:	78 17                	js     ab0c <safe_rshift_func_int64_t_s_s+0x33>
    aaf5:	83 7d f4 1f          	cmpl   $0x1f,-0xc(%rbp)
    aaf9:	7f 11                	jg     ab0c <safe_rshift_func_int64_t_s_s+0x33>
    aafb:	8b 45 f4             	mov    -0xc(%rbp),%eax
    aafe:	48 8b 55 f8          	mov    -0x8(%rbp),%rdx
    ab02:	89 c1                	mov    %eax,%ecx
    ab04:	48 d3 fa             	sar    %cl,%rdx
    ab07:	48 89 d0             	mov    %rdx,%rax
    ab0a:	eb 04                	jmp    ab10 <safe_rshift_func_int64_t_s_s+0x37>
    ab0c:	48 8b 45 f8          	mov    -0x8(%rbp),%rax
    ab10:	5d                   	pop    %rbp
    ab11:	c3                   	retq   

000000000000ab12 <safe_rshift_func_int64_t_s_u>:
    ab12:	f3 0f 1e fa          	endbr64 
    ab16:	55                   	push   %rbp
    ab17:	48 89 e5             	mov    %rsp,%rbp
    ab1a:	48 89 7d f8          	mov    %rdi,-0x8(%rbp)
    ab1e:	89 75 f4             	mov    %esi,-0xc(%rbp)
    ab21:	48 83 7d f8 00       	cmpq   $0x0,-0x8(%rbp)
    ab26:	78 17                	js     ab3f <safe_rshift_func_int64_t_s_u+0x2d>
    ab28:	83 7d f4 1f          	cmpl   $0x1f,-0xc(%rbp)
    ab2c:	77 11                	ja     ab3f <safe_rshift_func_int64_t_s_u+0x2d>
    ab2e:	8b 45 f4             	mov    -0xc(%rbp),%eax
    ab31:	48 8b 55 f8          	mov    -0x8(%rbp),%rdx
    ab35:	89 c1                	mov    %eax,%ecx
    ab37:	48 d3 fa             	sar    %cl,%rdx
    ab3a:	48 89 d0             	mov    %rdx,%rax
    ab3d:	eb 04                	jmp    ab43 <safe_rshift_func_int64_t_s_u+0x31>
    ab3f:	48 8b 45 f8          	mov    -0x8(%rbp),%rax
    ab43:	5d                   	pop    %rbp
    ab44:	c3                   	retq   

000000000000ab45 <safe_unary_minus_func_uint8_t_u>:
    ab45:	f3 0f 1e fa          	endbr64 
    ab49:	55                   	push   %rbp
    ab4a:	48 89 e5             	mov    %rsp,%rbp
    ab4d:	89 f8                	mov    %edi,%eax
    ab4f:	88 45 fc             	mov    %al,-0x4(%rbp)
    ab52:	0f b6 45 fc          	movzbl -0x4(%rbp),%eax
    ab56:	f7 d8                	neg    %eax
    ab58:	5d                   	pop    %rbp
    ab59:	c3                   	retq   

000000000000ab5a <safe_add_func_uint8_t_u_u>:
    ab5a:	f3 0f 1e fa          	endbr64 
    ab5e:	55                   	push   %rbp
    ab5f:	48 89 e5             	mov    %rsp,%rbp
    ab62:	89 fa                	mov    %edi,%edx
    ab64:	89 f0                	mov    %esi,%eax
    ab66:	88 55 fc             	mov    %dl,-0x4(%rbp)
    ab69:	88 45 f8             	mov    %al,-0x8(%rbp)
    ab6c:	0f b6 55 fc          	movzbl -0x4(%rbp),%edx
    ab70:	0f b6 45 f8          	movzbl -0x8(%rbp),%eax
    ab74:	01 d0                	add    %edx,%eax
    ab76:	5d                   	pop    %rbp
    ab77:	c3                   	retq   

000000000000ab78 <safe_sub_func_uint8_t_u_u>:
    ab78:	f3 0f 1e fa          	endbr64 
    ab7c:	55                   	push   %rbp
    ab7d:	48 89 e5             	mov    %rsp,%rbp
    ab80:	89 fa                	mov    %edi,%edx
    ab82:	89 f0                	mov    %esi,%eax
    ab84:	88 55 fc             	mov    %dl,-0x4(%rbp)
    ab87:	88 45 f8             	mov    %al,-0x8(%rbp)
    ab8a:	0f b6 45 fc          	movzbl -0x4(%rbp),%eax
    ab8e:	2a 45 f8             	sub    -0x8(%rbp),%al
    ab91:	5d                   	pop    %rbp
    ab92:	c3                   	retq   

000000000000ab93 <safe_mul_func_uint8_t_u_u>:
    ab93:	f3 0f 1e fa          	endbr64 
    ab97:	55                   	push   %rbp
    ab98:	48 89 e5             	mov    %rsp,%rbp
    ab9b:	89 fa                	mov    %edi,%edx
    ab9d:	89 f0                	mov    %esi,%eax
    ab9f:	88 55 fc             	mov    %dl,-0x4(%rbp)
    aba2:	88 45 f8             	mov    %al,-0x8(%rbp)
    aba5:	0f b6 45 fc          	movzbl -0x4(%rbp),%eax
    aba9:	f6 65 f8             	mulb   -0x8(%rbp)
    abac:	5d                   	pop    %rbp
    abad:	c3                   	retq   

000000000000abae <safe_mod_func_uint8_t_u_u>:
    abae:	f3 0f 1e fa          	endbr64 
    abb2:	55                   	push   %rbp
    abb3:	48 89 e5             	mov    %rsp,%rbp
    abb6:	89 fa                	mov    %edi,%edx
    abb8:	89 f0                	mov    %esi,%eax
    abba:	88 55 fc             	mov    %dl,-0x4(%rbp)
    abbd:	88 45 f8             	mov    %al,-0x8(%rbp)
    abc0:	80 7d f8 00          	cmpb   $0x0,-0x8(%rbp)
    abc4:	74 0f                	je     abd5 <safe_mod_func_uint8_t_u_u+0x27>
    abc6:	0f b6 45 fc          	movzbl -0x4(%rbp),%eax
    abca:	0f b6 c0             	movzbl %al,%eax
    abcd:	f6 75 f8             	divb   -0x8(%rbp)
    abd0:	0f b6 c4             	movzbl %ah,%eax
    abd3:	eb 04                	jmp    abd9 <safe_mod_func_uint8_t_u_u+0x2b>
    abd5:	0f b6 45 fc          	movzbl -0x4(%rbp),%eax
    abd9:	5d                   	pop    %rbp
    abda:	c3                   	retq   

000000000000abdb <safe_div_func_uint8_t_u_u>:
    abdb:	f3 0f 1e fa          	endbr64 
    abdf:	55                   	push   %rbp
    abe0:	48 89 e5             	mov    %rsp,%rbp
    abe3:	89 fa                	mov    %edi,%edx
    abe5:	89 f0                	mov    %esi,%eax
    abe7:	88 55 fc             	mov    %dl,-0x4(%rbp)
    abea:	88 45 f8             	mov    %al,-0x8(%rbp)
    abed:	80 7d f8 00          	cmpb   $0x0,-0x8(%rbp)
    abf1:	74 0c                	je     abff <safe_div_func_uint8_t_u_u+0x24>
    abf3:	0f b6 45 fc          	movzbl -0x4(%rbp),%eax
    abf7:	0f b6 c0             	movzbl %al,%eax
    abfa:	f6 75 f8             	divb   -0x8(%rbp)
    abfd:	eb 04                	jmp    ac03 <safe_div_func_uint8_t_u_u+0x28>
    abff:	0f b6 45 fc          	movzbl -0x4(%rbp),%eax
    ac03:	5d                   	pop    %rbp
    ac04:	c3                   	retq   

000000000000ac05 <safe_lshift_func_uint8_t_u_s>:
    ac05:	f3 0f 1e fa          	endbr64 
    ac09:	55                   	push   %rbp
    ac0a:	48 89 e5             	mov    %rsp,%rbp
    ac0d:	89 f8                	mov    %edi,%eax
    ac0f:	89 75 f8             	mov    %esi,-0x8(%rbp)
    ac12:	88 45 fc             	mov    %al,-0x4(%rbp)
    ac15:	83 7d f8 00          	cmpl   $0x0,-0x8(%rbp)
    ac19:	78 2b                	js     ac46 <safe_lshift_func_uint8_t_u_s+0x41>
    ac1b:	83 7d f8 1f          	cmpl   $0x1f,-0x8(%rbp)
    ac1f:	7f 25                	jg     ac46 <safe_lshift_func_uint8_t_u_s+0x41>
    ac21:	0f b6 55 fc          	movzbl -0x4(%rbp),%edx
    ac25:	8b 45 f8             	mov    -0x8(%rbp),%eax
    ac28:	be ff 00 00 00       	mov    $0xff,%esi
    ac2d:	89 c1                	mov    %eax,%ecx
    ac2f:	d3 fe                	sar    %cl,%esi
    ac31:	89 f0                	mov    %esi,%eax
    ac33:	39 c2                	cmp    %eax,%edx
    ac35:	7f 0f                	jg     ac46 <safe_lshift_func_uint8_t_u_s+0x41>
    ac37:	0f b6 55 fc          	movzbl -0x4(%rbp),%edx
    ac3b:	8b 45 f8             	mov    -0x8(%rbp),%eax
    ac3e:	89 c1                	mov    %eax,%ecx
    ac40:	d3 e2                	shl    %cl,%edx
    ac42:	89 d0                	mov    %edx,%eax
    ac44:	eb 04                	jmp    ac4a <safe_lshift_func_uint8_t_u_s+0x45>
    ac46:	0f b6 45 fc          	movzbl -0x4(%rbp),%eax
    ac4a:	5d                   	pop    %rbp
    ac4b:	c3                   	retq   

000000000000ac4c <safe_lshift_func_uint8_t_u_u>:
    ac4c:	f3 0f 1e fa          	endbr64 
    ac50:	55                   	push   %rbp
    ac51:	48 89 e5             	mov    %rsp,%rbp
    ac54:	89 f8                	mov    %edi,%eax
    ac56:	89 75 f8             	mov    %esi,-0x8(%rbp)
    ac59:	88 45 fc             	mov    %al,-0x4(%rbp)
    ac5c:	83 7d f8 1f          	cmpl   $0x1f,-0x8(%rbp)
    ac60:	77 25                	ja     ac87 <safe_lshift_func_uint8_t_u_u+0x3b>
    ac62:	0f b6 55 fc          	movzbl -0x4(%rbp),%edx
    ac66:	8b 45 f8             	mov    -0x8(%rbp),%eax
    ac69:	be ff 00 00 00       	mov    $0xff,%esi
    ac6e:	89 c1                	mov    %eax,%ecx
    ac70:	d3 fe                	sar    %cl,%esi
    ac72:	89 f0                	mov    %esi,%eax
    ac74:	39 c2                	cmp    %eax,%edx
    ac76:	7f 0f                	jg     ac87 <safe_lshift_func_uint8_t_u_u+0x3b>
    ac78:	0f b6 55 fc          	movzbl -0x4(%rbp),%edx
    ac7c:	8b 45 f8             	mov    -0x8(%rbp),%eax
    ac7f:	89 c1                	mov    %eax,%ecx
    ac81:	d3 e2                	shl    %cl,%edx
    ac83:	89 d0                	mov    %edx,%eax
    ac85:	eb 04                	jmp    ac8b <safe_lshift_func_uint8_t_u_u+0x3f>
    ac87:	0f b6 45 fc          	movzbl -0x4(%rbp),%eax
    ac8b:	5d                   	pop    %rbp
    ac8c:	c3                   	retq   

000000000000ac8d <safe_rshift_func_uint8_t_u_s>:
    ac8d:	f3 0f 1e fa          	endbr64 
    ac91:	55                   	push   %rbp
    ac92:	48 89 e5             	mov    %rsp,%rbp
    ac95:	89 f8                	mov    %edi,%eax
    ac97:	89 75 f8             	mov    %esi,-0x8(%rbp)
    ac9a:	88 45 fc             	mov    %al,-0x4(%rbp)
    ac9d:	83 7d f8 00          	cmpl   $0x0,-0x8(%rbp)
    aca1:	78 15                	js     acb8 <safe_rshift_func_uint8_t_u_s+0x2b>
    aca3:	83 7d f8 1f          	cmpl   $0x1f,-0x8(%rbp)
    aca7:	7f 0f                	jg     acb8 <safe_rshift_func_uint8_t_u_s+0x2b>
    aca9:	0f b6 55 fc          	movzbl -0x4(%rbp),%edx
    acad:	8b 45 f8             	mov    -0x8(%rbp),%eax
    acb0:	89 c1                	mov    %eax,%ecx
    acb2:	d3 fa                	sar    %cl,%edx
    acb4:	89 d0                	mov    %edx,%eax
    acb6:	eb 04                	jmp    acbc <safe_rshift_func_uint8_t_u_s+0x2f>
    acb8:	0f b6 45 fc          	movzbl -0x4(%rbp),%eax
    acbc:	5d                   	pop    %rbp
    acbd:	c3                   	retq   

000000000000acbe <safe_rshift_func_uint8_t_u_u>:
    acbe:	f3 0f 1e fa          	endbr64 
    acc2:	55                   	push   %rbp
    acc3:	48 89 e5             	mov    %rsp,%rbp
    acc6:	89 f8                	mov    %edi,%eax
    acc8:	89 75 f8             	mov    %esi,-0x8(%rbp)
    accb:	88 45 fc             	mov    %al,-0x4(%rbp)
    acce:	83 7d f8 1f          	cmpl   $0x1f,-0x8(%rbp)
    acd2:	77 0f                	ja     ace3 <safe_rshift_func_uint8_t_u_u+0x25>
    acd4:	0f b6 55 fc          	movzbl -0x4(%rbp),%edx
    acd8:	8b 45 f8             	mov    -0x8(%rbp),%eax
    acdb:	89 c1                	mov    %eax,%ecx
    acdd:	d3 fa                	sar    %cl,%edx
    acdf:	89 d0                	mov    %edx,%eax
    ace1:	eb 04                	jmp    ace7 <safe_rshift_func_uint8_t_u_u+0x29>
    ace3:	0f b6 45 fc          	movzbl -0x4(%rbp),%eax
    ace7:	5d                   	pop    %rbp
    ace8:	c3                   	retq   

000000000000ace9 <safe_unary_minus_func_uint16_t_u>:
    ace9:	f3 0f 1e fa          	endbr64 
    aced:	55                   	push   %rbp
    acee:	48 89 e5             	mov    %rsp,%rbp
    acf1:	89 f8                	mov    %edi,%eax
    acf3:	66 89 45 fc          	mov    %ax,-0x4(%rbp)
    acf7:	0f b7 45 fc          	movzwl -0x4(%rbp),%eax
    acfb:	f7 d8                	neg    %eax
    acfd:	5d                   	pop    %rbp
    acfe:	c3                   	retq   

000000000000acff <safe_add_func_uint16_t_u_u>:
    acff:	f3 0f 1e fa          	endbr64 
    ad03:	55                   	push   %rbp
    ad04:	48 89 e5             	mov    %rsp,%rbp
    ad07:	89 fa                	mov    %edi,%edx
    ad09:	89 f0                	mov    %esi,%eax
    ad0b:	66 89 55 fc          	mov    %dx,-0x4(%rbp)
    ad0f:	66 89 45 f8          	mov    %ax,-0x8(%rbp)
    ad13:	0f b7 55 fc          	movzwl -0x4(%rbp),%edx
    ad17:	0f b7 45 f8          	movzwl -0x8(%rbp),%eax
    ad1b:	01 d0                	add    %edx,%eax
    ad1d:	5d                   	pop    %rbp
    ad1e:	c3                   	retq   

000000000000ad1f <safe_sub_func_uint16_t_u_u>:
    ad1f:	f3 0f 1e fa          	endbr64 
    ad23:	55                   	push   %rbp
    ad24:	48 89 e5             	mov    %rsp,%rbp
    ad27:	89 fa                	mov    %edi,%edx
    ad29:	89 f0                	mov    %esi,%eax
    ad2b:	66 89 55 fc          	mov    %dx,-0x4(%rbp)
    ad2f:	66 89 45 f8          	mov    %ax,-0x8(%rbp)
    ad33:	0f b7 45 fc          	movzwl -0x4(%rbp),%eax
    ad37:	66 2b 45 f8          	sub    -0x8(%rbp),%ax
    ad3b:	5d                   	pop    %rbp
    ad3c:	c3                   	retq   

000000000000ad3d <safe_mul_func_uint16_t_u_u>:
    ad3d:	f3 0f 1e fa          	endbr64 
    ad41:	55                   	push   %rbp
    ad42:	48 89 e5             	mov    %rsp,%rbp
    ad45:	89 fa                	mov    %edi,%edx
    ad47:	89 f0                	mov    %esi,%eax
    ad49:	66 89 55 fc          	mov    %dx,-0x4(%rbp)
    ad4d:	66 89 45 f8          	mov    %ax,-0x8(%rbp)
    ad51:	0f b7 45 fc          	movzwl -0x4(%rbp),%eax
    ad55:	66 0f af 45 f8       	imul   -0x8(%rbp),%ax
    ad5a:	5d                   	pop    %rbp
    ad5b:	c3                   	retq   

000000000000ad5c <safe_mod_func_uint16_t_u_u>:
    ad5c:	f3 0f 1e fa          	endbr64 
    ad60:	55                   	push   %rbp
    ad61:	48 89 e5             	mov    %rsp,%rbp
    ad64:	89 fa                	mov    %edi,%edx
    ad66:	89 f0                	mov    %esi,%eax
    ad68:	66 89 55 fc          	mov    %dx,-0x4(%rbp)
    ad6c:	66 89 45 f8          	mov    %ax,-0x8(%rbp)
    ad70:	66 83 7d f8 00       	cmpw   $0x0,-0x8(%rbp)
    ad75:	74 11                	je     ad88 <safe_mod_func_uint16_t_u_u+0x2c>
    ad77:	0f b7 45 fc          	movzwl -0x4(%rbp),%eax
    ad7b:	ba 00 00 00 00       	mov    $0x0,%edx
    ad80:	66 f7 75 f8          	divw   -0x8(%rbp)
    ad84:	89 d0                	mov    %edx,%eax
    ad86:	eb 04                	jmp    ad8c <safe_mod_func_uint16_t_u_u+0x30>
    ad88:	0f b7 45 fc          	movzwl -0x4(%rbp),%eax
    ad8c:	5d                   	pop    %rbp
    ad8d:	c3                   	retq   

000000000000ad8e <safe_div_func_uint16_t_u_u>:
    ad8e:	f3 0f 1e fa          	endbr64 
    ad92:	55                   	push   %rbp
    ad93:	48 89 e5             	mov    %rsp,%rbp
    ad96:	89 fa                	mov    %edi,%edx
    ad98:	89 f0                	mov    %esi,%eax
    ad9a:	66 89 55 fc          	mov    %dx,-0x4(%rbp)
    ad9e:	66 89 45 f8          	mov    %ax,-0x8(%rbp)
    ada2:	66 83 7d f8 00       	cmpw   $0x0,-0x8(%rbp)
    ada7:	74 0f                	je     adb8 <safe_div_func_uint16_t_u_u+0x2a>
    ada9:	0f b7 45 fc          	movzwl -0x4(%rbp),%eax
    adad:	ba 00 00 00 00       	mov    $0x0,%edx
    adb2:	66 f7 75 f8          	divw   -0x8(%rbp)
    adb6:	eb 04                	jmp    adbc <safe_div_func_uint16_t_u_u+0x2e>
    adb8:	0f b7 45 fc          	movzwl -0x4(%rbp),%eax
    adbc:	5d                   	pop    %rbp
    adbd:	c3                   	retq   

000000000000adbe <safe_lshift_func_uint16_t_u_s>:
    adbe:	f3 0f 1e fa          	endbr64 
    adc2:	55                   	push   %rbp
    adc3:	48 89 e5             	mov    %rsp,%rbp
    adc6:	89 f8                	mov    %edi,%eax
    adc8:	89 75 f8             	mov    %esi,-0x8(%rbp)
    adcb:	66 89 45 fc          	mov    %ax,-0x4(%rbp)
    adcf:	83 7d f8 00          	cmpl   $0x0,-0x8(%rbp)
    add3:	78 2b                	js     ae00 <safe_lshift_func_uint16_t_u_s+0x42>
    add5:	83 7d f8 1f          	cmpl   $0x1f,-0x8(%rbp)
    add9:	7f 25                	jg     ae00 <safe_lshift_func_uint16_t_u_s+0x42>
    addb:	0f b7 55 fc          	movzwl -0x4(%rbp),%edx
    addf:	8b 45 f8             	mov    -0x8(%rbp),%eax
    ade2:	be ff ff 00 00       	mov    $0xffff,%esi
    ade7:	89 c1                	mov    %eax,%ecx
    ade9:	d3 fe                	sar    %cl,%esi
    adeb:	89 f0                	mov    %esi,%eax
    aded:	39 c2                	cmp    %eax,%edx
    adef:	7f 0f                	jg     ae00 <safe_lshift_func_uint16_t_u_s+0x42>
    adf1:	0f b7 55 fc          	movzwl -0x4(%rbp),%edx
    adf5:	8b 45 f8             	mov    -0x8(%rbp),%eax
    adf8:	89 c1                	mov    %eax,%ecx
    adfa:	d3 e2                	shl    %cl,%edx
    adfc:	89 d0                	mov    %edx,%eax
    adfe:	eb 04                	jmp    ae04 <safe_lshift_func_uint16_t_u_s+0x46>
    ae00:	0f b7 45 fc          	movzwl -0x4(%rbp),%eax
    ae04:	5d                   	pop    %rbp
    ae05:	c3                   	retq   

000000000000ae06 <safe_lshift_func_uint16_t_u_u>:
    ae06:	f3 0f 1e fa          	endbr64 
    ae0a:	55                   	push   %rbp
    ae0b:	48 89 e5             	mov    %rsp,%rbp
    ae0e:	89 f8                	mov    %edi,%eax
    ae10:	89 75 f8             	mov    %esi,-0x8(%rbp)
    ae13:	66 89 45 fc          	mov    %ax,-0x4(%rbp)
    ae17:	83 7d f8 1f          	cmpl   $0x1f,-0x8(%rbp)
    ae1b:	77 25                	ja     ae42 <safe_lshift_func_uint16_t_u_u+0x3c>
    ae1d:	0f b7 55 fc          	movzwl -0x4(%rbp),%edx
    ae21:	8b 45 f8             	mov    -0x8(%rbp),%eax
    ae24:	be ff ff 00 00       	mov    $0xffff,%esi
    ae29:	89 c1                	mov    %eax,%ecx
    ae2b:	d3 fe                	sar    %cl,%esi
    ae2d:	89 f0                	mov    %esi,%eax
    ae2f:	39 c2                	cmp    %eax,%edx
    ae31:	7f 0f                	jg     ae42 <safe_lshift_func_uint16_t_u_u+0x3c>
    ae33:	0f b7 55 fc          	movzwl -0x4(%rbp),%edx
    ae37:	8b 45 f8             	mov    -0x8(%rbp),%eax
    ae3a:	89 c1                	mov    %eax,%ecx
    ae3c:	d3 e2                	shl    %cl,%edx
    ae3e:	89 d0                	mov    %edx,%eax
    ae40:	eb 04                	jmp    ae46 <safe_lshift_func_uint16_t_u_u+0x40>
    ae42:	0f b7 45 fc          	movzwl -0x4(%rbp),%eax
    ae46:	5d                   	pop    %rbp
    ae47:	c3                   	retq   

000000000000ae48 <safe_rshift_func_uint16_t_u_s>:
    ae48:	f3 0f 1e fa          	endbr64 
    ae4c:	55                   	push   %rbp
    ae4d:	48 89 e5             	mov    %rsp,%rbp
    ae50:	89 f8                	mov    %edi,%eax
    ae52:	89 75 f8             	mov    %esi,-0x8(%rbp)
    ae55:	66 89 45 fc          	mov    %ax,-0x4(%rbp)
    ae59:	83 7d f8 00          	cmpl   $0x0,-0x8(%rbp)
    ae5d:	78 15                	js     ae74 <safe_rshift_func_uint16_t_u_s+0x2c>
    ae5f:	83 7d f8 1f          	cmpl   $0x1f,-0x8(%rbp)
    ae63:	7f 0f                	jg     ae74 <safe_rshift_func_uint16_t_u_s+0x2c>
    ae65:	0f b7 55 fc          	movzwl -0x4(%rbp),%edx
    ae69:	8b 45 f8             	mov    -0x8(%rbp),%eax
    ae6c:	89 c1                	mov    %eax,%ecx
    ae6e:	d3 fa                	sar    %cl,%edx
    ae70:	89 d0                	mov    %edx,%eax
    ae72:	eb 04                	jmp    ae78 <safe_rshift_func_uint16_t_u_s+0x30>
    ae74:	0f b7 45 fc          	movzwl -0x4(%rbp),%eax
    ae78:	5d                   	pop    %rbp
    ae79:	c3                   	retq   

000000000000ae7a <safe_rshift_func_uint16_t_u_u>:
    ae7a:	f3 0f 1e fa          	endbr64 
    ae7e:	55                   	push   %rbp
    ae7f:	48 89 e5             	mov    %rsp,%rbp
    ae82:	89 f8                	mov    %edi,%eax
    ae84:	89 75 f8             	mov    %esi,-0x8(%rbp)
    ae87:	66 89 45 fc          	mov    %ax,-0x4(%rbp)
    ae8b:	83 7d f8 1f          	cmpl   $0x1f,-0x8(%rbp)
    ae8f:	77 0f                	ja     aea0 <safe_rshift_func_uint16_t_u_u+0x26>
    ae91:	0f b7 55 fc          	movzwl -0x4(%rbp),%edx
    ae95:	8b 45 f8             	mov    -0x8(%rbp),%eax
    ae98:	89 c1                	mov    %eax,%ecx
    ae9a:	d3 fa                	sar    %cl,%edx
    ae9c:	89 d0                	mov    %edx,%eax
    ae9e:	eb 04                	jmp    aea4 <safe_rshift_func_uint16_t_u_u+0x2a>
    aea0:	0f b7 45 fc          	movzwl -0x4(%rbp),%eax
    aea4:	5d                   	pop    %rbp
    aea5:	c3                   	retq   

000000000000aea6 <safe_unary_minus_func_uint32_t_u>:
    aea6:	f3 0f 1e fa          	endbr64 
    aeaa:	55                   	push   %rbp
    aeab:	48 89 e5             	mov    %rsp,%rbp
    aeae:	89 7d fc             	mov    %edi,-0x4(%rbp)
    aeb1:	8b 45 fc             	mov    -0x4(%rbp),%eax
    aeb4:	f7 d8                	neg    %eax
    aeb6:	5d                   	pop    %rbp
    aeb7:	c3                   	retq   

000000000000aeb8 <safe_add_func_uint32_t_u_u>:
    aeb8:	f3 0f 1e fa          	endbr64 
    aebc:	55                   	push   %rbp
    aebd:	48 89 e5             	mov    %rsp,%rbp
    aec0:	89 7d fc             	mov    %edi,-0x4(%rbp)
    aec3:	89 75 f8             	mov    %esi,-0x8(%rbp)
    aec6:	8b 55 fc             	mov    -0x4(%rbp),%edx
    aec9:	8b 45 f8             	mov    -0x8(%rbp),%eax
    aecc:	01 d0                	add    %edx,%eax
    aece:	5d                   	pop    %rbp
    aecf:	c3                   	retq   

000000000000aed0 <safe_sub_func_uint32_t_u_u>:
    aed0:	f3 0f 1e fa          	endbr64 
    aed4:	55                   	push   %rbp
    aed5:	48 89 e5             	mov    %rsp,%rbp
    aed8:	89 7d fc             	mov    %edi,-0x4(%rbp)
    aedb:	89 75 f8             	mov    %esi,-0x8(%rbp)
    aede:	8b 45 fc             	mov    -0x4(%rbp),%eax
    aee1:	2b 45 f8             	sub    -0x8(%rbp),%eax
    aee4:	5d                   	pop    %rbp
    aee5:	c3                   	retq   

000000000000aee6 <safe_mul_func_uint32_t_u_u>:
    aee6:	f3 0f 1e fa          	endbr64 
    aeea:	55                   	push   %rbp
    aeeb:	48 89 e5             	mov    %rsp,%rbp
    aeee:	89 7d fc             	mov    %edi,-0x4(%rbp)
    aef1:	89 75 f8             	mov    %esi,-0x8(%rbp)
    aef4:	8b 45 fc             	mov    -0x4(%rbp),%eax
    aef7:	0f af 45 f8          	imul   -0x8(%rbp),%eax
    aefb:	5d                   	pop    %rbp
    aefc:	c3                   	retq   

000000000000aefd <safe_mod_func_uint32_t_u_u>:
    aefd:	f3 0f 1e fa          	endbr64 
    af01:	55                   	push   %rbp
    af02:	48 89 e5             	mov    %rsp,%rbp
    af05:	89 7d fc             	mov    %edi,-0x4(%rbp)
    af08:	89 75 f8             	mov    %esi,-0x8(%rbp)
    af0b:	83 7d f8 00          	cmpl   $0x0,-0x8(%rbp)
    af0f:	74 0f                	je     af20 <safe_mod_func_uint32_t_u_u+0x23>
    af11:	8b 45 fc             	mov    -0x4(%rbp),%eax
    af14:	ba 00 00 00 00       	mov    $0x0,%edx
    af19:	f7 75 f8             	divl   -0x8(%rbp)
    af1c:	89 d0                	mov    %edx,%eax
    af1e:	eb 03                	jmp    af23 <safe_mod_func_uint32_t_u_u+0x26>
    af20:	8b 45 fc             	mov    -0x4(%rbp),%eax
    af23:	5d                   	pop    %rbp
    af24:	c3                   	retq   

000000000000af25 <safe_div_func_uint32_t_u_u>:
    af25:	f3 0f 1e fa          	endbr64 
    af29:	55                   	push   %rbp
    af2a:	48 89 e5             	mov    %rsp,%rbp
    af2d:	89 7d fc             	mov    %edi,-0x4(%rbp)
    af30:	89 75 f8             	mov    %esi,-0x8(%rbp)
    af33:	83 7d f8 00          	cmpl   $0x0,-0x8(%rbp)
    af37:	74 0d                	je     af46 <safe_div_func_uint32_t_u_u+0x21>
    af39:	8b 45 fc             	mov    -0x4(%rbp),%eax
    af3c:	ba 00 00 00 00       	mov    $0x0,%edx
    af41:	f7 75 f8             	divl   -0x8(%rbp)
    af44:	eb 03                	jmp    af49 <safe_div_func_uint32_t_u_u+0x24>
    af46:	8b 45 fc             	mov    -0x4(%rbp),%eax
    af49:	5d                   	pop    %rbp
    af4a:	c3                   	retq   

000000000000af4b <safe_lshift_func_uint32_t_u_s>:
    af4b:	f3 0f 1e fa          	endbr64 
    af4f:	55                   	push   %rbp
    af50:	48 89 e5             	mov    %rsp,%rbp
    af53:	89 7d fc             	mov    %edi,-0x4(%rbp)
    af56:	89 75 f8             	mov    %esi,-0x8(%rbp)
    af59:	83 7d f8 00          	cmpl   $0x0,-0x8(%rbp)
    af5d:	78 27                	js     af86 <safe_lshift_func_uint32_t_u_s+0x3b>
    af5f:	83 7d f8 1f          	cmpl   $0x1f,-0x8(%rbp)
    af63:	7f 21                	jg     af86 <safe_lshift_func_uint32_t_u_s+0x3b>
    af65:	8b 45 f8             	mov    -0x8(%rbp),%eax
    af68:	ba ff ff ff ff       	mov    $0xffffffff,%edx
    af6d:	89 c1                	mov    %eax,%ecx
    af6f:	d3 ea                	shr    %cl,%edx
    af71:	89 d0                	mov    %edx,%eax
    af73:	39 45 fc             	cmp    %eax,-0x4(%rbp)
    af76:	77 0e                	ja     af86 <safe_lshift_func_uint32_t_u_s+0x3b>
    af78:	8b 45 f8             	mov    -0x8(%rbp),%eax
    af7b:	8b 55 fc             	mov    -0x4(%rbp),%edx
    af7e:	89 c1                	mov    %eax,%ecx
    af80:	d3 e2                	shl    %cl,%edx
    af82:	89 d0                	mov    %edx,%eax
    af84:	eb 03                	jmp    af89 <safe_lshift_func_uint32_t_u_s+0x3e>
    af86:	8b 45 fc             	mov    -0x4(%rbp),%eax
    af89:	5d                   	pop    %rbp
    af8a:	c3                   	retq   

000000000000af8b <safe_lshift_func_uint32_t_u_u>:
    af8b:	f3 0f 1e fa          	endbr64 
    af8f:	55                   	push   %rbp
    af90:	48 89 e5             	mov    %rsp,%rbp
    af93:	89 7d fc             	mov    %edi,-0x4(%rbp)
    af96:	89 75 f8             	mov    %esi,-0x8(%rbp)
    af99:	83 7d f8 1f          	cmpl   $0x1f,-0x8(%rbp)
    af9d:	77 21                	ja     afc0 <safe_lshift_func_uint32_t_u_u+0x35>
    af9f:	8b 45 f8             	mov    -0x8(%rbp),%eax
    afa2:	ba ff ff ff ff       	mov    $0xffffffff,%edx
    afa7:	89 c1                	mov    %eax,%ecx
    afa9:	d3 ea                	shr    %cl,%edx
    afab:	89 d0                	mov    %edx,%eax
    afad:	39 45 fc             	cmp    %eax,-0x4(%rbp)
    afb0:	77 0e                	ja     afc0 <safe_lshift_func_uint32_t_u_u+0x35>
    afb2:	8b 45 f8             	mov    -0x8(%rbp),%eax
    afb5:	8b 55 fc             	mov    -0x4(%rbp),%edx
    afb8:	89 c1                	mov    %eax,%ecx
    afba:	d3 e2                	shl    %cl,%edx
    afbc:	89 d0                	mov    %edx,%eax
    afbe:	eb 03                	jmp    afc3 <safe_lshift_func_uint32_t_u_u+0x38>
    afc0:	8b 45 fc             	mov    -0x4(%rbp),%eax
    afc3:	5d                   	pop    %rbp
    afc4:	c3                   	retq   

000000000000afc5 <safe_rshift_func_uint32_t_u_s>:
    afc5:	f3 0f 1e fa          	endbr64 
    afc9:	55                   	push   %rbp
    afca:	48 89 e5             	mov    %rsp,%rbp
    afcd:	89 7d fc             	mov    %edi,-0x4(%rbp)
    afd0:	89 75 f8             	mov    %esi,-0x8(%rbp)
    afd3:	83 7d f8 00          	cmpl   $0x0,-0x8(%rbp)
    afd7:	78 14                	js     afed <safe_rshift_func_uint32_t_u_s+0x28>
    afd9:	83 7d f8 1f          	cmpl   $0x1f,-0x8(%rbp)
    afdd:	7f 0e                	jg     afed <safe_rshift_func_uint32_t_u_s+0x28>
    afdf:	8b 45 f8             	mov    -0x8(%rbp),%eax
    afe2:	8b 55 fc             	mov    -0x4(%rbp),%edx
    afe5:	89 c1                	mov    %eax,%ecx
    afe7:	d3 ea                	shr    %cl,%edx
    afe9:	89 d0                	mov    %edx,%eax
    afeb:	eb 03                	jmp    aff0 <safe_rshift_func_uint32_t_u_s+0x2b>
    afed:	8b 45 fc             	mov    -0x4(%rbp),%eax
    aff0:	5d                   	pop    %rbp
    aff1:	c3                   	retq   

000000000000aff2 <safe_rshift_func_uint32_t_u_u>:
    aff2:	f3 0f 1e fa          	endbr64 
    aff6:	55                   	push   %rbp
    aff7:	48 89 e5             	mov    %rsp,%rbp
    affa:	89 7d fc             	mov    %edi,-0x4(%rbp)
    affd:	89 75 f8             	mov    %esi,-0x8(%rbp)
    b000:	83 7d f8 1f          	cmpl   $0x1f,-0x8(%rbp)
    b004:	77 0e                	ja     b014 <safe_rshift_func_uint32_t_u_u+0x22>
    b006:	8b 45 f8             	mov    -0x8(%rbp),%eax
    b009:	8b 55 fc             	mov    -0x4(%rbp),%edx
    b00c:	89 c1                	mov    %eax,%ecx
    b00e:	d3 ea                	shr    %cl,%edx
    b010:	89 d0                	mov    %edx,%eax
    b012:	eb 03                	jmp    b017 <safe_rshift_func_uint32_t_u_u+0x25>
    b014:	8b 45 fc             	mov    -0x4(%rbp),%eax
    b017:	5d                   	pop    %rbp
    b018:	c3                   	retq   

000000000000b019 <safe_unary_minus_func_uint64_t_u>:
    b019:	f3 0f 1e fa          	endbr64 
    b01d:	55                   	push   %rbp
    b01e:	48 89 e5             	mov    %rsp,%rbp
    b021:	48 89 7d f8          	mov    %rdi,-0x8(%rbp)
    b025:	48 8b 45 f8          	mov    -0x8(%rbp),%rax
    b029:	48 f7 d8             	neg    %rax
    b02c:	5d                   	pop    %rbp
    b02d:	c3                   	retq   

000000000000b02e <safe_add_func_uint64_t_u_u>:
    b02e:	f3 0f 1e fa          	endbr64 
    b032:	55                   	push   %rbp
    b033:	48 89 e5             	mov    %rsp,%rbp
    b036:	48 89 7d f8          	mov    %rdi,-0x8(%rbp)
    b03a:	48 89 75 f0          	mov    %rsi,-0x10(%rbp)
    b03e:	48 8b 55 f8          	mov    -0x8(%rbp),%rdx
    b042:	48 8b 45 f0          	mov    -0x10(%rbp),%rax
    b046:	48 01 d0             	add    %rdx,%rax
    b049:	5d                   	pop    %rbp
    b04a:	c3                   	retq   

000000000000b04b <safe_sub_func_uint64_t_u_u>:
    b04b:	f3 0f 1e fa          	endbr64 
    b04f:	55                   	push   %rbp
    b050:	48 89 e5             	mov    %rsp,%rbp
    b053:	48 89 7d f8          	mov    %rdi,-0x8(%rbp)
    b057:	48 89 75 f0          	mov    %rsi,-0x10(%rbp)
    b05b:	48 8b 45 f8          	mov    -0x8(%rbp),%rax
    b05f:	48 2b 45 f0          	sub    -0x10(%rbp),%rax
    b063:	5d                   	pop    %rbp
    b064:	c3                   	retq   

000000000000b065 <safe_mul_func_uint64_t_u_u>:
    b065:	f3 0f 1e fa          	endbr64 
    b069:	55                   	push   %rbp
    b06a:	48 89 e5             	mov    %rsp,%rbp
    b06d:	48 89 7d f8          	mov    %rdi,-0x8(%rbp)
    b071:	48 89 75 f0          	mov    %rsi,-0x10(%rbp)
    b075:	48 8b 45 f8          	mov    -0x8(%rbp),%rax
    b079:	48 0f af 45 f0       	imul   -0x10(%rbp),%rax
    b07e:	5d                   	pop    %rbp
    b07f:	c3                   	retq   

000000000000b080 <safe_mod_func_uint64_t_u_u>:
    b080:	f3 0f 1e fa          	endbr64 
    b084:	55                   	push   %rbp
    b085:	48 89 e5             	mov    %rsp,%rbp
    b088:	48 89 7d f8          	mov    %rdi,-0x8(%rbp)
    b08c:	48 89 75 f0          	mov    %rsi,-0x10(%rbp)
    b090:	48 83 7d f0 00       	cmpq   $0x0,-0x10(%rbp)
    b095:	74 12                	je     b0a9 <safe_mod_func_uint64_t_u_u+0x29>
    b097:	48 8b 45 f8          	mov    -0x8(%rbp),%rax
    b09b:	ba 00 00 00 00       	mov    $0x0,%edx
    b0a0:	48 f7 75 f0          	divq   -0x10(%rbp)
    b0a4:	48 89 d0             	mov    %rdx,%rax
    b0a7:	eb 04                	jmp    b0ad <safe_mod_func_uint64_t_u_u+0x2d>
    b0a9:	48 8b 45 f8          	mov    -0x8(%rbp),%rax
    b0ad:	5d                   	pop    %rbp
    b0ae:	c3                   	retq   

000000000000b0af <safe_div_func_uint64_t_u_u>:
    b0af:	f3 0f 1e fa          	endbr64 
    b0b3:	55                   	push   %rbp
    b0b4:	48 89 e5             	mov    %rsp,%rbp
    b0b7:	48 89 7d f8          	mov    %rdi,-0x8(%rbp)
    b0bb:	48 89 75 f0          	mov    %rsi,-0x10(%rbp)
    b0bf:	48 83 7d f0 00       	cmpq   $0x0,-0x10(%rbp)
    b0c4:	74 0f                	je     b0d5 <safe_div_func_uint64_t_u_u+0x26>
    b0c6:	48 8b 45 f8          	mov    -0x8(%rbp),%rax
    b0ca:	ba 00 00 00 00       	mov    $0x0,%edx
    b0cf:	48 f7 75 f0          	divq   -0x10(%rbp)
    b0d3:	eb 04                	jmp    b0d9 <safe_div_func_uint64_t_u_u+0x2a>
    b0d5:	48 8b 45 f8          	mov    -0x8(%rbp),%rax
    b0d9:	5d                   	pop    %rbp
    b0da:	c3                   	retq   

000000000000b0db <safe_lshift_func_uint64_t_u_s>:
    b0db:	f3 0f 1e fa          	endbr64 
    b0df:	55                   	push   %rbp
    b0e0:	48 89 e5             	mov    %rsp,%rbp
    b0e3:	48 89 7d f8          	mov    %rdi,-0x8(%rbp)
    b0e7:	89 75 f4             	mov    %esi,-0xc(%rbp)
    b0ea:	83 7d f4 00          	cmpl   $0x0,-0xc(%rbp)
    b0ee:	78 2f                	js     b11f <safe_lshift_func_uint64_t_u_s+0x44>
    b0f0:	83 7d f4 1f          	cmpl   $0x1f,-0xc(%rbp)
    b0f4:	7f 29                	jg     b11f <safe_lshift_func_uint64_t_u_s+0x44>
    b0f6:	8b 45 f4             	mov    -0xc(%rbp),%eax
    b0f9:	48 c7 c2 ff ff ff ff 	mov    $0xffffffffffffffff,%rdx
    b100:	89 c1                	mov    %eax,%ecx
    b102:	48 d3 ea             	shr    %cl,%rdx
    b105:	48 89 d0             	mov    %rdx,%rax
    b108:	48 39 45 f8          	cmp    %rax,-0x8(%rbp)
    b10c:	77 11                	ja     b11f <safe_lshift_func_uint64_t_u_s+0x44>
    b10e:	8b 45 f4             	mov    -0xc(%rbp),%eax
    b111:	48 8b 55 f8          	mov    -0x8(%rbp),%rdx
    b115:	89 c1                	mov    %eax,%ecx
    b117:	48 d3 e2             	shl    %cl,%rdx
    b11a:	48 89 d0             	mov    %rdx,%rax
    b11d:	eb 04                	jmp    b123 <safe_lshift_func_uint64_t_u_s+0x48>
    b11f:	48 8b 45 f8          	mov    -0x8(%rbp),%rax
    b123:	5d                   	pop    %rbp
    b124:	c3                   	retq   

000000000000b125 <safe_lshift_func_uint64_t_u_u>:
    b125:	f3 0f 1e fa          	endbr64 
    b129:	55                   	push   %rbp
    b12a:	48 89 e5             	mov    %rsp,%rbp
    b12d:	48 89 7d f8          	mov    %rdi,-0x8(%rbp)
    b131:	89 75 f4             	mov    %esi,-0xc(%rbp)
    b134:	83 7d f4 1f          	cmpl   $0x1f,-0xc(%rbp)
    b138:	77 29                	ja     b163 <safe_lshift_func_uint64_t_u_u+0x3e>
    b13a:	8b 45 f4             	mov    -0xc(%rbp),%eax
    b13d:	48 c7 c2 ff ff ff ff 	mov    $0xffffffffffffffff,%rdx
    b144:	89 c1                	mov    %eax,%ecx
    b146:	48 d3 ea             	shr    %cl,%rdx
    b149:	48 89 d0             	mov    %rdx,%rax
    b14c:	48 39 45 f8          	cmp    %rax,-0x8(%rbp)
    b150:	77 11                	ja     b163 <safe_lshift_func_uint64_t_u_u+0x3e>
    b152:	8b 45 f4             	mov    -0xc(%rbp),%eax
    b155:	48 8b 55 f8          	mov    -0x8(%rbp),%rdx
    b159:	89 c1                	mov    %eax,%ecx
    b15b:	48 d3 e2             	shl    %cl,%rdx
    b15e:	48 89 d0             	mov    %rdx,%rax
    b161:	eb 04                	jmp    b167 <safe_lshift_func_uint64_t_u_u+0x42>
    b163:	48 8b 45 f8          	mov    -0x8(%rbp),%rax
    b167:	5d                   	pop    %rbp
    b168:	c3                   	retq   

000000000000b169 <safe_rshift_func_uint64_t_u_s>:
    b169:	f3 0f 1e fa          	endbr64 
    b16d:	55                   	push   %rbp
    b16e:	48 89 e5             	mov    %rsp,%rbp
    b171:	48 89 7d f8          	mov    %rdi,-0x8(%rbp)
    b175:	89 75 f4             	mov    %esi,-0xc(%rbp)
    b178:	83 7d f4 00          	cmpl   $0x0,-0xc(%rbp)
    b17c:	78 17                	js     b195 <safe_rshift_func_uint64_t_u_s+0x2c>
    b17e:	83 7d f4 1f          	cmpl   $0x1f,-0xc(%rbp)
    b182:	7f 11                	jg     b195 <safe_rshift_func_uint64_t_u_s+0x2c>
    b184:	8b 45 f4             	mov    -0xc(%rbp),%eax
    b187:	48 8b 55 f8          	mov    -0x8(%rbp),%rdx
    b18b:	89 c1                	mov    %eax,%ecx
    b18d:	48 d3 ea             	shr    %cl,%rdx
    b190:	48 89 d0             	mov    %rdx,%rax
    b193:	eb 04                	jmp    b199 <safe_rshift_func_uint64_t_u_s+0x30>
    b195:	48 8b 45 f8          	mov    -0x8(%rbp),%rax
    b199:	5d                   	pop    %rbp
    b19a:	c3                   	retq   

000000000000b19b <safe_rshift_func_uint64_t_u_u>:
    b19b:	f3 0f 1e fa          	endbr64 
    b19f:	55                   	push   %rbp
    b1a0:	48 89 e5             	mov    %rsp,%rbp
    b1a3:	48 89 7d f8          	mov    %rdi,-0x8(%rbp)
    b1a7:	89 75 f4             	mov    %esi,-0xc(%rbp)
    b1aa:	83 7d f4 1f          	cmpl   $0x1f,-0xc(%rbp)
    b1ae:	77 11                	ja     b1c1 <safe_rshift_func_uint64_t_u_u+0x26>
    b1b0:	8b 45 f4             	mov    -0xc(%rbp),%eax
    b1b3:	48 8b 55 f8          	mov    -0x8(%rbp),%rdx
    b1b7:	89 c1                	mov    %eax,%ecx
    b1b9:	48 d3 ea             	shr    %cl,%rdx
    b1bc:	48 89 d0             	mov    %rdx,%rax
    b1bf:	eb 04                	jmp    b1c5 <safe_rshift_func_uint64_t_u_u+0x2a>
    b1c1:	48 8b 45 f8          	mov    -0x8(%rbp),%rax
    b1c5:	5d                   	pop    %rbp
    b1c6:	c3                   	retq   

000000000000b1c7 <safe_add_func_float_f_f>:
    b1c7:	f3 0f 1e fa          	endbr64 
    b1cb:	55                   	push   %rbp
    b1cc:	48 89 e5             	mov    %rsp,%rbp
    b1cf:	f3 0f 11 45 fc       	movss  %xmm0,-0x4(%rbp)
    b1d4:	f3 0f 11 4d f8       	movss  %xmm1,-0x8(%rbp)
    b1d9:	f3 0f 10 4d fc       	movss  -0x4(%rbp),%xmm1
    b1de:	f3 0f 10 05 ce 2b 01 	movss  0x12bce(%rip),%xmm0        # 1ddb4 <l_236.5311+0xc>
    b1e5:	00 
    b1e6:	f3 0f 59 c8          	mulss  %xmm0,%xmm1
    b1ea:	f3 0f 10 55 f8       	movss  -0x8(%rbp),%xmm2
    b1ef:	f3 0f 10 05 bd 2b 01 	movss  0x12bbd(%rip),%xmm0        # 1ddb4 <l_236.5311+0xc>
    b1f6:	00 
    b1f7:	f3 0f 59 c2          	mulss  %xmm2,%xmm0
    b1fb:	f3 0f 58 c1          	addss  %xmm1,%xmm0
    b1ff:	f3 0f 10 0d b9 2b 01 	movss  0x12bb9(%rip),%xmm1        # 1ddc0 <l_236.5311+0x18>
    b206:	00 
    b207:	0f 54 c1             	andps  %xmm1,%xmm0
    b20a:	0f 2f 05 bf 2b 01 00 	comiss 0x12bbf(%rip),%xmm0        # 1ddd0 <l_236.5311+0x28>
    b211:	76 07                	jbe    b21a <safe_add_func_float_f_f+0x53>
    b213:	f3 0f 10 45 fc       	movss  -0x4(%rbp),%xmm0
    b218:	eb 0a                	jmp    b224 <safe_add_func_float_f_f+0x5d>
    b21a:	f3 0f 10 45 fc       	movss  -0x4(%rbp),%xmm0
    b21f:	f3 0f 58 45 f8       	addss  -0x8(%rbp),%xmm0
    b224:	5d                   	pop    %rbp
    b225:	c3                   	retq   

000000000000b226 <safe_sub_func_float_f_f>:
    b226:	f3 0f 1e fa          	endbr64 
    b22a:	55                   	push   %rbp
    b22b:	48 89 e5             	mov    %rsp,%rbp
    b22e:	f3 0f 11 45 fc       	movss  %xmm0,-0x4(%rbp)
    b233:	f3 0f 11 4d f8       	movss  %xmm1,-0x8(%rbp)
    b238:	f3 0f 10 4d fc       	movss  -0x4(%rbp),%xmm1
    b23d:	f3 0f 10 05 6f 2b 01 	movss  0x12b6f(%rip),%xmm0        # 1ddb4 <l_236.5311+0xc>
    b244:	00 
    b245:	f3 0f 59 c1          	mulss  %xmm1,%xmm0
    b249:	f3 0f 10 55 f8       	movss  -0x8(%rbp),%xmm2
    b24e:	f3 0f 10 0d 5e 2b 01 	movss  0x12b5e(%rip),%xmm1        # 1ddb4 <l_236.5311+0xc>
    b255:	00 
    b256:	f3 0f 59 ca          	mulss  %xmm2,%xmm1
    b25a:	f3 0f 5c c1          	subss  %xmm1,%xmm0
    b25e:	f3 0f 10 0d 5a 2b 01 	movss  0x12b5a(%rip),%xmm1        # 1ddc0 <l_236.5311+0x18>
    b265:	00 
    b266:	0f 54 c1             	andps  %xmm1,%xmm0
    b269:	0f 2f 05 60 2b 01 00 	comiss 0x12b60(%rip),%xmm0        # 1ddd0 <l_236.5311+0x28>
    b270:	76 07                	jbe    b279 <safe_sub_func_float_f_f+0x53>
    b272:	f3 0f 10 45 fc       	movss  -0x4(%rbp),%xmm0
    b277:	eb 0a                	jmp    b283 <safe_sub_func_float_f_f+0x5d>
    b279:	f3 0f 10 45 fc       	movss  -0x4(%rbp),%xmm0
    b27e:	f3 0f 5c 45 f8       	subss  -0x8(%rbp),%xmm0
    b283:	5d                   	pop    %rbp
    b284:	c3                   	retq   

000000000000b285 <safe_mul_func_float_f_f>:
    b285:	f3 0f 1e fa          	endbr64 
    b289:	55                   	push   %rbp
    b28a:	48 89 e5             	mov    %rsp,%rbp
    b28d:	f3 0f 11 45 fc       	movss  %xmm0,-0x4(%rbp)
    b292:	f3 0f 11 4d f8       	movss  %xmm1,-0x8(%rbp)
    b297:	f3 0f 10 4d fc       	movss  -0x4(%rbp),%xmm1
    b29c:	f3 0f 10 05 30 2b 01 	movss  0x12b30(%rip),%xmm0        # 1ddd4 <l_236.5311+0x2c>
    b2a3:	00 
    b2a4:	f3 0f 59 c8          	mulss  %xmm0,%xmm1
    b2a8:	f3 0f 10 55 f8       	movss  -0x8(%rbp),%xmm2
    b2ad:	f3 0f 10 05 23 2b 01 	movss  0x12b23(%rip),%xmm0        # 1ddd8 <l_236.5311+0x30>
    b2b4:	00 
    b2b5:	f3 0f 59 c2          	mulss  %xmm2,%xmm0
    b2b9:	f3 0f 59 c1          	mulss  %xmm1,%xmm0
    b2bd:	f3 0f 10 0d fb 2a 01 	movss  0x12afb(%rip),%xmm1        # 1ddc0 <l_236.5311+0x18>
    b2c4:	00 
    b2c5:	0f 54 c1             	andps  %xmm1,%xmm0
    b2c8:	0f 2f 05 0d 2b 01 00 	comiss 0x12b0d(%rip),%xmm0        # 1dddc <l_236.5311+0x34>
    b2cf:	76 07                	jbe    b2d8 <safe_mul_func_float_f_f+0x53>
    b2d1:	f3 0f 10 45 fc       	movss  -0x4(%rbp),%xmm0
    b2d6:	eb 0a                	jmp    b2e2 <safe_mul_func_float_f_f+0x5d>
    b2d8:	f3 0f 10 45 fc       	movss  -0x4(%rbp),%xmm0
    b2dd:	f3 0f 59 45 f8       	mulss  -0x8(%rbp),%xmm0
    b2e2:	5d                   	pop    %rbp
    b2e3:	c3                   	retq   

000000000000b2e4 <safe_div_func_float_f_f>:
    b2e4:	f3 0f 1e fa          	endbr64 
    b2e8:	55                   	push   %rbp
    b2e9:	48 89 e5             	mov    %rsp,%rbp
    b2ec:	f3 0f 11 45 fc       	movss  %xmm0,-0x4(%rbp)
    b2f1:	f3 0f 11 4d f8       	movss  %xmm1,-0x8(%rbp)
    b2f6:	f3 0f 10 45 f8       	movss  -0x8(%rbp),%xmm0
    b2fb:	f3 0f 10 0d bd 2a 01 	movss  0x12abd(%rip),%xmm1        # 1ddc0 <l_236.5311+0x18>
    b302:	00 
    b303:	0f 54 c8             	andps  %xmm0,%xmm1
    b306:	f3 0f 10 05 d2 2a 01 	movss  0x12ad2(%rip),%xmm0        # 1dde0 <l_236.5311+0x38>
    b30d:	00 
    b30e:	0f 2f c1             	comiss %xmm1,%xmm0
    b311:	0f 97 c0             	seta   %al
    b314:	83 f0 01             	xor    $0x1,%eax
    b317:	84 c0                	test   %al,%al
    b319:	75 56                	jne    b371 <safe_div_func_float_f_f+0x8d>
    b31b:	66 0f ef c0          	pxor   %xmm0,%xmm0
    b31f:	0f 2e 45 f8          	ucomiss -0x8(%rbp),%xmm0
    b323:	7a 0a                	jp     b32f <safe_div_func_float_f_f+0x4b>
    b325:	66 0f ef c0          	pxor   %xmm0,%xmm0
    b329:	0f 2e 45 f8          	ucomiss -0x8(%rbp),%xmm0
    b32d:	74 4e                	je     b37d <safe_div_func_float_f_f+0x99>
    b32f:	f3 0f 10 4d fc       	movss  -0x4(%rbp),%xmm1
    b334:	f3 0f 10 05 a8 2a 01 	movss  0x12aa8(%rip),%xmm0        # 1dde4 <l_236.5311+0x3c>
    b33b:	00 
    b33c:	f3 0f 59 c1          	mulss  %xmm1,%xmm0
    b340:	f3 0f 10 55 f8       	movss  -0x8(%rbp),%xmm2
    b345:	f3 0f 10 0d 9b 2a 01 	movss  0x12a9b(%rip),%xmm1        # 1dde8 <l_236.5311+0x40>
    b34c:	00 
    b34d:	f3 0f 59 ca          	mulss  %xmm2,%xmm1
    b351:	f3 0f 5e c1          	divss  %xmm1,%xmm0
    b355:	f3 0f 10 0d 63 2a 01 	movss  0x12a63(%rip),%xmm1        # 1ddc0 <l_236.5311+0x18>
    b35c:	00 
    b35d:	0f 54 c1             	andps  %xmm1,%xmm0
    b360:	0f 2f 05 85 2a 01 00 	comiss 0x12a85(%rip),%xmm0        # 1ddec <l_236.5311+0x44>
    b367:	0f 97 c0             	seta   %al
    b36a:	83 f0 01             	xor    $0x1,%eax
    b36d:	84 c0                	test   %al,%al
    b36f:	74 0c                	je     b37d <safe_div_func_float_f_f+0x99>
    b371:	f3 0f 10 45 fc       	movss  -0x4(%rbp),%xmm0
    b376:	f3 0f 5e 45 f8       	divss  -0x8(%rbp),%xmm0
    b37b:	eb 05                	jmp    b382 <safe_div_func_float_f_f+0x9e>
    b37d:	f3 0f 10 45 fc       	movss  -0x4(%rbp),%xmm0
    b382:	5d                   	pop    %rbp
    b383:	c3                   	retq   

000000000000b384 <safe_add_func_double_f_f>:
    b384:	f3 0f 1e fa          	endbr64 
    b388:	55                   	push   %rbp
    b389:	48 89 e5             	mov    %rsp,%rbp
    b38c:	f2 0f 11 45 f8       	movsd  %xmm0,-0x8(%rbp)
    b391:	f2 0f 11 4d f0       	movsd  %xmm1,-0x10(%rbp)
    b396:	f2 0f 10 4d f8       	movsd  -0x8(%rbp),%xmm1
    b39b:	f2 0f 10 05 4d 2a 01 	movsd  0x12a4d(%rip),%xmm0        # 1ddf0 <l_236.5311+0x48>
    b3a2:	00 
    b3a3:	f2 0f 59 c8          	mulsd  %xmm0,%xmm1
    b3a7:	f2 0f 10 55 f0       	movsd  -0x10(%rbp),%xmm2
    b3ac:	f2 0f 10 05 3c 2a 01 	movsd  0x12a3c(%rip),%xmm0        # 1ddf0 <l_236.5311+0x48>
    b3b3:	00 
    b3b4:	f2 0f 59 c2          	mulsd  %xmm2,%xmm0
    b3b8:	f2 0f 58 c1          	addsd  %xmm1,%xmm0
    b3bc:	f3 0f 7e 0d 3c 2a 01 	movq   0x12a3c(%rip),%xmm1        # 1de00 <l_236.5311+0x58>
    b3c3:	00 
    b3c4:	66 0f 54 c1          	andpd  %xmm1,%xmm0
    b3c8:	66 0f 2f 05 40 2a 01 	comisd 0x12a40(%rip),%xmm0        # 1de10 <l_236.5311+0x68>
    b3cf:	00 
    b3d0:	76 07                	jbe    b3d9 <safe_add_func_double_f_f+0x55>
    b3d2:	f2 0f 10 45 f8       	movsd  -0x8(%rbp),%xmm0
    b3d7:	eb 0a                	jmp    b3e3 <safe_add_func_double_f_f+0x5f>
    b3d9:	f2 0f 10 45 f8       	movsd  -0x8(%rbp),%xmm0
    b3de:	f2 0f 58 45 f0       	addsd  -0x10(%rbp),%xmm0
    b3e3:	5d                   	pop    %rbp
    b3e4:	c3                   	retq   

000000000000b3e5 <safe_sub_func_double_f_f>:
    b3e5:	f3 0f 1e fa          	endbr64 
    b3e9:	55                   	push   %rbp
    b3ea:	48 89 e5             	mov    %rsp,%rbp
    b3ed:	f2 0f 11 45 f8       	movsd  %xmm0,-0x8(%rbp)
    b3f2:	f2 0f 11 4d f0       	movsd  %xmm1,-0x10(%rbp)
    b3f7:	f2 0f 10 4d f8       	movsd  -0x8(%rbp),%xmm1
    b3fc:	f2 0f 10 05 ec 29 01 	movsd  0x129ec(%rip),%xmm0        # 1ddf0 <l_236.5311+0x48>
    b403:	00 
    b404:	f2 0f 59 c1          	mulsd  %xmm1,%xmm0
    b408:	f2 0f 10 55 f0       	movsd  -0x10(%rbp),%xmm2
    b40d:	f2 0f 10 0d db 29 01 	movsd  0x129db(%rip),%xmm1        # 1ddf0 <l_236.5311+0x48>
    b414:	00 
    b415:	f2 0f 59 ca          	mulsd  %xmm2,%xmm1
    b419:	f2 0f 5c c1          	subsd  %xmm1,%xmm0
    b41d:	f3 0f 7e 0d db 29 01 	movq   0x129db(%rip),%xmm1        # 1de00 <l_236.5311+0x58>
    b424:	00 
    b425:	66 0f 54 c1          	andpd  %xmm1,%xmm0
    b429:	66 0f 2f 05 df 29 01 	comisd 0x129df(%rip),%xmm0        # 1de10 <l_236.5311+0x68>
    b430:	00 
    b431:	76 07                	jbe    b43a <safe_sub_func_double_f_f+0x55>
    b433:	f2 0f 10 45 f8       	movsd  -0x8(%rbp),%xmm0
    b438:	eb 0a                	jmp    b444 <safe_sub_func_double_f_f+0x5f>
    b43a:	f2 0f 10 45 f8       	movsd  -0x8(%rbp),%xmm0
    b43f:	f2 0f 5c 45 f0       	subsd  -0x10(%rbp),%xmm0
    b444:	5d                   	pop    %rbp
    b445:	c3                   	retq   

000000000000b446 <safe_mul_func_double_f_f>:
    b446:	f3 0f 1e fa          	endbr64 
    b44a:	55                   	push   %rbp
    b44b:	48 89 e5             	mov    %rsp,%rbp
    b44e:	f2 0f 11 45 f8       	movsd  %xmm0,-0x8(%rbp)
    b453:	f2 0f 11 4d f0       	movsd  %xmm1,-0x10(%rbp)
    b458:	f2 0f 10 4d f8       	movsd  -0x8(%rbp),%xmm1
    b45d:	f2 0f 10 05 b3 29 01 	movsd  0x129b3(%rip),%xmm0        # 1de18 <l_236.5311+0x70>
    b464:	00 
    b465:	f2 0f 59 c8          	mulsd  %xmm0,%xmm1
    b469:	f2 0f 10 55 f0       	movsd  -0x10(%rbp),%xmm2
    b46e:	f2 0f 10 05 aa 29 01 	movsd  0x129aa(%rip),%xmm0        # 1de20 <l_236.5311+0x78>
    b475:	00 
    b476:	f2 0f 59 c2          	mulsd  %xmm2,%xmm0
    b47a:	f2 0f 59 c1          	mulsd  %xmm1,%xmm0
    b47e:	f3 0f 7e 0d 7a 29 01 	movq   0x1297a(%rip),%xmm1        # 1de00 <l_236.5311+0x58>
    b485:	00 
    b486:	66 0f 54 c1          	andpd  %xmm1,%xmm0
    b48a:	66 0f 2f 05 96 29 01 	comisd 0x12996(%rip),%xmm0        # 1de28 <l_236.5311+0x80>
    b491:	00 
    b492:	76 07                	jbe    b49b <safe_mul_func_double_f_f+0x55>
    b494:	f2 0f 10 45 f8       	movsd  -0x8(%rbp),%xmm0
    b499:	eb 0a                	jmp    b4a5 <safe_mul_func_double_f_f+0x5f>
    b49b:	f2 0f 10 45 f8       	movsd  -0x8(%rbp),%xmm0
    b4a0:	f2 0f 59 45 f0       	mulsd  -0x10(%rbp),%xmm0
    b4a5:	5d                   	pop    %rbp
    b4a6:	c3                   	retq   

000000000000b4a7 <safe_div_func_double_f_f>:
    b4a7:	f3 0f 1e fa          	endbr64 
    b4ab:	55                   	push   %rbp
    b4ac:	48 89 e5             	mov    %rsp,%rbp
    b4af:	f2 0f 11 45 f8       	movsd  %xmm0,-0x8(%rbp)
    b4b4:	f2 0f 11 4d f0       	movsd  %xmm1,-0x10(%rbp)
    b4b9:	f2 0f 10 45 f0       	movsd  -0x10(%rbp),%xmm0
    b4be:	f3 0f 7e 0d 3a 29 01 	movq   0x1293a(%rip),%xmm1        # 1de00 <l_236.5311+0x58>
    b4c5:	00 
    b4c6:	66 0f 54 c8          	andpd  %xmm0,%xmm1
    b4ca:	f2 0f 10 05 5e 29 01 	movsd  0x1295e(%rip),%xmm0        # 1de30 <l_236.5311+0x88>
    b4d1:	00 
    b4d2:	66 0f 2f c1          	comisd %xmm1,%xmm0
    b4d6:	0f 97 c0             	seta   %al
    b4d9:	83 f0 01             	xor    $0x1,%eax
    b4dc:	84 c0                	test   %al,%al
    b4de:	75 5a                	jne    b53a <safe_div_func_double_f_f+0x93>
    b4e0:	66 0f ef c0          	pxor   %xmm0,%xmm0
    b4e4:	66 0f 2e 45 f0       	ucomisd -0x10(%rbp),%xmm0
    b4e9:	7a 0b                	jp     b4f6 <safe_div_func_double_f_f+0x4f>
    b4eb:	66 0f ef c0          	pxor   %xmm0,%xmm0
    b4ef:	66 0f 2e 45 f0       	ucomisd -0x10(%rbp),%xmm0
    b4f4:	74 50                	je     b546 <safe_div_func_double_f_f+0x9f>
    b4f6:	f2 0f 10 4d f8       	movsd  -0x8(%rbp),%xmm1
    b4fb:	f2 0f 10 05 35 29 01 	movsd  0x12935(%rip),%xmm0        # 1de38 <l_236.5311+0x90>
    b502:	00 
    b503:	f2 0f 59 c1          	mulsd  %xmm1,%xmm0
    b507:	f2 0f 10 55 f0       	movsd  -0x10(%rbp),%xmm2
    b50c:	f2 0f 10 0d 2c 29 01 	movsd  0x1292c(%rip),%xmm1        # 1de40 <l_236.5311+0x98>
    b513:	00 
    b514:	f2 0f 59 ca          	mulsd  %xmm2,%xmm1
    b518:	f2 0f 5e c1          	divsd  %xmm1,%xmm0
    b51c:	f3 0f 7e 0d dc 28 01 	movq   0x128dc(%rip),%xmm1        # 1de00 <l_236.5311+0x58>
    b523:	00 
    b524:	66 0f 54 c1          	andpd  %xmm1,%xmm0
    b528:	66 0f 2f 05 18 29 01 	comisd 0x12918(%rip),%xmm0        # 1de48 <l_236.5311+0xa0>
    b52f:	00 
    b530:	0f 97 c0             	seta   %al
    b533:	83 f0 01             	xor    $0x1,%eax
    b536:	84 c0                	test   %al,%al
    b538:	74 0c                	je     b546 <safe_div_func_double_f_f+0x9f>
    b53a:	f2 0f 10 45 f8       	movsd  -0x8(%rbp),%xmm0
    b53f:	f2 0f 5e 45 f0       	divsd  -0x10(%rbp),%xmm0
    b544:	eb 05                	jmp    b54b <safe_div_func_double_f_f+0xa4>
    b546:	f2 0f 10 45 f8       	movsd  -0x8(%rbp),%xmm0
    b54b:	5d                   	pop    %rbp
    b54c:	c3                   	retq   

000000000000b54d <safe_convert_func_float_to_int32_t>:
    b54d:	f3 0f 1e fa          	endbr64 
    b551:	55                   	push   %rbp
    b552:	48 89 e5             	mov    %rsp,%rbp
    b555:	f3 0f 11 45 fc       	movss  %xmm0,-0x4(%rbp)
    b55a:	f3 0f 10 05 ee 28 01 	movss  0x128ee(%rip),%xmm0        # 1de50 <l_236.5311+0xa8>
    b561:	00 
    b562:	0f 2f 45 fc          	comiss -0x4(%rbp),%xmm0
    b566:	0f 93 c0             	setae  %al
    b569:	83 f0 01             	xor    $0x1,%eax
    b56c:	84 c0                	test   %al,%al
    b56e:	74 21                	je     b591 <safe_convert_func_float_to_int32_t+0x44>
    b570:	f3 0f 10 45 fc       	movss  -0x4(%rbp),%xmm0
    b575:	0f 2f 05 d8 28 01 00 	comiss 0x128d8(%rip),%xmm0        # 1de54 <l_236.5311+0xac>
    b57c:	0f 93 c0             	setae  %al
    b57f:	83 f0 01             	xor    $0x1,%eax
    b582:	84 c0                	test   %al,%al
    b584:	74 0b                	je     b591 <safe_convert_func_float_to_int32_t+0x44>
    b586:	f3 0f 10 45 fc       	movss  -0x4(%rbp),%xmm0
    b58b:	f3 0f 2c c0          	cvttss2si %xmm0,%eax
    b58f:	eb 05                	jmp    b596 <safe_convert_func_float_to_int32_t+0x49>
    b591:	b8 ff ff ff 7f       	mov    $0x7fffffff,%eax
    b596:	5d                   	pop    %rbp
    b597:	c3                   	retq   

000000000000b598 <crc32_gentab>:
    b598:	f3 0f 1e fa          	endbr64 
    b59c:	55                   	push   %rbp
    b59d:	48 89 e5             	mov    %rsp,%rbp
    b5a0:	c7 45 fc 20 83 b8 ed 	movl   $0xedb88320,-0x4(%rbp)
    b5a7:	c7 45 f4 00 00 00 00 	movl   $0x0,-0xc(%rbp)
    b5ae:	eb 51                	jmp    b601 <crc32_gentab+0x69>
    b5b0:	8b 45 f4             	mov    -0xc(%rbp),%eax
    b5b3:	89 45 f0             	mov    %eax,-0x10(%rbp)
    b5b6:	c7 45 f8 08 00 00 00 	movl   $0x8,-0x8(%rbp)
    b5bd:	eb 1e                	jmp    b5dd <crc32_gentab+0x45>
    b5bf:	8b 45 f0             	mov    -0x10(%rbp),%eax
    b5c2:	83 e0 01             	and    $0x1,%eax
    b5c5:	85 c0                	test   %eax,%eax
    b5c7:	74 0d                	je     b5d6 <crc32_gentab+0x3e>
    b5c9:	8b 45 f0             	mov    -0x10(%rbp),%eax
    b5cc:	d1 e8                	shr    %eax
    b5ce:	33 45 fc             	xor    -0x4(%rbp),%eax
    b5d1:	89 45 f0             	mov    %eax,-0x10(%rbp)
    b5d4:	eb 03                	jmp    b5d9 <crc32_gentab+0x41>
    b5d6:	d1 6d f0             	shrl   -0x10(%rbp)
    b5d9:	83 6d f8 01          	subl   $0x1,-0x8(%rbp)
    b5dd:	83 7d f8 00          	cmpl   $0x0,-0x8(%rbp)
    b5e1:	7f dc                	jg     b5bf <crc32_gentab+0x27>
    b5e3:	8b 45 f4             	mov    -0xc(%rbp),%eax
    b5e6:	48 98                	cltq   
    b5e8:	48 8d 0c 85 00 00 00 	lea    0x0(,%rax,4),%rcx
    b5ef:	00 
    b5f0:	48 8d 15 09 9d 01 00 	lea    0x19d09(%rip),%rdx        # 25300 <crc32_tab>
    b5f7:	8b 45 f0             	mov    -0x10(%rbp),%eax
    b5fa:	89 04 11             	mov    %eax,(%rcx,%rdx,1)
    b5fd:	83 45 f4 01          	addl   $0x1,-0xc(%rbp)
    b601:	81 7d f4 ff 00 00 00 	cmpl   $0xff,-0xc(%rbp)
    b608:	7e a6                	jle    b5b0 <crc32_gentab+0x18>
    b60a:	90                   	nop
    b60b:	90                   	nop
    b60c:	5d                   	pop    %rbp
    b60d:	c3                   	retq   

000000000000b60e <crc32_byte>:
    b60e:	f3 0f 1e fa          	endbr64 
    b612:	55                   	push   %rbp
    b613:	48 89 e5             	mov    %rsp,%rbp
    b616:	89 f8                	mov    %edi,%eax
    b618:	88 45 fc             	mov    %al,-0x4(%rbp)
    b61b:	8b 05 ff 59 01 00    	mov    0x159ff(%rip),%eax        # 21020 <crc32_context>
    b621:	c1 e8 08             	shr    $0x8,%eax
    b624:	89 c1                	mov    %eax,%ecx
    b626:	0f b6 55 fc          	movzbl -0x4(%rbp),%edx
    b62a:	8b 05 f0 59 01 00    	mov    0x159f0(%rip),%eax        # 21020 <crc32_context>
    b630:	31 d0                	xor    %edx,%eax
    b632:	0f b6 c0             	movzbl %al,%eax
    b635:	89 c0                	mov    %eax,%eax
    b637:	48 8d 14 85 00 00 00 	lea    0x0(,%rax,4),%rdx
    b63e:	00 
    b63f:	48 8d 05 ba 9c 01 00 	lea    0x19cba(%rip),%rax        # 25300 <crc32_tab>
    b646:	8b 04 02             	mov    (%rdx,%rax,1),%eax
    b649:	31 c8                	xor    %ecx,%eax
    b64b:	89 05 cf 59 01 00    	mov    %eax,0x159cf(%rip)        # 21020 <crc32_context>
    b651:	90                   	nop
    b652:	5d                   	pop    %rbp
    b653:	c3                   	retq   

000000000000b654 <crc32_8bytes>:
    b654:	f3 0f 1e fa          	endbr64 
    b658:	55                   	push   %rbp
    b659:	48 89 e5             	mov    %rsp,%rbp
    b65c:	48 83 ec 08          	sub    $0x8,%rsp
    b660:	48 89 7d f8          	mov    %rdi,-0x8(%rbp)
    b664:	48 8b 45 f8          	mov    -0x8(%rbp),%rax
    b668:	0f b6 c0             	movzbl %al,%eax
    b66b:	89 c7                	mov    %eax,%edi
    b66d:	e8 9c ff ff ff       	callq  b60e <crc32_byte>
    b672:	48 8b 45 f8          	mov    -0x8(%rbp),%rax
    b676:	48 c1 e8 08          	shr    $0x8,%rax
    b67a:	0f b6 c0             	movzbl %al,%eax
    b67d:	89 c7                	mov    %eax,%edi
    b67f:	e8 8a ff ff ff       	callq  b60e <crc32_byte>
    b684:	48 8b 45 f8          	mov    -0x8(%rbp),%rax
    b688:	48 c1 e8 10          	shr    $0x10,%rax
    b68c:	0f b6 c0             	movzbl %al,%eax
    b68f:	89 c7                	mov    %eax,%edi
    b691:	e8 78 ff ff ff       	callq  b60e <crc32_byte>
    b696:	48 8b 45 f8          	mov    -0x8(%rbp),%rax
    b69a:	48 c1 e8 18          	shr    $0x18,%rax
    b69e:	0f b6 c0             	movzbl %al,%eax
    b6a1:	89 c7                	mov    %eax,%edi
    b6a3:	e8 66 ff ff ff       	callq  b60e <crc32_byte>
    b6a8:	48 8b 45 f8          	mov    -0x8(%rbp),%rax
    b6ac:	48 c1 e8 20          	shr    $0x20,%rax
    b6b0:	0f b6 c0             	movzbl %al,%eax
    b6b3:	89 c7                	mov    %eax,%edi
    b6b5:	e8 54 ff ff ff       	callq  b60e <crc32_byte>
    b6ba:	48 8b 45 f8          	mov    -0x8(%rbp),%rax
    b6be:	48 c1 e8 28          	shr    $0x28,%rax
    b6c2:	0f b6 c0             	movzbl %al,%eax
    b6c5:	89 c7                	mov    %eax,%edi
    b6c7:	e8 42 ff ff ff       	callq  b60e <crc32_byte>
    b6cc:	48 8b 45 f8          	mov    -0x8(%rbp),%rax
    b6d0:	48 c1 e8 30          	shr    $0x30,%rax
    b6d4:	0f b6 c0             	movzbl %al,%eax
    b6d7:	89 c7                	mov    %eax,%edi
    b6d9:	e8 30 ff ff ff       	callq  b60e <crc32_byte>
    b6de:	48 8b 45 f8          	mov    -0x8(%rbp),%rax
    b6e2:	48 c1 e8 38          	shr    $0x38,%rax
    b6e6:	0f b6 c0             	movzbl %al,%eax
    b6e9:	89 c7                	mov    %eax,%edi
    b6eb:	e8 1e ff ff ff       	callq  b60e <crc32_byte>
    b6f0:	90                   	nop
    b6f1:	c9                   	leaveq 
    b6f2:	c3                   	retq   

000000000000b6f3 <transparent_crc>:
    b6f3:	f3 0f 1e fa          	endbr64 
    b6f7:	55                   	push   %rbp
    b6f8:	48 89 e5             	mov    %rsp,%rbp
    b6fb:	48 83 ec 20          	sub    $0x20,%rsp
    b6ff:	48 89 7d f8          	mov    %rdi,-0x8(%rbp)
    b703:	48 89 75 f0          	mov    %rsi,-0x10(%rbp)
    b707:	89 55 ec             	mov    %edx,-0x14(%rbp)
    b70a:	48 8b 45 f8          	mov    -0x8(%rbp),%rax
    b70e:	48 89 c7             	mov    %rax,%rdi
    b711:	e8 3e ff ff ff       	callq  b654 <crc32_8bytes>
    b716:	83 7d ec 00          	cmpl   $0x0,-0x14(%rbp)
    b71a:	74 22                	je     b73e <transparent_crc+0x4b>
    b71c:	8b 05 fe 58 01 00    	mov    0x158fe(%rip),%eax        # 21020 <crc32_context>
    b722:	f7 d0                	not    %eax
    b724:	89 c2                	mov    %eax,%edx
    b726:	48 8b 45 f0          	mov    -0x10(%rbp),%rax
    b72a:	48 89 c6             	mov    %rax,%rsi
    b72d:	48 8d 3d fc 08 01 00 	lea    0x108fc(%rip),%rdi        # 1c030 <_IO_stdin_used+0x30>
    b734:	b8 00 00 00 00       	mov    $0x0,%eax
    b739:	e8 42 e9 ff ff       	callq  a080 <printf@plt>
    b73e:	90                   	nop
    b73f:	c9                   	leaveq 
    b740:	c3                   	retq   

000000000000b741 <transparent_crc_bytes>:
    b741:	f3 0f 1e fa          	endbr64 
    b745:	55                   	push   %rbp
    b746:	48 89 e5             	mov    %rsp,%rbp
    b749:	48 83 ec 30          	sub    $0x30,%rsp
    b74d:	48 89 7d e8          	mov    %rdi,-0x18(%rbp)
    b751:	89 75 e4             	mov    %esi,-0x1c(%rbp)
    b754:	48 89 55 d8          	mov    %rdx,-0x28(%rbp)
    b758:	89 4d e0             	mov    %ecx,-0x20(%rbp)
    b75b:	c7 45 fc 00 00 00 00 	movl   $0x0,-0x4(%rbp)
    b762:	eb 1e                	jmp    b782 <transparent_crc_bytes+0x41>
    b764:	8b 45 fc             	mov    -0x4(%rbp),%eax
    b767:	48 63 d0             	movslq %eax,%rdx
    b76a:	48 8b 45 e8          	mov    -0x18(%rbp),%rax
    b76e:	48 01 d0             	add    %rdx,%rax
    b771:	0f b6 00             	movzbl (%rax),%eax
    b774:	0f b6 c0             	movzbl %al,%eax
    b777:	89 c7                	mov    %eax,%edi
    b779:	e8 90 fe ff ff       	callq  b60e <crc32_byte>
    b77e:	83 45 fc 01          	addl   $0x1,-0x4(%rbp)
    b782:	8b 45 fc             	mov    -0x4(%rbp),%eax
    b785:	3b 45 e4             	cmp    -0x1c(%rbp),%eax
    b788:	7c da                	jl     b764 <transparent_crc_bytes+0x23>
    b78a:	83 7d e0 00          	cmpl   $0x0,-0x20(%rbp)
    b78e:	74 22                	je     b7b2 <transparent_crc_bytes+0x71>
    b790:	8b 05 8a 58 01 00    	mov    0x1588a(%rip),%eax        # 21020 <crc32_context>
    b796:	f7 d0                	not    %eax
    b798:	89 c2                	mov    %eax,%edx
    b79a:	48 8b 45 d8          	mov    -0x28(%rbp),%rax
    b79e:	48 89 c6             	mov    %rax,%rsi
    b7a1:	48 8d 3d 88 08 01 00 	lea    0x10888(%rip),%rdi        # 1c030 <_IO_stdin_used+0x30>
    b7a8:	b8 00 00 00 00       	mov    $0x0,%eax
    b7ad:	e8 ce e8 ff ff       	callq  a080 <printf@plt>
    b7b2:	90                   	nop
    b7b3:	c9                   	leaveq 
    b7b4:	c3                   	retq   

000000000000b7b5 <func_1>:
    b7b5:	f3 0f 1e fa          	endbr64 
    b7b9:	55                   	push   %rbp
    b7ba:	48 89 e5             	mov    %rsp,%rbp
    b7bd:	41 56                	push   %r14
    b7bf:	41 55                	push   %r13
    b7c1:	41 54                	push   %r12
    b7c3:	53                   	push   %rbx
    b7c4:	48 81 ec 00 10 00 00 	sub    $0x1000,%rsp
    b7cb:	48 83 0c 24 00       	orq    $0x0,(%rsp)
    b7d0:	48 81 ec b0 0f 00 00 	sub    $0xfb0,%rsp
    b7d7:	64 48 8b 04 25 28 00 	mov    %fs:0x28,%rax
    b7de:	00 00 
    b7e0:	48 89 45 d8          	mov    %rax,-0x28(%rbp)
    b7e4:	31 c0                	xor    %eax,%eax
    b7e6:	48 8d 05 d7 58 01 00 	lea    0x158d7(%rip),%rax        # 210c4 <g_353>
    b7ed:	48 89 85 18 e2 ff ff 	mov    %rax,-0x1de8(%rbp)
    b7f4:	48 8d 05 a5 89 01 00 	lea    0x189a5(%rip),%rax        # 241a0 <g_1149>
    b7fb:	48 89 85 b8 e2 ff ff 	mov    %rax,-0x1d48(%rbp)
    b802:	c7 85 78 e0 ff ff fb 	movl   $0x8d4dffb,-0x1f88(%rbp)
    b809:	df d4 08 
    b80c:	c7 85 7c e0 ff ff e3 	movl   $0x2da3aee3,-0x1f84(%rbp)
    b813:	ae a3 2d 
    b816:	c7 85 80 e0 ff ff 00 	movl   $0x0,-0x1f80(%rbp)
    b81d:	00 00 00 
    b820:	c7 85 84 e0 ff ff 07 	movl   $0x7,-0x1f7c(%rbp)
    b827:	00 00 00 
    b82a:	c7 85 20 e1 ff ff 02 	movl   $0x2,-0x1ee0(%rbp)
    b831:	00 00 00 
    b834:	c7 85 88 e0 ff ff 69 	movl   $0xd02a5269,-0x1f78(%rbp)
    b83b:	52 2a d0 
    b83e:	c7 85 24 e1 ff ff ff 	movl   $0xffffffff,-0x1edc(%rbp)
    b845:	ff ff ff 
    b848:	48 b8 e1 bb b8 94 f0 	movabs $0x5fb2ff094b8bbe1,%rax
    b84f:	2f fb 05 
    b852:	48 89 85 20 e2 ff ff 	mov    %rax,-0x1de0(%rbp)
    b859:	c7 85 8c e0 ff ff 56 	movl   $0x3bbb6d56,-0x1f74(%rbp)
    b860:	6d bb 3b 
    b863:	c7 85 90 e0 ff ff 01 	movl   $0x1,-0x1f70(%rbp)
    b86a:	00 00 00 
    b86d:	c7 85 94 e0 ff ff 06 	movl   $0x6,-0x1f6c(%rbp)
    b874:	00 00 00 
    b877:	48 c7 85 28 e2 ff ff 	movq   $0x0,-0x1dd8(%rbp)
    b87e:	00 00 00 00 
    b882:	c7 85 98 e0 ff ff e9 	movl   $0x33518be9,-0x1f68(%rbp)
    b889:	8b 51 33 
    b88c:	48 8d 85 20 e2 ff ff 	lea    -0x1de0(%rbp),%rax
    b893:	48 89 85 30 e2 ff ff 	mov    %rax,-0x1dd0(%rbp)
    b89a:	48 8d 85 30 e2 ff ff 	lea    -0x1dd0(%rbp),%rax
    b8a1:	48 89 85 38 e2 ff ff 	mov    %rax,-0x1dc8(%rbp)
    b8a8:	c6 85 38 e0 ff ff ff 	movb   $0xff,-0x1fc8(%rbp)
    b8af:	c6 85 39 e0 ff ff 01 	movb   $0x1,-0x1fc7(%rbp)
    b8b6:	48 8d 05 bb 58 01 00 	lea    0x158bb(%rip),%rax        # 21178 <g_1129>
    b8bd:	48 89 85 c0 e2 ff ff 	mov    %rax,-0x1d40(%rbp)
    b8c4:	c6 85 36 e0 ff ff 01 	movb   $0x1,-0x1fca(%rbp)
    b8cb:	c6 85 3a e0 ff ff 00 	movb   $0x0,-0x1fc6(%rbp)
    b8d2:	c6 85 3b e0 ff ff 64 	movb   $0x64,-0x1fc5(%rbp)
    b8d9:	c6 85 3c e0 ff ff 09 	movb   $0x9,-0x1fc4(%rbp)
    b8e0:	48 c7 85 40 e2 ff ff 	movq   $0x0,-0x1dc0(%rbp)
    b8e7:	00 00 00 00 
    b8eb:	48 8d 05 ce 57 01 00 	lea    0x157ce(%rip),%rax        # 210c0 <g_278>
    b8f2:	48 89 85 c8 e2 ff ff 	mov    %rax,-0x1d38(%rbp)
    b8f9:	c7 85 9c e0 ff ff b6 	movl   $0x2c40b6b6,-0x1f64(%rbp)
    b900:	b6 40 2c 
    b903:	48 8d 05 28 5a 01 00 	lea    0x15a28(%rip),%rax        # 21332 <g_1334+0x1b2>
    b90a:	48 89 85 d0 e2 ff ff 	mov    %rax,-0x1d30(%rbp)
    b911:	c7 85 50 e6 ff ff 00 	movl   $0x0,-0x19b0(%rbp)
    b918:	00 00 00 
    b91b:	c7 85 54 e6 ff ff 00 	movl   $0x0,-0x19ac(%rbp)
    b922:	00 00 00 
    b925:	48 c7 85 d8 e2 ff ff 	movq   $0xfffffffffffffffa,-0x1d28(%rbp)
    b92c:	fa ff ff ff 
    b930:	48 8d 05 29 9e 01 00 	lea    0x19e29(%rip),%rax        # 25760 <g_423+0x20>
    b937:	48 89 85 48 e2 ff ff 	mov    %rax,-0x1db8(%rbp)
    b93e:	48 8d 85 48 e2 ff ff 	lea    -0x1db8(%rbp),%rax
    b945:	48 89 85 d0 e7 ff ff 	mov    %rax,-0x1830(%rbp)
    b94c:	48 8d 85 48 e2 ff ff 	lea    -0x1db8(%rbp),%rax
    b953:	48 89 85 d8 e7 ff ff 	mov    %rax,-0x1828(%rbp)
    b95a:	48 8d 85 48 e2 ff ff 	lea    -0x1db8(%rbp),%rax
    b961:	48 89 85 e0 e7 ff ff 	mov    %rax,-0x1820(%rbp)
    b968:	48 8d 85 48 e2 ff ff 	lea    -0x1db8(%rbp),%rax
    b96f:	48 89 85 e8 e7 ff ff 	mov    %rax,-0x1818(%rbp)
    b976:	48 8d 85 48 e2 ff ff 	lea    -0x1db8(%rbp),%rax
    b97d:	48 89 85 f0 e7 ff ff 	mov    %rax,-0x1810(%rbp)
    b984:	48 8d 85 48 e2 ff ff 	lea    -0x1db8(%rbp),%rax
    b98b:	48 89 85 f8 e7 ff ff 	mov    %rax,-0x1808(%rbp)
    b992:	48 8d 85 48 e2 ff ff 	lea    -0x1db8(%rbp),%rax
    b999:	48 89 85 00 e8 ff ff 	mov    %rax,-0x1800(%rbp)
    b9a0:	48 8d 85 d0 e7 ff ff 	lea    -0x1830(%rbp),%rax
    b9a7:	48 83 c0 30          	add    $0x30,%rax
    b9ab:	48 89 85 e0 e2 ff ff 	mov    %rax,-0x1d20(%rbp)
    b9b2:	48 8d 85 d0 e7 ff ff 	lea    -0x1830(%rbp),%rax
    b9b9:	48 83 c0 30          	add    $0x30,%rax
    b9bd:	48 89 85 e8 e2 ff ff 	mov    %rax,-0x1d18(%rbp)
    b9c4:	66 c7 85 48 e0 ff ff 	movw   $0xc86c,-0x1fb8(%rbp)
    b9cb:	6c c8 
    b9cd:	66 c7 85 50 e0 ff ff 	movw   $0x72ab,-0x1fb0(%rbp)
    b9d4:	ab 72 
    b9d6:	48 b8 f4 20 36 d0 95 	movabs $0xe7a90c95d03620f4,%rax
    b9dd:	0c a9 e7 
    b9e0:	48 89 85 f0 e2 ff ff 	mov    %rax,-0x1d10(%rbp)
    b9e7:	c6 85 3d e0 ff ff ff 	movb   $0xff,-0x1fc3(%rbp)
    b9ee:	48 8d 05 c3 7a 01 00 	lea    0x17ac3(%rip),%rax        # 234b8 <g_342+0x98>
    b9f5:	48 89 85 50 e2 ff ff 	mov    %rax,-0x1db0(%rbp)
    b9fc:	48 8d 85 50 e2 ff ff 	lea    -0x1db0(%rbp),%rax
    ba03:	48 89 85 58 e2 ff ff 	mov    %rax,-0x1da8(%rbp)
    ba0a:	48 8d 85 58 e2 ff ff 	lea    -0x1da8(%rbp),%rax
    ba11:	48 89 85 f8 e2 ff ff 	mov    %rax,-0x1d08(%rbp)
    ba18:	66 c7 85 52 e0 ff ff 	movw   $0xb6ff,-0x1fae(%rbp)
    ba1f:	ff b6 
    ba21:	c7 85 a0 e0 ff ff 00 	movl   $0x0,-0x1f60(%rbp)
    ba28:	00 00 00 
    ba2b:	66 c7 85 54 e0 ff ff 	movw   $0xfdf2,-0x1fac(%rbp)
    ba32:	f2 fd 
    ba34:	c7 85 a4 e0 ff ff 0b 	movl   $0x44bbc70b,-0x1f5c(%rbp)
    ba3b:	c7 bb 44 
    ba3e:	48 c7 85 60 e2 ff ff 	movq   $0x0,-0x1da0(%rbp)
    ba45:	00 00 00 00 
    ba49:	48 8d 85 60 e2 ff ff 	lea    -0x1da0(%rbp),%rax
    ba50:	48 89 85 b0 e9 ff ff 	mov    %rax,-0x1650(%rbp)
    ba57:	48 8d 85 60 e2 ff ff 	lea    -0x1da0(%rbp),%rax
    ba5e:	48 89 85 b8 e9 ff ff 	mov    %rax,-0x1648(%rbp)
    ba65:	48 8d 85 60 e2 ff ff 	lea    -0x1da0(%rbp),%rax
    ba6c:	48 89 85 c0 e9 ff ff 	mov    %rax,-0x1640(%rbp)
    ba73:	48 8d 85 60 e2 ff ff 	lea    -0x1da0(%rbp),%rax
    ba7a:	48 89 85 c8 e9 ff ff 	mov    %rax,-0x1638(%rbp)
    ba81:	48 8d 85 60 e2 ff ff 	lea    -0x1da0(%rbp),%rax
    ba88:	48 89 85 d0 e9 ff ff 	mov    %rax,-0x1630(%rbp)
    ba8f:	48 8d 85 60 e2 ff ff 	lea    -0x1da0(%rbp),%rax
    ba96:	48 89 85 d8 e9 ff ff 	mov    %rax,-0x1628(%rbp)
    ba9d:	48 8d 85 60 e2 ff ff 	lea    -0x1da0(%rbp),%rax
    baa4:	48 89 85 e0 e9 ff ff 	mov    %rax,-0x1620(%rbp)
    baab:	48 8d 85 60 e2 ff ff 	lea    -0x1da0(%rbp),%rax
    bab2:	48 89 85 e8 e9 ff ff 	mov    %rax,-0x1618(%rbp)
    bab9:	48 8d 85 60 e2 ff ff 	lea    -0x1da0(%rbp),%rax
    bac0:	48 89 85 f0 e9 ff ff 	mov    %rax,-0x1610(%rbp)
    bac7:	48 8d 85 60 e2 ff ff 	lea    -0x1da0(%rbp),%rax
    bace:	48 89 85 f8 e9 ff ff 	mov    %rax,-0x1608(%rbp)
    bad5:	48 8d 85 60 e2 ff ff 	lea    -0x1da0(%rbp),%rax
    badc:	48 89 85 00 ea ff ff 	mov    %rax,-0x1600(%rbp)
    bae3:	48 8d 85 60 e2 ff ff 	lea    -0x1da0(%rbp),%rax
    baea:	48 89 85 08 ea ff ff 	mov    %rax,-0x15f8(%rbp)
    baf1:	48 8d 85 60 e2 ff ff 	lea    -0x1da0(%rbp),%rax
    baf8:	48 89 85 10 ea ff ff 	mov    %rax,-0x15f0(%rbp)
    baff:	48 8d 85 60 e2 ff ff 	lea    -0x1da0(%rbp),%rax
    bb06:	48 89 85 18 ea ff ff 	mov    %rax,-0x15e8(%rbp)
    bb0d:	48 8d 85 60 e2 ff ff 	lea    -0x1da0(%rbp),%rax
    bb14:	48 89 85 20 ea ff ff 	mov    %rax,-0x15e0(%rbp)
    bb1b:	48 8d 85 60 e2 ff ff 	lea    -0x1da0(%rbp),%rax
    bb22:	48 89 85 28 ea ff ff 	mov    %rax,-0x15d8(%rbp)
    bb29:	48 8d 85 60 e2 ff ff 	lea    -0x1da0(%rbp),%rax
    bb30:	48 89 85 30 ea ff ff 	mov    %rax,-0x15d0(%rbp)
    bb37:	48 8d 85 60 e2 ff ff 	lea    -0x1da0(%rbp),%rax
    bb3e:	48 89 85 38 ea ff ff 	mov    %rax,-0x15c8(%rbp)
    bb45:	48 8d 85 60 e2 ff ff 	lea    -0x1da0(%rbp),%rax
    bb4c:	48 89 85 40 ea ff ff 	mov    %rax,-0x15c0(%rbp)
    bb53:	48 8d 85 60 e2 ff ff 	lea    -0x1da0(%rbp),%rax
    bb5a:	48 89 85 48 ea ff ff 	mov    %rax,-0x15b8(%rbp)
    bb61:	48 8d 85 60 e2 ff ff 	lea    -0x1da0(%rbp),%rax
    bb68:	48 89 85 50 ea ff ff 	mov    %rax,-0x15b0(%rbp)
    bb6f:	48 8d 85 60 e2 ff ff 	lea    -0x1da0(%rbp),%rax
    bb76:	48 89 85 58 ea ff ff 	mov    %rax,-0x15a8(%rbp)
    bb7d:	48 8d 85 60 e2 ff ff 	lea    -0x1da0(%rbp),%rax
    bb84:	48 89 85 60 ea ff ff 	mov    %rax,-0x15a0(%rbp)
    bb8b:	48 8d 85 60 e2 ff ff 	lea    -0x1da0(%rbp),%rax
    bb92:	48 89 85 68 ea ff ff 	mov    %rax,-0x1598(%rbp)
    bb99:	48 8d 85 60 e2 ff ff 	lea    -0x1da0(%rbp),%rax
    bba0:	48 89 85 70 ea ff ff 	mov    %rax,-0x1590(%rbp)
    bba7:	48 8d 85 60 e2 ff ff 	lea    -0x1da0(%rbp),%rax
    bbae:	48 89 85 78 ea ff ff 	mov    %rax,-0x1588(%rbp)
    bbb5:	48 8d 85 60 e2 ff ff 	lea    -0x1da0(%rbp),%rax
    bbbc:	48 89 85 80 ea ff ff 	mov    %rax,-0x1580(%rbp)
    bbc3:	48 8d 85 60 e2 ff ff 	lea    -0x1da0(%rbp),%rax
    bbca:	48 89 85 88 ea ff ff 	mov    %rax,-0x1578(%rbp)
    bbd1:	48 8d 85 60 e2 ff ff 	lea    -0x1da0(%rbp),%rax
    bbd8:	48 89 85 90 ea ff ff 	mov    %rax,-0x1570(%rbp)
    bbdf:	48 8d 85 60 e2 ff ff 	lea    -0x1da0(%rbp),%rax
    bbe6:	48 89 85 98 ea ff ff 	mov    %rax,-0x1568(%rbp)
    bbed:	48 8d 85 60 e2 ff ff 	lea    -0x1da0(%rbp),%rax
    bbf4:	48 89 85 a0 ea ff ff 	mov    %rax,-0x1560(%rbp)
    bbfb:	48 8d 85 60 e2 ff ff 	lea    -0x1da0(%rbp),%rax
    bc02:	48 89 85 a8 ea ff ff 	mov    %rax,-0x1558(%rbp)
    bc09:	48 8d 85 60 e2 ff ff 	lea    -0x1da0(%rbp),%rax
    bc10:	48 89 85 b0 ea ff ff 	mov    %rax,-0x1550(%rbp)
    bc17:	48 8d 85 60 e2 ff ff 	lea    -0x1da0(%rbp),%rax
    bc1e:	48 89 85 b8 ea ff ff 	mov    %rax,-0x1548(%rbp)
    bc25:	48 8d 85 60 e2 ff ff 	lea    -0x1da0(%rbp),%rax
    bc2c:	48 89 85 c0 ea ff ff 	mov    %rax,-0x1540(%rbp)
    bc33:	48 8d 85 60 e2 ff ff 	lea    -0x1da0(%rbp),%rax
    bc3a:	48 89 85 c8 ea ff ff 	mov    %rax,-0x1538(%rbp)
    bc41:	48 8d 85 60 e2 ff ff 	lea    -0x1da0(%rbp),%rax
    bc48:	48 89 85 d0 ea ff ff 	mov    %rax,-0x1530(%rbp)
    bc4f:	48 8d 85 60 e2 ff ff 	lea    -0x1da0(%rbp),%rax
    bc56:	48 89 85 d8 ea ff ff 	mov    %rax,-0x1528(%rbp)
    bc5d:	48 8d 85 60 e2 ff ff 	lea    -0x1da0(%rbp),%rax
    bc64:	48 89 85 e0 ea ff ff 	mov    %rax,-0x1520(%rbp)
    bc6b:	48 8d 85 60 e2 ff ff 	lea    -0x1da0(%rbp),%rax
    bc72:	48 89 85 e8 ea ff ff 	mov    %rax,-0x1518(%rbp)
    bc79:	48 8d 85 60 e2 ff ff 	lea    -0x1da0(%rbp),%rax
    bc80:	48 89 85 f0 ea ff ff 	mov    %rax,-0x1510(%rbp)
    bc87:	48 8d 85 60 e2 ff ff 	lea    -0x1da0(%rbp),%rax
    bc8e:	48 89 85 f8 ea ff ff 	mov    %rax,-0x1508(%rbp)
    bc95:	48 c7 85 10 e8 ff ff 	movq   $0xfffffffffffffff6,-0x17f0(%rbp)
    bc9c:	f6 ff ff ff 
    bca0:	48 c7 85 18 e8 ff ff 	movq   $0xfffffffffffffff6,-0x17e8(%rbp)
    bca7:	f6 ff ff ff 
    bcab:	48 c7 85 20 e8 ff ff 	movq   $0x9,-0x17e0(%rbp)
    bcb2:	09 00 00 00 
    bcb6:	48 c7 85 28 e8 ff ff 	movq   $0xfffffffffffffff6,-0x17d8(%rbp)
    bcbd:	f6 ff ff ff 
    bcc1:	48 c7 85 30 e8 ff ff 	movq   $0xfffffffffffffff6,-0x17d0(%rbp)
    bcc8:	f6 ff ff ff 
    bccc:	48 c7 85 38 e8 ff ff 	movq   $0x9,-0x17c8(%rbp)
    bcd3:	09 00 00 00 
    bcd7:	48 c7 85 40 e8 ff ff 	movq   $0xfffffffffffffff6,-0x17c0(%rbp)
    bcde:	f6 ff ff ff 
    bce2:	48 c7 85 00 e3 ff ff 	movq   $0xfffffffffffffffc,-0x1d00(%rbp)
    bce9:	fc ff ff ff 
    bced:	48 8d 05 88 54 01 00 	lea    0x15488(%rip),%rax        # 2117c <g_1333>
    bcf4:	48 89 85 08 e3 ff ff 	mov    %rax,-0x1cf8(%rbp)
    bcfb:	c7 85 28 e1 ff ff f9 	movl   $0xfffffff9,-0x1ed8(%rbp)
    bd02:	ff ff ff 
    bd05:	48 b8 d2 cb 11 28 29 	movabs $0x76638f292811cbd2,%rax
    bd0c:	8f 63 76 
    bd0f:	48 89 85 68 e2 ff ff 	mov    %rax,-0x1d98(%rbp)
    bd16:	c7 85 2c e1 ff ff f7 	movl   $0xfffffff7,-0x1ed4(%rbp)
    bd1d:	ff ff ff 
    bd20:	c7 85 d0 e0 ff ff 02 	movl   $0x2,-0x1f30(%rbp)
    bd27:	00 00 00 
    bd2a:	c7 85 30 e1 ff ff 00 	movl   $0x0,-0x1ed0(%rbp)
    bd31:	00 00 00 
    bd34:	48 c7 85 70 e2 ff ff 	movq   $0x0,-0x1d90(%rbp)
    bd3b:	00 00 00 00 
    bd3f:	48 8d 85 70 e2 ff ff 	lea    -0x1d90(%rbp),%rax
    bd46:	48 89 85 10 e3 ff ff 	mov    %rax,-0x1cf0(%rbp)
    bd4d:	48 8d 85 8c e0 ff ff 	lea    -0x1f74(%rbp),%rax
    bd54:	48 89 85 18 e3 ff ff 	mov    %rax,-0x1ce8(%rbp)
    bd5b:	c7 85 c0 e6 ff ff 43 	movl   $0x67678143,-0x1940(%rbp)
    bd62:	81 67 67 
    bd65:	c7 85 c4 e6 ff ff f7 	movl   $0xc6f67f7,-0x193c(%rbp)
    bd6c:	67 6f 0c 
    bd6f:	c7 85 c8 e6 ff ff f7 	movl   $0xc6f67f7,-0x1938(%rbp)
    bd76:	67 6f 0c 
    bd79:	c7 85 cc e6 ff ff 43 	movl   $0x67678143,-0x1934(%rbp)
    bd80:	81 67 67 
    bd83:	c7 85 d0 e6 ff ff f7 	movl   $0xc6f67f7,-0x1930(%rbp)
    bd8a:	67 6f 0c 
    bd8d:	c7 85 d4 e6 ff ff f7 	movl   $0xc6f67f7,-0x192c(%rbp)
    bd94:	67 6f 0c 
    bd97:	66 c7 85 56 e0 ff ff 	movw   $0xfff9,-0x1faa(%rbp)
    bd9e:	f9 ff 
    bda0:	c6 85 3e e0 ff ff 3a 	movb   $0x3a,-0x1fc2(%rbp)
    bda7:	c7 85 34 e1 ff ff bb 	movl   $0xd9c957bb,-0x1ecc(%rbp)
    bdae:	57 c9 d9 
    bdb1:	c7 85 38 e1 ff ff 6f 	movl   $0x7e22f66f,-0x1ec8(%rbp)
    bdb8:	f6 22 7e 
    bdbb:	48 c7 85 20 e3 ff ff 	movq   $0x7,-0x1ce0(%rbp)
    bdc2:	07 00 00 00 
    bdc6:	48 8d 85 a4 e0 ff ff 	lea    -0x1f5c(%rbp),%rax
    bdcd:	48 89 85 28 e3 ff ff 	mov    %rax,-0x1cd8(%rbp)
    bdd4:	c7 85 cc e0 ff ff 00 	movl   $0x0,-0x1f34(%rbp)
    bddb:	00 00 00 
    bdde:	eb 45                	jmp    be25 <func_1+0x670>
    bde0:	c7 85 d4 e0 ff ff 00 	movl   $0x0,-0x1f2c(%rbp)
    bde7:	00 00 00 
    bdea:	eb 29                	jmp    be15 <func_1+0x660>
    bdec:	8b 85 d4 e0 ff ff    	mov    -0x1f2c(%rbp),%eax
    bdf2:	48 98                	cltq   
    bdf4:	8b 95 cc e0 ff ff    	mov    -0x1f34(%rbp),%edx
    bdfa:	48 63 d2             	movslq %edx,%rdx
    bdfd:	48 01 d2             	add    %rdx,%rdx
    be00:	48 01 d0             	add    %rdx,%rax
    be03:	c7 84 85 40 e7 ff ff 	movl   $0x327439cb,-0x18c0(%rbp,%rax,4)
    be0a:	cb 39 74 32 
    be0e:	83 85 d4 e0 ff ff 01 	addl   $0x1,-0x1f2c(%rbp)
    be15:	83 bd d4 e0 ff ff 01 	cmpl   $0x1,-0x1f2c(%rbp)
    be1c:	7e ce                	jle    bdec <func_1+0x637>
    be1e:	83 85 cc e0 ff ff 01 	addl   $0x1,-0x1f34(%rbp)
    be25:	83 bd cc e0 ff ff 05 	cmpl   $0x5,-0x1f34(%rbp)
    be2c:	7e b2                	jle    bde0 <func_1+0x62b>
    be2e:	c7 85 cc e0 ff ff 00 	movl   $0x0,-0x1f34(%rbp)
    be35:	00 00 00 
    be38:	eb 1e                	jmp    be58 <func_1+0x6a3>
    be3a:	8b 85 cc e0 ff ff    	mov    -0x1f34(%rbp),%eax
    be40:	48 98                	cltq   
    be42:	48 8d 15 07 7b 01 00 	lea    0x17b07(%rip),%rdx        # 23950 <g_520+0x10>
    be49:	48 89 94 c5 80 e6 ff 	mov    %rdx,-0x1980(%rbp,%rax,8)
    be50:	ff 
    be51:	83 85 cc e0 ff ff 01 	addl   $0x1,-0x1f34(%rbp)
    be58:	83 bd cc e0 ff ff 02 	cmpl   $0x2,-0x1f34(%rbp)
    be5f:	7e d9                	jle    be3a <func_1+0x685>
    be61:	c7 85 cc e0 ff ff 00 	movl   $0x0,-0x1f34(%rbp)
    be68:	00 00 00 
    be6b:	eb 1b                	jmp    be88 <func_1+0x6d3>
    be6d:	8b 85 cc e0 ff ff    	mov    -0x1f34(%rbp),%eax
    be73:	48 98                	cltq   
    be75:	48 c7 84 c5 a0 e6 ff 	movq   $0x1,-0x1960(%rbp,%rax,8)
    be7c:	ff 01 00 00 00 
    be81:	83 85 cc e0 ff ff 01 	addl   $0x1,-0x1f34(%rbp)
    be88:	83 bd cc e0 ff ff 02 	cmpl   $0x2,-0x1f34(%rbp)
    be8f:	7e dc                	jle    be6d <func_1+0x6b8>
    be91:	c7 85 cc e0 ff ff 00 	movl   $0x0,-0x1f34(%rbp)
    be98:	00 00 00 
    be9b:	eb 42                	jmp    bedf <func_1+0x72a>
    be9d:	c7 85 d4 e0 ff ff 00 	movl   $0x0,-0x1f2c(%rbp)
    bea4:	00 00 00 
    bea7:	eb 26                	jmp    becf <func_1+0x71a>
    bea9:	8b 85 d4 e0 ff ff    	mov    -0x1f2c(%rbp),%eax
    beaf:	48 63 d0             	movslq %eax,%rdx
    beb2:	8b 85 cc e0 ff ff    	mov    -0x1f34(%rbp),%eax
    beb8:	48 98                	cltq   
    beba:	48 01 d0             	add    %rdx,%rax
    bebd:	c7 84 85 20 e7 ff ff 	movl   $0x1,-0x18e0(%rbp,%rax,4)
    bec4:	01 00 00 00 
    bec8:	83 85 d4 e0 ff ff 01 	addl   $0x1,-0x1f2c(%rbp)
    becf:	83 bd d4 e0 ff ff 00 	cmpl   $0x0,-0x1f2c(%rbp)
    bed6:	7e d1                	jle    bea9 <func_1+0x6f4>
    bed8:	83 85 cc e0 ff ff 01 	addl   $0x1,-0x1f34(%rbp)
    bedf:	83 bd cc e0 ff ff 06 	cmpl   $0x6,-0x1f34(%rbp)
    bee6:	7e b5                	jle    be9d <func_1+0x6e8>
    bee8:	c7 85 cc e0 ff ff 00 	movl   $0x0,-0x1f34(%rbp)
    beef:	00 00 00 
    bef2:	eb 19                	jmp    bf0d <func_1+0x758>
    bef4:	8b 85 cc e0 ff ff    	mov    -0x1f34(%rbp),%eax
    befa:	48 98                	cltq   
    befc:	66 c7 84 45 4e e6 ff 	movw   $0x7c51,-0x19b2(%rbp,%rax,2)
    bf03:	ff 51 7c 
    bf06:	83 85 cc e0 ff ff 01 	addl   $0x1,-0x1f34(%rbp)
    bf0d:	83 bd cc e0 ff ff 00 	cmpl   $0x0,-0x1f34(%rbp)
    bf14:	7e de                	jle    bef4 <func_1+0x73f>
    bf16:	90                   	nop
    bf17:	c7 05 0b 51 01 00 0b 	movl   $0xb,0x1510b(%rip)        # 2102c <g_4>
    bf1e:	00 00 00 
    bf21:	e9 f9 34 00 00       	jmpq   f41f <func_1+0x3c6a>
    bf26:	66 c7 85 4a e0 ff ff 	movw   $0x53f6,-0x1fb6(%rbp)
    bf2d:	f6 53 
    bf2f:	48 8d 05 6a 82 01 00 	lea    0x1826a(%rip),%rax        # 241a0 <g_1149>
    bf36:	48 89 85 b0 e4 ff ff 	mov    %rax,-0x1b50(%rbp)
    bf3d:	48 8d 05 ac 82 01 00 	lea    0x182ac(%rip),%rax        # 241f0 <g_1147+0x30>
    bf44:	48 89 85 b8 e4 ff ff 	mov    %rax,-0x1b48(%rbp)
    bf4b:	48 8d 05 be 74 01 00 	lea    0x174be(%rip),%rax        # 23410 <g_290>
    bf52:	48 89 85 b0 e2 ff ff 	mov    %rax,-0x1d50(%rbp)
    bf59:	c7 85 88 e1 ff ff ff 	movl   $0xffffffff,-0x1e78(%rbp)
    bf60:	ff ff ff 
    bf63:	c7 85 a8 e0 ff ff 01 	movl   $0x1,-0x1f58(%rbp)
    bf6a:	00 00 00 
    bf6d:	c7 85 ac e0 ff ff 5a 	movl   $0xe458005a,-0x1f54(%rbp)
    bf74:	00 58 e4 
    bf77:	c7 85 d8 e0 ff ff 02 	movl   $0x2,-0x1f28(%rbp)
    bf7e:	00 00 00 
    bf81:	c7 85 b0 e0 ff ff fa 	movl   $0xfffffffa,-0x1f50(%rbp)
    bf88:	ff ff ff 
    bf8b:	48 8d 85 00 eb ff ff 	lea    -0x1500(%rbp),%rax
    bf92:	48 8d 15 47 01 01 00 	lea    0x10147(%rip),%rdx        # 1c0e0 <g_953+0x20>
    bf99:	b9 5a 00 00 00       	mov    $0x5a,%ecx
    bf9e:	48 89 c7             	mov    %rax,%rdi
    bfa1:	48 89 d6             	mov    %rdx,%rsi
    bfa4:	f3 48 a5             	rep movsq %ds:(%rsi),%es:(%rdi)
    bfa7:	c7 85 8c e1 ff ff 01 	movl   $0x1,-0x1e74(%rbp)
    bfae:	00 00 00 
    bfb1:	48 8d 05 70 82 01 00 	lea    0x18270(%rip),%rax        # 24228 <g_1354>
    bfb8:	48 89 85 c0 e4 ff ff 	mov    %rax,-0x1b40(%rbp)
    bfbf:	66 c7 85 4c e0 ff ff 	movw   $0x1,-0x1fb4(%rbp)
    bfc6:	01 00 
    bfc8:	c7 85 90 e1 ff ff ff 	movl   $0xffffffff,-0x1e70(%rbp)
    bfcf:	ff ff ff 
    bfd2:	48 c7 85 c8 e4 ff ff 	movq   $0x0,-0x1b38(%rbp)
    bfd9:	00 00 00 00 
    bfdd:	c6 85 43 e0 ff ff 30 	movb   $0x30,-0x1fbd(%rbp)
    bfe4:	48 c7 85 d0 e4 ff ff 	movq   $0x0,-0x1b30(%rbp)
    bfeb:	00 00 00 00 
    bfef:	48 8d 85 d0 ed ff ff 	lea    -0x1230(%rbp),%rax
    bff6:	48 8d 15 c3 03 01 00 	lea    0x103c3(%rip),%rdx        # 1c3c0 <g_953+0x300>
    bffd:	b9 6c 00 00 00       	mov    $0x6c,%ecx
    c002:	48 89 c7             	mov    %rax,%rdi
    c005:	48 89 d6             	mov    %rdx,%rsi
    c008:	f3 48 a5             	rep movsq %ds:(%rsi),%es:(%rdi)
    c00b:	c7 85 94 e1 ff ff e6 	movl   $0x139497e6,-0x1e6c(%rbp)
    c012:	97 94 13 
    c015:	66 c7 85 64 e0 ff ff 	movw   $0x9b6b,-0x1f9c(%rbp)
    c01c:	6b 9b 
    c01e:	66 c7 85 66 e0 ff ff 	movw   $0xfff7,-0x1f9a(%rbp)
    c025:	f7 ff 
    c027:	c6 85 44 e0 ff ff 92 	movb   $0x92,-0x1fbc(%rbp)
    c02e:	c7 85 98 e1 ff ff ff 	movl   $0xffffffff,-0x1e68(%rbp)
    c035:	ff ff ff 
    c038:	c7 85 50 e8 ff ff 01 	movl   $0x1,-0x17b0(%rbp)
    c03f:	00 00 00 
    c042:	c7 85 54 e8 ff ff ff 	movl   $0xffffffff,-0x17ac(%rbp)
    c049:	ff ff ff 
    c04c:	c7 85 58 e8 ff ff 01 	movl   $0x1,-0x17a8(%rbp)
    c053:	00 00 00 
    c056:	c7 85 5c e8 ff ff ff 	movl   $0xffffffff,-0x17a4(%rbp)
    c05d:	ff ff ff 
    c060:	c7 85 60 e8 ff ff 01 	movl   $0x1,-0x17a0(%rbp)
    c067:	00 00 00 
    c06a:	c7 85 64 e8 ff ff ff 	movl   $0xffffffff,-0x179c(%rbp)
    c071:	ff ff ff 
    c074:	c7 85 68 e8 ff ff 01 	movl   $0x1,-0x1798(%rbp)
    c07b:	00 00 00 
    c07e:	c7 85 6c e8 ff ff ff 	movl   $0xffffffff,-0x1794(%rbp)
    c085:	ff ff ff 
    c088:	48 b8 97 49 30 79 ef 	movabs $0x3a640eef79304997,%rax
    c08f:	0e 64 3a 
    c092:	48 89 85 d8 e4 ff ff 	mov    %rax,-0x1b28(%rbp)
    c099:	48 8d 05 a8 4f 01 00 	lea    0x14fa8(%rip),%rax        # 21048 <g_98>
    c0a0:	48 89 85 78 e2 ff ff 	mov    %rax,-0x1d88(%rbp)
    c0a7:	48 8d 85 78 e2 ff ff 	lea    -0x1d88(%rbp),%rax
    c0ae:	48 89 85 80 e2 ff ff 	mov    %rax,-0x1d80(%rbp)
    c0b5:	48 8d 85 90 e8 ff ff 	lea    -0x1770(%rbp),%rax
    c0bc:	48 83 c0 10          	add    $0x10,%rax
    c0c0:	48 89 85 e0 e4 ff ff 	mov    %rax,-0x1b20(%rbp)
    c0c7:	48 c7 85 88 e2 ff ff 	movq   $0x0,-0x1d78(%rbp)
    c0ce:	00 00 00 00 
    c0d2:	48 8d 85 88 e2 ff ff 	lea    -0x1d78(%rbp),%rax
    c0d9:	48 89 85 e8 e4 ff ff 	mov    %rax,-0x1b18(%rbp)
    c0e0:	c7 85 9c e1 ff ff ff 	movl   $0xffffffff,-0x1e64(%rbp)
    c0e7:	ff ff ff 
    c0ea:	c7 85 d0 e8 ff ff f8 	movl   $0x7c7ca7f8,-0x1730(%rbp)
    c0f1:	a7 7c 7c 
    c0f4:	66 c7 85 d4 e8 ff ff 	movw   $0xf8a7,-0x172c(%rbp)
    c0fb:	a7 f8 
    c0fd:	c6 85 d6 e8 ff ff a7 	movb   $0xa7,-0x172a(%rbp)
    c104:	c7 85 d7 e8 ff ff f4 	movl   $0x1a189f4,-0x1729(%rbp)
    c10b:	89 a1 01 
    c10e:	66 c7 85 db e8 ff ff 	movw   $0x1f7,-0x1725(%rbp)
    c115:	f7 01 
    c117:	c6 85 dd e8 ff ff a1 	movb   $0xa1,-0x1723(%rbp)
    c11e:	c7 85 de e8 ff ff 42 	movl   $0x7cf84242,-0x1722(%rbp)
    c125:	42 f8 7c 
    c128:	66 c7 85 e2 e8 ff ff 	movw   $0x42f8,-0x171e(%rbp)
    c12f:	f8 42 
    c131:	c6 85 e4 e8 ff ff 42 	movb   $0x42,-0x171c(%rbp)
    c138:	c7 85 e5 e8 ff ff fd 	movl   $0x890089fd,-0x171b(%rbp)
    c13f:	89 00 89 
    c142:	66 c7 85 e9 e8 ff ff 	movw   $0x22fd,-0x1717(%rbp)
    c149:	fd 22 
    c14b:	c6 85 eb e8 ff ff a1 	movb   $0xa1,-0x1715(%rbp)
    c152:	c7 85 ec e8 ff ff 65 	movl   $0xf865a765,-0x1714(%rbp)
    c159:	a7 65 f8 
    c15c:	66 c7 85 f0 e8 ff ff 	movw   $0x65f8,-0x1710(%rbp)
    c163:	f8 65 
    c165:	c6 85 f2 e8 ff ff a7 	movb   $0xa7,-0x170e(%rbp)
    c16c:	c7 85 f3 e8 ff ff a1 	movl   $0xa1,-0x170d(%rbp)
    c173:	00 00 00 
    c176:	66 c7 85 f7 e8 ff ff 	movw   $0x89f7,-0x1709(%rbp)
    c17d:	f7 89 
    c17f:	c6 85 f9 e8 ff ff f7 	movb   $0xf7,-0x1707(%rbp)
    c186:	48 c7 85 f0 e4 ff ff 	movq   $0xffffffffffffffff,-0x1b10(%rbp)
    c18d:	ff ff ff ff 
    c191:	c7 85 a0 e1 ff ff 01 	movl   $0x1,-0x1e60(%rbp)
    c198:	00 00 00 
    c19b:	48 c7 85 f8 e4 ff ff 	movq   $0x0,-0x1b08(%rbp)
    c1a2:	00 00 00 00 
    c1a6:	c7 85 dc e0 ff ff 00 	movl   $0x0,-0x1f24(%rbp)
    c1ad:	00 00 00 
    c1b0:	eb 1e                	jmp    c1d0 <func_1+0xa1b>
    c1b2:	8b 85 dc e0 ff ff    	mov    -0x1f24(%rbp),%eax
    c1b8:	48 98                	cltq   
    c1ba:	48 8d 95 7c e0 ff ff 	lea    -0x1f84(%rbp),%rdx
    c1c1:	48 89 94 c5 e0 e6 ff 	mov    %rdx,-0x1920(%rbp,%rax,8)
    c1c8:	ff 
    c1c9:	83 85 dc e0 ff ff 01 	addl   $0x1,-0x1f24(%rbp)
    c1d0:	83 bd dc e0 ff ff 02 	cmpl   $0x2,-0x1f24(%rbp)
    c1d7:	7e d9                	jle    c1b2 <func_1+0x9fd>
    c1d9:	c7 85 dc e0 ff ff 00 	movl   $0x0,-0x1f24(%rbp)
    c1e0:	00 00 00 
    c1e3:	eb 1e                	jmp    c203 <func_1+0xa4e>
    c1e5:	8b 85 dc e0 ff ff    	mov    -0x1f24(%rbp),%eax
    c1eb:	48 98                	cltq   
    c1ed:	48 8d 95 80 e2 ff ff 	lea    -0x1d80(%rbp),%rdx
    c1f4:	48 89 94 c5 90 e8 ff 	mov    %rdx,-0x1770(%rbp,%rax,8)
    c1fb:	ff 
    c1fc:	83 85 dc e0 ff ff 01 	addl   $0x1,-0x1f24(%rbp)
    c203:	83 bd dc e0 ff ff 04 	cmpl   $0x4,-0x1f24(%rbp)
    c20a:	7e d9                	jle    c1e5 <func_1+0xa30>
    c20c:	c7 85 dc e0 ff ff 00 	movl   $0x0,-0x1f24(%rbp)
    c213:	00 00 00 
    c216:	eb 1e                	jmp    c236 <func_1+0xa81>
    c218:	8b 85 dc e0 ff ff    	mov    -0x1f24(%rbp),%eax
    c21e:	48 98                	cltq   
    c220:	48 8d 95 40 e2 ff ff 	lea    -0x1dc0(%rbp),%rdx
    c227:	48 89 94 c5 00 e7 ff 	mov    %rdx,-0x1900(%rbp,%rax,8)
    c22e:	ff 
    c22f:	83 85 dc e0 ff ff 01 	addl   $0x1,-0x1f24(%rbp)
    c236:	83 bd dc e0 ff ff 02 	cmpl   $0x2,-0x1f24(%rbp)
    c23d:	7e d9                	jle    c218 <func_1+0xa63>
    c23f:	c7 05 f7 4d 01 00 00 	movl   $0x0,0x14df7(%rip)        # 21040 <g_9>
    c246:	00 00 00 
    c249:	e9 07 23 00 00       	jmpq   e555 <func_1+0x2da0>
    c24e:	48 c7 85 00 e5 ff ff 	movq   $0x0,-0x1b00(%rbp)
    c255:	00 00 00 00 
    c259:	48 8d 05 48 7f 01 00 	lea    0x17f48(%rip),%rax        # 241a8 <g_1148>
    c260:	48 89 85 08 e5 ff ff 	mov    %rax,-0x1af8(%rbp)
    c267:	c7 85 b4 e0 ff ff f6 	movl   $0xfffffff6,-0x1f4c(%rbp)
    c26e:	ff ff ff 
    c271:	c7 85 a4 e1 ff ff 04 	movl   $0x4,-0x1e5c(%rbp)
    c278:	00 00 00 
    c27b:	48 c7 85 10 e5 ff ff 	movq   $0x0,-0x1af0(%rbp)
    c282:	00 00 00 00 
    c286:	48 c7 85 a0 e2 ff ff 	movq   $0x0,-0x1d60(%rbp)
    c28d:	00 00 00 00 
    c291:	48 c7 85 30 f1 ff ff 	movq   $0x0,-0xed0(%rbp)
    c298:	00 00 00 00 
    c29c:	48 c7 85 38 f1 ff ff 	movq   $0x0,-0xec8(%rbp)
    c2a3:	00 00 00 00 
    c2a7:	48 8d 85 a0 e2 ff ff 	lea    -0x1d60(%rbp),%rax
    c2ae:	48 89 85 40 f1 ff ff 	mov    %rax,-0xec0(%rbp)
    c2b5:	48 c7 85 48 f1 ff ff 	movq   $0x0,-0xeb8(%rbp)
    c2bc:	00 00 00 00 
    c2c0:	48 c7 85 50 f1 ff ff 	movq   $0x0,-0xeb0(%rbp)
    c2c7:	00 00 00 00 
    c2cb:	48 8d 85 a0 e2 ff ff 	lea    -0x1d60(%rbp),%rax
    c2d2:	48 89 85 58 f1 ff ff 	mov    %rax,-0xea8(%rbp)
    c2d9:	48 c7 85 60 f1 ff ff 	movq   $0x0,-0xea0(%rbp)
    c2e0:	00 00 00 00 
    c2e4:	48 c7 85 68 f1 ff ff 	movq   $0x0,-0xe98(%rbp)
    c2eb:	00 00 00 00 
    c2ef:	48 8d 85 a0 e2 ff ff 	lea    -0x1d60(%rbp),%rax
    c2f6:	48 89 85 70 f1 ff ff 	mov    %rax,-0xe90(%rbp)
    c2fd:	48 c7 85 78 f1 ff ff 	movq   $0x0,-0xe88(%rbp)
    c304:	00 00 00 00 
    c308:	48 c7 85 80 f1 ff ff 	movq   $0x0,-0xe80(%rbp)
    c30f:	00 00 00 00 
    c313:	48 8d 85 a0 e2 ff ff 	lea    -0x1d60(%rbp),%rax
    c31a:	48 89 85 88 f1 ff ff 	mov    %rax,-0xe78(%rbp)
    c321:	48 c7 85 90 f1 ff ff 	movq   $0x0,-0xe70(%rbp)
    c328:	00 00 00 00 
    c32c:	48 c7 85 98 f1 ff ff 	movq   $0x0,-0xe68(%rbp)
    c333:	00 00 00 00 
    c337:	48 8d 85 a0 e2 ff ff 	lea    -0x1d60(%rbp),%rax
    c33e:	48 89 85 a0 f1 ff ff 	mov    %rax,-0xe60(%rbp)
    c345:	48 c7 85 a8 f1 ff ff 	movq   $0x0,-0xe58(%rbp)
    c34c:	00 00 00 00 
    c350:	48 c7 85 b0 f1 ff ff 	movq   $0x0,-0xe50(%rbp)
    c357:	00 00 00 00 
    c35b:	48 8d 85 a0 e2 ff ff 	lea    -0x1d60(%rbp),%rax
    c362:	48 89 85 b8 f1 ff ff 	mov    %rax,-0xe48(%rbp)
    c369:	48 c7 85 c0 f1 ff ff 	movq   $0x0,-0xe40(%rbp)
    c370:	00 00 00 00 
    c374:	48 c7 85 c8 f1 ff ff 	movq   $0x0,-0xe38(%rbp)
    c37b:	00 00 00 00 
    c37f:	48 8d 85 a0 e2 ff ff 	lea    -0x1d60(%rbp),%rax
    c386:	48 89 85 d0 f1 ff ff 	mov    %rax,-0xe30(%rbp)
    c38d:	48 c7 85 d8 f1 ff ff 	movq   $0x0,-0xe28(%rbp)
    c394:	00 00 00 00 
    c398:	48 c7 85 e0 f1 ff ff 	movq   $0x0,-0xe20(%rbp)
    c39f:	00 00 00 00 
    c3a3:	48 8d 85 a0 e2 ff ff 	lea    -0x1d60(%rbp),%rax
    c3aa:	48 89 85 e8 f1 ff ff 	mov    %rax,-0xe18(%rbp)
    c3b1:	48 c7 85 f0 f1 ff ff 	movq   $0x0,-0xe10(%rbp)
    c3b8:	00 00 00 00 
    c3bc:	48 c7 85 f8 f1 ff ff 	movq   $0x0,-0xe08(%rbp)
    c3c3:	00 00 00 00 
    c3c7:	48 8d 85 a0 e2 ff ff 	lea    -0x1d60(%rbp),%rax
    c3ce:	48 89 85 00 f2 ff ff 	mov    %rax,-0xe00(%rbp)
    c3d5:	66 c7 85 68 e0 ff ff 	movw   $0xcd79,-0x1f98(%rbp)
    c3dc:	79 cd 
    c3de:	c7 85 a8 e1 ff ff ff 	movl   $0xffffffff,-0x1e58(%rbp)
    c3e5:	ff ff ff 
    c3e8:	48 b8 02 8b 50 d0 73 	movabs $0x9f44df73d0508b02,%rax
    c3ef:	df 44 9f 
    c3f2:	48 89 85 18 e5 ff ff 	mov    %rax,-0x1ae8(%rbp)
    c3f9:	66 c7 85 4e e0 ff ff 	movw   $0x96da,-0x1fb2(%rbp)
    c400:	da 96 
    c402:	c7 85 b8 e0 ff ff 19 	movl   $0x83750319,-0x1f48(%rbp)
    c409:	03 75 83 
    c40c:	c7 85 bc e0 ff ff 8f 	movl   $0xa5e3158f,-0x1f44(%rbp)
    c413:	15 e3 a5 
    c416:	c7 85 c0 e0 ff ff 00 	movl   $0x0,-0x1f40(%rbp)
    c41d:	00 00 00 
    c420:	c7 85 a0 e7 ff ff 92 	movl   $0xb04a3a92,-0x1860(%rbp)
    c427:	3a 4a b0 
    c42a:	c7 85 a4 e7 ff ff 92 	movl   $0xb04a3a92,-0x185c(%rbp)
    c431:	3a 4a b0 
    c434:	c7 85 a8 e7 ff ff 3b 	movl   $0x8f5ff93b,-0x1858(%rbp)
    c43b:	f9 5f 8f 
    c43e:	c7 85 ac e7 ff ff 00 	movl   $0x0,-0x1854(%rbp)
    c445:	00 00 00 
    c448:	c7 85 b0 e7 ff ff 00 	movl   $0x0,-0x1850(%rbp)
    c44f:	00 00 00 
    c452:	c7 85 b4 e7 ff ff 92 	movl   $0xb04a3a92,-0x184c(%rbp)
    c459:	3a 4a b0 
    c45c:	c7 85 b8 e7 ff ff 00 	movl   $0x0,-0x1848(%rbp)
    c463:	00 00 00 
    c466:	c7 85 ac e1 ff ff 04 	movl   $0x4,-0x1e54(%rbp)
    c46d:	00 00 00 
    c470:	c7 85 b0 e1 ff ff 00 	movl   $0x0,-0x1e50(%rbp)
    c477:	00 00 00 
    c47a:	c7 85 b4 e1 ff ff 00 	movl   $0x0,-0x1e4c(%rbp)
    c481:	00 00 00 
    c484:	c7 85 e0 e0 ff ff 00 	movl   $0x0,-0x1f20(%rbp)
    c48b:	00 00 00 
    c48e:	eb 22                	jmp    c4b2 <func_1+0xcfd>
    c490:	8b 85 e0 e0 ff ff    	mov    -0x1f20(%rbp),%eax
    c496:	48 98                	cltq   
    c498:	48 8d 95 30 f1 ff ff 	lea    -0xed0(%rbp),%rdx
    c49f:	48 83 c2 58          	add    $0x58,%rdx
    c4a3:	48 89 94 c5 70 e7 ff 	mov    %rdx,-0x1890(%rbp,%rax,8)
    c4aa:	ff 
    c4ab:	83 85 e0 e0 ff ff 01 	addl   $0x1,-0x1f20(%rbp)
    c4b2:	83 bd e0 e0 ff ff 02 	cmpl   $0x2,-0x1f20(%rbp)
    c4b9:	7e d5                	jle    c490 <func_1+0xcdb>
    c4bb:	c7 85 e0 e0 ff ff 00 	movl   $0x0,-0x1f20(%rbp)
    c4c2:	00 00 00 
    c4c5:	eb 1a                	jmp    c4e1 <func_1+0xd2c>
    c4c7:	8b 85 e0 e0 ff ff    	mov    -0x1f20(%rbp),%eax
    c4cd:	48 98                	cltq   
    c4cf:	c7 84 85 58 e6 ff ff 	movl   $0xffffffff,-0x19a8(%rbp,%rax,4)
    c4d6:	ff ff ff ff 
    c4da:	83 85 e0 e0 ff ff 01 	addl   $0x1,-0x1f20(%rbp)
    c4e1:	83 bd e0 e0 ff ff 01 	cmpl   $0x1,-0x1f20(%rbp)
    c4e8:	7e dd                	jle    c4c7 <func_1+0xd12>
    c4ea:	8b 85 64 e7 ff ff    	mov    -0x189c(%rbp),%eax
    c4f0:	85 c0                	test   %eax,%eax
    c4f2:	74 3d                	je     c531 <func_1+0xd7c>
    c4f4:	48 8d 05 65 4b 01 00 	lea    0x14b65(%rip),%rax        # 21060 <g_108>
    c4fb:	48 89 85 20 e5 ff ff 	mov    %rax,-0x1ae0(%rbp)
    c502:	8b 05 2c 4b 01 00    	mov    0x14b2c(%rip),%eax        # 21034 <g_7+0x4>
    c508:	48 98                	cltq   
    c50a:	48 89 c7             	mov    %rax,%rdi
    c50d:	e8 26 a1 00 00       	callq  16638 <func_15>
    c512:	89 c7                	mov    %eax,%edi
    c514:	e8 18 64 00 00       	callq  12931 <func_13>
    c519:	66 c7 85 4a e0 ff ff 	movw   $0xffff,-0x1fb6(%rbp)
    c520:	ff ff 
    c522:	48 8b 85 20 e5 ff ff 	mov    -0x1ae0(%rbp),%rax
    c529:	c7 00 ff ff ff ff    	movl   $0xffffffff,(%rax)
    c52f:	eb 5d                	jmp    c58e <func_1+0xdd9>
    c531:	48 8b 05 08 72 01 00 	mov    0x17208(%rip),%rax        # 23740 <g_376>
    c538:	48 8b 00             	mov    (%rax),%rax
    c53b:	48 8b 95 18 e2 ff ff 	mov    -0x1de8(%rbp),%rdx
    c542:	48 89 10             	mov    %rdx,(%rax)
    c545:	48 8b 05 f4 71 01 00 	mov    0x171f4(%rip),%rax        # 23740 <g_376>
    c54c:	48 8b 10             	mov    (%rax),%rdx
    c54f:	48 8b 05 ea 71 01 00 	mov    0x171ea(%rip),%rax        # 23740 <g_376>
    c556:	48 8b 00             	mov    (%rax),%rax
    c559:	48 8b 12             	mov    (%rdx),%rdx
    c55c:	48 89 10             	mov    %rdx,(%rax)
    c55f:	8b 05 c7 4a 01 00    	mov    0x14ac7(%rip),%eax        # 2102c <g_4>
    c565:	85 c0                	test   %eax,%eax
    c567:	75 0a                	jne    c573 <func_1+0xdbe>
    c569:	66 83 bd 4a e0 ff ff 	cmpw   $0x0,-0x1fb6(%rbp)
    c570:	00 
    c571:	74 07                	je     c57a <func_1+0xdc5>
    c573:	ba 01 00 00 00       	mov    $0x1,%edx
    c578:	eb 05                	jmp    c57f <func_1+0xdca>
    c57a:	ba 00 00 00 00       	mov    $0x0,%edx
    c57f:	48 8b 05 ba 71 01 00 	mov    0x171ba(%rip),%rax        # 23740 <g_376>
    c586:	48 8b 00             	mov    (%rax),%rax
    c589:	48 8b 00             	mov    (%rax),%rax
    c58c:	89 10                	mov    %edx,(%rax)
    c58e:	8b 85 a4 e1 ff ff    	mov    -0x1e5c(%rbp),%eax
    c594:	0f b6 d8             	movzbl %al,%ebx
    c597:	48 8b 85 08 e5 ff ff 	mov    -0x1af8(%rbp),%rax
    c59e:	48 8b 95 00 e5 ff ff 	mov    -0x1b00(%rbp),%rdx
    c5a5:	48 89 10             	mov    %rdx,(%rax)
    c5a8:	48 8b 85 08 e5 ff ff 	mov    -0x1af8(%rbp),%rax
    c5af:	48 8b 00             	mov    (%rax),%rax
    c5b2:	48 39 85 b0 e4 ff ff 	cmp    %rax,-0x1b50(%rbp)
    c5b9:	48 8b 85 18 e2 ff ff 	mov    -0x1de8(%rbp),%rax
    c5c0:	8b 00                	mov    (%rax),%eax
    c5c2:	44 0f b7 e0          	movzwl %ax,%r12d
    c5c6:	48 8b 05 d3 4a 01 00 	mov    0x14ad3(%rip),%rax        # 210a0 <g_254+0x20>
    c5cd:	41 89 c5             	mov    %eax,%r13d
    c5d0:	48 8b 85 18 e2 ff ff 	mov    -0x1de8(%rbp),%rax
    c5d7:	8b 10                	mov    (%rax),%edx
    c5d9:	0f b7 05 7c 4b 01 00 	movzwl 0x14b7c(%rip),%eax        # 2115c <g_569>
    c5e0:	83 c0 01             	add    $0x1,%eax
    c5e3:	66 89 05 72 4b 01 00 	mov    %ax,0x14b72(%rip)        # 2115c <g_569>
    c5ea:	0f b7 05 6b 4b 01 00 	movzwl 0x14b6b(%rip),%eax        # 2115c <g_569>
    c5f1:	66 85 c0             	test   %ax,%ax
    c5f4:	75 25                	jne    c61b <func_1+0xe66>
    c5f6:	8b 85 b4 e0 ff ff    	mov    -0x1f4c(%rbp),%eax
    c5fc:	85 c0                	test   %eax,%eax
    c5fe:	75 1b                	jne    c61b <func_1+0xe66>
    c600:	48 8b 85 90 e6 ff ff 	mov    -0x1970(%rbp),%rax
    c607:	48 85 c0             	test   %rax,%rax
    c60a:	0f 95 c0             	setne  %al
    c60d:	0f b6 c8             	movzbl %al,%ecx
    c610:	0f bf 85 4a e0 ff ff 	movswl -0x1fb6(%rbp),%eax
    c617:	39 c1                	cmp    %eax,%ecx
    c619:	74 07                	je     c622 <func_1+0xe6d>
    c61b:	b8 01 00 00 00       	mov    $0x1,%eax
    c620:	eb 05                	jmp    c627 <func_1+0xe72>
    c622:	b8 00 00 00 00       	mov    $0x0,%eax
    c627:	98                   	cwtl   
    c628:	89 d6                	mov    %edx,%esi
    c62a:	89 c7                	mov    %eax,%edi
    c62c:	e8 f9 de ff ff       	callq  a52a <safe_rshift_func_int16_t_s_s>
    c631:	0f b7 c0             	movzwl %ax,%eax
    c634:	44 89 ee             	mov    %r13d,%esi
    c637:	89 c7                	mov    %eax,%edi
    c639:	e8 3c e8 ff ff       	callq  ae7a <safe_rshift_func_uint16_t_u_u>
    c63e:	0f be c0             	movsbl %al,%eax
    c641:	be 00 00 00 00       	mov    $0x0,%esi
    c646:	89 c7                	mov    %eax,%edi
    c648:	e8 a1 dc ff ff       	callq  a2ee <safe_lshift_func_int8_t_s_u>
    c64d:	48 8b 05 e4 72 01 00 	mov    0x172e4(%rip),%rax        # 23938 <g_494>
    c654:	48 8b 00             	mov    (%rax),%rax
    c657:	48 8b 00             	mov    (%rax),%rax
    c65a:	48 8b 00             	mov    (%rax),%rax
    c65d:	8b 85 b4 e0 ff ff    	mov    -0x1f4c(%rbp),%eax
    c663:	3d bf 00 00 00       	cmp    $0xbf,%eax
    c668:	0f 9e c0             	setle  %al
    c66b:	0f b6 d0             	movzbl %al,%edx
    c66e:	8b 85 b4 e0 ff ff    	mov    -0x1f4c(%rbp),%eax
    c674:	39 c2                	cmp    %eax,%edx
    c676:	0f 95 c0             	setne  %al
    c679:	0f b6 c0             	movzbl %al,%eax
    c67c:	44 89 e6             	mov    %r12d,%esi
    c67f:	89 c7                	mov    %eax,%edi
    c681:	e8 99 e6 ff ff       	callq  ad1f <safe_sub_func_uint16_t_u_u>
    c686:	48 8b 05 8b 6d 01 00 	mov    0x16d8b(%rip),%rax        # 23418 <g_289>
    c68d:	48 8b 00             	mov    (%rax),%rax
    c690:	48 8b 00             	mov    (%rax),%rax
    c693:	0f b6 00             	movzbl (%rax),%eax
    c696:	0f b6 c0             	movzbl %al,%eax
    c699:	89 de                	mov    %ebx,%esi
    c69b:	89 c7                	mov    %eax,%edi
    c69d:	e8 39 e5 ff ff       	callq  abdb <safe_div_func_uint8_t_u_u>
    c6a2:	48 c7 05 53 7b 01 00 	movq   $0x0,0x17b53(%rip)        # 24200 <g_1240>
    c6a9:	00 00 00 00 
    c6ad:	83 bd a4 e1 ff ff 01 	cmpl   $0x1,-0x1e5c(%rbp)
    c6b4:	0f 9f c0             	setg   %al
    c6b7:	0f b6 d0             	movzbl %al,%edx
    c6ba:	48 8b 05 87 49 01 00 	mov    0x14987(%rip),%rax        # 21048 <g_98>
    c6c1:	48 39 c2             	cmp    %rax,%rdx
    c6c4:	0f 92 c2             	setb   %dl
    c6c7:	48 8d 05 1a 7b 01 00 	lea    0x17b1a(%rip),%rax        # 241e8 <g_1147+0x28>
    c6ce:	48 89 05 3b 7b 01 00 	mov    %rax,0x17b3b(%rip)        # 24210 <g_1243>
    c6d5:	48 8b 05 34 7b 01 00 	mov    0x17b34(%rip),%rax        # 24210 <g_1243>
    c6dc:	48 39 85 b8 e4 ff ff 	cmp    %rax,-0x1b48(%rbp)
    c6e3:	75 0f                	jne    c6f4 <func_1+0xf3f>
    c6e5:	48 8b 05 a4 70 01 00 	mov    0x170a4(%rip),%rax        # 23790 <g_418>
    c6ec:	48 8b 00             	mov    (%rax),%rax
    c6ef:	48 85 c0             	test   %rax,%rax
    c6f2:	74 07                	je     c6fb <func_1+0xf46>
    c6f4:	b8 01 00 00 00       	mov    $0x1,%eax
    c6f9:	eb 05                	jmp    c700 <func_1+0xf4b>
    c6fb:	b8 00 00 00 00       	mov    $0x0,%eax
    c700:	83 e0 01             	and    $0x1,%eax
    c703:	31 d0                	xor    %edx,%eax
    c705:	0f b6 d8             	movzbl %al,%ebx
    c708:	0f bf 95 4a e0 ff ff 	movswl -0x1fb6(%rbp),%edx
    c70f:	48 8b 85 18 e2 ff ff 	mov    -0x1de8(%rbp),%rax
    c716:	8b 08                	mov    (%rax),%ecx
    c718:	0f b6 05 3b 4a 01 00 	movzbl 0x14a3b(%rip),%eax        # 2115a <g_501+0x2>
    c71f:	0f be c0             	movsbl %al,%eax
    c722:	33 85 a4 e1 ff ff    	xor    -0x1e5c(%rbp),%eax
    c728:	39 c1                	cmp    %eax,%ecx
    c72a:	0f 9d c0             	setge  %al
    c72d:	0f b6 c8             	movzbl %al,%ecx
    c730:	48 8b 85 18 e2 ff ff 	mov    -0x1de8(%rbp),%rax
    c737:	8b 00                	mov    (%rax),%eax
    c739:	09 c1                	or     %eax,%ecx
    c73b:	0f b7 05 fe 49 01 00 	movzwl 0x149fe(%rip),%eax        # 21140 <g_400>
    c742:	31 c8                	xor    %ecx,%eax
    c744:	f7 d0                	not    %eax
    c746:	98                   	cwtl   
    c747:	89 d6                	mov    %edx,%esi
    c749:	89 c7                	mov    %eax,%edi
    c74b:	e8 83 dc ff ff       	callq  a3d3 <safe_sub_func_int16_t_s_s>
    c750:	98                   	cwtl   
    c751:	be 37 40 00 00       	mov    $0x4037,%esi
    c756:	89 c7                	mov    %eax,%edi
    c758:	e8 98 dc ff ff       	callq  a3f5 <safe_mul_func_int16_t_s_s>
    c75d:	98                   	cwtl   
    c75e:	09 d8                	or     %ebx,%eax
    c760:	85 c0                	test   %eax,%eax
    c762:	0f 84 69 18 00 00    	je     dfd1 <func_1+0x281c>
    c768:	48 8d 05 09 4a 01 00 	lea    0x14a09(%rip),%rax        # 21178 <g_1129>
    c76f:	48 89 85 68 e5 ff ff 	mov    %rax,-0x1a98(%rbp)
    c776:	c7 85 c4 e0 ff ff 6e 	movl   $0x2df6d36e,-0x1f3c(%rbp)
    c77d:	d3 f6 2d 
    c780:	66 c7 85 6a e0 ff ff 	movw   $0x1,-0x1f96(%rbp)
    c787:	01 00 
    c789:	c7 85 c8 e1 ff ff d4 	movl   $0xc8f158d4,-0x1e38(%rbp)
    c790:	58 f1 c8 
    c793:	c7 85 c8 e0 ff ff 00 	movl   $0x0,-0x1f38(%rbp)
    c79a:	00 00 00 
    c79d:	c7 85 90 e2 ff ff ff 	movl   $0xffffffff,-0x1d70(%rbp)
    c7a4:	ff ff ff 
    c7a7:	c7 85 cc e1 ff ff fa 	movl   $0x6ad66afa,-0x1e34(%rbp)
    c7ae:	6a d6 6a 
    c7b1:	48 8d 85 80 e0 ff ff 	lea    -0x1f80(%rbp),%rax
    c7b8:	48 89 85 70 e5 ff ff 	mov    %rax,-0x1a90(%rbp)
    c7bf:	66 c7 85 6c e0 ff ff 	movw   $0xf83e,-0x1f94(%rbp)
    c7c6:	3e f8 
    c7c8:	c6 85 37 e0 ff ff f0 	movb   $0xf0,-0x1fc9(%rbp)
    c7cf:	c7 85 d0 e1 ff ff 05 	movl   $0x5,-0x1e30(%rbp)
    c7d6:	00 00 00 
    c7d9:	c7 85 e4 e0 ff ff 00 	movl   $0x0,-0x1f1c(%rbp)
    c7e0:	00 00 00 
    c7e3:	eb 19                	jmp    c7fe <func_1+0x1049>
    c7e5:	8b 85 e4 e0 ff ff    	mov    -0x1f1c(%rbp),%eax
    c7eb:	48 98                	cltq   
    c7ed:	66 c7 84 45 60 e6 ff 	movw   $0xcc5f,-0x19a0(%rbp,%rax,2)
    c7f4:	ff 5f cc 
    c7f7:	83 85 e4 e0 ff ff 01 	addl   $0x1,-0x1f1c(%rbp)
    c7fe:	83 bd e4 e0 ff ff 03 	cmpl   $0x3,-0x1f1c(%rbp)
    c805:	7e de                	jle    c7e5 <func_1+0x1030>
    c807:	c7 85 e4 e0 ff ff 00 	movl   $0x0,-0x1f1c(%rbp)
    c80e:	00 00 00 
    c811:	eb 50                	jmp    c863 <func_1+0x10ae>
    c813:	c7 85 e8 e0 ff ff 00 	movl   $0x0,-0x1f18(%rbp)
    c81a:	00 00 00 
    c81d:	eb 34                	jmp    c853 <func_1+0x109e>
    c81f:	8b 85 e8 e0 ff ff    	mov    -0x1f18(%rbp),%eax
    c825:	48 63 c8             	movslq %eax,%rcx
    c828:	8b 85 e4 e0 ff ff    	mov    -0x1f1c(%rbp),%eax
    c82e:	48 63 d0             	movslq %eax,%rdx
    c831:	48 89 d0             	mov    %rdx,%rax
    c834:	48 c1 e0 02          	shl    $0x2,%rax
    c838:	48 01 d0             	add    %rdx,%rax
    c83b:	48 01 c0             	add    %rax,%rax
    c83e:	48 01 c8             	add    %rcx,%rax
    c841:	c7 84 85 10 e9 ff ff 	movl   $0xaf734377,-0x16f0(%rbp,%rax,4)
    c848:	77 43 73 af 
    c84c:	83 85 e8 e0 ff ff 01 	addl   $0x1,-0x1f18(%rbp)
    c853:	83 bd e8 e0 ff ff 09 	cmpl   $0x9,-0x1f18(%rbp)
    c85a:	7e c3                	jle    c81f <func_1+0x106a>
    c85c:	83 85 e4 e0 ff ff 01 	addl   $0x1,-0x1f1c(%rbp)
    c863:	83 bd e4 e0 ff ff 03 	cmpl   $0x3,-0x1f1c(%rbp)
    c86a:	7e a7                	jle    c813 <func_1+0x105e>
    c86c:	8b 9d a8 e1 ff ff    	mov    -0x1e58(%rbp),%ebx
    c872:	44 8b a5 a8 e1 ff ff 	mov    -0x1e58(%rbp),%r12d
    c879:	44 0f bf ad 68 e0 ff 	movswl -0x1f98(%rbp),%r13d
    c880:	ff 
    c881:	0f b7 85 66 e6 ff ff 	movzwl -0x199a(%rbp),%eax
    c888:	0f b7 d0             	movzwl %ax,%edx
    c88b:	8b 05 8f 48 01 00    	mov    0x1488f(%rip),%eax        # 21120 <g_354+0x40>
    c891:	35 f7 ff 00 00       	xor    $0xfff7,%eax
    c896:	89 c1                	mov    %eax,%ecx
    c898:	48 8b 05 29 8f 01 00 	mov    0x18f29(%rip),%rax        # 257c8 <g_497+0x28>
    c89f:	48 39 c1             	cmp    %rax,%rcx
    c8a2:	0f 97 c0             	seta   %al
    c8a5:	0f b6 c0             	movzbl %al,%eax
    c8a8:	89 d6                	mov    %edx,%esi
    c8aa:	89 c7                	mov    %eax,%edi
    c8ac:	e8 0d e4 ff ff       	callq  acbe <safe_rshift_func_uint8_t_u_u>
    c8b1:	84 c0                	test   %al,%al
    c8b3:	74 07                	je     c8bc <func_1+0x1107>
    c8b5:	b8 01 00 00 00       	mov    $0x1,%eax
    c8ba:	eb 05                	jmp    c8c1 <func_1+0x110c>
    c8bc:	b8 00 00 00 00       	mov    $0x0,%eax
    c8c1:	44 0f bf f0          	movswl %ax,%r14d
    c8c5:	48 83 bd b8 e2 ff ff 	cmpq   $0x0,-0x1d48(%rbp)
    c8cc:	00 
    c8cd:	0f 95 c0             	setne  %al
    c8d0:	0f b6 c0             	movzbl %al,%eax
    c8d3:	be ff ff 00 00       	mov    $0xffff,%esi
    c8d8:	89 c7                	mov    %eax,%edi
    c8da:	e8 7d e4 ff ff       	callq  ad5c <safe_mod_func_uint16_t_u_u>
    c8df:	98                   	cwtl   
    c8e0:	44 89 f6             	mov    %r14d,%esi
    c8e3:	89 c7                	mov    %eax,%edi
    c8e5:	e8 e9 da ff ff       	callq  a3d3 <safe_sub_func_int16_t_s_s>
    c8ea:	0f bf d0             	movswl %ax,%edx
    c8ed:	0f b7 85 66 e6 ff ff 	movzwl -0x199a(%rbp),%eax
    c8f4:	0f b7 c0             	movzwl %ax,%eax
    c8f7:	39 c2                	cmp    %eax,%edx
    c8f9:	0f 9f c0             	setg   %al
    c8fc:	0f b6 c0             	movzbl %al,%eax
    c8ff:	44 89 ee             	mov    %r13d,%esi
    c902:	89 c7                	mov    %eax,%edi
    c904:	e8 71 e5 ff ff       	callq  ae7a <safe_rshift_func_uint16_t_u_u>
    c909:	0f b7 d0             	movzwl %ax,%edx
    c90c:	48 8b 05 35 47 01 00 	mov    0x14735(%rip),%rax        # 21048 <g_98>
    c913:	48 39 c2             	cmp    %rax,%rdx
    c916:	0f 96 c0             	setbe  %al
    c919:	0f b6 c0             	movzbl %al,%eax
    c91c:	be 65 a5 6d 22       	mov    $0x226da565,%esi
    c921:	89 c7                	mov    %eax,%edi
    c923:	e8 a4 dd ff ff       	callq  a6cc <safe_mod_func_int32_t_s_s>
    c928:	48 98                	cltq   
    c92a:	48 ba 08 64 49 e4 95 	movabs $0xcafd2395e4496408,%rdx
    c931:	23 fd ca 
    c934:	48 09 d0             	or     %rdx,%rax
    c937:	48 83 f0 f9          	xor    $0xfffffffffffffff9,%rax
    c93b:	4c 89 e6             	mov    %r12,%rsi
    c93e:	48 89 c7             	mov    %rax,%rdi
    c941:	e8 69 e7 ff ff       	callq  b0af <safe_div_func_uint64_t_u_u>
    c946:	89 85 b4 e0 ff ff    	mov    %eax,-0x1f4c(%rbp)
    c94c:	8b 95 b4 e0 ff ff    	mov    -0x1f4c(%rbp),%edx
    c952:	0f b7 05 03 48 01 00 	movzwl 0x14803(%rip),%eax        # 2115c <g_569>
    c959:	0f b7 c0             	movzwl %ax,%eax
    c95c:	31 c2                	xor    %eax,%edx
    c95e:	48 8b 85 18 e2 ff ff 	mov    -0x1de8(%rbp),%rax
    c965:	8b 00                	mov    (%rax),%eax
    c967:	39 c2                	cmp    %eax,%edx
    c969:	0f 9f c0             	setg   %al
    c96c:	0f b6 c0             	movzbl %al,%eax
    c96f:	89 de                	mov    %ebx,%esi
    c971:	89 c7                	mov    %eax,%edi
    c973:	e8 bd d9 ff ff       	callq  a335 <safe_rshift_func_int8_t_s_s>
    c978:	89 c2                	mov    %eax,%edx
    c97a:	48 8b 85 18 e2 ff ff 	mov    -0x1de8(%rbp),%rax
    c981:	0f be d2             	movsbl %dl,%edx
    c984:	89 10                	mov    %edx,(%rax)
    c986:	48 8b 85 68 e5 ff ff 	mov    -0x1a98(%rbp),%rax
    c98d:	8b 00                	mov    (%rax),%eax
    c98f:	8d 50 01             	lea    0x1(%rax),%edx
    c992:	48 8b 85 68 e5 ff ff 	mov    -0x1a98(%rbp),%rax
    c999:	89 10                	mov    %edx,(%rax)
    c99b:	48 8b 85 68 e5 ff ff 	mov    -0x1a98(%rbp),%rax
    c9a2:	8b 00                	mov    (%rax),%eax
    c9a4:	89 c7                	mov    %eax,%edi
    c9a6:	e8 eb db ff ff       	callq  a596 <safe_unary_minus_func_int32_t_s>
    c9ab:	89 c2                	mov    %eax,%edx
    c9ad:	48 8b 85 18 e2 ff ff 	mov    -0x1de8(%rbp),%rax
    c9b4:	8b 08                	mov    (%rax),%ecx
    c9b6:	48 8b 85 18 e2 ff ff 	mov    -0x1de8(%rbp),%rax
    c9bd:	21 ca                	and    %ecx,%edx
    c9bf:	89 10                	mov    %edx,(%rax)
    c9c1:	48 83 bd 18 e5 ff ff 	cmpq   $0x0,-0x1ae8(%rbp)
    c9c8:	00 
    c9c9:	0f 84 7c 03 00 00    	je     cd4b <func_1+0x1596>
    c9cf:	48 8d 05 3a 6a 01 00 	lea    0x16a3a(%rip),%rax        # 23410 <g_290>
    c9d6:	48 89 85 78 e5 ff ff 	mov    %rax,-0x1a88(%rbp)
    c9dd:	c7 85 d4 e1 ff ff 46 	movl   $0xe120b346,-0x1e2c(%rbp)
    c9e4:	b3 20 e1 
    c9e7:	c7 85 d8 e1 ff ff 01 	movl   $0x1,-0x1e28(%rbp)
    c9ee:	00 00 00 
    c9f1:	c7 85 dc e1 ff ff 4d 	movl   $0x2b57b54d,-0x1e24(%rbp)
    c9f8:	b5 57 2b 
    c9fb:	c7 85 e0 e1 ff ff 04 	movl   $0x4,-0x1e20(%rbp)
    ca02:	00 00 00 
    ca05:	c7 85 e4 e1 ff ff f7 	movl   $0xfffffff7,-0x1e1c(%rbp)
    ca0c:	ff ff ff 
    ca0f:	c7 85 e8 e1 ff ff fc 	movl   $0xfffffffc,-0x1e18(%rbp)
    ca16:	ff ff ff 
    ca19:	48 8d 85 c0 e0 ff ff 	lea    -0x1f40(%rbp),%rax
    ca20:	48 89 85 80 e5 ff ff 	mov    %rax,-0x1a80(%rbp)
    ca27:	c7 85 ec e0 ff ff 00 	movl   $0x0,-0x1f14(%rbp)
    ca2e:	00 00 00 
    ca31:	eb 19                	jmp    ca4c <func_1+0x1297>
    ca33:	8b 85 ec e0 ff ff    	mov    -0x1f14(%rbp),%eax
    ca39:	48 98                	cltq   
    ca3b:	66 c7 84 45 68 e6 ff 	movw   $0xfffc,-0x1998(%rbp,%rax,2)
    ca42:	ff fc ff 
    ca45:	83 85 ec e0 ff ff 01 	addl   $0x1,-0x1f14(%rbp)
    ca4c:	83 bd ec e0 ff ff 03 	cmpl   $0x3,-0x1f14(%rbp)
    ca53:	7e de                	jle    ca33 <func_1+0x127e>
    ca55:	48 c7 05 08 47 01 00 	movq   $0x0,0x14708(%rip)        # 21168 <g_908>
    ca5c:	00 00 00 00 
    ca60:	eb 7e                	jmp    cae0 <func_1+0x132b>
    ca62:	48 c7 85 88 e5 ff ff 	movq   $0x0,-0x1a78(%rbp)
    ca69:	00 00 00 00 
    ca6d:	48 8d 85 f0 f7 ff ff 	lea    -0x810(%rbp),%rax
    ca74:	48 8d 15 05 49 01 00 	lea    0x14905(%rip),%rdx        # 21380 <g_2844+0x6>
    ca7b:	b9 78 00 00 00       	mov    $0x78,%ecx
    ca80:	48 89 c7             	mov    %rax,%rdi
    ca83:	48 89 d6             	mov    %rdx,%rsi
    ca86:	f3 48 a5             	rep movsq %ds:(%rsi),%es:(%rdi)
    ca89:	0f b7 85 6a e6 ff ff 	movzwl -0x1996(%rbp),%eax
    ca90:	83 c0 01             	add    $0x1,%eax
    ca93:	66 89 85 6a e6 ff ff 	mov    %ax,-0x1996(%rbp)
    ca9a:	48 c7 85 28 fb ff ff 	movq   $0x0,-0x4d8(%rbp)
    caa1:	00 00 00 00 
    caa5:	48 8b 05 4c 69 01 00 	mov    0x1694c(%rip),%rax        # 233f8 <g_288>
    caac:	48 8d 95 c4 e0 ff ff 	lea    -0x1f3c(%rbp),%rdx
    cab3:	48 89 10             	mov    %rdx,(%rax)
    cab6:	66 83 bd 4e e0 ff ff 	cmpw   $0x0,-0x1fb2(%rbp)
    cabd:	00 
    cabe:	75 33                	jne    caf3 <func_1+0x133e>
    cac0:	48 8b 05 a1 46 01 00 	mov    0x146a1(%rip),%rax        # 21168 <g_908>
    cac7:	0f b6 c0             	movzbl %al,%eax
    caca:	be 01 00 00 00       	mov    $0x1,%esi
    cacf:	89 c7                	mov    %eax,%edi
    cad1:	e8 84 e0 ff ff       	callq  ab5a <safe_add_func_uint8_t_u_u>
    cad6:	0f b6 c0             	movzbl %al,%eax
    cad9:	48 89 05 88 46 01 00 	mov    %rax,0x14688(%rip)        # 21168 <g_908>
    cae0:	48 8b 05 81 46 01 00 	mov    0x14681(%rip),%rax        # 21168 <g_908>
    cae7:	48 83 f8 1a          	cmp    $0x1a,%rax
    caeb:	0f 85 71 ff ff ff    	jne    ca62 <func_1+0x12ad>
    caf1:	eb 01                	jmp    caf4 <func_1+0x133f>
    caf3:	90                   	nop
    caf4:	48 8b 85 78 e5 ff ff 	mov    -0x1a88(%rbp),%rax
    cafb:	48 89 85 b0 e2 ff ff 	mov    %rax,-0x1d50(%rbp)
    cb02:	66 c7 85 4e e0 ff ff 	movw   $0x0,-0x1fb2(%rbp)
    cb09:	00 00 
    cb0b:	e9 28 02 00 00       	jmpq   cd38 <func_1+0x1583>
    cb10:	48 8d 85 b4 e0 ff ff 	lea    -0x1f4c(%rbp),%rax
    cb17:	48 89 85 90 e5 ff ff 	mov    %rax,-0x1a70(%rbp)
    cb1e:	48 8d 05 9f 45 01 00 	lea    0x1459f(%rip),%rax        # 210c4 <g_353>
    cb25:	48 89 85 98 e5 ff ff 	mov    %rax,-0x1a68(%rbp)
    cb2c:	48 8d 85 c4 e0 ff ff 	lea    -0x1f3c(%rbp),%rax
    cb33:	48 89 85 a0 e5 ff ff 	mov    %rax,-0x1a60(%rbp)
    cb3a:	48 8d 85 c4 e0 ff ff 	lea    -0x1f3c(%rbp),%rax
    cb41:	48 89 85 f0 f7 ff ff 	mov    %rax,-0x810(%rbp)
    cb48:	48 8d 85 c4 e0 ff ff 	lea    -0x1f3c(%rbp),%rax
    cb4f:	48 89 85 f8 f7 ff ff 	mov    %rax,-0x808(%rbp)
    cb56:	48 c7 85 00 f8 ff ff 	movq   $0x0,-0x800(%rbp)
    cb5d:	00 00 00 00 
    cb61:	48 c7 85 08 f8 ff ff 	movq   $0x0,-0x7f8(%rbp)
    cb68:	00 00 00 00 
    cb6c:	48 8d 85 c4 e0 ff ff 	lea    -0x1f3c(%rbp),%rax
    cb73:	48 89 85 10 f8 ff ff 	mov    %rax,-0x7f0(%rbp)
    cb7a:	48 8d 85 c4 e0 ff ff 	lea    -0x1f3c(%rbp),%rax
    cb81:	48 89 85 18 f8 ff ff 	mov    %rax,-0x7e8(%rbp)
    cb88:	48 c7 85 20 f8 ff ff 	movq   $0x0,-0x7e0(%rbp)
    cb8f:	00 00 00 00 
    cb93:	48 c7 85 28 f8 ff ff 	movq   $0x0,-0x7d8(%rbp)
    cb9a:	00 00 00 00 
    cb9e:	48 8d 85 c4 e0 ff ff 	lea    -0x1f3c(%rbp),%rax
    cba5:	48 89 85 30 f8 ff ff 	mov    %rax,-0x7d0(%rbp)
    cbac:	48 8d 85 c4 e0 ff ff 	lea    -0x1f3c(%rbp),%rax
    cbb3:	48 89 85 38 f8 ff ff 	mov    %rax,-0x7c8(%rbp)
    cbba:	48 c7 85 40 f8 ff ff 	movq   $0x0,-0x7c0(%rbp)
    cbc1:	00 00 00 00 
    cbc5:	48 c7 85 48 f8 ff ff 	movq   $0x0,-0x7b8(%rbp)
    cbcc:	00 00 00 00 
    cbd0:	48 8d 85 c4 e0 ff ff 	lea    -0x1f3c(%rbp),%rax
    cbd7:	48 89 85 50 f8 ff ff 	mov    %rax,-0x7b0(%rbp)
    cbde:	48 8d 85 c4 e0 ff ff 	lea    -0x1f3c(%rbp),%rax
    cbe5:	48 89 85 58 f8 ff ff 	mov    %rax,-0x7a8(%rbp)
    cbec:	48 c7 85 60 f8 ff ff 	movq   $0x0,-0x7a0(%rbp)
    cbf3:	00 00 00 00 
    cbf7:	48 c7 85 68 f8 ff ff 	movq   $0x0,-0x798(%rbp)
    cbfe:	00 00 00 00 
    cc02:	48 8d 85 c4 e0 ff ff 	lea    -0x1f3c(%rbp),%rax
    cc09:	48 89 85 70 f8 ff ff 	mov    %rax,-0x790(%rbp)
    cc10:	48 8d 85 c4 e0 ff ff 	lea    -0x1f3c(%rbp),%rax
    cc17:	48 89 85 78 f8 ff ff 	mov    %rax,-0x788(%rbp)
    cc1e:	48 c7 85 80 f8 ff ff 	movq   $0x0,-0x780(%rbp)
    cc25:	00 00 00 00 
    cc29:	48 c7 85 88 f8 ff ff 	movq   $0x0,-0x778(%rbp)
    cc30:	00 00 00 00 
    cc34:	c7 85 ec e1 ff ff 01 	movl   $0x1,-0x1e14(%rbp)
    cc3b:	00 00 00 
    cc3e:	c7 85 f0 e0 ff ff 00 	movl   $0x0,-0x1f10(%rbp)
    cc45:	00 00 00 
    cc48:	eb 1e                	jmp    cc68 <func_1+0x14b3>
    cc4a:	8b 85 f0 e0 ff ff    	mov    -0x1f10(%rbp),%eax
    cc50:	48 98                	cltq   
    cc52:	48 8d 95 18 e2 ff ff 	lea    -0x1de8(%rbp),%rdx
    cc59:	48 89 94 c5 70 e6 ff 	mov    %rdx,-0x1990(%rbp,%rax,8)
    cc60:	ff 
    cc61:	83 85 f0 e0 ff ff 01 	addl   $0x1,-0x1f10(%rbp)
    cc68:	83 bd f0 e0 ff ff 01 	cmpl   $0x1,-0x1f10(%rbp)
    cc6f:	7e d9                	jle    cc4a <func_1+0x1495>
    cc71:	48 8b 85 18 e2 ff ff 	mov    -0x1de8(%rbp),%rax
    cc78:	8b 08                	mov    (%rax),%ecx
    cc7a:	0f b7 95 6a e0 ff ff 	movzwl -0x1f96(%rbp),%edx
    cc81:	48 8b 85 18 e2 ff ff 	mov    -0x1de8(%rbp),%rax
    cc88:	21 ca                	and    %ecx,%edx
    cc8a:	89 10                	mov    %edx,(%rax)
    cc8c:	8b 85 a0 e7 ff ff    	mov    -0x1860(%rbp),%eax
    cc92:	83 c0 01             	add    $0x1,%eax
    cc95:	89 85 a0 e7 ff ff    	mov    %eax,-0x1860(%rbp)
    cc9b:	48 8d 85 b0 e0 ff ff 	lea    -0x1f50(%rbp),%rax
    cca2:	48 89 85 80 e5 ff ff 	mov    %rax,-0x1a80(%rbp)
    cca9:	0f b7 05 cc 44 01 00 	movzwl 0x144cc(%rip),%eax        # 2117c <g_1333>
    ccb0:	0f b7 c0             	movzwl %ax,%eax
    ccb3:	48 8b 15 d6 6a 01 00 	mov    0x16ad6(%rip),%rdx        # 23790 <g_418>
    ccba:	48 8b 12             	mov    (%rdx),%rdx
    ccbd:	ba 08 00 00 00       	mov    $0x8,%edx
    ccc2:	48 85 d2             	test   %rdx,%rdx
    ccc5:	48 8b 95 18 e5 ff ff 	mov    -0x1ae8(%rbp),%rdx
    cccc:	80 ca ff             	or     $0xff,%dl
    cccf:	48 89 c6             	mov    %rax,%rsi
    ccd2:	48 89 d7             	mov    %rdx,%rdi
    ccd5:	e8 71 e3 ff ff       	callq  b04b <safe_sub_func_uint64_t_u_u>
    ccda:	48 3d ee 00 00 00    	cmp    $0xee,%rax
    cce0:	75 09                	jne    cceb <func_1+0x1536>
    cce2:	80 bd 37 e0 ff ff 00 	cmpb   $0x0,-0x1fc9(%rbp)
    cce9:	74 07                	je     ccf2 <func_1+0x153d>
    cceb:	b8 01 00 00 00       	mov    $0x1,%eax
    ccf0:	eb 05                	jmp    ccf7 <func_1+0x1542>
    ccf2:	b8 00 00 00 00       	mov    $0x0,%eax
    ccf7:	89 c2                	mov    %eax,%edx
    ccf9:	48 8b 85 68 e5 ff ff 	mov    -0x1a98(%rbp),%rax
    cd00:	89 10                	mov    %edx,(%rax)
    cd02:	48 8b 85 70 e5 ff ff 	mov    -0x1a90(%rbp),%rax
    cd09:	8b 10                	mov    (%rax),%edx
    cd0b:	8b 85 bc e0 ff ff    	mov    -0x1f44(%rbp),%eax
    cd11:	09 d0                	or     %edx,%eax
    cd13:	89 85 bc e0 ff ff    	mov    %eax,-0x1f44(%rbp)
    cd19:	8b 85 94 e0 ff ff    	mov    -0x1f6c(%rbp),%eax
    cd1f:	85 c0                	test   %eax,%eax
    cd21:	0f 85 a4 00 00 00    	jne    cdcb <func_1+0x1616>
    cd27:	0f b7 85 4e e0 ff ff 	movzwl -0x1fb2(%rbp),%eax
    cd2e:	83 c0 01             	add    $0x1,%eax
    cd31:	66 89 85 4e e0 ff ff 	mov    %ax,-0x1fb2(%rbp)
    cd38:	66 83 bd 4e e0 ff ff 	cmpw   $0x11,-0x1fb2(%rbp)
    cd3f:	11 
    cd40:	0f 8f ca fd ff ff    	jg     cb10 <func_1+0x135b>
    cd46:	e9 81 00 00 00       	jmpq   cdcc <func_1+0x1617>
    cd4b:	c6 05 f2 42 01 00 00 	movb   $0x0,0x142f2(%rip)        # 21044 <g_63>
    cd52:	eb 6a                	jmp    cdbe <func_1+0x1609>
    cd54:	c6 05 03 44 01 00 00 	movb   $0x0,0x14403(%rip)        # 2115e <g_588>
    cd5b:	eb 46                	jmp    cda3 <func_1+0x15ee>
    cd5d:	0f b6 05 e0 42 01 00 	movzbl 0x142e0(%rip),%eax        # 21044 <g_63>
    cd64:	0f b6 c0             	movzbl %al,%eax
    cd67:	0f b6 15 f0 43 01 00 	movzbl 0x143f0(%rip),%edx        # 2115e <g_588>
    cd6e:	0f b6 d2             	movzbl %dl,%edx
    cd71:	48 63 ca             	movslq %edx,%rcx
    cd74:	48 63 d0             	movslq %eax,%rdx
    cd77:	48 89 d0             	mov    %rdx,%rax
    cd7a:	48 c1 e0 03          	shl    $0x3,%rax
    cd7e:	48 01 d0             	add    %rdx,%rax
    cd81:	48 01 c8             	add    %rcx,%rax
    cd84:	48 8d 15 8d 74 01 00 	lea    0x1748d(%rip),%rdx        # 24218 <g_1337>
    cd8b:	48 89 94 c5 30 f1 ff 	mov    %rdx,-0xed0(%rbp,%rax,8)
    cd92:	ff 
    cd93:	0f b6 05 c4 43 01 00 	movzbl 0x143c4(%rip),%eax        # 2115e <g_588>
    cd9a:	83 c0 01             	add    $0x1,%eax
    cd9d:	88 05 bb 43 01 00    	mov    %al,0x143bb(%rip)        # 2115e <g_588>
    cda3:	0f b6 05 b4 43 01 00 	movzbl 0x143b4(%rip),%eax        # 2115e <g_588>
    cdaa:	3c 08                	cmp    $0x8,%al
    cdac:	76 af                	jbe    cd5d <func_1+0x15a8>
    cdae:	0f b6 05 8f 42 01 00 	movzbl 0x1428f(%rip),%eax        # 21044 <g_63>
    cdb5:	83 c0 01             	add    $0x1,%eax
    cdb8:	88 05 86 42 01 00    	mov    %al,0x14286(%rip)        # 21044 <g_63>
    cdbe:	0f b6 05 7f 42 01 00 	movzbl 0x1427f(%rip),%eax        # 21044 <g_63>
    cdc5:	3c 02                	cmp    $0x2,%al
    cdc7:	76 8b                	jbe    cd54 <func_1+0x159f>
    cdc9:	eb 01                	jmp    cdcc <func_1+0x1617>
    cdcb:	90                   	nop
    cdcc:	66 83 bd 4a e0 ff ff 	cmpw   $0x0,-0x1fb6(%rbp)
    cdd3:	00 
    cdd4:	0f 84 16 01 00 00    	je     cef0 <func_1+0x173b>
    cdda:	48 8d 05 67 42 01 00 	lea    0x14267(%rip),%rax        # 21048 <g_98>
    cde1:	48 89 85 18 e6 ff ff 	mov    %rax,-0x19e8(%rbp)
    cde8:	c7 85 f4 e0 ff ff 00 	movl   $0x0,-0x1f0c(%rbp)
    cdef:	00 00 00 
    cdf2:	eb 1b                	jmp    ce0f <func_1+0x165a>
    cdf4:	8b 85 f4 e0 ff ff    	mov    -0x1f0c(%rbp),%eax
    cdfa:	48 98                	cltq   
    cdfc:	48 c7 84 c5 f0 f7 ff 	movq   $0x9,-0x810(%rbp,%rax,8)
    ce03:	ff 09 00 00 00 
    ce08:	83 85 f4 e0 ff ff 01 	addl   $0x1,-0x1f0c(%rbp)
    ce0f:	83 bd f4 e0 ff ff 05 	cmpl   $0x5,-0x1f0c(%rbp)
    ce16:	7e dc                	jle    cdf4 <func_1+0x163f>
    ce18:	48 8b 85 f0 f7 ff ff 	mov    -0x810(%rbp),%rax
    ce1f:	48 85 c0             	test   %rax,%rax
    ce22:	75 5e                	jne    ce82 <func_1+0x16cd>
    ce24:	48 8b 85 70 e5 ff ff 	mov    -0x1a90(%rbp),%rax
    ce2b:	8b 00                	mov    (%rax),%eax
    ce2d:	0f b7 d8             	movzwl %ax,%ebx
    ce30:	0f b7 85 4a e0 ff ff 	movzwl -0x1fb6(%rbp),%eax
    ce37:	0f b7 c0             	movzwl %ax,%eax
    ce3a:	89 c6                	mov    %eax,%esi
    ce3c:	bf 8b cf 00 00       	mov    $0xcf8b,%edi
    ce41:	e8 f7 de ff ff       	callq  ad3d <safe_mul_func_uint16_t_u_u>
    ce46:	0f b7 c0             	movzwl %ax,%eax
    ce49:	89 de                	mov    %ebx,%esi
    ce4b:	89 c7                	mov    %eax,%edi
    ce4d:	e8 cd de ff ff       	callq  ad1f <safe_sub_func_uint16_t_u_u>
    ce52:	0f b7 d0             	movzwl %ax,%edx
    ce55:	48 8b 85 18 e2 ff ff 	mov    -0x1de8(%rbp),%rax
    ce5c:	8b 00                	mov    (%rax),%eax
    ce5e:	39 c2                	cmp    %eax,%edx
    ce60:	0f 9c c0             	setl   %al
    ce63:	0f b6 c0             	movzbl %al,%eax
    ce66:	be 00 00 00 00       	mov    $0x0,%esi
    ce6b:	89 c7                	mov    %eax,%edi
    ce6d:	e8 1b de ff ff       	callq  ac8d <safe_rshift_func_uint8_t_u_s>
    ce72:	48 8b 05 bf 6a 01 00 	mov    0x16abf(%rip),%rax        # 23938 <g_494>
    ce79:	48 8b 00             	mov    (%rax),%rax
    ce7c:	48 8b 00             	mov    (%rax),%rax
    ce7f:	48 8b 00             	mov    (%rax),%rax
    ce82:	48 8b 95 f0 f7 ff ff 	mov    -0x810(%rbp),%rdx
    ce89:	48 8b 85 70 e5 ff ff 	mov    -0x1a90(%rbp),%rax
    ce90:	8b 00                	mov    (%rax),%eax
    ce92:	48 98                	cltq   
    ce94:	48 39 c2             	cmp    %rax,%rdx
    ce97:	0f 97 c0             	seta   %al
    ce9a:	0f b6 d8             	movzbl %al,%ebx
    ce9d:	bf 85 24 00 00       	mov    $0x2485,%edi
    cea2:	e8 42 de ff ff       	callq  ace9 <safe_unary_minus_func_uint16_t_u>
    cea7:	0f b7 c0             	movzwl %ax,%eax
    ceaa:	89 de                	mov    %ebx,%esi
    ceac:	89 c7                	mov    %eax,%edi
    ceae:	e8 4c de ff ff       	callq  acff <safe_add_func_uint16_t_u_u>
    ceb3:	66 83 f8 05          	cmp    $0x5,%ax
    ceb7:	0f 95 c0             	setne  %al
    ceba:	0f b6 d0             	movzbl %al,%edx
    cebd:	48 8b 85 18 e6 ff ff 	mov    -0x19e8(%rbp),%rax
    cec4:	48 89 10             	mov    %rdx,(%rax)
    cec7:	48 8b 85 18 e6 ff ff 	mov    -0x19e8(%rbp),%rax
    cece:	48 8b 10             	mov    (%rax),%rdx
    ced1:	8b 85 8c e1 ff ff    	mov    -0x1e74(%rbp),%eax
    ced7:	48 98                	cltq   
    ced9:	48 39 c2             	cmp    %rax,%rdx
    cedc:	0f 93 c0             	setae  %al
    cedf:	0f b6 d0             	movzbl %al,%edx
    cee2:	48 8b 85 70 e5 ff ff 	mov    -0x1a90(%rbp),%rax
    cee9:	89 10                	mov    %edx,(%rax)
    ceeb:	e9 ac 15 00 00       	jmpq   e49c <func_1+0x2ce7>
    cef0:	c6 85 45 e0 ff ff 0f 	movb   $0xf,-0x1fbb(%rbp)
    cef7:	c7 85 98 e2 ff ff 07 	movl   $0x7,-0x1d68(%rbp)
    cefe:	00 00 00 
    cf01:	48 8d 85 8c e0 ff ff 	lea    -0x1f74(%rbp),%rax
    cf08:	48 89 85 a8 e5 ff ff 	mov    %rax,-0x1a58(%rbp)
    cf0f:	48 8d 85 00 eb ff ff 	lea    -0x1500(%rbp),%rax
    cf16:	48 05 f4 00 00 00    	add    $0xf4,%rax
    cf1c:	48 89 85 b0 e5 ff ff 	mov    %rax,-0x1a50(%rbp)
    cf23:	48 c7 85 b8 e5 ff ff 	movq   $0x0,-0x1a48(%rbp)
    cf2a:	00 00 00 00 
    cf2e:	48 8d 85 00 eb ff ff 	lea    -0x1500(%rbp),%rax
    cf35:	48 83 c0 74          	add    $0x74,%rax
    cf39:	48 89 85 c0 e5 ff ff 	mov    %rax,-0x1a40(%rbp)
    cf40:	48 8d 05 1d 41 01 00 	lea    0x1411d(%rip),%rax        # 21064 <g_108+0x4>
    cf47:	48 89 85 c8 e5 ff ff 	mov    %rax,-0x1a38(%rbp)
    cf4e:	48 8d 85 90 e2 ff ff 	lea    -0x1d70(%rbp),%rax
    cf55:	48 89 85 d0 e5 ff ff 	mov    %rax,-0x1a30(%rbp)
    cf5c:	48 8d 05 61 41 01 00 	lea    0x14161(%rip),%rax        # 210c4 <g_353>
    cf63:	48 89 85 d8 e5 ff ff 	mov    %rax,-0x1a28(%rbp)
    cf6a:	48 8d 85 bc e0 ff ff 	lea    -0x1f44(%rbp),%rax
    cf71:	48 89 85 e0 e5 ff ff 	mov    %rax,-0x1a20(%rbp)
    cf78:	48 8d 85 58 e6 ff ff 	lea    -0x19a8(%rbp),%rax
    cf7f:	48 89 85 e8 e5 ff ff 	mov    %rax,-0x1a18(%rbp)
    cf86:	48 8d 05 db 40 01 00 	lea    0x140db(%rip),%rax        # 21068 <g_108+0x8>
    cf8d:	48 89 85 f0 e5 ff ff 	mov    %rax,-0x1a10(%rbp)
    cf94:	48 8d 85 b0 e0 ff ff 	lea    -0x1f50(%rbp),%rax
    cf9b:	48 89 85 f8 e5 ff ff 	mov    %rax,-0x1a08(%rbp)
    cfa2:	c7 85 a8 e2 ff ff fe 	movl   $0xfffffffe,-0x1d58(%rbp)
    cfa9:	ff ff ff 
    cfac:	c7 85 f8 e0 ff ff 00 	movl   $0x0,-0x1f08(%rbp)
    cfb3:	00 00 00 
    cfb6:	eb 1e                	jmp    cfd6 <func_1+0x1821>
    cfb8:	8b 85 f8 e0 ff ff    	mov    -0x1f08(%rbp),%eax
    cfbe:	48 98                	cltq   
    cfc0:	48 8d 95 a8 e2 ff ff 	lea    -0x1d58(%rbp),%rdx
    cfc7:	48 89 94 c5 70 e6 ff 	mov    %rdx,-0x1990(%rbp,%rax,8)
    cfce:	ff 
    cfcf:	83 85 f8 e0 ff ff 01 	addl   $0x1,-0x1f08(%rbp)
    cfd6:	83 bd f8 e0 ff ff 01 	cmpl   $0x1,-0x1f08(%rbp)
    cfdd:	7e d9                	jle    cfb8 <func_1+0x1803>
    cfdf:	80 ad 45 e0 ff ff 01 	subb   $0x1,-0x1fbb(%rbp)
    cfe6:	c7 85 90 e2 ff ff 02 	movl   $0x2,-0x1d70(%rbp)
    cfed:	00 00 00 
    cff0:	e9 03 02 00 00       	jmpq   d1f8 <func_1+0x1a43>
    cff5:	48 c7 85 00 e6 ff ff 	movq   $0x0,-0x1a00(%rbp)
    cffc:	00 00 00 00 
    d000:	48 8d 05 41 40 01 00 	lea    0x14041(%rip),%rax        # 21048 <g_98>
    d007:	48 89 85 08 e6 ff ff 	mov    %rax,-0x19f8(%rbp)
    d00e:	c7 85 f0 e1 ff ff 90 	movl   $0x503ea590,-0x1e10(%rbp)
    d015:	a5 3e 50 
    d018:	c7 85 fc e0 ff ff 00 	movl   $0x0,-0x1f04(%rbp)
    d01f:	00 00 00 
    d022:	eb 1e                	jmp    d042 <func_1+0x188d>
    d024:	8b 85 fc e0 ff ff    	mov    -0x1f04(%rbp),%eax
    d02a:	48 98                	cltq   
    d02c:	48 8d 15 fd 71 01 00 	lea    0x171fd(%rip),%rdx        # 24230 <g_1353>
    d033:	48 89 94 c5 f0 f7 ff 	mov    %rdx,-0x810(%rbp,%rax,8)
    d03a:	ff 
    d03b:	83 85 fc e0 ff ff 01 	addl   $0x1,-0x1f04(%rbp)
    d042:	83 bd fc e0 ff ff 00 	cmpl   $0x0,-0x1f04(%rbp)
    d049:	7e d9                	jle    d024 <func_1+0x186f>
    d04b:	48 8b 05 4e 69 01 00 	mov    0x1694e(%rip),%rax        # 239a0 <g_1036>
    d052:	48 8b 10             	mov    (%rax),%rdx
    d055:	48 8b 05 34 71 01 00 	mov    0x17134(%rip),%rax        # 24190 <g_1060>
    d05c:	48 8b 00             	mov    (%rax),%rax
    d05f:	48 39 c2             	cmp    %rax,%rdx
    d062:	0f 95 c2             	setne  %dl
    d065:	48 8b 85 18 e2 ff ff 	mov    -0x1de8(%rbp),%rax
    d06c:	0f b6 d2             	movzbl %dl,%edx
    d06f:	89 10                	mov    %edx,(%rax)
    d071:	48 8b 05 b8 71 01 00 	mov    0x171b8(%rip),%rax        # 24230 <g_1353>
    d078:	48 89 85 c0 e4 ff ff 	mov    %rax,-0x1b40(%rbp)
    d07f:	48 8b 85 c0 e4 ff ff 	mov    -0x1b40(%rbp),%rax
    d086:	48 89 05 a3 71 01 00 	mov    %rax,0x171a3(%rip)        # 24230 <g_1353>
    d08d:	80 bd 45 e0 ff ff 00 	cmpb   $0x0,-0x1fbb(%rbp)
    d094:	0f 85 6f 01 00 00    	jne    d209 <func_1+0x1a54>
    d09a:	0f b6 85 45 e0 ff ff 	movzbl -0x1fbb(%rbp),%eax
    d0a1:	0f be d8             	movsbl %al,%ebx
    d0a4:	66 83 bd 4e e0 ff ff 	cmpw   $0x0,-0x1fb2(%rbp)
    d0ab:	00 
    d0ac:	75 0e                	jne    d0bc <func_1+0x1907>
    d0ae:	8b 05 8c 42 01 00    	mov    0x1428c(%rip),%eax        # 21340 <g_1364>
    d0b4:	85 c0                	test   %eax,%eax
    d0b6:	0f 84 c7 00 00 00    	je     d183 <func_1+0x19ce>
    d0bc:	48 8b 05 15 87 01 00 	mov    0x18715(%rip),%rax        # 257d8 <g_497+0x38>
    d0c3:	66 89 05 b2 40 01 00 	mov    %ax,0x140b2(%rip)        # 2117c <g_1333>
    d0ca:	0f b7 05 ab 40 01 00 	movzwl 0x140ab(%rip),%eax        # 2117c <g_1333>
    d0d1:	f7 d0                	not    %eax
    d0d3:	0f b7 d0             	movzwl %ax,%edx
    d0d6:	48 8b 85 08 e6 ff ff 	mov    -0x19f8(%rbp),%rax
    d0dd:	48 8b 00             	mov    (%rax),%rax
    d0e0:	48 09 c2             	or     %rax,%rdx
    d0e3:	48 8b 85 08 e6 ff ff 	mov    -0x19f8(%rbp),%rax
    d0ea:	48 89 10             	mov    %rdx,(%rax)
    d0ed:	48 8b 85 08 e6 ff ff 	mov    -0x19f8(%rbp),%rax
    d0f4:	48 8b 00             	mov    (%rax),%rax
    d0f7:	48 85 c0             	test   %rax,%rax
    d0fa:	74 2e                	je     d12a <func_1+0x1975>
    d0fc:	48 8b 85 08 e6 ff ff 	mov    -0x19f8(%rbp),%rax
    d103:	48 8b 00             	mov    (%rax),%rax
    d106:	48 8d 50 01          	lea    0x1(%rax),%rdx
    d10a:	48 8b 85 08 e6 ff ff 	mov    -0x19f8(%rbp),%rax
    d111:	48 89 10             	mov    %rdx,(%rax)
    d114:	48 8b 85 08 e6 ff ff 	mov    -0x19f8(%rbp),%rax
    d11b:	48 8b 00             	mov    (%rax),%rax
    d11e:	48 85 c0             	test   %rax,%rax
    d121:	74 07                	je     d12a <func_1+0x1975>
    d123:	b8 01 00 00 00       	mov    $0x1,%eax
    d128:	eb 05                	jmp    d12f <func_1+0x197a>
    d12a:	b8 00 00 00 00       	mov    $0x0,%eax
    d12f:	0f be c0             	movsbl %al,%eax
    d132:	be 00 00 00 00       	mov    $0x0,%esi
    d137:	89 c7                	mov    %eax,%edi
    d139:	e8 b0 d1 ff ff       	callq  a2ee <safe_lshift_func_int8_t_s_u>
    d13e:	44 8b a5 58 e6 ff ff 	mov    -0x19a8(%rbp),%r12d
    d145:	48 0f bf 85 68 e0 ff 	movswq -0x1f98(%rbp),%rax
    d14c:	ff 
    d14d:	48 c7 c6 f8 ff ff ff 	mov    $0xfffffffffffffff8,%rsi
    d154:	48 89 c7             	mov    %rax,%rdi
    d157:	e8 53 df ff ff       	callq  b0af <safe_div_func_uint64_t_u_u>
    d15c:	0f b6 c0             	movzbl %al,%eax
    d15f:	44 89 e6             	mov    %r12d,%esi
    d162:	89 c7                	mov    %eax,%edi
    d164:	e8 24 db ff ff       	callq  ac8d <safe_rshift_func_uint8_t_u_s>
    d169:	0f b6 c0             	movzbl %al,%eax
    d16c:	be 90 00 00 00       	mov    $0x90,%esi
    d171:	89 c7                	mov    %eax,%edi
    d173:	e8 e2 d9 ff ff       	callq  ab5a <safe_add_func_uint8_t_u_u>
    d178:	84 c0                	test   %al,%al
    d17a:	74 07                	je     d183 <func_1+0x19ce>
    d17c:	b8 01 00 00 00       	mov    $0x1,%eax
    d181:	eb 05                	jmp    d188 <func_1+0x19d3>
    d183:	b8 00 00 00 00       	mov    $0x0,%eax
    d188:	3d 83 17 6e 5f       	cmp    $0x5f6e1783,%eax
    d18d:	0f 9f c0             	setg   %al
    d190:	0f b6 d0             	movzbl %al,%edx
    d193:	48 8b 85 70 e5 ff ff 	mov    -0x1a90(%rbp),%rax
    d19a:	8b 00                	mov    (%rax),%eax
    d19c:	31 c2                	xor    %eax,%edx
    d19e:	48 8b 85 70 e5 ff ff 	mov    -0x1a90(%rbp),%rax
    d1a5:	89 10                	mov    %edx,(%rax)
    d1a7:	48 8b 85 70 e5 ff ff 	mov    -0x1a90(%rbp),%rax
    d1ae:	8b 00                	mov    (%rax),%eax
    d1b0:	85 c0                	test   %eax,%eax
    d1b2:	74 07                	je     d1bb <func_1+0x1a06>
    d1b4:	ba 01 00 00 00       	mov    $0x1,%edx
    d1b9:	eb 05                	jmp    d1c0 <func_1+0x1a0b>
    d1bb:	ba 00 00 00 00       	mov    $0x0,%edx
    d1c0:	8b 85 f0 e1 ff ff    	mov    -0x1e10(%rbp),%eax
    d1c6:	89 c6                	mov    %eax,%esi
    d1c8:	89 d7                	mov    %edx,%edi
    d1ca:	e8 fd d4 ff ff       	callq  a6cc <safe_mod_func_int32_t_s_s>
    d1cf:	0f be c0             	movsbl %al,%eax
    d1d2:	89 de                	mov    %ebx,%esi
    d1d4:	89 c7                	mov    %eax,%edi
    d1d6:	e8 37 d0 ff ff       	callq  a212 <safe_mul_func_int8_t_s_s>
    d1db:	89 c2                	mov    %eax,%edx
    d1dd:	48 8b 85 18 e2 ff ff 	mov    -0x1de8(%rbp),%rax
    d1e4:	0f be d2             	movsbl %dl,%edx
    d1e7:	89 10                	mov    %edx,(%rax)
    d1e9:	8b 85 90 e2 ff ff    	mov    -0x1d70(%rbp),%eax
    d1ef:	83 c0 01             	add    $0x1,%eax
    d1f2:	89 85 90 e2 ff ff    	mov    %eax,-0x1d70(%rbp)
    d1f8:	8b 85 90 e2 ff ff    	mov    -0x1d70(%rbp),%eax
    d1fe:	83 f8 08             	cmp    $0x8,%eax
    d201:	0f 8e ee fd ff ff    	jle    cff5 <func_1+0x1840>
    d207:	eb 01                	jmp    d20a <func_1+0x1a55>
    d209:	90                   	nop
    d20a:	c6 85 37 e0 ff ff 02 	movb   $0x2,-0x1fc9(%rbp)
    d211:	e9 9f 0d 00 00       	jmpq   dfb5 <func_1+0x2800>
    d216:	48 c7 85 f0 f7 ff ff 	movq   $0x0,-0x810(%rbp)
    d21d:	00 00 00 00 
    d221:	48 8d 05 9c 3e 01 00 	lea    0x13e9c(%rip),%rax        # 210c4 <g_353>
    d228:	48 89 85 f8 f7 ff ff 	mov    %rax,-0x808(%rbp)
    d22f:	48 8d 85 c8 e0 ff ff 	lea    -0x1f38(%rbp),%rax
    d236:	48 89 85 00 f8 ff ff 	mov    %rax,-0x800(%rbp)
    d23d:	48 8d 85 c0 e0 ff ff 	lea    -0x1f40(%rbp),%rax
    d244:	48 89 85 08 f8 ff ff 	mov    %rax,-0x7f8(%rbp)
    d24b:	48 c7 85 10 f8 ff ff 	movq   $0x0,-0x7f0(%rbp)
    d252:	00 00 00 00 
    d256:	48 8d 85 b8 e0 ff ff 	lea    -0x1f48(%rbp),%rax
    d25d:	48 89 85 18 f8 ff ff 	mov    %rax,-0x7e8(%rbp)
    d264:	48 c7 85 20 f8 ff ff 	movq   $0x0,-0x7e0(%rbp)
    d26b:	00 00 00 00 
    d26f:	48 8d 85 c4 e0 ff ff 	lea    -0x1f3c(%rbp),%rax
    d276:	48 89 85 28 f8 ff ff 	mov    %rax,-0x7d8(%rbp)
    d27d:	48 8d 85 ac e0 ff ff 	lea    -0x1f54(%rbp),%rax
    d284:	48 89 85 30 f8 ff ff 	mov    %rax,-0x7d0(%rbp)
    d28b:	48 c7 85 38 f8 ff ff 	movq   $0x0,-0x7c8(%rbp)
    d292:	00 00 00 00 
    d296:	48 8d 05 cb 3d 01 00 	lea    0x13dcb(%rip),%rax        # 21068 <g_108+0x8>
    d29d:	48 89 85 40 f8 ff ff 	mov    %rax,-0x7c0(%rbp)
    d2a4:	48 8d 85 b8 e0 ff ff 	lea    -0x1f48(%rbp),%rax
    d2ab:	48 89 85 48 f8 ff ff 	mov    %rax,-0x7b8(%rbp)
    d2b2:	48 c7 85 50 f8 ff ff 	movq   $0x0,-0x7b0(%rbp)
    d2b9:	00 00 00 00 
    d2bd:	48 c7 85 58 f8 ff ff 	movq   $0x0,-0x7a8(%rbp)
    d2c4:	00 00 00 00 
    d2c8:	48 c7 85 60 f8 ff ff 	movq   $0x0,-0x7a0(%rbp)
    d2cf:	00 00 00 00 
    d2d3:	48 8d 85 10 e9 ff ff 	lea    -0x16f0(%rbp),%rax
    d2da:	48 83 c0 24          	add    $0x24,%rax
    d2de:	48 89 85 68 f8 ff ff 	mov    %rax,-0x798(%rbp)
    d2e5:	48 8d 85 b0 e0 ff ff 	lea    -0x1f50(%rbp),%rax
    d2ec:	48 89 85 70 f8 ff ff 	mov    %rax,-0x790(%rbp)
    d2f3:	48 c7 85 78 f8 ff ff 	movq   $0x0,-0x788(%rbp)
    d2fa:	00 00 00 00 
    d2fe:	48 c7 85 80 f8 ff ff 	movq   $0x0,-0x780(%rbp)
    d305:	00 00 00 00 
    d309:	48 8d 85 b0 e0 ff ff 	lea    -0x1f50(%rbp),%rax
    d310:	48 89 85 88 f8 ff ff 	mov    %rax,-0x778(%rbp)
    d317:	48 8d 05 0e 3d 01 00 	lea    0x13d0e(%rip),%rax        # 2102c <g_4>
    d31e:	48 89 85 90 f8 ff ff 	mov    %rax,-0x770(%rbp)
    d325:	48 c7 85 98 f8 ff ff 	movq   $0x0,-0x768(%rbp)
    d32c:	00 00 00 00 
    d330:	48 8d 05 09 3d 01 00 	lea    0x13d09(%rip),%rax        # 21040 <g_9>
    d337:	48 89 85 a0 f8 ff ff 	mov    %rax,-0x760(%rbp)
    d33e:	48 8d 85 c4 e0 ff ff 	lea    -0x1f3c(%rbp),%rax
    d345:	48 89 85 a8 f8 ff ff 	mov    %rax,-0x758(%rbp)
    d34c:	48 c7 85 b0 f8 ff ff 	movq   $0x0,-0x750(%rbp)
    d353:	00 00 00 00 
    d357:	48 c7 85 b8 f8 ff ff 	movq   $0x0,-0x748(%rbp)
    d35e:	00 00 00 00 
    d362:	48 8d 85 7c e0 ff ff 	lea    -0x1f84(%rbp),%rax
    d369:	48 89 85 c0 f8 ff ff 	mov    %rax,-0x740(%rbp)
    d370:	48 c7 85 c8 f8 ff ff 	movq   $0x0,-0x738(%rbp)
    d377:	00 00 00 00 
    d37b:	48 8d 05 e2 3c 01 00 	lea    0x13ce2(%rip),%rax        # 21064 <g_108+0x4>
    d382:	48 89 85 d0 f8 ff ff 	mov    %rax,-0x730(%rbp)
    d389:	48 c7 85 d8 f8 ff ff 	movq   $0x0,-0x728(%rbp)
    d390:	00 00 00 00 
    d394:	48 8d 85 7c e0 ff ff 	lea    -0x1f84(%rbp),%rax
    d39b:	48 89 85 e0 f8 ff ff 	mov    %rax,-0x720(%rbp)
    d3a2:	48 c7 85 e8 f8 ff ff 	movq   $0x0,-0x718(%rbp)
    d3a9:	00 00 00 00 
    d3ad:	48 8d 85 00 eb ff ff 	lea    -0x1500(%rbp),%rax
    d3b4:	48 05 4c 01 00 00    	add    $0x14c,%rax
    d3ba:	48 89 85 f0 f8 ff ff 	mov    %rax,-0x710(%rbp)
    d3c1:	48 c7 85 f8 f8 ff ff 	movq   $0x0,-0x708(%rbp)
    d3c8:	00 00 00 00 
    d3cc:	48 8d 85 8c e0 ff ff 	lea    -0x1f74(%rbp),%rax
    d3d3:	48 89 85 00 f9 ff ff 	mov    %rax,-0x700(%rbp)
    d3da:	48 8d 85 c4 e0 ff ff 	lea    -0x1f3c(%rbp),%rax
    d3e1:	48 89 85 08 f9 ff ff 	mov    %rax,-0x6f8(%rbp)
    d3e8:	48 c7 85 10 f9 ff ff 	movq   $0x0,-0x6f0(%rbp)
    d3ef:	00 00 00 00 
    d3f3:	48 c7 85 18 f9 ff ff 	movq   $0x0,-0x6e8(%rbp)
    d3fa:	00 00 00 00 
    d3fe:	48 8d 05 5b 3c 01 00 	lea    0x13c5b(%rip),%rax        # 21060 <g_108>
    d405:	48 89 85 20 f9 ff ff 	mov    %rax,-0x6e0(%rbp)
    d40c:	48 8d 85 b0 e0 ff ff 	lea    -0x1f50(%rbp),%rax
    d413:	48 89 85 28 f9 ff ff 	mov    %rax,-0x6d8(%rbp)
    d41a:	48 c7 85 30 f9 ff ff 	movq   $0x0,-0x6d0(%rbp)
    d421:	00 00 00 00 
    d425:	48 c7 85 38 f9 ff ff 	movq   $0x0,-0x6c8(%rbp)
    d42c:	00 00 00 00 
    d430:	48 8d 85 00 eb ff ff 	lea    -0x1500(%rbp),%rax
    d437:	48 05 4c 01 00 00    	add    $0x14c,%rax
    d43d:	48 89 85 40 f9 ff ff 	mov    %rax,-0x6c0(%rbp)
    d444:	48 8d 85 10 e9 ff ff 	lea    -0x16f0(%rbp),%rax
    d44b:	48 83 c0 24          	add    $0x24,%rax
    d44f:	48 89 85 48 f9 ff ff 	mov    %rax,-0x6b8(%rbp)
    d456:	48 c7 85 50 f9 ff ff 	movq   $0x0,-0x6b0(%rbp)
    d45d:	00 00 00 00 
    d461:	48 c7 85 58 f9 ff ff 	movq   $0x0,-0x6a8(%rbp)
    d468:	00 00 00 00 
    d46c:	48 8d 05 ed 3b 01 00 	lea    0x13bed(%rip),%rax        # 21060 <g_108>
    d473:	48 89 85 60 f9 ff ff 	mov    %rax,-0x6a0(%rbp)
    d47a:	48 8d 85 84 e0 ff ff 	lea    -0x1f7c(%rbp),%rax
    d481:	48 89 85 68 f9 ff ff 	mov    %rax,-0x698(%rbp)
    d488:	48 8d 85 c4 e0 ff ff 	lea    -0x1f3c(%rbp),%rax
    d48f:	48 89 85 70 f9 ff ff 	mov    %rax,-0x690(%rbp)
    d496:	48 c7 85 78 f9 ff ff 	movq   $0x0,-0x688(%rbp)
    d49d:	00 00 00 00 
    d4a1:	48 c7 85 80 f9 ff ff 	movq   $0x0,-0x680(%rbp)
    d4a8:	00 00 00 00 
    d4ac:	48 8d 05 8d 3b 01 00 	lea    0x13b8d(%rip),%rax        # 21040 <g_9>
    d4b3:	48 89 85 88 f9 ff ff 	mov    %rax,-0x678(%rbp)
    d4ba:	48 8d 85 8c e0 ff ff 	lea    -0x1f74(%rbp),%rax
    d4c1:	48 89 85 90 f9 ff ff 	mov    %rax,-0x670(%rbp)
    d4c8:	48 8d 85 84 e0 ff ff 	lea    -0x1f7c(%rbp),%rax
    d4cf:	48 89 85 98 f9 ff ff 	mov    %rax,-0x668(%rbp)
    d4d6:	48 8d 05 83 3b 01 00 	lea    0x13b83(%rip),%rax        # 21060 <g_108>
    d4dd:	48 89 85 a0 f9 ff ff 	mov    %rax,-0x660(%rbp)
    d4e4:	48 8d 05 41 3b 01 00 	lea    0x13b41(%rip),%rax        # 2102c <g_4>
    d4eb:	48 89 85 a8 f9 ff ff 	mov    %rax,-0x658(%rbp)
    d4f2:	48 c7 85 b0 f9 ff ff 	movq   $0x0,-0x650(%rbp)
    d4f9:	00 00 00 00 
    d4fd:	48 8d 85 c0 e0 ff ff 	lea    -0x1f40(%rbp),%rax
    d504:	48 89 85 b8 f9 ff ff 	mov    %rax,-0x648(%rbp)
    d50b:	48 8d 85 10 e9 ff ff 	lea    -0x16f0(%rbp),%rax
    d512:	48 83 c0 24          	add    $0x24,%rax
    d516:	48 89 85 c0 f9 ff ff 	mov    %rax,-0x640(%rbp)
    d51d:	48 c7 85 c8 f9 ff ff 	movq   $0x0,-0x638(%rbp)
    d524:	00 00 00 00 
    d528:	48 8d 05 11 3b 01 00 	lea    0x13b11(%rip),%rax        # 21040 <g_9>
    d52f:	48 89 85 d0 f9 ff ff 	mov    %rax,-0x630(%rbp)
    d536:	48 8d 85 b8 e0 ff ff 	lea    -0x1f48(%rbp),%rax
    d53d:	48 89 85 d8 f9 ff ff 	mov    %rax,-0x628(%rbp)
    d544:	48 8d 85 10 e9 ff ff 	lea    -0x16f0(%rbp),%rax
    d54b:	48 83 c0 24          	add    $0x24,%rax
    d54f:	48 89 85 e0 f9 ff ff 	mov    %rax,-0x620(%rbp)
    d556:	48 8d 85 84 e0 ff ff 	lea    -0x1f7c(%rbp),%rax
    d55d:	48 89 85 e8 f9 ff ff 	mov    %rax,-0x618(%rbp)
    d564:	48 8d 85 84 e0 ff ff 	lea    -0x1f7c(%rbp),%rax
    d56b:	48 89 85 f0 f9 ff ff 	mov    %rax,-0x610(%rbp)
    d572:	48 8d 05 e7 3a 01 00 	lea    0x13ae7(%rip),%rax        # 21060 <g_108>
    d579:	48 89 85 f8 f9 ff ff 	mov    %rax,-0x608(%rbp)
    d580:	48 8d 85 84 e0 ff ff 	lea    -0x1f7c(%rbp),%rax
    d587:	48 89 85 00 fa ff ff 	mov    %rax,-0x600(%rbp)
    d58e:	48 8d 85 ac e0 ff ff 	lea    -0x1f54(%rbp),%rax
    d595:	48 89 85 08 fa ff ff 	mov    %rax,-0x5f8(%rbp)
    d59c:	48 8d 05 bd 3a 01 00 	lea    0x13abd(%rip),%rax        # 21060 <g_108>
    d5a3:	48 89 85 10 fa ff ff 	mov    %rax,-0x5f0(%rbp)
    d5aa:	48 8d 85 c0 e0 ff ff 	lea    -0x1f40(%rbp),%rax
    d5b1:	48 89 85 18 fa ff ff 	mov    %rax,-0x5e8(%rbp)
    d5b8:	48 8d 05 a1 3a 01 00 	lea    0x13aa1(%rip),%rax        # 21060 <g_108>
    d5bf:	48 89 85 20 fa ff ff 	mov    %rax,-0x5e0(%rbp)
    d5c6:	48 8d 85 a8 e0 ff ff 	lea    -0x1f58(%rbp),%rax
    d5cd:	48 89 85 28 fa ff ff 	mov    %rax,-0x5d8(%rbp)
    d5d4:	48 c7 85 30 fa ff ff 	movq   $0x0,-0x5d0(%rbp)
    d5db:	00 00 00 00 
    d5df:	48 8d 85 8c e0 ff ff 	lea    -0x1f74(%rbp),%rax
    d5e6:	48 89 85 38 fa ff ff 	mov    %rax,-0x5c8(%rbp)
    d5ed:	48 c7 85 40 fa ff ff 	movq   $0x0,-0x5c0(%rbp)
    d5f4:	00 00 00 00 
    d5f8:	48 8d 05 41 3a 01 00 	lea    0x13a41(%rip),%rax        # 21040 <g_9>
    d5ff:	48 89 85 48 fa ff ff 	mov    %rax,-0x5b8(%rbp)
    d606:	48 8d 85 98 e2 ff ff 	lea    -0x1d68(%rbp),%rax
    d60d:	48 89 85 50 fa ff ff 	mov    %rax,-0x5b0(%rbp)
    d614:	48 c7 85 58 fa ff ff 	movq   $0x0,-0x5a8(%rbp)
    d61b:	00 00 00 00 
    d61f:	48 8d 85 a8 e0 ff ff 	lea    -0x1f58(%rbp),%rax
    d626:	48 89 85 60 fa ff ff 	mov    %rax,-0x5a0(%rbp)
    d62d:	48 8d 85 8c e0 ff ff 	lea    -0x1f74(%rbp),%rax
    d634:	48 89 85 68 fa ff ff 	mov    %rax,-0x598(%rbp)
    d63b:	48 c7 85 70 fa ff ff 	movq   $0x0,-0x590(%rbp)
    d642:	00 00 00 00 
    d646:	48 c7 85 78 fa ff ff 	movq   $0x0,-0x588(%rbp)
    d64d:	00 00 00 00 
    d651:	48 8d 85 a8 e0 ff ff 	lea    -0x1f58(%rbp),%rax
    d658:	48 89 85 80 fa ff ff 	mov    %rax,-0x580(%rbp)
    d65f:	48 8d 85 80 e0 ff ff 	lea    -0x1f80(%rbp),%rax
    d666:	48 89 85 88 fa ff ff 	mov    %rax,-0x578(%rbp)
    d66d:	48 8d 85 98 e2 ff ff 	lea    -0x1d68(%rbp),%rax
    d674:	48 89 85 90 fa ff ff 	mov    %rax,-0x570(%rbp)
    d67b:	48 8d 85 7c e0 ff ff 	lea    -0x1f84(%rbp),%rax
    d682:	48 89 85 98 fa ff ff 	mov    %rax,-0x568(%rbp)
    d689:	48 c7 85 a0 fa ff ff 	movq   $0x0,-0x560(%rbp)
    d690:	00 00 00 00 
    d694:	48 8d 85 98 e2 ff ff 	lea    -0x1d68(%rbp),%rax
    d69b:	48 89 85 a8 fa ff ff 	mov    %rax,-0x558(%rbp)
    d6a2:	48 c7 85 b0 fa ff ff 	movq   $0x0,-0x550(%rbp)
    d6a9:	00 00 00 00 
    d6ad:	48 c7 85 b8 fa ff ff 	movq   $0x0,-0x548(%rbp)
    d6b4:	00 00 00 00 
    d6b8:	48 8d 05 a1 39 01 00 	lea    0x139a1(%rip),%rax        # 21060 <g_108>
    d6bf:	48 89 85 c0 fa ff ff 	mov    %rax,-0x540(%rbp)
    d6c6:	48 8d 85 b8 e0 ff ff 	lea    -0x1f48(%rbp),%rax
    d6cd:	48 89 85 c8 fa ff ff 	mov    %rax,-0x538(%rbp)
    d6d4:	48 8d 05 85 39 01 00 	lea    0x13985(%rip),%rax        # 21060 <g_108>
    d6db:	48 89 85 d0 fa ff ff 	mov    %rax,-0x530(%rbp)
    d6e2:	48 8d 85 b8 e0 ff ff 	lea    -0x1f48(%rbp),%rax
    d6e9:	48 89 85 d8 fa ff ff 	mov    %rax,-0x528(%rbp)
    d6f0:	48 8d 85 84 e0 ff ff 	lea    -0x1f7c(%rbp),%rax
    d6f7:	48 89 85 e0 fa ff ff 	mov    %rax,-0x520(%rbp)
    d6fe:	48 8d 05 5b 39 01 00 	lea    0x1395b(%rip),%rax        # 21060 <g_108>
    d705:	48 89 85 e8 fa ff ff 	mov    %rax,-0x518(%rbp)
    d70c:	48 8d 85 84 e0 ff ff 	lea    -0x1f7c(%rbp),%rax
    d713:	48 89 85 f0 fa ff ff 	mov    %rax,-0x510(%rbp)
    d71a:	48 8d 85 c4 e0 ff ff 	lea    -0x1f3c(%rbp),%rax
    d721:	48 89 85 f8 fa ff ff 	mov    %rax,-0x508(%rbp)
    d728:	48 8d 85 10 e9 ff ff 	lea    -0x16f0(%rbp),%rax
    d72f:	48 83 c0 24          	add    $0x24,%rax
    d733:	48 89 85 00 fb ff ff 	mov    %rax,-0x500(%rbp)
    d73a:	48 c7 85 08 fb ff ff 	movq   $0x0,-0x4f8(%rbp)
    d741:	00 00 00 00 
    d745:	48 8d 05 f4 38 01 00 	lea    0x138f4(%rip),%rax        # 21040 <g_9>
    d74c:	48 89 85 10 fb ff ff 	mov    %rax,-0x4f0(%rbp)
    d753:	48 8d 85 7c e0 ff ff 	lea    -0x1f84(%rbp),%rax
    d75a:	48 89 85 18 fb ff ff 	mov    %rax,-0x4e8(%rbp)
    d761:	48 8d 85 10 e9 ff ff 	lea    -0x16f0(%rbp),%rax
    d768:	48 83 c0 24          	add    $0x24,%rax
    d76c:	48 89 85 20 fb ff ff 	mov    %rax,-0x4e0(%rbp)
    d773:	48 8d 85 b8 e0 ff ff 	lea    -0x1f48(%rbp),%rax
    d77a:	48 89 85 28 fb ff ff 	mov    %rax,-0x4d8(%rbp)
    d781:	48 c7 85 30 fb ff ff 	movq   $0x0,-0x4d0(%rbp)
    d788:	00 00 00 00 
    d78c:	48 8d 85 ac e0 ff ff 	lea    -0x1f54(%rbp),%rax
    d793:	48 89 85 38 fb ff ff 	mov    %rax,-0x4c8(%rbp)
    d79a:	48 8d 05 bf 38 01 00 	lea    0x138bf(%rip),%rax        # 21060 <g_108>
    d7a1:	48 89 85 40 fb ff ff 	mov    %rax,-0x4c0(%rbp)
    d7a8:	48 8d 05 7d 38 01 00 	lea    0x1387d(%rip),%rax        # 2102c <g_4>
    d7af:	48 89 85 48 fb ff ff 	mov    %rax,-0x4b8(%rbp)
    d7b6:	48 8d 85 8c e0 ff ff 	lea    -0x1f74(%rbp),%rax
    d7bd:	48 89 85 50 fb ff ff 	mov    %rax,-0x4b0(%rbp)
    d7c4:	48 8d 85 7c e0 ff ff 	lea    -0x1f84(%rbp),%rax
    d7cb:	48 89 85 58 fb ff ff 	mov    %rax,-0x4a8(%rbp)
    d7d2:	48 c7 85 60 fb ff ff 	movq   $0x0,-0x4a0(%rbp)
    d7d9:	00 00 00 00 
    d7dd:	48 8d 85 00 eb ff ff 	lea    -0x1500(%rbp),%rax
    d7e4:	48 05 4c 01 00 00    	add    $0x14c,%rax
    d7ea:	48 89 85 68 fb ff ff 	mov    %rax,-0x498(%rbp)
    d7f1:	48 8d 85 c4 e0 ff ff 	lea    -0x1f3c(%rbp),%rax
    d7f8:	48 89 85 70 fb ff ff 	mov    %rax,-0x490(%rbp)
    d7ff:	48 8d 05 5a 38 01 00 	lea    0x1385a(%rip),%rax        # 21060 <g_108>
    d806:	48 89 85 78 fb ff ff 	mov    %rax,-0x488(%rbp)
    d80d:	48 8d 85 80 e0 ff ff 	lea    -0x1f80(%rbp),%rax
    d814:	48 89 85 80 fb ff ff 	mov    %rax,-0x480(%rbp)
    d81b:	48 8d 85 8c e0 ff ff 	lea    -0x1f74(%rbp),%rax
    d822:	48 89 85 88 fb ff ff 	mov    %rax,-0x478(%rbp)
    d829:	48 8d 85 c8 e0 ff ff 	lea    -0x1f38(%rbp),%rax
    d830:	48 89 85 90 fb ff ff 	mov    %rax,-0x470(%rbp)
    d837:	48 c7 85 98 fb ff ff 	movq   $0x0,-0x468(%rbp)
    d83e:	00 00 00 00 
    d842:	48 8d 85 c8 e0 ff ff 	lea    -0x1f38(%rbp),%rax
    d849:	48 89 85 a0 fb ff ff 	mov    %rax,-0x460(%rbp)
    d850:	48 8d 85 c8 e0 ff ff 	lea    -0x1f38(%rbp),%rax
    d857:	48 89 85 a8 fb ff ff 	mov    %rax,-0x458(%rbp)
    d85e:	48 8d 85 8c e0 ff ff 	lea    -0x1f74(%rbp),%rax
    d865:	48 89 85 b0 fb ff ff 	mov    %rax,-0x450(%rbp)
    d86c:	48 8d 85 8c e0 ff ff 	lea    -0x1f74(%rbp),%rax
    d873:	48 89 85 b8 fb ff ff 	mov    %rax,-0x448(%rbp)
    d87a:	48 c7 85 c0 fb ff ff 	movq   $0x0,-0x440(%rbp)
    d881:	00 00 00 00 
    d885:	48 8d 05 a0 37 01 00 	lea    0x137a0(%rip),%rax        # 2102c <g_4>
    d88c:	48 89 85 c8 fb ff ff 	mov    %rax,-0x438(%rbp)
    d893:	48 8d 05 ce 37 01 00 	lea    0x137ce(%rip),%rax        # 21068 <g_108+0x8>
    d89a:	48 89 85 d0 fb ff ff 	mov    %rax,-0x430(%rbp)
    d8a1:	48 8d 05 b8 37 01 00 	lea    0x137b8(%rip),%rax        # 21060 <g_108>
    d8a8:	48 89 85 d8 fb ff ff 	mov    %rax,-0x428(%rbp)
    d8af:	48 8d 85 10 e9 ff ff 	lea    -0x16f0(%rbp),%rax
    d8b6:	48 83 c0 24          	add    $0x24,%rax
    d8ba:	48 89 85 e0 fb ff ff 	mov    %rax,-0x420(%rbp)
    d8c1:	48 8d 85 ac e0 ff ff 	lea    -0x1f54(%rbp),%rax
    d8c8:	48 89 85 e8 fb ff ff 	mov    %rax,-0x418(%rbp)
    d8cf:	48 8d 85 c8 e0 ff ff 	lea    -0x1f38(%rbp),%rax
    d8d6:	48 89 85 f0 fb ff ff 	mov    %rax,-0x410(%rbp)
    d8dd:	48 8d 85 b8 e0 ff ff 	lea    -0x1f48(%rbp),%rax
    d8e4:	48 89 85 f8 fb ff ff 	mov    %rax,-0x408(%rbp)
    d8eb:	48 8d 85 c4 e0 ff ff 	lea    -0x1f3c(%rbp),%rax
    d8f2:	48 89 85 00 fc ff ff 	mov    %rax,-0x400(%rbp)
    d8f9:	48 8d 85 10 e9 ff ff 	lea    -0x16f0(%rbp),%rax
    d900:	48 83 c0 24          	add    $0x24,%rax
    d904:	48 89 85 08 fc ff ff 	mov    %rax,-0x3f8(%rbp)
    d90b:	48 8d 85 84 e0 ff ff 	lea    -0x1f7c(%rbp),%rax
    d912:	48 89 85 10 fc ff ff 	mov    %rax,-0x3f0(%rbp)
    d919:	48 8d 85 b8 e0 ff ff 	lea    -0x1f48(%rbp),%rax
    d920:	48 89 85 18 fc ff ff 	mov    %rax,-0x3e8(%rbp)
    d927:	48 8d 05 36 37 01 00 	lea    0x13736(%rip),%rax        # 21064 <g_108+0x4>
    d92e:	48 89 85 20 fc ff ff 	mov    %rax,-0x3e0(%rbp)
    d935:	48 8d 85 ac e0 ff ff 	lea    -0x1f54(%rbp),%rax
    d93c:	48 89 85 28 fc ff ff 	mov    %rax,-0x3d8(%rbp)
    d943:	48 8d 85 b8 e0 ff ff 	lea    -0x1f48(%rbp),%rax
    d94a:	48 89 85 30 fc ff ff 	mov    %rax,-0x3d0(%rbp)
    d951:	48 8d 05 08 37 01 00 	lea    0x13708(%rip),%rax        # 21060 <g_108>
    d958:	48 89 85 38 fc ff ff 	mov    %rax,-0x3c8(%rbp)
    d95f:	48 8d 05 fa 36 01 00 	lea    0x136fa(%rip),%rax        # 21060 <g_108>
    d966:	48 89 85 40 fc ff ff 	mov    %rax,-0x3c0(%rbp)
    d96d:	48 8d 05 b8 36 01 00 	lea    0x136b8(%rip),%rax        # 2102c <g_4>
    d974:	48 89 85 48 fc ff ff 	mov    %rax,-0x3b8(%rbp)
    d97b:	48 c7 85 50 fc ff ff 	movq   $0x0,-0x3b0(%rbp)
    d982:	00 00 00 00 
    d986:	48 8d 85 8c e0 ff ff 	lea    -0x1f74(%rbp),%rax
    d98d:	48 89 85 58 fc ff ff 	mov    %rax,-0x3a8(%rbp)
    d994:	48 c7 85 60 fc ff ff 	movq   $0x0,-0x3a0(%rbp)
    d99b:	00 00 00 00 
    d99f:	48 8d 85 c8 e0 ff ff 	lea    -0x1f38(%rbp),%rax
    d9a6:	48 89 85 68 fc ff ff 	mov    %rax,-0x398(%rbp)
    d9ad:	48 8d 85 98 e2 ff ff 	lea    -0x1d68(%rbp),%rax
    d9b4:	48 89 85 70 fc ff ff 	mov    %rax,-0x390(%rbp)
    d9bb:	48 c7 85 78 fc ff ff 	movq   $0x0,-0x388(%rbp)
    d9c2:	00 00 00 00 
    d9c6:	48 c7 85 80 fc ff ff 	movq   $0x0,-0x380(%rbp)
    d9cd:	00 00 00 00 
    d9d1:	48 8d 85 8c e0 ff ff 	lea    -0x1f74(%rbp),%rax
    d9d8:	48 89 85 88 fc ff ff 	mov    %rax,-0x378(%rbp)
    d9df:	48 8d 85 ac e0 ff ff 	lea    -0x1f54(%rbp),%rax
    d9e6:	48 89 85 90 fc ff ff 	mov    %rax,-0x370(%rbp)
    d9ed:	48 8d 05 6c 36 01 00 	lea    0x1366c(%rip),%rax        # 21060 <g_108>
    d9f4:	48 89 85 98 fc ff ff 	mov    %rax,-0x368(%rbp)
    d9fb:	48 8d 85 a8 e0 ff ff 	lea    -0x1f58(%rbp),%rax
    da02:	48 89 85 a0 fc ff ff 	mov    %rax,-0x360(%rbp)
    da09:	48 8d 85 00 eb ff ff 	lea    -0x1500(%rbp),%rax
    da10:	48 05 4c 01 00 00    	add    $0x14c,%rax
    da16:	48 89 85 a8 fc ff ff 	mov    %rax,-0x358(%rbp)
    da1d:	48 8d 05 08 36 01 00 	lea    0x13608(%rip),%rax        # 2102c <g_4>
    da24:	48 89 85 b0 fc ff ff 	mov    %rax,-0x350(%rbp)
    da2b:	48 8d 85 7c e0 ff ff 	lea    -0x1f84(%rbp),%rax
    da32:	48 89 85 b8 fc ff ff 	mov    %rax,-0x348(%rbp)
    da39:	48 c7 85 c0 fc ff ff 	movq   $0x0,-0x340(%rbp)
    da40:	00 00 00 00 
    da44:	48 8d 05 e1 35 01 00 	lea    0x135e1(%rip),%rax        # 2102c <g_4>
    da4b:	48 89 85 c8 fc ff ff 	mov    %rax,-0x338(%rbp)
    da52:	48 c7 85 d0 fc ff ff 	movq   $0x0,-0x330(%rbp)
    da59:	00 00 00 00 
    da5d:	48 8d 85 ac e0 ff ff 	lea    -0x1f54(%rbp),%rax
    da64:	48 89 85 d8 fc ff ff 	mov    %rax,-0x328(%rbp)
    da6b:	48 c7 85 e0 fc ff ff 	movq   $0x0,-0x320(%rbp)
    da72:	00 00 00 00 
    da76:	48 8d 85 b8 e0 ff ff 	lea    -0x1f48(%rbp),%rax
    da7d:	48 89 85 e8 fc ff ff 	mov    %rax,-0x318(%rbp)
    da84:	48 8d 85 b8 e0 ff ff 	lea    -0x1f48(%rbp),%rax
    da8b:	48 89 85 f0 fc ff ff 	mov    %rax,-0x310(%rbp)
    da92:	48 8d 85 7c e0 ff ff 	lea    -0x1f84(%rbp),%rax
    da99:	48 89 85 f8 fc ff ff 	mov    %rax,-0x308(%rbp)
    daa0:	48 8d 85 84 e0 ff ff 	lea    -0x1f7c(%rbp),%rax
    daa7:	48 89 85 00 fd ff ff 	mov    %rax,-0x300(%rbp)
    daae:	48 c7 85 08 fd ff ff 	movq   $0x0,-0x2f8(%rbp)
    dab5:	00 00 00 00 
    dab9:	48 8d 85 10 e9 ff ff 	lea    -0x16f0(%rbp),%rax
    dac0:	48 83 c0 24          	add    $0x24,%rax
    dac4:	48 89 85 10 fd ff ff 	mov    %rax,-0x2f0(%rbp)
    dacb:	48 8d 85 c4 e0 ff ff 	lea    -0x1f3c(%rbp),%rax
    dad2:	48 89 85 18 fd ff ff 	mov    %rax,-0x2e8(%rbp)
    dad9:	48 8d 85 c4 e0 ff ff 	lea    -0x1f3c(%rbp),%rax
    dae0:	48 89 85 20 fd ff ff 	mov    %rax,-0x2e0(%rbp)
    dae7:	48 8d 05 72 35 01 00 	lea    0x13572(%rip),%rax        # 21060 <g_108>
    daee:	48 89 85 28 fd ff ff 	mov    %rax,-0x2d8(%rbp)
    daf5:	48 8d 05 44 35 01 00 	lea    0x13544(%rip),%rax        # 21040 <g_9>
    dafc:	48 89 85 30 fd ff ff 	mov    %rax,-0x2d0(%rbp)
    db03:	48 8d 85 b8 e0 ff ff 	lea    -0x1f48(%rbp),%rax
    db0a:	48 89 85 38 fd ff ff 	mov    %rax,-0x2c8(%rbp)
    db11:	48 c7 85 40 fd ff ff 	movq   $0x0,-0x2c0(%rbp)
    db18:	00 00 00 00 
    db1c:	48 8d 85 b8 e0 ff ff 	lea    -0x1f48(%rbp),%rax
    db23:	48 89 85 48 fd ff ff 	mov    %rax,-0x2b8(%rbp)
    db2a:	48 8d 05 37 35 01 00 	lea    0x13537(%rip),%rax        # 21068 <g_108+0x8>
    db31:	48 89 85 50 fd ff ff 	mov    %rax,-0x2b0(%rbp)
    db38:	48 c7 85 58 fd ff ff 	movq   $0x0,-0x2a8(%rbp)
    db3f:	00 00 00 00 
    db43:	48 8d 05 16 35 01 00 	lea    0x13516(%rip),%rax        # 21060 <g_108>
    db4a:	48 89 85 60 fd ff ff 	mov    %rax,-0x2a0(%rbp)
    db51:	48 8d 85 98 e2 ff ff 	lea    -0x1d68(%rbp),%rax
    db58:	48 89 85 68 fd ff ff 	mov    %rax,-0x298(%rbp)
    db5f:	48 8d 85 84 e0 ff ff 	lea    -0x1f7c(%rbp),%rax
    db66:	48 89 85 70 fd ff ff 	mov    %rax,-0x290(%rbp)
    db6d:	48 8d 85 7c e0 ff ff 	lea    -0x1f84(%rbp),%rax
    db74:	48 89 85 78 fd ff ff 	mov    %rax,-0x288(%rbp)
    db7b:	48 8d 85 c8 e0 ff ff 	lea    -0x1f38(%rbp),%rax
    db82:	48 89 85 80 fd ff ff 	mov    %rax,-0x280(%rbp)
    db89:	48 8d 85 80 e0 ff ff 	lea    -0x1f80(%rbp),%rax
    db90:	48 89 85 88 fd ff ff 	mov    %rax,-0x278(%rbp)
    db97:	48 8d 85 c4 e0 ff ff 	lea    -0x1f3c(%rbp),%rax
    db9e:	48 89 85 90 fd ff ff 	mov    %rax,-0x270(%rbp)
    dba5:	48 c7 85 98 fd ff ff 	movq   $0x0,-0x268(%rbp)
    dbac:	00 00 00 00 
    dbb0:	48 8d 85 c4 e0 ff ff 	lea    -0x1f3c(%rbp),%rax
    dbb7:	48 89 85 a0 fd ff ff 	mov    %rax,-0x260(%rbp)
    dbbe:	48 8d 85 8c e0 ff ff 	lea    -0x1f74(%rbp),%rax
    dbc5:	48 89 85 a8 fd ff ff 	mov    %rax,-0x258(%rbp)
    dbcc:	48 8d 85 c4 e0 ff ff 	lea    -0x1f3c(%rbp),%rax
    dbd3:	48 89 85 b0 fd ff ff 	mov    %rax,-0x250(%rbp)
    dbda:	48 c7 85 b8 fd ff ff 	movq   $0x0,-0x248(%rbp)
    dbe1:	00 00 00 00 
    dbe5:	48 8d 85 c8 e0 ff ff 	lea    -0x1f38(%rbp),%rax
    dbec:	48 89 85 c0 fd ff ff 	mov    %rax,-0x240(%rbp)
    dbf3:	48 8d 05 46 34 01 00 	lea    0x13446(%rip),%rax        # 21040 <g_9>
    dbfa:	48 89 85 c8 fd ff ff 	mov    %rax,-0x238(%rbp)
    dc01:	48 8d 85 84 e0 ff ff 	lea    -0x1f7c(%rbp),%rax
    dc08:	48 89 85 d0 fd ff ff 	mov    %rax,-0x230(%rbp)
    dc0f:	48 8d 85 8c e0 ff ff 	lea    -0x1f74(%rbp),%rax
    dc16:	48 89 85 d8 fd ff ff 	mov    %rax,-0x228(%rbp)
    dc1d:	48 8d 05 3c 34 01 00 	lea    0x1343c(%rip),%rax        # 21060 <g_108>
    dc24:	48 89 85 e0 fd ff ff 	mov    %rax,-0x220(%rbp)
    dc2b:	48 8d 85 a8 e0 ff ff 	lea    -0x1f58(%rbp),%rax
    dc32:	48 89 85 e8 fd ff ff 	mov    %rax,-0x218(%rbp)
    dc39:	48 8d 05 28 34 01 00 	lea    0x13428(%rip),%rax        # 21068 <g_108+0x8>
    dc40:	48 89 85 f0 fd ff ff 	mov    %rax,-0x210(%rbp)
    dc47:	48 8d 85 c0 e0 ff ff 	lea    -0x1f40(%rbp),%rax
    dc4e:	48 89 85 f8 fd ff ff 	mov    %rax,-0x208(%rbp)
    dc55:	48 c7 85 00 fe ff ff 	movq   $0x0,-0x200(%rbp)
    dc5c:	00 00 00 00 
    dc60:	48 8d 85 ac e0 ff ff 	lea    -0x1f54(%rbp),%rax
    dc67:	48 89 85 08 fe ff ff 	mov    %rax,-0x1f8(%rbp)
    dc6e:	48 8d 05 cb 33 01 00 	lea    0x133cb(%rip),%rax        # 21040 <g_9>
    dc75:	48 89 85 10 fe ff ff 	mov    %rax,-0x1f0(%rbp)
    dc7c:	48 8d 05 dd 33 01 00 	lea    0x133dd(%rip),%rax        # 21060 <g_108>
    dc83:	48 89 85 18 fe ff ff 	mov    %rax,-0x1e8(%rbp)
    dc8a:	48 8d 85 c4 e0 ff ff 	lea    -0x1f3c(%rbp),%rax
    dc91:	48 89 85 20 fe ff ff 	mov    %rax,-0x1e0(%rbp)
    dc98:	48 8d 85 84 e0 ff ff 	lea    -0x1f7c(%rbp),%rax
    dc9f:	48 89 85 28 fe ff ff 	mov    %rax,-0x1d8(%rbp)
    dca6:	48 8d 85 10 e9 ff ff 	lea    -0x16f0(%rbp),%rax
    dcad:	48 83 c0 24          	add    $0x24,%rax
    dcb1:	48 89 85 30 fe ff ff 	mov    %rax,-0x1d0(%rbp)
    dcb8:	48 8d 85 b8 e0 ff ff 	lea    -0x1f48(%rbp),%rax
    dcbf:	48 89 85 38 fe ff ff 	mov    %rax,-0x1c8(%rbp)
    dcc6:	48 8d 85 84 e0 ff ff 	lea    -0x1f7c(%rbp),%rax
    dccd:	48 89 85 40 fe ff ff 	mov    %rax,-0x1c0(%rbp)
    dcd4:	48 c7 85 48 fe ff ff 	movq   $0x0,-0x1b8(%rbp)
    dcdb:	00 00 00 00 
    dcdf:	48 8d 85 b8 e0 ff ff 	lea    -0x1f48(%rbp),%rax
    dce6:	48 89 85 50 fe ff ff 	mov    %rax,-0x1b0(%rbp)
    dced:	48 8d 85 c0 e0 ff ff 	lea    -0x1f40(%rbp),%rax
    dcf4:	48 89 85 58 fe ff ff 	mov    %rax,-0x1a8(%rbp)
    dcfb:	48 c7 85 60 fe ff ff 	movq   $0x0,-0x1a0(%rbp)
    dd02:	00 00 00 00 
    dd06:	48 8d 05 1f 33 01 00 	lea    0x1331f(%rip),%rax        # 2102c <g_4>
    dd0d:	48 89 85 68 fe ff ff 	mov    %rax,-0x198(%rbp)
    dd14:	48 c7 85 70 fe ff ff 	movq   $0x0,-0x190(%rbp)
    dd1b:	00 00 00 00 
    dd1f:	48 8d 85 84 e0 ff ff 	lea    -0x1f7c(%rbp),%rax
    dd26:	48 89 85 78 fe ff ff 	mov    %rax,-0x188(%rbp)
    dd2d:	48 c7 85 80 fe ff ff 	movq   $0x0,-0x180(%rbp)
    dd34:	00 00 00 00 
    dd38:	48 8d 05 01 33 01 00 	lea    0x13301(%rip),%rax        # 21040 <g_9>
    dd3f:	48 89 85 88 fe ff ff 	mov    %rax,-0x178(%rbp)
    dd46:	48 8d 05 df 32 01 00 	lea    0x132df(%rip),%rax        # 2102c <g_4>
    dd4d:	48 89 85 90 fe ff ff 	mov    %rax,-0x170(%rbp)
    dd54:	48 c7 85 98 fe ff ff 	movq   $0x0,-0x168(%rbp)
    dd5b:	00 00 00 00 
    dd5f:	48 8d 85 a8 e0 ff ff 	lea    -0x1f58(%rbp),%rax
    dd66:	48 89 85 a0 fe ff ff 	mov    %rax,-0x160(%rbp)
    dd6d:	48 8d 85 84 e0 ff ff 	lea    -0x1f7c(%rbp),%rax
    dd74:	48 89 85 a8 fe ff ff 	mov    %rax,-0x158(%rbp)
    dd7b:	48 8d 05 c6 32 01 00 	lea    0x132c6(%rip),%rax        # 21048 <g_98>
    dd82:	48 89 85 10 e6 ff ff 	mov    %rax,-0x19f0(%rbp)
    dd89:	0f be 85 37 e0 ff ff 	movsbl -0x1fc9(%rbp),%eax
    dd90:	48 98                	cltq   
    dd92:	48 8d 14 85 00 00 00 	lea    0x0(,%rax,4),%rdx
    dd99:	00 
    dd9a:	48 8d 05 8f 32 01 00 	lea    0x1328f(%rip),%rax        # 21030 <g_7>
    dda1:	c7 04 02 20 a5 3e 8d 	movl   $0x8d3ea520,(%rdx,%rax,1)
    dda8:	0f be 85 37 e0 ff ff 	movsbl -0x1fc9(%rbp),%eax
    ddaf:	48 98                	cltq   
    ddb1:	48 8d 14 85 00 00 00 	lea    0x0(,%rax,4),%rdx
    ddb8:	00 
    ddb9:	48 8d 05 70 32 01 00 	lea    0x13270(%rip),%rax        # 21030 <g_7>
    ddc0:	8b 04 02             	mov    (%rdx,%rax,1),%eax
    ddc3:	85 c0                	test   %eax,%eax
    ddc5:	0f 85 f9 01 00 00    	jne    dfc4 <func_1+0x280f>
    ddcb:	66 83 85 4c e0 ff ff 	addw   $0x1,-0x1fb4(%rbp)
    ddd2:	01 
    ddd3:	0f be 85 37 e0 ff ff 	movsbl -0x1fc9(%rbp),%eax
    ddda:	48 98                	cltq   
    dddc:	48 8d 14 85 00 00 00 	lea    0x0(,%rax,4),%rdx
    dde3:	00 
    dde4:	48 8d 05 45 32 01 00 	lea    0x13245(%rip),%rax        # 21030 <g_7>
    ddeb:	8b 04 02             	mov    (%rdx,%rax,1),%eax
    ddee:	85 c0                	test   %eax,%eax
    ddf0:	0f 85 8b 01 00 00    	jne    df81 <func_1+0x27cc>
    ddf6:	0f be 85 37 e0 ff ff 	movsbl -0x1fc9(%rbp),%eax
    ddfd:	48 98                	cltq   
    ddff:	48 8d 14 85 00 00 00 	lea    0x0(,%rax,4),%rdx
    de06:	00 
    de07:	48 8d 05 22 32 01 00 	lea    0x13222(%rip),%rax        # 21030 <g_7>
    de0e:	8b 04 02             	mov    (%rdx,%rax,1),%eax
    de11:	8b 9d 8c e1 ff ff    	mov    -0x1e74(%rbp),%ebx
    de17:	83 bd d8 e0 ff ff 00 	cmpl   $0x0,-0x1f28(%rbp)
    de1e:	0f 84 cb 00 00 00    	je     deef <func_1+0x273a>
    de24:	44 8b a5 98 e2 ff ff 	mov    -0x1d68(%rbp),%r12d
    de2b:	44 8b ad a0 e7 ff ff 	mov    -0x1860(%rbp),%r13d
    de32:	be 09 00 00 00       	mov    $0x9,%esi
    de37:	48 bf a3 67 f1 08 35 	movabs $0x6977ca3508f167a3,%rdi
    de3e:	ca 77 69 
    de41:	e8 6e cb ff ff       	callq  a9b4 <safe_mod_func_int64_t_s_s>
    de46:	8b 95 f4 eb ff ff    	mov    -0x140c(%rbp),%edx
    de4c:	48 63 d2             	movslq %edx,%rdx
    de4f:	48 39 d0             	cmp    %rdx,%rax
    de52:	48 8b 85 70 e5 ff ff 	mov    -0x1a90(%rbp),%rax
    de59:	8b 00                	mov    (%rax),%eax
    de5b:	83 f8 05             	cmp    $0x5,%eax
    de5e:	8b 05 c8 32 01 00    	mov    0x132c8(%rip),%eax        # 2112c <g_354+0x4c>
    de64:	0f b7 c0             	movzwl %ax,%eax
    de67:	be 0f 00 00 00       	mov    $0xf,%esi
    de6c:	89 c7                	mov    %eax,%edi
    de6e:	e8 07 d0 ff ff       	callq  ae7a <safe_rshift_func_uint16_t_u_u>
    de73:	0f b7 d0             	movzwl %ax,%edx
    de76:	48 8b 85 18 e2 ff ff 	mov    -0x1de8(%rbp),%rax
    de7d:	8b 00                	mov    (%rax),%eax
    de7f:	39 c2                	cmp    %eax,%edx
    de81:	0f 9e c0             	setle  %al
    de84:	0f b6 c0             	movzbl %al,%eax
    de87:	be 06 00 00 00       	mov    $0x6,%esi
    de8c:	89 c7                	mov    %eax,%edi
    de8e:	e8 d9 c4 ff ff       	callq  a36c <safe_rshift_func_int8_t_s_u>
    de93:	0f be d0             	movsbl %al,%edx
    de96:	48 8b 85 70 e5 ff ff 	mov    -0x1a90(%rbp),%rax
    de9d:	8b 00                	mov    (%rax),%eax
    de9f:	39 c2                	cmp    %eax,%edx
    dea1:	0f 9d c0             	setge  %al
    dea4:	0f b6 c0             	movzbl %al,%eax
    dea7:	41 39 c5             	cmp    %eax,%r13d
    deaa:	0f 93 c0             	setae  %al
    dead:	0f b6 c8             	movzbl %al,%ecx
    deb0:	48 8b 85 10 e6 ff ff 	mov    -0x19f0(%rbp),%rax
    deb7:	48 8b 10             	mov    (%rax),%rdx
    deba:	48 63 c1             	movslq %ecx,%rax
    debd:	48 31 c2             	xor    %rax,%rdx
    dec0:	48 8b 85 10 e6 ff ff 	mov    -0x19f0(%rbp),%rax
    dec7:	48 89 10             	mov    %rdx,(%rax)
    deca:	0f b6 05 87 31 01 00 	movzbl 0x13187(%rip),%eax        # 21058 <g_101>
    ded1:	84 c0                	test   %al,%al
    ded3:	0f 9f c0             	setg   %al
    ded6:	0f b6 c0             	movzbl %al,%eax
    ded9:	44 89 e6             	mov    %r12d,%esi
    dedc:	89 c7                	mov    %eax,%edi
    dede:	e8 db ce ff ff       	callq  adbe <safe_lshift_func_uint16_t_u_s>
    dee3:	66 85 c0             	test   %ax,%ax
    dee6:	74 07                	je     deef <func_1+0x273a>
    dee8:	b8 01 00 00 00       	mov    $0x1,%eax
    deed:	eb 05                	jmp    def4 <func_1+0x273f>
    deef:	b8 00 00 00 00       	mov    $0x0,%eax
    def4:	89 c2                	mov    %eax,%edx
    def6:	8b 05 64 32 01 00    	mov    0x13264(%rip),%eax        # 21160 <g_622>
    defc:	39 c2                	cmp    %eax,%edx
    defe:	0f 97 c0             	seta   %al
    df01:	0f b6 c0             	movzbl %al,%eax
    df04:	be 65 fa 00 00       	mov    $0xfa65,%esi
    df09:	89 c7                	mov    %eax,%edi
    df0b:	e8 0f ce ff ff       	callq  ad1f <safe_sub_func_uint16_t_u_u>
    df10:	83 c8 01             	or     $0x1,%eax
    df13:	0f b7 c0             	movzwl %ax,%eax
    df16:	89 85 88 e1 ff ff    	mov    %eax,-0x1e78(%rbp)
    df1c:	8b 85 88 e1 ff ff    	mov    -0x1e78(%rbp),%eax
    df22:	48 63 d0             	movslq %eax,%rdx
    df25:	48 8b 05 44 32 01 00 	mov    0x13244(%rip),%rax        # 21170 <g_967>
    df2c:	48 39 c2             	cmp    %rax,%rdx
    df2f:	0f 9f c0             	setg   %al
    df32:	0f b6 c0             	movzbl %al,%eax
    df35:	89 de                	mov    %ebx,%esi
    df37:	89 c7                	mov    %eax,%edi
    df39:	e8 b0 c3 ff ff       	callq  a2ee <safe_lshift_func_int8_t_s_u>
    df3e:	48 8b 05 5b 31 01 00 	mov    0x1315b(%rip),%rax        # 210a0 <g_254+0x20>
    df45:	48 83 f8 07          	cmp    $0x7,%rax
    df49:	74 07                	je     df52 <func_1+0x279d>
    df4b:	ba 45 00 00 00       	mov    $0x45,%edx
    df50:	eb 05                	jmp    df57 <func_1+0x27a2>
    df52:	ba 44 00 00 00       	mov    $0x44,%edx
    df57:	48 8b 85 70 e5 ff ff 	mov    -0x1a90(%rbp),%rax
    df5e:	89 10                	mov    %edx,(%rax)
    df60:	48 8b 85 70 e5 ff ff 	mov    -0x1a90(%rbp),%rax
    df67:	8b 10                	mov    (%rax),%edx
    df69:	0f bf 85 68 e0 ff ff 	movswl -0x1f98(%rbp),%eax
    df70:	31 d0                	xor    %edx,%eax
    df72:	83 f8 f8             	cmp    $0xfffffff8,%eax
    df75:	48 8b 05 cc 31 01 00 	mov    0x131cc(%rip),%rax        # 21148 <g_419>
    df7c:	48 85 c0             	test   %rax,%rax
    df7f:	74 07                	je     df88 <func_1+0x27d3>
    df81:	ba 01 00 00 00       	mov    $0x1,%edx
    df86:	eb 05                	jmp    df8d <func_1+0x27d8>
    df88:	ba 00 00 00 00       	mov    $0x0,%edx
    df8d:	0f bf 85 4a e0 ff ff 	movswl -0x1fb6(%rbp),%eax
    df94:	39 c2                	cmp    %eax,%edx
    df96:	0f 95 c2             	setne  %dl
    df99:	48 8b 85 18 e2 ff ff 	mov    -0x1de8(%rbp),%rax
    dfa0:	0f b6 d2             	movzbl %dl,%edx
    dfa3:	89 10                	mov    %edx,(%rax)
    dfa5:	0f b6 85 37 e0 ff ff 	movzbl -0x1fc9(%rbp),%eax
    dfac:	83 e8 01             	sub    $0x1,%eax
    dfaf:	88 85 37 e0 ff ff    	mov    %al,-0x1fc9(%rbp)
    dfb5:	80 bd 37 e0 ff ff 00 	cmpb   $0x0,-0x1fc9(%rbp)
    dfbc:	0f 89 54 f2 ff ff    	jns    d216 <func_1+0x1a61>
    dfc2:	eb 01                	jmp    dfc5 <func_1+0x2810>
    dfc4:	90                   	nop
    dfc5:	83 85 d0 e1 ff ff 01 	addl   $0x1,-0x1e30(%rbp)
    dfcc:	e9 cb 04 00 00       	jmpq   e49c <func_1+0x2ce7>
    dfd1:	48 8d 85 88 e0 ff ff 	lea    -0x1f78(%rbp),%rax
    dfd8:	48 89 85 28 e5 ff ff 	mov    %rax,-0x1ad8(%rbp)
    dfdf:	48 c7 85 a8 e2 ff ff 	movq   $0x0,-0x1d58(%rbp)
    dfe6:	00 00 00 00 
    dfea:	48 8d 85 a8 e2 ff ff 	lea    -0x1d58(%rbp),%rax
    dff1:	48 89 85 30 e5 ff ff 	mov    %rax,-0x1ad0(%rbp)
    dff8:	48 8d 05 49 30 01 00 	lea    0x13049(%rip),%rax        # 21048 <g_98>
    dfff:	48 89 85 38 e5 ff ff 	mov    %rax,-0x1ac8(%rbp)
    e006:	c7 85 b8 e1 ff ff d2 	movl   $0xcd3629d2,-0x1e48(%rbp)
    e00d:	29 36 cd 
    e010:	48 8d 05 41 30 01 00 	lea    0x13041(%rip),%rax        # 21058 <g_101>
    e017:	48 89 85 40 e5 ff ff 	mov    %rax,-0x1ac0(%rbp)
    e01e:	c7 85 00 e1 ff ff 00 	movl   $0x0,-0x1f00(%rbp)
    e025:	00 00 00 
    e028:	eb 1a                	jmp    e044 <func_1+0x288f>
    e02a:	8b 85 00 e1 ff ff    	mov    -0x1f00(%rbp),%eax
    e030:	48 98                	cltq   
    e032:	c7 84 85 70 e6 ff ff 	movl   $0xffffffff,-0x1990(%rbp,%rax,4)
    e039:	ff ff ff ff 
    e03d:	83 85 00 e1 ff ff 01 	addl   $0x1,-0x1f00(%rbp)
    e044:	83 bd 00 e1 ff ff 03 	cmpl   $0x3,-0x1f00(%rbp)
    e04b:	7e dd                	jle    e02a <func_1+0x2875>
    e04d:	c7 85 00 e1 ff ff 00 	movl   $0x0,-0x1f00(%rbp)
    e054:	00 00 00 
    e057:	eb 1e                	jmp    e077 <func_1+0x28c2>
    e059:	8b 85 00 e1 ff ff    	mov    -0x1f00(%rbp),%eax
    e05f:	48 98                	cltq   
    e061:	48 8d 15 10 31 01 00 	lea    0x13110(%rip),%rdx        # 21178 <g_1129>
    e068:	48 89 94 c5 f0 f7 ff 	mov    %rdx,-0x810(%rbp,%rax,8)
    e06f:	ff 
    e070:	83 85 00 e1 ff ff 01 	addl   $0x1,-0x1f00(%rbp)
    e077:	83 bd 00 e1 ff ff 07 	cmpl   $0x7,-0x1f00(%rbp)
    e07e:	7e d9                	jle    e059 <func_1+0x28a4>
    e080:	66 c7 05 f3 30 01 00 	movw   $0x0,0x130f3(%rip)        # 2117c <g_1333>
    e087:	00 00 
    e089:	e9 55 02 00 00       	jmpq   e2e3 <func_1+0x2b2e>
    e08e:	48 8d 05 f3 76 01 00 	lea    0x176f3(%rip),%rax        # 25788 <g_425>
    e095:	48 89 85 48 e5 ff ff 	mov    %rax,-0x1ab8(%rbp)
    e09c:	c7 85 bc e1 ff ff 67 	movl   $0x6f396867,-0x1e44(%rbp)
    e0a3:	68 39 6f 
    e0a6:	c7 85 c0 e1 ff ff 86 	movl   $0xacf8c186,-0x1e40(%rbp)
    e0ad:	c1 f8 ac 
    e0b0:	48 8d 05 51 53 01 00 	lea    0x15351(%rip),%rax        # 23408 <g_291>
    e0b7:	48 89 85 50 e5 ff ff 	mov    %rax,-0x1ab0(%rbp)
    e0be:	c7 85 04 e1 ff ff 00 	movl   $0x0,-0x1efc(%rbp)
    e0c5:	00 00 00 
    e0c8:	eb 1e                	jmp    e0e8 <func_1+0x2933>
    e0ca:	8b 85 04 e1 ff ff    	mov    -0x1efc(%rbp),%eax
    e0d0:	48 98                	cltq   
    e0d2:	48 8d 95 a0 e2 ff ff 	lea    -0x1d60(%rbp),%rdx
    e0d9:	48 89 94 c5 10 e9 ff 	mov    %rdx,-0x16f0(%rbp,%rax,8)
    e0e0:	ff 
    e0e1:	83 85 04 e1 ff ff 01 	addl   $0x1,-0x1efc(%rbp)
    e0e8:	83 bd 04 e1 ff ff 06 	cmpl   $0x6,-0x1efc(%rbp)
    e0ef:	7e d9                	jle    e0ca <func_1+0x2915>
    e0f1:	48 8b 05 48 56 01 00 	mov    0x15648(%rip),%rax        # 23740 <g_376>
    e0f8:	48 8b 00             	mov    (%rax),%rax
    e0fb:	48 8b 95 28 e5 ff ff 	mov    -0x1ad8(%rbp),%rdx
    e102:	48 89 10             	mov    %rdx,(%rax)
    e105:	48 8b 85 18 e2 ff ff 	mov    -0x1de8(%rbp),%rax
    e10c:	44 8b 28             	mov    (%rax),%r13d
    e10f:	48 8b 85 28 e5 ff ff 	mov    -0x1ad8(%rbp),%rax
    e116:	8b 18                	mov    (%rax),%ebx
    e118:	48 8d 05 e9 60 01 00 	lea    0x160e9(%rip),%rax        # 24208 <g_1245>
    e11f:	48 8b 00             	mov    (%rax),%rax
    e122:	48 8b 00             	mov    (%rax),%rax
    e125:	0f b6 00             	movzbl (%rax),%eax
    e128:	44 0f be e0          	movsbl %al,%r12d
    e12c:	48 8b 85 28 e2 ff ff 	mov    -0x1dd8(%rbp),%rax
    e133:	48 39 85 30 e5 ff ff 	cmp    %rax,-0x1ad0(%rbp)
    e13a:	0f 95 c2             	setne  %dl
    e13d:	48 8b 85 b0 e2 ff ff 	mov    -0x1d50(%rbp),%rax
    e144:	48 8b 00             	mov    (%rax),%rax
    e147:	48 8b 00             	mov    (%rax),%rax
    e14a:	88 10                	mov    %dl,(%rax)
    e14c:	8b 95 f8 eb ff ff    	mov    -0x1408(%rbp),%edx
    e152:	48 8b 05 67 52 01 00 	mov    0x15267(%rip),%rax        # 233c0 <g_103>
    e159:	8b 00                	mov    (%rax),%eax
    e15b:	39 c2                	cmp    %eax,%edx
    e15d:	0f 9e c0             	setle  %al
    e160:	0f b6 c0             	movzbl %al,%eax
    e163:	83 bd b0 e1 ff ff 00 	cmpl   $0x0,-0x1e50(%rbp)
    e16a:	74 11                	je     e17d <func_1+0x29c8>
    e16c:	48 83 bd 48 e5 ff ff 	cmpq   $0x0,-0x1ab8(%rbp)
    e173:	00 
    e174:	75 07                	jne    e17d <func_1+0x29c8>
    e176:	ba 01 00 00 00       	mov    $0x1,%edx
    e17b:	eb 05                	jmp    e182 <func_1+0x29cd>
    e17d:	ba 00 00 00 00       	mov    $0x0,%edx
    e182:	89 c6                	mov    %eax,%esi
    e184:	89 d7                	mov    %edx,%edi
    e186:	e8 2d cd ff ff       	callq  aeb8 <safe_add_func_uint32_t_u_u>
    e18b:	89 85 f4 eb ff ff    	mov    %eax,-0x140c(%rbp)
    e191:	8b 85 f4 eb ff ff    	mov    -0x140c(%rbp),%eax
    e197:	3d 96 d0 00 00       	cmp    $0xd096,%eax
    e19c:	0f 9f c0             	setg   %al
    e19f:	0f b6 c0             	movzbl %al,%eax
    e1a2:	44 89 e6             	mov    %r12d,%esi
    e1a5:	89 c7                	mov    %eax,%edi
    e1a7:	e8 f5 c0 ff ff       	callq  a2a1 <safe_lshift_func_int8_t_s_s>
    e1ac:	8b 85 90 e1 ff ff    	mov    -0x1e70(%rbp),%eax
    e1b2:	89 c2                	mov    %eax,%edx
    e1b4:	48 8b 05 75 57 01 00 	mov    0x15775(%rip),%rax        # 23930 <g_495>
    e1bb:	48 8b 00             	mov    (%rax),%rax
    e1be:	48 8b 00             	mov    (%rax),%rax
    e1c1:	31 d0                	xor    %edx,%eax
    e1c3:	0f b6 c0             	movzbl %al,%eax
    e1c6:	89 de                	mov    %ebx,%esi
    e1c8:	89 c7                	mov    %eax,%edi
    e1ca:	e8 36 ca ff ff       	callq  ac05 <safe_lshift_func_uint8_t_u_s>
    e1cf:	0f b6 c0             	movzbl %al,%eax
    e1d2:	44 21 e8             	and    %r13d,%eax
    e1d5:	85 c0                	test   %eax,%eax
    e1d7:	74 15                	je     e1ee <func_1+0x2a39>
    e1d9:	48 8b 05 18 52 01 00 	mov    0x15218(%rip),%rax        # 233f8 <g_288>
    e1e0:	48 8b 00             	mov    (%rax),%rax
    e1e3:	c7 00 01 00 00 00    	movl   $0x1,(%rax)
    e1e9:	e9 cd 00 00 00       	jmpq   e2bb <func_1+0x2b06>
    e1ee:	48 8d 05 23 60 01 00 	lea    0x16023(%rip),%rax        # 24218 <g_1337>
    e1f5:	48 89 85 58 e5 ff ff 	mov    %rax,-0x1aa8(%rbp)
    e1fc:	48 8d 05 3d 2f 01 00 	lea    0x12f3d(%rip),%rax        # 21140 <g_400>
    e203:	48 89 85 60 e5 ff ff 	mov    %rax,-0x1aa0(%rbp)
    e20a:	c7 85 c4 e1 ff ff 0d 	movl   $0xb0df820d,-0x1e3c(%rbp)
    e211:	82 df b0 
    e214:	8b 85 7c e6 ff ff    	mov    -0x1984(%rbp),%eax
    e21a:	48 63 d8             	movslq %eax,%rbx
    e21d:	48 8b 85 60 e5 ff ff 	mov    -0x1aa0(%rbp),%rax
    e224:	0f b7 00             	movzwl (%rax),%eax
    e227:	8d 50 ff             	lea    -0x1(%rax),%edx
    e22a:	48 8b 85 60 e5 ff ff 	mov    -0x1aa0(%rbp),%rax
    e231:	66 89 10             	mov    %dx,(%rax)
    e234:	be 07 00 00 00       	mov    $0x7,%esi
    e239:	bf 01 00 00 00       	mov    $0x1,%edi
    e23e:	e8 05 cc ff ff       	callq  ae48 <safe_rshift_func_uint16_t_u_s>
    e243:	8b 05 df 2d 01 00    	mov    0x12ddf(%rip),%eax        # 21028 <g_3>
    e249:	8b 85 c4 e1 ff ff    	mov    -0x1e3c(%rbp),%eax
    e24f:	48 63 d0             	movslq %eax,%rdx
    e252:	48 8b 05 37 55 01 00 	mov    0x15537(%rip),%rax        # 23790 <g_418>
    e259:	48 8b 00             	mov    (%rax),%rax
    e25c:	48 89 d6             	mov    %rdx,%rsi
    e25f:	48 89 c7             	mov    %rax,%rdi
    e262:	e8 90 c7 ff ff       	callq  a9f7 <safe_div_func_int64_t_s_s>
    e267:	48 8b 85 58 e5 ff ff 	mov    -0x1aa8(%rbp),%rax
    e26e:	48 89 85 30 e9 ff ff 	mov    %rax,-0x16d0(%rbp)
    e275:	48 8b 85 28 e5 ff ff 	mov    -0x1ad8(%rbp),%rax
    e27c:	8b 00                	mov    (%rax),%eax
    e27e:	0f bf d0             	movswl %ax,%edx
    e281:	8b 85 bc e1 ff ff    	mov    -0x1e44(%rbp),%eax
    e287:	98                   	cwtl   
    e288:	89 d6                	mov    %edx,%esi
    e28a:	89 c7                	mov    %eax,%edi
    e28c:	e8 85 c1 ff ff       	callq  a416 <safe_mod_func_int16_t_s_s>
    e291:	8b 85 c4 e1 ff ff    	mov    -0x1e3c(%rbp),%eax
    e297:	48 98                	cltq   
    e299:	48 89 de             	mov    %rbx,%rsi
    e29c:	48 89 c7             	mov    %rax,%rdi
    e29f:	e8 53 c7 ff ff       	callq  a9f7 <safe_div_func_int64_t_s_s>
    e2a4:	31 85 c0 e1 ff ff    	xor    %eax,-0x1e40(%rbp)
    e2aa:	48 8b 85 b0 e2 ff ff 	mov    -0x1d50(%rbp),%rax
    e2b1:	48 8b 95 50 e5 ff ff 	mov    -0x1ab0(%rbp),%rdx
    e2b8:	48 89 10             	mov    %rdx,(%rax)
    e2bb:	48 8b 15 26 51 01 00 	mov    0x15126(%rip),%rdx        # 233e8 <g_200>
    e2c2:	48 8b 05 77 54 01 00 	mov    0x15477(%rip),%rax        # 23740 <g_376>
    e2c9:	48 8b 00             	mov    (%rax),%rax
    e2cc:	48 8b 12             	mov    (%rdx),%rdx
    e2cf:	48 89 10             	mov    %rdx,(%rax)
    e2d2:	0f b7 05 a3 2e 01 00 	movzwl 0x12ea3(%rip),%eax        # 2117c <g_1333>
    e2d9:	83 c0 01             	add    $0x1,%eax
    e2dc:	66 89 05 99 2e 01 00 	mov    %ax,0x12e99(%rip)        # 2117c <g_1333>
    e2e3:	0f b7 05 92 2e 01 00 	movzwl 0x12e92(%rip),%eax        # 2117c <g_1333>
    e2ea:	66 83 f8 1a          	cmp    $0x1a,%ax
    e2ee:	0f 86 9a fd ff ff    	jbe    e08e <func_1+0x28d9>
    e2f4:	48 8b 85 28 e5 ff ff 	mov    -0x1ad8(%rbp),%rax
    e2fb:	c7 00 d9 e4 ff 16    	movl   $0x16ffe4d9,(%rax)
    e301:	48 8b 85 38 e5 ff ff 	mov    -0x1ac8(%rbp),%rax
    e308:	48 8b 00             	mov    (%rax),%rax
    e30b:	48 8d 50 ff          	lea    -0x1(%rax),%rdx
    e30f:	48 8b 85 38 e5 ff ff 	mov    -0x1ac8(%rbp),%rax
    e316:	48 89 10             	mov    %rdx,(%rax)
    e319:	8b 85 5c e6 ff ff    	mov    -0x19a4(%rbp),%eax
    e31f:	89 85 5c e6 ff ff    	mov    %eax,-0x19a4(%rbp)
    e325:	48 8b 85 18 e2 ff ff 	mov    -0x1de8(%rbp),%rax
    e32c:	8b 00                	mov    (%rax),%eax
    e32e:	98                   	cwtl   
    e32f:	be 09 00 00 00       	mov    $0x9,%esi
    e334:	89 c7                	mov    %eax,%edi
    e336:	e8 a6 c1 ff ff       	callq  a4e1 <safe_lshift_func_int16_t_s_u>
    e33b:	48 8b 05 d6 50 01 00 	mov    0x150d6(%rip),%rax        # 23418 <g_289>
    e342:	48 8b 85 c8 e4 ff ff 	mov    -0x1b38(%rbp),%rax
    e349:	89 c3                	mov    %eax,%ebx
    e34b:	48 8b 85 28 e5 ff ff 	mov    -0x1ad8(%rbp),%rax
    e352:	8b 00                	mov    (%rax),%eax
    e354:	0f b7 d0             	movzwl %ax,%edx
    e357:	48 8b 85 b8 e2 ff ff 	mov    -0x1d48(%rbp),%rax
    e35e:	48 8b 00             	mov    (%rax),%rax
    e361:	48 39 85 40 e5 ff ff 	cmp    %rax,-0x1ac0(%rbp)
    e368:	0f 95 c0             	setne  %al
    e36b:	0f b6 c0             	movzbl %al,%eax
    e36e:	89 d6                	mov    %edx,%esi
    e370:	89 c7                	mov    %eax,%edi
    e372:	e8 c6 c9 ff ff       	callq  ad3d <safe_mul_func_uint16_t_u_u>
    e377:	98                   	cwtl   
    e378:	be 23 c5 ff ff       	mov    $0xffffc523,%esi
    e37d:	89 c7                	mov    %eax,%edi
    e37f:	e8 2f c0 ff ff       	callq  a3b3 <safe_add_func_int16_t_s_s>
    e384:	83 c8 01             	or     $0x1,%eax
    e387:	66 c1 e8 0f          	shr    $0xf,%ax
    e38b:	0f b6 c0             	movzbl %al,%eax
    e38e:	48 89 c6             	mov    %rax,%rsi
    e391:	48 bf 0e 4a 13 5e 7d 	movabs $0xcec7297d5e134a0e,%rdi
    e398:	29 c7 ce 
    e39b:	e8 a1 c4 ff ff       	callq  a841 <safe_add_func_int64_t_s_s>
    e3a0:	89 85 b4 e0 ff ff    	mov    %eax,-0x1f4c(%rbp)
    e3a6:	8b 85 b4 e0 ff ff    	mov    -0x1f4c(%rbp),%eax
    e3ac:	be 88 72 4a 00       	mov    $0x4a7288,%esi
    e3b1:	89 c7                	mov    %eax,%edi
    e3b3:	e8 4d c2 ff ff       	callq  a605 <safe_sub_func_int32_t_s_s>
    e3b8:	89 c2                	mov    %eax,%edx
    e3ba:	0f b7 85 4c e0 ff ff 	movzwl -0x1fb4(%rbp),%eax
    e3c1:	09 d0                	or     %edx,%eax
    e3c3:	98                   	cwtl   
    e3c4:	be 14 d6 ff ff       	mov    $0xffffd614,%esi
    e3c9:	89 c7                	mov    %eax,%edi
    e3cb:	e8 e3 bf ff ff       	callq  a3b3 <safe_add_func_int16_t_s_s>
    e3d0:	98                   	cwtl   
    e3d1:	89 de                	mov    %ebx,%esi
    e3d3:	89 c7                	mov    %eax,%edi
    e3d5:	e8 25 c3 ff ff       	callq  a6ff <safe_div_func_int32_t_s_s>
    e3da:	48 8b 95 18 e5 ff ff 	mov    -0x1ae8(%rbp),%rdx
    e3e1:	89 c6                	mov    %eax,%esi
    e3e3:	89 d7                	mov    %edx,%edi
    e3e5:	e8 e2 c2 ff ff       	callq  a6cc <safe_mod_func_int32_t_s_s>
    e3ea:	31 85 d8 e0 ff ff    	xor    %eax,-0x1f28(%rbp)
    e3f0:	8b 95 d8 e0 ff ff    	mov    -0x1f28(%rbp),%edx
    e3f6:	8b 85 98 e0 ff ff    	mov    -0x1f68(%rbp),%eax
    e3fc:	39 c2                	cmp    %eax,%edx
    e3fe:	0f 97 c0             	seta   %al
    e401:	88 85 43 e0 ff ff    	mov    %al,-0x1fbd(%rbp)
    e407:	0f b6 95 43 e0 ff ff 	movzbl -0x1fbd(%rbp),%edx
    e40e:	48 8b 85 28 e5 ff ff 	mov    -0x1ad8(%rbp),%rax
    e415:	89 10                	mov    %edx,(%rax)
    e417:	c7 05 57 2d 01 00 00 	movl   $0x0,0x12d57(%rip)        # 21178 <g_1129>
    e41e:	00 00 00 
    e421:	eb 6e                	jmp    e491 <func_1+0x2cdc>
    e423:	c7 85 08 e1 ff ff 00 	movl   $0x0,-0x1ef8(%rbp)
    e42a:	00 00 00 
    e42d:	eb 1e                	jmp    e44d <func_1+0x2c98>
    e42f:	8b 85 08 e1 ff ff    	mov    -0x1ef8(%rbp),%eax
    e435:	48 98                	cltq   
    e437:	48 8d 95 58 e6 ff ff 	lea    -0x19a8(%rbp),%rdx
    e43e:	48 89 94 c5 10 e9 ff 	mov    %rdx,-0x16f0(%rbp,%rax,8)
    e445:	ff 
    e446:	83 85 08 e1 ff ff 01 	addl   $0x1,-0x1ef8(%rbp)
    e44d:	83 bd 08 e1 ff ff 01 	cmpl   $0x1,-0x1ef8(%rbp)
    e454:	7e d9                	jle    e42f <func_1+0x2c7a>
    e456:	48 8b 85 18 e2 ff ff 	mov    -0x1de8(%rbp),%rax
    e45d:	8b 08                	mov    (%rax),%ecx
    e45f:	48 8b 85 28 e5 ff ff 	mov    -0x1ad8(%rbp),%rax
    e466:	8b 10                	mov    (%rax),%edx
    e468:	48 8b 85 18 e2 ff ff 	mov    -0x1de8(%rbp),%rax
    e46f:	31 ca                	xor    %ecx,%edx
    e471:	89 10                	mov    %edx,(%rax)
    e473:	8b 05 cb 2e 01 00    	mov    0x12ecb(%rip),%eax        # 21344 <g_1476>
    e479:	83 c0 01             	add    $0x1,%eax
    e47c:	89 05 c2 2e 01 00    	mov    %eax,0x12ec2(%rip)        # 21344 <g_1476>
    e482:	8b 05 f0 2c 01 00    	mov    0x12cf0(%rip),%eax        # 21178 <g_1129>
    e488:	83 c0 01             	add    $0x1,%eax
    e48b:	89 05 e7 2c 01 00    	mov    %eax,0x12ce7(%rip)        # 21178 <g_1129>
    e491:	8b 05 e1 2c 01 00    	mov    0x12ce1(%rip),%eax        # 21178 <g_1129>
    e497:	83 f8 08             	cmp    $0x8,%eax
    e49a:	76 87                	jbe    e423 <func_1+0x2c6e>
    e49c:	83 bd b4 e1 ff ff 00 	cmpl   $0x0,-0x1e4c(%rbp)
    e4a3:	74 4f                	je     e4f4 <func_1+0x2d3f>
    e4a5:	c7 85 0c e1 ff ff 00 	movl   $0x0,-0x1ef4(%rbp)
    e4ac:	00 00 00 
    e4af:	eb 1e                	jmp    e4cf <func_1+0x2d1a>
    e4b1:	8b 85 0c e1 ff ff    	mov    -0x1ef4(%rbp),%eax
    e4b7:	48 98                	cltq   
    e4b9:	48 8d 95 ac e0 ff ff 	lea    -0x1f54(%rbp),%rdx
    e4c0:	48 89 94 c5 f0 f7 ff 	mov    %rdx,-0x810(%rbp,%rax,8)
    e4c7:	ff 
    e4c8:	83 85 0c e1 ff ff 01 	addl   $0x1,-0x1ef4(%rbp)
    e4cf:	83 bd 0c e1 ff ff 07 	cmpl   $0x7,-0x1ef4(%rbp)
    e4d6:	7e d9                	jle    e4b1 <func_1+0x2cfc>
    e4d8:	48 8b 05 19 4f 01 00 	mov    0x14f19(%rip),%rax        # 233f8 <g_288>
    e4df:	48 8b 95 f0 f7 ff ff 	mov    -0x810(%rbp),%rdx
    e4e6:	48 89 10             	mov    %rdx,(%rax)
    e4e9:	83 bd a8 e1 ff ff 00 	cmpl   $0x0,-0x1e58(%rbp)
    e4f0:	74 45                	je     e537 <func_1+0x2d82>
    e4f2:	eb 72                	jmp    e566 <func_1+0x2db1>
    e4f4:	c7 85 8c e0 ff ff 0e 	movl   $0xe,-0x1f74(%rbp)
    e4fb:	00 00 00 
    e4fe:	90                   	nop
    e4ff:	8b 85 8c e0 ff ff    	mov    -0x1f74(%rbp),%eax
    e505:	83 f8 ec             	cmp    $0xffffffec,%eax
    e508:	7c 24                	jl     e52e <func_1+0x2d79>
    e50a:	48 c7 85 20 e6 ff ff 	movq   $0x0,-0x19e0(%rbp)
    e511:	00 00 00 00 
    e515:	48 8b 85 20 e6 ff ff 	mov    -0x19e0(%rbp),%rax
    e51c:	48 89 85 d0 e4 ff ff 	mov    %rax,-0x1b30(%rbp)
    e523:	8b 85 ec ed ff ff    	mov    -0x1214(%rbp),%eax
    e529:	e9 df 43 00 00       	jmpq   1290d <func_1+0x7158>
    e52e:	83 bd a4 e1 ff ff 00 	cmpl   $0x0,-0x1e5c(%rbp)
    e535:	75 2e                	jne    e565 <func_1+0x2db0>
    e537:	8b 05 03 2b 01 00    	mov    0x12b03(%rip),%eax        # 21040 <g_9>
    e53d:	0f be c0             	movsbl %al,%eax
    e540:	be 02 00 00 00       	mov    $0x2,%esi
    e545:	89 c7                	mov    %eax,%edi
    e547:	e8 88 bc ff ff       	callq  a1d4 <safe_add_func_int8_t_s_s>
    e54c:	0f be c0             	movsbl %al,%eax
    e54f:	89 05 eb 2a 01 00    	mov    %eax,0x12aeb(%rip)        # 21040 <g_9>
    e555:	8b 05 e5 2a 01 00    	mov    0x12ae5(%rip),%eax        # 21040 <g_9>
    e55b:	85 c0                	test   %eax,%eax
    e55d:	0f 85 eb dc ff ff    	jne    c24e <func_1+0xa99>
    e563:	eb 01                	jmp    e566 <func_1+0x2db1>
    e565:	90                   	nop
    e566:	c7 85 80 e0 ff ff 00 	movl   $0x0,-0x1f80(%rbp)
    e56d:	00 00 00 
    e570:	e9 dd 0d 00 00       	jmpq   f352 <func_1+0x3b9d>
    e575:	66 c7 85 6e e0 ff ff 	movw   $0x1,-0x1f92(%rbp)
    e57c:	01 00 
    e57e:	c7 85 f4 e1 ff ff 21 	movl   $0x70a8b921,-0x1e0c(%rbp)
    e585:	b9 a8 70 
    e588:	c7 85 f8 e1 ff ff ff 	movl   $0xffffffff,-0x1e08(%rbp)
    e58f:	ff ff ff 
    e592:	c7 85 fc e1 ff ff 1c 	movl   $0x8fa2201c,-0x1e04(%rbp)
    e599:	20 a2 8f 
    e59c:	c7 85 00 e2 ff ff 00 	movl   $0x0,-0x1e00(%rbp)
    e5a3:	00 00 00 
    e5a6:	c6 85 46 e0 ff ff 00 	movb   $0x0,-0x1fba(%rbp)
    e5ad:	c7 85 04 e2 ff ff 49 	movl   $0xbef76049,-0x1dfc(%rbp)
    e5b4:	60 f7 be 
    e5b7:	c7 85 08 e2 ff ff 3b 	movl   $0x6af08a3b,-0x1df8(%rbp)
    e5be:	8a f0 6a 
    e5c1:	c7 85 0c e2 ff ff 08 	movl   $0x8,-0x1df4(%rbp)
    e5c8:	00 00 00 
    e5cb:	c6 85 47 e0 ff ff 00 	movb   $0x0,-0x1fb9(%rbp)
    e5d2:	48 8d 85 00 eb ff ff 	lea    -0x1500(%rbp),%rax
    e5d9:	48 05 74 02 00 00    	add    $0x274,%rax
    e5df:	48 89 85 90 e2 ff ff 	mov    %rax,-0x1d70(%rbp)
    e5e6:	48 c7 85 98 e2 ff ff 	movq   $0x0,-0x1d68(%rbp)
    e5ed:	00 00 00 00 
    e5f1:	48 8d 85 98 e2 ff ff 	lea    -0x1d68(%rbp),%rax
    e5f8:	48 89 85 28 e6 ff ff 	mov    %rax,-0x19d8(%rbp)
    e5ff:	48 c7 85 f0 f7 ff ff 	movq   $0x0,-0x810(%rbp)
    e606:	00 00 00 00 
    e60a:	48 8d 05 cf 4d 01 00 	lea    0x14dcf(%rip),%rax        # 233e0 <g_201>
    e611:	48 89 85 f8 f7 ff ff 	mov    %rax,-0x808(%rbp)
    e618:	48 8d 05 c1 4d 01 00 	lea    0x14dc1(%rip),%rax        # 233e0 <g_201>
    e61f:	48 89 85 00 f8 ff ff 	mov    %rax,-0x800(%rbp)
    e626:	48 8d 85 90 e2 ff ff 	lea    -0x1d70(%rbp),%rax
    e62d:	48 89 85 08 f8 ff ff 	mov    %rax,-0x7f8(%rbp)
    e634:	48 8d 85 90 e2 ff ff 	lea    -0x1d70(%rbp),%rax
    e63b:	48 89 85 10 f8 ff ff 	mov    %rax,-0x7f0(%rbp)
    e642:	48 8d 05 97 4d 01 00 	lea    0x14d97(%rip),%rax        # 233e0 <g_201>
    e649:	48 89 85 18 f8 ff ff 	mov    %rax,-0x7e8(%rbp)
    e650:	48 8d 05 89 4d 01 00 	lea    0x14d89(%rip),%rax        # 233e0 <g_201>
    e657:	48 89 85 20 f8 ff ff 	mov    %rax,-0x7e0(%rbp)
    e65e:	48 8d 05 5b 4d 01 00 	lea    0x14d5b(%rip),%rax        # 233c0 <g_103>
    e665:	48 89 85 28 f8 ff ff 	mov    %rax,-0x7d8(%rbp)
    e66c:	48 8d 85 18 e2 ff ff 	lea    -0x1de8(%rbp),%rax
    e673:	48 89 85 30 f8 ff ff 	mov    %rax,-0x7d0(%rbp)
    e67a:	48 8d 05 5f 4d 01 00 	lea    0x14d5f(%rip),%rax        # 233e0 <g_201>
    e681:	48 89 85 38 f8 ff ff 	mov    %rax,-0x7c8(%rbp)
    e688:	48 8d 05 51 4d 01 00 	lea    0x14d51(%rip),%rax        # 233e0 <g_201>
    e68f:	48 89 85 40 f8 ff ff 	mov    %rax,-0x7c0(%rbp)
    e696:	48 8d 85 18 e2 ff ff 	lea    -0x1de8(%rbp),%rax
    e69d:	48 89 85 48 f8 ff ff 	mov    %rax,-0x7b8(%rbp)
    e6a4:	48 8d 85 18 e2 ff ff 	lea    -0x1de8(%rbp),%rax
    e6ab:	48 89 85 50 f8 ff ff 	mov    %rax,-0x7b0(%rbp)
    e6b2:	48 8d 05 07 4d 01 00 	lea    0x14d07(%rip),%rax        # 233c0 <g_103>
    e6b9:	48 89 85 58 f8 ff ff 	mov    %rax,-0x7a8(%rbp)
    e6c0:	48 8d 85 18 e2 ff ff 	lea    -0x1de8(%rbp),%rax
    e6c7:	48 89 85 60 f8 ff ff 	mov    %rax,-0x7a0(%rbp)
    e6ce:	48 c7 85 68 f8 ff ff 	movq   $0x0,-0x798(%rbp)
    e6d5:	00 00 00 00 
    e6d9:	48 8d 85 90 e2 ff ff 	lea    -0x1d70(%rbp),%rax
    e6e0:	48 89 85 70 f8 ff ff 	mov    %rax,-0x790(%rbp)
    e6e7:	48 c7 85 78 f8 ff ff 	movq   $0x0,-0x788(%rbp)
    e6ee:	00 00 00 00 
    e6f2:	48 8d 85 18 e2 ff ff 	lea    -0x1de8(%rbp),%rax
    e6f9:	48 89 85 80 f8 ff ff 	mov    %rax,-0x780(%rbp)
    e700:	48 8d 85 90 e2 ff ff 	lea    -0x1d70(%rbp),%rax
    e707:	48 89 85 88 f8 ff ff 	mov    %rax,-0x778(%rbp)
    e70e:	48 8d 05 ab 4c 01 00 	lea    0x14cab(%rip),%rax        # 233c0 <g_103>
    e715:	48 89 85 90 f8 ff ff 	mov    %rax,-0x770(%rbp)
    e71c:	48 c7 85 98 f8 ff ff 	movq   $0x0,-0x768(%rbp)
    e723:	00 00 00 00 
    e727:	48 8d 05 92 4c 01 00 	lea    0x14c92(%rip),%rax        # 233c0 <g_103>
    e72e:	48 89 85 a0 f8 ff ff 	mov    %rax,-0x760(%rbp)
    e735:	48 8d 85 18 e2 ff ff 	lea    -0x1de8(%rbp),%rax
    e73c:	48 89 85 a8 f8 ff ff 	mov    %rax,-0x758(%rbp)
    e743:	48 8d 85 18 e2 ff ff 	lea    -0x1de8(%rbp),%rax
    e74a:	48 89 85 b0 f8 ff ff 	mov    %rax,-0x750(%rbp)
    e751:	48 8d 85 90 e2 ff ff 	lea    -0x1d70(%rbp),%rax
    e758:	48 89 85 b8 f8 ff ff 	mov    %rax,-0x748(%rbp)
    e75f:	48 8d 85 18 e2 ff ff 	lea    -0x1de8(%rbp),%rax
    e766:	48 89 85 c0 f8 ff ff 	mov    %rax,-0x740(%rbp)
    e76d:	48 8d 85 18 e2 ff ff 	lea    -0x1de8(%rbp),%rax
    e774:	48 89 85 c8 f8 ff ff 	mov    %rax,-0x738(%rbp)
    e77b:	48 8d 85 90 e2 ff ff 	lea    -0x1d70(%rbp),%rax
    e782:	48 89 85 d0 f8 ff ff 	mov    %rax,-0x730(%rbp)
    e789:	48 8d 85 90 e2 ff ff 	lea    -0x1d70(%rbp),%rax
    e790:	48 89 85 d8 f8 ff ff 	mov    %rax,-0x728(%rbp)
    e797:	48 8d 05 22 4c 01 00 	lea    0x14c22(%rip),%rax        # 233c0 <g_103>
    e79e:	48 89 85 e0 f8 ff ff 	mov    %rax,-0x720(%rbp)
    e7a5:	48 8d 85 90 e2 ff ff 	lea    -0x1d70(%rbp),%rax
    e7ac:	48 89 85 e8 f8 ff ff 	mov    %rax,-0x718(%rbp)
    e7b3:	48 8d 85 18 e2 ff ff 	lea    -0x1de8(%rbp),%rax
    e7ba:	48 89 85 f0 f8 ff ff 	mov    %rax,-0x710(%rbp)
    e7c1:	48 c7 85 f8 f8 ff ff 	movq   $0x0,-0x708(%rbp)
    e7c8:	00 00 00 00 
    e7cc:	48 8d 85 90 e2 ff ff 	lea    -0x1d70(%rbp),%rax
    e7d3:	48 89 85 00 f9 ff ff 	mov    %rax,-0x700(%rbp)
    e7da:	48 8d 05 df 4b 01 00 	lea    0x14bdf(%rip),%rax        # 233c0 <g_103>
    e7e1:	48 89 85 08 f9 ff ff 	mov    %rax,-0x6f8(%rbp)
    e7e8:	48 8d 85 18 e2 ff ff 	lea    -0x1de8(%rbp),%rax
    e7ef:	48 89 85 10 f9 ff ff 	mov    %rax,-0x6f0(%rbp)
    e7f6:	48 8d 85 18 e2 ff ff 	lea    -0x1de8(%rbp),%rax
    e7fd:	48 89 85 18 f9 ff ff 	mov    %rax,-0x6e8(%rbp)
    e804:	48 8d 05 b5 4b 01 00 	lea    0x14bb5(%rip),%rax        # 233c0 <g_103>
    e80b:	48 89 85 20 f9 ff ff 	mov    %rax,-0x6e0(%rbp)
    e812:	48 8d 05 a7 4b 01 00 	lea    0x14ba7(%rip),%rax        # 233c0 <g_103>
    e819:	48 89 85 28 f9 ff ff 	mov    %rax,-0x6d8(%rbp)
    e820:	48 8d 05 b9 4b 01 00 	lea    0x14bb9(%rip),%rax        # 233e0 <g_201>
    e827:	48 89 85 30 f9 ff ff 	mov    %rax,-0x6d0(%rbp)
    e82e:	48 8d 85 90 e2 ff ff 	lea    -0x1d70(%rbp),%rax
    e835:	48 89 85 38 f9 ff ff 	mov    %rax,-0x6c8(%rbp)
    e83c:	48 8d 05 9d 4b 01 00 	lea    0x14b9d(%rip),%rax        # 233e0 <g_201>
    e843:	48 89 85 40 f9 ff ff 	mov    %rax,-0x6c0(%rbp)
    e84a:	48 8d 05 6f 4b 01 00 	lea    0x14b6f(%rip),%rax        # 233c0 <g_103>
    e851:	48 89 85 48 f9 ff ff 	mov    %rax,-0x6b8(%rbp)
    e858:	48 8d 85 90 e2 ff ff 	lea    -0x1d70(%rbp),%rax
    e85f:	48 89 85 50 f9 ff ff 	mov    %rax,-0x6b0(%rbp)
    e866:	48 8d 05 73 4b 01 00 	lea    0x14b73(%rip),%rax        # 233e0 <g_201>
    e86d:	48 89 85 58 f9 ff ff 	mov    %rax,-0x6a8(%rbp)
    e874:	48 8d 85 18 e2 ff ff 	lea    -0x1de8(%rbp),%rax
    e87b:	48 89 85 60 f9 ff ff 	mov    %rax,-0x6a0(%rbp)
    e882:	48 8d 85 18 e2 ff ff 	lea    -0x1de8(%rbp),%rax
    e889:	48 89 85 68 f9 ff ff 	mov    %rax,-0x698(%rbp)
    e890:	48 8d 05 49 4b 01 00 	lea    0x14b49(%rip),%rax        # 233e0 <g_201>
    e897:	48 89 85 70 f9 ff ff 	mov    %rax,-0x690(%rbp)
    e89e:	48 8d 05 3b 4b 01 00 	lea    0x14b3b(%rip),%rax        # 233e0 <g_201>
    e8a5:	48 89 85 78 f9 ff ff 	mov    %rax,-0x688(%rbp)
    e8ac:	48 c7 85 80 f9 ff ff 	movq   $0x0,-0x680(%rbp)
    e8b3:	00 00 00 00 
    e8b7:	48 8d 05 22 4b 01 00 	lea    0x14b22(%rip),%rax        # 233e0 <g_201>
    e8be:	48 89 85 88 f9 ff ff 	mov    %rax,-0x678(%rbp)
    e8c5:	48 8d 85 18 e2 ff ff 	lea    -0x1de8(%rbp),%rax
    e8cc:	48 89 85 90 f9 ff ff 	mov    %rax,-0x670(%rbp)
    e8d3:	48 8d 85 90 e2 ff ff 	lea    -0x1d70(%rbp),%rax
    e8da:	48 89 85 98 f9 ff ff 	mov    %rax,-0x668(%rbp)
    e8e1:	48 c7 85 a0 f9 ff ff 	movq   $0x0,-0x660(%rbp)
    e8e8:	00 00 00 00 
    e8ec:	48 8d 05 cd 4a 01 00 	lea    0x14acd(%rip),%rax        # 233c0 <g_103>
    e8f3:	48 89 85 a8 f9 ff ff 	mov    %rax,-0x658(%rbp)
    e8fa:	48 8d 85 90 e2 ff ff 	lea    -0x1d70(%rbp),%rax
    e901:	48 89 85 b0 f9 ff ff 	mov    %rax,-0x650(%rbp)
    e908:	48 8d 05 b1 4a 01 00 	lea    0x14ab1(%rip),%rax        # 233c0 <g_103>
    e90f:	48 89 85 b8 f9 ff ff 	mov    %rax,-0x648(%rbp)
    e916:	48 8d 05 c3 4a 01 00 	lea    0x14ac3(%rip),%rax        # 233e0 <g_201>
    e91d:	48 89 85 c0 f9 ff ff 	mov    %rax,-0x640(%rbp)
    e924:	48 c7 85 c8 f9 ff ff 	movq   $0x0,-0x638(%rbp)
    e92b:	00 00 00 00 
    e92f:	48 8d 05 aa 4a 01 00 	lea    0x14aaa(%rip),%rax        # 233e0 <g_201>
    e936:	48 89 85 d0 f9 ff ff 	mov    %rax,-0x630(%rbp)
    e93d:	48 8d 05 7c 4a 01 00 	lea    0x14a7c(%rip),%rax        # 233c0 <g_103>
    e944:	48 89 85 d8 f9 ff ff 	mov    %rax,-0x628(%rbp)
    e94b:	48 8d 85 90 e2 ff ff 	lea    -0x1d70(%rbp),%rax
    e952:	48 89 85 e0 f9 ff ff 	mov    %rax,-0x620(%rbp)
    e959:	48 8d 85 18 e2 ff ff 	lea    -0x1de8(%rbp),%rax
    e960:	48 89 85 e8 f9 ff ff 	mov    %rax,-0x618(%rbp)
    e967:	48 8d 85 18 e2 ff ff 	lea    -0x1de8(%rbp),%rax
    e96e:	48 89 85 f0 f9 ff ff 	mov    %rax,-0x610(%rbp)
    e975:	48 8d 05 44 4a 01 00 	lea    0x14a44(%rip),%rax        # 233c0 <g_103>
    e97c:	48 89 85 f8 f9 ff ff 	mov    %rax,-0x608(%rbp)
    e983:	48 c7 85 00 fa ff ff 	movq   $0x0,-0x600(%rbp)
    e98a:	00 00 00 00 
    e98e:	48 8d 05 2b 4a 01 00 	lea    0x14a2b(%rip),%rax        # 233c0 <g_103>
    e995:	48 89 85 08 fa ff ff 	mov    %rax,-0x5f8(%rbp)
    e99c:	48 c7 85 10 fa ff ff 	movq   $0x0,-0x5f0(%rbp)
    e9a3:	00 00 00 00 
    e9a7:	48 8d 05 12 4a 01 00 	lea    0x14a12(%rip),%rax        # 233c0 <g_103>
    e9ae:	48 89 85 18 fa ff ff 	mov    %rax,-0x5e8(%rbp)
    e9b5:	48 8d 05 04 4a 01 00 	lea    0x14a04(%rip),%rax        # 233c0 <g_103>
    e9bc:	48 89 85 20 fa ff ff 	mov    %rax,-0x5e0(%rbp)
    e9c3:	48 8d 85 90 e2 ff ff 	lea    -0x1d70(%rbp),%rax
    e9ca:	48 89 85 28 fa ff ff 	mov    %rax,-0x5d8(%rbp)
    e9d1:	48 8d 85 90 e2 ff ff 	lea    -0x1d70(%rbp),%rax
    e9d8:	48 89 85 30 fa ff ff 	mov    %rax,-0x5d0(%rbp)
    e9df:	48 8d 05 da 49 01 00 	lea    0x149da(%rip),%rax        # 233c0 <g_103>
    e9e6:	48 89 85 38 fa ff ff 	mov    %rax,-0x5c8(%rbp)
    e9ed:	48 8d 85 90 e2 ff ff 	lea    -0x1d70(%rbp),%rax
    e9f4:	48 89 85 40 fa ff ff 	mov    %rax,-0x5c0(%rbp)
    e9fb:	48 8d 85 18 e2 ff ff 	lea    -0x1de8(%rbp),%rax
    ea02:	48 89 85 48 fa ff ff 	mov    %rax,-0x5b8(%rbp)
    ea09:	48 c7 85 50 fa ff ff 	movq   $0x0,-0x5b0(%rbp)
    ea10:	00 00 00 00 
    ea14:	48 8d 85 18 e2 ff ff 	lea    -0x1de8(%rbp),%rax
    ea1b:	48 89 85 58 fa ff ff 	mov    %rax,-0x5a8(%rbp)
    ea22:	48 8d 05 97 49 01 00 	lea    0x14997(%rip),%rax        # 233c0 <g_103>
    ea29:	48 89 85 60 fa ff ff 	mov    %rax,-0x5a0(%rbp)
    ea30:	48 8d 05 89 49 01 00 	lea    0x14989(%rip),%rax        # 233c0 <g_103>
    ea37:	48 89 85 68 fa ff ff 	mov    %rax,-0x598(%rbp)
    ea3e:	48 8d 05 9b 49 01 00 	lea    0x1499b(%rip),%rax        # 233e0 <g_201>
    ea45:	48 89 85 70 fa ff ff 	mov    %rax,-0x590(%rbp)
    ea4c:	48 8d 05 8d 49 01 00 	lea    0x1498d(%rip),%rax        # 233e0 <g_201>
    ea53:	48 89 85 78 fa ff ff 	mov    %rax,-0x588(%rbp)
    ea5a:	48 8d 05 7f 49 01 00 	lea    0x1497f(%rip),%rax        # 233e0 <g_201>
    ea61:	48 89 85 80 fa ff ff 	mov    %rax,-0x580(%rbp)
    ea68:	48 8d 05 71 49 01 00 	lea    0x14971(%rip),%rax        # 233e0 <g_201>
    ea6f:	48 89 85 88 fa ff ff 	mov    %rax,-0x578(%rbp)
    ea76:	48 8d 85 90 e2 ff ff 	lea    -0x1d70(%rbp),%rax
    ea7d:	48 89 85 90 fa ff ff 	mov    %rax,-0x570(%rbp)
    ea84:	48 8d 85 90 e2 ff ff 	lea    -0x1d70(%rbp),%rax
    ea8b:	48 89 85 98 fa ff ff 	mov    %rax,-0x568(%rbp)
    ea92:	48 8d 05 47 49 01 00 	lea    0x14947(%rip),%rax        # 233e0 <g_201>
    ea99:	48 89 85 a0 fa ff ff 	mov    %rax,-0x560(%rbp)
    eaa0:	48 8d 05 19 49 01 00 	lea    0x14919(%rip),%rax        # 233c0 <g_103>
    eaa7:	48 89 85 a8 fa ff ff 	mov    %rax,-0x558(%rbp)
    eaae:	48 8d 85 90 e2 ff ff 	lea    -0x1d70(%rbp),%rax
    eab5:	48 89 85 b0 fa ff ff 	mov    %rax,-0x550(%rbp)
    eabc:	48 c7 85 b8 fa ff ff 	movq   $0x0,-0x548(%rbp)
    eac3:	00 00 00 00 
    eac7:	48 c7 85 c0 fa ff ff 	movq   $0x0,-0x540(%rbp)
    eace:	00 00 00 00 
    ead2:	48 c7 85 c8 fa ff ff 	movq   $0x0,-0x538(%rbp)
    ead9:	00 00 00 00 
    eadd:	48 8d 05 fc 48 01 00 	lea    0x148fc(%rip),%rax        # 233e0 <g_201>
    eae4:	48 89 85 d0 fa ff ff 	mov    %rax,-0x530(%rbp)
    eaeb:	48 8d 05 ee 48 01 00 	lea    0x148ee(%rip),%rax        # 233e0 <g_201>
    eaf2:	48 89 85 d8 fa ff ff 	mov    %rax,-0x528(%rbp)
    eaf9:	48 8d 05 e0 48 01 00 	lea    0x148e0(%rip),%rax        # 233e0 <g_201>
    eb00:	48 89 85 e0 fa ff ff 	mov    %rax,-0x520(%rbp)
    eb07:	48 c7 85 e8 fa ff ff 	movq   $0x0,-0x518(%rbp)
    eb0e:	00 00 00 00 
    eb12:	48 8d 85 18 e2 ff ff 	lea    -0x1de8(%rbp),%rax
    eb19:	48 89 85 f0 fa ff ff 	mov    %rax,-0x510(%rbp)
    eb20:	48 8d 05 99 48 01 00 	lea    0x14899(%rip),%rax        # 233c0 <g_103>
    eb27:	48 89 85 f8 fa ff ff 	mov    %rax,-0x508(%rbp)
    eb2e:	48 8d 85 90 e2 ff ff 	lea    -0x1d70(%rbp),%rax
    eb35:	48 89 85 00 fb ff ff 	mov    %rax,-0x500(%rbp)
    eb3c:	48 8d 85 18 e2 ff ff 	lea    -0x1de8(%rbp),%rax
    eb43:	48 89 85 08 fb ff ff 	mov    %rax,-0x4f8(%rbp)
    eb4a:	48 8d 85 90 e2 ff ff 	lea    -0x1d70(%rbp),%rax
    eb51:	48 89 85 10 fb ff ff 	mov    %rax,-0x4f0(%rbp)
    eb58:	48 8d 05 61 48 01 00 	lea    0x14861(%rip),%rax        # 233c0 <g_103>
    eb5f:	48 89 85 18 fb ff ff 	mov    %rax,-0x4e8(%rbp)
    eb66:	48 8d 05 73 48 01 00 	lea    0x14873(%rip),%rax        # 233e0 <g_201>
    eb6d:	48 89 85 20 fb ff ff 	mov    %rax,-0x4e0(%rbp)
    eb74:	48 8d 05 45 48 01 00 	lea    0x14845(%rip),%rax        # 233c0 <g_103>
    eb7b:	48 89 85 28 fb ff ff 	mov    %rax,-0x4d8(%rbp)
    eb82:	48 8d 85 90 e2 ff ff 	lea    -0x1d70(%rbp),%rax
    eb89:	48 89 85 30 fb ff ff 	mov    %rax,-0x4d0(%rbp)
    eb90:	48 8d 05 29 48 01 00 	lea    0x14829(%rip),%rax        # 233c0 <g_103>
    eb97:	48 89 85 38 fb ff ff 	mov    %rax,-0x4c8(%rbp)
    eb9e:	48 8d 85 18 e2 ff ff 	lea    -0x1de8(%rbp),%rax
    eba5:	48 89 85 40 fb ff ff 	mov    %rax,-0x4c0(%rbp)
    ebac:	48 8d 85 18 e2 ff ff 	lea    -0x1de8(%rbp),%rax
    ebb3:	48 89 85 48 fb ff ff 	mov    %rax,-0x4b8(%rbp)
    ebba:	48 8d 05 1f 48 01 00 	lea    0x1481f(%rip),%rax        # 233e0 <g_201>
    ebc1:	48 89 85 50 fb ff ff 	mov    %rax,-0x4b0(%rbp)
    ebc8:	48 8d 05 11 48 01 00 	lea    0x14811(%rip),%rax        # 233e0 <g_201>
    ebcf:	48 89 85 58 fb ff ff 	mov    %rax,-0x4a8(%rbp)
    ebd6:	48 8d 85 18 e2 ff ff 	lea    -0x1de8(%rbp),%rax
    ebdd:	48 89 85 60 fb ff ff 	mov    %rax,-0x4a0(%rbp)
    ebe4:	48 8d 05 d5 47 01 00 	lea    0x147d5(%rip),%rax        # 233c0 <g_103>
    ebeb:	48 89 85 68 fb ff ff 	mov    %rax,-0x498(%rbp)
    ebf2:	48 8d 85 90 e2 ff ff 	lea    -0x1d70(%rbp),%rax
    ebf9:	48 89 85 70 fb ff ff 	mov    %rax,-0x490(%rbp)
    ec00:	48 8d 05 b9 47 01 00 	lea    0x147b9(%rip),%rax        # 233c0 <g_103>
    ec07:	48 89 85 78 fb ff ff 	mov    %rax,-0x488(%rbp)
    ec0e:	48 8d 05 ab 47 01 00 	lea    0x147ab(%rip),%rax        # 233c0 <g_103>
    ec15:	48 89 85 80 fb ff ff 	mov    %rax,-0x480(%rbp)
    ec1c:	48 8d 05 9d 47 01 00 	lea    0x1479d(%rip),%rax        # 233c0 <g_103>
    ec23:	48 89 85 88 fb ff ff 	mov    %rax,-0x478(%rbp)
    ec2a:	48 8d 05 8f 47 01 00 	lea    0x1478f(%rip),%rax        # 233c0 <g_103>
    ec31:	48 89 85 90 fb ff ff 	mov    %rax,-0x470(%rbp)
    ec38:	48 8d 85 90 e2 ff ff 	lea    -0x1d70(%rbp),%rax
    ec3f:	48 89 85 98 fb ff ff 	mov    %rax,-0x468(%rbp)
    ec46:	48 8d 05 93 47 01 00 	lea    0x14793(%rip),%rax        # 233e0 <g_201>
    ec4d:	48 89 85 a0 fb ff ff 	mov    %rax,-0x460(%rbp)
    ec54:	48 c7 85 a8 fb ff ff 	movq   $0x0,-0x458(%rbp)
    ec5b:	00 00 00 00 
    ec5f:	48 8d 05 5a 47 01 00 	lea    0x1475a(%rip),%rax        # 233c0 <g_103>
    ec66:	48 89 85 b0 fb ff ff 	mov    %rax,-0x450(%rbp)
    ec6d:	48 8d 85 18 e2 ff ff 	lea    -0x1de8(%rbp),%rax
    ec74:	48 89 85 b8 fb ff ff 	mov    %rax,-0x448(%rbp)
    ec7b:	48 c7 85 c0 fb ff ff 	movq   $0x0,-0x440(%rbp)
    ec82:	00 00 00 00 
    ec86:	48 8d 05 53 47 01 00 	lea    0x14753(%rip),%rax        # 233e0 <g_201>
    ec8d:	48 89 85 c8 fb ff ff 	mov    %rax,-0x438(%rbp)
    ec94:	48 8d 05 25 47 01 00 	lea    0x14725(%rip),%rax        # 233c0 <g_103>
    ec9b:	48 89 85 d0 fb ff ff 	mov    %rax,-0x430(%rbp)
    eca2:	48 8d 85 90 e2 ff ff 	lea    -0x1d70(%rbp),%rax
    eca9:	48 89 85 d8 fb ff ff 	mov    %rax,-0x428(%rbp)
    ecb0:	48 8d 85 90 e2 ff ff 	lea    -0x1d70(%rbp),%rax
    ecb7:	48 89 85 e0 fb ff ff 	mov    %rax,-0x420(%rbp)
    ecbe:	48 c7 85 e8 fb ff ff 	movq   $0x0,-0x418(%rbp)
    ecc5:	00 00 00 00 
    ecc9:	48 8d 85 90 e2 ff ff 	lea    -0x1d70(%rbp),%rax
    ecd0:	48 89 85 f0 fb ff ff 	mov    %rax,-0x410(%rbp)
    ecd7:	48 c7 85 f8 fb ff ff 	movq   $0x0,-0x408(%rbp)
    ecde:	00 00 00 00 
    ece2:	48 8d 05 f7 46 01 00 	lea    0x146f7(%rip),%rax        # 233e0 <g_201>
    ece9:	48 89 85 00 fc ff ff 	mov    %rax,-0x400(%rbp)
    ecf0:	48 8d 05 e9 46 01 00 	lea    0x146e9(%rip),%rax        # 233e0 <g_201>
    ecf7:	48 89 85 08 fc ff ff 	mov    %rax,-0x3f8(%rbp)
    ecfe:	48 8d 85 90 e2 ff ff 	lea    -0x1d70(%rbp),%rax
    ed05:	48 89 85 10 fc ff ff 	mov    %rax,-0x3f0(%rbp)
    ed0c:	48 8d 85 18 e2 ff ff 	lea    -0x1de8(%rbp),%rax
    ed13:	48 89 85 18 fc ff ff 	mov    %rax,-0x3e8(%rbp)
    ed1a:	48 8d 05 9f 46 01 00 	lea    0x1469f(%rip),%rax        # 233c0 <g_103>
    ed21:	48 89 85 20 fc ff ff 	mov    %rax,-0x3e0(%rbp)
    ed28:	48 c7 85 28 fc ff ff 	movq   $0x0,-0x3d8(%rbp)
    ed2f:	00 00 00 00 
    ed33:	48 8d 85 18 e2 ff ff 	lea    -0x1de8(%rbp),%rax
    ed3a:	48 89 85 30 fc ff ff 	mov    %rax,-0x3d0(%rbp)
    ed41:	48 c7 85 38 fc ff ff 	movq   $0x0,-0x3c8(%rbp)
    ed48:	00 00 00 00 
    ed4c:	48 8d 05 6d 46 01 00 	lea    0x1466d(%rip),%rax        # 233c0 <g_103>
    ed53:	48 89 85 40 fc ff ff 	mov    %rax,-0x3c0(%rbp)
    ed5a:	48 8d 85 18 e2 ff ff 	lea    -0x1de8(%rbp),%rax
    ed61:	48 89 85 48 fc ff ff 	mov    %rax,-0x3b8(%rbp)
    ed68:	48 8d 05 51 46 01 00 	lea    0x14651(%rip),%rax        # 233c0 <g_103>
    ed6f:	48 89 85 50 fc ff ff 	mov    %rax,-0x3b0(%rbp)
    ed76:	48 8d 05 43 46 01 00 	lea    0x14643(%rip),%rax        # 233c0 <g_103>
    ed7d:	48 89 85 58 fc ff ff 	mov    %rax,-0x3a8(%rbp)
    ed84:	48 8d 85 90 e2 ff ff 	lea    -0x1d70(%rbp),%rax
    ed8b:	48 89 85 60 fc ff ff 	mov    %rax,-0x3a0(%rbp)
    ed92:	48 8d 05 47 46 01 00 	lea    0x14647(%rip),%rax        # 233e0 <g_201>
    ed99:	48 89 85 68 fc ff ff 	mov    %rax,-0x398(%rbp)
    eda0:	48 8d 85 90 e2 ff ff 	lea    -0x1d70(%rbp),%rax
    eda7:	48 89 85 70 fc ff ff 	mov    %rax,-0x390(%rbp)
    edae:	48 8d 05 2b 46 01 00 	lea    0x1462b(%rip),%rax        # 233e0 <g_201>
    edb5:	48 89 85 78 fc ff ff 	mov    %rax,-0x388(%rbp)
    edbc:	48 8d 85 90 e2 ff ff 	lea    -0x1d70(%rbp),%rax
    edc3:	48 89 85 80 fc ff ff 	mov    %rax,-0x380(%rbp)
    edca:	48 8d 85 18 e2 ff ff 	lea    -0x1de8(%rbp),%rax
    edd1:	48 89 85 88 fc ff ff 	mov    %rax,-0x378(%rbp)
    edd8:	48 8d 85 18 e2 ff ff 	lea    -0x1de8(%rbp),%rax
    eddf:	48 89 85 90 fc ff ff 	mov    %rax,-0x370(%rbp)
    ede6:	48 8d 05 d3 45 01 00 	lea    0x145d3(%rip),%rax        # 233c0 <g_103>
    eded:	48 89 85 98 fc ff ff 	mov    %rax,-0x368(%rbp)
    edf4:	48 8d 05 c5 45 01 00 	lea    0x145c5(%rip),%rax        # 233c0 <g_103>
    edfb:	48 89 85 a0 fc ff ff 	mov    %rax,-0x360(%rbp)
    ee02:	48 8d 05 d7 45 01 00 	lea    0x145d7(%rip),%rax        # 233e0 <g_201>
    ee09:	48 89 85 a8 fc ff ff 	mov    %rax,-0x358(%rbp)
    ee10:	48 8d 05 a9 45 01 00 	lea    0x145a9(%rip),%rax        # 233c0 <g_103>
    ee17:	48 89 85 b0 fc ff ff 	mov    %rax,-0x350(%rbp)
    ee1e:	48 8d 05 9b 45 01 00 	lea    0x1459b(%rip),%rax        # 233c0 <g_103>
    ee25:	48 89 85 b8 fc ff ff 	mov    %rax,-0x348(%rbp)
    ee2c:	48 8d 85 90 e2 ff ff 	lea    -0x1d70(%rbp),%rax
    ee33:	48 89 85 c0 fc ff ff 	mov    %rax,-0x340(%rbp)
    ee3a:	48 8d 85 18 e2 ff ff 	lea    -0x1de8(%rbp),%rax
    ee41:	48 89 85 c8 fc ff ff 	mov    %rax,-0x338(%rbp)
    ee48:	48 8d 85 90 e2 ff ff 	lea    -0x1d70(%rbp),%rax
    ee4f:	48 89 85 d0 fc ff ff 	mov    %rax,-0x330(%rbp)
    ee56:	48 8d 85 90 e2 ff ff 	lea    -0x1d70(%rbp),%rax
    ee5d:	48 89 85 d8 fc ff ff 	mov    %rax,-0x328(%rbp)
    ee64:	48 8d 85 90 e2 ff ff 	lea    -0x1d70(%rbp),%rax
    ee6b:	48 89 85 e0 fc ff ff 	mov    %rax,-0x320(%rbp)
    ee72:	48 8d 85 90 e2 ff ff 	lea    -0x1d70(%rbp),%rax
    ee79:	48 89 85 e8 fc ff ff 	mov    %rax,-0x318(%rbp)
    ee80:	48 8d 85 18 e2 ff ff 	lea    -0x1de8(%rbp),%rax
    ee87:	48 89 85 f0 fc ff ff 	mov    %rax,-0x310(%rbp)
    ee8e:	48 8d 05 4b 45 01 00 	lea    0x1454b(%rip),%rax        # 233e0 <g_201>
    ee95:	48 89 85 f8 fc ff ff 	mov    %rax,-0x308(%rbp)
    ee9c:	48 8d 05 3d 45 01 00 	lea    0x1453d(%rip),%rax        # 233e0 <g_201>
    eea3:	48 89 85 00 fd ff ff 	mov    %rax,-0x300(%rbp)
    eeaa:	48 c7 85 08 fd ff ff 	movq   $0x0,-0x2f8(%rbp)
    eeb1:	00 00 00 00 
    eeb5:	48 8d 85 18 e2 ff ff 	lea    -0x1de8(%rbp),%rax
    eebc:	48 89 85 10 fd ff ff 	mov    %rax,-0x2f0(%rbp)
    eec3:	48 8d 05 f6 44 01 00 	lea    0x144f6(%rip),%rax        # 233c0 <g_103>
    eeca:	48 89 85 18 fd ff ff 	mov    %rax,-0x2e8(%rbp)
    eed1:	48 8d 85 18 e2 ff ff 	lea    -0x1de8(%rbp),%rax
    eed8:	48 89 85 20 fd ff ff 	mov    %rax,-0x2e0(%rbp)
    eedf:	48 8d 05 da 44 01 00 	lea    0x144da(%rip),%rax        # 233c0 <g_103>
    eee6:	48 89 85 28 fd ff ff 	mov    %rax,-0x2d8(%rbp)
    eeed:	48 8d 05 ec 44 01 00 	lea    0x144ec(%rip),%rax        # 233e0 <g_201>
    eef4:	48 89 85 30 fd ff ff 	mov    %rax,-0x2d0(%rbp)
    eefb:	48 8d 85 90 e2 ff ff 	lea    -0x1d70(%rbp),%rax
    ef02:	48 89 85 38 fd ff ff 	mov    %rax,-0x2c8(%rbp)
    ef09:	48 8d 85 90 e2 ff ff 	lea    -0x1d70(%rbp),%rax
    ef10:	48 89 85 40 fd ff ff 	mov    %rax,-0x2c0(%rbp)
    ef17:	48 8d 85 90 e2 ff ff 	lea    -0x1d70(%rbp),%rax
    ef1e:	48 89 85 48 fd ff ff 	mov    %rax,-0x2b8(%rbp)
    ef25:	48 8d 05 b4 44 01 00 	lea    0x144b4(%rip),%rax        # 233e0 <g_201>
    ef2c:	48 89 85 50 fd ff ff 	mov    %rax,-0x2b0(%rbp)
    ef33:	48 8d 05 86 44 01 00 	lea    0x14486(%rip),%rax        # 233c0 <g_103>
    ef3a:	48 89 85 58 fd ff ff 	mov    %rax,-0x2a8(%rbp)
    ef41:	48 8d 85 90 e2 ff ff 	lea    -0x1d70(%rbp),%rax
    ef48:	48 89 85 60 fd ff ff 	mov    %rax,-0x2a0(%rbp)
    ef4f:	48 8d 05 6a 44 01 00 	lea    0x1446a(%rip),%rax        # 233c0 <g_103>
    ef56:	48 89 85 68 fd ff ff 	mov    %rax,-0x298(%rbp)
    ef5d:	48 8d 05 5c 44 01 00 	lea    0x1445c(%rip),%rax        # 233c0 <g_103>
    ef64:	48 89 85 70 fd ff ff 	mov    %rax,-0x290(%rbp)
    ef6b:	48 8d 85 18 e2 ff ff 	lea    -0x1de8(%rbp),%rax
    ef72:	48 89 85 78 fd ff ff 	mov    %rax,-0x288(%rbp)
    ef79:	48 8d 85 18 e2 ff ff 	lea    -0x1de8(%rbp),%rax
    ef80:	48 89 85 80 fd ff ff 	mov    %rax,-0x280(%rbp)
    ef87:	48 8d 85 90 e2 ff ff 	lea    -0x1d70(%rbp),%rax
    ef8e:	48 89 85 88 fd ff ff 	mov    %rax,-0x278(%rbp)
    ef95:	48 8d 85 18 e2 ff ff 	lea    -0x1de8(%rbp),%rax
    ef9c:	48 89 85 90 fd ff ff 	mov    %rax,-0x270(%rbp)
    efa3:	48 8d 85 18 e2 ff ff 	lea    -0x1de8(%rbp),%rax
    efaa:	48 89 85 98 fd ff ff 	mov    %rax,-0x268(%rbp)
    efb1:	48 8d 85 90 e2 ff ff 	lea    -0x1d70(%rbp),%rax
    efb8:	48 89 85 a0 fd ff ff 	mov    %rax,-0x260(%rbp)
    efbf:	48 8d 85 90 e2 ff ff 	lea    -0x1d70(%rbp),%rax
    efc6:	48 89 85 a8 fd ff ff 	mov    %rax,-0x258(%rbp)
    efcd:	48 8d 05 ec 43 01 00 	lea    0x143ec(%rip),%rax        # 233c0 <g_103>
    efd4:	48 89 85 b0 fd ff ff 	mov    %rax,-0x250(%rbp)
    efdb:	48 8d 85 90 e2 ff ff 	lea    -0x1d70(%rbp),%rax
    efe2:	48 89 85 b8 fd ff ff 	mov    %rax,-0x248(%rbp)
    efe9:	48 8d 85 18 e2 ff ff 	lea    -0x1de8(%rbp),%rax
    eff0:	48 89 85 c0 fd ff ff 	mov    %rax,-0x240(%rbp)
    eff7:	48 c7 85 c8 fd ff ff 	movq   $0x0,-0x238(%rbp)
    effe:	00 00 00 00 
    f002:	48 8d 85 90 e2 ff ff 	lea    -0x1d70(%rbp),%rax
    f009:	48 89 85 d0 fd ff ff 	mov    %rax,-0x230(%rbp)
    f010:	48 8d 05 a9 43 01 00 	lea    0x143a9(%rip),%rax        # 233c0 <g_103>
    f017:	48 89 85 d8 fd ff ff 	mov    %rax,-0x228(%rbp)
    f01e:	48 8d 85 18 e2 ff ff 	lea    -0x1de8(%rbp),%rax
    f025:	48 89 85 e0 fd ff ff 	mov    %rax,-0x220(%rbp)
    f02c:	48 8d 85 18 e2 ff ff 	lea    -0x1de8(%rbp),%rax
    f033:	48 89 85 e8 fd ff ff 	mov    %rax,-0x218(%rbp)
    f03a:	48 8d 05 7f 43 01 00 	lea    0x1437f(%rip),%rax        # 233c0 <g_103>
    f041:	48 89 85 f0 fd ff ff 	mov    %rax,-0x210(%rbp)
    f048:	48 8d 05 71 43 01 00 	lea    0x14371(%rip),%rax        # 233c0 <g_103>
    f04f:	48 89 85 f8 fd ff ff 	mov    %rax,-0x208(%rbp)
    f056:	48 8d 05 83 43 01 00 	lea    0x14383(%rip),%rax        # 233e0 <g_201>
    f05d:	48 89 85 00 fe ff ff 	mov    %rax,-0x200(%rbp)
    f064:	48 8d 85 90 e2 ff ff 	lea    -0x1d70(%rbp),%rax
    f06b:	48 89 85 08 fe ff ff 	mov    %rax,-0x1f8(%rbp)
    f072:	48 8d 05 67 43 01 00 	lea    0x14367(%rip),%rax        # 233e0 <g_201>
    f079:	48 89 85 10 fe ff ff 	mov    %rax,-0x1f0(%rbp)
    f080:	48 8d 05 39 43 01 00 	lea    0x14339(%rip),%rax        # 233c0 <g_103>
    f087:	48 89 85 18 fe ff ff 	mov    %rax,-0x1e8(%rbp)
    f08e:	48 8d 85 90 e2 ff ff 	lea    -0x1d70(%rbp),%rax
    f095:	48 89 85 20 fe ff ff 	mov    %rax,-0x1e0(%rbp)
    f09c:	48 8d 05 3d 43 01 00 	lea    0x1433d(%rip),%rax        # 233e0 <g_201>
    f0a3:	48 89 85 28 fe ff ff 	mov    %rax,-0x1d8(%rbp)
    f0aa:	48 8d 85 18 e2 ff ff 	lea    -0x1de8(%rbp),%rax
    f0b1:	48 89 85 30 fe ff ff 	mov    %rax,-0x1d0(%rbp)
    f0b8:	48 8d 85 18 e2 ff ff 	lea    -0x1de8(%rbp),%rax
    f0bf:	48 89 85 38 fe ff ff 	mov    %rax,-0x1c8(%rbp)
    f0c6:	48 8d 05 13 43 01 00 	lea    0x14313(%rip),%rax        # 233e0 <g_201>
    f0cd:	48 89 85 40 fe ff ff 	mov    %rax,-0x1c0(%rbp)
    f0d4:	48 8d 05 05 43 01 00 	lea    0x14305(%rip),%rax        # 233e0 <g_201>
    f0db:	48 89 85 48 fe ff ff 	mov    %rax,-0x1b8(%rbp)
    f0e2:	48 c7 85 50 fe ff ff 	movq   $0x0,-0x1b0(%rbp)
    f0e9:	00 00 00 00 
    f0ed:	48 8d 05 ec 42 01 00 	lea    0x142ec(%rip),%rax        # 233e0 <g_201>
    f0f4:	48 89 85 58 fe ff ff 	mov    %rax,-0x1a8(%rbp)
    f0fb:	48 8d 85 18 e2 ff ff 	lea    -0x1de8(%rbp),%rax
    f102:	48 89 85 60 fe ff ff 	mov    %rax,-0x1a0(%rbp)
    f109:	48 8d 85 90 e2 ff ff 	lea    -0x1d70(%rbp),%rax
    f110:	48 89 85 68 fe ff ff 	mov    %rax,-0x198(%rbp)
    f117:	48 c7 85 70 fe ff ff 	movq   $0x0,-0x190(%rbp)
    f11e:	00 00 00 00 
    f122:	48 8d 05 97 42 01 00 	lea    0x14297(%rip),%rax        # 233c0 <g_103>
    f129:	48 89 85 78 fe ff ff 	mov    %rax,-0x188(%rbp)
    f130:	48 8d 85 90 e2 ff ff 	lea    -0x1d70(%rbp),%rax
    f137:	48 89 85 80 fe ff ff 	mov    %rax,-0x180(%rbp)
    f13e:	48 8d 05 7b 42 01 00 	lea    0x1427b(%rip),%rax        # 233c0 <g_103>
    f145:	48 89 85 88 fe ff ff 	mov    %rax,-0x178(%rbp)
    f14c:	48 8d 85 90 e2 ff ff 	lea    -0x1d70(%rbp),%rax
    f153:	48 89 85 90 fe ff ff 	mov    %rax,-0x170(%rbp)
    f15a:	48 8d 85 90 e2 ff ff 	lea    -0x1d70(%rbp),%rax
    f161:	48 89 85 98 fe ff ff 	mov    %rax,-0x168(%rbp)
    f168:	48 8d 85 90 e2 ff ff 	lea    -0x1d70(%rbp),%rax
    f16f:	48 89 85 a0 fe ff ff 	mov    %rax,-0x160(%rbp)
    f176:	48 8d 85 90 e2 ff ff 	lea    -0x1d70(%rbp),%rax
    f17d:	48 89 85 a8 fe ff ff 	mov    %rax,-0x158(%rbp)
    f184:	48 c7 85 b0 fe ff ff 	movq   $0x0,-0x150(%rbp)
    f18b:	00 00 00 00 
    f18f:	48 8d 05 2a 42 01 00 	lea    0x1422a(%rip),%rax        # 233c0 <g_103>
    f196:	48 89 85 b8 fe ff ff 	mov    %rax,-0x148(%rbp)
    f19d:	48 8d 05 1c 42 01 00 	lea    0x1421c(%rip),%rax        # 233c0 <g_103>
    f1a4:	48 89 85 c0 fe ff ff 	mov    %rax,-0x140(%rbp)
    f1ab:	48 8d 05 2e 42 01 00 	lea    0x1422e(%rip),%rax        # 233e0 <g_201>
    f1b2:	48 89 85 c8 fe ff ff 	mov    %rax,-0x138(%rbp)
    f1b9:	48 8d 05 00 42 01 00 	lea    0x14200(%rip),%rax        # 233c0 <g_103>
    f1c0:	48 89 85 d0 fe ff ff 	mov    %rax,-0x130(%rbp)
    f1c7:	48 8d 05 f2 41 01 00 	lea    0x141f2(%rip),%rax        # 233c0 <g_103>
    f1ce:	48 89 85 d8 fe ff ff 	mov    %rax,-0x128(%rbp)
    f1d5:	48 8d 05 04 42 01 00 	lea    0x14204(%rip),%rax        # 233e0 <g_201>
    f1dc:	48 89 85 e0 fe ff ff 	mov    %rax,-0x120(%rbp)
    f1e3:	48 8d 05 d6 41 01 00 	lea    0x141d6(%rip),%rax        # 233c0 <g_103>
    f1ea:	48 89 85 e8 fe ff ff 	mov    %rax,-0x118(%rbp)
    f1f1:	66 c7 85 70 e0 ff ff 	movw   $0x0,-0x1f90(%rbp)
    f1f8:	00 00 
    f1fa:	66 c7 85 72 e0 ff ff 	movw   $0xabb3,-0x1f8e(%rbp)
    f201:	b3 ab 
    f203:	48 8d 05 fe 41 01 00 	lea    0x141fe(%rip),%rax        # 23408 <g_291>
    f20a:	48 89 85 30 e6 ff ff 	mov    %rax,-0x19d0(%rbp)
    f211:	48 8d 05 30 1e 01 00 	lea    0x11e30(%rip),%rax        # 21048 <g_98>
    f218:	48 89 85 a0 e2 ff ff 	mov    %rax,-0x1d60(%rbp)
    f21f:	48 8d 85 a0 e2 ff ff 	lea    -0x1d60(%rbp),%rax
    f226:	48 89 85 a8 e2 ff ff 	mov    %rax,-0x1d58(%rbp)
    f22d:	48 8d 85 a8 e2 ff ff 	lea    -0x1d58(%rbp),%rax
    f234:	48 89 85 10 e9 ff ff 	mov    %rax,-0x16f0(%rbp)
    f23b:	48 8d 85 a8 e2 ff ff 	lea    -0x1d58(%rbp),%rax
    f242:	48 89 85 18 e9 ff ff 	mov    %rax,-0x16e8(%rbp)
    f249:	48 8d 85 a8 e2 ff ff 	lea    -0x1d58(%rbp),%rax
    f250:	48 89 85 20 e9 ff ff 	mov    %rax,-0x16e0(%rbp)
    f257:	48 8d 85 a8 e2 ff ff 	lea    -0x1d58(%rbp),%rax
    f25e:	48 89 85 28 e9 ff ff 	mov    %rax,-0x16d8(%rbp)
    f265:	48 8d 85 a8 e2 ff ff 	lea    -0x1d58(%rbp),%rax
    f26c:	48 89 85 30 e9 ff ff 	mov    %rax,-0x16d0(%rbp)
    f273:	48 8d 85 a8 e2 ff ff 	lea    -0x1d58(%rbp),%rax
    f27a:	48 89 85 38 e9 ff ff 	mov    %rax,-0x16c8(%rbp)
    f281:	48 8d 85 a8 e2 ff ff 	lea    -0x1d58(%rbp),%rax
    f288:	48 89 85 40 e9 ff ff 	mov    %rax,-0x16c0(%rbp)
    f28f:	48 8d 85 a8 e2 ff ff 	lea    -0x1d58(%rbp),%rax
    f296:	48 89 85 48 e9 ff ff 	mov    %rax,-0x16b8(%rbp)
    f29d:	48 8d 85 a8 e2 ff ff 	lea    -0x1d58(%rbp),%rax
    f2a4:	48 89 85 50 e9 ff ff 	mov    %rax,-0x16b0(%rbp)
    f2ab:	48 8d 85 a8 e2 ff ff 	lea    -0x1d58(%rbp),%rax
    f2b2:	48 89 85 58 e9 ff ff 	mov    %rax,-0x16a8(%rbp)
    f2b9:	48 b8 97 47 95 e9 a7 	movabs $0xf93673a7e9954797,%rax
    f2c0:	73 36 f9 
    f2c3:	48 89 85 38 e6 ff ff 	mov    %rax,-0x19c8(%rbp)
    f2ca:	48 8d 85 30 f1 ff ff 	lea    -0xed0(%rbp),%rax
    f2d1:	48 8d 15 48 d4 00 00 	lea    0xd448(%rip),%rdx        # 1c720 <g_953+0x660>
    f2d8:	b9 d8 00 00 00       	mov    $0xd8,%ecx
    f2dd:	48 89 c7             	mov    %rax,%rdi
    f2e0:	48 89 d6             	mov    %rdx,%rsi
    f2e3:	f3 48 a5             	rep movsq %ds:(%rsi),%es:(%rdi)
    f2e6:	66 c7 85 74 e0 ff ff 	movw   $0xffff,-0x1f8c(%rbp)
    f2ed:	ff ff 
    f2ef:	48 8d 05 42 4f 01 00 	lea    0x14f42(%rip),%rax        # 24238 <g_1513>
    f2f6:	48 89 85 40 e6 ff ff 	mov    %rax,-0x19c0(%rbp)
    f2fd:	c7 85 10 e2 ff ff f0 	movl   $0xe6f9e8f0,-0x1df0(%rbp)
    f304:	e8 f9 e6 
    f307:	66 c7 85 76 e0 ff ff 	movw   $0xfff6,-0x1f8a(%rbp)
    f30e:	f6 ff 
    f310:	c7 85 14 e2 ff ff ff 	movl   $0xffffffff,-0x1dec(%rbp)
    f317:	ff ff ff 
    f31a:	c7 85 10 e1 ff ff 00 	movl   $0x0,-0x1ef0(%rbp)
    f321:	00 00 00 
    f324:	eb 14                	jmp    f33a <func_1+0x3b85>
    f326:	8b 85 10 e1 ff ff    	mov    -0x1ef0(%rbp),%eax
    f32c:	48 98                	cltq   
    f32e:	c6 44 05 d2 ff       	movb   $0xff,-0x2e(%rbp,%rax,1)
    f333:	83 85 10 e1 ff ff 01 	addl   $0x1,-0x1ef0(%rbp)
    f33a:	83 bd 10 e1 ff ff 04 	cmpl   $0x4,-0x1ef0(%rbp)
    f341:	7e e3                	jle    f326 <func_1+0x3b71>
    f343:	8b 85 80 e0 ff ff    	mov    -0x1f80(%rbp),%eax
    f349:	83 e8 01             	sub    $0x1,%eax
    f34c:	89 85 80 e0 ff ff    	mov    %eax,-0x1f80(%rbp)
    f352:	8b 85 80 e0 ff ff    	mov    -0x1f80(%rbp),%eax
    f358:	83 f8 f5             	cmp    $0xfffffff5,%eax
    f35b:	0f 8d 14 f2 ff ff    	jge    e575 <func_1+0x2dc0>
    f361:	48 8b 85 18 e2 ff ff 	mov    -0x1de8(%rbp),%rax
    f368:	8b 00                	mov    (%rax),%eax
    f36a:	85 c0                	test   %eax,%eax
    f36c:	0f 85 9d 00 00 00    	jne    f40f <func_1+0x3c5a>
    f372:	48 8b 05 e7 4e 01 00 	mov    0x14ee7(%rip),%rax        # 24260 <g_1642>
    f379:	48 8b 00             	mov    (%rax),%rax
    f37c:	48 8b 00             	mov    (%rax),%rax
    f37f:	48 8b 00             	mov    (%rax),%rax
    f382:	0f b6 00             	movzbl (%rax),%eax
    f385:	0f b6 d8             	movzbl %al,%ebx
    f388:	48 8b 85 40 e2 ff ff 	mov    -0x1dc0(%rbp),%rax
    f38f:	48 89 85 40 e2 ff ff 	mov    %rax,-0x1dc0(%rbp)
    f396:	bf 01 00 00 00       	mov    $0x1,%edi
    f39b:	e8 1f ae ff ff       	callq  a1bf <safe_unary_minus_func_int8_t_s>
    f3a0:	48 8b 05 e1 43 01 00 	mov    0x143e1(%rip),%rax        # 23788 <g_377>
    f3a7:	48 8b 00             	mov    (%rax),%rax
    f3aa:	48 8d 15 97 45 01 00 	lea    0x14597(%rip),%rdx        # 23948 <g_520+0x8>
    f3b1:	48 39 d0             	cmp    %rdx,%rax
    f3b4:	0f 95 c0             	setne  %al
    f3b7:	0f b6 c0             	movzbl %al,%eax
    f3ba:	89 de                	mov    %ebx,%esi
    f3bc:	89 c7                	mov    %eax,%edi
    f3be:	e8 eb b7 ff ff       	callq  abae <safe_mod_func_uint8_t_u_u>
    f3c3:	48 8b 85 18 e2 ff ff 	mov    -0x1de8(%rbp),%rax
    f3ca:	8b 00                	mov    (%rax),%eax
    f3cc:	48 98                	cltq   
    f3ce:	be 04 00 00 00       	mov    $0x4,%esi
    f3d3:	48 89 c7             	mov    %rax,%rdi
    f3d6:	e8 1c b6 ff ff       	callq  a9f7 <safe_div_func_int64_t_s_s>
    f3db:	48 89 c2             	mov    %rax,%rdx
    f3de:	48 8d 05 23 4e 01 00 	lea    0x14e23(%rip),%rax        # 24208 <g_1245>
    f3e5:	48 8b 00             	mov    (%rax),%rax
    f3e8:	48 8b 00             	mov    (%rax),%rax
    f3eb:	88 10                	mov    %dl,(%rax)
    f3ed:	0f b6 00             	movzbl (%rax),%eax
    f3f0:	0f be c0             	movsbl %al,%eax
    f3f3:	be 30 00 00 00       	mov    $0x30,%esi
    f3f8:	89 c7                	mov    %eax,%edi
    f3fa:	e8 32 ae ff ff       	callq  a231 <safe_mod_func_int8_t_s_s>
    f3ff:	89 c2                	mov    %eax,%edx
    f401:	48 8b 85 18 e2 ff ff 	mov    -0x1de8(%rbp),%rax
    f408:	0f be d2             	movsbl %dl,%edx
    f40b:	89 10                	mov    %edx,(%rax)
    f40d:	eb 01                	jmp    f410 <func_1+0x3c5b>
    f40f:	90                   	nop
    f410:	8b 05 16 1c 01 00    	mov    0x11c16(%rip),%eax        # 2102c <g_4>
    f416:	83 e8 01             	sub    $0x1,%eax
    f419:	89 05 0d 1c 01 00    	mov    %eax,0x11c0d(%rip)        # 2102c <g_4>
    f41f:	8b 05 07 1c 01 00    	mov    0x11c07(%rip),%eax        # 2102c <g_4>
    f425:	83 f8 e5             	cmp    $0xffffffe5,%eax
    f428:	0f 8c f8 ca ff ff    	jl     bf26 <func_1+0x771>
    f42e:	48 8b 85 18 e2 ff ff 	mov    -0x1de8(%rbp),%rax
    f435:	8b 00                	mov    (%rax),%eax
    f437:	85 c0                	test   %eax,%eax
    f439:	0f 84 1d 12 00 00    	je     1065c <func_1+0x4ea7>
    f43f:	c7 85 3c e1 ff ff e9 	movl   $0xeee5ebe9,-0x1ec4(%rbp)
    f446:	eb e5 ee 
    f449:	48 8d 85 98 e0 ff ff 	lea    -0x1f68(%rbp),%rax
    f450:	48 89 85 00 eb ff ff 	mov    %rax,-0x1500(%rbp)
    f457:	48 8d 85 98 e0 ff ff 	lea    -0x1f68(%rbp),%rax
    f45e:	48 89 85 08 eb ff ff 	mov    %rax,-0x14f8(%rbp)
    f465:	48 8d 85 98 e0 ff ff 	lea    -0x1f68(%rbp),%rax
    f46c:	48 89 85 10 eb ff ff 	mov    %rax,-0x14f0(%rbp)
    f473:	48 8d 05 e6 1c 01 00 	lea    0x11ce6(%rip),%rax        # 21160 <g_622>
    f47a:	48 89 85 18 eb ff ff 	mov    %rax,-0x14e8(%rbp)
    f481:	48 8d 05 f0 1c 01 00 	lea    0x11cf0(%rip),%rax        # 21178 <g_1129>
    f488:	48 89 85 20 eb ff ff 	mov    %rax,-0x14e0(%rbp)
    f48f:	48 8d 05 ca 1c 01 00 	lea    0x11cca(%rip),%rax        # 21160 <g_622>
    f496:	48 89 85 28 eb ff ff 	mov    %rax,-0x14d8(%rbp)
    f49d:	48 8d 85 98 e0 ff ff 	lea    -0x1f68(%rbp),%rax
    f4a4:	48 89 85 30 eb ff ff 	mov    %rax,-0x14d0(%rbp)
    f4ab:	48 8d 85 98 e0 ff ff 	lea    -0x1f68(%rbp),%rax
    f4b2:	48 89 85 38 eb ff ff 	mov    %rax,-0x14c8(%rbp)
    f4b9:	48 8d 85 98 e0 ff ff 	lea    -0x1f68(%rbp),%rax
    f4c0:	48 89 85 40 eb ff ff 	mov    %rax,-0x14c0(%rbp)
    f4c7:	48 8d 05 92 1c 01 00 	lea    0x11c92(%rip),%rax        # 21160 <g_622>
    f4ce:	48 89 85 48 eb ff ff 	mov    %rax,-0x14b8(%rbp)
    f4d5:	48 8d 05 9c 1c 01 00 	lea    0x11c9c(%rip),%rax        # 21178 <g_1129>
    f4dc:	48 89 85 50 eb ff ff 	mov    %rax,-0x14b0(%rbp)
    f4e3:	48 8d 05 76 1c 01 00 	lea    0x11c76(%rip),%rax        # 21160 <g_622>
    f4ea:	48 89 85 58 eb ff ff 	mov    %rax,-0x14a8(%rbp)
    f4f1:	48 8d 85 98 e0 ff ff 	lea    -0x1f68(%rbp),%rax
    f4f8:	48 89 85 60 eb ff ff 	mov    %rax,-0x14a0(%rbp)
    f4ff:	48 8d 85 98 e0 ff ff 	lea    -0x1f68(%rbp),%rax
    f506:	48 89 85 68 eb ff ff 	mov    %rax,-0x1498(%rbp)
    f50d:	48 8d 85 98 e0 ff ff 	lea    -0x1f68(%rbp),%rax
    f514:	48 89 85 70 eb ff ff 	mov    %rax,-0x1490(%rbp)
    f51b:	48 8d 05 3e 1c 01 00 	lea    0x11c3e(%rip),%rax        # 21160 <g_622>
    f522:	48 89 85 78 eb ff ff 	mov    %rax,-0x1488(%rbp)
    f529:	48 8d 05 48 1c 01 00 	lea    0x11c48(%rip),%rax        # 21178 <g_1129>
    f530:	48 89 85 80 eb ff ff 	mov    %rax,-0x1480(%rbp)
    f537:	48 8d 05 22 1c 01 00 	lea    0x11c22(%rip),%rax        # 21160 <g_622>
    f53e:	48 89 85 88 eb ff ff 	mov    %rax,-0x1478(%rbp)
    f545:	48 8d 85 98 e0 ff ff 	lea    -0x1f68(%rbp),%rax
    f54c:	48 89 85 90 eb ff ff 	mov    %rax,-0x1470(%rbp)
    f553:	48 8d 85 98 e0 ff ff 	lea    -0x1f68(%rbp),%rax
    f55a:	48 89 85 98 eb ff ff 	mov    %rax,-0x1468(%rbp)
    f561:	48 8d 85 98 e0 ff ff 	lea    -0x1f68(%rbp),%rax
    f568:	48 89 85 a0 eb ff ff 	mov    %rax,-0x1460(%rbp)
    f56f:	48 8d 05 ea 1b 01 00 	lea    0x11bea(%rip),%rax        # 21160 <g_622>
    f576:	48 89 85 a8 eb ff ff 	mov    %rax,-0x1458(%rbp)
    f57d:	48 8d 05 f4 1b 01 00 	lea    0x11bf4(%rip),%rax        # 21178 <g_1129>
    f584:	48 89 85 b0 eb ff ff 	mov    %rax,-0x1450(%rbp)
    f58b:	48 8d 05 ce 1b 01 00 	lea    0x11bce(%rip),%rax        # 21160 <g_622>
    f592:	48 89 85 b8 eb ff ff 	mov    %rax,-0x1448(%rbp)
    f599:	48 8d 05 c0 61 01 00 	lea    0x161c0(%rip),%rax        # 25760 <g_423+0x20>
    f5a0:	48 89 85 d0 ed ff ff 	mov    %rax,-0x1230(%rbp)
    f5a7:	48 c7 85 d8 ed ff ff 	movq   $0x0,-0x1228(%rbp)
    f5ae:	00 00 00 00 
    f5b2:	48 8d 85 38 e2 ff ff 	lea    -0x1dc8(%rbp),%rax
    f5b9:	48 89 85 e0 ed ff ff 	mov    %rax,-0x1220(%rbp)
    f5c0:	48 8d 85 38 e2 ff ff 	lea    -0x1dc8(%rbp),%rax
    f5c7:	48 89 85 e8 ed ff ff 	mov    %rax,-0x1218(%rbp)
    f5ce:	48 8d 85 38 e2 ff ff 	lea    -0x1dc8(%rbp),%rax
    f5d5:	48 89 85 f0 ed ff ff 	mov    %rax,-0x1210(%rbp)
    f5dc:	48 8d 85 38 e2 ff ff 	lea    -0x1dc8(%rbp),%rax
    f5e3:	48 89 85 f8 ed ff ff 	mov    %rax,-0x1208(%rbp)
    f5ea:	48 c7 85 00 ee ff ff 	movq   $0x0,-0x1200(%rbp)
    f5f1:	00 00 00 00 
    f5f5:	48 8d 05 64 61 01 00 	lea    0x16164(%rip),%rax        # 25760 <g_423+0x20>
    f5fc:	48 89 85 08 ee ff ff 	mov    %rax,-0x11f8(%rbp)
    f603:	48 c7 85 10 ee ff ff 	movq   $0x0,-0x11f0(%rbp)
    f60a:	00 00 00 00 
    f60e:	48 8d 85 38 e2 ff ff 	lea    -0x1dc8(%rbp),%rax
    f615:	48 89 85 18 ee ff ff 	mov    %rax,-0x11e8(%rbp)
    f61c:	48 8d 85 38 e2 ff ff 	lea    -0x1dc8(%rbp),%rax
    f623:	48 89 85 20 ee ff ff 	mov    %rax,-0x11e0(%rbp)
    f62a:	48 8d 85 38 e2 ff ff 	lea    -0x1dc8(%rbp),%rax
    f631:	48 89 85 28 ee ff ff 	mov    %rax,-0x11d8(%rbp)
    f638:	48 8d 85 38 e2 ff ff 	lea    -0x1dc8(%rbp),%rax
    f63f:	48 89 85 30 ee ff ff 	mov    %rax,-0x11d0(%rbp)
    f646:	48 c7 85 38 ee ff ff 	movq   $0x0,-0x11c8(%rbp)
    f64d:	00 00 00 00 
    f651:	48 8d 05 08 61 01 00 	lea    0x16108(%rip),%rax        # 25760 <g_423+0x20>
    f658:	48 89 85 40 ee ff ff 	mov    %rax,-0x11c0(%rbp)
    f65f:	48 c7 85 48 ee ff ff 	movq   $0x0,-0x11b8(%rbp)
    f666:	00 00 00 00 
    f66a:	48 8d 85 38 e2 ff ff 	lea    -0x1dc8(%rbp),%rax
    f671:	48 89 85 50 ee ff ff 	mov    %rax,-0x11b0(%rbp)
    f678:	48 8d 85 38 e2 ff ff 	lea    -0x1dc8(%rbp),%rax
    f67f:	48 89 85 58 ee ff ff 	mov    %rax,-0x11a8(%rbp)
    f686:	48 8d 85 38 e2 ff ff 	lea    -0x1dc8(%rbp),%rax
    f68d:	48 89 85 60 ee ff ff 	mov    %rax,-0x11a0(%rbp)
    f694:	48 8d 85 38 e2 ff ff 	lea    -0x1dc8(%rbp),%rax
    f69b:	48 89 85 68 ee ff ff 	mov    %rax,-0x1198(%rbp)
    f6a2:	48 c7 85 70 ee ff ff 	movq   $0x0,-0x1190(%rbp)
    f6a9:	00 00 00 00 
    f6ad:	48 8d 05 ac 60 01 00 	lea    0x160ac(%rip),%rax        # 25760 <g_423+0x20>
    f6b4:	48 89 85 78 ee ff ff 	mov    %rax,-0x1188(%rbp)
    f6bb:	48 c7 85 80 ee ff ff 	movq   $0x0,-0x1180(%rbp)
    f6c2:	00 00 00 00 
    f6c6:	48 8d 85 38 e2 ff ff 	lea    -0x1dc8(%rbp),%rax
    f6cd:	48 89 85 88 ee ff ff 	mov    %rax,-0x1178(%rbp)
    f6d4:	48 8d 85 38 e2 ff ff 	lea    -0x1dc8(%rbp),%rax
    f6db:	48 89 85 90 ee ff ff 	mov    %rax,-0x1170(%rbp)
    f6e2:	48 8d 85 38 e2 ff ff 	lea    -0x1dc8(%rbp),%rax
    f6e9:	48 89 85 98 ee ff ff 	mov    %rax,-0x1168(%rbp)
    f6f0:	48 8d 85 38 e2 ff ff 	lea    -0x1dc8(%rbp),%rax
    f6f7:	48 89 85 a0 ee ff ff 	mov    %rax,-0x1160(%rbp)
    f6fe:	48 c7 85 a8 ee ff ff 	movq   $0x0,-0x1158(%rbp)
    f705:	00 00 00 00 
    f709:	48 8d 05 50 60 01 00 	lea    0x16050(%rip),%rax        # 25760 <g_423+0x20>
    f710:	48 89 85 b0 ee ff ff 	mov    %rax,-0x1150(%rbp)
    f717:	48 c7 85 b8 ee ff ff 	movq   $0x0,-0x1148(%rbp)
    f71e:	00 00 00 00 
    f722:	48 8d 85 38 e2 ff ff 	lea    -0x1dc8(%rbp),%rax
    f729:	48 89 85 c0 ee ff ff 	mov    %rax,-0x1140(%rbp)
    f730:	48 8d 85 38 e2 ff ff 	lea    -0x1dc8(%rbp),%rax
    f737:	48 89 85 c8 ee ff ff 	mov    %rax,-0x1138(%rbp)
    f73e:	48 8d 85 38 e2 ff ff 	lea    -0x1dc8(%rbp),%rax
    f745:	48 89 85 d0 ee ff ff 	mov    %rax,-0x1130(%rbp)
    f74c:	48 8d 85 38 e2 ff ff 	lea    -0x1dc8(%rbp),%rax
    f753:	48 89 85 d8 ee ff ff 	mov    %rax,-0x1128(%rbp)
    f75a:	48 c7 85 e0 ee ff ff 	movq   $0x0,-0x1120(%rbp)
    f761:	00 00 00 00 
    f765:	48 8d 05 f4 5f 01 00 	lea    0x15ff4(%rip),%rax        # 25760 <g_423+0x20>
    f76c:	48 89 85 e8 ee ff ff 	mov    %rax,-0x1118(%rbp)
    f773:	48 c7 85 f0 ee ff ff 	movq   $0x0,-0x1110(%rbp)
    f77a:	00 00 00 00 
    f77e:	48 8d 85 38 e2 ff ff 	lea    -0x1dc8(%rbp),%rax
    f785:	48 89 85 f8 ee ff ff 	mov    %rax,-0x1108(%rbp)
    f78c:	48 8d 85 38 e2 ff ff 	lea    -0x1dc8(%rbp),%rax
    f793:	48 89 85 00 ef ff ff 	mov    %rax,-0x1100(%rbp)
    f79a:	48 8d 85 38 e2 ff ff 	lea    -0x1dc8(%rbp),%rax
    f7a1:	48 89 85 08 ef ff ff 	mov    %rax,-0x10f8(%rbp)
    f7a8:	48 8d 85 d0 ed ff ff 	lea    -0x1230(%rbp),%rax
    f7af:	48 05 a8 00 00 00    	add    $0xa8,%rax
    f7b5:	48 89 85 30 e3 ff ff 	mov    %rax,-0x1cd0(%rbp)
    f7bc:	c7 85 40 e1 ff ff 91 	movl   $0x45ec0d91,-0x1ec0(%rbp)
    f7c3:	0d ec 45 
    f7c6:	c7 85 44 e1 ff ff 01 	movl   $0x1,-0x1ebc(%rbp)
    f7cd:	00 00 00 
    f7d0:	48 8d 05 39 5f 01 00 	lea    0x15f39(%rip),%rax        # 25710 <g_157>
    f7d7:	48 89 85 38 e3 ff ff 	mov    %rax,-0x1cc8(%rbp)
    f7de:	48 8d 05 13 3c 01 00 	lea    0x13c13(%rip),%rax        # 233f8 <g_288>
    f7e5:	48 89 85 88 e2 ff ff 	mov    %rax,-0x1d78(%rbp)
    f7ec:	48 8d 85 88 e2 ff ff 	lea    -0x1d78(%rbp),%rax
    f7f3:	48 89 85 90 e2 ff ff 	mov    %rax,-0x1d70(%rbp)
    f7fa:	48 8d 85 90 e2 ff ff 	lea    -0x1d70(%rbp),%rax
    f801:	48 89 85 40 e3 ff ff 	mov    %rax,-0x1cc0(%rbp)
    f808:	48 c7 85 98 e2 ff ff 	movq   $0x0,-0x1d68(%rbp)
    f80f:	00 00 00 00 
    f813:	48 8d 85 98 e2 ff ff 	lea    -0x1d68(%rbp),%rax
    f81a:	48 89 85 48 e3 ff ff 	mov    %rax,-0x1cb8(%rbp)
    f821:	48 8d 05 78 49 01 00 	lea    0x14978(%rip),%rax        # 241a0 <g_1149>
    f828:	48 89 85 50 e3 ff ff 	mov    %rax,-0x1cb0(%rbp)
    f82f:	c7 85 48 e1 ff ff 08 	movl   $0x8,-0x1eb8(%rbp)
    f836:	00 00 00 
    f839:	c6 85 3f e0 ff ff ff 	movb   $0xff,-0x1fc1(%rbp)
    f840:	48 c7 85 a0 e2 ff ff 	movq   $0x0,-0x1d60(%rbp)
    f847:	00 00 00 00 
    f84b:	48 c7 85 f0 f7 ff ff 	movq   $0x0,-0x810(%rbp)
    f852:	00 00 00 00 
    f856:	48 8d 85 a0 e2 ff ff 	lea    -0x1d60(%rbp),%rax
    f85d:	48 89 85 f8 f7 ff ff 	mov    %rax,-0x808(%rbp)
    f864:	48 c7 85 00 f8 ff ff 	movq   $0x0,-0x800(%rbp)
    f86b:	00 00 00 00 
    f86f:	48 8d 85 a0 e2 ff ff 	lea    -0x1d60(%rbp),%rax
    f876:	48 89 85 08 f8 ff ff 	mov    %rax,-0x7f8(%rbp)
    f87d:	48 8d 85 a0 e2 ff ff 	lea    -0x1d60(%rbp),%rax
    f884:	48 89 85 10 f8 ff ff 	mov    %rax,-0x7f0(%rbp)
    f88b:	48 8d 85 a0 e2 ff ff 	lea    -0x1d60(%rbp),%rax
    f892:	48 89 85 18 f8 ff ff 	mov    %rax,-0x7e8(%rbp)
    f899:	48 8d 85 a0 e2 ff ff 	lea    -0x1d60(%rbp),%rax
    f8a0:	48 89 85 20 f8 ff ff 	mov    %rax,-0x7e0(%rbp)
    f8a7:	48 8d 85 a0 e2 ff ff 	lea    -0x1d60(%rbp),%rax
    f8ae:	48 89 85 28 f8 ff ff 	mov    %rax,-0x7d8(%rbp)
    f8b5:	48 8d 85 a0 e2 ff ff 	lea    -0x1d60(%rbp),%rax
    f8bc:	48 89 85 30 f8 ff ff 	mov    %rax,-0x7d0(%rbp)
    f8c3:	48 8d 85 a0 e2 ff ff 	lea    -0x1d60(%rbp),%rax
    f8ca:	48 89 85 38 f8 ff ff 	mov    %rax,-0x7c8(%rbp)
    f8d1:	48 8d 85 a0 e2 ff ff 	lea    -0x1d60(%rbp),%rax
    f8d8:	48 89 85 40 f8 ff ff 	mov    %rax,-0x7c0(%rbp)
    f8df:	48 8d 85 a0 e2 ff ff 	lea    -0x1d60(%rbp),%rax
    f8e6:	48 89 85 48 f8 ff ff 	mov    %rax,-0x7b8(%rbp)
    f8ed:	48 c7 85 50 f8 ff ff 	movq   $0x0,-0x7b0(%rbp)
    f8f4:	00 00 00 00 
    f8f8:	48 8d 85 a0 e2 ff ff 	lea    -0x1d60(%rbp),%rax
    f8ff:	48 89 85 58 f8 ff ff 	mov    %rax,-0x7a8(%rbp)
    f906:	48 8d 85 a0 e2 ff ff 	lea    -0x1d60(%rbp),%rax
    f90d:	48 89 85 60 f8 ff ff 	mov    %rax,-0x7a0(%rbp)
    f914:	48 8d 85 a0 e2 ff ff 	lea    -0x1d60(%rbp),%rax
    f91b:	48 89 85 68 f8 ff ff 	mov    %rax,-0x798(%rbp)
    f922:	48 c7 85 70 f8 ff ff 	movq   $0x0,-0x790(%rbp)
    f929:	00 00 00 00 
    f92d:	48 8d 85 a0 e2 ff ff 	lea    -0x1d60(%rbp),%rax
    f934:	48 89 85 78 f8 ff ff 	mov    %rax,-0x788(%rbp)
    f93b:	48 8d 85 a0 e2 ff ff 	lea    -0x1d60(%rbp),%rax
    f942:	48 89 85 80 f8 ff ff 	mov    %rax,-0x780(%rbp)
    f949:	48 c7 85 88 f8 ff ff 	movq   $0x0,-0x778(%rbp)
    f950:	00 00 00 00 
    f954:	48 8d 85 a0 e2 ff ff 	lea    -0x1d60(%rbp),%rax
    f95b:	48 89 85 90 f8 ff ff 	mov    %rax,-0x770(%rbp)
    f962:	48 8d 85 a0 e2 ff ff 	lea    -0x1d60(%rbp),%rax
    f969:	48 89 85 98 f8 ff ff 	mov    %rax,-0x768(%rbp)
    f970:	48 8d 85 a0 e2 ff ff 	lea    -0x1d60(%rbp),%rax
    f977:	48 89 85 a0 f8 ff ff 	mov    %rax,-0x760(%rbp)
    f97e:	48 8d 85 a0 e2 ff ff 	lea    -0x1d60(%rbp),%rax
    f985:	48 89 85 a8 f8 ff ff 	mov    %rax,-0x758(%rbp)
    f98c:	48 c7 85 b0 f8 ff ff 	movq   $0x0,-0x750(%rbp)
    f993:	00 00 00 00 
    f997:	48 8d 85 a0 e2 ff ff 	lea    -0x1d60(%rbp),%rax
    f99e:	48 89 85 b8 f8 ff ff 	mov    %rax,-0x748(%rbp)
    f9a5:	48 8d 85 a0 e2 ff ff 	lea    -0x1d60(%rbp),%rax
    f9ac:	48 89 85 c0 f8 ff ff 	mov    %rax,-0x740(%rbp)
    f9b3:	48 8d 85 a0 e2 ff ff 	lea    -0x1d60(%rbp),%rax
    f9ba:	48 89 85 c8 f8 ff ff 	mov    %rax,-0x738(%rbp)
    f9c1:	48 8d 85 a0 e2 ff ff 	lea    -0x1d60(%rbp),%rax
    f9c8:	48 89 85 d0 f8 ff ff 	mov    %rax,-0x730(%rbp)
    f9cf:	48 8d 85 a0 e2 ff ff 	lea    -0x1d60(%rbp),%rax
    f9d6:	48 89 85 d8 f8 ff ff 	mov    %rax,-0x728(%rbp)
    f9dd:	48 8d 85 a0 e2 ff ff 	lea    -0x1d60(%rbp),%rax
    f9e4:	48 89 85 e0 f8 ff ff 	mov    %rax,-0x720(%rbp)
    f9eb:	48 8d 85 a0 e2 ff ff 	lea    -0x1d60(%rbp),%rax
    f9f2:	48 89 85 e8 f8 ff ff 	mov    %rax,-0x718(%rbp)
    f9f9:	48 8d 85 a0 e2 ff ff 	lea    -0x1d60(%rbp),%rax
    fa00:	48 89 85 f0 f8 ff ff 	mov    %rax,-0x710(%rbp)
    fa07:	48 8d 85 a0 e2 ff ff 	lea    -0x1d60(%rbp),%rax
    fa0e:	48 89 85 f8 f8 ff ff 	mov    %rax,-0x708(%rbp)
    fa15:	48 8d 85 a0 e2 ff ff 	lea    -0x1d60(%rbp),%rax
    fa1c:	48 89 85 00 f9 ff ff 	mov    %rax,-0x700(%rbp)
    fa23:	48 8d 85 a0 e2 ff ff 	lea    -0x1d60(%rbp),%rax
    fa2a:	48 89 85 08 f9 ff ff 	mov    %rax,-0x6f8(%rbp)
    fa31:	48 c7 85 10 f9 ff ff 	movq   $0x0,-0x6f0(%rbp)
    fa38:	00 00 00 00 
    fa3c:	48 c7 85 18 f9 ff ff 	movq   $0x0,-0x6e8(%rbp)
    fa43:	00 00 00 00 
    fa47:	48 c7 85 20 f9 ff ff 	movq   $0x0,-0x6e0(%rbp)
    fa4e:	00 00 00 00 
    fa52:	48 8d 85 a0 e2 ff ff 	lea    -0x1d60(%rbp),%rax
    fa59:	48 89 85 28 f9 ff ff 	mov    %rax,-0x6d8(%rbp)
    fa60:	48 c7 85 30 f9 ff ff 	movq   $0x0,-0x6d0(%rbp)
    fa67:	00 00 00 00 
    fa6b:	48 c7 85 38 f9 ff ff 	movq   $0x0,-0x6c8(%rbp)
    fa72:	00 00 00 00 
    fa76:	48 8d 85 a0 e2 ff ff 	lea    -0x1d60(%rbp),%rax
    fa7d:	48 89 85 40 f9 ff ff 	mov    %rax,-0x6c0(%rbp)
    fa84:	48 8d 85 a0 e2 ff ff 	lea    -0x1d60(%rbp),%rax
    fa8b:	48 89 85 48 f9 ff ff 	mov    %rax,-0x6b8(%rbp)
    fa92:	48 c7 85 50 f9 ff ff 	movq   $0x0,-0x6b0(%rbp)
    fa99:	00 00 00 00 
    fa9d:	48 8d 85 a0 e2 ff ff 	lea    -0x1d60(%rbp),%rax
    faa4:	48 89 85 58 f9 ff ff 	mov    %rax,-0x6a8(%rbp)
    faab:	48 8d 85 a0 e2 ff ff 	lea    -0x1d60(%rbp),%rax
    fab2:	48 89 85 60 f9 ff ff 	mov    %rax,-0x6a0(%rbp)
    fab9:	48 8d 85 a0 e2 ff ff 	lea    -0x1d60(%rbp),%rax
    fac0:	48 89 85 68 f9 ff ff 	mov    %rax,-0x698(%rbp)
    fac7:	48 c7 85 70 f9 ff ff 	movq   $0x0,-0x690(%rbp)
    face:	00 00 00 00 
    fad2:	48 8d 85 a0 e2 ff ff 	lea    -0x1d60(%rbp),%rax
    fad9:	48 89 85 78 f9 ff ff 	mov    %rax,-0x688(%rbp)
    fae0:	48 c7 85 80 f9 ff ff 	movq   $0x0,-0x680(%rbp)
    fae7:	00 00 00 00 
    faeb:	48 8d 85 a0 e2 ff ff 	lea    -0x1d60(%rbp),%rax
    faf2:	48 89 85 88 f9 ff ff 	mov    %rax,-0x678(%rbp)
    faf9:	48 8d 85 a0 e2 ff ff 	lea    -0x1d60(%rbp),%rax
    fb00:	48 89 85 90 f9 ff ff 	mov    %rax,-0x670(%rbp)
    fb07:	48 c7 85 98 f9 ff ff 	movq   $0x0,-0x668(%rbp)
    fb0e:	00 00 00 00 
    fb12:	48 8d 85 a0 e2 ff ff 	lea    -0x1d60(%rbp),%rax
    fb19:	48 89 85 a0 f9 ff ff 	mov    %rax,-0x660(%rbp)
    fb20:	48 8d 85 a0 e2 ff ff 	lea    -0x1d60(%rbp),%rax
    fb27:	48 89 85 a8 f9 ff ff 	mov    %rax,-0x658(%rbp)
    fb2e:	48 8d 85 a0 e2 ff ff 	lea    -0x1d60(%rbp),%rax
    fb35:	48 89 85 b0 f9 ff ff 	mov    %rax,-0x650(%rbp)
    fb3c:	48 c7 85 b8 f9 ff ff 	movq   $0x0,-0x648(%rbp)
    fb43:	00 00 00 00 
    fb47:	48 8d 85 a0 e2 ff ff 	lea    -0x1d60(%rbp),%rax
    fb4e:	48 89 85 c0 f9 ff ff 	mov    %rax,-0x640(%rbp)
    fb55:	48 8d 85 a0 e2 ff ff 	lea    -0x1d60(%rbp),%rax
    fb5c:	48 89 85 c8 f9 ff ff 	mov    %rax,-0x638(%rbp)
    fb63:	48 8d 85 a0 e2 ff ff 	lea    -0x1d60(%rbp),%rax
    fb6a:	48 89 85 d0 f9 ff ff 	mov    %rax,-0x630(%rbp)
    fb71:	48 8d 85 a0 e2 ff ff 	lea    -0x1d60(%rbp),%rax
    fb78:	48 89 85 d8 f9 ff ff 	mov    %rax,-0x628(%rbp)
    fb7f:	48 8d 85 a0 e2 ff ff 	lea    -0x1d60(%rbp),%rax
    fb86:	48 89 85 e0 f9 ff ff 	mov    %rax,-0x620(%rbp)
    fb8d:	48 8d 85 a0 e2 ff ff 	lea    -0x1d60(%rbp),%rax
    fb94:	48 89 85 e8 f9 ff ff 	mov    %rax,-0x618(%rbp)
    fb9b:	48 8d 85 a0 e2 ff ff 	lea    -0x1d60(%rbp),%rax
    fba2:	48 89 85 f0 f9 ff ff 	mov    %rax,-0x610(%rbp)
    fba9:	48 8d 85 a0 e2 ff ff 	lea    -0x1d60(%rbp),%rax
    fbb0:	48 89 85 f8 f9 ff ff 	mov    %rax,-0x608(%rbp)
    fbb7:	48 8d 85 a0 e2 ff ff 	lea    -0x1d60(%rbp),%rax
    fbbe:	48 89 85 00 fa ff ff 	mov    %rax,-0x600(%rbp)
    fbc5:	48 8d 85 a0 e2 ff ff 	lea    -0x1d60(%rbp),%rax
    fbcc:	48 89 85 08 fa ff ff 	mov    %rax,-0x5f8(%rbp)
    fbd3:	48 8d 85 a0 e2 ff ff 	lea    -0x1d60(%rbp),%rax
    fbda:	48 89 85 10 fa ff ff 	mov    %rax,-0x5f0(%rbp)
    fbe1:	48 8d 85 a0 e2 ff ff 	lea    -0x1d60(%rbp),%rax
    fbe8:	48 89 85 18 fa ff ff 	mov    %rax,-0x5e8(%rbp)
    fbef:	48 8d 85 a0 e2 ff ff 	lea    -0x1d60(%rbp),%rax
    fbf6:	48 89 85 20 fa ff ff 	mov    %rax,-0x5e0(%rbp)
    fbfd:	48 c7 85 28 fa ff ff 	movq   $0x0,-0x5d8(%rbp)
    fc04:	00 00 00 00 
    fc08:	48 8d 85 a0 e2 ff ff 	lea    -0x1d60(%rbp),%rax
    fc0f:	48 89 85 30 fa ff ff 	mov    %rax,-0x5d0(%rbp)
    fc16:	48 8d 85 a0 e2 ff ff 	lea    -0x1d60(%rbp),%rax
    fc1d:	48 89 85 38 fa ff ff 	mov    %rax,-0x5c8(%rbp)
    fc24:	48 8d 85 a0 e2 ff ff 	lea    -0x1d60(%rbp),%rax
    fc2b:	48 89 85 40 fa ff ff 	mov    %rax,-0x5c0(%rbp)
    fc32:	48 c7 85 48 fa ff ff 	movq   $0x0,-0x5b8(%rbp)
    fc39:	00 00 00 00 
    fc3d:	48 8d 85 a0 e2 ff ff 	lea    -0x1d60(%rbp),%rax
    fc44:	48 89 85 50 fa ff ff 	mov    %rax,-0x5b0(%rbp)
    fc4b:	48 8d 85 a0 e2 ff ff 	lea    -0x1d60(%rbp),%rax
    fc52:	48 89 85 58 fa ff ff 	mov    %rax,-0x5a8(%rbp)
    fc59:	48 c7 85 60 fa ff ff 	movq   $0x0,-0x5a0(%rbp)
    fc60:	00 00 00 00 
    fc64:	48 8d 85 a0 e2 ff ff 	lea    -0x1d60(%rbp),%rax
    fc6b:	48 89 85 68 fa ff ff 	mov    %rax,-0x598(%rbp)
    fc72:	48 c7 85 70 fa ff ff 	movq   $0x0,-0x590(%rbp)
    fc79:	00 00 00 00 
    fc7d:	48 8d 85 a0 e2 ff ff 	lea    -0x1d60(%rbp),%rax
    fc84:	48 89 85 78 fa ff ff 	mov    %rax,-0x588(%rbp)
    fc8b:	48 8d 85 a0 e2 ff ff 	lea    -0x1d60(%rbp),%rax
    fc92:	48 89 85 80 fa ff ff 	mov    %rax,-0x580(%rbp)
    fc99:	48 8d 85 a0 e2 ff ff 	lea    -0x1d60(%rbp),%rax
    fca0:	48 89 85 88 fa ff ff 	mov    %rax,-0x578(%rbp)
    fca7:	48 8d 85 a0 e2 ff ff 	lea    -0x1d60(%rbp),%rax
    fcae:	48 89 85 90 fa ff ff 	mov    %rax,-0x570(%rbp)
    fcb5:	48 8d 85 a0 e2 ff ff 	lea    -0x1d60(%rbp),%rax
    fcbc:	48 89 85 98 fa ff ff 	mov    %rax,-0x568(%rbp)
    fcc3:	48 8d 85 a0 e2 ff ff 	lea    -0x1d60(%rbp),%rax
    fcca:	48 89 85 a0 fa ff ff 	mov    %rax,-0x560(%rbp)
    fcd1:	48 8d 85 a0 e2 ff ff 	lea    -0x1d60(%rbp),%rax
    fcd8:	48 89 85 a8 fa ff ff 	mov    %rax,-0x558(%rbp)
    fcdf:	48 8d 85 a0 e2 ff ff 	lea    -0x1d60(%rbp),%rax
    fce6:	48 89 85 b0 fa ff ff 	mov    %rax,-0x550(%rbp)
    fced:	48 8d 85 a0 e2 ff ff 	lea    -0x1d60(%rbp),%rax
    fcf4:	48 89 85 b8 fa ff ff 	mov    %rax,-0x548(%rbp)
    fcfb:	48 8d 85 a0 e2 ff ff 	lea    -0x1d60(%rbp),%rax
    fd02:	48 89 85 c0 fa ff ff 	mov    %rax,-0x540(%rbp)
    fd09:	48 8d 85 a0 e2 ff ff 	lea    -0x1d60(%rbp),%rax
    fd10:	48 89 85 c8 fa ff ff 	mov    %rax,-0x538(%rbp)
    fd17:	48 8d 85 a0 e2 ff ff 	lea    -0x1d60(%rbp),%rax
    fd1e:	48 89 85 d0 fa ff ff 	mov    %rax,-0x530(%rbp)
    fd25:	48 8d 85 a0 e2 ff ff 	lea    -0x1d60(%rbp),%rax
    fd2c:	48 89 85 d8 fa ff ff 	mov    %rax,-0x528(%rbp)
    fd33:	48 c7 85 e0 fa ff ff 	movq   $0x0,-0x520(%rbp)
    fd3a:	00 00 00 00 
    fd3e:	48 c7 85 e8 fa ff ff 	movq   $0x0,-0x518(%rbp)
    fd45:	00 00 00 00 
    fd49:	48 8d 85 a0 e2 ff ff 	lea    -0x1d60(%rbp),%rax
    fd50:	48 89 85 f0 fa ff ff 	mov    %rax,-0x510(%rbp)
    fd57:	48 8d 85 a0 e2 ff ff 	lea    -0x1d60(%rbp),%rax
    fd5e:	48 89 85 f8 fa ff ff 	mov    %rax,-0x508(%rbp)
    fd65:	48 8d 85 a0 e2 ff ff 	lea    -0x1d60(%rbp),%rax
    fd6c:	48 89 85 00 fb ff ff 	mov    %rax,-0x500(%rbp)
    fd73:	48 8d 85 a0 e2 ff ff 	lea    -0x1d60(%rbp),%rax
    fd7a:	48 89 85 08 fb ff ff 	mov    %rax,-0x4f8(%rbp)
    fd81:	48 c7 85 10 fb ff ff 	movq   $0x0,-0x4f0(%rbp)
    fd88:	00 00 00 00 
    fd8c:	48 c7 85 18 fb ff ff 	movq   $0x0,-0x4e8(%rbp)
    fd93:	00 00 00 00 
    fd97:	48 8d 85 a0 e2 ff ff 	lea    -0x1d60(%rbp),%rax
    fd9e:	48 89 85 20 fb ff ff 	mov    %rax,-0x4e0(%rbp)
    fda5:	48 8d 85 a0 e2 ff ff 	lea    -0x1d60(%rbp),%rax
    fdac:	48 89 85 28 fb ff ff 	mov    %rax,-0x4d8(%rbp)
    fdb3:	48 8d 85 a0 e2 ff ff 	lea    -0x1d60(%rbp),%rax
    fdba:	48 89 85 30 fb ff ff 	mov    %rax,-0x4d0(%rbp)
    fdc1:	48 8d 85 a0 e2 ff ff 	lea    -0x1d60(%rbp),%rax
    fdc8:	48 89 85 38 fb ff ff 	mov    %rax,-0x4c8(%rbp)
    fdcf:	48 8d 85 a0 e2 ff ff 	lea    -0x1d60(%rbp),%rax
    fdd6:	48 89 85 40 fb ff ff 	mov    %rax,-0x4c0(%rbp)
    fddd:	48 c7 85 48 fb ff ff 	movq   $0x0,-0x4b8(%rbp)
    fde4:	00 00 00 00 
    fde8:	48 8d 85 a0 e2 ff ff 	lea    -0x1d60(%rbp),%rax
    fdef:	48 89 85 50 fb ff ff 	mov    %rax,-0x4b0(%rbp)
    fdf6:	48 8d 85 a0 e2 ff ff 	lea    -0x1d60(%rbp),%rax
    fdfd:	48 89 85 58 fb ff ff 	mov    %rax,-0x4a8(%rbp)
    fe04:	48 8d 85 a0 e2 ff ff 	lea    -0x1d60(%rbp),%rax
    fe0b:	48 89 85 60 fb ff ff 	mov    %rax,-0x4a0(%rbp)
    fe12:	48 8d 85 a0 e2 ff ff 	lea    -0x1d60(%rbp),%rax
    fe19:	48 89 85 68 fb ff ff 	mov    %rax,-0x498(%rbp)
    fe20:	48 8d 85 a0 e2 ff ff 	lea    -0x1d60(%rbp),%rax
    fe27:	48 89 85 70 fb ff ff 	mov    %rax,-0x490(%rbp)
    fe2e:	48 8d 85 a0 e2 ff ff 	lea    -0x1d60(%rbp),%rax
    fe35:	48 89 85 78 fb ff ff 	mov    %rax,-0x488(%rbp)
    fe3c:	48 8d 85 a0 e2 ff ff 	lea    -0x1d60(%rbp),%rax
    fe43:	48 89 85 80 fb ff ff 	mov    %rax,-0x480(%rbp)
    fe4a:	48 c7 85 88 fb ff ff 	movq   $0x0,-0x478(%rbp)
    fe51:	00 00 00 00 
    fe55:	48 8d 85 a0 e2 ff ff 	lea    -0x1d60(%rbp),%rax
    fe5c:	48 89 85 90 fb ff ff 	mov    %rax,-0x470(%rbp)
    fe63:	48 c7 85 98 fb ff ff 	movq   $0x0,-0x468(%rbp)
    fe6a:	00 00 00 00 
    fe6e:	48 8d 85 a0 e2 ff ff 	lea    -0x1d60(%rbp),%rax
    fe75:	48 89 85 a0 fb ff ff 	mov    %rax,-0x460(%rbp)
    fe7c:	48 8d 85 a0 e2 ff ff 	lea    -0x1d60(%rbp),%rax
    fe83:	48 89 85 a8 fb ff ff 	mov    %rax,-0x458(%rbp)
    fe8a:	48 8d 85 a0 e2 ff ff 	lea    -0x1d60(%rbp),%rax
    fe91:	48 89 85 b0 fb ff ff 	mov    %rax,-0x450(%rbp)
    fe98:	48 8d 85 a0 e2 ff ff 	lea    -0x1d60(%rbp),%rax
    fe9f:	48 89 85 b8 fb ff ff 	mov    %rax,-0x448(%rbp)
    fea6:	48 c7 85 c0 fb ff ff 	movq   $0x0,-0x440(%rbp)
    fead:	00 00 00 00 
    feb1:	48 8d 85 a0 e2 ff ff 	lea    -0x1d60(%rbp),%rax
    feb8:	48 89 85 c8 fb ff ff 	mov    %rax,-0x438(%rbp)
    febf:	48 8d 85 a0 e2 ff ff 	lea    -0x1d60(%rbp),%rax
    fec6:	48 89 85 d0 fb ff ff 	mov    %rax,-0x430(%rbp)
    fecd:	48 8d 85 a0 e2 ff ff 	lea    -0x1d60(%rbp),%rax
    fed4:	48 89 85 d8 fb ff ff 	mov    %rax,-0x428(%rbp)
    fedb:	48 8d 85 a0 e2 ff ff 	lea    -0x1d60(%rbp),%rax
    fee2:	48 89 85 e0 fb ff ff 	mov    %rax,-0x420(%rbp)
    fee9:	48 c7 85 e8 fb ff ff 	movq   $0x0,-0x418(%rbp)
    fef0:	00 00 00 00 
    fef4:	48 8d 85 a0 e2 ff ff 	lea    -0x1d60(%rbp),%rax
    fefb:	48 89 85 f0 fb ff ff 	mov    %rax,-0x410(%rbp)
    ff02:	48 8d 85 a0 e2 ff ff 	lea    -0x1d60(%rbp),%rax
    ff09:	48 89 85 f8 fb ff ff 	mov    %rax,-0x408(%rbp)
    ff10:	48 c7 85 00 fc ff ff 	movq   $0x0,-0x400(%rbp)
    ff17:	00 00 00 00 
    ff1b:	48 8d 85 a0 e2 ff ff 	lea    -0x1d60(%rbp),%rax
    ff22:	48 89 85 08 fc ff ff 	mov    %rax,-0x3f8(%rbp)
    ff29:	48 8d 85 a0 e2 ff ff 	lea    -0x1d60(%rbp),%rax
    ff30:	48 89 85 10 fc ff ff 	mov    %rax,-0x3f0(%rbp)
    ff37:	48 8d 85 a0 e2 ff ff 	lea    -0x1d60(%rbp),%rax
    ff3e:	48 89 85 18 fc ff ff 	mov    %rax,-0x3e8(%rbp)
    ff45:	48 8d 85 a0 e2 ff ff 	lea    -0x1d60(%rbp),%rax
    ff4c:	48 89 85 20 fc ff ff 	mov    %rax,-0x3e0(%rbp)
    ff53:	48 8d 85 a0 e2 ff ff 	lea    -0x1d60(%rbp),%rax
    ff5a:	48 89 85 28 fc ff ff 	mov    %rax,-0x3d8(%rbp)
    ff61:	48 c7 85 30 fc ff ff 	movq   $0x0,-0x3d0(%rbp)
    ff68:	00 00 00 00 
    ff6c:	48 8d 85 a0 e2 ff ff 	lea    -0x1d60(%rbp),%rax
    ff73:	48 89 85 38 fc ff ff 	mov    %rax,-0x3c8(%rbp)
    ff7a:	48 8d 85 a0 e2 ff ff 	lea    -0x1d60(%rbp),%rax
    ff81:	48 89 85 40 fc ff ff 	mov    %rax,-0x3c0(%rbp)
    ff88:	48 8d 85 a0 e2 ff ff 	lea    -0x1d60(%rbp),%rax
    ff8f:	48 89 85 48 fc ff ff 	mov    %rax,-0x3b8(%rbp)
    ff96:	48 8d 85 a0 e2 ff ff 	lea    -0x1d60(%rbp),%rax
    ff9d:	48 89 85 50 fc ff ff 	mov    %rax,-0x3b0(%rbp)
    ffa4:	48 8d 85 a0 e2 ff ff 	lea    -0x1d60(%rbp),%rax
    ffab:	48 89 85 58 fc ff ff 	mov    %rax,-0x3a8(%rbp)
    ffb2:	48 8d 85 a0 e2 ff ff 	lea    -0x1d60(%rbp),%rax
    ffb9:	48 89 85 60 fc ff ff 	mov    %rax,-0x3a0(%rbp)
    ffc0:	48 8d 85 a0 e2 ff ff 	lea    -0x1d60(%rbp),%rax
    ffc7:	48 89 85 68 fc ff ff 	mov    %rax,-0x398(%rbp)
    ffce:	48 8d 85 a0 e2 ff ff 	lea    -0x1d60(%rbp),%rax
    ffd5:	48 89 85 70 fc ff ff 	mov    %rax,-0x390(%rbp)
    ffdc:	48 c7 85 78 fc ff ff 	movq   $0x0,-0x388(%rbp)
    ffe3:	00 00 00 00 
    ffe7:	48 8d 85 a0 e2 ff ff 	lea    -0x1d60(%rbp),%rax
    ffee:	48 89 85 80 fc ff ff 	mov    %rax,-0x380(%rbp)
    fff5:	48 8d 85 a0 e2 ff ff 	lea    -0x1d60(%rbp),%rax
    fffc:	48 89 85 88 fc ff ff 	mov    %rax,-0x378(%rbp)
   10003:	48 8d 85 a0 e2 ff ff 	lea    -0x1d60(%rbp),%rax
   1000a:	48 89 85 90 fc ff ff 	mov    %rax,-0x370(%rbp)
   10011:	48 8d 85 a0 e2 ff ff 	lea    -0x1d60(%rbp),%rax
   10018:	48 89 85 98 fc ff ff 	mov    %rax,-0x368(%rbp)
   1001f:	48 8d 85 a0 e2 ff ff 	lea    -0x1d60(%rbp),%rax
   10026:	48 89 85 a0 fc ff ff 	mov    %rax,-0x360(%rbp)
   1002d:	48 8d 85 a0 e2 ff ff 	lea    -0x1d60(%rbp),%rax
   10034:	48 89 85 a8 fc ff ff 	mov    %rax,-0x358(%rbp)
   1003b:	48 8d 85 a0 e2 ff ff 	lea    -0x1d60(%rbp),%rax
   10042:	48 89 85 b0 fc ff ff 	mov    %rax,-0x350(%rbp)
   10049:	48 8d 85 a0 e2 ff ff 	lea    -0x1d60(%rbp),%rax
   10050:	48 89 85 b8 fc ff ff 	mov    %rax,-0x348(%rbp)
   10057:	48 8d 85 a0 e2 ff ff 	lea    -0x1d60(%rbp),%rax
   1005e:	48 89 85 c0 fc ff ff 	mov    %rax,-0x340(%rbp)
   10065:	48 c7 85 c8 fc ff ff 	movq   $0x0,-0x338(%rbp)
   1006c:	00 00 00 00 
   10070:	48 8d 85 a0 e2 ff ff 	lea    -0x1d60(%rbp),%rax
   10077:	48 89 85 d0 fc ff ff 	mov    %rax,-0x330(%rbp)
   1007e:	48 8d 85 a0 e2 ff ff 	lea    -0x1d60(%rbp),%rax
   10085:	48 89 85 d8 fc ff ff 	mov    %rax,-0x328(%rbp)
   1008c:	48 8d 85 a0 e2 ff ff 	lea    -0x1d60(%rbp),%rax
   10093:	48 89 85 e0 fc ff ff 	mov    %rax,-0x320(%rbp)
   1009a:	48 c7 85 e8 fc ff ff 	movq   $0x0,-0x318(%rbp)
   100a1:	00 00 00 00 
   100a5:	48 8d 85 a0 e2 ff ff 	lea    -0x1d60(%rbp),%rax
   100ac:	48 89 85 f0 fc ff ff 	mov    %rax,-0x310(%rbp)
   100b3:	48 8d 85 a0 e2 ff ff 	lea    -0x1d60(%rbp),%rax
   100ba:	48 89 85 f8 fc ff ff 	mov    %rax,-0x308(%rbp)
   100c1:	48 8d 85 a0 e2 ff ff 	lea    -0x1d60(%rbp),%rax
   100c8:	48 89 85 00 fd ff ff 	mov    %rax,-0x300(%rbp)
   100cf:	48 8d 85 a0 e2 ff ff 	lea    -0x1d60(%rbp),%rax
   100d6:	48 89 85 08 fd ff ff 	mov    %rax,-0x2f8(%rbp)
   100dd:	48 8d 85 a0 e2 ff ff 	lea    -0x1d60(%rbp),%rax
   100e4:	48 89 85 10 fd ff ff 	mov    %rax,-0x2f0(%rbp)
   100eb:	48 c7 85 18 fd ff ff 	movq   $0x0,-0x2e8(%rbp)
   100f2:	00 00 00 00 
   100f6:	48 8d 85 a0 e2 ff ff 	lea    -0x1d60(%rbp),%rax
   100fd:	48 89 85 20 fd ff ff 	mov    %rax,-0x2e0(%rbp)
   10104:	48 c7 85 28 fd ff ff 	movq   $0x0,-0x2d8(%rbp)
   1010b:	00 00 00 00 
   1010f:	48 8d 85 a0 e2 ff ff 	lea    -0x1d60(%rbp),%rax
   10116:	48 89 85 30 fd ff ff 	mov    %rax,-0x2d0(%rbp)
   1011d:	48 8d 85 a0 e2 ff ff 	lea    -0x1d60(%rbp),%rax
   10124:	48 89 85 38 fd ff ff 	mov    %rax,-0x2c8(%rbp)
   1012b:	48 8d 85 a0 e2 ff ff 	lea    -0x1d60(%rbp),%rax
   10132:	48 89 85 40 fd ff ff 	mov    %rax,-0x2c0(%rbp)
   10139:	48 8d 85 a0 e2 ff ff 	lea    -0x1d60(%rbp),%rax
   10140:	48 89 85 48 fd ff ff 	mov    %rax,-0x2b8(%rbp)
   10147:	48 8d 85 a0 e2 ff ff 	lea    -0x1d60(%rbp),%rax
   1014e:	48 89 85 50 fd ff ff 	mov    %rax,-0x2b0(%rbp)
   10155:	48 8d 85 a0 e2 ff ff 	lea    -0x1d60(%rbp),%rax
   1015c:	48 89 85 58 fd ff ff 	mov    %rax,-0x2a8(%rbp)
   10163:	48 8d 85 a0 e2 ff ff 	lea    -0x1d60(%rbp),%rax
   1016a:	48 89 85 60 fd ff ff 	mov    %rax,-0x2a0(%rbp)
   10171:	48 c7 85 68 fd ff ff 	movq   $0x0,-0x298(%rbp)
   10178:	00 00 00 00 
   1017c:	48 8d 85 a0 e2 ff ff 	lea    -0x1d60(%rbp),%rax
   10183:	48 89 85 70 fd ff ff 	mov    %rax,-0x290(%rbp)
   1018a:	48 8d 85 a0 e2 ff ff 	lea    -0x1d60(%rbp),%rax
   10191:	48 89 85 78 fd ff ff 	mov    %rax,-0x288(%rbp)
   10198:	48 8d 85 a0 e2 ff ff 	lea    -0x1d60(%rbp),%rax
   1019f:	48 89 85 80 fd ff ff 	mov    %rax,-0x280(%rbp)
   101a6:	48 8d 85 a0 e2 ff ff 	lea    -0x1d60(%rbp),%rax
   101ad:	48 89 85 88 fd ff ff 	mov    %rax,-0x278(%rbp)
   101b4:	48 8d 85 a0 e2 ff ff 	lea    -0x1d60(%rbp),%rax
   101bb:	48 89 85 90 fd ff ff 	mov    %rax,-0x270(%rbp)
   101c2:	48 c7 85 98 fd ff ff 	movq   $0x0,-0x268(%rbp)
   101c9:	00 00 00 00 
   101cd:	48 c7 85 a0 fd ff ff 	movq   $0x0,-0x260(%rbp)
   101d4:	00 00 00 00 
   101d8:	48 8d 85 a0 e2 ff ff 	lea    -0x1d60(%rbp),%rax
   101df:	48 89 85 a8 fd ff ff 	mov    %rax,-0x258(%rbp)
   101e6:	48 8d 85 a0 e2 ff ff 	lea    -0x1d60(%rbp),%rax
   101ed:	48 89 85 b0 fd ff ff 	mov    %rax,-0x250(%rbp)
   101f4:	48 8d 85 a0 e2 ff ff 	lea    -0x1d60(%rbp),%rax
   101fb:	48 89 85 b8 fd ff ff 	mov    %rax,-0x248(%rbp)
   10202:	48 c7 85 c0 fd ff ff 	movq   $0x0,-0x240(%rbp)
   10209:	00 00 00 00 
   1020d:	48 c7 85 c8 fd ff ff 	movq   $0x0,-0x238(%rbp)
   10214:	00 00 00 00 
   10218:	48 8d 85 a0 e2 ff ff 	lea    -0x1d60(%rbp),%rax
   1021f:	48 89 85 d0 fd ff ff 	mov    %rax,-0x230(%rbp)
   10226:	48 8d 85 a0 e2 ff ff 	lea    -0x1d60(%rbp),%rax
   1022d:	48 89 85 d8 fd ff ff 	mov    %rax,-0x228(%rbp)
   10234:	48 8d 85 a0 e2 ff ff 	lea    -0x1d60(%rbp),%rax
   1023b:	48 89 85 e0 fd ff ff 	mov    %rax,-0x220(%rbp)
   10242:	48 8d 85 a0 e2 ff ff 	lea    -0x1d60(%rbp),%rax
   10249:	48 89 85 e8 fd ff ff 	mov    %rax,-0x218(%rbp)
   10250:	48 8d 85 a0 e2 ff ff 	lea    -0x1d60(%rbp),%rax
   10257:	48 89 85 f0 fd ff ff 	mov    %rax,-0x210(%rbp)
   1025e:	48 8d 85 a0 e2 ff ff 	lea    -0x1d60(%rbp),%rax
   10265:	48 89 85 f8 fd ff ff 	mov    %rax,-0x208(%rbp)
   1026c:	48 8d 85 a0 e2 ff ff 	lea    -0x1d60(%rbp),%rax
   10273:	48 89 85 00 fe ff ff 	mov    %rax,-0x200(%rbp)
   1027a:	48 8d 85 a0 e2 ff ff 	lea    -0x1d60(%rbp),%rax
   10281:	48 89 85 08 fe ff ff 	mov    %rax,-0x1f8(%rbp)
   10288:	48 8d 85 a0 e2 ff ff 	lea    -0x1d60(%rbp),%rax
   1028f:	48 89 85 10 fe ff ff 	mov    %rax,-0x1f0(%rbp)
   10296:	48 8d 85 a0 e2 ff ff 	lea    -0x1d60(%rbp),%rax
   1029d:	48 89 85 18 fe ff ff 	mov    %rax,-0x1e8(%rbp)
   102a4:	48 8d 85 a0 e2 ff ff 	lea    -0x1d60(%rbp),%rax
   102ab:	48 89 85 20 fe ff ff 	mov    %rax,-0x1e0(%rbp)
   102b2:	48 8d 85 a0 e2 ff ff 	lea    -0x1d60(%rbp),%rax
   102b9:	48 89 85 28 fe ff ff 	mov    %rax,-0x1d8(%rbp)
   102c0:	48 8d 85 a0 e2 ff ff 	lea    -0x1d60(%rbp),%rax
   102c7:	48 89 85 30 fe ff ff 	mov    %rax,-0x1d0(%rbp)
   102ce:	48 8d 85 a0 e2 ff ff 	lea    -0x1d60(%rbp),%rax
   102d5:	48 89 85 38 fe ff ff 	mov    %rax,-0x1c8(%rbp)
   102dc:	48 8d 85 a0 e2 ff ff 	lea    -0x1d60(%rbp),%rax
   102e3:	48 89 85 40 fe ff ff 	mov    %rax,-0x1c0(%rbp)
   102ea:	48 8d 85 a0 e2 ff ff 	lea    -0x1d60(%rbp),%rax
   102f1:	48 89 85 48 fe ff ff 	mov    %rax,-0x1b8(%rbp)
   102f8:	48 8d 85 a0 e2 ff ff 	lea    -0x1d60(%rbp),%rax
   102ff:	48 89 85 50 fe ff ff 	mov    %rax,-0x1b0(%rbp)
   10306:	48 8d 85 a0 e2 ff ff 	lea    -0x1d60(%rbp),%rax
   1030d:	48 89 85 58 fe ff ff 	mov    %rax,-0x1a8(%rbp)
   10314:	48 8d 85 a0 e2 ff ff 	lea    -0x1d60(%rbp),%rax
   1031b:	48 89 85 60 fe ff ff 	mov    %rax,-0x1a0(%rbp)
   10322:	48 8d 85 a0 e2 ff ff 	lea    -0x1d60(%rbp),%rax
   10329:	48 89 85 68 fe ff ff 	mov    %rax,-0x198(%rbp)
   10330:	48 8d 85 a0 e2 ff ff 	lea    -0x1d60(%rbp),%rax
   10337:	48 89 85 70 fe ff ff 	mov    %rax,-0x190(%rbp)
   1033e:	48 8d 85 a0 e2 ff ff 	lea    -0x1d60(%rbp),%rax
   10345:	48 89 85 78 fe ff ff 	mov    %rax,-0x188(%rbp)
   1034c:	48 c7 85 80 fe ff ff 	movq   $0x0,-0x180(%rbp)
   10353:	00 00 00 00 
   10357:	48 8d 85 a0 e2 ff ff 	lea    -0x1d60(%rbp),%rax
   1035e:	48 89 85 88 fe ff ff 	mov    %rax,-0x178(%rbp)
   10365:	48 8d 85 a0 e2 ff ff 	lea    -0x1d60(%rbp),%rax
   1036c:	48 89 85 90 fe ff ff 	mov    %rax,-0x170(%rbp)
   10373:	48 8d 85 a0 e2 ff ff 	lea    -0x1d60(%rbp),%rax
   1037a:	48 89 85 98 fe ff ff 	mov    %rax,-0x168(%rbp)
   10381:	48 8d 85 a0 e2 ff ff 	lea    -0x1d60(%rbp),%rax
   10388:	48 89 85 a0 fe ff ff 	mov    %rax,-0x160(%rbp)
   1038f:	48 8d 85 a0 e2 ff ff 	lea    -0x1d60(%rbp),%rax
   10396:	48 89 85 a8 fe ff ff 	mov    %rax,-0x158(%rbp)
   1039d:	48 8d 85 a0 e2 ff ff 	lea    -0x1d60(%rbp),%rax
   103a4:	48 89 85 b0 fe ff ff 	mov    %rax,-0x150(%rbp)
   103ab:	48 c7 85 b8 fe ff ff 	movq   $0x0,-0x148(%rbp)
   103b2:	00 00 00 00 
   103b6:	48 8d 85 a0 e2 ff ff 	lea    -0x1d60(%rbp),%rax
   103bd:	48 89 85 c0 fe ff ff 	mov    %rax,-0x140(%rbp)
   103c4:	48 c7 85 c8 fe ff ff 	movq   $0x0,-0x138(%rbp)
   103cb:	00 00 00 00 
   103cf:	48 8d 85 a0 e2 ff ff 	lea    -0x1d60(%rbp),%rax
   103d6:	48 89 85 d0 fe ff ff 	mov    %rax,-0x130(%rbp)
   103dd:	48 8d 85 a0 e2 ff ff 	lea    -0x1d60(%rbp),%rax
   103e4:	48 89 85 d8 fe ff ff 	mov    %rax,-0x128(%rbp)
   103eb:	48 8d 85 a0 e2 ff ff 	lea    -0x1d60(%rbp),%rax
   103f2:	48 89 85 e0 fe ff ff 	mov    %rax,-0x120(%rbp)
   103f9:	48 8d 85 a0 e2 ff ff 	lea    -0x1d60(%rbp),%rax
   10400:	48 89 85 e8 fe ff ff 	mov    %rax,-0x118(%rbp)
   10407:	48 8d 85 a0 e2 ff ff 	lea    -0x1d60(%rbp),%rax
   1040e:	48 89 85 f0 fe ff ff 	mov    %rax,-0x110(%rbp)
   10415:	48 8d 85 a0 e2 ff ff 	lea    -0x1d60(%rbp),%rax
   1041c:	48 89 85 f8 fe ff ff 	mov    %rax,-0x108(%rbp)
   10423:	48 c7 85 00 ff ff ff 	movq   $0x0,-0x100(%rbp)
   1042a:	00 00 00 00 
   1042e:	48 8d 85 a0 e2 ff ff 	lea    -0x1d60(%rbp),%rax
   10435:	48 89 85 08 ff ff ff 	mov    %rax,-0xf8(%rbp)
   1043c:	48 c7 85 10 ff ff ff 	movq   $0x0,-0xf0(%rbp)
   10443:	00 00 00 00 
   10447:	48 8d 85 a0 e2 ff ff 	lea    -0x1d60(%rbp),%rax
   1044e:	48 89 85 18 ff ff ff 	mov    %rax,-0xe8(%rbp)
   10455:	48 8d 85 a0 e2 ff ff 	lea    -0x1d60(%rbp),%rax
   1045c:	48 89 85 20 ff ff ff 	mov    %rax,-0xe0(%rbp)
   10463:	48 8d 85 a0 e2 ff ff 	lea    -0x1d60(%rbp),%rax
   1046a:	48 89 85 28 ff ff ff 	mov    %rax,-0xd8(%rbp)
   10471:	48 8d 85 a0 e2 ff ff 	lea    -0x1d60(%rbp),%rax
   10478:	48 89 85 30 ff ff ff 	mov    %rax,-0xd0(%rbp)
   1047f:	48 8d 85 a0 e2 ff ff 	lea    -0x1d60(%rbp),%rax
   10486:	48 89 85 38 ff ff ff 	mov    %rax,-0xc8(%rbp)
   1048d:	48 c7 85 40 ff ff ff 	movq   $0x0,-0xc0(%rbp)
   10494:	00 00 00 00 
   10498:	48 8d 85 a0 e2 ff ff 	lea    -0x1d60(%rbp),%rax
   1049f:	48 89 85 48 ff ff ff 	mov    %rax,-0xb8(%rbp)
   104a6:	48 8d 85 a0 e2 ff ff 	lea    -0x1d60(%rbp),%rax
   104ad:	48 89 85 50 ff ff ff 	mov    %rax,-0xb0(%rbp)
   104b4:	48 8d 85 a0 e2 ff ff 	lea    -0x1d60(%rbp),%rax
   104bb:	48 89 85 58 ff ff ff 	mov    %rax,-0xa8(%rbp)
   104c2:	48 8d 85 a0 e2 ff ff 	lea    -0x1d60(%rbp),%rax
   104c9:	48 89 85 60 ff ff ff 	mov    %rax,-0xa0(%rbp)
   104d0:	48 8d 85 a0 e2 ff ff 	lea    -0x1d60(%rbp),%rax
   104d7:	48 89 85 68 ff ff ff 	mov    %rax,-0x98(%rbp)
   104de:	48 8d 85 a0 e2 ff ff 	lea    -0x1d60(%rbp),%rax
   104e5:	48 89 85 70 ff ff ff 	mov    %rax,-0x90(%rbp)
   104ec:	48 8d 85 a0 e2 ff ff 	lea    -0x1d60(%rbp),%rax
   104f3:	48 89 85 78 ff ff ff 	mov    %rax,-0x88(%rbp)
   104fa:	48 8d 85 a0 e2 ff ff 	lea    -0x1d60(%rbp),%rax
   10501:	48 89 45 80          	mov    %rax,-0x80(%rbp)
   10505:	48 8d 85 a0 e2 ff ff 	lea    -0x1d60(%rbp),%rax
   1050c:	48 89 45 88          	mov    %rax,-0x78(%rbp)
   10510:	48 8d 85 a0 e2 ff ff 	lea    -0x1d60(%rbp),%rax
   10517:	48 89 45 90          	mov    %rax,-0x70(%rbp)
   1051b:	48 8d 85 a0 e2 ff ff 	lea    -0x1d60(%rbp),%rax
   10522:	48 89 45 98          	mov    %rax,-0x68(%rbp)
   10526:	48 8d 85 a0 e2 ff ff 	lea    -0x1d60(%rbp),%rax
   1052d:	48 89 45 a0          	mov    %rax,-0x60(%rbp)
   10531:	48 8d 85 a0 e2 ff ff 	lea    -0x1d60(%rbp),%rax
   10538:	48 89 45 a8          	mov    %rax,-0x58(%rbp)
   1053c:	48 c7 45 b0 00 00 00 	movq   $0x0,-0x50(%rbp)
   10543:	00 
   10544:	48 c7 45 b8 00 00 00 	movq   $0x0,-0x48(%rbp)
   1054b:	00 
   1054c:	48 8d 85 a0 e2 ff ff 	lea    -0x1d60(%rbp),%rax
   10553:	48 89 45 c0          	mov    %rax,-0x40(%rbp)
   10557:	48 8d 85 a0 e2 ff ff 	lea    -0x1d60(%rbp),%rax
   1055e:	48 89 45 c8          	mov    %rax,-0x38(%rbp)
   10562:	48 8d 85 f0 f7 ff ff 	lea    -0x810(%rbp),%rax
   10569:	48 05 38 07 00 00    	add    $0x738,%rax
   1056f:	48 89 85 58 e3 ff ff 	mov    %rax,-0x1ca8(%rbp)
   10576:	c7 85 4c e1 ff ff 48 	movl   $0x3e4f6f48,-0x1eb4(%rbp)
   1057d:	6f 4f 3e 
   10580:	48 8d 85 30 f1 ff ff 	lea    -0xed0(%rbp),%rax
   10587:	48 8d 15 52 c8 00 00 	lea    0xc852(%rip),%rdx        # 1cde0 <g_953+0xd20>
   1058e:	b9 32 00 00 00       	mov    $0x32,%ecx
   10593:	48 89 c7             	mov    %rax,%rdi
   10596:	48 89 d6             	mov    %rdx,%rsi
   10599:	f3 48 a5             	rep movsq %ds:(%rsi),%es:(%rdi)
   1059c:	66 c7 85 58 e0 ff ff 	movw   $0xffff,-0x1fa8(%rbp)
   105a3:	ff ff 
   105a5:	48 8d 05 c4 3c 01 00 	lea    0x13cc4(%rip),%rax        # 24270 <g_1704>
   105ac:	48 89 85 a8 e2 ff ff 	mov    %rax,-0x1d58(%rbp)
   105b3:	48 8d 85 a8 e2 ff ff 	lea    -0x1d58(%rbp),%rax
   105ba:	48 89 85 60 e3 ff ff 	mov    %rax,-0x1ca0(%rbp)
   105c1:	66 c7 85 5a e0 ff ff 	movw   $0x0,-0x1fa6(%rbp)
   105c8:	00 00 
   105ca:	c7 85 50 e1 ff ff ff 	movl   $0xffffffff,-0x1eb0(%rbp)
   105d1:	ff ff ff 
   105d4:	c7 85 54 e1 ff ff 01 	movl   $0x1,-0x1eac(%rbp)
   105db:	00 00 00 
   105de:	48 c7 85 68 e3 ff ff 	movq   $0x0,-0x1c98(%rbp)
   105e5:	00 00 00 00 
   105e9:	66 c7 85 5c e0 ff ff 	movw   $0xfff6,-0x1fa4(%rbp)
   105f0:	f6 ff 
   105f2:	66 c7 85 5e e0 ff ff 	movw   $0xfff9,-0x1fa2(%rbp)
   105f9:	f9 ff 
   105fb:	c6 85 40 e0 ff ff 05 	movb   $0x5,-0x1fc0(%rbp)
   10602:	48 c7 85 70 e3 ff ff 	movq   $0x0,-0x1c90(%rbp)
   10609:	00 00 00 00 
   1060d:	48 b8 0b a7 ab 98 44 	movabs $0x2bf05e4498aba70b,%rax
   10614:	5e f0 2b 
   10617:	48 89 85 78 e3 ff ff 	mov    %rax,-0x1c88(%rbp)
   1061e:	c7 85 14 e1 ff ff 00 	movl   $0x0,-0x1eec(%rbp)
   10625:	00 00 00 
   10628:	eb 1a                	jmp    10644 <func_1+0x4e8f>
   1062a:	8b 85 14 e1 ff ff    	mov    -0x1eec(%rbp),%eax
   10630:	48 98                	cltq   
   10632:	c7 84 85 10 e9 ff ff 	movl   $0xcd9178fb,-0x16f0(%rbp,%rax,4)
   10639:	fb 78 91 cd 
   1063d:	83 85 14 e1 ff ff 01 	addl   $0x1,-0x1eec(%rbp)
   10644:	83 bd 14 e1 ff ff 02 	cmpl   $0x2,-0x1eec(%rbp)
   1064b:	7e dd                	jle    1062a <func_1+0x4e75>
   1064d:	8b 05 6d 0a 01 00    	mov    0x10a6d(%rip),%eax        # 210c0 <g_278>
   10653:	85 c0                	test   %eax,%eax
   10655:	74 14                	je     1066b <func_1+0x4eb6>
   10657:	e9 bb b8 ff ff       	jmpq   bf17 <func_1+0x762>
   1065c:	48 8b 05 3d 3b 01 00 	mov    0x13b3d(%rip),%rax        # 241a0 <g_1149>
   10663:	0f b6 00             	movzbl (%rax),%eax
   10666:	e9 a2 22 00 00       	jmpq   1290d <func_1+0x7158>
   1066b:	48 8b 15 76 2d 01 00 	mov    0x12d76(%rip),%rdx        # 233e8 <g_200>
   10672:	48 8b 05 c7 30 01 00 	mov    0x130c7(%rip),%rax        # 23740 <g_376>
   10679:	48 8b 00             	mov    (%rax),%rax
   1067c:	48 8b 12             	mov    (%rdx),%rdx
   1067f:	48 89 10             	mov    %rdx,(%rax)
   10682:	c7 05 b4 09 01 00 04 	movl   $0x4,0x109b4(%rip)        # 21040 <g_9>
   10689:	00 00 00 
   1068c:	e9 64 22 00 00       	jmpq   128f5 <func_1+0x7140>
   10691:	66 c7 85 60 e0 ff ff 	movw   $0x997e,-0x1fa0(%rbp)
   10698:	7e 99 
   1069a:	48 8d 85 30 e2 ff ff 	lea    -0x1dd0(%rbp),%rax
   106a1:	48 89 85 80 e3 ff ff 	mov    %rax,-0x1c80(%rbp)
   106a8:	48 8d 05 af 0a 01 00 	lea    0x10aaf(%rip),%rax        # 2115e <g_588>
   106af:	48 89 85 88 e3 ff ff 	mov    %rax,-0x1c78(%rbp)
   106b6:	c7 85 58 e1 ff ff 3a 	movl   $0xc2d0e3a,-0x1ea8(%rbp)
   106bd:	0e 2d 0c 
   106c0:	66 c7 85 e0 e6 ff ff 	movw   $0x179b,-0x1920(%rbp)
   106c7:	9b 17 
   106c9:	66 c7 85 e2 e6 ff ff 	movw   $0x179b,-0x191e(%rbp)
   106d0:	9b 17 
   106d2:	66 c7 85 e4 e6 ff ff 	movw   $0xc475,-0x191c(%rbp)
   106d9:	75 c4 
   106db:	66 c7 85 e6 e6 ff ff 	movw   $0x179b,-0x191a(%rbp)
   106e2:	9b 17 
   106e4:	66 c7 85 e8 e6 ff ff 	movw   $0x179b,-0x1918(%rbp)
   106eb:	9b 17 
   106ed:	66 c7 85 ea e6 ff ff 	movw   $0xc475,-0x1916(%rbp)
   106f4:	75 c4 
   106f6:	48 8d 05 73 3b 01 00 	lea    0x13b73(%rip),%rax        # 24270 <g_1704>
   106fd:	48 89 85 78 e2 ff ff 	mov    %rax,-0x1d88(%rbp)
   10704:	48 8d 85 78 e2 ff ff 	lea    -0x1d88(%rbp),%rax
   1070b:	48 89 85 80 e2 ff ff 	mov    %rax,-0x1d80(%rbp)
   10712:	48 8d 85 80 e2 ff ff 	lea    -0x1d80(%rbp),%rax
   10719:	48 89 85 90 e3 ff ff 	mov    %rax,-0x1c70(%rbp)
   10720:	48 8d 05 29 09 01 00 	lea    0x10929(%rip),%rax        # 21050 <g_99>
   10727:	48 89 85 88 e2 ff ff 	mov    %rax,-0x1d78(%rbp)
   1072e:	48 c7 85 50 e8 ff ff 	movq   $0x0,-0x17b0(%rbp)
   10735:	00 00 00 00 
   10739:	48 c7 85 58 e8 ff ff 	movq   $0x0,-0x17a8(%rbp)
   10740:	00 00 00 00 
   10744:	48 8d 85 88 e2 ff ff 	lea    -0x1d78(%rbp),%rax
   1074b:	48 89 85 60 e8 ff ff 	mov    %rax,-0x17a0(%rbp)
   10752:	48 8d 85 88 e2 ff ff 	lea    -0x1d78(%rbp),%rax
   10759:	48 89 85 68 e8 ff ff 	mov    %rax,-0x1798(%rbp)
   10760:	48 8d 85 88 e2 ff ff 	lea    -0x1d78(%rbp),%rax
   10767:	48 89 85 70 e8 ff ff 	mov    %rax,-0x1790(%rbp)
   1076e:	48 c7 85 78 e8 ff ff 	movq   $0x0,-0x1788(%rbp)
   10775:	00 00 00 00 
   10779:	48 8d 85 88 e2 ff ff 	lea    -0x1d78(%rbp),%rax
   10780:	48 89 85 80 e8 ff ff 	mov    %rax,-0x1780(%rbp)
   10787:	c7 85 5c e1 ff ff fa 	movl   $0x6e3057fa,-0x1ea4(%rbp)
   1078e:	57 30 6e 
   10791:	c7 85 60 e1 ff ff 03 	movl   $0x3,-0x1ea0(%rbp)
   10798:	00 00 00 
   1079b:	c7 85 c8 e0 ff ff ff 	movl   $0xffffffff,-0x1f38(%rbp)
   107a2:	ff ff ff 
   107a5:	c6 85 41 e0 ff ff 00 	movb   $0x0,-0x1fbf(%rbp)
   107ac:	48 8d 85 18 e2 ff ff 	lea    -0x1de8(%rbp),%rax
   107b3:	48 89 85 00 eb ff ff 	mov    %rax,-0x1500(%rbp)
   107ba:	48 8d 05 1f 2c 01 00 	lea    0x12c1f(%rip),%rax        # 233e0 <g_201>
   107c1:	48 89 85 08 eb ff ff 	mov    %rax,-0x14f8(%rbp)
   107c8:	48 8d 85 18 e2 ff ff 	lea    -0x1de8(%rbp),%rax
   107cf:	48 89 85 10 eb ff ff 	mov    %rax,-0x14f0(%rbp)
   107d6:	48 8d 05 03 2c 01 00 	lea    0x12c03(%rip),%rax        # 233e0 <g_201>
   107dd:	48 89 85 18 eb ff ff 	mov    %rax,-0x14e8(%rbp)
   107e4:	48 8d 85 18 e2 ff ff 	lea    -0x1de8(%rbp),%rax
   107eb:	48 89 85 20 eb ff ff 	mov    %rax,-0x14e0(%rbp)
   107f2:	48 8d 05 e7 2b 01 00 	lea    0x12be7(%rip),%rax        # 233e0 <g_201>
   107f9:	48 89 85 28 eb ff ff 	mov    %rax,-0x14d8(%rbp)
   10800:	48 8d 85 18 e2 ff ff 	lea    -0x1de8(%rbp),%rax
   10807:	48 89 85 30 eb ff ff 	mov    %rax,-0x14d0(%rbp)
   1080e:	48 8d 05 cb 2b 01 00 	lea    0x12bcb(%rip),%rax        # 233e0 <g_201>
   10815:	48 89 85 38 eb ff ff 	mov    %rax,-0x14c8(%rbp)
   1081c:	48 8d 85 18 e2 ff ff 	lea    -0x1de8(%rbp),%rax
   10823:	48 89 85 40 eb ff ff 	mov    %rax,-0x14c0(%rbp)
   1082a:	48 c7 85 90 e8 ff ff 	movq   $0x0,-0x1770(%rbp)
   10831:	00 00 00 00 
   10835:	48 8d 85 00 eb ff ff 	lea    -0x1500(%rbp),%rax
   1083c:	48 83 c0 10          	add    $0x10,%rax
   10840:	48 89 85 98 e8 ff ff 	mov    %rax,-0x1768(%rbp)
   10847:	48 8d 85 00 eb ff ff 	lea    -0x1500(%rbp),%rax
   1084e:	48 83 c0 10          	add    $0x10,%rax
   10852:	48 89 85 a0 e8 ff ff 	mov    %rax,-0x1760(%rbp)
   10859:	48 c7 85 a8 e8 ff ff 	movq   $0x0,-0x1758(%rbp)
   10860:	00 00 00 00 
   10864:	48 8d 85 00 eb ff ff 	lea    -0x1500(%rbp),%rax
   1086b:	48 83 c0 10          	add    $0x10,%rax
   1086f:	48 89 85 b0 e8 ff ff 	mov    %rax,-0x1750(%rbp)
   10876:	48 8d 85 00 eb ff ff 	lea    -0x1500(%rbp),%rax
   1087d:	48 83 c0 10          	add    $0x10,%rax
   10881:	48 89 85 b8 e8 ff ff 	mov    %rax,-0x1748(%rbp)
   10888:	48 c7 85 c0 e8 ff ff 	movq   $0x0,-0x1740(%rbp)
   1088f:	00 00 00 00 
   10893:	48 8d 05 5e 2b 01 00 	lea    0x12b5e(%rip),%rax        # 233f8 <g_288>
   1089a:	48 89 85 98 e3 ff ff 	mov    %rax,-0x1c68(%rbp)
   108a1:	c7 85 d0 ed ff ff 04 	movl   $0x72b3804,-0x1230(%rbp)
   108a8:	38 2b 07 
   108ab:	c7 85 d4 ed ff ff 07 	movl   $0x7,-0x122c(%rbp)
   108b2:	00 00 00 
   108b5:	c7 85 d8 ed ff ff 51 	movl   $0x75ddb951,-0x1228(%rbp)
   108bc:	b9 dd 75 
   108bf:	c7 85 dc ed ff ff 87 	movl   $0x1d04a187,-0x1224(%rbp)
   108c6:	a1 04 1d 
   108c9:	c7 85 e0 ed ff ff d8 	movl   $0xd7251ed8,-0x1220(%rbp)
   108d0:	1e 25 d7 
   108d3:	c7 85 e4 ed ff ff 87 	movl   $0x1d04a187,-0x121c(%rbp)
   108da:	a1 04 1d 
   108dd:	c7 85 e8 ed ff ff 51 	movl   $0x75ddb951,-0x1218(%rbp)
   108e4:	b9 dd 75 
   108e7:	c7 85 ec ed ff ff 07 	movl   $0x7,-0x1214(%rbp)
   108ee:	00 00 00 
   108f1:	c7 85 f0 ed ff ff 04 	movl   $0x72b3804,-0x1210(%rbp)
   108f8:	38 2b 07 
   108fb:	c7 85 f4 ed ff ff 04 	movl   $0x72b3804,-0x120c(%rbp)
   10902:	38 2b 07 
   10905:	c7 85 f8 ed ff ff 06 	movl   $0x6,-0x1208(%rbp)
   1090c:	00 00 00 
   1090f:	c7 85 fc ed ff ff 03 	movl   $0x3,-0x1204(%rbp)
   10916:	00 00 00 
   10919:	c7 85 00 ee ff ff 87 	movl   $0x1d04a187,-0x1200(%rbp)
   10920:	a1 04 1d 
   10923:	c7 85 04 ee ff ff 07 	movl   $0x7,-0x11fc(%rbp)
   1092a:	00 00 00 
   1092d:	c7 85 08 ee ff ff fa 	movl   $0xfffffffa,-0x11f8(%rbp)
   10934:	ff ff ff 
   10937:	c7 85 0c ee ff ff 51 	movl   $0x75ddb951,-0x11f4(%rbp)
   1093e:	b9 dd 75 
   10941:	c7 85 10 ee ff ff 06 	movl   $0x6,-0x11f0(%rbp)
   10948:	00 00 00 
   1094b:	c7 85 14 ee ff ff f7 	movl   $0xfffffff7,-0x11ec(%rbp)
   10952:	ff ff ff 
   10955:	c7 85 18 ee ff ff 04 	movl   $0x72b3804,-0x11e8(%rbp)
   1095c:	38 2b 07 
   1095f:	c7 85 1c ee ff ff d8 	movl   $0xd7251ed8,-0x11e4(%rbp)
   10966:	1e 25 d7 
   10969:	c7 85 20 ee ff ff 13 	movl   $0x881ce613,-0x11e0(%rbp)
   10970:	e6 1c 88 
   10973:	c7 85 24 ee ff ff 87 	movl   $0x1d04a187,-0x11dc(%rbp)
   1097a:	a1 04 1d 
   1097d:	c7 85 28 ee ff ff 06 	movl   $0x6,-0x11d8(%rbp)
   10984:	00 00 00 
   10987:	c7 85 2c ee ff ff 62 	movl   $0x411ae862,-0x11d4(%rbp)
   1098e:	e8 1a 41 
   10991:	c7 85 30 ee ff ff 51 	movl   $0x75ddb951,-0x11d0(%rbp)
   10998:	b9 dd 75 
   1099b:	c7 85 34 ee ff ff d8 	movl   $0xd7251ed8,-0x11cc(%rbp)
   109a2:	1e 25 d7 
   109a5:	c7 85 38 ee ff ff 16 	movl   $0xa8f57616,-0x11c8(%rbp)
   109ac:	76 f5 a8 
   109af:	c7 85 3c ee ff ff 04 	movl   $0x72b3804,-0x11c4(%rbp)
   109b6:	38 2b 07 
   109b9:	c7 85 40 ee ff ff 07 	movl   $0x7,-0x11c0(%rbp)
   109c0:	00 00 00 
   109c3:	c7 85 44 ee ff ff 51 	movl   $0x75ddb951,-0x11bc(%rbp)
   109ca:	b9 dd 75 
   109cd:	c7 85 48 ee ff ff 87 	movl   $0x1d04a187,-0x11b8(%rbp)
   109d4:	a1 04 1d 
   109d7:	c7 85 4c ee ff ff d8 	movl   $0xd7251ed8,-0x11b4(%rbp)
   109de:	1e 25 d7 
   109e1:	c7 85 50 ee ff ff 87 	movl   $0x1d04a187,-0x11b0(%rbp)
   109e8:	a1 04 1d 
   109eb:	c7 85 54 ee ff ff 51 	movl   $0x75ddb951,-0x11ac(%rbp)
   109f2:	b9 dd 75 
   109f5:	c7 85 58 ee ff ff 07 	movl   $0x7,-0x11a8(%rbp)
   109fc:	00 00 00 
   109ff:	c7 85 5c ee ff ff 04 	movl   $0x72b3804,-0x11a4(%rbp)
   10a06:	38 2b 07 
   10a09:	c7 85 60 ee ff ff 04 	movl   $0x72b3804,-0x11a0(%rbp)
   10a10:	38 2b 07 
   10a13:	c7 85 64 ee ff ff 06 	movl   $0x6,-0x119c(%rbp)
   10a1a:	00 00 00 
   10a1d:	c7 85 68 ee ff ff 03 	movl   $0x3,-0x1198(%rbp)
   10a24:	00 00 00 
   10a27:	c7 85 6c ee ff ff 87 	movl   $0x1d04a187,-0x1194(%rbp)
   10a2e:	a1 04 1d 
   10a31:	c7 85 70 ee ff ff 07 	movl   $0x7,-0x1190(%rbp)
   10a38:	00 00 00 
   10a3b:	c7 85 74 ee ff ff fa 	movl   $0xfffffffa,-0x118c(%rbp)
   10a42:	ff ff ff 
   10a45:	c7 85 78 ee ff ff 51 	movl   $0x75ddb951,-0x1188(%rbp)
   10a4c:	b9 dd 75 
   10a4f:	c7 85 7c ee ff ff 06 	movl   $0x6,-0x1184(%rbp)
   10a56:	00 00 00 
   10a59:	c7 85 80 ee ff ff f7 	movl   $0xfffffff7,-0x1180(%rbp)
   10a60:	ff ff ff 
   10a63:	c7 85 84 ee ff ff 04 	movl   $0x72b3804,-0x117c(%rbp)
   10a6a:	38 2b 07 
   10a6d:	c7 85 88 ee ff ff d8 	movl   $0xd7251ed8,-0x1178(%rbp)
   10a74:	1e 25 d7 
   10a77:	c7 85 8c ee ff ff 13 	movl   $0x881ce613,-0x1174(%rbp)
   10a7e:	e6 1c 88 
   10a81:	c7 85 90 ee ff ff 87 	movl   $0x1d04a187,-0x1170(%rbp)
   10a88:	a1 04 1d 
   10a8b:	c7 85 94 ee ff ff 06 	movl   $0x6,-0x116c(%rbp)
   10a92:	00 00 00 
   10a95:	c7 85 98 ee ff ff 62 	movl   $0x411ae862,-0x1168(%rbp)
   10a9c:	e8 1a 41 
   10a9f:	c7 85 9c ee ff ff 51 	movl   $0x75ddb951,-0x1164(%rbp)
   10aa6:	b9 dd 75 
   10aa9:	c7 85 a0 ee ff ff d8 	movl   $0xd7251ed8,-0x1160(%rbp)
   10ab0:	1e 25 d7 
   10ab3:	c7 85 a4 ee ff ff 16 	movl   $0xa8f57616,-0x115c(%rbp)
   10aba:	76 f5 a8 
   10abd:	c7 05 65 05 01 00 13 	movl   $0x13,0x10565(%rip)        # 2102c <g_4>
   10ac4:	00 00 00 
   10ac7:	e9 fc 1d 00 00       	jmpq   128c8 <func_1+0x7113>
   10acc:	c7 85 d0 e8 ff ff c0 	movl   $0x49021c0,-0x1730(%rbp)
   10ad3:	21 90 04 
   10ad6:	c7 85 d4 e8 ff ff fb 	movl   $0xfb9090fb,-0x172c(%rbp)
   10add:	90 90 fb 
   10ae0:	c7 85 d8 e8 ff ff c0 	movl   $0xd9b201c0,-0x1728(%rbp)
   10ae7:	01 b2 d9 
   10aea:	c7 85 dc e8 ff ff 00 	movl   $0xd9c700,-0x1724(%rbp)
   10af1:	c7 d9 00 
   10af4:	c7 85 e0 e8 ff ff d9 	movl   $0x4000d9,-0x1720(%rbp)
   10afb:	00 40 00 
   10afe:	c7 85 e4 e8 ff ff 90 	movl   $0xd921c790,-0x171c(%rbp)
   10b05:	c7 21 d9 
   10b08:	c7 85 e8 e8 ff ff be 	movl   $0xfb0001be,-0x1718(%rbp)
   10b0f:	01 00 fb 
   10b12:	c7 85 ec e8 ff ff 21 	movl   $0x4049021,-0x1714(%rbp)
   10b19:	90 04 04 
   10b1c:	c7 85 f0 e8 ff ff 21 	movl   $0xc0002121,-0x1710(%rbp)
   10b23:	21 00 c0 
   10b26:	c7 85 f4 e8 ff ff be 	movl   $0x12104be,-0x170c(%rbp)
   10b2d:	04 21 01 
   10b30:	c7 85 f8 e8 ff ff 90 	movl   $0x21400090,-0x1708(%rbp)
   10b37:	00 40 21 
   10b3a:	c7 85 fc e8 ff ff d9 	movl   $0x1d900d9,-0x1704(%rbp)
   10b41:	00 d9 01 
   10b44:	c7 85 00 e9 ff ff 00 	movl   $0xc0b20400,-0x1700(%rbp)
   10b4b:	04 b2 c0 
   10b4e:	c7 85 04 e9 ff ff c0 	movl   $0x49021c0,-0x16fc(%rbp)
   10b55:	21 90 04 
   10b58:	c7 85 08 e9 ff ff fb 	movl   $0xfb9090fb,-0x16f8(%rbp)
   10b5f:	90 90 fb 
   10b62:	c7 85 0c e9 ff ff c0 	movl   $0xd9b201c0,-0x16f4(%rbp)
   10b69:	01 b2 d9 
   10b6c:	48 8d 05 4d 28 01 00 	lea    0x1284d(%rip),%rax        # 233c0 <g_103>
   10b73:	48 89 85 90 e2 ff ff 	mov    %rax,-0x1d70(%rbp)
   10b7a:	48 8d 85 90 e2 ff ff 	lea    -0x1d70(%rbp),%rax
   10b81:	48 89 85 a0 e3 ff ff 	mov    %rax,-0x1c60(%rbp)
   10b88:	48 c7 85 70 e7 ff ff 	movq   $0x0,-0x1890(%rbp)
   10b8f:	00 00 00 00 
   10b93:	48 c7 85 78 e7 ff ff 	movq   $0x0,-0x1888(%rbp)
   10b9a:	00 00 00 00 
   10b9e:	48 c7 85 80 e7 ff ff 	movq   $0x0,-0x1880(%rbp)
   10ba5:	00 00 00 00 
   10ba9:	48 c7 85 88 e7 ff ff 	movq   $0x0,-0x1878(%rbp)
   10bb0:	00 00 00 00 
   10bb4:	48 c7 85 90 e7 ff ff 	movq   $0x0,-0x1870(%rbp)
   10bbb:	00 00 00 00 
   10bbf:	48 c7 85 98 e7 ff ff 	movq   $0x0,-0x1868(%rbp)
   10bc6:	00 00 00 00 
   10bca:	48 8d 85 70 e7 ff ff 	lea    -0x1890(%rbp),%rax
   10bd1:	48 83 c0 28          	add    $0x28,%rax
   10bd5:	48 89 85 a8 e3 ff ff 	mov    %rax,-0x1c58(%rbp)
   10bdc:	48 8d 85 94 e0 ff ff 	lea    -0x1f6c(%rbp),%rax
   10be3:	48 89 85 b0 e3 ff ff 	mov    %rax,-0x1c50(%rbp)
   10bea:	66 c7 85 c4 e0 ff ff 	movw   $0xffff,-0x1f3c(%rbp)
   10bf1:	ff ff 
   10bf3:	c6 85 42 e0 ff ff 6b 	movb   $0x6b,-0x1fbe(%rbp)
   10bfa:	48 8d 85 68 e2 ff ff 	lea    -0x1d98(%rbp),%rax
   10c01:	48 89 85 98 e2 ff ff 	mov    %rax,-0x1d68(%rbp)
   10c08:	48 8d 85 98 e2 ff ff 	lea    -0x1d68(%rbp),%rax
   10c0f:	48 89 85 a0 e2 ff ff 	mov    %rax,-0x1d60(%rbp)
   10c16:	48 8d 85 a0 e2 ff ff 	lea    -0x1d60(%rbp),%rax
   10c1d:	48 89 85 b8 e3 ff ff 	mov    %rax,-0x1c48(%rbp)
   10c24:	48 8d 85 30 e2 ff ff 	lea    -0x1dd0(%rbp),%rax
   10c2b:	48 89 85 c0 e3 ff ff 	mov    %rax,-0x1c40(%rbp)
   10c32:	48 c7 85 a0 e7 ff ff 	movq   $0xffffffffffffffff,-0x1860(%rbp)
   10c39:	ff ff ff ff 
   10c3d:	48 c7 85 a8 e7 ff ff 	movq   $0xffffffffffffffff,-0x1858(%rbp)
   10c44:	ff ff ff ff 
   10c48:	48 c7 85 b0 e7 ff ff 	movq   $0x0,-0x1850(%rbp)
   10c4f:	00 00 00 00 
   10c53:	48 c7 85 b8 e7 ff ff 	movq   $0xffffffffffffffff,-0x1848(%rbp)
   10c5a:	ff ff ff ff 
   10c5e:	48 c7 85 c0 e7 ff ff 	movq   $0xffffffffffffffff,-0x1840(%rbp)
   10c65:	ff ff ff ff 
   10c69:	48 c7 85 c8 e7 ff ff 	movq   $0x0,-0x1838(%rbp)
   10c70:	00 00 00 00 
   10c74:	c7 85 64 e1 ff ff ba 	movl   $0x31b0ba,-0x1e9c(%rbp)
   10c7b:	b0 31 00 
   10c7e:	48 c7 85 c8 e3 ff ff 	movq   $0x0,-0x1c38(%rbp)
   10c85:	00 00 00 00 
   10c89:	48 c7 85 d0 e3 ff ff 	movq   $0xffffffffffffffff,-0x1c30(%rbp)
   10c90:	ff ff ff ff 
   10c94:	c7 85 18 e1 ff ff 00 	movl   $0x0,-0x1ee8(%rbp)
   10c9b:	00 00 00 
   10c9e:	eb 1e                	jmp    10cbe <func_1+0x5509>
   10ca0:	8b 85 18 e1 ff ff    	mov    -0x1ee8(%rbp),%eax
   10ca6:	48 98                	cltq   
   10ca8:	48 8d 15 b1 04 01 00 	lea    0x104b1(%rip),%rdx        # 21160 <g_622>
   10caf:	48 89 94 c5 70 e6 ff 	mov    %rdx,-0x1990(%rbp,%rax,8)
   10cb6:	ff 
   10cb7:	83 85 18 e1 ff ff 01 	addl   $0x1,-0x1ee8(%rbp)
   10cbe:	83 bd 18 e1 ff ff 00 	cmpl   $0x0,-0x1ee8(%rbp)
   10cc5:	7e d9                	jle    10ca0 <func_1+0x54eb>
   10cc7:	66 c7 05 38 4a 01 00 	movw   $0x0,0x14a38(%rip)        # 25708 <g_37>
   10cce:	00 00 
   10cd0:	e9 c8 07 00 00       	jmpq   1149d <func_1+0x5ce8>
   10cd5:	48 b8 98 65 23 a7 8e 	movabs $0x39fe198ea7236598,%rax
   10cdc:	19 fe 39 
   10cdf:	48 89 85 d8 e3 ff ff 	mov    %rax,-0x1c28(%rbp)
   10ce6:	48 8d 85 88 e0 ff ff 	lea    -0x1f78(%rbp),%rax
   10ced:	48 89 85 e0 e3 ff ff 	mov    %rax,-0x1c20(%rbp)
   10cf4:	66 c7 85 48 e0 ff ff 	movw   $0x0,-0x1fb8(%rbp)
   10cfb:	00 00 
   10cfd:	e9 5b 07 00 00       	jmpq   1145d <func_1+0x5ca8>
   10d02:	48 8d 85 30 f1 ff ff 	lea    -0xed0(%rbp),%rax
   10d09:	48 8d 15 30 0a 01 00 	lea    0x10a30(%rip),%rdx        # 21740 <g_2844+0x3c6>
   10d10:	b9 36 00 00 00       	mov    $0x36,%ecx
   10d15:	48 89 c7             	mov    %rax,%rdi
   10d18:	48 89 d6             	mov    %rdx,%rsi
   10d1b:	f3 48 a5             	rep movsq %ds:(%rsi),%es:(%rdi)
   10d1e:	48 b8 72 9a 8f 49 79 	movabs $0xe7a2e879498f9a72,%rax
   10d25:	e8 a2 e7 
   10d28:	48 89 85 e8 e3 ff ff 	mov    %rax,-0x1c18(%rbp)
   10d2f:	48 8d 05 ca 4a 01 00 	lea    0x14aca(%rip),%rax        # 25800 <g_1356>
   10d36:	48 89 85 f0 e3 ff ff 	mov    %rax,-0x1c10(%rbp)
   10d3d:	66 c7 85 62 e0 ff ff 	movw   $0xfffe,-0x1f9e(%rbp)
   10d44:	fe ff 
   10d46:	48 8b 05 f3 34 01 00 	mov    0x134f3(%rip),%rax        # 24240 <g_1512>
   10d4d:	48 8b 00             	mov    (%rax),%rax
   10d50:	48 8b 00             	mov    (%rax),%rax
   10d53:	48 8b 10             	mov    (%rax),%rdx
   10d56:	48 8b 85 30 f2 ff ff 	mov    -0xdd0(%rbp),%rax
   10d5d:	48 89 85 c8 f1 ff ff 	mov    %rax,-0xe38(%rbp)
   10d64:	48 8b 85 c8 f1 ff ff 	mov    -0xe38(%rbp),%rax
   10d6b:	48 39 c2             	cmp    %rax,%rdx
   10d6e:	0f 84 3c 05 00 00    	je     112b0 <func_1+0x5afb>
   10d74:	48 c7 85 00 e4 ff ff 	movq   $0x0,-0x1c00(%rbp)
   10d7b:	00 00 00 00 
   10d7f:	48 8d 85 9c e0 ff ff 	lea    -0x1f64(%rbp),%rax
   10d86:	48 89 85 08 e4 ff ff 	mov    %rax,-0x1bf8(%rbp)
   10d8d:	48 8d 05 cc 02 01 00 	lea    0x102cc(%rip),%rax        # 21060 <g_108>
   10d94:	48 89 85 10 e4 ff ff 	mov    %rax,-0x1bf0(%rbp)
   10d9b:	48 8d 85 90 e0 ff ff 	lea    -0x1f70(%rbp),%rax
   10da2:	48 89 85 18 e4 ff ff 	mov    %rax,-0x1be8(%rbp)
   10da9:	48 8d 85 84 e0 ff ff 	lea    -0x1f7c(%rbp),%rax
   10db0:	48 89 85 20 e4 ff ff 	mov    %rax,-0x1be0(%rbp)
   10db7:	48 8d 05 02 03 01 00 	lea    0x10302(%rip),%rax        # 210c0 <g_278>
   10dbe:	48 89 85 f0 f7 ff ff 	mov    %rax,-0x810(%rbp)
   10dc5:	48 8d 05 f4 02 01 00 	lea    0x102f4(%rip),%rax        # 210c0 <g_278>
   10dcc:	48 89 85 f8 f7 ff ff 	mov    %rax,-0x808(%rbp)
   10dd3:	48 8d 85 78 e0 ff ff 	lea    -0x1f88(%rbp),%rax
   10dda:	48 89 85 00 f8 ff ff 	mov    %rax,-0x800(%rbp)
   10de1:	48 8d 05 d8 02 01 00 	lea    0x102d8(%rip),%rax        # 210c0 <g_278>
   10de8:	48 89 85 08 f8 ff ff 	mov    %rax,-0x7f8(%rbp)
   10def:	48 8d 05 ca 02 01 00 	lea    0x102ca(%rip),%rax        # 210c0 <g_278>
   10df6:	48 89 85 10 f8 ff ff 	mov    %rax,-0x7f0(%rbp)
   10dfd:	48 8d 85 78 e0 ff ff 	lea    -0x1f88(%rbp),%rax
   10e04:	48 89 85 18 f8 ff ff 	mov    %rax,-0x7e8(%rbp)
   10e0b:	48 8d 05 ae 02 01 00 	lea    0x102ae(%rip),%rax        # 210c0 <g_278>
   10e12:	48 89 85 20 f8 ff ff 	mov    %rax,-0x7e0(%rbp)
   10e19:	48 8d 05 a0 02 01 00 	lea    0x102a0(%rip),%rax        # 210c0 <g_278>
   10e20:	48 89 85 28 f8 ff ff 	mov    %rax,-0x7d8(%rbp)
   10e27:	48 8d 85 78 e0 ff ff 	lea    -0x1f88(%rbp),%rax
   10e2e:	48 89 85 30 f8 ff ff 	mov    %rax,-0x7d0(%rbp)
   10e35:	48 8d 05 84 02 01 00 	lea    0x10284(%rip),%rax        # 210c0 <g_278>
   10e3c:	48 89 85 38 f8 ff ff 	mov    %rax,-0x7c8(%rbp)
   10e43:	48 8d 05 76 02 01 00 	lea    0x10276(%rip),%rax        # 210c0 <g_278>
   10e4a:	48 89 85 40 f8 ff ff 	mov    %rax,-0x7c0(%rbp)
   10e51:	48 8d 85 78 e0 ff ff 	lea    -0x1f88(%rbp),%rax
   10e58:	48 89 85 48 f8 ff ff 	mov    %rax,-0x7b8(%rbp)
   10e5f:	48 8d 85 78 e0 ff ff 	lea    -0x1f88(%rbp),%rax
   10e66:	48 89 85 50 f8 ff ff 	mov    %rax,-0x7b0(%rbp)
   10e6d:	48 8d 05 4c 02 01 00 	lea    0x1024c(%rip),%rax        # 210c0 <g_278>
   10e74:	48 89 85 58 f8 ff ff 	mov    %rax,-0x7a8(%rbp)
   10e7b:	48 8d 85 78 e0 ff ff 	lea    -0x1f88(%rbp),%rax
   10e82:	48 89 85 60 f8 ff ff 	mov    %rax,-0x7a0(%rbp)
   10e89:	48 8d 85 78 e0 ff ff 	lea    -0x1f88(%rbp),%rax
   10e90:	48 89 85 68 f8 ff ff 	mov    %rax,-0x798(%rbp)
   10e97:	48 8d 05 22 02 01 00 	lea    0x10222(%rip),%rax        # 210c0 <g_278>
   10e9e:	48 89 85 70 f8 ff ff 	mov    %rax,-0x790(%rbp)
   10ea5:	48 8d 85 78 e0 ff ff 	lea    -0x1f88(%rbp),%rax
   10eac:	48 89 85 78 f8 ff ff 	mov    %rax,-0x788(%rbp)
   10eb3:	48 8d 85 78 e0 ff ff 	lea    -0x1f88(%rbp),%rax
   10eba:	48 89 85 80 f8 ff ff 	mov    %rax,-0x780(%rbp)
   10ec1:	48 8d 05 f8 01 01 00 	lea    0x101f8(%rip),%rax        # 210c0 <g_278>
   10ec8:	48 89 85 88 f8 ff ff 	mov    %rax,-0x778(%rbp)
   10ecf:	48 8d 85 78 e0 ff ff 	lea    -0x1f88(%rbp),%rax
   10ed6:	48 89 85 90 f8 ff ff 	mov    %rax,-0x770(%rbp)
   10edd:	48 8d 05 dc 01 01 00 	lea    0x101dc(%rip),%rax        # 210c0 <g_278>
   10ee4:	48 89 85 98 f8 ff ff 	mov    %rax,-0x768(%rbp)
   10eeb:	48 8d 85 78 e0 ff ff 	lea    -0x1f88(%rbp),%rax
   10ef2:	48 89 85 a0 f8 ff ff 	mov    %rax,-0x760(%rbp)
   10ef9:	48 8d 85 78 e0 ff ff 	lea    -0x1f88(%rbp),%rax
   10f00:	48 89 85 a8 f8 ff ff 	mov    %rax,-0x758(%rbp)
   10f07:	48 8d 05 b2 01 01 00 	lea    0x101b2(%rip),%rax        # 210c0 <g_278>
   10f0e:	48 89 85 b0 f8 ff ff 	mov    %rax,-0x750(%rbp)
   10f15:	48 8d 85 78 e0 ff ff 	lea    -0x1f88(%rbp),%rax
   10f1c:	48 89 85 b8 f8 ff ff 	mov    %rax,-0x748(%rbp)
   10f23:	48 8d 85 78 e0 ff ff 	lea    -0x1f88(%rbp),%rax
   10f2a:	48 89 85 c0 f8 ff ff 	mov    %rax,-0x740(%rbp)
   10f31:	48 8d 05 88 01 01 00 	lea    0x10188(%rip),%rax        # 210c0 <g_278>
   10f38:	48 89 85 c8 f8 ff ff 	mov    %rax,-0x738(%rbp)
   10f3f:	48 8d 85 78 e0 ff ff 	lea    -0x1f88(%rbp),%rax
   10f46:	48 89 85 d0 f8 ff ff 	mov    %rax,-0x730(%rbp)
   10f4d:	48 8d 85 78 e0 ff ff 	lea    -0x1f88(%rbp),%rax
   10f54:	48 89 85 d8 f8 ff ff 	mov    %rax,-0x728(%rbp)
   10f5b:	48 8d 05 5e 01 01 00 	lea    0x1015e(%rip),%rax        # 210c0 <g_278>
   10f62:	48 89 85 e0 f8 ff ff 	mov    %rax,-0x720(%rbp)
   10f69:	48 8d 05 50 01 01 00 	lea    0x10150(%rip),%rax        # 210c0 <g_278>
   10f70:	48 89 85 e8 f8 ff ff 	mov    %rax,-0x718(%rbp)
   10f77:	48 8d 85 78 e0 ff ff 	lea    -0x1f88(%rbp),%rax
   10f7e:	48 89 85 f0 f8 ff ff 	mov    %rax,-0x710(%rbp)
   10f85:	48 8d 05 34 01 01 00 	lea    0x10134(%rip),%rax        # 210c0 <g_278>
   10f8c:	48 89 85 f8 f8 ff ff 	mov    %rax,-0x708(%rbp)
   10f93:	48 8d 05 26 01 01 00 	lea    0x10126(%rip),%rax        # 210c0 <g_278>
   10f9a:	48 89 85 00 f9 ff ff 	mov    %rax,-0x700(%rbp)
   10fa1:	48 8d 85 78 e0 ff ff 	lea    -0x1f88(%rbp),%rax
   10fa8:	48 89 85 08 f9 ff ff 	mov    %rax,-0x6f8(%rbp)
   10faf:	48 8d 05 0a 01 01 00 	lea    0x1010a(%rip),%rax        # 210c0 <g_278>
   10fb6:	48 89 85 10 f9 ff ff 	mov    %rax,-0x6f0(%rbp)
   10fbd:	48 8d 05 fc 00 01 00 	lea    0x100fc(%rip),%rax        # 210c0 <g_278>
   10fc4:	48 89 85 18 f9 ff ff 	mov    %rax,-0x6e8(%rbp)
   10fcb:	48 8d 85 78 e0 ff ff 	lea    -0x1f88(%rbp),%rax
   10fd2:	48 89 85 20 f9 ff ff 	mov    %rax,-0x6e0(%rbp)
   10fd9:	48 8d 05 e0 00 01 00 	lea    0x100e0(%rip),%rax        # 210c0 <g_278>
   10fe0:	48 89 85 28 f9 ff ff 	mov    %rax,-0x6d8(%rbp)
   10fe7:	48 8d 05 d2 00 01 00 	lea    0x100d2(%rip),%rax        # 210c0 <g_278>
   10fee:	48 89 85 30 f9 ff ff 	mov    %rax,-0x6d0(%rbp)
   10ff5:	48 8d 85 78 e0 ff ff 	lea    -0x1f88(%rbp),%rax
   10ffc:	48 89 85 38 f9 ff ff 	mov    %rax,-0x6c8(%rbp)
   11003:	48 8d 85 78 e0 ff ff 	lea    -0x1f88(%rbp),%rax
   1100a:	48 89 85 40 f9 ff ff 	mov    %rax,-0x6c0(%rbp)
   11011:	48 8d 05 a8 00 01 00 	lea    0x100a8(%rip),%rax        # 210c0 <g_278>
   11018:	48 89 85 48 f9 ff ff 	mov    %rax,-0x6b8(%rbp)
   1101f:	48 8d 85 78 e0 ff ff 	lea    -0x1f88(%rbp),%rax
   11026:	48 89 85 50 f9 ff ff 	mov    %rax,-0x6b0(%rbp)
   1102d:	48 8d 85 78 e0 ff ff 	lea    -0x1f88(%rbp),%rax
   11034:	48 89 85 58 f9 ff ff 	mov    %rax,-0x6a8(%rbp)
   1103b:	48 8d 05 7e 00 01 00 	lea    0x1007e(%rip),%rax        # 210c0 <g_278>
   11042:	48 89 85 60 f9 ff ff 	mov    %rax,-0x6a0(%rbp)
   11049:	48 8d 85 78 e0 ff ff 	lea    -0x1f88(%rbp),%rax
   11050:	48 89 85 68 f9 ff ff 	mov    %rax,-0x698(%rbp)
   11057:	48 8d 85 78 e0 ff ff 	lea    -0x1f88(%rbp),%rax
   1105e:	48 89 85 70 f9 ff ff 	mov    %rax,-0x690(%rbp)
   11065:	48 8d 05 54 00 01 00 	lea    0x10054(%rip),%rax        # 210c0 <g_278>
   1106c:	48 89 85 78 f9 ff ff 	mov    %rax,-0x688(%rbp)
   11073:	48 8d 85 78 e0 ff ff 	lea    -0x1f88(%rbp),%rax
   1107a:	48 89 85 80 f9 ff ff 	mov    %rax,-0x680(%rbp)
   11081:	48 8d 05 38 00 01 00 	lea    0x10038(%rip),%rax        # 210c0 <g_278>
   11088:	48 89 85 88 f9 ff ff 	mov    %rax,-0x678(%rbp)
   1108f:	48 8d 85 78 e0 ff ff 	lea    -0x1f88(%rbp),%rax
   11096:	48 89 85 90 f9 ff ff 	mov    %rax,-0x670(%rbp)
   1109d:	48 8d 85 78 e0 ff ff 	lea    -0x1f88(%rbp),%rax
   110a4:	48 89 85 98 f9 ff ff 	mov    %rax,-0x668(%rbp)
   110ab:	48 8d 05 0e 00 01 00 	lea    0x1000e(%rip),%rax        # 210c0 <g_278>
   110b2:	48 89 85 a0 f9 ff ff 	mov    %rax,-0x660(%rbp)
   110b9:	48 8d 85 78 e0 ff ff 	lea    -0x1f88(%rbp),%rax
   110c0:	48 89 85 a8 f9 ff ff 	mov    %rax,-0x658(%rbp)
   110c7:	48 8d 85 78 e0 ff ff 	lea    -0x1f88(%rbp),%rax
   110ce:	48 89 85 b0 f9 ff ff 	mov    %rax,-0x650(%rbp)
   110d5:	48 8d 05 e4 ff 00 00 	lea    0xffe4(%rip),%rax        # 210c0 <g_278>
   110dc:	48 89 85 b8 f9 ff ff 	mov    %rax,-0x648(%rbp)
   110e3:	48 8d 85 78 e0 ff ff 	lea    -0x1f88(%rbp),%rax
   110ea:	48 89 85 c0 f9 ff ff 	mov    %rax,-0x640(%rbp)
   110f1:	48 8d 85 78 e0 ff ff 	lea    -0x1f88(%rbp),%rax
   110f8:	48 89 85 c8 f9 ff ff 	mov    %rax,-0x638(%rbp)
   110ff:	48 8d 05 ba ff 00 00 	lea    0xffba(%rip),%rax        # 210c0 <g_278>
   11106:	48 89 85 d0 f9 ff ff 	mov    %rax,-0x630(%rbp)
   1110d:	48 8d 05 ac ff 00 00 	lea    0xffac(%rip),%rax        # 210c0 <g_278>
   11114:	48 89 85 d8 f9 ff ff 	mov    %rax,-0x628(%rbp)
   1111b:	48 8d 85 78 e0 ff ff 	lea    -0x1f88(%rbp),%rax
   11122:	48 89 85 e0 f9 ff ff 	mov    %rax,-0x620(%rbp)
   11129:	48 8d 05 90 ff 00 00 	lea    0xff90(%rip),%rax        # 210c0 <g_278>
   11130:	48 89 85 e8 f9 ff ff 	mov    %rax,-0x618(%rbp)
   11137:	48 8d 05 82 ff 00 00 	lea    0xff82(%rip),%rax        # 210c0 <g_278>
   1113e:	48 89 85 f0 f9 ff ff 	mov    %rax,-0x610(%rbp)
   11145:	48 8d 85 78 e0 ff ff 	lea    -0x1f88(%rbp),%rax
   1114c:	48 89 85 f8 f9 ff ff 	mov    %rax,-0x608(%rbp)
   11153:	48 8d 05 66 ff 00 00 	lea    0xff66(%rip),%rax        # 210c0 <g_278>
   1115a:	48 89 85 00 fa ff ff 	mov    %rax,-0x600(%rbp)
   11161:	48 8d 05 58 ff 00 00 	lea    0xff58(%rip),%rax        # 210c0 <g_278>
   11168:	48 89 85 08 fa ff ff 	mov    %rax,-0x5f8(%rbp)
   1116f:	48 8d 85 78 e0 ff ff 	lea    -0x1f88(%rbp),%rax
   11176:	48 89 85 10 fa ff ff 	mov    %rax,-0x5f0(%rbp)
   1117d:	48 8d 05 3c ff 00 00 	lea    0xff3c(%rip),%rax        # 210c0 <g_278>
   11184:	48 89 85 18 fa ff ff 	mov    %rax,-0x5e8(%rbp)
   1118b:	48 8d 05 2e ff 00 00 	lea    0xff2e(%rip),%rax        # 210c0 <g_278>
   11192:	48 89 85 20 fa ff ff 	mov    %rax,-0x5e0(%rbp)
   11199:	48 8d 85 78 e0 ff ff 	lea    -0x1f88(%rbp),%rax
   111a0:	48 89 85 28 fa ff ff 	mov    %rax,-0x5d8(%rbp)
   111a7:	48 8d 85 78 e0 ff ff 	lea    -0x1f88(%rbp),%rax
   111ae:	48 89 85 30 fa ff ff 	mov    %rax,-0x5d0(%rbp)
   111b5:	48 8d 05 04 ff 00 00 	lea    0xff04(%rip),%rax        # 210c0 <g_278>
   111bc:	48 89 85 38 fa ff ff 	mov    %rax,-0x5c8(%rbp)
   111c3:	48 8d 85 78 e0 ff ff 	lea    -0x1f88(%rbp),%rax
   111ca:	48 89 85 40 fa ff ff 	mov    %rax,-0x5c0(%rbp)
   111d1:	48 8d 85 78 e0 ff ff 	lea    -0x1f88(%rbp),%rax
   111d8:	48 89 85 48 fa ff ff 	mov    %rax,-0x5b8(%rbp)
   111df:	48 8d 05 da fe 00 00 	lea    0xfeda(%rip),%rax        # 210c0 <g_278>
   111e6:	48 89 85 50 fa ff ff 	mov    %rax,-0x5b0(%rbp)
   111ed:	48 8d 85 78 e0 ff ff 	lea    -0x1f88(%rbp),%rax
   111f4:	48 89 85 58 fa ff ff 	mov    %rax,-0x5a8(%rbp)
   111fb:	48 8d 85 78 e0 ff ff 	lea    -0x1f88(%rbp),%rax
   11202:	48 89 85 60 fa ff ff 	mov    %rax,-0x5a0(%rbp)
   11209:	48 8d 05 b0 fe 00 00 	lea    0xfeb0(%rip),%rax        # 210c0 <g_278>
   11210:	48 89 85 68 fa ff ff 	mov    %rax,-0x598(%rbp)
   11217:	48 8d 85 78 e0 ff ff 	lea    -0x1f88(%rbp),%rax
   1121e:	48 89 85 70 fa ff ff 	mov    %rax,-0x590(%rbp)
   11225:	48 8d 05 94 fe 00 00 	lea    0xfe94(%rip),%rax        # 210c0 <g_278>
   1122c:	48 89 85 78 fa ff ff 	mov    %rax,-0x588(%rbp)
   11233:	48 8d 85 78 e0 ff ff 	lea    -0x1f88(%rbp),%rax
   1123a:	48 89 85 80 fa ff ff 	mov    %rax,-0x580(%rbp)
   11241:	48 8d 85 78 e0 ff ff 	lea    -0x1f88(%rbp),%rax
   11248:	48 89 85 88 fa ff ff 	mov    %rax,-0x578(%rbp)
   1124f:	48 8d 05 6a fe 00 00 	lea    0xfe6a(%rip),%rax        # 210c0 <g_278>
   11256:	48 89 85 90 fa ff ff 	mov    %rax,-0x570(%rbp)
   1125d:	48 8d 85 78 e0 ff ff 	lea    -0x1f88(%rbp),%rax
   11264:	48 89 85 98 fa ff ff 	mov    %rax,-0x568(%rbp)
   1126b:	48 8d 85 78 e0 ff ff 	lea    -0x1f88(%rbp),%rax
   11272:	48 89 85 a0 fa ff ff 	mov    %rax,-0x560(%rbp)
   11279:	48 8d 05 40 fe 00 00 	lea    0xfe40(%rip),%rax        # 210c0 <g_278>
   11280:	48 89 85 a8 fa ff ff 	mov    %rax,-0x558(%rbp)
   11287:	48 8d 85 78 e0 ff ff 	lea    -0x1f88(%rbp),%rax
   1128e:	48 89 85 b0 fa ff ff 	mov    %rax,-0x550(%rbp)
   11295:	48 8d 85 78 e0 ff ff 	lea    -0x1f88(%rbp),%rax
   1129c:	48 89 85 b8 fa ff ff 	mov    %rax,-0x548(%rbp)
   112a3:	48 83 85 e8 e3 ff ff 	addq   $0x1,-0x1c18(%rbp)
   112aa:	01 
   112ab:	e9 9c 01 00 00       	jmpq   1144c <func_1+0x5c97>
   112b0:	48 c7 85 a8 e2 ff ff 	movq   $0x0,-0x1d58(%rbp)
   112b7:	00 00 00 00 
   112bb:	48 8d 85 a8 e2 ff ff 	lea    -0x1d58(%rbp),%rax
   112c2:	48 89 85 f8 e3 ff ff 	mov    %rax,-0x1c08(%rbp)
   112c9:	c7 85 68 e1 ff ff 5c 	movl   $0x9a72e95c,-0x1e98(%rbp)
   112d0:	e9 72 9a 
   112d3:	48 8b 85 c8 e2 ff ff 	mov    -0x1d38(%rbp),%rax
   112da:	c7 00 6c 9e 8e 42    	movl   $0x428e9e6c,(%rax)
   112e0:	48 8b 85 18 e2 ff ff 	mov    -0x1de8(%rbp),%rax
   112e7:	8b 10                	mov    (%rax),%edx
   112e9:	48 8b 85 18 e2 ff ff 	mov    -0x1de8(%rbp),%rax
   112f0:	83 ca 01             	or     $0x1,%edx
   112f3:	89 10                	mov    %edx,(%rax)
   112f5:	8b 10                	mov    (%rax),%edx
   112f7:	48 8b 85 c8 e2 ff ff 	mov    -0x1d38(%rbp),%rax
   112fe:	8b 00                	mov    (%rax),%eax
   11300:	09 c2                	or     %eax,%edx
   11302:	48 8b 85 c8 e2 ff ff 	mov    -0x1d38(%rbp),%rax
   11309:	89 10                	mov    %edx,(%rax)
   1130b:	48 8b 85 80 e3 ff ff 	mov    -0x1c80(%rbp),%rax
   11312:	48 3b 85 f0 e3 ff ff 	cmp    -0x1c10(%rbp),%rax
   11319:	0f b6 85 de e8 ff ff 	movzbl -0x1722(%rbp),%eax
   11320:	0f be d8             	movsbl %al,%ebx
   11323:	48 8b 85 e8 e3 ff ff 	mov    -0x1c18(%rbp),%rax
   1132a:	89 c6                	mov    %eax,%esi
   1132c:	bf 00 00 00 00       	mov    $0x0,%edi
   11331:	e8 96 93 ff ff       	callq  a6cc <safe_mod_func_int32_t_s_s>
   11336:	48 98                	cltq   
   11338:	48 23 85 e8 e3 ff ff 	and    -0x1c18(%rbp),%rax
   1133f:	48 89 c2             	mov    %rax,%rdx
   11342:	48 0f bf 85 60 e0 ff 	movswq -0x1fa0(%rbp),%rax
   11349:	ff 
   1134a:	48 39 c2             	cmp    %rax,%rdx
   1134d:	76 10                	jbe    1135f <func_1+0x5baa>
   1134f:	83 bd 68 e1 ff ff 00 	cmpl   $0x0,-0x1e98(%rbp)
   11356:	74 07                	je     1135f <func_1+0x5baa>
   11358:	b8 01 00 00 00       	mov    $0x1,%eax
   1135d:	eb 05                	jmp    11364 <func_1+0x5baf>
   1135f:	b8 00 00 00 00       	mov    $0x0,%eax
   11364:	89 de                	mov    %ebx,%esi
   11366:	89 c7                	mov    %eax,%edi
   11368:	e8 5f 93 ff ff       	callq  a6cc <safe_mod_func_int32_t_s_s>
   1136d:	48 c7 85 a8 e3 ff ff 	movq   $0x0,-0x1c58(%rbp)
   11374:	00 00 00 00 
   11378:	48 8b 05 09 2f 01 00 	mov    0x12f09(%rip),%rax        # 24288 <g_1729>
   1137f:	48 8b 00             	mov    (%rax),%rax
   11382:	8b 00                	mov    (%rax),%eax
   11384:	0d 1b 1b 63 77       	or     $0x77631b1b,%eax
   11389:	89 c0                	mov    %eax,%eax
   1138b:	48 89 c6             	mov    %rax,%rsi
   1138e:	48 bf 3f 43 d9 f5 9e 	movabs $0x7c44a19ef5d9433f,%rdi
   11395:	a1 44 7c 
   11398:	e8 12 9d ff ff       	callq  b0af <safe_div_func_uint64_t_u_u>
   1139d:	48 8d 05 64 2e 01 00 	lea    0x12e64(%rip),%rax        # 24208 <g_1245>
   113a4:	48 8b 00             	mov    (%rax),%rax
   113a7:	48 8b 00             	mov    (%rax),%rax
   113aa:	48 8b 95 d8 e3 ff ff 	mov    -0x1c28(%rbp),%rdx
   113b1:	88 10                	mov    %dl,(%rax)
   113b3:	8b 85 68 e1 ff ff    	mov    -0x1e98(%rbp),%eax
   113b9:	0f b7 c0             	movzwl %ax,%eax
   113bc:	89 c6                	mov    %eax,%esi
   113be:	bf 72 5a 00 00       	mov    $0x5a72,%edi
   113c3:	e8 37 99 ff ff       	callq  acff <safe_add_func_uint16_t_u_u>
   113c8:	0f bf d0             	movswl %ax,%edx
   113cb:	48 83 bd d8 e3 ff ff 	cmpq   $0x0,-0x1c28(%rbp)
   113d2:	00 
   113d3:	74 2e                	je     11403 <func_1+0x5c4e>
   113d5:	48 8b 85 f8 e3 ff ff 	mov    -0x1c08(%rbp),%rax
   113dc:	48 8d 0d 75 2e 01 00 	lea    0x12e75(%rip),%rcx        # 24258 <g_1643>
   113e3:	48 89 08             	mov    %rcx,(%rax)
   113e6:	48 8b 05 ab 2d 01 00 	mov    0x12dab(%rip),%rax        # 24198 <g_1059>
   113ed:	48 8b 00             	mov    (%rax),%rax
   113f0:	48 8d 0d 61 2e 01 00 	lea    0x12e61(%rip),%rcx        # 24258 <g_1643>
   113f7:	48 39 c8             	cmp    %rcx,%rax
   113fa:	74 07                	je     11403 <func_1+0x5c4e>
   113fc:	b8 01 00 00 00       	mov    $0x1,%eax
   11401:	eb 05                	jmp    11408 <func_1+0x5c53>
   11403:	b8 00 00 00 00       	mov    $0x0,%eax
   11408:	98                   	cwtl   
   11409:	89 d6                	mov    %edx,%esi
   1140b:	89 c7                	mov    %eax,%edi
   1140d:	e8 e3 8f ff ff       	callq  a3f5 <safe_mul_func_int16_t_s_s>
   11412:	89 c2                	mov    %eax,%edx
   11414:	48 8b 85 08 e3 ff ff 	mov    -0x1cf8(%rbp),%rax
   1141b:	66 89 10             	mov    %dx,(%rax)
   1141e:	48 8b 85 08 e3 ff ff 	mov    -0x1cf8(%rbp),%rax
   11425:	0f b7 00             	movzwl (%rax),%eax
   11428:	66 85 c0             	test   %ax,%ax
   1142b:	75 0a                	jne    11437 <func_1+0x5c82>
   1142d:	66 83 bd 60 e0 ff ff 	cmpw   $0x0,-0x1fa0(%rbp)
   11434:	00 
   11435:	74 07                	je     1143e <func_1+0x5c89>
   11437:	ba 01 00 00 00       	mov    $0x1,%edx
   1143c:	eb 05                	jmp    11443 <func_1+0x5c8e>
   1143e:	ba 00 00 00 00       	mov    $0x0,%edx
   11443:	48 8b 85 18 e2 ff ff 	mov    -0x1de8(%rbp),%rax
   1144a:	89 10                	mov    %edx,(%rax)
   1144c:	0f b7 85 48 e0 ff ff 	movzwl -0x1fb8(%rbp),%eax
   11453:	83 c0 01             	add    $0x1,%eax
   11456:	66 89 85 48 e0 ff ff 	mov    %ax,-0x1fb8(%rbp)
   1145d:	66 83 bd 48 e0 ff ff 	cmpw   $0x33,-0x1fb8(%rbp)
   11464:	33 
   11465:	0f 85 97 f8 ff ff    	jne    10d02 <func_1+0x554d>
   1146b:	48 8b 85 90 e2 ff ff 	mov    -0x1d70(%rbp),%rax
   11472:	48 8b 00             	mov    (%rax),%rax
   11475:	8b 00                	mov    (%rax),%eax
   11477:	85 c0                	test   %eax,%eax
   11479:	75 35                	jne    114b0 <func_1+0x5cfb>
   1147b:	48 8b 05 76 3c 01 00 	mov    0x13c76(%rip),%rax        # 250f8 <g_2525>
   11482:	48 8b 95 e0 e3 ff ff 	mov    -0x1c20(%rbp),%rdx
   11489:	48 89 10             	mov    %rdx,(%rax)
   1148c:	0f b7 05 75 42 01 00 	movzwl 0x14275(%rip),%eax        # 25708 <g_37>
   11493:	83 c0 01             	add    $0x1,%eax
   11496:	66 89 05 6b 42 01 00 	mov    %ax,0x1426b(%rip)        # 25708 <g_37>
   1149d:	0f b7 05 64 42 01 00 	movzwl 0x14264(%rip),%eax        # 25708 <g_37>
   114a4:	66 83 f8 17          	cmp    $0x17,%ax
   114a8:	0f 8e 27 f8 ff ff    	jle    10cd5 <func_1+0x5520>
   114ae:	eb 01                	jmp    114b1 <func_1+0x5cfc>
   114b0:	90                   	nop
   114b1:	c6 85 3d e0 ff ff ec 	movb   $0xec,-0x1fc3(%rbp)
   114b8:	80 bd 3d e0 ff ff 21 	cmpb   $0x21,-0x1fc3(%rbp)
   114bf:	0f 87 ce 04 00 00    	ja     11993 <func_1+0x61de>
   114c5:	48 8d 05 3c 1f 01 00 	lea    0x11f3c(%rip),%rax        # 23408 <g_291>
   114cc:	48 89 85 88 e4 ff ff 	mov    %rax,-0x1b78(%rbp)
   114d3:	c7 85 80 e1 ff ff 01 	movl   $0x1,-0x1e80(%rbp)
   114da:	00 00 00 
   114dd:	48 b8 7d 2b 34 72 40 	movabs $0x9822574072342b7d,%rax
   114e4:	57 22 98 
   114e7:	48 89 85 90 e4 ff ff 	mov    %rax,-0x1b70(%rbp)
   114ee:	48 8d 85 a0 e0 ff ff 	lea    -0x1f60(%rbp),%rax
   114f5:	48 89 85 98 e4 ff ff 	mov    %rax,-0x1b68(%rbp)
   114fc:	c7 85 1c e1 ff ff f8 	movl   $0xfffffff8,-0x1ee4(%rbp)
   11503:	ff ff ff 
   11506:	0f b6 05 4c fc 00 00 	movzbl 0xfc4c(%rip),%eax        # 21159 <g_501+0x1>
   1150d:	0f be d8             	movsbl %al,%ebx
   11510:	48 8b 85 18 e2 ff ff 	mov    -0x1de8(%rbp),%rax
   11517:	8b 00                	mov    (%rax),%eax
   11519:	4c 63 e0             	movslq %eax,%r12
   1151c:	be 06 00 00 00       	mov    $0x6,%esi
   11521:	bf 00 00 00 00       	mov    $0x0,%edi
   11526:	e8 4f 99 ff ff       	callq  ae7a <safe_rshift_func_uint16_t_u_u>
   1152b:	48 8b 05 16 fc 00 00 	mov    0xfc16(%rip),%rax        # 21148 <g_419>
   11532:	48 8b 05 17 2d 01 00 	mov    0x12d17(%rip),%rax        # 24250 <g_1644>
   11539:	48 8b 00             	mov    (%rax),%rax
   1153c:	48 39 85 88 e3 ff ff 	cmp    %rax,-0x1c78(%rbp)
   11543:	0f 95 c0             	setne  %al
   11546:	0f b6 c0             	movzbl %al,%eax
   11549:	be 01 00 00 00       	mov    $0x1,%esi
   1154e:	48 89 c7             	mov    %rax,%rdi
   11551:	e8 52 93 ff ff       	callq  a8a8 <safe_sub_func_int64_t_s_s>
   11556:	48 8b 05 7b 2e 01 00 	mov    0x12e7b(%rip),%rax        # 243d8 <g_2281>
   1155d:	48 8b 00             	mov    (%rax),%rax
   11560:	48 8b 00             	mov    (%rax),%rax
   11563:	48 8b 10             	mov    (%rax),%rdx
   11566:	8b 85 80 e1 ff ff    	mov    -0x1e80(%rbp),%eax
   1156c:	48 98                	cltq   
   1156e:	48 39 c2             	cmp    %rax,%rdx
   11571:	0f bf 85 60 e0 ff ff 	movswl -0x1fa0(%rbp),%eax
   11578:	be 00 00 00 00       	mov    $0x0,%esi
   1157d:	89 c7                	mov    %eax,%edi
   1157f:	e8 2f 8e ff ff       	callq  a3b3 <safe_add_func_int16_t_s_s>
   11584:	0f b7 c0             	movzwl %ax,%eax
   11587:	be 06 00 00 00       	mov    $0x6,%esi
   1158c:	89 c7                	mov    %eax,%edi
   1158e:	e8 b5 98 ff ff       	callq  ae48 <safe_rshift_func_uint16_t_u_s>
   11593:	48 8b 05 e6 2c 01 00 	mov    0x12ce6(%rip),%rax        # 24280 <g_1730>
   1159a:	8b 00                	mov    (%rax),%eax
   1159c:	85 c0                	test   %eax,%eax
   1159e:	83 bd 2c e1 ff ff 00 	cmpl   $0x0,-0x1ed4(%rbp)
   115a5:	0f 95 c2             	setne  %dl
   115a8:	48 8b 85 30 e2 ff ff 	mov    -0x1dd0(%rbp),%rax
   115af:	0f b6 d2             	movzbl %dl,%edx
   115b2:	48 89 10             	mov    %rdx,(%rax)
   115b5:	48 8b 00             	mov    (%rax),%rax
   115b8:	4c 89 e6             	mov    %r12,%rsi
   115bb:	48 89 c7             	mov    %rax,%rdi
   115be:	e8 34 94 ff ff       	callq  a9f7 <safe_div_func_int64_t_s_s>
   115c3:	b8 01 00 00 00       	mov    $0x1,%eax
   115c8:	85 c0                	test   %eax,%eax
   115ca:	74 10                	je     115dc <func_1+0x5e27>
   115cc:	83 bd d0 e0 ff ff 00 	cmpl   $0x0,-0x1f30(%rbp)
   115d3:	74 07                	je     115dc <func_1+0x5e27>
   115d5:	b8 01 00 00 00       	mov    $0x1,%eax
   115da:	eb 05                	jmp    115e1 <func_1+0x5e2c>
   115dc:	b8 00 00 00 00       	mov    $0x0,%eax
   115e1:	0f b7 c0             	movzwl %ax,%eax
   115e4:	be 03 00 00 00       	mov    $0x3,%esi
   115e9:	89 c7                	mov    %eax,%edi
   115eb:	e8 4d 97 ff ff       	callq  ad3d <safe_mul_func_uint16_t_u_u>
   115f0:	98                   	cwtl   
   115f1:	89 de                	mov    %ebx,%esi
   115f3:	89 c7                	mov    %eax,%edi
   115f5:	e8 1c 8e ff ff       	callq  a416 <safe_mod_func_int16_t_s_s>
   115fa:	0f b7 c0             	movzwl %ax,%eax
   115fd:	be 05 00 00 00       	mov    $0x5,%esi
   11602:	89 c7                	mov    %eax,%edi
   11604:	e8 16 97 ff ff       	callq  ad1f <safe_sub_func_uint16_t_u_u>
   11609:	0f b7 c0             	movzwl %ax,%eax
   1160c:	09 85 58 e1 ff ff    	or     %eax,-0x1ea8(%rbp)
   11612:	48 c7 05 9b fa 00 00 	movq   $0x0,0xfa9b(%rip)        # 210b8 <g_258>
   11619:	00 00 00 00 
   1161d:	e9 4b 03 00 00       	jmpq   1196d <func_1+0x61b8>
   11622:	48 8d 05 37 fb 00 00 	lea    0xfb37(%rip),%rax        # 21160 <g_622>
   11629:	48 89 85 a0 e4 ff ff 	mov    %rax,-0x1b60(%rbp)
   11630:	c7 85 84 e1 ff ff 00 	movl   $0x0,-0x1e7c(%rbp)
   11637:	00 00 00 
   1163a:	48 8d 85 c4 e0 ff ff 	lea    -0x1f3c(%rbp),%rax
   11641:	48 89 85 a8 e4 ff ff 	mov    %rax,-0x1b58(%rbp)
   11648:	48 c7 05 fd fa 00 00 	movq   $0x0,0xfafd(%rip)        # 21150 <g_500>
   1164f:	00 00 00 00 
   11653:	90                   	nop
   11654:	48 8b 05 f5 fa 00 00 	mov    0xfaf5(%rip),%rax        # 21150 <g_500>
   1165b:	48 83 f8 0a          	cmp    $0xa,%rax
   1165f:	74 2a                	je     1168b <func_1+0x5ed6>
   11661:	48 8b 85 c8 e2 ff ff 	mov    -0x1d38(%rbp),%rax
   11668:	8b 10                	mov    (%rax),%edx
   1166a:	0f bf 85 60 e0 ff ff 	movswl -0x1fa0(%rbp),%eax
   11671:	31 c2                	xor    %eax,%edx
   11673:	48 8b 85 c8 e2 ff ff 	mov    -0x1d38(%rbp),%rax
   1167a:	89 10                	mov    %edx,(%rax)
   1167c:	48 8b 05 1d 2b 01 00 	mov    0x12b1d(%rip),%rax        # 241a0 <g_1149>
   11683:	0f b6 00             	movzbl (%rax),%eax
   11686:	e9 82 12 00 00       	jmpq   1290d <func_1+0x7158>
   1168b:	48 8b 95 90 e2 ff ff 	mov    -0x1d70(%rbp),%rdx
   11692:	48 8b 85 90 e2 ff ff 	mov    -0x1d70(%rbp),%rax
   11699:	48 8b 12             	mov    (%rdx),%rdx
   1169c:	48 89 10             	mov    %rdx,(%rax)
   1169f:	48 8b 05 c2 2b 01 00 	mov    0x12bc2(%rip),%rax        # 24268 <g_1662>
   116a6:	8b 18                	mov    (%rax),%ebx
   116a8:	44 0f bf a5 60 e0 ff 	movswl -0x1fa0(%rbp),%r12d
   116af:	ff 
   116b0:	0f b7 85 60 e0 ff ff 	movzwl -0x1fa0(%rbp),%eax
   116b7:	0f b6 c8             	movzbl %al,%ecx
   116ba:	48 8b 85 88 e4 ff ff 	mov    -0x1b78(%rbp),%rax
   116c1:	48 8b 00             	mov    (%rax),%rax
   116c4:	0f b6 10             	movzbl (%rax),%edx
   116c7:	8d 72 01             	lea    0x1(%rdx),%esi
   116ca:	40 88 30             	mov    %sil,(%rax)
   116cd:	0f b6 c2             	movzbl %dl,%eax
   116d0:	89 ce                	mov    %ecx,%esi
   116d2:	89 c7                	mov    %eax,%edi
   116d4:	e8 02 95 ff ff       	callq  abdb <safe_div_func_uint8_t_u_u>
   116d9:	84 c0                	test   %al,%al
   116db:	75 07                	jne    116e4 <func_1+0x5f2f>
   116dd:	80 bd 42 e0 ff ff 00 	cmpb   $0x0,-0x1fbe(%rbp)
   116e4:	48 8b 85 90 e4 ff ff 	mov    -0x1b70(%rbp),%rax
   116eb:	41 89 c5             	mov    %eax,%r13d
   116ee:	48 8b 05 9b 20 01 00 	mov    0x1209b(%rip),%rax        # 23790 <g_418>
   116f5:	48 8b 10             	mov    (%rax),%rdx
   116f8:	48 8b 85 70 e6 ff ff 	mov    -0x1990(%rbp),%rax
   116ff:	48 39 85 a0 e4 ff ff 	cmp    %rax,-0x1b60(%rbp)
   11706:	0f 95 c0             	setne  %al
   11709:	0f b6 c0             	movzbl %al,%eax
   1170c:	39 85 84 e1 ff ff    	cmp    %eax,-0x1e7c(%rbp)
   11712:	0f 9c c0             	setl   %al
   11715:	0f b6 c0             	movzbl %al,%eax
   11718:	48 39 c2             	cmp    %rax,%rdx
   1171b:	0f 9d c0             	setge  %al
   1171e:	0f b6 c0             	movzbl %al,%eax
   11721:	48 8b 95 90 e4 ff ff 	mov    -0x1b70(%rbp),%rdx
   11728:	48 89 d6             	mov    %rdx,%rsi
   1172b:	48 89 c7             	mov    %rax,%rdi
   1172e:	e8 7c 99 ff ff       	callq  b0af <safe_div_func_uint64_t_u_u>
   11733:	0f b6 c0             	movzbl %al,%eax
   11736:	be 01 00 00 00       	mov    $0x1,%esi
   1173b:	89 c7                	mov    %eax,%edi
   1173d:	e8 4b 95 ff ff       	callq  ac8d <safe_rshift_func_uint8_t_u_s>
   11742:	0f b6 c0             	movzbl %al,%eax
   11745:	39 85 84 e1 ff ff    	cmp    %eax,-0x1e7c(%rbp)
   1174b:	0f 9f c0             	setg   %al
   1174e:	0f b6 c0             	movzbl %al,%eax
   11751:	44 89 ee             	mov    %r13d,%esi
   11754:	89 c7                	mov    %eax,%edi
   11756:	e8 37 8d ff ff       	callq  a492 <safe_lshift_func_int16_t_s_s>
   1175b:	0f be c0             	movsbl %al,%eax
   1175e:	be ff ff ff ff       	mov    $0xffffffff,%esi
   11763:	89 c7                	mov    %eax,%edi
   11765:	e8 6a 8a ff ff       	callq  a1d4 <safe_add_func_int8_t_s_s>
   1176a:	48 8b 05 ff 2a 01 00 	mov    0x12aff(%rip),%rax        # 24270 <g_1704>
   11771:	48 c7 00 01 00 00 00 	movq   $0x1,(%rax)
   11778:	48 8b 00             	mov    (%rax),%rax
   1177b:	48 8b 95 90 e4 ff ff 	mov    -0x1b70(%rbp),%rdx
   11782:	48 89 d6             	mov    %rdx,%rsi
   11785:	48 89 c7             	mov    %rax,%rdi
   11788:	e8 f3 98 ff ff       	callq  b080 <safe_mod_func_uint64_t_u_u>
   1178d:	48 85 c0             	test   %rax,%rax
   11790:	74 11                	je     117a3 <func_1+0x5fee>
   11792:	66 83 bd 60 e0 ff ff 	cmpw   $0x0,-0x1fa0(%rbp)
   11799:	00 
   1179a:	74 07                	je     117a3 <func_1+0x5fee>
   1179c:	b8 01 00 00 00       	mov    $0x1,%eax
   117a1:	eb 05                	jmp    117a8 <func_1+0x5ff3>
   117a3:	b8 00 00 00 00       	mov    $0x0,%eax
   117a8:	44 39 e0             	cmp    %r12d,%eax
   117ab:	0f 9e c0             	setle  %al
   117ae:	0f b6 c0             	movzbl %al,%eax
   117b1:	be 00 00 00 00       	mov    $0x0,%esi
   117b6:	89 c7                	mov    %eax,%edi
   117b8:	e8 d6 93 ff ff       	callq  ab93 <safe_mul_func_uint8_t_u_u>
   117bd:	0f b6 c0             	movzbl %al,%eax
   117c0:	89 de                	mov    %ebx,%esi
   117c2:	89 c7                	mov    %eax,%edi
   117c4:	e8 07 97 ff ff       	callq  aed0 <safe_sub_func_uint32_t_u_u>
   117c9:	8b 95 84 e1 ff ff    	mov    -0x1e7c(%rbp),%edx
   117cf:	39 d0                	cmp    %edx,%eax
   117d1:	0f 95 c0             	setne  %al
   117d4:	0f b6 c8             	movzbl %al,%ecx
   117d7:	48 8d 05 2a 2a 01 00 	lea    0x12a2a(%rip),%rax        # 24208 <g_1245>
   117de:	48 8b 00             	mov    (%rax),%rax
   117e1:	48 8b 00             	mov    (%rax),%rax
   117e4:	0f b6 10             	movzbl (%rax),%edx
   117e7:	48 8d 05 1a 2a 01 00 	lea    0x12a1a(%rip),%rax        # 24208 <g_1245>
   117ee:	48 8b 00             	mov    (%rax),%rax
   117f1:	48 8b 00             	mov    (%rax),%rax
   117f4:	31 ca                	xor    %ecx,%edx
   117f6:	88 10                	mov    %dl,(%rax)
   117f8:	0f b6 00             	movzbl (%rax),%eax
   117fb:	66 98                	cbtw   
   117fd:	66 89 85 e2 e6 ff ff 	mov    %ax,-0x191e(%rbp)
   11804:	48 8b 85 18 e2 ff ff 	mov    -0x1de8(%rbp),%rax
   1180b:	c7 00 01 00 00 00    	movl   $0x1,(%rax)
   11811:	48 8b 05 b8 1b 01 00 	mov    0x11bb8(%rip),%rax        # 233d0 <g_124>
   11818:	48 8b 00             	mov    (%rax),%rax
   1181b:	8b 00                	mov    (%rax),%eax
   1181d:	41 89 c5             	mov    %eax,%r13d
   11820:	8b 9d 84 e1 ff ff    	mov    -0x1e7c(%rbp),%ebx
   11826:	48 8d 05 db 29 01 00 	lea    0x129db(%rip),%rax        # 24208 <g_1245>
   1182d:	48 8b 00             	mov    (%rax),%rax
   11830:	48 8b 10             	mov    (%rax),%rdx
   11833:	48 8d 05 ce 29 01 00 	lea    0x129ce(%rip),%rax        # 24208 <g_1245>
   1183a:	48 8b 00             	mov    (%rax),%rax
   1183d:	48 8b 00             	mov    (%rax),%rax
   11840:	0f b6 12             	movzbl (%rdx),%edx
   11843:	88 10                	mov    %dl,(%rax)
   11845:	0f b6 00             	movzbl (%rax),%eax
   11848:	0f b6 c0             	movzbl %al,%eax
   1184b:	89 c6                	mov    %eax,%esi
   1184d:	bf e1 00 00 00       	mov    $0xe1,%edi
   11852:	e8 3c 93 ff ff       	callq  ab93 <safe_mul_func_uint8_t_u_u>
   11857:	0f b6 c0             	movzbl %al,%eax
   1185a:	f7 d0                	not    %eax
   1185c:	41 89 c4             	mov    %eax,%r12d
   1185f:	48 83 bd 90 e4 ff ff 	cmpq   $0x0,-0x1b70(%rbp)
   11866:	00 
   11867:	75 42                	jne    118ab <func_1+0x60f6>
   11869:	48 8b 85 90 e2 ff ff 	mov    -0x1d70(%rbp),%rax
   11870:	48 8b 00             	mov    (%rax),%rax
   11873:	8b 00                	mov    (%rax),%eax
   11875:	89 c2                	mov    %eax,%edx
   11877:	0f b7 85 e2 e6 ff ff 	movzwl -0x191e(%rbp),%eax
   1187e:	31 d0                	xor    %edx,%eax
   11880:	0f b6 c0             	movzbl %al,%eax
   11883:	be 02 00 00 00       	mov    $0x2,%esi
   11888:	89 c7                	mov    %eax,%edi
   1188a:	e8 bd 93 ff ff       	callq  ac4c <safe_lshift_func_uint8_t_u_u>
   1188f:	0f b6 d0             	movzbl %al,%edx
   11892:	48 8b 85 a8 e4 ff ff 	mov    -0x1b58(%rbp),%rax
   11899:	66 89 10             	mov    %dx,(%rax)
   1189c:	48 8b 85 a8 e4 ff ff 	mov    -0x1b58(%rbp),%rax
   118a3:	0f b7 00             	movzwl (%rax),%eax
   118a6:	66 85 c0             	test   %ax,%ax
   118a9:	74 07                	je     118b2 <func_1+0x60fd>
   118ab:	b8 01 00 00 00       	mov    $0x1,%eax
   118b0:	eb 05                	jmp    118b7 <func_1+0x6102>
   118b2:	b8 00 00 00 00       	mov    $0x0,%eax
   118b7:	44 39 e0             	cmp    %r12d,%eax
   118ba:	0f 95 c0             	setne  %al
   118bd:	0f b6 c0             	movzbl %al,%eax
   118c0:	39 85 30 e1 ff ff    	cmp    %eax,-0x1ed0(%rbp)
   118c6:	0f 9c c0             	setl   %al
   118c9:	0f b6 c0             	movzbl %al,%eax
   118cc:	be 01 00 00 00       	mov    $0x1,%esi
   118d1:	89 c7                	mov    %eax,%edi
   118d3:	e8 5d 8a ff ff       	callq  a335 <safe_rshift_func_int8_t_s_s>
   118d8:	66 98                	cbtw   
   118da:	48 8b 15 8f f8 00 00 	mov    0xf88f(%rip),%rdx        # 21170 <g_967>
   118e1:	09 d0                	or     %edx,%eax
   118e3:	0f b7 c0             	movzwl %ax,%eax
   118e6:	89 de                	mov    %ebx,%esi
   118e8:	89 c7                	mov    %eax,%edi
   118ea:	e8 8b 95 ff ff       	callq  ae7a <safe_rshift_func_uint16_t_u_u>
   118ef:	0f b7 c0             	movzwl %ax,%eax
   118f2:	44 89 ee             	mov    %r13d,%esi
   118f5:	89 c7                	mov    %eax,%edi
   118f7:	e8 d4 95 ff ff       	callq  aed0 <safe_sub_func_uint32_t_u_u>
   118fc:	89 c3                	mov    %eax,%ebx
   118fe:	8b 85 84 e1 ff ff    	mov    -0x1e7c(%rbp),%eax
   11904:	98                   	cwtl   
   11905:	be 0c 00 00 00       	mov    $0xc,%esi
   1190a:	89 c7                	mov    %eax,%edi
   1190c:	e8 d0 8b ff ff       	callq  a4e1 <safe_lshift_func_int16_t_s_u>
   11911:	98                   	cwtl   
   11912:	89 de                	mov    %ebx,%esi
   11914:	89 c7                	mov    %eax,%edi
   11916:	e8 e4 8d ff ff       	callq  a6ff <safe_div_func_int32_t_s_s>
   1191b:	48 98                	cltq   
   1191d:	48 39 85 90 e4 ff ff 	cmp    %rax,-0x1b70(%rbp)
   11924:	8b 85 84 e1 ff ff    	mov    -0x1e7c(%rbp),%eax
   1192a:	48 63 d0             	movslq %eax,%rdx
   1192d:	48 8b 05 04 20 01 00 	mov    0x12004(%rip),%rax        # 23938 <g_494>
   11934:	48 8b 00             	mov    (%rax),%rax
   11937:	48 8b 00             	mov    (%rax),%rax
   1193a:	48 8b 00             	mov    (%rax),%rax
   1193d:	48 39 c2             	cmp    %rax,%rdx
   11940:	0f 95 c0             	setne  %al
   11943:	0f b6 c0             	movzbl %al,%eax
   11946:	31 85 1c e1 ff ff    	xor    %eax,-0x1ee4(%rbp)
   1194c:	48 8b 05 65 f7 00 00 	mov    0xf765(%rip),%rax        # 210b8 <g_258>
   11953:	0f be c0             	movsbl %al,%eax
   11956:	be 01 00 00 00       	mov    $0x1,%esi
   1195b:	89 c7                	mov    %eax,%edi
   1195d:	e8 72 88 ff ff       	callq  a1d4 <safe_add_func_int8_t_s_s>
   11962:	48 0f be c0          	movsbq %al,%rax
   11966:	48 89 05 4b f7 00 00 	mov    %rax,0xf74b(%rip)        # 210b8 <g_258>
   1196d:	48 8b 05 44 f7 00 00 	mov    0xf744(%rip),%rax        # 210b8 <g_258>
   11974:	48 83 f8 04          	cmp    $0x4,%rax
   11978:	0f 8f a4 fc ff ff    	jg     11622 <func_1+0x5e6d>
   1197e:	48 8d 05 83 28 01 00 	lea    0x12883(%rip),%rax        # 24208 <g_1245>
   11985:	48 8b 00             	mov    (%rax),%rax
   11988:	48 8b 00             	mov    (%rax),%rax
   1198b:	0f b6 00             	movzbl (%rax),%eax
   1198e:	e9 7a 0f 00 00       	jmpq   1290d <func_1+0x7158>
   11993:	c7 85 d0 e0 ff ff 00 	movl   $0x0,-0x1f30(%rbp)
   1199a:	00 00 00 
   1199d:	e9 01 0f 00 00       	jmpq   128a3 <func_1+0x70ee>
   119a2:	48 8d 05 97 f6 00 00 	lea    0xf697(%rip),%rax        # 21040 <g_9>
   119a9:	48 89 85 28 e4 ff ff 	mov    %rax,-0x1bd8(%rbp)
   119b0:	c7 85 10 e9 ff ff 00 	movl   $0x0,-0x16f0(%rbp)
   119b7:	00 00 00 
   119ba:	c7 85 14 e9 ff ff 00 	movl   $0x0,-0x16ec(%rbp)
   119c1:	00 00 00 
   119c4:	c7 85 18 e9 ff ff 5e 	movl   $0x27f4ed5e,-0x16e8(%rbp)
   119cb:	ed f4 27 
   119ce:	c7 85 1c e9 ff ff 00 	movl   $0x0,-0x16e4(%rbp)
   119d5:	00 00 00 
   119d8:	c7 85 20 e9 ff ff 00 	movl   $0x0,-0x16e0(%rbp)
   119df:	00 00 00 
   119e2:	c7 85 24 e9 ff ff 5e 	movl   $0x27f4ed5e,-0x16dc(%rbp)
   119e9:	ed f4 27 
   119ec:	c7 85 28 e9 ff ff 00 	movl   $0x0,-0x16d8(%rbp)
   119f3:	00 00 00 
   119f6:	c7 85 2c e9 ff ff 00 	movl   $0x0,-0x16d4(%rbp)
   119fd:	00 00 00 
   11a00:	c7 85 30 e9 ff ff 5e 	movl   $0x27f4ed5e,-0x16d0(%rbp)
   11a07:	ed f4 27 
   11a0a:	c7 85 34 e9 ff ff 00 	movl   $0x0,-0x16cc(%rbp)
   11a11:	00 00 00 
   11a14:	c7 85 38 e9 ff ff 00 	movl   $0x0,-0x16c8(%rbp)
   11a1b:	00 00 00 
   11a1e:	c7 85 3c e9 ff ff 5e 	movl   $0x27f4ed5e,-0x16c4(%rbp)
   11a25:	ed f4 27 
   11a28:	c7 85 40 e9 ff ff 00 	movl   $0x0,-0x16c0(%rbp)
   11a2f:	00 00 00 
   11a32:	c7 85 44 e9 ff ff 00 	movl   $0x0,-0x16bc(%rbp)
   11a39:	00 00 00 
   11a3c:	c7 85 48 e9 ff ff 5e 	movl   $0x27f4ed5e,-0x16b8(%rbp)
   11a43:	ed f4 27 
   11a46:	c7 85 4c e9 ff ff 00 	movl   $0x0,-0x16b4(%rbp)
   11a4d:	00 00 00 
   11a50:	48 8d 05 a1 19 01 00 	lea    0x119a1(%rip),%rax        # 233f8 <g_288>
   11a57:	48 89 85 30 e4 ff ff 	mov    %rax,-0x1bd0(%rbp)
   11a5e:	c7 85 6c e1 ff ff 9f 	movl   $0x9b70e39f,-0x1e94(%rbp)
   11a65:	e3 70 9b 
   11a68:	48 8d 85 70 e6 ff ff 	lea    -0x1990(%rbp),%rax
   11a6f:	48 89 85 38 e4 ff ff 	mov    %rax,-0x1bc8(%rbp)
   11a76:	48 8d 05 cb 36 01 00 	lea    0x136cb(%rip),%rax        # 25148 <g_2698+0x28>
   11a7d:	48 89 85 40 e4 ff ff 	mov    %rax,-0x1bc0(%rbp)
   11a84:	48 8d 05 d9 f8 00 00 	lea    0xf8d9(%rip),%rax        # 21364 <g_1897+0x4>
   11a8b:	48 89 85 48 e4 ff ff 	mov    %rax,-0x1bb8(%rbp)
   11a92:	48 8d 85 36 e0 ff ff 	lea    -0x1fca(%rbp),%rax
   11a99:	48 89 85 50 e4 ff ff 	mov    %rax,-0x1bb0(%rbp)
   11aa0:	c7 45 d2 00 05 05 00 	movl   $0x50500,-0x2e(%rbp)
   11aa7:	66 c7 45 d6 05 05    	movw   $0x505,-0x2a(%rbp)
   11aad:	48 c7 85 f0 f7 ff ff 	movq   $0x0,-0x810(%rbp)
   11ab4:	00 00 00 00 
   11ab8:	48 8d 85 a4 e0 ff ff 	lea    -0x1f5c(%rbp),%rax
   11abf:	48 89 85 f8 f7 ff ff 	mov    %rax,-0x808(%rbp)
   11ac6:	48 8d 05 83 f5 00 00 	lea    0xf583(%rip),%rax        # 21050 <g_99>
   11acd:	48 89 85 00 f8 ff ff 	mov    %rax,-0x800(%rbp)
   11ad4:	48 8d 05 45 f6 00 00 	lea    0xf645(%rip),%rax        # 21120 <g_354+0x40>
   11adb:	48 89 85 08 f8 ff ff 	mov    %rax,-0x7f8(%rbp)
   11ae2:	48 8d 05 37 f6 00 00 	lea    0xf637(%rip),%rax        # 21120 <g_354+0x40>
   11ae9:	48 89 85 10 f8 ff ff 	mov    %rax,-0x7f0(%rbp)
   11af0:	48 8d 05 f5 f5 00 00 	lea    0xf5f5(%rip),%rax        # 210ec <g_354+0xc>
   11af7:	48 89 85 18 f8 ff ff 	mov    %rax,-0x7e8(%rbp)
   11afe:	48 8d 85 50 e6 ff ff 	lea    -0x19b0(%rbp),%rax
   11b05:	48 83 c0 04          	add    $0x4,%rax
   11b09:	48 89 85 20 f8 ff ff 	mov    %rax,-0x7e0(%rbp)
   11b10:	48 8d 85 a4 e0 ff ff 	lea    -0x1f5c(%rbp),%rax
   11b17:	48 89 85 28 f8 ff ff 	mov    %rax,-0x7d8(%rbp)
   11b1e:	48 8d 85 a4 e0 ff ff 	lea    -0x1f5c(%rbp),%rax
   11b25:	48 89 85 30 f8 ff ff 	mov    %rax,-0x7d0(%rbp)
   11b2c:	48 8d 05 7d a5 00 00 	lea    0xa57d(%rip),%rax        # 1c0b0 <g_646>
   11b33:	48 89 85 38 f8 ff ff 	mov    %rax,-0x7c8(%rbp)
   11b3a:	48 8d 85 50 e6 ff ff 	lea    -0x19b0(%rbp),%rax
   11b41:	48 83 c0 04          	add    $0x4,%rax
   11b45:	48 89 85 40 f8 ff ff 	mov    %rax,-0x7c0(%rbp)
   11b4c:	48 8d 05 cd f5 00 00 	lea    0xf5cd(%rip),%rax        # 21120 <g_354+0x40>
   11b53:	48 89 85 48 f8 ff ff 	mov    %rax,-0x7b8(%rbp)
   11b5a:	48 8d 05 bf f5 00 00 	lea    0xf5bf(%rip),%rax        # 21120 <g_354+0x40>
   11b61:	48 89 85 50 f8 ff ff 	mov    %rax,-0x7b0(%rbp)
   11b68:	48 8d 05 c1 f5 00 00 	lea    0xf5c1(%rip),%rax        # 21130 <g_354+0x50>
   11b6f:	48 89 85 58 f8 ff ff 	mov    %rax,-0x7a8(%rbp)
   11b76:	48 8d 05 d3 f4 00 00 	lea    0xf4d3(%rip),%rax        # 21050 <g_99>
   11b7d:	48 89 85 60 f8 ff ff 	mov    %rax,-0x7a0(%rbp)
   11b84:	48 8d 85 50 e6 ff ff 	lea    -0x19b0(%rbp),%rax
   11b8b:	48 89 85 68 f8 ff ff 	mov    %rax,-0x798(%rbp)
   11b92:	48 c7 85 70 f8 ff ff 	movq   $0x0,-0x790(%rbp)
   11b99:	00 00 00 00 
   11b9d:	48 8d 85 50 e6 ff ff 	lea    -0x19b0(%rbp),%rax
   11ba4:	48 89 85 78 f8 ff ff 	mov    %rax,-0x788(%rbp)
   11bab:	48 8d 05 6e f5 00 00 	lea    0xf56e(%rip),%rax        # 21120 <g_354+0x40>
   11bb2:	48 89 85 80 f8 ff ff 	mov    %rax,-0x780(%rbp)
   11bb9:	48 8d 05 94 f4 00 00 	lea    0xf494(%rip),%rax        # 21054 <g_99+0x4>
   11bc0:	48 89 85 88 f8 ff ff 	mov    %rax,-0x778(%rbp)
   11bc7:	48 8d 05 52 f5 00 00 	lea    0xf552(%rip),%rax        # 21120 <g_354+0x40>
   11bce:	48 89 85 90 f8 ff ff 	mov    %rax,-0x770(%rbp)
   11bd5:	48 8d 05 78 f4 00 00 	lea    0xf478(%rip),%rax        # 21054 <g_99+0x4>
   11bdc:	48 89 85 98 f8 ff ff 	mov    %rax,-0x768(%rbp)
   11be3:	48 8d 85 50 e6 ff ff 	lea    -0x19b0(%rbp),%rax
   11bea:	48 83 c0 04          	add    $0x4,%rax
   11bee:	48 89 85 a0 f8 ff ff 	mov    %rax,-0x760(%rbp)
   11bf5:	48 8d 05 34 f5 00 00 	lea    0xf534(%rip),%rax        # 21130 <g_354+0x50>
   11bfc:	48 89 85 a8 f8 ff ff 	mov    %rax,-0x758(%rbp)
   11c03:	48 8d 85 a4 e0 ff ff 	lea    -0x1f5c(%rbp),%rax
   11c0a:	48 89 85 b0 f8 ff ff 	mov    %rax,-0x750(%rbp)
   11c11:	48 8d 85 a4 e0 ff ff 	lea    -0x1f5c(%rbp),%rax
   11c18:	48 89 85 b8 f8 ff ff 	mov    %rax,-0x748(%rbp)
   11c1f:	48 c7 85 c0 f8 ff ff 	movq   $0x0,-0x740(%rbp)
   11c26:	00 00 00 00 
   11c2a:	48 c7 85 c8 f8 ff ff 	movq   $0x0,-0x738(%rbp)
   11c31:	00 00 00 00 
   11c35:	48 c7 85 d0 f8 ff ff 	movq   $0x0,-0x730(%rbp)
   11c3c:	00 00 00 00 
   11c40:	48 c7 85 d8 f8 ff ff 	movq   $0x0,-0x728(%rbp)
   11c47:	00 00 00 00 
   11c4b:	48 8d 05 ce f4 00 00 	lea    0xf4ce(%rip),%rax        # 21120 <g_354+0x40>
   11c52:	48 89 85 e0 f8 ff ff 	mov    %rax,-0x720(%rbp)
   11c59:	48 8d 85 50 e6 ff ff 	lea    -0x19b0(%rbp),%rax
   11c60:	48 89 85 e8 f8 ff ff 	mov    %rax,-0x718(%rbp)
   11c67:	48 8d 05 e2 f3 00 00 	lea    0xf3e2(%rip),%rax        # 21050 <g_99>
   11c6e:	48 89 85 f0 f8 ff ff 	mov    %rax,-0x710(%rbp)
   11c75:	48 8d 05 90 f4 00 00 	lea    0xf490(%rip),%rax        # 2110c <g_354+0x2c>
   11c7c:	48 89 85 f8 f8 ff ff 	mov    %rax,-0x708(%rbp)
   11c83:	48 8d 05 26 a4 00 00 	lea    0xa426(%rip),%rax        # 1c0b0 <g_646>
   11c8a:	48 89 85 00 f9 ff ff 	mov    %rax,-0x700(%rbp)
   11c91:	48 8d 85 50 e6 ff ff 	lea    -0x19b0(%rbp),%rax
   11c98:	48 83 c0 04          	add    $0x4,%rax
   11c9c:	48 89 85 08 f9 ff ff 	mov    %rax,-0x6f8(%rbp)
   11ca3:	48 8d 85 50 e6 ff ff 	lea    -0x19b0(%rbp),%rax
   11caa:	48 89 85 10 f9 ff ff 	mov    %rax,-0x6f0(%rbp)
   11cb1:	48 8d 85 50 e6 ff ff 	lea    -0x19b0(%rbp),%rax
   11cb8:	48 89 85 18 f9 ff ff 	mov    %rax,-0x6e8(%rbp)
   11cbf:	48 8d 85 a4 e0 ff ff 	lea    -0x1f5c(%rbp),%rax
   11cc6:	48 89 85 20 f9 ff ff 	mov    %rax,-0x6e0(%rbp)
   11ccd:	48 8d 05 dc a3 00 00 	lea    0xa3dc(%rip),%rax        # 1c0b0 <g_646>
   11cd4:	48 89 85 28 f9 ff ff 	mov    %rax,-0x6d8(%rbp)
   11cdb:	48 8d 05 3e f4 00 00 	lea    0xf43e(%rip),%rax        # 21120 <g_354+0x40>
   11ce2:	48 89 85 30 f9 ff ff 	mov    %rax,-0x6d0(%rbp)
   11ce9:	48 8d 85 50 e6 ff ff 	lea    -0x19b0(%rbp),%rax
   11cf0:	48 89 85 38 f9 ff ff 	mov    %rax,-0x6c8(%rbp)
   11cf7:	48 8d 05 b2 a3 00 00 	lea    0xa3b2(%rip),%rax        # 1c0b0 <g_646>
   11cfe:	48 89 85 40 f9 ff ff 	mov    %rax,-0x6c0(%rbp)
   11d05:	48 8d 85 50 e6 ff ff 	lea    -0x19b0(%rbp),%rax
   11d0c:	48 83 c0 04          	add    $0x4,%rax
   11d10:	48 89 85 48 f9 ff ff 	mov    %rax,-0x6b8(%rbp)
   11d17:	48 8d 85 50 e6 ff ff 	lea    -0x19b0(%rbp),%rax
   11d1e:	48 89 85 50 f9 ff ff 	mov    %rax,-0x6b0(%rbp)
   11d25:	48 8d 05 e0 f3 00 00 	lea    0xf3e0(%rip),%rax        # 2110c <g_354+0x2c>
   11d2c:	48 89 85 58 f9 ff ff 	mov    %rax,-0x6a8(%rbp)
   11d33:	48 8d 85 a4 e0 ff ff 	lea    -0x1f5c(%rbp),%rax
   11d3a:	48 89 85 60 f9 ff ff 	mov    %rax,-0x6a0(%rbp)
   11d41:	48 8d 85 50 e6 ff ff 	lea    -0x19b0(%rbp),%rax
   11d48:	48 89 85 68 f9 ff ff 	mov    %rax,-0x698(%rbp)
   11d4f:	48 8d 85 50 e6 ff ff 	lea    -0x19b0(%rbp),%rax
   11d56:	48 89 85 70 f9 ff ff 	mov    %rax,-0x690(%rbp)
   11d5d:	48 c7 85 78 f9 ff ff 	movq   $0x0,-0x688(%rbp)
   11d64:	00 00 00 00 
   11d68:	48 8d 05 41 a3 00 00 	lea    0xa341(%rip),%rax        # 1c0b0 <g_646>
   11d6f:	48 89 85 80 f9 ff ff 	mov    %rax,-0x680(%rbp)
   11d76:	48 c7 85 88 f9 ff ff 	movq   $0x0,-0x678(%rbp)
   11d7d:	00 00 00 00 
   11d81:	48 8d 85 a4 e0 ff ff 	lea    -0x1f5c(%rbp),%rax
   11d88:	48 89 85 90 f9 ff ff 	mov    %rax,-0x670(%rbp)
   11d8f:	48 8d 85 a4 e0 ff ff 	lea    -0x1f5c(%rbp),%rax
   11d96:	48 89 85 98 f9 ff ff 	mov    %rax,-0x668(%rbp)
   11d9d:	48 8d 85 50 e6 ff ff 	lea    -0x19b0(%rbp),%rax
   11da4:	48 89 85 a0 f9 ff ff 	mov    %rax,-0x660(%rbp)
   11dab:	48 8d 05 7e f3 00 00 	lea    0xf37e(%rip),%rax        # 21130 <g_354+0x50>
   11db2:	48 89 85 a8 f9 ff ff 	mov    %rax,-0x658(%rbp)
   11db9:	48 8d 05 f0 a2 00 00 	lea    0xa2f0(%rip),%rax        # 1c0b0 <g_646>
   11dc0:	48 89 85 b0 f9 ff ff 	mov    %rax,-0x650(%rbp)
   11dc7:	48 8d 05 86 f2 00 00 	lea    0xf286(%rip),%rax        # 21054 <g_99+0x4>
   11dce:	48 89 85 b8 f9 ff ff 	mov    %rax,-0x648(%rbp)
   11dd5:	48 c7 85 c0 f9 ff ff 	movq   $0x0,-0x640(%rbp)
   11ddc:	00 00 00 00 
   11de0:	48 8d 05 6d f2 00 00 	lea    0xf26d(%rip),%rax        # 21054 <g_99+0x4>
   11de7:	48 89 85 c8 f9 ff ff 	mov    %rax,-0x638(%rbp)
   11dee:	48 8d 05 bb a2 00 00 	lea    0xa2bb(%rip),%rax        # 1c0b0 <g_646>
   11df5:	48 89 85 d0 f9 ff ff 	mov    %rax,-0x630(%rbp)
   11dfc:	48 8d 85 50 e6 ff ff 	lea    -0x19b0(%rbp),%rax
   11e03:	48 89 85 d8 f9 ff ff 	mov    %rax,-0x628(%rbp)
   11e0a:	48 8d 05 1f f3 00 00 	lea    0xf31f(%rip),%rax        # 21130 <g_354+0x50>
   11e11:	48 89 85 e0 f9 ff ff 	mov    %rax,-0x620(%rbp)
   11e18:	48 8d 85 50 e6 ff ff 	lea    -0x19b0(%rbp),%rax
   11e1f:	48 89 85 e8 f9 ff ff 	mov    %rax,-0x618(%rbp)
   11e26:	48 c7 85 f0 f9 ff ff 	movq   $0x0,-0x610(%rbp)
   11e2d:	00 00 00 00 
   11e31:	48 8d 05 f8 f2 00 00 	lea    0xf2f8(%rip),%rax        # 21130 <g_354+0x50>
   11e38:	48 89 85 f8 f9 ff ff 	mov    %rax,-0x608(%rbp)
   11e3f:	48 8d 85 50 e6 ff ff 	lea    -0x19b0(%rbp),%rax
   11e46:	48 89 85 00 fa ff ff 	mov    %rax,-0x600(%rbp)
   11e4d:	48 8d 05 fc f1 00 00 	lea    0xf1fc(%rip),%rax        # 21050 <g_99>
   11e54:	48 89 85 08 fa ff ff 	mov    %rax,-0x5f8(%rbp)
   11e5b:	48 8d 85 a4 e0 ff ff 	lea    -0x1f5c(%rbp),%rax
   11e62:	48 89 85 10 fa ff ff 	mov    %rax,-0x5f0(%rbp)
   11e69:	48 8d 05 e0 f1 00 00 	lea    0xf1e0(%rip),%rax        # 21050 <g_99>
   11e70:	48 89 85 18 fa ff ff 	mov    %rax,-0x5e8(%rbp)
   11e77:	48 8d 85 50 e6 ff ff 	lea    -0x19b0(%rbp),%rax
   11e7e:	48 89 85 20 fa ff ff 	mov    %rax,-0x5e0(%rbp)
   11e85:	48 8d 05 c8 f1 00 00 	lea    0xf1c8(%rip),%rax        # 21054 <g_99+0x4>
   11e8c:	48 89 85 28 fa ff ff 	mov    %rax,-0x5d8(%rbp)
   11e93:	48 8d 85 a4 e0 ff ff 	lea    -0x1f5c(%rbp),%rax
   11e9a:	48 89 85 30 fa ff ff 	mov    %rax,-0x5d0(%rbp)
   11ea1:	48 8d 05 64 f2 00 00 	lea    0xf264(%rip),%rax        # 2110c <g_354+0x2c>
   11ea8:	48 89 85 38 fa ff ff 	mov    %rax,-0x5c8(%rbp)
   11eaf:	48 8d 85 50 e6 ff ff 	lea    -0x19b0(%rbp),%rax
   11eb6:	48 89 85 40 fa ff ff 	mov    %rax,-0x5c0(%rbp)
   11ebd:	48 c7 85 48 fa ff ff 	movq   $0x0,-0x5b8(%rbp)
   11ec4:	00 00 00 00 
   11ec8:	48 8d 05 51 f2 00 00 	lea    0xf251(%rip),%rax        # 21120 <g_354+0x40>
   11ecf:	48 89 85 50 fa ff ff 	mov    %rax,-0x5b0(%rbp)
   11ed6:	48 8d 05 77 f1 00 00 	lea    0xf177(%rip),%rax        # 21054 <g_99+0x4>
   11edd:	48 89 85 58 fa ff ff 	mov    %rax,-0x5a8(%rbp)
   11ee4:	48 c7 85 60 fa ff ff 	movq   $0x0,-0x5a0(%rbp)
   11eeb:	00 00 00 00 
   11eef:	48 8d 05 ba a1 00 00 	lea    0xa1ba(%rip),%rax        # 1c0b0 <g_646>
   11ef6:	48 89 85 68 fa ff ff 	mov    %rax,-0x598(%rbp)
   11efd:	48 8d 05 50 f1 00 00 	lea    0xf150(%rip),%rax        # 21054 <g_99+0x4>
   11f04:	48 89 85 70 fa ff ff 	mov    %rax,-0x590(%rbp)
   11f0b:	48 8d 85 a4 e0 ff ff 	lea    -0x1f5c(%rbp),%rax
   11f12:	48 89 85 78 fa ff ff 	mov    %rax,-0x588(%rbp)
   11f19:	48 8d 05 90 a1 00 00 	lea    0xa190(%rip),%rax        # 1c0b0 <g_646>
   11f20:	48 89 85 80 fa ff ff 	mov    %rax,-0x580(%rbp)
   11f27:	48 8d 85 50 e6 ff ff 	lea    -0x19b0(%rbp),%rax
   11f2e:	48 83 c0 04          	add    $0x4,%rax
   11f32:	48 89 85 88 fa ff ff 	mov    %rax,-0x578(%rbp)
   11f39:	48 8d 05 10 f1 00 00 	lea    0xf110(%rip),%rax        # 21050 <g_99>
   11f40:	48 89 85 90 fa ff ff 	mov    %rax,-0x570(%rbp)
   11f47:	48 8d 85 50 e6 ff ff 	lea    -0x19b0(%rbp),%rax
   11f4e:	48 89 85 98 fa ff ff 	mov    %rax,-0x568(%rbp)
   11f55:	48 8d 85 50 e6 ff ff 	lea    -0x19b0(%rbp),%rax
   11f5c:	48 83 c0 04          	add    $0x4,%rax
   11f60:	48 89 85 a0 fa ff ff 	mov    %rax,-0x560(%rbp)
   11f67:	48 8d 85 a4 e0 ff ff 	lea    -0x1f5c(%rbp),%rax
   11f6e:	48 89 85 a8 fa ff ff 	mov    %rax,-0x558(%rbp)
   11f75:	48 8d 05 34 a1 00 00 	lea    0xa134(%rip),%rax        # 1c0b0 <g_646>
   11f7c:	48 89 85 b0 fa ff ff 	mov    %rax,-0x550(%rbp)
   11f83:	48 8d 05 c6 f0 00 00 	lea    0xf0c6(%rip),%rax        # 21050 <g_99>
   11f8a:	48 89 85 b8 fa ff ff 	mov    %rax,-0x548(%rbp)
   11f91:	48 8d 05 b8 f0 00 00 	lea    0xf0b8(%rip),%rax        # 21050 <g_99>
   11f98:	48 89 85 c0 fa ff ff 	mov    %rax,-0x540(%rbp)
   11f9f:	48 8d 05 0a a1 00 00 	lea    0xa10a(%rip),%rax        # 1c0b0 <g_646>
   11fa6:	48 89 85 c8 fa ff ff 	mov    %rax,-0x538(%rbp)
   11fad:	48 8d 05 7c f1 00 00 	lea    0xf17c(%rip),%rax        # 21130 <g_354+0x50>
   11fb4:	48 89 85 d0 fa ff ff 	mov    %rax,-0x530(%rbp)
   11fbb:	48 8d 85 50 e6 ff ff 	lea    -0x19b0(%rbp),%rax
   11fc2:	48 89 85 d8 fa ff ff 	mov    %rax,-0x528(%rbp)
   11fc9:	48 c7 85 e0 fa ff ff 	movq   $0x0,-0x520(%rbp)
   11fd0:	00 00 00 00 
   11fd4:	48 8d 85 a4 e0 ff ff 	lea    -0x1f5c(%rbp),%rax
   11fdb:	48 89 85 e8 fa ff ff 	mov    %rax,-0x518(%rbp)
   11fe2:	48 8d 85 50 e6 ff ff 	lea    -0x19b0(%rbp),%rax
   11fe9:	48 89 85 f0 fa ff ff 	mov    %rax,-0x510(%rbp)
   11ff0:	48 c7 85 f8 fa ff ff 	movq   $0x0,-0x508(%rbp)
   11ff7:	00 00 00 00 
   11ffb:	48 8d 05 4e f0 00 00 	lea    0xf04e(%rip),%rax        # 21050 <g_99>
   12002:	48 89 85 00 fb ff ff 	mov    %rax,-0x500(%rbp)
   12009:	48 8d 05 a0 a0 00 00 	lea    0xa0a0(%rip),%rax        # 1c0b0 <g_646>
   12010:	48 89 85 08 fb ff ff 	mov    %rax,-0x4f8(%rbp)
   12017:	48 c7 85 10 fb ff ff 	movq   $0x0,-0x4f0(%rbp)
   1201e:	00 00 00 00 
   12022:	48 8d 85 50 e6 ff ff 	lea    -0x19b0(%rbp),%rax
   12029:	48 83 c0 04          	add    $0x4,%rax
   1202d:	48 89 85 18 fb ff ff 	mov    %rax,-0x4e8(%rbp)
   12034:	48 8d 05 75 a0 00 00 	lea    0xa075(%rip),%rax        # 1c0b0 <g_646>
   1203b:	48 89 85 20 fb ff ff 	mov    %rax,-0x4e0(%rbp)
   12042:	48 8d 05 67 a0 00 00 	lea    0xa067(%rip),%rax        # 1c0b0 <g_646>
   12049:	48 89 85 28 fb ff ff 	mov    %rax,-0x4d8(%rbp)
   12050:	48 c7 85 30 fb ff ff 	movq   $0x0,-0x4d0(%rbp)
   12057:	00 00 00 00 
   1205b:	48 c7 85 38 fb ff ff 	movq   $0x0,-0x4c8(%rbp)
   12062:	00 00 00 00 
   12066:	48 8d 05 e7 ef 00 00 	lea    0xefe7(%rip),%rax        # 21054 <g_99+0x4>
   1206d:	48 89 85 40 fb ff ff 	mov    %rax,-0x4c0(%rbp)
   12074:	48 8d 85 a4 e0 ff ff 	lea    -0x1f5c(%rbp),%rax
   1207b:	48 89 85 48 fb ff ff 	mov    %rax,-0x4b8(%rbp)
   12082:	48 8d 85 a4 e0 ff ff 	lea    -0x1f5c(%rbp),%rax
   12089:	48 89 85 50 fb ff ff 	mov    %rax,-0x4b0(%rbp)
   12090:	48 8d 85 50 e6 ff ff 	lea    -0x19b0(%rbp),%rax
   12097:	48 89 85 58 fb ff ff 	mov    %rax,-0x4a8(%rbp)
   1209e:	48 c7 85 60 fb ff ff 	movq   $0x0,-0x4a0(%rbp)
   120a5:	00 00 00 00 
   120a9:	48 8d 05 00 a0 00 00 	lea    0xa000(%rip),%rax        # 1c0b0 <g_646>
   120b0:	48 89 85 68 fb ff ff 	mov    %rax,-0x498(%rbp)
   120b7:	48 8d 85 a4 e0 ff ff 	lea    -0x1f5c(%rbp),%rax
   120be:	48 89 85 70 fb ff ff 	mov    %rax,-0x490(%rbp)
   120c5:	48 8d 05 84 ef 00 00 	lea    0xef84(%rip),%rax        # 21050 <g_99>
   120cc:	48 89 85 78 fb ff ff 	mov    %rax,-0x488(%rbp)
   120d3:	48 8d 85 50 e6 ff ff 	lea    -0x19b0(%rbp),%rax
   120da:	48 83 c0 04          	add    $0x4,%rax
   120de:	48 89 85 80 fb ff ff 	mov    %rax,-0x480(%rbp)
   120e5:	48 8d 85 a4 e0 ff ff 	lea    -0x1f5c(%rbp),%rax
   120ec:	48 89 85 88 fb ff ff 	mov    %rax,-0x478(%rbp)
   120f3:	48 8d 05 5a ef 00 00 	lea    0xef5a(%rip),%rax        # 21054 <g_99+0x4>
   120fa:	48 89 85 90 fb ff ff 	mov    %rax,-0x470(%rbp)
   12101:	48 8d 85 50 e6 ff ff 	lea    -0x19b0(%rbp),%rax
   12108:	48 89 85 98 fb ff ff 	mov    %rax,-0x468(%rbp)
   1210f:	48 8d 85 50 e6 ff ff 	lea    -0x19b0(%rbp),%rax
   12116:	48 89 85 a0 fb ff ff 	mov    %rax,-0x460(%rbp)
   1211d:	48 8d 85 50 e6 ff ff 	lea    -0x19b0(%rbp),%rax
   12124:	48 83 c0 04          	add    $0x4,%rax
   12128:	48 89 85 a8 fb ff ff 	mov    %rax,-0x458(%rbp)
   1212f:	48 8d 05 ea ef 00 00 	lea    0xefea(%rip),%rax        # 21120 <g_354+0x40>
   12136:	48 89 85 b0 fb ff ff 	mov    %rax,-0x450(%rbp)
   1213d:	48 8d 85 a4 e0 ff ff 	lea    -0x1f5c(%rbp),%rax
   12144:	48 89 85 b8 fb ff ff 	mov    %rax,-0x448(%rbp)
   1214b:	48 8d 05 ce ef 00 00 	lea    0xefce(%rip),%rax        # 21120 <g_354+0x40>
   12152:	48 89 85 c0 fb ff ff 	mov    %rax,-0x440(%rbp)
   12159:	48 8d 05 50 9f 00 00 	lea    0x9f50(%rip),%rax        # 1c0b0 <g_646>
   12160:	48 89 85 c8 fb ff ff 	mov    %rax,-0x438(%rbp)
   12167:	48 8d 05 42 9f 00 00 	lea    0x9f42(%rip),%rax        # 1c0b0 <g_646>
   1216e:	48 89 85 d0 fb ff ff 	mov    %rax,-0x430(%rbp)
   12175:	48 8d 05 d8 ee 00 00 	lea    0xeed8(%rip),%rax        # 21054 <g_99+0x4>
   1217c:	48 89 85 d8 fb ff ff 	mov    %rax,-0x428(%rbp)
   12183:	48 8d 85 a4 e0 ff ff 	lea    -0x1f5c(%rbp),%rax
   1218a:	48 89 85 e0 fb ff ff 	mov    %rax,-0x420(%rbp)
   12191:	48 c7 85 e8 fb ff ff 	movq   $0x0,-0x418(%rbp)
   12198:	00 00 00 00 
   1219c:	48 8d 05 ad ee 00 00 	lea    0xeead(%rip),%rax        # 21050 <g_99>
   121a3:	48 89 85 f0 fb ff ff 	mov    %rax,-0x410(%rbp)
   121aa:	48 8d 05 5b ef 00 00 	lea    0xef5b(%rip),%rax        # 2110c <g_354+0x2c>
   121b1:	48 89 85 f8 fb ff ff 	mov    %rax,-0x408(%rbp)
   121b8:	48 8d 85 a4 e0 ff ff 	lea    -0x1f5c(%rbp),%rax
   121bf:	48 89 85 00 fc ff ff 	mov    %rax,-0x400(%rbp)
   121c6:	48 8d 05 87 ee 00 00 	lea    0xee87(%rip),%rax        # 21054 <g_99+0x4>
   121cd:	48 89 85 08 fc ff ff 	mov    %rax,-0x3f8(%rbp)
   121d4:	48 c7 85 10 fc ff ff 	movq   $0x0,-0x3f0(%rbp)
   121db:	00 00 00 00 
   121df:	48 8d 05 6a ee 00 00 	lea    0xee6a(%rip),%rax        # 21050 <g_99>
   121e6:	48 89 85 18 fc ff ff 	mov    %rax,-0x3e8(%rbp)
   121ed:	48 8d 85 a4 e0 ff ff 	lea    -0x1f5c(%rbp),%rax
   121f4:	48 89 85 20 fc ff ff 	mov    %rax,-0x3e0(%rbp)
   121fb:	48 8d 05 4e ee 00 00 	lea    0xee4e(%rip),%rax        # 21050 <g_99>
   12202:	48 89 85 28 fc ff ff 	mov    %rax,-0x3d8(%rbp)
   12209:	48 8d 05 40 ee 00 00 	lea    0xee40(%rip),%rax        # 21050 <g_99>
   12210:	48 89 85 30 fc ff ff 	mov    %rax,-0x3d0(%rbp)
   12217:	48 c7 85 38 fc ff ff 	movq   $0x0,-0x3c8(%rbp)
   1221e:	00 00 00 00 
   12222:	48 8d 85 a4 e0 ff ff 	lea    -0x1f5c(%rbp),%rax
   12229:	48 89 85 40 fc ff ff 	mov    %rax,-0x3c0(%rbp)
   12230:	48 8d 85 50 e6 ff ff 	lea    -0x19b0(%rbp),%rax
   12237:	48 89 85 48 fc ff ff 	mov    %rax,-0x3b8(%rbp)
   1223e:	48 8d 05 6b 9e 00 00 	lea    0x9e6b(%rip),%rax        # 1c0b0 <g_646>
   12245:	48 89 85 50 fc ff ff 	mov    %rax,-0x3b0(%rbp)
   1224c:	48 c7 85 58 fc ff ff 	movq   $0x0,-0x3a8(%rbp)
   12253:	00 00 00 00 
   12257:	48 8d 05 c2 ee 00 00 	lea    0xeec2(%rip),%rax        # 21120 <g_354+0x40>
   1225e:	48 89 85 60 fc ff ff 	mov    %rax,-0x3a0(%rbp)
   12265:	48 8d 85 a4 e0 ff ff 	lea    -0x1f5c(%rbp),%rax
   1226c:	48 89 85 68 fc ff ff 	mov    %rax,-0x398(%rbp)
   12273:	48 8d 05 a6 ee 00 00 	lea    0xeea6(%rip),%rax        # 21120 <g_354+0x40>
   1227a:	48 89 85 70 fc ff ff 	mov    %rax,-0x390(%rbp)
   12281:	48 8d 85 a4 e0 ff ff 	lea    -0x1f5c(%rbp),%rax
   12288:	48 89 85 78 fc ff ff 	mov    %rax,-0x388(%rbp)
   1228f:	48 8d 85 50 e6 ff ff 	lea    -0x19b0(%rbp),%rax
   12296:	48 89 85 80 fc ff ff 	mov    %rax,-0x380(%rbp)
   1229d:	48 c7 85 88 fc ff ff 	movq   $0x0,-0x378(%rbp)
   122a4:	00 00 00 00 
   122a8:	48 8d 05 a5 ed 00 00 	lea    0xeda5(%rip),%rax        # 21054 <g_99+0x4>
   122af:	48 89 85 90 fc ff ff 	mov    %rax,-0x370(%rbp)
   122b6:	48 c7 85 98 fc ff ff 	movq   $0x0,-0x368(%rbp)
   122bd:	00 00 00 00 
   122c1:	48 8d 85 50 e6 ff ff 	lea    -0x19b0(%rbp),%rax
   122c8:	48 83 c0 04          	add    $0x4,%rax
   122cc:	48 89 85 a0 fc ff ff 	mov    %rax,-0x360(%rbp)
   122d3:	48 8d 85 50 e6 ff ff 	lea    -0x19b0(%rbp),%rax
   122da:	48 83 c0 04          	add    $0x4,%rax
   122de:	48 89 85 a8 fc ff ff 	mov    %rax,-0x358(%rbp)
   122e5:	48 8d 85 a4 e0 ff ff 	lea    -0x1f5c(%rbp),%rax
   122ec:	48 89 85 b0 fc ff ff 	mov    %rax,-0x350(%rbp)
   122f3:	48 8d 85 a4 e0 ff ff 	lea    -0x1f5c(%rbp),%rax
   122fa:	48 89 85 b8 fc ff ff 	mov    %rax,-0x348(%rbp)
   12301:	48 c7 85 c0 fc ff ff 	movq   $0x0,-0x340(%rbp)
   12308:	00 00 00 00 
   1230c:	48 c7 85 c8 fc ff ff 	movq   $0x0,-0x338(%rbp)
   12313:	00 00 00 00 
   12317:	48 8d 85 a4 e0 ff ff 	lea    -0x1f5c(%rbp),%rax
   1231e:	48 89 85 d0 fc ff ff 	mov    %rax,-0x330(%rbp)
   12325:	48 8d 05 84 9d 00 00 	lea    0x9d84(%rip),%rax        # 1c0b0 <g_646>
   1232c:	48 89 85 d8 fc ff ff 	mov    %rax,-0x328(%rbp)
   12333:	48 8d 05 1a ed 00 00 	lea    0xed1a(%rip),%rax        # 21054 <g_99+0x4>
   1233a:	48 89 85 e0 fc ff ff 	mov    %rax,-0x320(%rbp)
   12341:	48 8d 85 50 e6 ff ff 	lea    -0x19b0(%rbp),%rax
   12348:	48 89 85 e8 fc ff ff 	mov    %rax,-0x318(%rbp)
   1234f:	48 c7 85 f0 fc ff ff 	movq   $0x0,-0x310(%rbp)
   12356:	00 00 00 00 
   1235a:	48 8d 85 50 e6 ff ff 	lea    -0x19b0(%rbp),%rax
   12361:	48 89 85 f8 fc ff ff 	mov    %rax,-0x308(%rbp)
   12368:	48 8d 05 41 9d 00 00 	lea    0x9d41(%rip),%rax        # 1c0b0 <g_646>
   1236f:	48 89 85 00 fd ff ff 	mov    %rax,-0x300(%rbp)
   12376:	48 8d 05 d7 ec 00 00 	lea    0xecd7(%rip),%rax        # 21054 <g_99+0x4>
   1237d:	48 89 85 08 fd ff ff 	mov    %rax,-0x2f8(%rbp)
   12384:	48 c7 85 10 fd ff ff 	movq   $0x0,-0x2f0(%rbp)
   1238b:	00 00 00 00 
   1238f:	48 8d 85 50 e6 ff ff 	lea    -0x19b0(%rbp),%rax
   12396:	48 89 85 18 fd ff ff 	mov    %rax,-0x2e8(%rbp)
   1239d:	48 8d 05 ac ec 00 00 	lea    0xecac(%rip),%rax        # 21050 <g_99>
   123a4:	48 89 85 20 fd ff ff 	mov    %rax,-0x2e0(%rbp)
   123ab:	48 8d 85 50 e6 ff ff 	lea    -0x19b0(%rbp),%rax
   123b2:	48 89 85 28 fd ff ff 	mov    %rax,-0x2d8(%rbp)
   123b9:	48 8d 85 50 e6 ff ff 	lea    -0x19b0(%rbp),%rax
   123c0:	48 89 85 30 fd ff ff 	mov    %rax,-0x2d0(%rbp)
   123c7:	48 8d 05 e2 9c 00 00 	lea    0x9ce2(%rip),%rax        # 1c0b0 <g_646>
   123ce:	48 89 85 38 fd ff ff 	mov    %rax,-0x2c8(%rbp)
   123d5:	48 c7 85 40 fd ff ff 	movq   $0x0,-0x2c0(%rbp)
   123dc:	00 00 00 00 
   123e0:	48 c7 85 48 fd ff ff 	movq   $0x0,-0x2b8(%rbp)
   123e7:	00 00 00 00 
   123eb:	48 8d 05 3e ed 00 00 	lea    0xed3e(%rip),%rax        # 21130 <g_354+0x50>
   123f2:	48 89 85 50 fd ff ff 	mov    %rax,-0x2b0(%rbp)
   123f9:	48 8d 85 a4 e0 ff ff 	lea    -0x1f5c(%rbp),%rax
   12400:	48 89 85 58 fd ff ff 	mov    %rax,-0x2a8(%rbp)
   12407:	48 8d 05 42 ec 00 00 	lea    0xec42(%rip),%rax        # 21050 <g_99>
   1240e:	48 89 85 60 fd ff ff 	mov    %rax,-0x2a0(%rbp)
   12415:	48 8d 85 50 e6 ff ff 	lea    -0x19b0(%rbp),%rax
   1241c:	48 83 c0 04          	add    $0x4,%rax
   12420:	48 89 85 68 fd ff ff 	mov    %rax,-0x298(%rbp)
   12427:	48 8d 05 82 9c 00 00 	lea    0x9c82(%rip),%rax        # 1c0b0 <g_646>
   1242e:	48 89 85 70 fd ff ff 	mov    %rax,-0x290(%rbp)
   12435:	48 c7 85 78 fd ff ff 	movq   $0x0,-0x288(%rbp)
   1243c:	00 00 00 00 
   12440:	48 8d 85 50 e6 ff ff 	lea    -0x19b0(%rbp),%rax
   12447:	48 83 c0 04          	add    $0x4,%rax
   1244b:	48 89 85 80 fd ff ff 	mov    %rax,-0x280(%rbp)
   12452:	48 c7 85 88 fd ff ff 	movq   $0x0,-0x278(%rbp)
   12459:	00 00 00 00 
   1245d:	48 8d 05 ec eb 00 00 	lea    0xebec(%rip),%rax        # 21050 <g_99>
   12464:	48 89 85 90 fd ff ff 	mov    %rax,-0x270(%rbp)
   1246b:	48 8d 85 a4 e0 ff ff 	lea    -0x1f5c(%rbp),%rax
   12472:	48 89 85 98 fd ff ff 	mov    %rax,-0x268(%rbp)
   12479:	48 8d 05 30 9c 00 00 	lea    0x9c30(%rip),%rax        # 1c0b0 <g_646>
   12480:	48 89 85 a0 fd ff ff 	mov    %rax,-0x260(%rbp)
   12487:	48 8d 85 a4 e0 ff ff 	lea    -0x1f5c(%rbp),%rax
   1248e:	48 89 85 a8 fd ff ff 	mov    %rax,-0x258(%rbp)
   12495:	48 8d 05 b8 eb 00 00 	lea    0xebb8(%rip),%rax        # 21054 <g_99+0x4>
   1249c:	48 89 85 b0 fd ff ff 	mov    %rax,-0x250(%rbp)
   124a3:	48 c7 85 b8 fd ff ff 	movq   $0x0,-0x248(%rbp)
   124aa:	00 00 00 00 
   124ae:	48 c7 85 c0 fd ff ff 	movq   $0x0,-0x240(%rbp)
   124b5:	00 00 00 00 
   124b9:	48 8d 85 50 e6 ff ff 	lea    -0x19b0(%rbp),%rax
   124c0:	48 89 85 c8 fd ff ff 	mov    %rax,-0x238(%rbp)
   124c7:	48 8d 05 52 ec 00 00 	lea    0xec52(%rip),%rax        # 21120 <g_354+0x40>
   124ce:	48 89 85 d0 fd ff ff 	mov    %rax,-0x230(%rbp)
   124d5:	48 c7 85 d8 fd ff ff 	movq   $0x0,-0x228(%rbp)
   124dc:	00 00 00 00 
   124e0:	48 8d 85 50 e6 ff ff 	lea    -0x19b0(%rbp),%rax
   124e7:	48 89 85 e0 fd ff ff 	mov    %rax,-0x220(%rbp)
   124ee:	48 8d 05 5b eb 00 00 	lea    0xeb5b(%rip),%rax        # 21050 <g_99>
   124f5:	48 89 85 e8 fd ff ff 	mov    %rax,-0x218(%rbp)
   124fc:	48 8d 85 a4 e0 ff ff 	lea    -0x1f5c(%rbp),%rax
   12503:	48 89 85 f0 fd ff ff 	mov    %rax,-0x210(%rbp)
   1250a:	48 8d 05 3f eb 00 00 	lea    0xeb3f(%rip),%rax        # 21050 <g_99>
   12511:	48 89 85 f8 fd ff ff 	mov    %rax,-0x208(%rbp)
   12518:	48 8d 85 50 e6 ff ff 	lea    -0x19b0(%rbp),%rax
   1251f:	48 89 85 00 fe ff ff 	mov    %rax,-0x200(%rbp)
   12526:	48 8d 05 27 eb 00 00 	lea    0xeb27(%rip),%rax        # 21054 <g_99+0x4>
   1252d:	48 89 85 08 fe ff ff 	mov    %rax,-0x1f8(%rbp)
   12534:	48 8d 85 a4 e0 ff ff 	lea    -0x1f5c(%rbp),%rax
   1253b:	48 89 85 10 fe ff ff 	mov    %rax,-0x1f0(%rbp)
   12542:	48 8d 05 c3 eb 00 00 	lea    0xebc3(%rip),%rax        # 2110c <g_354+0x2c>
   12549:	48 89 85 18 fe ff ff 	mov    %rax,-0x1e8(%rbp)
   12550:	48 8d 85 50 e6 ff ff 	lea    -0x19b0(%rbp),%rax
   12557:	48 89 85 20 fe ff ff 	mov    %rax,-0x1e0(%rbp)
   1255e:	48 c7 85 28 fe ff ff 	movq   $0x0,-0x1d8(%rbp)
   12565:	00 00 00 00 
   12569:	48 8d 05 b0 eb 00 00 	lea    0xebb0(%rip),%rax        # 21120 <g_354+0x40>
   12570:	48 89 85 30 fe ff ff 	mov    %rax,-0x1d0(%rbp)
   12577:	48 8d 05 d6 ea 00 00 	lea    0xead6(%rip),%rax        # 21054 <g_99+0x4>
   1257e:	48 89 85 38 fe ff ff 	mov    %rax,-0x1c8(%rbp)
   12585:	48 c7 85 40 fe ff ff 	movq   $0x0,-0x1c0(%rbp)
   1258c:	00 00 00 00 
   12590:	48 8d 05 19 9b 00 00 	lea    0x9b19(%rip),%rax        # 1c0b0 <g_646>
   12597:	48 89 85 48 fe ff ff 	mov    %rax,-0x1b8(%rbp)
   1259e:	48 8d 05 af ea 00 00 	lea    0xeaaf(%rip),%rax        # 21054 <g_99+0x4>
   125a5:	48 89 85 50 fe ff ff 	mov    %rax,-0x1b0(%rbp)
   125ac:	48 8d 85 a4 e0 ff ff 	lea    -0x1f5c(%rbp),%rax
   125b3:	48 89 85 58 fe ff ff 	mov    %rax,-0x1a8(%rbp)
   125ba:	48 8d 05 ef 9a 00 00 	lea    0x9aef(%rip),%rax        # 1c0b0 <g_646>
   125c1:	48 89 85 60 fe ff ff 	mov    %rax,-0x1a0(%rbp)
   125c8:	48 8d 85 50 e6 ff ff 	lea    -0x19b0(%rbp),%rax
   125cf:	48 83 c0 04          	add    $0x4,%rax
   125d3:	48 89 85 68 fe ff ff 	mov    %rax,-0x198(%rbp)
   125da:	48 8d 05 6f ea 00 00 	lea    0xea6f(%rip),%rax        # 21050 <g_99>
   125e1:	48 89 85 70 fe ff ff 	mov    %rax,-0x190(%rbp)
   125e8:	48 8d 85 50 e6 ff ff 	lea    -0x19b0(%rbp),%rax
   125ef:	48 89 85 78 fe ff ff 	mov    %rax,-0x188(%rbp)
   125f6:	48 8d 85 50 e6 ff ff 	lea    -0x19b0(%rbp),%rax
   125fd:	48 83 c0 04          	add    $0x4,%rax
   12601:	48 89 85 80 fe ff ff 	mov    %rax,-0x180(%rbp)
   12608:	48 8d 85 a4 e0 ff ff 	lea    -0x1f5c(%rbp),%rax
   1260f:	48 89 85 88 fe ff ff 	mov    %rax,-0x178(%rbp)
   12616:	48 8d 05 93 9a 00 00 	lea    0x9a93(%rip),%rax        # 1c0b0 <g_646>
   1261d:	48 89 85 90 fe ff ff 	mov    %rax,-0x170(%rbp)
   12624:	48 8d 05 25 ea 00 00 	lea    0xea25(%rip),%rax        # 21050 <g_99>
   1262b:	48 89 85 98 fe ff ff 	mov    %rax,-0x168(%rbp)
   12632:	48 8d 05 17 ea 00 00 	lea    0xea17(%rip),%rax        # 21050 <g_99>
   12639:	48 89 85 a0 fe ff ff 	mov    %rax,-0x160(%rbp)
   12640:	48 8d 05 69 9a 00 00 	lea    0x9a69(%rip),%rax        # 1c0b0 <g_646>
   12647:	48 89 85 a8 fe ff ff 	mov    %rax,-0x158(%rbp)
   1264e:	48 8d 05 db ea 00 00 	lea    0xeadb(%rip),%rax        # 21130 <g_354+0x50>
   12655:	48 89 85 b0 fe ff ff 	mov    %rax,-0x150(%rbp)
   1265c:	48 8d 85 50 e6 ff ff 	lea    -0x19b0(%rbp),%rax
   12663:	48 89 85 b8 fe ff ff 	mov    %rax,-0x148(%rbp)
   1266a:	48 c7 85 c0 fe ff ff 	movq   $0x0,-0x140(%rbp)
   12671:	00 00 00 00 
   12675:	48 8d 85 a4 e0 ff ff 	lea    -0x1f5c(%rbp),%rax
   1267c:	48 89 85 c8 fe ff ff 	mov    %rax,-0x138(%rbp)
   12683:	48 8d 85 50 e6 ff ff 	lea    -0x19b0(%rbp),%rax
   1268a:	48 89 85 d0 fe ff ff 	mov    %rax,-0x130(%rbp)
   12691:	48 c7 85 d8 fe ff ff 	movq   $0x0,-0x128(%rbp)
   12698:	00 00 00 00 
   1269c:	48 8d 05 ad e9 00 00 	lea    0xe9ad(%rip),%rax        # 21050 <g_99>
   126a3:	48 89 85 e0 fe ff ff 	mov    %rax,-0x120(%rbp)
   126aa:	48 8d 05 ff 99 00 00 	lea    0x99ff(%rip),%rax        # 1c0b0 <g_646>
   126b1:	48 89 85 e8 fe ff ff 	mov    %rax,-0x118(%rbp)
   126b8:	48 c7 85 f0 fe ff ff 	movq   $0x0,-0x110(%rbp)
   126bf:	00 00 00 00 
   126c3:	48 8d 85 50 e6 ff ff 	lea    -0x19b0(%rbp),%rax
   126ca:	48 83 c0 04          	add    $0x4,%rax
   126ce:	48 89 85 f8 fe ff ff 	mov    %rax,-0x108(%rbp)
   126d5:	48 8d 05 d4 99 00 00 	lea    0x99d4(%rip),%rax        # 1c0b0 <g_646>
   126dc:	48 89 85 00 ff ff ff 	mov    %rax,-0x100(%rbp)
   126e3:	48 8d 05 c6 99 00 00 	lea    0x99c6(%rip),%rax        # 1c0b0 <g_646>
   126ea:	48 89 85 08 ff ff ff 	mov    %rax,-0xf8(%rbp)
   126f1:	48 c7 85 10 ff ff ff 	movq   $0x0,-0xf0(%rbp)
   126f8:	00 00 00 00 
   126fc:	48 c7 85 18 ff ff ff 	movq   $0x0,-0xe8(%rbp)
   12703:	00 00 00 00 
   12707:	48 8d 05 46 e9 00 00 	lea    0xe946(%rip),%rax        # 21054 <g_99+0x4>
   1270e:	48 89 85 20 ff ff ff 	mov    %rax,-0xe0(%rbp)
   12715:	48 8d 85 a4 e0 ff ff 	lea    -0x1f5c(%rbp),%rax
   1271c:	48 89 85 28 ff ff ff 	mov    %rax,-0xd8(%rbp)
   12723:	48 8d 85 a4 e0 ff ff 	lea    -0x1f5c(%rbp),%rax
   1272a:	48 89 85 30 ff ff ff 	mov    %rax,-0xd0(%rbp)
   12731:	48 8d 85 50 e6 ff ff 	lea    -0x19b0(%rbp),%rax
   12738:	48 89 85 38 ff ff ff 	mov    %rax,-0xc8(%rbp)
   1273f:	48 c7 85 40 ff ff ff 	movq   $0x0,-0xc0(%rbp)
   12746:	00 00 00 00 
   1274a:	48 8d 05 5f 99 00 00 	lea    0x995f(%rip),%rax        # 1c0b0 <g_646>
   12751:	48 89 85 48 ff ff ff 	mov    %rax,-0xb8(%rbp)
   12758:	48 8d 85 a4 e0 ff ff 	lea    -0x1f5c(%rbp),%rax
   1275f:	48 89 85 50 ff ff ff 	mov    %rax,-0xb0(%rbp)
   12766:	48 8d 05 e3 e8 00 00 	lea    0xe8e3(%rip),%rax        # 21050 <g_99>
   1276d:	48 89 85 58 ff ff ff 	mov    %rax,-0xa8(%rbp)
   12774:	48 8d 85 50 e6 ff ff 	lea    -0x19b0(%rbp),%rax
   1277b:	48 83 c0 04          	add    $0x4,%rax
   1277f:	48 89 85 60 ff ff ff 	mov    %rax,-0xa0(%rbp)
   12786:	48 8d 85 a4 e0 ff ff 	lea    -0x1f5c(%rbp),%rax
   1278d:	48 89 85 68 ff ff ff 	mov    %rax,-0x98(%rbp)
   12794:	48 8d 85 f0 f7 ff ff 	lea    -0x810(%rbp),%rax
   1279b:	48 05 e8 05 00 00    	add    $0x5e8,%rax
   127a1:	48 89 85 58 e4 ff ff 	mov    %rax,-0x1ba8(%rbp)
   127a8:	48 8d 85 90 e2 ff ff 	lea    -0x1d70(%rbp),%rax
   127af:	48 89 85 60 e4 ff ff 	mov    %rax,-0x1ba0(%rbp)
   127b6:	c7 85 70 e1 ff ff 00 	movl   $0x0,-0x1e90(%rbp)
   127bd:	00 00 00 
   127c0:	48 b8 8e f3 3b ee 6e 	movabs $0x4a13136eee3bf38e,%rax
   127c7:	13 13 4a 
   127ca:	48 89 85 30 f1 ff ff 	mov    %rax,-0xed0(%rbp)
   127d1:	48 89 85 38 f1 ff ff 	mov    %rax,-0xec8(%rbp)
   127d8:	48 89 85 40 f1 ff ff 	mov    %rax,-0xec0(%rbp)
   127df:	48 89 85 48 f1 ff ff 	mov    %rax,-0xeb8(%rbp)
   127e6:	48 89 85 50 f1 ff ff 	mov    %rax,-0xeb0(%rbp)
   127ed:	48 89 85 58 f1 ff ff 	mov    %rax,-0xea8(%rbp)
   127f4:	48 89 85 60 f1 ff ff 	mov    %rax,-0xea0(%rbp)
   127fb:	48 89 85 68 f1 ff ff 	mov    %rax,-0xe98(%rbp)
   12802:	48 89 85 70 f1 ff ff 	mov    %rax,-0xe90(%rbp)
   12809:	48 89 85 78 f1 ff ff 	mov    %rax,-0xe88(%rbp)
   12810:	c7 85 00 e7 ff ff 04 	movl   $0x4,-0x1900(%rbp)
   12817:	00 00 00 
   1281a:	c7 85 04 e7 ff ff fb 	movl   $0xfffffffb,-0x18fc(%rbp)
   12821:	ff ff ff 
   12824:	c7 85 08 e7 ff ff 04 	movl   $0x4,-0x18f8(%rbp)
   1282b:	00 00 00 
   1282e:	c7 85 0c e7 ff ff fb 	movl   $0xfffffffb,-0x18f4(%rbp)
   12835:	ff ff ff 
   12838:	c7 85 10 e7 ff ff 04 	movl   $0x4,-0x18f0(%rbp)
   1283f:	00 00 00 
   12842:	c7 85 14 e7 ff ff fb 	movl   $0xfffffffb,-0x18ec(%rbp)
   12849:	ff ff ff 
   1284c:	48 c7 85 68 e4 ff ff 	movq   $0x0,-0x1b98(%rbp)
   12853:	00 00 00 00 
   12857:	c7 85 74 e1 ff ff c5 	movl   $0xb5dbadc5,-0x1e8c(%rbp)
   1285e:	ad db b5 
   12861:	48 8d 05 08 1a 01 00 	lea    0x11a08(%rip),%rax        # 24270 <g_1704>
   12868:	48 89 85 70 e4 ff ff 	mov    %rax,-0x1b90(%rbp)
   1286f:	48 c7 85 78 e4 ff ff 	movq   $0xfffffffffffffff6,-0x1b88(%rbp)
   12876:	f6 ff ff ff 
   1287a:	c7 85 78 e1 ff ff 26 	movl   $0x41d14726,-0x1e88(%rbp)
   12881:	47 d1 41 
   12884:	c7 85 7c e1 ff ff f6 	movl   $0xfffffff6,-0x1e84(%rbp)
   1288b:	ff ff ff 
   1288e:	48 8d 85 c8 e0 ff ff 	lea    -0x1f38(%rbp),%rax
   12895:	48 89 85 80 e4 ff ff 	mov    %rax,-0x1b80(%rbp)
   1289c:	83 ad d0 e0 ff ff 01 	subl   $0x1,-0x1f30(%rbp)
   128a3:	83 bd d0 e0 ff ff f9 	cmpl   $0xfffffff9,-0x1f30(%rbp)
   128aa:	0f 8d f2 f0 ff ff    	jge    119a2 <func_1+0x61ed>
   128b0:	8b 05 76 e7 00 00    	mov    0xe776(%rip),%eax        # 2102c <g_4>
   128b6:	be 06 00 00 00       	mov    $0x6,%esi
   128bb:	89 c7                	mov    %eax,%edi
   128bd:	e8 43 7d ff ff       	callq  a605 <safe_sub_func_int32_t_s_s>
   128c2:	89 05 64 e7 00 00    	mov    %eax,0xe764(%rip)        # 2102c <g_4>
   128c8:	8b 05 5e e7 00 00    	mov    0xe75e(%rip),%eax        # 2102c <g_4>
   128ce:	83 f8 e7             	cmp    $0xffffffe7,%eax
   128d1:	0f 8d f5 e1 ff ff    	jge    10acc <func_1+0x5317>
   128d7:	8b 05 63 e7 00 00    	mov    0xe763(%rip),%eax        # 21040 <g_9>
   128dd:	0f b7 c0             	movzwl %ax,%eax
   128e0:	be 02 00 00 00       	mov    $0x2,%esi
   128e5:	89 c7                	mov    %eax,%edi
   128e7:	e8 33 84 ff ff       	callq  ad1f <safe_sub_func_uint16_t_u_u>
   128ec:	0f b7 c0             	movzwl %ax,%eax
   128ef:	89 05 4b e7 00 00    	mov    %eax,0xe74b(%rip)        # 21040 <g_9>
   128f5:	8b 05 45 e7 00 00    	mov    0xe745(%rip),%eax        # 21040 <g_9>
   128fb:	83 f8 02             	cmp    $0x2,%eax
   128fe:	0f 8f 8d dd ff ff    	jg     10691 <func_1+0x4edc>
   12904:	48 8b 85 c8 e2 ff ff 	mov    -0x1d38(%rbp),%rax
   1290b:	8b 00                	mov    (%rax),%eax
   1290d:	48 8b 5d d8          	mov    -0x28(%rbp),%rbx
   12911:	64 48 33 1c 25 28 00 	xor    %fs:0x28,%rbx
   12918:	00 00 
   1291a:	74 05                	je     12921 <func_1+0x716c>
   1291c:	e8 4f 77 ff ff       	callq  a070 <__stack_chk_fail@plt>
   12921:	48 81 c4 b0 1f 00 00 	add    $0x1fb0,%rsp
   12928:	5b                   	pop    %rbx
   12929:	41 5c                	pop    %r12
   1292b:	41 5d                	pop    %r13
   1292d:	41 5e                	pop    %r14
   1292f:	5d                   	pop    %rbp
   12930:	c3                   	retq   

0000000000012931 <func_13>:
   12931:	f3 0f 1e fa          	endbr64 
   12935:	55                   	push   %rbp
   12936:	48 89 e5             	mov    %rsp,%rbp
   12939:	41 56                	push   %r14
   1293b:	41 55                	push   %r13
   1293d:	41 54                	push   %r12
   1293f:	53                   	push   %rbx
   12940:	48 81 ec 00 10 00 00 	sub    $0x1000,%rsp
   12947:	48 83 0c 24 00       	orq    $0x0,(%rsp)
   1294c:	48 81 ec a0 0f 00 00 	sub    $0xfa0,%rsp
   12953:	89 bd 4c e0 ff ff    	mov    %edi,-0x1fb4(%rbp)
   12959:	64 48 8b 04 25 28 00 	mov    %fs:0x28,%rax
   12960:	00 00 
   12962:	48 89 45 d8          	mov    %rax,-0x28(%rbp)
   12966:	31 c0                	xor    %eax,%eax
   12968:	c6 85 53 e0 ff ff 00 	movb   $0x0,-0x1fad(%rbp)
   1296f:	c7 85 74 e0 ff ff d1 	movl   $0xd5ad74d1,-0x1f8c(%rbp)
   12976:	74 ad d5 
   12979:	48 c7 85 48 e1 ff ff 	movq   $0x0,-0x1eb8(%rbp)
   12980:	00 00 00 00 
   12984:	c7 85 68 e0 ff ff ef 	movl   $0xf2bffef,-0x1f98(%rbp)
   1298b:	ff 2b 0f 
   1298e:	c7 85 78 e0 ff ff ff 	movl   $0xffffffff,-0x1f88(%rbp)
   12995:	ff ff ff 
   12998:	c7 85 9c e0 ff ff 61 	movl   $0xd4c10d61,-0x1f64(%rbp)
   1299f:	0d c1 d4 
   129a2:	48 8d 05 cf 2d 01 00 	lea    0x12dcf(%rip),%rax        # 25778 <g_423+0x38>
   129a9:	48 89 85 50 e1 ff ff 	mov    %rax,-0x1eb0(%rbp)
   129b0:	48 c7 85 40 e1 ff ff 	movq   $0xfffffffffffffffd,-0x1ec0(%rbp)
   129b7:	fd ff ff ff 
   129bb:	48 c7 85 58 e1 ff ff 	movq   $0x0,-0x1ea8(%rbp)
   129c2:	00 00 00 00 
   129c6:	c6 85 56 e0 ff ff ff 	movb   $0xff,-0x1faa(%rbp)
   129cd:	48 8d 85 53 e0 ff ff 	lea    -0x1fad(%rbp),%rax
   129d4:	48 89 85 60 e1 ff ff 	mov    %rax,-0x1ea0(%rbp)
   129db:	c6 85 54 e0 ff ff 6e 	movb   $0x6e,-0x1fac(%rbp)
   129e2:	48 8d 05 d7 96 00 00 	lea    0x96d7(%rip),%rax        # 1c0c0 <g_953>
   129e9:	48 89 85 e0 e0 ff ff 	mov    %rax,-0x1f20(%rbp)
   129f0:	48 8d 85 e0 e0 ff ff 	lea    -0x1f20(%rbp),%rax
   129f7:	48 89 85 68 e1 ff ff 	mov    %rax,-0x1e98(%rbp)
   129fe:	48 c7 85 70 e1 ff ff 	movq   $0x0,-0x1e90(%rbp)
   12a05:	00 00 00 00 
   12a09:	48 c7 85 78 e1 ff ff 	movq   $0x4,-0x1e88(%rbp)
   12a10:	04 00 00 00 
   12a14:	48 8d 05 f5 09 01 00 	lea    0x109f5(%rip),%rax        # 23410 <g_290>
   12a1b:	48 89 85 e8 e0 ff ff 	mov    %rax,-0x1f18(%rbp)
   12a22:	48 8d 85 e8 e0 ff ff 	lea    -0x1f18(%rbp),%rax
   12a29:	48 89 85 f0 e0 ff ff 	mov    %rax,-0x1f10(%rbp)
   12a30:	48 8d 85 f0 e0 ff ff 	lea    -0x1f10(%rbp),%rax
   12a37:	48 89 85 80 e1 ff ff 	mov    %rax,-0x1e80(%rbp)
   12a3e:	c7 85 7c e0 ff ff 00 	movl   $0x0,-0x1f84(%rbp)
   12a45:	00 00 00 
   12a48:	eb 41                	jmp    12a8b <func_13+0x15a>
   12a4a:	c7 85 80 e0 ff ff 00 	movl   $0x0,-0x1f80(%rbp)
   12a51:	00 00 00 
   12a54:	eb 25                	jmp    12a7b <func_13+0x14a>
   12a56:	8b 85 80 e0 ff ff    	mov    -0x1f80(%rbp),%eax
   12a5c:	48 63 d0             	movslq %eax,%rdx
   12a5f:	8b 85 7c e0 ff ff    	mov    -0x1f84(%rbp),%eax
   12a65:	48 98                	cltq   
   12a67:	48 01 d0             	add    %rdx,%rax
   12a6a:	66 c7 84 45 ce e2 ff 	movw   $0x6528,-0x1d32(%rbp,%rax,2)
   12a71:	ff 28 65 
   12a74:	83 85 80 e0 ff ff 01 	addl   $0x1,-0x1f80(%rbp)
   12a7b:	83 bd 80 e0 ff ff 00 	cmpl   $0x0,-0x1f80(%rbp)
   12a82:	7e d2                	jle    12a56 <func_13+0x125>
   12a84:	83 85 7c e0 ff ff 01 	addl   $0x1,-0x1f84(%rbp)
   12a8b:	83 bd 7c e0 ff ff 02 	cmpl   $0x2,-0x1f84(%rbp)
   12a92:	7e b6                	jle    12a4a <func_13+0x119>
   12a94:	c7 85 7c e0 ff ff 00 	movl   $0x0,-0x1f84(%rbp)
   12a9b:	00 00 00 
   12a9e:	eb 1a                	jmp    12aba <func_13+0x189>
   12aa0:	8b 85 7c e0 ff ff    	mov    -0x1f84(%rbp),%eax
   12aa6:	48 98                	cltq   
   12aa8:	c7 84 85 d4 e2 ff ff 	movl   $0x1,-0x1d2c(%rbp,%rax,4)
   12aaf:	01 00 00 00 
   12ab3:	83 85 7c e0 ff ff 01 	addl   $0x1,-0x1f84(%rbp)
   12aba:	83 bd 7c e0 ff ff 02 	cmpl   $0x2,-0x1f84(%rbp)
   12ac1:	7e dd                	jle    12aa0 <func_13+0x16f>
   12ac3:	90                   	nop
   12ac4:	66 c7 05 8f e6 00 00 	movw   $0x0,0xe68f(%rip)        # 2115c <g_569>
   12acb:	00 00 
   12acd:	e9 21 09 00 00       	jmpq   133f3 <func_13+0xac2>
   12ad2:	c7 85 d8 e0 ff ff ee 	movl   $0x106106ee,-0x1f28(%rbp)
   12ad9:	06 61 10 
   12adc:	48 b8 3c 13 c4 3c 51 	movabs $0x9d85ae513cc4133c,%rax
   12ae3:	ae 85 9d 
   12ae6:	48 89 85 a8 e2 ff ff 	mov    %rax,-0x1d58(%rbp)
   12aed:	48 8d 05 64 e5 00 00 	lea    0xe564(%rip),%rax        # 21058 <g_101>
   12af4:	48 89 85 38 e1 ff ff 	mov    %rax,-0x1ec8(%rbp)
   12afb:	48 8d 85 38 e1 ff ff 	lea    -0x1ec8(%rbp),%rax
   12b02:	48 89 85 d0 f0 ff ff 	mov    %rax,-0xf30(%rbp)
   12b09:	48 8d 85 38 e1 ff ff 	lea    -0x1ec8(%rbp),%rax
   12b10:	48 89 85 d8 f0 ff ff 	mov    %rax,-0xf28(%rbp)
   12b17:	48 8d 85 38 e1 ff ff 	lea    -0x1ec8(%rbp),%rax
   12b1e:	48 89 85 e0 f0 ff ff 	mov    %rax,-0xf20(%rbp)
   12b25:	48 8d 85 38 e1 ff ff 	lea    -0x1ec8(%rbp),%rax
   12b2c:	48 89 85 e8 f0 ff ff 	mov    %rax,-0xf18(%rbp)
   12b33:	48 8d 85 38 e1 ff ff 	lea    -0x1ec8(%rbp),%rax
   12b3a:	48 89 85 f0 f0 ff ff 	mov    %rax,-0xf10(%rbp)
   12b41:	48 8d 85 38 e1 ff ff 	lea    -0x1ec8(%rbp),%rax
   12b48:	48 89 85 f8 f0 ff ff 	mov    %rax,-0xf08(%rbp)
   12b4f:	48 8d 85 38 e1 ff ff 	lea    -0x1ec8(%rbp),%rax
   12b56:	48 89 85 00 f1 ff ff 	mov    %rax,-0xf00(%rbp)
   12b5d:	c7 85 dc e0 ff ff ff 	movl   $0xffffffff,-0x1f24(%rbp)
   12b64:	ff ff ff 
   12b67:	66 c7 05 d0 e5 00 00 	movw   $0x0,0xe5d0(%rip)        # 21140 <g_400>
   12b6e:	00 00 
   12b70:	90                   	nop
   12b71:	0f b7 05 c8 e5 00 00 	movzwl 0xe5c8(%rip),%eax        # 21140 <g_400>
   12b78:	66 83 f8 02          	cmp    $0x2,%ax
   12b7c:	77 23                	ja     12ba1 <func_13+0x270>
   12b7e:	0f b7 05 d7 e5 00 00 	movzwl 0xe5d7(%rip),%eax        # 2115c <g_569>
   12b85:	0f b7 c0             	movzwl %ax,%eax
   12b88:	48 98                	cltq   
   12b8a:	48 8d 14 85 00 00 00 	lea    0x0(,%rax,4),%rdx
   12b91:	00 
   12b92:	48 8d 05 c7 e4 00 00 	lea    0xe4c7(%rip),%rax        # 21060 <g_108>
   12b99:	8b 04 02             	mov    (%rdx,%rax,1),%eax
   12b9c:	e9 73 3a 00 00       	jmpq   16614 <func_13+0x3ce3>
   12ba1:	c6 05 b0 e4 00 00 02 	movb   $0x2,0xe4b0(%rip)        # 21058 <g_101>
   12ba8:	e9 c5 02 00 00       	jmpq   12e72 <func_13+0x541>
   12bad:	c7 85 30 e1 ff ff 78 	movl   $0x60149278,-0x1ed0(%rbp)
   12bb4:	92 14 60 
   12bb7:	c7 85 84 e0 ff ff 00 	movl   $0x0,-0x1f7c(%rbp)
   12bbe:	00 00 00 
   12bc1:	eb 1a                	jmp    12bdd <func_13+0x2ac>
   12bc3:	8b 85 84 e0 ff ff    	mov    -0x1f7c(%rbp),%eax
   12bc9:	48 98                	cltq   
   12bcb:	c7 84 85 50 ed ff ff 	movl   $0x1,-0x12b0(%rbp,%rax,4)
   12bd2:	01 00 00 00 
   12bd6:	83 85 84 e0 ff ff 01 	addl   $0x1,-0x1f7c(%rbp)
   12bdd:	83 bd 84 e0 ff ff 00 	cmpl   $0x0,-0x1f7c(%rbp)
   12be4:	7e dd                	jle    12bc3 <func_13+0x292>
   12be6:	c6 05 57 e4 00 00 00 	movb   $0x0,0xe457(%rip)        # 21044 <g_63>
   12bed:	e9 61 02 00 00       	jmpq   12e53 <func_13+0x522>
   12bf2:	48 8d 05 c7 e4 00 00 	lea    0xe4c7(%rip),%rax        # 210c0 <g_278>
   12bf9:	48 89 85 b8 e2 ff ff 	mov    %rax,-0x1d48(%rbp)
   12c00:	48 8d 05 61 e4 00 00 	lea    0xe461(%rip),%rax        # 21068 <g_108+0x8>
   12c07:	48 89 85 c0 e2 ff ff 	mov    %rax,-0x1d40(%rbp)
   12c0e:	48 8d 05 ab e4 00 00 	lea    0xe4ab(%rip),%rax        # 210c0 <g_278>
   12c15:	48 89 85 50 f8 ff ff 	mov    %rax,-0x7b0(%rbp)
   12c1c:	48 8d 85 30 e1 ff ff 	lea    -0x1ed0(%rbp),%rax
   12c23:	48 89 85 58 f8 ff ff 	mov    %rax,-0x7a8(%rbp)
   12c2a:	48 8d 05 8f e4 00 00 	lea    0xe48f(%rip),%rax        # 210c0 <g_278>
   12c31:	48 89 85 60 f8 ff ff 	mov    %rax,-0x7a0(%rbp)
   12c38:	48 8d 05 81 e4 00 00 	lea    0xe481(%rip),%rax        # 210c0 <g_278>
   12c3f:	48 89 85 68 f8 ff ff 	mov    %rax,-0x798(%rbp)
   12c46:	48 8d 05 73 e4 00 00 	lea    0xe473(%rip),%rax        # 210c0 <g_278>
   12c4d:	48 89 85 70 f8 ff ff 	mov    %rax,-0x790(%rbp)
   12c54:	48 8d 85 30 e1 ff ff 	lea    -0x1ed0(%rbp),%rax
   12c5b:	48 89 85 78 f8 ff ff 	mov    %rax,-0x788(%rbp)
   12c62:	48 8d 05 57 e4 00 00 	lea    0xe457(%rip),%rax        # 210c0 <g_278>
   12c69:	48 89 85 80 f8 ff ff 	mov    %rax,-0x780(%rbp)
   12c70:	48 8d 05 49 e4 00 00 	lea    0xe449(%rip),%rax        # 210c0 <g_278>
   12c77:	48 89 85 88 f8 ff ff 	mov    %rax,-0x778(%rbp)
   12c7e:	48 8d 05 3b e4 00 00 	lea    0xe43b(%rip),%rax        # 210c0 <g_278>
   12c85:	48 89 85 90 f8 ff ff 	mov    %rax,-0x770(%rbp)
   12c8c:	48 8d 85 30 e1 ff ff 	lea    -0x1ed0(%rbp),%rax
   12c93:	48 89 85 98 f8 ff ff 	mov    %rax,-0x768(%rbp)
   12c9a:	48 8d 05 1f e4 00 00 	lea    0xe41f(%rip),%rax        # 210c0 <g_278>
   12ca1:	48 89 85 a0 f8 ff ff 	mov    %rax,-0x760(%rbp)
   12ca8:	48 8d 05 b9 e3 00 00 	lea    0xe3b9(%rip),%rax        # 21068 <g_108+0x8>
   12caf:	48 89 85 a8 f8 ff ff 	mov    %rax,-0x758(%rbp)
   12cb6:	48 8d 05 6f e3 00 00 	lea    0xe36f(%rip),%rax        # 2102c <g_4>
   12cbd:	48 89 85 b0 f8 ff ff 	mov    %rax,-0x750(%rbp)
   12cc4:	48 8d 05 f5 e3 00 00 	lea    0xe3f5(%rip),%rax        # 210c0 <g_278>
   12ccb:	48 89 85 b8 f8 ff ff 	mov    %rax,-0x748(%rbp)
   12cd2:	48 8d 05 e7 e3 00 00 	lea    0xe3e7(%rip),%rax        # 210c0 <g_278>
   12cd9:	48 89 85 c0 f8 ff ff 	mov    %rax,-0x740(%rbp)
   12ce0:	48 8d 85 30 e1 ff ff 	lea    -0x1ed0(%rbp),%rax
   12ce7:	48 89 85 c8 f8 ff ff 	mov    %rax,-0x738(%rbp)
   12cee:	48 8d 85 30 e1 ff ff 	lea    -0x1ed0(%rbp),%rax
   12cf5:	48 89 85 d0 f8 ff ff 	mov    %rax,-0x730(%rbp)
   12cfc:	48 8d 05 bd e3 00 00 	lea    0xe3bd(%rip),%rax        # 210c0 <g_278>
   12d03:	48 89 85 d8 f8 ff ff 	mov    %rax,-0x728(%rbp)
   12d0a:	48 8d 05 af e3 00 00 	lea    0xe3af(%rip),%rax        # 210c0 <g_278>
   12d11:	48 89 85 e0 f8 ff ff 	mov    %rax,-0x720(%rbp)
   12d18:	48 8d 05 0d e3 00 00 	lea    0xe30d(%rip),%rax        # 2102c <g_4>
   12d1f:	48 89 85 e8 f8 ff ff 	mov    %rax,-0x718(%rbp)
   12d26:	48 8d 05 3b e3 00 00 	lea    0xe33b(%rip),%rax        # 21068 <g_108+0x8>
   12d2d:	48 89 85 f0 f8 ff ff 	mov    %rax,-0x710(%rbp)
   12d34:	48 8d 05 85 e3 00 00 	lea    0xe385(%rip),%rax        # 210c0 <g_278>
   12d3b:	48 89 85 f8 f8 ff ff 	mov    %rax,-0x708(%rbp)
   12d42:	48 8d 85 30 e1 ff ff 	lea    -0x1ed0(%rbp),%rax
   12d49:	48 89 85 00 f9 ff ff 	mov    %rax,-0x700(%rbp)
   12d50:	48 8d 05 69 e3 00 00 	lea    0xe369(%rip),%rax        # 210c0 <g_278>
   12d57:	48 89 85 08 f9 ff ff 	mov    %rax,-0x6f8(%rbp)
   12d5e:	48 8d 05 5b e3 00 00 	lea    0xe35b(%rip),%rax        # 210c0 <g_278>
   12d65:	48 89 85 10 f9 ff ff 	mov    %rax,-0x6f0(%rbp)
   12d6c:	48 8d 05 4d e3 00 00 	lea    0xe34d(%rip),%rax        # 210c0 <g_278>
   12d73:	48 89 85 18 f9 ff ff 	mov    %rax,-0x6e8(%rbp)
   12d7a:	48 8d 85 30 e1 ff ff 	lea    -0x1ed0(%rbp),%rax
   12d81:	48 89 85 20 f9 ff ff 	mov    %rax,-0x6e0(%rbp)
   12d88:	66 c7 05 af e3 00 00 	movw   $0x0,0xe3af(%rip)        # 21140 <g_400>
   12d8f:	00 00 
   12d91:	90                   	nop
   12d92:	0f b7 05 a7 e3 00 00 	movzwl 0xe3a7(%rip),%eax        # 21140 <g_400>
   12d99:	66 83 f8 02          	cmp    $0x2,%ax
   12d9d:	0f 87 90 00 00 00    	ja     12e33 <func_13+0x502>
   12da3:	83 bd d8 e0 ff ff 00 	cmpl   $0x0,-0x1f28(%rbp)
   12daa:	74 70                	je     12e1c <func_13+0x4eb>
   12dac:	66 c7 85 66 e0 ff ff 	movw   $0xfffe,-0x1f9a(%rbp)
   12db3:	fe ff 
   12db5:	8b 85 4c e0 ff ff    	mov    -0x1fb4(%rbp),%eax
   12dbb:	66 89 85 66 e0 ff ff 	mov    %ax,-0x1f9a(%rbp)
   12dc2:	0f b7 85 66 e0 ff ff 	movzwl -0x1f9a(%rbp),%eax
   12dc9:	0f b6 c0             	movzbl %al,%eax
   12dcc:	be 03 00 00 00       	mov    $0x3,%esi
   12dd1:	89 c7                	mov    %eax,%edi
   12dd3:	e8 e6 7e ff ff       	callq  acbe <safe_rshift_func_uint8_t_u_u>
   12dd8:	0f b7 15 7d e3 00 00 	movzwl 0xe37d(%rip),%edx        # 2115c <g_569>
   12ddf:	0f b7 d2             	movzwl %dx,%edx
   12de2:	48 63 d2             	movslq %edx,%rdx
   12de5:	48 8d 0c 95 00 00 00 	lea    0x0(,%rdx,4),%rcx
   12dec:	00 
   12ded:	48 8d 15 6c e2 00 00 	lea    0xe26c(%rip),%rdx        # 21060 <g_108>
   12df4:	8b 0c 11             	mov    (%rcx,%rdx,1),%ecx
   12df7:	0f b6 d0             	movzbl %al,%edx
   12dfa:	0f b7 05 5b e3 00 00 	movzwl 0xe35b(%rip),%eax        # 2115c <g_569>
   12e01:	0f b7 c0             	movzwl %ax,%eax
   12e04:	21 d1                	and    %edx,%ecx
   12e06:	48 98                	cltq   
   12e08:	48 8d 14 85 00 00 00 	lea    0x0(,%rax,4),%rdx
   12e0f:	00 
   12e10:	48 8d 05 49 e2 00 00 	lea    0xe249(%rip),%rax        # 21060 <g_108>
   12e17:	89 0c 02             	mov    %ecx,(%rdx,%rax,1)
   12e1a:	eb 0a                	jmp    12e26 <func_13+0x4f5>
   12e1c:	8b 85 30 e1 ff ff    	mov    -0x1ed0(%rbp),%eax
   12e22:	85 c0                	test   %eax,%eax
   12e24:	75 0c                	jne    12e32 <func_13+0x501>
   12e26:	48 8b 85 a8 e2 ff ff 	mov    -0x1d58(%rbp),%rax
   12e2d:	e9 e2 37 00 00       	jmpq   16614 <func_13+0x3ce3>
   12e32:	90                   	nop
   12e33:	0f b6 85 53 e0 ff ff 	movzbl -0x1fad(%rbp),%eax
   12e3a:	83 c0 01             	add    $0x1,%eax
   12e3d:	88 85 53 e0 ff ff    	mov    %al,-0x1fad(%rbp)
   12e43:	0f b6 05 fa e1 00 00 	movzbl 0xe1fa(%rip),%eax        # 21044 <g_63>
   12e4a:	83 c0 01             	add    $0x1,%eax
   12e4d:	88 05 f1 e1 00 00    	mov    %al,0xe1f1(%rip)        # 21044 <g_63>
   12e53:	0f b6 05 ea e1 00 00 	movzbl 0xe1ea(%rip),%eax        # 21044 <g_63>
   12e5a:	3c 02                	cmp    $0x2,%al
   12e5c:	0f 86 90 fd ff ff    	jbe    12bf2 <func_13+0x2c1>
   12e62:	0f b6 05 ef e1 00 00 	movzbl 0xe1ef(%rip),%eax        # 21058 <g_101>
   12e69:	83 e8 01             	sub    $0x1,%eax
   12e6c:	88 05 e6 e1 00 00    	mov    %al,0xe1e6(%rip)        # 21058 <g_101>
   12e72:	0f b6 05 df e1 00 00 	movzbl 0xe1df(%rip),%eax        # 21058 <g_101>
   12e79:	84 c0                	test   %al,%al
   12e7b:	0f 89 2c fd ff ff    	jns    12bad <func_13+0x27c>
   12e81:	48 8b 05 d0 0a 01 00 	mov    0x10ad0(%rip),%rax        # 23958 <g_723>
   12e88:	8b 00                	mov    (%rax),%eax
   12e8a:	31 85 d8 e0 ff ff    	xor    %eax,-0x1f28(%rbp)
   12e90:	48 8b 05 79 05 01 00 	mov    0x10579(%rip),%rax        # 23410 <g_290>
   12e97:	48 8b 00             	mov    (%rax),%rax
   12e9a:	0f b6 00             	movzbl (%rax),%eax
   12e9d:	0f b6 d8             	movzbl %al,%ebx
   12ea0:	8b 85 4c e0 ff ff    	mov    -0x1fb4(%rbp),%eax
   12ea6:	0f be d0             	movsbl %al,%edx
   12ea9:	0f b7 05 ac e2 00 00 	movzwl 0xe2ac(%rip),%eax        # 2115c <g_569>
   12eb0:	0f b7 c0             	movzwl %ax,%eax
   12eb3:	48 98                	cltq   
   12eb5:	48 8d 0c 85 00 00 00 	lea    0x0(,%rax,4),%rcx
   12ebc:	00 
   12ebd:	48 8d 05 9c e1 00 00 	lea    0xe19c(%rip),%rax        # 21060 <g_108>
   12ec4:	8b 04 01             	mov    (%rcx,%rax,1),%eax
   12ec7:	0f be c0             	movsbl %al,%eax
   12eca:	89 d6                	mov    %edx,%esi
   12ecc:	89 c7                	mov    %eax,%edi
   12ece:	e8 01 73 ff ff       	callq  a1d4 <safe_add_func_int8_t_s_s>
   12ed3:	84 c0                	test   %al,%al
   12ed5:	75 2c                	jne    12f03 <func_13+0x5d2>
   12ed7:	0f b6 85 53 e0 ff ff 	movzbl -0x1fad(%rbp),%eax
   12ede:	44 0f b6 e0          	movzbl %al,%r12d
   12ee2:	be c4 00 00 00       	mov    $0xc4,%esi
   12ee7:	bf 00 00 00 00       	mov    $0x0,%edi
   12eec:	e8 a2 7c ff ff       	callq  ab93 <safe_mul_func_uint8_t_u_u>
   12ef1:	0f b6 c0             	movzbl %al,%eax
   12ef4:	44 89 e6             	mov    %r12d,%esi
   12ef7:	89 c7                	mov    %eax,%edi
   12ef9:	e8 90 7e ff ff       	callq  ad8e <safe_div_func_uint16_t_u_u>
   12efe:	66 85 c0             	test   %ax,%ax
   12f01:	74 07                	je     12f0a <func_13+0x5d9>
   12f03:	b8 01 00 00 00       	mov    $0x1,%eax
   12f08:	eb 05                	jmp    12f0f <func_13+0x5de>
   12f0a:	b8 00 00 00 00       	mov    $0x0,%eax
   12f0f:	0f b6 c0             	movzbl %al,%eax
   12f12:	89 de                	mov    %ebx,%esi
   12f14:	89 c7                	mov    %eax,%edi
   12f16:	e8 78 7c ff ff       	callq  ab93 <safe_mul_func_uint8_t_u_u>
   12f1b:	0f b6 c0             	movzbl %al,%eax
   12f1e:	89 c6                	mov    %eax,%esi
   12f20:	bf 28 0a 00 00       	mov    $0xa28,%edi
   12f25:	e8 cb 74 ff ff       	callq  a3f5 <safe_mul_func_int16_t_s_s>
   12f2a:	0f b6 15 29 e2 00 00 	movzbl 0xe229(%rip),%edx        # 2115a <g_501+0x2>
   12f31:	66 0f be d2          	movsbw %dl,%dx
   12f35:	66 39 d0             	cmp    %dx,%ax
   12f38:	0f 9c c0             	setl   %al
   12f3b:	0f b6 c0             	movzbl %al,%eax
   12f3e:	89 85 74 e0 ff ff    	mov    %eax,-0x1f8c(%rbp)
   12f44:	0f b6 85 53 e0 ff ff 	movzbl -0x1fad(%rbp),%eax
   12f4b:	84 c0                	test   %al,%al
   12f4d:	8b 85 d8 e0 ff ff    	mov    -0x1f28(%rbp),%eax
   12f53:	89 c2                	mov    %eax,%edx
   12f55:	8b 05 05 e2 00 00    	mov    0xe205(%rip),%eax        # 21160 <g_622>
   12f5b:	31 d0                	xor    %edx,%eax
   12f5d:	89 05 fd e1 00 00    	mov    %eax,0xe1fd(%rip)        # 21160 <g_622>
   12f63:	48 8b 05 26 08 01 00 	mov    0x10826(%rip),%rax        # 23790 <g_418>
   12f6a:	48 8b 00             	mov    (%rax),%rax
   12f6d:	89 c2                	mov    %eax,%edx
   12f6f:	8b 85 4c e0 ff ff    	mov    -0x1fb4(%rbp),%eax
   12f75:	31 d0                	xor    %edx,%eax
   12f77:	0f b6 c0             	movzbl %al,%eax
   12f7a:	be 00 00 00 00       	mov    $0x0,%esi
   12f7f:	89 c7                	mov    %eax,%edi
   12f81:	e8 f2 7b ff ff       	callq  ab78 <safe_sub_func_uint8_t_u_u>
   12f86:	48 8b 05 7b 04 01 00 	mov    0x1047b(%rip),%rax        # 23408 <g_291>
   12f8d:	c6 00 01             	movb   $0x1,(%rax)
   12f90:	0f b7 05 c5 e1 00 00 	movzwl 0xe1c5(%rip),%eax        # 2115c <g_569>
   12f97:	0f b7 c0             	movzwl %ax,%eax
   12f9a:	48 98                	cltq   
   12f9c:	48 8d 14 85 00 00 00 	lea    0x0(,%rax,4),%rdx
   12fa3:	00 
   12fa4:	48 8d 05 b5 e0 00 00 	lea    0xe0b5(%rip),%rax        # 21060 <g_108>
   12fab:	8b 04 02             	mov    (%rdx,%rax,1),%eax
   12fae:	83 c8 0b             	or     $0xb,%eax
   12fb1:	89 c2                	mov    %eax,%edx
   12fb3:	8b 85 4c e0 ff ff    	mov    -0x1fb4(%rbp),%eax
   12fb9:	31 d0                	xor    %edx,%eax
   12fbb:	0f b7 c0             	movzwl %ax,%eax
   12fbe:	be f7 ff 00 00       	mov    $0xfff7,%esi
   12fc3:	89 c7                	mov    %eax,%edi
   12fc5:	e8 73 7d ff ff       	callq  ad3d <safe_mul_func_uint16_t_u_u>
   12fca:	0f b7 c0             	movzwl %ax,%eax
   12fcd:	31 85 dc e0 ff ff    	xor    %eax,-0x1f24(%rbp)
   12fd3:	8b 85 dc e0 ff ff    	mov    -0x1f24(%rbp),%eax
   12fd9:	98                   	cwtl   
   12fda:	be 0c 00 00 00       	mov    $0xc,%esi
   12fdf:	89 c7                	mov    %eax,%edi
   12fe1:	e8 7d 75 ff ff       	callq  a563 <safe_rshift_func_int16_t_s_u>
   12fe6:	89 c2                	mov    %eax,%edx
   12fe8:	0f b7 05 6d e1 00 00 	movzwl 0xe16d(%rip),%eax        # 2115c <g_569>
   12fef:	0f b7 c0             	movzwl %ax,%eax
   12ff2:	0f bf d2             	movswl %dx,%edx
   12ff5:	48 63 c8             	movslq %eax,%rcx
   12ff8:	48 8d 34 8d 00 00 00 	lea    0x0(,%rcx,4),%rsi
   12fff:	00 
   13000:	48 8d 0d 59 e0 00 00 	lea    0xe059(%rip),%rcx        # 21060 <g_108>
   13007:	89 14 0e             	mov    %edx,(%rsi,%rcx,1)
   1300a:	48 98                	cltq   
   1300c:	48 8d 14 85 00 00 00 	lea    0x0(,%rax,4),%rdx
   13013:	00 
   13014:	48 8d 05 45 e0 00 00 	lea    0xe045(%rip),%rax        # 21060 <g_108>
   1301b:	8b 04 02             	mov    (%rdx,%rax,1),%eax
   1301e:	85 c0                	test   %eax,%eax
   13020:	0f 84 96 03 00 00    	je     133bc <func_13+0xa8b>
   13026:	66 c7 85 50 f8 ff ff 	movw   $0x6675,-0x7b0(%rbp)
   1302d:	75 66 
   1302f:	66 c7 85 52 f8 ff ff 	movw   $0xcc6d,-0x7ae(%rbp)
   13036:	6d cc 
   13038:	66 c7 85 54 f8 ff ff 	movw   $0x8,-0x7ac(%rbp)
   1303f:	08 00 
   13041:	66 c7 85 56 f8 ff ff 	movw   $0x0,-0x7aa(%rbp)
   13048:	00 00 
   1304a:	66 c7 85 58 f8 ff ff 	movw   $0x0,-0x7a8(%rbp)
   13051:	00 00 
   13053:	66 c7 85 5a f8 ff ff 	movw   $0x8,-0x7a6(%rbp)
   1305a:	08 00 
   1305c:	66 c7 85 5c f8 ff ff 	movw   $0xffff,-0x7a4(%rbp)
   13063:	ff ff 
   13065:	66 c7 85 5e f8 ff ff 	movw   $0x514d,-0x7a2(%rbp)
   1306c:	4d 51 
   1306e:	66 c7 85 60 f8 ff ff 	movw   $0x4,-0x7a0(%rbp)
   13075:	04 00 
   13077:	66 c7 85 62 f8 ff ff 	movw   $0x514d,-0x79e(%rbp)
   1307e:	4d 51 
   13080:	66 c7 85 64 f8 ff ff 	movw   $0x0,-0x79c(%rbp)
   13087:	00 00 
   13089:	66 c7 85 66 f8 ff ff 	movw   $0x5c6,-0x79a(%rbp)
   13090:	c6 05 
   13092:	66 c7 85 68 f8 ff ff 	movw   $0xfff8,-0x798(%rbp)
   13099:	f8 ff 
   1309b:	66 c7 85 6a f8 ff ff 	movw   $0xffff,-0x796(%rbp)
   130a2:	ff ff 
   130a4:	66 c7 85 6c f8 ff ff 	movw   $0xfff8,-0x794(%rbp)
   130ab:	f8 ff 
   130ad:	66 c7 85 6e f8 ff ff 	movw   $0x5c6,-0x792(%rbp)
   130b4:	c6 05 
   130b6:	66 c7 85 70 f8 ff ff 	movw   $0x0,-0x790(%rbp)
   130bd:	00 00 
   130bf:	66 c7 85 72 f8 ff ff 	movw   $0xfffe,-0x78e(%rbp)
   130c6:	fe ff 
   130c8:	66 c7 85 74 f8 ff ff 	movw   $0xd0ff,-0x78c(%rbp)
   130cf:	ff d0 
   130d1:	66 c7 85 76 f8 ff ff 	movw   $0x0,-0x78a(%rbp)
   130d8:	00 00 
   130da:	66 c7 85 78 f8 ff ff 	movw   $0xa751,-0x788(%rbp)
   130e1:	51 a7 
   130e3:	66 c7 85 7a f8 ff ff 	movw   $0xdeb7,-0x786(%rbp)
   130ea:	b7 de 
   130ec:	66 c7 85 7c f8 ff ff 	movw   $0xffff,-0x784(%rbp)
   130f3:	ff ff 
   130f5:	66 c7 85 7e f8 ff ff 	movw   $0xfff8,-0x782(%rbp)
   130fc:	f8 ff 
   130fe:	66 c7 85 80 f8 ff ff 	movw   $0xdeb7,-0x780(%rbp)
   13105:	b7 de 
   13107:	66 c7 85 82 f8 ff ff 	movw   $0xd0ff,-0x77e(%rbp)
   1310e:	ff d0 
   13110:	66 c7 85 84 f8 ff ff 	movw   $0x9872,-0x77c(%rbp)
   13117:	72 98 
   13119:	66 c7 85 86 f8 ff ff 	movw   $0x6675,-0x77a(%rbp)
   13120:	75 66 
   13122:	66 c7 85 88 f8 ff ff 	movw   $0xffff,-0x778(%rbp)
   13129:	ff ff 
   1312b:	66 c7 85 8a f8 ff ff 	movw   $0xfffe,-0x776(%rbp)
   13132:	fe ff 
   13134:	66 c7 85 8c f8 ff ff 	movw   $0xffff,-0x774(%rbp)
   1313b:	ff ff 
   1313d:	66 c7 85 8e f8 ff ff 	movw   $0xdeb7,-0x772(%rbp)
   13144:	b7 de 
   13146:	66 c7 85 90 f8 ff ff 	movw   $0x8,-0x770(%rbp)
   1314d:	08 00 
   1314f:	66 c7 85 92 f8 ff ff 	movw   $0x514d,-0x76e(%rbp)
   13156:	4d 51 
   13158:	66 c7 85 94 f8 ff ff 	movw   $0xcc6d,-0x76c(%rbp)
   1315f:	6d cc 
   13161:	66 c7 85 96 f8 ff ff 	movw   $0x4d45,-0x76a(%rbp)
   13168:	45 4d 
   1316a:	66 c7 85 98 f8 ff ff 	movw   $0x0,-0x768(%rbp)
   13171:	00 00 
   13173:	66 c7 85 9a f8 ff ff 	movw   $0x0,-0x766(%rbp)
   1317a:	00 00 
   1317c:	66 c7 85 9c f8 ff ff 	movw   $0x4d45,-0x764(%rbp)
   13183:	45 4d 
   13185:	66 c7 85 9e f8 ff ff 	movw   $0xcc6d,-0x762(%rbp)
   1318c:	6d cc 
   1318e:	66 c7 85 a0 f8 ff ff 	movw   $0xffff,-0x760(%rbp)
   13195:	ff ff 
   13197:	66 c7 85 a2 f8 ff ff 	movw   $0x5c6,-0x75e(%rbp)
   1319e:	c6 05 
   131a0:	66 c7 85 a4 f8 ff ff 	movw   $0x5c6,-0x75c(%rbp)
   131a7:	c6 05 
   131a9:	66 c7 85 a6 f8 ff ff 	movw   $0xffff,-0x75a(%rbp)
   131b0:	ff ff 
   131b2:	66 c7 85 a8 f8 ff ff 	movw   $0xffff,-0x758(%rbp)
   131b9:	ff ff 
   131bb:	66 c7 85 aa f8 ff ff 	movw   $0xfffe,-0x756(%rbp)
   131c2:	fe ff 
   131c4:	66 c7 85 ac f8 ff ff 	movw   $0xffff,-0x754(%rbp)
   131cb:	ff ff 
   131cd:	66 c7 85 ae f8 ff ff 	movw   $0xa751,-0x752(%rbp)
   131d4:	51 a7 
   131d6:	66 c7 85 b0 f8 ff ff 	movw   $0xffff,-0x750(%rbp)
   131dd:	ff ff 
   131df:	66 c7 85 b2 f8 ff ff 	movw   $0xffff,-0x74e(%rbp)
   131e6:	ff ff 
   131e8:	66 c7 85 b4 f8 ff ff 	movw   $0xa751,-0x74c(%rbp)
   131ef:	51 a7 
   131f1:	66 c7 85 b6 f8 ff ff 	movw   $0xcc6d,-0x74a(%rbp)
   131f8:	6d cc 
   131fa:	66 c7 85 b8 f8 ff ff 	movw   $0xd0ff,-0x748(%rbp)
   13201:	ff d0 
   13203:	66 c7 85 ba f8 ff ff 	movw   $0xffff,-0x746(%rbp)
   1320a:	ff ff 
   1320c:	66 c7 85 bc f8 ff ff 	movw   $0xffff,-0x744(%rbp)
   13213:	ff ff 
   13215:	66 c7 85 be f8 ff ff 	movw   $0x9872,-0x742(%rbp)
   1321c:	72 98 
   1321e:	66 c7 85 c0 f8 ff ff 	movw   $0x5c6,-0x740(%rbp)
   13225:	c6 05 
   13227:	66 c7 85 c2 f8 ff ff 	movw   $0xffff,-0x73e(%rbp)
   1322e:	ff ff 
   13230:	66 c7 85 c4 f8 ff ff 	movw   $0xffff,-0x73c(%rbp)
   13237:	ff ff 
   13239:	66 c7 85 c6 f8 ff ff 	movw   $0xfffe,-0x73a(%rbp)
   13240:	fe ff 
   13242:	66 c7 85 c8 f8 ff ff 	movw   $0xffff,-0x738(%rbp)
   13249:	ff ff 
   1324b:	66 c7 85 ca f8 ff ff 	movw   $0x0,-0x736(%rbp)
   13252:	00 00 
   13254:	66 c7 85 cc f8 ff ff 	movw   $0x4d45,-0x734(%rbp)
   1325b:	45 4d 
   1325d:	66 c7 85 ce f8 ff ff 	movw   $0xffff,-0x732(%rbp)
   13264:	ff ff 
   13266:	66 c7 85 d0 f8 ff ff 	movw   $0x6675,-0x730(%rbp)
   1326d:	75 66 
   1326f:	66 c7 85 d2 f8 ff ff 	movw   $0x8,-0x72e(%rbp)
   13276:	08 00 
   13278:	66 c7 85 d4 f8 ff ff 	movw   $0x6675,-0x72c(%rbp)
   1327f:	75 66 
   13281:	66 c7 85 d6 f8 ff ff 	movw   $0xffff,-0x72a(%rbp)
   13288:	ff ff 
   1328a:	66 c7 85 d8 f8 ff ff 	movw   $0x4d45,-0x728(%rbp)
   13291:	45 4d 
   13293:	66 c7 85 da f8 ff ff 	movw   $0x0,-0x726(%rbp)
   1329a:	00 00 
   1329c:	66 c7 85 dc f8 ff ff 	movw   $0xdeb7,-0x724(%rbp)
   132a3:	b7 de 
   132a5:	66 c7 85 de f8 ff ff 	movw   $0x9872,-0x722(%rbp)
   132ac:	72 98 
   132ae:	66 c7 85 e0 f8 ff ff 	movw   $0xfffe,-0x720(%rbp)
   132b5:	fe ff 
   132b7:	66 c7 85 e2 f8 ff ff 	movw   $0x514d,-0x71e(%rbp)
   132be:	4d 51 
   132c0:	66 c7 85 e4 f8 ff ff 	movw   $0xfff8,-0x71c(%rbp)
   132c7:	f8 ff 
   132c9:	66 c7 85 e6 f8 ff ff 	movw   $0xffff,-0x71a(%rbp)
   132d0:	ff ff 
   132d2:	66 c7 85 e8 f8 ff ff 	movw   $0x514d,-0x718(%rbp)
   132d9:	4d 51 
   132db:	66 c7 85 ea f8 ff ff 	movw   $0xa751,-0x716(%rbp)
   132e2:	51 a7 
   132e4:	66 c7 85 ec f8 ff ff 	movw   $0xffff,-0x714(%rbp)
   132eb:	ff ff 
   132ed:	66 c7 85 ee f8 ff ff 	movw   $0xdeb7,-0x712(%rbp)
   132f4:	b7 de 
   132f6:	66 c7 85 f0 f8 ff ff 	movw   $0xfffe,-0x710(%rbp)
   132fd:	fe ff 
   132ff:	66 c7 85 f2 f8 ff ff 	movw   $0xffff,-0x70e(%rbp)
   13306:	ff ff 
   13308:	66 c7 85 f4 f8 ff ff 	movw   $0x9872,-0x70c(%rbp)
   1330f:	72 98 
   13311:	66 c7 85 f6 f8 ff ff 	movw   $0xfff8,-0x70a(%rbp)
   13318:	f8 ff 
   1331a:	66 c7 85 f8 f8 ff ff 	movw   $0x0,-0x708(%rbp)
   13321:	00 00 
   13323:	66 c7 85 fa f8 ff ff 	movw   $0xffff,-0x706(%rbp)
   1332a:	ff ff 
   1332c:	66 c7 85 fc f8 ff ff 	movw   $0x5c6,-0x704(%rbp)
   13333:	c6 05 
   13335:	66 c7 85 fe f8 ff ff 	movw   $0xffff,-0x702(%rbp)
   1333c:	ff ff 
   1333e:	66 c7 85 00 f9 ff ff 	movw   $0xd0ff,-0x700(%rbp)
   13345:	ff d0 
   13347:	66 c7 85 02 f9 ff ff 	movw   $0xd0ff,-0x6fe(%rbp)
   1334e:	ff d0 
   13350:	66 c7 85 04 f9 ff ff 	movw   $0xdeb7,-0x6fc(%rbp)
   13357:	b7 de 
   13359:	66 c7 85 06 f9 ff ff 	movw   $0xffff,-0x6fa(%rbp)
   13360:	ff ff 
   13362:	66 c7 85 08 f9 ff ff 	movw   $0x8,-0x6f8(%rbp)
   13369:	08 00 
   1336b:	66 c7 85 0a f9 ff ff 	movw   $0xffff,-0x6f6(%rbp)
   13372:	ff ff 
   13374:	66 c7 85 0c f9 ff ff 	movw   $0xffff,-0x6f4(%rbp)
   1337b:	ff ff 
   1337d:	66 c7 85 0e f9 ff ff 	movw   $0x8,-0x6f2(%rbp)
   13384:	08 00 
   13386:	66 c7 85 10 f9 ff ff 	movw   $0xffff,-0x6f0(%rbp)
   1338d:	ff ff 
   1338f:	66 c7 85 12 f9 ff ff 	movw   $0xdeb7,-0x6ee(%rbp)
   13396:	b7 de 
   13398:	66 c7 85 14 f9 ff ff 	movw   $0x4,-0x6ec(%rbp)
   1339f:	04 00 
   133a1:	66 c7 85 16 f9 ff ff 	movw   $0x6675,-0x6ea(%rbp)
   133a8:	75 66 
   133aa:	48 8b 05 a7 05 01 00 	mov    0x105a7(%rip),%rax        # 23958 <g_723>
   133b1:	8b 00                	mov    (%rax),%eax
   133b3:	66 89 85 e6 f8 ff ff 	mov    %ax,-0x71a(%rbp)
   133ba:	eb 26                	jmp    133e2 <func_13+0xab1>
   133bc:	48 8d 05 fd dc 00 00 	lea    0xdcfd(%rip),%rax        # 210c0 <g_278>
   133c3:	48 89 85 b0 e2 ff ff 	mov    %rax,-0x1d50(%rbp)
   133ca:	48 8b 05 27 00 01 00 	mov    0x10027(%rip),%rax        # 233f8 <g_288>
   133d1:	48 c7 00 00 00 00 00 	movq   $0x0,(%rax)
   133d8:	48 8b 00             	mov    (%rax),%rax
   133db:	48 89 85 b0 e2 ff ff 	mov    %rax,-0x1d50(%rbp)
   133e2:	0f b7 05 73 dd 00 00 	movzwl 0xdd73(%rip),%eax        # 2115c <g_569>
   133e9:	83 c0 01             	add    $0x1,%eax
   133ec:	66 89 05 69 dd 00 00 	mov    %ax,0xdd69(%rip)        # 2115c <g_569>
   133f3:	0f b7 05 62 dd 00 00 	movzwl 0xdd62(%rip),%eax        # 2115c <g_569>
   133fa:	66 83 f8 02          	cmp    $0x2,%ax
   133fe:	0f 86 ce f6 ff ff    	jbe    12ad2 <func_13+0x1a1>
   13404:	48 c7 05 39 dc 00 00 	movq   $0x0,0xdc39(%rip)        # 21048 <g_98>
   1340b:	00 00 00 00 
   1340f:	e9 d5 30 00 00       	jmpq   164e9 <func_13+0x3bb8>
   13414:	48 8d 05 a9 dc 00 00 	lea    0xdca9(%rip),%rax        # 210c4 <g_353>
   1341b:	48 89 85 e0 e2 ff ff 	mov    %rax,-0x1d20(%rbp)
   13422:	48 8d 05 9b dc 00 00 	lea    0xdc9b(%rip),%rax        # 210c4 <g_353>
   13429:	48 89 85 e8 e2 ff ff 	mov    %rax,-0x1d18(%rbp)
   13430:	48 8d 05 8d dc 00 00 	lea    0xdc8d(%rip),%rax        # 210c4 <g_353>
   13437:	48 89 85 f0 e2 ff ff 	mov    %rax,-0x1d10(%rbp)
   1343e:	48 8d 05 7f dc 00 00 	lea    0xdc7f(%rip),%rax        # 210c4 <g_353>
   13445:	48 89 85 f8 e2 ff ff 	mov    %rax,-0x1d08(%rbp)
   1344c:	48 8d 05 b5 ff 00 00 	lea    0xffb5(%rip),%rax        # 23408 <g_291>
   13453:	48 89 85 88 e1 ff ff 	mov    %rax,-0x1e78(%rbp)
   1345a:	48 c7 85 a0 e3 ff ff 	movq   $0x0,-0x1c60(%rbp)
   13461:	00 00 00 00 
   13465:	48 c7 85 a8 e3 ff ff 	movq   $0x0,-0x1c58(%rbp)
   1346c:	00 00 00 00 
   13470:	48 c7 85 b0 e3 ff ff 	movq   $0x0,-0x1c50(%rbp)
   13477:	00 00 00 00 
   1347b:	48 8d 05 c6 db 00 00 	lea    0xdbc6(%rip),%rax        # 21048 <g_98>
   13482:	48 89 85 b8 e3 ff ff 	mov    %rax,-0x1c48(%rbp)
   13489:	48 8d 05 b8 db 00 00 	lea    0xdbb8(%rip),%rax        # 21048 <g_98>
   13490:	48 89 85 c0 e3 ff ff 	mov    %rax,-0x1c40(%rbp)
   13497:	48 8d 05 aa db 00 00 	lea    0xdbaa(%rip),%rax        # 21048 <g_98>
   1349e:	48 89 85 c8 e3 ff ff 	mov    %rax,-0x1c38(%rbp)
   134a5:	48 c7 85 d0 e3 ff ff 	movq   $0x0,-0x1c30(%rbp)
   134ac:	00 00 00 00 
   134b0:	48 c7 85 d8 e3 ff ff 	movq   $0x0,-0x1c28(%rbp)
   134b7:	00 00 00 00 
   134bb:	48 c7 85 e0 e3 ff ff 	movq   $0x0,-0x1c20(%rbp)
   134c2:	00 00 00 00 
   134c6:	48 8d 05 7b db 00 00 	lea    0xdb7b(%rip),%rax        # 21048 <g_98>
   134cd:	48 89 85 e8 e3 ff ff 	mov    %rax,-0x1c18(%rbp)
   134d4:	48 8d 05 6d db 00 00 	lea    0xdb6d(%rip),%rax        # 21048 <g_98>
   134db:	48 89 85 f0 e3 ff ff 	mov    %rax,-0x1c10(%rbp)
   134e2:	48 8d 05 5f db 00 00 	lea    0xdb5f(%rip),%rax        # 21048 <g_98>
   134e9:	48 89 85 f8 e3 ff ff 	mov    %rax,-0x1c08(%rbp)
   134f0:	48 c7 85 00 e4 ff ff 	movq   $0x0,-0x1c00(%rbp)
   134f7:	00 00 00 00 
   134fb:	48 c7 85 08 e4 ff ff 	movq   $0x0,-0x1bf8(%rbp)
   13502:	00 00 00 00 
   13506:	48 c7 85 10 e4 ff ff 	movq   $0x0,-0x1bf0(%rbp)
   1350d:	00 00 00 00 
   13511:	48 8d 05 30 db 00 00 	lea    0xdb30(%rip),%rax        # 21048 <g_98>
   13518:	48 89 85 18 e4 ff ff 	mov    %rax,-0x1be8(%rbp)
   1351f:	48 8d 05 22 db 00 00 	lea    0xdb22(%rip),%rax        # 21048 <g_98>
   13526:	48 89 85 20 e4 ff ff 	mov    %rax,-0x1be0(%rbp)
   1352d:	48 8d 05 14 db 00 00 	lea    0xdb14(%rip),%rax        # 21048 <g_98>
   13534:	48 89 85 28 e4 ff ff 	mov    %rax,-0x1bd8(%rbp)
   1353b:	48 c7 85 30 e4 ff ff 	movq   $0x0,-0x1bd0(%rbp)
   13542:	00 00 00 00 
   13546:	48 c7 85 38 e4 ff ff 	movq   $0x0,-0x1bc8(%rbp)
   1354d:	00 00 00 00 
   13551:	48 c7 85 40 e4 ff ff 	movq   $0x0,-0x1bc0(%rbp)
   13558:	00 00 00 00 
   1355c:	48 c7 85 f8 e0 ff ff 	movq   $0x0,-0x1f08(%rbp)
   13563:	00 00 00 00 
   13567:	48 8d 85 f8 e0 ff ff 	lea    -0x1f08(%rbp),%rax
   1356e:	48 89 85 00 e1 ff ff 	mov    %rax,-0x1f00(%rbp)
   13575:	48 8d 85 00 e1 ff ff 	lea    -0x1f00(%rbp),%rax
   1357c:	48 89 85 90 e1 ff ff 	mov    %rax,-0x1e70(%rbp)
   13583:	48 8d 05 d0 db 00 00 	lea    0xdbd0(%rip),%rax        # 2115a <g_501+0x2>
   1358a:	48 89 85 08 e1 ff ff 	mov    %rax,-0x1ef8(%rbp)
   13591:	66 c7 85 5e e0 ff ff 	movw   $0xffff,-0x1fa2(%rbp)
   13598:	ff ff 
   1359a:	48 8d 05 af db 00 00 	lea    0xdbaf(%rip),%rax        # 21150 <g_500>
   135a1:	48 89 85 60 e3 ff ff 	mov    %rax,-0x1ca0(%rbp)
   135a8:	48 8d 05 a1 db 00 00 	lea    0xdba1(%rip),%rax        # 21150 <g_500>
   135af:	48 89 85 68 e3 ff ff 	mov    %rax,-0x1c98(%rbp)
   135b6:	48 8d 05 93 db 00 00 	lea    0xdb93(%rip),%rax        # 21150 <g_500>
   135bd:	48 89 85 70 e3 ff ff 	mov    %rax,-0x1c90(%rbp)
   135c4:	48 8d 05 85 db 00 00 	lea    0xdb85(%rip),%rax        # 21150 <g_500>
   135cb:	48 89 85 78 e3 ff ff 	mov    %rax,-0x1c88(%rbp)
   135d2:	48 8d 05 77 db 00 00 	lea    0xdb77(%rip),%rax        # 21150 <g_500>
   135d9:	48 89 85 80 e3 ff ff 	mov    %rax,-0x1c80(%rbp)
   135e0:	48 8d 05 69 db 00 00 	lea    0xdb69(%rip),%rax        # 21150 <g_500>
   135e7:	48 89 85 88 e3 ff ff 	mov    %rax,-0x1c78(%rbp)
   135ee:	48 8d 05 5b db 00 00 	lea    0xdb5b(%rip),%rax        # 21150 <g_500>
   135f5:	48 89 85 90 e3 ff ff 	mov    %rax,-0x1c70(%rbp)
   135fc:	48 8d 85 b0 e7 ff ff 	lea    -0x1850(%rbp),%rax
   13603:	48 8d 15 f6 e2 00 00 	lea    0xe2f6(%rip),%rdx        # 21900 <g_2844+0x586>
   1360a:	b9 50 00 00 00       	mov    $0x50,%ecx
   1360f:	48 89 c7             	mov    %rax,%rdi
   13612:	48 89 d6             	mov    %rdx,%rsi
   13615:	f3 48 a5             	rep movsq %ds:(%rsi),%es:(%rdi)
   13618:	c6 85 57 e0 ff ff fe 	movb   $0xfe,-0x1fa9(%rbp)
   1361f:	48 b8 50 8f c0 f4 f0 	movabs $0x975069f0f4c08f50,%rax
   13626:	69 50 97 
   13629:	48 89 85 98 e1 ff ff 	mov    %rax,-0x1e68(%rbp)
   13630:	c7 85 74 e0 ff ff f8 	movl   $0xfffffff8,-0x1f8c(%rbp)
   13637:	ff ff ff 
   1363a:	8b 85 74 e0 ff ff    	mov    -0x1f8c(%rbp),%eax
   13640:	89 85 68 e0 ff ff    	mov    %eax,-0x1f98(%rbp)
   13646:	8b 85 68 e0 ff ff    	mov    -0x1f98(%rbp),%eax
   1364c:	31 85 78 e0 ff ff    	xor    %eax,-0x1f88(%rbp)
   13652:	83 bd 4c e0 ff ff 00 	cmpl   $0x0,-0x1fb4(%rbp)
   13659:	0f 84 54 2c 00 00    	je     162b3 <func_13+0x3982>
   1365f:	66 c7 85 5c e0 ff ff 	movw   $0x8c3f,-0x1fa4(%rbp)
   13666:	3f 8c 
   13668:	48 8d 05 d9 d9 00 00 	lea    0xd9d9(%rip),%rax        # 21048 <g_98>
   1366f:	48 89 85 10 e1 ff ff 	mov    %rax,-0x1ef0(%rbp)
   13676:	48 8d 85 10 e1 ff ff 	lea    -0x1ef0(%rbp),%rax
   1367d:	48 89 85 18 e1 ff ff 	mov    %rax,-0x1ee8(%rbp)
   13684:	48 8d 85 18 e1 ff ff 	lea    -0x1ee8(%rbp),%rax
   1368b:	48 89 85 a0 e1 ff ff 	mov    %rax,-0x1e60(%rbp)
   13692:	c7 85 88 e0 ff ff 05 	movl   $0x5,-0x1f78(%rbp)
   13699:	00 00 00 
   1369c:	48 8d 85 50 e4 ff ff 	lea    -0x1bb0(%rbp),%rax
   136a3:	48 8d 15 d6 e4 00 00 	lea    0xe4d6(%rip),%rdx        # 21b80 <g_2844+0x806>
   136aa:	b9 36 00 00 00       	mov    $0x36,%ecx
   136af:	48 89 c7             	mov    %rax,%rdi
   136b2:	48 89 d6             	mov    %rdx,%rsi
   136b5:	f3 48 a5             	rep movsq %ds:(%rsi),%es:(%rdi)
   136b8:	c7 85 6c e0 ff ff 48 	movl   $0x92d23b48,-0x1f94(%rbp)
   136bf:	3b d2 92 
   136c2:	48 8d 05 77 00 01 00 	lea    0x10077(%rip),%rax        # 23740 <g_376>
   136c9:	48 89 85 a8 e1 ff ff 	mov    %rax,-0x1e58(%rbp)
   136d0:	48 8d 85 50 ed ff ff 	lea    -0x12b0(%rbp),%rax
   136d7:	48 8d 15 62 e6 00 00 	lea    0xe662(%rip),%rdx        # 21d40 <g_2844+0x9c6>
   136de:	b9 70 00 00 00       	mov    $0x70,%ecx
   136e3:	48 89 c7             	mov    %rax,%rdi
   136e6:	48 89 d6             	mov    %rdx,%rsi
   136e9:	f3 48 a5             	rep movsq %ds:(%rsi),%es:(%rdi)
   136ec:	48 8d 85 d0 f0 ff ff 	lea    -0xf30(%rbp),%rax
   136f3:	48 8d 15 c6 e9 00 00 	lea    0xe9c6(%rip),%rdx        # 220c0 <g_2844+0xd46>
   136fa:	b9 f0 00 00 00       	mov    $0xf0,%ecx
   136ff:	48 89 c7             	mov    %rax,%rdi
   13702:	48 89 d6             	mov    %rdx,%rsi
   13705:	f3 48 a5             	rep movsq %ds:(%rsi),%es:(%rdi)
   13708:	48 8d 05 4b da 00 00 	lea    0xda4b(%rip),%rax        # 2115a <g_501+0x2>
   1370f:	48 89 85 20 e1 ff ff 	mov    %rax,-0x1ee0(%rbp)
   13716:	48 c7 85 b0 e1 ff ff 	movq   $0x0,-0x1e50(%rbp)
   1371d:	00 00 00 00 
   13721:	48 8d 85 20 e1 ff ff 	lea    -0x1ee0(%rbp),%rax
   13728:	48 89 85 28 e1 ff ff 	mov    %rax,-0x1ed8(%rbp)
   1372f:	48 8d 05 8a fc 00 00 	lea    0xfc8a(%rip),%rax        # 233c0 <g_103>
   13736:	48 89 85 30 ea ff ff 	mov    %rax,-0x15d0(%rbp)
   1373d:	48 8d 85 e0 e2 ff ff 	lea    -0x1d20(%rbp),%rax
   13744:	48 83 c0 08          	add    $0x8,%rax
   13748:	48 89 85 38 ea ff ff 	mov    %rax,-0x15c8(%rbp)
   1374f:	48 8d 85 e0 e2 ff ff 	lea    -0x1d20(%rbp),%rax
   13756:	48 83 c0 08          	add    $0x8,%rax
   1375a:	48 89 85 40 ea ff ff 	mov    %rax,-0x15c0(%rbp)
   13761:	48 8d 85 e0 e2 ff ff 	lea    -0x1d20(%rbp),%rax
   13768:	48 83 c0 08          	add    $0x8,%rax
   1376c:	48 89 85 48 ea ff ff 	mov    %rax,-0x15b8(%rbp)
   13773:	48 8d 05 66 fc 00 00 	lea    0xfc66(%rip),%rax        # 233e0 <g_201>
   1377a:	48 89 85 50 ea ff ff 	mov    %rax,-0x15b0(%rbp)
   13781:	48 8d 85 e0 e2 ff ff 	lea    -0x1d20(%rbp),%rax
   13788:	48 83 c0 18          	add    $0x18,%rax
   1378c:	48 89 85 58 ea ff ff 	mov    %rax,-0x15a8(%rbp)
   13793:	48 8d 85 e0 e2 ff ff 	lea    -0x1d20(%rbp),%rax
   1379a:	48 83 c0 08          	add    $0x8,%rax
   1379e:	48 89 85 60 ea ff ff 	mov    %rax,-0x15a0(%rbp)
   137a5:	48 8d 85 e0 e2 ff ff 	lea    -0x1d20(%rbp),%rax
   137ac:	48 83 c0 08          	add    $0x8,%rax
   137b0:	48 89 85 68 ea ff ff 	mov    %rax,-0x1598(%rbp)
   137b7:	48 8d 85 e0 e2 ff ff 	lea    -0x1d20(%rbp),%rax
   137be:	48 83 c0 08          	add    $0x8,%rax
   137c2:	48 89 85 70 ea ff ff 	mov    %rax,-0x1590(%rbp)
   137c9:	48 8d 85 e0 e2 ff ff 	lea    -0x1d20(%rbp),%rax
   137d0:	48 83 c0 08          	add    $0x8,%rax
   137d4:	48 89 85 78 ea ff ff 	mov    %rax,-0x1588(%rbp)
   137db:	48 8d 05 de fb 00 00 	lea    0xfbde(%rip),%rax        # 233c0 <g_103>
   137e2:	48 89 85 80 ea ff ff 	mov    %rax,-0x1580(%rbp)
   137e9:	48 8d 85 e0 e2 ff ff 	lea    -0x1d20(%rbp),%rax
   137f0:	48 83 c0 08          	add    $0x8,%rax
   137f4:	48 89 85 88 ea ff ff 	mov    %rax,-0x1578(%rbp)
   137fb:	48 8d 05 de fb 00 00 	lea    0xfbde(%rip),%rax        # 233e0 <g_201>
   13802:	48 89 85 90 ea ff ff 	mov    %rax,-0x1570(%rbp)
   13809:	48 8d 85 e0 e2 ff ff 	lea    -0x1d20(%rbp),%rax
   13810:	48 83 c0 18          	add    $0x18,%rax
   13814:	48 89 85 98 ea ff ff 	mov    %rax,-0x1568(%rbp)
   1381b:	48 8d 85 e0 e2 ff ff 	lea    -0x1d20(%rbp),%rax
   13822:	48 83 c0 10          	add    $0x10,%rax
   13826:	48 89 85 a0 ea ff ff 	mov    %rax,-0x1560(%rbp)
   1382d:	48 c7 85 a8 ea ff ff 	movq   $0x0,-0x1558(%rbp)
   13834:	00 00 00 00 
   13838:	48 c7 85 b0 ea ff ff 	movq   $0x0,-0x1550(%rbp)
   1383f:	00 00 00 00 
   13843:	48 8d 05 76 fb 00 00 	lea    0xfb76(%rip),%rax        # 233c0 <g_103>
   1384a:	48 89 85 b8 ea ff ff 	mov    %rax,-0x1548(%rbp)
   13851:	48 8d 85 e0 e2 ff ff 	lea    -0x1d20(%rbp),%rax
   13858:	48 83 c0 08          	add    $0x8,%rax
   1385c:	48 89 85 c0 ea ff ff 	mov    %rax,-0x1540(%rbp)
   13863:	48 8d 85 e0 e2 ff ff 	lea    -0x1d20(%rbp),%rax
   1386a:	48 83 c0 08          	add    $0x8,%rax
   1386e:	48 89 85 c8 ea ff ff 	mov    %rax,-0x1538(%rbp)
   13875:	48 8d 05 64 fb 00 00 	lea    0xfb64(%rip),%rax        # 233e0 <g_201>
   1387c:	48 89 85 d0 ea ff ff 	mov    %rax,-0x1530(%rbp)
   13883:	48 8d 85 e0 e2 ff ff 	lea    -0x1d20(%rbp),%rax
   1388a:	48 83 c0 18          	add    $0x18,%rax
   1388e:	48 89 85 d8 ea ff ff 	mov    %rax,-0x1528(%rbp)
   13895:	48 8d 05 24 fb 00 00 	lea    0xfb24(%rip),%rax        # 233c0 <g_103>
   1389c:	48 89 85 e0 ea ff ff 	mov    %rax,-0x1520(%rbp)
   138a3:	48 8d 85 e0 e2 ff ff 	lea    -0x1d20(%rbp),%rax
   138aa:	48 83 c0 08          	add    $0x8,%rax
   138ae:	48 89 85 e8 ea ff ff 	mov    %rax,-0x1518(%rbp)
   138b5:	48 c7 85 f0 ea ff ff 	movq   $0x0,-0x1510(%rbp)
   138bc:	00 00 00 00 
   138c0:	48 c7 85 f8 ea ff ff 	movq   $0x0,-0x1508(%rbp)
   138c7:	00 00 00 00 
   138cb:	48 8d 85 e0 e2 ff ff 	lea    -0x1d20(%rbp),%rax
   138d2:	48 83 c0 10          	add    $0x10,%rax
   138d6:	48 89 85 00 eb ff ff 	mov    %rax,-0x1500(%rbp)
   138dd:	48 8d 05 dc fa 00 00 	lea    0xfadc(%rip),%rax        # 233c0 <g_103>
   138e4:	48 89 85 08 eb ff ff 	mov    %rax,-0x14f8(%rbp)
   138eb:	48 c7 85 10 eb ff ff 	movq   $0x0,-0x14f0(%rbp)
   138f2:	00 00 00 00 
   138f6:	48 8d 05 c3 fa 00 00 	lea    0xfac3(%rip),%rax        # 233c0 <g_103>
   138fd:	48 89 85 18 eb ff ff 	mov    %rax,-0x14e8(%rbp)
   13904:	48 8d 05 b5 fa 00 00 	lea    0xfab5(%rip),%rax        # 233c0 <g_103>
   1390b:	48 89 85 20 eb ff ff 	mov    %rax,-0x14e0(%rbp)
   13912:	48 8d 85 e0 e2 ff ff 	lea    -0x1d20(%rbp),%rax
   13919:	48 89 85 28 eb ff ff 	mov    %rax,-0x14d8(%rbp)
   13920:	48 8d 85 e0 e2 ff ff 	lea    -0x1d20(%rbp),%rax
   13927:	48 83 c0 08          	add    $0x8,%rax
   1392b:	48 89 85 30 eb ff ff 	mov    %rax,-0x14d0(%rbp)
   13932:	48 8d 05 87 fa 00 00 	lea    0xfa87(%rip),%rax        # 233c0 <g_103>
   13939:	48 89 85 38 eb ff ff 	mov    %rax,-0x14c8(%rbp)
   13940:	48 8d 85 e0 e2 ff ff 	lea    -0x1d20(%rbp),%rax
   13947:	48 83 c0 18          	add    $0x18,%rax
   1394b:	48 89 85 40 eb ff ff 	mov    %rax,-0x14c0(%rbp)
   13952:	48 8d 85 e0 e2 ff ff 	lea    -0x1d20(%rbp),%rax
   13959:	48 83 c0 18          	add    $0x18,%rax
   1395d:	48 89 85 48 eb ff ff 	mov    %rax,-0x14b8(%rbp)
   13964:	48 8d 85 e0 e2 ff ff 	lea    -0x1d20(%rbp),%rax
   1396b:	48 83 c0 10          	add    $0x10,%rax
   1396f:	48 89 85 50 eb ff ff 	mov    %rax,-0x14b0(%rbp)
   13976:	48 8d 85 e0 e2 ff ff 	lea    -0x1d20(%rbp),%rax
   1397d:	48 83 c0 08          	add    $0x8,%rax
   13981:	48 89 85 58 eb ff ff 	mov    %rax,-0x14a8(%rbp)
   13988:	48 8d 85 e0 e2 ff ff 	lea    -0x1d20(%rbp),%rax
   1398f:	48 83 c0 10          	add    $0x10,%rax
   13993:	48 89 85 60 eb ff ff 	mov    %rax,-0x14a0(%rbp)
   1399a:	48 8d 85 e0 e2 ff ff 	lea    -0x1d20(%rbp),%rax
   139a1:	48 83 c0 18          	add    $0x18,%rax
   139a5:	48 89 85 68 eb ff ff 	mov    %rax,-0x1498(%rbp)
   139ac:	48 8d 05 0d fa 00 00 	lea    0xfa0d(%rip),%rax        # 233c0 <g_103>
   139b3:	48 89 85 70 eb ff ff 	mov    %rax,-0x1490(%rbp)
   139ba:	48 8d 85 e0 e2 ff ff 	lea    -0x1d20(%rbp),%rax
   139c1:	48 83 c0 08          	add    $0x8,%rax
   139c5:	48 89 85 78 eb ff ff 	mov    %rax,-0x1488(%rbp)
   139cc:	48 8d 05 ed f9 00 00 	lea    0xf9ed(%rip),%rax        # 233c0 <g_103>
   139d3:	48 89 85 80 eb ff ff 	mov    %rax,-0x1480(%rbp)
   139da:	48 8d 85 e0 e2 ff ff 	lea    -0x1d20(%rbp),%rax
   139e1:	48 83 c0 08          	add    $0x8,%rax
   139e5:	48 89 85 88 eb ff ff 	mov    %rax,-0x1478(%rbp)
   139ec:	48 8d 85 e0 e2 ff ff 	lea    -0x1d20(%rbp),%rax
   139f3:	48 83 c0 08          	add    $0x8,%rax
   139f7:	48 89 85 90 eb ff ff 	mov    %rax,-0x1470(%rbp)
   139fe:	48 8d 85 e0 e2 ff ff 	lea    -0x1d20(%rbp),%rax
   13a05:	48 83 c0 10          	add    $0x10,%rax
   13a09:	48 89 85 98 eb ff ff 	mov    %rax,-0x1468(%rbp)
   13a10:	48 8d 05 c9 f9 00 00 	lea    0xf9c9(%rip),%rax        # 233e0 <g_201>
   13a17:	48 89 85 a0 eb ff ff 	mov    %rax,-0x1460(%rbp)
   13a1e:	48 8d 05 9b f9 00 00 	lea    0xf99b(%rip),%rax        # 233c0 <g_103>
   13a25:	48 89 85 a8 eb ff ff 	mov    %rax,-0x1458(%rbp)
   13a2c:	48 8d 05 ad f9 00 00 	lea    0xf9ad(%rip),%rax        # 233e0 <g_201>
   13a33:	48 89 85 b0 eb ff ff 	mov    %rax,-0x1450(%rbp)
   13a3a:	48 8d 85 e0 e2 ff ff 	lea    -0x1d20(%rbp),%rax
   13a41:	48 83 c0 18          	add    $0x18,%rax
   13a45:	48 89 85 b8 eb ff ff 	mov    %rax,-0x1448(%rbp)
   13a4c:	48 8d 05 8d f9 00 00 	lea    0xf98d(%rip),%rax        # 233e0 <g_201>
   13a53:	48 89 85 c0 eb ff ff 	mov    %rax,-0x1440(%rbp)
   13a5a:	48 c7 85 c8 eb ff ff 	movq   $0x0,-0x1438(%rbp)
   13a61:	00 00 00 00 
   13a65:	48 8d 05 54 f9 00 00 	lea    0xf954(%rip),%rax        # 233c0 <g_103>
   13a6c:	48 89 85 d0 eb ff ff 	mov    %rax,-0x1430(%rbp)
   13a73:	48 8d 85 e0 e2 ff ff 	lea    -0x1d20(%rbp),%rax
   13a7a:	48 83 c0 08          	add    $0x8,%rax
   13a7e:	48 89 85 d8 eb ff ff 	mov    %rax,-0x1428(%rbp)
   13a85:	48 8d 85 e0 e2 ff ff 	lea    -0x1d20(%rbp),%rax
   13a8c:	48 83 c0 08          	add    $0x8,%rax
   13a90:	48 89 85 e0 eb ff ff 	mov    %rax,-0x1420(%rbp)
   13a97:	48 c7 85 e8 eb ff ff 	movq   $0x0,-0x1418(%rbp)
   13a9e:	00 00 00 00 
   13aa2:	48 8d 05 37 f9 00 00 	lea    0xf937(%rip),%rax        # 233e0 <g_201>
   13aa9:	48 89 85 f0 eb ff ff 	mov    %rax,-0x1410(%rbp)
   13ab0:	48 8d 05 29 f9 00 00 	lea    0xf929(%rip),%rax        # 233e0 <g_201>
   13ab7:	48 89 85 f8 eb ff ff 	mov    %rax,-0x1408(%rbp)
   13abe:	48 8d 85 e0 e2 ff ff 	lea    -0x1d20(%rbp),%rax
   13ac5:	48 83 c0 08          	add    $0x8,%rax
   13ac9:	48 89 85 00 ec ff ff 	mov    %rax,-0x1400(%rbp)
   13ad0:	48 8d 85 e0 e2 ff ff 	lea    -0x1d20(%rbp),%rax
   13ad7:	48 83 c0 18          	add    $0x18,%rax
   13adb:	48 89 85 08 ec ff ff 	mov    %rax,-0x13f8(%rbp)
   13ae2:	48 8d 85 e0 e2 ff ff 	lea    -0x1d20(%rbp),%rax
   13ae9:	48 83 c0 08          	add    $0x8,%rax
   13aed:	48 89 85 10 ec ff ff 	mov    %rax,-0x13f0(%rbp)
   13af4:	48 8d 85 e0 e2 ff ff 	lea    -0x1d20(%rbp),%rax
   13afb:	48 83 c0 08          	add    $0x8,%rax
   13aff:	48 89 85 18 ec ff ff 	mov    %rax,-0x13e8(%rbp)
   13b06:	48 8d 85 e0 e2 ff ff 	lea    -0x1d20(%rbp),%rax
   13b0d:	48 83 c0 08          	add    $0x8,%rax
   13b11:	48 89 85 20 ec ff ff 	mov    %rax,-0x13e0(%rbp)
   13b18:	48 8d 05 c1 f8 00 00 	lea    0xf8c1(%rip),%rax        # 233e0 <g_201>
   13b1f:	48 89 85 28 ec ff ff 	mov    %rax,-0x13d8(%rbp)
   13b26:	48 8d 85 e0 e2 ff ff 	lea    -0x1d20(%rbp),%rax
   13b2d:	48 83 c0 18          	add    $0x18,%rax
   13b31:	48 89 85 30 ec ff ff 	mov    %rax,-0x13d0(%rbp)
   13b38:	48 8d 05 81 f8 00 00 	lea    0xf881(%rip),%rax        # 233c0 <g_103>
   13b3f:	48 89 85 38 ec ff ff 	mov    %rax,-0x13c8(%rbp)
   13b46:	48 8d 85 e0 e2 ff ff 	lea    -0x1d20(%rbp),%rax
   13b4d:	48 83 c0 08          	add    $0x8,%rax
   13b51:	48 89 85 40 ec ff ff 	mov    %rax,-0x13c0(%rbp)
   13b58:	48 8d 85 e0 e2 ff ff 	lea    -0x1d20(%rbp),%rax
   13b5f:	48 83 c0 08          	add    $0x8,%rax
   13b63:	48 89 85 48 ec ff ff 	mov    %rax,-0x13b8(%rbp)
   13b6a:	48 8d 05 4f f8 00 00 	lea    0xf84f(%rip),%rax        # 233c0 <g_103>
   13b71:	48 89 85 50 ec ff ff 	mov    %rax,-0x13b0(%rbp)
   13b78:	48 8d 05 41 f8 00 00 	lea    0xf841(%rip),%rax        # 233c0 <g_103>
   13b7f:	48 89 85 58 ec ff ff 	mov    %rax,-0x13a8(%rbp)
   13b86:	48 8d 05 33 f8 00 00 	lea    0xf833(%rip),%rax        # 233c0 <g_103>
   13b8d:	48 89 85 60 ec ff ff 	mov    %rax,-0x13a0(%rbp)
   13b94:	48 8d 05 45 f8 00 00 	lea    0xf845(%rip),%rax        # 233e0 <g_201>
   13b9b:	48 89 85 68 ec ff ff 	mov    %rax,-0x1398(%rbp)
   13ba2:	48 8d 85 e0 e2 ff ff 	lea    -0x1d20(%rbp),%rax
   13ba9:	48 83 c0 18          	add    $0x18,%rax
   13bad:	48 89 85 70 ec ff ff 	mov    %rax,-0x1390(%rbp)
   13bb4:	48 c7 85 78 ec ff ff 	movq   $0x0,-0x1388(%rbp)
   13bbb:	00 00 00 00 
   13bbf:	48 c7 85 80 ec ff ff 	movq   $0x0,-0x1380(%rbp)
   13bc6:	00 00 00 00 
   13bca:	48 8d 85 e0 e2 ff ff 	lea    -0x1d20(%rbp),%rax
   13bd1:	48 83 c0 18          	add    $0x18,%rax
   13bd5:	48 89 85 88 ec ff ff 	mov    %rax,-0x1378(%rbp)
   13bdc:	48 c7 85 90 ec ff ff 	movq   $0x0,-0x1370(%rbp)
   13be3:	00 00 00 00 
   13be7:	48 8d 85 e0 e2 ff ff 	lea    -0x1d20(%rbp),%rax
   13bee:	48 83 c0 10          	add    $0x10,%rax
   13bf2:	48 89 85 98 ec ff ff 	mov    %rax,-0x1368(%rbp)
   13bf9:	48 8d 85 e0 e2 ff ff 	lea    -0x1d20(%rbp),%rax
   13c00:	48 83 c0 08          	add    $0x8,%rax
   13c04:	48 89 85 a0 ec ff ff 	mov    %rax,-0x1360(%rbp)
   13c0b:	48 8d 85 e0 e2 ff ff 	lea    -0x1d20(%rbp),%rax
   13c12:	48 83 c0 08          	add    $0x8,%rax
   13c16:	48 89 85 a8 ec ff ff 	mov    %rax,-0x1358(%rbp)
   13c1d:	48 8d 05 bc f7 00 00 	lea    0xf7bc(%rip),%rax        # 233e0 <g_201>
   13c24:	48 89 85 b0 ec ff ff 	mov    %rax,-0x1350(%rbp)
   13c2b:	48 8d 05 ae f7 00 00 	lea    0xf7ae(%rip),%rax        # 233e0 <g_201>
   13c32:	48 89 85 b8 ec ff ff 	mov    %rax,-0x1348(%rbp)
   13c39:	48 8d 85 e0 e2 ff ff 	lea    -0x1d20(%rbp),%rax
   13c40:	48 83 c0 18          	add    $0x18,%rax
   13c44:	48 89 85 c0 ec ff ff 	mov    %rax,-0x1340(%rbp)
   13c4b:	48 c7 85 c8 ec ff ff 	movq   $0x0,-0x1338(%rbp)
   13c52:	00 00 00 00 
   13c56:	48 8d 85 e0 e2 ff ff 	lea    -0x1d20(%rbp),%rax
   13c5d:	48 83 c0 10          	add    $0x10,%rax
   13c61:	48 89 85 d0 ec ff ff 	mov    %rax,-0x1330(%rbp)
   13c68:	48 8d 85 e0 e2 ff ff 	lea    -0x1d20(%rbp),%rax
   13c6f:	48 83 c0 08          	add    $0x8,%rax
   13c73:	48 89 85 d8 ec ff ff 	mov    %rax,-0x1328(%rbp)
   13c7a:	48 8d 85 e0 e2 ff ff 	lea    -0x1d20(%rbp),%rax
   13c81:	48 83 c0 08          	add    $0x8,%rax
   13c85:	48 89 85 e0 ec ff ff 	mov    %rax,-0x1320(%rbp)
   13c8c:	48 8d 85 e0 e2 ff ff 	lea    -0x1d20(%rbp),%rax
   13c93:	48 83 c0 18          	add    $0x18,%rax
   13c97:	48 89 85 e8 ec ff ff 	mov    %rax,-0x1318(%rbp)
   13c9e:	48 8d 05 1b f7 00 00 	lea    0xf71b(%rip),%rax        # 233c0 <g_103>
   13ca5:	48 89 85 f0 ec ff ff 	mov    %rax,-0x1310(%rbp)
   13cac:	48 8d 85 e0 e2 ff ff 	lea    -0x1d20(%rbp),%rax
   13cb3:	48 83 c0 08          	add    $0x8,%rax
   13cb7:	48 89 85 f8 ec ff ff 	mov    %rax,-0x1308(%rbp)
   13cbe:	48 8d 85 e0 e2 ff ff 	lea    -0x1d20(%rbp),%rax
   13cc5:	48 83 c0 10          	add    $0x10,%rax
   13cc9:	48 89 85 00 ed ff ff 	mov    %rax,-0x1300(%rbp)
   13cd0:	48 8d 85 e0 e2 ff ff 	lea    -0x1d20(%rbp),%rax
   13cd7:	48 83 c0 10          	add    $0x10,%rax
   13cdb:	48 89 85 08 ed ff ff 	mov    %rax,-0x12f8(%rbp)
   13ce2:	48 c7 85 10 ed ff ff 	movq   $0x0,-0x12f0(%rbp)
   13ce9:	00 00 00 00 
   13ced:	48 8d 05 ec f6 00 00 	lea    0xf6ec(%rip),%rax        # 233e0 <g_201>
   13cf4:	48 89 85 18 ed ff ff 	mov    %rax,-0x12e8(%rbp)
   13cfb:	48 8d 05 de f6 00 00 	lea    0xf6de(%rip),%rax        # 233e0 <g_201>
   13d02:	48 89 85 20 ed ff ff 	mov    %rax,-0x12e0(%rbp)
   13d09:	48 8d 85 e0 e2 ff ff 	lea    -0x1d20(%rbp),%rax
   13d10:	48 83 c0 10          	add    $0x10,%rax
   13d14:	48 89 85 28 ed ff ff 	mov    %rax,-0x12d8(%rbp)
   13d1b:	48 8d 85 e0 e2 ff ff 	lea    -0x1d20(%rbp),%rax
   13d22:	48 89 85 30 ed ff ff 	mov    %rax,-0x12d0(%rbp)
   13d29:	48 8d 85 e0 e2 ff ff 	lea    -0x1d20(%rbp),%rax
   13d30:	48 83 c0 10          	add    $0x10,%rax
   13d34:	48 89 85 38 ed ff ff 	mov    %rax,-0x12c8(%rbp)
   13d3b:	48 8d 85 e0 e2 ff ff 	lea    -0x1d20(%rbp),%rax
   13d42:	48 83 c0 08          	add    $0x8,%rax
   13d46:	48 89 85 40 ed ff ff 	mov    %rax,-0x12c0(%rbp)
   13d4d:	48 8d 85 e0 e2 ff ff 	lea    -0x1d20(%rbp),%rax
   13d54:	48 83 c0 08          	add    $0x8,%rax
   13d58:	48 89 85 48 ed ff ff 	mov    %rax,-0x12b8(%rbp)
   13d5f:	48 8d 05 fa d2 00 00 	lea    0xd2fa(%rip),%rax        # 21060 <g_108>
   13d66:	48 89 85 b8 e1 ff ff 	mov    %rax,-0x1e48(%rbp)
   13d6d:	48 8d 05 e0 d2 00 00 	lea    0xd2e0(%rip),%rax        # 21054 <g_99+0x4>
   13d74:	48 89 85 c0 e1 ff ff 	mov    %rax,-0x1e40(%rbp)
   13d7b:	48 c7 05 ca d3 00 00 	movq   $0x0,0xd3ca(%rip)        # 21150 <g_500>
   13d82:	00 00 00 00 
   13d86:	e9 99 17 00 00       	jmpq   15524 <func_13+0x2bf3>
   13d8b:	48 c7 85 c8 e1 ff ff 	movq   $0x0,-0x1e38(%rbp)
   13d92:	00 00 00 00 
   13d96:	c7 85 70 e0 ff ff 00 	movl   $0x0,-0x1f90(%rbp)
   13d9d:	00 00 00 
   13da0:	48 8d 05 c9 19 01 00 	lea    0x119c9(%rip),%rax        # 25770 <g_423+0x30>
   13da7:	48 89 85 30 e3 ff ff 	mov    %rax,-0x1cd0(%rbp)
   13dae:	48 c7 85 38 e3 ff ff 	movq   $0x0,-0x1cc8(%rbp)
   13db5:	00 00 00 00 
   13db9:	48 c7 85 40 e3 ff ff 	movq   $0x0,-0x1cc0(%rbp)
   13dc0:	00 00 00 00 
   13dc4:	48 8d 05 a5 19 01 00 	lea    0x119a5(%rip),%rax        # 25770 <g_423+0x30>
   13dcb:	48 89 85 48 e3 ff ff 	mov    %rax,-0x1cb8(%rbp)
   13dd2:	48 c7 85 50 e3 ff ff 	movq   $0x0,-0x1cb0(%rbp)
   13dd9:	00 00 00 00 
   13ddd:	48 c7 85 58 e3 ff ff 	movq   $0x0,-0x1ca8(%rbp)
   13de4:	00 00 00 00 
   13de8:	48 8d 85 6c e0 ff ff 	lea    -0x1f94(%rbp),%rax
   13def:	48 89 85 d0 e1 ff ff 	mov    %rax,-0x1e30(%rbp)
   13df6:	48 8b 05 53 d3 00 00 	mov    0xd353(%rip),%rax        # 21150 <g_500>
   13dfd:	48 8d 14 85 00 00 00 	lea    0x0(,%rax,4),%rdx
   13e04:	00 
   13e05:	48 8d 05 44 d2 00 00 	lea    0xd244(%rip),%rax        # 21050 <g_99>
   13e0c:	8b 04 02             	mov    (%rdx,%rax,1),%eax
   13e0f:	66 89 85 5c e0 ff ff 	mov    %ax,-0x1fa4(%rbp)
   13e16:	c7 85 4c e0 ff ff 02 	movl   $0x2,-0x1fb4(%rbp)
   13e1d:	00 00 00 
   13e20:	83 bd 4c e0 ff ff 09 	cmpl   $0x9,-0x1fb4(%rbp)
   13e27:	0f 8f 3c 02 00 00    	jg     14069 <func_13+0x1738>
   13e2d:	48 8d 05 24 d2 00 00 	lea    0xd224(%rip),%rax        # 21058 <g_101>
   13e34:	48 89 85 20 e2 ff ff 	mov    %rax,-0x1de0(%rbp)
   13e3b:	48 c7 85 28 e2 ff ff 	movq   $0x0,-0x1dd8(%rbp)
   13e42:	00 00 00 00 
   13e46:	66 c7 05 d9 18 01 00 	movw   $0x7,0x118d9(%rip)        # 25728 <g_343>
   13e4d:	07 00 
   13e4f:	e9 f7 01 00 00       	jmpq   1404b <func_13+0x171a>
   13e54:	48 8d 05 fd d1 00 00 	lea    0xd1fd(%rip),%rax        # 21058 <g_101>
   13e5b:	48 89 85 38 e1 ff ff 	mov    %rax,-0x1ec8(%rbp)
   13e62:	48 8d 85 38 e1 ff ff 	lea    -0x1ec8(%rbp),%rax
   13e69:	48 89 85 30 e2 ff ff 	mov    %rax,-0x1dd0(%rbp)
   13e70:	c7 85 a4 e0 ff ff df 	movl   $0x9ae154df,-0x1f5c(%rbp)
   13e77:	54 e1 9a 
   13e7a:	c7 85 8c e0 ff ff 00 	movl   $0x0,-0x1f74(%rbp)
   13e81:	00 00 00 
   13e84:	eb 1e                	jmp    13ea4 <func_13+0x1573>
   13e86:	8b 85 8c e0 ff ff    	mov    -0x1f74(%rbp),%eax
   13e8c:	48 98                	cltq   
   13e8e:	48 8d 15 73 18 01 00 	lea    0x11873(%rip),%rdx        # 25708 <g_37>
   13e95:	48 89 94 c5 50 f8 ff 	mov    %rdx,-0x7b0(%rbp,%rax,8)
   13e9c:	ff 
   13e9d:	83 85 8c e0 ff ff 01 	addl   $0x1,-0x1f74(%rbp)
   13ea4:	83 bd 8c e0 ff ff 03 	cmpl   $0x3,-0x1f74(%rbp)
   13eab:	7e d9                	jle    13e86 <func_13+0x1555>
   13ead:	48 8b 05 a4 fa 00 00 	mov    0xfaa4(%rip),%rax        # 23958 <g_723>
   13eb4:	8b 10                	mov    (%rax),%edx
   13eb6:	23 95 4c e0 ff ff    	and    -0x1fb4(%rbp),%edx
   13ebc:	89 10                	mov    %edx,(%rax)
   13ebe:	83 bd 4c e0 ff ff 00 	cmpl   $0x0,-0x1fb4(%rbp)
   13ec5:	0f 85 92 01 00 00    	jne    1405d <func_13+0x172c>
   13ecb:	83 bd 4c e0 ff ff 00 	cmpl   $0x0,-0x1fb4(%rbp)
   13ed2:	0f 85 61 01 00 00    	jne    14039 <func_13+0x1708>
   13ed8:	48 8b 85 30 e2 ff ff 	mov    -0x1dd0(%rbp),%rax
   13edf:	48 8d 15 74 d2 00 00 	lea    0xd274(%rip),%rdx        # 2115a <g_501+0x2>
   13ee6:	48 89 10             	mov    %rdx,(%rax)
   13ee9:	48 8b 85 30 e2 ff ff 	mov    -0x1dd0(%rbp),%rax
   13ef0:	48 8b 00             	mov    (%rax),%rax
   13ef3:	48 39 85 20 e2 ff ff 	cmp    %rax,-0x1de0(%rbp)
   13efa:	0f 95 c0             	setne  %al
   13efd:	0f b6 d8             	movzbl %al,%ebx
   13f00:	83 a5 a4 e0 ff ff 01 	andl   $0x1,-0x1f5c(%rbp)
   13f07:	8b 85 4c e0 ff ff    	mov    -0x1fb4(%rbp),%eax
   13f0d:	0f bf d0             	movswl %ax,%edx
   13f10:	48 8b 85 28 e2 ff ff 	mov    -0x1dd8(%rbp),%rax
   13f17:	48 89 85 a0 e1 ff ff 	mov    %rax,-0x1e60(%rbp)
   13f1e:	48 8b 85 a0 e1 ff ff 	mov    -0x1e60(%rbp),%rax
   13f25:	48 3b 85 c8 e1 ff ff 	cmp    -0x1e38(%rbp),%rax
   13f2c:	0f 95 c0             	setne  %al
   13f2f:	0f b6 c0             	movzbl %al,%eax
   13f32:	0b 85 9c e0 ff ff    	or     -0x1f64(%rbp),%eax
   13f38:	48 98                	cltq   
   13f3a:	b9 b3 c7 22 f0       	mov    $0xf022c7b3,%ecx
   13f3f:	48 09 c8             	or     %rcx,%rax
   13f42:	48 35 f7 ff 00 00    	xor    $0xfff7,%rax
   13f48:	48 89 c1             	mov    %rax,%rcx
   13f4b:	0f b6 05 08 d2 00 00 	movzbl 0xd208(%rip),%eax        # 2115a <g_501+0x2>
   13f52:	48 0f be c0          	movsbq %al,%rax
   13f56:	48 39 c1             	cmp    %rax,%rcx
   13f59:	0f 92 c0             	setb   %al
   13f5c:	0f b6 c0             	movzbl %al,%eax
   13f5f:	89 d6                	mov    %edx,%esi
   13f61:	89 c7                	mov    %eax,%edi
   13f63:	e8 8d 64 ff ff       	callq  a3f5 <safe_mul_func_int16_t_s_s>
   13f68:	0f be c0             	movsbl %al,%eax
   13f6b:	8b 95 4c e0 ff ff    	mov    -0x1fb4(%rbp),%edx
   13f71:	89 d6                	mov    %edx,%esi
   13f73:	89 c7                	mov    %eax,%edi
   13f75:	e8 27 63 ff ff       	callq  a2a1 <safe_lshift_func_int8_t_s_s>
   13f7a:	0f be c0             	movsbl %al,%eax
   13f7d:	39 85 4c e0 ff ff    	cmp    %eax,-0x1fb4(%rbp)
   13f83:	0f 95 c0             	setne  %al
   13f86:	0f b6 c0             	movzbl %al,%eax
   13f89:	89 85 70 e0 ff ff    	mov    %eax,-0x1f90(%rbp)
   13f8f:	8b 85 70 e0 ff ff    	mov    -0x1f90(%rbp),%eax
   13f95:	0b 85 4c e0 ff ff    	or     -0x1fb4(%rbp),%eax
   13f9b:	89 c2                	mov    %eax,%edx
   13f9d:	0f b7 85 5c e0 ff ff 	movzwl -0x1fa4(%rbp),%eax
   13fa4:	0f b7 c0             	movzwl %ax,%eax
   13fa7:	89 d6                	mov    %edx,%esi
   13fa9:	89 c7                	mov    %eax,%edi
   13fab:	e8 06 66 ff ff       	callq  a5b6 <safe_add_func_int32_t_s_s>
   13fb0:	8b 85 4c e0 ff ff    	mov    -0x1fb4(%rbp),%eax
   13fb6:	89 c6                	mov    %eax,%esi
   13fb8:	bf aa 00 00 00       	mov    $0xaa,%edi
   13fbd:	e8 cb 6c ff ff       	callq  ac8d <safe_rshift_func_uint8_t_u_s>
   13fc2:	0f b7 85 5c e0 ff ff 	movzwl -0x1fa4(%rbp),%eax
   13fc9:	0f b7 c0             	movzwl %ax,%eax
   13fcc:	be d0 dd 91 15       	mov    $0x1591ddd0,%esi
   13fd1:	89 c7                	mov    %eax,%edi
   13fd3:	e8 f8 6e ff ff       	callq  aed0 <safe_sub_func_uint32_t_u_u>
   13fd8:	48 8b 05 51 f9 00 00 	mov    0xf951(%rip),%rax        # 23930 <g_495>
   13fdf:	48 8b 00             	mov    (%rax),%rax
   13fe2:	48 8b 00             	mov    (%rax),%rax
   13fe5:	0f b7 85 5c e0 ff ff 	movzwl -0x1fa4(%rbp),%eax
   13fec:	0f b7 c0             	movzwl %ax,%eax
   13fef:	0b 85 4c e0 ff ff    	or     -0x1fb4(%rbp),%eax
   13ff5:	48 98                	cltq   
   13ff7:	be 00 00 00 00       	mov    $0x0,%esi
   13ffc:	48 89 c7             	mov    %rax,%rdi
   13fff:	e8 47 70 ff ff       	callq  b04b <safe_sub_func_uint64_t_u_u>
   14004:	48 39 c3             	cmp    %rax,%rbx
   14007:	0f 96 c0             	setbe  %al
   1400a:	0f b6 d0             	movzbl %al,%edx
   1400d:	0f b7 05 48 d1 00 00 	movzwl 0xd148(%rip),%eax        # 2115c <g_569>
   14014:	0f b7 c0             	movzwl %ax,%eax
   14017:	39 c2                	cmp    %eax,%edx
   14019:	0f 95 c0             	setne  %al
   1401c:	0f b6 c0             	movzbl %al,%eax
   1401f:	be 01 00 00 00       	mov    $0x1,%esi
   14024:	89 c7                	mov    %eax,%edi
   14026:	e8 8b 65 ff ff       	callq  a5b6 <safe_add_func_int32_t_s_s>
   1402b:	8b 85 4c e0 ff ff    	mov    -0x1fb4(%rbp),%eax
   14031:	31 85 88 e0 ff ff    	xor    %eax,-0x1f78(%rbp)
   14037:	eb 01                	jmp    1403a <func_13+0x1709>
   14039:	90                   	nop
   1403a:	0f b7 05 e7 16 01 00 	movzwl 0x116e7(%rip),%eax        # 25728 <g_343>
   14041:	83 e8 01             	sub    $0x1,%eax
   14044:	66 89 05 dd 16 01 00 	mov    %ax,0x116dd(%rip)        # 25728 <g_343>
   1404b:	0f b7 05 d6 16 01 00 	movzwl 0x116d6(%rip),%eax        # 25728 <g_343>
   14052:	66 85 c0             	test   %ax,%ax
   14055:	0f 89 f9 fd ff ff    	jns    13e54 <func_13+0x1523>
   1405b:	eb 01                	jmp    1405e <func_13+0x172d>
   1405d:	90                   	nop
   1405e:	8b 85 4c e0 ff ff    	mov    -0x1fb4(%rbp),%eax
   14064:	e9 ab 25 00 00       	jmpq   16614 <func_13+0x3ce3>
   14069:	c7 85 88 e0 ff ff 01 	movl   $0x1,-0x1f78(%rbp)
   14070:	00 00 00 
   14073:	48 8b 95 c8 e5 ff ff 	mov    -0x1a38(%rbp),%rdx
   1407a:	48 8b 85 40 e3 ff ff 	mov    -0x1cc0(%rbp),%rax
   14081:	48 39 c2             	cmp    %rax,%rdx
   14084:	0f 95 c0             	setne  %al
   14087:	0f b6 c0             	movzbl %al,%eax
   1408a:	be 06 00 00 00       	mov    $0x6,%esi
   1408f:	89 c7                	mov    %eax,%edi
   14091:	e8 d6 62 ff ff       	callq  a36c <safe_rshift_func_int8_t_s_u>
   14096:	48 8b 05 7b f3 00 00 	mov    0xf37b(%rip),%rax        # 23418 <g_289>
   1409d:	48 8b 00             	mov    (%rax),%rax
   140a0:	48 39 85 88 e1 ff ff 	cmp    %rax,-0x1e78(%rbp)
   140a7:	75 37                	jne    140e0 <func_13+0x17af>
   140a9:	8b 85 70 e0 ff ff    	mov    -0x1f90(%rbp),%eax
   140af:	23 85 74 e0 ff ff    	and    -0x1f8c(%rbp),%eax
   140b5:	89 85 70 e0 ff ff    	mov    %eax,-0x1f90(%rbp)
   140bb:	8b 85 4c e0 ff ff    	mov    -0x1fb4(%rbp),%eax
   140c1:	0f b6 d0             	movzbl %al,%edx
   140c4:	48 8b 05 4d f3 00 00 	mov    0xf34d(%rip),%rax        # 23418 <g_289>
   140cb:	48 8b 00             	mov    (%rax),%rax
   140ce:	48 8b 00             	mov    (%rax),%rax
   140d1:	0f b6 00             	movzbl (%rax),%eax
   140d4:	0f b6 c0             	movzbl %al,%eax
   140d7:	89 d6                	mov    %edx,%esi
   140d9:	89 c7                	mov    %eax,%edi
   140db:	e8 ce 6a ff ff       	callq  abae <safe_mod_func_uint8_t_u_u>
   140e0:	b8 01 00 00 00       	mov    $0x1,%eax
   140e5:	85 c0                	test   %eax,%eax
   140e7:	74 07                	je     140f0 <func_13+0x17bf>
   140e9:	ba 01 00 00 00       	mov    $0x1,%edx
   140ee:	eb 05                	jmp    140f5 <func_13+0x17c4>
   140f0:	ba 00 00 00 00       	mov    $0x0,%edx
   140f5:	8b 85 4c e0 ff ff    	mov    -0x1fb4(%rbp),%eax
   140fb:	89 c6                	mov    %eax,%esi
   140fd:	89 d7                	mov    %edx,%edi
   140ff:	e8 c8 65 ff ff       	callq  a6cc <safe_mod_func_int32_t_s_s>
   14104:	0c ff                	or     $0xff,%al
   14106:	89 85 6c e0 ff ff    	mov    %eax,-0x1f94(%rbp)
   1410c:	8b 85 6c e0 ff ff    	mov    -0x1f94(%rbp),%eax
   14112:	23 85 4c e0 ff ff    	and    -0x1fb4(%rbp),%eax
   14118:	85 c0                	test   %eax,%eax
   1411a:	0f 84 4f 12 00 00    	je     1536f <func_13+0x2a3e>
   14120:	48 8d 05 33 d0 00 00 	lea    0xd033(%rip),%rax        # 2115a <g_501+0x2>
   14127:	48 89 85 f8 e1 ff ff 	mov    %rax,-0x1e08(%rbp)
   1412e:	48 8d 05 23 cf 00 00 	lea    0xcf23(%rip),%rax        # 21058 <g_101>
   14135:	48 89 85 00 e2 ff ff 	mov    %rax,-0x1e00(%rbp)
   1413c:	c7 85 38 e1 ff ff ff 	movl   $0xffffffff,-0x1ec8(%rbp)
   14143:	ff ff ff 
   14146:	c7 85 a0 e0 ff ff 6f 	movl   $0xf324596f,-0x1f60(%rbp)
   1414d:	59 24 f3 
   14150:	48 c7 85 08 e2 ff ff 	movq   $0x0,-0x1df8(%rbp)
   14157:	00 00 00 00 
   1415b:	48 8d 05 e6 ce 00 00 	lea    0xcee6(%rip),%rax        # 21048 <g_98>
   14162:	48 89 85 00 e6 ff ff 	mov    %rax,-0x1a00(%rbp)
   14169:	48 8d 05 d8 ce 00 00 	lea    0xced8(%rip),%rax        # 21048 <g_98>
   14170:	48 89 85 08 e6 ff ff 	mov    %rax,-0x19f8(%rbp)
   14177:	48 8d 05 ca ce 00 00 	lea    0xceca(%rip),%rax        # 21048 <g_98>
   1417e:	48 89 85 10 e6 ff ff 	mov    %rax,-0x19f0(%rbp)
   14185:	48 8d 05 bc ce 00 00 	lea    0xcebc(%rip),%rax        # 21048 <g_98>
   1418c:	48 89 85 18 e6 ff ff 	mov    %rax,-0x19e8(%rbp)
   14193:	48 8d 05 ae ce 00 00 	lea    0xceae(%rip),%rax        # 21048 <g_98>
   1419a:	48 89 85 20 e6 ff ff 	mov    %rax,-0x19e0(%rbp)
   141a1:	48 8d 05 a0 ce 00 00 	lea    0xcea0(%rip),%rax        # 21048 <g_98>
   141a8:	48 89 85 28 e6 ff ff 	mov    %rax,-0x19d8(%rbp)
   141af:	48 c7 85 30 e6 ff ff 	movq   $0x0,-0x19d0(%rbp)
   141b6:	00 00 00 00 
   141ba:	48 8d 05 87 ce 00 00 	lea    0xce87(%rip),%rax        # 21048 <g_98>
   141c1:	48 89 85 38 e6 ff ff 	mov    %rax,-0x19c8(%rbp)
   141c8:	48 c7 85 40 e6 ff ff 	movq   $0x0,-0x19c0(%rbp)
   141cf:	00 00 00 00 
   141d3:	48 8d 05 6e ce 00 00 	lea    0xce6e(%rip),%rax        # 21048 <g_98>
   141da:	48 89 85 48 e6 ff ff 	mov    %rax,-0x19b8(%rbp)
   141e1:	48 8d 05 60 ce 00 00 	lea    0xce60(%rip),%rax        # 21048 <g_98>
   141e8:	48 89 85 50 e6 ff ff 	mov    %rax,-0x19b0(%rbp)
   141ef:	48 8d 05 52 ce 00 00 	lea    0xce52(%rip),%rax        # 21048 <g_98>
   141f6:	48 89 85 58 e6 ff ff 	mov    %rax,-0x19a8(%rbp)
   141fd:	48 8d 05 44 ce 00 00 	lea    0xce44(%rip),%rax        # 21048 <g_98>
   14204:	48 89 85 60 e6 ff ff 	mov    %rax,-0x19a0(%rbp)
   1420b:	48 8d 05 36 ce 00 00 	lea    0xce36(%rip),%rax        # 21048 <g_98>
   14212:	48 89 85 68 e6 ff ff 	mov    %rax,-0x1998(%rbp)
   14219:	48 8d 05 28 ce 00 00 	lea    0xce28(%rip),%rax        # 21048 <g_98>
   14220:	48 89 85 70 e6 ff ff 	mov    %rax,-0x1990(%rbp)
   14227:	48 8d 05 1a ce 00 00 	lea    0xce1a(%rip),%rax        # 21048 <g_98>
   1422e:	48 89 85 78 e6 ff ff 	mov    %rax,-0x1988(%rbp)
   14235:	48 8d 05 0c ce 00 00 	lea    0xce0c(%rip),%rax        # 21048 <g_98>
   1423c:	48 89 85 80 e6 ff ff 	mov    %rax,-0x1980(%rbp)
   14243:	48 8d 05 fe cd 00 00 	lea    0xcdfe(%rip),%rax        # 21048 <g_98>
   1424a:	48 89 85 88 e6 ff ff 	mov    %rax,-0x1978(%rbp)
   14251:	48 8b 05 e8 f4 00 00 	mov    0xf4e8(%rip),%rax        # 23740 <g_376>
   14258:	48 8b 00             	mov    (%rax),%rax
   1425b:	48 8d 95 70 e0 ff ff 	lea    -0x1f90(%rbp),%rdx
   14262:	48 89 10             	mov    %rdx,(%rax)
   14265:	8b 85 38 e1 ff ff    	mov    -0x1ec8(%rbp),%eax
   1426b:	48 63 d8             	movslq %eax,%rbx
   1426e:	48 8b 05 a3 f1 00 00 	mov    0xf1a3(%rip),%rax        # 23418 <g_289>
   14275:	48 8b 00             	mov    (%rax),%rax
   14278:	48 8b 00             	mov    (%rax),%rax
   1427b:	0f b6 00             	movzbl (%rax),%eax
   1427e:	0f b6 c0             	movzbl %al,%eax
   14281:	be 04 00 00 00       	mov    $0x4,%esi
   14286:	89 c7                	mov    %eax,%edi
   14288:	e8 bf 69 ff ff       	callq  ac4c <safe_lshift_func_uint8_t_u_u>
   1428d:	0f be d0             	movsbl %al,%edx
   14290:	8b 85 4c e0 ff ff    	mov    -0x1fb4(%rbp),%eax
   14296:	0f be c0             	movsbl %al,%eax
   14299:	89 d6                	mov    %edx,%esi
   1429b:	89 c7                	mov    %eax,%edi
   1429d:	e8 70 5f ff ff       	callq  a212 <safe_mul_func_int8_t_s_s>
   142a2:	4c 0f be e0          	movsbq %al,%r12
   142a6:	48 8b 05 0b ce 00 00 	mov    0xce0b(%rip),%rax        # 210b8 <g_258>
   142ad:	49 89 c5             	mov    %rax,%r13
   142b0:	48 8b 05 e9 cd 00 00 	mov    0xcde9(%rip),%rax        # 210a0 <g_254+0x20>
   142b7:	0f b7 c0             	movzwl %ax,%eax
   142ba:	be 01 00 00 00       	mov    $0x1,%esi
   142bf:	89 c7                	mov    %eax,%edi
   142c1:	e8 39 6a ff ff       	callq  acff <safe_add_func_uint16_t_u_u>
   142c6:	0f b7 c0             	movzwl %ax,%eax
   142c9:	4c 89 ee             	mov    %r13,%rsi
   142cc:	48 89 c7             	mov    %rax,%rdi
   142cf:	e8 77 6d ff ff       	callq  b04b <safe_sub_func_uint64_t_u_u>
   142d4:	49 39 c4             	cmp    %rax,%r12
   142d7:	0f 93 c0             	setae  %al
   142da:	0f b6 c0             	movzbl %al,%eax
   142dd:	39 85 4c e0 ff ff    	cmp    %eax,-0x1fb4(%rbp)
   142e3:	0f 95 c0             	setne  %al
   142e6:	89 c2                	mov    %eax,%edx
   142e8:	48 8b 85 f8 e1 ff ff 	mov    -0x1e08(%rbp),%rax
   142ef:	88 10                	mov    %dl,(%rax)
   142f1:	ba 00 00 00 00       	mov    $0x0,%edx
   142f6:	48 8b 85 00 e2 ff ff 	mov    -0x1e00(%rbp),%rax
   142fd:	0f b6 00             	movzbl (%rax),%eax
   14300:	09 c2                	or     %eax,%edx
   14302:	48 8b 85 00 e2 ff ff 	mov    -0x1e00(%rbp),%rax
   14309:	88 10                	mov    %dl,(%rax)
   1430b:	8b 85 38 e1 ff ff    	mov    -0x1ec8(%rbp),%eax
   14311:	3d 50 e3 00 00       	cmp    $0xe350,%eax
   14316:	0f 9f c0             	setg   %al
   14319:	0f b6 c0             	movzbl %al,%eax
   1431c:	39 85 4c e0 ff ff    	cmp    %eax,-0x1fb4(%rbp)
   14322:	0f 9d c0             	setge  %al
   14325:	0f b6 c0             	movzbl %al,%eax
   14328:	09 85 a0 e0 ff ff    	or     %eax,-0x1f60(%rbp)
   1432e:	8b 85 a0 e0 ff ff    	mov    -0x1f60(%rbp),%eax
   14334:	48 98                	cltq   
   14336:	48 89 de             	mov    %rbx,%rsi
   14339:	48 89 c7             	mov    %rax,%rdi
   1433c:	e8 00 65 ff ff       	callq  a841 <safe_add_func_int64_t_s_s>
   14341:	0f b7 d0             	movzwl %ax,%edx
   14344:	8b 85 4c e0 ff ff    	mov    -0x1fb4(%rbp),%eax
   1434a:	0f b7 c0             	movzwl %ax,%eax
   1434d:	89 d6                	mov    %edx,%esi
   1434f:	89 c7                	mov    %eax,%edi
   14351:	e8 a9 69 ff ff       	callq  acff <safe_add_func_uint16_t_u_u>
   14356:	48 8b 05 f3 cd 00 00 	mov    0xcdf3(%rip),%rax        # 21150 <g_500>
   1435d:	48 8d 50 01          	lea    0x1(%rax),%rdx
   14361:	48 8b 05 e8 cd 00 00 	mov    0xcde8(%rip),%rax        # 21150 <g_500>
   14368:	48 8d 48 04          	lea    0x4(%rax),%rcx
   1436c:	48 89 d0             	mov    %rdx,%rax
   1436f:	48 c1 e0 02          	shl    $0x2,%rax
   14373:	48 01 d0             	add    %rdx,%rax
   14376:	48 01 c0             	add    %rax,%rax
   14379:	48 01 c8             	add    %rcx,%rax
   1437c:	48 8d 14 c5 00 00 00 	lea    0x0(,%rax,8),%rdx
   14383:	00 
   14384:	48 8d 05 95 f0 00 00 	lea    0xf095(%rip),%rax        # 23420 <g_342>
   1438b:	48 8b 04 02          	mov    (%rdx,%rax,1),%rax
   1438f:	48 8d 15 92 13 01 00 	lea    0x11392(%rip),%rdx        # 25728 <g_343>
   14396:	48 39 d0             	cmp    %rdx,%rax
   14399:	0f 95 c0             	setne  %al
   1439c:	0f b6 c0             	movzbl %al,%eax
   1439f:	89 c6                	mov    %eax,%esi
   143a1:	bf 0e 00 00 00       	mov    $0xe,%edi
   143a6:	e8 47 5e ff ff       	callq  a1f2 <safe_sub_func_int8_t_s_s>
   143ab:	0f be c0             	movsbl %al,%eax
   143ae:	89 05 ac cd 00 00    	mov    %eax,0xcdac(%rip)        # 21160 <g_622>
   143b4:	8b 15 a6 cd 00 00    	mov    0xcda6(%rip),%edx        # 21160 <g_622>
   143ba:	8b 85 4c e0 ff ff    	mov    -0x1fb4(%rbp),%eax
   143c0:	39 c2                	cmp    %eax,%edx
   143c2:	c7 85 70 e0 ff ff 01 	movl   $0x1,-0x1f90(%rbp)
   143c9:	00 00 00 
   143cc:	8b 85 70 e0 ff ff    	mov    -0x1f90(%rbp),%eax
   143d2:	23 85 4c e0 ff ff    	and    -0x1fb4(%rbp),%eax
   143d8:	39 85 4c e0 ff ff    	cmp    %eax,-0x1fb4(%rbp)
   143de:	0f 9c c0             	setl   %al
   143e1:	0f b6 c0             	movzbl %al,%eax
   143e4:	be 15 01 00 00       	mov    $0x115,%esi
   143e9:	89 c7                	mov    %eax,%edi
   143eb:	e8 4d 69 ff ff       	callq  ad3d <safe_mul_func_uint16_t_u_u>
   143f0:	66 85 c0             	test   %ax,%ax
   143f3:	74 24                	je     14419 <func_13+0x1ae8>
   143f5:	48 8b 05 fc ef 00 00 	mov    0xeffc(%rip),%rax        # 233f8 <g_288>
   143fc:	48 8d 95 70 e0 ff ff 	lea    -0x1f90(%rbp),%rdx
   14403:	48 89 10             	mov    %rdx,(%rax)
   14406:	48 8d 85 38 e1 ff ff 	lea    -0x1ec8(%rbp),%rax
   1440d:	48 89 85 d0 e1 ff ff 	mov    %rax,-0x1e30(%rbp)
   14414:	e9 ec 10 00 00       	jmpq   15505 <func_13+0x2bd4>
   14419:	48 c7 85 10 e2 ff ff 	movq   $0x0,-0x1df0(%rbp)
   14420:	00 00 00 00 
   14424:	c7 85 00 e3 ff ff ff 	movl   $0xffffffff,-0x1d00(%rbp)
   1442b:	ff ff ff 
   1442e:	c7 85 04 e3 ff ff 01 	movl   $0x1,-0x1cfc(%rbp)
   14435:	00 00 00 
   14438:	c7 85 08 e3 ff ff 01 	movl   $0x1,-0x1cf8(%rbp)
   1443f:	00 00 00 
   14442:	c7 85 0c e3 ff ff ff 	movl   $0xffffffff,-0x1cf4(%rbp)
   14449:	ff ff ff 
   1444c:	c7 85 10 e3 ff ff 01 	movl   $0x1,-0x1cf0(%rbp)
   14453:	00 00 00 
   14456:	c7 85 14 e3 ff ff 01 	movl   $0x1,-0x1cec(%rbp)
   1445d:	00 00 00 
   14460:	c7 85 18 e3 ff ff ff 	movl   $0xffffffff,-0x1ce8(%rbp)
   14467:	ff ff ff 
   1446a:	c7 85 1c e3 ff ff 01 	movl   $0x1,-0x1ce4(%rbp)
   14471:	00 00 00 
   14474:	c7 85 20 e3 ff ff 01 	movl   $0x1,-0x1ce0(%rbp)
   1447b:	00 00 00 
   1447e:	c7 85 24 e3 ff ff ff 	movl   $0xffffffff,-0x1cdc(%rbp)
   14485:	ff ff ff 
   14488:	48 8d 85 5c e0 ff ff 	lea    -0x1fa4(%rbp),%rax
   1448f:	48 89 85 18 e2 ff ff 	mov    %rax,-0x1de8(%rbp)
   14496:	48 8d 05 a3 cc 00 00 	lea    0xcca3(%rip),%rax        # 21140 <g_400>
   1449d:	48 89 85 50 f8 ff ff 	mov    %rax,-0x7b0(%rbp)
   144a4:	48 8d 05 b1 cc 00 00 	lea    0xccb1(%rip),%rax        # 2115c <g_569>
   144ab:	48 89 85 58 f8 ff ff 	mov    %rax,-0x7a8(%rbp)
   144b2:	48 8d 05 a3 cc 00 00 	lea    0xcca3(%rip),%rax        # 2115c <g_569>
   144b9:	48 89 85 60 f8 ff ff 	mov    %rax,-0x7a0(%rbp)
   144c0:	48 c7 85 68 f8 ff ff 	movq   $0x0,-0x798(%rbp)
   144c7:	00 00 00 00 
   144cb:	48 8d 05 6e cc 00 00 	lea    0xcc6e(%rip),%rax        # 21140 <g_400>
   144d2:	48 89 85 70 f8 ff ff 	mov    %rax,-0x790(%rbp)
   144d9:	48 8d 05 60 cc 00 00 	lea    0xcc60(%rip),%rax        # 21140 <g_400>
   144e0:	48 89 85 78 f8 ff ff 	mov    %rax,-0x788(%rbp)
   144e7:	48 8d 05 6e cc 00 00 	lea    0xcc6e(%rip),%rax        # 2115c <g_569>
   144ee:	48 89 85 80 f8 ff ff 	mov    %rax,-0x780(%rbp)
   144f5:	48 8d 05 60 cc 00 00 	lea    0xcc60(%rip),%rax        # 2115c <g_569>
   144fc:	48 89 85 88 f8 ff ff 	mov    %rax,-0x778(%rbp)
   14503:	48 8d 05 52 cc 00 00 	lea    0xcc52(%rip),%rax        # 2115c <g_569>
   1450a:	48 89 85 90 f8 ff ff 	mov    %rax,-0x770(%rbp)
   14511:	48 c7 85 98 f8 ff ff 	movq   $0x0,-0x768(%rbp)
   14518:	00 00 00 00 
   1451c:	48 8d 85 ce e2 ff ff 	lea    -0x1d32(%rbp),%rax
   14523:	48 89 85 a0 f8 ff ff 	mov    %rax,-0x760(%rbp)
   1452a:	48 8d 85 ce e2 ff ff 	lea    -0x1d32(%rbp),%rax
   14531:	48 89 85 a8 f8 ff ff 	mov    %rax,-0x758(%rbp)
   14538:	48 8d 05 01 cc 00 00 	lea    0xcc01(%rip),%rax        # 21140 <g_400>
   1453f:	48 89 85 b0 f8 ff ff 	mov    %rax,-0x750(%rbp)
   14546:	48 8d 05 0f cc 00 00 	lea    0xcc0f(%rip),%rax        # 2115c <g_569>
   1454d:	48 89 85 b8 f8 ff ff 	mov    %rax,-0x748(%rbp)
   14554:	48 8d 05 01 cc 00 00 	lea    0xcc01(%rip),%rax        # 2115c <g_569>
   1455b:	48 89 85 c0 f8 ff ff 	mov    %rax,-0x740(%rbp)
   14562:	48 8d 85 ce e2 ff ff 	lea    -0x1d32(%rbp),%rax
   14569:	48 89 85 c8 f8 ff ff 	mov    %rax,-0x738(%rbp)
   14570:	48 8d 05 c9 cb 00 00 	lea    0xcbc9(%rip),%rax        # 21140 <g_400>
   14577:	48 89 85 d0 f8 ff ff 	mov    %rax,-0x730(%rbp)
   1457e:	48 8d 85 ce e2 ff ff 	lea    -0x1d32(%rbp),%rax
   14585:	48 89 85 d8 f8 ff ff 	mov    %rax,-0x728(%rbp)
   1458c:	48 8d 05 c9 cb 00 00 	lea    0xcbc9(%rip),%rax        # 2115c <g_569>
   14593:	48 89 85 e0 f8 ff ff 	mov    %rax,-0x720(%rbp)
   1459a:	48 8d 05 bb cb 00 00 	lea    0xcbbb(%rip),%rax        # 2115c <g_569>
   145a1:	48 89 85 e8 f8 ff ff 	mov    %rax,-0x718(%rbp)
   145a8:	48 8d 05 ad cb 00 00 	lea    0xcbad(%rip),%rax        # 2115c <g_569>
   145af:	48 89 85 f0 f8 ff ff 	mov    %rax,-0x710(%rbp)
   145b6:	48 8d 85 ce e2 ff ff 	lea    -0x1d32(%rbp),%rax
   145bd:	48 89 85 f8 f8 ff ff 	mov    %rax,-0x708(%rbp)
   145c4:	48 8d 85 ce e2 ff ff 	lea    -0x1d32(%rbp),%rax
   145cb:	48 89 85 00 f9 ff ff 	mov    %rax,-0x700(%rbp)
   145d2:	48 8d 05 67 cb 00 00 	lea    0xcb67(%rip),%rax        # 21140 <g_400>
   145d9:	48 89 85 08 f9 ff ff 	mov    %rax,-0x6f8(%rbp)
   145e0:	48 8d 05 59 cb 00 00 	lea    0xcb59(%rip),%rax        # 21140 <g_400>
   145e7:	48 89 85 10 f9 ff ff 	mov    %rax,-0x6f0(%rbp)
   145ee:	48 8d 05 67 cb 00 00 	lea    0xcb67(%rip),%rax        # 2115c <g_569>
   145f5:	48 89 85 18 f9 ff ff 	mov    %rax,-0x6e8(%rbp)
   145fc:	48 8d 05 59 cb 00 00 	lea    0xcb59(%rip),%rax        # 2115c <g_569>
   14603:	48 89 85 20 f9 ff ff 	mov    %rax,-0x6e0(%rbp)
   1460a:	48 c7 85 28 f9 ff ff 	movq   $0x0,-0x6d8(%rbp)
   14611:	00 00 00 00 
   14615:	48 8d 05 24 cb 00 00 	lea    0xcb24(%rip),%rax        # 21140 <g_400>
   1461c:	48 89 85 30 f9 ff ff 	mov    %rax,-0x6d0(%rbp)
   14623:	48 8d 05 16 cb 00 00 	lea    0xcb16(%rip),%rax        # 21140 <g_400>
   1462a:	48 89 85 38 f9 ff ff 	mov    %rax,-0x6c8(%rbp)
   14631:	48 8d 05 24 cb 00 00 	lea    0xcb24(%rip),%rax        # 2115c <g_569>
   14638:	48 89 85 40 f9 ff ff 	mov    %rax,-0x6c0(%rbp)
   1463f:	48 8d 05 16 cb 00 00 	lea    0xcb16(%rip),%rax        # 2115c <g_569>
   14646:	48 89 85 48 f9 ff ff 	mov    %rax,-0x6b8(%rbp)
   1464d:	48 8d 05 08 cb 00 00 	lea    0xcb08(%rip),%rax        # 2115c <g_569>
   14654:	48 89 85 50 f9 ff ff 	mov    %rax,-0x6b0(%rbp)
   1465b:	48 c7 85 58 f9 ff ff 	movq   $0x0,-0x6a8(%rbp)
   14662:	00 00 00 00 
   14666:	48 8d 85 ce e2 ff ff 	lea    -0x1d32(%rbp),%rax
   1466d:	48 89 85 60 f9 ff ff 	mov    %rax,-0x6a0(%rbp)
   14674:	48 8d 85 ce e2 ff ff 	lea    -0x1d32(%rbp),%rax
   1467b:	48 89 85 68 f9 ff ff 	mov    %rax,-0x698(%rbp)
   14682:	48 8d 05 b7 ca 00 00 	lea    0xcab7(%rip),%rax        # 21140 <g_400>
   14689:	48 89 85 70 f9 ff ff 	mov    %rax,-0x690(%rbp)
   14690:	48 8d 05 c5 ca 00 00 	lea    0xcac5(%rip),%rax        # 2115c <g_569>
   14697:	48 89 85 78 f9 ff ff 	mov    %rax,-0x688(%rbp)
   1469e:	48 8d 05 b7 ca 00 00 	lea    0xcab7(%rip),%rax        # 2115c <g_569>
   146a5:	48 89 85 80 f9 ff ff 	mov    %rax,-0x680(%rbp)
   146ac:	48 8d 85 ce e2 ff ff 	lea    -0x1d32(%rbp),%rax
   146b3:	48 89 85 88 f9 ff ff 	mov    %rax,-0x678(%rbp)
   146ba:	48 8d 05 7f ca 00 00 	lea    0xca7f(%rip),%rax        # 21140 <g_400>
   146c1:	48 89 85 90 f9 ff ff 	mov    %rax,-0x670(%rbp)
   146c8:	48 8d 85 ce e2 ff ff 	lea    -0x1d32(%rbp),%rax
   146cf:	48 89 85 98 f9 ff ff 	mov    %rax,-0x668(%rbp)
   146d6:	48 8d 05 7f ca 00 00 	lea    0xca7f(%rip),%rax        # 2115c <g_569>
   146dd:	48 89 85 a0 f9 ff ff 	mov    %rax,-0x660(%rbp)
   146e4:	48 8d 05 71 ca 00 00 	lea    0xca71(%rip),%rax        # 2115c <g_569>
   146eb:	48 89 85 a8 f9 ff ff 	mov    %rax,-0x658(%rbp)
   146f2:	48 8d 05 63 ca 00 00 	lea    0xca63(%rip),%rax        # 2115c <g_569>
   146f9:	48 89 85 b0 f9 ff ff 	mov    %rax,-0x650(%rbp)
   14700:	48 8d 85 ce e2 ff ff 	lea    -0x1d32(%rbp),%rax
   14707:	48 89 85 b8 f9 ff ff 	mov    %rax,-0x648(%rbp)
   1470e:	48 8d 85 ce e2 ff ff 	lea    -0x1d32(%rbp),%rax
   14715:	48 89 85 c0 f9 ff ff 	mov    %rax,-0x640(%rbp)
   1471c:	48 8d 05 1d ca 00 00 	lea    0xca1d(%rip),%rax        # 21140 <g_400>
   14723:	48 89 85 c8 f9 ff ff 	mov    %rax,-0x638(%rbp)
   1472a:	48 8d 05 0f ca 00 00 	lea    0xca0f(%rip),%rax        # 21140 <g_400>
   14731:	48 89 85 d0 f9 ff ff 	mov    %rax,-0x630(%rbp)
   14738:	48 8d 05 1d ca 00 00 	lea    0xca1d(%rip),%rax        # 2115c <g_569>
   1473f:	48 89 85 d8 f9 ff ff 	mov    %rax,-0x628(%rbp)
   14746:	48 8d 05 0f ca 00 00 	lea    0xca0f(%rip),%rax        # 2115c <g_569>
   1474d:	48 89 85 e0 f9 ff ff 	mov    %rax,-0x620(%rbp)
   14754:	48 c7 85 e8 f9 ff ff 	movq   $0x0,-0x618(%rbp)
   1475b:	00 00 00 00 
   1475f:	48 8d 05 da c9 00 00 	lea    0xc9da(%rip),%rax        # 21140 <g_400>
   14766:	48 89 85 f0 f9 ff ff 	mov    %rax,-0x610(%rbp)
   1476d:	48 8d 05 cc c9 00 00 	lea    0xc9cc(%rip),%rax        # 21140 <g_400>
   14774:	48 89 85 f8 f9 ff ff 	mov    %rax,-0x608(%rbp)
   1477b:	48 8d 05 da c9 00 00 	lea    0xc9da(%rip),%rax        # 2115c <g_569>
   14782:	48 89 85 00 fa ff ff 	mov    %rax,-0x600(%rbp)
   14789:	48 8d 05 cc c9 00 00 	lea    0xc9cc(%rip),%rax        # 2115c <g_569>
   14790:	48 89 85 08 fa ff ff 	mov    %rax,-0x5f8(%rbp)
   14797:	48 8d 05 be c9 00 00 	lea    0xc9be(%rip),%rax        # 2115c <g_569>
   1479e:	48 89 85 10 fa ff ff 	mov    %rax,-0x5f0(%rbp)
   147a5:	48 c7 85 18 fa ff ff 	movq   $0x0,-0x5e8(%rbp)
   147ac:	00 00 00 00 
   147b0:	48 8d 85 ce e2 ff ff 	lea    -0x1d32(%rbp),%rax
   147b7:	48 89 85 20 fa ff ff 	mov    %rax,-0x5e0(%rbp)
   147be:	48 8d 85 ce e2 ff ff 	lea    -0x1d32(%rbp),%rax
   147c5:	48 89 85 28 fa ff ff 	mov    %rax,-0x5d8(%rbp)
   147cc:	48 8d 05 6d c9 00 00 	lea    0xc96d(%rip),%rax        # 21140 <g_400>
   147d3:	48 89 85 30 fa ff ff 	mov    %rax,-0x5d0(%rbp)
   147da:	48 8d 05 7b c9 00 00 	lea    0xc97b(%rip),%rax        # 2115c <g_569>
   147e1:	48 89 85 38 fa ff ff 	mov    %rax,-0x5c8(%rbp)
   147e8:	48 8d 05 6d c9 00 00 	lea    0xc96d(%rip),%rax        # 2115c <g_569>
   147ef:	48 89 85 40 fa ff ff 	mov    %rax,-0x5c0(%rbp)
   147f6:	48 8d 85 ce e2 ff ff 	lea    -0x1d32(%rbp),%rax
   147fd:	48 89 85 48 fa ff ff 	mov    %rax,-0x5b8(%rbp)
   14804:	48 8d 05 35 c9 00 00 	lea    0xc935(%rip),%rax        # 21140 <g_400>
   1480b:	48 89 85 50 fa ff ff 	mov    %rax,-0x5b0(%rbp)
   14812:	48 8d 85 ce e2 ff ff 	lea    -0x1d32(%rbp),%rax
   14819:	48 89 85 58 fa ff ff 	mov    %rax,-0x5a8(%rbp)
   14820:	48 8d 05 35 c9 00 00 	lea    0xc935(%rip),%rax        # 2115c <g_569>
   14827:	48 89 85 60 fa ff ff 	mov    %rax,-0x5a0(%rbp)
   1482e:	48 8d 05 27 c9 00 00 	lea    0xc927(%rip),%rax        # 2115c <g_569>
   14835:	48 89 85 68 fa ff ff 	mov    %rax,-0x598(%rbp)
   1483c:	48 8d 05 19 c9 00 00 	lea    0xc919(%rip),%rax        # 2115c <g_569>
   14843:	48 89 85 70 fa ff ff 	mov    %rax,-0x590(%rbp)
   1484a:	48 8d 85 ce e2 ff ff 	lea    -0x1d32(%rbp),%rax
   14851:	48 89 85 78 fa ff ff 	mov    %rax,-0x588(%rbp)
   14858:	48 8d 85 ce e2 ff ff 	lea    -0x1d32(%rbp),%rax
   1485f:	48 89 85 80 fa ff ff 	mov    %rax,-0x580(%rbp)
   14866:	48 8d 05 d3 c8 00 00 	lea    0xc8d3(%rip),%rax        # 21140 <g_400>
   1486d:	48 89 85 88 fa ff ff 	mov    %rax,-0x578(%rbp)
   14874:	48 8d 05 c5 c8 00 00 	lea    0xc8c5(%rip),%rax        # 21140 <g_400>
   1487b:	48 89 85 90 fa ff ff 	mov    %rax,-0x570(%rbp)
   14882:	48 8d 05 d3 c8 00 00 	lea    0xc8d3(%rip),%rax        # 2115c <g_569>
   14889:	48 89 85 98 fa ff ff 	mov    %rax,-0x568(%rbp)
   14890:	48 8d 05 c5 c8 00 00 	lea    0xc8c5(%rip),%rax        # 2115c <g_569>
   14897:	48 89 85 a0 fa ff ff 	mov    %rax,-0x560(%rbp)
   1489e:	48 c7 85 a8 fa ff ff 	movq   $0x0,-0x558(%rbp)
   148a5:	00 00 00 00 
   148a9:	48 8d 05 90 c8 00 00 	lea    0xc890(%rip),%rax        # 21140 <g_400>
   148b0:	48 89 85 b0 fa ff ff 	mov    %rax,-0x550(%rbp)
   148b7:	48 8d 05 82 c8 00 00 	lea    0xc882(%rip),%rax        # 21140 <g_400>
   148be:	48 89 85 b8 fa ff ff 	mov    %rax,-0x548(%rbp)
   148c5:	48 8d 05 90 c8 00 00 	lea    0xc890(%rip),%rax        # 2115c <g_569>
   148cc:	48 89 85 c0 fa ff ff 	mov    %rax,-0x540(%rbp)
   148d3:	48 8d 05 82 c8 00 00 	lea    0xc882(%rip),%rax        # 2115c <g_569>
   148da:	48 89 85 c8 fa ff ff 	mov    %rax,-0x538(%rbp)
   148e1:	48 8d 05 74 c8 00 00 	lea    0xc874(%rip),%rax        # 2115c <g_569>
   148e8:	48 89 85 d0 fa ff ff 	mov    %rax,-0x530(%rbp)
   148ef:	48 c7 85 d8 fa ff ff 	movq   $0x0,-0x528(%rbp)
   148f6:	00 00 00 00 
   148fa:	48 8d 85 ce e2 ff ff 	lea    -0x1d32(%rbp),%rax
   14901:	48 89 85 e0 fa ff ff 	mov    %rax,-0x520(%rbp)
   14908:	48 8d 85 ce e2 ff ff 	lea    -0x1d32(%rbp),%rax
   1490f:	48 89 85 e8 fa ff ff 	mov    %rax,-0x518(%rbp)
   14916:	48 8d 05 23 c8 00 00 	lea    0xc823(%rip),%rax        # 21140 <g_400>
   1491d:	48 89 85 f0 fa ff ff 	mov    %rax,-0x510(%rbp)
   14924:	48 8d 05 31 c8 00 00 	lea    0xc831(%rip),%rax        # 2115c <g_569>
   1492b:	48 89 85 f8 fa ff ff 	mov    %rax,-0x508(%rbp)
   14932:	48 8d 05 23 c8 00 00 	lea    0xc823(%rip),%rax        # 2115c <g_569>
   14939:	48 89 85 00 fb ff ff 	mov    %rax,-0x500(%rbp)
   14940:	48 8d 85 ce e2 ff ff 	lea    -0x1d32(%rbp),%rax
   14947:	48 89 85 08 fb ff ff 	mov    %rax,-0x4f8(%rbp)
   1494e:	48 8d 05 eb c7 00 00 	lea    0xc7eb(%rip),%rax        # 21140 <g_400>
   14955:	48 89 85 10 fb ff ff 	mov    %rax,-0x4f0(%rbp)
   1495c:	48 8d 85 ce e2 ff ff 	lea    -0x1d32(%rbp),%rax
   14963:	48 89 85 18 fb ff ff 	mov    %rax,-0x4e8(%rbp)
   1496a:	48 8d 05 eb c7 00 00 	lea    0xc7eb(%rip),%rax        # 2115c <g_569>
   14971:	48 89 85 20 fb ff ff 	mov    %rax,-0x4e0(%rbp)
   14978:	48 8d 05 dd c7 00 00 	lea    0xc7dd(%rip),%rax        # 2115c <g_569>
   1497f:	48 89 85 28 fb ff ff 	mov    %rax,-0x4d8(%rbp)
   14986:	48 8d 05 cf c7 00 00 	lea    0xc7cf(%rip),%rax        # 2115c <g_569>
   1498d:	48 89 85 30 fb ff ff 	mov    %rax,-0x4d0(%rbp)
   14994:	48 8d 85 ce e2 ff ff 	lea    -0x1d32(%rbp),%rax
   1499b:	48 89 85 38 fb ff ff 	mov    %rax,-0x4c8(%rbp)
   149a2:	48 8d 85 ce e2 ff ff 	lea    -0x1d32(%rbp),%rax
   149a9:	48 89 85 40 fb ff ff 	mov    %rax,-0x4c0(%rbp)
   149b0:	48 8d 05 89 c7 00 00 	lea    0xc789(%rip),%rax        # 21140 <g_400>
   149b7:	48 89 85 48 fb ff ff 	mov    %rax,-0x4b8(%rbp)
   149be:	48 8d 05 7b c7 00 00 	lea    0xc77b(%rip),%rax        # 21140 <g_400>
   149c5:	48 89 85 50 fb ff ff 	mov    %rax,-0x4b0(%rbp)
   149cc:	48 8d 05 89 c7 00 00 	lea    0xc789(%rip),%rax        # 2115c <g_569>
   149d3:	48 89 85 58 fb ff ff 	mov    %rax,-0x4a8(%rbp)
   149da:	48 8d 05 7b c7 00 00 	lea    0xc77b(%rip),%rax        # 2115c <g_569>
   149e1:	48 89 85 60 fb ff ff 	mov    %rax,-0x4a0(%rbp)
   149e8:	48 c7 85 68 fb ff ff 	movq   $0x0,-0x498(%rbp)
   149ef:	00 00 00 00 
   149f3:	48 8d 05 46 c7 00 00 	lea    0xc746(%rip),%rax        # 21140 <g_400>
   149fa:	48 89 85 70 fb ff ff 	mov    %rax,-0x490(%rbp)
   14a01:	48 8d 05 38 c7 00 00 	lea    0xc738(%rip),%rax        # 21140 <g_400>
   14a08:	48 89 85 78 fb ff ff 	mov    %rax,-0x488(%rbp)
   14a0f:	48 8d 05 46 c7 00 00 	lea    0xc746(%rip),%rax        # 2115c <g_569>
   14a16:	48 89 85 80 fb ff ff 	mov    %rax,-0x480(%rbp)
   14a1d:	48 8d 05 38 c7 00 00 	lea    0xc738(%rip),%rax        # 2115c <g_569>
   14a24:	48 89 85 88 fb ff ff 	mov    %rax,-0x478(%rbp)
   14a2b:	48 8d 05 2a c7 00 00 	lea    0xc72a(%rip),%rax        # 2115c <g_569>
   14a32:	48 89 85 90 fb ff ff 	mov    %rax,-0x470(%rbp)
   14a39:	48 c7 85 98 fb ff ff 	movq   $0x0,-0x468(%rbp)
   14a40:	00 00 00 00 
   14a44:	48 8d 85 ce e2 ff ff 	lea    -0x1d32(%rbp),%rax
   14a4b:	48 89 85 a0 fb ff ff 	mov    %rax,-0x460(%rbp)
   14a52:	48 8d 85 ce e2 ff ff 	lea    -0x1d32(%rbp),%rax
   14a59:	48 89 85 a8 fb ff ff 	mov    %rax,-0x458(%rbp)
   14a60:	48 8d 05 d9 c6 00 00 	lea    0xc6d9(%rip),%rax        # 21140 <g_400>
   14a67:	48 89 85 b0 fb ff ff 	mov    %rax,-0x450(%rbp)
   14a6e:	48 8d 05 e7 c6 00 00 	lea    0xc6e7(%rip),%rax        # 2115c <g_569>
   14a75:	48 89 85 b8 fb ff ff 	mov    %rax,-0x448(%rbp)
   14a7c:	48 8d 05 d9 c6 00 00 	lea    0xc6d9(%rip),%rax        # 2115c <g_569>
   14a83:	48 89 85 c0 fb ff ff 	mov    %rax,-0x440(%rbp)
   14a8a:	48 8d 85 ce e2 ff ff 	lea    -0x1d32(%rbp),%rax
   14a91:	48 89 85 c8 fb ff ff 	mov    %rax,-0x438(%rbp)
   14a98:	48 8d 05 a1 c6 00 00 	lea    0xc6a1(%rip),%rax        # 21140 <g_400>
   14a9f:	48 89 85 d0 fb ff ff 	mov    %rax,-0x430(%rbp)
   14aa6:	48 8d 85 ce e2 ff ff 	lea    -0x1d32(%rbp),%rax
   14aad:	48 89 85 d8 fb ff ff 	mov    %rax,-0x428(%rbp)
   14ab4:	48 8d 05 a1 c6 00 00 	lea    0xc6a1(%rip),%rax        # 2115c <g_569>
   14abb:	48 89 85 e0 fb ff ff 	mov    %rax,-0x420(%rbp)
   14ac2:	48 8d 05 93 c6 00 00 	lea    0xc693(%rip),%rax        # 2115c <g_569>
   14ac9:	48 89 85 e8 fb ff ff 	mov    %rax,-0x418(%rbp)
   14ad0:	48 8d 05 85 c6 00 00 	lea    0xc685(%rip),%rax        # 2115c <g_569>
   14ad7:	48 89 85 f0 fb ff ff 	mov    %rax,-0x410(%rbp)
   14ade:	48 8d 85 ce e2 ff ff 	lea    -0x1d32(%rbp),%rax
   14ae5:	48 89 85 f8 fb ff ff 	mov    %rax,-0x408(%rbp)
   14aec:	48 8d 85 ce e2 ff ff 	lea    -0x1d32(%rbp),%rax
   14af3:	48 89 85 00 fc ff ff 	mov    %rax,-0x400(%rbp)
   14afa:	48 8d 05 3f c6 00 00 	lea    0xc63f(%rip),%rax        # 21140 <g_400>
   14b01:	48 89 85 08 fc ff ff 	mov    %rax,-0x3f8(%rbp)
   14b08:	48 8d 05 31 c6 00 00 	lea    0xc631(%rip),%rax        # 21140 <g_400>
   14b0f:	48 89 85 10 fc ff ff 	mov    %rax,-0x3f0(%rbp)
   14b16:	48 8d 05 3f c6 00 00 	lea    0xc63f(%rip),%rax        # 2115c <g_569>
   14b1d:	48 89 85 18 fc ff ff 	mov    %rax,-0x3e8(%rbp)
   14b24:	48 8d 05 31 c6 00 00 	lea    0xc631(%rip),%rax        # 2115c <g_569>
   14b2b:	48 89 85 20 fc ff ff 	mov    %rax,-0x3e0(%rbp)
   14b32:	48 c7 85 28 fc ff ff 	movq   $0x0,-0x3d8(%rbp)
   14b39:	00 00 00 00 
   14b3d:	48 8d 05 fc c5 00 00 	lea    0xc5fc(%rip),%rax        # 21140 <g_400>
   14b44:	48 89 85 30 fc ff ff 	mov    %rax,-0x3d0(%rbp)
   14b4b:	48 8d 05 ee c5 00 00 	lea    0xc5ee(%rip),%rax        # 21140 <g_400>
   14b52:	48 89 85 38 fc ff ff 	mov    %rax,-0x3c8(%rbp)
   14b59:	48 8d 05 fc c5 00 00 	lea    0xc5fc(%rip),%rax        # 2115c <g_569>
   14b60:	48 89 85 40 fc ff ff 	mov    %rax,-0x3c0(%rbp)
   14b67:	48 8d 05 ee c5 00 00 	lea    0xc5ee(%rip),%rax        # 2115c <g_569>
   14b6e:	48 89 85 48 fc ff ff 	mov    %rax,-0x3b8(%rbp)
   14b75:	48 8d 05 e0 c5 00 00 	lea    0xc5e0(%rip),%rax        # 2115c <g_569>
   14b7c:	48 89 85 50 fc ff ff 	mov    %rax,-0x3b0(%rbp)
   14b83:	48 c7 85 58 fc ff ff 	movq   $0x0,-0x3a8(%rbp)
   14b8a:	00 00 00 00 
   14b8e:	48 8d 85 ce e2 ff ff 	lea    -0x1d32(%rbp),%rax
   14b95:	48 89 85 60 fc ff ff 	mov    %rax,-0x3a0(%rbp)
   14b9c:	48 8d 85 ce e2 ff ff 	lea    -0x1d32(%rbp),%rax
   14ba3:	48 89 85 68 fc ff ff 	mov    %rax,-0x398(%rbp)
   14baa:	48 8d 05 8f c5 00 00 	lea    0xc58f(%rip),%rax        # 21140 <g_400>
   14bb1:	48 89 85 70 fc ff ff 	mov    %rax,-0x390(%rbp)
   14bb8:	48 8d 05 9d c5 00 00 	lea    0xc59d(%rip),%rax        # 2115c <g_569>
   14bbf:	48 89 85 78 fc ff ff 	mov    %rax,-0x388(%rbp)
   14bc6:	48 8d 05 8f c5 00 00 	lea    0xc58f(%rip),%rax        # 2115c <g_569>
   14bcd:	48 89 85 80 fc ff ff 	mov    %rax,-0x380(%rbp)
   14bd4:	48 8d 85 ce e2 ff ff 	lea    -0x1d32(%rbp),%rax
   14bdb:	48 89 85 88 fc ff ff 	mov    %rax,-0x378(%rbp)
   14be2:	48 8d 05 57 c5 00 00 	lea    0xc557(%rip),%rax        # 21140 <g_400>
   14be9:	48 89 85 90 fc ff ff 	mov    %rax,-0x370(%rbp)
   14bf0:	48 8d 85 ce e2 ff ff 	lea    -0x1d32(%rbp),%rax
   14bf7:	48 89 85 98 fc ff ff 	mov    %rax,-0x368(%rbp)
   14bfe:	48 8d 05 57 c5 00 00 	lea    0xc557(%rip),%rax        # 2115c <g_569>
   14c05:	48 89 85 a0 fc ff ff 	mov    %rax,-0x360(%rbp)
   14c0c:	48 8d 05 49 c5 00 00 	lea    0xc549(%rip),%rax        # 2115c <g_569>
   14c13:	48 89 85 a8 fc ff ff 	mov    %rax,-0x358(%rbp)
   14c1a:	48 8d 05 3b c5 00 00 	lea    0xc53b(%rip),%rax        # 2115c <g_569>
   14c21:	48 89 85 b0 fc ff ff 	mov    %rax,-0x350(%rbp)
   14c28:	48 8d 85 ce e2 ff ff 	lea    -0x1d32(%rbp),%rax
   14c2f:	48 89 85 b8 fc ff ff 	mov    %rax,-0x348(%rbp)
   14c36:	48 8d 85 ce e2 ff ff 	lea    -0x1d32(%rbp),%rax
   14c3d:	48 89 85 c0 fc ff ff 	mov    %rax,-0x340(%rbp)
   14c44:	48 8d 05 f5 c4 00 00 	lea    0xc4f5(%rip),%rax        # 21140 <g_400>
   14c4b:	48 89 85 c8 fc ff ff 	mov    %rax,-0x338(%rbp)
   14c52:	48 8d 05 e7 c4 00 00 	lea    0xc4e7(%rip),%rax        # 21140 <g_400>
   14c59:	48 89 85 d0 fc ff ff 	mov    %rax,-0x330(%rbp)
   14c60:	48 8d 05 f5 c4 00 00 	lea    0xc4f5(%rip),%rax        # 2115c <g_569>
   14c67:	48 89 85 d8 fc ff ff 	mov    %rax,-0x328(%rbp)
   14c6e:	48 8d 05 e7 c4 00 00 	lea    0xc4e7(%rip),%rax        # 2115c <g_569>
   14c75:	48 89 85 e0 fc ff ff 	mov    %rax,-0x320(%rbp)
   14c7c:	48 c7 85 e8 fc ff ff 	movq   $0x0,-0x318(%rbp)
   14c83:	00 00 00 00 
   14c87:	48 8d 05 b2 c4 00 00 	lea    0xc4b2(%rip),%rax        # 21140 <g_400>
   14c8e:	48 89 85 f0 fc ff ff 	mov    %rax,-0x310(%rbp)
   14c95:	48 8d 05 a4 c4 00 00 	lea    0xc4a4(%rip),%rax        # 21140 <g_400>
   14c9c:	48 89 85 f8 fc ff ff 	mov    %rax,-0x308(%rbp)
   14ca3:	48 8d 05 b2 c4 00 00 	lea    0xc4b2(%rip),%rax        # 2115c <g_569>
   14caa:	48 89 85 00 fd ff ff 	mov    %rax,-0x300(%rbp)
   14cb1:	48 8d 05 a4 c4 00 00 	lea    0xc4a4(%rip),%rax        # 2115c <g_569>
   14cb8:	48 89 85 08 fd ff ff 	mov    %rax,-0x2f8(%rbp)
   14cbf:	48 8d 05 96 c4 00 00 	lea    0xc496(%rip),%rax        # 2115c <g_569>
   14cc6:	48 89 85 10 fd ff ff 	mov    %rax,-0x2f0(%rbp)
   14ccd:	48 c7 85 18 fd ff ff 	movq   $0x0,-0x2e8(%rbp)
   14cd4:	00 00 00 00 
   14cd8:	48 8d 85 ce e2 ff ff 	lea    -0x1d32(%rbp),%rax
   14cdf:	48 89 85 20 fd ff ff 	mov    %rax,-0x2e0(%rbp)
   14ce6:	48 8d 85 ce e2 ff ff 	lea    -0x1d32(%rbp),%rax
   14ced:	48 89 85 28 fd ff ff 	mov    %rax,-0x2d8(%rbp)
   14cf4:	48 8d 05 45 c4 00 00 	lea    0xc445(%rip),%rax        # 21140 <g_400>
   14cfb:	48 89 85 30 fd ff ff 	mov    %rax,-0x2d0(%rbp)
   14d02:	48 8d 05 53 c4 00 00 	lea    0xc453(%rip),%rax        # 2115c <g_569>
   14d09:	48 89 85 38 fd ff ff 	mov    %rax,-0x2c8(%rbp)
   14d10:	48 8d 05 45 c4 00 00 	lea    0xc445(%rip),%rax        # 2115c <g_569>
   14d17:	48 89 85 40 fd ff ff 	mov    %rax,-0x2c0(%rbp)
   14d1e:	48 8d 85 ce e2 ff ff 	lea    -0x1d32(%rbp),%rax
   14d25:	48 89 85 48 fd ff ff 	mov    %rax,-0x2b8(%rbp)
   14d2c:	48 8d 05 0d c4 00 00 	lea    0xc40d(%rip),%rax        # 21140 <g_400>
   14d33:	48 89 85 50 fd ff ff 	mov    %rax,-0x2b0(%rbp)
   14d3a:	48 8d 85 ce e2 ff ff 	lea    -0x1d32(%rbp),%rax
   14d41:	48 89 85 58 fd ff ff 	mov    %rax,-0x2a8(%rbp)
   14d48:	48 8d 05 0d c4 00 00 	lea    0xc40d(%rip),%rax        # 2115c <g_569>
   14d4f:	48 89 85 60 fd ff ff 	mov    %rax,-0x2a0(%rbp)
   14d56:	48 8d 05 ff c3 00 00 	lea    0xc3ff(%rip),%rax        # 2115c <g_569>
   14d5d:	48 89 85 68 fd ff ff 	mov    %rax,-0x298(%rbp)
   14d64:	48 8d 05 f1 c3 00 00 	lea    0xc3f1(%rip),%rax        # 2115c <g_569>
   14d6b:	48 89 85 70 fd ff ff 	mov    %rax,-0x290(%rbp)
   14d72:	48 8d 85 ce e2 ff ff 	lea    -0x1d32(%rbp),%rax
   14d79:	48 89 85 78 fd ff ff 	mov    %rax,-0x288(%rbp)
   14d80:	48 8d 85 ce e2 ff ff 	lea    -0x1d32(%rbp),%rax
   14d87:	48 89 85 80 fd ff ff 	mov    %rax,-0x280(%rbp)
   14d8e:	48 8d 05 ab c3 00 00 	lea    0xc3ab(%rip),%rax        # 21140 <g_400>
   14d95:	48 89 85 88 fd ff ff 	mov    %rax,-0x278(%rbp)
   14d9c:	48 8d 05 9d c3 00 00 	lea    0xc39d(%rip),%rax        # 21140 <g_400>
   14da3:	48 89 85 90 fd ff ff 	mov    %rax,-0x270(%rbp)
   14daa:	48 8d 05 ab c3 00 00 	lea    0xc3ab(%rip),%rax        # 2115c <g_569>
   14db1:	48 89 85 98 fd ff ff 	mov    %rax,-0x268(%rbp)
   14db8:	48 8d 85 ce e2 ff ff 	lea    -0x1d32(%rbp),%rax
   14dbf:	48 89 85 a0 fd ff ff 	mov    %rax,-0x260(%rbp)
   14dc6:	48 8d 85 ce e2 ff ff 	lea    -0x1d32(%rbp),%rax
   14dcd:	48 89 85 a8 fd ff ff 	mov    %rax,-0x258(%rbp)
   14dd4:	48 8d 85 ce e2 ff ff 	lea    -0x1d32(%rbp),%rax
   14ddb:	48 89 85 b0 fd ff ff 	mov    %rax,-0x250(%rbp)
   14de2:	48 8d 85 ce e2 ff ff 	lea    -0x1d32(%rbp),%rax
   14de9:	48 89 85 b8 fd ff ff 	mov    %rax,-0x248(%rbp)
   14df0:	48 8d 85 ce e2 ff ff 	lea    -0x1d32(%rbp),%rax
   14df7:	48 83 c0 02          	add    $0x2,%rax
   14dfb:	48 89 85 c0 fd ff ff 	mov    %rax,-0x240(%rbp)
   14e02:	48 8d 05 53 c3 00 00 	lea    0xc353(%rip),%rax        # 2115c <g_569>
   14e09:	48 89 85 c8 fd ff ff 	mov    %rax,-0x238(%rbp)
   14e10:	48 8d 85 ce e2 ff ff 	lea    -0x1d32(%rbp),%rax
   14e17:	48 83 c0 02          	add    $0x2,%rax
   14e1b:	48 89 85 d0 fd ff ff 	mov    %rax,-0x230(%rbp)
   14e22:	48 8d 85 ce e2 ff ff 	lea    -0x1d32(%rbp),%rax
   14e29:	48 89 85 d8 fd ff ff 	mov    %rax,-0x228(%rbp)
   14e30:	48 8d 05 09 c3 00 00 	lea    0xc309(%rip),%rax        # 21140 <g_400>
   14e37:	48 89 85 e0 fd ff ff 	mov    %rax,-0x220(%rbp)
   14e3e:	48 8d 85 ce e2 ff ff 	lea    -0x1d32(%rbp),%rax
   14e45:	48 83 c0 04          	add    $0x4,%rax
   14e49:	48 89 85 e8 fd ff ff 	mov    %rax,-0x218(%rbp)
   14e50:	48 8d 05 e9 c2 00 00 	lea    0xc2e9(%rip),%rax        # 21140 <g_400>
   14e57:	48 89 85 f0 fd ff ff 	mov    %rax,-0x210(%rbp)
   14e5e:	48 8d 05 f7 c2 00 00 	lea    0xc2f7(%rip),%rax        # 2115c <g_569>
   14e65:	48 89 85 f8 fd ff ff 	mov    %rax,-0x208(%rbp)
   14e6c:	48 8d 85 ce e2 ff ff 	lea    -0x1d32(%rbp),%rax
   14e73:	48 89 85 00 fe ff ff 	mov    %rax,-0x200(%rbp)
   14e7a:	48 c7 85 08 fe ff ff 	movq   $0x0,-0x1f8(%rbp)
   14e81:	00 00 00 00 
   14e85:	48 8d 85 ce e2 ff ff 	lea    -0x1d32(%rbp),%rax
   14e8c:	48 89 85 10 fe ff ff 	mov    %rax,-0x1f0(%rbp)
   14e93:	48 8d 85 ce e2 ff ff 	lea    -0x1d32(%rbp),%rax
   14e9a:	48 83 c0 04          	add    $0x4,%rax
   14e9e:	48 89 85 18 fe ff ff 	mov    %rax,-0x1e8(%rbp)
   14ea5:	48 8d 85 ce e2 ff ff 	lea    -0x1d32(%rbp),%rax
   14eac:	48 83 c0 02          	add    $0x2,%rax
   14eb0:	48 89 85 20 fe ff ff 	mov    %rax,-0x1e0(%rbp)
   14eb7:	48 8d 05 9e c2 00 00 	lea    0xc29e(%rip),%rax        # 2115c <g_569>
   14ebe:	48 89 85 28 fe ff ff 	mov    %rax,-0x1d8(%rbp)
   14ec5:	48 8d 85 ce e2 ff ff 	lea    -0x1d32(%rbp),%rax
   14ecc:	48 83 c0 02          	add    $0x2,%rax
   14ed0:	48 89 85 30 fe ff ff 	mov    %rax,-0x1d0(%rbp)
   14ed7:	48 c7 85 38 fe ff ff 	movq   $0x0,-0x1c8(%rbp)
   14ede:	00 00 00 00 
   14ee2:	48 8d 05 57 c2 00 00 	lea    0xc257(%rip),%rax        # 21140 <g_400>
   14ee9:	48 89 85 40 fe ff ff 	mov    %rax,-0x1c0(%rbp)
   14ef0:	48 8d 85 ce e2 ff ff 	lea    -0x1d32(%rbp),%rax
   14ef7:	48 89 85 48 fe ff ff 	mov    %rax,-0x1b8(%rbp)
   14efe:	48 8d 05 3b c2 00 00 	lea    0xc23b(%rip),%rax        # 21140 <g_400>
   14f05:	48 89 85 50 fe ff ff 	mov    %rax,-0x1b0(%rbp)
   14f0c:	48 8d 05 49 c2 00 00 	lea    0xc249(%rip),%rax        # 2115c <g_569>
   14f13:	48 89 85 58 fe ff ff 	mov    %rax,-0x1a8(%rbp)
   14f1a:	48 8d 85 ce e2 ff ff 	lea    -0x1d32(%rbp),%rax
   14f21:	48 89 85 60 fe ff ff 	mov    %rax,-0x1a0(%rbp)
   14f28:	48 8d 85 ce e2 ff ff 	lea    -0x1d32(%rbp),%rax
   14f2f:	48 89 85 68 fe ff ff 	mov    %rax,-0x198(%rbp)
   14f36:	48 8d 85 ce e2 ff ff 	lea    -0x1d32(%rbp),%rax
   14f3d:	48 89 85 70 fe ff ff 	mov    %rax,-0x190(%rbp)
   14f44:	48 8d 85 ce e2 ff ff 	lea    -0x1d32(%rbp),%rax
   14f4b:	48 89 85 78 fe ff ff 	mov    %rax,-0x188(%rbp)
   14f52:	48 8d 85 ce e2 ff ff 	lea    -0x1d32(%rbp),%rax
   14f59:	48 83 c0 02          	add    $0x2,%rax
   14f5d:	48 89 85 80 fe ff ff 	mov    %rax,-0x180(%rbp)
   14f64:	48 8d 05 f1 c1 00 00 	lea    0xc1f1(%rip),%rax        # 2115c <g_569>
   14f6b:	48 89 85 88 fe ff ff 	mov    %rax,-0x178(%rbp)
   14f72:	48 8d 85 ce e2 ff ff 	lea    -0x1d32(%rbp),%rax
   14f79:	48 83 c0 02          	add    $0x2,%rax
   14f7d:	48 89 85 90 fe ff ff 	mov    %rax,-0x170(%rbp)
   14f84:	48 8d 85 ce e2 ff ff 	lea    -0x1d32(%rbp),%rax
   14f8b:	48 89 85 98 fe ff ff 	mov    %rax,-0x168(%rbp)
   14f92:	48 8d 05 a7 c1 00 00 	lea    0xc1a7(%rip),%rax        # 21140 <g_400>
   14f99:	48 89 85 a0 fe ff ff 	mov    %rax,-0x160(%rbp)
   14fa0:	48 8d 85 ce e2 ff ff 	lea    -0x1d32(%rbp),%rax
   14fa7:	48 83 c0 04          	add    $0x4,%rax
   14fab:	48 89 85 a8 fe ff ff 	mov    %rax,-0x158(%rbp)
   14fb2:	48 8d 05 87 c1 00 00 	lea    0xc187(%rip),%rax        # 21140 <g_400>
   14fb9:	48 89 85 b0 fe ff ff 	mov    %rax,-0x150(%rbp)
   14fc0:	48 8d 05 95 c1 00 00 	lea    0xc195(%rip),%rax        # 2115c <g_569>
   14fc7:	48 89 85 b8 fe ff ff 	mov    %rax,-0x148(%rbp)
   14fce:	48 8d 85 ce e2 ff ff 	lea    -0x1d32(%rbp),%rax
   14fd5:	48 89 85 c0 fe ff ff 	mov    %rax,-0x140(%rbp)
   14fdc:	48 c7 85 c8 fe ff ff 	movq   $0x0,-0x138(%rbp)
   14fe3:	00 00 00 00 
   14fe7:	48 8d 85 ce e2 ff ff 	lea    -0x1d32(%rbp),%rax
   14fee:	48 89 85 d0 fe ff ff 	mov    %rax,-0x130(%rbp)
   14ff5:	48 8d 85 ce e2 ff ff 	lea    -0x1d32(%rbp),%rax
   14ffc:	48 83 c0 04          	add    $0x4,%rax
   15000:	48 89 85 d8 fe ff ff 	mov    %rax,-0x128(%rbp)
   15007:	48 8d 85 ce e2 ff ff 	lea    -0x1d32(%rbp),%rax
   1500e:	48 83 c0 02          	add    $0x2,%rax
   15012:	48 89 85 e0 fe ff ff 	mov    %rax,-0x120(%rbp)
   15019:	48 8d 05 3c c1 00 00 	lea    0xc13c(%rip),%rax        # 2115c <g_569>
   15020:	48 89 85 e8 fe ff ff 	mov    %rax,-0x118(%rbp)
   15027:	48 8d 85 ce e2 ff ff 	lea    -0x1d32(%rbp),%rax
   1502e:	48 83 c0 02          	add    $0x2,%rax
   15032:	48 89 85 f0 fe ff ff 	mov    %rax,-0x110(%rbp)
   15039:	48 c7 85 f8 fe ff ff 	movq   $0x0,-0x108(%rbp)
   15040:	00 00 00 00 
   15044:	48 8d 05 f5 c0 00 00 	lea    0xc0f5(%rip),%rax        # 21140 <g_400>
   1504b:	48 89 85 00 ff ff ff 	mov    %rax,-0x100(%rbp)
   15052:	48 8d 85 ce e2 ff ff 	lea    -0x1d32(%rbp),%rax
   15059:	48 89 85 08 ff ff ff 	mov    %rax,-0xf8(%rbp)
   15060:	48 8d 05 d9 c0 00 00 	lea    0xc0d9(%rip),%rax        # 21140 <g_400>
   15067:	48 89 85 10 ff ff ff 	mov    %rax,-0xf0(%rbp)
   1506e:	48 8d 05 e7 c0 00 00 	lea    0xc0e7(%rip),%rax        # 2115c <g_569>
   15075:	48 89 85 18 ff ff ff 	mov    %rax,-0xe8(%rbp)
   1507c:	48 8d 85 ce e2 ff ff 	lea    -0x1d32(%rbp),%rax
   15083:	48 89 85 20 ff ff ff 	mov    %rax,-0xe0(%rbp)
   1508a:	48 8d 85 ce e2 ff ff 	lea    -0x1d32(%rbp),%rax
   15091:	48 89 85 28 ff ff ff 	mov    %rax,-0xd8(%rbp)
   15098:	48 8d 85 ce e2 ff ff 	lea    -0x1d32(%rbp),%rax
   1509f:	48 89 85 30 ff ff ff 	mov    %rax,-0xd0(%rbp)
   150a6:	48 8d 85 ce e2 ff ff 	lea    -0x1d32(%rbp),%rax
   150ad:	48 89 85 38 ff ff ff 	mov    %rax,-0xc8(%rbp)
   150b4:	48 8d 85 ce e2 ff ff 	lea    -0x1d32(%rbp),%rax
   150bb:	48 83 c0 02          	add    $0x2,%rax
   150bf:	48 89 85 40 ff ff ff 	mov    %rax,-0xc0(%rbp)
   150c6:	48 8d 05 8f c0 00 00 	lea    0xc08f(%rip),%rax        # 2115c <g_569>
   150cd:	48 89 85 48 ff ff ff 	mov    %rax,-0xb8(%rbp)
   150d4:	48 8d 85 ce e2 ff ff 	lea    -0x1d32(%rbp),%rax
   150db:	48 83 c0 02          	add    $0x2,%rax
   150df:	48 89 85 50 ff ff ff 	mov    %rax,-0xb0(%rbp)
   150e6:	48 8d 85 ce e2 ff ff 	lea    -0x1d32(%rbp),%rax
   150ed:	48 89 85 58 ff ff ff 	mov    %rax,-0xa8(%rbp)
   150f4:	48 8d 05 45 c0 00 00 	lea    0xc045(%rip),%rax        # 21140 <g_400>
   150fb:	48 89 85 60 ff ff ff 	mov    %rax,-0xa0(%rbp)
   15102:	48 8d 85 ce e2 ff ff 	lea    -0x1d32(%rbp),%rax
   15109:	48 83 c0 04          	add    $0x4,%rax
   1510d:	48 89 85 68 ff ff ff 	mov    %rax,-0x98(%rbp)
   15114:	48 8d 05 25 c0 00 00 	lea    0xc025(%rip),%rax        # 21140 <g_400>
   1511b:	48 89 85 70 ff ff ff 	mov    %rax,-0x90(%rbp)
   15122:	48 8d 05 33 c0 00 00 	lea    0xc033(%rip),%rax        # 2115c <g_569>
   15129:	48 89 85 78 ff ff ff 	mov    %rax,-0x88(%rbp)
   15130:	48 8d 85 ce e2 ff ff 	lea    -0x1d32(%rbp),%rax
   15137:	48 89 45 80          	mov    %rax,-0x80(%rbp)
   1513b:	48 c7 45 88 00 00 00 	movq   $0x0,-0x78(%rbp)
   15142:	00 
   15143:	48 8d 85 ce e2 ff ff 	lea    -0x1d32(%rbp),%rax
   1514a:	48 89 45 90          	mov    %rax,-0x70(%rbp)
   1514e:	48 8d 85 ce e2 ff ff 	lea    -0x1d32(%rbp),%rax
   15155:	48 83 c0 04          	add    $0x4,%rax
   15159:	48 89 45 98          	mov    %rax,-0x68(%rbp)
   1515d:	48 8d 85 ce e2 ff ff 	lea    -0x1d32(%rbp),%rax
   15164:	48 83 c0 02          	add    $0x2,%rax
   15168:	48 89 45 a0          	mov    %rax,-0x60(%rbp)
   1516c:	48 8d 05 e9 bf 00 00 	lea    0xbfe9(%rip),%rax        # 2115c <g_569>
   15173:	48 89 45 a8          	mov    %rax,-0x58(%rbp)
   15177:	48 8d 85 ce e2 ff ff 	lea    -0x1d32(%rbp),%rax
   1517e:	48 83 c0 02          	add    $0x2,%rax
   15182:	48 89 45 b0          	mov    %rax,-0x50(%rbp)
   15186:	48 c7 45 b8 00 00 00 	movq   $0x0,-0x48(%rbp)
   1518d:	00 
   1518e:	48 8d 05 ab bf 00 00 	lea    0xbfab(%rip),%rax        # 21140 <g_400>
   15195:	48 89 45 c0          	mov    %rax,-0x40(%rbp)
   15199:	48 8d 85 ce e2 ff ff 	lea    -0x1d32(%rbp),%rax
   151a0:	48 89 45 c8          	mov    %rax,-0x38(%rbp)
   151a4:	66 c7 85 60 e0 ff ff 	movw   $0x6,-0x1fa0(%rbp)
   151ab:	06 00 
   151ad:	c7 85 0c e3 ff ff fe 	movl   $0xfffffffe,-0x1cf4(%rbp)
   151b4:	ff ff ff 
   151b7:	8b 85 0c e3 ff ff    	mov    -0x1cf4(%rbp),%eax
   151bd:	89 c6                	mov    %eax,%esi
   151bf:	bf b3 7c 00 00       	mov    $0x7cb3,%edi
   151c4:	e8 f5 5b ff ff       	callq  adbe <safe_lshift_func_uint16_t_u_s>
   151c9:	0f b7 d0             	movzwl %ax,%edx
   151cc:	8b 85 4c e0 ff ff    	mov    -0x1fb4(%rbp),%eax
   151d2:	89 d6                	mov    %edx,%esi
   151d4:	89 c7                	mov    %eax,%edi
   151d6:	e8 f5 5c ff ff       	callq  aed0 <safe_sub_func_uint32_t_u_u>
   151db:	0f be c0             	movsbl %al,%eax
   151de:	be 06 00 00 00       	mov    $0x6,%esi
   151e3:	89 c7                	mov    %eax,%edi
   151e5:	e8 b7 50 ff ff       	callq  a2a1 <safe_lshift_func_int8_t_s_s>
   151ea:	8b 85 0c e3 ff ff    	mov    -0x1cf4(%rbp),%eax
   151f0:	0f bf d8             	movswl %ax,%ebx
   151f3:	8b 85 4c e0 ff ff    	mov    -0x1fb4(%rbp),%eax
   151f9:	0f be d0             	movsbl %al,%edx
   151fc:	48 8b 85 a8 e1 ff ff 	mov    -0x1e58(%rbp),%rax
   15203:	48 8b 00             	mov    (%rax),%rax
   15206:	48 8b 00             	mov    (%rax),%rax
   15209:	48 8b 00             	mov    (%rax),%rax
   1520c:	8b 00                	mov    (%rax),%eax
   1520e:	83 c8 fb             	or     $0xfffffffb,%eax
   15211:	0f be c0             	movsbl %al,%eax
   15214:	89 d6                	mov    %edx,%esi
   15216:	89 c7                	mov    %eax,%edi
   15218:	e8 f5 4f ff ff       	callq  a212 <safe_mul_func_int8_t_s_s>
   1521d:	0f be c0             	movsbl %al,%eax
   15220:	89 de                	mov    %ebx,%esi
   15222:	89 c7                	mov    %eax,%edi
   15224:	e8 aa 51 ff ff       	callq  a3d3 <safe_sub_func_int16_t_s_s>
   15229:	66 85 c0             	test   %ax,%ax
   1522c:	75 09                	jne    15237 <func_13+0x2906>
   1522e:	83 bd a0 e0 ff ff 00 	cmpl   $0x0,-0x1f60(%rbp)
   15235:	74 07                	je     1523e <func_13+0x290d>
   15237:	b8 01 00 00 00       	mov    $0x1,%eax
   1523c:	eb 05                	jmp    15243 <func_13+0x2912>
   1523e:	b8 00 00 00 00       	mov    $0x0,%eax
   15243:	89 c2                	mov    %eax,%edx
   15245:	48 8b 85 18 e2 ff ff 	mov    -0x1de8(%rbp),%rax
   1524c:	66 89 10             	mov    %dx,(%rax)
   1524f:	48 8b 85 18 e2 ff ff 	mov    -0x1de8(%rbp),%rax
   15256:	0f b7 00             	movzwl (%rax),%eax
   15259:	66 89 05 fc be 00 00 	mov    %ax,0xbefc(%rip)        # 2115c <g_569>
   15260:	0f b7 05 f5 be 00 00 	movzwl 0xbef5(%rip),%eax        # 2115c <g_569>
   15267:	0f b7 d0             	movzwl %ax,%edx
   1526a:	8b 85 4c e0 ff ff    	mov    -0x1fb4(%rbp),%eax
   15270:	98                   	cwtl   
   15271:	89 d6                	mov    %edx,%esi
   15273:	89 c7                	mov    %eax,%edi
   15275:	e8 67 52 ff ff       	callq  a4e1 <safe_lshift_func_int16_t_s_u>
   1527a:	98                   	cwtl   
   1527b:	89 c6                	mov    %eax,%esi
   1527d:	bf 00 00 00 00       	mov    $0x0,%edi
   15282:	e8 2c 51 ff ff       	callq  a3b3 <safe_add_func_int16_t_s_s>
   15287:	48 8b 85 d0 e1 ff ff 	mov    -0x1e30(%rbp),%rax
   1528e:	8b 00                	mov    (%rax),%eax
   15290:	98                   	cwtl   
   15291:	be fc ff ff ff       	mov    $0xfffffffc,%esi
   15296:	89 c7                	mov    %eax,%edi
   15298:	e8 b8 51 ff ff       	callq  a455 <safe_div_func_int16_t_s_s>
   1529d:	0f b6 c0             	movzbl %al,%eax
   152a0:	89 c6                	mov    %eax,%esi
   152a2:	bf 74 00 00 00       	mov    $0x74,%edi
   152a7:	e8 cc 58 ff ff       	callq  ab78 <safe_sub_func_uint8_t_u_u>
   152ac:	3c 02                	cmp    $0x2,%al
   152ae:	0f 96 c0             	setbe  %al
   152b1:	0f b6 c0             	movzbl %al,%eax
   152b4:	48 be 7f 83 0e cc 97 	movabs $0xc9758b97cc0e837f,%rsi
   152bb:	8b 75 c9 
   152be:	48 89 c7             	mov    %rax,%rdi
   152c1:	e8 e2 55 ff ff       	callq  a8a8 <safe_sub_func_int64_t_s_s>
   152c6:	ba 00 00 00 00       	mov    $0x0,%edx
   152cb:	8b 85 38 e1 ff ff    	mov    -0x1ec8(%rbp),%eax
   152d1:	21 d0                	and    %edx,%eax
   152d3:	89 85 38 e1 ff ff    	mov    %eax,-0x1ec8(%rbp)
   152d9:	48 8b 85 d0 e1 ff ff 	mov    -0x1e30(%rbp),%rax
   152e0:	c7 00 fc ff ff ff    	movl   $0xfffffffc,(%rax)
   152e6:	8b 85 4c e0 ff ff    	mov    -0x1fb4(%rbp),%eax
   152ec:	0f be c0             	movsbl %al,%eax
   152ef:	be 03 00 00 00       	mov    $0x3,%esi
   152f4:	89 c7                	mov    %eax,%edi
   152f6:	e8 3a 50 ff ff       	callq  a335 <safe_rshift_func_int8_t_s_s>
   152fb:	83 bd 4c e0 ff ff 00 	cmpl   $0x0,-0x1fb4(%rbp)
   15302:	48 8b 85 c0 e3 ff ff 	mov    -0x1c40(%rbp),%rax
   15309:	48 89 85 a8 ef ff ff 	mov    %rax,-0x1058(%rbp)
   15310:	48 8b 95 a8 ef ff ff 	mov    -0x1058(%rbp),%rdx
   15317:	48 8b 85 70 e6 ff ff 	mov    -0x1990(%rbp),%rax
   1531e:	48 39 c2             	cmp    %rax,%rdx
   15321:	0f 95 c0             	setne  %al
   15324:	0f b6 d0             	movzbl %al,%edx
   15327:	8b 85 4c e0 ff ff    	mov    -0x1fb4(%rbp),%eax
   1532d:	0f be c0             	movsbl %al,%eax
   15330:	89 d6                	mov    %edx,%esi
   15332:	89 c7                	mov    %eax,%edi
   15334:	e8 b9 4e ff ff       	callq  a1f2 <safe_sub_func_int8_t_s_s>
   15339:	3c f7                	cmp    $0xf7,%al
   1533b:	0f 9d c2             	setge  %dl
   1533e:	48 8b 85 a8 e1 ff ff 	mov    -0x1e58(%rbp),%rax
   15345:	48 8b 00             	mov    (%rax),%rax
   15348:	48 8b 00             	mov    (%rax),%rax
   1534b:	48 8b 00             	mov    (%rax),%rax
   1534e:	0f b6 d2             	movzbl %dl,%edx
   15351:	89 10                	mov    %edx,(%rax)
   15353:	48 8b 15 6e e0 00 00 	mov    0xe06e(%rip),%rdx        # 233c8 <g_102>
   1535a:	48 8b 05 df e3 00 00 	mov    0xe3df(%rip),%rax        # 23740 <g_376>
   15361:	48 8b 00             	mov    (%rax),%rax
   15364:	48 8b 12             	mov    (%rdx),%rdx
   15367:	48 89 10             	mov    %rdx,(%rax)
   1536a:	e9 96 01 00 00       	jmpq   15505 <func_13+0x2bd4>
   1536f:	48 c7 85 d8 e1 ff ff 	movq   $0x0,-0x1e28(%rbp)
   15376:	00 00 00 00 
   1537a:	48 c7 85 e0 e1 ff ff 	movq   $0x0,-0x1e20(%rbp)
   15381:	00 00 00 00 
   15385:	48 c7 85 e8 e1 ff ff 	movq   $0x0,-0x1e18(%rbp)
   1538c:	00 00 00 00 
   15390:	48 8d 05 d9 bd 00 00 	lea    0xbdd9(%rip),%rax        # 21170 <g_967>
   15397:	48 89 85 30 e1 ff ff 	mov    %rax,-0x1ed0(%rbp)
   1539e:	48 8d 85 30 e1 ff ff 	lea    -0x1ed0(%rbp),%rax
   153a5:	48 89 85 38 e1 ff ff 	mov    %rax,-0x1ec8(%rbp)
   153ac:	48 8d 85 38 e1 ff ff 	lea    -0x1ec8(%rbp),%rax
   153b3:	48 89 85 50 f8 ff ff 	mov    %rax,-0x7b0(%rbp)
   153ba:	48 8d 85 38 e1 ff ff 	lea    -0x1ec8(%rbp),%rax
   153c1:	48 89 85 58 f8 ff ff 	mov    %rax,-0x7a8(%rbp)
   153c8:	48 8d 85 38 e1 ff ff 	lea    -0x1ec8(%rbp),%rax
   153cf:	48 89 85 60 f8 ff ff 	mov    %rax,-0x7a0(%rbp)
   153d6:	48 8d 85 38 e1 ff ff 	lea    -0x1ec8(%rbp),%rax
   153dd:	48 89 85 68 f8 ff ff 	mov    %rax,-0x798(%rbp)
   153e4:	48 8d 85 38 e1 ff ff 	lea    -0x1ec8(%rbp),%rax
   153eb:	48 89 85 70 f8 ff ff 	mov    %rax,-0x790(%rbp)
   153f2:	48 8d 85 38 e1 ff ff 	lea    -0x1ec8(%rbp),%rax
   153f9:	48 89 85 78 f8 ff ff 	mov    %rax,-0x788(%rbp)
   15400:	48 8d 85 38 e1 ff ff 	lea    -0x1ec8(%rbp),%rax
   15407:	48 89 85 80 f8 ff ff 	mov    %rax,-0x780(%rbp)
   1540e:	48 8d 85 38 e1 ff ff 	lea    -0x1ec8(%rbp),%rax
   15415:	48 89 85 88 f8 ff ff 	mov    %rax,-0x778(%rbp)
   1541c:	48 8d 85 38 e1 ff ff 	lea    -0x1ec8(%rbp),%rax
   15423:	48 89 85 90 f8 ff ff 	mov    %rax,-0x770(%rbp)
   1542a:	48 8d 85 38 e1 ff ff 	lea    -0x1ec8(%rbp),%rax
   15431:	48 89 85 98 f8 ff ff 	mov    %rax,-0x768(%rbp)
   15438:	48 8d 85 38 e1 ff ff 	lea    -0x1ec8(%rbp),%rax
   1543f:	48 89 85 a0 f8 ff ff 	mov    %rax,-0x760(%rbp)
   15446:	48 8d 85 38 e1 ff ff 	lea    -0x1ec8(%rbp),%rax
   1544d:	48 89 85 a8 f8 ff ff 	mov    %rax,-0x758(%rbp)
   15454:	48 8d 85 38 e1 ff ff 	lea    -0x1ec8(%rbp),%rax
   1545b:	48 89 85 b0 f8 ff ff 	mov    %rax,-0x750(%rbp)
   15462:	48 8d 85 38 e1 ff ff 	lea    -0x1ec8(%rbp),%rax
   15469:	48 89 85 b8 f8 ff ff 	mov    %rax,-0x748(%rbp)
   15470:	48 8d 85 38 e1 ff ff 	lea    -0x1ec8(%rbp),%rax
   15477:	48 89 85 c0 f8 ff ff 	mov    %rax,-0x740(%rbp)
   1547e:	48 8d 85 38 e1 ff ff 	lea    -0x1ec8(%rbp),%rax
   15485:	48 89 85 c8 f8 ff ff 	mov    %rax,-0x738(%rbp)
   1548c:	48 8d 85 38 e1 ff ff 	lea    -0x1ec8(%rbp),%rax
   15493:	48 89 85 d0 f8 ff ff 	mov    %rax,-0x730(%rbp)
   1549a:	48 8d 85 38 e1 ff ff 	lea    -0x1ec8(%rbp),%rax
   154a1:	48 89 85 d8 f8 ff ff 	mov    %rax,-0x728(%rbp)
   154a8:	48 8d 85 38 e1 ff ff 	lea    -0x1ec8(%rbp),%rax
   154af:	48 89 85 e0 f8 ff ff 	mov    %rax,-0x720(%rbp)
   154b6:	48 8d 85 38 e1 ff ff 	lea    -0x1ec8(%rbp),%rax
   154bd:	48 89 85 e8 f8 ff ff 	mov    %rax,-0x718(%rbp)
   154c4:	48 8d 85 50 f8 ff ff 	lea    -0x7b0(%rbp),%rax
   154cb:	48 83 c0 58          	add    $0x58,%rax
   154cf:	48 89 85 f0 e1 ff ff 	mov    %rax,-0x1e10(%rbp)
   154d6:	48 8b 85 f0 e1 ff ff 	mov    -0x1e10(%rbp),%rax
   154dd:	48 c7 00 00 00 00 00 	movq   $0x0,(%rax)
   154e4:	48 83 bd 50 e1 ff ff 	cmpq   $0x0,-0x1eb0(%rbp)
   154eb:	00 
   154ec:	0f 95 c0             	setne  %al
   154ef:	0f b6 d0             	movzbl %al,%edx
   154f2:	48 8b 85 d0 e1 ff ff 	mov    -0x1e30(%rbp),%rax
   154f9:	89 10                	mov    %edx,(%rax)
   154fb:	8b 85 68 e0 ff ff    	mov    -0x1f98(%rbp),%eax
   15501:	85 c0                	test   %eax,%eax
   15503:	75 30                	jne    15535 <func_13+0x2c04>
   15505:	48 8b 85 40 e1 ff ff 	mov    -0x1ec0(%rbp),%rax
   1550c:	89 85 70 e0 ff ff    	mov    %eax,-0x1f90(%rbp)
   15512:	48 8b 05 37 bc 00 00 	mov    0xbc37(%rip),%rax        # 21150 <g_500>
   15519:	48 83 c0 01          	add    $0x1,%rax
   1551d:	48 89 05 2c bc 00 00 	mov    %rax,0xbc2c(%rip)        # 21150 <g_500>
   15524:	48 8b 05 25 bc 00 00 	mov    0xbc25(%rip),%rax        # 21150 <g_500>
   1552b:	48 83 f8 01          	cmp    $0x1,%rax
   1552f:	0f 8e 56 e8 ff ff    	jle    13d8b <func_13+0x145a>
   15535:	c7 85 74 e0 ff ff 00 	movl   $0x0,-0x1f8c(%rbp)
   1553c:	00 00 00 
   1553f:	48 8b 05 42 e2 00 00 	mov    0xe242(%rip),%rax        # 23788 <g_377>
   15546:	48 8b 00             	mov    (%rax),%rax
   15549:	48 39 85 90 e1 ff ff 	cmp    %rax,-0x1e70(%rbp)
   15550:	41 0f 95 c6          	setne  %r14b
   15554:	8b 85 4c e0 ff ff    	mov    -0x1fb4(%rbp),%eax
   1555a:	0f b7 d8             	movzwl %ax,%ebx
   1555d:	0f b7 05 a4 01 01 00 	movzwl 0x101a4(%rip),%eax        # 25708 <g_37>
   15564:	44 0f bf e8          	movswl %ax,%r13d
   15568:	0f b7 85 ce e2 ff ff 	movzwl -0x1d32(%rbp),%eax
   1556f:	44 0f bf e0          	movswl %ax,%r12d
   15573:	0f b6 85 53 e0 ff ff 	movzbl -0x1fad(%rbp),%eax
   1557a:	0f b6 c0             	movzbl %al,%eax
   1557d:	be 01 00 00 00       	mov    $0x1,%esi
   15582:	89 c7                	mov    %eax,%edi
   15584:	e8 4a 4e ff ff       	callq  a3d3 <safe_sub_func_int16_t_s_s>
   15589:	be ff ff ff ff       	mov    $0xffffffff,%esi
   1558e:	bf b2 64 00 00       	mov    $0x64b2,%edi
   15593:	e8 bd 4e ff ff       	callq  a455 <safe_div_func_int16_t_s_s>
   15598:	83 f0 08             	xor    $0x8,%eax
   1559b:	0f be c0             	movsbl %al,%eax
   1559e:	be 03 00 00 00       	mov    $0x3,%esi
   155a3:	89 c7                	mov    %eax,%edi
   155a5:	e8 8b 4d ff ff       	callq  a335 <safe_rshift_func_int8_t_s_s>
   155aa:	48 8b 85 28 e1 ff ff 	mov    -0x1ed8(%rbp),%rax
   155b1:	48 8b 95 20 e1 ff ff 	mov    -0x1ee0(%rbp),%rdx
   155b8:	48 89 10             	mov    %rdx,(%rax)
   155bb:	48 8b 10             	mov    (%rax),%rdx
   155be:	48 8b 85 08 e1 ff ff 	mov    -0x1ef8(%rbp),%rax
   155c5:	48 39 c2             	cmp    %rax,%rdx
   155c8:	0f 95 c0             	setne  %al
   155cb:	0f b6 d0             	movzbl %al,%edx
   155ce:	0f b7 85 5e e0 ff ff 	movzwl -0x1fa2(%rbp),%eax
   155d5:	31 d0                	xor    %edx,%eax
   155d7:	98                   	cwtl   
   155d8:	44 89 e6             	mov    %r12d,%esi
   155db:	89 c7                	mov    %eax,%edi
   155dd:	e8 d1 4d ff ff       	callq  a3b3 <safe_add_func_int16_t_s_s>
   155e2:	0f b7 c0             	movzwl %ax,%eax
   155e5:	be 0a 00 00 00       	mov    $0xa,%esi
   155ea:	89 c7                	mov    %eax,%edi
   155ec:	e8 cd 57 ff ff       	callq  adbe <safe_lshift_func_uint16_t_u_s>
   155f1:	0f b7 c0             	movzwl %ax,%eax
   155f4:	41 39 c5             	cmp    %eax,%r13d
   155f7:	0f 95 c0             	setne  %al
   155fa:	0f b6 c0             	movzbl %al,%eax
   155fd:	89 de                	mov    %ebx,%esi
   155ff:	89 c7                	mov    %eax,%edi
   15601:	e8 37 57 ff ff       	callq  ad3d <safe_mul_func_uint16_t_u_u>
   15606:	66 85 c0             	test   %ax,%ax
   15609:	0f 95 c0             	setne  %al
   1560c:	44 31 f0             	xor    %r14d,%eax
   1560f:	0f b6 c0             	movzbl %al,%eax
   15612:	be 97 9c ff ff       	mov    $0xffff9c97,%esi
   15617:	89 c7                	mov    %eax,%edi
   15619:	e8 f8 4d ff ff       	callq  a416 <safe_mod_func_int16_t_s_s>
   1561e:	8b 85 4c e0 ff ff    	mov    -0x1fb4(%rbp),%eax
   15624:	35 a3 32 00 00       	xor    $0x32a3,%eax
   15629:	48 98                	cltq   
   1562b:	21 85 78 e0 ff ff    	and    %eax,-0x1f88(%rbp)
   15631:	c6 05 20 ba 00 00 ee 	movb   $0xee,0xba20(%rip)        # 21058 <g_101>
   15638:	e9 ef 08 00 00       	jmpq   15f2c <func_13+0x35fb>
   1563d:	c7 85 a8 e0 ff ff 8a 	movl   $0xc3a1ef8a,-0x1f58(%rbp)
   15644:	ef a1 c3 
   15647:	48 8d 85 5c e0 ff ff 	lea    -0x1fa4(%rbp),%rax
   1564e:	48 89 85 38 e2 ff ff 	mov    %rax,-0x1dc8(%rbp)
   15655:	48 8d 05 04 bb 00 00 	lea    0xbb04(%rip),%rax        # 21160 <g_622>
   1565c:	48 89 85 40 e2 ff ff 	mov    %rax,-0x1dc0(%rbp)
   15663:	48 8d 05 36 ba 00 00 	lea    0xba36(%rip),%rax        # 210a0 <g_254+0x20>
   1566a:	48 89 85 48 e2 ff ff 	mov    %rax,-0x1db8(%rbp)
   15671:	c7 85 ac e0 ff ff fb 	movl   $0xfffffffb,-0x1f54(%rbp)
   15678:	ff ff ff 
   1567b:	83 bd a8 e0 ff ff 00 	cmpl   $0x0,-0x1f58(%rbp)
   15682:	0f 85 b5 08 00 00    	jne    15f3d <func_13+0x360c>
   15688:	48 8b 05 79 dd 00 00 	mov    0xdd79(%rip),%rax        # 23408 <g_291>
   1568f:	0f b6 10             	movzbl (%rax),%edx
   15692:	83 ea 01             	sub    $0x1,%edx
   15695:	88 10                	mov    %dl,(%rax)
   15697:	0f b6 00             	movzbl (%rax),%eax
   1569a:	84 c0                	test   %al,%al
   1569c:	0f 94 c0             	sete   %al
   1569f:	0f b6 c0             	movzbl %al,%eax
   156a2:	39 85 9c e0 ff ff    	cmp    %eax,-0x1f64(%rbp)
   156a8:	0f 84 5e 08 00 00    	je     15f0c <func_13+0x35db>
   156ae:	0f b7 85 d2 e2 ff ff 	movzwl -0x1d2e(%rbp),%eax
   156b5:	0f b7 d8             	movzwl %ax,%ebx
   156b8:	48 c7 c7 f6 ff ff ff 	mov    $0xfffffffffffffff6,%rdi
   156bf:	e8 55 59 ff ff       	callq  b019 <safe_unary_minus_func_uint64_t_u>
   156c4:	49 89 c4             	mov    %rax,%r12
   156c7:	bf 00 00 00 00       	mov    $0x0,%edi
   156cc:	e8 cc 4c ff ff       	callq  a39d <safe_unary_minus_func_int16_t_s>
   156d1:	0f b6 c0             	movzbl %al,%eax
   156d4:	89 c6                	mov    %eax,%esi
   156d6:	bf 45 00 00 00       	mov    $0x45,%edi
   156db:	e8 b3 54 ff ff       	callq  ab93 <safe_mul_func_uint8_t_u_u>
   156e0:	0f b6 d0             	movzbl %al,%edx
   156e3:	48 8b 05 b6 b9 00 00 	mov    0xb9b6(%rip),%rax        # 210a0 <g_254+0x20>
   156ea:	0f b7 c0             	movzwl %ax,%eax
   156ed:	89 d6                	mov    %edx,%esi
   156ef:	89 c7                	mov    %eax,%edi
   156f1:	e8 47 56 ff ff       	callq  ad3d <safe_mul_func_uint16_t_u_u>
   156f6:	48 8b 95 38 e2 ff ff 	mov    -0x1dc8(%rbp),%rdx
   156fd:	0f b7 12             	movzwl (%rdx),%edx
   15700:	31 c2                	xor    %eax,%edx
   15702:	48 8b 85 38 e2 ff ff 	mov    -0x1dc8(%rbp),%rax
   15709:	66 89 10             	mov    %dx,(%rax)
   1570c:	48 8b 85 38 e2 ff ff 	mov    -0x1dc8(%rbp),%rax
   15713:	0f b7 00             	movzwl (%rax),%eax
   15716:	66 83 f8 01          	cmp    $0x1,%ax
   1571a:	0f 97 c0             	seta   %al
   1571d:	0f b6 d0             	movzbl %al,%edx
   15720:	8b 85 6c e0 ff ff    	mov    -0x1f94(%rbp),%eax
   15726:	39 c2                	cmp    %eax,%edx
   15728:	0f 95 c2             	setne  %dl
   1572b:	48 8b 85 08 e1 ff ff 	mov    -0x1ef8(%rbp),%rax
   15732:	88 10                	mov    %dl,(%rax)
   15734:	0f b6 00             	movzbl (%rax),%eax
   15737:	48 0f be c0          	movsbq %al,%rax
   1573b:	49 39 c4             	cmp    %rax,%r12
   1573e:	0f 96 c0             	setbe  %al
   15741:	0f b6 c0             	movzbl %al,%eax
   15744:	0b 85 a8 e0 ff ff    	or     -0x1f58(%rbp),%eax
   1574a:	89 c2                	mov    %eax,%edx
   1574c:	48 8b 85 40 e2 ff ff 	mov    -0x1dc0(%rbp),%rax
   15753:	89 10                	mov    %edx,(%rax)
   15755:	48 8b 85 40 e2 ff ff 	mov    -0x1dc0(%rbp),%rax
   1575c:	8b 00                	mov    (%rax),%eax
   1575e:	89 de                	mov    %ebx,%esi
   15760:	89 c7                	mov    %eax,%edi
   15762:	e8 96 57 ff ff       	callq  aefd <safe_mod_func_uint32_t_u_u>
   15767:	48 8b 05 ca e1 00 00 	mov    0xe1ca(%rip),%rax        # 23938 <g_494>
   1576e:	48 8b 00             	mov    (%rax),%rax
   15771:	48 8b 00             	mov    (%rax),%rax
   15774:	48 85 c0             	test   %rax,%rax
   15777:	74 09                	je     15782 <func_13+0x2e51>
   15779:	83 bd 4c e0 ff ff 00 	cmpl   $0x0,-0x1fb4(%rbp)
   15780:	75 0d                	jne    1578f <func_13+0x2e5e>
   15782:	83 bd 4c e0 ff ff 00 	cmpl   $0x0,-0x1fb4(%rbp)
   15789:	0f 84 7d 07 00 00    	je     15f0c <func_13+0x35db>
   1578f:	48 8d 85 6c e0 ff ff 	lea    -0x1f94(%rbp),%rax
   15796:	48 89 85 50 e2 ff ff 	mov    %rax,-0x1db0(%rbp)
   1579d:	48 8d 85 08 e1 ff ff 	lea    -0x1ef8(%rbp),%rax
   157a4:	48 89 85 50 f8 ff ff 	mov    %rax,-0x7b0(%rbp)
   157ab:	48 8d 85 08 e1 ff ff 	lea    -0x1ef8(%rbp),%rax
   157b2:	48 89 85 58 f8 ff ff 	mov    %rax,-0x7a8(%rbp)
   157b9:	48 8d 85 20 e1 ff ff 	lea    -0x1ee0(%rbp),%rax
   157c0:	48 89 85 60 f8 ff ff 	mov    %rax,-0x7a0(%rbp)
   157c7:	48 8d 85 20 e1 ff ff 	lea    -0x1ee0(%rbp),%rax
   157ce:	48 89 85 68 f8 ff ff 	mov    %rax,-0x798(%rbp)
   157d5:	48 8d 85 20 e1 ff ff 	lea    -0x1ee0(%rbp),%rax
   157dc:	48 89 85 70 f8 ff ff 	mov    %rax,-0x790(%rbp)
   157e3:	48 8d 85 08 e1 ff ff 	lea    -0x1ef8(%rbp),%rax
   157ea:	48 89 85 78 f8 ff ff 	mov    %rax,-0x788(%rbp)
   157f1:	48 8d 85 08 e1 ff ff 	lea    -0x1ef8(%rbp),%rax
   157f8:	48 89 85 80 f8 ff ff 	mov    %rax,-0x780(%rbp)
   157ff:	48 8d 85 20 e1 ff ff 	lea    -0x1ee0(%rbp),%rax
   15806:	48 89 85 88 f8 ff ff 	mov    %rax,-0x778(%rbp)
   1580d:	48 8d 85 08 e1 ff ff 	lea    -0x1ef8(%rbp),%rax
   15814:	48 89 85 90 f8 ff ff 	mov    %rax,-0x770(%rbp)
   1581b:	48 c7 85 98 f8 ff ff 	movq   $0x0,-0x768(%rbp)
   15822:	00 00 00 00 
   15826:	48 8d 85 08 e1 ff ff 	lea    -0x1ef8(%rbp),%rax
   1582d:	48 89 85 a0 f8 ff ff 	mov    %rax,-0x760(%rbp)
   15834:	48 8d 85 08 e1 ff ff 	lea    -0x1ef8(%rbp),%rax
   1583b:	48 89 85 a8 f8 ff ff 	mov    %rax,-0x758(%rbp)
   15842:	48 8d 85 20 e1 ff ff 	lea    -0x1ee0(%rbp),%rax
   15849:	48 89 85 b0 f8 ff ff 	mov    %rax,-0x750(%rbp)
   15850:	48 8d 85 08 e1 ff ff 	lea    -0x1ef8(%rbp),%rax
   15857:	48 89 85 b8 f8 ff ff 	mov    %rax,-0x748(%rbp)
   1585e:	48 c7 85 c0 f8 ff ff 	movq   $0x0,-0x740(%rbp)
   15865:	00 00 00 00 
   15869:	48 8d 85 08 e1 ff ff 	lea    -0x1ef8(%rbp),%rax
   15870:	48 89 85 c8 f8 ff ff 	mov    %rax,-0x738(%rbp)
   15877:	48 8d 85 20 e1 ff ff 	lea    -0x1ee0(%rbp),%rax
   1587e:	48 89 85 d0 f8 ff ff 	mov    %rax,-0x730(%rbp)
   15885:	48 8d 85 08 e1 ff ff 	lea    -0x1ef8(%rbp),%rax
   1588c:	48 89 85 d8 f8 ff ff 	mov    %rax,-0x728(%rbp)
   15893:	48 8d 85 20 e1 ff ff 	lea    -0x1ee0(%rbp),%rax
   1589a:	48 89 85 e0 f8 ff ff 	mov    %rax,-0x720(%rbp)
   158a1:	48 8d 85 20 e1 ff ff 	lea    -0x1ee0(%rbp),%rax
   158a8:	48 89 85 e8 f8 ff ff 	mov    %rax,-0x718(%rbp)
   158af:	48 c7 85 f0 f8 ff ff 	movq   $0x0,-0x710(%rbp)
   158b6:	00 00 00 00 
   158ba:	48 8d 85 08 e1 ff ff 	lea    -0x1ef8(%rbp),%rax
   158c1:	48 89 85 f8 f8 ff ff 	mov    %rax,-0x708(%rbp)
   158c8:	48 8d 85 08 e1 ff ff 	lea    -0x1ef8(%rbp),%rax
   158cf:	48 89 85 00 f9 ff ff 	mov    %rax,-0x700(%rbp)
   158d6:	48 8d 85 20 e1 ff ff 	lea    -0x1ee0(%rbp),%rax
   158dd:	48 89 85 08 f9 ff ff 	mov    %rax,-0x6f8(%rbp)
   158e4:	48 8d 85 20 e1 ff ff 	lea    -0x1ee0(%rbp),%rax
   158eb:	48 89 85 10 f9 ff ff 	mov    %rax,-0x6f0(%rbp)
   158f2:	48 8d 85 08 e1 ff ff 	lea    -0x1ef8(%rbp),%rax
   158f9:	48 89 85 18 f9 ff ff 	mov    %rax,-0x6e8(%rbp)
   15900:	48 8d 85 08 e1 ff ff 	lea    -0x1ef8(%rbp),%rax
   15907:	48 89 85 20 f9 ff ff 	mov    %rax,-0x6e0(%rbp)
   1590e:	48 c7 85 28 f9 ff ff 	movq   $0x0,-0x6d8(%rbp)
   15915:	00 00 00 00 
   15919:	48 8d 85 08 e1 ff ff 	lea    -0x1ef8(%rbp),%rax
   15920:	48 89 85 30 f9 ff ff 	mov    %rax,-0x6d0(%rbp)
   15927:	48 8d 85 08 e1 ff ff 	lea    -0x1ef8(%rbp),%rax
   1592e:	48 89 85 38 f9 ff ff 	mov    %rax,-0x6c8(%rbp)
   15935:	48 8d 85 20 e1 ff ff 	lea    -0x1ee0(%rbp),%rax
   1593c:	48 89 85 40 f9 ff ff 	mov    %rax,-0x6c0(%rbp)
   15943:	48 8d 85 08 e1 ff ff 	lea    -0x1ef8(%rbp),%rax
   1594a:	48 89 85 48 f9 ff ff 	mov    %rax,-0x6b8(%rbp)
   15951:	48 c7 85 50 f9 ff ff 	movq   $0x0,-0x6b0(%rbp)
   15958:	00 00 00 00 
   1595c:	48 8d 85 08 e1 ff ff 	lea    -0x1ef8(%rbp),%rax
   15963:	48 89 85 58 f9 ff ff 	mov    %rax,-0x6a8(%rbp)
   1596a:	48 8d 85 08 e1 ff ff 	lea    -0x1ef8(%rbp),%rax
   15971:	48 89 85 60 f9 ff ff 	mov    %rax,-0x6a0(%rbp)
   15978:	48 8d 85 20 e1 ff ff 	lea    -0x1ee0(%rbp),%rax
   1597f:	48 89 85 68 f9 ff ff 	mov    %rax,-0x698(%rbp)
   15986:	48 8d 85 08 e1 ff ff 	lea    -0x1ef8(%rbp),%rax
   1598d:	48 89 85 70 f9 ff ff 	mov    %rax,-0x690(%rbp)
   15994:	48 8d 85 08 e1 ff ff 	lea    -0x1ef8(%rbp),%rax
   1599b:	48 89 85 78 f9 ff ff 	mov    %rax,-0x688(%rbp)
   159a2:	48 8d 85 08 e1 ff ff 	lea    -0x1ef8(%rbp),%rax
   159a9:	48 89 85 80 f9 ff ff 	mov    %rax,-0x680(%rbp)
   159b0:	48 8d 85 20 e1 ff ff 	lea    -0x1ee0(%rbp),%rax
   159b7:	48 89 85 88 f9 ff ff 	mov    %rax,-0x678(%rbp)
   159be:	48 8d 85 20 e1 ff ff 	lea    -0x1ee0(%rbp),%rax
   159c5:	48 89 85 90 f9 ff ff 	mov    %rax,-0x670(%rbp)
   159cc:	48 c7 85 98 f9 ff ff 	movq   $0x0,-0x668(%rbp)
   159d3:	00 00 00 00 
   159d7:	48 c7 85 a0 f9 ff ff 	movq   $0x0,-0x660(%rbp)
   159de:	00 00 00 00 
   159e2:	48 8d 85 08 e1 ff ff 	lea    -0x1ef8(%rbp),%rax
   159e9:	48 89 85 a8 f9 ff ff 	mov    %rax,-0x658(%rbp)
   159f0:	48 8d 85 20 e1 ff ff 	lea    -0x1ee0(%rbp),%rax
   159f7:	48 89 85 b0 f9 ff ff 	mov    %rax,-0x650(%rbp)
   159fe:	48 8d 85 08 e1 ff ff 	lea    -0x1ef8(%rbp),%rax
   15a05:	48 89 85 b8 f9 ff ff 	mov    %rax,-0x648(%rbp)
   15a0c:	48 c7 85 c0 f9 ff ff 	movq   $0x0,-0x640(%rbp)
   15a13:	00 00 00 00 
   15a17:	48 c7 85 c8 f9 ff ff 	movq   $0x0,-0x638(%rbp)
   15a1e:	00 00 00 00 
   15a22:	48 8d 85 20 e1 ff ff 	lea    -0x1ee0(%rbp),%rax
   15a29:	48 89 85 d0 f9 ff ff 	mov    %rax,-0x630(%rbp)
   15a30:	48 c7 85 d8 f9 ff ff 	movq   $0x0,-0x628(%rbp)
   15a37:	00 00 00 00 
   15a3b:	48 8d 85 08 e1 ff ff 	lea    -0x1ef8(%rbp),%rax
   15a42:	48 89 85 e0 f9 ff ff 	mov    %rax,-0x620(%rbp)
   15a49:	48 8d 85 20 e1 ff ff 	lea    -0x1ee0(%rbp),%rax
   15a50:	48 89 85 e8 f9 ff ff 	mov    %rax,-0x618(%rbp)
   15a57:	48 8d 85 08 e1 ff ff 	lea    -0x1ef8(%rbp),%rax
   15a5e:	48 89 85 f0 f9 ff ff 	mov    %rax,-0x610(%rbp)
   15a65:	48 8d 85 08 e1 ff ff 	lea    -0x1ef8(%rbp),%rax
   15a6c:	48 89 85 f8 f9 ff ff 	mov    %rax,-0x608(%rbp)
   15a73:	48 8d 85 20 e1 ff ff 	lea    -0x1ee0(%rbp),%rax
   15a7a:	48 89 85 00 fa ff ff 	mov    %rax,-0x600(%rbp)
   15a81:	48 8d 85 20 e1 ff ff 	lea    -0x1ee0(%rbp),%rax
   15a88:	48 89 85 08 fa ff ff 	mov    %rax,-0x5f8(%rbp)
   15a8f:	48 8d 85 20 e1 ff ff 	lea    -0x1ee0(%rbp),%rax
   15a96:	48 89 85 10 fa ff ff 	mov    %rax,-0x5f0(%rbp)
   15a9d:	48 8d 85 08 e1 ff ff 	lea    -0x1ef8(%rbp),%rax
   15aa4:	48 89 85 18 fa ff ff 	mov    %rax,-0x5e8(%rbp)
   15aab:	48 8d 85 20 e1 ff ff 	lea    -0x1ee0(%rbp),%rax
   15ab2:	48 89 85 20 fa ff ff 	mov    %rax,-0x5e0(%rbp)
   15ab9:	48 8d 85 08 e1 ff ff 	lea    -0x1ef8(%rbp),%rax
   15ac0:	48 89 85 28 fa ff ff 	mov    %rax,-0x5d8(%rbp)
   15ac7:	66 c7 85 5c e0 ff ff 	movw   $0x19,-0x1fa4(%rbp)
   15ace:	19 00 
   15ad0:	e9 1b 04 00 00       	jmpq   15ef0 <func_13+0x35bf>
   15ad5:	66 c7 85 62 e0 ff ff 	movw   $0xb2db,-0x1f9e(%rbp)
   15adc:	db b2 
   15ade:	48 8d 85 28 e1 ff ff 	lea    -0x1ed8(%rbp),%rax
   15ae5:	48 89 85 58 e2 ff ff 	mov    %rax,-0x1da8(%rbp)
   15aec:	48 8d 85 08 e1 ff ff 	lea    -0x1ef8(%rbp),%rax
   15af3:	48 89 85 00 e6 ff ff 	mov    %rax,-0x1a00(%rbp)
   15afa:	48 8d 85 08 e1 ff ff 	lea    -0x1ef8(%rbp),%rax
   15b01:	48 89 85 08 e6 ff ff 	mov    %rax,-0x19f8(%rbp)
   15b08:	48 8d 85 20 e1 ff ff 	lea    -0x1ee0(%rbp),%rax
   15b0f:	48 89 85 10 e6 ff ff 	mov    %rax,-0x19f0(%rbp)
   15b16:	48 8d 85 08 e1 ff ff 	lea    -0x1ef8(%rbp),%rax
   15b1d:	48 89 85 18 e6 ff ff 	mov    %rax,-0x19e8(%rbp)
   15b24:	48 8d 85 20 e1 ff ff 	lea    -0x1ee0(%rbp),%rax
   15b2b:	48 89 85 20 e6 ff ff 	mov    %rax,-0x19e0(%rbp)
   15b32:	48 8d 85 08 e1 ff ff 	lea    -0x1ef8(%rbp),%rax
   15b39:	48 89 85 28 e6 ff ff 	mov    %rax,-0x19d8(%rbp)
   15b40:	48 8d 85 08 e1 ff ff 	lea    -0x1ef8(%rbp),%rax
   15b47:	48 89 85 30 e6 ff ff 	mov    %rax,-0x19d0(%rbp)
   15b4e:	48 8d 85 08 e1 ff ff 	lea    -0x1ef8(%rbp),%rax
   15b55:	48 89 85 38 e6 ff ff 	mov    %rax,-0x19c8(%rbp)
   15b5c:	48 8d 85 20 e1 ff ff 	lea    -0x1ee0(%rbp),%rax
   15b63:	48 89 85 40 e6 ff ff 	mov    %rax,-0x19c0(%rbp)
   15b6a:	48 8d 85 08 e1 ff ff 	lea    -0x1ef8(%rbp),%rax
   15b71:	48 89 85 48 e6 ff ff 	mov    %rax,-0x19b8(%rbp)
   15b78:	48 8d 85 20 e1 ff ff 	lea    -0x1ee0(%rbp),%rax
   15b7f:	48 89 85 50 e6 ff ff 	mov    %rax,-0x19b0(%rbp)
   15b86:	48 8d 85 20 e1 ff ff 	lea    -0x1ee0(%rbp),%rax
   15b8d:	48 89 85 58 e6 ff ff 	mov    %rax,-0x19a8(%rbp)
   15b94:	48 8d 85 08 e1 ff ff 	lea    -0x1ef8(%rbp),%rax
   15b9b:	48 89 85 60 e6 ff ff 	mov    %rax,-0x19a0(%rbp)
   15ba2:	48 8d 85 08 e1 ff ff 	lea    -0x1ef8(%rbp),%rax
   15ba9:	48 89 85 68 e6 ff ff 	mov    %rax,-0x1998(%rbp)
   15bb0:	48 8d 85 08 e1 ff ff 	lea    -0x1ef8(%rbp),%rax
   15bb7:	48 89 85 70 e6 ff ff 	mov    %rax,-0x1990(%rbp)
   15bbe:	48 8d 85 08 e1 ff ff 	lea    -0x1ef8(%rbp),%rax
   15bc5:	48 89 85 78 e6 ff ff 	mov    %rax,-0x1988(%rbp)
   15bcc:	48 8d 85 20 e1 ff ff 	lea    -0x1ee0(%rbp),%rax
   15bd3:	48 89 85 80 e6 ff ff 	mov    %rax,-0x1980(%rbp)
   15bda:	48 8d 85 20 e1 ff ff 	lea    -0x1ee0(%rbp),%rax
   15be1:	48 89 85 88 e6 ff ff 	mov    %rax,-0x1978(%rbp)
   15be8:	48 8d 85 08 e1 ff ff 	lea    -0x1ef8(%rbp),%rax
   15bef:	48 89 85 90 e6 ff ff 	mov    %rax,-0x1970(%rbp)
   15bf6:	48 8d 85 08 e1 ff ff 	lea    -0x1ef8(%rbp),%rax
   15bfd:	48 89 85 98 e6 ff ff 	mov    %rax,-0x1968(%rbp)
   15c04:	48 8d 85 20 e1 ff ff 	lea    -0x1ee0(%rbp),%rax
   15c0b:	48 89 85 a0 e6 ff ff 	mov    %rax,-0x1960(%rbp)
   15c12:	48 8d 85 08 e1 ff ff 	lea    -0x1ef8(%rbp),%rax
   15c19:	48 89 85 a8 e6 ff ff 	mov    %rax,-0x1958(%rbp)
   15c20:	48 8d 85 20 e1 ff ff 	lea    -0x1ee0(%rbp),%rax
   15c27:	48 89 85 b0 e6 ff ff 	mov    %rax,-0x1950(%rbp)
   15c2e:	48 8d 85 08 e1 ff ff 	lea    -0x1ef8(%rbp),%rax
   15c35:	48 89 85 b8 e6 ff ff 	mov    %rax,-0x1948(%rbp)
   15c3c:	48 8d 85 08 e1 ff ff 	lea    -0x1ef8(%rbp),%rax
   15c43:	48 89 85 c0 e6 ff ff 	mov    %rax,-0x1940(%rbp)
   15c4a:	48 8d 85 08 e1 ff ff 	lea    -0x1ef8(%rbp),%rax
   15c51:	48 89 85 c8 e6 ff ff 	mov    %rax,-0x1938(%rbp)
   15c58:	48 8d 85 20 e1 ff ff 	lea    -0x1ee0(%rbp),%rax
   15c5f:	48 89 85 d0 e6 ff ff 	mov    %rax,-0x1930(%rbp)
   15c66:	48 8d 85 08 e1 ff ff 	lea    -0x1ef8(%rbp),%rax
   15c6d:	48 89 85 d8 e6 ff ff 	mov    %rax,-0x1928(%rbp)
   15c74:	48 8d 85 20 e1 ff ff 	lea    -0x1ee0(%rbp),%rax
   15c7b:	48 89 85 e0 e6 ff ff 	mov    %rax,-0x1920(%rbp)
   15c82:	48 8d 85 20 e1 ff ff 	lea    -0x1ee0(%rbp),%rax
   15c89:	48 89 85 e8 e6 ff ff 	mov    %rax,-0x1918(%rbp)
   15c90:	48 8d 85 08 e1 ff ff 	lea    -0x1ef8(%rbp),%rax
   15c97:	48 89 85 f0 e6 ff ff 	mov    %rax,-0x1910(%rbp)
   15c9e:	48 8d 85 08 e1 ff ff 	lea    -0x1ef8(%rbp),%rax
   15ca5:	48 89 85 f8 e6 ff ff 	mov    %rax,-0x1908(%rbp)
   15cac:	48 8d 85 08 e1 ff ff 	lea    -0x1ef8(%rbp),%rax
   15cb3:	48 89 85 00 e7 ff ff 	mov    %rax,-0x1900(%rbp)
   15cba:	48 8d 85 08 e1 ff ff 	lea    -0x1ef8(%rbp),%rax
   15cc1:	48 89 85 08 e7 ff ff 	mov    %rax,-0x18f8(%rbp)
   15cc8:	48 8d 85 20 e1 ff ff 	lea    -0x1ee0(%rbp),%rax
   15ccf:	48 89 85 10 e7 ff ff 	mov    %rax,-0x18f0(%rbp)
   15cd6:	48 8d 85 20 e1 ff ff 	lea    -0x1ee0(%rbp),%rax
   15cdd:	48 89 85 18 e7 ff ff 	mov    %rax,-0x18e8(%rbp)
   15ce4:	48 8d 85 08 e1 ff ff 	lea    -0x1ef8(%rbp),%rax
   15ceb:	48 89 85 20 e7 ff ff 	mov    %rax,-0x18e0(%rbp)
   15cf2:	48 8d 85 08 e1 ff ff 	lea    -0x1ef8(%rbp),%rax
   15cf9:	48 89 85 28 e7 ff ff 	mov    %rax,-0x18d8(%rbp)
   15d00:	48 c7 85 30 e7 ff ff 	movq   $0x0,-0x18d0(%rbp)
   15d07:	00 00 00 00 
   15d0b:	48 8d 85 20 e1 ff ff 	lea    -0x1ee0(%rbp),%rax
   15d12:	48 89 85 38 e7 ff ff 	mov    %rax,-0x18c8(%rbp)
   15d19:	48 c7 85 40 e7 ff ff 	movq   $0x0,-0x18c0(%rbp)
   15d20:	00 00 00 00 
   15d24:	48 8d 85 20 e1 ff ff 	lea    -0x1ee0(%rbp),%rax
   15d2b:	48 89 85 48 e7 ff ff 	mov    %rax,-0x18b8(%rbp)
   15d32:	48 8d 85 20 e1 ff ff 	lea    -0x1ee0(%rbp),%rax
   15d39:	48 89 85 50 e7 ff ff 	mov    %rax,-0x18b0(%rbp)
   15d40:	48 8d 85 20 e1 ff ff 	lea    -0x1ee0(%rbp),%rax
   15d47:	48 89 85 58 e7 ff ff 	mov    %rax,-0x18a8(%rbp)
   15d4e:	48 c7 85 60 e7 ff ff 	movq   $0x0,-0x18a0(%rbp)
   15d55:	00 00 00 00 
   15d59:	48 8d 85 20 e1 ff ff 	lea    -0x1ee0(%rbp),%rax
   15d60:	48 89 85 68 e7 ff ff 	mov    %rax,-0x1898(%rbp)
   15d67:	48 c7 85 70 e7 ff ff 	movq   $0x0,-0x1890(%rbp)
   15d6e:	00 00 00 00 
   15d72:	48 c7 85 78 e7 ff ff 	movq   $0x0,-0x1888(%rbp)
   15d79:	00 00 00 00 
   15d7d:	48 8d 85 08 e1 ff ff 	lea    -0x1ef8(%rbp),%rax
   15d84:	48 89 85 80 e7 ff ff 	mov    %rax,-0x1880(%rbp)
   15d8b:	48 8d 85 20 e1 ff ff 	lea    -0x1ee0(%rbp),%rax
   15d92:	48 89 85 88 e7 ff ff 	mov    %rax,-0x1878(%rbp)
   15d99:	48 8d 85 20 e1 ff ff 	lea    -0x1ee0(%rbp),%rax
   15da0:	48 89 85 90 e7 ff ff 	mov    %rax,-0x1870(%rbp)
   15da7:	48 8d 85 08 e1 ff ff 	lea    -0x1ef8(%rbp),%rax
   15dae:	48 89 85 98 e7 ff ff 	mov    %rax,-0x1868(%rbp)
   15db5:	48 c7 85 a0 e7 ff ff 	movq   $0x0,-0x1860(%rbp)
   15dbc:	00 00 00 00 
   15dc0:	48 c7 85 a8 e7 ff ff 	movq   $0x0,-0x1858(%rbp)
   15dc7:	00 00 00 00 
   15dcb:	48 8d 05 e6 b2 00 00 	lea    0xb2e6(%rip),%rax        # 210b8 <g_258>
   15dd2:	48 89 85 60 e2 ff ff 	mov    %rax,-0x1da0(%rbp)
   15dd9:	48 8b 85 40 e2 ff ff 	mov    -0x1dc0(%rbp),%rax
   15de0:	48 89 85 50 e2 ff ff 	mov    %rax,-0x1db0(%rbp)
   15de7:	48 83 bd 38 e2 ff ff 	cmpq   $0x0,-0x1dc8(%rbp)
   15dee:	00 
   15def:	0f 95 c0             	setne  %al
   15df2:	0f b6 c0             	movzbl %al,%eax
   15df5:	89 85 74 e0 ff ff    	mov    %eax,-0x1f8c(%rbp)
   15dfb:	48 8b 95 c8 f8 ff ff 	mov    -0x738(%rbp),%rdx
   15e02:	48 8b 85 58 e2 ff ff 	mov    -0x1da8(%rbp),%rax
   15e09:	48 89 10             	mov    %rdx,(%rax)
   15e0c:	48 8b 85 58 e2 ff ff 	mov    -0x1da8(%rbp),%rax
   15e13:	48 8b 10             	mov    (%rax),%rdx
   15e16:	48 c7 85 a8 e6 ff ff 	movq   $0x0,-0x1958(%rbp)
   15e1d:	00 00 00 00 
   15e21:	48 8b 85 a8 e6 ff ff 	mov    -0x1958(%rbp),%rax
   15e28:	48 39 c2             	cmp    %rax,%rdx
   15e2b:	0f 95 c0             	setne  %al
   15e2e:	0f b6 d8             	movzbl %al,%ebx
   15e31:	48 8b 85 50 e2 ff ff 	mov    -0x1db0(%rbp),%rax
   15e38:	8b 00                	mov    (%rax),%eax
   15e3a:	0f b7 d0             	movzwl %ax,%edx
   15e3d:	8b 85 4c e0 ff ff    	mov    -0x1fb4(%rbp),%eax
   15e43:	0f b7 c0             	movzwl %ax,%eax
   15e46:	89 d6                	mov    %edx,%esi
   15e48:	89 c7                	mov    %eax,%edi
   15e4a:	e8 0d 4f ff ff       	callq  ad5c <safe_mod_func_uint16_t_u_u>
   15e4f:	0f b7 c0             	movzwl %ax,%eax
   15e52:	89 de                	mov    %ebx,%esi
   15e54:	89 c7                	mov    %eax,%edi
   15e56:	e8 c4 4e ff ff       	callq  ad1f <safe_sub_func_uint16_t_u_u>
   15e5b:	48 8b 85 48 e2 ff ff 	mov    -0x1db8(%rbp),%rax
   15e62:	48 89 85 60 e2 ff ff 	mov    %rax,-0x1da0(%rbp)
   15e69:	48 8b 85 28 e4 ff ff 	mov    -0x1bd8(%rbp),%rax
   15e70:	48 39 85 60 e2 ff ff 	cmp    %rax,-0x1da0(%rbp)
   15e77:	0f 95 c0             	setne  %al
   15e7a:	0f b6 d8             	movzbl %al,%ebx
   15e7d:	0f b7 95 62 e0 ff ff 	movzwl -0x1f9e(%rbp),%edx
   15e84:	8b 85 74 e0 ff ff    	mov    -0x1f8c(%rbp),%eax
   15e8a:	89 d6                	mov    %edx,%esi
   15e8c:	89 c7                	mov    %eax,%edi
   15e8e:	e8 39 48 ff ff       	callq  a6cc <safe_mod_func_int32_t_s_s>
   15e93:	34 b7                	xor    $0xb7,%al
   15e95:	98                   	cwtl   
   15e96:	be 03 00 00 00       	mov    $0x3,%esi
   15e9b:	89 c7                	mov    %eax,%edi
   15e9d:	e8 3f 46 ff ff       	callq  a4e1 <safe_lshift_func_int16_t_s_u>
   15ea2:	66 85 c0             	test   %ax,%ax
   15ea5:	74 14                	je     15ebb <func_13+0x358a>
   15ea7:	48 8b 85 50 e2 ff ff 	mov    -0x1db0(%rbp),%rax
   15eae:	8b 00                	mov    (%rax),%eax
   15eb0:	85 c0                	test   %eax,%eax
   15eb2:	74 07                	je     15ebb <func_13+0x358a>
   15eb4:	b8 01 00 00 00       	mov    $0x1,%eax
   15eb9:	eb 05                	jmp    15ec0 <func_13+0x358f>
   15ebb:	b8 00 00 00 00       	mov    $0x0,%eax
   15ec0:	89 c2                	mov    %eax,%edx
   15ec2:	8b 85 4c e0 ff ff    	mov    -0x1fb4(%rbp),%eax
   15ec8:	31 d0                	xor    %edx,%eax
   15eca:	0f be c0             	movsbl %al,%eax
   15ecd:	89 de                	mov    %ebx,%esi
   15ecf:	89 c7                	mov    %eax,%edi
   15ed1:	e8 3c 43 ff ff       	callq  a212 <safe_mul_func_int8_t_s_s>
   15ed6:	0f be c0             	movsbl %al,%eax
   15ed9:	89 85 ac e0 ff ff    	mov    %eax,-0x1f54(%rbp)
   15edf:	0f b7 85 5c e0 ff ff 	movzwl -0x1fa4(%rbp),%eax
   15ee6:	83 e8 01             	sub    $0x1,%eax
   15ee9:	66 89 85 5c e0 ff ff 	mov    %ax,-0x1fa4(%rbp)
   15ef0:	0f b7 85 5c e0 ff ff 	movzwl -0x1fa4(%rbp),%eax
   15ef7:	66 85 c0             	test   %ax,%ax
   15efa:	0f 84 d5 fb ff ff    	je     15ad5 <func_13+0x31a4>
   15f00:	0f b7 85 ce e2 ff ff 	movzwl -0x1d32(%rbp),%eax
   15f07:	e9 08 07 00 00       	jmpq   16614 <func_13+0x3ce3>
   15f0c:	48 8b 05 55 b2 00 00 	mov    0xb255(%rip),%rax        # 21168 <g_908>
   15f13:	48 85 c0             	test   %rax,%rax
   15f16:	0f 85 8b 03 00 00    	jne    162a7 <func_13+0x3976>
   15f1c:	0f b6 05 35 b1 00 00 	movzbl 0xb135(%rip),%eax        # 21058 <g_101>
   15f23:	83 e8 01             	sub    $0x1,%eax
   15f26:	88 05 2c b1 00 00    	mov    %al,0xb12c(%rip)        # 21058 <g_101>
   15f2c:	0f b6 05 25 b1 00 00 	movzbl 0xb125(%rip),%eax        # 21058 <g_101>
   15f33:	3c e7                	cmp    $0xe7,%al
   15f35:	0f 8c 02 f7 ff ff    	jl     1563d <func_13+0x2d0c>
   15f3b:	eb 01                	jmp    15f3e <func_13+0x360d>
   15f3d:	90                   	nop
   15f3e:	c7 85 68 e0 ff ff 00 	movl   $0x0,-0x1f98(%rbp)
   15f45:	00 00 00 
   15f48:	e9 49 03 00 00       	jmpq   16296 <func_13+0x3965>
   15f4d:	48 b8 24 54 a9 cc ed 	movabs $0xc59425edcca95424,%rax
   15f54:	25 94 c5 
   15f57:	48 89 85 68 e2 ff ff 	mov    %rax,-0x1d98(%rbp)
   15f5e:	c7 85 90 e0 ff ff 01 	movl   $0x1,-0x1f70(%rbp)
   15f65:	00 00 00 
   15f68:	48 8d 85 68 e0 ff ff 	lea    -0x1f98(%rbp),%rax
   15f6f:	48 89 85 70 e2 ff ff 	mov    %rax,-0x1d90(%rbp)
   15f76:	c7 85 b0 e0 ff ff 02 	movl   $0x2,-0x1f50(%rbp)
   15f7d:	00 00 00 
   15f80:	48 8d 05 e9 b1 00 00 	lea    0xb1e9(%rip),%rax        # 21170 <g_967>
   15f87:	48 89 85 78 e2 ff ff 	mov    %rax,-0x1d88(%rbp)
   15f8e:	c6 85 58 e0 ff ff 87 	movb   $0x87,-0x1fa8(%rbp)
   15f95:	48 8d 05 c2 b1 00 00 	lea    0xb1c2(%rip),%rax        # 2115e <g_588>
   15f9c:	48 89 85 80 e2 ff ff 	mov    %rax,-0x1d80(%rbp)
   15fa3:	83 bd 88 e0 ff ff 00 	cmpl   $0x0,-0x1f78(%rbp)
   15faa:	0f 85 fd 02 00 00    	jne    162ad <func_13+0x397c>
   15fb0:	c7 85 78 e0 ff ff 00 	movl   $0x0,-0x1f88(%rbp)
   15fb7:	00 00 00 
   15fba:	eb 37                	jmp    15ff3 <func_13+0x36c2>
   15fbc:	48 8d 05 dd d9 00 00 	lea    0xd9dd(%rip),%rax        # 239a0 <g_1036>
   15fc3:	48 89 85 98 e2 ff ff 	mov    %rax,-0x1d68(%rbp)
   15fca:	c7 85 b8 e0 ff ff 93 	movl   $0xad5d3b93,-0x1f48(%rbp)
   15fd1:	3b 5d ad 
   15fd4:	48 8d 05 05 d4 00 00 	lea    0xd405(%rip),%rax        # 233e0 <g_201>
   15fdb:	48 89 85 a0 e2 ff ff 	mov    %rax,-0x1d60(%rbp)
   15fe2:	c7 85 bc e0 ff ff 4f 	movl   $0xd94aa4f,-0x1f44(%rbp)
   15fe9:	aa 94 0d 
   15fec:	83 85 78 e0 ff ff 01 	addl   $0x1,-0x1f88(%rbp)
   15ff3:	83 bd 78 e0 ff ff 09 	cmpl   $0x9,-0x1f88(%rbp)
   15ffa:	7e c0                	jle    15fbc <func_13+0x368b>
   15ffc:	83 bd 4c e0 ff ff 00 	cmpl   $0x0,-0x1fb4(%rbp)
   16003:	0f 85 b8 02 00 00    	jne    162c1 <func_13+0x3990>
   16009:	8b 15 11 b1 00 00    	mov    0xb111(%rip),%edx        # 21120 <g_354+0x40>
   1600f:	8b 05 63 b1 00 00    	mov    0xb163(%rip),%eax        # 21178 <g_1129>
   16015:	39 c2                	cmp    %eax,%edx
   16017:	0f 96 c0             	setbe  %al
   1601a:	0f b6 d0             	movzbl %al,%edx
   1601d:	48 8b 85 70 e2 ff ff 	mov    -0x1d90(%rbp),%rax
   16024:	8b 00                	mov    (%rax),%eax
   16026:	39 c2                	cmp    %eax,%edx
   16028:	0f 95 c0             	setne  %al
   1602b:	0f b6 d0             	movzbl %al,%edx
   1602e:	48 8b 85 70 e2 ff ff 	mov    -0x1d90(%rbp),%rax
   16035:	48 3b 85 c0 e1 ff ff 	cmp    -0x1e40(%rbp),%rax
   1603c:	0f 95 c0             	setne  %al
   1603f:	0f b6 c0             	movzbl %al,%eax
   16042:	39 c2                	cmp    %eax,%edx
   16044:	0f 9f c0             	setg   %al
   16047:	0f b6 c0             	movzbl %al,%eax
   1604a:	0b 85 4c e0 ff ff    	or     -0x1fb4(%rbp),%eax
   16050:	c1 e8 1f             	shr    $0x1f,%eax
   16053:	0f b6 d0             	movzbl %al,%edx
   16056:	48 8b 85 b8 e1 ff ff 	mov    -0x1e48(%rbp),%rax
   1605d:	8b 00                	mov    (%rax),%eax
   1605f:	39 c2                	cmp    %eax,%edx
   16061:	0f 95 c0             	setne  %al
   16064:	0f b6 c0             	movzbl %al,%eax
   16067:	8b 95 4c e0 ff ff    	mov    -0x1fb4(%rbp),%edx
   1606d:	89 d6                	mov    %edx,%esi
   1606f:	89 c7                	mov    %eax,%edi
   16071:	e8 40 45 ff ff       	callq  a5b6 <safe_add_func_int32_t_s_s>
   16076:	0f be 95 58 e0 ff ff 	movsbl -0x1fa8(%rbp),%edx
   1607d:	39 d0                	cmp    %edx,%eax
   1607f:	0f 94 c2             	sete   %dl
   16082:	48 8b 85 20 e1 ff ff 	mov    -0x1ee0(%rbp),%rax
   16089:	88 10                	mov    %dl,(%rax)
   1608b:	0f b6 00             	movzbl (%rax),%eax
   1608e:	0f be c0             	movsbl %al,%eax
   16091:	39 85 4c e0 ff ff    	cmp    %eax,-0x1fb4(%rbp)
   16097:	74 18                	je     160b1 <func_13+0x3780>
   16099:	c6 85 59 e0 ff ff 08 	movb   $0x8,-0x1fa7(%rbp)
   160a0:	8b 85 4c e0 ff ff    	mov    -0x1fb4(%rbp),%eax
   160a6:	30 85 59 e0 ff ff    	xor    %al,-0x1fa7(%rbp)
   160ac:	e9 cb 01 00 00       	jmpq   1627c <func_13+0x394b>
   160b1:	66 c7 05 6e f6 00 00 	movw   $0x7,0xf66e(%rip)        # 25728 <g_343>
   160b8:	07 00 
   160ba:	e9 ac 01 00 00       	jmpq   1626b <func_13+0x393a>
   160bf:	c7 85 b4 e0 ff ff fd 	movl   $0xfffffffd,-0x1f4c(%rbp)
   160c6:	ff ff ff 
   160c9:	48 8d 05 f8 e0 00 00 	lea    0xe0f8(%rip),%rax        # 241c8 <g_1147+0x8>
   160d0:	48 89 85 88 e2 ff ff 	mov    %rax,-0x1d78(%rbp)
   160d7:	48 8d 05 2a f6 00 00 	lea    0xf62a(%rip),%rax        # 25708 <g_37>
   160de:	48 89 85 90 e2 ff ff 	mov    %rax,-0x1d70(%rbp)
   160e5:	c7 85 94 e0 ff ff 00 	movl   $0x0,-0x1f6c(%rbp)
   160ec:	00 00 00 
   160ef:	eb 1b                	jmp    1610c <func_13+0x37db>
   160f1:	8b 85 94 e0 ff ff    	mov    -0x1f6c(%rbp),%eax
   160f7:	48 98                	cltq   
   160f9:	48 c7 84 c5 50 f8 ff 	movq   $0x0,-0x7b0(%rbp,%rax,8)
   16100:	ff 00 00 00 00 
   16105:	83 85 94 e0 ff ff 01 	addl   $0x1,-0x1f6c(%rbp)
   1610c:	83 bd 94 e0 ff ff 01 	cmpl   $0x1,-0x1f6c(%rbp)
   16113:	7e dc                	jle    160f1 <func_13+0x37c0>
   16115:	83 ad b4 e0 ff ff 01 	subl   $0x1,-0x1f4c(%rbp)
   1611c:	8b 9d 4c e0 ff ff    	mov    -0x1fb4(%rbp),%ebx
   16122:	0f b7 05 df f5 00 00 	movzwl 0xf5df(%rip),%eax        # 25708 <g_37>
   16129:	0f b7 c0             	movzwl %ax,%eax
   1612c:	be 08 00 00 00       	mov    $0x8,%esi
   16131:	89 c7                	mov    %eax,%edi
   16133:	e8 86 4c ff ff       	callq  adbe <safe_lshift_func_uint16_t_u_s>
   16138:	66 85 c0             	test   %ax,%ax
   1613b:	0f 85 b5 00 00 00    	jne    161f6 <func_13+0x38c5>
   16141:	8b 85 b4 e0 ff ff    	mov    -0x1f4c(%rbp),%eax
   16147:	44 0f be e0          	movsbl %al,%r12d
   1614b:	48 8b 05 d6 d7 00 00 	mov    0xd7d6(%rip),%rax        # 23928 <g_496>
   16152:	48 8b 10             	mov    (%rax),%rdx
   16155:	8b 85 4c e0 ff ff    	mov    -0x1fb4(%rbp),%eax
   1615b:	48 98                	cltq   
   1615d:	48 39 c2             	cmp    %rax,%rdx
   16160:	0f 96 c0             	setbe  %al
   16163:	0f b6 c0             	movzbl %al,%eax
   16166:	be 06 00 00 00       	mov    $0x6,%esi
   1616b:	89 c7                	mov    %eax,%edi
   1616d:	e8 08 4d ff ff       	callq  ae7a <safe_rshift_func_uint16_t_u_u>
   16172:	0f be c0             	movsbl %al,%eax
   16175:	44 89 e6             	mov    %r12d,%esi
   16178:	89 c7                	mov    %eax,%edi
   1617a:	e8 93 40 ff ff       	callq  a212 <safe_mul_func_int8_t_s_s>
   1617f:	0f be c0             	movsbl %al,%eax
   16182:	be 3d ed 88 65       	mov    $0x6588ed3d,%esi
   16187:	89 c7                	mov    %eax,%edi
   16189:	e8 77 44 ff ff       	callq  a605 <safe_sub_func_int32_t_s_s>
   1618e:	48 8b 95 70 e2 ff ff 	mov    -0x1d90(%rbp),%rdx
   16195:	8b 12                	mov    (%rdx),%edx
   16197:	39 d0                	cmp    %edx,%eax
   16199:	0f 95 c0             	setne  %al
   1619c:	0f b6 c8             	movzbl %al,%ecx
   1619f:	48 8b 15 22 e0 00 00 	mov    0xe022(%rip),%rdx        # 241c8 <g_1147+0x8>
   161a6:	48 8b 85 88 e2 ff ff 	mov    -0x1d78(%rbp),%rax
   161ad:	48 89 10             	mov    %rdx,(%rax)
   161b0:	48 8b 85 88 e2 ff ff 	mov    -0x1d78(%rbp),%rax
   161b7:	48 8b 00             	mov    (%rax),%rax
   161ba:	48 8d 15 c7 d7 00 00 	lea    0xd7c7(%rip),%rdx        # 23988 <g_748+0x28>
   161c1:	48 39 d0             	cmp    %rdx,%rax
   161c4:	0f 95 c0             	setne  %al
   161c7:	0f b6 d0             	movzbl %al,%edx
   161ca:	48 8b 85 90 e2 ff ff 	mov    -0x1d70(%rbp),%rax
   161d1:	0f b7 00             	movzwl (%rax),%eax
   161d4:	21 c1                	and    %eax,%ecx
   161d6:	48 8b 85 90 e2 ff ff 	mov    -0x1d70(%rbp),%rax
   161dd:	66 89 08             	mov    %cx,(%rax)
   161e0:	48 8b 85 90 e2 ff ff 	mov    -0x1d70(%rbp),%rax
   161e7:	0f b7 00             	movzwl (%rax),%eax
   161ea:	83 f0 01             	xor    $0x1,%eax
   161ed:	48 0f bf c0          	movswq %ax,%rax
   161f1:	48 39 c2             	cmp    %rax,%rdx
   161f4:	7e 07                	jle    161fd <func_13+0x38cc>
   161f6:	b8 01 00 00 00       	mov    $0x1,%eax
   161fb:	eb 05                	jmp    16202 <func_13+0x38d1>
   161fd:	b8 00 00 00 00       	mov    $0x0,%eax
   16202:	0f b6 c0             	movzbl %al,%eax
   16205:	89 de                	mov    %ebx,%esi
   16207:	89 c7                	mov    %eax,%edi
   16209:	e8 3e 4a ff ff       	callq  ac4c <safe_lshift_func_uint8_t_u_u>
   1620e:	0f b6 d0             	movzbl %al,%edx
   16211:	8b 85 4c e0 ff ff    	mov    -0x1fb4(%rbp),%eax
   16217:	0f b7 c0             	movzwl %ax,%eax
   1621a:	89 d6                	mov    %edx,%esi
   1621c:	89 c7                	mov    %eax,%edi
   1621e:	e8 6b 4b ff ff       	callq  ad8e <safe_div_func_uint16_t_u_u>
   16223:	48 8b 85 88 e1 ff ff 	mov    -0x1e78(%rbp),%rax
   1622a:	48 8b 00             	mov    (%rax),%rax
   1622d:	48 8b 95 80 e2 ff ff 	mov    -0x1d80(%rbp),%rdx
   16234:	48 89 95 60 e1 ff ff 	mov    %rdx,-0x1ea0(%rbp)
   1623b:	48 39 85 60 e1 ff ff 	cmp    %rax,-0x1ea0(%rbp)
   16242:	0f 95 c0             	setne  %al
   16245:	0f b6 c0             	movzbl %al,%eax
   16248:	39 85 b4 e0 ff ff    	cmp    %eax,-0x1f4c(%rbp)
   1624e:	0f 95 c0             	setne  %al
   16251:	0f b6 c0             	movzbl %al,%eax
   16254:	09 85 90 e0 ff ff    	or     %eax,-0x1f70(%rbp)
   1625a:	0f b7 05 c7 f4 00 00 	movzwl 0xf4c7(%rip),%eax        # 25728 <g_343>
   16261:	83 e8 01             	sub    $0x1,%eax
   16264:	66 89 05 bd f4 00 00 	mov    %ax,0xf4bd(%rip)        # 25728 <g_343>
   1626b:	0f b7 05 b6 f4 00 00 	movzwl 0xf4b6(%rip),%eax        # 25728 <g_343>
   16272:	66 83 f8 f4          	cmp    $0xfff4,%ax
   16276:	0f 8c 43 fe ff ff    	jl     160bf <func_13+0x378e>
   1627c:	8b 85 68 e0 ff ff    	mov    -0x1f98(%rbp),%eax
   16282:	98                   	cwtl   
   16283:	be 02 00 00 00       	mov    $0x2,%esi
   16288:	89 c7                	mov    %eax,%edi
   1628a:	e8 24 41 ff ff       	callq  a3b3 <safe_add_func_int16_t_s_s>
   1628f:	98                   	cwtl   
   16290:	89 85 68 e0 ff ff    	mov    %eax,-0x1f98(%rbp)
   16296:	8b 85 68 e0 ff ff    	mov    -0x1f98(%rbp),%eax
   1629c:	83 f8 01             	cmp    $0x1,%eax
   1629f:	0f 8e a8 fc ff ff    	jle    15f4d <func_13+0x361c>
   162a5:	eb 1b                	jmp    162c2 <func_13+0x3991>
   162a7:	90                   	nop
   162a8:	e9 17 c8 ff ff       	jmpq   12ac4 <func_13+0x193>
   162ad:	90                   	nop
   162ae:	e9 11 c8 ff ff       	jmpq   12ac4 <func_13+0x193>
   162b3:	8b 85 4c e0 ff ff    	mov    -0x1fb4(%rbp),%eax
   162b9:	89 85 78 e0 ff ff    	mov    %eax,-0x1f88(%rbp)
   162bf:	eb 01                	jmp    162c2 <func_13+0x3991>
   162c1:	90                   	nop
   162c2:	48 8b 05 67 d6 00 00 	mov    0xd667(%rip),%rax        # 23930 <g_495>
   162c9:	48 8b 00             	mov    (%rax),%rax
   162cc:	48 8b 00             	mov    (%rax),%rax
   162cf:	48 85 c0             	test   %rax,%rax
   162d2:	0f 85 83 00 00 00    	jne    1635b <func_13+0x3a2a>
   162d8:	80 a5 57 e0 ff ff 01 	andb   $0x1,-0x1fa9(%rbp)
   162df:	80 bd 57 e0 ff ff 00 	cmpb   $0x0,-0x1fa9(%rbp)
   162e6:	75 52                	jne    1633a <func_13+0x3a09>
   162e8:	48 83 bd 68 e1 ff ff 	cmpq   $0x0,-0x1e98(%rbp)
   162ef:	00 
   162f0:	0f 95 c0             	setne  %al
   162f3:	0f b6 d0             	movzbl %al,%edx
   162f6:	48 83 bd 70 e1 ff ff 	cmpq   $0x0,-0x1e90(%rbp)
   162fd:	00 
   162fe:	0f 95 c0             	setne  %al
   16301:	0f b6 c0             	movzbl %al,%eax
   16304:	39 c2                	cmp    %eax,%edx
   16306:	48 be b3 a4 85 ff 62 	movabs $0xb4059262ff85a4b3,%rsi
   1630d:	92 05 b4 
   16310:	bf 01 00 00 00       	mov    $0x1,%edi
   16315:	e8 8e 45 ff ff       	callq  a8a8 <safe_sub_func_int64_t_s_s>
   1631a:	0f be d0             	movsbl %al,%edx
   1631d:	8b 85 4c e0 ff ff    	mov    -0x1fb4(%rbp),%eax
   16323:	0f be c0             	movsbl %al,%eax
   16326:	89 d6                	mov    %edx,%esi
   16328:	89 c7                	mov    %eax,%edi
   1632a:	e8 e3 3e ff ff       	callq  a212 <safe_mul_func_int8_t_s_s>
   1632f:	84 c0                	test   %al,%al
   16331:	74 07                	je     1633a <func_13+0x3a09>
   16333:	b8 01 00 00 00       	mov    $0x1,%eax
   16338:	eb 05                	jmp    1633f <func_13+0x3a0e>
   1633a:	b8 00 00 00 00       	mov    $0x0,%eax
   1633f:	3b 85 4c e0 ff ff    	cmp    -0x1fb4(%rbp),%eax
   16345:	0f 9e c0             	setle  %al
   16348:	0f b6 c0             	movzbl %al,%eax
   1634b:	89 85 68 e0 ff ff    	mov    %eax,-0x1f98(%rbp)
   16351:	8b 85 68 e0 ff ff    	mov    -0x1f98(%rbp),%eax
   16357:	85 c0                	test   %eax,%eax
   16359:	74 07                	je     16362 <func_13+0x3a31>
   1635b:	ba 01 00 00 00       	mov    $0x1,%edx
   16360:	eb 05                	jmp    16367 <func_13+0x3a36>
   16362:	ba 00 00 00 00       	mov    $0x0,%edx
   16367:	0f be 85 54 e0 ff ff 	movsbl -0x1fac(%rbp),%eax
   1636e:	89 d6                	mov    %edx,%esi
   16370:	89 c7                	mov    %eax,%edi
   16372:	e8 55 43 ff ff       	callq  a6cc <safe_mod_func_int32_t_s_s>
   16377:	85 c0                	test   %eax,%eax
   16379:	75 0a                	jne    16385 <func_13+0x3a54>
   1637b:	48 83 bd 98 e1 ff ff 	cmpq   $0x0,-0x1e68(%rbp)
   16382:	00 
   16383:	74 07                	je     1638c <func_13+0x3a5b>
   16385:	b8 01 00 00 00       	mov    $0x1,%eax
   1638a:	eb 05                	jmp    16391 <func_13+0x3a60>
   1638c:	b8 00 00 00 00       	mov    $0x0,%eax
   16391:	be 00 00 00 00       	mov    $0x0,%esi
   16396:	89 c7                	mov    %eax,%edi
   16398:	e8 33 4b ff ff       	callq  aed0 <safe_sub_func_uint32_t_u_u>
   1639d:	8b 95 74 e0 ff ff    	mov    -0x1f8c(%rbp),%edx
   163a3:	09 d0                	or     %edx,%eax
   163a5:	89 85 74 e0 ff ff    	mov    %eax,-0x1f8c(%rbp)
   163ab:	48 c7 85 40 e1 ff ff 	movq   $0x0,-0x1ec0(%rbp)
   163b2:	00 00 00 00 
   163b6:	e9 0e 01 00 00       	jmpq   164c9 <func_13+0x3b98>
   163bb:	c6 85 5a e0 ff ff c7 	movb   $0xc7,-0x1fa6(%rbp)
   163c2:	c7 85 c0 e0 ff ff b0 	movl   $0x89349fb0,-0x1f40(%rbp)
   163c9:	9f 34 89 
   163cc:	c7 85 c4 e0 ff ff 00 	movl   $0x0,-0x1f3c(%rbp)
   163d3:	00 00 00 
   163d6:	c7 85 c8 e0 ff ff ff 	movl   $0xffffffff,-0x1f38(%rbp)
   163dd:	ff ff ff 
   163e0:	c7 85 cc e0 ff ff ff 	movl   $0xffffffff,-0x1f34(%rbp)
   163e7:	ff ff ff 
   163ea:	c7 85 98 e0 ff ff ff 	movl   $0xffffffff,-0x1f68(%rbp)
   163f1:	ff ff ff 
   163f4:	c6 85 55 e0 ff ff f2 	movb   $0xf2,-0x1fab(%rbp)
   163fb:	0f b6 85 5a e0 ff ff 	movzbl -0x1fa6(%rbp),%eax
   16402:	83 e8 01             	sub    $0x1,%eax
   16405:	88 85 5a e0 ff ff    	mov    %al,-0x1fa6(%rbp)
   1640b:	c7 85 78 e0 ff ff 03 	movl   $0x3,-0x1f88(%rbp)
   16412:	00 00 00 
   16415:	e9 9a 00 00 00       	jmpq   164b4 <func_13+0x3b83>
   1641a:	48 c7 85 50 f8 ff ff 	movq   $0x0,-0x7b0(%rbp)
   16421:	00 00 00 00 
   16425:	48 c7 85 58 f8 ff ff 	movq   $0x0,-0x7a8(%rbp)
   1642c:	00 00 00 00 
   16430:	48 c7 85 60 f8 ff ff 	movq   $0x0,-0x7a0(%rbp)
   16437:	00 00 00 00 
   1643b:	48 c7 85 68 f8 ff ff 	movq   $0x0,-0x798(%rbp)
   16442:	00 00 00 00 
   16446:	c7 85 70 f8 ff ff 00 	movl   $0x0,-0x790(%rbp)
   1644d:	00 00 00 
   16450:	c6 85 54 e0 ff ff 00 	movb   $0x0,-0x1fac(%rbp)
   16457:	eb 4b                	jmp    164a4 <func_13+0x3b73>
   16459:	c6 85 5b e0 ff ff 08 	movb   $0x8,-0x1fa5(%rbp)
   16460:	66 c7 85 64 e0 ff ff 	movw   $0x8dde,-0x1f9c(%rbp)
   16467:	de 8d 
   16469:	c7 85 d0 e0 ff ff 57 	movl   $0x50e79f57,-0x1f30(%rbp)
   16470:	9f e7 50 
   16473:	c7 85 d4 e0 ff ff f3 	movl   $0x3dc1e8f3,-0x1f2c(%rbp)
   1647a:	e8 c1 3d 
   1647d:	83 85 98 e0 ff ff 01 	addl   $0x1,-0x1f68(%rbp)
   16484:	0f b6 85 55 e0 ff ff 	movzbl -0x1fab(%rbp),%eax
   1648b:	83 e8 01             	sub    $0x1,%eax
   1648e:	88 85 55 e0 ff ff    	mov    %al,-0x1fab(%rbp)
   16494:	0f b6 85 54 e0 ff ff 	movzbl -0x1fac(%rbp),%eax
   1649b:	83 c0 01             	add    $0x1,%eax
   1649e:	88 85 54 e0 ff ff    	mov    %al,-0x1fac(%rbp)
   164a4:	80 bd 54 e0 ff ff 02 	cmpb   $0x2,-0x1fac(%rbp)
   164ab:	7e ac                	jle    16459 <func_13+0x3b28>
   164ad:	83 ad 78 e0 ff ff 01 	subl   $0x1,-0x1f88(%rbp)
   164b4:	83 bd 78 e0 ff ff 00 	cmpl   $0x0,-0x1f88(%rbp)
   164bb:	0f 89 59 ff ff ff    	jns    1641a <func_13+0x3ae9>
   164c1:	48 83 85 40 e1 ff ff 	addq   $0x1,-0x1ec0(%rbp)
   164c8:	01 
   164c9:	48 83 bd 40 e1 ff ff 	cmpq   $0x3,-0x1ec0(%rbp)
   164d0:	03 
   164d1:	0f 86 e4 fe ff ff    	jbe    163bb <func_13+0x3a8a>
   164d7:	48 8b 05 6a ab 00 00 	mov    0xab6a(%rip),%rax        # 21048 <g_98>
   164de:	48 83 c0 01          	add    $0x1,%rax
   164e2:	48 89 05 5f ab 00 00 	mov    %rax,0xab5f(%rip)        # 21048 <g_98>
   164e9:	48 8b 05 58 ab 00 00 	mov    0xab58(%rip),%rax        # 21048 <g_98>
   164f0:	48 83 f8 13          	cmp    $0x13,%rax
   164f4:	0f 86 1a cf ff ff    	jbe    13414 <func_13+0xae3>
   164fa:	b8 08 00 00 00       	mov    $0x8,%eax
   164ff:	0f bf d8             	movswl %ax,%ebx
   16502:	44 8b 25 57 ac 00 00 	mov    0xac57(%rip),%r12d        # 21160 <g_622>
   16509:	0f b6 05 54 ac 00 00 	movzbl 0xac54(%rip),%eax        # 21164 <g_658>
   16510:	44 0f be e8          	movsbl %al,%r13d
   16514:	48 8b 85 40 e1 ff ff 	mov    -0x1ec0(%rbp),%rax
   1651b:	48 89 c6             	mov    %rax,%rsi
   1651e:	bf 06 00 00 00       	mov    $0x6,%edi
   16523:	e8 58 4b ff ff       	callq  b080 <safe_mod_func_uint64_t_u_u>
   16528:	0f be 85 54 e0 ff ff 	movsbl -0x1fac(%rbp),%eax
   1652f:	39 85 4c e0 ff ff    	cmp    %eax,-0x1fb4(%rbp)
   16535:	8b 85 4c e0 ff ff    	mov    -0x1fb4(%rbp),%eax
   1653b:	44 89 ee             	mov    %r13d,%esi
   1653e:	89 c7                	mov    %eax,%edi
   16540:	e8 71 40 ff ff       	callq  a5b6 <safe_add_func_int32_t_s_s>
   16545:	98                   	cwtl   
   16546:	8b 95 4c e0 ff ff    	mov    -0x1fb4(%rbp),%edx
   1654c:	89 d6                	mov    %edx,%esi
   1654e:	89 c7                	mov    %eax,%edi
   16550:	e8 3d 3f ff ff       	callq  a492 <safe_lshift_func_int16_t_s_s>
   16555:	66 85 c0             	test   %ax,%ax
   16558:	74 10                	je     1656a <func_13+0x3c39>
   1655a:	83 bd 4c e0 ff ff 00 	cmpl   $0x0,-0x1fb4(%rbp)
   16561:	74 07                	je     1656a <func_13+0x3c39>
   16563:	b8 01 00 00 00       	mov    $0x1,%eax
   16568:	eb 05                	jmp    1656f <func_13+0x3c3e>
   1656a:	b8 00 00 00 00       	mov    $0x0,%eax
   1656f:	0f b7 c0             	movzwl %ax,%eax
   16572:	be 41 51 00 00       	mov    $0x5141,%esi
   16577:	89 c7                	mov    %eax,%edi
   16579:	e8 de 47 ff ff       	callq  ad5c <safe_mod_func_uint16_t_u_u>
   1657e:	0f b7 c0             	movzwl %ax,%eax
   16581:	39 85 4c e0 ff ff    	cmp    %eax,-0x1fb4(%rbp)
   16587:	0f 9d c0             	setge  %al
   1658a:	0f b6 c0             	movzbl %al,%eax
   1658d:	39 85 4c e0 ff ff    	cmp    %eax,-0x1fb4(%rbp)
   16593:	0f 9e c0             	setle  %al
   16596:	0f b6 c0             	movzbl %al,%eax
   16599:	89 c6                	mov    %eax,%esi
   1659b:	bf 00 00 00 00       	mov    $0x0,%edi
   165a0:	e8 b5 45 ff ff       	callq  ab5a <safe_add_func_uint8_t_u_u>
   165a5:	0f b6 c0             	movzbl %al,%eax
   165a8:	44 89 e6             	mov    %r12d,%esi
   165ab:	89 c7                	mov    %eax,%edi
   165ad:	e8 b1 3f ff ff       	callq  a563 <safe_rshift_func_int16_t_s_u>
   165b2:	98                   	cwtl   
   165b3:	25 2a 4e 00 00       	and    $0x4e2a,%eax
   165b8:	89 de                	mov    %ebx,%esi
   165ba:	89 c7                	mov    %eax,%edi
   165bc:	e8 34 3e ff ff       	callq  a3f5 <safe_mul_func_int16_t_s_s>
   165c1:	f7 d0                	not    %eax
   165c3:	98                   	cwtl   
   165c4:	0d c0 bc bb 9a       	or     $0x9abbbcc0,%eax
   165c9:	89 c6                	mov    %eax,%esi
   165cb:	bf 0f 03 00 00       	mov    $0x30f,%edi
   165d0:	e8 8e 3f ff ff       	callq  a563 <safe_rshift_func_int16_t_s_u>
   165d5:	98                   	cwtl   
   165d6:	89 c6                	mov    %eax,%esi
   165d8:	bf cf ff ff ff       	mov    $0xffffffcf,%edi
   165dd:	e8 8a 3d ff ff       	callq  a36c <safe_rshift_func_int8_t_s_u>
   165e2:	48 8b 05 0f ce 00 00 	mov    0xce0f(%rip),%rax        # 233f8 <g_288>
   165e9:	48 8d 95 d4 e2 ff ff 	lea    -0x1d2c(%rbp),%rdx
   165f0:	48 83 c2 04          	add    $0x4,%rdx
   165f4:	48 89 10             	mov    %rdx,(%rax)
   165f7:	48 8b 15 fa cd 00 00 	mov    0xcdfa(%rip),%rdx        # 233f8 <g_288>
   165fe:	48 8b 05 3b d1 00 00 	mov    0xd13b(%rip),%rax        # 23740 <g_376>
   16605:	48 8b 00             	mov    (%rax),%rax
   16608:	48 8b 12             	mov    (%rdx),%rdx
   1660b:	48 89 10             	mov    %rdx,(%rax)
   1660e:	8b 85 dc e2 ff ff    	mov    -0x1d24(%rbp),%eax
   16614:	48 8b 5d d8          	mov    -0x28(%rbp),%rbx
   16618:	64 48 33 1c 25 28 00 	xor    %fs:0x28,%rbx
   1661f:	00 00 
   16621:	74 05                	je     16628 <func_13+0x3cf7>
   16623:	e8 48 3a ff ff       	callq  a070 <__stack_chk_fail@plt>
   16628:	48 81 c4 a0 1f 00 00 	add    $0x1fa0,%rsp
   1662f:	5b                   	pop    %rbx
   16630:	41 5c                	pop    %r12
   16632:	41 5d                	pop    %r13
   16634:	41 5e                	pop    %r14
   16636:	5d                   	pop    %rbp
   16637:	c3                   	retq   

0000000000016638 <func_15>:
   16638:	f3 0f 1e fa          	endbr64 
   1663c:	55                   	push   %rbp
   1663d:	48 89 e5             	mov    %rsp,%rbp
   16640:	41 57                	push   %r15
   16642:	41 56                	push   %r14
   16644:	41 55                	push   %r13
   16646:	41 54                	push   %r12
   16648:	53                   	push   %rbx
   16649:	48 81 ec 00 10 00 00 	sub    $0x1000,%rsp
   16650:	48 83 0c 24 00       	orq    $0x0,(%rsp)
   16655:	48 81 ec 18 02 00 00 	sub    $0x218,%rsp
   1665c:	48 89 bd c8 ed ff ff 	mov    %rdi,-0x1238(%rbp)
   16663:	64 48 8b 04 25 28 00 	mov    %fs:0x28,%rax
   1666a:	00 00 
   1666c:	48 89 45 c8          	mov    %rax,-0x38(%rbp)
   16670:	31 c0                	xor    %eax,%eax
   16672:	c7 85 00 ee ff ff 05 	movl   $0x5,-0x1200(%rbp)
   16679:	00 00 00 
   1667c:	48 8d 05 85 f0 00 00 	lea    0xf085(%rip),%rax        # 25708 <g_37>
   16683:	48 89 85 70 ee ff ff 	mov    %rax,-0x1190(%rbp)
   1668a:	c7 85 dc ed ff ff 08 	movl   $0x8,-0x1224(%rbp)
   16691:	00 00 00 
   16694:	c7 85 e8 ed ff ff fe 	movl   $0xfffffffe,-0x1218(%rbp)
   1669b:	ff ff ff 
   1669e:	c7 85 04 ee ff ff b8 	movl   $0x2fca3bb8,-0x11fc(%rbp)
   166a5:	3b ca 2f 
   166a8:	c7 85 08 ee ff ff ff 	movl   $0xffffffff,-0x11f8(%rbp)
   166af:	ff ff ff 
   166b2:	48 8d 85 90 f0 ff ff 	lea    -0xf70(%rbp),%rax
   166b9:	48 8d 15 c0 68 00 00 	lea    0x68c0(%rip),%rdx        # 1cf80 <g_953+0xec0>
   166c0:	b9 6c 00 00 00       	mov    $0x6c,%ecx
   166c5:	48 89 c7             	mov    %rax,%rdi
   166c8:	48 89 d6             	mov    %rdx,%rsi
   166cb:	f3 48 a5             	rep movsq %ds:(%rsi),%es:(%rdi)
   166ce:	c7 85 a0 ef ff ff ff 	movl   $0xffffffff,-0x1060(%rbp)
   166d5:	ff ff ff 
   166d8:	c7 85 a4 ef ff ff ff 	movl   $0xffffffff,-0x105c(%rbp)
   166df:	ff ff ff 
   166e2:	c7 85 a8 ef ff ff ff 	movl   $0xffffffff,-0x1058(%rbp)
   166e9:	ff ff ff 
   166ec:	c7 85 ac ef ff ff ff 	movl   $0xffffffff,-0x1054(%rbp)
   166f3:	ff ff ff 
   166f6:	c7 85 b0 ef ff ff ff 	movl   $0xffffffff,-0x1050(%rbp)
   166fd:	ff ff ff 
   16700:	c7 85 b4 ef ff ff ff 	movl   $0xffffffff,-0x104c(%rbp)
   16707:	ff ff ff 
   1670a:	c7 85 b8 ef ff ff ff 	movl   $0xffffffff,-0x1048(%rbp)
   16711:	ff ff ff 
   16714:	c7 85 bc ef ff ff ff 	movl   $0xffffffff,-0x1044(%rbp)
   1671b:	ff ff ff 
   1671e:	c7 85 c0 ef ff ff ff 	movl   $0xffffffff,-0x1040(%rbp)
   16725:	ff ff ff 
   16728:	c7 85 c4 ef ff ff ff 	movl   $0xffffffff,-0x103c(%rbp)
   1672f:	ff ff ff 
   16732:	c7 85 c8 ef ff ff ff 	movl   $0xffffffff,-0x1038(%rbp)
   16739:	ff ff ff 
   1673c:	c7 85 cc ef ff ff ff 	movl   $0xffffffff,-0x1034(%rbp)
   16743:	ff ff ff 
   16746:	c7 85 d0 ef ff ff ff 	movl   $0xffffffff,-0x1030(%rbp)
   1674d:	ff ff ff 
   16750:	c7 85 d4 ef ff ff ff 	movl   $0xffffffff,-0x102c(%rbp)
   16757:	ff ff ff 
   1675a:	c7 85 d8 ef ff ff ff 	movl   $0xffffffff,-0x1028(%rbp)
   16761:	ff ff ff 
   16764:	c7 85 dc ef ff ff ff 	movl   $0xffffffff,-0x1024(%rbp)
   1676b:	ff ff ff 
   1676e:	c7 85 e0 ef ff ff ff 	movl   $0xffffffff,-0x1020(%rbp)
   16775:	ff ff ff 
   16778:	c7 85 e4 ef ff ff ff 	movl   $0xffffffff,-0x101c(%rbp)
   1677f:	ff ff ff 
   16782:	c7 85 e8 ef ff ff ff 	movl   $0xffffffff,-0x1018(%rbp)
   16789:	ff ff ff 
   1678c:	c7 85 ec ef ff ff ff 	movl   $0xffffffff,-0x1014(%rbp)
   16793:	ff ff ff 
   16796:	48 c7 85 38 ee ff ff 	movq   $0x0,-0x11c8(%rbp)
   1679d:	00 00 00 00 
   167a1:	48 8d 05 b6 a9 00 00 	lea    0xa9b6(%rip),%rax        # 2115e <g_588>
   167a8:	48 89 85 78 ee ff ff 	mov    %rax,-0x1188(%rbp)
   167af:	0f b7 05 72 ef 00 00 	movzwl 0xef72(%rip),%eax        # 25728 <g_343>
   167b6:	44 0f bf f8          	movswl %ax,%r15d
   167ba:	8b 05 60 a9 00 00    	mov    0xa960(%rip),%eax        # 21120 <g_354+0x40>
   167c0:	44 0f b6 e0          	movzbl %al,%r12d
   167c4:	8b 9d 00 ee ff ff    	mov    -0x1200(%rbp),%ebx
   167ca:	48 8b 85 c8 ed ff ff 	mov    -0x1238(%rbp),%rax
   167d1:	0f be c0             	movsbl %al,%eax
   167d4:	89 85 c0 ed ff ff    	mov    %eax,-0x1240(%rbp)
   167da:	44 8b b5 00 ee ff ff 	mov    -0x1200(%rbp),%r14d
   167e1:	48 8b 85 c8 ed ff ff 	mov    -0x1238(%rbp),%rax
   167e8:	0f b6 d0             	movzbl %al,%edx
   167eb:	8b 85 00 ee ff ff    	mov    -0x1200(%rbp),%eax
   167f1:	0f b6 c0             	movzbl %al,%eax
   167f4:	89 d6                	mov    %edx,%esi
   167f6:	89 c7                	mov    %eax,%edi
   167f8:	e8 de 43 ff ff       	callq  abdb <safe_div_func_uint8_t_u_u>
   167fd:	0f b6 c0             	movzbl %al,%eax
   16800:	89 85 dc ed ff ff    	mov    %eax,-0x1224(%rbp)
   16806:	44 8b ad dc ed ff ff 	mov    -0x1224(%rbp),%r13d
   1680d:	48 8b 85 70 ee ff ff 	mov    -0x1190(%rbp),%rax
   16814:	66 c7 00 50 91       	movw   $0x9150,(%rax)
   16819:	8b 05 21 a8 00 00    	mov    0xa821(%rip),%eax        # 21040 <g_9>
   1681f:	89 c2                	mov    %eax,%edx
   16821:	8b 85 00 ee ff ff    	mov    -0x1200(%rbp),%eax
   16827:	0f b7 c0             	movzwl %ax,%eax
   1682a:	89 d6                	mov    %edx,%esi
   1682c:	89 c7                	mov    %eax,%edi
   1682e:	e8 d3 45 ff ff       	callq  ae06 <safe_lshift_func_uint16_t_u_u>
   16833:	83 bd 00 ee ff ff 00 	cmpl   $0x0,-0x1200(%rbp)
   1683a:	0f 95 c0             	setne  %al
   1683d:	0f b6 c0             	movzbl %al,%eax
   16840:	89 c7                	mov    %eax,%edi
   16842:	e8 9d 27 00 00       	callq  18fe4 <func_31>
   16847:	8b 15 f3 a7 00 00    	mov    0xa7f3(%rip),%edx        # 21040 <g_9>
   1684d:	89 c6                	mov    %eax,%esi
   1684f:	89 d7                	mov    %edx,%edi
   16851:	e8 cf 46 ff ff       	callq  af25 <safe_div_func_uint32_t_u_u>
   16856:	0f bf f0             	movswl %ax,%esi
   16859:	48 8b 85 c8 ed ff ff 	mov    -0x1238(%rbp),%rax
   16860:	0f b6 c0             	movzbl %al,%eax
   16863:	44 8b 85 c0 ed ff ff 	mov    -0x1240(%rbp),%r8d
   1686a:	44 89 f1             	mov    %r14d,%ecx
   1686d:	44 89 ea             	mov    %r13d,%edx
   16870:	89 c7                	mov    %eax,%edi
   16872:	e8 f1 26 00 00       	callq  18f68 <func_23>
   16877:	0f b7 c0             	movzwl %ax,%eax
   1687a:	89 05 44 a8 00 00    	mov    %eax,0xa844(%rip)        # 210c4 <g_353>
   16880:	8b 05 3e a8 00 00    	mov    0xa83e(%rip),%eax        # 210c4 <g_353>
   16886:	0f b7 c0             	movzwl %ax,%eax
   16889:	48 8b 95 c8 ed ff ff 	mov    -0x1238(%rbp),%rdx
   16890:	89 d7                	mov    %edx,%edi
   16892:	45 89 f8             	mov    %r15d,%r8d
   16895:	44 89 e1             	mov    %r12d,%ecx
   16898:	48 89 da             	mov    %rbx,%rdx
   1689b:	89 c6                	mov    %eax,%esi
   1689d:	e8 b2 0c 00 00       	callq  17554 <func_17>
   168a2:	48 8b 05 7f d0 00 00 	mov    0xd07f(%rip),%rax        # 23928 <g_496>
   168a9:	48 8b 00             	mov    (%rax),%rax
   168ac:	48 83 bd c8 ed ff ff 	cmpq   $0x0,-0x1238(%rbp)
   168b3:	00 
   168b4:	74 7f                	je     16935 <func_15+0x2fd>
   168b6:	48 8d 05 a7 a7 00 00 	lea    0xa7a7(%rip),%rax        # 21064 <g_108+0x4>
   168bd:	48 89 85 e0 ee ff ff 	mov    %rax,-0x1120(%rbp)
   168c4:	48 8d 05 9d a7 00 00 	lea    0xa79d(%rip),%rax        # 21068 <g_108+0x8>
   168cb:	48 89 85 e8 ee ff ff 	mov    %rax,-0x1118(%rbp)
   168d2:	48 8d 05 87 a7 00 00 	lea    0xa787(%rip),%rax        # 21060 <g_108>
   168d9:	48 89 85 40 fb ff ff 	mov    %rax,-0x4c0(%rbp)
   168e0:	48 8d 05 79 a7 00 00 	lea    0xa779(%rip),%rax        # 21060 <g_108>
   168e7:	48 89 85 48 fb ff ff 	mov    %rax,-0x4b8(%rbp)
   168ee:	48 8d 05 6b a7 00 00 	lea    0xa76b(%rip),%rax        # 21060 <g_108>
   168f5:	48 89 85 50 fb ff ff 	mov    %rax,-0x4b0(%rbp)
   168fc:	48 8d 05 5d a7 00 00 	lea    0xa75d(%rip),%rax        # 21060 <g_108>
   16903:	48 89 85 58 fb ff ff 	mov    %rax,-0x4a8(%rbp)
   1690a:	48 8d 05 4f a7 00 00 	lea    0xa74f(%rip),%rax        # 21060 <g_108>
   16911:	48 89 85 60 fb ff ff 	mov    %rax,-0x4a0(%rbp)
   16918:	c6 85 d7 ed ff ff fc 	movb   $0xfc,-0x1229(%rbp)
   1691f:	c7 85 34 ee ff ff 5b 	movl   $0x683b5c5b,-0x11cc(%rbp)
   16926:	5c 3b 68 
   16929:	83 ad 34 ee ff ff 01 	subl   $0x1,-0x11cc(%rbp)
   16930:	e9 ef 0b 00 00       	jmpq   17524 <func_15+0xeec>
   16935:	48 c7 85 60 ee ff ff 	movq   $0x6,-0x11a0(%rbp)
   1693c:	06 00 00 00 
   16940:	c7 85 e4 ed ff ff a7 	movl   $0x1dd40ba7,-0x121c(%rbp)
   16947:	0b d4 1d 
   1694a:	48 8d 85 40 fb ff ff 	lea    -0x4c0(%rbp),%rax
   16951:	48 8d 15 88 69 00 00 	lea    0x6988(%rip),%rdx        # 1d2e0 <g_953+0x1220>
   16958:	b9 90 00 00 00       	mov    $0x90,%ecx
   1695d:	48 89 c7             	mov    %rax,%rdi
   16960:	48 89 d6             	mov    %rdx,%rsi
   16963:	f3 48 a5             	rep movsq %ds:(%rsi),%es:(%rdi)
   16966:	c7 85 f0 ef ff ff 08 	movl   $0x8,-0x1010(%rbp)
   1696d:	00 00 00 
   16970:	c7 85 f4 ef ff ff b0 	movl   $0x521be6b0,-0x100c(%rbp)
   16977:	e6 1b 52 
   1697a:	c7 85 f8 ef ff ff 87 	movl   $0xdf1d5a87,-0x1008(%rbp)
   16981:	5a 1d df 
   16984:	c7 85 fc ef ff ff b0 	movl   $0x521be6b0,-0x1004(%rbp)
   1698b:	e6 1b 52 
   1698e:	c7 85 00 f0 ff ff 08 	movl   $0x8,-0x1000(%rbp)
   16995:	00 00 00 
   16998:	c7 85 04 f0 ff ff b0 	movl   $0x521be6b0,-0xffc(%rbp)
   1699f:	e6 1b 52 
   169a2:	c7 85 08 f0 ff ff 87 	movl   $0xdf1d5a87,-0xff8(%rbp)
   169a9:	5a 1d df 
   169ac:	c7 85 0c f0 ff ff b0 	movl   $0x521be6b0,-0xff4(%rbp)
   169b3:	e6 1b 52 
   169b6:	c7 85 10 f0 ff ff 08 	movl   $0x8,-0xff0(%rbp)
   169bd:	00 00 00 
   169c0:	c7 85 14 f0 ff ff b0 	movl   $0x521be6b0,-0xfec(%rbp)
   169c7:	e6 1b 52 
   169ca:	c7 85 18 f0 ff ff 08 	movl   $0x8,-0xfe8(%rbp)
   169d1:	00 00 00 
   169d4:	c7 85 1c f0 ff ff b0 	movl   $0x521be6b0,-0xfe4(%rbp)
   169db:	e6 1b 52 
   169de:	c7 85 20 f0 ff ff 08 	movl   $0x8,-0xfe0(%rbp)
   169e5:	00 00 00 
   169e8:	c7 85 24 f0 ff ff bb 	movl   $0xf1028ebb,-0xfdc(%rbp)
   169ef:	8e 02 f1 
   169f2:	c7 85 28 f0 ff ff 08 	movl   $0x8,-0xfd8(%rbp)
   169f9:	00 00 00 
   169fc:	c7 85 2c f0 ff ff b0 	movl   $0x521be6b0,-0xfd4(%rbp)
   16a03:	e6 1b 52 
   16a06:	c7 85 30 f0 ff ff 08 	movl   $0x8,-0xfd0(%rbp)
   16a0d:	00 00 00 
   16a10:	c7 85 34 f0 ff ff bb 	movl   $0xf1028ebb,-0xfcc(%rbp)
   16a17:	8e 02 f1 
   16a1a:	c7 85 38 f0 ff ff 08 	movl   $0x8,-0xfc8(%rbp)
   16a21:	00 00 00 
   16a24:	c7 85 3c f0 ff ff b0 	movl   $0x521be6b0,-0xfc4(%rbp)
   16a2b:	e6 1b 52 
   16a2e:	c7 85 40 f0 ff ff 08 	movl   $0x8,-0xfc0(%rbp)
   16a35:	00 00 00 
   16a38:	c7 85 44 f0 ff ff bb 	movl   $0xf1028ebb,-0xfbc(%rbp)
   16a3f:	8e 02 f1 
   16a42:	c7 85 48 f0 ff ff 87 	movl   $0xdf1d5a87,-0xfb8(%rbp)
   16a49:	5a 1d df 
   16a4c:	c7 85 4c f0 ff ff bb 	movl   $0xf1028ebb,-0xfb4(%rbp)
   16a53:	8e 02 f1 
   16a56:	c7 85 50 f0 ff ff 08 	movl   $0x8,-0xfb0(%rbp)
   16a5d:	00 00 00 
   16a60:	c7 85 54 f0 ff ff bb 	movl   $0xf1028ebb,-0xfac(%rbp)
   16a67:	8e 02 f1 
   16a6a:	c7 85 58 f0 ff ff 87 	movl   $0xdf1d5a87,-0xfa8(%rbp)
   16a71:	5a 1d df 
   16a74:	c7 85 5c f0 ff ff bb 	movl   $0xf1028ebb,-0xfa4(%rbp)
   16a7b:	8e 02 f1 
   16a7e:	c7 85 60 f0 ff ff 08 	movl   $0x8,-0xfa0(%rbp)
   16a85:	00 00 00 
   16a88:	c7 85 64 f0 ff ff bb 	movl   $0xf1028ebb,-0xf9c(%rbp)
   16a8f:	8e 02 f1 
   16a92:	c7 85 68 f0 ff ff 08 	movl   $0x8,-0xf98(%rbp)
   16a99:	00 00 00 
   16a9c:	c7 85 6c f0 ff ff bb 	movl   $0xf1028ebb,-0xf94(%rbp)
   16aa3:	8e 02 f1 
   16aa6:	c7 85 70 f0 ff ff 08 	movl   $0x8,-0xf90(%rbp)
   16aad:	00 00 00 
   16ab0:	c7 85 74 f0 ff ff b0 	movl   $0x521be6b0,-0xf8c(%rbp)
   16ab7:	e6 1b 52 
   16aba:	c7 85 78 f0 ff ff 08 	movl   $0x8,-0xf88(%rbp)
   16ac1:	00 00 00 
   16ac4:	c7 85 7c f0 ff ff bb 	movl   $0xf1028ebb,-0xf84(%rbp)
   16acb:	8e 02 f1 
   16ace:	c7 85 80 f0 ff ff 08 	movl   $0x8,-0xf80(%rbp)
   16ad5:	00 00 00 
   16ad8:	c7 85 84 f0 ff ff b0 	movl   $0x521be6b0,-0xf7c(%rbp)
   16adf:	e6 1b 52 
   16ae2:	c7 85 88 f0 ff ff 08 	movl   $0x8,-0xf78(%rbp)
   16ae9:	00 00 00 
   16aec:	c7 85 8c f0 ff ff bb 	movl   $0xf1028ebb,-0xf74(%rbp)
   16af3:	8e 02 f1 
   16af6:	48 8d 85 40 fb ff ff 	lea    -0x4c0(%rbp),%rax
   16afd:	48 05 50 02 00 00    	add    $0x250,%rax
   16b03:	48 89 85 40 ee ff ff 	mov    %rax,-0x11c0(%rbp)
   16b0a:	48 8d 85 40 ee ff ff 	lea    -0x11c0(%rbp),%rax
   16b11:	48 89 85 48 ee ff ff 	mov    %rax,-0x11b8(%rbp)
   16b18:	48 8d 85 48 ee ff ff 	lea    -0x11b8(%rbp),%rax
   16b1f:	48 89 85 80 ee ff ff 	mov    %rax,-0x1180(%rbp)
   16b26:	48 8d 05 33 a6 00 00 	lea    0xa633(%rip),%rax        # 21160 <g_622>
   16b2d:	48 89 85 88 ee ff ff 	mov    %rax,-0x1178(%rbp)
   16b34:	48 8d 05 23 a6 00 00 	lea    0xa623(%rip),%rax        # 2115e <g_588>
   16b3b:	48 89 85 60 ef ff ff 	mov    %rax,-0x10a0(%rbp)
   16b42:	48 8d 05 15 a6 00 00 	lea    0xa615(%rip),%rax        # 2115e <g_588>
   16b49:	48 89 85 68 ef ff ff 	mov    %rax,-0x1098(%rbp)
   16b50:	48 8d 05 07 a6 00 00 	lea    0xa607(%rip),%rax        # 2115e <g_588>
   16b57:	48 89 85 70 ef ff ff 	mov    %rax,-0x1090(%rbp)
   16b5e:	48 8d 05 f9 a5 00 00 	lea    0xa5f9(%rip),%rax        # 2115e <g_588>
   16b65:	48 89 85 78 ef ff ff 	mov    %rax,-0x1088(%rbp)
   16b6c:	48 8d 05 eb a5 00 00 	lea    0xa5eb(%rip),%rax        # 2115e <g_588>
   16b73:	48 89 85 80 ef ff ff 	mov    %rax,-0x1080(%rbp)
   16b7a:	48 8d 05 dd a5 00 00 	lea    0xa5dd(%rip),%rax        # 2115e <g_588>
   16b81:	48 89 85 88 ef ff ff 	mov    %rax,-0x1078(%rbp)
   16b88:	48 8d 05 cf a5 00 00 	lea    0xa5cf(%rip),%rax        # 2115e <g_588>
   16b8f:	48 89 85 90 ef ff ff 	mov    %rax,-0x1070(%rbp)
   16b96:	48 8d 05 c1 a5 00 00 	lea    0xa5c1(%rip),%rax        # 2115e <g_588>
   16b9d:	48 89 85 98 ef ff ff 	mov    %rax,-0x1068(%rbp)
   16ba4:	c7 85 ec ed ff ff 00 	movl   $0x0,-0x1214(%rbp)
   16bab:	00 00 00 
   16bae:	eb 1a                	jmp    16bca <func_15+0x592>
   16bb0:	8b 85 ec ed ff ff    	mov    -0x1214(%rbp),%eax
   16bb6:	48 98                	cltq   
   16bb8:	c7 84 85 f8 ee ff ff 	movl   $0x0,-0x1108(%rbp,%rax,4)
   16bbf:	00 00 00 00 
   16bc3:	83 85 ec ed ff ff 01 	addl   $0x1,-0x1214(%rbp)
   16bca:	83 bd ec ed ff ff 01 	cmpl   $0x1,-0x1214(%rbp)
   16bd1:	7e dd                	jle    16bb0 <func_15+0x578>
   16bd3:	c7 85 e8 ed ff ff 00 	movl   $0x0,-0x1218(%rbp)
   16bda:	00 00 00 
   16bdd:	e9 05 08 00 00       	jmpq   173e7 <func_15+0xdaf>
   16be2:	66 c7 85 d8 ed ff ff 	movw   $0x8e81,-0x1228(%rbp)
   16be9:	81 8e 
   16beb:	48 c7 85 90 ee ff ff 	movq   $0x0,-0x1170(%rbp)
   16bf2:	00 00 00 00 
   16bf6:	48 8d 85 80 f7 ff ff 	lea    -0x880(%rbp),%rax
   16bfd:	48 8d 15 3c bc 00 00 	lea    0xbc3c(%rip),%rdx        # 22840 <g_2844+0x14c6>
   16c04:	b9 78 00 00 00       	mov    $0x78,%ecx
   16c09:	48 89 c7             	mov    %rax,%rdi
   16c0c:	48 89 d6             	mov    %rdx,%rsi
   16c0f:	f3 48 a5             	rep movsq %ds:(%rsi),%es:(%rdi)
   16c12:	48 8d 85 38 ee ff ff 	lea    -0x11c8(%rbp),%rax
   16c19:	48 89 85 98 ee ff ff 	mov    %rax,-0x1168(%rbp)
   16c20:	c7 85 f0 ed ff ff 56 	movl   $0x52184256,-0x1210(%rbp)
   16c27:	42 18 52 
   16c2a:	c6 85 d6 ed ff ff 3f 	movb   $0x3f,-0x122a(%rbp)
   16c31:	48 8d 85 80 f7 ff ff 	lea    -0x880(%rbp),%rax
   16c38:	48 05 c8 02 00 00    	add    $0x2c8,%rax
   16c3e:	48 89 85 50 ee ff ff 	mov    %rax,-0x11b0(%rbp)
   16c45:	c7 85 0c ee ff ff ff 	movl   $0xffffffff,-0x11f4(%rbp)
   16c4c:	ff ff ff 
   16c4f:	c7 85 10 ee ff ff ff 	movl   $0xffffffff,-0x11f0(%rbp)
   16c56:	ff ff ff 
   16c59:	c7 85 14 ee ff ff 04 	movl   $0x4,-0x11ec(%rbp)
   16c60:	00 00 00 
   16c63:	48 8d 85 f0 f3 ff ff 	lea    -0xc10(%rbp),%rax
   16c6a:	48 8d 15 ef 6a 00 00 	lea    0x6aef(%rip),%rdx        # 1d760 <g_953+0x16a0>
   16c71:	b9 70 00 00 00       	mov    $0x70,%ecx
   16c76:	48 89 c7             	mov    %rax,%rdi
   16c79:	48 89 d6             	mov    %rdx,%rsi
   16c7c:	f3 48 a5             	rep movsq %ds:(%rsi),%es:(%rdi)
   16c7f:	48 89 f2             	mov    %rsi,%rdx
   16c82:	48 89 f8             	mov    %rdi,%rax
   16c85:	8b 0a                	mov    (%rdx),%ecx
   16c87:	89 08                	mov    %ecx,(%rax)
   16c89:	c7 85 18 ee ff ff e6 	movl   $0xc21b3ae6,-0x11e8(%rbp)
   16c90:	3a 1b c2 
   16c93:	66 c7 05 6c ea 00 00 	movw   $0x2,0xea6c(%rip)        # 25708 <g_37>
   16c9a:	02 00 
   16c9c:	90                   	nop
   16c9d:	0f b7 05 64 ea 00 00 	movzwl 0xea64(%rip),%eax        # 25708 <g_37>
   16ca4:	66 83 f8 06          	cmp    $0x6,%ax
   16ca8:	7f 22                	jg     16ccc <func_15+0x694>
   16caa:	0f b7 05 57 ea 00 00 	movzwl 0xea57(%rip),%eax        # 25708 <g_37>
   16cb1:	98                   	cwtl   
   16cb2:	48 98                	cltq   
   16cb4:	48 8d 14 c5 00 00 00 	lea    0x0(,%rax,8),%rdx
   16cbb:	00 
   16cbc:	48 8d 05 bd a3 00 00 	lea    0xa3bd(%rip),%rax        # 21080 <g_254>
   16cc3:	48 8b 04 02          	mov    (%rdx,%rax,1),%rax
   16cc7:	e9 62 08 00 00       	jmpq   1752e <func_15+0xef6>
   16ccc:	0f b7 85 d8 ed ff ff 	movzwl -0x1228(%rbp),%eax
   16cd3:	89 c6                	mov    %eax,%esi
   16cd5:	bf 00 00 00 00       	mov    $0x0,%edi
   16cda:	e8 20 3a ff ff       	callq  a6ff <safe_div_func_int32_t_s_s>
   16cdf:	48 98                	cltq   
   16ce1:	48 09 85 60 ee ff ff 	or     %rax,-0x11a0(%rbp)
   16ce8:	48 c7 85 48 fa ff ff 	movq   $0x0,-0x5b8(%rbp)
   16cef:	00 00 00 00 
   16cf3:	48 8b 95 38 ee ff ff 	mov    -0x11c8(%rbp),%rdx
   16cfa:	48 8b 85 98 ee ff ff 	mov    -0x1168(%rbp),%rax
   16d01:	48 89 10             	mov    %rdx,(%rax)
   16d04:	48 8b 85 98 ee ff ff 	mov    -0x1168(%rbp),%rax
   16d0b:	48 8b 00             	mov    (%rax),%rax
   16d0e:	48 85 c0             	test   %rax,%rax
   16d11:	0f 84 28 06 00 00    	je     1733f <func_15+0xd07>
   16d17:	48 b8 f1 82 f3 c0 d5 	movabs $0x275535d5c0f382f1,%rax
   16d1e:	35 55 27 
   16d21:	48 89 85 68 ee ff ff 	mov    %rax,-0x1198(%rbp)
   16d28:	c7 85 e0 ed ff ff ff 	movl   $0xffffffff,-0x1220(%rbp)
   16d2f:	ff ff ff 
   16d32:	c7 85 f4 ed ff ff 04 	movl   $0x4,-0x120c(%rbp)
   16d39:	00 00 00 
   16d3c:	48 c7 85 a8 ee ff ff 	movq   $0x0,-0x1158(%rbp)
   16d43:	00 00 00 00 
   16d47:	48 8d 85 d6 ed ff ff 	lea    -0x122a(%rbp),%rax
   16d4e:	48 89 85 58 ee ff ff 	mov    %rax,-0x11a8(%rbp)
   16d55:	48 8d 85 58 ee ff ff 	lea    -0x11a8(%rbp),%rax
   16d5c:	48 89 85 b0 ee ff ff 	mov    %rax,-0x1150(%rbp)
   16d63:	48 c7 85 20 ef ff ff 	movq   $0x0,-0x10e0(%rbp)
   16d6a:	00 00 00 00 
   16d6e:	48 c7 85 28 ef ff ff 	movq   $0x0,-0x10d8(%rbp)
   16d75:	00 00 00 00 
   16d79:	48 c7 85 30 ef ff ff 	movq   $0x0,-0x10d0(%rbp)
   16d80:	00 00 00 00 
   16d84:	48 c7 85 38 ef ff ff 	movq   $0x0,-0x10c8(%rbp)
   16d8b:	00 00 00 00 
   16d8f:	48 c7 85 40 ef ff ff 	movq   $0x0,-0x10c0(%rbp)
   16d96:	00 00 00 00 
   16d9a:	c7 85 1c ee ff ff 2f 	movl   $0xd6d9232f,-0x11e4(%rbp)
   16da1:	23 d9 d6 
   16da4:	c7 05 b2 a3 00 00 00 	movl   $0x0,0xa3b2(%rip)        # 21160 <g_622>
   16dab:	00 00 00 
   16dae:	e9 d5 02 00 00       	jmpq   17088 <func_15+0xa50>
   16db3:	c7 85 24 ee ff ff 54 	movl   $0x42b4a454,-0x11dc(%rbp)
   16dba:	a4 b4 42 
   16dbd:	c7 85 28 ee ff ff ff 	movl   $0xffffffff,-0x11d8(%rbp)
   16dc4:	ff ff ff 
   16dc7:	48 8d 05 42 c6 00 00 	lea    0xc642(%rip),%rax        # 23410 <g_290>
   16dce:	48 89 85 c0 ee ff ff 	mov    %rax,-0x1140(%rbp)
   16dd5:	48 8d 85 20 ef ff ff 	lea    -0x10e0(%rbp),%rax
   16ddc:	48 89 85 c8 ee ff ff 	mov    %rax,-0x1138(%rbp)
   16de3:	c7 85 f8 ed ff ff 00 	movl   $0x0,-0x1208(%rbp)
   16dea:	00 00 00 
   16ded:	eb 1a                	jmp    16e09 <func_15+0x7d1>
   16def:	8b 85 f8 ed ff ff    	mov    -0x1208(%rbp),%eax
   16df5:	48 98                	cltq   
   16df7:	c7 84 85 00 ef ff ff 	movl   $0x28aeeac5,-0x1100(%rbp,%rax,4)
   16dfe:	c5 ea ae 28 
   16e02:	83 85 f8 ed ff ff 01 	addl   $0x1,-0x1208(%rbp)
   16e09:	83 bd f8 ed ff ff 04 	cmpl   $0x4,-0x1208(%rbp)
   16e10:	7e dd                	jle    16def <func_15+0x7b7>
   16e12:	c6 05 45 a3 00 00 fe 	movb   $0xfe,0xa345(%rip)        # 2115e <g_588>
   16e19:	eb 44                	jmp    16e5f <func_15+0x827>
   16e1b:	81 a5 f0 ed ff ff ca 	andl   $0xa73411ca,-0x1210(%rbp)
   16e22:	11 34 a7 
   16e25:	48 83 ad 68 ee ff ff 	subq   $0x1,-0x1198(%rbp)
   16e2c:	01 
   16e2d:	0f b6 85 d6 ed ff ff 	movzbl -0x122a(%rbp),%eax
   16e34:	84 c0                	test   %al,%al
   16e36:	75 09                	jne    16e41 <func_15+0x809>
   16e38:	83 bd f0 ed ff ff 00 	cmpl   $0x0,-0x1210(%rbp)
   16e3f:	eb 01                	jmp    16e42 <func_15+0x80a>
   16e41:	90                   	nop
   16e42:	0f b6 05 15 a3 00 00 	movzbl 0xa315(%rip),%eax        # 2115e <g_588>
   16e49:	0f b6 c0             	movzbl %al,%eax
   16e4c:	be 01 00 00 00       	mov    $0x1,%esi
   16e51:	48 89 c7             	mov    %rax,%rdi
   16e54:	e8 d5 41 ff ff       	callq  b02e <safe_add_func_uint64_t_u_u>
   16e59:	88 05 ff a2 00 00    	mov    %al,0xa2ff(%rip)        # 2115e <g_588>
   16e5f:	0f b6 05 f8 a2 00 00 	movzbl 0xa2f8(%rip),%eax        # 2115e <g_588>
   16e66:	3c 3b                	cmp    $0x3b,%al
   16e68:	77 b1                	ja     16e1b <func_15+0x7e3>
   16e6a:	0f b6 85 d6 ed ff ff 	movzbl -0x122a(%rbp),%eax
   16e71:	0f b6 c0             	movzbl %al,%eax
   16e74:	09 85 f0 ed ff ff    	or     %eax,-0x1210(%rbp)
   16e7a:	48 c7 85 68 ee ff ff 	movq   $0xb,-0x1198(%rbp)
   16e81:	0b 00 00 00 
   16e85:	e9 d0 01 00 00       	jmpq   1705a <func_15+0xa22>
   16e8a:	48 8d 85 50 ee ff ff 	lea    -0x11b0(%rbp),%rax
   16e91:	48 89 85 d0 ee ff ff 	mov    %rax,-0x1130(%rbp)
   16e98:	c7 85 2c ee ff ff f6 	movl   $0xfffffff6,-0x11d4(%rbp)
   16e9f:	ff ff ff 
   16ea2:	48 8d 85 dc ed ff ff 	lea    -0x1224(%rbp),%rax
   16ea9:	48 89 85 d8 ee ff ff 	mov    %rax,-0x1128(%rbp)
   16eb0:	c7 85 30 ee ff ff ff 	movl   $0xffffffff,-0x11d0(%rbp)
   16eb7:	ff ff ff 
   16eba:	c7 85 fc ed ff ff 00 	movl   $0x0,-0x1204(%rbp)
   16ec1:	00 00 00 
   16ec4:	eb 1e                	jmp    16ee4 <func_15+0x8ac>
   16ec6:	8b 85 fc ed ff ff    	mov    -0x1204(%rbp),%eax
   16ecc:	48 98                	cltq   
   16ece:	48 8d 95 e0 ed ff ff 	lea    -0x1220(%rbp),%rdx
   16ed5:	48 89 94 c5 f0 ee ff 	mov    %rdx,-0x1110(%rbp,%rax,8)
   16edc:	ff 
   16edd:	83 85 fc ed ff ff 01 	addl   $0x1,-0x1204(%rbp)
   16ee4:	83 bd fc ed ff ff 00 	cmpl   $0x0,-0x1204(%rbp)
   16eeb:	7e d9                	jle    16ec6 <func_15+0x88e>
   16eed:	48 8b 05 1c c5 00 00 	mov    0xc51c(%rip),%rax        # 23410 <g_290>
   16ef4:	48 8b 10             	mov    (%rax),%rdx
   16ef7:	0f b6 02             	movzbl (%rdx),%eax
   16efa:	8d 48 ff             	lea    -0x1(%rax),%ecx
   16efd:	88 0a                	mov    %cl,(%rdx)
   16eff:	84 c0                	test   %al,%al
   16f01:	75 27                	jne    16f2a <func_15+0x8f2>
   16f03:	48 8b 95 50 ee ff ff 	mov    -0x11b0(%rbp),%rdx
   16f0a:	48 8b 85 d0 ee ff ff 	mov    -0x1130(%rbp),%rax
   16f11:	48 89 10             	mov    %rdx,(%rax)
   16f14:	48 8b 05 1d ca 00 00 	mov    0xca1d(%rip),%rax        # 23938 <g_494>
   16f1b:	48 8b 00             	mov    (%rax),%rax
   16f1e:	48 8b 05 7b a1 00 00 	mov    0xa17b(%rip),%rax        # 210a0 <g_254+0x20>
   16f25:	48 85 c0             	test   %rax,%rax
   16f28:	74 07                	je     16f31 <func_15+0x8f9>
   16f2a:	ba 01 00 00 00       	mov    $0x1,%edx
   16f2f:	eb 05                	jmp    16f36 <func_15+0x8fe>
   16f31:	ba 00 00 00 00       	mov    $0x0,%edx
   16f36:	48 8b 05 1b ca 00 00 	mov    0xca1b(%rip),%rax        # 23958 <g_723>
   16f3d:	89 10                	mov    %edx,(%rax)
   16f3f:	83 ad e4 ed ff ff 01 	subl   $0x1,-0x121c(%rbp)
   16f46:	66 81 bd d8 ed ff ff 	cmpw   $0xeacf,-0x1228(%rbp)
   16f4d:	cf ea 
   16f4f:	0f 97 c0             	seta   %al
   16f52:	0f b6 c0             	movzbl %al,%eax
   16f55:	48 89 05 ec a0 00 00 	mov    %rax,0xa0ec(%rip)        # 21048 <g_98>
   16f5c:	48 81 bd 68 ee ff ff 	cmpq   $0xf6,-0x1198(%rbp)
   16f63:	f6 00 00 00 
   16f67:	0f 96 c0             	setbe  %al
   16f6a:	0f b6 c0             	movzbl %al,%eax
   16f6d:	39 85 e8 ed ff ff    	cmp    %eax,-0x1218(%rbp)
   16f73:	0f 9d c0             	setge  %al
   16f76:	0f b6 c0             	movzbl %al,%eax
   16f79:	39 85 f4 ed ff ff    	cmp    %eax,-0x120c(%rbp)
   16f7f:	0f 95 c0             	setne  %al
   16f82:	0f b6 d0             	movzbl %al,%edx
   16f85:	8b 85 f0 ed ff ff    	mov    -0x1210(%rbp),%eax
   16f8b:	98                   	cwtl   
   16f8c:	89 d6                	mov    %edx,%esi
   16f8e:	89 c7                	mov    %eax,%edi
   16f90:	e8 60 34 ff ff       	callq  a3f5 <safe_mul_func_int16_t_s_s>
   16f95:	8b 05 29 a1 00 00    	mov    0xa129(%rip),%eax        # 210c4 <g_353>
   16f9b:	0f be c0             	movsbl %al,%eax
   16f9e:	be 09 00 00 00       	mov    $0x9,%esi
   16fa3:	89 c7                	mov    %eax,%edi
   16fa5:	e8 48 32 ff ff       	callq  a1f2 <safe_sub_func_int8_t_s_s>
   16faa:	0f be c0             	movsbl %al,%eax
   16fad:	be 01 00 00 00       	mov    $0x1,%esi
   16fb2:	89 c7                	mov    %eax,%edi
   16fb4:	e8 7c 33 ff ff       	callq  a335 <safe_rshift_func_int8_t_s_s>
   16fb9:	0f be c0             	movsbl %al,%eax
   16fbc:	be a2 9a c7 a9       	mov    $0xa9c79aa2,%esi
   16fc1:	89 c7                	mov    %eax,%edi
   16fc3:	e8 37 37 ff ff       	callq  a6ff <safe_div_func_int32_t_s_s>
   16fc8:	8b 95 04 ef ff ff    	mov    -0x10fc(%rbp),%edx
   16fce:	09 d0                	or     %edx,%eax
   16fd0:	89 85 04 ef ff ff    	mov    %eax,-0x10fc(%rbp)
   16fd6:	8b 85 04 ef ff ff    	mov    -0x10fc(%rbp),%eax
   16fdc:	85 c0                	test   %eax,%eax
   16fde:	74 1e                	je     16ffe <func_15+0x9c6>
   16fe0:	0f b6 85 d5 ef ff ff 	movzbl -0x102b(%rbp),%eax
   16fe7:	84 c0                	test   %al,%al
   16fe9:	74 13                	je     16ffe <func_15+0x9c6>
   16feb:	48 8b 05 c6 a0 00 00 	mov    0xa0c6(%rip),%rax        # 210b8 <g_258>
   16ff2:	48 85 c0             	test   %rax,%rax
   16ff5:	74 07                	je     16ffe <func_15+0x9c6>
   16ff7:	b8 01 00 00 00       	mov    $0x1,%eax
   16ffc:	eb 05                	jmp    17003 <func_15+0x9cb>
   16ffe:	b8 00 00 00 00       	mov    $0x0,%eax
   17003:	48 98                	cltq   
   17005:	48 0b 85 c8 ed ff ff 	or     -0x1238(%rbp),%rax
   1700c:	48 85 c0             	test   %rax,%rax
   1700f:	74 11                	je     17022 <func_15+0x9ea>
   17011:	48 83 bd c8 ed ff ff 	cmpq   $0x0,-0x1238(%rbp)
   17018:	00 
   17019:	74 07                	je     17022 <func_15+0x9ea>
   1701b:	ba 01 00 00 00       	mov    $0x1,%edx
   17020:	eb 05                	jmp    17027 <func_15+0x9ef>
   17022:	ba 00 00 00 00       	mov    $0x0,%edx
   17027:	48 8b 05 da c3 00 00 	mov    0xc3da(%rip),%rax        # 23408 <g_291>
   1702e:	88 10                	mov    %dl,(%rax)
   17030:	0f b6 00             	movzbl (%rax),%eax
   17033:	3c 61                	cmp    $0x61,%al
   17035:	0f 95 c0             	setne  %al
   17038:	0f b6 d0             	movzbl %al,%edx
   1703b:	48 8b 85 d8 ee ff ff 	mov    -0x1128(%rbp),%rax
   17042:	89 10                	mov    %edx,(%rax)
   17044:	48 8b 85 a8 ee ff ff 	mov    -0x1158(%rbp),%rax
   1704b:	48 89 05 36 c9 00 00 	mov    %rax,0xc936(%rip)        # 23988 <g_748+0x28>
   17052:	48 83 85 68 ee ff ff 	addq   $0x1,-0x1198(%rbp)
   17059:	01 
   1705a:	48 83 bd 68 ee ff ff 	cmpq   $0x21,-0x1198(%rbp)
   17061:	21 
   17062:	0f 85 22 fe ff ff    	jne    16e8a <func_15+0x852>
   17068:	48 8b 95 40 ef ff ff 	mov    -0x10c0(%rbp),%rdx
   1706f:	48 8b 85 c8 ee ff ff 	mov    -0x1138(%rbp),%rax
   17076:	48 89 10             	mov    %rdx,(%rax)
   17079:	8b 05 e1 a0 00 00    	mov    0xa0e1(%rip),%eax        # 21160 <g_622>
   1707f:	83 c0 01             	add    $0x1,%eax
   17082:	89 05 d8 a0 00 00    	mov    %eax,0xa0d8(%rip)        # 21160 <g_622>
   17088:	8b 05 d2 a0 00 00    	mov    0xa0d2(%rip),%eax        # 21160 <g_622>
   1708e:	83 f8 35             	cmp    $0x35,%eax
   17091:	0f 86 1c fd ff ff    	jbe    16db3 <func_15+0x77b>
   17097:	48 83 bd c8 ed ff ff 	cmpq   $0x0,-0x1238(%rbp)
   1709e:	00 
   1709f:	0f 85 4f 03 00 00    	jne    173f4 <func_15+0xdbc>
   170a5:	48 8b 05 94 c6 00 00 	mov    0xc694(%rip),%rax        # 23740 <g_376>
   170ac:	48 8b 00             	mov    (%rax),%rax
   170af:	48 8d 95 f8 ee ff ff 	lea    -0x1108(%rbp),%rdx
   170b6:	48 89 10             	mov    %rdx,(%rax)
   170b9:	c7 85 f4 ed ff ff 00 	movl   $0x0,-0x120c(%rbp)
   170c0:	00 00 00 
   170c3:	e9 65 02 00 00       	jmpq   1732d <func_15+0xcf5>
   170c8:	c7 85 20 ee ff ff 5a 	movl   $0xc9aeb05a,-0x11e0(%rbp)
   170cf:	b0 ae c9 
   170d2:	8b 05 ec 9f 00 00    	mov    0x9fec(%rip),%eax        # 210c4 <g_353>
   170d8:	89 c1                	mov    %eax,%ecx
   170da:	8b 85 f4 ed ff ff    	mov    -0x120c(%rbp),%eax
   170e0:	48 98                	cltq   
   170e2:	48 8d 14 c5 00 00 00 	lea    0x0(,%rax,8),%rdx
   170e9:	00 
   170ea:	48 8d 05 af e6 00 00 	lea    0xe6af(%rip),%rax        # 257a0 <g_497>
   170f1:	48 8b 04 02          	mov    (%rdx,%rax,1),%rax
   170f5:	89 ce                	mov    %ecx,%esi
   170f7:	89 c7                	mov    %eax,%edi
   170f9:	e8 ba 3d ff ff       	callq  aeb8 <safe_add_func_uint32_t_u_u>
   170fe:	85 c0                	test   %eax,%eax
   17100:	74 15                	je     17117 <func_15+0xadf>
   17102:	66 c7 85 da ed ff ff 	movw   $0xffff,-0x1226(%rbp)
   17109:	ff ff 
   1710b:	0f b7 85 da ed ff ff 	movzwl -0x1226(%rbp),%eax
   17112:	e9 17 04 00 00       	jmpq   1752e <func_15+0xef6>
   17117:	48 c7 85 b8 ee ff ff 	movq   $0x9,-0x1148(%rbp)
   1711e:	09 00 00 00 
   17122:	48 8b 15 bf c2 00 00 	mov    0xc2bf(%rip),%rdx        # 233e8 <g_200>
   17129:	48 8b 05 10 c6 00 00 	mov    0xc610(%rip),%rax        # 23740 <g_376>
   17130:	48 8b 00             	mov    (%rax),%rax
   17133:	48 8b 12             	mov    (%rdx),%rdx
   17136:	48 89 10             	mov    %rdx,(%rax)
   17139:	48 8b 05 c8 c2 00 00 	mov    0xc2c8(%rip),%rax        # 23408 <g_291>
   17140:	0f b6 00             	movzbl (%rax),%eax
   17143:	0f b6 c0             	movzbl %al,%eax
   17146:	8b 95 f4 ed ff ff    	mov    -0x120c(%rbp),%edx
   1714c:	48 63 d2             	movslq %edx,%rdx
   1714f:	48 8d 0c d5 00 00 00 	lea    0x0(,%rdx,8),%rcx
   17156:	00 
   17157:	48 8d 15 42 e6 00 00 	lea    0xe642(%rip),%rdx        # 257a0 <g_497>
   1715e:	48 8b 0c 11          	mov    (%rcx,%rdx,1),%rcx
   17162:	48 8b 95 c8 ed ff ff 	mov    -0x1238(%rbp),%rdx
   17169:	48 09 ca             	or     %rcx,%rdx
   1716c:	48 39 d0             	cmp    %rdx,%rax
   1716f:	0f 97 c0             	seta   %al
   17172:	0f b6 d8             	movzbl %al,%ebx
   17175:	48 8b 85 c8 ed ff ff 	mov    -0x1238(%rbp),%rax
   1717c:	41 89 c4             	mov    %eax,%r12d
   1717f:	8b 95 f8 ee ff ff    	mov    -0x1108(%rbp),%edx
   17185:	48 8b 85 b8 ee ff ff 	mov    -0x1148(%rbp),%rax
   1718c:	89 c1                	mov    %eax,%ecx
   1718e:	8b 85 20 ee ff ff    	mov    -0x11e0(%rbp),%eax
   17194:	31 c8                	xor    %ecx,%eax
   17196:	89 85 20 ee ff ff    	mov    %eax,-0x11e0(%rbp)
   1719c:	8b 85 20 ee ff ff    	mov    -0x11e0(%rbp),%eax
   171a2:	0f be c0             	movsbl %al,%eax
   171a5:	89 d6                	mov    %edx,%esi
   171a7:	89 c7                	mov    %eax,%edi
   171a9:	e8 87 31 ff ff       	callq  a335 <safe_rshift_func_int8_t_s_s>
   171ae:	0f be d0             	movsbl %al,%edx
   171b1:	48 8b 85 c8 ed ff ff 	mov    -0x1238(%rbp),%rax
   171b8:	98                   	cwtl   
   171b9:	89 d6                	mov    %edx,%esi
   171bb:	89 c7                	mov    %eax,%edi
   171bd:	e8 93 32 ff ff       	callq  a455 <safe_div_func_int16_t_s_s>
   171c2:	66 85 c0             	test   %ax,%ax
   171c5:	0f 95 c0             	setne  %al
   171c8:	89 c2                	mov    %eax,%edx
   171ca:	8b 85 e4 ed ff ff    	mov    -0x121c(%rbp),%eax
   171d0:	21 d0                	and    %edx,%eax
   171d2:	0f b6 d0             	movzbl %al,%edx
   171d5:	48 8b 05 2c c2 00 00 	mov    0xc22c(%rip),%rax        # 23408 <g_291>
   171dc:	0f b6 00             	movzbl (%rax),%eax
   171df:	0f b6 c0             	movzbl %al,%eax
   171e2:	89 d6                	mov    %edx,%esi
   171e4:	89 c7                	mov    %eax,%edi
   171e6:	e8 c3 39 ff ff       	callq  abae <safe_mod_func_uint8_t_u_u>
   171eb:	0f b6 c0             	movzbl %al,%eax
   171ee:	48 89 45 88          	mov    %rax,-0x78(%rbp)
   171f2:	48 8b 45 88          	mov    -0x78(%rbp),%rax
   171f6:	48 89 05 4b 9e 00 00 	mov    %rax,0x9e4b(%rip)        # 21048 <g_98>
   171fd:	48 8b 05 44 9e 00 00 	mov    0x9e44(%rip),%rax        # 21048 <g_98>
   17204:	48 39 85 b8 ee ff ff 	cmp    %rax,-0x1148(%rbp)
   1720b:	8b 15 3f 9e 00 00    	mov    0x9e3f(%rip),%edx        # 21050 <g_99>
   17211:	8b 85 08 ee ff ff    	mov    -0x11f8(%rbp),%eax
   17217:	39 c2                	cmp    %eax,%edx
   17219:	0f 95 c0             	setne  %al
   1721c:	0f b6 c0             	movzbl %al,%eax
   1721f:	be f6 ff 00 00       	mov    $0xfff6,%esi
   17224:	89 c7                	mov    %eax,%edi
   17226:	e8 31 3b ff ff       	callq  ad5c <safe_mod_func_uint16_t_u_u>
   1722b:	98                   	cwtl   
   1722c:	44 89 e6             	mov    %r12d,%esi
   1722f:	89 c7                	mov    %eax,%edi
   17231:	e8 5c 32 ff ff       	callq  a492 <safe_lshift_func_int16_t_s_s>
   17236:	98                   	cwtl   
   17237:	39 c3                	cmp    %eax,%ebx
   17239:	0f 95 c0             	setne  %al
   1723c:	0f b6 c0             	movzbl %al,%eax
   1723f:	48 23 85 c8 ed ff ff 	and    -0x1238(%rbp),%rax
   17246:	48 39 85 c8 ed ff ff 	cmp    %rax,-0x1238(%rbp)
   1724d:	48 8b 95 c8 ed ff ff 	mov    -0x1238(%rbp),%rdx
   17254:	8b 85 30 f0 ff ff    	mov    -0xfd0(%rbp),%eax
   1725a:	09 d0                	or     %edx,%eax
   1725c:	89 85 30 f0 ff ff    	mov    %eax,-0xfd0(%rbp)
   17262:	be 39 06 00 00       	mov    $0x639,%esi
   17267:	bf 01 00 00 00       	mov    $0x1,%edi
   1726c:	e8 eb 3a ff ff       	callq  ad5c <safe_mod_func_uint16_t_u_u>
   17271:	66 3d bc 00          	cmp    $0xbc,%ax
   17275:	8b 85 f4 ed ff ff    	mov    -0x120c(%rbp),%eax
   1727b:	48 98                	cltq   
   1727d:	48 8d 14 c5 00 00 00 	lea    0x0(,%rax,8),%rdx
   17284:	00 
   17285:	48 8d 05 14 e5 00 00 	lea    0xe514(%rip),%rax        # 257a0 <g_497>
   1728c:	48 8b 04 02          	mov    (%rdx,%rax,1),%rax
   17290:	0f be d8             	movsbl %al,%ebx
   17293:	8b 85 08 ee ff ff    	mov    -0x11f8(%rbp),%eax
   17299:	98                   	cwtl   
   1729a:	be 0b 00 00 00       	mov    $0xb,%esi
   1729f:	89 c7                	mov    %eax,%edi
   172a1:	e8 84 32 ff ff       	callq  a52a <safe_rshift_func_int16_t_s_s>
   172a6:	66 85 c0             	test   %ax,%ax
   172a9:	74 11                	je     172bc <func_15+0xc84>
   172ab:	8b 85 70 f2 ff ff    	mov    -0xd90(%rbp),%eax
   172b1:	85 c0                	test   %eax,%eax
   172b3:	74 07                	je     172bc <func_15+0xc84>
   172b5:	b8 01 00 00 00       	mov    $0x1,%eax
   172ba:	eb 05                	jmp    172c1 <func_15+0xc89>
   172bc:	b8 00 00 00 00       	mov    $0x0,%eax
   172c1:	0f be c0             	movsbl %al,%eax
   172c4:	89 de                	mov    %ebx,%esi
   172c6:	89 c7                	mov    %eax,%edi
   172c8:	e8 45 2f ff ff       	callq  a212 <safe_mul_func_int8_t_s_s>
   172cd:	0f be d0             	movsbl %al,%edx
   172d0:	0f b7 85 d8 ed ff ff 	movzwl -0x1228(%rbp),%eax
   172d7:	89 d6                	mov    %edx,%esi
   172d9:	89 c7                	mov    %eax,%edi
   172db:	e8 26 3b ff ff       	callq  ae06 <safe_lshift_func_uint16_t_u_u>
   172e0:	0f b7 c0             	movzwl %ax,%eax
   172e3:	48 39 85 c8 ed ff ff 	cmp    %rax,-0x1238(%rbp)
   172ea:	74 11                	je     172fd <func_15+0xcc5>
   172ec:	48 83 bd c8 ed ff ff 	cmpq   $0x0,-0x1238(%rbp)
   172f3:	00 
   172f4:	74 07                	je     172fd <func_15+0xcc5>
   172f6:	b8 01 00 00 00       	mov    $0x1,%eax
   172fb:	eb 05                	jmp    17302 <func_15+0xcca>
   172fd:	b8 00 00 00 00       	mov    $0x0,%eax
   17302:	48 98                	cltq   
   17304:	48 89 c7             	mov    %rax,%rdi
   17307:	e8 0d 3d ff ff       	callq  b019 <safe_unary_minus_func_uint64_t_u>
   1730c:	48 8b 15 a5 9d 00 00 	mov    0x9da5(%rip),%rdx        # 210b8 <g_258>
   17313:	48 09 d0             	or     %rdx,%rax
   17316:	89 c2                	mov    %eax,%edx
   17318:	8b 85 f0 ed ff ff    	mov    -0x1210(%rbp),%eax
   1731e:	09 d0                	or     %edx,%eax
   17320:	89 85 f0 ed ff ff    	mov    %eax,-0x1210(%rbp)
   17326:	83 85 f4 ed ff ff 01 	addl   $0x1,-0x120c(%rbp)
   1732d:	83 bd f4 ed ff ff 08 	cmpl   $0x8,-0x120c(%rbp)
   17334:	0f 8e 8e fd ff ff    	jle    170c8 <func_15+0xa90>
   1733a:	e9 a1 00 00 00       	jmpq   173e0 <func_15+0xda8>
   1733f:	48 8d 05 7a 9d 00 00 	lea    0x9d7a(%rip),%rax        # 210c0 <g_278>
   17346:	48 89 85 a0 ee ff ff 	mov    %rax,-0x1160(%rbp)
   1734d:	48 8d 85 90 f0 ff ff 	lea    -0xf70(%rbp),%rax
   17354:	48 05 64 02 00 00    	add    $0x264,%rax
   1735a:	48 89 85 20 ef ff ff 	mov    %rax,-0x10e0(%rbp)
   17361:	48 8d 85 90 f0 ff ff 	lea    -0xf70(%rbp),%rax
   17368:	48 05 64 02 00 00    	add    $0x264,%rax
   1736e:	48 89 85 28 ef ff ff 	mov    %rax,-0x10d8(%rbp)
   17375:	48 8d 85 90 f0 ff ff 	lea    -0xf70(%rbp),%rax
   1737c:	48 05 64 02 00 00    	add    $0x264,%rax
   17382:	48 89 85 30 ef ff ff 	mov    %rax,-0x10d0(%rbp)
   17389:	48 8d 85 90 f0 ff ff 	lea    -0xf70(%rbp),%rax
   17390:	48 05 64 02 00 00    	add    $0x264,%rax
   17396:	48 89 85 38 ef ff ff 	mov    %rax,-0x10c8(%rbp)
   1739d:	48 8d 85 90 f0 ff ff 	lea    -0xf70(%rbp),%rax
   173a4:	48 05 64 02 00 00    	add    $0x264,%rax
   173aa:	48 89 85 40 ef ff ff 	mov    %rax,-0x10c0(%rbp)
   173b1:	48 8d 85 90 f0 ff ff 	lea    -0xf70(%rbp),%rax
   173b8:	48 05 64 02 00 00    	add    $0x264,%rax
   173be:	48 89 85 48 ef ff ff 	mov    %rax,-0x10b8(%rbp)
   173c5:	48 8d 85 90 f0 ff ff 	lea    -0xf70(%rbp),%rax
   173cc:	48 05 64 02 00 00    	add    $0x264,%rax
   173d2:	48 89 85 50 ef ff ff 	mov    %rax,-0x10b0(%rbp)
   173d9:	83 85 18 ee ff ff 01 	addl   $0x1,-0x11e8(%rbp)
   173e0:	83 ad e8 ed ff ff 01 	subl   $0x1,-0x1218(%rbp)
   173e7:	83 bd e8 ed ff ff fe 	cmpl   $0xfffffffe,-0x1218(%rbp)
   173ee:	0f 8c ee f7 ff ff    	jl     16be2 <func_15+0x5aa>
   173f4:	48 8b 05 fd bf 00 00 	mov    0xbffd(%rip),%rax        # 233f8 <g_288>
   173fb:	48 8d 95 f0 ef ff ff 	lea    -0x1010(%rbp),%rdx
   17402:	48 83 c2 40          	add    $0x40,%rdx
   17406:	48 89 10             	mov    %rdx,(%rax)
   17409:	48 8b 85 88 ee ff ff 	mov    -0x1178(%rbp),%rax
   17410:	8b 00                	mov    (%rax),%eax
   17412:	8d 50 ff             	lea    -0x1(%rax),%edx
   17415:	48 8b 85 88 ee ff ff 	mov    -0x1178(%rbp),%rax
   1741c:	89 10                	mov    %edx,(%rax)
   1741e:	48 8b 05 e3 bf 00 00 	mov    0xbfe3(%rip),%rax        # 23408 <g_291>
   17425:	0f b6 00             	movzbl (%rax),%eax
   17428:	0f b6 d8             	movzbl %al,%ebx
   1742b:	48 8b 85 c8 ed ff ff 	mov    -0x1238(%rbp),%rax
   17432:	44 0f b7 e0          	movzwl %ax,%r12d
   17436:	8b 05 24 9d 00 00    	mov    0x9d24(%rip),%eax        # 21160 <g_622>
   1743c:	41 89 c7             	mov    %eax,%r15d
   1743f:	0f b6 05 12 9c 00 00 	movzbl 0x9c12(%rip),%eax        # 21058 <g_101>
   17446:	4c 0f be e8          	movsbq %al,%r13
   1744a:	48 8b 85 c8 ed ff ff 	mov    -0x1238(%rbp),%rax
   17451:	44 0f b6 f0          	movzbl %al,%r14d
   17455:	8b 05 f5 9b 00 00    	mov    0x9bf5(%rip),%eax        # 21050 <g_99>
   1745b:	89 c0                	mov    %eax,%eax
   1745d:	48 89 85 c0 ed ff ff 	mov    %rax,-0x1240(%rbp)
   17464:	48 8b 85 c8 ed ff ff 	mov    -0x1238(%rbp),%rax
   1746b:	0f b6 c0             	movzbl %al,%eax
   1746e:	89 c6                	mov    %eax,%esi
   17470:	bf 11 00 00 00       	mov    $0x11,%edi
   17475:	e8 fe 36 ff ff       	callq  ab78 <safe_sub_func_uint8_t_u_u>
   1747a:	84 c0                	test   %al,%al
   1747c:	b8 01 00 00 00       	mov    $0x1,%eax
   17481:	48 98                	cltq   
   17483:	48 8b b5 c0 ed ff ff 	mov    -0x1240(%rbp),%rsi
   1748a:	48 89 c7             	mov    %rax,%rdi
   1748d:	e8 1d 3c ff ff       	callq  b0af <safe_div_func_uint64_t_u_u>
   17492:	c7 85 30 f0 ff ff 00 	movl   $0x0,-0xfd0(%rbp)
   17499:	00 00 00 
   1749c:	8b 85 30 f0 ff ff    	mov    -0xfd0(%rbp),%eax
   174a2:	0f b6 c0             	movzbl %al,%eax
   174a5:	44 89 f6             	mov    %r14d,%esi
   174a8:	89 c7                	mov    %eax,%edi
   174aa:	e8 c9 36 ff ff       	callq  ab78 <safe_sub_func_uint8_t_u_u>
   174af:	0f b6 c0             	movzbl %al,%eax
   174b2:	4c 89 ee             	mov    %r13,%rsi
   174b5:	48 89 c7             	mov    %rax,%rdi
   174b8:	e8 71 3b ff ff       	callq  b02e <safe_add_func_uint64_t_u_u>
   174bd:	4c 89 fe             	mov    %r15,%rsi
   174c0:	48 89 c7             	mov    %rax,%rdi
   174c3:	e8 b8 3b ff ff       	callq  b080 <safe_mod_func_uint64_t_u_u>
   174c8:	48 8b 85 90 ef ff ff 	mov    -0x1070(%rbp),%rax
   174cf:	48 85 c0             	test   %rax,%rax
   174d2:	44 89 e6             	mov    %r12d,%esi
   174d5:	bf 82 52 00 00       	mov    $0x5282,%edi
   174da:	e8 40 38 ff ff       	callq  ad1f <safe_sub_func_uint16_t_u_u>
   174df:	0f b6 c0             	movzbl %al,%eax
   174e2:	89 de                	mov    %ebx,%esi
   174e4:	89 c7                	mov    %eax,%edi
   174e6:	e8 a8 36 ff ff       	callq  ab93 <safe_mul_func_uint8_t_u_u>
   174eb:	48 8b 85 68 ef ff ff 	mov    -0x1098(%rbp),%rax
   174f2:	48 39 85 78 ee ff ff 	cmp    %rax,-0x1188(%rbp)
   174f9:	0f 95 c0             	setne  %al
   174fc:	0f b6 c0             	movzbl %al,%eax
   174ff:	48 39 85 c8 ed ff ff 	cmp    %rax,-0x1238(%rbp)
   17506:	8b 05 18 9b 00 00    	mov    0x9b18(%rip),%eax        # 21024 <g_2>
   1750c:	0f b7 c0             	movzwl %ax,%eax
   1750f:	be 00 00 00 00       	mov    $0x0,%esi
   17514:	89 c7                	mov    %eax,%edi
   17516:	e8 2d 39 ff ff       	callq  ae48 <safe_rshift_func_uint16_t_u_s>
   1751b:	0f b7 c0             	movzwl %ax,%eax
   1751e:	89 85 f4 f2 ff ff    	mov    %eax,-0xd0c(%rbp)
   17524:	0f b6 05 39 9c 00 00 	movzbl 0x9c39(%rip),%eax        # 21164 <g_658>
   1752b:	0f be c0             	movsbl %al,%eax
   1752e:	48 8b 5d c8          	mov    -0x38(%rbp),%rbx
   17532:	64 48 33 1c 25 28 00 	xor    %fs:0x28,%rbx
   17539:	00 00 
   1753b:	74 05                	je     17542 <func_15+0xf0a>
   1753d:	e8 2e 2b ff ff       	callq  a070 <__stack_chk_fail@plt>
   17542:	48 81 c4 18 12 00 00 	add    $0x1218,%rsp
   17549:	5b                   	pop    %rbx
   1754a:	41 5c                	pop    %r12
   1754c:	41 5d                	pop    %r13
   1754e:	41 5e                	pop    %r14
   17550:	41 5f                	pop    %r15
   17552:	5d                   	pop    %rbp
   17553:	c3                   	retq   

0000000000017554 <func_17>:
   17554:	f3 0f 1e fa          	endbr64 
   17558:	55                   	push   %rbp
   17559:	48 89 e5             	mov    %rsp,%rbp
   1755c:	41 57                	push   %r15
   1755e:	41 56                	push   %r14
   17560:	41 55                	push   %r13
   17562:	41 54                	push   %r12
   17564:	53                   	push   %rbx
   17565:	48 81 ec 58 0a 00 00 	sub    $0xa58,%rsp
   1756c:	89 bd 9c f5 ff ff    	mov    %edi,-0xa64(%rbp)
   17572:	89 f0                	mov    %esi,%eax
   17574:	48 89 95 90 f5 ff ff 	mov    %rdx,-0xa70(%rbp)
   1757b:	89 ca                	mov    %ecx,%edx
   1757d:	44 89 85 88 f5 ff ff 	mov    %r8d,-0xa78(%rbp)
   17584:	66 89 85 98 f5 ff ff 	mov    %ax,-0xa68(%rbp)
   1758b:	89 d0                	mov    %edx,%eax
   1758d:	88 85 8c f5 ff ff    	mov    %al,-0xa74(%rbp)
   17593:	64 48 8b 04 25 28 00 	mov    %fs:0x28,%rax
   1759a:	00 00 
   1759c:	48 89 45 c8          	mov    %rax,-0x38(%rbp)
   175a0:	31 c0                	xor    %eax,%eax
   175a2:	c7 85 b8 f5 ff ff 6b 	movl   $0x8158996b,-0xa48(%rbp)
   175a9:	99 58 81 
   175ac:	66 c7 85 ae f5 ff ff 	movw   $0x7f1,-0xa52(%rbp)
   175b3:	f1 07 
   175b5:	48 8d 85 00 f7 ff ff 	lea    -0x900(%rbp),%rax
   175bc:	48 83 c0 08          	add    $0x8,%rax
   175c0:	48 89 85 20 f7 ff ff 	mov    %rax,-0x8e0(%rbp)
   175c7:	48 8d 85 00 f7 ff ff 	lea    -0x900(%rbp),%rax
   175ce:	48 83 c0 08          	add    $0x8,%rax
   175d2:	48 89 85 28 f7 ff ff 	mov    %rax,-0x8d8(%rbp)
   175d9:	48 8d 85 00 f7 ff ff 	lea    -0x900(%rbp),%rax
   175e0:	48 83 c0 08          	add    $0x8,%rax
   175e4:	48 89 85 30 f7 ff ff 	mov    %rax,-0x8d0(%rbp)
   175eb:	48 8d 85 00 f7 ff ff 	lea    -0x900(%rbp),%rax
   175f2:	48 83 c0 08          	add    $0x8,%rax
   175f6:	48 89 85 38 f7 ff ff 	mov    %rax,-0x8c8(%rbp)
   175fd:	48 8d 85 00 f7 ff ff 	lea    -0x900(%rbp),%rax
   17604:	48 83 c0 08          	add    $0x8,%rax
   17608:	48 89 85 40 f7 ff ff 	mov    %rax,-0x8c0(%rbp)
   1760f:	48 8d 05 e2 bd 00 00 	lea    0xbde2(%rip),%rax        # 233f8 <g_288>
   17616:	48 89 85 f8 f5 ff ff 	mov    %rax,-0xa08(%rbp)
   1761d:	48 8d 85 f8 f5 ff ff 	lea    -0xa08(%rbp),%rax
   17624:	48 89 85 30 f9 ff ff 	mov    %rax,-0x6d0(%rbp)
   1762b:	48 8d 85 f8 f5 ff ff 	lea    -0xa08(%rbp),%rax
   17632:	48 89 85 38 f9 ff ff 	mov    %rax,-0x6c8(%rbp)
   17639:	48 c7 85 40 f9 ff ff 	movq   $0x0,-0x6c0(%rbp)
   17640:	00 00 00 00 
   17644:	48 8d 85 f8 f5 ff ff 	lea    -0xa08(%rbp),%rax
   1764b:	48 89 85 48 f9 ff ff 	mov    %rax,-0x6b8(%rbp)
   17652:	48 8d 85 f8 f5 ff ff 	lea    -0xa08(%rbp),%rax
   17659:	48 89 85 50 f9 ff ff 	mov    %rax,-0x6b0(%rbp)
   17660:	48 c7 85 58 f9 ff ff 	movq   $0x0,-0x6a8(%rbp)
   17667:	00 00 00 00 
   1766b:	48 8d 85 f8 f5 ff ff 	lea    -0xa08(%rbp),%rax
   17672:	48 89 85 60 f9 ff ff 	mov    %rax,-0x6a0(%rbp)
   17679:	48 c7 85 68 f9 ff ff 	movq   $0x0,-0x698(%rbp)
   17680:	00 00 00 00 
   17684:	48 8d 85 f8 f5 ff ff 	lea    -0xa08(%rbp),%rax
   1768b:	48 89 85 70 f9 ff ff 	mov    %rax,-0x690(%rbp)
   17692:	48 8d 85 f8 f5 ff ff 	lea    -0xa08(%rbp),%rax
   17699:	48 89 85 78 f9 ff ff 	mov    %rax,-0x688(%rbp)
   176a0:	48 8d 85 f8 f5 ff ff 	lea    -0xa08(%rbp),%rax
   176a7:	48 89 85 80 f9 ff ff 	mov    %rax,-0x680(%rbp)
   176ae:	48 8d 85 f8 f5 ff ff 	lea    -0xa08(%rbp),%rax
   176b5:	48 89 85 88 f9 ff ff 	mov    %rax,-0x678(%rbp)
   176bc:	48 8d 85 f8 f5 ff ff 	lea    -0xa08(%rbp),%rax
   176c3:	48 89 85 90 f9 ff ff 	mov    %rax,-0x670(%rbp)
   176ca:	48 8d 85 f8 f5 ff ff 	lea    -0xa08(%rbp),%rax
   176d1:	48 89 85 98 f9 ff ff 	mov    %rax,-0x668(%rbp)
   176d8:	48 c7 85 a0 f9 ff ff 	movq   $0x0,-0x660(%rbp)
   176df:	00 00 00 00 
   176e3:	48 8d 85 f8 f5 ff ff 	lea    -0xa08(%rbp),%rax
   176ea:	48 89 85 a8 f9 ff ff 	mov    %rax,-0x658(%rbp)
   176f1:	48 8d 85 f8 f5 ff ff 	lea    -0xa08(%rbp),%rax
   176f8:	48 89 85 b0 f9 ff ff 	mov    %rax,-0x650(%rbp)
   176ff:	48 8d 85 f8 f5 ff ff 	lea    -0xa08(%rbp),%rax
   17706:	48 89 85 b8 f9 ff ff 	mov    %rax,-0x648(%rbp)
   1770d:	48 8d 85 f8 f5 ff ff 	lea    -0xa08(%rbp),%rax
   17714:	48 89 85 c0 f9 ff ff 	mov    %rax,-0x640(%rbp)
   1771b:	48 8d 85 f8 f5 ff ff 	lea    -0xa08(%rbp),%rax
   17722:	48 89 85 c8 f9 ff ff 	mov    %rax,-0x638(%rbp)
   17729:	48 c7 85 d0 f9 ff ff 	movq   $0x0,-0x630(%rbp)
   17730:	00 00 00 00 
   17734:	48 8d 85 f8 f5 ff ff 	lea    -0xa08(%rbp),%rax
   1773b:	48 89 85 d8 f9 ff ff 	mov    %rax,-0x628(%rbp)
   17742:	48 8d 85 f8 f5 ff ff 	lea    -0xa08(%rbp),%rax
   17749:	48 89 85 e0 f9 ff ff 	mov    %rax,-0x620(%rbp)
   17750:	48 8d 85 f8 f5 ff ff 	lea    -0xa08(%rbp),%rax
   17757:	48 89 85 e8 f9 ff ff 	mov    %rax,-0x618(%rbp)
   1775e:	48 8d 85 f8 f5 ff ff 	lea    -0xa08(%rbp),%rax
   17765:	48 89 85 f0 f9 ff ff 	mov    %rax,-0x610(%rbp)
   1776c:	48 8d 85 f8 f5 ff ff 	lea    -0xa08(%rbp),%rax
   17773:	48 89 85 f8 f9 ff ff 	mov    %rax,-0x608(%rbp)
   1777a:	48 8d 85 f8 f5 ff ff 	lea    -0xa08(%rbp),%rax
   17781:	48 89 85 00 fa ff ff 	mov    %rax,-0x600(%rbp)
   17788:	48 c7 85 08 fa ff ff 	movq   $0x0,-0x5f8(%rbp)
   1778f:	00 00 00 00 
   17793:	48 8d 85 f8 f5 ff ff 	lea    -0xa08(%rbp),%rax
   1779a:	48 89 85 10 fa ff ff 	mov    %rax,-0x5f0(%rbp)
   177a1:	48 c7 85 18 fa ff ff 	movq   $0x0,-0x5e8(%rbp)
   177a8:	00 00 00 00 
   177ac:	48 8d 85 f8 f5 ff ff 	lea    -0xa08(%rbp),%rax
   177b3:	48 89 85 20 fa ff ff 	mov    %rax,-0x5e0(%rbp)
   177ba:	48 8d 85 f8 f5 ff ff 	lea    -0xa08(%rbp),%rax
   177c1:	48 89 85 28 fa ff ff 	mov    %rax,-0x5d8(%rbp)
   177c8:	48 c7 85 30 fa ff ff 	movq   $0x0,-0x5d0(%rbp)
   177cf:	00 00 00 00 
   177d3:	48 8d 85 f8 f5 ff ff 	lea    -0xa08(%rbp),%rax
   177da:	48 89 85 38 fa ff ff 	mov    %rax,-0x5c8(%rbp)
   177e1:	48 8d 85 f8 f5 ff ff 	lea    -0xa08(%rbp),%rax
   177e8:	48 89 85 40 fa ff ff 	mov    %rax,-0x5c0(%rbp)
   177ef:	48 8d 85 f8 f5 ff ff 	lea    -0xa08(%rbp),%rax
   177f6:	48 89 85 48 fa ff ff 	mov    %rax,-0x5b8(%rbp)
   177fd:	48 8d 85 f8 f5 ff ff 	lea    -0xa08(%rbp),%rax
   17804:	48 89 85 50 fa ff ff 	mov    %rax,-0x5b0(%rbp)
   1780b:	48 8d 85 f8 f5 ff ff 	lea    -0xa08(%rbp),%rax
   17812:	48 89 85 58 fa ff ff 	mov    %rax,-0x5a8(%rbp)
   17819:	48 8d 85 f8 f5 ff ff 	lea    -0xa08(%rbp),%rax
   17820:	48 89 85 60 fa ff ff 	mov    %rax,-0x5a0(%rbp)
   17827:	48 8d 85 f8 f5 ff ff 	lea    -0xa08(%rbp),%rax
   1782e:	48 89 85 68 fa ff ff 	mov    %rax,-0x598(%rbp)
   17835:	48 8d 85 f8 f5 ff ff 	lea    -0xa08(%rbp),%rax
   1783c:	48 89 85 70 fa ff ff 	mov    %rax,-0x590(%rbp)
   17843:	48 8d 85 f8 f5 ff ff 	lea    -0xa08(%rbp),%rax
   1784a:	48 89 85 78 fa ff ff 	mov    %rax,-0x588(%rbp)
   17851:	48 8d 85 f8 f5 ff ff 	lea    -0xa08(%rbp),%rax
   17858:	48 89 85 80 fa ff ff 	mov    %rax,-0x580(%rbp)
   1785f:	48 8d 85 f8 f5 ff ff 	lea    -0xa08(%rbp),%rax
   17866:	48 89 85 88 fa ff ff 	mov    %rax,-0x578(%rbp)
   1786d:	48 8d 85 f8 f5 ff ff 	lea    -0xa08(%rbp),%rax
   17874:	48 89 85 90 fa ff ff 	mov    %rax,-0x570(%rbp)
   1787b:	48 8d 85 f8 f5 ff ff 	lea    -0xa08(%rbp),%rax
   17882:	48 89 85 98 fa ff ff 	mov    %rax,-0x568(%rbp)
   17889:	48 8d 85 f8 f5 ff ff 	lea    -0xa08(%rbp),%rax
   17890:	48 89 85 a0 fa ff ff 	mov    %rax,-0x560(%rbp)
   17897:	48 8d 85 f8 f5 ff ff 	lea    -0xa08(%rbp),%rax
   1789e:	48 89 85 a8 fa ff ff 	mov    %rax,-0x558(%rbp)
   178a5:	48 8d 85 f8 f5 ff ff 	lea    -0xa08(%rbp),%rax
   178ac:	48 89 85 b0 fa ff ff 	mov    %rax,-0x550(%rbp)
   178b3:	48 8d 85 f8 f5 ff ff 	lea    -0xa08(%rbp),%rax
   178ba:	48 89 85 b8 fa ff ff 	mov    %rax,-0x548(%rbp)
   178c1:	48 8d 85 f8 f5 ff ff 	lea    -0xa08(%rbp),%rax
   178c8:	48 89 85 c0 fa ff ff 	mov    %rax,-0x540(%rbp)
   178cf:	48 8d 85 f8 f5 ff ff 	lea    -0xa08(%rbp),%rax
   178d6:	48 89 85 c8 fa ff ff 	mov    %rax,-0x538(%rbp)
   178dd:	48 8d 85 f8 f5 ff ff 	lea    -0xa08(%rbp),%rax
   178e4:	48 89 85 d0 fa ff ff 	mov    %rax,-0x530(%rbp)
   178eb:	48 8d 85 f8 f5 ff ff 	lea    -0xa08(%rbp),%rax
   178f2:	48 89 85 d8 fa ff ff 	mov    %rax,-0x528(%rbp)
   178f9:	48 8d 85 f8 f5 ff ff 	lea    -0xa08(%rbp),%rax
   17900:	48 89 85 e0 fa ff ff 	mov    %rax,-0x520(%rbp)
   17907:	48 8d 85 f8 f5 ff ff 	lea    -0xa08(%rbp),%rax
   1790e:	48 89 85 e8 fa ff ff 	mov    %rax,-0x518(%rbp)
   17915:	48 8d 85 f8 f5 ff ff 	lea    -0xa08(%rbp),%rax
   1791c:	48 89 85 f0 fa ff ff 	mov    %rax,-0x510(%rbp)
   17923:	48 c7 85 f8 fa ff ff 	movq   $0x0,-0x508(%rbp)
   1792a:	00 00 00 00 
   1792e:	48 c7 85 00 fb ff ff 	movq   $0x0,-0x500(%rbp)
   17935:	00 00 00 00 
   17939:	48 8d 85 f8 f5 ff ff 	lea    -0xa08(%rbp),%rax
   17940:	48 89 85 08 fb ff ff 	mov    %rax,-0x4f8(%rbp)
   17947:	48 8d 85 f8 f5 ff ff 	lea    -0xa08(%rbp),%rax
   1794e:	48 89 85 10 fb ff ff 	mov    %rax,-0x4f0(%rbp)
   17955:	48 8d 85 f8 f5 ff ff 	lea    -0xa08(%rbp),%rax
   1795c:	48 89 85 18 fb ff ff 	mov    %rax,-0x4e8(%rbp)
   17963:	48 8d 85 f8 f5 ff ff 	lea    -0xa08(%rbp),%rax
   1796a:	48 89 85 20 fb ff ff 	mov    %rax,-0x4e0(%rbp)
   17971:	48 8d 85 f8 f5 ff ff 	lea    -0xa08(%rbp),%rax
   17978:	48 89 85 28 fb ff ff 	mov    %rax,-0x4d8(%rbp)
   1797f:	48 8d 85 f8 f5 ff ff 	lea    -0xa08(%rbp),%rax
   17986:	48 89 85 30 fb ff ff 	mov    %rax,-0x4d0(%rbp)
   1798d:	48 8d 85 f8 f5 ff ff 	lea    -0xa08(%rbp),%rax
   17994:	48 89 85 38 fb ff ff 	mov    %rax,-0x4c8(%rbp)
   1799b:	48 8d 85 f8 f5 ff ff 	lea    -0xa08(%rbp),%rax
   179a2:	48 89 85 40 fb ff ff 	mov    %rax,-0x4c0(%rbp)
   179a9:	48 c7 85 48 fb ff ff 	movq   $0x0,-0x4b8(%rbp)
   179b0:	00 00 00 00 
   179b4:	48 c7 85 50 fb ff ff 	movq   $0x0,-0x4b0(%rbp)
   179bb:	00 00 00 00 
   179bf:	48 8d 85 f8 f5 ff ff 	lea    -0xa08(%rbp),%rax
   179c6:	48 89 85 58 fb ff ff 	mov    %rax,-0x4a8(%rbp)
   179cd:	48 8d 85 f8 f5 ff ff 	lea    -0xa08(%rbp),%rax
   179d4:	48 89 85 60 fb ff ff 	mov    %rax,-0x4a0(%rbp)
   179db:	48 8d 85 f8 f5 ff ff 	lea    -0xa08(%rbp),%rax
   179e2:	48 89 85 68 fb ff ff 	mov    %rax,-0x498(%rbp)
   179e9:	48 8d 85 f8 f5 ff ff 	lea    -0xa08(%rbp),%rax
   179f0:	48 89 85 70 fb ff ff 	mov    %rax,-0x490(%rbp)
   179f7:	48 8d 85 f8 f5 ff ff 	lea    -0xa08(%rbp),%rax
   179fe:	48 89 85 78 fb ff ff 	mov    %rax,-0x488(%rbp)
   17a05:	48 8d 85 f8 f5 ff ff 	lea    -0xa08(%rbp),%rax
   17a0c:	48 89 85 80 fb ff ff 	mov    %rax,-0x480(%rbp)
   17a13:	48 c7 85 88 fb ff ff 	movq   $0x0,-0x478(%rbp)
   17a1a:	00 00 00 00 
   17a1e:	48 8d 85 f8 f5 ff ff 	lea    -0xa08(%rbp),%rax
   17a25:	48 89 85 90 fb ff ff 	mov    %rax,-0x470(%rbp)
   17a2c:	48 8d 85 f8 f5 ff ff 	lea    -0xa08(%rbp),%rax
   17a33:	48 89 85 98 fb ff ff 	mov    %rax,-0x468(%rbp)
   17a3a:	48 8d 85 f8 f5 ff ff 	lea    -0xa08(%rbp),%rax
   17a41:	48 89 85 a0 fb ff ff 	mov    %rax,-0x460(%rbp)
   17a48:	48 8d 85 f8 f5 ff ff 	lea    -0xa08(%rbp),%rax
   17a4f:	48 89 85 a8 fb ff ff 	mov    %rax,-0x458(%rbp)
   17a56:	48 8d 85 f8 f5 ff ff 	lea    -0xa08(%rbp),%rax
   17a5d:	48 89 85 b0 fb ff ff 	mov    %rax,-0x450(%rbp)
   17a64:	48 8d 85 f8 f5 ff ff 	lea    -0xa08(%rbp),%rax
   17a6b:	48 89 85 b8 fb ff ff 	mov    %rax,-0x448(%rbp)
   17a72:	48 8d 85 f8 f5 ff ff 	lea    -0xa08(%rbp),%rax
   17a79:	48 89 85 c0 fb ff ff 	mov    %rax,-0x440(%rbp)
   17a80:	48 8d 85 f8 f5 ff ff 	lea    -0xa08(%rbp),%rax
   17a87:	48 89 85 c8 fb ff ff 	mov    %rax,-0x438(%rbp)
   17a8e:	48 8d 85 f8 f5 ff ff 	lea    -0xa08(%rbp),%rax
   17a95:	48 89 85 d0 fb ff ff 	mov    %rax,-0x430(%rbp)
   17a9c:	48 8d 85 f8 f5 ff ff 	lea    -0xa08(%rbp),%rax
   17aa3:	48 89 85 d8 fb ff ff 	mov    %rax,-0x428(%rbp)
   17aaa:	48 8d 85 f8 f5 ff ff 	lea    -0xa08(%rbp),%rax
   17ab1:	48 89 85 e0 fb ff ff 	mov    %rax,-0x420(%rbp)
   17ab8:	48 8d 85 f8 f5 ff ff 	lea    -0xa08(%rbp),%rax
   17abf:	48 89 85 e8 fb ff ff 	mov    %rax,-0x418(%rbp)
   17ac6:	48 8d 85 f8 f5 ff ff 	lea    -0xa08(%rbp),%rax
   17acd:	48 89 85 f0 fb ff ff 	mov    %rax,-0x410(%rbp)
   17ad4:	48 c7 85 f8 fb ff ff 	movq   $0x0,-0x408(%rbp)
   17adb:	00 00 00 00 
   17adf:	48 8d 85 f8 f5 ff ff 	lea    -0xa08(%rbp),%rax
   17ae6:	48 89 85 00 fc ff ff 	mov    %rax,-0x400(%rbp)
   17aed:	48 8d 85 f8 f5 ff ff 	lea    -0xa08(%rbp),%rax
   17af4:	48 89 85 08 fc ff ff 	mov    %rax,-0x3f8(%rbp)
   17afb:	48 8d 85 f8 f5 ff ff 	lea    -0xa08(%rbp),%rax
   17b02:	48 89 85 10 fc ff ff 	mov    %rax,-0x3f0(%rbp)
   17b09:	48 8d 85 f8 f5 ff ff 	lea    -0xa08(%rbp),%rax
   17b10:	48 89 85 18 fc ff ff 	mov    %rax,-0x3e8(%rbp)
   17b17:	48 c7 85 20 fc ff ff 	movq   $0x0,-0x3e0(%rbp)
   17b1e:	00 00 00 00 
   17b22:	48 c7 85 28 fc ff ff 	movq   $0x0,-0x3d8(%rbp)
   17b29:	00 00 00 00 
   17b2d:	48 8d 85 f8 f5 ff ff 	lea    -0xa08(%rbp),%rax
   17b34:	48 89 85 30 fc ff ff 	mov    %rax,-0x3d0(%rbp)
   17b3b:	48 8d 85 f8 f5 ff ff 	lea    -0xa08(%rbp),%rax
   17b42:	48 89 85 38 fc ff ff 	mov    %rax,-0x3c8(%rbp)
   17b49:	48 8d 85 f8 f5 ff ff 	lea    -0xa08(%rbp),%rax
   17b50:	48 89 85 40 fc ff ff 	mov    %rax,-0x3c0(%rbp)
   17b57:	48 8d 85 f8 f5 ff ff 	lea    -0xa08(%rbp),%rax
   17b5e:	48 89 85 48 fc ff ff 	mov    %rax,-0x3b8(%rbp)
   17b65:	48 8d 85 f8 f5 ff ff 	lea    -0xa08(%rbp),%rax
   17b6c:	48 89 85 50 fc ff ff 	mov    %rax,-0x3b0(%rbp)
   17b73:	48 8d 85 f8 f5 ff ff 	lea    -0xa08(%rbp),%rax
   17b7a:	48 89 85 58 fc ff ff 	mov    %rax,-0x3a8(%rbp)
   17b81:	48 8d 85 f8 f5 ff ff 	lea    -0xa08(%rbp),%rax
   17b88:	48 89 85 60 fc ff ff 	mov    %rax,-0x3a0(%rbp)
   17b8f:	48 8d 85 f8 f5 ff ff 	lea    -0xa08(%rbp),%rax
   17b96:	48 89 85 68 fc ff ff 	mov    %rax,-0x398(%rbp)
   17b9d:	48 8d 85 f8 f5 ff ff 	lea    -0xa08(%rbp),%rax
   17ba4:	48 89 85 70 fc ff ff 	mov    %rax,-0x390(%rbp)
   17bab:	48 8d 85 f8 f5 ff ff 	lea    -0xa08(%rbp),%rax
   17bb2:	48 89 85 78 fc ff ff 	mov    %rax,-0x388(%rbp)
   17bb9:	48 8d 85 f8 f5 ff ff 	lea    -0xa08(%rbp),%rax
   17bc0:	48 89 85 80 fc ff ff 	mov    %rax,-0x380(%rbp)
   17bc7:	48 8d 85 f8 f5 ff ff 	lea    -0xa08(%rbp),%rax
   17bce:	48 89 85 88 fc ff ff 	mov    %rax,-0x378(%rbp)
   17bd5:	48 8d 85 f8 f5 ff ff 	lea    -0xa08(%rbp),%rax
   17bdc:	48 89 85 90 fc ff ff 	mov    %rax,-0x370(%rbp)
   17be3:	48 8d 85 f8 f5 ff ff 	lea    -0xa08(%rbp),%rax
   17bea:	48 89 85 98 fc ff ff 	mov    %rax,-0x368(%rbp)
   17bf1:	48 8d 85 f8 f5 ff ff 	lea    -0xa08(%rbp),%rax
   17bf8:	48 89 85 a0 fc ff ff 	mov    %rax,-0x360(%rbp)
   17bff:	48 8d 85 f8 f5 ff ff 	lea    -0xa08(%rbp),%rax
   17c06:	48 89 85 a8 fc ff ff 	mov    %rax,-0x358(%rbp)
   17c0d:	48 8d 85 f8 f5 ff ff 	lea    -0xa08(%rbp),%rax
   17c14:	48 89 85 b0 fc ff ff 	mov    %rax,-0x350(%rbp)
   17c1b:	48 8d 85 f8 f5 ff ff 	lea    -0xa08(%rbp),%rax
   17c22:	48 89 85 b8 fc ff ff 	mov    %rax,-0x348(%rbp)
   17c29:	48 8d 85 f8 f5 ff ff 	lea    -0xa08(%rbp),%rax
   17c30:	48 89 85 c0 fc ff ff 	mov    %rax,-0x340(%rbp)
   17c37:	48 8d 85 f8 f5 ff ff 	lea    -0xa08(%rbp),%rax
   17c3e:	48 89 85 c8 fc ff ff 	mov    %rax,-0x338(%rbp)
   17c45:	48 8d 85 f8 f5 ff ff 	lea    -0xa08(%rbp),%rax
   17c4c:	48 89 85 d0 fc ff ff 	mov    %rax,-0x330(%rbp)
   17c53:	48 8d 85 f8 f5 ff ff 	lea    -0xa08(%rbp),%rax
   17c5a:	48 89 85 d8 fc ff ff 	mov    %rax,-0x328(%rbp)
   17c61:	48 8d 85 f8 f5 ff ff 	lea    -0xa08(%rbp),%rax
   17c68:	48 89 85 e0 fc ff ff 	mov    %rax,-0x320(%rbp)
   17c6f:	48 8d 85 f8 f5 ff ff 	lea    -0xa08(%rbp),%rax
   17c76:	48 89 85 e8 fc ff ff 	mov    %rax,-0x318(%rbp)
   17c7d:	48 8d 85 f8 f5 ff ff 	lea    -0xa08(%rbp),%rax
   17c84:	48 89 85 f0 fc ff ff 	mov    %rax,-0x310(%rbp)
   17c8b:	48 c7 85 f8 fc ff ff 	movq   $0x0,-0x308(%rbp)
   17c92:	00 00 00 00 
   17c96:	48 c7 85 00 fd ff ff 	movq   $0x0,-0x300(%rbp)
   17c9d:	00 00 00 00 
   17ca1:	48 8d 85 f8 f5 ff ff 	lea    -0xa08(%rbp),%rax
   17ca8:	48 89 85 08 fd ff ff 	mov    %rax,-0x2f8(%rbp)
   17caf:	48 8d 85 f8 f5 ff ff 	lea    -0xa08(%rbp),%rax
   17cb6:	48 89 85 10 fd ff ff 	mov    %rax,-0x2f0(%rbp)
   17cbd:	48 8d 85 f8 f5 ff ff 	lea    -0xa08(%rbp),%rax
   17cc4:	48 89 85 18 fd ff ff 	mov    %rax,-0x2e8(%rbp)
   17ccb:	48 8d 85 f8 f5 ff ff 	lea    -0xa08(%rbp),%rax
   17cd2:	48 89 85 20 fd ff ff 	mov    %rax,-0x2e0(%rbp)
   17cd9:	48 c7 85 28 fd ff ff 	movq   $0x0,-0x2d8(%rbp)
   17ce0:	00 00 00 00 
   17ce4:	48 8d 85 f8 f5 ff ff 	lea    -0xa08(%rbp),%rax
   17ceb:	48 89 85 30 fd ff ff 	mov    %rax,-0x2d0(%rbp)
   17cf2:	48 8d 85 f8 f5 ff ff 	lea    -0xa08(%rbp),%rax
   17cf9:	48 89 85 38 fd ff ff 	mov    %rax,-0x2c8(%rbp)
   17d00:	48 8d 85 f8 f5 ff ff 	lea    -0xa08(%rbp),%rax
   17d07:	48 89 85 40 fd ff ff 	mov    %rax,-0x2c0(%rbp)
   17d0e:	48 8d 85 f8 f5 ff ff 	lea    -0xa08(%rbp),%rax
   17d15:	48 89 85 48 fd ff ff 	mov    %rax,-0x2b8(%rbp)
   17d1c:	48 8d 85 f8 f5 ff ff 	lea    -0xa08(%rbp),%rax
   17d23:	48 89 85 50 fd ff ff 	mov    %rax,-0x2b0(%rbp)
   17d2a:	48 8d 85 f8 f5 ff ff 	lea    -0xa08(%rbp),%rax
   17d31:	48 89 85 58 fd ff ff 	mov    %rax,-0x2a8(%rbp)
   17d38:	48 8d 85 f8 f5 ff ff 	lea    -0xa08(%rbp),%rax
   17d3f:	48 89 85 60 fd ff ff 	mov    %rax,-0x2a0(%rbp)
   17d46:	48 8d 85 f8 f5 ff ff 	lea    -0xa08(%rbp),%rax
   17d4d:	48 89 85 68 fd ff ff 	mov    %rax,-0x298(%rbp)
   17d54:	48 8d 85 f8 f5 ff ff 	lea    -0xa08(%rbp),%rax
   17d5b:	48 89 85 70 fd ff ff 	mov    %rax,-0x290(%rbp)
   17d62:	48 8d 85 f8 f5 ff ff 	lea    -0xa08(%rbp),%rax
   17d69:	48 89 85 78 fd ff ff 	mov    %rax,-0x288(%rbp)
   17d70:	48 8d 85 f8 f5 ff ff 	lea    -0xa08(%rbp),%rax
   17d77:	48 89 85 80 fd ff ff 	mov    %rax,-0x280(%rbp)
   17d7e:	48 8d 85 f8 f5 ff ff 	lea    -0xa08(%rbp),%rax
   17d85:	48 89 85 88 fd ff ff 	mov    %rax,-0x278(%rbp)
   17d8c:	48 8d 85 f8 f5 ff ff 	lea    -0xa08(%rbp),%rax
   17d93:	48 89 85 90 fd ff ff 	mov    %rax,-0x270(%rbp)
   17d9a:	48 c7 85 98 fd ff ff 	movq   $0x0,-0x268(%rbp)
   17da1:	00 00 00 00 
   17da5:	48 8d 85 f8 f5 ff ff 	lea    -0xa08(%rbp),%rax
   17dac:	48 89 85 a0 fd ff ff 	mov    %rax,-0x260(%rbp)
   17db3:	48 8d 85 f8 f5 ff ff 	lea    -0xa08(%rbp),%rax
   17dba:	48 89 85 a8 fd ff ff 	mov    %rax,-0x258(%rbp)
   17dc1:	48 8d 85 f8 f5 ff ff 	lea    -0xa08(%rbp),%rax
   17dc8:	48 89 85 b0 fd ff ff 	mov    %rax,-0x250(%rbp)
   17dcf:	48 8d 85 f8 f5 ff ff 	lea    -0xa08(%rbp),%rax
   17dd6:	48 89 85 b8 fd ff ff 	mov    %rax,-0x248(%rbp)
   17ddd:	48 8d 85 f8 f5 ff ff 	lea    -0xa08(%rbp),%rax
   17de4:	48 89 85 c0 fd ff ff 	mov    %rax,-0x240(%rbp)
   17deb:	48 8d 85 f8 f5 ff ff 	lea    -0xa08(%rbp),%rax
   17df2:	48 89 85 c8 fd ff ff 	mov    %rax,-0x238(%rbp)
   17df9:	48 8d 85 f8 f5 ff ff 	lea    -0xa08(%rbp),%rax
   17e00:	48 89 85 d0 fd ff ff 	mov    %rax,-0x230(%rbp)
   17e07:	48 8d 85 f8 f5 ff ff 	lea    -0xa08(%rbp),%rax
   17e0e:	48 89 85 d8 fd ff ff 	mov    %rax,-0x228(%rbp)
   17e15:	48 8d 85 f8 f5 ff ff 	lea    -0xa08(%rbp),%rax
   17e1c:	48 89 85 e0 fd ff ff 	mov    %rax,-0x220(%rbp)
   17e23:	48 8d 85 f8 f5 ff ff 	lea    -0xa08(%rbp),%rax
   17e2a:	48 89 85 e8 fd ff ff 	mov    %rax,-0x218(%rbp)
   17e31:	48 8d 85 f8 f5 ff ff 	lea    -0xa08(%rbp),%rax
   17e38:	48 89 85 f0 fd ff ff 	mov    %rax,-0x210(%rbp)
   17e3f:	48 8d 85 f8 f5 ff ff 	lea    -0xa08(%rbp),%rax
   17e46:	48 89 85 f8 fd ff ff 	mov    %rax,-0x208(%rbp)
   17e4d:	48 8d 85 f8 f5 ff ff 	lea    -0xa08(%rbp),%rax
   17e54:	48 89 85 00 fe ff ff 	mov    %rax,-0x200(%rbp)
   17e5b:	48 8d 85 f8 f5 ff ff 	lea    -0xa08(%rbp),%rax
   17e62:	48 89 85 08 fe ff ff 	mov    %rax,-0x1f8(%rbp)
   17e69:	48 8d 85 f8 f5 ff ff 	lea    -0xa08(%rbp),%rax
   17e70:	48 89 85 10 fe ff ff 	mov    %rax,-0x1f0(%rbp)
   17e77:	48 8d 85 f8 f5 ff ff 	lea    -0xa08(%rbp),%rax
   17e7e:	48 89 85 18 fe ff ff 	mov    %rax,-0x1e8(%rbp)
   17e85:	48 8d 85 f8 f5 ff ff 	lea    -0xa08(%rbp),%rax
   17e8c:	48 89 85 20 fe ff ff 	mov    %rax,-0x1e0(%rbp)
   17e93:	48 8d 85 f8 f5 ff ff 	lea    -0xa08(%rbp),%rax
   17e9a:	48 89 85 28 fe ff ff 	mov    %rax,-0x1d8(%rbp)
   17ea1:	48 8d 85 f8 f5 ff ff 	lea    -0xa08(%rbp),%rax
   17ea8:	48 89 85 30 fe ff ff 	mov    %rax,-0x1d0(%rbp)
   17eaf:	48 8d 85 f8 f5 ff ff 	lea    -0xa08(%rbp),%rax
   17eb6:	48 89 85 38 fe ff ff 	mov    %rax,-0x1c8(%rbp)
   17ebd:	48 8d 85 f8 f5 ff ff 	lea    -0xa08(%rbp),%rax
   17ec4:	48 89 85 40 fe ff ff 	mov    %rax,-0x1c0(%rbp)
   17ecb:	48 8d 85 f8 f5 ff ff 	lea    -0xa08(%rbp),%rax
   17ed2:	48 89 85 48 fe ff ff 	mov    %rax,-0x1b8(%rbp)
   17ed9:	48 8d 85 f8 f5 ff ff 	lea    -0xa08(%rbp),%rax
   17ee0:	48 89 85 50 fe ff ff 	mov    %rax,-0x1b0(%rbp)
   17ee7:	48 8d 85 f8 f5 ff ff 	lea    -0xa08(%rbp),%rax
   17eee:	48 89 85 58 fe ff ff 	mov    %rax,-0x1a8(%rbp)
   17ef5:	48 c7 85 60 fe ff ff 	movq   $0x0,-0x1a0(%rbp)
   17efc:	00 00 00 00 
   17f00:	48 8d 85 f8 f5 ff ff 	lea    -0xa08(%rbp),%rax
   17f07:	48 89 85 68 fe ff ff 	mov    %rax,-0x198(%rbp)
   17f0e:	48 8d 85 f8 f5 ff ff 	lea    -0xa08(%rbp),%rax
   17f15:	48 89 85 70 fe ff ff 	mov    %rax,-0x190(%rbp)
   17f1c:	48 8d 85 f8 f5 ff ff 	lea    -0xa08(%rbp),%rax
   17f23:	48 89 85 78 fe ff ff 	mov    %rax,-0x188(%rbp)
   17f2a:	48 8d 85 f8 f5 ff ff 	lea    -0xa08(%rbp),%rax
   17f31:	48 89 85 80 fe ff ff 	mov    %rax,-0x180(%rbp)
   17f38:	48 8d 85 f8 f5 ff ff 	lea    -0xa08(%rbp),%rax
   17f3f:	48 89 85 88 fe ff ff 	mov    %rax,-0x178(%rbp)
   17f46:	48 8d 85 f8 f5 ff ff 	lea    -0xa08(%rbp),%rax
   17f4d:	48 89 85 90 fe ff ff 	mov    %rax,-0x170(%rbp)
   17f54:	48 8d 85 f8 f5 ff ff 	lea    -0xa08(%rbp),%rax
   17f5b:	48 89 85 98 fe ff ff 	mov    %rax,-0x168(%rbp)
   17f62:	48 8d 85 f8 f5 ff ff 	lea    -0xa08(%rbp),%rax
   17f69:	48 89 85 a0 fe ff ff 	mov    %rax,-0x160(%rbp)
   17f70:	48 8d 85 f8 f5 ff ff 	lea    -0xa08(%rbp),%rax
   17f77:	48 89 85 a8 fe ff ff 	mov    %rax,-0x158(%rbp)
   17f7e:	48 8d 85 f8 f5 ff ff 	lea    -0xa08(%rbp),%rax
   17f85:	48 89 85 b0 fe ff ff 	mov    %rax,-0x150(%rbp)
   17f8c:	48 8d 85 f8 f5 ff ff 	lea    -0xa08(%rbp),%rax
   17f93:	48 89 85 b8 fe ff ff 	mov    %rax,-0x148(%rbp)
   17f9a:	48 8d 85 f8 f5 ff ff 	lea    -0xa08(%rbp),%rax
   17fa1:	48 89 85 c0 fe ff ff 	mov    %rax,-0x140(%rbp)
   17fa8:	48 8d 85 f8 f5 ff ff 	lea    -0xa08(%rbp),%rax
   17faf:	48 89 85 c8 fe ff ff 	mov    %rax,-0x138(%rbp)
   17fb6:	48 c7 85 d0 fe ff ff 	movq   $0x0,-0x130(%rbp)
   17fbd:	00 00 00 00 
   17fc1:	48 8d 85 f8 f5 ff ff 	lea    -0xa08(%rbp),%rax
   17fc8:	48 89 85 d8 fe ff ff 	mov    %rax,-0x128(%rbp)
   17fcf:	48 8d 85 f8 f5 ff ff 	lea    -0xa08(%rbp),%rax
   17fd6:	48 89 85 e0 fe ff ff 	mov    %rax,-0x120(%rbp)
   17fdd:	48 8d 85 f8 f5 ff ff 	lea    -0xa08(%rbp),%rax
   17fe4:	48 89 85 e8 fe ff ff 	mov    %rax,-0x118(%rbp)
   17feb:	48 8d 85 f8 f5 ff ff 	lea    -0xa08(%rbp),%rax
   17ff2:	48 89 85 f0 fe ff ff 	mov    %rax,-0x110(%rbp)
   17ff9:	48 c7 85 f8 fe ff ff 	movq   $0x0,-0x108(%rbp)
   18000:	00 00 00 00 
   18004:	48 c7 85 00 ff ff ff 	movq   $0x0,-0x100(%rbp)
   1800b:	00 00 00 00 
   1800f:	48 8d 85 f8 f5 ff ff 	lea    -0xa08(%rbp),%rax
   18016:	48 89 85 08 ff ff ff 	mov    %rax,-0xf8(%rbp)
   1801d:	48 8d 85 f8 f5 ff ff 	lea    -0xa08(%rbp),%rax
   18024:	48 89 85 10 ff ff ff 	mov    %rax,-0xf0(%rbp)
   1802b:	48 8d 85 f8 f5 ff ff 	lea    -0xa08(%rbp),%rax
   18032:	48 89 85 18 ff ff ff 	mov    %rax,-0xe8(%rbp)
   18039:	48 8d 85 f8 f5 ff ff 	lea    -0xa08(%rbp),%rax
   18040:	48 89 85 20 ff ff ff 	mov    %rax,-0xe0(%rbp)
   18047:	48 8d 85 f8 f5 ff ff 	lea    -0xa08(%rbp),%rax
   1804e:	48 89 85 28 ff ff ff 	mov    %rax,-0xd8(%rbp)
   18055:	48 8d 85 f8 f5 ff ff 	lea    -0xa08(%rbp),%rax
   1805c:	48 89 85 30 ff ff ff 	mov    %rax,-0xd0(%rbp)
   18063:	48 8d 85 f8 f5 ff ff 	lea    -0xa08(%rbp),%rax
   1806a:	48 89 85 38 ff ff ff 	mov    %rax,-0xc8(%rbp)
   18071:	48 8d 85 f8 f5 ff ff 	lea    -0xa08(%rbp),%rax
   18078:	48 89 85 40 ff ff ff 	mov    %rax,-0xc0(%rbp)
   1807f:	48 8d 85 f8 f5 ff ff 	lea    -0xa08(%rbp),%rax
   18086:	48 89 85 48 ff ff ff 	mov    %rax,-0xb8(%rbp)
   1808d:	48 8d 85 f8 f5 ff ff 	lea    -0xa08(%rbp),%rax
   18094:	48 89 85 50 ff ff ff 	mov    %rax,-0xb0(%rbp)
   1809b:	48 8d 85 f8 f5 ff ff 	lea    -0xa08(%rbp),%rax
   180a2:	48 89 85 58 ff ff ff 	mov    %rax,-0xa8(%rbp)
   180a9:	48 8d 85 f8 f5 ff ff 	lea    -0xa08(%rbp),%rax
   180b0:	48 89 85 60 ff ff ff 	mov    %rax,-0xa0(%rbp)
   180b7:	48 8d 85 f8 f5 ff ff 	lea    -0xa08(%rbp),%rax
   180be:	48 89 85 68 ff ff ff 	mov    %rax,-0x98(%rbp)
   180c5:	48 8d 85 f8 f5 ff ff 	lea    -0xa08(%rbp),%rax
   180cc:	48 89 85 70 ff ff ff 	mov    %rax,-0x90(%rbp)
   180d3:	48 8d 85 f8 f5 ff ff 	lea    -0xa08(%rbp),%rax
   180da:	48 89 85 78 ff ff ff 	mov    %rax,-0x88(%rbp)
   180e1:	48 8d 85 f8 f5 ff ff 	lea    -0xa08(%rbp),%rax
   180e8:	48 89 45 80          	mov    %rax,-0x80(%rbp)
   180ec:	48 8d 85 f8 f5 ff ff 	lea    -0xa08(%rbp),%rax
   180f3:	48 89 45 88          	mov    %rax,-0x78(%rbp)
   180f7:	48 8d 85 f8 f5 ff ff 	lea    -0xa08(%rbp),%rax
   180fe:	48 89 45 90          	mov    %rax,-0x70(%rbp)
   18102:	48 8d 85 f8 f5 ff ff 	lea    -0xa08(%rbp),%rax
   18109:	48 89 45 98          	mov    %rax,-0x68(%rbp)
   1810d:	48 8d 85 f8 f5 ff ff 	lea    -0xa08(%rbp),%rax
   18114:	48 89 45 a0          	mov    %rax,-0x60(%rbp)
   18118:	48 8d 85 f8 f5 ff ff 	lea    -0xa08(%rbp),%rax
   1811f:	48 89 45 a8          	mov    %rax,-0x58(%rbp)
   18123:	48 8d 85 f8 f5 ff ff 	lea    -0xa08(%rbp),%rax
   1812a:	48 89 45 b0          	mov    %rax,-0x50(%rbp)
   1812e:	48 8d 85 f8 f5 ff ff 	lea    -0xa08(%rbp),%rax
   18135:	48 89 45 b8          	mov    %rax,-0x48(%rbp)
   18139:	48 8d 85 d0 f6 ff ff 	lea    -0x930(%rbp),%rax
   18140:	48 89 85 10 f6 ff ff 	mov    %rax,-0x9f0(%rbp)
   18147:	48 8d 05 aa b2 00 00 	lea    0xb2aa(%rip),%rax        # 233f8 <g_288>
   1814e:	48 89 85 18 f6 ff ff 	mov    %rax,-0x9e8(%rbp)
   18155:	48 8d 05 fc 8e 00 00 	lea    0x8efc(%rip),%rax        # 21058 <g_101>
   1815c:	48 89 85 20 f6 ff ff 	mov    %rax,-0x9e0(%rbp)
   18163:	48 8d 05 e6 8f 00 00 	lea    0x8fe6(%rip),%rax        # 21150 <g_500>
   1816a:	48 89 85 00 f6 ff ff 	mov    %rax,-0xa00(%rbp)
   18171:	48 8d 85 00 f6 ff ff 	lea    -0xa00(%rbp),%rax
   18178:	48 89 85 28 f6 ff ff 	mov    %rax,-0x9d8(%rbp)
   1817f:	c6 85 ad f5 ff ff 00 	movb   $0x0,-0xa53(%rbp)
   18186:	66 c7 85 b0 f5 ff ff 	movw   $0xfad,-0xa50(%rbp)
   1818d:	ad 0f 
   1818f:	c7 85 b4 f5 ff ff 00 	movl   $0x0,-0xa4c(%rbp)
   18196:	00 00 00 
   18199:	eb 4d                	jmp    181e8 <func_17+0xc94>
   1819b:	c7 85 bc f5 ff ff 00 	movl   $0x0,-0xa44(%rbp)
   181a2:	00 00 00 
   181a5:	eb 31                	jmp    181d8 <func_17+0xc84>
   181a7:	8b 85 bc f5 ff ff    	mov    -0xa44(%rbp),%eax
   181ad:	48 63 c8             	movslq %eax,%rcx
   181b0:	8b 85 b4 f5 ff ff    	mov    -0xa4c(%rbp),%eax
   181b6:	48 63 d0             	movslq %eax,%rdx
   181b9:	48 89 d0             	mov    %rdx,%rax
   181bc:	48 c1 e0 03          	shl    $0x3,%rax
   181c0:	48 29 d0             	sub    %rdx,%rax
   181c3:	48 01 c8             	add    %rcx,%rax
   181c6:	c7 84 85 80 f7 ff ff 	movl   $0xc862c701,-0x880(%rbp,%rax,4)
   181cd:	01 c7 62 c8 
   181d1:	83 85 bc f5 ff ff 01 	addl   $0x1,-0xa44(%rbp)
   181d8:	83 bd bc f5 ff ff 06 	cmpl   $0x6,-0xa44(%rbp)
   181df:	7e c6                	jle    181a7 <func_17+0xc53>
   181e1:	83 85 b4 f5 ff ff 01 	addl   $0x1,-0xa4c(%rbp)
   181e8:	83 bd b4 f5 ff ff 04 	cmpl   $0x4,-0xa4c(%rbp)
   181ef:	7e aa                	jle    1819b <func_17+0xc47>
   181f1:	c7 85 b4 f5 ff ff 00 	movl   $0x0,-0xa4c(%rbp)
   181f8:	00 00 00 
   181fb:	eb 1e                	jmp    1821b <func_17+0xcc7>
   181fd:	8b 85 b4 f5 ff ff    	mov    -0xa4c(%rbp),%eax
   18203:	48 98                	cltq   
   18205:	48 8d 15 3c 8e 00 00 	lea    0x8e3c(%rip),%rdx        # 21048 <g_98>
   1820c:	48 89 94 c5 00 f7 ff 	mov    %rdx,-0x900(%rbp,%rax,8)
   18213:	ff 
   18214:	83 85 b4 f5 ff ff 01 	addl   $0x1,-0xa4c(%rbp)
   1821b:	83 bd b4 f5 ff ff 03 	cmpl   $0x3,-0xa4c(%rbp)
   18222:	7e d9                	jle    181fd <func_17+0xca9>
   18224:	c7 85 b4 f5 ff ff 00 	movl   $0x0,-0xa4c(%rbp)
   1822b:	00 00 00 
   1822e:	eb 45                	jmp    18275 <func_17+0xd21>
   18230:	c7 85 bc f5 ff ff 00 	movl   $0x0,-0xa44(%rbp)
   18237:	00 00 00 
   1823a:	eb 29                	jmp    18265 <func_17+0xd11>
   1823c:	8b 85 bc f5 ff ff    	mov    -0xa44(%rbp),%eax
   18242:	48 98                	cltq   
   18244:	8b 95 b4 f5 ff ff    	mov    -0xa4c(%rbp),%edx
   1824a:	48 63 d2             	movslq %edx,%rdx
   1824d:	48 01 d2             	add    %rdx,%rdx
   18250:	48 01 d0             	add    %rdx,%rax
   18253:	c7 84 85 c8 f6 ff ff 	movl   $0x4a6f76ca,-0x938(%rbp,%rax,4)
   1825a:	ca 76 6f 4a 
   1825e:	83 85 bc f5 ff ff 01 	addl   $0x1,-0xa44(%rbp)
   18265:	83 bd bc f5 ff ff 01 	cmpl   $0x1,-0xa44(%rbp)
   1826c:	7e ce                	jle    1823c <func_17+0xce8>
   1826e:	83 85 b4 f5 ff ff 01 	addl   $0x1,-0xa4c(%rbp)
   18275:	83 bd b4 f5 ff ff 00 	cmpl   $0x0,-0xa4c(%rbp)
   1827c:	7e b2                	jle    18230 <func_17+0xcdc>
   1827e:	c7 85 b4 f5 ff ff 00 	movl   $0x0,-0xa4c(%rbp)
   18285:	00 00 00 
   18288:	eb 1b                	jmp    182a5 <func_17+0xd51>
   1828a:	8b 85 b4 f5 ff ff    	mov    -0xa4c(%rbp),%eax
   18290:	48 98                	cltq   
   18292:	48 c7 84 c5 d0 f6 ff 	movq   $0x0,-0x930(%rbp,%rax,8)
   18299:	ff 00 00 00 00 
   1829e:	83 85 b4 f5 ff ff 01 	addl   $0x1,-0xa4c(%rbp)
   182a5:	83 bd b4 f5 ff ff 01 	cmpl   $0x1,-0xa4c(%rbp)
   182ac:	7e dc                	jle    1828a <func_17+0xd36>
   182ae:	be 03 00 00 00       	mov    $0x3,%esi
   182b3:	bf 16 00 00 00       	mov    $0x16,%edi
   182b8:	e8 d0 29 ff ff       	callq  ac8d <safe_rshift_func_uint8_t_u_s>
   182bd:	84 c0                	test   %al,%al
   182bf:	0f 84 85 00 00 00    	je     1834a <func_17+0xdf6>
   182c5:	8b 85 88 f5 ff ff    	mov    -0xa78(%rbp),%eax
   182cb:	0f bf d8             	movswl %ax,%ebx
   182ce:	8b 05 7c 8d 00 00    	mov    0x8d7c(%rip),%eax        # 21050 <g_99>
   182d4:	85 c0                	test   %eax,%eax
   182d6:	74 11                	je     182e9 <func_17+0xd95>
   182d8:	8b 05 5e 8d 00 00    	mov    0x8d5e(%rip),%eax        # 2103c <g_8>
   182de:	85 c0                	test   %eax,%eax
   182e0:	74 07                	je     182e9 <func_17+0xd95>
   182e2:	b8 01 00 00 00       	mov    $0x1,%eax
   182e7:	eb 05                	jmp    182ee <func_17+0xd9a>
   182e9:	b8 00 00 00 00       	mov    $0x0,%eax
   182ee:	0f bf d0             	movswl %ax,%edx
   182f1:	8b 85 b8 f5 ff ff    	mov    -0xa48(%rbp),%eax
   182f7:	98                   	cwtl   
   182f8:	89 d6                	mov    %edx,%esi
   182fa:	89 c7                	mov    %eax,%edi
   182fc:	e8 d2 20 ff ff       	callq  a3d3 <safe_sub_func_int16_t_s_s>
   18301:	41 89 c4             	mov    %eax,%r12d
   18304:	be 01 00 00 00       	mov    $0x1,%esi
   18309:	bf 01 00 00 00       	mov    $0x1,%edi
   1830e:	e8 e2 20 ff ff       	callq  a3f5 <safe_mul_func_int16_t_s_s>
   18313:	66 41 39 c4          	cmp    %ax,%r12w
   18317:	0f 9d c0             	setge  %al
   1831a:	0f b6 c0             	movzbl %al,%eax
   1831d:	89 de                	mov    %ebx,%esi
   1831f:	89 c7                	mov    %eax,%edi
   18321:	e8 f0 20 ff ff       	callq  a416 <safe_mod_func_int16_t_s_s>
   18326:	83 bd b8 f5 ff ff 01 	cmpl   $0x1,-0xa48(%rbp)
   1832d:	0f 95 c0             	setne  %al
   18330:	0f b6 c0             	movzbl %al,%eax
   18333:	89 c6                	mov    %eax,%esi
   18335:	bf 01 00 00 00       	mov    $0x1,%edi
   1833a:	e8 54 28 ff ff       	callq  ab93 <safe_mul_func_uint8_t_u_u>
   1833f:	84 c0                	test   %al,%al
   18341:	74 07                	je     1834a <func_17+0xdf6>
   18343:	b8 01 00 00 00       	mov    $0x1,%eax
   18348:	eb 05                	jmp    1834f <func_17+0xdfb>
   1834a:	b8 00 00 00 00       	mov    $0x0,%eax
   1834f:	89 c2                	mov    %eax,%edx
   18351:	8b 85 b8 f5 ff ff    	mov    -0xa48(%rbp),%eax
   18357:	09 d0                	or     %edx,%eax
   18359:	0f b7 c0             	movzwl %ax,%eax
   1835c:	8b 95 b8 f5 ff ff    	mov    -0xa48(%rbp),%edx
   18362:	89 d6                	mov    %edx,%esi
   18364:	89 c7                	mov    %eax,%edi
   18366:	e8 53 2a ff ff       	callq  adbe <safe_lshift_func_uint16_t_u_s>
   1836b:	c7 85 b0 f7 ff ff 37 	movl   $0x5aae4a37,-0x850(%rbp)
   18372:	4a ae 5a 
   18375:	48 8b 05 7c b0 00 00 	mov    0xb07c(%rip),%rax        # 233f8 <g_288>
   1837c:	48 8d 95 80 f7 ff ff 	lea    -0x880(%rbp),%rdx
   18383:	48 83 c2 48          	add    $0x48,%rdx
   18387:	48 89 10             	mov    %rdx,(%rax)
   1838a:	c7 85 b8 f5 ff ff 00 	movl   $0x0,-0xa48(%rbp)
   18391:	00 00 00 
   18394:	e9 53 03 00 00       	jmpq   186ec <func_17+0x1198>
   18399:	48 c7 85 08 f6 ff ff 	movq   $0x0,-0x9f8(%rbp)
   183a0:	00 00 00 00 
   183a4:	48 c7 85 78 f6 ff ff 	movq   $0x0,-0x988(%rbp)
   183ab:	00 00 00 00 
   183af:	48 8d 85 10 f8 ff ff 	lea    -0x7f0(%rbp),%rax
   183b6:	48 8d 15 43 57 00 00 	lea    0x5743(%rip),%rdx        # 1db00 <g_953+0x1a40>
   183bd:	b9 24 00 00 00       	mov    $0x24,%ecx
   183c2:	48 89 c7             	mov    %rax,%rdi
   183c5:	48 89 d6             	mov    %rdx,%rsi
   183c8:	f3 48 a5             	rep movsq %ds:(%rsi),%es:(%rdi)
   183cb:	c7 85 f0 f5 ff ff fb 	movl   $0xfffffffb,-0xa10(%rbp)
   183d2:	ff ff ff 
   183d5:	48 c7 85 80 f6 ff ff 	movq   $0xfffffffffffffffe,-0x980(%rbp)
   183dc:	fe ff ff ff 
   183e0:	48 b8 c2 a1 64 d3 b2 	movabs $0x795797b2d364a1c2,%rax
   183e7:	97 57 79 
   183ea:	48 89 85 50 f7 ff ff 	mov    %rax,-0x8b0(%rbp)
   183f1:	48 89 85 58 f7 ff ff 	mov    %rax,-0x8a8(%rbp)
   183f8:	48 89 85 60 f7 ff ff 	mov    %rax,-0x8a0(%rbp)
   183ff:	48 89 85 68 f7 ff ff 	mov    %rax,-0x898(%rbp)
   18406:	48 89 85 70 f7 ff ff 	mov    %rax,-0x890(%rbp)
   1840d:	48 89 85 78 f7 ff ff 	mov    %rax,-0x888(%rbp)
   18414:	c7 05 a6 8c 00 00 00 	movl   $0x0,0x8ca6(%rip)        # 210c4 <g_353>
   1841b:	00 00 00 
   1841e:	e9 bc 00 00 00       	jmpq   184df <func_17+0xf8b>
   18423:	48 8d 05 4e 3c 00 00 	lea    0x3c4e(%rip),%rax        # 1c078 <g_394+0x18>
   1842a:	48 89 85 a0 f6 ff ff 	mov    %rax,-0x960(%rbp)
   18431:	48 8d 05 c0 af 00 00 	lea    0xafc0(%rip),%rax        # 233f8 <g_288>
   18438:	48 89 85 a8 f6 ff ff 	mov    %rax,-0x958(%rbp)
   1843f:	48 8d 05 fa 8c 00 00 	lea    0x8cfa(%rip),%rax        # 21140 <g_400>
   18446:	48 89 85 b0 f6 ff ff 	mov    %rax,-0x950(%rbp)
   1844d:	48 8d 05 fc b4 00 00 	lea    0xb4fc(%rip),%rax        # 23950 <g_520+0x10>
   18454:	48 89 85 b8 f6 ff ff 	mov    %rax,-0x948(%rbp)
   1845b:	c7 85 c0 f5 ff ff 00 	movl   $0x0,-0xa40(%rbp)
   18462:	00 00 00 
   18465:	eb 4f                	jmp    184b6 <func_17+0xf62>
   18467:	c7 85 c4 f5 ff ff 00 	movl   $0x0,-0xa3c(%rbp)
   1846e:	00 00 00 
   18471:	eb 33                	jmp    184a6 <func_17+0xf52>
   18473:	8b 85 c4 f5 ff ff    	mov    -0xa3c(%rbp),%eax
   18479:	48 63 c8             	movslq %eax,%rcx
   1847c:	8b 85 c0 f5 ff ff    	mov    -0xa40(%rbp),%eax
   18482:	48 63 d0             	movslq %eax,%rdx
   18485:	48 89 d0             	mov    %rdx,%rax
   18488:	48 01 c0             	add    %rax,%rax
   1848b:	48 01 d0             	add    %rdx,%rax
   1848e:	48 01 c0             	add    %rax,%rax
   18491:	48 01 c8             	add    %rcx,%rax
   18494:	c7 84 85 e0 f6 ff ff 	movl   $0x35cb6fe5,-0x920(%rbp,%rax,4)
   1849b:	e5 6f cb 35 
   1849f:	83 85 c4 f5 ff ff 01 	addl   $0x1,-0xa3c(%rbp)
   184a6:	83 bd c4 f5 ff ff 05 	cmpl   $0x5,-0xa3c(%rbp)
   184ad:	7e c4                	jle    18473 <func_17+0xf1f>
   184af:	83 85 c0 f5 ff ff 01 	addl   $0x1,-0xa40(%rbp)
   184b6:	83 bd c0 f5 ff ff 00 	cmpl   $0x0,-0xa40(%rbp)
   184bd:	7e a8                	jle    18467 <func_17+0xf13>
   184bf:	48 8b 05 c2 b2 00 00 	mov    0xb2c2(%rip),%rax        # 23788 <g_377>
   184c6:	48 8b 95 08 f6 ff ff 	mov    -0x9f8(%rbp),%rdx
   184cd:	48 89 10             	mov    %rdx,(%rax)
   184d0:	8b 05 ee 8b 00 00    	mov    0x8bee(%rip),%eax        # 210c4 <g_353>
   184d6:	83 e8 01             	sub    $0x1,%eax
   184d9:	89 05 e5 8b 00 00    	mov    %eax,0x8be5(%rip)        # 210c4 <g_353>
   184df:	8b 05 df 8b 00 00    	mov    0x8bdf(%rip),%eax        # 210c4 <g_353>
   184e5:	83 f8 fc             	cmp    $0xfffffffc,%eax
   184e8:	0f 8d 35 ff ff ff    	jge    18423 <func_17+0xecf>
   184ee:	48 c7 05 bf 8b 00 00 	movq   $0x0,0x8bbf(%rip)        # 210b8 <g_258>
   184f5:	00 00 00 00 
   184f9:	90                   	nop
   184fa:	48 8b 05 b7 8b 00 00 	mov    0x8bb7(%rip),%rax        # 210b8 <g_258>
   18501:	48 83 f8 10          	cmp    $0x10,%rax
   18505:	0f 8e bf 01 00 00    	jle    186ca <func_17+0x1176>
   1850b:	48 8d 05 2e 8c 00 00 	lea    0x8c2e(%rip),%rax        # 21140 <g_400>
   18512:	48 89 85 88 f6 ff ff 	mov    %rax,-0x978(%rbp)
   18519:	c7 85 f4 f5 ff ff 4e 	movl   $0x3404a54e,-0xa0c(%rbp)
   18520:	a5 04 34 
   18523:	48 8d 05 32 8c 00 00 	lea    0x8c32(%rip),%rax        # 2115c <g_569>
   1852a:	48 89 85 90 f6 ff ff 	mov    %rax,-0x970(%rbp)
   18531:	48 8d 85 ae f5 ff ff 	lea    -0xa52(%rbp),%rax
   18538:	48 89 85 98 f6 ff ff 	mov    %rax,-0x968(%rbp)
   1853f:	8b 85 9c f5 ff ff    	mov    -0xa64(%rbp),%eax
   18545:	0f b6 d8             	movzbl %al,%ebx
   18548:	8b 85 9c f5 ff ff    	mov    -0xa64(%rbp),%eax
   1854e:	44 0f b7 e0          	movzwl %ax,%r12d
   18552:	48 8b 05 b7 ae 00 00 	mov    0xaeb7(%rip),%rax        # 23410 <g_290>
   18559:	48 8b 00             	mov    (%rax),%rax
   1855c:	0f b6 00             	movzbl (%rax),%eax
   1855f:	0f b6 c0             	movzbl %al,%eax
   18562:	be 07 00 00 00       	mov    $0x7,%esi
   18567:	89 c7                	mov    %eax,%edi
   18569:	e8 97 26 ff ff       	callq  ac05 <safe_lshift_func_uint8_t_u_s>
   1856e:	0f b6 c0             	movzbl %al,%eax
   18571:	44 89 e6             	mov    %r12d,%esi
   18574:	89 c7                	mov    %eax,%edi
   18576:	e8 e1 27 ff ff       	callq  ad5c <safe_mod_func_uint16_t_u_u>
   1857b:	41 89 c6             	mov    %eax,%r14d
   1857e:	48 b8 b5 b0 1b 3f 58 	movabs $0xb150c1583f1bb0b5,%rax
   18585:	c1 50 b1 
   18588:	89 c2                	mov    %eax,%edx
   1858a:	48 8b 85 88 f6 ff ff 	mov    -0x978(%rbp),%rax
   18591:	66 89 10             	mov    %dx,(%rax)
   18594:	8b 85 9c f5 ff ff    	mov    -0xa64(%rbp),%eax
   1859a:	44 0f be e0          	movsbl %al,%r12d
   1859e:	0f b7 05 83 d1 00 00 	movzwl 0xd183(%rip),%eax        # 25728 <g_343>
   185a5:	44 0f be e8          	movsbl %al,%r13d
   185a9:	8b 85 f4 f5 ff ff    	mov    -0xa0c(%rbp),%eax
   185af:	0f bf d0             	movswl %ax,%edx
   185b2:	8b 85 40 f8 ff ff    	mov    -0x7c0(%rbp),%eax
   185b8:	89 c1                	mov    %eax,%ecx
   185ba:	48 8b 05 37 ae 00 00 	mov    0xae37(%rip),%rax        # 233f8 <g_288>
   185c1:	48 8b 00             	mov    (%rax),%rax
   185c4:	8b 00                	mov    (%rax),%eax
   185c6:	31 c8                	xor    %ecx,%eax
   185c8:	98                   	cwtl   
   185c9:	89 d6                	mov    %edx,%esi
   185cb:	89 c7                	mov    %eax,%edi
   185cd:	e8 e1 1d ff ff       	callq  a3b3 <safe_add_func_int16_t_s_s>
   185d2:	b9 01 00 00 00       	mov    $0x1,%ecx
   185d7:	48 8b 85 90 f6 ff ff 	mov    -0x970(%rbp),%rax
   185de:	0f b7 00             	movzwl (%rax),%eax
   185e1:	89 c2                	mov    %eax,%edx
   185e3:	89 c8                	mov    %ecx,%eax
   185e5:	09 d0                	or     %edx,%eax
   185e7:	89 c2                	mov    %eax,%edx
   185e9:	48 8b 85 90 f6 ff ff 	mov    -0x970(%rbp),%rax
   185f0:	66 89 10             	mov    %dx,(%rax)
   185f3:	48 8b 85 90 f6 ff ff 	mov    -0x970(%rbp),%rax
   185fa:	0f b7 00             	movzwl (%rax),%eax
   185fd:	0f b7 c0             	movzwl %ax,%eax
   18600:	8b 95 88 f5 ff ff    	mov    -0xa78(%rbp),%edx
   18606:	89 d6                	mov    %edx,%esi
   18608:	89 c7                	mov    %eax,%edi
   1860a:	e8 6b 28 ff ff       	callq  ae7a <safe_rshift_func_uint16_t_u_u>
   1860f:	b8 01 00 00 00       	mov    $0x1,%eax
   18614:	48 98                	cltq   
   18616:	48 be 09 36 c1 23 2b 	movabs $0xffedf12b23c13609,%rsi
   1861d:	f1 ed ff 
   18620:	48 89 c7             	mov    %rax,%rdi
   18623:	e8 23 2a ff ff       	callq  b04b <safe_sub_func_uint64_t_u_u>
   18628:	0f be c0             	movsbl %al,%eax
   1862b:	44 89 ee             	mov    %r13d,%esi
   1862e:	89 c7                	mov    %eax,%edi
   18630:	e8 9f 1b ff ff       	callq  a1d4 <safe_add_func_int8_t_s_s>
   18635:	48 8b 95 98 f6 ff ff 	mov    -0x968(%rbp),%rdx
   1863c:	0f b7 12             	movzwl (%rdx),%edx
   1863f:	66 98                	cbtw   
   18641:	21 c2                	and    %eax,%edx
   18643:	48 8b 85 98 f6 ff ff 	mov    -0x968(%rbp),%rax
   1864a:	66 89 10             	mov    %dx,(%rax)
   1864d:	48 8b 85 98 f6 ff ff 	mov    -0x968(%rbp),%rax
   18654:	0f b7 00             	movzwl (%rax),%eax
   18657:	48 0f bf d0          	movswq %ax,%rdx
   1865b:	48 8b 85 78 f7 ff ff 	mov    -0x888(%rbp),%rax
   18662:	48 39 c2             	cmp    %rax,%rdx
   18665:	0f 97 c0             	seta   %al
   18668:	0f b6 c0             	movzbl %al,%eax
   1866b:	44 89 e6             	mov    %r12d,%esi
   1866e:	89 c7                	mov    %eax,%edi
   18670:	e8 5f 1b ff ff       	callq  a1d4 <safe_add_func_int8_t_s_s>
   18675:	0f be c0             	movsbl %al,%eax
   18678:	83 e0 01             	and    $0x1,%eax
   1867b:	be 84 1e 00 00       	mov    $0x1e84,%esi
   18680:	89 c7                	mov    %eax,%edi
   18682:	e8 6e 1d ff ff       	callq  a3f5 <safe_mul_func_int16_t_s_s>
   18687:	44 09 f0             	or     %r14d,%eax
   1868a:	0f be d0             	movsbl %al,%edx
   1868d:	48 8b 05 94 b2 00 00 	mov    0xb294(%rip),%rax        # 23928 <g_496>
   18694:	48 8b 00             	mov    (%rax),%rax
   18697:	8b 05 97 89 00 00    	mov    0x8997(%rip),%eax        # 21034 <g_7+0x4>
   1869d:	0f be c0             	movsbl %al,%eax
   186a0:	89 d6                	mov    %edx,%esi
   186a2:	89 c7                	mov    %eax,%edi
   186a4:	e8 c1 1b ff ff       	callq  a26a <safe_div_func_int8_t_s_s>
   186a9:	0f b6 c0             	movzbl %al,%eax
   186ac:	89 de                	mov    %ebx,%esi
   186ae:	89 c7                	mov    %eax,%edi
   186b0:	e8 a5 24 ff ff       	callq  ab5a <safe_add_func_uint8_t_u_u>
   186b5:	c7 85 40 f8 ff ff 01 	movl   $0x1,-0x7c0(%rbp)
   186bc:	00 00 00 
   186bf:	8b 05 7b 89 00 00    	mov    0x897b(%rip),%eax        # 21040 <g_9>
   186c5:	e9 78 08 00 00       	jmpq   18f42 <func_17+0x19ee>
   186ca:	48 8b 85 90 f5 ff ff 	mov    -0xa70(%rbp),%rax
   186d1:	48 85 c0             	test   %rax,%rax
   186d4:	8b 85 b8 f5 ff ff    	mov    -0xa48(%rbp),%eax
   186da:	be 08 00 00 00       	mov    $0x8,%esi
   186df:	89 c7                	mov    %eax,%edi
   186e1:	e8 d0 1e ff ff       	callq  a5b6 <safe_add_func_int32_t_s_s>
   186e6:	89 85 b8 f5 ff ff    	mov    %eax,-0xa48(%rbp)
   186ec:	83 bd b8 f5 ff ff 04 	cmpl   $0x4,-0xa48(%rbp)
   186f3:	0f 8e a0 fc ff ff    	jle    18399 <func_17+0xe45>
   186f9:	c7 85 88 f5 ff ff 00 	movl   $0x0,-0xa78(%rbp)
   18700:	00 00 00 
   18703:	e9 23 08 00 00       	jmpq   18f2b <func_17+0x19d7>
   18708:	48 8d 05 39 89 00 00 	lea    0x8939(%rip),%rax        # 21048 <g_98>
   1870f:	48 89 85 08 f6 ff ff 	mov    %rax,-0x9f8(%rbp)
   18716:	48 8d 85 08 f6 ff ff 	lea    -0x9f8(%rbp),%rax
   1871d:	48 89 85 30 f6 ff ff 	mov    %rax,-0x9d0(%rbp)
   18724:	48 8d 85 d0 f6 ff ff 	lea    -0x930(%rbp),%rax
   1872b:	48 83 c0 08          	add    $0x8,%rax
   1872f:	48 89 85 10 f8 ff ff 	mov    %rax,-0x7f0(%rbp)
   18736:	48 8d 85 d0 f6 ff ff 	lea    -0x930(%rbp),%rax
   1873d:	48 89 85 18 f8 ff ff 	mov    %rax,-0x7e8(%rbp)
   18744:	48 8d 85 d0 f6 ff ff 	lea    -0x930(%rbp),%rax
   1874b:	48 89 85 20 f8 ff ff 	mov    %rax,-0x7e0(%rbp)
   18752:	48 8d 85 d0 f6 ff ff 	lea    -0x930(%rbp),%rax
   18759:	48 83 c0 08          	add    $0x8,%rax
   1875d:	48 89 85 28 f8 ff ff 	mov    %rax,-0x7d8(%rbp)
   18764:	48 8d 85 d0 f6 ff ff 	lea    -0x930(%rbp),%rax
   1876b:	48 89 85 30 f8 ff ff 	mov    %rax,-0x7d0(%rbp)
   18772:	48 8d 85 d0 f6 ff ff 	lea    -0x930(%rbp),%rax
   18779:	48 89 85 38 f8 ff ff 	mov    %rax,-0x7c8(%rbp)
   18780:	48 8d 85 d0 f6 ff ff 	lea    -0x930(%rbp),%rax
   18787:	48 83 c0 08          	add    $0x8,%rax
   1878b:	48 89 85 40 f8 ff ff 	mov    %rax,-0x7c0(%rbp)
   18792:	48 8d 85 d0 f6 ff ff 	lea    -0x930(%rbp),%rax
   18799:	48 89 85 48 f8 ff ff 	mov    %rax,-0x7b8(%rbp)
   187a0:	48 8d 85 d0 f6 ff ff 	lea    -0x930(%rbp),%rax
   187a7:	48 89 85 50 f8 ff ff 	mov    %rax,-0x7b0(%rbp)
   187ae:	48 8d 85 d0 f6 ff ff 	lea    -0x930(%rbp),%rax
   187b5:	48 83 c0 08          	add    $0x8,%rax
   187b9:	48 89 85 58 f8 ff ff 	mov    %rax,-0x7a8(%rbp)
   187c0:	48 8d 85 d0 f6 ff ff 	lea    -0x930(%rbp),%rax
   187c7:	48 89 85 60 f8 ff ff 	mov    %rax,-0x7a0(%rbp)
   187ce:	48 8d 85 d0 f6 ff ff 	lea    -0x930(%rbp),%rax
   187d5:	48 89 85 68 f8 ff ff 	mov    %rax,-0x798(%rbp)
   187dc:	48 8d 85 d0 f6 ff ff 	lea    -0x930(%rbp),%rax
   187e3:	48 83 c0 08          	add    $0x8,%rax
   187e7:	48 89 85 70 f8 ff ff 	mov    %rax,-0x790(%rbp)
   187ee:	48 8d 85 d0 f6 ff ff 	lea    -0x930(%rbp),%rax
   187f5:	48 89 85 78 f8 ff ff 	mov    %rax,-0x788(%rbp)
   187fc:	48 8d 85 d0 f6 ff ff 	lea    -0x930(%rbp),%rax
   18803:	48 89 85 80 f8 ff ff 	mov    %rax,-0x780(%rbp)
   1880a:	48 8d 85 d0 f6 ff ff 	lea    -0x930(%rbp),%rax
   18811:	48 83 c0 08          	add    $0x8,%rax
   18815:	48 89 85 88 f8 ff ff 	mov    %rax,-0x778(%rbp)
   1881c:	48 8d 85 d0 f6 ff ff 	lea    -0x930(%rbp),%rax
   18823:	48 89 85 90 f8 ff ff 	mov    %rax,-0x770(%rbp)
   1882a:	48 8d 85 d0 f6 ff ff 	lea    -0x930(%rbp),%rax
   18831:	48 89 85 98 f8 ff ff 	mov    %rax,-0x768(%rbp)
   18838:	48 8d 85 d0 f6 ff ff 	lea    -0x930(%rbp),%rax
   1883f:	48 83 c0 08          	add    $0x8,%rax
   18843:	48 89 85 a0 f8 ff ff 	mov    %rax,-0x760(%rbp)
   1884a:	48 8d 85 d0 f6 ff ff 	lea    -0x930(%rbp),%rax
   18851:	48 89 85 a8 f8 ff ff 	mov    %rax,-0x758(%rbp)
   18858:	48 8d 85 d0 f6 ff ff 	lea    -0x930(%rbp),%rax
   1885f:	48 89 85 b0 f8 ff ff 	mov    %rax,-0x750(%rbp)
   18866:	48 8d 85 d0 f6 ff ff 	lea    -0x930(%rbp),%rax
   1886d:	48 83 c0 08          	add    $0x8,%rax
   18871:	48 89 85 b8 f8 ff ff 	mov    %rax,-0x748(%rbp)
   18878:	48 8d 85 d0 f6 ff ff 	lea    -0x930(%rbp),%rax
   1887f:	48 89 85 c0 f8 ff ff 	mov    %rax,-0x740(%rbp)
   18886:	48 8d 85 d0 f6 ff ff 	lea    -0x930(%rbp),%rax
   1888d:	48 89 85 c8 f8 ff ff 	mov    %rax,-0x738(%rbp)
   18894:	48 8d 85 d0 f6 ff ff 	lea    -0x930(%rbp),%rax
   1889b:	48 83 c0 08          	add    $0x8,%rax
   1889f:	48 89 85 d0 f8 ff ff 	mov    %rax,-0x730(%rbp)
   188a6:	48 8d 85 d0 f6 ff ff 	lea    -0x930(%rbp),%rax
   188ad:	48 89 85 d8 f8 ff ff 	mov    %rax,-0x728(%rbp)
   188b4:	48 8d 85 d0 f6 ff ff 	lea    -0x930(%rbp),%rax
   188bb:	48 89 85 e0 f8 ff ff 	mov    %rax,-0x720(%rbp)
   188c2:	48 8d 85 d0 f6 ff ff 	lea    -0x930(%rbp),%rax
   188c9:	48 83 c0 08          	add    $0x8,%rax
   188cd:	48 89 85 e8 f8 ff ff 	mov    %rax,-0x718(%rbp)
   188d4:	48 8d 85 d0 f6 ff ff 	lea    -0x930(%rbp),%rax
   188db:	48 89 85 f0 f8 ff ff 	mov    %rax,-0x710(%rbp)
   188e2:	48 8d 85 d0 f6 ff ff 	lea    -0x930(%rbp),%rax
   188e9:	48 89 85 f8 f8 ff ff 	mov    %rax,-0x708(%rbp)
   188f0:	48 c7 85 38 f6 ff ff 	movq   $0x0,-0x9c8(%rbp)
   188f7:	00 00 00 00 
   188fb:	48 8d 05 58 88 00 00 	lea    0x8858(%rip),%rax        # 2115a <g_501+0x2>
   18902:	48 89 85 40 f6 ff ff 	mov    %rax,-0x9c0(%rbp)
   18909:	48 c7 85 48 f6 ff ff 	movq   $0xfffffffffffffffb,-0x9b8(%rbp)
   18910:	fb ff ff ff 
   18914:	66 c7 85 b2 f5 ff ff 	movw   $0xffff,-0xa4e(%rbp)
   1891b:	ff ff 
   1891d:	8b 85 88 f5 ff ff    	mov    -0xa78(%rbp),%eax
   18923:	83 c0 01             	add    $0x1,%eax
   18926:	89 c0                	mov    %eax,%eax
   18928:	48 8d 14 c5 00 00 00 	lea    0x0(,%rax,8),%rdx
   1892f:	00 
   18930:	48 8d 05 69 ce 00 00 	lea    0xce69(%rip),%rax        # 257a0 <g_497>
   18937:	48 8b 04 02          	mov    (%rdx,%rax,1),%rax
   1893b:	48 85 c0             	test   %rax,%rax
   1893e:	0f 85 f6 05 00 00    	jne    18f3a <func_17+0x19e6>
   18944:	48 8b 05 c5 aa 00 00 	mov    0xaac5(%rip),%rax        # 23410 <g_290>
   1894b:	48 8b 00             	mov    (%rax),%rax
   1894e:	0f b6 00             	movzbl (%rax),%eax
   18951:	0f b6 d8             	movzbl %al,%ebx
   18954:	44 8b 25 d9 86 00 00 	mov    0x86d9(%rip),%r12d        # 21034 <g_7+0x4>
   1895b:	48 8b 85 88 f8 ff ff 	mov    -0x778(%rbp),%rax
   18962:	48 85 c0             	test   %rax,%rax
   18965:	0f 95 c0             	setne  %al
   18968:	44 0f b6 e8          	movzbl %al,%r13d
   1896c:	0f b7 05 e9 87 00 00 	movzwl 0x87e9(%rip),%eax        # 2115c <g_569>
   18973:	0f b7 c0             	movzwl %ax,%eax
   18976:	8b 95 9c f5 ff ff    	mov    -0xa64(%rbp),%edx
   1897c:	89 d6                	mov    %edx,%esi
   1897e:	89 c7                	mov    %eax,%edi
   18980:	e8 78 25 ff ff       	callq  aefd <safe_mod_func_uint32_t_u_u>
   18985:	41 39 c5             	cmp    %eax,%r13d
   18988:	0f 92 c2             	setb   %dl
   1898b:	48 8b 05 2e aa 00 00 	mov    0xaa2e(%rip),%rax        # 233c0 <g_103>
   18992:	0f b6 d2             	movzbl %dl,%edx
   18995:	89 10                	mov    %edx,(%rax)
   18997:	8b 00                	mov    (%rax),%eax
   18999:	44 89 e6             	mov    %r12d,%esi
   1899c:	89 c7                	mov    %eax,%edi
   1899e:	e8 5c 1d ff ff       	callq  a6ff <safe_div_func_int32_t_s_s>
   189a3:	0f b6 c0             	movzbl %al,%eax
   189a6:	83 e0 02             	and    $0x2,%eax
   189a9:	89 de                	mov    %ebx,%esi
   189ab:	89 c7                	mov    %eax,%edi
   189ad:	e8 0c 23 ff ff       	callq  acbe <safe_rshift_func_uint8_t_u_u>
   189b2:	0f b6 c0             	movzbl %al,%eax
   189b5:	48 be 92 2e 84 aa fc 	movabs $0x2ea948fcaa842e92,%rsi
   189bc:	48 a9 2e 
   189bf:	48 89 c7             	mov    %rax,%rdi
   189c2:	e8 b9 26 ff ff       	callq  b080 <safe_mod_func_uint64_t_u_u>
   189c7:	48 83 c8 01          	or     $0x1,%rax
   189cb:	48 89 c6             	mov    %rax,%rsi
   189ce:	48 8d 85 00 f7 ff ff 	lea    -0x900(%rbp),%rax
   189d5:	48 39 85 30 f6 ff ff 	cmp    %rax,-0x9d0(%rbp)
   189dc:	0f 95 c0             	setne  %al
   189df:	0f b6 d0             	movzbl %al,%edx
   189e2:	48 8b 85 40 f6 ff ff 	mov    -0x9c0(%rbp),%rax
   189e9:	0f b6 00             	movzbl (%rax),%eax
   189ec:	89 c1                	mov    %eax,%ecx
   189ee:	89 f0                	mov    %esi,%eax
   189f0:	21 c8                	and    %ecx,%eax
   189f2:	89 c1                	mov    %eax,%ecx
   189f4:	48 8b 85 40 f6 ff ff 	mov    -0x9c0(%rbp),%rax
   189fb:	88 08                	mov    %cl,(%rax)
   189fd:	48 8b 85 40 f6 ff ff 	mov    -0x9c0(%rbp),%rax
   18a04:	0f b6 00             	movzbl (%rax),%eax
   18a07:	0f be c0             	movsbl %al,%eax
   18a0a:	39 c2                	cmp    %eax,%edx
   18a0c:	0f 95 c0             	setne  %al
   18a0f:	0f b6 d0             	movzbl %al,%edx
   18a12:	0f b7 85 98 f5 ff ff 	movzwl -0xa68(%rbp),%eax
   18a19:	48 89 d6             	mov    %rdx,%rsi
   18a1c:	48 89 c7             	mov    %rax,%rdi
   18a1f:	e8 1d 1e ff ff       	callq  a841 <safe_add_func_int64_t_s_s>
   18a24:	48 85 c0             	test   %rax,%rax
   18a27:	74 07                	je     18a30 <func_17+0x14dc>
   18a29:	b8 01 00 00 00       	mov    $0x1,%eax
   18a2e:	eb 05                	jmp    18a35 <func_17+0x14e1>
   18a30:	b8 00 00 00 00       	mov    $0x0,%eax
   18a35:	89 c2                	mov    %eax,%edx
   18a37:	0f b6 05 20 87 00 00 	movzbl 0x8720(%rip),%eax        # 2115e <g_588>
   18a3e:	09 d0                	or     %edx,%eax
   18a40:	88 05 18 87 00 00    	mov    %al,0x8718(%rip)        # 2115e <g_588>
   18a46:	48 c7 05 67 86 00 00 	movq   $0x2,0x8667(%rip)        # 210b8 <g_258>
   18a4d:	02 00 00 00 
   18a51:	e9 44 03 00 00       	jmpq   18d9a <func_17+0x1846>
   18a56:	c6 85 ac f5 ff ff 80 	movb   $0x80,-0xa54(%rbp)
   18a5d:	c7 85 d4 f5 ff ff ff 	movl   $0xffffffff,-0xa2c(%rbp)
   18a64:	ff ff ff 
   18a67:	c7 85 d8 f5 ff ff 35 	movl   $0xb510d235,-0xa28(%rbp)
   18a6e:	d2 10 b5 
   18a71:	c7 85 dc f5 ff ff f7 	movl   $0xfffffff7,-0xa24(%rbp)
   18a78:	ff ff ff 
   18a7b:	c7 85 c8 f5 ff ff 00 	movl   $0x0,-0xa38(%rbp)
   18a82:	00 00 00 
   18a85:	eb 1a                	jmp    18aa1 <func_17+0x154d>
   18a87:	8b 85 c8 f5 ff ff    	mov    -0xa38(%rbp),%eax
   18a8d:	48 98                	cltq   
   18a8f:	c7 84 85 50 f7 ff ff 	movl   $0x95117af3,-0x8b0(%rbp,%rax,4)
   18a96:	f3 7a 11 95 
   18a9a:	83 85 c8 f5 ff ff 01 	addl   $0x1,-0xa38(%rbp)
   18aa1:	83 bd c8 f5 ff ff 04 	cmpl   $0x4,-0xa38(%rbp)
   18aa8:	7e dd                	jle    18a87 <func_17+0x1533>
   18aaa:	66 c7 05 8d 86 00 00 	movw   $0x2,0x868d(%rip)        # 21140 <g_400>
   18ab1:	02 00 
   18ab3:	e9 bf 02 00 00       	jmpq   18d77 <func_17+0x1823>
   18ab8:	c7 85 e0 f5 ff ff a2 	movl   $0x6b7900a2,-0xa20(%rbp)
   18abf:	00 79 6b 
   18ac2:	48 8d 05 97 86 00 00 	lea    0x8697(%rip),%rax        # 21160 <g_622>
   18ac9:	48 89 85 50 f6 ff ff 	mov    %rax,-0x9b0(%rbp)
   18ad0:	c7 85 e4 f5 ff ff 74 	movl   $0x97f83074,-0xa1c(%rbp)
   18ad7:	30 f8 97 
   18ada:	c7 85 e8 f5 ff ff c9 	movl   $0x3df409c9,-0xa18(%rbp)
   18ae1:	09 f4 3d 
   18ae4:	c7 85 ec f5 ff ff b6 	movl   $0xff7215b6,-0xa14(%rbp)
   18aeb:	15 72 ff 
   18aee:	48 b8 de 59 7a 5b 6f 	movabs $0x2ee6366f5b7a59de,%rax
   18af5:	36 e6 2e 
   18af8:	48 89 85 58 f6 ff ff 	mov    %rax,-0x9a8(%rbp)
   18aff:	48 8d 05 62 85 00 00 	lea    0x8562(%rip),%rax        # 21068 <g_108+0x8>
   18b06:	48 89 85 60 f6 ff ff 	mov    %rax,-0x9a0(%rbp)
   18b0d:	c7 85 cc f5 ff ff 00 	movl   $0x0,-0xa34(%rbp)
   18b14:	00 00 00 
   18b17:	eb 1a                	jmp    18b33 <func_17+0x15df>
   18b19:	8b 85 cc f5 ff ff    	mov    -0xa34(%rbp),%eax
   18b1f:	48 98                	cltq   
   18b21:	c7 84 85 e0 f6 ff ff 	movl   $0xfffffffe,-0x920(%rbp,%rax,4)
   18b28:	fe ff ff ff 
   18b2c:	83 85 cc f5 ff ff 01 	addl   $0x1,-0xa34(%rbp)
   18b33:	83 bd cc f5 ff ff 01 	cmpl   $0x1,-0xa34(%rbp)
   18b3a:	7e dd                	jle    18b19 <func_17+0x15c5>
   18b3c:	c7 85 9c f5 ff ff 01 	movl   $0x1,-0xa64(%rbp)
   18b43:	00 00 00 
   18b46:	e9 0e 02 00 00       	jmpq   18d59 <func_17+0x1805>
   18b4b:	48 b8 30 d4 da 21 f9 	movabs $0xfb0436f921dad430,%rax
   18b52:	36 04 fb 
   18b55:	48 89 85 68 f6 ff ff 	mov    %rax,-0x998(%rbp)
   18b5c:	c7 85 b8 f5 ff ff 00 	movl   $0x0,-0xa48(%rbp)
   18b63:	00 00 00 
   18b66:	e9 b7 01 00 00       	jmpq   18d22 <func_17+0x17ce>
   18b6b:	48 8d 05 ec 85 00 00 	lea    0x85ec(%rip),%rax        # 2115e <g_588>
   18b72:	48 89 85 70 f6 ff ff 	mov    %rax,-0x990(%rbp)
   18b79:	c7 85 d0 f5 ff ff 00 	movl   $0x0,-0xa30(%rbp)
   18b80:	00 00 00 
   18b83:	eb 1e                	jmp    18ba3 <func_17+0x164f>
   18b85:	8b 85 d0 f5 ff ff    	mov    -0xa30(%rbp),%eax
   18b8b:	48 98                	cltq   
   18b8d:	48 8d 15 94 cb 00 00 	lea    0xcb94(%rip),%rdx        # 25728 <g_343>
   18b94:	48 89 94 c5 c0 f6 ff 	mov    %rdx,-0x940(%rbp,%rax,8)
   18b9b:	ff 
   18b9c:	83 85 d0 f5 ff ff 01 	addl   $0x1,-0xa30(%rbp)
   18ba3:	83 bd d0 f5 ff ff 00 	cmpl   $0x0,-0xa30(%rbp)
   18baa:	7e d9                	jle    18b85 <func_17+0x1631>
   18bac:	48 8b 85 18 f6 ff ff 	mov    -0x9e8(%rbp),%rax
   18bb3:	48 8b 00             	mov    (%rax),%rax
   18bb6:	48 8b 00             	mov    (%rax),%rax
   18bb9:	8b 08                	mov    (%rax),%ecx
   18bbb:	0f b7 95 98 f5 ff ff 	movzwl -0xa68(%rbp),%edx
   18bc2:	48 8b 85 18 f6 ff ff 	mov    -0x9e8(%rbp),%rax
   18bc9:	48 8b 00             	mov    (%rax),%rax
   18bcc:	48 8b 00             	mov    (%rax),%rax
   18bcf:	09 ca                	or     %ecx,%edx
   18bd1:	89 10                	mov    %edx,(%rax)
   18bd3:	8b 08                	mov    (%rax),%ecx
   18bd5:	8b 85 b8 f5 ff ff    	mov    -0xa48(%rbp),%eax
   18bdb:	48 63 d0             	movslq %eax,%rdx
   18bde:	48 89 d0             	mov    %rdx,%rax
   18be1:	48 01 c0             	add    %rax,%rax
   18be4:	48 01 d0             	add    %rdx,%rax
   18be7:	48 c1 e0 02          	shl    $0x2,%rax
   18beb:	48 8d 5d d0          	lea    -0x30(%rbp),%rbx
   18bef:	48 01 d8             	add    %rbx,%rax
   18bf2:	48 2d 08 09 00 00    	sub    $0x908,%rax
   18bf8:	8b 00                	mov    (%rax),%eax
   18bfa:	0f b7 c0             	movzwl %ax,%eax
   18bfd:	89 ce                	mov    %ecx,%esi
   18bff:	89 c7                	mov    %eax,%edi
   18c01:	e8 b8 21 ff ff       	callq  adbe <safe_lshift_func_uint16_t_u_s>
   18c06:	48 b8 b5 b0 1b 3f 58 	movabs $0xb150c1583f1bb0b5,%rax
   18c0d:	c1 50 b1 
   18c10:	41 89 c5             	mov    %eax,%r13d
   18c13:	0f b7 85 98 f5 ff ff 	movzwl -0xa68(%rbp),%eax
   18c1a:	0f b6 d8             	movzbl %al,%ebx
   18c1d:	48 8b 85 90 f5 ff ff 	mov    -0xa70(%rbp),%rax
   18c24:	41 89 c6             	mov    %eax,%r14d
   18c27:	48 8b 85 90 f5 ff ff 	mov    -0xa70(%rbp),%rax
   18c2e:	44 0f be e0          	movsbl %al,%r12d
   18c32:	48 8b 85 48 f6 ff ff 	mov    -0x9b8(%rbp),%rax
   18c39:	41 89 c7             	mov    %eax,%r15d
   18c3c:	8b 95 e0 f5 ff ff    	mov    -0xa20(%rbp),%edx
   18c42:	83 bd 88 f5 ff ff 3e 	cmpl   $0x3e,-0xa78(%rbp)
   18c49:	0f 96 c0             	setbe  %al
   18c4c:	0f b6 c0             	movzbl %al,%eax
   18c4f:	89 d6                	mov    %edx,%esi
   18c51:	89 c7                	mov    %eax,%edi
   18c53:	e8 f4 1f ff ff       	callq  ac4c <safe_lshift_func_uint8_t_u_u>
   18c58:	0f b7 05 fd 84 00 00 	movzwl 0x84fd(%rip),%eax        # 2115c <g_569>
   18c5f:	66 85 c0             	test   %ax,%ax
   18c62:	0f 94 c0             	sete   %al
   18c65:	0f b6 c0             	movzbl %al,%eax
   18c68:	44 89 fe             	mov    %r15d,%esi
   18c6b:	89 c7                	mov    %eax,%edi
   18c6d:	e8 f1 18 ff ff       	callq  a563 <safe_rshift_func_int16_t_s_u>
   18c72:	0f be c0             	movsbl %al,%eax
   18c75:	44 89 e6             	mov    %r12d,%esi
   18c78:	89 c7                	mov    %eax,%edi
   18c7a:	e8 93 15 ff ff       	callq  a212 <safe_mul_func_int8_t_s_s>
   18c7f:	0f be c0             	movsbl %al,%eax
   18c82:	be ff ff ff ff       	mov    $0xffffffff,%esi
   18c87:	89 c7                	mov    %eax,%edi
   18c89:	e8 46 15 ff ff       	callq  a1d4 <safe_add_func_int8_t_s_s>
   18c8e:	66 98                	cbtw   
   18c90:	0f b7 c0             	movzwl %ax,%eax
   18c93:	44 89 f6             	mov    %r14d,%esi
   18c96:	89 c7                	mov    %eax,%edi
   18c98:	e8 dd 21 ff ff       	callq  ae7a <safe_rshift_func_uint16_t_u_u>
   18c9d:	0f be c0             	movsbl %al,%eax
   18ca0:	be 01 00 00 00       	mov    $0x1,%esi
   18ca5:	89 c7                	mov    %eax,%edi
   18ca7:	e8 85 15 ff ff       	callq  a231 <safe_mod_func_int8_t_s_s>
   18cac:	0f b6 d0             	movzbl %al,%edx
   18caf:	48 8b 05 52 a7 00 00 	mov    0xa752(%rip),%rax        # 23408 <g_291>
   18cb6:	c6 00 1b             	movb   $0x1b,(%rax)
   18cb9:	0f b6 08             	movzbl (%rax),%ecx
   18cbc:	48 8b 85 70 f6 ff ff 	mov    -0x990(%rbp),%rax
   18cc3:	88 08                	mov    %cl,(%rax)
   18cc5:	48 8b 85 70 f6 ff ff 	mov    -0x990(%rbp),%rax
   18ccc:	0f b6 00             	movzbl (%rax),%eax
   18ccf:	0f b6 c0             	movzbl %al,%eax
   18cd2:	89 d6                	mov    %edx,%esi
   18cd4:	89 c7                	mov    %eax,%edi
   18cd6:	e8 b8 1e ff ff       	callq  ab93 <safe_mul_func_uint8_t_u_u>
   18cdb:	0f b6 c0             	movzbl %al,%eax
   18cde:	89 de                	mov    %ebx,%esi
   18ce0:	89 c7                	mov    %eax,%edi
   18ce2:	e8 c7 1e ff ff       	callq  abae <safe_mod_func_uint8_t_u_u>
   18ce7:	0f b6 c0             	movzbl %al,%eax
   18cea:	44 89 ee             	mov    %r13d,%esi
   18ced:	89 c7                	mov    %eax,%edi
   18cef:	e8 c4 21 ff ff       	callq  aeb8 <safe_add_func_uint32_t_u_u>
   18cf4:	83 c8 7d             	or     $0x7d,%eax
   18cf7:	89 c2                	mov    %eax,%edx
   18cf9:	0f b6 85 8c f5 ff ff 	movzbl -0xa74(%rbp),%eax
   18d00:	89 d6                	mov    %edx,%esi
   18d02:	89 c7                	mov    %eax,%edi
   18d04:	e8 c7 21 ff ff       	callq  aed0 <safe_sub_func_uint32_t_u_u>
   18d09:	b8 01 00 00 00       	mov    $0x1,%eax
   18d0e:	08 85 ac f5 ff ff    	or     %al,-0xa54(%rbp)
   18d14:	83 bd 9c f5 ff ff 00 	cmpl   $0x0,-0xa64(%rbp)
   18d1b:	83 ad b8 f5 ff ff 01 	subl   $0x1,-0xa48(%rbp)
   18d22:	83 bd b8 f5 ff ff 00 	cmpl   $0x0,-0xa48(%rbp)
   18d29:	0f 89 3c fe ff ff    	jns    18b6b <func_17+0x1617>
   18d2f:	66 c7 85 ae f5 ff ff 	movw   $0x8,-0xa52(%rbp)
   18d36:	08 00 
   18d38:	90                   	nop
   18d39:	0f b7 85 ae f5 ff ff 	movzwl -0xa52(%rbp),%eax
   18d40:	66 83 f8 01          	cmp    $0x1,%ax
   18d44:	7e 0c                	jle    18d52 <func_17+0x17fe>
   18d46:	48 8b 85 68 f6 ff ff 	mov    -0x998(%rbp),%rax
   18d4d:	e9 f0 01 00 00       	jmpq   18f42 <func_17+0x19ee>
   18d52:	83 85 9c f5 ff ff 01 	addl   $0x1,-0xa64(%rbp)
   18d59:	83 bd 9c f5 ff ff 08 	cmpl   $0x8,-0xa64(%rbp)
   18d60:	0f 86 e5 fd ff ff    	jbe    18b4b <func_17+0x15f7>
   18d66:	0f b7 05 d3 83 00 00 	movzwl 0x83d3(%rip),%eax        # 21140 <g_400>
   18d6d:	83 c0 01             	add    $0x1,%eax
   18d70:	66 89 05 c9 83 00 00 	mov    %ax,0x83c9(%rip)        # 21140 <g_400>
   18d77:	0f b7 05 c2 83 00 00 	movzwl 0x83c2(%rip),%eax        # 21140 <g_400>
   18d7e:	66 83 f8 09          	cmp    $0x9,%ax
   18d82:	0f 86 30 fd ff ff    	jbe    18ab8 <func_17+0x1564>
   18d88:	48 8b 05 29 83 00 00 	mov    0x8329(%rip),%rax        # 210b8 <g_258>
   18d8f:	48 83 c0 01          	add    $0x1,%rax
   18d93:	48 89 05 1e 83 00 00 	mov    %rax,0x831e(%rip)        # 210b8 <g_258>
   18d9a:	48 8b 05 17 83 00 00 	mov    0x8317(%rip),%rax        # 210b8 <g_258>
   18da1:	48 83 f8 08          	cmp    $0x8,%rax
   18da5:	0f 8e ab fc ff ff    	jle    18a56 <func_17+0x1502>
   18dab:	48 8b 85 90 f5 ff ff 	mov    -0xa70(%rbp),%rax
   18db2:	0f b7 d8             	movzwl %ax,%ebx
   18db5:	0f b6 05 88 82 00 00 	movzbl 0x8288(%rip),%eax        # 21044 <g_63>
   18dbc:	89 c2                	mov    %eax,%edx
   18dbe:	48 8b 85 20 f6 ff ff 	mov    -0x9e0(%rbp),%rax
   18dc5:	88 10                	mov    %dl,(%rax)
   18dc7:	48 8b 85 20 f6 ff ff 	mov    -0x9e0(%rbp),%rax
   18dce:	0f b6 00             	movzbl (%rax),%eax
   18dd1:	66 44 0f be e8       	movsbw %al,%r13w
   18dd6:	4c 0f bf a5 b2 f5 ff 	movswq -0xa4e(%rbp),%r12
   18ddd:	ff 
   18dde:	8b 85 9c f5 ff ff    	mov    -0xa64(%rbp),%eax
   18de4:	83 f0 73             	xor    $0x73,%eax
   18de7:	0f b6 c0             	movzbl %al,%eax
   18dea:	be 1d 00 00 00       	mov    $0x1d,%esi
   18def:	89 c7                	mov    %eax,%edi
   18df1:	e8 64 1d ff ff       	callq  ab5a <safe_add_func_uint8_t_u_u>
   18df6:	0f b6 c0             	movzbl %al,%eax
   18df9:	4c 89 e6             	mov    %r12,%rsi
   18dfc:	48 89 c7             	mov    %rax,%rdi
   18dff:	e8 a4 1a ff ff       	callq  a8a8 <safe_sub_func_int64_t_s_s>
   18e04:	48 89 c6             	mov    %rax,%rsi
   18e07:	48 bf a2 11 8e 02 b6 	movabs $0x551256b6028e11a2,%rdi
   18e0e:	56 12 55 
   18e11:	e8 35 22 ff ff       	callq  b04b <safe_sub_func_uint64_t_u_u>
   18e16:	0f b7 c0             	movzwl %ax,%eax
   18e19:	be 01 00 00 00       	mov    $0x1,%esi
   18e1e:	89 c7                	mov    %eax,%edi
   18e20:	e8 e1 1f ff ff       	callq  ae06 <safe_lshift_func_uint16_t_u_u>
   18e25:	98                   	cwtl   
   18e26:	be 08 00 00 00       	mov    $0x8,%esi
   18e2b:	89 c7                	mov    %eax,%edi
   18e2d:	e8 60 16 ff ff       	callq  a492 <safe_lshift_func_int16_t_s_s>
   18e32:	0f bf d0             	movswl %ax,%edx
   18e35:	0f b6 05 08 82 00 00 	movzbl 0x8208(%rip),%eax        # 21044 <g_63>
   18e3c:	0f b6 c0             	movzbl %al,%eax
   18e3f:	39 c2                	cmp    %eax,%edx
   18e41:	0f 9e c0             	setle  %al
   18e44:	0f b6 c0             	movzbl %al,%eax
   18e47:	44 31 e8             	xor    %r13d,%eax
   18e4a:	0f b7 c0             	movzwl %ax,%eax
   18e4d:	89 de                	mov    %ebx,%esi
   18e4f:	89 c7                	mov    %eax,%edi
   18e51:	e8 06 1f ff ff       	callq  ad5c <safe_mod_func_uint16_t_u_u>
   18e56:	0f b7 c0             	movzwl %ax,%eax
   18e59:	39 85 9c f5 ff ff    	cmp    %eax,-0xa64(%rbp)
   18e5f:	0f 95 c0             	setne  %al
   18e62:	0f b6 d0             	movzbl %al,%edx
   18e65:	0f b7 85 98 f5 ff ff 	movzwl -0xa68(%rbp),%eax
   18e6c:	39 c2                	cmp    %eax,%edx
   18e6e:	0f 9f c0             	setg   %al
   18e71:	0f b6 d0             	movzbl %al,%edx
   18e74:	48 8b 85 18 f6 ff ff 	mov    -0x9e8(%rbp),%rax
   18e7b:	48 8b 00             	mov    (%rax),%rax
   18e7e:	48 8b 00             	mov    (%rax),%rax
   18e81:	8b 00                	mov    (%rax),%eax
   18e83:	39 c2                	cmp    %eax,%edx
   18e85:	0f 9f c0             	setg   %al
   18e88:	0f b6 d0             	movzbl %al,%edx
   18e8b:	48 8b 05 96 aa 00 00 	mov    0xaa96(%rip),%rax        # 23928 <g_496>
   18e92:	48 8b 00             	mov    (%rax),%rax
   18e95:	48 09 d0             	or     %rdx,%rax
   18e98:	48 89 c2             	mov    %rax,%rdx
   18e9b:	8b 85 88 f5 ff ff    	mov    -0xa78(%rbp),%eax
   18ea1:	48 89 d6             	mov    %rdx,%rsi
   18ea4:	48 89 c7             	mov    %rax,%rdi
   18ea7:	e8 4b 1b ff ff       	callq  a9f7 <safe_div_func_int64_t_s_s>
   18eac:	48 89 c2             	mov    %rax,%rdx
   18eaf:	0f b7 85 98 f5 ff ff 	movzwl -0xa68(%rbp),%eax
   18eb6:	48 89 d6             	mov    %rdx,%rsi
   18eb9:	48 89 c7             	mov    %rax,%rdi
   18ebc:	e8 8a 21 ff ff       	callq  b04b <safe_sub_func_uint64_t_u_u>
   18ec1:	48 89 c2             	mov    %rax,%rdx
   18ec4:	48 8b 05 f5 a4 00 00 	mov    0xa4f5(%rip),%rax        # 233c0 <g_103>
   18ecb:	89 10                	mov    %edx,(%rax)
   18ecd:	48 c7 85 90 f5 ff ff 	movq   $0x2,-0xa70(%rbp)
   18ed4:	02 00 00 00 
   18ed8:	eb 3d                	jmp    18f17 <func_17+0x19c3>
   18eda:	48 8b 05 17 a5 00 00 	mov    0xa517(%rip),%rax        # 233f8 <g_288>
   18ee1:	48 8b 00             	mov    (%rax),%rax
   18ee4:	8b 10                	mov    (%rax),%edx
   18ee6:	48 8b 85 90 f5 ff ff 	mov    -0xa70(%rbp),%rax
   18eed:	89 c1                	mov    %eax,%ecx
   18eef:	48 8b 05 02 a5 00 00 	mov    0xa502(%rip),%rax        # 233f8 <g_288>
   18ef6:	48 8b 00             	mov    (%rax),%rax
   18ef9:	31 ca                	xor    %ecx,%edx
   18efb:	89 10                	mov    %edx,(%rax)
   18efd:	66 83 bd 98 f5 ff ff 	cmpw   $0x0,-0xa68(%rbp)
   18f04:	00 
   18f05:	48 8b 85 90 f5 ff ff 	mov    -0xa70(%rbp),%rax
   18f0c:	48 83 c0 01          	add    $0x1,%rax
   18f10:	48 89 85 90 f5 ff ff 	mov    %rax,-0xa70(%rbp)
   18f17:	48 8b 85 90 f5 ff ff 	mov    -0xa70(%rbp),%rax
   18f1e:	48 83 f8 09          	cmp    $0x9,%rax
   18f22:	7e b6                	jle    18eda <func_17+0x1986>
   18f24:	83 85 88 f5 ff ff 01 	addl   $0x1,-0xa78(%rbp)
   18f2b:	83 bd 88 f5 ff ff 08 	cmpl   $0x8,-0xa78(%rbp)
   18f32:	0f 86 d0 f7 ff ff    	jbe    18708 <func_17+0x11b4>
   18f38:	eb 01                	jmp    18f3b <func_17+0x19e7>
   18f3a:	90                   	nop
   18f3b:	48 8b 85 90 f5 ff ff 	mov    -0xa70(%rbp),%rax
   18f42:	48 8b 5d c8          	mov    -0x38(%rbp),%rbx
   18f46:	64 48 33 1c 25 28 00 	xor    %fs:0x28,%rbx
   18f4d:	00 00 
   18f4f:	74 05                	je     18f56 <func_17+0x1a02>
   18f51:	e8 1a 11 ff ff       	callq  a070 <__stack_chk_fail@plt>
   18f56:	48 81 c4 58 0a 00 00 	add    $0xa58,%rsp
   18f5d:	5b                   	pop    %rbx
   18f5e:	41 5c                	pop    %r12
   18f60:	41 5d                	pop    %r13
   18f62:	41 5e                	pop    %r14
   18f64:	41 5f                	pop    %r15
   18f66:	5d                   	pop    %rbp
   18f67:	c3                   	retq   

0000000000018f68 <func_23>:
   18f68:	f3 0f 1e fa          	endbr64 
   18f6c:	55                   	push   %rbp
   18f6d:	48 89 e5             	mov    %rsp,%rbp
   18f70:	48 83 ec 40          	sub    $0x40,%rsp
   18f74:	89 f0                	mov    %esi,%eax
   18f76:	89 55 d4             	mov    %edx,-0x2c(%rbp)
   18f79:	89 4d d0             	mov    %ecx,-0x30(%rbp)
   18f7c:	44 89 c1             	mov    %r8d,%ecx
   18f7f:	89 fa                	mov    %edi,%edx
   18f81:	88 55 dc             	mov    %dl,-0x24(%rbp)
   18f84:	66 89 45 d8          	mov    %ax,-0x28(%rbp)
   18f88:	89 c8                	mov    %ecx,%eax
   18f8a:	88 45 cc             	mov    %al,-0x34(%rbp)
   18f8d:	64 48 8b 04 25 28 00 	mov    %fs:0x28,%rax
   18f94:	00 00 
   18f96:	48 89 45 f8          	mov    %rax,-0x8(%rbp)
   18f9a:	31 c0                	xor    %eax,%eax
   18f9c:	48 c7 45 e8 01 00 00 	movq   $0x1,-0x18(%rbp)
   18fa3:	00 
   18fa4:	c7 45 e4 00 00 00 00 	movl   $0x0,-0x1c(%rbp)
   18fab:	eb 12                	jmp    18fbf <func_23+0x57>
   18fad:	8b 45 e4             	mov    -0x1c(%rbp),%eax
   18fb0:	48 98                	cltq   
   18fb2:	48 c7 44 c5 f0 00 00 	movq   $0x0,-0x10(%rbp,%rax,8)
   18fb9:	00 00 
   18fbb:	83 45 e4 01          	addl   $0x1,-0x1c(%rbp)
   18fbf:	83 7d e4 00          	cmpl   $0x0,-0x1c(%rbp)
   18fc3:	7e e8                	jle    18fad <func_23+0x45>
   18fc5:	48 83 6d e8 01       	subq   $0x1,-0x18(%rbp)
   18fca:	0f b7 45 d8          	movzwl -0x28(%rbp),%eax
   18fce:	48 8b 75 f8          	mov    -0x8(%rbp),%rsi
   18fd2:	64 48 33 34 25 28 00 	xor    %fs:0x28,%rsi
   18fd9:	00 00 
   18fdb:	74 05                	je     18fe2 <func_23+0x7a>
   18fdd:	e8 8e 10 ff ff       	callq  a070 <__stack_chk_fail@plt>
   18fe2:	c9                   	leaveq 
   18fe3:	c3                   	retq   

0000000000018fe4 <func_31>:
   18fe4:	f3 0f 1e fa          	endbr64 
   18fe8:	55                   	push   %rbp
   18fe9:	48 89 e5             	mov    %rsp,%rbp
   18fec:	41 57                	push   %r15
   18fee:	41 56                	push   %r14
   18ff0:	41 55                	push   %r13
   18ff2:	41 54                	push   %r12
   18ff4:	53                   	push   %rbx
   18ff5:	48 81 ec d8 07 00 00 	sub    $0x7d8,%rsp
   18ffc:	89 f8                	mov    %edi,%eax
   18ffe:	88 85 0c f8 ff ff    	mov    %al,-0x7f4(%rbp)
   19004:	64 48 8b 04 25 28 00 	mov    %fs:0x28,%rax
   1900b:	00 00 
   1900d:	48 89 45 c8          	mov    %rax,-0x38(%rbp)
   19011:	31 c0                	xor    %eax,%eax
   19013:	48 b8 1f 85 df 5a 1c 	movabs $0x17290b1c5adf851f,%rax
   1901a:	0b 29 17 
   1901d:	48 89 85 30 f8 ff ff 	mov    %rax,-0x7d0(%rbp)
   19024:	66 c7 85 1a f8 ff ff 	movw   $0x1,-0x7e6(%rbp)
   1902b:	01 00 
   1902d:	c7 85 1c f8 ff ff 3f 	movl   $0x467b843f,-0x7e4(%rbp)
   19034:	84 7b 46 
   19037:	c7 85 20 f8 ff ff a5 	movl   $0x126096a5,-0x7e0(%rbp)
   1903e:	96 60 12 
   19041:	c6 85 0c f8 ff ff 10 	movb   $0x10,-0x7f4(%rbp)
   19048:	e9 c9 0e 00 00       	jmpq   19f16 <func_31+0xf32>
   1904d:	48 8d 05 f0 7f 00 00 	lea    0x7ff0(%rip),%rax        # 21044 <g_63>
   19054:	48 89 85 38 f8 ff ff 	mov    %rax,-0x7c8(%rbp)
   1905b:	c7 85 24 f8 ff ff 00 	movl   $0x0,-0x7dc(%rbp)
   19062:	00 00 00 
   19065:	48 8d 05 9c c6 00 00 	lea    0xc69c(%rip),%rax        # 25708 <g_37>
   1906c:	48 89 85 28 f8 ff ff 	mov    %rax,-0x7d8(%rbp)
   19073:	48 8d 85 28 f8 ff ff 	lea    -0x7d8(%rbp),%rax
   1907a:	48 89 85 40 f8 ff ff 	mov    %rax,-0x7c0(%rbp)
   19081:	48 8d 85 28 f8 ff ff 	lea    -0x7d8(%rbp),%rax
   19088:	48 89 85 48 f8 ff ff 	mov    %rax,-0x7b8(%rbp)
   1908f:	48 8d 85 28 f8 ff ff 	lea    -0x7d8(%rbp),%rax
   19096:	48 89 85 50 f8 ff ff 	mov    %rax,-0x7b0(%rbp)
   1909d:	48 8d 85 28 f8 ff ff 	lea    -0x7d8(%rbp),%rax
   190a4:	48 89 85 58 f8 ff ff 	mov    %rax,-0x7a8(%rbp)
   190ab:	48 8d 85 28 f8 ff ff 	lea    -0x7d8(%rbp),%rax
   190b2:	48 89 85 60 f8 ff ff 	mov    %rax,-0x7a0(%rbp)
   190b9:	48 8d 85 28 f8 ff ff 	lea    -0x7d8(%rbp),%rax
   190c0:	48 89 85 68 f8 ff ff 	mov    %rax,-0x798(%rbp)
   190c7:	48 8d 85 28 f8 ff ff 	lea    -0x7d8(%rbp),%rax
   190ce:	48 89 85 70 f8 ff ff 	mov    %rax,-0x790(%rbp)
   190d5:	48 8d 85 28 f8 ff ff 	lea    -0x7d8(%rbp),%rax
   190dc:	48 89 85 78 f8 ff ff 	mov    %rax,-0x788(%rbp)
   190e3:	48 8d 85 28 f8 ff ff 	lea    -0x7d8(%rbp),%rax
   190ea:	48 89 85 80 f8 ff ff 	mov    %rax,-0x780(%rbp)
   190f1:	48 8d 85 28 f8 ff ff 	lea    -0x7d8(%rbp),%rax
   190f8:	48 89 85 88 f8 ff ff 	mov    %rax,-0x778(%rbp)
   190ff:	48 8d 85 28 f8 ff ff 	lea    -0x7d8(%rbp),%rax
   19106:	48 89 85 90 f8 ff ff 	mov    %rax,-0x770(%rbp)
   1910d:	48 8d 85 28 f8 ff ff 	lea    -0x7d8(%rbp),%rax
   19114:	48 89 85 98 f8 ff ff 	mov    %rax,-0x768(%rbp)
   1911b:	48 8d 85 28 f8 ff ff 	lea    -0x7d8(%rbp),%rax
   19122:	48 89 85 a0 f8 ff ff 	mov    %rax,-0x760(%rbp)
   19129:	48 8d 85 28 f8 ff ff 	lea    -0x7d8(%rbp),%rax
   19130:	48 89 85 a8 f8 ff ff 	mov    %rax,-0x758(%rbp)
   19137:	48 8d 85 28 f8 ff ff 	lea    -0x7d8(%rbp),%rax
   1913e:	48 89 85 b0 f8 ff ff 	mov    %rax,-0x750(%rbp)
   19145:	48 8d 85 28 f8 ff ff 	lea    -0x7d8(%rbp),%rax
   1914c:	48 89 85 b8 f8 ff ff 	mov    %rax,-0x748(%rbp)
   19153:	48 8d 85 28 f8 ff ff 	lea    -0x7d8(%rbp),%rax
   1915a:	48 89 85 c0 f8 ff ff 	mov    %rax,-0x740(%rbp)
   19161:	48 8d 85 28 f8 ff ff 	lea    -0x7d8(%rbp),%rax
   19168:	48 89 85 c8 f8 ff ff 	mov    %rax,-0x738(%rbp)
   1916f:	48 8d 85 28 f8 ff ff 	lea    -0x7d8(%rbp),%rax
   19176:	48 89 85 d0 f8 ff ff 	mov    %rax,-0x730(%rbp)
   1917d:	48 8d 85 28 f8 ff ff 	lea    -0x7d8(%rbp),%rax
   19184:	48 89 85 d8 f8 ff ff 	mov    %rax,-0x728(%rbp)
   1918b:	48 8d 85 28 f8 ff ff 	lea    -0x7d8(%rbp),%rax
   19192:	48 89 85 e0 f8 ff ff 	mov    %rax,-0x720(%rbp)
   19199:	48 8d 85 28 f8 ff ff 	lea    -0x7d8(%rbp),%rax
   191a0:	48 89 85 e8 f8 ff ff 	mov    %rax,-0x718(%rbp)
   191a7:	48 8d 85 28 f8 ff ff 	lea    -0x7d8(%rbp),%rax
   191ae:	48 89 85 f0 f8 ff ff 	mov    %rax,-0x710(%rbp)
   191b5:	48 8d 85 28 f8 ff ff 	lea    -0x7d8(%rbp),%rax
   191bc:	48 89 85 f8 f8 ff ff 	mov    %rax,-0x708(%rbp)
   191c3:	48 8d 85 28 f8 ff ff 	lea    -0x7d8(%rbp),%rax
   191ca:	48 89 85 00 f9 ff ff 	mov    %rax,-0x700(%rbp)
   191d1:	48 8d 85 28 f8 ff ff 	lea    -0x7d8(%rbp),%rax
   191d8:	48 89 85 08 f9 ff ff 	mov    %rax,-0x6f8(%rbp)
   191df:	48 8d 85 28 f8 ff ff 	lea    -0x7d8(%rbp),%rax
   191e6:	48 89 85 10 f9 ff ff 	mov    %rax,-0x6f0(%rbp)
   191ed:	48 8d 85 28 f8 ff ff 	lea    -0x7d8(%rbp),%rax
   191f4:	48 89 85 18 f9 ff ff 	mov    %rax,-0x6e8(%rbp)
   191fb:	48 8d 85 28 f8 ff ff 	lea    -0x7d8(%rbp),%rax
   19202:	48 89 85 20 f9 ff ff 	mov    %rax,-0x6e0(%rbp)
   19209:	48 8d 85 28 f8 ff ff 	lea    -0x7d8(%rbp),%rax
   19210:	48 89 85 28 f9 ff ff 	mov    %rax,-0x6d8(%rbp)
   19217:	48 8d 85 28 f8 ff ff 	lea    -0x7d8(%rbp),%rax
   1921e:	48 89 85 30 f9 ff ff 	mov    %rax,-0x6d0(%rbp)
   19225:	48 8d 85 28 f8 ff ff 	lea    -0x7d8(%rbp),%rax
   1922c:	48 89 85 38 f9 ff ff 	mov    %rax,-0x6c8(%rbp)
   19233:	48 8d 85 28 f8 ff ff 	lea    -0x7d8(%rbp),%rax
   1923a:	48 89 85 40 f9 ff ff 	mov    %rax,-0x6c0(%rbp)
   19241:	48 8d 85 28 f8 ff ff 	lea    -0x7d8(%rbp),%rax
   19248:	48 89 85 48 f9 ff ff 	mov    %rax,-0x6b8(%rbp)
   1924f:	48 8d 85 28 f8 ff ff 	lea    -0x7d8(%rbp),%rax
   19256:	48 89 85 50 f9 ff ff 	mov    %rax,-0x6b0(%rbp)
   1925d:	48 8d 85 28 f8 ff ff 	lea    -0x7d8(%rbp),%rax
   19264:	48 89 85 58 f9 ff ff 	mov    %rax,-0x6a8(%rbp)
   1926b:	48 8d 85 28 f8 ff ff 	lea    -0x7d8(%rbp),%rax
   19272:	48 89 85 60 f9 ff ff 	mov    %rax,-0x6a0(%rbp)
   19279:	48 8d 85 28 f8 ff ff 	lea    -0x7d8(%rbp),%rax
   19280:	48 89 85 68 f9 ff ff 	mov    %rax,-0x698(%rbp)
   19287:	48 8d 85 28 f8 ff ff 	lea    -0x7d8(%rbp),%rax
   1928e:	48 89 85 70 f9 ff ff 	mov    %rax,-0x690(%rbp)
   19295:	48 8d 85 28 f8 ff ff 	lea    -0x7d8(%rbp),%rax
   1929c:	48 89 85 78 f9 ff ff 	mov    %rax,-0x688(%rbp)
   192a3:	48 8d 85 28 f8 ff ff 	lea    -0x7d8(%rbp),%rax
   192aa:	48 89 85 80 f9 ff ff 	mov    %rax,-0x680(%rbp)
   192b1:	48 8d 85 28 f8 ff ff 	lea    -0x7d8(%rbp),%rax
   192b8:	48 89 85 88 f9 ff ff 	mov    %rax,-0x678(%rbp)
   192bf:	48 8d 85 28 f8 ff ff 	lea    -0x7d8(%rbp),%rax
   192c6:	48 89 85 90 f9 ff ff 	mov    %rax,-0x670(%rbp)
   192cd:	48 8d 85 28 f8 ff ff 	lea    -0x7d8(%rbp),%rax
   192d4:	48 89 85 98 f9 ff ff 	mov    %rax,-0x668(%rbp)
   192db:	48 8d 85 28 f8 ff ff 	lea    -0x7d8(%rbp),%rax
   192e2:	48 89 85 a0 f9 ff ff 	mov    %rax,-0x660(%rbp)
   192e9:	48 8d 85 28 f8 ff ff 	lea    -0x7d8(%rbp),%rax
   192f0:	48 89 85 a8 f9 ff ff 	mov    %rax,-0x658(%rbp)
   192f7:	48 8d 85 28 f8 ff ff 	lea    -0x7d8(%rbp),%rax
   192fe:	48 89 85 b0 f9 ff ff 	mov    %rax,-0x650(%rbp)
   19305:	48 8d 85 28 f8 ff ff 	lea    -0x7d8(%rbp),%rax
   1930c:	48 89 85 b8 f9 ff ff 	mov    %rax,-0x648(%rbp)
   19313:	48 8d 85 28 f8 ff ff 	lea    -0x7d8(%rbp),%rax
   1931a:	48 89 85 c0 f9 ff ff 	mov    %rax,-0x640(%rbp)
   19321:	48 8d 85 28 f8 ff ff 	lea    -0x7d8(%rbp),%rax
   19328:	48 89 85 c8 f9 ff ff 	mov    %rax,-0x638(%rbp)
   1932f:	48 8d 85 28 f8 ff ff 	lea    -0x7d8(%rbp),%rax
   19336:	48 89 85 d0 f9 ff ff 	mov    %rax,-0x630(%rbp)
   1933d:	48 8d 85 28 f8 ff ff 	lea    -0x7d8(%rbp),%rax
   19344:	48 89 85 d8 f9 ff ff 	mov    %rax,-0x628(%rbp)
   1934b:	48 8d 85 28 f8 ff ff 	lea    -0x7d8(%rbp),%rax
   19352:	48 89 85 e0 f9 ff ff 	mov    %rax,-0x620(%rbp)
   19359:	48 8d 85 28 f8 ff ff 	lea    -0x7d8(%rbp),%rax
   19360:	48 89 85 e8 f9 ff ff 	mov    %rax,-0x618(%rbp)
   19367:	48 8d 85 28 f8 ff ff 	lea    -0x7d8(%rbp),%rax
   1936e:	48 89 85 f0 f9 ff ff 	mov    %rax,-0x610(%rbp)
   19375:	48 8d 85 28 f8 ff ff 	lea    -0x7d8(%rbp),%rax
   1937c:	48 89 85 f8 f9 ff ff 	mov    %rax,-0x608(%rbp)
   19383:	48 8d 85 28 f8 ff ff 	lea    -0x7d8(%rbp),%rax
   1938a:	48 89 85 00 fa ff ff 	mov    %rax,-0x600(%rbp)
   19391:	48 8d 85 28 f8 ff ff 	lea    -0x7d8(%rbp),%rax
   19398:	48 89 85 08 fa ff ff 	mov    %rax,-0x5f8(%rbp)
   1939f:	48 8d 85 28 f8 ff ff 	lea    -0x7d8(%rbp),%rax
   193a6:	48 89 85 10 fa ff ff 	mov    %rax,-0x5f0(%rbp)
   193ad:	48 8d 85 28 f8 ff ff 	lea    -0x7d8(%rbp),%rax
   193b4:	48 89 85 18 fa ff ff 	mov    %rax,-0x5e8(%rbp)
   193bb:	48 8d 85 28 f8 ff ff 	lea    -0x7d8(%rbp),%rax
   193c2:	48 89 85 20 fa ff ff 	mov    %rax,-0x5e0(%rbp)
   193c9:	48 8d 85 28 f8 ff ff 	lea    -0x7d8(%rbp),%rax
   193d0:	48 89 85 28 fa ff ff 	mov    %rax,-0x5d8(%rbp)
   193d7:	48 8d 85 28 f8 ff ff 	lea    -0x7d8(%rbp),%rax
   193de:	48 89 85 30 fa ff ff 	mov    %rax,-0x5d0(%rbp)
   193e5:	48 8d 85 28 f8 ff ff 	lea    -0x7d8(%rbp),%rax
   193ec:	48 89 85 38 fa ff ff 	mov    %rax,-0x5c8(%rbp)
   193f3:	48 8d 85 28 f8 ff ff 	lea    -0x7d8(%rbp),%rax
   193fa:	48 89 85 40 fa ff ff 	mov    %rax,-0x5c0(%rbp)
   19401:	48 8d 85 28 f8 ff ff 	lea    -0x7d8(%rbp),%rax
   19408:	48 89 85 48 fa ff ff 	mov    %rax,-0x5b8(%rbp)
   1940f:	48 8d 85 28 f8 ff ff 	lea    -0x7d8(%rbp),%rax
   19416:	48 89 85 50 fa ff ff 	mov    %rax,-0x5b0(%rbp)
   1941d:	48 8d 85 28 f8 ff ff 	lea    -0x7d8(%rbp),%rax
   19424:	48 89 85 58 fa ff ff 	mov    %rax,-0x5a8(%rbp)
   1942b:	48 8d 85 28 f8 ff ff 	lea    -0x7d8(%rbp),%rax
   19432:	48 89 85 60 fa ff ff 	mov    %rax,-0x5a0(%rbp)
   19439:	48 8d 85 28 f8 ff ff 	lea    -0x7d8(%rbp),%rax
   19440:	48 89 85 68 fa ff ff 	mov    %rax,-0x598(%rbp)
   19447:	48 8d 85 28 f8 ff ff 	lea    -0x7d8(%rbp),%rax
   1944e:	48 89 85 70 fa ff ff 	mov    %rax,-0x590(%rbp)
   19455:	48 8d 85 28 f8 ff ff 	lea    -0x7d8(%rbp),%rax
   1945c:	48 89 85 78 fa ff ff 	mov    %rax,-0x588(%rbp)
   19463:	48 8d 85 28 f8 ff ff 	lea    -0x7d8(%rbp),%rax
   1946a:	48 89 85 80 fa ff ff 	mov    %rax,-0x580(%rbp)
   19471:	48 8d 85 28 f8 ff ff 	lea    -0x7d8(%rbp),%rax
   19478:	48 89 85 88 fa ff ff 	mov    %rax,-0x578(%rbp)
   1947f:	48 8d 85 28 f8 ff ff 	lea    -0x7d8(%rbp),%rax
   19486:	48 89 85 90 fa ff ff 	mov    %rax,-0x570(%rbp)
   1948d:	48 8d 85 28 f8 ff ff 	lea    -0x7d8(%rbp),%rax
   19494:	48 89 85 98 fa ff ff 	mov    %rax,-0x568(%rbp)
   1949b:	48 8d 85 28 f8 ff ff 	lea    -0x7d8(%rbp),%rax
   194a2:	48 89 85 a0 fa ff ff 	mov    %rax,-0x560(%rbp)
   194a9:	48 8d 85 28 f8 ff ff 	lea    -0x7d8(%rbp),%rax
   194b0:	48 89 85 a8 fa ff ff 	mov    %rax,-0x558(%rbp)
   194b7:	48 8d 85 28 f8 ff ff 	lea    -0x7d8(%rbp),%rax
   194be:	48 89 85 b0 fa ff ff 	mov    %rax,-0x550(%rbp)
   194c5:	48 8d 85 28 f8 ff ff 	lea    -0x7d8(%rbp),%rax
   194cc:	48 89 85 b8 fa ff ff 	mov    %rax,-0x548(%rbp)
   194d3:	48 8d 85 28 f8 ff ff 	lea    -0x7d8(%rbp),%rax
   194da:	48 89 85 c0 fa ff ff 	mov    %rax,-0x540(%rbp)
   194e1:	48 8d 85 28 f8 ff ff 	lea    -0x7d8(%rbp),%rax
   194e8:	48 89 85 c8 fa ff ff 	mov    %rax,-0x538(%rbp)
   194ef:	48 8d 85 28 f8 ff ff 	lea    -0x7d8(%rbp),%rax
   194f6:	48 89 85 d0 fa ff ff 	mov    %rax,-0x530(%rbp)
   194fd:	48 8d 85 28 f8 ff ff 	lea    -0x7d8(%rbp),%rax
   19504:	48 89 85 d8 fa ff ff 	mov    %rax,-0x528(%rbp)
   1950b:	48 8d 85 28 f8 ff ff 	lea    -0x7d8(%rbp),%rax
   19512:	48 89 85 e0 fa ff ff 	mov    %rax,-0x520(%rbp)
   19519:	48 8d 85 28 f8 ff ff 	lea    -0x7d8(%rbp),%rax
   19520:	48 89 85 e8 fa ff ff 	mov    %rax,-0x518(%rbp)
   19527:	48 8d 85 28 f8 ff ff 	lea    -0x7d8(%rbp),%rax
   1952e:	48 89 85 f0 fa ff ff 	mov    %rax,-0x510(%rbp)
   19535:	48 8d 85 28 f8 ff ff 	lea    -0x7d8(%rbp),%rax
   1953c:	48 89 85 f8 fa ff ff 	mov    %rax,-0x508(%rbp)
   19543:	48 8d 85 28 f8 ff ff 	lea    -0x7d8(%rbp),%rax
   1954a:	48 89 85 00 fb ff ff 	mov    %rax,-0x500(%rbp)
   19551:	48 8d 85 28 f8 ff ff 	lea    -0x7d8(%rbp),%rax
   19558:	48 89 85 08 fb ff ff 	mov    %rax,-0x4f8(%rbp)
   1955f:	48 8d 85 28 f8 ff ff 	lea    -0x7d8(%rbp),%rax
   19566:	48 89 85 10 fb ff ff 	mov    %rax,-0x4f0(%rbp)
   1956d:	48 8d 85 28 f8 ff ff 	lea    -0x7d8(%rbp),%rax
   19574:	48 89 85 18 fb ff ff 	mov    %rax,-0x4e8(%rbp)
   1957b:	48 8d 85 28 f8 ff ff 	lea    -0x7d8(%rbp),%rax
   19582:	48 89 85 20 fb ff ff 	mov    %rax,-0x4e0(%rbp)
   19589:	48 8d 85 28 f8 ff ff 	lea    -0x7d8(%rbp),%rax
   19590:	48 89 85 28 fb ff ff 	mov    %rax,-0x4d8(%rbp)
   19597:	48 8d 85 28 f8 ff ff 	lea    -0x7d8(%rbp),%rax
   1959e:	48 89 85 30 fb ff ff 	mov    %rax,-0x4d0(%rbp)
   195a5:	48 8d 85 28 f8 ff ff 	lea    -0x7d8(%rbp),%rax
   195ac:	48 89 85 38 fb ff ff 	mov    %rax,-0x4c8(%rbp)
   195b3:	48 8d 85 28 f8 ff ff 	lea    -0x7d8(%rbp),%rax
   195ba:	48 89 85 40 fb ff ff 	mov    %rax,-0x4c0(%rbp)
   195c1:	48 8d 85 28 f8 ff ff 	lea    -0x7d8(%rbp),%rax
   195c8:	48 89 85 48 fb ff ff 	mov    %rax,-0x4b8(%rbp)
   195cf:	48 8d 85 28 f8 ff ff 	lea    -0x7d8(%rbp),%rax
   195d6:	48 89 85 50 fb ff ff 	mov    %rax,-0x4b0(%rbp)
   195dd:	48 8d 85 28 f8 ff ff 	lea    -0x7d8(%rbp),%rax
   195e4:	48 89 85 58 fb ff ff 	mov    %rax,-0x4a8(%rbp)
   195eb:	48 8d 85 28 f8 ff ff 	lea    -0x7d8(%rbp),%rax
   195f2:	48 89 85 60 fb ff ff 	mov    %rax,-0x4a0(%rbp)
   195f9:	48 8d 85 28 f8 ff ff 	lea    -0x7d8(%rbp),%rax
   19600:	48 89 85 68 fb ff ff 	mov    %rax,-0x498(%rbp)
   19607:	48 8d 85 28 f8 ff ff 	lea    -0x7d8(%rbp),%rax
   1960e:	48 89 85 70 fb ff ff 	mov    %rax,-0x490(%rbp)
   19615:	48 8d 85 28 f8 ff ff 	lea    -0x7d8(%rbp),%rax
   1961c:	48 89 85 78 fb ff ff 	mov    %rax,-0x488(%rbp)
   19623:	48 8d 85 28 f8 ff ff 	lea    -0x7d8(%rbp),%rax
   1962a:	48 89 85 80 fb ff ff 	mov    %rax,-0x480(%rbp)
   19631:	48 8d 85 28 f8 ff ff 	lea    -0x7d8(%rbp),%rax
   19638:	48 89 85 88 fb ff ff 	mov    %rax,-0x478(%rbp)
   1963f:	48 8d 85 28 f8 ff ff 	lea    -0x7d8(%rbp),%rax
   19646:	48 89 85 90 fb ff ff 	mov    %rax,-0x470(%rbp)
   1964d:	48 8d 85 28 f8 ff ff 	lea    -0x7d8(%rbp),%rax
   19654:	48 89 85 98 fb ff ff 	mov    %rax,-0x468(%rbp)
   1965b:	48 8d 85 28 f8 ff ff 	lea    -0x7d8(%rbp),%rax
   19662:	48 89 85 a0 fb ff ff 	mov    %rax,-0x460(%rbp)
   19669:	48 8d 85 28 f8 ff ff 	lea    -0x7d8(%rbp),%rax
   19670:	48 89 85 a8 fb ff ff 	mov    %rax,-0x458(%rbp)
   19677:	48 8d 85 28 f8 ff ff 	lea    -0x7d8(%rbp),%rax
   1967e:	48 89 85 b0 fb ff ff 	mov    %rax,-0x450(%rbp)
   19685:	48 8d 85 28 f8 ff ff 	lea    -0x7d8(%rbp),%rax
   1968c:	48 89 85 b8 fb ff ff 	mov    %rax,-0x448(%rbp)
   19693:	48 8d 85 28 f8 ff ff 	lea    -0x7d8(%rbp),%rax
   1969a:	48 89 85 c0 fb ff ff 	mov    %rax,-0x440(%rbp)
   196a1:	48 8d 85 28 f8 ff ff 	lea    -0x7d8(%rbp),%rax
   196a8:	48 89 85 c8 fb ff ff 	mov    %rax,-0x438(%rbp)
   196af:	48 8d 85 28 f8 ff ff 	lea    -0x7d8(%rbp),%rax
   196b6:	48 89 85 d0 fb ff ff 	mov    %rax,-0x430(%rbp)
   196bd:	48 8d 85 28 f8 ff ff 	lea    -0x7d8(%rbp),%rax
   196c4:	48 89 85 d8 fb ff ff 	mov    %rax,-0x428(%rbp)
   196cb:	48 8d 85 28 f8 ff ff 	lea    -0x7d8(%rbp),%rax
   196d2:	48 89 85 e0 fb ff ff 	mov    %rax,-0x420(%rbp)
   196d9:	48 8d 85 28 f8 ff ff 	lea    -0x7d8(%rbp),%rax
   196e0:	48 89 85 e8 fb ff ff 	mov    %rax,-0x418(%rbp)
   196e7:	48 8d 85 28 f8 ff ff 	lea    -0x7d8(%rbp),%rax
   196ee:	48 89 85 f0 fb ff ff 	mov    %rax,-0x410(%rbp)
   196f5:	48 8d 85 28 f8 ff ff 	lea    -0x7d8(%rbp),%rax
   196fc:	48 89 85 f8 fb ff ff 	mov    %rax,-0x408(%rbp)
   19703:	48 8d 85 28 f8 ff ff 	lea    -0x7d8(%rbp),%rax
   1970a:	48 89 85 00 fc ff ff 	mov    %rax,-0x400(%rbp)
   19711:	48 8d 85 28 f8 ff ff 	lea    -0x7d8(%rbp),%rax
   19718:	48 89 85 08 fc ff ff 	mov    %rax,-0x3f8(%rbp)
   1971f:	48 8d 85 28 f8 ff ff 	lea    -0x7d8(%rbp),%rax
   19726:	48 89 85 10 fc ff ff 	mov    %rax,-0x3f0(%rbp)
   1972d:	48 8d 85 28 f8 ff ff 	lea    -0x7d8(%rbp),%rax
   19734:	48 89 85 18 fc ff ff 	mov    %rax,-0x3e8(%rbp)
   1973b:	48 8d 85 28 f8 ff ff 	lea    -0x7d8(%rbp),%rax
   19742:	48 89 85 20 fc ff ff 	mov    %rax,-0x3e0(%rbp)
   19749:	48 8d 85 28 f8 ff ff 	lea    -0x7d8(%rbp),%rax
   19750:	48 89 85 28 fc ff ff 	mov    %rax,-0x3d8(%rbp)
   19757:	48 8d 85 28 f8 ff ff 	lea    -0x7d8(%rbp),%rax
   1975e:	48 89 85 30 fc ff ff 	mov    %rax,-0x3d0(%rbp)
   19765:	48 8d 85 28 f8 ff ff 	lea    -0x7d8(%rbp),%rax
   1976c:	48 89 85 38 fc ff ff 	mov    %rax,-0x3c8(%rbp)
   19773:	48 8d 85 28 f8 ff ff 	lea    -0x7d8(%rbp),%rax
   1977a:	48 89 85 40 fc ff ff 	mov    %rax,-0x3c0(%rbp)
   19781:	48 8d 85 28 f8 ff ff 	lea    -0x7d8(%rbp),%rax
   19788:	48 89 85 48 fc ff ff 	mov    %rax,-0x3b8(%rbp)
   1978f:	48 8d 85 28 f8 ff ff 	lea    -0x7d8(%rbp),%rax
   19796:	48 89 85 50 fc ff ff 	mov    %rax,-0x3b0(%rbp)
   1979d:	48 8d 85 28 f8 ff ff 	lea    -0x7d8(%rbp),%rax
   197a4:	48 89 85 58 fc ff ff 	mov    %rax,-0x3a8(%rbp)
   197ab:	48 8d 85 28 f8 ff ff 	lea    -0x7d8(%rbp),%rax
   197b2:	48 89 85 60 fc ff ff 	mov    %rax,-0x3a0(%rbp)
   197b9:	48 8d 85 28 f8 ff ff 	lea    -0x7d8(%rbp),%rax
   197c0:	48 89 85 68 fc ff ff 	mov    %rax,-0x398(%rbp)
   197c7:	48 8d 85 28 f8 ff ff 	lea    -0x7d8(%rbp),%rax
   197ce:	48 89 85 70 fc ff ff 	mov    %rax,-0x390(%rbp)
   197d5:	48 8d 85 28 f8 ff ff 	lea    -0x7d8(%rbp),%rax
   197dc:	48 89 85 78 fc ff ff 	mov    %rax,-0x388(%rbp)
   197e3:	48 8d 85 28 f8 ff ff 	lea    -0x7d8(%rbp),%rax
   197ea:	48 89 85 80 fc ff ff 	mov    %rax,-0x380(%rbp)
   197f1:	48 8d 85 28 f8 ff ff 	lea    -0x7d8(%rbp),%rax
   197f8:	48 89 85 88 fc ff ff 	mov    %rax,-0x378(%rbp)
   197ff:	48 8d 85 28 f8 ff ff 	lea    -0x7d8(%rbp),%rax
   19806:	48 89 85 90 fc ff ff 	mov    %rax,-0x370(%rbp)
   1980d:	48 8d 85 28 f8 ff ff 	lea    -0x7d8(%rbp),%rax
   19814:	48 89 85 98 fc ff ff 	mov    %rax,-0x368(%rbp)
   1981b:	48 8d 85 28 f8 ff ff 	lea    -0x7d8(%rbp),%rax
   19822:	48 89 85 a0 fc ff ff 	mov    %rax,-0x360(%rbp)
   19829:	48 8d 85 28 f8 ff ff 	lea    -0x7d8(%rbp),%rax
   19830:	48 89 85 a8 fc ff ff 	mov    %rax,-0x358(%rbp)
   19837:	48 8d 85 28 f8 ff ff 	lea    -0x7d8(%rbp),%rax
   1983e:	48 89 85 b0 fc ff ff 	mov    %rax,-0x350(%rbp)
   19845:	48 8d 85 28 f8 ff ff 	lea    -0x7d8(%rbp),%rax
   1984c:	48 89 85 b8 fc ff ff 	mov    %rax,-0x348(%rbp)
   19853:	48 8d 85 28 f8 ff ff 	lea    -0x7d8(%rbp),%rax
   1985a:	48 89 85 c0 fc ff ff 	mov    %rax,-0x340(%rbp)
   19861:	48 8d 85 28 f8 ff ff 	lea    -0x7d8(%rbp),%rax
   19868:	48 89 85 c8 fc ff ff 	mov    %rax,-0x338(%rbp)
   1986f:	48 8d 85 28 f8 ff ff 	lea    -0x7d8(%rbp),%rax
   19876:	48 89 85 d0 fc ff ff 	mov    %rax,-0x330(%rbp)
   1987d:	48 8d 85 28 f8 ff ff 	lea    -0x7d8(%rbp),%rax
   19884:	48 89 85 d8 fc ff ff 	mov    %rax,-0x328(%rbp)
   1988b:	48 8d 85 28 f8 ff ff 	lea    -0x7d8(%rbp),%rax
   19892:	48 89 85 e0 fc ff ff 	mov    %rax,-0x320(%rbp)
   19899:	48 8d 85 28 f8 ff ff 	lea    -0x7d8(%rbp),%rax
   198a0:	48 89 85 e8 fc ff ff 	mov    %rax,-0x318(%rbp)
   198a7:	48 8d 85 28 f8 ff ff 	lea    -0x7d8(%rbp),%rax
   198ae:	48 89 85 f0 fc ff ff 	mov    %rax,-0x310(%rbp)
   198b5:	48 8d 85 28 f8 ff ff 	lea    -0x7d8(%rbp),%rax
   198bc:	48 89 85 f8 fc ff ff 	mov    %rax,-0x308(%rbp)
   198c3:	48 8d 85 28 f8 ff ff 	lea    -0x7d8(%rbp),%rax
   198ca:	48 89 85 00 fd ff ff 	mov    %rax,-0x300(%rbp)
   198d1:	48 8d 85 28 f8 ff ff 	lea    -0x7d8(%rbp),%rax
   198d8:	48 89 85 08 fd ff ff 	mov    %rax,-0x2f8(%rbp)
   198df:	48 8d 85 28 f8 ff ff 	lea    -0x7d8(%rbp),%rax
   198e6:	48 89 85 10 fd ff ff 	mov    %rax,-0x2f0(%rbp)
   198ed:	48 8d 85 28 f8 ff ff 	lea    -0x7d8(%rbp),%rax
   198f4:	48 89 85 18 fd ff ff 	mov    %rax,-0x2e8(%rbp)
   198fb:	48 8d 85 28 f8 ff ff 	lea    -0x7d8(%rbp),%rax
   19902:	48 89 85 20 fd ff ff 	mov    %rax,-0x2e0(%rbp)
   19909:	48 8d 85 28 f8 ff ff 	lea    -0x7d8(%rbp),%rax
   19910:	48 89 85 28 fd ff ff 	mov    %rax,-0x2d8(%rbp)
   19917:	48 8d 85 28 f8 ff ff 	lea    -0x7d8(%rbp),%rax
   1991e:	48 89 85 30 fd ff ff 	mov    %rax,-0x2d0(%rbp)
   19925:	48 8d 85 28 f8 ff ff 	lea    -0x7d8(%rbp),%rax
   1992c:	48 89 85 38 fd ff ff 	mov    %rax,-0x2c8(%rbp)
   19933:	48 8d 85 28 f8 ff ff 	lea    -0x7d8(%rbp),%rax
   1993a:	48 89 85 40 fd ff ff 	mov    %rax,-0x2c0(%rbp)
   19941:	48 8d 85 28 f8 ff ff 	lea    -0x7d8(%rbp),%rax
   19948:	48 89 85 48 fd ff ff 	mov    %rax,-0x2b8(%rbp)
   1994f:	48 8d 85 28 f8 ff ff 	lea    -0x7d8(%rbp),%rax
   19956:	48 89 85 50 fd ff ff 	mov    %rax,-0x2b0(%rbp)
   1995d:	48 8d 85 28 f8 ff ff 	lea    -0x7d8(%rbp),%rax
   19964:	48 89 85 58 fd ff ff 	mov    %rax,-0x2a8(%rbp)
   1996b:	48 8d 85 28 f8 ff ff 	lea    -0x7d8(%rbp),%rax
   19972:	48 89 85 60 fd ff ff 	mov    %rax,-0x2a0(%rbp)
   19979:	48 8d 85 28 f8 ff ff 	lea    -0x7d8(%rbp),%rax
   19980:	48 89 85 68 fd ff ff 	mov    %rax,-0x298(%rbp)
   19987:	48 8d 85 28 f8 ff ff 	lea    -0x7d8(%rbp),%rax
   1998e:	48 89 85 70 fd ff ff 	mov    %rax,-0x290(%rbp)
   19995:	48 8d 85 28 f8 ff ff 	lea    -0x7d8(%rbp),%rax
   1999c:	48 89 85 78 fd ff ff 	mov    %rax,-0x288(%rbp)
   199a3:	48 8d 85 28 f8 ff ff 	lea    -0x7d8(%rbp),%rax
   199aa:	48 89 85 80 fd ff ff 	mov    %rax,-0x280(%rbp)
   199b1:	48 8d 85 28 f8 ff ff 	lea    -0x7d8(%rbp),%rax
   199b8:	48 89 85 88 fd ff ff 	mov    %rax,-0x278(%rbp)
   199bf:	48 8d 85 28 f8 ff ff 	lea    -0x7d8(%rbp),%rax
   199c6:	48 89 85 90 fd ff ff 	mov    %rax,-0x270(%rbp)
   199cd:	48 8d 85 28 f8 ff ff 	lea    -0x7d8(%rbp),%rax
   199d4:	48 89 85 98 fd ff ff 	mov    %rax,-0x268(%rbp)
   199db:	48 8d 85 28 f8 ff ff 	lea    -0x7d8(%rbp),%rax
   199e2:	48 89 85 a0 fd ff ff 	mov    %rax,-0x260(%rbp)
   199e9:	48 8d 85 28 f8 ff ff 	lea    -0x7d8(%rbp),%rax
   199f0:	48 89 85 a8 fd ff ff 	mov    %rax,-0x258(%rbp)
   199f7:	48 8d 85 28 f8 ff ff 	lea    -0x7d8(%rbp),%rax
   199fe:	48 89 85 b0 fd ff ff 	mov    %rax,-0x250(%rbp)
   19a05:	48 8d 85 28 f8 ff ff 	lea    -0x7d8(%rbp),%rax
   19a0c:	48 89 85 b8 fd ff ff 	mov    %rax,-0x248(%rbp)
   19a13:	48 8d 85 28 f8 ff ff 	lea    -0x7d8(%rbp),%rax
   19a1a:	48 89 85 c0 fd ff ff 	mov    %rax,-0x240(%rbp)
   19a21:	48 8d 85 28 f8 ff ff 	lea    -0x7d8(%rbp),%rax
   19a28:	48 89 85 c8 fd ff ff 	mov    %rax,-0x238(%rbp)
   19a2f:	48 8d 85 28 f8 ff ff 	lea    -0x7d8(%rbp),%rax
   19a36:	48 89 85 d0 fd ff ff 	mov    %rax,-0x230(%rbp)
   19a3d:	48 8d 85 28 f8 ff ff 	lea    -0x7d8(%rbp),%rax
   19a44:	48 89 85 d8 fd ff ff 	mov    %rax,-0x228(%rbp)
   19a4b:	48 8d 85 28 f8 ff ff 	lea    -0x7d8(%rbp),%rax
   19a52:	48 89 85 e0 fd ff ff 	mov    %rax,-0x220(%rbp)
   19a59:	48 8d 85 28 f8 ff ff 	lea    -0x7d8(%rbp),%rax
   19a60:	48 89 85 e8 fd ff ff 	mov    %rax,-0x218(%rbp)
   19a67:	48 8d 85 28 f8 ff ff 	lea    -0x7d8(%rbp),%rax
   19a6e:	48 89 85 f0 fd ff ff 	mov    %rax,-0x210(%rbp)
   19a75:	48 8d 85 28 f8 ff ff 	lea    -0x7d8(%rbp),%rax
   19a7c:	48 89 85 f8 fd ff ff 	mov    %rax,-0x208(%rbp)
   19a83:	48 8d 85 28 f8 ff ff 	lea    -0x7d8(%rbp),%rax
   19a8a:	48 89 85 00 fe ff ff 	mov    %rax,-0x200(%rbp)
   19a91:	48 8d 85 28 f8 ff ff 	lea    -0x7d8(%rbp),%rax
   19a98:	48 89 85 08 fe ff ff 	mov    %rax,-0x1f8(%rbp)
   19a9f:	48 8d 85 28 f8 ff ff 	lea    -0x7d8(%rbp),%rax
   19aa6:	48 89 85 10 fe ff ff 	mov    %rax,-0x1f0(%rbp)
   19aad:	48 8d 85 28 f8 ff ff 	lea    -0x7d8(%rbp),%rax
   19ab4:	48 89 85 18 fe ff ff 	mov    %rax,-0x1e8(%rbp)
   19abb:	48 8d 85 28 f8 ff ff 	lea    -0x7d8(%rbp),%rax
   19ac2:	48 89 85 20 fe ff ff 	mov    %rax,-0x1e0(%rbp)
   19ac9:	48 8d 85 28 f8 ff ff 	lea    -0x7d8(%rbp),%rax
   19ad0:	48 89 85 28 fe ff ff 	mov    %rax,-0x1d8(%rbp)
   19ad7:	48 8d 85 28 f8 ff ff 	lea    -0x7d8(%rbp),%rax
   19ade:	48 89 85 30 fe ff ff 	mov    %rax,-0x1d0(%rbp)
   19ae5:	48 8d 85 28 f8 ff ff 	lea    -0x7d8(%rbp),%rax
   19aec:	48 89 85 38 fe ff ff 	mov    %rax,-0x1c8(%rbp)
   19af3:	48 8d 85 28 f8 ff ff 	lea    -0x7d8(%rbp),%rax
   19afa:	48 89 85 40 fe ff ff 	mov    %rax,-0x1c0(%rbp)
   19b01:	48 8d 85 28 f8 ff ff 	lea    -0x7d8(%rbp),%rax
   19b08:	48 89 85 48 fe ff ff 	mov    %rax,-0x1b8(%rbp)
   19b0f:	48 8d 85 28 f8 ff ff 	lea    -0x7d8(%rbp),%rax
   19b16:	48 89 85 50 fe ff ff 	mov    %rax,-0x1b0(%rbp)
   19b1d:	48 8d 85 28 f8 ff ff 	lea    -0x7d8(%rbp),%rax
   19b24:	48 89 85 58 fe ff ff 	mov    %rax,-0x1a8(%rbp)
   19b2b:	48 8d 85 28 f8 ff ff 	lea    -0x7d8(%rbp),%rax
   19b32:	48 89 85 60 fe ff ff 	mov    %rax,-0x1a0(%rbp)
   19b39:	48 8d 85 28 f8 ff ff 	lea    -0x7d8(%rbp),%rax
   19b40:	48 89 85 68 fe ff ff 	mov    %rax,-0x198(%rbp)
   19b47:	48 8d 85 28 f8 ff ff 	lea    -0x7d8(%rbp),%rax
   19b4e:	48 89 85 70 fe ff ff 	mov    %rax,-0x190(%rbp)
   19b55:	48 8d 85 28 f8 ff ff 	lea    -0x7d8(%rbp),%rax
   19b5c:	48 89 85 78 fe ff ff 	mov    %rax,-0x188(%rbp)
   19b63:	48 8d 85 28 f8 ff ff 	lea    -0x7d8(%rbp),%rax
   19b6a:	48 89 85 80 fe ff ff 	mov    %rax,-0x180(%rbp)
   19b71:	48 8d 85 28 f8 ff ff 	lea    -0x7d8(%rbp),%rax
   19b78:	48 89 85 88 fe ff ff 	mov    %rax,-0x178(%rbp)
   19b7f:	48 8d 85 28 f8 ff ff 	lea    -0x7d8(%rbp),%rax
   19b86:	48 89 85 90 fe ff ff 	mov    %rax,-0x170(%rbp)
   19b8d:	48 8d 85 28 f8 ff ff 	lea    -0x7d8(%rbp),%rax
   19b94:	48 89 85 98 fe ff ff 	mov    %rax,-0x168(%rbp)
   19b9b:	48 8d 85 28 f8 ff ff 	lea    -0x7d8(%rbp),%rax
   19ba2:	48 89 85 a0 fe ff ff 	mov    %rax,-0x160(%rbp)
   19ba9:	48 8d 85 28 f8 ff ff 	lea    -0x7d8(%rbp),%rax
   19bb0:	48 89 85 a8 fe ff ff 	mov    %rax,-0x158(%rbp)
   19bb7:	48 8d 85 28 f8 ff ff 	lea    -0x7d8(%rbp),%rax
   19bbe:	48 89 85 b0 fe ff ff 	mov    %rax,-0x150(%rbp)
   19bc5:	48 8d 85 28 f8 ff ff 	lea    -0x7d8(%rbp),%rax
   19bcc:	48 89 85 b8 fe ff ff 	mov    %rax,-0x148(%rbp)
   19bd3:	48 8d 85 28 f8 ff ff 	lea    -0x7d8(%rbp),%rax
   19bda:	48 89 85 c0 fe ff ff 	mov    %rax,-0x140(%rbp)
   19be1:	48 8d 85 28 f8 ff ff 	lea    -0x7d8(%rbp),%rax
   19be8:	48 89 85 c8 fe ff ff 	mov    %rax,-0x138(%rbp)
   19bef:	48 8d 85 28 f8 ff ff 	lea    -0x7d8(%rbp),%rax
   19bf6:	48 89 85 d0 fe ff ff 	mov    %rax,-0x130(%rbp)
   19bfd:	48 8d 85 28 f8 ff ff 	lea    -0x7d8(%rbp),%rax
   19c04:	48 89 85 d8 fe ff ff 	mov    %rax,-0x128(%rbp)
   19c0b:	48 8d 85 28 f8 ff ff 	lea    -0x7d8(%rbp),%rax
   19c12:	48 89 85 e0 fe ff ff 	mov    %rax,-0x120(%rbp)
   19c19:	48 8d 85 28 f8 ff ff 	lea    -0x7d8(%rbp),%rax
   19c20:	48 89 85 e8 fe ff ff 	mov    %rax,-0x118(%rbp)
   19c27:	48 8d 85 28 f8 ff ff 	lea    -0x7d8(%rbp),%rax
   19c2e:	48 89 85 f0 fe ff ff 	mov    %rax,-0x110(%rbp)
   19c35:	48 8d 85 28 f8 ff ff 	lea    -0x7d8(%rbp),%rax
   19c3c:	48 89 85 f8 fe ff ff 	mov    %rax,-0x108(%rbp)
   19c43:	48 8d 85 28 f8 ff ff 	lea    -0x7d8(%rbp),%rax
   19c4a:	48 89 85 00 ff ff ff 	mov    %rax,-0x100(%rbp)
   19c51:	48 8d 85 28 f8 ff ff 	lea    -0x7d8(%rbp),%rax
   19c58:	48 89 85 08 ff ff ff 	mov    %rax,-0xf8(%rbp)
   19c5f:	48 8d 85 28 f8 ff ff 	lea    -0x7d8(%rbp),%rax
   19c66:	48 89 85 10 ff ff ff 	mov    %rax,-0xf0(%rbp)
   19c6d:	48 8d 85 28 f8 ff ff 	lea    -0x7d8(%rbp),%rax
   19c74:	48 89 85 18 ff ff ff 	mov    %rax,-0xe8(%rbp)
   19c7b:	48 8d 85 28 f8 ff ff 	lea    -0x7d8(%rbp),%rax
   19c82:	48 89 85 20 ff ff ff 	mov    %rax,-0xe0(%rbp)
   19c89:	48 8d 85 28 f8 ff ff 	lea    -0x7d8(%rbp),%rax
   19c90:	48 89 85 28 ff ff ff 	mov    %rax,-0xd8(%rbp)
   19c97:	48 8d 85 28 f8 ff ff 	lea    -0x7d8(%rbp),%rax
   19c9e:	48 89 85 30 ff ff ff 	mov    %rax,-0xd0(%rbp)
   19ca5:	48 8d 85 28 f8 ff ff 	lea    -0x7d8(%rbp),%rax
   19cac:	48 89 85 38 ff ff ff 	mov    %rax,-0xc8(%rbp)
   19cb3:	48 8d 85 28 f8 ff ff 	lea    -0x7d8(%rbp),%rax
   19cba:	48 89 85 40 ff ff ff 	mov    %rax,-0xc0(%rbp)
   19cc1:	48 8d 85 28 f8 ff ff 	lea    -0x7d8(%rbp),%rax
   19cc8:	48 89 85 48 ff ff ff 	mov    %rax,-0xb8(%rbp)
   19ccf:	48 8d 85 28 f8 ff ff 	lea    -0x7d8(%rbp),%rax
   19cd6:	48 89 85 50 ff ff ff 	mov    %rax,-0xb0(%rbp)
   19cdd:	48 8d 85 28 f8 ff ff 	lea    -0x7d8(%rbp),%rax
   19ce4:	48 89 85 58 ff ff ff 	mov    %rax,-0xa8(%rbp)
   19ceb:	48 8d 85 28 f8 ff ff 	lea    -0x7d8(%rbp),%rax
   19cf2:	48 89 85 60 ff ff ff 	mov    %rax,-0xa0(%rbp)
   19cf9:	48 8d 85 28 f8 ff ff 	lea    -0x7d8(%rbp),%rax
   19d00:	48 89 85 68 ff ff ff 	mov    %rax,-0x98(%rbp)
   19d07:	48 8d 85 28 f8 ff ff 	lea    -0x7d8(%rbp),%rax
   19d0e:	48 89 85 70 ff ff ff 	mov    %rax,-0x90(%rbp)
   19d15:	48 8d 85 28 f8 ff ff 	lea    -0x7d8(%rbp),%rax
   19d1c:	48 89 85 78 ff ff ff 	mov    %rax,-0x88(%rbp)
   19d23:	48 8d 85 28 f8 ff ff 	lea    -0x7d8(%rbp),%rax
   19d2a:	48 89 45 80          	mov    %rax,-0x80(%rbp)
   19d2e:	48 8d 85 28 f8 ff ff 	lea    -0x7d8(%rbp),%rax
   19d35:	48 89 45 88          	mov    %rax,-0x78(%rbp)
   19d39:	48 8d 85 28 f8 ff ff 	lea    -0x7d8(%rbp),%rax
   19d40:	48 89 45 90          	mov    %rax,-0x70(%rbp)
   19d44:	48 8d 85 28 f8 ff ff 	lea    -0x7d8(%rbp),%rax
   19d4b:	48 89 45 98          	mov    %rax,-0x68(%rbp)
   19d4f:	48 8d 85 28 f8 ff ff 	lea    -0x7d8(%rbp),%rax
   19d56:	48 89 45 a0          	mov    %rax,-0x60(%rbp)
   19d5a:	48 8d 85 28 f8 ff ff 	lea    -0x7d8(%rbp),%rax
   19d61:	48 89 45 a8          	mov    %rax,-0x58(%rbp)
   19d65:	48 8d 85 28 f8 ff ff 	lea    -0x7d8(%rbp),%rax
   19d6c:	48 89 45 b0          	mov    %rax,-0x50(%rbp)
   19d70:	48 8d 85 28 f8 ff ff 	lea    -0x7d8(%rbp),%rax
   19d77:	48 89 45 b8          	mov    %rax,-0x48(%rbp)
   19d7b:	0f b6 9d 0c f8 ff ff 	movzbl -0x7f4(%rbp),%ebx
   19d82:	8b 05 a4 72 00 00    	mov    0x72a4(%rip),%eax        # 2102c <g_4>
   19d88:	4c 63 f8             	movslq %eax,%r15
   19d8b:	0f b7 05 76 b9 00 00 	movzwl 0xb976(%rip),%eax        # 25708 <g_37>
   19d92:	44 0f b6 e0          	movzbl %al,%r12d
   19d96:	44 0f b7 ad 1a f8 ff 	movzwl -0x7e6(%rbp),%r13d
   19d9d:	ff 
   19d9e:	8b 05 88 72 00 00    	mov    0x7288(%rip),%eax        # 2102c <g_4>
   19da4:	98                   	cwtl   
   19da5:	8b 95 24 f8 ff ff    	mov    -0x7dc(%rbp),%edx
   19dab:	89 d6                	mov    %edx,%esi
   19dad:	89 c7                	mov    %eax,%edi
   19daf:	e8 de 06 ff ff       	callq  a492 <safe_lshift_func_int16_t_s_s>
   19db4:	4c 0f bf f0          	movswq %ax,%r14
   19db8:	0f b7 05 49 b9 00 00 	movzwl 0xb949(%rip),%eax        # 25708 <g_37>
   19dbf:	0f bf f0             	movswl %ax,%esi
   19dc2:	48 8b 85 38 f8 ff ff 	mov    -0x7c8(%rbp),%rax
   19dc9:	0f b6 00             	movzbl (%rax),%eax
   19dcc:	8d 48 01             	lea    0x1(%rax),%ecx
   19dcf:	48 8b 95 38 f8 ff ff 	mov    -0x7c8(%rbp),%rdx
   19dd6:	88 0a                	mov    %cl,(%rdx)
   19dd8:	0f b6 c0             	movzbl %al,%eax
   19ddb:	39 c6                	cmp    %eax,%esi
   19ddd:	0f 9f c0             	setg   %al
   19de0:	0f b6 d0             	movzbl %al,%edx
   19de3:	48 8b 85 30 f8 ff ff 	mov    -0x7d0(%rbp),%rax
   19dea:	98                   	cwtl   
   19deb:	89 d6                	mov    %edx,%esi
   19ded:	89 c7                	mov    %eax,%edi
   19def:	e8 01 06 ff ff       	callq  a3f5 <safe_mul_func_int16_t_s_s>
   19df4:	66 c1 e8 0f          	shr    $0xf,%ax
   19df8:	0f b6 c0             	movzbl %al,%eax
   19dfb:	4c 89 f6             	mov    %r14,%rsi
   19dfe:	48 89 c7             	mov    %rax,%rdi
   19e01:	e8 ae 0b ff ff       	callq  a9b4 <safe_mod_func_int64_t_s_s>
   19e06:	8b 15 34 72 00 00    	mov    0x7234(%rip),%edx        # 21040 <g_9>
   19e0c:	48 63 d2             	movslq %edx,%rdx
   19e0f:	48 31 c2             	xor    %rax,%rdx
   19e12:	0f b7 05 ef b8 00 00 	movzwl 0xb8ef(%rip),%eax        # 25708 <g_37>
   19e19:	48 0f bf c0          	movswq %ax,%rax
   19e1d:	48 39 c2             	cmp    %rax,%rdx
   19e20:	7f 07                	jg     19e29 <func_31+0xe45>
   19e22:	b8 97 00 00 00       	mov    $0x97,%eax
   19e27:	eb 05                	jmp    19e2e <func_31+0xe4a>
   19e29:	b8 96 00 00 00       	mov    $0x96,%eax
   19e2e:	44 89 ee             	mov    %r13d,%esi
   19e31:	89 c7                	mov    %eax,%edi
   19e33:	e8 24 0f ff ff       	callq  ad5c <safe_mod_func_uint16_t_u_u>
   19e38:	0f b7 d0             	movzwl %ax,%edx
   19e3b:	8b 05 fb 71 00 00    	mov    0x71fb(%rip),%eax        # 2103c <g_8>
   19e41:	09 d0                	or     %edx,%eax
   19e43:	48 63 d0             	movslq %eax,%rdx
   19e46:	0f b6 85 0c f8 ff ff 	movzbl -0x7f4(%rbp),%eax
   19e4d:	48 89 d6             	mov    %rdx,%rsi
   19e50:	48 89 c7             	mov    %rax,%rdi
   19e53:	e8 57 12 ff ff       	callq  b0af <safe_div_func_uint64_t_u_u>
   19e58:	0f b6 c0             	movzbl %al,%eax
   19e5b:	4d 89 f8             	mov    %r15,%r8
   19e5e:	44 89 e1             	mov    %r12d,%ecx
   19e61:	48 8d 15 a0 b8 00 00 	lea    0xb8a0(%rip),%rdx        # 25708 <g_37>
   19e68:	48 8d 35 99 b8 00 00 	lea    0xb899(%rip),%rsi        # 25708 <g_37>
   19e6f:	89 c7                	mov    %eax,%edi
   19e71:	e8 d9 00 00 00       	callq  19f4f <func_46>
   19e76:	0f be c0             	movsbl %al,%eax
   19e79:	be fd ff ff ff       	mov    $0xfffffffd,%esi
   19e7e:	89 c7                	mov    %eax,%edi
   19e80:	e8 6d 03 ff ff       	callq  a1f2 <safe_sub_func_int8_t_s_s>
   19e85:	48 8d 05 7c b8 00 00 	lea    0xb87c(%rip),%rax        # 25708 <g_37>
   19e8c:	48 89 05 8d b8 00 00 	mov    %rax,0xb88d(%rip)        # 25720 <g_341>
   19e93:	48 8b 15 86 b8 00 00 	mov    0xb886(%rip),%rdx        # 25720 <g_341>
   19e9a:	48 8b 05 7f 95 00 00 	mov    0x957f(%rip),%rax        # 23420 <g_342>
   19ea1:	48 39 c2             	cmp    %rax,%rdx
   19ea4:	0f 95 c0             	setne  %al
   19ea7:	0f b6 c0             	movzbl %al,%eax
   19eaa:	89 de                	mov    %ebx,%esi
   19eac:	89 c7                	mov    %eax,%edi
   19eae:	e8 8a 0e ff ff       	callq  ad3d <safe_mul_func_uint16_t_u_u>
   19eb3:	89 c2                	mov    %eax,%edx
   19eb5:	8b 05 85 71 00 00    	mov    0x7185(%rip),%eax        # 21040 <g_9>
   19ebb:	09 d0                	or     %edx,%eax
   19ebd:	0f be d0             	movsbl %al,%edx
   19ec0:	0f b6 85 0c f8 ff ff 	movzbl -0x7f4(%rbp),%eax
   19ec7:	0f be c0             	movsbl %al,%eax
   19eca:	89 d6                	mov    %edx,%esi
   19ecc:	89 c7                	mov    %eax,%edi
   19ece:	e8 97 03 ff ff       	callq  a26a <safe_div_func_int8_t_s_s>
   19ed3:	0f be c0             	movsbl %al,%eax
   19ed6:	89 85 1c f8 ff ff    	mov    %eax,-0x7e4(%rbp)
   19edc:	48 8b 15 ed 94 00 00 	mov    0x94ed(%rip),%rdx        # 233d0 <g_124>
   19ee3:	48 8b 05 0e 95 00 00 	mov    0x950e(%rip),%rax        # 233f8 <g_288>
   19eea:	48 8b 12             	mov    (%rdx),%rdx
   19eed:	48 89 10             	mov    %rdx,(%rax)
   19ef0:	81 bd 24 f8 ff ff b2 	cmpl   $0xf9b2,-0x7dc(%rbp)
   19ef7:	f9 00 00 
   19efa:	0f 95 c0             	setne  %al
   19efd:	0f b6 c0             	movzbl %al,%eax
   19f00:	09 85 1c f8 ff ff    	or     %eax,-0x7e4(%rbp)
   19f06:	0f b6 85 0c f8 ff ff 	movzbl -0x7f4(%rbp),%eax
   19f0d:	83 c0 01             	add    $0x1,%eax
   19f10:	88 85 0c f8 ff ff    	mov    %al,-0x7f4(%rbp)
   19f16:	80 bd 0c f8 ff ff 20 	cmpb   $0x20,-0x7f4(%rbp)
   19f1d:	0f 86 2a f1 ff ff    	jbe    1904d <func_31+0x69>
   19f23:	8b 85 20 f8 ff ff    	mov    -0x7e0(%rbp),%eax
   19f29:	48 8b 5d c8          	mov    -0x38(%rbp),%rbx
   19f2d:	64 48 33 1c 25 28 00 	xor    %fs:0x28,%rbx
   19f34:	00 00 
   19f36:	74 05                	je     19f3d <func_31+0xf59>
   19f38:	e8 33 01 ff ff       	callq  a070 <__stack_chk_fail@plt>
   19f3d:	48 81 c4 d8 07 00 00 	add    $0x7d8,%rsp
   19f44:	5b                   	pop    %rbx
   19f45:	41 5c                	pop    %r12
   19f47:	41 5d                	pop    %r13
   19f49:	41 5e                	pop    %r14
   19f4b:	41 5f                	pop    %r15
   19f4d:	5d                   	pop    %rbp
   19f4e:	c3                   	retq   

0000000000019f4f <func_46>:
   19f4f:	f3 0f 1e fa          	endbr64 
   19f53:	55                   	push   %rbp
   19f54:	48 89 e5             	mov    %rsp,%rbp
   19f57:	41 57                	push   %r15
   19f59:	41 56                	push   %r14
   19f5b:	41 55                	push   %r13
   19f5d:	41 54                	push   %r12
   19f5f:	53                   	push   %rbx
   19f60:	48 81 ec 08 0c 00 00 	sub    $0xc08,%rsp
   19f67:	48 89 b5 e0 f3 ff ff 	mov    %rsi,-0xc20(%rbp)
   19f6e:	48 89 95 d8 f3 ff ff 	mov    %rdx,-0xc28(%rbp)
   19f75:	89 c8                	mov    %ecx,%eax
   19f77:	4c 89 85 d0 f3 ff ff 	mov    %r8,-0xc30(%rbp)
   19f7e:	89 fa                	mov    %edi,%edx
   19f80:	88 95 ec f3 ff ff    	mov    %dl,-0xc14(%rbp)
   19f86:	88 85 e8 f3 ff ff    	mov    %al,-0xc18(%rbp)
   19f8c:	64 48 8b 04 25 28 00 	mov    %fs:0x28,%rax
   19f93:	00 00 
   19f95:	48 89 45 c8          	mov    %rax,-0x38(%rbp)
   19f99:	31 c0                	xor    %eax,%eax
   19f9b:	48 b8 01 01 01 01 01 	movabs $0x101010101010101,%rax
   19fa2:	01 01 01 
   19fa5:	48 89 45 bf          	mov    %rax,-0x41(%rbp)
   19fa9:	c6 45 c7 01          	movb   $0x1,-0x39(%rbp)
   19fad:	c7 85 fc f3 ff ff 30 	movl   $0xb9acce30,-0xc04(%rbp)
   19fb4:	ce ac b9 
   19fb7:	48 8d 05 86 70 00 00 	lea    0x7086(%rip),%rax        # 21044 <g_63>
   19fbe:	48 89 85 68 f4 ff ff 	mov    %rax,-0xb98(%rbp)
   19fc5:	48 8d 85 68 f4 ff ff 	lea    -0xb98(%rbp),%rax
   19fcc:	48 89 85 80 f4 ff ff 	mov    %rax,-0xb80(%rbp)
   19fd3:	48 8d 05 6e 70 00 00 	lea    0x706e(%rip),%rax        # 21048 <g_98>
   19fda:	48 89 85 70 f4 ff ff 	mov    %rax,-0xb90(%rbp)
   19fe1:	48 8d 05 70 70 00 00 	lea    0x7070(%rip),%rax        # 21058 <g_101>
   19fe8:	48 89 85 88 f4 ff ff 	mov    %rax,-0xb78(%rbp)
   19fef:	c7 85 28 f4 ff ff 56 	movl   $0x17319f56,-0xbd8(%rbp)
   19ff6:	9f 31 17 
   19ff9:	48 8d 85 10 f8 ff ff 	lea    -0x7f0(%rbp),%rax
   1a000:	48 8d 15 f9 8b 00 00 	lea    0x8bf9(%rip),%rdx        # 22c00 <g_2844+0x1886>
   1a007:	b9 f5 00 00 00       	mov    $0xf5,%ecx
   1a00c:	48 89 c7             	mov    %rax,%rdi
   1a00f:	48 89 d6             	mov    %rdx,%rsi
   1a012:	f3 48 a5             	rep movsq %ds:(%rsi),%es:(%rdi)
   1a015:	66 c7 85 90 f5 ff ff 	movw   $0x4b,-0xa70(%rbp)
   1a01c:	4b 00 
   1a01e:	66 c7 85 92 f5 ff ff 	movw   $0x334b,-0xa6e(%rbp)
   1a025:	4b 33 
   1a027:	66 c7 85 94 f5 ff ff 	movw   $0x4b22,-0xa6c(%rbp)
   1a02e:	22 4b 
   1a030:	66 c7 85 96 f5 ff ff 	movw   $0x1833,-0xa6a(%rbp)
   1a037:	33 18 
   1a039:	66 c7 85 98 f5 ff ff 	movw   $0x4e35,-0xa68(%rbp)
   1a040:	35 4e 
   1a042:	66 c7 85 9a f5 ff ff 	movw   $0xf94b,-0xa66(%rbp)
   1a049:	4b f9 
   1a04b:	66 c7 85 9c f5 ff ff 	movw   $0xf9f9,-0xa64(%rbp)
   1a052:	f9 f9 
   1a054:	66 c7 85 9e f5 ff ff 	movw   $0x4e4b,-0xa62(%rbp)
   1a05b:	4b 4e 
   1a05d:	66 c7 85 a0 f5 ff ff 	movw   $0x1835,-0xa60(%rbp)
   1a064:	35 18 
   1a066:	66 c7 85 a2 f5 ff ff 	movw   $0x4b33,-0xa5e(%rbp)
   1a06d:	33 4b 
   1a06f:	66 c7 85 a4 f5 ff ff 	movw   $0x3322,-0xa5c(%rbp)
   1a076:	22 33 
   1a078:	66 c7 85 a6 f5 ff ff 	movw   $0x4b,-0xa5a(%rbp)
   1a07f:	4b 00 
   1a081:	66 c7 85 a8 f5 ff ff 	movw   $0x4e,-0xa58(%rbp)
   1a088:	4e 00 
   1a08a:	66 c7 85 aa f5 ff ff 	movw   $0xf935,-0xa56(%rbp)
   1a091:	35 f9 
   1a093:	66 c7 85 ac f5 ff ff 	movw   $0x2200,-0xa54(%rbp)
   1a09a:	00 22 
   1a09c:	66 c7 85 ae f5 ff ff 	movw   $0x4b4b,-0xa52(%rbp)
   1a0a3:	4b 4b 
   1a0a5:	66 c7 85 b0 f5 ff ff 	movw   $0xf9,-0xa50(%rbp)
   1a0ac:	f9 00 
   1a0ae:	66 c7 85 b2 f5 ff ff 	movw   $0x0,-0xa4e(%rbp)
   1a0b5:	00 00 
   1a0b7:	66 c7 85 b4 f5 ff ff 	movw   $0x4bf9,-0xa4c(%rbp)
   1a0be:	f9 4b 
   1a0c0:	66 c7 85 b6 f5 ff ff 	movw   $0x224b,-0xa4a(%rbp)
   1a0c7:	4b 22 
   1a0c9:	66 c7 85 b8 f5 ff ff 	movw   $0xf900,-0xa48(%rbp)
   1a0d0:	00 f9 
   1a0d2:	66 c7 85 ba f5 ff ff 	movw   $0x35,-0xa46(%rbp)
   1a0d9:	35 00 
   1a0db:	66 c7 85 bc f5 ff ff 	movw   $0xfc4e,-0xa44(%rbp)
   1a0e2:	4e fc 
   1a0e4:	66 c7 85 be f5 ff ff 	movw   $0x4e,-0xa42(%rbp)
   1a0eb:	4e 00 
   1a0ed:	66 c7 85 c0 f5 ff ff 	movw   $0xf935,-0xa40(%rbp)
   1a0f4:	35 f9 
   1a0f6:	66 c7 85 c2 f5 ff ff 	movw   $0x2200,-0xa3e(%rbp)
   1a0fd:	00 22 
   1a0ff:	66 c7 85 c4 f5 ff ff 	movw   $0x4b4b,-0xa3c(%rbp)
   1a106:	4b 4b 
   1a108:	66 c7 85 c6 f5 ff ff 	movw   $0xf9,-0xa3a(%rbp)
   1a10f:	f9 00 
   1a111:	66 c7 85 c8 f5 ff ff 	movw   $0x0,-0xa38(%rbp)
   1a118:	00 00 
   1a11a:	66 c7 85 ca f5 ff ff 	movw   $0x4bf9,-0xa36(%rbp)
   1a121:	f9 4b 
   1a123:	c7 85 04 f4 ff ff 01 	movl   $0x1,-0xbfc(%rbp)
   1a12a:	00 00 00 
   1a12d:	c7 85 00 f4 ff ff 0f 	movl   $0xf65ddd0f,-0xc00(%rbp)
   1a134:	dd 5d f6 
   1a137:	c7 85 d0 f5 ff ff f8 	movl   $0xfffffff8,-0xa30(%rbp)
   1a13e:	ff ff ff 
   1a141:	c7 85 d4 f5 ff ff f8 	movl   $0xfffffff8,-0xa2c(%rbp)
   1a148:	ff ff ff 
   1a14b:	c7 85 d8 f5 ff ff 02 	movl   $0x2,-0xa28(%rbp)
   1a152:	00 00 00 
   1a155:	c7 85 dc f5 ff ff f8 	movl   $0xfffffff8,-0xa24(%rbp)
   1a15c:	ff ff ff 
   1a15f:	c7 85 e0 f5 ff ff f8 	movl   $0xfffffff8,-0xa20(%rbp)
   1a166:	ff ff ff 
   1a169:	c7 85 e4 f5 ff ff 00 	movl   $0x0,-0xa1c(%rbp)
   1a170:	00 00 00 
   1a173:	c7 85 e8 f5 ff ff 51 	movl   $0x318c7851,-0xa18(%rbp)
   1a17a:	78 8c 31 
   1a17d:	c7 85 ec f5 ff ff 00 	movl   $0x0,-0xa14(%rbp)
   1a184:	00 00 00 
   1a187:	c7 85 f0 f5 ff ff 00 	movl   $0x0,-0xa10(%rbp)
   1a18e:	00 00 00 
   1a191:	c7 85 f4 f5 ff ff 51 	movl   $0x318c7851,-0xa0c(%rbp)
   1a198:	78 8c 31 
   1a19b:	c7 85 f8 f5 ff ff f8 	movl   $0xfffffff8,-0xa08(%rbp)
   1a1a2:	ff ff ff 
   1a1a5:	c7 85 fc f5 ff ff b2 	movl   $0xfe85d9b2,-0xa04(%rbp)
   1a1ac:	d9 85 fe 
   1a1af:	c7 85 00 f6 ff ff b2 	movl   $0xfe85d9b2,-0xa00(%rbp)
   1a1b6:	d9 85 fe 
   1a1b9:	c7 85 04 f6 ff ff f8 	movl   $0xfffffff8,-0x9fc(%rbp)
   1a1c0:	ff ff ff 
   1a1c3:	c7 85 08 f6 ff ff b2 	movl   $0xfe85d9b2,-0x9f8(%rbp)
   1a1ca:	d9 85 fe 
   1a1cd:	c7 85 0c f6 ff ff 51 	movl   $0x318c7851,-0x9f4(%rbp)
   1a1d4:	78 8c 31 
   1a1d7:	c7 85 10 f6 ff ff 51 	movl   $0x318c7851,-0x9f0(%rbp)
   1a1de:	78 8c 31 
   1a1e1:	c7 85 14 f6 ff ff ff 	movl   $0xffffffff,-0x9ec(%rbp)
   1a1e8:	ff ff ff 
   1a1eb:	c7 85 18 f6 ff ff 51 	movl   $0x318c7851,-0x9e8(%rbp)
   1a1f2:	78 8c 31 
   1a1f5:	c7 85 1c f6 ff ff 51 	movl   $0x318c7851,-0x9e4(%rbp)
   1a1fc:	78 8c 31 
   1a1ff:	c7 85 20 f6 ff ff b2 	movl   $0xfe85d9b2,-0x9e0(%rbp)
   1a206:	d9 85 fe 
   1a209:	c7 85 24 f6 ff ff f8 	movl   $0xfffffff8,-0x9dc(%rbp)
   1a210:	ff ff ff 
   1a213:	c7 85 28 f6 ff ff b2 	movl   $0xfe85d9b2,-0x9d8(%rbp)
   1a21a:	d9 85 fe 
   1a21d:	c7 85 2c f6 ff ff b2 	movl   $0xfe85d9b2,-0x9d4(%rbp)
   1a224:	d9 85 fe 
   1a227:	c7 85 30 f6 ff ff f8 	movl   $0xfffffff8,-0x9d0(%rbp)
   1a22e:	ff ff ff 
   1a231:	c7 85 34 f6 ff ff 51 	movl   $0x318c7851,-0x9cc(%rbp)
   1a238:	78 8c 31 
   1a23b:	c7 85 38 f6 ff ff 00 	movl   $0x0,-0x9c8(%rbp)
   1a242:	00 00 00 
   1a245:	c7 85 3c f6 ff ff 00 	movl   $0x0,-0x9c4(%rbp)
   1a24c:	00 00 00 
   1a24f:	c7 85 40 f6 ff ff 51 	movl   $0x318c7851,-0x9c0(%rbp)
   1a256:	78 8c 31 
   1a259:	c7 85 44 f6 ff ff 00 	movl   $0x0,-0x9bc(%rbp)
   1a260:	00 00 00 
   1a263:	c6 85 f2 f3 ff ff 83 	movb   $0x83,-0xc0e(%rbp)
   1a26a:	c7 85 2c f4 ff ff d1 	movl   $0xd1b1c2d1,-0xbd4(%rbp)
   1a271:	c2 b1 d1 
   1a274:	48 8d 85 00 f4 ff ff 	lea    -0xc00(%rbp),%rax
   1a27b:	48 89 85 90 f4 ff ff 	mov    %rax,-0xb70(%rbp)
   1a282:	48 b8 80 17 72 87 67 	movabs $0x6aca7a6787721780,%rax
   1a289:	7a ca 6a 
   1a28c:	48 89 85 98 f4 ff ff 	mov    %rax,-0xb68(%rbp)
   1a293:	4c 8b b5 08 fc ff ff 	mov    -0x3f8(%rbp),%r14
   1a29a:	8b 05 b0 6d 00 00    	mov    0x6db0(%rip),%eax        # 21050 <g_99>
   1a2a0:	0f be d8             	movsbl %al,%ebx
   1a2a3:	8b 85 28 f4 ff ff    	mov    -0xbd8(%rbp),%eax
   1a2a9:	44 0f b6 e0          	movzbl %al,%r12d
   1a2ad:	8b 85 fc f3 ff ff    	mov    -0xc04(%rbp),%eax
   1a2b3:	44 0f be e8          	movsbl %al,%r13d
   1a2b7:	48 8b 85 80 f4 ff ff 	mov    -0xb80(%rbp),%rax
   1a2be:	48 8d 15 7f 6d 00 00 	lea    0x6d7f(%rip),%rdx        # 21044 <g_63>
   1a2c5:	48 89 10             	mov    %rdx,(%rax)
   1a2c8:	c6 45 c2 d2          	movb   $0xd2,-0x3e(%rbp)
   1a2cc:	be 01 00 00 00       	mov    $0x1,%esi
   1a2d1:	bf d2 00 00 00       	mov    $0xd2,%edi
   1a2d6:	e8 00 09 ff ff       	callq  abdb <safe_div_func_uint8_t_u_u>
   1a2db:	0f b6 c0             	movzbl %al,%eax
   1a2de:	48 8b 95 d0 f3 ff ff 	mov    -0xc30(%rbp),%rdx
   1a2e5:	48 89 d6             	mov    %rdx,%rsi
   1a2e8:	48 89 c7             	mov    %rax,%rdi
   1a2eb:	e8 3e 0d ff ff       	callq  b02e <safe_add_func_uint64_t_u_u>
   1a2f0:	89 c2                	mov    %eax,%edx
   1a2f2:	8b 85 fc f3 ff ff    	mov    -0xc04(%rbp),%eax
   1a2f8:	09 d0                	or     %edx,%eax
   1a2fa:	83 e0 d7             	and    $0xffffffd7,%eax
   1a2fd:	0f be c0             	movsbl %al,%eax
   1a300:	44 89 ee             	mov    %r13d,%esi
   1a303:	89 c7                	mov    %eax,%edi
   1a305:	e8 27 ff fe ff       	callq  a231 <safe_mod_func_int8_t_s_s>
   1a30a:	89 c2                	mov    %eax,%edx
   1a30c:	48 8b 85 70 f4 ff ff 	mov    -0xb90(%rbp),%rax
   1a313:	48 0f be d2          	movsbq %dl,%rdx
   1a317:	48 89 10             	mov    %rdx,(%rax)
   1a31a:	8b 05 1c 6d 00 00    	mov    0x6d1c(%rip),%eax        # 2103c <g_8>
   1a320:	8b 05 2a 6d 00 00    	mov    0x6d2a(%rip),%eax        # 21050 <g_99>
   1a326:	89 c2                	mov    %eax,%edx
   1a328:	48 8b 85 88 f4 ff ff 	mov    -0xb78(%rbp),%rax
   1a32f:	88 10                	mov    %dl,(%rax)
   1a331:	48 8b 85 88 f4 ff ff 	mov    -0xb78(%rbp),%rax
   1a338:	0f b6 00             	movzbl (%rax),%eax
   1a33b:	0f be c0             	movsbl %al,%eax
   1a33e:	be 74 00 00 00       	mov    $0x74,%esi
   1a343:	89 c7                	mov    %eax,%edi
   1a345:	e8 8a fe fe ff       	callq  a1d4 <safe_add_func_int8_t_s_s>
   1a34a:	8b 85 fc f3 ff ff    	mov    -0xc04(%rbp),%eax
   1a350:	85 c0                	test   %eax,%eax
   1a352:	0f 9e c0             	setle  %al
   1a355:	0f b6 c0             	movzbl %al,%eax
   1a358:	48 8d 35 e5 6c 00 00 	lea    0x6ce5(%rip),%rsi        # 21044 <g_63>
   1a35f:	89 c7                	mov    %eax,%edi
   1a361:	e8 2f 0d 00 00       	callq  1b095 <func_82>
   1a366:	4c 8d 05 d7 6c 00 00 	lea    0x6cd7(%rip),%r8        # 21044 <g_63>
   1a36d:	48 8d 0d 94 b3 00 00 	lea    0xb394(%rip),%rcx        # 25708 <g_37>
   1a374:	44 89 e2             	mov    %r12d,%edx
   1a377:	48 8d 35 8a b3 00 00 	lea    0xb38a(%rip),%rsi        # 25708 <g_37>
   1a37e:	89 c7                	mov    %eax,%edi
   1a380:	e8 7f 0b 00 00       	callq  1af04 <func_76>
   1a385:	48 89 c6             	mov    %rax,%rsi
   1a388:	0f b6 85 e8 f3 ff ff 	movzbl -0xc18(%rbp),%eax
   1a38f:	83 c8 01             	or     $0x1,%eax
   1a392:	0f b6 c0             	movzbl %al,%eax
   1a395:	4d 89 f0             	mov    %r14,%r8
   1a398:	48 8d 0d 69 b3 00 00 	lea    0xb369(%rip),%rcx        # 25708 <g_37>
   1a39f:	89 da                	mov    %ebx,%edx
   1a3a1:	89 c7                	mov    %eax,%edi
   1a3a3:	e8 38 0b 00 00       	callq  1aee0 <func_70>
   1a3a8:	85 c0                	test   %eax,%eax
   1a3aa:	0f 95 c0             	setne  %al
   1a3ad:	0f b6 d0             	movzbl %al,%edx
   1a3b0:	0f b7 05 51 b3 00 00 	movzwl 0xb351(%rip),%eax        # 25708 <g_37>
   1a3b7:	98                   	cwtl   
   1a3b8:	21 d0                	and    %edx,%eax
   1a3ba:	85 c0                	test   %eax,%eax
   1a3bc:	0f 84 af 06 00 00    	je     1aa71 <func_46+0xb22>
   1a3c2:	c7 85 34 f4 ff ff 86 	movl   $0xe1b6eb86,-0xbcc(%rbp)
   1a3c9:	eb b6 e1 
   1a3cc:	48 8d 05 35 b3 00 00 	lea    0xb335(%rip),%rax        # 25708 <g_37>
   1a3d3:	48 89 85 a8 f4 ff ff 	mov    %rax,-0xb58(%rbp)
   1a3da:	48 8d 05 87 6c 00 00 	lea    0x6c87(%rip),%rax        # 21068 <g_108+0x8>
   1a3e1:	48 89 85 78 f4 ff ff 	mov    %rax,-0xb88(%rbp)
   1a3e8:	c7 85 38 f4 ff ff 07 	movl   $0x7,-0xbc8(%rbp)
   1a3ef:	00 00 00 
   1a3f2:	c7 85 3c f4 ff ff 84 	movl   $0xef410d84,-0xbc4(%rbp)
   1a3f9:	0d 41 ef 
   1a3fc:	c7 85 40 f4 ff ff 57 	movl   $0xbc801a57,-0xbc0(%rbp)
   1a403:	1a 80 bc 
   1a406:	c7 85 44 f4 ff ff 7f 	movl   $0xb8cf327f,-0xbbc(%rbp)
   1a40d:	32 cf b8 
   1a410:	66 c7 85 f4 f3 ff ff 	movw   $0x8,-0xc0c(%rbp)
   1a417:	08 00 
   1a419:	c7 85 60 f5 ff ff b8 	movl   $0x5a3aa3b8,-0xaa0(%rbp)
   1a420:	a3 3a 5a 
   1a423:	c7 85 64 f5 ff ff b8 	movl   $0x5a3aa3b8,-0xa9c(%rbp)
   1a42a:	a3 3a 5a 
   1a42d:	c7 85 68 f5 ff ff b8 	movl   $0x5a3aa3b8,-0xa98(%rbp)
   1a434:	a3 3a 5a 
   1a437:	c7 85 6c f5 ff ff b8 	movl   $0x5a3aa3b8,-0xa94(%rbp)
   1a43e:	a3 3a 5a 
   1a441:	83 bd 34 f4 ff ff 00 	cmpl   $0x0,-0xbcc(%rbp)
   1a448:	0f 84 d3 04 00 00    	je     1a921 <func_46+0x9d2>
   1a44e:	c7 85 70 f5 ff ff 05 	movl   $0x5,-0xa90(%rbp)
   1a455:	00 00 00 
   1a458:	c7 85 74 f5 ff ff ee 	movl   $0xed61d3ee,-0xa8c(%rbp)
   1a45f:	d3 61 ed 
   1a462:	c7 85 78 f5 ff ff ee 	movl   $0xed61d3ee,-0xa88(%rbp)
   1a469:	d3 61 ed 
   1a46c:	c7 85 7c f5 ff ff 05 	movl   $0x5,-0xa84(%rbp)
   1a473:	00 00 00 
   1a476:	c7 85 80 f5 ff ff ee 	movl   $0xed61d3ee,-0xa80(%rbp)
   1a47d:	d3 61 ed 
   1a480:	c7 85 84 f5 ff ff ee 	movl   $0xed61d3ee,-0xa7c(%rbp)
   1a487:	d3 61 ed 
   1a48a:	c7 85 88 f5 ff ff 05 	movl   $0x5,-0xa78(%rbp)
   1a491:	00 00 00 
   1a494:	c7 85 08 f4 ff ff 65 	movl   $0xe0a1f665,-0xbf8(%rbp)
   1a49b:	f6 a1 e0 
   1a49e:	66 c7 85 58 f5 ff ff 	movw   $0x0,-0xaa8(%rbp)
   1a4a5:	00 00 
   1a4a7:	66 c7 85 5a f5 ff ff 	movw   $0x0,-0xaa6(%rbp)
   1a4ae:	00 00 
   1a4b0:	66 c7 85 5c f5 ff ff 	movw   $0x0,-0xaa4(%rbp)
   1a4b7:	00 00 
   1a4b9:	66 c7 85 5e f5 ff ff 	movw   $0x0,-0xaa2(%rbp)
   1a4c0:	00 00 
   1a4c2:	48 8d 05 7f 6b 00 00 	lea    0x6b7f(%rip),%rax        # 21048 <g_98>
   1a4c9:	48 89 85 b0 f4 ff ff 	mov    %rax,-0xb50(%rbp)
   1a4d0:	0f b6 85 c6 f5 ff ff 	movzbl -0xa3a(%rbp),%eax
   1a4d7:	83 c0 01             	add    $0x1,%eax
   1a4da:	88 85 c6 f5 ff ff    	mov    %al,-0xa3a(%rbp)
   1a4e0:	48 8b 85 88 f4 ff ff 	mov    -0xb78(%rbp),%rax
   1a4e7:	c6 00 00             	movb   $0x0,(%rax)
   1a4ea:	be 00 00 00 00       	mov    $0x0,%esi
   1a4ef:	bf 00 00 00 00       	mov    $0x0,%edi
   1a4f4:	e8 3c fe fe ff       	callq  a335 <safe_rshift_func_int8_t_s_s>
   1a4f9:	84 c0                	test   %al,%al
   1a4fb:	0f 84 44 02 00 00    	je     1a745 <func_46+0x7f6>
   1a501:	c7 85 50 f6 ff ff 00 	movl   $0x0,-0x9b0(%rbp)
   1a508:	00 00 00 
   1a50b:	c7 85 54 f6 ff ff 00 	movl   $0x0,-0x9ac(%rbp)
   1a512:	00 00 00 
   1a515:	c7 85 58 f6 ff ff 01 	movl   $0x1,-0x9a8(%rbp)
   1a51c:	00 00 00 
   1a51f:	c7 85 5c f6 ff ff 00 	movl   $0x0,-0x9a4(%rbp)
   1a526:	00 00 00 
   1a529:	c7 85 60 f6 ff ff 00 	movl   $0x0,-0x9a0(%rbp)
   1a530:	00 00 00 
   1a533:	c7 85 64 f6 ff ff 01 	movl   $0x1,-0x99c(%rbp)
   1a53a:	00 00 00 
   1a53d:	48 c7 05 00 6b 00 00 	movq   $0xfffffffffffffffa,0x6b00(%rip)        # 21048 <g_98>
   1a544:	fa ff ff ff 
   1a548:	e9 e2 01 00 00       	jmpq   1a72f <func_46+0x7e0>
   1a54d:	48 8d 05 b4 b1 00 00 	lea    0xb1b4(%rip),%rax        # 25708 <g_37>
   1a554:	48 89 85 d8 f4 ff ff 	mov    %rax,-0xb28(%rbp)
   1a55b:	48 8d 85 68 f4 ff ff 	lea    -0xb98(%rbp),%rax
   1a562:	48 89 85 e0 f4 ff ff 	mov    %rax,-0xb20(%rbp)
   1a569:	48 8b 05 50 8e 00 00 	mov    0x8e50(%rip),%rax        # 233c0 <g_103>
   1a570:	8b 00                	mov    (%rax),%eax
   1a572:	41 89 c6             	mov    %eax,%r14d
   1a575:	80 bd ec f3 ff ff 00 	cmpb   $0x0,-0xc14(%rbp)
   1a57c:	75 10                	jne    1a58e <func_46+0x63f>
   1a57e:	48 8b 85 d8 f4 ff ff 	mov    -0xb28(%rbp),%rax
   1a585:	48 3b 85 a8 f4 ff ff 	cmp    -0xb58(%rbp),%rax
   1a58c:	74 07                	je     1a595 <func_46+0x646>
   1a58e:	b8 01 00 00 00       	mov    $0x1,%eax
   1a593:	eb 05                	jmp    1a59a <func_46+0x64b>
   1a595:	b8 00 00 00 00       	mov    $0x0,%eax
   1a59a:	83 f8 02             	cmp    $0x2,%eax
   1a59d:	0f 9f c0             	setg   %al
   1a5a0:	44 0f b6 e8          	movzbl %al,%r13d
   1a5a4:	8b 85 34 f4 ff ff    	mov    -0xbcc(%rbp),%eax
   1a5aa:	48 63 d8             	movslq %eax,%rbx
   1a5ad:	0f b6 85 e8 f3 ff ff 	movzbl -0xc18(%rbp),%eax
   1a5b4:	44 0f b6 e0          	movzbl %al,%r12d
   1a5b8:	48 8b 85 d0 f3 ff ff 	mov    -0xc30(%rbp),%rax
   1a5bf:	41 89 c7             	mov    %eax,%r15d
   1a5c2:	48 83 bd e0 f4 ff ff 	cmpq   $0x0,-0xb20(%rbp)
   1a5c9:	00 
   1a5ca:	0f 95 c0             	setne  %al
   1a5cd:	0f b6 d0             	movzbl %al,%edx
   1a5d0:	48 8b 05 f1 8d 00 00 	mov    0x8df1(%rip),%rax        # 233c8 <g_102>
   1a5d7:	48 8b 00             	mov    (%rax),%rax
   1a5da:	48 85 c0             	test   %rax,%rax
   1a5dd:	0f 95 c0             	setne  %al
   1a5e0:	0f b6 c0             	movzbl %al,%eax
   1a5e3:	39 c2                	cmp    %eax,%edx
   1a5e5:	0f 9d c0             	setge  %al
   1a5e8:	0f b6 c0             	movzbl %al,%eax
   1a5eb:	89 c7                	mov    %eax,%edi
   1a5ed:	e8 f7 06 ff ff       	callq  ace9 <safe_unary_minus_func_uint16_t_u>
   1a5f2:	0f b6 c0             	movzbl %al,%eax
   1a5f5:	44 89 fe             	mov    %r15d,%esi
   1a5f8:	89 c7                	mov    %eax,%edi
   1a5fa:	e8 8e 06 ff ff       	callq  ac8d <safe_rshift_func_uint8_t_u_s>
   1a5ff:	0f b6 c0             	movzbl %al,%eax
   1a602:	89 c7                	mov    %eax,%edi
   1a604:	e8 8d ff fe ff       	callq  a596 <safe_unary_minus_func_int32_t_s>
   1a609:	89 c2                	mov    %eax,%edx
   1a60b:	0f b6 85 e8 f3 ff ff 	movzbl -0xc18(%rbp),%eax
   1a612:	0f b6 c0             	movzbl %al,%eax
   1a615:	21 d0                	and    %edx,%eax
   1a617:	98                   	cwtl   
   1a618:	44 89 e6             	mov    %r12d,%esi
   1a61b:	89 c7                	mov    %eax,%edi
   1a61d:	e8 d3 fd fe ff       	callq  a3f5 <safe_mul_func_int16_t_s_s>
   1a622:	be 00 00 00 00       	mov    $0x0,%esi
   1a627:	bf 00 00 00 00       	mov    $0x0,%edi
   1a62c:	e8 04 fd fe ff       	callq  a335 <safe_rshift_func_int8_t_s_s>
   1a631:	48 0f be c0          	movsbq %al,%rax
   1a635:	48 89 de             	mov    %rbx,%rsi
   1a638:	48 89 c7             	mov    %rax,%rdi
   1a63b:	e8 68 02 ff ff       	callq  a8a8 <safe_sub_func_int64_t_s_s>
   1a640:	48 85 c0             	test   %rax,%rax
   1a643:	0f 94 c0             	sete   %al
   1a646:	0f b6 c0             	movzbl %al,%eax
   1a649:	44 31 e8             	xor    %r13d,%eax
   1a64c:	44 89 f6             	mov    %r14d,%esi
   1a64f:	89 c7                	mov    %eax,%edi
   1a651:	e8 a7 08 ff ff       	callq  aefd <safe_mod_func_uint32_t_u_u>
   1a656:	0f b6 85 ec f3 ff ff 	movzbl -0xc14(%rbp),%eax
   1a65d:	48 89 c6             	mov    %rax,%rsi
   1a660:	48 bf b1 56 43 06 8e 	movabs $0x88499a8e064356b1,%rdi
   1a667:	9a 49 88 
   1a66a:	e8 40 0a ff ff       	callq  b0af <safe_div_func_uint64_t_u_u>
   1a66f:	89 85 fc f3 ff ff    	mov    %eax,-0xc04(%rbp)
   1a675:	8b 85 fc f3 ff ff    	mov    -0xc04(%rbp),%eax
   1a67b:	21 85 04 f4 ff ff    	and    %eax,-0xbfc(%rbp)
   1a681:	80 bd ec f3 ff ff 00 	cmpb   $0x0,-0xc14(%rbp)
   1a688:	74 6f                	je     1a6f9 <func_46+0x7aa>
   1a68a:	0f b6 95 ec f3 ff ff 	movzbl -0xc14(%rbp),%edx
   1a691:	8b 05 a9 69 00 00    	mov    0x69a9(%rip),%eax        # 21040 <g_9>
   1a697:	39 c2                	cmp    %eax,%edx
   1a699:	7d 5e                	jge    1a6f9 <func_46+0x7aa>
   1a69b:	48 8d 85 78 f4 ff ff 	lea    -0xb88(%rbp),%rax
   1a6a2:	48 89 85 e8 f4 ff ff 	mov    %rax,-0xb18(%rbp)
   1a6a9:	48 8d 05 b0 69 00 00 	lea    0x69b0(%rip),%rax        # 21060 <g_108>
   1a6b0:	48 89 85 f0 f4 ff ff 	mov    %rax,-0xb10(%rbp)
   1a6b7:	48 8b 85 78 f4 ff ff 	mov    -0xb88(%rbp),%rax
   1a6be:	48 89 85 78 f4 ff ff 	mov    %rax,-0xb88(%rbp)
   1a6c5:	48 8b 95 78 f4 ff ff 	mov    -0xb88(%rbp),%rdx
   1a6cc:	48 8b 85 e8 f4 ff ff 	mov    -0xb18(%rbp),%rax
   1a6d3:	48 89 10             	mov    %rdx,(%rax)
   1a6d6:	48 8b 05 eb 8c 00 00 	mov    0x8ceb(%rip),%rax        # 233c8 <g_102>
   1a6dd:	48 8b 10             	mov    (%rax),%rdx
   1a6e0:	48 8b 85 e8 f4 ff ff 	mov    -0xb18(%rbp),%rax
   1a6e7:	48 89 10             	mov    %rdx,(%rax)
   1a6ea:	48 8b 85 f0 f4 ff ff 	mov    -0xb10(%rbp),%rax
   1a6f1:	c7 00 08 00 00 00    	movl   $0x8,(%rax)
   1a6f7:	eb 1a                	jmp    1a713 <func_46+0x7c4>
   1a6f9:	48 83 bd d0 f3 ff ff 	cmpq   $0x0,-0xc30(%rbp)
   1a700:	00 
   1a701:	0f 85 ca 00 00 00    	jne    1a7d1 <func_46+0x882>
   1a707:	0f b6 85 ec f3 ff ff 	movzbl -0xc14(%rbp),%eax
   1a70e:	e9 a7 07 00 00       	jmpq   1aeba <func_46+0xf6b>
   1a713:	48 8b 05 2e 69 00 00 	mov    0x692e(%rip),%rax        # 21048 <g_98>
   1a71a:	be 08 00 00 00       	mov    $0x8,%esi
   1a71f:	89 c7                	mov    %eax,%edi
   1a721:	e8 92 07 ff ff       	callq  aeb8 <safe_add_func_uint32_t_u_u>
   1a726:	89 c0                	mov    %eax,%eax
   1a728:	48 89 05 19 69 00 00 	mov    %rax,0x6919(%rip)        # 21048 <g_98>
   1a72f:	48 8b 05 12 69 00 00 	mov    0x6912(%rip),%rax        # 21048 <g_98>
   1a736:	48 83 f8 10          	cmp    $0x10,%rax
   1a73a:	0f 86 0d fe ff ff    	jbe    1a54d <func_46+0x5fe>
   1a740:	e9 8d 00 00 00       	jmpq   1a7d2 <func_46+0x883>
   1a745:	48 8d 85 fc f3 ff ff 	lea    -0xc04(%rbp),%rax
   1a74c:	48 89 85 b8 f4 ff ff 	mov    %rax,-0xb48(%rbp)
   1a753:	48 c7 85 c0 f4 ff ff 	movq   $0x0,-0xb40(%rbp)
   1a75a:	00 00 00 00 
   1a75e:	48 c7 85 c8 f4 ff ff 	movq   $0x0,-0xb38(%rbp)
   1a765:	00 00 00 00 
   1a769:	48 c7 85 d0 f4 ff ff 	movq   $0x0,-0xb30(%rbp)
   1a770:	00 00 00 00 
   1a774:	48 c7 85 50 f6 ff ff 	movq   $0x0,-0x9b0(%rbp)
   1a77b:	00 00 00 00 
   1a77f:	48 c7 85 58 f6 ff ff 	movq   $0x0,-0x9a8(%rbp)
   1a786:	00 00 00 00 
   1a78a:	48 c7 85 60 f6 ff ff 	movq   $0x0,-0x9a0(%rbp)
   1a791:	00 00 00 00 
   1a795:	48 c7 85 68 f6 ff ff 	movq   $0x0,-0x998(%rbp)
   1a79c:	00 00 00 00 
   1a7a0:	83 ad 08 f4 ff ff 01 	subl   $0x1,-0xbf8(%rbp)
   1a7a7:	be 06 00 00 00       	mov    $0x6,%esi
   1a7ac:	bf 01 00 00 00       	mov    $0x1,%edi
   1a7b1:	e8 4f 04 ff ff       	callq  ac05 <safe_lshift_func_uint8_t_u_s>
   1a7b6:	0f b6 c0             	movzbl %al,%eax
   1a7b9:	23 85 04 f4 ff ff    	and    -0xbfc(%rbp),%eax
   1a7bf:	89 c2                	mov    %eax,%edx
   1a7c1:	8b 85 74 f5 ff ff    	mov    -0xa8c(%rbp),%eax
   1a7c7:	21 d0                	and    %edx,%eax
   1a7c9:	89 85 74 f5 ff ff    	mov    %eax,-0xa8c(%rbp)
   1a7cf:	eb 01                	jmp    1a7d2 <func_46+0x883>
   1a7d1:	90                   	nop
   1a7d2:	c7 85 08 f4 ff ff 00 	movl   $0x0,-0xbf8(%rbp)
   1a7d9:	00 00 00 
   1a7dc:	e9 31 01 00 00       	jmpq   1a912 <func_46+0x9c3>
   1a7e1:	c7 85 4c f4 ff ff ff 	movl   $0xffffffff,-0xbb4(%rbp)
   1a7e8:	ff ff ff 
   1a7eb:	48 8d 85 70 f4 ff ff 	lea    -0xb90(%rbp),%rax
   1a7f2:	48 89 85 f8 f4 ff ff 	mov    %rax,-0xb08(%rbp)
   1a7f9:	48 8d 85 70 f5 ff ff 	lea    -0xa90(%rbp),%rax
   1a800:	48 89 85 00 f5 ff ff 	mov    %rax,-0xb00(%rbp)
   1a807:	48 8d 85 60 f5 ff ff 	lea    -0xaa0(%rbp),%rax
   1a80e:	48 89 85 08 f5 ff ff 	mov    %rax,-0xaf8(%rbp)
   1a815:	0f b6 9d ec f3 ff ff 	movzbl -0xc14(%rbp),%ebx
   1a81c:	48 8b 85 78 f4 ff ff 	mov    -0xb88(%rbp),%rax
   1a823:	8b 00                	mov    (%rax),%eax
   1a825:	8b 95 4c f4 ff ff    	mov    -0xbb4(%rbp),%edx
   1a82b:	66 89 95 5e f5 ff ff 	mov    %dx,-0xaa2(%rbp)
   1a832:	0f b7 95 5e f5 ff ff 	movzwl -0xaa2(%rbp),%edx
   1a839:	66 85 d2             	test   %dx,%dx
   1a83c:	48 8b 95 f8 f4 ff ff 	mov    -0xb08(%rbp),%rdx
   1a843:	48 8d 0d fe 67 00 00 	lea    0x67fe(%rip),%rcx        # 21048 <g_98>
   1a84a:	48 89 0a             	mov    %rcx,(%rdx)
   1a84d:	48 8b 95 f8 f4 ff ff 	mov    -0xb08(%rbp),%rdx
   1a854:	48 8b 12             	mov    (%rdx),%rdx
   1a857:	48 39 95 b0 f4 ff ff 	cmp    %rdx,-0xb50(%rbp)
   1a85e:	0f 95 c2             	setne  %dl
   1a861:	0f b6 ca             	movzbl %dl,%ecx
   1a864:	0f b6 95 e8 f3 ff ff 	movzbl -0xc18(%rbp),%edx
   1a86b:	0f b6 d2             	movzbl %dl,%edx
   1a86e:	39 d1                	cmp    %edx,%ecx
   1a870:	8b 95 4c f4 ff ff    	mov    -0xbb4(%rbp),%edx
   1a876:	48 63 d2             	movslq %edx,%rdx
   1a879:	0f b6 8d e8 f3 ff ff 	movzbl -0xc18(%rbp),%ecx
   1a880:	0f b6 c9             	movzbl %cl,%ecx
   1a883:	48 be ad 3c 16 c7 55 	movabs $0xde67bc55c7163cad,%rsi
   1a88a:	bc 67 de 
   1a88d:	48 21 f1             	and    %rsi,%rcx
   1a890:	48 39 ca             	cmp    %rcx,%rdx
   1a893:	0f 92 c2             	setb   %dl
   1a896:	0f b6 ca             	movzbl %dl,%ecx
   1a899:	48 8b 95 00 f5 ff ff 	mov    -0xb00(%rbp),%rdx
   1a8a0:	89 0a                	mov    %ecx,(%rdx)
   1a8a2:	48 8b 95 00 f5 ff ff 	mov    -0xb00(%rbp),%rdx
   1a8a9:	8b 0a                	mov    (%rdx),%ecx
   1a8ab:	48 8b 15 16 8b 00 00 	mov    0x8b16(%rip),%rdx        # 233c8 <g_102>
   1a8b2:	48 8b 12             	mov    (%rdx),%rdx
   1a8b5:	8b 12                	mov    (%rdx),%edx
   1a8b7:	39 d1                	cmp    %edx,%ecx
   1a8b9:	0f 95 c2             	setne  %dl
   1a8bc:	0f b6 d2             	movzbl %dl,%edx
   1a8bf:	f7 d2                	not    %edx
   1a8c1:	89 c6                	mov    %eax,%esi
   1a8c3:	89 d7                	mov    %edx,%edi
   1a8c5:	e8 35 fe fe ff       	callq  a6ff <safe_div_func_int32_t_s_s>
   1a8ca:	0f b6 95 f2 f3 ff ff 	movzbl -0xc0e(%rbp),%edx
   1a8d1:	0f b6 d2             	movzbl %dl,%edx
   1a8d4:	21 d0                	and    %edx,%eax
   1a8d6:	39 c3                	cmp    %eax,%ebx
   1a8d8:	81 bd 2c f4 ff ff 02 	cmpl   $0x4c02,-0xbd4(%rbp)
   1a8df:	4c 00 00 
   1a8e2:	0f 97 c0             	seta   %al
   1a8e5:	0f b6 d0             	movzbl %al,%edx
   1a8e8:	0f b6 45 c5          	movzbl -0x3b(%rbp),%eax
   1a8ec:	0f be c0             	movsbl %al,%eax
   1a8ef:	39 c2                	cmp    %eax,%edx
   1a8f1:	0f 9d c0             	setge  %al
   1a8f4:	0f b6 d0             	movzbl %al,%edx
   1a8f7:	48 8b 85 08 f5 ff ff 	mov    -0xaf8(%rbp),%rax
   1a8fe:	8b 00                	mov    (%rax),%eax
   1a900:	31 c2                	xor    %eax,%edx
   1a902:	48 8b 85 08 f5 ff ff 	mov    -0xaf8(%rbp),%rax
   1a909:	89 10                	mov    %edx,(%rax)
   1a90b:	83 85 08 f4 ff ff 01 	addl   $0x1,-0xbf8(%rbp)
   1a912:	83 bd 08 f4 ff ff 37 	cmpl   $0x37,-0xbf8(%rbp)
   1a919:	0f 87 c2 fe ff ff    	ja     1a7e1 <func_46+0x892>
   1a91f:	eb 49                	jmp    1a96a <func_46+0xa1b>
   1a921:	48 8d 85 60 f5 ff ff 	lea    -0xaa0(%rbp),%rax
   1a928:	48 89 85 50 f6 ff ff 	mov    %rax,-0x9b0(%rbp)
   1a92f:	48 8d 85 60 f5 ff ff 	lea    -0xaa0(%rbp),%rax
   1a936:	48 89 85 58 f6 ff ff 	mov    %rax,-0x9a8(%rbp)
   1a93d:	48 8d 85 60 f5 ff ff 	lea    -0xaa0(%rbp),%rax
   1a944:	48 89 85 60 f6 ff ff 	mov    %rax,-0x9a0(%rbp)
   1a94b:	48 8d 85 60 f5 ff ff 	lea    -0xaa0(%rbp),%rax
   1a952:	48 89 85 68 f6 ff ff 	mov    %rax,-0x998(%rbp)
   1a959:	c7 85 48 f4 ff ff 09 	movl   $0x9,-0xbb8(%rbp)
   1a960:	00 00 00 
   1a963:	83 ad 48 f4 ff ff 01 	subl   $0x1,-0xbb8(%rbp)
   1a96a:	c6 85 e8 f3 ff ff 00 	movb   $0x0,-0xc18(%rbp)
   1a971:	eb 32                	jmp    1a9a5 <func_46+0xa56>
   1a973:	0f b6 85 e8 f3 ff ff 	movzbl -0xc18(%rbp),%eax
   1a97a:	0f b6 c0             	movzbl %al,%eax
   1a97d:	48 98                	cltq   
   1a97f:	48 8d 14 85 00 00 00 	lea    0x0(,%rax,4),%rdx
   1a986:	00 
   1a987:	48 8d 05 a2 66 00 00 	lea    0x66a2(%rip),%rax        # 21030 <g_7>
   1a98e:	c7 04 02 8a 50 d4 2d 	movl   $0x2dd4508a,(%rdx,%rax,1)
   1a995:	0f b6 85 e8 f3 ff ff 	movzbl -0xc18(%rbp),%eax
   1a99c:	83 c0 01             	add    $0x1,%eax
   1a99f:	88 85 e8 f3 ff ff    	mov    %al,-0xc18(%rbp)
   1a9a5:	0f b6 85 e8 f3 ff ff 	movzbl -0xc18(%rbp),%eax
   1a9ac:	3c 02                	cmp    $0x2,%al
   1a9ae:	76 c3                	jbe    1a973 <func_46+0xa24>
   1a9b0:	48 c7 05 8d 66 00 00 	movq   $0x0,0x668d(%rip)        # 21048 <g_98>
   1a9b7:	00 00 00 00 
   1a9bb:	e9 9b 00 00 00       	jmpq   1aa5b <func_46+0xb0c>
   1a9c0:	48 8d 05 f9 89 00 00 	lea    0x89f9(%rip),%rax        # 233c0 <g_103>
   1a9c7:	48 89 85 10 f5 ff ff 	mov    %rax,-0xaf0(%rbp)
   1a9ce:	48 8d 85 d0 f5 ff ff 	lea    -0xa30(%rbp),%rax
   1a9d5:	48 83 c0 60          	add    $0x60,%rax
   1a9d9:	48 89 85 18 f5 ff ff 	mov    %rax,-0xae8(%rbp)
   1a9e0:	48 8b 05 e1 89 00 00 	mov    0x89e1(%rip),%rax        # 233c8 <g_102>
   1a9e7:	48 8b 10             	mov    (%rax),%rdx
   1a9ea:	48 8b 85 10 f5 ff ff 	mov    -0xaf0(%rbp),%rax
   1a9f1:	48 89 10             	mov    %rdx,(%rax)
   1a9f4:	48 8b 05 ed 89 00 00 	mov    0x89ed(%rip),%rax        # 233e8 <g_200>
   1a9fb:	48 8b 95 10 f5 ff ff 	mov    -0xaf0(%rbp),%rdx
   1aa02:	48 8b 12             	mov    (%rdx),%rdx
   1aa05:	48 89 10             	mov    %rdx,(%rax)
   1aa08:	48 8b 85 d0 f3 ff ff 	mov    -0xc30(%rbp),%rax
   1aa0f:	0f b6 c0             	movzbl %al,%eax
   1aa12:	be 02 00 00 00       	mov    $0x2,%esi
   1aa17:	89 c7                	mov    %eax,%edi
   1aa19:	e8 a0 02 ff ff       	callq  acbe <safe_rshift_func_uint8_t_u_u>
   1aa1e:	0f b6 d0             	movzbl %al,%edx
   1aa21:	48 8b 85 18 f5 ff ff 	mov    -0xae8(%rbp),%rax
   1aa28:	89 10                	mov    %edx,(%rax)
   1aa2a:	48 8b 05 b7 89 00 00 	mov    0x89b7(%rip),%rax        # 233e8 <g_200>
   1aa31:	48 8b 00             	mov    (%rax),%rax
   1aa34:	8b 10                	mov    (%rax),%edx
   1aa36:	48 8b 85 18 f5 ff ff 	mov    -0xae8(%rbp),%rax
   1aa3d:	89 10                	mov    %edx,(%rax)
   1aa3f:	48 8b 05 02 66 00 00 	mov    0x6602(%rip),%rax        # 21048 <g_98>
   1aa46:	be 01 00 00 00       	mov    $0x1,%esi
   1aa4b:	89 c7                	mov    %eax,%edi
   1aa4d:	e8 64 fb fe ff       	callq  a5b6 <safe_add_func_int32_t_s_s>
   1aa52:	48 98                	cltq   
   1aa54:	48 89 05 ed 65 00 00 	mov    %rax,0x65ed(%rip)        # 21048 <g_98>
   1aa5b:	48 8b 05 e6 65 00 00 	mov    0x65e6(%rip),%rax        # 21048 <g_98>
   1aa62:	48 83 f8 13          	cmp    $0x13,%rax
   1aa66:	0f 85 54 ff ff ff    	jne    1a9c0 <func_46+0xa71>
   1aa6c:	e9 e7 01 00 00       	jmpq   1ac58 <func_46+0xd09>
   1aa71:	c7 85 30 f4 ff ff 27 	movl   $0x1ac3d227,-0xbd0(%rbp)
   1aa78:	d2 c3 1a 
   1aa7b:	c7 85 0c f4 ff ff 12 	movl   $0xae861b12,-0xbf4(%rbp)
   1aa82:	1b 86 ae 
   1aa85:	66 c7 05 7a ac 00 00 	movw   $0x0,0xac7a(%rip)        # 25708 <g_37>
   1aa8c:	00 00 
   1aa8e:	e9 8f 01 00 00       	jmpq   1ac22 <func_46+0xcd3>
   1aa93:	c6 85 f3 f3 ff ff fe 	movb   $0xfe,-0xc0d(%rbp)
   1aa9a:	48 c7 85 a0 f4 ff ff 	movq   $0x0,-0xb60(%rbp)
   1aaa1:	00 00 00 00 
   1aaa5:	c7 85 10 f4 ff ff 00 	movl   $0x0,-0xbf0(%rbp)
   1aaac:	00 00 00 
   1aaaf:	eb 43                	jmp    1aaf4 <func_46+0xba5>
   1aab1:	c7 85 14 f4 ff ff 00 	movl   $0x0,-0xbec(%rbp)
   1aab8:	00 00 00 
   1aabb:	eb 27                	jmp    1aae4 <func_46+0xb95>
   1aabd:	8b 85 14 f4 ff ff    	mov    -0xbec(%rbp),%eax
   1aac3:	48 63 d0             	movslq %eax,%rdx
   1aac6:	8b 85 10 f4 ff ff    	mov    -0xbf0(%rbp),%eax
   1aacc:	48 98                	cltq   
   1aace:	48 01 d0             	add    %rdx,%rax
   1aad1:	48 c7 84 c5 50 f6 ff 	movq   $0x0,-0x9b0(%rbp,%rax,8)
   1aad8:	ff 00 00 00 00 
   1aadd:	83 85 14 f4 ff ff 01 	addl   $0x1,-0xbec(%rbp)
   1aae4:	83 bd 14 f4 ff ff 00 	cmpl   $0x0,-0xbec(%rbp)
   1aaeb:	7e d0                	jle    1aabd <func_46+0xb6e>
   1aaed:	83 85 10 f4 ff ff 01 	addl   $0x1,-0xbf0(%rbp)
   1aaf4:	83 bd 10 f4 ff ff 00 	cmpl   $0x0,-0xbf0(%rbp)
   1aafb:	7e b4                	jle    1aab1 <func_46+0xb62>
   1aafd:	48 8b 9d d0 f3 ff ff 	mov    -0xc30(%rbp),%rbx
   1ab04:	0f b6 85 e8 f3 ff ff 	movzbl -0xc18(%rbp),%eax
   1ab0b:	0f b6 d0             	movzbl %al,%edx
   1ab0e:	0f b6 05 43 65 00 00 	movzbl 0x6543(%rip),%eax        # 21058 <g_101>
   1ab15:	0f b6 8d e8 f3 ff ff 	movzbl -0xc18(%rbp),%ecx
   1ab1c:	21 c8                	and    %ecx,%eax
   1ab1e:	88 05 34 65 00 00    	mov    %al,0x6534(%rip)        # 21058 <g_101>
   1ab24:	0f b6 05 2d 65 00 00 	movzbl 0x652d(%rip),%eax        # 21058 <g_101>
   1ab2b:	0f be c0             	movsbl %al,%eax
   1ab2e:	39 c2                	cmp    %eax,%edx
   1ab30:	8b 05 fe 64 00 00    	mov    0x64fe(%rip),%eax        # 21034 <g_7+0x4>
   1ab36:	41 89 c4             	mov    %eax,%r12d
   1ab39:	0f b6 85 e8 f3 ff ff 	movzbl -0xc18(%rbp),%eax
   1ab40:	0f b6 c0             	movzbl %al,%eax
   1ab43:	be 03 00 00 00       	mov    $0x3,%esi
   1ab48:	89 c7                	mov    %eax,%edi
   1ab4a:	e8 6f 01 ff ff       	callq  acbe <safe_rshift_func_uint8_t_u_u>
   1ab4f:	0f b6 c0             	movzbl %al,%eax
   1ab52:	44 89 e6             	mov    %r12d,%esi
   1ab55:	89 c7                	mov    %eax,%edi
   1ab57:	e8 85 f9 fe ff       	callq  a4e1 <safe_lshift_func_int16_t_s_u>
   1ab5c:	0f be c0             	movsbl %al,%eax
   1ab5f:	be 04 00 00 00       	mov    $0x4,%esi
   1ab64:	89 c7                	mov    %eax,%edi
   1ab66:	e8 01 f8 fe ff       	callq  a36c <safe_rshift_func_int8_t_s_u>
   1ab6b:	0f be c0             	movsbl %al,%eax
   1ab6e:	be 03 00 00 00       	mov    $0x3,%esi
   1ab73:	89 c7                	mov    %eax,%edi
   1ab75:	e8 27 f7 fe ff       	callq  a2a1 <safe_lshift_func_int8_t_s_s>
   1ab7a:	8b 85 30 f4 ff ff    	mov    -0xbd0(%rbp),%eax
   1ab80:	44 0f bf e0          	movswl %ax,%r12d
   1ab84:	48 8b 85 d0 f3 ff ff 	mov    -0xc30(%rbp),%rax
   1ab8b:	0f b6 c0             	movzbl %al,%eax
   1ab8e:	be 01 00 00 00       	mov    $0x1,%esi
   1ab93:	89 c7                	mov    %eax,%edi
   1ab95:	e8 6b 00 ff ff       	callq  ac05 <safe_lshift_func_uint8_t_u_s>
   1ab9a:	0f b6 c0             	movzbl %al,%eax
   1ab9d:	44 89 e6             	mov    %r12d,%esi
   1aba0:	89 c7                	mov    %eax,%edi
   1aba2:	e8 2c f8 fe ff       	callq  a3d3 <safe_sub_func_int16_t_s_s>
   1aba7:	0f b7 c0             	movzwl %ax,%eax
   1abaa:	be 09 00 00 00       	mov    $0x9,%esi
   1abaf:	89 c7                	mov    %eax,%edi
   1abb1:	e8 c4 02 ff ff       	callq  ae7a <safe_rshift_func_uint16_t_u_u>
   1abb6:	66 85 c0             	test   %ax,%ax
   1abb9:	0f 94 c0             	sete   %al
   1abbc:	0f b6 c0             	movzbl %al,%eax
   1abbf:	89 85 00 f4 ff ff    	mov    %eax,-0xc00(%rbp)
   1abc5:	0f b7 05 3c ab 00 00 	movzwl 0xab3c(%rip),%eax        # 25708 <g_37>
   1abcc:	0f bf d0             	movswl %ax,%edx
   1abcf:	8b 85 08 f6 ff ff    	mov    -0x9f8(%rbp),%eax
   1abd5:	39 c2                	cmp    %eax,%edx
   1abd7:	7f 09                	jg     1abe2 <func_46+0xc93>
   1abd9:	0f b6 85 e8 f3 ff ff 	movzbl -0xc18(%rbp),%eax
   1abe0:	84 c0                	test   %al,%al
   1abe2:	8b 05 80 64 00 00    	mov    0x6480(%rip),%eax        # 21068 <g_108+0x8>
   1abe8:	48 98                	cltq   
   1abea:	48 89 de             	mov    %rbx,%rsi
   1abed:	48 89 c7             	mov    %rax,%rdi
   1abf0:	e8 b3 fc fe ff       	callq  a8a8 <safe_sub_func_int64_t_s_s>
   1abf5:	31 85 0c f4 ff ff    	xor    %eax,-0xbf4(%rbp)
   1abfb:	0f b6 45 c2          	movzbl -0x3e(%rbp),%eax
   1abff:	84 c0                	test   %al,%al
   1ac01:	75 32                	jne    1ac35 <func_46+0xce6>
   1ac03:	0f b7 05 fe aa 00 00 	movzwl 0xaafe(%rip),%eax        # 25708 <g_37>
   1ac0a:	48 0f bf c0          	movswq %ax,%rax
   1ac0e:	be 08 00 00 00       	mov    $0x8,%esi
   1ac13:	48 89 c7             	mov    %rax,%rdi
   1ac16:	e8 26 fc fe ff       	callq  a841 <safe_add_func_int64_t_s_s>
   1ac1b:	66 89 05 e6 aa 00 00 	mov    %ax,0xaae6(%rip)        # 25708 <g_37>
   1ac22:	0f b7 05 df aa 00 00 	movzwl 0xaadf(%rip),%eax        # 25708 <g_37>
   1ac29:	66 83 f8 0b          	cmp    $0xb,%ax
   1ac2d:	0f 8f 60 fe ff ff    	jg     1aa93 <func_46+0xb44>
   1ac33:	eb 01                	jmp    1ac36 <func_46+0xce7>
   1ac35:	90                   	nop
   1ac36:	c7 85 fc f3 ff ff ea 	movl   $0xffffffea,-0xc04(%rbp)
   1ac3d:	ff ff ff 
   1ac40:	90                   	nop
   1ac41:	8b 85 fc f3 ff ff    	mov    -0xc04(%rbp),%eax
   1ac47:	83 f8 16             	cmp    $0x16,%eax
   1ac4a:	7e 0c                	jle    1ac58 <func_46+0xd09>
   1ac4c:	0f b6 85 ec f3 ff ff 	movzbl -0xc14(%rbp),%eax
   1ac53:	e9 62 02 00 00       	jmpq   1aeba <func_46+0xf6b>
   1ac58:	48 8b 05 69 87 00 00 	mov    0x8769(%rip),%rax        # 233c8 <g_102>
   1ac5f:	48 8b 00             	mov    (%rax),%rax
   1ac62:	8b 10                	mov    (%rax),%edx
   1ac64:	48 8b 85 90 f4 ff ff 	mov    -0xb70(%rbp),%rax
   1ac6b:	8b 00                	mov    (%rax),%eax
   1ac6d:	09 c2                	or     %eax,%edx
   1ac6f:	48 8b 85 90 f4 ff ff 	mov    -0xb70(%rbp),%rax
   1ac76:	89 10                	mov    %edx,(%rax)
   1ac78:	c6 05 c5 63 00 00 04 	movb   $0x4,0x63c5(%rip)        # 21044 <g_63>
   1ac7f:	e9 21 02 00 00       	jmpq   1aea5 <func_46+0xf56>
   1ac84:	48 8d 05 35 64 00 00 	lea    0x6435(%rip),%rax        # 210c0 <g_278>
   1ac8b:	48 89 85 20 f5 ff ff 	mov    %rax,-0xae0(%rbp)
   1ac92:	c7 85 50 f4 ff ff 00 	movl   $0x0,-0xbb0(%rbp)
   1ac99:	00 00 00 
   1ac9c:	c7 85 54 f4 ff ff 01 	movl   $0x1,-0xbac(%rbp)
   1aca3:	00 00 00 
   1aca6:	c7 85 58 f4 ff ff 00 	movl   $0x0,-0xba8(%rbp)
   1acad:	00 00 00 
   1acb0:	c7 85 5c f4 ff ff 00 	movl   $0x0,-0xba4(%rbp)
   1acb7:	00 00 00 
   1acba:	c7 85 60 f4 ff ff 25 	movl   $0xec95e625,-0xba0(%rbp)
   1acc1:	e6 95 ec 
   1acc4:	66 c7 85 f6 f3 ff ff 	movw   $0x8e3f,-0xc0a(%rbp)
   1accb:	3f 8e 
   1accd:	c7 85 18 f4 ff ff 00 	movl   $0x0,-0xbe8(%rbp)
   1acd4:	00 00 00 
   1acd7:	eb 1a                	jmp    1acf3 <func_46+0xda4>
   1acd9:	8b 85 18 f4 ff ff    	mov    -0xbe8(%rbp),%eax
   1acdf:	48 98                	cltq   
   1ace1:	c7 84 85 70 f5 ff ff 	movl   $0xfd7b6072,-0xa90(%rbp,%rax,4)
   1ace8:	72 60 7b fd 
   1acec:	83 85 18 f4 ff ff 01 	addl   $0x1,-0xbe8(%rbp)
   1acf3:	83 bd 18 f4 ff ff 07 	cmpl   $0x7,-0xbe8(%rbp)
   1acfa:	7e dd                	jle    1acd9 <func_46+0xd8a>
   1acfc:	c7 85 00 f4 ff ff 04 	movl   $0x4,-0xc00(%rbp)
   1ad03:	00 00 00 
   1ad06:	e9 7c 01 00 00       	jmpq   1ae87 <func_46+0xf38>
   1ad0b:	66 c7 85 f8 f3 ff ff 	movw   $0x1,-0xc08(%rbp)
   1ad12:	01 00 
   1ad14:	48 8d 85 d0 f5 ff ff 	lea    -0xa30(%rbp),%rax
   1ad1b:	48 83 c0 34          	add    $0x34,%rax
   1ad1f:	48 89 85 28 f5 ff ff 	mov    %rax,-0xad8(%rbp)
   1ad26:	48 8d 05 73 63 00 00 	lea    0x6373(%rip),%rax        # 210a0 <g_254+0x20>
   1ad2d:	48 89 85 30 f5 ff ff 	mov    %rax,-0xad0(%rbp)
   1ad34:	48 c7 85 38 f5 ff ff 	movq   $0x0,-0xac8(%rbp)
   1ad3b:	00 00 00 00 
   1ad3f:	48 c7 85 40 f5 ff ff 	movq   $0x0,-0xac0(%rbp)
   1ad46:	00 00 00 00 
   1ad4a:	48 8d 05 67 63 00 00 	lea    0x6367(%rip),%rax        # 210b8 <g_258>
   1ad51:	48 89 85 48 f5 ff ff 	mov    %rax,-0xab8(%rbp)
   1ad58:	48 8d 85 f2 f3 ff ff 	lea    -0xc0e(%rbp),%rax
   1ad5f:	48 89 85 50 f5 ff ff 	mov    %rax,-0xab0(%rbp)
   1ad66:	66 c7 85 fa f3 ff ff 	movw   $0x1,-0xc06(%rbp)
   1ad6d:	01 00 
   1ad6f:	c7 85 64 f4 ff ff 95 	movl   $0xaafbea95,-0xb9c(%rbp)
   1ad76:	ea fb aa 
   1ad79:	c7 85 1c f4 ff ff 00 	movl   $0x0,-0xbe4(%rbp)
   1ad80:	00 00 00 
   1ad83:	eb 72                	jmp    1adf7 <func_46+0xea8>
   1ad85:	c7 85 20 f4 ff ff 00 	movl   $0x0,-0xbe0(%rbp)
   1ad8c:	00 00 00 
   1ad8f:	eb 56                	jmp    1ade7 <func_46+0xe98>
   1ad91:	c7 85 24 f4 ff ff 00 	movl   $0x0,-0xbdc(%rbp)
   1ad98:	00 00 00 
   1ad9b:	eb 3a                	jmp    1add7 <func_46+0xe88>
   1ad9d:	8b 85 24 f4 ff ff    	mov    -0xbdc(%rbp),%eax
   1ada3:	48 98                	cltq   
   1ada5:	8b 95 1c f4 ff ff    	mov    -0xbe4(%rbp),%edx
   1adab:	48 63 ca             	movslq %edx,%rcx
   1adae:	8b 95 20 f4 ff ff    	mov    -0xbe0(%rbp),%edx
   1adb4:	48 63 d2             	movslq %edx,%rdx
   1adb7:	48 c1 e1 02          	shl    $0x2,%rcx
   1adbb:	48 01 ca             	add    %rcx,%rdx
   1adbe:	48 c1 e2 02          	shl    $0x2,%rdx
   1adc2:	48 01 d0             	add    %rdx,%rax
   1adc5:	c7 84 85 50 f6 ff ff 	movl   $0x3,-0x9b0(%rbp,%rax,4)
   1adcc:	03 00 00 00 
   1add0:	83 85 24 f4 ff ff 01 	addl   $0x1,-0xbdc(%rbp)
   1add7:	83 bd 24 f4 ff ff 03 	cmpl   $0x3,-0xbdc(%rbp)
   1adde:	7e bd                	jle    1ad9d <func_46+0xe4e>
   1ade0:	83 85 20 f4 ff ff 01 	addl   $0x1,-0xbe0(%rbp)
   1ade7:	83 bd 20 f4 ff ff 03 	cmpl   $0x3,-0xbe0(%rbp)
   1adee:	7e a1                	jle    1ad91 <func_46+0xe42>
   1adf0:	83 85 1c f4 ff ff 01 	addl   $0x1,-0xbe4(%rbp)
   1adf7:	83 bd 1c f4 ff ff 06 	cmpl   $0x6,-0xbe4(%rbp)
   1adfe:	7e 85                	jle    1ad85 <func_46+0xe36>
   1ae00:	8b 1d 22 62 00 00    	mov    0x6222(%rip),%ebx        # 21028 <g_3>
   1ae06:	8b 85 00 f4 ff ff    	mov    -0xc00(%rbp),%eax
   1ae0c:	83 c0 02             	add    $0x2,%eax
   1ae0f:	48 98                	cltq   
   1ae11:	0f b6 44 05 bf       	movzbl -0x41(%rbp,%rax,1),%eax
   1ae16:	84 c0                	test   %al,%al
   1ae18:	74 3a                	je     1ae54 <func_46+0xf05>
   1ae1a:	8b 85 00 f4 ff ff    	mov    -0xc00(%rbp),%eax
   1ae20:	83 c0 02             	add    $0x2,%eax
   1ae23:	48 98                	cltq   
   1ae25:	0f b6 44 05 bf       	movzbl -0x41(%rbp,%rax,1),%eax
   1ae2a:	0f be c0             	movsbl %al,%eax
   1ae2d:	be 02 00 00 00       	mov    $0x2,%esi
   1ae32:	89 c7                	mov    %eax,%edi
   1ae34:	e8 fc f4 fe ff       	callq  a335 <safe_rshift_func_int8_t_s_s>
   1ae39:	8b 85 00 f4 ff ff    	mov    -0xc00(%rbp),%eax
   1ae3f:	83 c0 02             	add    $0x2,%eax
   1ae42:	48 98                	cltq   
   1ae44:	0f b6 44 05 bf       	movzbl -0x41(%rbp,%rax,1),%eax
   1ae49:	84 c0                	test   %al,%al
   1ae4b:	74 07                	je     1ae54 <func_46+0xf05>
   1ae4d:	b8 01 00 00 00       	mov    $0x1,%eax
   1ae52:	eb 05                	jmp    1ae59 <func_46+0xf0a>
   1ae54:	b8 00 00 00 00       	mov    $0x0,%eax
   1ae59:	0f be c0             	movsbl %al,%eax
   1ae5c:	89 de                	mov    %ebx,%esi
   1ae5e:	89 c7                	mov    %eax,%edi
   1ae60:	e8 3c f4 fe ff       	callq  a2a1 <safe_lshift_func_int8_t_s_s>
   1ae65:	0f b6 85 e8 f3 ff ff 	movzbl -0xc18(%rbp),%eax
   1ae6c:	0f b6 d0             	movzbl %al,%edx
   1ae6f:	48 8b 85 28 f5 ff ff 	mov    -0xad8(%rbp),%rax
   1ae76:	89 10                	mov    %edx,(%rax)
   1ae78:	8b 85 00 f4 ff ff    	mov    -0xc00(%rbp),%eax
   1ae7e:	83 e8 01             	sub    $0x1,%eax
   1ae81:	89 85 00 f4 ff ff    	mov    %eax,-0xc00(%rbp)
   1ae87:	8b 85 00 f4 ff ff    	mov    -0xc00(%rbp),%eax
   1ae8d:	85 c0                	test   %eax,%eax
   1ae8f:	0f 89 76 fe ff ff    	jns    1ad0b <func_46+0xdbc>
   1ae95:	0f b6 05 a8 61 00 00 	movzbl 0x61a8(%rip),%eax        # 21044 <g_63>
   1ae9c:	83 c0 01             	add    $0x1,%eax
   1ae9f:	88 05 9f 61 00 00    	mov    %al,0x619f(%rip)        # 21044 <g_63>
   1aea5:	0f b6 05 98 61 00 00 	movzbl 0x6198(%rip),%eax        # 21044 <g_63>
   1aeac:	3c 23                	cmp    $0x23,%al
   1aeae:	0f 85 d0 fd ff ff    	jne    1ac84 <func_46+0xd35>
   1aeb4:	8b 05 76 61 00 00    	mov    0x6176(%rip),%eax        # 21030 <g_7>
   1aeba:	48 8b 5d c8          	mov    -0x38(%rbp),%rbx
   1aebe:	64 48 33 1c 25 28 00 	xor    %fs:0x28,%rbx
   1aec5:	00 00 
   1aec7:	74 05                	je     1aece <func_46+0xf7f>
   1aec9:	e8 a2 f1 fe ff       	callq  a070 <__stack_chk_fail@plt>
   1aece:	48 81 c4 08 0c 00 00 	add    $0xc08,%rsp
   1aed5:	5b                   	pop    %rbx
   1aed6:	41 5c                	pop    %r12
   1aed8:	41 5d                	pop    %r13
   1aeda:	41 5e                	pop    %r14
   1aedc:	41 5f                	pop    %r15
   1aede:	5d                   	pop    %rbp
   1aedf:	c3                   	retq   

000000000001aee0 <func_70>:
   1aee0:	f3 0f 1e fa          	endbr64 
   1aee4:	55                   	push   %rbp
   1aee5:	48 89 e5             	mov    %rsp,%rbp
   1aee8:	89 7d fc             	mov    %edi,-0x4(%rbp)
   1aeeb:	48 89 75 f0          	mov    %rsi,-0x10(%rbp)
   1aeef:	89 d0                	mov    %edx,%eax
   1aef1:	48 89 4d e8          	mov    %rcx,-0x18(%rbp)
   1aef5:	4c 89 45 e0          	mov    %r8,-0x20(%rbp)
   1aef9:	88 45 f8             	mov    %al,-0x8(%rbp)
   1aefc:	8b 05 5e 61 00 00    	mov    0x615e(%rip),%eax        # 21060 <g_108>
   1af02:	5d                   	pop    %rbp
   1af03:	c3                   	retq   

000000000001af04 <func_76>:
   1af04:	f3 0f 1e fa          	endbr64 
   1af08:	55                   	push   %rbp
   1af09:	48 89 e5             	mov    %rsp,%rbp
   1af0c:	48 81 ec f0 00 00 00 	sub    $0xf0,%rsp
   1af13:	89 bd 2c ff ff ff    	mov    %edi,-0xd4(%rbp)
   1af19:	48 89 b5 20 ff ff ff 	mov    %rsi,-0xe0(%rbp)
   1af20:	89 d0                	mov    %edx,%eax
   1af22:	48 89 8d 18 ff ff ff 	mov    %rcx,-0xe8(%rbp)
   1af29:	4c 89 85 10 ff ff ff 	mov    %r8,-0xf0(%rbp)
   1af30:	88 85 28 ff ff ff    	mov    %al,-0xd8(%rbp)
   1af36:	64 48 8b 04 25 28 00 	mov    %fs:0x28,%rax
   1af3d:	00 00 
   1af3f:	48 89 45 f8          	mov    %rax,-0x8(%rbp)
   1af43:	31 c0                	xor    %eax,%eax
   1af45:	48 8d 05 14 61 00 00 	lea    0x6114(%rip),%rax        # 21060 <g_108>
   1af4c:	48 89 85 38 ff ff ff 	mov    %rax,-0xc8(%rbp)
   1af53:	48 c7 85 40 ff ff ff 	movq   $0x0,-0xc0(%rbp)
   1af5a:	00 00 00 00 
   1af5e:	48 8d 05 fb 60 00 00 	lea    0x60fb(%rip),%rax        # 21060 <g_108>
   1af65:	48 89 85 48 ff ff ff 	mov    %rax,-0xb8(%rbp)
   1af6c:	48 8d 05 ed 60 00 00 	lea    0x60ed(%rip),%rax        # 21060 <g_108>
   1af73:	48 89 85 50 ff ff ff 	mov    %rax,-0xb0(%rbp)
   1af7a:	48 c7 85 58 ff ff ff 	movq   $0x0,-0xa8(%rbp)
   1af81:	00 00 00 00 
   1af85:	48 8d 05 dc 60 00 00 	lea    0x60dc(%rip),%rax        # 21068 <g_108+0x8>
   1af8c:	48 89 85 60 ff ff ff 	mov    %rax,-0xa0(%rbp)
   1af93:	48 8d 05 c6 60 00 00 	lea    0x60c6(%rip),%rax        # 21060 <g_108>
   1af9a:	48 89 85 68 ff ff ff 	mov    %rax,-0x98(%rbp)
   1afa1:	48 8d 45 80          	lea    -0x80(%rbp),%rax
   1afa5:	48 83 c0 0c          	add    $0xc,%rax
   1afa9:	48 89 85 70 ff ff ff 	mov    %rax,-0x90(%rbp)
   1afb0:	c7 85 34 ff ff ff ff 	movl   $0xffffffff,-0xcc(%rbp)
   1afb7:	ff ff ff 
   1afba:	48 b8 57 3e 3b 6f 1f 	movabs $0x84fd301f6f3b3e57,%rax
   1afc1:	30 fd 84 
   1afc4:	48 89 85 78 ff ff ff 	mov    %rax,-0x88(%rbp)
   1afcb:	c7 85 30 ff ff ff 00 	movl   $0x0,-0xd0(%rbp)
   1afd2:	00 00 00 
   1afd5:	eb 17                	jmp    1afee <func_76+0xea>
   1afd7:	8b 85 30 ff ff ff    	mov    -0xd0(%rbp),%eax
   1afdd:	48 98                	cltq   
   1afdf:	c7 44 85 80 ff ff ff 	movl   $0xffffffff,-0x80(%rbp,%rax,4)
   1afe6:	ff 
   1afe7:	83 85 30 ff ff ff 01 	addl   $0x1,-0xd0(%rbp)
   1afee:	83 bd 30 ff ff ff 03 	cmpl   $0x3,-0xd0(%rbp)
   1aff5:	7e e0                	jle    1afd7 <func_76+0xd3>
   1aff7:	c7 85 30 ff ff ff 00 	movl   $0x0,-0xd0(%rbp)
   1affe:	00 00 00 
   1b001:	eb 1c                	jmp    1b01f <func_76+0x11b>
   1b003:	8b 85 30 ff ff ff    	mov    -0xd0(%rbp),%eax
   1b009:	48 98                	cltq   
   1b00b:	48 8d 55 80          	lea    -0x80(%rbp),%rdx
   1b00f:	48 83 c2 08          	add    $0x8,%rdx
   1b013:	48 89 54 c5 b0       	mov    %rdx,-0x50(%rbp,%rax,8)
   1b018:	83 85 30 ff ff ff 01 	addl   $0x1,-0xd0(%rbp)
   1b01f:	83 bd 30 ff ff ff 07 	cmpl   $0x7,-0xd0(%rbp)
   1b026:	7e db                	jle    1b003 <func_76+0xff>
   1b028:	c7 85 30 ff ff ff 00 	movl   $0x0,-0xd0(%rbp)
   1b02f:	00 00 00 
   1b032:	eb 1b                	jmp    1b04f <func_76+0x14b>
   1b034:	8b 85 30 ff ff ff    	mov    -0xd0(%rbp),%eax
   1b03a:	48 98                	cltq   
   1b03c:	48 8d 15 01 60 00 00 	lea    0x6001(%rip),%rdx        # 21044 <g_63>
   1b043:	48 89 54 c5 90       	mov    %rdx,-0x70(%rbp,%rax,8)
   1b048:	83 85 30 ff ff ff 01 	addl   $0x1,-0xd0(%rbp)
   1b04f:	83 bd 30 ff ff ff 03 	cmpl   $0x3,-0xd0(%rbp)
   1b056:	7e dc                	jle    1b034 <func_76+0x130>
   1b058:	83 ad 34 ff ff ff 01 	subl   $0x1,-0xcc(%rbp)
   1b05f:	48 83 85 78 ff ff ff 	addq   $0x1,-0x88(%rbp)
   1b066:	01 
   1b067:	48 8b 15 5a 83 00 00 	mov    0x835a(%rip),%rdx        # 233c8 <g_102>
   1b06e:	48 8b 05 5b 83 00 00 	mov    0x835b(%rip),%rax        # 233d0 <g_124>
   1b075:	48 8b 12             	mov    (%rdx),%rdx
   1b078:	48 89 10             	mov    %rdx,(%rax)
   1b07b:	48 8b 45 98          	mov    -0x68(%rbp),%rax
   1b07f:	48 8b 4d f8          	mov    -0x8(%rbp),%rcx
   1b083:	64 48 33 0c 25 28 00 	xor    %fs:0x28,%rcx
   1b08a:	00 00 
   1b08c:	74 05                	je     1b093 <func_76+0x18f>
   1b08e:	e8 dd ef fe ff       	callq  a070 <__stack_chk_fail@plt>
   1b093:	c9                   	leaveq 
   1b094:	c3                   	retq   

000000000001b095 <func_82>:
   1b095:	f3 0f 1e fa          	endbr64 
   1b099:	55                   	push   %rbp
   1b09a:	48 89 e5             	mov    %rsp,%rbp
   1b09d:	89 f8                	mov    %edi,%eax
   1b09f:	48 89 75 f0          	mov    %rsi,-0x10(%rbp)
   1b0a3:	88 45 fc             	mov    %al,-0x4(%rbp)
   1b0a6:	48 8b 05 1b 83 00 00 	mov    0x831b(%rip),%rax        # 233c8 <g_102>
   1b0ad:	48 8d 15 78 5f 00 00 	lea    0x5f78(%rip),%rdx        # 2102c <g_4>
   1b0b4:	48 89 10             	mov    %rdx,(%rax)
   1b0b7:	c6 45 fc 00          	movb   $0x0,-0x4(%rbp)
   1b0bb:	80 7d fc 0d          	cmpb   $0xd,-0x4(%rbp)
   1b0bf:	7f 06                	jg     1b0c7 <func_82+0x32>
   1b0c1:	0f be 45 fc          	movsbl -0x4(%rbp),%eax
   1b0c5:	eb 06                	jmp    1b0cd <func_82+0x38>
   1b0c7:	8b 05 87 5f 00 00    	mov    0x5f87(%rip),%eax        # 21054 <g_99+0x4>
   1b0cd:	5d                   	pop    %rbp
   1b0ce:	c3                   	retq   

000000000001b0cf <main>:
   1b0cf:	f3 0f 1e fa          	endbr64 
   1b0d3:	55                   	push   %rbp
   1b0d4:	48 89 e5             	mov    %rsp,%rbp
   1b0d7:	48 83 ec 20          	sub    $0x20,%rsp
   1b0db:	89 7d ec             	mov    %edi,-0x14(%rbp)
   1b0de:	48 89 75 e0          	mov    %rsi,-0x20(%rbp)
   1b0e2:	c7 45 fc 00 00 00 00 	movl   $0x0,-0x4(%rbp)
   1b0e9:	83 7d ec 02          	cmpl   $0x2,-0x14(%rbp)
   1b0ed:	74 25                	je     1b114 <main+0x45>
   1b0ef:	48 8b 45 e0          	mov    -0x20(%rbp),%rax
   1b0f3:	48 83 c0 08          	add    $0x8,%rax
   1b0f7:	48 8b 00             	mov    (%rax),%rax
   1b0fa:	48 8d 35 1f 2b 00 00 	lea    0x2b1f(%rip),%rsi        # 1dc20 <g_953+0x1b60>
   1b101:	48 89 c7             	mov    %rax,%rdi
   1b104:	e8 87 ef fe ff       	callq  a090 <strcmp@plt>
   1b109:	85 c0                	test   %eax,%eax
   1b10b:	74 07                	je     1b114 <main+0x45>
   1b10d:	c7 45 fc 01 00 00 00 	movl   $0x1,-0x4(%rbp)
   1b114:	e8 70 f0 fe ff       	callq  a189 <platform_main_begin>
   1b119:	e8 7a 04 ff ff       	callq  b598 <crc32_gentab>
   1b11e:	e8 92 06 ff ff       	callq  b7b5 <func_1>
   1b123:	8b 05 fb 5e 00 00    	mov    0x5efb(%rip),%eax        # 21024 <g_2>
   1b129:	48 98                	cltq   
   1b12b:	8b 55 fc             	mov    -0x4(%rbp),%edx
   1b12e:	48 8d 35 ed 2a 00 00 	lea    0x2aed(%rip),%rsi        # 1dc22 <g_953+0x1b62>
   1b135:	48 89 c7             	mov    %rax,%rdi
   1b138:	e8 b6 05 ff ff       	callq  b6f3 <transparent_crc>
   1b13d:	8b 05 e5 5e 00 00    	mov    0x5ee5(%rip),%eax        # 21028 <g_3>
   1b143:	48 98                	cltq   
   1b145:	8b 55 fc             	mov    -0x4(%rbp),%edx
   1b148:	48 8d 35 d7 2a 00 00 	lea    0x2ad7(%rip),%rsi        # 1dc26 <g_953+0x1b66>
   1b14f:	48 89 c7             	mov    %rax,%rdi
   1b152:	e8 9c 05 ff ff       	callq  b6f3 <transparent_crc>
   1b157:	8b 05 cf 5e 00 00    	mov    0x5ecf(%rip),%eax        # 2102c <g_4>
   1b15d:	48 98                	cltq   
   1b15f:	8b 55 fc             	mov    -0x4(%rbp),%edx
   1b162:	48 8d 35 c1 2a 00 00 	lea    0x2ac1(%rip),%rsi        # 1dc2a <g_953+0x1b6a>
   1b169:	48 89 c7             	mov    %rax,%rdi
   1b16c:	e8 82 05 ff ff       	callq  b6f3 <transparent_crc>
   1b171:	c7 45 f0 00 00 00 00 	movl   $0x0,-0x10(%rbp)
   1b178:	eb 4b                	jmp    1b1c5 <main+0xf6>
   1b17a:	8b 45 f0             	mov    -0x10(%rbp),%eax
   1b17d:	48 98                	cltq   
   1b17f:	48 8d 14 85 00 00 00 	lea    0x0(,%rax,4),%rdx
   1b186:	00 
   1b187:	48 8d 05 a2 5e 00 00 	lea    0x5ea2(%rip),%rax        # 21030 <g_7>
   1b18e:	8b 04 02             	mov    (%rdx,%rax,1),%eax
   1b191:	48 98                	cltq   
   1b193:	8b 55 fc             	mov    -0x4(%rbp),%edx
   1b196:	48 8d 35 91 2a 00 00 	lea    0x2a91(%rip),%rsi        # 1dc2e <g_953+0x1b6e>
   1b19d:	48 89 c7             	mov    %rax,%rdi
   1b1a0:	e8 4e 05 ff ff       	callq  b6f3 <transparent_crc>
   1b1a5:	83 7d fc 00          	cmpl   $0x0,-0x4(%rbp)
   1b1a9:	74 16                	je     1b1c1 <main+0xf2>
   1b1ab:	8b 45 f0             	mov    -0x10(%rbp),%eax
   1b1ae:	89 c6                	mov    %eax,%esi
   1b1b0:	48 8d 3d 7e 2a 00 00 	lea    0x2a7e(%rip),%rdi        # 1dc35 <g_953+0x1b75>
   1b1b7:	b8 00 00 00 00       	mov    $0x0,%eax
   1b1bc:	e8 bf ee fe ff       	callq  a080 <printf@plt>
   1b1c1:	83 45 f0 01          	addl   $0x1,-0x10(%rbp)
   1b1c5:	83 7d f0 02          	cmpl   $0x2,-0x10(%rbp)
   1b1c9:	7e af                	jle    1b17a <main+0xab>
   1b1cb:	8b 05 6b 5e 00 00    	mov    0x5e6b(%rip),%eax        # 2103c <g_8>
   1b1d1:	48 98                	cltq   
   1b1d3:	8b 55 fc             	mov    -0x4(%rbp),%edx
   1b1d6:	48 8d 35 66 2a 00 00 	lea    0x2a66(%rip),%rsi        # 1dc43 <g_953+0x1b83>
   1b1dd:	48 89 c7             	mov    %rax,%rdi
   1b1e0:	e8 0e 05 ff ff       	callq  b6f3 <transparent_crc>
   1b1e5:	8b 05 55 5e 00 00    	mov    0x5e55(%rip),%eax        # 21040 <g_9>
   1b1eb:	48 98                	cltq   
   1b1ed:	8b 55 fc             	mov    -0x4(%rbp),%edx
   1b1f0:	48 8d 35 50 2a 00 00 	lea    0x2a50(%rip),%rsi        # 1dc47 <g_953+0x1b87>
   1b1f7:	48 89 c7             	mov    %rax,%rdi
   1b1fa:	e8 f4 04 ff ff       	callq  b6f3 <transparent_crc>
   1b1ff:	0f b7 05 02 a5 00 00 	movzwl 0xa502(%rip),%eax        # 25708 <g_37>
   1b206:	48 0f bf c0          	movswq %ax,%rax
   1b20a:	8b 55 fc             	mov    -0x4(%rbp),%edx
   1b20d:	48 8d 35 37 2a 00 00 	lea    0x2a37(%rip),%rsi        # 1dc4b <g_953+0x1b8b>
   1b214:	48 89 c7             	mov    %rax,%rdi
   1b217:	e8 d7 04 ff ff       	callq  b6f3 <transparent_crc>
   1b21c:	0f b6 05 21 5e 00 00 	movzbl 0x5e21(%rip),%eax        # 21044 <g_63>
   1b223:	0f b6 c0             	movzbl %al,%eax
   1b226:	8b 55 fc             	mov    -0x4(%rbp),%edx
   1b229:	48 8d 35 20 2a 00 00 	lea    0x2a20(%rip),%rsi        # 1dc50 <g_953+0x1b90>
   1b230:	48 89 c7             	mov    %rax,%rdi
   1b233:	e8 bb 04 ff ff       	callq  b6f3 <transparent_crc>
   1b238:	48 8b 05 09 5e 00 00 	mov    0x5e09(%rip),%rax        # 21048 <g_98>
   1b23f:	8b 55 fc             	mov    -0x4(%rbp),%edx
   1b242:	48 8d 35 0c 2a 00 00 	lea    0x2a0c(%rip),%rsi        # 1dc55 <g_953+0x1b95>
   1b249:	48 89 c7             	mov    %rax,%rdi
   1b24c:	e8 a2 04 ff ff       	callq  b6f3 <transparent_crc>
   1b251:	c7 45 f0 00 00 00 00 	movl   $0x0,-0x10(%rbp)
   1b258:	eb 4d                	jmp    1b2a7 <main+0x1d8>
   1b25a:	8b 45 f0             	mov    -0x10(%rbp),%eax
   1b25d:	48 98                	cltq   
   1b25f:	48 8d 14 85 00 00 00 	lea    0x0(,%rax,4),%rdx
   1b266:	00 
   1b267:	48 8d 05 e2 5d 00 00 	lea    0x5de2(%rip),%rax        # 21050 <g_99>
   1b26e:	8b 04 02             	mov    (%rdx,%rax,1),%eax
   1b271:	89 c1                	mov    %eax,%ecx
   1b273:	8b 45 fc             	mov    -0x4(%rbp),%eax
   1b276:	89 c2                	mov    %eax,%edx
   1b278:	48 8d 35 db 29 00 00 	lea    0x29db(%rip),%rsi        # 1dc5a <g_953+0x1b9a>
   1b27f:	48 89 cf             	mov    %rcx,%rdi
   1b282:	e8 6c 04 ff ff       	callq  b6f3 <transparent_crc>
   1b287:	83 7d fc 00          	cmpl   $0x0,-0x4(%rbp)
   1b28b:	74 16                	je     1b2a3 <main+0x1d4>
   1b28d:	8b 45 f0             	mov    -0x10(%rbp),%eax
   1b290:	89 c6                	mov    %eax,%esi
   1b292:	48 8d 3d 9c 29 00 00 	lea    0x299c(%rip),%rdi        # 1dc35 <g_953+0x1b75>
   1b299:	b8 00 00 00 00       	mov    $0x0,%eax
   1b29e:	e8 dd ed fe ff       	callq  a080 <printf@plt>
   1b2a3:	83 45 f0 01          	addl   $0x1,-0x10(%rbp)
   1b2a7:	83 7d f0 01          	cmpl   $0x1,-0x10(%rbp)
   1b2ab:	7e ad                	jle    1b25a <main+0x18b>
   1b2ad:	0f b6 05 a4 5d 00 00 	movzbl 0x5da4(%rip),%eax        # 21058 <g_101>
   1b2b4:	48 0f be c0          	movsbq %al,%rax
   1b2b8:	8b 55 fc             	mov    -0x4(%rbp),%edx
   1b2bb:	48 8d 35 a0 29 00 00 	lea    0x29a0(%rip),%rsi        # 1dc62 <g_953+0x1ba2>
   1b2c2:	48 89 c7             	mov    %rax,%rdi
   1b2c5:	e8 29 04 ff ff       	callq  b6f3 <transparent_crc>
   1b2ca:	c7 45 f0 00 00 00 00 	movl   $0x0,-0x10(%rbp)
   1b2d1:	eb 4b                	jmp    1b31e <main+0x24f>
   1b2d3:	8b 45 f0             	mov    -0x10(%rbp),%eax
   1b2d6:	48 98                	cltq   
   1b2d8:	48 8d 14 85 00 00 00 	lea    0x0(,%rax,4),%rdx
   1b2df:	00 
   1b2e0:	48 8d 05 79 5d 00 00 	lea    0x5d79(%rip),%rax        # 21060 <g_108>
   1b2e7:	8b 04 02             	mov    (%rdx,%rax,1),%eax
   1b2ea:	48 98                	cltq   
   1b2ec:	8b 55 fc             	mov    -0x4(%rbp),%edx
   1b2ef:	48 8d 35 72 29 00 00 	lea    0x2972(%rip),%rsi        # 1dc68 <g_953+0x1ba8>
   1b2f6:	48 89 c7             	mov    %rax,%rdi
   1b2f9:	e8 f5 03 ff ff       	callq  b6f3 <transparent_crc>
   1b2fe:	83 7d fc 00          	cmpl   $0x0,-0x4(%rbp)
   1b302:	74 16                	je     1b31a <main+0x24b>
   1b304:	8b 45 f0             	mov    -0x10(%rbp),%eax
   1b307:	89 c6                	mov    %eax,%esi
   1b309:	48 8d 3d 25 29 00 00 	lea    0x2925(%rip),%rdi        # 1dc35 <g_953+0x1b75>
   1b310:	b8 00 00 00 00       	mov    $0x0,%eax
   1b315:	e8 66 ed fe ff       	callq  a080 <printf@plt>
   1b31a:	83 45 f0 01          	addl   $0x1,-0x10(%rbp)
   1b31e:	83 7d f0 02          	cmpl   $0x2,-0x10(%rbp)
   1b322:	7e af                	jle    1b2d3 <main+0x204>
   1b324:	c7 45 f0 00 00 00 00 	movl   $0x0,-0x10(%rbp)
   1b32b:	eb 4f                	jmp    1b37c <main+0x2ad>
   1b32d:	8b 45 f0             	mov    -0x10(%rbp),%eax
   1b330:	48 98                	cltq   
   1b332:	48 8d 14 c5 00 00 00 	lea    0x0(,%rax,8),%rdx
   1b339:	00 
   1b33a:	48 8d 05 3f 5d 00 00 	lea    0x5d3f(%rip),%rax        # 21080 <g_254>
   1b341:	48 8b 04 02          	mov    (%rdx,%rax,1),%rax
   1b345:	48 89 c1             	mov    %rax,%rcx
   1b348:	8b 45 fc             	mov    -0x4(%rbp),%eax
   1b34b:	89 c2                	mov    %eax,%edx
   1b34d:	48 8d 35 1d 29 00 00 	lea    0x291d(%rip),%rsi        # 1dc71 <g_953+0x1bb1>
   1b354:	48 89 cf             	mov    %rcx,%rdi
   1b357:	e8 97 03 ff ff       	callq  b6f3 <transparent_crc>
   1b35c:	83 7d fc 00          	cmpl   $0x0,-0x4(%rbp)
   1b360:	74 16                	je     1b378 <main+0x2a9>
   1b362:	8b 45 f0             	mov    -0x10(%rbp),%eax
   1b365:	89 c6                	mov    %eax,%esi
   1b367:	48 8d 3d c7 28 00 00 	lea    0x28c7(%rip),%rdi        # 1dc35 <g_953+0x1b75>
   1b36e:	b8 00 00 00 00       	mov    $0x0,%eax
   1b373:	e8 08 ed fe ff       	callq  a080 <printf@plt>
   1b378:	83 45 f0 01          	addl   $0x1,-0x10(%rbp)
   1b37c:	83 7d f0 06          	cmpl   $0x6,-0x10(%rbp)
   1b380:	7e ab                	jle    1b32d <main+0x25e>
   1b382:	48 8b 05 2f 5d 00 00 	mov    0x5d2f(%rip),%rax        # 210b8 <g_258>
   1b389:	48 89 c1             	mov    %rax,%rcx
   1b38c:	8b 45 fc             	mov    -0x4(%rbp),%eax
   1b38f:	89 c2                	mov    %eax,%edx
   1b391:	48 8d 35 e2 28 00 00 	lea    0x28e2(%rip),%rsi        # 1dc7a <g_953+0x1bba>
   1b398:	48 89 cf             	mov    %rcx,%rdi
   1b39b:	e8 53 03 ff ff       	callq  b6f3 <transparent_crc>
   1b3a0:	8b 05 1a 5d 00 00    	mov    0x5d1a(%rip),%eax        # 210c0 <g_278>
   1b3a6:	48 98                	cltq   
   1b3a8:	8b 55 fc             	mov    -0x4(%rbp),%edx
   1b3ab:	48 8d 35 ce 28 00 00 	lea    0x28ce(%rip),%rsi        # 1dc80 <g_953+0x1bc0>
   1b3b2:	48 89 c7             	mov    %rax,%rdi
   1b3b5:	e8 39 03 ff ff       	callq  b6f3 <transparent_crc>
   1b3ba:	0f b7 05 67 a3 00 00 	movzwl 0xa367(%rip),%eax        # 25728 <g_343>
   1b3c1:	48 0f bf c0          	movswq %ax,%rax
   1b3c5:	8b 55 fc             	mov    -0x4(%rbp),%edx
   1b3c8:	48 8d 35 b7 28 00 00 	lea    0x28b7(%rip),%rsi        # 1dc86 <g_953+0x1bc6>
   1b3cf:	48 89 c7             	mov    %rax,%rdi
   1b3d2:	e8 1c 03 ff ff       	callq  b6f3 <transparent_crc>
   1b3d7:	8b 05 e7 5c 00 00    	mov    0x5ce7(%rip),%eax        # 210c4 <g_353>
   1b3dd:	48 98                	cltq   
   1b3df:	8b 55 fc             	mov    -0x4(%rbp),%edx
   1b3e2:	48 8d 35 a3 28 00 00 	lea    0x28a3(%rip),%rsi        # 1dc8c <g_953+0x1bcc>
   1b3e9:	48 89 c7             	mov    %rax,%rdi
   1b3ec:	e8 02 03 ff ff       	callq  b6f3 <transparent_crc>
   1b3f1:	c7 45 f0 00 00 00 00 	movl   $0x0,-0x10(%rbp)
   1b3f8:	eb 79                	jmp    1b473 <main+0x3a4>
   1b3fa:	c7 45 f4 00 00 00 00 	movl   $0x0,-0xc(%rbp)
   1b401:	eb 66                	jmp    1b469 <main+0x39a>
   1b403:	8b 45 f4             	mov    -0xc(%rbp),%eax
   1b406:	48 63 c8             	movslq %eax,%rcx
   1b409:	8b 45 f0             	mov    -0x10(%rbp),%eax
   1b40c:	48 63 d0             	movslq %eax,%rdx
   1b40f:	48 89 d0             	mov    %rdx,%rax
   1b412:	48 01 c0             	add    %rax,%rax
   1b415:	48 01 d0             	add    %rdx,%rax
   1b418:	48 01 c0             	add    %rax,%rax
   1b41b:	48 01 c8             	add    %rcx,%rax
   1b41e:	48 8d 14 85 00 00 00 	lea    0x0(,%rax,4),%rdx
   1b425:	00 
   1b426:	48 8d 05 b3 5c 00 00 	lea    0x5cb3(%rip),%rax        # 210e0 <g_354>
   1b42d:	8b 04 02             	mov    (%rdx,%rax,1),%eax
   1b430:	89 c1                	mov    %eax,%ecx
   1b432:	8b 45 fc             	mov    -0x4(%rbp),%eax
   1b435:	89 c2                	mov    %eax,%edx
   1b437:	48 8d 35 54 28 00 00 	lea    0x2854(%rip),%rsi        # 1dc92 <g_953+0x1bd2>
   1b43e:	48 89 cf             	mov    %rcx,%rdi
   1b441:	e8 ad 02 ff ff       	callq  b6f3 <transparent_crc>
   1b446:	83 7d fc 00          	cmpl   $0x0,-0x4(%rbp)
   1b44a:	74 19                	je     1b465 <main+0x396>
   1b44c:	8b 55 f4             	mov    -0xc(%rbp),%edx
   1b44f:	8b 45 f0             	mov    -0x10(%rbp),%eax
   1b452:	89 c6                	mov    %eax,%esi
   1b454:	48 8d 3d 43 28 00 00 	lea    0x2843(%rip),%rdi        # 1dc9e <g_953+0x1bde>
   1b45b:	b8 00 00 00 00       	mov    $0x0,%eax
   1b460:	e8 1b ec fe ff       	callq  a080 <printf@plt>
   1b465:	83 45 f4 01          	addl   $0x1,-0xc(%rbp)
   1b469:	83 7d f4 05          	cmpl   $0x5,-0xc(%rbp)
   1b46d:	7e 94                	jle    1b403 <main+0x334>
   1b46f:	83 45 f0 01          	addl   $0x1,-0x10(%rbp)
   1b473:	83 7d f0 03          	cmpl   $0x3,-0x10(%rbp)
   1b477:	7e 81                	jle    1b3fa <main+0x32b>
   1b479:	c7 45 f0 00 00 00 00 	movl   $0x0,-0x10(%rbp)
   1b480:	eb 4f                	jmp    1b4d1 <main+0x402>
   1b482:	8b 45 f0             	mov    -0x10(%rbp),%eax
   1b485:	48 98                	cltq   
   1b487:	48 8d 14 c5 00 00 00 	lea    0x0(,%rax,8),%rdx
   1b48e:	00 
   1b48f:	48 8d 05 ca 0b 00 00 	lea    0xbca(%rip),%rax        # 1c060 <g_394>
   1b496:	48 8b 04 02          	mov    (%rdx,%rax,1),%rax
   1b49a:	48 89 c1             	mov    %rax,%rcx
   1b49d:	8b 45 fc             	mov    -0x4(%rbp),%eax
   1b4a0:	89 c2                	mov    %eax,%edx
   1b4a2:	48 8d 35 07 28 00 00 	lea    0x2807(%rip),%rsi        # 1dcb0 <g_953+0x1bf0>
   1b4a9:	48 89 cf             	mov    %rcx,%rdi
   1b4ac:	e8 42 02 ff ff       	callq  b6f3 <transparent_crc>
   1b4b1:	83 7d fc 00          	cmpl   $0x0,-0x4(%rbp)
   1b4b5:	74 16                	je     1b4cd <main+0x3fe>
   1b4b7:	8b 45 f0             	mov    -0x10(%rbp),%eax
   1b4ba:	89 c6                	mov    %eax,%esi
   1b4bc:	48 8d 3d 72 27 00 00 	lea    0x2772(%rip),%rdi        # 1dc35 <g_953+0x1b75>
   1b4c3:	b8 00 00 00 00       	mov    $0x0,%eax
   1b4c8:	e8 b3 eb fe ff       	callq  a080 <printf@plt>
   1b4cd:	83 45 f0 01          	addl   $0x1,-0x10(%rbp)
   1b4d1:	83 7d f0 09          	cmpl   $0x9,-0x10(%rbp)
   1b4d5:	7e ab                	jle    1b482 <main+0x3b3>
   1b4d7:	0f b7 05 62 5c 00 00 	movzwl 0x5c62(%rip),%eax        # 21140 <g_400>
   1b4de:	0f b7 c0             	movzwl %ax,%eax
   1b4e1:	8b 55 fc             	mov    -0x4(%rbp),%edx
   1b4e4:	48 8d 35 ce 27 00 00 	lea    0x27ce(%rip),%rsi        # 1dcb9 <g_953+0x1bf9>
   1b4eb:	48 89 c7             	mov    %rax,%rdi
   1b4ee:	e8 00 02 ff ff       	callq  b6f3 <transparent_crc>
   1b4f3:	48 8b 05 4e 5c 00 00 	mov    0x5c4e(%rip),%rax        # 21148 <g_419>
   1b4fa:	48 89 c1             	mov    %rax,%rcx
   1b4fd:	8b 45 fc             	mov    -0x4(%rbp),%eax
   1b500:	89 c2                	mov    %eax,%edx
   1b502:	48 8d 35 b6 27 00 00 	lea    0x27b6(%rip),%rsi        # 1dcbf <g_953+0x1bff>
   1b509:	48 89 cf             	mov    %rcx,%rdi
   1b50c:	e8 e2 01 ff ff       	callq  b6f3 <transparent_crc>
   1b511:	c7 45 f0 00 00 00 00 	movl   $0x0,-0x10(%rbp)
   1b518:	eb 4a                	jmp    1b564 <main+0x495>
   1b51a:	8b 45 f0             	mov    -0x10(%rbp),%eax
   1b51d:	48 98                	cltq   
   1b51f:	48 8d 14 c5 00 00 00 	lea    0x0(,%rax,8),%rdx
   1b526:	00 
   1b527:	48 8d 05 72 a2 00 00 	lea    0xa272(%rip),%rax        # 257a0 <g_497>
   1b52e:	48 8b 04 02          	mov    (%rdx,%rax,1),%rax
   1b532:	8b 55 fc             	mov    -0x4(%rbp),%edx
   1b535:	48 8d 35 89 27 00 00 	lea    0x2789(%rip),%rsi        # 1dcc5 <g_953+0x1c05>
   1b53c:	48 89 c7             	mov    %rax,%rdi
   1b53f:	e8 af 01 ff ff       	callq  b6f3 <transparent_crc>
   1b544:	83 7d fc 00          	cmpl   $0x0,-0x4(%rbp)
   1b548:	74 16                	je     1b560 <main+0x491>
   1b54a:	8b 45 f0             	mov    -0x10(%rbp),%eax
   1b54d:	89 c6                	mov    %eax,%esi
   1b54f:	48 8d 3d df 26 00 00 	lea    0x26df(%rip),%rdi        # 1dc35 <g_953+0x1b75>
   1b556:	b8 00 00 00 00       	mov    $0x0,%eax
   1b55b:	e8 20 eb fe ff       	callq  a080 <printf@plt>
   1b560:	83 45 f0 01          	addl   $0x1,-0x10(%rbp)
   1b564:	83 7d f0 09          	cmpl   $0x9,-0x10(%rbp)
   1b568:	7e b0                	jle    1b51a <main+0x44b>
   1b56a:	48 8b 05 df 5b 00 00 	mov    0x5bdf(%rip),%rax        # 21150 <g_500>
   1b571:	48 89 c1             	mov    %rax,%rcx
   1b574:	8b 45 fc             	mov    -0x4(%rbp),%eax
   1b577:	89 c2                	mov    %eax,%edx
   1b579:	48 8d 35 4e 27 00 00 	lea    0x274e(%rip),%rsi        # 1dcce <g_953+0x1c0e>
   1b580:	48 89 cf             	mov    %rcx,%rdi
   1b583:	e8 6b 01 ff ff       	callq  b6f3 <transparent_crc>
   1b588:	c7 45 f0 00 00 00 00 	movl   $0x0,-0x10(%rbp)
   1b58f:	eb 46                	jmp    1b5d7 <main+0x508>
   1b591:	8b 45 f0             	mov    -0x10(%rbp),%eax
   1b594:	48 98                	cltq   
   1b596:	48 8d 15 bb 5b 00 00 	lea    0x5bbb(%rip),%rdx        # 21158 <g_501>
   1b59d:	0f b6 04 10          	movzbl (%rax,%rdx,1),%eax
   1b5a1:	48 0f be c0          	movsbq %al,%rax
   1b5a5:	8b 55 fc             	mov    -0x4(%rbp),%edx
   1b5a8:	48 8d 35 25 27 00 00 	lea    0x2725(%rip),%rsi        # 1dcd4 <g_953+0x1c14>
   1b5af:	48 89 c7             	mov    %rax,%rdi
   1b5b2:	e8 3c 01 ff ff       	callq  b6f3 <transparent_crc>
   1b5b7:	83 7d fc 00          	cmpl   $0x0,-0x4(%rbp)
   1b5bb:	74 16                	je     1b5d3 <main+0x504>
   1b5bd:	8b 45 f0             	mov    -0x10(%rbp),%eax
   1b5c0:	89 c6                	mov    %eax,%esi
   1b5c2:	48 8d 3d 6c 26 00 00 	lea    0x266c(%rip),%rdi        # 1dc35 <g_953+0x1b75>
   1b5c9:	b8 00 00 00 00       	mov    $0x0,%eax
   1b5ce:	e8 ad ea fe ff       	callq  a080 <printf@plt>
   1b5d3:	83 45 f0 01          	addl   $0x1,-0x10(%rbp)
   1b5d7:	83 7d f0 02          	cmpl   $0x2,-0x10(%rbp)
   1b5db:	7e b4                	jle    1b591 <main+0x4c2>
   1b5dd:	0f b7 05 78 5b 00 00 	movzwl 0x5b78(%rip),%eax        # 2115c <g_569>
   1b5e4:	0f b7 c0             	movzwl %ax,%eax
   1b5e7:	8b 55 fc             	mov    -0x4(%rbp),%edx
   1b5ea:	48 8d 35 ec 26 00 00 	lea    0x26ec(%rip),%rsi        # 1dcdd <g_953+0x1c1d>
   1b5f1:	48 89 c7             	mov    %rax,%rdi
   1b5f4:	e8 fa 00 ff ff       	callq  b6f3 <transparent_crc>
   1b5f9:	0f b6 05 5e 5b 00 00 	movzbl 0x5b5e(%rip),%eax        # 2115e <g_588>
   1b600:	0f b6 c0             	movzbl %al,%eax
   1b603:	8b 55 fc             	mov    -0x4(%rbp),%edx
   1b606:	48 8d 35 d6 26 00 00 	lea    0x26d6(%rip),%rsi        # 1dce3 <g_953+0x1c23>
   1b60d:	48 89 c7             	mov    %rax,%rdi
   1b610:	e8 de 00 ff ff       	callq  b6f3 <transparent_crc>
   1b615:	8b 05 45 5b 00 00    	mov    0x5b45(%rip),%eax        # 21160 <g_622>
   1b61b:	89 c1                	mov    %eax,%ecx
   1b61d:	8b 45 fc             	mov    -0x4(%rbp),%eax
   1b620:	89 c2                	mov    %eax,%edx
   1b622:	48 8d 35 c0 26 00 00 	lea    0x26c0(%rip),%rsi        # 1dce9 <g_953+0x1c29>
   1b629:	48 89 cf             	mov    %rcx,%rdi
   1b62c:	e8 c2 00 ff ff       	callq  b6f3 <transparent_crc>
   1b631:	b8 60 7a 85 62       	mov    $0x62857a60,%eax
   1b636:	89 c1                	mov    %eax,%ecx
   1b638:	8b 45 fc             	mov    -0x4(%rbp),%eax
   1b63b:	89 c2                	mov    %eax,%edx
   1b63d:	48 8d 35 ab 26 00 00 	lea    0x26ab(%rip),%rsi        # 1dcef <g_953+0x1c2f>
   1b644:	48 89 cf             	mov    %rcx,%rdi
   1b647:	e8 a7 00 ff ff       	callq  b6f3 <transparent_crc>
   1b64c:	0f b6 05 11 5b 00 00 	movzbl 0x5b11(%rip),%eax        # 21164 <g_658>
   1b653:	48 0f be c0          	movsbq %al,%rax
   1b657:	8b 55 fc             	mov    -0x4(%rbp),%edx
   1b65a:	48 8d 35 94 26 00 00 	lea    0x2694(%rip),%rsi        # 1dcf5 <g_953+0x1c35>
   1b661:	48 89 c7             	mov    %rax,%rdi
   1b664:	e8 8a 00 ff ff       	callq  b6f3 <transparent_crc>
   1b669:	48 8b 05 f8 5a 00 00 	mov    0x5af8(%rip),%rax        # 21168 <g_908>
   1b670:	48 89 c1             	mov    %rax,%rcx
   1b673:	8b 45 fc             	mov    -0x4(%rbp),%eax
   1b676:	89 c2                	mov    %eax,%edx
   1b678:	48 8d 35 7c 26 00 00 	lea    0x267c(%rip),%rsi        # 1dcfb <g_953+0x1c3b>
   1b67f:	48 89 cf             	mov    %rcx,%rdi
   1b682:	e8 6c 00 ff ff       	callq  b6f3 <transparent_crc>
   1b687:	b9 08 00 00 00       	mov    $0x8,%ecx
   1b68c:	8b 45 fc             	mov    -0x4(%rbp),%eax
   1b68f:	89 c2                	mov    %eax,%edx
   1b691:	48 8d 35 69 26 00 00 	lea    0x2669(%rip),%rsi        # 1dd01 <g_953+0x1c41>
   1b698:	48 89 cf             	mov    %rcx,%rdi
   1b69b:	e8 53 00 ff ff       	callq  b6f3 <transparent_crc>
   1b6a0:	48 8b 05 c9 5a 00 00 	mov    0x5ac9(%rip),%rax        # 21170 <g_967>
   1b6a7:	48 89 c1             	mov    %rax,%rcx
   1b6aa:	8b 45 fc             	mov    -0x4(%rbp),%eax
   1b6ad:	89 c2                	mov    %eax,%edx
   1b6af:	48 8d 35 51 26 00 00 	lea    0x2651(%rip),%rsi        # 1dd07 <g_953+0x1c47>
   1b6b6:	48 89 cf             	mov    %rcx,%rdi
   1b6b9:	e8 35 00 ff ff       	callq  b6f3 <transparent_crc>
   1b6be:	8b 05 b4 5a 00 00    	mov    0x5ab4(%rip),%eax        # 21178 <g_1129>
   1b6c4:	89 c1                	mov    %eax,%ecx
   1b6c6:	8b 45 fc             	mov    -0x4(%rbp),%eax
   1b6c9:	89 c2                	mov    %eax,%edx
   1b6cb:	48 8d 35 3b 26 00 00 	lea    0x263b(%rip),%rsi        # 1dd0d <g_953+0x1c4d>
   1b6d2:	48 89 cf             	mov    %rcx,%rdi
   1b6d5:	e8 19 00 ff ff       	callq  b6f3 <transparent_crc>
   1b6da:	0f b7 05 9b 5a 00 00 	movzwl 0x5a9b(%rip),%eax        # 2117c <g_1333>
   1b6e1:	0f b7 c0             	movzwl %ax,%eax
   1b6e4:	8b 55 fc             	mov    -0x4(%rbp),%edx
   1b6e7:	48 8d 35 26 26 00 00 	lea    0x2626(%rip),%rsi        # 1dd14 <g_953+0x1c54>
   1b6ee:	48 89 c7             	mov    %rax,%rdi
   1b6f1:	e8 fd ff fe ff       	callq  b6f3 <transparent_crc>
   1b6f6:	c7 45 f0 00 00 00 00 	movl   $0x0,-0x10(%rbp)
   1b6fd:	e9 a7 00 00 00       	jmpq   1b7a9 <main+0x6da>
   1b702:	c7 45 f4 00 00 00 00 	movl   $0x0,-0xc(%rbp)
   1b709:	e9 8d 00 00 00       	jmpq   1b79b <main+0x6cc>
   1b70e:	c7 45 f8 00 00 00 00 	movl   $0x0,-0x8(%rbp)
   1b715:	eb 7a                	jmp    1b791 <main+0x6c2>
   1b717:	8b 45 f8             	mov    -0x8(%rbp),%eax
   1b71a:	48 63 f0             	movslq %eax,%rsi
   1b71d:	8b 45 f0             	mov    -0x10(%rbp),%eax
   1b720:	48 63 d0             	movslq %eax,%rdx
   1b723:	8b 45 f4             	mov    -0xc(%rbp),%eax
   1b726:	48 63 c8             	movslq %eax,%rcx
   1b729:	48 89 d0             	mov    %rdx,%rax
   1b72c:	48 c1 e0 03          	shl    $0x3,%rax
   1b730:	48 29 d0             	sub    %rdx,%rax
   1b733:	48 c1 e0 03          	shl    $0x3,%rax
   1b737:	48 89 ca             	mov    %rcx,%rdx
   1b73a:	48 c1 e2 03          	shl    $0x3,%rdx
   1b73e:	48 29 ca             	sub    %rcx,%rdx
   1b741:	48 01 d0             	add    %rdx,%rax
   1b744:	48 01 f0             	add    %rsi,%rax
   1b747:	48 8d 14 00          	lea    (%rax,%rax,1),%rdx
   1b74b:	48 8d 05 2e 5a 00 00 	lea    0x5a2e(%rip),%rax        # 21180 <g_1334>
   1b752:	0f b7 04 02          	movzwl (%rdx,%rax,1),%eax
   1b756:	0f b7 c0             	movzwl %ax,%eax
   1b759:	8b 55 fc             	mov    -0x4(%rbp),%edx
   1b75c:	48 8d 35 b8 25 00 00 	lea    0x25b8(%rip),%rsi        # 1dd1b <g_953+0x1c5b>
   1b763:	48 89 c7             	mov    %rax,%rdi
   1b766:	e8 88 ff fe ff       	callq  b6f3 <transparent_crc>
   1b76b:	83 7d fc 00          	cmpl   $0x0,-0x4(%rbp)
   1b76f:	74 1c                	je     1b78d <main+0x6be>
   1b771:	8b 4d f8             	mov    -0x8(%rbp),%ecx
   1b774:	8b 55 f4             	mov    -0xc(%rbp),%edx
   1b777:	8b 45 f0             	mov    -0x10(%rbp),%eax
   1b77a:	89 c6                	mov    %eax,%esi
   1b77c:	48 8d 3d a8 25 00 00 	lea    0x25a8(%rip),%rdi        # 1dd2b <g_953+0x1c6b>
   1b783:	b8 00 00 00 00       	mov    $0x0,%eax
   1b788:	e8 f3 e8 fe ff       	callq  a080 <printf@plt>
   1b78d:	83 45 f8 01          	addl   $0x1,-0x8(%rbp)
   1b791:	83 7d f8 06          	cmpl   $0x6,-0x8(%rbp)
   1b795:	7e 80                	jle    1b717 <main+0x648>
   1b797:	83 45 f4 01          	addl   $0x1,-0xc(%rbp)
   1b79b:	83 7d f4 07          	cmpl   $0x7,-0xc(%rbp)
   1b79f:	0f 8e 69 ff ff ff    	jle    1b70e <main+0x63f>
   1b7a5:	83 45 f0 01          	addl   $0x1,-0x10(%rbp)
   1b7a9:	83 7d f0 03          	cmpl   $0x3,-0x10(%rbp)
   1b7ad:	0f 8e 4f ff ff ff    	jle    1b702 <main+0x633>
   1b7b3:	8b 05 87 5b 00 00    	mov    0x5b87(%rip),%eax        # 21340 <g_1364>
   1b7b9:	48 98                	cltq   
   1b7bb:	8b 55 fc             	mov    -0x4(%rbp),%edx
   1b7be:	48 8d 35 7c 25 00 00 	lea    0x257c(%rip),%rsi        # 1dd41 <g_953+0x1c81>
   1b7c5:	48 89 c7             	mov    %rax,%rdi
   1b7c8:	e8 26 ff fe ff       	callq  b6f3 <transparent_crc>
   1b7cd:	8b 05 71 5b 00 00    	mov    0x5b71(%rip),%eax        # 21344 <g_1476>
   1b7d3:	89 c1                	mov    %eax,%ecx
   1b7d5:	8b 45 fc             	mov    -0x4(%rbp),%eax
   1b7d8:	89 c2                	mov    %eax,%edx
   1b7da:	48 8d 35 67 25 00 00 	lea    0x2567(%rip),%rsi        # 1dd48 <g_953+0x1c88>
   1b7e1:	48 89 cf             	mov    %rcx,%rdi
   1b7e4:	e8 0a ff fe ff       	callq  b6f3 <transparent_crc>
   1b7e9:	0f b7 05 58 5b 00 00 	movzwl 0x5b58(%rip),%eax        # 21348 <g_1578>
   1b7f0:	48 0f bf c0          	movswq %ax,%rax
   1b7f4:	8b 55 fc             	mov    -0x4(%rbp),%edx
   1b7f7:	48 8d 35 51 25 00 00 	lea    0x2551(%rip),%rsi        # 1dd4f <g_953+0x1c8f>
   1b7fe:	48 89 c7             	mov    %rax,%rdi
   1b801:	e8 ed fe fe ff       	callq  b6f3 <transparent_crc>
   1b806:	0f b7 05 3d 5b 00 00 	movzwl 0x5b3d(%rip),%eax        # 2134a <g_1649>
   1b80d:	0f b7 c0             	movzwl %ax,%eax
   1b810:	8b 55 fc             	mov    -0x4(%rbp),%edx
   1b813:	48 8d 35 3c 25 00 00 	lea    0x253c(%rip),%rsi        # 1dd56 <g_953+0x1c96>
   1b81a:	48 89 c7             	mov    %rax,%rdi
   1b81d:	e8 d1 fe fe ff       	callq  b6f3 <transparent_crc>
   1b822:	48 8b 05 27 5b 00 00 	mov    0x5b27(%rip),%rax        # 21350 <g_1697>
   1b829:	8b 55 fc             	mov    -0x4(%rbp),%edx
   1b82c:	48 8d 35 2a 25 00 00 	lea    0x252a(%rip),%rsi        # 1dd5d <g_953+0x1c9d>
   1b833:	48 89 c7             	mov    %rax,%rdi
   1b836:	e8 b8 fe fe ff       	callq  b6f3 <transparent_crc>
   1b83b:	8b 05 17 5b 00 00    	mov    0x5b17(%rip),%eax        # 21358 <g_1731>
   1b841:	89 c1                	mov    %eax,%ecx
   1b843:	8b 45 fc             	mov    -0x4(%rbp),%eax
   1b846:	89 c2                	mov    %eax,%edx
   1b848:	48 8d 35 15 25 00 00 	lea    0x2515(%rip),%rsi        # 1dd64 <g_953+0x1ca4>
   1b84f:	48 89 cf             	mov    %rcx,%rdi
   1b852:	e8 9c fe fe ff       	callq  b6f3 <transparent_crc>
   1b857:	c7 45 f0 00 00 00 00 	movl   $0x0,-0x10(%rbp)
   1b85e:	eb 4a                	jmp    1b8aa <main+0x7db>
   1b860:	8b 45 f0             	mov    -0x10(%rbp),%eax
   1b863:	48 98                	cltq   
   1b865:	48 8d 14 00          	lea    (%rax,%rax,1),%rdx
   1b869:	48 8d 05 f0 5a 00 00 	lea    0x5af0(%rip),%rax        # 21360 <g_1897>
   1b870:	0f b7 04 02          	movzwl (%rdx,%rax,1),%eax
   1b874:	48 0f bf c0          	movswq %ax,%rax
   1b878:	8b 55 fc             	mov    -0x4(%rbp),%edx
   1b87b:	48 8d 35 e9 24 00 00 	lea    0x24e9(%rip),%rsi        # 1dd6b <g_953+0x1cab>
   1b882:	48 89 c7             	mov    %rax,%rdi
   1b885:	e8 69 fe fe ff       	callq  b6f3 <transparent_crc>
   1b88a:	83 7d fc 00          	cmpl   $0x0,-0x4(%rbp)
   1b88e:	74 16                	je     1b8a6 <main+0x7d7>
   1b890:	8b 45 f0             	mov    -0x10(%rbp),%eax
   1b893:	89 c6                	mov    %eax,%esi
   1b895:	48 8d 3d 99 23 00 00 	lea    0x2399(%rip),%rdi        # 1dc35 <g_953+0x1b75>
   1b89c:	b8 00 00 00 00       	mov    $0x0,%eax
   1b8a1:	e8 da e7 fe ff       	callq  a080 <printf@plt>
   1b8a6:	83 45 f0 01          	addl   $0x1,-0x10(%rbp)
   1b8aa:	83 7d f0 06          	cmpl   $0x6,-0x10(%rbp)
   1b8ae:	7e b0                	jle    1b860 <main+0x791>
   1b8b0:	8b 05 ba 5a 00 00    	mov    0x5aba(%rip),%eax        # 21370 <g_2010>
   1b8b6:	48 98                	cltq   
   1b8b8:	8b 55 fc             	mov    -0x4(%rbp),%edx
   1b8bb:	48 8d 35 b3 24 00 00 	lea    0x24b3(%rip),%rsi        # 1dd75 <g_953+0x1cb5>
   1b8c2:	48 89 c7             	mov    %rax,%rdi
   1b8c5:	e8 29 fe fe ff       	callq  b6f3 <transparent_crc>
   1b8ca:	8b 05 a4 5a 00 00    	mov    0x5aa4(%rip),%eax        # 21374 <g_2015>
   1b8d0:	89 c1                	mov    %eax,%ecx
   1b8d2:	8b 45 fc             	mov    -0x4(%rbp),%eax
   1b8d5:	89 c2                	mov    %eax,%edx
   1b8d7:	48 8d 35 9e 24 00 00 	lea    0x249e(%rip),%rsi        # 1dd7c <g_953+0x1cbc>
   1b8de:	48 89 cf             	mov    %rcx,%rdi
   1b8e1:	e8 0d fe fe ff       	callq  b6f3 <transparent_crc>
   1b8e6:	0f b6 05 33 9f 00 00 	movzbl 0x9f33(%rip),%eax        # 25820 <g_2443>
   1b8ed:	0f b6 c0             	movzbl %al,%eax
   1b8f0:	8b 55 fc             	mov    -0x4(%rbp),%edx
   1b8f3:	48 8d 35 89 24 00 00 	lea    0x2489(%rip),%rsi        # 1dd83 <g_953+0x1cc3>
   1b8fa:	48 89 c7             	mov    %rax,%rdi
   1b8fd:	e8 f1 fd fe ff       	callq  b6f3 <transparent_crc>
   1b902:	48 8b 05 1f 9f 00 00 	mov    0x9f1f(%rip),%rax        # 25828 <g_2479>
   1b909:	48 89 c1             	mov    %rax,%rcx
   1b90c:	8b 45 fc             	mov    -0x4(%rbp),%eax
   1b90f:	89 c2                	mov    %eax,%edx
   1b911:	48 8d 35 72 24 00 00 	lea    0x2472(%rip),%rsi        # 1dd8a <g_953+0x1cca>
   1b918:	48 89 cf             	mov    %rcx,%rdi
   1b91b:	e8 d3 fd fe ff       	callq  b6f3 <transparent_crc>
   1b920:	0f b7 05 51 5a 00 00 	movzwl 0x5a51(%rip),%eax        # 21378 <g_2675>
   1b927:	48 0f bf c0          	movswq %ax,%rax
   1b92b:	8b 55 fc             	mov    -0x4(%rbp),%edx
   1b92e:	48 8d 35 5c 24 00 00 	lea    0x245c(%rip),%rsi        # 1dd91 <g_953+0x1cd1>
   1b935:	48 89 c7             	mov    %rax,%rdi
   1b938:	e8 b6 fd fe ff       	callq  b6f3 <transparent_crc>
   1b93d:	0f b7 05 f4 9e 00 00 	movzwl 0x9ef4(%rip),%eax        # 25838 <g_2751>
   1b944:	48 0f bf c0          	movswq %ax,%rax
   1b948:	8b 55 fc             	mov    -0x4(%rbp),%edx
   1b94b:	48 8d 35 46 24 00 00 	lea    0x2446(%rip),%rsi        # 1dd98 <g_953+0x1cd8>
   1b952:	48 89 c7             	mov    %rax,%rdi
   1b955:	e8 99 fd fe ff       	callq  b6f3 <transparent_crc>
   1b95a:	0f b6 05 19 5a 00 00 	movzbl 0x5a19(%rip),%eax        # 2137a <g_2844>
   1b961:	48 0f be c0          	movsbq %al,%rax
   1b965:	8b 55 fc             	mov    -0x4(%rbp),%edx
   1b968:	48 8d 35 30 24 00 00 	lea    0x2430(%rip),%rsi        # 1dd9f <g_953+0x1cdf>
   1b96f:	48 89 c7             	mov    %rax,%rdi
   1b972:	e8 7c fd fe ff       	callq  b6f3 <transparent_crc>
   1b977:	8b 05 a3 56 00 00    	mov    0x56a3(%rip),%eax        # 21020 <crc32_context>
   1b97d:	f7 d0                	not    %eax
   1b97f:	89 c2                	mov    %eax,%edx
   1b981:	8b 45 fc             	mov    -0x4(%rbp),%eax
   1b984:	89 c6                	mov    %eax,%esi
   1b986:	89 d7                	mov    %edx,%edi
   1b988:	e8 07 e8 fe ff       	callq  a194 <platform_main_end>
   1b98d:	b8 00 00 00 00       	mov    $0x0,%eax
   1b992:	c9                   	leaveq 
   1b993:	c3                   	retq   
   1b994:	66 2e 0f 1f 84 00 00 	nopw   %cs:0x0(%rax,%rax,1)
   1b99b:	00 00 00 
   1b99e:	66 90                	xchg   %ax,%ax

000000000001b9a0 <__libc_csu_init>:
   1b9a0:	f3 0f 1e fa          	endbr64 
   1b9a4:	41 57                	push   %r15
   1b9a6:	4c 8d 3d eb 53 00 00 	lea    0x53eb(%rip),%r15        # 20d98 <__frame_dummy_init_array_entry>
   1b9ad:	41 56                	push   %r14
   1b9af:	49 89 d6             	mov    %rdx,%r14
   1b9b2:	41 55                	push   %r13
   1b9b4:	49 89 f5             	mov    %rsi,%r13
   1b9b7:	41 54                	push   %r12
   1b9b9:	41 89 fc             	mov    %edi,%r12d
   1b9bc:	55                   	push   %rbp
   1b9bd:	48 8d 2d dc 53 00 00 	lea    0x53dc(%rip),%rbp        # 20da0 <__do_global_dtors_aux_fini_array_entry>
   1b9c4:	53                   	push   %rbx
   1b9c5:	4c 29 fd             	sub    %r15,%rbp
   1b9c8:	48 83 ec 08          	sub    $0x8,%rsp
   1b9cc:	e8 2f e6 fe ff       	callq  a000 <_init>
   1b9d1:	48 c1 fd 03          	sar    $0x3,%rbp
   1b9d5:	74 1f                	je     1b9f6 <__libc_csu_init+0x56>
   1b9d7:	31 db                	xor    %ebx,%ebx
   1b9d9:	0f 1f 80 00 00 00 00 	nopl   0x0(%rax)
   1b9e0:	4c 89 f2             	mov    %r14,%rdx
   1b9e3:	4c 89 ee             	mov    %r13,%rsi
   1b9e6:	44 89 e7             	mov    %r12d,%edi
   1b9e9:	41 ff 14 df          	callq  *(%r15,%rbx,8)
   1b9ed:	48 83 c3 01          	add    $0x1,%rbx
   1b9f1:	48 39 dd             	cmp    %rbx,%rbp
   1b9f4:	75 ea                	jne    1b9e0 <__libc_csu_init+0x40>
   1b9f6:	48 83 c4 08          	add    $0x8,%rsp
   1b9fa:	5b                   	pop    %rbx
   1b9fb:	5d                   	pop    %rbp
   1b9fc:	41 5c                	pop    %r12
   1b9fe:	41 5d                	pop    %r13
   1ba00:	41 5e                	pop    %r14
   1ba02:	41 5f                	pop    %r15
   1ba04:	c3                   	retq   
   1ba05:	66 66 2e 0f 1f 84 00 	data16 nopw %cs:0x0(%rax,%rax,1)
   1ba0c:	00 00 00 00 

000000000001ba10 <__libc_csu_fini>:
   1ba10:	f3 0f 1e fa          	endbr64 
   1ba14:	c3                   	retq   
