


Disassembly of section .text:

00000000000050a0 <_start>:
    50a0:	f3 0f 1e fa          	endbr64 
    50a4:	31 ed                	xor    %ebp,%ebp
    50a6:	49 89 d1             	mov    %rdx,%r9
    50a9:	5e                   	pop    %rsi
    50aa:	48 89 e2             	mov    %rsp,%rdx
    50ad:	48 83 e4 f0          	and    $0xfffffffffffffff0,%rsp
    50b1:	50                   	push   %rax
    50b2:	54                   	push   %rsp
    50b3:	4c 8d 05 66 9c 00 00 	lea    0x9c66(%rip),%r8        # ed20 <__libc_csu_fini>
    50ba:	48 8d 0d ef 9b 00 00 	lea    0x9bef(%rip),%rcx        # ecb0 <__libc_csu_init>
    50c1:	48 8d 3d 08 8c 00 00 	lea    0x8c08(%rip),%rdi        # dcd0 <main>
    50c8:	ff 15 fa de 00 00    	callq  *0xdefa(%rip)        # 12fc8 <__libc_start_main@GLIBC_2.2.5>
    50ce:	f4                   	hlt    
    50cf:	90                   	nop

00000000000050d0 <deregister_tm_clones>:
    50d0:	48 8d 3d 11 08 01 00 	lea    0x10811(%rip),%rdi        # 158e8 <__TMC_END__>
    50d7:	48 8d 05 0a 08 01 00 	lea    0x1080a(%rip),%rax        # 158e8 <__TMC_END__>
    50de:	48 39 f8             	cmp    %rdi,%rax
    50e1:	74 15                	je     50f8 <deregister_tm_clones+0x28>
    50e3:	48 8b 05 d6 de 00 00 	mov    0xded6(%rip),%rax        # 12fc0 <_ITM_deregisterTMCloneTable>
    50ea:	48 85 c0             	test   %rax,%rax
    50ed:	74 09                	je     50f8 <deregister_tm_clones+0x28>
    50ef:	ff e0                	jmpq   *%rax
    50f1:	0f 1f 80 00 00 00 00 	nopl   0x0(%rax)
    50f8:	c3                   	retq   
    50f9:	0f 1f 80 00 00 00 00 	nopl   0x0(%rax)

0000000000005100 <register_tm_clones>:
    5100:	48 8d 3d e1 07 01 00 	lea    0x107e1(%rip),%rdi        # 158e8 <__TMC_END__>
    5107:	48 8d 35 da 07 01 00 	lea    0x107da(%rip),%rsi        # 158e8 <__TMC_END__>
    510e:	48 29 fe             	sub    %rdi,%rsi
    5111:	48 89 f0             	mov    %rsi,%rax
    5114:	48 c1 ee 3f          	shr    $0x3f,%rsi
    5118:	48 c1 f8 03          	sar    $0x3,%rax
    511c:	48 01 c6             	add    %rax,%rsi
    511f:	48 d1 fe             	sar    %rsi
    5122:	74 14                	je     5138 <register_tm_clones+0x38>
    5124:	48 8b 05 ad de 00 00 	mov    0xdead(%rip),%rax        # 12fd8 <_ITM_registerTMCloneTable>
    512b:	48 85 c0             	test   %rax,%rax
    512e:	74 08                	je     5138 <register_tm_clones+0x38>
    5130:	ff e0                	jmpq   *%rax
    5132:	66 0f 1f 44 00 00    	nopw   0x0(%rax,%rax,1)
    5138:	c3                   	retq   
    5139:	0f 1f 80 00 00 00 00 	nopl   0x0(%rax)

0000000000005140 <__do_global_dtors_aux>:
    5140:	f3 0f 1e fa          	endbr64 
    5144:	80 3d b5 07 01 00 00 	cmpb   $0x0,0x107b5(%rip)        # 15900 <completed.8061>
    514b:	75 2b                	jne    5178 <__do_global_dtors_aux+0x38>
    514d:	55                   	push   %rbp
    514e:	48 83 3d 8a de 00 00 	cmpq   $0x0,0xde8a(%rip)        # 12fe0 <__cxa_finalize@GLIBC_2.2.5>
    5155:	00 
    5156:	48 89 e5             	mov    %rsp,%rbp
    5159:	74 0c                	je     5167 <__do_global_dtors_aux+0x27>
    515b:	48 8b 3d a6 de 00 00 	mov    0xdea6(%rip),%rdi        # 13008 <__dso_handle>
    5162:	e8 f9 fe ff ff       	callq  5060 <__cxa_finalize@plt>
    5167:	e8 64 ff ff ff       	callq  50d0 <deregister_tm_clones>
    516c:	c6 05 8d 07 01 00 01 	movb   $0x1,0x1078d(%rip)        # 15900 <completed.8061>
    5173:	5d                   	pop    %rbp
    5174:	c3                   	retq   
    5175:	0f 1f 00             	nopl   (%rax)
    5178:	c3                   	retq   
    5179:	0f 1f 80 00 00 00 00 	nopl   0x0(%rax)

0000000000005180 <frame_dummy>:
    5180:	f3 0f 1e fa          	endbr64 
    5184:	e9 77 ff ff ff       	jmpq   5100 <register_tm_clones>

0000000000005189 <platform_main_begin>:
    5189:	f3 0f 1e fa          	endbr64 
    518d:	55                   	push   %rbp
    518e:	48 89 e5             	mov    %rsp,%rbp
    5191:	90                   	nop
    5192:	5d                   	pop    %rbp
    5193:	c3                   	retq   

0000000000005194 <platform_main_end>:
    5194:	f3 0f 1e fa          	endbr64 
    5198:	55                   	push   %rbp
    5199:	48 89 e5             	mov    %rsp,%rbp
    519c:	48 83 ec 10          	sub    $0x10,%rsp
    51a0:	89 7d fc             	mov    %edi,-0x4(%rbp)
    51a3:	89 75 f8             	mov    %esi,-0x8(%rbp)
    51a6:	8b 45 fc             	mov    -0x4(%rbp),%eax
    51a9:	89 c6                	mov    %eax,%esi
    51ab:	48 8d 3d 6e 9e 00 00 	lea    0x9e6e(%rip),%rdi        # f020 <_IO_stdin_used+0x20>
    51b2:	b8 00 00 00 00       	mov    $0x0,%eax
    51b7:	e8 c4 fe ff ff       	callq  5080 <printf@plt>
    51bc:	90                   	nop
    51bd:	c9                   	leaveq 
    51be:	c3                   	retq   

00000000000051bf <safe_unary_minus_func_int8_t_s>:
    51bf:	f3 0f 1e fa          	endbr64 
    51c3:	55                   	push   %rbp
    51c4:	48 89 e5             	mov    %rsp,%rbp
    51c7:	89 f8                	mov    %edi,%eax
    51c9:	88 45 fc             	mov    %al,-0x4(%rbp)
    51cc:	0f b6 45 fc          	movzbl -0x4(%rbp),%eax
    51d0:	f7 d8                	neg    %eax
    51d2:	5d                   	pop    %rbp
    51d3:	c3                   	retq   

00000000000051d4 <safe_add_func_int8_t_s_s>:
    51d4:	f3 0f 1e fa          	endbr64 
    51d8:	55                   	push   %rbp
    51d9:	48 89 e5             	mov    %rsp,%rbp
    51dc:	89 fa                	mov    %edi,%edx
    51de:	89 f0                	mov    %esi,%eax
    51e0:	88 55 fc             	mov    %dl,-0x4(%rbp)
    51e3:	88 45 f8             	mov    %al,-0x8(%rbp)
    51e6:	0f b6 55 fc          	movzbl -0x4(%rbp),%edx
    51ea:	0f b6 45 f8          	movzbl -0x8(%rbp),%eax
    51ee:	01 d0                	add    %edx,%eax
    51f0:	5d                   	pop    %rbp
    51f1:	c3                   	retq   

00000000000051f2 <safe_sub_func_int8_t_s_s>:
    51f2:	f3 0f 1e fa          	endbr64 
    51f6:	55                   	push   %rbp
    51f7:	48 89 e5             	mov    %rsp,%rbp
    51fa:	89 fa                	mov    %edi,%edx
    51fc:	89 f0                	mov    %esi,%eax
    51fe:	88 55 fc             	mov    %dl,-0x4(%rbp)
    5201:	88 45 f8             	mov    %al,-0x8(%rbp)
    5204:	0f b6 55 fc          	movzbl -0x4(%rbp),%edx
    5208:	0f b6 45 f8          	movzbl -0x8(%rbp),%eax
    520c:	29 c2                	sub    %eax,%edx
    520e:	89 d0                	mov    %edx,%eax
    5210:	5d                   	pop    %rbp
    5211:	c3                   	retq   

0000000000005212 <safe_mul_func_int8_t_s_s>:
    5212:	f3 0f 1e fa          	endbr64 
    5216:	55                   	push   %rbp
    5217:	48 89 e5             	mov    %rsp,%rbp
    521a:	89 fa                	mov    %edi,%edx
    521c:	89 f0                	mov    %esi,%eax
    521e:	88 55 fc             	mov    %dl,-0x4(%rbp)
    5221:	88 45 f8             	mov    %al,-0x8(%rbp)
    5224:	0f b6 45 fc          	movzbl -0x4(%rbp),%eax
    5228:	0f b6 55 f8          	movzbl -0x8(%rbp),%edx
    522c:	0f af c2             	imul   %edx,%eax
    522f:	5d                   	pop    %rbp
    5230:	c3                   	retq   

0000000000005231 <safe_mod_func_int8_t_s_s>:
    5231:	f3 0f 1e fa          	endbr64 
    5235:	55                   	push   %rbp
    5236:	48 89 e5             	mov    %rsp,%rbp
    5239:	89 fa                	mov    %edi,%edx
    523b:	89 f0                	mov    %esi,%eax
    523d:	88 55 fc             	mov    %dl,-0x4(%rbp)
    5240:	88 45 f8             	mov    %al,-0x8(%rbp)
    5243:	80 7d f8 00          	cmpb   $0x0,-0x8(%rbp)
    5247:	74 1b                	je     5264 <safe_mod_func_int8_t_s_s+0x33>
    5249:	80 7d fc 80          	cmpb   $0x80,-0x4(%rbp)
    524d:	75 06                	jne    5255 <safe_mod_func_int8_t_s_s+0x24>
    524f:	80 7d f8 ff          	cmpb   $0xff,-0x8(%rbp)
    5253:	74 0f                	je     5264 <safe_mod_func_int8_t_s_s+0x33>
    5255:	0f be 45 fc          	movsbl -0x4(%rbp),%eax
    5259:	0f be 4d f8          	movsbl -0x8(%rbp),%ecx
    525d:	99                   	cltd   
    525e:	f7 f9                	idiv   %ecx
    5260:	89 d0                	mov    %edx,%eax
    5262:	eb 04                	jmp    5268 <safe_mod_func_int8_t_s_s+0x37>
    5264:	0f b6 45 fc          	movzbl -0x4(%rbp),%eax
    5268:	5d                   	pop    %rbp
    5269:	c3                   	retq   

000000000000526a <safe_div_func_int8_t_s_s>:
    526a:	f3 0f 1e fa          	endbr64 
    526e:	55                   	push   %rbp
    526f:	48 89 e5             	mov    %rsp,%rbp
    5272:	89 fa                	mov    %edi,%edx
    5274:	89 f0                	mov    %esi,%eax
    5276:	88 55 fc             	mov    %dl,-0x4(%rbp)
    5279:	88 45 f8             	mov    %al,-0x8(%rbp)
    527c:	80 7d f8 00          	cmpb   $0x0,-0x8(%rbp)
    5280:	74 19                	je     529b <safe_div_func_int8_t_s_s+0x31>
    5282:	80 7d fc 80          	cmpb   $0x80,-0x4(%rbp)
    5286:	75 06                	jne    528e <safe_div_func_int8_t_s_s+0x24>
    5288:	80 7d f8 ff          	cmpb   $0xff,-0x8(%rbp)
    528c:	74 0d                	je     529b <safe_div_func_int8_t_s_s+0x31>
    528e:	0f be 45 fc          	movsbl -0x4(%rbp),%eax
    5292:	0f be 4d f8          	movsbl -0x8(%rbp),%ecx
    5296:	99                   	cltd   
    5297:	f7 f9                	idiv   %ecx
    5299:	eb 04                	jmp    529f <safe_div_func_int8_t_s_s+0x35>
    529b:	0f b6 45 fc          	movzbl -0x4(%rbp),%eax
    529f:	5d                   	pop    %rbp
    52a0:	c3                   	retq   

00000000000052a1 <safe_lshift_func_int8_t_s_s>:
    52a1:	f3 0f 1e fa          	endbr64 
    52a5:	55                   	push   %rbp
    52a6:	48 89 e5             	mov    %rsp,%rbp
    52a9:	89 f8                	mov    %edi,%eax
    52ab:	89 75 f8             	mov    %esi,-0x8(%rbp)
    52ae:	88 45 fc             	mov    %al,-0x4(%rbp)
    52b1:	80 7d fc 00          	cmpb   $0x0,-0x4(%rbp)
    52b5:	78 31                	js     52e8 <safe_lshift_func_int8_t_s_s+0x47>
    52b7:	83 7d f8 00          	cmpl   $0x0,-0x8(%rbp)
    52bb:	78 2b                	js     52e8 <safe_lshift_func_int8_t_s_s+0x47>
    52bd:	83 7d f8 1f          	cmpl   $0x1f,-0x8(%rbp)
    52c1:	7f 25                	jg     52e8 <safe_lshift_func_int8_t_s_s+0x47>
    52c3:	0f be 55 fc          	movsbl -0x4(%rbp),%edx
    52c7:	8b 45 f8             	mov    -0x8(%rbp),%eax
    52ca:	be 7f 00 00 00       	mov    $0x7f,%esi
    52cf:	89 c1                	mov    %eax,%ecx
    52d1:	d3 fe                	sar    %cl,%esi
    52d3:	89 f0                	mov    %esi,%eax
    52d5:	39 c2                	cmp    %eax,%edx
    52d7:	7f 0f                	jg     52e8 <safe_lshift_func_int8_t_s_s+0x47>
    52d9:	0f be 55 fc          	movsbl -0x4(%rbp),%edx
    52dd:	8b 45 f8             	mov    -0x8(%rbp),%eax
    52e0:	89 c1                	mov    %eax,%ecx
    52e2:	d3 e2                	shl    %cl,%edx
    52e4:	89 d0                	mov    %edx,%eax
    52e6:	eb 04                	jmp    52ec <safe_lshift_func_int8_t_s_s+0x4b>
    52e8:	0f b6 45 fc          	movzbl -0x4(%rbp),%eax
    52ec:	5d                   	pop    %rbp
    52ed:	c3                   	retq   

00000000000052ee <safe_lshift_func_int8_t_s_u>:
    52ee:	f3 0f 1e fa          	endbr64 
    52f2:	55                   	push   %rbp
    52f3:	48 89 e5             	mov    %rsp,%rbp
    52f6:	89 f8                	mov    %edi,%eax
    52f8:	89 75 f8             	mov    %esi,-0x8(%rbp)
    52fb:	88 45 fc             	mov    %al,-0x4(%rbp)
    52fe:	80 7d fc 00          	cmpb   $0x0,-0x4(%rbp)
    5302:	78 2b                	js     532f <safe_lshift_func_int8_t_s_u+0x41>
    5304:	83 7d f8 1f          	cmpl   $0x1f,-0x8(%rbp)
    5308:	77 25                	ja     532f <safe_lshift_func_int8_t_s_u+0x41>
    530a:	0f be 55 fc          	movsbl -0x4(%rbp),%edx
    530e:	8b 45 f8             	mov    -0x8(%rbp),%eax
    5311:	be 7f 00 00 00       	mov    $0x7f,%esi
    5316:	89 c1                	mov    %eax,%ecx
    5318:	d3 fe                	sar    %cl,%esi
    531a:	89 f0                	mov    %esi,%eax
    531c:	39 c2                	cmp    %eax,%edx
    531e:	7f 0f                	jg     532f <safe_lshift_func_int8_t_s_u+0x41>
    5320:	0f be 55 fc          	movsbl -0x4(%rbp),%edx
    5324:	8b 45 f8             	mov    -0x8(%rbp),%eax
    5327:	89 c1                	mov    %eax,%ecx
    5329:	d3 e2                	shl    %cl,%edx
    532b:	89 d0                	mov    %edx,%eax
    532d:	eb 04                	jmp    5333 <safe_lshift_func_int8_t_s_u+0x45>
    532f:	0f b6 45 fc          	movzbl -0x4(%rbp),%eax
    5333:	5d                   	pop    %rbp
    5334:	c3                   	retq   

0000000000005335 <safe_rshift_func_int8_t_s_s>:
    5335:	f3 0f 1e fa          	endbr64 
    5339:	55                   	push   %rbp
    533a:	48 89 e5             	mov    %rsp,%rbp
    533d:	89 f8                	mov    %edi,%eax
    533f:	89 75 f8             	mov    %esi,-0x8(%rbp)
    5342:	88 45 fc             	mov    %al,-0x4(%rbp)
    5345:	80 7d fc 00          	cmpb   $0x0,-0x4(%rbp)
    5349:	78 1b                	js     5366 <safe_rshift_func_int8_t_s_s+0x31>
    534b:	83 7d f8 00          	cmpl   $0x0,-0x8(%rbp)
    534f:	78 15                	js     5366 <safe_rshift_func_int8_t_s_s+0x31>
    5351:	83 7d f8 1f          	cmpl   $0x1f,-0x8(%rbp)
    5355:	7f 0f                	jg     5366 <safe_rshift_func_int8_t_s_s+0x31>
    5357:	0f be 55 fc          	movsbl -0x4(%rbp),%edx
    535b:	8b 45 f8             	mov    -0x8(%rbp),%eax
    535e:	89 c1                	mov    %eax,%ecx
    5360:	d3 fa                	sar    %cl,%edx
    5362:	89 d0                	mov    %edx,%eax
    5364:	eb 04                	jmp    536a <safe_rshift_func_int8_t_s_s+0x35>
    5366:	0f b6 45 fc          	movzbl -0x4(%rbp),%eax
    536a:	5d                   	pop    %rbp
    536b:	c3                   	retq   

000000000000536c <safe_rshift_func_int8_t_s_u>:
    536c:	f3 0f 1e fa          	endbr64 
    5370:	55                   	push   %rbp
    5371:	48 89 e5             	mov    %rsp,%rbp
    5374:	89 f8                	mov    %edi,%eax
    5376:	89 75 f8             	mov    %esi,-0x8(%rbp)
    5379:	88 45 fc             	mov    %al,-0x4(%rbp)
    537c:	80 7d fc 00          	cmpb   $0x0,-0x4(%rbp)
    5380:	78 15                	js     5397 <safe_rshift_func_int8_t_s_u+0x2b>
    5382:	83 7d f8 1f          	cmpl   $0x1f,-0x8(%rbp)
    5386:	77 0f                	ja     5397 <safe_rshift_func_int8_t_s_u+0x2b>
    5388:	0f be 55 fc          	movsbl -0x4(%rbp),%edx
    538c:	8b 45 f8             	mov    -0x8(%rbp),%eax
    538f:	89 c1                	mov    %eax,%ecx
    5391:	d3 fa                	sar    %cl,%edx
    5393:	89 d0                	mov    %edx,%eax
    5395:	eb 04                	jmp    539b <safe_rshift_func_int8_t_s_u+0x2f>
    5397:	0f b6 45 fc          	movzbl -0x4(%rbp),%eax
    539b:	5d                   	pop    %rbp
    539c:	c3                   	retq   

000000000000539d <safe_unary_minus_func_int16_t_s>:
    539d:	f3 0f 1e fa          	endbr64 
    53a1:	55                   	push   %rbp
    53a2:	48 89 e5             	mov    %rsp,%rbp
    53a5:	89 f8                	mov    %edi,%eax
    53a7:	66 89 45 fc          	mov    %ax,-0x4(%rbp)
    53ab:	0f b7 45 fc          	movzwl -0x4(%rbp),%eax
    53af:	f7 d8                	neg    %eax
    53b1:	5d                   	pop    %rbp
    53b2:	c3                   	retq   

00000000000053b3 <safe_add_func_int16_t_s_s>:
    53b3:	f3 0f 1e fa          	endbr64 
    53b7:	55                   	push   %rbp
    53b8:	48 89 e5             	mov    %rsp,%rbp
    53bb:	89 fa                	mov    %edi,%edx
    53bd:	89 f0                	mov    %esi,%eax
    53bf:	66 89 55 fc          	mov    %dx,-0x4(%rbp)
    53c3:	66 89 45 f8          	mov    %ax,-0x8(%rbp)
    53c7:	0f b7 55 fc          	movzwl -0x4(%rbp),%edx
    53cb:	0f b7 45 f8          	movzwl -0x8(%rbp),%eax
    53cf:	01 d0                	add    %edx,%eax
    53d1:	5d                   	pop    %rbp
    53d2:	c3                   	retq   

00000000000053d3 <safe_sub_func_int16_t_s_s>:
    53d3:	f3 0f 1e fa          	endbr64 
    53d7:	55                   	push   %rbp
    53d8:	48 89 e5             	mov    %rsp,%rbp
    53db:	89 fa                	mov    %edi,%edx
    53dd:	89 f0                	mov    %esi,%eax
    53df:	66 89 55 fc          	mov    %dx,-0x4(%rbp)
    53e3:	66 89 45 f8          	mov    %ax,-0x8(%rbp)
    53e7:	0f b7 55 fc          	movzwl -0x4(%rbp),%edx
    53eb:	0f b7 45 f8          	movzwl -0x8(%rbp),%eax
    53ef:	29 c2                	sub    %eax,%edx
    53f1:	89 d0                	mov    %edx,%eax
    53f3:	5d                   	pop    %rbp
    53f4:	c3                   	retq   

00000000000053f5 <safe_mul_func_int16_t_s_s>:
    53f5:	f3 0f 1e fa          	endbr64 
    53f9:	55                   	push   %rbp
    53fa:	48 89 e5             	mov    %rsp,%rbp
    53fd:	89 fa                	mov    %edi,%edx
    53ff:	89 f0                	mov    %esi,%eax
    5401:	66 89 55 fc          	mov    %dx,-0x4(%rbp)
    5405:	66 89 45 f8          	mov    %ax,-0x8(%rbp)
    5409:	0f b7 55 fc          	movzwl -0x4(%rbp),%edx
    540d:	0f b7 45 f8          	movzwl -0x8(%rbp),%eax
    5411:	0f af c2             	imul   %edx,%eax
    5414:	5d                   	pop    %rbp
    5415:	c3                   	retq   

0000000000005416 <safe_mod_func_int16_t_s_s>:
    5416:	f3 0f 1e fa          	endbr64 
    541a:	55                   	push   %rbp
    541b:	48 89 e5             	mov    %rsp,%rbp
    541e:	89 fa                	mov    %edi,%edx
    5420:	89 f0                	mov    %esi,%eax
    5422:	66 89 55 fc          	mov    %dx,-0x4(%rbp)
    5426:	66 89 45 f8          	mov    %ax,-0x8(%rbp)
    542a:	66 83 7d f8 00       	cmpw   $0x0,-0x8(%rbp)
    542f:	74 1e                	je     544f <safe_mod_func_int16_t_s_s+0x39>
    5431:	66 81 7d fc 00 80    	cmpw   $0x8000,-0x4(%rbp)
    5437:	75 07                	jne    5440 <safe_mod_func_int16_t_s_s+0x2a>
    5439:	66 83 7d f8 ff       	cmpw   $0xffff,-0x8(%rbp)
    543e:	74 0f                	je     544f <safe_mod_func_int16_t_s_s+0x39>
    5440:	0f bf 45 fc          	movswl -0x4(%rbp),%eax
    5444:	0f bf 4d f8          	movswl -0x8(%rbp),%ecx
    5448:	99                   	cltd   
    5449:	f7 f9                	idiv   %ecx
    544b:	89 d0                	mov    %edx,%eax
    544d:	eb 04                	jmp    5453 <safe_mod_func_int16_t_s_s+0x3d>
    544f:	0f b7 45 fc          	movzwl -0x4(%rbp),%eax
    5453:	5d                   	pop    %rbp
    5454:	c3                   	retq   

0000000000005455 <safe_div_func_int16_t_s_s>:
    5455:	f3 0f 1e fa          	endbr64 
    5459:	55                   	push   %rbp
    545a:	48 89 e5             	mov    %rsp,%rbp
    545d:	89 fa                	mov    %edi,%edx
    545f:	89 f0                	mov    %esi,%eax
    5461:	66 89 55 fc          	mov    %dx,-0x4(%rbp)
    5465:	66 89 45 f8          	mov    %ax,-0x8(%rbp)
    5469:	66 83 7d f8 00       	cmpw   $0x0,-0x8(%rbp)
    546e:	74 1c                	je     548c <safe_div_func_int16_t_s_s+0x37>
    5470:	66 81 7d fc 00 80    	cmpw   $0x8000,-0x4(%rbp)
    5476:	75 07                	jne    547f <safe_div_func_int16_t_s_s+0x2a>
    5478:	66 83 7d f8 ff       	cmpw   $0xffff,-0x8(%rbp)
    547d:	74 0d                	je     548c <safe_div_func_int16_t_s_s+0x37>
    547f:	0f bf 45 fc          	movswl -0x4(%rbp),%eax
    5483:	0f bf 4d f8          	movswl -0x8(%rbp),%ecx
    5487:	99                   	cltd   
    5488:	f7 f9                	idiv   %ecx
    548a:	eb 04                	jmp    5490 <safe_div_func_int16_t_s_s+0x3b>
    548c:	0f b7 45 fc          	movzwl -0x4(%rbp),%eax
    5490:	5d                   	pop    %rbp
    5491:	c3                   	retq   

0000000000005492 <safe_lshift_func_int16_t_s_s>:
    5492:	f3 0f 1e fa          	endbr64 
    5496:	55                   	push   %rbp
    5497:	48 89 e5             	mov    %rsp,%rbp
    549a:	89 f8                	mov    %edi,%eax
    549c:	89 75 f8             	mov    %esi,-0x8(%rbp)
    549f:	66 89 45 fc          	mov    %ax,-0x4(%rbp)
    54a3:	66 83 7d fc 00       	cmpw   $0x0,-0x4(%rbp)
    54a8:	78 31                	js     54db <safe_lshift_func_int16_t_s_s+0x49>
    54aa:	83 7d f8 00          	cmpl   $0x0,-0x8(%rbp)
    54ae:	78 2b                	js     54db <safe_lshift_func_int16_t_s_s+0x49>
    54b0:	83 7d f8 1f          	cmpl   $0x1f,-0x8(%rbp)
    54b4:	7f 25                	jg     54db <safe_lshift_func_int16_t_s_s+0x49>
    54b6:	0f bf 55 fc          	movswl -0x4(%rbp),%edx
    54ba:	8b 45 f8             	mov    -0x8(%rbp),%eax
    54bd:	be ff 7f 00 00       	mov    $0x7fff,%esi
    54c2:	89 c1                	mov    %eax,%ecx
    54c4:	d3 fe                	sar    %cl,%esi
    54c6:	89 f0                	mov    %esi,%eax
    54c8:	39 c2                	cmp    %eax,%edx
    54ca:	7f 0f                	jg     54db <safe_lshift_func_int16_t_s_s+0x49>
    54cc:	0f bf 55 fc          	movswl -0x4(%rbp),%edx
    54d0:	8b 45 f8             	mov    -0x8(%rbp),%eax
    54d3:	89 c1                	mov    %eax,%ecx
    54d5:	d3 e2                	shl    %cl,%edx
    54d7:	89 d0                	mov    %edx,%eax
    54d9:	eb 04                	jmp    54df <safe_lshift_func_int16_t_s_s+0x4d>
    54db:	0f b7 45 fc          	movzwl -0x4(%rbp),%eax
    54df:	5d                   	pop    %rbp
    54e0:	c3                   	retq   

00000000000054e1 <safe_lshift_func_int16_t_s_u>:
    54e1:	f3 0f 1e fa          	endbr64 
    54e5:	55                   	push   %rbp
    54e6:	48 89 e5             	mov    %rsp,%rbp
    54e9:	89 f8                	mov    %edi,%eax
    54eb:	89 75 f8             	mov    %esi,-0x8(%rbp)
    54ee:	66 89 45 fc          	mov    %ax,-0x4(%rbp)
    54f2:	66 83 7d fc 00       	cmpw   $0x0,-0x4(%rbp)
    54f7:	78 2b                	js     5524 <safe_lshift_func_int16_t_s_u+0x43>
    54f9:	83 7d f8 1f          	cmpl   $0x1f,-0x8(%rbp)
    54fd:	77 25                	ja     5524 <safe_lshift_func_int16_t_s_u+0x43>
    54ff:	0f bf 55 fc          	movswl -0x4(%rbp),%edx
    5503:	8b 45 f8             	mov    -0x8(%rbp),%eax
    5506:	be ff 7f 00 00       	mov    $0x7fff,%esi
    550b:	89 c1                	mov    %eax,%ecx
    550d:	d3 fe                	sar    %cl,%esi
    550f:	89 f0                	mov    %esi,%eax
    5511:	39 c2                	cmp    %eax,%edx
    5513:	7f 0f                	jg     5524 <safe_lshift_func_int16_t_s_u+0x43>
    5515:	0f bf 55 fc          	movswl -0x4(%rbp),%edx
    5519:	8b 45 f8             	mov    -0x8(%rbp),%eax
    551c:	89 c1                	mov    %eax,%ecx
    551e:	d3 e2                	shl    %cl,%edx
    5520:	89 d0                	mov    %edx,%eax
    5522:	eb 04                	jmp    5528 <safe_lshift_func_int16_t_s_u+0x47>
    5524:	0f b7 45 fc          	movzwl -0x4(%rbp),%eax
    5528:	5d                   	pop    %rbp
    5529:	c3                   	retq   

000000000000552a <safe_rshift_func_int16_t_s_s>:
    552a:	f3 0f 1e fa          	endbr64 
    552e:	55                   	push   %rbp
    552f:	48 89 e5             	mov    %rsp,%rbp
    5532:	89 f8                	mov    %edi,%eax
    5534:	89 75 f8             	mov    %esi,-0x8(%rbp)
    5537:	66 89 45 fc          	mov    %ax,-0x4(%rbp)
    553b:	66 83 7d fc 00       	cmpw   $0x0,-0x4(%rbp)
    5540:	78 1b                	js     555d <safe_rshift_func_int16_t_s_s+0x33>
    5542:	83 7d f8 00          	cmpl   $0x0,-0x8(%rbp)
    5546:	78 15                	js     555d <safe_rshift_func_int16_t_s_s+0x33>
    5548:	83 7d f8 1f          	cmpl   $0x1f,-0x8(%rbp)
    554c:	7f 0f                	jg     555d <safe_rshift_func_int16_t_s_s+0x33>
    554e:	0f bf 55 fc          	movswl -0x4(%rbp),%edx
    5552:	8b 45 f8             	mov    -0x8(%rbp),%eax
    5555:	89 c1                	mov    %eax,%ecx
    5557:	d3 fa                	sar    %cl,%edx
    5559:	89 d0                	mov    %edx,%eax
    555b:	eb 04                	jmp    5561 <safe_rshift_func_int16_t_s_s+0x37>
    555d:	0f b7 45 fc          	movzwl -0x4(%rbp),%eax
    5561:	5d                   	pop    %rbp
    5562:	c3                   	retq   

0000000000005563 <safe_rshift_func_int16_t_s_u>:
    5563:	f3 0f 1e fa          	endbr64 
    5567:	55                   	push   %rbp
    5568:	48 89 e5             	mov    %rsp,%rbp
    556b:	89 f8                	mov    %edi,%eax
    556d:	89 75 f8             	mov    %esi,-0x8(%rbp)
    5570:	66 89 45 fc          	mov    %ax,-0x4(%rbp)
    5574:	66 83 7d fc 00       	cmpw   $0x0,-0x4(%rbp)
    5579:	78 15                	js     5590 <safe_rshift_func_int16_t_s_u+0x2d>
    557b:	83 7d f8 1f          	cmpl   $0x1f,-0x8(%rbp)
    557f:	77 0f                	ja     5590 <safe_rshift_func_int16_t_s_u+0x2d>
    5581:	0f bf 55 fc          	movswl -0x4(%rbp),%edx
    5585:	8b 45 f8             	mov    -0x8(%rbp),%eax
    5588:	89 c1                	mov    %eax,%ecx
    558a:	d3 fa                	sar    %cl,%edx
    558c:	89 d0                	mov    %edx,%eax
    558e:	eb 04                	jmp    5594 <safe_rshift_func_int16_t_s_u+0x31>
    5590:	0f b7 45 fc          	movzwl -0x4(%rbp),%eax
    5594:	5d                   	pop    %rbp
    5595:	c3                   	retq   

0000000000005596 <safe_unary_minus_func_int32_t_s>:
    5596:	f3 0f 1e fa          	endbr64 
    559a:	55                   	push   %rbp
    559b:	48 89 e5             	mov    %rsp,%rbp
    559e:	89 7d fc             	mov    %edi,-0x4(%rbp)
    55a1:	81 7d fc 00 00 00 80 	cmpl   $0x80000000,-0x4(%rbp)
    55a8:	74 07                	je     55b1 <safe_unary_minus_func_int32_t_s+0x1b>
    55aa:	8b 45 fc             	mov    -0x4(%rbp),%eax
    55ad:	f7 d8                	neg    %eax
    55af:	eb 03                	jmp    55b4 <safe_unary_minus_func_int32_t_s+0x1e>
    55b1:	8b 45 fc             	mov    -0x4(%rbp),%eax
    55b4:	5d                   	pop    %rbp
    55b5:	c3                   	retq   

00000000000055b6 <safe_add_func_int32_t_s_s>:
    55b6:	f3 0f 1e fa          	endbr64 
    55ba:	55                   	push   %rbp
    55bb:	48 89 e5             	mov    %rsp,%rbp
    55be:	89 7d fc             	mov    %edi,-0x4(%rbp)
    55c1:	89 75 f8             	mov    %esi,-0x8(%rbp)
    55c4:	83 7d fc 00          	cmpl   $0x0,-0x4(%rbp)
    55c8:	7e 13                	jle    55dd <safe_add_func_int32_t_s_s+0x27>
    55ca:	83 7d f8 00          	cmpl   $0x0,-0x8(%rbp)
    55ce:	7e 0d                	jle    55dd <safe_add_func_int32_t_s_s+0x27>
    55d0:	b8 ff ff ff 7f       	mov    $0x7fffffff,%eax
    55d5:	2b 45 f8             	sub    -0x8(%rbp),%eax
    55d8:	39 45 fc             	cmp    %eax,-0x4(%rbp)
    55db:	7f 23                	jg     5600 <safe_add_func_int32_t_s_s+0x4a>
    55dd:	83 7d fc 00          	cmpl   $0x0,-0x4(%rbp)
    55e1:	79 13                	jns    55f6 <safe_add_func_int32_t_s_s+0x40>
    55e3:	83 7d f8 00          	cmpl   $0x0,-0x8(%rbp)
    55e7:	79 0d                	jns    55f6 <safe_add_func_int32_t_s_s+0x40>
    55e9:	b8 00 00 00 80       	mov    $0x80000000,%eax
    55ee:	2b 45 f8             	sub    -0x8(%rbp),%eax
    55f1:	39 45 fc             	cmp    %eax,-0x4(%rbp)
    55f4:	7c 0a                	jl     5600 <safe_add_func_int32_t_s_s+0x4a>
    55f6:	8b 55 fc             	mov    -0x4(%rbp),%edx
    55f9:	8b 45 f8             	mov    -0x8(%rbp),%eax
    55fc:	01 d0                	add    %edx,%eax
    55fe:	eb 03                	jmp    5603 <safe_add_func_int32_t_s_s+0x4d>
    5600:	8b 45 fc             	mov    -0x4(%rbp),%eax
    5603:	5d                   	pop    %rbp
    5604:	c3                   	retq   

0000000000005605 <safe_sub_func_int32_t_s_s>:
    5605:	f3 0f 1e fa          	endbr64 
    5609:	55                   	push   %rbp
    560a:	48 89 e5             	mov    %rsp,%rbp
    560d:	89 7d fc             	mov    %edi,-0x4(%rbp)
    5610:	89 75 f8             	mov    %esi,-0x8(%rbp)
    5613:	8b 45 fc             	mov    -0x4(%rbp),%eax
    5616:	33 45 f8             	xor    -0x8(%rbp),%eax
    5619:	89 c2                	mov    %eax,%edx
    561b:	8b 45 fc             	mov    -0x4(%rbp),%eax
    561e:	33 45 f8             	xor    -0x8(%rbp),%eax
    5621:	25 00 00 00 80       	and    $0x80000000,%eax
    5626:	33 45 fc             	xor    -0x4(%rbp),%eax
    5629:	2b 45 f8             	sub    -0x8(%rbp),%eax
    562c:	33 45 f8             	xor    -0x8(%rbp),%eax
    562f:	21 d0                	and    %edx,%eax
    5631:	85 c0                	test   %eax,%eax
    5633:	78 08                	js     563d <safe_sub_func_int32_t_s_s+0x38>
    5635:	8b 45 fc             	mov    -0x4(%rbp),%eax
    5638:	2b 45 f8             	sub    -0x8(%rbp),%eax
    563b:	eb 03                	jmp    5640 <safe_sub_func_int32_t_s_s+0x3b>
    563d:	8b 45 fc             	mov    -0x4(%rbp),%eax
    5640:	5d                   	pop    %rbp
    5641:	c3                   	retq   

0000000000005642 <safe_mul_func_int32_t_s_s>:
    5642:	f3 0f 1e fa          	endbr64 
    5646:	55                   	push   %rbp
    5647:	48 89 e5             	mov    %rsp,%rbp
    564a:	89 7d fc             	mov    %edi,-0x4(%rbp)
    564d:	89 75 f8             	mov    %esi,-0x8(%rbp)
    5650:	83 7d fc 00          	cmpl   $0x0,-0x4(%rbp)
    5654:	7e 14                	jle    566a <safe_mul_func_int32_t_s_s+0x28>
    5656:	83 7d f8 00          	cmpl   $0x0,-0x8(%rbp)
    565a:	7e 0e                	jle    566a <safe_mul_func_int32_t_s_s+0x28>
    565c:	b8 ff ff ff 7f       	mov    $0x7fffffff,%eax
    5661:	99                   	cltd   
    5662:	f7 7d f8             	idivl  -0x8(%rbp)
    5665:	39 45 fc             	cmp    %eax,-0x4(%rbp)
    5668:	7f 5d                	jg     56c7 <safe_mul_func_int32_t_s_s+0x85>
    566a:	83 7d fc 00          	cmpl   $0x0,-0x4(%rbp)
    566e:	7e 14                	jle    5684 <safe_mul_func_int32_t_s_s+0x42>
    5670:	83 7d f8 00          	cmpl   $0x0,-0x8(%rbp)
    5674:	7f 0e                	jg     5684 <safe_mul_func_int32_t_s_s+0x42>
    5676:	b8 00 00 00 80       	mov    $0x80000000,%eax
    567b:	99                   	cltd   
    567c:	f7 7d fc             	idivl  -0x4(%rbp)
    567f:	39 45 f8             	cmp    %eax,-0x8(%rbp)
    5682:	7c 43                	jl     56c7 <safe_mul_func_int32_t_s_s+0x85>
    5684:	83 7d fc 00          	cmpl   $0x0,-0x4(%rbp)
    5688:	7f 14                	jg     569e <safe_mul_func_int32_t_s_s+0x5c>
    568a:	83 7d f8 00          	cmpl   $0x0,-0x8(%rbp)
    568e:	7e 0e                	jle    569e <safe_mul_func_int32_t_s_s+0x5c>
    5690:	b8 00 00 00 80       	mov    $0x80000000,%eax
    5695:	99                   	cltd   
    5696:	f7 7d f8             	idivl  -0x8(%rbp)
    5699:	39 45 fc             	cmp    %eax,-0x4(%rbp)
    569c:	7c 29                	jl     56c7 <safe_mul_func_int32_t_s_s+0x85>
    569e:	83 7d fc 00          	cmpl   $0x0,-0x4(%rbp)
    56a2:	7f 1a                	jg     56be <safe_mul_func_int32_t_s_s+0x7c>
    56a4:	83 7d f8 00          	cmpl   $0x0,-0x8(%rbp)
    56a8:	7f 14                	jg     56be <safe_mul_func_int32_t_s_s+0x7c>
    56aa:	83 7d fc 00          	cmpl   $0x0,-0x4(%rbp)
    56ae:	74 0e                	je     56be <safe_mul_func_int32_t_s_s+0x7c>
    56b0:	b8 ff ff ff 7f       	mov    $0x7fffffff,%eax
    56b5:	99                   	cltd   
    56b6:	f7 7d fc             	idivl  -0x4(%rbp)
    56b9:	39 45 f8             	cmp    %eax,-0x8(%rbp)
    56bc:	7c 09                	jl     56c7 <safe_mul_func_int32_t_s_s+0x85>
    56be:	8b 45 fc             	mov    -0x4(%rbp),%eax
    56c1:	0f af 45 f8          	imul   -0x8(%rbp),%eax
    56c5:	eb 03                	jmp    56ca <safe_mul_func_int32_t_s_s+0x88>
    56c7:	8b 45 fc             	mov    -0x4(%rbp),%eax
    56ca:	5d                   	pop    %rbp
    56cb:	c3                   	retq   

00000000000056cc <safe_mod_func_int32_t_s_s>:
    56cc:	f3 0f 1e fa          	endbr64 
    56d0:	55                   	push   %rbp
    56d1:	48 89 e5             	mov    %rsp,%rbp
    56d4:	89 7d fc             	mov    %edi,-0x4(%rbp)
    56d7:	89 75 f8             	mov    %esi,-0x8(%rbp)
    56da:	83 7d f8 00          	cmpl   $0x0,-0x8(%rbp)
    56de:	74 1a                	je     56fa <safe_mod_func_int32_t_s_s+0x2e>
    56e0:	81 7d fc 00 00 00 80 	cmpl   $0x80000000,-0x4(%rbp)
    56e7:	75 06                	jne    56ef <safe_mod_func_int32_t_s_s+0x23>
    56e9:	83 7d f8 ff          	cmpl   $0xffffffff,-0x8(%rbp)
    56ed:	74 0b                	je     56fa <safe_mod_func_int32_t_s_s+0x2e>
    56ef:	8b 45 fc             	mov    -0x4(%rbp),%eax
    56f2:	99                   	cltd   
    56f3:	f7 7d f8             	idivl  -0x8(%rbp)
    56f6:	89 d0                	mov    %edx,%eax
    56f8:	eb 03                	jmp    56fd <safe_mod_func_int32_t_s_s+0x31>
    56fa:	8b 45 fc             	mov    -0x4(%rbp),%eax
    56fd:	5d                   	pop    %rbp
    56fe:	c3                   	retq   

00000000000056ff <safe_div_func_int32_t_s_s>:
    56ff:	f3 0f 1e fa          	endbr64 
    5703:	55                   	push   %rbp
    5704:	48 89 e5             	mov    %rsp,%rbp
    5707:	89 7d fc             	mov    %edi,-0x4(%rbp)
    570a:	89 75 f8             	mov    %esi,-0x8(%rbp)
    570d:	83 7d f8 00          	cmpl   $0x0,-0x8(%rbp)
    5711:	74 18                	je     572b <safe_div_func_int32_t_s_s+0x2c>
    5713:	81 7d fc 00 00 00 80 	cmpl   $0x80000000,-0x4(%rbp)
    571a:	75 06                	jne    5722 <safe_div_func_int32_t_s_s+0x23>
    571c:	83 7d f8 ff          	cmpl   $0xffffffff,-0x8(%rbp)
    5720:	74 09                	je     572b <safe_div_func_int32_t_s_s+0x2c>
    5722:	8b 45 fc             	mov    -0x4(%rbp),%eax
    5725:	99                   	cltd   
    5726:	f7 7d f8             	idivl  -0x8(%rbp)
    5729:	eb 03                	jmp    572e <safe_div_func_int32_t_s_s+0x2f>
    572b:	8b 45 fc             	mov    -0x4(%rbp),%eax
    572e:	5d                   	pop    %rbp
    572f:	c3                   	retq   

0000000000005730 <safe_lshift_func_int32_t_s_s>:
    5730:	f3 0f 1e fa          	endbr64 
    5734:	55                   	push   %rbp
    5735:	48 89 e5             	mov    %rsp,%rbp
    5738:	89 7d fc             	mov    %edi,-0x4(%rbp)
    573b:	89 75 f8             	mov    %esi,-0x8(%rbp)
    573e:	83 7d fc 00          	cmpl   $0x0,-0x4(%rbp)
    5742:	78 2d                	js     5771 <safe_lshift_func_int32_t_s_s+0x41>
    5744:	83 7d f8 00          	cmpl   $0x0,-0x8(%rbp)
    5748:	78 27                	js     5771 <safe_lshift_func_int32_t_s_s+0x41>
    574a:	83 7d f8 1f          	cmpl   $0x1f,-0x8(%rbp)
    574e:	7f 21                	jg     5771 <safe_lshift_func_int32_t_s_s+0x41>
    5750:	8b 45 f8             	mov    -0x8(%rbp),%eax
    5753:	ba ff ff ff 7f       	mov    $0x7fffffff,%edx
    5758:	89 c1                	mov    %eax,%ecx
    575a:	d3 fa                	sar    %cl,%edx
    575c:	89 d0                	mov    %edx,%eax
    575e:	39 45 fc             	cmp    %eax,-0x4(%rbp)
    5761:	7f 0e                	jg     5771 <safe_lshift_func_int32_t_s_s+0x41>
    5763:	8b 45 f8             	mov    -0x8(%rbp),%eax
    5766:	8b 55 fc             	mov    -0x4(%rbp),%edx
    5769:	89 c1                	mov    %eax,%ecx
    576b:	d3 e2                	shl    %cl,%edx
    576d:	89 d0                	mov    %edx,%eax
    576f:	eb 03                	jmp    5774 <safe_lshift_func_int32_t_s_s+0x44>
    5771:	8b 45 fc             	mov    -0x4(%rbp),%eax
    5774:	5d                   	pop    %rbp
    5775:	c3                   	retq   

0000000000005776 <safe_lshift_func_int32_t_s_u>:
    5776:	f3 0f 1e fa          	endbr64 
    577a:	55                   	push   %rbp
    577b:	48 89 e5             	mov    %rsp,%rbp
    577e:	89 7d fc             	mov    %edi,-0x4(%rbp)
    5781:	89 75 f8             	mov    %esi,-0x8(%rbp)
    5784:	83 7d fc 00          	cmpl   $0x0,-0x4(%rbp)
    5788:	78 27                	js     57b1 <safe_lshift_func_int32_t_s_u+0x3b>
    578a:	83 7d f8 1f          	cmpl   $0x1f,-0x8(%rbp)
    578e:	77 21                	ja     57b1 <safe_lshift_func_int32_t_s_u+0x3b>
    5790:	8b 45 f8             	mov    -0x8(%rbp),%eax
    5793:	ba ff ff ff 7f       	mov    $0x7fffffff,%edx
    5798:	89 c1                	mov    %eax,%ecx
    579a:	d3 fa                	sar    %cl,%edx
    579c:	89 d0                	mov    %edx,%eax
    579e:	39 45 fc             	cmp    %eax,-0x4(%rbp)
    57a1:	7f 0e                	jg     57b1 <safe_lshift_func_int32_t_s_u+0x3b>
    57a3:	8b 45 f8             	mov    -0x8(%rbp),%eax
    57a6:	8b 55 fc             	mov    -0x4(%rbp),%edx
    57a9:	89 c1                	mov    %eax,%ecx
    57ab:	d3 e2                	shl    %cl,%edx
    57ad:	89 d0                	mov    %edx,%eax
    57af:	eb 03                	jmp    57b4 <safe_lshift_func_int32_t_s_u+0x3e>
    57b1:	8b 45 fc             	mov    -0x4(%rbp),%eax
    57b4:	5d                   	pop    %rbp
    57b5:	c3                   	retq   

00000000000057b6 <safe_rshift_func_int32_t_s_s>:
    57b6:	f3 0f 1e fa          	endbr64 
    57ba:	55                   	push   %rbp
    57bb:	48 89 e5             	mov    %rsp,%rbp
    57be:	89 7d fc             	mov    %edi,-0x4(%rbp)
    57c1:	89 75 f8             	mov    %esi,-0x8(%rbp)
    57c4:	83 7d fc 00          	cmpl   $0x0,-0x4(%rbp)
    57c8:	78 1a                	js     57e4 <safe_rshift_func_int32_t_s_s+0x2e>
    57ca:	83 7d f8 00          	cmpl   $0x0,-0x8(%rbp)
    57ce:	78 14                	js     57e4 <safe_rshift_func_int32_t_s_s+0x2e>
    57d0:	83 7d f8 1f          	cmpl   $0x1f,-0x8(%rbp)
    57d4:	7f 0e                	jg     57e4 <safe_rshift_func_int32_t_s_s+0x2e>
    57d6:	8b 45 f8             	mov    -0x8(%rbp),%eax
    57d9:	8b 55 fc             	mov    -0x4(%rbp),%edx
    57dc:	89 c1                	mov    %eax,%ecx
    57de:	d3 fa                	sar    %cl,%edx
    57e0:	89 d0                	mov    %edx,%eax
    57e2:	eb 03                	jmp    57e7 <safe_rshift_func_int32_t_s_s+0x31>
    57e4:	8b 45 fc             	mov    -0x4(%rbp),%eax
    57e7:	5d                   	pop    %rbp
    57e8:	c3                   	retq   

00000000000057e9 <safe_rshift_func_int32_t_s_u>:
    57e9:	f3 0f 1e fa          	endbr64 
    57ed:	55                   	push   %rbp
    57ee:	48 89 e5             	mov    %rsp,%rbp
    57f1:	89 7d fc             	mov    %edi,-0x4(%rbp)
    57f4:	89 75 f8             	mov    %esi,-0x8(%rbp)
    57f7:	83 7d fc 00          	cmpl   $0x0,-0x4(%rbp)
    57fb:	78 14                	js     5811 <safe_rshift_func_int32_t_s_u+0x28>
    57fd:	83 7d f8 1f          	cmpl   $0x1f,-0x8(%rbp)
    5801:	77 0e                	ja     5811 <safe_rshift_func_int32_t_s_u+0x28>
    5803:	8b 45 f8             	mov    -0x8(%rbp),%eax
    5806:	8b 55 fc             	mov    -0x4(%rbp),%edx
    5809:	89 c1                	mov    %eax,%ecx
    580b:	d3 fa                	sar    %cl,%edx
    580d:	89 d0                	mov    %edx,%eax
    580f:	eb 03                	jmp    5814 <safe_rshift_func_int32_t_s_u+0x2b>
    5811:	8b 45 fc             	mov    -0x4(%rbp),%eax
    5814:	5d                   	pop    %rbp
    5815:	c3                   	retq   

0000000000005816 <safe_unary_minus_func_int64_t_s>:
    5816:	f3 0f 1e fa          	endbr64 
    581a:	55                   	push   %rbp
    581b:	48 89 e5             	mov    %rsp,%rbp
    581e:	48 89 7d f8          	mov    %rdi,-0x8(%rbp)
    5822:	48 b8 00 00 00 00 00 	movabs $0x8000000000000000,%rax
    5829:	00 00 80 
    582c:	48 39 45 f8          	cmp    %rax,-0x8(%rbp)
    5830:	74 09                	je     583b <safe_unary_minus_func_int64_t_s+0x25>
    5832:	48 8b 45 f8          	mov    -0x8(%rbp),%rax
    5836:	48 f7 d8             	neg    %rax
    5839:	eb 04                	jmp    583f <safe_unary_minus_func_int64_t_s+0x29>
    583b:	48 8b 45 f8          	mov    -0x8(%rbp),%rax
    583f:	5d                   	pop    %rbp
    5840:	c3                   	retq   

0000000000005841 <safe_add_func_int64_t_s_s>:
    5841:	f3 0f 1e fa          	endbr64 
    5845:	55                   	push   %rbp
    5846:	48 89 e5             	mov    %rsp,%rbp
    5849:	48 89 7d f8          	mov    %rdi,-0x8(%rbp)
    584d:	48 89 75 f0          	mov    %rsi,-0x10(%rbp)
    5851:	48 83 7d f8 00       	cmpq   $0x0,-0x8(%rbp)
    5856:	7e 1b                	jle    5873 <safe_add_func_int64_t_s_s+0x32>
    5858:	48 83 7d f0 00       	cmpq   $0x0,-0x10(%rbp)
    585d:	7e 14                	jle    5873 <safe_add_func_int64_t_s_s+0x32>
    585f:	48 b8 ff ff ff ff ff 	movabs $0x7fffffffffffffff,%rax
    5866:	ff ff 7f 
    5869:	48 2b 45 f0          	sub    -0x10(%rbp),%rax
    586d:	48 39 45 f8          	cmp    %rax,-0x8(%rbp)
    5871:	7f 2f                	jg     58a2 <safe_add_func_int64_t_s_s+0x61>
    5873:	48 83 7d f8 00       	cmpq   $0x0,-0x8(%rbp)
    5878:	79 1b                	jns    5895 <safe_add_func_int64_t_s_s+0x54>
    587a:	48 83 7d f0 00       	cmpq   $0x0,-0x10(%rbp)
    587f:	79 14                	jns    5895 <safe_add_func_int64_t_s_s+0x54>
    5881:	48 b8 00 00 00 00 00 	movabs $0x8000000000000000,%rax
    5888:	00 00 80 
    588b:	48 2b 45 f0          	sub    -0x10(%rbp),%rax
    588f:	48 39 45 f8          	cmp    %rax,-0x8(%rbp)
    5893:	7c 0d                	jl     58a2 <safe_add_func_int64_t_s_s+0x61>
    5895:	48 8b 55 f8          	mov    -0x8(%rbp),%rdx
    5899:	48 8b 45 f0          	mov    -0x10(%rbp),%rax
    589d:	48 01 d0             	add    %rdx,%rax
    58a0:	eb 04                	jmp    58a6 <safe_add_func_int64_t_s_s+0x65>
    58a2:	48 8b 45 f8          	mov    -0x8(%rbp),%rax
    58a6:	5d                   	pop    %rbp
    58a7:	c3                   	retq   

00000000000058a8 <safe_sub_func_int64_t_s_s>:
    58a8:	f3 0f 1e fa          	endbr64 
    58ac:	55                   	push   %rbp
    58ad:	48 89 e5             	mov    %rsp,%rbp
    58b0:	48 89 7d f8          	mov    %rdi,-0x8(%rbp)
    58b4:	48 89 75 f0          	mov    %rsi,-0x10(%rbp)
    58b8:	48 8b 45 f8          	mov    -0x8(%rbp),%rax
    58bc:	48 33 45 f0          	xor    -0x10(%rbp),%rax
    58c0:	48 89 c2             	mov    %rax,%rdx
    58c3:	48 8b 45 f8          	mov    -0x8(%rbp),%rax
    58c7:	48 33 45 f0          	xor    -0x10(%rbp),%rax
    58cb:	48 b9 00 00 00 00 00 	movabs $0x8000000000000000,%rcx
    58d2:	00 00 80 
    58d5:	48 21 c8             	and    %rcx,%rax
    58d8:	48 33 45 f8          	xor    -0x8(%rbp),%rax
    58dc:	48 2b 45 f0          	sub    -0x10(%rbp),%rax
    58e0:	48 33 45 f0          	xor    -0x10(%rbp),%rax
    58e4:	48 21 d0             	and    %rdx,%rax
    58e7:	48 85 c0             	test   %rax,%rax
    58ea:	78 0a                	js     58f6 <safe_sub_func_int64_t_s_s+0x4e>
    58ec:	48 8b 45 f8          	mov    -0x8(%rbp),%rax
    58f0:	48 2b 45 f0          	sub    -0x10(%rbp),%rax
    58f4:	eb 04                	jmp    58fa <safe_sub_func_int64_t_s_s+0x52>
    58f6:	48 8b 45 f8          	mov    -0x8(%rbp),%rax
    58fa:	5d                   	pop    %rbp
    58fb:	c3                   	retq   

00000000000058fc <safe_mul_func_int64_t_s_s>:
    58fc:	f3 0f 1e fa          	endbr64 
    5900:	55                   	push   %rbp
    5901:	48 89 e5             	mov    %rsp,%rbp
    5904:	48 89 7d f8          	mov    %rdi,-0x8(%rbp)
    5908:	48 89 75 f0          	mov    %rsi,-0x10(%rbp)
    590c:	48 83 7d f8 00       	cmpq   $0x0,-0x8(%rbp)
    5911:	7e 1d                	jle    5930 <safe_mul_func_int64_t_s_s+0x34>
    5913:	48 83 7d f0 00       	cmpq   $0x0,-0x10(%rbp)
    5918:	7e 16                	jle    5930 <safe_mul_func_int64_t_s_s+0x34>
    591a:	48 b8 ff ff ff ff ff 	movabs $0x7fffffffffffffff,%rax
    5921:	ff ff 7f 
    5924:	48 99                	cqto   
    5926:	48 f7 7d f0          	idivq  -0x10(%rbp)
    592a:	48 39 45 f8          	cmp    %rax,-0x8(%rbp)
    592e:	7f 7e                	jg     59ae <safe_mul_func_int64_t_s_s+0xb2>
    5930:	48 83 7d f8 00       	cmpq   $0x0,-0x8(%rbp)
    5935:	7e 1d                	jle    5954 <safe_mul_func_int64_t_s_s+0x58>
    5937:	48 83 7d f0 00       	cmpq   $0x0,-0x10(%rbp)
    593c:	7f 16                	jg     5954 <safe_mul_func_int64_t_s_s+0x58>
    593e:	48 b8 00 00 00 00 00 	movabs $0x8000000000000000,%rax
    5945:	00 00 80 
    5948:	48 99                	cqto   
    594a:	48 f7 7d f8          	idivq  -0x8(%rbp)
    594e:	48 39 45 f0          	cmp    %rax,-0x10(%rbp)
    5952:	7c 5a                	jl     59ae <safe_mul_func_int64_t_s_s+0xb2>
    5954:	48 83 7d f8 00       	cmpq   $0x0,-0x8(%rbp)
    5959:	7f 1d                	jg     5978 <safe_mul_func_int64_t_s_s+0x7c>
    595b:	48 83 7d f0 00       	cmpq   $0x0,-0x10(%rbp)
    5960:	7e 16                	jle    5978 <safe_mul_func_int64_t_s_s+0x7c>
    5962:	48 b8 00 00 00 00 00 	movabs $0x8000000000000000,%rax
    5969:	00 00 80 
    596c:	48 99                	cqto   
    596e:	48 f7 7d f0          	idivq  -0x10(%rbp)
    5972:	48 39 45 f8          	cmp    %rax,-0x8(%rbp)
    5976:	7c 36                	jl     59ae <safe_mul_func_int64_t_s_s+0xb2>
    5978:	48 83 7d f8 00       	cmpq   $0x0,-0x8(%rbp)
    597d:	7f 24                	jg     59a3 <safe_mul_func_int64_t_s_s+0xa7>
    597f:	48 83 7d f0 00       	cmpq   $0x0,-0x10(%rbp)
    5984:	7f 1d                	jg     59a3 <safe_mul_func_int64_t_s_s+0xa7>
    5986:	48 83 7d f8 00       	cmpq   $0x0,-0x8(%rbp)
    598b:	74 16                	je     59a3 <safe_mul_func_int64_t_s_s+0xa7>
    598d:	48 b8 ff ff ff ff ff 	movabs $0x7fffffffffffffff,%rax
    5994:	ff ff 7f 
    5997:	48 99                	cqto   
    5999:	48 f7 7d f8          	idivq  -0x8(%rbp)
    599d:	48 39 45 f0          	cmp    %rax,-0x10(%rbp)
    59a1:	7c 0b                	jl     59ae <safe_mul_func_int64_t_s_s+0xb2>
    59a3:	48 8b 45 f8          	mov    -0x8(%rbp),%rax
    59a7:	48 0f af 45 f0       	imul   -0x10(%rbp),%rax
    59ac:	eb 04                	jmp    59b2 <safe_mul_func_int64_t_s_s+0xb6>
    59ae:	48 8b 45 f8          	mov    -0x8(%rbp),%rax
    59b2:	5d                   	pop    %rbp
    59b3:	c3                   	retq   

00000000000059b4 <safe_mod_func_int64_t_s_s>:
    59b4:	f3 0f 1e fa          	endbr64 
    59b8:	55                   	push   %rbp
    59b9:	48 89 e5             	mov    %rsp,%rbp
    59bc:	48 89 7d f8          	mov    %rdi,-0x8(%rbp)
    59c0:	48 89 75 f0          	mov    %rsi,-0x10(%rbp)
    59c4:	48 83 7d f0 00       	cmpq   $0x0,-0x10(%rbp)
    59c9:	74 26                	je     59f1 <safe_mod_func_int64_t_s_s+0x3d>
    59cb:	48 b8 00 00 00 00 00 	movabs $0x8000000000000000,%rax
    59d2:	00 00 80 
    59d5:	48 39 45 f8          	cmp    %rax,-0x8(%rbp)
    59d9:	75 07                	jne    59e2 <safe_mod_func_int64_t_s_s+0x2e>
    59db:	48 83 7d f0 ff       	cmpq   $0xffffffffffffffff,-0x10(%rbp)
    59e0:	74 0f                	je     59f1 <safe_mod_func_int64_t_s_s+0x3d>
    59e2:	48 8b 45 f8          	mov    -0x8(%rbp),%rax
    59e6:	48 99                	cqto   
    59e8:	48 f7 7d f0          	idivq  -0x10(%rbp)
    59ec:	48 89 d0             	mov    %rdx,%rax
    59ef:	eb 04                	jmp    59f5 <safe_mod_func_int64_t_s_s+0x41>
    59f1:	48 8b 45 f8          	mov    -0x8(%rbp),%rax
    59f5:	5d                   	pop    %rbp
    59f6:	c3                   	retq   

00000000000059f7 <safe_div_func_int64_t_s_s>:
    59f7:	f3 0f 1e fa          	endbr64 
    59fb:	55                   	push   %rbp
    59fc:	48 89 e5             	mov    %rsp,%rbp
    59ff:	48 89 7d f8          	mov    %rdi,-0x8(%rbp)
    5a03:	48 89 75 f0          	mov    %rsi,-0x10(%rbp)
    5a07:	48 83 7d f0 00       	cmpq   $0x0,-0x10(%rbp)
    5a0c:	74 23                	je     5a31 <safe_div_func_int64_t_s_s+0x3a>
    5a0e:	48 b8 00 00 00 00 00 	movabs $0x8000000000000000,%rax
    5a15:	00 00 80 
    5a18:	48 39 45 f8          	cmp    %rax,-0x8(%rbp)
    5a1c:	75 07                	jne    5a25 <safe_div_func_int64_t_s_s+0x2e>
    5a1e:	48 83 7d f0 ff       	cmpq   $0xffffffffffffffff,-0x10(%rbp)
    5a23:	74 0c                	je     5a31 <safe_div_func_int64_t_s_s+0x3a>
    5a25:	48 8b 45 f8          	mov    -0x8(%rbp),%rax
    5a29:	48 99                	cqto   
    5a2b:	48 f7 7d f0          	idivq  -0x10(%rbp)
    5a2f:	eb 04                	jmp    5a35 <safe_div_func_int64_t_s_s+0x3e>
    5a31:	48 8b 45 f8          	mov    -0x8(%rbp),%rax
    5a35:	5d                   	pop    %rbp
    5a36:	c3                   	retq   

0000000000005a37 <safe_lshift_func_int64_t_s_s>:
    5a37:	f3 0f 1e fa          	endbr64 
    5a3b:	55                   	push   %rbp
    5a3c:	48 89 e5             	mov    %rsp,%rbp
    5a3f:	48 89 7d f8          	mov    %rdi,-0x8(%rbp)
    5a43:	89 75 f4             	mov    %esi,-0xc(%rbp)
    5a46:	48 83 7d f8 00       	cmpq   $0x0,-0x8(%rbp)
    5a4b:	78 38                	js     5a85 <safe_lshift_func_int64_t_s_s+0x4e>
    5a4d:	83 7d f4 00          	cmpl   $0x0,-0xc(%rbp)
    5a51:	78 32                	js     5a85 <safe_lshift_func_int64_t_s_s+0x4e>
    5a53:	83 7d f4 1f          	cmpl   $0x1f,-0xc(%rbp)
    5a57:	7f 2c                	jg     5a85 <safe_lshift_func_int64_t_s_s+0x4e>
    5a59:	8b 45 f4             	mov    -0xc(%rbp),%eax
    5a5c:	48 ba ff ff ff ff ff 	movabs $0x7fffffffffffffff,%rdx
    5a63:	ff ff 7f 
    5a66:	89 c1                	mov    %eax,%ecx
    5a68:	48 d3 fa             	sar    %cl,%rdx
    5a6b:	48 89 d0             	mov    %rdx,%rax
    5a6e:	48 39 45 f8          	cmp    %rax,-0x8(%rbp)
    5a72:	7f 11                	jg     5a85 <safe_lshift_func_int64_t_s_s+0x4e>
    5a74:	8b 45 f4             	mov    -0xc(%rbp),%eax
    5a77:	48 8b 55 f8          	mov    -0x8(%rbp),%rdx
    5a7b:	89 c1                	mov    %eax,%ecx
    5a7d:	48 d3 e2             	shl    %cl,%rdx
    5a80:	48 89 d0             	mov    %rdx,%rax
    5a83:	eb 04                	jmp    5a89 <safe_lshift_func_int64_t_s_s+0x52>
    5a85:	48 8b 45 f8          	mov    -0x8(%rbp),%rax
    5a89:	5d                   	pop    %rbp
    5a8a:	c3                   	retq   

0000000000005a8b <safe_lshift_func_int64_t_s_u>:
    5a8b:	f3 0f 1e fa          	endbr64 
    5a8f:	55                   	push   %rbp
    5a90:	48 89 e5             	mov    %rsp,%rbp
    5a93:	48 89 7d f8          	mov    %rdi,-0x8(%rbp)
    5a97:	89 75 f4             	mov    %esi,-0xc(%rbp)
    5a9a:	48 83 7d f8 00       	cmpq   $0x0,-0x8(%rbp)
    5a9f:	78 32                	js     5ad3 <safe_lshift_func_int64_t_s_u+0x48>
    5aa1:	83 7d f4 1f          	cmpl   $0x1f,-0xc(%rbp)
    5aa5:	77 2c                	ja     5ad3 <safe_lshift_func_int64_t_s_u+0x48>
    5aa7:	8b 45 f4             	mov    -0xc(%rbp),%eax
    5aaa:	48 ba ff ff ff ff ff 	movabs $0x7fffffffffffffff,%rdx
    5ab1:	ff ff 7f 
    5ab4:	89 c1                	mov    %eax,%ecx
    5ab6:	48 d3 fa             	sar    %cl,%rdx
    5ab9:	48 89 d0             	mov    %rdx,%rax
    5abc:	48 39 45 f8          	cmp    %rax,-0x8(%rbp)
    5ac0:	7f 11                	jg     5ad3 <safe_lshift_func_int64_t_s_u+0x48>
    5ac2:	8b 45 f4             	mov    -0xc(%rbp),%eax
    5ac5:	48 8b 55 f8          	mov    -0x8(%rbp),%rdx
    5ac9:	89 c1                	mov    %eax,%ecx
    5acb:	48 d3 e2             	shl    %cl,%rdx
    5ace:	48 89 d0             	mov    %rdx,%rax
    5ad1:	eb 04                	jmp    5ad7 <safe_lshift_func_int64_t_s_u+0x4c>
    5ad3:	48 8b 45 f8          	mov    -0x8(%rbp),%rax
    5ad7:	5d                   	pop    %rbp
    5ad8:	c3                   	retq   

0000000000005ad9 <safe_rshift_func_int64_t_s_s>:
    5ad9:	f3 0f 1e fa          	endbr64 
    5add:	55                   	push   %rbp
    5ade:	48 89 e5             	mov    %rsp,%rbp
    5ae1:	48 89 7d f8          	mov    %rdi,-0x8(%rbp)
    5ae5:	89 75 f4             	mov    %esi,-0xc(%rbp)
    5ae8:	48 83 7d f8 00       	cmpq   $0x0,-0x8(%rbp)
    5aed:	78 1d                	js     5b0c <safe_rshift_func_int64_t_s_s+0x33>
    5aef:	83 7d f4 00          	cmpl   $0x0,-0xc(%rbp)
    5af3:	78 17                	js     5b0c <safe_rshift_func_int64_t_s_s+0x33>
    5af5:	83 7d f4 1f          	cmpl   $0x1f,-0xc(%rbp)
    5af9:	7f 11                	jg     5b0c <safe_rshift_func_int64_t_s_s+0x33>
    5afb:	8b 45 f4             	mov    -0xc(%rbp),%eax
    5afe:	48 8b 55 f8          	mov    -0x8(%rbp),%rdx
    5b02:	89 c1                	mov    %eax,%ecx
    5b04:	48 d3 fa             	sar    %cl,%rdx
    5b07:	48 89 d0             	mov    %rdx,%rax
    5b0a:	eb 04                	jmp    5b10 <safe_rshift_func_int64_t_s_s+0x37>
    5b0c:	48 8b 45 f8          	mov    -0x8(%rbp),%rax
    5b10:	5d                   	pop    %rbp
    5b11:	c3                   	retq   

0000000000005b12 <safe_rshift_func_int64_t_s_u>:
    5b12:	f3 0f 1e fa          	endbr64 
    5b16:	55                   	push   %rbp
    5b17:	48 89 e5             	mov    %rsp,%rbp
    5b1a:	48 89 7d f8          	mov    %rdi,-0x8(%rbp)
    5b1e:	89 75 f4             	mov    %esi,-0xc(%rbp)
    5b21:	48 83 7d f8 00       	cmpq   $0x0,-0x8(%rbp)
    5b26:	78 17                	js     5b3f <safe_rshift_func_int64_t_s_u+0x2d>
    5b28:	83 7d f4 1f          	cmpl   $0x1f,-0xc(%rbp)
    5b2c:	77 11                	ja     5b3f <safe_rshift_func_int64_t_s_u+0x2d>
    5b2e:	8b 45 f4             	mov    -0xc(%rbp),%eax
    5b31:	48 8b 55 f8          	mov    -0x8(%rbp),%rdx
    5b35:	89 c1                	mov    %eax,%ecx
    5b37:	48 d3 fa             	sar    %cl,%rdx
    5b3a:	48 89 d0             	mov    %rdx,%rax
    5b3d:	eb 04                	jmp    5b43 <safe_rshift_func_int64_t_s_u+0x31>
    5b3f:	48 8b 45 f8          	mov    -0x8(%rbp),%rax
    5b43:	5d                   	pop    %rbp
    5b44:	c3                   	retq   

0000000000005b45 <safe_unary_minus_func_uint8_t_u>:
    5b45:	f3 0f 1e fa          	endbr64 
    5b49:	55                   	push   %rbp
    5b4a:	48 89 e5             	mov    %rsp,%rbp
    5b4d:	89 f8                	mov    %edi,%eax
    5b4f:	88 45 fc             	mov    %al,-0x4(%rbp)
    5b52:	0f b6 45 fc          	movzbl -0x4(%rbp),%eax
    5b56:	f7 d8                	neg    %eax
    5b58:	5d                   	pop    %rbp
    5b59:	c3                   	retq   

0000000000005b5a <safe_add_func_uint8_t_u_u>:
    5b5a:	f3 0f 1e fa          	endbr64 
    5b5e:	55                   	push   %rbp
    5b5f:	48 89 e5             	mov    %rsp,%rbp
    5b62:	89 fa                	mov    %edi,%edx
    5b64:	89 f0                	mov    %esi,%eax
    5b66:	88 55 fc             	mov    %dl,-0x4(%rbp)
    5b69:	88 45 f8             	mov    %al,-0x8(%rbp)
    5b6c:	0f b6 55 fc          	movzbl -0x4(%rbp),%edx
    5b70:	0f b6 45 f8          	movzbl -0x8(%rbp),%eax
    5b74:	01 d0                	add    %edx,%eax
    5b76:	5d                   	pop    %rbp
    5b77:	c3                   	retq   

0000000000005b78 <safe_sub_func_uint8_t_u_u>:
    5b78:	f3 0f 1e fa          	endbr64 
    5b7c:	55                   	push   %rbp
    5b7d:	48 89 e5             	mov    %rsp,%rbp
    5b80:	89 fa                	mov    %edi,%edx
    5b82:	89 f0                	mov    %esi,%eax
    5b84:	88 55 fc             	mov    %dl,-0x4(%rbp)
    5b87:	88 45 f8             	mov    %al,-0x8(%rbp)
    5b8a:	0f b6 45 fc          	movzbl -0x4(%rbp),%eax
    5b8e:	2a 45 f8             	sub    -0x8(%rbp),%al
    5b91:	5d                   	pop    %rbp
    5b92:	c3                   	retq   

0000000000005b93 <safe_mul_func_uint8_t_u_u>:
    5b93:	f3 0f 1e fa          	endbr64 
    5b97:	55                   	push   %rbp
    5b98:	48 89 e5             	mov    %rsp,%rbp
    5b9b:	89 fa                	mov    %edi,%edx
    5b9d:	89 f0                	mov    %esi,%eax
    5b9f:	88 55 fc             	mov    %dl,-0x4(%rbp)
    5ba2:	88 45 f8             	mov    %al,-0x8(%rbp)
    5ba5:	0f b6 45 fc          	movzbl -0x4(%rbp),%eax
    5ba9:	f6 65 f8             	mulb   -0x8(%rbp)
    5bac:	5d                   	pop    %rbp
    5bad:	c3                   	retq   

0000000000005bae <safe_mod_func_uint8_t_u_u>:
    5bae:	f3 0f 1e fa          	endbr64 
    5bb2:	55                   	push   %rbp
    5bb3:	48 89 e5             	mov    %rsp,%rbp
    5bb6:	89 fa                	mov    %edi,%edx
    5bb8:	89 f0                	mov    %esi,%eax
    5bba:	88 55 fc             	mov    %dl,-0x4(%rbp)
    5bbd:	88 45 f8             	mov    %al,-0x8(%rbp)
    5bc0:	80 7d f8 00          	cmpb   $0x0,-0x8(%rbp)
    5bc4:	74 0f                	je     5bd5 <safe_mod_func_uint8_t_u_u+0x27>
    5bc6:	0f b6 45 fc          	movzbl -0x4(%rbp),%eax
    5bca:	0f b6 c0             	movzbl %al,%eax
    5bcd:	f6 75 f8             	divb   -0x8(%rbp)
    5bd0:	0f b6 c4             	movzbl %ah,%eax
    5bd3:	eb 04                	jmp    5bd9 <safe_mod_func_uint8_t_u_u+0x2b>
    5bd5:	0f b6 45 fc          	movzbl -0x4(%rbp),%eax
    5bd9:	5d                   	pop    %rbp
    5bda:	c3                   	retq   

0000000000005bdb <safe_div_func_uint8_t_u_u>:
    5bdb:	f3 0f 1e fa          	endbr64 
    5bdf:	55                   	push   %rbp
    5be0:	48 89 e5             	mov    %rsp,%rbp
    5be3:	89 fa                	mov    %edi,%edx
    5be5:	89 f0                	mov    %esi,%eax
    5be7:	88 55 fc             	mov    %dl,-0x4(%rbp)
    5bea:	88 45 f8             	mov    %al,-0x8(%rbp)
    5bed:	80 7d f8 00          	cmpb   $0x0,-0x8(%rbp)
    5bf1:	74 0c                	je     5bff <safe_div_func_uint8_t_u_u+0x24>
    5bf3:	0f b6 45 fc          	movzbl -0x4(%rbp),%eax
    5bf7:	0f b6 c0             	movzbl %al,%eax
    5bfa:	f6 75 f8             	divb   -0x8(%rbp)
    5bfd:	eb 04                	jmp    5c03 <safe_div_func_uint8_t_u_u+0x28>
    5bff:	0f b6 45 fc          	movzbl -0x4(%rbp),%eax
    5c03:	5d                   	pop    %rbp
    5c04:	c3                   	retq   

0000000000005c05 <safe_lshift_func_uint8_t_u_s>:
    5c05:	f3 0f 1e fa          	endbr64 
    5c09:	55                   	push   %rbp
    5c0a:	48 89 e5             	mov    %rsp,%rbp
    5c0d:	89 f8                	mov    %edi,%eax
    5c0f:	89 75 f8             	mov    %esi,-0x8(%rbp)
    5c12:	88 45 fc             	mov    %al,-0x4(%rbp)
    5c15:	83 7d f8 00          	cmpl   $0x0,-0x8(%rbp)
    5c19:	78 2b                	js     5c46 <safe_lshift_func_uint8_t_u_s+0x41>
    5c1b:	83 7d f8 1f          	cmpl   $0x1f,-0x8(%rbp)
    5c1f:	7f 25                	jg     5c46 <safe_lshift_func_uint8_t_u_s+0x41>
    5c21:	0f b6 55 fc          	movzbl -0x4(%rbp),%edx
    5c25:	8b 45 f8             	mov    -0x8(%rbp),%eax
    5c28:	be ff 00 00 00       	mov    $0xff,%esi
    5c2d:	89 c1                	mov    %eax,%ecx
    5c2f:	d3 fe                	sar    %cl,%esi
    5c31:	89 f0                	mov    %esi,%eax
    5c33:	39 c2                	cmp    %eax,%edx
    5c35:	7f 0f                	jg     5c46 <safe_lshift_func_uint8_t_u_s+0x41>
    5c37:	0f b6 55 fc          	movzbl -0x4(%rbp),%edx
    5c3b:	8b 45 f8             	mov    -0x8(%rbp),%eax
    5c3e:	89 c1                	mov    %eax,%ecx
    5c40:	d3 e2                	shl    %cl,%edx
    5c42:	89 d0                	mov    %edx,%eax
    5c44:	eb 04                	jmp    5c4a <safe_lshift_func_uint8_t_u_s+0x45>
    5c46:	0f b6 45 fc          	movzbl -0x4(%rbp),%eax
    5c4a:	5d                   	pop    %rbp
    5c4b:	c3                   	retq   

0000000000005c4c <safe_lshift_func_uint8_t_u_u>:
    5c4c:	f3 0f 1e fa          	endbr64 
    5c50:	55                   	push   %rbp
    5c51:	48 89 e5             	mov    %rsp,%rbp
    5c54:	89 f8                	mov    %edi,%eax
    5c56:	89 75 f8             	mov    %esi,-0x8(%rbp)
    5c59:	88 45 fc             	mov    %al,-0x4(%rbp)
    5c5c:	83 7d f8 1f          	cmpl   $0x1f,-0x8(%rbp)
    5c60:	77 25                	ja     5c87 <safe_lshift_func_uint8_t_u_u+0x3b>
    5c62:	0f b6 55 fc          	movzbl -0x4(%rbp),%edx
    5c66:	8b 45 f8             	mov    -0x8(%rbp),%eax
    5c69:	be ff 00 00 00       	mov    $0xff,%esi
    5c6e:	89 c1                	mov    %eax,%ecx
    5c70:	d3 fe                	sar    %cl,%esi
    5c72:	89 f0                	mov    %esi,%eax
    5c74:	39 c2                	cmp    %eax,%edx
    5c76:	7f 0f                	jg     5c87 <safe_lshift_func_uint8_t_u_u+0x3b>
    5c78:	0f b6 55 fc          	movzbl -0x4(%rbp),%edx
    5c7c:	8b 45 f8             	mov    -0x8(%rbp),%eax
    5c7f:	89 c1                	mov    %eax,%ecx
    5c81:	d3 e2                	shl    %cl,%edx
    5c83:	89 d0                	mov    %edx,%eax
    5c85:	eb 04                	jmp    5c8b <safe_lshift_func_uint8_t_u_u+0x3f>
    5c87:	0f b6 45 fc          	movzbl -0x4(%rbp),%eax
    5c8b:	5d                   	pop    %rbp
    5c8c:	c3                   	retq   

0000000000005c8d <safe_rshift_func_uint8_t_u_s>:
    5c8d:	f3 0f 1e fa          	endbr64 
    5c91:	55                   	push   %rbp
    5c92:	48 89 e5             	mov    %rsp,%rbp
    5c95:	89 f8                	mov    %edi,%eax
    5c97:	89 75 f8             	mov    %esi,-0x8(%rbp)
    5c9a:	88 45 fc             	mov    %al,-0x4(%rbp)
    5c9d:	83 7d f8 00          	cmpl   $0x0,-0x8(%rbp)
    5ca1:	78 15                	js     5cb8 <safe_rshift_func_uint8_t_u_s+0x2b>
    5ca3:	83 7d f8 1f          	cmpl   $0x1f,-0x8(%rbp)
    5ca7:	7f 0f                	jg     5cb8 <safe_rshift_func_uint8_t_u_s+0x2b>
    5ca9:	0f b6 55 fc          	movzbl -0x4(%rbp),%edx
    5cad:	8b 45 f8             	mov    -0x8(%rbp),%eax
    5cb0:	89 c1                	mov    %eax,%ecx
    5cb2:	d3 fa                	sar    %cl,%edx
    5cb4:	89 d0                	mov    %edx,%eax
    5cb6:	eb 04                	jmp    5cbc <safe_rshift_func_uint8_t_u_s+0x2f>
    5cb8:	0f b6 45 fc          	movzbl -0x4(%rbp),%eax
    5cbc:	5d                   	pop    %rbp
    5cbd:	c3                   	retq   

0000000000005cbe <safe_rshift_func_uint8_t_u_u>:
    5cbe:	f3 0f 1e fa          	endbr64 
    5cc2:	55                   	push   %rbp
    5cc3:	48 89 e5             	mov    %rsp,%rbp
    5cc6:	89 f8                	mov    %edi,%eax
    5cc8:	89 75 f8             	mov    %esi,-0x8(%rbp)
    5ccb:	88 45 fc             	mov    %al,-0x4(%rbp)
    5cce:	83 7d f8 1f          	cmpl   $0x1f,-0x8(%rbp)
    5cd2:	77 0f                	ja     5ce3 <safe_rshift_func_uint8_t_u_u+0x25>
    5cd4:	0f b6 55 fc          	movzbl -0x4(%rbp),%edx
    5cd8:	8b 45 f8             	mov    -0x8(%rbp),%eax
    5cdb:	89 c1                	mov    %eax,%ecx
    5cdd:	d3 fa                	sar    %cl,%edx
    5cdf:	89 d0                	mov    %edx,%eax
    5ce1:	eb 04                	jmp    5ce7 <safe_rshift_func_uint8_t_u_u+0x29>
    5ce3:	0f b6 45 fc          	movzbl -0x4(%rbp),%eax
    5ce7:	5d                   	pop    %rbp
    5ce8:	c3                   	retq   

0000000000005ce9 <safe_unary_minus_func_uint16_t_u>:
    5ce9:	f3 0f 1e fa          	endbr64 
    5ced:	55                   	push   %rbp
    5cee:	48 89 e5             	mov    %rsp,%rbp
    5cf1:	89 f8                	mov    %edi,%eax
    5cf3:	66 89 45 fc          	mov    %ax,-0x4(%rbp)
    5cf7:	0f b7 45 fc          	movzwl -0x4(%rbp),%eax
    5cfb:	f7 d8                	neg    %eax
    5cfd:	5d                   	pop    %rbp
    5cfe:	c3                   	retq   

0000000000005cff <safe_add_func_uint16_t_u_u>:
    5cff:	f3 0f 1e fa          	endbr64 
    5d03:	55                   	push   %rbp
    5d04:	48 89 e5             	mov    %rsp,%rbp
    5d07:	89 fa                	mov    %edi,%edx
    5d09:	89 f0                	mov    %esi,%eax
    5d0b:	66 89 55 fc          	mov    %dx,-0x4(%rbp)
    5d0f:	66 89 45 f8          	mov    %ax,-0x8(%rbp)
    5d13:	0f b7 55 fc          	movzwl -0x4(%rbp),%edx
    5d17:	0f b7 45 f8          	movzwl -0x8(%rbp),%eax
    5d1b:	01 d0                	add    %edx,%eax
    5d1d:	5d                   	pop    %rbp
    5d1e:	c3                   	retq   

0000000000005d1f <safe_sub_func_uint16_t_u_u>:
    5d1f:	f3 0f 1e fa          	endbr64 
    5d23:	55                   	push   %rbp
    5d24:	48 89 e5             	mov    %rsp,%rbp
    5d27:	89 fa                	mov    %edi,%edx
    5d29:	89 f0                	mov    %esi,%eax
    5d2b:	66 89 55 fc          	mov    %dx,-0x4(%rbp)
    5d2f:	66 89 45 f8          	mov    %ax,-0x8(%rbp)
    5d33:	0f b7 45 fc          	movzwl -0x4(%rbp),%eax
    5d37:	66 2b 45 f8          	sub    -0x8(%rbp),%ax
    5d3b:	5d                   	pop    %rbp
    5d3c:	c3                   	retq   

0000000000005d3d <safe_mul_func_uint16_t_u_u>:
    5d3d:	f3 0f 1e fa          	endbr64 
    5d41:	55                   	push   %rbp
    5d42:	48 89 e5             	mov    %rsp,%rbp
    5d45:	89 fa                	mov    %edi,%edx
    5d47:	89 f0                	mov    %esi,%eax
    5d49:	66 89 55 fc          	mov    %dx,-0x4(%rbp)
    5d4d:	66 89 45 f8          	mov    %ax,-0x8(%rbp)
    5d51:	0f b7 45 fc          	movzwl -0x4(%rbp),%eax
    5d55:	66 0f af 45 f8       	imul   -0x8(%rbp),%ax
    5d5a:	5d                   	pop    %rbp
    5d5b:	c3                   	retq   

0000000000005d5c <safe_mod_func_uint16_t_u_u>:
    5d5c:	f3 0f 1e fa          	endbr64 
    5d60:	55                   	push   %rbp
    5d61:	48 89 e5             	mov    %rsp,%rbp
    5d64:	89 fa                	mov    %edi,%edx
    5d66:	89 f0                	mov    %esi,%eax
    5d68:	66 89 55 fc          	mov    %dx,-0x4(%rbp)
    5d6c:	66 89 45 f8          	mov    %ax,-0x8(%rbp)
    5d70:	66 83 7d f8 00       	cmpw   $0x0,-0x8(%rbp)
    5d75:	74 11                	je     5d88 <safe_mod_func_uint16_t_u_u+0x2c>
    5d77:	0f b7 45 fc          	movzwl -0x4(%rbp),%eax
    5d7b:	ba 00 00 00 00       	mov    $0x0,%edx
    5d80:	66 f7 75 f8          	divw   -0x8(%rbp)
    5d84:	89 d0                	mov    %edx,%eax
    5d86:	eb 04                	jmp    5d8c <safe_mod_func_uint16_t_u_u+0x30>
    5d88:	0f b7 45 fc          	movzwl -0x4(%rbp),%eax
    5d8c:	5d                   	pop    %rbp
    5d8d:	c3                   	retq   

0000000000005d8e <safe_div_func_uint16_t_u_u>:
    5d8e:	f3 0f 1e fa          	endbr64 
    5d92:	55                   	push   %rbp
    5d93:	48 89 e5             	mov    %rsp,%rbp
    5d96:	89 fa                	mov    %edi,%edx
    5d98:	89 f0                	mov    %esi,%eax
    5d9a:	66 89 55 fc          	mov    %dx,-0x4(%rbp)
    5d9e:	66 89 45 f8          	mov    %ax,-0x8(%rbp)
    5da2:	66 83 7d f8 00       	cmpw   $0x0,-0x8(%rbp)
    5da7:	74 0f                	je     5db8 <safe_div_func_uint16_t_u_u+0x2a>
    5da9:	0f b7 45 fc          	movzwl -0x4(%rbp),%eax
    5dad:	ba 00 00 00 00       	mov    $0x0,%edx
    5db2:	66 f7 75 f8          	divw   -0x8(%rbp)
    5db6:	eb 04                	jmp    5dbc <safe_div_func_uint16_t_u_u+0x2e>
    5db8:	0f b7 45 fc          	movzwl -0x4(%rbp),%eax
    5dbc:	5d                   	pop    %rbp
    5dbd:	c3                   	retq   

0000000000005dbe <safe_lshift_func_uint16_t_u_s>:
    5dbe:	f3 0f 1e fa          	endbr64 
    5dc2:	55                   	push   %rbp
    5dc3:	48 89 e5             	mov    %rsp,%rbp
    5dc6:	89 f8                	mov    %edi,%eax
    5dc8:	89 75 f8             	mov    %esi,-0x8(%rbp)
    5dcb:	66 89 45 fc          	mov    %ax,-0x4(%rbp)
    5dcf:	83 7d f8 00          	cmpl   $0x0,-0x8(%rbp)
    5dd3:	78 2b                	js     5e00 <safe_lshift_func_uint16_t_u_s+0x42>
    5dd5:	83 7d f8 1f          	cmpl   $0x1f,-0x8(%rbp)
    5dd9:	7f 25                	jg     5e00 <safe_lshift_func_uint16_t_u_s+0x42>
    5ddb:	0f b7 55 fc          	movzwl -0x4(%rbp),%edx
    5ddf:	8b 45 f8             	mov    -0x8(%rbp),%eax
    5de2:	be ff ff 00 00       	mov    $0xffff,%esi
    5de7:	89 c1                	mov    %eax,%ecx
    5de9:	d3 fe                	sar    %cl,%esi
    5deb:	89 f0                	mov    %esi,%eax
    5ded:	39 c2                	cmp    %eax,%edx
    5def:	7f 0f                	jg     5e00 <safe_lshift_func_uint16_t_u_s+0x42>
    5df1:	0f b7 55 fc          	movzwl -0x4(%rbp),%edx
    5df5:	8b 45 f8             	mov    -0x8(%rbp),%eax
    5df8:	89 c1                	mov    %eax,%ecx
    5dfa:	d3 e2                	shl    %cl,%edx
    5dfc:	89 d0                	mov    %edx,%eax
    5dfe:	eb 04                	jmp    5e04 <safe_lshift_func_uint16_t_u_s+0x46>
    5e00:	0f b7 45 fc          	movzwl -0x4(%rbp),%eax
    5e04:	5d                   	pop    %rbp
    5e05:	c3                   	retq   

0000000000005e06 <safe_lshift_func_uint16_t_u_u>:
    5e06:	f3 0f 1e fa          	endbr64 
    5e0a:	55                   	push   %rbp
    5e0b:	48 89 e5             	mov    %rsp,%rbp
    5e0e:	89 f8                	mov    %edi,%eax
    5e10:	89 75 f8             	mov    %esi,-0x8(%rbp)
    5e13:	66 89 45 fc          	mov    %ax,-0x4(%rbp)
    5e17:	83 7d f8 1f          	cmpl   $0x1f,-0x8(%rbp)
    5e1b:	77 25                	ja     5e42 <safe_lshift_func_uint16_t_u_u+0x3c>
    5e1d:	0f b7 55 fc          	movzwl -0x4(%rbp),%edx
    5e21:	8b 45 f8             	mov    -0x8(%rbp),%eax
    5e24:	be ff ff 00 00       	mov    $0xffff,%esi
    5e29:	89 c1                	mov    %eax,%ecx
    5e2b:	d3 fe                	sar    %cl,%esi
    5e2d:	89 f0                	mov    %esi,%eax
    5e2f:	39 c2                	cmp    %eax,%edx
    5e31:	7f 0f                	jg     5e42 <safe_lshift_func_uint16_t_u_u+0x3c>
    5e33:	0f b7 55 fc          	movzwl -0x4(%rbp),%edx
    5e37:	8b 45 f8             	mov    -0x8(%rbp),%eax
    5e3a:	89 c1                	mov    %eax,%ecx
    5e3c:	d3 e2                	shl    %cl,%edx
    5e3e:	89 d0                	mov    %edx,%eax
    5e40:	eb 04                	jmp    5e46 <safe_lshift_func_uint16_t_u_u+0x40>
    5e42:	0f b7 45 fc          	movzwl -0x4(%rbp),%eax
    5e46:	5d                   	pop    %rbp
    5e47:	c3                   	retq   

0000000000005e48 <safe_rshift_func_uint16_t_u_s>:
    5e48:	f3 0f 1e fa          	endbr64 
    5e4c:	55                   	push   %rbp
    5e4d:	48 89 e5             	mov    %rsp,%rbp
    5e50:	89 f8                	mov    %edi,%eax
    5e52:	89 75 f8             	mov    %esi,-0x8(%rbp)
    5e55:	66 89 45 fc          	mov    %ax,-0x4(%rbp)
    5e59:	83 7d f8 00          	cmpl   $0x0,-0x8(%rbp)
    5e5d:	78 15                	js     5e74 <safe_rshift_func_uint16_t_u_s+0x2c>
    5e5f:	83 7d f8 1f          	cmpl   $0x1f,-0x8(%rbp)
    5e63:	7f 0f                	jg     5e74 <safe_rshift_func_uint16_t_u_s+0x2c>
    5e65:	0f b7 55 fc          	movzwl -0x4(%rbp),%edx
    5e69:	8b 45 f8             	mov    -0x8(%rbp),%eax
    5e6c:	89 c1                	mov    %eax,%ecx
    5e6e:	d3 fa                	sar    %cl,%edx
    5e70:	89 d0                	mov    %edx,%eax
    5e72:	eb 04                	jmp    5e78 <safe_rshift_func_uint16_t_u_s+0x30>
    5e74:	0f b7 45 fc          	movzwl -0x4(%rbp),%eax
    5e78:	5d                   	pop    %rbp
    5e79:	c3                   	retq   

0000000000005e7a <safe_rshift_func_uint16_t_u_u>:
    5e7a:	f3 0f 1e fa          	endbr64 
    5e7e:	55                   	push   %rbp
    5e7f:	48 89 e5             	mov    %rsp,%rbp
    5e82:	89 f8                	mov    %edi,%eax
    5e84:	89 75 f8             	mov    %esi,-0x8(%rbp)
    5e87:	66 89 45 fc          	mov    %ax,-0x4(%rbp)
    5e8b:	83 7d f8 1f          	cmpl   $0x1f,-0x8(%rbp)
    5e8f:	77 0f                	ja     5ea0 <safe_rshift_func_uint16_t_u_u+0x26>
    5e91:	0f b7 55 fc          	movzwl -0x4(%rbp),%edx
    5e95:	8b 45 f8             	mov    -0x8(%rbp),%eax
    5e98:	89 c1                	mov    %eax,%ecx
    5e9a:	d3 fa                	sar    %cl,%edx
    5e9c:	89 d0                	mov    %edx,%eax
    5e9e:	eb 04                	jmp    5ea4 <safe_rshift_func_uint16_t_u_u+0x2a>
    5ea0:	0f b7 45 fc          	movzwl -0x4(%rbp),%eax
    5ea4:	5d                   	pop    %rbp
    5ea5:	c3                   	retq   

0000000000005ea6 <safe_unary_minus_func_uint32_t_u>:
    5ea6:	f3 0f 1e fa          	endbr64 
    5eaa:	55                   	push   %rbp
    5eab:	48 89 e5             	mov    %rsp,%rbp
    5eae:	89 7d fc             	mov    %edi,-0x4(%rbp)
    5eb1:	8b 45 fc             	mov    -0x4(%rbp),%eax
    5eb4:	f7 d8                	neg    %eax
    5eb6:	5d                   	pop    %rbp
    5eb7:	c3                   	retq   

0000000000005eb8 <safe_add_func_uint32_t_u_u>:
    5eb8:	f3 0f 1e fa          	endbr64 
    5ebc:	55                   	push   %rbp
    5ebd:	48 89 e5             	mov    %rsp,%rbp
    5ec0:	89 7d fc             	mov    %edi,-0x4(%rbp)
    5ec3:	89 75 f8             	mov    %esi,-0x8(%rbp)
    5ec6:	8b 55 fc             	mov    -0x4(%rbp),%edx
    5ec9:	8b 45 f8             	mov    -0x8(%rbp),%eax
    5ecc:	01 d0                	add    %edx,%eax
    5ece:	5d                   	pop    %rbp
    5ecf:	c3                   	retq   

0000000000005ed0 <safe_sub_func_uint32_t_u_u>:
    5ed0:	f3 0f 1e fa          	endbr64 
    5ed4:	55                   	push   %rbp
    5ed5:	48 89 e5             	mov    %rsp,%rbp
    5ed8:	89 7d fc             	mov    %edi,-0x4(%rbp)
    5edb:	89 75 f8             	mov    %esi,-0x8(%rbp)
    5ede:	8b 45 fc             	mov    -0x4(%rbp),%eax
    5ee1:	2b 45 f8             	sub    -0x8(%rbp),%eax
    5ee4:	5d                   	pop    %rbp
    5ee5:	c3                   	retq   

0000000000005ee6 <safe_mul_func_uint32_t_u_u>:
    5ee6:	f3 0f 1e fa          	endbr64 
    5eea:	55                   	push   %rbp
    5eeb:	48 89 e5             	mov    %rsp,%rbp
    5eee:	89 7d fc             	mov    %edi,-0x4(%rbp)
    5ef1:	89 75 f8             	mov    %esi,-0x8(%rbp)
    5ef4:	8b 45 fc             	mov    -0x4(%rbp),%eax
    5ef7:	0f af 45 f8          	imul   -0x8(%rbp),%eax
    5efb:	5d                   	pop    %rbp
    5efc:	c3                   	retq   

0000000000005efd <safe_mod_func_uint32_t_u_u>:
    5efd:	f3 0f 1e fa          	endbr64 
    5f01:	55                   	push   %rbp
    5f02:	48 89 e5             	mov    %rsp,%rbp
    5f05:	89 7d fc             	mov    %edi,-0x4(%rbp)
    5f08:	89 75 f8             	mov    %esi,-0x8(%rbp)
    5f0b:	83 7d f8 00          	cmpl   $0x0,-0x8(%rbp)
    5f0f:	74 0f                	je     5f20 <safe_mod_func_uint32_t_u_u+0x23>
    5f11:	8b 45 fc             	mov    -0x4(%rbp),%eax
    5f14:	ba 00 00 00 00       	mov    $0x0,%edx
    5f19:	f7 75 f8             	divl   -0x8(%rbp)
    5f1c:	89 d0                	mov    %edx,%eax
    5f1e:	eb 03                	jmp    5f23 <safe_mod_func_uint32_t_u_u+0x26>
    5f20:	8b 45 fc             	mov    -0x4(%rbp),%eax
    5f23:	5d                   	pop    %rbp
    5f24:	c3                   	retq   

0000000000005f25 <safe_div_func_uint32_t_u_u>:
    5f25:	f3 0f 1e fa          	endbr64 
    5f29:	55                   	push   %rbp
    5f2a:	48 89 e5             	mov    %rsp,%rbp
    5f2d:	89 7d fc             	mov    %edi,-0x4(%rbp)
    5f30:	89 75 f8             	mov    %esi,-0x8(%rbp)
    5f33:	83 7d f8 00          	cmpl   $0x0,-0x8(%rbp)
    5f37:	74 0d                	je     5f46 <safe_div_func_uint32_t_u_u+0x21>
    5f39:	8b 45 fc             	mov    -0x4(%rbp),%eax
    5f3c:	ba 00 00 00 00       	mov    $0x0,%edx
    5f41:	f7 75 f8             	divl   -0x8(%rbp)
    5f44:	eb 03                	jmp    5f49 <safe_div_func_uint32_t_u_u+0x24>
    5f46:	8b 45 fc             	mov    -0x4(%rbp),%eax
    5f49:	5d                   	pop    %rbp
    5f4a:	c3                   	retq   

0000000000005f4b <safe_lshift_func_uint32_t_u_s>:
    5f4b:	f3 0f 1e fa          	endbr64 
    5f4f:	55                   	push   %rbp
    5f50:	48 89 e5             	mov    %rsp,%rbp
    5f53:	89 7d fc             	mov    %edi,-0x4(%rbp)
    5f56:	89 75 f8             	mov    %esi,-0x8(%rbp)
    5f59:	83 7d f8 00          	cmpl   $0x0,-0x8(%rbp)
    5f5d:	78 27                	js     5f86 <safe_lshift_func_uint32_t_u_s+0x3b>
    5f5f:	83 7d f8 1f          	cmpl   $0x1f,-0x8(%rbp)
    5f63:	7f 21                	jg     5f86 <safe_lshift_func_uint32_t_u_s+0x3b>
    5f65:	8b 45 f8             	mov    -0x8(%rbp),%eax
    5f68:	ba ff ff ff ff       	mov    $0xffffffff,%edx
    5f6d:	89 c1                	mov    %eax,%ecx
    5f6f:	d3 ea                	shr    %cl,%edx
    5f71:	89 d0                	mov    %edx,%eax
    5f73:	39 45 fc             	cmp    %eax,-0x4(%rbp)
    5f76:	77 0e                	ja     5f86 <safe_lshift_func_uint32_t_u_s+0x3b>
    5f78:	8b 45 f8             	mov    -0x8(%rbp),%eax
    5f7b:	8b 55 fc             	mov    -0x4(%rbp),%edx
    5f7e:	89 c1                	mov    %eax,%ecx
    5f80:	d3 e2                	shl    %cl,%edx
    5f82:	89 d0                	mov    %edx,%eax
    5f84:	eb 03                	jmp    5f89 <safe_lshift_func_uint32_t_u_s+0x3e>
    5f86:	8b 45 fc             	mov    -0x4(%rbp),%eax
    5f89:	5d                   	pop    %rbp
    5f8a:	c3                   	retq   

0000000000005f8b <safe_lshift_func_uint32_t_u_u>:
    5f8b:	f3 0f 1e fa          	endbr64 
    5f8f:	55                   	push   %rbp
    5f90:	48 89 e5             	mov    %rsp,%rbp
    5f93:	89 7d fc             	mov    %edi,-0x4(%rbp)
    5f96:	89 75 f8             	mov    %esi,-0x8(%rbp)
    5f99:	83 7d f8 1f          	cmpl   $0x1f,-0x8(%rbp)
    5f9d:	77 21                	ja     5fc0 <safe_lshift_func_uint32_t_u_u+0x35>
    5f9f:	8b 45 f8             	mov    -0x8(%rbp),%eax
    5fa2:	ba ff ff ff ff       	mov    $0xffffffff,%edx
    5fa7:	89 c1                	mov    %eax,%ecx
    5fa9:	d3 ea                	shr    %cl,%edx
    5fab:	89 d0                	mov    %edx,%eax
    5fad:	39 45 fc             	cmp    %eax,-0x4(%rbp)
    5fb0:	77 0e                	ja     5fc0 <safe_lshift_func_uint32_t_u_u+0x35>
    5fb2:	8b 45 f8             	mov    -0x8(%rbp),%eax
    5fb5:	8b 55 fc             	mov    -0x4(%rbp),%edx
    5fb8:	89 c1                	mov    %eax,%ecx
    5fba:	d3 e2                	shl    %cl,%edx
    5fbc:	89 d0                	mov    %edx,%eax
    5fbe:	eb 03                	jmp    5fc3 <safe_lshift_func_uint32_t_u_u+0x38>
    5fc0:	8b 45 fc             	mov    -0x4(%rbp),%eax
    5fc3:	5d                   	pop    %rbp
    5fc4:	c3                   	retq   

0000000000005fc5 <safe_rshift_func_uint32_t_u_s>:
    5fc5:	f3 0f 1e fa          	endbr64 
    5fc9:	55                   	push   %rbp
    5fca:	48 89 e5             	mov    %rsp,%rbp
    5fcd:	89 7d fc             	mov    %edi,-0x4(%rbp)
    5fd0:	89 75 f8             	mov    %esi,-0x8(%rbp)
    5fd3:	83 7d f8 00          	cmpl   $0x0,-0x8(%rbp)
    5fd7:	78 14                	js     5fed <safe_rshift_func_uint32_t_u_s+0x28>
    5fd9:	83 7d f8 1f          	cmpl   $0x1f,-0x8(%rbp)
    5fdd:	7f 0e                	jg     5fed <safe_rshift_func_uint32_t_u_s+0x28>
    5fdf:	8b 45 f8             	mov    -0x8(%rbp),%eax
    5fe2:	8b 55 fc             	mov    -0x4(%rbp),%edx
    5fe5:	89 c1                	mov    %eax,%ecx
    5fe7:	d3 ea                	shr    %cl,%edx
    5fe9:	89 d0                	mov    %edx,%eax
    5feb:	eb 03                	jmp    5ff0 <safe_rshift_func_uint32_t_u_s+0x2b>
    5fed:	8b 45 fc             	mov    -0x4(%rbp),%eax
    5ff0:	5d                   	pop    %rbp
    5ff1:	c3                   	retq   

0000000000005ff2 <safe_rshift_func_uint32_t_u_u>:
    5ff2:	f3 0f 1e fa          	endbr64 
    5ff6:	55                   	push   %rbp
    5ff7:	48 89 e5             	mov    %rsp,%rbp
    5ffa:	89 7d fc             	mov    %edi,-0x4(%rbp)
    5ffd:	89 75 f8             	mov    %esi,-0x8(%rbp)
    6000:	83 7d f8 1f          	cmpl   $0x1f,-0x8(%rbp)
    6004:	77 0e                	ja     6014 <safe_rshift_func_uint32_t_u_u+0x22>
    6006:	8b 45 f8             	mov    -0x8(%rbp),%eax
    6009:	8b 55 fc             	mov    -0x4(%rbp),%edx
    600c:	89 c1                	mov    %eax,%ecx
    600e:	d3 ea                	shr    %cl,%edx
    6010:	89 d0                	mov    %edx,%eax
    6012:	eb 03                	jmp    6017 <safe_rshift_func_uint32_t_u_u+0x25>
    6014:	8b 45 fc             	mov    -0x4(%rbp),%eax
    6017:	5d                   	pop    %rbp
    6018:	c3                   	retq   

0000000000006019 <safe_unary_minus_func_uint64_t_u>:
    6019:	f3 0f 1e fa          	endbr64 
    601d:	55                   	push   %rbp
    601e:	48 89 e5             	mov    %rsp,%rbp
    6021:	48 89 7d f8          	mov    %rdi,-0x8(%rbp)
    6025:	48 8b 45 f8          	mov    -0x8(%rbp),%rax
    6029:	48 f7 d8             	neg    %rax
    602c:	5d                   	pop    %rbp
    602d:	c3                   	retq   

000000000000602e <safe_add_func_uint64_t_u_u>:
    602e:	f3 0f 1e fa          	endbr64 
    6032:	55                   	push   %rbp
    6033:	48 89 e5             	mov    %rsp,%rbp
    6036:	48 89 7d f8          	mov    %rdi,-0x8(%rbp)
    603a:	48 89 75 f0          	mov    %rsi,-0x10(%rbp)
    603e:	48 8b 55 f8          	mov    -0x8(%rbp),%rdx
    6042:	48 8b 45 f0          	mov    -0x10(%rbp),%rax
    6046:	48 01 d0             	add    %rdx,%rax
    6049:	5d                   	pop    %rbp
    604a:	c3                   	retq   

000000000000604b <safe_sub_func_uint64_t_u_u>:
    604b:	f3 0f 1e fa          	endbr64 
    604f:	55                   	push   %rbp
    6050:	48 89 e5             	mov    %rsp,%rbp
    6053:	48 89 7d f8          	mov    %rdi,-0x8(%rbp)
    6057:	48 89 75 f0          	mov    %rsi,-0x10(%rbp)
    605b:	48 8b 45 f8          	mov    -0x8(%rbp),%rax
    605f:	48 2b 45 f0          	sub    -0x10(%rbp),%rax
    6063:	5d                   	pop    %rbp
    6064:	c3                   	retq   

0000000000006065 <safe_mul_func_uint64_t_u_u>:
    6065:	f3 0f 1e fa          	endbr64 
    6069:	55                   	push   %rbp
    606a:	48 89 e5             	mov    %rsp,%rbp
    606d:	48 89 7d f8          	mov    %rdi,-0x8(%rbp)
    6071:	48 89 75 f0          	mov    %rsi,-0x10(%rbp)
    6075:	48 8b 45 f8          	mov    -0x8(%rbp),%rax
    6079:	48 0f af 45 f0       	imul   -0x10(%rbp),%rax
    607e:	5d                   	pop    %rbp
    607f:	c3                   	retq   

0000000000006080 <safe_mod_func_uint64_t_u_u>:
    6080:	f3 0f 1e fa          	endbr64 
    6084:	55                   	push   %rbp
    6085:	48 89 e5             	mov    %rsp,%rbp
    6088:	48 89 7d f8          	mov    %rdi,-0x8(%rbp)
    608c:	48 89 75 f0          	mov    %rsi,-0x10(%rbp)
    6090:	48 83 7d f0 00       	cmpq   $0x0,-0x10(%rbp)
    6095:	74 12                	je     60a9 <safe_mod_func_uint64_t_u_u+0x29>
    6097:	48 8b 45 f8          	mov    -0x8(%rbp),%rax
    609b:	ba 00 00 00 00       	mov    $0x0,%edx
    60a0:	48 f7 75 f0          	divq   -0x10(%rbp)
    60a4:	48 89 d0             	mov    %rdx,%rax
    60a7:	eb 04                	jmp    60ad <safe_mod_func_uint64_t_u_u+0x2d>
    60a9:	48 8b 45 f8          	mov    -0x8(%rbp),%rax
    60ad:	5d                   	pop    %rbp
    60ae:	c3                   	retq   

00000000000060af <safe_div_func_uint64_t_u_u>:
    60af:	f3 0f 1e fa          	endbr64 
    60b3:	55                   	push   %rbp
    60b4:	48 89 e5             	mov    %rsp,%rbp
    60b7:	48 89 7d f8          	mov    %rdi,-0x8(%rbp)
    60bb:	48 89 75 f0          	mov    %rsi,-0x10(%rbp)
    60bf:	48 83 7d f0 00       	cmpq   $0x0,-0x10(%rbp)
    60c4:	74 0f                	je     60d5 <safe_div_func_uint64_t_u_u+0x26>
    60c6:	48 8b 45 f8          	mov    -0x8(%rbp),%rax
    60ca:	ba 00 00 00 00       	mov    $0x0,%edx
    60cf:	48 f7 75 f0          	divq   -0x10(%rbp)
    60d3:	eb 04                	jmp    60d9 <safe_div_func_uint64_t_u_u+0x2a>
    60d5:	48 8b 45 f8          	mov    -0x8(%rbp),%rax
    60d9:	5d                   	pop    %rbp
    60da:	c3                   	retq   

00000000000060db <safe_lshift_func_uint64_t_u_s>:
    60db:	f3 0f 1e fa          	endbr64 
    60df:	55                   	push   %rbp
    60e0:	48 89 e5             	mov    %rsp,%rbp
    60e3:	48 89 7d f8          	mov    %rdi,-0x8(%rbp)
    60e7:	89 75 f4             	mov    %esi,-0xc(%rbp)
    60ea:	83 7d f4 00          	cmpl   $0x0,-0xc(%rbp)
    60ee:	78 2f                	js     611f <safe_lshift_func_uint64_t_u_s+0x44>
    60f0:	83 7d f4 1f          	cmpl   $0x1f,-0xc(%rbp)
    60f4:	7f 29                	jg     611f <safe_lshift_func_uint64_t_u_s+0x44>
    60f6:	8b 45 f4             	mov    -0xc(%rbp),%eax
    60f9:	48 c7 c2 ff ff ff ff 	mov    $0xffffffffffffffff,%rdx
    6100:	89 c1                	mov    %eax,%ecx
    6102:	48 d3 ea             	shr    %cl,%rdx
    6105:	48 89 d0             	mov    %rdx,%rax
    6108:	48 39 45 f8          	cmp    %rax,-0x8(%rbp)
    610c:	77 11                	ja     611f <safe_lshift_func_uint64_t_u_s+0x44>
    610e:	8b 45 f4             	mov    -0xc(%rbp),%eax
    6111:	48 8b 55 f8          	mov    -0x8(%rbp),%rdx
    6115:	89 c1                	mov    %eax,%ecx
    6117:	48 d3 e2             	shl    %cl,%rdx
    611a:	48 89 d0             	mov    %rdx,%rax
    611d:	eb 04                	jmp    6123 <safe_lshift_func_uint64_t_u_s+0x48>
    611f:	48 8b 45 f8          	mov    -0x8(%rbp),%rax
    6123:	5d                   	pop    %rbp
    6124:	c3                   	retq   

0000000000006125 <safe_lshift_func_uint64_t_u_u>:
    6125:	f3 0f 1e fa          	endbr64 
    6129:	55                   	push   %rbp
    612a:	48 89 e5             	mov    %rsp,%rbp
    612d:	48 89 7d f8          	mov    %rdi,-0x8(%rbp)
    6131:	89 75 f4             	mov    %esi,-0xc(%rbp)
    6134:	83 7d f4 1f          	cmpl   $0x1f,-0xc(%rbp)
    6138:	77 29                	ja     6163 <safe_lshift_func_uint64_t_u_u+0x3e>
    613a:	8b 45 f4             	mov    -0xc(%rbp),%eax
    613d:	48 c7 c2 ff ff ff ff 	mov    $0xffffffffffffffff,%rdx
    6144:	89 c1                	mov    %eax,%ecx
    6146:	48 d3 ea             	shr    %cl,%rdx
    6149:	48 89 d0             	mov    %rdx,%rax
    614c:	48 39 45 f8          	cmp    %rax,-0x8(%rbp)
    6150:	77 11                	ja     6163 <safe_lshift_func_uint64_t_u_u+0x3e>
    6152:	8b 45 f4             	mov    -0xc(%rbp),%eax
    6155:	48 8b 55 f8          	mov    -0x8(%rbp),%rdx
    6159:	89 c1                	mov    %eax,%ecx
    615b:	48 d3 e2             	shl    %cl,%rdx
    615e:	48 89 d0             	mov    %rdx,%rax
    6161:	eb 04                	jmp    6167 <safe_lshift_func_uint64_t_u_u+0x42>
    6163:	48 8b 45 f8          	mov    -0x8(%rbp),%rax
    6167:	5d                   	pop    %rbp
    6168:	c3                   	retq   

0000000000006169 <safe_rshift_func_uint64_t_u_s>:
    6169:	f3 0f 1e fa          	endbr64 
    616d:	55                   	push   %rbp
    616e:	48 89 e5             	mov    %rsp,%rbp
    6171:	48 89 7d f8          	mov    %rdi,-0x8(%rbp)
    6175:	89 75 f4             	mov    %esi,-0xc(%rbp)
    6178:	83 7d f4 00          	cmpl   $0x0,-0xc(%rbp)
    617c:	78 17                	js     6195 <safe_rshift_func_uint64_t_u_s+0x2c>
    617e:	83 7d f4 1f          	cmpl   $0x1f,-0xc(%rbp)
    6182:	7f 11                	jg     6195 <safe_rshift_func_uint64_t_u_s+0x2c>
    6184:	8b 45 f4             	mov    -0xc(%rbp),%eax
    6187:	48 8b 55 f8          	mov    -0x8(%rbp),%rdx
    618b:	89 c1                	mov    %eax,%ecx
    618d:	48 d3 ea             	shr    %cl,%rdx
    6190:	48 89 d0             	mov    %rdx,%rax
    6193:	eb 04                	jmp    6199 <safe_rshift_func_uint64_t_u_s+0x30>
    6195:	48 8b 45 f8          	mov    -0x8(%rbp),%rax
    6199:	5d                   	pop    %rbp
    619a:	c3                   	retq   

000000000000619b <safe_rshift_func_uint64_t_u_u>:
    619b:	f3 0f 1e fa          	endbr64 
    619f:	55                   	push   %rbp
    61a0:	48 89 e5             	mov    %rsp,%rbp
    61a3:	48 89 7d f8          	mov    %rdi,-0x8(%rbp)
    61a7:	89 75 f4             	mov    %esi,-0xc(%rbp)
    61aa:	83 7d f4 1f          	cmpl   $0x1f,-0xc(%rbp)
    61ae:	77 11                	ja     61c1 <safe_rshift_func_uint64_t_u_u+0x26>
    61b0:	8b 45 f4             	mov    -0xc(%rbp),%eax
    61b3:	48 8b 55 f8          	mov    -0x8(%rbp),%rdx
    61b7:	89 c1                	mov    %eax,%ecx
    61b9:	48 d3 ea             	shr    %cl,%rdx
    61bc:	48 89 d0             	mov    %rdx,%rax
    61bf:	eb 04                	jmp    61c5 <safe_rshift_func_uint64_t_u_u+0x2a>
    61c1:	48 8b 45 f8          	mov    -0x8(%rbp),%rax
    61c5:	5d                   	pop    %rbp
    61c6:	c3                   	retq   

00000000000061c7 <safe_add_func_float_f_f>:
    61c7:	f3 0f 1e fa          	endbr64 
    61cb:	55                   	push   %rbp
    61cc:	48 89 e5             	mov    %rsp,%rbp
    61cf:	f3 0f 11 45 fc       	movss  %xmm0,-0x4(%rbp)
    61d4:	f3 0f 11 4d f8       	movss  %xmm1,-0x8(%rbp)
    61d9:	f3 0f 10 4d fc       	movss  -0x4(%rbp),%xmm1
    61de:	f3 0f 10 05 e2 99 00 	movss  0x99e2(%rip),%xmm0        # fbc8 <l_1536.4184+0x168>
    61e5:	00 
    61e6:	f3 0f 59 c8          	mulss  %xmm0,%xmm1
    61ea:	f3 0f 10 55 f8       	movss  -0x8(%rbp),%xmm2
    61ef:	f3 0f 10 05 d1 99 00 	movss  0x99d1(%rip),%xmm0        # fbc8 <l_1536.4184+0x168>
    61f6:	00 
    61f7:	f3 0f 59 c2          	mulss  %xmm2,%xmm0
    61fb:	f3 0f 58 c1          	addss  %xmm1,%xmm0
    61ff:	f3 0f 10 0d c9 99 00 	movss  0x99c9(%rip),%xmm1        # fbd0 <l_1536.4184+0x170>
    6206:	00 
    6207:	0f 54 c1             	andps  %xmm1,%xmm0
    620a:	0f 2f 05 cf 99 00 00 	comiss 0x99cf(%rip),%xmm0        # fbe0 <l_1536.4184+0x180>
    6211:	76 07                	jbe    621a <safe_add_func_float_f_f+0x53>
    6213:	f3 0f 10 45 fc       	movss  -0x4(%rbp),%xmm0
    6218:	eb 0a                	jmp    6224 <safe_add_func_float_f_f+0x5d>
    621a:	f3 0f 10 45 fc       	movss  -0x4(%rbp),%xmm0
    621f:	f3 0f 58 45 f8       	addss  -0x8(%rbp),%xmm0
    6224:	5d                   	pop    %rbp
    6225:	c3                   	retq   

0000000000006226 <safe_sub_func_float_f_f>:
    6226:	f3 0f 1e fa          	endbr64 
    622a:	55                   	push   %rbp
    622b:	48 89 e5             	mov    %rsp,%rbp
    622e:	f3 0f 11 45 fc       	movss  %xmm0,-0x4(%rbp)
    6233:	f3 0f 11 4d f8       	movss  %xmm1,-0x8(%rbp)
    6238:	f3 0f 10 4d fc       	movss  -0x4(%rbp),%xmm1
    623d:	f3 0f 10 05 83 99 00 	movss  0x9983(%rip),%xmm0        # fbc8 <l_1536.4184+0x168>
    6244:	00 
    6245:	f3 0f 59 c1          	mulss  %xmm1,%xmm0
    6249:	f3 0f 10 55 f8       	movss  -0x8(%rbp),%xmm2
    624e:	f3 0f 10 0d 72 99 00 	movss  0x9972(%rip),%xmm1        # fbc8 <l_1536.4184+0x168>
    6255:	00 
    6256:	f3 0f 59 ca          	mulss  %xmm2,%xmm1
    625a:	f3 0f 5c c1          	subss  %xmm1,%xmm0
    625e:	f3 0f 10 0d 6a 99 00 	movss  0x996a(%rip),%xmm1        # fbd0 <l_1536.4184+0x170>
    6265:	00 
    6266:	0f 54 c1             	andps  %xmm1,%xmm0
    6269:	0f 2f 05 70 99 00 00 	comiss 0x9970(%rip),%xmm0        # fbe0 <l_1536.4184+0x180>
    6270:	76 07                	jbe    6279 <safe_sub_func_float_f_f+0x53>
    6272:	f3 0f 10 45 fc       	movss  -0x4(%rbp),%xmm0
    6277:	eb 0a                	jmp    6283 <safe_sub_func_float_f_f+0x5d>
    6279:	f3 0f 10 45 fc       	movss  -0x4(%rbp),%xmm0
    627e:	f3 0f 5c 45 f8       	subss  -0x8(%rbp),%xmm0
    6283:	5d                   	pop    %rbp
    6284:	c3                   	retq   

0000000000006285 <safe_mul_func_float_f_f>:
    6285:	f3 0f 1e fa          	endbr64 
    6289:	55                   	push   %rbp
    628a:	48 89 e5             	mov    %rsp,%rbp
    628d:	f3 0f 11 45 fc       	movss  %xmm0,-0x4(%rbp)
    6292:	f3 0f 11 4d f8       	movss  %xmm1,-0x8(%rbp)
    6297:	f3 0f 10 4d fc       	movss  -0x4(%rbp),%xmm1
    629c:	f3 0f 10 05 40 99 00 	movss  0x9940(%rip),%xmm0        # fbe4 <l_1536.4184+0x184>
    62a3:	00 
    62a4:	f3 0f 59 c8          	mulss  %xmm0,%xmm1
    62a8:	f3 0f 10 55 f8       	movss  -0x8(%rbp),%xmm2
    62ad:	f3 0f 10 05 33 99 00 	movss  0x9933(%rip),%xmm0        # fbe8 <l_1536.4184+0x188>
    62b4:	00 
    62b5:	f3 0f 59 c2          	mulss  %xmm2,%xmm0
    62b9:	f3 0f 59 c1          	mulss  %xmm1,%xmm0
    62bd:	f3 0f 10 0d 0b 99 00 	movss  0x990b(%rip),%xmm1        # fbd0 <l_1536.4184+0x170>
    62c4:	00 
    62c5:	0f 54 c1             	andps  %xmm1,%xmm0
    62c8:	0f 2f 05 1d 99 00 00 	comiss 0x991d(%rip),%xmm0        # fbec <l_1536.4184+0x18c>
    62cf:	76 07                	jbe    62d8 <safe_mul_func_float_f_f+0x53>
    62d1:	f3 0f 10 45 fc       	movss  -0x4(%rbp),%xmm0
    62d6:	eb 0a                	jmp    62e2 <safe_mul_func_float_f_f+0x5d>
    62d8:	f3 0f 10 45 fc       	movss  -0x4(%rbp),%xmm0
    62dd:	f3 0f 59 45 f8       	mulss  -0x8(%rbp),%xmm0
    62e2:	5d                   	pop    %rbp
    62e3:	c3                   	retq   

00000000000062e4 <safe_div_func_float_f_f>:
    62e4:	f3 0f 1e fa          	endbr64 
    62e8:	55                   	push   %rbp
    62e9:	48 89 e5             	mov    %rsp,%rbp
    62ec:	f3 0f 11 45 fc       	movss  %xmm0,-0x4(%rbp)
    62f1:	f3 0f 11 4d f8       	movss  %xmm1,-0x8(%rbp)
    62f6:	f3 0f 10 45 f8       	movss  -0x8(%rbp),%xmm0
    62fb:	f3 0f 10 0d cd 98 00 	movss  0x98cd(%rip),%xmm1        # fbd0 <l_1536.4184+0x170>
    6302:	00 
    6303:	0f 54 c8             	andps  %xmm0,%xmm1
    6306:	f3 0f 10 05 e2 98 00 	movss  0x98e2(%rip),%xmm0        # fbf0 <l_1536.4184+0x190>
    630d:	00 
    630e:	0f 2f c1             	comiss %xmm1,%xmm0
    6311:	0f 97 c0             	seta   %al
    6314:	83 f0 01             	xor    $0x1,%eax
    6317:	84 c0                	test   %al,%al
    6319:	75 56                	jne    6371 <safe_div_func_float_f_f+0x8d>
    631b:	66 0f ef c0          	pxor   %xmm0,%xmm0
    631f:	0f 2e 45 f8          	ucomiss -0x8(%rbp),%xmm0
    6323:	7a 0a                	jp     632f <safe_div_func_float_f_f+0x4b>
    6325:	66 0f ef c0          	pxor   %xmm0,%xmm0
    6329:	0f 2e 45 f8          	ucomiss -0x8(%rbp),%xmm0
    632d:	74 4e                	je     637d <safe_div_func_float_f_f+0x99>
    632f:	f3 0f 10 4d fc       	movss  -0x4(%rbp),%xmm1
    6334:	f3 0f 10 05 b8 98 00 	movss  0x98b8(%rip),%xmm0        # fbf4 <l_1536.4184+0x194>
    633b:	00 
    633c:	f3 0f 59 c1          	mulss  %xmm1,%xmm0
    6340:	f3 0f 10 55 f8       	movss  -0x8(%rbp),%xmm2
    6345:	f3 0f 10 0d ab 98 00 	movss  0x98ab(%rip),%xmm1        # fbf8 <l_1536.4184+0x198>
    634c:	00 
    634d:	f3 0f 59 ca          	mulss  %xmm2,%xmm1
    6351:	f3 0f 5e c1          	divss  %xmm1,%xmm0
    6355:	f3 0f 10 0d 73 98 00 	movss  0x9873(%rip),%xmm1        # fbd0 <l_1536.4184+0x170>
    635c:	00 
    635d:	0f 54 c1             	andps  %xmm1,%xmm0
    6360:	0f 2f 05 95 98 00 00 	comiss 0x9895(%rip),%xmm0        # fbfc <l_1536.4184+0x19c>
    6367:	0f 97 c0             	seta   %al
    636a:	83 f0 01             	xor    $0x1,%eax
    636d:	84 c0                	test   %al,%al
    636f:	74 0c                	je     637d <safe_div_func_float_f_f+0x99>
    6371:	f3 0f 10 45 fc       	movss  -0x4(%rbp),%xmm0
    6376:	f3 0f 5e 45 f8       	divss  -0x8(%rbp),%xmm0
    637b:	eb 05                	jmp    6382 <safe_div_func_float_f_f+0x9e>
    637d:	f3 0f 10 45 fc       	movss  -0x4(%rbp),%xmm0
    6382:	5d                   	pop    %rbp
    6383:	c3                   	retq   

0000000000006384 <safe_add_func_double_f_f>:
    6384:	f3 0f 1e fa          	endbr64 
    6388:	55                   	push   %rbp
    6389:	48 89 e5             	mov    %rsp,%rbp
    638c:	f2 0f 11 45 f8       	movsd  %xmm0,-0x8(%rbp)
    6391:	f2 0f 11 4d f0       	movsd  %xmm1,-0x10(%rbp)
    6396:	f2 0f 10 4d f8       	movsd  -0x8(%rbp),%xmm1
    639b:	f2 0f 10 05 5d 98 00 	movsd  0x985d(%rip),%xmm0        # fc00 <l_1536.4184+0x1a0>
    63a2:	00 
    63a3:	f2 0f 59 c8          	mulsd  %xmm0,%xmm1
    63a7:	f2 0f 10 55 f0       	movsd  -0x10(%rbp),%xmm2
    63ac:	f2 0f 10 05 4c 98 00 	movsd  0x984c(%rip),%xmm0        # fc00 <l_1536.4184+0x1a0>
    63b3:	00 
    63b4:	f2 0f 59 c2          	mulsd  %xmm2,%xmm0
    63b8:	f2 0f 58 c1          	addsd  %xmm1,%xmm0
    63bc:	f3 0f 7e 0d 4c 98 00 	movq   0x984c(%rip),%xmm1        # fc10 <l_1536.4184+0x1b0>
    63c3:	00 
    63c4:	66 0f 54 c1          	andpd  %xmm1,%xmm0
    63c8:	66 0f 2f 05 50 98 00 	comisd 0x9850(%rip),%xmm0        # fc20 <l_1536.4184+0x1c0>
    63cf:	00 
    63d0:	76 07                	jbe    63d9 <safe_add_func_double_f_f+0x55>
    63d2:	f2 0f 10 45 f8       	movsd  -0x8(%rbp),%xmm0
    63d7:	eb 0a                	jmp    63e3 <safe_add_func_double_f_f+0x5f>
    63d9:	f2 0f 10 45 f8       	movsd  -0x8(%rbp),%xmm0
    63de:	f2 0f 58 45 f0       	addsd  -0x10(%rbp),%xmm0
    63e3:	5d                   	pop    %rbp
    63e4:	c3                   	retq   

00000000000063e5 <safe_sub_func_double_f_f>:
    63e5:	f3 0f 1e fa          	endbr64 
    63e9:	55                   	push   %rbp
    63ea:	48 89 e5             	mov    %rsp,%rbp
    63ed:	f2 0f 11 45 f8       	movsd  %xmm0,-0x8(%rbp)
    63f2:	f2 0f 11 4d f0       	movsd  %xmm1,-0x10(%rbp)
    63f7:	f2 0f 10 4d f8       	movsd  -0x8(%rbp),%xmm1
    63fc:	f2 0f 10 05 fc 97 00 	movsd  0x97fc(%rip),%xmm0        # fc00 <l_1536.4184+0x1a0>
    6403:	00 
    6404:	f2 0f 59 c1          	mulsd  %xmm1,%xmm0
    6408:	f2 0f 10 55 f0       	movsd  -0x10(%rbp),%xmm2
    640d:	f2 0f 10 0d eb 97 00 	movsd  0x97eb(%rip),%xmm1        # fc00 <l_1536.4184+0x1a0>
    6414:	00 
    6415:	f2 0f 59 ca          	mulsd  %xmm2,%xmm1
    6419:	f2 0f 5c c1          	subsd  %xmm1,%xmm0
    641d:	f3 0f 7e 0d eb 97 00 	movq   0x97eb(%rip),%xmm1        # fc10 <l_1536.4184+0x1b0>
    6424:	00 
    6425:	66 0f 54 c1          	andpd  %xmm1,%xmm0
    6429:	66 0f 2f 05 ef 97 00 	comisd 0x97ef(%rip),%xmm0        # fc20 <l_1536.4184+0x1c0>
    6430:	00 
    6431:	76 07                	jbe    643a <safe_sub_func_double_f_f+0x55>
    6433:	f2 0f 10 45 f8       	movsd  -0x8(%rbp),%xmm0
    6438:	eb 0a                	jmp    6444 <safe_sub_func_double_f_f+0x5f>
    643a:	f2 0f 10 45 f8       	movsd  -0x8(%rbp),%xmm0
    643f:	f2 0f 5c 45 f0       	subsd  -0x10(%rbp),%xmm0
    6444:	5d                   	pop    %rbp
    6445:	c3                   	retq   

0000000000006446 <safe_mul_func_double_f_f>:
    6446:	f3 0f 1e fa          	endbr64 
    644a:	55                   	push   %rbp
    644b:	48 89 e5             	mov    %rsp,%rbp
    644e:	f2 0f 11 45 f8       	movsd  %xmm0,-0x8(%rbp)
    6453:	f2 0f 11 4d f0       	movsd  %xmm1,-0x10(%rbp)
    6458:	f2 0f 10 4d f8       	movsd  -0x8(%rbp),%xmm1
    645d:	f2 0f 10 05 c3 97 00 	movsd  0x97c3(%rip),%xmm0        # fc28 <l_1536.4184+0x1c8>
    6464:	00 
    6465:	f2 0f 59 c8          	mulsd  %xmm0,%xmm1
    6469:	f2 0f 10 55 f0       	movsd  -0x10(%rbp),%xmm2
    646e:	f2 0f 10 05 ba 97 00 	movsd  0x97ba(%rip),%xmm0        # fc30 <l_1536.4184+0x1d0>
    6475:	00 
    6476:	f2 0f 59 c2          	mulsd  %xmm2,%xmm0
    647a:	f2 0f 59 c1          	mulsd  %xmm1,%xmm0
    647e:	f3 0f 7e 0d 8a 97 00 	movq   0x978a(%rip),%xmm1        # fc10 <l_1536.4184+0x1b0>
    6485:	00 
    6486:	66 0f 54 c1          	andpd  %xmm1,%xmm0
    648a:	66 0f 2f 05 a6 97 00 	comisd 0x97a6(%rip),%xmm0        # fc38 <l_1536.4184+0x1d8>
    6491:	00 
    6492:	76 07                	jbe    649b <safe_mul_func_double_f_f+0x55>
    6494:	f2 0f 10 45 f8       	movsd  -0x8(%rbp),%xmm0
    6499:	eb 0a                	jmp    64a5 <safe_mul_func_double_f_f+0x5f>
    649b:	f2 0f 10 45 f8       	movsd  -0x8(%rbp),%xmm0
    64a0:	f2 0f 59 45 f0       	mulsd  -0x10(%rbp),%xmm0
    64a5:	5d                   	pop    %rbp
    64a6:	c3                   	retq   

00000000000064a7 <safe_div_func_double_f_f>:
    64a7:	f3 0f 1e fa          	endbr64 
    64ab:	55                   	push   %rbp
    64ac:	48 89 e5             	mov    %rsp,%rbp
    64af:	f2 0f 11 45 f8       	movsd  %xmm0,-0x8(%rbp)
    64b4:	f2 0f 11 4d f0       	movsd  %xmm1,-0x10(%rbp)
    64b9:	f2 0f 10 45 f0       	movsd  -0x10(%rbp),%xmm0
    64be:	f3 0f 7e 0d 4a 97 00 	movq   0x974a(%rip),%xmm1        # fc10 <l_1536.4184+0x1b0>
    64c5:	00 
    64c6:	66 0f 54 c8          	andpd  %xmm0,%xmm1
    64ca:	f2 0f 10 05 6e 97 00 	movsd  0x976e(%rip),%xmm0        # fc40 <l_1536.4184+0x1e0>
    64d1:	00 
    64d2:	66 0f 2f c1          	comisd %xmm1,%xmm0
    64d6:	0f 97 c0             	seta   %al
    64d9:	83 f0 01             	xor    $0x1,%eax
    64dc:	84 c0                	test   %al,%al
    64de:	75 5a                	jne    653a <safe_div_func_double_f_f+0x93>
    64e0:	66 0f ef c0          	pxor   %xmm0,%xmm0
    64e4:	66 0f 2e 45 f0       	ucomisd -0x10(%rbp),%xmm0
    64e9:	7a 0b                	jp     64f6 <safe_div_func_double_f_f+0x4f>
    64eb:	66 0f ef c0          	pxor   %xmm0,%xmm0
    64ef:	66 0f 2e 45 f0       	ucomisd -0x10(%rbp),%xmm0
    64f4:	74 50                	je     6546 <safe_div_func_double_f_f+0x9f>
    64f6:	f2 0f 10 4d f8       	movsd  -0x8(%rbp),%xmm1
    64fb:	f2 0f 10 05 45 97 00 	movsd  0x9745(%rip),%xmm0        # fc48 <l_1536.4184+0x1e8>
    6502:	00 
    6503:	f2 0f 59 c1          	mulsd  %xmm1,%xmm0
    6507:	f2 0f 10 55 f0       	movsd  -0x10(%rbp),%xmm2
    650c:	f2 0f 10 0d 3c 97 00 	movsd  0x973c(%rip),%xmm1        # fc50 <l_1536.4184+0x1f0>
    6513:	00 
    6514:	f2 0f 59 ca          	mulsd  %xmm2,%xmm1
    6518:	f2 0f 5e c1          	divsd  %xmm1,%xmm0
    651c:	f3 0f 7e 0d ec 96 00 	movq   0x96ec(%rip),%xmm1        # fc10 <l_1536.4184+0x1b0>
    6523:	00 
    6524:	66 0f 54 c1          	andpd  %xmm1,%xmm0
    6528:	66 0f 2f 05 28 97 00 	comisd 0x9728(%rip),%xmm0        # fc58 <l_1536.4184+0x1f8>
    652f:	00 
    6530:	0f 97 c0             	seta   %al
    6533:	83 f0 01             	xor    $0x1,%eax
    6536:	84 c0                	test   %al,%al
    6538:	74 0c                	je     6546 <safe_div_func_double_f_f+0x9f>
    653a:	f2 0f 10 45 f8       	movsd  -0x8(%rbp),%xmm0
    653f:	f2 0f 5e 45 f0       	divsd  -0x10(%rbp),%xmm0
    6544:	eb 05                	jmp    654b <safe_div_func_double_f_f+0xa4>
    6546:	f2 0f 10 45 f8       	movsd  -0x8(%rbp),%xmm0
    654b:	5d                   	pop    %rbp
    654c:	c3                   	retq   

000000000000654d <safe_convert_func_float_to_int32_t>:
    654d:	f3 0f 1e fa          	endbr64 
    6551:	55                   	push   %rbp
    6552:	48 89 e5             	mov    %rsp,%rbp
    6555:	f3 0f 11 45 fc       	movss  %xmm0,-0x4(%rbp)
    655a:	f3 0f 10 05 fe 96 00 	movss  0x96fe(%rip),%xmm0        # fc60 <l_1536.4184+0x200>
    6561:	00 
    6562:	0f 2f 45 fc          	comiss -0x4(%rbp),%xmm0
    6566:	0f 93 c0             	setae  %al
    6569:	83 f0 01             	xor    $0x1,%eax
    656c:	84 c0                	test   %al,%al
    656e:	74 21                	je     6591 <safe_convert_func_float_to_int32_t+0x44>
    6570:	f3 0f 10 45 fc       	movss  -0x4(%rbp),%xmm0
    6575:	0f 2f 05 e8 96 00 00 	comiss 0x96e8(%rip),%xmm0        # fc64 <l_1536.4184+0x204>
    657c:	0f 93 c0             	setae  %al
    657f:	83 f0 01             	xor    $0x1,%eax
    6582:	84 c0                	test   %al,%al
    6584:	74 0b                	je     6591 <safe_convert_func_float_to_int32_t+0x44>
    6586:	f3 0f 10 45 fc       	movss  -0x4(%rbp),%xmm0
    658b:	f3 0f 2c c0          	cvttss2si %xmm0,%eax
    658f:	eb 05                	jmp    6596 <safe_convert_func_float_to_int32_t+0x49>
    6591:	b8 ff ff ff 7f       	mov    $0x7fffffff,%eax
    6596:	5d                   	pop    %rbp
    6597:	c3                   	retq   

0000000000006598 <crc32_gentab>:
    6598:	f3 0f 1e fa          	endbr64 
    659c:	55                   	push   %rbp
    659d:	48 89 e5             	mov    %rsp,%rbp
    65a0:	c7 45 fc 20 83 b8 ed 	movl   $0xedb88320,-0x4(%rbp)
    65a7:	c7 45 f4 00 00 00 00 	movl   $0x0,-0xc(%rbp)
    65ae:	eb 51                	jmp    6601 <crc32_gentab+0x69>
    65b0:	8b 45 f4             	mov    -0xc(%rbp),%eax
    65b3:	89 45 f0             	mov    %eax,-0x10(%rbp)
    65b6:	c7 45 f8 08 00 00 00 	movl   $0x8,-0x8(%rbp)
    65bd:	eb 1e                	jmp    65dd <crc32_gentab+0x45>
    65bf:	8b 45 f0             	mov    -0x10(%rbp),%eax
    65c2:	83 e0 01             	and    $0x1,%eax
    65c5:	85 c0                	test   %eax,%eax
    65c7:	74 0d                	je     65d6 <crc32_gentab+0x3e>
    65c9:	8b 45 f0             	mov    -0x10(%rbp),%eax
    65cc:	d1 e8                	shr    %eax
    65ce:	33 45 fc             	xor    -0x4(%rbp),%eax
    65d1:	89 45 f0             	mov    %eax,-0x10(%rbp)
    65d4:	eb 03                	jmp    65d9 <crc32_gentab+0x41>
    65d6:	d1 6d f0             	shrl   -0x10(%rbp)
    65d9:	83 6d f8 01          	subl   $0x1,-0x8(%rbp)
    65dd:	83 7d f8 00          	cmpl   $0x0,-0x8(%rbp)
    65e1:	7f dc                	jg     65bf <crc32_gentab+0x27>
    65e3:	8b 45 f4             	mov    -0xc(%rbp),%eax
    65e6:	48 98                	cltq   
    65e8:	48 8d 0c 85 00 00 00 	lea    0x0(,%rax,4),%rcx
    65ef:	00 
    65f0:	48 8d 15 29 f3 00 00 	lea    0xf329(%rip),%rdx        # 15920 <crc32_tab>
    65f7:	8b 45 f0             	mov    -0x10(%rbp),%eax
    65fa:	89 04 11             	mov    %eax,(%rcx,%rdx,1)
    65fd:	83 45 f4 01          	addl   $0x1,-0xc(%rbp)
    6601:	81 7d f4 ff 00 00 00 	cmpl   $0xff,-0xc(%rbp)
    6608:	7e a6                	jle    65b0 <crc32_gentab+0x18>
    660a:	90                   	nop
    660b:	90                   	nop
    660c:	5d                   	pop    %rbp
    660d:	c3                   	retq   

000000000000660e <crc32_byte>:
    660e:	f3 0f 1e fa          	endbr64 
    6612:	55                   	push   %rbp
    6613:	48 89 e5             	mov    %rsp,%rbp
    6616:	89 f8                	mov    %edi,%eax
    6618:	88 45 fc             	mov    %al,-0x4(%rbp)
    661b:	8b 05 ff c9 00 00    	mov    0xc9ff(%rip),%eax        # 13020 <crc32_context>
    6621:	c1 e8 08             	shr    $0x8,%eax
    6624:	89 c1                	mov    %eax,%ecx
    6626:	0f b6 55 fc          	movzbl -0x4(%rbp),%edx
    662a:	8b 05 f0 c9 00 00    	mov    0xc9f0(%rip),%eax        # 13020 <crc32_context>
    6630:	31 d0                	xor    %edx,%eax
    6632:	0f b6 c0             	movzbl %al,%eax
    6635:	89 c0                	mov    %eax,%eax
    6637:	48 8d 14 85 00 00 00 	lea    0x0(,%rax,4),%rdx
    663e:	00 
    663f:	48 8d 05 da f2 00 00 	lea    0xf2da(%rip),%rax        # 15920 <crc32_tab>
    6646:	8b 04 02             	mov    (%rdx,%rax,1),%eax
    6649:	31 c8                	xor    %ecx,%eax
    664b:	89 05 cf c9 00 00    	mov    %eax,0xc9cf(%rip)        # 13020 <crc32_context>
    6651:	90                   	nop
    6652:	5d                   	pop    %rbp
    6653:	c3                   	retq   

0000000000006654 <crc32_8bytes>:
    6654:	f3 0f 1e fa          	endbr64 
    6658:	55                   	push   %rbp
    6659:	48 89 e5             	mov    %rsp,%rbp
    665c:	48 83 ec 08          	sub    $0x8,%rsp
    6660:	48 89 7d f8          	mov    %rdi,-0x8(%rbp)
    6664:	48 8b 45 f8          	mov    -0x8(%rbp),%rax
    6668:	0f b6 c0             	movzbl %al,%eax
    666b:	89 c7                	mov    %eax,%edi
    666d:	e8 9c ff ff ff       	callq  660e <crc32_byte>
    6672:	48 8b 45 f8          	mov    -0x8(%rbp),%rax
    6676:	48 c1 e8 08          	shr    $0x8,%rax
    667a:	0f b6 c0             	movzbl %al,%eax
    667d:	89 c7                	mov    %eax,%edi
    667f:	e8 8a ff ff ff       	callq  660e <crc32_byte>
    6684:	48 8b 45 f8          	mov    -0x8(%rbp),%rax
    6688:	48 c1 e8 10          	shr    $0x10,%rax
    668c:	0f b6 c0             	movzbl %al,%eax
    668f:	89 c7                	mov    %eax,%edi
    6691:	e8 78 ff ff ff       	callq  660e <crc32_byte>
    6696:	48 8b 45 f8          	mov    -0x8(%rbp),%rax
    669a:	48 c1 e8 18          	shr    $0x18,%rax
    669e:	0f b6 c0             	movzbl %al,%eax
    66a1:	89 c7                	mov    %eax,%edi
    66a3:	e8 66 ff ff ff       	callq  660e <crc32_byte>
    66a8:	48 8b 45 f8          	mov    -0x8(%rbp),%rax
    66ac:	48 c1 e8 20          	shr    $0x20,%rax
    66b0:	0f b6 c0             	movzbl %al,%eax
    66b3:	89 c7                	mov    %eax,%edi
    66b5:	e8 54 ff ff ff       	callq  660e <crc32_byte>
    66ba:	48 8b 45 f8          	mov    -0x8(%rbp),%rax
    66be:	48 c1 e8 28          	shr    $0x28,%rax
    66c2:	0f b6 c0             	movzbl %al,%eax
    66c5:	89 c7                	mov    %eax,%edi
    66c7:	e8 42 ff ff ff       	callq  660e <crc32_byte>
    66cc:	48 8b 45 f8          	mov    -0x8(%rbp),%rax
    66d0:	48 c1 e8 30          	shr    $0x30,%rax
    66d4:	0f b6 c0             	movzbl %al,%eax
    66d7:	89 c7                	mov    %eax,%edi
    66d9:	e8 30 ff ff ff       	callq  660e <crc32_byte>
    66de:	48 8b 45 f8          	mov    -0x8(%rbp),%rax
    66e2:	48 c1 e8 38          	shr    $0x38,%rax
    66e6:	0f b6 c0             	movzbl %al,%eax
    66e9:	89 c7                	mov    %eax,%edi
    66eb:	e8 1e ff ff ff       	callq  660e <crc32_byte>
    66f0:	90                   	nop
    66f1:	c9                   	leaveq 
    66f2:	c3                   	retq   

00000000000066f3 <transparent_crc>:
    66f3:	f3 0f 1e fa          	endbr64 
    66f7:	55                   	push   %rbp
    66f8:	48 89 e5             	mov    %rsp,%rbp
    66fb:	48 83 ec 20          	sub    $0x20,%rsp
    66ff:	48 89 7d f8          	mov    %rdi,-0x8(%rbp)
    6703:	48 89 75 f0          	mov    %rsi,-0x10(%rbp)
    6707:	89 55 ec             	mov    %edx,-0x14(%rbp)
    670a:	48 8b 45 f8          	mov    -0x8(%rbp),%rax
    670e:	48 89 c7             	mov    %rax,%rdi
    6711:	e8 3e ff ff ff       	callq  6654 <crc32_8bytes>
    6716:	83 7d ec 00          	cmpl   $0x0,-0x14(%rbp)
    671a:	74 22                	je     673e <transparent_crc+0x4b>
    671c:	8b 05 fe c8 00 00    	mov    0xc8fe(%rip),%eax        # 13020 <crc32_context>
    6722:	f7 d0                	not    %eax
    6724:	89 c2                	mov    %eax,%edx
    6726:	48 8b 45 f0          	mov    -0x10(%rbp),%rax
    672a:	48 89 c6             	mov    %rax,%rsi
    672d:	48 8d 3d fc 88 00 00 	lea    0x88fc(%rip),%rdi        # f030 <_IO_stdin_used+0x30>
    6734:	b8 00 00 00 00       	mov    $0x0,%eax
    6739:	e8 42 e9 ff ff       	callq  5080 <printf@plt>
    673e:	90                   	nop
    673f:	c9                   	leaveq 
    6740:	c3                   	retq   

0000000000006741 <transparent_crc_bytes>:
    6741:	f3 0f 1e fa          	endbr64 
    6745:	55                   	push   %rbp
    6746:	48 89 e5             	mov    %rsp,%rbp
    6749:	48 83 ec 30          	sub    $0x30,%rsp
    674d:	48 89 7d e8          	mov    %rdi,-0x18(%rbp)
    6751:	89 75 e4             	mov    %esi,-0x1c(%rbp)
    6754:	48 89 55 d8          	mov    %rdx,-0x28(%rbp)
    6758:	89 4d e0             	mov    %ecx,-0x20(%rbp)
    675b:	c7 45 fc 00 00 00 00 	movl   $0x0,-0x4(%rbp)
    6762:	eb 1e                	jmp    6782 <transparent_crc_bytes+0x41>
    6764:	8b 45 fc             	mov    -0x4(%rbp),%eax
    6767:	48 63 d0             	movslq %eax,%rdx
    676a:	48 8b 45 e8          	mov    -0x18(%rbp),%rax
    676e:	48 01 d0             	add    %rdx,%rax
    6771:	0f b6 00             	movzbl (%rax),%eax
    6774:	0f b6 c0             	movzbl %al,%eax
    6777:	89 c7                	mov    %eax,%edi
    6779:	e8 90 fe ff ff       	callq  660e <crc32_byte>
    677e:	83 45 fc 01          	addl   $0x1,-0x4(%rbp)
    6782:	8b 45 fc             	mov    -0x4(%rbp),%eax
    6785:	3b 45 e4             	cmp    -0x1c(%rbp),%eax
    6788:	7c da                	jl     6764 <transparent_crc_bytes+0x23>
    678a:	83 7d e0 00          	cmpl   $0x0,-0x20(%rbp)
    678e:	74 22                	je     67b2 <transparent_crc_bytes+0x71>
    6790:	8b 05 8a c8 00 00    	mov    0xc88a(%rip),%eax        # 13020 <crc32_context>
    6796:	f7 d0                	not    %eax
    6798:	89 c2                	mov    %eax,%edx
    679a:	48 8b 45 d8          	mov    -0x28(%rbp),%rax
    679e:	48 89 c6             	mov    %rax,%rsi
    67a1:	48 8d 3d 88 88 00 00 	lea    0x8888(%rip),%rdi        # f030 <_IO_stdin_used+0x30>
    67a8:	b8 00 00 00 00       	mov    $0x0,%eax
    67ad:	e8 ce e8 ff ff       	callq  5080 <printf@plt>
    67b2:	90                   	nop
    67b3:	c9                   	leaveq 
    67b4:	c3                   	retq   

00000000000067b5 <func_1>:
    67b5:	f3 0f 1e fa          	endbr64 
    67b9:	55                   	push   %rbp
    67ba:	48 89 e5             	mov    %rsp,%rbp
    67bd:	41 56                	push   %r14
    67bf:	41 55                	push   %r13
    67c1:	41 54                	push   %r12
    67c3:	53                   	push   %rbx
    67c4:	48 81 ec f0 02 00 00 	sub    $0x2f0,%rsp
    67cb:	64 48 8b 04 25 28 00 	mov    %fs:0x28,%rax
    67d2:	00 00 
    67d4:	48 89 45 d8          	mov    %rax,-0x28(%rbp)
    67d8:	31 c0                	xor    %eax,%eax
    67da:	48 8d 05 43 c8 00 00 	lea    0xc843(%rip),%rax        # 13024 <g_3>
    67e1:	48 89 85 f8 fc ff ff 	mov    %rax,-0x308(%rbp)
    67e8:	48 8d 85 00 fd ff ff 	lea    -0x300(%rbp),%rax
    67ef:	48 8d 15 8a 88 00 00 	lea    0x888a(%rip),%rdx        # f080 <g_1342+0x8>
    67f6:	b9 5a 00 00 00       	mov    $0x5a,%ecx
    67fb:	48 89 c7             	mov    %rax,%rdi
    67fe:	48 89 d6             	mov    %rdx,%rsi
    6801:	f3 48 a5             	rep movsq %ds:(%rsi),%es:(%rdi)
    6804:	66 c7 85 f6 fc ff ff 	movw   $0xf2c5,-0x30a(%rbp)
    680b:	c5 f2 
    680d:	48 8b 85 f8 fc ff ff 	mov    -0x308(%rbp),%rax
    6814:	c7 00 ff ff ff ff    	movl   $0xffffffff,(%rax)
    681a:	44 0f b7 a5 f6 fc ff 	movzwl -0x30a(%rbp),%r12d
    6821:	ff 
    6822:	0f b7 9d f6 fc ff ff 	movzwl -0x30a(%rbp),%ebx
    6829:	0f b6 05 24 cd 00 00 	movzbl 0xcd24(%rip),%eax        # 13554 <g_962+0x4>
    6830:	44 0f be e8          	movsbl %al,%r13d
    6834:	8b 05 ea c7 00 00    	mov    0xc7ea(%rip),%eax        # 13024 <g_3>
    683a:	98                   	cwtl   
    683b:	be 0f 00 00 00       	mov    $0xf,%esi
    6840:	89 c7                	mov    %eax,%edi
    6842:	e8 1c ed ff ff       	callq  5563 <safe_rshift_func_int16_t_s_u>
    6847:	0f bf d0             	movswl %ax,%edx
    684a:	48 8b 85 f8 fc ff ff 	mov    -0x308(%rbp),%rax
    6851:	8b 00                	mov    (%rax),%eax
    6853:	3d ea 6f 6b 48       	cmp    $0x486b6fea,%eax
    6858:	0f 9f c0             	setg   %al
    685b:	0f b6 c0             	movzbl %al,%eax
    685e:	39 c2                	cmp    %eax,%edx
    6860:	0f 94 c0             	sete   %al
    6863:	0f b6 d0             	movzbl %al,%edx
    6866:	48 8b 85 f8 fc ff ff 	mov    -0x308(%rbp),%rax
    686d:	8b 00                	mov    (%rax),%eax
    686f:	48 98                	cltq   
    6871:	48 89 d6             	mov    %rdx,%rsi
    6874:	48 89 c7             	mov    %rax,%rdi
    6877:	e8 80 f0 ff ff       	callq  58fc <safe_mul_func_int64_t_s_s>
    687c:	8b 85 84 fe ff ff    	mov    -0x17c(%rbp),%eax
    6882:	41 89 c6             	mov    %eax,%r14d
    6885:	b8 32 7a 30 24       	mov    $0x24307a32,%eax
    688a:	0f b6 d0             	movzbl %al,%edx
    688d:	48 8b 0d c4 f4 00 00 	mov    0xf4c4(%rip),%rcx        # 15d58 <g_33+0x18>
    6894:	48 8b 85 f8 fc ff ff 	mov    -0x308(%rbp),%rax
    689b:	48 89 ce             	mov    %rcx,%rsi
    689e:	48 89 c7             	mov    %rax,%rdi
    68a1:	e8 1b 06 00 00       	callq  6ec1 <func_29>
    68a6:	66 3d 94 34          	cmp    $0x3494,%ax
    68aa:	0f 94 c0             	sete   %al
    68ad:	0f b6 c0             	movzbl %al,%eax
    68b0:	89 c7                	mov    %eax,%edi
    68b2:	e8 fd 03 00 00       	callq  6cb4 <func_27>
    68b7:	44 89 f6             	mov    %r14d,%esi
    68ba:	89 c7                	mov    %eax,%edi
    68bc:	e8 0b ee ff ff       	callq  56cc <safe_mod_func_int32_t_s_s>
    68c1:	0f b6 d0             	movzbl %al,%edx
    68c4:	b8 32 7a 30 24       	mov    $0x24307a32,%eax
    68c9:	0f b6 c0             	movzbl %al,%eax
    68cc:	89 d6                	mov    %edx,%esi
    68ce:	89 c7                	mov    %eax,%edi
    68d0:	e8 be f2 ff ff       	callq  5b93 <safe_mul_func_uint8_t_u_u>
    68d5:	0f b6 d0             	movzbl %al,%edx
    68d8:	8b 0d 46 c7 00 00    	mov    0xc746(%rip),%ecx        # 13024 <g_3>
    68de:	48 8b 85 f8 fc ff ff 	mov    -0x308(%rbp),%rax
    68e5:	89 08                	mov    %ecx,(%rax)
    68e7:	48 8b 85 f8 fc ff ff 	mov    -0x308(%rbp),%rax
    68ee:	8b 00                	mov    (%rax),%eax
    68f0:	0f b7 c0             	movzwl %ax,%eax
    68f3:	89 d6                	mov    %edx,%esi
    68f5:	89 c7                	mov    %eax,%edi
    68f7:	e8 60 f4 ff ff       	callq  5d5c <safe_mod_func_uint16_t_u_u>
    68fc:	48 8b 05 25 cc 00 00 	mov    0xcc25(%rip),%rax        # 13528 <g_720>
    6903:	89 c6                	mov    %eax,%esi
    6905:	bf 01 00 00 00       	mov    $0x1,%edi
    690a:	e8 7e f3 ff ff       	callq  5c8d <safe_rshift_func_uint8_t_u_s>
    690f:	0f be c0             	movsbl %al,%eax
    6912:	44 89 ee             	mov    %r13d,%esi
    6915:	89 c7                	mov    %eax,%edi
    6917:	e8 f6 e8 ff ff       	callq  5212 <safe_mul_func_int8_t_s_s>
    691c:	0f be c0             	movsbl %al,%eax
    691f:	89 c7                	mov    %eax,%edi
    6921:	e8 37 01 00 00       	callq  6a5d <func_10>
    6926:	98                   	cwtl   
    6927:	48 8b 95 f8 fc ff ff 	mov    -0x308(%rbp),%rdx
    692e:	48 89 d1             	mov    %rdx,%rcx
    6931:	44 89 e2             	mov    %r12d,%edx
    6934:	89 de                	mov    %ebx,%esi
    6936:	89 c7                	mov    %eax,%edi
    6938:	e8 4a 00 00 00       	callq  6987 <func_5>
    693d:	48 89 c7             	mov    %rax,%rdi
    6940:	e8 d4 f6 ff ff       	callq  6019 <safe_unary_minus_func_uint64_t_u>
    6945:	89 c2                	mov    %eax,%edx
    6947:	48 8b 85 f8 fc ff ff 	mov    -0x308(%rbp),%rax
    694e:	89 10                	mov    %edx,(%rax)
    6950:	48 8b 05 69 ef 00 00 	mov    0xef69(%rip),%rax        # 158c0 <g_1185>
    6957:	48 8b 00             	mov    (%rax),%rax
    695a:	48 8b 00             	mov    (%rax),%rax
    695d:	48 8b 00             	mov    (%rax),%rax
    6960:	0f b6 00             	movzbl (%rax),%eax
    6963:	48 8b 5d d8          	mov    -0x28(%rbp),%rbx
    6967:	64 48 33 1c 25 28 00 	xor    %fs:0x28,%rbx
    696e:	00 00 
    6970:	74 05                	je     6977 <func_1+0x1c2>
    6972:	e8 f9 e6 ff ff       	callq  5070 <__stack_chk_fail@plt>
    6977:	48 81 c4 f0 02 00 00 	add    $0x2f0,%rsp
    697e:	5b                   	pop    %rbx
    697f:	41 5c                	pop    %r12
    6981:	41 5d                	pop    %r13
    6983:	41 5e                	pop    %r14
    6985:	5d                   	pop    %rbp
    6986:	c3                   	retq   

0000000000006987 <func_5>:
    6987:	f3 0f 1e fa          	endbr64 
    698b:	55                   	push   %rbp
    698c:	48 89 e5             	mov    %rsp,%rbp
    698f:	48 83 ec 40          	sub    $0x40,%rsp
    6993:	89 f8                	mov    %edi,%eax
    6995:	89 75 d8             	mov    %esi,-0x28(%rbp)
    6998:	89 55 d4             	mov    %edx,-0x2c(%rbp)
    699b:	48 89 4d c8          	mov    %rcx,-0x38(%rbp)
    699f:	66 89 45 dc          	mov    %ax,-0x24(%rbp)
    69a3:	64 48 8b 04 25 28 00 	mov    %fs:0x28,%rax
    69aa:	00 00 
    69ac:	48 89 45 f8          	mov    %rax,-0x8(%rbp)
    69b0:	31 c0                	xor    %eax,%eax
    69b2:	c7 45 e0 b1 5b ce 89 	movl   $0x89ce5bb1,-0x20(%rbp)
    69b9:	48 b8 d2 af 6b 26 de 	movabs $0x255e63de266bafd2,%rax
    69c0:	63 5e 25 
    69c3:	48 89 45 e8          	mov    %rax,-0x18(%rbp)
    69c7:	48 c7 05 de c7 00 00 	movq   $0x0,0xc7de(%rip)        # 131b0 <g_482>
    69ce:	00 00 00 00 
    69d2:	eb 62                	jmp    6a36 <func_5+0xaf>
    69d4:	c7 45 e4 00 00 00 00 	movl   $0x0,-0x1c(%rbp)
    69db:	eb 15                	jmp    69f2 <func_5+0x6b>
    69dd:	8b 45 e4             	mov    -0x1c(%rbp),%eax
    69e0:	48 98                	cltq   
    69e2:	48 8d 15 9f c7 00 00 	lea    0xc79f(%rip),%rdx        # 13188 <g_410+0x8>
    69e9:	48 89 54 c5 f0       	mov    %rdx,-0x10(%rbp,%rax,8)
    69ee:	83 45 e4 01          	addl   $0x1,-0x1c(%rbp)
    69f2:	83 7d e4 00          	cmpl   $0x0,-0x1c(%rbp)
    69f6:	7e e5                	jle    69dd <func_5+0x56>
    69f8:	c7 45 d8 ea ff ff ff 	movl   $0xffffffea,-0x28(%rbp)
    69ff:	83 7d d8 08          	cmpl   $0x8,-0x28(%rbp)
    6a03:	7e 12                	jle    6a17 <func_5+0x90>
    6a05:	48 8b 05 f4 e3 00 00 	mov    0xe3f4(%rip),%rax        # 14e00 <g_875>
    6a0c:	48 8b 00             	mov    (%rax),%rax
    6a0f:	48 8b 00             	mov    (%rax),%rax
    6a12:	48 8b 00             	mov    (%rax),%rax
    6a15:	eb 30                	jmp    6a47 <func_5+0xc0>
    6a17:	83 6d e0 01          	subl   $0x1,-0x20(%rbp)
    6a1b:	48 8b 05 8e c7 00 00 	mov    0xc78e(%rip),%rax        # 131b0 <g_482>
    6a22:	be 08 00 00 00       	mov    $0x8,%esi
    6a27:	48 89 c7             	mov    %rax,%rdi
    6a2a:	e8 1c f6 ff ff       	callq  604b <safe_sub_func_uint64_t_u_u>
    6a2f:	48 89 05 7a c7 00 00 	mov    %rax,0xc77a(%rip)        # 131b0 <g_482>
    6a36:	48 8b 05 73 c7 00 00 	mov    0xc773(%rip),%rax        # 131b0 <g_482>
    6a3d:	48 83 f8 e6          	cmp    $0xffffffffffffffe6,%rax
    6a41:	7d 91                	jge    69d4 <func_5+0x4d>
    6a43:	48 8b 45 e8          	mov    -0x18(%rbp),%rax
    6a47:	48 8b 4d f8          	mov    -0x8(%rbp),%rcx
    6a4b:	64 48 33 0c 25 28 00 	xor    %fs:0x28,%rcx
    6a52:	00 00 
    6a54:	74 05                	je     6a5b <func_5+0xd4>
    6a56:	e8 15 e6 ff ff       	callq  5070 <__stack_chk_fail@plt>
    6a5b:	c9                   	leaveq 
    6a5c:	c3                   	retq   

0000000000006a5d <func_10>:
    6a5d:	f3 0f 1e fa          	endbr64 
    6a61:	55                   	push   %rbp
    6a62:	48 89 e5             	mov    %rsp,%rbp
    6a65:	41 56                	push   %r14
    6a67:	41 55                	push   %r13
    6a69:	41 54                	push   %r12
    6a6b:	53                   	push   %rbx
    6a6c:	48 83 c4 80          	add    $0xffffffffffffff80,%rsp
    6a70:	89 bd 6c ff ff ff    	mov    %edi,-0x94(%rbp)
    6a76:	64 48 8b 04 25 28 00 	mov    %fs:0x28,%rax
    6a7d:	00 00 
    6a7f:	48 89 45 d8          	mov    %rax,-0x28(%rbp)
    6a83:	31 c0                	xor    %eax,%eax
    6a85:	c7 45 90 bf 17 a1 db 	movl   $0xdba117bf,-0x70(%rbp)
    6a8c:	c7 45 94 6f 70 28 2a 	movl   $0x2a28706f,-0x6c(%rbp)
    6a93:	c7 45 98 56 51 26 c2 	movl   $0xc2265156,-0x68(%rbp)
    6a9a:	c7 45 9c 6f 70 28 2a 	movl   $0x2a28706f,-0x64(%rbp)
    6aa1:	c7 45 a0 bf 17 a1 db 	movl   $0xdba117bf,-0x60(%rbp)
    6aa8:	c7 45 a4 bf 17 a1 db 	movl   $0xdba117bf,-0x5c(%rbp)
    6aaf:	c7 45 a8 6f 70 28 2a 	movl   $0x2a28706f,-0x58(%rbp)
    6ab6:	c7 45 ac 56 51 26 c2 	movl   $0xc2265156,-0x54(%rbp)
    6abd:	c7 45 b0 6f 70 28 2a 	movl   $0x2a28706f,-0x50(%rbp)
    6ac4:	c7 45 b4 bf 17 a1 db 	movl   $0xdba117bf,-0x4c(%rbp)
    6acb:	c7 45 b8 bf 17 a1 db 	movl   $0xdba117bf,-0x48(%rbp)
    6ad2:	c7 45 bc 6f 70 28 2a 	movl   $0x2a28706f,-0x44(%rbp)
    6ad9:	c7 45 c0 56 51 26 c2 	movl   $0xc2265156,-0x40(%rbp)
    6ae0:	c7 45 c4 6f 70 28 2a 	movl   $0x2a28706f,-0x3c(%rbp)
    6ae7:	c7 45 c8 bf 17 a1 db 	movl   $0xdba117bf,-0x38(%rbp)
    6aee:	c7 85 78 ff ff ff 32 	movl   $0x8cf3e732,-0x88(%rbp)
    6af5:	e7 f3 8c 
    6af8:	c6 05 35 ca 00 00 00 	movb   $0x0,0xca35(%rip)        # 13534 <g_741+0x4>
    6aff:	e9 a7 00 00 00       	jmpq   6bab <func_10+0x14e>
    6b04:	48 8d 05 05 ca 00 00 	lea    0xca05(%rip),%rax        # 13510 <g_510>
    6b0b:	48 89 45 88          	mov    %rax,-0x78(%rbp)
    6b0f:	48 c7 45 80 fe ff ff 	movq   $0xfffffffffffffffe,-0x80(%rbp)
    6b16:	ff 
    6b17:	c7 85 7c ff ff ff 50 	movl   $0x216aed50,-0x84(%rbp)
    6b1e:	ed 6a 21 
    6b21:	48 8b 05 d0 ea 00 00 	mov    0xead0(%rip),%rax        # 155f8 <g_1045>
    6b28:	48 8b 55 88          	mov    -0x78(%rbp),%rdx
    6b2c:	48 89 10             	mov    %rdx,(%rax)
    6b2f:	c7 05 0b c5 00 00 fa 	movl   $0xfffffffa,0xc50b(%rip)        # 13044 <g_126>
    6b36:	ff ff ff 
    6b39:	eb 40                	jmp    6b7b <func_10+0x11e>
    6b3b:	bf ff ff 00 00       	mov    $0xffff,%edi
    6b40:	e8 a4 f1 ff ff       	callq  5ce9 <safe_unary_minus_func_uint16_t_u>
    6b45:	48 8b 05 9c e2 00 00 	mov    0xe29c(%rip),%rax        # 14de8 <g_850>
    6b4c:	48 8b 00             	mov    (%rax),%rax
    6b4f:	c7 00 43 c2 7d 43    	movl   $0x437dc243,(%rax)
    6b55:	8b 00                	mov    (%rax),%eax
    6b57:	48 98                	cltq   
    6b59:	48 21 45 80          	and    %rax,-0x80(%rbp)
    6b5d:	8b 05 e1 c4 00 00    	mov    0xc4e1(%rip),%eax        # 13044 <g_126>
    6b63:	0f be c0             	movsbl %al,%eax
    6b66:	be 01 00 00 00       	mov    $0x1,%esi
    6b6b:	89 c7                	mov    %eax,%edi
    6b6d:	e8 62 e6 ff ff       	callq  51d4 <safe_add_func_int8_t_s_s>
    6b72:	0f be c0             	movsbl %al,%eax
    6b75:	89 05 c9 c4 00 00    	mov    %eax,0xc4c9(%rip)        # 13044 <g_126>
    6b7b:	8b 05 c3 c4 00 00    	mov    0xc4c3(%rip),%eax        # 13044 <g_126>
    6b81:	83 f8 26             	cmp    $0x26,%eax
    6b84:	76 b5                	jbe    6b3b <func_10+0xde>
    6b86:	8b 85 6c ff ff ff    	mov    -0x94(%rbp),%eax
    6b8c:	21 85 7c ff ff ff    	and    %eax,-0x84(%rbp)
    6b92:	83 bd 6c ff ff ff 00 	cmpl   $0x0,-0x94(%rbp)
    6b99:	75 21                	jne    6bbc <func_10+0x15f>
    6b9b:	0f b6 05 92 c9 00 00 	movzbl 0xc992(%rip),%eax        # 13534 <g_741+0x4>
    6ba2:	83 c0 01             	add    $0x1,%eax
    6ba5:	88 05 89 c9 00 00    	mov    %al,0xc989(%rip)        # 13534 <g_741+0x4>
    6bab:	0f b6 05 82 c9 00 00 	movzbl 0xc982(%rip),%eax        # 13534 <g_741+0x4>
    6bb2:	3c 35                	cmp    $0x35,%al
    6bb4:	0f 86 4a ff ff ff    	jbe    6b04 <func_10+0xa7>
    6bba:	eb 01                	jmp    6bbd <func_10+0x160>
    6bbc:	90                   	nop
    6bbd:	8b 45 a4             	mov    -0x5c(%rbp),%eax
    6bc0:	83 e8 01             	sub    $0x1,%eax
    6bc3:	89 45 a4             	mov    %eax,-0x5c(%rbp)
    6bc6:	8b 45 c8             	mov    -0x38(%rbp),%eax
    6bc9:	41 89 c5             	mov    %eax,%r13d
    6bcc:	8b 85 6c ff ff ff    	mov    -0x94(%rbp),%eax
    6bd2:	0f bf d8             	movswl %ax,%ebx
    6bd5:	8b 45 a0             	mov    -0x60(%rbp),%eax
    6bd8:	41 89 c6             	mov    %eax,%r14d
    6bdb:	8b 45 a4             	mov    -0x5c(%rbp),%eax
    6bde:	44 0f b6 e0          	movzbl %al,%r12d
    6be2:	8b 85 6c ff ff ff    	mov    -0x94(%rbp),%eax
    6be8:	be ff ff ff ff       	mov    $0xffffffff,%esi
    6bed:	89 c7                	mov    %eax,%edi
    6bef:	e8 c2 e9 ff ff       	callq  55b6 <safe_add_func_int32_t_s_s>
    6bf4:	0f be c0             	movsbl %al,%eax
    6bf7:	be f7 ff ff ff       	mov    $0xfffffff7,%esi
    6bfc:	89 c7                	mov    %eax,%edi
    6bfe:	e8 0f e6 ff ff       	callq  5212 <safe_mul_func_int8_t_s_s>
    6c03:	0f b6 c0             	movzbl %al,%eax
    6c06:	44 89 e6             	mov    %r12d,%esi
    6c09:	89 c7                	mov    %eax,%edi
    6c0b:	e8 4a ef ff ff       	callq  5b5a <safe_add_func_uint8_t_u_u>
    6c10:	0f b6 c0             	movzbl %al,%eax
    6c13:	4c 89 f6             	mov    %r14,%rsi
    6c16:	48 89 c7             	mov    %rax,%rdi
    6c19:	e8 62 f4 ff ff       	callq  6080 <safe_mod_func_uint64_t_u_u>
    6c1e:	b9 01 00 00 00       	mov    $0x1,%ecx
    6c23:	48 8b 05 4e df 00 00 	mov    0xdf4e(%rip),%rax        # 14b78 <g_162>
    6c2a:	8b 10                	mov    (%rax),%edx
    6c2c:	48 8b 05 45 df 00 00 	mov    0xdf45(%rip),%rax        # 14b78 <g_162>
    6c33:	31 ca                	xor    %ecx,%edx
    6c35:	89 10                	mov    %edx,(%rax)
    6c37:	8b 10                	mov    (%rax),%edx
    6c39:	8b 45 a8             	mov    -0x58(%rbp),%eax
    6c3c:	39 c2                	cmp    %eax,%edx
    6c3e:	0f 96 c0             	setbe  %al
    6c41:	0f b6 c0             	movzbl %al,%eax
    6c44:	be 01 00 00 00       	mov    $0x1,%esi
    6c49:	89 c7                	mov    %eax,%edi
    6c4b:	e8 2a f2 ff ff       	callq  5e7a <safe_rshift_func_uint16_t_u_u>
    6c50:	66 85 c0             	test   %ax,%ax
    6c53:	0f 95 c0             	setne  %al
    6c56:	0f b6 c0             	movzbl %al,%eax
    6c59:	89 de                	mov    %ebx,%esi
    6c5b:	89 c7                	mov    %eax,%edi
    6c5d:	e8 71 e7 ff ff       	callq  53d3 <safe_sub_func_int16_t_s_s>
    6c62:	0f be d0             	movsbl %al,%edx
    6c65:	8b 05 55 cb 00 00    	mov    0xcb55(%rip),%eax        # 137c0 <g_1363>
    6c6b:	0f be c0             	movsbl %al,%eax
    6c6e:	89 d6                	mov    %edx,%esi
    6c70:	89 c7                	mov    %eax,%edi
    6c72:	e8 9b e5 ff ff       	callq  5212 <safe_mul_func_int8_t_s_s>
    6c77:	0f b6 c0             	movzbl %al,%eax
    6c7a:	44 89 ee             	mov    %r13d,%esi
    6c7d:	89 c7                	mov    %eax,%edi
    6c7f:	e8 81 ef ff ff       	callq  5c05 <safe_lshift_func_uint8_t_u_s>
    6c84:	0f b6 c0             	movzbl %al,%eax
    6c87:	21 85 78 ff ff ff    	and    %eax,-0x88(%rbp)
    6c8d:	8b 85 78 ff ff ff    	mov    -0x88(%rbp),%eax
    6c93:	48 8b 5d d8          	mov    -0x28(%rbp),%rbx
    6c97:	64 48 33 1c 25 28 00 	xor    %fs:0x28,%rbx
    6c9e:	00 00 
    6ca0:	74 05                	je     6ca7 <func_10+0x24a>
    6ca2:	e8 c9 e3 ff ff       	callq  5070 <__stack_chk_fail@plt>
    6ca7:	48 83 ec 80          	sub    $0xffffffffffffff80,%rsp
    6cab:	5b                   	pop    %rbx
    6cac:	41 5c                	pop    %r12
    6cae:	41 5d                	pop    %r13
    6cb0:	41 5e                	pop    %r14
    6cb2:	5d                   	pop    %rbp
    6cb3:	c3                   	retq   

0000000000006cb4 <func_27>:
    6cb4:	f3 0f 1e fa          	endbr64 
    6cb8:	55                   	push   %rbp
    6cb9:	48 89 e5             	mov    %rsp,%rbp
    6cbc:	48 81 ec 10 05 00 00 	sub    $0x510,%rsp
    6cc3:	89 bd fc fa ff ff    	mov    %edi,-0x504(%rbp)
    6cc9:	64 48 8b 04 25 28 00 	mov    %fs:0x28,%rax
    6cd0:	00 00 
    6cd2:	48 89 45 f8          	mov    %rax,-0x8(%rbp)
    6cd6:	31 c0                	xor    %eax,%eax
    6cd8:	48 8d 05 89 f0 00 00 	lea    0xf089(%rip),%rax        # 15d68 <g_33+0x28>
    6cdf:	48 89 85 20 fb ff ff 	mov    %rax,-0x4e0(%rbp)
    6ce6:	48 8d 05 3f c3 00 00 	lea    0xc33f(%rip),%rax        # 1302c <g_45>
    6ced:	48 89 85 80 fb ff ff 	mov    %rax,-0x480(%rbp)
    6cf4:	48 8d 05 31 c3 00 00 	lea    0xc331(%rip),%rax        # 1302c <g_45>
    6cfb:	48 89 85 88 fb ff ff 	mov    %rax,-0x478(%rbp)
    6d02:	48 8d 05 23 c3 00 00 	lea    0xc323(%rip),%rax        # 1302c <g_45>
    6d09:	48 89 85 90 fb ff ff 	mov    %rax,-0x470(%rbp)
    6d10:	48 8d 05 15 c3 00 00 	lea    0xc315(%rip),%rax        # 1302c <g_45>
    6d17:	48 89 85 98 fb ff ff 	mov    %rax,-0x468(%rbp)
    6d1e:	48 8d 05 07 c3 00 00 	lea    0xc307(%rip),%rax        # 1302c <g_45>
    6d25:	48 89 85 a0 fb ff ff 	mov    %rax,-0x460(%rbp)
    6d2c:	48 8d 05 f9 c2 00 00 	lea    0xc2f9(%rip),%rax        # 1302c <g_45>
    6d33:	48 89 85 a8 fb ff ff 	mov    %rax,-0x458(%rbp)
    6d3a:	48 8d 05 f7 c7 00 00 	lea    0xc7f7(%rip),%rax        # 13538 <g_769>
    6d41:	48 89 85 28 fb ff ff 	mov    %rax,-0x4d8(%rbp)
    6d48:	c6 85 05 fb ff ff 69 	movb   $0x69,-0x4fb(%rbp)
    6d4f:	48 c7 85 b0 fb ff ff 	movq   $0x0,-0x450(%rbp)
    6d56:	00 00 00 00 
    6d5a:	48 c7 85 b8 fb ff ff 	movq   $0x0,-0x448(%rbp)
    6d61:	00 00 00 00 
    6d65:	48 c7 85 c0 fb ff ff 	movq   $0x0,-0x440(%rbp)
    6d6c:	00 00 00 00 
    6d70:	48 c7 85 c8 fb ff ff 	movq   $0x0,-0x438(%rbp)
    6d77:	00 00 00 00 
    6d7b:	48 8d 05 e6 dd 00 00 	lea    0xdde6(%rip),%rax        # 14b68 <g_47>
    6d82:	48 89 85 d0 fb ff ff 	mov    %rax,-0x430(%rbp)
    6d89:	48 c7 85 d8 fb ff ff 	movq   $0x0,-0x428(%rbp)
    6d90:	00 00 00 00 
    6d94:	48 c7 85 e0 fb ff ff 	movq   $0x0,-0x420(%rbp)
    6d9b:	00 00 00 00 
    6d9f:	48 c7 85 e8 fb ff ff 	movq   $0x0,-0x418(%rbp)
    6da6:	00 00 00 00 
    6daa:	48 c7 85 f0 fb ff ff 	movq   $0x0,-0x410(%rbp)
    6db1:	00 00 00 00 
    6db5:	48 8d 05 ac dd 00 00 	lea    0xddac(%rip),%rax        # 14b68 <g_47>
    6dbc:	48 89 85 f8 fb ff ff 	mov    %rax,-0x408(%rbp)
    6dc3:	66 c7 85 06 fb ff ff 	movw   $0xffff,-0x4fa(%rbp)
    6dca:	ff ff 
    6dcc:	48 8d 05 b5 e8 00 00 	lea    0xe8b5(%rip),%rax        # 15688 <g_1044+0x88>
    6dd3:	48 89 85 30 fb ff ff 	mov    %rax,-0x4d0(%rbp)
    6dda:	48 8d 05 3f ca 00 00 	lea    0xca3f(%rip),%rax        # 13820 <g_1466>
    6de1:	48 89 85 38 fb ff ff 	mov    %rax,-0x4c8(%rbp)
    6de8:	c7 85 10 fb ff ff 01 	movl   $0x1,-0x4f0(%rbp)
    6def:	00 00 00 
    6df2:	48 8d 05 7f dd 00 00 	lea    0xdd7f(%rip),%rax        # 14b78 <g_162>
    6df9:	48 89 85 40 fb ff ff 	mov    %rax,-0x4c0(%rbp)
    6e00:	c7 85 14 fb ff ff 41 	movl   $0x38a3e741,-0x4ec(%rbp)
    6e07:	e7 a3 38 
    6e0a:	c7 85 18 fb ff ff 61 	movl   $0x55168461,-0x4e8(%rbp)
    6e11:	84 16 55 
    6e14:	c7 85 1c fb ff ff fb 	movl   $0xfffffffb,-0x4e4(%rbp)
    6e1b:	ff ff ff 
    6e1e:	48 8d 05 03 c2 00 00 	lea    0xc203(%rip),%rax        # 13028 <g_34>
    6e25:	48 89 85 48 fb ff ff 	mov    %rax,-0x4b8(%rbp)
    6e2c:	48 8d 85 00 fc ff ff 	lea    -0x400(%rbp),%rax
    6e33:	48 8d 15 06 ca 00 00 	lea    0xca06(%rip),%rdx        # 13840 <g_1482+0x10>
    6e3a:	b9 7e 00 00 00       	mov    $0x7e,%ecx
    6e3f:	48 89 c7             	mov    %rax,%rdi
    6e42:	48 89 d6             	mov    %rdx,%rsi
    6e45:	f3 48 a5             	rep movsq %ds:(%rsi),%es:(%rdi)
    6e48:	c7 85 08 fb ff ff 00 	movl   $0x0,-0x4f8(%rbp)
    6e4f:	00 00 00 
    6e52:	eb 45                	jmp    6e99 <func_27+0x1e5>
    6e54:	c7 85 0c fb ff ff 00 	movl   $0x0,-0x4f4(%rbp)
    6e5b:	00 00 00 
    6e5e:	eb 29                	jmp    6e89 <func_27+0x1d5>
    6e60:	8b 85 0c fb ff ff    	mov    -0x4f4(%rbp),%eax
    6e66:	48 98                	cltq   
    6e68:	8b 95 08 fb ff ff    	mov    -0x4f8(%rbp),%edx
    6e6e:	48 63 d2             	movslq %edx,%rdx
    6e71:	48 01 d2             	add    %rdx,%rdx
    6e74:	48 01 d0             	add    %rdx,%rax
    6e77:	c7 84 85 50 fb ff ff 	movl   $0xfffffffa,-0x4b0(%rbp,%rax,4)
    6e7e:	fa ff ff ff 
    6e82:	83 85 0c fb ff ff 01 	addl   $0x1,-0x4f4(%rbp)
    6e89:	83 bd 0c fb ff ff 01 	cmpl   $0x1,-0x4f4(%rbp)
    6e90:	7e ce                	jle    6e60 <func_27+0x1ac>
    6e92:	83 85 08 fb ff ff 01 	addl   $0x1,-0x4f8(%rbp)
    6e99:	83 bd 08 fb ff ff 04 	cmpl   $0x4,-0x4f8(%rbp)
    6ea0:	7e b2                	jle    6e54 <func_27+0x1a0>
    6ea2:	48 8b 05 b7 dc 00 00 	mov    0xdcb7(%rip),%rax        # 14b60 <g_44>
    6ea9:	8b 00                	mov    (%rax),%eax
    6eab:	48 8b 4d f8          	mov    -0x8(%rbp),%rcx
    6eaf:	64 48 33 0c 25 28 00 	xor    %fs:0x28,%rcx
    6eb6:	00 00 
    6eb8:	74 05                	je     6ebf <func_27+0x20b>
    6eba:	e8 b1 e1 ff ff       	callq  5070 <__stack_chk_fail@plt>
    6ebf:	c9                   	leaveq 
    6ec0:	c3                   	retq   

0000000000006ec1 <func_29>:
    6ec1:	f3 0f 1e fa          	endbr64 
    6ec5:	55                   	push   %rbp
    6ec6:	48 89 e5             	mov    %rsp,%rbp
    6ec9:	48 83 ec 60          	sub    $0x60,%rsp
    6ecd:	48 89 7d b8          	mov    %rdi,-0x48(%rbp)
    6ed1:	48 89 75 b0          	mov    %rsi,-0x50(%rbp)
    6ed5:	89 d0                	mov    %edx,%eax
    6ed7:	88 45 ac             	mov    %al,-0x54(%rbp)
    6eda:	64 48 8b 04 25 28 00 	mov    %fs:0x28,%rax
    6ee1:	00 00 
    6ee3:	48 89 45 f8          	mov    %rax,-0x8(%rbp)
    6ee7:	31 c0                	xor    %eax,%eax
    6ee9:	48 8d 05 38 c1 00 00 	lea    0xc138(%rip),%rax        # 13028 <g_34>
    6ef0:	48 89 45 d0          	mov    %rax,-0x30(%rbp)
    6ef4:	48 c7 45 d8 00 00 00 	movq   $0x0,-0x28(%rbp)
    6efb:	00 
    6efc:	48 8d 05 25 c1 00 00 	lea    0xc125(%rip),%rax        # 13028 <g_34>
    6f03:	48 89 45 e0          	mov    %rax,-0x20(%rbp)
    6f07:	48 8d 05 1a c1 00 00 	lea    0xc11a(%rip),%rax        # 13028 <g_34>
    6f0e:	48 89 45 e8          	mov    %rax,-0x18(%rbp)
    6f12:	48 8d 05 0f c1 00 00 	lea    0xc10f(%rip),%rax        # 13028 <g_34>
    6f19:	48 89 45 c8          	mov    %rax,-0x38(%rbp)
    6f1d:	48 8d 05 04 c1 00 00 	lea    0xc104(%rip),%rax        # 13028 <g_34>
    6f24:	48 89 45 f0          	mov    %rax,-0x10(%rbp)
    6f28:	0f b7 05 59 ee 00 00 	movzwl 0xee59(%rip),%eax        # 15d88 <g_41>
    6f2f:	83 e8 01             	sub    $0x1,%eax
    6f32:	66 89 05 4f ee 00 00 	mov    %ax,0xee4f(%rip)        # 15d88 <g_41>
    6f39:	48 8b 05 20 dc 00 00 	mov    0xdc20(%rip),%rax        # 14b60 <g_44>
    6f40:	8b 08                	mov    (%rax),%ecx
    6f42:	48 8b 55 e0          	mov    -0x20(%rbp),%rdx
    6f46:	8b 12                	mov    (%rdx),%edx
    6f48:	31 ca                	xor    %ecx,%edx
    6f4a:	89 10                	mov    %edx,(%rax)
    6f4c:	48 8b 05 1d dc 00 00 	mov    0xdc1d(%rip),%rax        # 14b70 <g_46>
    6f53:	48 8d 55 c8          	lea    -0x38(%rbp),%rdx
    6f57:	48 89 10             	mov    %rdx,(%rax)
    6f5a:	0f b6 55 ac          	movzbl -0x54(%rbp),%edx
    6f5e:	8b 05 c4 c0 00 00    	mov    0xc0c4(%rip),%eax        # 13028 <g_34>
    6f64:	0f b7 c0             	movzwl %ax,%eax
    6f67:	89 d6                	mov    %edx,%esi
    6f69:	89 c7                	mov    %eax,%edi
    6f6b:	e8 cd ed ff ff       	callq  5d3d <safe_mul_func_uint16_t_u_u>
    6f70:	89 c2                	mov    %eax,%edx
    6f72:	48 8b 05 e7 db 00 00 	mov    0xdbe7(%rip),%rax        # 14b60 <g_44>
    6f79:	0f b7 d2             	movzwl %dx,%edx
    6f7c:	89 10                	mov    %edx,(%rax)
    6f7e:	0f b6 45 ac          	movzbl -0x54(%rbp),%eax
    6f82:	48 8b 4d f8          	mov    -0x8(%rbp),%rcx
    6f86:	64 48 33 0c 25 28 00 	xor    %fs:0x28,%rcx
    6f8d:	00 00 
    6f8f:	74 05                	je     6f96 <func_29+0xd5>
    6f91:	e8 da e0 ff ff       	callq  5070 <__stack_chk_fail@plt>
    6f96:	c9                   	leaveq 
    6f97:	c3                   	retq   

0000000000006f98 <func_50>:
    6f98:	f3 0f 1e fa          	endbr64 
    6f9c:	55                   	push   %rbp
    6f9d:	48 89 e5             	mov    %rsp,%rbp
    6fa0:	41 56                	push   %r14
    6fa2:	41 55                	push   %r13
    6fa4:	41 54                	push   %r12
    6fa6:	53                   	push   %rbx
    6fa7:	48 81 ec e0 0d 00 00 	sub    $0xde0,%rsp
    6fae:	89 f8                	mov    %edi,%eax
    6fb0:	48 89 b5 10 f2 ff ff 	mov    %rsi,-0xdf0(%rbp)
    6fb7:	89 95 18 f2 ff ff    	mov    %edx,-0xde8(%rbp)
    6fbd:	48 89 8d 08 f2 ff ff 	mov    %rcx,-0xdf8(%rbp)
    6fc4:	66 89 85 1c f2 ff ff 	mov    %ax,-0xde4(%rbp)
    6fcb:	64 48 8b 04 25 28 00 	mov    %fs:0x28,%rax
    6fd2:	00 00 
    6fd4:	48 89 45 d8          	mov    %rax,-0x28(%rbp)
    6fd8:	31 c0                	xor    %eax,%eax
    6fda:	48 b8 6a 51 ea c9 21 	movabs $0x9fb5e721c9ea516a,%rax
    6fe1:	e7 b5 9f 
    6fe4:	48 89 85 80 f3 ff ff 	mov    %rax,-0xc80(%rbp)
    6feb:	48 c7 85 88 f3 ff ff 	movq   $0x0,-0xc78(%rbp)
    6ff2:	00 00 00 00 
    6ff6:	48 c7 85 90 f3 ff ff 	movq   $0x0,-0xc70(%rbp)
    6ffd:	00 00 00 00 
    7001:	48 c7 85 40 f3 ff ff 	movq   $0x0,-0xcc0(%rbp)
    7008:	00 00 00 00 
    700c:	48 8d 05 2d c0 00 00 	lea    0xc02d(%rip),%rax        # 13040 <g_115>
    7013:	48 89 85 98 f3 ff ff 	mov    %rax,-0xc68(%rbp)
    701a:	48 8d 05 d7 dd 00 00 	lea    0xddd7(%rip),%rax        # 14df8 <g_876>
    7021:	48 89 85 48 f3 ff ff 	mov    %rax,-0xcb8(%rbp)
    7028:	c7 85 6c f2 ff ff 68 	movl   $0xd8637a68,-0xd94(%rbp)
    702f:	7a 63 d8 
    7032:	48 8d 05 e7 c4 00 00 	lea    0xc4e7(%rip),%rax        # 13520 <g_621>
    7039:	48 89 85 a0 f3 ff ff 	mov    %rax,-0xc60(%rbp)
    7040:	48 8d 85 d0 f7 ff ff 	lea    -0x830(%rbp),%rax
    7047:	48 8d 15 f2 cb 00 00 	lea    0xcbf2(%rip),%rdx        # 13c40 <g_1482+0x410>
    704e:	b9 2d 00 00 00       	mov    $0x2d,%ecx
    7053:	48 89 c7             	mov    %rax,%rdi
    7056:	48 89 d6             	mov    %rdx,%rsi
    7059:	f3 48 a5             	rep movsq %ds:(%rsi),%es:(%rdi)
    705c:	48 8d 85 d0 f7 ff ff 	lea    -0x830(%rbp),%rax
    7063:	48 83 e8 80          	sub    $0xffffffffffffff80,%rax
    7067:	48 89 85 50 f3 ff ff 	mov    %rax,-0xcb0(%rbp)
    706e:	c7 85 70 f2 ff ff 8d 	movl   $0x35290a8d,-0xd90(%rbp)
    7075:	0a 29 35 
    7078:	c7 85 2c f2 ff ff fb 	movl   $0xfffffffb,-0xdd4(%rbp)
    707f:	ff ff ff 
    7082:	c7 85 30 f2 ff ff 06 	movl   $0x6,-0xdd0(%rbp)
    7089:	00 00 00 
    708c:	c7 85 34 f2 ff ff 28 	movl   $0x7c253828,-0xdcc(%rbp)
    7093:	38 25 7c 
    7096:	c7 85 74 f2 ff ff 0f 	movl   $0x70d5370f,-0xd8c(%rbp)
    709d:	37 d5 70 
    70a0:	c7 85 38 f2 ff ff fe 	movl   $0xfffffffe,-0xdc8(%rbp)
    70a7:	ff ff ff 
    70aa:	c7 85 3c f2 ff ff 44 	movl   $0x8d2e1044,-0xdc4(%rbp)
    70b1:	10 2e 8d 
    70b4:	c7 85 40 f2 ff ff 01 	movl   $0x1,-0xdc0(%rbp)
    70bb:	00 00 00 
    70be:	c7 85 44 f2 ff ff 22 	movl   $0xad428e22,-0xdbc(%rbp)
    70c5:	8e 42 ad 
    70c8:	c7 85 48 f2 ff ff 05 	movl   $0x5,-0xdb8(%rbp)
    70cf:	00 00 00 
    70d2:	c7 85 4c f2 ff ff 01 	movl   $0x1,-0xdb4(%rbp)
    70d9:	00 00 00 
    70dc:	c7 85 78 f2 ff ff 03 	movl   $0x3,-0xd88(%rbp)
    70e3:	00 00 00 
    70e6:	c6 85 29 f2 ff ff f8 	movb   $0xf8,-0xdd7(%rbp)
    70ed:	c7 85 7c f2 ff ff a7 	movl   $0x36ea67a7,-0xd84(%rbp)
    70f4:	67 ea 36 
    70f7:	c7 85 80 f2 ff ff 00 	movl   $0x0,-0xd80(%rbp)
    70fe:	00 00 00 
    7101:	c7 85 84 f2 ff ff 04 	movl   $0x99325e04,-0xd7c(%rbp)
    7108:	5e 32 99 
    710b:	c7 85 50 f2 ff ff 01 	movl   $0x1,-0xdb0(%rbp)
    7112:	00 00 00 
    7115:	48 8d 85 48 f3 ff ff 	lea    -0xcb8(%rbp),%rax
    711c:	48 89 85 c0 f5 ff ff 	mov    %rax,-0xa40(%rbp)
    7123:	48 8d 05 d6 dc 00 00 	lea    0xdcd6(%rip),%rax        # 14e00 <g_875>
    712a:	48 89 85 c8 f5 ff ff 	mov    %rax,-0xa38(%rbp)
    7131:	48 8d 85 48 f3 ff ff 	lea    -0xcb8(%rbp),%rax
    7138:	48 89 85 d0 f5 ff ff 	mov    %rax,-0xa30(%rbp)
    713f:	48 8d 85 48 f3 ff ff 	lea    -0xcb8(%rbp),%rax
    7146:	48 89 85 d8 f5 ff ff 	mov    %rax,-0xa28(%rbp)
    714d:	48 8d 85 48 f3 ff ff 	lea    -0xcb8(%rbp),%rax
    7154:	48 89 85 e0 f5 ff ff 	mov    %rax,-0xa20(%rbp)
    715b:	48 8d 85 48 f3 ff ff 	lea    -0xcb8(%rbp),%rax
    7162:	48 89 85 e8 f5 ff ff 	mov    %rax,-0xa18(%rbp)
    7169:	48 8d 05 90 dc 00 00 	lea    0xdc90(%rip),%rax        # 14e00 <g_875>
    7170:	48 89 85 f0 f5 ff ff 	mov    %rax,-0xa10(%rbp)
    7177:	48 8d 85 48 f3 ff ff 	lea    -0xcb8(%rbp),%rax
    717e:	48 89 85 f8 f5 ff ff 	mov    %rax,-0xa08(%rbp)
    7185:	48 8d 85 48 f3 ff ff 	lea    -0xcb8(%rbp),%rax
    718c:	48 89 85 00 f6 ff ff 	mov    %rax,-0xa00(%rbp)
    7193:	48 8d 85 48 f3 ff ff 	lea    -0xcb8(%rbp),%rax
    719a:	48 89 85 08 f6 ff ff 	mov    %rax,-0x9f8(%rbp)
    71a1:	48 8d 85 c0 f5 ff ff 	lea    -0xa40(%rbp),%rax
    71a8:	48 83 c0 30          	add    $0x30,%rax
    71ac:	48 89 85 60 f3 ff ff 	mov    %rax,-0xca0(%rbp)
    71b3:	48 c7 85 68 f3 ff ff 	movq   $0xfffffffffffffff9,-0xc98(%rbp)
    71ba:	f9 ff ff ff 
    71be:	48 8d 05 e7 bf 00 00 	lea    0xbfe7(%rip),%rax        # 131ac <g_456+0x4>
    71c5:	48 89 85 70 f3 ff ff 	mov    %rax,-0xc90(%rbp)
    71cc:	48 8d 05 c5 db 00 00 	lea    0xdbc5(%rip),%rax        # 14d98 <g_838+0x78>
    71d3:	48 89 85 78 f3 ff ff 	mov    %rax,-0xc88(%rbp)
    71da:	c7 85 68 f2 ff ff 00 	movl   $0x0,-0xd98(%rbp)
    71e1:	00 00 00 
    71e4:	eb 1b                	jmp    7201 <func_50+0x269>
    71e6:	8b 85 68 f2 ff ff    	mov    -0xd98(%rbp),%eax
    71ec:	48 98                	cltq   
    71ee:	48 c7 84 c5 20 f5 ff 	movq   $0x0,-0xae0(%rbp,%rax,8)
    71f5:	ff 00 00 00 00 
    71fa:	83 85 68 f2 ff ff 01 	addl   $0x1,-0xd98(%rbp)
    7201:	83 bd 68 f2 ff ff 01 	cmpl   $0x1,-0xd98(%rbp)
    7208:	7e dc                	jle    71e6 <func_50+0x24e>
    720a:	c7 85 68 f2 ff ff 00 	movl   $0x0,-0xd98(%rbp)
    7211:	00 00 00 
    7214:	eb 4d                	jmp    7263 <func_50+0x2cb>
    7216:	c7 85 88 f2 ff ff 00 	movl   $0x0,-0xd78(%rbp)
    721d:	00 00 00 
    7220:	eb 31                	jmp    7253 <func_50+0x2bb>
    7222:	8b 85 88 f2 ff ff    	mov    -0xd78(%rbp),%eax
    7228:	48 63 c8             	movslq %eax,%rcx
    722b:	8b 85 68 f2 ff ff    	mov    -0xd98(%rbp),%eax
    7231:	48 63 d0             	movslq %eax,%rdx
    7234:	48 89 d0             	mov    %rdx,%rax
    7237:	48 01 c0             	add    %rax,%rax
    723a:	48 01 d0             	add    %rdx,%rax
    723d:	48 01 c8             	add    %rcx,%rax
    7240:	48 c7 84 c5 60 f5 ff 	movq   $0x0,-0xaa0(%rbp,%rax,8)
    7247:	ff 00 00 00 00 
    724c:	83 85 88 f2 ff ff 01 	addl   $0x1,-0xd78(%rbp)
    7253:	83 bd 88 f2 ff ff 02 	cmpl   $0x2,-0xd78(%rbp)
    725a:	7e c6                	jle    7222 <func_50+0x28a>
    725c:	83 85 68 f2 ff ff 01 	addl   $0x1,-0xd98(%rbp)
    7263:	83 bd 68 f2 ff ff 01 	cmpl   $0x1,-0xd98(%rbp)
    726a:	7e aa                	jle    7216 <func_50+0x27e>
    726c:	48 83 bd 80 f3 ff ff 	cmpq   $0x0,-0xc80(%rbp)
    7273:	00 
    7274:	0f 85 f4 00 00 00    	jne    736e <func_50+0x3d6>
    727a:	0f b6 05 d1 be 00 00 	movzbl 0xbed1(%rip),%eax        # 13152 <g_296+0xa>
    7281:	48 0f be d8          	movsbq %al,%rbx
    7285:	48 83 bd 88 f3 ff ff 	cmpq   $0x0,-0xc78(%rbp)
    728c:	00 
    728d:	0f 85 95 00 00 00    	jne    7328 <func_50+0x390>
    7293:	0f b6 05 d7 be 00 00 	movzbl 0xbed7(%rip),%eax        # 13171 <g_384>
    729a:	44 0f b6 e0          	movzbl %al,%r12d
    729e:	8b 85 18 f2 ff ff    	mov    -0xde8(%rbp),%eax
    72a4:	0f b7 c0             	movzwl %ax,%eax
    72a7:	be 02 00 00 00       	mov    $0x2,%esi
    72ac:	89 c7                	mov    %eax,%edi
    72ae:	e8 0b eb ff ff       	callq  5dbe <safe_lshift_func_uint16_t_u_s>
    72b3:	bf 00 00 00 00       	mov    $0x0,%edi
    72b8:	e8 59 e5 ff ff       	callq  5816 <safe_unary_minus_func_int64_t_s>
    72bd:	8b 85 18 f2 ff ff    	mov    -0xde8(%rbp),%eax
    72c3:	0f b6 c0             	movzbl %al,%eax
    72c6:	be 43 00 00 00       	mov    $0x43,%esi
    72cb:	89 c7                	mov    %eax,%edi
    72cd:	e8 c1 e8 ff ff       	callq  5b93 <safe_mul_func_uint8_t_u_u>
    72d2:	0f b6 d0             	movzbl %al,%edx
    72d5:	8b 05 0d c2 00 00    	mov    0xc20d(%rip),%eax        # 134e8 <g_508+0x28>
    72db:	31 d0                	xor    %edx,%eax
    72dd:	f7 d0                	not    %eax
    72df:	39 85 18 f2 ff ff    	cmp    %eax,-0xde8(%rbp)
    72e5:	0f 9c c0             	setl   %al
    72e8:	0f b6 c0             	movzbl %al,%eax
    72eb:	4c 89 e6             	mov    %r12,%rsi
    72ee:	48 89 c7             	mov    %rax,%rdi
    72f1:	e8 be e6 ff ff       	callq  59b4 <safe_mod_func_int64_t_s_s>
    72f6:	be 07 00 00 00       	mov    $0x7,%esi
    72fb:	89 c7                	mov    %eax,%edi
    72fd:	e8 b4 e2 ff ff       	callq  55b6 <safe_add_func_int32_t_s_s>
    7302:	89 c2                	mov    %eax,%edx
    7304:	48 8d 05 05 da 00 00 	lea    0xda05(%rip),%rax        # 14d10 <g_620>
    730b:	48 8b 00             	mov    (%rax),%rax
    730e:	0f b7 08             	movzwl (%rax),%ecx
    7311:	21 ca                	and    %ecx,%edx
    7313:	66 89 10             	mov    %dx,(%rax)
    7316:	0f b7 00             	movzwl (%rax),%eax
    7319:	0f b7 c0             	movzwl %ax,%eax
    731c:	89 c7                	mov    %eax,%edi
    731e:	e8 c6 e9 ff ff       	callq  5ce9 <safe_unary_minus_func_uint16_t_u>
    7323:	66 85 c0             	test   %ax,%ax
    7326:	74 07                	je     732f <func_50+0x397>
    7328:	b8 01 00 00 00       	mov    $0x1,%eax
    732d:	eb 05                	jmp    7334 <func_50+0x39c>
    732f:	b8 00 00 00 00       	mov    $0x0,%eax
    7334:	48 98                	cltq   
    7336:	48 39 85 80 f3 ff ff 	cmp    %rax,-0xc80(%rbp)
    733d:	0f 94 c0             	sete   %al
    7340:	0f b6 c0             	movzbl %al,%eax
    7343:	48 89 de             	mov    %rbx,%rsi
    7346:	48 89 c7             	mov    %rax,%rdi
    7349:	e8 f3 e4 ff ff       	callq  5841 <safe_add_func_int64_t_s_s>
    734e:	b8 00 00 00 00       	mov    $0x0,%eax
    7353:	f7 d0                	not    %eax
    7355:	48 98                	cltq   
    7357:	48 be d5 4d 66 80 e6 	movabs $0x5b9975e680664dd5,%rsi
    735e:	75 99 5b 
    7361:	48 89 c7             	mov    %rax,%rdi
    7364:	e8 e2 ec ff ff       	callq  604b <safe_sub_func_uint64_t_u_u>
    7369:	48 85 c0             	test   %rax,%rax
    736c:	74 07                	je     7375 <func_50+0x3dd>
    736e:	b8 01 00 00 00       	mov    $0x1,%eax
    7373:	eb 05                	jmp    737a <func_50+0x3e2>
    7375:	b8 00 00 00 00       	mov    $0x0,%eax
    737a:	88 05 f2 bc 00 00    	mov    %al,0xbcf2(%rip)        # 13072 <g_290+0x12>
    7380:	0f b6 05 eb bc 00 00 	movzbl 0xbceb(%rip),%eax        # 13072 <g_290+0x12>
    7387:	84 c0                	test   %al,%al
    7389:	0f 94 c0             	sete   %al
    738c:	0f b6 c0             	movzbl %al,%eax
    738f:	39 85 18 f2 ff ff    	cmp    %eax,-0xde8(%rbp)
    7395:	0f 8e 83 03 00 00    	jle    771e <func_50+0x786>
    739b:	66 c7 85 64 f2 ff ff 	movw   $0xfffa,-0xd9c(%rbp)
    73a2:	fa ff 
    73a4:	48 8d 05 55 da 00 00 	lea    0xda55(%rip),%rax        # 14e00 <g_875>
    73ab:	48 89 85 58 f4 ff ff 	mov    %rax,-0xba8(%rbp)
    73b2:	48 8d 05 bf d7 00 00 	lea    0xd7bf(%rip),%rax        # 14b78 <g_162>
    73b9:	48 89 85 60 f4 ff ff 	mov    %rax,-0xba0(%rbp)
    73c0:	c7 85 04 f3 ff ff 04 	movl   $0xb6d49104,-0xcfc(%rbp)
    73c7:	91 d4 b6 
    73ca:	c7 85 08 f3 ff ff fe 	movl   $0xfffffffe,-0xcf8(%rbp)
    73d1:	ff ff ff 
    73d4:	48 8d 05 65 bc 00 00 	lea    0xbc65(%rip),%rax        # 13040 <g_115>
    73db:	48 89 85 68 f4 ff ff 	mov    %rax,-0xb98(%rbp)
    73e2:	48 8d 05 57 c1 00 00 	lea    0xc157(%rip),%rax        # 13540 <g_917>
    73e9:	48 89 85 00 f7 ff ff 	mov    %rax,-0x900(%rbp)
    73f0:	48 8d 05 49 c1 00 00 	lea    0xc149(%rip),%rax        # 13540 <g_917>
    73f7:	48 89 85 08 f7 ff ff 	mov    %rax,-0x8f8(%rbp)
    73fe:	48 8d 05 3b c1 00 00 	lea    0xc13b(%rip),%rax        # 13540 <g_917>
    7405:	48 89 85 10 f7 ff ff 	mov    %rax,-0x8f0(%rbp)
    740c:	48 8d 05 2d c1 00 00 	lea    0xc12d(%rip),%rax        # 13540 <g_917>
    7413:	48 89 85 18 f7 ff ff 	mov    %rax,-0x8e8(%rbp)
    741a:	48 8d 05 1f c1 00 00 	lea    0xc11f(%rip),%rax        # 13540 <g_917>
    7421:	48 89 85 20 f7 ff ff 	mov    %rax,-0x8e0(%rbp)
    7428:	48 8d 05 11 c1 00 00 	lea    0xc111(%rip),%rax        # 13540 <g_917>
    742f:	48 89 85 28 f7 ff ff 	mov    %rax,-0x8d8(%rbp)
    7436:	48 8d 05 03 c1 00 00 	lea    0xc103(%rip),%rax        # 13540 <g_917>
    743d:	48 89 85 30 f7 ff ff 	mov    %rax,-0x8d0(%rbp)
    7444:	48 8d 05 f5 c0 00 00 	lea    0xc0f5(%rip),%rax        # 13540 <g_917>
    744b:	48 89 85 38 f7 ff ff 	mov    %rax,-0x8c8(%rbp)
    7452:	48 8d 05 e7 c0 00 00 	lea    0xc0e7(%rip),%rax        # 13540 <g_917>
    7459:	48 89 85 40 f7 ff ff 	mov    %rax,-0x8c0(%rbp)
    7460:	48 8d 05 d9 c0 00 00 	lea    0xc0d9(%rip),%rax        # 13540 <g_917>
    7467:	48 89 85 48 f7 ff ff 	mov    %rax,-0x8b8(%rbp)
    746e:	48 8d 05 cb c0 00 00 	lea    0xc0cb(%rip),%rax        # 13540 <g_917>
    7475:	48 89 85 58 f3 ff ff 	mov    %rax,-0xca8(%rbp)
    747c:	48 8d 85 58 f3 ff ff 	lea    -0xca8(%rbp),%rax
    7483:	48 89 85 70 f4 ff ff 	mov    %rax,-0xb90(%rbp)
    748a:	c7 85 8c f2 ff ff 00 	movl   $0x0,-0xd74(%rbp)
    7491:	00 00 00 
    7494:	eb 1e                	jmp    74b4 <func_50+0x51c>
    7496:	8b 85 8c f2 ff ff    	mov    -0xd74(%rbp),%eax
    749c:	48 98                	cltq   
    749e:	48 8d 15 6b d8 00 00 	lea    0xd86b(%rip),%rdx        # 14d10 <g_620>
    74a5:	48 89 94 c5 10 f6 ff 	mov    %rdx,-0x9f0(%rbp,%rax,8)
    74ac:	ff 
    74ad:	83 85 8c f2 ff ff 01 	addl   $0x1,-0xd74(%rbp)
    74b4:	83 bd 8c f2 ff ff 01 	cmpl   $0x1,-0xd74(%rbp)
    74bb:	7e d9                	jle    7496 <func_50+0x4fe>
    74bd:	c7 85 8c f2 ff ff 00 	movl   $0x0,-0xd74(%rbp)
    74c4:	00 00 00 
    74c7:	eb 1b                	jmp    74e4 <func_50+0x54c>
    74c9:	8b 85 8c f2 ff ff    	mov    -0xd74(%rbp),%eax
    74cf:	48 98                	cltq   
    74d1:	48 c7 84 c5 60 f6 ff 	movq   $0x0,-0x9a0(%rbp,%rax,8)
    74d8:	ff 00 00 00 00 
    74dd:	83 85 8c f2 ff ff 01 	addl   $0x1,-0xd74(%rbp)
    74e4:	83 bd 8c f2 ff ff 06 	cmpl   $0x6,-0xd74(%rbp)
    74eb:	7e dc                	jle    74c9 <func_50+0x531>
    74ed:	c7 85 8c f2 ff ff 00 	movl   $0x0,-0xd74(%rbp)
    74f4:	00 00 00 
    74f7:	e9 80 00 00 00       	jmpq   757c <func_50+0x5e4>
    74fc:	c7 85 90 f2 ff ff 00 	movl   $0x0,-0xd70(%rbp)
    7503:	00 00 00 
    7506:	eb 64                	jmp    756c <func_50+0x5d4>
    7508:	c7 85 94 f2 ff ff 00 	movl   $0x0,-0xd6c(%rbp)
    750f:	00 00 00 
    7512:	eb 48                	jmp    755c <func_50+0x5c4>
    7514:	8b 85 94 f2 ff ff    	mov    -0xd6c(%rbp),%eax
    751a:	48 63 f0             	movslq %eax,%rsi
    751d:	8b 85 90 f2 ff ff    	mov    -0xd70(%rbp),%eax
    7523:	48 63 c8             	movslq %eax,%rcx
    7526:	8b 85 8c f2 ff ff    	mov    -0xd74(%rbp),%eax
    752c:	48 63 d0             	movslq %eax,%rdx
    752f:	48 89 d0             	mov    %rdx,%rax
    7532:	48 c1 e0 02          	shl    $0x2,%rax
    7536:	48 01 d0             	add    %rdx,%rax
    7539:	48 01 c0             	add    %rax,%rax
    753c:	48 01 f0             	add    %rsi,%rax
    753f:	48 01 c8             	add    %rcx,%rax
    7542:	48 8d 95 20 f5 ff ff 	lea    -0xae0(%rbp),%rdx
    7549:	48 83 c2 08          	add    $0x8,%rdx
    754d:	48 89 94 c5 40 f9 ff 	mov    %rdx,-0x6c0(%rbp,%rax,8)
    7554:	ff 
    7555:	83 85 94 f2 ff ff 01 	addl   $0x1,-0xd6c(%rbp)
    755c:	83 bd 94 f2 ff ff 00 	cmpl   $0x0,-0xd6c(%rbp)
    7563:	7e af                	jle    7514 <func_50+0x57c>
    7565:	83 85 90 f2 ff ff 01 	addl   $0x1,-0xd70(%rbp)
    756c:	83 bd 90 f2 ff ff 09 	cmpl   $0x9,-0xd70(%rbp)
    7573:	7e 93                	jle    7508 <func_50+0x570>
    7575:	83 85 8c f2 ff ff 01 	addl   $0x1,-0xd74(%rbp)
    757c:	83 bd 8c f2 ff ff 00 	cmpl   $0x0,-0xd74(%rbp)
    7583:	0f 8e 73 ff ff ff    	jle    74fc <func_50+0x564>
    7589:	48 8b 05 78 d6 00 00 	mov    0xd678(%rip),%rax        # 14c08 <g_355>
    7590:	48 8b 00             	mov    (%rax),%rax
    7593:	0f b7 10             	movzwl (%rax),%edx
    7596:	48 8b 85 98 f3 ff ff 	mov    -0xc68(%rbp),%rax
    759d:	66 89 10             	mov    %dx,(%rax)
    75a0:	48 8b 85 98 f3 ff ff 	mov    -0xc68(%rbp),%rax
    75a7:	0f b7 00             	movzwl (%rax),%eax
    75aa:	98                   	cwtl   
    75ab:	89 c6                	mov    %eax,%esi
    75ad:	bf 01 44 00 00       	mov    $0x4401,%edi
    75b2:	e8 1c de ff ff       	callq  53d3 <safe_sub_func_int16_t_s_s>
    75b7:	0f be c0             	movsbl %al,%eax
    75ba:	be 04 00 00 00       	mov    $0x4,%esi
    75bf:	89 c7                	mov    %eax,%edi
    75c1:	e8 6f dd ff ff       	callq  5335 <safe_rshift_func_int8_t_s_s>
    75c6:	48 8b 15 33 d8 00 00 	mov    0xd833(%rip),%rdx        # 14e00 <g_875>
    75cd:	48 8b 85 58 f4 ff ff 	mov    -0xba8(%rbp),%rax
    75d4:	48 89 10             	mov    %rdx,(%rax)
    75d7:	48 8b 85 58 f4 ff ff 	mov    -0xba8(%rbp),%rax
    75de:	48 8b 00             	mov    (%rax),%rax
    75e1:	48 89 85 48 f3 ff ff 	mov    %rax,-0xcb8(%rbp)
    75e8:	48 8b 85 48 f3 ff ff 	mov    -0xcb8(%rbp),%rax
    75ef:	48 8d 15 02 d8 00 00 	lea    0xd802(%rip),%rdx        # 14df8 <g_876>
    75f6:	48 39 d0             	cmp    %rdx,%rax
    75f9:	48 8b 05 e8 d7 00 00 	mov    0xd7e8(%rip),%rax        # 14de8 <g_850>
    7600:	48 8b 00             	mov    (%rax),%rax
    7603:	c7 00 8b 71 0a 25    	movl   $0x250a718b,(%rax)
    7609:	48 8d 85 1c f2 ff ff 	lea    -0xde4(%rbp),%rax
    7610:	48 89 85 68 f4 ff ff 	mov    %rax,-0xb98(%rbp)
    7617:	48 8b 95 20 f7 ff ff 	mov    -0x8e0(%rbp),%rdx
    761e:	48 8b 85 70 f4 ff ff 	mov    -0xb90(%rbp),%rax
    7625:	48 8d 0d 14 bf 00 00 	lea    0xbf14(%rip),%rcx        # 13540 <g_917>
    762c:	48 89 08             	mov    %rcx,(%rax)
    762f:	48 8b 85 70 f4 ff ff 	mov    -0xb90(%rbp),%rax
    7636:	48 8b 00             	mov    (%rax),%rax
    7639:	48 39 c2             	cmp    %rax,%rdx
    763c:	0f 95 c0             	setne  %al
    763f:	0f b6 d0             	movzbl %al,%edx
    7642:	8b 85 08 f3 ff ff    	mov    -0xcf8(%rbp),%eax
    7648:	0f b7 c0             	movzwl %ax,%eax
    764b:	89 d6                	mov    %edx,%esi
    764d:	89 c7                	mov    %eax,%edi
    764f:	e8 cb e6 ff ff       	callq  5d1f <safe_sub_func_uint16_t_u_u>
    7654:	66 83 f8 01          	cmp    $0x1,%ax
    7658:	0f 97 c0             	seta   %al
    765b:	0f b6 c0             	movzbl %al,%eax
    765e:	48 8d 95 64 f2 ff ff 	lea    -0xd9c(%rbp),%rdx
    7665:	48 89 95 a0 f3 ff ff 	mov    %rdx,-0xc60(%rbp)
    766c:	89 c6                	mov    %eax,%esi
    766e:	bf 00 00 00 00       	mov    $0x0,%edi
    7673:	e8 8d df ff ff       	callq  5605 <safe_sub_func_int32_t_s_s>
    7678:	0f b6 05 2d be 00 00 	movzbl 0xbe2d(%rip),%eax        # 134ac <g_507+0x4>
    767f:	0f be c0             	movsbl %al,%eax
    7682:	be 00 00 00 00       	mov    $0x0,%esi
    7687:	89 c7                	mov    %eax,%edi
    7689:	e8 84 db ff ff       	callq  5212 <safe_mul_func_int8_t_s_s>
    768e:	48 8b 85 20 f5 ff ff 	mov    -0xae0(%rbp),%rax
    7695:	48 89 05 14 e7 00 00 	mov    %rax,0xe714(%rip)        # 15db0 <g_939>
    769c:	c6 05 ce ba 00 00 00 	movb   $0x0,0xbace(%rip)        # 13171 <g_384>
    76a3:	90                   	nop
    76a4:	0f b6 05 c6 ba 00 00 	movzbl 0xbac6(%rip),%eax        # 13171 <g_384>
    76ab:	3c 14                	cmp    $0x14,%al
    76ad:	0f 86 27 1f 00 00    	jbe    95da <func_50+0x2642>
    76b3:	c7 85 98 f2 ff ff 00 	movl   $0x0,-0xd68(%rbp)
    76ba:	00 00 00 
    76bd:	eb 47                	jmp    7706 <func_50+0x76e>
    76bf:	c7 85 9c f2 ff ff 00 	movl   $0x0,-0xd64(%rbp)
    76c6:	00 00 00 
    76c9:	eb 2b                	jmp    76f6 <func_50+0x75e>
    76cb:	8b 85 9c f2 ff ff    	mov    -0xd64(%rbp),%eax
    76d1:	48 63 d0             	movslq %eax,%rdx
    76d4:	8b 85 98 f2 ff ff    	mov    -0xd68(%rbp),%eax
    76da:	48 98                	cltq   
    76dc:	48 8d 5d e0          	lea    -0x20(%rbp),%rbx
    76e0:	48 01 da             	add    %rbx,%rdx
    76e3:	48 01 d0             	add    %rdx,%rax
    76e6:	48 2d 50 0a 00 00    	sub    $0xa50,%rax
    76ec:	c6 00 0d             	movb   $0xd,(%rax)
    76ef:	83 85 9c f2 ff ff 01 	addl   $0x1,-0xd64(%rbp)
    76f6:	83 bd 9c f2 ff ff 00 	cmpl   $0x0,-0xd64(%rbp)
    76fd:	7e cc                	jle    76cb <func_50+0x733>
    76ff:	83 85 98 f2 ff ff 01 	addl   $0x1,-0xd68(%rbp)
    7706:	83 bd 98 f2 ff ff 09 	cmpl   $0x9,-0xd68(%rbp)
    770d:	7e b0                	jle    76bf <func_50+0x727>
    770f:	0f b6 85 96 f5 ff ff 	movzbl -0xa6a(%rbp),%eax
    7716:	0f be c0             	movsbl %al,%eax
    7719:	e9 4e 2e 00 00       	jmpq   a56c <func_50+0x35d4>
    771e:	c7 85 d0 f2 ff ff 00 	movl   $0x0,-0xd30(%rbp)
    7725:	00 00 00 
    7728:	48 8d 05 ed bd 00 00 	lea    0xbded(%rip),%rax        # 1351c <g_618+0x4>
    772f:	48 89 85 b0 f3 ff ff 	mov    %rax,-0xc50(%rbp)
    7736:	48 8d 05 3b d4 00 00 	lea    0xd43b(%rip),%rax        # 14b78 <g_162>
    773d:	48 89 85 b8 f3 ff ff 	mov    %rax,-0xc48(%rbp)
    7744:	c7 85 d4 f2 ff ff fe 	movl   $0xfffffffe,-0xd2c(%rbp)
    774b:	ff ff ff 
    774e:	c7 85 64 f2 ff ff 01 	movl   $0x1,-0xd9c(%rbp)
    7755:	00 00 00 
    7758:	c7 85 d8 f2 ff ff 00 	movl   $0x0,-0xd28(%rbp)
    775f:	00 00 00 
    7762:	c7 85 60 f6 ff ff 01 	movl   $0x1,-0x9a0(%rbp)
    7769:	00 00 00 
    776c:	c7 85 64 f6 ff ff ff 	movl   $0xffffffff,-0x99c(%rbp)
    7773:	ff ff ff 
    7776:	c7 85 68 f6 ff ff 7b 	movl   $0x604e9a7b,-0x998(%rbp)
    777d:	9a 4e 60 
    7780:	c7 85 6c f6 ff ff bd 	movl   $0x4b930fbd,-0x994(%rbp)
    7787:	0f 93 4b 
    778a:	c7 85 70 f6 ff ff 00 	movl   $0x0,-0x990(%rbp)
    7791:	00 00 00 
    7794:	c7 85 74 f6 ff ff 9f 	movl   $0x7bb3ae9f,-0x98c(%rbp)
    779b:	ae b3 7b 
    779e:	c7 85 78 f6 ff ff 9f 	movl   $0x7bb3ae9f,-0x988(%rbp)
    77a5:	ae b3 7b 
    77a8:	c7 85 7c f6 ff ff 00 	movl   $0x0,-0x984(%rbp)
    77af:	00 00 00 
    77b2:	c7 85 80 f6 ff ff 00 	movl   $0x0,-0x980(%rbp)
    77b9:	00 00 00 
    77bc:	c7 85 84 f6 ff ff 00 	movl   $0x0,-0x97c(%rbp)
    77c3:	00 00 00 
    77c6:	c7 85 88 f6 ff ff 7b 	movl   $0x604e9a7b,-0x978(%rbp)
    77cd:	9a 4e 60 
    77d0:	c7 85 8c f6 ff ff fb 	movl   $0xfffffffb,-0x974(%rbp)
    77d7:	ff ff ff 
    77da:	c7 85 90 f6 ff ff 01 	movl   $0x1,-0x970(%rbp)
    77e1:	00 00 00 
    77e4:	c7 85 94 f6 ff ff 00 	movl   $0x0,-0x96c(%rbp)
    77eb:	00 00 00 
    77ee:	c7 85 98 f6 ff ff 00 	movl   $0x0,-0x968(%rbp)
    77f5:	00 00 00 
    77f8:	c7 85 9c f6 ff ff ff 	movl   $0xffffffff,-0x964(%rbp)
    77ff:	ff ff ff 
    7802:	c7 85 a0 f6 ff ff bd 	movl   $0x4b930fbd,-0x960(%rbp)
    7809:	0f 93 4b 
    780c:	c7 85 a4 f6 ff ff fd 	movl   $0xfffffffd,-0x95c(%rbp)
    7813:	ff ff ff 
    7816:	c7 85 a8 f6 ff ff 00 	movl   $0x0,-0x958(%rbp)
    781d:	00 00 00 
    7820:	c7 85 ac f6 ff ff 01 	movl   $0x1,-0x954(%rbp)
    7827:	00 00 00 
    782a:	c7 85 b0 f6 ff ff 7b 	movl   $0x604e9a7b,-0x950(%rbp)
    7831:	9a 4e 60 
    7834:	c7 85 b4 f6 ff ff 9f 	movl   $0x7bb3ae9f,-0x94c(%rbp)
    783b:	ae b3 7b 
    783e:	c7 85 b8 f6 ff ff fd 	movl   $0xfffffffd,-0x948(%rbp)
    7845:	ff ff ff 
    7848:	c7 85 bc f6 ff ff ff 	movl   $0xffffffff,-0x944(%rbp)
    784f:	ff ff ff 
    7852:	c7 85 c0 f6 ff ff bd 	movl   $0x4b930fbd,-0x940(%rbp)
    7859:	0f 93 4b 
    785c:	c7 85 c4 f6 ff ff 00 	movl   $0x0,-0x93c(%rbp)
    7863:	00 00 00 
    7866:	c7 85 c8 f6 ff ff 9f 	movl   $0x7bb3ae9f,-0x938(%rbp)
    786d:	ae b3 7b 
    7870:	c7 85 cc f6 ff ff 9f 	movl   $0x7bb3ae9f,-0x934(%rbp)
    7877:	ae b3 7b 
    787a:	c7 85 d0 f6 ff ff ff 	movl   $0xffffffff,-0x930(%rbp)
    7881:	ff ff ff 
    7884:	c7 85 d4 f6 ff ff ff 	movl   $0xffffffff,-0x92c(%rbp)
    788b:	ff ff ff 
    788e:	c7 85 d8 f6 ff ff 9f 	movl   $0x7bb3ae9f,-0x928(%rbp)
    7895:	ae b3 7b 
    7898:	c7 85 dc f6 ff ff 00 	movl   $0x0,-0x924(%rbp)
    789f:	00 00 00 
    78a2:	c7 85 e0 f6 ff ff bd 	movl   $0x4b930fbd,-0x920(%rbp)
    78a9:	0f 93 4b 
    78ac:	c7 85 e4 f6 ff ff 00 	movl   $0x0,-0x91c(%rbp)
    78b3:	00 00 00 
    78b6:	c7 85 e8 f6 ff ff fd 	movl   $0xfffffffd,-0x918(%rbp)
    78bd:	ff ff ff 
    78c0:	c7 85 ec f6 ff ff 00 	movl   $0x0,-0x914(%rbp)
    78c7:	00 00 00 
    78ca:	c7 85 f0 f6 ff ff 7b 	movl   $0x604e9a7b,-0x910(%rbp)
    78d1:	9a 4e 60 
    78d4:	c7 85 f4 f6 ff ff fd 	movl   $0xfffffffd,-0x90c(%rbp)
    78db:	ff ff ff 
    78de:	c7 85 f8 f6 ff ff 00 	movl   $0x0,-0x908(%rbp)
    78e5:	00 00 00 
    78e8:	c7 85 fc f6 ff ff fd 	movl   $0xfffffffd,-0x904(%rbp)
    78ef:	ff ff ff 
    78f2:	48 8d 05 47 df 00 00 	lea    0xdf47(%rip),%rax        # 15840 <g_1044+0x240>
    78f9:	48 89 85 c0 f3 ff ff 	mov    %rax,-0xc40(%rbp)
    7900:	48 8d 85 50 f3 ff ff 	lea    -0xcb0(%rbp),%rax
    7907:	48 89 85 c8 f3 ff ff 	mov    %rax,-0xc38(%rbp)
    790e:	48 8d 85 38 f2 ff ff 	lea    -0xdc8(%rbp),%rax
    7915:	48 89 85 d0 f3 ff ff 	mov    %rax,-0xc30(%rbp)
    791c:	48 8d 85 48 f2 ff ff 	lea    -0xdb8(%rbp),%rax
    7923:	48 89 85 d8 f3 ff ff 	mov    %rax,-0xc28(%rbp)
    792a:	48 8d 85 48 f2 ff ff 	lea    -0xdb8(%rbp),%rax
    7931:	48 89 85 e0 f3 ff ff 	mov    %rax,-0xc20(%rbp)
    7938:	48 8d 85 64 f2 ff ff 	lea    -0xd9c(%rbp),%rax
    793f:	48 89 85 00 f7 ff ff 	mov    %rax,-0x900(%rbp)
    7946:	48 c7 85 08 f7 ff ff 	movq   $0x0,-0x8f8(%rbp)
    794d:	00 00 00 00 
    7951:	48 c7 85 10 f7 ff ff 	movq   $0x0,-0x8f0(%rbp)
    7958:	00 00 00 00 
    795c:	48 8d 85 64 f2 ff ff 	lea    -0xd9c(%rbp),%rax
    7963:	48 89 85 18 f7 ff ff 	mov    %rax,-0x8e8(%rbp)
    796a:	48 8d 85 40 f2 ff ff 	lea    -0xdc0(%rbp),%rax
    7971:	48 89 85 20 f7 ff ff 	mov    %rax,-0x8e0(%rbp)
    7978:	48 8d 85 60 f6 ff ff 	lea    -0x9a0(%rbp),%rax
    797f:	48 83 c0 78          	add    $0x78,%rax
    7983:	48 89 85 28 f7 ff ff 	mov    %rax,-0x8d8(%rbp)
    798a:	48 8d 85 64 f2 ff ff 	lea    -0xd9c(%rbp),%rax
    7991:	48 89 85 30 f7 ff ff 	mov    %rax,-0x8d0(%rbp)
    7998:	48 8d 05 e9 b7 00 00 	lea    0xb7e9(%rip),%rax        # 13188 <g_410+0x8>
    799f:	48 89 85 38 f7 ff ff 	mov    %rax,-0x8c8(%rbp)
    79a6:	48 8d 85 3c f2 ff ff 	lea    -0xdc4(%rbp),%rax
    79ad:	48 89 85 40 f7 ff ff 	mov    %rax,-0x8c0(%rbp)
    79b4:	48 8d 85 3c f2 ff ff 	lea    -0xdc4(%rbp),%rax
    79bb:	48 89 85 48 f7 ff ff 	mov    %rax,-0x8b8(%rbp)
    79c2:	48 c7 85 50 f7 ff ff 	movq   $0x0,-0x8b0(%rbp)
    79c9:	00 00 00 00 
    79cd:	48 8d 85 64 f2 ff ff 	lea    -0xd9c(%rbp),%rax
    79d4:	48 89 85 58 f7 ff ff 	mov    %rax,-0x8a8(%rbp)
    79db:	48 c7 85 60 f7 ff ff 	movq   $0x0,-0x8a0(%rbp)
    79e2:	00 00 00 00 
    79e6:	48 8d 85 40 f2 ff ff 	lea    -0xdc0(%rbp),%rax
    79ed:	48 89 85 68 f7 ff ff 	mov    %rax,-0x898(%rbp)
    79f4:	48 8d 85 64 f2 ff ff 	lea    -0xd9c(%rbp),%rax
    79fb:	48 89 85 70 f7 ff ff 	mov    %rax,-0x890(%rbp)
    7a02:	48 8d 85 3c f2 ff ff 	lea    -0xdc4(%rbp),%rax
    7a09:	48 89 85 78 f7 ff ff 	mov    %rax,-0x888(%rbp)
    7a10:	48 c7 85 80 f7 ff ff 	movq   $0x0,-0x880(%rbp)
    7a17:	00 00 00 00 
    7a1b:	48 8d 85 40 f2 ff ff 	lea    -0xdc0(%rbp),%rax
    7a22:	48 89 85 88 f7 ff ff 	mov    %rax,-0x878(%rbp)
    7a29:	48 8d 85 3c f2 ff ff 	lea    -0xdc4(%rbp),%rax
    7a30:	48 89 85 90 f7 ff ff 	mov    %rax,-0x870(%rbp)
    7a37:	48 8d 85 40 f2 ff ff 	lea    -0xdc0(%rbp),%rax
    7a3e:	48 89 85 98 f7 ff ff 	mov    %rax,-0x868(%rbp)
    7a45:	48 8d 85 3c f2 ff ff 	lea    -0xdc4(%rbp),%rax
    7a4c:	48 89 85 a0 f7 ff ff 	mov    %rax,-0x860(%rbp)
    7a53:	48 8d 85 3c f2 ff ff 	lea    -0xdc4(%rbp),%rax
    7a5a:	48 89 85 a8 f7 ff ff 	mov    %rax,-0x858(%rbp)
    7a61:	48 8d 05 20 b7 00 00 	lea    0xb720(%rip),%rax        # 13188 <g_410+0x8>
    7a68:	48 89 85 b0 f7 ff ff 	mov    %rax,-0x850(%rbp)
    7a6f:	48 8d 85 64 f2 ff ff 	lea    -0xd9c(%rbp),%rax
    7a76:	48 89 85 b8 f7 ff ff 	mov    %rax,-0x848(%rbp)
    7a7d:	48 8d 85 60 f6 ff ff 	lea    -0x9a0(%rbp),%rax
    7a84:	48 83 c0 78          	add    $0x78,%rax
    7a88:	48 89 85 c0 f7 ff ff 	mov    %rax,-0x840(%rbp)
    7a8f:	c7 85 a0 f2 ff ff 00 	movl   $0x0,-0xd60(%rbp)
    7a96:	00 00 00 
    7a99:	eb 1b                	jmp    7ab6 <func_50+0xb1e>
    7a9b:	8b 85 a0 f2 ff ff    	mov    -0xd60(%rbp),%eax
    7aa1:	48 98                	cltq   
    7aa3:	48 c7 84 c5 30 f5 ff 	movq   $0x0,-0xad0(%rbp,%rax,8)
    7aaa:	ff 00 00 00 00 
    7aaf:	83 85 a0 f2 ff ff 01 	addl   $0x1,-0xd60(%rbp)
    7ab6:	83 bd a0 f2 ff ff 01 	cmpl   $0x1,-0xd60(%rbp)
    7abd:	7e dc                	jle    7a9b <func_50+0xb03>
    7abf:	c7 85 a0 f2 ff ff 00 	movl   $0x0,-0xd60(%rbp)
    7ac6:	00 00 00 
    7ac9:	eb 4c                	jmp    7b17 <func_50+0xb7f>
    7acb:	c7 85 a4 f2 ff ff 00 	movl   $0x0,-0xd5c(%rbp)
    7ad2:	00 00 00 
    7ad5:	eb 30                	jmp    7b07 <func_50+0xb6f>
    7ad7:	8b 85 a4 f2 ff ff    	mov    -0xd5c(%rbp),%eax
    7add:	48 63 c8             	movslq %eax,%rcx
    7ae0:	8b 85 a0 f2 ff ff    	mov    -0xd60(%rbp),%eax
    7ae6:	48 63 d0             	movslq %eax,%rdx
    7ae9:	48 89 d0             	mov    %rdx,%rax
    7aec:	48 c1 e0 03          	shl    $0x3,%rax
    7af0:	48 29 d0             	sub    %rdx,%rax
    7af3:	48 01 c8             	add    %rcx,%rax
    7af6:	66 c7 84 45 12 f5 ff 	movw   $0x1,-0xaee(%rbp,%rax,2)
    7afd:	ff 01 00 
    7b00:	83 85 a4 f2 ff ff 01 	addl   $0x1,-0xd5c(%rbp)
    7b07:	83 bd a4 f2 ff ff 06 	cmpl   $0x6,-0xd5c(%rbp)
    7b0e:	7e c7                	jle    7ad7 <func_50+0xb3f>
    7b10:	83 85 a0 f2 ff ff 01 	addl   $0x1,-0xd60(%rbp)
    7b17:	83 bd a0 f2 ff ff 00 	cmpl   $0x0,-0xd60(%rbp)
    7b1e:	7e ab                	jle    7acb <func_50+0xb33>
    7b20:	90                   	nop
    7b21:	8b 85 18 f2 ff ff    	mov    -0xde8(%rbp),%eax
    7b27:	0f be d8             	movsbl %al,%ebx
    7b2a:	48 8d 05 df d1 00 00 	lea    0xd1df(%rip),%rax        # 14d10 <g_620>
    7b31:	48 8b 00             	mov    (%rax),%rax
    7b34:	0f b7 00             	movzwl (%rax),%eax
    7b37:	66 85 c0             	test   %ax,%ax
    7b3a:	75 73                	jne    7baf <func_50+0xc17>
    7b3c:	48 8b 15 d5 d1 00 00 	mov    0xd1d5(%rip),%rdx        # 14d18 <g_658>
    7b43:	48 8b 05 9e d2 00 00 	mov    0xd29e(%rip),%rax        # 14de8 <g_850>
    7b4a:	48 8b 00             	mov    (%rax),%rax
    7b4d:	8b 12                	mov    (%rdx),%edx
    7b4f:	89 10                	mov    %edx,(%rax)
    7b51:	8b 00                	mov    (%rax),%eax
    7b53:	3d 50 db b0 67       	cmp    $0x67b0db50,%eax
    7b58:	0f 9e c0             	setle  %al
    7b5b:	44 0f b6 e0          	movzbl %al,%r12d
    7b5f:	48 8b 05 a2 d2 00 00 	mov    0xd2a2(%rip),%rax        # 14e08 <g_899>
    7b66:	c6 00 00             	movb   $0x0,(%rax)
    7b69:	48 8b 85 50 f3 ff ff 	mov    -0xcb0(%rbp),%rax
    7b70:	48 85 c0             	test   %rax,%rax
    7b73:	0f 94 c0             	sete   %al
    7b76:	0f b6 c0             	movzbl %al,%eax
    7b79:	be 00 00 00 00       	mov    $0x0,%esi
    7b7e:	89 c7                	mov    %eax,%edi
    7b80:	e8 de d9 ff ff       	callq  5563 <safe_rshift_func_int16_t_s_u>
    7b85:	48 8b 15 ec cf 00 00 	mov    0xcfec(%rip),%rdx        # 14b78 <g_162>
    7b8c:	8b 0a                	mov    (%rdx),%ecx
    7b8e:	0f bf d0             	movswl %ax,%edx
    7b91:	48 8b 05 e0 cf 00 00 	mov    0xcfe0(%rip),%rax        # 14b78 <g_162>
    7b98:	09 ca                	or     %ecx,%edx
    7b9a:	89 10                	mov    %edx,(%rax)
    7b9c:	8b 00                	mov    (%rax),%eax
    7b9e:	89 c6                	mov    %eax,%esi
    7ba0:	bf fa ff ff ff       	mov    $0xfffffffa,%edi
    7ba5:	e8 22 db ff ff       	callq  56cc <safe_mod_func_int32_t_s_s>
    7baa:	41 39 c4             	cmp    %eax,%r12d
    7bad:	7e 07                	jle    7bb6 <func_50+0xc1e>
    7baf:	b8 01 00 00 00       	mov    $0x1,%eax
    7bb4:	eb 05                	jmp    7bbb <func_50+0xc23>
    7bb6:	b8 00 00 00 00       	mov    $0x0,%eax
    7bbb:	48 98                	cltq   
    7bbd:	48 89 c7             	mov    %rax,%rdi
    7bc0:	e8 51 dc ff ff       	callq  5816 <safe_unary_minus_func_int64_t_s>
    7bc5:	89 c2                	mov    %eax,%edx
    7bc7:	8b 85 d0 f2 ff ff    	mov    -0xd30(%rbp),%eax
    7bcd:	21 d0                	and    %edx,%eax
    7bcf:	89 c2                	mov    %eax,%edx
    7bd1:	48 8b 85 b0 f3 ff ff 	mov    -0xc50(%rbp),%rax
    7bd8:	88 10                	mov    %dl,(%rax)
    7bda:	48 8b 85 b0 f3 ff ff 	mov    -0xc50(%rbp),%rax
    7be1:	0f b6 00             	movzbl (%rax),%eax
    7be4:	0f be d0             	movsbl %al,%edx
    7be7:	8b 85 d0 f2 ff ff    	mov    -0xd30(%rbp),%eax
    7bed:	0f be c0             	movsbl %al,%eax
    7bf0:	89 d6                	mov    %edx,%esi
    7bf2:	89 c7                	mov    %eax,%edi
    7bf4:	e8 db d5 ff ff       	callq  51d4 <safe_add_func_int8_t_s_s>
    7bf9:	48 8b 05 f8 cf 00 00 	mov    0xcff8(%rip),%rax        # 14bf8 <g_334>
    7c00:	48 8b 00             	mov    (%rax),%rax
    7c03:	48 39 85 b8 f3 ff ff 	cmp    %rax,-0xc48(%rbp)
    7c0a:	74 0a                	je     7c16 <func_50+0xc7e>
    7c0c:	b8 4c 8e ff ff       	mov    $0xffff8e4c,%eax
    7c11:	66 85 c0             	test   %ax,%ax
    7c14:	74 07                	je     7c1d <func_50+0xc85>
    7c16:	b8 01 00 00 00       	mov    $0x1,%eax
    7c1b:	eb 05                	jmp    7c22 <func_50+0xc8a>
    7c1d:	b8 00 00 00 00       	mov    $0x0,%eax
    7c22:	0f be c0             	movsbl %al,%eax
    7c25:	89 de                	mov    %ebx,%esi
    7c27:	89 c7                	mov    %eax,%edi
    7c29:	e8 e4 d5 ff ff       	callq  5212 <safe_mul_func_int8_t_s_s>
    7c2e:	c7 85 d4 f2 ff ff 00 	movl   $0x0,-0xd2c(%rbp)
    7c35:	00 00 00 
    7c38:	48 c7 05 f5 b3 00 00 	movq   $0x0,0xb3f5(%rip)        # 13038 <g_108>
    7c3f:	00 00 00 00 
    7c43:	e9 1e 19 00 00       	jmpq   9566 <func_50+0x25ce>
    7c48:	c7 85 a8 f2 ff ff f6 	movl   $0xfffffff6,-0xd58(%rbp)
    7c4f:	ff ff ff 
    7c52:	48 8d 05 97 d9 00 00 	lea    0xd997(%rip),%rax        # 155f0 <g_963>
    7c59:	48 89 85 e8 f3 ff ff 	mov    %rax,-0xc18(%rbp)
    7c60:	48 8d 05 c1 b8 00 00 	lea    0xb8c1(%rip),%rax        # 13528 <g_720>
    7c67:	48 89 85 f0 f3 ff ff 	mov    %rax,-0xc10(%rbp)
    7c6e:	48 8d 05 3b b5 00 00 	lea    0xb53b(%rip),%rax        # 131b0 <g_482>
    7c75:	48 89 85 f8 f3 ff ff 	mov    %rax,-0xc08(%rbp)
    7c7c:	48 c7 85 00 f4 ff ff 	movq   $0xffffffffffffffff,-0xc00(%rbp)
    7c83:	ff ff ff ff 
    7c87:	c7 85 dc f2 ff ff 06 	movl   $0x6,-0xd24(%rbp)
    7c8e:	00 00 00 
    7c91:	c7 85 e0 f2 ff ff 1f 	movl   $0xd3de0c1f,-0xd20(%rbp)
    7c98:	0c de d3 
    7c9b:	c7 85 ac f2 ff ff d8 	movl   $0x6d3c23d8,-0xd54(%rbp)
    7ca2:	23 3c 6d 
    7ca5:	c7 85 e4 f2 ff ff cc 	movl   $0xc265cacc,-0xd1c(%rbp)
    7cac:	ca 65 c2 
    7caf:	48 8d 05 42 d1 00 00 	lea    0xd142(%rip),%rax        # 14df8 <g_876>
    7cb6:	48 89 85 08 f4 ff ff 	mov    %rax,-0xbf8(%rbp)
    7cbd:	c7 85 e8 f2 ff ff f9 	movl   $0xb30149f9,-0xd18(%rbp)
    7cc4:	49 01 b3 
    7cc7:	48 c7 85 58 f3 ff ff 	movq   $0x0,-0xca8(%rbp)
    7cce:	00 00 00 00 
    7cd2:	c7 85 b0 f2 ff ff 00 	movl   $0x0,-0xd50(%rbp)
    7cd9:	00 00 00 
    7cdc:	eb 19                	jmp    7cf7 <func_50+0xd5f>
    7cde:	8b 85 b0 f2 ff ff    	mov    -0xd50(%rbp),%eax
    7ce4:	48 98                	cltq   
    7ce6:	66 c7 84 45 10 f5 ff 	movw   $0xffff,-0xaf0(%rbp,%rax,2)
    7ced:	ff ff ff 
    7cf0:	83 85 b0 f2 ff ff 01 	addl   $0x1,-0xd50(%rbp)
    7cf7:	83 bd b0 f2 ff ff 00 	cmpl   $0x0,-0xd50(%rbp)
    7cfe:	7e de                	jle    7cde <func_50+0xd46>
    7d00:	48 8b 05 01 d1 00 00 	mov    0xd101(%rip),%rax        # 14e08 <g_899>
    7d07:	c6 00 36             	movb   $0x36,(%rax)
    7d0a:	be 77 75 7a 78       	mov    $0x787a7577,%esi
    7d0f:	bf fe ff ff ff       	mov    $0xfffffffe,%edi
    7d14:	e8 0c e2 ff ff       	callq  5f25 <safe_div_func_uint32_t_u_u>
    7d19:	48 8b 15 d0 d8 00 00 	mov    0xd8d0(%rip),%rdx        # 155f0 <g_963>
    7d20:	48 8b 85 e8 f3 ff ff 	mov    -0xc18(%rbp),%rax
    7d27:	48 89 10             	mov    %rdx,(%rax)
    7d2a:	48 8b 85 e8 f3 ff ff 	mov    -0xc18(%rbp),%rax
    7d31:	48 8b 00             	mov    (%rax),%rax
    7d34:	48 8d 15 0d b0 00 00 	lea    0xb00d(%rip),%rdx        # 12d48 <g_619>
    7d3b:	48 39 d0             	cmp    %rdx,%rax
    7d3e:	0f 95 c0             	setne  %al
    7d41:	0f b6 c0             	movzbl %al,%eax
    7d44:	39 85 a8 f2 ff ff    	cmp    %eax,-0xd58(%rbp)
    7d4a:	0f 97 c0             	seta   %al
    7d4d:	0f b6 d0             	movzbl %al,%edx
    7d50:	48 8b 85 f0 f3 ff ff 	mov    -0xc10(%rbp),%rax
    7d57:	48 89 10             	mov    %rdx,(%rax)
    7d5a:	48 8b 85 f0 f3 ff ff 	mov    -0xc10(%rbp),%rax
    7d61:	48 8b 10             	mov    (%rax),%rdx
    7d64:	48 8b 85 f8 f3 ff ff 	mov    -0xc08(%rbp),%rax
    7d6b:	48 89 10             	mov    %rdx,(%rax)
    7d6e:	48 8b 85 f8 f3 ff ff 	mov    -0xc08(%rbp),%rax
    7d75:	48 8b 00             	mov    (%rax),%rax
    7d78:	48 85 c0             	test   %rax,%rax
    7d7b:	74 07                	je     7d84 <func_50+0xdec>
    7d7d:	b8 01 00 00 00       	mov    $0x1,%eax
    7d82:	eb 05                	jmp    7d89 <func_50+0xdf1>
    7d84:	b8 00 00 00 00       	mov    $0x0,%eax
    7d89:	3b 85 6c f2 ff ff    	cmp    -0xd94(%rbp),%eax
    7d8f:	0f 95 c0             	setne  %al
    7d92:	0f b6 d0             	movzbl %al,%edx
    7d95:	48 8b 05 9c b7 00 00 	mov    0xb79c(%rip),%rax        # 13538 <g_769>
    7d9c:	48 39 c2             	cmp    %rax,%rdx
    7d9f:	0f 92 c0             	setb   %al
    7da2:	0f b6 c0             	movzbl %al,%eax
    7da5:	39 85 6c f2 ff ff    	cmp    %eax,-0xd94(%rbp)
    7dab:	0f 9c c0             	setl   %al
    7dae:	0f b6 c8             	movzbl %al,%ecx
    7db1:	48 8b 85 08 f2 ff ff 	mov    -0xdf8(%rbp),%rax
    7db8:	48 8b 00             	mov    (%rax),%rax
    7dbb:	8b 10                	mov    (%rax),%edx
    7dbd:	48 8b 85 08 f2 ff ff 	mov    -0xdf8(%rbp),%rax
    7dc4:	48 8b 00             	mov    (%rax),%rax
    7dc7:	09 ca                	or     %ecx,%edx
    7dc9:	89 10                	mov    %edx,(%rax)
    7dcb:	c7 85 a8 f2 ff ff 00 	movl   $0x0,-0xd58(%rbp)
    7dd2:	00 00 00 
    7dd5:	e9 9b 04 00 00       	jmpq   8275 <func_50+0x12dd>
    7dda:	c7 85 40 f9 ff ff 05 	movl   $0x5,-0x6c0(%rbp)
    7de1:	00 00 00 
    7de4:	c7 85 44 f9 ff ff fd 	movl   $0xfffffffd,-0x6bc(%rbp)
    7deb:	ff ff ff 
    7dee:	c7 85 48 f9 ff ff 05 	movl   $0x5,-0x6b8(%rbp)
    7df5:	00 00 00 
    7df8:	c7 85 4c f9 ff ff 05 	movl   $0x5,-0x6b4(%rbp)
    7dff:	00 00 00 
    7e02:	c7 85 50 f9 ff ff fd 	movl   $0xfffffffd,-0x6b0(%rbp)
    7e09:	ff ff ff 
    7e0c:	c7 85 54 f9 ff ff 05 	movl   $0x5,-0x6ac(%rbp)
    7e13:	00 00 00 
    7e16:	c7 85 58 f9 ff ff 05 	movl   $0x5,-0x6a8(%rbp)
    7e1d:	00 00 00 
    7e20:	c7 85 5c f9 ff ff fd 	movl   $0xfffffffd,-0x6a4(%rbp)
    7e27:	ff ff ff 
    7e2a:	c7 85 60 f9 ff ff 05 	movl   $0x5,-0x6a0(%rbp)
    7e31:	00 00 00 
    7e34:	c7 85 64 f9 ff ff 05 	movl   $0x5,-0x69c(%rbp)
    7e3b:	00 00 00 
    7e3e:	c7 85 68 f9 ff ff fd 	movl   $0xfffffffd,-0x698(%rbp)
    7e45:	ff ff ff 
    7e48:	c7 85 6c f9 ff ff 05 	movl   $0x5,-0x694(%rbp)
    7e4f:	00 00 00 
    7e52:	c7 85 70 f9 ff ff 05 	movl   $0x5,-0x690(%rbp)
    7e59:	00 00 00 
    7e5c:	c7 85 74 f9 ff ff fd 	movl   $0xfffffffd,-0x68c(%rbp)
    7e63:	ff ff ff 
    7e66:	c7 85 78 f9 ff ff 05 	movl   $0x5,-0x688(%rbp)
    7e6d:	00 00 00 
    7e70:	c7 85 7c f9 ff ff 05 	movl   $0x5,-0x684(%rbp)
    7e77:	00 00 00 
    7e7a:	c7 85 80 f9 ff ff fd 	movl   $0xfffffffd,-0x680(%rbp)
    7e81:	ff ff ff 
    7e84:	c7 85 84 f9 ff ff 05 	movl   $0x5,-0x67c(%rbp)
    7e8b:	00 00 00 
    7e8e:	c7 85 88 f9 ff ff 05 	movl   $0x5,-0x678(%rbp)
    7e95:	00 00 00 
    7e98:	c7 85 8c f9 ff ff fd 	movl   $0xfffffffd,-0x674(%rbp)
    7e9f:	ff ff ff 
    7ea2:	c7 85 90 f9 ff ff 05 	movl   $0x5,-0x670(%rbp)
    7ea9:	00 00 00 
    7eac:	c7 85 94 f9 ff ff 05 	movl   $0x5,-0x66c(%rbp)
    7eb3:	00 00 00 
    7eb6:	c7 85 98 f9 ff ff fd 	movl   $0xfffffffd,-0x668(%rbp)
    7ebd:	ff ff ff 
    7ec0:	c7 85 9c f9 ff ff 05 	movl   $0x5,-0x664(%rbp)
    7ec7:	00 00 00 
    7eca:	c7 85 a0 f9 ff ff 05 	movl   $0x5,-0x660(%rbp)
    7ed1:	00 00 00 
    7ed4:	c7 85 a4 f9 ff ff fd 	movl   $0xfffffffd,-0x65c(%rbp)
    7edb:	ff ff ff 
    7ede:	c7 85 a8 f9 ff ff 05 	movl   $0x5,-0x658(%rbp)
    7ee5:	00 00 00 
    7ee8:	c7 85 ac f9 ff ff 05 	movl   $0x5,-0x654(%rbp)
    7eef:	00 00 00 
    7ef2:	c7 85 b0 f9 ff ff fd 	movl   $0xfffffffd,-0x650(%rbp)
    7ef9:	ff ff ff 
    7efc:	c7 85 b4 f9 ff ff 05 	movl   $0x5,-0x64c(%rbp)
    7f03:	00 00 00 
    7f06:	c7 85 b8 f9 ff ff 05 	movl   $0x5,-0x648(%rbp)
    7f0d:	00 00 00 
    7f10:	c7 85 bc f9 ff ff fd 	movl   $0xfffffffd,-0x644(%rbp)
    7f17:	ff ff ff 
    7f1a:	c7 85 c0 f9 ff ff 05 	movl   $0x5,-0x640(%rbp)
    7f21:	00 00 00 
    7f24:	c7 85 c4 f9 ff ff 05 	movl   $0x5,-0x63c(%rbp)
    7f2b:	00 00 00 
    7f2e:	c7 85 c8 f9 ff ff fd 	movl   $0xfffffffd,-0x638(%rbp)
    7f35:	ff ff ff 
    7f38:	c7 85 cc f9 ff ff 05 	movl   $0x5,-0x634(%rbp)
    7f3f:	00 00 00 
    7f42:	c7 85 d0 f9 ff ff 05 	movl   $0x5,-0x630(%rbp)
    7f49:	00 00 00 
    7f4c:	c7 85 d4 f9 ff ff fd 	movl   $0xfffffffd,-0x62c(%rbp)
    7f53:	ff ff ff 
    7f56:	c7 85 d8 f9 ff ff 05 	movl   $0x5,-0x628(%rbp)
    7f5d:	00 00 00 
    7f60:	c7 85 dc f9 ff ff 05 	movl   $0x5,-0x624(%rbp)
    7f67:	00 00 00 
    7f6a:	c7 85 e0 f9 ff ff fd 	movl   $0xfffffffd,-0x620(%rbp)
    7f71:	ff ff ff 
    7f74:	c7 85 e4 f9 ff ff 05 	movl   $0x5,-0x61c(%rbp)
    7f7b:	00 00 00 
    7f7e:	48 8d 05 40 b1 00 00 	lea    0xb140(%rip),%rax        # 130c5 <g_290+0x65>
    7f85:	48 89 85 40 f4 ff ff 	mov    %rax,-0xbc0(%rbp)
    7f8c:	48 c7 85 48 f4 ff ff 	movq   $0x0,-0xbb8(%rbp)
    7f93:	00 00 00 00 
    7f97:	48 8d 05 8a b0 00 00 	lea    0xb08a(%rip),%rax        # 13028 <g_34>
    7f9e:	48 89 85 50 f4 ff ff 	mov    %rax,-0xbb0(%rbp)
    7fa5:	8b 85 d0 f2 ff ff    	mov    -0xd30(%rbp),%eax
    7fab:	0f bf d8             	movswl %ax,%ebx
    7fae:	48 8d 05 5b cd 00 00 	lea    0xcd5b(%rip),%rax        # 14d10 <g_620>
    7fb5:	48 8b 00             	mov    (%rax),%rax
    7fb8:	0f b7 00             	movzwl (%rax),%eax
    7fbb:	44 0f bf e0          	movswl %ax,%r12d
    7fbf:	0f b7 85 1c f2 ff ff 	movzwl -0xde4(%rbp),%eax
    7fc6:	44 0f bf e8          	movswl %ax,%r13d
    7fca:	0f b7 85 1c f2 ff ff 	movzwl -0xde4(%rbp),%eax
    7fd1:	98                   	cwtl   
    7fd2:	23 85 18 f2 ff ff    	and    -0xde8(%rbp),%eax
    7fd8:	89 c2                	mov    %eax,%edx
    7fda:	0f b7 85 1c f2 ff ff 	movzwl -0xde4(%rbp),%eax
    7fe1:	98                   	cwtl   
    7fe2:	39 c2                	cmp    %eax,%edx
    7fe4:	0f 9e c0             	setle  %al
    7fe7:	0f b6 c0             	movzbl %al,%eax
    7fea:	be 88 62 00 00       	mov    $0x6288,%esi
    7fef:	89 c7                	mov    %eax,%edi
    7ff1:	e8 98 dd ff ff       	callq  5d8e <safe_div_func_uint16_t_u_u>
    7ff6:	98                   	cwtl   
    7ff7:	44 89 ee             	mov    %r13d,%esi
    7ffa:	89 c7                	mov    %eax,%edi
    7ffc:	e8 e0 d4 ff ff       	callq  54e1 <safe_lshift_func_int16_t_s_u>
    8001:	66 85 c0             	test   %ax,%ax
    8004:	75 0a                	jne    8010 <func_50+0x1078>
    8006:	48 83 bd 00 f4 ff ff 	cmpq   $0x0,-0xc00(%rbp)
    800d:	00 
    800e:	74 07                	je     8017 <func_50+0x107f>
    8010:	b8 01 00 00 00       	mov    $0x1,%eax
    8015:	eb 05                	jmp    801c <func_50+0x1084>
    8017:	b8 00 00 00 00       	mov    $0x0,%eax
    801c:	98                   	cwtl   
    801d:	44 89 e6             	mov    %r12d,%esi
    8020:	89 c7                	mov    %eax,%edi
    8022:	e8 ce d3 ff ff       	callq  53f5 <safe_mul_func_int16_t_s_s>
    8027:	0f b7 c0             	movzwl %ax,%eax
    802a:	be 27 61 00 00       	mov    $0x6127,%esi
    802f:	89 c7                	mov    %eax,%edi
    8031:	e8 07 dd ff ff       	callq  5d3d <safe_mul_func_uint16_t_u_u>
    8036:	0f b7 d0             	movzwl %ax,%edx
    8039:	0f b7 85 1c f2 ff ff 	movzwl -0xde4(%rbp),%eax
    8040:	98                   	cwtl   
    8041:	39 c2                	cmp    %eax,%edx
    8043:	0f 9f c0             	setg   %al
    8046:	0f b6 d0             	movzbl %al,%edx
    8049:	48 8b 85 40 f4 ff ff 	mov    -0xbc0(%rbp),%rax
    8050:	0f b6 00             	movzbl (%rax),%eax
    8053:	31 c2                	xor    %eax,%edx
    8055:	48 8b 85 40 f4 ff ff 	mov    -0xbc0(%rbp),%rax
    805c:	88 10                	mov    %dl,(%rax)
    805e:	48 8b 95 30 f5 ff ff 	mov    -0xad0(%rbp),%rdx
    8065:	48 8b 05 9c cd 00 00 	mov    0xcd9c(%rip),%rax        # 14e08 <g_899>
    806c:	88 10                	mov    %dl,(%rax)
    806e:	48 8b 85 00 f4 ff ff 	mov    -0xc00(%rbp),%rax
    8075:	0f b6 d0             	movzbl %al,%edx
    8078:	0f b7 85 1c f2 ff ff 	movzwl -0xde4(%rbp),%eax
    807f:	0f b6 c0             	movzbl %al,%eax
    8082:	89 d6                	mov    %edx,%esi
    8084:	89 c7                	mov    %eax,%edi
    8086:	e8 08 db ff ff       	callq  5b93 <safe_mul_func_uint8_t_u_u>
    808b:	0f b6 c0             	movzbl %al,%eax
    808e:	ba 4c 8e ff ff       	mov    $0xffff8e4c,%edx
    8093:	66 39 d0             	cmp    %dx,%ax
    8096:	0f 94 c0             	sete   %al
    8099:	0f b6 d0             	movzbl %al,%edx
    809c:	48 8b 85 30 f5 ff ff 	mov    -0xad0(%rbp),%rax
    80a3:	48 39 c2             	cmp    %rax,%rdx
    80a6:	0f 95 c0             	setne  %al
    80a9:	0f b6 d0             	movzbl %al,%edx
    80ac:	48 8b 85 08 f2 ff ff 	mov    -0xdf8(%rbp),%rax
    80b3:	48 8b 00             	mov    (%rax),%rax
    80b6:	8b 00                	mov    (%rax),%eax
    80b8:	39 c2                	cmp    %eax,%edx
    80ba:	0f 94 c0             	sete   %al
    80bd:	0f b6 c0             	movzbl %al,%eax
    80c0:	39 85 d0 f2 ff ff    	cmp    %eax,-0xd30(%rbp)
    80c6:	0f 96 c0             	setbe  %al
    80c9:	0f b6 c0             	movzbl %al,%eax
    80cc:	89 de                	mov    %ebx,%esi
    80ce:	89 c7                	mov    %eax,%edi
    80d0:	e8 de d2 ff ff       	callq  53b3 <safe_add_func_int16_t_s_s>
    80d5:	48 8b 05 34 cc 00 00 	mov    0xcc34(%rip),%rax        # 14d10 <g_620>
    80dc:	0f b7 00             	movzwl (%rax),%eax
    80df:	0f b7 c0             	movzwl %ax,%eax
    80e2:	48 0b 85 80 f3 ff ff 	or     -0xc80(%rbp),%rax
    80e9:	48 89 c2             	mov    %rax,%rdx
    80ec:	8b 85 18 f2 ff ff    	mov    -0xde8(%rbp),%eax
    80f2:	48 98                	cltq   
    80f4:	48 89 d6             	mov    %rdx,%rsi
    80f7:	48 89 c7             	mov    %rax,%rdi
    80fa:	e8 42 d7 ff ff       	callq  5841 <safe_add_func_int64_t_s_s>
    80ff:	23 85 70 f2 ff ff    	and    -0xd90(%rbp),%eax
    8105:	89 c2                	mov    %eax,%edx
    8107:	8b 8d 84 f9 ff ff    	mov    -0x67c(%rbp),%ecx
    810d:	48 8b 85 b0 f3 ff ff 	mov    -0xc50(%rbp),%rax
    8114:	0f b6 00             	movzbl (%rax),%eax
    8117:	89 c6                	mov    %eax,%esi
    8119:	8b 85 18 f2 ff ff    	mov    -0xde8(%rbp),%eax
    811f:	09 f0                	or     %esi,%eax
    8121:	89 c6                	mov    %eax,%esi
    8123:	48 8b 85 b0 f3 ff ff 	mov    -0xc50(%rbp),%rax
    812a:	40 88 30             	mov    %sil,(%rax)
    812d:	48 8b 85 b0 f3 ff ff 	mov    -0xc50(%rbp),%rax
    8134:	0f b6 00             	movzbl (%rax),%eax
    8137:	0f b6 c0             	movzbl %al,%eax
    813a:	39 c1                	cmp    %eax,%ecx
    813c:	0f 93 c0             	setae  %al
    813f:	0f b6 c0             	movzbl %al,%eax
    8142:	89 d6                	mov    %edx,%esi
    8144:	89 c7                	mov    %eax,%edi
    8146:	e8 56 d1 ff ff       	callq  52a1 <safe_lshift_func_int8_t_s_s>
    814b:	c0 e8 07             	shr    $0x7,%al
    814e:	0f b6 c0             	movzbl %al,%eax
    8151:	39 85 a8 f2 ff ff    	cmp    %eax,-0xd58(%rbp)
    8157:	0f 96 c0             	setbe  %al
    815a:	0f b6 c0             	movzbl %al,%eax
    815d:	0b 85 18 f2 ff ff    	or     -0xde8(%rbp),%eax
    8163:	89 c2                	mov    %eax,%edx
    8165:	48 8b 85 50 f4 ff ff 	mov    -0xbb0(%rbp),%rax
    816c:	8b 00                	mov    (%rax),%eax
    816e:	09 c2                	or     %eax,%edx
    8170:	48 8b 85 50 f4 ff ff 	mov    -0xbb0(%rbp),%rax
    8177:	89 10                	mov    %edx,(%rax)
    8179:	c6 05 9c b3 00 00 00 	movb   $0x0,0xb39c(%rip)        # 1351c <g_618+0x4>
    8180:	e9 da 00 00 00       	jmpq   825f <func_50+0x12c7>
    8185:	48 8b 85 50 f4 ff ff 	mov    -0xbb0(%rbp),%rax
    818c:	8b 30                	mov    (%rax),%esi
    818e:	48 8b 15 a3 ae 00 00 	mov    0xaea3(%rip),%rdx        # 13038 <g_108>
    8195:	0f b6 05 80 b3 00 00 	movzbl 0xb380(%rip),%eax        # 1351c <g_618+0x4>
    819c:	0f b6 c0             	movzbl %al,%eax
    819f:	48 63 f8             	movslq %eax,%rdi
    81a2:	8b 8d a8 f2 ff ff    	mov    -0xd58(%rbp),%ecx
    81a8:	48 89 d0             	mov    %rdx,%rax
    81ab:	48 c1 e0 02          	shl    $0x2,%rax
    81af:	48 01 d0             	add    %rdx,%rax
    81b2:	48 8d 14 85 00 00 00 	lea    0x0(,%rax,4),%rdx
    81b9:	00 
    81ba:	48 01 d0             	add    %rdx,%rax
    81bd:	48 89 ca             	mov    %rcx,%rdx
    81c0:	48 c1 e2 02          	shl    $0x2,%rdx
    81c4:	48 01 ca             	add    %rcx,%rdx
    81c7:	48 01 d0             	add    %rdx,%rax
    81ca:	48 8d 14 38          	lea    (%rax,%rdi,1),%rdx
    81ce:	48 8d 05 8b ae 00 00 	lea    0xae8b(%rip),%rax        # 13060 <g_290>
    81d5:	48 01 d0             	add    %rdx,%rax
    81d8:	0f b6 00             	movzbl (%rax),%eax
    81db:	0f be c0             	movsbl %al,%eax
    81de:	21 c6                	and    %eax,%esi
    81e0:	89 f2                	mov    %esi,%edx
    81e2:	48 8b 85 50 f4 ff ff 	mov    -0xbb0(%rbp),%rax
    81e9:	89 10                	mov    %edx,(%rax)
    81eb:	c7 05 33 ae 00 00 04 	movl   $0x4,0xae33(%rip)        # 13028 <g_34>
    81f2:	00 00 00 
    81f5:	eb 4e                	jmp    8245 <func_50+0x12ad>
    81f7:	c7 85 b4 f2 ff ff 00 	movl   $0x0,-0xd4c(%rbp)
    81fe:	00 00 00 
    8201:	eb 19                	jmp    821c <func_50+0x1284>
    8203:	8b 85 b4 f2 ff ff    	mov    -0xd4c(%rbp),%eax
    8209:	48 98                	cltq   
    820b:	66 c7 84 45 10 f6 ff 	movw   $0xfae9,-0x9f0(%rbp,%rax,2)
    8212:	ff e9 fa 
    8215:	83 85 b4 f2 ff ff 01 	addl   $0x1,-0xd4c(%rbp)
    821c:	83 bd b4 f2 ff ff 02 	cmpl   $0x2,-0xd4c(%rbp)
    8223:	7e de                	jle    8203 <func_50+0x126b>
    8225:	0f b7 85 10 f6 ff ff 	movzwl -0x9f0(%rbp),%eax
    822c:	83 c0 01             	add    $0x1,%eax
    822f:	66 89 85 10 f6 ff ff 	mov    %ax,-0x9f0(%rbp)
    8236:	8b 05 ec ad 00 00    	mov    0xadec(%rip),%eax        # 13028 <g_34>
    823c:	83 e8 01             	sub    $0x1,%eax
    823f:	89 05 e3 ad 00 00    	mov    %eax,0xade3(%rip)        # 13028 <g_34>
    8245:	8b 05 dd ad 00 00    	mov    0xaddd(%rip),%eax        # 13028 <g_34>
    824b:	85 c0                	test   %eax,%eax
    824d:	7f a8                	jg     81f7 <func_50+0x125f>
    824f:	0f b6 05 c6 b2 00 00 	movzbl 0xb2c6(%rip),%eax        # 1351c <g_618+0x4>
    8256:	83 c0 01             	add    $0x1,%eax
    8259:	88 05 bd b2 00 00    	mov    %al,0xb2bd(%rip)        # 1351c <g_618+0x4>
    825f:	0f b6 05 b6 b2 00 00 	movzbl 0xb2b6(%rip),%eax        # 1351c <g_618+0x4>
    8266:	3c 03                	cmp    $0x3,%al
    8268:	0f 86 17 ff ff ff    	jbe    8185 <func_50+0x11ed>
    826e:	83 85 a8 f2 ff ff 01 	addl   $0x1,-0xd58(%rbp)
    8275:	83 bd a8 f2 ff ff 03 	cmpl   $0x3,-0xd58(%rbp)
    827c:	0f 86 58 fb ff ff    	jbe    7dda <func_50+0xe42>
    8282:	48 8b 05 8f ca 00 00 	mov    0xca8f(%rip),%rax        # 14d18 <g_658>
    8289:	8b 00                	mov    (%rax),%eax
    828b:	85 c0                	test   %eax,%eax
    828d:	0f 85 c0 12 00 00    	jne    9553 <func_50+0x25bb>
    8293:	c6 05 96 ad 00 00 00 	movb   $0x0,0xad96(%rip)        # 13030 <g_62>
    829a:	e9 a3 12 00 00       	jmpq   9542 <func_50+0x25aa>
    829f:	48 c7 85 10 f4 ff ff 	movq   $0x1,-0xbf0(%rbp)
    82a6:	01 00 00 00 
    82aa:	c7 85 ec f2 ff ff ff 	movl   $0xffffffff,-0xd14(%rbp)
    82b1:	ff ff ff 
    82b4:	c7 85 f0 f2 ff ff ff 	movl   $0xffffffff,-0xd10(%rbp)
    82bb:	ff ff ff 
    82be:	c7 85 b8 f2 ff ff ff 	movl   $0xffffffff,-0xd48(%rbp)
    82c5:	ff ff ff 
    82c8:	c7 85 f4 f2 ff ff b6 	movl   $0x191870b6,-0xd0c(%rbp)
    82cf:	70 18 19 
    82d2:	c7 85 f8 f2 ff ff 79 	movl   $0x6f089179,-0xd08(%rbp)
    82d9:	91 08 6f 
    82dc:	c7 85 40 f5 ff ff fe 	movl   $0xfffffffe,-0xac0(%rbp)
    82e3:	ff ff ff 
    82e6:	c7 85 44 f5 ff ff fe 	movl   $0xfffffffe,-0xabc(%rbp)
    82ed:	ff ff ff 
    82f0:	c7 85 48 f5 ff ff fe 	movl   $0xfffffffe,-0xab8(%rbp)
    82f7:	ff ff ff 
    82fa:	c7 85 4c f5 ff ff fe 	movl   $0xfffffffe,-0xab4(%rbp)
    8301:	ff ff ff 
    8304:	c7 85 50 f5 ff ff fe 	movl   $0xfffffffe,-0xab0(%rbp)
    830b:	ff ff ff 
    830e:	c7 85 54 f5 ff ff fe 	movl   $0xfffffffe,-0xaac(%rbp)
    8315:	ff ff ff 
    8318:	48 8d 85 d0 f7 ff ff 	lea    -0x830(%rbp),%rax
    831f:	48 83 c0 18          	add    $0x18,%rax
    8323:	48 89 85 18 f4 ff ff 	mov    %rax,-0xbe8(%rbp)
    832a:	48 c7 05 7b ae 00 00 	movq   $0x1,0xae7b(%rip)        # 131b0 <g_482>
    8331:	01 00 00 00 
    8335:	90                   	nop
    8336:	48 8b 05 73 ae 00 00 	mov    0xae73(%rip),%rax        # 131b0 <g_482>
    833d:	48 83 f8 04          	cmp    $0x4,%rax
    8341:	7f 59                	jg     839c <func_50+0x1404>
    8343:	48 8b 05 ee ac 00 00 	mov    0xacee(%rip),%rax        # 13038 <g_108>
    834a:	48 8d 48 01          	lea    0x1(%rax),%rcx
    834e:	0f b6 05 db ac 00 00 	movzbl 0xacdb(%rip),%eax        # 13030 <g_62>
    8355:	0f b6 c0             	movzbl %al,%eax
    8358:	48 8b 35 d9 ac 00 00 	mov    0xacd9(%rip),%rsi        # 13038 <g_108>
    835f:	48 98                	cltq   
    8361:	48 89 c2             	mov    %rax,%rdx
    8364:	48 c1 e2 02          	shl    $0x2,%rdx
    8368:	48 01 c2             	add    %rax,%rdx
    836b:	48 89 c8             	mov    %rcx,%rax
    836e:	48 c1 e0 02          	shl    $0x2,%rax
    8372:	48 01 c8             	add    %rcx,%rax
    8375:	48 8d 0c 85 00 00 00 	lea    0x0(,%rax,4),%rcx
    837c:	00 
    837d:	48 01 c8             	add    %rcx,%rax
    8380:	48 01 d0             	add    %rdx,%rax
    8383:	48 8d 14 30          	lea    (%rax,%rsi,1),%rdx
    8387:	48 8d 05 d2 ac 00 00 	lea    0xacd2(%rip),%rax        # 13060 <g_290>
    838e:	48 01 d0             	add    %rdx,%rax
    8391:	0f b6 00             	movzbl (%rax),%eax
    8394:	0f be c0             	movsbl %al,%eax
    8397:	e9 d0 21 00 00       	jmpq   a56c <func_50+0x35d4>
    839c:	c6 05 79 b1 00 00 00 	movb   $0x0,0xb179(%rip)        # 1351c <g_618+0x4>
    83a3:	e9 da 00 00 00       	jmpq   8482 <func_50+0x14ea>
    83a8:	48 8d 05 7d ac 00 00 	lea    0xac7d(%rip),%rax        # 1302c <g_45>
    83af:	48 89 85 30 f4 ff ff 	mov    %rax,-0xbd0(%rbp)
    83b6:	c7 85 fc f2 ff ff 28 	movl   $0xa833ac28,-0xd04(%rbp)
    83bd:	ac 33 a8 
    83c0:	c7 85 00 f3 ff ff 01 	movl   $0x1,-0xd00(%rbp)
    83c7:	00 00 00 
    83ca:	c7 85 bc f2 ff ff 00 	movl   $0x0,-0xd44(%rbp)
    83d1:	00 00 00 
    83d4:	eb 1a                	jmp    83f0 <func_50+0x1458>
    83d6:	8b 85 bc f2 ff ff    	mov    -0xd44(%rbp),%eax
    83dc:	48 98                	cltq   
    83de:	c7 84 85 10 f6 ff ff 	movl   $0xffffffff,-0x9f0(%rbp,%rax,4)
    83e5:	ff ff ff ff 
    83e9:	83 85 bc f2 ff ff 01 	addl   $0x1,-0xd44(%rbp)
    83f0:	83 bd bc f2 ff ff 02 	cmpl   $0x2,-0xd44(%rbp)
    83f7:	7e dd                	jle    83d6 <func_50+0x143e>
    83f9:	48 8b 85 08 f2 ff ff 	mov    -0xdf8(%rbp),%rax
    8400:	48 8b 95 30 f4 ff ff 	mov    -0xbd0(%rbp),%rdx
    8407:	48 89 10             	mov    %rdx,(%rax)
    840a:	c7 85 6c f2 ff ff 04 	movl   $0x4,-0xd94(%rbp)
    8411:	00 00 00 
    8414:	eb 53                	jmp    8469 <func_50+0x14d1>
    8416:	48 c7 85 38 f4 ff ff 	movq   $0x0,-0xbc8(%rbp)
    841d:	00 00 00 00 
    8421:	c7 85 c0 f2 ff ff 00 	movl   $0x0,-0xd40(%rbp)
    8428:	00 00 00 
    842b:	eb 1b                	jmp    8448 <func_50+0x14b0>
    842d:	8b 85 c0 f2 ff ff    	mov    -0xd40(%rbp),%eax
    8433:	48 98                	cltq   
    8435:	48 c7 84 c5 40 f9 ff 	movq   $0x0,-0x6c0(%rbp,%rax,8)
    843c:	ff 00 00 00 00 
    8441:	83 85 c0 f2 ff ff 01 	addl   $0x1,-0xd40(%rbp)
    8448:	83 bd c0 f2 ff ff 01 	cmpl   $0x1,-0xd40(%rbp)
    844f:	7e dc                	jle    842d <func_50+0x1495>
    8451:	0f b7 85 10 f5 ff ff 	movzwl -0xaf0(%rbp),%eax
    8458:	83 e8 01             	sub    $0x1,%eax
    845b:	66 89 85 10 f5 ff ff 	mov    %ax,-0xaf0(%rbp)
    8462:	83 ad 6c f2 ff ff 01 	subl   $0x1,-0xd94(%rbp)
    8469:	83 bd 6c f2 ff ff 00 	cmpl   $0x0,-0xd94(%rbp)
    8470:	79 a4                	jns    8416 <func_50+0x147e>
    8472:	0f b6 05 a3 b0 00 00 	movzbl 0xb0a3(%rip),%eax        # 1351c <g_618+0x4>
    8479:	83 c0 01             	add    $0x1,%eax
    847c:	88 05 9a b0 00 00    	mov    %al,0xb09a(%rip)        # 1351c <g_618+0x4>
    8482:	0f b6 05 93 b0 00 00 	movzbl 0xb093(%rip),%eax        # 1351c <g_618+0x4>
    8489:	3c 04                	cmp    $0x4,%al
    848b:	0f 86 17 ff ff ff    	jbe    83a8 <func_50+0x1410>
    8491:	0f b7 85 1c f2 ff ff 	movzwl -0xde4(%rbp),%eax
    8498:	66 85 c0             	test   %ax,%ax
    849b:	74 05                	je     84a2 <func_50+0x150a>
    849d:	e9 7f f6 ff ff       	jmpq   7b21 <func_50+0xb89>
    84a2:	48 83 bd 08 f4 ff ff 	cmpq   $0x0,-0xbf8(%rbp)
    84a9:	00 
    84aa:	0f 94 c2             	sete   %dl
    84ad:	48 8b 85 08 f2 ff ff 	mov    -0xdf8(%rbp),%rax
    84b4:	48 8b 00             	mov    (%rax),%rax
    84b7:	0f b6 d2             	movzbl %dl,%edx
    84ba:	89 10                	mov    %edx,(%rax)
    84bc:	c7 85 34 f2 ff ff 03 	movl   $0x3,-0xdcc(%rbp)
    84c3:	00 00 00 
    84c6:	e9 59 10 00 00       	jmpq   9524 <func_50+0x258c>
    84cb:	48 8d 85 60 f5 ff ff 	lea    -0xaa0(%rbp),%rax
    84d2:	48 83 c0 10          	add    $0x10,%rax
    84d6:	48 89 85 20 f4 ff ff 	mov    %rax,-0xbe0(%rbp)
    84dd:	48 8d 85 58 f3 ff ff 	lea    -0xca8(%rbp),%rax
    84e4:	48 89 85 28 f4 ff ff 	mov    %rax,-0xbd8(%rbp)
    84eb:	c7 85 90 f5 ff ff af 	movl   $0xda01d4af,-0xa70(%rbp)
    84f2:	d4 01 da 
    84f5:	c7 85 94 f5 ff ff 96 	movl   $0x403b6b96,-0xa6c(%rbp)
    84fc:	6b 3b 40 
    84ff:	c7 85 98 f5 ff ff 99 	movl   $0x3e4bb999,-0xa68(%rbp)
    8506:	b9 4b 3e 
    8509:	c7 85 9c f5 ff ff fc 	movl   $0xfffffffc,-0xa64(%rbp)
    8510:	ff ff ff 
    8513:	c7 85 a0 f5 ff ff 96 	movl   $0x403b6b96,-0xa60(%rbp)
    851a:	6b 3b 40 
    851d:	c7 85 a4 f5 ff ff fc 	movl   $0xfffffffc,-0xa5c(%rbp)
    8524:	ff ff ff 
    8527:	c7 85 a8 f5 ff ff 00 	movl   $0x0,-0xa58(%rbp)
    852e:	00 00 00 
    8531:	c7 85 ac f5 ff ff af 	movl   $0xda01d4af,-0xa54(%rbp)
    8538:	d4 01 da 
    853b:	c7 85 b0 f5 ff ff 99 	movl   $0x3e4bb999,-0xa50(%rbp)
    8542:	b9 4b 3e 
    8545:	c7 85 b4 f5 ff ff 00 	movl   $0x0,-0xa4c(%rbp)
    854c:	00 00 00 
    854f:	c7 85 b8 f5 ff ff 00 	movl   $0x0,-0xa48(%rbp)
    8556:	00 00 00 
    8559:	c7 85 bc f5 ff ff af 	movl   $0xda01d4af,-0xa44(%rbp)
    8560:	d4 01 da 
    8563:	48 8d 85 40 f5 ff ff 	lea    -0xac0(%rbp),%rax
    856a:	48 83 c0 04          	add    $0x4,%rax
    856e:	48 89 85 10 f6 ff ff 	mov    %rax,-0x9f0(%rbp)
    8575:	48 8d 85 40 f5 ff ff 	lea    -0xac0(%rbp),%rax
    857c:	48 83 c0 04          	add    $0x4,%rax
    8580:	48 89 85 18 f6 ff ff 	mov    %rax,-0x9e8(%rbp)
    8587:	48 8d 85 40 f5 ff ff 	lea    -0xac0(%rbp),%rax
    858e:	48 83 c0 04          	add    $0x4,%rax
    8592:	48 89 85 20 f6 ff ff 	mov    %rax,-0x9e0(%rbp)
    8599:	48 8d 85 40 f5 ff ff 	lea    -0xac0(%rbp),%rax
    85a0:	48 83 c0 04          	add    $0x4,%rax
    85a4:	48 89 85 28 f6 ff ff 	mov    %rax,-0x9d8(%rbp)
    85ab:	48 8d 85 40 f5 ff ff 	lea    -0xac0(%rbp),%rax
    85b2:	48 83 c0 04          	add    $0x4,%rax
    85b6:	48 89 85 30 f6 ff ff 	mov    %rax,-0x9d0(%rbp)
    85bd:	48 8d 85 40 f5 ff ff 	lea    -0xac0(%rbp),%rax
    85c4:	48 83 c0 04          	add    $0x4,%rax
    85c8:	48 89 85 38 f6 ff ff 	mov    %rax,-0x9c8(%rbp)
    85cf:	48 8d 85 40 f5 ff ff 	lea    -0xac0(%rbp),%rax
    85d6:	48 83 c0 04          	add    $0x4,%rax
    85da:	48 89 85 40 f6 ff ff 	mov    %rax,-0x9c0(%rbp)
    85e1:	48 8d 85 40 f5 ff ff 	lea    -0xac0(%rbp),%rax
    85e8:	48 83 c0 04          	add    $0x4,%rax
    85ec:	48 89 85 48 f6 ff ff 	mov    %rax,-0x9b8(%rbp)
    85f3:	48 8d 85 40 f5 ff ff 	lea    -0xac0(%rbp),%rax
    85fa:	48 83 c0 04          	add    $0x4,%rax
    85fe:	48 89 85 50 f6 ff ff 	mov    %rax,-0x9b0(%rbp)
    8605:	48 8d 85 40 f5 ff ff 	lea    -0xac0(%rbp),%rax
    860c:	48 83 c0 04          	add    $0x4,%rax
    8610:	48 89 85 58 f6 ff ff 	mov    %rax,-0x9a8(%rbp)
    8617:	83 bd d0 f2 ff ff 00 	cmpl   $0x0,-0xd30(%rbp)
    861e:	0f 85 0e 01 00 00    	jne    8732 <func_50+0x179a>
    8624:	48 8b 05 dd c5 00 00 	mov    0xc5dd(%rip),%rax        # 14c08 <g_355>
    862b:	48 8b 10             	mov    (%rax),%rdx
    862e:	48 8d 85 1c f2 ff ff 	lea    -0xde4(%rbp),%rax
    8635:	48 39 c2             	cmp    %rax,%rdx
    8638:	0f 94 c0             	sete   %al
    863b:	0f b6 c0             	movzbl %al,%eax
    863e:	be 05 00 00 00       	mov    $0x5,%esi
    8643:	89 c7                	mov    %eax,%edi
    8645:	e8 fe d7 ff ff       	callq  5e48 <safe_rshift_func_uint16_t_u_s>
    864a:	8b 85 dc f2 ff ff    	mov    -0xd24(%rbp),%eax
    8650:	48 98                	cltq   
    8652:	25 4c ca 44 34       	and    $0x3444ca4c,%eax
    8657:	48 89 c2             	mov    %rax,%rdx
    865a:	b8 72 b5 11 89       	mov    $0x8911b572,%eax
    865f:	48 39 c2             	cmp    %rax,%rdx
    8662:	0f 9e c1             	setle  %cl
    8665:	48 8b 15 cc a9 00 00 	mov    0xa9cc(%rip),%rdx        # 13038 <g_108>
    866c:	0f b6 05 bd a9 00 00 	movzbl 0xa9bd(%rip),%eax        # 13030 <g_62>
    8673:	0f b6 c0             	movzbl %al,%eax
    8676:	48 8b 35 bb a9 00 00 	mov    0xa9bb(%rip),%rsi        # 13038 <g_108>
    867d:	41 89 c8             	mov    %ecx,%r8d
    8680:	48 98                	cltq   
    8682:	48 89 c1             	mov    %rax,%rcx
    8685:	48 c1 e1 02          	shl    $0x2,%rcx
    8689:	48 01 c1             	add    %rax,%rcx
    868c:	48 89 d0             	mov    %rdx,%rax
    868f:	48 c1 e0 02          	shl    $0x2,%rax
    8693:	48 01 d0             	add    %rdx,%rax
    8696:	48 8d 3c 85 00 00 00 	lea    0x0(,%rax,4),%rdi
    869d:	00 
    869e:	48 01 f8             	add    %rdi,%rax
    86a1:	48 01 c8             	add    %rcx,%rax
    86a4:	48 8d 0c 30          	lea    (%rax,%rsi,1),%rcx
    86a8:	48 8d 05 b1 a9 00 00 	lea    0xa9b1(%rip),%rax        # 13060 <g_290>
    86af:	48 01 c8             	add    %rcx,%rax
    86b2:	44 88 00             	mov    %r8b,(%rax)
    86b5:	48 89 d0             	mov    %rdx,%rax
    86b8:	48 c1 e0 02          	shl    $0x2,%rax
    86bc:	48 01 d0             	add    %rdx,%rax
    86bf:	48 8d 14 85 00 00 00 	lea    0x0(,%rax,4),%rdx
    86c6:	00 
    86c7:	48 01 d0             	add    %rdx,%rax
    86ca:	8b 85 18 f2 ff ff    	mov    -0xde8(%rbp),%eax
    86d0:	0f b7 c0             	movzwl %ax,%eax
    86d3:	be 0d 00 00 00       	mov    $0xd,%esi
    86d8:	89 c7                	mov    %eax,%edi
    86da:	e8 9b d7 ff ff       	callq  5e7a <safe_rshift_func_uint16_t_u_u>
    86df:	0f b6 85 29 f2 ff ff 	movzbl -0xdd7(%rbp),%eax
    86e6:	89 85 e4 f2 ff ff    	mov    %eax,-0xd1c(%rbp)
    86ec:	8b 85 e4 f2 ff ff    	mov    -0xd1c(%rbp),%eax
    86f2:	0f b7 d0             	movzwl %ax,%edx
    86f5:	48 8b 05 14 c6 00 00 	mov    0xc614(%rip),%rax        # 14d10 <g_620>
    86fc:	8b 8d dc f2 ff ff    	mov    -0xd24(%rbp),%ecx
    8702:	66 89 08             	mov    %cx,(%rax)
    8705:	0f b7 00             	movzwl (%rax),%eax
    8708:	0f b7 c0             	movzwl %ax,%eax
    870b:	89 d6                	mov    %edx,%esi
    870d:	89 c7                	mov    %eax,%edi
    870f:	e8 29 d6 ff ff       	callq  5d3d <safe_mul_func_uint16_t_u_u>
    8714:	89 c2                	mov    %eax,%edx
    8716:	48 8b 05 eb c6 00 00 	mov    0xc6eb(%rip),%rax        # 14e08 <g_899>
    871d:	0f b6 08             	movzbl (%rax),%ecx
    8720:	48 8b 05 e1 c6 00 00 	mov    0xc6e1(%rip),%rax        # 14e08 <g_899>
    8727:	09 ca                	or     %ecx,%edx
    8729:	88 10                	mov    %dl,(%rax)
    872b:	0f b6 00             	movzbl (%rax),%eax
    872e:	84 c0                	test   %al,%al
    8730:	74 07                	je     8739 <func_50+0x17a1>
    8732:	b8 01 00 00 00       	mov    $0x1,%eax
    8737:	eb 05                	jmp    873e <func_50+0x17a6>
    8739:	b8 00 00 00 00       	mov    $0x0,%eax
    873e:	f7 d0                	not    %eax
    8740:	0f b6 c0             	movzbl %al,%eax
    8743:	be 01 00 00 00       	mov    $0x1,%esi
    8748:	89 c7                	mov    %eax,%edi
    874a:	e8 6f d5 ff ff       	callq  5cbe <safe_rshift_func_uint8_t_u_u>
    874f:	be 02 00 00 00       	mov    $0x2,%esi
    8754:	bf 24 4c 00 00       	mov    $0x4c24,%edi
    8759:	e8 ea d6 ff ff       	callq  5e48 <safe_rshift_func_uint16_t_u_s>
    875e:	89 c2                	mov    %eax,%edx
    8760:	48 8b 05 f9 c3 00 00 	mov    0xc3f9(%rip),%rax        # 14b60 <g_44>
    8767:	0f b7 d2             	movzwl %dx,%edx
    876a:	89 10                	mov    %edx,(%rax)
    876c:	c7 85 b8 f2 ff ff 00 	movl   $0x0,-0xd48(%rbp)
    8773:	00 00 00 
    8776:	e9 e1 0a 00 00       	jmpq   925c <func_50+0x22c4>
    877b:	48 8d 85 50 f3 ff ff 	lea    -0xcb0(%rbp),%rax
    8782:	48 89 85 40 f9 ff ff 	mov    %rax,-0x6c0(%rbp)
    8789:	48 8d 05 b0 d0 00 00 	lea    0xd0b0(%rip),%rax        # 15840 <g_1044+0x240>
    8790:	48 89 85 48 f9 ff ff 	mov    %rax,-0x6b8(%rbp)
    8797:	48 c7 85 50 f9 ff ff 	movq   $0x0,-0x6b0(%rbp)
    879e:	00 00 00 00 
    87a2:	48 c7 85 58 f9 ff ff 	movq   $0x0,-0x6a8(%rbp)
    87a9:	00 00 00 00 
    87ad:	48 8d 85 50 f3 ff ff 	lea    -0xcb0(%rbp),%rax
    87b4:	48 89 85 60 f9 ff ff 	mov    %rax,-0x6a0(%rbp)
    87bb:	48 8d 05 7e d0 00 00 	lea    0xd07e(%rip),%rax        # 15840 <g_1044+0x240>
    87c2:	48 89 85 68 f9 ff ff 	mov    %rax,-0x698(%rbp)
    87c9:	48 c7 85 70 f9 ff ff 	movq   $0x0,-0x690(%rbp)
    87d0:	00 00 00 00 
    87d4:	48 8d 85 50 f3 ff ff 	lea    -0xcb0(%rbp),%rax
    87db:	48 89 85 78 f9 ff ff 	mov    %rax,-0x688(%rbp)
    87e2:	48 c7 85 80 f9 ff ff 	movq   $0x0,-0x680(%rbp)
    87e9:	00 00 00 00 
    87ed:	48 c7 85 88 f9 ff ff 	movq   $0x0,-0x678(%rbp)
    87f4:	00 00 00 00 
    87f8:	48 8d 05 a1 ce 00 00 	lea    0xcea1(%rip),%rax        # 156a0 <g_1044+0xa0>
    87ff:	48 89 85 90 f9 ff ff 	mov    %rax,-0x670(%rbp)
    8806:	48 8d 05 33 d0 00 00 	lea    0xd033(%rip),%rax        # 15840 <g_1044+0x240>
    880d:	48 89 85 98 f9 ff ff 	mov    %rax,-0x668(%rbp)
    8814:	48 c7 85 a0 f9 ff ff 	movq   $0x0,-0x660(%rbp)
    881b:	00 00 00 00 
    881f:	48 c7 85 a8 f9 ff ff 	movq   $0x0,-0x658(%rbp)
    8826:	00 00 00 00 
    882a:	48 8d 85 50 f3 ff ff 	lea    -0xcb0(%rbp),%rax
    8831:	48 89 85 b0 f9 ff ff 	mov    %rax,-0x650(%rbp)
    8838:	48 c7 85 b8 f9 ff ff 	movq   $0x0,-0x648(%rbp)
    883f:	00 00 00 00 
    8843:	48 8d 05 06 ce 00 00 	lea    0xce06(%rip),%rax        # 15650 <g_1044+0x50>
    884a:	48 89 85 c0 f9 ff ff 	mov    %rax,-0x640(%rbp)
    8851:	48 8d 05 f8 cd 00 00 	lea    0xcdf8(%rip),%rax        # 15650 <g_1044+0x50>
    8858:	48 89 85 c8 f9 ff ff 	mov    %rax,-0x638(%rbp)
    885f:	48 8d 85 50 f3 ff ff 	lea    -0xcb0(%rbp),%rax
    8866:	48 89 85 d0 f9 ff ff 	mov    %rax,-0x630(%rbp)
    886d:	48 c7 85 d8 f9 ff ff 	movq   $0x0,-0x628(%rbp)
    8874:	00 00 00 00 
    8878:	48 8d 85 50 f3 ff ff 	lea    -0xcb0(%rbp),%rax
    887f:	48 89 85 e0 f9 ff ff 	mov    %rax,-0x620(%rbp)
    8886:	48 8d 05 b3 cf 00 00 	lea    0xcfb3(%rip),%rax        # 15840 <g_1044+0x240>
    888d:	48 89 85 e8 f9 ff ff 	mov    %rax,-0x618(%rbp)
    8894:	48 8d 05 05 ce 00 00 	lea    0xce05(%rip),%rax        # 156a0 <g_1044+0xa0>
    889b:	48 89 85 f0 f9 ff ff 	mov    %rax,-0x610(%rbp)
    88a2:	48 8d 85 50 f3 ff ff 	lea    -0xcb0(%rbp),%rax
    88a9:	48 89 85 f8 f9 ff ff 	mov    %rax,-0x608(%rbp)
    88b0:	48 8d 05 89 cf 00 00 	lea    0xcf89(%rip),%rax        # 15840 <g_1044+0x240>
    88b7:	48 89 85 00 fa ff ff 	mov    %rax,-0x600(%rbp)
    88be:	48 8d 85 50 f3 ff ff 	lea    -0xcb0(%rbp),%rax
    88c5:	48 89 85 08 fa ff ff 	mov    %rax,-0x5f8(%rbp)
    88cc:	48 8d 85 50 f3 ff ff 	lea    -0xcb0(%rbp),%rax
    88d3:	48 89 85 10 fa ff ff 	mov    %rax,-0x5f0(%rbp)
    88da:	48 8d 85 50 f3 ff ff 	lea    -0xcb0(%rbp),%rax
    88e1:	48 89 85 18 fa ff ff 	mov    %rax,-0x5e8(%rbp)
    88e8:	48 8d 85 50 f3 ff ff 	lea    -0xcb0(%rbp),%rax
    88ef:	48 89 85 20 fa ff ff 	mov    %rax,-0x5e0(%rbp)
    88f6:	48 8d 05 53 cd 00 00 	lea    0xcd53(%rip),%rax        # 15650 <g_1044+0x50>
    88fd:	48 89 85 28 fa ff ff 	mov    %rax,-0x5d8(%rbp)
    8904:	48 8d 05 35 cf 00 00 	lea    0xcf35(%rip),%rax        # 15840 <g_1044+0x240>
    890b:	48 89 85 30 fa ff ff 	mov    %rax,-0x5d0(%rbp)
    8912:	48 8d 05 27 cf 00 00 	lea    0xcf27(%rip),%rax        # 15840 <g_1044+0x240>
    8919:	48 89 85 38 fa ff ff 	mov    %rax,-0x5c8(%rbp)
    8920:	48 8d 85 50 f3 ff ff 	lea    -0xcb0(%rbp),%rax
    8927:	48 89 85 40 fa ff ff 	mov    %rax,-0x5c0(%rbp)
    892e:	48 8d 85 50 f3 ff ff 	lea    -0xcb0(%rbp),%rax
    8935:	48 89 85 48 fa ff ff 	mov    %rax,-0x5b8(%rbp)
    893c:	48 8d 85 50 f3 ff ff 	lea    -0xcb0(%rbp),%rax
    8943:	48 89 85 50 fa ff ff 	mov    %rax,-0x5b0(%rbp)
    894a:	48 8d 05 ef ce 00 00 	lea    0xceef(%rip),%rax        # 15840 <g_1044+0x240>
    8951:	48 89 85 58 fa ff ff 	mov    %rax,-0x5a8(%rbp)
    8958:	48 8d 05 e1 ce 00 00 	lea    0xcee1(%rip),%rax        # 15840 <g_1044+0x240>
    895f:	48 89 85 60 fa ff ff 	mov    %rax,-0x5a0(%rbp)
    8966:	48 8d 05 d3 ce 00 00 	lea    0xced3(%rip),%rax        # 15840 <g_1044+0x240>
    896d:	48 89 85 68 fa ff ff 	mov    %rax,-0x598(%rbp)
    8974:	48 c7 85 70 fa ff ff 	movq   $0x0,-0x590(%rbp)
    897b:	00 00 00 00 
    897f:	48 8d 05 ba ce 00 00 	lea    0xceba(%rip),%rax        # 15840 <g_1044+0x240>
    8986:	48 89 85 78 fa ff ff 	mov    %rax,-0x588(%rbp)
    898d:	48 8d 85 50 f3 ff ff 	lea    -0xcb0(%rbp),%rax
    8994:	48 89 85 80 fa ff ff 	mov    %rax,-0x580(%rbp)
    899b:	48 8d 05 9e ce 00 00 	lea    0xce9e(%rip),%rax        # 15840 <g_1044+0x240>
    89a2:	48 89 85 88 fa ff ff 	mov    %rax,-0x578(%rbp)
    89a9:	48 8d 85 50 f3 ff ff 	lea    -0xcb0(%rbp),%rax
    89b0:	48 89 85 90 fa ff ff 	mov    %rax,-0x570(%rbp)
    89b7:	48 8d 05 82 ce 00 00 	lea    0xce82(%rip),%rax        # 15840 <g_1044+0x240>
    89be:	48 89 85 98 fa ff ff 	mov    %rax,-0x568(%rbp)
    89c5:	48 c7 85 a0 fa ff ff 	movq   $0x0,-0x560(%rbp)
    89cc:	00 00 00 00 
    89d0:	48 c7 85 a8 fa ff ff 	movq   $0x0,-0x558(%rbp)
    89d7:	00 00 00 00 
    89db:	48 8d 85 50 f3 ff ff 	lea    -0xcb0(%rbp),%rax
    89e2:	48 89 85 b0 fa ff ff 	mov    %rax,-0x550(%rbp)
    89e9:	48 8d 05 50 ce 00 00 	lea    0xce50(%rip),%rax        # 15840 <g_1044+0x240>
    89f0:	48 89 85 b8 fa ff ff 	mov    %rax,-0x548(%rbp)
    89f7:	48 c7 85 c0 fa ff ff 	movq   $0x0,-0x540(%rbp)
    89fe:	00 00 00 00 
    8a02:	48 8d 85 50 f3 ff ff 	lea    -0xcb0(%rbp),%rax
    8a09:	48 89 85 c8 fa ff ff 	mov    %rax,-0x538(%rbp)
    8a10:	48 c7 85 d0 fa ff ff 	movq   $0x0,-0x530(%rbp)
    8a17:	00 00 00 00 
    8a1b:	48 c7 85 d8 fa ff ff 	movq   $0x0,-0x528(%rbp)
    8a22:	00 00 00 00 
    8a26:	48 8d 05 73 cc 00 00 	lea    0xcc73(%rip),%rax        # 156a0 <g_1044+0xa0>
    8a2d:	48 89 85 e0 fa ff ff 	mov    %rax,-0x520(%rbp)
    8a34:	48 8d 05 05 ce 00 00 	lea    0xce05(%rip),%rax        # 15840 <g_1044+0x240>
    8a3b:	48 89 85 e8 fa ff ff 	mov    %rax,-0x518(%rbp)
    8a42:	48 c7 85 f0 fa ff ff 	movq   $0x0,-0x510(%rbp)
    8a49:	00 00 00 00 
    8a4d:	48 c7 85 f8 fa ff ff 	movq   $0x0,-0x508(%rbp)
    8a54:	00 00 00 00 
    8a58:	48 8d 85 50 f3 ff ff 	lea    -0xcb0(%rbp),%rax
    8a5f:	48 89 85 00 fb ff ff 	mov    %rax,-0x500(%rbp)
    8a66:	48 c7 85 08 fb ff ff 	movq   $0x0,-0x4f8(%rbp)
    8a6d:	00 00 00 00 
    8a71:	48 8d 05 d8 cb 00 00 	lea    0xcbd8(%rip),%rax        # 15650 <g_1044+0x50>
    8a78:	48 89 85 10 fb ff ff 	mov    %rax,-0x4f0(%rbp)
    8a7f:	48 8d 05 ca cb 00 00 	lea    0xcbca(%rip),%rax        # 15650 <g_1044+0x50>
    8a86:	48 89 85 18 fb ff ff 	mov    %rax,-0x4e8(%rbp)
    8a8d:	48 8d 85 50 f3 ff ff 	lea    -0xcb0(%rbp),%rax
    8a94:	48 89 85 20 fb ff ff 	mov    %rax,-0x4e0(%rbp)
    8a9b:	48 c7 85 28 fb ff ff 	movq   $0x0,-0x4d8(%rbp)
    8aa2:	00 00 00 00 
    8aa6:	48 8d 85 50 f3 ff ff 	lea    -0xcb0(%rbp),%rax
    8aad:	48 89 85 30 fb ff ff 	mov    %rax,-0x4d0(%rbp)
    8ab4:	48 8d 05 85 cd 00 00 	lea    0xcd85(%rip),%rax        # 15840 <g_1044+0x240>
    8abb:	48 89 85 38 fb ff ff 	mov    %rax,-0x4c8(%rbp)
    8ac2:	48 8d 05 d7 cb 00 00 	lea    0xcbd7(%rip),%rax        # 156a0 <g_1044+0xa0>
    8ac9:	48 89 85 40 fb ff ff 	mov    %rax,-0x4c0(%rbp)
    8ad0:	48 8d 85 50 f3 ff ff 	lea    -0xcb0(%rbp),%rax
    8ad7:	48 89 85 48 fb ff ff 	mov    %rax,-0x4b8(%rbp)
    8ade:	48 8d 05 5b cd 00 00 	lea    0xcd5b(%rip),%rax        # 15840 <g_1044+0x240>
    8ae5:	48 89 85 50 fb ff ff 	mov    %rax,-0x4b0(%rbp)
    8aec:	48 8d 85 50 f3 ff ff 	lea    -0xcb0(%rbp),%rax
    8af3:	48 89 85 58 fb ff ff 	mov    %rax,-0x4a8(%rbp)
    8afa:	48 8d 85 50 f3 ff ff 	lea    -0xcb0(%rbp),%rax
    8b01:	48 89 85 60 fb ff ff 	mov    %rax,-0x4a0(%rbp)
    8b08:	48 8d 85 50 f3 ff ff 	lea    -0xcb0(%rbp),%rax
    8b0f:	48 89 85 68 fb ff ff 	mov    %rax,-0x498(%rbp)
    8b16:	48 8d 05 33 cb 00 00 	lea    0xcb33(%rip),%rax        # 15650 <g_1044+0x50>
    8b1d:	48 89 85 70 fb ff ff 	mov    %rax,-0x490(%rbp)
    8b24:	48 8d 05 15 cd 00 00 	lea    0xcd15(%rip),%rax        # 15840 <g_1044+0x240>
    8b2b:	48 89 85 78 fb ff ff 	mov    %rax,-0x488(%rbp)
    8b32:	48 c7 85 80 fb ff ff 	movq   $0x0,-0x480(%rbp)
    8b39:	00 00 00 00 
    8b3d:	48 8d 85 50 f3 ff ff 	lea    -0xcb0(%rbp),%rax
    8b44:	48 89 85 88 fb ff ff 	mov    %rax,-0x478(%rbp)
    8b4b:	48 c7 85 90 fb ff ff 	movq   $0x0,-0x470(%rbp)
    8b52:	00 00 00 00 
    8b56:	48 c7 85 98 fb ff ff 	movq   $0x0,-0x468(%rbp)
    8b5d:	00 00 00 00 
    8b61:	48 8d 05 38 cb 00 00 	lea    0xcb38(%rip),%rax        # 156a0 <g_1044+0xa0>
    8b68:	48 89 85 a0 fb ff ff 	mov    %rax,-0x460(%rbp)
    8b6f:	48 8d 85 50 f3 ff ff 	lea    -0xcb0(%rbp),%rax
    8b76:	48 89 85 a8 fb ff ff 	mov    %rax,-0x458(%rbp)
    8b7d:	48 8d 85 50 f3 ff ff 	lea    -0xcb0(%rbp),%rax
    8b84:	48 89 85 b0 fb ff ff 	mov    %rax,-0x450(%rbp)
    8b8b:	48 c7 85 b8 fb ff ff 	movq   $0x0,-0x448(%rbp)
    8b92:	00 00 00 00 
    8b96:	48 8d 85 50 f3 ff ff 	lea    -0xcb0(%rbp),%rax
    8b9d:	48 89 85 c0 fb ff ff 	mov    %rax,-0x440(%rbp)
    8ba4:	48 c7 85 c8 fb ff ff 	movq   $0x0,-0x438(%rbp)
    8bab:	00 00 00 00 
    8baf:	48 8d 05 ea ca 00 00 	lea    0xcaea(%rip),%rax        # 156a0 <g_1044+0xa0>
    8bb6:	48 89 85 d0 fb ff ff 	mov    %rax,-0x430(%rbp)
    8bbd:	48 c7 85 d8 fb ff ff 	movq   $0x0,-0x428(%rbp)
    8bc4:	00 00 00 00 
    8bc8:	48 8d 05 71 cc 00 00 	lea    0xcc71(%rip),%rax        # 15840 <g_1044+0x240>
    8bcf:	48 89 85 e0 fb ff ff 	mov    %rax,-0x420(%rbp)
    8bd6:	48 8d 85 50 f3 ff ff 	lea    -0xcb0(%rbp),%rax
    8bdd:	48 89 85 e8 fb ff ff 	mov    %rax,-0x418(%rbp)
    8be4:	48 8d 85 50 f3 ff ff 	lea    -0xcb0(%rbp),%rax
    8beb:	48 89 85 f0 fb ff ff 	mov    %rax,-0x410(%rbp)
    8bf2:	48 8d 05 47 cc 00 00 	lea    0xcc47(%rip),%rax        # 15840 <g_1044+0x240>
    8bf9:	48 89 85 f8 fb ff ff 	mov    %rax,-0x408(%rbp)
    8c00:	48 8d 05 49 ca 00 00 	lea    0xca49(%rip),%rax        # 15650 <g_1044+0x50>
    8c07:	48 89 85 00 fc ff ff 	mov    %rax,-0x400(%rbp)
    8c0e:	48 c7 85 08 fc ff ff 	movq   $0x0,-0x3f8(%rbp)
    8c15:	00 00 00 00 
    8c19:	48 8d 85 50 f3 ff ff 	lea    -0xcb0(%rbp),%rax
    8c20:	48 89 85 10 fc ff ff 	mov    %rax,-0x3f0(%rbp)
    8c27:	48 8d 05 12 cc 00 00 	lea    0xcc12(%rip),%rax        # 15840 <g_1044+0x240>
    8c2e:	48 89 85 18 fc ff ff 	mov    %rax,-0x3e8(%rbp)
    8c35:	48 8d 85 50 f3 ff ff 	lea    -0xcb0(%rbp),%rax
    8c3c:	48 89 85 20 fc ff ff 	mov    %rax,-0x3e0(%rbp)
    8c43:	48 8d 05 06 ca 00 00 	lea    0xca06(%rip),%rax        # 15650 <g_1044+0x50>
    8c4a:	48 89 85 28 fc ff ff 	mov    %rax,-0x3d8(%rbp)
    8c51:	48 8d 85 50 f3 ff ff 	lea    -0xcb0(%rbp),%rax
    8c58:	48 89 85 30 fc ff ff 	mov    %rax,-0x3d0(%rbp)
    8c5f:	48 8d 85 50 f3 ff ff 	lea    -0xcb0(%rbp),%rax
    8c66:	48 89 85 38 fc ff ff 	mov    %rax,-0x3c8(%rbp)
    8c6d:	48 8d 85 50 f3 ff ff 	lea    -0xcb0(%rbp),%rax
    8c74:	48 89 85 40 fc ff ff 	mov    %rax,-0x3c0(%rbp)
    8c7b:	48 8d 85 50 f3 ff ff 	lea    -0xcb0(%rbp),%rax
    8c82:	48 89 85 48 fc ff ff 	mov    %rax,-0x3b8(%rbp)
    8c89:	48 c7 85 50 fc ff ff 	movq   $0x0,-0x3b0(%rbp)
    8c90:	00 00 00 00 
    8c94:	48 8d 05 a5 cb 00 00 	lea    0xcba5(%rip),%rax        # 15840 <g_1044+0x240>
    8c9b:	48 89 85 58 fc ff ff 	mov    %rax,-0x3a8(%rbp)
    8ca2:	48 8d 05 97 cb 00 00 	lea    0xcb97(%rip),%rax        # 15840 <g_1044+0x240>
    8ca9:	48 89 85 60 fc ff ff 	mov    %rax,-0x3a0(%rbp)
    8cb0:	48 8d 05 89 cb 00 00 	lea    0xcb89(%rip),%rax        # 15840 <g_1044+0x240>
    8cb7:	48 89 85 68 fc ff ff 	mov    %rax,-0x398(%rbp)
    8cbe:	48 8d 05 7b cb 00 00 	lea    0xcb7b(%rip),%rax        # 15840 <g_1044+0x240>
    8cc5:	48 89 85 70 fc ff ff 	mov    %rax,-0x390(%rbp)
    8ccc:	48 8d 85 50 f3 ff ff 	lea    -0xcb0(%rbp),%rax
    8cd3:	48 89 85 78 fc ff ff 	mov    %rax,-0x388(%rbp)
    8cda:	48 8d 05 5f cb 00 00 	lea    0xcb5f(%rip),%rax        # 15840 <g_1044+0x240>
    8ce1:	48 89 85 80 fc ff ff 	mov    %rax,-0x380(%rbp)
    8ce8:	48 c7 85 88 fc ff ff 	movq   $0x0,-0x378(%rbp)
    8cef:	00 00 00 00 
    8cf3:	48 8d 85 50 f3 ff ff 	lea    -0xcb0(%rbp),%rax
    8cfa:	48 89 85 90 fc ff ff 	mov    %rax,-0x370(%rbp)
    8d01:	48 c7 85 98 fc ff ff 	movq   $0x0,-0x368(%rbp)
    8d08:	00 00 00 00 
    8d0c:	48 8d 85 50 f3 ff ff 	lea    -0xcb0(%rbp),%rax
    8d13:	48 89 85 a0 fc ff ff 	mov    %rax,-0x360(%rbp)
    8d1a:	48 8d 05 1f cb 00 00 	lea    0xcb1f(%rip),%rax        # 15840 <g_1044+0x240>
    8d21:	48 89 85 a8 fc ff ff 	mov    %rax,-0x358(%rbp)
    8d28:	48 8d 05 11 cb 00 00 	lea    0xcb11(%rip),%rax        # 15840 <g_1044+0x240>
    8d2f:	48 89 85 b0 fc ff ff 	mov    %rax,-0x350(%rbp)
    8d36:	48 c7 85 b8 fc ff ff 	movq   $0x0,-0x348(%rbp)
    8d3d:	00 00 00 00 
    8d41:	48 8d 05 08 c9 00 00 	lea    0xc908(%rip),%rax        # 15650 <g_1044+0x50>
    8d48:	48 89 85 c0 fc ff ff 	mov    %rax,-0x340(%rbp)
    8d4f:	48 8d 05 ea ca 00 00 	lea    0xcaea(%rip),%rax        # 15840 <g_1044+0x240>
    8d56:	48 89 85 c8 fc ff ff 	mov    %rax,-0x338(%rbp)
    8d5d:	48 c7 85 d0 fc ff ff 	movq   $0x0,-0x330(%rbp)
    8d64:	00 00 00 00 
    8d68:	48 8d 85 50 f3 ff ff 	lea    -0xcb0(%rbp),%rax
    8d6f:	48 89 85 d8 fc ff ff 	mov    %rax,-0x328(%rbp)
    8d76:	48 c7 85 e0 fc ff ff 	movq   $0x0,-0x320(%rbp)
    8d7d:	00 00 00 00 
    8d81:	48 c7 85 e8 fc ff ff 	movq   $0x0,-0x318(%rbp)
    8d88:	00 00 00 00 
    8d8c:	48 8d 05 0d c9 00 00 	lea    0xc90d(%rip),%rax        # 156a0 <g_1044+0xa0>
    8d93:	48 89 85 f0 fc ff ff 	mov    %rax,-0x310(%rbp)
    8d9a:	48 8d 85 50 f3 ff ff 	lea    -0xcb0(%rbp),%rax
    8da1:	48 89 85 f8 fc ff ff 	mov    %rax,-0x308(%rbp)
    8da8:	48 8d 85 50 f3 ff ff 	lea    -0xcb0(%rbp),%rax
    8daf:	48 89 85 00 fd ff ff 	mov    %rax,-0x300(%rbp)
    8db6:	48 c7 85 08 fd ff ff 	movq   $0x0,-0x2f8(%rbp)
    8dbd:	00 00 00 00 
    8dc1:	48 8d 85 50 f3 ff ff 	lea    -0xcb0(%rbp),%rax
    8dc8:	48 89 85 10 fd ff ff 	mov    %rax,-0x2f0(%rbp)
    8dcf:	48 c7 85 18 fd ff ff 	movq   $0x0,-0x2e8(%rbp)
    8dd6:	00 00 00 00 
    8dda:	48 8d 05 bf c8 00 00 	lea    0xc8bf(%rip),%rax        # 156a0 <g_1044+0xa0>
    8de1:	48 89 85 20 fd ff ff 	mov    %rax,-0x2e0(%rbp)
    8de8:	48 c7 85 28 fd ff ff 	movq   $0x0,-0x2d8(%rbp)
    8def:	00 00 00 00 
    8df3:	48 8d 05 46 ca 00 00 	lea    0xca46(%rip),%rax        # 15840 <g_1044+0x240>
    8dfa:	48 89 85 30 fd ff ff 	mov    %rax,-0x2d0(%rbp)
    8e01:	48 8d 85 50 f3 ff ff 	lea    -0xcb0(%rbp),%rax
    8e08:	48 89 85 38 fd ff ff 	mov    %rax,-0x2c8(%rbp)
    8e0f:	48 8d 85 50 f3 ff ff 	lea    -0xcb0(%rbp),%rax
    8e16:	48 89 85 40 fd ff ff 	mov    %rax,-0x2c0(%rbp)
    8e1d:	48 8d 05 1c ca 00 00 	lea    0xca1c(%rip),%rax        # 15840 <g_1044+0x240>
    8e24:	48 89 85 48 fd ff ff 	mov    %rax,-0x2b8(%rbp)
    8e2b:	48 8d 05 1e c8 00 00 	lea    0xc81e(%rip),%rax        # 15650 <g_1044+0x50>
    8e32:	48 89 85 50 fd ff ff 	mov    %rax,-0x2b0(%rbp)
    8e39:	48 c7 85 58 fd ff ff 	movq   $0x0,-0x2a8(%rbp)
    8e40:	00 00 00 00 
    8e44:	48 8d 85 50 f3 ff ff 	lea    -0xcb0(%rbp),%rax
    8e4b:	48 89 85 60 fd ff ff 	mov    %rax,-0x2a0(%rbp)
    8e52:	48 8d 05 e7 c9 00 00 	lea    0xc9e7(%rip),%rax        # 15840 <g_1044+0x240>
    8e59:	48 89 85 68 fd ff ff 	mov    %rax,-0x298(%rbp)
    8e60:	48 8d 85 50 f3 ff ff 	lea    -0xcb0(%rbp),%rax
    8e67:	48 89 85 70 fd ff ff 	mov    %rax,-0x290(%rbp)
    8e6e:	48 8d 05 db c7 00 00 	lea    0xc7db(%rip),%rax        # 15650 <g_1044+0x50>
    8e75:	48 89 85 78 fd ff ff 	mov    %rax,-0x288(%rbp)
    8e7c:	48 8d 85 50 f3 ff ff 	lea    -0xcb0(%rbp),%rax
    8e83:	48 89 85 80 fd ff ff 	mov    %rax,-0x280(%rbp)
    8e8a:	48 8d 85 50 f3 ff ff 	lea    -0xcb0(%rbp),%rax
    8e91:	48 89 85 88 fd ff ff 	mov    %rax,-0x278(%rbp)
    8e98:	48 8d 85 50 f3 ff ff 	lea    -0xcb0(%rbp),%rax
    8e9f:	48 89 85 90 fd ff ff 	mov    %rax,-0x270(%rbp)
    8ea6:	48 8d 85 50 f3 ff ff 	lea    -0xcb0(%rbp),%rax
    8ead:	48 89 85 98 fd ff ff 	mov    %rax,-0x268(%rbp)
    8eb4:	48 c7 85 a0 fd ff ff 	movq   $0x0,-0x260(%rbp)
    8ebb:	00 00 00 00 
    8ebf:	48 8d 05 7a c9 00 00 	lea    0xc97a(%rip),%rax        # 15840 <g_1044+0x240>
    8ec6:	48 89 85 a8 fd ff ff 	mov    %rax,-0x258(%rbp)
    8ecd:	48 8d 05 6c c9 00 00 	lea    0xc96c(%rip),%rax        # 15840 <g_1044+0x240>
    8ed4:	48 89 85 b0 fd ff ff 	mov    %rax,-0x250(%rbp)
    8edb:	48 8d 05 5e c9 00 00 	lea    0xc95e(%rip),%rax        # 15840 <g_1044+0x240>
    8ee2:	48 89 85 b8 fd ff ff 	mov    %rax,-0x248(%rbp)
    8ee9:	48 8d 05 50 c9 00 00 	lea    0xc950(%rip),%rax        # 15840 <g_1044+0x240>
    8ef0:	48 89 85 c0 fd ff ff 	mov    %rax,-0x240(%rbp)
    8ef7:	48 8d 85 50 f3 ff ff 	lea    -0xcb0(%rbp),%rax
    8efe:	48 89 85 c8 fd ff ff 	mov    %rax,-0x238(%rbp)
    8f05:	48 8d 05 34 c9 00 00 	lea    0xc934(%rip),%rax        # 15840 <g_1044+0x240>
    8f0c:	48 89 85 d0 fd ff ff 	mov    %rax,-0x230(%rbp)
    8f13:	48 c7 85 d8 fd ff ff 	movq   $0x0,-0x228(%rbp)
    8f1a:	00 00 00 00 
    8f1e:	48 8d 85 50 f3 ff ff 	lea    -0xcb0(%rbp),%rax
    8f25:	48 89 85 e0 fd ff ff 	mov    %rax,-0x220(%rbp)
    8f2c:	48 c7 85 e8 fd ff ff 	movq   $0x0,-0x218(%rbp)
    8f33:	00 00 00 00 
    8f37:	48 8d 85 50 f3 ff ff 	lea    -0xcb0(%rbp),%rax
    8f3e:	48 89 85 f0 fd ff ff 	mov    %rax,-0x210(%rbp)
    8f45:	48 8d 05 f4 c8 00 00 	lea    0xc8f4(%rip),%rax        # 15840 <g_1044+0x240>
    8f4c:	48 89 85 f8 fd ff ff 	mov    %rax,-0x208(%rbp)
    8f53:	48 8d 05 e6 c8 00 00 	lea    0xc8e6(%rip),%rax        # 15840 <g_1044+0x240>
    8f5a:	48 89 85 00 fe ff ff 	mov    %rax,-0x200(%rbp)
    8f61:	48 c7 85 08 fe ff ff 	movq   $0x0,-0x1f8(%rbp)
    8f68:	00 00 00 00 
    8f6c:	48 8d 05 dd c6 00 00 	lea    0xc6dd(%rip),%rax        # 15650 <g_1044+0x50>
    8f73:	48 89 85 10 fe ff ff 	mov    %rax,-0x1f0(%rbp)
    8f7a:	48 8d 05 bf c8 00 00 	lea    0xc8bf(%rip),%rax        # 15840 <g_1044+0x240>
    8f81:	48 89 85 18 fe ff ff 	mov    %rax,-0x1e8(%rbp)
    8f88:	48 c7 85 20 fe ff ff 	movq   $0x0,-0x1e0(%rbp)
    8f8f:	00 00 00 00 
    8f93:	48 8d 85 50 f3 ff ff 	lea    -0xcb0(%rbp),%rax
    8f9a:	48 89 85 28 fe ff ff 	mov    %rax,-0x1d8(%rbp)
    8fa1:	48 c7 85 30 fe ff ff 	movq   $0x0,-0x1d0(%rbp)
    8fa8:	00 00 00 00 
    8fac:	48 c7 85 38 fe ff ff 	movq   $0x0,-0x1c8(%rbp)
    8fb3:	00 00 00 00 
    8fb7:	48 8d 05 e2 c6 00 00 	lea    0xc6e2(%rip),%rax        # 156a0 <g_1044+0xa0>
    8fbe:	48 89 85 40 fe ff ff 	mov    %rax,-0x1c0(%rbp)
    8fc5:	48 8d 85 50 f3 ff ff 	lea    -0xcb0(%rbp),%rax
    8fcc:	48 89 85 48 fe ff ff 	mov    %rax,-0x1b8(%rbp)
    8fd3:	48 8d 85 50 f3 ff ff 	lea    -0xcb0(%rbp),%rax
    8fda:	48 89 85 50 fe ff ff 	mov    %rax,-0x1b0(%rbp)
    8fe1:	48 c7 85 58 fe ff ff 	movq   $0x0,-0x1a8(%rbp)
    8fe8:	00 00 00 00 
    8fec:	48 8d 85 50 f3 ff ff 	lea    -0xcb0(%rbp),%rax
    8ff3:	48 89 85 60 fe ff ff 	mov    %rax,-0x1a0(%rbp)
    8ffa:	48 c7 85 68 fe ff ff 	movq   $0x0,-0x198(%rbp)
    9001:	00 00 00 00 
    9005:	48 8d 05 94 c6 00 00 	lea    0xc694(%rip),%rax        # 156a0 <g_1044+0xa0>
    900c:	48 89 85 70 fe ff ff 	mov    %rax,-0x190(%rbp)
    9013:	48 c7 85 78 fe ff ff 	movq   $0x0,-0x188(%rbp)
    901a:	00 00 00 00 
    901e:	48 8d 05 1b c8 00 00 	lea    0xc81b(%rip),%rax        # 15840 <g_1044+0x240>
    9025:	48 89 85 80 fe ff ff 	mov    %rax,-0x180(%rbp)
    902c:	48 8d 85 50 f3 ff ff 	lea    -0xcb0(%rbp),%rax
    9033:	48 89 85 88 fe ff ff 	mov    %rax,-0x178(%rbp)
    903a:	48 8d 85 50 f3 ff ff 	lea    -0xcb0(%rbp),%rax
    9041:	48 89 85 90 fe ff ff 	mov    %rax,-0x170(%rbp)
    9048:	48 8d 05 f1 c7 00 00 	lea    0xc7f1(%rip),%rax        # 15840 <g_1044+0x240>
    904f:	48 89 85 98 fe ff ff 	mov    %rax,-0x168(%rbp)
    9056:	48 8d 05 f3 c5 00 00 	lea    0xc5f3(%rip),%rax        # 15650 <g_1044+0x50>
    905d:	48 89 85 a0 fe ff ff 	mov    %rax,-0x160(%rbp)
    9064:	48 c7 85 a8 fe ff ff 	movq   $0x0,-0x158(%rbp)
    906b:	00 00 00 00 
    906f:	48 8d 85 50 f3 ff ff 	lea    -0xcb0(%rbp),%rax
    9076:	48 89 85 b0 fe ff ff 	mov    %rax,-0x150(%rbp)
    907d:	48 8d 05 bc c7 00 00 	lea    0xc7bc(%rip),%rax        # 15840 <g_1044+0x240>
    9084:	48 89 85 b8 fe ff ff 	mov    %rax,-0x148(%rbp)
    908b:	48 8d 85 50 f3 ff ff 	lea    -0xcb0(%rbp),%rax
    9092:	48 89 85 c0 fe ff ff 	mov    %rax,-0x140(%rbp)
    9099:	48 8d 05 b0 c5 00 00 	lea    0xc5b0(%rip),%rax        # 15650 <g_1044+0x50>
    90a0:	48 89 85 c8 fe ff ff 	mov    %rax,-0x138(%rbp)
    90a7:	48 8d 85 50 f3 ff ff 	lea    -0xcb0(%rbp),%rax
    90ae:	48 89 85 d0 fe ff ff 	mov    %rax,-0x130(%rbp)
    90b5:	48 8d 85 50 f3 ff ff 	lea    -0xcb0(%rbp),%rax
    90bc:	48 89 85 d8 fe ff ff 	mov    %rax,-0x128(%rbp)
    90c3:	48 8d 85 50 f3 ff ff 	lea    -0xcb0(%rbp),%rax
    90ca:	48 89 85 e0 fe ff ff 	mov    %rax,-0x120(%rbp)
    90d1:	48 8d 85 50 f3 ff ff 	lea    -0xcb0(%rbp),%rax
    90d8:	48 89 85 e8 fe ff ff 	mov    %rax,-0x118(%rbp)
    90df:	48 c7 85 f0 fe ff ff 	movq   $0x0,-0x110(%rbp)
    90e6:	00 00 00 00 
    90ea:	48 8d 05 4f c7 00 00 	lea    0xc74f(%rip),%rax        # 15840 <g_1044+0x240>
    90f1:	48 89 85 f8 fe ff ff 	mov    %rax,-0x108(%rbp)
    90f8:	48 8d 05 41 c7 00 00 	lea    0xc741(%rip),%rax        # 15840 <g_1044+0x240>
    90ff:	48 89 85 00 ff ff ff 	mov    %rax,-0x100(%rbp)
    9106:	48 8d 05 33 c7 00 00 	lea    0xc733(%rip),%rax        # 15840 <g_1044+0x240>
    910d:	48 89 85 08 ff ff ff 	mov    %rax,-0xf8(%rbp)
    9114:	48 8d 05 25 c7 00 00 	lea    0xc725(%rip),%rax        # 15840 <g_1044+0x240>
    911b:	48 89 85 10 ff ff ff 	mov    %rax,-0xf0(%rbp)
    9122:	48 8d 85 50 f3 ff ff 	lea    -0xcb0(%rbp),%rax
    9129:	48 89 85 18 ff ff ff 	mov    %rax,-0xe8(%rbp)
    9130:	48 8d 05 09 c7 00 00 	lea    0xc709(%rip),%rax        # 15840 <g_1044+0x240>
    9137:	48 89 85 20 ff ff ff 	mov    %rax,-0xe0(%rbp)
    913e:	48 c7 85 28 ff ff ff 	movq   $0x0,-0xd8(%rbp)
    9145:	00 00 00 00 
    9149:	48 8d 85 50 f3 ff ff 	lea    -0xcb0(%rbp),%rax
    9150:	48 89 85 30 ff ff ff 	mov    %rax,-0xd0(%rbp)
    9157:	48 c7 85 38 ff ff ff 	movq   $0x0,-0xc8(%rbp)
    915e:	00 00 00 00 
    9162:	48 8d 85 50 f3 ff ff 	lea    -0xcb0(%rbp),%rax
    9169:	48 89 85 40 ff ff ff 	mov    %rax,-0xc0(%rbp)
    9170:	48 8d 05 c9 c6 00 00 	lea    0xc6c9(%rip),%rax        # 15840 <g_1044+0x240>
    9177:	48 89 85 48 ff ff ff 	mov    %rax,-0xb8(%rbp)
    917e:	48 8d 05 bb c6 00 00 	lea    0xc6bb(%rip),%rax        # 15840 <g_1044+0x240>
    9185:	48 89 85 50 ff ff ff 	mov    %rax,-0xb0(%rbp)
    918c:	48 c7 85 58 ff ff ff 	movq   $0x0,-0xa8(%rbp)
    9193:	00 00 00 00 
    9197:	48 8d 05 b2 c4 00 00 	lea    0xc4b2(%rip),%rax        # 15650 <g_1044+0x50>
    919e:	48 89 85 60 ff ff ff 	mov    %rax,-0xa0(%rbp)
    91a5:	48 8d 05 94 c6 00 00 	lea    0xc694(%rip),%rax        # 15840 <g_1044+0x240>
    91ac:	48 89 85 68 ff ff ff 	mov    %rax,-0x98(%rbp)
    91b3:	48 c7 85 70 ff ff ff 	movq   $0x0,-0x90(%rbp)
    91ba:	00 00 00 00 
    91be:	48 8d 85 50 f3 ff ff 	lea    -0xcb0(%rbp),%rax
    91c5:	48 89 85 78 ff ff ff 	mov    %rax,-0x88(%rbp)
    91cc:	48 c7 45 80 00 00 00 	movq   $0x0,-0x80(%rbp)
    91d3:	00 
    91d4:	48 c7 45 88 00 00 00 	movq   $0x0,-0x78(%rbp)
    91db:	00 
    91dc:	48 8d 05 bd c4 00 00 	lea    0xc4bd(%rip),%rax        # 156a0 <g_1044+0xa0>
    91e3:	48 89 45 90          	mov    %rax,-0x70(%rbp)
    91e7:	48 8d 85 50 f3 ff ff 	lea    -0xcb0(%rbp),%rax
    91ee:	48 89 45 98          	mov    %rax,-0x68(%rbp)
    91f2:	48 8d 85 50 f3 ff ff 	lea    -0xcb0(%rbp),%rax
    91f9:	48 89 45 a0          	mov    %rax,-0x60(%rbp)
    91fd:	48 c7 45 a8 00 00 00 	movq   $0x0,-0x58(%rbp)
    9204:	00 
    9205:	48 8d 85 50 f3 ff ff 	lea    -0xcb0(%rbp),%rax
    920c:	48 89 45 b0          	mov    %rax,-0x50(%rbp)
    9210:	48 c7 45 b8 00 00 00 	movq   $0x0,-0x48(%rbp)
    9217:	00 
    9218:	48 8d 05 81 c4 00 00 	lea    0xc481(%rip),%rax        # 156a0 <g_1044+0xa0>
    921f:	48 89 45 c0          	mov    %rax,-0x40(%rbp)
    9223:	48 c7 45 c8 00 00 00 	movq   $0x0,-0x38(%rbp)
    922a:	00 
    922b:	48 8b 05 0e c6 00 00 	mov    0xc60e(%rip),%rax        # 15840 <g_1044+0x240>
    9232:	48 89 85 18 f4 ff ff 	mov    %rax,-0xbe8(%rbp)
    9239:	48 8b 85 18 f4 ff ff 	mov    -0xbe8(%rbp),%rax
    9240:	48 89 05 f9 c5 00 00 	mov    %rax,0xc5f9(%rip)        # 15840 <g_1044+0x240>
    9247:	48 8b 05 9a bb 00 00 	mov    0xbb9a(%rip),%rax        # 14de8 <g_850>
    924e:	48 8b 00             	mov    (%rax),%rax
    9251:	8b 00                	mov    (%rax),%eax
    9253:	85 c0                	test   %eax,%eax
    9255:	83 85 b8 f2 ff ff 01 	addl   $0x1,-0xd48(%rbp)
    925c:	83 bd b8 f2 ff ff 03 	cmpl   $0x3,-0xd48(%rbp)
    9263:	0f 8e 12 f5 ff ff    	jle    877b <func_50+0x17e3>
    9269:	8b 85 e8 f2 ff ff    	mov    -0xd18(%rbp),%eax
    926f:	0f b6 c0             	movzbl %al,%eax
    9272:	89 c6                	mov    %eax,%esi
    9274:	bf e9 00 00 00       	mov    $0xe9,%edi
    9279:	e8 fa c8 ff ff       	callq  5b78 <safe_sub_func_uint8_t_u_u>
    927e:	89 c3                	mov    %eax,%ebx
    9280:	8b 85 18 f2 ff ff    	mov    -0xde8(%rbp),%eax
    9286:	33 85 d0 f2 ff ff    	xor    -0xd30(%rbp),%eax
    928c:	89 c0                	mov    %eax,%eax
    928e:	48 89 c6             	mov    %rax,%rsi
    9291:	bf 01 00 00 00       	mov    $0x1,%edi
    9296:	e8 e5 cd ff ff       	callq  6080 <safe_mod_func_uint64_t_u_u>
    929b:	0f b7 95 1c f2 ff ff 	movzwl -0xde4(%rbp),%edx
    92a2:	48 8b 85 98 f3 ff ff 	mov    -0xc68(%rbp),%rax
    92a9:	0f b7 00             	movzwl (%rax),%eax
    92ac:	31 c2                	xor    %eax,%edx
    92ae:	48 8b 85 98 f3 ff ff 	mov    -0xc68(%rbp),%rax
    92b5:	66 89 10             	mov    %dx,(%rax)
    92b8:	48 8b 95 70 f5 ff ff 	mov    -0xa90(%rbp),%rdx
    92bf:	48 8b 85 20 f4 ff ff 	mov    -0xbe0(%rbp),%rax
    92c6:	48 89 10             	mov    %rdx,(%rax)
    92c9:	48 8b 85 20 f4 ff ff 	mov    -0xbe0(%rbp),%rax
    92d0:	48 8b 00             	mov    (%rax),%rax
    92d3:	48 85 c0             	test   %rax,%rax
    92d6:	0f 94 c0             	sete   %al
    92d9:	0f b6 d0             	movzbl %al,%edx
    92dc:	48 8b 85 f8 f3 ff ff 	mov    -0xc08(%rbp),%rax
    92e3:	48 89 10             	mov    %rdx,(%rax)
    92e6:	48 8b 85 f8 f3 ff ff 	mov    -0xc08(%rbp),%rax
    92ed:	48 8b 30             	mov    (%rax),%rsi
    92f0:	48 8b 0d 41 9d 00 00 	mov    0x9d41(%rip),%rcx        # 13038 <g_108>
    92f7:	0f b6 05 32 9d 00 00 	movzbl 0x9d32(%rip),%eax        # 13030 <g_62>
    92fe:	0f b6 c0             	movzbl %al,%eax
    9301:	48 8b 3d 30 9d 00 00 	mov    0x9d30(%rip),%rdi        # 13038 <g_108>
    9308:	48 98                	cltq   
    930a:	48 89 c2             	mov    %rax,%rdx
    930d:	48 c1 e2 02          	shl    $0x2,%rdx
    9311:	48 01 c2             	add    %rax,%rdx
    9314:	48 89 c8             	mov    %rcx,%rax
    9317:	48 c1 e0 02          	shl    $0x2,%rax
    931b:	48 01 c8             	add    %rcx,%rax
    931e:	48 8d 0c 85 00 00 00 	lea    0x0(,%rax,4),%rcx
    9325:	00 
    9326:	48 01 c8             	add    %rcx,%rax
    9329:	48 01 d0             	add    %rdx,%rax
    932c:	48 8d 14 38          	lea    (%rax,%rdi,1),%rdx
    9330:	48 8d 05 29 9d 00 00 	lea    0x9d29(%rip),%rax        # 13060 <g_290>
    9337:	48 01 d0             	add    %rdx,%rax
    933a:	0f b6 00             	movzbl (%rax),%eax
    933d:	48 0f be c0          	movsbq %al,%rax
    9341:	48 39 c6             	cmp    %rax,%rsi
    9344:	0f 95 c0             	setne  %al
    9347:	0f b6 d0             	movzbl %al,%edx
    934a:	8b 85 30 f2 ff ff    	mov    -0xdd0(%rbp),%eax
    9350:	21 d0                	and    %edx,%eax
    9352:	89 85 30 f2 ff ff    	mov    %eax,-0xdd0(%rbp)
    9358:	8b 95 30 f2 ff ff    	mov    -0xdd0(%rbp),%edx
    935e:	8b 85 54 f5 ff ff    	mov    -0xaac(%rbp),%eax
    9364:	39 c2                	cmp    %eax,%edx
    9366:	0f 94 c0             	sete   %al
    9369:	0f b6 d0             	movzbl %al,%edx
    936c:	8b 05 d2 9c 00 00    	mov    0x9cd2(%rip),%eax        # 13044 <g_126>
    9372:	0f be c0             	movsbl %al,%eax
    9375:	89 d6                	mov    %edx,%esi
    9377:	89 c7                	mov    %eax,%edi
    9379:	e8 94 be ff ff       	callq  5212 <safe_mul_func_int8_t_s_s>
    937e:	0f b6 c0             	movzbl %al,%eax
    9381:	be 04 00 00 00       	mov    $0x4,%esi
    9386:	89 c7                	mov    %eax,%edi
    9388:	e8 31 c9 ff ff       	callq  5cbe <safe_rshift_func_uint8_t_u_u>
    938d:	38 c3                	cmp    %al,%bl
    938f:	0f 94 c0             	sete   %al
    9392:	0f b6 c0             	movzbl %al,%eax
    9395:	39 85 d0 f2 ff ff    	cmp    %eax,-0xd30(%rbp)
    939b:	0f 96 c2             	setbe  %dl
    939e:	48 8b 85 08 f2 ff ff 	mov    -0xdf8(%rbp),%rax
    93a5:	48 8b 00             	mov    (%rax),%rax
    93a8:	0f b6 d2             	movzbl %dl,%edx
    93ab:	89 10                	mov    %edx,(%rax)
    93ad:	0f b6 05 9d 9d 00 00 	movzbl 0x9d9d(%rip),%eax        # 13151 <g_296+0x9>
    93b4:	0f be d8             	movsbl %al,%ebx
    93b7:	83 bd 18 f2 ff ff 00 	cmpl   $0x0,-0xde8(%rbp)
    93be:	0f 9e c0             	setle  %al
    93c1:	0f b6 d0             	movzbl %al,%edx
    93c4:	0f b7 85 1c f2 ff ff 	movzwl -0xde4(%rbp),%eax
    93cb:	0f be c0             	movsbl %al,%eax
    93ce:	89 d6                	mov    %edx,%esi
    93d0:	89 c7                	mov    %eax,%edi
    93d2:	e8 5e bf ff ff       	callq  5335 <safe_rshift_func_int8_t_s_s>
    93d7:	44 0f be e0          	movsbl %al,%r12d
    93db:	48 8b 05 06 c2 00 00 	mov    0xc206(%rip),%rax        # 155e8 <g_964>
    93e2:	48 8b 00             	mov    (%rax),%rax
    93e5:	66 c7 00 24 9c       	movw   $0x9c24,(%rax)
    93ea:	be 00 00 00 00       	mov    $0x0,%esi
    93ef:	bf 01 00 00 00       	mov    $0x1,%edi
    93f4:	e8 94 c8 ff ff       	callq  5c8d <safe_rshift_func_uint8_t_u_s>
    93f9:	0f b6 c0             	movzbl %al,%eax
    93fc:	be db 63 00 00       	mov    $0x63db,%esi
    9401:	89 c7                	mov    %eax,%edi
    9403:	e8 f7 c8 ff ff       	callq  5cff <safe_add_func_uint16_t_u_u>
    9408:	41 89 c5             	mov    %eax,%r13d
    940b:	48 8b 0d 5e 99 00 00 	mov    0x995e(%rip),%rcx        # 12d70 <l_1070.4413+0x10>
    9412:	48 8b 95 58 f3 ff ff 	mov    -0xca8(%rbp),%rdx
    9419:	48 8b 85 28 f4 ff ff 	mov    -0xbd8(%rbp),%rax
    9420:	48 89 10             	mov    %rdx,(%rax)
    9423:	48 8b 85 28 f4 ff ff 	mov    -0xbd8(%rbp),%rax
    942a:	48 8b 00             	mov    (%rax),%rax
    942d:	48 39 c1             	cmp    %rax,%rcx
    9430:	75 09                	jne    943b <func_50+0x24a3>
    9432:	83 bd 18 f2 ff ff 00 	cmpl   $0x0,-0xde8(%rbp)
    9439:	74 07                	je     9442 <func_50+0x24aa>
    943b:	b8 01 00 00 00       	mov    $0x1,%eax
    9440:	eb 05                	jmp    9447 <func_50+0x24af>
    9442:	b8 00 00 00 00       	mov    $0x0,%eax
    9447:	0f b6 c0             	movzbl %al,%eax
    944a:	be 07 00 00 00       	mov    $0x7,%esi
    944f:	89 c7                	mov    %eax,%edi
    9451:	e8 f6 c7 ff ff       	callq  5c4c <safe_lshift_func_uint8_t_u_u>
    9456:	0f b6 d0             	movzbl %al,%edx
    9459:	48 8b 85 f0 f3 ff ff 	mov    -0xc10(%rbp),%rax
    9460:	48 8b 08             	mov    (%rax),%rcx
    9463:	41 0f b7 c5          	movzwl %r13w,%eax
    9467:	48 09 c1             	or     %rax,%rcx
    946a:	48 8b 85 f0 f3 ff ff 	mov    -0xc10(%rbp),%rax
    9471:	48 89 08             	mov    %rcx,(%rax)
    9474:	48 8b 85 f0 f3 ff ff 	mov    -0xc10(%rbp),%rax
    947b:	48 8b 00             	mov    (%rax),%rax
    947e:	48 39 c2             	cmp    %rax,%rdx
    9481:	0f 95 c0             	setne  %al
    9484:	0f b6 c0             	movzbl %al,%eax
    9487:	89 85 a0 f5 ff ff    	mov    %eax,-0xa60(%rbp)
    948d:	8b 85 a0 f5 ff ff    	mov    -0xa60(%rbp),%eax
    9493:	0f b7 c0             	movzwl %ax,%eax
    9496:	44 89 e6             	mov    %r12d,%esi
    9499:	89 c7                	mov    %eax,%edi
    949b:	e8 1e c9 ff ff       	callq  5dbe <safe_lshift_func_uint16_t_u_s>
    94a0:	48 be d3 6a 70 f2 1f 	movabs $0xa74ab51ff2706ad3,%rsi
    94a7:	b5 4a a7 
    94aa:	48 bf 53 dd 00 e2 43 	movabs $0xc6abf343e200dd53,%rdi
    94b1:	f3 ab c6 
    94b4:	e8 75 cb ff ff       	callq  602e <safe_add_func_uint64_t_u_u>
    94b9:	89 c7                	mov    %eax,%edi
    94bb:	e8 d6 c0 ff ff       	callq  5596 <safe_unary_minus_func_int32_t_s>
    94c0:	48 8b 05 41 b9 00 00 	mov    0xb941(%rip),%rax        # 14e08 <g_899>
    94c7:	0f b6 10             	movzbl (%rax),%edx
    94ca:	8d 4a ff             	lea    -0x1(%rdx),%ecx
    94cd:	88 08                	mov    %cl,(%rax)
    94cf:	48 8b 85 08 f2 ff ff 	mov    -0xdf8(%rbp),%rax
    94d6:	48 8b 00             	mov    (%rax),%rax
    94d9:	8b 00                	mov    (%rax),%eax
    94db:	89 c1                	mov    %eax,%ecx
    94dd:	0f b7 85 1c f2 ff ff 	movzwl -0xde4(%rbp),%eax
    94e4:	09 c8                	or     %ecx,%eax
    94e6:	09 c2                	or     %eax,%edx
    94e8:	8b 85 3c f2 ff ff    	mov    -0xdc4(%rbp),%eax
    94ee:	21 d0                	and    %edx,%eax
    94f0:	0f be c0             	movsbl %al,%eax
    94f3:	89 de                	mov    %ebx,%esi
    94f5:	89 c7                	mov    %eax,%edi
    94f7:	e8 16 bd ff ff       	callq  5212 <safe_mul_func_int8_t_s_s>
    94fc:	89 c2                	mov    %eax,%edx
    94fe:	48 8b 05 e3 b8 00 00 	mov    0xb8e3(%rip),%rax        # 14de8 <g_850>
    9505:	48 8b 00             	mov    (%rax),%rax
    9508:	0f be d2             	movsbl %dl,%edx
    950b:	89 10                	mov    %edx,(%rax)
    950d:	8b 00                	mov    (%rax),%eax
    950f:	31 85 ac f2 ff ff    	xor    %eax,-0xd54(%rbp)
    9515:	8b 85 34 f2 ff ff    	mov    -0xdcc(%rbp),%eax
    951b:	83 e8 01             	sub    $0x1,%eax
    951e:	89 85 34 f2 ff ff    	mov    %eax,-0xdcc(%rbp)
    9524:	8b 85 34 f2 ff ff    	mov    -0xdcc(%rbp),%eax
    952a:	85 c0                	test   %eax,%eax
    952c:	0f 89 99 ef ff ff    	jns    84cb <func_50+0x1533>
    9532:	0f b6 05 f7 9a 00 00 	movzbl 0x9af7(%rip),%eax        # 13030 <g_62>
    9539:	83 c0 01             	add    $0x1,%eax
    953c:	88 05 ee 9a 00 00    	mov    %al,0x9aee(%rip)        # 13030 <g_62>
    9542:	0f b6 05 e7 9a 00 00 	movzbl 0x9ae7(%rip),%eax        # 13030 <g_62>
    9549:	3c 04                	cmp    $0x4,%al
    954b:	0f 86 4e ed ff ff    	jbe    829f <func_50+0x1307>
    9551:	eb 01                	jmp    9554 <func_50+0x25bc>
    9553:	90                   	nop
    9554:	48 8b 05 dd 9a 00 00 	mov    0x9add(%rip),%rax        # 13038 <g_108>
    955b:	48 83 c0 01          	add    $0x1,%rax
    955f:	48 89 05 d2 9a 00 00 	mov    %rax,0x9ad2(%rip)        # 13038 <g_108>
    9566:	48 8b 05 cb 9a 00 00 	mov    0x9acb(%rip),%rax        # 13038 <g_108>
    956d:	48 83 f8 04          	cmp    $0x4,%rax
    9571:	0f 86 d1 e6 ff ff    	jbe    7c48 <func_50+0xcb0>
    9577:	48 8b 85 c0 f3 ff ff 	mov    -0xc40(%rbp),%rax
    957e:	48 89 05 1b c3 00 00 	mov    %rax,0xc31b(%rip)        # 158a0 <g_1084>
    9585:	48 8b 05 14 c3 00 00 	mov    0xc314(%rip),%rax        # 158a0 <g_1084>
    958c:	48 39 85 c8 f3 ff ff 	cmp    %rax,-0xc38(%rbp)
    9593:	0f 95 c0             	setne  %al
    9596:	0f b6 c8             	movzbl %al,%ecx
    9599:	48 8b 85 08 f2 ff ff 	mov    -0xdf8(%rbp),%rax
    95a0:	48 8b 00             	mov    (%rax),%rax
    95a3:	8b 10                	mov    (%rax),%edx
    95a5:	48 8b 85 08 f2 ff ff 	mov    -0xdf8(%rbp),%rax
    95ac:	48 8b 00             	mov    (%rax),%rax
    95af:	09 ca                	or     %ecx,%edx
    95b1:	89 10                	mov    %edx,(%rax)
    95b3:	8b 10                	mov    (%rax),%edx
    95b5:	48 8b 85 d0 f3 ff ff 	mov    -0xc30(%rbp),%rax
    95bc:	8b 00                	mov    (%rax),%eax
    95be:	09 c2                	or     %eax,%edx
    95c0:	48 8b 85 d0 f3 ff ff 	mov    -0xc30(%rbp),%rax
    95c7:	89 10                	mov    %edx,(%rax)
    95c9:	0f b7 85 1e f5 ff ff 	movzwl -0xae2(%rbp),%eax
    95d0:	83 c0 01             	add    $0x1,%eax
    95d3:	66 89 85 1e f5 ff ff 	mov    %ax,-0xae2(%rbp)
    95da:	c7 85 70 f2 ff ff 00 	movl   $0x0,-0xd90(%rbp)
    95e1:	00 00 00 
    95e4:	e9 8d 0d 00 00       	jmpq   a376 <func_50+0x33de>
    95e9:	c6 85 2a f2 ff ff e5 	movb   $0xe5,-0xdd6(%rbp)
    95f0:	48 8d 85 20 f5 ff ff 	lea    -0xae0(%rbp),%rax
    95f7:	48 83 c0 08          	add    $0x8,%rax
    95fb:	48 89 85 88 f4 ff ff 	mov    %rax,-0xb78(%rbp)
    9602:	c7 85 54 f2 ff ff 01 	movl   $0x1,-0xdac(%rbp)
    9609:	00 00 00 
    960c:	c7 85 10 f3 ff ff e2 	movl   $0x2009abe2,-0xcf0(%rbp)
    9613:	ab 09 20 
    9616:	c7 85 00 f7 ff ff 28 	movl   $0xece8c228,-0x900(%rbp)
    961d:	c2 e8 ec 
    9620:	c7 85 04 f7 ff ff 09 	movl   $0x9,-0x8fc(%rbp)
    9627:	00 00 00 
    962a:	c7 85 08 f7 ff ff 5e 	movl   $0xe820845e,-0x8f8(%rbp)
    9631:	84 20 e8 
    9634:	c7 85 0c f7 ff ff 4c 	movl   $0x5971b44c,-0x8f4(%rbp)
    963b:	b4 71 59 
    963e:	c7 85 10 f7 ff ff fa 	movl   $0xfffffffa,-0x8f0(%rbp)
    9645:	ff ff ff 
    9648:	c7 85 14 f7 ff ff 5e 	movl   $0xe820845e,-0x8ec(%rbp)
    964f:	84 20 e8 
    9652:	c7 85 18 f7 ff ff 09 	movl   $0x9,-0x8e8(%rbp)
    9659:	00 00 00 
    965c:	c7 85 1c f7 ff ff 28 	movl   $0xece8c228,-0x8e4(%rbp)
    9663:	c2 e8 ec 
    9666:	c7 85 20 f7 ff ff 28 	movl   $0xece8c228,-0x8e0(%rbp)
    966d:	c2 e8 ec 
    9670:	c7 85 24 f7 ff ff 09 	movl   $0x9,-0x8dc(%rbp)
    9677:	00 00 00 
    967a:	c7 85 28 f7 ff ff 10 	movl   $0x95c28510,-0x8d8(%rbp)
    9681:	85 c2 95 
    9684:	c7 85 2c f7 ff ff 07 	movl   $0x7,-0x8d4(%rbp)
    968b:	00 00 00 
    968e:	c7 85 30 f7 ff ff 00 	movl   $0x0,-0x8d0(%rbp)
    9695:	00 00 00 
    9698:	c7 85 34 f7 ff ff 09 	movl   $0x9,-0x8cc(%rbp)
    969f:	00 00 00 
    96a2:	c7 85 38 f7 ff ff fa 	movl   $0xfffffffa,-0x8c8(%rbp)
    96a9:	ff ff ff 
    96ac:	c7 85 3c f7 ff ff 07 	movl   $0x7,-0x8c4(%rbp)
    96b3:	00 00 00 
    96b6:	c7 85 40 f7 ff ff 28 	movl   $0xece8c228,-0x8c0(%rbp)
    96bd:	c2 e8 ec 
    96c0:	c7 85 44 f7 ff ff 00 	movl   $0x0,-0x8bc(%rbp)
    96c7:	00 00 00 
    96ca:	c7 85 48 f7 ff ff fb 	movl   $0xfffffffb,-0x8b8(%rbp)
    96d1:	ff ff ff 
    96d4:	c7 85 4c f7 ff ff 00 	movl   $0x0,-0x8b4(%rbp)
    96db:	00 00 00 
    96de:	c7 85 50 f7 ff ff fa 	movl   $0xfffffffa,-0x8b0(%rbp)
    96e5:	ff ff ff 
    96e8:	c7 85 54 f7 ff ff fa 	movl   $0xfffffffa,-0x8ac(%rbp)
    96ef:	ff ff ff 
    96f2:	c7 85 58 f7 ff ff 28 	movl   $0xece8c228,-0x8a8(%rbp)
    96f9:	c2 e8 ec 
    96fc:	c7 85 5c f7 ff ff 10 	movl   $0x95c28510,-0x8a4(%rbp)
    9703:	85 c2 95 
    9706:	c7 85 60 f7 ff ff 4b 	movl   $0x8714854b,-0x8a0(%rbp)
    970d:	85 14 87 
    9710:	c7 85 64 f7 ff ff 07 	movl   $0x7,-0x89c(%rbp)
    9717:	00 00 00 
    971a:	c7 85 68 f7 ff ff 4b 	movl   $0x8714854b,-0x898(%rbp)
    9721:	85 14 87 
    9724:	c7 85 6c f7 ff ff 5e 	movl   $0xe820845e,-0x894(%rbp)
    972b:	84 20 e8 
    972e:	c7 85 70 f7 ff ff 10 	movl   $0x95c28510,-0x890(%rbp)
    9735:	85 c2 95 
    9738:	c7 85 74 f7 ff ff 10 	movl   $0x95c28510,-0x88c(%rbp)
    973f:	85 c2 95 
    9742:	c7 85 78 f7 ff ff 10 	movl   $0x95c28510,-0x888(%rbp)
    9749:	85 c2 95 
    974c:	c7 85 7c f7 ff ff a4 	movl   $0xb6d75aa4,-0x884(%rbp)
    9753:	5a d7 b6 
    9756:	c7 85 80 f7 ff ff 10 	movl   $0x95c28510,-0x880(%rbp)
    975d:	85 c2 95 
    9760:	c7 85 84 f7 ff ff fb 	movl   $0xfffffffb,-0x87c(%rbp)
    9767:	ff ff ff 
    976a:	c7 85 88 f7 ff ff 4c 	movl   $0x5971b44c,-0x878(%rbp)
    9771:	b4 71 59 
    9774:	c7 85 8c f7 ff ff 5e 	movl   $0xe820845e,-0x874(%rbp)
    977b:	84 20 e8 
    977e:	c7 85 90 f7 ff ff 4b 	movl   $0x8714854b,-0x870(%rbp)
    9785:	85 14 87 
    9788:	c7 85 94 f7 ff ff 07 	movl   $0x7,-0x86c(%rbp)
    978f:	00 00 00 
    9792:	c7 85 98 f7 ff ff 09 	movl   $0x9,-0x868(%rbp)
    9799:	00 00 00 
    979c:	c7 85 9c f7 ff ff 4c 	movl   $0x5971b44c,-0x864(%rbp)
    97a3:	b4 71 59 
    97a6:	48 b8 37 56 f1 12 9f 	movabs $0x76d8f19f12f15637,%rax
    97ad:	f1 d8 76 
    97b0:	48 89 85 90 f4 ff ff 	mov    %rax,-0xb70(%rbp)
    97b7:	48 8d 85 50 f2 ff ff 	lea    -0xdb0(%rbp),%rax
    97be:	48 89 85 98 f4 ff ff 	mov    %rax,-0xb68(%rbp)
    97c5:	c7 85 14 f3 ff ff 00 	movl   $0x78660700,-0xcec(%rbp)
    97cc:	07 66 78 
    97cf:	48 8d 05 6e 9e 00 00 	lea    0x9e6e(%rip),%rax        # 13644 <g_975+0xe4>
    97d6:	48 89 85 a0 f4 ff ff 	mov    %rax,-0xb60(%rbp)
    97dd:	c7 85 c4 f2 ff ff 00 	movl   $0x0,-0xd3c(%rbp)
    97e4:	00 00 00 
    97e7:	eb 1e                	jmp    9807 <func_50+0x286f>
    97e9:	8b 85 c4 f2 ff ff    	mov    -0xd3c(%rbp),%eax
    97ef:	48 98                	cltq   
    97f1:	48 8d 15 00 b6 00 00 	lea    0xb600(%rip),%rdx        # 14df8 <g_876>
    97f8:	48 89 94 c5 40 f5 ff 	mov    %rdx,-0xac0(%rbp,%rax,8)
    97ff:	ff 
    9800:	83 85 c4 f2 ff ff 01 	addl   $0x1,-0xd3c(%rbp)
    9807:	83 bd c4 f2 ff ff 00 	cmpl   $0x0,-0xd3c(%rbp)
    980e:	7e d9                	jle    97e9 <func_50+0x2851>
    9810:	c7 85 40 f2 ff ff 1a 	movl   $0x1a,-0xdc0(%rbp)
    9817:	00 00 00 
    981a:	e9 2a 0b 00 00       	jmpq   a349 <func_50+0x33b1>
    981f:	48 8d 05 3c 9e 00 00 	lea    0x9e3c(%rip),%rax        # 13662 <g_1103>
    9826:	48 89 85 a8 f4 ff ff 	mov    %rax,-0xb58(%rbp)
    982d:	48 8d 05 4c b4 00 00 	lea    0xb44c(%rip),%rax        # 14c80 <g_502+0x60>
    9834:	48 89 85 b0 f4 ff ff 	mov    %rax,-0xb50(%rbp)
    983b:	48 8d 85 40 f9 ff ff 	lea    -0x6c0(%rbp),%rax
    9842:	48 8d 15 77 a5 00 00 	lea    0xa577(%rip),%rdx        # 13dc0 <g_1482+0x590>
    9849:	b9 36 00 00 00       	mov    $0x36,%ecx
    984e:	48 89 c7             	mov    %rax,%rdi
    9851:	48 89 d6             	mov    %rdx,%rsi
    9854:	f3 48 a5             	rep movsq %ds:(%rsi),%es:(%rdi)
    9857:	c7 85 58 f2 ff ff 00 	movl   $0x0,-0xda8(%rbp)
    985e:	00 00 00 
    9861:	c7 85 5c f2 ff ff 01 	movl   $0x1,-0xda4(%rbp)
    9868:	00 00 00 
    986b:	48 8d 85 30 f2 ff ff 	lea    -0xdd0(%rbp),%rax
    9872:	48 89 85 b8 f4 ff ff 	mov    %rax,-0xb48(%rbp)
    9879:	c7 85 18 f3 ff ff 09 	movl   $0x9,-0xce8(%rbp)
    9880:	00 00 00 
    9883:	c7 85 1c f3 ff ff 00 	movl   $0x0,-0xce4(%rbp)
    988a:	00 00 00 
    988d:	c7 85 60 f2 ff ff 12 	movl   $0xce6df512,-0xda0(%rbp)
    9894:	f5 6d ce 
    9897:	c7 85 20 f3 ff ff 58 	movl   $0x45d52058,-0xce0(%rbp)
    989e:	20 d5 45 
    98a1:	48 c7 85 c0 f4 ff ff 	movq   $0x0,-0xb40(%rbp)
    98a8:	00 00 00 00 
    98ac:	48 c7 85 c8 f4 ff ff 	movq   $0x0,-0xb38(%rbp)
    98b3:	00 00 00 00 
    98b7:	48 8d 05 ba 57 00 00 	lea    0x57ba(%rip),%rax        # f078 <g_1342>
    98be:	48 89 85 58 f3 ff ff 	mov    %rax,-0xca8(%rbp)
    98c5:	48 8d 85 58 f3 ff ff 	lea    -0xca8(%rbp),%rax
    98cc:	48 89 85 d0 f4 ff ff 	mov    %rax,-0xb30(%rbp)
    98d3:	48 c7 85 d8 f4 ff ff 	movq   $0x8,-0xb28(%rbp)
    98da:	08 00 00 00 
    98de:	c7 85 c8 f2 ff ff 00 	movl   $0x0,-0xd38(%rbp)
    98e5:	00 00 00 
    98e8:	eb 42                	jmp    992c <func_50+0x2994>
    98ea:	c7 85 cc f2 ff ff 00 	movl   $0x0,-0xd34(%rbp)
    98f1:	00 00 00 
    98f4:	eb 26                	jmp    991c <func_50+0x2984>
    98f6:	8b 85 cc f2 ff ff    	mov    -0xd34(%rbp),%eax
    98fc:	48 63 d0             	movslq %eax,%rdx
    98ff:	8b 85 c8 f2 ff ff    	mov    -0xd38(%rbp),%eax
    9905:	48 98                	cltq   
    9907:	48 01 d0             	add    %rdx,%rax
    990a:	c7 84 85 90 f5 ff ff 	movl   $0x1,-0xa70(%rbp,%rax,4)
    9911:	01 00 00 00 
    9915:	83 85 cc f2 ff ff 01 	addl   $0x1,-0xd34(%rbp)
    991c:	83 bd cc f2 ff ff 00 	cmpl   $0x0,-0xd34(%rbp)
    9923:	7e d1                	jle    98f6 <func_50+0x295e>
    9925:	83 85 c8 f2 ff ff 01 	addl   $0x1,-0xd38(%rbp)
    992c:	83 bd c8 f2 ff ff 06 	cmpl   $0x6,-0xd38(%rbp)
    9933:	7e b5                	jle    98ea <func_50+0x2952>
    9935:	48 83 bd b0 f4 ff ff 	cmpq   $0x0,-0xb50(%rbp)
    993c:	00 
    993d:	75 10                	jne    994f <func_50+0x29b7>
    993f:	80 bd 2a f2 ff ff 00 	cmpb   $0x0,-0xdd6(%rbp)
    9946:	74 07                	je     994f <func_50+0x29b7>
    9948:	ba 01 00 00 00       	mov    $0x1,%edx
    994d:	eb 05                	jmp    9954 <func_50+0x29bc>
    994f:	ba 00 00 00 00       	mov    $0x0,%edx
    9954:	48 8b 05 ad b4 00 00 	mov    0xb4ad(%rip),%rax        # 14e08 <g_899>
    995b:	88 10                	mov    %dl,(%rax)
    995d:	c7 85 54 f2 ff ff 01 	movl   $0x1,-0xdac(%rbp)
    9964:	00 00 00 
    9967:	8b 85 54 f2 ff ff    	mov    -0xdac(%rbp),%eax
    996d:	48 98                	cltq   
    996f:	be 01 00 00 00       	mov    $0x1,%esi
    9974:	48 89 c7             	mov    %rax,%rdi
    9977:	e8 38 c0 ff ff       	callq  59b4 <safe_mod_func_int64_t_s_s>
    997c:	be 04 00 00 00       	mov    $0x4,%esi
    9981:	bf 01 00 00 00       	mov    $0x1,%edi
    9986:	e8 e1 b9 ff ff       	callq  536c <safe_rshift_func_int8_t_s_u>
    998b:	66 0f be d0          	movsbw %al,%dx
    998f:	0f b7 85 1c f2 ff ff 	movzwl -0xde4(%rbp),%eax
    9996:	66 39 c2             	cmp    %ax,%dx
    9999:	0f 9c c0             	setl   %al
    999c:	0f b6 c0             	movzbl %al,%eax
    999f:	be 07 00 00 00       	mov    $0x7,%esi
    99a4:	89 c7                	mov    %eax,%edi
    99a6:	e8 13 c3 ff ff       	callq  5cbe <safe_rshift_func_uint8_t_u_u>
    99ab:	3c 08                	cmp    $0x8,%al
    99ad:	0f 97 c0             	seta   %al
    99b0:	0f b6 d8             	movzbl %al,%ebx
    99b3:	8b 85 18 f2 ff ff    	mov    -0xde8(%rbp),%eax
    99b9:	89 c2                	mov    %eax,%edx
    99bb:	48 8b 85 98 f3 ff ff 	mov    -0xc68(%rbp),%rax
    99c2:	66 89 10             	mov    %dx,(%rax)
    99c5:	48 8b 85 98 f3 ff ff 	mov    -0xc68(%rbp),%rax
    99cc:	0f b7 10             	movzwl (%rax),%edx
    99cf:	48 8b 85 a8 f4 ff ff 	mov    -0xb58(%rbp),%rax
    99d6:	66 89 10             	mov    %dx,(%rax)
    99d9:	48 8b 85 a8 f4 ff ff 	mov    -0xb58(%rbp),%rax
    99e0:	0f b7 00             	movzwl (%rax),%eax
    99e3:	0f bf d0             	movswl %ax,%edx
    99e6:	8b 85 18 f2 ff ff    	mov    -0xde8(%rbp),%eax
    99ec:	98                   	cwtl   
    99ed:	89 d6                	mov    %edx,%esi
    99ef:	89 c7                	mov    %eax,%edi
    99f1:	e8 ff b9 ff ff       	callq  53f5 <safe_mul_func_int16_t_s_s>
    99f6:	0f b7 95 1c f2 ff ff 	movzwl -0xde4(%rbp),%edx
    99fd:	66 39 d0             	cmp    %dx,%ax
    9a00:	0f 95 c0             	setne  %al
    9a03:	0f b6 c0             	movzbl %al,%eax
    9a06:	89 de                	mov    %ebx,%esi
    9a08:	89 c7                	mov    %eax,%edi
    9a0a:	e8 84 c1 ff ff       	callq  5b93 <safe_mul_func_uint8_t_u_u>
    9a0f:	84 c0                	test   %al,%al
    9a11:	0f 84 32 03 00 00    	je     9d49 <func_50+0x2db1>
    9a17:	48 c7 85 a8 f3 ff ff 	movq   $0x1,-0xc58(%rbp)
    9a1e:	01 00 00 00 
    9a22:	c7 85 38 f3 ff ff a5 	movl   $0x8011a5,-0xcc8(%rbp)
    9a29:	11 80 00 
    9a2c:	c7 85 54 f2 ff ff 09 	movl   $0x9,-0xdac(%rbp)
    9a33:	00 00 00 
    9a36:	c6 85 29 f2 ff ff 0c 	movb   $0xc,-0xdd7(%rbp)
    9a3d:	e9 f5 02 00 00       	jmpq   9d37 <func_50+0x2d9f>
    9a42:	48 b8 dd 22 40 1c c7 	movabs $0x7b20b9c71c4022dd,%rax
    9a49:	b9 20 7b 
    9a4c:	48 89 85 08 f5 ff ff 	mov    %rax,-0xaf8(%rbp)
    9a53:	c7 85 3c f3 ff ff f9 	movl   $0xfffffff9,-0xcc4(%rbp)
    9a5a:	ff ff ff 
    9a5d:	c7 05 d9 9a 00 00 01 	movl   $0x1,0x9ad9(%rip)        # 13540 <g_917>
    9a64:	00 00 00 
    9a67:	e9 a9 00 00 00       	jmpq   9b15 <func_50+0x2b7d>
    9a6c:	48 8d 05 15 97 00 00 	lea    0x9715(%rip),%rax        # 13188 <g_410+0x8>
    9a73:	48 89 85 60 f6 ff ff 	mov    %rax,-0x9a0(%rbp)
    9a7a:	48 8d 85 2c f2 ff ff 	lea    -0xdd4(%rbp),%rax
    9a81:	48 89 85 68 f6 ff ff 	mov    %rax,-0x998(%rbp)
    9a88:	48 8d 05 f9 96 00 00 	lea    0x96f9(%rip),%rax        # 13188 <g_410+0x8>
    9a8f:	48 89 85 70 f6 ff ff 	mov    %rax,-0x990(%rbp)
    9a96:	48 8d 05 eb 96 00 00 	lea    0x96eb(%rip),%rax        # 13188 <g_410+0x8>
    9a9d:	48 89 85 78 f6 ff ff 	mov    %rax,-0x988(%rbp)
    9aa4:	48 8d 85 2c f2 ff ff 	lea    -0xdd4(%rbp),%rax
    9aab:	48 89 85 80 f6 ff ff 	mov    %rax,-0x980(%rbp)
    9ab2:	48 8d 05 cf 96 00 00 	lea    0x96cf(%rip),%rax        # 13188 <g_410+0x8>
    9ab9:	48 89 85 88 f6 ff ff 	mov    %rax,-0x978(%rbp)
    9ac0:	48 8d 05 c1 96 00 00 	lea    0x96c1(%rip),%rax        # 13188 <g_410+0x8>
    9ac7:	48 89 85 90 f6 ff ff 	mov    %rax,-0x970(%rbp)
    9ace:	48 8d 85 2c f2 ff ff 	lea    -0xdd4(%rbp),%rax
    9ad5:	48 89 85 98 f6 ff ff 	mov    %rax,-0x968(%rbp)
    9adc:	48 8b 05 7d b0 00 00 	mov    0xb07d(%rip),%rax        # 14b60 <g_44>
    9ae3:	8b 08                	mov    (%rax),%ecx
    9ae5:	8b 95 58 f2 ff ff    	mov    -0xda8(%rbp),%edx
    9aeb:	21 ca                	and    %ecx,%edx
    9aed:	89 10                	mov    %edx,(%rax)
    9aef:	0f b7 85 1c f2 ff ff 	movzwl -0xde4(%rbp),%eax
    9af6:	66 85 c0             	test   %ax,%ax
    9af9:	75 0a                	jne    9b05 <func_50+0x2b6d>
    9afb:	48 83 85 a8 f3 ff ff 	addq   $0x1,-0xc58(%rbp)
    9b02:	01 
    9b03:	eb 01                	jmp    9b06 <func_50+0x2b6e>
    9b05:	90                   	nop
    9b06:	8b 05 34 9a 00 00    	mov    0x9a34(%rip),%eax        # 13540 <g_917>
    9b0c:	83 c0 01             	add    $0x1,%eax
    9b0f:	89 05 2b 9a 00 00    	mov    %eax,0x9a2b(%rip)        # 13540 <g_917>
    9b15:	8b 05 25 9a 00 00    	mov    0x9a25(%rip),%eax        # 13540 <g_917>
    9b1b:	83 f8 08             	cmp    $0x8,%eax
    9b1e:	0f 86 48 ff ff ff    	jbe    9a6c <func_50+0x2ad4>
    9b24:	c7 85 4c f2 ff ff 00 	movl   $0x0,-0xdb4(%rbp)
    9b2b:	00 00 00 
    9b2e:	e9 ee 01 00 00       	jmpq   9d21 <func_50+0x2d89>
    9b33:	c7 85 60 f6 ff ff f7 	movl   $0xf70101f7,-0x9a0(%rbp)
    9b3a:	01 01 f7 
    9b3d:	c6 85 64 f6 ff ff 01 	movb   $0x1,-0x99c(%rbp)
    9b44:	c7 85 65 f6 ff ff 01 	movl   $0x1000101,-0x99b(%rbp)
    9b4b:	01 00 01 
    9b4e:	c6 85 69 f6 ff ff 01 	movb   $0x1,-0x997(%rbp)
    9b55:	c7 85 6a f6 ff ff 01 	movl   $0x101f701,-0x996(%rbp)
    9b5c:	f7 01 01 
    9b5f:	c6 85 6e f6 ff ff f7 	movb   $0xf7,-0x992(%rbp)
    9b66:	c7 85 6f f6 ff ff 01 	movl   $0x1ffff01,-0x991(%rbp)
    9b6d:	ff ff 01 
    9b70:	c6 85 73 f6 ff ff ff 	movb   $0xff,-0x98d(%rbp)
    9b77:	c7 85 74 f6 ff ff f7 	movl   $0xf7aff7f7,-0x98c(%rbp)
    9b7e:	f7 af f7 
    9b81:	c6 85 78 f6 ff ff f7 	movb   $0xf7,-0x988(%rbp)
    9b88:	c7 85 79 f6 ff ff ff 	movl   $0xffff01ff,-0x987(%rbp)
    9b8f:	01 ff ff 
    9b92:	c6 85 7d f6 ff ff 01 	movb   $0x1,-0x983(%rbp)
    9b99:	c7 85 7e f6 ff ff f7 	movl   $0xf70101f7,-0x982(%rbp)
    9ba0:	01 01 f7 
    9ba3:	c6 85 82 f6 ff ff 01 	movb   $0x1,-0x97e(%rbp)
    9baa:	c7 85 83 f6 ff ff 01 	movl   $0x1000101,-0x97d(%rbp)
    9bb1:	01 00 01 
    9bb4:	c6 85 87 f6 ff ff 01 	movb   $0x1,-0x979(%rbp)
    9bbb:	c7 85 88 f6 ff ff 01 	movl   $0x101f701,-0x978(%rbp)
    9bc2:	f7 01 01 
    9bc5:	c6 85 8c f6 ff ff f7 	movb   $0xf7,-0x974(%rbp)
    9bcc:	c7 85 8d f6 ff ff 01 	movl   $0x1ffff01,-0x973(%rbp)
    9bd3:	ff ff 01 
    9bd6:	c6 85 91 f6 ff ff ff 	movb   $0xff,-0x96f(%rbp)
    9bdd:	0f be 9d 2a f2 ff ff 	movsbl -0xdd6(%rbp),%ebx
    9be4:	48 8b 05 1d b0 00 00 	mov    0xb01d(%rip),%rax        # 14c08 <g_355>
    9beb:	48 8b 00             	mov    (%rax),%rax
    9bee:	0f b7 00             	movzwl (%rax),%eax
    9bf1:	0f b7 d0             	movzwl %ax,%edx
    9bf4:	48 8d 05 fd b1 00 00 	lea    0xb1fd(%rip),%rax        # 14df8 <g_876>
    9bfb:	48 89 05 fe b1 00 00 	mov    %rax,0xb1fe(%rip)        # 14e00 <g_875>
    9c02:	be 01 00 00 00       	mov    $0x1,%esi
    9c07:	48 8b 05 e2 b9 00 00 	mov    0xb9e2(%rip),%rax        # 155f0 <g_963>
    9c0e:	48 8b 00             	mov    (%rax),%rax
    9c11:	48 8b 00             	mov    (%rax),%rax
    9c14:	0f b7 00             	movzwl (%rax),%eax
    9c17:	89 c1                	mov    %eax,%ecx
    9c19:	89 f0                	mov    %esi,%eax
    9c1b:	31 c1                	xor    %eax,%ecx
    9c1d:	48 8b 05 cc b9 00 00 	mov    0xb9cc(%rip),%rax        # 155f0 <g_963>
    9c24:	48 8b 00             	mov    (%rax),%rax
    9c27:	48 8b 00             	mov    (%rax),%rax
    9c2a:	66 89 08             	mov    %cx,(%rax)
    9c2d:	0f b7 00             	movzwl (%rax),%eax
    9c30:	0f b7 c0             	movzwl %ax,%eax
    9c33:	89 d6                	mov    %edx,%esi
    9c35:	89 c7                	mov    %eax,%edi
    9c37:	e8 52 c1 ff ff       	callq  5d8e <safe_div_func_uint16_t_u_u>
    9c3c:	0f b6 95 7f f6 ff ff 	movzbl -0x981(%rbp),%edx
    9c43:	0f b6 d2             	movzbl %dl,%edx
    9c46:	66 39 d0             	cmp    %dx,%ax
    9c49:	0f 96 c0             	setbe  %al
    9c4c:	0f b6 c0             	movzbl %al,%eax
    9c4f:	89 85 2c f2 ff ff    	mov    %eax,-0xdd4(%rbp)
    9c55:	0f b6 85 91 f6 ff ff 	movzbl -0x96f(%rbp),%eax
    9c5c:	0f b6 c0             	movzbl %al,%eax
    9c5f:	be 01 00 00 00       	mov    $0x1,%esi
    9c64:	89 c7                	mov    %eax,%edi
    9c66:	e8 ef be ff ff       	callq  5b5a <safe_add_func_uint8_t_u_u>
    9c6b:	0f b6 c0             	movzbl %al,%eax
    9c6e:	89 c6                	mov    %eax,%esi
    9c70:	bf 07 00 00 00       	mov    $0x7,%edi
    9c75:	e8 3e c2 ff ff       	callq  5eb8 <safe_add_func_uint32_t_u_u>
    9c7a:	0f b6 c0             	movzbl %al,%eax
    9c7d:	be 01 00 00 00       	mov    $0x1,%esi
    9c82:	89 c7                	mov    %eax,%edi
    9c84:	e8 ef be ff ff       	callq  5b78 <safe_sub_func_uint8_t_u_u>
    9c89:	8b 85 18 f2 ff ff    	mov    -0xde8(%rbp),%eax
    9c8f:	83 f0 01             	xor    $0x1,%eax
    9c92:	48 98                	cltq   
    9c94:	ba 2d a8 0c 97       	mov    $0x970ca82d,%edx
    9c99:	48 31 d0             	xor    %rdx,%rax
    9c9c:	48 89 c2             	mov    %rax,%rdx
    9c9f:	48 b8 41 4e 36 a1 52 	movabs $0x9f789552a1364e41,%rax
    9ca6:	95 78 9f 
    9ca9:	48 39 c2             	cmp    %rax,%rdx
    9cac:	77 08                	ja     9cb6 <func_50+0x2d1e>
    9cae:	8b 85 38 f2 ff ff    	mov    -0xdc8(%rbp),%eax
    9cb4:	85 c0                	test   %eax,%eax
    9cb6:	0f b6 05 97 98 00 00 	movzbl 0x9897(%rip),%eax        # 13554 <g_962+0x4>
    9cbd:	3c ff                	cmp    $0xff,%al
    9cbf:	0f 95 c0             	setne  %al
    9cc2:	0f b6 d0             	movzbl %al,%edx
    9cc5:	8b 85 4c f2 ff ff    	mov    -0xdb4(%rbp),%eax
    9ccb:	39 c2                	cmp    %eax,%edx
    9ccd:	0f 94 c0             	sete   %al
    9cd0:	0f b6 d0             	movzbl %al,%edx
    9cd3:	8b 85 48 f2 ff ff    	mov    -0xdb8(%rbp),%eax
    9cd9:	09 d0                	or     %edx,%eax
    9cdb:	48 63 d0             	movslq %eax,%rdx
    9cde:	48 8b 05 0b b1 00 00 	mov    0xb10b(%rip),%rax        # 14df0 <g_877>
    9ce5:	48 8b 00             	mov    (%rax),%rax
    9ce8:	48 39 c2             	cmp    %rax,%rdx
    9ceb:	0f 93 c0             	setae  %al
    9cee:	0f b6 c0             	movzbl %al,%eax
    9cf1:	89 de                	mov    %ebx,%esi
    9cf3:	89 c7                	mov    %eax,%edi
    9cf5:	e8 d6 c1 ff ff       	callq  5ed0 <safe_sub_func_uint32_t_u_u>
    9cfa:	0f b6 c0             	movzbl %al,%eax
    9cfd:	be 02 00 00 00       	mov    $0x2,%esi
    9d02:	89 c7                	mov    %eax,%edi
    9d04:	e8 d2 be ff ff       	callq  5bdb <safe_div_func_uint8_t_u_u>
    9d09:	0f b6 c0             	movzbl %al,%eax
    9d0c:	89 85 38 f3 ff ff    	mov    %eax,-0xcc8(%rbp)
    9d12:	8b 85 4c f2 ff ff    	mov    -0xdb4(%rbp),%eax
    9d18:	83 c0 01             	add    $0x1,%eax
    9d1b:	89 85 4c f2 ff ff    	mov    %eax,-0xdb4(%rbp)
    9d21:	8b 85 4c f2 ff ff    	mov    -0xdb4(%rbp),%eax
    9d27:	83 f8 01             	cmp    $0x1,%eax
    9d2a:	0f 8e 03 fe ff ff    	jle    9b33 <func_50+0x2b9b>
    9d30:	80 85 29 f2 ff ff 01 	addb   $0x1,-0xdd7(%rbp)
    9d37:	80 bd 29 f2 ff ff 32 	cmpb   $0x32,-0xdd7(%rbp)
    9d3e:	0f 86 fe fc ff ff    	jbe    9a42 <func_50+0x2aaa>
    9d44:	e9 51 05 00 00       	jmpq   a29a <func_50+0x3302>
    9d49:	c7 85 64 f2 ff ff f7 	movl   $0xfffffff7,-0xd9c(%rbp)
    9d50:	ff ff ff 
    9d53:	48 c7 85 e0 f4 ff ff 	movq   $0x0,-0xb20(%rbp)
    9d5a:	00 00 00 00 
    9d5e:	c7 85 24 f3 ff ff 4e 	movl   $0x8fe9814e,-0xcdc(%rbp)
    9d65:	81 e9 8f 
    9d68:	c7 85 28 f3 ff ff ff 	movl   $0xffffffff,-0xcd8(%rbp)
    9d6f:	ff ff ff 
    9d72:	c7 85 2c f3 ff ff b4 	movl   $0x7102d2b4,-0xcd4(%rbp)
    9d79:	d2 02 71 
    9d7c:	c7 85 30 f3 ff ff ff 	movl   $0xffffffff,-0xcd0(%rbp)
    9d83:	ff ff ff 
    9d86:	c7 85 34 f3 ff ff c6 	movl   $0xb843a8c6,-0xccc(%rbp)
    9d8d:	a8 43 b8 
    9d90:	c7 85 60 f6 ff ff 05 	movl   $0x5,-0x9a0(%rbp)
    9d97:	00 00 00 
    9d9a:	c7 85 64 f6 ff ff 05 	movl   $0x5,-0x99c(%rbp)
    9da1:	00 00 00 
    9da4:	c7 85 68 f6 ff ff 05 	movl   $0x5,-0x998(%rbp)
    9dab:	00 00 00 
    9dae:	c7 85 6c f6 ff ff 6f 	movl   $0x74662a6f,-0x994(%rbp)
    9db5:	2a 66 74 
    9db8:	c7 85 70 f6 ff ff 00 	movl   $0x0,-0x990(%rbp)
    9dbf:	00 00 00 
    9dc2:	c7 85 74 f6 ff ff ff 	movl   $0xffffffff,-0x98c(%rbp)
    9dc9:	ff ff ff 
    9dcc:	c7 85 78 f6 ff ff 6f 	movl   $0x74662a6f,-0x988(%rbp)
    9dd3:	2a 66 74 
    9dd6:	c7 85 7c f6 ff ff ff 	movl   $0xffffffff,-0x984(%rbp)
    9ddd:	ff ff ff 
    9de0:	c7 85 80 f6 ff ff 00 	movl   $0x0,-0x980(%rbp)
    9de7:	00 00 00 
    9dea:	c7 85 84 f6 ff ff 6f 	movl   $0x74662a6f,-0x97c(%rbp)
    9df1:	2a 66 74 
    9df4:	c7 85 88 f6 ff ff 05 	movl   $0x5,-0x978(%rbp)
    9dfb:	00 00 00 
    9dfe:	c7 85 8c f6 ff ff 05 	movl   $0x5,-0x974(%rbp)
    9e05:	00 00 00 
    9e08:	c7 85 90 f6 ff ff 05 	movl   $0x5,-0x970(%rbp)
    9e0f:	00 00 00 
    9e12:	c7 85 94 f6 ff ff 6f 	movl   $0x74662a6f,-0x96c(%rbp)
    9e19:	2a 66 74 
    9e1c:	c7 85 98 f6 ff ff 00 	movl   $0x0,-0x968(%rbp)
    9e23:	00 00 00 
    9e26:	c7 85 9c f6 ff ff ff 	movl   $0xffffffff,-0x964(%rbp)
    9e2d:	ff ff ff 
    9e30:	c7 85 a0 f6 ff ff 6f 	movl   $0x74662a6f,-0x960(%rbp)
    9e37:	2a 66 74 
    9e3a:	c7 85 a4 f6 ff ff ff 	movl   $0xffffffff,-0x95c(%rbp)
    9e41:	ff ff ff 
    9e44:	c7 85 a8 f6 ff ff 00 	movl   $0x0,-0x958(%rbp)
    9e4b:	00 00 00 
    9e4e:	c7 85 ac f6 ff ff 6f 	movl   $0x74662a6f,-0x954(%rbp)
    9e55:	2a 66 74 
    9e58:	c7 85 18 f2 ff ff 00 	movl   $0x0,-0xde8(%rbp)
    9e5f:	00 00 00 
    9e62:	83 bd 18 f2 ff ff 03 	cmpl   $0x3,-0xde8(%rbp)
    9e69:	7f 55                	jg     9ec0 <func_50+0x2f28>
    9e6b:	66 c7 05 cc 91 00 00 	movw   $0x3,0x91cc(%rip)        # 13040 <g_115>
    9e72:	03 00 
    9e74:	eb 33                	jmp    9ea9 <func_50+0x2f11>
    9e76:	48 8b 85 08 f2 ff ff 	mov    -0xdf8(%rbp),%rax
    9e7d:	48 8b 95 b8 f4 ff ff 	mov    -0xb48(%rbp),%rdx
    9e84:	48 89 10             	mov    %rdx,(%rax)
    9e87:	48 8b 05 5a af 00 00 	mov    0xaf5a(%rip),%rax        # 14de8 <g_850>
    9e8e:	48 8d 95 5c f2 ff ff 	lea    -0xda4(%rbp),%rdx
    9e95:	48 89 10             	mov    %rdx,(%rax)
    9e98:	0f b7 05 a1 91 00 00 	movzwl 0x91a1(%rip),%eax        # 13040 <g_115>
    9e9f:	83 e8 01             	sub    $0x1,%eax
    9ea2:	66 89 05 97 91 00 00 	mov    %ax,0x9197(%rip)        # 13040 <g_115>
    9ea9:	0f b7 05 90 91 00 00 	movzwl 0x9190(%rip),%eax        # 13040 <g_115>
    9eb0:	66 85 c0             	test   %ax,%ax
    9eb3:	79 c1                	jns    9e76 <func_50+0x2ede>
    9eb5:	8b 85 64 f2 ff ff    	mov    -0xd9c(%rbp),%eax
    9ebb:	e9 ac 06 00 00       	jmpq   a56c <func_50+0x35d4>
    9ec0:	c7 85 48 f2 ff ff fd 	movl   $0xfffffffd,-0xdb8(%rbp)
    9ec7:	ff ff ff 
    9eca:	e9 bc 03 00 00       	jmpq   a28b <func_50+0x32f3>
    9ecf:	c6 85 2b f2 ff ff 4a 	movb   $0x4a,-0xdd5(%rbp)
    9ed6:	48 b8 8f 70 03 b4 cf 	movabs $0x97c818cfb403708f,%rax
    9edd:	18 c8 97 
    9ee0:	48 89 85 e8 f4 ff ff 	mov    %rax,-0xb18(%rbp)
    9ee7:	48 c7 85 10 f6 ff ff 	movq   $0x0,-0x9f0(%rbp)
    9eee:	00 00 00 00 
    9ef2:	48 c7 85 18 f6 ff ff 	movq   $0x0,-0x9e8(%rbp)
    9ef9:	00 00 00 00 
    9efd:	48 c7 85 20 f6 ff ff 	movq   $0x0,-0x9e0(%rbp)
    9f04:	00 00 00 00 
    9f08:	c7 85 28 f6 ff ff 00 	movl   $0x0,-0x9d8(%rbp)
    9f0f:	00 00 00 
    9f12:	48 c7 85 f0 f4 ff ff 	movq   $0x2,-0xb10(%rbp)
    9f19:	02 00 00 00 
    9f1d:	48 8d 05 cc b6 00 00 	lea    0xb6cc(%rip),%rax        # 155f0 <g_963>
    9f24:	48 89 85 f8 f4 ff ff 	mov    %rax,-0xb08(%rbp)
    9f2b:	c7 85 34 f2 ff ff 05 	movl   $0x5,-0xdcc(%rbp)
    9f32:	00 00 00 
    9f35:	eb 60                	jmp    9f97 <func_50+0x2fff>
    9f37:	8b 85 34 f2 ff ff    	mov    -0xdcc(%rbp),%eax
    9f3d:	48 98                	cltq   
    9f3f:	48 8d 15 02 91 00 00 	lea    0x9102(%rip),%rdx        # 13048 <g_175>
    9f46:	0f b6 04 10          	movzbl (%rax,%rdx,1),%eax
    9f4a:	0f be c0             	movsbl %al,%eax
    9f4d:	be 04 00 00 00       	mov    $0x4,%esi
    9f52:	89 c7                	mov    %eax,%edi
    9f54:	e8 95 b3 ff ff       	callq  52ee <safe_lshift_func_int8_t_s_u>
    9f59:	8b 85 34 f2 ff ff    	mov    -0xdcc(%rbp),%eax
    9f5f:	48 98                	cltq   
    9f61:	48 8d 15 e0 90 00 00 	lea    0x90e0(%rip),%rdx        # 13048 <g_175>
    9f68:	0f b6 04 10          	movzbl (%rax,%rdx,1),%eax
    9f6c:	0f b6 c0             	movzbl %al,%eax
    9f6f:	89 c6                	mov    %eax,%esi
    9f71:	bf 3d e2 00 00       	mov    $0xe23d,%edi
    9f76:	e8 43 be ff ff       	callq  5dbe <safe_lshift_func_uint16_t_u_s>
    9f7b:	48 8b 85 b8 f4 ff ff 	mov    -0xb48(%rbp),%rax
    9f82:	c7 00 01 00 00 00    	movl   $0x1,(%rax)
    9f88:	8b 85 34 f2 ff ff    	mov    -0xdcc(%rbp),%eax
    9f8e:	83 e8 01             	sub    $0x1,%eax
    9f91:	89 85 34 f2 ff ff    	mov    %eax,-0xdcc(%rbp)
    9f97:	8b 85 34 f2 ff ff    	mov    -0xdcc(%rbp),%eax
    9f9d:	85 c0                	test   %eax,%eax
    9f9f:	79 96                	jns    9f37 <func_50+0x2f9f>
    9fa1:	48 8d 85 4c f2 ff ff 	lea    -0xdb4(%rbp),%rax
    9fa8:	48 89 85 00 f5 ff ff 	mov    %rax,-0xb00(%rbp)
    9faf:	48 8b 85 b8 f4 ff ff 	mov    -0xb48(%rbp),%rax
    9fb6:	8b 00                	mov    (%rax),%eax
    9fb8:	83 e0 02             	and    $0x2,%eax
    9fbb:	89 c2                	mov    %eax,%edx
    9fbd:	48 8b 85 b8 f4 ff ff 	mov    -0xb48(%rbp),%rax
    9fc4:	89 10                	mov    %edx,(%rax)
    9fc6:	8b 85 18 f2 ff ff    	mov    -0xde8(%rbp),%eax
    9fcc:	48 63 d8             	movslq %eax,%rbx
    9fcf:	44 8b a5 18 f2 ff ff 	mov    -0xde8(%rbp),%r12d
    9fd6:	0f b6 05 57 95 00 00 	movzbl 0x9557(%rip),%eax        # 13534 <g_741+0x4>
    9fdd:	84 c0                	test   %al,%al
    9fdf:	0f 85 2c 01 00 00    	jne    a111 <func_50+0x3179>
    9fe5:	48 8b 05 fc b5 00 00 	mov    0xb5fc(%rip),%rax        # 155e8 <g_964>
    9fec:	48 8b 00             	mov    (%rax),%rax
    9fef:	66 c7 00 55 c8       	movw   $0xc855,(%rax)
    9ff4:	0f b7 85 1c f2 ff ff 	movzwl -0xde4(%rbp),%eax
    9ffb:	44 0f b7 e8          	movzwl %ax,%r13d
    9fff:	48 8b 05 0a ad 00 00 	mov    0xad0a(%rip),%rax        # 14d10 <g_620>
    a006:	0f b7 00             	movzwl (%rax),%eax
    a009:	44 0f b7 f0          	movzwl %ax,%r14d
    a00d:	8b 85 54 f2 ff ff    	mov    -0xdac(%rbp),%eax
    a013:	48 63 d0             	movslq %eax,%rdx
    a016:	48 8b 05 e3 ad 00 00 	mov    0xade3(%rip),%rax        # 14e00 <g_875>
    a01d:	48 8b 00             	mov    (%rax),%rax
    a020:	48 8b 00             	mov    (%rax),%rax
    a023:	48 8b 08             	mov    (%rax),%rcx
    a026:	48 83 c1 01          	add    $0x1,%rcx
    a02a:	48 89 08             	mov    %rcx,(%rax)
    a02d:	48 8b 05 bc b5 00 00 	mov    0xb5bc(%rip),%rax        # 155f0 <g_963>
    a034:	48 8b 00             	mov    (%rax),%rax
    a037:	48 8b 00             	mov    (%rax),%rax
    a03a:	0f b7 00             	movzwl (%rax),%eax
    a03d:	66 83 f8 f6          	cmp    $0xfff6,%ax
    a041:	0f 95 c0             	setne  %al
    a044:	0f b6 c8             	movzbl %al,%ecx
    a047:	0f b7 85 1c f2 ff ff 	movzwl -0xde4(%rbp),%eax
    a04e:	98                   	cwtl   
    a04f:	39 c1                	cmp    %eax,%ecx
    a051:	0f 9c c0             	setl   %al
    a054:	0f b6 c0             	movzbl %al,%eax
    a057:	48 89 05 ca 94 00 00 	mov    %rax,0x94ca(%rip)        # 13528 <g_720>
    a05e:	48 8b 05 ab ac 00 00 	mov    0xacab(%rip),%rax        # 14d10 <g_620>
    a065:	0f b7 00             	movzwl (%rax),%eax
    a068:	66 35 0a 75          	xor    $0x750a,%ax
    a06c:	0f b7 c0             	movzwl %ax,%eax
    a06f:	48 89 d6             	mov    %rdx,%rsi
    a072:	48 89 c7             	mov    %rax,%rdi
    a075:	e8 c7 b7 ff ff       	callq  5841 <safe_add_func_int64_t_s_s>
    a07a:	44 89 f6             	mov    %r14d,%esi
    a07d:	bf 00 00 00 00       	mov    $0x0,%edi
    a082:	e8 b6 bc ff ff       	callq  5d3d <safe_mul_func_uint16_t_u_u>
    a087:	0f b7 d0             	movzwl %ax,%edx
    a08a:	48 8b 85 b8 f4 ff ff 	mov    -0xb48(%rbp),%rax
    a091:	8b 00                	mov    (%rax),%eax
    a093:	39 c2                	cmp    %eax,%edx
    a095:	0f 95 c0             	setne  %al
    a098:	0f b6 d0             	movzbl %al,%edx
    a09b:	48 8b 05 6e ac 00 00 	mov    0xac6e(%rip),%rax        # 14d10 <g_620>
    a0a2:	0f b7 00             	movzwl (%rax),%eax
    a0a5:	0f b7 c0             	movzwl %ax,%eax
    a0a8:	39 c2                	cmp    %eax,%edx
    a0aa:	0f 94 c0             	sete   %al
    a0ad:	0f b6 c0             	movzbl %al,%eax
    a0b0:	44 89 ee             	mov    %r13d,%esi
    a0b3:	89 c7                	mov    %eax,%edi
    a0b5:	e8 83 bc ff ff       	callq  5d3d <safe_mul_func_uint16_t_u_u>
    a0ba:	48 8b 05 47 ad 00 00 	mov    0xad47(%rip),%rax        # 14e08 <g_899>
    a0c1:	0f b6 00             	movzbl (%rax),%eax
    a0c4:	84 c0                	test   %al,%al
    a0c6:	75 0a                	jne    a0d2 <func_50+0x313a>
    a0c8:	8b 05 5a 8f 00 00    	mov    0x8f5a(%rip),%eax        # 13028 <g_34>
    a0ce:	85 c0                	test   %eax,%eax
    a0d0:	74 07                	je     a0d9 <func_50+0x3141>
    a0d2:	ba 01 00 00 00       	mov    $0x1,%edx
    a0d7:	eb 05                	jmp    a0de <func_50+0x3146>
    a0d9:	ba 00 00 00 00       	mov    $0x0,%edx
    a0de:	0f be 85 2b f2 ff ff 	movsbl -0xdd5(%rbp),%eax
    a0e5:	39 c2                	cmp    %eax,%edx
    a0e7:	0f 9f c0             	setg   %al
    a0ea:	0f b6 d0             	movzbl %al,%edx
    a0ed:	8b 85 64 f2 ff ff    	mov    -0xd9c(%rbp),%eax
    a0f3:	31 d0                	xor    %edx,%eax
    a0f5:	89 85 64 f2 ff ff    	mov    %eax,-0xd9c(%rbp)
    a0fb:	8b 85 64 f2 ff ff    	mov    -0xd9c(%rbp),%eax
    a101:	85 c0                	test   %eax,%eax
    a103:	74 13                	je     a118 <func_50+0x3180>
    a105:	0f b7 85 1c f2 ff ff 	movzwl -0xde4(%rbp),%eax
    a10c:	66 85 c0             	test   %ax,%ax
    a10f:	74 07                	je     a118 <func_50+0x3180>
    a111:	b8 01 00 00 00       	mov    $0x1,%eax
    a116:	eb 05                	jmp    a11d <func_50+0x3185>
    a118:	b8 00 00 00 00       	mov    $0x0,%eax
    a11d:	44 89 e6             	mov    %r12d,%esi
    a120:	89 c7                	mov    %eax,%edi
    a122:	e8 fe bd ff ff       	callq  5f25 <safe_div_func_uint32_t_u_u>
    a127:	89 c2                	mov    %eax,%edx
    a129:	48 8b 05 08 94 00 00 	mov    0x9408(%rip),%rax        # 13538 <g_769>
    a130:	48 21 d0             	and    %rdx,%rax
    a133:	48 89 05 fe 93 00 00 	mov    %rax,0x93fe(%rip)        # 13538 <g_769>
    a13a:	48 8b 05 f7 93 00 00 	mov    0x93f7(%rip),%rax        # 13538 <g_769>
    a141:	48 89 de             	mov    %rbx,%rsi
    a144:	48 89 c7             	mov    %rax,%rdi
    a147:	e8 ff be ff ff       	callq  604b <safe_sub_func_uint64_t_u_u>
    a14c:	8b 95 18 f2 ff ff    	mov    -0xde8(%rbp),%edx
    a152:	48 63 d2             	movslq %edx,%rdx
    a155:	48 39 d0             	cmp    %rdx,%rax
    a158:	0f 94 c0             	sete   %al
    a15b:	0f b6 d0             	movzbl %al,%edx
    a15e:	48 8b 85 b8 f4 ff ff 	mov    -0xb48(%rbp),%rax
    a165:	89 10                	mov    %edx,(%rax)
    a167:	48 8b 85 b8 f4 ff ff 	mov    -0xb48(%rbp),%rax
    a16e:	8b 10                	mov    (%rax),%edx
    a170:	48 8b 85 00 f5 ff ff 	mov    -0xb00(%rbp),%rax
    a177:	8b 00                	mov    (%rax),%eax
    a179:	09 c2                	or     %eax,%edx
    a17b:	48 8b 85 00 f5 ff ff 	mov    -0xb00(%rbp),%rax
    a182:	89 10                	mov    %edx,(%rax)
    a184:	8b 05 06 90 00 00    	mov    0x9006(%rip),%eax        # 13190 <g_410+0x10>
    a18a:	39 85 18 f2 ff ff    	cmp    %eax,-0xde8(%rbp)
    a190:	0f 9f c0             	setg   %al
    a193:	0f b6 c0             	movzbl %al,%eax
    a196:	be 07 00 00 00       	mov    $0x7,%esi
    a19b:	89 c7                	mov    %eax,%edi
    a19d:	e8 64 bc ff ff       	callq  5e06 <safe_lshift_func_uint16_t_u_u>
    a1a2:	44 0f b7 e8          	movzwl %ax,%r13d
    a1a6:	8b 1d 80 8e 00 00    	mov    0x8e80(%rip),%ebx        # 1302c <g_45>
    a1ac:	0f b7 85 1c f2 ff ff 	movzwl -0xde4(%rbp),%eax
    a1b3:	48 0f bf d0          	movswq %ax,%rdx
    a1b7:	48 8b 05 32 ac 00 00 	mov    0xac32(%rip),%rax        # 14df0 <g_877>
    a1be:	48 8b 00             	mov    (%rax),%rax
    a1c1:	48 89 d6             	mov    %rdx,%rsi
    a1c4:	48 89 c7             	mov    %rax,%rdi
    a1c7:	e8 b4 be ff ff       	callq  6080 <safe_mod_func_uint64_t_u_u>
    a1cc:	49 89 c4             	mov    %rax,%r12
    a1cf:	0f b6 85 2b f2 ff ff 	movzbl -0xdd5(%rbp),%eax
    a1d6:	0f b6 c0             	movzbl %al,%eax
    a1d9:	be af 00 00 00       	mov    $0xaf,%esi
    a1de:	89 c7                	mov    %eax,%edi
    a1e0:	e8 c9 b9 ff ff       	callq  5bae <safe_mod_func_uint8_t_u_u>
    a1e5:	0f b6 c0             	movzbl %al,%eax
    a1e8:	8b 95 10 f3 ff ff    	mov    -0xcf0(%rbp),%edx
    a1ee:	89 d6                	mov    %edx,%esi
    a1f0:	89 c7                	mov    %eax,%edi
    a1f2:	e8 c1 bc ff ff       	callq  5eb8 <safe_add_func_uint32_t_u_u>
    a1f7:	89 c0                	mov    %eax,%eax
    a1f9:	49 39 c4             	cmp    %rax,%r12
    a1fc:	75 07                	jne    a205 <func_50+0x326d>
    a1fe:	b8 01 00 00 00       	mov    $0x1,%eax
    a203:	eb 05                	jmp    a20a <func_50+0x3272>
    a205:	b8 00 00 00 00       	mov    $0x0,%eax
    a20a:	48 63 d0             	movslq %eax,%rdx
    a20d:	48 8b 05 e4 ab 00 00 	mov    0xabe4(%rip),%rax        # 14df8 <g_876>
    a214:	48 8b 00             	mov    (%rax),%rax
    a217:	48 8b 00             	mov    (%rax),%rax
    a21a:	48 39 c2             	cmp    %rax,%rdx
    a21d:	0f 95 c0             	setne  %al
    a220:	0f b6 c0             	movzbl %al,%eax
    a223:	89 de                	mov    %ebx,%esi
    a225:	89 c7                	mov    %eax,%edi
    a227:	e8 09 b1 ff ff       	callq  5335 <safe_rshift_func_int8_t_s_s>
    a22c:	0f be d8             	movsbl %al,%ebx
    a22f:	8b 85 64 f2 ff ff    	mov    -0xd9c(%rbp),%eax
    a235:	0f b7 c0             	movzwl %ax,%eax
    a238:	89 c6                	mov    %eax,%esi
    a23a:	bf 79 d2 00 00       	mov    $0xd279,%edi
    a23f:	e8 bb ba ff ff       	callq  5cff <safe_add_func_uint16_t_u_u>
    a244:	0f b6 c0             	movzbl %al,%eax
    a247:	89 de                	mov    %ebx,%esi
    a249:	89 c7                	mov    %eax,%edi
    a24b:	e8 6e ba ff ff       	callq  5cbe <safe_rshift_func_uint8_t_u_u>
    a250:	8b 15 1a 94 00 00    	mov    0x941a(%rip),%edx        # 13670 <g_1182>
    a256:	09 d0                	or     %edx,%eax
    a258:	0f be c0             	movsbl %al,%eax
    a25b:	be 07 00 00 00       	mov    $0x7,%esi
    a260:	89 c7                	mov    %eax,%edi
    a262:	e8 05 b1 ff ff       	callq  536c <safe_rshift_func_int8_t_s_u>
    a267:	0f be c0             	movsbl %al,%eax
    a26a:	41 39 c5             	cmp    %eax,%r13d
    a26d:	0f 94 c0             	sete   %al
    a270:	0f b6 d0             	movzbl %al,%edx
    a273:	48 8b 85 b8 f4 ff ff 	mov    -0xb48(%rbp),%rax
    a27a:	89 10                	mov    %edx,(%rax)
    a27c:	8b 85 48 f2 ff ff    	mov    -0xdb8(%rbp),%eax
    a282:	83 c0 01             	add    $0x1,%eax
    a285:	89 85 48 f2 ff ff    	mov    %eax,-0xdb8(%rbp)
    a28b:	8b 85 48 f2 ff ff    	mov    -0xdb8(%rbp),%eax
    a291:	83 f8 15             	cmp    $0x15,%eax
    a294:	0f 8e 35 fc ff ff    	jle    9ecf <func_50+0x2f37>
    a29a:	8b 05 c4 8e 00 00    	mov    0x8ec4(%rip),%eax        # 13164 <g_340>
    a2a0:	48 8b 05 69 aa 00 00 	mov    0xaa69(%rip),%rax        # 14d10 <g_620>
    a2a7:	0f b7 00             	movzwl (%rax),%eax
    a2aa:	66 85 c0             	test   %ax,%ax
    a2ad:	75 54                	jne    a303 <func_50+0x336b>
    a2af:	8b 85 18 f2 ff ff    	mov    -0xde8(%rbp),%eax
    a2b5:	0f b6 d8             	movzbl %al,%ebx
    a2b8:	48 8b 05 41 a9 00 00 	mov    0xa941(%rip),%rax        # 14c00 <g_356>
    a2bf:	0f b7 00             	movzwl (%rax),%eax
    a2c2:	be 01 00 00 00       	mov    $0x1,%esi
    a2c7:	bf f8 ff ff ff       	mov    $0xfffffff8,%edi
    a2cc:	e8 60 af ff ff       	callq  5231 <safe_mod_func_int8_t_s_s>
    a2d1:	84 c0                	test   %al,%al
    a2d3:	74 12                	je     a2e7 <func_50+0x334f>
    a2d5:	48 8b 85 b8 f4 ff ff 	mov    -0xb48(%rbp),%rax
    a2dc:	8b 10                	mov    (%rax),%edx
    a2de:	0f b6 85 29 f2 ff ff 	movzbl -0xdd7(%rbp),%eax
    a2e5:	39 c2                	cmp    %eax,%edx
    a2e7:	89 de                	mov    %ebx,%esi
    a2e9:	bf 01 00 00 00       	mov    $0x1,%edi
    a2ee:	e8 bb b8 ff ff       	callq  5bae <safe_mod_func_uint8_t_u_u>
    a2f3:	0f b6 c0             	movzbl %al,%eax
    a2f6:	48 89 c7             	mov    %rax,%rdi
    a2f9:	e8 1b bd ff ff       	callq  6019 <safe_unary_minus_func_uint64_t_u>
    a2fe:	48 85 c0             	test   %rax,%rax
    a301:	74 07                	je     a30a <func_50+0x3372>
    a303:	ba 01 00 00 00       	mov    $0x1,%edx
    a308:	eb 05                	jmp    a30f <func_50+0x3377>
    a30a:	ba 00 00 00 00       	mov    $0x0,%edx
    a30f:	48 8b 85 b8 f4 ff ff 	mov    -0xb48(%rbp),%rax
    a316:	89 10                	mov    %edx,(%rax)
    a318:	48 8b 85 08 f2 ff ff 	mov    -0xdf8(%rbp),%rax
    a31f:	48 8d 95 60 f2 ff ff 	lea    -0xda0(%rbp),%rdx
    a326:	48 89 10             	mov    %rdx,(%rax)
    a329:	48 8b 85 08 f2 ff ff 	mov    -0xdf8(%rbp),%rax
    a330:	48 8b 00             	mov    (%rax),%rax
    a333:	48 89 85 98 f4 ff ff 	mov    %rax,-0xb68(%rbp)
    a33a:	8b 85 40 f2 ff ff    	mov    -0xdc0(%rbp),%eax
    a340:	83 e8 01             	sub    $0x1,%eax
    a343:	89 85 40 f2 ff ff    	mov    %eax,-0xdc0(%rbp)
    a349:	8b 85 40 f2 ff ff    	mov    -0xdc0(%rbp),%eax
    a34f:	83 f8 fa             	cmp    $0xfffffffa,%eax
    a352:	0f 8d c7 f4 ff ff    	jge    981f <func_50+0x2887>
    a358:	8b 85 70 f2 ff ff    	mov    -0xd90(%rbp),%eax
    a35e:	0f be c0             	movsbl %al,%eax
    a361:	be 01 00 00 00       	mov    $0x1,%esi
    a366:	89 c7                	mov    %eax,%edi
    a368:	e8 85 ae ff ff       	callq  51f2 <safe_sub_func_int8_t_s_s>
    a36d:	0f be c0             	movsbl %al,%eax
    a370:	89 85 70 f2 ff ff    	mov    %eax,-0xd90(%rbp)
    a376:	83 bd 70 f2 ff ff fc 	cmpl   $0xfffffffc,-0xd90(%rbp)
    a37d:	0f 84 66 f2 ff ff    	je     95e9 <func_50+0x2651>
    a383:	c6 85 29 f2 ff ff 00 	movb   $0x0,-0xdd7(%rbp)
    a38a:	e9 ca 01 00 00       	jmpq   a559 <func_50+0x35c1>
    a38f:	48 8d 05 2a a9 00 00 	lea    0xa92a(%rip),%rax        # 14cc0 <g_502+0xa0>
    a396:	48 89 85 78 f4 ff ff 	mov    %rax,-0xb88(%rbp)
    a39d:	48 8d 85 c0 f5 ff ff 	lea    -0xa40(%rbp),%rax
    a3a4:	48 83 c0 40          	add    $0x40,%rax
    a3a8:	48 89 85 80 f4 ff ff 	mov    %rax,-0xb80(%rbp)
    a3af:	c7 85 0c f3 ff ff bd 	movl   $0x7ba987bd,-0xcf4(%rbp)
    a3b6:	87 a9 7b 
    a3b9:	c7 85 40 f9 ff ff 01 	movl   $0x1,-0x6c0(%rbp)
    a3c0:	00 00 00 
    a3c3:	c7 85 44 f9 ff ff 01 	movl   $0x1,-0x6bc(%rbp)
    a3ca:	00 00 00 
    a3cd:	c7 85 48 f9 ff ff 01 	movl   $0x1,-0x6b8(%rbp)
    a3d4:	00 00 00 
    a3d7:	c7 85 4c f9 ff ff 01 	movl   $0x1,-0x6b4(%rbp)
    a3de:	00 00 00 
    a3e1:	c7 85 50 f9 ff ff 01 	movl   $0x1,-0x6b0(%rbp)
    a3e8:	00 00 00 
    a3eb:	c7 85 54 f9 ff ff 01 	movl   $0x1,-0x6ac(%rbp)
    a3f2:	00 00 00 
    a3f5:	c7 85 58 f9 ff ff 01 	movl   $0x1,-0x6a8(%rbp)
    a3fc:	00 00 00 
    a3ff:	c7 85 5c f9 ff ff 01 	movl   $0x1,-0x6a4(%rbp)
    a406:	00 00 00 
    a409:	c7 85 60 f9 ff ff 01 	movl   $0x1,-0x6a0(%rbp)
    a410:	00 00 00 
    a413:	c7 85 64 f9 ff ff 01 	movl   $0x1,-0x69c(%rbp)
    a41a:	00 00 00 
    a41d:	8b 85 18 f2 ff ff    	mov    -0xde8(%rbp),%eax
    a423:	0f b6 d8             	movzbl %al,%ebx
    a426:	8b 85 78 f2 ff ff    	mov    -0xd88(%rbp),%eax
    a42c:	44 0f bf e0          	movswl %ax,%r12d
    a430:	8b 85 64 f9 ff ff    	mov    -0x69c(%rbp),%eax
    a436:	44 0f b7 e8          	movzwl %ax,%r13d
    a43a:	be ff ff ff ff       	mov    $0xffffffff,%esi
    a43f:	bf 00 00 00 00       	mov    $0x0,%edi
    a444:	e8 8b ad ff ff       	callq  51d4 <safe_add_func_int8_t_s_s>
    a449:	0f be c0             	movsbl %al,%eax
    a44c:	89 85 0c f3 ff ff    	mov    %eax,-0xcf4(%rbp)
    a452:	8b 85 0c f3 ff ff    	mov    -0xcf4(%rbp),%eax
    a458:	0f b6 c0             	movzbl %al,%eax
    a45b:	be 03 00 00 00       	mov    $0x3,%esi
    a460:	89 c7                	mov    %eax,%edi
    a462:	e8 57 b8 ff ff       	callq  5cbe <safe_rshift_func_uint8_t_u_u>
    a467:	0f b6 c0             	movzbl %al,%eax
    a46a:	09 85 84 f2 ff ff    	or     %eax,-0xd7c(%rbp)
    a470:	8b 85 84 f2 ff ff    	mov    -0xd7c(%rbp),%eax
    a476:	0f b7 c0             	movzwl %ax,%eax
    a479:	44 89 ee             	mov    %r13d,%esi
    a47c:	89 c7                	mov    %eax,%edi
    a47e:	e8 ba b8 ff ff       	callq  5d3d <safe_mul_func_uint16_t_u_u>
    a483:	98                   	cwtl   
    a484:	44 89 e6             	mov    %r12d,%esi
    a487:	89 c7                	mov    %eax,%edi
    a489:	e8 c7 af ff ff       	callq  5455 <safe_div_func_int16_t_s_s>
    a48e:	0f b7 d0             	movzwl %ax,%edx
    a491:	b8 fc ff ff ff       	mov    $0xfffffffc,%eax
    a496:	f7 d0                	not    %eax
    a498:	0f b7 c0             	movzwl %ax,%eax
    a49b:	89 d6                	mov    %edx,%esi
    a49d:	89 c7                	mov    %eax,%edi
    a49f:	e8 7b b8 ff ff       	callq  5d1f <safe_sub_func_uint16_t_u_u>
    a4a4:	0f b7 d0             	movzwl %ax,%edx
    a4a7:	48 83 bd 78 f4 ff ff 	cmpq   $0x0,-0xb88(%rbp)
    a4ae:	00 
    a4af:	0f 94 c0             	sete   %al
    a4b2:	0f b6 c0             	movzbl %al,%eax
    a4b5:	89 d6                	mov    %edx,%esi
    a4b7:	89 c7                	mov    %eax,%edi
    a4b9:	e8 e3 ad ff ff       	callq  52a1 <safe_lshift_func_int8_t_s_s>
    a4be:	48 0f be c0          	movsbq %al,%rax
    a4c2:	48 39 85 68 f3 ff ff 	cmp    %rax,-0xc98(%rbp)
    a4c9:	0f 96 c2             	setbe  %dl
    a4cc:	48 8b 05 2d a9 00 00 	mov    0xa92d(%rip),%rax        # 14e00 <g_875>
    a4d3:	48 8b 00             	mov    (%rax),%rax
    a4d6:	48 8b 00             	mov    (%rax),%rax
    a4d9:	0f b6 d2             	movzbl %dl,%edx
    a4dc:	48 89 10             	mov    %rdx,(%rax)
    a4df:	48 8b 05 02 b1 00 00 	mov    0xb102(%rip),%rax        # 155e8 <g_964>
    a4e6:	48 8b 00             	mov    (%rax),%rax
    a4e9:	0f b7 00             	movzwl (%rax),%eax
    a4ec:	0f b7 c0             	movzwl %ax,%eax
    a4ef:	be 01 00 00 00       	mov    $0x1,%esi
    a4f4:	89 c7                	mov    %eax,%edi
    a4f6:	e8 42 b8 ff ff       	callq  5d3d <safe_mul_func_uint16_t_u_u>
    a4fb:	0f b7 c0             	movzwl %ax,%eax
    a4fe:	89 c6                	mov    %eax,%esi
    a500:	bf 04 00 00 00       	mov    $0x4,%edi
    a505:	e8 84 b8 ff ff       	callq  5d8e <safe_div_func_uint16_t_u_u>
    a50a:	8b 85 3c f2 ff ff    	mov    -0xdc4(%rbp),%eax
    a510:	c1 e8 1f             	shr    $0x1f,%eax
    a513:	0f b6 c0             	movzbl %al,%eax
    a516:	89 de                	mov    %ebx,%esi
    a518:	89 c7                	mov    %eax,%edi
    a51a:	e8 74 b6 ff ff       	callq  5b93 <safe_mul_func_uint8_t_u_u>
    a51f:	0f be c0             	movsbl %al,%eax
    a522:	be 07 00 00 00       	mov    $0x7,%esi
    a527:	89 c7                	mov    %eax,%edi
    a529:	e8 73 ad ff ff       	callq  52a1 <safe_lshift_func_int8_t_s_s>
    a52e:	89 c2                	mov    %eax,%edx
    a530:	48 8b 05 29 a6 00 00 	mov    0xa629(%rip),%rax        # 14b60 <g_44>
    a537:	8b 08                	mov    (%rax),%ecx
    a539:	0f be d2             	movsbl %dl,%edx
    a53c:	09 ca                	or     %ecx,%edx
    a53e:	89 10                	mov    %edx,(%rax)
    a540:	0f b6 85 29 f2 ff ff 	movzbl -0xdd7(%rbp),%eax
    a547:	be 09 00 00 00       	mov    $0x9,%esi
    a54c:	89 c7                	mov    %eax,%edi
    a54e:	e8 65 b9 ff ff       	callq  5eb8 <safe_add_func_uint32_t_u_u>
    a553:	88 85 29 f2 ff ff    	mov    %al,-0xdd7(%rbp)
    a559:	80 bd 29 f2 ff ff 1f 	cmpb   $0x1f,-0xdd7(%rbp)
    a560:	0f 86 29 fe ff ff    	jbe    a38f <func_50+0x33f7>
    a566:	8b 85 50 f2 ff ff    	mov    -0xdb0(%rbp),%eax
    a56c:	48 8b 5d d8          	mov    -0x28(%rbp),%rbx
    a570:	64 48 33 1c 25 28 00 	xor    %fs:0x28,%rbx
    a577:	00 00 
    a579:	74 05                	je     a580 <func_50+0x35e8>
    a57b:	e8 f0 aa ff ff       	callq  5070 <__stack_chk_fail@plt>
    a580:	48 81 c4 e0 0d 00 00 	add    $0xde0,%rsp
    a587:	5b                   	pop    %rbx
    a588:	41 5c                	pop    %r12
    a58a:	41 5d                	pop    %r13
    a58c:	41 5e                	pop    %r14
    a58e:	5d                   	pop    %rbp
    a58f:	c3                   	retq   

000000000000a590 <func_63>:
    a590:	f3 0f 1e fa          	endbr64 
    a594:	55                   	push   %rbp
    a595:	48 89 e5             	mov    %rsp,%rbp
    a598:	48 81 ec f0 01 00 00 	sub    $0x1f0,%rsp
    a59f:	89 bd 2c fe ff ff    	mov    %edi,-0x1d4(%rbp)
    a5a5:	48 89 b5 20 fe ff ff 	mov    %rsi,-0x1e0(%rbp)
    a5ac:	48 89 95 18 fe ff ff 	mov    %rdx,-0x1e8(%rbp)
    a5b3:	64 48 8b 04 25 28 00 	mov    %fs:0x28,%rax
    a5ba:	00 00 
    a5bc:	48 89 45 f8          	mov    %rax,-0x8(%rbp)
    a5c0:	31 c0                	xor    %eax,%eax
    a5c2:	48 8d 05 5f 8a 00 00 	lea    0x8a5f(%rip),%rax        # 13028 <g_34>
    a5c9:	48 89 85 38 fe ff ff 	mov    %rax,-0x1c8(%rbp)
    a5d0:	48 c7 85 40 fe ff ff 	movq   $0x0,-0x1c0(%rbp)
    a5d7:	00 00 00 00 
    a5db:	48 c7 85 48 fe ff ff 	movq   $0x0,-0x1b8(%rbp)
    a5e2:	00 00 00 00 
    a5e6:	48 8d 05 3f 8a 00 00 	lea    0x8a3f(%rip),%rax        # 1302c <g_45>
    a5ed:	48 89 85 50 fe ff ff 	mov    %rax,-0x1b0(%rbp)
    a5f4:	c7 85 34 fe ff ff aa 	movl   $0xb17576aa,-0x1cc(%rbp)
    a5fb:	76 75 b1 
    a5fe:	48 c7 85 58 fe ff ff 	movq   $0x0,-0x1a8(%rbp)
    a605:	00 00 00 00 
    a609:	48 8d 05 88 8b 00 00 	lea    0x8b88(%rip),%rax        # 13198 <g_410+0x18>
    a610:	48 89 85 00 ff ff ff 	mov    %rax,-0x100(%rbp)
    a617:	48 8d 05 16 8a 00 00 	lea    0x8a16(%rip),%rax        # 13034 <g_101>
    a61e:	48 89 85 08 ff ff ff 	mov    %rax,-0xf8(%rbp)
    a625:	48 c7 85 10 ff ff ff 	movq   $0x0,-0xf0(%rbp)
    a62c:	00 00 00 00 
    a630:	48 8d 05 fd 89 00 00 	lea    0x89fd(%rip),%rax        # 13034 <g_101>
    a637:	48 89 85 18 ff ff ff 	mov    %rax,-0xe8(%rbp)
    a63e:	48 8d 05 53 8b 00 00 	lea    0x8b53(%rip),%rax        # 13198 <g_410+0x18>
    a645:	48 89 85 20 ff ff ff 	mov    %rax,-0xe0(%rbp)
    a64c:	48 8d 05 e1 89 00 00 	lea    0x89e1(%rip),%rax        # 13034 <g_101>
    a653:	48 89 85 28 ff ff ff 	mov    %rax,-0xd8(%rbp)
    a65a:	48 c7 85 30 ff ff ff 	movq   $0x0,-0xd0(%rbp)
    a661:	00 00 00 00 
    a665:	48 8d 05 c8 89 00 00 	lea    0x89c8(%rip),%rax        # 13034 <g_101>
    a66c:	48 89 85 38 ff ff ff 	mov    %rax,-0xc8(%rbp)
    a673:	48 8d 05 1e 8b 00 00 	lea    0x8b1e(%rip),%rax        # 13198 <g_410+0x18>
    a67a:	48 89 85 40 ff ff ff 	mov    %rax,-0xc0(%rbp)
    a681:	48 8d 05 ac 89 00 00 	lea    0x89ac(%rip),%rax        # 13034 <g_101>
    a688:	48 89 85 48 ff ff ff 	mov    %rax,-0xb8(%rbp)
    a68f:	48 c7 85 50 ff ff ff 	movq   $0x0,-0xb0(%rbp)
    a696:	00 00 00 00 
    a69a:	48 8d 05 93 89 00 00 	lea    0x8993(%rip),%rax        # 13034 <g_101>
    a6a1:	48 89 85 58 ff ff ff 	mov    %rax,-0xa8(%rbp)
    a6a8:	48 8d 05 e9 8a 00 00 	lea    0x8ae9(%rip),%rax        # 13198 <g_410+0x18>
    a6af:	48 89 85 60 ff ff ff 	mov    %rax,-0xa0(%rbp)
    a6b6:	48 8d 05 77 89 00 00 	lea    0x8977(%rip),%rax        # 13034 <g_101>
    a6bd:	48 89 85 68 ff ff ff 	mov    %rax,-0x98(%rbp)
    a6c4:	48 c7 85 70 ff ff ff 	movq   $0x0,-0x90(%rbp)
    a6cb:	00 00 00 00 
    a6cf:	48 8d 05 5e 89 00 00 	lea    0x895e(%rip),%rax        # 13034 <g_101>
    a6d6:	48 89 85 78 ff ff ff 	mov    %rax,-0x88(%rbp)
    a6dd:	48 8d 05 b4 8a 00 00 	lea    0x8ab4(%rip),%rax        # 13198 <g_410+0x18>
    a6e4:	48 89 45 80          	mov    %rax,-0x80(%rbp)
    a6e8:	48 8d 05 45 89 00 00 	lea    0x8945(%rip),%rax        # 13034 <g_101>
    a6ef:	48 89 45 88          	mov    %rax,-0x78(%rbp)
    a6f3:	48 c7 45 90 00 00 00 	movq   $0x0,-0x70(%rbp)
    a6fa:	00 
    a6fb:	48 8d 05 32 89 00 00 	lea    0x8932(%rip),%rax        # 13034 <g_101>
    a702:	48 89 45 98          	mov    %rax,-0x68(%rbp)
    a706:	48 8d 05 8b 8a 00 00 	lea    0x8a8b(%rip),%rax        # 13198 <g_410+0x18>
    a70d:	48 89 45 a0          	mov    %rax,-0x60(%rbp)
    a711:	48 8d 05 1c 89 00 00 	lea    0x891c(%rip),%rax        # 13034 <g_101>
    a718:	48 89 45 a8          	mov    %rax,-0x58(%rbp)
    a71c:	48 c7 45 b0 00 00 00 	movq   $0x0,-0x50(%rbp)
    a723:	00 
    a724:	48 8d 05 09 89 00 00 	lea    0x8909(%rip),%rax        # 13034 <g_101>
    a72b:	48 89 45 b8          	mov    %rax,-0x48(%rbp)
    a72f:	48 8d 05 62 8a 00 00 	lea    0x8a62(%rip),%rax        # 13198 <g_410+0x18>
    a736:	48 89 45 c0          	mov    %rax,-0x40(%rbp)
    a73a:	48 8d 05 f3 88 00 00 	lea    0x88f3(%rip),%rax        # 13034 <g_101>
    a741:	48 89 45 c8          	mov    %rax,-0x38(%rbp)
    a745:	48 c7 45 d0 00 00 00 	movq   $0x0,-0x30(%rbp)
    a74c:	00 
    a74d:	48 8d 05 e0 88 00 00 	lea    0x88e0(%rip),%rax        # 13034 <g_101>
    a754:	48 89 45 d8          	mov    %rax,-0x28(%rbp)
    a758:	48 8d 05 39 8a 00 00 	lea    0x8a39(%rip),%rax        # 13198 <g_410+0x18>
    a75f:	48 89 45 e0          	mov    %rax,-0x20(%rbp)
    a763:	48 8d 05 ca 88 00 00 	lea    0x88ca(%rip),%rax        # 13034 <g_101>
    a76a:	48 89 45 e8          	mov    %rax,-0x18(%rbp)
    a76e:	c7 85 60 fe ff ff d7 	movl   $0x991b84d7,-0x1a0(%rbp)
    a775:	84 1b 99 
    a778:	c7 85 64 fe ff ff 82 	movl   $0x35e6a482,-0x19c(%rbp)
    a77f:	a4 e6 35 
    a782:	c7 85 68 fe ff ff 08 	movl   $0x8,-0x198(%rbp)
    a789:	00 00 00 
    a78c:	c7 85 6c fe ff ff f9 	movl   $0xfffffff9,-0x194(%rbp)
    a793:	ff ff ff 
    a796:	c7 85 70 fe ff ff 91 	movl   $0x77ea4f91,-0x190(%rbp)
    a79d:	4f ea 77 
    a7a0:	c7 85 74 fe ff ff 00 	movl   $0x0,-0x18c(%rbp)
    a7a7:	00 00 00 
    a7aa:	c7 85 78 fe ff ff 5c 	movl   $0x68970c5c,-0x188(%rbp)
    a7b1:	0c 97 68 
    a7b4:	c7 85 7c fe ff ff 00 	movl   $0x0,-0x184(%rbp)
    a7bb:	00 00 00 
    a7be:	c7 85 80 fe ff ff 00 	movl   $0x0,-0x180(%rbp)
    a7c5:	00 00 00 
    a7c8:	c7 85 84 fe ff ff 08 	movl   $0x8,-0x17c(%rbp)
    a7cf:	00 00 00 
    a7d2:	c7 85 88 fe ff ff d7 	movl   $0x991b84d7,-0x178(%rbp)
    a7d9:	84 1b 99 
    a7dc:	c7 85 8c fe ff ff 00 	movl   $0x0,-0x174(%rbp)
    a7e3:	00 00 00 
    a7e6:	c7 85 90 fe ff ff d7 	movl   $0x991b84d7,-0x170(%rbp)
    a7ed:	84 1b 99 
    a7f0:	c7 85 94 fe ff ff 00 	movl   $0x0,-0x16c(%rbp)
    a7f7:	00 00 00 
    a7fa:	c7 85 98 fe ff ff f9 	movl   $0xfffffff9,-0x168(%rbp)
    a801:	ff ff ff 
    a804:	c7 85 9c fe ff ff f9 	movl   $0xfffffff9,-0x164(%rbp)
    a80b:	ff ff ff 
    a80e:	c7 85 a0 fe ff ff 82 	movl   $0x35e6a482,-0x160(%rbp)
    a815:	a4 e6 35 
    a818:	c7 85 a4 fe ff ff 82 	movl   $0x35e6a482,-0x15c(%rbp)
    a81f:	a4 e6 35 
    a822:	c7 85 a8 fe ff ff 5c 	movl   $0x68970c5c,-0x158(%rbp)
    a829:	0c 97 68 
    a82c:	c7 85 ac fe ff ff 91 	movl   $0x77ea4f91,-0x154(%rbp)
    a833:	4f ea 77 
    a836:	c7 85 b0 fe ff ff 82 	movl   $0x35e6a482,-0x150(%rbp)
    a83d:	a4 e6 35 
    a840:	c7 85 b4 fe ff ff 08 	movl   $0x8,-0x14c(%rbp)
    a847:	00 00 00 
    a84a:	c7 85 b8 fe ff ff f9 	movl   $0xfffffff9,-0x148(%rbp)
    a851:	ff ff ff 
    a854:	c7 85 bc fe ff ff 82 	movl   $0x35e6a482,-0x144(%rbp)
    a85b:	a4 e6 35 
    a85e:	c7 85 c0 fe ff ff d7 	movl   $0x991b84d7,-0x140(%rbp)
    a865:	84 1b 99 
    a868:	c7 85 c4 fe ff ff 91 	movl   $0x77ea4f91,-0x13c(%rbp)
    a86f:	4f ea 77 
    a872:	c7 85 c8 fe ff ff d7 	movl   $0x991b84d7,-0x138(%rbp)
    a879:	84 1b 99 
    a87c:	c7 85 cc fe ff ff f9 	movl   $0xfffffff9,-0x134(%rbp)
    a883:	ff ff ff 
    a886:	c7 85 d0 fe ff ff 00 	movl   $0x0,-0x130(%rbp)
    a88d:	00 00 00 
    a890:	c7 85 d4 fe ff ff 91 	movl   $0x77ea4f91,-0x12c(%rbp)
    a897:	4f ea 77 
    a89a:	c7 85 d8 fe ff ff 5c 	movl   $0x68970c5c,-0x128(%rbp)
    a8a1:	0c 97 68 
    a8a4:	c7 85 dc fe ff ff 82 	movl   $0x35e6a482,-0x124(%rbp)
    a8ab:	a4 e6 35 
    a8ae:	c7 85 e0 fe ff ff 91 	movl   $0x77ea4f91,-0x120(%rbp)
    a8b5:	4f ea 77 
    a8b8:	c7 85 e4 fe ff ff 08 	movl   $0x8,-0x11c(%rbp)
    a8bf:	00 00 00 
    a8c2:	c7 85 e8 fe ff ff 08 	movl   $0x8,-0x118(%rbp)
    a8c9:	00 00 00 
    a8cc:	c7 85 ec fe ff ff 91 	movl   $0x77ea4f91,-0x114(%rbp)
    a8d3:	4f ea 77 
    a8d6:	c7 85 f0 fe ff ff d7 	movl   $0x991b84d7,-0x110(%rbp)
    a8dd:	84 1b 99 
    a8e0:	c7 85 f4 fe ff ff 82 	movl   $0x35e6a482,-0x10c(%rbp)
    a8e7:	a4 e6 35 
    a8ea:	c7 85 f8 fe ff ff 08 	movl   $0x8,-0x108(%rbp)
    a8f1:	00 00 00 
    a8f4:	c7 85 fc fe ff ff f9 	movl   $0xfffffff9,-0x104(%rbp)
    a8fb:	ff ff ff 
    a8fe:	8b 85 a0 fe ff ff    	mov    -0x160(%rbp),%eax
    a904:	83 c0 01             	add    $0x1,%eax
    a907:	89 85 a0 fe ff ff    	mov    %eax,-0x160(%rbp)
    a90d:	8b 85 2c fe ff ff    	mov    -0x1d4(%rbp),%eax
    a913:	48 8b 4d f8          	mov    -0x8(%rbp),%rcx
    a917:	64 48 33 0c 25 28 00 	xor    %fs:0x28,%rcx
    a91e:	00 00 
    a920:	74 05                	je     a927 <func_63+0x397>
    a922:	e8 49 a7 ff ff       	callq  5070 <__stack_chk_fail@plt>
    a927:	c9                   	leaveq 
    a928:	c3                   	retq   

000000000000a929 <func_68>:
    a929:	f3 0f 1e fa          	endbr64 
    a92d:	55                   	push   %rbp
    a92e:	48 89 e5             	mov    %rsp,%rbp
    a931:	48 81 ec 40 0b 00 00 	sub    $0xb40,%rsp
    a938:	89 f8                	mov    %edi,%eax
    a93a:	89 f1                	mov    %esi,%ecx
    a93c:	48 89 95 c0 f4 ff ff 	mov    %rdx,-0xb40(%rbp)
    a943:	66 89 85 cc f4 ff ff 	mov    %ax,-0xb34(%rbp)
    a94a:	89 c8                	mov    %ecx,%eax
    a94c:	88 85 c8 f4 ff ff    	mov    %al,-0xb38(%rbp)
    a952:	64 48 8b 04 25 28 00 	mov    %fs:0x28,%rax
    a959:	00 00 
    a95b:	48 89 45 f8          	mov    %rax,-0x8(%rbp)
    a95f:	31 c0                	xor    %eax,%eax
    a961:	c6 85 d0 f4 ff ff 5b 	movb   $0x5b,-0xb30(%rbp)
    a968:	48 8d 05 fd 87 00 00 	lea    0x87fd(%rip),%rax        # 1316c <g_358>
    a96f:	48 89 85 f0 f4 ff ff 	mov    %rax,-0xb10(%rbp)
    a976:	48 8d 85 b0 f7 ff ff 	lea    -0x850(%rbp),%rax
    a97d:	48 8d 15 fc 95 00 00 	lea    0x95fc(%rip),%rdx        # 13f80 <g_1482+0x750>
    a984:	b9 48 00 00 00       	mov    $0x48,%ecx
    a989:	48 89 c7             	mov    %rax,%rdi
    a98c:	48 89 d6             	mov    %rdx,%rsi
    a98f:	f3 48 a5             	rep movsq %ds:(%rsi),%es:(%rdi)
    a992:	48 8d 05 a7 86 00 00 	lea    0x86a7(%rip),%rax        # 13040 <g_115>
    a999:	48 89 85 10 f5 ff ff 	mov    %rax,-0xaf0(%rbp)
    a9a0:	48 b8 c9 7c e8 72 08 	movabs $0xa03d210872e87cc9,%rax
    a9a7:	21 3d a0 
    a9aa:	48 89 85 18 f5 ff ff 	mov    %rax,-0xae8(%rbp)
    a9b1:	48 8d 05 f0 b3 00 00 	lea    0xb3f0(%rip),%rax        # 15da8 <g_786>
    a9b8:	48 89 85 f8 f4 ff ff 	mov    %rax,-0xb08(%rbp)
    a9bf:	c7 85 d8 f4 ff ff 00 	movl   $0x0,-0xb28(%rbp)
    a9c6:	00 00 00 
    a9c9:	eb 1e                	jmp    a9e9 <func_68+0xc0>
    a9cb:	8b 85 d8 f4 ff ff    	mov    -0xb28(%rbp),%eax
    a9d1:	48 98                	cltq   
    a9d3:	48 8d 15 b6 b3 00 00 	lea    0xb3b6(%rip),%rdx        # 15d90 <g_291>
    a9da:	48 89 94 c5 f0 f5 ff 	mov    %rdx,-0xa10(%rbp,%rax,8)
    a9e1:	ff 
    a9e2:	83 85 d8 f4 ff ff 01 	addl   $0x1,-0xb28(%rbp)
    a9e9:	83 bd d8 f4 ff ff 09 	cmpl   $0x9,-0xb28(%rbp)
    a9f0:	7e d9                	jle    a9cb <func_68+0xa2>
    a9f2:	c7 85 d8 f4 ff ff 00 	movl   $0x0,-0xb28(%rbp)
    a9f9:	00 00 00 
    a9fc:	eb 76                	jmp    aa74 <func_68+0x14b>
    a9fe:	c7 85 dc f4 ff ff 00 	movl   $0x0,-0xb24(%rbp)
    aa05:	00 00 00 
    aa08:	eb 5a                	jmp    aa64 <func_68+0x13b>
    aa0a:	c7 85 e0 f4 ff ff 00 	movl   $0x0,-0xb20(%rbp)
    aa11:	00 00 00 
    aa14:	eb 3e                	jmp    aa54 <func_68+0x12b>
    aa16:	8b 85 e0 f4 ff ff    	mov    -0xb20(%rbp),%eax
    aa1c:	48 98                	cltq   
    aa1e:	8b 95 d8 f4 ff ff    	mov    -0xb28(%rbp),%edx
    aa24:	48 63 ca             	movslq %edx,%rcx
    aa27:	8b 95 dc f4 ff ff    	mov    -0xb24(%rbp),%edx
    aa2d:	48 63 d2             	movslq %edx,%rdx
    aa30:	48 c1 e1 03          	shl    $0x3,%rcx
    aa34:	48 01 ca             	add    %rcx,%rdx
    aa37:	48 c1 e2 02          	shl    $0x2,%rdx
    aa3b:	48 01 c2             	add    %rax,%rdx
    aa3e:	48 8d 85 f8 f4 ff ff 	lea    -0xb08(%rbp),%rax
    aa45:	48 89 84 d5 f0 f9 ff 	mov    %rax,-0x610(%rbp,%rdx,8)
    aa4c:	ff 
    aa4d:	83 85 e0 f4 ff ff 01 	addl   $0x1,-0xb20(%rbp)
    aa54:	83 bd e0 f4 ff ff 03 	cmpl   $0x3,-0xb20(%rbp)
    aa5b:	7e b9                	jle    aa16 <func_68+0xed>
    aa5d:	83 85 dc f4 ff ff 01 	addl   $0x1,-0xb24(%rbp)
    aa64:	83 bd dc f4 ff ff 07 	cmpl   $0x7,-0xb24(%rbp)
    aa6b:	7e 9d                	jle    aa0a <func_68+0xe1>
    aa6d:	83 85 d8 f4 ff ff 01 	addl   $0x1,-0xb28(%rbp)
    aa74:	83 bd d8 f4 ff ff 05 	cmpl   $0x5,-0xb28(%rbp)
    aa7b:	7e 81                	jle    a9fe <func_68+0xd5>
    aa7d:	c6 05 28 87 00 00 00 	movb   $0x0,0x8728(%rip)        # 131ac <g_456+0x4>
    aa84:	e9 f0 05 00 00       	jmpq   b079 <func_68+0x750>
    aa89:	66 c7 85 d2 f4 ff ff 	movw   $0x9,-0xb2e(%rbp)
    aa90:	09 00 
    aa92:	c7 85 e8 f4 ff ff 01 	movl   $0x1,-0xb18(%rbp)
    aa99:	00 00 00 
    aa9c:	48 8d 85 40 f6 ff ff 	lea    -0x9c0(%rbp),%rax
    aaa3:	48 83 c0 30          	add    $0x30,%rax
    aaa7:	48 89 85 20 f5 ff ff 	mov    %rax,-0xae0(%rbp)
    aaae:	c7 85 ec f4 ff ff 1a 	movl   $0x5057201a,-0xb14(%rbp)
    aab5:	20 57 50 
    aab8:	48 c7 85 28 f5 ff ff 	movq   $0x0,-0xad8(%rbp)
    aabf:	00 00 00 00 
    aac3:	48 c7 85 70 f5 ff ff 	movq   $0x0,-0xa90(%rbp)
    aaca:	00 00 00 00 
    aace:	48 c7 85 78 f5 ff ff 	movq   $0x0,-0xa88(%rbp)
    aad5:	00 00 00 00 
    aad9:	48 c7 85 80 f5 ff ff 	movq   $0x0,-0xa80(%rbp)
    aae0:	00 00 00 00 
    aae4:	48 c7 85 88 f5 ff ff 	movq   $0x0,-0xa78(%rbp)
    aaeb:	00 00 00 00 
    aaef:	48 c7 85 90 f5 ff ff 	movq   $0x0,-0xa70(%rbp)
    aaf6:	00 00 00 00 
    aafa:	48 c7 85 98 f5 ff ff 	movq   $0x0,-0xa68(%rbp)
    ab01:	00 00 00 00 
    ab05:	48 c7 85 a0 f5 ff ff 	movq   $0x0,-0xa60(%rbp)
    ab0c:	00 00 00 00 
    ab10:	c7 85 e4 f4 ff ff 00 	movl   $0x0,-0xb1c(%rbp)
    ab17:	00 00 00 
    ab1a:	eb 22                	jmp    ab3e <func_68+0x215>
    ab1c:	8b 85 e4 f4 ff ff    	mov    -0xb1c(%rbp),%eax
    ab22:	48 98                	cltq   
    ab24:	48 8d 95 f0 f5 ff ff 	lea    -0xa10(%rbp),%rdx
    ab2b:	48 83 c2 30          	add    $0x30,%rdx
    ab2f:	48 89 94 c5 40 f6 ff 	mov    %rdx,-0x9c0(%rbp,%rax,8)
    ab36:	ff 
    ab37:	83 85 e4 f4 ff ff 01 	addl   $0x1,-0xb1c(%rbp)
    ab3e:	83 bd e4 f4 ff ff 09 	cmpl   $0x9,-0xb1c(%rbp)
    ab45:	7e d5                	jle    ab1c <func_68+0x1f3>
    ab47:	0f b6 85 d0 f4 ff ff 	movzbl -0xb30(%rbp),%eax
    ab4e:	66 31 85 d2 f4 ff ff 	xor    %ax,-0xb2e(%rbp)
    ab55:	66 83 bd d2 f4 ff ff 	cmpw   $0x0,-0xb2e(%rbp)
    ab5c:	00 
    ab5d:	0f 85 27 05 00 00    	jne    b08a <func_68+0x761>
    ab63:	81 b5 e8 f4 ff ff b3 	xorl   $0x7b7cb0b3,-0xb18(%rbp)
    ab6a:	b0 7c 7b 
    ab6d:	66 c7 85 cc f4 ff ff 	movw   $0x4,-0xb34(%rbp)
    ab74:	04 00 
    ab76:	e9 d4 04 00 00       	jmpq   b04f <func_68+0x726>
    ab7b:	48 8d 05 ea 85 00 00 	lea    0x85ea(%rip),%rax        # 1316c <g_358>
    ab82:	48 89 85 50 f5 ff ff 	mov    %rax,-0xab0(%rbp)
    ab89:	48 8d 05 dc 85 00 00 	lea    0x85dc(%rip),%rax        # 1316c <g_358>
    ab90:	48 89 85 58 f5 ff ff 	mov    %rax,-0xaa8(%rbp)
    ab97:	48 8d 05 ce 85 00 00 	lea    0x85ce(%rip),%rax        # 1316c <g_358>
    ab9e:	48 89 85 60 f5 ff ff 	mov    %rax,-0xaa0(%rbp)
    aba5:	48 8d 05 c0 85 00 00 	lea    0x85c0(%rip),%rax        # 1316c <g_358>
    abac:	48 89 85 68 f5 ff ff 	mov    %rax,-0xa98(%rbp)
    abb3:	48 8d 85 50 f5 ff ff 	lea    -0xab0(%rbp),%rax
    abba:	48 89 85 b0 f5 ff ff 	mov    %rax,-0xa50(%rbp)
    abc1:	48 8d 85 50 f5 ff ff 	lea    -0xab0(%rbp),%rax
    abc8:	48 89 85 b8 f5 ff ff 	mov    %rax,-0xa48(%rbp)
    abcf:	48 8d 85 50 f5 ff ff 	lea    -0xab0(%rbp),%rax
    abd6:	48 89 85 c0 f5 ff ff 	mov    %rax,-0xa40(%rbp)
    abdd:	48 8d 85 50 f5 ff ff 	lea    -0xab0(%rbp),%rax
    abe4:	48 89 85 c8 f5 ff ff 	mov    %rax,-0xa38(%rbp)
    abeb:	48 8d 85 50 f5 ff ff 	lea    -0xab0(%rbp),%rax
    abf2:	48 89 85 d0 f5 ff ff 	mov    %rax,-0xa30(%rbp)
    abf9:	48 8d 85 50 f5 ff ff 	lea    -0xab0(%rbp),%rax
    ac00:	48 89 85 d8 f5 ff ff 	mov    %rax,-0xa28(%rbp)
    ac07:	48 8d 85 50 f5 ff ff 	lea    -0xab0(%rbp),%rax
    ac0e:	48 89 85 e0 f5 ff ff 	mov    %rax,-0xa20(%rbp)
    ac15:	48 8d 05 24 84 00 00 	lea    0x8424(%rip),%rax        # 13040 <g_115>
    ac1c:	48 89 85 30 f5 ff ff 	mov    %rax,-0xad0(%rbp)
    ac23:	c7 85 d4 f4 ff ff 07 	movl   $0x7,-0xb2c(%rbp)
    ac2a:	00 00 00 
    ac2d:	48 8d 05 38 85 00 00 	lea    0x8538(%rip),%rax        # 1316c <g_358>
    ac34:	48 89 05 6d b1 00 00 	mov    %rax,0xb16d(%rip)        # 15da8 <g_786>
    ac3b:	48 8b 15 66 b1 00 00 	mov    0xb166(%rip),%rdx        # 15da8 <g_786>
    ac42:	48 8b 85 f0 f4 ff ff 	mov    -0xb10(%rbp),%rax
    ac49:	48 39 c2             	cmp    %rax,%rdx
    ac4c:	0f 95 c0             	setne  %al
    ac4f:	0f b6 d0             	movzbl %al,%edx
    ac52:	48 8b 85 30 f5 ff ff 	mov    -0xad0(%rbp),%rax
    ac59:	66 89 10             	mov    %dx,(%rax)
    ac5c:	8b 85 d4 f4 ff ff    	mov    -0xb2c(%rbp),%eax
    ac62:	85 c0                	test   %eax,%eax
    ac64:	0f 95 c0             	setne  %al
    ac67:	0f b6 c0             	movzbl %al,%eax
    ac6a:	48 63 d0             	movslq %eax,%rdx
    ac6d:	48 8b 05 04 9f 00 00 	mov    0x9f04(%rip),%rax        # 14b78 <g_162>
    ac74:	8b 00                	mov    (%rax),%eax
    ac76:	89 c0                	mov    %eax,%eax
    ac78:	48 21 d0             	and    %rdx,%rax
    ac7b:	48 85 c0             	test   %rax,%rax
    ac7e:	0f 84 7c 01 00 00    	je     ae00 <func_68+0x4d7>
    ac84:	48 8d 05 a9 83 00 00 	lea    0x83a9(%rip),%rax        # 13034 <g_101>
    ac8b:	48 89 85 38 f5 ff ff 	mov    %rax,-0xac8(%rbp)
    ac92:	48 8d 05 bf b0 00 00 	lea    0xb0bf(%rip),%rax        # 15d58 <g_33+0x18>
    ac99:	48 89 85 40 f5 ff ff 	mov    %rax,-0xac0(%rbp)
    aca0:	48 8b 85 40 f5 ff ff 	mov    -0xac0(%rbp),%rax
    aca7:	48 8b 95 38 f5 ff ff 	mov    -0xac8(%rbp),%rdx
    acae:	48 89 10             	mov    %rdx,(%rax)
    acb1:	8b 85 d4 f4 ff ff    	mov    -0xb2c(%rbp),%eax
    acb7:	85 c0                	test   %eax,%eax
    acb9:	74 39                	je     acf4 <func_68+0x3cb>
    acbb:	c6 85 d1 f4 ff ff 50 	movb   $0x50,-0xb2f(%rbp)
    acc2:	0f b6 85 d1 f4 ff ff 	movzbl -0xb2f(%rbp),%eax
    acc9:	48 89 05 58 88 00 00 	mov    %rax,0x8858(%rip)        # 13528 <g_720>
    acd0:	48 8b 05 51 88 00 00 	mov    0x8851(%rip),%rax        # 13528 <g_720>
    acd7:	48 89 c7             	mov    %rax,%rdi
    acda:	e8 37 ab ff ff       	callq  5816 <safe_unary_minus_func_int64_t_s>
    acdf:	89 c2                	mov    %eax,%edx
    ace1:	8b 85 d4 f4 ff ff    	mov    -0xb2c(%rbp),%eax
    ace7:	21 d0                	and    %edx,%eax
    ace9:	89 85 d4 f4 ff ff    	mov    %eax,-0xb2c(%rbp)
    acef:	e9 2b 03 00 00       	jmpq   b01f <func_68+0x6f6>
    acf4:	c7 85 90 f6 ff ff 01 	movl   $0x1,-0x970(%rbp)
    acfb:	00 00 00 
    acfe:	c7 85 94 f6 ff ff 14 	movl   $0x2f198914,-0x96c(%rbp)
    ad05:	89 19 2f 
    ad08:	c7 85 98 f6 ff ff ff 	movl   $0x630cf5ff,-0x968(%rbp)
    ad0f:	f5 0c 63 
    ad12:	c7 85 9c f6 ff ff 14 	movl   $0x2f198914,-0x964(%rbp)
    ad19:	89 19 2f 
    ad1c:	c7 85 a0 f6 ff ff 01 	movl   $0x1,-0x960(%rbp)
    ad23:	00 00 00 
    ad26:	c7 85 a4 f6 ff ff 01 	movl   $0x1,-0x95c(%rbp)
    ad2d:	00 00 00 
    ad30:	c7 85 a8 f6 ff ff 14 	movl   $0x2f198914,-0x958(%rbp)
    ad37:	89 19 2f 
    ad3a:	c7 85 ac f6 ff ff ff 	movl   $0x630cf5ff,-0x954(%rbp)
    ad41:	f5 0c 63 
    ad44:	c7 85 b0 f6 ff ff 14 	movl   $0x2f198914,-0x950(%rbp)
    ad4b:	89 19 2f 
    ad4e:	c7 85 b4 f6 ff ff 01 	movl   $0x1,-0x94c(%rbp)
    ad55:	00 00 00 
    ad58:	c7 85 b8 f6 ff ff 01 	movl   $0x1,-0x948(%rbp)
    ad5f:	00 00 00 
    ad62:	c7 85 bc f6 ff ff 14 	movl   $0x2f198914,-0x944(%rbp)
    ad69:	89 19 2f 
    ad6c:	c7 85 c0 f6 ff ff ff 	movl   $0x630cf5ff,-0x940(%rbp)
    ad73:	f5 0c 63 
    ad76:	c7 85 c4 f6 ff ff 14 	movl   $0x2f198914,-0x93c(%rbp)
    ad7d:	89 19 2f 
    ad80:	c7 85 c8 f6 ff ff 01 	movl   $0x1,-0x938(%rbp)
    ad87:	00 00 00 
    ad8a:	c7 85 cc f6 ff ff 01 	movl   $0x1,-0x934(%rbp)
    ad91:	00 00 00 
    ad94:	c7 85 d0 f6 ff ff 14 	movl   $0x2f198914,-0x930(%rbp)
    ad9b:	89 19 2f 
    ad9e:	c7 85 d4 f6 ff ff ff 	movl   $0x630cf5ff,-0x92c(%rbp)
    ada5:	f5 0c 63 
    ada8:	c7 85 d8 f6 ff ff 14 	movl   $0x2f198914,-0x928(%rbp)
    adaf:	89 19 2f 
    adb2:	c7 85 dc f6 ff ff 01 	movl   $0x1,-0x924(%rbp)
    adb9:	00 00 00 
    adbc:	48 8d 05 49 87 00 00 	lea    0x8749(%rip),%rax        # 1350c <g_509+0x4>
    adc3:	48 89 85 48 f5 ff ff 	mov    %rax,-0xab8(%rbp)
    adca:	0f b6 85 c8 f4 ff ff 	movzbl -0xb38(%rbp),%eax
    add1:	0f be c0             	movsbl %al,%eax
    add4:	48 8b 95 38 f5 ff ff 	mov    -0xac8(%rbp),%rdx
    addb:	c7 02 01 00 00 00    	movl   $0x1,(%rdx)
    ade1:	89 c6                	mov    %eax,%esi
    ade3:	bf 00 00 00 00       	mov    $0x0,%edi
    ade8:	e8 05 a4 ff ff       	callq  51f2 <safe_sub_func_int8_t_s_s>
    aded:	48 8d 85 d4 f4 ff ff 	lea    -0xb2c(%rbp),%rax
    adf4:	48 89 85 d0 f7 ff ff 	mov    %rax,-0x830(%rbp)
    adfb:	e9 1f 02 00 00       	jmpq   b01f <func_68+0x6f6>
    ae00:	48 8d 05 0d 87 00 00 	lea    0x870d(%rip),%rax        # 13514 <g_510+0x4>
    ae07:	48 89 85 00 f5 ff ff 	mov    %rax,-0xb00(%rbp)
    ae0e:	48 8d 85 00 f5 ff ff 	lea    -0xb00(%rbp),%rax
    ae15:	48 89 85 08 f5 ff ff 	mov    %rax,-0xaf8(%rbp)
    ae1c:	48 8d 85 08 f5 ff ff 	lea    -0xaf8(%rbp),%rax
    ae23:	48 89 85 90 f6 ff ff 	mov    %rax,-0x970(%rbp)
    ae2a:	48 8d 85 08 f5 ff ff 	lea    -0xaf8(%rbp),%rax
    ae31:	48 89 85 98 f6 ff ff 	mov    %rax,-0x968(%rbp)
    ae38:	48 8d 85 08 f5 ff ff 	lea    -0xaf8(%rbp),%rax
    ae3f:	48 89 85 a0 f6 ff ff 	mov    %rax,-0x960(%rbp)
    ae46:	48 8d 85 08 f5 ff ff 	lea    -0xaf8(%rbp),%rax
    ae4d:	48 89 85 a8 f6 ff ff 	mov    %rax,-0x958(%rbp)
    ae54:	48 8d 85 08 f5 ff ff 	lea    -0xaf8(%rbp),%rax
    ae5b:	48 89 85 b0 f6 ff ff 	mov    %rax,-0x950(%rbp)
    ae62:	48 8d 85 08 f5 ff ff 	lea    -0xaf8(%rbp),%rax
    ae69:	48 89 85 b8 f6 ff ff 	mov    %rax,-0x948(%rbp)
    ae70:	48 8d 85 08 f5 ff ff 	lea    -0xaf8(%rbp),%rax
    ae77:	48 89 85 c0 f6 ff ff 	mov    %rax,-0x940(%rbp)
    ae7e:	48 8d 85 08 f5 ff ff 	lea    -0xaf8(%rbp),%rax
    ae85:	48 89 85 c8 f6 ff ff 	mov    %rax,-0x938(%rbp)
    ae8c:	48 8d 85 08 f5 ff ff 	lea    -0xaf8(%rbp),%rax
    ae93:	48 89 85 d0 f6 ff ff 	mov    %rax,-0x930(%rbp)
    ae9a:	48 8d 85 08 f5 ff ff 	lea    -0xaf8(%rbp),%rax
    aea1:	48 89 85 d8 f6 ff ff 	mov    %rax,-0x928(%rbp)
    aea8:	48 c7 85 e0 f6 ff ff 	movq   $0x0,-0x920(%rbp)
    aeaf:	00 00 00 00 
    aeb3:	48 8d 85 08 f5 ff ff 	lea    -0xaf8(%rbp),%rax
    aeba:	48 89 85 e8 f6 ff ff 	mov    %rax,-0x918(%rbp)
    aec1:	48 8d 85 08 f5 ff ff 	lea    -0xaf8(%rbp),%rax
    aec8:	48 89 85 f0 f6 ff ff 	mov    %rax,-0x910(%rbp)
    aecf:	48 8d 85 08 f5 ff ff 	lea    -0xaf8(%rbp),%rax
    aed6:	48 89 85 f8 f6 ff ff 	mov    %rax,-0x908(%rbp)
    aedd:	48 8d 85 08 f5 ff ff 	lea    -0xaf8(%rbp),%rax
    aee4:	48 89 85 00 f7 ff ff 	mov    %rax,-0x900(%rbp)
    aeeb:	48 8d 85 08 f5 ff ff 	lea    -0xaf8(%rbp),%rax
    aef2:	48 89 85 08 f7 ff ff 	mov    %rax,-0x8f8(%rbp)
    aef9:	48 8d 85 08 f5 ff ff 	lea    -0xaf8(%rbp),%rax
    af00:	48 89 85 10 f7 ff ff 	mov    %rax,-0x8f0(%rbp)
    af07:	48 8d 85 08 f5 ff ff 	lea    -0xaf8(%rbp),%rax
    af0e:	48 89 85 18 f7 ff ff 	mov    %rax,-0x8e8(%rbp)
    af15:	48 8d 85 08 f5 ff ff 	lea    -0xaf8(%rbp),%rax
    af1c:	48 89 85 20 f7 ff ff 	mov    %rax,-0x8e0(%rbp)
    af23:	48 8d 85 08 f5 ff ff 	lea    -0xaf8(%rbp),%rax
    af2a:	48 89 85 28 f7 ff ff 	mov    %rax,-0x8d8(%rbp)
    af31:	48 8d 85 08 f5 ff ff 	lea    -0xaf8(%rbp),%rax
    af38:	48 89 85 30 f7 ff ff 	mov    %rax,-0x8d0(%rbp)
    af3f:	48 8d 85 08 f5 ff ff 	lea    -0xaf8(%rbp),%rax
    af46:	48 89 85 38 f7 ff ff 	mov    %rax,-0x8c8(%rbp)
    af4d:	48 8d 85 08 f5 ff ff 	lea    -0xaf8(%rbp),%rax
    af54:	48 89 85 40 f7 ff ff 	mov    %rax,-0x8c0(%rbp)
    af5b:	48 8d 85 08 f5 ff ff 	lea    -0xaf8(%rbp),%rax
    af62:	48 89 85 48 f7 ff ff 	mov    %rax,-0x8b8(%rbp)
    af69:	48 8d 85 08 f5 ff ff 	lea    -0xaf8(%rbp),%rax
    af70:	48 89 85 50 f7 ff ff 	mov    %rax,-0x8b0(%rbp)
    af77:	48 8d 85 08 f5 ff ff 	lea    -0xaf8(%rbp),%rax
    af7e:	48 89 85 58 f7 ff ff 	mov    %rax,-0x8a8(%rbp)
    af85:	48 8d 85 08 f5 ff ff 	lea    -0xaf8(%rbp),%rax
    af8c:	48 89 85 60 f7 ff ff 	mov    %rax,-0x8a0(%rbp)
    af93:	48 8d 85 08 f5 ff ff 	lea    -0xaf8(%rbp),%rax
    af9a:	48 89 85 68 f7 ff ff 	mov    %rax,-0x898(%rbp)
    afa1:	48 8d 85 08 f5 ff ff 	lea    -0xaf8(%rbp),%rax
    afa8:	48 89 85 70 f7 ff ff 	mov    %rax,-0x890(%rbp)
    afaf:	48 8d 85 08 f5 ff ff 	lea    -0xaf8(%rbp),%rax
    afb6:	48 89 85 78 f7 ff ff 	mov    %rax,-0x888(%rbp)
    afbd:	48 8d 85 08 f5 ff ff 	lea    -0xaf8(%rbp),%rax
    afc4:	48 89 85 80 f7 ff ff 	mov    %rax,-0x880(%rbp)
    afcb:	48 8d 85 08 f5 ff ff 	lea    -0xaf8(%rbp),%rax
    afd2:	48 89 85 88 f7 ff ff 	mov    %rax,-0x878(%rbp)
    afd9:	48 8d 85 08 f5 ff ff 	lea    -0xaf8(%rbp),%rax
    afe0:	48 89 85 90 f7 ff ff 	mov    %rax,-0x870(%rbp)
    afe7:	48 8d 85 08 f5 ff ff 	lea    -0xaf8(%rbp),%rax
    afee:	48 89 85 98 f7 ff ff 	mov    %rax,-0x868(%rbp)
    aff5:	48 8d 85 08 f5 ff ff 	lea    -0xaf8(%rbp),%rax
    affc:	48 89 85 a0 f7 ff ff 	mov    %rax,-0x860(%rbp)
    b003:	48 8d 85 08 f5 ff ff 	lea    -0xaf8(%rbp),%rax
    b00a:	48 89 85 a8 f7 ff ff 	mov    %rax,-0x858(%rbp)
    b011:	48 8b 85 08 f5 ff ff 	mov    -0xaf8(%rbp),%rax
    b018:	48 89 85 78 f5 ff ff 	mov    %rax,-0xa88(%rbp)
    b01f:	c6 05 0e 85 00 00 00 	movb   $0x0,0x850e(%rip)        # 13534 <g_741+0x4>
    b026:	90                   	nop
    b027:	0f b6 05 06 85 00 00 	movzbl 0x8506(%rip),%eax        # 13534 <g_741+0x4>
    b02e:	3c 09                	cmp    $0x9,%al
    b030:	77 0c                	ja     b03e <func_68+0x715>
    b032:	0f b6 85 c8 f4 ff ff 	movzbl -0xb38(%rbp),%eax
    b039:	e9 ed 00 00 00       	jmpq   b12b <func_68+0x802>
    b03e:	0f b7 85 cc f4 ff ff 	movzwl -0xb34(%rbp),%eax
    b045:	83 e8 01             	sub    $0x1,%eax
    b048:	66 89 85 cc f4 ff ff 	mov    %ax,-0xb34(%rbp)
    b04f:	66 83 bd cc f4 ff ff 	cmpw   $0xffef,-0xb34(%rbp)
    b056:	ef 
    b057:	0f 8d 1e fb ff ff    	jge    ab7b <func_68+0x252>
    b05d:	0f b6 05 48 81 00 00 	movzbl 0x8148(%rip),%eax        # 131ac <g_456+0x4>
    b064:	0f b6 c0             	movzbl %al,%eax
    b067:	be 02 00 00 00       	mov    $0x2,%esi
    b06c:	89 c7                	mov    %eax,%edi
    b06e:	e8 e7 aa ff ff       	callq  5b5a <safe_add_func_uint8_t_u_u>
    b073:	88 05 33 81 00 00    	mov    %al,0x8133(%rip)        # 131ac <g_456+0x4>
    b079:	0f b6 05 2c 81 00 00 	movzbl 0x812c(%rip),%eax        # 131ac <g_456+0x4>
    b080:	3c 39                	cmp    $0x39,%al
    b082:	0f 87 01 fa ff ff    	ja     aa89 <func_68+0x160>
    b088:	eb 01                	jmp    b08b <func_68+0x762>
    b08a:	90                   	nop
    b08b:	8b 05 f7 80 00 00    	mov    0x80f7(%rip),%eax        # 13188 <g_410+0x8>
    b091:	f7 d0                	not    %eax
    b093:	89 c2                	mov    %eax,%edx
    b095:	48 8d 05 74 9c 00 00 	lea    0x9c74(%rip),%rax        # 14d10 <g_620>
    b09c:	48 8b 00             	mov    (%rax),%rax
    b09f:	0f b7 00             	movzwl (%rax),%eax
    b0a2:	0f b7 c0             	movzwl %ax,%eax
    b0a5:	09 d0                	or     %edx,%eax
    b0a7:	3d 5e 21 bc 02       	cmp    $0x2bc215e,%eax
    b0ac:	0f 9f c0             	setg   %al
    b0af:	0f b6 c0             	movzbl %al,%eax
    b0b2:	89 c6                	mov    %eax,%esi
    b0b4:	bf 00 00 00 00       	mov    $0x0,%edi
    b0b9:	e8 d5 aa ff ff       	callq  5b93 <safe_mul_func_uint8_t_u_u>
    b0be:	38 85 c8 f4 ff ff    	cmp    %al,-0xb38(%rbp)
    b0c4:	0f 94 c0             	sete   %al
    b0c7:	0f b6 d0             	movzbl %al,%edx
    b0ca:	0f b6 85 c8 f4 ff ff 	movzbl -0xb38(%rbp),%eax
    b0d1:	89 d6                	mov    %edx,%esi
    b0d3:	89 c7                	mov    %eax,%edi
    b0d5:	e8 b3 ab ff ff       	callq  5c8d <safe_rshift_func_uint8_t_u_s>
    b0da:	48 8b 05 97 9a 00 00 	mov    0x9a97(%rip),%rax        # 14b78 <g_162>
    b0e1:	8b 10                	mov    (%rax),%edx
    b0e3:	83 ea 01             	sub    $0x1,%edx
    b0e6:	89 10                	mov    %edx,(%rax)
    b0e8:	0f b6 85 c8 f4 ff ff 	movzbl -0xb38(%rbp),%eax
    b0ef:	83 f0 fe             	xor    $0xfffffffe,%eax
    b0f2:	89 c2                	mov    %eax,%edx
    b0f4:	48 8b 85 10 f5 ff ff 	mov    -0xaf0(%rbp),%rax
    b0fb:	66 89 10             	mov    %dx,(%rax)
    b0fe:	48 8b 85 10 f5 ff ff 	mov    -0xaf0(%rbp),%rax
    b105:	0f b7 00             	movzwl (%rax),%eax
    b108:	66 85 c0             	test   %ax,%ax
    b10b:	48 c7 85 18 f5 ff ff 	movq   $0x1,-0xae8(%rbp)
    b112:	01 00 00 00 
    b116:	48 8d 85 f0 f4 ff ff 	lea    -0xb10(%rbp),%rax
    b11d:	48 89 05 74 9c 00 00 	mov    %rax,0x9c74(%rip)        # 14d98 <g_838+0x78>
    b124:	0f b6 85 c8 f4 ff ff 	movzbl -0xb38(%rbp),%eax
    b12b:	48 8b 75 f8          	mov    -0x8(%rbp),%rsi
    b12f:	64 48 33 34 25 28 00 	xor    %fs:0x28,%rsi
    b136:	00 00 
    b138:	74 05                	je     b13f <func_68+0x816>
    b13a:	e8 31 9f ff ff       	callq  5070 <__stack_chk_fail@plt>
    b13f:	c9                   	leaveq 
    b140:	c3                   	retq   

000000000000b141 <func_74>:
    b141:	f3 0f 1e fa          	endbr64 
    b145:	55                   	push   %rbp
    b146:	48 89 e5             	mov    %rsp,%rbp
    b149:	41 56                	push   %r14
    b14b:	41 55                	push   %r13
    b14d:	41 54                	push   %r12
    b14f:	53                   	push   %rbx
    b150:	48 81 ec 00 10 00 00 	sub    $0x1000,%rsp
    b157:	48 83 0c 24 00       	orq    $0x0,(%rsp)
    b15c:	48 81 ec e0 03 00 00 	sub    $0x3e0,%rsp
    b163:	89 bd 1c ec ff ff    	mov    %edi,-0x13e4(%rbp)
    b169:	89 f0                	mov    %esi,%eax
    b16b:	48 89 95 10 ec ff ff 	mov    %rdx,-0x13f0(%rbp)
    b172:	89 8d 0c ec ff ff    	mov    %ecx,-0x13f4(%rbp)
    b178:	66 89 85 18 ec ff ff 	mov    %ax,-0x13e8(%rbp)
    b17f:	64 48 8b 04 25 28 00 	mov    %fs:0x28,%rax
    b186:	00 00 
    b188:	48 89 45 d8          	mov    %rax,-0x28(%rbp)
    b18c:	31 c0                	xor    %eax,%eax
    b18e:	66 c7 85 2a ec ff ff 	movw   $0x6ddf,-0x13d6(%rbp)
    b195:	df 6d 
    b197:	48 8d 05 aa ab 00 00 	lea    0xabaa(%rip),%rax        # 15d48 <g_33+0x8>
    b19e:	48 89 85 58 ed ff ff 	mov    %rax,-0x12a8(%rbp)
    b1a5:	48 b8 62 9c 57 94 d4 	movabs $0x2812a6d494579c62,%rax
    b1ac:	a6 12 28 
    b1af:	48 89 85 60 ed ff ff 	mov    %rax,-0x12a0(%rbp)
    b1b6:	c7 85 50 ec ff ff 01 	movl   $0x1,-0x13b0(%rbp)
    b1bd:	00 00 00 
    b1c0:	c7 85 3c ec ff ff 0f 	movl   $0x2791890f,-0x13c4(%rbp)
    b1c7:	89 91 27 
    b1ca:	c7 85 54 ec ff ff 02 	movl   $0x2,-0x13ac(%rbp)
    b1d1:	00 00 00 
    b1d4:	48 c7 85 d0 ec ff ff 	movq   $0x0,-0x1330(%rbp)
    b1db:	00 00 00 00 
    b1df:	c7 85 44 ec ff ff 0b 	movl   $0xdd8ea20b,-0x13bc(%rbp)
    b1e6:	a2 8e dd 
    b1e9:	c7 85 40 ec ff ff f9 	movl   $0xfffffff9,-0x13c0(%rbp)
    b1f0:	ff ff ff 
    b1f3:	c7 85 48 ec ff ff d4 	movl   $0x35fd6fd4,-0x13b8(%rbp)
    b1fa:	6f fd 35 
    b1fd:	48 8d 05 74 99 00 00 	lea    0x9974(%rip),%rax        # 14b78 <g_162>
    b204:	48 89 85 50 ed ff ff 	mov    %rax,-0x12b0(%rbp)
    b20b:	48 c7 85 d8 ec ff ff 	movq   $0x9,-0x1328(%rbp)
    b212:	09 00 00 00 
    b216:	c7 85 4c ec ff ff 05 	movl   $0x5,-0x13b4(%rbp)
    b21d:	00 00 00 
    b220:	c6 85 25 ec ff ff cc 	movb   $0xcc,-0x13db(%rbp)
    b227:	48 8d 05 06 7e 00 00 	lea    0x7e06(%rip),%rax        # 13034 <g_101>
    b22e:	48 89 85 e0 ec ff ff 	mov    %rax,-0x1320(%rbp)
    b235:	66 c7 85 2c ec ff ff 	movw   $0xfffe,-0x13d4(%rbp)
    b23c:	fe ff 
    b23e:	48 8d 85 2c ec ff ff 	lea    -0x13d4(%rbp),%rax
    b245:	48 89 85 e8 ec ff ff 	mov    %rax,-0x1318(%rbp)
    b24c:	48 8d 85 e8 ec ff ff 	lea    -0x1318(%rbp),%rax
    b253:	48 89 85 60 f1 ff ff 	mov    %rax,-0xea0(%rbp)
    b25a:	48 8d 85 e8 ec ff ff 	lea    -0x1318(%rbp),%rax
    b261:	48 89 85 68 f1 ff ff 	mov    %rax,-0xe98(%rbp)
    b268:	48 8d 85 e8 ec ff ff 	lea    -0x1318(%rbp),%rax
    b26f:	48 89 85 70 f1 ff ff 	mov    %rax,-0xe90(%rbp)
    b276:	48 8d 85 e8 ec ff ff 	lea    -0x1318(%rbp),%rax
    b27d:	48 89 85 78 f1 ff ff 	mov    %rax,-0xe88(%rbp)
    b284:	48 8d 85 e8 ec ff ff 	lea    -0x1318(%rbp),%rax
    b28b:	48 89 85 80 f1 ff ff 	mov    %rax,-0xe80(%rbp)
    b292:	48 8d 85 e8 ec ff ff 	lea    -0x1318(%rbp),%rax
    b299:	48 89 85 88 f1 ff ff 	mov    %rax,-0xe78(%rbp)
    b2a0:	48 8d 85 e8 ec ff ff 	lea    -0x1318(%rbp),%rax
    b2a7:	48 89 85 90 f1 ff ff 	mov    %rax,-0xe70(%rbp)
    b2ae:	48 8d 85 e8 ec ff ff 	lea    -0x1318(%rbp),%rax
    b2b5:	48 89 85 98 f1 ff ff 	mov    %rax,-0xe68(%rbp)
    b2bc:	48 8d 85 e8 ec ff ff 	lea    -0x1318(%rbp),%rax
    b2c3:	48 89 85 a0 f1 ff ff 	mov    %rax,-0xe60(%rbp)
    b2ca:	48 8d 85 e8 ec ff ff 	lea    -0x1318(%rbp),%rax
    b2d1:	48 89 85 a8 f1 ff ff 	mov    %rax,-0xe58(%rbp)
    b2d8:	48 8d 85 e8 ec ff ff 	lea    -0x1318(%rbp),%rax
    b2df:	48 89 85 b0 f1 ff ff 	mov    %rax,-0xe50(%rbp)
    b2e6:	48 8d 85 e8 ec ff ff 	lea    -0x1318(%rbp),%rax
    b2ed:	48 89 85 b8 f1 ff ff 	mov    %rax,-0xe48(%rbp)
    b2f4:	48 8d 85 e8 ec ff ff 	lea    -0x1318(%rbp),%rax
    b2fb:	48 89 85 c0 f1 ff ff 	mov    %rax,-0xe40(%rbp)
    b302:	48 8d 85 e8 ec ff ff 	lea    -0x1318(%rbp),%rax
    b309:	48 89 85 c8 f1 ff ff 	mov    %rax,-0xe38(%rbp)
    b310:	48 8d 85 e8 ec ff ff 	lea    -0x1318(%rbp),%rax
    b317:	48 89 85 d0 f1 ff ff 	mov    %rax,-0xe30(%rbp)
    b31e:	48 8d 85 e8 ec ff ff 	lea    -0x1318(%rbp),%rax
    b325:	48 89 85 d8 f1 ff ff 	mov    %rax,-0xe28(%rbp)
    b32c:	48 8d 85 e8 ec ff ff 	lea    -0x1318(%rbp),%rax
    b333:	48 89 85 e0 f1 ff ff 	mov    %rax,-0xe20(%rbp)
    b33a:	48 8d 85 e8 ec ff ff 	lea    -0x1318(%rbp),%rax
    b341:	48 89 85 e8 f1 ff ff 	mov    %rax,-0xe18(%rbp)
    b348:	48 8d 85 e8 ec ff ff 	lea    -0x1318(%rbp),%rax
    b34f:	48 89 85 f0 f1 ff ff 	mov    %rax,-0xe10(%rbp)
    b356:	48 8d 85 e8 ec ff ff 	lea    -0x1318(%rbp),%rax
    b35d:	48 89 85 f8 f1 ff ff 	mov    %rax,-0xe08(%rbp)
    b364:	48 8d 85 e8 ec ff ff 	lea    -0x1318(%rbp),%rax
    b36b:	48 89 85 00 f2 ff ff 	mov    %rax,-0xe00(%rbp)
    b372:	48 8d 85 e8 ec ff ff 	lea    -0x1318(%rbp),%rax
    b379:	48 89 85 08 f2 ff ff 	mov    %rax,-0xdf8(%rbp)
    b380:	48 8d 85 e8 ec ff ff 	lea    -0x1318(%rbp),%rax
    b387:	48 89 85 10 f2 ff ff 	mov    %rax,-0xdf0(%rbp)
    b38e:	48 8d 85 e8 ec ff ff 	lea    -0x1318(%rbp),%rax
    b395:	48 89 85 18 f2 ff ff 	mov    %rax,-0xde8(%rbp)
    b39c:	48 8d 85 e8 ec ff ff 	lea    -0x1318(%rbp),%rax
    b3a3:	48 89 85 20 f2 ff ff 	mov    %rax,-0xde0(%rbp)
    b3aa:	48 8d 85 e8 ec ff ff 	lea    -0x1318(%rbp),%rax
    b3b1:	48 89 85 28 f2 ff ff 	mov    %rax,-0xdd8(%rbp)
    b3b8:	48 8d 85 e8 ec ff ff 	lea    -0x1318(%rbp),%rax
    b3bf:	48 89 85 30 f2 ff ff 	mov    %rax,-0xdd0(%rbp)
    b3c6:	66 c7 85 32 ec ff ff 	movw   $0xfff9,-0x13ce(%rbp)
    b3cd:	f9 ff 
    b3cf:	48 8d 85 40 ec ff ff 	lea    -0x13c0(%rbp),%rax
    b3d6:	48 89 85 70 ed ff ff 	mov    %rax,-0x1290(%rbp)
    b3dd:	48 8d 05 ac a9 00 00 	lea    0xa9ac(%rip),%rax        # 15d90 <g_291>
    b3e4:	48 89 85 f0 ec ff ff 	mov    %rax,-0x1310(%rbp)
    b3eb:	48 8d 85 f0 ec ff ff 	lea    -0x1310(%rbp),%rax
    b3f2:	48 89 85 40 f4 ff ff 	mov    %rax,-0xbc0(%rbp)
    b3f9:	48 8d 85 f0 ec ff ff 	lea    -0x1310(%rbp),%rax
    b400:	48 89 85 48 f4 ff ff 	mov    %rax,-0xbb8(%rbp)
    b407:	48 8d 85 f0 ec ff ff 	lea    -0x1310(%rbp),%rax
    b40e:	48 89 85 50 f4 ff ff 	mov    %rax,-0xbb0(%rbp)
    b415:	48 8d 85 f0 ec ff ff 	lea    -0x1310(%rbp),%rax
    b41c:	48 89 85 58 f4 ff ff 	mov    %rax,-0xba8(%rbp)
    b423:	48 8d 85 f0 ec ff ff 	lea    -0x1310(%rbp),%rax
    b42a:	48 89 85 60 f4 ff ff 	mov    %rax,-0xba0(%rbp)
    b431:	48 8d 85 f0 ec ff ff 	lea    -0x1310(%rbp),%rax
    b438:	48 89 85 68 f4 ff ff 	mov    %rax,-0xb98(%rbp)
    b43f:	48 8d 85 f0 ec ff ff 	lea    -0x1310(%rbp),%rax
    b446:	48 89 85 70 f4 ff ff 	mov    %rax,-0xb90(%rbp)
    b44d:	48 8d 85 f0 ec ff ff 	lea    -0x1310(%rbp),%rax
    b454:	48 89 85 78 f4 ff ff 	mov    %rax,-0xb88(%rbp)
    b45b:	48 8d 85 f0 ec ff ff 	lea    -0x1310(%rbp),%rax
    b462:	48 89 85 80 f4 ff ff 	mov    %rax,-0xb80(%rbp)
    b469:	48 8d 85 f0 ec ff ff 	lea    -0x1310(%rbp),%rax
    b470:	48 89 85 88 f4 ff ff 	mov    %rax,-0xb78(%rbp)
    b477:	48 8d 85 f0 ec ff ff 	lea    -0x1310(%rbp),%rax
    b47e:	48 89 85 90 f4 ff ff 	mov    %rax,-0xb70(%rbp)
    b485:	48 8d 85 f0 ec ff ff 	lea    -0x1310(%rbp),%rax
    b48c:	48 89 85 98 f4 ff ff 	mov    %rax,-0xb68(%rbp)
    b493:	48 8d 85 f0 ec ff ff 	lea    -0x1310(%rbp),%rax
    b49a:	48 89 85 a0 f4 ff ff 	mov    %rax,-0xb60(%rbp)
    b4a1:	48 c7 85 a8 f4 ff ff 	movq   $0x0,-0xb58(%rbp)
    b4a8:	00 00 00 00 
    b4ac:	48 c7 85 b0 f4 ff ff 	movq   $0x0,-0xb50(%rbp)
    b4b3:	00 00 00 00 
    b4b7:	48 8d 85 f0 ec ff ff 	lea    -0x1310(%rbp),%rax
    b4be:	48 89 85 b8 f4 ff ff 	mov    %rax,-0xb48(%rbp)
    b4c5:	48 8d 85 f0 ec ff ff 	lea    -0x1310(%rbp),%rax
    b4cc:	48 89 85 c0 f4 ff ff 	mov    %rax,-0xb40(%rbp)
    b4d3:	48 8d 85 f0 ec ff ff 	lea    -0x1310(%rbp),%rax
    b4da:	48 89 85 c8 f4 ff ff 	mov    %rax,-0xb38(%rbp)
    b4e1:	48 8d 85 f0 ec ff ff 	lea    -0x1310(%rbp),%rax
    b4e8:	48 89 85 d0 f4 ff ff 	mov    %rax,-0xb30(%rbp)
    b4ef:	48 8d 85 f0 ec ff ff 	lea    -0x1310(%rbp),%rax
    b4f6:	48 89 85 d8 f4 ff ff 	mov    %rax,-0xb28(%rbp)
    b4fd:	48 8d 85 f0 ec ff ff 	lea    -0x1310(%rbp),%rax
    b504:	48 89 85 e0 f4 ff ff 	mov    %rax,-0xb20(%rbp)
    b50b:	48 8d 85 f0 ec ff ff 	lea    -0x1310(%rbp),%rax
    b512:	48 89 85 e8 f4 ff ff 	mov    %rax,-0xb18(%rbp)
    b519:	48 c7 85 f0 f4 ff ff 	movq   $0x0,-0xb10(%rbp)
    b520:	00 00 00 00 
    b524:	48 8d 85 f0 ec ff ff 	lea    -0x1310(%rbp),%rax
    b52b:	48 89 85 f8 f4 ff ff 	mov    %rax,-0xb08(%rbp)
    b532:	48 8d 85 f0 ec ff ff 	lea    -0x1310(%rbp),%rax
    b539:	48 89 85 00 f5 ff ff 	mov    %rax,-0xb00(%rbp)
    b540:	48 8d 85 f0 ec ff ff 	lea    -0x1310(%rbp),%rax
    b547:	48 89 85 08 f5 ff ff 	mov    %rax,-0xaf8(%rbp)
    b54e:	48 8d 85 f0 ec ff ff 	lea    -0x1310(%rbp),%rax
    b555:	48 89 85 10 f5 ff ff 	mov    %rax,-0xaf0(%rbp)
    b55c:	48 8d 85 f0 ec ff ff 	lea    -0x1310(%rbp),%rax
    b563:	48 89 85 18 f5 ff ff 	mov    %rax,-0xae8(%rbp)
    b56a:	48 8d 85 f0 ec ff ff 	lea    -0x1310(%rbp),%rax
    b571:	48 89 85 20 f5 ff ff 	mov    %rax,-0xae0(%rbp)
    b578:	48 8d 85 f0 ec ff ff 	lea    -0x1310(%rbp),%rax
    b57f:	48 89 85 28 f5 ff ff 	mov    %rax,-0xad8(%rbp)
    b586:	48 8d 85 f0 ec ff ff 	lea    -0x1310(%rbp),%rax
    b58d:	48 89 85 30 f5 ff ff 	mov    %rax,-0xad0(%rbp)
    b594:	48 8d 85 f0 ec ff ff 	lea    -0x1310(%rbp),%rax
    b59b:	48 89 85 38 f5 ff ff 	mov    %rax,-0xac8(%rbp)
    b5a2:	48 8d 85 f0 ec ff ff 	lea    -0x1310(%rbp),%rax
    b5a9:	48 89 85 40 f5 ff ff 	mov    %rax,-0xac0(%rbp)
    b5b0:	48 8d 85 f0 ec ff ff 	lea    -0x1310(%rbp),%rax
    b5b7:	48 89 85 48 f5 ff ff 	mov    %rax,-0xab8(%rbp)
    b5be:	48 8d 85 f0 ec ff ff 	lea    -0x1310(%rbp),%rax
    b5c5:	48 89 85 50 f5 ff ff 	mov    %rax,-0xab0(%rbp)
    b5cc:	48 8d 85 f0 ec ff ff 	lea    -0x1310(%rbp),%rax
    b5d3:	48 89 85 58 f5 ff ff 	mov    %rax,-0xaa8(%rbp)
    b5da:	48 8d 85 f0 ec ff ff 	lea    -0x1310(%rbp),%rax
    b5e1:	48 89 85 60 f5 ff ff 	mov    %rax,-0xaa0(%rbp)
    b5e8:	48 8d 85 f0 ec ff ff 	lea    -0x1310(%rbp),%rax
    b5ef:	48 89 85 68 f5 ff ff 	mov    %rax,-0xa98(%rbp)
    b5f6:	48 8d 85 f0 ec ff ff 	lea    -0x1310(%rbp),%rax
    b5fd:	48 89 85 70 f5 ff ff 	mov    %rax,-0xa90(%rbp)
    b604:	48 8d 85 f0 ec ff ff 	lea    -0x1310(%rbp),%rax
    b60b:	48 89 85 78 f5 ff ff 	mov    %rax,-0xa88(%rbp)
    b612:	48 c7 85 80 f5 ff ff 	movq   $0x0,-0xa80(%rbp)
    b619:	00 00 00 00 
    b61d:	48 c7 85 88 f5 ff ff 	movq   $0x0,-0xa78(%rbp)
    b624:	00 00 00 00 
    b628:	48 8d 85 f0 ec ff ff 	lea    -0x1310(%rbp),%rax
    b62f:	48 89 85 90 f5 ff ff 	mov    %rax,-0xa70(%rbp)
    b636:	48 8d 85 f0 ec ff ff 	lea    -0x1310(%rbp),%rax
    b63d:	48 89 85 98 f5 ff ff 	mov    %rax,-0xa68(%rbp)
    b644:	48 8d 85 f0 ec ff ff 	lea    -0x1310(%rbp),%rax
    b64b:	48 89 85 a0 f5 ff ff 	mov    %rax,-0xa60(%rbp)
    b652:	48 8d 85 f0 ec ff ff 	lea    -0x1310(%rbp),%rax
    b659:	48 89 85 a8 f5 ff ff 	mov    %rax,-0xa58(%rbp)
    b660:	48 8d 85 f0 ec ff ff 	lea    -0x1310(%rbp),%rax
    b667:	48 89 85 b0 f5 ff ff 	mov    %rax,-0xa50(%rbp)
    b66e:	48 8d 85 f0 ec ff ff 	lea    -0x1310(%rbp),%rax
    b675:	48 89 85 b8 f5 ff ff 	mov    %rax,-0xa48(%rbp)
    b67c:	48 8d 85 f0 ec ff ff 	lea    -0x1310(%rbp),%rax
    b683:	48 89 85 c0 f5 ff ff 	mov    %rax,-0xa40(%rbp)
    b68a:	48 8d 85 f0 ec ff ff 	lea    -0x1310(%rbp),%rax
    b691:	48 89 85 c8 f5 ff ff 	mov    %rax,-0xa38(%rbp)
    b698:	48 8d 85 f0 ec ff ff 	lea    -0x1310(%rbp),%rax
    b69f:	48 89 85 d0 f5 ff ff 	mov    %rax,-0xa30(%rbp)
    b6a6:	48 8d 85 f0 ec ff ff 	lea    -0x1310(%rbp),%rax
    b6ad:	48 89 85 d8 f5 ff ff 	mov    %rax,-0xa28(%rbp)
    b6b4:	48 8d 85 f0 ec ff ff 	lea    -0x1310(%rbp),%rax
    b6bb:	48 89 85 e0 f5 ff ff 	mov    %rax,-0xa20(%rbp)
    b6c2:	48 8d 85 f0 ec ff ff 	lea    -0x1310(%rbp),%rax
    b6c9:	48 89 85 e8 f5 ff ff 	mov    %rax,-0xa18(%rbp)
    b6d0:	48 c7 85 f0 f5 ff ff 	movq   $0x0,-0xa10(%rbp)
    b6d7:	00 00 00 00 
    b6db:	48 8d 85 f0 ec ff ff 	lea    -0x1310(%rbp),%rax
    b6e2:	48 89 85 f8 f5 ff ff 	mov    %rax,-0xa08(%rbp)
    b6e9:	48 8d 85 f0 ec ff ff 	lea    -0x1310(%rbp),%rax
    b6f0:	48 89 85 00 f6 ff ff 	mov    %rax,-0xa00(%rbp)
    b6f7:	48 8d 85 f0 ec ff ff 	lea    -0x1310(%rbp),%rax
    b6fe:	48 89 85 08 f6 ff ff 	mov    %rax,-0x9f8(%rbp)
    b705:	48 8d 85 f0 ec ff ff 	lea    -0x1310(%rbp),%rax
    b70c:	48 89 85 10 f6 ff ff 	mov    %rax,-0x9f0(%rbp)
    b713:	48 8d 85 f0 ec ff ff 	lea    -0x1310(%rbp),%rax
    b71a:	48 89 85 18 f6 ff ff 	mov    %rax,-0x9e8(%rbp)
    b721:	48 8d 85 f0 ec ff ff 	lea    -0x1310(%rbp),%rax
    b728:	48 89 85 20 f6 ff ff 	mov    %rax,-0x9e0(%rbp)
    b72f:	48 8d 85 f0 ec ff ff 	lea    -0x1310(%rbp),%rax
    b736:	48 89 85 28 f6 ff ff 	mov    %rax,-0x9d8(%rbp)
    b73d:	48 8d 85 f0 ec ff ff 	lea    -0x1310(%rbp),%rax
    b744:	48 89 85 30 f6 ff ff 	mov    %rax,-0x9d0(%rbp)
    b74b:	48 8d 85 f0 ec ff ff 	lea    -0x1310(%rbp),%rax
    b752:	48 89 85 38 f6 ff ff 	mov    %rax,-0x9c8(%rbp)
    b759:	48 8d 85 40 f4 ff ff 	lea    -0xbc0(%rbp),%rax
    b760:	48 05 90 01 00 00    	add    $0x190,%rax
    b766:	48 89 85 78 ed ff ff 	mov    %rax,-0x1288(%rbp)
    b76d:	48 8d 85 e0 ec ff ff 	lea    -0x1320(%rbp),%rax
    b774:	48 89 85 f8 ec ff ff 	mov    %rax,-0x1308(%rbp)
    b77b:	48 8d 85 f8 ec ff ff 	lea    -0x1308(%rbp),%rax
    b782:	48 89 85 80 ed ff ff 	mov    %rax,-0x1280(%rbp)
    b789:	48 8d 05 58 95 00 00 	lea    0x9558(%rip),%rax        # 14ce8 <g_502+0xc8>
    b790:	48 89 85 90 ee ff ff 	mov    %rax,-0x1170(%rbp)
    b797:	48 8d 85 d0 ec ff ff 	lea    -0x1330(%rbp),%rax
    b79e:	48 89 85 88 ed ff ff 	mov    %rax,-0x1278(%rbp)
    b7a5:	66 c7 85 2e ec ff ff 	movw   $0x9,-0x13d2(%rbp)
    b7ac:	09 00 
    b7ae:	c7 85 70 ec ff ff 00 	movl   $0x0,-0x1390(%rbp)
    b7b5:	00 00 00 
    b7b8:	eb 1a                	jmp    b7d4 <func_74+0x693>
    b7ba:	8b 85 70 ec ff ff    	mov    -0x1390(%rbp),%eax
    b7c0:	48 98                	cltq   
    b7c2:	c7 84 85 00 ef ff ff 	movl   $0x0,-0x1100(%rbp,%rax,4)
    b7c9:	00 00 00 00 
    b7cd:	83 85 70 ec ff ff 01 	addl   $0x1,-0x1390(%rbp)
    b7d4:	83 bd 70 ec ff ff 06 	cmpl   $0x6,-0x1390(%rbp)
    b7db:	7e dd                	jle    b7ba <func_74+0x679>
    b7dd:	c7 85 70 ec ff ff 00 	movl   $0x0,-0x1390(%rbp)
    b7e4:	00 00 00 
    b7e7:	eb 1a                	jmp    b803 <func_74+0x6c2>
    b7e9:	8b 85 70 ec ff ff    	mov    -0x1390(%rbp),%eax
    b7ef:	48 98                	cltq   
    b7f1:	c7 84 85 98 ee ff ff 	movl   $0xd3faabd5,-0x1168(%rbp,%rax,4)
    b7f8:	d5 ab fa d3 
    b7fc:	83 85 70 ec ff ff 01 	addl   $0x1,-0x1390(%rbp)
    b803:	83 bd 70 ec ff ff 02 	cmpl   $0x2,-0x1390(%rbp)
    b80a:	7e dd                	jle    b7e9 <func_74+0x6a8>
    b80c:	c7 85 70 ec ff ff 00 	movl   $0x0,-0x1390(%rbp)
    b813:	00 00 00 
    b816:	eb 1a                	jmp    b832 <func_74+0x6f1>
    b818:	8b 85 70 ec ff ff    	mov    -0x1390(%rbp),%eax
    b81e:	48 98                	cltq   
    b820:	c7 84 85 a4 ee ff ff 	movl   $0x9dffb0b3,-0x115c(%rbp,%rax,4)
    b827:	b3 b0 ff 9d 
    b82b:	83 85 70 ec ff ff 01 	addl   $0x1,-0x1390(%rbp)
    b832:	83 bd 70 ec ff ff 02 	cmpl   $0x2,-0x1390(%rbp)
    b839:	7e dd                	jle    b818 <func_74+0x6d7>
    b83b:	c7 85 1c ec ff ff ec 	movl   $0xffffffec,-0x13e4(%rbp)
    b842:	ff ff ff 
    b845:	eb 31                	jmp    b878 <func_74+0x737>
    b847:	c7 85 0c ec ff ff 00 	movl   $0x0,-0x13f4(%rbp)
    b84e:	00 00 00 
    b851:	83 bd 0c ec ff ff 2f 	cmpl   $0x2f,-0x13f4(%rbp)
    b858:	77 0f                	ja     b869 <func_74+0x728>
    b85a:	0f b7 85 2a ec ff ff 	movzwl -0x13d6(%rbp),%eax
    b861:	0f b7 c0             	movzwl %ax,%eax
    b864:	e9 2e 24 00 00       	jmpq   dc97 <func_74+0x2b56>
    b869:	8b 85 1c ec ff ff    	mov    -0x13e4(%rbp),%eax
    b86f:	83 c0 01             	add    $0x1,%eax
    b872:	89 85 1c ec ff ff    	mov    %eax,-0x13e4(%rbp)
    b878:	8b 85 1c ec ff ff    	mov    -0x13e4(%rbp),%eax
    b87e:	83 f8 1c             	cmp    $0x1c,%eax
    b881:	7f c4                	jg     b847 <func_74+0x706>
    b883:	c7 05 9f 77 00 00 00 	movl   $0x0,0x779f(%rip)        # 1302c <g_45>
    b88a:	00 00 00 
    b88d:	e9 a3 00 00 00       	jmpq   b935 <func_74+0x7f4>
    b892:	c7 85 b0 ec ff ff 02 	movl   $0x2,-0x1350(%rbp)
    b899:	00 00 00 
    b89c:	c6 85 29 ec ff ff 01 	movb   $0x1,-0x13d7(%rbp)
    b8a3:	c7 85 b4 ec ff ff 01 	movl   $0x1,-0x134c(%rbp)
    b8aa:	00 00 00 
    b8ad:	c7 85 b8 ec ff ff 0b 	movl   $0x64180a0b,-0x1348(%rbp)
    b8b4:	0a 18 64 
    b8b7:	c7 85 bc ec ff ff 03 	movl   $0x3,-0x1344(%rbp)
    b8be:	00 00 00 
    b8c1:	c7 85 c0 ec ff ff 8e 	movl   $0x503a9d8e,-0x1340(%rbp)
    b8c8:	9d 3a 50 
    b8cb:	c7 85 c4 ec ff ff ff 	movl   $0xffffffff,-0x133c(%rbp)
    b8d2:	ff ff ff 
    b8d5:	c7 85 c8 ec ff ff 2a 	movl   $0x1172552a,-0x1338(%rbp)
    b8dc:	55 72 11 
    b8df:	c7 85 cc ec ff ff 01 	movl   $0x1,-0x1334(%rbp)
    b8e6:	00 00 00 
    b8e9:	48 8d 85 d8 ec ff ff 	lea    -0x1328(%rbp),%rax
    b8f0:	48 89 85 88 ee ff ff 	mov    %rax,-0x1178(%rbp)
    b8f7:	c7 85 74 ec ff ff 00 	movl   $0x0,-0x138c(%rbp)
    b8fe:	00 00 00 
    b901:	eb 1a                	jmp    b91d <func_74+0x7dc>
    b903:	8b 85 74 ec ff ff    	mov    -0x138c(%rbp),%eax
    b909:	48 98                	cltq   
    b90b:	c7 84 85 10 f9 ff ff 	movl   $0x4,-0x6f0(%rbp,%rax,4)
    b912:	04 00 00 00 
    b916:	83 85 74 ec ff ff 01 	addl   $0x1,-0x138c(%rbp)
    b91d:	83 bd 74 ec ff ff 03 	cmpl   $0x3,-0x138c(%rbp)
    b924:	7e dd                	jle    b903 <func_74+0x7c2>
    b926:	8b 05 00 77 00 00    	mov    0x7700(%rip),%eax        # 1302c <g_45>
    b92c:	83 c0 01             	add    $0x1,%eax
    b92f:	89 05 f7 76 00 00    	mov    %eax,0x76f7(%rip)        # 1302c <g_45>
    b935:	8b 05 f1 76 00 00    	mov    0x76f1(%rip),%eax        # 1302c <g_45>
    b93b:	83 f8 08             	cmp    $0x8,%eax
    b93e:	0f 8e 4e ff ff ff    	jle    b892 <func_74+0x751>
    b944:	48 8b 85 e0 ec ff ff 	mov    -0x1320(%rbp),%rax
    b94b:	8b 00                	mov    (%rax),%eax
    b94d:	0f b7 d8             	movzwl %ax,%ebx
    b950:	0f b7 85 18 ec ff ff 	movzwl -0x13e8(%rbp),%eax
    b957:	44 0f b7 e0          	movzwl %ax,%r12d
    b95b:	8b 05 27 78 00 00    	mov    0x7827(%rip),%eax        # 13188 <g_410+0x8>
    b961:	48 63 d0             	movslq %eax,%rdx
    b964:	0f b6 05 c5 76 00 00 	movzbl 0x76c5(%rip),%eax        # 13030 <g_62>
    b96b:	0f b6 c0             	movzbl %al,%eax
    b96e:	48 89 d6             	mov    %rdx,%rsi
    b971:	48 89 c7             	mov    %rax,%rdi
    b974:	e8 2f 9f ff ff       	callq  58a8 <safe_sub_func_int64_t_s_s>
    b979:	41 89 c6             	mov    %eax,%r14d
    b97c:	44 8b 2d e9 77 00 00 	mov    0x77e9(%rip),%r13d        # 1316c <g_358>
    b983:	be fa ff ff ff       	mov    $0xfffffffa,%esi
    b988:	bf 00 00 00 00       	mov    $0x0,%edi
    b98d:	e8 26 a5 ff ff       	callq  5eb8 <safe_add_func_uint32_t_u_u>
    b992:	44 89 ee             	mov    %r13d,%esi
    b995:	89 c7                	mov    %eax,%edi
    b997:	e8 69 9c ff ff       	callq  5605 <safe_sub_func_int32_t_s_s>
    b99c:	89 c2                	mov    %eax,%edx
    b99e:	48 8b 85 e0 ec ff ff 	mov    -0x1320(%rbp),%rax
    b9a5:	8b 00                	mov    (%rax),%eax
    b9a7:	09 d0                	or     %edx,%eax
    b9a9:	89 c2                	mov    %eax,%edx
    b9ab:	48 8b 05 86 76 00 00 	mov    0x7686(%rip),%rax        # 13038 <g_108>
    b9b2:	31 d0                	xor    %edx,%eax
    b9b4:	0f be d0             	movsbl %al,%edx
    b9b7:	48 8b 85 e0 ec ff ff 	mov    -0x1320(%rbp),%rax
    b9be:	8b 00                	mov    (%rax),%eax
    b9c0:	85 c0                	test   %eax,%eax
    b9c2:	74 32                	je     b9f6 <func_74+0x8b5>
    b9c4:	48 8b 85 50 ed ff ff 	mov    -0x12b0(%rbp),%rax
    b9cb:	48 8b 00             	mov    (%rax),%rax
    b9ce:	8b 08                	mov    (%rax),%ecx
    b9d0:	48 8b 85 e0 ec ff ff 	mov    -0x1320(%rbp),%rax
    b9d7:	8b 00                	mov    (%rax),%eax
    b9d9:	89 c6                	mov    %eax,%esi
    b9db:	48 8b 85 50 ed ff ff 	mov    -0x12b0(%rbp),%rax
    b9e2:	48 8b 00             	mov    (%rax),%rax
    b9e5:	21 f1                	and    %esi,%ecx
    b9e7:	89 08                	mov    %ecx,(%rax)
    b9e9:	8b 00                	mov    (%rax),%eax
    b9eb:	85 c0                	test   %eax,%eax
    b9ed:	74 07                	je     b9f6 <func_74+0x8b5>
    b9ef:	b8 01 00 00 00       	mov    $0x1,%eax
    b9f4:	eb 05                	jmp    b9fb <func_74+0x8ba>
    b9f6:	b8 00 00 00 00       	mov    $0x0,%eax
    b9fb:	0f be c0             	movsbl %al,%eax
    b9fe:	89 d6                	mov    %edx,%esi
    ba00:	89 c7                	mov    %eax,%edi
    ba02:	e8 0b 98 ff ff       	callq  5212 <safe_mul_func_int8_t_s_s>
    ba07:	66 98                	cbtw   
    ba09:	44 31 f0             	xor    %r14d,%eax
    ba0c:	98                   	cwtl   
    ba0d:	be fe ff ff ff       	mov    $0xfffffffe,%esi
    ba12:	89 c7                	mov    %eax,%edi
    ba14:	e8 dc 99 ff ff       	callq  53f5 <safe_mul_func_int16_t_s_s>
    ba19:	98                   	cwtl   
    ba1a:	be 05 39 ae 17       	mov    $0x17ae3905,%esi
    ba1f:	89 c7                	mov    %eax,%edi
    ba21:	e8 a6 9c ff ff       	callq  56cc <safe_mod_func_int32_t_s_s>
    ba26:	39 85 0c ec ff ff    	cmp    %eax,-0x13f4(%rbp)
    ba2c:	74 09                	je     ba37 <func_74+0x8f6>
    ba2e:	0f b6 05 cd 76 00 00 	movzbl 0x76cd(%rip),%eax        # 13102 <g_290+0xa2>
    ba35:	84 c0                	test   %al,%al
    ba37:	48 8b 85 e0 ec ff ff 	mov    -0x1320(%rbp),%rax
    ba3e:	8b 00                	mov    (%rax),%eax
    ba40:	39 85 0c ec ff ff    	cmp    %eax,-0x13f4(%rbp)
    ba46:	0f 93 c0             	setae  %al
    ba49:	0f b6 c0             	movzbl %al,%eax
    ba4c:	44 89 e6             	mov    %r12d,%esi
    ba4f:	89 c7                	mov    %eax,%edi
    ba51:	e8 c9 a2 ff ff       	callq  5d1f <safe_sub_func_uint16_t_u_u>
    ba56:	0f b7 c0             	movzwl %ax,%eax
    ba59:	89 de                	mov    %ebx,%esi
    ba5b:	89 c7                	mov    %eax,%edi
    ba5d:	e8 2c a3 ff ff       	callq  5d8e <safe_div_func_uint16_t_u_u>
    ba62:	48 8b 85 10 ec ff ff 	mov    -0x13f0(%rbp),%rax
    ba69:	8b 00                	mov    (%rax),%eax
    ba6b:	85 c0                	test   %eax,%eax
    ba6d:	0f 84 ad 00 00 00    	je     bb20 <func_74+0x9df>
    ba73:	c7 85 10 f9 ff ff 0e 	movl   $0x9d5d710e,-0x6f0(%rbp)
    ba7a:	71 5d 9d 
    ba7d:	c7 85 14 f9 ff ff c0 	movl   $0x85ee49c0,-0x6ec(%rbp)
    ba84:	49 ee 85 
    ba87:	c7 85 18 f9 ff ff 0e 	movl   $0x9d5d710e,-0x6e8(%rbp)
    ba8e:	71 5d 9d 
    ba91:	c7 85 1c f9 ff ff 4c 	movl   $0x6cc3914c,-0x6e4(%rbp)
    ba98:	91 c3 6c 
    ba9b:	c7 85 20 f9 ff ff 4c 	movl   $0x6cc3914c,-0x6e0(%rbp)
    baa2:	91 c3 6c 
    baa5:	c7 85 24 f9 ff ff 0e 	movl   $0x9d5d710e,-0x6dc(%rbp)
    baac:	71 5d 9d 
    baaf:	c7 85 28 f9 ff ff c0 	movl   $0x85ee49c0,-0x6d8(%rbp)
    bab6:	49 ee 85 
    bab9:	c7 85 2c f9 ff ff 0e 	movl   $0x9d5d710e,-0x6d4(%rbp)
    bac0:	71 5d 9d 
    bac3:	c7 85 30 f9 ff ff f9 	movl   $0xf6347ff9,-0x6d0(%rbp)
    baca:	7f 34 f6 
    bacd:	c7 85 34 f9 ff ff 4c 	movl   $0x6cc3914c,-0x6cc(%rbp)
    bad4:	91 c3 6c 
    bad7:	c7 85 38 f9 ff ff 5c 	movl   $0xcfcc655c,-0x6c8(%rbp)
    bade:	65 cc cf 
    bae1:	c7 85 3c f9 ff ff 4c 	movl   $0x6cc3914c,-0x6c4(%rbp)
    bae8:	91 c3 6c 
    baeb:	c7 85 40 f9 ff ff f9 	movl   $0xf6347ff9,-0x6c0(%rbp)
    baf2:	7f 34 f6 
    baf5:	c7 85 44 f9 ff ff f9 	movl   $0xf6347ff9,-0x6bc(%rbp)
    bafc:	7f 34 f6 
    baff:	c7 85 48 f9 ff ff 4c 	movl   $0x6cc3914c,-0x6b8(%rbp)
    bb06:	91 c3 6c 
    bb09:	c7 85 4c f9 ff ff 5c 	movl   $0xcfcc655c,-0x6b4(%rbp)
    bb10:	65 cc cf 
    bb13:	8b 85 30 f9 ff ff    	mov    -0x6d0(%rbp),%eax
    bb19:	48 98                	cltq   
    bb1b:	e9 77 21 00 00       	jmpq   dc97 <func_74+0x2b56>
    bb20:	c7 85 80 ec ff ff 01 	movl   $0x1,-0x1380(%rbp)
    bb27:	00 00 00 
    bb2a:	48 c7 85 90 ed ff ff 	movq   $0x0,-0x1270(%rbp)
    bb31:	00 00 00 00 
    bb35:	c7 85 10 f9 ff ff 01 	movl   $0x1,-0x6f0(%rbp)
    bb3c:	00 00 00 
    bb3f:	c7 85 14 f9 ff ff 01 	movl   $0x1,-0x6ec(%rbp)
    bb46:	00 00 00 
    bb49:	c7 85 18 f9 ff ff 01 	movl   $0x1,-0x6e8(%rbp)
    bb50:	00 00 00 
    bb53:	c7 85 1c f9 ff ff 01 	movl   $0x1,-0x6e4(%rbp)
    bb5a:	00 00 00 
    bb5d:	c7 85 20 f9 ff ff 01 	movl   $0x1,-0x6e0(%rbp)
    bb64:	00 00 00 
    bb67:	c7 85 24 f9 ff ff 01 	movl   $0x1,-0x6dc(%rbp)
    bb6e:	00 00 00 
    bb71:	c7 85 28 f9 ff ff 01 	movl   $0x1,-0x6d8(%rbp)
    bb78:	00 00 00 
    bb7b:	c7 85 2c f9 ff ff 01 	movl   $0x1,-0x6d4(%rbp)
    bb82:	00 00 00 
    bb85:	c7 85 30 f9 ff ff 01 	movl   $0x1,-0x6d0(%rbp)
    bb8c:	00 00 00 
    bb8f:	c7 85 34 f9 ff ff 01 	movl   $0x1,-0x6cc(%rbp)
    bb96:	00 00 00 
    bb99:	48 8d 05 ad 74 00 00 	lea    0x74ad(%rip),%rax        # 1304d <g_175+0x5>
    bba0:	48 89 85 98 ed ff ff 	mov    %rax,-0x1268(%rbp)
    bba7:	48 8d 05 92 74 00 00 	lea    0x7492(%rip),%rax        # 13040 <g_115>
    bbae:	48 89 85 a0 ed ff ff 	mov    %rax,-0x1260(%rbp)
    bbb5:	48 8d 85 2a ec ff ff 	lea    -0x13d6(%rbp),%rax
    bbbc:	48 89 85 a8 ed ff ff 	mov    %rax,-0x1258(%rbp)
    bbc3:	c7 85 78 ec ff ff 00 	movl   $0x0,-0x1388(%rbp)
    bbca:	00 00 00 
    bbcd:	eb 1a                	jmp    bbe9 <func_74+0xaa8>
    bbcf:	8b 85 78 ec ff ff    	mov    -0x1388(%rbp),%eax
    bbd5:	48 98                	cltq   
    bbd7:	c7 84 85 40 f6 ff ff 	movl   $0x1,-0x9c0(%rbp,%rax,4)
    bbde:	01 00 00 00 
    bbe2:	83 85 78 ec ff ff 01 	addl   $0x1,-0x1388(%rbp)
    bbe9:	83 bd 78 ec ff ff 00 	cmpl   $0x0,-0x1388(%rbp)
    bbf0:	7e dd                	jle    bbcf <func_74+0xa8e>
    bbf2:	83 bd 0c ec ff ff 00 	cmpl   $0x0,-0x13f4(%rbp)
    bbf9:	75 64                	jne    bc5f <func_74+0xb1e>
    bbfb:	8b 85 80 ec ff ff    	mov    -0x1380(%rbp),%eax
    bc01:	98                   	cwtl   
    bc02:	89 c6                	mov    %eax,%esi
    bc04:	bf 00 00 00 00       	mov    $0x0,%edi
    bc09:	e8 47 98 ff ff       	callq  5455 <safe_div_func_int16_t_s_s>
    bc0e:	48 0f bf c0          	movswq %ax,%rax
    bc12:	48 89 c7             	mov    %rax,%rdi
    bc15:	e8 fc 9b ff ff       	callq  5816 <safe_unary_minus_func_int64_t_s>
    bc1a:	8b 95 1c ec ff ff    	mov    -0x13e4(%rbp),%edx
    bc20:	89 95 20 f9 ff ff    	mov    %edx,-0x6e0(%rbp)
    bc26:	8b 95 20 f9 ff ff    	mov    -0x6e0(%rbp),%edx
    bc2c:	48 63 d2             	movslq %edx,%rdx
    bc2f:	48 39 d0             	cmp    %rdx,%rax
    bc32:	0f 94 c0             	sete   %al
    bc35:	0f b6 d0             	movzbl %al,%edx
    bc38:	48 8b 85 98 ed ff ff 	mov    -0x1268(%rbp),%rax
    bc3f:	0f b6 00             	movzbl (%rax),%eax
    bc42:	89 c1                	mov    %eax,%ecx
    bc44:	89 d0                	mov    %edx,%eax
    bc46:	09 c8                	or     %ecx,%eax
    bc48:	89 c2                	mov    %eax,%edx
    bc4a:	48 8b 85 98 ed ff ff 	mov    -0x1268(%rbp),%rax
    bc51:	88 10                	mov    %dl,(%rax)
    bc53:	48 8b 85 98 ed ff ff 	mov    -0x1268(%rbp),%rax
    bc5a:	0f b6 00             	movzbl (%rax),%eax
    bc5d:	84 c0                	test   %al,%al
    bc5f:	8b 05 cf 73 00 00    	mov    0x73cf(%rip),%eax        # 13034 <g_101>
    bc65:	0f be d8             	movsbl %al,%ebx
    bc68:	44 8b a5 80 ec ff ff 	mov    -0x1380(%rbp),%r12d
    bc6f:	0f b6 05 fb 74 00 00 	movzbl 0x74fb(%rip),%eax        # 13171 <g_384>
    bc76:	44 0f b6 e8          	movzbl %al,%r13d
    bc7a:	48 8b 05 f7 8e 00 00 	mov    0x8ef7(%rip),%rax        # 14b78 <g_162>
    bc81:	8b 00                	mov    (%rax),%eax
    bc83:	33 85 80 ec ff ff    	xor    -0x1380(%rbp),%eax
    bc89:	89 c0                	mov    %eax,%eax
    bc8b:	be 01 00 00 00       	mov    $0x1,%esi
    bc90:	48 89 c7             	mov    %rax,%rdi
    bc93:	e8 1c 9d ff ff       	callq  59b4 <safe_mod_func_int64_t_s_s>
    bc98:	41 89 c6             	mov    %eax,%r14d
    bc9b:	8b 05 93 73 00 00    	mov    0x7393(%rip),%eax        # 13034 <g_101>
    bca1:	0f b6 c0             	movzbl %al,%eax
    bca4:	89 c7                	mov    %eax,%edi
    bca6:	e8 9a 9e ff ff       	callq  5b45 <safe_unary_minus_func_uint8_t_u>
    bcab:	0f b6 c0             	movzbl %al,%eax
    bcae:	44 89 f6             	mov    %r14d,%esi
    bcb1:	89 c7                	mov    %eax,%edi
    bcb3:	e8 18 a2 ff ff       	callq  5ed0 <safe_sub_func_uint32_t_u_u>
    bcb8:	89 c2                	mov    %eax,%edx
    bcba:	48 8b 05 77 73 00 00 	mov    0x7377(%rip),%rax        # 13038 <g_108>
    bcc1:	48 39 c2             	cmp    %rax,%rdx
    bcc4:	0f 95 c0             	setne  %al
    bcc7:	89 c2                	mov    %eax,%edx
    bcc9:	48 8b 05 a8 8e 00 00 	mov    0x8ea8(%rip),%rax        # 14b78 <g_162>
    bcd0:	8b 00                	mov    (%rax),%eax
    bcd2:	21 d0                	and    %edx,%eax
    bcd4:	0f b6 c0             	movzbl %al,%eax
    bcd7:	44 89 ee             	mov    %r13d,%esi
    bcda:	89 c7                	mov    %eax,%edi
    bcdc:	e8 cd 9e ff ff       	callq  5bae <safe_mod_func_uint8_t_u_u>
    bce1:	0f b6 d0             	movzbl %al,%edx
    bce4:	8b 85 1c ec ff ff    	mov    -0x13e4(%rbp),%eax
    bcea:	39 c2                	cmp    %eax,%edx
    bcec:	0f 9c c0             	setl   %al
    bcef:	0f b6 c0             	movzbl %al,%eax
    bcf2:	be ff 00 00 00       	mov    $0xff,%esi
    bcf7:	89 c7                	mov    %eax,%edi
    bcf9:	e8 dd 9e ff ff       	callq  5bdb <safe_div_func_uint8_t_u_u>
    bcfe:	48 83 bd 90 ed ff ff 	cmpq   $0x0,-0x1270(%rbp)
    bd05:	00 
    bd06:	0f 94 c0             	sete   %al
    bd09:	0f b6 c0             	movzbl %al,%eax
    bd0c:	48 be 08 9c c4 00 f5 	movabs $0x33f3f4f500c49c08,%rsi
    bd13:	f4 f3 33 
    bd16:	48 89 c7             	mov    %rax,%rdi
    bd19:	e8 62 a3 ff ff       	callq  6080 <safe_mod_func_uint64_t_u_u>
    bd1e:	48 89 c2             	mov    %rax,%rdx
    bd21:	8b 85 1c ec ff ff    	mov    -0x13e4(%rbp),%eax
    bd27:	48 98                	cltq   
    bd29:	48 89 d6             	mov    %rdx,%rsi
    bd2c:	48 89 c7             	mov    %rax,%rdi
    bd2f:	e8 fa a2 ff ff       	callq  602e <safe_add_func_uint64_t_u_u>
    bd34:	0f b7 c0             	movzwl %ax,%eax
    bd37:	44 89 e6             	mov    %r12d,%esi
    bd3a:	89 c7                	mov    %eax,%edi
    bd3c:	e8 07 a1 ff ff       	callq  5e48 <safe_rshift_func_uint16_t_u_s>
    bd41:	0f be c0             	movsbl %al,%eax
    bd44:	89 de                	mov    %ebx,%esi
    bd46:	89 c7                	mov    %eax,%edi
    bd48:	e8 a5 94 ff ff       	callq  51f2 <safe_sub_func_int8_t_s_s>
    bd4d:	84 c0                	test   %al,%al
    bd4f:	74 09                	je     bd5a <func_74+0xc19>
    bd51:	0f b6 05 d8 72 00 00 	movzbl 0x72d8(%rip),%eax        # 13030 <g_62>
    bd58:	84 c0                	test   %al,%al
    bd5a:	48 8b 85 a0 ed ff ff 	mov    -0x1260(%rbp),%rax
    bd61:	66 c7 00 01 00       	movw   $0x1,(%rax)
    bd66:	48 8b 85 a0 ed ff ff 	mov    -0x1260(%rbp),%rax
    bd6d:	0f b7 00             	movzwl (%rax),%eax
    bd70:	98                   	cwtl   
    bd71:	39 85 0c ec ff ff    	cmp    %eax,-0x13f4(%rbp)
    bd77:	0f 95 c0             	setne  %al
    bd7a:	0f b6 d0             	movzbl %al,%edx
    bd7d:	48 8b 85 a8 ed ff ff 	mov    -0x1258(%rbp),%rax
    bd84:	66 89 10             	mov    %dx,(%rax)
    bd87:	c7 85 40 f6 ff ff 01 	movl   $0x1,-0x9c0(%rbp)
    bd8e:	00 00 00 
    bd91:	c7 85 0c ec ff ff 01 	movl   $0x1,-0x13f4(%rbp)
    bd98:	00 00 00 
    bd9b:	e9 e1 1e 00 00       	jmpq   dc81 <func_74+0x2b40>
    bda0:	48 8d 85 3c ec ff ff 	lea    -0x13c4(%rbp),%rax
    bda7:	48 89 85 00 ed ff ff 	mov    %rax,-0x1300(%rbp)
    bdae:	48 8d 85 60 f1 ff ff 	lea    -0xea0(%rbp),%rax
    bdb5:	48 83 c0 60          	add    $0x60,%rax
    bdb9:	48 89 85 b0 ed ff ff 	mov    %rax,-0x1250(%rbp)
    bdc0:	48 c7 85 b8 ed ff ff 	movq   $0x0,-0x1248(%rbp)
    bdc7:	00 00 00 00 
    bdcb:	48 8d 05 d6 73 00 00 	lea    0x73d6(%rip),%rax        # 131a8 <g_456>
    bdd2:	48 89 85 08 ed ff ff 	mov    %rax,-0x12f8(%rbp)
    bdd9:	c6 85 26 ec ff ff c9 	movb   $0xc9,-0x13da(%rbp)
    bde0:	48 c7 85 10 ed ff ff 	movq   $0x0,-0x12f0(%rbp)
    bde7:	00 00 00 00 
    bdeb:	48 8d 85 b0 ee ff ff 	lea    -0x1150(%rbp),%rax
    bdf2:	48 83 c0 08          	add    $0x8,%rax
    bdf6:	48 89 85 68 ed ff ff 	mov    %rax,-0x1298(%rbp)
    bdfd:	c7 85 20 ef ff ff c2 	movl   $0xe77b94c2,-0x10e0(%rbp)
    be04:	94 7b e7 
    be07:	c7 85 24 ef ff ff 01 	movl   $0x1,-0x10dc(%rbp)
    be0e:	00 00 00 
    be11:	c7 85 28 ef ff ff 01 	movl   $0x1,-0x10d8(%rbp)
    be18:	00 00 00 
    be1b:	c7 85 2c ef ff ff c2 	movl   $0xe77b94c2,-0x10d4(%rbp)
    be22:	94 7b e7 
    be25:	c7 85 30 ef ff ff 01 	movl   $0x1,-0x10d0(%rbp)
    be2c:	00 00 00 
    be2f:	c7 85 34 ef ff ff 01 	movl   $0x1,-0x10cc(%rbp)
    be36:	00 00 00 
    be39:	c7 85 38 ef ff ff c2 	movl   $0xe77b94c2,-0x10c8(%rbp)
    be40:	94 7b e7 
    be43:	66 c7 85 34 ec ff ff 	movw   $0xfffd,-0x13cc(%rbp)
    be4a:	fd ff 
    be4c:	c7 85 7c ec ff ff 00 	movl   $0x0,-0x1384(%rbp)
    be53:	00 00 00 
    be56:	eb 1e                	jmp    be76 <func_74+0xd35>
    be58:	8b 85 7c ec ff ff    	mov    -0x1384(%rbp),%eax
    be5e:	48 98                	cltq   
    be60:	48 8d 95 10 ed ff ff 	lea    -0x12f0(%rbp),%rdx
    be67:	48 89 94 c5 b0 ee ff 	mov    %rdx,-0x1150(%rbp,%rax,8)
    be6e:	ff 
    be6f:	83 85 7c ec ff ff 01 	addl   $0x1,-0x1384(%rbp)
    be76:	83 bd 7c ec ff ff 01 	cmpl   $0x1,-0x1384(%rbp)
    be7d:	7e d9                	jle    be58 <func_74+0xd17>
    be7f:	48 8b 85 58 ed ff ff 	mov    -0x12a8(%rbp),%rax
    be86:	48 8b 00             	mov    (%rax),%rax
    be89:	48 89 85 00 ed ff ff 	mov    %rax,-0x1300(%rbp)
    be90:	48 8b 95 00 ed ff ff 	mov    -0x1300(%rbp),%rdx
    be97:	48 8b 85 58 ed ff ff 	mov    -0x12a8(%rbp),%rax
    be9e:	48 89 10             	mov    %rdx,(%rax)
    bea1:	48 8b 85 58 ed ff ff 	mov    -0x12a8(%rbp),%rax
    bea8:	48 8b 00             	mov    (%rax),%rax
    beab:	48 89 85 e0 ec ff ff 	mov    %rax,-0x1320(%rbp)
    beb2:	48 8b 95 a0 f1 ff ff 	mov    -0xe60(%rbp),%rdx
    beb9:	48 8b 85 b0 ed ff ff 	mov    -0x1250(%rbp),%rax
    bec0:	48 89 10             	mov    %rdx,(%rax)
    bec3:	48 8b 85 10 ec ff ff 	mov    -0x13f0(%rbp),%rax
    beca:	8b 00                	mov    (%rax),%eax
    becc:	85 c0                	test   %eax,%eax
    bece:	0f 85 bc 1d 00 00    	jne    dc90 <func_74+0x2b4f>
    bed4:	c6 05 96 72 00 00 00 	movb   $0x0,0x7296(%rip)        # 13171 <g_384>
    bedb:	e9 8b 1d 00 00       	jmpq   dc6b <func_74+0x2b2a>
    bee0:	48 8d 85 00 ed ff ff 	lea    -0x1300(%rbp),%rax
    bee7:	48 89 85 20 f3 ff ff 	mov    %rax,-0xce0(%rbp)
    beee:	48 8d 85 e0 ec ff ff 	lea    -0x1320(%rbp),%rax
    bef5:	48 89 85 28 f3 ff ff 	mov    %rax,-0xcd8(%rbp)
    befc:	48 c7 85 30 f3 ff ff 	movq   $0x0,-0xcd0(%rbp)
    bf03:	00 00 00 00 
    bf07:	48 8d 05 4a 9e 00 00 	lea    0x9e4a(%rip),%rax        # 15d58 <g_33+0x18>
    bf0e:	48 89 85 38 f3 ff ff 	mov    %rax,-0xcc8(%rbp)
    bf15:	48 8d 85 e0 ec ff ff 	lea    -0x1320(%rbp),%rax
    bf1c:	48 89 85 40 f3 ff ff 	mov    %rax,-0xcc0(%rbp)
    bf23:	48 8d 05 2e 9e 00 00 	lea    0x9e2e(%rip),%rax        # 15d58 <g_33+0x18>
    bf2a:	48 89 85 48 f3 ff ff 	mov    %rax,-0xcb8(%rbp)
    bf31:	48 c7 85 50 f3 ff ff 	movq   $0x0,-0xcb0(%rbp)
    bf38:	00 00 00 00 
    bf3c:	48 8d 85 e0 ec ff ff 	lea    -0x1320(%rbp),%rax
    bf43:	48 89 85 58 f3 ff ff 	mov    %rax,-0xca8(%rbp)
    bf4a:	48 8d 85 00 ed ff ff 	lea    -0x1300(%rbp),%rax
    bf51:	48 89 85 60 f3 ff ff 	mov    %rax,-0xca0(%rbp)
    bf58:	48 8d 85 e0 ec ff ff 	lea    -0x1320(%rbp),%rax
    bf5f:	48 89 85 68 f3 ff ff 	mov    %rax,-0xc98(%rbp)
    bf66:	48 c7 85 70 f3 ff ff 	movq   $0x0,-0xc90(%rbp)
    bf6d:	00 00 00 00 
    bf71:	48 8d 85 00 ed ff ff 	lea    -0x1300(%rbp),%rax
    bf78:	48 89 85 78 f3 ff ff 	mov    %rax,-0xc88(%rbp)
    bf7f:	48 8d 05 ea 9d 00 00 	lea    0x9dea(%rip),%rax        # 15d70 <g_33+0x30>
    bf86:	48 89 85 80 f3 ff ff 	mov    %rax,-0xc80(%rbp)
    bf8d:	48 c7 85 88 f3 ff ff 	movq   $0x0,-0xc78(%rbp)
    bf94:	00 00 00 00 
    bf98:	48 8d 05 d1 9d 00 00 	lea    0x9dd1(%rip),%rax        # 15d70 <g_33+0x30>
    bf9f:	48 89 85 90 f3 ff ff 	mov    %rax,-0xc70(%rbp)
    bfa6:	48 8d 85 00 ed ff ff 	lea    -0x1300(%rbp),%rax
    bfad:	48 89 85 98 f3 ff ff 	mov    %rax,-0xc68(%rbp)
    bfb4:	48 c7 85 a0 f3 ff ff 	movq   $0x0,-0xc60(%rbp)
    bfbb:	00 00 00 00 
    bfbf:	48 8d 85 e0 ec ff ff 	lea    -0x1320(%rbp),%rax
    bfc6:	48 89 85 a8 f3 ff ff 	mov    %rax,-0xc58(%rbp)
    bfcd:	48 8d 85 00 ed ff ff 	lea    -0x1300(%rbp),%rax
    bfd4:	48 89 85 b0 f3 ff ff 	mov    %rax,-0xc50(%rbp)
    bfdb:	48 8d 85 e0 ec ff ff 	lea    -0x1320(%rbp),%rax
    bfe2:	48 89 85 b8 f3 ff ff 	mov    %rax,-0xc48(%rbp)
    bfe9:	48 c7 85 c0 f3 ff ff 	movq   $0x0,-0xc40(%rbp)
    bff0:	00 00 00 00 
    bff4:	48 8d 05 5d 9d 00 00 	lea    0x9d5d(%rip),%rax        # 15d58 <g_33+0x18>
    bffb:	48 89 85 c8 f3 ff ff 	mov    %rax,-0xc38(%rbp)
    c002:	48 8d 85 e0 ec ff ff 	lea    -0x1320(%rbp),%rax
    c009:	48 89 85 d0 f3 ff ff 	mov    %rax,-0xc30(%rbp)
    c010:	48 8d 05 41 9d 00 00 	lea    0x9d41(%rip),%rax        # 15d58 <g_33+0x18>
    c017:	48 89 85 d8 f3 ff ff 	mov    %rax,-0xc28(%rbp)
    c01e:	48 c7 85 e0 f3 ff ff 	movq   $0x0,-0xc20(%rbp)
    c025:	00 00 00 00 
    c029:	48 8d 85 e0 ec ff ff 	lea    -0x1320(%rbp),%rax
    c030:	48 89 85 e8 f3 ff ff 	mov    %rax,-0xc18(%rbp)
    c037:	48 8d 85 00 ed ff ff 	lea    -0x1300(%rbp),%rax
    c03e:	48 89 85 f0 f3 ff ff 	mov    %rax,-0xc10(%rbp)
    c045:	48 8d 85 e0 ec ff ff 	lea    -0x1320(%rbp),%rax
    c04c:	48 89 85 f8 f3 ff ff 	mov    %rax,-0xc08(%rbp)
    c053:	48 c7 85 00 f4 ff ff 	movq   $0x0,-0xc00(%rbp)
    c05a:	00 00 00 00 
    c05e:	48 8d 85 00 ed ff ff 	lea    -0x1300(%rbp),%rax
    c065:	48 89 85 08 f4 ff ff 	mov    %rax,-0xbf8(%rbp)
    c06c:	48 8d 05 fd 9c 00 00 	lea    0x9cfd(%rip),%rax        # 15d70 <g_33+0x30>
    c073:	48 89 85 10 f4 ff ff 	mov    %rax,-0xbf0(%rbp)
    c07a:	48 c7 85 18 f4 ff ff 	movq   $0x0,-0xbe8(%rbp)
    c081:	00 00 00 00 
    c085:	48 8d 05 e4 9c 00 00 	lea    0x9ce4(%rip),%rax        # 15d70 <g_33+0x30>
    c08c:	48 89 85 20 f4 ff ff 	mov    %rax,-0xbe0(%rbp)
    c093:	48 8d 85 00 ed ff ff 	lea    -0x1300(%rbp),%rax
    c09a:	48 89 85 28 f4 ff ff 	mov    %rax,-0xbd8(%rbp)
    c0a1:	48 c7 85 30 f4 ff ff 	movq   $0x0,-0xbd0(%rbp)
    c0a8:	00 00 00 00 
    c0ac:	48 8d 85 e0 ec ff ff 	lea    -0x1320(%rbp),%rax
    c0b3:	48 89 85 38 f4 ff ff 	mov    %rax,-0xbc8(%rbp)
    c0ba:	48 8d 85 40 f6 ff ff 	lea    -0x9c0(%rbp),%rax
    c0c1:	48 8d 15 f8 80 00 00 	lea    0x80f8(%rip),%rdx        # 141c0 <g_1482+0x990>
    c0c8:	b9 5a 00 00 00       	mov    $0x5a,%ecx
    c0cd:	48 89 c7             	mov    %rax,%rdi
    c0d0:	48 89 d6             	mov    %rdx,%rsi
    c0d3:	f3 48 a5             	rep movsq %ds:(%rsi),%es:(%rdi)
    c0d6:	48 8d 85 40 f6 ff ff 	lea    -0x9c0(%rbp),%rax
    c0dd:	48 05 e8 01 00 00    	add    $0x1e8,%rax
    c0e3:	48 89 85 18 ed ff ff 	mov    %rax,-0x12e8(%rbp)
    c0ea:	48 8d 85 c0 ee ff ff 	lea    -0x1140(%rbp),%rax
    c0f1:	48 89 85 c0 ed ff ff 	mov    %rax,-0x1240(%rbp)
    c0f8:	c6 85 27 ec ff ff f8 	movb   $0xf8,-0x13d9(%rbp)
    c0ff:	48 8d 05 12 74 00 00 	lea    0x7412(%rip),%rax        # 13518 <g_618>
    c106:	48 89 85 c8 ed ff ff 	mov    %rax,-0x1238(%rbp)
    c10d:	48 c7 85 d0 ed ff ff 	movq   $0x0,-0x1230(%rbp)
    c114:	00 00 00 00 
    c118:	c6 85 d0 ef ff ff c5 	movb   $0xc5,-0x1030(%rbp)
    c11f:	c6 85 d1 ef ff ff 79 	movb   $0x79,-0x102f(%rbp)
    c126:	c6 85 d2 ef ff ff 3b 	movb   $0x3b,-0x102e(%rbp)
    c12d:	c6 85 d3 ef ff ff fd 	movb   $0xfd,-0x102d(%rbp)
    c134:	c6 85 d4 ef ff ff 3b 	movb   $0x3b,-0x102c(%rbp)
    c13b:	c6 85 d5 ef ff ff 79 	movb   $0x79,-0x102b(%rbp)
    c142:	c6 85 d6 ef ff ff c5 	movb   $0xc5,-0x102a(%rbp)
    c149:	c6 85 d7 ef ff ff 79 	movb   $0x79,-0x1029(%rbp)
    c150:	c6 85 d8 ef ff ff 3b 	movb   $0x3b,-0x1028(%rbp)
    c157:	c6 85 d9 ef ff ff fd 	movb   $0xfd,-0x1027(%rbp)
    c15e:	c6 85 da ef ff ff 3b 	movb   $0x3b,-0x1026(%rbp)
    c165:	c6 85 db ef ff ff 79 	movb   $0x79,-0x1025(%rbp)
    c16c:	c6 85 dc ef ff ff c5 	movb   $0xc5,-0x1024(%rbp)
    c173:	c6 85 dd ef ff ff 79 	movb   $0x79,-0x1023(%rbp)
    c17a:	c6 85 de ef ff ff 3b 	movb   $0x3b,-0x1022(%rbp)
    c181:	c6 85 df ef ff ff fd 	movb   $0xfd,-0x1021(%rbp)
    c188:	c6 85 e0 ef ff ff 3b 	movb   $0x3b,-0x1020(%rbp)
    c18f:	c6 85 e1 ef ff ff 79 	movb   $0x79,-0x101f(%rbp)
    c196:	c6 85 e2 ef ff ff c5 	movb   $0xc5,-0x101e(%rbp)
    c19d:	c6 85 e3 ef ff ff 79 	movb   $0x79,-0x101d(%rbp)
    c1a4:	c6 85 e4 ef ff ff 3b 	movb   $0x3b,-0x101c(%rbp)
    c1ab:	c6 85 e5 ef ff ff fd 	movb   $0xfd,-0x101b(%rbp)
    c1b2:	c6 85 e6 ef ff ff 3b 	movb   $0x3b,-0x101a(%rbp)
    c1b9:	c6 85 e7 ef ff ff 79 	movb   $0x79,-0x1019(%rbp)
    c1c0:	c6 85 e8 ef ff ff c5 	movb   $0xc5,-0x1018(%rbp)
    c1c7:	c6 85 e9 ef ff ff 79 	movb   $0x79,-0x1017(%rbp)
    c1ce:	c6 85 ea ef ff ff 3b 	movb   $0x3b,-0x1016(%rbp)
    c1d5:	c6 85 eb ef ff ff fd 	movb   $0xfd,-0x1015(%rbp)
    c1dc:	c6 85 ec ef ff ff 3b 	movb   $0x3b,-0x1014(%rbp)
    c1e3:	c6 85 ed ef ff ff 79 	movb   $0x79,-0x1013(%rbp)
    c1ea:	c6 85 ee ef ff ff c5 	movb   $0xc5,-0x1012(%rbp)
    c1f1:	c6 85 ef ef ff ff 79 	movb   $0x79,-0x1011(%rbp)
    c1f8:	c6 85 f0 ef ff ff 3b 	movb   $0x3b,-0x1010(%rbp)
    c1ff:	c6 85 f1 ef ff ff fd 	movb   $0xfd,-0x100f(%rbp)
    c206:	c6 85 f2 ef ff ff 3b 	movb   $0x3b,-0x100e(%rbp)
    c20d:	c6 85 f3 ef ff ff 79 	movb   $0x79,-0x100d(%rbp)
    c214:	c6 85 f4 ef ff ff c5 	movb   $0xc5,-0x100c(%rbp)
    c21b:	c6 85 f5 ef ff ff 79 	movb   $0x79,-0x100b(%rbp)
    c222:	c6 85 f6 ef ff ff 3b 	movb   $0x3b,-0x100a(%rbp)
    c229:	c6 85 f7 ef ff ff fd 	movb   $0xfd,-0x1009(%rbp)
    c230:	c6 85 f8 ef ff ff 3b 	movb   $0x3b,-0x1008(%rbp)
    c237:	c6 85 f9 ef ff ff 79 	movb   $0x79,-0x1007(%rbp)
    c23e:	c6 85 fa ef ff ff c5 	movb   $0xc5,-0x1006(%rbp)
    c245:	c6 85 fb ef ff ff 79 	movb   $0x79,-0x1005(%rbp)
    c24c:	c6 85 fc ef ff ff 3b 	movb   $0x3b,-0x1004(%rbp)
    c253:	c6 85 fd ef ff ff fd 	movb   $0xfd,-0x1003(%rbp)
    c25a:	c6 85 fe ef ff ff 3b 	movb   $0x3b,-0x1002(%rbp)
    c261:	c6 85 ff ef ff ff 79 	movb   $0x79,-0x1001(%rbp)
    c268:	c6 85 00 f0 ff ff c5 	movb   $0xc5,-0x1000(%rbp)
    c26f:	c6 85 01 f0 ff ff 79 	movb   $0x79,-0xfff(%rbp)
    c276:	c6 85 02 f0 ff ff 3b 	movb   $0x3b,-0xffe(%rbp)
    c27d:	c6 85 03 f0 ff ff fd 	movb   $0xfd,-0xffd(%rbp)
    c284:	c6 85 04 f0 ff ff 3b 	movb   $0x3b,-0xffc(%rbp)
    c28b:	c6 85 05 f0 ff ff 79 	movb   $0x79,-0xffb(%rbp)
    c292:	c6 85 06 f0 ff ff c5 	movb   $0xc5,-0xffa(%rbp)
    c299:	c6 85 07 f0 ff ff 79 	movb   $0x79,-0xff9(%rbp)
    c2a0:	c6 85 08 f0 ff ff 3b 	movb   $0x3b,-0xff8(%rbp)
    c2a7:	c6 85 09 f0 ff ff fd 	movb   $0xfd,-0xff7(%rbp)
    c2ae:	c6 85 0a f0 ff ff 3b 	movb   $0x3b,-0xff6(%rbp)
    c2b5:	c6 85 0b f0 ff ff 79 	movb   $0x79,-0xff5(%rbp)
    c2bc:	c6 85 0c f0 ff ff c5 	movb   $0xc5,-0xff4(%rbp)
    c2c3:	c6 85 0d f0 ff ff 79 	movb   $0x79,-0xff3(%rbp)
    c2ca:	c6 85 0e f0 ff ff 3b 	movb   $0x3b,-0xff2(%rbp)
    c2d1:	c6 85 0f f0 ff ff fd 	movb   $0xfd,-0xff1(%rbp)
    c2d8:	c6 85 10 f0 ff ff 3b 	movb   $0x3b,-0xff0(%rbp)
    c2df:	c6 85 11 f0 ff ff 79 	movb   $0x79,-0xfef(%rbp)
    c2e6:	c6 85 12 f0 ff ff c5 	movb   $0xc5,-0xfee(%rbp)
    c2ed:	c6 85 13 f0 ff ff 79 	movb   $0x79,-0xfed(%rbp)
    c2f4:	c6 85 14 f0 ff ff 3b 	movb   $0x3b,-0xfec(%rbp)
    c2fb:	c6 85 15 f0 ff ff fd 	movb   $0xfd,-0xfeb(%rbp)
    c302:	c6 85 16 f0 ff ff 3b 	movb   $0x3b,-0xfea(%rbp)
    c309:	c6 85 17 f0 ff ff 79 	movb   $0x79,-0xfe9(%rbp)
    c310:	c6 85 18 f0 ff ff c5 	movb   $0xc5,-0xfe8(%rbp)
    c317:	c6 85 19 f0 ff ff 79 	movb   $0x79,-0xfe7(%rbp)
    c31e:	c6 85 1a f0 ff ff 3b 	movb   $0x3b,-0xfe6(%rbp)
    c325:	c6 85 1b f0 ff ff fd 	movb   $0xfd,-0xfe5(%rbp)
    c32c:	c6 85 1c f0 ff ff 3b 	movb   $0x3b,-0xfe4(%rbp)
    c333:	c6 85 1d f0 ff ff 79 	movb   $0x79,-0xfe3(%rbp)
    c33a:	c6 85 1e f0 ff ff c5 	movb   $0xc5,-0xfe2(%rbp)
    c341:	c6 85 1f f0 ff ff 79 	movb   $0x79,-0xfe1(%rbp)
    c348:	c7 85 58 ec ff ff ea 	movl   $0xded43aea,-0x13a8(%rbp)
    c34f:	3a d4 de 
    c352:	48 8d 05 b7 89 00 00 	lea    0x89b7(%rip),%rax        # 14d10 <g_620>
    c359:	48 89 85 a0 ef ff ff 	mov    %rax,-0x1060(%rbp)
    c360:	48 8d 05 a9 89 00 00 	lea    0x89a9(%rip),%rax        # 14d10 <g_620>
    c367:	48 89 85 a8 ef ff ff 	mov    %rax,-0x1058(%rbp)
    c36e:	48 8d 05 9b 89 00 00 	lea    0x899b(%rip),%rax        # 14d10 <g_620>
    c375:	48 89 85 b0 ef ff ff 	mov    %rax,-0x1050(%rbp)
    c37c:	48 8d 05 8d 89 00 00 	lea    0x898d(%rip),%rax        # 14d10 <g_620>
    c383:	48 89 85 b8 ef ff ff 	mov    %rax,-0x1048(%rbp)
    c38a:	48 8d 05 7f 89 00 00 	lea    0x897f(%rip),%rax        # 14d10 <g_620>
    c391:	48 89 85 c0 ef ff ff 	mov    %rax,-0x1040(%rbp)
    c398:	48 8d 05 71 89 00 00 	lea    0x8971(%rip),%rax        # 14d10 <g_620>
    c39f:	48 89 85 c8 ef ff ff 	mov    %rax,-0x1038(%rbp)
    c3a6:	48 8d 85 a0 ef ff ff 	lea    -0x1060(%rbp),%rax
    c3ad:	48 83 c0 28          	add    $0x28,%rax
    c3b1:	48 89 85 20 ed ff ff 	mov    %rax,-0x12e0(%rbp)
    c3b8:	c7 85 84 ec ff ff 7a 	movl   $0xa7cd8f7a,-0x137c(%rbp)
    c3bf:	8f cd a7 
    c3c2:	c7 85 5c ec ff ff 00 	movl   $0x0,-0x13a4(%rbp)
    c3c9:	00 00 00 
    c3cc:	eb 1e                	jmp    c3ec <func_74+0x12ab>
    c3ce:	8b 85 5c ec ff ff    	mov    -0x13a4(%rbp),%eax
    c3d4:	48 98                	cltq   
    c3d6:	48 8d 95 18 ed ff ff 	lea    -0x12e8(%rbp),%rdx
    c3dd:	48 89 94 c5 c0 ee ff 	mov    %rdx,-0x1140(%rbp,%rax,8)
    c3e4:	ff 
    c3e5:	83 85 5c ec ff ff 01 	addl   $0x1,-0x13a4(%rbp)
    c3ec:	83 bd 5c ec ff ff 02 	cmpl   $0x2,-0x13a4(%rbp)
    c3f3:	7e d9                	jle    c3ce <func_74+0x128d>
    c3f5:	c7 05 6d 6d 00 00 05 	movl   $0x5,0x6d6d(%rip)        # 1316c <g_358>
    c3fc:	00 00 00 
    c3ff:	e9 c0 0f 00 00       	jmpq   d3c4 <func_74+0x2283>
    c404:	48 8d 05 85 99 00 00 	lea    0x9985(%rip),%rax        # 15d90 <g_291>
    c40b:	48 89 85 28 ed ff ff 	mov    %rax,-0x12d8(%rbp)
    c412:	48 8d 85 40 ef ff ff 	lea    -0x10c0(%rbp),%rax
    c419:	48 83 c0 20          	add    $0x20,%rax
    c41d:	48 89 85 28 ee ff ff 	mov    %rax,-0x11d8(%rbp)
    c424:	48 8d 85 08 ed ff ff 	lea    -0x12f8(%rbp),%rax
    c42b:	48 89 85 30 ed ff ff 	mov    %rax,-0x12d0(%rbp)
    c432:	48 8d 85 30 ed ff ff 	lea    -0x12d0(%rbp),%rax
    c439:	48 89 85 38 ed ff ff 	mov    %rax,-0x12c8(%rbp)
    c440:	c7 85 20 f0 ff ff 01 	movl   $0x1,-0xfe0(%rbp)
    c447:	00 00 00 
    c44a:	c7 85 24 f0 ff ff ff 	movl   $0xffffffff,-0xfdc(%rbp)
    c451:	ff ff ff 
    c454:	c7 85 28 f0 ff ff ff 	movl   $0xffffffff,-0xfd8(%rbp)
    c45b:	ff ff ff 
    c45e:	c7 85 2c f0 ff ff 01 	movl   $0x1,-0xfd4(%rbp)
    c465:	00 00 00 
    c468:	c7 85 30 f0 ff ff ff 	movl   $0xffffffff,-0xfd0(%rbp)
    c46f:	ff ff ff 
    c472:	c7 85 34 f0 ff ff ff 	movl   $0xffffffff,-0xfcc(%rbp)
    c479:	ff ff ff 
    c47c:	c7 85 38 f0 ff ff 01 	movl   $0x1,-0xfc8(%rbp)
    c483:	00 00 00 
    c486:	c7 85 3c f0 ff ff ff 	movl   $0xffffffff,-0xfc4(%rbp)
    c48d:	ff ff ff 
    c490:	c7 85 40 f0 ff ff ff 	movl   $0xffffffff,-0xfc0(%rbp)
    c497:	ff ff ff 
    c49a:	c7 85 44 f0 ff ff 01 	movl   $0x1,-0xfbc(%rbp)
    c4a1:	00 00 00 
    c4a4:	c7 85 48 f0 ff ff ff 	movl   $0xffffffff,-0xfb8(%rbp)
    c4ab:	ff ff ff 
    c4ae:	c7 85 4c f0 ff ff ff 	movl   $0xffffffff,-0xfb4(%rbp)
    c4b5:	ff ff ff 
    c4b8:	c7 85 50 f0 ff ff 01 	movl   $0x1,-0xfb0(%rbp)
    c4bf:	00 00 00 
    c4c2:	c7 85 54 f0 ff ff ff 	movl   $0xffffffff,-0xfac(%rbp)
    c4c9:	ff ff ff 
    c4cc:	c7 85 58 f0 ff ff ff 	movl   $0xffffffff,-0xfa8(%rbp)
    c4d3:	ff ff ff 
    c4d6:	c7 85 5c f0 ff ff 01 	movl   $0x1,-0xfa4(%rbp)
    c4dd:	00 00 00 
    c4e0:	c7 85 60 f0 ff ff ff 	movl   $0xffffffff,-0xfa0(%rbp)
    c4e7:	ff ff ff 
    c4ea:	c7 85 64 f0 ff ff ff 	movl   $0xffffffff,-0xf9c(%rbp)
    c4f1:	ff ff ff 
    c4f4:	c7 85 68 f0 ff ff 01 	movl   $0x1,-0xf98(%rbp)
    c4fb:	00 00 00 
    c4fe:	c7 85 6c f0 ff ff ff 	movl   $0xffffffff,-0xf94(%rbp)
    c505:	ff ff ff 
    c508:	c7 85 70 f0 ff ff ff 	movl   $0xffffffff,-0xf90(%rbp)
    c50f:	ff ff ff 
    c512:	c7 85 74 f0 ff ff 01 	movl   $0x1,-0xf8c(%rbp)
    c519:	00 00 00 
    c51c:	c7 85 78 f0 ff ff ff 	movl   $0xffffffff,-0xf88(%rbp)
    c523:	ff ff ff 
    c526:	c7 85 7c f0 ff ff ff 	movl   $0xffffffff,-0xf84(%rbp)
    c52d:	ff ff ff 
    c530:	c7 85 80 f0 ff ff 01 	movl   $0x1,-0xf80(%rbp)
    c537:	00 00 00 
    c53a:	c7 85 84 f0 ff ff ff 	movl   $0xffffffff,-0xf7c(%rbp)
    c541:	ff ff ff 
    c544:	c7 85 88 f0 ff ff ff 	movl   $0xffffffff,-0xf78(%rbp)
    c54b:	ff ff ff 
    c54e:	c7 85 8c f0 ff ff 01 	movl   $0x1,-0xf74(%rbp)
    c555:	00 00 00 
    c558:	c7 85 90 f0 ff ff ff 	movl   $0xffffffff,-0xf70(%rbp)
    c55f:	ff ff ff 
    c562:	c7 85 94 f0 ff ff ff 	movl   $0xffffffff,-0xf6c(%rbp)
    c569:	ff ff ff 
    c56c:	48 c7 85 40 ed ff ff 	movq   $0x0,-0x12c0(%rbp)
    c573:	00 00 00 00 
    c577:	48 8d 85 40 ed ff ff 	lea    -0x12c0(%rbp),%rax
    c57e:	48 89 85 48 ed ff ff 	mov    %rax,-0x12b8(%rbp)
    c585:	48 8d 85 48 ed ff ff 	lea    -0x12b8(%rbp),%rax
    c58c:	48 89 85 30 ee ff ff 	mov    %rax,-0x11d0(%rbp)
    c593:	c7 85 a0 f0 ff ff ff 	movl   $0xffffffff,-0xf60(%rbp)
    c59a:	ff ff ff 
    c59d:	c7 85 a4 f0 ff ff 00 	movl   $0x0,-0xf5c(%rbp)
    c5a4:	00 00 00 
    c5a7:	c7 85 a8 f0 ff ff 00 	movl   $0x0,-0xf58(%rbp)
    c5ae:	00 00 00 
    c5b1:	c7 85 ac f0 ff ff ff 	movl   $0xffffffff,-0xf54(%rbp)
    c5b8:	ff ff ff 
    c5bb:	c7 85 b0 f0 ff ff 00 	movl   $0x0,-0xf50(%rbp)
    c5c2:	00 00 00 
    c5c5:	c7 85 b4 f0 ff ff ff 	movl   $0xffffffff,-0xf4c(%rbp)
    c5cc:	ff ff ff 
    c5cf:	c7 85 b8 f0 ff ff ff 	movl   $0xffffffff,-0xf48(%rbp)
    c5d6:	ff ff ff 
    c5d9:	c7 85 bc f0 ff ff ff 	movl   $0xffffffff,-0xf44(%rbp)
    c5e0:	ff ff ff 
    c5e3:	c7 85 c0 f0 ff ff ff 	movl   $0xffffffff,-0xf40(%rbp)
    c5ea:	ff ff ff 
    c5ed:	c7 85 c4 f0 ff ff ff 	movl   $0xffffffff,-0xf3c(%rbp)
    c5f4:	ff ff ff 
    c5f7:	c7 85 c8 f0 ff ff 00 	movl   $0x0,-0xf38(%rbp)
    c5fe:	00 00 00 
    c601:	c7 85 cc f0 ff ff ff 	movl   $0xffffffff,-0xf34(%rbp)
    c608:	ff ff ff 
    c60b:	c7 85 d0 f0 ff ff 00 	movl   $0x0,-0xf30(%rbp)
    c612:	00 00 00 
    c615:	c7 85 d4 f0 ff ff 00 	movl   $0x0,-0xf2c(%rbp)
    c61c:	00 00 00 
    c61f:	c7 85 d8 f0 ff ff ff 	movl   $0xffffffff,-0xf28(%rbp)
    c626:	ff ff ff 
    c629:	c7 85 dc f0 ff ff ff 	movl   $0xffffffff,-0xf24(%rbp)
    c630:	ff ff ff 
    c633:	c7 85 e0 f0 ff ff 00 	movl   $0x0,-0xf20(%rbp)
    c63a:	00 00 00 
    c63d:	c7 85 e4 f0 ff ff 00 	movl   $0x0,-0xf1c(%rbp)
    c644:	00 00 00 
    c647:	c7 85 e8 f0 ff ff ff 	movl   $0xffffffff,-0xf18(%rbp)
    c64e:	ff ff ff 
    c651:	c7 85 ec f0 ff ff 00 	movl   $0x0,-0xf14(%rbp)
    c658:	00 00 00 
    c65b:	c7 85 f0 f0 ff ff ff 	movl   $0xffffffff,-0xf10(%rbp)
    c662:	ff ff ff 
    c665:	c7 85 f4 f0 ff ff ff 	movl   $0xffffffff,-0xf0c(%rbp)
    c66c:	ff ff ff 
    c66f:	c7 85 f8 f0 ff ff ff 	movl   $0xffffffff,-0xf08(%rbp)
    c676:	ff ff ff 
    c679:	c7 85 fc f0 ff ff ff 	movl   $0xffffffff,-0xf04(%rbp)
    c680:	ff ff ff 
    c683:	c7 85 00 f1 ff ff ff 	movl   $0xffffffff,-0xf00(%rbp)
    c68a:	ff ff ff 
    c68d:	c7 85 04 f1 ff ff 00 	movl   $0x0,-0xefc(%rbp)
    c694:	00 00 00 
    c697:	c7 85 08 f1 ff ff ff 	movl   $0xffffffff,-0xef8(%rbp)
    c69e:	ff ff ff 
    c6a1:	c7 85 0c f1 ff ff 00 	movl   $0x0,-0xef4(%rbp)
    c6a8:	00 00 00 
    c6ab:	c7 85 10 f1 ff ff 00 	movl   $0x0,-0xef0(%rbp)
    c6b2:	00 00 00 
    c6b5:	c7 85 14 f1 ff ff ff 	movl   $0xffffffff,-0xeec(%rbp)
    c6bc:	ff ff ff 
    c6bf:	c7 85 18 f1 ff ff ff 	movl   $0xffffffff,-0xee8(%rbp)
    c6c6:	ff ff ff 
    c6c9:	c7 85 1c f1 ff ff 00 	movl   $0x0,-0xee4(%rbp)
    c6d0:	00 00 00 
    c6d3:	c7 85 20 f1 ff ff 00 	movl   $0x0,-0xee0(%rbp)
    c6da:	00 00 00 
    c6dd:	c7 85 24 f1 ff ff ff 	movl   $0xffffffff,-0xedc(%rbp)
    c6e4:	ff ff ff 
    c6e7:	c7 85 28 f1 ff ff 00 	movl   $0x0,-0xed8(%rbp)
    c6ee:	00 00 00 
    c6f1:	c7 85 2c f1 ff ff ff 	movl   $0xffffffff,-0xed4(%rbp)
    c6f8:	ff ff ff 
    c6fb:	c7 85 30 f1 ff ff ff 	movl   $0xffffffff,-0xed0(%rbp)
    c702:	ff ff ff 
    c705:	c7 85 34 f1 ff ff ff 	movl   $0xffffffff,-0xecc(%rbp)
    c70c:	ff ff ff 
    c70f:	c7 85 38 f1 ff ff ff 	movl   $0xffffffff,-0xec8(%rbp)
    c716:	ff ff ff 
    c719:	c7 85 3c f1 ff ff ff 	movl   $0xffffffff,-0xec4(%rbp)
    c720:	ff ff ff 
    c723:	c7 85 40 f1 ff ff 00 	movl   $0x0,-0xec0(%rbp)
    c72a:	00 00 00 
    c72d:	c7 85 44 f1 ff ff ff 	movl   $0xffffffff,-0xebc(%rbp)
    c734:	ff ff ff 
    c737:	c7 85 48 f1 ff ff 00 	movl   $0x0,-0xeb8(%rbp)
    c73e:	00 00 00 
    c741:	c7 85 4c f1 ff ff 00 	movl   $0x0,-0xeb4(%rbp)
    c748:	00 00 00 
    c74b:	c7 85 50 f1 ff ff ff 	movl   $0xffffffff,-0xeb0(%rbp)
    c752:	ff ff ff 
    c755:	66 c7 85 30 ec ff ff 	movw   $0xffff,-0x13d0(%rbp)
    c75c:	ff ff 
    c75e:	48 c7 85 38 ee ff ff 	movq   $0x6,-0x11c8(%rbp)
    c765:	06 00 00 00 
    c769:	48 c7 85 40 ee ff ff 	movq   $0x1,-0x11c0(%rbp)
    c770:	01 00 00 00 
    c774:	c7 85 60 ec ff ff 00 	movl   $0x0,-0x13a0(%rbp)
    c77b:	00 00 00 
    c77e:	eb 1e                	jmp    c79e <func_74+0x165d>
    c780:	8b 85 60 ec ff ff    	mov    -0x13a0(%rbp),%eax
    c786:	48 98                	cltq   
    c788:	48 8d 95 28 ed ff ff 	lea    -0x12d8(%rbp),%rdx
    c78f:	48 89 94 c5 40 ef ff 	mov    %rdx,-0x10c0(%rbp,%rax,8)
    c796:	ff 
    c797:	83 85 60 ec ff ff 01 	addl   $0x1,-0x13a0(%rbp)
    c79e:	83 bd 60 ec ff ff 04 	cmpl   $0x4,-0x13a0(%rbp)
    c7a5:	7e d9                	jle    c780 <func_74+0x163f>
    c7a7:	48 8b 85 28 ee ff ff 	mov    -0x11d8(%rbp),%rax
    c7ae:	48 c7 00 00 00 00 00 	movq   $0x0,(%rax)
    c7b5:	48 8d 05 3c 84 00 00 	lea    0x843c(%rip),%rax        # 14bf8 <g_334>
    c7bc:	48 39 85 b8 ed ff ff 	cmp    %rax,-0x1248(%rbp)
    c7c3:	48 c7 85 48 ee ff ff 	movq   $0x0,-0x11b8(%rbp)
    c7ca:	00 00 00 00 
    c7ce:	66 c7 85 18 ec ff ff 	movw   $0x1,-0x13e8(%rbp)
    c7d5:	01 00 
    c7d7:	eb 58                	jmp    c831 <func_74+0x16f0>
    c7d9:	48 8d 85 08 ed ff ff 	lea    -0x12f8(%rbp),%rax
    c7e0:	48 89 85 80 ee ff ff 	mov    %rax,-0x1180(%rbp)
    c7e7:	0f b6 05 83 69 00 00 	movzbl 0x6983(%rip),%eax        # 13171 <g_384>
    c7ee:	0f b6 c0             	movzbl %al,%eax
    c7f1:	8d 50 01             	lea    0x1(%rax),%edx
    c7f4:	48 8d 85 00 ef ff ff 	lea    -0x1100(%rbp),%rax
    c7fb:	48 63 d2             	movslq %edx,%rdx
    c7fe:	48 c1 e2 02          	shl    $0x2,%rdx
    c802:	48 01 c2             	add    %rax,%rdx
    c805:	48 8b 85 58 ed ff ff 	mov    -0x12a8(%rbp),%rax
    c80c:	48 89 10             	mov    %rdx,(%rax)
    c80f:	48 8b 95 08 ed ff ff 	mov    -0x12f8(%rbp),%rdx
    c816:	48 8b 85 80 ee ff ff 	mov    -0x1180(%rbp),%rax
    c81d:	48 89 10             	mov    %rdx,(%rax)
    c820:	0f b7 85 18 ec ff ff 	movzwl -0x13e8(%rbp),%eax
    c827:	83 c0 01             	add    $0x1,%eax
    c82a:	66 89 85 18 ec ff ff 	mov    %ax,-0x13e8(%rbp)
    c831:	66 83 bd 18 ec ff ff 	cmpw   $0x4,-0x13e8(%rbp)
    c838:	04 
    c839:	7e 9e                	jle    c7d9 <func_74+0x1698>
    c83b:	48 c7 85 d0 ec ff ff 	movq   $0x4,-0x1330(%rbp)
    c842:	04 00 00 00 
    c846:	eb 37                	jmp    c87f <func_74+0x173e>
    c848:	b8 32 7a 30 24       	mov    $0x24307a32,%eax
    c84d:	89 c6                	mov    %eax,%esi
    c84f:	bf 01 00 00 00       	mov    $0x1,%edi
    c854:	e8 88 8c ff ff       	callq  54e1 <safe_lshift_func_int16_t_s_u>
    c859:	98                   	cwtl   
    c85a:	89 85 1c ec ff ff    	mov    %eax,-0x13e4(%rbp)
    c860:	48 8b 85 10 ec ff ff 	mov    -0x13f0(%rbp),%rax
    c867:	8b 00                	mov    (%rax),%eax
    c869:	85 c0                	test   %eax,%eax
    c86b:	75 20                	jne    c88d <func_74+0x174c>
    c86d:	48 8b 85 d0 ec ff ff 	mov    -0x1330(%rbp),%rax
    c874:	48 83 e8 01          	sub    $0x1,%rax
    c878:	48 89 85 d0 ec ff ff 	mov    %rax,-0x1330(%rbp)
    c87f:	48 8b 85 d0 ec ff ff 	mov    -0x1330(%rbp),%rax
    c886:	48 85 c0             	test   %rax,%rax
    c889:	79 bd                	jns    c848 <func_74+0x1707>
    c88b:	eb 01                	jmp    c88e <func_74+0x174d>
    c88d:	90                   	nop
    c88e:	0f b6 9d 27 ec ff ff 	movzbl -0x13d9(%rbp),%ebx
    c895:	48 8b 85 10 ec ff ff 	mov    -0x13f0(%rbp),%rax
    c89c:	8b 00                	mov    (%rax),%eax
    c89e:	41 89 c6             	mov    %eax,%r14d
    c8a1:	0f b6 05 94 69 00 00 	movzbl 0x6994(%rip),%eax        # 1323c <g_504+0x4>
    c8a8:	44 0f b6 e0          	movzbl %al,%r12d
    c8ac:	8b 85 4c f0 ff ff    	mov    -0xfb4(%rbp),%eax
    c8b2:	85 c0                	test   %eax,%eax
    c8b4:	0f 85 c9 00 00 00    	jne    c983 <func_74+0x1842>
    c8ba:	0f b6 05 eb 68 00 00 	movzbl 0x68eb(%rip),%eax        # 131ac <g_456+0x4>
    c8c1:	44 0f b6 e8          	movzbl %al,%r13d
    c8c5:	8b 85 4c f0 ff ff    	mov    -0xfb4(%rbp),%eax
    c8cb:	85 c0                	test   %eax,%eax
    c8cd:	0f 84 83 00 00 00    	je     c956 <func_74+0x1815>
    c8d3:	8b 85 1c ec ff ff    	mov    -0x13e4(%rbp),%eax
    c8d9:	0f b6 d0             	movzbl %al,%edx
    c8dc:	8b 85 4c f0 ff ff    	mov    -0xfb4(%rbp),%eax
    c8e2:	0f b6 c0             	movzbl %al,%eax
    c8e5:	89 d6                	mov    %edx,%esi
    c8e7:	89 c7                	mov    %eax,%edi
    c8e9:	e8 ed 92 ff ff       	callq  5bdb <safe_div_func_uint8_t_u_u>
    c8ee:	48 8b 05 43 67 00 00 	mov    0x6743(%rip),%rax        # 13038 <g_108>
    c8f5:	48 85 c0             	test   %rax,%rax
    c8f8:	0f 94 c0             	sete   %al
    c8fb:	0f b6 d0             	movzbl %al,%edx
    c8fe:	48 8b 85 10 ec ff ff 	mov    -0x13f0(%rbp),%rax
    c905:	8b 00                	mov    (%rax),%eax
    c907:	39 c2                	cmp    %eax,%edx
    c909:	8b 85 0c ec ff ff    	mov    -0x13f4(%rbp),%eax
    c90f:	0f b6 c0             	movzbl %al,%eax
    c912:	be 33 00 00 00       	mov    $0x33,%esi
    c917:	89 c7                	mov    %eax,%edi
    c919:	e8 3c 92 ff ff       	callq  5b5a <safe_add_func_uint8_t_u_u>
    c91e:	0f b6 c0             	movzbl %al,%eax
    c921:	be 6d 00 00 00       	mov    $0x6d,%esi
    c926:	89 c7                	mov    %eax,%edi
    c928:	e8 4b 92 ff ff       	callq  5b78 <safe_sub_func_uint8_t_u_u>
    c92d:	0f b6 d0             	movzbl %al,%edx
    c930:	0f b6 05 1b 68 00 00 	movzbl 0x681b(%rip),%eax        # 13152 <g_296+0xa>
    c937:	0f be c0             	movsbl %al,%eax
    c93a:	89 d6                	mov    %edx,%esi
    c93c:	89 c7                	mov    %eax,%edi
    c93e:	e8 ab 89 ff ff       	callq  52ee <safe_lshift_func_int8_t_s_u>
    c943:	0f be c0             	movsbl %al,%eax
    c946:	be 09 00 00 00       	mov    $0x9,%esi
    c94b:	89 c7                	mov    %eax,%edi
    c94d:	e8 8f 8b ff ff       	callq  54e1 <safe_lshift_func_int16_t_s_u>
    c952:	66 85 c0             	test   %ax,%ax
    c955:	90                   	nop
    c956:	4c 89 ee             	mov    %r13,%rsi
    c959:	48 bf b7 98 e2 47 7c 	movabs $0xe8267d7c47e298b7,%rdi
    c960:	7d 26 e8 
    c963:	e8 4c 90 ff ff       	callq  59b4 <safe_mod_func_int64_t_s_s>
    c968:	48 8b 85 50 ed ff ff 	mov    -0x12b0(%rbp),%rax
    c96f:	48 8b 00             	mov    (%rax),%rax
    c972:	8b 10                	mov    (%rax),%edx
    c974:	83 ea 01             	sub    $0x1,%edx
    c977:	89 10                	mov    %edx,(%rax)
    c979:	8b 85 4c f0 ff ff    	mov    -0xfb4(%rbp),%eax
    c97f:	85 c0                	test   %eax,%eax
    c981:	74 07                	je     c98a <func_74+0x1849>
    c983:	ba 01 00 00 00       	mov    $0x1,%edx
    c988:	eb 05                	jmp    c98f <func_74+0x184e>
    c98a:	ba 00 00 00 00       	mov    $0x0,%edx
    c98f:	8b 85 1c ec ff ff    	mov    -0x13e4(%rbp),%eax
    c995:	21 d0                	and    %edx,%eax
    c997:	89 c7                	mov    %eax,%edi
    c999:	e8 f8 8b ff ff       	callq  5596 <safe_unary_minus_func_int32_t_s>
    c99e:	0f b7 c0             	movzwl %ax,%eax
    c9a1:	44 89 e6             	mov    %r12d,%esi
    c9a4:	89 c7                	mov    %eax,%edi
    c9a6:	e8 13 94 ff ff       	callq  5dbe <safe_lshift_func_uint16_t_u_s>
    c9ab:	0f b7 c0             	movzwl %ax,%eax
    c9ae:	44 89 f6             	mov    %r14d,%esi
    c9b1:	89 c7                	mov    %eax,%edi
    c9b3:	e8 00 95 ff ff       	callq  5eb8 <safe_add_func_uint32_t_u_u>
    c9b8:	0f bf 95 18 ec ff ff 	movswl -0x13e8(%rbp),%edx
    c9bf:	39 d0                	cmp    %edx,%eax
    c9c1:	0f 97 c0             	seta   %al
    c9c4:	0f b6 c0             	movzbl %al,%eax
    c9c7:	89 c6                	mov    %eax,%esi
    c9c9:	bf fe ff ff ff       	mov    $0xfffffffe,%edi
    c9ce:	e8 fd 94 ff ff       	callq  5ed0 <safe_sub_func_uint32_t_u_u>
    c9d3:	89 de                	mov    %ebx,%esi
    c9d5:	89 c7                	mov    %eax,%edi
    c9d7:	e8 29 8c ff ff       	callq  5605 <safe_sub_func_int32_t_s_s>
    c9dc:	0f be 95 26 ec ff ff 	movsbl -0x13da(%rbp),%edx
    c9e3:	39 d0                	cmp    %edx,%eax
    c9e5:	0f 9e c0             	setle  %al
    c9e8:	0f b6 c0             	movzbl %al,%eax
    c9eb:	31 85 4c ec ff ff    	xor    %eax,-0x13b4(%rbp)
    c9f1:	c7 85 40 ec ff ff 00 	movl   $0x0,-0x13c0(%rbp)
    c9f8:	00 00 00 
    c9fb:	eb 20                	jmp    ca1d <func_74+0x18dc>
    c9fd:	48 8b 85 58 ed ff ff 	mov    -0x12a8(%rbp),%rax
    ca04:	48 8b 95 70 ed ff ff 	mov    -0x1290(%rbp),%rdx
    ca0b:	48 89 10             	mov    %rdx,(%rax)
    ca0e:	8b 85 40 ec ff ff    	mov    -0x13c0(%rbp),%eax
    ca14:	83 c0 01             	add    $0x1,%eax
    ca17:	89 85 40 ec ff ff    	mov    %eax,-0x13c0(%rbp)
    ca1d:	8b 85 40 ec ff ff    	mov    -0x13c0(%rbp),%eax
    ca23:	83 f8 09             	cmp    $0x9,%eax
    ca26:	7e d5                	jle    c9fd <func_74+0x18bc>
    ca28:	41 bc 32 7a 30 24    	mov    $0x24307a32,%r12d
    ca2e:	48 8b 95 48 ed ff ff 	mov    -0x12b8(%rbp),%rdx
    ca35:	48 8b 85 30 ee ff ff 	mov    -0x11d0(%rbp),%rax
    ca3c:	48 89 10             	mov    %rdx,(%rax)
    ca3f:	48 8b 85 30 ee ff ff 	mov    -0x11d0(%rbp),%rax
    ca46:	48 8b 08             	mov    (%rax),%rcx
    ca49:	48 8b 85 b0 ed ff ff 	mov    -0x1250(%rbp),%rax
    ca50:	48 8b 10             	mov    (%rax),%rdx
    ca53:	48 8b 85 b0 ed ff ff 	mov    -0x1250(%rbp),%rax
    ca5a:	48 89 10             	mov    %rdx,(%rax)
    ca5d:	48 8b 85 b0 ed ff ff 	mov    -0x1250(%rbp),%rax
    ca64:	48 8b 00             	mov    (%rax),%rax
    ca67:	48 39 c1             	cmp    %rax,%rcx
    ca6a:	0f 94 c0             	sete   %al
    ca6d:	0f b6 d8             	movzbl %al,%ebx
    ca70:	48 8b 85 68 ed ff ff 	mov    -0x1298(%rbp),%rax
    ca77:	48 89 85 78 ed ff ff 	mov    %rax,-0x1288(%rbp)
    ca7e:	48 8b 85 78 ed ff ff 	mov    -0x1288(%rbp),%rax
    ca85:	48 89 85 68 ed ff ff 	mov    %rax,-0x1298(%rbp)
    ca8c:	48 8b 85 68 ed ff ff 	mov    -0x1298(%rbp),%rax
    ca93:	48 89 05 fe 92 00 00 	mov    %rax,0x92fe(%rip)        # 15d98 <g_580>
    ca9a:	48 8b 05 f7 92 00 00 	mov    0x92f7(%rip),%rax        # 15d98 <g_580>
    caa1:	48 8d 15 98 62 00 00 	lea    0x6298(%rip),%rdx        # 12d40 <g_333>
    caa8:	48 39 d0             	cmp    %rdx,%rax
    caab:	0f 95 c0             	setne  %al
    caae:	0f b6 c0             	movzbl %al,%eax
    cab1:	be 0c 00 00 00       	mov    $0xc,%esi
    cab6:	89 c7                	mov    %eax,%edi
    cab8:	e8 49 93 ff ff       	callq  5e06 <safe_lshift_func_uint16_t_u_u>
    cabd:	48 8b 05 d4 92 00 00 	mov    0x92d4(%rip),%rax        # 15d98 <g_580>
    cac4:	48 8b 00             	mov    (%rax),%rax
    cac7:	48 8b 10             	mov    (%rax),%rdx
    caca:	48 8b 85 c0 ed ff ff 	mov    -0x1240(%rbp),%rax
    cad1:	48 8b 00             	mov    (%rax),%rax
    cad4:	48 8d 0d b5 92 00 00 	lea    0x92b5(%rip),%rcx        # 15d90 <g_291>
    cadb:	48 89 08             	mov    %rcx,(%rax)
    cade:	48 8b 00             	mov    (%rax),%rax
    cae1:	48 39 c2             	cmp    %rax,%rdx
    cae4:	0f 94 c0             	sete   %al
    cae7:	0f b6 c0             	movzbl %al,%eax
    caea:	48 be 2b 35 b3 19 3b 	movabs $0x65e2a93b19b3352b,%rsi
    caf1:	a9 e2 65 
    caf4:	48 89 c7             	mov    %rax,%rdi
    caf7:	e8 84 95 ff ff       	callq  6080 <safe_mod_func_uint64_t_u_u>
    cafc:	48 39 c3             	cmp    %rax,%rbx
    caff:	0f 97 c0             	seta   %al
    cb02:	0f b6 d0             	movzbl %al,%edx
    cb05:	8b 85 38 f1 ff ff    	mov    -0xec8(%rbp),%eax
    cb0b:	31 d0                	xor    %edx,%eax
    cb0d:	89 85 38 f1 ff ff    	mov    %eax,-0xec8(%rbp)
    cb13:	8b 85 38 f1 ff ff    	mov    -0xec8(%rbp),%eax
    cb19:	89 c2                	mov    %eax,%edx
    cb1b:	0f b7 85 30 ec ff ff 	movzwl -0x13d0(%rbp),%eax
    cb22:	66 39 85 18 ec ff ff 	cmp    %ax,-0x13e8(%rbp)
    cb29:	0f 9c c0             	setl   %al
    cb2c:	0f b6 c0             	movzbl %al,%eax
    cb2f:	09 d0                	or     %edx,%eax
    cb31:	83 f0 07             	xor    $0x7,%eax
    cb34:	98                   	cwtl   
    cb35:	44 89 e6             	mov    %r12d,%esi
    cb38:	89 c7                	mov    %eax,%edi
    cb3a:	e8 eb 89 ff ff       	callq  552a <safe_rshift_func_int16_t_s_s>
    cb3f:	66 3d 7d 30          	cmp    $0x307d,%ax
    cb43:	0f 8f f0 02 00 00    	jg     ce39 <func_74+0x1cf8>
    cb49:	48 8d 85 10 f9 ff ff 	lea    -0x6f0(%rbp),%rax
    cb50:	48 8d 15 09 28 00 00 	lea    0x2809(%rip),%rdx        # f360 <g_1342+0x2e8>
    cb57:	b9 7e 00 00 00       	mov    $0x7e,%ecx
    cb5c:	48 89 c7             	mov    %rax,%rdi
    cb5f:	48 89 d6             	mov    %rdx,%rsi
    cb62:	f3 48 a5             	rep movsq %ds:(%rsi),%es:(%rdi)
    cb65:	48 c7 85 58 ee ff ff 	movq   $0x0,-0x11a8(%rbp)
    cb6c:	00 00 00 00 
    cb70:	48 8d 05 95 69 00 00 	lea    0x6995(%rip),%rax        # 1350c <g_509+0x4>
    cb77:	48 89 85 60 ee ff ff 	mov    %rax,-0x11a0(%rbp)
    cb7e:	48 8d 05 f3 7f 00 00 	lea    0x7ff3(%rip),%rax        # 14b78 <g_162>
    cb85:	48 89 85 68 ee ff ff 	mov    %rax,-0x1198(%rbp)
    cb8c:	0f b6 05 83 65 00 00 	movzbl 0x6583(%rip),%eax        # 13116 <g_290+0xb6>
    cb93:	0f be d8             	movsbl %al,%ebx
    cb96:	be 04 00 00 00       	mov    $0x4,%esi
    cb9b:	bf 00 00 00 00       	mov    $0x0,%edi
    cba0:	e8 c7 87 ff ff       	callq  536c <safe_rshift_func_int8_t_s_u>
    cba5:	0f be d0             	movsbl %al,%edx
    cba8:	0f bf 8d 18 ec ff ff 	movswl -0x13e8(%rbp),%ecx
    cbaf:	48 8b 05 c2 7f 00 00 	mov    0x7fc2(%rip),%rax        # 14b78 <g_162>
    cbb6:	8b 00                	mov    (%rax),%eax
    cbb8:	39 c1                	cmp    %eax,%ecx
    cbba:	0f 93 c0             	setae  %al
    cbbd:	0f b6 c0             	movzbl %al,%eax
    cbc0:	39 c2                	cmp    %eax,%edx
    cbc2:	7c 31                	jl     cbf5 <func_74+0x1ab4>
    cbc4:	be 00 00 00 00       	mov    $0x0,%esi
    cbc9:	bf f9 ff 00 00       	mov    $0xfff9,%edi
    cbce:	e8 75 92 ff ff       	callq  5e48 <safe_rshift_func_uint16_t_u_s>
    cbd3:	0f b7 d0             	movzwl %ax,%edx
    cbd6:	48 8b 85 50 ed ff ff 	mov    -0x12b0(%rbp),%rax
    cbdd:	48 8b 00             	mov    (%rax),%rax
    cbe0:	8b 08                	mov    (%rax),%ecx
    cbe2:	83 c1 01             	add    $0x1,%ecx
    cbe5:	89 08                	mov    %ecx,(%rax)
    cbe7:	8b 00                	mov    (%rax),%eax
    cbe9:	89 d6                	mov    %edx,%esi
    cbeb:	89 c7                	mov    %eax,%edi
    cbed:	e8 33 93 ff ff       	callq  5f25 <safe_div_func_uint32_t_u_u>
    cbf2:	85 c0                	test   %eax,%eax
    cbf4:	90                   	nop
    cbf5:	48 8b 85 10 ec ff ff 	mov    -0x13f0(%rbp),%rax
    cbfc:	8b 00                	mov    (%rax),%eax
    cbfe:	3d 70 1e f9 4c       	cmp    $0x4cf91e70,%eax
    cc03:	0f 9e c0             	setle  %al
    cc06:	0f b6 d0             	movzbl %al,%edx
    cc09:	8b 85 1c ec ff ff    	mov    -0x13e4(%rbp),%eax
    cc0f:	39 c2                	cmp    %eax,%edx
    cc11:	0f 95 c0             	setne  %al
    cc14:	0f b6 d0             	movzbl %al,%edx
    cc17:	48 83 bd 58 ee ff ff 	cmpq   $0x0,-0x11a8(%rbp)
    cc1e:	00 
    cc1f:	0f 95 c0             	setne  %al
    cc22:	0f b6 c0             	movzbl %al,%eax
    cc25:	89 d6                	mov    %edx,%esi
    cc27:	89 c7                	mov    %eax,%edi
    cc29:	e8 0f 91 ff ff       	callq  5d3d <safe_mul_func_uint16_t_u_u>
    cc2e:	0f b7 c0             	movzwl %ax,%eax
    cc31:	89 c6                	mov    %eax,%esi
    cc33:	bf 8a 21 b7 9c       	mov    $0x9cb7218a,%edi
    cc38:	e8 93 92 ff ff       	callq  5ed0 <safe_sub_func_uint32_t_u_u>
    cc3d:	48 8b 85 60 ee ff ff 	mov    -0x11a0(%rbp),%rax
    cc44:	c6 00 00             	movb   $0x0,(%rax)
    cc47:	48 8b 85 60 ee ff ff 	mov    -0x11a0(%rbp),%rax
    cc4e:	0f b6 10             	movzbl (%rax),%edx
    cc51:	0f b6 05 54 65 00 00 	movzbl 0x6554(%rip),%eax        # 131ac <g_456+0x4>
    cc58:	38 c2                	cmp    %al,%dl
    cc5a:	0f 97 c0             	seta   %al
    cc5d:	0f b6 d0             	movzbl %al,%edx
    cc60:	8b 05 26 65 00 00    	mov    0x6526(%rip),%eax        # 1318c <g_410+0xc>
    cc66:	39 c2                	cmp    %eax,%edx
    cc68:	0f 94 c0             	sete   %al
    cc6b:	0f b6 c0             	movzbl %al,%eax
    cc6e:	ba 32 7a 30 24       	mov    $0x24307a32,%edx
    cc73:	39 d0                	cmp    %edx,%eax
    cc75:	74 07                	je     cc7e <func_74+0x1b3d>
    cc77:	b8 01 00 00 00       	mov    $0x1,%eax
    cc7c:	eb 05                	jmp    cc83 <func_74+0x1b42>
    cc7e:	b8 00 00 00 00       	mov    $0x0,%eax
    cc83:	be 06 00 00 00       	mov    $0x6,%esi
    cc88:	89 c7                	mov    %eax,%edi
    cc8a:	e8 27 89 ff ff       	callq  55b6 <safe_add_func_int32_t_s_s>
    cc8f:	0f b6 d0             	movzbl %al,%edx
    cc92:	8b 85 0c ec ff ff    	mov    -0x13f4(%rbp),%eax
    cc98:	48 8d 0d a9 63 00 00 	lea    0x63a9(%rip),%rcx        # 13048 <g_175>
    cc9f:	0f b6 04 08          	movzbl (%rax,%rcx,1),%eax
    cca3:	8d 70 ff             	lea    -0x1(%rax),%esi
    cca6:	8b 85 0c ec ff ff    	mov    -0x13f4(%rbp),%eax
    ccac:	48 8d 0d 95 63 00 00 	lea    0x6395(%rip),%rcx        # 13048 <g_175>
    ccb3:	40 88 34 08          	mov    %sil,(%rax,%rcx,1)
    ccb7:	8b 85 0c ec ff ff    	mov    -0x13f4(%rbp),%eax
    ccbd:	48 8d 0d 84 63 00 00 	lea    0x6384(%rip),%rcx        # 13048 <g_175>
    ccc4:	0f b6 04 08          	movzbl (%rax,%rcx,1),%eax
    ccc8:	0f b6 c0             	movzbl %al,%eax
    cccb:	89 d6                	mov    %edx,%esi
    cccd:	89 c7                	mov    %eax,%edi
    cccf:	e8 07 8f ff ff       	callq  5bdb <safe_div_func_uint8_t_u_u>
    ccd4:	0f b6 c0             	movzbl %al,%eax
    ccd7:	89 de                	mov    %ebx,%esi
    ccd9:	89 c7                	mov    %eax,%edi
    ccdb:	e8 36 87 ff ff       	callq  5416 <safe_mod_func_int16_t_s_s>
    cce0:	89 c2                	mov    %eax,%edx
    cce2:	8b 85 1c ec ff ff    	mov    -0x13e4(%rbp),%eax
    cce8:	21 d0                	and    %edx,%eax
    ccea:	0f be c0             	movsbl %al,%eax
    cced:	be 8b ff ff ff       	mov    $0xffffff8b,%esi
    ccf2:	89 c7                	mov    %eax,%edi
    ccf4:	e8 db 84 ff ff       	callq  51d4 <safe_add_func_int8_t_s_s>
    ccf9:	84 c0                	test   %al,%al
    ccfb:	0f 84 11 01 00 00    	je     ce12 <func_74+0x1cd1>
    cd01:	48 8d 05 38 63 00 00 	lea    0x6338(%rip),%rax        # 13040 <g_115>
    cd08:	48 89 85 70 ee ff ff 	mov    %rax,-0x1190(%rbp)
    cd0f:	48 8d 85 30 ec ff ff 	lea    -0x13d0(%rbp),%rax
    cd16:	48 89 85 78 ee ff ff 	mov    %rax,-0x1188(%rbp)
    cd1d:	8b 85 1c ec ff ff    	mov    -0x13e4(%rbp),%eax
    cd23:	89 c3                	mov    %eax,%ebx
    cd25:	b8 32 7a 30 24       	mov    $0x24307a32,%eax
    cd2a:	85 c0                	test   %eax,%eax
    cd2c:	75 1e                	jne    cd4c <func_74+0x1c0b>
    cd2e:	48 8b 05 03 63 00 00 	mov    0x6303(%rip),%rax        # 13038 <g_108>
    cd35:	48 83 e8 01          	sub    $0x1,%rax
    cd39:	48 89 05 f8 62 00 00 	mov    %rax,0x62f8(%rip)        # 13038 <g_108>
    cd40:	48 8b 05 f1 62 00 00 	mov    0x62f1(%rip),%rax        # 13038 <g_108>
    cd47:	48 85 c0             	test   %rax,%rax
    cd4a:	74 07                	je     cd53 <func_74+0x1c12>
    cd4c:	b8 01 00 00 00       	mov    $0x1,%eax
    cd51:	eb 05                	jmp    cd58 <func_74+0x1c17>
    cd53:	b8 00 00 00 00       	mov    $0x0,%eax
    cd58:	48 98                	cltq   
    cd5a:	48 89 c7             	mov    %rax,%rdi
    cd5d:	e8 b7 92 ff ff       	callq  6019 <safe_unary_minus_func_uint64_t_u>
    cd62:	0f b6 05 43 67 00 00 	movzbl 0x6743(%rip),%eax        # 134ac <g_507+0x4>
    cd69:	0f b6 d0             	movzbl %al,%edx
    cd6c:	48 8b 85 70 ee ff ff 	mov    -0x1190(%rbp),%rax
    cd73:	66 89 10             	mov    %dx,(%rax)
    cd76:	48 8b 85 70 ee ff ff 	mov    -0x1190(%rbp),%rax
    cd7d:	0f b7 10             	movzwl (%rax),%edx
    cd80:	48 8b 85 78 ee ff ff 	mov    -0x1188(%rbp),%rax
    cd87:	66 89 10             	mov    %dx,(%rax)
    cd8a:	48 8b 85 78 ee ff ff 	mov    -0x1188(%rbp),%rax
    cd91:	0f b7 00             	movzwl (%rax),%eax
    cd94:	66 85 c0             	test   %ax,%ax
    cd97:	75 17                	jne    cdb0 <func_74+0x1c6f>
    cd99:	0f be 95 26 ec ff ff 	movsbl -0x13da(%rbp),%edx
    cda0:	48 83 bd c8 ed ff ff 	cmpq   $0x0,-0x1238(%rbp)
    cda7:	00 
    cda8:	0f 95 c0             	setne  %al
    cdab:	0f b6 c0             	movzbl %al,%eax
    cdae:	39 c2                	cmp    %eax,%edx
    cdb0:	48 8b 85 b0 ed ff ff 	mov    -0x1250(%rbp),%rax
    cdb7:	48 8b 00             	mov    (%rax),%rax
    cdba:	48 8d 15 4f 7f 00 00 	lea    0x7f4f(%rip),%rdx        # 14d10 <g_620>
    cdc1:	48 39 d0             	cmp    %rdx,%rax
    cdc4:	0f 94 c0             	sete   %al
    cdc7:	0f b6 c0             	movzbl %al,%eax
    cdca:	89 de                	mov    %ebx,%esi
    cdcc:	89 c7                	mov    %eax,%edi
    cdce:	e8 1b 85 ff ff       	callq  52ee <safe_lshift_func_int8_t_s_u>
    cdd3:	8b 85 1c ec ff ff    	mov    -0x13e4(%rbp),%eax
    cdd9:	83 f8 01             	cmp    $0x1,%eax
    cddc:	0f 9f c0             	setg   %al
    cddf:	0f b6 d0             	movzbl %al,%edx
    cde2:	48 8b 85 70 ed ff ff 	mov    -0x1290(%rbp),%rax
    cde9:	89 10                	mov    %edx,(%rax)
    cdeb:	48 8b 85 70 ed ff ff 	mov    -0x1290(%rbp),%rax
    cdf2:	8b 10                	mov    (%rax),%edx
    cdf4:	8b 85 24 ef ff ff    	mov    -0x10dc(%rbp),%eax
    cdfa:	21 d0                	and    %edx,%eax
    cdfc:	89 85 24 ef ff ff    	mov    %eax,-0x10dc(%rbp)
    ce02:	48 8b 85 10 ec ff ff 	mov    -0x13f0(%rbp),%rax
    ce09:	8b 00                	mov    (%rax),%eax
    ce0b:	85 c0                	test   %eax,%eax
    ce0d:	e9 a3 05 00 00       	jmpq   d3b5 <func_74+0x2274>
    ce12:	8b 85 1c ec ff ff    	mov    -0x13e4(%rbp),%eax
    ce18:	25 29 a3 7d 1b       	and    $0x1b7da329,%eax
    ce1d:	89 85 1c ec ff ff    	mov    %eax,-0x13e4(%rbp)
    ce23:	48 8b 85 f0 ec ff ff 	mov    -0x1310(%rbp),%rax
    ce2a:	48 8b 95 68 ee ff ff 	mov    -0x1198(%rbp),%rdx
    ce31:	48 89 10             	mov    %rdx,(%rax)
    ce34:	e9 7c 05 00 00       	jmpq   d3b5 <func_74+0x2274>
    ce39:	48 8d 85 10 f9 ff ff 	lea    -0x6f0(%rbp),%rax
    ce40:	48 8d 15 59 76 00 00 	lea    0x7659(%rip),%rdx        # 144a0 <g_1482+0xc70>
    ce47:	b9 d8 00 00 00       	mov    $0xd8,%ecx
    ce4c:	48 89 c7             	mov    %rax,%rdi
    ce4f:	48 89 d6             	mov    %rdx,%rsi
    ce52:	f3 48 a5             	rep movsq %ds:(%rsi),%es:(%rdi)
    ce55:	c7 85 a4 ec ff ff 96 	movl   $0x1d0cad96,-0x135c(%rbp)
    ce5c:	ad 0c 1d 
    ce5f:	48 c7 85 40 f2 ff ff 	movq   $0x9,-0xdc0(%rbp)
    ce66:	09 00 00 00 
    ce6a:	48 c7 85 48 f2 ff ff 	movq   $0x9,-0xdb8(%rbp)
    ce71:	09 00 00 00 
    ce75:	48 b8 a0 5a a3 5b 95 	movabs $0xf579a9955ba35aa0,%rax
    ce7c:	a9 79 f5 
    ce7f:	48 89 85 50 f2 ff ff 	mov    %rax,-0xdb0(%rbp)
    ce86:	48 89 85 58 f2 ff ff 	mov    %rax,-0xda8(%rbp)
    ce8d:	48 c7 85 60 f2 ff ff 	movq   $0x9,-0xda0(%rbp)
    ce94:	09 00 00 00 
    ce98:	48 c7 85 68 f2 ff ff 	movq   $0x9,-0xd98(%rbp)
    ce9f:	09 00 00 00 
    cea3:	48 89 85 70 f2 ff ff 	mov    %rax,-0xd90(%rbp)
    ceaa:	48 89 85 78 f2 ff ff 	mov    %rax,-0xd88(%rbp)
    ceb1:	48 c7 85 80 f2 ff ff 	movq   $0x9,-0xd80(%rbp)
    ceb8:	09 00 00 00 
    cebc:	48 c7 85 88 f2 ff ff 	movq   $0x9,-0xd78(%rbp)
    cec3:	09 00 00 00 
    cec7:	48 89 85 90 f2 ff ff 	mov    %rax,-0xd70(%rbp)
    cece:	48 89 85 98 f2 ff ff 	mov    %rax,-0xd68(%rbp)
    ced5:	48 c7 85 a0 f2 ff ff 	movq   $0x9,-0xd60(%rbp)
    cedc:	09 00 00 00 
    cee0:	48 c7 85 a8 f2 ff ff 	movq   $0x9,-0xd58(%rbp)
    cee7:	09 00 00 00 
    ceeb:	48 89 85 b0 f2 ff ff 	mov    %rax,-0xd50(%rbp)
    cef2:	48 89 85 b8 f2 ff ff 	mov    %rax,-0xd48(%rbp)
    cef9:	48 c7 85 c0 f2 ff ff 	movq   $0x9,-0xd40(%rbp)
    cf00:	09 00 00 00 
    cf04:	48 c7 85 c8 f2 ff ff 	movq   $0x9,-0xd38(%rbp)
    cf0b:	09 00 00 00 
    cf0f:	48 89 85 d0 f2 ff ff 	mov    %rax,-0xd30(%rbp)
    cf16:	48 89 85 d8 f2 ff ff 	mov    %rax,-0xd28(%rbp)
    cf1d:	48 c7 85 e0 f2 ff ff 	movq   $0x9,-0xd20(%rbp)
    cf24:	09 00 00 00 
    cf28:	48 c7 85 e8 f2 ff ff 	movq   $0x9,-0xd18(%rbp)
    cf2f:	09 00 00 00 
    cf33:	48 89 85 f0 f2 ff ff 	mov    %rax,-0xd10(%rbp)
    cf3a:	48 89 85 f8 f2 ff ff 	mov    %rax,-0xd08(%rbp)
    cf41:	48 c7 85 00 f3 ff ff 	movq   $0x9,-0xd00(%rbp)
    cf48:	09 00 00 00 
    cf4c:	48 c7 85 08 f3 ff ff 	movq   $0x9,-0xcf8(%rbp)
    cf53:	09 00 00 00 
    cf57:	48 89 85 10 f3 ff ff 	mov    %rax,-0xcf0(%rbp)
    cf5e:	48 89 85 18 f3 ff ff 	mov    %rax,-0xce8(%rbp)
    cf65:	66 c7 85 36 ec ff ff 	movw   $0xfffe,-0x13ca(%rbp)
    cf6c:	fe ff 
    cf6e:	c7 85 a8 ec ff ff af 	movl   $0x26ffaf,-0x1358(%rbp)
    cf75:	ff 26 00 
    cf78:	c7 85 e0 ee ff ff 00 	movl   $0x0,-0x1120(%rbp)
    cf7f:	00 00 00 
    cf82:	c7 85 e4 ee ff ff 35 	movl   $0x5b9b8835,-0x111c(%rbp)
    cf89:	88 9b 5b 
    cf8c:	c7 85 e8 ee ff ff 00 	movl   $0x0,-0x1118(%rbp)
    cf93:	00 00 00 
    cf96:	c7 85 ec ee ff ff 00 	movl   $0x0,-0x1114(%rbp)
    cf9d:	00 00 00 
    cfa0:	c7 85 f0 ee ff ff 35 	movl   $0x5b9b8835,-0x1110(%rbp)
    cfa7:	88 9b 5b 
    cfaa:	c7 85 f4 ee ff ff 00 	movl   $0x0,-0x110c(%rbp)
    cfb1:	00 00 00 
    cfb4:	83 bd 0c ec ff ff 00 	cmpl   $0x0,-0x13f4(%rbp)
    cfbb:	74 2f                	je     cfec <func_74+0x1eab>
    cfbd:	48 8b 05 4c 7d 00 00 	mov    0x7d4c(%rip),%rax        # 14d10 <g_620>
    cfc4:	0f b7 00             	movzwl (%rax),%eax
    cfc7:	0f b7 d0             	movzwl %ax,%edx
    cfca:	48 8b 05 3f 7d 00 00 	mov    0x7d3f(%rip),%rax        # 14d10 <g_620>
    cfd1:	0f b7 00             	movzwl (%rax),%eax
    cfd4:	0f b7 c0             	movzwl %ax,%eax
    cfd7:	89 d6                	mov    %edx,%esi
    cfd9:	89 c7                	mov    %eax,%edi
    cfdb:	e8 7c 8d ff ff       	callq  5d5c <safe_mod_func_uint16_t_u_u>
    cfe0:	66 85 c0             	test   %ax,%ax
    cfe3:	74 07                	je     cfec <func_74+0x1eab>
    cfe5:	ba 01 00 00 00       	mov    $0x1,%edx
    cfea:	eb 05                	jmp    cff1 <func_74+0x1eb0>
    cfec:	ba 00 00 00 00       	mov    $0x0,%edx
    cff1:	8b 85 1c ec ff ff    	mov    -0x13e4(%rbp),%eax
    cff7:	09 d0                	or     %edx,%eax
    cff9:	89 85 1c ec ff ff    	mov    %eax,-0x13e4(%rbp)
    cfff:	8b 05 8f 61 00 00    	mov    0x618f(%rip),%eax        # 13194 <g_410+0x14>
    d005:	48 98                	cltq   
    d007:	48 89 05 a2 61 00 00 	mov    %rax,0x61a2(%rip)        # 131b0 <g_482>
    d00e:	48 8b 05 9b 61 00 00 	mov    0x619b(%rip),%rax        # 131b0 <g_482>
    d015:	48 85 c0             	test   %rax,%rax
    d018:	75 36                	jne    d050 <func_74+0x1f0f>
    d01a:	8b 85 a4 ec ff ff    	mov    -0x135c(%rbp),%eax
    d020:	0f b6 c0             	movzbl %al,%eax
    d023:	be 00 00 00 00       	mov    $0x0,%esi
    d028:	89 c7                	mov    %eax,%edi
    d02a:	e8 d6 8b ff ff       	callq  5c05 <safe_lshift_func_uint8_t_u_s>
    d02f:	84 c0                	test   %al,%al
    d031:	74 09                	je     d03c <func_74+0x1efb>
    d033:	0f b6 05 36 61 00 00 	movzbl 0x6136(%rip),%eax        # 13170 <g_377>
    d03a:	84 c0                	test   %al,%al
    d03c:	48 8b 85 70 ed ff ff 	mov    -0x1290(%rbp),%rax
    d043:	8b 10                	mov    (%rax),%edx
    d045:	0f bf 85 18 ec ff ff 	movswl -0x13e8(%rbp),%eax
    d04c:	39 c2                	cmp    %eax,%edx
    d04e:	7e 07                	jle    d057 <func_74+0x1f16>
    d050:	b8 01 00 00 00       	mov    $0x1,%eax
    d055:	eb 05                	jmp    d05c <func_74+0x1f1b>
    d057:	b8 00 00 00 00       	mov    $0x0,%eax
    d05c:	4c 63 e0             	movslq %eax,%r12
    d05f:	0f b7 85 18 ec ff ff 	movzwl -0x13e8(%rbp),%eax
    d066:	0f b6 d8             	movzbl %al,%ebx
    d069:	0f b6 05 0e 60 00 00 	movzbl 0x600e(%rip),%eax        # 1307e <g_290+0x1e>
    d070:	0f be d0             	movsbl %al,%edx
    d073:	0f b6 05 92 64 00 00 	movzbl 0x6492(%rip),%eax        # 1350c <g_509+0x4>
    d07a:	84 c0                	test   %al,%al
    d07c:	75 0c                	jne    d08a <func_74+0x1f49>
    d07e:	48 8b 85 c8 f2 ff ff 	mov    -0xd38(%rbp),%rax
    d085:	48 85 c0             	test   %rax,%rax
    d088:	74 07                	je     d091 <func_74+0x1f50>
    d08a:	b8 01 00 00 00       	mov    $0x1,%eax
    d08f:	eb 05                	jmp    d096 <func_74+0x1f55>
    d091:	b8 00 00 00 00       	mov    $0x0,%eax
    d096:	21 d0                	and    %edx,%eax
    d098:	85 c0                	test   %eax,%eax
    d09a:	74 11                	je     d0ad <func_74+0x1f6c>
    d09c:	8b 85 1c ec ff ff    	mov    -0x13e4(%rbp),%eax
    d0a2:	85 c0                	test   %eax,%eax
    d0a4:	74 07                	je     d0ad <func_74+0x1f6c>
    d0a6:	b8 01 00 00 00       	mov    $0x1,%eax
    d0ab:	eb 05                	jmp    d0b2 <func_74+0x1f71>
    d0ad:	b8 00 00 00 00       	mov    $0x0,%eax
    d0b2:	48 63 d0             	movslq %eax,%rdx
    d0b5:	48 8b 85 c8 f2 ff ff 	mov    -0xd38(%rbp),%rax
    d0bc:	48 39 c2             	cmp    %rax,%rdx
    d0bf:	0f 9d c0             	setge  %al
    d0c2:	0f b6 c0             	movzbl %al,%eax
    d0c5:	48 89 c7             	mov    %rax,%rdi
    d0c8:	e8 4c 8f ff ff       	callq  6019 <safe_unary_minus_func_uint64_t_u>
    d0cd:	0f b6 15 38 64 00 00 	movzbl 0x6438(%rip),%edx        # 1350c <g_509+0x4>
    d0d4:	0f b6 d2             	movzbl %dl,%edx
    d0d7:	48 09 c2             	or     %rax,%rdx
    d0da:	0f b6 05 12 60 00 00 	movzbl 0x6012(%rip),%eax        # 130f3 <g_290+0x93>
    d0e1:	48 0f be c0          	movsbq %al,%rax
    d0e5:	48 39 c2             	cmp    %rax,%rdx
    d0e8:	0f 95 c0             	setne  %al
    d0eb:	0f b6 c0             	movzbl %al,%eax
    d0ee:	89 de                	mov    %ebx,%esi
    d0f0:	89 c7                	mov    %eax,%edi
    d0f2:	e8 63 8a ff ff       	callq  5b5a <safe_add_func_uint8_t_u_u>
    d0f7:	0f b6 c0             	movzbl %al,%eax
    d0fa:	48 c7 c6 fe ff ff ff 	mov    $0xfffffffffffffffe,%rsi
    d101:	48 89 c7             	mov    %rax,%rdi
    d104:	e8 9f 87 ff ff       	callq  58a8 <safe_sub_func_int64_t_s_s>
    d109:	49 39 c4             	cmp    %rax,%r12
    d10c:	0f 8d 70 02 00 00    	jge    d382 <func_74+0x2241>
    d112:	66 c7 85 38 ec ff ff 	movw   $0xf186,-0x13c8(%rbp)
    d119:	86 f1 
    d11b:	c7 85 ac ec ff ff 68 	movl   $0x73e61968,-0x1354(%rbp)
    d122:	19 e6 73 
    d125:	48 8d 85 20 f0 ff ff 	lea    -0xfe0(%rbp),%rax
    d12c:	48 83 c0 2c          	add    $0x2c,%rax
    d130:	48 89 85 70 ef ff ff 	mov    %rax,-0x1090(%rbp)
    d137:	48 8d 85 20 f0 ff ff 	lea    -0xfe0(%rbp),%rax
    d13e:	48 83 c0 2c          	add    $0x2c,%rax
    d142:	48 89 85 78 ef ff ff 	mov    %rax,-0x1088(%rbp)
    d149:	48 8d 85 20 f0 ff ff 	lea    -0xfe0(%rbp),%rax
    d150:	48 83 c0 2c          	add    $0x2c,%rax
    d154:	48 89 85 80 ef ff ff 	mov    %rax,-0x1080(%rbp)
    d15b:	48 8d 85 20 f0 ff ff 	lea    -0xfe0(%rbp),%rax
    d162:	48 83 c0 2c          	add    $0x2c,%rax
    d166:	48 89 85 88 ef ff ff 	mov    %rax,-0x1078(%rbp)
    d16d:	48 8d 85 20 f0 ff ff 	lea    -0xfe0(%rbp),%rax
    d174:	48 83 c0 2c          	add    $0x2c,%rax
    d178:	48 89 85 90 ef ff ff 	mov    %rax,-0x1070(%rbp)
    d17f:	66 c7 85 3a ec ff ff 	movw   $0xffff,-0x13c6(%rbp)
    d186:	ff ff 
    d188:	8b 85 ac ec ff ff    	mov    -0x1354(%rbp),%eax
    d18e:	0f b6 d8             	movzbl %al,%ebx
    d191:	8b 85 ac ec ff ff    	mov    -0x1354(%rbp),%eax
    d197:	4c 63 e0             	movslq %eax,%r12
    d19a:	0f b7 85 18 ec ff ff 	movzwl -0x13e8(%rbp),%eax
    d1a1:	44 0f b6 e8          	movzbl %al,%r13d
    d1a5:	48 8d 85 40 f2 ff ff 	lea    -0xdc0(%rbp),%rax
    d1ac:	48 05 a0 00 00 00    	add    $0xa0,%rax
    d1b2:	48 39 85 88 ed ff ff 	cmp    %rax,-0x1278(%rbp)
    d1b9:	75 78                	jne    d233 <func_74+0x20f2>
    d1bb:	0f b6 05 4a 63 00 00 	movzbl 0x634a(%rip),%eax        # 1350c <g_509+0x4>
    d1c2:	0f b6 d0             	movzbl %al,%edx
    d1c5:	48 8b 0d 4c 7b 00 00 	mov    0x7b4c(%rip),%rcx        # 14d18 <g_658>
    d1cc:	48 8d 85 1c ec ff ff 	lea    -0x13e4(%rbp),%rax
    d1d3:	48 39 c1             	cmp    %rax,%rcx
    d1d6:	0f 95 c0             	setne  %al
    d1d9:	0f b6 c0             	movzbl %al,%eax
    d1dc:	48 89 d6             	mov    %rdx,%rsi
    d1df:	48 89 c7             	mov    %rax,%rdi
    d1e2:	e8 cd 87 ff ff       	callq  59b4 <safe_mod_func_int64_t_s_s>
    d1e7:	98                   	cwtl   
    d1e8:	be 0b 00 00 00       	mov    $0xb,%esi
    d1ed:	89 c7                	mov    %eax,%edi
    d1ef:	e8 9e 82 ff ff       	callq  5492 <safe_lshift_func_int16_t_s_s>
    d1f4:	0f b6 c0             	movzbl %al,%eax
    d1f7:	be 03 00 00 00       	mov    $0x3,%esi
    d1fc:	89 c7                	mov    %eax,%edi
    d1fe:	e8 02 8a ff ff       	callq  5c05 <safe_lshift_func_uint8_t_u_s>
    d203:	0f b6 05 66 5f 00 00 	movzbl 0x5f66(%rip),%eax        # 13170 <g_377>
    d20a:	0f be d0             	movsbl %al,%edx
    d20d:	48 83 bd 38 ee ff ff 	cmpq   $0x1,-0x11c8(%rbp)
    d214:	01 
    d215:	0f 94 c0             	sete   %al
    d218:	0f b6 c0             	movzbl %al,%eax
    d21b:	09 d0                	or     %edx,%eax
    d21d:	85 c0                	test   %eax,%eax
    d21f:	74 12                	je     d233 <func_74+0x20f2>
    d221:	0f b6 05 9d 5e 00 00 	movzbl 0x5e9d(%rip),%eax        # 130c5 <g_290+0x65>
    d228:	84 c0                	test   %al,%al
    d22a:	74 07                	je     d233 <func_74+0x20f2>
    d22c:	b8 01 00 00 00       	mov    $0x1,%eax
    d231:	eb 05                	jmp    d238 <func_74+0x20f7>
    d233:	b8 00 00 00 00       	mov    $0x0,%eax
    d238:	66 89 85 38 ec ff ff 	mov    %ax,-0x13c8(%rbp)
    d23f:	44 89 ee             	mov    %r13d,%esi
    d242:	bf 00 00 00 00       	mov    $0x0,%edi
    d247:	e8 47 89 ff ff       	callq  5b93 <safe_mul_func_uint8_t_u_u>
    d24c:	0f b6 c0             	movzbl %al,%eax
    d24f:	0b 85 ac ec ff ff    	or     -0x1354(%rbp),%eax
    d255:	48 98                	cltq   
    d257:	4c 89 e6             	mov    %r12,%rsi
    d25a:	48 89 c7             	mov    %rax,%rdi
    d25d:	e8 df 85 ff ff       	callq  5841 <safe_add_func_int64_t_s_s>
    d262:	0f b7 c0             	movzwl %ax,%eax
    d265:	be 0e 00 00 00       	mov    $0xe,%esi
    d26a:	89 c7                	mov    %eax,%edi
    d26c:	e8 d7 8b ff ff       	callq  5e48 <safe_rshift_func_uint16_t_u_s>
    d271:	0f b7 c0             	movzwl %ax,%eax
    d274:	83 e0 32             	and    $0x32,%eax
    d277:	39 85 0c ec ff ff    	cmp    %eax,-0x13f4(%rbp)
    d27d:	0f 97 c0             	seta   %al
    d280:	0f b6 c0             	movzbl %al,%eax
    d283:	66 89 85 3a ec ff ff 	mov    %ax,-0x13c6(%rbp)
    d28a:	8b 85 4c f0 ff ff    	mov    -0xfb4(%rbp),%eax
    d290:	0f b6 c0             	movzbl %al,%eax
    d293:	89 de                	mov    %ebx,%esi
    d295:	89 c7                	mov    %eax,%edi
    d297:	e8 dc 88 ff ff       	callq  5b78 <safe_sub_func_uint8_t_u_u>
    d29c:	8b 05 a2 5d 00 00    	mov    0x5da2(%rip),%eax        # 13044 <g_126>
    d2a2:	98                   	cwtl   
    d2a3:	be 04 00 00 00       	mov    $0x4,%esi
    d2a8:	89 c7                	mov    %eax,%edi
    d2aa:	e8 e3 81 ff ff       	callq  5492 <safe_lshift_func_int16_t_s_s>
    d2af:	98                   	cwtl   
    d2b0:	89 85 1c ec ff ff    	mov    %eax,-0x13e4(%rbp)
    d2b6:	0f b7 85 36 ec ff ff 	movzwl -0x13ca(%rbp),%eax
    d2bd:	0f be d8             	movsbl %al,%ebx
    d2c0:	0f bf 85 3a ec ff ff 	movswl -0x13c6(%rbp),%eax
    d2c7:	89 c6                	mov    %eax,%esi
    d2c9:	bf 08 00 00 00       	mov    $0x8,%edi
    d2ce:	e8 52 8c ff ff       	callq  5f25 <safe_div_func_uint32_t_u_u>
    d2d3:	8b 95 a4 ec ff ff    	mov    -0x135c(%rbp),%edx
    d2d9:	31 d0                	xor    %edx,%eax
    d2db:	89 c2                	mov    %eax,%edx
    d2dd:	48 8b 85 70 ed ff ff 	mov    -0x1290(%rbp),%rax
    d2e4:	89 10                	mov    %edx,(%rax)
    d2e6:	48 8b 85 70 ed ff ff 	mov    -0x1290(%rbp),%rax
    d2ed:	44 8b 20             	mov    (%rax),%r12d
    d2f0:	0f b6 85 dc ef ff ff 	movzbl -0x1024(%rbp),%eax
    d2f7:	3c 01                	cmp    $0x1,%al
    d2f9:	0f 96 c0             	setbe  %al
    d2fc:	0f b6 d0             	movzbl %al,%edx
    d2ff:	0f b7 85 18 ec ff ff 	movzwl -0x13e8(%rbp),%eax
    d306:	0f be c0             	movsbl %al,%eax
    d309:	89 d6                	mov    %edx,%esi
    d30b:	89 c7                	mov    %eax,%edi
    d30d:	e8 00 7f ff ff       	callq  5212 <safe_mul_func_int8_t_s_s>
    d312:	0f be c0             	movsbl %al,%eax
    d315:	41 39 c4             	cmp    %eax,%r12d
    d318:	0f 9c c0             	setl   %al
    d31b:	0f b6 d0             	movzbl %al,%edx
    d31e:	0f b6 05 23 5d 00 00 	movzbl 0x5d23(%rip),%eax        # 13048 <g_175>
    d325:	0f be c0             	movsbl %al,%eax
    d328:	89 d6                	mov    %edx,%esi
    d32a:	89 c7                	mov    %eax,%edi
    d32c:	e8 04 80 ff ff       	callq  5335 <safe_rshift_func_int8_t_s_s>
    d331:	0f be c0             	movsbl %al,%eax
    d334:	be 07 48 00 00       	mov    $0x4807,%esi
    d339:	89 c7                	mov    %eax,%edi
    d33b:	e8 93 80 ff ff       	callq  53d3 <safe_sub_func_int16_t_s_s>
    d340:	0f be c0             	movsbl %al,%eax
    d343:	89 de                	mov    %ebx,%esi
    d345:	89 c7                	mov    %eax,%edi
    d347:	e8 c6 7e ff ff       	callq  5212 <safe_mul_func_int8_t_s_s>
    d34c:	0f be d0             	movsbl %al,%edx
    d34f:	8b 85 1c ec ff ff    	mov    -0x13e4(%rbp),%eax
    d355:	31 d0                	xor    %edx,%eax
    d357:	89 85 1c ec ff ff    	mov    %eax,-0x13e4(%rbp)
    d35d:	8b 85 0c ec ff ff    	mov    -0x13f4(%rbp),%eax
    d363:	89 c6                	mov    %eax,%esi
    d365:	bf fd 00 00 00       	mov    $0xfd,%edi
    d36a:	e8 4f 89 ff ff       	callq  5cbe <safe_rshift_func_uint8_t_u_u>
    d36f:	0f b6 d0             	movzbl %al,%edx
    d372:	8b 85 1c ec ff ff    	mov    -0x13e4(%rbp),%eax
    d378:	09 d0                	or     %edx,%eax
    d37a:	89 85 1c ec ff ff    	mov    %eax,-0x13e4(%rbp)
    d380:	eb 29                	jmp    d3ab <func_74+0x226a>
    d382:	48 8d 05 9f 5c 00 00 	lea    0x5c9f(%rip),%rax        # 13028 <g_34>
    d389:	48 89 85 50 ee ff ff 	mov    %rax,-0x11b0(%rbp)
    d390:	48 8b 85 50 ee ff ff 	mov    -0x11b0(%rbp),%rax
    d397:	48 89 85 10 ec ff ff 	mov    %rax,-0x13f0(%rbp)
    d39e:	48 8b 85 10 ec ff ff 	mov    -0x13f0(%rbp),%rax
    d3a5:	8b 00                	mov    (%rax),%eax
    d3a7:	85 c0                	test   %eax,%eax
    d3a9:	75 09                	jne    d3b4 <func_74+0x2273>
    d3ab:	83 85 58 ec ff ff 01 	addl   $0x1,-0x13a8(%rbp)
    d3b2:	eb 01                	jmp    d3b5 <func_74+0x2274>
    d3b4:	90                   	nop
    d3b5:	8b 05 b1 5d 00 00    	mov    0x5db1(%rip),%eax        # 1316c <g_358>
    d3bb:	83 e8 01             	sub    $0x1,%eax
    d3be:	89 05 a8 5d 00 00    	mov    %eax,0x5da8(%rip)        # 1316c <g_358>
    d3c4:	8b 05 a2 5d 00 00    	mov    0x5da2(%rip),%eax        # 1316c <g_358>
    d3ca:	85 c0                	test   %eax,%eax
    d3cc:	0f 89 32 f0 ff ff    	jns    c404 <func_74+0x12c3>
    d3d2:	c7 85 44 ec ff ff 00 	movl   $0x0,-0x13bc(%rbp)
    d3d9:	00 00 00 
    d3dc:	e9 6a 08 00 00       	jmpq   dc4b <func_74+0x2b0a>
    d3e1:	48 8d 85 3c ec ff ff 	lea    -0x13c4(%rbp),%rax
    d3e8:	48 89 85 d8 ed ff ff 	mov    %rax,-0x1228(%rbp)
    d3ef:	c7 85 88 ec ff ff 61 	movl   $0xcaf0de61,-0x1378(%rbp)
    d3f6:	de f0 ca 
    d3f9:	c7 85 8c ec ff ff ff 	movl   $0xffffffff,-0x1374(%rbp)
    d400:	ff ff ff 
    d403:	c7 85 90 ec ff ff 00 	movl   $0x0,-0x1370(%rbp)
    d40a:	00 00 00 
    d40d:	48 c7 85 e0 ed ff ff 	movq   $0x0,-0x1220(%rbp)
    d414:	00 00 00 00 
    d418:	48 8d 85 40 f6 ff ff 	lea    -0x9c0(%rbp),%rax
    d41f:	48 05 e8 01 00 00    	add    $0x1e8,%rax
    d425:	48 89 85 e8 ed ff ff 	mov    %rax,-0x1218(%rbp)
    d42c:	48 8b 85 58 ed ff ff 	mov    -0x12a8(%rbp),%rax
    d433:	48 8b 95 d8 ed ff ff 	mov    -0x1228(%rbp),%rdx
    d43a:	48 89 10             	mov    %rdx,(%rax)
    d43d:	48 8b 85 d8 ed ff ff 	mov    -0x1228(%rbp),%rax
    d444:	8b 00                	mov    (%rax),%eax
    d446:	85 c0                	test   %eax,%eax
    d448:	0f 85 f2 07 00 00    	jne    dc40 <func_74+0x2aff>
    d44e:	8b 85 0c ec ff ff    	mov    -0x13f4(%rbp),%eax
    d454:	89 c6                	mov    %eax,%esi
    d456:	bf 01 00 00 00       	mov    $0x1,%edi
    d45b:	e8 8e 7e ff ff       	callq  52ee <safe_lshift_func_int8_t_s_u>
    d460:	84 c0                	test   %al,%al
    d462:	0f 84 97 07 00 00    	je     dbff <func_74+0x2abe>
    d468:	48 8d 85 2e ec ff ff 	lea    -0x13d2(%rbp),%rax
    d46f:	48 89 85 f8 ed ff ff 	mov    %rax,-0x1208(%rbp)
    d476:	48 8d 85 20 ed ff ff 	lea    -0x12e0(%rbp),%rax
    d47d:	48 89 85 00 ee ff ff 	mov    %rax,-0x1200(%rbp)
    d484:	48 c7 85 08 ee ff ff 	movq   $0x0,-0x11f8(%rbp)
    d48b:	00 00 00 00 
    d48f:	c7 85 64 ec ff ff 2f 	movl   $0xe4f1fc2f,-0x139c(%rbp)
    d496:	fc f1 e4 
    d499:	48 8d 05 10 5d 00 00 	lea    0x5d10(%rip),%rax        # 131b0 <g_482>
    d4a0:	48 89 85 a0 f0 ff ff 	mov    %rax,-0xf60(%rbp)
    d4a7:	48 8d 05 02 5d 00 00 	lea    0x5d02(%rip),%rax        # 131b0 <g_482>
    d4ae:	48 89 85 a8 f0 ff ff 	mov    %rax,-0xf58(%rbp)
    d4b5:	48 8d 85 d0 ec ff ff 	lea    -0x1330(%rbp),%rax
    d4bc:	48 89 85 b0 f0 ff ff 	mov    %rax,-0xf50(%rbp)
    d4c3:	48 8d 05 e6 5c 00 00 	lea    0x5ce6(%rip),%rax        # 131b0 <g_482>
    d4ca:	48 89 85 b8 f0 ff ff 	mov    %rax,-0xf48(%rbp)
    d4d1:	48 8d 05 d8 5c 00 00 	lea    0x5cd8(%rip),%rax        # 131b0 <g_482>
    d4d8:	48 89 85 c0 f0 ff ff 	mov    %rax,-0xf40(%rbp)
    d4df:	48 8d 85 d0 ec ff ff 	lea    -0x1330(%rbp),%rax
    d4e6:	48 89 85 c8 f0 ff ff 	mov    %rax,-0xf38(%rbp)
    d4ed:	c7 85 10 f9 ff ff 00 	movl   $0x0,-0x6f0(%rbp)
    d4f4:	00 00 00 
    d4f7:	c7 85 14 f9 ff ff 01 	movl   $0x1,-0x6ec(%rbp)
    d4fe:	00 00 00 
    d501:	c7 85 18 f9 ff ff 00 	movl   $0x0,-0x6e8(%rbp)
    d508:	00 00 00 
    d50b:	c7 85 1c f9 ff ff 01 	movl   $0x1,-0x6e4(%rbp)
    d512:	00 00 00 
    d515:	c7 85 20 f9 ff ff 00 	movl   $0x0,-0x6e0(%rbp)
    d51c:	00 00 00 
    d51f:	c7 85 24 f9 ff ff ff 	movl   $0xffffffff,-0x6dc(%rbp)
    d526:	ff ff ff 
    d529:	c7 85 28 f9 ff ff ff 	movl   $0xffffffff,-0x6d8(%rbp)
    d530:	ff ff ff 
    d533:	c7 85 2c f9 ff ff ff 	movl   $0xffffffff,-0x6d4(%rbp)
    d53a:	ff ff ff 
    d53d:	c7 85 30 f9 ff ff ff 	movl   $0xffffffff,-0x6d0(%rbp)
    d544:	ff ff ff 
    d547:	c7 85 34 f9 ff ff ff 	movl   $0xffffffff,-0x6cc(%rbp)
    d54e:	ff ff ff 
    d551:	c7 85 38 f9 ff ff 00 	movl   $0x0,-0x6c8(%rbp)
    d558:	00 00 00 
    d55b:	c7 85 3c f9 ff ff 01 	movl   $0x1,-0x6c4(%rbp)
    d562:	00 00 00 
    d565:	c7 85 40 f9 ff ff 00 	movl   $0x0,-0x6c0(%rbp)
    d56c:	00 00 00 
    d56f:	c7 85 44 f9 ff ff 01 	movl   $0x1,-0x6bc(%rbp)
    d576:	00 00 00 
    d579:	c7 85 48 f9 ff ff 00 	movl   $0x0,-0x6b8(%rbp)
    d580:	00 00 00 
    d583:	c7 85 4c f9 ff ff ff 	movl   $0xffffffff,-0x6b4(%rbp)
    d58a:	ff ff ff 
    d58d:	c7 85 50 f9 ff ff ff 	movl   $0xffffffff,-0x6b0(%rbp)
    d594:	ff ff ff 
    d597:	c7 85 54 f9 ff ff ff 	movl   $0xffffffff,-0x6ac(%rbp)
    d59e:	ff ff ff 
    d5a1:	c7 85 58 f9 ff ff ff 	movl   $0xffffffff,-0x6a8(%rbp)
    d5a8:	ff ff ff 
    d5ab:	c7 85 5c f9 ff ff ff 	movl   $0xffffffff,-0x6a4(%rbp)
    d5b2:	ff ff ff 
    d5b5:	c7 85 60 f9 ff ff 00 	movl   $0x0,-0x6a0(%rbp)
    d5bc:	00 00 00 
    d5bf:	c7 85 64 f9 ff ff 01 	movl   $0x1,-0x69c(%rbp)
    d5c6:	00 00 00 
    d5c9:	c7 85 68 f9 ff ff 00 	movl   $0x0,-0x698(%rbp)
    d5d0:	00 00 00 
    d5d3:	c7 85 6c f9 ff ff 01 	movl   $0x1,-0x694(%rbp)
    d5da:	00 00 00 
    d5dd:	c7 85 70 f9 ff ff 00 	movl   $0x0,-0x690(%rbp)
    d5e4:	00 00 00 
    d5e7:	c7 85 74 f9 ff ff ff 	movl   $0xffffffff,-0x68c(%rbp)
    d5ee:	ff ff ff 
    d5f1:	c7 85 78 f9 ff ff ff 	movl   $0xffffffff,-0x688(%rbp)
    d5f8:	ff ff ff 
    d5fb:	c7 85 7c f9 ff ff ff 	movl   $0xffffffff,-0x684(%rbp)
    d602:	ff ff ff 
    d605:	c7 85 80 f9 ff ff ff 	movl   $0xffffffff,-0x680(%rbp)
    d60c:	ff ff ff 
    d60f:	c7 85 84 f9 ff ff ff 	movl   $0xffffffff,-0x67c(%rbp)
    d616:	ff ff ff 
    d619:	c7 85 88 f9 ff ff 00 	movl   $0x0,-0x678(%rbp)
    d620:	00 00 00 
    d623:	c7 85 8c f9 ff ff 01 	movl   $0x1,-0x674(%rbp)
    d62a:	00 00 00 
    d62d:	c7 85 90 f9 ff ff 00 	movl   $0x0,-0x670(%rbp)
    d634:	00 00 00 
    d637:	c7 85 94 f9 ff ff 01 	movl   $0x1,-0x66c(%rbp)
    d63e:	00 00 00 
    d641:	c7 85 98 f9 ff ff 00 	movl   $0x0,-0x668(%rbp)
    d648:	00 00 00 
    d64b:	c7 85 9c f9 ff ff ff 	movl   $0xffffffff,-0x664(%rbp)
    d652:	ff ff ff 
    d655:	c7 85 a0 f9 ff ff ff 	movl   $0xffffffff,-0x660(%rbp)
    d65c:	ff ff ff 
    d65f:	c7 85 a4 f9 ff ff ff 	movl   $0xffffffff,-0x65c(%rbp)
    d666:	ff ff ff 
    d669:	c7 85 a8 f9 ff ff ff 	movl   $0xffffffff,-0x658(%rbp)
    d670:	ff ff ff 
    d673:	c7 85 ac f9 ff ff ff 	movl   $0xffffffff,-0x654(%rbp)
    d67a:	ff ff ff 
    d67d:	c7 85 94 ec ff ff d0 	movl   $0x42a539d0,-0x136c(%rbp)
    d684:	39 a5 42 
    d687:	c7 85 68 ec ff ff 00 	movl   $0x0,-0x1398(%rbp)
    d68e:	00 00 00 
    d691:	eb 46                	jmp    d6d9 <func_74+0x2598>
    d693:	c7 85 6c ec ff ff 00 	movl   $0x0,-0x1394(%rbp)
    d69a:	00 00 00 
    d69d:	eb 2a                	jmp    d6c9 <func_74+0x2588>
    d69f:	8b 85 6c ec ff ff    	mov    -0x1394(%rbp),%eax
    d6a5:	48 63 d0             	movslq %eax,%rdx
    d6a8:	8b 85 68 ec ff ff    	mov    -0x1398(%rbp),%eax
    d6ae:	48 98                	cltq   
    d6b0:	48 01 d0             	add    %rdx,%rax
    d6b3:	48 8d 15 b2 5a 00 00 	lea    0x5ab2(%rip),%rdx        # 1316c <g_358>
    d6ba:	48 89 94 c5 20 f0 ff 	mov    %rdx,-0xfe0(%rbp,%rax,8)
    d6c1:	ff 
    d6c2:	83 85 6c ec ff ff 01 	addl   $0x1,-0x1394(%rbp)
    d6c9:	83 bd 6c ec ff ff 00 	cmpl   $0x0,-0x1394(%rbp)
    d6d0:	7e cd                	jle    d69f <func_74+0x255e>
    d6d2:	83 85 68 ec ff ff 01 	addl   $0x1,-0x1398(%rbp)
    d6d9:	83 bd 68 ec ff ff 00 	cmpl   $0x0,-0x1398(%rbp)
    d6e0:	7e b1                	jle    d693 <func_74+0x2552>
    d6e2:	0f b6 05 5f 59 00 00 	movzbl 0x595f(%rip),%eax        # 13048 <g_175>
    d6e9:	0f be c0             	movsbl %al,%eax
    d6ec:	89 c7                	mov    %eax,%edi
    d6ee:	e8 cc 7a ff ff       	callq  51bf <safe_unary_minus_func_int8_t_s>
    d6f3:	0f be c0             	movsbl %al,%eax
    d6f6:	89 85 1c ec ff ff    	mov    %eax,-0x13e4(%rbp)
    d6fc:	8b 85 88 ec ff ff    	mov    -0x1378(%rbp),%eax
    d702:	0f b6 d8             	movzbl %al,%ebx
    d705:	0f b6 05 fa 59 00 00 	movzbl 0x59fa(%rip),%eax        # 13106 <g_290+0xa6>
    d70c:	44 0f be e0          	movsbl %al,%r12d
    d710:	48 8b 85 f8 ed ff ff 	mov    -0x1208(%rbp),%rax
    d717:	0f b7 00             	movzwl (%rax),%eax
    d71a:	8b 15 0c 59 00 00    	mov    0x590c(%rip),%edx        # 1302c <g_45>
    d720:	21 c2                	and    %eax,%edx
    d722:	48 8b 85 f8 ed ff ff 	mov    -0x1208(%rbp),%rax
    d729:	66 89 10             	mov    %dx,(%rax)
    d72c:	48 8b 05 dd 75 00 00 	mov    0x75dd(%rip),%rax        # 14d10 <g_620>
    d733:	0f b7 00             	movzwl (%rax),%eax
    d736:	66 85 c0             	test   %ax,%ax
    d739:	0f 84 0e 01 00 00    	je     d84d <func_74+0x270c>
    d73f:	48 8b 95 20 ed ff ff 	mov    -0x12e0(%rbp),%rdx
    d746:	48 8b 85 00 ee ff ff 	mov    -0x1200(%rbp),%rax
    d74d:	48 89 10             	mov    %rdx,(%rax)
    d750:	48 8b 85 00 ee ff ff 	mov    -0x1200(%rbp),%rax
    d757:	48 8b 00             	mov    (%rax),%rax
    d75a:	48 85 c0             	test   %rax,%rax
    d75d:	0f 95 c0             	setne  %al
    d760:	0f b6 c0             	movzbl %al,%eax
    d763:	be 04 00 00 00       	mov    $0x4,%esi
    d768:	89 c7                	mov    %eax,%edi
    d76a:	e8 c6 7b ff ff       	callq  5335 <safe_rshift_func_int8_t_s_s>
    d76f:	84 c0                	test   %al,%al
    d771:	74 11                	je     d784 <func_74+0x2643>
    d773:	66 83 bd 18 ec ff ff 	cmpw   $0x0,-0x13e8(%rbp)
    d77a:	00 
    d77b:	74 07                	je     d784 <func_74+0x2643>
    d77d:	b8 01 00 00 00       	mov    $0x1,%eax
    d782:	eb 05                	jmp    d789 <func_74+0x2648>
    d784:	b8 00 00 00 00       	mov    $0x0,%eax
    d789:	41 89 c6             	mov    %eax,%r14d
    d78c:	48 8b 85 10 ec ff ff 	mov    -0x13f0(%rbp),%rax
    d793:	8b 00                	mov    (%rax),%eax
    d795:	41 89 c5             	mov    %eax,%r13d
    d798:	0f b6 05 d2 59 00 00 	movzbl 0x59d2(%rip),%eax        # 13171 <g_384>
    d79f:	0f b6 d0             	movzbl %al,%edx
    d7a2:	8b 85 84 ec ff ff    	mov    -0x137c(%rbp),%eax
    d7a8:	48 98                	cltq   
    d7aa:	48 89 d6             	mov    %rdx,%rsi
    d7ad:	48 89 c7             	mov    %rax,%rdi
    d7b0:	e8 79 88 ff ff       	callq  602e <safe_add_func_uint64_t_u_u>
    d7b5:	89 c1                	mov    %eax,%ecx
    d7b7:	48 8b 85 50 ed ff ff 	mov    -0x12b0(%rbp),%rax
    d7be:	48 8b 00             	mov    (%rax),%rax
    d7c1:	8b 10                	mov    (%rax),%edx
    d7c3:	83 ea 01             	sub    $0x1,%edx
    d7c6:	89 10                	mov    %edx,(%rax)
    d7c8:	8b 00                	mov    (%rax),%eax
    d7ca:	89 ce                	mov    %ecx,%esi
    d7cc:	89 c7                	mov    %eax,%edi
    d7ce:	e8 52 87 ff ff       	callq  5f25 <safe_div_func_uint32_t_u_u>
    d7d3:	0f b6 05 63 59 00 00 	movzbl 0x5963(%rip),%eax        # 1313d <g_290+0xdd>
    d7da:	0f be c0             	movsbl %al,%eax
    d7dd:	09 85 64 ec ff ff    	or     %eax,-0x139c(%rbp)
    d7e3:	8b 85 1c ec ff ff    	mov    -0x13e4(%rbp),%eax
    d7e9:	f7 d0                	not    %eax
    d7eb:	89 c2                	mov    %eax,%edx
    d7ed:	0f b6 05 7d 59 00 00 	movzbl 0x597d(%rip),%eax        # 13171 <g_384>
    d7f4:	0f b6 c0             	movzbl %al,%eax
    d7f7:	09 d0                	or     %edx,%eax
    d7f9:	48 98                	cltq   
    d7fb:	48 89 05 ae 59 00 00 	mov    %rax,0x59ae(%rip)        # 131b0 <g_482>
    d802:	48 c7 05 1b 5d 00 00 	movq   $0x0,0x5d1b(%rip)        # 13528 <g_720>
    d809:	00 00 00 00 
    d80d:	48 8b 05 14 5d 00 00 	mov    0x5d14(%rip),%rax        # 13528 <g_720>
    d814:	44 89 ee             	mov    %r13d,%esi
    d817:	89 c7                	mov    %eax,%edi
    d819:	e8 df 86 ff ff       	callq  5efd <safe_mod_func_uint32_t_u_u>
    d81e:	41 39 c6             	cmp    %eax,%r14d
    d821:	0f 97 c0             	seta   %al
    d824:	0f b6 c0             	movzbl %al,%eax
    d827:	be 06 00 00 00       	mov    $0x6,%esi
    d82c:	89 c7                	mov    %eax,%edi
    d82e:	e8 bf 79 ff ff       	callq  51f2 <safe_sub_func_int8_t_s_s>
    d833:	ba 01 00 00 00       	mov    $0x1,%edx
    d838:	48 8b 85 70 ed ff ff 	mov    -0x1290(%rbp),%rax
    d83f:	8b 00                	mov    (%rax),%eax
    d841:	31 c2                	xor    %eax,%edx
    d843:	48 8b 85 70 ed ff ff 	mov    -0x1290(%rbp),%rax
    d84a:	89 10                	mov    %edx,(%rax)
    d84c:	90                   	nop
    d84d:	44 89 e6             	mov    %r12d,%esi
    d850:	bf 66 00 00 00       	mov    $0x66,%edi
    d855:	e8 33 84 ff ff       	callq  5c8d <safe_rshift_func_uint8_t_u_s>
    d85a:	0f b6 c0             	movzbl %al,%eax
    d85d:	be 06 00 00 00       	mov    $0x6,%esi
    d862:	89 c7                	mov    %eax,%edi
    d864:	e8 9c 83 ff ff       	callq  5c05 <safe_lshift_func_uint8_t_u_s>
    d869:	0f b6 c0             	movzbl %al,%eax
    d86c:	89 de                	mov    %ebx,%esi
    d86e:	89 c7                	mov    %eax,%edi
    d870:	e8 03 83 ff ff       	callq  5b78 <safe_sub_func_uint8_t_u_u>
    d875:	84 c0                	test   %al,%al
    d877:	0f 84 0c 01 00 00    	je     d989 <func_74+0x2848>
    d87d:	c7 85 9c ec ff ff 00 	movl   $0x0,-0x1364(%rbp)
    d884:	00 00 00 
    d887:	c7 85 a0 ec ff ff 05 	movl   $0x5,-0x1360(%rbp)
    d88e:	00 00 00 
    d891:	48 8d 05 98 5c 00 00 	lea    0x5c98(%rip),%rax        # 13530 <g_741>
    d898:	48 89 85 20 ee ff ff 	mov    %rax,-0x11e0(%rbp)
    d89f:	83 ad 94 ec ff ff 01 	subl   $0x1,-0x136c(%rbp)
    d8a6:	8b 85 2c f9 ff ff    	mov    -0x6d4(%rbp),%eax
    d8ac:	0f bf d8             	movswl %ax,%ebx
    d8af:	8b 85 40 f9 ff ff    	mov    -0x6c0(%rbp),%eax
    d8b5:	85 c0                	test   %eax,%eax
    d8b7:	74 14                	je     d8cd <func_74+0x278c>
    d8b9:	48 8b 85 70 ed ff ff 	mov    -0x1290(%rbp),%rax
    d8c0:	8b 00                	mov    (%rax),%eax
    d8c2:	85 c0                	test   %eax,%eax
    d8c4:	74 07                	je     d8cd <func_74+0x278c>
    d8c6:	b8 01 00 00 00       	mov    $0x1,%eax
    d8cb:	eb 05                	jmp    d8d2 <func_74+0x2791>
    d8cd:	b8 00 00 00 00       	mov    $0x0,%eax
    d8d2:	89 c2                	mov    %eax,%edx
    d8d4:	48 8b 85 f8 ed ff ff 	mov    -0x1208(%rbp),%rax
    d8db:	66 89 10             	mov    %dx,(%rax)
    d8de:	48 8b 85 f8 ed ff ff 	mov    -0x1208(%rbp),%rax
    d8e5:	0f b7 00             	movzwl (%rax),%eax
    d8e8:	44 0f bf e0          	movswl %ax,%r12d
    d8ec:	48 8b 05 cd 73 00 00 	mov    0x73cd(%rip),%rax        # 14cc0 <g_502+0xa0>
    d8f3:	48 89 85 20 ee ff ff 	mov    %rax,-0x11e0(%rbp)
    d8fa:	48 8b 05 bf 73 00 00 	mov    0x73bf(%rip),%rax        # 14cc0 <g_502+0xa0>
    d901:	48 39 85 20 ee ff ff 	cmp    %rax,-0x11e0(%rbp)
    d908:	0f 95 c0             	setne  %al
    d90b:	0f b6 c0             	movzbl %al,%eax
    d90e:	be 3a ea 80 94       	mov    $0x9480ea3a,%esi
    d913:	89 c7                	mov    %eax,%edi
    d915:	e8 eb 7c ff ff       	callq  5605 <safe_sub_func_int32_t_s_s>
    d91a:	41 89 c5             	mov    %eax,%r13d
    d91d:	0f b7 85 18 ec ff ff 	movzwl -0x13e8(%rbp),%eax
    d924:	0f be c0             	movsbl %al,%eax
    d927:	89 c6                	mov    %eax,%esi
    d929:	bf eb ff ff ff       	mov    $0xffffffeb,%edi
    d92e:	e8 df 78 ff ff       	callq  5212 <safe_mul_func_int8_t_s_s>
    d933:	84 c0                	test   %al,%al
    d935:	0f 94 c0             	sete   %al
    d938:	0f b6 c0             	movzbl %al,%eax
    d93b:	41 39 c5             	cmp    %eax,%r13d
    d93e:	0f 9e c0             	setle  %al
    d941:	0f b6 c0             	movzbl %al,%eax
    d944:	89 c6                	mov    %eax,%esi
    d946:	bf 01 00 00 00       	mov    $0x1,%edi
    d94b:	e8 43 82 ff ff       	callq  5b93 <safe_mul_func_uint8_t_u_u>
    d950:	0f b6 c0             	movzbl %al,%eax
    d953:	44 89 e6             	mov    %r12d,%esi
    d956:	89 c7                	mov    %eax,%edi
    d958:	e8 76 7a ff ff       	callq  53d3 <safe_sub_func_int16_t_s_s>
    d95d:	0f be c0             	movsbl %al,%eax
    d960:	be 03 00 00 00       	mov    $0x3,%esi
    d965:	89 c7                	mov    %eax,%edi
    d967:	e8 35 79 ff ff       	callq  52a1 <safe_lshift_func_int8_t_s_s>
    d96c:	0f be c0             	movsbl %al,%eax
    d96f:	89 de                	mov    %ebx,%esi
    d971:	89 c7                	mov    %eax,%edi
    d973:	e8 dd 7a ff ff       	callq  5455 <safe_div_func_int16_t_s_s>
    d978:	0f bf d0             	movswl %ax,%edx
    d97b:	48 8b 85 d8 ed ff ff 	mov    -0x1228(%rbp),%rax
    d982:	89 10                	mov    %edx,(%rax)
    d984:	e9 67 02 00 00       	jmpq   dbf0 <func_74+0x2aaf>
    d989:	48 8d 85 98 ee ff ff 	lea    -0x1168(%rbp),%rax
    d990:	48 89 85 10 ee ff ff 	mov    %rax,-0x11f0(%rbp)
    d997:	48 8d 85 2e ec ff ff 	lea    -0x13d2(%rbp),%rax
    d99e:	48 89 85 18 ee ff ff 	mov    %rax,-0x11e8(%rbp)
    d9a5:	48 c7 85 40 f2 ff ff 	movq   $0x0,-0xdc0(%rbp)
    d9ac:	00 00 00 00 
    d9b0:	48 c7 85 48 f2 ff ff 	movq   $0x0,-0xdb8(%rbp)
    d9b7:	00 00 00 00 
    d9bb:	48 c7 85 50 f2 ff ff 	movq   $0x0,-0xdb0(%rbp)
    d9c2:	00 00 00 00 
    d9c6:	48 c7 85 58 f2 ff ff 	movq   $0x0,-0xda8(%rbp)
    d9cd:	00 00 00 00 
    d9d1:	48 c7 85 60 f2 ff ff 	movq   $0x0,-0xda0(%rbp)
    d9d8:	00 00 00 00 
    d9dc:	48 c7 85 68 f2 ff ff 	movq   $0x0,-0xd98(%rbp)
    d9e3:	00 00 00 00 
    d9e7:	48 c7 85 70 f2 ff ff 	movq   $0x0,-0xd90(%rbp)
    d9ee:	00 00 00 00 
    d9f2:	c7 85 98 ec ff ff 9e 	movl   $0xf86c259e,-0x1368(%rbp)
    d9f9:	25 6c f8 
    d9fc:	8b 05 26 56 00 00    	mov    0x5626(%rip),%eax        # 13028 <g_34>
    da02:	0f b6 d8             	movzbl %al,%ebx
    da05:	48 8d 05 04 73 00 00 	lea    0x7304(%rip),%rax        # 14d10 <g_620>
    da0c:	48 8b 00             	mov    (%rax),%rax
    da0f:	0f b7 95 18 ec ff ff 	movzwl -0x13e8(%rbp),%edx
    da16:	66 89 10             	mov    %dx,(%rax)
    da19:	8b 85 0c ec ff ff    	mov    -0x13f4(%rbp),%eax
    da1f:	44 0f bf e0          	movswl %ax,%r12d
    da23:	48 8d 05 42 57 00 00 	lea    0x5742(%rip),%rax        # 1316c <g_358>
    da2a:	48 39 85 10 ee ff ff 	cmp    %rax,-0x11f0(%rbp)
    da31:	0f 84 9d 00 00 00    	je     dad4 <func_74+0x2993>
    da37:	44 8b ad 0c ec ff ff 	mov    -0x13f4(%rbp),%r13d
    da3e:	48 8b 05 33 71 00 00 	mov    0x7133(%rip),%rax        # 14b78 <g_162>
    da45:	8b 00                	mov    (%rax),%eax
    da47:	41 89 c6             	mov    %eax,%r14d
    da4a:	0f b6 05 cb 5a 00 00 	movzbl 0x5acb(%rip),%eax        # 1351c <g_618+0x4>
    da51:	0f be c0             	movsbl %al,%eax
    da54:	89 c6                	mov    %eax,%esi
    da56:	bf 01 00 00 00       	mov    $0x1,%edi
    da5b:	e8 d1 77 ff ff       	callq  5231 <safe_mod_func_int8_t_s_s>
    da60:	48 8b 05 a1 71 00 00 	mov    0x71a1(%rip),%rax        # 14c08 <g_355>
    da67:	48 8b 00             	mov    (%rax),%rax
    da6a:	48 39 85 18 ee ff ff 	cmp    %rax,-0x11e8(%rbp)
    da71:	0f 95 c0             	setne  %al
    da74:	0f b6 c0             	movzbl %al,%eax
    da77:	89 85 a4 ee ff ff    	mov    %eax,-0x115c(%rbp)
    da7d:	8b 85 a4 ee ff ff    	mov    -0x115c(%rbp),%eax
    da83:	48 98                	cltq   
    da85:	48 89 05 ac 5a 00 00 	mov    %rax,0x5aac(%rip)        # 13538 <g_769>
    da8c:	48 8b 05 0d 83 00 00 	mov    0x830d(%rip),%rax        # 15da0 <g_770>
    da93:	48 39 85 e0 ed ff ff 	cmp    %rax,-0x1220(%rbp)
    da9a:	0f 95 c0             	setne  %al
    da9d:	0f b6 c0             	movzbl %al,%eax
    daa0:	44 89 f6             	mov    %r14d,%esi
    daa3:	89 c7                	mov    %eax,%edi
    daa5:	e8 0c 7b ff ff       	callq  55b6 <safe_add_func_int32_t_s_s>
    daaa:	44 89 ee             	mov    %r13d,%esi
    daad:	89 c7                	mov    %eax,%edi
    daaf:	e8 18 7c ff ff       	callq  56cc <safe_mod_func_int32_t_s_s>
    dab4:	48 8b 85 00 ee ff ff 	mov    -0x1200(%rbp),%rax
    dabb:	48 8b 00             	mov    (%rax),%rax
    dabe:	48 8b 00             	mov    (%rax),%rax
    dac1:	48 8d 15 48 72 00 00 	lea    0x7248(%rip),%rdx        # 14d10 <g_620>
    dac8:	48 39 d0             	cmp    %rdx,%rax
    dacb:	74 07                	je     dad4 <func_74+0x2993>
    dacd:	b8 01 00 00 00       	mov    $0x1,%eax
    dad2:	eb 05                	jmp    dad9 <func_74+0x2998>
    dad4:	b8 00 00 00 00       	mov    $0x0,%eax
    dad9:	89 c6                	mov    %eax,%esi
    dadb:	bf 0b de df f7       	mov    $0xf7dfde0b,%edi
    dae0:	e8 20 7b ff ff       	callq  5605 <safe_sub_func_int32_t_s_s>
    dae5:	48 8b 95 d8 ed ff ff 	mov    -0x1228(%rbp),%rdx
    daec:	8b 12                	mov    (%rdx),%edx
    daee:	39 d0                	cmp    %edx,%eax
    daf0:	0f 95 c0             	setne  %al
    daf3:	0f b6 d0             	movzbl %al,%edx
    daf6:	48 8b 85 d8 ed ff ff 	mov    -0x1228(%rbp),%rax
    dafd:	89 10                	mov    %edx,(%rax)
    daff:	48 8b 85 d8 ed ff ff 	mov    -0x1228(%rbp),%rax
    db06:	8b 00                	mov    (%rax),%eax
    db08:	83 f0 01             	xor    $0x1,%eax
    db0b:	48 98                	cltq   
    db0d:	48 be 2f 58 6c de 5d 	movabs $0xb20ccd5dde6c582f,%rsi
    db14:	cd 0c b2 
    db17:	48 89 c7             	mov    %rax,%rdi
    db1a:	e8 95 7e ff ff       	callq  59b4 <safe_mod_func_int64_t_s_s>
    db1f:	44 89 e6             	mov    %r12d,%esi
    db22:	bf 00 00 00 00       	mov    $0x0,%edi
    db27:	e8 29 79 ff ff       	callq  5455 <safe_div_func_int16_t_s_s>
    db2c:	66 83 f8 07          	cmp    $0x7,%ax
    db30:	0f 9f c0             	setg   %al
    db33:	0f b6 c8             	movzbl %al,%ecx
    db36:	8b 85 0c ec ff ff    	mov    -0x13f4(%rbp),%eax
    db3c:	48 8d 15 05 55 00 00 	lea    0x5505(%rip),%rdx        # 13048 <g_175>
    db43:	0f b6 04 10          	movzbl (%rax,%rdx,1),%eax
    db47:	89 c2                	mov    %eax,%edx
    db49:	89 c8                	mov    %ecx,%eax
    db4b:	31 d0                	xor    %edx,%eax
    db4d:	89 c1                	mov    %eax,%ecx
    db4f:	8b 85 0c ec ff ff    	mov    -0x13f4(%rbp),%eax
    db55:	48 8d 15 ec 54 00 00 	lea    0x54ec(%rip),%rdx        # 13048 <g_175>
    db5c:	88 0c 10             	mov    %cl,(%rax,%rdx,1)
    db5f:	8b 85 0c ec ff ff    	mov    -0x13f4(%rbp),%eax
    db65:	48 8d 15 dc 54 00 00 	lea    0x54dc(%rip),%rdx        # 13048 <g_175>
    db6c:	0f b6 04 10          	movzbl (%rax,%rdx,1),%eax
    db70:	84 c0                	test   %al,%al
    db72:	0f 94 c0             	sete   %al
    db75:	0f b6 d0             	movzbl %al,%edx
    db78:	0f b6 05 6d 59 00 00 	movzbl 0x596d(%rip),%eax        # 134ec <g_508+0x2c>
    db7f:	0f b6 c0             	movzbl %al,%eax
    db82:	21 d0                	and    %edx,%eax
    db84:	85 c0                	test   %eax,%eax
    db86:	0f 94 c0             	sete   %al
    db89:	0f b6 d0             	movzbl %al,%edx
    db8c:	48 8b 85 70 ed ff ff 	mov    -0x1290(%rbp),%rax
    db93:	89 10                	mov    %edx,(%rax)
    db95:	89 de                	mov    %ebx,%esi
    db97:	bf 01 00 00 00       	mov    $0x1,%edi
    db9c:	e8 b9 7f ff ff       	callq  5b5a <safe_add_func_uint8_t_u_u>
    dba1:	0f b6 c0             	movzbl %al,%eax
    dba4:	89 85 98 ec ff ff    	mov    %eax,-0x1368(%rbp)
    dbaa:	bf 01 00 00 00       	mov    $0x1,%edi
    dbaf:	e8 91 7f ff ff       	callq  5b45 <safe_unary_minus_func_uint8_t_u>
    dbb4:	0f b6 c0             	movzbl %al,%eax
    dbb7:	31 85 64 ec ff ff    	xor    %eax,-0x139c(%rbp)
    dbbd:	48 8b 85 10 ec ff ff 	mov    -0x13f0(%rbp),%rax
    dbc4:	8b 00                	mov    (%rax),%eax
    dbc6:	85 c0                	test   %eax,%eax
    dbc8:	0f 85 8c 00 00 00    	jne    dc5a <func_74+0x2b19>
    dbce:	48 8b 85 58 ed ff ff 	mov    -0x12a8(%rbp),%rax
    dbd5:	48 8d 95 1c ec ff ff 	lea    -0x13e4(%rbp),%rdx
    dbdc:	48 89 10             	mov    %rdx,(%rax)
    dbdf:	48 8b 95 60 f2 ff ff 	mov    -0xda0(%rbp),%rdx
    dbe6:	48 8b 85 58 ed ff ff 	mov    -0x12a8(%rbp),%rax
    dbed:	48 89 10             	mov    %rdx,(%rax)
    dbf0:	48 8b 85 10 ec ff ff 	mov    -0x13f0(%rbp),%rax
    dbf7:	8b 00                	mov    (%rax),%eax
    dbf9:	85 c0                	test   %eax,%eax
    dbfb:	74 47                	je     dc44 <func_74+0x2b03>
    dbfd:	eb 5c                	jmp    dc5b <func_74+0x2b1a>
    dbff:	48 c7 85 f0 ed ff ff 	movq   $0x0,-0x1210(%rbp)
    dc06:	00 00 00 00 
    dc0a:	c7 85 54 ec ff ff 00 	movl   $0x0,-0x13ac(%rbp)
    dc11:	00 00 00 
    dc14:	eb 1f                	jmp    dc35 <func_74+0x2af4>
    dc16:	c6 85 28 ec ff ff 87 	movb   $0x87,-0x13d8(%rbp)
    dc1d:	48 83 bd f0 ed ff ff 	cmpq   $0x0,-0x1210(%rbp)
    dc24:	00 
    dc25:	75 1c                	jne    dc43 <func_74+0x2b02>
    dc27:	80 bd 28 ec ff ff 00 	cmpb   $0x0,-0x13d8(%rbp)
    dc2e:	83 85 54 ec ff ff 01 	addl   $0x1,-0x13ac(%rbp)
    dc35:	83 bd 54 ec ff ff 01 	cmpl   $0x1,-0x13ac(%rbp)
    dc3c:	7e d8                	jle    dc16 <func_74+0x2ad5>
    dc3e:	eb 04                	jmp    dc44 <func_74+0x2b03>
    dc40:	90                   	nop
    dc41:	eb 01                	jmp    dc44 <func_74+0x2b03>
    dc43:	90                   	nop
    dc44:	83 85 44 ec ff ff 01 	addl   $0x1,-0x13bc(%rbp)
    dc4b:	83 bd 44 ec ff ff 09 	cmpl   $0x9,-0x13bc(%rbp)
    dc52:	0f 8e 89 f7 ff ff    	jle    d3e1 <func_74+0x22a0>
    dc58:	eb 01                	jmp    dc5b <func_74+0x2b1a>
    dc5a:	90                   	nop
    dc5b:	0f b6 05 0f 55 00 00 	movzbl 0x550f(%rip),%eax        # 13171 <g_384>
    dc62:	83 c0 01             	add    $0x1,%eax
    dc65:	88 05 06 55 00 00    	mov    %al,0x5506(%rip)        # 13171 <g_384>
    dc6b:	0f b6 05 ff 54 00 00 	movzbl 0x54ff(%rip),%eax        # 13171 <g_384>
    dc72:	3c 05                	cmp    $0x5,%al
    dc74:	0f 86 66 e2 ff ff    	jbe    bee0 <func_74+0xd9f>
    dc7a:	83 85 0c ec ff ff 01 	addl   $0x1,-0x13f4(%rbp)
    dc81:	83 bd 0c ec ff ff 05 	cmpl   $0x5,-0x13f4(%rbp)
    dc88:	0f 86 12 e1 ff ff    	jbe    bda0 <func_74+0xc5f>
    dc8e:	eb 01                	jmp    dc91 <func_74+0x2b50>
    dc90:	90                   	nop
    dc91:	8b 85 0c ec ff ff    	mov    -0x13f4(%rbp),%eax
    dc97:	48 8b 5d d8          	mov    -0x28(%rbp),%rbx
    dc9b:	64 48 33 1c 25 28 00 	xor    %fs:0x28,%rbx
    dca2:	00 00 
    dca4:	74 05                	je     dcab <func_74+0x2b6a>
    dca6:	e8 c5 73 ff ff       	callq  5070 <__stack_chk_fail@plt>
    dcab:	48 81 c4 e0 13 00 00 	add    $0x13e0,%rsp
    dcb2:	5b                   	pop    %rbx
    dcb3:	41 5c                	pop    %r12
    dcb5:	41 5d                	pop    %r13
    dcb7:	41 5e                	pop    %r14
    dcb9:	5d                   	pop    %rbp
    dcba:	c3                   	retq   

000000000000dcbb <func_90>:
    dcbb:	f3 0f 1e fa          	endbr64 
    dcbf:	55                   	push   %rbp
    dcc0:	48 89 e5             	mov    %rsp,%rbp
    dcc3:	89 f8                	mov    %edi,%eax
    dcc5:	66 89 45 fc          	mov    %ax,-0x4(%rbp)
    dcc9:	48 0f bf 45 fc       	movswq -0x4(%rbp),%rax
    dcce:	5d                   	pop    %rbp
    dccf:	c3                   	retq   

000000000000dcd0 <main>:
    dcd0:	f3 0f 1e fa          	endbr64 
    dcd4:	55                   	push   %rbp
    dcd5:	48 89 e5             	mov    %rsp,%rbp
    dcd8:	48 83 ec 20          	sub    $0x20,%rsp
    dcdc:	89 7d ec             	mov    %edi,-0x14(%rbp)
    dcdf:	48 89 75 e0          	mov    %rsi,-0x20(%rbp)
    dce3:	c7 45 fc 00 00 00 00 	movl   $0x0,-0x4(%rbp)
    dcea:	83 7d ec 02          	cmpl   $0x2,-0x14(%rbp)
    dcee:	75 25                	jne    dd15 <main+0x45>
    dcf0:	48 8b 45 e0          	mov    -0x20(%rbp),%rax
    dcf4:	48 83 c0 08          	add    $0x8,%rax
    dcf8:	48 8b 00             	mov    (%rax),%rax
    dcfb:	48 8d 35 4e 1a 00 00 	lea    0x1a4e(%rip),%rsi        # f750 <g_1342+0x6d8>
    dd02:	48 89 c7             	mov    %rax,%rdi
    dd05:	e8 86 73 ff ff       	callq  5090 <strcmp@plt>
    dd0a:	85 c0                	test   %eax,%eax
    dd0c:	75 07                	jne    dd15 <main+0x45>
    dd0e:	c7 45 fc 01 00 00 00 	movl   $0x1,-0x4(%rbp)
    dd15:	e8 6f 74 ff ff       	callq  5189 <platform_main_begin>
    dd1a:	e8 79 88 ff ff       	callq  6598 <crc32_gentab>
    dd1f:	e8 91 8a ff ff       	callq  67b5 <func_1>
    dd24:	8b 05 fa 52 00 00    	mov    0x52fa(%rip),%eax        # 13024 <g_3>
    dd2a:	48 98                	cltq   
    dd2c:	8b 55 fc             	mov    -0x4(%rbp),%edx
    dd2f:	48 8d 35 1c 1a 00 00 	lea    0x1a1c(%rip),%rsi        # f752 <g_1342+0x6da>
    dd36:	48 89 c7             	mov    %rax,%rdi
    dd39:	e8 b5 89 ff ff       	callq  66f3 <transparent_crc>
    dd3e:	b8 32 7a 30 24       	mov    $0x24307a32,%eax
    dd43:	48 98                	cltq   
    dd45:	8b 55 fc             	mov    -0x4(%rbp),%edx
    dd48:	48 8d 35 07 1a 00 00 	lea    0x1a07(%rip),%rsi        # f756 <g_1342+0x6de>
    dd4f:	48 89 c7             	mov    %rax,%rdi
    dd52:	e8 9c 89 ff ff       	callq  66f3 <transparent_crc>
    dd57:	8b 05 cb 52 00 00    	mov    0x52cb(%rip),%eax        # 13028 <g_34>
    dd5d:	48 98                	cltq   
    dd5f:	8b 55 fc             	mov    -0x4(%rbp),%edx
    dd62:	48 8d 35 f2 19 00 00 	lea    0x19f2(%rip),%rsi        # f75b <g_1342+0x6e3>
    dd69:	48 89 c7             	mov    %rax,%rdi
    dd6c:	e8 82 89 ff ff       	callq  66f3 <transparent_crc>
    dd71:	0f b7 05 10 80 00 00 	movzwl 0x8010(%rip),%eax        # 15d88 <g_41>
    dd78:	0f b7 c0             	movzwl %ax,%eax
    dd7b:	8b 55 fc             	mov    -0x4(%rbp),%edx
    dd7e:	48 8d 35 db 19 00 00 	lea    0x19db(%rip),%rsi        # f760 <g_1342+0x6e8>
    dd85:	48 89 c7             	mov    %rax,%rdi
    dd88:	e8 66 89 ff ff       	callq  66f3 <transparent_crc>
    dd8d:	8b 05 99 52 00 00    	mov    0x5299(%rip),%eax        # 1302c <g_45>
    dd93:	48 98                	cltq   
    dd95:	8b 55 fc             	mov    -0x4(%rbp),%edx
    dd98:	48 8d 35 c6 19 00 00 	lea    0x19c6(%rip),%rsi        # f765 <g_1342+0x6ed>
    dd9f:	48 89 c7             	mov    %rax,%rdi
    dda2:	e8 4c 89 ff ff       	callq  66f3 <transparent_crc>
    dda7:	0f b6 05 82 52 00 00 	movzbl 0x5282(%rip),%eax        # 13030 <g_62>
    ddae:	0f b6 c0             	movzbl %al,%eax
    ddb1:	8b 55 fc             	mov    -0x4(%rbp),%edx
    ddb4:	48 8d 35 af 19 00 00 	lea    0x19af(%rip),%rsi        # f76a <g_1342+0x6f2>
    ddbb:	48 89 c7             	mov    %rax,%rdi
    ddbe:	e8 30 89 ff ff       	callq  66f3 <transparent_crc>
    ddc3:	8b 05 6b 52 00 00    	mov    0x526b(%rip),%eax        # 13034 <g_101>
    ddc9:	48 98                	cltq   
    ddcb:	8b 55 fc             	mov    -0x4(%rbp),%edx
    ddce:	48 8d 35 9a 19 00 00 	lea    0x199a(%rip),%rsi        # f76f <g_1342+0x6f7>
    ddd5:	48 89 c7             	mov    %rax,%rdi
    ddd8:	e8 16 89 ff ff       	callq  66f3 <transparent_crc>
    dddd:	48 8b 05 54 52 00 00 	mov    0x5254(%rip),%rax        # 13038 <g_108>
    dde4:	8b 55 fc             	mov    -0x4(%rbp),%edx
    dde7:	48 8d 35 87 19 00 00 	lea    0x1987(%rip),%rsi        # f775 <g_1342+0x6fd>
    ddee:	48 89 c7             	mov    %rax,%rdi
    ddf1:	e8 fd 88 ff ff       	callq  66f3 <transparent_crc>
    ddf6:	0f b7 05 43 52 00 00 	movzwl 0x5243(%rip),%eax        # 13040 <g_115>
    ddfd:	48 0f bf c0          	movswq %ax,%rax
    de01:	8b 55 fc             	mov    -0x4(%rbp),%edx
    de04:	48 8d 35 70 19 00 00 	lea    0x1970(%rip),%rsi        # f77b <g_1342+0x703>
    de0b:	48 89 c7             	mov    %rax,%rdi
    de0e:	e8 e0 88 ff ff       	callq  66f3 <transparent_crc>
    de13:	8b 05 2b 52 00 00    	mov    0x522b(%rip),%eax        # 13044 <g_126>
    de19:	89 c1                	mov    %eax,%ecx
    de1b:	8b 45 fc             	mov    -0x4(%rbp),%eax
    de1e:	89 c2                	mov    %eax,%edx
    de20:	48 8d 35 5a 19 00 00 	lea    0x195a(%rip),%rsi        # f781 <g_1342+0x709>
    de27:	48 89 cf             	mov    %rcx,%rdi
    de2a:	e8 c4 88 ff ff       	callq  66f3 <transparent_crc>
    de2f:	c7 45 f0 00 00 00 00 	movl   $0x0,-0x10(%rbp)
    de36:	eb 45                	jmp    de7d <main+0x1ad>
    de38:	8b 45 f0             	mov    -0x10(%rbp),%eax
    de3b:	48 98                	cltq   
    de3d:	48 8d 15 04 52 00 00 	lea    0x5204(%rip),%rdx        # 13048 <g_175>
    de44:	0f b6 04 10          	movzbl (%rax,%rdx,1),%eax
    de48:	0f b6 c0             	movzbl %al,%eax
    de4b:	8b 55 fc             	mov    -0x4(%rbp),%edx
    de4e:	48 8d 35 32 19 00 00 	lea    0x1932(%rip),%rsi        # f787 <g_1342+0x70f>
    de55:	48 89 c7             	mov    %rax,%rdi
    de58:	e8 96 88 ff ff       	callq  66f3 <transparent_crc>
    de5d:	83 7d fc 00          	cmpl   $0x0,-0x4(%rbp)
    de61:	74 16                	je     de79 <main+0x1a9>
    de63:	8b 45 f0             	mov    -0x10(%rbp),%eax
    de66:	89 c6                	mov    %eax,%esi
    de68:	48 8d 3d 21 19 00 00 	lea    0x1921(%rip),%rdi        # f790 <g_1342+0x718>
    de6f:	b8 00 00 00 00       	mov    $0x0,%eax
    de74:	e8 07 72 ff ff       	callq  5080 <printf@plt>
    de79:	83 45 f0 01          	addl   $0x1,-0x10(%rbp)
    de7d:	83 7d f0 05          	cmpl   $0x5,-0x10(%rbp)
    de81:	7e b5                	jle    de38 <main+0x168>
    de83:	b8 fc ff ff ff       	mov    $0xfffffffc,%eax
    de88:	89 c1                	mov    %eax,%ecx
    de8a:	8b 45 fc             	mov    -0x4(%rbp),%eax
    de8d:	89 c2                	mov    %eax,%edx
    de8f:	48 8d 35 08 19 00 00 	lea    0x1908(%rip),%rsi        # f79e <g_1342+0x726>
    de96:	48 89 cf             	mov    %rcx,%rdi
    de99:	e8 55 88 ff ff       	callq  66f3 <transparent_crc>
    de9e:	c7 45 f0 00 00 00 00 	movl   $0x0,-0x10(%rbp)
    dea5:	e9 b5 00 00 00       	jmpq   df5f <main+0x28f>
    deaa:	c7 45 f4 00 00 00 00 	movl   $0x0,-0xc(%rbp)
    deb1:	e9 9b 00 00 00       	jmpq   df51 <main+0x281>
    deb6:	c7 45 f8 00 00 00 00 	movl   $0x0,-0x8(%rbp)
    debd:	e9 81 00 00 00       	jmpq   df43 <main+0x273>
    dec2:	8b 45 f8             	mov    -0x8(%rbp),%eax
    dec5:	48 63 f0             	movslq %eax,%rsi
    dec8:	8b 45 f0             	mov    -0x10(%rbp),%eax
    decb:	48 63 d0             	movslq %eax,%rdx
    dece:	8b 45 f4             	mov    -0xc(%rbp),%eax
    ded1:	48 63 c8             	movslq %eax,%rcx
    ded4:	48 89 d0             	mov    %rdx,%rax
    ded7:	48 c1 e0 02          	shl    $0x2,%rax
    dedb:	48 01 d0             	add    %rdx,%rax
    dede:	48 8d 14 85 00 00 00 	lea    0x0(,%rax,4),%rdx
    dee5:	00 
    dee6:	48 01 d0             	add    %rdx,%rax
    dee9:	48 89 ca             	mov    %rcx,%rdx
    deec:	48 c1 e2 02          	shl    $0x2,%rdx
    def0:	48 01 ca             	add    %rcx,%rdx
    def3:	48 01 d0             	add    %rdx,%rax
    def6:	48 8d 14 30          	lea    (%rax,%rsi,1),%rdx
    defa:	48 8d 05 5f 51 00 00 	lea    0x515f(%rip),%rax        # 13060 <g_290>
    df01:	48 01 d0             	add    %rdx,%rax
    df04:	0f b6 00             	movzbl (%rax),%eax
    df07:	48 0f be c0          	movsbq %al,%rax
    df0b:	8b 55 fc             	mov    -0x4(%rbp),%edx
    df0e:	48 8d 35 8f 18 00 00 	lea    0x188f(%rip),%rsi        # f7a4 <g_1342+0x72c>
    df15:	48 89 c7             	mov    %rax,%rdi
    df18:	e8 d6 87 ff ff       	callq  66f3 <transparent_crc>
    df1d:	83 7d fc 00          	cmpl   $0x0,-0x4(%rbp)
    df21:	74 1c                	je     df3f <main+0x26f>
    df23:	8b 4d f8             	mov    -0x8(%rbp),%ecx
    df26:	8b 55 f4             	mov    -0xc(%rbp),%edx
    df29:	8b 45 f0             	mov    -0x10(%rbp),%eax
    df2c:	89 c6                	mov    %eax,%esi
    df2e:	48 8d 3d 7e 18 00 00 	lea    0x187e(%rip),%rdi        # f7b3 <g_1342+0x73b>
    df35:	b8 00 00 00 00       	mov    $0x0,%eax
    df3a:	e8 41 71 ff ff       	callq  5080 <printf@plt>
    df3f:	83 45 f8 01          	addl   $0x1,-0x8(%rbp)
    df43:	83 7d f8 04          	cmpl   $0x4,-0x8(%rbp)
    df47:	0f 8e 75 ff ff ff    	jle    dec2 <main+0x1f2>
    df4d:	83 45 f4 01          	addl   $0x1,-0xc(%rbp)
    df51:	83 7d f4 04          	cmpl   $0x4,-0xc(%rbp)
    df55:	0f 8e 5b ff ff ff    	jle    deb6 <main+0x1e6>
    df5b:	83 45 f0 01          	addl   $0x1,-0x10(%rbp)
    df5f:	83 7d f0 08          	cmpl   $0x8,-0x10(%rbp)
    df63:	0f 8e 41 ff ff ff    	jle    deaa <main+0x1da>
    df69:	c7 45 f0 00 00 00 00 	movl   $0x0,-0x10(%rbp)
    df70:	eb 6a                	jmp    dfdc <main+0x30c>
    df72:	c7 45 f4 00 00 00 00 	movl   $0x0,-0xc(%rbp)
    df79:	eb 57                	jmp    dfd2 <main+0x302>
    df7b:	8b 45 f4             	mov    -0xc(%rbp),%eax
    df7e:	48 98                	cltq   
    df80:	8b 55 f0             	mov    -0x10(%rbp),%edx
    df83:	48 63 d2             	movslq %edx,%rdx
    df86:	48 01 d2             	add    %rdx,%rdx
    df89:	48 01 c2             	add    %rax,%rdx
    df8c:	48 8d 05 b5 51 00 00 	lea    0x51b5(%rip),%rax        # 13148 <g_296>
    df93:	48 01 d0             	add    %rdx,%rax
    df96:	0f b6 00             	movzbl (%rax),%eax
    df99:	48 0f be c0          	movsbq %al,%rax
    df9d:	8b 55 fc             	mov    -0x4(%rbp),%edx
    dfa0:	48 8d 35 22 18 00 00 	lea    0x1822(%rip),%rsi        # f7c9 <g_1342+0x751>
    dfa7:	48 89 c7             	mov    %rax,%rdi
    dfaa:	e8 44 87 ff ff       	callq  66f3 <transparent_crc>
    dfaf:	83 7d fc 00          	cmpl   $0x0,-0x4(%rbp)
    dfb3:	74 19                	je     dfce <main+0x2fe>
    dfb5:	8b 55 f4             	mov    -0xc(%rbp),%edx
    dfb8:	8b 45 f0             	mov    -0x10(%rbp),%eax
    dfbb:	89 c6                	mov    %eax,%esi
    dfbd:	48 8d 3d 11 18 00 00 	lea    0x1811(%rip),%rdi        # f7d5 <g_1342+0x75d>
    dfc4:	b8 00 00 00 00       	mov    $0x0,%eax
    dfc9:	e8 b2 70 ff ff       	callq  5080 <printf@plt>
    dfce:	83 45 f4 01          	addl   $0x1,-0xc(%rbp)
    dfd2:	83 7d f4 01          	cmpl   $0x1,-0xc(%rbp)
    dfd6:	7e a3                	jle    df7b <main+0x2ab>
    dfd8:	83 45 f0 01          	addl   $0x1,-0x10(%rbp)
    dfdc:	83 7d f0 06          	cmpl   $0x6,-0x10(%rbp)
    dfe0:	7e 90                	jle    df72 <main+0x2a2>
    dfe2:	8b 05 70 51 00 00    	mov    0x5170(%rip),%eax        # 13158 <g_337>
    dfe8:	89 c1                	mov    %eax,%ecx
    dfea:	8b 45 fc             	mov    -0x4(%rbp),%eax
    dfed:	89 c2                	mov    %eax,%edx
    dfef:	48 8d 35 f1 17 00 00 	lea    0x17f1(%rip),%rsi        # f7e7 <g_1342+0x76f>
    dff6:	48 89 cf             	mov    %rcx,%rdi
    dff9:	e8 f5 86 ff ff       	callq  66f3 <transparent_crc>
    dffe:	8b 05 58 51 00 00    	mov    0x5158(%rip),%eax        # 1315c <g_338>
    e004:	89 c1                	mov    %eax,%ecx
    e006:	8b 45 fc             	mov    -0x4(%rbp),%eax
    e009:	89 c2                	mov    %eax,%edx
    e00b:	48 8d 35 db 17 00 00 	lea    0x17db(%rip),%rsi        # f7ed <g_1342+0x775>
    e012:	48 89 cf             	mov    %rcx,%rdi
    e015:	e8 d9 86 ff ff       	callq  66f3 <transparent_crc>
    e01a:	8b 05 40 51 00 00    	mov    0x5140(%rip),%eax        # 13160 <g_339>
    e020:	89 c1                	mov    %eax,%ecx
    e022:	8b 45 fc             	mov    -0x4(%rbp),%eax
    e025:	89 c2                	mov    %eax,%edx
    e027:	48 8d 35 c5 17 00 00 	lea    0x17c5(%rip),%rsi        # f7f3 <g_1342+0x77b>
    e02e:	48 89 cf             	mov    %rcx,%rdi
    e031:	e8 bd 86 ff ff       	callq  66f3 <transparent_crc>
    e036:	8b 05 28 51 00 00    	mov    0x5128(%rip),%eax        # 13164 <g_340>
    e03c:	89 c1                	mov    %eax,%ecx
    e03e:	8b 45 fc             	mov    -0x4(%rbp),%eax
    e041:	89 c2                	mov    %eax,%edx
    e043:	48 8d 35 af 17 00 00 	lea    0x17af(%rip),%rsi        # f7f9 <g_1342+0x781>
    e04a:	48 89 cf             	mov    %rcx,%rdi
    e04d:	e8 a1 86 ff ff       	callq  66f3 <transparent_crc>
    e052:	0f b7 05 0f 51 00 00 	movzwl 0x510f(%rip),%eax        # 13168 <g_357>
    e059:	48 0f bf c0          	movswq %ax,%rax
    e05d:	8b 55 fc             	mov    -0x4(%rbp),%edx
    e060:	48 8d 35 98 17 00 00 	lea    0x1798(%rip),%rsi        # f7ff <g_1342+0x787>
    e067:	48 89 c7             	mov    %rax,%rdi
    e06a:	e8 84 86 ff ff       	callq  66f3 <transparent_crc>
    e06f:	8b 05 f7 50 00 00    	mov    0x50f7(%rip),%eax        # 1316c <g_358>
    e075:	48 98                	cltq   
    e077:	8b 55 fc             	mov    -0x4(%rbp),%edx
    e07a:	48 8d 35 84 17 00 00 	lea    0x1784(%rip),%rsi        # f805 <g_1342+0x78d>
    e081:	48 89 c7             	mov    %rax,%rdi
    e084:	e8 6a 86 ff ff       	callq  66f3 <transparent_crc>
    e089:	0f b6 05 e0 50 00 00 	movzbl 0x50e0(%rip),%eax        # 13170 <g_377>
    e090:	48 0f be c0          	movsbq %al,%rax
    e094:	8b 55 fc             	mov    -0x4(%rbp),%edx
    e097:	48 8d 35 6d 17 00 00 	lea    0x176d(%rip),%rsi        # f80b <g_1342+0x793>
    e09e:	48 89 c7             	mov    %rax,%rdi
    e0a1:	e8 4d 86 ff ff       	callq  66f3 <transparent_crc>
    e0a6:	0f b6 05 c4 50 00 00 	movzbl 0x50c4(%rip),%eax        # 13171 <g_384>
    e0ad:	0f b6 c0             	movzbl %al,%eax
    e0b0:	8b 55 fc             	mov    -0x4(%rbp),%edx
    e0b3:	48 8d 35 57 17 00 00 	lea    0x1757(%rip),%rsi        # f811 <g_1342+0x799>
    e0ba:	48 89 c7             	mov    %rax,%rdi
    e0bd:	e8 31 86 ff ff       	callq  66f3 <transparent_crc>
    e0c2:	c7 45 f0 00 00 00 00 	movl   $0x0,-0x10(%rbp)
    e0c9:	eb 75                	jmp    e140 <main+0x470>
    e0cb:	c7 45 f4 00 00 00 00 	movl   $0x0,-0xc(%rbp)
    e0d2:	eb 62                	jmp    e136 <main+0x466>
    e0d4:	8b 45 f4             	mov    -0xc(%rbp),%eax
    e0d7:	48 63 c8             	movslq %eax,%rcx
    e0da:	8b 45 f0             	mov    -0x10(%rbp),%eax
    e0dd:	48 63 d0             	movslq %eax,%rdx
    e0e0:	48 89 d0             	mov    %rdx,%rax
    e0e3:	48 c1 e0 03          	shl    $0x3,%rax
    e0e7:	48 01 d0             	add    %rdx,%rax
    e0ea:	48 01 c8             	add    %rcx,%rax
    e0ed:	48 8d 14 85 00 00 00 	lea    0x0(,%rax,4),%rdx
    e0f4:	00 
    e0f5:	48 8d 05 84 50 00 00 	lea    0x5084(%rip),%rax        # 13180 <g_410>
    e0fc:	8b 04 02             	mov    (%rdx,%rax,1),%eax
    e0ff:	48 98                	cltq   
    e101:	8b 55 fc             	mov    -0x4(%rbp),%edx
    e104:	48 8d 35 0c 17 00 00 	lea    0x170c(%rip),%rsi        # f817 <g_1342+0x79f>
    e10b:	48 89 c7             	mov    %rax,%rdi
    e10e:	e8 e0 85 ff ff       	callq  66f3 <transparent_crc>
    e113:	83 7d fc 00          	cmpl   $0x0,-0x4(%rbp)
    e117:	74 19                	je     e132 <main+0x462>
    e119:	8b 55 f4             	mov    -0xc(%rbp),%edx
    e11c:	8b 45 f0             	mov    -0x10(%rbp),%eax
    e11f:	89 c6                	mov    %eax,%esi
    e121:	48 8d 3d ad 16 00 00 	lea    0x16ad(%rip),%rdi        # f7d5 <g_1342+0x75d>
    e128:	b8 00 00 00 00       	mov    $0x0,%eax
    e12d:	e8 4e 6f ff ff       	callq  5080 <printf@plt>
    e132:	83 45 f4 01          	addl   $0x1,-0xc(%rbp)
    e136:	83 7d f4 08          	cmpl   $0x8,-0xc(%rbp)
    e13a:	7e 98                	jle    e0d4 <main+0x404>
    e13c:	83 45 f0 01          	addl   $0x1,-0x10(%rbp)
    e140:	83 7d f0 00          	cmpl   $0x0,-0x10(%rbp)
    e144:	7e 85                	jle    e0cb <main+0x3fb>
    e146:	8b 05 5c 50 00 00    	mov    0x505c(%rip),%eax        # 131a8 <g_456>
    e14c:	48 98                	cltq   
    e14e:	8b 55 fc             	mov    -0x4(%rbp),%edx
    e151:	48 8d 35 cb 16 00 00 	lea    0x16cb(%rip),%rsi        # f823 <g_1342+0x7ab>
    e158:	48 89 c7             	mov    %rax,%rdi
    e15b:	e8 93 85 ff ff       	callq  66f3 <transparent_crc>
    e160:	0f b6 05 45 50 00 00 	movzbl 0x5045(%rip),%eax        # 131ac <g_456+0x4>
    e167:	0f b6 c0             	movzbl %al,%eax
    e16a:	8b 55 fc             	mov    -0x4(%rbp),%edx
    e16d:	48 8d 35 b8 16 00 00 	lea    0x16b8(%rip),%rsi        # f82c <g_1342+0x7b4>
    e174:	48 89 c7             	mov    %rax,%rdi
    e177:	e8 77 85 ff ff       	callq  66f3 <transparent_crc>
    e17c:	48 8b 05 2d 50 00 00 	mov    0x502d(%rip),%rax        # 131b0 <g_482>
    e183:	48 89 c1             	mov    %rax,%rcx
    e186:	8b 45 fc             	mov    -0x4(%rbp),%eax
    e189:	89 c2                	mov    %eax,%edx
    e18b:	48 8d 35 a3 16 00 00 	lea    0x16a3(%rip),%rsi        # f835 <g_1342+0x7bd>
    e192:	48 89 cf             	mov    %rcx,%rdi
    e195:	e8 59 85 ff ff       	callq  66f3 <transparent_crc>
    e19a:	c7 45 f0 00 00 00 00 	movl   $0x0,-0x10(%rbp)
    e1a1:	e9 fc 00 00 00       	jmpq   e2a2 <main+0x5d2>
    e1a6:	c7 45 f4 00 00 00 00 	movl   $0x0,-0xc(%rbp)
    e1ad:	e9 e2 00 00 00       	jmpq   e294 <main+0x5c4>
    e1b2:	c7 45 f8 00 00 00 00 	movl   $0x0,-0x8(%rbp)
    e1b9:	e9 c8 00 00 00       	jmpq   e286 <main+0x5b6>
    e1be:	8b 45 f8             	mov    -0x8(%rbp),%eax
    e1c1:	48 63 f0             	movslq %eax,%rsi
    e1c4:	8b 45 f0             	mov    -0x10(%rbp),%eax
    e1c7:	48 98                	cltq   
    e1c9:	8b 55 f4             	mov    -0xc(%rbp),%edx
    e1cc:	48 63 ca             	movslq %edx,%rcx
    e1cf:	48 89 c2             	mov    %rax,%rdx
    e1d2:	48 c1 e2 04          	shl    $0x4,%rdx
    e1d6:	48 29 c2             	sub    %rax,%rdx
    e1d9:	48 89 c8             	mov    %rcx,%rax
    e1dc:	48 01 c0             	add    %rax,%rax
    e1df:	48 01 c8             	add    %rcx,%rax
    e1e2:	48 01 d0             	add    %rdx,%rax
    e1e5:	48 01 f0             	add    %rsi,%rax
    e1e8:	48 8d 14 c5 00 00 00 	lea    0x0(,%rax,8),%rdx
    e1ef:	00 
    e1f0:	48 8d 05 c9 4f 00 00 	lea    0x4fc9(%rip),%rax        # 131c0 <g_503>
    e1f7:	8b 04 02             	mov    (%rdx,%rax,1),%eax
    e1fa:	48 98                	cltq   
    e1fc:	8b 55 fc             	mov    -0x4(%rbp),%edx
    e1ff:	48 8d 35 35 16 00 00 	lea    0x1635(%rip),%rsi        # f83b <g_1342+0x7c3>
    e206:	48 89 c7             	mov    %rax,%rdi
    e209:	e8 e5 84 ff ff       	callq  66f3 <transparent_crc>
    e20e:	8b 45 f8             	mov    -0x8(%rbp),%eax
    e211:	48 63 f0             	movslq %eax,%rsi
    e214:	8b 45 f0             	mov    -0x10(%rbp),%eax
    e217:	48 98                	cltq   
    e219:	8b 55 f4             	mov    -0xc(%rbp),%edx
    e21c:	48 63 ca             	movslq %edx,%rcx
    e21f:	48 89 c2             	mov    %rax,%rdx
    e222:	48 c1 e2 04          	shl    $0x4,%rdx
    e226:	48 29 c2             	sub    %rax,%rdx
    e229:	48 89 c8             	mov    %rcx,%rax
    e22c:	48 01 c0             	add    %rax,%rax
    e22f:	48 01 c8             	add    %rcx,%rax
    e232:	48 01 d0             	add    %rdx,%rax
    e235:	48 01 f0             	add    %rsi,%rax
    e238:	48 8d 14 c5 00 00 00 	lea    0x0(,%rax,8),%rdx
    e23f:	00 
    e240:	48 8d 05 7d 4f 00 00 	lea    0x4f7d(%rip),%rax        # 131c4 <g_503+0x4>
    e247:	0f b6 04 02          	movzbl (%rdx,%rax,1),%eax
    e24b:	0f b6 c0             	movzbl %al,%eax
    e24e:	8b 55 fc             	mov    -0x4(%rbp),%edx
    e251:	48 8d 35 f5 15 00 00 	lea    0x15f5(%rip),%rsi        # f84d <g_1342+0x7d5>
    e258:	48 89 c7             	mov    %rax,%rdi
    e25b:	e8 93 84 ff ff       	callq  66f3 <transparent_crc>
    e260:	83 7d fc 00          	cmpl   $0x0,-0x4(%rbp)
    e264:	74 1c                	je     e282 <main+0x5b2>
    e266:	8b 4d f8             	mov    -0x8(%rbp),%ecx
    e269:	8b 55 f4             	mov    -0xc(%rbp),%edx
    e26c:	8b 45 f0             	mov    -0x10(%rbp),%eax
    e26f:	89 c6                	mov    %eax,%esi
    e271:	48 8d 3d 3b 15 00 00 	lea    0x153b(%rip),%rdi        # f7b3 <g_1342+0x73b>
    e278:	b8 00 00 00 00       	mov    $0x0,%eax
    e27d:	e8 fe 6d ff ff       	callq  5080 <printf@plt>
    e282:	83 45 f8 01          	addl   $0x1,-0x8(%rbp)
    e286:	83 7d f8 02          	cmpl   $0x2,-0x8(%rbp)
    e28a:	0f 8e 2e ff ff ff    	jle    e1be <main+0x4ee>
    e290:	83 45 f4 01          	addl   $0x1,-0xc(%rbp)
    e294:	83 7d f4 04          	cmpl   $0x4,-0xc(%rbp)
    e298:	0f 8e 14 ff ff ff    	jle    e1b2 <main+0x4e2>
    e29e:	83 45 f0 01          	addl   $0x1,-0x10(%rbp)
    e2a2:	83 7d f0 00          	cmpl   $0x0,-0x10(%rbp)
    e2a6:	0f 8e fa fe ff ff    	jle    e1a6 <main+0x4d6>
    e2ac:	8b 05 86 4f 00 00    	mov    0x4f86(%rip),%eax        # 13238 <g_504>
    e2b2:	48 98                	cltq   
    e2b4:	8b 55 fc             	mov    -0x4(%rbp),%edx
    e2b7:	48 8d 35 a1 15 00 00 	lea    0x15a1(%rip),%rsi        # f85f <g_1342+0x7e7>
    e2be:	48 89 c7             	mov    %rax,%rdi
    e2c1:	e8 2d 84 ff ff       	callq  66f3 <transparent_crc>
    e2c6:	0f b6 05 6f 4f 00 00 	movzbl 0x4f6f(%rip),%eax        # 1323c <g_504+0x4>
    e2cd:	0f b6 c0             	movzbl %al,%eax
    e2d0:	8b 55 fc             	mov    -0x4(%rbp),%edx
    e2d3:	48 8d 35 8e 15 00 00 	lea    0x158e(%rip),%rsi        # f868 <g_1342+0x7f0>
    e2da:	48 89 c7             	mov    %rax,%rdi
    e2dd:	e8 11 84 ff ff       	callq  66f3 <transparent_crc>
    e2e2:	c7 45 f0 00 00 00 00 	movl   $0x0,-0x10(%rbp)
    e2e9:	e9 bd 00 00 00       	jmpq   e3ab <main+0x6db>
    e2ee:	c7 45 f4 00 00 00 00 	movl   $0x0,-0xc(%rbp)
    e2f5:	e9 a3 00 00 00       	jmpq   e39d <main+0x6cd>
    e2fa:	8b 45 f4             	mov    -0xc(%rbp),%eax
    e2fd:	48 63 c8             	movslq %eax,%rcx
    e300:	8b 45 f0             	mov    -0x10(%rbp),%eax
    e303:	48 63 d0             	movslq %eax,%rdx
    e306:	48 89 d0             	mov    %rdx,%rax
    e309:	48 c1 e0 03          	shl    $0x3,%rax
    e30d:	48 01 d0             	add    %rdx,%rax
    e310:	48 01 c8             	add    %rcx,%rax
    e313:	48 8d 14 c5 00 00 00 	lea    0x0(,%rax,8),%rdx
    e31a:	00 
    e31b:	48 8d 05 1e 4f 00 00 	lea    0x4f1e(%rip),%rax        # 13240 <g_505>
    e322:	8b 04 02             	mov    (%rdx,%rax,1),%eax
    e325:	48 98                	cltq   
    e327:	8b 55 fc             	mov    -0x4(%rbp),%edx
    e32a:	48 8d 35 40 15 00 00 	lea    0x1540(%rip),%rsi        # f871 <g_1342+0x7f9>
    e331:	48 89 c7             	mov    %rax,%rdi
    e334:	e8 ba 83 ff ff       	callq  66f3 <transparent_crc>
    e339:	8b 45 f4             	mov    -0xc(%rbp),%eax
    e33c:	48 63 c8             	movslq %eax,%rcx
    e33f:	8b 45 f0             	mov    -0x10(%rbp),%eax
    e342:	48 63 d0             	movslq %eax,%rdx
    e345:	48 89 d0             	mov    %rdx,%rax
    e348:	48 c1 e0 03          	shl    $0x3,%rax
    e34c:	48 01 d0             	add    %rdx,%rax
    e34f:	48 01 c8             	add    %rcx,%rax
    e352:	48 8d 14 c5 00 00 00 	lea    0x0(,%rax,8),%rdx
    e359:	00 
    e35a:	48 8d 05 e3 4e 00 00 	lea    0x4ee3(%rip),%rax        # 13244 <g_505+0x4>
    e361:	0f b6 04 02          	movzbl (%rdx,%rax,1),%eax
    e365:	0f b6 c0             	movzbl %al,%eax
    e368:	8b 55 fc             	mov    -0x4(%rbp),%edx
    e36b:	48 8d 35 0e 15 00 00 	lea    0x150e(%rip),%rsi        # f880 <g_1342+0x808>
    e372:	48 89 c7             	mov    %rax,%rdi
    e375:	e8 79 83 ff ff       	callq  66f3 <transparent_crc>
    e37a:	83 7d fc 00          	cmpl   $0x0,-0x4(%rbp)
    e37e:	74 19                	je     e399 <main+0x6c9>
    e380:	8b 55 f4             	mov    -0xc(%rbp),%edx
    e383:	8b 45 f0             	mov    -0x10(%rbp),%eax
    e386:	89 c6                	mov    %eax,%esi
    e388:	48 8d 3d 46 14 00 00 	lea    0x1446(%rip),%rdi        # f7d5 <g_1342+0x75d>
    e38f:	b8 00 00 00 00       	mov    $0x0,%eax
    e394:	e8 e7 6c ff ff       	callq  5080 <printf@plt>
    e399:	83 45 f4 01          	addl   $0x1,-0xc(%rbp)
    e39d:	83 7d f4 08          	cmpl   $0x8,-0xc(%rbp)
    e3a1:	0f 8e 53 ff ff ff    	jle    e2fa <main+0x62a>
    e3a7:	83 45 f0 01          	addl   $0x1,-0x10(%rbp)
    e3ab:	83 7d f0 07          	cmpl   $0x7,-0x10(%rbp)
    e3af:	0f 8e 39 ff ff ff    	jle    e2ee <main+0x61e>
    e3b5:	c7 45 f0 00 00 00 00 	movl   $0x0,-0x10(%rbp)
    e3bc:	eb 78                	jmp    e436 <main+0x766>
    e3be:	8b 45 f0             	mov    -0x10(%rbp),%eax
    e3c1:	48 98                	cltq   
    e3c3:	48 8d 14 c5 00 00 00 	lea    0x0(,%rax,8),%rdx
    e3ca:	00 
    e3cb:	48 8d 05 ae 50 00 00 	lea    0x50ae(%rip),%rax        # 13480 <g_506>
    e3d2:	8b 04 02             	mov    (%rdx,%rax,1),%eax
    e3d5:	48 98                	cltq   
    e3d7:	8b 55 fc             	mov    -0x4(%rbp),%edx
    e3da:	48 8d 35 ae 14 00 00 	lea    0x14ae(%rip),%rsi        # f88f <g_1342+0x817>
    e3e1:	48 89 c7             	mov    %rax,%rdi
    e3e4:	e8 0a 83 ff ff       	callq  66f3 <transparent_crc>
    e3e9:	8b 45 f0             	mov    -0x10(%rbp),%eax
    e3ec:	48 98                	cltq   
    e3ee:	48 8d 14 c5 00 00 00 	lea    0x0(,%rax,8),%rdx
    e3f5:	00 
    e3f6:	48 8d 05 87 50 00 00 	lea    0x5087(%rip),%rax        # 13484 <g_506+0x4>
    e3fd:	0f b6 04 02          	movzbl (%rdx,%rax,1),%eax
    e401:	0f b6 c0             	movzbl %al,%eax
    e404:	8b 55 fc             	mov    -0x4(%rbp),%edx
    e407:	48 8d 35 8d 14 00 00 	lea    0x148d(%rip),%rsi        # f89b <g_1342+0x823>
    e40e:	48 89 c7             	mov    %rax,%rdi
    e411:	e8 dd 82 ff ff       	callq  66f3 <transparent_crc>
    e416:	83 7d fc 00          	cmpl   $0x0,-0x4(%rbp)
    e41a:	74 16                	je     e432 <main+0x762>
    e41c:	8b 45 f0             	mov    -0x10(%rbp),%eax
    e41f:	89 c6                	mov    %eax,%esi
    e421:	48 8d 3d 68 13 00 00 	lea    0x1368(%rip),%rdi        # f790 <g_1342+0x718>
    e428:	b8 00 00 00 00       	mov    $0x0,%eax
    e42d:	e8 4e 6c ff ff       	callq  5080 <printf@plt>
    e432:	83 45 f0 01          	addl   $0x1,-0x10(%rbp)
    e436:	83 7d f0 04          	cmpl   $0x4,-0x10(%rbp)
    e43a:	7e 82                	jle    e3be <main+0x6ee>
    e43c:	8b 05 66 50 00 00    	mov    0x5066(%rip),%eax        # 134a8 <g_507>
    e442:	48 98                	cltq   
    e444:	8b 55 fc             	mov    -0x4(%rbp),%edx
    e447:	48 8d 35 59 14 00 00 	lea    0x1459(%rip),%rsi        # f8a7 <g_1342+0x82f>
    e44e:	48 89 c7             	mov    %rax,%rdi
    e451:	e8 9d 82 ff ff       	callq  66f3 <transparent_crc>
    e456:	0f b6 05 4f 50 00 00 	movzbl 0x504f(%rip),%eax        # 134ac <g_507+0x4>
    e45d:	0f b6 c0             	movzbl %al,%eax
    e460:	8b 55 fc             	mov    -0x4(%rbp),%edx
    e463:	48 8d 35 46 14 00 00 	lea    0x1446(%rip),%rsi        # f8b0 <g_1342+0x838>
    e46a:	48 89 c7             	mov    %rax,%rdi
    e46d:	e8 81 82 ff ff       	callq  66f3 <transparent_crc>
    e472:	c7 45 f0 00 00 00 00 	movl   $0x0,-0x10(%rbp)
    e479:	e9 bb 00 00 00       	jmpq   e539 <main+0x869>
    e47e:	c7 45 f4 00 00 00 00 	movl   $0x0,-0xc(%rbp)
    e485:	e9 a1 00 00 00       	jmpq   e52b <main+0x85b>
    e48a:	8b 45 f4             	mov    -0xc(%rbp),%eax
    e48d:	48 63 c8             	movslq %eax,%rcx
    e490:	8b 45 f0             	mov    -0x10(%rbp),%eax
    e493:	48 63 d0             	movslq %eax,%rdx
    e496:	48 89 d0             	mov    %rdx,%rax
    e499:	48 01 c0             	add    %rax,%rax
    e49c:	48 01 d0             	add    %rdx,%rax
    e49f:	48 01 c8             	add    %rcx,%rax
    e4a2:	48 8d 14 c5 00 00 00 	lea    0x0(,%rax,8),%rdx
    e4a9:	00 
    e4aa:	48 8d 05 0f 50 00 00 	lea    0x500f(%rip),%rax        # 134c0 <g_508>
    e4b1:	8b 04 02             	mov    (%rdx,%rax,1),%eax
    e4b4:	48 98                	cltq   
    e4b6:	8b 55 fc             	mov    -0x4(%rbp),%edx
    e4b9:	48 8d 35 f9 13 00 00 	lea    0x13f9(%rip),%rsi        # f8b9 <g_1342+0x841>
    e4c0:	48 89 c7             	mov    %rax,%rdi
    e4c3:	e8 2b 82 ff ff       	callq  66f3 <transparent_crc>
    e4c8:	8b 45 f4             	mov    -0xc(%rbp),%eax
    e4cb:	48 63 c8             	movslq %eax,%rcx
    e4ce:	8b 45 f0             	mov    -0x10(%rbp),%eax
    e4d1:	48 63 d0             	movslq %eax,%rdx
    e4d4:	48 89 d0             	mov    %rdx,%rax
    e4d7:	48 01 c0             	add    %rax,%rax
    e4da:	48 01 d0             	add    %rdx,%rax
    e4dd:	48 01 c8             	add    %rcx,%rax
    e4e0:	48 8d 14 c5 00 00 00 	lea    0x0(,%rax,8),%rdx
    e4e7:	00 
    e4e8:	48 8d 05 d5 4f 00 00 	lea    0x4fd5(%rip),%rax        # 134c4 <g_508+0x4>
    e4ef:	0f b6 04 02          	movzbl (%rdx,%rax,1),%eax
    e4f3:	0f b6 c0             	movzbl %al,%eax
    e4f6:	8b 55 fc             	mov    -0x4(%rbp),%edx
    e4f9:	48 8d 35 c8 13 00 00 	lea    0x13c8(%rip),%rsi        # f8c8 <g_1342+0x850>
    e500:	48 89 c7             	mov    %rax,%rdi
    e503:	e8 eb 81 ff ff       	callq  66f3 <transparent_crc>
    e508:	83 7d fc 00          	cmpl   $0x0,-0x4(%rbp)
    e50c:	74 19                	je     e527 <main+0x857>
    e50e:	8b 55 f4             	mov    -0xc(%rbp),%edx
    e511:	8b 45 f0             	mov    -0x10(%rbp),%eax
    e514:	89 c6                	mov    %eax,%esi
    e516:	48 8d 3d b8 12 00 00 	lea    0x12b8(%rip),%rdi        # f7d5 <g_1342+0x75d>
    e51d:	b8 00 00 00 00       	mov    $0x0,%eax
    e522:	e8 59 6b ff ff       	callq  5080 <printf@plt>
    e527:	83 45 f4 01          	addl   $0x1,-0xc(%rbp)
    e52b:	83 7d f4 02          	cmpl   $0x2,-0xc(%rbp)
    e52f:	0f 8e 55 ff ff ff    	jle    e48a <main+0x7ba>
    e535:	83 45 f0 01          	addl   $0x1,-0x10(%rbp)
    e539:	83 7d f0 02          	cmpl   $0x2,-0x10(%rbp)
    e53d:	0f 8e 3b ff ff ff    	jle    e47e <main+0x7ae>
    e543:	8b 05 bf 4f 00 00    	mov    0x4fbf(%rip),%eax        # 13508 <g_509>
    e549:	48 98                	cltq   
    e54b:	8b 55 fc             	mov    -0x4(%rbp),%edx
    e54e:	48 8d 35 82 13 00 00 	lea    0x1382(%rip),%rsi        # f8d7 <g_1342+0x85f>
    e555:	48 89 c7             	mov    %rax,%rdi
    e558:	e8 96 81 ff ff       	callq  66f3 <transparent_crc>
    e55d:	0f b6 05 a8 4f 00 00 	movzbl 0x4fa8(%rip),%eax        # 1350c <g_509+0x4>
    e564:	0f b6 c0             	movzbl %al,%eax
    e567:	8b 55 fc             	mov    -0x4(%rbp),%edx
    e56a:	48 8d 35 6f 13 00 00 	lea    0x136f(%rip),%rsi        # f8e0 <g_1342+0x868>
    e571:	48 89 c7             	mov    %rax,%rdi
    e574:	e8 7a 81 ff ff       	callq  66f3 <transparent_crc>
    e579:	8b 05 91 4f 00 00    	mov    0x4f91(%rip),%eax        # 13510 <g_510>
    e57f:	48 98                	cltq   
    e581:	8b 55 fc             	mov    -0x4(%rbp),%edx
    e584:	48 8d 35 5e 13 00 00 	lea    0x135e(%rip),%rsi        # f8e9 <g_1342+0x871>
    e58b:	48 89 c7             	mov    %rax,%rdi
    e58e:	e8 60 81 ff ff       	callq  66f3 <transparent_crc>
    e593:	0f b6 05 7a 4f 00 00 	movzbl 0x4f7a(%rip),%eax        # 13514 <g_510+0x4>
    e59a:	0f b6 c0             	movzbl %al,%eax
    e59d:	8b 55 fc             	mov    -0x4(%rbp),%edx
    e5a0:	48 8d 35 4b 13 00 00 	lea    0x134b(%rip),%rsi        # f8f2 <g_1342+0x87a>
    e5a7:	48 89 c7             	mov    %rax,%rdi
    e5aa:	e8 44 81 ff ff       	callq  66f3 <transparent_crc>
    e5af:	8b 05 63 4f 00 00    	mov    0x4f63(%rip),%eax        # 13518 <g_618>
    e5b5:	48 98                	cltq   
    e5b7:	8b 55 fc             	mov    -0x4(%rbp),%edx
    e5ba:	48 8d 35 3a 13 00 00 	lea    0x133a(%rip),%rsi        # f8fb <g_1342+0x883>
    e5c1:	48 89 c7             	mov    %rax,%rdi
    e5c4:	e8 2a 81 ff ff       	callq  66f3 <transparent_crc>
    e5c9:	0f b6 05 4c 4f 00 00 	movzbl 0x4f4c(%rip),%eax        # 1351c <g_618+0x4>
    e5d0:	0f b6 c0             	movzbl %al,%eax
    e5d3:	8b 55 fc             	mov    -0x4(%rbp),%edx
    e5d6:	48 8d 35 27 13 00 00 	lea    0x1327(%rip),%rsi        # f904 <g_1342+0x88c>
    e5dd:	48 89 c7             	mov    %rax,%rdi
    e5e0:	e8 0e 81 ff ff       	callq  66f3 <transparent_crc>
    e5e5:	0f b7 05 34 4f 00 00 	movzwl 0x4f34(%rip),%eax        # 13520 <g_621>
    e5ec:	0f b7 c0             	movzwl %ax,%eax
    e5ef:	8b 55 fc             	mov    -0x4(%rbp),%edx
    e5f2:	48 8d 35 14 13 00 00 	lea    0x1314(%rip),%rsi        # f90d <g_1342+0x895>
    e5f9:	48 89 c7             	mov    %rax,%rdi
    e5fc:	e8 f2 80 ff ff       	callq  66f3 <transparent_crc>
    e601:	8b 05 1d 4f 00 00    	mov    0x4f1d(%rip),%eax        # 13524 <g_659>
    e607:	48 98                	cltq   
    e609:	8b 55 fc             	mov    -0x4(%rbp),%edx
    e60c:	48 8d 35 00 13 00 00 	lea    0x1300(%rip),%rsi        # f913 <g_1342+0x89b>
    e613:	48 89 c7             	mov    %rax,%rdi
    e616:	e8 d8 80 ff ff       	callq  66f3 <transparent_crc>
    e61b:	48 8b 05 06 4f 00 00 	mov    0x4f06(%rip),%rax        # 13528 <g_720>
    e622:	48 89 c1             	mov    %rax,%rcx
    e625:	8b 45 fc             	mov    -0x4(%rbp),%eax
    e628:	89 c2                	mov    %eax,%edx
    e62a:	48 8d 35 e8 12 00 00 	lea    0x12e8(%rip),%rsi        # f919 <g_1342+0x8a1>
    e631:	48 89 cf             	mov    %rcx,%rdi
    e634:	e8 ba 80 ff ff       	callq  66f3 <transparent_crc>
    e639:	8b 05 f1 4e 00 00    	mov    0x4ef1(%rip),%eax        # 13530 <g_741>
    e63f:	48 98                	cltq   
    e641:	8b 55 fc             	mov    -0x4(%rbp),%edx
    e644:	48 8d 35 d4 12 00 00 	lea    0x12d4(%rip),%rsi        # f91f <g_1342+0x8a7>
    e64b:	48 89 c7             	mov    %rax,%rdi
    e64e:	e8 a0 80 ff ff       	callq  66f3 <transparent_crc>
    e653:	0f b6 05 da 4e 00 00 	movzbl 0x4eda(%rip),%eax        # 13534 <g_741+0x4>
    e65a:	0f b6 c0             	movzbl %al,%eax
    e65d:	8b 55 fc             	mov    -0x4(%rbp),%edx
    e660:	48 8d 35 c1 12 00 00 	lea    0x12c1(%rip),%rsi        # f928 <g_1342+0x8b0>
    e667:	48 89 c7             	mov    %rax,%rdi
    e66a:	e8 84 80 ff ff       	callq  66f3 <transparent_crc>
    e66f:	48 8b 05 c2 4e 00 00 	mov    0x4ec2(%rip),%rax        # 13538 <g_769>
    e676:	8b 55 fc             	mov    -0x4(%rbp),%edx
    e679:	48 8d 35 b1 12 00 00 	lea    0x12b1(%rip),%rsi        # f931 <g_1342+0x8b9>
    e680:	48 89 c7             	mov    %rax,%rdi
    e683:	e8 6b 80 ff ff       	callq  66f3 <transparent_crc>
    e688:	b8 4c 8e ff ff       	mov    $0xffff8e4c,%eax
    e68d:	0f b7 c0             	movzwl %ax,%eax
    e690:	8b 55 fc             	mov    -0x4(%rbp),%edx
    e693:	48 8d 35 9d 12 00 00 	lea    0x129d(%rip),%rsi        # f937 <g_1342+0x8bf>
    e69a:	48 89 c7             	mov    %rax,%rdi
    e69d:	e8 51 80 ff ff       	callq  66f3 <transparent_crc>
    e6a2:	8b 05 98 4e 00 00    	mov    0x4e98(%rip),%eax        # 13540 <g_917>
    e6a8:	89 c1                	mov    %eax,%ecx
    e6aa:	8b 45 fc             	mov    -0x4(%rbp),%eax
    e6ad:	89 c2                	mov    %eax,%edx
    e6af:	48 8d 35 87 12 00 00 	lea    0x1287(%rip),%rsi        # f93d <g_1342+0x8c5>
    e6b6:	48 89 cf             	mov    %rcx,%rdi
    e6b9:	e8 35 80 ff ff       	callq  66f3 <transparent_crc>
    e6be:	8b 05 84 4e 00 00    	mov    0x4e84(%rip),%eax        # 13548 <g_956>
    e6c4:	48 98                	cltq   
    e6c6:	8b 55 fc             	mov    -0x4(%rbp),%edx
    e6c9:	48 8d 35 73 12 00 00 	lea    0x1273(%rip),%rsi        # f943 <g_1342+0x8cb>
    e6d0:	48 89 c7             	mov    %rax,%rdi
    e6d3:	e8 1b 80 ff ff       	callq  66f3 <transparent_crc>
    e6d8:	0f b6 05 6d 4e 00 00 	movzbl 0x4e6d(%rip),%eax        # 1354c <g_956+0x4>
    e6df:	0f b6 c0             	movzbl %al,%eax
    e6e2:	8b 55 fc             	mov    -0x4(%rbp),%edx
    e6e5:	48 8d 35 60 12 00 00 	lea    0x1260(%rip),%rsi        # f94c <g_1342+0x8d4>
    e6ec:	48 89 c7             	mov    %rax,%rdi
    e6ef:	e8 ff 7f ff ff       	callq  66f3 <transparent_crc>
    e6f4:	c7 45 f0 00 00 00 00 	movl   $0x0,-0x10(%rbp)
    e6fb:	e9 ad 00 00 00       	jmpq   e7ad <main+0xadd>
    e700:	c7 45 f4 00 00 00 00 	movl   $0x0,-0xc(%rbp)
    e707:	e9 93 00 00 00       	jmpq   e79f <main+0xacf>
    e70c:	8b 45 f4             	mov    -0xc(%rbp),%eax
    e70f:	48 98                	cltq   
    e711:	8b 55 f0             	mov    -0x10(%rbp),%edx
    e714:	48 63 d2             	movslq %edx,%rdx
    e717:	48 01 d2             	add    %rdx,%rdx
    e71a:	48 01 d0             	add    %rdx,%rax
    e71d:	48 8d 14 c5 00 00 00 	lea    0x0(,%rax,8),%rdx
    e724:	00 
    e725:	48 8d 05 24 4e 00 00 	lea    0x4e24(%rip),%rax        # 13550 <g_962>
    e72c:	8b 04 02             	mov    (%rdx,%rax,1),%eax
    e72f:	48 98                	cltq   
    e731:	8b 55 fc             	mov    -0x4(%rbp),%edx
    e734:	48 8d 35 1a 12 00 00 	lea    0x121a(%rip),%rsi        # f955 <g_1342+0x8dd>
    e73b:	48 89 c7             	mov    %rax,%rdi
    e73e:	e8 b0 7f ff ff       	callq  66f3 <transparent_crc>
    e743:	8b 45 f4             	mov    -0xc(%rbp),%eax
    e746:	48 98                	cltq   
    e748:	8b 55 f0             	mov    -0x10(%rbp),%edx
    e74b:	48 63 d2             	movslq %edx,%rdx
    e74e:	48 01 d2             	add    %rdx,%rdx
    e751:	48 01 d0             	add    %rdx,%rax
    e754:	48 8d 14 c5 00 00 00 	lea    0x0(,%rax,8),%rdx
    e75b:	00 
    e75c:	48 8d 05 f1 4d 00 00 	lea    0x4df1(%rip),%rax        # 13554 <g_962+0x4>
    e763:	0f b6 04 02          	movzbl (%rdx,%rax,1),%eax
    e767:	0f b6 c0             	movzbl %al,%eax
    e76a:	8b 55 fc             	mov    -0x4(%rbp),%edx
    e76d:	48 8d 35 f0 11 00 00 	lea    0x11f0(%rip),%rsi        # f964 <g_1342+0x8ec>
    e774:	48 89 c7             	mov    %rax,%rdi
    e777:	e8 77 7f ff ff       	callq  66f3 <transparent_crc>
    e77c:	83 7d fc 00          	cmpl   $0x0,-0x4(%rbp)
    e780:	74 19                	je     e79b <main+0xacb>
    e782:	8b 55 f4             	mov    -0xc(%rbp),%edx
    e785:	8b 45 f0             	mov    -0x10(%rbp),%eax
    e788:	89 c6                	mov    %eax,%esi
    e78a:	48 8d 3d 44 10 00 00 	lea    0x1044(%rip),%rdi        # f7d5 <g_1342+0x75d>
    e791:	b8 00 00 00 00       	mov    $0x0,%eax
    e796:	e8 e5 68 ff ff       	callq  5080 <printf@plt>
    e79b:	83 45 f4 01          	addl   $0x1,-0xc(%rbp)
    e79f:	83 7d f4 01          	cmpl   $0x1,-0xc(%rbp)
    e7a3:	0f 8e 63 ff ff ff    	jle    e70c <main+0xa3c>
    e7a9:	83 45 f0 01          	addl   $0x1,-0x10(%rbp)
    e7ad:	83 7d f0 00          	cmpl   $0x0,-0x10(%rbp)
    e7b1:	0f 8e 49 ff ff ff    	jle    e700 <main+0xa30>
    e7b7:	c7 45 f0 00 00 00 00 	movl   $0x0,-0x10(%rbp)
    e7be:	e9 e4 00 00 00       	jmpq   e8a7 <main+0xbd7>
    e7c3:	c7 45 f4 00 00 00 00 	movl   $0x0,-0xc(%rbp)
    e7ca:	e9 ca 00 00 00       	jmpq   e899 <main+0xbc9>
    e7cf:	c7 45 f8 00 00 00 00 	movl   $0x0,-0x8(%rbp)
    e7d6:	e9 b0 00 00 00       	jmpq   e88b <main+0xbbb>
    e7db:	8b 45 f8             	mov    -0x8(%rbp),%eax
    e7de:	48 98                	cltq   
    e7e0:	8b 55 f0             	mov    -0x10(%rbp),%edx
    e7e3:	48 63 ca             	movslq %edx,%rcx
    e7e6:	8b 55 f4             	mov    -0xc(%rbp),%edx
    e7e9:	48 63 d2             	movslq %edx,%rdx
    e7ec:	48 01 c9             	add    %rcx,%rcx
    e7ef:	48 01 ca             	add    %rcx,%rdx
    e7f2:	48 c1 e2 02          	shl    $0x2,%rdx
    e7f6:	48 01 d0             	add    %rdx,%rax
    e7f9:	48 8d 14 c5 00 00 00 	lea    0x0(,%rax,8),%rdx
    e800:	00 
    e801:	48 8d 05 58 4d 00 00 	lea    0x4d58(%rip),%rax        # 13560 <g_975>
    e808:	8b 04 02             	mov    (%rdx,%rax,1),%eax
    e80b:	48 98                	cltq   
    e80d:	8b 55 fc             	mov    -0x4(%rbp),%edx
    e810:	48 8d 35 5c 11 00 00 	lea    0x115c(%rip),%rsi        # f973 <g_1342+0x8fb>
    e817:	48 89 c7             	mov    %rax,%rdi
    e81a:	e8 d4 7e ff ff       	callq  66f3 <transparent_crc>
    e81f:	8b 45 f8             	mov    -0x8(%rbp),%eax
    e822:	48 98                	cltq   
    e824:	8b 55 f0             	mov    -0x10(%rbp),%edx
    e827:	48 63 ca             	movslq %edx,%rcx
    e82a:	8b 55 f4             	mov    -0xc(%rbp),%edx
    e82d:	48 63 d2             	movslq %edx,%rdx
    e830:	48 01 c9             	add    %rcx,%rcx
    e833:	48 01 ca             	add    %rcx,%rdx
    e836:	48 c1 e2 02          	shl    $0x2,%rdx
    e83a:	48 01 d0             	add    %rdx,%rax
    e83d:	48 8d 14 c5 00 00 00 	lea    0x0(,%rax,8),%rdx
    e844:	00 
    e845:	48 8d 05 18 4d 00 00 	lea    0x4d18(%rip),%rax        # 13564 <g_975+0x4>
    e84c:	0f b6 04 02          	movzbl (%rdx,%rax,1),%eax
    e850:	0f b6 c0             	movzbl %al,%eax
    e853:	8b 55 fc             	mov    -0x4(%rbp),%edx
    e856:	48 8d 35 28 11 00 00 	lea    0x1128(%rip),%rsi        # f985 <g_1342+0x90d>
    e85d:	48 89 c7             	mov    %rax,%rdi
    e860:	e8 8e 7e ff ff       	callq  66f3 <transparent_crc>
    e865:	83 7d fc 00          	cmpl   $0x0,-0x4(%rbp)
    e869:	74 1c                	je     e887 <main+0xbb7>
    e86b:	8b 4d f8             	mov    -0x8(%rbp),%ecx
    e86e:	8b 55 f4             	mov    -0xc(%rbp),%edx
    e871:	8b 45 f0             	mov    -0x10(%rbp),%eax
    e874:	89 c6                	mov    %eax,%esi
    e876:	48 8d 3d 36 0f 00 00 	lea    0xf36(%rip),%rdi        # f7b3 <g_1342+0x73b>
    e87d:	b8 00 00 00 00       	mov    $0x0,%eax
    e882:	e8 f9 67 ff ff       	callq  5080 <printf@plt>
    e887:	83 45 f8 01          	addl   $0x1,-0x8(%rbp)
    e88b:	83 7d f8 03          	cmpl   $0x3,-0x8(%rbp)
    e88f:	0f 8e 46 ff ff ff    	jle    e7db <main+0xb0b>
    e895:	83 45 f4 01          	addl   $0x1,-0xc(%rbp)
    e899:	83 7d f4 01          	cmpl   $0x1,-0xc(%rbp)
    e89d:	0f 8e 2c ff ff ff    	jle    e7cf <main+0xaff>
    e8a3:	83 45 f0 01          	addl   $0x1,-0x10(%rbp)
    e8a7:	83 7d f0 03          	cmpl   $0x3,-0x10(%rbp)
    e8ab:	0f 8e 12 ff ff ff    	jle    e7c3 <main+0xaf3>
    e8b1:	0f b6 05 a8 4d 00 00 	movzbl 0x4da8(%rip),%eax        # 13660 <g_1003>
    e8b8:	48 0f be c0          	movsbq %al,%rax
    e8bc:	8b 55 fc             	mov    -0x4(%rbp),%edx
    e8bf:	48 8d 35 d1 10 00 00 	lea    0x10d1(%rip),%rsi        # f997 <g_1342+0x91f>
    e8c6:	48 89 c7             	mov    %rax,%rdi
    e8c9:	e8 25 7e ff ff       	callq  66f3 <transparent_crc>
    e8ce:	0f b7 05 8d 4d 00 00 	movzwl 0x4d8d(%rip),%eax        # 13662 <g_1103>
    e8d5:	48 0f bf c0          	movswq %ax,%rax
    e8d9:	8b 55 fc             	mov    -0x4(%rbp),%edx
    e8dc:	48 8d 35 bb 10 00 00 	lea    0x10bb(%rip),%rsi        # f99e <g_1342+0x926>
    e8e3:	48 89 c7             	mov    %rax,%rdi
    e8e6:	e8 08 7e ff ff       	callq  66f3 <transparent_crc>
    e8eb:	c7 45 f0 00 00 00 00 	movl   $0x0,-0x10(%rbp)
    e8f2:	eb 78                	jmp    e96c <main+0xc9c>
    e8f4:	8b 45 f0             	mov    -0x10(%rbp),%eax
    e8f7:	48 98                	cltq   
    e8f9:	48 8d 14 c5 00 00 00 	lea    0x0(,%rax,8),%rdx
    e900:	00 
    e901:	48 8d 05 58 07 00 00 	lea    0x758(%rip),%rax        # f060 <g_1153>
    e908:	8b 04 02             	mov    (%rdx,%rax,1),%eax
    e90b:	48 98                	cltq   
    e90d:	8b 55 fc             	mov    -0x4(%rbp),%edx
    e910:	48 8d 35 8e 10 00 00 	lea    0x108e(%rip),%rsi        # f9a5 <g_1342+0x92d>
    e917:	48 89 c7             	mov    %rax,%rdi
    e91a:	e8 d4 7d ff ff       	callq  66f3 <transparent_crc>
    e91f:	8b 45 f0             	mov    -0x10(%rbp),%eax
    e922:	48 98                	cltq   
    e924:	48 8d 14 c5 00 00 00 	lea    0x0(,%rax,8),%rdx
    e92b:	00 
    e92c:	48 8d 05 31 07 00 00 	lea    0x731(%rip),%rax        # f064 <g_1153+0x4>
    e933:	0f b6 04 02          	movzbl (%rdx,%rax,1),%eax
    e937:	0f b6 c0             	movzbl %al,%eax
    e93a:	8b 55 fc             	mov    -0x4(%rbp),%edx
    e93d:	48 8d 35 6e 10 00 00 	lea    0x106e(%rip),%rsi        # f9b2 <g_1342+0x93a>
    e944:	48 89 c7             	mov    %rax,%rdi
    e947:	e8 a7 7d ff ff       	callq  66f3 <transparent_crc>
    e94c:	83 7d fc 00          	cmpl   $0x0,-0x4(%rbp)
    e950:	74 16                	je     e968 <main+0xc98>
    e952:	8b 45 f0             	mov    -0x10(%rbp),%eax
    e955:	89 c6                	mov    %eax,%esi
    e957:	48 8d 3d 32 0e 00 00 	lea    0xe32(%rip),%rdi        # f790 <g_1342+0x718>
    e95e:	b8 00 00 00 00       	mov    $0x0,%eax
    e963:	e8 18 67 ff ff       	callq  5080 <printf@plt>
    e968:	83 45 f0 01          	addl   $0x1,-0x10(%rbp)
    e96c:	83 7d f0 02          	cmpl   $0x2,-0x10(%rbp)
    e970:	7e 82                	jle    e8f4 <main+0xc24>
    e972:	8b 05 f0 4c 00 00    	mov    0x4cf0(%rip),%eax        # 13668 <g_1176>
    e978:	48 98                	cltq   
    e97a:	8b 55 fc             	mov    -0x4(%rbp),%edx
    e97d:	48 8d 35 3b 10 00 00 	lea    0x103b(%rip),%rsi        # f9bf <g_1342+0x947>
    e984:	48 89 c7             	mov    %rax,%rdi
    e987:	e8 67 7d ff ff       	callq  66f3 <transparent_crc>
    e98c:	0f b6 05 d9 4c 00 00 	movzbl 0x4cd9(%rip),%eax        # 1366c <g_1176+0x4>
    e993:	0f b6 c0             	movzbl %al,%eax
    e996:	8b 55 fc             	mov    -0x4(%rbp),%edx
    e999:	48 8d 35 29 10 00 00 	lea    0x1029(%rip),%rsi        # f9c9 <g_1342+0x951>
    e9a0:	48 89 c7             	mov    %rax,%rdi
    e9a3:	e8 4b 7d ff ff       	callq  66f3 <transparent_crc>
    e9a8:	8b 05 c2 4c 00 00    	mov    0x4cc2(%rip),%eax        # 13670 <g_1182>
    e9ae:	89 c1                	mov    %eax,%ecx
    e9b0:	8b 45 fc             	mov    -0x4(%rbp),%eax
    e9b3:	89 c2                	mov    %eax,%edx
    e9b5:	48 8d 35 17 10 00 00 	lea    0x1017(%rip),%rsi        # f9d3 <g_1342+0x95b>
    e9bc:	48 89 cf             	mov    %rcx,%rdi
    e9bf:	e8 2f 7d ff ff       	callq  66f3 <transparent_crc>
    e9c4:	0f b6 05 a9 4c 00 00 	movzbl 0x4ca9(%rip),%eax        # 13674 <g_1189>
    e9cb:	0f b6 c0             	movzbl %al,%eax
    e9ce:	8b 55 fc             	mov    -0x4(%rbp),%edx
    e9d1:	48 8d 35 02 10 00 00 	lea    0x1002(%rip),%rsi        # f9da <g_1342+0x962>
    e9d8:	48 89 c7             	mov    %rax,%rdi
    e9db:	e8 13 7d ff ff       	callq  66f3 <transparent_crc>
    e9e0:	c7 45 f0 00 00 00 00 	movl   $0x0,-0x10(%rbp)
    e9e7:	e9 af 00 00 00       	jmpq   ea9b <main+0xdcb>
    e9ec:	c7 45 f4 00 00 00 00 	movl   $0x0,-0xc(%rbp)
    e9f3:	e9 95 00 00 00       	jmpq   ea8d <main+0xdbd>
    e9f8:	8b 45 f4             	mov    -0xc(%rbp),%eax
    e9fb:	48 98                	cltq   
    e9fd:	8b 55 f0             	mov    -0x10(%rbp),%edx
    ea00:	48 63 d2             	movslq %edx,%rdx
    ea03:	48 c1 e2 02          	shl    $0x2,%rdx
    ea07:	48 01 d0             	add    %rdx,%rax
    ea0a:	48 8d 14 c5 00 00 00 	lea    0x0(,%rax,8),%rdx
    ea11:	00 
    ea12:	48 8d 05 67 4c 00 00 	lea    0x4c67(%rip),%rax        # 13680 <g_1338>
    ea19:	8b 04 02             	mov    (%rdx,%rax,1),%eax
    ea1c:	48 98                	cltq   
    ea1e:	8b 55 fc             	mov    -0x4(%rbp),%edx
    ea21:	48 8d 35 b9 0f 00 00 	lea    0xfb9(%rip),%rsi        # f9e1 <g_1342+0x969>
    ea28:	48 89 c7             	mov    %rax,%rdi
    ea2b:	e8 c3 7c ff ff       	callq  66f3 <transparent_crc>
    ea30:	8b 45 f4             	mov    -0xc(%rbp),%eax
    ea33:	48 98                	cltq   
    ea35:	8b 55 f0             	mov    -0x10(%rbp),%edx
    ea38:	48 63 d2             	movslq %edx,%rdx
    ea3b:	48 c1 e2 02          	shl    $0x2,%rdx
    ea3f:	48 01 d0             	add    %rdx,%rax
    ea42:	48 8d 14 c5 00 00 00 	lea    0x0(,%rax,8),%rdx
    ea49:	00 
    ea4a:	48 8d 05 33 4c 00 00 	lea    0x4c33(%rip),%rax        # 13684 <g_1338+0x4>
    ea51:	0f b6 04 02          	movzbl (%rdx,%rax,1),%eax
    ea55:	0f b6 c0             	movzbl %al,%eax
    ea58:	8b 55 fc             	mov    -0x4(%rbp),%edx
    ea5b:	48 8d 35 8f 0f 00 00 	lea    0xf8f(%rip),%rsi        # f9f1 <g_1342+0x979>
    ea62:	48 89 c7             	mov    %rax,%rdi
    ea65:	e8 89 7c ff ff       	callq  66f3 <transparent_crc>
    ea6a:	83 7d fc 00          	cmpl   $0x0,-0x4(%rbp)
    ea6e:	74 19                	je     ea89 <main+0xdb9>
    ea70:	8b 55 f4             	mov    -0xc(%rbp),%edx
    ea73:	8b 45 f0             	mov    -0x10(%rbp),%eax
    ea76:	89 c6                	mov    %eax,%esi
    ea78:	48 8d 3d 56 0d 00 00 	lea    0xd56(%rip),%rdi        # f7d5 <g_1342+0x75d>
    ea7f:	b8 00 00 00 00       	mov    $0x0,%eax
    ea84:	e8 f7 65 ff ff       	callq  5080 <printf@plt>
    ea89:	83 45 f4 01          	addl   $0x1,-0xc(%rbp)
    ea8d:	83 7d f4 03          	cmpl   $0x3,-0xc(%rbp)
    ea91:	0f 8e 61 ff ff ff    	jle    e9f8 <main+0xd28>
    ea97:	83 45 f0 01          	addl   $0x1,-0x10(%rbp)
    ea9b:	83 7d f0 09          	cmpl   $0x9,-0x10(%rbp)
    ea9f:	0f 8e 47 ff ff ff    	jle    e9ec <main+0xd1c>
    eaa5:	b8 f6 fe bd 31       	mov    $0x31bdfef6,%eax
    eaaa:	48 98                	cltq   
    eaac:	8b 55 fc             	mov    -0x4(%rbp),%edx
    eaaf:	48 8d 35 4b 0f 00 00 	lea    0xf4b(%rip),%rsi        # fa01 <g_1342+0x989>
    eab6:	48 89 c7             	mov    %rax,%rdi
    eab9:	e8 35 7c ff ff       	callq  66f3 <transparent_crc>
    eabe:	8b 05 fc 4c 00 00    	mov    0x4cfc(%rip),%eax        # 137c0 <g_1363>
    eac4:	48 98                	cltq   
    eac6:	8b 55 fc             	mov    -0x4(%rbp),%edx
    eac9:	48 8d 35 38 0f 00 00 	lea    0xf38(%rip),%rsi        # fa08 <g_1342+0x990>
    ead0:	48 89 c7             	mov    %rax,%rdi
    ead3:	e8 1b 7c ff ff       	callq  66f3 <transparent_crc>
    ead8:	0f b6 05 e5 4c 00 00 	movzbl 0x4ce5(%rip),%eax        # 137c4 <g_1363+0x4>
    eadf:	0f b6 c0             	movzbl %al,%eax
    eae2:	8b 55 fc             	mov    -0x4(%rbp),%edx
    eae5:	48 8d 35 26 0f 00 00 	lea    0xf26(%rip),%rsi        # fa12 <g_1342+0x99a>
    eaec:	48 89 c7             	mov    %rax,%rdi
    eaef:	e8 ff 7b ff ff       	callq  66f3 <transparent_crc>
    eaf4:	c7 45 f0 00 00 00 00 	movl   $0x0,-0x10(%rbp)
    eafb:	eb 46                	jmp    eb43 <main+0xe73>
    eafd:	8b 45 f0             	mov    -0x10(%rbp),%eax
    eb00:	48 98                	cltq   
    eb02:	48 8d 15 bf 4c 00 00 	lea    0x4cbf(%rip),%rdx        # 137c8 <g_1431>
    eb09:	0f b6 04 10          	movzbl (%rax,%rdx,1),%eax
    eb0d:	48 0f be c0          	movsbq %al,%rax
    eb11:	8b 55 fc             	mov    -0x4(%rbp),%edx
    eb14:	48 8d 35 01 0f 00 00 	lea    0xf01(%rip),%rsi        # fa1c <g_1342+0x9a4>
    eb1b:	48 89 c7             	mov    %rax,%rdi
    eb1e:	e8 d0 7b ff ff       	callq  66f3 <transparent_crc>
    eb23:	83 7d fc 00          	cmpl   $0x0,-0x4(%rbp)
    eb27:	74 16                	je     eb3f <main+0xe6f>
    eb29:	8b 45 f0             	mov    -0x10(%rbp),%eax
    eb2c:	89 c6                	mov    %eax,%esi
    eb2e:	48 8d 3d 5b 0c 00 00 	lea    0xc5b(%rip),%rdi        # f790 <g_1342+0x718>
    eb35:	b8 00 00 00 00       	mov    $0x0,%eax
    eb3a:	e8 41 65 ff ff       	callq  5080 <printf@plt>
    eb3f:	83 45 f0 01          	addl   $0x1,-0x10(%rbp)
    eb43:	83 7d f0 01          	cmpl   $0x1,-0x10(%rbp)
    eb47:	7e b4                	jle    eafd <main+0xe2d>
    eb49:	c7 45 f0 00 00 00 00 	movl   $0x0,-0x10(%rbp)
    eb50:	e9 92 00 00 00       	jmpq   ebe7 <main+0xf17>
    eb55:	c7 45 f4 00 00 00 00 	movl   $0x0,-0xc(%rbp)
    eb5c:	eb 7b                	jmp    ebd9 <main+0xf09>
    eb5e:	c7 45 f8 00 00 00 00 	movl   $0x0,-0x8(%rbp)
    eb65:	eb 68                	jmp    ebcf <main+0xeff>
    eb67:	8b 45 f8             	mov    -0x8(%rbp),%eax
    eb6a:	48 98                	cltq   
    eb6c:	8b 55 f0             	mov    -0x10(%rbp),%edx
    eb6f:	48 63 ca             	movslq %edx,%rcx
    eb72:	8b 55 f4             	mov    -0xc(%rbp),%edx
    eb75:	48 63 d2             	movslq %edx,%rdx
    eb78:	48 01 c9             	add    %rcx,%rcx
    eb7b:	48 01 ca             	add    %rcx,%rdx
    eb7e:	48 c1 e2 02          	shl    $0x2,%rdx
    eb82:	48 01 d0             	add    %rdx,%rax
    eb85:	48 8d 14 00          	lea    (%rax,%rax,1),%rdx
    eb89:	48 8d 05 50 4c 00 00 	lea    0x4c50(%rip),%rax        # 137e0 <g_1461>
    eb90:	0f b7 04 02          	movzwl (%rdx,%rax,1),%eax
    eb94:	0f b7 c0             	movzwl %ax,%eax
    eb97:	8b 55 fc             	mov    -0x4(%rbp),%edx
    eb9a:	48 8d 35 85 0e 00 00 	lea    0xe85(%rip),%rsi        # fa26 <g_1342+0x9ae>
    eba1:	48 89 c7             	mov    %rax,%rdi
    eba4:	e8 4a 7b ff ff       	callq  66f3 <transparent_crc>
    eba9:	83 7d fc 00          	cmpl   $0x0,-0x4(%rbp)
    ebad:	74 1c                	je     ebcb <main+0xefb>
    ebaf:	8b 4d f8             	mov    -0x8(%rbp),%ecx
    ebb2:	8b 55 f4             	mov    -0xc(%rbp),%edx
    ebb5:	8b 45 f0             	mov    -0x10(%rbp),%eax
    ebb8:	89 c6                	mov    %eax,%esi
    ebba:	48 8d 3d f2 0b 00 00 	lea    0xbf2(%rip),%rdi        # f7b3 <g_1342+0x73b>
    ebc1:	b8 00 00 00 00       	mov    $0x0,%eax
    ebc6:	e8 b5 64 ff ff       	callq  5080 <printf@plt>
    ebcb:	83 45 f8 01          	addl   $0x1,-0x8(%rbp)
    ebcf:	83 7d f8 03          	cmpl   $0x3,-0x8(%rbp)
    ebd3:	7e 92                	jle    eb67 <main+0xe97>
    ebd5:	83 45 f4 01          	addl   $0x1,-0xc(%rbp)
    ebd9:	83 7d f4 01          	cmpl   $0x1,-0xc(%rbp)
    ebdd:	0f 8e 7b ff ff ff    	jle    eb5e <main+0xe8e>
    ebe3:	83 45 f0 01          	addl   $0x1,-0x10(%rbp)
    ebe7:	83 7d f0 03          	cmpl   $0x3,-0x10(%rbp)
    ebeb:	0f 8e 64 ff ff ff    	jle    eb55 <main+0xe85>
    ebf1:	0f b7 05 28 4c 00 00 	movzwl 0x4c28(%rip),%eax        # 13820 <g_1466>
    ebf8:	0f b7 c0             	movzwl %ax,%eax
    ebfb:	8b 55 fc             	mov    -0x4(%rbp),%edx
    ebfe:	48 8d 35 31 0e 00 00 	lea    0xe31(%rip),%rsi        # fa36 <g_1342+0x9be>
    ec05:	48 89 c7             	mov    %rax,%rdi
    ec08:	e8 e6 7a ff ff       	callq  66f3 <transparent_crc>
    ec0d:	48 8b 05 14 4c 00 00 	mov    0x4c14(%rip),%rax        # 13828 <g_1474>
    ec14:	48 89 c1             	mov    %rax,%rcx
    ec17:	8b 45 fc             	mov    -0x4(%rbp),%eax
    ec1a:	89 c2                	mov    %eax,%edx
    ec1c:	48 8d 35 1a 0e 00 00 	lea    0xe1a(%rip),%rsi        # fa3d <g_1342+0x9c5>
    ec23:	48 89 cf             	mov    %rcx,%rdi
    ec26:	e8 c8 7a ff ff       	callq  66f3 <transparent_crc>
    ec2b:	c7 45 f0 00 00 00 00 	movl   $0x0,-0x10(%rbp)
    ec32:	eb 4b                	jmp    ec7f <main+0xfaf>
    ec34:	8b 45 f0             	mov    -0x10(%rbp),%eax
    ec37:	48 98                	cltq   
    ec39:	48 8d 14 85 00 00 00 	lea    0x0(,%rax,4),%rdx
    ec40:	00 
    ec41:	48 8d 05 e8 4b 00 00 	lea    0x4be8(%rip),%rax        # 13830 <g_1482>
    ec48:	8b 04 02             	mov    (%rdx,%rax,1),%eax
    ec4b:	48 98                	cltq   
    ec4d:	8b 55 fc             	mov    -0x4(%rbp),%edx
    ec50:	48 8d 35 ed 0d 00 00 	lea    0xded(%rip),%rsi        # fa44 <g_1342+0x9cc>
    ec57:	48 89 c7             	mov    %rax,%rdi
    ec5a:	e8 94 7a ff ff       	callq  66f3 <transparent_crc>
    ec5f:	83 7d fc 00          	cmpl   $0x0,-0x4(%rbp)
    ec63:	74 16                	je     ec7b <main+0xfab>
    ec65:	8b 45 f0             	mov    -0x10(%rbp),%eax
    ec68:	89 c6                	mov    %eax,%esi
    ec6a:	48 8d 3d 1f 0b 00 00 	lea    0xb1f(%rip),%rdi        # f790 <g_1342+0x718>
    ec71:	b8 00 00 00 00       	mov    $0x0,%eax
    ec76:	e8 05 64 ff ff       	callq  5080 <printf@plt>
    ec7b:	83 45 f0 01          	addl   $0x1,-0x10(%rbp)
    ec7f:	83 7d f0 00          	cmpl   $0x0,-0x10(%rbp)
    ec83:	7e af                	jle    ec34 <main+0xf64>
    ec85:	8b 05 95 43 00 00    	mov    0x4395(%rip),%eax        # 13020 <crc32_context>
    ec8b:	f7 d0                	not    %eax
    ec8d:	89 c2                	mov    %eax,%edx
    ec8f:	8b 45 fc             	mov    -0x4(%rbp),%eax
    ec92:	89 c6                	mov    %eax,%esi
    ec94:	89 d7                	mov    %edx,%edi
    ec96:	e8 f9 64 ff ff       	callq  5194 <platform_main_end>
    ec9b:	b8 00 00 00 00       	mov    $0x0,%eax
    eca0:	c9                   	leaveq 
    eca1:	c3                   	retq   
    eca2:	66 2e 0f 1f 84 00 00 	nopw   %cs:0x0(%rax,%rax,1)
    eca9:	00 00 00 
    ecac:	0f 1f 40 00          	nopl   0x0(%rax)

000000000000ecb0 <__libc_csu_init>:
    ecb0:	f3 0f 1e fa          	endbr64 
    ecb4:	41 57                	push   %r15
    ecb6:	4c 8d 3d 73 40 00 00 	lea    0x4073(%rip),%r15        # 12d30 <__frame_dummy_init_array_entry>
    ecbd:	41 56                	push   %r14
    ecbf:	49 89 d6             	mov    %rdx,%r14
    ecc2:	41 55                	push   %r13
    ecc4:	49 89 f5             	mov    %rsi,%r13
    ecc7:	41 54                	push   %r12
    ecc9:	41 89 fc             	mov    %edi,%r12d
    eccc:	55                   	push   %rbp
    eccd:	48 8d 2d 64 40 00 00 	lea    0x4064(%rip),%rbp        # 12d38 <__do_global_dtors_aux_fini_array_entry>
    ecd4:	53                   	push   %rbx
    ecd5:	4c 29 fd             	sub    %r15,%rbp
    ecd8:	48 83 ec 08          	sub    $0x8,%rsp
    ecdc:	e8 1f 63 ff ff       	callq  5000 <_init>
    ece1:	48 c1 fd 03          	sar    $0x3,%rbp
    ece5:	74 1f                	je     ed06 <__libc_csu_init+0x56>
    ece7:	31 db                	xor    %ebx,%ebx
    ece9:	0f 1f 80 00 00 00 00 	nopl   0x0(%rax)
    ecf0:	4c 89 f2             	mov    %r14,%rdx
    ecf3:	4c 89 ee             	mov    %r13,%rsi
    ecf6:	44 89 e7             	mov    %r12d,%edi
    ecf9:	41 ff 14 df          	callq  *(%r15,%rbx,8)
    ecfd:	48 83 c3 01          	add    $0x1,%rbx
    ed01:	48 39 dd             	cmp    %rbx,%rbp
    ed04:	75 ea                	jne    ecf0 <__libc_csu_init+0x40>
    ed06:	48 83 c4 08          	add    $0x8,%rsp
    ed0a:	5b                   	pop    %rbx
    ed0b:	5d                   	pop    %rbp
    ed0c:	41 5c                	pop    %r12
    ed0e:	41 5d                	pop    %r13
    ed10:	41 5e                	pop    %r14
    ed12:	41 5f                	pop    %r15
    ed14:	c3                   	retq   
    ed15:	66 66 2e 0f 1f 84 00 	data16 nopw %cs:0x0(%rax,%rax,1)
    ed1c:	00 00 00 00 

000000000000ed20 <__libc_csu_fini>:
    ed20:	f3 0f 1e fa          	endbr64 
    ed24:	c3                   	retq   
