


Disassembly of section .text:

000000000000a0a0 <_start>:
    a0a0:	f3 0f 1e fa          	endbr64 
    a0a4:	31 ed                	xor    %ebp,%ebp
    a0a6:	49 89 d1             	mov    %rdx,%r9
    a0a9:	5e                   	pop    %rsi
    a0aa:	48 89 e2             	mov    %rsp,%rdx
    a0ad:	48 83 e4 f0          	and    $0xfffffffffffffff0,%rsp
    a0b1:	50                   	push   %rax
    a0b2:	54                   	push   %rsp
    a0b3:	4c 8d 05 56 25 01 00 	lea    0x12556(%rip),%r8        # 1c610 <__libc_csu_fini>
    a0ba:	48 8d 0d df 24 01 00 	lea    0x124df(%rip),%rcx        # 1c5a0 <__libc_csu_init>
    a0c1:	48 8d 3d 88 f9 00 00 	lea    0xf988(%rip),%rdi        # 19a50 <main>
    a0c8:	ff 15 fa 7e 01 00    	callq  *0x17efa(%rip)        # 21fc8 <__libc_start_main@GLIBC_2.2.5>
    a0ce:	f4                   	hlt    
    a0cf:	90                   	nop

000000000000a0d0 <deregister_tm_clones>:
    a0d0:	48 8d 3d f9 c3 01 00 	lea    0x1c3f9(%rip),%rdi        # 264d0 <__TMC_END__>
    a0d7:	48 8d 05 f2 c3 01 00 	lea    0x1c3f2(%rip),%rax        # 264d0 <__TMC_END__>
    a0de:	48 39 f8             	cmp    %rdi,%rax
    a0e1:	74 15                	je     a0f8 <deregister_tm_clones+0x28>
    a0e3:	48 8b 05 d6 7e 01 00 	mov    0x17ed6(%rip),%rax        # 21fc0 <_ITM_deregisterTMCloneTable>
    a0ea:	48 85 c0             	test   %rax,%rax
    a0ed:	74 09                	je     a0f8 <deregister_tm_clones+0x28>
    a0ef:	ff e0                	jmpq   *%rax
    a0f1:	0f 1f 80 00 00 00 00 	nopl   0x0(%rax)
    a0f8:	c3                   	retq   
    a0f9:	0f 1f 80 00 00 00 00 	nopl   0x0(%rax)

000000000000a100 <register_tm_clones>:
    a100:	48 8d 3d c9 c3 01 00 	lea    0x1c3c9(%rip),%rdi        # 264d0 <__TMC_END__>
    a107:	48 8d 35 c2 c3 01 00 	lea    0x1c3c2(%rip),%rsi        # 264d0 <__TMC_END__>
    a10e:	48 29 fe             	sub    %rdi,%rsi
    a111:	48 89 f0             	mov    %rsi,%rax
    a114:	48 c1 ee 3f          	shr    $0x3f,%rsi
    a118:	48 c1 f8 03          	sar    $0x3,%rax
    a11c:	48 01 c6             	add    %rax,%rsi
    a11f:	48 d1 fe             	sar    %rsi
    a122:	74 14                	je     a138 <register_tm_clones+0x38>
    a124:	48 8b 05 ad 7e 01 00 	mov    0x17ead(%rip),%rax        # 21fd8 <_ITM_registerTMCloneTable>
    a12b:	48 85 c0             	test   %rax,%rax
    a12e:	74 08                	je     a138 <register_tm_clones+0x38>
    a130:	ff e0                	jmpq   *%rax
    a132:	66 0f 1f 44 00 00    	nopw   0x0(%rax,%rax,1)
    a138:	c3                   	retq   
    a139:	0f 1f 80 00 00 00 00 	nopl   0x0(%rax)

000000000000a140 <__do_global_dtors_aux>:
    a140:	f3 0f 1e fa          	endbr64 
    a144:	80 3d 95 c3 01 00 00 	cmpb   $0x0,0x1c395(%rip)        # 264e0 <completed.8061>
    a14b:	75 2b                	jne    a178 <__do_global_dtors_aux+0x38>
    a14d:	55                   	push   %rbp
    a14e:	48 83 3d 8a 7e 01 00 	cmpq   $0x0,0x17e8a(%rip)        # 21fe0 <__cxa_finalize@GLIBC_2.2.5>
    a155:	00 
    a156:	48 89 e5             	mov    %rsp,%rbp
    a159:	74 0c                	je     a167 <__do_global_dtors_aux+0x27>
    a15b:	48 8b 3d a6 7e 01 00 	mov    0x17ea6(%rip),%rdi        # 22008 <__dso_handle>
    a162:	e8 f9 fe ff ff       	callq  a060 <__cxa_finalize@plt>
    a167:	e8 64 ff ff ff       	callq  a0d0 <deregister_tm_clones>
    a16c:	c6 05 6d c3 01 00 01 	movb   $0x1,0x1c36d(%rip)        # 264e0 <completed.8061>
    a173:	5d                   	pop    %rbp
    a174:	c3                   	retq   
    a175:	0f 1f 00             	nopl   (%rax)
    a178:	c3                   	retq   
    a179:	0f 1f 80 00 00 00 00 	nopl   0x0(%rax)

000000000000a180 <frame_dummy>:
    a180:	f3 0f 1e fa          	endbr64 
    a184:	e9 77 ff ff ff       	jmpq   a100 <register_tm_clones>

000000000000a189 <platform_main_begin>:
    a189:	f3 0f 1e fa          	endbr64 
    a18d:	55                   	push   %rbp
    a18e:	48 89 e5             	mov    %rsp,%rbp
    a191:	90                   	nop
    a192:	5d                   	pop    %rbp
    a193:	c3                   	retq   

000000000000a194 <platform_main_end>:
    a194:	f3 0f 1e fa          	endbr64 
    a198:	55                   	push   %rbp
    a199:	48 89 e5             	mov    %rsp,%rbp
    a19c:	48 83 ec 10          	sub    $0x10,%rsp
    a1a0:	89 7d fc             	mov    %edi,-0x4(%rbp)
    a1a3:	89 75 f8             	mov    %esi,-0x8(%rbp)
    a1a6:	8b 45 fc             	mov    -0x4(%rbp),%eax
    a1a9:	89 c6                	mov    %eax,%esi
    a1ab:	48 8d 3d 6e 2e 01 00 	lea    0x12e6e(%rip),%rdi        # 1d020 <_IO_stdin_used+0x20>
    a1b2:	b8 00 00 00 00       	mov    $0x0,%eax
    a1b7:	e8 c4 fe ff ff       	callq  a080 <printf@plt>
    a1bc:	90                   	nop
    a1bd:	c9                   	leaveq 
    a1be:	c3                   	retq   

000000000000a1bf <safe_unary_minus_func_int8_t_s>:
    a1bf:	f3 0f 1e fa          	endbr64 
    a1c3:	55                   	push   %rbp
    a1c4:	48 89 e5             	mov    %rsp,%rbp
    a1c7:	89 f8                	mov    %edi,%eax
    a1c9:	88 45 fc             	mov    %al,-0x4(%rbp)
    a1cc:	0f b6 45 fc          	movzbl -0x4(%rbp),%eax
    a1d0:	f7 d8                	neg    %eax
    a1d2:	5d                   	pop    %rbp
    a1d3:	c3                   	retq   

000000000000a1d4 <safe_add_func_int8_t_s_s>:
    a1d4:	f3 0f 1e fa          	endbr64 
    a1d8:	55                   	push   %rbp
    a1d9:	48 89 e5             	mov    %rsp,%rbp
    a1dc:	89 fa                	mov    %edi,%edx
    a1de:	89 f0                	mov    %esi,%eax
    a1e0:	88 55 fc             	mov    %dl,-0x4(%rbp)
    a1e3:	88 45 f8             	mov    %al,-0x8(%rbp)
    a1e6:	0f b6 55 fc          	movzbl -0x4(%rbp),%edx
    a1ea:	0f b6 45 f8          	movzbl -0x8(%rbp),%eax
    a1ee:	01 d0                	add    %edx,%eax
    a1f0:	5d                   	pop    %rbp
    a1f1:	c3                   	retq   

000000000000a1f2 <safe_sub_func_int8_t_s_s>:
    a1f2:	f3 0f 1e fa          	endbr64 
    a1f6:	55                   	push   %rbp
    a1f7:	48 89 e5             	mov    %rsp,%rbp
    a1fa:	89 fa                	mov    %edi,%edx
    a1fc:	89 f0                	mov    %esi,%eax
    a1fe:	88 55 fc             	mov    %dl,-0x4(%rbp)
    a201:	88 45 f8             	mov    %al,-0x8(%rbp)
    a204:	0f b6 55 fc          	movzbl -0x4(%rbp),%edx
    a208:	0f b6 45 f8          	movzbl -0x8(%rbp),%eax
    a20c:	29 c2                	sub    %eax,%edx
    a20e:	89 d0                	mov    %edx,%eax
    a210:	5d                   	pop    %rbp
    a211:	c3                   	retq   

000000000000a212 <safe_mul_func_int8_t_s_s>:
    a212:	f3 0f 1e fa          	endbr64 
    a216:	55                   	push   %rbp
    a217:	48 89 e5             	mov    %rsp,%rbp
    a21a:	89 fa                	mov    %edi,%edx
    a21c:	89 f0                	mov    %esi,%eax
    a21e:	88 55 fc             	mov    %dl,-0x4(%rbp)
    a221:	88 45 f8             	mov    %al,-0x8(%rbp)
    a224:	0f b6 45 fc          	movzbl -0x4(%rbp),%eax
    a228:	0f b6 55 f8          	movzbl -0x8(%rbp),%edx
    a22c:	0f af c2             	imul   %edx,%eax
    a22f:	5d                   	pop    %rbp
    a230:	c3                   	retq   

000000000000a231 <safe_mod_func_int8_t_s_s>:
    a231:	f3 0f 1e fa          	endbr64 
    a235:	55                   	push   %rbp
    a236:	48 89 e5             	mov    %rsp,%rbp
    a239:	89 fa                	mov    %edi,%edx
    a23b:	89 f0                	mov    %esi,%eax
    a23d:	88 55 fc             	mov    %dl,-0x4(%rbp)
    a240:	88 45 f8             	mov    %al,-0x8(%rbp)
    a243:	80 7d f8 00          	cmpb   $0x0,-0x8(%rbp)
    a247:	74 1b                	je     a264 <safe_mod_func_int8_t_s_s+0x33>
    a249:	80 7d fc 80          	cmpb   $0x80,-0x4(%rbp)
    a24d:	75 06                	jne    a255 <safe_mod_func_int8_t_s_s+0x24>
    a24f:	80 7d f8 ff          	cmpb   $0xff,-0x8(%rbp)
    a253:	74 0f                	je     a264 <safe_mod_func_int8_t_s_s+0x33>
    a255:	0f be 45 fc          	movsbl -0x4(%rbp),%eax
    a259:	0f be 4d f8          	movsbl -0x8(%rbp),%ecx
    a25d:	99                   	cltd   
    a25e:	f7 f9                	idiv   %ecx
    a260:	89 d0                	mov    %edx,%eax
    a262:	eb 04                	jmp    a268 <safe_mod_func_int8_t_s_s+0x37>
    a264:	0f b6 45 fc          	movzbl -0x4(%rbp),%eax
    a268:	5d                   	pop    %rbp
    a269:	c3                   	retq   

000000000000a26a <safe_div_func_int8_t_s_s>:
    a26a:	f3 0f 1e fa          	endbr64 
    a26e:	55                   	push   %rbp
    a26f:	48 89 e5             	mov    %rsp,%rbp
    a272:	89 fa                	mov    %edi,%edx
    a274:	89 f0                	mov    %esi,%eax
    a276:	88 55 fc             	mov    %dl,-0x4(%rbp)
    a279:	88 45 f8             	mov    %al,-0x8(%rbp)
    a27c:	80 7d f8 00          	cmpb   $0x0,-0x8(%rbp)
    a280:	74 19                	je     a29b <safe_div_func_int8_t_s_s+0x31>
    a282:	80 7d fc 80          	cmpb   $0x80,-0x4(%rbp)
    a286:	75 06                	jne    a28e <safe_div_func_int8_t_s_s+0x24>
    a288:	80 7d f8 ff          	cmpb   $0xff,-0x8(%rbp)
    a28c:	74 0d                	je     a29b <safe_div_func_int8_t_s_s+0x31>
    a28e:	0f be 45 fc          	movsbl -0x4(%rbp),%eax
    a292:	0f be 4d f8          	movsbl -0x8(%rbp),%ecx
    a296:	99                   	cltd   
    a297:	f7 f9                	idiv   %ecx
    a299:	eb 04                	jmp    a29f <safe_div_func_int8_t_s_s+0x35>
    a29b:	0f b6 45 fc          	movzbl -0x4(%rbp),%eax
    a29f:	5d                   	pop    %rbp
    a2a0:	c3                   	retq   

000000000000a2a1 <safe_lshift_func_int8_t_s_s>:
    a2a1:	f3 0f 1e fa          	endbr64 
    a2a5:	55                   	push   %rbp
    a2a6:	48 89 e5             	mov    %rsp,%rbp
    a2a9:	89 f8                	mov    %edi,%eax
    a2ab:	89 75 f8             	mov    %esi,-0x8(%rbp)
    a2ae:	88 45 fc             	mov    %al,-0x4(%rbp)
    a2b1:	80 7d fc 00          	cmpb   $0x0,-0x4(%rbp)
    a2b5:	78 31                	js     a2e8 <safe_lshift_func_int8_t_s_s+0x47>
    a2b7:	83 7d f8 00          	cmpl   $0x0,-0x8(%rbp)
    a2bb:	78 2b                	js     a2e8 <safe_lshift_func_int8_t_s_s+0x47>
    a2bd:	83 7d f8 1f          	cmpl   $0x1f,-0x8(%rbp)
    a2c1:	7f 25                	jg     a2e8 <safe_lshift_func_int8_t_s_s+0x47>
    a2c3:	0f be 55 fc          	movsbl -0x4(%rbp),%edx
    a2c7:	8b 45 f8             	mov    -0x8(%rbp),%eax
    a2ca:	be 7f 00 00 00       	mov    $0x7f,%esi
    a2cf:	89 c1                	mov    %eax,%ecx
    a2d1:	d3 fe                	sar    %cl,%esi
    a2d3:	89 f0                	mov    %esi,%eax
    a2d5:	39 c2                	cmp    %eax,%edx
    a2d7:	7f 0f                	jg     a2e8 <safe_lshift_func_int8_t_s_s+0x47>
    a2d9:	0f be 55 fc          	movsbl -0x4(%rbp),%edx
    a2dd:	8b 45 f8             	mov    -0x8(%rbp),%eax
    a2e0:	89 c1                	mov    %eax,%ecx
    a2e2:	d3 e2                	shl    %cl,%edx
    a2e4:	89 d0                	mov    %edx,%eax
    a2e6:	eb 04                	jmp    a2ec <safe_lshift_func_int8_t_s_s+0x4b>
    a2e8:	0f b6 45 fc          	movzbl -0x4(%rbp),%eax
    a2ec:	5d                   	pop    %rbp
    a2ed:	c3                   	retq   

000000000000a2ee <safe_lshift_func_int8_t_s_u>:
    a2ee:	f3 0f 1e fa          	endbr64 
    a2f2:	55                   	push   %rbp
    a2f3:	48 89 e5             	mov    %rsp,%rbp
    a2f6:	89 f8                	mov    %edi,%eax
    a2f8:	89 75 f8             	mov    %esi,-0x8(%rbp)
    a2fb:	88 45 fc             	mov    %al,-0x4(%rbp)
    a2fe:	80 7d fc 00          	cmpb   $0x0,-0x4(%rbp)
    a302:	78 2b                	js     a32f <safe_lshift_func_int8_t_s_u+0x41>
    a304:	83 7d f8 1f          	cmpl   $0x1f,-0x8(%rbp)
    a308:	77 25                	ja     a32f <safe_lshift_func_int8_t_s_u+0x41>
    a30a:	0f be 55 fc          	movsbl -0x4(%rbp),%edx
    a30e:	8b 45 f8             	mov    -0x8(%rbp),%eax
    a311:	be 7f 00 00 00       	mov    $0x7f,%esi
    a316:	89 c1                	mov    %eax,%ecx
    a318:	d3 fe                	sar    %cl,%esi
    a31a:	89 f0                	mov    %esi,%eax
    a31c:	39 c2                	cmp    %eax,%edx
    a31e:	7f 0f                	jg     a32f <safe_lshift_func_int8_t_s_u+0x41>
    a320:	0f be 55 fc          	movsbl -0x4(%rbp),%edx
    a324:	8b 45 f8             	mov    -0x8(%rbp),%eax
    a327:	89 c1                	mov    %eax,%ecx
    a329:	d3 e2                	shl    %cl,%edx
    a32b:	89 d0                	mov    %edx,%eax
    a32d:	eb 04                	jmp    a333 <safe_lshift_func_int8_t_s_u+0x45>
    a32f:	0f b6 45 fc          	movzbl -0x4(%rbp),%eax
    a333:	5d                   	pop    %rbp
    a334:	c3                   	retq   

000000000000a335 <safe_rshift_func_int8_t_s_s>:
    a335:	f3 0f 1e fa          	endbr64 
    a339:	55                   	push   %rbp
    a33a:	48 89 e5             	mov    %rsp,%rbp
    a33d:	89 f8                	mov    %edi,%eax
    a33f:	89 75 f8             	mov    %esi,-0x8(%rbp)
    a342:	88 45 fc             	mov    %al,-0x4(%rbp)
    a345:	80 7d fc 00          	cmpb   $0x0,-0x4(%rbp)
    a349:	78 1b                	js     a366 <safe_rshift_func_int8_t_s_s+0x31>
    a34b:	83 7d f8 00          	cmpl   $0x0,-0x8(%rbp)
    a34f:	78 15                	js     a366 <safe_rshift_func_int8_t_s_s+0x31>
    a351:	83 7d f8 1f          	cmpl   $0x1f,-0x8(%rbp)
    a355:	7f 0f                	jg     a366 <safe_rshift_func_int8_t_s_s+0x31>
    a357:	0f be 55 fc          	movsbl -0x4(%rbp),%edx
    a35b:	8b 45 f8             	mov    -0x8(%rbp),%eax
    a35e:	89 c1                	mov    %eax,%ecx
    a360:	d3 fa                	sar    %cl,%edx
    a362:	89 d0                	mov    %edx,%eax
    a364:	eb 04                	jmp    a36a <safe_rshift_func_int8_t_s_s+0x35>
    a366:	0f b6 45 fc          	movzbl -0x4(%rbp),%eax
    a36a:	5d                   	pop    %rbp
    a36b:	c3                   	retq   

000000000000a36c <safe_rshift_func_int8_t_s_u>:
    a36c:	f3 0f 1e fa          	endbr64 
    a370:	55                   	push   %rbp
    a371:	48 89 e5             	mov    %rsp,%rbp
    a374:	89 f8                	mov    %edi,%eax
    a376:	89 75 f8             	mov    %esi,-0x8(%rbp)
    a379:	88 45 fc             	mov    %al,-0x4(%rbp)
    a37c:	80 7d fc 00          	cmpb   $0x0,-0x4(%rbp)
    a380:	78 15                	js     a397 <safe_rshift_func_int8_t_s_u+0x2b>
    a382:	83 7d f8 1f          	cmpl   $0x1f,-0x8(%rbp)
    a386:	77 0f                	ja     a397 <safe_rshift_func_int8_t_s_u+0x2b>
    a388:	0f be 55 fc          	movsbl -0x4(%rbp),%edx
    a38c:	8b 45 f8             	mov    -0x8(%rbp),%eax
    a38f:	89 c1                	mov    %eax,%ecx
    a391:	d3 fa                	sar    %cl,%edx
    a393:	89 d0                	mov    %edx,%eax
    a395:	eb 04                	jmp    a39b <safe_rshift_func_int8_t_s_u+0x2f>
    a397:	0f b6 45 fc          	movzbl -0x4(%rbp),%eax
    a39b:	5d                   	pop    %rbp
    a39c:	c3                   	retq   

000000000000a39d <safe_unary_minus_func_int16_t_s>:
    a39d:	f3 0f 1e fa          	endbr64 
    a3a1:	55                   	push   %rbp
    a3a2:	48 89 e5             	mov    %rsp,%rbp
    a3a5:	89 f8                	mov    %edi,%eax
    a3a7:	66 89 45 fc          	mov    %ax,-0x4(%rbp)
    a3ab:	0f b7 45 fc          	movzwl -0x4(%rbp),%eax
    a3af:	f7 d8                	neg    %eax
    a3b1:	5d                   	pop    %rbp
    a3b2:	c3                   	retq   

000000000000a3b3 <safe_add_func_int16_t_s_s>:
    a3b3:	f3 0f 1e fa          	endbr64 
    a3b7:	55                   	push   %rbp
    a3b8:	48 89 e5             	mov    %rsp,%rbp
    a3bb:	89 fa                	mov    %edi,%edx
    a3bd:	89 f0                	mov    %esi,%eax
    a3bf:	66 89 55 fc          	mov    %dx,-0x4(%rbp)
    a3c3:	66 89 45 f8          	mov    %ax,-0x8(%rbp)
    a3c7:	0f b7 55 fc          	movzwl -0x4(%rbp),%edx
    a3cb:	0f b7 45 f8          	movzwl -0x8(%rbp),%eax
    a3cf:	01 d0                	add    %edx,%eax
    a3d1:	5d                   	pop    %rbp
    a3d2:	c3                   	retq   

000000000000a3d3 <safe_sub_func_int16_t_s_s>:
    a3d3:	f3 0f 1e fa          	endbr64 
    a3d7:	55                   	push   %rbp
    a3d8:	48 89 e5             	mov    %rsp,%rbp
    a3db:	89 fa                	mov    %edi,%edx
    a3dd:	89 f0                	mov    %esi,%eax
    a3df:	66 89 55 fc          	mov    %dx,-0x4(%rbp)
    a3e3:	66 89 45 f8          	mov    %ax,-0x8(%rbp)
    a3e7:	0f b7 55 fc          	movzwl -0x4(%rbp),%edx
    a3eb:	0f b7 45 f8          	movzwl -0x8(%rbp),%eax
    a3ef:	29 c2                	sub    %eax,%edx
    a3f1:	89 d0                	mov    %edx,%eax
    a3f3:	5d                   	pop    %rbp
    a3f4:	c3                   	retq   

000000000000a3f5 <safe_mul_func_int16_t_s_s>:
    a3f5:	f3 0f 1e fa          	endbr64 
    a3f9:	55                   	push   %rbp
    a3fa:	48 89 e5             	mov    %rsp,%rbp
    a3fd:	89 fa                	mov    %edi,%edx
    a3ff:	89 f0                	mov    %esi,%eax
    a401:	66 89 55 fc          	mov    %dx,-0x4(%rbp)
    a405:	66 89 45 f8          	mov    %ax,-0x8(%rbp)
    a409:	0f b7 55 fc          	movzwl -0x4(%rbp),%edx
    a40d:	0f b7 45 f8          	movzwl -0x8(%rbp),%eax
    a411:	0f af c2             	imul   %edx,%eax
    a414:	5d                   	pop    %rbp
    a415:	c3                   	retq   

000000000000a416 <safe_mod_func_int16_t_s_s>:
    a416:	f3 0f 1e fa          	endbr64 
    a41a:	55                   	push   %rbp
    a41b:	48 89 e5             	mov    %rsp,%rbp
    a41e:	89 fa                	mov    %edi,%edx
    a420:	89 f0                	mov    %esi,%eax
    a422:	66 89 55 fc          	mov    %dx,-0x4(%rbp)
    a426:	66 89 45 f8          	mov    %ax,-0x8(%rbp)
    a42a:	66 83 7d f8 00       	cmpw   $0x0,-0x8(%rbp)
    a42f:	74 1e                	je     a44f <safe_mod_func_int16_t_s_s+0x39>
    a431:	66 81 7d fc 00 80    	cmpw   $0x8000,-0x4(%rbp)
    a437:	75 07                	jne    a440 <safe_mod_func_int16_t_s_s+0x2a>
    a439:	66 83 7d f8 ff       	cmpw   $0xffff,-0x8(%rbp)
    a43e:	74 0f                	je     a44f <safe_mod_func_int16_t_s_s+0x39>
    a440:	0f bf 45 fc          	movswl -0x4(%rbp),%eax
    a444:	0f bf 4d f8          	movswl -0x8(%rbp),%ecx
    a448:	99                   	cltd   
    a449:	f7 f9                	idiv   %ecx
    a44b:	89 d0                	mov    %edx,%eax
    a44d:	eb 04                	jmp    a453 <safe_mod_func_int16_t_s_s+0x3d>
    a44f:	0f b7 45 fc          	movzwl -0x4(%rbp),%eax
    a453:	5d                   	pop    %rbp
    a454:	c3                   	retq   

000000000000a455 <safe_div_func_int16_t_s_s>:
    a455:	f3 0f 1e fa          	endbr64 
    a459:	55                   	push   %rbp
    a45a:	48 89 e5             	mov    %rsp,%rbp
    a45d:	89 fa                	mov    %edi,%edx
    a45f:	89 f0                	mov    %esi,%eax
    a461:	66 89 55 fc          	mov    %dx,-0x4(%rbp)
    a465:	66 89 45 f8          	mov    %ax,-0x8(%rbp)
    a469:	66 83 7d f8 00       	cmpw   $0x0,-0x8(%rbp)
    a46e:	74 1c                	je     a48c <safe_div_func_int16_t_s_s+0x37>
    a470:	66 81 7d fc 00 80    	cmpw   $0x8000,-0x4(%rbp)
    a476:	75 07                	jne    a47f <safe_div_func_int16_t_s_s+0x2a>
    a478:	66 83 7d f8 ff       	cmpw   $0xffff,-0x8(%rbp)
    a47d:	74 0d                	je     a48c <safe_div_func_int16_t_s_s+0x37>
    a47f:	0f bf 45 fc          	movswl -0x4(%rbp),%eax
    a483:	0f bf 4d f8          	movswl -0x8(%rbp),%ecx
    a487:	99                   	cltd   
    a488:	f7 f9                	idiv   %ecx
    a48a:	eb 04                	jmp    a490 <safe_div_func_int16_t_s_s+0x3b>
    a48c:	0f b7 45 fc          	movzwl -0x4(%rbp),%eax
    a490:	5d                   	pop    %rbp
    a491:	c3                   	retq   

000000000000a492 <safe_lshift_func_int16_t_s_s>:
    a492:	f3 0f 1e fa          	endbr64 
    a496:	55                   	push   %rbp
    a497:	48 89 e5             	mov    %rsp,%rbp
    a49a:	89 f8                	mov    %edi,%eax
    a49c:	89 75 f8             	mov    %esi,-0x8(%rbp)
    a49f:	66 89 45 fc          	mov    %ax,-0x4(%rbp)
    a4a3:	66 83 7d fc 00       	cmpw   $0x0,-0x4(%rbp)
    a4a8:	78 31                	js     a4db <safe_lshift_func_int16_t_s_s+0x49>
    a4aa:	83 7d f8 00          	cmpl   $0x0,-0x8(%rbp)
    a4ae:	78 2b                	js     a4db <safe_lshift_func_int16_t_s_s+0x49>
    a4b0:	83 7d f8 1f          	cmpl   $0x1f,-0x8(%rbp)
    a4b4:	7f 25                	jg     a4db <safe_lshift_func_int16_t_s_s+0x49>
    a4b6:	0f bf 55 fc          	movswl -0x4(%rbp),%edx
    a4ba:	8b 45 f8             	mov    -0x8(%rbp),%eax
    a4bd:	be ff 7f 00 00       	mov    $0x7fff,%esi
    a4c2:	89 c1                	mov    %eax,%ecx
    a4c4:	d3 fe                	sar    %cl,%esi
    a4c6:	89 f0                	mov    %esi,%eax
    a4c8:	39 c2                	cmp    %eax,%edx
    a4ca:	7f 0f                	jg     a4db <safe_lshift_func_int16_t_s_s+0x49>
    a4cc:	0f bf 55 fc          	movswl -0x4(%rbp),%edx
    a4d0:	8b 45 f8             	mov    -0x8(%rbp),%eax
    a4d3:	89 c1                	mov    %eax,%ecx
    a4d5:	d3 e2                	shl    %cl,%edx
    a4d7:	89 d0                	mov    %edx,%eax
    a4d9:	eb 04                	jmp    a4df <safe_lshift_func_int16_t_s_s+0x4d>
    a4db:	0f b7 45 fc          	movzwl -0x4(%rbp),%eax
    a4df:	5d                   	pop    %rbp
    a4e0:	c3                   	retq   

000000000000a4e1 <safe_lshift_func_int16_t_s_u>:
    a4e1:	f3 0f 1e fa          	endbr64 
    a4e5:	55                   	push   %rbp
    a4e6:	48 89 e5             	mov    %rsp,%rbp
    a4e9:	89 f8                	mov    %edi,%eax
    a4eb:	89 75 f8             	mov    %esi,-0x8(%rbp)
    a4ee:	66 89 45 fc          	mov    %ax,-0x4(%rbp)
    a4f2:	66 83 7d fc 00       	cmpw   $0x0,-0x4(%rbp)
    a4f7:	78 2b                	js     a524 <safe_lshift_func_int16_t_s_u+0x43>
    a4f9:	83 7d f8 1f          	cmpl   $0x1f,-0x8(%rbp)
    a4fd:	77 25                	ja     a524 <safe_lshift_func_int16_t_s_u+0x43>
    a4ff:	0f bf 55 fc          	movswl -0x4(%rbp),%edx
    a503:	8b 45 f8             	mov    -0x8(%rbp),%eax
    a506:	be ff 7f 00 00       	mov    $0x7fff,%esi
    a50b:	89 c1                	mov    %eax,%ecx
    a50d:	d3 fe                	sar    %cl,%esi
    a50f:	89 f0                	mov    %esi,%eax
    a511:	39 c2                	cmp    %eax,%edx
    a513:	7f 0f                	jg     a524 <safe_lshift_func_int16_t_s_u+0x43>
    a515:	0f bf 55 fc          	movswl -0x4(%rbp),%edx
    a519:	8b 45 f8             	mov    -0x8(%rbp),%eax
    a51c:	89 c1                	mov    %eax,%ecx
    a51e:	d3 e2                	shl    %cl,%edx
    a520:	89 d0                	mov    %edx,%eax
    a522:	eb 04                	jmp    a528 <safe_lshift_func_int16_t_s_u+0x47>
    a524:	0f b7 45 fc          	movzwl -0x4(%rbp),%eax
    a528:	5d                   	pop    %rbp
    a529:	c3                   	retq   

000000000000a52a <safe_rshift_func_int16_t_s_s>:
    a52a:	f3 0f 1e fa          	endbr64 
    a52e:	55                   	push   %rbp
    a52f:	48 89 e5             	mov    %rsp,%rbp
    a532:	89 f8                	mov    %edi,%eax
    a534:	89 75 f8             	mov    %esi,-0x8(%rbp)
    a537:	66 89 45 fc          	mov    %ax,-0x4(%rbp)
    a53b:	66 83 7d fc 00       	cmpw   $0x0,-0x4(%rbp)
    a540:	78 1b                	js     a55d <safe_rshift_func_int16_t_s_s+0x33>
    a542:	83 7d f8 00          	cmpl   $0x0,-0x8(%rbp)
    a546:	78 15                	js     a55d <safe_rshift_func_int16_t_s_s+0x33>
    a548:	83 7d f8 1f          	cmpl   $0x1f,-0x8(%rbp)
    a54c:	7f 0f                	jg     a55d <safe_rshift_func_int16_t_s_s+0x33>
    a54e:	0f bf 55 fc          	movswl -0x4(%rbp),%edx
    a552:	8b 45 f8             	mov    -0x8(%rbp),%eax
    a555:	89 c1                	mov    %eax,%ecx
    a557:	d3 fa                	sar    %cl,%edx
    a559:	89 d0                	mov    %edx,%eax
    a55b:	eb 04                	jmp    a561 <safe_rshift_func_int16_t_s_s+0x37>
    a55d:	0f b7 45 fc          	movzwl -0x4(%rbp),%eax
    a561:	5d                   	pop    %rbp
    a562:	c3                   	retq   

000000000000a563 <safe_rshift_func_int16_t_s_u>:
    a563:	f3 0f 1e fa          	endbr64 
    a567:	55                   	push   %rbp
    a568:	48 89 e5             	mov    %rsp,%rbp
    a56b:	89 f8                	mov    %edi,%eax
    a56d:	89 75 f8             	mov    %esi,-0x8(%rbp)
    a570:	66 89 45 fc          	mov    %ax,-0x4(%rbp)
    a574:	66 83 7d fc 00       	cmpw   $0x0,-0x4(%rbp)
    a579:	78 15                	js     a590 <safe_rshift_func_int16_t_s_u+0x2d>
    a57b:	83 7d f8 1f          	cmpl   $0x1f,-0x8(%rbp)
    a57f:	77 0f                	ja     a590 <safe_rshift_func_int16_t_s_u+0x2d>
    a581:	0f bf 55 fc          	movswl -0x4(%rbp),%edx
    a585:	8b 45 f8             	mov    -0x8(%rbp),%eax
    a588:	89 c1                	mov    %eax,%ecx
    a58a:	d3 fa                	sar    %cl,%edx
    a58c:	89 d0                	mov    %edx,%eax
    a58e:	eb 04                	jmp    a594 <safe_rshift_func_int16_t_s_u+0x31>
    a590:	0f b7 45 fc          	movzwl -0x4(%rbp),%eax
    a594:	5d                   	pop    %rbp
    a595:	c3                   	retq   

000000000000a596 <safe_unary_minus_func_int32_t_s>:
    a596:	f3 0f 1e fa          	endbr64 
    a59a:	55                   	push   %rbp
    a59b:	48 89 e5             	mov    %rsp,%rbp
    a59e:	89 7d fc             	mov    %edi,-0x4(%rbp)
    a5a1:	81 7d fc 00 00 00 80 	cmpl   $0x80000000,-0x4(%rbp)
    a5a8:	74 07                	je     a5b1 <safe_unary_minus_func_int32_t_s+0x1b>
    a5aa:	8b 45 fc             	mov    -0x4(%rbp),%eax
    a5ad:	f7 d8                	neg    %eax
    a5af:	eb 03                	jmp    a5b4 <safe_unary_minus_func_int32_t_s+0x1e>
    a5b1:	8b 45 fc             	mov    -0x4(%rbp),%eax
    a5b4:	5d                   	pop    %rbp
    a5b5:	c3                   	retq   

000000000000a5b6 <safe_add_func_int32_t_s_s>:
    a5b6:	f3 0f 1e fa          	endbr64 
    a5ba:	55                   	push   %rbp
    a5bb:	48 89 e5             	mov    %rsp,%rbp
    a5be:	89 7d fc             	mov    %edi,-0x4(%rbp)
    a5c1:	89 75 f8             	mov    %esi,-0x8(%rbp)
    a5c4:	83 7d fc 00          	cmpl   $0x0,-0x4(%rbp)
    a5c8:	7e 13                	jle    a5dd <safe_add_func_int32_t_s_s+0x27>
    a5ca:	83 7d f8 00          	cmpl   $0x0,-0x8(%rbp)
    a5ce:	7e 0d                	jle    a5dd <safe_add_func_int32_t_s_s+0x27>
    a5d0:	b8 ff ff ff 7f       	mov    $0x7fffffff,%eax
    a5d5:	2b 45 f8             	sub    -0x8(%rbp),%eax
    a5d8:	39 45 fc             	cmp    %eax,-0x4(%rbp)
    a5db:	7f 23                	jg     a600 <safe_add_func_int32_t_s_s+0x4a>
    a5dd:	83 7d fc 00          	cmpl   $0x0,-0x4(%rbp)
    a5e1:	79 13                	jns    a5f6 <safe_add_func_int32_t_s_s+0x40>
    a5e3:	83 7d f8 00          	cmpl   $0x0,-0x8(%rbp)
    a5e7:	79 0d                	jns    a5f6 <safe_add_func_int32_t_s_s+0x40>
    a5e9:	b8 00 00 00 80       	mov    $0x80000000,%eax
    a5ee:	2b 45 f8             	sub    -0x8(%rbp),%eax
    a5f1:	39 45 fc             	cmp    %eax,-0x4(%rbp)
    a5f4:	7c 0a                	jl     a600 <safe_add_func_int32_t_s_s+0x4a>
    a5f6:	8b 55 fc             	mov    -0x4(%rbp),%edx
    a5f9:	8b 45 f8             	mov    -0x8(%rbp),%eax
    a5fc:	01 d0                	add    %edx,%eax
    a5fe:	eb 03                	jmp    a603 <safe_add_func_int32_t_s_s+0x4d>
    a600:	8b 45 fc             	mov    -0x4(%rbp),%eax
    a603:	5d                   	pop    %rbp
    a604:	c3                   	retq   

000000000000a605 <safe_sub_func_int32_t_s_s>:
    a605:	f3 0f 1e fa          	endbr64 
    a609:	55                   	push   %rbp
    a60a:	48 89 e5             	mov    %rsp,%rbp
    a60d:	89 7d fc             	mov    %edi,-0x4(%rbp)
    a610:	89 75 f8             	mov    %esi,-0x8(%rbp)
    a613:	8b 45 fc             	mov    -0x4(%rbp),%eax
    a616:	33 45 f8             	xor    -0x8(%rbp),%eax
    a619:	89 c2                	mov    %eax,%edx
    a61b:	8b 45 fc             	mov    -0x4(%rbp),%eax
    a61e:	33 45 f8             	xor    -0x8(%rbp),%eax
    a621:	25 00 00 00 80       	and    $0x80000000,%eax
    a626:	33 45 fc             	xor    -0x4(%rbp),%eax
    a629:	2b 45 f8             	sub    -0x8(%rbp),%eax
    a62c:	33 45 f8             	xor    -0x8(%rbp),%eax
    a62f:	21 d0                	and    %edx,%eax
    a631:	85 c0                	test   %eax,%eax
    a633:	78 08                	js     a63d <safe_sub_func_int32_t_s_s+0x38>
    a635:	8b 45 fc             	mov    -0x4(%rbp),%eax
    a638:	2b 45 f8             	sub    -0x8(%rbp),%eax
    a63b:	eb 03                	jmp    a640 <safe_sub_func_int32_t_s_s+0x3b>
    a63d:	8b 45 fc             	mov    -0x4(%rbp),%eax
    a640:	5d                   	pop    %rbp
    a641:	c3                   	retq   

000000000000a642 <safe_mul_func_int32_t_s_s>:
    a642:	f3 0f 1e fa          	endbr64 
    a646:	55                   	push   %rbp
    a647:	48 89 e5             	mov    %rsp,%rbp
    a64a:	89 7d fc             	mov    %edi,-0x4(%rbp)
    a64d:	89 75 f8             	mov    %esi,-0x8(%rbp)
    a650:	83 7d fc 00          	cmpl   $0x0,-0x4(%rbp)
    a654:	7e 14                	jle    a66a <safe_mul_func_int32_t_s_s+0x28>
    a656:	83 7d f8 00          	cmpl   $0x0,-0x8(%rbp)
    a65a:	7e 0e                	jle    a66a <safe_mul_func_int32_t_s_s+0x28>
    a65c:	b8 ff ff ff 7f       	mov    $0x7fffffff,%eax
    a661:	99                   	cltd   
    a662:	f7 7d f8             	idivl  -0x8(%rbp)
    a665:	39 45 fc             	cmp    %eax,-0x4(%rbp)
    a668:	7f 5d                	jg     a6c7 <safe_mul_func_int32_t_s_s+0x85>
    a66a:	83 7d fc 00          	cmpl   $0x0,-0x4(%rbp)
    a66e:	7e 14                	jle    a684 <safe_mul_func_int32_t_s_s+0x42>
    a670:	83 7d f8 00          	cmpl   $0x0,-0x8(%rbp)
    a674:	7f 0e                	jg     a684 <safe_mul_func_int32_t_s_s+0x42>
    a676:	b8 00 00 00 80       	mov    $0x80000000,%eax
    a67b:	99                   	cltd   
    a67c:	f7 7d fc             	idivl  -0x4(%rbp)
    a67f:	39 45 f8             	cmp    %eax,-0x8(%rbp)
    a682:	7c 43                	jl     a6c7 <safe_mul_func_int32_t_s_s+0x85>
    a684:	83 7d fc 00          	cmpl   $0x0,-0x4(%rbp)
    a688:	7f 14                	jg     a69e <safe_mul_func_int32_t_s_s+0x5c>
    a68a:	83 7d f8 00          	cmpl   $0x0,-0x8(%rbp)
    a68e:	7e 0e                	jle    a69e <safe_mul_func_int32_t_s_s+0x5c>
    a690:	b8 00 00 00 80       	mov    $0x80000000,%eax
    a695:	99                   	cltd   
    a696:	f7 7d f8             	idivl  -0x8(%rbp)
    a699:	39 45 fc             	cmp    %eax,-0x4(%rbp)
    a69c:	7c 29                	jl     a6c7 <safe_mul_func_int32_t_s_s+0x85>
    a69e:	83 7d fc 00          	cmpl   $0x0,-0x4(%rbp)
    a6a2:	7f 1a                	jg     a6be <safe_mul_func_int32_t_s_s+0x7c>
    a6a4:	83 7d f8 00          	cmpl   $0x0,-0x8(%rbp)
    a6a8:	7f 14                	jg     a6be <safe_mul_func_int32_t_s_s+0x7c>
    a6aa:	83 7d fc 00          	cmpl   $0x0,-0x4(%rbp)
    a6ae:	74 0e                	je     a6be <safe_mul_func_int32_t_s_s+0x7c>
    a6b0:	b8 ff ff ff 7f       	mov    $0x7fffffff,%eax
    a6b5:	99                   	cltd   
    a6b6:	f7 7d fc             	idivl  -0x4(%rbp)
    a6b9:	39 45 f8             	cmp    %eax,-0x8(%rbp)
    a6bc:	7c 09                	jl     a6c7 <safe_mul_func_int32_t_s_s+0x85>
    a6be:	8b 45 fc             	mov    -0x4(%rbp),%eax
    a6c1:	0f af 45 f8          	imul   -0x8(%rbp),%eax
    a6c5:	eb 03                	jmp    a6ca <safe_mul_func_int32_t_s_s+0x88>
    a6c7:	8b 45 fc             	mov    -0x4(%rbp),%eax
    a6ca:	5d                   	pop    %rbp
    a6cb:	c3                   	retq   

000000000000a6cc <safe_mod_func_int32_t_s_s>:
    a6cc:	f3 0f 1e fa          	endbr64 
    a6d0:	55                   	push   %rbp
    a6d1:	48 89 e5             	mov    %rsp,%rbp
    a6d4:	89 7d fc             	mov    %edi,-0x4(%rbp)
    a6d7:	89 75 f8             	mov    %esi,-0x8(%rbp)
    a6da:	83 7d f8 00          	cmpl   $0x0,-0x8(%rbp)
    a6de:	74 1a                	je     a6fa <safe_mod_func_int32_t_s_s+0x2e>
    a6e0:	81 7d fc 00 00 00 80 	cmpl   $0x80000000,-0x4(%rbp)
    a6e7:	75 06                	jne    a6ef <safe_mod_func_int32_t_s_s+0x23>
    a6e9:	83 7d f8 ff          	cmpl   $0xffffffff,-0x8(%rbp)
    a6ed:	74 0b                	je     a6fa <safe_mod_func_int32_t_s_s+0x2e>
    a6ef:	8b 45 fc             	mov    -0x4(%rbp),%eax
    a6f2:	99                   	cltd   
    a6f3:	f7 7d f8             	idivl  -0x8(%rbp)
    a6f6:	89 d0                	mov    %edx,%eax
    a6f8:	eb 03                	jmp    a6fd <safe_mod_func_int32_t_s_s+0x31>
    a6fa:	8b 45 fc             	mov    -0x4(%rbp),%eax
    a6fd:	5d                   	pop    %rbp
    a6fe:	c3                   	retq   

000000000000a6ff <safe_div_func_int32_t_s_s>:
    a6ff:	f3 0f 1e fa          	endbr64 
    a703:	55                   	push   %rbp
    a704:	48 89 e5             	mov    %rsp,%rbp
    a707:	89 7d fc             	mov    %edi,-0x4(%rbp)
    a70a:	89 75 f8             	mov    %esi,-0x8(%rbp)
    a70d:	83 7d f8 00          	cmpl   $0x0,-0x8(%rbp)
    a711:	74 18                	je     a72b <safe_div_func_int32_t_s_s+0x2c>
    a713:	81 7d fc 00 00 00 80 	cmpl   $0x80000000,-0x4(%rbp)
    a71a:	75 06                	jne    a722 <safe_div_func_int32_t_s_s+0x23>
    a71c:	83 7d f8 ff          	cmpl   $0xffffffff,-0x8(%rbp)
    a720:	74 09                	je     a72b <safe_div_func_int32_t_s_s+0x2c>
    a722:	8b 45 fc             	mov    -0x4(%rbp),%eax
    a725:	99                   	cltd   
    a726:	f7 7d f8             	idivl  -0x8(%rbp)
    a729:	eb 03                	jmp    a72e <safe_div_func_int32_t_s_s+0x2f>
    a72b:	8b 45 fc             	mov    -0x4(%rbp),%eax
    a72e:	5d                   	pop    %rbp
    a72f:	c3                   	retq   

000000000000a730 <safe_lshift_func_int32_t_s_s>:
    a730:	f3 0f 1e fa          	endbr64 
    a734:	55                   	push   %rbp
    a735:	48 89 e5             	mov    %rsp,%rbp
    a738:	89 7d fc             	mov    %edi,-0x4(%rbp)
    a73b:	89 75 f8             	mov    %esi,-0x8(%rbp)
    a73e:	83 7d fc 00          	cmpl   $0x0,-0x4(%rbp)
    a742:	78 2d                	js     a771 <safe_lshift_func_int32_t_s_s+0x41>
    a744:	83 7d f8 00          	cmpl   $0x0,-0x8(%rbp)
    a748:	78 27                	js     a771 <safe_lshift_func_int32_t_s_s+0x41>
    a74a:	83 7d f8 1f          	cmpl   $0x1f,-0x8(%rbp)
    a74e:	7f 21                	jg     a771 <safe_lshift_func_int32_t_s_s+0x41>
    a750:	8b 45 f8             	mov    -0x8(%rbp),%eax
    a753:	ba ff ff ff 7f       	mov    $0x7fffffff,%edx
    a758:	89 c1                	mov    %eax,%ecx
    a75a:	d3 fa                	sar    %cl,%edx
    a75c:	89 d0                	mov    %edx,%eax
    a75e:	39 45 fc             	cmp    %eax,-0x4(%rbp)
    a761:	7f 0e                	jg     a771 <safe_lshift_func_int32_t_s_s+0x41>
    a763:	8b 45 f8             	mov    -0x8(%rbp),%eax
    a766:	8b 55 fc             	mov    -0x4(%rbp),%edx
    a769:	89 c1                	mov    %eax,%ecx
    a76b:	d3 e2                	shl    %cl,%edx
    a76d:	89 d0                	mov    %edx,%eax
    a76f:	eb 03                	jmp    a774 <safe_lshift_func_int32_t_s_s+0x44>
    a771:	8b 45 fc             	mov    -0x4(%rbp),%eax
    a774:	5d                   	pop    %rbp
    a775:	c3                   	retq   

000000000000a776 <safe_lshift_func_int32_t_s_u>:
    a776:	f3 0f 1e fa          	endbr64 
    a77a:	55                   	push   %rbp
    a77b:	48 89 e5             	mov    %rsp,%rbp
    a77e:	89 7d fc             	mov    %edi,-0x4(%rbp)
    a781:	89 75 f8             	mov    %esi,-0x8(%rbp)
    a784:	83 7d fc 00          	cmpl   $0x0,-0x4(%rbp)
    a788:	78 27                	js     a7b1 <safe_lshift_func_int32_t_s_u+0x3b>
    a78a:	83 7d f8 1f          	cmpl   $0x1f,-0x8(%rbp)
    a78e:	77 21                	ja     a7b1 <safe_lshift_func_int32_t_s_u+0x3b>
    a790:	8b 45 f8             	mov    -0x8(%rbp),%eax
    a793:	ba ff ff ff 7f       	mov    $0x7fffffff,%edx
    a798:	89 c1                	mov    %eax,%ecx
    a79a:	d3 fa                	sar    %cl,%edx
    a79c:	89 d0                	mov    %edx,%eax
    a79e:	39 45 fc             	cmp    %eax,-0x4(%rbp)
    a7a1:	7f 0e                	jg     a7b1 <safe_lshift_func_int32_t_s_u+0x3b>
    a7a3:	8b 45 f8             	mov    -0x8(%rbp),%eax
    a7a6:	8b 55 fc             	mov    -0x4(%rbp),%edx
    a7a9:	89 c1                	mov    %eax,%ecx
    a7ab:	d3 e2                	shl    %cl,%edx
    a7ad:	89 d0                	mov    %edx,%eax
    a7af:	eb 03                	jmp    a7b4 <safe_lshift_func_int32_t_s_u+0x3e>
    a7b1:	8b 45 fc             	mov    -0x4(%rbp),%eax
    a7b4:	5d                   	pop    %rbp
    a7b5:	c3                   	retq   

000000000000a7b6 <safe_rshift_func_int32_t_s_s>:
    a7b6:	f3 0f 1e fa          	endbr64 
    a7ba:	55                   	push   %rbp
    a7bb:	48 89 e5             	mov    %rsp,%rbp
    a7be:	89 7d fc             	mov    %edi,-0x4(%rbp)
    a7c1:	89 75 f8             	mov    %esi,-0x8(%rbp)
    a7c4:	83 7d fc 00          	cmpl   $0x0,-0x4(%rbp)
    a7c8:	78 1a                	js     a7e4 <safe_rshift_func_int32_t_s_s+0x2e>
    a7ca:	83 7d f8 00          	cmpl   $0x0,-0x8(%rbp)
    a7ce:	78 14                	js     a7e4 <safe_rshift_func_int32_t_s_s+0x2e>
    a7d0:	83 7d f8 1f          	cmpl   $0x1f,-0x8(%rbp)
    a7d4:	7f 0e                	jg     a7e4 <safe_rshift_func_int32_t_s_s+0x2e>
    a7d6:	8b 45 f8             	mov    -0x8(%rbp),%eax
    a7d9:	8b 55 fc             	mov    -0x4(%rbp),%edx
    a7dc:	89 c1                	mov    %eax,%ecx
    a7de:	d3 fa                	sar    %cl,%edx
    a7e0:	89 d0                	mov    %edx,%eax
    a7e2:	eb 03                	jmp    a7e7 <safe_rshift_func_int32_t_s_s+0x31>
    a7e4:	8b 45 fc             	mov    -0x4(%rbp),%eax
    a7e7:	5d                   	pop    %rbp
    a7e8:	c3                   	retq   

000000000000a7e9 <safe_rshift_func_int32_t_s_u>:
    a7e9:	f3 0f 1e fa          	endbr64 
    a7ed:	55                   	push   %rbp
    a7ee:	48 89 e5             	mov    %rsp,%rbp
    a7f1:	89 7d fc             	mov    %edi,-0x4(%rbp)
    a7f4:	89 75 f8             	mov    %esi,-0x8(%rbp)
    a7f7:	83 7d fc 00          	cmpl   $0x0,-0x4(%rbp)
    a7fb:	78 14                	js     a811 <safe_rshift_func_int32_t_s_u+0x28>
    a7fd:	83 7d f8 1f          	cmpl   $0x1f,-0x8(%rbp)
    a801:	77 0e                	ja     a811 <safe_rshift_func_int32_t_s_u+0x28>
    a803:	8b 45 f8             	mov    -0x8(%rbp),%eax
    a806:	8b 55 fc             	mov    -0x4(%rbp),%edx
    a809:	89 c1                	mov    %eax,%ecx
    a80b:	d3 fa                	sar    %cl,%edx
    a80d:	89 d0                	mov    %edx,%eax
    a80f:	eb 03                	jmp    a814 <safe_rshift_func_int32_t_s_u+0x2b>
    a811:	8b 45 fc             	mov    -0x4(%rbp),%eax
    a814:	5d                   	pop    %rbp
    a815:	c3                   	retq   

000000000000a816 <safe_unary_minus_func_int64_t_s>:
    a816:	f3 0f 1e fa          	endbr64 
    a81a:	55                   	push   %rbp
    a81b:	48 89 e5             	mov    %rsp,%rbp
    a81e:	48 89 7d f8          	mov    %rdi,-0x8(%rbp)
    a822:	48 b8 00 00 00 00 00 	movabs $0x8000000000000000,%rax
    a829:	00 00 80 
    a82c:	48 39 45 f8          	cmp    %rax,-0x8(%rbp)
    a830:	74 09                	je     a83b <safe_unary_minus_func_int64_t_s+0x25>
    a832:	48 8b 45 f8          	mov    -0x8(%rbp),%rax
    a836:	48 f7 d8             	neg    %rax
    a839:	eb 04                	jmp    a83f <safe_unary_minus_func_int64_t_s+0x29>
    a83b:	48 8b 45 f8          	mov    -0x8(%rbp),%rax
    a83f:	5d                   	pop    %rbp
    a840:	c3                   	retq   

000000000000a841 <safe_add_func_int64_t_s_s>:
    a841:	f3 0f 1e fa          	endbr64 
    a845:	55                   	push   %rbp
    a846:	48 89 e5             	mov    %rsp,%rbp
    a849:	48 89 7d f8          	mov    %rdi,-0x8(%rbp)
    a84d:	48 89 75 f0          	mov    %rsi,-0x10(%rbp)
    a851:	48 83 7d f8 00       	cmpq   $0x0,-0x8(%rbp)
    a856:	7e 1b                	jle    a873 <safe_add_func_int64_t_s_s+0x32>
    a858:	48 83 7d f0 00       	cmpq   $0x0,-0x10(%rbp)
    a85d:	7e 14                	jle    a873 <safe_add_func_int64_t_s_s+0x32>
    a85f:	48 b8 ff ff ff ff ff 	movabs $0x7fffffffffffffff,%rax
    a866:	ff ff 7f 
    a869:	48 2b 45 f0          	sub    -0x10(%rbp),%rax
    a86d:	48 39 45 f8          	cmp    %rax,-0x8(%rbp)
    a871:	7f 2f                	jg     a8a2 <safe_add_func_int64_t_s_s+0x61>
    a873:	48 83 7d f8 00       	cmpq   $0x0,-0x8(%rbp)
    a878:	79 1b                	jns    a895 <safe_add_func_int64_t_s_s+0x54>
    a87a:	48 83 7d f0 00       	cmpq   $0x0,-0x10(%rbp)
    a87f:	79 14                	jns    a895 <safe_add_func_int64_t_s_s+0x54>
    a881:	48 b8 00 00 00 00 00 	movabs $0x8000000000000000,%rax
    a888:	00 00 80 
    a88b:	48 2b 45 f0          	sub    -0x10(%rbp),%rax
    a88f:	48 39 45 f8          	cmp    %rax,-0x8(%rbp)
    a893:	7c 0d                	jl     a8a2 <safe_add_func_int64_t_s_s+0x61>
    a895:	48 8b 55 f8          	mov    -0x8(%rbp),%rdx
    a899:	48 8b 45 f0          	mov    -0x10(%rbp),%rax
    a89d:	48 01 d0             	add    %rdx,%rax
    a8a0:	eb 04                	jmp    a8a6 <safe_add_func_int64_t_s_s+0x65>
    a8a2:	48 8b 45 f8          	mov    -0x8(%rbp),%rax
    a8a6:	5d                   	pop    %rbp
    a8a7:	c3                   	retq   

000000000000a8a8 <safe_sub_func_int64_t_s_s>:
    a8a8:	f3 0f 1e fa          	endbr64 
    a8ac:	55                   	push   %rbp
    a8ad:	48 89 e5             	mov    %rsp,%rbp
    a8b0:	48 89 7d f8          	mov    %rdi,-0x8(%rbp)
    a8b4:	48 89 75 f0          	mov    %rsi,-0x10(%rbp)
    a8b8:	48 8b 45 f8          	mov    -0x8(%rbp),%rax
    a8bc:	48 33 45 f0          	xor    -0x10(%rbp),%rax
    a8c0:	48 89 c2             	mov    %rax,%rdx
    a8c3:	48 8b 45 f8          	mov    -0x8(%rbp),%rax
    a8c7:	48 33 45 f0          	xor    -0x10(%rbp),%rax
    a8cb:	48 b9 00 00 00 00 00 	movabs $0x8000000000000000,%rcx
    a8d2:	00 00 80 
    a8d5:	48 21 c8             	and    %rcx,%rax
    a8d8:	48 33 45 f8          	xor    -0x8(%rbp),%rax
    a8dc:	48 2b 45 f0          	sub    -0x10(%rbp),%rax
    a8e0:	48 33 45 f0          	xor    -0x10(%rbp),%rax
    a8e4:	48 21 d0             	and    %rdx,%rax
    a8e7:	48 85 c0             	test   %rax,%rax
    a8ea:	78 0a                	js     a8f6 <safe_sub_func_int64_t_s_s+0x4e>
    a8ec:	48 8b 45 f8          	mov    -0x8(%rbp),%rax
    a8f0:	48 2b 45 f0          	sub    -0x10(%rbp),%rax
    a8f4:	eb 04                	jmp    a8fa <safe_sub_func_int64_t_s_s+0x52>
    a8f6:	48 8b 45 f8          	mov    -0x8(%rbp),%rax
    a8fa:	5d                   	pop    %rbp
    a8fb:	c3                   	retq   

000000000000a8fc <safe_mul_func_int64_t_s_s>:
    a8fc:	f3 0f 1e fa          	endbr64 
    a900:	55                   	push   %rbp
    a901:	48 89 e5             	mov    %rsp,%rbp
    a904:	48 89 7d f8          	mov    %rdi,-0x8(%rbp)
    a908:	48 89 75 f0          	mov    %rsi,-0x10(%rbp)
    a90c:	48 83 7d f8 00       	cmpq   $0x0,-0x8(%rbp)
    a911:	7e 1d                	jle    a930 <safe_mul_func_int64_t_s_s+0x34>
    a913:	48 83 7d f0 00       	cmpq   $0x0,-0x10(%rbp)
    a918:	7e 16                	jle    a930 <safe_mul_func_int64_t_s_s+0x34>
    a91a:	48 b8 ff ff ff ff ff 	movabs $0x7fffffffffffffff,%rax
    a921:	ff ff 7f 
    a924:	48 99                	cqto   
    a926:	48 f7 7d f0          	idivq  -0x10(%rbp)
    a92a:	48 39 45 f8          	cmp    %rax,-0x8(%rbp)
    a92e:	7f 7e                	jg     a9ae <safe_mul_func_int64_t_s_s+0xb2>
    a930:	48 83 7d f8 00       	cmpq   $0x0,-0x8(%rbp)
    a935:	7e 1d                	jle    a954 <safe_mul_func_int64_t_s_s+0x58>
    a937:	48 83 7d f0 00       	cmpq   $0x0,-0x10(%rbp)
    a93c:	7f 16                	jg     a954 <safe_mul_func_int64_t_s_s+0x58>
    a93e:	48 b8 00 00 00 00 00 	movabs $0x8000000000000000,%rax
    a945:	00 00 80 
    a948:	48 99                	cqto   
    a94a:	48 f7 7d f8          	idivq  -0x8(%rbp)
    a94e:	48 39 45 f0          	cmp    %rax,-0x10(%rbp)
    a952:	7c 5a                	jl     a9ae <safe_mul_func_int64_t_s_s+0xb2>
    a954:	48 83 7d f8 00       	cmpq   $0x0,-0x8(%rbp)
    a959:	7f 1d                	jg     a978 <safe_mul_func_int64_t_s_s+0x7c>
    a95b:	48 83 7d f0 00       	cmpq   $0x0,-0x10(%rbp)
    a960:	7e 16                	jle    a978 <safe_mul_func_int64_t_s_s+0x7c>
    a962:	48 b8 00 00 00 00 00 	movabs $0x8000000000000000,%rax
    a969:	00 00 80 
    a96c:	48 99                	cqto   
    a96e:	48 f7 7d f0          	idivq  -0x10(%rbp)
    a972:	48 39 45 f8          	cmp    %rax,-0x8(%rbp)
    a976:	7c 36                	jl     a9ae <safe_mul_func_int64_t_s_s+0xb2>
    a978:	48 83 7d f8 00       	cmpq   $0x0,-0x8(%rbp)
    a97d:	7f 24                	jg     a9a3 <safe_mul_func_int64_t_s_s+0xa7>
    a97f:	48 83 7d f0 00       	cmpq   $0x0,-0x10(%rbp)
    a984:	7f 1d                	jg     a9a3 <safe_mul_func_int64_t_s_s+0xa7>
    a986:	48 83 7d f8 00       	cmpq   $0x0,-0x8(%rbp)
    a98b:	74 16                	je     a9a3 <safe_mul_func_int64_t_s_s+0xa7>
    a98d:	48 b8 ff ff ff ff ff 	movabs $0x7fffffffffffffff,%rax
    a994:	ff ff 7f 
    a997:	48 99                	cqto   
    a999:	48 f7 7d f8          	idivq  -0x8(%rbp)
    a99d:	48 39 45 f0          	cmp    %rax,-0x10(%rbp)
    a9a1:	7c 0b                	jl     a9ae <safe_mul_func_int64_t_s_s+0xb2>
    a9a3:	48 8b 45 f8          	mov    -0x8(%rbp),%rax
    a9a7:	48 0f af 45 f0       	imul   -0x10(%rbp),%rax
    a9ac:	eb 04                	jmp    a9b2 <safe_mul_func_int64_t_s_s+0xb6>
    a9ae:	48 8b 45 f8          	mov    -0x8(%rbp),%rax
    a9b2:	5d                   	pop    %rbp
    a9b3:	c3                   	retq   

000000000000a9b4 <safe_mod_func_int64_t_s_s>:
    a9b4:	f3 0f 1e fa          	endbr64 
    a9b8:	55                   	push   %rbp
    a9b9:	48 89 e5             	mov    %rsp,%rbp
    a9bc:	48 89 7d f8          	mov    %rdi,-0x8(%rbp)
    a9c0:	48 89 75 f0          	mov    %rsi,-0x10(%rbp)
    a9c4:	48 83 7d f0 00       	cmpq   $0x0,-0x10(%rbp)
    a9c9:	74 26                	je     a9f1 <safe_mod_func_int64_t_s_s+0x3d>
    a9cb:	48 b8 00 00 00 00 00 	movabs $0x8000000000000000,%rax
    a9d2:	00 00 80 
    a9d5:	48 39 45 f8          	cmp    %rax,-0x8(%rbp)
    a9d9:	75 07                	jne    a9e2 <safe_mod_func_int64_t_s_s+0x2e>
    a9db:	48 83 7d f0 ff       	cmpq   $0xffffffffffffffff,-0x10(%rbp)
    a9e0:	74 0f                	je     a9f1 <safe_mod_func_int64_t_s_s+0x3d>
    a9e2:	48 8b 45 f8          	mov    -0x8(%rbp),%rax
    a9e6:	48 99                	cqto   
    a9e8:	48 f7 7d f0          	idivq  -0x10(%rbp)
    a9ec:	48 89 d0             	mov    %rdx,%rax
    a9ef:	eb 04                	jmp    a9f5 <safe_mod_func_int64_t_s_s+0x41>
    a9f1:	48 8b 45 f8          	mov    -0x8(%rbp),%rax
    a9f5:	5d                   	pop    %rbp
    a9f6:	c3                   	retq   

000000000000a9f7 <safe_div_func_int64_t_s_s>:
    a9f7:	f3 0f 1e fa          	endbr64 
    a9fb:	55                   	push   %rbp
    a9fc:	48 89 e5             	mov    %rsp,%rbp
    a9ff:	48 89 7d f8          	mov    %rdi,-0x8(%rbp)
    aa03:	48 89 75 f0          	mov    %rsi,-0x10(%rbp)
    aa07:	48 83 7d f0 00       	cmpq   $0x0,-0x10(%rbp)
    aa0c:	74 23                	je     aa31 <safe_div_func_int64_t_s_s+0x3a>
    aa0e:	48 b8 00 00 00 00 00 	movabs $0x8000000000000000,%rax
    aa15:	00 00 80 
    aa18:	48 39 45 f8          	cmp    %rax,-0x8(%rbp)
    aa1c:	75 07                	jne    aa25 <safe_div_func_int64_t_s_s+0x2e>
    aa1e:	48 83 7d f0 ff       	cmpq   $0xffffffffffffffff,-0x10(%rbp)
    aa23:	74 0c                	je     aa31 <safe_div_func_int64_t_s_s+0x3a>
    aa25:	48 8b 45 f8          	mov    -0x8(%rbp),%rax
    aa29:	48 99                	cqto   
    aa2b:	48 f7 7d f0          	idivq  -0x10(%rbp)
    aa2f:	eb 04                	jmp    aa35 <safe_div_func_int64_t_s_s+0x3e>
    aa31:	48 8b 45 f8          	mov    -0x8(%rbp),%rax
    aa35:	5d                   	pop    %rbp
    aa36:	c3                   	retq   

000000000000aa37 <safe_lshift_func_int64_t_s_s>:
    aa37:	f3 0f 1e fa          	endbr64 
    aa3b:	55                   	push   %rbp
    aa3c:	48 89 e5             	mov    %rsp,%rbp
    aa3f:	48 89 7d f8          	mov    %rdi,-0x8(%rbp)
    aa43:	89 75 f4             	mov    %esi,-0xc(%rbp)
    aa46:	48 83 7d f8 00       	cmpq   $0x0,-0x8(%rbp)
    aa4b:	78 38                	js     aa85 <safe_lshift_func_int64_t_s_s+0x4e>
    aa4d:	83 7d f4 00          	cmpl   $0x0,-0xc(%rbp)
    aa51:	78 32                	js     aa85 <safe_lshift_func_int64_t_s_s+0x4e>
    aa53:	83 7d f4 1f          	cmpl   $0x1f,-0xc(%rbp)
    aa57:	7f 2c                	jg     aa85 <safe_lshift_func_int64_t_s_s+0x4e>
    aa59:	8b 45 f4             	mov    -0xc(%rbp),%eax
    aa5c:	48 ba ff ff ff ff ff 	movabs $0x7fffffffffffffff,%rdx
    aa63:	ff ff 7f 
    aa66:	89 c1                	mov    %eax,%ecx
    aa68:	48 d3 fa             	sar    %cl,%rdx
    aa6b:	48 89 d0             	mov    %rdx,%rax
    aa6e:	48 39 45 f8          	cmp    %rax,-0x8(%rbp)
    aa72:	7f 11                	jg     aa85 <safe_lshift_func_int64_t_s_s+0x4e>
    aa74:	8b 45 f4             	mov    -0xc(%rbp),%eax
    aa77:	48 8b 55 f8          	mov    -0x8(%rbp),%rdx
    aa7b:	89 c1                	mov    %eax,%ecx
    aa7d:	48 d3 e2             	shl    %cl,%rdx
    aa80:	48 89 d0             	mov    %rdx,%rax
    aa83:	eb 04                	jmp    aa89 <safe_lshift_func_int64_t_s_s+0x52>
    aa85:	48 8b 45 f8          	mov    -0x8(%rbp),%rax
    aa89:	5d                   	pop    %rbp
    aa8a:	c3                   	retq   

000000000000aa8b <safe_lshift_func_int64_t_s_u>:
    aa8b:	f3 0f 1e fa          	endbr64 
    aa8f:	55                   	push   %rbp
    aa90:	48 89 e5             	mov    %rsp,%rbp
    aa93:	48 89 7d f8          	mov    %rdi,-0x8(%rbp)
    aa97:	89 75 f4             	mov    %esi,-0xc(%rbp)
    aa9a:	48 83 7d f8 00       	cmpq   $0x0,-0x8(%rbp)
    aa9f:	78 32                	js     aad3 <safe_lshift_func_int64_t_s_u+0x48>
    aaa1:	83 7d f4 1f          	cmpl   $0x1f,-0xc(%rbp)
    aaa5:	77 2c                	ja     aad3 <safe_lshift_func_int64_t_s_u+0x48>
    aaa7:	8b 45 f4             	mov    -0xc(%rbp),%eax
    aaaa:	48 ba ff ff ff ff ff 	movabs $0x7fffffffffffffff,%rdx
    aab1:	ff ff 7f 
    aab4:	89 c1                	mov    %eax,%ecx
    aab6:	48 d3 fa             	sar    %cl,%rdx
    aab9:	48 89 d0             	mov    %rdx,%rax
    aabc:	48 39 45 f8          	cmp    %rax,-0x8(%rbp)
    aac0:	7f 11                	jg     aad3 <safe_lshift_func_int64_t_s_u+0x48>
    aac2:	8b 45 f4             	mov    -0xc(%rbp),%eax
    aac5:	48 8b 55 f8          	mov    -0x8(%rbp),%rdx
    aac9:	89 c1                	mov    %eax,%ecx
    aacb:	48 d3 e2             	shl    %cl,%rdx
    aace:	48 89 d0             	mov    %rdx,%rax
    aad1:	eb 04                	jmp    aad7 <safe_lshift_func_int64_t_s_u+0x4c>
    aad3:	48 8b 45 f8          	mov    -0x8(%rbp),%rax
    aad7:	5d                   	pop    %rbp
    aad8:	c3                   	retq   

000000000000aad9 <safe_rshift_func_int64_t_s_s>:
    aad9:	f3 0f 1e fa          	endbr64 
    aadd:	55                   	push   %rbp
    aade:	48 89 e5             	mov    %rsp,%rbp
    aae1:	48 89 7d f8          	mov    %rdi,-0x8(%rbp)
    aae5:	89 75 f4             	mov    %esi,-0xc(%rbp)
    aae8:	48 83 7d f8 00       	cmpq   $0x0,-0x8(%rbp)
    aaed:	78 1d                	js     ab0c <safe_rshift_func_int64_t_s_s+0x33>
    aaef:	83 7d f4 00          	cmpl   $0x0,-0xc(%rbp)
    aaf3:	78 17                	js     ab0c <safe_rshift_func_int64_t_s_s+0x33>
    aaf5:	83 7d f4 1f          	cmpl   $0x1f,-0xc(%rbp)
    aaf9:	7f 11                	jg     ab0c <safe_rshift_func_int64_t_s_s+0x33>
    aafb:	8b 45 f4             	mov    -0xc(%rbp),%eax
    aafe:	48 8b 55 f8          	mov    -0x8(%rbp),%rdx
    ab02:	89 c1                	mov    %eax,%ecx
    ab04:	48 d3 fa             	sar    %cl,%rdx
    ab07:	48 89 d0             	mov    %rdx,%rax
    ab0a:	eb 04                	jmp    ab10 <safe_rshift_func_int64_t_s_s+0x37>
    ab0c:	48 8b 45 f8          	mov    -0x8(%rbp),%rax
    ab10:	5d                   	pop    %rbp
    ab11:	c3                   	retq   

000000000000ab12 <safe_rshift_func_int64_t_s_u>:
    ab12:	f3 0f 1e fa          	endbr64 
    ab16:	55                   	push   %rbp
    ab17:	48 89 e5             	mov    %rsp,%rbp
    ab1a:	48 89 7d f8          	mov    %rdi,-0x8(%rbp)
    ab1e:	89 75 f4             	mov    %esi,-0xc(%rbp)
    ab21:	48 83 7d f8 00       	cmpq   $0x0,-0x8(%rbp)
    ab26:	78 17                	js     ab3f <safe_rshift_func_int64_t_s_u+0x2d>
    ab28:	83 7d f4 1f          	cmpl   $0x1f,-0xc(%rbp)
    ab2c:	77 11                	ja     ab3f <safe_rshift_func_int64_t_s_u+0x2d>
    ab2e:	8b 45 f4             	mov    -0xc(%rbp),%eax
    ab31:	48 8b 55 f8          	mov    -0x8(%rbp),%rdx
    ab35:	89 c1                	mov    %eax,%ecx
    ab37:	48 d3 fa             	sar    %cl,%rdx
    ab3a:	48 89 d0             	mov    %rdx,%rax
    ab3d:	eb 04                	jmp    ab43 <safe_rshift_func_int64_t_s_u+0x31>
    ab3f:	48 8b 45 f8          	mov    -0x8(%rbp),%rax
    ab43:	5d                   	pop    %rbp
    ab44:	c3                   	retq   

000000000000ab45 <safe_unary_minus_func_uint8_t_u>:
    ab45:	f3 0f 1e fa          	endbr64 
    ab49:	55                   	push   %rbp
    ab4a:	48 89 e5             	mov    %rsp,%rbp
    ab4d:	89 f8                	mov    %edi,%eax
    ab4f:	88 45 fc             	mov    %al,-0x4(%rbp)
    ab52:	0f b6 45 fc          	movzbl -0x4(%rbp),%eax
    ab56:	f7 d8                	neg    %eax
    ab58:	5d                   	pop    %rbp
    ab59:	c3                   	retq   

000000000000ab5a <safe_add_func_uint8_t_u_u>:
    ab5a:	f3 0f 1e fa          	endbr64 
    ab5e:	55                   	push   %rbp
    ab5f:	48 89 e5             	mov    %rsp,%rbp
    ab62:	89 fa                	mov    %edi,%edx
    ab64:	89 f0                	mov    %esi,%eax
    ab66:	88 55 fc             	mov    %dl,-0x4(%rbp)
    ab69:	88 45 f8             	mov    %al,-0x8(%rbp)
    ab6c:	0f b6 55 fc          	movzbl -0x4(%rbp),%edx
    ab70:	0f b6 45 f8          	movzbl -0x8(%rbp),%eax
    ab74:	01 d0                	add    %edx,%eax
    ab76:	5d                   	pop    %rbp
    ab77:	c3                   	retq   

000000000000ab78 <safe_sub_func_uint8_t_u_u>:
    ab78:	f3 0f 1e fa          	endbr64 
    ab7c:	55                   	push   %rbp
    ab7d:	48 89 e5             	mov    %rsp,%rbp
    ab80:	89 fa                	mov    %edi,%edx
    ab82:	89 f0                	mov    %esi,%eax
    ab84:	88 55 fc             	mov    %dl,-0x4(%rbp)
    ab87:	88 45 f8             	mov    %al,-0x8(%rbp)
    ab8a:	0f b6 45 fc          	movzbl -0x4(%rbp),%eax
    ab8e:	2a 45 f8             	sub    -0x8(%rbp),%al
    ab91:	5d                   	pop    %rbp
    ab92:	c3                   	retq   

000000000000ab93 <safe_mul_func_uint8_t_u_u>:
    ab93:	f3 0f 1e fa          	endbr64 
    ab97:	55                   	push   %rbp
    ab98:	48 89 e5             	mov    %rsp,%rbp
    ab9b:	89 fa                	mov    %edi,%edx
    ab9d:	89 f0                	mov    %esi,%eax
    ab9f:	88 55 fc             	mov    %dl,-0x4(%rbp)
    aba2:	88 45 f8             	mov    %al,-0x8(%rbp)
    aba5:	0f b6 45 fc          	movzbl -0x4(%rbp),%eax
    aba9:	f6 65 f8             	mulb   -0x8(%rbp)
    abac:	5d                   	pop    %rbp
    abad:	c3                   	retq   

000000000000abae <safe_mod_func_uint8_t_u_u>:
    abae:	f3 0f 1e fa          	endbr64 
    abb2:	55                   	push   %rbp
    abb3:	48 89 e5             	mov    %rsp,%rbp
    abb6:	89 fa                	mov    %edi,%edx
    abb8:	89 f0                	mov    %esi,%eax
    abba:	88 55 fc             	mov    %dl,-0x4(%rbp)
    abbd:	88 45 f8             	mov    %al,-0x8(%rbp)
    abc0:	80 7d f8 00          	cmpb   $0x0,-0x8(%rbp)
    abc4:	74 0f                	je     abd5 <safe_mod_func_uint8_t_u_u+0x27>
    abc6:	0f b6 45 fc          	movzbl -0x4(%rbp),%eax
    abca:	0f b6 c0             	movzbl %al,%eax
    abcd:	f6 75 f8             	divb   -0x8(%rbp)
    abd0:	0f b6 c4             	movzbl %ah,%eax
    abd3:	eb 04                	jmp    abd9 <safe_mod_func_uint8_t_u_u+0x2b>
    abd5:	0f b6 45 fc          	movzbl -0x4(%rbp),%eax
    abd9:	5d                   	pop    %rbp
    abda:	c3                   	retq   

000000000000abdb <safe_div_func_uint8_t_u_u>:
    abdb:	f3 0f 1e fa          	endbr64 
    abdf:	55                   	push   %rbp
    abe0:	48 89 e5             	mov    %rsp,%rbp
    abe3:	89 fa                	mov    %edi,%edx
    abe5:	89 f0                	mov    %esi,%eax
    abe7:	88 55 fc             	mov    %dl,-0x4(%rbp)
    abea:	88 45 f8             	mov    %al,-0x8(%rbp)
    abed:	80 7d f8 00          	cmpb   $0x0,-0x8(%rbp)
    abf1:	74 0c                	je     abff <safe_div_func_uint8_t_u_u+0x24>
    abf3:	0f b6 45 fc          	movzbl -0x4(%rbp),%eax
    abf7:	0f b6 c0             	movzbl %al,%eax
    abfa:	f6 75 f8             	divb   -0x8(%rbp)
    abfd:	eb 04                	jmp    ac03 <safe_div_func_uint8_t_u_u+0x28>
    abff:	0f b6 45 fc          	movzbl -0x4(%rbp),%eax
    ac03:	5d                   	pop    %rbp
    ac04:	c3                   	retq   

000000000000ac05 <safe_lshift_func_uint8_t_u_s>:
    ac05:	f3 0f 1e fa          	endbr64 
    ac09:	55                   	push   %rbp
    ac0a:	48 89 e5             	mov    %rsp,%rbp
    ac0d:	89 f8                	mov    %edi,%eax
    ac0f:	89 75 f8             	mov    %esi,-0x8(%rbp)
    ac12:	88 45 fc             	mov    %al,-0x4(%rbp)
    ac15:	83 7d f8 00          	cmpl   $0x0,-0x8(%rbp)
    ac19:	78 2b                	js     ac46 <safe_lshift_func_uint8_t_u_s+0x41>
    ac1b:	83 7d f8 1f          	cmpl   $0x1f,-0x8(%rbp)
    ac1f:	7f 25                	jg     ac46 <safe_lshift_func_uint8_t_u_s+0x41>
    ac21:	0f b6 55 fc          	movzbl -0x4(%rbp),%edx
    ac25:	8b 45 f8             	mov    -0x8(%rbp),%eax
    ac28:	be ff 00 00 00       	mov    $0xff,%esi
    ac2d:	89 c1                	mov    %eax,%ecx
    ac2f:	d3 fe                	sar    %cl,%esi
    ac31:	89 f0                	mov    %esi,%eax
    ac33:	39 c2                	cmp    %eax,%edx
    ac35:	7f 0f                	jg     ac46 <safe_lshift_func_uint8_t_u_s+0x41>
    ac37:	0f b6 55 fc          	movzbl -0x4(%rbp),%edx
    ac3b:	8b 45 f8             	mov    -0x8(%rbp),%eax
    ac3e:	89 c1                	mov    %eax,%ecx
    ac40:	d3 e2                	shl    %cl,%edx
    ac42:	89 d0                	mov    %edx,%eax
    ac44:	eb 04                	jmp    ac4a <safe_lshift_func_uint8_t_u_s+0x45>
    ac46:	0f b6 45 fc          	movzbl -0x4(%rbp),%eax
    ac4a:	5d                   	pop    %rbp
    ac4b:	c3                   	retq   

000000000000ac4c <safe_lshift_func_uint8_t_u_u>:
    ac4c:	f3 0f 1e fa          	endbr64 
    ac50:	55                   	push   %rbp
    ac51:	48 89 e5             	mov    %rsp,%rbp
    ac54:	89 f8                	mov    %edi,%eax
    ac56:	89 75 f8             	mov    %esi,-0x8(%rbp)
    ac59:	88 45 fc             	mov    %al,-0x4(%rbp)
    ac5c:	83 7d f8 1f          	cmpl   $0x1f,-0x8(%rbp)
    ac60:	77 25                	ja     ac87 <safe_lshift_func_uint8_t_u_u+0x3b>
    ac62:	0f b6 55 fc          	movzbl -0x4(%rbp),%edx
    ac66:	8b 45 f8             	mov    -0x8(%rbp),%eax
    ac69:	be ff 00 00 00       	mov    $0xff,%esi
    ac6e:	89 c1                	mov    %eax,%ecx
    ac70:	d3 fe                	sar    %cl,%esi
    ac72:	89 f0                	mov    %esi,%eax
    ac74:	39 c2                	cmp    %eax,%edx
    ac76:	7f 0f                	jg     ac87 <safe_lshift_func_uint8_t_u_u+0x3b>
    ac78:	0f b6 55 fc          	movzbl -0x4(%rbp),%edx
    ac7c:	8b 45 f8             	mov    -0x8(%rbp),%eax
    ac7f:	89 c1                	mov    %eax,%ecx
    ac81:	d3 e2                	shl    %cl,%edx
    ac83:	89 d0                	mov    %edx,%eax
    ac85:	eb 04                	jmp    ac8b <safe_lshift_func_uint8_t_u_u+0x3f>
    ac87:	0f b6 45 fc          	movzbl -0x4(%rbp),%eax
    ac8b:	5d                   	pop    %rbp
    ac8c:	c3                   	retq   

000000000000ac8d <safe_rshift_func_uint8_t_u_s>:
    ac8d:	f3 0f 1e fa          	endbr64 
    ac91:	55                   	push   %rbp
    ac92:	48 89 e5             	mov    %rsp,%rbp
    ac95:	89 f8                	mov    %edi,%eax
    ac97:	89 75 f8             	mov    %esi,-0x8(%rbp)
    ac9a:	88 45 fc             	mov    %al,-0x4(%rbp)
    ac9d:	83 7d f8 00          	cmpl   $0x0,-0x8(%rbp)
    aca1:	78 15                	js     acb8 <safe_rshift_func_uint8_t_u_s+0x2b>
    aca3:	83 7d f8 1f          	cmpl   $0x1f,-0x8(%rbp)
    aca7:	7f 0f                	jg     acb8 <safe_rshift_func_uint8_t_u_s+0x2b>
    aca9:	0f b6 55 fc          	movzbl -0x4(%rbp),%edx
    acad:	8b 45 f8             	mov    -0x8(%rbp),%eax
    acb0:	89 c1                	mov    %eax,%ecx
    acb2:	d3 fa                	sar    %cl,%edx
    acb4:	89 d0                	mov    %edx,%eax
    acb6:	eb 04                	jmp    acbc <safe_rshift_func_uint8_t_u_s+0x2f>
    acb8:	0f b6 45 fc          	movzbl -0x4(%rbp),%eax
    acbc:	5d                   	pop    %rbp
    acbd:	c3                   	retq   

000000000000acbe <safe_rshift_func_uint8_t_u_u>:
    acbe:	f3 0f 1e fa          	endbr64 
    acc2:	55                   	push   %rbp
    acc3:	48 89 e5             	mov    %rsp,%rbp
    acc6:	89 f8                	mov    %edi,%eax
    acc8:	89 75 f8             	mov    %esi,-0x8(%rbp)
    accb:	88 45 fc             	mov    %al,-0x4(%rbp)
    acce:	83 7d f8 1f          	cmpl   $0x1f,-0x8(%rbp)
    acd2:	77 0f                	ja     ace3 <safe_rshift_func_uint8_t_u_u+0x25>
    acd4:	0f b6 55 fc          	movzbl -0x4(%rbp),%edx
    acd8:	8b 45 f8             	mov    -0x8(%rbp),%eax
    acdb:	89 c1                	mov    %eax,%ecx
    acdd:	d3 fa                	sar    %cl,%edx
    acdf:	89 d0                	mov    %edx,%eax
    ace1:	eb 04                	jmp    ace7 <safe_rshift_func_uint8_t_u_u+0x29>
    ace3:	0f b6 45 fc          	movzbl -0x4(%rbp),%eax
    ace7:	5d                   	pop    %rbp
    ace8:	c3                   	retq   

000000000000ace9 <safe_unary_minus_func_uint16_t_u>:
    ace9:	f3 0f 1e fa          	endbr64 
    aced:	55                   	push   %rbp
    acee:	48 89 e5             	mov    %rsp,%rbp
    acf1:	89 f8                	mov    %edi,%eax
    acf3:	66 89 45 fc          	mov    %ax,-0x4(%rbp)
    acf7:	0f b7 45 fc          	movzwl -0x4(%rbp),%eax
    acfb:	f7 d8                	neg    %eax
    acfd:	5d                   	pop    %rbp
    acfe:	c3                   	retq   

000000000000acff <safe_add_func_uint16_t_u_u>:
    acff:	f3 0f 1e fa          	endbr64 
    ad03:	55                   	push   %rbp
    ad04:	48 89 e5             	mov    %rsp,%rbp
    ad07:	89 fa                	mov    %edi,%edx
    ad09:	89 f0                	mov    %esi,%eax
    ad0b:	66 89 55 fc          	mov    %dx,-0x4(%rbp)
    ad0f:	66 89 45 f8          	mov    %ax,-0x8(%rbp)
    ad13:	0f b7 55 fc          	movzwl -0x4(%rbp),%edx
    ad17:	0f b7 45 f8          	movzwl -0x8(%rbp),%eax
    ad1b:	01 d0                	add    %edx,%eax
    ad1d:	5d                   	pop    %rbp
    ad1e:	c3                   	retq   

000000000000ad1f <safe_sub_func_uint16_t_u_u>:
    ad1f:	f3 0f 1e fa          	endbr64 
    ad23:	55                   	push   %rbp
    ad24:	48 89 e5             	mov    %rsp,%rbp
    ad27:	89 fa                	mov    %edi,%edx
    ad29:	89 f0                	mov    %esi,%eax
    ad2b:	66 89 55 fc          	mov    %dx,-0x4(%rbp)
    ad2f:	66 89 45 f8          	mov    %ax,-0x8(%rbp)
    ad33:	0f b7 45 fc          	movzwl -0x4(%rbp),%eax
    ad37:	66 2b 45 f8          	sub    -0x8(%rbp),%ax
    ad3b:	5d                   	pop    %rbp
    ad3c:	c3                   	retq   

000000000000ad3d <safe_mul_func_uint16_t_u_u>:
    ad3d:	f3 0f 1e fa          	endbr64 
    ad41:	55                   	push   %rbp
    ad42:	48 89 e5             	mov    %rsp,%rbp
    ad45:	89 fa                	mov    %edi,%edx
    ad47:	89 f0                	mov    %esi,%eax
    ad49:	66 89 55 fc          	mov    %dx,-0x4(%rbp)
    ad4d:	66 89 45 f8          	mov    %ax,-0x8(%rbp)
    ad51:	0f b7 45 fc          	movzwl -0x4(%rbp),%eax
    ad55:	66 0f af 45 f8       	imul   -0x8(%rbp),%ax
    ad5a:	5d                   	pop    %rbp
    ad5b:	c3                   	retq   

000000000000ad5c <safe_mod_func_uint16_t_u_u>:
    ad5c:	f3 0f 1e fa          	endbr64 
    ad60:	55                   	push   %rbp
    ad61:	48 89 e5             	mov    %rsp,%rbp
    ad64:	89 fa                	mov    %edi,%edx
    ad66:	89 f0                	mov    %esi,%eax
    ad68:	66 89 55 fc          	mov    %dx,-0x4(%rbp)
    ad6c:	66 89 45 f8          	mov    %ax,-0x8(%rbp)
    ad70:	66 83 7d f8 00       	cmpw   $0x0,-0x8(%rbp)
    ad75:	74 11                	je     ad88 <safe_mod_func_uint16_t_u_u+0x2c>
    ad77:	0f b7 45 fc          	movzwl -0x4(%rbp),%eax
    ad7b:	ba 00 00 00 00       	mov    $0x0,%edx
    ad80:	66 f7 75 f8          	divw   -0x8(%rbp)
    ad84:	89 d0                	mov    %edx,%eax
    ad86:	eb 04                	jmp    ad8c <safe_mod_func_uint16_t_u_u+0x30>
    ad88:	0f b7 45 fc          	movzwl -0x4(%rbp),%eax
    ad8c:	5d                   	pop    %rbp
    ad8d:	c3                   	retq   

000000000000ad8e <safe_div_func_uint16_t_u_u>:
    ad8e:	f3 0f 1e fa          	endbr64 
    ad92:	55                   	push   %rbp
    ad93:	48 89 e5             	mov    %rsp,%rbp
    ad96:	89 fa                	mov    %edi,%edx
    ad98:	89 f0                	mov    %esi,%eax
    ad9a:	66 89 55 fc          	mov    %dx,-0x4(%rbp)
    ad9e:	66 89 45 f8          	mov    %ax,-0x8(%rbp)
    ada2:	66 83 7d f8 00       	cmpw   $0x0,-0x8(%rbp)
    ada7:	74 0f                	je     adb8 <safe_div_func_uint16_t_u_u+0x2a>
    ada9:	0f b7 45 fc          	movzwl -0x4(%rbp),%eax
    adad:	ba 00 00 00 00       	mov    $0x0,%edx
    adb2:	66 f7 75 f8          	divw   -0x8(%rbp)
    adb6:	eb 04                	jmp    adbc <safe_div_func_uint16_t_u_u+0x2e>
    adb8:	0f b7 45 fc          	movzwl -0x4(%rbp),%eax
    adbc:	5d                   	pop    %rbp
    adbd:	c3                   	retq   

000000000000adbe <safe_lshift_func_uint16_t_u_s>:
    adbe:	f3 0f 1e fa          	endbr64 
    adc2:	55                   	push   %rbp
    adc3:	48 89 e5             	mov    %rsp,%rbp
    adc6:	89 f8                	mov    %edi,%eax
    adc8:	89 75 f8             	mov    %esi,-0x8(%rbp)
    adcb:	66 89 45 fc          	mov    %ax,-0x4(%rbp)
    adcf:	83 7d f8 00          	cmpl   $0x0,-0x8(%rbp)
    add3:	78 2b                	js     ae00 <safe_lshift_func_uint16_t_u_s+0x42>
    add5:	83 7d f8 1f          	cmpl   $0x1f,-0x8(%rbp)
    add9:	7f 25                	jg     ae00 <safe_lshift_func_uint16_t_u_s+0x42>
    addb:	0f b7 55 fc          	movzwl -0x4(%rbp),%edx
    addf:	8b 45 f8             	mov    -0x8(%rbp),%eax
    ade2:	be ff ff 00 00       	mov    $0xffff,%esi
    ade7:	89 c1                	mov    %eax,%ecx
    ade9:	d3 fe                	sar    %cl,%esi
    adeb:	89 f0                	mov    %esi,%eax
    aded:	39 c2                	cmp    %eax,%edx
    adef:	7f 0f                	jg     ae00 <safe_lshift_func_uint16_t_u_s+0x42>
    adf1:	0f b7 55 fc          	movzwl -0x4(%rbp),%edx
    adf5:	8b 45 f8             	mov    -0x8(%rbp),%eax
    adf8:	89 c1                	mov    %eax,%ecx
    adfa:	d3 e2                	shl    %cl,%edx
    adfc:	89 d0                	mov    %edx,%eax
    adfe:	eb 04                	jmp    ae04 <safe_lshift_func_uint16_t_u_s+0x46>
    ae00:	0f b7 45 fc          	movzwl -0x4(%rbp),%eax
    ae04:	5d                   	pop    %rbp
    ae05:	c3                   	retq   

000000000000ae06 <safe_lshift_func_uint16_t_u_u>:
    ae06:	f3 0f 1e fa          	endbr64 
    ae0a:	55                   	push   %rbp
    ae0b:	48 89 e5             	mov    %rsp,%rbp
    ae0e:	89 f8                	mov    %edi,%eax
    ae10:	89 75 f8             	mov    %esi,-0x8(%rbp)
    ae13:	66 89 45 fc          	mov    %ax,-0x4(%rbp)
    ae17:	83 7d f8 1f          	cmpl   $0x1f,-0x8(%rbp)
    ae1b:	77 25                	ja     ae42 <safe_lshift_func_uint16_t_u_u+0x3c>
    ae1d:	0f b7 55 fc          	movzwl -0x4(%rbp),%edx
    ae21:	8b 45 f8             	mov    -0x8(%rbp),%eax
    ae24:	be ff ff 00 00       	mov    $0xffff,%esi
    ae29:	89 c1                	mov    %eax,%ecx
    ae2b:	d3 fe                	sar    %cl,%esi
    ae2d:	89 f0                	mov    %esi,%eax
    ae2f:	39 c2                	cmp    %eax,%edx
    ae31:	7f 0f                	jg     ae42 <safe_lshift_func_uint16_t_u_u+0x3c>
    ae33:	0f b7 55 fc          	movzwl -0x4(%rbp),%edx
    ae37:	8b 45 f8             	mov    -0x8(%rbp),%eax
    ae3a:	89 c1                	mov    %eax,%ecx
    ae3c:	d3 e2                	shl    %cl,%edx
    ae3e:	89 d0                	mov    %edx,%eax
    ae40:	eb 04                	jmp    ae46 <safe_lshift_func_uint16_t_u_u+0x40>
    ae42:	0f b7 45 fc          	movzwl -0x4(%rbp),%eax
    ae46:	5d                   	pop    %rbp
    ae47:	c3                   	retq   

000000000000ae48 <safe_rshift_func_uint16_t_u_s>:
    ae48:	f3 0f 1e fa          	endbr64 
    ae4c:	55                   	push   %rbp
    ae4d:	48 89 e5             	mov    %rsp,%rbp
    ae50:	89 f8                	mov    %edi,%eax
    ae52:	89 75 f8             	mov    %esi,-0x8(%rbp)
    ae55:	66 89 45 fc          	mov    %ax,-0x4(%rbp)
    ae59:	83 7d f8 00          	cmpl   $0x0,-0x8(%rbp)
    ae5d:	78 15                	js     ae74 <safe_rshift_func_uint16_t_u_s+0x2c>
    ae5f:	83 7d f8 1f          	cmpl   $0x1f,-0x8(%rbp)
    ae63:	7f 0f                	jg     ae74 <safe_rshift_func_uint16_t_u_s+0x2c>
    ae65:	0f b7 55 fc          	movzwl -0x4(%rbp),%edx
    ae69:	8b 45 f8             	mov    -0x8(%rbp),%eax
    ae6c:	89 c1                	mov    %eax,%ecx
    ae6e:	d3 fa                	sar    %cl,%edx
    ae70:	89 d0                	mov    %edx,%eax
    ae72:	eb 04                	jmp    ae78 <safe_rshift_func_uint16_t_u_s+0x30>
    ae74:	0f b7 45 fc          	movzwl -0x4(%rbp),%eax
    ae78:	5d                   	pop    %rbp
    ae79:	c3                   	retq   

000000000000ae7a <safe_rshift_func_uint16_t_u_u>:
    ae7a:	f3 0f 1e fa          	endbr64 
    ae7e:	55                   	push   %rbp
    ae7f:	48 89 e5             	mov    %rsp,%rbp
    ae82:	89 f8                	mov    %edi,%eax
    ae84:	89 75 f8             	mov    %esi,-0x8(%rbp)
    ae87:	66 89 45 fc          	mov    %ax,-0x4(%rbp)
    ae8b:	83 7d f8 1f          	cmpl   $0x1f,-0x8(%rbp)
    ae8f:	77 0f                	ja     aea0 <safe_rshift_func_uint16_t_u_u+0x26>
    ae91:	0f b7 55 fc          	movzwl -0x4(%rbp),%edx
    ae95:	8b 45 f8             	mov    -0x8(%rbp),%eax
    ae98:	89 c1                	mov    %eax,%ecx
    ae9a:	d3 fa                	sar    %cl,%edx
    ae9c:	89 d0                	mov    %edx,%eax
    ae9e:	eb 04                	jmp    aea4 <safe_rshift_func_uint16_t_u_u+0x2a>
    aea0:	0f b7 45 fc          	movzwl -0x4(%rbp),%eax
    aea4:	5d                   	pop    %rbp
    aea5:	c3                   	retq   

000000000000aea6 <safe_unary_minus_func_uint32_t_u>:
    aea6:	f3 0f 1e fa          	endbr64 
    aeaa:	55                   	push   %rbp
    aeab:	48 89 e5             	mov    %rsp,%rbp
    aeae:	89 7d fc             	mov    %edi,-0x4(%rbp)
    aeb1:	8b 45 fc             	mov    -0x4(%rbp),%eax
    aeb4:	f7 d8                	neg    %eax
    aeb6:	5d                   	pop    %rbp
    aeb7:	c3                   	retq   

000000000000aeb8 <safe_add_func_uint32_t_u_u>:
    aeb8:	f3 0f 1e fa          	endbr64 
    aebc:	55                   	push   %rbp
    aebd:	48 89 e5             	mov    %rsp,%rbp
    aec0:	89 7d fc             	mov    %edi,-0x4(%rbp)
    aec3:	89 75 f8             	mov    %esi,-0x8(%rbp)
    aec6:	8b 55 fc             	mov    -0x4(%rbp),%edx
    aec9:	8b 45 f8             	mov    -0x8(%rbp),%eax
    aecc:	01 d0                	add    %edx,%eax
    aece:	5d                   	pop    %rbp
    aecf:	c3                   	retq   

000000000000aed0 <safe_sub_func_uint32_t_u_u>:
    aed0:	f3 0f 1e fa          	endbr64 
    aed4:	55                   	push   %rbp
    aed5:	48 89 e5             	mov    %rsp,%rbp
    aed8:	89 7d fc             	mov    %edi,-0x4(%rbp)
    aedb:	89 75 f8             	mov    %esi,-0x8(%rbp)
    aede:	8b 45 fc             	mov    -0x4(%rbp),%eax
    aee1:	2b 45 f8             	sub    -0x8(%rbp),%eax
    aee4:	5d                   	pop    %rbp
    aee5:	c3                   	retq   

000000000000aee6 <safe_mul_func_uint32_t_u_u>:
    aee6:	f3 0f 1e fa          	endbr64 
    aeea:	55                   	push   %rbp
    aeeb:	48 89 e5             	mov    %rsp,%rbp
    aeee:	89 7d fc             	mov    %edi,-0x4(%rbp)
    aef1:	89 75 f8             	mov    %esi,-0x8(%rbp)
    aef4:	8b 45 fc             	mov    -0x4(%rbp),%eax
    aef7:	0f af 45 f8          	imul   -0x8(%rbp),%eax
    aefb:	5d                   	pop    %rbp
    aefc:	c3                   	retq   

000000000000aefd <safe_mod_func_uint32_t_u_u>:
    aefd:	f3 0f 1e fa          	endbr64 
    af01:	55                   	push   %rbp
    af02:	48 89 e5             	mov    %rsp,%rbp
    af05:	89 7d fc             	mov    %edi,-0x4(%rbp)
    af08:	89 75 f8             	mov    %esi,-0x8(%rbp)
    af0b:	83 7d f8 00          	cmpl   $0x0,-0x8(%rbp)
    af0f:	74 0f                	je     af20 <safe_mod_func_uint32_t_u_u+0x23>
    af11:	8b 45 fc             	mov    -0x4(%rbp),%eax
    af14:	ba 00 00 00 00       	mov    $0x0,%edx
    af19:	f7 75 f8             	divl   -0x8(%rbp)
    af1c:	89 d0                	mov    %edx,%eax
    af1e:	eb 03                	jmp    af23 <safe_mod_func_uint32_t_u_u+0x26>
    af20:	8b 45 fc             	mov    -0x4(%rbp),%eax
    af23:	5d                   	pop    %rbp
    af24:	c3                   	retq   

000000000000af25 <safe_div_func_uint32_t_u_u>:
    af25:	f3 0f 1e fa          	endbr64 
    af29:	55                   	push   %rbp
    af2a:	48 89 e5             	mov    %rsp,%rbp
    af2d:	89 7d fc             	mov    %edi,-0x4(%rbp)
    af30:	89 75 f8             	mov    %esi,-0x8(%rbp)
    af33:	83 7d f8 00          	cmpl   $0x0,-0x8(%rbp)
    af37:	74 0d                	je     af46 <safe_div_func_uint32_t_u_u+0x21>
    af39:	8b 45 fc             	mov    -0x4(%rbp),%eax
    af3c:	ba 00 00 00 00       	mov    $0x0,%edx
    af41:	f7 75 f8             	divl   -0x8(%rbp)
    af44:	eb 03                	jmp    af49 <safe_div_func_uint32_t_u_u+0x24>
    af46:	8b 45 fc             	mov    -0x4(%rbp),%eax
    af49:	5d                   	pop    %rbp
    af4a:	c3                   	retq   

000000000000af4b <safe_lshift_func_uint32_t_u_s>:
    af4b:	f3 0f 1e fa          	endbr64 
    af4f:	55                   	push   %rbp
    af50:	48 89 e5             	mov    %rsp,%rbp
    af53:	89 7d fc             	mov    %edi,-0x4(%rbp)
    af56:	89 75 f8             	mov    %esi,-0x8(%rbp)
    af59:	83 7d f8 00          	cmpl   $0x0,-0x8(%rbp)
    af5d:	78 27                	js     af86 <safe_lshift_func_uint32_t_u_s+0x3b>
    af5f:	83 7d f8 1f          	cmpl   $0x1f,-0x8(%rbp)
    af63:	7f 21                	jg     af86 <safe_lshift_func_uint32_t_u_s+0x3b>
    af65:	8b 45 f8             	mov    -0x8(%rbp),%eax
    af68:	ba ff ff ff ff       	mov    $0xffffffff,%edx
    af6d:	89 c1                	mov    %eax,%ecx
    af6f:	d3 ea                	shr    %cl,%edx
    af71:	89 d0                	mov    %edx,%eax
    af73:	39 45 fc             	cmp    %eax,-0x4(%rbp)
    af76:	77 0e                	ja     af86 <safe_lshift_func_uint32_t_u_s+0x3b>
    af78:	8b 45 f8             	mov    -0x8(%rbp),%eax
    af7b:	8b 55 fc             	mov    -0x4(%rbp),%edx
    af7e:	89 c1                	mov    %eax,%ecx
    af80:	d3 e2                	shl    %cl,%edx
    af82:	89 d0                	mov    %edx,%eax
    af84:	eb 03                	jmp    af89 <safe_lshift_func_uint32_t_u_s+0x3e>
    af86:	8b 45 fc             	mov    -0x4(%rbp),%eax
    af89:	5d                   	pop    %rbp
    af8a:	c3                   	retq   

000000000000af8b <safe_lshift_func_uint32_t_u_u>:
    af8b:	f3 0f 1e fa          	endbr64 
    af8f:	55                   	push   %rbp
    af90:	48 89 e5             	mov    %rsp,%rbp
    af93:	89 7d fc             	mov    %edi,-0x4(%rbp)
    af96:	89 75 f8             	mov    %esi,-0x8(%rbp)
    af99:	83 7d f8 1f          	cmpl   $0x1f,-0x8(%rbp)
    af9d:	77 21                	ja     afc0 <safe_lshift_func_uint32_t_u_u+0x35>
    af9f:	8b 45 f8             	mov    -0x8(%rbp),%eax
    afa2:	ba ff ff ff ff       	mov    $0xffffffff,%edx
    afa7:	89 c1                	mov    %eax,%ecx
    afa9:	d3 ea                	shr    %cl,%edx
    afab:	89 d0                	mov    %edx,%eax
    afad:	39 45 fc             	cmp    %eax,-0x4(%rbp)
    afb0:	77 0e                	ja     afc0 <safe_lshift_func_uint32_t_u_u+0x35>
    afb2:	8b 45 f8             	mov    -0x8(%rbp),%eax
    afb5:	8b 55 fc             	mov    -0x4(%rbp),%edx
    afb8:	89 c1                	mov    %eax,%ecx
    afba:	d3 e2                	shl    %cl,%edx
    afbc:	89 d0                	mov    %edx,%eax
    afbe:	eb 03                	jmp    afc3 <safe_lshift_func_uint32_t_u_u+0x38>
    afc0:	8b 45 fc             	mov    -0x4(%rbp),%eax
    afc3:	5d                   	pop    %rbp
    afc4:	c3                   	retq   

000000000000afc5 <safe_rshift_func_uint32_t_u_s>:
    afc5:	f3 0f 1e fa          	endbr64 
    afc9:	55                   	push   %rbp
    afca:	48 89 e5             	mov    %rsp,%rbp
    afcd:	89 7d fc             	mov    %edi,-0x4(%rbp)
    afd0:	89 75 f8             	mov    %esi,-0x8(%rbp)
    afd3:	83 7d f8 00          	cmpl   $0x0,-0x8(%rbp)
    afd7:	78 14                	js     afed <safe_rshift_func_uint32_t_u_s+0x28>
    afd9:	83 7d f8 1f          	cmpl   $0x1f,-0x8(%rbp)
    afdd:	7f 0e                	jg     afed <safe_rshift_func_uint32_t_u_s+0x28>
    afdf:	8b 45 f8             	mov    -0x8(%rbp),%eax
    afe2:	8b 55 fc             	mov    -0x4(%rbp),%edx
    afe5:	89 c1                	mov    %eax,%ecx
    afe7:	d3 ea                	shr    %cl,%edx
    afe9:	89 d0                	mov    %edx,%eax
    afeb:	eb 03                	jmp    aff0 <safe_rshift_func_uint32_t_u_s+0x2b>
    afed:	8b 45 fc             	mov    -0x4(%rbp),%eax
    aff0:	5d                   	pop    %rbp
    aff1:	c3                   	retq   

000000000000aff2 <safe_rshift_func_uint32_t_u_u>:
    aff2:	f3 0f 1e fa          	endbr64 
    aff6:	55                   	push   %rbp
    aff7:	48 89 e5             	mov    %rsp,%rbp
    affa:	89 7d fc             	mov    %edi,-0x4(%rbp)
    affd:	89 75 f8             	mov    %esi,-0x8(%rbp)
    b000:	83 7d f8 1f          	cmpl   $0x1f,-0x8(%rbp)
    b004:	77 0e                	ja     b014 <safe_rshift_func_uint32_t_u_u+0x22>
    b006:	8b 45 f8             	mov    -0x8(%rbp),%eax
    b009:	8b 55 fc             	mov    -0x4(%rbp),%edx
    b00c:	89 c1                	mov    %eax,%ecx
    b00e:	d3 ea                	shr    %cl,%edx
    b010:	89 d0                	mov    %edx,%eax
    b012:	eb 03                	jmp    b017 <safe_rshift_func_uint32_t_u_u+0x25>
    b014:	8b 45 fc             	mov    -0x4(%rbp),%eax
    b017:	5d                   	pop    %rbp
    b018:	c3                   	retq   

000000000000b019 <safe_unary_minus_func_uint64_t_u>:
    b019:	f3 0f 1e fa          	endbr64 
    b01d:	55                   	push   %rbp
    b01e:	48 89 e5             	mov    %rsp,%rbp
    b021:	48 89 7d f8          	mov    %rdi,-0x8(%rbp)
    b025:	48 8b 45 f8          	mov    -0x8(%rbp),%rax
    b029:	48 f7 d8             	neg    %rax
    b02c:	5d                   	pop    %rbp
    b02d:	c3                   	retq   

000000000000b02e <safe_add_func_uint64_t_u_u>:
    b02e:	f3 0f 1e fa          	endbr64 
    b032:	55                   	push   %rbp
    b033:	48 89 e5             	mov    %rsp,%rbp
    b036:	48 89 7d f8          	mov    %rdi,-0x8(%rbp)
    b03a:	48 89 75 f0          	mov    %rsi,-0x10(%rbp)
    b03e:	48 8b 55 f8          	mov    -0x8(%rbp),%rdx
    b042:	48 8b 45 f0          	mov    -0x10(%rbp),%rax
    b046:	48 01 d0             	add    %rdx,%rax
    b049:	5d                   	pop    %rbp
    b04a:	c3                   	retq   

000000000000b04b <safe_sub_func_uint64_t_u_u>:
    b04b:	f3 0f 1e fa          	endbr64 
    b04f:	55                   	push   %rbp
    b050:	48 89 e5             	mov    %rsp,%rbp
    b053:	48 89 7d f8          	mov    %rdi,-0x8(%rbp)
    b057:	48 89 75 f0          	mov    %rsi,-0x10(%rbp)
    b05b:	48 8b 45 f8          	mov    -0x8(%rbp),%rax
    b05f:	48 2b 45 f0          	sub    -0x10(%rbp),%rax
    b063:	5d                   	pop    %rbp
    b064:	c3                   	retq   

000000000000b065 <safe_mul_func_uint64_t_u_u>:
    b065:	f3 0f 1e fa          	endbr64 
    b069:	55                   	push   %rbp
    b06a:	48 89 e5             	mov    %rsp,%rbp
    b06d:	48 89 7d f8          	mov    %rdi,-0x8(%rbp)
    b071:	48 89 75 f0          	mov    %rsi,-0x10(%rbp)
    b075:	48 8b 45 f8          	mov    -0x8(%rbp),%rax
    b079:	48 0f af 45 f0       	imul   -0x10(%rbp),%rax
    b07e:	5d                   	pop    %rbp
    b07f:	c3                   	retq   

000000000000b080 <safe_mod_func_uint64_t_u_u>:
    b080:	f3 0f 1e fa          	endbr64 
    b084:	55                   	push   %rbp
    b085:	48 89 e5             	mov    %rsp,%rbp
    b088:	48 89 7d f8          	mov    %rdi,-0x8(%rbp)
    b08c:	48 89 75 f0          	mov    %rsi,-0x10(%rbp)
    b090:	48 83 7d f0 00       	cmpq   $0x0,-0x10(%rbp)
    b095:	74 12                	je     b0a9 <safe_mod_func_uint64_t_u_u+0x29>
    b097:	48 8b 45 f8          	mov    -0x8(%rbp),%rax
    b09b:	ba 00 00 00 00       	mov    $0x0,%edx
    b0a0:	48 f7 75 f0          	divq   -0x10(%rbp)
    b0a4:	48 89 d0             	mov    %rdx,%rax
    b0a7:	eb 04                	jmp    b0ad <safe_mod_func_uint64_t_u_u+0x2d>
    b0a9:	48 8b 45 f8          	mov    -0x8(%rbp),%rax
    b0ad:	5d                   	pop    %rbp
    b0ae:	c3                   	retq   

000000000000b0af <safe_div_func_uint64_t_u_u>:
    b0af:	f3 0f 1e fa          	endbr64 
    b0b3:	55                   	push   %rbp
    b0b4:	48 89 e5             	mov    %rsp,%rbp
    b0b7:	48 89 7d f8          	mov    %rdi,-0x8(%rbp)
    b0bb:	48 89 75 f0          	mov    %rsi,-0x10(%rbp)
    b0bf:	48 83 7d f0 00       	cmpq   $0x0,-0x10(%rbp)
    b0c4:	74 0f                	je     b0d5 <safe_div_func_uint64_t_u_u+0x26>
    b0c6:	48 8b 45 f8          	mov    -0x8(%rbp),%rax
    b0ca:	ba 00 00 00 00       	mov    $0x0,%edx
    b0cf:	48 f7 75 f0          	divq   -0x10(%rbp)
    b0d3:	eb 04                	jmp    b0d9 <safe_div_func_uint64_t_u_u+0x2a>
    b0d5:	48 8b 45 f8          	mov    -0x8(%rbp),%rax
    b0d9:	5d                   	pop    %rbp
    b0da:	c3                   	retq   

000000000000b0db <safe_lshift_func_uint64_t_u_s>:
    b0db:	f3 0f 1e fa          	endbr64 
    b0df:	55                   	push   %rbp
    b0e0:	48 89 e5             	mov    %rsp,%rbp
    b0e3:	48 89 7d f8          	mov    %rdi,-0x8(%rbp)
    b0e7:	89 75 f4             	mov    %esi,-0xc(%rbp)
    b0ea:	83 7d f4 00          	cmpl   $0x0,-0xc(%rbp)
    b0ee:	78 2f                	js     b11f <safe_lshift_func_uint64_t_u_s+0x44>
    b0f0:	83 7d f4 1f          	cmpl   $0x1f,-0xc(%rbp)
    b0f4:	7f 29                	jg     b11f <safe_lshift_func_uint64_t_u_s+0x44>
    b0f6:	8b 45 f4             	mov    -0xc(%rbp),%eax
    b0f9:	48 c7 c2 ff ff ff ff 	mov    $0xffffffffffffffff,%rdx
    b100:	89 c1                	mov    %eax,%ecx
    b102:	48 d3 ea             	shr    %cl,%rdx
    b105:	48 89 d0             	mov    %rdx,%rax
    b108:	48 39 45 f8          	cmp    %rax,-0x8(%rbp)
    b10c:	77 11                	ja     b11f <safe_lshift_func_uint64_t_u_s+0x44>
    b10e:	8b 45 f4             	mov    -0xc(%rbp),%eax
    b111:	48 8b 55 f8          	mov    -0x8(%rbp),%rdx
    b115:	89 c1                	mov    %eax,%ecx
    b117:	48 d3 e2             	shl    %cl,%rdx
    b11a:	48 89 d0             	mov    %rdx,%rax
    b11d:	eb 04                	jmp    b123 <safe_lshift_func_uint64_t_u_s+0x48>
    b11f:	48 8b 45 f8          	mov    -0x8(%rbp),%rax
    b123:	5d                   	pop    %rbp
    b124:	c3                   	retq   

000000000000b125 <safe_lshift_func_uint64_t_u_u>:
    b125:	f3 0f 1e fa          	endbr64 
    b129:	55                   	push   %rbp
    b12a:	48 89 e5             	mov    %rsp,%rbp
    b12d:	48 89 7d f8          	mov    %rdi,-0x8(%rbp)
    b131:	89 75 f4             	mov    %esi,-0xc(%rbp)
    b134:	83 7d f4 1f          	cmpl   $0x1f,-0xc(%rbp)
    b138:	77 29                	ja     b163 <safe_lshift_func_uint64_t_u_u+0x3e>
    b13a:	8b 45 f4             	mov    -0xc(%rbp),%eax
    b13d:	48 c7 c2 ff ff ff ff 	mov    $0xffffffffffffffff,%rdx
    b144:	89 c1                	mov    %eax,%ecx
    b146:	48 d3 ea             	shr    %cl,%rdx
    b149:	48 89 d0             	mov    %rdx,%rax
    b14c:	48 39 45 f8          	cmp    %rax,-0x8(%rbp)
    b150:	77 11                	ja     b163 <safe_lshift_func_uint64_t_u_u+0x3e>
    b152:	8b 45 f4             	mov    -0xc(%rbp),%eax
    b155:	48 8b 55 f8          	mov    -0x8(%rbp),%rdx
    b159:	89 c1                	mov    %eax,%ecx
    b15b:	48 d3 e2             	shl    %cl,%rdx
    b15e:	48 89 d0             	mov    %rdx,%rax
    b161:	eb 04                	jmp    b167 <safe_lshift_func_uint64_t_u_u+0x42>
    b163:	48 8b 45 f8          	mov    -0x8(%rbp),%rax
    b167:	5d                   	pop    %rbp
    b168:	c3                   	retq   

000000000000b169 <safe_rshift_func_uint64_t_u_s>:
    b169:	f3 0f 1e fa          	endbr64 
    b16d:	55                   	push   %rbp
    b16e:	48 89 e5             	mov    %rsp,%rbp
    b171:	48 89 7d f8          	mov    %rdi,-0x8(%rbp)
    b175:	89 75 f4             	mov    %esi,-0xc(%rbp)
    b178:	83 7d f4 00          	cmpl   $0x0,-0xc(%rbp)
    b17c:	78 17                	js     b195 <safe_rshift_func_uint64_t_u_s+0x2c>
    b17e:	83 7d f4 1f          	cmpl   $0x1f,-0xc(%rbp)
    b182:	7f 11                	jg     b195 <safe_rshift_func_uint64_t_u_s+0x2c>
    b184:	8b 45 f4             	mov    -0xc(%rbp),%eax
    b187:	48 8b 55 f8          	mov    -0x8(%rbp),%rdx
    b18b:	89 c1                	mov    %eax,%ecx
    b18d:	48 d3 ea             	shr    %cl,%rdx
    b190:	48 89 d0             	mov    %rdx,%rax
    b193:	eb 04                	jmp    b199 <safe_rshift_func_uint64_t_u_s+0x30>
    b195:	48 8b 45 f8          	mov    -0x8(%rbp),%rax
    b199:	5d                   	pop    %rbp
    b19a:	c3                   	retq   

000000000000b19b <safe_rshift_func_uint64_t_u_u>:
    b19b:	f3 0f 1e fa          	endbr64 
    b19f:	55                   	push   %rbp
    b1a0:	48 89 e5             	mov    %rsp,%rbp
    b1a3:	48 89 7d f8          	mov    %rdi,-0x8(%rbp)
    b1a7:	89 75 f4             	mov    %esi,-0xc(%rbp)
    b1aa:	83 7d f4 1f          	cmpl   $0x1f,-0xc(%rbp)
    b1ae:	77 11                	ja     b1c1 <safe_rshift_func_uint64_t_u_u+0x26>
    b1b0:	8b 45 f4             	mov    -0xc(%rbp),%eax
    b1b3:	48 8b 55 f8          	mov    -0x8(%rbp),%rdx
    b1b7:	89 c1                	mov    %eax,%ecx
    b1b9:	48 d3 ea             	shr    %cl,%rdx
    b1bc:	48 89 d0             	mov    %rdx,%rax
    b1bf:	eb 04                	jmp    b1c5 <safe_rshift_func_uint64_t_u_u+0x2a>
    b1c1:	48 8b 45 f8          	mov    -0x8(%rbp),%rax
    b1c5:	5d                   	pop    %rbp
    b1c6:	c3                   	retq   

000000000000b1c7 <safe_add_func_float_f_f>:
    b1c7:	f3 0f 1e fa          	endbr64 
    b1cb:	55                   	push   %rbp
    b1cc:	48 89 e5             	mov    %rsp,%rbp
    b1cf:	f3 0f 11 45 fc       	movss  %xmm0,-0x4(%rbp)
    b1d4:	f3 0f 11 4d f8       	movss  %xmm1,-0x8(%rbp)
    b1d9:	f3 0f 10 4d fc       	movss  -0x4(%rbp),%xmm1
    b1de:	f3 0f 10 05 d6 46 01 	movss  0x146d6(%rip),%xmm0        # 1f8bc <g_2807+0x220c>
    b1e5:	00 
    b1e6:	f3 0f 59 c8          	mulss  %xmm0,%xmm1
    b1ea:	f3 0f 10 55 f8       	movss  -0x8(%rbp),%xmm2
    b1ef:	f3 0f 10 05 c5 46 01 	movss  0x146c5(%rip),%xmm0        # 1f8bc <g_2807+0x220c>
    b1f6:	00 
    b1f7:	f3 0f 59 c2          	mulss  %xmm2,%xmm0
    b1fb:	f3 0f 58 c1          	addss  %xmm1,%xmm0
    b1ff:	f3 0f 10 0d b9 46 01 	movss  0x146b9(%rip),%xmm1        # 1f8c0 <g_2807+0x2210>
    b206:	00 
    b207:	0f 54 c1             	andps  %xmm1,%xmm0
    b20a:	0f 2f 05 bf 46 01 00 	comiss 0x146bf(%rip),%xmm0        # 1f8d0 <g_2807+0x2220>
    b211:	76 07                	jbe    b21a <safe_add_func_float_f_f+0x53>
    b213:	f3 0f 10 45 fc       	movss  -0x4(%rbp),%xmm0
    b218:	eb 0a                	jmp    b224 <safe_add_func_float_f_f+0x5d>
    b21a:	f3 0f 10 45 fc       	movss  -0x4(%rbp),%xmm0
    b21f:	f3 0f 58 45 f8       	addss  -0x8(%rbp),%xmm0
    b224:	5d                   	pop    %rbp
    b225:	c3                   	retq   

000000000000b226 <safe_sub_func_float_f_f>:
    b226:	f3 0f 1e fa          	endbr64 
    b22a:	55                   	push   %rbp
    b22b:	48 89 e5             	mov    %rsp,%rbp
    b22e:	f3 0f 11 45 fc       	movss  %xmm0,-0x4(%rbp)
    b233:	f3 0f 11 4d f8       	movss  %xmm1,-0x8(%rbp)
    b238:	f3 0f 10 4d fc       	movss  -0x4(%rbp),%xmm1
    b23d:	f3 0f 10 05 77 46 01 	movss  0x14677(%rip),%xmm0        # 1f8bc <g_2807+0x220c>
    b244:	00 
    b245:	f3 0f 59 c1          	mulss  %xmm1,%xmm0
    b249:	f3 0f 10 55 f8       	movss  -0x8(%rbp),%xmm2
    b24e:	f3 0f 10 0d 66 46 01 	movss  0x14666(%rip),%xmm1        # 1f8bc <g_2807+0x220c>
    b255:	00 
    b256:	f3 0f 59 ca          	mulss  %xmm2,%xmm1
    b25a:	f3 0f 5c c1          	subss  %xmm1,%xmm0
    b25e:	f3 0f 10 0d 5a 46 01 	movss  0x1465a(%rip),%xmm1        # 1f8c0 <g_2807+0x2210>
    b265:	00 
    b266:	0f 54 c1             	andps  %xmm1,%xmm0
    b269:	0f 2f 05 60 46 01 00 	comiss 0x14660(%rip),%xmm0        # 1f8d0 <g_2807+0x2220>
    b270:	76 07                	jbe    b279 <safe_sub_func_float_f_f+0x53>
    b272:	f3 0f 10 45 fc       	movss  -0x4(%rbp),%xmm0
    b277:	eb 0a                	jmp    b283 <safe_sub_func_float_f_f+0x5d>
    b279:	f3 0f 10 45 fc       	movss  -0x4(%rbp),%xmm0
    b27e:	f3 0f 5c 45 f8       	subss  -0x8(%rbp),%xmm0
    b283:	5d                   	pop    %rbp
    b284:	c3                   	retq   

000000000000b285 <safe_mul_func_float_f_f>:
    b285:	f3 0f 1e fa          	endbr64 
    b289:	55                   	push   %rbp
    b28a:	48 89 e5             	mov    %rsp,%rbp
    b28d:	f3 0f 11 45 fc       	movss  %xmm0,-0x4(%rbp)
    b292:	f3 0f 11 4d f8       	movss  %xmm1,-0x8(%rbp)
    b297:	f3 0f 10 4d fc       	movss  -0x4(%rbp),%xmm1
    b29c:	f3 0f 10 05 30 46 01 	movss  0x14630(%rip),%xmm0        # 1f8d4 <g_2807+0x2224>
    b2a3:	00 
    b2a4:	f3 0f 59 c8          	mulss  %xmm0,%xmm1
    b2a8:	f3 0f 10 55 f8       	movss  -0x8(%rbp),%xmm2
    b2ad:	f3 0f 10 05 23 46 01 	movss  0x14623(%rip),%xmm0        # 1f8d8 <g_2807+0x2228>
    b2b4:	00 
    b2b5:	f3 0f 59 c2          	mulss  %xmm2,%xmm0
    b2b9:	f3 0f 59 c1          	mulss  %xmm1,%xmm0
    b2bd:	f3 0f 10 0d fb 45 01 	movss  0x145fb(%rip),%xmm1        # 1f8c0 <g_2807+0x2210>
    b2c4:	00 
    b2c5:	0f 54 c1             	andps  %xmm1,%xmm0
    b2c8:	0f 2f 05 0d 46 01 00 	comiss 0x1460d(%rip),%xmm0        # 1f8dc <g_2807+0x222c>
    b2cf:	76 07                	jbe    b2d8 <safe_mul_func_float_f_f+0x53>
    b2d1:	f3 0f 10 45 fc       	movss  -0x4(%rbp),%xmm0
    b2d6:	eb 0a                	jmp    b2e2 <safe_mul_func_float_f_f+0x5d>
    b2d8:	f3 0f 10 45 fc       	movss  -0x4(%rbp),%xmm0
    b2dd:	f3 0f 59 45 f8       	mulss  -0x8(%rbp),%xmm0
    b2e2:	5d                   	pop    %rbp
    b2e3:	c3                   	retq   

000000000000b2e4 <safe_div_func_float_f_f>:
    b2e4:	f3 0f 1e fa          	endbr64 
    b2e8:	55                   	push   %rbp
    b2e9:	48 89 e5             	mov    %rsp,%rbp
    b2ec:	f3 0f 11 45 fc       	movss  %xmm0,-0x4(%rbp)
    b2f1:	f3 0f 11 4d f8       	movss  %xmm1,-0x8(%rbp)
    b2f6:	f3 0f 10 45 f8       	movss  -0x8(%rbp),%xmm0
    b2fb:	f3 0f 10 0d bd 45 01 	movss  0x145bd(%rip),%xmm1        # 1f8c0 <g_2807+0x2210>
    b302:	00 
    b303:	0f 54 c8             	andps  %xmm0,%xmm1
    b306:	f3 0f 10 05 d2 45 01 	movss  0x145d2(%rip),%xmm0        # 1f8e0 <g_2807+0x2230>
    b30d:	00 
    b30e:	0f 2f c1             	comiss %xmm1,%xmm0
    b311:	0f 97 c0             	seta   %al
    b314:	83 f0 01             	xor    $0x1,%eax
    b317:	84 c0                	test   %al,%al
    b319:	75 56                	jne    b371 <safe_div_func_float_f_f+0x8d>
    b31b:	66 0f ef c0          	pxor   %xmm0,%xmm0
    b31f:	0f 2e 45 f8          	ucomiss -0x8(%rbp),%xmm0
    b323:	7a 0a                	jp     b32f <safe_div_func_float_f_f+0x4b>
    b325:	66 0f ef c0          	pxor   %xmm0,%xmm0
    b329:	0f 2e 45 f8          	ucomiss -0x8(%rbp),%xmm0
    b32d:	74 4e                	je     b37d <safe_div_func_float_f_f+0x99>
    b32f:	f3 0f 10 4d fc       	movss  -0x4(%rbp),%xmm1
    b334:	f3 0f 10 05 a8 45 01 	movss  0x145a8(%rip),%xmm0        # 1f8e4 <g_2807+0x2234>
    b33b:	00 
    b33c:	f3 0f 59 c1          	mulss  %xmm1,%xmm0
    b340:	f3 0f 10 55 f8       	movss  -0x8(%rbp),%xmm2
    b345:	f3 0f 10 0d 9b 45 01 	movss  0x1459b(%rip),%xmm1        # 1f8e8 <g_2807+0x2238>
    b34c:	00 
    b34d:	f3 0f 59 ca          	mulss  %xmm2,%xmm1
    b351:	f3 0f 5e c1          	divss  %xmm1,%xmm0
    b355:	f3 0f 10 0d 63 45 01 	movss  0x14563(%rip),%xmm1        # 1f8c0 <g_2807+0x2210>
    b35c:	00 
    b35d:	0f 54 c1             	andps  %xmm1,%xmm0
    b360:	0f 2f 05 85 45 01 00 	comiss 0x14585(%rip),%xmm0        # 1f8ec <g_2807+0x223c>
    b367:	0f 97 c0             	seta   %al
    b36a:	83 f0 01             	xor    $0x1,%eax
    b36d:	84 c0                	test   %al,%al
    b36f:	74 0c                	je     b37d <safe_div_func_float_f_f+0x99>
    b371:	f3 0f 10 45 fc       	movss  -0x4(%rbp),%xmm0
    b376:	f3 0f 5e 45 f8       	divss  -0x8(%rbp),%xmm0
    b37b:	eb 05                	jmp    b382 <safe_div_func_float_f_f+0x9e>
    b37d:	f3 0f 10 45 fc       	movss  -0x4(%rbp),%xmm0
    b382:	5d                   	pop    %rbp
    b383:	c3                   	retq   

000000000000b384 <safe_add_func_double_f_f>:
    b384:	f3 0f 1e fa          	endbr64 
    b388:	55                   	push   %rbp
    b389:	48 89 e5             	mov    %rsp,%rbp
    b38c:	f2 0f 11 45 f8       	movsd  %xmm0,-0x8(%rbp)
    b391:	f2 0f 11 4d f0       	movsd  %xmm1,-0x10(%rbp)
    b396:	f2 0f 10 4d f8       	movsd  -0x8(%rbp),%xmm1
    b39b:	f2 0f 10 05 4d 45 01 	movsd  0x1454d(%rip),%xmm0        # 1f8f0 <g_2807+0x2240>
    b3a2:	00 
    b3a3:	f2 0f 59 c8          	mulsd  %xmm0,%xmm1
    b3a7:	f2 0f 10 55 f0       	movsd  -0x10(%rbp),%xmm2
    b3ac:	f2 0f 10 05 3c 45 01 	movsd  0x1453c(%rip),%xmm0        # 1f8f0 <g_2807+0x2240>
    b3b3:	00 
    b3b4:	f2 0f 59 c2          	mulsd  %xmm2,%xmm0
    b3b8:	f2 0f 58 c1          	addsd  %xmm1,%xmm0
    b3bc:	f3 0f 7e 0d 3c 45 01 	movq   0x1453c(%rip),%xmm1        # 1f900 <g_2807+0x2250>
    b3c3:	00 
    b3c4:	66 0f 54 c1          	andpd  %xmm1,%xmm0
    b3c8:	66 0f 2f 05 40 45 01 	comisd 0x14540(%rip),%xmm0        # 1f910 <g_2807+0x2260>
    b3cf:	00 
    b3d0:	76 07                	jbe    b3d9 <safe_add_func_double_f_f+0x55>
    b3d2:	f2 0f 10 45 f8       	movsd  -0x8(%rbp),%xmm0
    b3d7:	eb 0a                	jmp    b3e3 <safe_add_func_double_f_f+0x5f>
    b3d9:	f2 0f 10 45 f8       	movsd  -0x8(%rbp),%xmm0
    b3de:	f2 0f 58 45 f0       	addsd  -0x10(%rbp),%xmm0
    b3e3:	5d                   	pop    %rbp
    b3e4:	c3                   	retq   

000000000000b3e5 <safe_sub_func_double_f_f>:
    b3e5:	f3 0f 1e fa          	endbr64 
    b3e9:	55                   	push   %rbp
    b3ea:	48 89 e5             	mov    %rsp,%rbp
    b3ed:	f2 0f 11 45 f8       	movsd  %xmm0,-0x8(%rbp)
    b3f2:	f2 0f 11 4d f0       	movsd  %xmm1,-0x10(%rbp)
    b3f7:	f2 0f 10 4d f8       	movsd  -0x8(%rbp),%xmm1
    b3fc:	f2 0f 10 05 ec 44 01 	movsd  0x144ec(%rip),%xmm0        # 1f8f0 <g_2807+0x2240>
    b403:	00 
    b404:	f2 0f 59 c1          	mulsd  %xmm1,%xmm0
    b408:	f2 0f 10 55 f0       	movsd  -0x10(%rbp),%xmm2
    b40d:	f2 0f 10 0d db 44 01 	movsd  0x144db(%rip),%xmm1        # 1f8f0 <g_2807+0x2240>
    b414:	00 
    b415:	f2 0f 59 ca          	mulsd  %xmm2,%xmm1
    b419:	f2 0f 5c c1          	subsd  %xmm1,%xmm0
    b41d:	f3 0f 7e 0d db 44 01 	movq   0x144db(%rip),%xmm1        # 1f900 <g_2807+0x2250>
    b424:	00 
    b425:	66 0f 54 c1          	andpd  %xmm1,%xmm0
    b429:	66 0f 2f 05 df 44 01 	comisd 0x144df(%rip),%xmm0        # 1f910 <g_2807+0x2260>
    b430:	00 
    b431:	76 07                	jbe    b43a <safe_sub_func_double_f_f+0x55>
    b433:	f2 0f 10 45 f8       	movsd  -0x8(%rbp),%xmm0
    b438:	eb 0a                	jmp    b444 <safe_sub_func_double_f_f+0x5f>
    b43a:	f2 0f 10 45 f8       	movsd  -0x8(%rbp),%xmm0
    b43f:	f2 0f 5c 45 f0       	subsd  -0x10(%rbp),%xmm0
    b444:	5d                   	pop    %rbp
    b445:	c3                   	retq   

000000000000b446 <safe_mul_func_double_f_f>:
    b446:	f3 0f 1e fa          	endbr64 
    b44a:	55                   	push   %rbp
    b44b:	48 89 e5             	mov    %rsp,%rbp
    b44e:	f2 0f 11 45 f8       	movsd  %xmm0,-0x8(%rbp)
    b453:	f2 0f 11 4d f0       	movsd  %xmm1,-0x10(%rbp)
    b458:	f2 0f 10 4d f8       	movsd  -0x8(%rbp),%xmm1
    b45d:	f2 0f 10 05 b3 44 01 	movsd  0x144b3(%rip),%xmm0        # 1f918 <g_2807+0x2268>
    b464:	00 
    b465:	f2 0f 59 c8          	mulsd  %xmm0,%xmm1
    b469:	f2 0f 10 55 f0       	movsd  -0x10(%rbp),%xmm2
    b46e:	f2 0f 10 05 aa 44 01 	movsd  0x144aa(%rip),%xmm0        # 1f920 <g_2807+0x2270>
    b475:	00 
    b476:	f2 0f 59 c2          	mulsd  %xmm2,%xmm0
    b47a:	f2 0f 59 c1          	mulsd  %xmm1,%xmm0
    b47e:	f3 0f 7e 0d 7a 44 01 	movq   0x1447a(%rip),%xmm1        # 1f900 <g_2807+0x2250>
    b485:	00 
    b486:	66 0f 54 c1          	andpd  %xmm1,%xmm0
    b48a:	66 0f 2f 05 96 44 01 	comisd 0x14496(%rip),%xmm0        # 1f928 <g_2807+0x2278>
    b491:	00 
    b492:	76 07                	jbe    b49b <safe_mul_func_double_f_f+0x55>
    b494:	f2 0f 10 45 f8       	movsd  -0x8(%rbp),%xmm0
    b499:	eb 0a                	jmp    b4a5 <safe_mul_func_double_f_f+0x5f>
    b49b:	f2 0f 10 45 f8       	movsd  -0x8(%rbp),%xmm0
    b4a0:	f2 0f 59 45 f0       	mulsd  -0x10(%rbp),%xmm0
    b4a5:	5d                   	pop    %rbp
    b4a6:	c3                   	retq   

000000000000b4a7 <safe_div_func_double_f_f>:
    b4a7:	f3 0f 1e fa          	endbr64 
    b4ab:	55                   	push   %rbp
    b4ac:	48 89 e5             	mov    %rsp,%rbp
    b4af:	f2 0f 11 45 f8       	movsd  %xmm0,-0x8(%rbp)
    b4b4:	f2 0f 11 4d f0       	movsd  %xmm1,-0x10(%rbp)
    b4b9:	f2 0f 10 45 f0       	movsd  -0x10(%rbp),%xmm0
    b4be:	f3 0f 7e 0d 3a 44 01 	movq   0x1443a(%rip),%xmm1        # 1f900 <g_2807+0x2250>
    b4c5:	00 
    b4c6:	66 0f 54 c8          	andpd  %xmm0,%xmm1
    b4ca:	f2 0f 10 05 5e 44 01 	movsd  0x1445e(%rip),%xmm0        # 1f930 <g_2807+0x2280>
    b4d1:	00 
    b4d2:	66 0f 2f c1          	comisd %xmm1,%xmm0
    b4d6:	0f 97 c0             	seta   %al
    b4d9:	83 f0 01             	xor    $0x1,%eax
    b4dc:	84 c0                	test   %al,%al
    b4de:	75 5a                	jne    b53a <safe_div_func_double_f_f+0x93>
    b4e0:	66 0f ef c0          	pxor   %xmm0,%xmm0
    b4e4:	66 0f 2e 45 f0       	ucomisd -0x10(%rbp),%xmm0
    b4e9:	7a 0b                	jp     b4f6 <safe_div_func_double_f_f+0x4f>
    b4eb:	66 0f ef c0          	pxor   %xmm0,%xmm0
    b4ef:	66 0f 2e 45 f0       	ucomisd -0x10(%rbp),%xmm0
    b4f4:	74 50                	je     b546 <safe_div_func_double_f_f+0x9f>
    b4f6:	f2 0f 10 4d f8       	movsd  -0x8(%rbp),%xmm1
    b4fb:	f2 0f 10 05 35 44 01 	movsd  0x14435(%rip),%xmm0        # 1f938 <g_2807+0x2288>
    b502:	00 
    b503:	f2 0f 59 c1          	mulsd  %xmm1,%xmm0
    b507:	f2 0f 10 55 f0       	movsd  -0x10(%rbp),%xmm2
    b50c:	f2 0f 10 0d 2c 44 01 	movsd  0x1442c(%rip),%xmm1        # 1f940 <g_2807+0x2290>
    b513:	00 
    b514:	f2 0f 59 ca          	mulsd  %xmm2,%xmm1
    b518:	f2 0f 5e c1          	divsd  %xmm1,%xmm0
    b51c:	f3 0f 7e 0d dc 43 01 	movq   0x143dc(%rip),%xmm1        # 1f900 <g_2807+0x2250>
    b523:	00 
    b524:	66 0f 54 c1          	andpd  %xmm1,%xmm0
    b528:	66 0f 2f 05 18 44 01 	comisd 0x14418(%rip),%xmm0        # 1f948 <g_2807+0x2298>
    b52f:	00 
    b530:	0f 97 c0             	seta   %al
    b533:	83 f0 01             	xor    $0x1,%eax
    b536:	84 c0                	test   %al,%al
    b538:	74 0c                	je     b546 <safe_div_func_double_f_f+0x9f>
    b53a:	f2 0f 10 45 f8       	movsd  -0x8(%rbp),%xmm0
    b53f:	f2 0f 5e 45 f0       	divsd  -0x10(%rbp),%xmm0
    b544:	eb 05                	jmp    b54b <safe_div_func_double_f_f+0xa4>
    b546:	f2 0f 10 45 f8       	movsd  -0x8(%rbp),%xmm0
    b54b:	5d                   	pop    %rbp
    b54c:	c3                   	retq   

000000000000b54d <safe_convert_func_float_to_int32_t>:
    b54d:	f3 0f 1e fa          	endbr64 
    b551:	55                   	push   %rbp
    b552:	48 89 e5             	mov    %rsp,%rbp
    b555:	f3 0f 11 45 fc       	movss  %xmm0,-0x4(%rbp)
    b55a:	f3 0f 10 05 ee 43 01 	movss  0x143ee(%rip),%xmm0        # 1f950 <g_2807+0x22a0>
    b561:	00 
    b562:	0f 2f 45 fc          	comiss -0x4(%rbp),%xmm0
    b566:	0f 93 c0             	setae  %al
    b569:	83 f0 01             	xor    $0x1,%eax
    b56c:	84 c0                	test   %al,%al
    b56e:	74 21                	je     b591 <safe_convert_func_float_to_int32_t+0x44>
    b570:	f3 0f 10 45 fc       	movss  -0x4(%rbp),%xmm0
    b575:	0f 2f 05 d8 43 01 00 	comiss 0x143d8(%rip),%xmm0        # 1f954 <g_2807+0x22a4>
    b57c:	0f 93 c0             	setae  %al
    b57f:	83 f0 01             	xor    $0x1,%eax
    b582:	84 c0                	test   %al,%al
    b584:	74 0b                	je     b591 <safe_convert_func_float_to_int32_t+0x44>
    b586:	f3 0f 10 45 fc       	movss  -0x4(%rbp),%xmm0
    b58b:	f3 0f 2c c0          	cvttss2si %xmm0,%eax
    b58f:	eb 05                	jmp    b596 <safe_convert_func_float_to_int32_t+0x49>
    b591:	b8 ff ff ff 7f       	mov    $0x7fffffff,%eax
    b596:	5d                   	pop    %rbp
    b597:	c3                   	retq   

000000000000b598 <crc32_gentab>:
    b598:	f3 0f 1e fa          	endbr64 
    b59c:	55                   	push   %rbp
    b59d:	48 89 e5             	mov    %rsp,%rbp
    b5a0:	c7 45 fc 20 83 b8 ed 	movl   $0xedb88320,-0x4(%rbp)
    b5a7:	c7 45 f4 00 00 00 00 	movl   $0x0,-0xc(%rbp)
    b5ae:	eb 51                	jmp    b601 <crc32_gentab+0x69>
    b5b0:	8b 45 f4             	mov    -0xc(%rbp),%eax
    b5b3:	89 45 f0             	mov    %eax,-0x10(%rbp)
    b5b6:	c7 45 f8 08 00 00 00 	movl   $0x8,-0x8(%rbp)
    b5bd:	eb 1e                	jmp    b5dd <crc32_gentab+0x45>
    b5bf:	8b 45 f0             	mov    -0x10(%rbp),%eax
    b5c2:	83 e0 01             	and    $0x1,%eax
    b5c5:	85 c0                	test   %eax,%eax
    b5c7:	74 0d                	je     b5d6 <crc32_gentab+0x3e>
    b5c9:	8b 45 f0             	mov    -0x10(%rbp),%eax
    b5cc:	d1 e8                	shr    %eax
    b5ce:	33 45 fc             	xor    -0x4(%rbp),%eax
    b5d1:	89 45 f0             	mov    %eax,-0x10(%rbp)
    b5d4:	eb 03                	jmp    b5d9 <crc32_gentab+0x41>
    b5d6:	d1 6d f0             	shrl   -0x10(%rbp)
    b5d9:	83 6d f8 01          	subl   $0x1,-0x8(%rbp)
    b5dd:	83 7d f8 00          	cmpl   $0x0,-0x8(%rbp)
    b5e1:	7f dc                	jg     b5bf <crc32_gentab+0x27>
    b5e3:	8b 45 f4             	mov    -0xc(%rbp),%eax
    b5e6:	48 98                	cltq   
    b5e8:	48 8d 0c 85 00 00 00 	lea    0x0(,%rax,4),%rcx
    b5ef:	00 
    b5f0:	48 8d 15 09 af 01 00 	lea    0x1af09(%rip),%rdx        # 26500 <crc32_tab>
    b5f7:	8b 45 f0             	mov    -0x10(%rbp),%eax
    b5fa:	89 04 11             	mov    %eax,(%rcx,%rdx,1)
    b5fd:	83 45 f4 01          	addl   $0x1,-0xc(%rbp)
    b601:	81 7d f4 ff 00 00 00 	cmpl   $0xff,-0xc(%rbp)
    b608:	7e a6                	jle    b5b0 <crc32_gentab+0x18>
    b60a:	90                   	nop
    b60b:	90                   	nop
    b60c:	5d                   	pop    %rbp
    b60d:	c3                   	retq   

000000000000b60e <crc32_byte>:
    b60e:	f3 0f 1e fa          	endbr64 
    b612:	55                   	push   %rbp
    b613:	48 89 e5             	mov    %rsp,%rbp
    b616:	89 f8                	mov    %edi,%eax
    b618:	88 45 fc             	mov    %al,-0x4(%rbp)
    b61b:	8b 05 ff 69 01 00    	mov    0x169ff(%rip),%eax        # 22020 <crc32_context>
    b621:	c1 e8 08             	shr    $0x8,%eax
    b624:	89 c1                	mov    %eax,%ecx
    b626:	0f b6 55 fc          	movzbl -0x4(%rbp),%edx
    b62a:	8b 05 f0 69 01 00    	mov    0x169f0(%rip),%eax        # 22020 <crc32_context>
    b630:	31 d0                	xor    %edx,%eax
    b632:	0f b6 c0             	movzbl %al,%eax
    b635:	89 c0                	mov    %eax,%eax
    b637:	48 8d 14 85 00 00 00 	lea    0x0(,%rax,4),%rdx
    b63e:	00 
    b63f:	48 8d 05 ba ae 01 00 	lea    0x1aeba(%rip),%rax        # 26500 <crc32_tab>
    b646:	8b 04 02             	mov    (%rdx,%rax,1),%eax
    b649:	31 c8                	xor    %ecx,%eax
    b64b:	89 05 cf 69 01 00    	mov    %eax,0x169cf(%rip)        # 22020 <crc32_context>
    b651:	90                   	nop
    b652:	5d                   	pop    %rbp
    b653:	c3                   	retq   

000000000000b654 <crc32_8bytes>:
    b654:	f3 0f 1e fa          	endbr64 
    b658:	55                   	push   %rbp
    b659:	48 89 e5             	mov    %rsp,%rbp
    b65c:	48 83 ec 08          	sub    $0x8,%rsp
    b660:	48 89 7d f8          	mov    %rdi,-0x8(%rbp)
    b664:	48 8b 45 f8          	mov    -0x8(%rbp),%rax
    b668:	0f b6 c0             	movzbl %al,%eax
    b66b:	89 c7                	mov    %eax,%edi
    b66d:	e8 9c ff ff ff       	callq  b60e <crc32_byte>
    b672:	48 8b 45 f8          	mov    -0x8(%rbp),%rax
    b676:	48 c1 e8 08          	shr    $0x8,%rax
    b67a:	0f b6 c0             	movzbl %al,%eax
    b67d:	89 c7                	mov    %eax,%edi
    b67f:	e8 8a ff ff ff       	callq  b60e <crc32_byte>
    b684:	48 8b 45 f8          	mov    -0x8(%rbp),%rax
    b688:	48 c1 e8 10          	shr    $0x10,%rax
    b68c:	0f b6 c0             	movzbl %al,%eax
    b68f:	89 c7                	mov    %eax,%edi
    b691:	e8 78 ff ff ff       	callq  b60e <crc32_byte>
    b696:	48 8b 45 f8          	mov    -0x8(%rbp),%rax
    b69a:	48 c1 e8 18          	shr    $0x18,%rax
    b69e:	0f b6 c0             	movzbl %al,%eax
    b6a1:	89 c7                	mov    %eax,%edi
    b6a3:	e8 66 ff ff ff       	callq  b60e <crc32_byte>
    b6a8:	48 8b 45 f8          	mov    -0x8(%rbp),%rax
    b6ac:	48 c1 e8 20          	shr    $0x20,%rax
    b6b0:	0f b6 c0             	movzbl %al,%eax
    b6b3:	89 c7                	mov    %eax,%edi
    b6b5:	e8 54 ff ff ff       	callq  b60e <crc32_byte>
    b6ba:	48 8b 45 f8          	mov    -0x8(%rbp),%rax
    b6be:	48 c1 e8 28          	shr    $0x28,%rax
    b6c2:	0f b6 c0             	movzbl %al,%eax
    b6c5:	89 c7                	mov    %eax,%edi
    b6c7:	e8 42 ff ff ff       	callq  b60e <crc32_byte>
    b6cc:	48 8b 45 f8          	mov    -0x8(%rbp),%rax
    b6d0:	48 c1 e8 30          	shr    $0x30,%rax
    b6d4:	0f b6 c0             	movzbl %al,%eax
    b6d7:	89 c7                	mov    %eax,%edi
    b6d9:	e8 30 ff ff ff       	callq  b60e <crc32_byte>
    b6de:	48 8b 45 f8          	mov    -0x8(%rbp),%rax
    b6e2:	48 c1 e8 38          	shr    $0x38,%rax
    b6e6:	0f b6 c0             	movzbl %al,%eax
    b6e9:	89 c7                	mov    %eax,%edi
    b6eb:	e8 1e ff ff ff       	callq  b60e <crc32_byte>
    b6f0:	90                   	nop
    b6f1:	c9                   	leaveq 
    b6f2:	c3                   	retq   

000000000000b6f3 <transparent_crc>:
    b6f3:	f3 0f 1e fa          	endbr64 
    b6f7:	55                   	push   %rbp
    b6f8:	48 89 e5             	mov    %rsp,%rbp
    b6fb:	48 83 ec 20          	sub    $0x20,%rsp
    b6ff:	48 89 7d f8          	mov    %rdi,-0x8(%rbp)
    b703:	48 89 75 f0          	mov    %rsi,-0x10(%rbp)
    b707:	89 55 ec             	mov    %edx,-0x14(%rbp)
    b70a:	48 8b 45 f8          	mov    -0x8(%rbp),%rax
    b70e:	48 89 c7             	mov    %rax,%rdi
    b711:	e8 3e ff ff ff       	callq  b654 <crc32_8bytes>
    b716:	83 7d ec 00          	cmpl   $0x0,-0x14(%rbp)
    b71a:	74 22                	je     b73e <transparent_crc+0x4b>
    b71c:	8b 05 fe 68 01 00    	mov    0x168fe(%rip),%eax        # 22020 <crc32_context>
    b722:	f7 d0                	not    %eax
    b724:	89 c2                	mov    %eax,%edx
    b726:	48 8b 45 f0          	mov    -0x10(%rbp),%rax
    b72a:	48 89 c6             	mov    %rax,%rsi
    b72d:	48 8d 3d fc 18 01 00 	lea    0x118fc(%rip),%rdi        # 1d030 <_IO_stdin_used+0x30>
    b734:	b8 00 00 00 00       	mov    $0x0,%eax
    b739:	e8 42 e9 ff ff       	callq  a080 <printf@plt>
    b73e:	90                   	nop
    b73f:	c9                   	leaveq 
    b740:	c3                   	retq   

000000000000b741 <transparent_crc_bytes>:
    b741:	f3 0f 1e fa          	endbr64 
    b745:	55                   	push   %rbp
    b746:	48 89 e5             	mov    %rsp,%rbp
    b749:	48 83 ec 30          	sub    $0x30,%rsp
    b74d:	48 89 7d e8          	mov    %rdi,-0x18(%rbp)
    b751:	89 75 e4             	mov    %esi,-0x1c(%rbp)
    b754:	48 89 55 d8          	mov    %rdx,-0x28(%rbp)
    b758:	89 4d e0             	mov    %ecx,-0x20(%rbp)
    b75b:	c7 45 fc 00 00 00 00 	movl   $0x0,-0x4(%rbp)
    b762:	eb 1e                	jmp    b782 <transparent_crc_bytes+0x41>
    b764:	8b 45 fc             	mov    -0x4(%rbp),%eax
    b767:	48 63 d0             	movslq %eax,%rdx
    b76a:	48 8b 45 e8          	mov    -0x18(%rbp),%rax
    b76e:	48 01 d0             	add    %rdx,%rax
    b771:	0f b6 00             	movzbl (%rax),%eax
    b774:	0f b6 c0             	movzbl %al,%eax
    b777:	89 c7                	mov    %eax,%edi
    b779:	e8 90 fe ff ff       	callq  b60e <crc32_byte>
    b77e:	83 45 fc 01          	addl   $0x1,-0x4(%rbp)
    b782:	8b 45 fc             	mov    -0x4(%rbp),%eax
    b785:	3b 45 e4             	cmp    -0x1c(%rbp),%eax
    b788:	7c da                	jl     b764 <transparent_crc_bytes+0x23>
    b78a:	83 7d e0 00          	cmpl   $0x0,-0x20(%rbp)
    b78e:	74 22                	je     b7b2 <transparent_crc_bytes+0x71>
    b790:	8b 05 8a 68 01 00    	mov    0x1688a(%rip),%eax        # 22020 <crc32_context>
    b796:	f7 d0                	not    %eax
    b798:	89 c2                	mov    %eax,%edx
    b79a:	48 8b 45 d8          	mov    -0x28(%rbp),%rax
    b79e:	48 89 c6             	mov    %rax,%rsi
    b7a1:	48 8d 3d 88 18 01 00 	lea    0x11888(%rip),%rdi        # 1d030 <_IO_stdin_used+0x30>
    b7a8:	b8 00 00 00 00       	mov    $0x0,%eax
    b7ad:	e8 ce e8 ff ff       	callq  a080 <printf@plt>
    b7b2:	90                   	nop
    b7b3:	c9                   	leaveq 
    b7b4:	c3                   	retq   

000000000000b7b5 <func_1>:
    b7b5:	f3 0f 1e fa          	endbr64 
    b7b9:	55                   	push   %rbp
    b7ba:	48 89 e5             	mov    %rsp,%rbp
    b7bd:	48 81 ec a0 00 00 00 	sub    $0xa0,%rsp
    b7c4:	64 48 8b 04 25 28 00 	mov    %fs:0x28,%rax
    b7cb:	00 00 
    b7cd:	48 89 45 f8          	mov    %rax,-0x8(%rbp)
    b7d1:	31 c0                	xor    %eax,%eax
    b7d3:	c7 85 68 ff ff ff d1 	movl   $0x9737e0d1,-0x98(%rbp)
    b7da:	e0 37 97 
    b7dd:	48 8d 05 af 6d 01 00 	lea    0x16daf(%rip),%rax        # 22593 <g_596+0x3>
    b7e4:	48 89 45 98          	mov    %rax,-0x68(%rbp)
    b7e8:	48 c7 45 a0 00 00 00 	movq   $0x0,-0x60(%rbp)
    b7ef:	00 
    b7f0:	66 c7 85 66 ff ff ff 	movw   $0xfffb,-0x9a(%rbp)
    b7f7:	fb ff 
    b7f9:	c7 85 74 ff ff ff 02 	movl   $0x2,-0x8c(%rbp)
    b800:	00 00 00 
    b803:	48 8d 05 2a 6e 01 00 	lea    0x16e2a(%rip),%rax        # 22634 <g_1365+0x4>
    b80a:	48 89 45 a8          	mov    %rax,-0x58(%rbp)
    b80e:	c7 85 78 ff ff ff a3 	movl   $0xc25235a3,-0x88(%rbp)
    b815:	35 52 c2 
    b818:	48 b8 30 69 75 f7 58 	movabs $0xc750f58f7756930,%rax
    b81f:	0f 75 0c 
    b822:	48 89 45 90          	mov    %rax,-0x70(%rbp)
    b826:	c7 85 6c ff ff ff 00 	movl   $0x0,-0x94(%rbp)
    b82d:	00 00 00 
    b830:	eb 18                	jmp    b84a <func_1+0x95>
    b832:	8b 85 6c ff ff ff    	mov    -0x94(%rbp),%eax
    b838:	48 98                	cltq   
    b83a:	48 c7 44 c5 d8 00 00 	movq   $0x0,-0x28(%rbp,%rax,8)
    b841:	00 00 
    b843:	83 85 6c ff ff ff 01 	addl   $0x1,-0x94(%rbp)
    b84a:	83 bd 6c ff ff ff 00 	cmpl   $0x0,-0x94(%rbp)
    b851:	7e df                	jle    b832 <func_1+0x7d>
    b853:	90                   	nop
    b854:	c7 05 7e 68 01 00 00 	movl   $0x0,0x1687e(%rip)        # 220dc <g_2+0x9c>
    b85b:	00 00 00 
    b85e:	e9 91 00 00 00       	jmpq   b8f4 <func_1+0x13f>
    b863:	48 8d 05 76 68 01 00 	lea    0x16876(%rip),%rax        # 220e0 <g_6>
    b86a:	48 89 45 c8          	mov    %rax,-0x38(%rbp)
    b86e:	48 8d 05 6b 68 01 00 	lea    0x1686b(%rip),%rax        # 220e0 <g_6>
    b875:	48 89 45 d0          	mov    %rax,-0x30(%rbp)
    b879:	c6 85 65 ff ff ff 00 	movb   $0x0,-0x9b(%rbp)
    b880:	c7 85 70 ff ff ff 00 	movl   $0x0,-0x90(%rbp)
    b887:	00 00 00 
    b88a:	eb 1b                	jmp    b8a7 <func_1+0xf2>
    b88c:	8b 85 70 ff ff ff    	mov    -0x90(%rbp),%eax
    b892:	48 98                	cltq   
    b894:	48 8d 15 45 68 01 00 	lea    0x16845(%rip),%rdx        # 220e0 <g_6>
    b89b:	48 89 54 c5 e0       	mov    %rdx,-0x20(%rbp,%rax,8)
    b8a0:	83 85 70 ff ff ff 01 	addl   $0x1,-0x90(%rbp)
    b8a7:	83 bd 70 ff ff ff 02 	cmpl   $0x2,-0x90(%rbp)
    b8ae:	7e dc                	jle    b88c <func_1+0xd7>
    b8b0:	8b 05 56 b0 01 00    	mov    0x1b056(%rip),%eax        # 2690c <g_10>
    b8b6:	83 c0 01             	add    $0x1,%eax
    b8b9:	89 05 4d b0 01 00    	mov    %eax,0x1b04d(%rip)        # 2690c <g_10>
    b8bf:	48 8b 45 d0          	mov    -0x30(%rbp),%rax
    b8c3:	8b 00                	mov    (%rax),%eax
    b8c5:	0b 85 68 ff ff ff    	or     -0x98(%rbp),%eax
    b8cb:	89 c2                	mov    %eax,%edx
    b8cd:	48 8b 45 d0          	mov    -0x30(%rbp),%rax
    b8d1:	89 10                	mov    %edx,(%rax)
    b8d3:	80 bd 65 ff ff ff 00 	cmpb   $0x0,-0x9b(%rbp)
    b8da:	8b 05 fc 67 01 00    	mov    0x167fc(%rip),%eax        # 220dc <g_2+0x9c>
    b8e0:	98                   	cwtl   
    b8e1:	be 01 00 00 00       	mov    $0x1,%esi
    b8e6:	89 c7                	mov    %eax,%edi
    b8e8:	e8 e6 ea ff ff       	callq  a3d3 <safe_sub_func_int16_t_s_s>
    b8ed:	98                   	cwtl   
    b8ee:	89 05 e8 67 01 00    	mov    %eax,0x167e8(%rip)        # 220dc <g_2+0x9c>
    b8f4:	8b 05 e2 67 01 00    	mov    0x167e2(%rip),%eax        # 220dc <g_2+0x9c>
    b8fa:	83 f8 e7             	cmp    $0xffffffe7,%eax
    b8fd:	0f 8d 60 ff ff ff    	jge    b863 <func_1+0xae>
    b903:	c7 05 d3 67 01 00 00 	movl   $0x0,0x167d3(%rip)        # 220e0 <g_6>
    b90a:	00 00 00 
    b90d:	e9 bb 00 00 00       	jmpq   b9cd <func_1+0x218>
    b912:	c6 05 ef af 01 00 00 	movb   $0x0,0x1afef(%rip)        # 26908 <g_9>
    b919:	e9 91 00 00 00       	jmpq   b9af <func_1+0x1fa>
    b91e:	c7 05 e4 af 01 00 00 	movl   $0x0,0x1afe4(%rip)        # 2690c <g_10>
    b925:	00 00 00 
    b928:	eb 6a                	jmp    b994 <func_1+0x1df>
    b92a:	8b 05 b0 67 01 00    	mov    0x167b0(%rip),%eax        # 220e0 <g_6>
    b930:	0f b6 15 d1 af 01 00 	movzbl 0x1afd1(%rip),%edx        # 26908 <g_9>
    b937:	0f be d2             	movsbl %dl,%edx
    b93a:	8b 0d cc af 01 00    	mov    0x1afcc(%rip),%ecx        # 2690c <g_10>
    b940:	89 ce                	mov    %ecx,%esi
    b942:	48 98                	cltq   
    b944:	48 63 ca             	movslq %edx,%rcx
    b947:	48 89 c2             	mov    %rax,%rdx
    b94a:	48 c1 e2 02          	shl    $0x2,%rdx
    b94e:	48 01 c2             	add    %rax,%rdx
    b951:	48 8d 04 d5 00 00 00 	lea    0x0(,%rdx,8),%rax
    b958:	00 
    b959:	48 89 c2             	mov    %rax,%rdx
    b95c:	48 89 c8             	mov    %rcx,%rax
    b95f:	48 c1 e0 02          	shl    $0x2,%rax
    b963:	48 01 c8             	add    %rcx,%rax
    b966:	48 01 c0             	add    %rax,%rax
    b969:	48 01 d0             	add    %rdx,%rax
    b96c:	48 01 f0             	add    %rsi,%rax
    b96f:	48 8d 14 85 00 00 00 	lea    0x0(,%rax,4),%rdx
    b976:	00 
    b977:	48 8d 05 c2 66 01 00 	lea    0x166c2(%rip),%rax        # 22040 <g_2>
    b97e:	c7 04 02 f7 3a 94 4f 	movl   $0x4f943af7,(%rdx,%rax,1)
    b985:	8b 05 81 af 01 00    	mov    0x1af81(%rip),%eax        # 2690c <g_10>
    b98b:	83 c0 01             	add    $0x1,%eax
    b98e:	89 05 78 af 01 00    	mov    %eax,0x1af78(%rip)        # 2690c <g_10>
    b994:	8b 05 72 af 01 00    	mov    0x1af72(%rip),%eax        # 2690c <g_10>
    b99a:	83 f8 09             	cmp    $0x9,%eax
    b99d:	76 8b                	jbe    b92a <func_1+0x175>
    b99f:	0f b6 05 62 af 01 00 	movzbl 0x1af62(%rip),%eax        # 26908 <g_9>
    b9a6:	83 c0 01             	add    $0x1,%eax
    b9a9:	88 05 59 af 01 00    	mov    %al,0x1af59(%rip)        # 26908 <g_9>
    b9af:	0f b6 05 52 af 01 00 	movzbl 0x1af52(%rip),%eax        # 26908 <g_9>
    b9b6:	3c 03                	cmp    $0x3,%al
    b9b8:	0f 8e 60 ff ff ff    	jle    b91e <func_1+0x169>
    b9be:	8b 05 1c 67 01 00    	mov    0x1671c(%rip),%eax        # 220e0 <g_6>
    b9c4:	83 c0 01             	add    $0x1,%eax
    b9c7:	89 05 13 67 01 00    	mov    %eax,0x16713(%rip)        # 220e0 <g_6>
    b9cd:	8b 05 0d 67 01 00    	mov    0x1670d(%rip),%eax        # 220e0 <g_6>
    b9d3:	85 c0                	test   %eax,%eax
    b9d5:	0f 8e 37 ff ff ff    	jle    b912 <func_1+0x15d>
    b9db:	83 bd 68 ff ff ff 00 	cmpl   $0x0,-0x98(%rbp)
    b9e2:	74 05                	je     b9e9 <func_1+0x234>
    b9e4:	e9 6b fe ff ff       	jmpq   b854 <func_1+0x9f>
    b9e9:	c7 85 68 ff ff ff 00 	movl   $0x0,-0x98(%rbp)
    b9f0:	00 00 00 
    b9f3:	eb 65                	jmp    ba5a <func_1+0x2a5>
    b9f5:	c7 85 7c ff ff ff 24 	movl   $0xaffcb324,-0x84(%rbp)
    b9fc:	b3 fc af 
    b9ff:	48 c7 45 b0 00 00 00 	movq   $0x0,-0x50(%rbp)
    ba06:	00 
    ba07:	48 b8 31 5d 88 61 c8 	movabs $0x2323c6c861885d31,%rax
    ba0e:	c6 23 23 
    ba11:	48 89 45 b8          	mov    %rax,-0x48(%rbp)
    ba15:	c7 45 80 09 00 00 00 	movl   $0x9,-0x80(%rbp)
    ba1c:	c7 45 84 4b 35 ec c9 	movl   $0xc9ec354b,-0x7c(%rbp)
    ba23:	c7 45 88 01 00 00 00 	movl   $0x1,-0x78(%rbp)
    ba2a:	c7 45 8c 00 00 00 00 	movl   $0x0,-0x74(%rbp)
    ba31:	48 8d 05 b0 66 01 00 	lea    0x166b0(%rip),%rax        # 220e8 <g_37>
    ba38:	48 89 45 c0          	mov    %rax,-0x40(%rbp)
    ba3c:	8b 85 68 ff ff ff    	mov    -0x98(%rbp),%eax
    ba42:	0f b7 c0             	movzwl %ax,%eax
    ba45:	be 09 00 00 00       	mov    $0x9,%esi
    ba4a:	89 c7                	mov    %eax,%edi
    ba4c:	e8 ce f2 ff ff       	callq  ad1f <safe_sub_func_uint16_t_u_u>
    ba51:	0f b7 c0             	movzwl %ax,%eax
    ba54:	89 85 68 ff ff ff    	mov    %eax,-0x98(%rbp)
    ba5a:	83 bd 68 ff ff ff f6 	cmpl   $0xfffffff6,-0x98(%rbp)
    ba61:	7d 92                	jge    b9f5 <func_1+0x240>
    ba63:	48 8b 05 1e 8d 01 00 	mov    0x18d1e(%rip),%rax        # 24788 <g_134>
    ba6a:	0f b7 00             	movzwl (%rax),%eax
    ba6d:	48 8b 7d f8          	mov    -0x8(%rbp),%rdi
    ba71:	64 48 33 3c 25 28 00 	xor    %fs:0x28,%rdi
    ba78:	00 00 
    ba7a:	74 05                	je     ba81 <func_1+0x2cc>
    ba7c:	e8 ef e5 ff ff       	callq  a070 <__stack_chk_fail@plt>
    ba81:	c9                   	leaveq 
    ba82:	c3                   	retq   

000000000000ba83 <func_18>:
    ba83:	f3 0f 1e fa          	endbr64 
    ba87:	55                   	push   %rbp
    ba88:	48 89 e5             	mov    %rsp,%rbp
    ba8b:	41 57                	push   %r15
    ba8d:	41 56                	push   %r14
    ba8f:	41 55                	push   %r13
    ba91:	41 54                	push   %r12
    ba93:	53                   	push   %rbx
    ba94:	48 81 ec 00 10 00 00 	sub    $0x1000,%rsp
    ba9b:	48 83 0c 24 00       	orq    $0x0,(%rsp)
    baa0:	48 81 ec 68 08 00 00 	sub    $0x868,%rsp
    baa7:	89 f8                	mov    %edi,%eax
    baa9:	48 89 b5 70 e7 ff ff 	mov    %rsi,-0x1890(%rbp)
    bab0:	66 89 85 7c e7 ff ff 	mov    %ax,-0x1884(%rbp)
    bab7:	64 48 8b 04 25 28 00 	mov    %fs:0x28,%rax
    babe:	00 00 
    bac0:	48 89 45 c8          	mov    %rax,-0x38(%rbp)
    bac4:	31 c0                	xor    %eax,%eax
    bac6:	48 8d 05 a3 6a 01 00 	lea    0x16aa3(%rip),%rax        # 22570 <g_428>
    bacd:	48 89 85 60 e8 ff ff 	mov    %rax,-0x17a0(%rbp)
    bad4:	c7 85 90 e7 ff ff 06 	movl   $0x6,-0x1870(%rbp)
    badb:	00 00 00 
    bade:	48 c7 85 68 e8 ff ff 	movq   $0x0,-0x1798(%rbp)
    bae5:	00 00 00 00 
    bae9:	48 c7 85 08 e8 ff ff 	movq   $0x1,-0x17f8(%rbp)
    baf0:	01 00 00 00 
    baf4:	c7 85 94 e7 ff ff 08 	movl   $0x8,-0x186c(%rbp)
    bafb:	00 00 00 
    bafe:	c7 85 80 ea ff ff ff 	movl   $0xffffffff,-0x1580(%rbp)
    bb05:	ff ff ff 
    bb08:	c7 85 84 ea ff ff ff 	movl   $0xffffffff,-0x157c(%rbp)
    bb0f:	ff ff ff 
    bb12:	c7 85 88 ea ff ff f7 	movl   $0xfffffff7,-0x1578(%rbp)
    bb19:	ff ff ff 
    bb1c:	c7 85 8c ea ff ff ff 	movl   $0xffffffff,-0x1574(%rbp)
    bb23:	ff ff ff 
    bb26:	c7 85 90 ea ff ff ff 	movl   $0xffffffff,-0x1570(%rbp)
    bb2d:	ff ff ff 
    bb30:	c7 85 94 ea ff ff ff 	movl   $0xffffffff,-0x156c(%rbp)
    bb37:	ff ff ff 
    bb3a:	c7 85 98 ea ff ff be 	movl   $0x502992be,-0x1568(%rbp)
    bb41:	92 29 50 
    bb44:	66 c7 85 8a e7 ff ff 	movw   $0x0,-0x1876(%rbp)
    bb4b:	00 00 
    bb4d:	c7 85 d4 e7 ff ff f6 	movl   $0xfffffff6,-0x182c(%rbp)
    bb54:	ff ff ff 
    bb57:	c7 85 98 e7 ff ff 52 	movl   $0xbc84b52,-0x1868(%rbp)
    bb5e:	4b c8 0b 
    bb61:	48 8d 85 40 ea ff ff 	lea    -0x15c0(%rbp),%rax
    bb68:	48 89 85 70 e8 ff ff 	mov    %rax,-0x1790(%rbp)
    bb6f:	48 8d 05 2a 6f 01 00 	lea    0x16f2a(%rip),%rax        # 22aa0 <g_2685>
    bb76:	48 89 85 78 e8 ff ff 	mov    %rax,-0x1788(%rbp)
    bb7d:	48 8d 05 5c 65 01 00 	lea    0x1655c(%rip),%rax        # 220e0 <g_6>
    bb84:	48 89 85 80 e8 ff ff 	mov    %rax,-0x1780(%rbp)
    bb8b:	48 8d 85 80 ea ff ff 	lea    -0x1580(%rbp),%rax
    bb92:	48 83 c0 10          	add    $0x10,%rax
    bb96:	48 89 85 88 e8 ff ff 	mov    %rax,-0x1778(%rbp)
    bb9d:	48 8d 85 90 e7 ff ff 	lea    -0x1870(%rbp),%rax
    bba4:	48 89 85 90 e8 ff ff 	mov    %rax,-0x1770(%rbp)
    bbab:	48 8d 05 8e 69 01 00 	lea    0x1698e(%rip),%rax        # 22540 <g_426>
    bbb2:	48 89 85 98 e8 ff ff 	mov    %rax,-0x1768(%rbp)
    bbb9:	c7 85 b4 e7 ff ff 00 	movl   $0x0,-0x184c(%rbp)
    bbc0:	00 00 00 
    bbc3:	eb 43                	jmp    bc08 <func_18+0x185>
    bbc5:	c7 85 b0 e7 ff ff 00 	movl   $0x0,-0x1850(%rbp)
    bbcc:	00 00 00 
    bbcf:	eb 27                	jmp    bbf8 <func_18+0x175>
    bbd1:	8b 85 b0 e7 ff ff    	mov    -0x1850(%rbp),%eax
    bbd7:	48 63 d0             	movslq %eax,%rdx
    bbda:	8b 85 b4 e7 ff ff    	mov    -0x184c(%rbp),%eax
    bbe0:	48 98                	cltq   
    bbe2:	48 01 d0             	add    %rdx,%rax
    bbe5:	48 c7 84 c5 40 ea ff 	movq   $0x0,-0x15c0(%rbp,%rax,8)
    bbec:	ff 00 00 00 00 
    bbf1:	83 85 b0 e7 ff ff 01 	addl   $0x1,-0x1850(%rbp)
    bbf8:	83 bd b0 e7 ff ff 00 	cmpl   $0x0,-0x1850(%rbp)
    bbff:	7e d0                	jle    bbd1 <func_18+0x14e>
    bc01:	83 85 b4 e7 ff ff 01 	addl   $0x1,-0x184c(%rbp)
    bc08:	83 bd b4 e7 ff ff 02 	cmpl   $0x2,-0x184c(%rbp)
    bc0f:	7e b4                	jle    bbc5 <func_18+0x142>
    bc11:	c7 85 b4 e7 ff ff 00 	movl   $0x0,-0x184c(%rbp)
    bc18:	00 00 00 
    bc1b:	eb 14                	jmp    bc31 <func_18+0x1ae>
    bc1d:	8b 85 b4 e7 ff ff    	mov    -0x184c(%rbp),%eax
    bc23:	48 98                	cltq   
    bc25:	c6 44 05 c1 b7       	movb   $0xb7,-0x3f(%rbp,%rax,1)
    bc2a:	83 85 b4 e7 ff ff 01 	addl   $0x1,-0x184c(%rbp)
    bc31:	83 bd b4 e7 ff ff 06 	cmpl   $0x6,-0x184c(%rbp)
    bc38:	7e e3                	jle    bc1d <func_18+0x19a>
    bc3a:	c7 85 b4 e7 ff ff 00 	movl   $0x0,-0x184c(%rbp)
    bc41:	00 00 00 
    bc44:	eb 71                	jmp    bcb7 <func_18+0x234>
    bc46:	c7 85 b0 e7 ff ff 00 	movl   $0x0,-0x1850(%rbp)
    bc4d:	00 00 00 
    bc50:	eb 55                	jmp    bca7 <func_18+0x224>
    bc52:	c7 85 b8 e7 ff ff 00 	movl   $0x0,-0x1848(%rbp)
    bc59:	00 00 00 
    bc5c:	eb 39                	jmp    bc97 <func_18+0x214>
    bc5e:	8b 85 b8 e7 ff ff    	mov    -0x1848(%rbp),%eax
    bc64:	48 98                	cltq   
    bc66:	8b 95 b4 e7 ff ff    	mov    -0x184c(%rbp),%edx
    bc6c:	48 63 ca             	movslq %edx,%rcx
    bc6f:	8b 95 b0 e7 ff ff    	mov    -0x1850(%rbp),%edx
    bc75:	48 63 d2             	movslq %edx,%rdx
    bc78:	48 01 c9             	add    %rcx,%rcx
    bc7b:	48 01 ca             	add    %rcx,%rdx
    bc7e:	48 01 d2             	add    %rdx,%rdx
    bc81:	48 01 d0             	add    %rdx,%rax
    bc84:	48 c7 84 c5 a0 ea ff 	movq   $0x0,-0x1560(%rbp,%rax,8)
    bc8b:	ff 00 00 00 00 
    bc90:	83 85 b8 e7 ff ff 01 	addl   $0x1,-0x1848(%rbp)
    bc97:	83 bd b8 e7 ff ff 01 	cmpl   $0x1,-0x1848(%rbp)
    bc9e:	7e be                	jle    bc5e <func_18+0x1db>
    bca0:	83 85 b0 e7 ff ff 01 	addl   $0x1,-0x1850(%rbp)
    bca7:	83 bd b0 e7 ff ff 01 	cmpl   $0x1,-0x1850(%rbp)
    bcae:	7e a2                	jle    bc52 <func_18+0x1cf>
    bcb0:	83 85 b4 e7 ff ff 01 	addl   $0x1,-0x184c(%rbp)
    bcb7:	83 bd b4 e7 ff ff 00 	cmpl   $0x0,-0x184c(%rbp)
    bcbe:	7e 86                	jle    bc46 <func_18+0x1c3>
    bcc0:	c7 85 b4 e7 ff ff 00 	movl   $0x0,-0x184c(%rbp)
    bcc7:	00 00 00 
    bcca:	eb 19                	jmp    bce5 <func_18+0x262>
    bccc:	8b 85 b4 e7 ff ff    	mov    -0x184c(%rbp),%eax
    bcd2:	48 98                	cltq   
    bcd4:	66 c7 84 45 20 ea ff 	movw   $0xfffc,-0x15e0(%rbp,%rax,2)
    bcdb:	ff fc ff 
    bcde:	83 85 b4 e7 ff ff 01 	addl   $0x1,-0x184c(%rbp)
    bce5:	83 bd b4 e7 ff ff 07 	cmpl   $0x7,-0x184c(%rbp)
    bcec:	7e de                	jle    bccc <func_18+0x249>
    bcee:	c7 05 38 69 01 00 00 	movl   $0x0,0x16938(%rip)        # 22630 <g_1365>
    bcf5:	00 00 00 
    bcf8:	e9 59 4f 00 00       	jmpq   10c56 <func_18+0x51d3>
    bcfd:	c7 85 9c e7 ff ff 32 	movl   $0xcd6f2632,-0x1864(%rbp)
    bd04:	26 6f cd 
    bd07:	48 8d 05 04 ac 01 00 	lea    0x1ac04(%rip),%rax        # 26912 <g_30+0x2>
    bd0e:	48 89 85 a0 e8 ff ff 	mov    %rax,-0x1760(%rbp)
    bd15:	48 8d 05 64 9e 01 00 	lea    0x19e64(%rip),%rax        # 25b80 <g_1193>
    bd1c:	48 89 85 a8 e8 ff ff 	mov    %rax,-0x1758(%rbp)
    bd23:	48 8d 05 9e ae 01 00 	lea    0x1ae9e(%rip),%rax        # 26bc8 <g_2089>
    bd2a:	48 89 85 10 e8 ff ff 	mov    %rax,-0x17f0(%rbp)
    bd31:	48 8d 85 10 e8 ff ff 	lea    -0x17f0(%rbp),%rax
    bd38:	48 89 85 b0 e8 ff ff 	mov    %rax,-0x1750(%rbp)
    bd3f:	48 8d 05 f2 64 01 00 	lea    0x164f2(%rip),%rax        # 22238 <g_152+0x78>
    bd46:	48 89 85 b8 e8 ff ff 	mov    %rax,-0x1748(%rbp)
    bd4d:	c7 85 d8 e7 ff ff 99 	movl   $0xfb0a1599,-0x1828(%rbp)
    bd54:	15 0a fb 
    bd57:	48 c7 85 c0 e8 ff ff 	movq   $0xfffffffffffffff6,-0x1740(%rbp)
    bd5e:	f6 ff ff ff 
    bd62:	48 8d 85 90 e7 ff ff 	lea    -0x1870(%rbp),%rax
    bd69:	48 89 85 c8 e8 ff ff 	mov    %rax,-0x1738(%rbp)
    bd70:	48 8d 05 11 ae 01 00 	lea    0x1ae11(%rip),%rax        # 26b88 <g_744>
    bd77:	48 89 85 18 e8 ff ff 	mov    %rax,-0x17e8(%rbp)
    bd7e:	48 8d 05 d3 9e 01 00 	lea    0x19ed3(%rip),%rax        # 25c58 <g_1826>
    bd85:	48 89 85 20 e8 ff ff 	mov    %rax,-0x17e0(%rbp)
    bd8c:	48 8d 85 20 e8 ff ff 	lea    -0x17e0(%rbp),%rax
    bd93:	48 89 85 60 f0 ff ff 	mov    %rax,-0xfa0(%rbp)
    bd9a:	48 8d 85 20 e8 ff ff 	lea    -0x17e0(%rbp),%rax
    bda1:	48 89 85 68 f0 ff ff 	mov    %rax,-0xf98(%rbp)
    bda8:	48 8d 85 20 e8 ff ff 	lea    -0x17e0(%rbp),%rax
    bdaf:	48 89 85 70 f0 ff ff 	mov    %rax,-0xf90(%rbp)
    bdb6:	48 c7 85 78 f0 ff ff 	movq   $0x0,-0xf88(%rbp)
    bdbd:	00 00 00 00 
    bdc1:	48 8d 85 20 e8 ff ff 	lea    -0x17e0(%rbp),%rax
    bdc8:	48 89 85 80 f0 ff ff 	mov    %rax,-0xf80(%rbp)
    bdcf:	48 8d 85 20 e8 ff ff 	lea    -0x17e0(%rbp),%rax
    bdd6:	48 89 85 88 f0 ff ff 	mov    %rax,-0xf78(%rbp)
    bddd:	48 8d 85 20 e8 ff ff 	lea    -0x17e0(%rbp),%rax
    bde4:	48 89 85 90 f0 ff ff 	mov    %rax,-0xf70(%rbp)
    bdeb:	48 8d 85 20 e8 ff ff 	lea    -0x17e0(%rbp),%rax
    bdf2:	48 89 85 98 f0 ff ff 	mov    %rax,-0xf68(%rbp)
    bdf9:	48 8d 85 20 e8 ff ff 	lea    -0x17e0(%rbp),%rax
    be00:	48 89 85 a0 f0 ff ff 	mov    %rax,-0xf60(%rbp)
    be07:	48 c7 85 a8 f0 ff ff 	movq   $0x0,-0xf58(%rbp)
    be0e:	00 00 00 00 
    be12:	48 c7 85 b0 f0 ff ff 	movq   $0x0,-0xf50(%rbp)
    be19:	00 00 00 00 
    be1d:	48 8d 85 20 e8 ff ff 	lea    -0x17e0(%rbp),%rax
    be24:	48 89 85 b8 f0 ff ff 	mov    %rax,-0xf48(%rbp)
    be2b:	48 8d 85 20 e8 ff ff 	lea    -0x17e0(%rbp),%rax
    be32:	48 89 85 c0 f0 ff ff 	mov    %rax,-0xf40(%rbp)
    be39:	48 c7 85 c8 f0 ff ff 	movq   $0x0,-0xf38(%rbp)
    be40:	00 00 00 00 
    be44:	48 8d 85 20 e8 ff ff 	lea    -0x17e0(%rbp),%rax
    be4b:	48 89 85 d0 f0 ff ff 	mov    %rax,-0xf30(%rbp)
    be52:	48 8d 85 20 e8 ff ff 	lea    -0x17e0(%rbp),%rax
    be59:	48 89 85 d8 f0 ff ff 	mov    %rax,-0xf28(%rbp)
    be60:	48 8d 85 20 e8 ff ff 	lea    -0x17e0(%rbp),%rax
    be67:	48 89 85 e0 f0 ff ff 	mov    %rax,-0xf20(%rbp)
    be6e:	48 8d 85 20 e8 ff ff 	lea    -0x17e0(%rbp),%rax
    be75:	48 89 85 e8 f0 ff ff 	mov    %rax,-0xf18(%rbp)
    be7c:	48 8d 85 20 e8 ff ff 	lea    -0x17e0(%rbp),%rax
    be83:	48 89 85 f0 f0 ff ff 	mov    %rax,-0xf10(%rbp)
    be8a:	48 8d 85 20 e8 ff ff 	lea    -0x17e0(%rbp),%rax
    be91:	48 89 85 f8 f0 ff ff 	mov    %rax,-0xf08(%rbp)
    be98:	48 8d 85 20 e8 ff ff 	lea    -0x17e0(%rbp),%rax
    be9f:	48 89 85 00 f1 ff ff 	mov    %rax,-0xf00(%rbp)
    bea6:	48 8d 85 20 e8 ff ff 	lea    -0x17e0(%rbp),%rax
    bead:	48 89 85 08 f1 ff ff 	mov    %rax,-0xef8(%rbp)
    beb4:	48 8d 85 20 e8 ff ff 	lea    -0x17e0(%rbp),%rax
    bebb:	48 89 85 10 f1 ff ff 	mov    %rax,-0xef0(%rbp)
    bec2:	48 8d 85 20 e8 ff ff 	lea    -0x17e0(%rbp),%rax
    bec9:	48 89 85 18 f1 ff ff 	mov    %rax,-0xee8(%rbp)
    bed0:	48 8d 85 20 e8 ff ff 	lea    -0x17e0(%rbp),%rax
    bed7:	48 89 85 20 f1 ff ff 	mov    %rax,-0xee0(%rbp)
    bede:	48 8d 85 20 e8 ff ff 	lea    -0x17e0(%rbp),%rax
    bee5:	48 89 85 28 f1 ff ff 	mov    %rax,-0xed8(%rbp)
    beec:	48 8d 85 20 e8 ff ff 	lea    -0x17e0(%rbp),%rax
    bef3:	48 89 85 30 f1 ff ff 	mov    %rax,-0xed0(%rbp)
    befa:	48 8d 85 20 e8 ff ff 	lea    -0x17e0(%rbp),%rax
    bf01:	48 89 85 38 f1 ff ff 	mov    %rax,-0xec8(%rbp)
    bf08:	48 8d 85 20 e8 ff ff 	lea    -0x17e0(%rbp),%rax
    bf0f:	48 89 85 40 f1 ff ff 	mov    %rax,-0xec0(%rbp)
    bf16:	48 c7 85 48 f1 ff ff 	movq   $0x0,-0xeb8(%rbp)
    bf1d:	00 00 00 00 
    bf21:	48 8d 85 20 e8 ff ff 	lea    -0x17e0(%rbp),%rax
    bf28:	48 89 85 50 f1 ff ff 	mov    %rax,-0xeb0(%rbp)
    bf2f:	48 8d 85 20 e8 ff ff 	lea    -0x17e0(%rbp),%rax
    bf36:	48 89 85 58 f1 ff ff 	mov    %rax,-0xea8(%rbp)
    bf3d:	48 8d 85 20 e8 ff ff 	lea    -0x17e0(%rbp),%rax
    bf44:	48 89 85 60 f1 ff ff 	mov    %rax,-0xea0(%rbp)
    bf4b:	48 c7 85 68 f1 ff ff 	movq   $0x0,-0xe98(%rbp)
    bf52:	00 00 00 00 
    bf56:	48 8d 85 20 e8 ff ff 	lea    -0x17e0(%rbp),%rax
    bf5d:	48 89 85 70 f1 ff ff 	mov    %rax,-0xe90(%rbp)
    bf64:	48 8d 85 20 e8 ff ff 	lea    -0x17e0(%rbp),%rax
    bf6b:	48 89 85 78 f1 ff ff 	mov    %rax,-0xe88(%rbp)
    bf72:	48 8d 85 20 e8 ff ff 	lea    -0x17e0(%rbp),%rax
    bf79:	48 89 85 80 f1 ff ff 	mov    %rax,-0xe80(%rbp)
    bf80:	48 8d 85 20 e8 ff ff 	lea    -0x17e0(%rbp),%rax
    bf87:	48 89 85 88 f1 ff ff 	mov    %rax,-0xe78(%rbp)
    bf8e:	48 8d 85 20 e8 ff ff 	lea    -0x17e0(%rbp),%rax
    bf95:	48 89 85 90 f1 ff ff 	mov    %rax,-0xe70(%rbp)
    bf9c:	48 c7 85 98 f1 ff ff 	movq   $0x0,-0xe68(%rbp)
    bfa3:	00 00 00 00 
    bfa7:	48 8d 85 20 e8 ff ff 	lea    -0x17e0(%rbp),%rax
    bfae:	48 89 85 a0 f1 ff ff 	mov    %rax,-0xe60(%rbp)
    bfb5:	48 8d 85 20 e8 ff ff 	lea    -0x17e0(%rbp),%rax
    bfbc:	48 89 85 a8 f1 ff ff 	mov    %rax,-0xe58(%rbp)
    bfc3:	48 8d 85 20 e8 ff ff 	lea    -0x17e0(%rbp),%rax
    bfca:	48 89 85 b0 f1 ff ff 	mov    %rax,-0xe50(%rbp)
    bfd1:	48 8d 85 20 e8 ff ff 	lea    -0x17e0(%rbp),%rax
    bfd8:	48 89 85 b8 f1 ff ff 	mov    %rax,-0xe48(%rbp)
    bfdf:	48 8d 85 20 e8 ff ff 	lea    -0x17e0(%rbp),%rax
    bfe6:	48 89 85 c0 f1 ff ff 	mov    %rax,-0xe40(%rbp)
    bfed:	48 8d 85 20 e8 ff ff 	lea    -0x17e0(%rbp),%rax
    bff4:	48 89 85 c8 f1 ff ff 	mov    %rax,-0xe38(%rbp)
    bffb:	48 c7 85 d0 f1 ff ff 	movq   $0x0,-0xe30(%rbp)
    c002:	00 00 00 00 
    c006:	48 c7 85 d8 f1 ff ff 	movq   $0x0,-0xe28(%rbp)
    c00d:	00 00 00 00 
    c011:	48 8d 85 20 e8 ff ff 	lea    -0x17e0(%rbp),%rax
    c018:	48 89 85 e0 f1 ff ff 	mov    %rax,-0xe20(%rbp)
    c01f:	48 c7 85 e8 f1 ff ff 	movq   $0x0,-0xe18(%rbp)
    c026:	00 00 00 00 
    c02a:	48 8d 85 20 e8 ff ff 	lea    -0x17e0(%rbp),%rax
    c031:	48 89 85 f0 f1 ff ff 	mov    %rax,-0xe10(%rbp)
    c038:	48 8d 85 20 e8 ff ff 	lea    -0x17e0(%rbp),%rax
    c03f:	48 89 85 f8 f1 ff ff 	mov    %rax,-0xe08(%rbp)
    c046:	48 8d 85 20 e8 ff ff 	lea    -0x17e0(%rbp),%rax
    c04d:	48 89 85 00 f2 ff ff 	mov    %rax,-0xe00(%rbp)
    c054:	48 8d 85 20 e8 ff ff 	lea    -0x17e0(%rbp),%rax
    c05b:	48 89 85 08 f2 ff ff 	mov    %rax,-0xdf8(%rbp)
    c062:	48 c7 85 10 f2 ff ff 	movq   $0x0,-0xdf0(%rbp)
    c069:	00 00 00 00 
    c06d:	48 8d 85 20 e8 ff ff 	lea    -0x17e0(%rbp),%rax
    c074:	48 89 85 18 f2 ff ff 	mov    %rax,-0xde8(%rbp)
    c07b:	48 8d 85 20 e8 ff ff 	lea    -0x17e0(%rbp),%rax
    c082:	48 89 85 20 f2 ff ff 	mov    %rax,-0xde0(%rbp)
    c089:	48 8d 85 20 e8 ff ff 	lea    -0x17e0(%rbp),%rax
    c090:	48 89 85 28 f2 ff ff 	mov    %rax,-0xdd8(%rbp)
    c097:	48 8d 85 20 e8 ff ff 	lea    -0x17e0(%rbp),%rax
    c09e:	48 89 85 30 f2 ff ff 	mov    %rax,-0xdd0(%rbp)
    c0a5:	48 8d 85 20 e8 ff ff 	lea    -0x17e0(%rbp),%rax
    c0ac:	48 89 85 38 f2 ff ff 	mov    %rax,-0xdc8(%rbp)
    c0b3:	48 c7 85 40 f2 ff ff 	movq   $0x0,-0xdc0(%rbp)
    c0ba:	00 00 00 00 
    c0be:	48 c7 85 48 f2 ff ff 	movq   $0x0,-0xdb8(%rbp)
    c0c5:	00 00 00 00 
    c0c9:	48 8d 85 20 e8 ff ff 	lea    -0x17e0(%rbp),%rax
    c0d0:	48 89 85 50 f2 ff ff 	mov    %rax,-0xdb0(%rbp)
    c0d7:	48 8d 85 20 e8 ff ff 	lea    -0x17e0(%rbp),%rax
    c0de:	48 89 85 58 f2 ff ff 	mov    %rax,-0xda8(%rbp)
    c0e5:	48 c7 85 60 f2 ff ff 	movq   $0x0,-0xda0(%rbp)
    c0ec:	00 00 00 00 
    c0f0:	48 8d 85 20 e8 ff ff 	lea    -0x17e0(%rbp),%rax
    c0f7:	48 89 85 68 f2 ff ff 	mov    %rax,-0xd98(%rbp)
    c0fe:	48 8d 85 20 e8 ff ff 	lea    -0x17e0(%rbp),%rax
    c105:	48 89 85 70 f2 ff ff 	mov    %rax,-0xd90(%rbp)
    c10c:	48 8d 85 20 e8 ff ff 	lea    -0x17e0(%rbp),%rax
    c113:	48 89 85 78 f2 ff ff 	mov    %rax,-0xd88(%rbp)
    c11a:	48 8d 85 20 e8 ff ff 	lea    -0x17e0(%rbp),%rax
    c121:	48 89 85 80 f2 ff ff 	mov    %rax,-0xd80(%rbp)
    c128:	48 8d 85 20 e8 ff ff 	lea    -0x17e0(%rbp),%rax
    c12f:	48 89 85 88 f2 ff ff 	mov    %rax,-0xd78(%rbp)
    c136:	48 8d 85 20 e8 ff ff 	lea    -0x17e0(%rbp),%rax
    c13d:	48 89 85 90 f2 ff ff 	mov    %rax,-0xd70(%rbp)
    c144:	48 8d 85 20 e8 ff ff 	lea    -0x17e0(%rbp),%rax
    c14b:	48 89 85 98 f2 ff ff 	mov    %rax,-0xd68(%rbp)
    c152:	48 8d 85 20 e8 ff ff 	lea    -0x17e0(%rbp),%rax
    c159:	48 89 85 a0 f2 ff ff 	mov    %rax,-0xd60(%rbp)
    c160:	48 8d 85 20 e8 ff ff 	lea    -0x17e0(%rbp),%rax
    c167:	48 89 85 a8 f2 ff ff 	mov    %rax,-0xd58(%rbp)
    c16e:	48 8d 85 20 e8 ff ff 	lea    -0x17e0(%rbp),%rax
    c175:	48 89 85 b0 f2 ff ff 	mov    %rax,-0xd50(%rbp)
    c17c:	48 8d 85 20 e8 ff ff 	lea    -0x17e0(%rbp),%rax
    c183:	48 89 85 b8 f2 ff ff 	mov    %rax,-0xd48(%rbp)
    c18a:	48 8d 85 20 e8 ff ff 	lea    -0x17e0(%rbp),%rax
    c191:	48 89 85 c0 f2 ff ff 	mov    %rax,-0xd40(%rbp)
    c198:	48 8d 85 20 e8 ff ff 	lea    -0x17e0(%rbp),%rax
    c19f:	48 89 85 c8 f2 ff ff 	mov    %rax,-0xd38(%rbp)
    c1a6:	48 8d 85 20 e8 ff ff 	lea    -0x17e0(%rbp),%rax
    c1ad:	48 89 85 d0 f2 ff ff 	mov    %rax,-0xd30(%rbp)
    c1b4:	48 8d 85 20 e8 ff ff 	lea    -0x17e0(%rbp),%rax
    c1bb:	48 89 85 d8 f2 ff ff 	mov    %rax,-0xd28(%rbp)
    c1c2:	48 c7 85 e0 f2 ff ff 	movq   $0x0,-0xd20(%rbp)
    c1c9:	00 00 00 00 
    c1cd:	48 8d 85 20 e8 ff ff 	lea    -0x17e0(%rbp),%rax
    c1d4:	48 89 85 e8 f2 ff ff 	mov    %rax,-0xd18(%rbp)
    c1db:	48 8d 85 20 e8 ff ff 	lea    -0x17e0(%rbp),%rax
    c1e2:	48 89 85 f0 f2 ff ff 	mov    %rax,-0xd10(%rbp)
    c1e9:	48 8d 85 20 e8 ff ff 	lea    -0x17e0(%rbp),%rax
    c1f0:	48 89 85 f8 f2 ff ff 	mov    %rax,-0xd08(%rbp)
    c1f7:	48 c7 85 00 f3 ff ff 	movq   $0x0,-0xd00(%rbp)
    c1fe:	00 00 00 00 
    c202:	48 8d 85 20 e8 ff ff 	lea    -0x17e0(%rbp),%rax
    c209:	48 89 85 08 f3 ff ff 	mov    %rax,-0xcf8(%rbp)
    c210:	48 8d 85 20 e8 ff ff 	lea    -0x17e0(%rbp),%rax
    c217:	48 89 85 10 f3 ff ff 	mov    %rax,-0xcf0(%rbp)
    c21e:	48 8d 85 20 e8 ff ff 	lea    -0x17e0(%rbp),%rax
    c225:	48 89 85 18 f3 ff ff 	mov    %rax,-0xce8(%rbp)
    c22c:	48 8d 85 20 e8 ff ff 	lea    -0x17e0(%rbp),%rax
    c233:	48 89 85 20 f3 ff ff 	mov    %rax,-0xce0(%rbp)
    c23a:	48 8d 85 20 e8 ff ff 	lea    -0x17e0(%rbp),%rax
    c241:	48 89 85 28 f3 ff ff 	mov    %rax,-0xcd8(%rbp)
    c248:	48 c7 85 30 f3 ff ff 	movq   $0x0,-0xcd0(%rbp)
    c24f:	00 00 00 00 
    c253:	48 8d 85 20 e8 ff ff 	lea    -0x17e0(%rbp),%rax
    c25a:	48 89 85 38 f3 ff ff 	mov    %rax,-0xcc8(%rbp)
    c261:	48 8d 85 20 e8 ff ff 	lea    -0x17e0(%rbp),%rax
    c268:	48 89 85 40 f3 ff ff 	mov    %rax,-0xcc0(%rbp)
    c26f:	48 8d 85 20 e8 ff ff 	lea    -0x17e0(%rbp),%rax
    c276:	48 89 85 48 f3 ff ff 	mov    %rax,-0xcb8(%rbp)
    c27d:	48 8d 85 20 e8 ff ff 	lea    -0x17e0(%rbp),%rax
    c284:	48 89 85 50 f3 ff ff 	mov    %rax,-0xcb0(%rbp)
    c28b:	48 8d 85 20 e8 ff ff 	lea    -0x17e0(%rbp),%rax
    c292:	48 89 85 58 f3 ff ff 	mov    %rax,-0xca8(%rbp)
    c299:	48 8d 85 20 e8 ff ff 	lea    -0x17e0(%rbp),%rax
    c2a0:	48 89 85 60 f3 ff ff 	mov    %rax,-0xca0(%rbp)
    c2a7:	48 c7 85 68 f3 ff ff 	movq   $0x0,-0xc98(%rbp)
    c2ae:	00 00 00 00 
    c2b2:	48 c7 85 70 f3 ff ff 	movq   $0x0,-0xc90(%rbp)
    c2b9:	00 00 00 00 
    c2bd:	48 8d 85 20 e8 ff ff 	lea    -0x17e0(%rbp),%rax
    c2c4:	48 89 85 78 f3 ff ff 	mov    %rax,-0xc88(%rbp)
    c2cb:	48 c7 85 80 f3 ff ff 	movq   $0x0,-0xc80(%rbp)
    c2d2:	00 00 00 00 
    c2d6:	48 8d 85 20 e8 ff ff 	lea    -0x17e0(%rbp),%rax
    c2dd:	48 89 85 88 f3 ff ff 	mov    %rax,-0xc78(%rbp)
    c2e4:	48 8d 85 20 e8 ff ff 	lea    -0x17e0(%rbp),%rax
    c2eb:	48 89 85 90 f3 ff ff 	mov    %rax,-0xc70(%rbp)
    c2f2:	48 8d 85 20 e8 ff ff 	lea    -0x17e0(%rbp),%rax
    c2f9:	48 89 85 98 f3 ff ff 	mov    %rax,-0xc68(%rbp)
    c300:	48 8d 85 20 e8 ff ff 	lea    -0x17e0(%rbp),%rax
    c307:	48 89 85 a0 f3 ff ff 	mov    %rax,-0xc60(%rbp)
    c30e:	48 c7 85 a8 f3 ff ff 	movq   $0x0,-0xc58(%rbp)
    c315:	00 00 00 00 
    c319:	48 8d 85 20 e8 ff ff 	lea    -0x17e0(%rbp),%rax
    c320:	48 89 85 b0 f3 ff ff 	mov    %rax,-0xc50(%rbp)
    c327:	48 8d 85 20 e8 ff ff 	lea    -0x17e0(%rbp),%rax
    c32e:	48 89 85 b8 f3 ff ff 	mov    %rax,-0xc48(%rbp)
    c335:	48 8d 85 20 e8 ff ff 	lea    -0x17e0(%rbp),%rax
    c33c:	48 89 85 c0 f3 ff ff 	mov    %rax,-0xc40(%rbp)
    c343:	48 8d 85 20 e8 ff ff 	lea    -0x17e0(%rbp),%rax
    c34a:	48 89 85 c8 f3 ff ff 	mov    %rax,-0xc38(%rbp)
    c351:	48 8d 85 20 e8 ff ff 	lea    -0x17e0(%rbp),%rax
    c358:	48 89 85 d0 f3 ff ff 	mov    %rax,-0xc30(%rbp)
    c35f:	48 c7 85 d8 f3 ff ff 	movq   $0x0,-0xc28(%rbp)
    c366:	00 00 00 00 
    c36a:	48 c7 85 e0 f3 ff ff 	movq   $0x0,-0xc20(%rbp)
    c371:	00 00 00 00 
    c375:	48 8d 85 20 e8 ff ff 	lea    -0x17e0(%rbp),%rax
    c37c:	48 89 85 e8 f3 ff ff 	mov    %rax,-0xc18(%rbp)
    c383:	48 8d 85 20 e8 ff ff 	lea    -0x17e0(%rbp),%rax
    c38a:	48 89 85 f0 f3 ff ff 	mov    %rax,-0xc10(%rbp)
    c391:	48 c7 85 f8 f3 ff ff 	movq   $0x0,-0xc08(%rbp)
    c398:	00 00 00 00 
    c39c:	48 8d 85 20 e8 ff ff 	lea    -0x17e0(%rbp),%rax
    c3a3:	48 89 85 00 f4 ff ff 	mov    %rax,-0xc00(%rbp)
    c3aa:	48 8d 85 20 e8 ff ff 	lea    -0x17e0(%rbp),%rax
    c3b1:	48 89 85 08 f4 ff ff 	mov    %rax,-0xbf8(%rbp)
    c3b8:	48 8d 85 20 e8 ff ff 	lea    -0x17e0(%rbp),%rax
    c3bf:	48 89 85 10 f4 ff ff 	mov    %rax,-0xbf0(%rbp)
    c3c6:	48 8d 85 20 e8 ff ff 	lea    -0x17e0(%rbp),%rax
    c3cd:	48 89 85 18 f4 ff ff 	mov    %rax,-0xbe8(%rbp)
    c3d4:	48 8d 85 20 e8 ff ff 	lea    -0x17e0(%rbp),%rax
    c3db:	48 89 85 20 f4 ff ff 	mov    %rax,-0xbe0(%rbp)
    c3e2:	48 8d 85 20 e8 ff ff 	lea    -0x17e0(%rbp),%rax
    c3e9:	48 89 85 28 f4 ff ff 	mov    %rax,-0xbd8(%rbp)
    c3f0:	48 8d 85 20 e8 ff ff 	lea    -0x17e0(%rbp),%rax
    c3f7:	48 89 85 30 f4 ff ff 	mov    %rax,-0xbd0(%rbp)
    c3fe:	48 8d 85 20 e8 ff ff 	lea    -0x17e0(%rbp),%rax
    c405:	48 89 85 38 f4 ff ff 	mov    %rax,-0xbc8(%rbp)
    c40c:	48 8d 85 20 e8 ff ff 	lea    -0x17e0(%rbp),%rax
    c413:	48 89 85 40 f4 ff ff 	mov    %rax,-0xbc0(%rbp)
    c41a:	48 8d 85 20 e8 ff ff 	lea    -0x17e0(%rbp),%rax
    c421:	48 89 85 48 f4 ff ff 	mov    %rax,-0xbb8(%rbp)
    c428:	48 8d 85 20 e8 ff ff 	lea    -0x17e0(%rbp),%rax
    c42f:	48 89 85 50 f4 ff ff 	mov    %rax,-0xbb0(%rbp)
    c436:	48 8d 85 20 e8 ff ff 	lea    -0x17e0(%rbp),%rax
    c43d:	48 89 85 58 f4 ff ff 	mov    %rax,-0xba8(%rbp)
    c444:	48 8d 85 20 e8 ff ff 	lea    -0x17e0(%rbp),%rax
    c44b:	48 89 85 60 f4 ff ff 	mov    %rax,-0xba0(%rbp)
    c452:	48 8d 85 20 e8 ff ff 	lea    -0x17e0(%rbp),%rax
    c459:	48 89 85 68 f4 ff ff 	mov    %rax,-0xb98(%rbp)
    c460:	48 8d 85 20 e8 ff ff 	lea    -0x17e0(%rbp),%rax
    c467:	48 89 85 70 f4 ff ff 	mov    %rax,-0xb90(%rbp)
    c46e:	48 c7 85 78 f4 ff ff 	movq   $0x0,-0xb88(%rbp)
    c475:	00 00 00 00 
    c479:	48 8d 85 20 e8 ff ff 	lea    -0x17e0(%rbp),%rax
    c480:	48 89 85 80 f4 ff ff 	mov    %rax,-0xb80(%rbp)
    c487:	48 8d 85 20 e8 ff ff 	lea    -0x17e0(%rbp),%rax
    c48e:	48 89 85 88 f4 ff ff 	mov    %rax,-0xb78(%rbp)
    c495:	48 8d 85 20 e8 ff ff 	lea    -0x17e0(%rbp),%rax
    c49c:	48 89 85 90 f4 ff ff 	mov    %rax,-0xb70(%rbp)
    c4a3:	48 c7 85 98 f4 ff ff 	movq   $0x0,-0xb68(%rbp)
    c4aa:	00 00 00 00 
    c4ae:	48 8d 85 20 e8 ff ff 	lea    -0x17e0(%rbp),%rax
    c4b5:	48 89 85 a0 f4 ff ff 	mov    %rax,-0xb60(%rbp)
    c4bc:	48 8d 85 20 e8 ff ff 	lea    -0x17e0(%rbp),%rax
    c4c3:	48 89 85 a8 f4 ff ff 	mov    %rax,-0xb58(%rbp)
    c4ca:	48 8d 85 20 e8 ff ff 	lea    -0x17e0(%rbp),%rax
    c4d1:	48 89 85 b0 f4 ff ff 	mov    %rax,-0xb50(%rbp)
    c4d8:	48 8d 85 20 e8 ff ff 	lea    -0x17e0(%rbp),%rax
    c4df:	48 89 85 b8 f4 ff ff 	mov    %rax,-0xb48(%rbp)
    c4e6:	48 8d 85 20 e8 ff ff 	lea    -0x17e0(%rbp),%rax
    c4ed:	48 89 85 c0 f4 ff ff 	mov    %rax,-0xb40(%rbp)
    c4f4:	48 c7 85 c8 f4 ff ff 	movq   $0x0,-0xb38(%rbp)
    c4fb:	00 00 00 00 
    c4ff:	48 8d 85 20 e8 ff ff 	lea    -0x17e0(%rbp),%rax
    c506:	48 89 85 d0 f4 ff ff 	mov    %rax,-0xb30(%rbp)
    c50d:	48 8d 85 20 e8 ff ff 	lea    -0x17e0(%rbp),%rax
    c514:	48 89 85 d8 f4 ff ff 	mov    %rax,-0xb28(%rbp)
    c51b:	48 8d 85 20 e8 ff ff 	lea    -0x17e0(%rbp),%rax
    c522:	48 89 85 e0 f4 ff ff 	mov    %rax,-0xb20(%rbp)
    c529:	48 8d 85 20 e8 ff ff 	lea    -0x17e0(%rbp),%rax
    c530:	48 89 85 e8 f4 ff ff 	mov    %rax,-0xb18(%rbp)
    c537:	48 8d 85 20 e8 ff ff 	lea    -0x17e0(%rbp),%rax
    c53e:	48 89 85 f0 f4 ff ff 	mov    %rax,-0xb10(%rbp)
    c545:	48 8d 85 20 e8 ff ff 	lea    -0x17e0(%rbp),%rax
    c54c:	48 89 85 f8 f4 ff ff 	mov    %rax,-0xb08(%rbp)
    c553:	48 c7 85 00 f5 ff ff 	movq   $0x0,-0xb00(%rbp)
    c55a:	00 00 00 00 
    c55e:	48 c7 85 08 f5 ff ff 	movq   $0x0,-0xaf8(%rbp)
    c565:	00 00 00 00 
    c569:	48 8d 85 20 e8 ff ff 	lea    -0x17e0(%rbp),%rax
    c570:	48 89 85 10 f5 ff ff 	mov    %rax,-0xaf0(%rbp)
    c577:	48 c7 85 18 f5 ff ff 	movq   $0x0,-0xae8(%rbp)
    c57e:	00 00 00 00 
    c582:	48 8d 85 20 e8 ff ff 	lea    -0x17e0(%rbp),%rax
    c589:	48 89 85 20 f5 ff ff 	mov    %rax,-0xae0(%rbp)
    c590:	48 8d 85 20 e8 ff ff 	lea    -0x17e0(%rbp),%rax
    c597:	48 89 85 28 f5 ff ff 	mov    %rax,-0xad8(%rbp)
    c59e:	48 8d 85 20 e8 ff ff 	lea    -0x17e0(%rbp),%rax
    c5a5:	48 89 85 30 f5 ff ff 	mov    %rax,-0xad0(%rbp)
    c5ac:	48 8d 85 20 e8 ff ff 	lea    -0x17e0(%rbp),%rax
    c5b3:	48 89 85 38 f5 ff ff 	mov    %rax,-0xac8(%rbp)
    c5ba:	48 c7 85 40 f5 ff ff 	movq   $0x0,-0xac0(%rbp)
    c5c1:	00 00 00 00 
    c5c5:	48 8d 85 20 e8 ff ff 	lea    -0x17e0(%rbp),%rax
    c5cc:	48 89 85 48 f5 ff ff 	mov    %rax,-0xab8(%rbp)
    c5d3:	48 8d 85 20 e8 ff ff 	lea    -0x17e0(%rbp),%rax
    c5da:	48 89 85 50 f5 ff ff 	mov    %rax,-0xab0(%rbp)
    c5e1:	48 8d 85 20 e8 ff ff 	lea    -0x17e0(%rbp),%rax
    c5e8:	48 89 85 58 f5 ff ff 	mov    %rax,-0xaa8(%rbp)
    c5ef:	48 8d 85 20 e8 ff ff 	lea    -0x17e0(%rbp),%rax
    c5f6:	48 89 85 60 f5 ff ff 	mov    %rax,-0xaa0(%rbp)
    c5fd:	48 8d 85 20 e8 ff ff 	lea    -0x17e0(%rbp),%rax
    c604:	48 89 85 68 f5 ff ff 	mov    %rax,-0xa98(%rbp)
    c60b:	48 c7 85 70 f5 ff ff 	movq   $0x0,-0xa90(%rbp)
    c612:	00 00 00 00 
    c616:	48 c7 85 78 f5 ff ff 	movq   $0x0,-0xa88(%rbp)
    c61d:	00 00 00 00 
    c621:	48 8d 85 20 e8 ff ff 	lea    -0x17e0(%rbp),%rax
    c628:	48 89 85 80 f5 ff ff 	mov    %rax,-0xa80(%rbp)
    c62f:	48 8d 85 20 e8 ff ff 	lea    -0x17e0(%rbp),%rax
    c636:	48 89 85 88 f5 ff ff 	mov    %rax,-0xa78(%rbp)
    c63d:	48 c7 85 90 f5 ff ff 	movq   $0x0,-0xa70(%rbp)
    c644:	00 00 00 00 
    c648:	48 8d 85 20 e8 ff ff 	lea    -0x17e0(%rbp),%rax
    c64f:	48 89 85 98 f5 ff ff 	mov    %rax,-0xa68(%rbp)
    c656:	48 8d 85 20 e8 ff ff 	lea    -0x17e0(%rbp),%rax
    c65d:	48 89 85 a0 f5 ff ff 	mov    %rax,-0xa60(%rbp)
    c664:	48 8d 85 20 e8 ff ff 	lea    -0x17e0(%rbp),%rax
    c66b:	48 89 85 a8 f5 ff ff 	mov    %rax,-0xa58(%rbp)
    c672:	48 8d 85 20 e8 ff ff 	lea    -0x17e0(%rbp),%rax
    c679:	48 89 85 b0 f5 ff ff 	mov    %rax,-0xa50(%rbp)
    c680:	48 8d 85 20 e8 ff ff 	lea    -0x17e0(%rbp),%rax
    c687:	48 89 85 b8 f5 ff ff 	mov    %rax,-0xa48(%rbp)
    c68e:	48 8d 85 20 e8 ff ff 	lea    -0x17e0(%rbp),%rax
    c695:	48 89 85 c0 f5 ff ff 	mov    %rax,-0xa40(%rbp)
    c69c:	48 8d 85 20 e8 ff ff 	lea    -0x17e0(%rbp),%rax
    c6a3:	48 89 85 c8 f5 ff ff 	mov    %rax,-0xa38(%rbp)
    c6aa:	48 8d 85 20 e8 ff ff 	lea    -0x17e0(%rbp),%rax
    c6b1:	48 89 85 d0 f5 ff ff 	mov    %rax,-0xa30(%rbp)
    c6b8:	48 8d 85 20 e8 ff ff 	lea    -0x17e0(%rbp),%rax
    c6bf:	48 89 85 d8 f5 ff ff 	mov    %rax,-0xa28(%rbp)
    c6c6:	48 8d 85 20 e8 ff ff 	lea    -0x17e0(%rbp),%rax
    c6cd:	48 89 85 e0 f5 ff ff 	mov    %rax,-0xa20(%rbp)
    c6d4:	48 8d 85 20 e8 ff ff 	lea    -0x17e0(%rbp),%rax
    c6db:	48 89 85 e8 f5 ff ff 	mov    %rax,-0xa18(%rbp)
    c6e2:	48 8d 85 20 e8 ff ff 	lea    -0x17e0(%rbp),%rax
    c6e9:	48 89 85 f0 f5 ff ff 	mov    %rax,-0xa10(%rbp)
    c6f0:	48 8d 85 20 e8 ff ff 	lea    -0x17e0(%rbp),%rax
    c6f7:	48 89 85 f8 f5 ff ff 	mov    %rax,-0xa08(%rbp)
    c6fe:	48 8d 85 20 e8 ff ff 	lea    -0x17e0(%rbp),%rax
    c705:	48 89 85 00 f6 ff ff 	mov    %rax,-0xa00(%rbp)
    c70c:	48 8d 85 20 e8 ff ff 	lea    -0x17e0(%rbp),%rax
    c713:	48 89 85 08 f6 ff ff 	mov    %rax,-0x9f8(%rbp)
    c71a:	48 c7 85 10 f6 ff ff 	movq   $0x0,-0x9f0(%rbp)
    c721:	00 00 00 00 
    c725:	48 8d 85 20 e8 ff ff 	lea    -0x17e0(%rbp),%rax
    c72c:	48 89 85 18 f6 ff ff 	mov    %rax,-0x9e8(%rbp)
    c733:	48 8d 85 20 e8 ff ff 	lea    -0x17e0(%rbp),%rax
    c73a:	48 89 85 20 f6 ff ff 	mov    %rax,-0x9e0(%rbp)
    c741:	48 8d 85 20 e8 ff ff 	lea    -0x17e0(%rbp),%rax
    c748:	48 89 85 28 f6 ff ff 	mov    %rax,-0x9d8(%rbp)
    c74f:	48 c7 85 30 f6 ff ff 	movq   $0x0,-0x9d0(%rbp)
    c756:	00 00 00 00 
    c75a:	48 8d 85 20 e8 ff ff 	lea    -0x17e0(%rbp),%rax
    c761:	48 89 85 38 f6 ff ff 	mov    %rax,-0x9c8(%rbp)
    c768:	48 8d 85 20 e8 ff ff 	lea    -0x17e0(%rbp),%rax
    c76f:	48 89 85 40 f6 ff ff 	mov    %rax,-0x9c0(%rbp)
    c776:	48 8d 85 20 e8 ff ff 	lea    -0x17e0(%rbp),%rax
    c77d:	48 89 85 48 f6 ff ff 	mov    %rax,-0x9b8(%rbp)
    c784:	48 8d 85 20 e8 ff ff 	lea    -0x17e0(%rbp),%rax
    c78b:	48 89 85 50 f6 ff ff 	mov    %rax,-0x9b0(%rbp)
    c792:	48 8d 85 20 e8 ff ff 	lea    -0x17e0(%rbp),%rax
    c799:	48 89 85 58 f6 ff ff 	mov    %rax,-0x9a8(%rbp)
    c7a0:	48 c7 85 60 f6 ff ff 	movq   $0x0,-0x9a0(%rbp)
    c7a7:	00 00 00 00 
    c7ab:	48 c7 85 68 f6 ff ff 	movq   $0x0,-0x998(%rbp)
    c7b2:	00 00 00 00 
    c7b6:	48 8d 85 20 e8 ff ff 	lea    -0x17e0(%rbp),%rax
    c7bd:	48 89 85 70 f6 ff ff 	mov    %rax,-0x990(%rbp)
    c7c4:	48 8d 85 20 e8 ff ff 	lea    -0x17e0(%rbp),%rax
    c7cb:	48 89 85 78 f6 ff ff 	mov    %rax,-0x988(%rbp)
    c7d2:	48 8d 85 20 e8 ff ff 	lea    -0x17e0(%rbp),%rax
    c7d9:	48 89 85 80 f6 ff ff 	mov    %rax,-0x980(%rbp)
    c7e0:	48 8d 85 20 e8 ff ff 	lea    -0x17e0(%rbp),%rax
    c7e7:	48 89 85 88 f6 ff ff 	mov    %rax,-0x978(%rbp)
    c7ee:	48 8d 85 20 e8 ff ff 	lea    -0x17e0(%rbp),%rax
    c7f5:	48 89 85 90 f6 ff ff 	mov    %rax,-0x970(%rbp)
    c7fc:	48 8d 85 20 e8 ff ff 	lea    -0x17e0(%rbp),%rax
    c803:	48 89 85 98 f6 ff ff 	mov    %rax,-0x968(%rbp)
    c80a:	48 c7 85 a0 f6 ff ff 	movq   $0x0,-0x960(%rbp)
    c811:	00 00 00 00 
    c815:	48 8d 85 20 e8 ff ff 	lea    -0x17e0(%rbp),%rax
    c81c:	48 89 85 a8 f6 ff ff 	mov    %rax,-0x958(%rbp)
    c823:	48 c7 85 b0 f6 ff ff 	movq   $0x0,-0x950(%rbp)
    c82a:	00 00 00 00 
    c82e:	48 8d 85 20 e8 ff ff 	lea    -0x17e0(%rbp),%rax
    c835:	48 89 85 b8 f6 ff ff 	mov    %rax,-0x948(%rbp)
    c83c:	48 8d 85 20 e8 ff ff 	lea    -0x17e0(%rbp),%rax
    c843:	48 89 85 c0 f6 ff ff 	mov    %rax,-0x940(%rbp)
    c84a:	48 8d 85 20 e8 ff ff 	lea    -0x17e0(%rbp),%rax
    c851:	48 89 85 c8 f6 ff ff 	mov    %rax,-0x938(%rbp)
    c858:	48 8d 85 20 e8 ff ff 	lea    -0x17e0(%rbp),%rax
    c85f:	48 89 85 d0 f6 ff ff 	mov    %rax,-0x930(%rbp)
    c866:	48 c7 85 d8 f6 ff ff 	movq   $0x0,-0x928(%rbp)
    c86d:	00 00 00 00 
    c871:	48 8d 85 20 e8 ff ff 	lea    -0x17e0(%rbp),%rax
    c878:	48 89 85 e0 f6 ff ff 	mov    %rax,-0x920(%rbp)
    c87f:	48 8d 85 20 e8 ff ff 	lea    -0x17e0(%rbp),%rax
    c886:	48 89 85 e8 f6 ff ff 	mov    %rax,-0x918(%rbp)
    c88d:	48 8d 85 20 e8 ff ff 	lea    -0x17e0(%rbp),%rax
    c894:	48 89 85 f0 f6 ff ff 	mov    %rax,-0x910(%rbp)
    c89b:	48 8d 85 20 e8 ff ff 	lea    -0x17e0(%rbp),%rax
    c8a2:	48 89 85 f8 f6 ff ff 	mov    %rax,-0x908(%rbp)
    c8a9:	48 8d 85 20 e8 ff ff 	lea    -0x17e0(%rbp),%rax
    c8b0:	48 89 85 00 f7 ff ff 	mov    %rax,-0x900(%rbp)
    c8b7:	48 c7 85 08 f7 ff ff 	movq   $0x0,-0x8f8(%rbp)
    c8be:	00 00 00 00 
    c8c2:	48 c7 85 10 f7 ff ff 	movq   $0x0,-0x8f0(%rbp)
    c8c9:	00 00 00 00 
    c8cd:	48 c7 85 18 f7 ff ff 	movq   $0x0,-0x8e8(%rbp)
    c8d4:	00 00 00 00 
    c8d8:	48 8d 85 20 e8 ff ff 	lea    -0x17e0(%rbp),%rax
    c8df:	48 89 85 20 f7 ff ff 	mov    %rax,-0x8e0(%rbp)
    c8e6:	48 8d 85 20 e8 ff ff 	lea    -0x17e0(%rbp),%rax
    c8ed:	48 89 85 28 f7 ff ff 	mov    %rax,-0x8d8(%rbp)
    c8f4:	48 c7 85 30 f7 ff ff 	movq   $0x0,-0x8d0(%rbp)
    c8fb:	00 00 00 00 
    c8ff:	48 8d 85 20 e8 ff ff 	lea    -0x17e0(%rbp),%rax
    c906:	48 89 85 38 f7 ff ff 	mov    %rax,-0x8c8(%rbp)
    c90d:	48 8d 85 20 e8 ff ff 	lea    -0x17e0(%rbp),%rax
    c914:	48 89 85 40 f7 ff ff 	mov    %rax,-0x8c0(%rbp)
    c91b:	48 8d 85 20 e8 ff ff 	lea    -0x17e0(%rbp),%rax
    c922:	48 89 85 48 f7 ff ff 	mov    %rax,-0x8b8(%rbp)
    c929:	48 8d 85 20 e8 ff ff 	lea    -0x17e0(%rbp),%rax
    c930:	48 89 85 50 f7 ff ff 	mov    %rax,-0x8b0(%rbp)
    c937:	48 c7 85 58 f7 ff ff 	movq   $0x0,-0x8a8(%rbp)
    c93e:	00 00 00 00 
    c942:	48 8d 85 20 e8 ff ff 	lea    -0x17e0(%rbp),%rax
    c949:	48 89 85 60 f7 ff ff 	mov    %rax,-0x8a0(%rbp)
    c950:	48 8d 85 20 e8 ff ff 	lea    -0x17e0(%rbp),%rax
    c957:	48 89 85 68 f7 ff ff 	mov    %rax,-0x898(%rbp)
    c95e:	48 8d 85 20 e8 ff ff 	lea    -0x17e0(%rbp),%rax
    c965:	48 89 85 70 f7 ff ff 	mov    %rax,-0x890(%rbp)
    c96c:	48 8d 85 20 e8 ff ff 	lea    -0x17e0(%rbp),%rax
    c973:	48 89 85 78 f7 ff ff 	mov    %rax,-0x888(%rbp)
    c97a:	48 8d 85 20 e8 ff ff 	lea    -0x17e0(%rbp),%rax
    c981:	48 89 85 80 f7 ff ff 	mov    %rax,-0x880(%rbp)
    c988:	48 c7 85 88 f7 ff ff 	movq   $0x0,-0x878(%rbp)
    c98f:	00 00 00 00 
    c993:	48 8d 85 20 e8 ff ff 	lea    -0x17e0(%rbp),%rax
    c99a:	48 89 85 90 f7 ff ff 	mov    %rax,-0x870(%rbp)
    c9a1:	48 8d 85 20 e8 ff ff 	lea    -0x17e0(%rbp),%rax
    c9a8:	48 89 85 98 f7 ff ff 	mov    %rax,-0x868(%rbp)
    c9af:	48 8d 85 20 e8 ff ff 	lea    -0x17e0(%rbp),%rax
    c9b6:	48 89 85 a0 f7 ff ff 	mov    %rax,-0x860(%rbp)
    c9bd:	48 c7 85 a8 f7 ff ff 	movq   $0x0,-0x858(%rbp)
    c9c4:	00 00 00 00 
    c9c8:	48 8d 85 20 e8 ff ff 	lea    -0x17e0(%rbp),%rax
    c9cf:	48 89 85 b0 f7 ff ff 	mov    %rax,-0x850(%rbp)
    c9d6:	48 8d 85 20 e8 ff ff 	lea    -0x17e0(%rbp),%rax
    c9dd:	48 89 85 b8 f7 ff ff 	mov    %rax,-0x848(%rbp)
    c9e4:	48 8d 85 20 e8 ff ff 	lea    -0x17e0(%rbp),%rax
    c9eb:	48 89 85 c0 f7 ff ff 	mov    %rax,-0x840(%rbp)
    c9f2:	48 c7 85 c8 f7 ff ff 	movq   $0x0,-0x838(%rbp)
    c9f9:	00 00 00 00 
    c9fd:	48 c7 85 d0 f7 ff ff 	movq   $0x0,-0x830(%rbp)
    ca04:	00 00 00 00 
    ca08:	48 8d 85 20 e8 ff ff 	lea    -0x17e0(%rbp),%rax
    ca0f:	48 89 85 d8 f7 ff ff 	mov    %rax,-0x828(%rbp)
    ca16:	48 8d 05 6f 5d 01 00 	lea    0x15d6f(%rip),%rax        # 2278c <g_2044>
    ca1d:	48 89 85 d0 e8 ff ff 	mov    %rax,-0x1730(%rbp)
    ca24:	c7 85 bc e7 ff ff 00 	movl   $0x0,-0x1844(%rbp)
    ca2b:	00 00 00 
    ca2e:	eb 1a                	jmp    ca4a <func_18+0xfc7>
    ca30:	8b 85 bc e7 ff ff    	mov    -0x1844(%rbp),%eax
    ca36:	48 98                	cltq   
    ca38:	c7 84 85 60 ea ff ff 	movl   $0x0,-0x15a0(%rbp,%rax,4)
    ca3f:	00 00 00 00 
    ca43:	83 85 bc e7 ff ff 01 	addl   $0x1,-0x1844(%rbp)
    ca4a:	83 bd bc e7 ff ff 05 	cmpl   $0x5,-0x1844(%rbp)
    ca51:	7e dd                	jle    ca30 <func_18+0xfad>
    ca53:	be 01 00 00 00       	mov    $0x1,%esi
    ca58:	bf 00 00 00 00       	mov    $0x0,%edi
    ca5d:	e8 2b e2 ff ff       	callq  ac8d <safe_rshift_func_uint8_t_u_s>
    ca62:	84 c0                	test   %al,%al
    ca64:	0f 84 08 0b 00 00    	je     d572 <func_18+0x1aef>
    ca6a:	c7 85 dc e7 ff ff 55 	movl   $0xb6953055,-0x1824(%rbp)
    ca71:	30 95 b6 
    ca74:	48 8d 05 75 5b 01 00 	lea    0x15b75(%rip),%rax        # 225f0 <g_1166>
    ca7b:	48 89 85 00 e9 ff ff 	mov    %rax,-0x1700(%rbp)
    ca82:	48 c7 85 40 e8 ff ff 	movq   $0x0,-0x17c0(%rbp)
    ca89:	00 00 00 00 
    ca8d:	48 8d 85 40 e8 ff ff 	lea    -0x17c0(%rbp),%rax
    ca94:	48 89 85 48 e8 ff ff 	mov    %rax,-0x17b8(%rbp)
    ca9b:	48 8d 85 48 e8 ff ff 	lea    -0x17b8(%rbp),%rax
    caa2:	48 89 85 08 e9 ff ff 	mov    %rax,-0x16f8(%rbp)
    caa9:	48 8d 05 78 84 01 00 	lea    0x18478(%rip),%rax        # 24f28 <g_207>
    cab0:	48 89 85 a0 ec ff ff 	mov    %rax,-0x1360(%rbp)
    cab7:	48 8d 05 d2 81 01 00 	lea    0x181d2(%rip),%rax        # 24c90 <g_205+0x470>
    cabe:	48 89 85 a8 ec ff ff 	mov    %rax,-0x1358(%rbp)
    cac5:	48 8d 05 c4 81 01 00 	lea    0x181c4(%rip),%rax        # 24c90 <g_205+0x470>
    cacc:	48 89 85 b0 ec ff ff 	mov    %rax,-0x1350(%rbp)
    cad3:	48 8d 05 4e 84 01 00 	lea    0x1844e(%rip),%rax        # 24f28 <g_207>
    cada:	48 89 85 b8 ec ff ff 	mov    %rax,-0x1348(%rbp)
    cae1:	48 8d 05 a8 81 01 00 	lea    0x181a8(%rip),%rax        # 24c90 <g_205+0x470>
    cae8:	48 89 85 c0 ec ff ff 	mov    %rax,-0x1340(%rbp)
    caef:	48 8d 05 9a 81 01 00 	lea    0x1819a(%rip),%rax        # 24c90 <g_205+0x470>
    caf6:	48 89 85 c8 ec ff ff 	mov    %rax,-0x1338(%rbp)
    cafd:	c7 85 e0 e7 ff ff 92 	movl   $0xf4e29d92,-0x1820(%rbp)
    cb04:	9d e2 f4 
    cb07:	c7 85 38 e8 ff ff 00 	movl   $0x0,-0x17c8(%rbp)
    cb0e:	00 00 00 
    cb11:	66 c7 05 28 5b 01 00 	movw   $0x0,0x15b28(%rip)        # 22642 <g_1365+0x12>
    cb18:	00 00 
    cb1a:	e9 c8 03 00 00       	jmpq   cee7 <func_18+0x1464>
    cb1f:	48 c7 85 50 e8 ff ff 	movq   $0x6,-0x17b0(%rbp)
    cb26:	06 00 00 00 
    cb2a:	c7 85 c0 e7 ff ff f6 	movl   $0xfffffff6,-0x1840(%rbp)
    cb31:	ff ff ff 
    cb34:	c7 85 c4 e7 ff ff 00 	movl   $0x0,-0x183c(%rbp)
    cb3b:	00 00 00 
    cb3e:	eb 19                	jmp    cb59 <func_18+0x10d6>
    cb40:	8b 85 c4 e7 ff ff    	mov    -0x183c(%rbp),%eax
    cb46:	48 98                	cltq   
    cb48:	66 c7 84 45 80 eb ff 	movw   $0x7d87,-0x1480(%rbp,%rax,2)
    cb4f:	ff 87 7d 
    cb52:	83 85 c4 e7 ff ff 01 	addl   $0x1,-0x183c(%rbp)
    cb59:	83 bd c4 e7 ff ff 03 	cmpl   $0x3,-0x183c(%rbp)
    cb60:	7e de                	jle    cb40 <func_18+0x10bd>
    cb62:	48 8b 05 27 99 01 00 	mov    0x19927(%rip),%rax        # 26490 <g_2235>
    cb69:	8b 95 dc e7 ff ff    	mov    -0x1824(%rbp),%edx
    cb6f:	89 10                	mov    %edx,(%rax)
    cb71:	c7 05 bd 5a 01 00 00 	movl   $0x0,0x15abd(%rip)        # 22638 <g_1365+0x8>
    cb78:	00 00 00 
    cb7b:	e9 48 03 00 00       	jmpq   cec8 <func_18+0x1445>
    cb80:	48 8d 85 e0 f7 ff ff 	lea    -0x820(%rbp),%rax
    cb87:	48 8d 15 32 5f 01 00 	lea    0x15f32(%rip),%rdx        # 22ac0 <g_2685+0x20>
    cb8e:	b9 fc 00 00 00       	mov    $0xfc,%ecx
    cb93:	48 89 c7             	mov    %rax,%rdi
    cb96:	48 89 d6             	mov    %rdx,%rsi
    cb99:	f3 48 a5             	rep movsq %ds:(%rsi),%es:(%rdi)
    cb9c:	48 c7 85 40 e9 ff ff 	movq   $0x0,-0x16c0(%rbp)
    cba3:	00 00 00 00 
    cba7:	48 8d 85 40 e8 ff ff 	lea    -0x17c0(%rbp),%rax
    cbae:	48 89 85 48 e9 ff ff 	mov    %rax,-0x16b8(%rbp)
    cbb5:	48 8d 05 64 59 01 00 	lea    0x15964(%rip),%rax        # 22520 <g_410>
    cbbc:	48 89 85 50 e9 ff ff 	mov    %rax,-0x16b0(%rbp)
    cbc3:	48 8d 05 c8 5e 01 00 	lea    0x15ec8(%rip),%rax        # 22a92 <g_2424+0x12>
    cbca:	48 89 85 58 e9 ff ff 	mov    %rax,-0x16a8(%rbp)
    cbd1:	48 8d 05 58 5a 01 00 	lea    0x15a58(%rip),%rax        # 22630 <g_1365>
    cbd8:	48 89 85 60 e9 ff ff 	mov    %rax,-0x16a0(%rbp)
    cbdf:	c7 85 c8 e7 ff ff 00 	movl   $0x0,-0x1838(%rbp)
    cbe6:	00 00 00 
    cbe9:	eb 1e                	jmp    cc09 <func_18+0x1186>
    cbeb:	8b 85 c8 e7 ff ff    	mov    -0x1838(%rbp),%eax
    cbf1:	48 98                	cltq   
    cbf3:	48 8d 15 ee 54 01 00 	lea    0x154ee(%rip),%rdx        # 220e8 <g_37>
    cbfa:	48 89 94 c5 20 eb ff 	mov    %rdx,-0x14e0(%rbp,%rax,8)
    cc01:	ff 
    cc02:	83 85 c8 e7 ff ff 01 	addl   $0x1,-0x1838(%rbp)
    cc09:	83 bd c8 e7 ff ff 00 	cmpl   $0x0,-0x1838(%rbp)
    cc10:	7e d9                	jle    cbeb <func_18+0x1168>
    cc12:	48 8d 05 d7 59 01 00 	lea    0x159d7(%rip),%rax        # 225f0 <g_1166>
    cc19:	48 89 85 00 e9 ff ff 	mov    %rax,-0x1700(%rbp)
    cc20:	48 8b 85 00 e9 ff ff 	mov    -0x1700(%rbp),%rax
    cc27:	48 89 85 20 eb ff ff 	mov    %rax,-0x14e0(%rbp)
    cc2e:	48 8b 85 50 e9 ff ff 	mov    -0x16b0(%rbp),%rax
    cc35:	8b 00                	mov    (%rax),%eax
    cc37:	8d 50 01             	lea    0x1(%rax),%edx
    cc3a:	48 8b 85 50 e9 ff ff 	mov    -0x16b0(%rbp),%rax
    cc41:	89 10                	mov    %edx,(%rax)
    cc43:	8b 85 90 e7 ff ff    	mov    -0x1870(%rbp),%eax
    cc49:	0f b6 d8             	movzbl %al,%ebx
    cc4c:	8b 85 9c e7 ff ff    	mov    -0x1864(%rbp),%eax
    cc52:	88 85 7b e7 ff ff    	mov    %al,-0x1885(%rbp)
    cc58:	8b 85 90 e7 ff ff    	mov    -0x1870(%rbp),%eax
    cc5e:	4c 63 e0             	movslq %eax,%r12
    cc61:	0f b7 85 7c e7 ff ff 	movzwl -0x1884(%rbp),%eax
    cc68:	44 0f b7 e8          	movzwl %ax,%r13d
    cc6c:	48 8b 05 25 7b 01 00 	mov    0x17b25(%rip),%rax        # 24798 <g_155>
    cc73:	48 c7 00 00 00 00 00 	movq   $0x0,(%rax)
    cc7a:	48 8b 00             	mov    (%rax),%rax
    cc7d:	48 39 85 a0 e8 ff ff 	cmp    %rax,-0x1760(%rbp)
    cc84:	0f 95 c0             	setne  %al
    cc87:	0f b6 c0             	movzbl %al,%eax
    cc8a:	be 06 00 00 00       	mov    $0x6,%esi
    cc8f:	89 c7                	mov    %eax,%edi
    cc91:	e8 f7 df ff ff       	callq  ac8d <safe_rshift_func_uint8_t_u_s>
    cc96:	44 0f b6 f0          	movzbl %al,%r14d
    cc9a:	48 8b 85 70 e7 ff ff 	mov    -0x1890(%rbp),%rax
    cca1:	49 89 c7             	mov    %rax,%r15
    cca4:	48 8b 95 70 e7 ff ff 	mov    -0x1890(%rbp),%rdx
    ccab:	0f b7 85 7c e7 ff ff 	movzwl -0x1884(%rbp),%eax
    ccb2:	0f b7 c0             	movzwl %ax,%eax
    ccb5:	48 39 c2             	cmp    %rax,%rdx
    ccb8:	0f 9f c0             	setg   %al
    ccbb:	0f b6 c0             	movzbl %al,%eax
    ccbe:	be 00 00 00 00       	mov    $0x0,%esi
    ccc3:	89 c7                	mov    %eax,%edi
    ccc5:	e8 2b d7 ff ff       	callq  a3f5 <safe_mul_func_int16_t_s_s>
    ccca:	48 0f bf c0          	movswq %ax,%rax
    ccce:	4c 89 fe             	mov    %r15,%rsi
    ccd1:	48 89 c7             	mov    %rax,%rdi
    ccd4:	e8 72 e3 ff ff       	callq  b04b <safe_sub_func_uint64_t_u_u>
    ccd9:	8b 95 dc e7 ff ff    	mov    -0x1824(%rbp),%edx
    ccdf:	48 63 d2             	movslq %edx,%rdx
    cce2:	48 39 d0             	cmp    %rdx,%rax
    cce5:	0f 94 c0             	sete   %al
    cce8:	0f b6 c0             	movzbl %al,%eax
    cceb:	44 09 f0             	or     %r14d,%eax
    ccee:	0f bf d0             	movswl %ax,%edx
    ccf1:	8b 85 90 e7 ff ff    	mov    -0x1870(%rbp),%eax
    ccf7:	98                   	cwtl   
    ccf8:	89 d6                	mov    %edx,%esi
    ccfa:	89 c7                	mov    %eax,%edi
    ccfc:	e8 f4 d6 ff ff       	callq  a3f5 <safe_mul_func_int16_t_s_s>
    cd01:	8b 85 dc e7 ff ff    	mov    -0x1824(%rbp),%eax
    cd07:	44 89 ee             	mov    %r13d,%esi
    cd0a:	89 c7                	mov    %eax,%edi
    cd0c:	e8 a5 d8 ff ff       	callq  a5b6 <safe_add_func_int32_t_s_s>
    cd11:	85 c0                	test   %eax,%eax
    cd13:	75 0c                	jne    cd21 <func_18+0x129e>
    cd15:	0f b7 85 7c e7 ff ff 	movzwl -0x1884(%rbp),%eax
    cd1c:	66 85 c0             	test   %ax,%ax
    cd1f:	74 07                	je     cd28 <func_18+0x12a5>
    cd21:	b8 01 00 00 00       	mov    $0x1,%eax
    cd26:	eb 05                	jmp    cd2d <func_18+0x12aa>
    cd28:	b8 00 00 00 00       	mov    $0x0,%eax
    cd2d:	48 98                	cltq   
    cd2f:	4c 89 e6             	mov    %r12,%rsi
    cd32:	48 89 c7             	mov    %rax,%rdi
    cd35:	e8 46 e3 ff ff       	callq  b080 <safe_mod_func_uint64_t_u_u>
    cd3a:	22 85 7b e7 ff ff    	and    -0x1885(%rbp),%al
    cd40:	0f b6 c0             	movzbl %al,%eax
    cd43:	89 de                	mov    %ebx,%esi
    cd45:	89 c7                	mov    %eax,%edi
    cd47:	e8 47 de ff ff       	callq  ab93 <safe_mul_func_uint8_t_u_u>
    cd4c:	0f b6 d0             	movzbl %al,%edx
    cd4f:	0f b7 85 80 eb ff ff 	movzwl -0x1480(%rbp),%eax
    cd56:	09 d0                	or     %edx,%eax
    cd58:	98                   	cwtl   
    cd59:	be 0f 00 00 00       	mov    $0xf,%esi
    cd5e:	89 c7                	mov    %eax,%edi
    cd60:	e8 c5 d7 ff ff       	callq  a52a <safe_rshift_func_int16_t_s_s>
    cd65:	48 8d 85 80 eb ff ff 	lea    -0x1480(%rbp),%rax
    cd6c:	48 83 c0 02          	add    $0x2,%rax
    cd70:	48 39 85 58 e9 ff ff 	cmp    %rax,-0x16a8(%rbp)
    cd77:	0f 95 c0             	setne  %al
    cd7a:	0f b6 f0             	movzbl %al,%esi
    cd7d:	8b 05 b5 58 01 00    	mov    0x158b5(%rip),%eax        # 22638 <g_1365+0x8>
    cd83:	8b 15 af 58 01 00    	mov    0x158af(%rip),%edx        # 22638 <g_1365+0x8>
    cd89:	8d 4a 01             	lea    0x1(%rdx),%ecx
    cd8c:	8b 15 a6 58 01 00    	mov    0x158a6(%rip),%edx        # 22638 <g_1365+0x8>
    cd92:	83 c2 08             	add    $0x8,%edx
    cd95:	48 63 fa             	movslq %edx,%rdi
    cd98:	48 98                	cltq   
    cd9a:	48 63 c9             	movslq %ecx,%rcx
    cd9d:	48 89 c2             	mov    %rax,%rdx
    cda0:	48 c1 e2 02          	shl    $0x2,%rdx
    cda4:	48 01 c2             	add    %rax,%rdx
    cda7:	48 8d 04 d5 00 00 00 	lea    0x0(,%rdx,8),%rax
    cdae:	00 
    cdaf:	48 89 c2             	mov    %rax,%rdx
    cdb2:	48 89 c8             	mov    %rcx,%rax
    cdb5:	48 c1 e0 02          	shl    $0x2,%rax
    cdb9:	48 01 c8             	add    %rcx,%rax
    cdbc:	48 01 c0             	add    %rax,%rax
    cdbf:	48 01 d0             	add    %rdx,%rax
    cdc2:	48 01 f8             	add    %rdi,%rax
    cdc5:	48 8d 14 85 00 00 00 	lea    0x0(,%rax,4),%rdx
    cdcc:	00 
    cdcd:	48 8d 05 6c 52 01 00 	lea    0x1526c(%rip),%rax        # 22040 <g_2>
    cdd4:	8b 04 02             	mov    (%rdx,%rax,1),%eax
    cdd7:	39 c6                	cmp    %eax,%esi
    cdd9:	0f 9c c0             	setl   %al
    cddc:	0f b6 c0             	movzbl %al,%eax
    cddf:	39 85 dc e7 ff ff    	cmp    %eax,-0x1824(%rbp)
    cde5:	0f 94 c0             	sete   %al
    cde8:	89 c2                	mov    %eax,%edx
    cdea:	48 8b 85 70 e7 ff ff 	mov    -0x1890(%rbp),%rax
    cdf1:	21 d0                	and    %edx,%eax
    cdf3:	0f b6 d0             	movzbl %al,%edx
    cdf6:	48 8b 8d 40 e8 ff ff 	mov    -0x17c0(%rbp),%rcx
    cdfd:	48 8b 85 48 e9 ff ff 	mov    -0x16b8(%rbp),%rax
    ce04:	48 89 08             	mov    %rcx,(%rax)
    ce07:	48 8b 85 48 e9 ff ff 	mov    -0x16b8(%rbp),%rax
    ce0e:	48 8b 08             	mov    (%rax),%rcx
    ce11:	48 8b 05 08 8d 01 00 	mov    0x18d08(%rip),%rax        # 25b20 <g_1051>
    ce18:	48 8b 00             	mov    (%rax),%rax
    ce1b:	48 39 c1             	cmp    %rax,%rcx
    ce1e:	0f 95 c0             	setne  %al
    ce21:	0f b6 c0             	movzbl %al,%eax
    ce24:	89 d6                	mov    %edx,%esi
    ce26:	89 c7                	mov    %eax,%edi
    ce28:	e8 81 dd ff ff       	callq  abae <safe_mod_func_uint8_t_u_u>
    ce2d:	84 c0                	test   %al,%al
    ce2f:	74 0c                	je     ce3d <func_18+0x13ba>
    ce31:	81 b5 c0 e7 ff ff f5 	xorl   $0xf14b44f5,-0x1840(%rbp)
    ce38:	44 4b f1 
    ce3b:	eb 13                	jmp    ce50 <func_18+0x13cd>
    ce3d:	0f b7 95 80 eb ff ff 	movzwl -0x1480(%rbp),%edx
    ce44:	48 8b 05 45 96 01 00 	mov    0x19645(%rip),%rax        # 26490 <g_2235>
    ce4b:	0f bf d2             	movswl %dx,%edx
    ce4e:	89 10                	mov    %edx,(%rax)
    ce50:	c7 05 32 5c 01 00 00 	movl   $0x0,0x15c32(%rip)        # 22a8c <g_2424+0xc>
    ce57:	00 00 00 
    ce5a:	eb 19                	jmp    ce75 <func_18+0x13f2>
    ce5c:	c7 85 c0 e7 ff ff 3e 	movl   $0x3ab5ac3e,-0x1840(%rbp)
    ce63:	ac b5 3a 
    ce66:	8b 05 20 5c 01 00    	mov    0x15c20(%rip),%eax        # 22a8c <g_2424+0xc>
    ce6c:	83 e8 01             	sub    $0x1,%eax
    ce6f:	89 05 17 5c 01 00    	mov    %eax,0x15c17(%rip)        # 22a8c <g_2424+0xc>
    ce75:	8b 05 11 5c 01 00    	mov    0x15c11(%rip),%eax        # 22a8c <g_2424+0xc>
    ce7b:	83 f8 e9             	cmp    $0xffffffe9,%eax
    ce7e:	7d dc                	jge    ce5c <func_18+0x13d9>
    ce80:	66 c7 05 b3 55 01 00 	movw   $0x0,0x155b3(%rip)        # 2243c <g_279>
    ce87:	00 00 
    ce89:	eb 22                	jmp    cead <func_18+0x142a>
    ce8b:	48 8b 05 4e 8d 01 00 	mov    0x18d4e(%rip),%rax        # 25be0 <g_1764>
    ce92:	48 8b 95 60 e9 ff ff 	mov    -0x16a0(%rbp),%rdx
    ce99:	48 89 10             	mov    %rdx,(%rax)
    ce9c:	0f b7 05 99 55 01 00 	movzwl 0x15599(%rip),%eax        # 2243c <g_279>
    cea3:	83 c0 01             	add    $0x1,%eax
    cea6:	66 89 05 8f 55 01 00 	mov    %ax,0x1558f(%rip)        # 2243c <g_279>
    cead:	0f b7 05 88 55 01 00 	movzwl 0x15588(%rip),%eax        # 2243c <g_279>
    ceb4:	66 85 c0             	test   %ax,%ax
    ceb7:	7e d2                	jle    ce8b <func_18+0x1408>
    ceb9:	8b 05 79 57 01 00    	mov    0x15779(%rip),%eax        # 22638 <g_1365+0x8>
    cebf:	83 e8 01             	sub    $0x1,%eax
    cec2:	89 05 70 57 01 00    	mov    %eax,0x15770(%rip)        # 22638 <g_1365+0x8>
    cec8:	8b 05 6a 57 01 00    	mov    0x1576a(%rip),%eax        # 22638 <g_1365+0x8>
    cece:	85 c0                	test   %eax,%eax
    ced0:	0f 89 aa fc ff ff    	jns    cb80 <func_18+0x10fd>
    ced6:	0f b7 05 65 57 01 00 	movzwl 0x15765(%rip),%eax        # 22642 <g_1365+0x12>
    cedd:	83 c0 01             	add    $0x1,%eax
    cee0:	66 89 05 5b 57 01 00 	mov    %ax,0x1575b(%rip)        # 22642 <g_1365+0x12>
    cee7:	0f b7 05 54 57 01 00 	movzwl 0x15754(%rip),%eax        # 22642 <g_1365+0x12>
    ceee:	66 85 c0             	test   %ax,%ax
    cef1:	0f 8e 28 fc ff ff    	jle    cb1f <func_18+0x109c>
    cef7:	66 c7 05 74 56 01 00 	movw   $0x0,0x15674(%rip)        # 22574 <g_428+0x4>
    cefe:	00 00 
    cf00:	e9 42 01 00 00       	jmpq   d047 <func_18+0x15c4>
    cf05:	c7 85 e4 e7 ff ff 9a 	movl   $0x217b619a,-0x181c(%rbp)
    cf0c:	61 7b 21 
    cf0f:	8b 9d dc e7 ff ff    	mov    -0x1824(%rbp),%ebx
    cf15:	0f b7 85 7c e7 ff ff 	movzwl -0x1884(%rbp),%eax
    cf1c:	0f b7 d0             	movzwl %ax,%edx
    cf1f:	48 8b 05 6a 8c 01 00 	mov    0x18c6a(%rip),%rax        # 25b90 <g_1441>
    cf26:	0f b6 00             	movzbl (%rax),%eax
    cf29:	0f be c0             	movsbl %al,%eax
    cf2c:	39 c2                	cmp    %eax,%edx
    cf2e:	0f 9d c0             	setge  %al
    cf31:	0f b6 d0             	movzbl %al,%edx
    cf34:	48 8b 05 75 8c 01 00 	mov    0x18c75(%rip),%rax        # 25bb0 <g_1687>
    cf3b:	48 8b 00             	mov    (%rax),%rax
    cf3e:	48 8b 00             	mov    (%rax),%rax
    cf41:	48 8b 00             	mov    (%rax),%rax
    cf44:	48 89 d6             	mov    %rdx,%rsi
    cf47:	48 89 c7             	mov    %rax,%rdi
    cf4a:	e8 59 d9 ff ff       	callq  a8a8 <safe_sub_func_int64_t_s_s>
    cf4f:	89 de                	mov    %ebx,%esi
    cf51:	bf 01 00 00 00       	mov    $0x1,%edi
    cf56:	e8 75 df ff ff       	callq  aed0 <safe_sub_func_uint32_t_u_u>
    cf5b:	48 8b 85 70 e7 ff ff 	mov    -0x1890(%rbp),%rax
    cf62:	48 83 f8 2c          	cmp    $0x2c,%rax
    cf66:	0f 9f c0             	setg   %al
    cf69:	0f b6 c0             	movzbl %al,%eax
    cf6c:	89 c7                	mov    %eax,%edi
    cf6e:	e8 33 df ff ff       	callq  aea6 <safe_unary_minus_func_uint32_t_u>
    cf73:	89 c0                	mov    %eax,%eax
    cf75:	83 e0 01             	and    $0x1,%eax
    cf78:	8b 15 92 9c 01 00    	mov    0x19c92(%rip),%edx        # 26c10 <g_2526+0x10>
    cf7e:	89 d2                	mov    %edx,%edx
    cf80:	48 39 d0             	cmp    %rdx,%rax
    cf83:	0f 96 c0             	setbe  %al
    cf86:	0f b6 c0             	movzbl %al,%eax
    cf89:	39 85 dc e7 ff ff    	cmp    %eax,-0x1824(%rbp)
    cf8f:	0f 9f c0             	setg   %al
    cf92:	0f b6 c0             	movzbl %al,%eax
    cf95:	be f1 79 00 00       	mov    $0x79f1,%esi
    cf9a:	89 c7                	mov    %eax,%edi
    cf9c:	e8 b4 d4 ff ff       	callq  a455 <safe_div_func_int16_t_s_s>
    cfa1:	48 83 bd 08 e9 ff ff 	cmpq   $0x0,-0x16f8(%rbp)
    cfa8:	00 
    cfa9:	74 07                	je     cfb2 <func_18+0x152f>
    cfab:	83 bd e4 e7 ff ff 00 	cmpl   $0x0,-0x181c(%rbp)
    cfb2:	48 8b 85 68 e8 ff ff 	mov    -0x1798(%rbp),%rax
    cfb9:	48 3b 85 a8 e8 ff ff 	cmp    -0x1758(%rbp),%rax
    cfc0:	0f 95 c0             	setne  %al
    cfc3:	0f b6 d0             	movzbl %al,%edx
    cfc6:	0f b7 05 a7 55 01 00 	movzwl 0x155a7(%rip),%eax        # 22574 <g_428+0x4>
    cfcd:	0f b7 c0             	movzwl %ax,%eax
    cfd0:	48 98                	cltq   
    cfd2:	48 8d 0c c5 00 00 00 	lea    0x0(,%rax,8),%rcx
    cfd9:	00 
    cfda:	48 8d 05 ef 57 01 00 	lea    0x157ef(%rip),%rax        # 227d0 <g_2222>
    cfe1:	48 8b 04 01          	mov    (%rcx,%rax,1),%rax
    cfe5:	89 c7                	mov    %eax,%edi
    cfe7:	8b 8d 6c ea ff ff    	mov    -0x1594(%rbp),%ecx
    cfed:	48 83 bd b0 e8 ff ff 	cmpq   $0x0,-0x1750(%rbp)
    cff4:	00 
    cff5:	0f 95 c0             	setne  %al
    cff8:	0f b6 f0             	movzbl %al,%esi
    cffb:	0f b7 85 7c e7 ff ff 	movzwl -0x1884(%rbp),%eax
    d002:	0f b7 c0             	movzwl %ax,%eax
    d005:	39 c6                	cmp    %eax,%esi
    d007:	0f 9f c0             	setg   %al
    d00a:	0f b6 f0             	movzbl %al,%esi
    d00d:	0f b7 85 7c e7 ff ff 	movzwl -0x1884(%rbp),%eax
    d014:	0f b7 c0             	movzwl %ax,%eax
    d017:	39 c6                	cmp    %eax,%esi
    d019:	0f 9c c0             	setl   %al
    d01c:	0f b6 c0             	movzbl %al,%eax
    d01f:	39 c1                	cmp    %eax,%ecx
    d021:	0f 95 c0             	setne  %al
    d024:	0f b6 c0             	movzbl %al,%eax
    d027:	89 f9                	mov    %edi,%ecx
    d029:	21 c1                	and    %eax,%ecx
    d02b:	48 8b 05 5e 94 01 00 	mov    0x1945e(%rip),%rax        # 26490 <g_2235>
    d032:	09 ca                	or     %ecx,%edx
    d034:	89 10                	mov    %edx,(%rax)
    d036:	0f b7 05 37 55 01 00 	movzwl 0x15537(%rip),%eax        # 22574 <g_428+0x4>
    d03d:	83 c0 01             	add    $0x1,%eax
    d040:	66 89 05 2d 55 01 00 	mov    %ax,0x1552d(%rip)        # 22574 <g_428+0x4>
    d047:	0f b7 05 26 55 01 00 	movzwl 0x15526(%rip),%eax        # 22574 <g_428+0x4>
    d04e:	66 83 f8 02          	cmp    $0x2,%ax
    d052:	0f 86 ad fe ff ff    	jbe    cf05 <func_18+0x1482>
    d058:	c7 05 ce 57 01 00 00 	movl   $0x0,0x157ce(%rip)        # 22830 <g_2306>
    d05f:	00 00 00 
    d062:	e9 f7 04 00 00       	jmpq   d55e <func_18+0x1adb>
    d067:	c6 85 89 e7 ff ff 00 	movb   $0x0,-0x1877(%rbp)
    d06e:	48 8d 05 d3 57 01 00 	lea    0x157d3(%rip),%rax        # 22848 <g_2306+0x18>
    d075:	48 89 85 10 e9 ff ff 	mov    %rax,-0x16f0(%rbp)
    d07c:	c7 85 50 e8 ff ff f1 	movl   $0x6cb8e8f1,-0x17b0(%rbp)
    d083:	e8 b8 6c 
    d086:	48 8b 85 70 e7 ff ff 	mov    -0x1890(%rbp),%rax
    d08d:	48 85 c0             	test   %rax,%rax
    d090:	0f 85 1b 01 00 00    	jne    d1b1 <func_18+0x172e>
    d096:	8b 85 dc e7 ff ff    	mov    -0x1824(%rbp),%eax
    d09c:	0f b6 c0             	movzbl %al,%eax
    d09f:	be 01 00 00 00       	mov    $0x1,%esi
    d0a4:	89 c7                	mov    %eax,%edi
    d0a6:	e8 a1 db ff ff       	callq  ac4c <safe_lshift_func_uint8_t_u_u>
    d0ab:	48 8b 85 a8 ec ff ff 	mov    -0x1358(%rbp),%rax
    d0b2:	48 85 c0             	test   %rax,%rax
    d0b5:	8b 85 dc e7 ff ff    	mov    -0x1824(%rbp),%eax
    d0bb:	0f b7 d8             	movzwl %ax,%ebx
    d0be:	48 8b 05 33 8b 01 00 	mov    0x18b33(%rip),%rax        # 25bf8 <g_1803>
    d0c5:	4c 8b 20             	mov    (%rax),%r12
    d0c8:	0f b7 85 7c e7 ff ff 	movzwl -0x1884(%rbp),%eax
    d0cf:	0f b7 d0             	movzwl %ax,%edx
    d0d2:	48 8b 05 b7 8a 01 00 	mov    0x18ab7(%rip),%rax        # 25b90 <g_1441>
    d0d9:	0f b6 00             	movzbl (%rax),%eax
    d0dc:	0f be c0             	movsbl %al,%eax
    d0df:	23 85 dc e7 ff ff    	and    -0x1824(%rbp),%eax
    d0e5:	3d 24 a2 00 00       	cmp    $0xa224,%eax
    d0ea:	0f 9f c0             	setg   %al
    d0ed:	0f b6 c0             	movzbl %al,%eax
    d0f0:	89 d6                	mov    %edx,%esi
    d0f2:	89 c7                	mov    %eax,%edi
    d0f4:	e8 d7 dd ff ff       	callq  aed0 <safe_sub_func_uint32_t_u_u>
    d0f9:	0f be 95 89 e7 ff ff 	movsbl -0x1877(%rbp),%edx
    d100:	39 d0                	cmp    %edx,%eax
    d102:	0f 97 c0             	seta   %al
    d105:	0f b6 c0             	movzbl %al,%eax
    d108:	49 39 c4             	cmp    %rax,%r12
    d10b:	0f 9e c0             	setle  %al
    d10e:	0f b6 d0             	movzbl %al,%edx
    d111:	0f b7 85 7c e7 ff ff 	movzwl -0x1884(%rbp),%eax
    d118:	0f b7 c0             	movzwl %ax,%eax
    d11b:	39 c2                	cmp    %eax,%edx
    d11d:	0f 9c c0             	setl   %al
    d120:	0f b6 c0             	movzbl %al,%eax
    d123:	89 85 e0 e7 ff ff    	mov    %eax,-0x1820(%rbp)
    d129:	8b 85 e0 e7 ff ff    	mov    -0x1820(%rbp),%eax
    d12f:	0f b7 c0             	movzwl %ax,%eax
    d132:	89 de                	mov    %ebx,%esi
    d134:	89 c7                	mov    %eax,%edi
    d136:	e8 c4 db ff ff       	callq  acff <safe_add_func_uint16_t_u_u>
    d13b:	66 3d ff 00          	cmp    $0xff,%ax
    d13f:	76 0f                	jbe    d150 <func_18+0x16cd>
    d141:	48 8b 05 e8 8a 01 00 	mov    0x18ae8(%rip),%rax        # 25c30 <g_1807>
    d148:	48 8b 00             	mov    (%rax),%rax
    d14b:	48 85 c0             	test   %rax,%rax
    d14e:	74 07                	je     d157 <func_18+0x16d4>
    d150:	b8 01 00 00 00       	mov    $0x1,%eax
    d155:	eb 05                	jmp    d15c <func_18+0x16d9>
    d157:	b8 00 00 00 00       	mov    $0x0,%eax
    d15c:	89 c2                	mov    %eax,%edx
    d15e:	48 8b 85 10 e9 ff ff 	mov    -0x16f0(%rbp),%rax
    d165:	89 10                	mov    %edx,(%rax)
    d167:	48 8b 85 10 e9 ff ff 	mov    -0x16f0(%rbp),%rax
    d16e:	8b 00                	mov    (%rax),%eax
    d170:	83 f8 07             	cmp    $0x7,%eax
    d173:	66 0f be 85 89 e7 ff 	movsbw -0x1877(%rbp),%ax
    d17a:	ff 
    d17b:	0f b7 c0             	movzwl %ax,%eax
    d17e:	89 c7                	mov    %eax,%edi
    d180:	e8 64 db ff ff       	callq  ace9 <safe_unary_minus_func_uint16_t_u>
    d185:	0f b7 c0             	movzwl %ax,%eax
    d188:	ba 56 57 ac 9b       	mov    $0x9bac5756,%edx
    d18d:	48 09 c2             	or     %rax,%rdx
    d190:	0f b7 85 7c e7 ff ff 	movzwl -0x1884(%rbp),%eax
    d197:	0f b7 c0             	movzwl %ax,%eax
    d19a:	48 39 c2             	cmp    %rax,%rdx
    d19d:	48 8b 05 84 89 01 00 	mov    0x18984(%rip),%rax        # 25b28 <g_1098>
    d1a4:	48 8b 05 e5 92 01 00 	mov    0x192e5(%rip),%rax        # 26490 <g_2235>
    d1ab:	8b 00                	mov    (%rax),%eax
    d1ad:	85 c0                	test   %eax,%eax
    d1af:	7e 07                	jle    d1b8 <func_18+0x1735>
    d1b1:	b8 01 00 00 00       	mov    $0x1,%eax
    d1b6:	eb 05                	jmp    d1bd <func_18+0x173a>
    d1b8:	b8 00 00 00 00       	mov    $0x0,%eax
    d1bd:	3d 63 89 83 39       	cmp    $0x39838963,%eax
    d1c2:	0f 9f c0             	setg   %al
    d1c5:	0f b6 c0             	movzbl %al,%eax
    d1c8:	be 03 00 00 00       	mov    $0x3,%esi
    d1cd:	89 c7                	mov    %eax,%edi
    d1cf:	e8 cd d0 ff ff       	callq  a2a1 <safe_lshift_func_int8_t_s_s>
    d1d4:	ba 01 00 00 00       	mov    $0x1,%edx
    d1d9:	8b 85 38 e8 ff ff    	mov    -0x17c8(%rbp),%eax
    d1df:	31 d0                	xor    %edx,%eax
    d1e1:	89 85 38 e8 ff ff    	mov    %eax,-0x17c8(%rbp)
    d1e7:	8b 95 38 e8 ff ff    	mov    -0x17c8(%rbp),%edx
    d1ed:	48 8b 85 70 e7 ff ff 	mov    -0x1890(%rbp),%rax
    d1f4:	0f b7 c0             	movzwl %ax,%eax
    d1f7:	89 d6                	mov    %edx,%esi
    d1f9:	89 c7                	mov    %eax,%edi
    d1fb:	e8 be db ff ff       	callq  adbe <safe_lshift_func_uint16_t_u_s>
    d200:	89 c2                	mov    %eax,%edx
    d202:	48 8b 05 8f 92 01 00 	mov    0x1928f(%rip),%rax        # 26498 <g_2402>
    d209:	48 8b 00             	mov    (%rax),%rax
    d20c:	83 e2 0f             	and    $0xf,%edx
    d20f:	88 10                	mov    %dl,(%rax)
    d211:	48 83 bd b8 e8 ff ff 	cmpq   $0x0,-0x1748(%rbp)
    d218:	00 
    d219:	74 13                	je     d22e <func_18+0x17ab>
    d21b:	48 8b 85 70 e7 ff ff 	mov    -0x1890(%rbp),%rax
    d222:	48 85 c0             	test   %rax,%rax
    d225:	74 07                	je     d22e <func_18+0x17ab>
    d227:	ba 01 00 00 00       	mov    $0x1,%edx
    d22c:	eb 05                	jmp    d233 <func_18+0x17b0>
    d22e:	ba 00 00 00 00       	mov    $0x0,%edx
    d233:	8b 85 50 e8 ff ff    	mov    -0x17b0(%rbp),%eax
    d239:	09 d0                	or     %edx,%eax
    d23b:	89 85 50 e8 ff ff    	mov    %eax,-0x17b0(%rbp)
    d241:	48 8b 85 70 e7 ff ff 	mov    -0x1890(%rbp),%rax
    d248:	48 85 c0             	test   %rax,%rax
    d24b:	74 15                	je     d262 <func_18+0x17df>
    d24d:	48 8b 85 70 e7 ff ff 	mov    -0x1890(%rbp),%rax
    d254:	48 85 c0             	test   %rax,%rax
    d257:	0f 84 e4 02 00 00    	je     d541 <func_18+0x1abe>
    d25d:	e9 4d 06 00 00       	jmpq   d8af <func_18+0x1e2c>
    d262:	48 c7 85 58 e8 ff ff 	movq   $0xffffffffffffffff,-0x17a8(%rbp)
    d269:	ff ff ff ff 
    d26d:	c7 05 b5 51 01 00 06 	movl   $0x6,0x151b5(%rip)        # 2242c <g_248+0xc>
    d274:	00 00 00 
    d277:	e9 b6 02 00 00       	jmpq   d532 <func_18+0x1aaf>
    d27c:	48 c7 85 18 e9 ff ff 	movq   $0x0,-0x16e8(%rbp)
    d283:	00 00 00 00 
    d287:	48 8d 05 b2 52 01 00 	lea    0x152b2(%rip),%rax        # 22540 <g_426>
    d28e:	48 89 85 20 e9 ff ff 	mov    %rax,-0x16e0(%rbp)
    d295:	48 8d 85 60 ea ff ff 	lea    -0x15a0(%rbp),%rax
    d29c:	48 89 85 28 e9 ff ff 	mov    %rax,-0x16d8(%rbp)
    d2a3:	48 c7 85 30 e9 ff ff 	movq   $0x0,-0x16d0(%rbp)
    d2aa:	00 00 00 00 
    d2ae:	48 8d 85 38 e8 ff ff 	lea    -0x17c8(%rbp),%rax
    d2b5:	48 89 85 38 e9 ff ff 	mov    %rax,-0x16c8(%rbp)
    d2bc:	48 8d 85 60 ea ff ff 	lea    -0x15a0(%rbp),%rax
    d2c3:	48 83 c0 10          	add    $0x10,%rax
    d2c7:	48 89 85 e0 f7 ff ff 	mov    %rax,-0x820(%rbp)
    d2ce:	48 8d 85 90 e7 ff ff 	lea    -0x1870(%rbp),%rax
    d2d5:	48 89 85 e8 f7 ff ff 	mov    %rax,-0x818(%rbp)
    d2dc:	48 8d 85 60 ea ff ff 	lea    -0x15a0(%rbp),%rax
    d2e3:	48 83 c0 10          	add    $0x10,%rax
    d2e7:	48 89 85 f0 f7 ff ff 	mov    %rax,-0x810(%rbp)
    d2ee:	48 8d 85 50 e8 ff ff 	lea    -0x17b0(%rbp),%rax
    d2f5:	48 89 85 f8 f7 ff ff 	mov    %rax,-0x808(%rbp)
    d2fc:	48 8d 85 38 e8 ff ff 	lea    -0x17c8(%rbp),%rax
    d303:	48 89 85 00 f8 ff ff 	mov    %rax,-0x800(%rbp)
    d30a:	48 8d 85 38 e8 ff ff 	lea    -0x17c8(%rbp),%rax
    d311:	48 89 85 08 f8 ff ff 	mov    %rax,-0x7f8(%rbp)
    d318:	48 8d 85 60 ea ff ff 	lea    -0x15a0(%rbp),%rax
    d31f:	48 83 c0 04          	add    $0x4,%rax
    d323:	48 89 85 10 f8 ff ff 	mov    %rax,-0x7f0(%rbp)
    d32a:	48 c7 85 18 f8 ff ff 	movq   $0x0,-0x7e8(%rbp)
    d331:	00 00 00 00 
    d335:	48 c7 85 20 f8 ff ff 	movq   $0x0,-0x7e0(%rbp)
    d33c:	00 00 00 00 
    d340:	48 8d 85 38 e8 ff ff 	lea    -0x17c8(%rbp),%rax
    d347:	48 89 85 28 f8 ff ff 	mov    %rax,-0x7d8(%rbp)
    d34e:	48 8d 05 ff 4d 01 00 	lea    0x14dff(%rip),%rax        # 22154 <g_65>
    d355:	48 89 85 30 f8 ff ff 	mov    %rax,-0x7d0(%rbp)
    d35c:	48 8d 05 f1 4d 01 00 	lea    0x14df1(%rip),%rax        # 22154 <g_65>
    d363:	48 89 85 38 f8 ff ff 	mov    %rax,-0x7c8(%rbp)
    d36a:	48 8d 05 e3 4d 01 00 	lea    0x14de3(%rip),%rax        # 22154 <g_65>
    d371:	48 89 85 40 f8 ff ff 	mov    %rax,-0x7c0(%rbp)
    d378:	48 8d 05 d5 4d 01 00 	lea    0x14dd5(%rip),%rax        # 22154 <g_65>
    d37f:	48 89 85 48 f8 ff ff 	mov    %rax,-0x7b8(%rbp)
    d386:	48 8d 85 60 ea ff ff 	lea    -0x15a0(%rbp),%rax
    d38d:	48 83 c0 10          	add    $0x10,%rax
    d391:	48 89 85 50 f8 ff ff 	mov    %rax,-0x7b0(%rbp)
    d398:	48 c7 85 58 f8 ff ff 	movq   $0x0,-0x7a8(%rbp)
    d39f:	00 00 00 00 
    d3a3:	48 8d 05 aa 4d 01 00 	lea    0x14daa(%rip),%rax        # 22154 <g_65>
    d3aa:	48 89 85 60 f8 ff ff 	mov    %rax,-0x7a0(%rbp)
    d3b1:	48 c7 85 68 f8 ff ff 	movq   $0x0,-0x798(%rbp)
    d3b8:	00 00 00 00 
    d3bc:	48 8d 85 38 e8 ff ff 	lea    -0x17c8(%rbp),%rax
    d3c3:	48 89 85 70 f8 ff ff 	mov    %rax,-0x790(%rbp)
    d3ca:	48 8d 85 60 ea ff ff 	lea    -0x15a0(%rbp),%rax
    d3d1:	48 83 c0 04          	add    $0x4,%rax
    d3d5:	48 89 85 78 f8 ff ff 	mov    %rax,-0x788(%rbp)
    d3dc:	48 c7 85 80 f8 ff ff 	movq   $0x0,-0x780(%rbp)
    d3e3:	00 00 00 00 
    d3e7:	48 c7 85 88 f8 ff ff 	movq   $0x0,-0x778(%rbp)
    d3ee:	00 00 00 00 
    d3f2:	48 8d 85 60 ea ff ff 	lea    -0x15a0(%rbp),%rax
    d3f9:	48 83 c0 10          	add    $0x10,%rax
    d3fd:	48 89 85 90 f8 ff ff 	mov    %rax,-0x770(%rbp)
    d404:	48 c7 85 98 f8 ff ff 	movq   $0x0,-0x768(%rbp)
    d40b:	00 00 00 00 
    d40f:	48 c7 85 a0 f8 ff ff 	movq   $0x0,-0x760(%rbp)
    d416:	00 00 00 00 
    d41a:	48 8d 05 33 4d 01 00 	lea    0x14d33(%rip),%rax        # 22154 <g_65>
    d421:	48 89 85 a8 f8 ff ff 	mov    %rax,-0x758(%rbp)
    d428:	48 c7 85 b0 f8 ff ff 	movq   $0x0,-0x750(%rbp)
    d42f:	00 00 00 00 
    d433:	48 8d 85 38 e8 ff ff 	lea    -0x17c8(%rbp),%rax
    d43a:	48 89 85 b8 f8 ff ff 	mov    %rax,-0x748(%rbp)
    d441:	48 8d 85 38 e8 ff ff 	lea    -0x17c8(%rbp),%rax
    d448:	48 89 85 c0 f8 ff ff 	mov    %rax,-0x740(%rbp)
    d44f:	48 8d 05 fe 4c 01 00 	lea    0x14cfe(%rip),%rax        # 22154 <g_65>
    d456:	48 89 85 c8 f8 ff ff 	mov    %rax,-0x738(%rbp)
    d45d:	48 8d 85 38 e8 ff ff 	lea    -0x17c8(%rbp),%rax
    d464:	48 89 85 d0 f8 ff ff 	mov    %rax,-0x730(%rbp)
    d46b:	48 c7 85 d8 f8 ff ff 	movq   $0x0,-0x728(%rbp)
    d472:	00 00 00 00 
    d476:	48 8d 05 d7 4c 01 00 	lea    0x14cd7(%rip),%rax        # 22154 <g_65>
    d47d:	48 89 85 e0 f8 ff ff 	mov    %rax,-0x720(%rbp)
    d484:	48 8d 05 c9 4c 01 00 	lea    0x14cc9(%rip),%rax        # 22154 <g_65>
    d48b:	48 89 85 e8 f8 ff ff 	mov    %rax,-0x718(%rbp)
    d492:	48 c7 85 f0 f8 ff ff 	movq   $0x0,-0x710(%rbp)
    d499:	00 00 00 00 
    d49d:	48 8d 85 60 ea ff ff 	lea    -0x15a0(%rbp),%rax
    d4a4:	48 83 c0 10          	add    $0x10,%rax
    d4a8:	48 89 85 f8 f8 ff ff 	mov    %rax,-0x708(%rbp)
    d4af:	48 c7 85 00 f9 ff ff 	movq   $0x0,-0x700(%rbp)
    d4b6:	00 00 00 00 
    d4ba:	48 c7 85 08 f9 ff ff 	movq   $0x0,-0x6f8(%rbp)
    d4c1:	00 00 00 00 
    d4c5:	48 c7 85 10 f9 ff ff 	movq   $0x0,-0x6f0(%rbp)
    d4cc:	00 00 00 00 
    d4d0:	48 8d 05 7d 4c 01 00 	lea    0x14c7d(%rip),%rax        # 22154 <g_65>
    d4d7:	48 89 85 18 f9 ff ff 	mov    %rax,-0x6e8(%rbp)
    d4de:	48 c7 85 20 f9 ff ff 	movq   $0x0,-0x6e0(%rbp)
    d4e5:	00 00 00 00 
    d4e9:	48 8d 05 64 4c 01 00 	lea    0x14c64(%rip),%rax        # 22154 <g_65>
    d4f0:	48 89 85 28 f9 ff ff 	mov    %rax,-0x6d8(%rbp)
    d4f7:	48 c7 85 30 f9 ff ff 	movq   $0x0,-0x6d0(%rbp)
    d4fe:	00 00 00 00 
    d502:	48 8d 85 50 e8 ff ff 	lea    -0x17b0(%rbp),%rax
    d509:	48 89 85 38 f9 ff ff 	mov    %rax,-0x6c8(%rbp)
    d510:	48 c7 85 40 f9 ff ff 	movq   $0x0,-0x6c0(%rbp)
    d517:	00 00 00 00 
    d51b:	48 83 85 58 e8 ff ff 	addq   $0x1,-0x17a8(%rbp)
    d522:	01 
    d523:	8b 05 03 4f 01 00    	mov    0x14f03(%rip),%eax        # 2242c <g_248+0xc>
    d529:	83 e8 01             	sub    $0x1,%eax
    d52c:	89 05 fa 4e 01 00    	mov    %eax,0x14efa(%rip)        # 2242c <g_248+0xc>
    d532:	8b 05 f4 4e 01 00    	mov    0x14ef4(%rip),%eax        # 2242c <g_248+0xc>
    d538:	83 f8 01             	cmp    $0x1,%eax
    d53b:	0f 8f 3b fd ff ff    	jg     d27c <func_18+0x17f9>
    d541:	8b 85 50 e8 ff ff    	mov    -0x17b0(%rbp),%eax
    d547:	85 c0                	test   %eax,%eax
    d549:	0f 85 5f 03 00 00    	jne    d8ae <func_18+0x1e2b>
    d54f:	8b 05 db 52 01 00    	mov    0x152db(%rip),%eax        # 22830 <g_2306>
    d555:	83 e8 01             	sub    $0x1,%eax
    d558:	89 05 d2 52 01 00    	mov    %eax,0x152d2(%rip)        # 22830 <g_2306>
    d55e:	8b 05 cc 52 01 00    	mov    0x152cc(%rip),%eax        # 22830 <g_2306>
    d564:	83 f8 f1             	cmp    $0xfffffff1,%eax
    d567:	0f 85 fa fa ff ff    	jne    d067 <func_18+0x15e4>
    d56d:	e9 3d 03 00 00       	jmpq   d8af <func_18+0x1e2c>
    d572:	c7 85 e0 f7 ff ff 00 	movl   $0x0,-0x820(%rbp)
    d579:	00 00 00 
    d57c:	c7 85 e4 f7 ff ff 02 	movl   $0x2,-0x81c(%rbp)
    d583:	00 00 00 
    d586:	c7 85 e8 f7 ff ff ff 	movl   $0xffffffff,-0x818(%rbp)
    d58d:	ff ff ff 
    d590:	c7 85 ec f7 ff ff df 	movl   $0xd32daadf,-0x814(%rbp)
    d597:	aa 2d d3 
    d59a:	c7 85 f0 f7 ff ff fd 	movl   $0xfffffffd,-0x810(%rbp)
    d5a1:	ff ff ff 
    d5a4:	c7 85 f4 f7 ff ff df 	movl   $0xd32daadf,-0x80c(%rbp)
    d5ab:	aa 2d d3 
    d5ae:	c7 85 f8 f7 ff ff ff 	movl   $0xffffffff,-0x808(%rbp)
    d5b5:	ff ff ff 
    d5b8:	c7 85 fc f7 ff ff 78 	movl   $0x518a3878,-0x804(%rbp)
    d5bf:	38 8a 51 
    d5c2:	c7 85 00 f8 ff ff 78 	movl   $0x518a3878,-0x800(%rbp)
    d5c9:	38 8a 51 
    d5cc:	c7 85 04 f8 ff ff 09 	movl   $0x9,-0x7fc(%rbp)
    d5d3:	00 00 00 
    d5d6:	c7 85 08 f8 ff ff f9 	movl   $0xfffffff9,-0x7f8(%rbp)
    d5dd:	ff ff ff 
    d5e0:	c7 85 0c f8 ff ff 59 	movl   $0xd72c1a59,-0x7f4(%rbp)
    d5e7:	1a 2c d7 
    d5ea:	c7 85 10 f8 ff ff ff 	movl   $0xffffffff,-0x7f0(%rbp)
    d5f1:	ff ff ff 
    d5f4:	c7 85 14 f8 ff ff f9 	movl   $0xfffffff9,-0x7ec(%rbp)
    d5fb:	ff ff ff 
    d5fe:	c7 85 18 f8 ff ff 00 	movl   $0x0,-0x7e8(%rbp)
    d605:	00 00 00 
    d608:	c7 85 1c f8 ff ff a2 	movl   $0x64a34ca2,-0x7e4(%rbp)
    d60f:	4c a3 64 
    d612:	c7 85 20 f8 ff ff 2b 	movl   $0xd9e80b2b,-0x7e0(%rbp)
    d619:	0b e8 d9 
    d61c:	c7 85 24 f8 ff ff ff 	movl   $0xffffffff,-0x7dc(%rbp)
    d623:	ff ff ff 
    d626:	c7 85 28 f8 ff ff ff 	movl   $0xffffffff,-0x7d8(%rbp)
    d62d:	ff ff ff 
    d630:	c7 85 2c f8 ff ff 2b 	movl   $0xd9e80b2b,-0x7d4(%rbp)
    d637:	0b e8 d9 
    d63a:	c7 85 30 f8 ff ff a2 	movl   $0x64a34ca2,-0x7d0(%rbp)
    d641:	4c a3 64 
    d644:	c7 85 34 f8 ff ff ff 	movl   $0xffffffff,-0x7cc(%rbp)
    d64b:	ff ff ff 
    d64e:	c7 85 38 f8 ff ff 00 	movl   $0x0,-0x7c8(%rbp)
    d655:	00 00 00 
    d658:	c7 85 3c f8 ff ff 78 	movl   $0x518a3878,-0x7c4(%rbp)
    d65f:	38 8a 51 
    d662:	c7 85 40 f8 ff ff 01 	movl   $0x1,-0x7c0(%rbp)
    d669:	00 00 00 
    d66c:	c7 85 44 f8 ff ff 59 	movl   $0xd72c1a59,-0x7bc(%rbp)
    d673:	1a 2c d7 
    d676:	c7 85 48 f8 ff ff 00 	movl   $0x0,-0x7b8(%rbp)
    d67d:	00 00 00 
    d680:	c7 85 4c f8 ff ff 00 	movl   $0x0,-0x7b4(%rbp)
    d687:	00 00 00 
    d68a:	c7 85 50 f8 ff ff ff 	movl   $0xffffffff,-0x7b0(%rbp)
    d691:	ff ff ff 
    d694:	c7 85 54 f8 ff ff 00 	movl   $0x0,-0x7ac(%rbp)
    d69b:	00 00 00 
    d69e:	c7 85 58 f8 ff ff 01 	movl   $0x1,-0x7a8(%rbp)
    d6a5:	00 00 00 
    d6a8:	c7 85 5c f8 ff ff df 	movl   $0xd32daadf,-0x7a4(%rbp)
    d6af:	aa 2d d3 
    d6b2:	c7 85 60 f8 ff ff 01 	movl   $0x1,-0x7a0(%rbp)
    d6b9:	00 00 00 
    d6bc:	c7 85 64 f8 ff ff 00 	movl   $0x0,-0x79c(%rbp)
    d6c3:	00 00 00 
    d6c6:	c7 85 68 f8 ff ff ff 	movl   $0xffffffff,-0x798(%rbp)
    d6cd:	ff ff ff 
    d6d0:	c7 85 6c f8 ff ff 00 	movl   $0x0,-0x794(%rbp)
    d6d7:	00 00 00 
    d6da:	c7 85 70 f8 ff ff 00 	movl   $0x0,-0x790(%rbp)
    d6e1:	00 00 00 
    d6e4:	c7 85 74 f8 ff ff 5a 	movl   $0xe037f85a,-0x78c(%rbp)
    d6eb:	f8 37 e0 
    d6ee:	c7 85 78 f8 ff ff ff 	movl   $0xffffffff,-0x788(%rbp)
    d6f5:	ff ff ff 
    d6f8:	c7 85 7c f8 ff ff 09 	movl   $0x9,-0x784(%rbp)
    d6ff:	00 00 00 
    d702:	c7 85 80 f8 ff ff 59 	movl   $0xd72c1a59,-0x780(%rbp)
    d709:	1a 2c d7 
    d70c:	c7 85 84 f8 ff ff ff 	movl   $0xffffffff,-0x77c(%rbp)
    d713:	ff ff ff 
    d716:	c7 85 88 f8 ff ff df 	movl   $0xd32daadf,-0x778(%rbp)
    d71d:	aa 2d d3 
    d720:	c7 85 8c f8 ff ff ff 	movl   $0xffffffff,-0x774(%rbp)
    d727:	ff ff ff 
    d72a:	c7 85 90 f8 ff ff 2b 	movl   $0xd9e80b2b,-0x770(%rbp)
    d731:	0b e8 d9 
    d734:	c7 85 94 f8 ff ff 2b 	movl   $0xd9e80b2b,-0x76c(%rbp)
    d73b:	0b e8 d9 
    d73e:	c7 85 98 f8 ff ff ff 	movl   $0xffffffff,-0x768(%rbp)
    d745:	ff ff ff 
    d748:	c7 85 9c f8 ff ff df 	movl   $0xd32daadf,-0x764(%rbp)
    d74f:	aa 2d d3 
    d752:	c7 85 a0 f8 ff ff fa 	movl   $0xfffffffa,-0x760(%rbp)
    d759:	ff ff ff 
    d75c:	c7 85 a4 f8 ff ff f9 	movl   $0xfffffff9,-0x75c(%rbp)
    d763:	ff ff ff 
    d766:	c7 85 a8 f8 ff ff ff 	movl   $0xffffffff,-0x758(%rbp)
    d76d:	ff ff ff 
    d770:	c7 85 ac f8 ff ff 5a 	movl   $0xe037f85a,-0x754(%rbp)
    d777:	f8 37 e0 
    d77a:	c7 85 b0 f8 ff ff 00 	movl   $0x0,-0x750(%rbp)
    d781:	00 00 00 
    d784:	c7 85 b4 f8 ff ff f9 	movl   $0xfffffff9,-0x74c(%rbp)
    d78b:	ff ff ff 
    d78e:	c7 85 b8 f8 ff ff 09 	movl   $0x9,-0x748(%rbp)
    d795:	00 00 00 
    d798:	c7 85 bc f8 ff ff 09 	movl   $0x9,-0x744(%rbp)
    d79f:	00 00 00 
    d7a2:	48 8d 05 f7 93 01 00 	lea    0x193f7(%rip),%rax        # 26ba0 <g_1129>
    d7a9:	48 89 85 d8 e8 ff ff 	mov    %rax,-0x1728(%rbp)
    d7b0:	48 8d 85 60 ea ff ff 	lea    -0x15a0(%rbp),%rax
    d7b7:	48 83 c0 14          	add    $0x14,%rax
    d7bb:	48 89 85 e0 e8 ff ff 	mov    %rax,-0x1720(%rbp)
    d7c2:	48 8d 05 17 49 01 00 	lea    0x14917(%rip),%rax        # 220e0 <g_6>
    d7c9:	48 89 85 e8 e8 ff ff 	mov    %rax,-0x1718(%rbp)
    d7d0:	48 c7 85 f0 e8 ff ff 	movq   $0x0,-0x1710(%rbp)
    d7d7:	00 00 00 00 
    d7db:	48 8d 85 60 ea ff ff 	lea    -0x15a0(%rbp),%rax
    d7e2:	48 83 c0 04          	add    $0x4,%rax
    d7e6:	48 89 85 f8 e8 ff ff 	mov    %rax,-0x1708(%rbp)
    d7ed:	48 8d 05 ac 93 01 00 	lea    0x193ac(%rip),%rax        # 26ba0 <g_1129>
    d7f4:	48 89 85 a0 ec ff ff 	mov    %rax,-0x1360(%rbp)
    d7fb:	48 8d 05 9e 93 01 00 	lea    0x1939e(%rip),%rax        # 26ba0 <g_1129>
    d802:	48 89 85 a8 ec ff ff 	mov    %rax,-0x1358(%rbp)
    d809:	48 8d 05 d0 48 01 00 	lea    0x148d0(%rip),%rax        # 220e0 <g_6>
    d810:	48 89 85 b0 ec ff ff 	mov    %rax,-0x1350(%rbp)
    d817:	48 8d 05 82 93 01 00 	lea    0x19382(%rip),%rax        # 26ba0 <g_1129>
    d81e:	48 89 85 b8 ec ff ff 	mov    %rax,-0x1348(%rbp)
    d825:	48 8d 05 74 93 01 00 	lea    0x19374(%rip),%rax        # 26ba0 <g_1129>
    d82c:	48 89 85 c0 ec ff ff 	mov    %rax,-0x1340(%rbp)
    d833:	48 8d 05 a6 48 01 00 	lea    0x148a6(%rip),%rax        # 220e0 <g_6>
    d83a:	48 89 85 c8 ec ff ff 	mov    %rax,-0x1338(%rbp)
    d841:	48 8d 05 58 93 01 00 	lea    0x19358(%rip),%rax        # 26ba0 <g_1129>
    d848:	48 89 85 d0 ec ff ff 	mov    %rax,-0x1330(%rbp)
    d84f:	48 8d 05 4a 93 01 00 	lea    0x1934a(%rip),%rax        # 26ba0 <g_1129>
    d856:	48 89 85 d8 ec ff ff 	mov    %rax,-0x1328(%rbp)
    d85d:	48 8d 05 7c 48 01 00 	lea    0x1487c(%rip),%rax        # 220e0 <g_6>
    d864:	48 89 85 e0 ec ff ff 	mov    %rax,-0x1320(%rbp)
    d86b:	48 8d 05 2e 93 01 00 	lea    0x1932e(%rip),%rax        # 26ba0 <g_1129>
    d872:	48 89 85 e8 ec ff ff 	mov    %rax,-0x1318(%rbp)
    d879:	48 8b 05 f0 82 01 00 	mov    0x182f0(%rip),%rax        # 25b70 <g_1164>
    d880:	8b 00                	mov    (%rax),%eax
    d882:	85 c0                	test   %eax,%eax
    d884:	0f 85 db 33 00 00    	jne    10c65 <func_18+0x51e2>
    d88a:	83 85 d8 e7 ff ff 01 	addl   $0x1,-0x1828(%rbp)
    d891:	48 8b 85 e0 e8 ff ff 	mov    -0x1720(%rbp),%rax
    d898:	8b 00                	mov    (%rax),%eax
    d89a:	48 8b 95 70 e7 ff ff 	mov    -0x1890(%rbp),%rdx
    d8a1:	21 c2                	and    %eax,%edx
    d8a3:	48 8b 85 e0 e8 ff ff 	mov    -0x1720(%rbp),%rax
    d8aa:	89 10                	mov    %edx,(%rax)
    d8ac:	eb 01                	jmp    d8af <func_18+0x1e2c>
    d8ae:	90                   	nop
    d8af:	66 c7 05 cc 51 01 00 	movw   $0x0,0x151cc(%rip)        # 22a84 <g_2424+0x4>
    d8b6:	00 00 
    d8b8:	e9 69 33 00 00       	jmpq   10c26 <func_18+0x51a3>
    d8bd:	48 8d 05 2c 4d 01 00 	lea    0x14d2c(%rip),%rax        # 225f0 <g_1166>
    d8c4:	48 89 85 68 e9 ff ff 	mov    %rax,-0x1698(%rbp)
    d8cb:	c7 85 a0 e7 ff ff 34 	movl   $0x39c3f834,-0x1860(%rbp)
    d8d2:	f8 c3 39 
    d8d5:	c7 85 f0 ea ff ff 09 	movl   $0x9,-0x1510(%rbp)
    d8dc:	00 00 00 
    d8df:	c7 85 f4 ea ff ff 09 	movl   $0x9,-0x150c(%rbp)
    d8e6:	00 00 00 
    d8e9:	c7 85 f8 ea ff ff 09 	movl   $0x9,-0x1508(%rbp)
    d8f0:	00 00 00 
    d8f3:	c7 85 fc ea ff ff 09 	movl   $0x9,-0x1504(%rbp)
    d8fa:	00 00 00 
    d8fd:	c7 85 00 eb ff ff 09 	movl   $0x9,-0x1500(%rbp)
    d904:	00 00 00 
    d907:	c7 85 04 eb ff ff 09 	movl   $0x9,-0x14fc(%rbp)
    d90e:	00 00 00 
    d911:	c7 85 08 eb ff ff 09 	movl   $0x9,-0x14f8(%rbp)
    d918:	00 00 00 
    d91b:	c7 85 0c eb ff ff 09 	movl   $0x9,-0x14f4(%rbp)
    d922:	00 00 00 
    d925:	c7 85 10 eb ff ff 09 	movl   $0x9,-0x14f0(%rbp)
    d92c:	00 00 00 
    d92f:	c7 85 14 eb ff ff 09 	movl   $0x9,-0x14ec(%rbp)
    d936:	00 00 00 
    d939:	c7 85 18 eb ff ff 09 	movl   $0x9,-0x14e8(%rbp)
    d940:	00 00 00 
    d943:	c7 85 1c eb ff ff 09 	movl   $0x9,-0x14e4(%rbp)
    d94a:	00 00 00 
    d94d:	48 8d 05 3c fd 00 00 	lea    0xfd3c(%rip),%rax        # 1d690 <g_2600>
    d954:	48 89 85 28 e8 ff ff 	mov    %rax,-0x17d8(%rbp)
    d95b:	48 8d 85 28 e8 ff ff 	lea    -0x17d8(%rbp),%rax
    d962:	48 89 85 30 e8 ff ff 	mov    %rax,-0x17d0(%rbp)
    d969:	48 8d 85 30 e8 ff ff 	lea    -0x17d0(%rbp),%rax
    d970:	48 89 85 38 e8 ff ff 	mov    %rax,-0x17c8(%rbp)
    d977:	48 c7 85 70 e9 ff ff 	movq   $0x0,-0x1690(%rbp)
    d97e:	00 00 00 00 
    d982:	48 8d 85 80 ea ff ff 	lea    -0x1580(%rbp),%rax
    d989:	48 83 c0 0c          	add    $0xc,%rax
    d98d:	48 89 85 78 e9 ff ff 	mov    %rax,-0x1688(%rbp)
    d994:	48 8d 05 0d 6e 01 00 	lea    0x16e0d(%rip),%rax        # 247a8 <g_175>
    d99b:	48 89 85 40 e8 ff ff 	mov    %rax,-0x17c0(%rbp)
    d9a2:	48 8d 85 40 e8 ff ff 	lea    -0x17c0(%rbp),%rax
    d9a9:	48 89 85 48 e8 ff ff 	mov    %rax,-0x17b8(%rbp)
    d9b0:	48 8d 85 48 e8 ff ff 	lea    -0x17b8(%rbp),%rax
    d9b7:	48 89 85 80 e9 ff ff 	mov    %rax,-0x1680(%rbp)
    d9be:	48 8b 05 c3 81 01 00 	mov    0x181c3(%rip),%rax        # 25b88 <g_1348>
    d9c5:	48 8b 95 68 e9 ff ff 	mov    -0x1698(%rbp),%rdx
    d9cc:	48 89 10             	mov    %rdx,(%rax)
    d9cf:	66 c7 05 5c 4c 01 00 	movw   $0x0,0x14c5c(%rip)        # 22634 <g_1365+0x4>
    d9d6:	00 00 
    d9d8:	e9 1b 32 00 00       	jmpq   10bf8 <func_18+0x5175>
    d9dd:	66 c7 85 8c e7 ff ff 	movw   $0x9119,-0x1874(%rbp)
    d9e4:	19 91 
    d9e6:	c7 85 a4 e7 ff ff 01 	movl   $0x1,-0x185c(%rbp)
    d9ed:	00 00 00 
    d9f0:	c7 85 a8 e7 ff ff ad 	movl   $0x1de824ad,-0x1858(%rbp)
    d9f7:	24 e8 1d 
    d9fa:	c7 85 e8 e7 ff ff 04 	movl   $0x4,-0x1818(%rbp)
    da01:	00 00 00 
    da04:	c7 85 20 eb ff ff b9 	movl   $0xc29953b9,-0x14e0(%rbp)
    da0b:	53 99 c2 
    da0e:	c7 85 24 eb ff ff bb 	movl   $0x28fa84bb,-0x14dc(%rbp)
    da15:	84 fa 28 
    da18:	c7 85 28 eb ff ff b9 	movl   $0xc29953b9,-0x14d8(%rbp)
    da1f:	53 99 c2 
    da22:	c7 85 2c eb ff ff 00 	movl   $0x0,-0x14d4(%rbp)
    da29:	00 00 00 
    da2c:	c7 85 30 eb ff ff 00 	movl   $0x0,-0x14d0(%rbp)
    da33:	00 00 00 
    da36:	c7 85 34 eb ff ff 08 	movl   $0x8,-0x14cc(%rbp)
    da3d:	00 00 00 
    da40:	c7 85 38 eb ff ff 1c 	movl   $0xbd7f6e1c,-0x14c8(%rbp)
    da47:	6e 7f bd 
    da4a:	c7 85 3c eb ff ff bb 	movl   $0x28fa84bb,-0x14c4(%rbp)
    da51:	84 fa 28 
    da54:	c7 85 40 eb ff ff 1c 	movl   $0xbd7f6e1c,-0x14c0(%rbp)
    da5b:	6e 7f bd 
    da5e:	c7 85 44 eb ff ff 00 	movl   $0x0,-0x14bc(%rbp)
    da65:	00 00 00 
    da68:	c7 85 48 eb ff ff 08 	movl   $0x8,-0x14b8(%rbp)
    da6f:	00 00 00 
    da72:	c7 85 4c eb ff ff 08 	movl   $0x8,-0x14b4(%rbp)
    da79:	00 00 00 
    da7c:	c7 85 50 eb ff ff b9 	movl   $0xc29953b9,-0x14b0(%rbp)
    da83:	53 99 c2 
    da86:	c7 85 54 eb ff ff bb 	movl   $0x28fa84bb,-0x14ac(%rbp)
    da8d:	84 fa 28 
    da90:	c7 85 58 eb ff ff b9 	movl   $0xc29953b9,-0x14a8(%rbp)
    da97:	53 99 c2 
    da9a:	c7 85 5c eb ff ff 00 	movl   $0x0,-0x14a4(%rbp)
    daa1:	00 00 00 
    daa4:	c7 85 60 eb ff ff 00 	movl   $0x0,-0x14a0(%rbp)
    daab:	00 00 00 
    daae:	c7 85 64 eb ff ff 08 	movl   $0x8,-0x149c(%rbp)
    dab5:	00 00 00 
    dab8:	c7 85 68 eb ff ff 1c 	movl   $0xbd7f6e1c,-0x1498(%rbp)
    dabf:	6e 7f bd 
    dac2:	c7 85 6c eb ff ff bb 	movl   $0x28fa84bb,-0x1494(%rbp)
    dac9:	84 fa 28 
    dacc:	c7 85 70 eb ff ff 1c 	movl   $0xbd7f6e1c,-0x1490(%rbp)
    dad3:	6e 7f bd 
    dad6:	c7 85 74 eb ff ff 00 	movl   $0x0,-0x148c(%rbp)
    dadd:	00 00 00 
    dae0:	c7 85 78 eb ff ff 08 	movl   $0x8,-0x1488(%rbp)
    dae7:	00 00 00 
    daea:	c7 85 7c eb ff ff 08 	movl   $0x8,-0x1484(%rbp)
    daf1:	00 00 00 
    daf4:	c7 85 c0 ea ff ff cd 	movl   $0x8c8230cd,-0x1540(%rbp)
    dafb:	30 82 8c 
    dafe:	c7 85 c4 ea ff ff cd 	movl   $0x8c8230cd,-0x153c(%rbp)
    db05:	30 82 8c 
    db08:	c7 85 c8 ea ff ff cd 	movl   $0x8c8230cd,-0x1538(%rbp)
    db0f:	30 82 8c 
    db12:	c7 85 cc ea ff ff cd 	movl   $0x8c8230cd,-0x1534(%rbp)
    db19:	30 82 8c 
    db1c:	c7 85 d0 ea ff ff cd 	movl   $0x8c8230cd,-0x1530(%rbp)
    db23:	30 82 8c 
    db26:	c7 85 d4 ea ff ff cd 	movl   $0x8c8230cd,-0x152c(%rbp)
    db2d:	30 82 8c 
    db30:	c7 85 d8 ea ff ff cd 	movl   $0x8c8230cd,-0x1528(%rbp)
    db37:	30 82 8c 
    db3a:	c7 85 dc ea ff ff cd 	movl   $0x8c8230cd,-0x1524(%rbp)
    db41:	30 82 8c 
    db44:	c7 85 e0 ea ff ff cd 	movl   $0x8c8230cd,-0x1520(%rbp)
    db4b:	30 82 8c 
    db4e:	c7 85 e4 ea ff ff cd 	movl   $0x8c8230cd,-0x151c(%rbp)
    db55:	30 82 8c 
    db58:	48 8d 85 f0 ea ff ff 	lea    -0x1510(%rbp),%rax
    db5f:	48 83 c0 2c          	add    $0x2c,%rax
    db63:	48 89 85 88 e9 ff ff 	mov    %rax,-0x1678(%rbp)
    db6a:	48 8d 85 18 e8 ff ff 	lea    -0x17e8(%rbp),%rax
    db71:	48 89 85 a0 ec ff ff 	mov    %rax,-0x1360(%rbp)
    db78:	48 c7 85 a8 ec ff ff 	movq   $0x0,-0x1358(%rbp)
    db7f:	00 00 00 00 
    db83:	48 8d 85 18 e8 ff ff 	lea    -0x17e8(%rbp),%rax
    db8a:	48 89 85 b0 ec ff ff 	mov    %rax,-0x1350(%rbp)
    db91:	48 8d 85 18 e8 ff ff 	lea    -0x17e8(%rbp),%rax
    db98:	48 89 85 b8 ec ff ff 	mov    %rax,-0x1348(%rbp)
    db9f:	48 8d 85 18 e8 ff ff 	lea    -0x17e8(%rbp),%rax
    dba6:	48 89 85 c0 ec ff ff 	mov    %rax,-0x1340(%rbp)
    dbad:	48 c7 85 c8 ec ff ff 	movq   $0x0,-0x1338(%rbp)
    dbb4:	00 00 00 00 
    dbb8:	48 8d 85 18 e8 ff ff 	lea    -0x17e8(%rbp),%rax
    dbbf:	48 89 85 d0 ec ff ff 	mov    %rax,-0x1330(%rbp)
    dbc6:	48 8d 85 18 e8 ff ff 	lea    -0x17e8(%rbp),%rax
    dbcd:	48 89 85 d8 ec ff ff 	mov    %rax,-0x1328(%rbp)
    dbd4:	48 8d 85 18 e8 ff ff 	lea    -0x17e8(%rbp),%rax
    dbdb:	48 89 85 e0 ec ff ff 	mov    %rax,-0x1320(%rbp)
    dbe2:	48 8d 85 18 e8 ff ff 	lea    -0x17e8(%rbp),%rax
    dbe9:	48 89 85 e8 ec ff ff 	mov    %rax,-0x1318(%rbp)
    dbf0:	48 c7 85 f0 ec ff ff 	movq   $0x0,-0x1310(%rbp)
    dbf7:	00 00 00 00 
    dbfb:	48 8d 85 18 e8 ff ff 	lea    -0x17e8(%rbp),%rax
    dc02:	48 89 85 f8 ec ff ff 	mov    %rax,-0x1308(%rbp)
    dc09:	48 8d 85 18 e8 ff ff 	lea    -0x17e8(%rbp),%rax
    dc10:	48 89 85 00 ed ff ff 	mov    %rax,-0x1300(%rbp)
    dc17:	48 8d 85 18 e8 ff ff 	lea    -0x17e8(%rbp),%rax
    dc1e:	48 89 85 08 ed ff ff 	mov    %rax,-0x12f8(%rbp)
    dc25:	48 8d 85 18 e8 ff ff 	lea    -0x17e8(%rbp),%rax
    dc2c:	48 89 85 10 ed ff ff 	mov    %rax,-0x12f0(%rbp)
    dc33:	48 8d 85 18 e8 ff ff 	lea    -0x17e8(%rbp),%rax
    dc3a:	48 89 85 18 ed ff ff 	mov    %rax,-0x12e8(%rbp)
    dc41:	48 c7 85 20 ed ff ff 	movq   $0x0,-0x12e0(%rbp)
    dc48:	00 00 00 00 
    dc4c:	48 8d 85 18 e8 ff ff 	lea    -0x17e8(%rbp),%rax
    dc53:	48 89 85 28 ed ff ff 	mov    %rax,-0x12d8(%rbp)
    dc5a:	48 c7 85 30 ed ff ff 	movq   $0x0,-0x12d0(%rbp)
    dc61:	00 00 00 00 
    dc65:	48 8d 85 18 e8 ff ff 	lea    -0x17e8(%rbp),%rax
    dc6c:	48 89 85 38 ed ff ff 	mov    %rax,-0x12c8(%rbp)
    dc73:	48 8d 85 18 e8 ff ff 	lea    -0x17e8(%rbp),%rax
    dc7a:	48 89 85 40 ed ff ff 	mov    %rax,-0x12c0(%rbp)
    dc81:	48 8d 85 18 e8 ff ff 	lea    -0x17e8(%rbp),%rax
    dc88:	48 89 85 48 ed ff ff 	mov    %rax,-0x12b8(%rbp)
    dc8f:	48 8d 85 18 e8 ff ff 	lea    -0x17e8(%rbp),%rax
    dc96:	48 89 85 50 ed ff ff 	mov    %rax,-0x12b0(%rbp)
    dc9d:	48 8d 85 18 e8 ff ff 	lea    -0x17e8(%rbp),%rax
    dca4:	48 89 85 58 ed ff ff 	mov    %rax,-0x12a8(%rbp)
    dcab:	48 8d 85 18 e8 ff ff 	lea    -0x17e8(%rbp),%rax
    dcb2:	48 89 85 60 ed ff ff 	mov    %rax,-0x12a0(%rbp)
    dcb9:	48 8d 85 18 e8 ff ff 	lea    -0x17e8(%rbp),%rax
    dcc0:	48 89 85 68 ed ff ff 	mov    %rax,-0x1298(%rbp)
    dcc7:	48 8d 85 18 e8 ff ff 	lea    -0x17e8(%rbp),%rax
    dcce:	48 89 85 70 ed ff ff 	mov    %rax,-0x1290(%rbp)
    dcd5:	48 8d 85 18 e8 ff ff 	lea    -0x17e8(%rbp),%rax
    dcdc:	48 89 85 78 ed ff ff 	mov    %rax,-0x1288(%rbp)
    dce3:	48 8d 85 18 e8 ff ff 	lea    -0x17e8(%rbp),%rax
    dcea:	48 89 85 80 ed ff ff 	mov    %rax,-0x1280(%rbp)
    dcf1:	48 8d 85 18 e8 ff ff 	lea    -0x17e8(%rbp),%rax
    dcf8:	48 89 85 88 ed ff ff 	mov    %rax,-0x1278(%rbp)
    dcff:	48 8d 85 18 e8 ff ff 	lea    -0x17e8(%rbp),%rax
    dd06:	48 89 85 90 ed ff ff 	mov    %rax,-0x1270(%rbp)
    dd0d:	48 8d 85 18 e8 ff ff 	lea    -0x17e8(%rbp),%rax
    dd14:	48 89 85 98 ed ff ff 	mov    %rax,-0x1268(%rbp)
    dd1b:	48 8d 85 18 e8 ff ff 	lea    -0x17e8(%rbp),%rax
    dd22:	48 89 85 a0 ed ff ff 	mov    %rax,-0x1260(%rbp)
    dd29:	48 8d 85 18 e8 ff ff 	lea    -0x17e8(%rbp),%rax
    dd30:	48 89 85 a8 ed ff ff 	mov    %rax,-0x1258(%rbp)
    dd37:	48 8d 85 18 e8 ff ff 	lea    -0x17e8(%rbp),%rax
    dd3e:	48 89 85 b0 ed ff ff 	mov    %rax,-0x1250(%rbp)
    dd45:	48 8d 85 18 e8 ff ff 	lea    -0x17e8(%rbp),%rax
    dd4c:	48 89 85 b8 ed ff ff 	mov    %rax,-0x1248(%rbp)
    dd53:	48 8d 85 18 e8 ff ff 	lea    -0x17e8(%rbp),%rax
    dd5a:	48 89 85 c0 ed ff ff 	mov    %rax,-0x1240(%rbp)
    dd61:	48 8d 85 18 e8 ff ff 	lea    -0x17e8(%rbp),%rax
    dd68:	48 89 85 c8 ed ff ff 	mov    %rax,-0x1238(%rbp)
    dd6f:	48 8d 85 18 e8 ff ff 	lea    -0x17e8(%rbp),%rax
    dd76:	48 89 85 d0 ed ff ff 	mov    %rax,-0x1230(%rbp)
    dd7d:	48 8d 85 18 e8 ff ff 	lea    -0x17e8(%rbp),%rax
    dd84:	48 89 85 d8 ed ff ff 	mov    %rax,-0x1228(%rbp)
    dd8b:	48 8d 85 18 e8 ff ff 	lea    -0x17e8(%rbp),%rax
    dd92:	48 89 85 e0 ed ff ff 	mov    %rax,-0x1220(%rbp)
    dd99:	48 8d 85 18 e8 ff ff 	lea    -0x17e8(%rbp),%rax
    dda0:	48 89 85 e8 ed ff ff 	mov    %rax,-0x1218(%rbp)
    dda7:	48 c7 85 f0 ed ff ff 	movq   $0x0,-0x1210(%rbp)
    ddae:	00 00 00 00 
    ddb2:	48 8d 85 18 e8 ff ff 	lea    -0x17e8(%rbp),%rax
    ddb9:	48 89 85 f8 ed ff ff 	mov    %rax,-0x1208(%rbp)
    ddc0:	48 c7 85 00 ee ff ff 	movq   $0x0,-0x1200(%rbp)
    ddc7:	00 00 00 00 
    ddcb:	48 8d 85 18 e8 ff ff 	lea    -0x17e8(%rbp),%rax
    ddd2:	48 89 85 08 ee ff ff 	mov    %rax,-0x11f8(%rbp)
    ddd9:	48 8d 85 18 e8 ff ff 	lea    -0x17e8(%rbp),%rax
    dde0:	48 89 85 10 ee ff ff 	mov    %rax,-0x11f0(%rbp)
    dde7:	48 8d 85 18 e8 ff ff 	lea    -0x17e8(%rbp),%rax
    ddee:	48 89 85 18 ee ff ff 	mov    %rax,-0x11e8(%rbp)
    ddf5:	48 8d 85 18 e8 ff ff 	lea    -0x17e8(%rbp),%rax
    ddfc:	48 89 85 20 ee ff ff 	mov    %rax,-0x11e0(%rbp)
    de03:	48 8d 85 18 e8 ff ff 	lea    -0x17e8(%rbp),%rax
    de0a:	48 89 85 28 ee ff ff 	mov    %rax,-0x11d8(%rbp)
    de11:	48 c7 85 30 ee ff ff 	movq   $0x0,-0x11d0(%rbp)
    de18:	00 00 00 00 
    de1c:	48 8d 85 18 e8 ff ff 	lea    -0x17e8(%rbp),%rax
    de23:	48 89 85 38 ee ff ff 	mov    %rax,-0x11c8(%rbp)
    de2a:	48 8d 85 18 e8 ff ff 	lea    -0x17e8(%rbp),%rax
    de31:	48 89 85 40 ee ff ff 	mov    %rax,-0x11c0(%rbp)
    de38:	48 8d 85 18 e8 ff ff 	lea    -0x17e8(%rbp),%rax
    de3f:	48 89 85 48 ee ff ff 	mov    %rax,-0x11b8(%rbp)
    de46:	48 8d 85 18 e8 ff ff 	lea    -0x17e8(%rbp),%rax
    de4d:	48 89 85 50 ee ff ff 	mov    %rax,-0x11b0(%rbp)
    de54:	48 c7 85 58 ee ff ff 	movq   $0x0,-0x11a8(%rbp)
    de5b:	00 00 00 00 
    de5f:	48 8d 85 18 e8 ff ff 	lea    -0x17e8(%rbp),%rax
    de66:	48 89 85 60 ee ff ff 	mov    %rax,-0x11a0(%rbp)
    de6d:	48 8d 85 18 e8 ff ff 	lea    -0x17e8(%rbp),%rax
    de74:	48 89 85 68 ee ff ff 	mov    %rax,-0x1198(%rbp)
    de7b:	48 8d 85 18 e8 ff ff 	lea    -0x17e8(%rbp),%rax
    de82:	48 89 85 70 ee ff ff 	mov    %rax,-0x1190(%rbp)
    de89:	48 c7 85 78 ee ff ff 	movq   $0x0,-0x1188(%rbp)
    de90:	00 00 00 00 
    de94:	48 8d 85 18 e8 ff ff 	lea    -0x17e8(%rbp),%rax
    de9b:	48 89 85 80 ee ff ff 	mov    %rax,-0x1180(%rbp)
    dea2:	48 8d 85 18 e8 ff ff 	lea    -0x17e8(%rbp),%rax
    dea9:	48 89 85 88 ee ff ff 	mov    %rax,-0x1178(%rbp)
    deb0:	48 8d 85 18 e8 ff ff 	lea    -0x17e8(%rbp),%rax
    deb7:	48 89 85 90 ee ff ff 	mov    %rax,-0x1170(%rbp)
    debe:	48 8d 85 18 e8 ff ff 	lea    -0x17e8(%rbp),%rax
    dec5:	48 89 85 98 ee ff ff 	mov    %rax,-0x1168(%rbp)
    decc:	48 8d 85 18 e8 ff ff 	lea    -0x17e8(%rbp),%rax
    ded3:	48 89 85 a0 ee ff ff 	mov    %rax,-0x1160(%rbp)
    deda:	48 8d 85 18 e8 ff ff 	lea    -0x17e8(%rbp),%rax
    dee1:	48 89 85 a8 ee ff ff 	mov    %rax,-0x1158(%rbp)
    dee8:	48 8d 85 18 e8 ff ff 	lea    -0x17e8(%rbp),%rax
    deef:	48 89 85 b0 ee ff ff 	mov    %rax,-0x1150(%rbp)
    def6:	48 8d 85 18 e8 ff ff 	lea    -0x17e8(%rbp),%rax
    defd:	48 89 85 b8 ee ff ff 	mov    %rax,-0x1148(%rbp)
    df04:	48 8d 85 18 e8 ff ff 	lea    -0x17e8(%rbp),%rax
    df0b:	48 89 85 c0 ee ff ff 	mov    %rax,-0x1140(%rbp)
    df12:	48 8d 85 18 e8 ff ff 	lea    -0x17e8(%rbp),%rax
    df19:	48 89 85 c8 ee ff ff 	mov    %rax,-0x1138(%rbp)
    df20:	48 c7 85 d0 ee ff ff 	movq   $0x0,-0x1130(%rbp)
    df27:	00 00 00 00 
    df2b:	48 c7 85 d8 ee ff ff 	movq   $0x0,-0x1128(%rbp)
    df32:	00 00 00 00 
    df36:	48 c7 85 e0 ee ff ff 	movq   $0x0,-0x1120(%rbp)
    df3d:	00 00 00 00 
    df41:	48 8d 85 18 e8 ff ff 	lea    -0x17e8(%rbp),%rax
    df48:	48 89 85 e8 ee ff ff 	mov    %rax,-0x1118(%rbp)
    df4f:	48 8d 85 18 e8 ff ff 	lea    -0x17e8(%rbp),%rax
    df56:	48 89 85 f0 ee ff ff 	mov    %rax,-0x1110(%rbp)
    df5d:	48 8d 85 18 e8 ff ff 	lea    -0x17e8(%rbp),%rax
    df64:	48 89 85 f8 ee ff ff 	mov    %rax,-0x1108(%rbp)
    df6b:	48 8d 85 18 e8 ff ff 	lea    -0x17e8(%rbp),%rax
    df72:	48 89 85 00 ef ff ff 	mov    %rax,-0x1100(%rbp)
    df79:	48 8d 85 18 e8 ff ff 	lea    -0x17e8(%rbp),%rax
    df80:	48 89 85 08 ef ff ff 	mov    %rax,-0x10f8(%rbp)
    df87:	48 8d 85 18 e8 ff ff 	lea    -0x17e8(%rbp),%rax
    df8e:	48 89 85 10 ef ff ff 	mov    %rax,-0x10f0(%rbp)
    df95:	48 8d 85 18 e8 ff ff 	lea    -0x17e8(%rbp),%rax
    df9c:	48 89 85 18 ef ff ff 	mov    %rax,-0x10e8(%rbp)
    dfa3:	48 8d 85 18 e8 ff ff 	lea    -0x17e8(%rbp),%rax
    dfaa:	48 89 85 20 ef ff ff 	mov    %rax,-0x10e0(%rbp)
    dfb1:	48 8d 85 18 e8 ff ff 	lea    -0x17e8(%rbp),%rax
    dfb8:	48 89 85 28 ef ff ff 	mov    %rax,-0x10d8(%rbp)
    dfbf:	48 8d 85 18 e8 ff ff 	lea    -0x17e8(%rbp),%rax
    dfc6:	48 89 85 30 ef ff ff 	mov    %rax,-0x10d0(%rbp)
    dfcd:	48 c7 85 38 ef ff ff 	movq   $0x0,-0x10c8(%rbp)
    dfd4:	00 00 00 00 
    dfd8:	48 8d 85 18 e8 ff ff 	lea    -0x17e8(%rbp),%rax
    dfdf:	48 89 85 40 ef ff ff 	mov    %rax,-0x10c0(%rbp)
    dfe6:	48 8d 85 18 e8 ff ff 	lea    -0x17e8(%rbp),%rax
    dfed:	48 89 85 48 ef ff ff 	mov    %rax,-0x10b8(%rbp)
    dff4:	48 8d 85 18 e8 ff ff 	lea    -0x17e8(%rbp),%rax
    dffb:	48 89 85 50 ef ff ff 	mov    %rax,-0x10b0(%rbp)
    e002:	48 c7 85 58 ef ff ff 	movq   $0x0,-0x10a8(%rbp)
    e009:	00 00 00 00 
    e00d:	48 8d 85 18 e8 ff ff 	lea    -0x17e8(%rbp),%rax
    e014:	48 89 85 60 ef ff ff 	mov    %rax,-0x10a0(%rbp)
    e01b:	48 8d 85 18 e8 ff ff 	lea    -0x17e8(%rbp),%rax
    e022:	48 89 85 68 ef ff ff 	mov    %rax,-0x1098(%rbp)
    e029:	48 8d 85 18 e8 ff ff 	lea    -0x17e8(%rbp),%rax
    e030:	48 89 85 70 ef ff ff 	mov    %rax,-0x1090(%rbp)
    e037:	48 8d 85 18 e8 ff ff 	lea    -0x17e8(%rbp),%rax
    e03e:	48 89 85 78 ef ff ff 	mov    %rax,-0x1088(%rbp)
    e045:	48 c7 85 80 ef ff ff 	movq   $0x0,-0x1080(%rbp)
    e04c:	00 00 00 00 
    e050:	48 8d 85 18 e8 ff ff 	lea    -0x17e8(%rbp),%rax
    e057:	48 89 85 88 ef ff ff 	mov    %rax,-0x1078(%rbp)
    e05e:	48 8d 85 18 e8 ff ff 	lea    -0x17e8(%rbp),%rax
    e065:	48 89 85 90 ef ff ff 	mov    %rax,-0x1070(%rbp)
    e06c:	48 8d 85 18 e8 ff ff 	lea    -0x17e8(%rbp),%rax
    e073:	48 89 85 98 ef ff ff 	mov    %rax,-0x1068(%rbp)
    e07a:	48 8d 85 18 e8 ff ff 	lea    -0x17e8(%rbp),%rax
    e081:	48 89 85 a0 ef ff ff 	mov    %rax,-0x1060(%rbp)
    e088:	48 8d 85 18 e8 ff ff 	lea    -0x17e8(%rbp),%rax
    e08f:	48 89 85 a8 ef ff ff 	mov    %rax,-0x1058(%rbp)
    e096:	48 c7 85 b0 ef ff ff 	movq   $0x0,-0x1050(%rbp)
    e09d:	00 00 00 00 
    e0a1:	48 8d 85 18 e8 ff ff 	lea    -0x17e8(%rbp),%rax
    e0a8:	48 89 85 b8 ef ff ff 	mov    %rax,-0x1048(%rbp)
    e0af:	48 c7 85 c0 ef ff ff 	movq   $0x0,-0x1040(%rbp)
    e0b6:	00 00 00 00 
    e0ba:	48 8d 85 18 e8 ff ff 	lea    -0x17e8(%rbp),%rax
    e0c1:	48 89 85 c8 ef ff ff 	mov    %rax,-0x1038(%rbp)
    e0c8:	48 8d 85 18 e8 ff ff 	lea    -0x17e8(%rbp),%rax
    e0cf:	48 89 85 d0 ef ff ff 	mov    %rax,-0x1030(%rbp)
    e0d6:	48 8d 85 18 e8 ff ff 	lea    -0x17e8(%rbp),%rax
    e0dd:	48 89 85 d8 ef ff ff 	mov    %rax,-0x1028(%rbp)
    e0e4:	48 8d 85 18 e8 ff ff 	lea    -0x17e8(%rbp),%rax
    e0eb:	48 89 85 e0 ef ff ff 	mov    %rax,-0x1020(%rbp)
    e0f2:	48 8d 85 18 e8 ff ff 	lea    -0x17e8(%rbp),%rax
    e0f9:	48 89 85 e8 ef ff ff 	mov    %rax,-0x1018(%rbp)
    e100:	48 8d 85 18 e8 ff ff 	lea    -0x17e8(%rbp),%rax
    e107:	48 89 85 f0 ef ff ff 	mov    %rax,-0x1010(%rbp)
    e10e:	48 8d 85 18 e8 ff ff 	lea    -0x17e8(%rbp),%rax
    e115:	48 89 85 f8 ef ff ff 	mov    %rax,-0x1008(%rbp)
    e11c:	48 8d 85 18 e8 ff ff 	lea    -0x17e8(%rbp),%rax
    e123:	48 89 85 00 f0 ff ff 	mov    %rax,-0x1000(%rbp)
    e12a:	48 8d 85 18 e8 ff ff 	lea    -0x17e8(%rbp),%rax
    e131:	48 89 85 08 f0 ff ff 	mov    %rax,-0xff8(%rbp)
    e138:	48 8d 85 18 e8 ff ff 	lea    -0x17e8(%rbp),%rax
    e13f:	48 89 85 10 f0 ff ff 	mov    %rax,-0xff0(%rbp)
    e146:	48 8d 85 18 e8 ff ff 	lea    -0x17e8(%rbp),%rax
    e14d:	48 89 85 18 f0 ff ff 	mov    %rax,-0xfe8(%rbp)
    e154:	48 8d 85 18 e8 ff ff 	lea    -0x17e8(%rbp),%rax
    e15b:	48 89 85 20 f0 ff ff 	mov    %rax,-0xfe0(%rbp)
    e162:	48 8d 85 18 e8 ff ff 	lea    -0x17e8(%rbp),%rax
    e169:	48 89 85 28 f0 ff ff 	mov    %rax,-0xfd8(%rbp)
    e170:	48 8d 85 18 e8 ff ff 	lea    -0x17e8(%rbp),%rax
    e177:	48 89 85 30 f0 ff ff 	mov    %rax,-0xfd0(%rbp)
    e17e:	48 8d 85 18 e8 ff ff 	lea    -0x17e8(%rbp),%rax
    e185:	48 89 85 38 f0 ff ff 	mov    %rax,-0xfc8(%rbp)
    e18c:	48 8d 85 18 e8 ff ff 	lea    -0x17e8(%rbp),%rax
    e193:	48 89 85 40 f0 ff ff 	mov    %rax,-0xfc0(%rbp)
    e19a:	48 8d 85 18 e8 ff ff 	lea    -0x17e8(%rbp),%rax
    e1a1:	48 89 85 48 f0 ff ff 	mov    %rax,-0xfb8(%rbp)
    e1a8:	48 8d 85 18 e8 ff ff 	lea    -0x17e8(%rbp),%rax
    e1af:	48 89 85 50 f0 ff ff 	mov    %rax,-0xfb0(%rbp)
    e1b6:	48 8d 85 18 e8 ff ff 	lea    -0x17e8(%rbp),%rax
    e1bd:	48 89 85 58 f0 ff ff 	mov    %rax,-0xfa8(%rbp)
    e1c4:	c7 85 ec e7 ff ff 00 	movl   $0x0,-0x1814(%rbp)
    e1cb:	00 00 00 
    e1ce:	48 8b 05 8b 76 01 00 	mov    0x1768b(%rip),%rax        # 25860 <g_706>
    e1d5:	0f b7 00             	movzwl (%rax),%eax
    e1d8:	66 83 f8 f8          	cmp    $0xfff8,%ax
    e1dc:	0f 85 0c 04 00 00    	jne    e5ee <func_18+0x2b6b>
    e1e2:	66 c7 85 8e e7 ff ff 	movw   $0xea2,-0x1872(%rbp)
    e1e9:	a2 0e 
    e1eb:	c7 85 00 e8 ff ff e9 	movl   $0xf3a88ee9,-0x1800(%rbp)
    e1f2:	8e a8 f3 
    e1f5:	48 8d 05 e4 79 01 00 	lea    0x179e4(%rip),%rax        # 25be0 <g_1764>
    e1fc:	48 89 85 50 e8 ff ff 	mov    %rax,-0x17b0(%rbp)
    e203:	c7 85 cc e7 ff ff 00 	movl   $0x0,-0x1834(%rbp)
    e20a:	00 00 00 
    e20d:	eb 1b                	jmp    e22a <func_18+0x27a7>
    e20f:	8b 85 cc e7 ff ff    	mov    -0x1834(%rbp),%eax
    e215:	48 98                	cltq   
    e217:	48 c7 84 c5 80 eb ff 	movq   $0x0,-0x1480(%rbp,%rax,8)
    e21e:	ff 00 00 00 00 
    e223:	83 85 cc e7 ff ff 01 	addl   $0x1,-0x1834(%rbp)
    e22a:	83 bd cc e7 ff ff 02 	cmpl   $0x2,-0x1834(%rbp)
    e231:	7e dc                	jle    e20f <func_18+0x278c>
    e233:	48 8b 05 56 82 01 00 	mov    0x18256(%rip),%rax        # 26490 <g_2235>
    e23a:	8b 10                	mov    (%rax),%edx
    e23c:	48 8b 05 4d 82 01 00 	mov    0x1824d(%rip),%rax        # 26490 <g_2235>
    e243:	81 ca 65 cb 74 b4    	or     $0xb474cb65,%edx
    e249:	89 10                	mov    %edx,(%rax)
    e24b:	83 ad 00 e8 ff ff 01 	subl   $0x1,-0x1800(%rbp)
    e252:	8b 95 08 eb ff ff    	mov    -0x14f8(%rbp),%edx
    e258:	48 8d 05 19 48 01 00 	lea    0x14819(%rip),%rax        # 22a78 <g_2419>
    e25f:	88 10                	mov    %dl,(%rax)
    e261:	0f b6 00             	movzbl (%rax),%eax
    e264:	0f b6 d0             	movzbl %al,%edx
    e267:	0f b7 85 7c e7 ff ff 	movzwl -0x1884(%rbp),%eax
    e26e:	66 39 c2             	cmp    %ax,%dx
    e271:	0f 86 4f 03 00 00    	jbe    e5c6 <func_18+0x2b43>
    e277:	48 8d 05 7a 43 01 00 	lea    0x1437a(%rip),%rax        # 225f8 <g_1268>
    e27e:	48 89 85 d8 e9 ff ff 	mov    %rax,-0x1628(%rbp)
    e285:	48 8d 85 38 e8 ff ff 	lea    -0x17c8(%rbp),%rax
    e28c:	48 89 85 e0 e9 ff ff 	mov    %rax,-0x1620(%rbp)
    e293:	48 c7 85 e8 e9 ff ff 	movq   $0x0,-0x1618(%rbp)
    e29a:	00 00 00 00 
    e29e:	48 8d 85 50 e8 ff ff 	lea    -0x17b0(%rbp),%rax
    e2a5:	48 89 85 f0 e9 ff ff 	mov    %rax,-0x1610(%rbp)
    e2ac:	c7 85 e0 f7 ff ff f4 	movl   $0xee0959f4,-0x820(%rbp)
    e2b3:	59 09 ee 
    e2b6:	c7 85 e4 f7 ff ff 04 	movl   $0x72a0d104,-0x81c(%rbp)
    e2bd:	d1 a0 72 
    e2c0:	c7 85 e8 f7 ff ff f4 	movl   $0xee0959f4,-0x818(%rbp)
    e2c7:	59 09 ee 
    e2ca:	c7 85 ec f7 ff ff 04 	movl   $0x72a0d104,-0x814(%rbp)
    e2d1:	d1 a0 72 
    e2d4:	c7 85 f0 f7 ff ff f4 	movl   $0xee0959f4,-0x810(%rbp)
    e2db:	59 09 ee 
    e2de:	c7 85 f4 f7 ff ff 04 	movl   $0x72a0d104,-0x80c(%rbp)
    e2e5:	d1 a0 72 
    e2e8:	c7 85 f8 f7 ff ff f4 	movl   $0xee0959f4,-0x808(%rbp)
    e2ef:	59 09 ee 
    e2f2:	c7 85 fc f7 ff ff 04 	movl   $0x72a0d104,-0x804(%rbp)
    e2f9:	d1 a0 72 
    e2fc:	c7 85 00 f8 ff ff f4 	movl   $0xee0959f4,-0x800(%rbp)
    e303:	59 09 ee 
    e306:	c7 85 04 f8 ff ff 04 	movl   $0x72a0d104,-0x7fc(%rbp)
    e30d:	d1 a0 72 
    e310:	c7 85 08 f8 ff ff f4 	movl   $0xee0959f4,-0x7f8(%rbp)
    e317:	59 09 ee 
    e31a:	c7 85 0c f8 ff ff 04 	movl   $0x72a0d104,-0x7f4(%rbp)
    e321:	d1 a0 72 
    e324:	c7 85 10 f8 ff ff f4 	movl   $0xee0959f4,-0x7f0(%rbp)
    e32b:	59 09 ee 
    e32e:	c7 85 14 f8 ff ff 04 	movl   $0x72a0d104,-0x7ec(%rbp)
    e335:	d1 a0 72 
    e338:	c7 85 18 f8 ff ff f4 	movl   $0xee0959f4,-0x7e8(%rbp)
    e33f:	59 09 ee 
    e342:	c7 85 1c f8 ff ff 04 	movl   $0x72a0d104,-0x7e4(%rbp)
    e349:	d1 a0 72 
    e34c:	c7 85 20 f8 ff ff f4 	movl   $0xee0959f4,-0x7e0(%rbp)
    e353:	59 09 ee 
    e356:	c7 85 24 f8 ff ff 04 	movl   $0x72a0d104,-0x7dc(%rbp)
    e35d:	d1 a0 72 
    e360:	c7 85 28 f8 ff ff f4 	movl   $0xee0959f4,-0x7d8(%rbp)
    e367:	59 09 ee 
    e36a:	c7 85 2c f8 ff ff 04 	movl   $0x72a0d104,-0x7d4(%rbp)
    e371:	d1 a0 72 
    e374:	c7 85 30 f8 ff ff f4 	movl   $0xee0959f4,-0x7d0(%rbp)
    e37b:	59 09 ee 
    e37e:	c7 85 34 f8 ff ff 04 	movl   $0x72a0d104,-0x7cc(%rbp)
    e385:	d1 a0 72 
    e388:	c7 85 38 f8 ff ff f4 	movl   $0xee0959f4,-0x7c8(%rbp)
    e38f:	59 09 ee 
    e392:	c7 85 3c f8 ff ff 04 	movl   $0x72a0d104,-0x7c4(%rbp)
    e399:	d1 a0 72 
    e39c:	c7 85 40 f8 ff ff f4 	movl   $0xee0959f4,-0x7c0(%rbp)
    e3a3:	59 09 ee 
    e3a6:	c7 85 44 f8 ff ff 04 	movl   $0x72a0d104,-0x7bc(%rbp)
    e3ad:	d1 a0 72 
    e3b0:	c7 85 48 f8 ff ff f4 	movl   $0xee0959f4,-0x7b8(%rbp)
    e3b7:	59 09 ee 
    e3ba:	c7 85 4c f8 ff ff 04 	movl   $0x72a0d104,-0x7b4(%rbp)
    e3c1:	d1 a0 72 
    e3c4:	c7 85 50 f8 ff ff f4 	movl   $0xee0959f4,-0x7b0(%rbp)
    e3cb:	59 09 ee 
    e3ce:	c7 85 54 f8 ff ff 04 	movl   $0x72a0d104,-0x7ac(%rbp)
    e3d5:	d1 a0 72 
    e3d8:	c7 85 58 f8 ff ff f4 	movl   $0xee0959f4,-0x7a8(%rbp)
    e3df:	59 09 ee 
    e3e2:	c7 85 5c f8 ff ff 04 	movl   $0x72a0d104,-0x7a4(%rbp)
    e3e9:	d1 a0 72 
    e3ec:	c7 85 60 f8 ff ff f4 	movl   $0xee0959f4,-0x7a0(%rbp)
    e3f3:	59 09 ee 
    e3f6:	c7 85 64 f8 ff ff 04 	movl   $0x72a0d104,-0x79c(%rbp)
    e3fd:	d1 a0 72 
    e400:	c7 85 68 f8 ff ff f4 	movl   $0xee0959f4,-0x798(%rbp)
    e407:	59 09 ee 
    e40a:	c7 85 6c f8 ff ff 04 	movl   $0x72a0d104,-0x794(%rbp)
    e411:	d1 a0 72 
    e414:	c7 85 70 f8 ff ff f4 	movl   $0xee0959f4,-0x790(%rbp)
    e41b:	59 09 ee 
    e41e:	c7 85 74 f8 ff ff 04 	movl   $0x72a0d104,-0x78c(%rbp)
    e425:	d1 a0 72 
    e428:	c7 85 78 f8 ff ff f4 	movl   $0xee0959f4,-0x788(%rbp)
    e42f:	59 09 ee 
    e432:	c7 85 7c f8 ff ff 04 	movl   $0x72a0d104,-0x784(%rbp)
    e439:	d1 a0 72 
    e43c:	48 c7 85 f8 e9 ff ff 	movq   $0x0,-0x1608(%rbp)
    e443:	00 00 00 00 
    e447:	8b 85 1c eb ff ff    	mov    -0x14e4(%rbp),%eax
    e44d:	48 98                	cltq   
    e44f:	48 89 c6             	mov    %rax,%rsi
    e452:	48 bf 27 b6 99 7c 65 	movabs $0x79d870657c99b627,%rdi
    e459:	70 d8 79 
    e45c:	e8 53 c5 ff ff       	callq  a9b4 <safe_mod_func_int64_t_s_s>
    e461:	48 89 c3             	mov    %rax,%rbx
    e464:	48 8b 95 38 e8 ff ff 	mov    -0x17c8(%rbp),%rdx
    e46b:	48 8b 85 e0 e9 ff ff 	mov    -0x1620(%rbp),%rax
    e472:	48 89 10             	mov    %rdx,(%rax)
    e475:	48 8b 85 e0 e9 ff ff 	mov    -0x1620(%rbp),%rax
    e47c:	48 8b 08             	mov    (%rax),%rcx
    e47f:	48 8b 95 50 e8 ff ff 	mov    -0x17b0(%rbp),%rdx
    e486:	48 8b 85 f0 e9 ff ff 	mov    -0x1610(%rbp),%rax
    e48d:	48 89 10             	mov    %rdx,(%rax)
    e490:	48 8b 85 f0 e9 ff ff 	mov    -0x1610(%rbp),%rax
    e497:	48 8b 00             	mov    (%rax),%rax
    e49a:	48 39 c1             	cmp    %rax,%rcx
    e49d:	74 0a                	je     e4a9 <func_18+0x2a26>
    e49f:	8b 85 1c eb ff ff    	mov    -0x14e4(%rbp),%eax
    e4a5:	85 c0                	test   %eax,%eax
    e4a7:	74 08                	je     e4b1 <func_18+0x2a2e>
    e4a9:	41 bc 01 00 00 00    	mov    $0x1,%r12d
    e4af:	eb 06                	jmp    e4b7 <func_18+0x2a34>
    e4b1:	41 bc 00 00 00 00    	mov    $0x0,%r12d
    e4b7:	48 8b 95 70 e7 ff ff 	mov    -0x1890(%rbp),%rdx
    e4be:	0f b7 85 8c e7 ff ff 	movzwl -0x1874(%rbp),%eax
    e4c5:	98                   	cwtl   
    e4c6:	f7 d0                	not    %eax
    e4c8:	48 98                	cltq   
    e4ca:	48 39 c2             	cmp    %rax,%rdx
    e4cd:	0f 9e c0             	setle  %al
    e4d0:	0f b6 d0             	movzbl %al,%edx
    e4d3:	0f b7 05 de ef 00 00 	movzwl 0xefde(%rip),%eax        # 1d4b8 <g_1318+0x438>
    e4da:	48 0f bf c8          	movswq %ax,%rcx
    e4de:	48 8b 85 d8 e9 ff ff 	mov    -0x1628(%rbp),%rax
    e4e5:	48 89 08             	mov    %rcx,(%rax)
    e4e8:	48 8b 85 d8 e9 ff ff 	mov    -0x1628(%rbp),%rax
    e4ef:	48 8b 00             	mov    (%rax),%rax
    e4f2:	48 89 d6             	mov    %rdx,%rsi
    e4f5:	48 89 c7             	mov    %rax,%rdi
    e4f8:	e8 31 cb ff ff       	callq  b02e <safe_add_func_uint64_t_u_u>
    e4fd:	8b 85 a4 e7 ff ff    	mov    -0x185c(%rbp),%eax
    e503:	44 21 e0             	and    %r12d,%eax
    e506:	89 85 a4 e7 ff ff    	mov    %eax,-0x185c(%rbp)
    e50c:	8b 85 30 f8 ff ff    	mov    -0x7d0(%rbp),%eax
    e512:	85 c0                	test   %eax,%eax
    e514:	75 0e                	jne    e524 <func_18+0x2aa1>
    e516:	48 8b 05 73 76 01 00 	mov    0x17673(%rip),%rax        # 25b90 <g_1441>
    e51d:	0f b6 00             	movzbl (%rax),%eax
    e520:	84 c0                	test   %al,%al
    e522:	74 07                	je     e52b <func_18+0x2aa8>
    e524:	b8 01 00 00 00       	mov    $0x1,%eax
    e529:	eb 05                	jmp    e530 <func_18+0x2aad>
    e52b:	b8 00 00 00 00       	mov    $0x0,%eax
    e530:	0f be d0             	movsbl %al,%edx
    e533:	0f b7 85 8a e7 ff ff 	movzwl -0x1876(%rbp),%eax
    e53a:	0f be c0             	movsbl %al,%eax
    e53d:	89 d6                	mov    %edx,%esi
    e53f:	89 c7                	mov    %eax,%edi
    e541:	e8 ac bc ff ff       	callq  a1f2 <safe_sub_func_int8_t_s_s>
    e546:	48 8d 85 7c e7 ff ff 	lea    -0x1884(%rbp),%rax
    e54d:	48 89 85 f8 e9 ff ff 	mov    %rax,-0x1608(%rbp)
    e554:	48 8b 85 f8 e9 ff ff 	mov    -0x1608(%rbp),%rax
    e55b:	48 3b 85 70 e9 ff ff 	cmp    -0x1690(%rbp),%rax
    e562:	0f 94 c0             	sete   %al
    e565:	0f b6 d0             	movzbl %al,%edx
    e568:	8b 05 2e 45 01 00    	mov    0x1452e(%rip),%eax        # 22a9c <g_2609>
    e56e:	31 d0                	xor    %edx,%eax
    e570:	89 c0                	mov    %eax,%eax
    e572:	48 39 c3             	cmp    %rax,%rbx
    e575:	0f 9e c0             	setle  %al
    e578:	0f b6 c8             	movzbl %al,%ecx
    e57b:	48 8b 05 0e 7f 01 00 	mov    0x17f0e(%rip),%rax        # 26490 <g_2235>
    e582:	8b 10                	mov    (%rax),%edx
    e584:	48 8b 05 05 7f 01 00 	mov    0x17f05(%rip),%rax        # 26490 <g_2235>
    e58b:	21 ca                	and    %ecx,%edx
    e58d:	89 10                	mov    %edx,(%rax)
    e58f:	0f b7 95 7c e7 ff ff 	movzwl -0x1884(%rbp),%edx
    e596:	48 8b 05 f3 7e 01 00 	mov    0x17ef3(%rip),%rax        # 26490 <g_2235>
    e59d:	0f b7 d2             	movzwl %dx,%edx
    e5a0:	89 10                	mov    %edx,(%rax)
    e5a2:	8b 85 1c eb ff ff    	mov    -0x14e4(%rbp),%eax
    e5a8:	83 e0 fb             	and    $0xfffffffb,%eax
    e5ab:	89 85 1c eb ff ff    	mov    %eax,-0x14e4(%rbp)
    e5b1:	0f b7 85 7c e7 ff ff 	movzwl -0x1884(%rbp),%eax
    e5b8:	66 85 c0             	test   %ax,%ax
    e5bb:	0f 84 d6 1d 00 00    	je     10397 <func_18+0x4914>
    e5c1:	e9 13 26 00 00       	jmpq   10bd9 <func_18+0x5156>
    e5c6:	48 c7 85 d0 e9 ff ff 	movq   $0x0,-0x1630(%rbp)
    e5cd:	00 00 00 00 
    e5d1:	48 8b 05 f8 6f 01 00 	mov    0x16ff8(%rip),%rax        # 255d0 <g_239>
    e5d8:	48 8d 95 a4 e7 ff ff 	lea    -0x185c(%rbp),%rdx
    e5df:	48 89 10             	mov    %rdx,(%rax)
    e5e2:	48 8b 85 d0 e9 ff ff 	mov    -0x1630(%rbp),%rax
    e5e9:	e9 8f 26 00 00       	jmpq   10c7d <func_18+0x51fa>
    e5ee:	48 8d 85 08 e8 ff ff 	lea    -0x17f8(%rbp),%rax
    e5f5:	48 89 85 90 e9 ff ff 	mov    %rax,-0x1670(%rbp)
    e5fc:	c7 85 f0 e7 ff ff 1b 	movl   $0xed68f71b,-0x1810(%rbp)
    e603:	f7 68 ed 
    e606:	c7 85 ac e7 ff ff 40 	movl   $0x8213ca40,-0x1854(%rbp)
    e60d:	ca 13 82 
    e610:	c7 85 50 e8 ff ff f7 	movl   $0xfffffff7,-0x17b0(%rbp)
    e617:	ff ff ff 
    e61a:	c7 85 f4 e7 ff ff 9c 	movl   $0xb4c5bf9c,-0x180c(%rbp)
    e621:	bf c5 b4 
    e624:	c7 85 f8 e7 ff ff 1d 	movl   $0xbb05ea1d,-0x1808(%rbp)
    e62b:	ea 05 bb 
    e62e:	c7 85 30 ea ff ff 18 	movl   $0xe20ae18,-0x15d0(%rbp)
    e635:	ae 20 0e 
    e638:	c7 85 34 ea ff ff 18 	movl   $0xe20ae18,-0x15cc(%rbp)
    e63f:	ae 20 0e 
    e642:	c7 85 38 ea ff ff 18 	movl   $0xe20ae18,-0x15c8(%rbp)
    e649:	ae 20 0e 
    e64c:	c7 85 3c ea ff ff 18 	movl   $0xe20ae18,-0x15c4(%rbp)
    e653:	ae 20 0e 
    e656:	48 c7 85 98 e9 ff ff 	movq   $0x0,-0x1668(%rbp)
    e65d:	00 00 00 00 
    e661:	48 8b 85 70 e7 ff ff 	mov    -0x1890(%rbp),%rax
    e668:	48 89 c6             	mov    %rax,%rsi
    e66b:	48 8b 85 90 e9 ff ff 	mov    -0x1670(%rbp),%rax
    e672:	48 8b 00             	mov    (%rax),%rax
    e675:	48 8d 48 01          	lea    0x1(%rax),%rcx
    e679:	48 8b 95 90 e9 ff ff 	mov    -0x1670(%rbp),%rdx
    e680:	48 89 0a             	mov    %rcx,(%rdx)
    e683:	48 89 c7             	mov    %rax,%rdi
    e686:	e8 24 ca ff ff       	callq  b0af <safe_div_func_uint64_t_u_u>
    e68b:	0f b7 85 7c e7 ff ff 	movzwl -0x1884(%rbp),%eax
    e692:	0f b7 c0             	movzwl %ax,%eax
    e695:	48 8b 95 70 e7 ff ff 	mov    -0x1890(%rbp),%rdx
    e69c:	48 f7 d2             	not    %rdx
    e69f:	48 39 d0             	cmp    %rdx,%rax
    e6a2:	0f 8f c8 0d 00 00    	jg     f470 <func_18+0x39ed>
    e6a8:	48 8d 85 94 e7 ff ff 	lea    -0x186c(%rbp),%rax
    e6af:	48 89 85 b8 e9 ff ff 	mov    %rax,-0x1648(%rbp)
    e6b6:	48 8d 05 9f 3e 01 00 	lea    0x13e9f(%rip),%rax        # 2255c <g_426+0x1c>
    e6bd:	48 89 85 c0 e9 ff ff 	mov    %rax,-0x1640(%rbp)
    e6c4:	48 8d 85 80 ea ff ff 	lea    -0x1580(%rbp),%rax
    e6cb:	48 83 c0 08          	add    $0x8,%rax
    e6cf:	48 89 85 c8 e9 ff ff 	mov    %rax,-0x1638(%rbp)
    e6d6:	48 8d 85 90 e7 ff ff 	lea    -0x1870(%rbp),%rax
    e6dd:	48 89 85 e0 f7 ff ff 	mov    %rax,-0x820(%rbp)
    e6e4:	48 8d 05 b5 84 01 00 	lea    0x184b5(%rip),%rax        # 26ba0 <g_1129>
    e6eb:	48 89 85 e8 f7 ff ff 	mov    %rax,-0x818(%rbp)
    e6f2:	48 8d 85 a0 e7 ff ff 	lea    -0x1860(%rbp),%rax
    e6f9:	48 89 85 f0 f7 ff ff 	mov    %rax,-0x810(%rbp)
    e700:	48 8d 85 f0 ea ff ff 	lea    -0x1510(%rbp),%rax
    e707:	48 83 c0 0c          	add    $0xc,%rax
    e70b:	48 89 85 f8 f7 ff ff 	mov    %rax,-0x808(%rbp)
    e712:	48 8d 85 a4 e7 ff ff 	lea    -0x185c(%rbp),%rax
    e719:	48 89 85 00 f8 ff ff 	mov    %rax,-0x800(%rbp)
    e720:	48 8d 85 f0 ea ff ff 	lea    -0x1510(%rbp),%rax
    e727:	48 83 c0 2c          	add    $0x2c,%rax
    e72b:	48 89 85 08 f8 ff ff 	mov    %rax,-0x7f8(%rbp)
    e732:	48 8d 85 94 e7 ff ff 	lea    -0x186c(%rbp),%rax
    e739:	48 89 85 10 f8 ff ff 	mov    %rax,-0x7f0(%rbp)
    e740:	48 8d 85 a0 e7 ff ff 	lea    -0x1860(%rbp),%rax
    e747:	48 89 85 18 f8 ff ff 	mov    %rax,-0x7e8(%rbp)
    e74e:	48 8d 05 eb 3d 01 00 	lea    0x13deb(%rip),%rax        # 22540 <g_426>
    e755:	48 89 85 20 f8 ff ff 	mov    %rax,-0x7e0(%rbp)
    e75c:	48 8d 85 f0 ea ff ff 	lea    -0x1510(%rbp),%rax
    e763:	48 83 c0 2c          	add    $0x2c,%rax
    e767:	48 89 85 28 f8 ff ff 	mov    %rax,-0x7d8(%rbp)
    e76e:	48 8d 05 2b 84 01 00 	lea    0x1842b(%rip),%rax        # 26ba0 <g_1129>
    e775:	48 89 85 30 f8 ff ff 	mov    %rax,-0x7d0(%rbp)
    e77c:	48 8d 85 f0 ea ff ff 	lea    -0x1510(%rbp),%rax
    e783:	48 83 c0 0c          	add    $0xc,%rax
    e787:	48 89 85 38 f8 ff ff 	mov    %rax,-0x7c8(%rbp)
    e78e:	48 8d 85 f0 ea ff ff 	lea    -0x1510(%rbp),%rax
    e795:	48 83 c0 2c          	add    $0x2c,%rax
    e799:	48 89 85 40 f8 ff ff 	mov    %rax,-0x7c0(%rbp)
    e7a0:	48 8d 05 f9 83 01 00 	lea    0x183f9(%rip),%rax        # 26ba0 <g_1129>
    e7a7:	48 89 85 48 f8 ff ff 	mov    %rax,-0x7b8(%rbp)
    e7ae:	48 8d 85 80 ea ff ff 	lea    -0x1580(%rbp),%rax
    e7b5:	48 83 c0 10          	add    $0x10,%rax
    e7b9:	48 89 85 50 f8 ff ff 	mov    %rax,-0x7b0(%rbp)
    e7c0:	48 8d 05 d9 83 01 00 	lea    0x183d9(%rip),%rax        # 26ba0 <g_1129>
    e7c7:	48 89 85 58 f8 ff ff 	mov    %rax,-0x7a8(%rbp)
    e7ce:	48 8d 85 90 e7 ff ff 	lea    -0x1870(%rbp),%rax
    e7d5:	48 89 85 60 f8 ff ff 	mov    %rax,-0x7a0(%rbp)
    e7dc:	48 8d 85 f0 ea ff ff 	lea    -0x1510(%rbp),%rax
    e7e3:	48 83 c0 2c          	add    $0x2c,%rax
    e7e7:	48 89 85 68 f8 ff ff 	mov    %rax,-0x798(%rbp)
    e7ee:	48 8d 05 5b 3d 01 00 	lea    0x13d5b(%rip),%rax        # 22550 <g_426+0x10>
    e7f5:	48 89 85 70 f8 ff ff 	mov    %rax,-0x790(%rbp)
    e7fc:	48 8d 05 9d 83 01 00 	lea    0x1839d(%rip),%rax        # 26ba0 <g_1129>
    e803:	48 89 85 78 f8 ff ff 	mov    %rax,-0x788(%rbp)
    e80a:	48 c7 85 80 f8 ff ff 	movq   $0x0,-0x780(%rbp)
    e811:	00 00 00 00 
    e815:	48 8d 85 94 e7 ff ff 	lea    -0x186c(%rbp),%rax
    e81c:	48 89 85 88 f8 ff ff 	mov    %rax,-0x778(%rbp)
    e823:	48 c7 85 90 f8 ff ff 	movq   $0x0,-0x770(%rbp)
    e82a:	00 00 00 00 
    e82e:	48 c7 85 98 f8 ff ff 	movq   $0x0,-0x768(%rbp)
    e835:	00 00 00 00 
    e839:	48 8d 05 10 3d 01 00 	lea    0x13d10(%rip),%rax        # 22550 <g_426+0x10>
    e840:	48 89 85 a0 f8 ff ff 	mov    %rax,-0x760(%rbp)
    e847:	48 c7 85 a8 f8 ff ff 	movq   $0x0,-0x758(%rbp)
    e84e:	00 00 00 00 
    e852:	48 8d 85 f0 ea ff ff 	lea    -0x1510(%rbp),%rax
    e859:	48 83 c0 2c          	add    $0x2c,%rax
    e85d:	48 89 85 b0 f8 ff ff 	mov    %rax,-0x750(%rbp)
    e864:	48 8d 85 80 ea ff ff 	lea    -0x1580(%rbp),%rax
    e86b:	48 83 c0 10          	add    $0x10,%rax
    e86f:	48 89 85 b8 f8 ff ff 	mov    %rax,-0x748(%rbp)
    e876:	48 8d 85 f0 ea ff ff 	lea    -0x1510(%rbp),%rax
    e87d:	48 83 c0 2c          	add    $0x2c,%rax
    e881:	48 89 85 c0 f8 ff ff 	mov    %rax,-0x740(%rbp)
    e888:	48 c7 85 c8 f8 ff ff 	movq   $0x0,-0x738(%rbp)
    e88f:	00 00 00 00 
    e893:	48 8d 85 60 ea ff ff 	lea    -0x15a0(%rbp),%rax
    e89a:	48 83 c0 0c          	add    $0xc,%rax
    e89e:	48 89 85 d0 f8 ff ff 	mov    %rax,-0x730(%rbp)
    e8a5:	48 8d 85 80 ea ff ff 	lea    -0x1580(%rbp),%rax
    e8ac:	48 83 c0 10          	add    $0x10,%rax
    e8b0:	48 89 85 d8 f8 ff ff 	mov    %rax,-0x728(%rbp)
    e8b7:	48 8d 05 8a 3c 01 00 	lea    0x13c8a(%rip),%rax        # 22548 <g_426+0x8>
    e8be:	48 89 85 e0 f8 ff ff 	mov    %rax,-0x720(%rbp)
    e8c5:	48 8d 05 74 3c 01 00 	lea    0x13c74(%rip),%rax        # 22540 <g_426>
    e8cc:	48 89 85 e8 f8 ff ff 	mov    %rax,-0x718(%rbp)
    e8d3:	48 8d 85 a0 e7 ff ff 	lea    -0x1860(%rbp),%rax
    e8da:	48 89 85 f0 f8 ff ff 	mov    %rax,-0x710(%rbp)
    e8e1:	48 8d 85 80 ea ff ff 	lea    -0x1580(%rbp),%rax
    e8e8:	48 83 c0 10          	add    $0x10,%rax
    e8ec:	48 89 85 f8 f8 ff ff 	mov    %rax,-0x708(%rbp)
    e8f3:	48 8d 85 90 e7 ff ff 	lea    -0x1870(%rbp),%rax
    e8fa:	48 89 85 00 f9 ff ff 	mov    %rax,-0x700(%rbp)
    e901:	48 8d 05 d4 37 01 00 	lea    0x137d4(%rip),%rax        # 220dc <g_2+0x9c>
    e908:	48 89 85 08 f9 ff ff 	mov    %rax,-0x6f8(%rbp)
    e90f:	48 8d 05 32 3c 01 00 	lea    0x13c32(%rip),%rax        # 22548 <g_426+0x8>
    e916:	48 89 85 10 f9 ff ff 	mov    %rax,-0x6f0(%rbp)
    e91d:	48 c7 85 18 f9 ff ff 	movq   $0x0,-0x6e8(%rbp)
    e924:	00 00 00 00 
    e928:	48 8d 85 60 ea ff ff 	lea    -0x15a0(%rbp),%rax
    e92f:	48 83 c0 0c          	add    $0xc,%rax
    e933:	48 89 85 20 f9 ff ff 	mov    %rax,-0x6e0(%rbp)
    e93a:	48 8d 05 ff 3b 01 00 	lea    0x13bff(%rip),%rax        # 22540 <g_426>
    e941:	48 89 85 28 f9 ff ff 	mov    %rax,-0x6d8(%rbp)
    e948:	48 8d 05 01 3c 01 00 	lea    0x13c01(%rip),%rax        # 22550 <g_426+0x10>
    e94f:	48 89 85 30 f9 ff ff 	mov    %rax,-0x6d0(%rbp)
    e956:	48 8d 85 f0 ea ff ff 	lea    -0x1510(%rbp),%rax
    e95d:	48 83 c0 2c          	add    $0x2c,%rax
    e961:	48 89 85 38 f9 ff ff 	mov    %rax,-0x6c8(%rbp)
    e968:	48 8d 85 90 e7 ff ff 	lea    -0x1870(%rbp),%rax
    e96f:	48 89 85 40 f9 ff ff 	mov    %rax,-0x6c0(%rbp)
    e976:	48 c7 85 48 f9 ff ff 	movq   $0x0,-0x6b8(%rbp)
    e97d:	00 00 00 00 
    e981:	48 8d 85 94 e7 ff ff 	lea    -0x186c(%rbp),%rax
    e988:	48 89 85 50 f9 ff ff 	mov    %rax,-0x6b0(%rbp)
    e98f:	48 c7 85 58 f9 ff ff 	movq   $0x0,-0x6a8(%rbp)
    e996:	00 00 00 00 
    e99a:	48 8d 05 3b 37 01 00 	lea    0x1373b(%rip),%rax        # 220dc <g_2+0x9c>
    e9a1:	48 89 85 60 f9 ff ff 	mov    %rax,-0x6a0(%rbp)
    e9a8:	48 8d 85 80 ea ff ff 	lea    -0x1580(%rbp),%rax
    e9af:	48 83 c0 10          	add    $0x10,%rax
    e9b3:	48 89 85 68 f9 ff ff 	mov    %rax,-0x698(%rbp)
    e9ba:	48 c7 85 70 f9 ff ff 	movq   $0x0,-0x690(%rbp)
    e9c1:	00 00 00 00 
    e9c5:	48 c7 85 78 f9 ff ff 	movq   $0x0,-0x688(%rbp)
    e9cc:	00 00 00 00 
    e9d0:	48 c7 85 80 f9 ff ff 	movq   $0x0,-0x680(%rbp)
    e9d7:	00 00 00 00 
    e9db:	48 c7 85 88 f9 ff ff 	movq   $0x0,-0x678(%rbp)
    e9e2:	00 00 00 00 
    e9e6:	48 8d 05 b3 81 01 00 	lea    0x181b3(%rip),%rax        # 26ba0 <g_1129>
    e9ed:	48 89 85 90 f9 ff ff 	mov    %rax,-0x670(%rbp)
    e9f4:	48 8d 85 80 ea ff ff 	lea    -0x1580(%rbp),%rax
    e9fb:	48 83 c0 10          	add    $0x10,%rax
    e9ff:	48 89 85 98 f9 ff ff 	mov    %rax,-0x668(%rbp)
    ea06:	48 8d 85 f0 ea ff ff 	lea    -0x1510(%rbp),%rax
    ea0d:	48 83 c0 2c          	add    $0x2c,%rax
    ea11:	48 89 85 a0 f9 ff ff 	mov    %rax,-0x660(%rbp)
    ea18:	48 8d 05 31 3b 01 00 	lea    0x13b31(%rip),%rax        # 22550 <g_426+0x10>
    ea1f:	48 89 85 a8 f9 ff ff 	mov    %rax,-0x658(%rbp)
    ea26:	48 8d 85 f0 ea ff ff 	lea    -0x1510(%rbp),%rax
    ea2d:	48 83 c0 10          	add    $0x10,%rax
    ea31:	48 89 85 b0 f9 ff ff 	mov    %rax,-0x650(%rbp)
    ea38:	48 8d 85 60 ea ff ff 	lea    -0x15a0(%rbp),%rax
    ea3f:	48 83 c0 0c          	add    $0xc,%rax
    ea43:	48 89 85 b8 f9 ff ff 	mov    %rax,-0x648(%rbp)
    ea4a:	48 c7 85 c0 f9 ff ff 	movq   $0x0,-0x640(%rbp)
    ea51:	00 00 00 00 
    ea55:	48 c7 85 c8 f9 ff ff 	movq   $0x0,-0x638(%rbp)
    ea5c:	00 00 00 00 
    ea60:	48 8d 05 ed 36 01 00 	lea    0x136ed(%rip),%rax        # 22154 <g_65>
    ea67:	48 89 85 d0 f9 ff ff 	mov    %rax,-0x630(%rbp)
    ea6e:	48 8d 05 db 3a 01 00 	lea    0x13adb(%rip),%rax        # 22550 <g_426+0x10>
    ea75:	48 89 85 d8 f9 ff ff 	mov    %rax,-0x628(%rbp)
    ea7c:	48 8d 85 a0 e7 ff ff 	lea    -0x1860(%rbp),%rax
    ea83:	48 89 85 e0 f9 ff ff 	mov    %rax,-0x620(%rbp)
    ea8a:	48 c7 85 e8 f9 ff ff 	movq   $0x0,-0x618(%rbp)
    ea91:	00 00 00 00 
    ea95:	48 c7 85 f0 f9 ff ff 	movq   $0x0,-0x610(%rbp)
    ea9c:	00 00 00 00 
    eaa0:	48 8d 05 f9 80 01 00 	lea    0x180f9(%rip),%rax        # 26ba0 <g_1129>
    eaa7:	48 89 85 f8 f9 ff ff 	mov    %rax,-0x608(%rbp)
    eaae:	48 c7 85 00 fa ff ff 	movq   $0x0,-0x600(%rbp)
    eab5:	00 00 00 00 
    eab9:	48 c7 85 08 fa ff ff 	movq   $0x0,-0x5f8(%rbp)
    eac0:	00 00 00 00 
    eac4:	48 8d 05 d5 80 01 00 	lea    0x180d5(%rip),%rax        # 26ba0 <g_1129>
    eacb:	48 89 85 10 fa ff ff 	mov    %rax,-0x5f0(%rbp)
    ead2:	48 8d 85 f0 ea ff ff 	lea    -0x1510(%rbp),%rax
    ead9:	48 83 c0 10          	add    $0x10,%rax
    eadd:	48 89 85 18 fa ff ff 	mov    %rax,-0x5e8(%rbp)
    eae4:	48 8d 85 94 e7 ff ff 	lea    -0x186c(%rbp),%rax
    eaeb:	48 89 85 20 fa ff ff 	mov    %rax,-0x5e0(%rbp)
    eaf2:	48 8d 05 47 3a 01 00 	lea    0x13a47(%rip),%rax        # 22540 <g_426>
    eaf9:	48 89 85 28 fa ff ff 	mov    %rax,-0x5d8(%rbp)
    eb00:	48 8d 05 99 80 01 00 	lea    0x18099(%rip),%rax        # 26ba0 <g_1129>
    eb07:	48 89 85 30 fa ff ff 	mov    %rax,-0x5d0(%rbp)
    eb0e:	48 8d 05 8b 80 01 00 	lea    0x1808b(%rip),%rax        # 26ba0 <g_1129>
    eb15:	48 89 85 38 fa ff ff 	mov    %rax,-0x5c8(%rbp)
    eb1c:	48 c7 85 40 fa ff ff 	movq   $0x0,-0x5c0(%rbp)
    eb23:	00 00 00 00 
    eb27:	48 8d 85 f0 ea ff ff 	lea    -0x1510(%rbp),%rax
    eb2e:	48 83 c0 2c          	add    $0x2c,%rax
    eb32:	48 89 85 48 fa ff ff 	mov    %rax,-0x5b8(%rbp)
    eb39:	48 8d 85 f0 ea ff ff 	lea    -0x1510(%rbp),%rax
    eb40:	48 83 c0 08          	add    $0x8,%rax
    eb44:	48 89 85 50 fa ff ff 	mov    %rax,-0x5b0(%rbp)
    eb4b:	48 c7 85 58 fa ff ff 	movq   $0x0,-0x5a8(%rbp)
    eb52:	00 00 00 00 
    eb56:	48 8d 85 a4 e7 ff ff 	lea    -0x185c(%rbp),%rax
    eb5d:	48 89 85 60 fa ff ff 	mov    %rax,-0x5a0(%rbp)
    eb64:	48 c7 85 68 fa ff ff 	movq   $0x0,-0x598(%rbp)
    eb6b:	00 00 00 00 
    eb6f:	48 8d 05 ca 39 01 00 	lea    0x139ca(%rip),%rax        # 22540 <g_426>
    eb76:	48 89 85 70 fa ff ff 	mov    %rax,-0x590(%rbp)
    eb7d:	48 8d 85 f0 ea ff ff 	lea    -0x1510(%rbp),%rax
    eb84:	48 83 c0 08          	add    $0x8,%rax
    eb88:	48 89 85 78 fa ff ff 	mov    %rax,-0x588(%rbp)
    eb8f:	48 8d 85 90 e7 ff ff 	lea    -0x1870(%rbp),%rax
    eb96:	48 89 85 80 fa ff ff 	mov    %rax,-0x580(%rbp)
    eb9d:	48 8d 85 f0 ea ff ff 	lea    -0x1510(%rbp),%rax
    eba4:	48 83 c0 2c          	add    $0x2c,%rax
    eba8:	48 89 85 88 fa ff ff 	mov    %rax,-0x578(%rbp)
    ebaf:	48 8d 85 f0 ea ff ff 	lea    -0x1510(%rbp),%rax
    ebb6:	48 83 c0 18          	add    $0x18,%rax
    ebba:	48 89 85 90 fa ff ff 	mov    %rax,-0x570(%rbp)
    ebc1:	48 8d 85 a4 e7 ff ff 	lea    -0x185c(%rbp),%rax
    ebc8:	48 89 85 98 fa ff ff 	mov    %rax,-0x568(%rbp)
    ebcf:	48 8d 85 94 e7 ff ff 	lea    -0x186c(%rbp),%rax
    ebd6:	48 89 85 a0 fa ff ff 	mov    %rax,-0x560(%rbp)
    ebdd:	48 c7 85 a8 fa ff ff 	movq   $0x0,-0x558(%rbp)
    ebe4:	00 00 00 00 
    ebe8:	48 8d 85 80 ea ff ff 	lea    -0x1580(%rbp),%rax
    ebef:	48 83 c0 10          	add    $0x10,%rax
    ebf3:	48 89 85 b0 fa ff ff 	mov    %rax,-0x550(%rbp)
    ebfa:	48 c7 85 b8 fa ff ff 	movq   $0x0,-0x548(%rbp)
    ec01:	00 00 00 00 
    ec05:	48 c7 85 c0 fa ff ff 	movq   $0x0,-0x540(%rbp)
    ec0c:	00 00 00 00 
    ec10:	48 8d 05 29 39 01 00 	lea    0x13929(%rip),%rax        # 22540 <g_426>
    ec17:	48 89 85 c8 fa ff ff 	mov    %rax,-0x538(%rbp)
    ec1e:	48 8d 85 a0 e7 ff ff 	lea    -0x1860(%rbp),%rax
    ec25:	48 89 85 d0 fa ff ff 	mov    %rax,-0x530(%rbp)
    ec2c:	48 8d 05 6d 7f 01 00 	lea    0x17f6d(%rip),%rax        # 26ba0 <g_1129>
    ec33:	48 89 85 d8 fa ff ff 	mov    %rax,-0x528(%rbp)
    ec3a:	48 8d 05 ff 38 01 00 	lea    0x138ff(%rip),%rax        # 22540 <g_426>
    ec41:	48 89 85 e0 fa ff ff 	mov    %rax,-0x520(%rbp)
    ec48:	48 c7 85 e8 fa ff ff 	movq   $0x0,-0x518(%rbp)
    ec4f:	00 00 00 00 
    ec53:	48 c7 85 f0 fa ff ff 	movq   $0x0,-0x510(%rbp)
    ec5a:	00 00 00 00 
    ec5e:	48 8d 05 3b 7f 01 00 	lea    0x17f3b(%rip),%rax        # 26ba0 <g_1129>
    ec65:	48 89 85 f8 fa ff ff 	mov    %rax,-0x508(%rbp)
    ec6c:	48 8d 05 dd 38 01 00 	lea    0x138dd(%rip),%rax        # 22550 <g_426+0x10>
    ec73:	48 89 85 00 fb ff ff 	mov    %rax,-0x500(%rbp)
    ec7a:	48 8d 85 90 e7 ff ff 	lea    -0x1870(%rbp),%rax
    ec81:	48 89 85 08 fb ff ff 	mov    %rax,-0x4f8(%rbp)
    ec88:	48 8d 85 60 ea ff ff 	lea    -0x15a0(%rbp),%rax
    ec8f:	48 83 c0 0c          	add    $0xc,%rax
    ec93:	48 89 85 10 fb ff ff 	mov    %rax,-0x4f0(%rbp)
    ec9a:	48 8d 05 af 38 01 00 	lea    0x138af(%rip),%rax        # 22550 <g_426+0x10>
    eca1:	48 89 85 18 fb ff ff 	mov    %rax,-0x4e8(%rbp)
    eca8:	48 8d 05 a1 38 01 00 	lea    0x138a1(%rip),%rax        # 22550 <g_426+0x10>
    ecaf:	48 89 85 20 fb ff ff 	mov    %rax,-0x4e0(%rbp)
    ecb6:	48 c7 85 28 fb ff ff 	movq   $0x0,-0x4d8(%rbp)
    ecbd:	00 00 00 00 
    ecc1:	48 c7 85 30 fb ff ff 	movq   $0x0,-0x4d0(%rbp)
    ecc8:	00 00 00 00 
    eccc:	48 8d 85 60 ea ff ff 	lea    -0x15a0(%rbp),%rax
    ecd3:	48 89 85 38 fb ff ff 	mov    %rax,-0x4c8(%rbp)
    ecda:	48 8d 05 5f 38 01 00 	lea    0x1385f(%rip),%rax        # 22540 <g_426>
    ece1:	48 89 85 40 fb ff ff 	mov    %rax,-0x4c0(%rbp)
    ece8:	48 8d 05 61 38 01 00 	lea    0x13861(%rip),%rax        # 22550 <g_426+0x10>
    ecef:	48 89 85 48 fb ff ff 	mov    %rax,-0x4b8(%rbp)
    ecf6:	48 8d 85 a0 e7 ff ff 	lea    -0x1860(%rbp),%rax
    ecfd:	48 89 85 50 fb ff ff 	mov    %rax,-0x4b0(%rbp)
    ed04:	48 8d 05 3d 38 01 00 	lea    0x1383d(%rip),%rax        # 22548 <g_426+0x8>
    ed0b:	48 89 85 58 fb ff ff 	mov    %rax,-0x4a8(%rbp)
    ed12:	48 c7 85 60 fb ff ff 	movq   $0x0,-0x4a0(%rbp)
    ed19:	00 00 00 00 
    ed1d:	48 c7 85 68 fb ff ff 	movq   $0x0,-0x498(%rbp)
    ed24:	00 00 00 00 
    ed28:	48 8d 85 80 ea ff ff 	lea    -0x1580(%rbp),%rax
    ed2f:	48 83 c0 10          	add    $0x10,%rax
    ed33:	48 89 85 70 fb ff ff 	mov    %rax,-0x490(%rbp)
    ed3a:	48 c7 85 78 fb ff ff 	movq   $0x0,-0x488(%rbp)
    ed41:	00 00 00 00 
    ed45:	48 8d 85 94 e7 ff ff 	lea    -0x186c(%rbp),%rax
    ed4c:	48 89 85 80 fb ff ff 	mov    %rax,-0x480(%rbp)
    ed53:	48 8d 85 80 ea ff ff 	lea    -0x1580(%rbp),%rax
    ed5a:	48 83 c0 10          	add    $0x10,%rax
    ed5e:	48 89 85 88 fb ff ff 	mov    %rax,-0x478(%rbp)
    ed65:	48 8d 85 f0 ea ff ff 	lea    -0x1510(%rbp),%rax
    ed6c:	48 83 c0 18          	add    $0x18,%rax
    ed70:	48 89 85 90 fb ff ff 	mov    %rax,-0x470(%rbp)
    ed77:	48 8d 85 f0 ea ff ff 	lea    -0x1510(%rbp),%rax
    ed7e:	48 83 c0 18          	add    $0x18,%rax
    ed82:	48 89 85 98 fb ff ff 	mov    %rax,-0x468(%rbp)
    ed89:	48 8d 85 90 e7 ff ff 	lea    -0x1870(%rbp),%rax
    ed90:	48 89 85 a0 fb ff ff 	mov    %rax,-0x460(%rbp)
    ed97:	48 c7 85 a8 fb ff ff 	movq   $0x0,-0x458(%rbp)
    ed9e:	00 00 00 00 
    eda2:	48 8d 05 97 37 01 00 	lea    0x13797(%rip),%rax        # 22540 <g_426>
    eda9:	48 89 85 b0 fb ff ff 	mov    %rax,-0x450(%rbp)
    edb0:	48 8d 85 f0 ea ff ff 	lea    -0x1510(%rbp),%rax
    edb7:	48 83 c0 2c          	add    $0x2c,%rax
    edbb:	48 89 85 b8 fb ff ff 	mov    %rax,-0x448(%rbp)
    edc2:	48 8d 85 a4 e7 ff ff 	lea    -0x185c(%rbp),%rax
    edc9:	48 89 85 c0 fb ff ff 	mov    %rax,-0x440(%rbp)
    edd0:	48 8d 85 80 ea ff ff 	lea    -0x1580(%rbp),%rax
    edd7:	48 83 c0 10          	add    $0x10,%rax
    eddb:	48 89 85 c8 fb ff ff 	mov    %rax,-0x438(%rbp)
    ede2:	48 8d 85 f0 ea ff ff 	lea    -0x1510(%rbp),%rax
    ede9:	48 83 c0 08          	add    $0x8,%rax
    eded:	48 89 85 d0 fb ff ff 	mov    %rax,-0x430(%rbp)
    edf4:	48 8d 05 59 33 01 00 	lea    0x13359(%rip),%rax        # 22154 <g_65>
    edfb:	48 89 85 d8 fb ff ff 	mov    %rax,-0x428(%rbp)
    ee02:	48 c7 85 e0 fb ff ff 	movq   $0x0,-0x420(%rbp)
    ee09:	00 00 00 00 
    ee0d:	48 8d 85 f0 ea ff ff 	lea    -0x1510(%rbp),%rax
    ee14:	48 83 c0 0c          	add    $0xc,%rax
    ee18:	48 89 85 e8 fb ff ff 	mov    %rax,-0x418(%rbp)
    ee1f:	48 8d 05 7a 7d 01 00 	lea    0x17d7a(%rip),%rax        # 26ba0 <g_1129>
    ee26:	48 89 85 f0 fb ff ff 	mov    %rax,-0x410(%rbp)
    ee2d:	48 8d 05 14 37 01 00 	lea    0x13714(%rip),%rax        # 22548 <g_426+0x8>
    ee34:	48 89 85 f8 fb ff ff 	mov    %rax,-0x408(%rbp)
    ee3b:	48 8d 85 90 e7 ff ff 	lea    -0x1870(%rbp),%rax
    ee42:	48 89 85 00 fc ff ff 	mov    %rax,-0x400(%rbp)
    ee49:	48 8d 85 f0 ea ff ff 	lea    -0x1510(%rbp),%rax
    ee50:	48 83 c0 2c          	add    $0x2c,%rax
    ee54:	48 89 85 08 fc ff ff 	mov    %rax,-0x3f8(%rbp)
    ee5b:	48 8d 05 7a 32 01 00 	lea    0x1327a(%rip),%rax        # 220dc <g_2+0x9c>
    ee62:	48 89 85 10 fc ff ff 	mov    %rax,-0x3f0(%rbp)
    ee69:	48 8d 85 80 ea ff ff 	lea    -0x1580(%rbp),%rax
    ee70:	48 83 c0 08          	add    $0x8,%rax
    ee74:	48 89 85 18 fc ff ff 	mov    %rax,-0x3e8(%rbp)
    ee7b:	48 c7 85 20 fc ff ff 	movq   $0x0,-0x3e0(%rbp)
    ee82:	00 00 00 00 
    ee86:	48 c7 85 28 fc ff ff 	movq   $0x0,-0x3d8(%rbp)
    ee8d:	00 00 00 00 
    ee91:	48 8d 05 b8 36 01 00 	lea    0x136b8(%rip),%rax        # 22550 <g_426+0x10>
    ee98:	48 89 85 30 fc ff ff 	mov    %rax,-0x3d0(%rbp)
    ee9f:	48 8d 05 9a 36 01 00 	lea    0x1369a(%rip),%rax        # 22540 <g_426>
    eea6:	48 89 85 38 fc ff ff 	mov    %rax,-0x3c8(%rbp)
    eead:	48 8d 85 a0 e7 ff ff 	lea    -0x1860(%rbp),%rax
    eeb4:	48 89 85 40 fc ff ff 	mov    %rax,-0x3c0(%rbp)
    eebb:	48 c7 85 48 fc ff ff 	movq   $0x0,-0x3b8(%rbp)
    eec2:	00 00 00 00 
    eec6:	48 8d 05 d3 7c 01 00 	lea    0x17cd3(%rip),%rax        # 26ba0 <g_1129>
    eecd:	48 89 85 50 fc ff ff 	mov    %rax,-0x3b0(%rbp)
    eed4:	48 8d 05 75 36 01 00 	lea    0x13675(%rip),%rax        # 22550 <g_426+0x10>
    eedb:	48 89 85 58 fc ff ff 	mov    %rax,-0x3a8(%rbp)
    eee2:	48 c7 85 60 fc ff ff 	movq   $0x0,-0x3a0(%rbp)
    eee9:	00 00 00 00 
    eeed:	48 8d 05 ac 7c 01 00 	lea    0x17cac(%rip),%rax        # 26ba0 <g_1129>
    eef4:	48 89 85 68 fc ff ff 	mov    %rax,-0x398(%rbp)
    eefb:	48 c7 85 70 fc ff ff 	movq   $0x0,-0x390(%rbp)
    ef02:	00 00 00 00 
    ef06:	48 8d 85 80 ea ff ff 	lea    -0x1580(%rbp),%rax
    ef0d:	48 83 c0 10          	add    $0x10,%rax
    ef11:	48 89 85 78 fc ff ff 	mov    %rax,-0x388(%rbp)
    ef18:	48 c7 85 80 fc ff ff 	movq   $0x0,-0x380(%rbp)
    ef1f:	00 00 00 00 
    ef23:	48 8d 85 90 e7 ff ff 	lea    -0x1870(%rbp),%rax
    ef2a:	48 89 85 88 fc ff ff 	mov    %rax,-0x378(%rbp)
    ef31:	48 8d 05 68 7c 01 00 	lea    0x17c68(%rip),%rax        # 26ba0 <g_1129>
    ef38:	48 89 85 90 fc ff ff 	mov    %rax,-0x370(%rbp)
    ef3f:	48 8d 85 80 ea ff ff 	lea    -0x1580(%rbp),%rax
    ef46:	48 83 c0 10          	add    $0x10,%rax
    ef4a:	48 89 85 98 fc ff ff 	mov    %rax,-0x368(%rbp)
    ef51:	48 8d 85 a4 e7 ff ff 	lea    -0x185c(%rbp),%rax
    ef58:	48 89 85 a0 fc ff ff 	mov    %rax,-0x360(%rbp)
    ef5f:	48 8d 05 ea 35 01 00 	lea    0x135ea(%rip),%rax        # 22550 <g_426+0x10>
    ef66:	48 89 85 a8 fc ff ff 	mov    %rax,-0x358(%rbp)
    ef6d:	48 c7 85 b0 fc ff ff 	movq   $0x0,-0x350(%rbp)
    ef74:	00 00 00 00 
    ef78:	48 8d 85 90 e7 ff ff 	lea    -0x1870(%rbp),%rax
    ef7f:	48 89 85 b8 fc ff ff 	mov    %rax,-0x348(%rbp)
    ef86:	48 c7 85 c0 fc ff ff 	movq   $0x0,-0x340(%rbp)
    ef8d:	00 00 00 00 
    ef91:	48 c7 85 c8 fc ff ff 	movq   $0x0,-0x338(%rbp)
    ef98:	00 00 00 00 
    ef9c:	48 8d 85 90 e7 ff ff 	lea    -0x1870(%rbp),%rax
    efa3:	48 89 85 d0 fc ff ff 	mov    %rax,-0x330(%rbp)
    efaa:	48 c7 85 d8 fc ff ff 	movq   $0x0,-0x328(%rbp)
    efb1:	00 00 00 00 
    efb5:	48 8d 85 90 e7 ff ff 	lea    -0x1870(%rbp),%rax
    efbc:	48 89 85 e0 fc ff ff 	mov    %rax,-0x320(%rbp)
    efc3:	48 8d 85 f0 ea ff ff 	lea    -0x1510(%rbp),%rax
    efca:	48 83 c0 2c          	add    $0x2c,%rax
    efce:	48 89 85 e8 fc ff ff 	mov    %rax,-0x318(%rbp)
    efd5:	48 c7 85 f0 fc ff ff 	movq   $0x0,-0x310(%rbp)
    efdc:	00 00 00 00 
    efe0:	48 c7 85 f8 fc ff ff 	movq   $0x0,-0x308(%rbp)
    efe7:	00 00 00 00 
    efeb:	48 8d 05 ae 7b 01 00 	lea    0x17bae(%rip),%rax        # 26ba0 <g_1129>
    eff2:	48 89 85 00 fd ff ff 	mov    %rax,-0x300(%rbp)
    eff9:	48 8d 85 80 ea ff ff 	lea    -0x1580(%rbp),%rax
    f000:	48 83 c0 10          	add    $0x10,%rax
    f004:	48 89 85 08 fd ff ff 	mov    %rax,-0x2f8(%rbp)
    f00b:	48 8d 85 90 e7 ff ff 	lea    -0x1870(%rbp),%rax
    f012:	48 89 85 10 fd ff ff 	mov    %rax,-0x2f0(%rbp)
    f019:	48 8d 85 a0 e7 ff ff 	lea    -0x1860(%rbp),%rax
    f020:	48 89 85 18 fd ff ff 	mov    %rax,-0x2e8(%rbp)
    f027:	48 8d 85 80 ea ff ff 	lea    -0x1580(%rbp),%rax
    f02e:	48 83 c0 10          	add    $0x10,%rax
    f032:	48 89 85 20 fd ff ff 	mov    %rax,-0x2e0(%rbp)
    f039:	48 8d 85 90 e7 ff ff 	lea    -0x1870(%rbp),%rax
    f040:	48 89 85 28 fd ff ff 	mov    %rax,-0x2d8(%rbp)
    f047:	48 8d 05 f2 34 01 00 	lea    0x134f2(%rip),%rax        # 22540 <g_426>
    f04e:	48 89 85 30 fd ff ff 	mov    %rax,-0x2d0(%rbp)
    f055:	48 c7 85 38 fd ff ff 	movq   $0x0,-0x2c8(%rbp)
    f05c:	00 00 00 00 
    f060:	48 8d 85 90 e7 ff ff 	lea    -0x1870(%rbp),%rax
    f067:	48 89 85 40 fd ff ff 	mov    %rax,-0x2c0(%rbp)
    f06e:	48 8d 05 6b 30 01 00 	lea    0x1306b(%rip),%rax        # 220e0 <g_6>
    f075:	48 89 85 48 fd ff ff 	mov    %rax,-0x2b8(%rbp)
    f07c:	48 8d 05 c1 34 01 00 	lea    0x134c1(%rip),%rax        # 22544 <g_426+0x4>
    f083:	48 89 85 50 fd ff ff 	mov    %rax,-0x2b0(%rbp)
    f08a:	48 c7 85 58 fd ff ff 	movq   $0x0,-0x2a8(%rbp)
    f091:	00 00 00 00 
    f095:	48 8d 05 ac 34 01 00 	lea    0x134ac(%rip),%rax        # 22548 <g_426+0x8>
    f09c:	48 89 85 60 fd ff ff 	mov    %rax,-0x2a0(%rbp)
    f0a3:	48 8d 85 f0 ea ff ff 	lea    -0x1510(%rbp),%rax
    f0aa:	48 83 c0 2c          	add    $0x2c,%rax
    f0ae:	48 89 85 68 fd ff ff 	mov    %rax,-0x298(%rbp)
    f0b5:	48 8d 85 a0 e7 ff ff 	lea    -0x1860(%rbp),%rax
    f0bc:	48 89 85 70 fd ff ff 	mov    %rax,-0x290(%rbp)
    f0c3:	48 8d 05 76 34 01 00 	lea    0x13476(%rip),%rax        # 22540 <g_426>
    f0ca:	48 89 85 78 fd ff ff 	mov    %rax,-0x288(%rbp)
    f0d1:	48 8d 85 80 ea ff ff 	lea    -0x1580(%rbp),%rax
    f0d8:	48 83 c0 10          	add    $0x10,%rax
    f0dc:	48 89 85 80 fd ff ff 	mov    %rax,-0x280(%rbp)
    f0e3:	48 8d 85 90 e7 ff ff 	lea    -0x1870(%rbp),%rax
    f0ea:	48 89 85 88 fd ff ff 	mov    %rax,-0x278(%rbp)
    f0f1:	48 8d 85 f0 ea ff ff 	lea    -0x1510(%rbp),%rax
    f0f8:	48 83 c0 18          	add    $0x18,%rax
    f0fc:	48 89 85 90 fd ff ff 	mov    %rax,-0x270(%rbp)
    f103:	48 8d 85 a0 e7 ff ff 	lea    -0x1860(%rbp),%rax
    f10a:	48 89 85 98 fd ff ff 	mov    %rax,-0x268(%rbp)
    f111:	48 8d 05 88 7a 01 00 	lea    0x17a88(%rip),%rax        # 26ba0 <g_1129>
    f118:	48 89 85 a0 fd ff ff 	mov    %rax,-0x260(%rbp)
    f11f:	48 8d 05 1a 34 01 00 	lea    0x1341a(%rip),%rax        # 22540 <g_426>
    f126:	48 89 85 a8 fd ff ff 	mov    %rax,-0x258(%rbp)
    f12d:	48 8d 05 0c 34 01 00 	lea    0x1340c(%rip),%rax        # 22540 <g_426>
    f134:	48 89 85 b0 fd ff ff 	mov    %rax,-0x250(%rbp)
    f13b:	48 8d 05 5e 7a 01 00 	lea    0x17a5e(%rip),%rax        # 26ba0 <g_1129>
    f142:	48 89 85 b8 fd ff ff 	mov    %rax,-0x248(%rbp)
    f149:	48 8d 85 80 ea ff ff 	lea    -0x1580(%rbp),%rax
    f150:	48 83 c0 10          	add    $0x10,%rax
    f154:	48 89 85 c0 fd ff ff 	mov    %rax,-0x240(%rbp)
    f15b:	48 c7 85 c8 fd ff ff 	movq   $0x0,-0x238(%rbp)
    f162:	00 00 00 00 
    f166:	48 c7 85 d0 fd ff ff 	movq   $0x0,-0x230(%rbp)
    f16d:	00 00 00 00 
    f171:	48 8d 05 d8 33 01 00 	lea    0x133d8(%rip),%rax        # 22550 <g_426+0x10>
    f178:	48 89 85 d8 fd ff ff 	mov    %rax,-0x228(%rbp)
    f17f:	48 8d 85 a0 e7 ff ff 	lea    -0x1860(%rbp),%rax
    f186:	48 89 85 e0 fd ff ff 	mov    %rax,-0x220(%rbp)
    f18d:	48 8d 05 48 2f 01 00 	lea    0x12f48(%rip),%rax        # 220dc <g_2+0x9c>
    f194:	48 89 85 e8 fd ff ff 	mov    %rax,-0x218(%rbp)
    f19b:	48 c7 85 f0 fd ff ff 	movq   $0x0,-0x210(%rbp)
    f1a2:	00 00 00 00 
    f1a6:	48 8d 85 60 ea ff ff 	lea    -0x15a0(%rbp),%rax
    f1ad:	48 83 c0 10          	add    $0x10,%rax
    f1b1:	48 89 85 f8 fd ff ff 	mov    %rax,-0x208(%rbp)
    f1b8:	48 8d 85 80 ea ff ff 	lea    -0x1580(%rbp),%rax
    f1bf:	48 83 c0 08          	add    $0x8,%rax
    f1c3:	48 89 85 00 fe ff ff 	mov    %rax,-0x200(%rbp)
    f1ca:	48 8d 85 f0 ea ff ff 	lea    -0x1510(%rbp),%rax
    f1d1:	48 83 c0 18          	add    $0x18,%rax
    f1d5:	48 89 85 08 fe ff ff 	mov    %rax,-0x1f8(%rbp)
    f1dc:	48 8d 85 90 e7 ff ff 	lea    -0x1870(%rbp),%rax
    f1e3:	48 89 85 10 fe ff ff 	mov    %rax,-0x1f0(%rbp)
    f1ea:	48 8d 85 60 ea ff ff 	lea    -0x15a0(%rbp),%rax
    f1f1:	48 83 c0 10          	add    $0x10,%rax
    f1f5:	48 89 85 18 fe ff ff 	mov    %rax,-0x1e8(%rbp)
    f1fc:	48 8d 85 60 ea ff ff 	lea    -0x15a0(%rbp),%rax
    f203:	48 83 c0 0c          	add    $0xc,%rax
    f207:	48 89 85 20 fe ff ff 	mov    %rax,-0x1e0(%rbp)
    f20e:	48 8d 05 c7 2e 01 00 	lea    0x12ec7(%rip),%rax        # 220dc <g_2+0x9c>
    f215:	48 89 85 28 fe ff ff 	mov    %rax,-0x1d8(%rbp)
    f21c:	48 8d 85 80 ea ff ff 	lea    -0x1580(%rbp),%rax
    f223:	48 83 c0 10          	add    $0x10,%rax
    f227:	48 89 85 30 fe ff ff 	mov    %rax,-0x1d0(%rbp)
    f22e:	48 8d 05 1b 33 01 00 	lea    0x1331b(%rip),%rax        # 22550 <g_426+0x10>
    f235:	48 89 85 38 fe ff ff 	mov    %rax,-0x1c8(%rbp)
    f23c:	48 c7 85 40 fe ff ff 	movq   $0x0,-0x1c0(%rbp)
    f243:	00 00 00 00 
    f247:	48 c7 85 48 fe ff ff 	movq   $0x0,-0x1b8(%rbp)
    f24e:	00 00 00 00 
    f252:	48 8d 85 a4 e7 ff ff 	lea    -0x185c(%rbp),%rax
    f259:	48 89 85 50 fe ff ff 	mov    %rax,-0x1b0(%rbp)
    f260:	48 8d 05 39 79 01 00 	lea    0x17939(%rip),%rax        # 26ba0 <g_1129>
    f267:	48 89 85 58 fe ff ff 	mov    %rax,-0x1a8(%rbp)
    f26e:	48 c7 85 60 fe ff ff 	movq   $0x0,-0x1a0(%rbp)
    f275:	00 00 00 00 
    f279:	48 8d 05 c0 32 01 00 	lea    0x132c0(%rip),%rax        # 22540 <g_426>
    f280:	48 89 85 68 fe ff ff 	mov    %rax,-0x198(%rbp)
    f287:	48 8d 05 4e 2e 01 00 	lea    0x12e4e(%rip),%rax        # 220dc <g_2+0x9c>
    f28e:	48 89 85 70 fe ff ff 	mov    %rax,-0x190(%rbp)
    f295:	48 8d 85 a0 e7 ff ff 	lea    -0x1860(%rbp),%rax
    f29c:	48 89 85 78 fe ff ff 	mov    %rax,-0x188(%rbp)
    f2a3:	48 8d 05 aa 2e 01 00 	lea    0x12eaa(%rip),%rax        # 22154 <g_65>
    f2aa:	48 89 85 80 fe ff ff 	mov    %rax,-0x180(%rbp)
    f2b1:	48 8d 85 90 e7 ff ff 	lea    -0x1870(%rbp),%rax
    f2b8:	48 89 85 88 fe ff ff 	mov    %rax,-0x178(%rbp)
    f2bf:	48 8d 85 80 ea ff ff 	lea    -0x1580(%rbp),%rax
    f2c6:	48 83 c0 10          	add    $0x10,%rax
    f2ca:	48 89 85 90 fe ff ff 	mov    %rax,-0x170(%rbp)
    f2d1:	48 8d 05 68 32 01 00 	lea    0x13268(%rip),%rax        # 22540 <g_426>
    f2d8:	48 89 85 98 fe ff ff 	mov    %rax,-0x168(%rbp)
    f2df:	48 8d 05 6a 32 01 00 	lea    0x1326a(%rip),%rax        # 22550 <g_426+0x10>
    f2e6:	48 89 85 a0 fe ff ff 	mov    %rax,-0x160(%rbp)
    f2ed:	48 8d 85 f0 ea ff ff 	lea    -0x1510(%rbp),%rax
    f2f4:	48 83 c0 2c          	add    $0x2c,%rax
    f2f8:	48 89 85 a8 fe ff ff 	mov    %rax,-0x158(%rbp)
    f2ff:	48 8d 05 4a 32 01 00 	lea    0x1324a(%rip),%rax        # 22550 <g_426+0x10>
    f306:	48 89 85 b0 fe ff ff 	mov    %rax,-0x150(%rbp)
    f30d:	48 c7 85 b8 fe ff ff 	movq   $0x0,-0x148(%rbp)
    f314:	00 00 00 00 
    f318:	48 c7 85 c0 fe ff ff 	movq   $0x0,-0x140(%rbp)
    f31f:	00 00 00 00 
    f323:	48 8d 05 b6 2d 01 00 	lea    0x12db6(%rip),%rax        # 220e0 <g_6>
    f32a:	48 89 85 c8 fe ff ff 	mov    %rax,-0x138(%rbp)
    f331:	48 8d 85 80 ea ff ff 	lea    -0x1580(%rbp),%rax
    f338:	48 83 c0 10          	add    $0x10,%rax
    f33c:	48 89 85 d0 fe ff ff 	mov    %rax,-0x130(%rbp)
    f343:	48 c7 85 d8 fe ff ff 	movq   $0x0,-0x128(%rbp)
    f34a:	00 00 00 00 
    f34e:	48 8d 85 90 e7 ff ff 	lea    -0x1870(%rbp),%rax
    f355:	48 89 85 e0 fe ff ff 	mov    %rax,-0x120(%rbp)
    f35c:	48 8d 85 90 e7 ff ff 	lea    -0x1870(%rbp),%rax
    f363:	48 89 85 e8 fe ff ff 	mov    %rax,-0x118(%rbp)
    f36a:	48 8d 85 a4 e7 ff ff 	lea    -0x185c(%rbp),%rax
    f371:	48 89 85 f0 fe ff ff 	mov    %rax,-0x110(%rbp)
    f378:	48 8d 85 a0 e7 ff ff 	lea    -0x1860(%rbp),%rax
    f37f:	48 89 85 f8 fe ff ff 	mov    %rax,-0x108(%rbp)
    f386:	48 c7 85 00 ff ff ff 	movq   $0x0,-0x100(%rbp)
    f38d:	00 00 00 00 
    f391:	48 8d 85 80 ea ff ff 	lea    -0x1580(%rbp),%rax
    f398:	48 83 c0 10          	add    $0x10,%rax
    f39c:	48 89 85 08 ff ff ff 	mov    %rax,-0xf8(%rbp)
    f3a3:	48 c7 85 10 ff ff ff 	movq   $0x0,-0xf0(%rbp)
    f3aa:	00 00 00 00 
    f3ae:	48 c7 85 18 ff ff ff 	movq   $0x0,-0xe8(%rbp)
    f3b5:	00 00 00 00 
    f3b9:	48 c7 85 20 ff ff ff 	movq   $0x0,-0xe0(%rbp)
    f3c0:	00 00 00 00 
    f3c4:	48 8d 85 f0 ea ff ff 	lea    -0x1510(%rbp),%rax
    f3cb:	48 83 c0 2c          	add    $0x2c,%rax
    f3cf:	48 89 85 28 ff ff ff 	mov    %rax,-0xd8(%rbp)
    f3d6:	48 c7 85 30 ff ff ff 	movq   $0x0,-0xd0(%rbp)
    f3dd:	00 00 00 00 
    f3e1:	48 c7 85 38 ff ff ff 	movq   $0x0,-0xc8(%rbp)
    f3e8:	00 00 00 00 
    f3ec:	48 8d 85 80 ea ff ff 	lea    -0x1580(%rbp),%rax
    f3f3:	48 83 c0 08          	add    $0x8,%rax
    f3f7:	48 89 85 40 ff ff ff 	mov    %rax,-0xc0(%rbp)
    f3fe:	48 c7 85 48 ff ff ff 	movq   $0x0,-0xb8(%rbp)
    f405:	00 00 00 00 
    f409:	48 8d 85 a4 e7 ff ff 	lea    -0x185c(%rbp),%rax
    f410:	48 89 85 50 ff ff ff 	mov    %rax,-0xb0(%rbp)
    f417:	48 8d 85 90 e7 ff ff 	lea    -0x1870(%rbp),%rax
    f41e:	48 89 85 58 ff ff ff 	mov    %rax,-0xa8(%rbp)
    f425:	c7 85 d0 e7 ff ff 00 	movl   $0x0,-0x1830(%rbp)
    f42c:	00 00 00 
    f42f:	eb 1b                	jmp    f44c <func_18+0x39c9>
    f431:	8b 85 d0 e7 ff ff    	mov    -0x1830(%rbp),%eax
    f437:	48 98                	cltq   
    f439:	48 c7 84 c5 80 eb ff 	movq   $0xfffffffffffffffd,-0x1480(%rbp,%rax,8)
    f440:	ff fd ff ff ff 
    f445:	83 85 d0 e7 ff ff 01 	addl   $0x1,-0x1830(%rbp)
    f44c:	83 bd d0 e7 ff ff 02 	cmpl   $0x2,-0x1830(%rbp)
    f453:	7e dc                	jle    f431 <func_18+0x39ae>
    f455:	8b 85 98 e7 ff ff    	mov    -0x1868(%rbp),%eax
    f45b:	83 e8 01             	sub    $0x1,%eax
    f45e:	89 85 98 e7 ff ff    	mov    %eax,-0x1868(%rbp)
    f464:	48 8b 85 c0 e9 ff ff 	mov    -0x1640(%rbp),%rax
    f46b:	e9 0d 18 00 00       	jmpq   10c7d <func_18+0x51fa>
    f470:	48 8d 85 9c e7 ff ff 	lea    -0x1864(%rbp),%rax
    f477:	48 89 85 e0 f7 ff ff 	mov    %rax,-0x820(%rbp)
    f47e:	48 8d 05 67 77 01 00 	lea    0x17767(%rip),%rax        # 26bec <g_2371+0x4>
    f485:	48 89 85 e8 f7 ff ff 	mov    %rax,-0x818(%rbp)
    f48c:	48 8d 05 8d 30 01 00 	lea    0x1308d(%rip),%rax        # 22520 <g_410>
    f493:	48 89 85 f0 f7 ff ff 	mov    %rax,-0x810(%rbp)
    f49a:	48 8d 05 fb 35 01 00 	lea    0x135fb(%rip),%rax        # 22a9c <g_2609>
    f4a1:	48 89 85 f8 f7 ff ff 	mov    %rax,-0x808(%rbp)
    f4a8:	48 8d 05 ad 2c 01 00 	lea    0x12cad(%rip),%rax        # 2215c <g_83>
    f4af:	48 89 85 00 f8 ff ff 	mov    %rax,-0x800(%rbp)
    f4b6:	48 8d 05 2f 77 01 00 	lea    0x1772f(%rip),%rax        # 26bec <g_2371+0x4>
    f4bd:	48 89 85 08 f8 ff ff 	mov    %rax,-0x7f8(%rbp)
    f4c4:	48 c7 85 10 f8 ff ff 	movq   $0x0,-0x7f0(%rbp)
    f4cb:	00 00 00 00 
    f4cf:	48 c7 85 18 f8 ff ff 	movq   $0x0,-0x7e8(%rbp)
    f4d6:	00 00 00 00 
    f4da:	48 8d 05 07 77 01 00 	lea    0x17707(%rip),%rax        # 26be8 <g_2371>
    f4e1:	48 89 85 20 f8 ff ff 	mov    %rax,-0x7e0(%rbp)
    f4e8:	48 8d 85 98 e7 ff ff 	lea    -0x1868(%rbp),%rax
    f4ef:	48 89 85 28 f8 ff ff 	mov    %rax,-0x7d8(%rbp)
    f4f6:	48 8d 05 5f 2c 01 00 	lea    0x12c5f(%rip),%rax        # 2215c <g_83>
    f4fd:	48 89 85 30 f8 ff ff 	mov    %rax,-0x7d0(%rbp)
    f504:	48 8d 05 8d 30 01 00 	lea    0x1308d(%rip),%rax        # 22598 <g_660>
    f50b:	48 89 85 38 f8 ff ff 	mov    %rax,-0x7c8(%rbp)
    f512:	48 8d 05 07 30 01 00 	lea    0x13007(%rip),%rax        # 22520 <g_410>
    f519:	48 89 85 40 f8 ff ff 	mov    %rax,-0x7c0(%rbp)
    f520:	48 8d 05 f9 2f 01 00 	lea    0x12ff9(%rip),%rax        # 22520 <g_410>
    f527:	48 89 85 48 f8 ff ff 	mov    %rax,-0x7b8(%rbp)
    f52e:	48 8d 05 63 30 01 00 	lea    0x13063(%rip),%rax        # 22598 <g_660>
    f535:	48 89 85 50 f8 ff ff 	mov    %rax,-0x7b0(%rbp)
    f53c:	48 8d 05 59 35 01 00 	lea    0x13559(%rip),%rax        # 22a9c <g_2609>
    f543:	48 89 85 58 f8 ff ff 	mov    %rax,-0x7a8(%rbp)
    f54a:	48 c7 85 60 f8 ff ff 	movq   $0x0,-0x7a0(%rbp)
    f551:	00 00 00 00 
    f555:	48 8d 05 00 2c 01 00 	lea    0x12c00(%rip),%rax        # 2215c <g_83>
    f55c:	48 89 85 68 f8 ff ff 	mov    %rax,-0x798(%rbp)
    f563:	48 8d 05 7e 76 01 00 	lea    0x1767e(%rip),%rax        # 26be8 <g_2371>
    f56a:	48 89 85 70 f8 ff ff 	mov    %rax,-0x790(%rbp)
    f571:	48 8d 05 e4 2b 01 00 	lea    0x12be4(%rip),%rax        # 2215c <g_83>
    f578:	48 89 85 78 f8 ff ff 	mov    %rax,-0x788(%rbp)
    f57f:	48 8d 05 d6 2b 01 00 	lea    0x12bd6(%rip),%rax        # 2215c <g_83>
    f586:	48 89 85 80 f8 ff ff 	mov    %rax,-0x780(%rbp)
    f58d:	48 8d 05 c8 2b 01 00 	lea    0x12bc8(%rip),%rax        # 2215c <g_83>
    f594:	48 89 85 88 f8 ff ff 	mov    %rax,-0x778(%rbp)
    f59b:	48 8d 05 ba 2b 01 00 	lea    0x12bba(%rip),%rax        # 2215c <g_83>
    f5a2:	48 89 85 90 f8 ff ff 	mov    %rax,-0x770(%rbp)
    f5a9:	48 8d 85 98 e7 ff ff 	lea    -0x1868(%rbp),%rax
    f5b0:	48 89 85 98 f8 ff ff 	mov    %rax,-0x768(%rbp)
    f5b7:	48 8d 05 62 2f 01 00 	lea    0x12f62(%rip),%rax        # 22520 <g_410>
    f5be:	48 89 85 a0 f8 ff ff 	mov    %rax,-0x760(%rbp)
    f5c5:	48 8d 05 1c 76 01 00 	lea    0x1761c(%rip),%rax        # 26be8 <g_2371>
    f5cc:	48 89 85 a8 f8 ff ff 	mov    %rax,-0x758(%rbp)
    f5d3:	48 8d 05 46 2f 01 00 	lea    0x12f46(%rip),%rax        # 22520 <g_410>
    f5da:	48 89 85 b0 f8 ff ff 	mov    %rax,-0x750(%rbp)
    f5e1:	48 8d 85 9c e7 ff ff 	lea    -0x1864(%rbp),%rax
    f5e8:	48 89 85 b8 f8 ff ff 	mov    %rax,-0x748(%rbp)
    f5ef:	48 8d 05 f2 75 01 00 	lea    0x175f2(%rip),%rax        # 26be8 <g_2371>
    f5f6:	48 89 85 c0 f8 ff ff 	mov    %rax,-0x740(%rbp)
    f5fd:	48 c7 85 c8 f8 ff ff 	movq   $0x0,-0x738(%rbp)
    f604:	00 00 00 00 
    f608:	48 8d 05 89 2f 01 00 	lea    0x12f89(%rip),%rax        # 22598 <g_660>
    f60f:	48 89 85 d0 f8 ff ff 	mov    %rax,-0x730(%rbp)
    f616:	48 c7 85 d8 f8 ff ff 	movq   $0x0,-0x728(%rbp)
    f61d:	00 00 00 00 
    f621:	48 8d 05 c0 75 01 00 	lea    0x175c0(%rip),%rax        # 26be8 <g_2371>
    f628:	48 89 85 e0 f8 ff ff 	mov    %rax,-0x720(%rbp)
    f62f:	48 8d 05 66 34 01 00 	lea    0x13466(%rip),%rax        # 22a9c <g_2609>
    f636:	48 89 85 e8 f8 ff ff 	mov    %rax,-0x718(%rbp)
    f63d:	48 8d 85 98 e7 ff ff 	lea    -0x1868(%rbp),%rax
    f644:	48 89 85 f0 f8 ff ff 	mov    %rax,-0x710(%rbp)
    f64b:	48 8d 05 4a 34 01 00 	lea    0x1344a(%rip),%rax        # 22a9c <g_2609>
    f652:	48 89 85 f8 f8 ff ff 	mov    %rax,-0x708(%rbp)
    f659:	48 8d 05 88 75 01 00 	lea    0x17588(%rip),%rax        # 26be8 <g_2371>
    f660:	48 89 85 00 f9 ff ff 	mov    %rax,-0x700(%rbp)
    f667:	48 8d 05 b2 2e 01 00 	lea    0x12eb2(%rip),%rax        # 22520 <g_410>
    f66e:	48 89 85 08 f9 ff ff 	mov    %rax,-0x6f8(%rbp)
    f675:	48 8d 05 1c 2f 01 00 	lea    0x12f1c(%rip),%rax        # 22598 <g_660>
    f67c:	48 89 85 10 f9 ff ff 	mov    %rax,-0x6f0(%rbp)
    f683:	48 8d 05 12 34 01 00 	lea    0x13412(%rip),%rax        # 22a9c <g_2609>
    f68a:	48 89 85 18 f9 ff ff 	mov    %rax,-0x6e8(%rbp)
    f691:	48 8d 05 58 75 01 00 	lea    0x17558(%rip),%rax        # 26bf0 <g_2371+0x8>
    f698:	48 89 85 20 f9 ff ff 	mov    %rax,-0x6e0(%rbp)
    f69f:	48 8d 05 46 75 01 00 	lea    0x17546(%rip),%rax        # 26bec <g_2371+0x4>
    f6a6:	48 89 85 28 f9 ff ff 	mov    %rax,-0x6d8(%rbp)
    f6ad:	48 8d 05 e4 2e 01 00 	lea    0x12ee4(%rip),%rax        # 22598 <g_660>
    f6b4:	48 89 85 30 f9 ff ff 	mov    %rax,-0x6d0(%rbp)
    f6bb:	48 8d 05 9a 2a 01 00 	lea    0x12a9a(%rip),%rax        # 2215c <g_83>
    f6c2:	48 89 85 38 f9 ff ff 	mov    %rax,-0x6c8(%rbp)
    f6c9:	48 8d 85 98 e7 ff ff 	lea    -0x1868(%rbp),%rax
    f6d0:	48 89 85 40 f9 ff ff 	mov    %rax,-0x6c0(%rbp)
    f6d7:	48 8d 85 9c e7 ff ff 	lea    -0x1864(%rbp),%rax
    f6de:	48 89 85 48 f9 ff ff 	mov    %rax,-0x6b8(%rbp)
    f6e5:	48 8d 05 04 75 01 00 	lea    0x17504(%rip),%rax        # 26bf0 <g_2371+0x8>
    f6ec:	48 89 85 50 f9 ff ff 	mov    %rax,-0x6b0(%rbp)
    f6f3:	48 c7 85 58 f9 ff ff 	movq   $0x0,-0x6a8(%rbp)
    f6fa:	00 00 00 00 
    f6fe:	48 8d 05 1b 2e 01 00 	lea    0x12e1b(%rip),%rax        # 22520 <g_410>
    f705:	48 89 85 60 f9 ff ff 	mov    %rax,-0x6a0(%rbp)
    f70c:	48 8d 85 98 e7 ff ff 	lea    -0x1868(%rbp),%rax
    f713:	48 89 85 68 f9 ff ff 	mov    %rax,-0x698(%rbp)
    f71a:	48 c7 85 70 f9 ff ff 	movq   $0x0,-0x690(%rbp)
    f721:	00 00 00 00 
    f725:	48 8d 05 30 2a 01 00 	lea    0x12a30(%rip),%rax        # 2215c <g_83>
    f72c:	48 89 85 78 f9 ff ff 	mov    %rax,-0x688(%rbp)
    f733:	48 8d 05 62 33 01 00 	lea    0x13362(%rip),%rax        # 22a9c <g_2609>
    f73a:	48 89 85 80 f9 ff ff 	mov    %rax,-0x680(%rbp)
    f741:	48 8d 05 a0 74 01 00 	lea    0x174a0(%rip),%rax        # 26be8 <g_2371>
    f748:	48 89 85 88 f9 ff ff 	mov    %rax,-0x678(%rbp)
    f74f:	48 8d 05 92 74 01 00 	lea    0x17492(%rip),%rax        # 26be8 <g_2371>
    f756:	48 89 85 90 f9 ff ff 	mov    %rax,-0x670(%rbp)
    f75d:	48 8d 05 f8 29 01 00 	lea    0x129f8(%rip),%rax        # 2215c <g_83>
    f764:	48 89 85 98 f9 ff ff 	mov    %rax,-0x668(%rbp)
    f76b:	48 8d 85 98 e7 ff ff 	lea    -0x1868(%rbp),%rax
    f772:	48 89 85 a0 f9 ff ff 	mov    %rax,-0x660(%rbp)
    f779:	48 8d 05 1c 33 01 00 	lea    0x1331c(%rip),%rax        # 22a9c <g_2609>
    f780:	48 89 85 a8 f9 ff ff 	mov    %rax,-0x658(%rbp)
    f787:	48 8d 05 0a 2e 01 00 	lea    0x12e0a(%rip),%rax        # 22598 <g_660>
    f78e:	48 89 85 b0 f9 ff ff 	mov    %rax,-0x650(%rbp)
    f795:	48 8d 85 9c e7 ff ff 	lea    -0x1864(%rbp),%rax
    f79c:	48 89 85 b8 f9 ff ff 	mov    %rax,-0x648(%rbp)
    f7a3:	48 8d 05 76 2d 01 00 	lea    0x12d76(%rip),%rax        # 22520 <g_410>
    f7aa:	48 89 85 c0 f9 ff ff 	mov    %rax,-0x640(%rbp)
    f7b1:	48 8d 85 9c e7 ff ff 	lea    -0x1864(%rbp),%rax
    f7b8:	48 89 85 c8 f9 ff ff 	mov    %rax,-0x638(%rbp)
    f7bf:	48 8d 05 96 29 01 00 	lea    0x12996(%rip),%rax        # 2215c <g_83>
    f7c6:	48 89 85 d0 f9 ff ff 	mov    %rax,-0x630(%rbp)
    f7cd:	48 8d 85 98 e7 ff ff 	lea    -0x1868(%rbp),%rax
    f7d4:	48 89 85 d8 f9 ff ff 	mov    %rax,-0x628(%rbp)
    f7db:	48 8d 85 9c e7 ff ff 	lea    -0x1864(%rbp),%rax
    f7e2:	48 89 85 e0 f9 ff ff 	mov    %rax,-0x620(%rbp)
    f7e9:	48 8d 05 f8 73 01 00 	lea    0x173f8(%rip),%rax        # 26be8 <g_2371>
    f7f0:	48 89 85 e8 f9 ff ff 	mov    %rax,-0x618(%rbp)
    f7f7:	48 c7 85 f0 f9 ff ff 	movq   $0x0,-0x610(%rbp)
    f7fe:	00 00 00 00 
    f802:	48 c7 85 f8 f9 ff ff 	movq   $0x0,-0x608(%rbp)
    f809:	00 00 00 00 
    f80d:	48 8d 05 0c 2d 01 00 	lea    0x12d0c(%rip),%rax        # 22520 <g_410>
    f814:	48 89 85 00 fa ff ff 	mov    %rax,-0x600(%rbp)
    f81b:	48 8d 05 7a 32 01 00 	lea    0x1327a(%rip),%rax        # 22a9c <g_2609>
    f822:	48 89 85 08 fa ff ff 	mov    %rax,-0x5f8(%rbp)
    f829:	48 8d 85 98 e7 ff ff 	lea    -0x1868(%rbp),%rax
    f830:	48 89 85 10 fa ff ff 	mov    %rax,-0x5f0(%rbp)
    f837:	48 8d 05 b2 73 01 00 	lea    0x173b2(%rip),%rax        # 26bf0 <g_2371+0x8>
    f83e:	48 89 85 18 fa ff ff 	mov    %rax,-0x5e8(%rbp)
    f845:	48 8d 85 9c e7 ff ff 	lea    -0x1864(%rbp),%rax
    f84c:	48 89 85 20 fa ff ff 	mov    %rax,-0x5e0(%rbp)
    f853:	48 8d 05 8e 73 01 00 	lea    0x1738e(%rip),%rax        # 26be8 <g_2371>
    f85a:	48 89 85 28 fa ff ff 	mov    %rax,-0x5d8(%rbp)
    f861:	48 8d 05 30 2d 01 00 	lea    0x12d30(%rip),%rax        # 22598 <g_660>
    f868:	48 89 85 30 fa ff ff 	mov    %rax,-0x5d0(%rbp)
    f86f:	48 8d 05 26 32 01 00 	lea    0x13226(%rip),%rax        # 22a9c <g_2609>
    f876:	48 89 85 38 fa ff ff 	mov    %rax,-0x5c8(%rbp)
    f87d:	48 8d 05 18 32 01 00 	lea    0x13218(%rip),%rax        # 22a9c <g_2609>
    f884:	48 89 85 40 fa ff ff 	mov    %rax,-0x5c0(%rbp)
    f88b:	48 8d 05 56 73 01 00 	lea    0x17356(%rip),%rax        # 26be8 <g_2371>
    f892:	48 89 85 48 fa ff ff 	mov    %rax,-0x5b8(%rbp)
    f899:	48 c7 85 50 fa ff ff 	movq   $0x0,-0x5b0(%rbp)
    f8a0:	00 00 00 00 
    f8a4:	48 8d 85 9c e7 ff ff 	lea    -0x1864(%rbp),%rax
    f8ab:	48 89 85 58 fa ff ff 	mov    %rax,-0x5a8(%rbp)
    f8b2:	48 8d 05 df 2c 01 00 	lea    0x12cdf(%rip),%rax        # 22598 <g_660>
    f8b9:	48 89 85 60 fa ff ff 	mov    %rax,-0x5a0(%rbp)
    f8c0:	48 8d 05 21 73 01 00 	lea    0x17321(%rip),%rax        # 26be8 <g_2371>
    f8c7:	48 89 85 68 fa ff ff 	mov    %rax,-0x598(%rbp)
    f8ce:	48 8d 05 13 73 01 00 	lea    0x17313(%rip),%rax        # 26be8 <g_2371>
    f8d5:	48 89 85 70 fa ff ff 	mov    %rax,-0x590(%rbp)
    f8dc:	48 8d 05 b9 31 01 00 	lea    0x131b9(%rip),%rax        # 22a9c <g_2609>
    f8e3:	48 89 85 78 fa ff ff 	mov    %rax,-0x588(%rbp)
    f8ea:	48 8d 05 a7 2c 01 00 	lea    0x12ca7(%rip),%rax        # 22598 <g_660>
    f8f1:	48 89 85 80 fa ff ff 	mov    %rax,-0x580(%rbp)
    f8f8:	48 8d 05 99 2c 01 00 	lea    0x12c99(%rip),%rax        # 22598 <g_660>
    f8ff:	48 89 85 88 fa ff ff 	mov    %rax,-0x578(%rbp)
    f906:	48 8d 05 8b 2c 01 00 	lea    0x12c8b(%rip),%rax        # 22598 <g_660>
    f90d:	48 89 85 90 fa ff ff 	mov    %rax,-0x570(%rbp)
    f914:	48 8d 05 81 31 01 00 	lea    0x13181(%rip),%rax        # 22a9c <g_2609>
    f91b:	48 89 85 98 fa ff ff 	mov    %rax,-0x568(%rbp)
    f922:	48 8d 05 73 31 01 00 	lea    0x13173(%rip),%rax        # 22a9c <g_2609>
    f929:	48 89 85 a0 fa ff ff 	mov    %rax,-0x560(%rbp)
    f930:	48 8d 05 b5 72 01 00 	lea    0x172b5(%rip),%rax        # 26bec <g_2371+0x4>
    f937:	48 89 85 a8 fa ff ff 	mov    %rax,-0x558(%rbp)
    f93e:	48 8d 05 ab 72 01 00 	lea    0x172ab(%rip),%rax        # 26bf0 <g_2371+0x8>
    f945:	48 89 85 b0 fa ff ff 	mov    %rax,-0x550(%rbp)
    f94c:	48 8d 05 99 72 01 00 	lea    0x17299(%rip),%rax        # 26bec <g_2371+0x4>
    f953:	48 89 85 b8 fa ff ff 	mov    %rax,-0x548(%rbp)
    f95a:	48 8d 05 37 2c 01 00 	lea    0x12c37(%rip),%rax        # 22598 <g_660>
    f961:	48 89 85 c0 fa ff ff 	mov    %rax,-0x540(%rbp)
    f968:	48 c7 85 c8 fa ff ff 	movq   $0x0,-0x538(%rbp)
    f96f:	00 00 00 00 
    f973:	48 8d 05 1e 2c 01 00 	lea    0x12c1e(%rip),%rax        # 22598 <g_660>
    f97a:	48 89 85 d0 fa ff ff 	mov    %rax,-0x530(%rbp)
    f981:	48 8d 05 60 72 01 00 	lea    0x17260(%rip),%rax        # 26be8 <g_2371>
    f988:	48 89 85 d8 fa ff ff 	mov    %rax,-0x528(%rbp)
    f98f:	48 8d 05 52 72 01 00 	lea    0x17252(%rip),%rax        # 26be8 <g_2371>
    f996:	48 89 85 e0 fa ff ff 	mov    %rax,-0x520(%rbp)
    f99d:	48 8d 05 b8 27 01 00 	lea    0x127b8(%rip),%rax        # 2215c <g_83>
    f9a4:	48 89 85 e8 fa ff ff 	mov    %rax,-0x518(%rbp)
    f9ab:	48 8d 05 6e 2b 01 00 	lea    0x12b6e(%rip),%rax        # 22520 <g_410>
    f9b2:	48 89 85 f0 fa ff ff 	mov    %rax,-0x510(%rbp)
    f9b9:	48 8d 05 30 72 01 00 	lea    0x17230(%rip),%rax        # 26bf0 <g_2371+0x8>
    f9c0:	48 89 85 f8 fa ff ff 	mov    %rax,-0x508(%rbp)
    f9c7:	48 8d 05 1e 72 01 00 	lea    0x1721e(%rip),%rax        # 26bec <g_2371+0x4>
    f9ce:	48 89 85 00 fb ff ff 	mov    %rax,-0x500(%rbp)
    f9d5:	48 8d 05 c0 30 01 00 	lea    0x130c0(%rip),%rax        # 22a9c <g_2609>
    f9dc:	48 89 85 08 fb ff ff 	mov    %rax,-0x4f8(%rbp)
    f9e3:	48 8d 05 fe 71 01 00 	lea    0x171fe(%rip),%rax        # 26be8 <g_2371>
    f9ea:	48 89 85 10 fb ff ff 	mov    %rax,-0x4f0(%rbp)
    f9f1:	48 c7 85 18 fb ff ff 	movq   $0x0,-0x4e8(%rbp)
    f9f8:	00 00 00 00 
    f9fc:	48 c7 85 20 fb ff ff 	movq   $0x0,-0x4e0(%rbp)
    fa03:	00 00 00 00 
    fa07:	48 8d 05 8e 30 01 00 	lea    0x1308e(%rip),%rax        # 22a9c <g_2609>
    fa0e:	48 89 85 28 fb ff ff 	mov    %rax,-0x4d8(%rbp)
    fa15:	48 8d 05 cc 71 01 00 	lea    0x171cc(%rip),%rax        # 26be8 <g_2371>
    fa1c:	48 89 85 30 fb ff ff 	mov    %rax,-0x4d0(%rbp)
    fa23:	48 8d 05 be 71 01 00 	lea    0x171be(%rip),%rax        # 26be8 <g_2371>
    fa2a:	48 89 85 38 fb ff ff 	mov    %rax,-0x4c8(%rbp)
    fa31:	48 8d 05 e8 2a 01 00 	lea    0x12ae8(%rip),%rax        # 22520 <g_410>
    fa38:	48 89 85 40 fb ff ff 	mov    %rax,-0x4c0(%rbp)
    fa3f:	48 8d 85 98 e7 ff ff 	lea    -0x1868(%rbp),%rax
    fa46:	48 89 85 48 fb ff ff 	mov    %rax,-0x4b8(%rbp)
    fa4d:	48 8d 85 98 e7 ff ff 	lea    -0x1868(%rbp),%rax
    fa54:	48 89 85 50 fb ff ff 	mov    %rax,-0x4b0(%rbp)
    fa5b:	48 8d 05 fa 26 01 00 	lea    0x126fa(%rip),%rax        # 2215c <g_83>
    fa62:	48 89 85 58 fb ff ff 	mov    %rax,-0x4a8(%rbp)
    fa69:	48 8d 05 ec 26 01 00 	lea    0x126ec(%rip),%rax        # 2215c <g_83>
    fa70:	48 89 85 60 fb ff ff 	mov    %rax,-0x4a0(%rbp)
    fa77:	48 8d 85 98 e7 ff ff 	lea    -0x1868(%rbp),%rax
    fa7e:	48 89 85 68 fb ff ff 	mov    %rax,-0x498(%rbp)
    fa85:	48 8d 05 5c 71 01 00 	lea    0x1715c(%rip),%rax        # 26be8 <g_2371>
    fa8c:	48 89 85 70 fb ff ff 	mov    %rax,-0x490(%rbp)
    fa93:	48 8d 85 98 e7 ff ff 	lea    -0x1868(%rbp),%rax
    fa9a:	48 89 85 78 fb ff ff 	mov    %rax,-0x488(%rbp)
    faa1:	48 8d 05 78 2a 01 00 	lea    0x12a78(%rip),%rax        # 22520 <g_410>
    faa8:	48 89 85 80 fb ff ff 	mov    %rax,-0x480(%rbp)
    faaf:	48 8d 05 32 71 01 00 	lea    0x17132(%rip),%rax        # 26be8 <g_2371>
    fab6:	48 89 85 88 fb ff ff 	mov    %rax,-0x478(%rbp)
    fabd:	48 8d 85 98 e7 ff ff 	lea    -0x1868(%rbp),%rax
    fac4:	48 89 85 90 fb ff ff 	mov    %rax,-0x470(%rbp)
    facb:	48 8d 85 98 e7 ff ff 	lea    -0x1868(%rbp),%rax
    fad2:	48 89 85 98 fb ff ff 	mov    %rax,-0x468(%rbp)
    fad9:	48 8d 05 08 71 01 00 	lea    0x17108(%rip),%rax        # 26be8 <g_2371>
    fae0:	48 89 85 a0 fb ff ff 	mov    %rax,-0x460(%rbp)
    fae7:	48 8d 85 98 e7 ff ff 	lea    -0x1868(%rbp),%rax
    faee:	48 89 85 a8 fb ff ff 	mov    %rax,-0x458(%rbp)
    faf5:	48 8d 05 60 26 01 00 	lea    0x12660(%rip),%rax        # 2215c <g_83>
    fafc:	48 89 85 b0 fb ff ff 	mov    %rax,-0x450(%rbp)
    fb03:	48 8d 85 98 e7 ff ff 	lea    -0x1868(%rbp),%rax
    fb0a:	48 89 85 b8 fb ff ff 	mov    %rax,-0x448(%rbp)
    fb11:	48 8d 05 44 26 01 00 	lea    0x12644(%rip),%rax        # 2215c <g_83>
    fb18:	48 89 85 c0 fb ff ff 	mov    %rax,-0x440(%rbp)
    fb1f:	48 8d 05 c6 70 01 00 	lea    0x170c6(%rip),%rax        # 26bec <g_2371+0x4>
    fb26:	48 89 85 c8 fb ff ff 	mov    %rax,-0x438(%rbp)
    fb2d:	48 8d 05 64 2a 01 00 	lea    0x12a64(%rip),%rax        # 22598 <g_660>
    fb34:	48 89 85 d0 fb ff ff 	mov    %rax,-0x430(%rbp)
    fb3b:	48 8d 85 98 e7 ff ff 	lea    -0x1868(%rbp),%rax
    fb42:	48 89 85 d8 fb ff ff 	mov    %rax,-0x428(%rbp)
    fb49:	48 8d 85 9c e7 ff ff 	lea    -0x1864(%rbp),%rax
    fb50:	48 89 85 e0 fb ff ff 	mov    %rax,-0x420(%rbp)
    fb57:	48 8d 05 3e 2f 01 00 	lea    0x12f3e(%rip),%rax        # 22a9c <g_2609>
    fb5e:	48 89 85 e8 fb ff ff 	mov    %rax,-0x418(%rbp)
    fb65:	48 8d 05 7c 70 01 00 	lea    0x1707c(%rip),%rax        # 26be8 <g_2371>
    fb6c:	48 89 85 f0 fb ff ff 	mov    %rax,-0x410(%rbp)
    fb73:	48 8d 05 e2 25 01 00 	lea    0x125e2(%rip),%rax        # 2215c <g_83>
    fb7a:	48 89 85 f8 fb ff ff 	mov    %rax,-0x408(%rbp)
    fb81:	48 8d 05 10 2a 01 00 	lea    0x12a10(%rip),%rax        # 22598 <g_660>
    fb88:	48 89 85 00 fc ff ff 	mov    %rax,-0x400(%rbp)
    fb8f:	48 c7 85 08 fc ff ff 	movq   $0x0,-0x3f8(%rbp)
    fb96:	00 00 00 00 
    fb9a:	48 8d 05 7f 29 01 00 	lea    0x1297f(%rip),%rax        # 22520 <g_410>
    fba1:	48 89 85 10 fc ff ff 	mov    %rax,-0x3f0(%rbp)
    fba8:	48 c7 85 18 fc ff ff 	movq   $0x0,-0x3e8(%rbp)
    fbaf:	00 00 00 00 
    fbb3:	48 8d 05 32 70 01 00 	lea    0x17032(%rip),%rax        # 26bec <g_2371+0x4>
    fbba:	48 89 85 20 fc ff ff 	mov    %rax,-0x3e0(%rbp)
    fbc1:	48 8d 85 9c e7 ff ff 	lea    -0x1864(%rbp),%rax
    fbc8:	48 89 85 28 fc ff ff 	mov    %rax,-0x3d8(%rbp)
    fbcf:	48 c7 85 30 fc ff ff 	movq   $0x0,-0x3d0(%rbp)
    fbd6:	00 00 00 00 
    fbda:	48 8d 05 7b 25 01 00 	lea    0x1257b(%rip),%rax        # 2215c <g_83>
    fbe1:	48 89 85 38 fc ff ff 	mov    %rax,-0x3c8(%rbp)
    fbe8:	48 c7 85 40 fc ff ff 	movq   $0x0,-0x3c0(%rbp)
    fbef:	00 00 00 00 
    fbf3:	48 8d 05 62 25 01 00 	lea    0x12562(%rip),%rax        # 2215c <g_83>
    fbfa:	48 89 85 48 fc ff ff 	mov    %rax,-0x3b8(%rbp)
    fc01:	48 8d 05 90 29 01 00 	lea    0x12990(%rip),%rax        # 22598 <g_660>
    fc08:	48 89 85 50 fc ff ff 	mov    %rax,-0x3b0(%rbp)
    fc0f:	48 c7 85 58 fc ff ff 	movq   $0x0,-0x3a8(%rbp)
    fc16:	00 00 00 00 
    fc1a:	48 8d 85 98 e7 ff ff 	lea    -0x1868(%rbp),%rax
    fc21:	48 89 85 60 fc ff ff 	mov    %rax,-0x3a0(%rbp)
    fc28:	48 8d 05 bd 6f 01 00 	lea    0x16fbd(%rip),%rax        # 26bec <g_2371+0x4>
    fc2f:	48 89 85 68 fc ff ff 	mov    %rax,-0x398(%rbp)
    fc36:	48 8d 05 5b 29 01 00 	lea    0x1295b(%rip),%rax        # 22598 <g_660>
    fc3d:	48 89 85 70 fc ff ff 	mov    %rax,-0x390(%rbp)
    fc44:	48 8d 85 98 e7 ff ff 	lea    -0x1868(%rbp),%rax
    fc4b:	48 89 85 78 fc ff ff 	mov    %rax,-0x388(%rbp)
    fc52:	48 8d 05 43 2e 01 00 	lea    0x12e43(%rip),%rax        # 22a9c <g_2609>
    fc59:	48 89 85 80 fc ff ff 	mov    %rax,-0x380(%rbp)
    fc60:	48 8d 85 98 e7 ff ff 	lea    -0x1868(%rbp),%rax
    fc67:	48 89 85 88 fc ff ff 	mov    %rax,-0x378(%rbp)
    fc6e:	48 8d 05 73 6f 01 00 	lea    0x16f73(%rip),%rax        # 26be8 <g_2371>
    fc75:	48 89 85 90 fc ff ff 	mov    %rax,-0x370(%rbp)
    fc7c:	48 8d 05 15 29 01 00 	lea    0x12915(%rip),%rax        # 22598 <g_660>
    fc83:	48 89 85 98 fc ff ff 	mov    %rax,-0x368(%rbp)
    fc8a:	48 8d 05 cb 24 01 00 	lea    0x124cb(%rip),%rax        # 2215c <g_83>
    fc91:	48 89 85 a0 fc ff ff 	mov    %rax,-0x360(%rbp)
    fc98:	48 8d 85 9c e7 ff ff 	lea    -0x1864(%rbp),%rax
    fc9f:	48 89 85 a8 fc ff ff 	mov    %rax,-0x358(%rbp)
    fca6:	48 8d 05 ef 2d 01 00 	lea    0x12def(%rip),%rax        # 22a9c <g_2609>
    fcad:	48 89 85 b0 fc ff ff 	mov    %rax,-0x350(%rbp)
    fcb4:	48 8d 05 e1 2d 01 00 	lea    0x12de1(%rip),%rax        # 22a9c <g_2609>
    fcbb:	48 89 85 b8 fc ff ff 	mov    %rax,-0x348(%rbp)
    fcc2:	48 8d 05 93 24 01 00 	lea    0x12493(%rip),%rax        # 2215c <g_83>
    fcc9:	48 89 85 c0 fc ff ff 	mov    %rax,-0x340(%rbp)
    fcd0:	48 8d 05 85 24 01 00 	lea    0x12485(%rip),%rax        # 2215c <g_83>
    fcd7:	48 89 85 c8 fc ff ff 	mov    %rax,-0x338(%rbp)
    fcde:	48 8d 05 03 6f 01 00 	lea    0x16f03(%rip),%rax        # 26be8 <g_2371>
    fce5:	48 89 85 d0 fc ff ff 	mov    %rax,-0x330(%rbp)
    fcec:	48 8d 05 a9 2d 01 00 	lea    0x12da9(%rip),%rax        # 22a9c <g_2609>
    fcf3:	48 89 85 d8 fc ff ff 	mov    %rax,-0x328(%rbp)
    fcfa:	48 8d 85 9c e7 ff ff 	lea    -0x1864(%rbp),%rax
    fd01:	48 89 85 e0 fc ff ff 	mov    %rax,-0x320(%rbp)
    fd08:	48 c7 85 e8 fc ff ff 	movq   $0x0,-0x318(%rbp)
    fd0f:	00 00 00 00 
    fd13:	48 8d 05 42 24 01 00 	lea    0x12442(%rip),%rax        # 2215c <g_83>
    fd1a:	48 89 85 f0 fc ff ff 	mov    %rax,-0x310(%rbp)
    fd21:	48 8d 05 c0 6e 01 00 	lea    0x16ec0(%rip),%rax        # 26be8 <g_2371>
    fd28:	48 89 85 f8 fc ff ff 	mov    %rax,-0x308(%rbp)
    fd2f:	48 8d 05 b2 6e 01 00 	lea    0x16eb2(%rip),%rax        # 26be8 <g_2371>
    fd36:	48 89 85 00 fd ff ff 	mov    %rax,-0x300(%rbp)
    fd3d:	48 8d 85 9c e7 ff ff 	lea    -0x1864(%rbp),%rax
    fd44:	48 89 85 08 fd ff ff 	mov    %rax,-0x2f8(%rbp)
    fd4b:	48 c7 85 10 fd ff ff 	movq   $0x0,-0x2f0(%rbp)
    fd52:	00 00 00 00 
    fd56:	48 8d 05 3f 2d 01 00 	lea    0x12d3f(%rip),%rax        # 22a9c <g_2609>
    fd5d:	48 89 85 18 fd ff ff 	mov    %rax,-0x2e8(%rbp)
    fd64:	48 8d 05 7d 6e 01 00 	lea    0x16e7d(%rip),%rax        # 26be8 <g_2371>
    fd6b:	48 89 85 20 fd ff ff 	mov    %rax,-0x2e0(%rbp)
    fd72:	48 8d 05 a7 27 01 00 	lea    0x127a7(%rip),%rax        # 22520 <g_410>
    fd79:	48 89 85 28 fd ff ff 	mov    %rax,-0x2d8(%rbp)
    fd80:	48 c7 85 30 fd ff ff 	movq   $0x0,-0x2d0(%rbp)
    fd87:	00 00 00 00 
    fd8b:	48 8d 85 98 e7 ff ff 	lea    -0x1868(%rbp),%rax
    fd92:	48 89 85 38 fd ff ff 	mov    %rax,-0x2c8(%rbp)
    fd99:	48 8d 05 fc 2c 01 00 	lea    0x12cfc(%rip),%rax        # 22a9c <g_2609>
    fda0:	48 89 85 40 fd ff ff 	mov    %rax,-0x2c0(%rbp)
    fda7:	48 8d 05 42 6e 01 00 	lea    0x16e42(%rip),%rax        # 26bf0 <g_2371+0x8>
    fdae:	48 89 85 48 fd ff ff 	mov    %rax,-0x2b8(%rbp)
    fdb5:	48 8d 85 98 e7 ff ff 	lea    -0x1868(%rbp),%rax
    fdbc:	48 89 85 50 fd ff ff 	mov    %rax,-0x2b0(%rbp)
    fdc3:	48 c7 85 58 fd ff ff 	movq   $0x0,-0x2a8(%rbp)
    fdca:	00 00 00 00 
    fdce:	48 8d 05 1b 6e 01 00 	lea    0x16e1b(%rip),%rax        # 26bf0 <g_2371+0x8>
    fdd5:	48 89 85 60 fd ff ff 	mov    %rax,-0x2a0(%rbp)
    fddc:	48 8d 05 79 23 01 00 	lea    0x12379(%rip),%rax        # 2215c <g_83>
    fde3:	48 89 85 68 fd ff ff 	mov    %rax,-0x298(%rbp)
    fdea:	48 c7 85 70 fd ff ff 	movq   $0x0,-0x290(%rbp)
    fdf1:	00 00 00 00 
    fdf5:	48 8d 85 98 e7 ff ff 	lea    -0x1868(%rbp),%rax
    fdfc:	48 89 85 78 fd ff ff 	mov    %rax,-0x288(%rbp)
    fe03:	48 c7 85 80 fd ff ff 	movq   $0x0,-0x280(%rbp)
    fe0a:	00 00 00 00 
    fe0e:	48 8d 05 0b 27 01 00 	lea    0x1270b(%rip),%rax        # 22520 <g_410>
    fe15:	48 89 85 88 fd ff ff 	mov    %rax,-0x278(%rbp)
    fe1c:	48 8d 05 c5 6d 01 00 	lea    0x16dc5(%rip),%rax        # 26be8 <g_2371>
    fe23:	48 89 85 90 fd ff ff 	mov    %rax,-0x270(%rbp)
    fe2a:	48 c7 85 98 fd ff ff 	movq   $0x0,-0x268(%rbp)
    fe31:	00 00 00 00 
    fe35:	48 8d 05 ac 6d 01 00 	lea    0x16dac(%rip),%rax        # 26be8 <g_2371>
    fe3c:	48 89 85 a0 fd ff ff 	mov    %rax,-0x260(%rbp)
    fe43:	48 8d 05 4e 27 01 00 	lea    0x1274e(%rip),%rax        # 22598 <g_660>
    fe4a:	48 89 85 a8 fd ff ff 	mov    %rax,-0x258(%rbp)
    fe51:	48 8d 05 40 27 01 00 	lea    0x12740(%rip),%rax        # 22598 <g_660>
    fe58:	48 89 85 b0 fd ff ff 	mov    %rax,-0x250(%rbp)
    fe5f:	48 8d 85 98 e7 ff ff 	lea    -0x1868(%rbp),%rax
    fe66:	48 89 85 b8 fd ff ff 	mov    %rax,-0x248(%rbp)
    fe6d:	48 c7 85 c0 fd ff ff 	movq   $0x0,-0x240(%rbp)
    fe74:	00 00 00 00 
    fe78:	48 8d 05 1d 2c 01 00 	lea    0x12c1d(%rip),%rax        # 22a9c <g_2609>
    fe7f:	48 89 85 c8 fd ff ff 	mov    %rax,-0x238(%rbp)
    fe86:	48 8d 05 0f 2c 01 00 	lea    0x12c0f(%rip),%rax        # 22a9c <g_2609>
    fe8d:	48 89 85 d0 fd ff ff 	mov    %rax,-0x230(%rbp)
    fe94:	48 c7 85 d8 fd ff ff 	movq   $0x0,-0x228(%rbp)
    fe9b:	00 00 00 00 
    fe9f:	48 8d 05 f2 26 01 00 	lea    0x126f2(%rip),%rax        # 22598 <g_660>
    fea6:	48 89 85 e0 fd ff ff 	mov    %rax,-0x220(%rbp)
    fead:	48 8d 05 34 6d 01 00 	lea    0x16d34(%rip),%rax        # 26be8 <g_2371>
    feb4:	48 89 85 e8 fd ff ff 	mov    %rax,-0x218(%rbp)
    febb:	48 8d 05 5e 26 01 00 	lea    0x1265e(%rip),%rax        # 22520 <g_410>
    fec2:	48 89 85 f0 fd ff ff 	mov    %rax,-0x210(%rbp)
    fec9:	48 8d 85 98 e7 ff ff 	lea    -0x1868(%rbp),%rax
    fed0:	48 89 85 f8 fd ff ff 	mov    %rax,-0x208(%rbp)
    fed7:	48 8d 05 7e 22 01 00 	lea    0x1227e(%rip),%rax        # 2215c <g_83>
    fede:	48 89 85 00 fe ff ff 	mov    %rax,-0x200(%rbp)
    fee5:	48 8d 05 fc 6c 01 00 	lea    0x16cfc(%rip),%rax        # 26be8 <g_2371>
    feec:	48 89 85 08 fe ff ff 	mov    %rax,-0x1f8(%rbp)
    fef3:	48 8d 05 ee 6c 01 00 	lea    0x16cee(%rip),%rax        # 26be8 <g_2371>
    fefa:	48 89 85 10 fe ff ff 	mov    %rax,-0x1f0(%rbp)
    ff01:	48 8d 85 98 e7 ff ff 	lea    -0x1868(%rbp),%rax
    ff08:	48 89 85 18 fe ff ff 	mov    %rax,-0x1e8(%rbp)
    ff0f:	48 8d 05 82 26 01 00 	lea    0x12682(%rip),%rax        # 22598 <g_660>
    ff16:	48 89 85 20 fe ff ff 	mov    %rax,-0x1e0(%rbp)
    ff1d:	48 8d 05 c4 6c 01 00 	lea    0x16cc4(%rip),%rax        # 26be8 <g_2371>
    ff24:	48 89 85 28 fe ff ff 	mov    %rax,-0x1d8(%rbp)
    ff2b:	48 8d 85 98 e7 ff ff 	lea    -0x1868(%rbp),%rax
    ff32:	48 89 85 30 fe ff ff 	mov    %rax,-0x1d0(%rbp)
    ff39:	48 8d 05 a8 6c 01 00 	lea    0x16ca8(%rip),%rax        # 26be8 <g_2371>
    ff40:	48 89 85 38 fe ff ff 	mov    %rax,-0x1c8(%rbp)
    ff47:	48 8d 05 9a 6c 01 00 	lea    0x16c9a(%rip),%rax        # 26be8 <g_2371>
    ff4e:	48 89 85 40 fe ff ff 	mov    %rax,-0x1c0(%rbp)
    ff55:	48 8d 05 94 6c 01 00 	lea    0x16c94(%rip),%rax        # 26bf0 <g_2371+0x8>
    ff5c:	48 89 85 48 fe ff ff 	mov    %rax,-0x1b8(%rbp)
    ff63:	48 8d 05 b6 25 01 00 	lea    0x125b6(%rip),%rax        # 22520 <g_410>
    ff6a:	48 89 85 50 fe ff ff 	mov    %rax,-0x1b0(%rbp)
    ff71:	48 8d 05 e4 21 01 00 	lea    0x121e4(%rip),%rax        # 2215c <g_83>
    ff78:	48 89 85 58 fe ff ff 	mov    %rax,-0x1a8(%rbp)
    ff7f:	48 8d 05 d6 21 01 00 	lea    0x121d6(%rip),%rax        # 2215c <g_83>
    ff86:	48 89 85 60 fe ff ff 	mov    %rax,-0x1a0(%rbp)
    ff8d:	48 c7 85 68 fe ff ff 	movq   $0x0,-0x198(%rbp)
    ff94:	00 00 00 00 
    ff98:	48 8d 85 e0 f7 ff ff 	lea    -0x820(%rbp),%rax
    ff9f:	48 05 60 01 00 00    	add    $0x160,%rax
    ffa5:	48 89 85 a0 e9 ff ff 	mov    %rax,-0x1660(%rbp)
    ffac:	c7 85 fc e7 ff ff 09 	movl   $0x9,-0x1804(%rbp)
    ffb3:	00 00 00 
    ffb6:	48 c7 85 a8 e9 ff ff 	movq   $0x0,-0x1658(%rbp)
    ffbd:	00 00 00 00 
    ffc1:	48 8d 05 80 28 01 00 	lea    0x12880(%rip),%rax        # 22848 <g_2306+0x18>
    ffc8:	48 89 85 b0 e9 ff ff 	mov    %rax,-0x1650(%rbp)
    ffcf:	48 c7 85 80 eb ff ff 	movq   $0x0,-0x1480(%rbp)
    ffd6:	00 00 00 00 
    ffda:	48 8d 85 ac e7 ff ff 	lea    -0x1854(%rbp),%rax
    ffe1:	48 89 85 88 eb ff ff 	mov    %rax,-0x1478(%rbp)
    ffe8:	48 8d 85 a0 e7 ff ff 	lea    -0x1860(%rbp),%rax
    ffef:	48 89 85 90 eb ff ff 	mov    %rax,-0x1470(%rbp)
    fff6:	48 8d 85 ac e7 ff ff 	lea    -0x1854(%rbp),%rax
    fffd:	48 89 85 98 eb ff ff 	mov    %rax,-0x1468(%rbp)
   10004:	48 c7 85 a0 eb ff ff 	movq   $0x0,-0x1460(%rbp)
   1000b:	00 00 00 00 
   1000f:	48 8d 85 ac e7 ff ff 	lea    -0x1854(%rbp),%rax
   10016:	48 89 85 a8 eb ff ff 	mov    %rax,-0x1458(%rbp)
   1001d:	48 8d 85 a0 e7 ff ff 	lea    -0x1860(%rbp),%rax
   10024:	48 89 85 b0 eb ff ff 	mov    %rax,-0x1450(%rbp)
   1002b:	48 8d 85 a8 e7 ff ff 	lea    -0x1858(%rbp),%rax
   10032:	48 89 85 b8 eb ff ff 	mov    %rax,-0x1448(%rbp)
   10039:	48 8d 05 10 25 01 00 	lea    0x12510(%rip),%rax        # 22550 <g_426+0x10>
   10040:	48 89 85 c0 eb ff ff 	mov    %rax,-0x1440(%rbp)
   10047:	48 8d 85 50 e8 ff ff 	lea    -0x17b0(%rbp),%rax
   1004e:	48 89 85 c8 eb ff ff 	mov    %rax,-0x1438(%rbp)
   10055:	48 8d 85 50 e8 ff ff 	lea    -0x17b0(%rbp),%rax
   1005c:	48 89 85 d0 eb ff ff 	mov    %rax,-0x1430(%rbp)
   10063:	48 8d 05 e6 24 01 00 	lea    0x124e6(%rip),%rax        # 22550 <g_426+0x10>
   1006a:	48 89 85 d8 eb ff ff 	mov    %rax,-0x1428(%rbp)
   10071:	48 8d 85 a8 e7 ff ff 	lea    -0x1858(%rbp),%rax
   10078:	48 89 85 e0 eb ff ff 	mov    %rax,-0x1420(%rbp)
   1007f:	48 8d 05 ce 20 01 00 	lea    0x120ce(%rip),%rax        # 22154 <g_65>
   10086:	48 89 85 e8 eb ff ff 	mov    %rax,-0x1418(%rbp)
   1008d:	48 8d 85 60 ea ff ff 	lea    -0x15a0(%rbp),%rax
   10094:	48 83 c0 0c          	add    $0xc,%rax
   10098:	48 89 85 f0 eb ff ff 	mov    %rax,-0x1410(%rbp)
   1009f:	48 c7 85 f8 eb ff ff 	movq   $0x0,-0x1408(%rbp)
   100a6:	00 00 00 00 
   100aa:	48 8d 85 60 ea ff ff 	lea    -0x15a0(%rbp),%rax
   100b1:	48 83 c0 0c          	add    $0xc,%rax
   100b5:	48 89 85 00 ec ff ff 	mov    %rax,-0x1400(%rbp)
   100bc:	48 8d 85 ac e7 ff ff 	lea    -0x1854(%rbp),%rax
   100c3:	48 89 85 08 ec ff ff 	mov    %rax,-0x13f8(%rbp)
   100ca:	48 8d 85 60 ea ff ff 	lea    -0x15a0(%rbp),%rax
   100d1:	48 83 c0 0c          	add    $0xc,%rax
   100d5:	48 89 85 10 ec ff ff 	mov    %rax,-0x13f0(%rbp)
   100dc:	48 c7 85 18 ec ff ff 	movq   $0x0,-0x13e8(%rbp)
   100e3:	00 00 00 00 
   100e7:	48 8d 85 60 ea ff ff 	lea    -0x15a0(%rbp),%rax
   100ee:	48 83 c0 0c          	add    $0xc,%rax
   100f2:	48 89 85 20 ec ff ff 	mov    %rax,-0x13e0(%rbp)
   100f9:	48 8d 85 a8 e7 ff ff 	lea    -0x1858(%rbp),%rax
   10100:	48 89 85 28 ec ff ff 	mov    %rax,-0x13d8(%rbp)
   10107:	48 8d 85 50 e8 ff ff 	lea    -0x17b0(%rbp),%rax
   1010e:	48 89 85 30 ec ff ff 	mov    %rax,-0x13d0(%rbp)
   10115:	48 8d 05 38 20 01 00 	lea    0x12038(%rip),%rax        # 22154 <g_65>
   1011c:	48 89 85 38 ec ff ff 	mov    %rax,-0x13c8(%rbp)
   10123:	48 8d 05 26 24 01 00 	lea    0x12426(%rip),%rax        # 22550 <g_426+0x10>
   1012a:	48 89 85 40 ec ff ff 	mov    %rax,-0x13c0(%rbp)
   10131:	48 8d 05 18 24 01 00 	lea    0x12418(%rip),%rax        # 22550 <g_426+0x10>
   10138:	48 89 85 48 ec ff ff 	mov    %rax,-0x13b8(%rbp)
   1013f:	48 8d 05 0e 20 01 00 	lea    0x1200e(%rip),%rax        # 22154 <g_65>
   10146:	48 89 85 50 ec ff ff 	mov    %rax,-0x13b0(%rbp)
   1014d:	48 8d 85 50 e8 ff ff 	lea    -0x17b0(%rbp),%rax
   10154:	48 89 85 58 ec ff ff 	mov    %rax,-0x13a8(%rbp)
   1015b:	48 c7 85 60 ec ff ff 	movq   $0x0,-0x13a0(%rbp)
   10162:	00 00 00 00 
   10166:	48 c7 85 68 ec ff ff 	movq   $0x0,-0x1398(%rbp)
   1016d:	00 00 00 00 
   10171:	48 8d 85 a0 e7 ff ff 	lea    -0x1860(%rbp),%rax
   10178:	48 89 85 70 ec ff ff 	mov    %rax,-0x1390(%rbp)
   1017f:	48 c7 85 78 ec ff ff 	movq   $0x0,-0x1388(%rbp)
   10186:	00 00 00 00 
   1018a:	48 c7 85 80 ec ff ff 	movq   $0x0,-0x1380(%rbp)
   10191:	00 00 00 00 
   10195:	48 c7 85 88 ec ff ff 	movq   $0x0,-0x1378(%rbp)
   1019c:	00 00 00 00 
   101a0:	48 8d 85 a0 e7 ff ff 	lea    -0x1860(%rbp),%rax
   101a7:	48 89 85 90 ec ff ff 	mov    %rax,-0x1370(%rbp)
   101ae:	0f b7 85 7c e7 ff ff 	movzwl -0x1884(%rbp),%eax
   101b5:	0f b7 d8             	movzwl %ax,%ebx
   101b8:	48 8b 85 a0 e9 ff ff 	mov    -0x1660(%rbp),%rax
   101bf:	48 8d 95 98 e7 ff ff 	lea    -0x1868(%rbp),%rdx
   101c6:	48 89 10             	mov    %rdx,(%rax)
   101c9:	48 8b 85 a0 e9 ff ff 	mov    -0x1660(%rbp),%rax
   101d0:	48 8b 00             	mov    (%rax),%rax
   101d3:	48 39 85 98 e9 ff ff 	cmp    %rax,-0x1668(%rbp)
   101da:	0f 85 9e 00 00 00    	jne    1027e <func_18+0x47fb>
   101e0:	48 8b 85 70 e7 ff ff 	mov    -0x1890(%rbp),%rax
   101e7:	44 0f b7 e0          	movzwl %ax,%r12d
   101eb:	0f b7 85 7c e7 ff ff 	movzwl -0x1884(%rbp),%eax
   101f2:	83 f0 f6             	xor    $0xfffffff6,%eax
   101f5:	0f b7 c0             	movzwl %ax,%eax
   101f8:	8b 95 1c eb ff ff    	mov    -0x14e4(%rbp),%edx
   101fe:	39 95 f4 e7 ff ff    	cmp    %edx,-0x180c(%rbp)
   10204:	7e 07                	jle    1020d <func_18+0x478a>
   10206:	ba 01 00 00 00       	mov    $0x1,%edx
   1020b:	eb 05                	jmp    10212 <func_18+0x478f>
   1020d:	ba 00 00 00 00       	mov    $0x0,%edx
   10212:	89 c6                	mov    %eax,%esi
   10214:	89 d7                	mov    %edx,%edi
   10216:	e8 04 ab ff ff       	callq  ad1f <safe_sub_func_uint16_t_u_u>
   1021b:	0f b7 c0             	movzwl %ax,%eax
   1021e:	89 c6                	mov    %eax,%esi
   10220:	bf 01 00 00 00       	mov    $0x1,%edi
   10225:	e8 68 a2 ff ff       	callq  a492 <safe_lshift_func_int16_t_s_s>
   1022a:	66 83 f8 ff          	cmp    $0xffff,%ax
   1022e:	0f 9d c0             	setge  %al
   10231:	0f b6 c0             	movzbl %al,%eax
   10234:	44 89 e6             	mov    %r12d,%esi
   10237:	89 c7                	mov    %eax,%edi
   10239:	e8 e1 aa ff ff       	callq  ad1f <safe_sub_func_uint16_t_u_u>
   1023e:	0f b7 95 7c e7 ff ff 	movzwl -0x1884(%rbp),%edx
   10245:	21 c2                	and    %eax,%edx
   10247:	48 8b 05 12 56 01 00 	mov    0x15612(%rip),%rax        # 25860 <g_706>
   1024e:	0f b7 00             	movzwl (%rax),%eax
   10251:	66 39 c2             	cmp    %ax,%dx
   10254:	0f 97 c0             	seta   %al
   10257:	0f b6 c0             	movzbl %al,%eax
   1025a:	0b 85 fc e7 ff ff    	or     -0x1804(%rbp),%eax
   10260:	89 c2                	mov    %eax,%edx
   10262:	8b 85 3c ea ff ff    	mov    -0x15c4(%rbp),%eax
   10268:	39 c2                	cmp    %eax,%edx
   1026a:	0f 9d c0             	setge  %al
   1026d:	0f b6 c0             	movzbl %al,%eax
   10270:	be 05 00 00 00       	mov    $0x5,%esi
   10275:	89 c7                	mov    %eax,%edi
   10277:	e8 17 a9 ff ff       	callq  ab93 <safe_mul_func_uint8_t_u_u>
   1027c:	84 c0                	test   %al,%al
   1027e:	be 07 00 00 00       	mov    $0x7,%esi
   10283:	bf 01 00 00 00       	mov    $0x1,%edi
   10288:	e8 14 a0 ff ff       	callq  a2a1 <safe_lshift_func_int8_t_s_s>
   1028d:	66 98                	cbtw   
   1028f:	0f b7 c0             	movzwl %ax,%eax
   10292:	89 de                	mov    %ebx,%esi
   10294:	89 c7                	mov    %eax,%edi
   10296:	e8 f3 aa ff ff       	callq  ad8e <safe_div_func_uint16_t_u_u>
   1029b:	0f b7 d0             	movzwl %ax,%edx
   1029e:	8b 85 a0 e7 ff ff    	mov    -0x1860(%rbp),%eax
   102a4:	21 d0                	and    %edx,%eax
   102a6:	89 85 a0 e7 ff ff    	mov    %eax,-0x1860(%rbp)
   102ac:	0f b7 85 7c e7 ff ff 	movzwl -0x1884(%rbp),%eax
   102b3:	66 85 c0             	test   %ax,%ax
   102b6:	0f 84 b6 00 00 00    	je     10372 <func_18+0x48ef>
   102bc:	8b 85 a8 e7 ff ff    	mov    -0x1858(%rbp),%eax
   102c2:	89 c3                	mov    %eax,%ebx
   102c4:	8b 85 1c eb ff ff    	mov    -0x14e4(%rbp),%eax
   102ca:	41 89 c4             	mov    %eax,%r12d
   102cd:	48 8b 05 64 55 01 00 	mov    0x15564(%rip),%rax        # 25838 <g_484>
   102d4:	8b 00                	mov    (%rax),%eax
   102d6:	3d 64 e3 81 46       	cmp    $0x4681e364,%eax
   102db:	0f 94 c0             	sete   %al
   102de:	0f b6 d0             	movzbl %al,%edx
   102e1:	48 8b 85 b0 e9 ff ff 	mov    -0x1650(%rbp),%rax
   102e8:	89 10                	mov    %edx,(%rax)
   102ea:	8b 85 38 ea ff ff    	mov    -0x15c8(%rbp),%eax
   102f0:	0f be c0             	movsbl %al,%eax
   102f3:	8b 95 f0 e7 ff ff    	mov    -0x1810(%rbp),%edx
   102f9:	89 d6                	mov    %edx,%esi
   102fb:	89 c7                	mov    %eax,%edi
   102fd:	e8 9f 9f ff ff       	callq  a2a1 <safe_lshift_func_int8_t_s_s>
   10302:	44 89 e6             	mov    %r12d,%esi
   10305:	bf 01 00 00 00       	mov    $0x1,%edi
   1030a:	e8 af a9 ff ff       	callq  acbe <safe_rshift_func_uint8_t_u_u>
   1030f:	0f b6 d0             	movzbl %al,%edx
   10312:	48 8b 05 77 58 01 00 	mov    0x15877(%rip),%rax        # 25b90 <g_1441>
   10319:	0f b6 00             	movzbl (%rax),%eax
   1031c:	0f be c0             	movsbl %al,%eax
   1031f:	39 c2                	cmp    %eax,%edx
   10321:	0f 95 c0             	setne  %al
   10324:	0f b6 c0             	movzbl %al,%eax
   10327:	89 c7                	mov    %eax,%edi
   10329:	e8 68 a2 ff ff       	callq  a596 <safe_unary_minus_func_int32_t_s>
   1032e:	48 63 d0             	movslq %eax,%rdx
   10331:	8b 85 f0 e7 ff ff    	mov    -0x1810(%rbp),%eax
   10337:	48 98                	cltq   
   10339:	48 89 d6             	mov    %rdx,%rsi
   1033c:	48 89 c7             	mov    %rax,%rdi
   1033f:	e8 b3 a6 ff ff       	callq  a9f7 <safe_div_func_int64_t_s_s>
   10344:	48 8b 15 4d 61 01 00 	mov    0x1614d(%rip),%rdx        # 26498 <g_2402>
   1034b:	48 8b 12             	mov    (%rdx),%rdx
   1034e:	0f b6 12             	movzbl (%rdx),%edx
   10351:	48 0f be d2          	movsbq %dl,%rdx
   10355:	48 39 d0             	cmp    %rdx,%rax
   10358:	0f 9f c0             	setg   %al
   1035b:	0f b6 c0             	movzbl %al,%eax
   1035e:	89 de                	mov    %ebx,%esi
   10360:	89 c7                	mov    %eax,%edi
   10362:	e8 05 a0 ff ff       	callq  a36c <safe_rshift_func_int8_t_s_u>
   10367:	84 c0                	test   %al,%al
   10369:	74 07                	je     10372 <func_18+0x48ef>
   1036b:	b9 01 00 00 00       	mov    $0x1,%ecx
   10370:	eb 05                	jmp    10377 <func_18+0x48f4>
   10372:	b9 00 00 00 00       	mov    $0x0,%ecx
   10377:	48 8b 05 12 61 01 00 	mov    0x16112(%rip),%rax        # 26490 <g_2235>
   1037e:	8b 10                	mov    (%rax),%edx
   10380:	48 8b 05 09 61 01 00 	mov    0x16109(%rip),%rax        # 26490 <g_2235>
   10387:	31 ca                	xor    %ecx,%edx
   10389:	89 10                	mov    %edx,(%rax)
   1038b:	48 8b 05 86 68 01 00 	mov    0x16886(%rip),%rax        # 26c18 <g_2669>
   10392:	e9 e6 08 00 00       	jmpq   10c7d <func_18+0x51fa>
   10397:	48 8b 85 78 e9 ff ff 	mov    -0x1688(%rbp),%rax
   1039e:	8b 00                	mov    (%rax),%eax
   103a0:	0f bf d8             	movswl %ax,%ebx
   103a3:	48 8b 85 70 e7 ff ff 	mov    -0x1890(%rbp),%rax
   103aa:	89 c6                	mov    %eax,%esi
   103ac:	bf ff ff 00 00       	mov    $0xffff,%edi
   103b1:	e8 50 aa ff ff       	callq  ae06 <safe_lshift_func_uint16_t_u_u>
   103b6:	48 8b 85 70 e7 ff ff 	mov    -0x1890(%rbp),%rax
   103bd:	0f be c0             	movsbl %al,%eax
   103c0:	be 00 00 00 00       	mov    $0x0,%esi
   103c5:	89 c7                	mov    %eax,%edi
   103c7:	e8 69 9f ff ff       	callq  a335 <safe_rshift_func_int8_t_s_s>
   103cc:	48 8b 85 78 e9 ff ff 	mov    -0x1688(%rbp),%rax
   103d3:	8b 00                	mov    (%rax),%eax
   103d5:	48 63 d0             	movslq %eax,%rdx
   103d8:	0f b6 05 c1 26 01 00 	movzbl 0x126c1(%rip),%eax        # 22aa0 <g_2685>
   103df:	0f b6 c8             	movzbl %al,%ecx
   103e2:	0f b7 85 7c e7 ff ff 	movzwl -0x1884(%rbp),%eax
   103e9:	66 39 c1             	cmp    %ax,%cx
   103ec:	0f 92 c0             	setb   %al
   103ef:	0f b6 c0             	movzbl %al,%eax
   103f2:	48 89 d6             	mov    %rdx,%rsi
   103f5:	48 89 c7             	mov    %rax,%rdi
   103f8:	e8 ab a4 ff ff       	callq  a8a8 <safe_sub_func_int64_t_s_s>
   103fd:	0f b6 c0             	movzbl %al,%eax
   10400:	89 c7                	mov    %eax,%edi
   10402:	e8 3e a7 ff ff       	callq  ab45 <safe_unary_minus_func_uint8_t_u>
   10407:	48 8b 85 18 e8 ff ff 	mov    -0x17e8(%rbp),%rax
   1040e:	48 89 05 ab 60 01 00 	mov    %rax,0x160ab(%rip)        # 264c0 <g_2677>
   10415:	48 8b 15 a4 60 01 00 	mov    0x160a4(%rip),%rdx        # 264c0 <g_2677>
   1041c:	48 8b 85 18 e8 ff ff 	mov    -0x17e8(%rbp),%rax
   10423:	48 39 c2             	cmp    %rax,%rdx
   10426:	0f 94 c0             	sete   %al
   10429:	0f b6 d0             	movzbl %al,%edx
   1042c:	48 8b 05 4d 54 01 00 	mov    0x1544d(%rip),%rax        # 25880 <g_1053>
   10433:	48 8b 00             	mov    (%rax),%rax
   10436:	0f b6 00             	movzbl (%rax),%eax
   10439:	0f b6 c8             	movzbl %al,%ecx
   1043c:	0f b7 85 7c e7 ff ff 	movzwl -0x1884(%rbp),%eax
   10443:	66 39 c1             	cmp    %ax,%cx
   10446:	0f 93 c0             	setae  %al
   10449:	0f b6 c0             	movzbl %al,%eax
   1044c:	39 c2                	cmp    %eax,%edx
   1044e:	48 8b 85 08 e8 ff ff 	mov    -0x17f8(%rbp),%rax
   10455:	48 ba f9 20 74 c1 e4 	movabs $0xd194e0e4c17420f9,%rdx
   1045c:	e0 94 d1 
   1045f:	48 39 d0             	cmp    %rdx,%rax
   10462:	74 07                	je     1046b <func_18+0x49e8>
   10464:	b8 01 00 00 00       	mov    $0x1,%eax
   10469:	eb 05                	jmp    10470 <func_18+0x49ed>
   1046b:	b8 00 00 00 00       	mov    $0x0,%eax
   10470:	98                   	cwtl   
   10471:	89 de                	mov    %ebx,%esi
   10473:	89 c7                	mov    %eax,%edi
   10475:	e8 db 9f ff ff       	callq  a455 <safe_div_func_int16_t_s_s>
   1047a:	66 85 c0             	test   %ax,%ax
   1047d:	0f 84 6e 06 00 00    	je     10af1 <func_18+0x506e>
   10483:	48 c7 85 80 eb ff ff 	movq   $0x0,-0x1480(%rbp)
   1048a:	00 00 00 00 
   1048e:	48 c7 85 88 eb ff ff 	movq   $0x0,-0x1478(%rbp)
   10495:	00 00 00 00 
   10499:	48 c7 85 90 eb ff ff 	movq   $0x0,-0x1470(%rbp)
   104a0:	00 00 00 00 
   104a4:	48 c7 85 98 eb ff ff 	movq   $0x0,-0x1468(%rbp)
   104ab:	00 00 00 00 
   104af:	48 c7 85 a0 eb ff ff 	movq   $0x0,-0x1460(%rbp)
   104b6:	00 00 00 00 
   104ba:	48 c7 85 a8 eb ff ff 	movq   $0x0,-0x1458(%rbp)
   104c1:	00 00 00 00 
   104c5:	48 c7 85 b0 eb ff ff 	movq   $0x0,-0x1450(%rbp)
   104cc:	00 00 00 00 
   104d0:	48 c7 85 b8 eb ff ff 	movq   $0x0,-0x1448(%rbp)
   104d7:	00 00 00 00 
   104db:	48 c7 85 c0 eb ff ff 	movq   $0x0,-0x1440(%rbp)
   104e2:	00 00 00 00 
   104e6:	48 c7 85 c8 eb ff ff 	movq   $0x0,-0x1438(%rbp)
   104ed:	00 00 00 00 
   104f1:	48 8d 05 48 20 01 00 	lea    0x12048(%rip),%rax        # 22540 <g_426>
   104f8:	48 89 85 08 ea ff ff 	mov    %rax,-0x15f8(%rbp)
   104ff:	c7 85 04 e8 ff ff 06 	movl   $0x6,-0x17fc(%rbp)
   10506:	00 00 00 
   10509:	48 8d 05 2c 1f 01 00 	lea    0x11f2c(%rip),%rax        # 2243c <g_279>
   10510:	48 89 85 e0 f7 ff ff 	mov    %rax,-0x820(%rbp)
   10517:	48 c7 85 e8 f7 ff ff 	movq   $0x0,-0x818(%rbp)
   1051e:	00 00 00 00 
   10522:	48 c7 85 f0 f7 ff ff 	movq   $0x0,-0x810(%rbp)
   10529:	00 00 00 00 
   1052d:	48 8d 05 0e 23 01 00 	lea    0x1230e(%rip),%rax        # 22842 <g_2306+0x12>
   10534:	48 89 85 f8 f7 ff ff 	mov    %rax,-0x808(%rbp)
   1053b:	48 c7 85 00 f8 ff ff 	movq   $0x0,-0x800(%rbp)
   10542:	00 00 00 00 
   10546:	48 c7 85 08 f8 ff ff 	movq   $0x0,-0x7f8(%rbp)
   1054d:	00 00 00 00 
   10551:	48 8d 05 e4 1e 01 00 	lea    0x11ee4(%rip),%rax        # 2243c <g_279>
   10558:	48 89 85 10 f8 ff ff 	mov    %rax,-0x7f0(%rbp)
   1055f:	48 8d 05 0c 1c 01 00 	lea    0x11c0c(%rip),%rax        # 22172 <g_84+0x12>
   10566:	48 89 85 18 f8 ff ff 	mov    %rax,-0x7e8(%rbp)
   1056d:	48 c7 85 20 f8 ff ff 	movq   $0x0,-0x7e0(%rbp)
   10574:	00 00 00 00 
   10578:	48 8d 85 8c e7 ff ff 	lea    -0x1874(%rbp),%rax
   1057f:	48 89 85 28 f8 ff ff 	mov    %rax,-0x7d8(%rbp)
   10586:	48 c7 85 30 f8 ff ff 	movq   $0x0,-0x7d0(%rbp)
   1058d:	00 00 00 00 
   10591:	48 8d 85 8a e7 ff ff 	lea    -0x1876(%rbp),%rax
   10598:	48 89 85 38 f8 ff ff 	mov    %rax,-0x7c8(%rbp)
   1059f:	48 c7 85 40 f8 ff ff 	movq   $0x0,-0x7c0(%rbp)
   105a6:	00 00 00 00 
   105aa:	48 8d 05 eb 1f 01 00 	lea    0x11feb(%rip),%rax        # 2259c <g_712>
   105b1:	48 89 85 48 f8 ff ff 	mov    %rax,-0x7b8(%rbp)
   105b8:	48 8d 05 b3 1b 01 00 	lea    0x11bb3(%rip),%rax        # 22172 <g_84+0x12>
   105bf:	48 89 85 50 f8 ff ff 	mov    %rax,-0x7b0(%rbp)
   105c6:	48 8d 05 65 1e 01 00 	lea    0x11e65(%rip),%rax        # 22432 <g_248+0x12>
   105cd:	48 89 85 58 f8 ff ff 	mov    %rax,-0x7a8(%rbp)
   105d4:	48 8d 05 67 20 01 00 	lea    0x12067(%rip),%rax        # 22642 <g_1365+0x12>
   105db:	48 89 85 60 f8 ff ff 	mov    %rax,-0x7a0(%rbp)
   105e2:	48 8d 05 59 20 01 00 	lea    0x12059(%rip),%rax        # 22642 <g_1365+0x12>
   105e9:	48 89 85 68 f8 ff ff 	mov    %rax,-0x798(%rbp)
   105f0:	48 8d 05 3b 1e 01 00 	lea    0x11e3b(%rip),%rax        # 22432 <g_248+0x12>
   105f7:	48 89 85 70 f8 ff ff 	mov    %rax,-0x790(%rbp)
   105fe:	48 8d 05 3d 22 01 00 	lea    0x1223d(%rip),%rax        # 22842 <g_2306+0x12>
   10605:	48 89 85 78 f8 ff ff 	mov    %rax,-0x788(%rbp)
   1060c:	48 8d 05 5f 1b 01 00 	lea    0x11b5f(%rip),%rax        # 22172 <g_84+0x12>
   10613:	48 89 85 80 f8 ff ff 	mov    %rax,-0x780(%rbp)
   1061a:	48 8d 05 e1 21 01 00 	lea    0x121e1(%rip),%rax        # 22802 <g_2237+0x12>
   10621:	48 89 85 88 f8 ff ff 	mov    %rax,-0x778(%rbp)
   10628:	48 8d 05 d3 21 01 00 	lea    0x121d3(%rip),%rax        # 22802 <g_2237+0x12>
   1062f:	48 89 85 90 f8 ff ff 	mov    %rax,-0x770(%rbp)
   10636:	48 8d 05 35 1b 01 00 	lea    0x11b35(%rip),%rax        # 22172 <g_84+0x12>
   1063d:	48 89 85 98 f8 ff ff 	mov    %rax,-0x768(%rbp)
   10644:	48 8d 05 37 1f 01 00 	lea    0x11f37(%rip),%rax        # 22582 <g_428+0x12>
   1064b:	48 89 85 a0 f8 ff ff 	mov    %rax,-0x760(%rbp)
   10652:	48 8d 05 e3 1d 01 00 	lea    0x11de3(%rip),%rax        # 2243c <g_279>
   10659:	48 89 85 a8 f8 ff ff 	mov    %rax,-0x758(%rbp)
   10660:	48 8d 05 db 21 01 00 	lea    0x121db(%rip),%rax        # 22842 <g_2306+0x12>
   10667:	48 89 85 b0 f8 ff ff 	mov    %rax,-0x750(%rbp)
   1066e:	48 8d 05 cd 1f 01 00 	lea    0x11fcd(%rip),%rax        # 22642 <g_1365+0x12>
   10675:	48 89 85 b8 f8 ff ff 	mov    %rax,-0x748(%rbp)
   1067c:	48 8d 05 19 1f 01 00 	lea    0x11f19(%rip),%rax        # 2259c <g_712>
   10683:	48 89 85 c0 f8 ff ff 	mov    %rax,-0x740(%rbp)
   1068a:	48 8d 85 8c e7 ff ff 	lea    -0x1874(%rbp),%rax
   10691:	48 89 85 c8 f8 ff ff 	mov    %rax,-0x738(%rbp)
   10698:	48 c7 85 d0 f8 ff ff 	movq   $0x0,-0x730(%rbp)
   1069f:	00 00 00 00 
   106a3:	48 8d 05 88 1d 01 00 	lea    0x11d88(%rip),%rax        # 22432 <g_248+0x12>
   106aa:	48 89 85 d8 f8 ff ff 	mov    %rax,-0x728(%rbp)
   106b1:	48 8d 05 e4 1e 01 00 	lea    0x11ee4(%rip),%rax        # 2259c <g_712>
   106b8:	48 89 85 e0 f8 ff ff 	mov    %rax,-0x720(%rbp)
   106bf:	48 8d 05 7c 21 01 00 	lea    0x1217c(%rip),%rax        # 22842 <g_2306+0x12>
   106c6:	48 89 85 e8 f8 ff ff 	mov    %rax,-0x718(%rbp)
   106cd:	48 8d 05 2e 21 01 00 	lea    0x1212e(%rip),%rax        # 22802 <g_2237+0x12>
   106d4:	48 89 85 f0 f8 ff ff 	mov    %rax,-0x710(%rbp)
   106db:	48 c7 85 f8 f8 ff ff 	movq   $0x0,-0x708(%rbp)
   106e2:	00 00 00 00 
   106e6:	48 8d 05 15 21 01 00 	lea    0x12115(%rip),%rax        # 22802 <g_2237+0x12>
   106ed:	48 89 85 00 f9 ff ff 	mov    %rax,-0x700(%rbp)
   106f4:	48 8d 05 47 21 01 00 	lea    0x12147(%rip),%rax        # 22842 <g_2306+0x12>
   106fb:	48 89 85 08 f9 ff ff 	mov    %rax,-0x6f8(%rbp)
   10702:	48 8d 05 93 1e 01 00 	lea    0x11e93(%rip),%rax        # 2259c <g_712>
   10709:	48 89 85 10 f9 ff ff 	mov    %rax,-0x6f0(%rbp)
   10710:	48 8d 05 1b 1d 01 00 	lea    0x11d1b(%rip),%rax        # 22432 <g_248+0x12>
   10717:	48 89 85 18 f9 ff ff 	mov    %rax,-0x6e8(%rbp)
   1071e:	48 8d 05 1d 21 01 00 	lea    0x1211d(%rip),%rax        # 22842 <g_2306+0x12>
   10725:	48 89 85 20 f9 ff ff 	mov    %rax,-0x6e0(%rbp)
   1072c:	48 c7 85 28 f9 ff ff 	movq   $0x0,-0x6d8(%rbp)
   10733:	00 00 00 00 
   10737:	48 8d 05 4e 20 01 00 	lea    0x1204e(%rip),%rax        # 2278c <g_2044>
   1073e:	48 89 85 30 f9 ff ff 	mov    %rax,-0x6d0(%rbp)
   10745:	48 8d 05 26 1a 01 00 	lea    0x11a26(%rip),%rax        # 22172 <g_84+0x12>
   1074c:	48 89 85 38 f9 ff ff 	mov    %rax,-0x6c8(%rbp)
   10753:	48 8d 85 8a e7 ff ff 	lea    -0x1876(%rbp),%rax
   1075a:	48 89 85 40 f9 ff ff 	mov    %rax,-0x6c0(%rbp)
   10761:	48 c7 85 48 f9 ff ff 	movq   $0x0,-0x6b8(%rbp)
   10768:	00 00 00 00 
   1076c:	48 8d 05 c9 1c 01 00 	lea    0x11cc9(%rip),%rax        # 2243c <g_279>
   10773:	48 89 85 50 f9 ff ff 	mov    %rax,-0x6b0(%rbp)
   1077a:	48 8d 05 1b 1e 01 00 	lea    0x11e1b(%rip),%rax        # 2259c <g_712>
   10781:	48 89 85 58 f9 ff ff 	mov    %rax,-0x6a8(%rbp)
   10788:	48 8d 05 f3 1d 01 00 	lea    0x11df3(%rip),%rax        # 22582 <g_428+0x12>
   1078f:	48 89 85 60 f9 ff ff 	mov    %rax,-0x6a0(%rbp)
   10796:	48 8d 05 e5 1d 01 00 	lea    0x11de5(%rip),%rax        # 22582 <g_428+0x12>
   1079d:	48 89 85 68 f9 ff ff 	mov    %rax,-0x698(%rbp)
   107a4:	48 c7 85 70 f9 ff ff 	movq   $0x0,-0x690(%rbp)
   107ab:	00 00 00 00 
   107af:	48 8d 85 8c e7 ff ff 	lea    -0x1874(%rbp),%rax
   107b6:	48 89 85 78 f9 ff ff 	mov    %rax,-0x688(%rbp)
   107bd:	48 c7 85 80 f9 ff ff 	movq   $0x0,-0x680(%rbp)
   107c4:	00 00 00 00 
   107c8:	48 c7 85 88 f9 ff ff 	movq   $0x0,-0x678(%rbp)
   107cf:	00 00 00 00 
   107d3:	48 c7 85 90 f9 ff ff 	movq   $0x0,-0x670(%rbp)
   107da:	00 00 00 00 
   107de:	48 c7 85 98 f9 ff ff 	movq   $0x0,-0x668(%rbp)
   107e5:	00 00 00 00 
   107e9:	48 8d 85 8c e7 ff ff 	lea    -0x1874(%rbp),%rax
   107f0:	48 89 85 a0 f9 ff ff 	mov    %rax,-0x660(%rbp)
   107f7:	48 c7 85 a8 f9 ff ff 	movq   $0x0,-0x658(%rbp)
   107fe:	00 00 00 00 
   10802:	48 8d 05 69 19 01 00 	lea    0x11969(%rip),%rax        # 22172 <g_84+0x12>
   10809:	48 89 85 b0 f9 ff ff 	mov    %rax,-0x650(%rbp)
   10810:	48 8d 05 25 1c 01 00 	lea    0x11c25(%rip),%rax        # 2243c <g_279>
   10817:	48 89 85 b8 f9 ff ff 	mov    %rax,-0x648(%rbp)
   1081e:	48 8d 05 1d 20 01 00 	lea    0x1201d(%rip),%rax        # 22842 <g_2306+0x12>
   10825:	48 89 85 c0 f9 ff ff 	mov    %rax,-0x640(%rbp)
   1082c:	48 8d 05 59 1f 01 00 	lea    0x11f59(%rip),%rax        # 2278c <g_2044>
   10833:	48 89 85 c8 f9 ff ff 	mov    %rax,-0x638(%rbp)
   1083a:	48 8d 05 01 20 01 00 	lea    0x12001(%rip),%rax        # 22842 <g_2306+0x12>
   10841:	48 89 85 d0 f9 ff ff 	mov    %rax,-0x630(%rbp)
   10848:	48 c7 85 d8 f9 ff ff 	movq   $0x0,-0x628(%rbp)
   1084f:	00 00 00 00 
   10853:	48 c7 85 e0 f9 ff ff 	movq   $0x0,-0x620(%rbp)
   1085a:	00 00 00 00 
   1085e:	48 c7 85 e8 f9 ff ff 	movq   $0x0,-0x618(%rbp)
   10865:	00 00 00 00 
   10869:	48 8d 05 d2 1d 01 00 	lea    0x11dd2(%rip),%rax        # 22642 <g_1365+0x12>
   10870:	48 89 85 f0 f9 ff ff 	mov    %rax,-0x610(%rbp)
   10877:	48 8d 05 be 1b 01 00 	lea    0x11bbe(%rip),%rax        # 2243c <g_279>
   1087e:	48 89 85 f8 f9 ff ff 	mov    %rax,-0x608(%rbp)
   10885:	48 8d 05 b6 1d 01 00 	lea    0x11db6(%rip),%rax        # 22642 <g_1365+0x12>
   1088c:	48 89 85 00 fa ff ff 	mov    %rax,-0x600(%rbp)
   10893:	48 c7 85 08 fa ff ff 	movq   $0x0,-0x5f8(%rbp)
   1089a:	00 00 00 00 
   1089e:	c7 85 a4 e7 ff ff 0f 	movl   $0xf,-0x185c(%rbp)
   108a5:	00 00 00 
   108a8:	90                   	nop
   108a9:	8b 85 a4 e7 ff ff    	mov    -0x185c(%rbp),%eax
   108af:	83 f8 06             	cmp    $0x6,%eax
   108b2:	75 27                	jne    108db <func_18+0x4e58>
   108b4:	48 8d 05 8d 1c 01 00 	lea    0x11c8d(%rip),%rax        # 22548 <g_426+0x8>
   108bb:	48 89 85 10 ea ff ff 	mov    %rax,-0x15f0(%rbp)
   108c2:	0f b7 85 7c e7 ff ff 	movzwl -0x1884(%rbp),%eax
   108c9:	66 85 c0             	test   %ax,%ax
   108cc:	75 0c                	jne    108da <func_18+0x4e57>
   108ce:	48 8b 85 10 ea ff ff 	mov    -0x15f0(%rbp),%rax
   108d5:	e9 a3 03 00 00       	jmpq   10c7d <func_18+0x51fa>
   108da:	90                   	nop
   108db:	c6 05 9a 18 01 00 00 	movb   $0x0,0x1189a(%rip)        # 2217c <g_89>
   108e2:	90                   	nop
   108e3:	0f b6 05 92 18 01 00 	movzbl 0x11892(%rip),%eax        # 2217c <g_89>
   108ea:	3c 02                	cmp    $0x2,%al
   108ec:	7f 0c                	jg     108fa <func_18+0x4e77>
   108ee:	48 8b 85 08 ea ff ff 	mov    -0x15f8(%rbp),%rax
   108f5:	e9 83 03 00 00       	jmpq   10c7d <func_18+0x51fa>
   108fa:	48 8b 85 78 e9 ff ff 	mov    -0x1688(%rbp),%rax
   10901:	8b 00                	mov    (%rax),%eax
   10903:	0f be d8             	movsbl %al,%ebx
   10906:	48 8b 85 70 e7 ff ff 	mov    -0x1890(%rbp),%rax
   1090d:	44 0f b7 e0          	movzwl %ax,%r12d
   10911:	48 8b 85 70 e7 ff ff 	mov    -0x1890(%rbp),%rax
   10918:	44 0f b7 e8          	movzwl %ax,%r13d
   1091c:	8b 85 04 e8 ff ff    	mov    -0x17fc(%rbp),%eax
   10922:	0f b6 c0             	movzbl %al,%eax
   10925:	89 c6                	mov    %eax,%esi
   10927:	bf e5 00 00 00       	mov    $0xe5,%edi
   1092c:	e8 62 a2 ff ff       	callq  ab93 <safe_mul_func_uint8_t_u_u>
   10931:	84 c0                	test   %al,%al
   10933:	0f 85 ca 00 00 00    	jne    10a03 <func_18+0x4f80>
   10939:	48 8b 85 78 e9 ff ff 	mov    -0x1688(%rbp),%rax
   10940:	44 8b 30             	mov    (%rax),%r14d
   10943:	48 8b 05 46 52 01 00 	mov    0x15246(%rip),%rax        # 25b90 <g_1441>
   1094a:	0f b6 00             	movzbl (%rax),%eax
   1094d:	0f be d0             	movsbl %al,%edx
   10950:	48 8b 05 51 52 01 00 	mov    0x15251(%rip),%rax        # 25ba8 <g_1688>
   10957:	48 8b 00             	mov    (%rax),%rax
   1095a:	48 8b 00             	mov    (%rax),%rax
   1095d:	48 83 f8 fc          	cmp    $0xfffffffffffffffc,%rax
   10961:	0f 9d c0             	setge  %al
   10964:	0f b6 c0             	movzbl %al,%eax
   10967:	89 d6                	mov    %edx,%esi
   10969:	89 c7                	mov    %eax,%edi
   1096b:	e8 fa 98 ff ff       	callq  a26a <safe_div_func_int8_t_s_s>
   10970:	84 c0                	test   %al,%al
   10972:	0f 94 c0             	sete   %al
   10975:	0f b6 d0             	movzbl %al,%edx
   10978:	48 8b 85 c8 e8 ff ff 	mov    -0x1738(%rbp),%rax
   1097f:	8b 00                	mov    (%rax),%eax
   10981:	39 c2                	cmp    %eax,%edx
   10983:	0f 9f c0             	setg   %al
   10986:	0f b6 c0             	movzbl %al,%eax
   10989:	be 0b 00 00 00       	mov    $0xb,%esi
   1098e:	89 c7                	mov    %eax,%edi
   10990:	e8 ce 9b ff ff       	callq  a563 <safe_rshift_func_int16_t_s_u>
   10995:	48 8b 85 80 e9 ff ff 	mov    -0x1680(%rbp),%rax
   1099c:	48 3b 85 70 e8 ff ff 	cmp    -0x1790(%rbp),%rax
   109a3:	0f 95 c0             	setne  %al
   109a6:	0f b6 d0             	movzbl %al,%edx
   109a9:	48 8b 85 78 e9 ff ff 	mov    -0x1688(%rbp),%rax
   109b0:	8b 00                	mov    (%rax),%eax
   109b2:	39 c2                	cmp    %eax,%edx
   109b4:	0f 9e c0             	setle  %al
   109b7:	0f b6 d0             	movzbl %al,%edx
   109ba:	48 8b 85 78 e9 ff ff 	mov    -0x1688(%rbp),%rax
   109c1:	8b 00                	mov    (%rax),%eax
   109c3:	39 c2                	cmp    %eax,%edx
   109c5:	0f 94 c0             	sete   %al
   109c8:	0f b6 d0             	movzbl %al,%edx
   109cb:	48 8b 85 08 ea ff ff 	mov    -0x15f8(%rbp),%rax
   109d2:	8b 00                	mov    (%rax),%eax
   109d4:	21 d0                	and    %edx,%eax
   109d6:	48 63 d0             	movslq %eax,%rdx
   109d9:	48 8b 85 70 e7 ff ff 	mov    -0x1890(%rbp),%rax
   109e0:	48 39 c2             	cmp    %rax,%rdx
   109e3:	0f 9f c0             	setg   %al
   109e6:	0f b6 c0             	movzbl %al,%eax
   109e9:	44 89 f6             	mov    %r14d,%esi
   109ec:	89 c7                	mov    %eax,%edi
   109ee:	e8 ae 98 ff ff       	callq  a2a1 <safe_lshift_func_int8_t_s_s>
   109f3:	48 8b 85 00 fa ff ff 	mov    -0x600(%rbp),%rax
   109fa:	48 39 85 d0 e8 ff ff 	cmp    %rax,-0x1730(%rbp)
   10a01:	75 07                	jne    10a0a <func_18+0x4f87>
   10a03:	b8 01 00 00 00       	mov    $0x1,%eax
   10a08:	eb 05                	jmp    10a0f <func_18+0x4f8c>
   10a0a:	b8 00 00 00 00       	mov    $0x0,%eax
   10a0f:	0f b7 c0             	movzwl %ax,%eax
   10a12:	44 89 ee             	mov    %r13d,%esi
   10a15:	89 c7                	mov    %eax,%edi
   10a17:	e8 e3 a2 ff ff       	callq  acff <safe_add_func_uint16_t_u_u>
   10a1c:	0f b7 c0             	movzwl %ax,%eax
   10a1f:	48 83 e0 f8          	and    $0xfffffffffffffff8,%rax
   10a23:	48 89 c2             	mov    %rax,%rdx
   10a26:	48 8b 85 70 e7 ff ff 	mov    -0x1890(%rbp),%rax
   10a2d:	48 39 c2             	cmp    %rax,%rdx
   10a30:	0f 9d c0             	setge  %al
   10a33:	0f b6 d0             	movzbl %al,%edx
   10a36:	48 8b 85 70 e7 ff ff 	mov    -0x1890(%rbp),%rax
   10a3d:	0f b6 c0             	movzbl %al,%eax
   10a40:	89 d6                	mov    %edx,%esi
   10a42:	89 c7                	mov    %eax,%edi
   10a44:	e8 bc a1 ff ff       	callq  ac05 <safe_lshift_func_uint8_t_u_s>
   10a49:	89 c2                	mov    %eax,%edx
   10a4b:	48 8b 05 0e 4e 01 00 	mov    0x14e0e(%rip),%rax        # 25860 <g_706>
   10a52:	0f b6 d2             	movzbl %dl,%edx
   10a55:	66 89 10             	mov    %dx,(%rax)
   10a58:	0f b7 00             	movzwl (%rax),%eax
   10a5b:	0f bf d0             	movswl %ax,%edx
   10a5e:	0f b7 85 7c e7 ff ff 	movzwl -0x1884(%rbp),%eax
   10a65:	98                   	cwtl   
   10a66:	89 d6                	mov    %edx,%esi
   10a68:	89 c7                	mov    %eax,%edi
   10a6a:	e8 86 99 ff ff       	callq  a3f5 <safe_mul_func_int16_t_s_s>
   10a6f:	48 0f bf d0          	movswq %ax,%rdx
   10a73:	48 8b 85 70 e7 ff ff 	mov    -0x1890(%rbp),%rax
   10a7a:	48 39 c2             	cmp    %rax,%rdx
   10a7d:	0f 9e c0             	setle  %al
   10a80:	0f b6 c0             	movzbl %al,%eax
   10a83:	44 89 e6             	mov    %r12d,%esi
   10a86:	89 c7                	mov    %eax,%edi
   10a88:	e8 b0 a2 ff ff       	callq  ad3d <safe_mul_func_uint16_t_u_u>
   10a8d:	66 85 c0             	test   %ax,%ax
   10a90:	74 0b                	je     10a9d <func_18+0x501a>
   10a92:	48 8b 85 88 e9 ff ff 	mov    -0x1678(%rbp),%rax
   10a99:	8b 00                	mov    (%rax),%eax
   10a9b:	85 c0                	test   %eax,%eax
   10a9d:	48 8b 95 70 e7 ff ff 	mov    -0x1890(%rbp),%rdx
   10aa4:	83 bd ec e7 ff ff 00 	cmpl   $0x0,-0x1814(%rbp)
   10aab:	0f 94 c0             	sete   %al
   10aae:	0f b6 c0             	movzbl %al,%eax
   10ab1:	48 39 c2             	cmp    %rax,%rdx
   10ab4:	0f 9d c0             	setge  %al
   10ab7:	0f b6 c0             	movzbl %al,%eax
   10aba:	89 de                	mov    %ebx,%esi
   10abc:	89 c7                	mov    %eax,%edi
   10abe:	e8 11 97 ff ff       	callq  a1d4 <safe_add_func_int8_t_s_s>
   10ac3:	48 8b 05 be 59 01 00 	mov    0x159be(%rip),%rax        # 26488 <g_2114>
   10aca:	48 8d 95 c0 ea ff ff 	lea    -0x1540(%rbp),%rdx
   10ad1:	48 89 10             	mov    %rdx,(%rax)
   10ad4:	48 8b 85 20 e8 ff ff 	mov    -0x17e0(%rbp),%rax
   10adb:	48 8d 95 70 e7 ff ff 	lea    -0x1890(%rbp),%rdx
   10ae2:	48 89 10             	mov    %rdx,(%rax)
   10ae5:	c6 05 d4 60 01 00 02 	movb   $0x2,0x160d4(%rip)        # 26bc0 <g_1869>
   10aec:	e9 d9 00 00 00       	jmpq   10bca <func_18+0x5147>
   10af1:	48 8d 05 48 1a 01 00 	lea    0x11a48(%rip),%rax        # 22540 <g_426>
   10af8:	48 89 85 00 ea ff ff 	mov    %rax,-0x1600(%rbp)
   10aff:	48 8b 85 00 ea ff ff 	mov    -0x1600(%rbp),%rax
   10b06:	e9 72 01 00 00       	jmpq   10c7d <func_18+0x51fa>
   10b0b:	48 8d 85 80 ea ff ff 	lea    -0x1580(%rbp),%rax
   10b12:	48 83 c0 10          	add    $0x10,%rax
   10b16:	48 89 85 18 ea ff ff 	mov    %rax,-0x15e8(%rbp)
   10b1d:	0f b7 85 7c e7 ff ff 	movzwl -0x1884(%rbp),%eax
   10b24:	0f b7 c8             	movzwl %ax,%ecx
   10b27:	48 8b 05 72 59 01 00 	mov    0x15972(%rip),%rax        # 264a0 <g_2417>
   10b2e:	48 8b 00             	mov    (%rax),%rax
   10b31:	48 39 85 78 e8 ff ff 	cmp    %rax,-0x1788(%rbp)
   10b38:	0f 95 c0             	setne  %al
   10b3b:	0f b6 f8             	movzbl %al,%edi
   10b3e:	0f b6 05 7b 60 01 00 	movzbl 0x1607b(%rip),%eax        # 26bc0 <g_1869>
   10b45:	0f be c0             	movsbl %al,%eax
   10b48:	8d 50 01             	lea    0x1(%rax),%edx
   10b4b:	0f b6 05 6e 60 01 00 	movzbl 0x1606e(%rip),%eax        # 26bc0 <g_1869>
   10b52:	0f be c0             	movsbl %al,%eax
   10b55:	48 63 f0             	movslq %eax,%rsi
   10b58:	48 63 d2             	movslq %edx,%rdx
   10b5b:	48 89 d0             	mov    %rdx,%rax
   10b5e:	48 01 c0             	add    %rax,%rax
   10b61:	48 01 d0             	add    %rdx,%rax
   10b64:	48 01 f0             	add    %rsi,%rax
   10b67:	8b 84 85 20 eb ff ff 	mov    -0x14e0(%rbp,%rax,4),%eax
   10b6e:	f7 d0                	not    %eax
   10b70:	89 85 90 e7 ff ff    	mov    %eax,-0x1870(%rbp)
   10b76:	48 8b 05 23 59 01 00 	mov    0x15923(%rip),%rax        # 264a0 <g_2417>
   10b7d:	48 8b 00             	mov    (%rax),%rax
   10b80:	0f b6 10             	movzbl (%rax),%edx
   10b83:	83 ea 01             	sub    $0x1,%edx
   10b86:	88 10                	mov    %dl,(%rax)
   10b88:	0f b6 00             	movzbl (%rax),%eax
   10b8b:	0f b6 f0             	movzbl %al,%esi
   10b8e:	48 8b 85 20 e8 ff ff 	mov    -0x17e0(%rbp),%rax
   10b95:	48 8b 18             	mov    (%rax),%rbx
   10b98:	48 8d 85 f0 ea ff ff 	lea    -0x1510(%rbp),%rax
   10b9f:	48 8d 50 2c          	lea    0x2c(%rax),%rdx
   10ba3:	48 8b 85 18 ea ff ff 	mov    -0x15e8(%rbp),%rax
   10baa:	49 89 d0             	mov    %rdx,%r8
   10bad:	89 fa                	mov    %edi,%edx
   10baf:	48 89 c7             	mov    %rax,%rdi
   10bb2:	e8 ec 00 00 00       	callq  10ca3 <func_21>
   10bb7:	48 89 03             	mov    %rax,(%rbx)
   10bba:	0f b6 05 ff 5f 01 00 	movzbl 0x15fff(%rip),%eax        # 26bc0 <g_1869>
   10bc1:	83 e8 01             	sub    $0x1,%eax
   10bc4:	88 05 f6 5f 01 00    	mov    %al,0x15ff6(%rip)        # 26bc0 <g_1869>
   10bca:	0f b6 05 ef 5f 01 00 	movzbl 0x15fef(%rip),%eax        # 26bc0 <g_1869>
   10bd1:	84 c0                	test   %al,%al
   10bd3:	0f 89 32 ff ff ff    	jns    10b0b <func_18+0x5088>
   10bd9:	0f b7 05 54 1a 01 00 	movzwl 0x11a54(%rip),%eax        # 22634 <g_1365+0x4>
   10be0:	0f be c0             	movsbl %al,%eax
   10be3:	be 06 00 00 00       	mov    $0x6,%esi
   10be8:	89 c7                	mov    %eax,%edi
   10bea:	e8 e5 95 ff ff       	callq  a1d4 <safe_add_func_int8_t_s_s>
   10bef:	66 98                	cbtw   
   10bf1:	66 89 05 3c 1a 01 00 	mov    %ax,0x11a3c(%rip)        # 22634 <g_1365+0x4>
   10bf8:	0f b7 05 35 1a 01 00 	movzwl 0x11a35(%rip),%eax        # 22634 <g_1365+0x4>
   10bff:	66 83 f8 25          	cmp    $0x25,%ax
   10c03:	0f 84 d4 cd ff ff    	je     d9dd <func_18+0x1f5a>
   10c09:	0f b7 05 74 1e 01 00 	movzwl 0x11e74(%rip),%eax        # 22a84 <g_2424+0x4>
   10c10:	0f b7 c0             	movzwl %ax,%eax
   10c13:	be 01 00 00 00       	mov    $0x1,%esi
   10c18:	89 c7                	mov    %eax,%edi
   10c1a:	e8 97 99 ff ff       	callq  a5b6 <safe_add_func_int32_t_s_s>
   10c1f:	66 89 05 5e 1e 01 00 	mov    %ax,0x11e5e(%rip)        # 22a84 <g_2424+0x4>
   10c26:	0f b7 05 57 1e 01 00 	movzwl 0x11e57(%rip),%eax        # 22a84 <g_2424+0x4>
   10c2d:	66 83 f8 09          	cmp    $0x9,%ax
   10c31:	0f 84 86 cc ff ff    	je     d8bd <func_18+0x1e3a>
   10c37:	0f b6 55 c4          	movzbl -0x3c(%rbp),%edx
   10c3b:	48 8b 05 4e 58 01 00 	mov    0x1584e(%rip),%rax        # 26490 <g_2235>
   10c42:	0f be d2             	movsbl %dl,%edx
   10c45:	89 10                	mov    %edx,(%rax)
   10c47:	8b 05 e3 19 01 00    	mov    0x119e3(%rip),%eax        # 22630 <g_1365>
   10c4d:	83 e8 01             	sub    $0x1,%eax
   10c50:	89 05 da 19 01 00    	mov    %eax,0x119da(%rip)        # 22630 <g_1365>
   10c56:	8b 05 d4 19 01 00    	mov    0x119d4(%rip),%eax        # 22630 <g_1365>
   10c5c:	83 f8 fc             	cmp    $0xfffffffc,%eax
   10c5f:	0f 8c 98 b0 ff ff    	jl     bcfd <func_18+0x27a>
   10c65:	0f b7 85 2e ea ff ff 	movzwl -0x15d2(%rbp),%eax
   10c6c:	83 e8 01             	sub    $0x1,%eax
   10c6f:	66 89 85 2e ea ff ff 	mov    %ax,-0x15d2(%rbp)
   10c76:	48 8b 85 98 e8 ff ff 	mov    -0x1768(%rbp),%rax
   10c7d:	48 8b 5d c8          	mov    -0x38(%rbp),%rbx
   10c81:	64 48 33 1c 25 28 00 	xor    %fs:0x28,%rbx
   10c88:	00 00 
   10c8a:	74 05                	je     10c91 <func_18+0x520e>
   10c8c:	e8 df 93 ff ff       	callq  a070 <__stack_chk_fail@plt>
   10c91:	48 81 c4 68 18 00 00 	add    $0x1868,%rsp
   10c98:	5b                   	pop    %rbx
   10c99:	41 5c                	pop    %r12
   10c9b:	41 5d                	pop    %r13
   10c9d:	41 5e                	pop    %r14
   10c9f:	41 5f                	pop    %r15
   10ca1:	5d                   	pop    %rbp
   10ca2:	c3                   	retq   

0000000000010ca3 <func_21>:
   10ca3:	f3 0f 1e fa          	endbr64 
   10ca7:	55                   	push   %rbp
   10ca8:	48 89 e5             	mov    %rsp,%rbp
   10cab:	41 54                	push   %r12
   10cad:	53                   	push   %rbx
   10cae:	48 81 ec b0 00 00 00 	sub    $0xb0,%rsp
   10cb5:	48 89 bd 58 ff ff ff 	mov    %rdi,-0xa8(%rbp)
   10cbc:	89 95 50 ff ff ff    	mov    %edx,-0xb0(%rbp)
   10cc2:	89 c8                	mov    %ecx,%eax
   10cc4:	4c 89 85 40 ff ff ff 	mov    %r8,-0xc0(%rbp)
   10ccb:	89 f2                	mov    %esi,%edx
   10ccd:	88 95 54 ff ff ff    	mov    %dl,-0xac(%rbp)
   10cd3:	66 89 85 4c ff ff ff 	mov    %ax,-0xb4(%rbp)
   10cda:	64 48 8b 04 25 28 00 	mov    %fs:0x28,%rax
   10ce1:	00 00 
   10ce3:	48 89 45 e8          	mov    %rax,-0x18(%rbp)
   10ce7:	31 c0                	xor    %eax,%eax
   10ce9:	c7 85 6c ff ff ff 00 	movl   $0x0,-0x94(%rbp)
   10cf0:	00 00 00 
   10cf3:	48 8d 05 8e 5e 01 00 	lea    0x15e8e(%rip),%rax        # 26b88 <g_744>
   10cfa:	48 89 85 78 ff ff ff 	mov    %rax,-0x88(%rbp)
   10d01:	48 8d 85 78 ff ff ff 	lea    -0x88(%rbp),%rax
   10d08:	48 89 45 a0          	mov    %rax,-0x60(%rbp)
   10d0c:	48 8d 05 15 4f 01 00 	lea    0x14f15(%rip),%rax        # 25c28 <g_1805>
   10d13:	48 89 45 80          	mov    %rax,-0x80(%rbp)
   10d17:	48 8d 45 80          	lea    -0x80(%rbp),%rax
   10d1b:	48 89 45 88          	mov    %rax,-0x78(%rbp)
   10d1f:	48 8d 45 88          	lea    -0x78(%rbp),%rax
   10d23:	48 89 45 90          	mov    %rax,-0x70(%rbp)
   10d27:	48 8d 45 90          	lea    -0x70(%rbp),%rax
   10d2b:	48 89 45 a8          	mov    %rax,-0x58(%rbp)
   10d2f:	48 8d 05 aa 4e 01 00 	lea    0x14eaa(%rip),%rax        # 25be0 <g_1764>
   10d36:	48 89 45 b0          	mov    %rax,-0x50(%rbp)
   10d3a:	c7 85 70 ff ff ff 07 	movl   $0x7,-0x90(%rbp)
   10d41:	00 00 00 
   10d44:	c7 45 c0 01 00 00 00 	movl   $0x1,-0x40(%rbp)
   10d4b:	c7 45 c4 01 00 00 00 	movl   $0x1,-0x3c(%rbp)
   10d52:	c7 45 c8 01 00 00 00 	movl   $0x1,-0x38(%rbp)
   10d59:	c7 45 cc 01 00 00 00 	movl   $0x1,-0x34(%rbp)
   10d60:	c7 45 d0 01 00 00 00 	movl   $0x1,-0x30(%rbp)
   10d67:	c7 45 d4 01 00 00 00 	movl   $0x1,-0x2c(%rbp)
   10d6e:	c7 45 d8 01 00 00 00 	movl   $0x1,-0x28(%rbp)
   10d75:	c7 85 74 ff ff ff 01 	movl   $0x1,-0x8c(%rbp)
   10d7c:	00 00 00 
   10d7f:	48 b8 ee d4 24 27 ea 	movabs $0x992f04ea2724d4ee,%rax
   10d86:	04 2f 99 
   10d89:	48 89 45 98          	mov    %rax,-0x68(%rbp)
   10d8d:	c7 85 64 ff ff ff 00 	movl   $0x0,-0x9c(%rbp)
   10d94:	00 00 00 
   10d97:	eb 45                	jmp    10dde <func_21+0x13b>
   10d99:	c7 85 68 ff ff ff 00 	movl   $0x0,-0x98(%rbp)
   10da0:	00 00 00 
   10da3:	eb 29                	jmp    10dce <func_21+0x12b>
   10da5:	8b 85 68 ff ff ff    	mov    -0x98(%rbp),%eax
   10dab:	48 63 d0             	movslq %eax,%rdx
   10dae:	8b 85 64 ff ff ff    	mov    -0x9c(%rbp),%eax
   10db4:	48 98                	cltq   
   10db6:	48 8d 5d f0          	lea    -0x10(%rbp),%rbx
   10dba:	48 01 da             	add    %rbx,%rdx
   10dbd:	48 01 d0             	add    %rdx,%rax
   10dc0:	48 83 e8 33          	sub    $0x33,%rax
   10dc4:	c6 00 ff             	movb   $0xff,(%rax)
   10dc7:	83 85 68 ff ff ff 01 	addl   $0x1,-0x98(%rbp)
   10dce:	83 bd 68 ff ff ff 00 	cmpl   $0x0,-0x98(%rbp)
   10dd5:	7e ce                	jle    10da5 <func_21+0x102>
   10dd7:	83 85 64 ff ff ff 01 	addl   $0x1,-0x9c(%rbp)
   10dde:	83 bd 64 ff ff ff 02 	cmpl   $0x2,-0x9c(%rbp)
   10de5:	7e b2                	jle    10d99 <func_21+0xf6>
   10de7:	83 bd 6c ff ff ff 00 	cmpl   $0x0,-0x94(%rbp)
   10dee:	0f 85 d3 00 00 00    	jne    10ec7 <func_21+0x224>
   10df4:	48 8b 05 9d 56 01 00 	mov    0x1569d(%rip),%rax        # 26498 <g_2402>
   10dfb:	48 8b 00             	mov    (%rax),%rax
   10dfe:	0f b6 00             	movzbl (%rax),%eax
   10e01:	84 c0                	test   %al,%al
   10e03:	0f 85 9a 00 00 00    	jne    10ea3 <func_21+0x200>
   10e09:	48 8b 05 50 4a 01 00 	mov    0x14a50(%rip),%rax        # 25860 <g_706>
   10e10:	0f b7 00             	movzwl (%rax),%eax
   10e13:	0f b7 d8             	movzwl %ax,%ebx
   10e16:	66 83 bd 4c ff ff ff 	cmpw   $0x0,-0xb4(%rbp)
   10e1d:	00 
   10e1e:	74 0e                	je     10e2e <func_21+0x18b>
   10e20:	8b 05 0a 15 01 00    	mov    0x1150a(%rip),%eax        # 22330 <g_179+0xb0>
   10e26:	23 85 6c ff ff ff    	and    -0x94(%rbp),%eax
   10e2c:	85 c0                	test   %eax,%eax
   10e2e:	48 8d 05 eb 5a 01 00 	lea    0x15aeb(%rip),%rax        # 26920 <g_246>
   10e35:	48 39 45 b0          	cmp    %rax,-0x50(%rbp)
   10e39:	0f 94 c0             	sete   %al
   10e3c:	44 0f b6 e0          	movzbl %al,%r12d
   10e40:	48 8b 05 71 56 01 00 	mov    0x15671(%rip),%rax        # 264b8 <g_2458>
   10e47:	48 89 45 a8          	mov    %rax,-0x58(%rbp)
   10e4b:	48 8b 45 a8          	mov    -0x58(%rbp),%rax
   10e4f:	48 3b 45 a0          	cmp    -0x60(%rbp),%rax
   10e53:	0f 94 c0             	sete   %al
   10e56:	0f b6 c0             	movzbl %al,%eax
   10e59:	be 0e 00 00 00       	mov    $0xe,%esi
   10e5e:	89 c7                	mov    %eax,%edi
   10e60:	e8 fe 96 ff ff       	callq  a563 <safe_rshift_func_int16_t_s_u>
   10e65:	0f be c0             	movsbl %al,%eax
   10e68:	44 89 e6             	mov    %r12d,%esi
   10e6b:	89 c7                	mov    %eax,%edi
   10e6d:	e8 7c 94 ff ff       	callq  a2ee <safe_lshift_func_int8_t_s_u>
   10e72:	8b 95 6c ff ff ff    	mov    -0x94(%rbp),%edx
   10e78:	f7 d2                	not    %edx
   10e7a:	0f be c0             	movsbl %al,%eax
   10e7d:	09 85 70 ff ff ff    	or     %eax,-0x90(%rbp)
   10e83:	8b 85 70 ff ff ff    	mov    -0x90(%rbp),%eax
   10e89:	39 c2                	cmp    %eax,%edx
   10e8b:	0f 92 c0             	setb   %al
   10e8e:	0f b6 c0             	movzbl %al,%eax
   10e91:	89 de                	mov    %ebx,%esi
   10e93:	89 c7                	mov    %eax,%edi
   10e95:	e8 a3 9e ff ff       	callq  ad3d <safe_mul_func_uint16_t_u_u>
   10e9a:	83 bd 50 ff ff ff 00 	cmpl   $0x0,-0xb0(%rbp)
   10ea1:	74 07                	je     10eaa <func_21+0x207>
   10ea3:	b8 01 00 00 00       	mov    $0x1,%eax
   10ea8:	eb 05                	jmp    10eaf <func_21+0x20c>
   10eaa:	b8 00 00 00 00       	mov    $0x0,%eax
   10eaf:	98                   	cwtl   
   10eb0:	be 0c 00 00 00       	mov    $0xc,%esi
   10eb5:	89 c7                	mov    %eax,%edi
   10eb7:	e8 25 96 ff ff       	callq  a4e1 <safe_lshift_func_int16_t_s_u>
   10ebc:	98                   	cwtl   
   10ebd:	89 45 c4             	mov    %eax,-0x3c(%rbp)
   10ec0:	8b 45 c4             	mov    -0x3c(%rbp),%eax
   10ec3:	85 c0                	test   %eax,%eax
   10ec5:	74 07                	je     10ece <func_21+0x22b>
   10ec7:	b8 01 00 00 00       	mov    $0x1,%eax
   10ecc:	eb 05                	jmp    10ed3 <func_21+0x230>
   10ece:	b8 00 00 00 00       	mov    $0x0,%eax
   10ed3:	39 85 6c ff ff ff    	cmp    %eax,-0x94(%rbp)
   10ed9:	0f 96 c0             	setbe  %al
   10edc:	0f b6 c0             	movzbl %al,%eax
   10edf:	39 85 6c ff ff ff    	cmp    %eax,-0x94(%rbp)
   10ee5:	0f 92 c0             	setb   %al
   10ee8:	0f b6 c0             	movzbl %al,%eax
   10eeb:	39 85 74 ff ff ff    	cmp    %eax,-0x8c(%rbp)
   10ef1:	0f 9c c0             	setl   %al
   10ef4:	0f b6 c8             	movzbl %al,%ecx
   10ef7:	48 8b 05 92 55 01 00 	mov    0x15592(%rip),%rax        # 26490 <g_2235>
   10efe:	8b 10                	mov    (%rax),%edx
   10f00:	48 8b 05 89 55 01 00 	mov    0x15589(%rip),%rax        # 26490 <g_2235>
   10f07:	09 ca                	or     %ecx,%edx
   10f09:	89 10                	mov    %edx,(%rax)
   10f0b:	48 8b 05 7e 55 01 00 	mov    0x1557e(%rip),%rax        # 26490 <g_2235>
   10f12:	8b 08                	mov    (%rax),%ecx
   10f14:	0f b6 45 bf          	movzbl -0x41(%rbp),%eax
   10f18:	3c 08                	cmp    $0x8,%al
   10f1a:	0f 95 c0             	setne  %al
   10f1d:	0f b6 d0             	movzbl %al,%edx
   10f20:	48 8b 05 69 55 01 00 	mov    0x15569(%rip),%rax        # 26490 <g_2235>
   10f27:	21 ca                	and    %ecx,%edx
   10f29:	89 10                	mov    %edx,(%rax)
   10f2b:	48 8b 45 98          	mov    -0x68(%rbp),%rax
   10f2f:	48 8b 5d e8          	mov    -0x18(%rbp),%rbx
   10f33:	64 48 33 1c 25 28 00 	xor    %fs:0x28,%rbx
   10f3a:	00 00 
   10f3c:	74 05                	je     10f43 <func_21+0x2a0>
   10f3e:	e8 2d 91 ff ff       	callq  a070 <__stack_chk_fail@plt>
   10f43:	48 81 c4 b0 00 00 00 	add    $0xb0,%rsp
   10f4a:	5b                   	pop    %rbx
   10f4b:	41 5c                	pop    %r12
   10f4d:	5d                   	pop    %rbp
   10f4e:	c3                   	retq   

0000000000010f4f <func_31>:
   10f4f:	f3 0f 1e fa          	endbr64 
   10f53:	55                   	push   %rbp
   10f54:	48 89 e5             	mov    %rsp,%rbp
   10f57:	41 57                	push   %r15
   10f59:	41 56                	push   %r14
   10f5b:	41 55                	push   %r13
   10f5d:	41 54                	push   %r12
   10f5f:	53                   	push   %rbx
   10f60:	48 81 ec 48 0e 00 00 	sub    $0xe48,%rsp
   10f67:	89 bd dc f1 ff ff    	mov    %edi,-0xe24(%rbp)
   10f6d:	48 89 b5 d0 f1 ff ff 	mov    %rsi,-0xe30(%rbp)
   10f74:	48 89 95 c8 f1 ff ff 	mov    %rdx,-0xe38(%rbp)
   10f7b:	48 89 8d c0 f1 ff ff 	mov    %rcx,-0xe40(%rbp)
   10f82:	4c 89 85 b8 f1 ff ff 	mov    %r8,-0xe48(%rbp)
   10f89:	64 48 8b 04 25 28 00 	mov    %fs:0x28,%rax
   10f90:	00 00 
   10f92:	48 89 45 c8          	mov    %rax,-0x38(%rbp)
   10f96:	31 c0                	xor    %eax,%eax
   10f98:	48 b8 0c 07 49 5e 52 	movabs $0xc5e8b8525e49070c,%rax
   10f9f:	b8 e8 c5 
   10fa2:	48 89 85 78 f2 ff ff 	mov    %rax,-0xd88(%rbp)
   10fa9:	c7 85 a0 f6 ff ff 07 	movl   $0x7,-0x960(%rbp)
   10fb0:	00 00 00 
   10fb3:	c7 85 a4 f6 ff ff 7f 	movl   $0x3dbd97f,-0x95c(%rbp)
   10fba:	d9 db 03 
   10fbd:	c7 85 a8 f6 ff ff 01 	movl   $0x1,-0x958(%rbp)
   10fc4:	00 00 00 
   10fc7:	c7 85 ac f6 ff ff a8 	movl   $0xcae71ca8,-0x954(%rbp)
   10fce:	1c e7 ca 
   10fd1:	c7 85 b0 f6 ff ff 01 	movl   $0x1,-0x950(%rbp)
   10fd8:	00 00 00 
   10fdb:	c7 85 b4 f6 ff ff 7f 	movl   $0x3dbd97f,-0x94c(%rbp)
   10fe2:	d9 db 03 
   10fe5:	c7 85 b8 f6 ff ff 07 	movl   $0x7,-0x948(%rbp)
   10fec:	00 00 00 
   10fef:	c7 85 bc f6 ff ff 07 	movl   $0x7,-0x944(%rbp)
   10ff6:	00 00 00 
   10ff9:	c7 85 c0 f6 ff ff 7f 	movl   $0x3dbd97f,-0x940(%rbp)
   11000:	d9 db 03 
   11003:	c7 85 c4 f6 ff ff a8 	movl   $0xcae71ca8,-0x93c(%rbp)
   1100a:	1c e7 ca 
   1100d:	c7 85 c8 f6 ff ff 08 	movl   $0x8,-0x938(%rbp)
   11014:	00 00 00 
   11017:	c7 85 cc f6 ff ff 08 	movl   $0x8,-0x934(%rbp)
   1101e:	00 00 00 
   11021:	c7 85 d0 f6 ff ff a8 	movl   $0xcae71ca8,-0x930(%rbp)
   11028:	1c e7 ca 
   1102b:	c7 85 d4 f6 ff ff 7f 	movl   $0x3dbd97f,-0x92c(%rbp)
   11032:	d9 db 03 
   11035:	c7 85 d8 f6 ff ff 00 	movl   $0x0,-0x928(%rbp)
   1103c:	00 00 00 
   1103f:	c7 85 dc f6 ff ff 7f 	movl   $0x3dbd97f,-0x924(%rbp)
   11046:	d9 db 03 
   11049:	c7 85 e0 f6 ff ff a8 	movl   $0xcae71ca8,-0x920(%rbp)
   11050:	1c e7 ca 
   11053:	c7 85 e4 f6 ff ff 7f 	movl   $0x3dbd97f,-0x91c(%rbp)
   1105a:	d9 db 03 
   1105d:	c7 85 e8 f6 ff ff 00 	movl   $0x0,-0x918(%rbp)
   11064:	00 00 00 
   11067:	c7 85 ec f6 ff ff 7f 	movl   $0x3dbd97f,-0x914(%rbp)
   1106e:	d9 db 03 
   11071:	c7 85 f0 f6 ff ff a8 	movl   $0xcae71ca8,-0x910(%rbp)
   11078:	1c e7 ca 
   1107b:	c7 85 f4 f6 ff ff 08 	movl   $0x8,-0x90c(%rbp)
   11082:	00 00 00 
   11085:	c7 85 f8 f6 ff ff 08 	movl   $0x8,-0x908(%rbp)
   1108c:	00 00 00 
   1108f:	c7 85 fc f6 ff ff a8 	movl   $0xcae71ca8,-0x904(%rbp)
   11096:	1c e7 ca 
   11099:	c7 85 00 f7 ff ff 7f 	movl   $0x3dbd97f,-0x900(%rbp)
   110a0:	d9 db 03 
   110a3:	c7 85 04 f7 ff ff 07 	movl   $0x7,-0x8fc(%rbp)
   110aa:	00 00 00 
   110ad:	c7 85 08 f7 ff ff 07 	movl   $0x7,-0x8f8(%rbp)
   110b4:	00 00 00 
   110b7:	c7 85 0c f7 ff ff 7f 	movl   $0x3dbd97f,-0x8f4(%rbp)
   110be:	d9 db 03 
   110c1:	c7 85 10 f7 ff ff 01 	movl   $0x1,-0x8f0(%rbp)
   110c8:	00 00 00 
   110cb:	c7 85 14 f7 ff ff a8 	movl   $0xcae71ca8,-0x8ec(%rbp)
   110d2:	1c e7 ca 
   110d5:	c7 85 18 f7 ff ff 01 	movl   $0x1,-0x8e8(%rbp)
   110dc:	00 00 00 
   110df:	c7 85 1c f7 ff ff 7f 	movl   $0x3dbd97f,-0x8e4(%rbp)
   110e6:	d9 db 03 
   110e9:	66 c7 85 ee f1 ff ff 	movw   $0xfff9,-0xe12(%rbp)
   110f0:	f9 ff 
   110f2:	48 c7 85 60 f6 ff ff 	movq   $0x0,-0x9a0(%rbp)
   110f9:	00 00 00 00 
   110fd:	48 c7 85 68 f6 ff ff 	movq   $0x0,-0x998(%rbp)
   11104:	00 00 00 00 
   11108:	48 c7 85 70 f6 ff ff 	movq   $0x0,-0x990(%rbp)
   1110f:	00 00 00 00 
   11113:	48 c7 85 78 f6 ff ff 	movq   $0x0,-0x988(%rbp)
   1111a:	00 00 00 00 
   1111e:	48 c7 85 80 f6 ff ff 	movq   $0x0,-0x980(%rbp)
   11125:	00 00 00 00 
   11129:	48 c7 85 88 f6 ff ff 	movq   $0x0,-0x978(%rbp)
   11130:	00 00 00 00 
   11134:	48 c7 85 90 f6 ff ff 	movq   $0x0,-0x970(%rbp)
   1113b:	00 00 00 00 
   1113f:	48 8d 85 60 f6 ff ff 	lea    -0x9a0(%rbp),%rax
   11146:	48 83 c0 30          	add    $0x30,%rax
   1114a:	48 89 85 20 f7 ff ff 	mov    %rax,-0x8e0(%rbp)
   11151:	48 8d 85 60 f6 ff ff 	lea    -0x9a0(%rbp),%rax
   11158:	48 83 c0 30          	add    $0x30,%rax
   1115c:	48 89 85 28 f7 ff ff 	mov    %rax,-0x8d8(%rbp)
   11163:	48 8d 85 60 f6 ff ff 	lea    -0x9a0(%rbp),%rax
   1116a:	48 83 c0 30          	add    $0x30,%rax
   1116e:	48 89 85 30 f7 ff ff 	mov    %rax,-0x8d0(%rbp)
   11175:	48 8d 85 60 f6 ff ff 	lea    -0x9a0(%rbp),%rax
   1117c:	48 83 c0 30          	add    $0x30,%rax
   11180:	48 89 85 38 f7 ff ff 	mov    %rax,-0x8c8(%rbp)
   11187:	48 8d 85 60 f6 ff ff 	lea    -0x9a0(%rbp),%rax
   1118e:	48 83 c0 30          	add    $0x30,%rax
   11192:	48 89 85 40 f7 ff ff 	mov    %rax,-0x8c0(%rbp)
   11199:	48 8d 85 60 f6 ff ff 	lea    -0x9a0(%rbp),%rax
   111a0:	48 83 c0 30          	add    $0x30,%rax
   111a4:	48 89 85 48 f7 ff ff 	mov    %rax,-0x8b8(%rbp)
   111ab:	48 8d 85 60 f6 ff ff 	lea    -0x9a0(%rbp),%rax
   111b2:	48 83 c0 30          	add    $0x30,%rax
   111b6:	48 89 85 50 f7 ff ff 	mov    %rax,-0x8b0(%rbp)
   111bd:	48 8d 85 60 f6 ff ff 	lea    -0x9a0(%rbp),%rax
   111c4:	48 83 c0 30          	add    $0x30,%rax
   111c8:	48 89 85 58 f7 ff ff 	mov    %rax,-0x8a8(%rbp)
   111cf:	48 8d 85 60 f6 ff ff 	lea    -0x9a0(%rbp),%rax
   111d6:	48 83 c0 30          	add    $0x30,%rax
   111da:	48 89 85 60 f7 ff ff 	mov    %rax,-0x8a0(%rbp)
   111e1:	48 8d 85 60 f6 ff ff 	lea    -0x9a0(%rbp),%rax
   111e8:	48 83 c0 30          	add    $0x30,%rax
   111ec:	48 89 85 68 f7 ff ff 	mov    %rax,-0x898(%rbp)
   111f3:	48 8d 85 60 f6 ff ff 	lea    -0x9a0(%rbp),%rax
   111fa:	48 83 c0 30          	add    $0x30,%rax
   111fe:	48 89 85 70 f7 ff ff 	mov    %rax,-0x890(%rbp)
   11205:	48 8d 85 60 f6 ff ff 	lea    -0x9a0(%rbp),%rax
   1120c:	48 83 c0 08          	add    $0x8,%rax
   11210:	48 89 85 78 f7 ff ff 	mov    %rax,-0x888(%rbp)
   11217:	48 8d 85 60 f6 ff ff 	lea    -0x9a0(%rbp),%rax
   1121e:	48 83 c0 30          	add    $0x30,%rax
   11222:	48 89 85 80 f7 ff ff 	mov    %rax,-0x880(%rbp)
   11229:	48 8d 85 60 f6 ff ff 	lea    -0x9a0(%rbp),%rax
   11230:	48 83 c0 30          	add    $0x30,%rax
   11234:	48 89 85 88 f7 ff ff 	mov    %rax,-0x878(%rbp)
   1123b:	48 8d 85 60 f6 ff ff 	lea    -0x9a0(%rbp),%rax
   11242:	48 83 c0 08          	add    $0x8,%rax
   11246:	48 89 85 90 f7 ff ff 	mov    %rax,-0x870(%rbp)
   1124d:	48 8d 85 60 f6 ff ff 	lea    -0x9a0(%rbp),%rax
   11254:	48 83 c0 30          	add    $0x30,%rax
   11258:	48 89 85 98 f7 ff ff 	mov    %rax,-0x868(%rbp)
   1125f:	48 8d 85 60 f6 ff ff 	lea    -0x9a0(%rbp),%rax
   11266:	48 83 c0 30          	add    $0x30,%rax
   1126a:	48 89 85 a0 f7 ff ff 	mov    %rax,-0x860(%rbp)
   11271:	48 8d 85 60 f6 ff ff 	lea    -0x9a0(%rbp),%rax
   11278:	48 83 c0 08          	add    $0x8,%rax
   1127c:	48 89 85 a8 f7 ff ff 	mov    %rax,-0x858(%rbp)
   11283:	48 8d 85 60 f6 ff ff 	lea    -0x9a0(%rbp),%rax
   1128a:	48 83 c0 30          	add    $0x30,%rax
   1128e:	48 89 85 b0 f7 ff ff 	mov    %rax,-0x850(%rbp)
   11295:	48 8d 85 60 f6 ff ff 	lea    -0x9a0(%rbp),%rax
   1129c:	48 83 c0 30          	add    $0x30,%rax
   112a0:	48 89 85 b8 f7 ff ff 	mov    %rax,-0x848(%rbp)
   112a7:	48 8d 85 60 f6 ff ff 	lea    -0x9a0(%rbp),%rax
   112ae:	48 83 c0 30          	add    $0x30,%rax
   112b2:	48 89 85 c0 f7 ff ff 	mov    %rax,-0x840(%rbp)
   112b9:	48 8d 85 60 f6 ff ff 	lea    -0x9a0(%rbp),%rax
   112c0:	48 83 c0 30          	add    $0x30,%rax
   112c4:	48 89 85 c8 f7 ff ff 	mov    %rax,-0x838(%rbp)
   112cb:	48 8d 85 60 f6 ff ff 	lea    -0x9a0(%rbp),%rax
   112d2:	48 83 c0 30          	add    $0x30,%rax
   112d6:	48 89 85 d0 f7 ff ff 	mov    %rax,-0x830(%rbp)
   112dd:	48 8d 85 60 f6 ff ff 	lea    -0x9a0(%rbp),%rax
   112e4:	48 83 c0 30          	add    $0x30,%rax
   112e8:	48 89 85 d8 f7 ff ff 	mov    %rax,-0x828(%rbp)
   112ef:	48 8d 85 60 f6 ff ff 	lea    -0x9a0(%rbp),%rax
   112f6:	48 83 c0 30          	add    $0x30,%rax
   112fa:	48 89 85 e0 f7 ff ff 	mov    %rax,-0x820(%rbp)
   11301:	48 8d 85 60 f6 ff ff 	lea    -0x9a0(%rbp),%rax
   11308:	48 83 c0 30          	add    $0x30,%rax
   1130c:	48 89 85 e8 f7 ff ff 	mov    %rax,-0x818(%rbp)
   11313:	48 8d 85 60 f6 ff ff 	lea    -0x9a0(%rbp),%rax
   1131a:	48 83 c0 30          	add    $0x30,%rax
   1131e:	48 89 85 f0 f7 ff ff 	mov    %rax,-0x810(%rbp)
   11325:	48 8d 85 20 f7 ff ff 	lea    -0x8e0(%rbp),%rax
   1132c:	48 05 90 00 00 00    	add    $0x90,%rax
   11332:	48 89 85 80 f2 ff ff 	mov    %rax,-0xd80(%rbp)
   11339:	48 8d 85 80 f2 ff ff 	lea    -0xd80(%rbp),%rax
   11340:	48 89 85 d0 f2 ff ff 	mov    %rax,-0xd30(%rbp)
   11347:	48 c7 85 d8 f2 ff ff 	movq   $0x0,-0xd28(%rbp)
   1134e:	00 00 00 00 
   11352:	c7 85 28 f2 ff ff 26 	movl   $0x28b4cb26,-0xdd8(%rbp)
   11359:	cb b4 28 
   1135c:	66 c7 85 f0 f1 ff ff 	movw   $0x3,-0xe10(%rbp)
   11363:	03 00 
   11365:	48 8d 85 00 f8 ff ff 	lea    -0x800(%rbp),%rax
   1136c:	48 8d 15 6d c3 00 00 	lea    0xc36d(%rip),%rdx        # 1d6e0 <g_2807+0x30>
   11373:	b9 2a 00 00 00       	mov    $0x2a,%ecx
   11378:	48 89 c7             	mov    %rax,%rdi
   1137b:	48 89 d6             	mov    %rdx,%rsi
   1137e:	f3 48 a5             	rep movsq %ds:(%rsi),%es:(%rdi)
   11381:	c7 85 c0 f5 ff ff 63 	movl   $0x656e0263,-0xa40(%rbp)
   11388:	02 6e 65 
   1138b:	c7 85 c4 f5 ff ff 63 	movl   $0x656e0263,-0xa3c(%rbp)
   11392:	02 6e 65 
   11395:	c7 85 c8 f5 ff ff ab 	movl   $0xf89280ab,-0xa38(%rbp)
   1139c:	80 92 f8 
   1139f:	c7 85 cc f5 ff ff 63 	movl   $0x656e0263,-0xa34(%rbp)
   113a6:	02 6e 65 
   113a9:	c7 85 d0 f5 ff ff 63 	movl   $0x656e0263,-0xa30(%rbp)
   113b0:	02 6e 65 
   113b3:	c7 85 d4 f5 ff ff ab 	movl   $0xf89280ab,-0xa2c(%rbp)
   113ba:	80 92 f8 
   113bd:	c6 85 e6 f1 ff ff 02 	movb   $0x2,-0xe1a(%rbp)
   113c4:	66 c7 05 65 10 01 00 	movw   $0x0,0x11065(%rip)        # 22432 <g_248+0x12>
   113cb:	00 00 
   113cd:	e9 dc 1a 00 00       	jmpq   12eae <func_31+0x1f5f>
   113d2:	66 c7 85 ec f1 ff ff 	movw   $0x8d0f,-0xe14(%rbp)
   113d9:	0f 8d 
   113db:	c7 85 f8 f1 ff ff d5 	movl   $0xae44e3d5,-0xe08(%rbp)
   113e2:	e3 44 ae 
   113e5:	48 8d 05 a9 11 01 00 	lea    0x111a9(%rip),%rax        # 22595 <g_596+0x5>
   113ec:	48 89 85 88 f2 ff ff 	mov    %rax,-0xd78(%rbp)
   113f3:	48 8d 85 88 f2 ff ff 	lea    -0xd78(%rbp),%rax
   113fa:	48 89 85 90 f2 ff ff 	mov    %rax,-0xd70(%rbp)
   11401:	48 8d 85 90 f2 ff ff 	lea    -0xd70(%rbp),%rax
   11408:	48 89 85 98 f2 ff ff 	mov    %rax,-0xd68(%rbp)
   1140f:	48 8d 85 98 f2 ff ff 	lea    -0xd68(%rbp),%rax
   11416:	48 89 85 e8 f3 ff ff 	mov    %rax,-0xc18(%rbp)
   1141d:	48 c7 85 f0 f3 ff ff 	movq   $0x0,-0xc10(%rbp)
   11424:	00 00 00 00 
   11428:	48 b8 f9 ad 0d de b5 	movabs $0x7c3fb7b5de0dadf9,%rax
   1142f:	b7 3f 7c 
   11432:	48 89 85 f8 f3 ff ff 	mov    %rax,-0xc08(%rbp)
   11439:	c7 85 fc f1 ff ff 00 	movl   $0x0,-0xe04(%rbp)
   11440:	00 00 00 
   11443:	c7 85 48 f2 ff ff ff 	movl   $0xffffffff,-0xdb8(%rbp)
   1144a:	ff ff ff 
   1144d:	48 c7 85 00 f4 ff ff 	movq   $0xfffffffffffffff7,-0xc00(%rbp)
   11454:	f7 ff ff ff 
   11458:	48 b8 44 33 16 6c 4a 	movabs $0xfe45244a6c163344,%rax
   1145f:	24 45 fe 
   11462:	48 89 85 08 f4 ff ff 	mov    %rax,-0xbf8(%rbp)
   11469:	c6 85 e8 f1 ff ff ff 	movb   $0xff,-0xe18(%rbp)
   11470:	c6 85 e9 f1 ff ff 08 	movb   $0x8,-0xe17(%rbp)
   11477:	48 b8 3a de f2 3b 3c 	movabs $0xbd78593c3bf2de3a,%rax
   1147e:	59 78 bd 
   11481:	48 89 85 10 f4 ff ff 	mov    %rax,-0xbf0(%rbp)
   11488:	48 8d 05 ed 11 01 00 	lea    0x111ed(%rip),%rax        # 2267c <g_1757+0x1c>
   1148f:	48 89 85 18 f4 ff ff 	mov    %rax,-0xbe8(%rbp)
   11496:	c7 85 0c f2 ff ff 00 	movl   $0x0,-0xdf4(%rbp)
   1149d:	00 00 00 
   114a0:	eb 1e                	jmp    114c0 <func_31+0x571>
   114a2:	8b 85 0c f2 ff ff    	mov    -0xdf4(%rbp),%eax
   114a8:	48 98                	cltq   
   114aa:	48 8d 15 17 57 01 00 	lea    0x15717(%rip),%rdx        # 26bc8 <g_2089>
   114b1:	48 89 94 c5 80 f5 ff 	mov    %rdx,-0xa80(%rbp,%rax,8)
   114b8:	ff 
   114b9:	83 85 0c f2 ff ff 01 	addl   $0x1,-0xdf4(%rbp)
   114c0:	83 bd 0c f2 ff ff 00 	cmpl   $0x0,-0xdf4(%rbp)
   114c7:	7e d9                	jle    114a2 <func_31+0x553>
   114c9:	c7 85 0c f2 ff ff 00 	movl   $0x0,-0xdf4(%rbp)
   114d0:	00 00 00 
   114d3:	eb 1a                	jmp    114ef <func_31+0x5a0>
   114d5:	8b 85 0c f2 ff ff    	mov    -0xdf4(%rbp),%eax
   114db:	48 98                	cltq   
   114dd:	c7 84 85 88 f5 ff ff 	movl   $0xb26cbd6c,-0xa78(%rbp,%rax,4)
   114e4:	6c bd 6c b2 
   114e8:	83 85 0c f2 ff ff 01 	addl   $0x1,-0xdf4(%rbp)
   114ef:	83 bd 0c f2 ff ff 01 	cmpl   $0x1,-0xdf4(%rbp)
   114f6:	7e dd                	jle    114d5 <func_31+0x586>
   114f8:	66 c7 05 73 10 01 00 	movw   $0xffff,0x11073(%rip)        # 22574 <g_428+0x4>
   114ff:	ff ff 
   11501:	90                   	nop
   11502:	0f b7 05 6b 10 01 00 	movzwl 0x1106b(%rip),%eax        # 22574 <g_428+0x4>
   11509:	66 83 f8 37          	cmp    $0x37,%ax
   1150d:	0f 84 98 18 00 00    	je     12dab <func_31+0x1e5c>
   11513:	48 8d 05 7e 32 01 00 	lea    0x1327e(%rip),%rax        # 24798 <g_155>
   1151a:	48 89 85 a0 f2 ff ff 	mov    %rax,-0xd60(%rbp)
   11521:	48 8d 85 a0 f2 ff ff 	lea    -0xd60(%rbp),%rax
   11528:	48 89 85 a8 f2 ff ff 	mov    %rax,-0xd58(%rbp)
   1152f:	48 8d 85 a8 f2 ff ff 	lea    -0xd58(%rbp),%rax
   11536:	48 89 85 20 f4 ff ff 	mov    %rax,-0xbe0(%rbp)
   1153d:	c7 85 00 f2 ff ff ff 	movl   $0xffffffff,-0xe00(%rbp)
   11544:	ff ff ff 
   11547:	48 b8 35 98 9d 0c 9a 	movabs $0xc80c949a0c9d9835,%rax
   1154e:	94 0c c8 
   11551:	48 89 85 b0 f2 ff ff 	mov    %rax,-0xd50(%rbp)
   11558:	48 b8 fd f9 1c 2b 15 	movabs $0xc47b37152b1cf9fd,%rax
   1155f:	37 7b c4 
   11562:	48 89 85 28 f4 ff ff 	mov    %rax,-0xbd8(%rbp)
   11569:	48 c7 85 d0 fb ff ff 	movq   $0x0,-0x430(%rbp)
   11570:	00 00 00 00 
   11574:	48 8d 05 c1 0e 01 00 	lea    0x10ec1(%rip),%rax        # 2243c <g_279>
   1157b:	48 89 85 d8 fb ff ff 	mov    %rax,-0x428(%rbp)
   11582:	48 c7 85 e0 fb ff ff 	movq   $0x0,-0x420(%rbp)
   11589:	00 00 00 00 
   1158d:	48 8d 85 ec f1 ff ff 	lea    -0xe14(%rbp),%rax
   11594:	48 89 85 e8 fb ff ff 	mov    %rax,-0x418(%rbp)
   1159b:	48 8d 05 10 10 01 00 	lea    0x11010(%rip),%rax        # 225b2 <g_843+0x12>
   115a2:	48 89 85 f0 fb ff ff 	mov    %rax,-0x410(%rbp)
   115a9:	48 8d 05 02 10 01 00 	lea    0x11002(%rip),%rax        # 225b2 <g_843+0x12>
   115b0:	48 89 85 f8 fb ff ff 	mov    %rax,-0x408(%rbp)
   115b7:	48 8d 85 ec f1 ff ff 	lea    -0xe14(%rbp),%rax
   115be:	48 89 85 00 fc ff ff 	mov    %rax,-0x400(%rbp)
   115c5:	48 8d 05 e6 0f 01 00 	lea    0x10fe6(%rip),%rax        # 225b2 <g_843+0x12>
   115cc:	48 89 85 08 fc ff ff 	mov    %rax,-0x3f8(%rbp)
   115d3:	48 8d 05 d8 0f 01 00 	lea    0x10fd8(%rip),%rax        # 225b2 <g_843+0x12>
   115da:	48 89 85 10 fc ff ff 	mov    %rax,-0x3f0(%rbp)
   115e1:	48 c7 85 18 fc ff ff 	movq   $0x0,-0x3e8(%rbp)
   115e8:	00 00 00 00 
   115ec:	48 8d 05 99 11 01 00 	lea    0x11199(%rip),%rax        # 2278c <g_2044>
   115f3:	48 89 85 20 fc ff ff 	mov    %rax,-0x3e0(%rbp)
   115fa:	48 8d 05 31 0e 01 00 	lea    0x10e31(%rip),%rax        # 22432 <g_248+0x12>
   11601:	48 89 85 28 fc ff ff 	mov    %rax,-0x3d8(%rbp)
   11608:	48 8d 05 8d 0f 01 00 	lea    0x10f8d(%rip),%rax        # 2259c <g_712>
   1160f:	48 89 85 30 fc ff ff 	mov    %rax,-0x3d0(%rbp)
   11616:	48 8d 05 95 0f 01 00 	lea    0x10f95(%rip),%rax        # 225b2 <g_843+0x12>
   1161d:	48 89 85 38 fc ff ff 	mov    %rax,-0x3c8(%rbp)
   11624:	48 8d 05 11 0e 01 00 	lea    0x10e11(%rip),%rax        # 2243c <g_279>
   1162b:	48 89 85 40 fc ff ff 	mov    %rax,-0x3c0(%rbp)
   11632:	48 c7 85 48 fc ff ff 	movq   $0x0,-0x3b8(%rbp)
   11639:	00 00 00 00 
   1163d:	48 8d 85 ec f1 ff ff 	lea    -0xe14(%rbp),%rax
   11644:	48 89 85 50 fc ff ff 	mov    %rax,-0x3b0(%rbp)
   1164b:	48 8d 85 ec f1 ff ff 	lea    -0xe14(%rbp),%rax
   11652:	48 89 85 58 fc ff ff 	mov    %rax,-0x3a8(%rbp)
   11659:	48 8d 85 ec f1 ff ff 	lea    -0xe14(%rbp),%rax
   11660:	48 89 85 60 fc ff ff 	mov    %rax,-0x3a0(%rbp)
   11667:	48 8d 05 74 0f 01 00 	lea    0x10f74(%rip),%rax        # 225e2 <g_1055+0x12>
   1166e:	48 89 85 68 fc ff ff 	mov    %rax,-0x398(%rbp)
   11675:	48 8d 05 66 0f 01 00 	lea    0x10f66(%rip),%rax        # 225e2 <g_1055+0x12>
   1167c:	48 89 85 70 fc ff ff 	mov    %rax,-0x390(%rbp)
   11683:	48 8d 85 ec f1 ff ff 	lea    -0xe14(%rbp),%rax
   1168a:	48 89 85 78 fc ff ff 	mov    %rax,-0x388(%rbp)
   11691:	48 8d 05 1a 0f 01 00 	lea    0x10f1a(%rip),%rax        # 225b2 <g_843+0x12>
   11698:	48 89 85 80 fc ff ff 	mov    %rax,-0x380(%rbp)
   1169f:	48 8d 05 0c 0f 01 00 	lea    0x10f0c(%rip),%rax        # 225b2 <g_843+0x12>
   116a6:	48 89 85 88 fc ff ff 	mov    %rax,-0x378(%rbp)
   116ad:	48 c7 85 90 fc ff ff 	movq   $0x0,-0x370(%rbp)
   116b4:	00 00 00 00 
   116b8:	48 8d 05 dd 0e 01 00 	lea    0x10edd(%rip),%rax        # 2259c <g_712>
   116bf:	48 89 85 98 fc ff ff 	mov    %rax,-0x368(%rbp)
   116c6:	48 8d 05 65 0d 01 00 	lea    0x10d65(%rip),%rax        # 22432 <g_248+0x12>
   116cd:	48 89 85 a0 fc ff ff 	mov    %rax,-0x360(%rbp)
   116d4:	48 8d 05 61 0d 01 00 	lea    0x10d61(%rip),%rax        # 2243c <g_279>
   116db:	48 89 85 a8 fc ff ff 	mov    %rax,-0x358(%rbp)
   116e2:	48 8d 05 53 0d 01 00 	lea    0x10d53(%rip),%rax        # 2243c <g_279>
   116e9:	48 89 85 b0 fc ff ff 	mov    %rax,-0x350(%rbp)
   116f0:	48 8d 05 95 10 01 00 	lea    0x11095(%rip),%rax        # 2278c <g_2044>
   116f7:	48 89 85 b8 fc ff ff 	mov    %rax,-0x348(%rbp)
   116fe:	48 c7 85 c0 fc ff ff 	movq   $0x0,-0x340(%rbp)
   11705:	00 00 00 00 
   11709:	48 c7 85 c8 fc ff ff 	movq   $0x0,-0x338(%rbp)
   11710:	00 00 00 00 
   11714:	48 8d 05 71 10 01 00 	lea    0x11071(%rip),%rax        # 2278c <g_2044>
   1171b:	48 89 85 d0 fc ff ff 	mov    %rax,-0x330(%rbp)
   11722:	48 c7 85 d8 fc ff ff 	movq   $0x0,-0x328(%rbp)
   11729:	00 00 00 00 
   1172d:	48 8d 05 08 0d 01 00 	lea    0x10d08(%rip),%rax        # 2243c <g_279>
   11734:	48 89 85 e0 fc ff ff 	mov    %rax,-0x320(%rbp)
   1173b:	48 8d 05 70 0e 01 00 	lea    0x10e70(%rip),%rax        # 225b2 <g_843+0x12>
   11742:	48 89 85 e8 fc ff ff 	mov    %rax,-0x318(%rbp)
   11749:	48 8d 05 62 0e 01 00 	lea    0x10e62(%rip),%rax        # 225b2 <g_843+0x12>
   11750:	48 89 85 f0 fc ff ff 	mov    %rax,-0x310(%rbp)
   11757:	48 8d 05 3e 0e 01 00 	lea    0x10e3e(%rip),%rax        # 2259c <g_712>
   1175e:	48 89 85 f8 fc ff ff 	mov    %rax,-0x308(%rbp)
   11765:	48 8d 85 ec f1 ff ff 	lea    -0xe14(%rbp),%rax
   1176c:	48 89 85 00 fd ff ff 	mov    %rax,-0x300(%rbp)
   11773:	48 8d 05 22 0e 01 00 	lea    0x10e22(%rip),%rax        # 2259c <g_712>
   1177a:	48 89 85 08 fd ff ff 	mov    %rax,-0x2f8(%rbp)
   11781:	48 8d 05 2a 0e 01 00 	lea    0x10e2a(%rip),%rax        # 225b2 <g_843+0x12>
   11788:	48 89 85 10 fd ff ff 	mov    %rax,-0x2f0(%rbp)
   1178f:	48 c7 85 18 fd ff ff 	movq   $0x0,-0x2e8(%rbp)
   11796:	00 00 00 00 
   1179a:	48 8d 05 eb 0f 01 00 	lea    0x10feb(%rip),%rax        # 2278c <g_2044>
   117a1:	48 89 85 20 fd ff ff 	mov    %rax,-0x2e0(%rbp)
   117a8:	48 8d 05 33 0e 01 00 	lea    0x10e33(%rip),%rax        # 225e2 <g_1055+0x12>
   117af:	48 89 85 28 fd ff ff 	mov    %rax,-0x2d8(%rbp)
   117b6:	48 8d 05 85 0e 01 00 	lea    0x10e85(%rip),%rax        # 22642 <g_1365+0x12>
   117bd:	48 89 85 30 fd ff ff 	mov    %rax,-0x2d0(%rbp)
   117c4:	48 8d 05 e7 0d 01 00 	lea    0x10de7(%rip),%rax        # 225b2 <g_843+0x12>
   117cb:	48 89 85 38 fd ff ff 	mov    %rax,-0x2c8(%rbp)
   117d2:	48 8d 85 ec f1 ff ff 	lea    -0xe14(%rbp),%rax
   117d9:	48 89 85 40 fd ff ff 	mov    %rax,-0x2c0(%rbp)
   117e0:	48 c7 85 48 fd ff ff 	movq   $0x0,-0x2b8(%rbp)
   117e7:	00 00 00 00 
   117eb:	48 8d 05 50 0e 01 00 	lea    0x10e50(%rip),%rax        # 22642 <g_1365+0x12>
   117f2:	48 89 85 50 fd ff ff 	mov    %rax,-0x2b0(%rbp)
   117f9:	48 8d 05 b2 0d 01 00 	lea    0x10db2(%rip),%rax        # 225b2 <g_843+0x12>
   11800:	48 89 85 58 fd ff ff 	mov    %rax,-0x2a8(%rbp)
   11807:	48 8d 05 a4 0d 01 00 	lea    0x10da4(%rip),%rax        # 225b2 <g_843+0x12>
   1180e:	48 89 85 60 fd ff ff 	mov    %rax,-0x2a0(%rbp)
   11815:	48 8d 05 c6 0d 01 00 	lea    0x10dc6(%rip),%rax        # 225e2 <g_1055+0x12>
   1181c:	48 89 85 68 fd ff ff 	mov    %rax,-0x298(%rbp)
   11823:	48 8d 05 62 0f 01 00 	lea    0x10f62(%rip),%rax        # 2278c <g_2044>
   1182a:	48 89 85 70 fd ff ff 	mov    %rax,-0x290(%rbp)
   11831:	48 c7 85 78 fd ff ff 	movq   $0x0,-0x288(%rbp)
   11838:	00 00 00 00 
   1183c:	48 c7 85 80 fd ff ff 	movq   $0x0,-0x280(%rbp)
   11843:	00 00 00 00 
   11847:	48 8d 05 64 0d 01 00 	lea    0x10d64(%rip),%rax        # 225b2 <g_843+0x12>
   1184e:	48 89 85 88 fd ff ff 	mov    %rax,-0x278(%rbp)
   11855:	48 8d 05 e6 0d 01 00 	lea    0x10de6(%rip),%rax        # 22642 <g_1365+0x12>
   1185c:	48 89 85 90 fd ff ff 	mov    %rax,-0x270(%rbp)
   11863:	48 8d 05 d8 0d 01 00 	lea    0x10dd8(%rip),%rax        # 22642 <g_1365+0x12>
   1186a:	48 89 85 98 fd ff ff 	mov    %rax,-0x268(%rbp)
   11871:	48 8d 05 3a 0d 01 00 	lea    0x10d3a(%rip),%rax        # 225b2 <g_843+0x12>
   11878:	48 89 85 a0 fd ff ff 	mov    %rax,-0x260(%rbp)
   1187f:	48 c7 85 a8 fd ff ff 	movq   $0x0,-0x258(%rbp)
   11886:	00 00 00 00 
   1188a:	48 8d 05 fb 0e 01 00 	lea    0x10efb(%rip),%rax        # 2278c <g_2044>
   11891:	48 89 85 b0 fd ff ff 	mov    %rax,-0x250(%rbp)
   11898:	48 8d 05 9d 0b 01 00 	lea    0x10b9d(%rip),%rax        # 2243c <g_279>
   1189f:	48 89 85 b8 fd ff ff 	mov    %rax,-0x248(%rbp)
   118a6:	48 8d 85 ec f1 ff ff 	lea    -0xe14(%rbp),%rax
   118ad:	48 89 85 c0 fd ff ff 	mov    %rax,-0x240(%rbp)
   118b4:	48 8d 05 81 0b 01 00 	lea    0x10b81(%rip),%rax        # 2243c <g_279>
   118bb:	48 89 85 c8 fd ff ff 	mov    %rax,-0x238(%rbp)
   118c2:	48 8d 05 c3 0e 01 00 	lea    0x10ec3(%rip),%rax        # 2278c <g_2044>
   118c9:	48 89 85 d0 fd ff ff 	mov    %rax,-0x230(%rbp)
   118d0:	48 8d 05 db 0c 01 00 	lea    0x10cdb(%rip),%rax        # 225b2 <g_843+0x12>
   118d7:	48 89 85 d8 fd ff ff 	mov    %rax,-0x228(%rbp)
   118de:	48 8d 05 57 0b 01 00 	lea    0x10b57(%rip),%rax        # 2243c <g_279>
   118e5:	48 89 85 e0 fd ff ff 	mov    %rax,-0x220(%rbp)
   118ec:	48 8d 05 bf 0c 01 00 	lea    0x10cbf(%rip),%rax        # 225b2 <g_843+0x12>
   118f3:	48 89 85 e8 fd ff ff 	mov    %rax,-0x218(%rbp)
   118fa:	48 8d 05 8b 0e 01 00 	lea    0x10e8b(%rip),%rax        # 2278c <g_2044>
   11901:	48 89 85 f0 fd ff ff 	mov    %rax,-0x210(%rbp)
   11908:	48 8d 05 23 0b 01 00 	lea    0x10b23(%rip),%rax        # 22432 <g_248+0x12>
   1190f:	48 89 85 f8 fd ff ff 	mov    %rax,-0x208(%rbp)
   11916:	48 c7 85 00 fe ff ff 	movq   $0x0,-0x200(%rbp)
   1191d:	00 00 00 00 
   11921:	48 8d 05 64 0e 01 00 	lea    0x10e64(%rip),%rax        # 2278c <g_2044>
   11928:	48 89 85 08 fe ff ff 	mov    %rax,-0x1f8(%rbp)
   1192f:	48 8d 05 06 0b 01 00 	lea    0x10b06(%rip),%rax        # 2243c <g_279>
   11936:	48 89 85 10 fe ff ff 	mov    %rax,-0x1f0(%rbp)
   1193d:	48 8d 05 6e 0c 01 00 	lea    0x10c6e(%rip),%rax        # 225b2 <g_843+0x12>
   11944:	48 89 85 18 fe ff ff 	mov    %rax,-0x1e8(%rbp)
   1194b:	48 8d 05 e0 0a 01 00 	lea    0x10ae0(%rip),%rax        # 22432 <g_248+0x12>
   11952:	48 89 85 20 fe ff ff 	mov    %rax,-0x1e0(%rbp)
   11959:	48 8d 05 dc 0a 01 00 	lea    0x10adc(%rip),%rax        # 2243c <g_279>
   11960:	48 89 85 28 fe ff ff 	mov    %rax,-0x1d8(%rbp)
   11967:	48 8d 05 c4 0a 01 00 	lea    0x10ac4(%rip),%rax        # 22432 <g_248+0x12>
   1196e:	48 89 85 30 fe ff ff 	mov    %rax,-0x1d0(%rbp)
   11975:	48 8d 05 36 0c 01 00 	lea    0x10c36(%rip),%rax        # 225b2 <g_843+0x12>
   1197c:	48 89 85 38 fe ff ff 	mov    %rax,-0x1c8(%rbp)
   11983:	48 8d 05 02 0e 01 00 	lea    0x10e02(%rip),%rax        # 2278c <g_2044>
   1198a:	48 89 85 40 fe ff ff 	mov    %rax,-0x1c0(%rbp)
   11991:	48 8d 05 f4 0d 01 00 	lea    0x10df4(%rip),%rax        # 2278c <g_2044>
   11998:	48 89 85 48 fe ff ff 	mov    %rax,-0x1b8(%rbp)
   1199f:	48 8d 05 3c 0c 01 00 	lea    0x10c3c(%rip),%rax        # 225e2 <g_1055+0x12>
   119a6:	48 89 85 50 fe ff ff 	mov    %rax,-0x1b0(%rbp)
   119ad:	48 8d 05 8e 0c 01 00 	lea    0x10c8e(%rip),%rax        # 22642 <g_1365+0x12>
   119b4:	48 89 85 58 fe ff ff 	mov    %rax,-0x1a8(%rbp)
   119bb:	48 8d 05 f0 0b 01 00 	lea    0x10bf0(%rip),%rax        # 225b2 <g_843+0x12>
   119c2:	48 89 85 60 fe ff ff 	mov    %rax,-0x1a0(%rbp)
   119c9:	48 c7 85 68 fe ff ff 	movq   $0x0,-0x198(%rbp)
   119d0:	00 00 00 00 
   119d4:	48 8d 05 61 0a 01 00 	lea    0x10a61(%rip),%rax        # 2243c <g_279>
   119db:	48 89 85 70 fe ff ff 	mov    %rax,-0x190(%rbp)
   119e2:	48 8d 05 a3 0d 01 00 	lea    0x10da3(%rip),%rax        # 2278c <g_2044>
   119e9:	48 89 85 78 fe ff ff 	mov    %rax,-0x188(%rbp)
   119f0:	48 8d 05 4b 0c 01 00 	lea    0x10c4b(%rip),%rax        # 22642 <g_1365+0x12>
   119f7:	48 89 85 80 fe ff ff 	mov    %rax,-0x180(%rbp)
   119fe:	48 8d 05 87 0d 01 00 	lea    0x10d87(%rip),%rax        # 2278c <g_2044>
   11a05:	48 89 85 88 fe ff ff 	mov    %rax,-0x178(%rbp)
   11a0c:	48 8d 05 89 0b 01 00 	lea    0x10b89(%rip),%rax        # 2259c <g_712>
   11a13:	48 89 85 90 fe ff ff 	mov    %rax,-0x170(%rbp)
   11a1a:	48 8d 05 91 0b 01 00 	lea    0x10b91(%rip),%rax        # 225b2 <g_843+0x12>
   11a21:	48 89 85 98 fe ff ff 	mov    %rax,-0x168(%rbp)
   11a28:	48 8d 85 ec f1 ff ff 	lea    -0xe14(%rbp),%rax
   11a2f:	48 89 85 a0 fe ff ff 	mov    %rax,-0x160(%rbp)
   11a36:	48 8d 05 4f 0d 01 00 	lea    0x10d4f(%rip),%rax        # 2278c <g_2044>
   11a3d:	48 89 85 a8 fe ff ff 	mov    %rax,-0x158(%rbp)
   11a44:	48 c7 85 b0 fe ff ff 	movq   $0x0,-0x150(%rbp)
   11a4b:	00 00 00 00 
   11a4f:	48 8d 05 dc 09 01 00 	lea    0x109dc(%rip),%rax        # 22432 <g_248+0x12>
   11a56:	48 89 85 b8 fe ff ff 	mov    %rax,-0x148(%rbp)
   11a5d:	48 8d 05 ce 09 01 00 	lea    0x109ce(%rip),%rax        # 22432 <g_248+0x12>
   11a64:	48 89 85 c0 fe ff ff 	mov    %rax,-0x140(%rbp)
   11a6b:	48 c7 85 c8 fe ff ff 	movq   $0x0,-0x138(%rbp)
   11a72:	00 00 00 00 
   11a76:	48 c7 85 d0 fe ff ff 	movq   $0x0,-0x130(%rbp)
   11a7d:	00 00 00 00 
   11a81:	48 c7 85 d8 fe ff ff 	movq   $0x0,-0x128(%rbp)
   11a88:	00 00 00 00 
   11a8c:	48 8d 05 f9 0c 01 00 	lea    0x10cf9(%rip),%rax        # 2278c <g_2044>
   11a93:	48 89 85 e0 fe ff ff 	mov    %rax,-0x120(%rbp)
   11a9a:	48 8d 05 41 0b 01 00 	lea    0x10b41(%rip),%rax        # 225e2 <g_1055+0x12>
   11aa1:	48 89 85 e8 fe ff ff 	mov    %rax,-0x118(%rbp)
   11aa8:	48 8d 05 03 0b 01 00 	lea    0x10b03(%rip),%rax        # 225b2 <g_843+0x12>
   11aaf:	48 89 85 f0 fe ff ff 	mov    %rax,-0x110(%rbp)
   11ab6:	48 8d 05 f5 0a 01 00 	lea    0x10af5(%rip),%rax        # 225b2 <g_843+0x12>
   11abd:	48 89 85 f8 fe ff ff 	mov    %rax,-0x108(%rbp)
   11ac4:	48 8d 05 d1 0a 01 00 	lea    0x10ad1(%rip),%rax        # 2259c <g_712>
   11acb:	48 89 85 00 ff ff ff 	mov    %rax,-0x100(%rbp)
   11ad2:	48 8d 05 59 09 01 00 	lea    0x10959(%rip),%rax        # 22432 <g_248+0x12>
   11ad9:	48 89 85 08 ff ff ff 	mov    %rax,-0xf8(%rbp)
   11ae0:	48 8d 05 55 09 01 00 	lea    0x10955(%rip),%rax        # 2243c <g_279>
   11ae7:	48 89 85 10 ff ff ff 	mov    %rax,-0xf0(%rbp)
   11aee:	48 8d 05 47 09 01 00 	lea    0x10947(%rip),%rax        # 2243c <g_279>
   11af5:	48 89 85 18 ff ff ff 	mov    %rax,-0xe8(%rbp)
   11afc:	48 8d 05 89 0c 01 00 	lea    0x10c89(%rip),%rax        # 2278c <g_2044>
   11b03:	48 89 85 20 ff ff ff 	mov    %rax,-0xe0(%rbp)
   11b0a:	48 8d 05 7b 0c 01 00 	lea    0x10c7b(%rip),%rax        # 2278c <g_2044>
   11b11:	48 89 85 28 ff ff ff 	mov    %rax,-0xd8(%rbp)
   11b18:	48 8d 05 7d 0a 01 00 	lea    0x10a7d(%rip),%rax        # 2259c <g_712>
   11b1f:	48 89 85 30 ff ff ff 	mov    %rax,-0xd0(%rbp)
   11b26:	48 8d 05 6f 0a 01 00 	lea    0x10a6f(%rip),%rax        # 2259c <g_712>
   11b2d:	48 89 85 38 ff ff ff 	mov    %rax,-0xc8(%rbp)
   11b34:	48 8d 05 01 09 01 00 	lea    0x10901(%rip),%rax        # 2243c <g_279>
   11b3b:	48 89 85 40 ff ff ff 	mov    %rax,-0xc0(%rbp)
   11b42:	48 8d 05 69 0a 01 00 	lea    0x10a69(%rip),%rax        # 225b2 <g_843+0x12>
   11b49:	48 89 85 48 ff ff ff 	mov    %rax,-0xb8(%rbp)
   11b50:	48 c7 85 50 ff ff ff 	movq   $0x0,-0xb0(%rbp)
   11b57:	00 00 00 00 
   11b5b:	48 8d 05 50 0a 01 00 	lea    0x10a50(%rip),%rax        # 225b2 <g_843+0x12>
   11b62:	48 89 85 58 ff ff ff 	mov    %rax,-0xa8(%rbp)
   11b69:	48 8d 05 1c 0c 01 00 	lea    0x10c1c(%rip),%rax        # 2278c <g_2044>
   11b70:	48 89 85 60 ff ff ff 	mov    %rax,-0xa0(%rbp)
   11b77:	48 8d 05 34 0a 01 00 	lea    0x10a34(%rip),%rax        # 225b2 <g_843+0x12>
   11b7e:	48 89 85 68 ff ff ff 	mov    %rax,-0x98(%rbp)
   11b85:	48 8d 05 00 0c 01 00 	lea    0x10c00(%rip),%rax        # 2278c <g_2044>
   11b8c:	48 89 85 70 ff ff ff 	mov    %rax,-0x90(%rbp)
   11b93:	48 c7 85 78 ff ff ff 	movq   $0x0,-0x88(%rbp)
   11b9a:	00 00 00 00 
   11b9e:	48 c7 45 80 00 00 00 	movq   $0x0,-0x80(%rbp)
   11ba5:	00 
   11ba6:	48 c7 45 88 00 00 00 	movq   $0x0,-0x78(%rbp)
   11bad:	00 
   11bae:	48 c7 45 90 00 00 00 	movq   $0x0,-0x70(%rbp)
   11bb5:	00 
   11bb6:	48 c7 45 98 00 00 00 	movq   $0x0,-0x68(%rbp)
   11bbd:	00 
   11bbe:	48 c7 45 a0 00 00 00 	movq   $0x0,-0x60(%rbp)
   11bc5:	00 
   11bc6:	48 8d 05 bf 0b 01 00 	lea    0x10bbf(%rip),%rax        # 2278c <g_2044>
   11bcd:	48 89 45 a8          	mov    %rax,-0x58(%rbp)
   11bd1:	48 8d 05 da 09 01 00 	lea    0x109da(%rip),%rax        # 225b2 <g_843+0x12>
   11bd8:	48 89 45 b0          	mov    %rax,-0x50(%rbp)
   11bdc:	48 8d 05 cf 09 01 00 	lea    0x109cf(%rip),%rax        # 225b2 <g_843+0x12>
   11be3:	48 89 45 b8          	mov    %rax,-0x48(%rbp)
   11be7:	48 8d 85 f8 f1 ff ff 	lea    -0xe08(%rbp),%rax
   11bee:	48 89 85 c8 f2 ff ff 	mov    %rax,-0xd38(%rbp)
   11bf5:	c7 85 4c f2 ff ff ff 	movl   $0x5d46d9ff,-0xdb4(%rbp)
   11bfc:	d9 46 5d 
   11bff:	c7 85 50 f2 ff ff 00 	movl   $0x0,-0xdb0(%rbp)
   11c06:	00 00 00 
   11c09:	c7 85 54 f2 ff ff 8e 	movl   $0x51e2ce8e,-0xdac(%rbp)
   11c10:	ce e2 51 
   11c13:	c7 85 04 f2 ff ff 00 	movl   $0x0,-0xdfc(%rbp)
   11c1a:	00 00 00 
   11c1d:	c7 85 00 f6 ff ff fa 	movl   $0x44f534fa,-0xa00(%rbp)
   11c24:	34 f5 44 
   11c27:	c7 85 04 f6 ff ff fa 	movl   $0x44f534fa,-0x9fc(%rbp)
   11c2e:	34 f5 44 
   11c31:	c7 85 08 f6 ff ff 56 	movl   $0xd604e956,-0x9f8(%rbp)
   11c38:	e9 04 d6 
   11c3b:	c7 85 0c f6 ff ff fa 	movl   $0x44f534fa,-0x9f4(%rbp)
   11c42:	34 f5 44 
   11c45:	c7 85 10 f6 ff ff fa 	movl   $0x44f534fa,-0x9f0(%rbp)
   11c4c:	34 f5 44 
   11c4f:	c7 85 14 f6 ff ff 56 	movl   $0xd604e956,-0x9ec(%rbp)
   11c56:	e9 04 d6 
   11c59:	c7 85 18 f6 ff ff fa 	movl   $0x44f534fa,-0x9e8(%rbp)
   11c60:	34 f5 44 
   11c63:	c7 85 1c f6 ff ff fa 	movl   $0x44f534fa,-0x9e4(%rbp)
   11c6a:	34 f5 44 
   11c6d:	c7 85 20 f6 ff ff 56 	movl   $0xd604e956,-0x9e0(%rbp)
   11c74:	e9 04 d6 
   11c77:	c6 85 ea f1 ff ff be 	movb   $0xbe,-0xe16(%rbp)
   11c7e:	c7 85 10 f2 ff ff fd 	movl   $0xfffffffd,-0xdf0(%rbp)
   11c85:	ff ff ff 
   11c88:	48 8d 05 4d 04 01 00 	lea    0x1044d(%rip),%rax        # 220dc <g_2+0x9c>
   11c8f:	48 89 85 30 f4 ff ff 	mov    %rax,-0xbd0(%rbp)
   11c96:	48 c7 85 30 f6 ff ff 	movq   $0x0,-0x9d0(%rbp)
   11c9d:	00 00 00 00 
   11ca1:	48 c7 85 38 f6 ff ff 	movq   $0x0,-0x9c8(%rbp)
   11ca8:	00 00 00 00 
   11cac:	48 c7 85 40 f6 ff ff 	movq   $0x0,-0x9c0(%rbp)
   11cb3:	00 00 00 00 
   11cb7:	48 c7 85 48 f6 ff ff 	movq   $0x0,-0x9b8(%rbp)
   11cbe:	00 00 00 00 
   11cc2:	48 c7 85 50 f6 ff ff 	movq   $0x0,-0x9b0(%rbp)
   11cc9:	00 00 00 00 
   11ccd:	c7 85 14 f2 ff ff 00 	movl   $0x0,-0xdec(%rbp)
   11cd4:	00 00 00 
   11cd7:	eb 1e                	jmp    11cf7 <func_31+0xda8>
   11cd9:	8b 85 14 f2 ff ff    	mov    -0xdec(%rbp),%eax
   11cdf:	48 98                	cltq   
   11ce1:	48 8d 15 50 07 01 00 	lea    0x10750(%rip),%rdx        # 22438 <g_248+0x18>
   11ce8:	48 89 94 c5 90 f5 ff 	mov    %rdx,-0xa70(%rbp,%rax,8)
   11cef:	ff 
   11cf0:	83 85 14 f2 ff ff 01 	addl   $0x1,-0xdec(%rbp)
   11cf7:	83 bd 14 f2 ff ff 01 	cmpl   $0x1,-0xdec(%rbp)
   11cfe:	7e d9                	jle    11cd9 <func_31+0xd8a>
   11d00:	48 8b 85 b0 f2 ff ff 	mov    -0xd50(%rbp),%rax
   11d07:	0f b7 c0             	movzwl %ax,%eax
   11d0a:	25 1c d6 00 00       	and    $0xd61c,%eax
   11d0f:	be 01 00 00 00       	mov    $0x1,%esi
   11d14:	89 c7                	mov    %eax,%edi
   11d16:	e8 2d 91 ff ff       	callq  ae48 <safe_rshift_func_uint16_t_u_s>
   11d1b:	48 8b 85 28 f4 ff ff 	mov    -0xbd8(%rbp),%rax
   11d22:	0f b7 d0             	movzwl %ax,%edx
   11d25:	48 8b 05 44 3b 01 00 	mov    0x13b44(%rip),%rax        # 25870 <g_998>
   11d2c:	0f b7 05 4d 0a 01 00 	movzwl 0x10a4d(%rip),%eax        # 22780 <g_1967+0x10>
   11d33:	66 85 c0             	test   %ax,%ax
   11d36:	75 0a                	jne    11d42 <func_31+0xdf3>
   11d38:	8b 05 16 04 01 00    	mov    0x10416(%rip),%eax        # 22154 <g_65>
   11d3e:	85 c0                	test   %eax,%eax
   11d40:	74 07                	je     11d49 <func_31+0xdfa>
   11d42:	b8 01 00 00 00       	mov    $0x1,%eax
   11d47:	eb 05                	jmp    11d4e <func_31+0xdff>
   11d49:	b8 00 00 00 00       	mov    $0x0,%eax
   11d4e:	0f b7 c0             	movzwl %ax,%eax
   11d51:	89 d6                	mov    %edx,%esi
   11d53:	89 c7                	mov    %eax,%edi
   11d55:	e8 a5 8f ff ff       	callq  acff <safe_add_func_uint16_t_u_u>
   11d5a:	66 85 c0             	test   %ax,%ax
   11d5d:	75 08                	jne    11d67 <func_31+0xe18>
   11d5f:	8b 85 00 f2 ff ff    	mov    -0xe00(%rbp),%eax
   11d65:	85 c0                	test   %eax,%eax
   11d67:	90                   	nop
   11d68:	48 8b 85 d0 f1 ff ff 	mov    -0xe30(%rbp),%rax
   11d6f:	48 85 c0             	test   %rax,%rax
   11d72:	48 8b 85 d0 f1 ff ff 	mov    -0xe30(%rbp),%rax
   11d79:	66 89 85 ec f1 ff ff 	mov    %ax,-0xe14(%rbp)
   11d80:	0f b7 85 ec f1 ff ff 	movzwl -0xe14(%rbp),%eax
   11d87:	0f bf d0             	movswl %ax,%edx
   11d8a:	8b 85 f8 f1 ff ff    	mov    -0xe08(%rbp),%eax
   11d90:	39 c2                	cmp    %eax,%edx
   11d92:	48 8b 95 a8 f2 ff ff 	mov    -0xd58(%rbp),%rdx
   11d99:	48 8b 85 20 f4 ff ff 	mov    -0xbe0(%rbp),%rax
   11da0:	48 89 10             	mov    %rdx,(%rax)
   11da3:	48 83 bd c8 f1 ff ff 	cmpq   $0x0,-0xe38(%rbp)
   11daa:	00 
   11dab:	0f 84 40 0f 00 00    	je     12cf1 <func_31+0x1da2>
   11db1:	c6 85 eb f1 ff ff 00 	movb   $0x0,-0xe15(%rbp)
   11db8:	c7 85 58 f2 ff ff 01 	movl   $0x1,-0xda8(%rbp)
   11dbf:	00 00 00 
   11dc2:	c7 85 5c f2 ff ff 09 	movl   $0x9,-0xda4(%rbp)
   11dc9:	00 00 00 
   11dcc:	c7 85 60 f2 ff ff 01 	movl   $0x1,-0xda0(%rbp)
   11dd3:	00 00 00 
   11dd6:	c7 85 a0 f5 ff ff ff 	movl   $0xffffffff,-0xa60(%rbp)
   11ddd:	ff ff ff 
   11de0:	c7 85 a4 f5 ff ff ff 	movl   $0xffffffff,-0xa5c(%rbp)
   11de7:	ff ff ff 
   11dea:	c7 85 a8 f5 ff ff ff 	movl   $0xffffffff,-0xa58(%rbp)
   11df1:	ff ff ff 
   11df4:	c7 85 ac f5 ff ff ff 	movl   $0xffffffff,-0xa54(%rbp)
   11dfb:	ff ff ff 
   11dfe:	c7 85 b0 f5 ff ff ff 	movl   $0xffffffff,-0xa50(%rbp)
   11e05:	ff ff ff 
   11e08:	66 c7 85 f4 f1 ff ff 	movw   $0xfff7,-0xe0c(%rbp)
   11e0f:	f7 ff 
   11e11:	48 c7 85 b8 f1 ff ff 	movq   $0x0,-0xe48(%rbp)
   11e18:	00 00 00 00 
   11e1c:	e9 2f 03 00 00       	jmpq   12150 <func_31+0x1201>
   11e21:	48 c7 85 60 f5 ff ff 	movq   $0x0,-0xaa0(%rbp)
   11e28:	00 00 00 00 
   11e2c:	48 8d 85 e0 f5 ff ff 	lea    -0xa20(%rbp),%rax
   11e33:	48 89 85 50 f9 ff ff 	mov    %rax,-0x6b0(%rbp)
   11e3a:	48 8d 85 e0 f5 ff ff 	lea    -0xa20(%rbp),%rax
   11e41:	48 89 85 58 f9 ff ff 	mov    %rax,-0x6a8(%rbp)
   11e48:	48 8d 85 e0 f5 ff ff 	lea    -0xa20(%rbp),%rax
   11e4f:	48 89 85 60 f9 ff ff 	mov    %rax,-0x6a0(%rbp)
   11e56:	48 8d 85 e0 f5 ff ff 	lea    -0xa20(%rbp),%rax
   11e5d:	48 89 85 68 f9 ff ff 	mov    %rax,-0x698(%rbp)
   11e64:	48 8d 85 e0 f5 ff ff 	lea    -0xa20(%rbp),%rax
   11e6b:	48 89 85 70 f9 ff ff 	mov    %rax,-0x690(%rbp)
   11e72:	48 8d 85 e0 f5 ff ff 	lea    -0xa20(%rbp),%rax
   11e79:	48 89 85 78 f9 ff ff 	mov    %rax,-0x688(%rbp)
   11e80:	48 8d 85 e0 f5 ff ff 	lea    -0xa20(%rbp),%rax
   11e87:	48 89 85 80 f9 ff ff 	mov    %rax,-0x680(%rbp)
   11e8e:	48 8d 85 e0 f5 ff ff 	lea    -0xa20(%rbp),%rax
   11e95:	48 89 85 88 f9 ff ff 	mov    %rax,-0x678(%rbp)
   11e9c:	48 8d 85 e0 f5 ff ff 	lea    -0xa20(%rbp),%rax
   11ea3:	48 89 85 90 f9 ff ff 	mov    %rax,-0x670(%rbp)
   11eaa:	48 8d 85 e0 f5 ff ff 	lea    -0xa20(%rbp),%rax
   11eb1:	48 89 85 98 f9 ff ff 	mov    %rax,-0x668(%rbp)
   11eb8:	48 8d 85 e0 f5 ff ff 	lea    -0xa20(%rbp),%rax
   11ebf:	48 89 85 a0 f9 ff ff 	mov    %rax,-0x660(%rbp)
   11ec6:	48 8d 85 e0 f5 ff ff 	lea    -0xa20(%rbp),%rax
   11ecd:	48 89 85 a8 f9 ff ff 	mov    %rax,-0x658(%rbp)
   11ed4:	48 8d 85 e0 f5 ff ff 	lea    -0xa20(%rbp),%rax
   11edb:	48 89 85 b0 f9 ff ff 	mov    %rax,-0x650(%rbp)
   11ee2:	48 8d 85 e0 f5 ff ff 	lea    -0xa20(%rbp),%rax
   11ee9:	48 89 85 b8 f9 ff ff 	mov    %rax,-0x648(%rbp)
   11ef0:	48 8d 85 e0 f5 ff ff 	lea    -0xa20(%rbp),%rax
   11ef7:	48 89 85 c0 f9 ff ff 	mov    %rax,-0x640(%rbp)
   11efe:	48 8d 85 e0 f5 ff ff 	lea    -0xa20(%rbp),%rax
   11f05:	48 89 85 c8 f9 ff ff 	mov    %rax,-0x638(%rbp)
   11f0c:	48 8d 85 e0 f5 ff ff 	lea    -0xa20(%rbp),%rax
   11f13:	48 89 85 d0 f9 ff ff 	mov    %rax,-0x630(%rbp)
   11f1a:	48 8d 85 e0 f5 ff ff 	lea    -0xa20(%rbp),%rax
   11f21:	48 89 85 d8 f9 ff ff 	mov    %rax,-0x628(%rbp)
   11f28:	48 8d 85 e0 f5 ff ff 	lea    -0xa20(%rbp),%rax
   11f2f:	48 89 85 e0 f9 ff ff 	mov    %rax,-0x620(%rbp)
   11f36:	48 8d 85 e0 f5 ff ff 	lea    -0xa20(%rbp),%rax
   11f3d:	48 89 85 e8 f9 ff ff 	mov    %rax,-0x618(%rbp)
   11f44:	48 8d 85 e0 f5 ff ff 	lea    -0xa20(%rbp),%rax
   11f4b:	48 89 85 f0 f9 ff ff 	mov    %rax,-0x610(%rbp)
   11f52:	48 8d 85 e0 f5 ff ff 	lea    -0xa20(%rbp),%rax
   11f59:	48 89 85 f8 f9 ff ff 	mov    %rax,-0x608(%rbp)
   11f60:	48 8d 85 e0 f5 ff ff 	lea    -0xa20(%rbp),%rax
   11f67:	48 89 85 00 fa ff ff 	mov    %rax,-0x600(%rbp)
   11f6e:	48 8d 85 e0 f5 ff ff 	lea    -0xa20(%rbp),%rax
   11f75:	48 89 85 08 fa ff ff 	mov    %rax,-0x5f8(%rbp)
   11f7c:	48 8d 85 e0 f5 ff ff 	lea    -0xa20(%rbp),%rax
   11f83:	48 89 85 10 fa ff ff 	mov    %rax,-0x5f0(%rbp)
   11f8a:	48 8d 85 e0 f5 ff ff 	lea    -0xa20(%rbp),%rax
   11f91:	48 89 85 18 fa ff ff 	mov    %rax,-0x5e8(%rbp)
   11f98:	48 8d 85 e0 f5 ff ff 	lea    -0xa20(%rbp),%rax
   11f9f:	48 89 85 20 fa ff ff 	mov    %rax,-0x5e0(%rbp)
   11fa6:	48 8d 85 e0 f5 ff ff 	lea    -0xa20(%rbp),%rax
   11fad:	48 89 85 28 fa ff ff 	mov    %rax,-0x5d8(%rbp)
   11fb4:	48 8d 85 e0 f5 ff ff 	lea    -0xa20(%rbp),%rax
   11fbb:	48 89 85 30 fa ff ff 	mov    %rax,-0x5d0(%rbp)
   11fc2:	48 8d 85 e0 f5 ff ff 	lea    -0xa20(%rbp),%rax
   11fc9:	48 89 85 38 fa ff ff 	mov    %rax,-0x5c8(%rbp)
   11fd0:	48 8d 85 e0 f5 ff ff 	lea    -0xa20(%rbp),%rax
   11fd7:	48 89 85 40 fa ff ff 	mov    %rax,-0x5c0(%rbp)
   11fde:	48 8d 85 e0 f5 ff ff 	lea    -0xa20(%rbp),%rax
   11fe5:	48 89 85 48 fa ff ff 	mov    %rax,-0x5b8(%rbp)
   11fec:	48 8d 85 ec f1 ff ff 	lea    -0xe14(%rbp),%rax
   11ff3:	48 89 85 68 f5 ff ff 	mov    %rax,-0xa98(%rbp)
   11ffa:	c7 85 18 f2 ff ff 00 	movl   $0x0,-0xde8(%rbp)
   12001:	00 00 00 
   12004:	eb 1b                	jmp    12021 <func_31+0x10d2>
   12006:	8b 85 18 f2 ff ff    	mov    -0xde8(%rbp),%eax
   1200c:	48 98                	cltq   
   1200e:	48 c7 84 c5 e0 f5 ff 	movq   $0x0,-0xa20(%rbp,%rax,8)
   12015:	ff 00 00 00 00 
   1201a:	83 85 18 f2 ff ff 01 	addl   $0x1,-0xde8(%rbp)
   12021:	83 bd 18 f2 ff ff 00 	cmpl   $0x0,-0xde8(%rbp)
   12028:	7e dc                	jle    12006 <func_31+0x10b7>
   1202a:	48 8d 05 97 4b 01 00 	lea    0x14b97(%rip),%rax        # 26bc8 <g_2089>
   12031:	48 89 85 80 f5 ff ff 	mov    %rax,-0xa80(%rbp)
   12038:	48 8b 95 80 f5 ff ff 	mov    -0xa80(%rbp),%rdx
   1203f:	48 8b 05 2a 3c 01 00 	mov    0x13c2a(%rip),%rax        # 25c70 <g_2088>
   12046:	48 39 c2             	cmp    %rax,%rdx
   12049:	74 50                	je     1209b <func_31+0x114c>
   1204b:	48 8d 05 8a 00 01 00 	lea    0x1008a(%rip),%rax        # 220dc <g_2+0x9c>
   12052:	48 89 85 78 f5 ff ff 	mov    %rax,-0xa88(%rbp)
   12059:	48 8b 05 d0 37 01 00 	mov    0x137d0(%rip),%rax        # 25830 <g_453>
   12060:	8b 10                	mov    (%rax),%edx
   12062:	48 8b 85 78 f5 ff ff 	mov    -0xa88(%rbp),%rax
   12069:	89 10                	mov    %edx,(%rax)
   1206b:	48 8b 05 16 3b 01 00 	mov    0x13b16(%rip),%rax        # 25b88 <g_1348>
   12072:	48 8d 15 6f 00 01 00 	lea    0x1006f(%rip),%rdx        # 220e8 <g_37>
   12079:	48 89 10             	mov    %rdx,(%rax)
   1207c:	48 8b 85 78 f2 ff ff 	mov    -0xd88(%rbp),%rax
   12083:	48 83 e8 01          	sub    $0x1,%rax
   12087:	48 89 85 78 f2 ff ff 	mov    %rax,-0xd88(%rbp)
   1208e:	48 83 bd b8 f1 ff ff 	cmpq   $0x0,-0xe48(%rbp)
   12095:	00 
   12096:	e9 ad 00 00 00       	jmpq   12148 <func_31+0x11f9>
   1209b:	48 8d 05 f6 2d 01 00 	lea    0x12df6(%rip),%rax        # 24e98 <g_205+0x678>
   120a2:	48 89 85 70 f5 ff ff 	mov    %rax,-0xa90(%rbp)
   120a9:	8b 85 f8 f1 ff ff    	mov    -0xe08(%rbp),%eax
   120af:	85 c0                	test   %eax,%eax
   120b1:	74 5b                	je     1210e <func_31+0x11bf>
   120b3:	48 8b 85 c0 f1 ff ff 	mov    -0xe40(%rbp),%rax
   120ba:	0f b6 00             	movzbl (%rax),%eax
   120bd:	84 c0                	test   %al,%al
   120bf:	75 32                	jne    120f3 <func_31+0x11a4>
   120c1:	48 8b 95 b0 fe ff ff 	mov    -0x150(%rbp),%rdx
   120c8:	48 8b 85 70 f5 ff ff 	mov    -0xa90(%rbp),%rax
   120cf:	48 89 10             	mov    %rdx,(%rax)
   120d2:	48 8b 85 70 f5 ff ff 	mov    -0xa90(%rbp),%rax
   120d9:	48 8b 00             	mov    (%rax),%rax
   120dc:	48 8b 95 d0 fc ff ff 	mov    -0x330(%rbp),%rdx
   120e3:	48 89 95 68 f5 ff ff 	mov    %rdx,-0xa98(%rbp)
   120ea:	48 39 85 68 f5 ff ff 	cmp    %rax,-0xa98(%rbp)
   120f1:	75 07                	jne    120fa <func_31+0x11ab>
   120f3:	ba 01 00 00 00       	mov    $0x1,%edx
   120f8:	eb 05                	jmp    120ff <func_31+0x11b0>
   120fa:	ba 00 00 00 00       	mov    $0x0,%edx
   120ff:	48 8b 05 8a 3a 01 00 	mov    0x13a8a(%rip),%rax        # 25b90 <g_1441>
   12106:	0f b6 00             	movzbl (%rax),%eax
   12109:	0f be c0             	movsbl %al,%eax
   1210c:	39 c2                	cmp    %eax,%edx
   1210e:	48 8d 05 7b 3a 01 00 	lea    0x13a7b(%rip),%rax        # 25b90 <g_1441>
   12115:	48 39 85 f0 f3 ff ff 	cmp    %rax,-0xc10(%rbp)
   1211c:	0f 95 c0             	setne  %al
   1211f:	0f b6 c0             	movzbl %al,%eax
   12122:	89 85 f4 f6 ff ff    	mov    %eax,-0x90c(%rbp)
   12128:	0f b6 85 eb f1 ff ff 	movzbl -0xe15(%rbp),%eax
   1212f:	89 c7                	mov    %eax,%edi
   12131:	e8 58 78 00 00       	callq  1998e <func_60>
   12136:	48 89 85 c8 f2 ff ff 	mov    %rax,-0xd38(%rbp)
   1213d:	48 8b 05 e4 39 01 00 	mov    0x139e4(%rip),%rax        # 25b28 <g_1098>
   12144:	8b 00                	mov    (%rax),%eax
   12146:	85 c0                	test   %eax,%eax
   12148:	48 83 85 b8 f1 ff ff 	addq   $0x1,-0xe48(%rbp)
   1214f:	01 
   12150:	48 83 bd b8 f1 ff ff 	cmpq   $0x2,-0xe48(%rbp)
   12157:	02 
   12158:	0f 8e c3 fc ff ff    	jle    11e21 <func_31+0xed2>
   1215e:	66 c7 05 3d 04 01 00 	movw   $0x2,0x1043d(%rip)        # 225a4 <g_843+0x4>
   12165:	02 00 
   12167:	e9 96 09 00 00       	jmpq   12b02 <func_31+0x1bb3>
   1216c:	48 8d 05 55 4a 01 00 	lea    0x14a55(%rip),%rax        # 26bc8 <g_2089>
   12173:	48 89 85 70 f4 ff ff 	mov    %rax,-0xb90(%rbp)
   1217a:	48 8d 05 f5 b4 00 00 	lea    0xb4f5(%rip),%rax        # 1d676 <g_1383+0x6>
   12181:	48 89 85 b8 f2 ff ff 	mov    %rax,-0xd48(%rbp)
   12188:	48 8d 85 b8 f2 ff ff 	lea    -0xd48(%rbp),%rax
   1218f:	48 89 85 78 f4 ff ff 	mov    %rax,-0xb88(%rbp)
   12196:	c7 85 08 f2 ff ff 04 	movl   $0x4,-0xdf8(%rbp)
   1219d:	00 00 00 
   121a0:	66 c7 85 f6 f1 ff ff 	movw   $0xfffd,-0xe0a(%rbp)
   121a7:	fd ff 
   121a9:	c7 85 64 f2 ff ff fb 	movl   $0xfffffffb,-0xd9c(%rbp)
   121b0:	ff ff ff 
   121b3:	c7 85 68 f2 ff ff 09 	movl   $0x9,-0xd98(%rbp)
   121ba:	00 00 00 
   121bd:	c7 85 6c f2 ff ff 7b 	movl   $0xc61eb57b,-0xd94(%rbp)
   121c4:	b5 1e c6 
   121c7:	8b 85 f4 f6 ff ff    	mov    -0x90c(%rbp),%eax
   121cd:	89 c6                	mov    %eax,%esi
   121cf:	bf 00 00 00 00       	mov    $0x0,%edi
   121d4:	e8 26 85 ff ff       	callq  a6ff <safe_div_func_int32_t_s_s>
   121d9:	0f be d0             	movsbl %al,%edx
   121dc:	48 8b 85 c8 f1 ff ff 	mov    -0xe38(%rbp),%rax
   121e3:	0f be c0             	movsbl %al,%eax
   121e6:	89 d6                	mov    %edx,%esi
   121e8:	89 c7                	mov    %eax,%edi
   121ea:	e8 23 80 ff ff       	callq  a212 <safe_mul_func_int8_t_s_s>
   121ef:	84 c0                	test   %al,%al
   121f1:	75 10                	jne    12203 <func_31+0x12b4>
   121f3:	48 8b 85 d0 f1 ff ff 	mov    -0xe30(%rbp),%rax
   121fa:	48 85 c0             	test   %rax,%rax
   121fd:	0f 84 88 01 00 00    	je     1238b <func_31+0x143c>
   12203:	48 8d 85 90 f5 ff ff 	lea    -0xa70(%rbp),%rax
   1220a:	48 89 85 c0 f2 ff ff 	mov    %rax,-0xd40(%rbp)
   12211:	48 8d 85 c0 f2 ff ff 	lea    -0xd40(%rbp),%rax
   12218:	48 89 85 50 f9 ff ff 	mov    %rax,-0x6b0(%rbp)
   1221f:	48 8d 85 c0 f2 ff ff 	lea    -0xd40(%rbp),%rax
   12226:	48 89 85 58 f9 ff ff 	mov    %rax,-0x6a8(%rbp)
   1222d:	48 8d 85 c0 f2 ff ff 	lea    -0xd40(%rbp),%rax
   12234:	48 89 85 60 f9 ff ff 	mov    %rax,-0x6a0(%rbp)
   1223b:	48 8d 85 c0 f2 ff ff 	lea    -0xd40(%rbp),%rax
   12242:	48 89 85 68 f9 ff ff 	mov    %rax,-0x698(%rbp)
   12249:	48 8d 85 c0 f2 ff ff 	lea    -0xd40(%rbp),%rax
   12250:	48 89 85 70 f9 ff ff 	mov    %rax,-0x690(%rbp)
   12257:	48 8d 85 c0 f2 ff ff 	lea    -0xd40(%rbp),%rax
   1225e:	48 89 85 78 f9 ff ff 	mov    %rax,-0x688(%rbp)
   12265:	48 8d 85 c0 f2 ff ff 	lea    -0xd40(%rbp),%rax
   1226c:	48 89 85 80 f9 ff ff 	mov    %rax,-0x680(%rbp)
   12273:	48 8d 85 c0 f2 ff ff 	lea    -0xd40(%rbp),%rax
   1227a:	48 89 85 88 f9 ff ff 	mov    %rax,-0x678(%rbp)
   12281:	48 8d 85 c0 f2 ff ff 	lea    -0xd40(%rbp),%rax
   12288:	48 89 85 90 f9 ff ff 	mov    %rax,-0x670(%rbp)
   1228f:	48 8d 85 50 f9 ff ff 	lea    -0x6b0(%rbp),%rax
   12296:	48 83 c0 20          	add    $0x20,%rax
   1229a:	48 89 85 50 f5 ff ff 	mov    %rax,-0xab0(%rbp)
   122a1:	c7 85 74 f2 ff ff fd 	movl   $0xfffffffd,-0xd8c(%rbp)
   122a8:	ff ff ff 
   122ab:	48 c7 85 58 f5 ff ff 	movq   $0x0,-0xaa8(%rbp)
   122b2:	00 00 00 00 
   122b6:	48 8b 05 c3 41 01 00 	mov    0x141c3(%rip),%rax        # 26480 <g_2111>
   122bd:	48 8d 95 f8 f1 ff ff 	lea    -0xe08(%rbp),%rdx
   122c4:	48 89 10             	mov    %rdx,(%rax)
   122c7:	48 8b 1d ba 41 01 00 	mov    0x141ba(%rip),%rbx        # 26488 <g_2114>
   122ce:	bf 00 00 00 00       	mov    $0x0,%edi
   122d3:	e8 b6 76 00 00       	callq  1998e <func_60>
   122d8:	48 89 03             	mov    %rax,(%rbx)
   122db:	48 8b 05 ae 38 01 00 	mov    0x138ae(%rip),%rax        # 25b90 <g_1441>
   122e2:	0f b6 00             	movzbl (%rax),%eax
   122e5:	0f be c0             	movsbl %al,%eax
   122e8:	89 c6                	mov    %eax,%esi
   122ea:	bf 17 00 00 00       	mov    $0x17,%edi
   122ef:	e8 41 80 ff ff       	callq  a335 <safe_rshift_func_int8_t_s_s>
   122f4:	48 8b 95 50 f9 ff ff 	mov    -0x6b0(%rbp),%rdx
   122fb:	48 8b 85 50 f5 ff ff 	mov    -0xab0(%rbp),%rax
   12302:	48 89 10             	mov    %rdx,(%rax)
   12305:	48 8b 05 54 35 01 00 	mov    0x13554(%rip),%rax        # 25860 <g_706>
   1230c:	0f b7 00             	movzwl (%rax),%eax
   1230f:	0f b7 c0             	movzwl %ax,%eax
   12312:	48 0b 85 b8 f1 ff ff 	or     -0xe48(%rbp),%rax
   12319:	48 85 c0             	test   %rax,%rax
   1231c:	75 1a                	jne    12338 <func_31+0x13e9>
   1231e:	8b 85 74 f2 ff ff    	mov    -0xd8c(%rbp),%eax
   12324:	48 98                	cltq   
   12326:	48 89 c6             	mov    %rax,%rsi
   12329:	bf 01 00 00 00       	mov    $0x1,%edi
   1232e:	e8 18 8d ff ff       	callq  b04b <safe_sub_func_uint64_t_u_u>
   12333:	48 85 c0             	test   %rax,%rax
   12336:	74 07                	je     1233f <func_31+0x13f0>
   12338:	ba 01 00 00 00       	mov    $0x1,%edx
   1233d:	eb 05                	jmp    12344 <func_31+0x13f5>
   1233f:	ba 00 00 00 00       	mov    $0x0,%edx
   12344:	48 8b 05 f5 38 01 00 	mov    0x138f5(%rip),%rax        # 25c40 <g_1809>
   1234b:	48 63 d2             	movslq %edx,%rdx
   1234e:	48 89 10             	mov    %rdx,(%rax)
   12351:	48 8b 05 40 24 01 00 	mov    0x12440(%rip),%rax        # 24798 <g_155>
   12358:	48 8b 95 58 f5 ff ff 	mov    -0xaa8(%rbp),%rdx
   1235f:	48 89 10             	mov    %rdx,(%rax)
   12362:	48 8b 00             	mov    (%rax),%rax
   12365:	48 39 85 c0 f1 ff ff 	cmp    %rax,-0xe40(%rbp)
   1236c:	0f 95 c0             	setne  %al
   1236f:	0f b6 d0             	movzbl %al,%edx
   12372:	48 8b 85 c8 f2 ff ff 	mov    -0xd38(%rbp),%rax
   12379:	8b 00                	mov    (%rax),%eax
   1237b:	31 c2                	xor    %eax,%edx
   1237d:	48 8b 85 c8 f2 ff ff 	mov    -0xd38(%rbp),%rax
   12384:	89 10                	mov    %edx,(%rax)
   12386:	e9 66 07 00 00       	jmpq   12af1 <func_31+0x1ba2>
   1238b:	48 c7 85 80 f4 ff ff 	movq   $0x0,-0xb80(%rbp)
   12392:	00 00 00 00 
   12396:	48 8d 05 5b 02 01 00 	lea    0x1025b(%rip),%rax        # 225f8 <g_1268>
   1239d:	48 89 85 50 f9 ff ff 	mov    %rax,-0x6b0(%rbp)
   123a4:	48 8d 85 78 f2 ff ff 	lea    -0xd88(%rbp),%rax
   123ab:	48 89 85 58 f9 ff ff 	mov    %rax,-0x6a8(%rbp)
   123b2:	48 8d 85 78 f2 ff ff 	lea    -0xd88(%rbp),%rax
   123b9:	48 89 85 60 f9 ff ff 	mov    %rax,-0x6a0(%rbp)
   123c0:	48 8d 05 31 02 01 00 	lea    0x10231(%rip),%rax        # 225f8 <g_1268>
   123c7:	48 89 85 68 f9 ff ff 	mov    %rax,-0x698(%rbp)
   123ce:	48 8d 05 c3 47 01 00 	lea    0x147c3(%rip),%rax        # 26b98 <g_1112>
   123d5:	48 89 85 70 f9 ff ff 	mov    %rax,-0x690(%rbp)
   123dc:	48 c7 85 78 f9 ff ff 	movq   $0x0,-0x688(%rbp)
   123e3:	00 00 00 00 
   123e7:	48 8d 05 0a 02 01 00 	lea    0x1020a(%rip),%rax        # 225f8 <g_1268>
   123ee:	48 89 85 80 f9 ff ff 	mov    %rax,-0x680(%rbp)
   123f5:	48 8d 05 9c 47 01 00 	lea    0x1479c(%rip),%rax        # 26b98 <g_1112>
   123fc:	48 89 85 88 f9 ff ff 	mov    %rax,-0x678(%rbp)
   12403:	48 c7 85 90 f9 ff ff 	movq   $0x0,-0x670(%rbp)
   1240a:	00 00 00 00 
   1240e:	48 8d 85 78 f2 ff ff 	lea    -0xd88(%rbp),%rax
   12415:	48 89 85 98 f9 ff ff 	mov    %rax,-0x668(%rbp)
   1241c:	48 c7 85 a0 f9 ff ff 	movq   $0x0,-0x660(%rbp)
   12423:	00 00 00 00 
   12427:	48 8d 05 6a 47 01 00 	lea    0x1476a(%rip),%rax        # 26b98 <g_1112>
   1242e:	48 89 85 a8 f9 ff ff 	mov    %rax,-0x658(%rbp)
   12435:	48 8d 05 5c 47 01 00 	lea    0x1475c(%rip),%rax        # 26b98 <g_1112>
   1243c:	48 89 85 b0 f9 ff ff 	mov    %rax,-0x650(%rbp)
   12443:	48 8d 05 4e 47 01 00 	lea    0x1474e(%rip),%rax        # 26b98 <g_1112>
   1244a:	48 89 85 b8 f9 ff ff 	mov    %rax,-0x648(%rbp)
   12451:	48 c7 85 c0 f9 ff ff 	movq   $0x0,-0x640(%rbp)
   12458:	00 00 00 00 
   1245c:	48 8d 05 95 01 01 00 	lea    0x10195(%rip),%rax        # 225f8 <g_1268>
   12463:	48 89 85 c8 f9 ff ff 	mov    %rax,-0x638(%rbp)
   1246a:	48 8d 85 78 f2 ff ff 	lea    -0xd88(%rbp),%rax
   12471:	48 89 85 d0 f9 ff ff 	mov    %rax,-0x630(%rbp)
   12478:	48 8d 05 79 01 01 00 	lea    0x10179(%rip),%rax        # 225f8 <g_1268>
   1247f:	48 89 85 d8 f9 ff ff 	mov    %rax,-0x628(%rbp)
   12486:	48 c7 85 e0 f9 ff ff 	movq   $0x0,-0x620(%rbp)
   1248d:	00 00 00 00 
   12491:	48 8d 85 78 f2 ff ff 	lea    -0xd88(%rbp),%rax
   12498:	48 89 85 e8 f9 ff ff 	mov    %rax,-0x618(%rbp)
   1249f:	48 8d 05 52 01 01 00 	lea    0x10152(%rip),%rax        # 225f8 <g_1268>
   124a6:	48 89 85 f0 f9 ff ff 	mov    %rax,-0x610(%rbp)
   124ad:	48 8d 85 78 f2 ff ff 	lea    -0xd88(%rbp),%rax
   124b4:	48 89 85 f8 f9 ff ff 	mov    %rax,-0x608(%rbp)
   124bb:	48 8d 05 36 01 01 00 	lea    0x10136(%rip),%rax        # 225f8 <g_1268>
   124c2:	48 89 85 00 fa ff ff 	mov    %rax,-0x600(%rbp)
   124c9:	48 8d 05 28 01 01 00 	lea    0x10128(%rip),%rax        # 225f8 <g_1268>
   124d0:	48 89 85 08 fa ff ff 	mov    %rax,-0x5f8(%rbp)
   124d7:	48 8d 85 78 f2 ff ff 	lea    -0xd88(%rbp),%rax
   124de:	48 89 85 10 fa ff ff 	mov    %rax,-0x5f0(%rbp)
   124e5:	48 8d 05 ac 46 01 00 	lea    0x146ac(%rip),%rax        # 26b98 <g_1112>
   124ec:	48 89 85 18 fa ff ff 	mov    %rax,-0x5e8(%rbp)
   124f3:	48 8d 05 9e 46 01 00 	lea    0x1469e(%rip),%rax        # 26b98 <g_1112>
   124fa:	48 89 85 20 fa ff ff 	mov    %rax,-0x5e0(%rbp)
   12501:	48 c7 85 28 fa ff ff 	movq   $0x0,-0x5d8(%rbp)
   12508:	00 00 00 00 
   1250c:	48 8d 85 78 f2 ff ff 	lea    -0xd88(%rbp),%rax
   12513:	48 89 85 30 fa ff ff 	mov    %rax,-0x5d0(%rbp)
   1251a:	48 8d 85 78 f2 ff ff 	lea    -0xd88(%rbp),%rax
   12521:	48 89 85 38 fa ff ff 	mov    %rax,-0x5c8(%rbp)
   12528:	48 8d 05 69 46 01 00 	lea    0x14669(%rip),%rax        # 26b98 <g_1112>
   1252f:	48 89 85 40 fa ff ff 	mov    %rax,-0x5c0(%rbp)
   12536:	48 8d 05 bb 00 01 00 	lea    0x100bb(%rip),%rax        # 225f8 <g_1268>
   1253d:	48 89 85 48 fa ff ff 	mov    %rax,-0x5b8(%rbp)
   12544:	48 c7 85 50 fa ff ff 	movq   $0x0,-0x5b0(%rbp)
   1254b:	00 00 00 00 
   1254f:	48 8d 05 42 46 01 00 	lea    0x14642(%rip),%rax        # 26b98 <g_1112>
   12556:	48 89 85 58 fa ff ff 	mov    %rax,-0x5a8(%rbp)
   1255d:	48 c7 85 60 fa ff ff 	movq   $0x0,-0x5a0(%rbp)
   12564:	00 00 00 00 
   12568:	48 8d 85 78 f2 ff ff 	lea    -0xd88(%rbp),%rax
   1256f:	48 89 85 68 fa ff ff 	mov    %rax,-0x598(%rbp)
   12576:	48 8d 85 78 f2 ff ff 	lea    -0xd88(%rbp),%rax
   1257d:	48 89 85 70 fa ff ff 	mov    %rax,-0x590(%rbp)
   12584:	48 8d 05 6d 00 01 00 	lea    0x1006d(%rip),%rax        # 225f8 <g_1268>
   1258b:	48 89 85 78 fa ff ff 	mov    %rax,-0x588(%rbp)
   12592:	48 8d 05 ff 45 01 00 	lea    0x145ff(%rip),%rax        # 26b98 <g_1112>
   12599:	48 89 85 80 fa ff ff 	mov    %rax,-0x580(%rbp)
   125a0:	48 8d 85 78 f2 ff ff 	lea    -0xd88(%rbp),%rax
   125a7:	48 89 85 88 fa ff ff 	mov    %rax,-0x578(%rbp)
   125ae:	48 8d 05 e3 45 01 00 	lea    0x145e3(%rip),%rax        # 26b98 <g_1112>
   125b5:	48 89 85 90 fa ff ff 	mov    %rax,-0x570(%rbp)
   125bc:	48 8d 85 78 f2 ff ff 	lea    -0xd88(%rbp),%rax
   125c3:	48 89 85 98 fa ff ff 	mov    %rax,-0x568(%rbp)
   125ca:	48 8d 05 27 00 01 00 	lea    0x10027(%rip),%rax        # 225f8 <g_1268>
   125d1:	48 89 85 a0 fa ff ff 	mov    %rax,-0x560(%rbp)
   125d8:	48 8d 05 b9 45 01 00 	lea    0x145b9(%rip),%rax        # 26b98 <g_1112>
   125df:	48 89 85 a8 fa ff ff 	mov    %rax,-0x558(%rbp)
   125e6:	48 8d 05 ab 45 01 00 	lea    0x145ab(%rip),%rax        # 26b98 <g_1112>
   125ed:	48 89 85 b0 fa ff ff 	mov    %rax,-0x550(%rbp)
   125f4:	48 8d 05 9d 45 01 00 	lea    0x1459d(%rip),%rax        # 26b98 <g_1112>
   125fb:	48 89 85 b8 fa ff ff 	mov    %rax,-0x548(%rbp)
   12602:	48 8d 05 8f 45 01 00 	lea    0x1458f(%rip),%rax        # 26b98 <g_1112>
   12609:	48 89 85 c0 fa ff ff 	mov    %rax,-0x540(%rbp)
   12610:	48 8d 05 81 45 01 00 	lea    0x14581(%rip),%rax        # 26b98 <g_1112>
   12617:	48 89 85 c8 fa ff ff 	mov    %rax,-0x538(%rbp)
   1261e:	48 8d 05 73 45 01 00 	lea    0x14573(%rip),%rax        # 26b98 <g_1112>
   12625:	48 89 85 d0 fa ff ff 	mov    %rax,-0x530(%rbp)
   1262c:	48 c7 85 d8 fa ff ff 	movq   $0x0,-0x528(%rbp)
   12633:	00 00 00 00 
   12637:	48 8d 05 ba ff 00 00 	lea    0xffba(%rip),%rax        # 225f8 <g_1268>
   1263e:	48 89 85 e0 fa ff ff 	mov    %rax,-0x520(%rbp)
   12645:	48 8d 85 78 f2 ff ff 	lea    -0xd88(%rbp),%rax
   1264c:	48 89 85 e8 fa ff ff 	mov    %rax,-0x518(%rbp)
   12653:	48 8d 05 3e 45 01 00 	lea    0x1453e(%rip),%rax        # 26b98 <g_1112>
   1265a:	48 89 85 f0 fa ff ff 	mov    %rax,-0x510(%rbp)
   12661:	48 8d 85 78 f2 ff ff 	lea    -0xd88(%rbp),%rax
   12668:	48 89 85 f8 fa ff ff 	mov    %rax,-0x508(%rbp)
   1266f:	48 c7 85 00 fb ff ff 	movq   $0x0,-0x500(%rbp)
   12676:	00 00 00 00 
   1267a:	48 8d 05 77 ff 00 00 	lea    0xff77(%rip),%rax        # 225f8 <g_1268>
   12681:	48 89 85 08 fb ff ff 	mov    %rax,-0x4f8(%rbp)
   12688:	48 8d 85 78 f2 ff ff 	lea    -0xd88(%rbp),%rax
   1268f:	48 89 85 10 fb ff ff 	mov    %rax,-0x4f0(%rbp)
   12696:	48 8d 85 78 f2 ff ff 	lea    -0xd88(%rbp),%rax
   1269d:	48 89 85 18 fb ff ff 	mov    %rax,-0x4e8(%rbp)
   126a4:	48 8d 05 4d ff 00 00 	lea    0xff4d(%rip),%rax        # 225f8 <g_1268>
   126ab:	48 89 85 20 fb ff ff 	mov    %rax,-0x4e0(%rbp)
   126b2:	48 8d 05 df 44 01 00 	lea    0x144df(%rip),%rax        # 26b98 <g_1112>
   126b9:	48 89 85 28 fb ff ff 	mov    %rax,-0x4d8(%rbp)
   126c0:	48 c7 85 30 fb ff ff 	movq   $0x0,-0x4d0(%rbp)
   126c7:	00 00 00 00 
   126cb:	48 8d 05 26 ff 00 00 	lea    0xff26(%rip),%rax        # 225f8 <g_1268>
   126d2:	48 89 85 38 fb ff ff 	mov    %rax,-0x4c8(%rbp)
   126d9:	48 8d 05 b8 44 01 00 	lea    0x144b8(%rip),%rax        # 26b98 <g_1112>
   126e0:	48 89 85 40 fb ff ff 	mov    %rax,-0x4c0(%rbp)
   126e7:	48 c7 85 48 fb ff ff 	movq   $0x0,-0x4b8(%rbp)
   126ee:	00 00 00 00 
   126f2:	48 8d 85 78 f2 ff ff 	lea    -0xd88(%rbp),%rax
   126f9:	48 89 85 50 fb ff ff 	mov    %rax,-0x4b0(%rbp)
   12700:	48 c7 85 58 fb ff ff 	movq   $0x0,-0x4a8(%rbp)
   12707:	00 00 00 00 
   1270b:	48 8d 05 86 44 01 00 	lea    0x14486(%rip),%rax        # 26b98 <g_1112>
   12712:	48 89 85 60 fb ff ff 	mov    %rax,-0x4a0(%rbp)
   12719:	48 8d 05 78 44 01 00 	lea    0x14478(%rip),%rax        # 26b98 <g_1112>
   12720:	48 89 85 68 fb ff ff 	mov    %rax,-0x498(%rbp)
   12727:	48 8d 05 6a 44 01 00 	lea    0x1446a(%rip),%rax        # 26b98 <g_1112>
   1272e:	48 89 85 70 fb ff ff 	mov    %rax,-0x490(%rbp)
   12735:	48 c7 85 78 fb ff ff 	movq   $0x0,-0x488(%rbp)
   1273c:	00 00 00 00 
   12740:	48 8d 05 b1 fe 00 00 	lea    0xfeb1(%rip),%rax        # 225f8 <g_1268>
   12747:	48 89 85 80 fb ff ff 	mov    %rax,-0x480(%rbp)
   1274e:	48 8d 85 78 f2 ff ff 	lea    -0xd88(%rbp),%rax
   12755:	48 89 85 88 fb ff ff 	mov    %rax,-0x478(%rbp)
   1275c:	48 8d 05 95 fe 00 00 	lea    0xfe95(%rip),%rax        # 225f8 <g_1268>
   12763:	48 89 85 90 fb ff ff 	mov    %rax,-0x470(%rbp)
   1276a:	48 c7 85 98 fb ff ff 	movq   $0x0,-0x468(%rbp)
   12771:	00 00 00 00 
   12775:	48 8d 85 78 f2 ff ff 	lea    -0xd88(%rbp),%rax
   1277c:	48 89 85 a0 fb ff ff 	mov    %rax,-0x460(%rbp)
   12783:	48 8d 05 6e fe 00 00 	lea    0xfe6e(%rip),%rax        # 225f8 <g_1268>
   1278a:	48 89 85 a8 fb ff ff 	mov    %rax,-0x458(%rbp)
   12791:	48 8d 85 78 f2 ff ff 	lea    -0xd88(%rbp),%rax
   12798:	48 89 85 b0 fb ff ff 	mov    %rax,-0x450(%rbp)
   1279f:	48 8d 05 52 fe 00 00 	lea    0xfe52(%rip),%rax        # 225f8 <g_1268>
   127a6:	48 89 85 b8 fb ff ff 	mov    %rax,-0x448(%rbp)
   127ad:	48 8d 05 44 fe 00 00 	lea    0xfe44(%rip),%rax        # 225f8 <g_1268>
   127b4:	48 89 85 c0 fb ff ff 	mov    %rax,-0x440(%rbp)
   127bb:	48 8d 85 78 f2 ff ff 	lea    -0xd88(%rbp),%rax
   127c2:	48 89 85 c8 fb ff ff 	mov    %rax,-0x438(%rbp)
   127c9:	48 c7 85 88 f4 ff ff 	movq   $0x0,-0xb78(%rbp)
   127d0:	00 00 00 00 
   127d4:	48 8d 85 a0 f6 ff ff 	lea    -0x960(%rbp),%rax
   127db:	48 83 c0 54          	add    $0x54,%rax
   127df:	48 89 85 90 f4 ff ff 	mov    %rax,-0xb70(%rbp)
   127e6:	48 8d 05 5b fd 00 00 	lea    0xfd5b(%rip),%rax        # 22548 <g_426+0x8>
   127ed:	48 89 85 98 f4 ff ff 	mov    %rax,-0xb68(%rbp)
   127f4:	48 c7 85 a0 f4 ff ff 	movq   $0x0,-0xb60(%rbp)
   127fb:	00 00 00 00 
   127ff:	48 8d 85 f8 f1 ff ff 	lea    -0xe08(%rbp),%rax
   12806:	48 89 85 a8 f4 ff ff 	mov    %rax,-0xb58(%rbp)
   1280d:	48 8d 05 ac f8 00 00 	lea    0xf8ac(%rip),%rax        # 220c0 <g_2+0x80>
   12814:	48 89 85 b0 f4 ff ff 	mov    %rax,-0xb50(%rbp)
   1281b:	48 8d 85 08 f2 ff ff 	lea    -0xdf8(%rbp),%rax
   12822:	48 89 85 b8 f4 ff ff 	mov    %rax,-0xb48(%rbp)
   12829:	48 8d 05 70 43 01 00 	lea    0x14370(%rip),%rax        # 26ba0 <g_1129>
   12830:	48 89 85 c0 f4 ff ff 	mov    %rax,-0xb40(%rbp)
   12837:	48 8d 05 9e f8 00 00 	lea    0xf89e(%rip),%rax        # 220dc <g_2+0x9c>
   1283e:	48 89 85 c8 f4 ff ff 	mov    %rax,-0xb38(%rbp)
   12845:	48 8d 05 08 f9 00 00 	lea    0xf908(%rip),%rax        # 22154 <g_65>
   1284c:	48 89 85 d0 f4 ff ff 	mov    %rax,-0xb30(%rbp)
   12853:	48 c7 85 d8 f4 ff ff 	movq   $0x0,-0xb28(%rbp)
   1285a:	00 00 00 00 
   1285e:	48 8d 05 3b 43 01 00 	lea    0x1433b(%rip),%rax        # 26ba0 <g_1129>
   12865:	48 89 85 e0 f4 ff ff 	mov    %rax,-0xb20(%rbp)
   1286c:	48 8d 05 2d 43 01 00 	lea    0x1432d(%rip),%rax        # 26ba0 <g_1129>
   12873:	48 89 85 e8 f4 ff ff 	mov    %rax,-0xb18(%rbp)
   1287a:	48 8d 85 08 f2 ff ff 	lea    -0xdf8(%rbp),%rax
   12881:	48 89 85 f0 f4 ff ff 	mov    %rax,-0xb10(%rbp)
   12888:	48 c7 85 f8 f4 ff ff 	movq   $0x0,-0xb08(%rbp)
   1288f:	00 00 00 00 
   12893:	48 8d 85 08 f2 ff ff 	lea    -0xdf8(%rbp),%rax
   1289a:	48 89 85 00 f5 ff ff 	mov    %rax,-0xb00(%rbp)
   128a1:	48 8d 05 ac f8 00 00 	lea    0xf8ac(%rip),%rax        # 22154 <g_65>
   128a8:	48 89 85 08 f5 ff ff 	mov    %rax,-0xaf8(%rbp)
   128af:	48 8d 05 8a fc 00 00 	lea    0xfc8a(%rip),%rax        # 22540 <g_426>
   128b6:	48 89 85 10 f5 ff ff 	mov    %rax,-0xaf0(%rbp)
   128bd:	48 c7 85 18 f5 ff ff 	movq   $0x0,-0xae8(%rbp)
   128c4:	00 00 00 00 
   128c8:	48 8d 05 79 fc 00 00 	lea    0xfc79(%rip),%rax        # 22548 <g_426+0x8>
   128cf:	48 89 85 20 f5 ff ff 	mov    %rax,-0xae0(%rbp)
   128d6:	48 c7 85 28 f5 ff ff 	movq   $0x0,-0xad8(%rbp)
   128dd:	00 00 00 00 
   128e1:	48 c7 85 30 f5 ff ff 	movq   $0x0,-0xad0(%rbp)
   128e8:	00 00 00 00 
   128ec:	48 8d 05 5d fc 00 00 	lea    0xfc5d(%rip),%rax        # 22550 <g_426+0x10>
   128f3:	48 89 85 38 f5 ff ff 	mov    %rax,-0xac8(%rbp)
   128fa:	48 8d 85 08 f2 ff ff 	lea    -0xdf8(%rbp),%rax
   12901:	48 89 85 40 f5 ff ff 	mov    %rax,-0xac0(%rbp)
   12908:	48 8d 05 4d fc 00 00 	lea    0xfc4d(%rip),%rax        # 2255c <g_426+0x1c>
   1290f:	48 89 85 48 f5 ff ff 	mov    %rax,-0xab8(%rbp)
   12916:	c7 85 70 f2 ff ff 00 	movl   $0x0,-0xd90(%rbp)
   1291d:	00 00 00 
   12920:	c7 85 1c f2 ff ff 00 	movl   $0x0,-0xde4(%rbp)
   12927:	00 00 00 
   1292a:	eb 1b                	jmp    12947 <func_31+0x19f8>
   1292c:	8b 85 1c f2 ff ff    	mov    -0xde4(%rbp),%eax
   12932:	48 98                	cltq   
   12934:	48 c7 84 c5 e0 f5 ff 	movq   $0x0,-0xa20(%rbp,%rax,8)
   1293b:	ff 00 00 00 00 
   12940:	83 85 1c f2 ff ff 01 	addl   $0x1,-0xde4(%rbp)
   12947:	83 bd 1c f2 ff ff 02 	cmpl   $0x2,-0xde4(%rbp)
   1294e:	7e dc                	jle    1292c <func_31+0x19dd>
   12950:	48 8b 15 01 33 01 00 	mov    0x13301(%rip),%rdx        # 25c58 <g_1826>
   12957:	48 8b 05 fa 32 01 00 	mov    0x132fa(%rip),%rax        # 25c58 <g_1826>
   1295e:	48 8b 12             	mov    (%rdx),%rdx
   12961:	48 89 10             	mov    %rdx,(%rax)
   12964:	8b 05 36 fc 00 00    	mov    0xfc36(%rip),%eax        # 225a0 <g_843>
   1296a:	48 63 d8             	movslq %eax,%rbx
   1296d:	48 8b 05 ec 2e 01 00 	mov    0x12eec(%rip),%rax        # 25860 <g_706>
   12974:	0f b7 00             	movzwl (%rax),%eax
   12977:	44 0f b7 e0          	movzwl %ax,%r12d
   1297b:	0f b7 85 ec f1 ff ff 	movzwl -0xe14(%rbp),%eax
   12982:	44 0f b6 e8          	movzbl %al,%r13d
   12986:	8b 85 08 f2 ff ff    	mov    -0xdf8(%rbp),%eax
   1298c:	44 0f b7 f0          	movzwl %ax,%r14d
   12990:	48 8b 85 c0 f1 ff ff 	mov    -0xe40(%rbp),%rax
   12997:	0f b6 00             	movzbl (%rax),%eax
   1299a:	0f b6 d0             	movzbl %al,%edx
   1299d:	48 83 bd 78 f4 ff ff 	cmpq   $0x0,-0xb88(%rbp)
   129a4:	00 
   129a5:	0f 94 c0             	sete   %al
   129a8:	0f b6 c0             	movzbl %al,%eax
   129ab:	89 d6                	mov    %edx,%esi
   129ad:	89 c7                	mov    %eax,%edi
   129af:	e8 0a 83 ff ff       	callq  acbe <safe_rshift_func_uint8_t_u_u>
   129b4:	84 c0                	test   %al,%al
   129b6:	74 07                	je     129bf <func_31+0x1a70>
   129b8:	b9 01 00 00 00       	mov    $0x1,%ecx
   129bd:	eb 05                	jmp    129c4 <func_31+0x1a75>
   129bf:	b9 00 00 00 00       	mov    $0x0,%ecx
   129c4:	0f b7 05 d9 fb 00 00 	movzwl 0xfbd9(%rip),%eax        # 225a4 <g_843+0x4>
   129cb:	0f b7 c0             	movzwl %ax,%eax
   129ce:	48 63 d0             	movslq %eax,%rdx
   129d1:	48 89 d0             	mov    %rdx,%rax
   129d4:	48 c1 e0 03          	shl    $0x3,%rax
   129d8:	48 29 d0             	sub    %rdx,%rax
   129db:	48 c1 e0 02          	shl    $0x2,%rax
   129df:	48 89 c2             	mov    %rax,%rdx
   129e2:	48 8d 05 57 fa 00 00 	lea    0xfa57(%rip),%rax        # 22440 <g_407>
   129e9:	8b 04 02             	mov    (%rdx,%rax,1),%eax
   129ec:	39 c1                	cmp    %eax,%ecx
   129ee:	0f 9e c0             	setle  %al
   129f1:	0f b6 d0             	movzbl %al,%edx
   129f4:	48 8b 05 45 32 01 00 	mov    0x13245(%rip),%rax        # 25c40 <g_1809>
   129fb:	48 8b 00             	mov    (%rax),%rax
   129fe:	48 39 c2             	cmp    %rax,%rdx
   12a01:	48 8b 05 88 31 01 00 	mov    0x13188(%rip),%rax        # 25b90 <g_1441>
   12a08:	c6 00 00             	movb   $0x0,(%rax)
   12a0b:	0f b6 00             	movzbl (%rax),%eax
   12a0e:	84 c0                	test   %al,%al
   12a10:	0f 95 c0             	setne  %al
   12a13:	0f b6 c0             	movzbl %al,%eax
   12a16:	f7 d0                	not    %eax
   12a18:	89 c2                	mov    %eax,%edx
   12a1a:	0f b6 85 eb f1 ff ff 	movzbl -0xe15(%rbp),%eax
   12a21:	39 c2                	cmp    %eax,%edx
   12a23:	0f 9f c0             	setg   %al
   12a26:	0f b6 d0             	movzbl %al,%edx
   12a29:	48 8b 85 d0 f1 ff ff 	mov    -0xe30(%rbp),%rax
   12a30:	48 39 c2             	cmp    %rax,%rdx
   12a33:	0f 9d c2             	setge  %dl
   12a36:	48 8b 05 eb 24 01 00 	mov    0x124eb(%rip),%rax        # 24f28 <g_207>
   12a3d:	0f b6 d2             	movzbl %dl,%edx
   12a40:	66 89 10             	mov    %dx,(%rax)
   12a43:	0f b7 00             	movzwl (%rax),%eax
   12a46:	0f bf d0             	movswl %ax,%edx
   12a49:	48 8b 05 10 2e 01 00 	mov    0x12e10(%rip),%rax        # 25860 <g_706>
   12a50:	0f b7 00             	movzwl (%rax),%eax
   12a53:	0f b7 c0             	movzwl %ax,%eax
   12a56:	39 c2                	cmp    %eax,%edx
   12a58:	0f 94 c0             	sete   %al
   12a5b:	0f b6 c0             	movzbl %al,%eax
   12a5e:	89 c6                	mov    %eax,%esi
   12a60:	bf fa 00 00 00       	mov    $0xfa,%edi
   12a65:	e8 29 81 ff ff       	callq  ab93 <safe_mul_func_uint8_t_u_u>
   12a6a:	0f b6 c0             	movzbl %al,%eax
   12a6d:	44 89 f6             	mov    %r14d,%esi
   12a70:	89 c7                	mov    %eax,%edi
   12a72:	e8 17 83 ff ff       	callq  ad8e <safe_div_func_uint16_t_u_u>
   12a77:	0f b6 c0             	movzbl %al,%eax
   12a7a:	44 89 ee             	mov    %r13d,%esi
   12a7d:	89 c7                	mov    %eax,%edi
   12a7f:	e8 57 81 ff ff       	callq  abdb <safe_div_func_uint8_t_u_u>
   12a84:	0f b6 d0             	movzbl %al,%edx
   12a87:	8b 85 dc f1 ff ff    	mov    -0xe24(%rbp),%eax
   12a8d:	48 98                	cltq   
   12a8f:	48 89 d6             	mov    %rdx,%rsi
   12a92:	48 89 c7             	mov    %rax,%rdi
   12a95:	e8 a7 7d ff ff       	callq  a841 <safe_add_func_int64_t_s_s>
   12a9a:	0f b7 c0             	movzwl %ax,%eax
   12a9d:	44 89 e6             	mov    %r12d,%esi
   12aa0:	89 c7                	mov    %eax,%edi
   12aa2:	e8 5f 83 ff ff       	callq  ae06 <safe_lshift_func_uint16_t_u_u>
   12aa7:	c7 85 08 f2 ff ff 00 	movl   $0x0,-0xdf8(%rbp)
   12aae:	00 00 00 
   12ab1:	8b 85 08 f2 ff ff    	mov    -0xdf8(%rbp),%eax
   12ab7:	48 98                	cltq   
   12ab9:	48 89 de             	mov    %rbx,%rsi
   12abc:	48 89 c7             	mov    %rax,%rdi
   12abf:	e8 6a 85 ff ff       	callq  b02e <safe_add_func_uint64_t_u_u>
   12ac4:	89 c2                	mov    %eax,%edx
   12ac6:	48 8b 85 c8 f2 ff ff 	mov    -0xd38(%rbp),%rax
   12acd:	89 10                	mov    %edx,(%rax)
   12acf:	83 ad 10 f2 ff ff 01 	subl   $0x1,-0xdf0(%rbp)
   12ad6:	48 8b 85 c8 f4 ff ff 	mov    -0xb38(%rbp),%rax
   12add:	8b 10                	mov    (%rax),%edx
   12adf:	0f b6 85 eb f1 ff ff 	movzbl -0xe15(%rbp),%eax
   12ae6:	31 c2                	xor    %eax,%edx
   12ae8:	48 8b 85 c8 f4 ff ff 	mov    -0xb38(%rbp),%rax
   12aef:	89 10                	mov    %edx,(%rax)
   12af1:	0f b7 05 ac fa 00 00 	movzwl 0xfaac(%rip),%eax        # 225a4 <g_843+0x4>
   12af8:	83 c0 01             	add    $0x1,%eax
   12afb:	66 89 05 a2 fa 00 00 	mov    %ax,0xfaa2(%rip)        # 225a4 <g_843+0x4>
   12b02:	0f b7 05 9b fa 00 00 	movzwl 0xfa9b(%rip),%eax        # 225a4 <g_843+0x4>
   12b09:	66 83 f8 07          	cmp    $0x7,%ax
   12b0d:	0f 86 59 f6 ff ff    	jbe    1216c <func_31+0x121d>
   12b13:	48 8b 85 c8 f2 ff ff 	mov    -0xd38(%rbp),%rax
   12b1a:	8b 00                	mov    (%rax),%eax
   12b1c:	85 c0                	test   %eax,%eax
   12b1e:	0f 84 dc 00 00 00    	je     12c00 <func_31+0x1cb1>
   12b24:	8b 85 60 f2 ff ff    	mov    -0xda0(%rbp),%eax
   12b2a:	89 85 dc f1 ff ff    	mov    %eax,-0xe24(%rbp)
   12b30:	8b 85 dc f1 ff ff    	mov    -0xe24(%rbp),%eax
   12b36:	85 c0                	test   %eax,%eax
   12b38:	0f 94 c0             	sete   %al
   12b3b:	44 0f b6 e0          	movzbl %al,%r12d
   12b3f:	48 8b 85 c0 f1 ff ff 	mov    -0xe40(%rbp),%rax
   12b46:	0f b6 00             	movzbl (%rax),%eax
   12b49:	3c 49                	cmp    $0x49,%al
   12b4b:	0f 97 c0             	seta   %al
   12b4e:	0f b6 c0             	movzbl %al,%eax
   12b51:	48 39 85 b8 f1 ff ff 	cmp    %rax,-0xe48(%rbp)
   12b58:	0f 94 c0             	sete   %al
   12b5b:	0f b6 d8             	movzbl %al,%ebx
   12b5e:	8b 85 60 f2 ff ff    	mov    -0xda0(%rbp),%eax
   12b64:	98                   	cwtl   
   12b65:	be 04 00 00 00       	mov    $0x4,%esi
   12b6a:	89 c7                	mov    %eax,%edi
   12b6c:	e8 21 79 ff ff       	callq  a492 <safe_lshift_func_int16_t_s_s>
   12b71:	0f be c0             	movsbl %al,%eax
   12b74:	be 03 00 00 00       	mov    $0x3,%esi
   12b79:	89 c7                	mov    %eax,%edi
   12b7b:	e8 ec 77 ff ff       	callq  a36c <safe_rshift_func_int8_t_s_u>
   12b80:	0f be c0             	movsbl %al,%eax
   12b83:	89 de                	mov    %ebx,%esi
   12b85:	89 c7                	mov    %eax,%edi
   12b87:	e8 44 83 ff ff       	callq  aed0 <safe_sub_func_uint32_t_u_u>
   12b8c:	48 8b 85 c8 f2 ff ff 	mov    -0xd38(%rbp),%rax
   12b93:	8b 00                	mov    (%rax),%eax
   12b95:	44 89 e2             	mov    %r12d,%edx
   12b98:	31 c2                	xor    %eax,%edx
   12b9a:	48 8b 85 c8 f2 ff ff 	mov    -0xd38(%rbp),%rax
   12ba1:	89 10                	mov    %edx,(%rax)
   12ba3:	48 8b 85 c8 f2 ff ff 	mov    -0xd38(%rbp),%rax
   12baa:	8b 10                	mov    (%rax),%edx
   12bac:	c7 85 b0 f5 ff ff fd 	movl   $0x578f1fd,-0xa50(%rbp)
   12bb3:	f1 78 05 
   12bb6:	8b 85 b0 f5 ff ff    	mov    -0xa50(%rbp),%eax
   12bbc:	39 c2                	cmp    %eax,%edx
   12bbe:	48 8b 85 c0 f1 ff ff 	mov    -0xe40(%rbp),%rax
   12bc5:	0f b6 00             	movzbl (%rax),%eax
   12bc8:	0f b6 d0             	movzbl %al,%edx
   12bcb:	48 8b 05 be 2f 01 00 	mov    0x12fbe(%rip),%rax        # 25b90 <g_1441>
   12bd2:	0f b6 00             	movzbl (%rax),%eax
   12bd5:	0f be c0             	movsbl %al,%eax
   12bd8:	0b 85 48 f2 ff ff    	or     -0xdb8(%rbp),%eax
   12bde:	39 c2                	cmp    %eax,%edx
   12be0:	48 8b 85 c8 f1 ff ff 	mov    -0xe38(%rbp),%rax
   12be7:	98                   	cwtl   
   12be8:	be 01 00 00 00       	mov    $0x1,%esi
   12bed:	89 c7                	mov    %eax,%edi
   12bef:	e8 9e 78 ff ff       	callq  a492 <safe_lshift_func_int16_t_s_s>
   12bf4:	66 85 c0             	test   %ax,%ax
   12bf7:	74 07                	je     12c00 <func_31+0x1cb1>
   12bf9:	ba 01 00 00 00       	mov    $0x1,%edx
   12bfe:	eb 05                	jmp    12c05 <func_31+0x1cb6>
   12c00:	ba 00 00 00 00       	mov    $0x0,%edx
   12c05:	8b 85 f4 f6 ff ff    	mov    -0x90c(%rbp),%eax
   12c0b:	09 d0                	or     %edx,%eax
   12c0d:	89 85 f4 f6 ff ff    	mov    %eax,-0x90c(%rbp)
   12c13:	c6 05 a6 3f 01 00 e7 	movb   $0xe7,0x13fa6(%rip)        # 26bc0 <g_1869>
   12c1a:	e9 be 00 00 00       	jmpq   12cdd <func_31+0x1d8e>
   12c1f:	66 c7 05 7c f9 00 00 	movw   $0xffe4,0xf97c(%rip)        # 225a4 <g_843+0x4>
   12c26:	e4 ff 
   12c28:	eb 21                	jmp    12c4b <func_31+0x1cfc>
   12c2a:	48 8b 05 2f 30 01 00 	mov    0x1302f(%rip),%rax        # 25c60 <g_2008>
   12c31:	48 8b 00             	mov    (%rax),%rax
   12c34:	8b 00                	mov    (%rax),%eax
   12c36:	85 c0                	test   %eax,%eax
   12c38:	75 20                	jne    12c5a <func_31+0x1d0b>
   12c3a:	0f b7 05 63 f9 00 00 	movzwl 0xf963(%rip),%eax        # 225a4 <g_843+0x4>
   12c41:	83 c0 01             	add    $0x1,%eax
   12c44:	66 89 05 59 f9 00 00 	mov    %ax,0xf959(%rip)        # 225a4 <g_843+0x4>
   12c4b:	0f b7 05 52 f9 00 00 	movzwl 0xf952(%rip),%eax        # 225a4 <g_843+0x4>
   12c52:	66 83 f8 04          	cmp    $0x4,%ax
   12c56:	77 d2                	ja     12c2a <func_31+0x1cdb>
   12c58:	eb 01                	jmp    12c5b <func_31+0x1d0c>
   12c5a:	90                   	nop
   12c5b:	c7 05 77 f9 00 00 00 	movl   $0x0,0xf977(%rip)        # 225dc <g_1055+0xc>
   12c62:	00 00 00 
   12c65:	eb 28                	jmp    12c8f <func_31+0x1d40>
   12c67:	48 c7 85 c0 f2 ff ff 	movq   $0xfffffffffffffff7,-0xd40(%rbp)
   12c6e:	f7 ff ff ff 
   12c72:	48 8b 85 d0 f1 ff ff 	mov    -0xe30(%rbp),%rax
   12c79:	48 89 85 c0 f2 ff ff 	mov    %rax,-0xd40(%rbp)
   12c80:	8b 05 56 f9 00 00    	mov    0xf956(%rip),%eax        # 225dc <g_1055+0xc>
   12c86:	83 e8 01             	sub    $0x1,%eax
   12c89:	89 05 4d f9 00 00    	mov    %eax,0xf94d(%rip)        # 225dc <g_1055+0xc>
   12c8f:	8b 05 47 f9 00 00    	mov    0xf947(%rip),%eax        # 225dc <g_1055+0xc>
   12c95:	83 f8 eb             	cmp    $0xffffffeb,%eax
   12c98:	7d cd                	jge    12c67 <func_31+0x1d18>
   12c9a:	8b 85 48 f2 ff ff    	mov    -0xdb8(%rbp),%eax
   12ca0:	0f be d0             	movsbl %al,%edx
   12ca3:	48 8b 85 78 f2 ff ff 	mov    -0xd88(%rbp),%rax
   12caa:	0f be c0             	movsbl %al,%eax
   12cad:	89 d6                	mov    %edx,%esi
   12caf:	89 c7                	mov    %eax,%edi
   12cb1:	e8 3c 75 ff ff       	callq  a1f2 <safe_sub_func_int8_t_s_s>
   12cb6:	0f be c0             	movsbl %al,%eax
   12cb9:	89 85 dc f1 ff ff    	mov    %eax,-0xe24(%rbp)
   12cbf:	0f b6 05 fa 3e 01 00 	movzbl 0x13efa(%rip),%eax        # 26bc0 <g_1869>
   12cc6:	48 0f be c0          	movsbq %al,%rax
   12cca:	be 06 00 00 00       	mov    $0x6,%esi
   12ccf:	48 89 c7             	mov    %rax,%rdi
   12cd2:	e8 57 83 ff ff       	callq  b02e <safe_add_func_uint64_t_u_u>
   12cd7:	88 05 e3 3e 01 00    	mov    %al,0x13ee3(%rip)        # 26bc0 <g_1869>
   12cdd:	0f b6 05 dc 3e 01 00 	movzbl 0x13edc(%rip),%eax        # 26bc0 <g_1869>
   12ce4:	3c eb                	cmp    $0xeb,%al
   12ce6:	0f 8d 33 ff ff ff    	jge    12c1f <func_31+0x1cd0>
   12cec:	e9 a7 00 00 00       	jmpq   12d98 <func_31+0x1e49>
   12cf1:	48 8d 05 58 f8 00 00 	lea    0xf858(%rip),%rax        # 22550 <g_426+0x10>
   12cf8:	48 89 85 38 f4 ff ff 	mov    %rax,-0xbc8(%rbp)
   12cff:	48 c7 85 40 f4 ff ff 	movq   $0x0,-0xbc0(%rbp)
   12d06:	00 00 00 00 
   12d0a:	48 8d 85 00 f2 ff ff 	lea    -0xe00(%rbp),%rax
   12d11:	48 89 85 48 f4 ff ff 	mov    %rax,-0xbb8(%rbp)
   12d18:	48 8d 85 fc f1 ff ff 	lea    -0xe04(%rbp),%rax
   12d1f:	48 89 85 50 f4 ff ff 	mov    %rax,-0xbb0(%rbp)
   12d26:	48 8d 85 04 f2 ff ff 	lea    -0xdfc(%rbp),%rax
   12d2d:	48 89 85 58 f4 ff ff 	mov    %rax,-0xba8(%rbp)
   12d34:	48 c7 85 60 f4 ff ff 	movq   $0x0,-0xba0(%rbp)
   12d3b:	00 00 00 00 
   12d3f:	48 c7 85 68 f4 ff ff 	movq   $0x0,-0xb98(%rbp)
   12d46:	00 00 00 00 
   12d4a:	48 8d 05 8b f3 00 00 	lea    0xf38b(%rip),%rax        # 220dc <g_2+0x9c>
   12d51:	48 89 85 50 f9 ff ff 	mov    %rax,-0x6b0(%rbp)
   12d58:	48 8d 05 7d f3 00 00 	lea    0xf37d(%rip),%rax        # 220dc <g_2+0x9c>
   12d5f:	48 89 85 58 f9 ff ff 	mov    %rax,-0x6a8(%rbp)
   12d66:	48 8d 05 6f f3 00 00 	lea    0xf36f(%rip),%rax        # 220dc <g_2+0x9c>
   12d6d:	48 89 85 60 f9 ff ff 	mov    %rax,-0x6a0(%rbp)
   12d74:	48 8d 05 61 f3 00 00 	lea    0xf361(%rip),%rax        # 220dc <g_2+0x9c>
   12d7b:	48 89 85 68 f9 ff ff 	mov    %rax,-0x698(%rbp)
   12d82:	48 8d 05 53 f3 00 00 	lea    0xf353(%rip),%rax        # 220dc <g_2+0x9c>
   12d89:	48 89 85 70 f9 ff ff 	mov    %rax,-0x690(%rbp)
   12d90:	48 83 85 00 f4 ff ff 	addq   $0x1,-0xc00(%rbp)
   12d97:	01 
   12d98:	66 83 85 ee f1 ff ff 	addw   $0x1,-0xe12(%rbp)
   12d9f:	01 
   12da0:	8b 85 fc f1 ff ff    	mov    -0xe04(%rbp),%eax
   12da6:	e9 4c 13 00 00       	jmpq   140f7 <func_31+0x31a8>
   12dab:	48 8b 85 10 f4 ff ff 	mov    -0xbf0(%rbp),%rax
   12db2:	44 0f bf e0          	movswl %ax,%r12d
   12db6:	48 8b 05 db 19 01 00 	mov    0x119db(%rip),%rax        # 24798 <g_155>
   12dbd:	48 8b 18             	mov    (%rax),%rbx
   12dc0:	48 8b 05 61 21 01 00 	mov    0x12161(%rip),%rax        # 24f28 <g_207>
   12dc7:	0f b7 08             	movzwl (%rax),%ecx
   12dca:	66 0f be 95 e9 f1 ff 	movsbw -0xe17(%rbp),%dx
   12dd1:	ff 
   12dd2:	48 8b 05 4f 21 01 00 	mov    0x1214f(%rip),%rax        # 24f28 <g_207>
   12dd9:	21 ca                	and    %ecx,%edx
   12ddb:	66 89 10             	mov    %dx,(%rax)
   12dde:	8b 85 dc f1 ff ff    	mov    -0xe24(%rbp),%eax
   12de4:	0f b7 c0             	movzwl %ax,%eax
   12de7:	89 c7                	mov    %eax,%edi
   12de9:	e8 a0 6b 00 00       	callq  1998e <func_60>
   12dee:	48 89 05 9b 36 01 00 	mov    %rax,0x1369b(%rip)        # 26490 <g_2235>
   12df5:	48 8b 15 94 36 01 00 	mov    0x13694(%rip),%rdx        # 26490 <g_2235>
   12dfc:	48 8b 85 b8 f1 ff ff 	mov    -0xe48(%rbp),%rax
   12e03:	48 89 d6             	mov    %rdx,%rsi
   12e06:	48 89 c7             	mov    %rax,%rdi
   12e09:	e8 0f 13 00 00       	callq  1411d <func_40>
   12e0e:	48 89 c6             	mov    %rax,%rsi
   12e11:	48 8d 85 90 f1 ff ff 	lea    -0xe70(%rbp),%rax
   12e18:	48 8b 95 d0 f1 ff ff 	mov    -0xe30(%rbp),%rdx
   12e1f:	45 89 e0             	mov    %r12d,%r8d
   12e22:	48 89 d9             	mov    %rbx,%rcx
   12e25:	48 89 c7             	mov    %rax,%rdi
   12e28:	e8 14 67 00 00       	callq  19541 <func_49>
   12e2d:	48 8b 85 90 f1 ff ff 	mov    -0xe70(%rbp),%rax
   12e34:	48 8b 95 98 f1 ff ff 	mov    -0xe68(%rbp),%rdx
   12e3b:	48 89 05 ae f9 00 00 	mov    %rax,0xf9ae(%rip)        # 227f0 <g_2237>
   12e42:	48 89 15 af f9 00 00 	mov    %rdx,0xf9af(%rip)        # 227f8 <g_2237+0x8>
   12e49:	48 8b 85 a0 f1 ff ff 	mov    -0xe60(%rbp),%rax
   12e50:	48 89 05 a9 f9 00 00 	mov    %rax,0xf9a9(%rip)        # 22800 <g_2237+0x10>
   12e57:	8b 85 a8 f1 ff ff    	mov    -0xe58(%rbp),%eax
   12e5d:	89 05 a5 f9 00 00    	mov    %eax,0xf9a5(%rip)        # 22808 <g_2237+0x18>
   12e63:	48 8b 85 18 f4 ff ff 	mov    -0xbe8(%rbp),%rax
   12e6a:	48 8b 0d 9f f9 00 00 	mov    0xf99f(%rip),%rcx        # 22810 <g_2238>
   12e71:	48 8b 1d a0 f9 00 00 	mov    0xf9a0(%rip),%rbx        # 22818 <g_2238+0x8>
   12e78:	48 89 08             	mov    %rcx,(%rax)
   12e7b:	48 89 58 08          	mov    %rbx,0x8(%rax)
   12e7f:	48 8b 15 9a f9 00 00 	mov    0xf99a(%rip),%rdx        # 22820 <g_2238+0x10>
   12e86:	48 89 50 10          	mov    %rdx,0x10(%rax)
   12e8a:	8b 15 98 f9 00 00    	mov    0xf998(%rip),%edx        # 22828 <g_2238+0x18>
   12e90:	89 50 18             	mov    %edx,0x18(%rax)
   12e93:	0f b7 05 98 f5 00 00 	movzwl 0xf598(%rip),%eax        # 22432 <g_248+0x12>
   12e9a:	98                   	cwtl   
   12e9b:	be 04 00 00 00       	mov    $0x4,%esi
   12ea0:	89 c7                	mov    %eax,%edi
   12ea2:	e8 0f 77 ff ff       	callq  a5b6 <safe_add_func_int32_t_s_s>
   12ea7:	66 89 05 84 f5 00 00 	mov    %ax,0xf584(%rip)        # 22432 <g_248+0x12>
   12eae:	0f b7 05 7d f5 00 00 	movzwl 0xf57d(%rip),%eax        # 22432 <g_248+0x12>
   12eb5:	66 85 c0             	test   %ax,%ax
   12eb8:	0f 85 14 e5 ff ff    	jne    113d2 <func_31+0x483>
   12ebe:	48 8d 05 d3 3c 01 00 	lea    0x13cd3(%rip),%rax        # 26b98 <g_1112>
   12ec5:	48 89 85 d8 f2 ff ff 	mov    %rax,-0xd28(%rbp)
   12ecc:	48 8b 85 d0 f2 ff ff 	mov    -0xd30(%rbp),%rax
   12ed3:	48 89 05 06 3d 01 00 	mov    %rax,0x13d06(%rip)        # 26be0 <g_2244>
   12eda:	48 8b 05 ff 3c 01 00 	mov    0x13cff(%rip),%rax        # 26be0 <g_2244>
   12ee1:	48 8d 15 80 29 01 00 	lea    0x12980(%rip),%rdx        # 25868 <g_743>
   12ee8:	48 39 d0             	cmp    %rdx,%rax
   12eeb:	0f 85 24 04 00 00    	jne    13315 <func_31+0x23c6>
   12ef1:	c7 85 44 f2 ff ff f9 	movl   $0xfffffff9,-0xdbc(%rbp)
   12ef8:	ff ff ff 
   12efb:	48 8d 05 06 f9 00 00 	lea    0xf906(%rip),%rax        # 22808 <g_2237+0x18>
   12f02:	48 89 85 d8 f3 ff ff 	mov    %rax,-0xc28(%rbp)
   12f09:	48 8d 05 26 f2 00 00 	lea    0xf226(%rip),%rax        # 22136 <g_55+0x36>
   12f10:	48 89 85 d0 fb ff ff 	mov    %rax,-0x430(%rbp)
   12f17:	48 8d 05 18 f2 00 00 	lea    0xf218(%rip),%rax        # 22136 <g_55+0x36>
   12f1e:	48 89 85 d8 fb ff ff 	mov    %rax,-0x428(%rbp)
   12f25:	48 8d 05 0a f2 00 00 	lea    0xf20a(%rip),%rax        # 22136 <g_55+0x36>
   12f2c:	48 89 85 e0 fb ff ff 	mov    %rax,-0x420(%rbp)
   12f33:	48 8d 05 fc f1 00 00 	lea    0xf1fc(%rip),%rax        # 22136 <g_55+0x36>
   12f3a:	48 89 85 e8 fb ff ff 	mov    %rax,-0x418(%rbp)
   12f41:	48 8d 05 ee f1 00 00 	lea    0xf1ee(%rip),%rax        # 22136 <g_55+0x36>
   12f48:	48 89 85 f0 fb ff ff 	mov    %rax,-0x410(%rbp)
   12f4f:	48 8d 05 e0 f1 00 00 	lea    0xf1e0(%rip),%rax        # 22136 <g_55+0x36>
   12f56:	48 89 85 f8 fb ff ff 	mov    %rax,-0x408(%rbp)
   12f5d:	48 8d 05 d2 f1 00 00 	lea    0xf1d2(%rip),%rax        # 22136 <g_55+0x36>
   12f64:	48 89 85 00 fc ff ff 	mov    %rax,-0x400(%rbp)
   12f6b:	48 8d 05 c4 f1 00 00 	lea    0xf1c4(%rip),%rax        # 22136 <g_55+0x36>
   12f72:	48 89 85 08 fc ff ff 	mov    %rax,-0x3f8(%rbp)
   12f79:	48 8d 05 b6 f1 00 00 	lea    0xf1b6(%rip),%rax        # 22136 <g_55+0x36>
   12f80:	48 89 85 10 fc ff ff 	mov    %rax,-0x3f0(%rbp)
   12f87:	48 8d 05 a8 f1 00 00 	lea    0xf1a8(%rip),%rax        # 22136 <g_55+0x36>
   12f8e:	48 89 85 18 fc ff ff 	mov    %rax,-0x3e8(%rbp)
   12f95:	48 8d 05 9a f1 00 00 	lea    0xf19a(%rip),%rax        # 22136 <g_55+0x36>
   12f9c:	48 89 85 20 fc ff ff 	mov    %rax,-0x3e0(%rbp)
   12fa3:	48 8d 05 8c f1 00 00 	lea    0xf18c(%rip),%rax        # 22136 <g_55+0x36>
   12faa:	48 89 85 28 fc ff ff 	mov    %rax,-0x3d8(%rbp)
   12fb1:	48 8d 05 7e f1 00 00 	lea    0xf17e(%rip),%rax        # 22136 <g_55+0x36>
   12fb8:	48 89 85 30 fc ff ff 	mov    %rax,-0x3d0(%rbp)
   12fbf:	48 8d 05 70 f1 00 00 	lea    0xf170(%rip),%rax        # 22136 <g_55+0x36>
   12fc6:	48 89 85 38 fc ff ff 	mov    %rax,-0x3c8(%rbp)
   12fcd:	48 8d 05 62 f1 00 00 	lea    0xf162(%rip),%rax        # 22136 <g_55+0x36>
   12fd4:	48 89 85 40 fc ff ff 	mov    %rax,-0x3c0(%rbp)
   12fdb:	48 8d 05 54 f1 00 00 	lea    0xf154(%rip),%rax        # 22136 <g_55+0x36>
   12fe2:	48 89 85 48 fc ff ff 	mov    %rax,-0x3b8(%rbp)
   12fe9:	48 8d 05 46 f1 00 00 	lea    0xf146(%rip),%rax        # 22136 <g_55+0x36>
   12ff0:	48 89 85 50 fc ff ff 	mov    %rax,-0x3b0(%rbp)
   12ff7:	48 8d 05 38 f1 00 00 	lea    0xf138(%rip),%rax        # 22136 <g_55+0x36>
   12ffe:	48 89 85 58 fc ff ff 	mov    %rax,-0x3a8(%rbp)
   13005:	48 8d 05 2a f1 00 00 	lea    0xf12a(%rip),%rax        # 22136 <g_55+0x36>
   1300c:	48 89 85 60 fc ff ff 	mov    %rax,-0x3a0(%rbp)
   13013:	48 8d 05 1c f1 00 00 	lea    0xf11c(%rip),%rax        # 22136 <g_55+0x36>
   1301a:	48 89 85 68 fc ff ff 	mov    %rax,-0x398(%rbp)
   13021:	48 8d 05 0e f1 00 00 	lea    0xf10e(%rip),%rax        # 22136 <g_55+0x36>
   13028:	48 89 85 70 fc ff ff 	mov    %rax,-0x390(%rbp)
   1302f:	48 8d 05 00 f1 00 00 	lea    0xf100(%rip),%rax        # 22136 <g_55+0x36>
   13036:	48 89 85 78 fc ff ff 	mov    %rax,-0x388(%rbp)
   1303d:	48 8d 05 f2 f0 00 00 	lea    0xf0f2(%rip),%rax        # 22136 <g_55+0x36>
   13044:	48 89 85 80 fc ff ff 	mov    %rax,-0x380(%rbp)
   1304b:	48 8d 05 e4 f0 00 00 	lea    0xf0e4(%rip),%rax        # 22136 <g_55+0x36>
   13052:	48 89 85 88 fc ff ff 	mov    %rax,-0x378(%rbp)
   13059:	48 8d 05 d6 f0 00 00 	lea    0xf0d6(%rip),%rax        # 22136 <g_55+0x36>
   13060:	48 89 85 90 fc ff ff 	mov    %rax,-0x370(%rbp)
   13067:	48 8d 05 c8 f0 00 00 	lea    0xf0c8(%rip),%rax        # 22136 <g_55+0x36>
   1306e:	48 89 85 98 fc ff ff 	mov    %rax,-0x368(%rbp)
   13075:	48 8d 05 ba f0 00 00 	lea    0xf0ba(%rip),%rax        # 22136 <g_55+0x36>
   1307c:	48 89 85 a0 fc ff ff 	mov    %rax,-0x360(%rbp)
   13083:	48 8d 05 ac f0 00 00 	lea    0xf0ac(%rip),%rax        # 22136 <g_55+0x36>
   1308a:	48 89 85 a8 fc ff ff 	mov    %rax,-0x358(%rbp)
   13091:	48 8d 05 9e f0 00 00 	lea    0xf09e(%rip),%rax        # 22136 <g_55+0x36>
   13098:	48 89 85 b0 fc ff ff 	mov    %rax,-0x350(%rbp)
   1309f:	48 8d 05 90 f0 00 00 	lea    0xf090(%rip),%rax        # 22136 <g_55+0x36>
   130a6:	48 89 85 b8 fc ff ff 	mov    %rax,-0x348(%rbp)
   130ad:	48 8d 05 1c f0 00 00 	lea    0xf01c(%rip),%rax        # 220d0 <g_2+0x90>
   130b4:	48 89 85 e0 f3 ff ff 	mov    %rax,-0xc20(%rbp)
   130bb:	8b 85 dc f1 ff ff    	mov    -0xe24(%rbp),%eax
   130c1:	44 0f be e0          	movsbl %al,%r12d
   130c5:	0f b7 85 ee f1 ff ff 	movzwl -0xe12(%rbp),%eax
   130cc:	44 0f bf e8          	movswl %ax,%r13d
   130d0:	8b 85 44 f2 ff ff    	mov    -0xdbc(%rbp),%eax
   130d6:	0f bf d0             	movswl %ax,%edx
   130d9:	8b 85 dc f1 ff ff    	mov    -0xe24(%rbp),%eax
   130df:	98                   	cwtl   
   130e0:	89 d6                	mov    %edx,%esi
   130e2:	89 c7                	mov    %eax,%edi
   130e4:	e8 ca 72 ff ff       	callq  a3b3 <safe_add_func_int16_t_s_s>
   130e9:	48 8b 85 c8 f1 ff ff 	mov    -0xe38(%rbp),%rax
   130f0:	44 0f bf f0          	movswl %ax,%r14d
   130f4:	8b 85 f4 f6 ff ff    	mov    -0x90c(%rbp),%eax
   130fa:	44 0f bf f8          	movswl %ax,%r15d
   130fe:	48 8b 85 b8 f1 ff ff 	mov    -0xe48(%rbp),%rax
   13105:	0f bf d8             	movswl %ax,%ebx
   13108:	48 8b 85 b8 f1 ff ff 	mov    -0xe48(%rbp),%rax
   1310f:	0f bf f8             	movswl %ax,%edi
   13112:	48 8b 05 87 16 01 00 	mov    0x11687(%rip),%rax        # 247a0 <g_154>
   13119:	48 8b 00             	mov    (%rax),%rax
   1311c:	48 8b 08             	mov    (%rax),%rcx
   1311f:	48 8b b5 d8 fb ff ff 	mov    -0x428(%rbp),%rsi
   13126:	48 8d 85 90 f1 ff ff 	lea    -0xe70(%rbp),%rax
   1312d:	48 8b 95 d0 f1 ff ff 	mov    -0xe30(%rbp),%rdx
   13134:	41 89 f8             	mov    %edi,%r8d
   13137:	48 89 c7             	mov    %rax,%rdi
   1313a:	e8 02 64 00 00       	callq  19541 <func_49>
   1313f:	48 8b 85 b8 f1 ff ff 	mov    -0xe48(%rbp),%rax
   13146:	89 c2                	mov    %eax,%edx
   13148:	48 8b 85 d8 f3 ff ff 	mov    -0xc28(%rbp),%rax
   1314f:	89 10                	mov    %edx,(%rax)
   13151:	48 8b 85 d8 f3 ff ff 	mov    -0xc28(%rbp),%rax
   13158:	8b 10                	mov    (%rax),%edx
   1315a:	8b 85 28 f2 ff ff    	mov    -0xdd8(%rbp),%eax
   13160:	39 c2                	cmp    %eax,%edx
   13162:	0f 95 c0             	setne  %al
   13165:	0f b6 d0             	movzbl %al,%edx
   13168:	48 8b 05 21 16 01 00 	mov    0x11621(%rip),%rax        # 24790 <g_150>
   1316f:	0f b6 00             	movzbl (%rax),%eax
   13172:	0f b6 c0             	movzbl %al,%eax
   13175:	39 c2                	cmp    %eax,%edx
   13177:	0f 9e c0             	setle  %al
   1317a:	0f b6 d0             	movzbl %al,%edx
   1317d:	8b 85 dc f6 ff ff    	mov    -0x924(%rbp),%eax
   13183:	39 c2                	cmp    %eax,%edx
   13185:	0f 95 c0             	setne  %al
   13188:	0f b6 c0             	movzbl %al,%eax
   1318b:	be ca d5 ff ff       	mov    $0xffffd5ca,%esi
   13190:	89 c7                	mov    %eax,%edi
   13192:	e8 5e 72 ff ff       	callq  a3f5 <safe_mul_func_int16_t_s_s>
   13197:	98                   	cwtl   
   13198:	89 de                	mov    %ebx,%esi
   1319a:	89 c7                	mov    %eax,%edi
   1319c:	e8 54 72 ff ff       	callq  a3f5 <safe_mul_func_int16_t_s_s>
   131a1:	48 8b 05 80 1d 01 00 	mov    0x11d80(%rip),%rax        # 24f28 <g_207>
   131a8:	0f b7 00             	movzwl (%rax),%eax
   131ab:	66 85 c0             	test   %ax,%ax
   131ae:	0f 95 c0             	setne  %al
   131b1:	0f b6 c0             	movzbl %al,%eax
   131b4:	48 8b 15 8d 26 01 00 	mov    0x1268d(%rip),%rdx        # 25848 <g_635>
   131bb:	48 8b 1a             	mov    (%rdx),%rbx
   131be:	44 89 fe             	mov    %r15d,%esi
   131c1:	89 c7                	mov    %eax,%edi
   131c3:	e8 2d 72 ff ff       	callq  a3f5 <safe_mul_func_int16_t_s_s>
   131c8:	66 89 03             	mov    %ax,(%rbx)
   131cb:	0f b7 03             	movzwl (%rbx),%eax
   131ce:	98                   	cwtl   
   131cf:	44 89 f6             	mov    %r14d,%esi
   131d2:	89 c7                	mov    %eax,%edi
   131d4:	e8 fa 71 ff ff       	callq  a3d3 <safe_sub_func_int16_t_s_s>
   131d9:	0f bf d0             	movswl %ax,%edx
   131dc:	8b 05 4a f6 00 00    	mov    0xf64a(%rip),%eax        # 2282c <g_2275>
   131e2:	31 d0                	xor    %edx,%eax
   131e4:	89 05 42 f6 00 00    	mov    %eax,0xf642(%rip)        # 2282c <g_2275>
   131ea:	8b 05 3c f6 00 00    	mov    0xf63c(%rip),%eax        # 2282c <g_2275>
   131f0:	39 85 44 f2 ff ff    	cmp    %eax,-0xdbc(%rbp)
   131f6:	0f 94 c0             	sete   %al
   131f9:	0f b6 d0             	movzbl %al,%edx
   131fc:	8b 85 1c f7 ff ff    	mov    -0x8e4(%rbp),%eax
   13202:	39 c2                	cmp    %eax,%edx
   13204:	0f 9f c0             	setg   %al
   13207:	0f b6 d0             	movzbl %al,%edx
   1320a:	81 bd 44 f2 ff ff 99 	cmpl   $0x7b4b9699,-0xdbc(%rbp)
   13211:	96 4b 7b 
   13214:	0f 97 c0             	seta   %al
   13217:	0f b6 c0             	movzbl %al,%eax
   1321a:	89 d6                	mov    %edx,%esi
   1321c:	89 c7                	mov    %eax,%edi
   1321e:	e8 70 79 ff ff       	callq  ab93 <safe_mul_func_uint8_t_u_u>
   13223:	0f b6 c0             	movzbl %al,%eax
   13226:	be 01 00 00 00       	mov    $0x1,%esi
   1322b:	89 c7                	mov    %eax,%edi
   1322d:	e8 16 7c ff ff       	callq  ae48 <safe_rshift_func_uint16_t_u_s>
   13232:	66 83 f8 06          	cmp    $0x6,%ax
   13236:	0f 95 c0             	setne  %al
   13239:	0f b6 d0             	movzbl %al,%edx
   1323c:	8b 85 f4 f6 ff ff    	mov    -0x90c(%rbp),%eax
   13242:	39 c2                	cmp    %eax,%edx
   13244:	0f 9f c0             	setg   %al
   13247:	0f b6 c0             	movzbl %al,%eax
   1324a:	48 89 85 c8 f1 ff ff 	mov    %rax,-0xe38(%rbp)
   13251:	48 b8 f6 2a 6d be 96 	movabs $0x615b9f96be6d2af6,%rax
   13258:	9f 5b 61 
   1325b:	48 39 85 c8 f1 ff ff 	cmp    %rax,-0xe38(%rbp)
   13262:	0f 96 c0             	setbe  %al
   13265:	0f b6 c0             	movzbl %al,%eax
   13268:	39 85 44 f2 ff ff    	cmp    %eax,-0xdbc(%rbp)
   1326e:	0f 92 c0             	setb   %al
   13271:	0f b6 c0             	movzbl %al,%eax
   13274:	39 85 44 f2 ff ff    	cmp    %eax,-0xdbc(%rbp)
   1327a:	0f 96 c0             	setbe  %al
   1327d:	0f b6 d0             	movzbl %al,%edx
   13280:	48 8b 05 f9 14 01 00 	mov    0x114f9(%rip),%rax        # 24780 <g_54>
   13287:	0f b6 00             	movzbl (%rax),%eax
   1328a:	0f b6 c0             	movzbl %al,%eax
   1328d:	39 c2                	cmp    %eax,%edx
   1328f:	7f 11                	jg     132a2 <func_31+0x2353>
   13291:	66 83 bd f0 f1 ff ff 	cmpw   $0x0,-0xe10(%rbp)
   13298:	00 
   13299:	74 07                	je     132a2 <func_31+0x2353>
   1329b:	b8 01 00 00 00       	mov    $0x1,%eax
   132a0:	eb 05                	jmp    132a7 <func_31+0x2358>
   132a2:	b8 00 00 00 00       	mov    $0x0,%eax
   132a7:	83 f8 04             	cmp    $0x4,%eax
   132aa:	0f 96 c0             	setbe  %al
   132ad:	0f b6 d0             	movzbl %al,%edx
   132b0:	48 8b 85 d0 f1 ff ff 	mov    -0xe30(%rbp),%rax
   132b7:	48 39 c2             	cmp    %rax,%rdx
   132ba:	0f 94 c0             	sete   %al
   132bd:	0f b6 c0             	movzbl %al,%eax
   132c0:	be 0b 00 00 00       	mov    $0xb,%esi
   132c5:	89 c7                	mov    %eax,%edi
   132c7:	e8 c6 71 ff ff       	callq  a492 <safe_lshift_func_int16_t_s_s>
   132cc:	98                   	cwtl   
   132cd:	44 89 ee             	mov    %r13d,%esi
   132d0:	89 c7                	mov    %eax,%edi
   132d2:	e8 1e 71 ff ff       	callq  a3f5 <safe_mul_func_int16_t_s_s>
   132d7:	0f be c0             	movsbl %al,%eax
   132da:	44 89 e6             	mov    %r12d,%esi
   132dd:	89 c7                	mov    %eax,%edi
   132df:	e8 4d 6f ff ff       	callq  a231 <safe_mod_func_int8_t_s_s>
   132e4:	0f be c0             	movsbl %al,%eax
   132e7:	be 02 00 00 00       	mov    $0x2,%esi
   132ec:	89 c7                	mov    %eax,%edi
   132ee:	e8 ae 6f ff ff       	callq  a2a1 <safe_lshift_func_int8_t_s_s>
   132f3:	48 8b 95 e0 f3 ff ff 	mov    -0xc20(%rbp),%rdx
   132fa:	8b 12                	mov    (%rdx),%edx
   132fc:	0f be c0             	movsbl %al,%eax
   132ff:	09 c2                	or     %eax,%edx
   13301:	48 8b 85 e0 f3 ff ff 	mov    -0xc20(%rbp),%rax
   13308:	89 10                	mov    %edx,(%rax)
   1330a:	8b 85 dc f1 ff ff    	mov    -0xe24(%rbp),%eax
   13310:	e9 e2 0d 00 00       	jmpq   140f7 <func_31+0x31a8>
   13315:	48 8d 05 34 f2 00 00 	lea    0xf234(%rip),%rax        # 22550 <g_426+0x10>
   1331c:	48 89 85 e0 f2 ff ff 	mov    %rax,-0xd20(%rbp)
   13323:	48 8d 05 2a ee 00 00 	lea    0xee2a(%rip),%rax        # 22154 <g_65>
   1332a:	48 89 85 d0 fb ff ff 	mov    %rax,-0x430(%rbp)
   13331:	48 c7 85 d8 fb ff ff 	movq   $0x0,-0x428(%rbp)
   13338:	00 00 00 00 
   1333c:	48 c7 85 e0 fb ff ff 	movq   $0x0,-0x420(%rbp)
   13343:	00 00 00 00 
   13347:	48 8d 05 06 ee 00 00 	lea    0xee06(%rip),%rax        # 22154 <g_65>
   1334e:	48 89 85 e8 fb ff ff 	mov    %rax,-0x418(%rbp)
   13355:	48 c7 85 f0 fb ff ff 	movq   $0x0,-0x410(%rbp)
   1335c:	00 00 00 00 
   13360:	48 c7 85 f8 fb ff ff 	movq   $0x0,-0x408(%rbp)
   13367:	00 00 00 00 
   1336b:	48 8d 05 e2 ed 00 00 	lea    0xede2(%rip),%rax        # 22154 <g_65>
   13372:	48 89 85 00 fc ff ff 	mov    %rax,-0x400(%rbp)
   13379:	48 c7 85 08 fc ff ff 	movq   $0x0,-0x3f8(%rbp)
   13380:	00 00 00 00 
   13384:	c7 85 2c f2 ff ff 78 	movl   $0x1d57ed78,-0xdd4(%rbp)
   1338b:	ed 57 1d 
   1338e:	c7 85 30 f2 ff ff c1 	movl   $0x10752bc1,-0xdd0(%rbp)
   13395:	2b 75 10 
   13398:	48 b8 4a a1 c8 66 16 	movabs $0xf163d11666c8a14a,%rax
   1339f:	d1 63 f1 
   133a2:	48 89 85 e8 f2 ff ff 	mov    %rax,-0xd18(%rbp)
   133a9:	48 83 ad e8 f2 ff ff 	subq   $0x1,-0xd18(%rbp)
   133b0:	01 
   133b1:	8b 85 c4 f6 ff ff    	mov    -0x93c(%rbp),%eax
   133b7:	83 e0 01             	and    $0x1,%eax
   133ba:	85 c0                	test   %eax,%eax
   133bc:	0f 84 07 08 00 00    	je     13bc9 <func_31+0x2c7a>
   133c2:	48 8d 85 d0 fb ff ff 	lea    -0x430(%rbp),%rax
   133c9:	48 8d 15 70 a4 00 00 	lea    0xa470(%rip),%rdx        # 1d840 <g_2807+0x190>
   133d0:	b9 38 00 00 00       	mov    $0x38,%ecx
   133d5:	48 89 c7             	mov    %rax,%rdi
   133d8:	48 89 d6             	mov    %rdx,%rsi
   133db:	f3 48 a5             	rep movsq %ds:(%rsi),%es:(%rdi)
   133de:	48 c7 85 b8 f2 ff ff 	movq   $0xffffffffffffffff,-0xd48(%rbp)
   133e5:	ff ff ff ff 
   133e9:	48 8d 05 d8 13 01 00 	lea    0x113d8(%rip),%rax        # 247c8 <g_202+0x8>
   133f0:	48 89 85 18 f3 ff ff 	mov    %rax,-0xce8(%rbp)
   133f7:	c7 05 cf f1 00 00 e4 	movl   $0xffffffe4,0xf1cf(%rip)        # 225d0 <g_1055>
   133fe:	ff ff ff 
   13401:	e9 95 07 00 00       	jmpq   13b9b <func_31+0x2c4c>
   13406:	48 8d 05 35 f2 00 00 	lea    0xf235(%rip),%rax        # 22642 <g_1365+0x12>
   1340d:	48 89 85 20 f3 ff ff 	mov    %rax,-0xce0(%rbp)
   13414:	48 8d 05 35 f2 00 00 	lea    0xf235(%rip),%rax        # 22650 <g_1690>
   1341b:	48 89 85 28 f3 ff ff 	mov    %rax,-0xcd8(%rbp)
   13422:	c7 85 40 f2 ff ff ea 	movl   $0x4f2097ea,-0xdc0(%rbp)
   13429:	97 20 4f 
   1342c:	c7 85 a8 f2 ff ff fa 	movl   $0xfffffffa,-0xd58(%rbp)
   13433:	ff ff ff 
   13436:	48 c7 85 30 f3 ff ff 	movq   $0x0,-0xcd0(%rbp)
   1343d:	00 00 00 00 
   13441:	48 8d 05 38 27 01 00 	lea    0x12738(%rip),%rax        # 25b80 <g_1193>
   13448:	48 89 85 38 f3 ff ff 	mov    %rax,-0xcc8(%rbp)
   1344f:	48 8b 85 c0 f1 ff ff 	mov    -0xe40(%rbp),%rax
   13456:	0f b6 00             	movzbl (%rax),%eax
   13459:	0f b6 d8             	movzbl %al,%ebx
   1345c:	48 8b 85 b8 f1 ff ff 	mov    -0xe48(%rbp),%rax
   13463:	41 89 c4             	mov    %eax,%r12d
   13466:	48 8b 05 3b 27 01 00 	mov    0x1273b(%rip),%rax        # 25ba8 <g_1688>
   1346d:	48 8b 00             	mov    (%rax),%rax
   13470:	48 39 85 28 f3 ff ff 	cmp    %rax,-0xcd8(%rbp)
   13477:	0f 94 c0             	sete   %al
   1347a:	0f b6 c0             	movzbl %al,%eax
   1347d:	be b8 81 ff ff       	mov    $0xffff81b8,%esi
   13482:	89 c7                	mov    %eax,%edi
   13484:	e8 2a 6f ff ff       	callq  a3b3 <safe_add_func_int16_t_s_s>
   13489:	98                   	cwtl   
   1348a:	83 e0 10             	and    $0x10,%eax
   1348d:	44 89 e6             	mov    %r12d,%esi
   13490:	89 c7                	mov    %eax,%edi
   13492:	e8 68 72 ff ff       	callq  a6ff <safe_div_func_int32_t_s_s>
   13497:	89 de                	mov    %ebx,%esi
   13499:	bf 09 00 00 00       	mov    $0x9,%edi
   1349e:	e8 f0 76 ff ff       	callq  ab93 <safe_mul_func_uint8_t_u_u>
   134a3:	48 8b 95 d0 f1 ff ff 	mov    -0xe30(%rbp),%rdx
   134aa:	48 8b 85 c0 f1 ff ff 	mov    -0xe40(%rbp),%rax
   134b1:	0f b6 00             	movzbl (%rax),%eax
   134b4:	0f b6 c0             	movzbl %al,%eax
   134b7:	48 39 c2             	cmp    %rax,%rdx
   134ba:	0f 9c c0             	setl   %al
   134bd:	0f b6 c0             	movzbl %al,%eax
   134c0:	23 85 28 f2 ff ff    	and    -0xdd8(%rbp),%eax
   134c6:	89 c2                	mov    %eax,%edx
   134c8:	48 8b 05 c1 26 01 00 	mov    0x126c1(%rip),%rax        # 25b90 <g_1441>
   134cf:	0f b6 00             	movzbl (%rax),%eax
   134d2:	0f be c0             	movsbl %al,%eax
   134d5:	09 d0                	or     %edx,%eax
   134d7:	39 85 28 f2 ff ff    	cmp    %eax,-0xdd8(%rbp)
   134dd:	48 8b 05 64 23 01 00 	mov    0x12364(%rip),%rax        # 25848 <g_635>
   134e4:	48 8b 00             	mov    (%rax),%rax
   134e7:	0f b7 00             	movzwl (%rax),%eax
   134ea:	98                   	cwtl   
   134eb:	be 0e 00 00 00       	mov    $0xe,%esi
   134f0:	89 c7                	mov    %eax,%edi
   134f2:	e8 ea 6f ff ff       	callq  a4e1 <safe_lshift_func_int16_t_s_u>
   134f7:	0f b7 c0             	movzwl %ax,%eax
   134fa:	be 07 00 00 00       	mov    $0x7,%esi
   134ff:	89 c7                	mov    %eax,%edi
   13501:	e8 f9 77 ff ff       	callq  acff <safe_add_func_uint16_t_u_u>
   13506:	89 c2                	mov    %eax,%edx
   13508:	8b 85 e8 f6 ff ff    	mov    -0x918(%rbp),%eax
   1350e:	21 d0                	and    %edx,%eax
   13510:	0f be d8             	movsbl %al,%ebx
   13513:	48 8b 05 36 23 01 00 	mov    0x12336(%rip),%rax        # 25850 <g_634>
   1351a:	48 8b 00             	mov    (%rax),%rax
   1351d:	48 8b 00             	mov    (%rax),%rax
   13520:	0f b7 10             	movzwl (%rax),%edx
   13523:	48 8b 85 20 f3 ff ff 	mov    -0xce0(%rbp),%rax
   1352a:	0f b7 00             	movzwl (%rax),%eax
   1352d:	21 c2                	and    %eax,%edx
   1352f:	48 8b 85 20 f3 ff ff 	mov    -0xce0(%rbp),%rax
   13536:	66 89 10             	mov    %dx,(%rax)
   13539:	48 8b 85 20 f3 ff ff 	mov    -0xce0(%rbp),%rax
   13540:	0f b7 00             	movzwl (%rax),%eax
   13543:	98                   	cwtl   
   13544:	be f3 42 00 00       	mov    $0x42f3,%esi
   13549:	89 c7                	mov    %eax,%edi
   1354b:	e8 c6 6e ff ff       	callq  a416 <safe_mod_func_int16_t_s_s>
   13550:	0f be c0             	movsbl %al,%eax
   13553:	89 de                	mov    %ebx,%esi
   13555:	89 c7                	mov    %eax,%edi
   13557:	e8 d5 6c ff ff       	callq  a231 <safe_mod_func_int8_t_s_s>
   1355c:	8b 95 c8 f5 ff ff    	mov    -0xa38(%rbp),%edx
   13562:	0f be c0             	movsbl %al,%eax
   13565:	31 d0                	xor    %edx,%eax
   13567:	89 85 c8 f5 ff ff    	mov    %eax,-0xa38(%rbp)
   1356d:	66 c7 05 6e f0 00 00 	movw   $0x4,0xf06e(%rip)        # 225e4 <g_1055+0x14>
   13574:	04 00 
   13576:	e9 fe 04 00 00       	jmpq   13a79 <func_31+0x2b2a>
   1357b:	66 c7 85 30 f6 ff ff 	movw   $0x1e33,-0x9d0(%rbp)
   13582:	33 1e 
   13584:	66 c7 85 32 f6 ff ff 	movw   $0x1e33,-0x9ce(%rbp)
   1358b:	33 1e 
   1358d:	66 c7 85 34 f6 ff ff 	movw   $0x1e33,-0x9cc(%rbp)
   13594:	33 1e 
   13596:	66 c7 85 36 f6 ff ff 	movw   $0x1e33,-0x9ca(%rbp)
   1359d:	33 1e 
   1359f:	66 c7 85 38 f6 ff ff 	movw   $0x1e33,-0x9c8(%rbp)
   135a6:	33 1e 
   135a8:	66 c7 85 3a f6 ff ff 	movw   $0x1e33,-0x9c6(%rbp)
   135af:	33 1e 
   135b1:	66 c7 85 3c f6 ff ff 	movw   $0x1e33,-0x9c4(%rbp)
   135b8:	33 1e 
   135ba:	66 c7 85 3e f6 ff ff 	movw   $0x1e33,-0x9c2(%rbp)
   135c1:	33 1e 
   135c3:	c7 85 b0 f2 ff ff 01 	movl   $0x1,-0xd50(%rbp)
   135ca:	00 00 00 
   135cd:	66 c7 85 f2 f1 ff ff 	movw   $0x0,-0xe0e(%rbp)
   135d4:	00 00 
   135d6:	c7 05 8c eb 00 00 07 	movl   $0x7,0xeb8c(%rip)        # 2216c <g_84+0xc>
   135dd:	00 00 00 
   135e0:	eb 36                	jmp    13618 <func_31+0x26c9>
   135e2:	48 8b 05 7f 26 01 00 	mov    0x1267f(%rip),%rax        # 25c68 <g_2051>
   135e9:	48 8b 00             	mov    (%rax),%rax
   135ec:	8b 00                	mov    (%rax),%eax
   135ee:	85 c0                	test   %eax,%eax
   135f0:	75 33                	jne    13625 <func_31+0x26d6>
   135f2:	8b 85 dc f1 ff ff    	mov    -0xe24(%rbp),%eax
   135f8:	85 c0                	test   %eax,%eax
   135fa:	8b 05 6c eb 00 00    	mov    0xeb6c(%rip),%eax        # 2216c <g_84+0xc>
   13600:	0f b6 c0             	movzbl %al,%eax
   13603:	be 09 00 00 00       	mov    $0x9,%esi
   13608:	89 c7                	mov    %eax,%edi
   1360a:	e8 4b 75 ff ff       	callq  ab5a <safe_add_func_uint8_t_u_u>
   1360f:	0f b6 c0             	movzbl %al,%eax
   13612:	89 05 54 eb 00 00    	mov    %eax,0xeb54(%rip)        # 2216c <g_84+0xc>
   13618:	8b 05 4e eb 00 00    	mov    0xeb4e(%rip),%eax        # 2216c <g_84+0xc>
   1361e:	83 f8 1a             	cmp    $0x1a,%eax
   13621:	7f bf                	jg     135e2 <func_31+0x2693>
   13623:	eb 01                	jmp    13626 <func_31+0x26d7>
   13625:	90                   	nop
   13626:	48 8b 05 db 11 01 00 	mov    0x111db(%rip),%rax        # 24808 <g_201>
   1362d:	48 8b 00             	mov    (%rax),%rax
   13630:	8b 18                	mov    (%rax),%ebx
   13632:	0f b7 85 38 f6 ff ff 	movzwl -0x9c8(%rbp),%eax
   13639:	0f b7 d0             	movzwl %ax,%edx
   1363c:	48 8b 05 1d 22 01 00 	mov    0x1221d(%rip),%rax        # 25860 <g_706>
   13643:	0f b7 00             	movzwl (%rax),%eax
   13646:	0f b7 c0             	movzwl %ax,%eax
   13649:	89 d6                	mov    %edx,%esi
   1364b:	89 c7                	mov    %eax,%edi
   1364d:	e8 eb 76 ff ff       	callq  ad3d <safe_mul_func_uint16_t_u_u>
   13652:	89 c2                	mov    %eax,%edx
   13654:	48 8b 05 cd 18 01 00 	mov    0x118cd(%rip),%rax        # 24f28 <g_207>
   1365b:	66 89 10             	mov    %dx,(%rax)
   1365e:	b9 01 00 00 00       	mov    $0x1,%ecx
   13663:	48 8b 05 2e 11 01 00 	mov    0x1112e(%rip),%rax        # 24798 <g_155>
   1366a:	48 8b 00             	mov    (%rax),%rax
   1366d:	0f b6 00             	movzbl (%rax),%eax
   13670:	89 c2                	mov    %eax,%edx
   13672:	89 c8                	mov    %ecx,%eax
   13674:	21 c2                	and    %eax,%edx
   13676:	48 8b 05 1b 11 01 00 	mov    0x1111b(%rip),%rax        # 24798 <g_155>
   1367d:	48 8b 00             	mov    (%rax),%rax
   13680:	88 10                	mov    %dl,(%rax)
   13682:	89 de                	mov    %ebx,%esi
   13684:	bf f6 ff ff ff       	mov    $0xfffffff6,%edi
   13689:	e8 28 6f ff ff       	callq  a5b6 <safe_add_func_int32_t_s_s>
   1368e:	85 c0                	test   %eax,%eax
   13690:	0f 84 e2 01 00 00    	je     13878 <func_31+0x2929>
   13696:	48 b8 57 c3 62 89 ca 	movabs $0xcb82b9ca8962c357,%rax
   1369d:	b9 82 cb 
   136a0:	48 89 85 d0 f3 ff ff 	mov    %rax,-0xc30(%rbp)
   136a7:	48 c7 85 c0 f2 ff ff 	movq   $0x1,-0xd40(%rbp)
   136ae:	01 00 00 00 
   136b2:	0f b7 05 6d ed 00 00 	movzwl 0xed6d(%rip),%eax        # 22426 <g_248+0x6>
   136b9:	0f b7 d8             	movzwl %ax,%ebx
   136bc:	48 8b 85 d0 f3 ff ff 	mov    -0xc30(%rbp),%rax
   136c3:	0f b6 c0             	movzbl %al,%eax
   136c6:	be 05 00 00 00       	mov    $0x5,%esi
   136cb:	89 c7                	mov    %eax,%edi
   136cd:	e8 33 75 ff ff       	callq  ac05 <safe_lshift_func_uint8_t_u_s>
   136d2:	4c 8b a5 80 fd ff ff 	mov    -0x280(%rbp),%r12
   136d9:	4c 8b ad d0 f1 ff ff 	mov    -0xe30(%rbp),%r13
   136e0:	48 8b 95 d0 f1 ff ff 	mov    -0xe30(%rbp),%rdx
   136e7:	0f b7 85 38 f6 ff ff 	movzwl -0x9c8(%rbp),%eax
   136ee:	48 0f bf c0          	movswq %ax,%rax
   136f2:	48 39 c2             	cmp    %rax,%rdx
   136f5:	0f 95 c0             	setne  %al
   136f8:	0f b6 d0             	movzbl %al,%edx
   136fb:	48 8b 05 96 10 01 00 	mov    0x11096(%rip),%rax        # 24798 <g_155>
   13702:	48 8b 00             	mov    (%rax),%rax
   13705:	0f b6 00             	movzbl (%rax),%eax
   13708:	0f b6 c0             	movzbl %al,%eax
   1370b:	39 c2                	cmp    %eax,%edx
   1370d:	0f 95 c0             	setne  %al
   13710:	0f b6 d0             	movzbl %al,%edx
   13713:	48 8b 05 56 24 01 00 	mov    0x12456(%rip),%rax        # 25b70 <g_1164>
   1371a:	8b 00                	mov    (%rax),%eax
   1371c:	31 d0                	xor    %edx,%eax
   1371e:	0f b7 c0             	movzwl %ax,%eax
   13721:	be 05 00 00 00       	mov    $0x5,%esi
   13726:	89 c7                	mov    %eax,%edi
   13728:	e8 d9 76 ff ff       	callq  ae06 <safe_lshift_func_uint16_t_u_u>
   1372d:	0f b7 c0             	movzwl %ax,%eax
   13730:	49 39 c5             	cmp    %rax,%r13
   13733:	0f 94 c0             	sete   %al
   13736:	0f b6 c0             	movzbl %al,%eax
   13739:	49 39 c4             	cmp    %rax,%r12
   1373c:	0f 9e c0             	setle  %al
   1373f:	0f b6 c0             	movzbl %al,%eax
   13742:	39 85 40 f2 ff ff    	cmp    %eax,-0xdc0(%rbp)
   13748:	0f 9f c0             	setg   %al
   1374b:	0f b6 d0             	movzbl %al,%edx
   1374e:	0f b7 85 f0 f1 ff ff 	movzwl -0xe10(%rbp),%eax
   13755:	09 d0                	or     %edx,%eax
   13757:	89 85 b0 f2 ff ff    	mov    %eax,-0xd50(%rbp)
   1375d:	8b 85 b0 f2 ff ff    	mov    -0xd50(%rbp),%eax
   13763:	0f be c0             	movsbl %al,%eax
   13766:	89 c6                	mov    %eax,%esi
   13768:	bf 7a 00 00 00       	mov    $0x7a,%edi
   1376d:	e8 80 6a ff ff       	callq  a1f2 <safe_sub_func_int8_t_s_s>
   13772:	48 0f be c0          	movsbq %al,%rax
   13776:	48 89 de             	mov    %rbx,%rsi
   13779:	48 89 c7             	mov    %rax,%rdi
   1377c:	e8 76 72 ff ff       	callq  a9f7 <safe_div_func_int64_t_s_s>
   13781:	0f b6 95 e6 f1 ff ff 	movzbl -0xe1a(%rbp),%edx
   13788:	48 39 d0             	cmp    %rdx,%rax
   1378b:	0f 9c c0             	setl   %al
   1378e:	89 c2                	mov    %eax,%edx
   13790:	48 8b 05 c9 20 01 00 	mov    0x120c9(%rip),%rax        # 25860 <g_706>
   13797:	0f b7 00             	movzwl (%rax),%eax
   1379a:	21 d0                	and    %edx,%eax
   1379c:	0f be d0             	movsbl %al,%edx
   1379f:	48 8b 05 ea 23 01 00 	mov    0x123ea(%rip),%rax        # 25b90 <g_1441>
   137a6:	0f b6 00             	movzbl (%rax),%eax
   137a9:	0f be c0             	movsbl %al,%eax
   137ac:	89 d6                	mov    %edx,%esi
   137ae:	89 c7                	mov    %eax,%edi
   137b0:	e8 7c 6a ff ff       	callq  a231 <safe_mod_func_int8_t_s_s>
   137b5:	0f be c0             	movsbl %al,%eax
   137b8:	89 c6                	mov    %eax,%esi
   137ba:	bf 02 00 00 00       	mov    $0x2,%edi
   137bf:	e8 2e 6a ff ff       	callq  a1f2 <safe_sub_func_int8_t_s_s>
   137c4:	3c 01                	cmp    $0x1,%al
   137c6:	0f 94 c0             	sete   %al
   137c9:	0f b6 c0             	movzbl %al,%eax
   137cc:	48 39 85 d0 f3 ff ff 	cmp    %rax,-0xc30(%rbp)
   137d3:	0f 94 c0             	sete   %al
   137d6:	0f b6 c0             	movzbl %al,%eax
   137d9:	be 5e 00 00 00       	mov    $0x5e,%esi
   137de:	89 c7                	mov    %eax,%edi
   137e0:	e8 2d 6a ff ff       	callq  a212 <safe_mul_func_int8_t_s_s>
   137e5:	48 8b 15 a4 2c 01 00 	mov    0x12ca4(%rip),%rdx        # 26490 <g_2235>
   137ec:	8b 0a                	mov    (%rdx),%ecx
   137ee:	0f be d0             	movsbl %al,%edx
   137f1:	48 8b 05 98 2c 01 00 	mov    0x12c98(%rip),%rax        # 26490 <g_2235>
   137f8:	21 ca                	and    %ecx,%edx
   137fa:	89 10                	mov    %edx,(%rax)
   137fc:	48 8b 05 d5 1d 01 00 	mov    0x11dd5(%rip),%rax        # 255d8 <g_247>
   13803:	48 8b 0d 46 f0 00 00 	mov    0xf046(%rip),%rcx        # 22850 <g_2340>
   1380a:	48 8b 1d 47 f0 00 00 	mov    0xf047(%rip),%rbx        # 22858 <g_2340+0x8>
   13811:	48 89 08             	mov    %rcx,(%rax)
   13814:	48 89 58 08          	mov    %rbx,0x8(%rax)
   13818:	48 8b 15 41 f0 00 00 	mov    0xf041(%rip),%rdx        # 22860 <g_2340+0x10>
   1381f:	48 89 50 10          	mov    %rdx,0x10(%rax)
   13823:	8b 15 3f f0 00 00    	mov    0xf03f(%rip),%edx        # 22868 <g_2340+0x18>
   13829:	89 50 18             	mov    %edx,0x18(%rax)
   1382c:	48 8b 05 5d 2c 01 00 	mov    0x12c5d(%rip),%rax        # 26490 <g_2235>
   13833:	0f b7 95 f2 f1 ff ff 	movzwl -0xe0e(%rbp),%edx
   1383a:	89 10                	mov    %edx,(%rax)
   1383c:	8b 00                	mov    (%rax),%eax
   1383e:	85 c0                	test   %eax,%eax
   13840:	74 2a                	je     1386c <func_31+0x291d>
   13842:	48 8b 05 47 2c 01 00 	mov    0x12c47(%rip),%rax        # 26490 <g_2235>
   13849:	8b 08                	mov    (%rax),%ecx
   1384b:	0f b7 95 f0 f1 ff ff 	movzwl -0xe10(%rbp),%edx
   13852:	48 8b 05 37 2c 01 00 	mov    0x12c37(%rip),%rax        # 26490 <g_2235>
   13859:	31 ca                	xor    %ecx,%edx
   1385b:	89 10                	mov    %edx,(%rax)
   1385d:	48 8b 05 2c 23 01 00 	mov    0x1232c(%rip),%rax        # 25b90 <g_1441>
   13864:	0f b6 00             	movzbl (%rax),%eax
   13867:	e9 8b 08 00 00       	jmpq   140f7 <func_31+0x31a8>
   1386c:	48 8b 85 b8 f1 ff ff 	mov    -0xe48(%rbp),%rax
   13873:	e9 7f 08 00 00       	jmpq   140f7 <func_31+0x31a8>
   13878:	c7 85 20 f2 ff ff 25 	movl   $0xd09a7c25,-0xde0(%rbp)
   1387f:	7c 9a d0 
   13882:	48 c7 85 40 f3 ff ff 	movq   $0x0,-0xcc0(%rbp)
   13889:	00 00 00 00 
   1388d:	48 8d 05 0c 33 01 00 	lea    0x1330c(%rip),%rax        # 26ba0 <g_1129>
   13894:	48 89 85 48 f3 ff ff 	mov    %rax,-0xcb8(%rbp)
   1389b:	48 8d 05 b2 e8 00 00 	lea    0xe8b2(%rip),%rax        # 22154 <g_65>
   138a2:	48 89 85 50 f3 ff ff 	mov    %rax,-0xcb0(%rbp)
   138a9:	48 8d 85 c0 f5 ff ff 	lea    -0xa40(%rbp),%rax
   138b0:	48 83 c0 08          	add    $0x8,%rax
   138b4:	48 89 85 58 f3 ff ff 	mov    %rax,-0xca8(%rbp)
   138bb:	48 8d 85 a8 f2 ff ff 	lea    -0xd58(%rbp),%rax
   138c2:	48 89 85 60 f3 ff ff 	mov    %rax,-0xca0(%rbp)
   138c9:	48 8d 05 88 ec 00 00 	lea    0xec88(%rip),%rax        # 22558 <g_426+0x18>
   138d0:	48 89 85 68 f3 ff ff 	mov    %rax,-0xc98(%rbp)
   138d7:	48 8d 05 76 e8 00 00 	lea    0xe876(%rip),%rax        # 22154 <g_65>
   138de:	48 89 85 70 f3 ff ff 	mov    %rax,-0xc90(%rbp)
   138e5:	48 8d 05 bc e7 00 00 	lea    0xe7bc(%rip),%rax        # 220a8 <g_2+0x68>
   138ec:	48 89 85 78 f3 ff ff 	mov    %rax,-0xc88(%rbp)
   138f3:	48 8d 85 a8 f2 ff ff 	lea    -0xd58(%rbp),%rax
   138fa:	48 89 85 80 f3 ff ff 	mov    %rax,-0xc80(%rbp)
   13901:	48 c7 85 88 f3 ff ff 	movq   $0x0,-0xc78(%rbp)
   13908:	00 00 00 00 
   1390c:	48 8d 05 8d 32 01 00 	lea    0x1328d(%rip),%rax        # 26ba0 <g_1129>
   13913:	48 89 85 90 f3 ff ff 	mov    %rax,-0xc70(%rbp)
   1391a:	48 8d 85 b0 f2 ff ff 	lea    -0xd50(%rbp),%rax
   13921:	48 89 85 98 f3 ff ff 	mov    %rax,-0xc68(%rbp)
   13928:	48 8d 05 79 e7 00 00 	lea    0xe779(%rip),%rax        # 220a8 <g_2+0x68>
   1392f:	48 89 85 a0 f3 ff ff 	mov    %rax,-0xc60(%rbp)
   13936:	48 8d 85 b0 f2 ff ff 	lea    -0xd50(%rbp),%rax
   1393d:	48 89 85 a8 f3 ff ff 	mov    %rax,-0xc58(%rbp)
   13944:	48 c7 85 b0 f3 ff ff 	movq   $0x0,-0xc50(%rbp)
   1394b:	00 00 00 00 
   1394f:	48 8d 85 a8 f2 ff ff 	lea    -0xd58(%rbp),%rax
   13956:	48 89 85 b8 f3 ff ff 	mov    %rax,-0xc48(%rbp)
   1395d:	48 8d 05 28 e7 00 00 	lea    0xe728(%rip),%rax        # 2208c <g_2+0x4c>
   13964:	48 89 85 c0 f3 ff ff 	mov    %rax,-0xc40(%rbp)
   1396b:	c7 85 24 f2 ff ff 00 	movl   $0x0,-0xddc(%rbp)
   13972:	00 00 00 
   13975:	eb 1b                	jmp    13992 <func_31+0x2a43>
   13977:	8b 85 24 f2 ff ff    	mov    -0xddc(%rbp),%eax
   1397d:	48 98                	cltq   
   1397f:	48 c7 84 c5 50 f9 ff 	movq   $0x0,-0x6b0(%rbp,%rax,8)
   13986:	ff 00 00 00 00 
   1398b:	83 85 24 f2 ff ff 01 	addl   $0x1,-0xddc(%rbp)
   13992:	83 bd 24 f2 ff ff 06 	cmpl   $0x6,-0xddc(%rbp)
   13999:	7e dc                	jle    13977 <func_31+0x2a28>
   1399b:	66 c7 85 ee f1 ff ff 	movw   $0x0,-0xe12(%rbp)
   139a2:	00 00 
   139a4:	e9 93 00 00 00       	jmpq   13a3c <func_31+0x2aed>
   139a9:	48 8d 05 e8 0d 01 00 	lea    0x10de8(%rip),%rax        # 24798 <g_155>
   139b0:	48 89 85 c0 f2 ff ff 	mov    %rax,-0xd40(%rbp)
   139b7:	48 8d 85 c0 f2 ff ff 	lea    -0xd40(%rbp),%rax
   139be:	48 89 85 c8 f3 ff ff 	mov    %rax,-0xc38(%rbp)
   139c5:	83 85 20 f2 ff ff 01 	addl   $0x1,-0xde0(%rbp)
   139cc:	48 8b 05 bd 21 01 00 	mov    0x121bd(%rip),%rax        # 25b90 <g_1441>
   139d3:	0f b6 00             	movzbl (%rax),%eax
   139d6:	0f be d0             	movsbl %al,%edx
   139d9:	48 8b 05 c0 0d 01 00 	mov    0x10dc0(%rip),%rax        # 247a0 <g_154>
   139e0:	48 8b 00             	mov    (%rax),%rax
   139e3:	48 8b 00             	mov    (%rax),%rax
   139e6:	0f b6 00             	movzbl (%rax),%eax
   139e9:	0f b6 c0             	movzbl %al,%eax
   139ec:	89 d6                	mov    %edx,%esi
   139ee:	89 c7                	mov    %eax,%edi
   139f0:	e8 10 72 ff ff       	callq  ac05 <safe_lshift_func_uint8_t_u_s>
   139f5:	84 c0                	test   %al,%al
   139f7:	0f 94 c0             	sete   %al
   139fa:	0f b6 c8             	movzbl %al,%ecx
   139fd:	48 8b 05 8c 2a 01 00 	mov    0x12a8c(%rip),%rax        # 26490 <g_2235>
   13a04:	8b 10                	mov    (%rax),%edx
   13a06:	48 8b 05 83 2a 01 00 	mov    0x12a83(%rip),%rax        # 26490 <g_2235>
   13a0d:	09 ca                	or     %ecx,%edx
   13a0f:	89 10                	mov    %edx,(%rax)
   13a11:	48 8b 05 70 2a 01 00 	mov    0x12a70(%rip),%rax        # 26488 <g_2114>
   13a18:	48 8d 95 dc f1 ff ff 	lea    -0xe24(%rbp),%rdx
   13a1f:	48 89 10             	mov    %rdx,(%rax)
   13a22:	0f b7 85 ee f1 ff ff 	movzwl -0xe12(%rbp),%eax
   13a29:	be 07 00 00 00       	mov    $0x7,%esi
   13a2e:	89 c7                	mov    %eax,%edi
   13a30:	e8 83 74 ff ff       	callq  aeb8 <safe_add_func_uint32_t_u_u>
   13a35:	66 89 85 ee f1 ff ff 	mov    %ax,-0xe12(%rbp)
   13a3c:	66 83 bd ee f1 ff ff 	cmpw   $0x24,-0xe12(%rbp)
   13a43:	24 
   13a44:	0f 87 5f ff ff ff    	ja     139a9 <func_31+0x2a5a>
   13a4a:	8b 05 98 31 01 00    	mov    0x13198(%rip),%eax        # 26be8 <g_2371>
   13a50:	83 c0 01             	add    $0x1,%eax
   13a53:	89 05 8f 31 01 00    	mov    %eax,0x1318f(%rip)        # 26be8 <g_2371>
   13a59:	0f b7 05 84 eb 00 00 	movzwl 0xeb84(%rip),%eax        # 225e4 <g_1055+0x14>
   13a60:	0f b6 c0             	movzbl %al,%eax
   13a63:	be 01 00 00 00       	mov    $0x1,%esi
   13a68:	89 c7                	mov    %eax,%edi
   13a6a:	e8 eb 70 ff ff       	callq  ab5a <safe_add_func_uint8_t_u_u>
   13a6f:	0f b6 c0             	movzbl %al,%eax
   13a72:	66 89 05 6b eb 00 00 	mov    %ax,0xeb6b(%rip)        # 225e4 <g_1055+0x14>
   13a79:	0f b7 05 64 eb 00 00 	movzwl 0xeb64(%rip),%eax        # 225e4 <g_1055+0x14>
   13a80:	66 83 f8 30          	cmp    $0x30,%ax
   13a84:	0f 87 f1 fa ff ff    	ja     1357b <func_31+0x262c>
   13a8a:	be 05 00 00 00       	mov    $0x5,%esi
   13a8f:	bf 8d ff ff ff       	mov    $0xffffff8d,%edi
   13a94:	e8 55 68 ff ff       	callq  a2ee <safe_lshift_func_int8_t_s_u>
   13a99:	84 c0                	test   %al,%al
   13a9b:	74 12                	je     13aaf <func_31+0x2b60>
   13a9d:	48 8b 05 a4 1d 01 00 	mov    0x11da4(%rip),%rax        # 25848 <g_635>
   13aa4:	48 8b 00             	mov    (%rax),%rax
   13aa7:	0f b7 00             	movzwl (%rax),%eax
   13aaa:	66 85 c0             	test   %ax,%ax
   13aad:	75 08                	jne    13ab7 <func_31+0x2b68>
   13aaf:	8b 85 dc f1 ff ff    	mov    -0xe24(%rbp),%eax
   13ab5:	85 c0                	test   %eax,%eax
   13ab7:	90                   	nop
   13ab8:	be 00 00 00 00       	mov    $0x0,%esi
   13abd:	bf fe ff ff ff       	mov    $0xfffffffe,%edi
   13ac2:	e8 9c 6a ff ff       	callq  a563 <safe_rshift_func_int16_t_s_u>
   13ac7:	66 85 c0             	test   %ax,%ax
   13aca:	75 08                	jne    13ad4 <func_31+0x2b85>
   13acc:	48 83 bd c8 f1 ff ff 	cmpq   $0x0,-0xe38(%rbp)
   13ad3:	00 
   13ad4:	48 83 bd 30 f3 ff ff 	cmpq   $0x0,-0xcd0(%rbp)
   13adb:	00 
   13adc:	0f 95 c0             	setne  %al
   13adf:	0f b6 c0             	movzbl %al,%eax
   13ae2:	39 85 40 f2 ff ff    	cmp    %eax,-0xdc0(%rbp)
   13ae8:	0f 9f c0             	setg   %al
   13aeb:	0f b6 c8             	movzbl %al,%ecx
   13aee:	48 8d 05 8b 20 01 00 	lea    0x1208b(%rip),%rax        # 25b80 <g_1193>
   13af5:	48 39 85 38 f3 ff ff 	cmp    %rax,-0xcc8(%rbp)
   13afc:	0f 95 c2             	setne  %dl
   13aff:	48 8b 05 5a 1d 01 00 	mov    0x11d5a(%rip),%rax        # 25860 <g_706>
   13b06:	0f b6 d2             	movzbl %dl,%edx
   13b09:	66 89 10             	mov    %dx,(%rax)
   13b0c:	0f b7 00             	movzwl (%rax),%eax
   13b0f:	0f b7 c0             	movzwl %ax,%eax
   13b12:	31 c8                	xor    %ecx,%eax
   13b14:	3d f5 25 83 27       	cmp    $0x278325f5,%eax
   13b19:	0f 94 c0             	sete   %al
   13b1c:	0f b6 c0             	movzbl %al,%eax
   13b1f:	ba e9 0d 50 8d       	mov    $0x8d500de9,%edx
   13b24:	39 d0                	cmp    %edx,%eax
   13b26:	0f 95 c0             	setne  %al
   13b29:	0f b6 c0             	movzbl %al,%eax
   13b2c:	f7 d0                	not    %eax
   13b2e:	0f b7 c0             	movzwl %ax,%eax
   13b31:	be 0b 00 00 00       	mov    $0xb,%esi
   13b36:	89 c7                	mov    %eax,%edi
   13b38:	e8 3d 73 ff ff       	callq  ae7a <safe_rshift_func_uint16_t_u_u>
   13b3d:	66 85 c0             	test   %ax,%ax
   13b40:	75 0a                	jne    13b4c <func_31+0x2bfd>
   13b42:	8b 85 dc f1 ff ff    	mov    -0xe24(%rbp),%eax
   13b48:	85 c0                	test   %eax,%eax
   13b4a:	74 07                	je     13b53 <func_31+0x2c04>
   13b4c:	b8 01 00 00 00       	mov    $0x1,%eax
   13b51:	eb 05                	jmp    13b58 <func_31+0x2c09>
   13b53:	b8 00 00 00 00       	mov    $0x0,%eax
   13b58:	0f b7 c0             	movzwl %ax,%eax
   13b5b:	48 8b 1d de 1c 01 00 	mov    0x11cde(%rip),%rbx        # 25840 <g_579>
   13b62:	89 c7                	mov    %eax,%edi
   13b64:	e8 25 5e 00 00       	callq  1998e <func_60>
   13b69:	48 89 03             	mov    %rax,(%rbx)
   13b6c:	48 8b 03             	mov    (%rbx),%rax
   13b6f:	48 85 c0             	test   %rax,%rax
   13b72:	0f 95 c0             	setne  %al
   13b75:	0f b6 c8             	movzbl %al,%ecx
   13b78:	48 8b 05 11 29 01 00 	mov    0x12911(%rip),%rax        # 26490 <g_2235>
   13b7f:	8b 10                	mov    (%rax),%edx
   13b81:	48 8b 05 08 29 01 00 	mov    0x12908(%rip),%rax        # 26490 <g_2235>
   13b88:	09 ca                	or     %ecx,%edx
   13b8a:	89 10                	mov    %edx,(%rax)
   13b8c:	8b 05 3e ea 00 00    	mov    0xea3e(%rip),%eax        # 225d0 <g_1055>
   13b92:	83 c0 01             	add    $0x1,%eax
   13b95:	89 05 35 ea 00 00    	mov    %eax,0xea35(%rip)        # 225d0 <g_1055>
   13b9b:	8b 05 2f ea 00 00    	mov    0xea2f(%rip),%eax        # 225d0 <g_1055>
   13ba1:	83 f8 18             	cmp    $0x18,%eax
   13ba4:	0f 8f 5c f8 ff ff    	jg     13406 <func_31+0x24b7>
   13baa:	8b 85 dc f1 ff ff    	mov    -0xe24(%rbp),%eax
   13bb0:	0f b7 c0             	movzwl %ax,%eax
   13bb3:	89 c7                	mov    %eax,%edi
   13bb5:	e8 d4 5d 00 00       	callq  1998e <func_60>
   13bba:	48 8b 95 18 f3 ff ff 	mov    -0xce8(%rbp),%rdx
   13bc1:	48 89 02             	mov    %rax,(%rdx)
   13bc4:	e9 24 05 00 00       	jmpq   140ed <func_31+0x319e>
   13bc9:	48 c7 85 50 f9 ff ff 	movq   $0xfffffffffffffff8,-0x6b0(%rbp)
   13bd0:	f8 ff ff ff 
   13bd4:	48 c7 85 58 f9 ff ff 	movq   $0x1,-0x6a8(%rbp)
   13bdb:	01 00 00 00 
   13bdf:	48 c7 85 60 f9 ff ff 	movq   $0x1,-0x6a0(%rbp)
   13be6:	01 00 00 00 
   13bea:	48 c7 85 68 f9 ff ff 	movq   $0xfffffffffffffff8,-0x698(%rbp)
   13bf1:	f8 ff ff ff 
   13bf5:	48 c7 85 70 f9 ff ff 	movq   $0x1,-0x690(%rbp)
   13bfc:	01 00 00 00 
   13c00:	48 c7 85 78 f9 ff ff 	movq   $0x1,-0x688(%rbp)
   13c07:	01 00 00 00 
   13c0b:	48 c7 85 80 f9 ff ff 	movq   $0xfffffffffffffff8,-0x680(%rbp)
   13c12:	f8 ff ff ff 
   13c16:	48 8d 05 73 1f 01 00 	lea    0x11f73(%rip),%rax        # 25b90 <g_1441>
   13c1d:	48 89 85 f0 f2 ff ff 	mov    %rax,-0xd10(%rbp)
   13c24:	c6 85 e7 f1 ff ff 13 	movb   $0x13,-0xe19(%rbp)
   13c2b:	48 8d 05 56 2f 01 00 	lea    0x12f56(%rip),%rax        # 26b88 <g_744>
   13c32:	48 89 85 b0 f2 ff ff 	mov    %rax,-0xd50(%rbp)
   13c39:	c7 85 34 f2 ff ff 01 	movl   $0x1,-0xdcc(%rbp)
   13c40:	00 00 00 
   13c43:	c7 05 23 e9 00 00 e8 	movl   $0xffffffe8,0xe923(%rip)        # 22570 <g_428>
   13c4a:	ff ff ff 
   13c4d:	e9 fe 01 00 00       	jmpq   13e50 <func_31+0x2f01>
   13c52:	c7 85 3c f2 ff ff 8e 	movl   $0xde01ab8e,-0xdc4(%rbp)
   13c59:	ab 01 de 
   13c5c:	66 c7 05 6f e9 00 00 	movw   $0x0,0xe96f(%rip)        # 225d4 <g_1055+0x4>
   13c63:	00 00 
   13c65:	90                   	nop
   13c66:	0f b7 05 67 e9 00 00 	movzwl 0xe967(%rip),%eax        # 225d4 <g_1055+0x4>
   13c6d:	66 83 f8 33          	cmp    $0x33,%ax
   13c71:	75 0b                	jne    13c7e <func_31+0x2d2f>
   13c73:	8b 85 dc f1 ff ff    	mov    -0xe24(%rbp),%eax
   13c79:	e9 79 04 00 00       	jmpq   140f7 <func_31+0x31a8>
   13c7e:	48 8b 85 c0 f1 ff ff 	mov    -0xe40(%rbp),%rax
   13c85:	0f b6 00             	movzbl (%rax),%eax
   13c88:	0f b6 c0             	movzbl %al,%eax
   13c8b:	48 89 85 50 f9 ff ff 	mov    %rax,-0x6b0(%rbp)
   13c92:	48 8b 85 50 f9 ff ff 	mov    -0x6b0(%rbp),%rax
   13c99:	0f b6 c0             	movzbl %al,%eax
   13c9c:	be d6 00 00 00       	mov    $0xd6,%esi
   13ca1:	89 c7                	mov    %eax,%edi
   13ca3:	e8 eb 6e ff ff       	callq  ab93 <safe_mul_func_uint8_t_u_u>
   13ca8:	84 c0                	test   %al,%al
   13caa:	74 3b                	je     13ce7 <func_31+0x2d98>
   13cac:	48 b8 9e 21 62 0e f8 	movabs $0x42762cf80e62219e,%rax
   13cb3:	2c 76 42 
   13cb6:	48 89 85 10 f3 ff ff 	mov    %rax,-0xcf0(%rbp)
   13cbd:	48 8b 85 10 f3 ff ff 	mov    -0xcf0(%rbp),%rax
   13cc4:	0f b7 c0             	movzwl %ax,%eax
   13cc7:	48 8b 1d d2 1e 01 00 	mov    0x11ed2(%rip),%rbx        # 25ba0 <g_1612>
   13cce:	89 c7                	mov    %eax,%edi
   13cd0:	e8 b9 5c 00 00       	callq  1998e <func_60>
   13cd5:	48 89 03             	mov    %rax,(%rbx)
   13cd8:	c7 85 3c f2 ff ff 07 	movl   $0x7,-0xdc4(%rbp)
   13cdf:	00 00 00 
   13ce2:	e9 f4 00 00 00       	jmpq   13ddb <func_31+0x2e8c>
   13ce7:	0f b7 9d f0 f1 ff ff 	movzwl -0xe10(%rbp),%ebx
   13cee:	48 8b 05 6b 1b 01 00 	mov    0x11b6b(%rip),%rax        # 25860 <g_706>
   13cf5:	0f b7 00             	movzwl (%rax),%eax
   13cf8:	0f b7 d0             	movzwl %ax,%edx
   13cfb:	48 8b 85 f0 f2 ff ff 	mov    -0xd10(%rbp),%rax
   13d02:	48 89 05 8f 27 01 00 	mov    %rax,0x1278f(%rip)        # 26498 <g_2402>
   13d09:	48 8b 05 88 27 01 00 	mov    0x12788(%rip),%rax        # 26498 <g_2402>
   13d10:	48 85 c0             	test   %rax,%rax
   13d13:	0f 94 c0             	sete   %al
   13d16:	0f b6 c0             	movzbl %al,%eax
   13d19:	89 d6                	mov    %edx,%esi
   13d1b:	89 c7                	mov    %eax,%edi
   13d1d:	e8 41 68 ff ff       	callq  a563 <safe_rshift_func_int16_t_s_u>
   13d22:	48 8b 05 37 1b 01 00 	mov    0x11b37(%rip),%rax        # 25860 <g_706>
   13d29:	0f b7 00             	movzwl (%rax),%eax
   13d2c:	0f b7 d0             	movzwl %ax,%edx
   13d2f:	48 8b 05 12 1b 01 00 	mov    0x11b12(%rip),%rax        # 25848 <g_635>
   13d36:	48 8b 00             	mov    (%rax),%rax
   13d39:	0f b7 00             	movzwl (%rax),%eax
   13d3c:	98                   	cwtl   
   13d3d:	39 c2                	cmp    %eax,%edx
   13d3f:	0f b7 05 44 eb 00 00 	movzwl 0xeb44(%rip),%eax        # 2288a <g_2406+0xa>
   13d46:	44 0f b7 e0          	movzwl %ax,%r12d
   13d4a:	bf f6 ff ff ff       	mov    $0xfffffff6,%edi
   13d4f:	e8 52 71 ff ff       	callq  aea6 <safe_unary_minus_func_uint32_t_u>
   13d54:	85 c0                	test   %eax,%eax
   13d56:	74 10                	je     13d68 <func_31+0x2e19>
   13d58:	83 bd 3c f2 ff ff 00 	cmpl   $0x0,-0xdc4(%rbp)
   13d5f:	74 07                	je     13d68 <func_31+0x2e19>
   13d61:	b8 01 00 00 00       	mov    $0x1,%eax
   13d66:	eb 05                	jmp    13d6d <func_31+0x2e1e>
   13d68:	b8 00 00 00 00       	mov    $0x0,%eax
   13d6d:	0f b7 c0             	movzwl %ax,%eax
   13d70:	44 89 e6             	mov    %r12d,%esi
   13d73:	89 c7                	mov    %eax,%edi
   13d75:	e8 44 70 ff ff       	callq  adbe <safe_lshift_func_uint16_t_u_s>
   13d7a:	89 c2                	mov    %eax,%edx
   13d7c:	48 8b 85 c0 f1 ff ff 	mov    -0xe40(%rbp),%rax
   13d83:	0f b6 00             	movzbl (%rax),%eax
   13d86:	21 d0                	and    %edx,%eax
   13d88:	89 c1                	mov    %eax,%ecx
   13d8a:	8b 85 dc f1 ff ff    	mov    -0xe24(%rbp),%eax
   13d90:	89 c2                	mov    %eax,%edx
   13d92:	48 8b 05 f7 1d 01 00 	mov    0x11df7(%rip),%rax        # 25b90 <g_1441>
   13d99:	21 ca                	and    %ecx,%edx
   13d9b:	88 10                	mov    %dl,(%rax)
   13d9d:	0f b6 00             	movzbl (%rax),%eax
   13da0:	83 c8 75             	or     $0x75,%eax
   13da3:	48 0f be c0          	movsbq %al,%rax
   13da7:	48 c7 c6 ff ff ff ff 	mov    $0xffffffffffffffff,%rsi
   13dae:	48 89 c7             	mov    %rax,%rdi
   13db1:	e8 ca 72 ff ff       	callq  b080 <safe_mod_func_uint64_t_u_u>
   13db6:	0f b6 c0             	movzbl %al,%eax
   13db9:	89 de                	mov    %ebx,%esi
   13dbb:	89 c7                	mov    %eax,%edi
   13dbd:	e8 fc 6e ff ff       	callq  acbe <safe_rshift_func_uint8_t_u_u>
   13dc2:	b9 01 00 00 00       	mov    $0x1,%ecx
   13dc7:	48 8b 05 c2 26 01 00 	mov    0x126c2(%rip),%rax        # 26490 <g_2235>
   13dce:	8b 10                	mov    (%rax),%edx
   13dd0:	48 8b 05 b9 26 01 00 	mov    0x126b9(%rip),%rax        # 26490 <g_2235>
   13dd7:	31 ca                	xor    %ecx,%edx
   13dd9:	89 10                	mov    %edx,(%rax)
   13ddb:	c7 05 0b ea 00 00 00 	movl   $0x0,0xea0b(%rip)        # 227f0 <g_2237>
   13de2:	00 00 00 
   13de5:	eb 46                	jmp    13e2d <func_31+0x2ede>
   13de7:	c7 05 97 e7 00 00 00 	movl   $0x0,0xe797(%rip)        # 22588 <g_428+0x18>
   13dee:	00 00 00 
   13df1:	eb 20                	jmp    13e13 <func_31+0x2ec4>
   13df3:	48 8b 05 8e 1d 01 00 	mov    0x11d8e(%rip),%rax        # 25b88 <g_1348>
   13dfa:	48 8d 95 d0 f1 ff ff 	lea    -0xe30(%rbp),%rdx
   13e01:	48 89 10             	mov    %rdx,(%rax)
   13e04:	8b 05 7e e7 00 00    	mov    0xe77e(%rip),%eax        # 22588 <g_428+0x18>
   13e0a:	83 c0 01             	add    $0x1,%eax
   13e0d:	89 05 75 e7 00 00    	mov    %eax,0xe775(%rip)        # 22588 <g_428+0x18>
   13e13:	8b 05 6f e7 00 00    	mov    0xe76f(%rip),%eax        # 22588 <g_428+0x18>
   13e19:	83 f8 06             	cmp    $0x6,%eax
   13e1c:	76 d5                	jbe    13df3 <func_31+0x2ea4>
   13e1e:	8b 05 cc e9 00 00    	mov    0xe9cc(%rip),%eax        # 227f0 <g_2237>
   13e24:	83 c0 01             	add    $0x1,%eax
   13e27:	89 05 c3 e9 00 00    	mov    %eax,0xe9c3(%rip)        # 227f0 <g_2237>
   13e2d:	8b 05 bd e9 00 00    	mov    0xe9bd(%rip),%eax        # 227f0 <g_2237>
   13e33:	83 f8 16             	cmp    $0x16,%eax
   13e36:	75 af                	jne    13de7 <func_31+0x2e98>
   13e38:	8b 05 32 e7 00 00    	mov    0xe732(%rip),%eax        # 22570 <g_428>
   13e3e:	be 05 00 00 00       	mov    $0x5,%esi
   13e43:	89 c7                	mov    %eax,%edi
   13e45:	e8 6e 70 ff ff       	callq  aeb8 <safe_add_func_uint32_t_u_u>
   13e4a:	89 05 20 e7 00 00    	mov    %eax,0xe720(%rip)        # 22570 <g_428>
   13e50:	8b 05 1a e7 00 00    	mov    0xe71a(%rip),%eax        # 22570 <g_428>
   13e56:	83 f8 1a             	cmp    $0x1a,%eax
   13e59:	0f 85 f3 fd ff ff    	jne    13c52 <func_31+0x2d03>
   13e5f:	c7 05 bf e5 00 00 00 	movl   $0x0,0xe5bf(%rip)        # 22428 <g_248+0x8>
   13e66:	00 00 00 
   13e69:	e9 60 01 00 00       	jmpq   13fce <func_31+0x307f>
   13e6e:	48 c7 85 b8 f2 ff ff 	movq   $0x0,-0xd48(%rbp)
   13e75:	00 00 00 00 
   13e79:	48 8d 85 b8 f2 ff ff 	lea    -0xd48(%rbp),%rax
   13e80:	48 89 85 d0 fb ff ff 	mov    %rax,-0x430(%rbp)
   13e87:	48 8d 85 b8 f2 ff ff 	lea    -0xd48(%rbp),%rax
   13e8e:	48 89 85 d8 fb ff ff 	mov    %rax,-0x428(%rbp)
   13e95:	48 8d 85 b8 f2 ff ff 	lea    -0xd48(%rbp),%rax
   13e9c:	48 89 85 e0 fb ff ff 	mov    %rax,-0x420(%rbp)
   13ea3:	48 8d 85 b8 f2 ff ff 	lea    -0xd48(%rbp),%rax
   13eaa:	48 89 85 e8 fb ff ff 	mov    %rax,-0x418(%rbp)
   13eb1:	48 8d 85 b8 f2 ff ff 	lea    -0xd48(%rbp),%rax
   13eb8:	48 89 85 f0 fb ff ff 	mov    %rax,-0x410(%rbp)
   13ebf:	48 8d 85 b8 f2 ff ff 	lea    -0xd48(%rbp),%rax
   13ec6:	48 89 85 f8 fb ff ff 	mov    %rax,-0x408(%rbp)
   13ecd:	48 8d 85 b8 f2 ff ff 	lea    -0xd48(%rbp),%rax
   13ed4:	48 89 85 00 fc ff ff 	mov    %rax,-0x400(%rbp)
   13edb:	48 8d 85 b8 f2 ff ff 	lea    -0xd48(%rbp),%rax
   13ee2:	48 89 85 08 fc ff ff 	mov    %rax,-0x3f8(%rbp)
   13ee9:	48 8d 05 c0 25 01 00 	lea    0x125c0(%rip),%rax        # 264b0 <g_2421>
   13ef0:	48 89 85 f8 f2 ff ff 	mov    %rax,-0xd08(%rbp)
   13ef7:	48 8d 05 9a 08 01 00 	lea    0x1089a(%rip),%rax        # 24798 <g_155>
   13efe:	48 89 85 c0 f2 ff ff 	mov    %rax,-0xd40(%rbp)
   13f05:	48 8d 85 c0 f2 ff ff 	lea    -0xd40(%rbp),%rax
   13f0c:	48 89 85 00 f3 ff ff 	mov    %rax,-0xd00(%rbp)
   13f13:	c7 85 38 f2 ff ff ff 	movl   $0xffffffff,-0xdc8(%rbp)
   13f1a:	ff ff ff 
   13f1d:	48 8d 85 b0 f2 ff ff 	lea    -0xd50(%rbp),%rax
   13f24:	48 89 85 08 f3 ff ff 	mov    %rax,-0xcf8(%rbp)
   13f2b:	48 c7 05 72 25 01 00 	movq   $0x0,0x12572(%rip)        # 264a8 <g_2416>
   13f32:	00 00 00 00 
   13f36:	48 8b 15 73 25 01 00 	mov    0x12573(%rip),%rdx        # 264b0 <g_2421>
   13f3d:	48 8b 85 f8 f2 ff ff 	mov    -0xd08(%rbp),%rax
   13f44:	48 89 10             	mov    %rdx,(%rax)
   13f47:	48 8b 85 00 f3 ff ff 	mov    -0xd00(%rbp),%rax
   13f4e:	48 8d 15 43 08 01 00 	lea    0x10843(%rip),%rdx        # 24798 <g_155>
   13f55:	48 89 10             	mov    %rdx,(%rax)
   13f58:	83 bd 38 f2 ff ff 01 	cmpl   $0x1,-0xdc8(%rbp)
   13f5f:	0f 95 c0             	setne  %al
   13f62:	0f b6 d0             	movzbl %al,%edx
   13f65:	48 8b 05 bc 0f 01 00 	mov    0x10fbc(%rip),%rax        # 24f28 <g_207>
   13f6c:	0f b7 00             	movzwl (%rax),%eax
   13f6f:	89 c1                	mov    %eax,%ecx
   13f71:	48 8b 85 c8 f1 ff ff 	mov    -0xe38(%rbp),%rax
   13f78:	21 c1                	and    %eax,%ecx
   13f7a:	48 8b 05 a7 0f 01 00 	mov    0x10fa7(%rip),%rax        # 24f28 <g_207>
   13f81:	66 89 08             	mov    %cx,(%rax)
   13f84:	0f b7 00             	movzwl (%rax),%eax
   13f87:	98                   	cwtl   
   13f88:	89 d6                	mov    %edx,%esi
   13f8a:	89 c7                	mov    %eax,%edi
   13f8c:	e8 64 64 ff ff       	callq  a3f5 <safe_mul_func_int16_t_s_s>
   13f91:	0f bf d0             	movswl %ax,%edx
   13f94:	0f b7 85 ee f1 ff ff 	movzwl -0xe12(%rbp),%eax
   13f9b:	39 c2                	cmp    %eax,%edx
   13f9d:	48 8b 05 b4 1c 01 00 	mov    0x11cb4(%rip),%rax        # 25c58 <g_1826>
   13fa4:	48 8b 00             	mov    (%rax),%rax
   13fa7:	48 89 85 d0 f1 ff ff 	mov    %rax,-0xe30(%rbp)
   13fae:	48 8b 95 b0 f2 ff ff 	mov    -0xd50(%rbp),%rdx
   13fb5:	48 8b 85 08 f3 ff ff 	mov    -0xcf8(%rbp),%rax
   13fbc:	48 89 10             	mov    %rdx,(%rax)
   13fbf:	8b 05 63 e4 00 00    	mov    0xe463(%rip),%eax        # 22428 <g_248+0x8>
   13fc5:	83 e8 01             	sub    $0x1,%eax
   13fc8:	89 05 5a e4 00 00    	mov    %eax,0xe45a(%rip)        # 22428 <g_248+0x8>
   13fce:	8b 05 54 e4 00 00    	mov    0xe454(%rip),%eax        # 22428 <g_248+0x8>
   13fd4:	83 f8 fa             	cmp    $0xfffffffa,%eax
   13fd7:	0f 8c 91 fe ff ff    	jl     13e6e <func_31+0x2f1f>
   13fdd:	48 8b 05 7c 18 01 00 	mov    0x1187c(%rip),%rax        # 25860 <g_706>
   13fe4:	0f b7 18             	movzwl (%rax),%ebx
   13fe7:	0f b7 85 f0 f1 ff ff 	movzwl -0xe10(%rbp),%eax
   13fee:	98                   	cwtl   
   13fef:	89 c6                	mov    %eax,%esi
   13ff1:	bf 09 00 00 00       	mov    $0x9,%edi
   13ff6:	e8 1b 64 ff ff       	callq  a416 <safe_mod_func_int16_t_s_s>
   13ffb:	48 0f bf c0          	movswq %ax,%rax
   13fff:	48 89 c6             	mov    %rax,%rsi
   14002:	48 bf 59 31 fb af a3 	movabs $0x1446ffa3affb3159,%rdi
   14009:	ff 46 14 
   1400c:	e8 a3 69 ff ff       	callq  a9b4 <safe_mod_func_int64_t_s_s>
   14011:	0f b6 d0             	movzbl %al,%edx
   14014:	48 8b 05 85 24 01 00 	mov    0x12485(%rip),%rax        # 264a0 <g_2417>
   1401b:	48 8b 00             	mov    (%rax),%rax
   1401e:	0f b6 00             	movzbl (%rax),%eax
   14021:	0f b6 c0             	movzbl %al,%eax
   14024:	89 d6                	mov    %edx,%esi
   14026:	89 c7                	mov    %eax,%edi
   14028:	e8 66 6b ff ff       	callq  ab93 <safe_mul_func_uint8_t_u_u>
   1402d:	0f b6 d0             	movzbl %al,%edx
   14030:	48 8b 0d 49 07 01 00 	mov    0x10749(%rip),%rcx        # 24780 <g_54>
   14037:	48 8b 05 52 07 01 00 	mov    0x10752(%rip),%rax        # 24790 <g_150>
   1403e:	0f b6 09             	movzbl (%rcx),%ecx
   14041:	88 08                	mov    %cl,(%rax)
   14043:	0f b6 00             	movzbl (%rax),%eax
   14046:	0f b6 c0             	movzbl %al,%eax
   14049:	89 d6                	mov    %edx,%esi
   1404b:	89 c7                	mov    %eax,%edi
   1404d:	e8 b3 6b ff ff       	callq  ac05 <safe_lshift_func_uint8_t_u_s>
   14052:	0f b6 c0             	movzbl %al,%eax
   14055:	66 39 c3             	cmp    %ax,%bx
   14058:	72 21                	jb     1407b <func_31+0x312c>
   1405a:	48 8b 05 2f 1b 01 00 	mov    0x11b2f(%rip),%rax        # 25b90 <g_1441>
   14061:	0f b6 00             	movzbl (%rax),%eax
   14064:	84 c0                	test   %al,%al
   14066:	75 0c                	jne    14074 <func_31+0x3125>
   14068:	0f b7 85 14 f8 ff ff 	movzwl -0x7ec(%rbp),%eax
   1406f:	66 85 c0             	test   %ax,%ax
   14072:	74 07                	je     1407b <func_31+0x312c>
   14074:	b9 01 00 00 00       	mov    $0x1,%ecx
   14079:	eb 05                	jmp    14080 <func_31+0x3131>
   1407b:	b9 00 00 00 00       	mov    $0x0,%ecx
   14080:	48 8b 05 a1 0e 01 00 	mov    0x10ea1(%rip),%rax        # 24f28 <g_207>
   14087:	0f b7 10             	movzwl (%rax),%edx
   1408a:	48 8b 05 97 0e 01 00 	mov    0x10e97(%rip),%rax        # 24f28 <g_207>
   14091:	09 ca                	or     %ecx,%edx
   14093:	66 89 10             	mov    %dx,(%rax)
   14096:	0f b7 00             	movzwl (%rax),%eax
   14099:	98                   	cwtl   
   1409a:	89 c6                	mov    %eax,%esi
   1409c:	bf af 26 00 00       	mov    $0x26af,%edi
   140a1:	e8 4f 63 ff ff       	callq  a3f5 <safe_mul_func_int16_t_s_s>
   140a6:	be 05 00 00 00       	mov    $0x5,%esi
   140ab:	bf 00 00 00 00       	mov    $0x0,%edi
   140b0:	e8 09 6c ff ff       	callq  acbe <safe_rshift_func_uint8_t_u_u>
   140b5:	48 8b 15 c4 17 01 00 	mov    0x117c4(%rip),%rdx        # 25880 <g_1053>
   140bc:	48 8b 12             	mov    (%rdx),%rdx
   140bf:	0f b6 12             	movzbl (%rdx),%edx
   140c2:	38 d0                	cmp    %dl,%al
   140c4:	0f 95 c0             	setne  %al
   140c7:	0f b6 d0             	movzbl %al,%edx
   140ca:	8b 85 dc f1 ff ff    	mov    -0xe24(%rbp),%eax
   140d0:	39 c2                	cmp    %eax,%edx
   140d2:	0f 95 c0             	setne  %al
   140d5:	0f b6 c0             	movzbl %al,%eax
   140d8:	be 01 00 00 00       	mov    $0x1,%esi
   140dd:	89 c7                	mov    %eax,%edi
   140df:	e8 51 62 ff ff       	callq  a335 <safe_rshift_func_int8_t_s_s>
   140e4:	0f be c0             	movsbl %al,%eax
   140e7:	31 85 34 f2 ff ff    	xor    %eax,-0xdcc(%rbp)
   140ed:	48 8b 05 9c 1a 01 00 	mov    0x11a9c(%rip),%rax        # 25b90 <g_1441>
   140f4:	0f b6 00             	movzbl (%rax),%eax
   140f7:	48 8b 5d c8          	mov    -0x38(%rbp),%rbx
   140fb:	64 48 33 1c 25 28 00 	xor    %fs:0x28,%rbx
   14102:	00 00 
   14104:	74 05                	je     1410b <func_31+0x31bc>
   14106:	e8 65 5f ff ff       	callq  a070 <__stack_chk_fail@plt>
   1410b:	48 81 c4 48 0e 00 00 	add    $0xe48,%rsp
   14112:	5b                   	pop    %rbx
   14113:	41 5c                	pop    %r12
   14115:	41 5d                	pop    %r13
   14117:	41 5e                	pop    %r14
   14119:	41 5f                	pop    %r15
   1411b:	5d                   	pop    %rbp
   1411c:	c3                   	retq   

000000000001411d <func_40>:
   1411d:	f3 0f 1e fa          	endbr64 
   14121:	55                   	push   %rbp
   14122:	48 89 e5             	mov    %rsp,%rbp
   14125:	41 54                	push   %r12
   14127:	53                   	push   %rbx
   14128:	48 81 ec 20 02 00 00 	sub    $0x220,%rsp
   1412f:	48 89 bd f8 fd ff ff 	mov    %rdi,-0x208(%rbp)
   14136:	48 89 b5 f0 fd ff ff 	mov    %rsi,-0x210(%rbp)
   1413d:	64 48 8b 04 25 28 00 	mov    %fs:0x28,%rax
   14144:	00 00 
   14146:	48 89 45 e8          	mov    %rax,-0x18(%rbp)
   1414a:	31 c0                	xor    %eax,%eax
   1414c:	48 b8 51 65 0a c0 e5 	movabs $0x153381e5c00a6551,%rax
   14153:	81 33 15 
   14156:	48 89 85 10 fe ff ff 	mov    %rax,-0x1f0(%rbp)
   1415d:	48 8d 85 20 fe ff ff 	lea    -0x1e0(%rbp),%rax
   14164:	48 8d 15 95 98 00 00 	lea    0x9895(%rip),%rdx        # 1da00 <g_2807+0x350>
   1416b:	b9 38 00 00 00       	mov    $0x38,%ecx
   14170:	48 89 c7             	mov    %rax,%rdi
   14173:	48 89 d6             	mov    %rdx,%rsi
   14176:	f3 48 a5             	rep movsq %ds:(%rsi),%es:(%rdi)
   14179:	48 8d 05 dc e5 00 00 	lea    0xe5dc(%rip),%rax        # 2275c <g_1761>
   14180:	48 89 85 18 fe ff ff 	mov    %rax,-0x1e8(%rbp)
   14187:	c7 85 0c fe ff ff 00 	movl   $0x0,-0x1f4(%rbp)
   1418e:	00 00 00 
   14191:	48 83 b5 10 fe ff ff 	xorq   $0xfffffffffffffffe,-0x1f0(%rbp)
   14198:	fe 
   14199:	48 8b 05 c0 16 01 00 	mov    0x116c0(%rip),%rax        # 25860 <g_706>
   141a0:	0f b7 00             	movzwl (%rax),%eax
   141a3:	0f b7 c0             	movzwl %ax,%eax
   141a6:	48 8b 1d bb 1a 01 00 	mov    0x11abb(%rip),%rbx        # 25c68 <g_2051>
   141ad:	89 c7                	mov    %eax,%edi
   141af:	e8 da 57 00 00       	callq  1998e <func_60>
   141b4:	48 89 03             	mov    %rax,(%rbx)
   141b7:	48 8b 05 d2 e5 00 00 	mov    0xe5d2(%rip),%rax        # 22790 <g_2052>
   141be:	48 8b 15 d3 e5 00 00 	mov    0xe5d3(%rip),%rdx        # 22798 <g_2052+0x8>
   141c5:	48 89 05 e4 e5 00 00 	mov    %rax,0xe5e4(%rip)        # 227b0 <g_2053>
   141cc:	48 89 15 e5 e5 00 00 	mov    %rdx,0xe5e5(%rip)        # 227b8 <g_2053+0x8>
   141d3:	48 8b 05 c6 e5 00 00 	mov    0xe5c6(%rip),%rax        # 227a0 <g_2052+0x10>
   141da:	48 89 05 df e5 00 00 	mov    %rax,0xe5df(%rip)        # 227c0 <g_2053+0x10>
   141e1:	8b 05 c1 e5 00 00    	mov    0xe5c1(%rip),%eax        # 227a8 <g_2052+0x18>
   141e7:	89 05 db e5 00 00    	mov    %eax,0xe5db(%rip)        # 227c8 <g_2053+0x18>
   141ed:	0f b7 05 80 e3 00 00 	movzwl 0xe380(%rip),%eax        # 22574 <g_428+0x4>
   141f4:	0f b7 d8             	movzwl %ax,%ebx
   141f7:	48 8b 85 10 fe ff ff 	mov    -0x1f0(%rbp),%rax
   141fe:	41 89 c4             	mov    %eax,%r12d
   14201:	48 8b 85 10 fe ff ff 	mov    -0x1f0(%rbp),%rax
   14208:	0f bf f8             	movswl %ax,%edi
   1420b:	48 8b 05 86 05 01 00 	mov    0x10586(%rip),%rax        # 24798 <g_155>
   14212:	48 8b 30             	mov    (%rax),%rsi
   14215:	48 8d 85 d0 fd ff ff 	lea    -0x230(%rbp),%rax
   1421c:	48 8b 8d 18 fe ff ff 	mov    -0x1e8(%rbp),%rcx
   14223:	48 8b 55 d8          	mov    -0x28(%rbp),%rdx
   14227:	41 89 f8             	mov    %edi,%r8d
   1422a:	48 89 c7             	mov    %rax,%rdi
   1422d:	e8 0f 53 00 00       	callq  19541 <func_49>
   14232:	48 83 bd 10 fe ff ff 	cmpq   $0x3,-0x1f0(%rbp)
   14239:	03 
   1423a:	0f 9e c0             	setle  %al
   1423d:	0f b6 d0             	movzbl %al,%edx
   14240:	48 8b 45 d8          	mov    -0x28(%rbp),%rax
   14244:	48 39 c2             	cmp    %rax,%rdx
   14247:	48 8b 45 d8          	mov    -0x28(%rbp),%rax
   1424b:	48 89 c6             	mov    %rax,%rsi
   1424e:	48 bf dc 69 f4 71 91 	movabs $0x2b74649171f469dc,%rdi
   14255:	64 74 2b 
   14258:	e8 52 6e ff ff       	callq  b0af <safe_div_func_uint64_t_u_u>
   1425d:	48 3d b8 00 00 00    	cmp    $0xb8,%rax
   14263:	0f 95 c0             	setne  %al
   14266:	0f b6 c0             	movzbl %al,%eax
   14269:	44 89 e6             	mov    %r12d,%esi
   1426c:	89 c7                	mov    %eax,%edi
   1426e:	e8 b2 6c ff ff       	callq  af25 <safe_div_func_uint32_t_u_u>
   14273:	89 c0                	mov    %eax,%eax
   14275:	48 89 de             	mov    %rbx,%rsi
   14278:	48 89 c7             	mov    %rax,%rdi
   1427b:	e8 ae 6d ff ff       	callq  b02e <safe_add_func_uint64_t_u_u>
   14280:	48 83 bd f8 fd ff ff 	cmpq   $0x0,-0x208(%rbp)
   14287:	00 
   14288:	0f 94 c0             	sete   %al
   1428b:	0f b6 d0             	movzbl %al,%edx
   1428e:	48 8b 85 10 fe ff ff 	mov    -0x1f0(%rbp),%rax
   14295:	48 3b 85 f8 fd ff ff 	cmp    -0x208(%rbp),%rax
   1429c:	0f 95 c0             	setne  %al
   1429f:	0f b6 c0             	movzbl %al,%eax
   142a2:	39 c2                	cmp    %eax,%edx
   142a4:	0f 9e c0             	setle  %al
   142a7:	0f b6 c0             	movzbl %al,%eax
   142aa:	89 85 0c fe ff ff    	mov    %eax,-0x1f4(%rbp)
   142b0:	48 8b 05 e9 04 01 00 	mov    0x104e9(%rip),%rax        # 247a0 <g_154>
   142b7:	48 8b 00             	mov    (%rax),%rax
   142ba:	48 8b 00             	mov    (%rax),%rax
   142bd:	48 8b 5d e8          	mov    -0x18(%rbp),%rbx
   142c1:	64 48 33 1c 25 28 00 	xor    %fs:0x28,%rbx
   142c8:	00 00 
   142ca:	74 05                	je     142d1 <func_40+0x1b4>
   142cc:	e8 9f 5d ff ff       	callq  a070 <__stack_chk_fail@plt>
   142d1:	48 81 c4 20 02 00 00 	add    $0x220,%rsp
   142d8:	5b                   	pop    %rbx
   142d9:	41 5c                	pop    %r12
   142db:	5d                   	pop    %rbp
   142dc:	c3                   	retq   

00000000000142dd <func_43>:
   142dd:	f3 0f 1e fa          	endbr64 
   142e1:	55                   	push   %rbp
   142e2:	48 89 e5             	mov    %rsp,%rbp
   142e5:	41 57                	push   %r15
   142e7:	41 56                	push   %r14
   142e9:	41 55                	push   %r13
   142eb:	41 54                	push   %r12
   142ed:	53                   	push   %rbx
   142ee:	48 81 ec 00 10 00 00 	sub    $0x1000,%rsp
   142f5:	48 83 0c 24 00       	orq    $0x0,(%rsp)
   142fa:	48 81 ec 88 0e 00 00 	sub    $0xe88,%rsp
   14301:	89 f8                	mov    %edi,%eax
   14303:	66 89 85 5c e1 ff ff 	mov    %ax,-0x1ea4(%rbp)
   1430a:	64 48 8b 04 25 28 00 	mov    %fs:0x28,%rax
   14311:	00 00 
   14313:	48 89 45 c8          	mov    %rax,-0x38(%rbp)
   14317:	31 c0                	xor    %eax,%eax
   14319:	48 8d 05 b8 de 00 00 	lea    0xdeb8(%rip),%rax        # 221d8 <g_152+0x18>
   14320:	48 89 85 40 e7 ff ff 	mov    %rax,-0x18c0(%rbp)
   14327:	48 8d 05 aa de 00 00 	lea    0xdeaa(%rip),%rax        # 221d8 <g_152+0x18>
   1432e:	48 89 85 48 e7 ff ff 	mov    %rax,-0x18b8(%rbp)
   14335:	48 8d 05 9c de 00 00 	lea    0xde9c(%rip),%rax        # 221d8 <g_152+0x18>
   1433c:	48 89 85 50 e7 ff ff 	mov    %rax,-0x18b0(%rbp)
   14343:	48 8d 05 8e de 00 00 	lea    0xde8e(%rip),%rax        # 221d8 <g_152+0x18>
   1434a:	48 89 85 58 e7 ff ff 	mov    %rax,-0x18a8(%rbp)
   14351:	c7 85 bc e1 ff ff fe 	movl   $0xfffffffe,-0x1e44(%rbp)
   14358:	ff ff ff 
   1435b:	48 8d 05 7e 04 01 00 	lea    0x1047e(%rip),%rax        # 247e0 <g_202+0x20>
   14362:	48 89 85 10 e3 ff ff 	mov    %rax,-0x1cf0(%rbp)
   14369:	48 8d 05 10 28 01 00 	lea    0x12810(%rip),%rax        # 26b80 <g_717>
   14370:	48 89 85 e0 e7 ff ff 	mov    %rax,-0x1820(%rbp)
   14377:	48 8d 05 02 28 01 00 	lea    0x12802(%rip),%rax        # 26b80 <g_717>
   1437e:	48 89 85 e8 e7 ff ff 	mov    %rax,-0x1818(%rbp)
   14385:	48 8d 05 f4 27 01 00 	lea    0x127f4(%rip),%rax        # 26b80 <g_717>
   1438c:	48 89 85 f0 e7 ff ff 	mov    %rax,-0x1810(%rbp)
   14393:	48 8d 05 e6 27 01 00 	lea    0x127e6(%rip),%rax        # 26b80 <g_717>
   1439a:	48 89 85 f8 e7 ff ff 	mov    %rax,-0x1808(%rbp)
   143a1:	48 8d 05 d8 27 01 00 	lea    0x127d8(%rip),%rax        # 26b80 <g_717>
   143a8:	48 89 85 00 e8 ff ff 	mov    %rax,-0x1800(%rbp)
   143af:	48 8d 05 ca 27 01 00 	lea    0x127ca(%rip),%rax        # 26b80 <g_717>
   143b6:	48 89 85 08 e8 ff ff 	mov    %rax,-0x17f8(%rbp)
   143bd:	48 8d 05 bc 27 01 00 	lea    0x127bc(%rip),%rax        # 26b80 <g_717>
   143c4:	48 89 85 10 e8 ff ff 	mov    %rax,-0x17f0(%rbp)
   143cb:	48 8d 05 ae 27 01 00 	lea    0x127ae(%rip),%rax        # 26b80 <g_717>
   143d2:	48 89 85 18 e8 ff ff 	mov    %rax,-0x17e8(%rbp)
   143d9:	c7 85 8c e1 ff ff 00 	movl   $0x0,-0x1e74(%rbp)
   143e0:	00 00 00 
   143e3:	c7 85 b4 e1 ff ff 05 	movl   $0x5,-0x1e4c(%rbp)
   143ea:	00 00 00 
   143ed:	c7 85 90 e1 ff ff 21 	movl   $0x82a5eb21,-0x1e70(%rbp)
   143f4:	eb a5 82 
   143f7:	c7 85 94 e1 ff ff f8 	movl   $0xfffffff8,-0x1e6c(%rbp)
   143fe:	ff ff ff 
   14401:	c7 85 b8 e1 ff ff 1a 	movl   $0x77fe4d1a,-0x1e48(%rbp)
   14408:	4d fe 77 
   1440b:	48 8d 85 40 e7 ff ff 	lea    -0x18c0(%rbp),%rax
   14412:	48 83 c0 10          	add    $0x10,%rax
   14416:	48 89 85 18 e3 ff ff 	mov    %rax,-0x1ce8(%rbp)
   1441d:	48 c7 85 90 e3 ff ff 	movq   $0x0,-0x1c70(%rbp)
   14424:	00 00 00 00 
   14428:	48 8d 05 01 e2 00 00 	lea    0xe201(%rip),%rax        # 22630 <g_1365>
   1442f:	48 89 85 98 e3 ff ff 	mov    %rax,-0x1c68(%rbp)
   14436:	c7 85 98 e1 ff ff 00 	movl   $0x0,-0x1e68(%rbp)
   1443d:	00 00 00 
   14440:	48 8d 05 f9 e0 00 00 	lea    0xe0f9(%rip),%rax        # 22540 <g_426>
   14447:	48 89 85 20 e3 ff ff 	mov    %rax,-0x1ce0(%rbp)
   1444e:	48 8d 85 98 e1 ff ff 	lea    -0x1e68(%rbp),%rax
   14455:	48 89 85 28 e3 ff ff 	mov    %rax,-0x1cd8(%rbp)
   1445c:	c6 85 70 e1 ff ff a0 	movb   $0xa0,-0x1e90(%rbp)
   14463:	48 c7 85 30 e3 ff ff 	movq   $0x1,-0x1cd0(%rbp)
   1446a:	01 00 00 00 
   1446e:	48 b8 2c 6e 83 a3 0a 	movabs $0x2eaf2b0aa3836e2c,%rax
   14475:	2b af 2e 
   14478:	48 89 85 a0 e3 ff ff 	mov    %rax,-0x1c60(%rbp)
   1447f:	48 8d 85 90 e1 ff ff 	lea    -0x1e70(%rbp),%rax
   14486:	48 89 85 a8 e3 ff ff 	mov    %rax,-0x1c58(%rbp)
   1448d:	c6 85 6f e1 ff ff f9 	movb   $0xf9,-0x1e91(%rbp)
   14494:	48 8d 05 e5 16 01 00 	lea    0x116e5(%rip),%rax        # 25b80 <g_1193>
   1449b:	48 89 85 b0 e3 ff ff 	mov    %rax,-0x1c50(%rbp)
   144a2:	48 c7 85 38 e3 ff ff 	movq   $0x0,-0x1cc8(%rbp)
   144a9:	00 00 00 00 
   144ad:	48 8d 85 38 e3 ff ff 	lea    -0x1cc8(%rbp),%rax
   144b4:	48 89 85 b8 e3 ff ff 	mov    %rax,-0x1c48(%rbp)
   144bb:	c6 85 71 e1 ff ff 01 	movb   $0x1,-0x1e8f(%rbp)
   144c2:	c7 85 d0 e8 ff ff 00 	movl   $0x0,-0x1730(%rbp)
   144c9:	00 00 00 
   144cc:	c7 85 d4 e8 ff ff 91 	movl   $0x3144d991,-0x172c(%rbp)
   144d3:	d9 44 31 
   144d6:	c7 85 d8 e8 ff ff 01 	movl   $0x1,-0x1728(%rbp)
   144dd:	00 00 00 
   144e0:	c7 85 dc e8 ff ff 91 	movl   $0x3144d991,-0x1724(%rbp)
   144e7:	d9 44 31 
   144ea:	c7 85 e0 e8 ff ff 00 	movl   $0x0,-0x1720(%rbp)
   144f1:	00 00 00 
   144f4:	c7 85 e4 e8 ff ff 16 	movl   $0x6983816,-0x171c(%rbp)
   144fb:	38 98 06 
   144fe:	c7 85 e8 e8 ff ff 91 	movl   $0x3144d991,-0x1718(%rbp)
   14505:	d9 44 31 
   14508:	c7 85 ec e8 ff ff 00 	movl   $0x0,-0x1714(%rbp)
   1450f:	00 00 00 
   14512:	c7 85 f0 e8 ff ff f7 	movl   $0xfffffff7,-0x1710(%rbp)
   14519:	ff ff ff 
   1451c:	c7 85 f4 e8 ff ff 7b 	movl   $0x74d2d97b,-0x170c(%rbp)
   14523:	d9 d2 74 
   14526:	c7 85 f8 e8 ff ff 7b 	movl   $0x74d2d97b,-0x1708(%rbp)
   1452d:	d9 d2 74 
   14530:	c7 85 fc e8 ff ff f7 	movl   $0xfffffff7,-0x1704(%rbp)
   14537:	ff ff ff 
   1453a:	c7 85 00 e9 ff ff ad 	movl   $0x13644cad,-0x1700(%rbp)
   14541:	4c 64 13 
   14544:	c7 85 04 e9 ff ff a6 	movl   $0x2af72da6,-0x16fc(%rbp)
   1454b:	2d f7 2a 
   1454e:	c7 85 08 e9 ff ff 32 	movl   $0x1562e432,-0x16f8(%rbp)
   14555:	e4 62 15 
   14558:	c7 85 0c e9 ff ff 7b 	movl   $0x74d2d97b,-0x16f4(%rbp)
   1455f:	d9 d2 74 
   14562:	c7 85 10 e9 ff ff a6 	movl   $0x2af72da6,-0x16f0(%rbp)
   14569:	2d f7 2a 
   1456c:	c7 85 14 e9 ff ff 00 	movl   $0x0,-0x16ec(%rbp)
   14573:	00 00 00 
   14576:	c7 85 18 e9 ff ff a6 	movl   $0x2af72da6,-0x16e8(%rbp)
   1457d:	2d f7 2a 
   14580:	c7 85 1c e9 ff ff 7b 	movl   $0x74d2d97b,-0x16e4(%rbp)
   14587:	d9 d2 74 
   1458a:	c7 85 20 e9 ff ff 32 	movl   $0x1562e432,-0x16e0(%rbp)
   14591:	e4 62 15 
   14594:	c7 85 24 e9 ff ff a6 	movl   $0x2af72da6,-0x16dc(%rbp)
   1459b:	2d f7 2a 
   1459e:	c7 85 28 e9 ff ff ad 	movl   $0x13644cad,-0x16d8(%rbp)
   145a5:	4c 64 13 
   145a8:	c7 85 2c e9 ff ff f7 	movl   $0xfffffff7,-0x16d4(%rbp)
   145af:	ff ff ff 
   145b2:	c7 85 30 e9 ff ff 7b 	movl   $0x74d2d97b,-0x16d0(%rbp)
   145b9:	d9 d2 74 
   145bc:	c7 85 34 e9 ff ff 7b 	movl   $0x74d2d97b,-0x16cc(%rbp)
   145c3:	d9 d2 74 
   145c6:	c7 85 38 e9 ff ff f7 	movl   $0xfffffff7,-0x16c8(%rbp)
   145cd:	ff ff ff 
   145d0:	c7 85 3c e9 ff ff ad 	movl   $0x13644cad,-0x16c4(%rbp)
   145d7:	4c 64 13 
   145da:	c7 85 40 e9 ff ff a6 	movl   $0x2af72da6,-0x16c0(%rbp)
   145e1:	2d f7 2a 
   145e4:	c7 85 44 e9 ff ff 32 	movl   $0x1562e432,-0x16bc(%rbp)
   145eb:	e4 62 15 
   145ee:	48 8d 05 63 16 01 00 	lea    0x11663(%rip),%rax        # 25c58 <g_1826>
   145f5:	48 89 85 10 ea ff ff 	mov    %rax,-0x15f0(%rbp)
   145fc:	48 8d 05 55 16 01 00 	lea    0x11655(%rip),%rax        # 25c58 <g_1826>
   14603:	48 89 85 18 ea ff ff 	mov    %rax,-0x15e8(%rbp)
   1460a:	48 8d 05 47 16 01 00 	lea    0x11647(%rip),%rax        # 25c58 <g_1826>
   14611:	48 89 85 20 ea ff ff 	mov    %rax,-0x15e0(%rbp)
   14618:	48 8d 05 39 16 01 00 	lea    0x11639(%rip),%rax        # 25c58 <g_1826>
   1461f:	48 89 85 28 ea ff ff 	mov    %rax,-0x15d8(%rbp)
   14626:	48 8d 05 2b 16 01 00 	lea    0x1162b(%rip),%rax        # 25c58 <g_1826>
   1462d:	48 89 85 30 ea ff ff 	mov    %rax,-0x15d0(%rbp)
   14634:	48 c7 85 38 ea ff ff 	movq   $0x0,-0x15c8(%rbp)
   1463b:	00 00 00 00 
   1463f:	48 8d 05 12 16 01 00 	lea    0x11612(%rip),%rax        # 25c58 <g_1826>
   14646:	48 89 85 40 ea ff ff 	mov    %rax,-0x15c0(%rbp)
   1464d:	48 8d 05 04 16 01 00 	lea    0x11604(%rip),%rax        # 25c58 <g_1826>
   14654:	48 89 85 48 ea ff ff 	mov    %rax,-0x15b8(%rbp)
   1465b:	48 c7 85 50 ea ff ff 	movq   $0x0,-0x15b0(%rbp)
   14662:	00 00 00 00 
   14666:	48 c7 85 58 ea ff ff 	movq   $0x0,-0x15a8(%rbp)
   1466d:	00 00 00 00 
   14671:	48 8d 05 e0 15 01 00 	lea    0x115e0(%rip),%rax        # 25c58 <g_1826>
   14678:	48 89 85 60 ea ff ff 	mov    %rax,-0x15a0(%rbp)
   1467f:	48 8d 05 d2 15 01 00 	lea    0x115d2(%rip),%rax        # 25c58 <g_1826>
   14686:	48 89 85 68 ea ff ff 	mov    %rax,-0x1598(%rbp)
   1468d:	48 8d 05 c4 15 01 00 	lea    0x115c4(%rip),%rax        # 25c58 <g_1826>
   14694:	48 89 85 70 ea ff ff 	mov    %rax,-0x1590(%rbp)
   1469b:	48 8d 05 b6 15 01 00 	lea    0x115b6(%rip),%rax        # 25c58 <g_1826>
   146a2:	48 89 85 78 ea ff ff 	mov    %rax,-0x1588(%rbp)
   146a9:	48 8d 05 a8 15 01 00 	lea    0x115a8(%rip),%rax        # 25c58 <g_1826>
   146b0:	48 89 85 80 ea ff ff 	mov    %rax,-0x1580(%rbp)
   146b7:	48 c7 85 88 ea ff ff 	movq   $0x0,-0x1578(%rbp)
   146be:	00 00 00 00 
   146c2:	48 c7 85 90 ea ff ff 	movq   $0x0,-0x1570(%rbp)
   146c9:	00 00 00 00 
   146cd:	48 8d 05 84 15 01 00 	lea    0x11584(%rip),%rax        # 25c58 <g_1826>
   146d4:	48 89 85 98 ea ff ff 	mov    %rax,-0x1568(%rbp)
   146db:	48 8d 05 76 15 01 00 	lea    0x11576(%rip),%rax        # 25c58 <g_1826>
   146e2:	48 89 85 a0 ea ff ff 	mov    %rax,-0x1560(%rbp)
   146e9:	48 c7 85 a8 ea ff ff 	movq   $0x0,-0x1558(%rbp)
   146f0:	00 00 00 00 
   146f4:	48 8d 05 5d 15 01 00 	lea    0x1155d(%rip),%rax        # 25c58 <g_1826>
   146fb:	48 89 85 b0 ea ff ff 	mov    %rax,-0x1550(%rbp)
   14702:	48 8d 05 4f 15 01 00 	lea    0x1154f(%rip),%rax        # 25c58 <g_1826>
   14709:	48 89 85 b8 ea ff ff 	mov    %rax,-0x1548(%rbp)
   14710:	48 8d 05 41 15 01 00 	lea    0x11541(%rip),%rax        # 25c58 <g_1826>
   14717:	48 89 85 c0 ea ff ff 	mov    %rax,-0x1540(%rbp)
   1471e:	48 8d 05 33 15 01 00 	lea    0x11533(%rip),%rax        # 25c58 <g_1826>
   14725:	48 89 85 c8 ea ff ff 	mov    %rax,-0x1538(%rbp)
   1472c:	48 8d 05 25 15 01 00 	lea    0x11525(%rip),%rax        # 25c58 <g_1826>
   14733:	48 89 85 d0 ea ff ff 	mov    %rax,-0x1530(%rbp)
   1473a:	48 c7 85 d8 ea ff ff 	movq   $0x0,-0x1528(%rbp)
   14741:	00 00 00 00 
   14745:	48 8d 05 0c 15 01 00 	lea    0x1150c(%rip),%rax        # 25c58 <g_1826>
   1474c:	48 89 85 e0 ea ff ff 	mov    %rax,-0x1520(%rbp)
   14753:	48 8d 05 fe 14 01 00 	lea    0x114fe(%rip),%rax        # 25c58 <g_1826>
   1475a:	48 89 85 e8 ea ff ff 	mov    %rax,-0x1518(%rbp)
   14761:	48 c7 85 f0 ea ff ff 	movq   $0x0,-0x1510(%rbp)
   14768:	00 00 00 00 
   1476c:	48 c7 85 f8 ea ff ff 	movq   $0x0,-0x1508(%rbp)
   14773:	00 00 00 00 
   14777:	48 c7 85 c8 e3 ff ff 	movq   $0x0,-0x1c38(%rbp)
   1477e:	00 00 00 00 
   14782:	48 c7 85 40 e3 ff ff 	movq   $0x0,-0x1cc0(%rbp)
   14789:	00 00 00 00 
   1478d:	48 8d 85 40 e3 ff ff 	lea    -0x1cc0(%rbp),%rax
   14794:	48 89 85 48 e3 ff ff 	mov    %rax,-0x1cb8(%rbp)
   1479b:	48 8d 85 48 e3 ff ff 	lea    -0x1cb8(%rbp),%rax
   147a2:	48 89 85 d0 e3 ff ff 	mov    %rax,-0x1c30(%rbp)
   147a9:	c6 85 74 e1 ff ff f7 	movb   $0xf7,-0x1e8c(%rbp)
   147b0:	c7 85 fc e1 ff ff 00 	movl   $0x0,-0x1e04(%rbp)
   147b7:	00 00 00 
   147ba:	eb 1a                	jmp    147d6 <func_43+0x4f9>
   147bc:	8b 85 fc e1 ff ff    	mov    -0x1e04(%rbp),%eax
   147c2:	48 98                	cltq   
   147c4:	c7 84 85 14 e7 ff ff 	movl   $0xfffffffd,-0x18ec(%rbp,%rax,4)
   147cb:	fd ff ff ff 
   147cf:	83 85 fc e1 ff ff 01 	addl   $0x1,-0x1e04(%rbp)
   147d6:	83 bd fc e1 ff ff 00 	cmpl   $0x0,-0x1e04(%rbp)
   147dd:	7e dd                	jle    147bc <func_43+0x4df>
   147df:	c7 85 fc e1 ff ff 00 	movl   $0x0,-0x1e04(%rbp)
   147e6:	00 00 00 
   147e9:	eb 19                	jmp    14804 <func_43+0x527>
   147eb:	8b 85 fc e1 ff ff    	mov    -0x1e04(%rbp),%eax
   147f1:	48 98                	cltq   
   147f3:	66 c7 84 45 22 e7 ff 	movw   $0x4c6b,-0x18de(%rbp,%rax,2)
   147fa:	ff 6b 4c 
   147fd:	83 85 fc e1 ff ff 01 	addl   $0x1,-0x1e04(%rbp)
   14804:	83 bd fc e1 ff ff 06 	cmpl   $0x6,-0x1e04(%rbp)
   1480b:	7e de                	jle    147eb <func_43+0x50e>
   1480d:	c7 05 61 d9 00 00 00 	movl   $0x0,0xd961(%rip)        # 22178 <g_84+0x18>
   14814:	00 00 00 
   14817:	e9 ca 27 00 00       	jmpq   16fe6 <func_43+0x2d09>
   1481c:	48 8d 05 65 0e 01 00 	lea    0x10e65(%rip),%rax        # 25688 <g_362+0x88>
   14823:	48 89 85 40 e5 ff ff 	mov    %rax,-0x1ac0(%rbp)
   1482a:	c7 85 c8 e1 ff ff 5d 	movl   $0x6ed2e55d,-0x1e38(%rbp)
   14831:	e5 d2 6e 
   14834:	c7 85 b0 e2 ff ff ff 	movl   $0xffffffff,-0x1d50(%rbp)
   1483b:	ff ff ff 
   1483e:	48 c7 85 48 e5 ff ff 	movq   $0x0,-0x1ab8(%rbp)
   14845:	00 00 00 00 
   14849:	c7 85 b4 e2 ff ff ff 	movl   $0xffffffff,-0x1d4c(%rbp)
   14850:	ff ff ff 
   14853:	c7 85 a4 e1 ff ff 1b 	movl   $0xd57d5c1b,-0x1e5c(%rbp)
   1485a:	5c 7d d5 
   1485d:	c7 85 a8 e1 ff ff f0 	movl   $0xd953d3f0,-0x1e58(%rbp)
   14864:	d3 53 d9 
   14867:	48 8d 85 94 e1 ff ff 	lea    -0x1e6c(%rbp),%rax
   1486e:	48 89 85 50 e3 ff ff 	mov    %rax,-0x1cb0(%rbp)
   14875:	48 8d 05 f6 d8 00 00 	lea    0xd8f6(%rip),%rax        # 22172 <g_84+0x12>
   1487c:	48 89 85 50 e5 ff ff 	mov    %rax,-0x1ab0(%rbp)
   14883:	48 8d 05 ea 87 00 00 	lea    0x87ea(%rip),%rax        # 1d074 <g_1267>
   1488a:	48 89 85 58 e3 ff ff 	mov    %rax,-0x1ca8(%rbp)
   14891:	48 8d 85 58 e3 ff ff 	lea    -0x1ca8(%rbp),%rax
   14898:	48 89 85 58 e5 ff ff 	mov    %rax,-0x1aa8(%rbp)
   1489f:	48 8d 85 90 e1 ff ff 	lea    -0x1e70(%rbp),%rax
   148a6:	48 89 85 60 e5 ff ff 	mov    %rax,-0x1aa0(%rbp)
   148ad:	48 8d 85 40 e7 ff ff 	lea    -0x18c0(%rbp),%rax
   148b4:	48 89 85 30 f2 ff ff 	mov    %rax,-0xdd0(%rbp)
   148bb:	48 8d 85 40 e7 ff ff 	lea    -0x18c0(%rbp),%rax
   148c2:	48 83 c0 10          	add    $0x10,%rax
   148c6:	48 89 85 38 f2 ff ff 	mov    %rax,-0xdc8(%rbp)
   148cd:	48 8d 05 b4 0d 01 00 	lea    0x10db4(%rip),%rax        # 25688 <g_362+0x88>
   148d4:	48 89 85 40 f2 ff ff 	mov    %rax,-0xdc0(%rbp)
   148db:	48 8d 85 40 e7 ff ff 	lea    -0x18c0(%rbp),%rax
   148e2:	48 83 c0 10          	add    $0x10,%rax
   148e6:	48 89 85 48 f2 ff ff 	mov    %rax,-0xdb8(%rbp)
   148ed:	48 8d 85 40 e7 ff ff 	lea    -0x18c0(%rbp),%rax
   148f4:	48 89 85 50 f2 ff ff 	mov    %rax,-0xdb0(%rbp)
   148fb:	48 8d 05 0e 0d 01 00 	lea    0x10d0e(%rip),%rax        # 25610 <g_362+0x10>
   14902:	48 89 85 58 f2 ff ff 	mov    %rax,-0xda8(%rbp)
   14909:	48 8d 85 40 e7 ff ff 	lea    -0x18c0(%rbp),%rax
   14910:	48 83 c0 10          	add    $0x10,%rax
   14914:	48 89 85 60 f2 ff ff 	mov    %rax,-0xda0(%rbp)
   1491b:	48 8d 85 40 e7 ff ff 	lea    -0x18c0(%rbp),%rax
   14922:	48 83 c0 10          	add    $0x10,%rax
   14926:	48 89 85 68 f2 ff ff 	mov    %rax,-0xd98(%rbp)
   1492d:	48 c7 85 70 f2 ff ff 	movq   $0x0,-0xd90(%rbp)
   14934:	00 00 00 00 
   14938:	48 8d 85 40 e7 ff ff 	lea    -0x18c0(%rbp),%rax
   1493f:	48 89 85 78 f2 ff ff 	mov    %rax,-0xd88(%rbp)
   14946:	48 8d 85 40 e7 ff ff 	lea    -0x18c0(%rbp),%rax
   1494d:	48 89 85 80 f2 ff ff 	mov    %rax,-0xd80(%rbp)
   14954:	48 c7 85 88 f2 ff ff 	movq   $0x0,-0xd78(%rbp)
   1495b:	00 00 00 00 
   1495f:	48 c7 85 90 f2 ff ff 	movq   $0x0,-0xd70(%rbp)
   14966:	00 00 00 00 
   1496a:	48 8d 85 40 e7 ff ff 	lea    -0x18c0(%rbp),%rax
   14971:	48 83 c0 10          	add    $0x10,%rax
   14975:	48 89 85 98 f2 ff ff 	mov    %rax,-0xd68(%rbp)
   1497c:	48 8d 05 dd 0c 01 00 	lea    0x10cdd(%rip),%rax        # 25660 <g_362+0x60>
   14983:	48 89 85 a0 f2 ff ff 	mov    %rax,-0xd60(%rbp)
   1498a:	48 8d 05 cf 0c 01 00 	lea    0x10ccf(%rip),%rax        # 25660 <g_362+0x60>
   14991:	48 89 85 a8 f2 ff ff 	mov    %rax,-0xd58(%rbp)
   14998:	48 8d 85 40 e7 ff ff 	lea    -0x18c0(%rbp),%rax
   1499f:	48 83 c0 10          	add    $0x10,%rax
   149a3:	48 89 85 b0 f2 ff ff 	mov    %rax,-0xd50(%rbp)
   149aa:	48 c7 85 b8 f2 ff ff 	movq   $0x0,-0xd48(%rbp)
   149b1:	00 00 00 00 
   149b5:	48 c7 85 c0 f2 ff ff 	movq   $0x0,-0xd40(%rbp)
   149bc:	00 00 00 00 
   149c0:	48 8d 85 40 e7 ff ff 	lea    -0x18c0(%rbp),%rax
   149c7:	48 89 85 c8 f2 ff ff 	mov    %rax,-0xd38(%rbp)
   149ce:	48 8d 05 8b 0c 01 00 	lea    0x10c8b(%rip),%rax        # 25660 <g_362+0x60>
   149d5:	48 89 85 d0 f2 ff ff 	mov    %rax,-0xd30(%rbp)
   149dc:	48 8d 85 40 e7 ff ff 	lea    -0x18c0(%rbp),%rax
   149e3:	48 83 c0 10          	add    $0x10,%rax
   149e7:	48 89 85 d8 f2 ff ff 	mov    %rax,-0xd28(%rbp)
   149ee:	48 c7 85 e0 f2 ff ff 	movq   $0x0,-0xd20(%rbp)
   149f5:	00 00 00 00 
   149f9:	48 c7 85 e8 f2 ff ff 	movq   $0x0,-0xd18(%rbp)
   14a00:	00 00 00 00 
   14a04:	48 8d 85 40 e7 ff ff 	lea    -0x18c0(%rbp),%rax
   14a0b:	48 89 85 f0 f2 ff ff 	mov    %rax,-0xd10(%rbp)
   14a12:	48 8d 05 47 0c 01 00 	lea    0x10c47(%rip),%rax        # 25660 <g_362+0x60>
   14a19:	48 89 85 f8 f2 ff ff 	mov    %rax,-0xd08(%rbp)
   14a20:	48 c7 85 00 f3 ff ff 	movq   $0x0,-0xd00(%rbp)
   14a27:	00 00 00 00 
   14a2b:	48 8d 85 40 e7 ff ff 	lea    -0x18c0(%rbp),%rax
   14a32:	48 83 c0 10          	add    $0x10,%rax
   14a36:	48 89 85 08 f3 ff ff 	mov    %rax,-0xcf8(%rbp)
   14a3d:	48 c7 85 10 f3 ff ff 	movq   $0x0,-0xcf0(%rbp)
   14a44:	00 00 00 00 
   14a48:	48 8d 05 11 0c 01 00 	lea    0x10c11(%rip),%rax        # 25660 <g_362+0x60>
   14a4f:	48 89 85 18 f3 ff ff 	mov    %rax,-0xce8(%rbp)
   14a56:	48 8d 85 40 e7 ff ff 	lea    -0x18c0(%rbp),%rax
   14a5d:	48 89 85 20 f3 ff ff 	mov    %rax,-0xce0(%rbp)
   14a64:	48 8d 85 40 e7 ff ff 	lea    -0x18c0(%rbp),%rax
   14a6b:	48 83 c0 10          	add    $0x10,%rax
   14a6f:	48 89 85 28 f3 ff ff 	mov    %rax,-0xcd8(%rbp)
   14a76:	48 8d 05 0b 0c 01 00 	lea    0x10c0b(%rip),%rax        # 25688 <g_362+0x88>
   14a7d:	48 89 85 30 f3 ff ff 	mov    %rax,-0xcd0(%rbp)
   14a84:	48 8d 85 40 e7 ff ff 	lea    -0x18c0(%rbp),%rax
   14a8b:	48 83 c0 10          	add    $0x10,%rax
   14a8f:	48 89 85 38 f3 ff ff 	mov    %rax,-0xcc8(%rbp)
   14a96:	48 8d 85 40 e7 ff ff 	lea    -0x18c0(%rbp),%rax
   14a9d:	48 89 85 40 f3 ff ff 	mov    %rax,-0xcc0(%rbp)
   14aa4:	48 8d 05 65 0b 01 00 	lea    0x10b65(%rip),%rax        # 25610 <g_362+0x10>
   14aab:	48 89 85 48 f3 ff ff 	mov    %rax,-0xcb8(%rbp)
   14ab2:	48 8d 85 40 e7 ff ff 	lea    -0x18c0(%rbp),%rax
   14ab9:	48 83 c0 10          	add    $0x10,%rax
   14abd:	48 89 85 50 f3 ff ff 	mov    %rax,-0xcb0(%rbp)
   14ac4:	48 8d 85 40 e7 ff ff 	lea    -0x18c0(%rbp),%rax
   14acb:	48 83 c0 10          	add    $0x10,%rax
   14acf:	48 89 85 58 f3 ff ff 	mov    %rax,-0xca8(%rbp)
   14ad6:	48 c7 85 60 f3 ff ff 	movq   $0x0,-0xca0(%rbp)
   14add:	00 00 00 00 
   14ae1:	48 8d 85 40 e7 ff ff 	lea    -0x18c0(%rbp),%rax
   14ae8:	48 89 85 68 f3 ff ff 	mov    %rax,-0xc98(%rbp)
   14aef:	48 8d 85 40 e7 ff ff 	lea    -0x18c0(%rbp),%rax
   14af6:	48 89 85 70 f3 ff ff 	mov    %rax,-0xc90(%rbp)
   14afd:	48 c7 85 78 f3 ff ff 	movq   $0x0,-0xc88(%rbp)
   14b04:	00 00 00 00 
   14b08:	48 c7 85 80 f3 ff ff 	movq   $0x0,-0xc80(%rbp)
   14b0f:	00 00 00 00 
   14b13:	48 8d 85 40 e7 ff ff 	lea    -0x18c0(%rbp),%rax
   14b1a:	48 83 c0 10          	add    $0x10,%rax
   14b1e:	48 89 85 88 f3 ff ff 	mov    %rax,-0xc78(%rbp)
   14b25:	48 8d 05 34 0b 01 00 	lea    0x10b34(%rip),%rax        # 25660 <g_362+0x60>
   14b2c:	48 89 85 90 f3 ff ff 	mov    %rax,-0xc70(%rbp)
   14b33:	48 8d 05 26 0b 01 00 	lea    0x10b26(%rip),%rax        # 25660 <g_362+0x60>
   14b3a:	48 89 85 98 f3 ff ff 	mov    %rax,-0xc68(%rbp)
   14b41:	48 8d 85 40 e7 ff ff 	lea    -0x18c0(%rbp),%rax
   14b48:	48 83 c0 10          	add    $0x10,%rax
   14b4c:	48 89 85 a0 f3 ff ff 	mov    %rax,-0xc60(%rbp)
   14b53:	48 c7 85 a8 f3 ff ff 	movq   $0x0,-0xc58(%rbp)
   14b5a:	00 00 00 00 
   14b5e:	48 c7 85 b0 f3 ff ff 	movq   $0x0,-0xc50(%rbp)
   14b65:	00 00 00 00 
   14b69:	48 8d 85 40 e7 ff ff 	lea    -0x18c0(%rbp),%rax
   14b70:	48 89 85 b8 f3 ff ff 	mov    %rax,-0xc48(%rbp)
   14b77:	48 8d 05 e2 0a 01 00 	lea    0x10ae2(%rip),%rax        # 25660 <g_362+0x60>
   14b7e:	48 89 85 c0 f3 ff ff 	mov    %rax,-0xc40(%rbp)
   14b85:	48 8d 85 40 e7 ff ff 	lea    -0x18c0(%rbp),%rax
   14b8c:	48 83 c0 10          	add    $0x10,%rax
   14b90:	48 89 85 c8 f3 ff ff 	mov    %rax,-0xc38(%rbp)
   14b97:	48 c7 85 d0 f3 ff ff 	movq   $0x0,-0xc30(%rbp)
   14b9e:	00 00 00 00 
   14ba2:	48 c7 85 d8 f3 ff ff 	movq   $0x0,-0xc28(%rbp)
   14ba9:	00 00 00 00 
   14bad:	48 8d 85 40 e7 ff ff 	lea    -0x18c0(%rbp),%rax
   14bb4:	48 89 85 e0 f3 ff ff 	mov    %rax,-0xc20(%rbp)
   14bbb:	48 8d 05 9e 0a 01 00 	lea    0x10a9e(%rip),%rax        # 25660 <g_362+0x60>
   14bc2:	48 89 85 e8 f3 ff ff 	mov    %rax,-0xc18(%rbp)
   14bc9:	48 c7 85 f0 f3 ff ff 	movq   $0x0,-0xc10(%rbp)
   14bd0:	00 00 00 00 
   14bd4:	48 8d 85 40 e7 ff ff 	lea    -0x18c0(%rbp),%rax
   14bdb:	48 83 c0 10          	add    $0x10,%rax
   14bdf:	48 89 85 f8 f3 ff ff 	mov    %rax,-0xc08(%rbp)
   14be6:	48 c7 85 00 f4 ff ff 	movq   $0x0,-0xc00(%rbp)
   14bed:	00 00 00 00 
   14bf1:	48 8d 05 68 0a 01 00 	lea    0x10a68(%rip),%rax        # 25660 <g_362+0x60>
   14bf8:	48 89 85 08 f4 ff ff 	mov    %rax,-0xbf8(%rbp)
   14bff:	48 8d 85 40 e7 ff ff 	lea    -0x18c0(%rbp),%rax
   14c06:	48 89 85 10 f4 ff ff 	mov    %rax,-0xbf0(%rbp)
   14c0d:	48 8d 85 40 e7 ff ff 	lea    -0x18c0(%rbp),%rax
   14c14:	48 83 c0 10          	add    $0x10,%rax
   14c18:	48 89 85 18 f4 ff ff 	mov    %rax,-0xbe8(%rbp)
   14c1f:	48 8d 05 62 0a 01 00 	lea    0x10a62(%rip),%rax        # 25688 <g_362+0x88>
   14c26:	48 89 85 20 f4 ff ff 	mov    %rax,-0xbe0(%rbp)
   14c2d:	48 8d 85 40 e7 ff ff 	lea    -0x18c0(%rbp),%rax
   14c34:	48 83 c0 10          	add    $0x10,%rax
   14c38:	48 89 85 28 f4 ff ff 	mov    %rax,-0xbd8(%rbp)
   14c3f:	48 8d 85 40 e7 ff ff 	lea    -0x18c0(%rbp),%rax
   14c46:	48 89 85 30 f4 ff ff 	mov    %rax,-0xbd0(%rbp)
   14c4d:	48 8d 05 bc 09 01 00 	lea    0x109bc(%rip),%rax        # 25610 <g_362+0x10>
   14c54:	48 89 85 38 f4 ff ff 	mov    %rax,-0xbc8(%rbp)
   14c5b:	48 8d 85 40 e7 ff ff 	lea    -0x18c0(%rbp),%rax
   14c62:	48 83 c0 10          	add    $0x10,%rax
   14c66:	48 89 85 40 f4 ff ff 	mov    %rax,-0xbc0(%rbp)
   14c6d:	48 8d 85 40 e7 ff ff 	lea    -0x18c0(%rbp),%rax
   14c74:	48 83 c0 10          	add    $0x10,%rax
   14c78:	48 89 85 48 f4 ff ff 	mov    %rax,-0xbb8(%rbp)
   14c7f:	48 c7 85 50 f4 ff ff 	movq   $0x0,-0xbb0(%rbp)
   14c86:	00 00 00 00 
   14c8a:	48 8d 85 40 e7 ff ff 	lea    -0x18c0(%rbp),%rax
   14c91:	48 89 85 58 f4 ff ff 	mov    %rax,-0xba8(%rbp)
   14c98:	48 8d 85 40 e7 ff ff 	lea    -0x18c0(%rbp),%rax
   14c9f:	48 89 85 60 f4 ff ff 	mov    %rax,-0xba0(%rbp)
   14ca6:	48 c7 85 68 f4 ff ff 	movq   $0x0,-0xb98(%rbp)
   14cad:	00 00 00 00 
   14cb1:	48 c7 85 70 f4 ff ff 	movq   $0x0,-0xb90(%rbp)
   14cb8:	00 00 00 00 
   14cbc:	48 8d 85 40 e7 ff ff 	lea    -0x18c0(%rbp),%rax
   14cc3:	48 83 c0 10          	add    $0x10,%rax
   14cc7:	48 89 85 78 f4 ff ff 	mov    %rax,-0xb88(%rbp)
   14cce:	48 8d 05 8b 09 01 00 	lea    0x1098b(%rip),%rax        # 25660 <g_362+0x60>
   14cd5:	48 89 85 80 f4 ff ff 	mov    %rax,-0xb80(%rbp)
   14cdc:	48 8d 05 7d 09 01 00 	lea    0x1097d(%rip),%rax        # 25660 <g_362+0x60>
   14ce3:	48 89 85 88 f4 ff ff 	mov    %rax,-0xb78(%rbp)
   14cea:	48 8d 85 40 e7 ff ff 	lea    -0x18c0(%rbp),%rax
   14cf1:	48 83 c0 10          	add    $0x10,%rax
   14cf5:	48 89 85 90 f4 ff ff 	mov    %rax,-0xb70(%rbp)
   14cfc:	48 c7 85 98 f4 ff ff 	movq   $0x0,-0xb68(%rbp)
   14d03:	00 00 00 00 
   14d07:	48 c7 85 a0 f4 ff ff 	movq   $0x0,-0xb60(%rbp)
   14d0e:	00 00 00 00 
   14d12:	48 8d 85 40 e7 ff ff 	lea    -0x18c0(%rbp),%rax
   14d19:	48 89 85 a8 f4 ff ff 	mov    %rax,-0xb58(%rbp)
   14d20:	48 8d 85 30 f2 ff ff 	lea    -0xdd0(%rbp),%rax
   14d27:	48 05 88 00 00 00    	add    $0x88,%rax
   14d2d:	48 89 85 60 e3 ff ff 	mov    %rax,-0x1ca0(%rbp)
   14d34:	48 8d 85 60 e3 ff ff 	lea    -0x1ca0(%rbp),%rax
   14d3b:	48 89 85 20 ec ff ff 	mov    %rax,-0x13e0(%rbp)
   14d42:	48 8d 85 60 e3 ff ff 	lea    -0x1ca0(%rbp),%rax
   14d49:	48 89 85 28 ec ff ff 	mov    %rax,-0x13d8(%rbp)
   14d50:	48 8d 85 60 e3 ff ff 	lea    -0x1ca0(%rbp),%rax
   14d57:	48 89 85 30 ec ff ff 	mov    %rax,-0x13d0(%rbp)
   14d5e:	48 8d 85 60 e3 ff ff 	lea    -0x1ca0(%rbp),%rax
   14d65:	48 89 85 38 ec ff ff 	mov    %rax,-0x13c8(%rbp)
   14d6c:	48 8d 85 60 e3 ff ff 	lea    -0x1ca0(%rbp),%rax
   14d73:	48 89 85 40 ec ff ff 	mov    %rax,-0x13c0(%rbp)
   14d7a:	48 8d 85 60 e3 ff ff 	lea    -0x1ca0(%rbp),%rax
   14d81:	48 89 85 48 ec ff ff 	mov    %rax,-0x13b8(%rbp)
   14d88:	48 8d 85 60 e3 ff ff 	lea    -0x1ca0(%rbp),%rax
   14d8f:	48 89 85 50 ec ff ff 	mov    %rax,-0x13b0(%rbp)
   14d96:	48 8d 85 60 e3 ff ff 	lea    -0x1ca0(%rbp),%rax
   14d9d:	48 89 85 58 ec ff ff 	mov    %rax,-0x13a8(%rbp)
   14da4:	48 8d 85 60 e3 ff ff 	lea    -0x1ca0(%rbp),%rax
   14dab:	48 89 85 60 ec ff ff 	mov    %rax,-0x13a0(%rbp)
   14db2:	48 8d 85 60 e3 ff ff 	lea    -0x1ca0(%rbp),%rax
   14db9:	48 89 85 68 ec ff ff 	mov    %rax,-0x1398(%rbp)
   14dc0:	48 8d 85 20 ec ff ff 	lea    -0x13e0(%rbp),%rax
   14dc7:	48 83 c0 28          	add    $0x28,%rax
   14dcb:	48 89 85 68 e5 ff ff 	mov    %rax,-0x1a98(%rbp)
   14dd2:	48 8d 05 97 88 00 00 	lea    0x8897(%rip),%rax        # 1d670 <g_1383>
   14dd9:	48 89 85 68 e3 ff ff 	mov    %rax,-0x1c98(%rbp)
   14de0:	48 8d 85 68 e3 ff ff 	lea    -0x1c98(%rbp),%rax
   14de7:	48 89 85 70 e5 ff ff 	mov    %rax,-0x1a90(%rbp)
   14dee:	48 8d 05 33 01 01 00 	lea    0x10133(%rip),%rax        # 24f28 <g_207>
   14df5:	48 89 85 70 e3 ff ff 	mov    %rax,-0x1c90(%rbp)
   14dfc:	48 8d 85 70 e3 ff ff 	lea    -0x1c90(%rbp),%rax
   14e03:	48 89 85 78 e3 ff ff 	mov    %rax,-0x1c88(%rbp)
   14e0a:	48 8d 85 78 e3 ff ff 	lea    -0x1c88(%rbp),%rax
   14e11:	48 89 85 78 e5 ff ff 	mov    %rax,-0x1a88(%rbp)
   14e18:	c7 85 b8 e2 ff ff 03 	movl   $0x3,-0x1d48(%rbp)
   14e1f:	00 00 00 
   14e22:	c7 85 cc e1 ff ff 00 	movl   $0x0,-0x1e34(%rbp)
   14e29:	00 00 00 
   14e2c:	eb 14                	jmp    14e42 <func_43+0xb65>
   14e2e:	8b 85 cc e1 ff ff    	mov    -0x1e34(%rbp),%eax
   14e34:	48 98                	cltq   
   14e36:	c6 44 05 bf f7       	movb   $0xf7,-0x41(%rbp,%rax,1)
   14e3b:	83 85 cc e1 ff ff 01 	addl   $0x1,-0x1e34(%rbp)
   14e42:	83 bd cc e1 ff ff 04 	cmpl   $0x4,-0x1e34(%rbp)
   14e49:	7e e3                	jle    14e2e <func_43+0xb51>
   14e4b:	48 8b 85 40 e5 ff ff 	mov    -0x1ac0(%rbp),%rax
   14e52:	48 8d 15 87 d3 00 00 	lea    0xd387(%rip),%rdx        # 221e0 <g_152+0x20>
   14e59:	48 89 10             	mov    %rdx,(%rax)
   14e5c:	48 8b 85 40 e5 ff ff 	mov    -0x1ac0(%rbp),%rax
   14e63:	48 8b 10             	mov    (%rax),%rdx
   14e66:	48 8b 85 50 e7 ff ff 	mov    -0x18b0(%rbp),%rax
   14e6d:	48 39 c2             	cmp    %rax,%rdx
   14e70:	0f 94 c2             	sete   %dl
   14e73:	48 8b 05 ae 0c 01 00 	mov    0x10cae(%rip),%rax        # 25b28 <g_1098>
   14e7a:	0f b6 d2             	movzbl %dl,%edx
   14e7d:	89 10                	mov    %edx,(%rax)
   14e7f:	c7 05 ff d6 00 00 00 	movl   $0x0,0xd6ff(%rip)        # 22588 <g_428+0x18>
   14e86:	00 00 00 
   14e89:	e9 37 10 00 00       	jmpq   15ec5 <func_43+0x1be8>
   14e8e:	48 8d 85 d0 f7 ff ff 	lea    -0x830(%rbp),%rax
   14e95:	48 8d 15 24 8d 00 00 	lea    0x8d24(%rip),%rdx        # 1dbc0 <g_2807+0x510>
   14e9c:	b9 3f 00 00 00       	mov    $0x3f,%ecx
   14ea1:	48 89 c7             	mov    %rax,%rdi
   14ea4:	48 89 d6             	mov    %rdx,%rsi
   14ea7:	f3 48 a5             	rep movsq %ds:(%rsi),%es:(%rdi)
   14eaa:	c6 85 7b e1 ff ff db 	movb   $0xdb,-0x1e85(%rbp)
   14eb1:	48 8d 05 08 f9 00 00 	lea    0xf908(%rip),%rax        # 247c0 <g_202>
   14eb8:	48 89 85 80 e3 ff ff 	mov    %rax,-0x1c80(%rbp)
   14ebf:	c6 85 72 e1 ff ff 00 	movb   $0x0,-0x1e8e(%rbp)
   14ec6:	48 8d 05 6f d5 00 00 	lea    0xd56f(%rip),%rax        # 2243c <g_279>
   14ecd:	48 89 85 80 e5 ff ff 	mov    %rax,-0x1a80(%rbp)
   14ed4:	66 c7 85 86 e1 ff ff 	movw   $0x8,-0x1e7a(%rbp)
   14edb:	08 00 
   14edd:	48 8d 05 9c 1c 01 00 	lea    0x11c9c(%rip),%rax        # 26b80 <g_717>
   14ee4:	48 89 85 88 e5 ff ff 	mov    %rax,-0x1a78(%rbp)
   14eeb:	c7 85 d0 e1 ff ff 00 	movl   $0x0,-0x1e30(%rbp)
   14ef2:	00 00 00 
   14ef5:	eb 19                	jmp    14f10 <func_43+0xc33>
   14ef7:	8b 85 d0 e1 ff ff    	mov    -0x1e30(%rbp),%eax
   14efd:	48 98                	cltq   
   14eff:	66 c7 84 45 70 e8 ff 	movw   $0x1,-0x1790(%rbp,%rax,2)
   14f06:	ff 01 00 
   14f09:	83 85 d0 e1 ff ff 01 	addl   $0x1,-0x1e30(%rbp)
   14f10:	83 bd d0 e1 ff ff 04 	cmpl   $0x4,-0x1e30(%rbp)
   14f17:	7e de                	jle    14ef7 <func_43+0xc1a>
   14f19:	8b 05 69 d6 00 00    	mov    0xd669(%rip),%eax        # 22588 <g_428+0x18>
   14f1f:	83 c0 06             	add    $0x6,%eax
   14f22:	89 c0                	mov    %eax,%eax
   14f24:	48 8d 14 00          	lea    (%rax,%rax,1),%rdx
   14f28:	48 8d 05 31 d3 00 00 	lea    0xd331(%rip),%rax        # 22260 <g_177>
   14f2f:	0f b7 04 02          	movzwl (%rdx,%rax,1),%eax
   14f33:	66 85 c0             	test   %ax,%ax
   14f36:	0f 85 9a 0f 00 00    	jne    15ed6 <func_43+0x1bf9>
   14f3c:	8b 85 c8 e1 ff ff    	mov    -0x1e38(%rbp),%eax
   14f42:	48 98                	cltq   
   14f44:	48 89 c6             	mov    %rax,%rsi
   14f47:	48 c7 c7 ff ff ff ff 	mov    $0xffffffffffffffff,%rdi
   14f4e:	e8 5c 61 ff ff       	callq  b0af <safe_div_func_uint64_t_u_u>
   14f53:	48 0f bf 95 5c e1 ff 	movswq -0x1ea4(%rbp),%rdx
   14f5a:	ff 
   14f5b:	0f bf 85 5c e1 ff ff 	movswl -0x1ea4(%rbp),%eax
   14f62:	33 85 bc e1 ff ff    	xor    -0x1e44(%rbp),%eax
   14f68:	48 98                	cltq   
   14f6a:	48 89 d6             	mov    %rdx,%rsi
   14f6d:	48 89 c7             	mov    %rax,%rdi
   14f70:	e8 82 5a ff ff       	callq  a9f7 <safe_div_func_int64_t_s_s>
   14f75:	0f b6 05 1a d6 00 00 	movzbl 0xd61a(%rip),%eax        # 22596 <g_596+0x6>
   14f7c:	0f b6 d8             	movzbl %al,%ebx
   14f7f:	8b 05 03 d6 00 00    	mov    0xd603(%rip),%eax        # 22588 <g_428+0x18>
   14f85:	8d 50 06             	lea    0x6(%rax),%edx
   14f88:	8b 05 ea d1 00 00    	mov    0xd1ea(%rip),%eax        # 22178 <g_84+0x18>
   14f8e:	8d 70 06             	lea    0x6(%rax),%esi
   14f91:	89 d0                	mov    %edx,%eax
   14f93:	48 8d 14 00          	lea    (%rax,%rax,1),%rdx
   14f97:	48 8d 05 c2 d2 00 00 	lea    0xd2c2(%rip),%rax        # 22260 <g_177>
   14f9e:	0f b7 04 02          	movzwl (%rdx,%rax,1),%eax
   14fa2:	89 f2                	mov    %esi,%edx
   14fa4:	48 8d 0c 12          	lea    (%rdx,%rdx,1),%rcx
   14fa8:	48 8d 15 b1 d2 00 00 	lea    0xd2b1(%rip),%rdx        # 22260 <g_177>
   14faf:	66 89 04 11          	mov    %ax,(%rcx,%rdx,1)
   14fb3:	48 8b 05 a6 08 01 00 	mov    0x108a6(%rip),%rax        # 25860 <g_706>
   14fba:	89 f2                	mov    %esi,%edx
   14fbc:	48 8d 0c 12          	lea    (%rdx,%rdx,1),%rcx
   14fc0:	48 8d 15 99 d2 00 00 	lea    0xd299(%rip),%rdx        # 22260 <g_177>
   14fc7:	0f b7 14 11          	movzwl (%rcx,%rdx,1),%edx
   14fcb:	66 89 10             	mov    %dx,(%rax)
   14fce:	0f b7 00             	movzwl (%rax),%eax
   14fd1:	0f b7 c0             	movzwl %ax,%eax
   14fd4:	be 23 24 00 00       	mov    $0x2423,%esi
   14fd9:	89 c7                	mov    %eax,%edi
   14fdb:	e8 3f 5d ff ff       	callq  ad1f <safe_sub_func_uint16_t_u_u>
   14fe0:	66 85 c0             	test   %ax,%ax
   14fe3:	0f 94 c2             	sete   %dl
   14fe6:	48 8b 05 ab f7 00 00 	mov    0xf7ab(%rip),%rax        # 24798 <g_155>
   14fed:	48 8b 00             	mov    (%rax),%rax
   14ff0:	88 10                	mov    %dl,(%rax)
   14ff2:	0f b6 00             	movzbl (%rax),%eax
   14ff5:	84 c0                	test   %al,%al
   14ff7:	74 07                	je     15000 <func_43+0xd23>
   14ff9:	b8 01 00 00 00       	mov    $0x1,%eax
   14ffe:	eb 05                	jmp    15005 <func_43+0xd28>
   15000:	b8 00 00 00 00       	mov    $0x0,%eax
   15005:	0f be c0             	movsbl %al,%eax
   15008:	89 de                	mov    %ebx,%esi
   1500a:	89 c7                	mov    %eax,%edi
   1500c:	e8 24 53 ff ff       	callq  a335 <safe_rshift_func_int8_t_s_s>
   15011:	0f b7 05 24 d4 00 00 	movzwl 0xd424(%rip),%eax        # 2243c <g_279>
   15018:	66 85 c0             	test   %ax,%ax
   1501b:	0f 94 c0             	sete   %al
   1501e:	0f b6 c0             	movzbl %al,%eax
   15021:	89 85 e0 f7 ff ff    	mov    %eax,-0x820(%rbp)
   15027:	c7 85 c8 e1 ff ff 01 	movl   $0x1,-0x1e38(%rbp)
   1502e:	00 00 00 
   15031:	e9 14 07 00 00       	jmpq   1574a <func_43+0x146d>
   15036:	c7 85 dc e2 ff ff 00 	movl   $0x0,-0x1d24(%rbp)
   1503d:	00 00 00 
   15040:	c7 85 e0 e2 ff ff 0f 	movl   $0x485f1d0f,-0x1d20(%rbp)
   15047:	1d 5f 48 
   1504a:	c7 85 d4 e1 ff ff c1 	movl   $0xfefeaec1,-0x1e2c(%rbp)
   15051:	ae fe fe 
   15054:	c7 85 d8 e1 ff ff 00 	movl   $0x0,-0x1e28(%rbp)
   1505b:	00 00 00 
   1505e:	eb 25                	jmp    15085 <func_43+0xda8>
   15060:	8b 85 d8 e1 ff ff    	mov    -0x1e28(%rbp),%eax
   15066:	48 98                	cltq   
   15068:	48 8d 95 d0 f7 ff ff 	lea    -0x830(%rbp),%rdx
   1506f:	48 81 c2 88 00 00 00 	add    $0x88,%rdx
   15076:	48 89 94 c5 b0 ed ff 	mov    %rdx,-0x1250(%rbp,%rax,8)
   1507d:	ff 
   1507e:	83 85 d8 e1 ff ff 01 	addl   $0x1,-0x1e28(%rbp)
   15085:	83 bd d8 e1 ff ff 02 	cmpl   $0x2,-0x1e28(%rbp)
   1508c:	7e d2                	jle    15060 <func_43+0xd83>
   1508e:	66 c7 05 cd d0 00 00 	movw   $0x0,0xd0cd(%rip)        # 22164 <g_84+0x4>
   15095:	00 00 
   15097:	e9 7c 02 00 00       	jmpq   15318 <func_43+0x103b>
   1509c:	48 8d 05 b1 d0 00 00 	lea    0xd0b1(%rip),%rax        # 22154 <g_65>
   150a3:	48 89 85 f8 e5 ff ff 	mov    %rax,-0x1a08(%rbp)
   150aa:	8b 05 c8 d0 00 00    	mov    0xd0c8(%rip),%eax        # 22178 <g_84+0x18>
   150b0:	8d 50 03             	lea    0x3(%rax),%edx
   150b3:	8b 0d bf d0 00 00    	mov    0xd0bf(%rip),%ecx        # 22178 <g_84+0x18>
   150b9:	8b 05 b9 d0 00 00    	mov    0xd0b9(%rip),%eax        # 22178 <g_84+0x18>
   150bf:	83 c0 03             	add    $0x3,%eax
   150c2:	89 c6                	mov    %eax,%esi
   150c4:	89 d2                	mov    %edx,%edx
   150c6:	89 c9                	mov    %ecx,%ecx
   150c8:	48 89 d0             	mov    %rdx,%rax
   150cb:	48 c1 e0 03          	shl    $0x3,%rax
   150cf:	48 29 d0             	sub    %rdx,%rax
   150d2:	48 01 c0             	add    %rax,%rax
   150d5:	48 89 ca             	mov    %rcx,%rdx
   150d8:	48 c1 e2 03          	shl    $0x3,%rdx
   150dc:	48 29 ca             	sub    %rcx,%rdx
   150df:	48 01 d0             	add    %rdx,%rax
   150e2:	48 8d 14 30          	lea    (%rax,%rsi,1),%rdx
   150e6:	48 8d 05 13 d0 00 00 	lea    0xd013(%rip),%rax        # 22100 <g_55>
   150ed:	48 01 d0             	add    %rdx,%rax
   150f0:	0f b6 00             	movzbl (%rax),%eax
   150f3:	0f b6 d0             	movzbl %al,%edx
   150f6:	48 8b 85 f8 e5 ff ff 	mov    -0x1a08(%rbp),%rax
   150fd:	89 10                	mov    %edx,(%rax)
   150ff:	66 c7 05 ac d4 00 00 	movw   $0x0,0xd4ac(%rip)        # 225b4 <g_843+0x14>
   15106:	00 00 
   15108:	e9 aa 01 00 00       	jmpq   152b7 <func_43+0xfda>
   1510d:	48 8d 05 84 1a 01 00 	lea    0x11a84(%rip),%rax        # 26b98 <g_1112>
   15114:	48 89 85 00 e6 ff ff 	mov    %rax,-0x1a00(%rbp)
   1511b:	c7 85 e8 e2 ff ff d7 	movl   $0xc6760cd7,-0x1d18(%rbp)
   15122:	0c 76 c6 
   15125:	c7 85 ec e2 ff ff 00 	movl   $0x0,-0x1d14(%rbp)
   1512c:	00 00 00 
   1512f:	48 8d 85 d0 f7 ff ff 	lea    -0x830(%rbp),%rax
   15136:	48 83 c0 20          	add    $0x20,%rax
   1513a:	48 89 85 08 e6 ff ff 	mov    %rax,-0x19f8(%rbp)
   15141:	48 8d 05 58 1a 01 00 	lea    0x11a58(%rip),%rax        # 26ba0 <g_1129>
   15148:	48 89 85 10 e6 ff ff 	mov    %rax,-0x19f0(%rbp)
   1514f:	c7 85 b0 e2 ff ff 33 	movl   $0xee245033,-0x1d50(%rbp)
   15156:	50 24 ee 
   15159:	48 8b 85 10 e3 ff ff 	mov    -0x1cf0(%rbp),%rax
   15160:	48 85 c0             	test   %rax,%rax
   15163:	0f 95 c0             	setne  %al
   15166:	0f b6 d0             	movzbl %al,%edx
   15169:	48 8b 85 f8 e5 ff ff 	mov    -0x1a08(%rbp),%rax
   15170:	8b 08                	mov    (%rax),%ecx
   15172:	0f bf 85 5c e1 ff ff 	movswl -0x1ea4(%rbp),%eax
   15179:	09 c1                	or     %eax,%ecx
   1517b:	48 8b 85 f8 e5 ff ff 	mov    -0x1a08(%rbp),%rax
   15182:	89 08                	mov    %ecx,(%rax)
   15184:	48 8b 85 f8 e5 ff ff 	mov    -0x1a08(%rbp),%rax
   1518b:	8b 00                	mov    (%rax),%eax
   1518d:	89 d6                	mov    %edx,%esi
   1518f:	89 c7                	mov    %eax,%edi
   15191:	e8 20 54 ff ff       	callq  a5b6 <safe_add_func_int32_t_s_s>
   15196:	0f b7 d0             	movzwl %ax,%edx
   15199:	48 8b 05 c0 06 01 00 	mov    0x106c0(%rip),%rax        # 25860 <g_706>
   151a0:	0f b7 00             	movzwl (%rax),%eax
   151a3:	0f b7 c0             	movzwl %ax,%eax
   151a6:	89 d6                	mov    %edx,%esi
   151a8:	89 c7                	mov    %eax,%edi
   151aa:	e8 ad 5b ff ff       	callq  ad5c <safe_mod_func_uint16_t_u_u>
   151af:	8b 85 c8 e1 ff ff    	mov    -0x1e38(%rbp),%eax
   151b5:	89 85 e8 e2 ff ff    	mov    %eax,-0x1d18(%rbp)
   151bb:	8b 85 e8 e2 ff ff    	mov    -0x1d18(%rbp),%eax
   151c1:	89 85 ec e2 ff ff    	mov    %eax,-0x1d14(%rbp)
   151c7:	83 bd ec e2 ff ff 00 	cmpl   $0x0,-0x1d14(%rbp)
   151ce:	0f 9e c0             	setle  %al
   151d1:	0f b6 c0             	movzbl %al,%eax
   151d4:	66 23 85 5c e1 ff ff 	and    -0x1ea4(%rbp),%ax
   151db:	0f b7 c0             	movzwl %ax,%eax
   151de:	be 0a 00 00 00       	mov    $0xa,%esi
   151e3:	89 c7                	mov    %eax,%edi
   151e5:	e8 d4 5b ff ff       	callq  adbe <safe_lshift_func_uint16_t_u_s>
   151ea:	0f b7 d0             	movzwl %ax,%edx
   151ed:	0f b7 05 70 cf 00 00 	movzwl 0xcf70(%rip),%eax        # 22164 <g_84+0x4>
   151f4:	0f b7 c0             	movzwl %ax,%eax
   151f7:	8d 48 02             	lea    0x2(%rax),%ecx
   151fa:	0f b7 05 63 cf 00 00 	movzwl 0xcf63(%rip),%eax        # 22164 <g_84+0x4>
   15201:	0f b7 c0             	movzwl %ax,%eax
   15204:	83 c0 01             	add    $0x1,%eax
   15207:	48 98                	cltq   
   15209:	48 63 c9             	movslq %ecx,%rcx
   1520c:	48 c1 e1 02          	shl    $0x2,%rcx
   15210:	48 01 c8             	add    %rcx,%rax
   15213:	48 8d 0c c5 00 00 00 	lea    0x0(,%rax,8),%rcx
   1521a:	00 
   1521b:	48 8d 05 9e cf 00 00 	lea    0xcf9e(%rip),%rax        # 221c0 <g_152>
   15222:	48 8b 04 01          	mov    (%rcx,%rax,1),%rax
   15226:	89 05 0c d2 00 00    	mov    %eax,0xd20c(%rip)        # 22438 <g_248+0x18>
   1522c:	8b 05 06 d2 00 00    	mov    0xd206(%rip),%eax        # 22438 <g_248+0x18>
   15232:	89 d6                	mov    %edx,%esi
   15234:	89 c7                	mov    %eax,%edi
   15236:	e8 ea 5c ff ff       	callq  af25 <safe_div_func_uint32_t_u_u>
   1523b:	3d fe ff 00 00       	cmp    $0xfffe,%eax
   15240:	0f 96 c0             	setbe  %al
   15243:	0f b6 d0             	movzbl %al,%edx
   15246:	48 8b 85 08 e6 ff ff 	mov    -0x19f8(%rbp),%rax
   1524d:	89 10                	mov    %edx,(%rax)
   1524f:	8b 05 23 cf 00 00    	mov    0xcf23(%rip),%eax        # 22178 <g_84+0x18>
   15255:	83 c0 02             	add    $0x2,%eax
   15258:	89 c0                	mov    %eax,%eax
   1525a:	48 8d 14 85 00 00 00 	lea    0x0(,%rax,4),%rdx
   15261:	00 
   15262:	48 8d 05 d7 d2 00 00 	lea    0xd2d7(%rip),%rax        # 22540 <g_426>
   15269:	8b 04 02             	mov    (%rdx,%rax,1),%eax
   1526c:	48 63 d0             	movslq %eax,%rdx
   1526f:	48 8b 85 00 e6 ff ff 	mov    -0x1a00(%rbp),%rax
   15276:	48 89 10             	mov    %rdx,(%rax)
   15279:	ba 00 00 00 00       	mov    $0x0,%edx
   1527e:	48 8b 85 10 e6 ff ff 	mov    -0x19f0(%rbp),%rax
   15285:	8b 00                	mov    (%rax),%eax
   15287:	21 c2                	and    %eax,%edx
   15289:	48 8b 85 10 e6 ff ff 	mov    -0x19f0(%rbp),%rax
   15290:	89 10                	mov    %edx,(%rax)
   15292:	48 8b 05 97 05 01 00 	mov    0x10597(%rip),%rax        # 25830 <g_453>
   15299:	8b 08                	mov    (%rax),%ecx
   1529b:	0f bf 95 5c e1 ff ff 	movswl -0x1ea4(%rbp),%edx
   152a2:	31 ca                	xor    %ecx,%edx
   152a4:	89 10                	mov    %edx,(%rax)
   152a6:	0f b7 05 07 d3 00 00 	movzwl 0xd307(%rip),%eax        # 225b4 <g_843+0x14>
   152ad:	83 c0 01             	add    $0x1,%eax
   152b0:	66 89 05 fd d2 00 00 	mov    %ax,0xd2fd(%rip)        # 225b4 <g_843+0x14>
   152b7:	0f b7 05 f6 d2 00 00 	movzwl 0xd2f6(%rip),%eax        # 225b4 <g_843+0x14>
   152be:	66 83 f8 08          	cmp    $0x8,%ax
   152c2:	0f 86 45 fe ff ff    	jbe    1510d <func_43+0xe30>
   152c8:	66 c7 05 b1 d2 00 00 	movw   $0x3,0xd2b1(%rip)        # 22582 <g_428+0x12>
   152cf:	03 00 
   152d1:	90                   	nop
   152d2:	0f b7 05 a9 d2 00 00 	movzwl 0xd2a9(%rip),%eax        # 22582 <g_428+0x12>
   152d9:	66 83 f8 08          	cmp    $0x8,%ax
   152dd:	7f 28                	jg     15307 <func_43+0x102a>
   152df:	0f b7 05 7e ce 00 00 	movzwl 0xce7e(%rip),%eax        # 22164 <g_84+0x4>
   152e6:	0f b7 c0             	movzwl %ax,%eax
   152e9:	83 c0 07             	add    $0x7,%eax
   152ec:	48 98                	cltq   
   152ee:	48 8d 14 85 00 00 00 	lea    0x0(,%rax,4),%rdx
   152f5:	00 
   152f6:	48 8d 05 43 d2 00 00 	lea    0xd243(%rip),%rax        # 22540 <g_426>
   152fd:	8b 04 02             	mov    (%rdx,%rax,1),%eax
   15300:	48 98                	cltq   
   15302:	e9 94 39 00 00       	jmpq   18c9b <func_43+0x49be>
   15307:	0f b7 05 56 ce 00 00 	movzwl 0xce56(%rip),%eax        # 22164 <g_84+0x4>
   1530e:	83 c0 01             	add    $0x1,%eax
   15311:	66 89 05 4c ce 00 00 	mov    %ax,0xce4c(%rip)        # 22164 <g_84+0x4>
   15318:	0f b7 05 45 ce 00 00 	movzwl 0xce45(%rip),%eax        # 22164 <g_84+0x4>
   1531f:	66 85 c0             	test   %ax,%ax
   15322:	0f 84 74 fd ff ff    	je     1509c <func_43+0xdbf>
   15328:	c7 05 22 ce 00 00 08 	movl   $0x8,0xce22(%rip)        # 22154 <g_65>
   1532f:	00 00 00 
   15332:	e9 dc 03 00 00       	jmpq   15713 <func_43+0x1436>
   15337:	c7 85 e4 e2 ff ff f9 	movl   $0xfffffff9,-0x1d1c(%rbp)
   1533e:	ff ff ff 
   15341:	c7 05 2d d2 00 00 07 	movl   $0x7,0xd22d(%rip)        # 22578 <g_428+0x8>
   15348:	00 00 00 
   1534b:	e9 a6 03 00 00       	jmpq   156f6 <func_43+0x1419>
   15350:	48 8d 05 41 d2 00 00 	lea    0xd241(%rip),%rax        # 22598 <g_660>
   15357:	48 89 85 f0 e5 ff ff 	mov    %rax,-0x1a10(%rbp)
   1535e:	48 8b 05 1b 05 01 00 	mov    0x1051b(%rip),%rax        # 25880 <g_1053>
   15365:	48 8b 00             	mov    (%rax),%rax
   15368:	0f b6 00             	movzbl (%rax),%eax
   1536b:	0f b6 d8             	movzbl %al,%ebx
   1536e:	8b 05 04 ce 00 00    	mov    0xce04(%rip),%eax        # 22178 <g_84+0x18>
   15374:	8d 50 04             	lea    0x4(%rax),%edx
   15377:	8b 0d 0b d2 00 00    	mov    0xd20b(%rip),%ecx        # 22588 <g_428+0x18>
   1537d:	8b 05 05 d2 00 00    	mov    0xd205(%rip),%eax        # 22588 <g_428+0x18>
   15383:	83 c0 04             	add    $0x4,%eax
   15386:	89 c6                	mov    %eax,%esi
   15388:	89 d2                	mov    %edx,%edx
   1538a:	89 c9                	mov    %ecx,%ecx
   1538c:	48 89 d0             	mov    %rdx,%rax
   1538f:	48 c1 e0 03          	shl    $0x3,%rax
   15393:	48 29 d0             	sub    %rdx,%rax
   15396:	48 01 c0             	add    %rax,%rax
   15399:	48 89 ca             	mov    %rcx,%rdx
   1539c:	48 c1 e2 03          	shl    $0x3,%rdx
   153a0:	48 29 ca             	sub    %rcx,%rdx
   153a3:	48 01 d0             	add    %rdx,%rax
   153a6:	48 8d 14 30          	lea    (%rax,%rsi,1),%rdx
   153aa:	48 8d 05 4f cd 00 00 	lea    0xcd4f(%rip),%rax        # 22100 <g_55>
   153b1:	48 01 d0             	add    %rdx,%rax
   153b4:	0f b6 00             	movzbl (%rax),%eax
   153b7:	0f be c8             	movsbl %al,%ecx
   153ba:	8b 05 c8 d1 00 00    	mov    0xd1c8(%rip),%eax        # 22588 <g_428+0x18>
   153c0:	8d 50 02             	lea    0x2(%rax),%edx
   153c3:	8b 35 bf d1 00 00    	mov    0xd1bf(%rip),%esi        # 22588 <g_428+0x18>
   153c9:	8b 05 b9 d1 00 00    	mov    0xd1b9(%rip),%eax        # 22588 <g_428+0x18>
   153cf:	83 c0 02             	add    $0x2,%eax
   153d2:	89 c7                	mov    %eax,%edi
   153d4:	89 d2                	mov    %edx,%edx
   153d6:	89 f6                	mov    %esi,%esi
   153d8:	48 89 d0             	mov    %rdx,%rax
   153db:	48 c1 e0 03          	shl    $0x3,%rax
   153df:	48 29 d0             	sub    %rdx,%rax
   153e2:	48 01 c0             	add    %rax,%rax
   153e5:	48 89 f2             	mov    %rsi,%rdx
   153e8:	48 c1 e2 03          	shl    $0x3,%rdx
   153ec:	48 29 f2             	sub    %rsi,%rdx
   153ef:	48 01 d0             	add    %rdx,%rax
   153f2:	48 8d 14 38          	lea    (%rax,%rdi,1),%rdx
   153f6:	48 8d 05 03 cd 00 00 	lea    0xcd03(%rip),%rax        # 22100 <g_55>
   153fd:	48 01 d0             	add    %rdx,%rax
   15400:	0f b6 00             	movzbl (%rax),%eax
   15403:	0f be c0             	movsbl %al,%eax
   15406:	89 ce                	mov    %ecx,%esi
   15408:	89 c7                	mov    %eax,%edi
   1540a:	e8 22 4e ff ff       	callq  a231 <safe_mod_func_int8_t_s_s>
   1540f:	44 0f be e0          	movsbl %al,%r12d
   15413:	8b 85 c8 e1 ff ff    	mov    -0x1e38(%rbp),%eax
   15419:	8d 50 04             	lea    0x4(%rax),%edx
   1541c:	8b 05 56 cd 00 00    	mov    0xcd56(%rip),%eax        # 22178 <g_84+0x18>
   15422:	83 c0 04             	add    $0x4,%eax
   15425:	89 c6                	mov    %eax,%esi
   15427:	48 63 d2             	movslq %edx,%rdx
   1542a:	8b 85 c8 e1 ff ff    	mov    -0x1e38(%rbp),%eax
   15430:	48 63 c8             	movslq %eax,%rcx
   15433:	48 89 d0             	mov    %rdx,%rax
   15436:	48 c1 e0 03          	shl    $0x3,%rax
   1543a:	48 29 d0             	sub    %rdx,%rax
   1543d:	48 01 c0             	add    %rax,%rax
   15440:	48 89 ca             	mov    %rcx,%rdx
   15443:	48 c1 e2 03          	shl    $0x3,%rdx
   15447:	48 29 ca             	sub    %rcx,%rdx
   1544a:	48 01 d0             	add    %rdx,%rax
   1544d:	48 8d 14 30          	lea    (%rax,%rsi,1),%rdx
   15451:	48 8d 05 a8 cc 00 00 	lea    0xcca8(%rip),%rax        # 22100 <g_55>
   15458:	48 01 d0             	add    %rdx,%rax
   1545b:	0f b6 00             	movzbl (%rax),%eax
   1545e:	44 0f b6 e8          	movzbl %al,%r13d
   15462:	48 8b 05 27 f3 00 00 	mov    0xf327(%rip),%rax        # 24790 <g_150>
   15469:	0f b6 00             	movzbl (%rax),%eax
   1546c:	0f b6 c0             	movzbl %al,%eax
   1546f:	be 07 00 00 00       	mov    $0x7,%esi
   15474:	89 c7                	mov    %eax,%edi
   15476:	e8 8a 57 ff ff       	callq  ac05 <safe_lshift_func_uint8_t_u_s>
   1547b:	8b 85 c8 e1 ff ff    	mov    -0x1e38(%rbp),%eax
   15481:	83 c0 02             	add    $0x2,%eax
   15484:	48 98                	cltq   
   15486:	48 8d 14 85 00 00 00 	lea    0x0(,%rax,4),%rdx
   1548d:	00 
   1548e:	48 8d 05 ab d0 00 00 	lea    0xd0ab(%rip),%rax        # 22540 <g_426>
   15495:	8b 04 02             	mov    (%rdx,%rax,1),%eax
   15498:	0f b6 c0             	movzbl %al,%eax
   1549b:	be 01 00 00 00       	mov    $0x1,%esi
   154a0:	89 c7                	mov    %eax,%edi
   154a2:	e8 d1 56 ff ff       	callq  ab78 <safe_sub_func_uint8_t_u_u>
   154a7:	c7 85 e0 e2 ff ff 01 	movl   $0x1,-0x1d20(%rbp)
   154ae:	00 00 00 
   154b1:	8b 85 c8 e1 ff ff    	mov    -0x1e38(%rbp),%eax
   154b7:	83 c0 02             	add    $0x2,%eax
   154ba:	48 63 d0             	movslq %eax,%rdx
   154bd:	48 8d 34 95 00 00 00 	lea    0x0(,%rdx,4),%rsi
   154c4:	00 
   154c5:	48 8d 0d 74 d0 00 00 	lea    0xd074(%rip),%rcx        # 22540 <g_426>
   154cc:	8b 95 e0 e2 ff ff    	mov    -0x1d20(%rbp),%edx
   154d2:	89 14 0e             	mov    %edx,(%rsi,%rcx,1)
   154d5:	48 98                	cltq   
   154d7:	48 8d 14 85 00 00 00 	lea    0x0(,%rax,4),%rdx
   154de:	00 
   154df:	48 8d 05 5a d0 00 00 	lea    0xd05a(%rip),%rax        # 22540 <g_426>
   154e6:	8b 04 02             	mov    (%rdx,%rax,1),%eax
   154e9:	89 c6                	mov    %eax,%esi
   154eb:	bf 7e 45 00 00       	mov    $0x457e,%edi
   154f0:	e8 35 50 ff ff       	callq  a52a <safe_rshift_func_int16_t_s_s>
   154f5:	98                   	cwtl   
   154f6:	44 31 e8             	xor    %r13d,%eax
   154f9:	f7 d0                	not    %eax
   154fb:	41 39 c4             	cmp    %eax,%r12d
   154fe:	0f 95 c0             	setne  %al
   15501:	0f b6 c0             	movzbl %al,%eax
   15504:	89 de                	mov    %ebx,%esi
   15506:	89 c7                	mov    %eax,%edi
   15508:	e8 3f 57 ff ff       	callq  ac4c <safe_lshift_func_uint8_t_u_u>
   1550d:	0f b6 c0             	movzbl %al,%eax
   15510:	ba f8 ff ff ff       	mov    $0xfffffff8,%edx
   15515:	39 d0                	cmp    %edx,%eax
   15517:	0f 95 c0             	setne  %al
   1551a:	0f b6 c0             	movzbl %al,%eax
   1551d:	ba f8 ff ff ff       	mov    $0xfffffff8,%edx
   15522:	39 d0                	cmp    %edx,%eax
   15524:	0f 94 c0             	sete   %al
   15527:	0f b6 c0             	movzbl %al,%eax
   1552a:	31 85 d4 e1 ff ff    	xor    %eax,-0x1e2c(%rbp)
   15530:	48 0f bf 9d 5c e1 ff 	movswq -0x1ea4(%rbp),%rbx
   15537:	ff 
   15538:	0f b7 85 5c e1 ff ff 	movzwl -0x1ea4(%rbp),%eax
   1553f:	0f b6 c0             	movzbl %al,%eax
   15542:	89 c6                	mov    %eax,%esi
   15544:	bf 00 00 00 00       	mov    $0x0,%edi
   15549:	e8 45 56 ff ff       	callq  ab93 <safe_mul_func_uint8_t_u_u>
   1554e:	0f b6 d0             	movzbl %al,%edx
   15551:	48 8b 85 10 e3 ff ff 	mov    -0x1cf0(%rbp),%rax
   15558:	48 8b 00             	mov    (%rax),%rax
   1555b:	8b 00                	mov    (%rax),%eax
   1555d:	21 d0                	and    %edx,%eax
   1555f:	44 0f b7 e0          	movzwl %ax,%r12d
   15563:	48 8b 85 80 e3 ff ff 	mov    -0x1c80(%rbp),%rax
   1556a:	48 8b 00             	mov    (%rax),%rax
   1556d:	8b 00                	mov    (%rax),%eax
   1556f:	0f be c0             	movsbl %al,%eax
   15572:	89 c6                	mov    %eax,%esi
   15574:	bf 01 00 00 00       	mov    $0x1,%edi
   15579:	e8 94 4c ff ff       	callq  a212 <safe_mul_func_int8_t_s_s>
   1557e:	66 98                	cbtw   
   15580:	0f b7 c0             	movzwl %ax,%eax
   15583:	44 89 e6             	mov    %r12d,%esi
   15586:	89 c7                	mov    %eax,%edi
   15588:	e8 72 57 ff ff       	callq  acff <safe_add_func_uint16_t_u_u>
   1558d:	8b 05 e5 cb 00 00    	mov    0xcbe5(%rip),%eax        # 22178 <g_84+0x18>
   15593:	44 8d 40 04          	lea    0x4(%rax),%r8d
   15597:	8b 3d db cb 00 00    	mov    0xcbdb(%rip),%edi        # 22178 <g_84+0x18>
   1559d:	8b 05 d5 cb 00 00    	mov    0xcbd5(%rip),%eax        # 22178 <g_84+0x18>
   155a3:	44 8d 48 04          	lea    0x4(%rax),%r9d
   155a7:	44 89 ce             	mov    %r9d,%esi
   155aa:	44 89 c2             	mov    %r8d,%edx
   155ad:	89 f9                	mov    %edi,%ecx
   155af:	48 89 d0             	mov    %rdx,%rax
   155b2:	48 c1 e0 03          	shl    $0x3,%rax
   155b6:	48 29 d0             	sub    %rdx,%rax
   155b9:	48 01 c0             	add    %rax,%rax
   155bc:	48 89 ca             	mov    %rcx,%rdx
   155bf:	48 c1 e2 03          	shl    $0x3,%rdx
   155c3:	48 29 ca             	sub    %rcx,%rdx
   155c6:	48 01 d0             	add    %rdx,%rax
   155c9:	48 8d 14 30          	lea    (%rax,%rsi,1),%rdx
   155cd:	48 8d 05 2c cb 00 00 	lea    0xcb2c(%rip),%rax        # 22100 <g_55>
   155d4:	48 01 d0             	add    %rdx,%rax
   155d7:	0f b6 08             	movzbl (%rax),%ecx
   155da:	8d 71 ff             	lea    -0x1(%rcx),%esi
   155dd:	45 89 c9             	mov    %r9d,%r9d
   155e0:	44 89 c2             	mov    %r8d,%edx
   155e3:	89 ff                	mov    %edi,%edi
   155e5:	48 89 d0             	mov    %rdx,%rax
   155e8:	48 c1 e0 03          	shl    $0x3,%rax
   155ec:	48 29 d0             	sub    %rdx,%rax
   155ef:	48 01 c0             	add    %rax,%rax
   155f2:	48 89 fa             	mov    %rdi,%rdx
   155f5:	48 c1 e2 03          	shl    $0x3,%rdx
   155f9:	48 29 fa             	sub    %rdi,%rdx
   155fc:	48 01 d0             	add    %rdx,%rax
   155ff:	4a 8d 14 08          	lea    (%rax,%r9,1),%rdx
   15603:	48 8d 05 f6 ca 00 00 	lea    0xcaf6(%rip),%rax        # 22100 <g_55>
   1560a:	48 01 d0             	add    %rdx,%rax
   1560d:	40 88 30             	mov    %sil,(%rax)
   15610:	0f b6 c1             	movzbl %cl,%eax
   15613:	be f6 00 00 00       	mov    $0xf6,%esi
   15618:	89 c7                	mov    %eax,%edi
   1561a:	e8 2d 56 ff ff       	callq  ac4c <safe_lshift_func_uint8_t_u_u>
   1561f:	b8 01 00 00 00       	mov    $0x1,%eax
   15624:	89 c2                	mov    %eax,%edx
   15626:	48 8b 85 f0 e5 ff ff 	mov    -0x1a10(%rbp),%rax
   1562d:	89 10                	mov    %edx,(%rax)
   1562f:	8b 85 c8 e1 ff ff    	mov    -0x1e38(%rbp),%eax
   15635:	83 c0 02             	add    $0x2,%eax
   15638:	48 98                	cltq   
   1563a:	48 8d 14 85 00 00 00 	lea    0x0(,%rax,4),%rdx
   15641:	00 
   15642:	48 8d 05 f7 ce 00 00 	lea    0xcef7(%rip),%rax        # 22540 <g_426>
   15649:	8b 04 02             	mov    (%rdx,%rax,1),%eax
   1564c:	85 c0                	test   %eax,%eax
   1564e:	74 11                	je     15661 <func_43+0x1384>
   15650:	66 83 bd 5c e1 ff ff 	cmpw   $0x0,-0x1ea4(%rbp)
   15657:	00 
   15658:	74 07                	je     15661 <func_43+0x1384>
   1565a:	b8 01 00 00 00       	mov    $0x1,%eax
   1565f:	eb 05                	jmp    15666 <func_43+0x1389>
   15661:	b8 00 00 00 00       	mov    $0x0,%eax
   15666:	48 98                	cltq   
   15668:	48 89 de             	mov    %rbx,%rsi
   1566b:	48 89 c7             	mov    %rax,%rdi
   1566e:	e8 41 53 ff ff       	callq  a9b4 <safe_mod_func_int64_t_s_s>
   15673:	48 8b 85 80 e3 ff ff 	mov    -0x1c80(%rbp),%rax
   1567a:	48 8b 00             	mov    (%rax),%rax
   1567d:	8b 10                	mov    (%rax),%edx
   1567f:	48 8b 05 fa 01 01 00 	mov    0x101fa(%rip),%rax        # 25880 <g_1053>
   15686:	48 8b 00             	mov    (%rax),%rax
   15689:	0f b6 00             	movzbl (%rax),%eax
   1568c:	0f b6 c0             	movzbl %al,%eax
   1568f:	39 c2                	cmp    %eax,%edx
   15691:	0f 94 c0             	sete   %al
   15694:	0f b6 c8             	movzbl %al,%ecx
   15697:	48 8b 05 aa 01 01 00 	mov    0x101aa(%rip),%rax        # 25848 <g_635>
   1569e:	48 8b 00             	mov    (%rax),%rax
   156a1:	0f b7 10             	movzwl (%rax),%edx
   156a4:	21 ca                	and    %ecx,%edx
   156a6:	66 89 10             	mov    %dx,(%rax)
   156a9:	0f b7 00             	movzwl (%rax),%eax
   156ac:	98                   	cwtl   
   156ad:	39 85 dc e2 ff ff    	cmp    %eax,-0x1d24(%rbp)
   156b3:	0f 92 c0             	setb   %al
   156b6:	0f b6 c0             	movzbl %al,%eax
   156b9:	39 85 e0 e2 ff ff    	cmp    %eax,-0x1d20(%rbp)
   156bf:	0f 95 c2             	setne  %dl
   156c2:	48 8b 05 a7 04 01 00 	mov    0x104a7(%rip),%rax        # 25b70 <g_1164>
   156c9:	0f b6 d2             	movzbl %dl,%edx
   156cc:	89 10                	mov    %edx,(%rax)
   156ce:	66 83 bd 5c e1 ff ff 	cmpw   $0x0,-0x1ea4(%rbp)
   156d5:	00 
   156d6:	75 0e                	jne    156e6 <func_43+0x1409>
   156d8:	8b 85 d4 e1 ff ff    	mov    -0x1e2c(%rbp),%eax
   156de:	89 85 e0 e2 ff ff    	mov    %eax,-0x1d20(%rbp)
   156e4:	eb 01                	jmp    156e7 <func_43+0x140a>
   156e6:	90                   	nop
   156e7:	8b 05 8b ce 00 00    	mov    0xce8b(%rip),%eax        # 22578 <g_428+0x8>
   156ed:	83 e8 01             	sub    $0x1,%eax
   156f0:	89 05 82 ce 00 00    	mov    %eax,0xce82(%rip)        # 22578 <g_428+0x8>
   156f6:	8b 05 7c ce 00 00    	mov    0xce7c(%rip),%eax        # 22578 <g_428+0x8>
   156fc:	85 c0                	test   %eax,%eax
   156fe:	0f 89 4c fc ff ff    	jns    15350 <func_43+0x1073>
   15704:	8b 05 4a ca 00 00    	mov    0xca4a(%rip),%eax        # 22154 <g_65>
   1570a:	83 e8 01             	sub    $0x1,%eax
   1570d:	89 05 41 ca 00 00    	mov    %eax,0xca41(%rip)        # 22154 <g_65>
   15713:	8b 05 3b ca 00 00    	mov    0xca3b(%rip),%eax        # 22154 <g_65>
   15719:	85 c0                	test   %eax,%eax
   1571b:	0f 89 16 fc ff ff    	jns    15337 <func_43+0x105a>
   15721:	48 8b 05 50 04 01 00 	mov    0x10450(%rip),%rax        # 25b78 <g_1165>
   15728:	48 8b 15 b9 c9 00 00 	mov    0xc9b9(%rip),%rdx        # 220e8 <g_37>
   1572f:	48 89 10             	mov    %rdx,(%rax)
   15732:	0f b7 85 74 e8 ff ff 	movzwl -0x178c(%rbp),%eax
   15739:	83 e8 01             	sub    $0x1,%eax
   1573c:	66 89 85 74 e8 ff ff 	mov    %ax,-0x178c(%rbp)
   15743:	83 ad c8 e1 ff ff 01 	subl   $0x1,-0x1e38(%rbp)
   1574a:	83 bd c8 e1 ff ff 00 	cmpl   $0x0,-0x1e38(%rbp)
   15751:	0f 89 df f8 ff ff    	jns    15036 <func_43+0xd59>
   15757:	c7 05 fb c9 00 00 00 	movl   $0x0,0xc9fb(%rip)        # 2215c <g_83>
   1575e:	00 00 00 
   15761:	90                   	nop
   15762:	8b 05 f4 c9 00 00    	mov    0xc9f4(%rip),%eax        # 2215c <g_83>
   15768:	83 f8 01             	cmp    $0x1,%eax
   1576b:	77 13                	ja     15780 <func_43+0x14a3>
   1576d:	48 8b 85 10 e3 ff ff 	mov    -0x1cf0(%rbp),%rax
   15774:	48 8b 00             	mov    (%rax),%rax
   15777:	8b 00                	mov    (%rax),%eax
   15779:	48 98                	cltq   
   1577b:	e9 1b 35 00 00       	jmpq   18c9b <func_43+0x49be>
   15780:	c7 05 0e ce 00 00 00 	movl   $0x0,0xce0e(%rip)        # 22598 <g_660>
   15787:	00 00 00 
   1578a:	e9 15 07 00 00       	jmpq   15ea4 <func_43+0x1bc7>
   1578f:	c7 85 bc e2 ff ff 84 	movl   $0x4e880184,-0x1d44(%rbp)
   15796:	01 88 4e 
   15799:	c7 85 c0 e2 ff ff 00 	movl   $0x0,-0x1d40(%rbp)
   157a0:	00 00 00 
   157a3:	c7 85 c4 e2 ff ff c7 	movl   $0xe951f1c7,-0x1d3c(%rbp)
   157aa:	f1 51 e9 
   157ad:	48 c7 85 90 e5 ff ff 	movq   $0x4,-0x1a70(%rbp)
   157b4:	04 00 00 00 
   157b8:	c7 85 c8 e2 ff ff cd 	movl   $0xc5df8acd,-0x1d38(%rbp)
   157bf:	8a df c5 
   157c2:	c7 85 cc e2 ff ff ff 	movl   $0xffffffff,-0x1d34(%rbp)
   157c9:	ff ff ff 
   157cc:	c7 85 d0 e2 ff ff fc 	movl   $0xfffffffc,-0x1d30(%rbp)
   157d3:	ff ff ff 
   157d6:	48 8d 05 ab fe 00 00 	lea    0xfeab(%rip),%rax        # 25688 <g_362+0x88>
   157dd:	48 89 85 98 e5 ff ff 	mov    %rax,-0x1a68(%rbp)
   157e4:	c6 85 73 e1 ff ff 00 	movb   $0x0,-0x1e8d(%rbp)
   157eb:	48 8d 05 ae 13 01 00 	lea    0x113ae(%rip),%rax        # 26ba0 <g_1129>
   157f2:	48 89 85 a0 e5 ff ff 	mov    %rax,-0x1a60(%rbp)
   157f9:	83 bd bc e2 ff ff 00 	cmpl   $0x0,-0x1d44(%rbp)
   15800:	0f 84 82 03 00 00    	je     15b88 <func_43+0x18ab>
   15806:	48 b8 6a cd 28 89 59 	movabs $0x977bef598928cd6a,%rax
   1580d:	ef 7b 97 
   15810:	48 89 85 d8 e5 ff ff 	mov    %rax,-0x1a28(%rbp)
   15817:	c7 85 d4 e2 ff ff b1 	movl   $0x4ca4d8b1,-0x1d2c(%rbp)
   1581e:	d8 a4 4c 
   15821:	c7 85 dc e1 ff ff 00 	movl   $0x0,-0x1e24(%rbp)
   15828:	00 00 00 
   1582b:	eb 1e                	jmp    1584b <func_43+0x156e>
   1582d:	8b 85 dc e1 ff ff    	mov    -0x1e24(%rbp),%eax
   15833:	48 98                	cltq   
   15835:	48 8d 15 04 cd 00 00 	lea    0xcd04(%rip),%rdx        # 22540 <g_426>
   1583c:	48 89 94 c5 00 eb ff 	mov    %rdx,-0x1500(%rbp,%rax,8)
   15843:	ff 
   15844:	83 85 dc e1 ff ff 01 	addl   $0x1,-0x1e24(%rbp)
   1584b:	83 bd dc e1 ff ff 08 	cmpl   $0x8,-0x1e24(%rbp)
   15852:	7e d9                	jle    1582d <func_43+0x1550>
   15854:	66 83 bd 5c e1 ff ff 	cmpw   $0x0,-0x1ea4(%rbp)
   1585b:	00 
   1585c:	74 2b                	je     15889 <func_43+0x15ac>
   1585e:	c7 85 d8 e2 ff ff a2 	movl   $0xbb527ea2,-0x1d28(%rbp)
   15865:	7e 52 bb 
   15868:	0f bf 85 5c e1 ff ff 	movswl -0x1ea4(%rbp),%eax
   1586f:	89 85 e0 f7 ff ff    	mov    %eax,-0x820(%rbp)
   15875:	8b 85 d8 e2 ff ff    	mov    -0x1d28(%rbp),%eax
   1587b:	48 98                	cltq   
   1587d:	48 89 85 d8 e5 ff ff 	mov    %rax,-0x1a28(%rbp)
   15884:	e9 ea 02 00 00       	jmpq   15b73 <func_43+0x1896>
   15889:	48 8d 85 90 e1 ff ff 	lea    -0x1e70(%rbp),%rax
   15890:	48 89 85 e0 e5 ff ff 	mov    %rax,-0x1a20(%rbp)
   15897:	48 c7 85 e8 e5 ff ff 	movq   $0x0,-0x1a18(%rbp)
   1589e:	00 00 00 00 
   158a2:	48 8d 05 37 c8 00 00 	lea    0xc837(%rip),%rax        # 220e0 <g_6>
   158a9:	48 89 85 50 e9 ff ff 	mov    %rax,-0x16b0(%rbp)
   158b0:	48 8d 05 29 c8 00 00 	lea    0xc829(%rip),%rax        # 220e0 <g_6>
   158b7:	48 89 85 58 e9 ff ff 	mov    %rax,-0x16a8(%rbp)
   158be:	48 8d 05 1b c8 00 00 	lea    0xc81b(%rip),%rax        # 220e0 <g_6>
   158c5:	48 89 85 60 e9 ff ff 	mov    %rax,-0x16a0(%rbp)
   158cc:	48 8d 05 0d c8 00 00 	lea    0xc80d(%rip),%rax        # 220e0 <g_6>
   158d3:	48 89 85 68 e9 ff ff 	mov    %rax,-0x1698(%rbp)
   158da:	48 8d 85 80 e3 ff ff 	lea    -0x1c80(%rbp),%rax
   158e1:	48 89 85 88 e3 ff ff 	mov    %rax,-0x1c78(%rbp)
   158e8:	48 8d 85 88 e3 ff ff 	lea    -0x1c78(%rbp),%rax
   158ef:	48 89 85 b0 ed ff ff 	mov    %rax,-0x1250(%rbp)
   158f6:	48 8d 85 88 e3 ff ff 	lea    -0x1c78(%rbp),%rax
   158fd:	48 89 85 b8 ed ff ff 	mov    %rax,-0x1248(%rbp)
   15904:	48 8d 85 88 e3 ff ff 	lea    -0x1c78(%rbp),%rax
   1590b:	48 89 85 c0 ed ff ff 	mov    %rax,-0x1240(%rbp)
   15912:	48 8d 85 88 e3 ff ff 	lea    -0x1c78(%rbp),%rax
   15919:	48 89 85 c8 ed ff ff 	mov    %rax,-0x1238(%rbp)
   15920:	48 8d 85 88 e3 ff ff 	lea    -0x1c78(%rbp),%rax
   15927:	48 89 85 d0 ed ff ff 	mov    %rax,-0x1230(%rbp)
   1592e:	48 8d 85 88 e3 ff ff 	lea    -0x1c78(%rbp),%rax
   15935:	48 89 85 d8 ed ff ff 	mov    %rax,-0x1228(%rbp)
   1593c:	48 8d 85 88 e3 ff ff 	lea    -0x1c78(%rbp),%rax
   15943:	48 89 85 e0 ed ff ff 	mov    %rax,-0x1220(%rbp)
   1594a:	48 8d 85 88 e3 ff ff 	lea    -0x1c78(%rbp),%rax
   15951:	48 89 85 e8 ed ff ff 	mov    %rax,-0x1218(%rbp)
   15958:	48 8d 85 88 e3 ff ff 	lea    -0x1c78(%rbp),%rax
   1595f:	48 89 85 f0 ed ff ff 	mov    %rax,-0x1210(%rbp)
   15966:	48 8d 85 88 e3 ff ff 	lea    -0x1c78(%rbp),%rax
   1596d:	48 89 85 f8 ed ff ff 	mov    %rax,-0x1208(%rbp)
   15974:	48 8d 85 88 e3 ff ff 	lea    -0x1c78(%rbp),%rax
   1597b:	48 89 85 00 ee ff ff 	mov    %rax,-0x1200(%rbp)
   15982:	48 8d 85 88 e3 ff ff 	lea    -0x1c78(%rbp),%rax
   15989:	48 89 85 08 ee ff ff 	mov    %rax,-0x11f8(%rbp)
   15990:	48 8d 85 88 e3 ff ff 	lea    -0x1c78(%rbp),%rax
   15997:	48 89 85 10 ee ff ff 	mov    %rax,-0x11f0(%rbp)
   1599e:	48 8d 85 88 e3 ff ff 	lea    -0x1c78(%rbp),%rax
   159a5:	48 89 85 18 ee ff ff 	mov    %rax,-0x11e8(%rbp)
   159ac:	48 8d 85 88 e3 ff ff 	lea    -0x1c78(%rbp),%rax
   159b3:	48 89 85 20 ee ff ff 	mov    %rax,-0x11e0(%rbp)
   159ba:	48 8d 85 88 e3 ff ff 	lea    -0x1c78(%rbp),%rax
   159c1:	48 89 85 28 ee ff ff 	mov    %rax,-0x11d8(%rbp)
   159c8:	48 8d 85 88 e3 ff ff 	lea    -0x1c78(%rbp),%rax
   159cf:	48 89 85 30 ee ff ff 	mov    %rax,-0x11d0(%rbp)
   159d6:	48 8d 85 88 e3 ff ff 	lea    -0x1c78(%rbp),%rax
   159dd:	48 89 85 38 ee ff ff 	mov    %rax,-0x11c8(%rbp)
   159e4:	48 8d 85 88 e3 ff ff 	lea    -0x1c78(%rbp),%rax
   159eb:	48 89 85 40 ee ff ff 	mov    %rax,-0x11c0(%rbp)
   159f2:	48 8d 85 88 e3 ff ff 	lea    -0x1c78(%rbp),%rax
   159f9:	48 89 85 48 ee ff ff 	mov    %rax,-0x11b8(%rbp)
   15a00:	48 c7 85 50 ee ff ff 	movq   $0x0,-0x11b0(%rbp)
   15a07:	00 00 00 00 
   15a0b:	48 8d 85 88 e3 ff ff 	lea    -0x1c78(%rbp),%rax
   15a12:	48 89 85 58 ee ff ff 	mov    %rax,-0x11a8(%rbp)
   15a19:	48 8d 85 88 e3 ff ff 	lea    -0x1c78(%rbp),%rax
   15a20:	48 89 85 60 ee ff ff 	mov    %rax,-0x11a0(%rbp)
   15a27:	48 8d 85 88 e3 ff ff 	lea    -0x1c78(%rbp),%rax
   15a2e:	48 89 85 68 ee ff ff 	mov    %rax,-0x1198(%rbp)
   15a35:	48 c7 85 70 ee ff ff 	movq   $0x0,-0x1190(%rbp)
   15a3c:	00 00 00 00 
   15a40:	48 8d 85 88 e3 ff ff 	lea    -0x1c78(%rbp),%rax
   15a47:	48 89 85 78 ee ff ff 	mov    %rax,-0x1188(%rbp)
   15a4e:	48 8d 85 88 e3 ff ff 	lea    -0x1c78(%rbp),%rax
   15a55:	48 89 85 80 ee ff ff 	mov    %rax,-0x1180(%rbp)
   15a5c:	48 8d 85 88 e3 ff ff 	lea    -0x1c78(%rbp),%rax
   15a63:	48 89 85 88 ee ff ff 	mov    %rax,-0x1178(%rbp)
   15a6a:	48 8d 85 88 e3 ff ff 	lea    -0x1c78(%rbp),%rax
   15a71:	48 89 85 90 ee ff ff 	mov    %rax,-0x1170(%rbp)
   15a78:	48 8d 85 88 e3 ff ff 	lea    -0x1c78(%rbp),%rax
   15a7f:	48 89 85 98 ee ff ff 	mov    %rax,-0x1168(%rbp)
   15a86:	48 8d 85 88 e3 ff ff 	lea    -0x1c78(%rbp),%rax
   15a8d:	48 89 85 a0 ee ff ff 	mov    %rax,-0x1160(%rbp)
   15a94:	48 8d 85 88 e3 ff ff 	lea    -0x1c78(%rbp),%rax
   15a9b:	48 89 85 a8 ee ff ff 	mov    %rax,-0x1158(%rbp)
   15aa2:	48 8d 85 88 e3 ff ff 	lea    -0x1c78(%rbp),%rax
   15aa9:	48 89 85 b0 ee ff ff 	mov    %rax,-0x1150(%rbp)
   15ab0:	48 c7 85 b8 ee ff ff 	movq   $0x0,-0x1148(%rbp)
   15ab7:	00 00 00 00 
   15abb:	48 8d 85 88 e3 ff ff 	lea    -0x1c78(%rbp),%rax
   15ac2:	48 89 85 c0 ee ff ff 	mov    %rax,-0x1140(%rbp)
   15ac9:	48 8d 85 88 e3 ff ff 	lea    -0x1c78(%rbp),%rax
   15ad0:	48 89 85 c8 ee ff ff 	mov    %rax,-0x1138(%rbp)
   15ad7:	48 8d 85 88 e3 ff ff 	lea    -0x1c78(%rbp),%rax
   15ade:	48 89 85 d0 ee ff ff 	mov    %rax,-0x1130(%rbp)
   15ae5:	48 8d 85 88 e3 ff ff 	lea    -0x1c78(%rbp),%rax
   15aec:	48 89 85 d8 ee ff ff 	mov    %rax,-0x1128(%rbp)
   15af3:	48 8d 85 88 e3 ff ff 	lea    -0x1c78(%rbp),%rax
   15afa:	48 89 85 e0 ee ff ff 	mov    %rax,-0x1120(%rbp)
   15b01:	48 8d 85 88 e3 ff ff 	lea    -0x1c78(%rbp),%rax
   15b08:	48 89 85 e8 ee ff ff 	mov    %rax,-0x1118(%rbp)
   15b0f:	48 8d 85 88 e3 ff ff 	lea    -0x1c78(%rbp),%rax
   15b16:	48 89 85 f0 ee ff ff 	mov    %rax,-0x1110(%rbp)
   15b1d:	48 c7 85 f8 ee ff ff 	movq   $0x0,-0x1108(%rbp)
   15b24:	00 00 00 00 
   15b28:	48 8d 85 88 e3 ff ff 	lea    -0x1c78(%rbp),%rax
   15b2f:	48 89 85 00 ef ff ff 	mov    %rax,-0x1100(%rbp)
   15b36:	48 8d 85 88 e3 ff ff 	lea    -0x1c78(%rbp),%rax
   15b3d:	48 89 85 08 ef ff ff 	mov    %rax,-0x10f8(%rbp)
   15b44:	48 c7 85 10 ef ff ff 	movq   $0x0,-0x10f0(%rbp)
   15b4b:	00 00 00 00 
   15b4f:	48 83 ad 90 e5 ff ff 	subq   $0x1,-0x1a70(%rbp)
   15b56:	01 
   15b57:	48 8b 85 88 e3 ff ff 	mov    -0x1c78(%rbp),%rax
   15b5e:	48 89 05 1b 00 01 00 	mov    %rax,0x1001b(%rip)        # 25b80 <g_1193>
   15b65:	66 83 bd 5c e1 ff ff 	cmpw   $0x0,-0x1ea4(%rbp)
   15b6c:	00 
   15b6d:	0f 85 22 03 00 00    	jne    15e95 <func_43+0x1bb8>
   15b73:	0f b6 85 72 e1 ff ff 	movzbl -0x1e8e(%rbp),%eax
   15b7a:	83 e8 01             	sub    $0x1,%eax
   15b7d:	88 85 72 e1 ff ff    	mov    %al,-0x1e8e(%rbp)
   15b83:	e9 0d 03 00 00       	jmpq   15e95 <func_43+0x1bb8>
   15b88:	48 8d 05 71 fb 00 00 	lea    0xfb71(%rip),%rax        # 25700 <g_362+0x100>
   15b8f:	48 89 85 a8 e5 ff ff 	mov    %rax,-0x1a58(%rbp)
   15b96:	c7 85 88 e3 ff ff fe 	movl   $0xc376b0fe,-0x1c78(%rbp)
   15b9d:	b0 76 c3 
   15ba0:	48 8d 85 d0 f7 ff ff 	lea    -0x830(%rbp),%rax
   15ba7:	48 83 c0 10          	add    $0x10,%rax
   15bab:	48 89 85 b0 e5 ff ff 	mov    %rax,-0x1a50(%rbp)
   15bb2:	48 83 bd a8 e5 ff ff 	cmpq   $0x0,-0x1a58(%rbp)
   15bb9:	00 
   15bba:	0f 94 c0             	sete   %al
   15bbd:	0f b6 c0             	movzbl %al,%eax
   15bc0:	89 85 a4 e1 ff ff    	mov    %eax,-0x1e5c(%rbp)
   15bc6:	8b 85 a4 e1 ff ff    	mov    -0x1e5c(%rbp),%eax
   15bcc:	85 c0                	test   %eax,%eax
   15bce:	74 0d                	je     15bdd <func_43+0x1900>
   15bd0:	48 0f bf 85 5c e1 ff 	movswq -0x1ea4(%rbp),%rax
   15bd7:	ff 
   15bd8:	e9 be 30 00 00       	jmpq   18c9b <func_43+0x49be>
   15bdd:	48 c7 85 b8 e5 ff ff 	movq   $0x5,-0x1a48(%rbp)
   15be4:	05 00 00 00 
   15be8:	48 8d 05 c9 c9 00 00 	lea    0xc9c9(%rip),%rax        # 225b8 <g_843+0x18>
   15bef:	48 89 85 c0 e5 ff ff 	mov    %rax,-0x1a40(%rbp)
   15bf6:	48 c7 85 c8 e5 ff ff 	movq   $0xfffffffffffffff6,-0x1a38(%rbp)
   15bfd:	f6 ff ff ff 
   15c01:	48 8b 85 c8 e5 ff ff 	mov    -0x1a38(%rbp),%rax
   15c08:	41 89 c4             	mov    %eax,%r12d
   15c0b:	48 8b 05 7e eb 00 00 	mov    0xeb7e(%rip),%rax        # 24790 <g_150>
   15c12:	0f b6 00             	movzbl (%rax),%eax
   15c15:	0f be d8             	movsbl %al,%ebx
   15c18:	48 8b 05 81 eb 00 00 	mov    0xeb81(%rip),%rax        # 247a0 <g_154>
   15c1f:	48 8b 00             	mov    (%rax),%rax
   15c22:	48 8b 00             	mov    (%rax),%rax
   15c25:	0f b6 00             	movzbl (%rax),%eax
   15c28:	0f b6 c0             	movzbl %al,%eax
   15c2b:	f7 d0                	not    %eax
   15c2d:	89 c6                	mov    %eax,%esi
   15c2f:	48 8b 85 c0 e5 ff ff 	mov    -0x1a40(%rbp),%rax
   15c36:	8b 00                	mov    (%rax),%eax
   15c38:	8d 48 ff             	lea    -0x1(%rax),%ecx
   15c3b:	48 8b 95 c0 e5 ff ff 	mov    -0x1a40(%rbp),%rdx
   15c42:	89 0a                	mov    %ecx,(%rdx)
   15c44:	21 f0                	and    %esi,%eax
   15c46:	89 c0                	mov    %eax,%eax
   15c48:	48 39 85 b8 e5 ff ff 	cmp    %rax,-0x1a48(%rbp)
   15c4f:	0f 9f c0             	setg   %al
   15c52:	0f b6 d0             	movzbl %al,%edx
   15c55:	8b 85 88 e3 ff ff    	mov    -0x1c78(%rbp),%eax
   15c5b:	21 d0                	and    %edx,%eax
   15c5d:	89 85 88 e3 ff ff    	mov    %eax,-0x1c78(%rbp)
   15c63:	48 8b 05 be f2 00 00 	mov    0xf2be(%rip),%rax        # 24f28 <g_207>
   15c6a:	0f b7 00             	movzwl (%rax),%eax
   15c6d:	66 3d 76 24          	cmp    $0x2476,%ax
   15c71:	0f 9f c0             	setg   %al
   15c74:	0f b6 c0             	movzbl %al,%eax
   15c77:	48 63 d0             	movslq %eax,%rdx
   15c7a:	48 8b 85 10 e3 ff ff 	mov    -0x1cf0(%rbp),%rax
   15c81:	48 8b 00             	mov    (%rax),%rax
   15c84:	8b 00                	mov    (%rax),%eax
   15c86:	48 98                	cltq   
   15c88:	48 b9 a7 47 03 21 8e 	movabs $0xd44d618e210347a7,%rcx
   15c8f:	61 4d d4 
   15c92:	48 09 c8             	or     %rcx,%rax
   15c95:	48 39 c2             	cmp    %rax,%rdx
   15c98:	0f 96 c0             	setbe  %al
   15c9b:	0f b6 c0             	movzbl %al,%eax
   15c9e:	be 1b bf ff ff       	mov    $0xffffbf1b,%esi
   15ca3:	89 c7                	mov    %eax,%edi
   15ca5:	e8 ab 47 ff ff       	callq  a455 <safe_div_func_int16_t_s_s>
   15caa:	66 39 85 5c e1 ff ff 	cmp    %ax,-0x1ea4(%rbp)
   15cb1:	0f 9f c0             	setg   %al
   15cb4:	0f b6 c0             	movzbl %al,%eax
   15cb7:	89 de                	mov    %ebx,%esi
   15cb9:	89 c7                	mov    %eax,%edi
   15cbb:	e8 32 45 ff ff       	callq  a1f2 <safe_sub_func_int8_t_s_s>
   15cc0:	0f be c0             	movsbl %al,%eax
   15cc3:	44 89 e6             	mov    %r12d,%esi
   15cc6:	89 c7                	mov    %eax,%edi
   15cc8:	e8 58 52 ff ff       	callq  af25 <safe_div_func_uint32_t_u_u>
   15ccd:	0f b7 d0             	movzwl %ax,%edx
   15cd0:	48 8b 85 10 e3 ff ff 	mov    -0x1cf0(%rbp),%rax
   15cd7:	48 8b 00             	mov    (%rax),%rax
   15cda:	48 85 c0             	test   %rax,%rax
   15cdd:	0f 94 c0             	sete   %al
   15ce0:	0f b6 c0             	movzbl %al,%eax
   15ce3:	89 d6                	mov    %edx,%esi
   15ce5:	89 c7                	mov    %eax,%edi
   15ce7:	e8 70 50 ff ff       	callq  ad5c <safe_mod_func_uint16_t_u_u>
   15cec:	bf 01 00 00 00       	mov    $0x1,%edi
   15cf1:	e8 98 3c 00 00       	callq  1998e <func_60>
   15cf6:	48 89 85 50 e3 ff ff 	mov    %rax,-0x1cb0(%rbp)
   15cfd:	48 8b 15 5c fb 00 00 	mov    0xfb5c(%rip),%rdx        # 25860 <g_706>
   15d04:	48 8b 05 55 fb 00 00 	mov    0xfb55(%rip),%rax        # 25860 <g_706>
   15d0b:	0f b7 12             	movzwl (%rdx),%edx
   15d0e:	66 89 10             	mov    %dx,(%rax)
   15d11:	0f b7 00             	movzwl (%rax),%eax
   15d14:	0f b7 c0             	movzwl %ax,%eax
   15d17:	be 00 00 00 00       	mov    $0x0,%esi
   15d1c:	89 c7                	mov    %eax,%edi
   15d1e:	e8 1a 50 ff ff       	callq  ad3d <safe_mul_func_uint16_t_u_u>
   15d23:	0f b7 d0             	movzwl %ax,%edx
   15d26:	48 83 bd 98 e5 ff ff 	cmpq   $0x0,-0x1a68(%rbp)
   15d2d:	00 
   15d2e:	0f 94 c0             	sete   %al
   15d31:	0f b6 c0             	movzbl %al,%eax
   15d34:	c1 e8 1f             	shr    $0x1f,%eax
   15d37:	0f b6 c0             	movzbl %al,%eax
   15d3a:	48 89 d6             	mov    %rdx,%rsi
   15d3d:	48 89 c7             	mov    %rax,%rdi
   15d40:	e8 e9 52 ff ff       	callq  b02e <safe_add_func_uint64_t_u_u>
   15d45:	0f b7 d8             	movzwl %ax,%ebx
   15d48:	48 8b 05 d9 f1 00 00 	mov    0xf1d9(%rip),%rax        # 24f28 <g_207>
   15d4f:	0f b7 00             	movzwl (%rax),%eax
   15d52:	0f bf d0             	movswl %ax,%edx
   15d55:	48 83 bd 50 e5 ff ff 	cmpq   $0x0,-0x1ab0(%rbp)
   15d5c:	00 
   15d5d:	0f 94 c0             	sete   %al
   15d60:	0f b6 c0             	movzbl %al,%eax
   15d63:	89 d6                	mov    %edx,%esi
   15d65:	89 c7                	mov    %eax,%edi
   15d67:	e8 47 46 ff ff       	callq  a3b3 <safe_add_func_int16_t_s_s>
   15d6c:	0f b7 c0             	movzwl %ax,%eax
   15d6f:	89 de                	mov    %ebx,%esi
   15d71:	89 c7                	mov    %eax,%edi
   15d73:	e8 16 50 ff ff       	callq  ad8e <safe_div_func_uint16_t_u_u>
   15d78:	66 85 c0             	test   %ax,%ax
   15d7b:	74 1c                	je     15d99 <func_43+0x1abc>
   15d7d:	48 8d 85 88 e3 ff ff 	lea    -0x1c78(%rbp),%rax
   15d84:	48 89 85 b0 e5 ff ff 	mov    %rax,-0x1a50(%rbp)
   15d8b:	66 c7 05 90 c6 00 00 	movw   $0x0,0xc690(%rip)        # 22424 <g_248+0x4>
   15d92:	00 00 
   15d94:	e9 9b 00 00 00       	jmpq   15e34 <func_43+0x1b57>
   15d99:	48 8b 85 80 e3 ff ff 	mov    -0x1c80(%rbp),%rax
   15da0:	48 8b 00             	mov    (%rax),%rax
   15da3:	8b 00                	mov    (%rax),%eax
   15da5:	85 c0                	test   %eax,%eax
   15da7:	0f 85 08 01 00 00    	jne    15eb5 <func_43+0x1bd8>
   15dad:	48 0f bf 85 86 e1 ff 	movswq -0x1e7a(%rbp),%rax
   15db4:	ff 
   15db5:	e9 e1 2e 00 00       	jmpq   18c9b <func_43+0x49be>
   15dba:	48 b8 7f b2 5e 89 6b 	movabs $0x1a06ce6b895eb27f,%rax
   15dc1:	ce 06 1a 
   15dc4:	48 89 85 d0 e5 ff ff 	mov    %rax,-0x1a30(%rbp)
   15dcb:	48 8b 85 80 e3 ff ff 	mov    -0x1c80(%rbp),%rax
   15dd2:	48 8b 00             	mov    (%rax),%rax
   15dd5:	8b 00                	mov    (%rax),%eax
   15dd7:	85 c0                	test   %eax,%eax
   15dd9:	75 6c                	jne    15e47 <func_43+0x1b6a>
   15ddb:	48 8b 05 ee f7 00 00 	mov    0xf7ee(%rip),%rax        # 255d0 <g_239>
   15de2:	48 8b 00             	mov    (%rax),%rax
   15de5:	8b 00                	mov    (%rax),%eax
   15de7:	85 c0                	test   %eax,%eax
   15de9:	75 5f                	jne    15e4a <func_43+0x1b6d>
   15deb:	0f bf 85 5c e1 ff ff 	movswl -0x1ea4(%rbp),%eax
   15df2:	89 c6                	mov    %eax,%esi
   15df4:	bf 01 00 00 00       	mov    $0x1,%edi
   15df9:	e8 8f 4e ff ff       	callq  ac8d <safe_rshift_func_uint8_t_u_s>
   15dfe:	20 85 73 e1 ff ff    	and    %al,-0x1e8d(%rbp)
   15e04:	0f b6 95 73 e1 ff ff 	movzbl -0x1e8d(%rbp),%edx
   15e0b:	0f bf 85 5c e1 ff ff 	movswl -0x1ea4(%rbp),%eax
   15e12:	39 c2                	cmp    %eax,%edx
   15e14:	0f 9f c0             	setg   %al
   15e17:	0f b6 d0             	movzbl %al,%edx
   15e1a:	48 8b 85 b0 e5 ff ff 	mov    -0x1a50(%rbp),%rax
   15e21:	89 10                	mov    %edx,(%rax)
   15e23:	0f b7 05 fa c5 00 00 	movzwl 0xc5fa(%rip),%eax        # 22424 <g_248+0x4>
   15e2a:	83 c0 01             	add    $0x1,%eax
   15e2d:	66 89 05 f0 c5 00 00 	mov    %ax,0xc5f0(%rip)        # 22424 <g_248+0x4>
   15e34:	0f b7 05 e9 c5 00 00 	movzwl 0xc5e9(%rip),%eax        # 22424 <g_248+0x4>
   15e3b:	66 83 f8 01          	cmp    $0x1,%ax
   15e3f:	0f 86 75 ff ff ff    	jbe    15dba <func_43+0x1add>
   15e45:	eb 04                	jmp    15e4b <func_43+0x1b6e>
   15e47:	90                   	nop
   15e48:	eb 01                	jmp    15e4b <func_43+0x1b6e>
   15e4a:	90                   	nop
   15e4b:	66 c7 05 5e c7 00 00 	movw   $0x1,0xc75e(%rip)        # 225b2 <g_843+0x12>
   15e52:	01 00 
   15e54:	eb 33                	jmp    15e89 <func_43+0x1bac>
   15e56:	8b 05 2c c7 00 00    	mov    0xc72c(%rip),%eax        # 22588 <g_428+0x18>
   15e5c:	89 c0                	mov    %eax,%eax
   15e5e:	48 8d 14 c5 00 00 00 	lea    0x0(,%rax,8),%rdx
   15e65:	00 
   15e66:	48 8d 05 53 e9 00 00 	lea    0xe953(%rip),%rax        # 247c0 <g_202>
   15e6d:	48 8b 04 02          	mov    (%rdx,%rax,1),%rax
   15e71:	48 89 85 a0 e5 ff ff 	mov    %rax,-0x1a60(%rbp)
   15e78:	0f b7 05 33 c7 00 00 	movzwl 0xc733(%rip),%eax        # 225b2 <g_843+0x12>
   15e7f:	83 e8 01             	sub    $0x1,%eax
   15e82:	66 89 05 29 c7 00 00 	mov    %ax,0xc729(%rip)        # 225b2 <g_843+0x12>
   15e89:	0f b7 05 22 c7 00 00 	movzwl 0xc722(%rip),%eax        # 225b2 <g_843+0x12>
   15e90:	66 85 c0             	test   %ax,%ax
   15e93:	79 c1                	jns    15e56 <func_43+0x1b79>
   15e95:	8b 05 fd c6 00 00    	mov    0xc6fd(%rip),%eax        # 22598 <g_660>
   15e9b:	83 c0 01             	add    $0x1,%eax
   15e9e:	89 05 f4 c6 00 00    	mov    %eax,0xc6f4(%rip)        # 22598 <g_660>
   15ea4:	8b 05 ee c6 00 00    	mov    0xc6ee(%rip),%eax        # 22598 <g_660>
   15eaa:	83 f8 01             	cmp    $0x1,%eax
   15ead:	0f 86 dc f8 ff ff    	jbe    1578f <func_43+0x14b2>
   15eb3:	eb 01                	jmp    15eb6 <func_43+0x1bd9>
   15eb5:	90                   	nop
   15eb6:	8b 05 cc c6 00 00    	mov    0xc6cc(%rip),%eax        # 22588 <g_428+0x18>
   15ebc:	83 c0 01             	add    $0x1,%eax
   15ebf:	89 05 c3 c6 00 00    	mov    %eax,0xc6c3(%rip)        # 22588 <g_428+0x18>
   15ec5:	8b 05 bd c6 00 00    	mov    0xc6bd(%rip),%eax        # 22588 <g_428+0x18>
   15ecb:	83 f8 01             	cmp    $0x1,%eax
   15ece:	0f 86 ba ef ff ff    	jbe    14e8e <func_43+0xbb1>
   15ed4:	eb 01                	jmp    15ed7 <func_43+0x1bfa>
   15ed6:	90                   	nop
   15ed7:	48 8b 85 50 e3 ff ff 	mov    -0x1cb0(%rbp),%rax
   15ede:	44 8b 38             	mov    (%rax),%r15d
   15ee1:	48 8b 85 50 e3 ff ff 	mov    -0x1cb0(%rbp),%rax
   15ee8:	8b 18                	mov    (%rax),%ebx
   15eea:	0f b7 85 5c e1 ff ff 	movzwl -0x1ea4(%rbp),%eax
   15ef1:	44 0f b7 e0          	movzwl %ax,%r12d
   15ef5:	48 8b 05 9c e8 00 00 	mov    0xe89c(%rip),%rax        # 24798 <g_155>
   15efc:	48 8b 00             	mov    (%rax),%rax
   15eff:	0f b6 00             	movzbl (%rax),%eax
   15f02:	44 0f b6 e8          	movzbl %al,%r13d
   15f06:	48 8b 05 63 f9 00 00 	mov    0xf963(%rip),%rax        # 25870 <g_998>
   15f0d:	66 83 bd 5c e1 ff ff 	cmpw   $0x0,-0x1ea4(%rbp)
   15f14:	00 
   15f15:	0f 84 b9 00 00 00    	je     15fd4 <func_43+0x1cf7>
   15f1b:	48 8b 05 4e f9 00 00 	mov    0xf94e(%rip),%rax        # 25870 <g_998>
   15f22:	48 8b 05 6f e8 00 00 	mov    0xe86f(%rip),%rax        # 24798 <g_155>
   15f29:	48 8b 00             	mov    (%rax),%rax
   15f2c:	0f b6 00             	movzbl (%rax),%eax
   15f2f:	44 0f be f0          	movsbl %al,%r14d
   15f33:	8b 05 23 c2 00 00    	mov    0xc223(%rip),%eax        # 2215c <g_83>
   15f39:	0f be d0             	movsbl %al,%edx
   15f3c:	48 8b 85 58 e5 ff ff 	mov    -0x1aa8(%rbp),%rax
   15f43:	48 8d 0d 1c c3 00 00 	lea    0xc31c(%rip),%rcx        # 22266 <g_177+0x6>
   15f4a:	48 89 08             	mov    %rcx,(%rax)
   15f4d:	b8 01 00 00 00       	mov    $0x1,%eax
   15f52:	89 c1                	mov    %eax,%ecx
   15f54:	8b 05 06 c2 00 00    	mov    0xc206(%rip),%eax        # 22160 <g_84>
   15f5a:	21 c8                	and    %ecx,%eax
   15f5c:	0f be c0             	movsbl %al,%eax
   15f5f:	89 d6                	mov    %edx,%esi
   15f61:	89 c7                	mov    %eax,%edi
   15f63:	e8 aa 42 ff ff       	callq  a212 <safe_mul_func_int8_t_s_s>
   15f68:	0f be c0             	movsbl %al,%eax
   15f6b:	be 06 00 00 00       	mov    $0x6,%esi
   15f70:	89 c7                	mov    %eax,%edi
   15f72:	e8 be 43 ff ff       	callq  a335 <safe_rshift_func_int8_t_s_s>
   15f77:	48 0f bf 85 5c e1 ff 	movswq -0x1ea4(%rbp),%rax
   15f7e:	ff 
   15f7f:	48 be d7 27 c2 49 03 	movabs $0xf4b1680349c227d7,%rsi
   15f86:	68 b1 f4 
   15f89:	48 89 c7             	mov    %rax,%rdi
   15f8c:	e8 66 4a ff ff       	callq  a9f7 <safe_div_func_int64_t_s_s>
   15f91:	0f be c0             	movsbl %al,%eax
   15f94:	44 89 f6             	mov    %r14d,%esi
   15f97:	89 c7                	mov    %eax,%edi
   15f99:	e8 74 42 ff ff       	callq  a212 <safe_mul_func_int8_t_s_s>
   15f9e:	48 8b 15 bb f8 00 00 	mov    0xf8bb(%rip),%rdx        # 25860 <g_706>
   15fa5:	48 8b 05 b4 f8 00 00 	mov    0xf8b4(%rip),%rax        # 25860 <g_706>
   15fac:	0f b7 12             	movzwl (%rdx),%edx
   15faf:	66 89 10             	mov    %dx,(%rax)
   15fb2:	0f b7 00             	movzwl (%rax),%eax
   15fb5:	0f b7 d0             	movzwl %ax,%edx
   15fb8:	48 8b 85 10 e3 ff ff 	mov    -0x1cf0(%rbp),%rax
   15fbf:	48 8b 00             	mov    (%rax),%rax
   15fc2:	8b 00                	mov    (%rax),%eax
   15fc4:	39 c2                	cmp    %eax,%edx
   15fc6:	75 0c                	jne    15fd4 <func_43+0x1cf7>
   15fc8:	48 8b 85 50 e3 ff ff 	mov    -0x1cb0(%rbp),%rax
   15fcf:	8b 00                	mov    (%rax),%eax
   15fd1:	85 c0                	test   %eax,%eax
   15fd3:	90                   	nop
   15fd4:	c7 85 b4 e1 ff ff 00 	movl   $0x0,-0x1e4c(%rbp)
   15fdb:	00 00 00 
   15fde:	0f bf 85 5c e1 ff ff 	movswl -0x1ea4(%rbp),%eax
   15fe5:	39 85 b4 e1 ff ff    	cmp    %eax,-0x1e4c(%rbp)
   15feb:	74 11                	je     15ffe <func_43+0x1d21>
   15fed:	8b 05 51 c5 00 00    	mov    0xc551(%rip),%eax        # 22544 <g_426+0x4>
   15ff3:	85 c0                	test   %eax,%eax
   15ff5:	74 07                	je     15ffe <func_43+0x1d21>
   15ff7:	b8 01 00 00 00       	mov    $0x1,%eax
   15ffc:	eb 05                	jmp    16003 <func_43+0x1d26>
   15ffe:	b8 00 00 00 00       	mov    $0x0,%eax
   16003:	85 c0                	test   %eax,%eax
   16005:	0f 94 c0             	sete   %al
   16008:	0f b6 d0             	movzbl %al,%edx
   1600b:	0f bf 85 5c e1 ff ff 	movswl -0x1ea4(%rbp),%eax
   16012:	39 c2                	cmp    %eax,%edx
   16014:	0f bf 95 5c e1 ff ff 	movswl -0x1ea4(%rbp),%edx
   1601b:	48 8b 85 50 e3 ff ff 	mov    -0x1cb0(%rbp),%rax
   16022:	8b 00                	mov    (%rax),%eax
   16024:	39 c2                	cmp    %eax,%edx
   16026:	0f 9f c0             	setg   %al
   16029:	0f b6 c0             	movzbl %al,%eax
   1602c:	44 89 ee             	mov    %r13d,%esi
   1602f:	89 c7                	mov    %eax,%edi
   16031:	e8 36 43 ff ff       	callq  a36c <safe_rshift_func_int8_t_s_u>
   16036:	66 98                	cbtw   
   16038:	0f b7 c0             	movzwl %ax,%eax
   1603b:	44 89 e6             	mov    %r12d,%esi
   1603e:	89 c7                	mov    %eax,%edi
   16040:	e8 f8 4c ff ff       	callq  ad3d <safe_mul_func_uint16_t_u_u>
   16045:	0f b6 c0             	movzbl %al,%eax
   16048:	be fe 00 00 00       	mov    $0xfe,%esi
   1604d:	89 c7                	mov    %eax,%edi
   1604f:	e8 3f 4b ff ff       	callq  ab93 <safe_mul_func_uint8_t_u_u>
   16054:	0f be c0             	movsbl %al,%eax
   16057:	be f7 ff ff ff       	mov    $0xfffffff7,%esi
   1605c:	89 c7                	mov    %eax,%edi
   1605e:	e8 af 41 ff ff       	callq  a212 <safe_mul_func_int8_t_s_s>
   16063:	0f be c0             	movsbl %al,%eax
   16066:	89 de                	mov    %ebx,%esi
   16068:	89 c7                	mov    %eax,%edi
   1606a:	e8 23 44 ff ff       	callq  a492 <safe_lshift_func_int16_t_s_s>
   1606f:	66 85 c0             	test   %ax,%ax
   16072:	75 0a                	jne    1607e <func_43+0x1da1>
   16074:	66 83 bd 5c e1 ff ff 	cmpw   $0x0,-0x1ea4(%rbp)
   1607b:	00 
   1607c:	74 07                	je     16085 <func_43+0x1da8>
   1607e:	b8 01 00 00 00       	mov    $0x1,%eax
   16083:	eb 05                	jmp    1608a <func_43+0x1dad>
   16085:	b8 00 00 00 00       	mov    $0x0,%eax
   1608a:	44 31 f8             	xor    %r15d,%eax
   1608d:	89 c2                	mov    %eax,%edx
   1608f:	48 8b 85 60 e5 ff ff 	mov    -0x1aa0(%rbp),%rax
   16096:	8b 00                	mov    (%rax),%eax
   16098:	09 c2                	or     %eax,%edx
   1609a:	48 8b 85 60 e5 ff ff 	mov    -0x1aa0(%rbp),%rax
   160a1:	89 10                	mov    %edx,(%rax)
   160a3:	66 c7 05 38 c5 00 00 	movw   $0x0,0xc538(%rip)        # 225e4 <g_1055+0x14>
   160aa:	00 00 
   160ac:	e9 12 0f 00 00       	jmpq   16fc3 <func_43+0x2ce6>
   160b1:	c7 85 f0 e2 ff ff 58 	movl   $0x9f795a58,-0x1d10(%rbp)
   160b8:	5a 79 9f 
   160bb:	48 8d 85 20 ec ff ff 	lea    -0x13e0(%rbp),%rax
   160c2:	48 83 c0 28          	add    $0x28,%rax
   160c6:	48 89 85 c0 e3 ff ff 	mov    %rax,-0x1c40(%rbp)
   160cd:	c7 85 f4 e2 ff ff 97 	movl   $0xe2a64497,-0x1d0c(%rbp)
   160d4:	44 a6 e2 
   160d7:	c7 85 f8 e2 ff ff 26 	movl   $0x11a46726,-0x1d08(%rbp)
   160de:	67 a4 11 
   160e1:	c7 85 ac e1 ff ff ff 	movl   $0xffffffff,-0x1e54(%rbp)
   160e8:	ff ff ff 
   160eb:	c7 85 b0 e1 ff ff 0f 	movl   $0xf47d130f,-0x1e50(%rbp)
   160f2:	13 7d f4 
   160f5:	48 8d 85 d0 f7 ff ff 	lea    -0x830(%rbp),%rax
   160fc:	48 8d 15 bd 7c 00 00 	lea    0x7cbd(%rip),%rdx        # 1ddc0 <g_2807+0x710>
   16103:	b9 78 00 00 00       	mov    $0x78,%ecx
   16108:	48 89 c7             	mov    %rax,%rdi
   1610b:	48 89 d6             	mov    %rdx,%rsi
   1610e:	f3 48 a5             	rep movsq %ds:(%rsi),%es:(%rdi)
   16111:	48 8d 05 c0 f4 00 00 	lea    0xf4c0(%rip),%rax        # 255d8 <g_247>
   16118:	48 89 85 18 e6 ff ff 	mov    %rax,-0x19e8(%rbp)
   1611f:	66 c7 85 88 e1 ff ff 	movw   $0x6,-0x1e78(%rbp)
   16126:	06 00 
   16128:	48 8d 05 13 c5 00 00 	lea    0xc513(%rip),%rax        # 22642 <g_1365+0x12>
   1612f:	48 89 85 20 e6 ff ff 	mov    %rax,-0x19e0(%rbp)
   16136:	c7 05 e0 c2 00 00 00 	movl   $0x0,0xc2e0(%rip)        # 22420 <g_248>
   1613d:	00 00 00 
   16140:	e9 22 07 00 00       	jmpq   16867 <func_43+0x258a>
   16145:	48 8d 85 8c e1 ff ff 	lea    -0x1e74(%rbp),%rax
   1614c:	48 89 85 80 e3 ff ff 	mov    %rax,-0x1c80(%rbp)
   16153:	48 8d 05 22 c0 00 00 	lea    0xc022(%rip),%rax        # 2217c <g_89>
   1615a:	48 89 85 28 e6 ff ff 	mov    %rax,-0x19d8(%rbp)
   16161:	c7 85 fc e2 ff ff f7 	movl   $0x6390acf7,-0x1d04(%rbp)
   16168:	ac 90 63 
   1616b:	c7 85 b0 ed ff ff ff 	movl   $0xffffffff,-0x1250(%rbp)
   16172:	ff ff ff 
   16175:	c7 85 b4 ed ff ff ff 	movl   $0xffffffff,-0x124c(%rbp)
   1617c:	ff ff ff 
   1617f:	c7 85 b8 ed ff ff a8 	movl   $0x12fa28a8,-0x1248(%rbp)
   16186:	28 fa 12 
   16189:	c7 85 bc ed ff ff a8 	movl   $0x12fa28a8,-0x1244(%rbp)
   16190:	28 fa 12 
   16193:	c7 85 c0 ed ff ff ff 	movl   $0xffffffff,-0x1240(%rbp)
   1619a:	ff ff ff 
   1619d:	c7 85 c4 ed ff ff 07 	movl   $0x7,-0x123c(%rbp)
   161a4:	00 00 00 
   161a7:	c7 85 c8 ed ff ff 5c 	movl   $0x6ac4555c,-0x1238(%rbp)
   161ae:	55 c4 6a 
   161b1:	c7 85 cc ed ff ff 07 	movl   $0x7,-0x1234(%rbp)
   161b8:	00 00 00 
   161bb:	c7 85 d0 ed ff ff 5c 	movl   $0x6ac4555c,-0x1230(%rbp)
   161c2:	55 c4 6a 
   161c5:	c7 85 d4 ed ff ff 07 	movl   $0x7,-0x122c(%rbp)
   161cc:	00 00 00 
   161cf:	c7 85 d8 ed ff ff ff 	movl   $0xffffffff,-0x1228(%rbp)
   161d6:	ff ff ff 
   161d9:	c7 85 dc ed ff ff a8 	movl   $0x12fa28a8,-0x1224(%rbp)
   161e0:	28 fa 12 
   161e3:	c7 85 e0 ed ff ff a8 	movl   $0x12fa28a8,-0x1220(%rbp)
   161ea:	28 fa 12 
   161ed:	c7 85 e4 ed ff ff ff 	movl   $0xffffffff,-0x121c(%rbp)
   161f4:	ff ff ff 
   161f7:	c7 85 e8 ed ff ff ff 	movl   $0xffffffff,-0x1218(%rbp)
   161fe:	ff ff ff 
   16201:	c7 85 ec ed ff ff 09 	movl   $0x9,-0x1214(%rbp)
   16208:	00 00 00 
   1620b:	c7 85 f0 ed ff ff 5c 	movl   $0x6ac4555c,-0x1210(%rbp)
   16212:	55 c4 6a 
   16215:	c7 85 f4 ed ff ff 09 	movl   $0x9,-0x120c(%rbp)
   1621c:	00 00 00 
   1621f:	c7 85 f8 ed ff ff 5c 	movl   $0x6ac4555c,-0x1208(%rbp)
   16226:	55 c4 6a 
   16229:	c7 85 fc ed ff ff 09 	movl   $0x9,-0x1204(%rbp)
   16230:	00 00 00 
   16233:	c7 85 00 ee ff ff ff 	movl   $0xffffffff,-0x1200(%rbp)
   1623a:	ff ff ff 
   1623d:	c7 85 04 ee ff ff ff 	movl   $0xffffffff,-0x11fc(%rbp)
   16244:	ff ff ff 
   16247:	c7 85 08 ee ff ff a8 	movl   $0x12fa28a8,-0x11f8(%rbp)
   1624e:	28 fa 12 
   16251:	c7 85 0c ee ff ff a8 	movl   $0x12fa28a8,-0x11f4(%rbp)
   16258:	28 fa 12 
   1625b:	c7 85 10 ee ff ff ff 	movl   $0xffffffff,-0x11f0(%rbp)
   16262:	ff ff ff 
   16265:	48 8d 05 ec c2 00 00 	lea    0xc2ec(%rip),%rax        # 22558 <g_426+0x18>
   1626c:	48 89 85 30 e6 ff ff 	mov    %rax,-0x19d0(%rbp)
   16273:	48 8d 05 56 c3 00 00 	lea    0xc356(%rip),%rax        # 225d0 <g_1055>
   1627a:	48 89 85 38 e6 ff ff 	mov    %rax,-0x19c8(%rbp)
   16281:	c7 85 70 e8 ff ff c4 	movl   $0x69faa2c4,-0x1790(%rbp)
   16288:	a2 fa 69 
   1628b:	c7 85 74 e8 ff ff ff 	movl   $0xffffffff,-0x178c(%rbp)
   16292:	ff ff ff 
   16295:	c7 85 78 e8 ff ff c4 	movl   $0x69faa2c4,-0x1788(%rbp)
   1629c:	a2 fa 69 
   1629f:	c7 85 7c e8 ff ff ff 	movl   $0xffffffff,-0x1784(%rbp)
   162a6:	ff ff ff 
   162a9:	48 8b 85 80 e3 ff ff 	mov    -0x1c80(%rbp),%rax
   162b0:	48 89 85 50 e3 ff ff 	mov    %rax,-0x1cb0(%rbp)
   162b7:	66 83 bd 5c e1 ff ff 	cmpw   $0x0,-0x1ea4(%rbp)
   162be:	00 
   162bf:	0f 84 18 01 00 00    	je     163dd <func_43+0x2100>
   162c5:	48 b8 5d d3 53 34 94 	movabs $0xa03f1e943453d35d,%rax
   162cc:	1e 3f a0 
   162cf:	48 89 85 90 e6 ff ff 	mov    %rax,-0x1970(%rbp)
   162d6:	48 8d 05 9f be 00 00 	lea    0xbe9f(%rip),%rax        # 2217c <g_89>
   162dd:	48 89 85 98 e6 ff ff 	mov    %rax,-0x1968(%rbp)
   162e4:	48 8d 85 a4 e1 ff ff 	lea    -0x1e5c(%rbp),%rax
   162eb:	48 89 85 a0 e6 ff ff 	mov    %rax,-0x1960(%rbp)
   162f2:	8b 95 f0 e2 ff ff    	mov    -0x1d10(%rbp),%edx
   162f8:	48 8b 85 60 e5 ff ff 	mov    -0x1aa0(%rbp),%rax
   162ff:	89 10                	mov    %edx,(%rax)
   16301:	0f bf 85 5c e1 ff ff 	movswl -0x1ea4(%rbp),%eax
   16308:	be 15 68 00 00       	mov    $0x6815,%esi
   1630d:	89 c7                	mov    %eax,%edi
   1630f:	e8 e1 40 ff ff       	callq  a3f5 <safe_mul_func_int16_t_s_s>
   16314:	48 8b 05 0d ec 00 00 	mov    0xec0d(%rip),%rax        # 24f28 <g_207>
   1631b:	0f b7 00             	movzwl (%rax),%eax
   1631e:	0f bf d0             	movswl %ax,%edx
   16321:	b8 84 93 f0 eb       	mov    $0xebf09384,%eax
   16326:	48 39 85 90 e6 ff ff 	cmp    %rax,-0x1970(%rbp)
   1632d:	0f 95 c0             	setne  %al
   16330:	0f b6 c0             	movzbl %al,%eax
   16333:	48 8b 8d 90 e6 ff ff 	mov    -0x1970(%rbp),%rcx
   1633a:	31 c8                	xor    %ecx,%eax
   1633c:	98                   	cwtl   
   1633d:	89 d6                	mov    %edx,%esi
   1633f:	89 c7                	mov    %eax,%edi
   16341:	e8 e4 41 ff ff       	callq  a52a <safe_rshift_func_int16_t_s_s>
   16346:	0f bf d0             	movswl %ax,%edx
   16349:	0f bf 85 5c e1 ff ff 	movswl -0x1ea4(%rbp),%eax
   16350:	89 d6                	mov    %edx,%esi
   16352:	89 c7                	mov    %eax,%edi
   16354:	e8 ac 42 ff ff       	callq  a605 <safe_sub_func_int32_t_s_s>
   16359:	0f b7 95 5c e1 ff ff 	movzwl -0x1ea4(%rbp),%edx
   16360:	89 d1                	mov    %edx,%ecx
   16362:	48 8b 95 98 e6 ff ff 	mov    -0x1968(%rbp),%rdx
   16369:	88 0a                	mov    %cl,(%rdx)
   1636b:	48 8b 95 98 e6 ff ff 	mov    -0x1968(%rbp),%rdx
   16372:	0f b6 12             	movzbl (%rdx),%edx
   16375:	0f be d2             	movsbl %dl,%edx
   16378:	39 d0                	cmp    %edx,%eax
   1637a:	75 0d                	jne    16389 <func_43+0x20ac>
   1637c:	48 0f bf 85 5c e1 ff 	movswq -0x1ea4(%rbp),%rax
   16383:	ff 
   16384:	e9 12 29 00 00       	jmpq   18c9b <func_43+0x49be>
   16389:	48 c7 85 a8 e6 ff ff 	movq   $0x0,-0x1958(%rbp)
   16390:	00 00 00 00 
   16394:	48 8d 85 80 e3 ff ff 	lea    -0x1c80(%rbp),%rax
   1639b:	48 89 85 b0 e6 ff ff 	mov    %rax,-0x1950(%rbp)
   163a2:	66 83 bd 5c e1 ff ff 	cmpw   $0x0,-0x1ea4(%rbp)
   163a9:	00 
   163aa:	0f 85 c8 04 00 00    	jne    16878 <func_43+0x259b>
   163b0:	48 8b 85 b0 e6 ff ff 	mov    -0x1950(%rbp),%rax
   163b7:	48 8b 95 a0 e6 ff ff 	mov    -0x1960(%rbp),%rdx
   163be:	48 89 10             	mov    %rdx,(%rax)
   163c1:	83 bd f0 e2 ff ff 00 	cmpl   $0x0,-0x1d10(%rbp)
   163c8:	0f 85 89 04 00 00    	jne    16857 <func_43+0x257a>
   163ce:	0f b7 05 2b c2 00 00 	movzwl 0xc22b(%rip),%eax        # 22600 <g_1283>
   163d5:	0f b7 c0             	movzwl %ax,%eax
   163d8:	e9 be 28 00 00       	jmpq   18c9b <func_43+0x49be>
   163dd:	48 8b 85 80 e3 ff ff 	mov    -0x1c80(%rbp),%rax
   163e4:	8b 08                	mov    (%rax),%ecx
   163e6:	48 8b 85 60 e5 ff ff 	mov    -0x1aa0(%rbp),%rax
   163ed:	8b 10                	mov    (%rax),%edx
   163ef:	48 8b 85 80 e3 ff ff 	mov    -0x1c80(%rbp),%rax
   163f6:	21 ca                	and    %ecx,%edx
   163f8:	89 10                	mov    %edx,(%rax)
   163fa:	66 83 bd 5c e1 ff ff 	cmpw   $0x0,-0x1ea4(%rbp)
   16401:	00 
   16402:	0f 85 73 04 00 00    	jne    1687b <func_43+0x259e>
   16408:	8b 05 be c0 00 00    	mov    0xc0be(%rip),%eax        # 224cc <g_407+0x8c>
   1640e:	48 8b 85 60 e5 ff ff 	mov    -0x1aa0(%rbp),%rax
   16415:	8b 18                	mov    (%rax),%ebx
   16417:	48 8b 05 62 e3 00 00 	mov    0xe362(%rip),%rax        # 24780 <g_54>
   1641e:	0f b6 00             	movzbl (%rax),%eax
   16421:	0f b6 c0             	movzbl %al,%eax
   16424:	be 02 00 00 00       	mov    $0x2,%esi
   16429:	89 c7                	mov    %eax,%edi
   1642b:	e8 8e 48 ff ff       	callq  acbe <safe_rshift_func_uint8_t_u_u>
   16430:	89 c2                	mov    %eax,%edx
   16432:	48 8b 85 28 e6 ff ff 	mov    -0x19d8(%rbp),%rax
   16439:	88 10                	mov    %dl,(%rax)
   1643b:	48 8b 85 28 e6 ff ff 	mov    -0x19d8(%rbp),%rax
   16442:	0f b6 00             	movzbl (%rax),%eax
   16445:	66 98                	cbtw   
   16447:	66 39 85 5c e1 ff ff 	cmp    %ax,-0x1ea4(%rbp)
   1644e:	0f 9c c0             	setl   %al
   16451:	0f b6 c0             	movzbl %al,%eax
   16454:	39 c3                	cmp    %eax,%ebx
   16456:	74 38                	je     16490 <func_43+0x21b3>
   16458:	48 8b 85 68 e5 ff ff 	mov    -0x1a98(%rbp),%rax
   1645f:	48 89 85 c0 e3 ff ff 	mov    %rax,-0x1c40(%rbp)
   16466:	48 c7 05 87 c1 00 00 	movq   $0x0,0xc187(%rip)        # 225f8 <g_1268>
   1646d:	00 00 00 00 
   16471:	90                   	nop
   16472:	48 8b 05 7f c1 00 00 	mov    0xc17f(%rip),%rax        # 225f8 <g_1268>
   16479:	48 83 f8 01          	cmp    $0x1,%rax
   1647d:	0f 87 d5 03 00 00    	ja     16858 <func_43+0x257b>
   16483:	48 0f bf 85 5c e1 ff 	movswq -0x1ea4(%rbp),%rax
   1648a:	ff 
   1648b:	e9 0b 28 00 00       	jmpq   18c9b <func_43+0x49be>
   16490:	c7 85 00 e3 ff ff 00 	movl   $0x0,-0x1d00(%rbp)
   16497:	00 00 00 
   1649a:	c7 85 50 e9 ff ff 06 	movl   $0x13ca0906,-0x16b0(%rbp)
   164a1:	09 ca 13 
   164a4:	c7 85 54 e9 ff ff ff 	movl   $0xffffffff,-0x16ac(%rbp)
   164ab:	ff ff ff 
   164ae:	c7 85 58 e9 ff ff 06 	movl   $0x13ca0906,-0x16a8(%rbp)
   164b5:	09 ca 13 
   164b8:	c7 85 5c e9 ff ff ff 	movl   $0xffffffff,-0x16a4(%rbp)
   164bf:	ff ff ff 
   164c2:	c7 85 60 e9 ff ff 06 	movl   $0x13ca0906,-0x16a0(%rbp)
   164c9:	09 ca 13 
   164cc:	c7 85 64 e9 ff ff ff 	movl   $0xffffffff,-0x169c(%rbp)
   164d3:	ff ff ff 
   164d6:	c7 85 68 e9 ff ff 06 	movl   $0x13ca0906,-0x1698(%rbp)
   164dd:	09 ca 13 
   164e0:	c7 85 6c e9 ff ff ff 	movl   $0xffffffff,-0x1694(%rbp)
   164e7:	ff ff ff 
   164ea:	66 c7 85 8a e1 ff ff 	movw   $0x9,-0x1e76(%rbp)
   164f1:	09 00 
   164f3:	48 b8 66 c2 b1 49 ef 	movabs $0x1a3ed6ef49b1c266,%rax
   164fa:	d6 3e 1a 
   164fd:	48 89 85 40 e6 ff ff 	mov    %rax,-0x19c0(%rbp)
   16504:	c7 05 6a c0 00 00 01 	movl   $0x1,0xc06a(%rip)        # 22578 <g_428+0x8>
   1650b:	00 00 00 
   1650e:	90                   	nop
   1650f:	8b 05 63 c0 00 00    	mov    0xc063(%rip),%eax        # 22578 <g_428+0x8>
   16515:	85 c0                	test   %eax,%eax
   16517:	0f 88 99 00 00 00    	js     165b6 <func_43+0x22d9>
   1651d:	48 8d 85 8c e1 ff ff 	lea    -0x1e74(%rbp),%rax
   16524:	48 89 85 80 e6 ff ff 	mov    %rax,-0x1980(%rbp)
   1652b:	48 8d 85 14 e7 ff ff 	lea    -0x18ec(%rbp),%rax
   16532:	48 89 85 88 e6 ff ff 	mov    %rax,-0x1978(%rbp)
   16539:	48 c7 85 00 eb ff ff 	movq   $0x0,-0x1500(%rbp)
   16540:	00 00 00 00 
   16544:	48 c7 85 08 eb ff ff 	movq   $0x0,-0x14f8(%rbp)
   1654b:	00 00 00 00 
   1654f:	48 c7 85 10 eb ff ff 	movq   $0x0,-0x14f0(%rbp)
   16556:	00 00 00 00 
   1655a:	48 c7 85 18 eb ff ff 	movq   $0x0,-0x14e8(%rbp)
   16561:	00 00 00 00 
   16565:	48 c7 85 20 eb ff ff 	movq   $0x0,-0x14e0(%rbp)
   1656c:	00 00 00 00 
   16570:	48 c7 85 28 eb ff ff 	movq   $0x0,-0x14d8(%rbp)
   16577:	00 00 00 00 
   1657b:	48 c7 85 30 eb ff ff 	movq   $0x0,-0x14d0(%rbp)
   16582:	00 00 00 00 
   16586:	48 c7 85 38 eb ff ff 	movq   $0x0,-0x14c8(%rbp)
   1658d:	00 00 00 00 
   16591:	c7 85 00 e3 ff ff 00 	movl   $0x0,-0x1d00(%rbp)
   16598:	00 00 00 
   1659b:	66 83 85 8a e1 ff ff 	addw   $0x1,-0x1e76(%rbp)
   165a2:	01 
   165a3:	48 8b 85 10 e3 ff ff 	mov    -0x1cf0(%rbp),%rax
   165aa:	48 8b 00             	mov    (%rax),%rax
   165ad:	8b 00                	mov    (%rax),%eax
   165af:	48 98                	cltq   
   165b1:	e9 e5 26 00 00       	jmpq   18c9b <func_43+0x49be>
   165b6:	c7 85 a4 e1 ff ff 00 	movl   $0x0,-0x1e5c(%rbp)
   165bd:	00 00 00 
   165c0:	e9 81 02 00 00       	jmpq   16846 <func_43+0x2569>
   165c5:	48 8d 05 dc 6e 00 00 	lea    0x6edc(%rip),%rax        # 1d4a8 <g_1318+0x428>
   165cc:	48 89 85 88 e3 ff ff 	mov    %rax,-0x1c78(%rbp)
   165d3:	48 8d 85 88 e3 ff ff 	lea    -0x1c78(%rbp),%rax
   165da:	48 89 85 48 e6 ff ff 	mov    %rax,-0x19b8(%rbp)
   165e1:	48 8d 05 c8 be 00 00 	lea    0xbec8(%rip),%rax        # 224b0 <g_407+0x70>
   165e8:	48 89 85 50 e6 ff ff 	mov    %rax,-0x19b0(%rbp)
   165ef:	c7 85 04 e3 ff ff a5 	movl   $0x5f3236a5,-0x1cfc(%rbp)
   165f6:	36 32 5f 
   165f9:	48 c7 85 58 e6 ff ff 	movq   $0x0,-0x19a8(%rbp)
   16600:	00 00 00 00 
   16604:	48 8d 85 b0 ed ff ff 	lea    -0x1250(%rbp),%rax
   1660b:	48 83 c0 1c          	add    $0x1c,%rax
   1660f:	48 89 85 60 e6 ff ff 	mov    %rax,-0x19a0(%rbp)
   16616:	48 8d 05 83 05 01 00 	lea    0x10583(%rip),%rax        # 26ba0 <g_1129>
   1661d:	48 89 85 68 e6 ff ff 	mov    %rax,-0x1998(%rbp)
   16624:	48 c7 85 70 e6 ff ff 	movq   $0x0,-0x1990(%rbp)
   1662b:	00 00 00 00 
   1662f:	48 c7 85 78 e6 ff ff 	movq   $0x0,-0x1988(%rbp)
   16636:	00 00 00 00 
   1663a:	48 8d 05 ff be 00 00 	lea    0xbeff(%rip),%rax        # 22540 <g_426>
   16641:	48 89 85 00 eb ff ff 	mov    %rax,-0x1500(%rbp)
   16648:	48 8d 05 fd b9 00 00 	lea    0xb9fd(%rip),%rax        # 2204c <g_2+0xc>
   1664f:	48 89 85 08 eb ff ff 	mov    %rax,-0x14f8(%rbp)
   16656:	48 8d 05 e3 be 00 00 	lea    0xbee3(%rip),%rax        # 22540 <g_426>
   1665d:	48 89 85 10 eb ff ff 	mov    %rax,-0x14f0(%rbp)
   16664:	48 8d 05 e1 b9 00 00 	lea    0xb9e1(%rip),%rax        # 2204c <g_2+0xc>
   1666b:	48 89 85 18 eb ff ff 	mov    %rax,-0x14e8(%rbp)
   16672:	48 8d 05 c7 be 00 00 	lea    0xbec7(%rip),%rax        # 22540 <g_426>
   16679:	48 89 85 20 eb ff ff 	mov    %rax,-0x14e0(%rbp)
   16680:	48 8d 05 c5 b9 00 00 	lea    0xb9c5(%rip),%rax        # 2204c <g_2+0xc>
   16687:	48 89 85 28 eb ff ff 	mov    %rax,-0x14d8(%rbp)
   1668e:	48 8d 05 ab be 00 00 	lea    0xbeab(%rip),%rax        # 22540 <g_426>
   16695:	48 89 85 30 eb ff ff 	mov    %rax,-0x14d0(%rbp)
   1669c:	48 8d 05 a9 b9 00 00 	lea    0xb9a9(%rip),%rax        # 2204c <g_2+0xc>
   166a3:	48 89 85 38 eb ff ff 	mov    %rax,-0x14c8(%rbp)
   166aa:	48 8b 85 30 e6 ff ff 	mov    -0x19d0(%rbp),%rax
   166b1:	8b 00                	mov    (%rax),%eax
   166b3:	0f be d8             	movsbl %al,%ebx
   166b6:	48 8b 85 48 e6 ff ff 	mov    -0x19b8(%rbp),%rax
   166bd:	48 c7 00 00 00 00 00 	movq   $0x0,(%rax)
   166c4:	48 8b 85 48 e6 ff ff 	mov    -0x19b8(%rbp),%rax
   166cb:	48 8b 00             	mov    (%rax),%rax
   166ce:	48 39 85 38 e6 ff ff 	cmp    %rax,-0x19c8(%rbp)
   166d5:	0f 94 c0             	sete   %al
   166d8:	0f b6 d0             	movzbl %al,%edx
   166db:	48 83 bd 30 e6 ff ff 	cmpq   $0x0,-0x19d0(%rbp)
   166e2:	00 
   166e3:	0f 94 c0             	sete   %al
   166e6:	0f b6 c0             	movzbl %al,%eax
   166e9:	89 d6                	mov    %edx,%esi
   166eb:	89 c7                	mov    %eax,%edi
   166ed:	e8 0d 46 ff ff       	callq  acff <safe_add_func_uint16_t_u_u>
   166f2:	44 0f b7 e0          	movzwl %ax,%r12d
   166f6:	48 83 bd 18 e6 ff ff 	cmpq   $0x0,-0x19e8(%rbp)
   166fd:	00 
   166fe:	0f 94 c0             	sete   %al
   16701:	0f b6 c0             	movzbl %al,%eax
   16704:	89 c7                	mov    %eax,%edi
   16706:	e8 9b 47 ff ff       	callq  aea6 <safe_unary_minus_func_uint32_t_u>
   1670b:	48 8b 85 50 e3 ff ff 	mov    -0x1cb0(%rbp),%rax
   16712:	8b 10                	mov    (%rax),%edx
   16714:	48 8b 85 50 e3 ff ff 	mov    -0x1cb0(%rbp),%rax
   1671b:	81 f2 d9 30 48 bb    	xor    $0xbb4830d9,%edx
   16721:	89 10                	mov    %edx,(%rax)
   16723:	8b 00                	mov    (%rax),%eax
   16725:	85 c0                	test   %eax,%eax
   16727:	0f 94 c0             	sete   %al
   1672a:	0f b6 d0             	movzbl %al,%edx
   1672d:	48 8b 85 60 e5 ff ff 	mov    -0x1aa0(%rbp),%rax
   16734:	89 10                	mov    %edx,(%rax)
   16736:	48 8b 85 60 e5 ff ff 	mov    -0x1aa0(%rbp),%rax
   1673d:	8b 10                	mov    (%rax),%edx
   1673f:	0f bf 85 5c e1 ff ff 	movswl -0x1ea4(%rbp),%eax
   16746:	39 c2                	cmp    %eax,%edx
   16748:	0f 95 c0             	setne  %al
   1674b:	0f b6 c0             	movzbl %al,%eax
   1674e:	41 39 c4             	cmp    %eax,%r12d
   16751:	0f 94 c0             	sete   %al
   16754:	0f b6 c0             	movzbl %al,%eax
   16757:	39 85 f8 e2 ff ff    	cmp    %eax,-0x1d08(%rbp)
   1675d:	7d 15                	jge    16774 <func_43+0x2497>
   1675f:	48 8b 05 2a e0 00 00 	mov    0xe02a(%rip),%rax        # 24790 <g_150>
   16766:	0f b6 00             	movzbl (%rax),%eax
   16769:	84 c0                	test   %al,%al
   1676b:	74 07                	je     16774 <func_43+0x2497>
   1676d:	ba 01 00 00 00       	mov    $0x1,%edx
   16772:	eb 05                	jmp    16779 <func_43+0x249c>
   16774:	ba 00 00 00 00       	mov    $0x0,%edx
   16779:	48 8b 05 00 f1 00 00 	mov    0xf100(%rip),%rax        # 25880 <g_1053>
   16780:	48 8b 00             	mov    (%rax),%rax
   16783:	0f b6 00             	movzbl (%rax),%eax
   16786:	0f b6 c0             	movzbl %al,%eax
   16789:	09 c2                	or     %eax,%edx
   1678b:	48 8b 85 28 e6 ff ff 	mov    -0x19d8(%rbp),%rax
   16792:	0f b6 00             	movzbl (%rax),%eax
   16795:	09 c2                	or     %eax,%edx
   16797:	48 8b 85 28 e6 ff ff 	mov    -0x19d8(%rbp),%rax
   1679e:	88 10                	mov    %dl,(%rax)
   167a0:	48 8b 85 28 e6 ff ff 	mov    -0x19d8(%rbp),%rax
   167a7:	0f b6 00             	movzbl (%rax),%eax
   167aa:	0f be c0             	movsbl %al,%eax
   167ad:	89 de                	mov    %ebx,%esi
   167af:	89 c7                	mov    %eax,%edi
   167b1:	e8 b4 3a ff ff       	callq  a26a <safe_div_func_int8_t_s_s>
   167b6:	66 98                	cbtw   
   167b8:	0f b7 c0             	movzwl %ax,%eax
   167bb:	be 02 00 00 00       	mov    $0x2,%esi
   167c0:	89 c7                	mov    %eax,%edi
   167c2:	e8 3f 46 ff ff       	callq  ae06 <safe_lshift_func_uint16_t_u_u>
   167c7:	be 01 00 00 00       	mov    $0x1,%esi
   167cc:	48 c7 c7 fb ff ff ff 	mov    $0xfffffffffffffffb,%rdi
   167d3:	e8 d0 40 ff ff       	callq  a8a8 <safe_sub_func_int64_t_s_s>
   167d8:	89 85 14 e7 ff ff    	mov    %eax,-0x18ec(%rbp)
   167de:	48 8b 85 50 e6 ff ff 	mov    -0x19b0(%rbp),%rax
   167e5:	48 8b 0d 24 be 00 00 	mov    0xbe24(%rip),%rcx        # 22610 <g_1325>
   167ec:	48 8b 1d 25 be 00 00 	mov    0xbe25(%rip),%rbx        # 22618 <g_1325+0x8>
   167f3:	48 89 08             	mov    %rcx,(%rax)
   167f6:	48 89 58 08          	mov    %rbx,0x8(%rax)
   167fa:	48 8b 15 1f be 00 00 	mov    0xbe1f(%rip),%rdx        # 22620 <g_1325+0x10>
   16801:	48 89 50 10          	mov    %rdx,0x10(%rax)
   16805:	8b 15 1d be 00 00    	mov    0xbe1d(%rip),%edx        # 22628 <g_1325+0x18>
   1680b:	89 50 18             	mov    %edx,0x18(%rax)
   1680e:	8b 85 70 e8 ff ff    	mov    -0x1790(%rbp),%eax
   16814:	83 c0 01             	add    $0x1,%eax
   16817:	89 85 70 e8 ff ff    	mov    %eax,-0x1790(%rbp)
   1681d:	48 8b 85 60 e6 ff ff 	mov    -0x19a0(%rbp),%rax
   16824:	8b 00                	mov    (%rax),%eax
   16826:	0f b7 c0             	movzwl %ax,%eax
   16829:	89 c7                	mov    %eax,%edi
   1682b:	e8 5e 31 00 00       	callq  1998e <func_60>
   16830:	48 89 85 80 e3 ff ff 	mov    %rax,-0x1c80(%rbp)
   16837:	8b 85 a4 e1 ff ff    	mov    -0x1e5c(%rbp),%eax
   1683d:	83 c0 01             	add    $0x1,%eax
   16840:	89 85 a4 e1 ff ff    	mov    %eax,-0x1e5c(%rbp)
   16846:	8b 85 a4 e1 ff ff    	mov    -0x1e5c(%rbp),%eax
   1684c:	83 f8 01             	cmp    $0x1,%eax
   1684f:	0f 8e 70 fd ff ff    	jle    165c5 <func_43+0x22e8>
   16855:	eb 01                	jmp    16858 <func_43+0x257b>
   16857:	90                   	nop
   16858:	8b 05 c2 bb 00 00    	mov    0xbbc2(%rip),%eax        # 22420 <g_248>
   1685e:	83 c0 01             	add    $0x1,%eax
   16861:	89 05 b9 bb 00 00    	mov    %eax,0xbbb9(%rip)        # 22420 <g_248>
   16867:	8b 05 b3 bb 00 00    	mov    0xbbb3(%rip),%eax        # 22420 <g_248>
   1686d:	83 f8 01             	cmp    $0x1,%eax
   16870:	0f 8e cf f8 ff ff    	jle    16145 <func_43+0x1e68>
   16876:	eb 04                	jmp    1687c <func_43+0x259f>
   16878:	90                   	nop
   16879:	eb 01                	jmp    1687c <func_43+0x259f>
   1687b:	90                   	nop
   1687c:	0f bf 85 5c e1 ff ff 	movswl -0x1ea4(%rbp),%eax
   16883:	39 85 b8 e1 ff ff    	cmp    %eax,-0x1e48(%rbp)
   16889:	0f 9f c2             	setg   %dl
   1688c:	48 8b 85 60 e5 ff ff 	mov    -0x1aa0(%rbp),%rax
   16893:	8b 00                	mov    (%rax),%eax
   16895:	3d 44 ca ef 36       	cmp    $0x36efca44,%eax
   1689a:	0f 9e c0             	setle  %al
   1689d:	21 d0                	and    %edx,%eax
   1689f:	84 c0                	test   %al,%al
   168a1:	74 5a                	je     168fd <func_43+0x2620>
   168a3:	48 8b 85 60 e5 ff ff 	mov    -0x1aa0(%rbp),%rax
   168aa:	8b 00                	mov    (%rax),%eax
   168ac:	25 32 4b bf 5b       	and    $0x5bbf4b32,%eax
   168b1:	89 c2                	mov    %eax,%edx
   168b3:	48 8b 85 60 e5 ff ff 	mov    -0x1aa0(%rbp),%rax
   168ba:	89 10                	mov    %edx,(%rax)
   168bc:	48 8b 85 50 e3 ff ff 	mov    -0x1cb0(%rbp),%rax
   168c3:	8b 10                	mov    (%rax),%edx
   168c5:	48 8b 85 18 e3 ff ff 	mov    -0x1ce8(%rbp),%rax
   168cc:	48 8d 0d dd ee 00 00 	lea    0xeedd(%rip),%rcx        # 257b0 <g_362+0x1b0>
   168d3:	48 39 c8             	cmp    %rcx,%rax
   168d6:	0f 94 c0             	sete   %al
   168d9:	0f b6 c0             	movzbl %al,%eax
   168dc:	39 c2                	cmp    %eax,%edx
   168de:	0f 9f c0             	setg   %al
   168e1:	0f b6 d0             	movzbl %al,%edx
   168e4:	48 8b 85 60 e5 ff ff 	mov    -0x1aa0(%rbp),%rax
   168eb:	8b 00                	mov    (%rax),%eax
   168ed:	31 c2                	xor    %eax,%edx
   168ef:	48 8b 85 60 e5 ff ff 	mov    -0x1aa0(%rbp),%rax
   168f6:	89 10                	mov    %edx,(%rax)
   168f8:	e9 1d 02 00 00       	jmpq   16b1a <func_43+0x283d>
   168fd:	48 8d 85 40 e7 ff ff 	lea    -0x18c0(%rbp),%rax
   16904:	48 89 85 b8 e6 ff ff 	mov    %rax,-0x1948(%rbp)
   1690b:	48 c7 85 c0 e6 ff ff 	movq   $0x0,-0x1940(%rbp)
   16912:	00 00 00 00 
   16916:	c7 85 08 e3 ff ff 3f 	movl   $0x8c3a3f,-0x1cf8(%rbp)
   1691d:	3a 8c 00 
   16920:	48 8b 05 21 ef 00 00 	mov    0xef21(%rip),%rax        # 25848 <g_635>
   16927:	48 8b 00             	mov    (%rax),%rax
   1692a:	0f b7 95 5c e1 ff ff 	movzwl -0x1ea4(%rbp),%edx
   16931:	66 89 10             	mov    %dx,(%rax)
   16934:	48 8b 85 b8 e6 ff ff 	mov    -0x1948(%rbp),%rax
   1693b:	48 89 85 18 e3 ff ff 	mov    %rax,-0x1ce8(%rbp)
   16942:	48 8b 85 18 e3 ff ff 	mov    -0x1ce8(%rbp),%rax
   16949:	48 8d 95 40 e7 ff ff 	lea    -0x18c0(%rbp),%rdx
   16950:	48 83 c2 10          	add    $0x10,%rdx
   16954:	48 39 d0             	cmp    %rdx,%rax
   16957:	48 8b 85 90 e3 ff ff 	mov    -0x1c70(%rbp),%rax
   1695e:	48 3b 85 c0 e3 ff ff 	cmp    -0x1c40(%rbp),%rax
   16965:	0f b7 05 c6 ba 00 00 	movzwl 0xbac6(%rip),%eax        # 22432 <g_248+0x12>
   1696c:	66 85 c0             	test   %ax,%ax
   1696f:	74 18                	je     16989 <func_43+0x26ac>
   16971:	0f b7 05 a8 bc 00 00 	movzwl 0xbca8(%rip),%eax        # 22620 <g_1325+0x10>
   16978:	be 3a 00 00 00       	mov    $0x3a,%esi
   1697d:	bf 09 00 00 00       	mov    $0x9,%edi
   16982:	e8 4d 38 ff ff       	callq  a1d4 <safe_add_func_int8_t_s_s>
   16987:	84 c0                	test   %al,%al
   16989:	48 8d 05 e8 f1 00 00 	lea    0xf1e8(%rip),%rax        # 25b78 <g_1165>
   16990:	48 89 05 f1 f1 00 00 	mov    %rax,0xf1f1(%rip)        # 25b88 <g_1348>
   16997:	83 bd 08 e3 ff ff 00 	cmpl   $0x0,-0x1cf8(%rbp)
   1699e:	0f 84 04 01 00 00    	je     16aa8 <func_43+0x27cb>
   169a4:	48 8d 05 3d bc 00 00 	lea    0xbc3d(%rip),%rax        # 225e8 <g_1055+0x18>
   169ab:	48 89 85 c8 e6 ff ff 	mov    %rax,-0x1938(%rbp)
   169b2:	c7 85 0c e3 ff ff 05 	movl   $0x191fff05,-0x1cf4(%rbp)
   169b9:	ff 1f 19 
   169bc:	48 8b 05 8d ee 00 00 	mov    0xee8d(%rip),%rax        # 25850 <g_634>
   169c3:	48 8b 00             	mov    (%rax),%rax
   169c6:	48 8b 00             	mov    (%rax),%rax
   169c9:	0f b7 85 5c e1 ff ff 	movzwl -0x1ea4(%rbp),%eax
   169d0:	0f b6 d8             	movzbl %al,%ebx
   169d3:	44 0f bf a5 5c e1 ff 	movswl -0x1ea4(%rbp),%r12d
   169da:	ff 
   169db:	48 8b 85 10 e3 ff ff 	mov    -0x1cf0(%rbp),%rax
   169e2:	48 8b 00             	mov    (%rax),%rax
   169e5:	8b 00                	mov    (%rax),%eax
   169e7:	85 c0                	test   %eax,%eax
   169e9:	74 4f                	je     16a3a <func_43+0x275d>
   169eb:	0f b7 85 5c e1 ff ff 	movzwl -0x1ea4(%rbp),%eax
   169f2:	44 0f b7 e8          	movzwl %ax,%r13d
   169f6:	48 8b 05 63 ee 00 00 	mov    0xee63(%rip),%rax        # 25860 <g_706>
   169fd:	0f b7 10             	movzwl (%rax),%edx
   16a00:	8d 4a 01             	lea    0x1(%rdx),%ecx
   16a03:	66 89 08             	mov    %cx,(%rax)
   16a06:	0f b7 d2             	movzwl %dx,%edx
   16a09:	8b 85 08 e3 ff ff    	mov    -0x1cf8(%rbp),%eax
   16a0f:	0f b7 c0             	movzwl %ax,%eax
   16a12:	89 d6                	mov    %edx,%esi
   16a14:	89 c7                	mov    %eax,%edi
   16a16:	e8 73 43 ff ff       	callq  ad8e <safe_div_func_uint16_t_u_u>
   16a1b:	66 3d 3d 4b          	cmp    $0x4b3d,%ax
   16a1f:	0f 95 c0             	setne  %al
   16a22:	0f b6 c0             	movzbl %al,%eax
   16a25:	44 89 ee             	mov    %r13d,%esi
   16a28:	89 c7                	mov    %eax,%edi
   16a2a:	e8 0e 43 ff ff       	callq  ad3d <safe_mul_func_uint16_t_u_u>
   16a2f:	0f b7 c0             	movzwl %ax,%eax
   16a32:	0b 85 08 e3 ff ff    	or     -0x1cf8(%rbp),%eax
   16a38:	85 c0                	test   %eax,%eax
   16a3a:	8b 85 08 e3 ff ff    	mov    -0x1cf8(%rbp),%eax
   16a40:	f7 d0                	not    %eax
   16a42:	c1 e8 1f             	shr    $0x1f,%eax
   16a45:	0f b6 c0             	movzbl %al,%eax
   16a48:	44 89 e6             	mov    %r12d,%esi
   16a4b:	89 c7                	mov    %eax,%edi
   16a4d:	e8 6c 43 ff ff       	callq  adbe <safe_lshift_func_uint16_t_u_s>
   16a52:	48 8b 05 ef ed 00 00 	mov    0xedef(%rip),%rax        # 25848 <g_635>
   16a59:	48 8b 00             	mov    (%rax),%rax
   16a5c:	48 8b 85 c8 e6 ff ff 	mov    -0x1938(%rbp),%rax
   16a63:	c7 00 01 00 00 00    	movl   $0x1,(%rax)
   16a69:	83 bd 0c e3 ff ff 00 	cmpl   $0x0,-0x1cf4(%rbp)
   16a70:	0f 95 c0             	setne  %al
   16a73:	0f b6 c0             	movzbl %al,%eax
   16a76:	89 de                	mov    %ebx,%esi
   16a78:	89 c7                	mov    %eax,%edi
   16a7a:	e8 14 41 ff ff       	callq  ab93 <safe_mul_func_uint8_t_u_u>
   16a7f:	0f b6 d0             	movzbl %al,%edx
   16a82:	0f bf 85 5c e1 ff ff 	movswl -0x1ea4(%rbp),%eax
   16a89:	39 c2                	cmp    %eax,%edx
   16a8b:	0f 9d c0             	setge  %al
   16a8e:	0f b6 c0             	movzbl %al,%eax
   16a91:	39 85 08 e3 ff ff    	cmp    %eax,-0x1cf8(%rbp)
   16a97:	0f 9f c0             	setg   %al
   16a9a:	0f b6 d0             	movzbl %al,%edx
   16a9d:	48 8b 85 60 e5 ff ff 	mov    -0x1aa0(%rbp),%rax
   16aa4:	89 10                	mov    %edx,(%rax)
   16aa6:	eb 14                	jmp    16abc <func_43+0x27df>
   16aa8:	48 8b 05 91 ed 00 00 	mov    0xed91(%rip),%rax        # 25840 <g_579>
   16aaf:	48 8b 00             	mov    (%rax),%rax
   16ab2:	8b 00                	mov    (%rax),%eax
   16ab4:	85 c0                	test   %eax,%eax
   16ab6:	0f 85 1a 05 00 00    	jne    16fd6 <func_43+0x2cf9>
   16abc:	66 c7 05 bd ba 00 00 	movw   $0x1,0xbabd(%rip)        # 22582 <g_428+0x12>
   16ac3:	01 00 
   16ac5:	90                   	nop
   16ac6:	0f b7 05 b5 ba 00 00 	movzwl 0xbab5(%rip),%eax        # 22582 <g_428+0x12>
   16acd:	66 85 c0             	test   %ax,%ax
   16ad0:	78 0d                	js     16adf <func_43+0x2802>
   16ad2:	8b 85 a8 f8 ff ff    	mov    -0x758(%rbp),%eax
   16ad8:	48 98                	cltq   
   16ada:	e9 bc 21 00 00       	jmpq   18c9b <func_43+0x49be>
   16adf:	48 8b 85 60 e5 ff ff 	mov    -0x1aa0(%rbp),%rax
   16ae6:	8b 10                	mov    (%rax),%edx
   16ae8:	48 8b 85 10 e3 ff ff 	mov    -0x1cf0(%rbp),%rax
   16aef:	48 8b 00             	mov    (%rax),%rax
   16af2:	8b 08                	mov    (%rax),%ecx
   16af4:	48 8b 85 b8 e6 ff ff 	mov    -0x1948(%rbp),%rax
   16afb:	48 8b 00             	mov    (%rax),%rax
   16afe:	48 85 c0             	test   %rax,%rax
   16b01:	0f 94 c0             	sete   %al
   16b04:	0f b6 c0             	movzbl %al,%eax
   16b07:	39 c1                	cmp    %eax,%ecx
   16b09:	0f 9e c0             	setle  %al
   16b0c:	0f b6 c0             	movzbl %al,%eax
   16b0f:	09 c2                	or     %eax,%edx
   16b11:	48 8b 85 60 e5 ff ff 	mov    -0x1aa0(%rbp),%rax
   16b18:	89 10                	mov    %edx,(%rax)
   16b1a:	66 c7 05 61 ba 00 00 	movw   $0x0,0xba61(%rip)        # 22584 <g_428+0x14>
   16b21:	00 00 
   16b23:	e9 79 04 00 00       	jmpq   16fa1 <func_43+0x2cc4>
   16b28:	48 8d 05 f5 b8 00 00 	lea    0xb8f5(%rip),%rax        # 22424 <g_248+0x4>
   16b2f:	48 89 85 d0 e6 ff ff 	mov    %rax,-0x1930(%rbp)
   16b36:	48 8d 05 ab ba 00 00 	lea    0xbaab(%rip),%rax        # 225e8 <g_1055+0x18>
   16b3d:	48 89 85 d8 e6 ff ff 	mov    %rax,-0x1928(%rbp)
   16b44:	48 8d 85 50 e3 ff ff 	lea    -0x1cb0(%rbp),%rax
   16b4b:	48 89 85 e0 e6 ff ff 	mov    %rax,-0x1920(%rbp)
   16b52:	48 c7 85 e8 e6 ff ff 	movq   $0x0,-0x1918(%rbp)
   16b59:	00 00 00 00 
   16b5d:	48 c7 85 f0 e6 ff ff 	movq   $0x0,-0x1910(%rbp)
   16b64:	00 00 00 00 
   16b68:	48 c7 85 f8 e6 ff ff 	movq   $0x0,-0x1908(%rbp)
   16b6f:	00 00 00 00 
   16b73:	48 8d 05 da b5 00 00 	lea    0xb5da(%rip),%rax        # 22154 <g_65>
   16b7a:	48 89 85 00 e7 ff ff 	mov    %rax,-0x1900(%rbp)
   16b81:	48 8d 85 ac e1 ff ff 	lea    -0x1e54(%rbp),%rax
   16b88:	48 89 85 08 e7 ff ff 	mov    %rax,-0x18f8(%rbp)
   16b8f:	48 8d 85 90 e1 ff ff 	lea    -0x1e70(%rbp),%rax
   16b96:	48 89 85 b0 ed ff ff 	mov    %rax,-0x1250(%rbp)
   16b9d:	48 8d 85 a8 e1 ff ff 	lea    -0x1e58(%rbp),%rax
   16ba4:	48 89 85 b8 ed ff ff 	mov    %rax,-0x1248(%rbp)
   16bab:	48 8d 85 90 e1 ff ff 	lea    -0x1e70(%rbp),%rax
   16bb2:	48 89 85 c0 ed ff ff 	mov    %rax,-0x1240(%rbp)
   16bb9:	48 8d 85 a4 e1 ff ff 	lea    -0x1e5c(%rbp),%rax
   16bc0:	48 89 85 c8 ed ff ff 	mov    %rax,-0x1238(%rbp)
   16bc7:	48 8d 85 a4 e1 ff ff 	lea    -0x1e5c(%rbp),%rax
   16bce:	48 89 85 d0 ed ff ff 	mov    %rax,-0x1230(%rbp)
   16bd5:	48 8d 05 78 b5 00 00 	lea    0xb578(%rip),%rax        # 22154 <g_65>
   16bdc:	48 89 85 d8 ed ff ff 	mov    %rax,-0x1228(%rbp)
   16be3:	48 8d 85 b0 e1 ff ff 	lea    -0x1e50(%rbp),%rax
   16bea:	48 89 85 e0 ed ff ff 	mov    %rax,-0x1220(%rbp)
   16bf1:	48 8d 85 a8 e1 ff ff 	lea    -0x1e58(%rbp),%rax
   16bf8:	48 89 85 e8 ed ff ff 	mov    %rax,-0x1218(%rbp)
   16bff:	48 8d 85 b0 e1 ff ff 	lea    -0x1e50(%rbp),%rax
   16c06:	48 89 85 f0 ed ff ff 	mov    %rax,-0x1210(%rbp)
   16c0d:	48 8d 85 a4 e1 ff ff 	lea    -0x1e5c(%rbp),%rax
   16c14:	48 89 85 f8 ed ff ff 	mov    %rax,-0x1208(%rbp)
   16c1b:	48 8d 05 32 b5 00 00 	lea    0xb532(%rip),%rax        # 22154 <g_65>
   16c22:	48 89 85 00 ee ff ff 	mov    %rax,-0x1200(%rbp)
   16c29:	48 8d 05 24 b5 00 00 	lea    0xb524(%rip),%rax        # 22154 <g_65>
   16c30:	48 89 85 08 ee ff ff 	mov    %rax,-0x11f8(%rbp)
   16c37:	48 8d 85 90 e1 ff ff 	lea    -0x1e70(%rbp),%rax
   16c3e:	48 89 85 10 ee ff ff 	mov    %rax,-0x11f0(%rbp)
   16c45:	48 8d 85 a8 e1 ff ff 	lea    -0x1e58(%rbp),%rax
   16c4c:	48 89 85 18 ee ff ff 	mov    %rax,-0x11e8(%rbp)
   16c53:	48 8d 85 90 e1 ff ff 	lea    -0x1e70(%rbp),%rax
   16c5a:	48 89 85 20 ee ff ff 	mov    %rax,-0x11e0(%rbp)
   16c61:	48 8d 85 a4 e1 ff ff 	lea    -0x1e5c(%rbp),%rax
   16c68:	48 89 85 28 ee ff ff 	mov    %rax,-0x11d8(%rbp)
   16c6f:	48 8d 85 a4 e1 ff ff 	lea    -0x1e5c(%rbp),%rax
   16c76:	48 89 85 30 ee ff ff 	mov    %rax,-0x11d0(%rbp)
   16c7d:	48 8d 05 d0 b4 00 00 	lea    0xb4d0(%rip),%rax        # 22154 <g_65>
   16c84:	48 89 85 38 ee ff ff 	mov    %rax,-0x11c8(%rbp)
   16c8b:	48 8d 85 b0 e1 ff ff 	lea    -0x1e50(%rbp),%rax
   16c92:	48 89 85 40 ee ff ff 	mov    %rax,-0x11c0(%rbp)
   16c99:	48 8d 85 a8 e1 ff ff 	lea    -0x1e58(%rbp),%rax
   16ca0:	48 89 85 48 ee ff ff 	mov    %rax,-0x11b8(%rbp)
   16ca7:	48 8d 85 b0 e1 ff ff 	lea    -0x1e50(%rbp),%rax
   16cae:	48 89 85 50 ee ff ff 	mov    %rax,-0x11b0(%rbp)
   16cb5:	48 8d 85 a4 e1 ff ff 	lea    -0x1e5c(%rbp),%rax
   16cbc:	48 89 85 58 ee ff ff 	mov    %rax,-0x11a8(%rbp)
   16cc3:	48 8d 05 8a b4 00 00 	lea    0xb48a(%rip),%rax        # 22154 <g_65>
   16cca:	48 89 85 60 ee ff ff 	mov    %rax,-0x11a0(%rbp)
   16cd1:	48 8d 05 7c b4 00 00 	lea    0xb47c(%rip),%rax        # 22154 <g_65>
   16cd8:	48 89 85 68 ee ff ff 	mov    %rax,-0x1198(%rbp)
   16cdf:	48 8d 85 90 e1 ff ff 	lea    -0x1e70(%rbp),%rax
   16ce6:	48 89 85 70 ee ff ff 	mov    %rax,-0x1190(%rbp)
   16ced:	48 8d 85 a8 e1 ff ff 	lea    -0x1e58(%rbp),%rax
   16cf4:	48 89 85 78 ee ff ff 	mov    %rax,-0x1188(%rbp)
   16cfb:	48 8d 85 90 e1 ff ff 	lea    -0x1e70(%rbp),%rax
   16d02:	48 89 85 80 ee ff ff 	mov    %rax,-0x1180(%rbp)
   16d09:	48 8d 85 a4 e1 ff ff 	lea    -0x1e5c(%rbp),%rax
   16d10:	48 89 85 88 ee ff ff 	mov    %rax,-0x1178(%rbp)
   16d17:	48 8d 85 a4 e1 ff ff 	lea    -0x1e5c(%rbp),%rax
   16d1e:	48 89 85 90 ee ff ff 	mov    %rax,-0x1170(%rbp)
   16d25:	48 8d 05 28 b4 00 00 	lea    0xb428(%rip),%rax        # 22154 <g_65>
   16d2c:	48 89 85 98 ee ff ff 	mov    %rax,-0x1168(%rbp)
   16d33:	48 8d 85 b0 e1 ff ff 	lea    -0x1e50(%rbp),%rax
   16d3a:	48 89 85 a0 ee ff ff 	mov    %rax,-0x1160(%rbp)
   16d41:	48 8d 85 a8 e1 ff ff 	lea    -0x1e58(%rbp),%rax
   16d48:	48 89 85 a8 ee ff ff 	mov    %rax,-0x1158(%rbp)
   16d4f:	48 8d 85 b0 e1 ff ff 	lea    -0x1e50(%rbp),%rax
   16d56:	48 89 85 b0 ee ff ff 	mov    %rax,-0x1150(%rbp)
   16d5d:	48 8d 85 a4 e1 ff ff 	lea    -0x1e5c(%rbp),%rax
   16d64:	48 89 85 b8 ee ff ff 	mov    %rax,-0x1148(%rbp)
   16d6b:	48 8d 05 e2 b3 00 00 	lea    0xb3e2(%rip),%rax        # 22154 <g_65>
   16d72:	48 89 85 c0 ee ff ff 	mov    %rax,-0x1140(%rbp)
   16d79:	48 8d 05 d4 b3 00 00 	lea    0xb3d4(%rip),%rax        # 22154 <g_65>
   16d80:	48 89 85 c8 ee ff ff 	mov    %rax,-0x1138(%rbp)
   16d87:	48 8d 85 90 e1 ff ff 	lea    -0x1e70(%rbp),%rax
   16d8e:	48 89 85 d0 ee ff ff 	mov    %rax,-0x1130(%rbp)
   16d95:	48 8d 85 a8 e1 ff ff 	lea    -0x1e58(%rbp),%rax
   16d9c:	48 89 85 d8 ee ff ff 	mov    %rax,-0x1128(%rbp)
   16da3:	48 8d 85 90 e1 ff ff 	lea    -0x1e70(%rbp),%rax
   16daa:	48 89 85 e0 ee ff ff 	mov    %rax,-0x1120(%rbp)
   16db1:	48 8d 85 a4 e1 ff ff 	lea    -0x1e5c(%rbp),%rax
   16db8:	48 89 85 e8 ee ff ff 	mov    %rax,-0x1118(%rbp)
   16dbf:	48 8d 85 a4 e1 ff ff 	lea    -0x1e5c(%rbp),%rax
   16dc6:	48 89 85 f0 ee ff ff 	mov    %rax,-0x1110(%rbp)
   16dcd:	48 8d 05 80 b3 00 00 	lea    0xb380(%rip),%rax        # 22154 <g_65>
   16dd4:	48 89 85 f8 ee ff ff 	mov    %rax,-0x1108(%rbp)
   16ddb:	48 8d 85 b0 e1 ff ff 	lea    -0x1e50(%rbp),%rax
   16de2:	48 89 85 00 ef ff ff 	mov    %rax,-0x1100(%rbp)
   16de9:	48 8d 85 a8 e1 ff ff 	lea    -0x1e58(%rbp),%rax
   16df0:	48 89 85 08 ef ff ff 	mov    %rax,-0x10f8(%rbp)
   16df7:	48 8d 85 b0 e1 ff ff 	lea    -0x1e50(%rbp),%rax
   16dfe:	48 89 85 10 ef ff ff 	mov    %rax,-0x10f0(%rbp)
   16e05:	48 8d 85 a4 e1 ff ff 	lea    -0x1e5c(%rbp),%rax
   16e0c:	48 89 85 18 ef ff ff 	mov    %rax,-0x10e8(%rbp)
   16e13:	48 8d 05 3a b3 00 00 	lea    0xb33a(%rip),%rax        # 22154 <g_65>
   16e1a:	48 89 85 20 ef ff ff 	mov    %rax,-0x10e0(%rbp)
   16e21:	48 8d 05 2c b3 00 00 	lea    0xb32c(%rip),%rax        # 22154 <g_65>
   16e28:	48 89 85 28 ef ff ff 	mov    %rax,-0x10d8(%rbp)
   16e2f:	48 8d 85 90 e1 ff ff 	lea    -0x1e70(%rbp),%rax
   16e36:	48 89 85 30 ef ff ff 	mov    %rax,-0x10d0(%rbp)
   16e3d:	48 8d 85 a8 e1 ff ff 	lea    -0x1e58(%rbp),%rax
   16e44:	48 89 85 38 ef ff ff 	mov    %rax,-0x10c8(%rbp)
   16e4b:	48 8d 85 90 e1 ff ff 	lea    -0x1e70(%rbp),%rax
   16e52:	48 89 85 40 ef ff ff 	mov    %rax,-0x10c0(%rbp)
   16e59:	48 8d 85 a4 e1 ff ff 	lea    -0x1e5c(%rbp),%rax
   16e60:	48 89 85 48 ef ff ff 	mov    %rax,-0x10b8(%rbp)
   16e67:	48 8d 85 a4 e1 ff ff 	lea    -0x1e5c(%rbp),%rax
   16e6e:	48 89 85 50 ef ff ff 	mov    %rax,-0x10b0(%rbp)
   16e75:	48 8d 05 d8 b2 00 00 	lea    0xb2d8(%rip),%rax        # 22154 <g_65>
   16e7c:	48 89 85 58 ef ff ff 	mov    %rax,-0x10a8(%rbp)
   16e83:	48 8d 85 b0 e1 ff ff 	lea    -0x1e50(%rbp),%rax
   16e8a:	48 89 85 60 ef ff ff 	mov    %rax,-0x10a0(%rbp)
   16e91:	48 8d 85 a8 e1 ff ff 	lea    -0x1e58(%rbp),%rax
   16e98:	48 89 85 68 ef ff ff 	mov    %rax,-0x1098(%rbp)
   16e9f:	48 8d 85 b0 e1 ff ff 	lea    -0x1e50(%rbp),%rax
   16ea6:	48 89 85 70 ef ff ff 	mov    %rax,-0x1090(%rbp)
   16ead:	48 8d 85 a4 e1 ff ff 	lea    -0x1e5c(%rbp),%rax
   16eb4:	48 89 85 78 ef ff ff 	mov    %rax,-0x1088(%rbp)
   16ebb:	48 8d 05 92 b2 00 00 	lea    0xb292(%rip),%rax        # 22154 <g_65>
   16ec2:	48 89 85 80 ef ff ff 	mov    %rax,-0x1080(%rbp)
   16ec9:	48 8d 05 84 b2 00 00 	lea    0xb284(%rip),%rax        # 22154 <g_65>
   16ed0:	48 89 85 88 ef ff ff 	mov    %rax,-0x1078(%rbp)
   16ed7:	48 8d 85 90 e1 ff ff 	lea    -0x1e70(%rbp),%rax
   16ede:	48 89 85 90 ef ff ff 	mov    %rax,-0x1070(%rbp)
   16ee5:	48 8d 85 a8 e1 ff ff 	lea    -0x1e58(%rbp),%rax
   16eec:	48 89 85 98 ef ff ff 	mov    %rax,-0x1068(%rbp)
   16ef3:	48 8d 85 90 e1 ff ff 	lea    -0x1e70(%rbp),%rax
   16efa:	48 89 85 a0 ef ff ff 	mov    %rax,-0x1060(%rbp)
   16f01:	48 8d 85 a4 e1 ff ff 	lea    -0x1e5c(%rbp),%rax
   16f08:	48 89 85 a8 ef ff ff 	mov    %rax,-0x1058(%rbp)
   16f0f:	48 8d 85 a4 e1 ff ff 	lea    -0x1e5c(%rbp),%rax
   16f16:	48 89 85 b0 ef ff ff 	mov    %rax,-0x1050(%rbp)
   16f1d:	48 8d 05 30 b2 00 00 	lea    0xb230(%rip),%rax        # 22154 <g_65>
   16f24:	48 89 85 b8 ef ff ff 	mov    %rax,-0x1048(%rbp)
   16f2b:	48 8d 85 b0 e1 ff ff 	lea    -0x1e50(%rbp),%rax
   16f32:	48 89 85 c0 ef ff ff 	mov    %rax,-0x1040(%rbp)
   16f39:	48 8d 85 a8 e1 ff ff 	lea    -0x1e58(%rbp),%rax
   16f40:	48 89 85 c8 ef ff ff 	mov    %rax,-0x1038(%rbp)
   16f47:	48 8d 85 b0 e1 ff ff 	lea    -0x1e50(%rbp),%rax
   16f4e:	48 89 85 d0 ef ff ff 	mov    %rax,-0x1030(%rbp)
   16f55:	48 8d 85 a4 e1 ff ff 	lea    -0x1e5c(%rbp),%rax
   16f5c:	48 89 85 d8 ef ff ff 	mov    %rax,-0x1028(%rbp)
   16f63:	48 8d 05 ea b1 00 00 	lea    0xb1ea(%rip),%rax        # 22154 <g_65>
   16f6a:	48 89 85 e0 ef ff ff 	mov    %rax,-0x1020(%rbp)
   16f71:	48 8d 05 dc b1 00 00 	lea    0xb1dc(%rip),%rax        # 22154 <g_65>
   16f78:	48 89 85 e8 ef ff ff 	mov    %rax,-0x1018(%rbp)
   16f7f:	48 b8 40 0c 99 f8 a8 	movabs $0xfbb1c0a8f8990c40,%rax
   16f86:	c0 b1 fb 
   16f89:	48 89 85 88 e3 ff ff 	mov    %rax,-0x1c78(%rbp)
   16f90:	0f b7 05 ed b5 00 00 	movzwl 0xb5ed(%rip),%eax        # 22584 <g_428+0x14>
   16f97:	83 c0 01             	add    $0x1,%eax
   16f9a:	66 89 05 e3 b5 00 00 	mov    %ax,0xb5e3(%rip)        # 22584 <g_428+0x14>
   16fa1:	0f b7 05 dc b5 00 00 	movzwl 0xb5dc(%rip),%eax        # 22584 <g_428+0x14>
   16fa8:	66 83 f8 01          	cmp    $0x1,%ax
   16fac:	0f 86 76 fb ff ff    	jbe    16b28 <func_43+0x284b>
   16fb2:	0f b7 05 2b b6 00 00 	movzwl 0xb62b(%rip),%eax        # 225e4 <g_1055+0x14>
   16fb9:	83 c0 01             	add    $0x1,%eax
   16fbc:	66 89 05 21 b6 00 00 	mov    %ax,0xb621(%rip)        # 225e4 <g_1055+0x14>
   16fc3:	0f b7 05 1a b6 00 00 	movzwl 0xb61a(%rip),%eax        # 225e4 <g_1055+0x14>
   16fca:	66 83 f8 01          	cmp    $0x1,%ax
   16fce:	0f 86 dd f0 ff ff    	jbe    160b1 <func_43+0x1dd4>
   16fd4:	eb 01                	jmp    16fd7 <func_43+0x2cfa>
   16fd6:	90                   	nop
   16fd7:	8b 05 9b b1 00 00    	mov    0xb19b(%rip),%eax        # 22178 <g_84+0x18>
   16fdd:	83 c0 01             	add    $0x1,%eax
   16fe0:	89 05 92 b1 00 00    	mov    %eax,0xb192(%rip)        # 22178 <g_84+0x18>
   16fe6:	8b 05 8c b1 00 00    	mov    0xb18c(%rip),%eax        # 22178 <g_84+0x18>
   16fec:	83 f8 01             	cmp    $0x1,%eax
   16fef:	0f 86 27 d8 ff ff    	jbe    1481c <func_43+0x53f>
   16ff5:	48 8b 85 10 e3 ff ff 	mov    -0x1cf0(%rbp),%rax
   16ffc:	48 8b 00             	mov    (%rax),%rax
   16fff:	48 8b 95 20 e3 ff ff 	mov    -0x1ce0(%rbp),%rdx
   17006:	8b 00                	mov    (%rax),%eax
   17008:	89 02                	mov    %eax,(%rdx)
   1700a:	48 8b 85 28 e3 ff ff 	mov    -0x1cd8(%rbp),%rax
   17011:	8b 12                	mov    (%rdx),%edx
   17013:	89 10                	mov    %edx,(%rax)
   17015:	8b 00                	mov    (%rax),%eax
   17017:	85 c0                	test   %eax,%eax
   17019:	0f 84 3d 03 00 00    	je     1735c <func_43+0x307f>
   1701f:	c6 85 75 e1 ff ff 65 	movb   $0x65,-0x1e8b(%rbp)
   17026:	c7 85 00 e2 ff ff ff 	movl   $0xffffffff,-0x1e00(%rbp)
   1702d:	ff ff ff 
   17030:	c7 85 b0 ed ff ff 00 	movl   $0x0,-0x1250(%rbp)
   17037:	00 00 00 
   1703a:	c7 85 b4 ed ff ff 4a 	movl   $0x94a0904a,-0x124c(%rbp)
   17041:	90 a0 94 
   17044:	c7 85 b8 ed ff ff 00 	movl   $0x0,-0x1248(%rbp)
   1704b:	00 00 00 
   1704e:	c7 85 bc ed ff ff 4a 	movl   $0x94a0904a,-0x1244(%rbp)
   17055:	90 a0 94 
   17058:	c7 85 c0 ed ff ff 00 	movl   $0x0,-0x1240(%rbp)
   1705f:	00 00 00 
   17062:	c7 85 c4 ed ff ff 4a 	movl   $0x94a0904a,-0x123c(%rbp)
   17069:	90 a0 94 
   1706c:	c7 85 c8 ed ff ff 00 	movl   $0x0,-0x1238(%rbp)
   17073:	00 00 00 
   17076:	c7 85 cc ed ff ff 4a 	movl   $0x94a0904a,-0x1234(%rbp)
   1707d:	90 a0 94 
   17080:	c7 85 d0 ed ff ff 00 	movl   $0x0,-0x1230(%rbp)
   17087:	00 00 00 
   1708a:	66 c7 05 e1 b0 00 00 	movw   $0xfff5,0xb0e1(%rip)        # 22174 <g_84+0x14>
   17091:	f5 ff 
   17093:	e9 b1 02 00 00       	jmpq   17349 <func_43+0x306c>
   17098:	c7 85 a4 e2 ff ff 5f 	movl   $0xebcffb5f,-0x1d5c(%rbp)
   1709f:	fb cf eb 
   170a2:	48 8d 85 d0 f7 ff ff 	lea    -0x830(%rbp),%rax
   170a9:	48 8d 15 f0 c1 00 00 	lea    0xc1f0(%rip),%rdx        # 232a0 <g_2685+0x800>
   170b0:	b9 d8 00 00 00       	mov    $0xd8,%ecx
   170b5:	48 89 c7             	mov    %rax,%rdi
   170b8:	48 89 d6             	mov    %rdx,%rsi
   170bb:	f3 48 a5             	rep movsq %ds:(%rsi),%es:(%rdi)
   170be:	c7 85 a8 e2 ff ff ff 	movl   $0xffffffff,-0x1d58(%rbp)
   170c5:	ff ff ff 
   170c8:	c7 85 ac e2 ff ff fb 	movl   $0xfffffffb,-0x1d54(%rbp)
   170cf:	ff ff ff 
   170d2:	48 c7 85 30 f2 ff ff 	movq   $0x0,-0xdd0(%rbp)
   170d9:	00 00 00 00 
   170dd:	48 c7 85 38 f2 ff ff 	movq   $0x0,-0xdc8(%rbp)
   170e4:	00 00 00 00 
   170e8:	48 c7 85 40 f2 ff ff 	movq   $0x0,-0xdc0(%rbp)
   170ef:	00 00 00 00 
   170f3:	48 c7 85 48 f2 ff ff 	movq   $0x0,-0xdb8(%rbp)
   170fa:	00 00 00 00 
   170fe:	48 c7 85 50 f2 ff ff 	movq   $0x0,-0xdb0(%rbp)
   17105:	00 00 00 00 
   17109:	48 c7 85 58 f2 ff ff 	movq   $0x0,-0xda8(%rbp)
   17110:	00 00 00 00 
   17114:	48 c7 85 60 f2 ff ff 	movq   $0x0,-0xda0(%rbp)
   1711b:	00 00 00 00 
   1711f:	48 c7 85 68 f2 ff ff 	movq   $0x0,-0xd98(%rbp)
   17126:	00 00 00 00 
   1712a:	c7 85 a4 e2 ff ff ff 	movl   $0xffffffff,-0x1d5c(%rbp)
   17131:	ff ff ff 
   17134:	0f b7 05 b3 b2 00 00 	movzwl 0xb2b3(%rip),%eax        # 223ee <g_223+0x2e>
   1713b:	48 0f bf c0          	movswq %ax,%rax
   1713f:	48 c7 c6 ff ff ff ff 	mov    $0xffffffffffffffff,%rsi
   17146:	48 89 c7             	mov    %rax,%rdi
   17149:	e8 32 3f ff ff       	callq  b080 <safe_mod_func_uint64_t_u_u>
   1714e:	49 89 c7             	mov    %rax,%r15
   17151:	0f b7 05 2c b4 00 00 	movzwl 0xb42c(%rip),%eax        # 22584 <g_428+0x14>
   17158:	0f b7 d8             	movzwl %ax,%ebx
   1715b:	48 8b 85 10 e3 ff ff 	mov    -0x1cf0(%rbp),%rax
   17162:	48 8b 00             	mov    (%rax),%rax
   17165:	8b 00                	mov    (%rax),%eax
   17167:	4c 63 e0             	movslq %eax,%r12
   1716a:	48 8b 05 1f d6 00 00 	mov    0xd61f(%rip),%rax        # 24790 <g_150>
   17171:	0f b6 00             	movzbl (%rax),%eax
   17174:	44 0f be e8          	movsbl %al,%r13d
   17178:	0f be 95 75 e1 ff ff 	movsbl -0x1e8b(%rbp),%edx
   1717f:	48 8b 85 28 e3 ff ff 	mov    -0x1cd8(%rbp),%rax
   17186:	0f bf 8d 5c e1 ff ff 	movswl -0x1ea4(%rbp),%ecx
   1718d:	89 08                	mov    %ecx,(%rax)
   1718f:	c7 85 00 e2 ff ff fd 	movl   $0xfffffffd,-0x1e00(%rbp)
   17196:	ff ff ff 
   17199:	0f bf 85 5c e1 ff ff 	movswl -0x1ea4(%rbp),%eax
   171a0:	89 d6                	mov    %edx,%esi
   171a2:	89 c7                	mov    %eax,%edi
   171a4:	e8 e9 32 ff ff       	callq  a492 <safe_lshift_func_int16_t_s_s>
   171a9:	66 0f be 95 75 e1 ff 	movsbw -0x1e8b(%rbp),%dx
   171b0:	ff 
   171b1:	66 39 d0             	cmp    %dx,%ax
   171b4:	7f 10                	jg     171c6 <func_43+0x2ee9>
   171b6:	83 bd a8 e2 ff ff 00 	cmpl   $0x0,-0x1d58(%rbp)
   171bd:	74 07                	je     171c6 <func_43+0x2ee9>
   171bf:	b9 01 00 00 00       	mov    $0x1,%ecx
   171c4:	eb 05                	jmp    171cb <func_43+0x2eee>
   171c6:	b9 00 00 00 00       	mov    $0x0,%ecx
   171cb:	48 8b 05 8e e6 00 00 	mov    0xe68e(%rip),%rax        # 25860 <g_706>
   171d2:	0f b7 10             	movzwl (%rax),%edx
   171d5:	83 c2 01             	add    $0x1,%edx
   171d8:	66 89 10             	mov    %dx,(%rax)
   171db:	0f b7 00             	movzwl (%rax),%eax
   171de:	0f b7 c0             	movzwl %ax,%eax
   171e1:	09 8d ac e2 ff ff    	or     %ecx,-0x1d54(%rbp)
   171e7:	39 85 ac e2 ff ff    	cmp    %eax,-0x1d54(%rbp)
   171ed:	0f 9c c0             	setl   %al
   171f0:	44 0f b6 f0          	movzbl %al,%r14d
   171f4:	66 0f be 85 75 e1 ff 	movsbw -0x1e8b(%rbp),%ax
   171fb:	ff 
   171fc:	0f b7 c0             	movzwl %ax,%eax
   171ff:	be 81 84 00 00       	mov    $0x8481,%esi
   17204:	89 c7                	mov    %eax,%edi
   17206:	e8 32 3b ff ff       	callq  ad3d <safe_mul_func_uint16_t_u_u>
   1720b:	66 85 c0             	test   %ax,%ax
   1720e:	0f 94 c0             	sete   %al
   17211:	0f b6 c0             	movzbl %al,%eax
   17214:	44 89 f6             	mov    %r14d,%esi
   17217:	89 c7                	mov    %eax,%edi
   17219:	e8 b6 2f ff ff       	callq  a1d4 <safe_add_func_int8_t_s_s>
   1721e:	48 8b 05 63 d5 00 00 	mov    0xd563(%rip),%rax        # 24788 <g_134>
   17225:	0f b7 00             	movzwl (%rax),%eax
   17228:	98                   	cwtl   
   17229:	89 c7                	mov    %eax,%edi
   1722b:	e8 6d 31 ff ff       	callq  a39d <safe_unary_minus_func_int16_t_s>
   17230:	44 89 ee             	mov    %r13d,%esi
   17233:	bf 00 00 00 00       	mov    $0x0,%edi
   17238:	e8 97 2f ff ff       	callq  a1d4 <safe_add_func_int8_t_s_s>
   1723d:	48 0f be c0          	movsbq %al,%rax
   17241:	4c 89 e6             	mov    %r12,%rsi
   17244:	48 89 c7             	mov    %rax,%rdi
   17247:	e8 f5 35 ff ff       	callq  a841 <safe_add_func_int64_t_s_s>
   1724c:	66 83 bd 5c e1 ff ff 	cmpw   $0x0,-0x1ea4(%rbp)
   17253:	00 
   17254:	0f 9e c0             	setle  %al
   17257:	0f b6 c0             	movzbl %al,%eax
   1725a:	48 89 de             	mov    %rbx,%rsi
   1725d:	48 89 c7             	mov    %rax,%rdi
   17260:	e8 1b 3e ff ff       	callq  b080 <safe_mod_func_uint64_t_u_u>
   17265:	8b 95 a8 e2 ff ff    	mov    -0x1d58(%rbp),%edx
   1726b:	48 63 d2             	movslq %edx,%rdx
   1726e:	48 31 d0             	xor    %rdx,%rax
   17271:	49 39 c7             	cmp    %rax,%r15
   17274:	0f 93 c0             	setae  %al
   17277:	0f b6 d0             	movzbl %al,%edx
   1727a:	48 8b 05 0f d5 00 00 	mov    0xd50f(%rip),%rax        # 24790 <g_150>
   17281:	0f b6 00             	movzbl (%rax),%eax
   17284:	0f b6 c0             	movzbl %al,%eax
   17287:	39 c2                	cmp    %eax,%edx
   17289:	74 16                	je     172a1 <func_43+0x2fc4>
   1728b:	48 8b 05 ce e5 00 00 	mov    0xe5ce(%rip),%rax        # 25860 <g_706>
   17292:	0f b7 00             	movzwl (%rax),%eax
   17295:	66 85 c0             	test   %ax,%ax
   17298:	74 07                	je     172a1 <func_43+0x2fc4>
   1729a:	ba 01 00 00 00       	mov    $0x1,%edx
   1729f:	eb 05                	jmp    172a6 <func_43+0x2fc9>
   172a1:	ba 00 00 00 00       	mov    $0x0,%edx
   172a6:	0f bf 85 5c e1 ff ff 	movswl -0x1ea4(%rbp),%eax
   172ad:	39 c2                	cmp    %eax,%edx
   172af:	0f 95 c0             	setne  %al
   172b2:	0f b6 c0             	movzbl %al,%eax
   172b5:	be 97 8c ff ff       	mov    $0xffff8c97,%esi
   172ba:	89 c7                	mov    %eax,%edi
   172bc:	e8 34 31 ff ff       	callq  a3f5 <safe_mul_func_int16_t_s_s>
   172c1:	0f bf d0             	movswl %ax,%edx
   172c4:	48 8b 85 10 e3 ff ff 	mov    -0x1cf0(%rbp),%rax
   172cb:	48 8b 00             	mov    (%rax),%rax
   172ce:	8b 00                	mov    (%rax),%eax
   172d0:	21 c2                	and    %eax,%edx
   172d2:	0f bf 85 5c e1 ff ff 	movswl -0x1ea4(%rbp),%eax
   172d9:	39 c2                	cmp    %eax,%edx
   172db:	0f 9d c2             	setge  %dl
   172de:	48 8b 85 20 e3 ff ff 	mov    -0x1ce0(%rbp),%rax
   172e5:	0f b6 d2             	movzbl %dl,%edx
   172e8:	89 10                	mov    %edx,(%rax)
   172ea:	8b 00                	mov    (%rax),%eax
   172ec:	83 f0 03             	xor    $0x3,%eax
   172ef:	33 85 a8 e2 ff ff    	xor    -0x1d58(%rbp),%eax
   172f5:	be 05 00 00 00       	mov    $0x5,%esi
   172fa:	89 c7                	mov    %eax,%edi
   172fc:	e8 cf 3b ff ff       	callq  aed0 <safe_sub_func_uint32_t_u_u>
   17301:	81 bd ac e2 ff ff 6a 	cmpl   $0x1a6a,-0x1d54(%rbp)
   17308:	1a 00 00 
   1730b:	0f 94 c0             	sete   %al
   1730e:	0f b6 c0             	movzbl %al,%eax
   17311:	be ff ff 00 00       	mov    $0xffff,%esi
   17316:	89 c7                	mov    %eax,%edi
   17318:	e8 71 3a ff ff       	callq  ad8e <safe_div_func_uint16_t_u_u>
   1731d:	0f b7 d0             	movzwl %ax,%edx
   17320:	48 8b 05 71 d4 00 00 	mov    0xd471(%rip),%rax        # 24798 <g_155>
   17327:	48 8b 00             	mov    (%rax),%rax
   1732a:	0f b6 00             	movzbl (%rax),%eax
   1732d:	0f b6 c0             	movzbl %al,%eax
   17330:	21 d0                	and    %edx,%eax
   17332:	89 85 d0 ed ff ff    	mov    %eax,-0x1230(%rbp)
   17338:	0f b7 05 35 ae 00 00 	movzwl 0xae35(%rip),%eax        # 22174 <g_84+0x14>
   1733f:	83 c0 01             	add    $0x1,%eax
   17342:	66 89 05 2b ae 00 00 	mov    %ax,0xae2b(%rip)        # 22174 <g_84+0x14>
   17349:	0f b7 05 24 ae 00 00 	movzwl 0xae24(%rip),%eax        # 22174 <g_84+0x14>
   17350:	66 83 f8 16          	cmp    $0x16,%ax
   17354:	0f 86 3e fd ff ff    	jbe    17098 <func_43+0x2dbb>
   1735a:	eb 0d                	jmp    17369 <func_43+0x308c>
   1735c:	48 0f bf 85 5c e1 ff 	movswq -0x1ea4(%rbp),%rax
   17363:	ff 
   17364:	e9 32 19 00 00       	jmpq   18c9b <func_43+0x49be>
   17369:	66 83 bd 5c e1 ff ff 	cmpw   $0x0,-0x1ea4(%rbp)
   17370:	00 
   17371:	0f 84 97 12 00 00    	je     1860e <func_43+0x4331>
   17377:	48 8d 05 02 d6 00 00 	lea    0xd602(%rip),%rax        # 24980 <g_205+0x160>
   1737e:	48 89 85 58 e3 ff ff 	mov    %rax,-0x1ca8(%rbp)
   17385:	c7 85 9c e1 ff ff a4 	movl   $0x9651d0a4,-0x1e64(%rbp)
   1738c:	d0 51 96 
   1738f:	48 c7 85 40 e4 ff ff 	movq   $0x0,-0x1bc0(%rbp)
   17396:	00 00 00 00 
   1739a:	c7 85 24 e2 ff ff 01 	movl   $0x1,-0x1ddc(%rbp)
   173a1:	00 00 00 
   173a4:	c7 85 20 e8 ff ff 00 	movl   $0x0,-0x17e0(%rbp)
   173ab:	00 00 00 
   173ae:	c7 85 24 e8 ff ff 9d 	movl   $0xd35be89d,-0x17dc(%rbp)
   173b5:	e8 5b d3 
   173b8:	c7 85 28 e8 ff ff 9d 	movl   $0xd35be89d,-0x17d8(%rbp)
   173bf:	e8 5b d3 
   173c2:	c7 85 2c e8 ff ff 00 	movl   $0x0,-0x17d4(%rbp)
   173c9:	00 00 00 
   173cc:	c7 85 30 e8 ff ff 00 	movl   $0x0,-0x17d0(%rbp)
   173d3:	00 00 00 
   173d6:	c7 85 34 e8 ff ff 01 	movl   $0x1,-0x17cc(%rbp)
   173dd:	00 00 00 
   173e0:	c7 85 38 e8 ff ff 01 	movl   $0x1,-0x17c8(%rbp)
   173e7:	00 00 00 
   173ea:	c7 85 3c e8 ff ff 01 	movl   $0x1,-0x17c4(%rbp)
   173f1:	00 00 00 
   173f4:	c7 85 40 e8 ff ff 01 	movl   $0x1,-0x17c0(%rbp)
   173fb:	00 00 00 
   173fe:	c7 85 44 e8 ff ff 01 	movl   $0x1,-0x17bc(%rbp)
   17405:	00 00 00 
   17408:	c7 85 48 e8 ff ff 00 	movl   $0x0,-0x17b8(%rbp)
   1740f:	00 00 00 
   17412:	c7 85 4c e8 ff ff 00 	movl   $0x0,-0x17b4(%rbp)
   17419:	00 00 00 
   1741c:	c7 85 50 e8 ff ff 9d 	movl   $0xd35be89d,-0x17b0(%rbp)
   17423:	e8 5b d3 
   17426:	c7 85 54 e8 ff ff 9d 	movl   $0xd35be89d,-0x17ac(%rbp)
   1742d:	e8 5b d3 
   17430:	c7 85 58 e8 ff ff 00 	movl   $0x0,-0x17a8(%rbp)
   17437:	00 00 00 
   1743a:	c7 85 5c e8 ff ff ff 	movl   $0xffffffff,-0x17a4(%rbp)
   17441:	ff ff ff 
   17444:	c7 85 60 e8 ff ff 01 	movl   $0x1,-0x17a0(%rbp)
   1744b:	00 00 00 
   1744e:	c7 85 64 e8 ff ff ff 	movl   $0xffffffff,-0x179c(%rbp)
   17455:	ff ff ff 
   17458:	c7 85 68 e8 ff ff 01 	movl   $0x1,-0x1798(%rbp)
   1745f:	00 00 00 
   17462:	c7 85 6c e8 ff ff ff 	movl   $0xffffffff,-0x1794(%rbp)
   17469:	ff ff ff 
   1746c:	66 c7 85 7e e1 ff ff 	movw   $0x3,-0x1e82(%rbp)
   17473:	03 00 
   17475:	48 8d 05 c4 b0 00 00 	lea    0xb0c4(%rip),%rax        # 22540 <g_426>
   1747c:	48 89 85 48 e4 ff ff 	mov    %rax,-0x1bb8(%rbp)
   17483:	48 b8 52 f2 ff f6 8a 	movabs $0x47a2f28af6fff252,%rax
   1748a:	f2 a2 47 
   1748d:	48 89 85 60 e3 ff ff 	mov    %rax,-0x1ca0(%rbp)
   17494:	c7 85 a0 e1 ff ff 29 	movl   $0x85bd4929,-0x1e60(%rbp)
   1749b:	49 bd 85 
   1749e:	48 8d 85 a0 e1 ff ff 	lea    -0x1e60(%rbp),%rax
   174a5:	48 89 85 50 e4 ff ff 	mov    %rax,-0x1bb0(%rbp)
   174ac:	c7 85 28 e2 ff ff 00 	movl   $0x0,-0x1dd8(%rbp)
   174b3:	00 00 00 
   174b6:	48 8d 85 b0 ed ff ff 	lea    -0x1250(%rbp),%rax
   174bd:	48 8d 15 9c c4 00 00 	lea    0xc49c(%rip),%rdx        # 23960 <g_2685+0xec0>
   174c4:	b9 90 00 00 00       	mov    $0x90,%ecx
   174c9:	48 89 c7             	mov    %rax,%rdi
   174cc:	48 89 d6             	mov    %rdx,%rsi
   174cf:	f3 48 a5             	rep movsq %ds:(%rsi),%es:(%rdi)
   174d2:	48 c7 85 58 e4 ff ff 	movq   $0xffffffffffffffff,-0x1ba8(%rbp)
   174d9:	ff ff ff ff 
   174dd:	48 8d 85 d0 f7 ff ff 	lea    -0x830(%rbp),%rax
   174e4:	48 8d 15 f5 c8 00 00 	lea    0xc8f5(%rip),%rdx        # 23de0 <g_2685+0x1340>
   174eb:	b9 fc 00 00 00       	mov    $0xfc,%ecx
   174f0:	48 89 c7             	mov    %rax,%rdi
   174f3:	48 89 d6             	mov    %rdx,%rsi
   174f6:	f3 48 a5             	rep movsq %ds:(%rsi),%es:(%rdi)
   174f9:	48 8d 85 d0 f7 ff ff 	lea    -0x830(%rbp),%rax
   17500:	48 05 68 06 00 00    	add    $0x668,%rax
   17506:	48 89 85 60 e4 ff ff 	mov    %rax,-0x1ba0(%rbp)
   1750d:	48 b8 79 ca be 8e 24 	movabs $0x103050248ebeca79,%rax
   17514:	50 30 10 
   17517:	48 89 85 68 e4 ff ff 	mov    %rax,-0x1b98(%rbp)
   1751e:	48 8b 85 28 e3 ff ff 	mov    -0x1cd8(%rbp),%rax
   17525:	8b 00                	mov    (%rax),%eax
   17527:	0f be d8             	movsbl %al,%ebx
   1752a:	48 8b 85 10 e3 ff ff 	mov    -0x1cf0(%rbp),%rax
   17531:	48 8b 00             	mov    (%rax),%rax
   17534:	44 8b 28             	mov    (%rax),%r13d
   17537:	4c 0f bf a5 5c e1 ff 	movswq -0x1ea4(%rbp),%r12
   1753e:	ff 
   1753f:	48 c7 85 58 e3 ff ff 	movq   $0x0,-0x1ca8(%rbp)
   17546:	00 00 00 00 
   1754a:	48 8b 05 ff e2 00 00 	mov    0xe2ff(%rip),%rax        # 25850 <g_634>
   17551:	48 8b 00             	mov    (%rax),%rax
   17554:	48 85 c0             	test   %rax,%rax
   17557:	75 22                	jne    1757b <func_43+0x329e>
   17559:	0f bf 95 5c e1 ff ff 	movswl -0x1ea4(%rbp),%edx
   17560:	48 8b 05 29 e6 00 00 	mov    0xe629(%rip),%rax        # 25b90 <g_1441>
   17567:	0f b6 00             	movzbl (%rax),%eax
   1756a:	0f be c0             	movsbl %al,%eax
   1756d:	89 85 9c e1 ff ff    	mov    %eax,-0x1e64(%rbp)
   17573:	8b 85 9c e1 ff ff    	mov    -0x1e64(%rbp),%eax
   17579:	39 c2                	cmp    %eax,%edx
   1757b:	48 8b 85 10 e3 ff ff 	mov    -0x1cf0(%rbp),%rax
   17582:	48 8b 00             	mov    (%rax),%rax
   17585:	8b 00                	mov    (%rax),%eax
   17587:	0f bf 95 5c e1 ff ff 	movswl -0x1ea4(%rbp),%edx
   1758e:	f7 d2                	not    %edx
   17590:	21 d0                	and    %edx,%eax
   17592:	41 89 c6             	mov    %eax,%r14d
   17595:	be 5c 33 f5 42       	mov    $0x42f5335c,%esi
   1759a:	bf 01 00 00 00       	mov    $0x1,%edi
   1759f:	e8 2c 39 ff ff       	callq  aed0 <safe_sub_func_uint32_t_u_u>
   175a4:	0f be 95 70 e1 ff ff 	movsbl -0x1e90(%rbp),%edx
   175ab:	09 c2                	or     %eax,%edx
   175ad:	0f bf 85 5c e1 ff ff 	movswl -0x1ea4(%rbp),%eax
   175b4:	39 c2                	cmp    %eax,%edx
   175b6:	0f 95 c0             	setne  %al
   175b9:	0f b6 c0             	movzbl %al,%eax
   175bc:	41 39 c6             	cmp    %eax,%r14d
   175bf:	0f 9d c0             	setge  %al
   175c2:	0f b6 d0             	movzbl %al,%edx
   175c5:	48 8b 85 28 e3 ff ff 	mov    -0x1cd8(%rbp),%rax
   175cc:	8b 00                	mov    (%rax),%eax
   175ce:	09 d0                	or     %edx,%eax
   175d0:	48 98                	cltq   
   175d2:	4c 89 e6             	mov    %r12,%rsi
   175d5:	48 89 c7             	mov    %rax,%rdi
   175d8:	e8 cb 32 ff ff       	callq  a8a8 <safe_sub_func_int64_t_s_s>
   175dd:	89 c2                	mov    %eax,%edx
   175df:	48 8b 85 28 e3 ff ff 	mov    -0x1cd8(%rbp),%rax
   175e6:	8b 00                	mov    (%rax),%eax
   175e8:	21 d0                	and    %edx,%eax
   175ea:	44 31 e8             	xor    %r13d,%eax
   175ed:	89 c6                	mov    %eax,%esi
   175ef:	bf 01 00 00 00       	mov    $0x1,%edi
   175f4:	e8 0c 30 ff ff       	callq  a605 <safe_sub_func_int32_t_s_s>
   175f9:	be fd 00 00 00       	mov    $0xfd,%esi
   175fe:	bf bb 00 00 00       	mov    $0xbb,%edi
   17603:	e8 8b 35 ff ff       	callq  ab93 <safe_mul_func_uint8_t_u_u>
   17608:	48 8b 05 d1 df 00 00 	mov    0xdfd1(%rip),%rax        # 255e0 <g_285>
   1760f:	48 8b 00             	mov    (%rax),%rax
   17612:	8b 10                	mov    (%rax),%edx
   17614:	0f bf 85 5c e1 ff ff 	movswl -0x1ea4(%rbp),%eax
   1761b:	39 c2                	cmp    %eax,%edx
   1761d:	0f 95 c0             	setne  %al
   17620:	0f b6 c0             	movzbl %al,%eax
   17623:	be 01 00 00 00       	mov    $0x1,%esi
   17628:	89 c7                	mov    %eax,%edi
   1762a:	e8 b2 2e ff ff       	callq  a4e1 <safe_lshift_func_int16_t_s_u>
   1762f:	0f be c0             	movsbl %al,%eax
   17632:	89 de                	mov    %ebx,%esi
   17634:	89 c7                	mov    %eax,%edi
   17636:	e8 f6 2b ff ff       	callq  a231 <safe_mod_func_int8_t_s_s>
   1763b:	84 c0                	test   %al,%al
   1763d:	0f 84 2e 02 00 00    	je     17871 <func_43+0x3594>
   17643:	48 8d 85 8c e1 ff ff 	lea    -0x1e74(%rbp),%rax
   1764a:	48 89 85 70 e4 ff ff 	mov    %rax,-0x1b90(%rbp)
   17651:	48 c7 85 30 f2 ff ff 	movq   $0x0,-0xdd0(%rbp)
   17658:	00 00 00 00 
   1765c:	48 8d 05 31 af 00 00 	lea    0xaf31(%rip),%rax        # 22594 <g_596+0x4>
   17663:	48 89 85 38 f2 ff ff 	mov    %rax,-0xdc8(%rbp)
   1766a:	48 8d 05 23 af 00 00 	lea    0xaf23(%rip),%rax        # 22594 <g_596+0x4>
   17671:	48 89 85 40 f2 ff ff 	mov    %rax,-0xdc0(%rbp)
   17678:	48 c7 85 48 f2 ff ff 	movq   $0x0,-0xdb8(%rbp)
   1767f:	00 00 00 00 
   17683:	48 8d 05 0a af 00 00 	lea    0xaf0a(%rip),%rax        # 22594 <g_596+0x4>
   1768a:	48 89 85 50 f2 ff ff 	mov    %rax,-0xdb0(%rbp)
   17691:	48 8d 05 fc ae 00 00 	lea    0xaefc(%rip),%rax        # 22594 <g_596+0x4>
   17698:	48 89 85 58 f2 ff ff 	mov    %rax,-0xda8(%rbp)
   1769f:	48 8d 05 ee ae 00 00 	lea    0xaeee(%rip),%rax        # 22594 <g_596+0x4>
   176a6:	48 89 85 60 f2 ff ff 	mov    %rax,-0xda0(%rbp)
   176ad:	48 8d 05 e0 ae 00 00 	lea    0xaee0(%rip),%rax        # 22594 <g_596+0x4>
   176b4:	48 89 85 68 f2 ff ff 	mov    %rax,-0xd98(%rbp)
   176bb:	48 8d 05 d2 ae 00 00 	lea    0xaed2(%rip),%rax        # 22594 <g_596+0x4>
   176c2:	48 89 85 70 f2 ff ff 	mov    %rax,-0xd90(%rbp)
   176c9:	48 8d 05 c4 ae 00 00 	lea    0xaec4(%rip),%rax        # 22594 <g_596+0x4>
   176d0:	48 89 85 78 f2 ff ff 	mov    %rax,-0xd88(%rbp)
   176d7:	48 8d 85 30 e3 ff ff 	lea    -0x1cd0(%rbp),%rax
   176de:	48 89 85 68 e3 ff ff 	mov    %rax,-0x1c98(%rbp)
   176e5:	48 8d 85 98 e1 ff ff 	lea    -0x1e68(%rbp),%rax
   176ec:	48 89 85 78 e4 ff ff 	mov    %rax,-0x1b88(%rbp)
   176f3:	48 8d 85 90 e1 ff ff 	lea    -0x1e70(%rbp),%rax
   176fa:	48 89 85 80 e4 ff ff 	mov    %rax,-0x1b80(%rbp)
   17701:	48 c7 85 88 e4 ff ff 	movq   $0x0,-0x1b78(%rbp)
   17708:	00 00 00 00 
   1770c:	48 8d 85 98 e1 ff ff 	lea    -0x1e68(%rbp),%rax
   17713:	48 89 85 90 e4 ff ff 	mov    %rax,-0x1b70(%rbp)
   1771a:	48 8d 85 94 e1 ff ff 	lea    -0x1e6c(%rbp),%rax
   17721:	48 89 85 98 e4 ff ff 	mov    %rax,-0x1b68(%rbp)
   17728:	48 8d 85 9c e1 ff ff 	lea    -0x1e64(%rbp),%rax
   1772f:	48 89 85 a0 e4 ff ff 	mov    %rax,-0x1b60(%rbp)
   17736:	48 8d 05 17 aa 00 00 	lea    0xaa17(%rip),%rax        # 22154 <g_65>
   1773d:	48 89 85 a8 e4 ff ff 	mov    %rax,-0x1b58(%rbp)
   17744:	48 c7 85 b0 e4 ff ff 	movq   $0x0,-0x1b50(%rbp)
   1774b:	00 00 00 00 
   1774f:	48 8d 05 fe a9 00 00 	lea    0xa9fe(%rip),%rax        # 22154 <g_65>
   17756:	48 89 85 b8 e4 ff ff 	mov    %rax,-0x1b48(%rbp)
   1775d:	66 c7 85 80 e1 ff ff 	movw   $0x6011,-0x1e80(%rbp)
   17764:	11 60 
   17766:	c6 85 77 e1 ff ff 01 	movb   $0x1,-0x1e89(%rbp)
   1776d:	c6 85 78 e1 ff ff fd 	movb   $0xfd,-0x1e88(%rbp)
   17774:	66 c7 85 82 e1 ff ff 	movw   $0xfffe,-0x1e7e(%rbp)
   1777b:	fe ff 
   1777d:	66 c7 85 84 e1 ff ff 	movw   $0x6886,-0x1e7c(%rbp)
   17784:	86 68 
   17786:	c7 85 e0 e1 ff ff 00 	movl   $0x0,-0x1e20(%rbp)
   1778d:	00 00 00 
   17790:	eb 1e                	jmp    177b0 <func_43+0x34d3>
   17792:	8b 85 e0 e1 ff ff    	mov    -0x1e20(%rbp),%eax
   17798:	48 98                	cltq   
   1779a:	48 8d 95 14 e7 ff ff 	lea    -0x18ec(%rbp),%rdx
   177a1:	48 89 94 c5 20 ec ff 	mov    %rdx,-0x13e0(%rbp,%rax,8)
   177a8:	ff 
   177a9:	83 85 e0 e1 ff ff 01 	addl   $0x1,-0x1e20(%rbp)
   177b0:	83 bd e0 e1 ff ff 01 	cmpl   $0x1,-0x1e20(%rbp)
   177b7:	7e d9                	jle    17792 <func_43+0x34b5>
   177b9:	c7 85 90 e1 ff ff 03 	movl   $0x3,-0x1e70(%rbp)
   177c0:	00 00 00 
   177c3:	eb 47                	jmp    1780c <func_43+0x352f>
   177c5:	c7 85 34 e2 ff ff 56 	movl   $0x1019b56,-0x1dcc(%rbp)
   177cc:	9b 01 01 
   177cf:	48 8b 85 28 e3 ff ff 	mov    -0x1cd8(%rbp),%rax
   177d6:	8b 08                	mov    (%rax),%ecx
   177d8:	48 8b 85 20 e3 ff ff 	mov    -0x1ce0(%rbp),%rax
   177df:	8b 10                	mov    (%rax),%edx
   177e1:	48 8b 85 28 e3 ff ff 	mov    -0x1cd8(%rbp),%rax
   177e8:	21 ca                	and    %ecx,%edx
   177ea:	89 10                	mov    %edx,(%rax)
   177ec:	48 8b 05 ed dd 00 00 	mov    0xdded(%rip),%rax        # 255e0 <g_285>
   177f3:	48 8b 00             	mov    (%rax),%rax
   177f6:	48 89 85 70 e4 ff ff 	mov    %rax,-0x1b90(%rbp)
   177fd:	8b 85 90 e1 ff ff    	mov    -0x1e70(%rbp),%eax
   17803:	83 c0 01             	add    $0x1,%eax
   17806:	89 85 90 e1 ff ff    	mov    %eax,-0x1e70(%rbp)
   1780c:	8b 85 90 e1 ff ff    	mov    -0x1e70(%rbp),%eax
   17812:	83 f8 08             	cmp    $0x8,%eax
   17815:	7e ae                	jle    177c5 <func_43+0x34e8>
   17817:	0f b6 85 78 e1 ff ff 	movzbl -0x1e88(%rbp),%eax
   1781e:	83 e8 01             	sub    $0x1,%eax
   17821:	88 85 78 e1 ff ff    	mov    %al,-0x1e88(%rbp)
   17827:	66 c7 05 84 ad 00 00 	movw   $0x0,0xad84(%rip)        # 225b4 <g_843+0x14>
   1782e:	00 00 
   17830:	eb 30                	jmp    17862 <func_43+0x3585>
   17832:	c7 85 2c e2 ff ff a2 	movl   $0xe65f2aa2,-0x1dd4(%rbp)
   17839:	2a 5f e6 
   1783c:	c7 85 30 e2 ff ff a5 	movl   $0xe8b4f9a5,-0x1dd0(%rbp)
   17843:	f9 b4 e8 
   17846:	48 c7 85 88 e3 ff ff 	movq   $0xfffffffffffffffa,-0x1c78(%rbp)
   1784d:	fa ff ff ff 
   17851:	0f b7 05 5c ad 00 00 	movzwl 0xad5c(%rip),%eax        # 225b4 <g_843+0x14>
   17858:	83 c0 01             	add    $0x1,%eax
   1785b:	66 89 05 52 ad 00 00 	mov    %ax,0xad52(%rip)        # 225b4 <g_843+0x14>
   17862:	0f b7 05 4b ad 00 00 	movzwl 0xad4b(%rip),%eax        # 225b4 <g_843+0x14>
   17869:	66 83 f8 35          	cmp    $0x35,%ax
   1786d:	74 c3                	je     17832 <func_43+0x3555>
   1786f:	eb 1a                	jmp    1788b <func_43+0x35ae>
   17871:	90                   	nop
   17872:	f3 0f 1e fa          	endbr64 
   17876:	48 8b 05 63 dd 00 00 	mov    0xdd63(%rip),%rax        # 255e0 <g_285>
   1787d:	48 8b 00             	mov    (%rax),%rax
   17880:	8b 10                	mov    (%rax),%edx
   17882:	48 8b 85 a8 e3 ff ff 	mov    -0x1c58(%rbp),%rax
   17889:	89 10                	mov    %edx,(%rax)
   1788b:	0f bf 9d 5c e1 ff ff 	movswl -0x1ea4(%rbp),%ebx
   17892:	0f b7 05 c9 a9 00 00 	movzwl 0xa9c9(%rip),%eax        # 22262 <g_177+0x2>
   17899:	44 0f b7 e0          	movzwl %ax,%r12d
   1789d:	66 83 bd 5c e1 ff ff 	cmpw   $0x0,-0x1ea4(%rbp)
   178a4:	00 
   178a5:	74 56                	je     178fd <func_43+0x3620>
   178a7:	44 0f bf ad 5c e1 ff 	movswl -0x1ea4(%rbp),%r13d
   178ae:	ff 
   178af:	48 8b 05 92 df 00 00 	mov    0xdf92(%rip),%rax        # 25848 <g_635>
   178b6:	48 8b 00             	mov    (%rax),%rax
   178b9:	0f b7 00             	movzwl (%rax),%eax
   178bc:	98                   	cwtl   
   178bd:	48 8b 15 cc e2 00 00 	mov    0xe2cc(%rip),%rdx        # 25b90 <g_1441>
   178c4:	c6 02 01             	movb   $0x1,(%rdx)
   178c7:	89 c6                	mov    %eax,%esi
   178c9:	bf 01 00 00 00       	mov    $0x1,%edi
   178ce:	e8 bf 2b ff ff       	callq  a492 <safe_lshift_func_int16_t_s_s>
   178d3:	48 8b 95 48 e4 ff ff 	mov    -0x1bb8(%rbp),%rdx
   178da:	8b 12                	mov    (%rdx),%edx
   178dc:	98                   	cwtl   
   178dd:	09 c2                	or     %eax,%edx
   178df:	48 8b 85 48 e4 ff ff 	mov    -0x1bb8(%rbp),%rax
   178e6:	89 10                	mov    %edx,(%rax)
   178e8:	48 8b 85 48 e4 ff ff 	mov    -0x1bb8(%rbp),%rax
   178ef:	8b 00                	mov    (%rax),%eax
   178f1:	44 89 ee             	mov    %r13d,%esi
   178f4:	89 c7                	mov    %eax,%edi
   178f6:	e8 d1 2d ff ff       	callq  a6cc <safe_mod_func_int32_t_s_s>
   178fb:	85 c0                	test   %eax,%eax
   178fd:	44 89 e6             	mov    %r12d,%esi
   17900:	bf 00 00 00 00       	mov    $0x0,%edi
   17905:	e8 fb 32 ff ff       	callq  ac05 <safe_lshift_func_uint8_t_u_s>
   1790a:	0f b6 c0             	movzbl %al,%eax
   1790d:	48 35 c2 45 00 00    	xor    $0x45c2,%rax
   17913:	48 89 c2             	mov    %rax,%rdx
   17916:	b8 ff ff ff ff       	mov    $0xffffffff,%eax
   1791b:	48 39 c2             	cmp    %rax,%rdx
   1791e:	89 de                	mov    %ebx,%esi
   17920:	bf 00 00 00 00       	mov    $0x0,%edi
   17925:	e8 a6 35 ff ff       	callq  aed0 <safe_sub_func_uint32_t_u_u>
   1792a:	89 c2                	mov    %eax,%edx
   1792c:	48 8b 85 a8 e3 ff ff 	mov    -0x1c58(%rbp),%rax
   17933:	89 10                	mov    %edx,(%rax)
   17935:	66 c7 05 f6 aa 00 00 	movw   $0x0,0xaaf6(%rip)        # 22434 <g_248+0x14>
   1793c:	00 00 
   1793e:	e9 a4 0c 00 00       	jmpq   185e7 <func_43+0x430a>
   17943:	48 8d 85 20 e3 ff ff 	lea    -0x1ce0(%rbp),%rax
   1794a:	48 89 85 c0 e4 ff ff 	mov    %rax,-0x1b40(%rbp)
   17951:	48 8d 05 40 ce 00 00 	lea    0xce40(%rip),%rax        # 24798 <g_155>
   17958:	48 89 85 70 e3 ff ff 	mov    %rax,-0x1c90(%rbp)
   1795f:	48 8d 85 70 e3 ff ff 	lea    -0x1c90(%rbp),%rax
   17966:	48 89 85 c8 e4 ff ff 	mov    %rax,-0x1b38(%rbp)
   1796d:	48 8d 05 14 f2 00 00 	lea    0xf214(%rip),%rax        # 26b88 <g_744>
   17974:	48 89 85 78 e3 ff ff 	mov    %rax,-0x1c88(%rbp)
   1797b:	48 8d 85 78 e3 ff ff 	lea    -0x1c88(%rbp),%rax
   17982:	48 89 85 d0 e4 ff ff 	mov    %rax,-0x1b30(%rbp)
   17989:	48 b8 77 36 72 b9 22 	movabs $0x44485122b9723677,%rax
   17990:	51 48 44 
   17993:	48 89 85 80 e3 ff ff 	mov    %rax,-0x1c80(%rbp)
   1799a:	c7 85 a4 e1 ff ff 6b 	movl   $0x3a71d6b,-0x1e5c(%rbp)
   179a1:	1d a7 03 
   179a4:	c7 85 70 e8 ff ff f7 	movl   $0x62a88bf7,-0x1790(%rbp)
   179ab:	8b a8 62 
   179ae:	c7 85 74 e8 ff ff 91 	movl   $0x9d507191,-0x178c(%rbp)
   179b5:	71 50 9d 
   179b8:	c7 85 78 e8 ff ff f6 	movl   $0xfffffff6,-0x1788(%rbp)
   179bf:	ff ff ff 
   179c2:	c7 85 7c e8 ff ff f6 	movl   $0xfffffff6,-0x1784(%rbp)
   179c9:	ff ff ff 
   179cc:	c7 85 80 e8 ff ff 89 	movl   $0x1a0b4389,-0x1780(%rbp)
   179d3:	43 0b 1a 
   179d6:	c7 85 84 e8 ff ff 89 	movl   $0x1a0b4389,-0x177c(%rbp)
   179dd:	43 0b 1a 
   179e0:	c7 85 88 e8 ff ff f7 	movl   $0x62a88bf7,-0x1778(%rbp)
   179e7:	8b a8 62 
   179ea:	c7 85 8c e8 ff ff f6 	movl   $0xfffffff6,-0x1774(%rbp)
   179f1:	ff ff ff 
   179f4:	c7 85 90 e8 ff ff 68 	movl   $0xe9e11468,-0x1770(%rbp)
   179fb:	14 e1 e9 
   179fe:	c7 85 94 e8 ff ff 91 	movl   $0x9d507191,-0x176c(%rbp)
   17a05:	71 50 9d 
   17a08:	c7 85 98 e8 ff ff 68 	movl   $0xe9e11468,-0x1768(%rbp)
   17a0f:	14 e1 e9 
   17a12:	c7 85 9c e8 ff ff f7 	movl   $0x62a88bf7,-0x1764(%rbp)
   17a19:	8b a8 62 
   17a1c:	c7 85 a0 e8 ff ff 68 	movl   $0xe9e11468,-0x1760(%rbp)
   17a23:	14 e1 e9 
   17a26:	c7 85 a4 e8 ff ff f7 	movl   $0x62a88bf7,-0x175c(%rbp)
   17a2d:	8b a8 62 
   17a30:	c7 85 a8 e8 ff ff f7 	movl   $0x62a88bf7,-0x1758(%rbp)
   17a37:	8b a8 62 
   17a3a:	c7 85 ac e8 ff ff 68 	movl   $0xe9e11468,-0x1754(%rbp)
   17a41:	14 e1 e9 
   17a44:	c7 85 b0 e8 ff ff 89 	movl   $0x1a0b4389,-0x1750(%rbp)
   17a4b:	43 0b 1a 
   17a4e:	c7 85 b4 e8 ff ff f7 	movl   $0x62a88bf7,-0x174c(%rbp)
   17a55:	8b a8 62 
   17a58:	c7 85 b8 e8 ff ff f6 	movl   $0xfffffff6,-0x1748(%rbp)
   17a5f:	ff ff ff 
   17a62:	c7 85 bc e8 ff ff f7 	movl   $0x62a88bf7,-0x1744(%rbp)
   17a69:	8b a8 62 
   17a6c:	c7 85 c0 e8 ff ff f7 	movl   $0x62a88bf7,-0x1740(%rbp)
   17a73:	8b a8 62 
   17a76:	c7 85 c4 e8 ff ff 91 	movl   $0x9d507191,-0x173c(%rbp)
   17a7d:	71 50 9d 
   17a80:	c7 85 c8 e8 ff ff f6 	movl   $0xfffffff6,-0x1738(%rbp)
   17a87:	ff ff ff 
   17a8a:	c7 85 cc e8 ff ff f6 	movl   $0xfffffff6,-0x1734(%rbp)
   17a91:	ff ff ff 
   17a94:	c6 85 79 e1 ff ff 01 	movb   $0x1,-0x1e87(%rbp)
   17a9b:	48 8d 85 38 e3 ff ff 	lea    -0x1cc8(%rbp),%rax
   17aa2:	48 89 85 88 e3 ff ff 	mov    %rax,-0x1c78(%rbp)
   17aa9:	c7 85 e4 e1 ff ff 00 	movl   $0x0,-0x1e1c(%rbp)
   17ab0:	00 00 00 
   17ab3:	eb 1e                	jmp    17ad3 <func_43+0x37f6>
   17ab5:	8b 85 e4 e1 ff ff    	mov    -0x1e1c(%rbp),%eax
   17abb:	48 98                	cltq   
   17abd:	48 8d 15 a8 55 00 00 	lea    0x55a8(%rip),%rdx        # 1d06c <g_1146+0xc>
   17ac4:	48 89 94 c5 60 e7 ff 	mov    %rdx,-0x18a0(%rbp,%rax,8)
   17acb:	ff 
   17acc:	83 85 e4 e1 ff ff 01 	addl   $0x1,-0x1e1c(%rbp)
   17ad3:	83 bd e4 e1 ff ff 06 	cmpl   $0x6,-0x1e1c(%rbp)
   17ada:	7e d9                	jle    17ab5 <func_43+0x37d8>
   17adc:	48 8b 85 c0 e4 ff ff 	mov    -0x1b40(%rbp),%rax
   17ae3:	48 8b 95 50 e4 ff ff 	mov    -0x1bb0(%rbp),%rdx
   17aea:	48 89 10             	mov    %rdx,(%rax)
   17aed:	48 8b 85 c8 e4 ff ff 	mov    -0x1b38(%rbp),%rax
   17af4:	48 c7 00 00 00 00 00 	movq   $0x0,(%rax)
   17afb:	48 c7 05 d2 e0 00 00 	movq   $0x0,0xe0d2(%rip)        # 25bd8 <g_1685>
   17b02:	00 00 00 00 
   17b06:	c6 85 7a e1 ff ff 2e 	movb   $0x2e,-0x1e86(%rbp)
   17b0d:	c7 85 38 e2 ff ff 08 	movl   $0x8,-0x1dc8(%rbp)
   17b14:	00 00 00 
   17b17:	c7 85 a8 e1 ff ff 00 	movl   $0x0,-0x1e58(%rbp)
   17b1e:	00 00 00 
   17b21:	c7 85 3c e2 ff ff dd 	movl   $0x58359cdd,-0x1dc4(%rbp)
   17b28:	9c 35 58 
   17b2b:	c7 85 ac e1 ff ff 4b 	movl   $0xe76a274b,-0x1e54(%rbp)
   17b32:	27 6a e7 
   17b35:	c7 85 40 e2 ff ff f7 	movl   $0xfffffff7,-0x1dc0(%rbp)
   17b3c:	ff ff ff 
   17b3f:	c7 85 44 e2 ff ff 06 	movl   $0x6,-0x1dbc(%rbp)
   17b46:	00 00 00 
   17b49:	48 8d 85 20 ec ff ff 	lea    -0x13e0(%rbp),%rax
   17b50:	48 8d 15 29 66 00 00 	lea    0x6629(%rip),%rdx        # 1e180 <g_2807+0xad0>
   17b57:	b9 32 00 00 00       	mov    $0x32,%ecx
   17b5c:	48 89 c7             	mov    %rax,%rdi
   17b5f:	48 89 d6             	mov    %rdx,%rsi
   17b62:	f3 48 a5             	rep movsq %ds:(%rsi),%es:(%rdi)
   17b65:	c7 85 e8 e1 ff ff 00 	movl   $0x0,-0x1e18(%rbp)
   17b6c:	00 00 00 
   17b6f:	eb 1b                	jmp    17b8c <func_43+0x38af>
   17b71:	8b 85 e8 e1 ff ff    	mov    -0x1e18(%rbp),%eax
   17b77:	48 98                	cltq   
   17b79:	48 c7 84 c5 a0 e7 ff 	movq   $0x0,-0x1860(%rbp,%rax,8)
   17b80:	ff 00 00 00 00 
   17b85:	83 85 e8 e1 ff ff 01 	addl   $0x1,-0x1e18(%rbp)
   17b8c:	83 bd e8 e1 ff ff 06 	cmpl   $0x6,-0x1e18(%rbp)
   17b93:	7e dc                	jle    17b71 <func_43+0x3894>
   17b95:	c7 85 e8 e1 ff ff 00 	movl   $0x0,-0x1e18(%rbp)
   17b9c:	00 00 00 
   17b9f:	eb 46                	jmp    17be7 <func_43+0x390a>
   17ba1:	c7 85 ec e1 ff ff 00 	movl   $0x0,-0x1e14(%rbp)
   17ba8:	00 00 00 
   17bab:	eb 2a                	jmp    17bd7 <func_43+0x38fa>
   17bad:	8b 85 ec e1 ff ff    	mov    -0x1e14(%rbp),%eax
   17bb3:	48 63 d0             	movslq %eax,%rdx
   17bb6:	8b 85 e8 e1 ff ff    	mov    -0x1e18(%rbp),%eax
   17bbc:	48 98                	cltq   
   17bbe:	48 01 d0             	add    %rdx,%rax
   17bc1:	48 8d 15 74 a8 00 00 	lea    0xa874(%rip),%rdx        # 2243c <g_279>
   17bc8:	48 89 94 c5 18 e7 ff 	mov    %rdx,-0x18e8(%rbp,%rax,8)
   17bcf:	ff 
   17bd0:	83 85 ec e1 ff ff 01 	addl   $0x1,-0x1e14(%rbp)
   17bd7:	83 bd ec e1 ff ff 00 	cmpl   $0x0,-0x1e14(%rbp)
   17bde:	7e cd                	jle    17bad <func_43+0x38d0>
   17be0:	83 85 e8 e1 ff ff 01 	addl   $0x1,-0x1e18(%rbp)
   17be7:	83 bd e8 e1 ff ff 00 	cmpl   $0x0,-0x1e18(%rbp)
   17bee:	7e b1                	jle    17ba1 <func_43+0x38c4>
   17bf0:	c7 85 e8 e1 ff ff 00 	movl   $0x0,-0x1e18(%rbp)
   17bf7:	00 00 00 
   17bfa:	eb 1b                	jmp    17c17 <func_43+0x393a>
   17bfc:	8b 85 e8 e1 ff ff    	mov    -0x1e18(%rbp),%eax
   17c02:	48 98                	cltq   
   17c04:	48 c7 84 c5 30 e7 ff 	movq   $0x0,-0x18d0(%rbp,%rax,8)
   17c0b:	ff 00 00 00 00 
   17c10:	83 85 e8 e1 ff ff 01 	addl   $0x1,-0x1e18(%rbp)
   17c17:	83 bd e8 e1 ff ff 01 	cmpl   $0x1,-0x1e18(%rbp)
   17c1e:	7e dc                	jle    17bfc <func_43+0x391f>
   17c20:	c7 05 12 aa 00 00 02 	movl   $0x2,0xaa12(%rip)        # 2263c <g_1365+0xc>
   17c27:	00 00 00 
   17c2a:	e9 24 02 00 00       	jmpq   17e53 <func_43+0x3b76>
   17c2f:	c7 85 98 e2 ff ff f6 	movl   $0x25b3bef6,-0x1d68(%rbp)
   17c36:	be b3 25 
   17c39:	c7 85 9c e2 ff ff a9 	movl   $0x4ab2d2a9,-0x1d64(%rbp)
   17c40:	d2 b2 4a 
   17c43:	48 8d 05 5e ef 00 00 	lea    0xef5e(%rip),%rax        # 26ba8 <g_1595>
   17c4a:	48 89 85 f8 e4 ff ff 	mov    %rax,-0x1b08(%rbp)
   17c51:	48 8d 05 48 ef 00 00 	lea    0xef48(%rip),%rax        # 26ba0 <g_1129>
   17c58:	48 89 85 00 e5 ff ff 	mov    %rax,-0x1b00(%rbp)
   17c5f:	48 8d 85 9c e1 ff ff 	lea    -0x1e64(%rbp),%rax
   17c66:	48 89 85 08 e5 ff ff 	mov    %rax,-0x1af8(%rbp)
   17c6d:	48 8d 85 98 e1 ff ff 	lea    -0x1e68(%rbp),%rax
   17c74:	48 89 85 10 e5 ff ff 	mov    %rax,-0x1af0(%rbp)
   17c7b:	48 c7 85 18 e5 ff ff 	movq   $0x0,-0x1ae8(%rbp)
   17c82:	00 00 00 00 
   17c86:	48 8d 85 20 e8 ff ff 	lea    -0x17e0(%rbp),%rax
   17c8d:	48 83 c0 04          	add    $0x4,%rax
   17c91:	48 89 85 20 e5 ff ff 	mov    %rax,-0x1ae0(%rbp)
   17c98:	48 8d 85 94 e1 ff ff 	lea    -0x1e6c(%rbp),%rax
   17c9f:	48 89 85 28 e5 ff ff 	mov    %rax,-0x1ad8(%rbp)
   17ca6:	48 c7 85 30 e5 ff ff 	movq   $0x0,-0x1ad0(%rbp)
   17cad:	00 00 00 00 
   17cb1:	48 8d 05 e8 ee 00 00 	lea    0xeee8(%rip),%rax        # 26ba0 <g_1129>
   17cb8:	48 89 85 50 e9 ff ff 	mov    %rax,-0x16b0(%rbp)
   17cbf:	48 8d 05 da ee 00 00 	lea    0xeeda(%rip),%rax        # 26ba0 <g_1129>
   17cc6:	48 89 85 58 e9 ff ff 	mov    %rax,-0x16a8(%rbp)
   17ccd:	48 8d 05 88 a8 00 00 	lea    0xa888(%rip),%rax        # 2255c <g_426+0x1c>
   17cd4:	48 89 85 60 e9 ff ff 	mov    %rax,-0x16a0(%rbp)
   17cdb:	48 c7 85 68 e9 ff ff 	movq   $0x0,-0x1698(%rbp)
   17ce2:	00 00 00 00 
   17ce6:	48 8d 05 6f a8 00 00 	lea    0xa86f(%rip),%rax        # 2255c <g_426+0x1c>
   17ced:	48 89 85 70 e9 ff ff 	mov    %rax,-0x1690(%rbp)
   17cf4:	48 8d 05 a5 ee 00 00 	lea    0xeea5(%rip),%rax        # 26ba0 <g_1129>
   17cfb:	48 89 85 78 e9 ff ff 	mov    %rax,-0x1688(%rbp)
   17d02:	48 8d 05 97 ee 00 00 	lea    0xee97(%rip),%rax        # 26ba0 <g_1129>
   17d09:	48 89 85 80 e9 ff ff 	mov    %rax,-0x1680(%rbp)
   17d10:	48 8d 05 45 a8 00 00 	lea    0xa845(%rip),%rax        # 2255c <g_426+0x1c>
   17d17:	48 89 85 88 e9 ff ff 	mov    %rax,-0x1678(%rbp)
   17d1e:	48 c7 85 90 e9 ff ff 	movq   $0x0,-0x1670(%rbp)
   17d25:	00 00 00 00 
   17d29:	48 8d 05 2c a8 00 00 	lea    0xa82c(%rip),%rax        # 2255c <g_426+0x1c>
   17d30:	48 89 85 98 e9 ff ff 	mov    %rax,-0x1668(%rbp)
   17d37:	c7 85 a0 e2 ff ff 70 	movl   $0xf3c70,-0x1d60(%rbp)
   17d3e:	3c 0f 00 
   17d41:	48 8d 85 18 e3 ff ff 	lea    -0x1ce8(%rbp),%rax
   17d48:	48 89 85 00 eb ff ff 	mov    %rax,-0x1500(%rbp)
   17d4f:	48 8d 85 18 e3 ff ff 	lea    -0x1ce8(%rbp),%rax
   17d56:	48 89 85 08 eb ff ff 	mov    %rax,-0x14f8(%rbp)
   17d5d:	48 8d 85 18 e3 ff ff 	lea    -0x1ce8(%rbp),%rax
   17d64:	48 89 85 10 eb ff ff 	mov    %rax,-0x14f0(%rbp)
   17d6b:	48 8d 85 18 e3 ff ff 	lea    -0x1ce8(%rbp),%rax
   17d72:	48 89 85 18 eb ff ff 	mov    %rax,-0x14e8(%rbp)
   17d79:	48 8d 85 18 e3 ff ff 	lea    -0x1ce8(%rbp),%rax
   17d80:	48 89 85 20 eb ff ff 	mov    %rax,-0x14e0(%rbp)
   17d87:	48 8d 85 18 e3 ff ff 	lea    -0x1ce8(%rbp),%rax
   17d8e:	48 89 85 28 eb ff ff 	mov    %rax,-0x14d8(%rbp)
   17d95:	48 8d 85 18 e3 ff ff 	lea    -0x1ce8(%rbp),%rax
   17d9c:	48 89 85 30 eb ff ff 	mov    %rax,-0x14d0(%rbp)
   17da3:	48 8d 85 18 e3 ff ff 	lea    -0x1ce8(%rbp),%rax
   17daa:	48 89 85 38 eb ff ff 	mov    %rax,-0x14c8(%rbp)
   17db1:	48 8d 85 18 e3 ff ff 	lea    -0x1ce8(%rbp),%rax
   17db8:	48 89 85 40 eb ff ff 	mov    %rax,-0x14c0(%rbp)
   17dbf:	48 8d 85 18 e3 ff ff 	lea    -0x1ce8(%rbp),%rax
   17dc6:	48 89 85 48 eb ff ff 	mov    %rax,-0x14b8(%rbp)
   17dcd:	48 8d 85 30 e3 ff ff 	lea    -0x1cd0(%rbp),%rax
   17dd4:	48 89 85 38 e5 ff ff 	mov    %rax,-0x1ac8(%rbp)
   17ddb:	c7 85 f0 e1 ff ff 00 	movl   $0x0,-0x1e10(%rbp)
   17de2:	00 00 00 
   17de5:	eb 54                	jmp    17e3b <func_43+0x3b5e>
   17de7:	c7 85 f4 e1 ff ff 00 	movl   $0x0,-0x1e0c(%rbp)
   17dee:	00 00 00 
   17df1:	eb 38                	jmp    17e2b <func_43+0x3b4e>
   17df3:	8b 85 f4 e1 ff ff    	mov    -0x1e0c(%rbp),%eax
   17df9:	48 63 c8             	movslq %eax,%rcx
   17dfc:	8b 85 f0 e1 ff ff    	mov    -0x1e10(%rbp),%eax
   17e02:	48 63 d0             	movslq %eax,%rdx
   17e05:	48 89 d0             	mov    %rdx,%rax
   17e08:	48 01 c0             	add    %rax,%rax
   17e0b:	48 01 d0             	add    %rdx,%rax
   17e0e:	48 01 c0             	add    %rax,%rax
   17e11:	48 8d 14 08          	lea    (%rax,%rcx,1),%rdx
   17e15:	48 8d 85 00 eb ff ff 	lea    -0x1500(%rbp),%rax
   17e1c:	48 89 84 d5 30 f2 ff 	mov    %rax,-0xdd0(%rbp,%rdx,8)
   17e23:	ff 
   17e24:	83 85 f4 e1 ff ff 01 	addl   $0x1,-0x1e0c(%rbp)
   17e2b:	83 bd f4 e1 ff ff 05 	cmpl   $0x5,-0x1e0c(%rbp)
   17e32:	7e bf                	jle    17df3 <func_43+0x3b16>
   17e34:	83 85 f0 e1 ff ff 01 	addl   $0x1,-0x1e10(%rbp)
   17e3b:	83 bd f0 e1 ff ff 07 	cmpl   $0x7,-0x1e10(%rbp)
   17e42:	7e a3                	jle    17de7 <func_43+0x3b0a>
   17e44:	8b 05 f2 a7 00 00    	mov    0xa7f2(%rip),%eax        # 2263c <g_1365+0xc>
   17e4a:	83 e8 01             	sub    $0x1,%eax
   17e4d:	89 05 e9 a7 00 00    	mov    %eax,0xa7e9(%rip)        # 2263c <g_1365+0xc>
   17e53:	8b 05 e3 a7 00 00    	mov    0xa7e3(%rip),%eax        # 2263c <g_1365+0xc>
   17e59:	85 c0                	test   %eax,%eax
   17e5b:	0f 89 ce fd ff ff    	jns    17c2f <func_43+0x3952>
   17e61:	c7 05 3d a7 00 00 00 	movl   $0x0,0xa73d(%rip)        # 225a8 <g_843+0x8>
   17e68:	00 00 00 
   17e6b:	e9 2c 07 00 00       	jmpq   1859c <func_43+0x42bf>
   17e70:	c7 85 48 e2 ff ff e2 	movl   $0x7684d7e2,-0x1db8(%rbp)
   17e77:	d7 84 76 
   17e7a:	c7 85 b0 e1 ff ff 91 	movl   $0xf66d2691,-0x1e50(%rbp)
   17e81:	26 6d f6 
   17e84:	c7 85 4c e2 ff ff ff 	movl   $0xffffffff,-0x1db4(%rbp)
   17e8b:	ff ff ff 
   17e8e:	c7 85 50 e2 ff ff 00 	movl   $0x0,-0x1db0(%rbp)
   17e95:	00 00 00 
   17e98:	c7 85 54 e2 ff ff 3e 	movl   $0xff19c93e,-0x1dac(%rbp)
   17e9f:	c9 19 ff 
   17ea2:	c7 85 58 e2 ff ff 46 	movl   $0xed023946,-0x1da8(%rbp)
   17ea9:	39 02 ed 
   17eac:	c7 85 5c e2 ff ff fc 	movl   $0xfffffffc,-0x1da4(%rbp)
   17eb3:	ff ff ff 
   17eb6:	c7 85 60 e2 ff ff 01 	movl   $0x1,-0x1da0(%rbp)
   17ebd:	00 00 00 
   17ec0:	c7 85 64 e2 ff ff 5f 	movl   $0x15eaca5f,-0x1d9c(%rbp)
   17ec7:	ca ea 15 
   17eca:	c7 85 68 e2 ff ff c5 	movl   $0xe31e56c5,-0x1d98(%rbp)
   17ed1:	56 1e e3 
   17ed4:	c7 85 6c e2 ff ff 01 	movl   $0x1,-0x1d94(%rbp)
   17edb:	00 00 00 
   17ede:	c7 85 70 e2 ff ff 01 	movl   $0x1,-0x1d90(%rbp)
   17ee5:	00 00 00 
   17ee8:	c7 85 74 e2 ff ff 01 	movl   $0x1,-0x1d8c(%rbp)
   17eef:	00 00 00 
   17ef2:	c7 85 78 e2 ff ff ff 	movl   $0xffffffff,-0x1d88(%rbp)
   17ef9:	ff ff ff 
   17efc:	c7 85 7c e2 ff ff 8a 	movl   $0xa7b9468a,-0x1d84(%rbp)
   17f03:	46 b9 a7 
   17f06:	c7 85 80 e2 ff ff 22 	movl   $0x38ea2222,-0x1d80(%rbp)
   17f0d:	22 ea 38 
   17f10:	c7 85 84 e2 ff ff 9b 	movl   $0xb55ebe9b,-0x1d7c(%rbp)
   17f17:	be 5e b5 
   17f1a:	c7 85 88 e2 ff ff ec 	movl   $0xad1283ec,-0x1d78(%rbp)
   17f21:	83 12 ad 
   17f24:	c7 85 8c e2 ff ff 01 	movl   $0x1,-0x1d74(%rbp)
   17f2b:	00 00 00 
   17f2e:	c7 85 90 e2 ff ff 8c 	movl   $0xbdeae68c,-0x1d70(%rbp)
   17f35:	e6 ea bd 
   17f38:	c7 85 50 e9 ff ff c4 	movl   $0x805282c4,-0x16b0(%rbp)
   17f3f:	82 52 80 
   17f42:	c7 85 54 e9 ff ff 67 	movl   $0xe2642167,-0x16ac(%rbp)
   17f49:	21 64 e2 
   17f4c:	c7 85 58 e9 ff ff fe 	movl   $0xfffffffe,-0x16a8(%rbp)
   17f53:	ff ff ff 
   17f56:	c7 85 5c e9 ff ff fe 	movl   $0xfffffffe,-0x16a4(%rbp)
   17f5d:	ff ff ff 
   17f60:	c7 85 60 e9 ff ff 67 	movl   $0xe2642167,-0x16a0(%rbp)
   17f67:	21 64 e2 
   17f6a:	c7 85 64 e9 ff ff c4 	movl   $0x805282c4,-0x169c(%rbp)
   17f71:	82 52 80 
   17f74:	c7 85 68 e9 ff ff 1b 	movl   $0xd7eeab1b,-0x1698(%rbp)
   17f7b:	ab ee d7 
   17f7e:	c7 85 6c e9 ff ff 67 	movl   $0xe2642167,-0x1694(%rbp)
   17f85:	21 64 e2 
   17f88:	c7 85 70 e9 ff ff 1b 	movl   $0xd7eeab1b,-0x1690(%rbp)
   17f8f:	ab ee d7 
   17f92:	c7 85 74 e9 ff ff ff 	movl   $0xffffffff,-0x168c(%rbp)
   17f99:	ff ff ff 
   17f9c:	c7 85 78 e9 ff ff 00 	movl   $0x0,-0x1688(%rbp)
   17fa3:	00 00 00 
   17fa6:	c7 85 7c e9 ff ff 04 	movl   $0x8c568f04,-0x1684(%rbp)
   17fad:	8f 56 8c 
   17fb0:	c7 85 80 e9 ff ff 04 	movl   $0x8c568f04,-0x1680(%rbp)
   17fb7:	8f 56 8c 
   17fba:	c7 85 84 e9 ff ff 00 	movl   $0x0,-0x167c(%rbp)
   17fc1:	00 00 00 
   17fc4:	c7 85 88 e9 ff ff ff 	movl   $0xffffffff,-0x1678(%rbp)
   17fcb:	ff ff ff 
   17fce:	c7 85 8c e9 ff ff 06 	movl   $0x6,-0x1674(%rbp)
   17fd5:	00 00 00 
   17fd8:	c7 85 90 e9 ff ff 00 	movl   $0x0,-0x1670(%rbp)
   17fdf:	00 00 00 
   17fe2:	c7 85 94 e9 ff ff 06 	movl   $0x6,-0x166c(%rbp)
   17fe9:	00 00 00 
   17fec:	c7 85 98 e9 ff ff c4 	movl   $0x805282c4,-0x1668(%rbp)
   17ff3:	82 52 80 
   17ff6:	c7 85 9c e9 ff ff 67 	movl   $0xe2642167,-0x1664(%rbp)
   17ffd:	21 64 e2 
   18000:	c7 85 a0 e9 ff ff fe 	movl   $0xfffffffe,-0x1660(%rbp)
   18007:	ff ff ff 
   1800a:	c7 85 a4 e9 ff ff fe 	movl   $0xfffffffe,-0x165c(%rbp)
   18011:	ff ff ff 
   18014:	c7 85 a8 e9 ff ff 67 	movl   $0xe2642167,-0x1658(%rbp)
   1801b:	21 64 e2 
   1801e:	c7 85 ac e9 ff ff c4 	movl   $0x805282c4,-0x1654(%rbp)
   18025:	82 52 80 
   18028:	c7 85 b0 e9 ff ff 1b 	movl   $0xd7eeab1b,-0x1650(%rbp)
   1802f:	ab ee d7 
   18032:	c7 85 b4 e9 ff ff 67 	movl   $0xe2642167,-0x164c(%rbp)
   18039:	21 64 e2 
   1803c:	c7 85 b8 e9 ff ff 1b 	movl   $0xd7eeab1b,-0x1648(%rbp)
   18043:	ab ee d7 
   18046:	c7 85 bc e9 ff ff ff 	movl   $0xffffffff,-0x1644(%rbp)
   1804d:	ff ff ff 
   18050:	c7 85 c0 e9 ff ff 00 	movl   $0x0,-0x1640(%rbp)
   18057:	00 00 00 
   1805a:	c7 85 c4 e9 ff ff 04 	movl   $0x8c568f04,-0x163c(%rbp)
   18061:	8f 56 8c 
   18064:	c7 85 c8 e9 ff ff 04 	movl   $0x8c568f04,-0x1638(%rbp)
   1806b:	8f 56 8c 
   1806e:	c7 85 cc e9 ff ff 00 	movl   $0x0,-0x1634(%rbp)
   18075:	00 00 00 
   18078:	c7 85 d0 e9 ff ff ff 	movl   $0xffffffff,-0x1630(%rbp)
   1807f:	ff ff ff 
   18082:	c7 85 d4 e9 ff ff 06 	movl   $0x6,-0x162c(%rbp)
   18089:	00 00 00 
   1808c:	c7 85 d8 e9 ff ff 00 	movl   $0x0,-0x1628(%rbp)
   18093:	00 00 00 
   18096:	c7 85 dc e9 ff ff 06 	movl   $0x6,-0x1624(%rbp)
   1809d:	00 00 00 
   180a0:	c7 85 e0 e9 ff ff c4 	movl   $0x805282c4,-0x1620(%rbp)
   180a7:	82 52 80 
   180aa:	c7 85 e4 e9 ff ff 67 	movl   $0xe2642167,-0x161c(%rbp)
   180b1:	21 64 e2 
   180b4:	c7 85 e8 e9 ff ff fe 	movl   $0xfffffffe,-0x1618(%rbp)
   180bb:	ff ff ff 
   180be:	c7 85 ec e9 ff ff fe 	movl   $0xfffffffe,-0x1614(%rbp)
   180c5:	ff ff ff 
   180c8:	c7 85 f0 e9 ff ff fe 	movl   $0xfffffffe,-0x1610(%rbp)
   180cf:	ff ff ff 
   180d2:	c7 85 f4 e9 ff ff 02 	movl   $0x2,-0x160c(%rbp)
   180d9:	00 00 00 
   180dc:	c7 85 f8 e9 ff ff c5 	movl   $0x9eec03c5,-0x1608(%rbp)
   180e3:	03 ec 9e 
   180e6:	c7 85 fc e9 ff ff fe 	movl   $0xfffffffe,-0x1604(%rbp)
   180ed:	ff ff ff 
   180f0:	c7 85 00 ea ff ff c5 	movl   $0x9eec03c5,-0x1600(%rbp)
   180f7:	03 ec 9e 
   180fa:	c7 05 b8 a4 00 00 e8 	movl   $0xffffffe8,0xa4b8(%rip)        # 225bc <g_852>
   18101:	ff ff ff 
   18104:	e9 15 01 00 00       	jmpq   1821e <func_43+0x3f41>
   18109:	c7 85 94 e2 ff ff 02 	movl   $0x2,-0x1d6c(%rbp)
   18110:	00 00 00 
   18113:	48 8b 85 c0 e4 ff ff 	mov    -0x1b40(%rbp),%rax
   1811a:	48 8b 00             	mov    (%rax),%rax
   1811d:	8b 00                	mov    (%rax),%eax
   1811f:	0f bf d8             	movswl %ax,%ebx
   18122:	be 0d 00 00 00       	mov    $0xd,%esi
   18127:	bf 81 9f ff ff       	mov    $0xffff9f81,%edi
   1812c:	e8 f9 23 ff ff       	callq  a52a <safe_rshift_func_int16_t_s_s>
   18131:	0f be c0             	movsbl %al,%eax
   18134:	be 00 00 00 00       	mov    $0x0,%esi
   18139:	89 c7                	mov    %eax,%edi
   1813b:	e8 d2 20 ff ff       	callq  a212 <safe_mul_func_int8_t_s_s>
   18140:	48 8b 05 41 c6 00 00 	mov    0xc641(%rip),%rax        # 24788 <g_134>
   18147:	0f b7 00             	movzwl (%rax),%eax
   1814a:	98                   	cwtl   
   1814b:	89 de                	mov    %ebx,%esi
   1814d:	89 c7                	mov    %eax,%edi
   1814f:	e8 01 23 ff ff       	callq  a455 <safe_div_func_int16_t_s_s>
   18154:	48 8b 85 c0 e4 ff ff 	mov    -0x1b40(%rbp),%rax
   1815b:	48 8b 00             	mov    (%rax),%rax
   1815e:	8b 00                	mov    (%rax),%eax
   18160:	0f b7 d0             	movzwl %ax,%edx
   18163:	48 8b 05 f6 d6 00 00 	mov    0xd6f6(%rip),%rax        # 25860 <g_706>
   1816a:	0f b7 00             	movzwl (%rax),%eax
   1816d:	0f b7 c0             	movzwl %ax,%eax
   18170:	89 d6                	mov    %edx,%esi
   18172:	89 c7                	mov    %eax,%edi
   18174:	e8 15 2c ff ff       	callq  ad8e <safe_div_func_uint16_t_u_u>
   18179:	be ff ff ff ff       	mov    $0xffffffff,%esi
   1817e:	bf fa 72 00 00       	mov    $0x72fa,%edi
   18183:	e8 4b 22 ff ff       	callq  a3d3 <safe_sub_func_int16_t_s_s>
   18188:	0f bf 95 5c e1 ff ff 	movswl -0x1ea4(%rbp),%edx
   1818f:	48 8b 05 ea d6 00 00 	mov    0xd6ea(%rip),%rax        # 25880 <g_1053>
   18196:	48 8b 00             	mov    (%rax),%rax
   18199:	0f b6 00             	movzbl (%rax),%eax
   1819c:	0f b6 c0             	movzbl %al,%eax
   1819f:	39 c2                	cmp    %eax,%edx
   181a1:	0f 95 c0             	setne  %al
   181a4:	0f b6 c0             	movzbl %al,%eax
   181a7:	be 01 00 00 00       	mov    $0x1,%esi
   181ac:	89 c7                	mov    %eax,%edi
   181ae:	e8 82 21 ff ff       	callq  a335 <safe_rshift_func_int8_t_s_s>
   181b3:	48 8b 05 16 d4 00 00 	mov    0xd416(%rip),%rax        # 255d0 <g_239>
   181ba:	48 8b 00             	mov    (%rax),%rax
   181bd:	8b 10                	mov    (%rax),%edx
   181bf:	48 8b 85 50 e4 ff ff 	mov    -0x1bb0(%rbp),%rax
   181c6:	89 10                	mov    %edx,(%rax)
   181c8:	48 8b 85 50 e4 ff ff 	mov    -0x1bb0(%rbp),%rax
   181cf:	8b 10                	mov    (%rax),%edx
   181d1:	0f bf 85 5c e1 ff ff 	movswl -0x1ea4(%rbp),%eax
   181d8:	39 c2                	cmp    %eax,%edx
   181da:	0f 9c c0             	setl   %al
   181dd:	0f b6 d0             	movzbl %al,%edx
   181e0:	48 8b 85 a8 e3 ff ff 	mov    -0x1c58(%rbp),%rax
   181e7:	8b 00                	mov    (%rax),%eax
   181e9:	21 c2                	and    %eax,%edx
   181eb:	48 8b 85 a8 e3 ff ff 	mov    -0x1c58(%rbp),%rax
   181f2:	89 10                	mov    %edx,(%rax)
   181f4:	48 8b 85 a8 e3 ff ff 	mov    -0x1c58(%rbp),%rax
   181fb:	8b 00                	mov    (%rax),%eax
   181fd:	21 85 94 e2 ff ff    	and    %eax,-0x1d6c(%rbp)
   18203:	8b 05 b3 a3 00 00    	mov    0xa3b3(%rip),%eax        # 225bc <g_852>
   18209:	48 98                	cltq   
   1820b:	be 04 00 00 00       	mov    $0x4,%esi
   18210:	48 89 c7             	mov    %rax,%rdi
   18213:	e8 16 2e ff ff       	callq  b02e <safe_add_func_uint64_t_u_u>
   18218:	89 05 9e a3 00 00    	mov    %eax,0xa39e(%rip)        # 225bc <g_852>
   1821e:	8b 05 98 a3 00 00    	mov    0xa398(%rip),%eax        # 225bc <g_852>
   18224:	83 f8 f0             	cmp    $0xfffffff0,%eax
   18227:	0f 85 dc fe ff ff    	jne    18109 <func_43+0x3e2c>
   1822d:	48 8d 05 54 d9 00 00 	lea    0xd954(%rip),%rax        # 25b88 <g_1348>
   18234:	48 39 85 60 e4 ff ff 	cmp    %rax,-0x1ba0(%rbp)
   1823b:	0f 95 c2             	setne  %dl
   1823e:	48 8b 85 20 e3 ff ff 	mov    -0x1ce0(%rbp),%rax
   18245:	0f b6 d2             	movzbl %dl,%edx
   18248:	89 10                	mov    %edx,(%rax)
   1824a:	c7 05 d4 a1 00 00 00 	movl   $0x0,0xa1d4(%rip)        # 22428 <g_248+0x8>
   18251:	00 00 00 
   18254:	e9 25 03 00 00       	jmpq   1857e <func_43+0x42a1>
   18259:	48 8d 85 98 e1 ff ff 	lea    -0x1e68(%rbp),%rax
   18260:	48 89 85 d8 e4 ff ff 	mov    %rax,-0x1b28(%rbp)
   18267:	48 8d 85 a4 e1 ff ff 	lea    -0x1e5c(%rbp),%rax
   1826e:	48 89 85 e0 e4 ff ff 	mov    %rax,-0x1b20(%rbp)
   18275:	48 c7 85 e8 e4 ff ff 	movq   $0x0,-0x1b18(%rbp)
   1827c:	00 00 00 00 
   18280:	48 8d 85 20 e8 ff ff 	lea    -0x17e0(%rbp),%rax
   18287:	48 83 c0 0c          	add    $0xc,%rax
   1828b:	48 89 85 f0 e4 ff ff 	mov    %rax,-0x1b10(%rbp)
   18292:	48 8d 05 af a2 00 00 	lea    0xa2af(%rip),%rax        # 22548 <g_426+0x8>
   18299:	48 89 85 00 eb ff ff 	mov    %rax,-0x1500(%rbp)
   182a0:	48 8d 05 a1 a2 00 00 	lea    0xa2a1(%rip),%rax        # 22548 <g_426+0x8>
   182a7:	48 89 85 08 eb ff ff 	mov    %rax,-0x14f8(%rbp)
   182ae:	48 8d 85 b0 e1 ff ff 	lea    -0x1e50(%rbp),%rax
   182b5:	48 89 85 10 eb ff ff 	mov    %rax,-0x14f0(%rbp)
   182bc:	48 8d 85 a8 e1 ff ff 	lea    -0x1e58(%rbp),%rax
   182c3:	48 89 85 18 eb ff ff 	mov    %rax,-0x14e8(%rbp)
   182ca:	48 8d 85 b0 e1 ff ff 	lea    -0x1e50(%rbp),%rax
   182d1:	48 89 85 20 eb ff ff 	mov    %rax,-0x14e0(%rbp)
   182d8:	48 8d 05 69 a2 00 00 	lea    0xa269(%rip),%rax        # 22548 <g_426+0x8>
   182df:	48 89 85 28 eb ff ff 	mov    %rax,-0x14d8(%rbp)
   182e6:	48 8d 85 b0 e1 ff ff 	lea    -0x1e50(%rbp),%rax
   182ed:	48 89 85 30 eb ff ff 	mov    %rax,-0x14d0(%rbp)
   182f4:	48 8d 85 98 e1 ff ff 	lea    -0x1e68(%rbp),%rax
   182fb:	48 89 85 38 eb ff ff 	mov    %rax,-0x14c8(%rbp)
   18302:	48 8d 85 a8 e1 ff ff 	lea    -0x1e58(%rbp),%rax
   18309:	48 89 85 40 eb ff ff 	mov    %rax,-0x14c0(%rbp)
   18310:	48 8d 85 a8 e1 ff ff 	lea    -0x1e58(%rbp),%rax
   18317:	48 89 85 48 eb ff ff 	mov    %rax,-0x14b8(%rbp)
   1831e:	48 8d 85 98 e1 ff ff 	lea    -0x1e68(%rbp),%rax
   18325:	48 89 85 50 eb ff ff 	mov    %rax,-0x14b0(%rbp)
   1832c:	48 8d 85 b0 e1 ff ff 	lea    -0x1e50(%rbp),%rax
   18333:	48 89 85 58 eb ff ff 	mov    %rax,-0x14a8(%rbp)
   1833a:	48 8d 05 07 a2 00 00 	lea    0xa207(%rip),%rax        # 22548 <g_426+0x8>
   18341:	48 89 85 60 eb ff ff 	mov    %rax,-0x14a0(%rbp)
   18348:	48 8d 85 b0 e1 ff ff 	lea    -0x1e50(%rbp),%rax
   1834f:	48 89 85 68 eb ff ff 	mov    %rax,-0x1498(%rbp)
   18356:	48 8d 85 a8 e1 ff ff 	lea    -0x1e58(%rbp),%rax
   1835d:	48 89 85 70 eb ff ff 	mov    %rax,-0x1490(%rbp)
   18364:	48 8d 85 b0 e1 ff ff 	lea    -0x1e50(%rbp),%rax
   1836b:	48 89 85 78 eb ff ff 	mov    %rax,-0x1488(%rbp)
   18372:	48 8d 05 cf a1 00 00 	lea    0xa1cf(%rip),%rax        # 22548 <g_426+0x8>
   18379:	48 89 85 80 eb ff ff 	mov    %rax,-0x1480(%rbp)
   18380:	48 8d 05 c1 a1 00 00 	lea    0xa1c1(%rip),%rax        # 22548 <g_426+0x8>
   18387:	48 89 85 88 eb ff ff 	mov    %rax,-0x1478(%rbp)
   1838e:	48 8d 85 a4 e1 ff ff 	lea    -0x1e5c(%rbp),%rax
   18395:	48 89 85 90 eb ff ff 	mov    %rax,-0x1470(%rbp)
   1839c:	48 8d 85 b0 e1 ff ff 	lea    -0x1e50(%rbp),%rax
   183a3:	48 89 85 98 eb ff ff 	mov    %rax,-0x1468(%rbp)
   183aa:	48 8d 85 b0 e1 ff ff 	lea    -0x1e50(%rbp),%rax
   183b1:	48 89 85 a0 eb ff ff 	mov    %rax,-0x1460(%rbp)
   183b8:	48 8d 85 a4 e1 ff ff 	lea    -0x1e5c(%rbp),%rax
   183bf:	48 89 85 a8 eb ff ff 	mov    %rax,-0x1458(%rbp)
   183c6:	48 8d 85 98 e1 ff ff 	lea    -0x1e68(%rbp),%rax
   183cd:	48 89 85 b0 eb ff ff 	mov    %rax,-0x1450(%rbp)
   183d4:	48 8d 85 a4 e1 ff ff 	lea    -0x1e5c(%rbp),%rax
   183db:	48 89 85 b8 eb ff ff 	mov    %rax,-0x1448(%rbp)
   183e2:	48 8d 85 a4 e1 ff ff 	lea    -0x1e5c(%rbp),%rax
   183e9:	48 89 85 c0 eb ff ff 	mov    %rax,-0x1440(%rbp)
   183f0:	48 8d 85 98 e1 ff ff 	lea    -0x1e68(%rbp),%rax
   183f7:	48 89 85 c8 eb ff ff 	mov    %rax,-0x1438(%rbp)
   183fe:	48 8d 85 a4 e1 ff ff 	lea    -0x1e5c(%rbp),%rax
   18405:	48 89 85 d0 eb ff ff 	mov    %rax,-0x1430(%rbp)
   1840c:	48 8d 85 b0 e1 ff ff 	lea    -0x1e50(%rbp),%rax
   18413:	48 89 85 d8 eb ff ff 	mov    %rax,-0x1428(%rbp)
   1841a:	48 8d 85 b0 e1 ff ff 	lea    -0x1e50(%rbp),%rax
   18421:	48 89 85 e0 eb ff ff 	mov    %rax,-0x1420(%rbp)
   18428:	48 8d 85 a4 e1 ff ff 	lea    -0x1e5c(%rbp),%rax
   1842f:	48 89 85 e8 eb ff ff 	mov    %rax,-0x1418(%rbp)
   18436:	48 8d 05 0b a1 00 00 	lea    0xa10b(%rip),%rax        # 22548 <g_426+0x8>
   1843d:	48 89 85 f0 eb ff ff 	mov    %rax,-0x1410(%rbp)
   18444:	48 8d 05 fd a0 00 00 	lea    0xa0fd(%rip),%rax        # 22548 <g_426+0x8>
   1844b:	48 89 85 f8 eb ff ff 	mov    %rax,-0x1408(%rbp)
   18452:	48 8d 85 b0 e1 ff ff 	lea    -0x1e50(%rbp),%rax
   18459:	48 89 85 00 ec ff ff 	mov    %rax,-0x1400(%rbp)
   18460:	48 8d 85 a8 e1 ff ff 	lea    -0x1e58(%rbp),%rax
   18467:	48 89 85 08 ec ff ff 	mov    %rax,-0x13f8(%rbp)
   1846e:	48 8d 85 b0 e1 ff ff 	lea    -0x1e50(%rbp),%rax
   18475:	48 89 85 10 ec ff ff 	mov    %rax,-0x13f0(%rbp)
   1847c:	48 8d 05 c5 a0 00 00 	lea    0xa0c5(%rip),%rax        # 22548 <g_426+0x8>
   18483:	48 89 85 18 ec ff ff 	mov    %rax,-0x13e8(%rbp)
   1848a:	c7 85 50 e3 ff ff 01 	movl   $0x2f10ef01,-0x1cb0(%rbp)
   18491:	ef 10 2f 
   18494:	48 8d 85 30 f2 ff ff 	lea    -0xdd0(%rbp),%rax
   1849b:	48 8d 15 7e 5e 00 00 	lea    0x5e7e(%rip),%rdx        # 1e320 <g_2807+0xc70>
   184a2:	b9 b4 00 00 00       	mov    $0xb4,%ecx
   184a7:	48 89 c7             	mov    %rax,%rdi
   184aa:	48 89 d6             	mov    %rdx,%rsi
   184ad:	f3 48 a5             	rep movsq %ds:(%rsi),%es:(%rdi)
   184b0:	0f b7 05 a7 a2 00 00 	movzwl 0xa2a7(%rip),%eax        # 2275e <g_1882>
   184b7:	83 c0 01             	add    $0x1,%eax
   184ba:	66 89 05 9d a2 00 00 	mov    %ax,0xa29d(%rip)        # 2275e <g_1882>
   184c1:	be d0 a5 00 00       	mov    $0xa5d0,%esi
   184c6:	bf c2 c5 00 00       	mov    $0xc5c2,%edi
   184cb:	e8 be 28 ff ff       	callq  ad8e <safe_div_func_uint16_t_u_u>
   184d0:	48 8b 85 e0 e4 ff ff 	mov    -0x1b20(%rbp),%rax
   184d7:	8b 00                	mov    (%rax),%eax
   184d9:	0f b6 d8             	movzbl %al,%ebx
   184dc:	48 8b 85 e0 e4 ff ff 	mov    -0x1b20(%rbp),%rax
   184e3:	8b 00                	mov    (%rax),%eax
   184e5:	83 c8 01             	or     $0x1,%eax
   184e8:	89 c2                	mov    %eax,%edx
   184ea:	8b 85 5c ec ff ff    	mov    -0x13a4(%rbp),%eax
   184f0:	39 c2                	cmp    %eax,%edx
   184f2:	0f 94 c0             	sete   %al
   184f5:	0f b6 c0             	movzbl %al,%eax
   184f8:	be 02 00 00 00       	mov    $0x2,%esi
   184fd:	89 c7                	mov    %eax,%edi
   184ff:	e8 89 27 ff ff       	callq  ac8d <safe_rshift_func_uint8_t_u_s>
   18504:	44 0f b6 e0          	movzbl %al,%r12d
   18508:	0f bf 95 5c e1 ff ff 	movswl -0x1ea4(%rbp),%edx
   1850f:	48 8b 85 c0 e4 ff ff 	mov    -0x1b40(%rbp),%rax
   18516:	48 8b 00             	mov    (%rax),%rax
   18519:	8b 00                	mov    (%rax),%eax
   1851b:	39 c2                	cmp    %eax,%edx
   1851d:	0f 9c c0             	setl   %al
   18520:	0f b6 c0             	movzbl %al,%eax
   18523:	89 c7                	mov    %eax,%edi
   18525:	e8 1b 26 ff ff       	callq  ab45 <safe_unary_minus_func_uint8_t_u>
   1852a:	0f b6 c0             	movzbl %al,%eax
   1852d:	44 89 e6             	mov    %r12d,%esi
   18530:	89 c7                	mov    %eax,%edi
   18532:	e8 23 26 ff ff       	callq  ab5a <safe_add_func_uint8_t_u_u>
   18537:	0f b6 c0             	movzbl %al,%eax
   1853a:	89 de                	mov    %ebx,%esi
   1853c:	89 c7                	mov    %eax,%edi
   1853e:	e8 17 26 ff ff       	callq  ab5a <safe_add_func_uint8_t_u_u>
   18543:	48 8b 95 d8 e4 ff ff 	mov    -0x1b28(%rbp),%rdx
   1854a:	8b 12                	mov    (%rdx),%edx
   1854c:	0f b6 c0             	movzbl %al,%eax
   1854f:	09 c2                	or     %eax,%edx
   18551:	48 8b 85 d8 e4 ff ff 	mov    -0x1b28(%rbp),%rax
   18558:	89 10                	mov    %edx,(%rax)
   1855a:	48 8b 85 c0 e4 ff ff 	mov    -0x1b40(%rbp),%rax
   18561:	48 8d 95 20 ec ff ff 	lea    -0x13e0(%rbp),%rdx
   18568:	48 83 c2 3c          	add    $0x3c,%rdx
   1856c:	48 89 10             	mov    %rdx,(%rax)
   1856f:	8b 05 b3 9e 00 00    	mov    0x9eb3(%rip),%eax        # 22428 <g_248+0x8>
   18575:	83 e8 01             	sub    $0x1,%eax
   18578:	89 05 aa 9e 00 00    	mov    %eax,0x9eaa(%rip)        # 22428 <g_248+0x8>
   1857e:	8b 05 a4 9e 00 00    	mov    0x9ea4(%rip),%eax        # 22428 <g_248+0x8>
   18584:	83 f8 ff             	cmp    $0xffffffff,%eax
   18587:	0f 8c cc fc ff ff    	jl     18259 <func_43+0x3f7c>
   1858d:	8b 05 15 a0 00 00    	mov    0xa015(%rip),%eax        # 225a8 <g_843+0x8>
   18593:	83 c0 01             	add    $0x1,%eax
   18596:	89 05 0c a0 00 00    	mov    %eax,0xa00c(%rip)        # 225a8 <g_843+0x8>
   1859c:	8b 05 06 a0 00 00    	mov    0xa006(%rip),%eax        # 225a8 <g_843+0x8>
   185a2:	83 f8 1a             	cmp    $0x1a,%eax
   185a5:	0f 85 c5 f8 ff ff    	jne    17e70 <func_43+0x3b93>
   185ab:	48 8b 85 c0 e4 ff ff 	mov    -0x1b40(%rbp),%rax
   185b2:	48 8b 00             	mov    (%rax),%rax
   185b5:	8b 10                	mov    (%rax),%edx
   185b7:	48 8b 85 c0 e4 ff ff 	mov    -0x1b40(%rbp),%rax
   185be:	48 8b 00             	mov    (%rax),%rax
   185c1:	81 ca a0 68 94 a4    	or     $0xa49468a0,%edx
   185c7:	89 10                	mov    %edx,(%rax)
   185c9:	0f b7 05 64 9e 00 00 	movzwl 0x9e64(%rip),%eax        # 22434 <g_248+0x14>
   185d0:	0f b7 c0             	movzwl %ax,%eax
   185d3:	be 03 00 00 00       	mov    $0x3,%esi
   185d8:	48 89 c7             	mov    %rax,%rdi
   185db:	e8 4e 2a ff ff       	callq  b02e <safe_add_func_uint64_t_u_u>
   185e0:	66 89 05 4d 9e 00 00 	mov    %ax,0x9e4d(%rip)        # 22434 <g_248+0x14>
   185e7:	0f b7 05 46 9e 00 00 	movzwl 0x9e46(%rip),%eax        # 22434 <g_248+0x14>
   185ee:	66 83 f8 28          	cmp    $0x28,%ax
   185f2:	0f 84 4b f3 ff ff    	je     17943 <func_43+0x3666>
   185f8:	48 8b 05 89 d5 00 00 	mov    0xd589(%rip),%rax        # 25b88 <g_1348>
   185ff:	48 8d 95 30 e3 ff ff 	lea    -0x1cd0(%rbp),%rdx
   18606:	48 89 10             	mov    %rdx,(%rax)
   18609:	e9 7f 06 00 00       	jmpq   18c8d <func_43+0x49b0>
   1860e:	48 8d 05 e3 9f 00 00 	lea    0x9fe3(%rip),%rax        # 225f8 <g_1268>
   18615:	48 89 85 d8 e3 ff ff 	mov    %rax,-0x1c28(%rbp)
   1861c:	c7 85 70 e3 ff ff ff 	movl   $0xffffffff,-0x1c90(%rbp)
   18623:	ff ff ff 
   18626:	48 b8 ec b3 76 90 4f 	movabs $0x6ffd3c4f9076b3ec,%rax
   1862d:	3c fd 6f 
   18630:	48 89 85 78 e3 ff ff 	mov    %rax,-0x1c88(%rbp)
   18637:	c6 85 76 e1 ff ff 00 	movb   $0x0,-0x1e8a(%rbp)
   1863e:	48 8d 85 70 e3 ff ff 	lea    -0x1c90(%rbp),%rax
   18645:	48 89 85 e0 e3 ff ff 	mov    %rax,-0x1c20(%rbp)
   1864c:	c7 85 04 e2 ff ff fb 	movl   $0xfffffffb,-0x1dfc(%rbp)
   18653:	ff ff ff 
   18656:	c7 85 08 e2 ff ff 77 	movl   $0x4df62e77,-0x1df8(%rbp)
   1865d:	2e f6 4d 
   18660:	c7 85 0c e2 ff ff 3e 	movl   $0xe1a7f23e,-0x1df4(%rbp)
   18667:	f2 a7 e1 
   1866a:	c7 85 10 e2 ff ff f7 	movl   $0xfffffff7,-0x1df0(%rbp)
   18671:	ff ff ff 
   18674:	c7 85 14 e2 ff ff 02 	movl   $0x2,-0x1dec(%rbp)
   1867b:	00 00 00 
   1867e:	c7 85 30 f2 ff ff a0 	movl   $0x5e2f7fa0,-0xdd0(%rbp)
   18685:	7f 2f 5e 
   18688:	c7 85 34 f2 ff ff 93 	movl   $0x353c7893,-0xdcc(%rbp)
   1868f:	78 3c 35 
   18692:	c7 85 38 f2 ff ff ac 	movl   $0x662417ac,-0xdc8(%rbp)
   18699:	17 24 66 
   1869c:	c7 85 3c f2 ff ff 84 	movl   $0x1deffe84,-0xdc4(%rbp)
   186a3:	fe ef 1d 
   186a6:	c7 85 40 f2 ff ff 84 	movl   $0x1deffe84,-0xdc0(%rbp)
   186ad:	fe ef 1d 
   186b0:	c7 85 44 f2 ff ff ac 	movl   $0x662417ac,-0xdbc(%rbp)
   186b7:	17 24 66 
   186ba:	c7 85 48 f2 ff ff 27 	movl   $0xa75dd027,-0xdb8(%rbp)
   186c1:	d0 5d a7 
   186c4:	c7 85 4c f2 ff ff 27 	movl   $0xa75dd027,-0xdb4(%rbp)
   186cb:	d0 5d a7 
   186ce:	c7 85 50 f2 ff ff 04 	movl   $0x4,-0xdb0(%rbp)
   186d5:	00 00 00 
   186d8:	c7 85 54 f2 ff ff 84 	movl   $0x1deffe84,-0xdac(%rbp)
   186df:	fe ef 1d 
   186e2:	c7 85 58 f2 ff ff 93 	movl   $0x353c7893,-0xda8(%rbp)
   186e9:	78 3c 35 
   186ec:	c7 85 5c f2 ff ff 46 	movl   $0xf4df5f46,-0xda4(%rbp)
   186f3:	5f df f4 
   186f6:	c7 85 60 f2 ff ff a0 	movl   $0x5e2f7fa0,-0xda0(%rbp)
   186fd:	7f 2f 5e 
   18700:	c7 85 64 f2 ff ff 04 	movl   $0x4,-0xd9c(%rbp)
   18707:	00 00 00 
   1870a:	c7 85 68 f2 ff ff 43 	movl   $0x9b380343,-0xd98(%rbp)
   18711:	03 38 9b 
   18714:	c7 85 6c f2 ff ff 46 	movl   $0xf4df5f46,-0xd94(%rbp)
   1871b:	5f df f4 
   1871e:	c7 85 70 f2 ff ff 43 	movl   $0x9b380343,-0xd90(%rbp)
   18725:	03 38 9b 
   18728:	c7 85 74 f2 ff ff 04 	movl   $0x4,-0xd8c(%rbp)
   1872f:	00 00 00 
   18732:	c7 85 78 f2 ff ff 84 	movl   $0x1deffe84,-0xd88(%rbp)
   18739:	fe ef 1d 
   1873c:	c7 85 7c f2 ff ff a0 	movl   $0x5e2f7fa0,-0xd84(%rbp)
   18743:	7f 2f 5e 
   18746:	c7 85 80 f2 ff ff 43 	movl   $0x9b380343,-0xd80(%rbp)
   1874d:	03 38 9b 
   18750:	c7 85 84 f2 ff ff 25 	movl   $0x14b5f725,-0xd7c(%rbp)
   18757:	f7 b5 14 
   1875a:	c7 85 88 f2 ff ff 27 	movl   $0xa75dd027,-0xd78(%rbp)
   18761:	d0 5d a7 
   18764:	c7 85 8c f2 ff ff 46 	movl   $0xf4df5f46,-0xd74(%rbp)
   1876b:	5f df f4 
   1876e:	48 b8 22 b1 a7 ee 0b 	movabs $0x753ec00beea7b122,%rax
   18775:	c0 3e 75 
   18778:	48 89 85 e8 e3 ff ff 	mov    %rax,-0x1c18(%rbp)
   1877f:	c7 85 18 e2 ff ff ff 	movl   $0xffffffff,-0x1de8(%rbp)
   18786:	ff ff ff 
   18789:	66 c7 85 7c e1 ff ff 	movw   $0xffff,-0x1e84(%rbp)
   18790:	ff ff 
   18792:	8b 85 70 e3 ff ff    	mov    -0x1c90(%rbp),%eax
   18798:	0f b6 d0             	movzbl %al,%edx
   1879b:	66 83 bd 5c e1 ff ff 	cmpw   $0x0,-0x1ea4(%rbp)
   187a2:	00 
   187a3:	75 0a                	jne    187af <func_43+0x44d2>
   187a5:	66 83 bd 5c e1 ff ff 	cmpw   $0x0,-0x1ea4(%rbp)
   187ac:	00 
   187ad:	74 07                	je     187b6 <func_43+0x44d9>
   187af:	be 01 00 00 00       	mov    $0x1,%esi
   187b4:	eb 05                	jmp    187bb <func_43+0x44de>
   187b6:	be 00 00 00 00       	mov    $0x0,%esi
   187bb:	48 8b 85 58 ea ff ff 	mov    -0x15a8(%rbp),%rax
   187c2:	48 8d 0d 8f d4 00 00 	lea    0xd48f(%rip),%rcx        # 25c58 <g_1826>
   187c9:	48 89 8d c8 e3 ff ff 	mov    %rcx,-0x1c38(%rbp)
   187d0:	48 39 85 c8 e3 ff ff 	cmp    %rax,-0x1c38(%rbp)
   187d7:	0f 94 c0             	sete   %al
   187da:	0f b6 c0             	movzbl %al,%eax
   187dd:	39 c6                	cmp    %eax,%esi
   187df:	0f 9e c0             	setle  %al
   187e2:	89 c1                	mov    %eax,%ecx
   187e4:	48 8b 05 9d bf 00 00 	mov    0xbf9d(%rip),%rax        # 24788 <g_134>
   187eb:	0f b7 00             	movzwl (%rax),%eax
   187ee:	31 c1                	xor    %eax,%ecx
   187f0:	48 8b 05 69 d0 00 00 	mov    0xd069(%rip),%rax        # 25860 <g_706>
   187f7:	0f b7 00             	movzwl (%rax),%eax
   187fa:	31 c8                	xor    %ecx,%eax
   187fc:	0f b6 c0             	movzbl %al,%eax
   187ff:	89 d6                	mov    %edx,%esi
   18801:	89 c7                	mov    %eax,%edi
   18803:	e8 52 23 ff ff       	callq  ab5a <safe_add_func_uint8_t_u_u>
   18808:	84 c0                	test   %al,%al
   1880a:	74 11                	je     1881d <func_43+0x4540>
   1880c:	66 83 bd 5c e1 ff ff 	cmpw   $0x0,-0x1ea4(%rbp)
   18813:	00 
   18814:	74 07                	je     1881d <func_43+0x4540>
   18816:	bb 01 00 00 00       	mov    $0x1,%ebx
   1881b:	eb 05                	jmp    18822 <func_43+0x4545>
   1881d:	bb 00 00 00 00       	mov    $0x0,%ebx
   18822:	be 0f 00 00 00       	mov    $0xf,%esi
   18827:	bf fd 13 00 00       	mov    $0x13fd,%edi
   1882c:	e8 d5 25 ff ff       	callq  ae06 <safe_lshift_func_uint16_t_u_u>
   18831:	0f b7 c0             	movzwl %ax,%eax
   18834:	48 89 c6             	mov    %rax,%rsi
   18837:	bf 00 00 00 00       	mov    $0x0,%edi
   1883c:	e8 67 20 ff ff       	callq  a8a8 <safe_sub_func_int64_t_s_s>
   18841:	48 89 c2             	mov    %rax,%rdx
   18844:	48 8b 85 d8 e3 ff ff 	mov    -0x1c28(%rbp),%rax
   1884b:	48 89 10             	mov    %rdx,(%rax)
   1884e:	48 8b 85 10 e3 ff ff 	mov    -0x1cf0(%rbp),%rax
   18855:	48 8b 00             	mov    (%rax),%rax
   18858:	8b 10                	mov    (%rax),%edx
   1885a:	48 8b 85 28 e3 ff ff 	mov    -0x1cd8(%rbp),%rax
   18861:	8b 08                	mov    (%rax),%ecx
   18863:	48 8b 85 28 e3 ff ff 	mov    -0x1cd8(%rbp),%rax
   1886a:	21 d9                	and    %ebx,%ecx
   1886c:	89 08                	mov    %ecx,(%rax)
   1886e:	8b 00                	mov    (%rax),%eax
   18870:	39 c2                	cmp    %eax,%edx
   18872:	48 8b 05 7f d3 00 00 	mov    0xd37f(%rip),%rax        # 25bf8 <g_1803>
   18879:	48 8b 00             	mov    (%rax),%rax
   1887c:	48 ba c4 c8 28 d2 d5 	movabs $0xffbebd5d228c8c4,%rdx
   18883:	eb fb 0f 
   18886:	48 39 d0             	cmp    %rdx,%rax
   18889:	0f 94 c0             	sete   %al
   1888c:	0f b6 c0             	movzbl %al,%eax
   1888f:	be 04 00 00 00       	mov    $0x4,%esi
   18894:	89 c7                	mov    %eax,%edi
   18896:	e8 f2 23 ff ff       	callq  ac8d <safe_rshift_func_uint8_t_u_s>
   1889b:	0f b6 c0             	movzbl %al,%eax
   1889e:	89 85 70 e3 ff ff    	mov    %eax,-0x1c90(%rbp)
   188a4:	48 c7 05 a1 9d 00 00 	movq   $0xffffffffffffffe9,0x9da1(%rip)        # 22650 <g_1690>
   188ab:	e9 ff ff ff 
   188af:	e9 84 00 00 00       	jmpq   18938 <func_43+0x465b>
   188b4:	48 8d 85 d0 f7 ff ff 	lea    -0x830(%rbp),%rax
   188bb:	48 8d 15 fe 5f 00 00 	lea    0x5ffe(%rip),%rdx        # 1e8c0 <g_2807+0x1210>
   188c2:	b9 3c 00 00 00       	mov    $0x3c,%ecx
   188c7:	48 89 c7             	mov    %rax,%rdi
   188ca:	48 89 d6             	mov    %rdx,%rsi
   188cd:	f3 48 a5             	rep movsq %ds:(%rsi),%es:(%rdi)
   188d0:	c7 85 f8 e1 ff ff 00 	movl   $0x0,-0x1e08(%rbp)
   188d7:	00 00 00 
   188da:	eb 1e                	jmp    188fa <func_43+0x461d>
   188dc:	8b 85 f8 e1 ff ff    	mov    -0x1e08(%rbp),%eax
   188e2:	48 98                	cltq   
   188e4:	48 8d 15 fd 97 00 00 	lea    0x97fd(%rip),%rdx        # 220e8 <g_37>
   188eb:	48 89 94 c5 b0 ed ff 	mov    %rdx,-0x1250(%rbp,%rax,8)
   188f2:	ff 
   188f3:	83 85 f8 e1 ff ff 01 	addl   $0x1,-0x1e08(%rbp)
   188fa:	83 bd f8 e1 ff ff 02 	cmpl   $0x2,-0x1e08(%rbp)
   18901:	7e d9                	jle    188dc <func_43+0x45ff>
   18903:	48 8b 85 28 e3 ff ff 	mov    -0x1cd8(%rbp),%rax
   1890a:	c7 00 01 00 00 00    	movl   $0x1,(%rax)
   18910:	8b 08                	mov    (%rax),%ecx
   18912:	48 8b 85 20 e3 ff ff 	mov    -0x1ce0(%rbp),%rax
   18919:	8b 10                	mov    (%rax),%edx
   1891b:	48 8b 85 20 e3 ff ff 	mov    -0x1ce0(%rbp),%rax
   18922:	21 ca                	and    %ecx,%edx
   18924:	89 10                	mov    %edx,(%rax)
   18926:	48 8b 05 23 9d 00 00 	mov    0x9d23(%rip),%rax        # 22650 <g_1690>
   1892d:	48 83 c0 01          	add    $0x1,%rax
   18931:	48 89 05 18 9d 00 00 	mov    %rax,0x9d18(%rip)        # 22650 <g_1690>
   18938:	48 8b 05 11 9d 00 00 	mov    0x9d11(%rip),%rax        # 22650 <g_1690>
   1893f:	48 83 f8 1b          	cmp    $0x1b,%rax
   18943:	0f 8e 6b ff ff ff    	jle    188b4 <func_43+0x45d7>
   18949:	66 c7 05 90 9c 00 00 	movw   $0x4,0x9c90(%rip)        # 225e2 <g_1055+0x12>
   18950:	04 00 
   18952:	e9 25 03 00 00       	jmpq   18c7c <func_43+0x499f>
   18957:	48 b8 40 19 df 0c 81 	movabs $0x9efc8e810cdf1940,%rax
   1895e:	8e fc 9e 
   18961:	48 89 85 80 e3 ff ff 	mov    %rax,-0x1c80(%rbp)
   18968:	c7 85 20 ec ff ff fa 	movl   $0xfffffffa,-0x13e0(%rbp)
   1896f:	ff ff ff 
   18972:	c7 85 24 ec ff ff 95 	movl   $0xb9b80995,-0x13dc(%rbp)
   18979:	09 b8 b9 
   1897c:	c7 85 28 ec ff ff fa 	movl   $0xfffffffa,-0x13d8(%rbp)
   18983:	ff ff ff 
   18986:	c7 85 2c ec ff ff 95 	movl   $0xb9b80995,-0x13d4(%rbp)
   1898d:	09 b8 b9 
   18990:	c7 85 30 ec ff ff fa 	movl   $0xfffffffa,-0x13d0(%rbp)
   18997:	ff ff ff 
   1899a:	c7 85 34 ec ff ff 95 	movl   $0xb9b80995,-0x13cc(%rbp)
   189a1:	09 b8 b9 
   189a4:	c7 85 38 ec ff ff fa 	movl   $0xfffffffa,-0x13c8(%rbp)
   189ab:	ff ff ff 
   189ae:	c7 85 3c ec ff ff 95 	movl   $0xb9b80995,-0x13c4(%rbp)
   189b5:	09 b8 b9 
   189b8:	c7 85 40 ec ff ff fa 	movl   $0xfffffffa,-0x13c0(%rbp)
   189bf:	ff ff ff 
   189c2:	48 8d 85 20 ec ff ff 	lea    -0x13e0(%rbp),%rax
   189c9:	48 83 c0 10          	add    $0x10,%rax
   189cd:	48 89 85 f0 e3 ff ff 	mov    %rax,-0x1c10(%rbp)
   189d4:	48 8d 85 70 e3 ff ff 	lea    -0x1c90(%rbp),%rax
   189db:	48 89 85 f8 e3 ff ff 	mov    %rax,-0x1c08(%rbp)
   189e2:	48 8d 85 14 e7 ff ff 	lea    -0x18ec(%rbp),%rax
   189e9:	48 89 85 00 e4 ff ff 	mov    %rax,-0x1c00(%rbp)
   189f0:	48 8d 85 94 e1 ff ff 	lea    -0x1e6c(%rbp),%rax
   189f7:	48 89 85 08 e4 ff ff 	mov    %rax,-0x1bf8(%rbp)
   189fe:	48 8d 05 3b 9b 00 00 	lea    0x9b3b(%rip),%rax        # 22540 <g_426>
   18a05:	48 89 85 10 e4 ff ff 	mov    %rax,-0x1bf0(%rbp)
   18a0c:	48 c7 85 18 e4 ff ff 	movq   $0x0,-0x1be8(%rbp)
   18a13:	00 00 00 00 
   18a17:	48 8d 05 22 9b 00 00 	lea    0x9b22(%rip),%rax        # 22540 <g_426>
   18a1e:	48 89 85 20 e4 ff ff 	mov    %rax,-0x1be0(%rbp)
   18a25:	c7 85 c0 e1 ff ff 00 	movl   $0x0,-0x1e40(%rbp)
   18a2c:	00 00 00 
   18a2f:	eb 14                	jmp    18a45 <func_43+0x4768>
   18a31:	8b 85 c0 e1 ff ff    	mov    -0x1e40(%rbp),%eax
   18a37:	48 98                	cltq   
   18a39:	c6 44 05 bf 66       	movb   $0x66,-0x41(%rbp,%rax,1)
   18a3e:	83 85 c0 e1 ff ff 01 	addl   $0x1,-0x1e40(%rbp)
   18a45:	83 bd c0 e1 ff ff 08 	cmpl   $0x8,-0x1e40(%rbp)
   18a4c:	7e e3                	jle    18a31 <func_43+0x4754>
   18a4e:	c7 85 c0 e1 ff ff 00 	movl   $0x0,-0x1e40(%rbp)
   18a55:	00 00 00 
   18a58:	eb 1e                	jmp    18a78 <func_43+0x479b>
   18a5a:	8b 85 c0 e1 ff ff    	mov    -0x1e40(%rbp),%eax
   18a60:	48 98                	cltq   
   18a62:	48 8d 95 90 e1 ff ff 	lea    -0x1e70(%rbp),%rdx
   18a69:	48 89 94 c5 00 eb ff 	mov    %rdx,-0x1500(%rbp,%rax,8)
   18a70:	ff 
   18a71:	83 85 c0 e1 ff ff 01 	addl   $0x1,-0x1e40(%rbp)
   18a78:	83 bd c0 e1 ff ff 01 	cmpl   $0x1,-0x1e40(%rbp)
   18a7f:	7e d9                	jle    18a5a <func_43+0x477d>
   18a81:	c7 05 b1 9b 00 00 e3 	movl   $0xffffffe3,0x9bb1(%rip)        # 2263c <g_1365+0xc>
   18a88:	ff ff ff 
   18a8b:	e9 ae 01 00 00       	jmpq   18c3e <func_43+0x4961>
   18a90:	48 8d 05 a9 9a 00 00 	lea    0x9aa9(%rip),%rax        # 22540 <g_426>
   18a97:	48 89 85 28 e4 ff ff 	mov    %rax,-0x1bd8(%rbp)
   18a9e:	48 8d 85 98 e1 ff ff 	lea    -0x1e68(%rbp),%rax
   18aa5:	48 89 85 30 e4 ff ff 	mov    %rax,-0x1bd0(%rbp)
   18aac:	48 c7 85 d0 f7 ff ff 	movq   $0x0,-0x830(%rbp)
   18ab3:	00 00 00 00 
   18ab7:	48 c7 85 d8 f7 ff ff 	movq   $0x0,-0x828(%rbp)
   18abe:	00 00 00 00 
   18ac2:	48 c7 85 e0 f7 ff ff 	movq   $0x0,-0x820(%rbp)
   18ac9:	00 00 00 00 
   18acd:	48 c7 85 e8 f7 ff ff 	movq   $0x0,-0x818(%rbp)
   18ad4:	00 00 00 00 
   18ad8:	48 c7 85 f0 f7 ff ff 	movq   $0x0,-0x810(%rbp)
   18adf:	00 00 00 00 
   18ae3:	48 c7 85 f8 f7 ff ff 	movq   $0x0,-0x808(%rbp)
   18aea:	00 00 00 00 
   18aee:	0f b6 45 c7          	movzbl -0x39(%rbp),%eax
   18af2:	83 e8 01             	sub    $0x1,%eax
   18af5:	88 45 c7             	mov    %al,-0x39(%rbp)
   18af8:	66 c7 05 81 9a 00 00 	movw   $0x6,0x9a81(%rip)        # 22582 <g_428+0x12>
   18aff:	06 00 
   18b01:	eb 2f                	jmp    18b32 <func_43+0x4855>
   18b03:	c7 85 20 e2 ff ff c8 	movl   $0x91be15c8,-0x1de0(%rbp)
   18b0a:	15 be 91 
   18b0d:	48 8b 95 10 e3 ff ff 	mov    -0x1cf0(%rbp),%rdx
   18b14:	48 8b 05 45 d1 00 00 	mov    0xd145(%rip),%rax        # 25c60 <g_2008>
   18b1b:	48 8b 12             	mov    (%rdx),%rdx
   18b1e:	48 89 10             	mov    %rdx,(%rax)
   18b21:	0f b7 05 5a 9a 00 00 	movzwl 0x9a5a(%rip),%eax        # 22582 <g_428+0x12>
   18b28:	83 e8 01             	sub    $0x1,%eax
   18b2b:	66 89 05 50 9a 00 00 	mov    %ax,0x9a50(%rip)        # 22582 <g_428+0x12>
   18b32:	0f b7 05 49 9a 00 00 	movzwl 0x9a49(%rip),%eax        # 22582 <g_428+0x12>
   18b39:	66 85 c0             	test   %ax,%ax
   18b3c:	79 c5                	jns    18b03 <func_43+0x4826>
   18b3e:	c7 05 50 9a 00 00 f1 	movl   $0xfffffff1,0x9a50(%rip)        # 22598 <g_660>
   18b45:	ff ff ff 
   18b48:	e9 c5 00 00 00       	jmpq   18c12 <func_43+0x4935>
   18b4d:	48 b8 76 c1 3d 25 bb 	movabs $0xccb484bb253dc176,%rax
   18b54:	84 b4 cc 
   18b57:	48 89 85 88 e3 ff ff 	mov    %rax,-0x1c78(%rbp)
   18b5e:	c7 85 1c e2 ff ff c4 	movl   $0x2037b1c4,-0x1de4(%rbp)
   18b65:	b1 37 20 
   18b68:	48 8d 85 28 e3 ff ff 	lea    -0x1cd8(%rbp),%rax
   18b6f:	48 89 85 38 e4 ff ff 	mov    %rax,-0x1bc8(%rbp)
   18b76:	c7 85 c4 e1 ff ff 00 	movl   $0x0,-0x1e3c(%rbp)
   18b7d:	00 00 00 
   18b80:	eb 1b                	jmp    18b9d <func_43+0x48c0>
   18b82:	8b 85 c4 e1 ff ff    	mov    -0x1e3c(%rbp),%eax
   18b88:	48 98                	cltq   
   18b8a:	48 c7 84 c5 b0 ed ff 	movq   $0x0,-0x1250(%rbp,%rax,8)
   18b91:	ff 00 00 00 00 
   18b96:	83 85 c4 e1 ff ff 01 	addl   $0x1,-0x1e3c(%rbp)
   18b9d:	83 bd c4 e1 ff ff 04 	cmpl   $0x4,-0x1e3c(%rbp)
   18ba4:	7e dc                	jle    18b82 <func_43+0x48a5>
   18ba6:	48 83 bd d0 e3 ff ff 	cmpq   $0x0,-0x1c30(%rbp)
   18bad:	00 
   18bae:	0f 94 c0             	sete   %al
   18bb1:	0f b6 c0             	movzbl %al,%eax
   18bb4:	89 c7                	mov    %eax,%edi
   18bb6:	e8 eb 22 ff ff       	callq  aea6 <safe_unary_minus_func_uint32_t_u>
   18bbb:	88 85 76 e1 ff ff    	mov    %al,-0x1e8a(%rbp)
   18bc1:	0f b6 85 76 e1 ff ff 	movzbl -0x1e8a(%rbp),%eax
   18bc8:	0f b6 d0             	movzbl %al,%edx
   18bcb:	8b 85 70 e3 ff ff    	mov    -0x1c90(%rbp),%eax
   18bd1:	31 d0                	xor    %edx,%eax
   18bd3:	89 85 70 e3 ff ff    	mov    %eax,-0x1c90(%rbp)
   18bd9:	0f b7 8d 5c e1 ff ff 	movzwl -0x1ea4(%rbp),%ecx
   18be0:	48 8b 85 30 e4 ff ff 	mov    -0x1bd0(%rbp),%rax
   18be7:	8b 10                	mov    (%rax),%edx
   18be9:	0f bf c1             	movswl %cx,%eax
   18bec:	09 c2                	or     %eax,%edx
   18bee:	48 8b 85 30 e4 ff ff 	mov    -0x1bd0(%rbp),%rax
   18bf5:	89 10                	mov    %edx,(%rax)
   18bf7:	8b 05 9b 99 00 00    	mov    0x999b(%rip),%eax        # 22598 <g_660>
   18bfd:	89 c0                	mov    %eax,%eax
   18bff:	be 01 00 00 00       	mov    $0x1,%esi
   18c04:	48 89 c7             	mov    %rax,%rdi
   18c07:	e8 35 1c ff ff       	callq  a841 <safe_add_func_int64_t_s_s>
   18c0c:	89 05 86 99 00 00    	mov    %eax,0x9986(%rip)        # 22598 <g_660>
   18c12:	8b 05 80 99 00 00    	mov    0x9980(%rip),%eax        # 22598 <g_660>
   18c18:	83 f8 33             	cmp    $0x33,%eax
   18c1b:	0f 86 2c ff ff ff    	jbe    18b4d <func_43+0x4870>
   18c21:	48 8b 85 d8 f7 ff ff 	mov    -0x828(%rbp),%rax
   18c28:	48 89 85 e0 e3 ff ff 	mov    %rax,-0x1c20(%rbp)
   18c2f:	8b 05 07 9a 00 00    	mov    0x9a07(%rip),%eax        # 2263c <g_1365+0xc>
   18c35:	83 c0 01             	add    $0x1,%eax
   18c38:	89 05 fe 99 00 00    	mov    %eax,0x99fe(%rip)        # 2263c <g_1365+0xc>
   18c3e:	8b 05 f8 99 00 00    	mov    0x99f8(%rip),%eax        # 2263c <g_1365+0xc>
   18c44:	83 f8 f9             	cmp    $0xfffffff9,%eax
   18c47:	0f 8c 43 fe ff ff    	jl     18a90 <func_43+0x47b3>
   18c4d:	66 83 85 7c e1 ff ff 	addw   $0x1,-0x1e84(%rbp)
   18c54:	01 
   18c55:	66 83 bd 5c e1 ff ff 	cmpw   $0x0,-0x1ea4(%rbp)
   18c5c:	00 
   18c5d:	0f b7 05 7e 99 00 00 	movzwl 0x997e(%rip),%eax        # 225e2 <g_1055+0x12>
   18c64:	0f be c0             	movsbl %al,%eax
   18c67:	be 05 00 00 00       	mov    $0x5,%esi
   18c6c:	89 c7                	mov    %eax,%edi
   18c6e:	e8 7f 15 ff ff       	callq  a1f2 <safe_sub_func_int8_t_s_s>
   18c73:	66 98                	cbtw   
   18c75:	66 89 05 66 99 00 00 	mov    %ax,0x9966(%rip)        # 225e2 <g_1055+0x12>
   18c7c:	0f b7 05 5f 99 00 00 	movzwl 0x995f(%rip),%eax        # 225e2 <g_1055+0x12>
   18c83:	66 83 f8 f3          	cmp    $0xfff3,%ax
   18c87:	0f 8d ca fc ff ff    	jge    18957 <func_43+0x467a>
   18c8d:	48 8b 85 10 e3 ff ff 	mov    -0x1cf0(%rbp),%rax
   18c94:	48 8b 00             	mov    (%rax),%rax
   18c97:	8b 00                	mov    (%rax),%eax
   18c99:	48 98                	cltq   
   18c9b:	48 8b 5d c8          	mov    -0x38(%rbp),%rbx
   18c9f:	64 48 33 1c 25 28 00 	xor    %fs:0x28,%rbx
   18ca6:	00 00 
   18ca8:	74 05                	je     18caf <func_43+0x49d2>
   18caa:	e8 c1 13 ff ff       	callq  a070 <__stack_chk_fail@plt>
   18caf:	48 81 c4 88 1e 00 00 	add    $0x1e88,%rsp
   18cb6:	5b                   	pop    %rbx
   18cb7:	41 5c                	pop    %r12
   18cb9:	41 5d                	pop    %r13
   18cbb:	41 5e                	pop    %r14
   18cbd:	41 5f                	pop    %r15
   18cbf:	5d                   	pop    %rbp
   18cc0:	c3                   	retq   

0000000000018cc1 <func_47>:
   18cc1:	f3 0f 1e fa          	endbr64 
   18cc5:	55                   	push   %rbp
   18cc6:	48 89 e5             	mov    %rsp,%rbp
   18cc9:	48 81 ec e0 06 00 00 	sub    $0x6e0,%rsp
   18cd0:	89 bd 2c f9 ff ff    	mov    %edi,-0x6d4(%rbp)
   18cd6:	64 48 8b 04 25 28 00 	mov    %fs:0x28,%rax
   18cdd:	00 00 
   18cdf:	48 89 45 f8          	mov    %rax,-0x8(%rbp)
   18ce3:	31 c0                	xor    %eax,%eax
   18ce5:	66 c7 85 3e f9 ff ff 	movw   $0x90be,-0x6c2(%rbp)
   18cec:	be 90 
   18cee:	48 8d 05 5b c1 00 00 	lea    0xc15b(%rip),%rax        # 24e50 <g_205+0x630>
   18cf5:	48 89 85 a8 f9 ff ff 	mov    %rax,-0x658(%rbp)
   18cfc:	48 b8 e0 32 69 e4 c0 	movabs $0x5a9b94c0e46932e0,%rax
   18d03:	94 9b 5a 
   18d06:	48 89 85 b0 f9 ff ff 	mov    %rax,-0x650(%rbp)
   18d0d:	48 8d 05 24 97 00 00 	lea    0x9724(%rip),%rax        # 22438 <g_248+0x18>
   18d14:	48 89 85 b8 f9 ff ff 	mov    %rax,-0x648(%rbp)
   18d1b:	c7 85 54 f9 ff ff ff 	movl   $0xffffffff,-0x6ac(%rbp)
   18d22:	ff ff ff 
   18d25:	c7 85 58 f9 ff ff e3 	movl   $0xcc9cf7e3,-0x6a8(%rbp)
   18d2c:	f7 9c cc 
   18d2f:	c7 85 5c f9 ff ff 00 	movl   $0x0,-0x6a4(%rbp)
   18d36:	00 00 00 
   18d39:	c7 85 60 f9 ff ff 8c 	movl   $0xc5d6708c,-0x6a0(%rbp)
   18d40:	70 d6 c5 
   18d43:	c7 85 64 f9 ff ff 2e 	movl   $0x32635c2e,-0x69c(%rbp)
   18d4a:	5c 63 32 
   18d4d:	c7 85 68 f9 ff ff 05 	movl   $0x525b2005,-0x698(%rbp)
   18d54:	20 5b 52 
   18d57:	c7 85 6c f9 ff ff 09 	movl   $0x9,-0x694(%rbp)
   18d5e:	00 00 00 
   18d61:	c7 85 70 f9 ff ff ff 	movl   $0xffffffff,-0x690(%rbp)
   18d68:	ff ff ff 
   18d6b:	c7 85 74 f9 ff ff 01 	movl   $0x1,-0x68c(%rbp)
   18d72:	00 00 00 
   18d75:	c7 85 78 f9 ff ff 38 	movl   $0x6e416438,-0x688(%rbp)
   18d7c:	64 41 6e 
   18d7f:	c7 85 7c f9 ff ff 30 	movl   $0xb7d6a130,-0x684(%rbp)
   18d86:	a1 d6 b7 
   18d89:	c7 85 70 fa ff ff 91 	movl   $0xe9e37f91,-0x590(%rbp)
   18d90:	7f e3 e9 
   18d93:	c7 85 74 fa ff ff 91 	movl   $0xe9e37f91,-0x58c(%rbp)
   18d9a:	7f e3 e9 
   18d9d:	c7 85 78 fa ff ff 02 	movl   $0x2,-0x588(%rbp)
   18da4:	00 00 00 
   18da7:	c7 85 7c fa ff ff ff 	movl   $0xffffffff,-0x584(%rbp)
   18dae:	ff ff ff 
   18db1:	c7 85 80 fa ff ff f7 	movl   $0xfffffff7,-0x580(%rbp)
   18db8:	ff ff ff 
   18dbb:	c7 85 84 fa ff ff 38 	movl   $0xd01ec138,-0x57c(%rbp)
   18dc2:	c1 1e d0 
   18dc5:	c7 85 88 fa ff ff 01 	movl   $0x1,-0x578(%rbp)
   18dcc:	00 00 00 
   18dcf:	c7 85 8c fa ff ff fc 	movl   $0xfffffffc,-0x574(%rbp)
   18dd6:	ff ff ff 
   18dd9:	c7 85 90 fa ff ff 01 	movl   $0x1,-0x570(%rbp)
   18de0:	00 00 00 
   18de3:	c7 85 94 fa ff ff 38 	movl   $0xd01ec138,-0x56c(%rbp)
   18dea:	c1 1e d0 
   18ded:	c7 85 98 fa ff ff f7 	movl   $0xfffffff7,-0x568(%rbp)
   18df4:	ff ff ff 
   18df7:	c7 85 9c fa ff ff ff 	movl   $0xffffffff,-0x564(%rbp)
   18dfe:	ff ff ff 
   18e01:	c7 85 a0 fa ff ff 02 	movl   $0x2,-0x560(%rbp)
   18e08:	00 00 00 
   18e0b:	c7 85 a4 fa ff ff 91 	movl   $0xe9e37f91,-0x55c(%rbp)
   18e12:	7f e3 e9 
   18e15:	c7 85 a8 fa ff ff 91 	movl   $0xe9e37f91,-0x558(%rbp)
   18e1c:	7f e3 e9 
   18e1f:	c7 85 ac fa ff ff 03 	movl   $0xf64ff203,-0x554(%rbp)
   18e26:	f2 4f f6 
   18e29:	c7 85 b0 fa ff ff 01 	movl   $0x1,-0x550(%rbp)
   18e30:	00 00 00 
   18e33:	c7 85 b4 fa ff ff 03 	movl   $0xf64ff203,-0x54c(%rbp)
   18e3a:	f2 4f f6 
   18e3d:	c7 85 b8 fa ff ff 7a 	movl   $0x68b5377a,-0x548(%rbp)
   18e44:	37 b5 68 
   18e47:	c7 85 bc fa ff ff 03 	movl   $0xf64ff203,-0x544(%rbp)
   18e4e:	f2 4f f6 
   18e51:	c7 85 c0 fa ff ff f7 	movl   $0xfffffff7,-0x540(%rbp)
   18e58:	ff ff ff 
   18e5b:	c7 85 c4 fa ff ff 91 	movl   $0xe9e37f91,-0x53c(%rbp)
   18e62:	7f e3 e9 
   18e65:	c7 85 c8 fa ff ff ff 	movl   $0xffffffff,-0x538(%rbp)
   18e6c:	ff ff ff 
   18e6f:	c7 85 cc fa ff ff ff 	movl   $0xffffffff,-0x534(%rbp)
   18e76:	ff ff ff 
   18e79:	c7 85 d0 fa ff ff 91 	movl   $0xe9e37f91,-0x530(%rbp)
   18e80:	7f e3 e9 
   18e83:	c7 85 d4 fa ff ff 38 	movl   $0xd01ec138,-0x52c(%rbp)
   18e8a:	c1 1e d0 
   18e8d:	c7 85 d8 fa ff ff 7a 	movl   $0x68b5377a,-0x528(%rbp)
   18e94:	37 b5 68 
   18e97:	c7 85 dc fa ff ff fc 	movl   $0xfffffffc,-0x524(%rbp)
   18e9e:	ff ff ff 
   18ea1:	c7 85 e0 fa ff ff 7a 	movl   $0x68b5377a,-0x520(%rbp)
   18ea8:	37 b5 68 
   18eab:	c7 85 e4 fa ff ff 38 	movl   $0xd01ec138,-0x51c(%rbp)
   18eb2:	c1 1e d0 
   18eb5:	c7 85 e8 fa ff ff 91 	movl   $0xe9e37f91,-0x518(%rbp)
   18ebc:	7f e3 e9 
   18ebf:	c7 85 ec fa ff ff ff 	movl   $0xffffffff,-0x514(%rbp)
   18ec6:	ff ff ff 
   18ec9:	c7 85 f0 fa ff ff ff 	movl   $0xffffffff,-0x510(%rbp)
   18ed0:	ff ff ff 
   18ed3:	c7 85 f4 fa ff ff 91 	movl   $0xe9e37f91,-0x50c(%rbp)
   18eda:	7f e3 e9 
   18edd:	c7 85 f8 fa ff ff f7 	movl   $0xfffffff7,-0x508(%rbp)
   18ee4:	ff ff ff 
   18ee7:	c7 85 fc fa ff ff 03 	movl   $0xf64ff203,-0x504(%rbp)
   18eee:	f2 4f f6 
   18ef1:	c7 85 00 fb ff ff 7a 	movl   $0x68b5377a,-0x500(%rbp)
   18ef8:	37 b5 68 
   18efb:	c7 85 04 fb ff ff 03 	movl   $0xf64ff203,-0x4fc(%rbp)
   18f02:	f2 4f f6 
   18f05:	c7 85 08 fb ff ff 01 	movl   $0x1,-0x4f8(%rbp)
   18f0c:	00 00 00 
   18f0f:	c7 85 0c fb ff ff 03 	movl   $0xf64ff203,-0x4f4(%rbp)
   18f16:	f2 4f f6 
   18f19:	c7 85 10 fb ff ff 91 	movl   $0xe9e37f91,-0x4f0(%rbp)
   18f20:	7f e3 e9 
   18f23:	c7 85 14 fb ff ff 91 	movl   $0xe9e37f91,-0x4ec(%rbp)
   18f2a:	7f e3 e9 
   18f2d:	c7 85 18 fb ff ff 02 	movl   $0x2,-0x4e8(%rbp)
   18f34:	00 00 00 
   18f37:	c7 85 1c fb ff ff ff 	movl   $0xffffffff,-0x4e4(%rbp)
   18f3e:	ff ff ff 
   18f41:	c7 85 20 fb ff ff f7 	movl   $0xfffffff7,-0x4e0(%rbp)
   18f48:	ff ff ff 
   18f4b:	c7 85 24 fb ff ff 38 	movl   $0xd01ec138,-0x4dc(%rbp)
   18f52:	c1 1e d0 
   18f55:	c7 85 28 fb ff ff 01 	movl   $0x1,-0x4d8(%rbp)
   18f5c:	00 00 00 
   18f5f:	c7 85 2c fb ff ff fc 	movl   $0xfffffffc,-0x4d4(%rbp)
   18f66:	ff ff ff 
   18f69:	c7 85 30 fb ff ff 01 	movl   $0x1,-0x4d0(%rbp)
   18f70:	00 00 00 
   18f73:	c7 85 34 fb ff ff 38 	movl   $0xd01ec138,-0x4cc(%rbp)
   18f7a:	c1 1e d0 
   18f7d:	48 c7 85 20 fa ff ff 	movq   $0xfffffffffffffffd,-0x5e0(%rbp)
   18f84:	fd ff ff ff 
   18f88:	48 c7 85 28 fa ff ff 	movq   $0xfffffffffffffffd,-0x5d8(%rbp)
   18f8f:	fd ff ff ff 
   18f93:	48 c7 85 30 fa ff ff 	movq   $0xfffffffffffffffd,-0x5d0(%rbp)
   18f9a:	fd ff ff ff 
   18f9e:	48 c7 85 38 fa ff ff 	movq   $0xfffffffffffffffd,-0x5c8(%rbp)
   18fa5:	fd ff ff ff 
   18fa9:	48 c7 85 c0 f9 ff ff 	movq   $0x0,-0x640(%rbp)
   18fb0:	00 00 00 00 
   18fb4:	48 8d 05 a5 91 00 00 	lea    0x91a5(%rip),%rax        # 22160 <g_84>
   18fbb:	48 89 85 40 fb ff ff 	mov    %rax,-0x4c0(%rbp)
   18fc2:	48 8d 05 97 91 00 00 	lea    0x9197(%rip),%rax        # 22160 <g_84>
   18fc9:	48 89 85 48 fb ff ff 	mov    %rax,-0x4b8(%rbp)
   18fd0:	48 8d 05 89 91 00 00 	lea    0x9189(%rip),%rax        # 22160 <g_84>
   18fd7:	48 89 85 50 fb ff ff 	mov    %rax,-0x4b0(%rbp)
   18fde:	48 8d 05 7b 91 00 00 	lea    0x917b(%rip),%rax        # 22160 <g_84>
   18fe5:	48 89 85 58 fb ff ff 	mov    %rax,-0x4a8(%rbp)
   18fec:	48 8d 05 6d 91 00 00 	lea    0x916d(%rip),%rax        # 22160 <g_84>
   18ff3:	48 89 85 60 fb ff ff 	mov    %rax,-0x4a0(%rbp)
   18ffa:	48 8d 05 5f 91 00 00 	lea    0x915f(%rip),%rax        # 22160 <g_84>
   19001:	48 89 85 68 fb ff ff 	mov    %rax,-0x498(%rbp)
   19008:	48 8d 05 51 91 00 00 	lea    0x9151(%rip),%rax        # 22160 <g_84>
   1900f:	48 89 85 70 fb ff ff 	mov    %rax,-0x490(%rbp)
   19016:	48 c7 85 78 fb ff ff 	movq   $0x0,-0x488(%rbp)
   1901d:	00 00 00 00 
   19021:	48 8d 05 48 95 00 00 	lea    0x9548(%rip),%rax        # 22570 <g_428>
   19028:	48 89 85 80 fb ff ff 	mov    %rax,-0x480(%rbp)
   1902f:	48 c7 85 88 fb ff ff 	movq   $0x0,-0x478(%rbp)
   19036:	00 00 00 00 
   1903a:	48 8d 05 2f 95 00 00 	lea    0x952f(%rip),%rax        # 22570 <g_428>
   19041:	48 89 85 90 fb ff ff 	mov    %rax,-0x470(%rbp)
   19048:	48 c7 85 98 fb ff ff 	movq   $0x0,-0x468(%rbp)
   1904f:	00 00 00 00 
   19053:	48 8d 05 16 95 00 00 	lea    0x9516(%rip),%rax        # 22570 <g_428>
   1905a:	48 89 85 a0 fb ff ff 	mov    %rax,-0x460(%rbp)
   19061:	48 c7 85 a8 fb ff ff 	movq   $0x0,-0x458(%rbp)
   19068:	00 00 00 00 
   1906c:	48 8d 05 ed 90 00 00 	lea    0x90ed(%rip),%rax        # 22160 <g_84>
   19073:	48 89 85 b0 fb ff ff 	mov    %rax,-0x450(%rbp)
   1907a:	48 8d 05 df 90 00 00 	lea    0x90df(%rip),%rax        # 22160 <g_84>
   19081:	48 89 85 b8 fb ff ff 	mov    %rax,-0x448(%rbp)
   19088:	48 8d 05 d1 90 00 00 	lea    0x90d1(%rip),%rax        # 22160 <g_84>
   1908f:	48 89 85 c0 fb ff ff 	mov    %rax,-0x440(%rbp)
   19096:	48 8d 05 c3 90 00 00 	lea    0x90c3(%rip),%rax        # 22160 <g_84>
   1909d:	48 89 85 c8 fb ff ff 	mov    %rax,-0x438(%rbp)
   190a4:	48 8d 05 b5 90 00 00 	lea    0x90b5(%rip),%rax        # 22160 <g_84>
   190ab:	48 89 85 d0 fb ff ff 	mov    %rax,-0x430(%rbp)
   190b2:	48 8d 05 a7 90 00 00 	lea    0x90a7(%rip),%rax        # 22160 <g_84>
   190b9:	48 89 85 d8 fb ff ff 	mov    %rax,-0x428(%rbp)
   190c0:	48 8d 05 99 90 00 00 	lea    0x9099(%rip),%rax        # 22160 <g_84>
   190c7:	48 89 85 e0 fb ff ff 	mov    %rax,-0x420(%rbp)
   190ce:	48 c7 85 e8 fb ff ff 	movq   $0x0,-0x418(%rbp)
   190d5:	00 00 00 00 
   190d9:	48 8d 05 90 94 00 00 	lea    0x9490(%rip),%rax        # 22570 <g_428>
   190e0:	48 89 85 f0 fb ff ff 	mov    %rax,-0x410(%rbp)
   190e7:	48 c7 85 f8 fb ff ff 	movq   $0x0,-0x408(%rbp)
   190ee:	00 00 00 00 
   190f2:	48 8d 05 77 94 00 00 	lea    0x9477(%rip),%rax        # 22570 <g_428>
   190f9:	48 89 85 00 fc ff ff 	mov    %rax,-0x400(%rbp)
   19100:	48 c7 85 08 fc ff ff 	movq   $0x0,-0x3f8(%rbp)
   19107:	00 00 00 00 
   1910b:	48 8d 05 5e 94 00 00 	lea    0x945e(%rip),%rax        # 22570 <g_428>
   19112:	48 89 85 10 fc ff ff 	mov    %rax,-0x3f0(%rbp)
   19119:	48 c7 85 18 fc ff ff 	movq   $0x0,-0x3e8(%rbp)
   19120:	00 00 00 00 
   19124:	66 c7 85 40 f9 ff ff 	movw   $0xecd,-0x6c0(%rbp)
   1912b:	cd 0e 
   1912d:	66 c7 85 42 f9 ff ff 	movw   $0x988d,-0x6be(%rbp)
   19134:	8d 98 
   19136:	c7 45 f1 b0 b0 ff b0 	movl   $0xb0ffb0b0,-0xf(%rbp)
   1913d:	66 c7 45 f5 b0 ff    	movw   $0xffb0,-0xb(%rbp)
   19143:	c6 45 f7 b0          	movb   $0xb0,-0x9(%rbp)
   19147:	48 b8 6c 95 16 a2 cc 	movabs $0x2fa93ecca216956c,%rax
   1914e:	3e a9 2f 
   19151:	48 89 85 90 f9 ff ff 	mov    %rax,-0x670(%rbp)
   19158:	48 c7 85 c8 f9 ff ff 	movq   $0x0,-0x638(%rbp)
   1915f:	00 00 00 00 
   19163:	66 c7 85 44 f9 ff ff 	movw   $0x8217,-0x6bc(%rbp)
   1916a:	17 82 
   1916c:	c7 85 80 f9 ff ff 01 	movl   $0x1,-0x680(%rbp)
   19173:	00 00 00 
   19176:	48 c7 85 d0 f9 ff ff 	movq   $0xfffffffffffffff7,-0x630(%rbp)
   1917d:	f7 ff ff ff 
   19181:	48 8d 05 68 b6 00 00 	lea    0xb668(%rip),%rax        # 247f0 <g_202+0x30>
   19188:	48 89 85 d8 f9 ff ff 	mov    %rax,-0x628(%rbp)
   1918f:	c7 85 4c f9 ff ff 00 	movl   $0x0,-0x6b4(%rbp)
   19196:	00 00 00 
   19199:	eb 14                	jmp    191af <func_47+0x4ee>
   1919b:	8b 85 4c f9 ff ff    	mov    -0x6b4(%rbp),%eax
   191a1:	48 98                	cltq   
   191a3:	c6 44 05 f0 bb       	movb   $0xbb,-0x10(%rbp,%rax,1)
   191a8:	83 85 4c f9 ff ff 01 	addl   $0x1,-0x6b4(%rbp)
   191af:	83 bd 4c f9 ff ff 00 	cmpl   $0x0,-0x6b4(%rbp)
   191b6:	7e e3                	jle    1919b <func_47+0x4da>
   191b8:	c7 05 ba 93 00 00 ec 	movl   $0xffffffec,0x93ba(%rip)        # 2257c <g_428+0xc>
   191bf:	ff ff ff 
   191c2:	e9 1e 03 00 00       	jmpq   194e5 <func_47+0x824>
   191c7:	c7 85 84 f9 ff ff 07 	movl   $0x7,-0x67c(%rbp)
   191ce:	00 00 00 
   191d1:	48 c7 85 e0 f9 ff ff 	movq   $0x0,-0x620(%rbp)
   191d8:	00 00 00 00 
   191dc:	c7 85 88 f9 ff ff 85 	movl   $0x709c785,-0x678(%rbp)
   191e3:	c7 09 07 
   191e6:	48 8d 85 20 fd ff ff 	lea    -0x2e0(%rbp),%rax
   191ed:	48 8d 15 ac 58 00 00 	lea    0x58ac(%rip),%rdx        # 1eaa0 <g_2807+0x13f0>
   191f4:	b9 5a 00 00 00       	mov    $0x5a,%ecx
   191f9:	48 89 c7             	mov    %rax,%rdi
   191fc:	48 89 d6             	mov    %rdx,%rsi
   191ff:	f3 48 a5             	rep movsq %ds:(%rsi),%es:(%rdi)
   19202:	48 8d 05 6b 93 00 00 	lea    0x936b(%rip),%rax        # 22574 <g_428+0x4>
   19209:	48 89 85 e8 f9 ff ff 	mov    %rax,-0x618(%rbp)
   19210:	c6 85 3b f9 ff ff 01 	movb   $0x1,-0x6c5(%rbp)
   19217:	c7 85 8c f9 ff ff 22 	movl   $0xc022ff22,-0x674(%rbp)
   1921e:	ff 22 c0 
   19221:	48 8d 05 68 b5 00 00 	lea    0xb568(%rip),%rax        # 24790 <g_150>
   19228:	48 89 85 f0 f9 ff ff 	mov    %rax,-0x610(%rbp)
   1922f:	c6 85 3c f9 ff ff 7e 	movb   $0x7e,-0x6c4(%rbp)
   19236:	c6 85 3d f9 ff ff fb 	movb   $0xfb,-0x6c3(%rbp)
   1923d:	48 8d 05 44 d9 00 00 	lea    0xd944(%rip),%rax        # 26b88 <g_744>
   19244:	48 89 85 f8 f9 ff ff 	mov    %rax,-0x608(%rbp)
   1924b:	c7 85 40 fa ff ff 01 	movl   $0x1,-0x5c0(%rbp)
   19252:	00 00 00 
   19255:	c7 85 44 fa ff ff 9d 	movl   $0xe81fdb9d,-0x5bc(%rbp)
   1925c:	db 1f e8 
   1925f:	c7 85 48 fa ff ff 9d 	movl   $0xe81fdb9d,-0x5b8(%rbp)
   19266:	db 1f e8 
   19269:	c7 85 4c fa ff ff 01 	movl   $0x1,-0x5b4(%rbp)
   19270:	00 00 00 
   19273:	c7 85 50 fa ff ff 9d 	movl   $0xe81fdb9d,-0x5b0(%rbp)
   1927a:	db 1f e8 
   1927d:	c7 85 54 fa ff ff 9d 	movl   $0xe81fdb9d,-0x5ac(%rbp)
   19284:	db 1f e8 
   19287:	c7 85 58 fa ff ff 01 	movl   $0x1,-0x5a8(%rbp)
   1928e:	00 00 00 
   19291:	c7 85 5c fa ff ff 9d 	movl   $0xe81fdb9d,-0x5a4(%rbp)
   19298:	db 1f e8 
   1929b:	c7 85 60 fa ff ff 9d 	movl   $0xe81fdb9d,-0x5a0(%rbp)
   192a2:	db 1f e8 
   192a5:	66 c7 85 46 f9 ff ff 	movw   $0x6f87,-0x6ba(%rbp)
   192ac:	87 6f 
   192ae:	48 8d 05 43 b5 00 00 	lea    0xb543(%rip),%rax        # 247f8 <g_202+0x38>
   192b5:	48 89 85 00 fa ff ff 	mov    %rax,-0x600(%rbp)
   192bc:	48 8d 05 65 bc 00 00 	lea    0xbc65(%rip),%rax        # 24f28 <g_207>
   192c3:	48 89 85 98 f9 ff ff 	mov    %rax,-0x668(%rbp)
   192ca:	48 8d 85 98 f9 ff ff 	lea    -0x668(%rbp),%rax
   192d1:	48 89 85 a0 f9 ff ff 	mov    %rax,-0x660(%rbp)
   192d8:	48 8d 85 a0 f9 ff ff 	lea    -0x660(%rbp),%rax
   192df:	48 89 85 20 fc ff ff 	mov    %rax,-0x3e0(%rbp)
   192e6:	48 c7 85 28 fc ff ff 	movq   $0x0,-0x3d8(%rbp)
   192ed:	00 00 00 00 
   192f1:	48 8d 85 a0 f9 ff ff 	lea    -0x660(%rbp),%rax
   192f8:	48 89 85 30 fc ff ff 	mov    %rax,-0x3d0(%rbp)
   192ff:	48 c7 85 38 fc ff ff 	movq   $0x0,-0x3c8(%rbp)
   19306:	00 00 00 00 
   1930a:	48 c7 85 40 fc ff ff 	movq   $0x0,-0x3c0(%rbp)
   19311:	00 00 00 00 
   19315:	48 8d 85 a0 f9 ff ff 	lea    -0x660(%rbp),%rax
   1931c:	48 89 85 48 fc ff ff 	mov    %rax,-0x3b8(%rbp)
   19323:	48 8d 85 a0 f9 ff ff 	lea    -0x660(%rbp),%rax
   1932a:	48 89 85 50 fc ff ff 	mov    %rax,-0x3b0(%rbp)
   19331:	48 8d 85 a0 f9 ff ff 	lea    -0x660(%rbp),%rax
   19338:	48 89 85 58 fc ff ff 	mov    %rax,-0x3a8(%rbp)
   1933f:	48 8d 85 a0 f9 ff ff 	lea    -0x660(%rbp),%rax
   19346:	48 89 85 60 fc ff ff 	mov    %rax,-0x3a0(%rbp)
   1934d:	48 8d 85 a0 f9 ff ff 	lea    -0x660(%rbp),%rax
   19354:	48 89 85 68 fc ff ff 	mov    %rax,-0x398(%rbp)
   1935b:	48 c7 85 70 fc ff ff 	movq   $0x0,-0x390(%rbp)
   19362:	00 00 00 00 
   19366:	48 8d 85 a0 f9 ff ff 	lea    -0x660(%rbp),%rax
   1936d:	48 89 85 78 fc ff ff 	mov    %rax,-0x388(%rbp)
   19374:	48 8d 85 a0 f9 ff ff 	lea    -0x660(%rbp),%rax
   1937b:	48 89 85 80 fc ff ff 	mov    %rax,-0x380(%rbp)
   19382:	48 c7 85 88 fc ff ff 	movq   $0x0,-0x378(%rbp)
   19389:	00 00 00 00 
   1938d:	48 8d 85 a0 f9 ff ff 	lea    -0x660(%rbp),%rax
   19394:	48 89 85 90 fc ff ff 	mov    %rax,-0x370(%rbp)
   1939b:	48 8d 85 a0 f9 ff ff 	lea    -0x660(%rbp),%rax
   193a2:	48 89 85 98 fc ff ff 	mov    %rax,-0x368(%rbp)
   193a9:	48 8d 85 a0 f9 ff ff 	lea    -0x660(%rbp),%rax
   193b0:	48 89 85 a0 fc ff ff 	mov    %rax,-0x360(%rbp)
   193b7:	48 8d 85 a0 f9 ff ff 	lea    -0x660(%rbp),%rax
   193be:	48 89 85 a8 fc ff ff 	mov    %rax,-0x358(%rbp)
   193c5:	48 8d 85 a0 f9 ff ff 	lea    -0x660(%rbp),%rax
   193cc:	48 89 85 b0 fc ff ff 	mov    %rax,-0x350(%rbp)
   193d3:	48 8d 85 a0 f9 ff ff 	lea    -0x660(%rbp),%rax
   193da:	48 89 85 b8 fc ff ff 	mov    %rax,-0x348(%rbp)
   193e1:	48 8d 85 a0 f9 ff ff 	lea    -0x660(%rbp),%rax
   193e8:	48 89 85 c0 fc ff ff 	mov    %rax,-0x340(%rbp)
   193ef:	48 8d 85 a0 f9 ff ff 	lea    -0x660(%rbp),%rax
   193f6:	48 89 85 c8 fc ff ff 	mov    %rax,-0x338(%rbp)
   193fd:	48 8d 85 a0 f9 ff ff 	lea    -0x660(%rbp),%rax
   19404:	48 89 85 d0 fc ff ff 	mov    %rax,-0x330(%rbp)
   1940b:	48 c7 85 d8 fc ff ff 	movq   $0x0,-0x328(%rbp)
   19412:	00 00 00 00 
   19416:	48 8d 85 a0 f9 ff ff 	lea    -0x660(%rbp),%rax
   1941d:	48 89 85 e0 fc ff ff 	mov    %rax,-0x320(%rbp)
   19424:	48 8d 85 a0 f9 ff ff 	lea    -0x660(%rbp),%rax
   1942b:	48 89 85 e8 fc ff ff 	mov    %rax,-0x318(%rbp)
   19432:	48 8d 85 a0 f9 ff ff 	lea    -0x660(%rbp),%rax
   19439:	48 89 85 f0 fc ff ff 	mov    %rax,-0x310(%rbp)
   19440:	48 c7 85 f8 fc ff ff 	movq   $0x0,-0x308(%rbp)
   19447:	00 00 00 00 
   1944b:	48 8d 85 a0 f9 ff ff 	lea    -0x660(%rbp),%rax
   19452:	48 89 85 00 fd ff ff 	mov    %rax,-0x300(%rbp)
   19459:	48 8d 85 a0 f9 ff ff 	lea    -0x660(%rbp),%rax
   19460:	48 89 85 08 fd ff ff 	mov    %rax,-0x2f8(%rbp)
   19467:	48 8d 85 a0 f9 ff ff 	lea    -0x660(%rbp),%rax
   1946e:	48 89 85 10 fd ff ff 	mov    %rax,-0x2f0(%rbp)
   19475:	48 8d 85 a0 f9 ff ff 	lea    -0x660(%rbp),%rax
   1947c:	48 89 85 18 fd ff ff 	mov    %rax,-0x2e8(%rbp)
   19483:	66 c7 85 48 f9 ff ff 	movw   $0x1bf3,-0x6b8(%rbp)
   1948a:	f3 1b 
   1948c:	66 c7 85 4a f9 ff ff 	movw   $0x7d26,-0x6b6(%rbp)
   19493:	26 7d 
   19495:	48 b8 ab 4c 19 d5 1d 	movabs $0x8cccfc1dd5194cab,%rax
   1949c:	fc cc 8c 
   1949f:	48 89 85 08 fa ff ff 	mov    %rax,-0x5f8(%rbp)
   194a6:	c7 85 50 f9 ff ff 00 	movl   $0x0,-0x6b0(%rbp)
   194ad:	00 00 00 
   194b0:	eb 1b                	jmp    194cd <func_47+0x80c>
   194b2:	8b 85 50 f9 ff ff    	mov    -0x6b0(%rbp),%eax
   194b8:	48 98                	cltq   
   194ba:	48 c7 84 c5 10 fa ff 	movq   $0xffffffffffffffff,-0x5f0(%rbp,%rax,8)
   194c1:	ff ff ff ff ff 
   194c6:	83 85 50 f9 ff ff 01 	addl   $0x1,-0x6b0(%rbp)
   194cd:	83 bd 50 f9 ff ff 01 	cmpl   $0x1,-0x6b0(%rbp)
   194d4:	7e dc                	jle    194b2 <func_47+0x7f1>
   194d6:	8b 05 a0 90 00 00    	mov    0x90a0(%rip),%eax        # 2257c <g_428+0xc>
   194dc:	83 c0 01             	add    $0x1,%eax
   194df:	89 05 97 90 00 00    	mov    %eax,0x9097(%rip)        # 2257c <g_428+0xc>
   194e5:	8b 05 91 90 00 00    	mov    0x9091(%rip),%eax        # 2257c <g_428+0xc>
   194eb:	83 f8 06             	cmp    $0x6,%eax
   194ee:	0f 8f d3 fc ff ff    	jg     191c7 <func_47+0x506>
   194f4:	c7 85 7c f9 ff ff 00 	movl   $0x0,-0x684(%rbp)
   194fb:	00 00 00 
   194fe:	83 bd 7c f9 ff ff 14 	cmpl   $0x14,-0x684(%rbp)
   19505:	7f 18                	jg     1951f <func_47+0x85e>
   19507:	83 bd 2c f9 ff ff 00 	cmpl   $0x0,-0x6d4(%rbp)
   1950e:	75 0e                	jne    1951e <func_47+0x85d>
   19510:	48 8b 85 d8 f9 ff ff 	mov    -0x628(%rbp),%rax
   19517:	48 8b 00             	mov    (%rax),%rax
   1951a:	8b 00                	mov    (%rax),%eax
   1951c:	eb 0d                	jmp    1952b <func_47+0x86a>
   1951e:	90                   	nop
   1951f:	48 8b 85 d8 f9 ff ff 	mov    -0x628(%rbp),%rax
   19526:	48 8b 00             	mov    (%rax),%rax
   19529:	8b 00                	mov    (%rax),%eax
   1952b:	48 8b 55 f8          	mov    -0x8(%rbp),%rdx
   1952f:	64 48 33 14 25 28 00 	xor    %fs:0x28,%rdx
   19536:	00 00 
   19538:	74 05                	je     1953f <func_47+0x87e>
   1953a:	e8 31 0b ff ff       	callq  a070 <__stack_chk_fail@plt>
   1953f:	c9                   	leaveq 
   19540:	c3                   	retq   

0000000000019541 <func_49>:
   19541:	f3 0f 1e fa          	endbr64 
   19545:	55                   	push   %rbp
   19546:	48 89 e5             	mov    %rsp,%rbp
   19549:	41 54                	push   %r12
   1954b:	53                   	push   %rbx
   1954c:	48 81 ec b0 00 00 00 	sub    $0xb0,%rsp
   19553:	48 89 bd 68 ff ff ff 	mov    %rdi,-0x98(%rbp)
   1955a:	48 89 b5 60 ff ff ff 	mov    %rsi,-0xa0(%rbp)
   19561:	48 89 95 58 ff ff ff 	mov    %rdx,-0xa8(%rbp)
   19568:	48 89 8d 50 ff ff ff 	mov    %rcx,-0xb0(%rbp)
   1956f:	44 89 c0             	mov    %r8d,%eax
   19572:	66 89 85 4c ff ff ff 	mov    %ax,-0xb4(%rbp)
   19579:	64 48 8b 04 25 28 00 	mov    %fs:0x28,%rax
   19580:	00 00 
   19582:	48 89 45 e8          	mov    %rax,-0x18(%rbp)
   19586:	31 c0                	xor    %eax,%eax
   19588:	48 8d 05 c5 8b 00 00 	lea    0x8bc5(%rip),%rax        # 22154 <g_65>
   1958f:	48 89 85 78 ff ff ff 	mov    %rax,-0x88(%rbp)
   19596:	c7 85 70 ff ff ff ff 	movl   $0xffffffff,-0x90(%rbp)
   1959d:	ff ff ff 
   195a0:	48 8d 85 78 ff ff ff 	lea    -0x88(%rbp),%rax
   195a7:	48 89 45 80          	mov    %rax,-0x80(%rbp)
   195ab:	48 8d 05 a2 8b 00 00 	lea    0x8ba2(%rip),%rax        # 22154 <g_65>
   195b2:	48 89 45 88          	mov    %rax,-0x78(%rbp)
   195b6:	48 8d 05 83 8f 00 00 	lea    0x8f83(%rip),%rax        # 22540 <g_426>
   195bd:	48 89 45 90          	mov    %rax,-0x70(%rbp)
   195c1:	48 8d 05 78 8f 00 00 	lea    0x8f78(%rip),%rax        # 22540 <g_426>
   195c8:	48 89 45 98          	mov    %rax,-0x68(%rbp)
   195cc:	48 8d 05 6d 8f 00 00 	lea    0x8f6d(%rip),%rax        # 22540 <g_426>
   195d3:	48 89 45 a0          	mov    %rax,-0x60(%rbp)
   195d7:	48 8d 05 62 8f 00 00 	lea    0x8f62(%rip),%rax        # 22540 <g_426>
   195de:	48 89 45 a8          	mov    %rax,-0x58(%rbp)
   195e2:	48 8d 05 57 8f 00 00 	lea    0x8f57(%rip),%rax        # 22540 <g_426>
   195e9:	48 89 45 b0          	mov    %rax,-0x50(%rbp)
   195ed:	48 8d 05 4c 8f 00 00 	lea    0x8f4c(%rip),%rax        # 22540 <g_426>
   195f4:	48 89 45 b8          	mov    %rax,-0x48(%rbp)
   195f8:	48 8d 05 41 8f 00 00 	lea    0x8f41(%rip),%rax        # 22540 <g_426>
   195ff:	48 89 45 c0          	mov    %rax,-0x40(%rbp)
   19603:	48 8d 05 36 8f 00 00 	lea    0x8f36(%rip),%rax        # 22540 <g_426>
   1960a:	48 89 45 c8          	mov    %rax,-0x38(%rbp)
   1960e:	48 8d 05 2b 8f 00 00 	lea    0x8f2b(%rip),%rax        # 22540 <g_426>
   19615:	48 89 45 d0          	mov    %rax,-0x30(%rbp)
   19619:	48 8d 05 20 8f 00 00 	lea    0x8f20(%rip),%rax        # 22540 <g_426>
   19620:	48 89 45 d8          	mov    %rax,-0x28(%rbp)
   19624:	c7 85 74 ff ff ff ab 	movl   $0x8da6deab,-0x8c(%rbp)
   1962b:	de a6 8d 
   1962e:	48 c7 85 78 ff ff ff 	movq   $0x0,-0x88(%rbp)
   19635:	00 00 00 00 
   19639:	0f bf 9d 4c ff ff ff 	movswl -0xb4(%rbp),%ebx
   19640:	0f b7 85 4c ff ff ff 	movzwl -0xb4(%rbp),%eax
   19647:	66 83 f8 05          	cmp    $0x5,%ax
   1964b:	0f 97 c0             	seta   %al
   1964e:	44 0f b6 e0          	movzbl %al,%r12d
   19652:	48 8b 05 2f b1 00 00 	mov    0xb12f(%rip),%rax        # 24788 <g_134>
   19659:	0f b7 00             	movzwl (%rax),%eax
   1965c:	0f bf d0             	movswl %ax,%edx
   1965f:	48 8b 45 80          	mov    -0x80(%rbp),%rax
   19663:	48 8d 8d 70 ff ff ff 	lea    -0x90(%rbp),%rcx
   1966a:	48 89 08             	mov    %rcx,(%rax)
   1966d:	48 8b 45 80          	mov    -0x80(%rbp),%rax
   19671:	48 8b 00             	mov    (%rax),%rax
   19674:	48 8d 0d 61 8a 00 00 	lea    0x8a61(%rip),%rcx        # 220dc <g_2+0x9c>
   1967b:	48 39 c8             	cmp    %rcx,%rax
   1967e:	0f 95 c0             	setne  %al
   19681:	0f b6 c0             	movzbl %al,%eax
   19684:	89 d6                	mov    %edx,%esi
   19686:	89 c7                	mov    %eax,%edi
   19688:	e8 05 0e ff ff       	callq  a492 <safe_lshift_func_int16_t_s_s>
   1968d:	98                   	cwtl   
   1968e:	41 39 c4             	cmp    %eax,%r12d
   19691:	0f 94 c0             	sete   %al
   19694:	0f b6 c0             	movzbl %al,%eax
   19697:	09 c3                	or     %eax,%ebx
   19699:	41 89 dc             	mov    %ebx,%r12d
   1969c:	48 8b 05 95 8b 00 00 	mov    0x8b95(%rip),%rax        # 22238 <g_152+0x78>
   196a3:	0f b7 d0             	movzwl %ax,%edx
   196a6:	8b 05 38 8d 00 00    	mov    0x8d38(%rip),%eax        # 223e4 <g_223+0x24>
   196ac:	0f b7 c0             	movzwl %ax,%eax
   196af:	89 d6                	mov    %edx,%esi
   196b1:	89 c7                	mov    %eax,%edi
   196b3:	e8 47 16 ff ff       	callq  acff <safe_add_func_uint16_t_u_u>
   196b8:	0f b7 d8             	movzwl %ax,%ebx
   196bb:	8b 85 70 ff ff ff    	mov    -0x90(%rbp),%eax
   196c1:	85 c0                	test   %eax,%eax
   196c3:	74 1e                	je     196e3 <func_49+0x1a2>
   196c5:	0f b7 05 a0 8b 00 00 	movzwl 0x8ba0(%rip),%eax        # 2226c <g_177+0xc>
   196cc:	0f b7 c0             	movzwl %ax,%eax
   196cf:	48 89 c7             	mov    %rax,%rdi
   196d2:	e8 42 19 ff ff       	callq  b019 <safe_unary_minus_func_uint64_t_u>
   196d7:	48 85 c0             	test   %rax,%rax
   196da:	74 07                	je     196e3 <func_49+0x1a2>
   196dc:	b9 01 00 00 00       	mov    $0x1,%ecx
   196e1:	eb 05                	jmp    196e8 <func_49+0x1a7>
   196e3:	b9 00 00 00 00       	mov    $0x0,%ecx
   196e8:	48 8b 45 88          	mov    -0x78(%rbp),%rax
   196ec:	8b 00                	mov    (%rax),%eax
   196ee:	44 89 e2             	mov    %r12d,%edx
   196f1:	21 c2                	and    %eax,%edx
   196f3:	48 8b 45 88          	mov    -0x78(%rbp),%rax
   196f7:	89 10                	mov    %edx,(%rax)
   196f9:	48 8b 45 88          	mov    -0x78(%rbp),%rax
   196fd:	8b 00                	mov    (%rax),%eax
   196ff:	48 63 d0             	movslq %eax,%rdx
   19702:	48 8b 85 58 ff ff ff 	mov    -0xa8(%rbp),%rax
   19709:	48 39 c2             	cmp    %rax,%rdx
   1970c:	0f 9e c0             	setle  %al
   1970f:	0f b6 c0             	movzbl %al,%eax
   19712:	39 c1                	cmp    %eax,%ecx
   19714:	0f 9e c0             	setle  %al
   19717:	0f b6 d0             	movzbl %al,%edx
   1971a:	48 8b 05 77 b0 00 00 	mov    0xb077(%rip),%rax        # 24798 <g_155>
   19721:	48 8b 00             	mov    (%rax),%rax
   19724:	0f b6 00             	movzbl (%rax),%eax
   19727:	0f b6 c0             	movzbl %al,%eax
   1972a:	31 d0                	xor    %edx,%eax
   1972c:	21 d8                	and    %ebx,%eax
   1972e:	21 85 74 ff ff ff    	and    %eax,-0x8c(%rbp)
   19734:	48 8b 85 78 ff ff ff 	mov    -0x88(%rbp),%rax
   1973b:	8b 08                	mov    (%rax),%ecx
   1973d:	48 83 bd 60 ff ff ff 	cmpq   $0x0,-0xa0(%rbp)
   19744:	00 
   19745:	0f 95 c0             	setne  %al
   19748:	0f b6 d0             	movzbl %al,%edx
   1974b:	48 8b 85 78 ff ff ff 	mov    -0x88(%rbp),%rax
   19752:	31 ca                	xor    %ecx,%edx
   19754:	89 10                	mov    %edx,(%rax)
   19756:	48 8b 85 68 ff ff ff 	mov    -0x98(%rbp),%rax
   1975d:	48 8b 0d 0c 8e 00 00 	mov    0x8e0c(%rip),%rcx        # 22570 <g_428>
   19764:	48 8b 1d 0d 8e 00 00 	mov    0x8e0d(%rip),%rbx        # 22578 <g_428+0x8>
   1976b:	48 89 08             	mov    %rcx,(%rax)
   1976e:	48 89 58 08          	mov    %rbx,0x8(%rax)
   19772:	48 8b 15 07 8e 00 00 	mov    0x8e07(%rip),%rdx        # 22580 <g_428+0x10>
   19779:	48 89 50 10          	mov    %rdx,0x10(%rax)
   1977d:	8b 15 05 8e 00 00    	mov    0x8e05(%rip),%edx        # 22588 <g_428+0x18>
   19783:	89 50 18             	mov    %edx,0x18(%rax)
   19786:	48 8b 45 e8          	mov    -0x18(%rbp),%rax
   1978a:	64 48 33 04 25 28 00 	xor    %fs:0x28,%rax
   19791:	00 00 
   19793:	74 05                	je     1979a <func_49+0x259>
   19795:	e8 d6 08 ff ff       	callq  a070 <__stack_chk_fail@plt>
   1979a:	48 8b 85 68 ff ff ff 	mov    -0x98(%rbp),%rax
   197a1:	48 81 c4 b0 00 00 00 	add    $0xb0,%rsp
   197a8:	5b                   	pop    %rbx
   197a9:	41 5c                	pop    %r12
   197ab:	5d                   	pop    %rbp
   197ac:	c3                   	retq   

00000000000197ad <func_57>:
   197ad:	f3 0f 1e fa          	endbr64 
   197b1:	55                   	push   %rbp
   197b2:	48 89 e5             	mov    %rsp,%rbp
   197b5:	53                   	push   %rbx
   197b6:	48 81 ec 68 08 00 00 	sub    $0x868,%rsp
   197bd:	48 89 bd 98 f7 ff ff 	mov    %rdi,-0x868(%rbp)
   197c4:	48 89 b5 90 f7 ff ff 	mov    %rsi,-0x870(%rbp)
   197cb:	64 48 8b 04 25 28 00 	mov    %fs:0x28,%rax
   197d2:	00 00 
   197d4:	48 89 45 e8          	mov    %rax,-0x18(%rbp)
   197d8:	31 c0                	xor    %eax,%eax
   197da:	c6 85 ab f7 ff ff fe 	movb   $0xfe,-0x855(%rbp)
   197e1:	48 b8 f6 b9 73 c0 6e 	movabs $0x3918a56ec073b9f6,%rax
   197e8:	a5 18 39 
   197eb:	48 89 85 b8 f7 ff ff 	mov    %rax,-0x848(%rbp)
   197f2:	48 8d 05 83 89 00 00 	lea    0x8983(%rip),%rax        # 2217c <g_89>
   197f9:	48 89 85 e8 f7 ff ff 	mov    %rax,-0x818(%rbp)
   19800:	c7 85 b4 f7 ff ff d6 	movl   $0x4004c0d6,-0x84c(%rbp)
   19807:	c0 04 40 
   1980a:	48 8d 05 61 89 00 00 	lea    0x8961(%rip),%rax        # 22172 <g_84+0x12>
   19811:	48 89 85 c0 f7 ff ff 	mov    %rax,-0x840(%rbp)
   19818:	c7 85 b0 f7 ff ff 43 	movl   $0xd187ce43,-0x850(%rbp)
   1981f:	ce 87 d1 
   19822:	48 8d 05 2b 89 00 00 	lea    0x892b(%rip),%rax        # 22154 <g_65>
   19829:	48 89 85 e0 f7 ff ff 	mov    %rax,-0x820(%rbp)
   19830:	48 8d 05 49 af 00 00 	lea    0xaf49(%rip),%rax        # 24780 <g_54>
   19837:	48 89 85 c8 f7 ff ff 	mov    %rax,-0x838(%rbp)
   1983e:	48 b8 c0 95 14 19 9b 	movabs $0xadf25a9b191495c0,%rax
   19845:	5a f2 ad 
   19848:	48 89 85 d0 f7 ff ff 	mov    %rax,-0x830(%rbp)
   1984f:	48 8d 85 30 f8 ff ff 	lea    -0x7d0(%rbp),%rax
   19856:	48 8d 15 63 ad 00 00 	lea    0xad63(%rip),%rdx        # 245c0 <g_2685+0x1b20>
   1985d:	b9 38 00 00 00       	mov    $0x38,%ecx
   19862:	48 89 c7             	mov    %rax,%rdi
   19865:	48 89 d6             	mov    %rdx,%rsi
   19868:	f3 48 a5             	rep movsq %ds:(%rsi),%es:(%rdi)
   1986b:	c7 85 ac f7 ff ff 00 	movl   $0x0,-0x854(%rbp)
   19872:	00 00 00 
   19875:	eb 1a                	jmp    19891 <func_57+0xe4>
   19877:	8b 85 ac f7 ff ff    	mov    -0x854(%rbp),%eax
   1987d:	48 98                	cltq   
   1987f:	c7 84 85 10 f8 ff ff 	movl   $0x1,-0x7f0(%rbp,%rax,4)
   19886:	01 00 00 00 
   1988a:	83 85 ac f7 ff ff 01 	addl   $0x1,-0x854(%rbp)
   19891:	83 bd ac f7 ff ff 06 	cmpl   $0x6,-0x854(%rbp)
   19898:	7e dd                	jle    19877 <func_57+0xca>
   1989a:	c7 85 ac f7 ff ff 00 	movl   $0x0,-0x854(%rbp)
   198a1:	00 00 00 
   198a4:	eb 1a                	jmp    198c0 <func_57+0x113>
   198a6:	8b 85 ac f7 ff ff    	mov    -0x854(%rbp),%eax
   198ac:	48 98                	cltq   
   198ae:	c7 84 85 f0 f7 ff ff 	movl   $0xe0112c66,-0x810(%rbp,%rax,4)
   198b5:	66 2c 11 e0 
   198b9:	83 85 ac f7 ff ff 01 	addl   $0x1,-0x854(%rbp)
   198c0:	83 bd ac f7 ff ff 04 	cmpl   $0x4,-0x854(%rbp)
   198c7:	7e dd                	jle    198a6 <func_57+0xf9>
   198c9:	80 8d ab f7 ff ff 05 	orb    $0x5,-0x855(%rbp)
   198d0:	0f b7 05 9d 88 00 00 	movzwl 0x889d(%rip),%eax        # 22174 <g_84+0x14>
   198d7:	66 85 c0             	test   %ax,%ax
   198da:	0f 95 c0             	setne  %al
   198dd:	0f b6 d8             	movzbl %al,%ebx
   198e0:	48 8b 05 99 ae 00 00 	mov    0xae99(%rip),%rax        # 24780 <g_54>
   198e7:	0f b6 00             	movzbl (%rax),%eax
   198ea:	0f b6 c0             	movzbl %al,%eax
   198ed:	89 c6                	mov    %eax,%esi
   198ef:	bf 0c 00 00 00       	mov    $0xc,%edi
   198f4:	e8 9a 12 ff ff       	callq  ab93 <safe_mul_func_uint8_t_u_u>
   198f9:	0f b6 c0             	movzbl %al,%eax
   198fc:	39 c3                	cmp    %eax,%ebx
   198fe:	0f 9f c0             	setg   %al
   19901:	0f b6 d0             	movzbl %al,%edx
   19904:	48 8b 85 e8 f7 ff ff 	mov    -0x818(%rbp),%rax
   1990b:	0f b6 00             	movzbl (%rax),%eax
   1990e:	09 c2                	or     %eax,%edx
   19910:	48 8b 85 e8 f7 ff ff 	mov    -0x818(%rbp),%rax
   19917:	88 10                	mov    %dl,(%rax)
   19919:	0f b6 05 e8 cf 00 00 	movzbl 0xcfe8(%rip),%eax        # 26908 <g_9>
   19920:	0f be 85 ab f7 ff ff 	movsbl -0x855(%rbp),%eax
   19927:	89 05 2f 88 00 00    	mov    %eax,0x882f(%rip)        # 2215c <g_83>
   1992d:	8b 15 29 88 00 00    	mov    0x8829(%rip),%edx        # 2215c <g_83>
   19933:	48 8b 05 46 ae 00 00 	mov    0xae46(%rip),%rax        # 24780 <g_54>
   1993a:	0f b6 00             	movzbl (%rax),%eax
   1993d:	83 c8 04             	or     $0x4,%eax
   19940:	0f be c0             	movsbl %al,%eax
   19943:	89 d6                	mov    %edx,%esi
   19945:	89 c7                	mov    %eax,%edi
   19947:	e8 a2 09 ff ff       	callq  a2ee <safe_lshift_func_int8_t_s_u>
   1994c:	0f be c0             	movsbl %al,%eax
   1994f:	be 01 00 00 00       	mov    $0x1,%esi
   19954:	89 c7                	mov    %eax,%edi
   19956:	e8 97 08 ff ff       	callq  a1f2 <safe_sub_func_int8_t_s_s>
   1995b:	48 8d 05 c9 87 00 00 	lea    0x87c9(%rip),%rax        # 2212b <g_55+0x2b>
   19962:	48 89 85 d8 f7 ff ff 	mov    %rax,-0x828(%rbp)
   19969:	48 8b 85 d8 f7 ff ff 	mov    -0x828(%rbp),%rax
   19970:	48 8b 4d e8          	mov    -0x18(%rbp),%rcx
   19974:	64 48 33 0c 25 28 00 	xor    %fs:0x28,%rcx
   1997b:	00 00 
   1997d:	74 05                	je     19984 <func_57+0x1d7>
   1997f:	e8 ec 06 ff ff       	callq  a070 <__stack_chk_fail@plt>
   19984:	48 81 c4 68 08 00 00 	add    $0x868,%rsp
   1998b:	5b                   	pop    %rbx
   1998c:	5d                   	pop    %rbp
   1998d:	c3                   	retq   

000000000001998e <func_60>:
   1998e:	f3 0f 1e fa          	endbr64 
   19992:	55                   	push   %rbp
   19993:	48 89 e5             	mov    %rsp,%rbp
   19996:	48 83 c4 80          	add    $0xffffffffffffff80,%rsp
   1999a:	89 f8                	mov    %edi,%eax
   1999c:	66 89 45 8c          	mov    %ax,-0x74(%rbp)
   199a0:	64 48 8b 04 25 28 00 	mov    %fs:0x28,%rax
   199a7:	00 00 
   199a9:	48 89 45 f8          	mov    %rax,-0x8(%rbp)
   199ad:	31 c0                	xor    %eax,%eax
   199af:	48 8d 05 9e 87 00 00 	lea    0x879e(%rip),%rax        # 22154 <g_65>
   199b6:	48 89 45 a0          	mov    %rax,-0x60(%rbp)
   199ba:	48 8d 05 93 87 00 00 	lea    0x8793(%rip),%rax        # 22154 <g_65>
   199c1:	48 89 45 a8          	mov    %rax,-0x58(%rbp)
   199c5:	48 c7 45 b0 00 00 00 	movq   $0x0,-0x50(%rbp)
   199cc:	00 
   199cd:	48 8d 05 80 87 00 00 	lea    0x8780(%rip),%rax        # 22154 <g_65>
   199d4:	48 89 45 b8          	mov    %rax,-0x48(%rbp)
   199d8:	48 c7 45 c0 00 00 00 	movq   $0x0,-0x40(%rbp)
   199df:	00 
   199e0:	48 8d 05 6d 87 00 00 	lea    0x876d(%rip),%rax        # 22154 <g_65>
   199e7:	48 89 45 c8          	mov    %rax,-0x38(%rbp)
   199eb:	48 8d 05 62 87 00 00 	lea    0x8762(%rip),%rax        # 22154 <g_65>
   199f2:	48 89 45 d0          	mov    %rax,-0x30(%rbp)
   199f6:	48 8d 05 57 87 00 00 	lea    0x8757(%rip),%rax        # 22154 <g_65>
   199fd:	48 89 45 d8          	mov    %rax,-0x28(%rbp)
   19a01:	c7 45 9c 00 00 00 00 	movl   $0x0,-0x64(%rbp)
   19a08:	eb 12                	jmp    19a1c <func_60+0x8e>
   19a0a:	8b 45 9c             	mov    -0x64(%rbp),%eax
   19a0d:	48 98                	cltq   
   19a0f:	48 c7 44 c5 e0 00 00 	movq   $0x0,-0x20(%rbp,%rax,8)
   19a16:	00 00 
   19a18:	83 45 9c 01          	addl   $0x1,-0x64(%rbp)
   19a1c:	83 7d 9c 02          	cmpl   $0x2,-0x64(%rbp)
   19a20:	7e e8                	jle    19a0a <func_60+0x7c>
   19a22:	0f b7 05 2f 87 00 00 	movzwl 0x872f(%rip),%eax        # 22158 <g_74>
   19a29:	83 e8 01             	sub    $0x1,%eax
   19a2c:	66 89 05 25 87 00 00 	mov    %ax,0x8725(%rip)        # 22158 <g_74>
   19a33:	48 8d 05 a2 86 00 00 	lea    0x86a2(%rip),%rax        # 220dc <g_2+0x9c>
   19a3a:	48 8b 55 f8          	mov    -0x8(%rbp),%rdx
   19a3e:	64 48 33 14 25 28 00 	xor    %fs:0x28,%rdx
   19a45:	00 00 
   19a47:	74 05                	je     19a4e <func_60+0xc0>
   19a49:	e8 22 06 ff ff       	callq  a070 <__stack_chk_fail@plt>
   19a4e:	c9                   	leaveq 
   19a4f:	c3                   	retq   

0000000000019a50 <main>:
   19a50:	f3 0f 1e fa          	endbr64 
   19a54:	55                   	push   %rbp
   19a55:	48 89 e5             	mov    %rsp,%rbp
   19a58:	48 83 ec 20          	sub    $0x20,%rsp
   19a5c:	89 7d ec             	mov    %edi,-0x14(%rbp)
   19a5f:	48 89 75 e0          	mov    %rsi,-0x20(%rbp)
   19a63:	c7 45 fc 00 00 00 00 	movl   $0x0,-0x4(%rbp)
   19a6a:	83 7d ec 02          	cmpl   $0x2,-0x14(%rbp)
   19a6e:	75 25                	jne    19a95 <main+0x45>
   19a70:	48 8b 45 e0          	mov    -0x20(%rbp),%rax
   19a74:	48 83 c0 08          	add    $0x8,%rax
   19a78:	48 8b 00             	mov    (%rax),%rax
   19a7b:	48 8d 35 ee 52 00 00 	lea    0x52ee(%rip),%rsi        # 1ed70 <g_2807+0x16c0>
   19a82:	48 89 c7             	mov    %rax,%rdi
   19a85:	e8 06 06 ff ff       	callq  a090 <strcmp@plt>
   19a8a:	85 c0                	test   %eax,%eax
   19a8c:	75 07                	jne    19a95 <main+0x45>
   19a8e:	c7 45 fc 01 00 00 00 	movl   $0x1,-0x4(%rbp)
   19a95:	e8 ef 06 ff ff       	callq  a189 <platform_main_begin>
   19a9a:	e8 f9 1a ff ff       	callq  b598 <crc32_gentab>
   19a9f:	e8 11 1d ff ff       	callq  b7b5 <func_1>
   19aa4:	c7 45 f0 00 00 00 00 	movl   $0x0,-0x10(%rbp)
   19aab:	e9 b9 00 00 00       	jmpq   19b69 <main+0x119>
   19ab0:	c7 45 f4 00 00 00 00 	movl   $0x0,-0xc(%rbp)
   19ab7:	e9 9f 00 00 00       	jmpq   19b5b <main+0x10b>
   19abc:	c7 45 f8 00 00 00 00 	movl   $0x0,-0x8(%rbp)
   19ac3:	e9 85 00 00 00       	jmpq   19b4d <main+0xfd>
   19ac8:	8b 45 f8             	mov    -0x8(%rbp),%eax
   19acb:	48 63 f0             	movslq %eax,%rsi
   19ace:	8b 45 f0             	mov    -0x10(%rbp),%eax
   19ad1:	48 98                	cltq   
   19ad3:	8b 55 f4             	mov    -0xc(%rbp),%edx
   19ad6:	48 63 ca             	movslq %edx,%rcx
   19ad9:	48 89 c2             	mov    %rax,%rdx
   19adc:	48 c1 e2 02          	shl    $0x2,%rdx
   19ae0:	48 01 c2             	add    %rax,%rdx
   19ae3:	48 8d 04 d5 00 00 00 	lea    0x0(,%rdx,8),%rax
   19aea:	00 
   19aeb:	48 89 c2             	mov    %rax,%rdx
   19aee:	48 89 c8             	mov    %rcx,%rax
   19af1:	48 c1 e0 02          	shl    $0x2,%rax
   19af5:	48 01 c8             	add    %rcx,%rax
   19af8:	48 01 c0             	add    %rax,%rax
   19afb:	48 01 d0             	add    %rdx,%rax
   19afe:	48 01 f0             	add    %rsi,%rax
   19b01:	48 8d 14 85 00 00 00 	lea    0x0(,%rax,4),%rdx
   19b08:	00 
   19b09:	48 8d 05 30 85 00 00 	lea    0x8530(%rip),%rax        # 22040 <g_2>
   19b10:	8b 04 02             	mov    (%rdx,%rax,1),%eax
   19b13:	48 98                	cltq   
   19b15:	8b 55 fc             	mov    -0x4(%rbp),%edx
   19b18:	48 8d 35 53 52 00 00 	lea    0x5253(%rip),%rsi        # 1ed72 <g_2807+0x16c2>
   19b1f:	48 89 c7             	mov    %rax,%rdi
   19b22:	e8 cc 1b ff ff       	callq  b6f3 <transparent_crc>
   19b27:	83 7d fc 00          	cmpl   $0x0,-0x4(%rbp)
   19b2b:	74 1c                	je     19b49 <main+0xf9>
   19b2d:	8b 4d f8             	mov    -0x8(%rbp),%ecx
   19b30:	8b 55 f4             	mov    -0xc(%rbp),%edx
   19b33:	8b 45 f0             	mov    -0x10(%rbp),%eax
   19b36:	89 c6                	mov    %eax,%esi
   19b38:	48 8d 3d 40 52 00 00 	lea    0x5240(%rip),%rdi        # 1ed7f <g_2807+0x16cf>
   19b3f:	b8 00 00 00 00       	mov    $0x0,%eax
   19b44:	e8 37 05 ff ff       	callq  a080 <printf@plt>
   19b49:	83 45 f8 01          	addl   $0x1,-0x8(%rbp)
   19b4d:	83 7d f8 09          	cmpl   $0x9,-0x8(%rbp)
   19b51:	0f 8e 71 ff ff ff    	jle    19ac8 <main+0x78>
   19b57:	83 45 f4 01          	addl   $0x1,-0xc(%rbp)
   19b5b:	83 7d f4 03          	cmpl   $0x3,-0xc(%rbp)
   19b5f:	0f 8e 57 ff ff ff    	jle    19abc <main+0x6c>
   19b65:	83 45 f0 01          	addl   $0x1,-0x10(%rbp)
   19b69:	83 7d f0 00          	cmpl   $0x0,-0x10(%rbp)
   19b6d:	0f 8e 3d ff ff ff    	jle    19ab0 <main+0x60>
   19b73:	8b 05 67 85 00 00    	mov    0x8567(%rip),%eax        # 220e0 <g_6>
   19b79:	48 98                	cltq   
   19b7b:	8b 55 fc             	mov    -0x4(%rbp),%edx
   19b7e:	48 8d 35 10 52 00 00 	lea    0x5210(%rip),%rsi        # 1ed95 <g_2807+0x16e5>
   19b85:	48 89 c7             	mov    %rax,%rdi
   19b88:	e8 66 1b ff ff       	callq  b6f3 <transparent_crc>
   19b8d:	0f b6 05 74 cd 00 00 	movzbl 0xcd74(%rip),%eax        # 26908 <g_9>
   19b94:	48 0f be c0          	movsbq %al,%rax
   19b98:	8b 55 fc             	mov    -0x4(%rbp),%edx
   19b9b:	48 8d 35 f7 51 00 00 	lea    0x51f7(%rip),%rsi        # 1ed99 <g_2807+0x16e9>
   19ba2:	48 89 c7             	mov    %rax,%rdi
   19ba5:	e8 49 1b ff ff       	callq  b6f3 <transparent_crc>
   19baa:	8b 05 5c cd 00 00    	mov    0xcd5c(%rip),%eax        # 2690c <g_10>
   19bb0:	89 c1                	mov    %eax,%ecx
   19bb2:	8b 45 fc             	mov    -0x4(%rbp),%eax
   19bb5:	89 c2                	mov    %eax,%edx
   19bb7:	48 8d 35 df 51 00 00 	lea    0x51df(%rip),%rsi        # 1ed9d <g_2807+0x16ed>
   19bbe:	48 89 cf             	mov    %rcx,%rdi
   19bc1:	e8 2d 1b ff ff       	callq  b6f3 <transparent_crc>
   19bc6:	c7 45 f0 00 00 00 00 	movl   $0x0,-0x10(%rbp)
   19bcd:	eb 66                	jmp    19c35 <main+0x1e5>
   19bcf:	c7 45 f4 00 00 00 00 	movl   $0x0,-0xc(%rbp)
   19bd6:	eb 53                	jmp    19c2b <main+0x1db>
   19bd8:	8b 45 f4             	mov    -0xc(%rbp),%eax
   19bdb:	48 63 d0             	movslq %eax,%rdx
   19bde:	8b 45 f0             	mov    -0x10(%rbp),%eax
   19be1:	48 98                	cltq   
   19be3:	48 01 c2             	add    %rax,%rdx
   19be6:	48 8d 05 23 cd 00 00 	lea    0xcd23(%rip),%rax        # 26910 <g_30>
   19bed:	48 01 d0             	add    %rdx,%rax
   19bf0:	0f b6 00             	movzbl (%rax),%eax
   19bf3:	0f b6 c0             	movzbl %al,%eax
   19bf6:	8b 55 fc             	mov    -0x4(%rbp),%edx
   19bf9:	48 8d 35 a2 51 00 00 	lea    0x51a2(%rip),%rsi        # 1eda2 <g_2807+0x16f2>
   19c00:	48 89 c7             	mov    %rax,%rdi
   19c03:	e8 eb 1a ff ff       	callq  b6f3 <transparent_crc>
   19c08:	83 7d fc 00          	cmpl   $0x0,-0x4(%rbp)
   19c0c:	74 19                	je     19c27 <main+0x1d7>
   19c0e:	8b 55 f4             	mov    -0xc(%rbp),%edx
   19c11:	8b 45 f0             	mov    -0x10(%rbp),%eax
   19c14:	89 c6                	mov    %eax,%esi
   19c16:	48 8d 3d 90 51 00 00 	lea    0x5190(%rip),%rdi        # 1edad <g_2807+0x16fd>
   19c1d:	b8 00 00 00 00       	mov    $0x0,%eax
   19c22:	e8 59 04 ff ff       	callq  a080 <printf@plt>
   19c27:	83 45 f4 01          	addl   $0x1,-0xc(%rbp)
   19c2b:	83 7d f4 00          	cmpl   $0x0,-0xc(%rbp)
   19c2f:	7e a7                	jle    19bd8 <main+0x188>
   19c31:	83 45 f0 01          	addl   $0x1,-0x10(%rbp)
   19c35:	83 7d f0 02          	cmpl   $0x2,-0x10(%rbp)
   19c39:	7e 94                	jle    19bcf <main+0x17f>
   19c3b:	48 8b 05 a6 84 00 00 	mov    0x84a6(%rip),%rax        # 220e8 <g_37>
   19c42:	48 89 c1             	mov    %rax,%rcx
   19c45:	8b 45 fc             	mov    -0x4(%rbp),%eax
   19c48:	89 c2                	mov    %eax,%edx
   19c4a:	48 8d 35 6e 51 00 00 	lea    0x516e(%rip),%rsi        # 1edbf <g_2807+0x170f>
   19c51:	48 89 cf             	mov    %rcx,%rdi
   19c54:	e8 9a 1a ff ff       	callq  b6f3 <transparent_crc>
   19c59:	c7 45 f0 00 00 00 00 	movl   $0x0,-0x10(%rbp)
   19c60:	e9 a5 00 00 00       	jmpq   19d0a <main+0x2ba>
   19c65:	c7 45 f4 00 00 00 00 	movl   $0x0,-0xc(%rbp)
   19c6c:	e9 8b 00 00 00       	jmpq   19cfc <main+0x2ac>
   19c71:	c7 45 f8 00 00 00 00 	movl   $0x0,-0x8(%rbp)
   19c78:	eb 78                	jmp    19cf2 <main+0x2a2>
   19c7a:	8b 45 f8             	mov    -0x8(%rbp),%eax
   19c7d:	48 63 f0             	movslq %eax,%rsi
   19c80:	8b 45 f0             	mov    -0x10(%rbp),%eax
   19c83:	48 63 d0             	movslq %eax,%rdx
   19c86:	8b 45 f4             	mov    -0xc(%rbp),%eax
   19c89:	48 63 c8             	movslq %eax,%rcx
   19c8c:	48 89 d0             	mov    %rdx,%rax
   19c8f:	48 c1 e0 03          	shl    $0x3,%rax
   19c93:	48 29 d0             	sub    %rdx,%rax
   19c96:	48 01 c0             	add    %rax,%rax
   19c99:	48 89 ca             	mov    %rcx,%rdx
   19c9c:	48 c1 e2 03          	shl    $0x3,%rdx
   19ca0:	48 29 ca             	sub    %rcx,%rdx
   19ca3:	48 01 d0             	add    %rdx,%rax
   19ca6:	48 8d 14 30          	lea    (%rax,%rsi,1),%rdx
   19caa:	48 8d 05 4f 84 00 00 	lea    0x844f(%rip),%rax        # 22100 <g_55>
   19cb1:	48 01 d0             	add    %rdx,%rax
   19cb4:	0f b6 00             	movzbl (%rax),%eax
   19cb7:	0f b6 c0             	movzbl %al,%eax
   19cba:	8b 55 fc             	mov    -0x4(%rbp),%edx
   19cbd:	48 8d 35 03 51 00 00 	lea    0x5103(%rip),%rsi        # 1edc7 <g_2807+0x1717>
   19cc4:	48 89 c7             	mov    %rax,%rdi
   19cc7:	e8 27 1a ff ff       	callq  b6f3 <transparent_crc>
   19ccc:	83 7d fc 00          	cmpl   $0x0,-0x4(%rbp)
   19cd0:	74 1c                	je     19cee <main+0x29e>
   19cd2:	8b 4d f8             	mov    -0x8(%rbp),%ecx
   19cd5:	8b 55 f4             	mov    -0xc(%rbp),%edx
   19cd8:	8b 45 f0             	mov    -0x10(%rbp),%eax
   19cdb:	89 c6                	mov    %eax,%esi
   19cdd:	48 8d 3d 9b 50 00 00 	lea    0x509b(%rip),%rdi        # 1ed7f <g_2807+0x16cf>
   19ce4:	b8 00 00 00 00       	mov    $0x0,%eax
   19ce9:	e8 92 03 ff ff       	callq  a080 <printf@plt>
   19cee:	83 45 f8 01          	addl   $0x1,-0x8(%rbp)
   19cf2:	83 7d f8 06          	cmpl   $0x6,-0x8(%rbp)
   19cf6:	7e 82                	jle    19c7a <main+0x22a>
   19cf8:	83 45 f4 01          	addl   $0x1,-0xc(%rbp)
   19cfc:	83 7d f4 01          	cmpl   $0x1,-0xc(%rbp)
   19d00:	0f 8e 6b ff ff ff    	jle    19c71 <main+0x221>
   19d06:	83 45 f0 01          	addl   $0x1,-0x10(%rbp)
   19d0a:	83 7d f0 05          	cmpl   $0x5,-0x10(%rbp)
   19d0e:	0f 8e 51 ff ff ff    	jle    19c65 <main+0x215>
   19d14:	8b 05 3a 84 00 00    	mov    0x843a(%rip),%eax        # 22154 <g_65>
   19d1a:	48 98                	cltq   
   19d1c:	8b 55 fc             	mov    -0x4(%rbp),%edx
   19d1f:	48 8d 35 af 50 00 00 	lea    0x50af(%rip),%rsi        # 1edd5 <g_2807+0x1725>
   19d26:	48 89 c7             	mov    %rax,%rdi
   19d29:	e8 c5 19 ff ff       	callq  b6f3 <transparent_crc>
   19d2e:	0f b7 05 23 84 00 00 	movzwl 0x8423(%rip),%eax        # 22158 <g_74>
   19d35:	0f b7 c0             	movzwl %ax,%eax
   19d38:	8b 55 fc             	mov    -0x4(%rbp),%edx
   19d3b:	48 8d 35 98 50 00 00 	lea    0x5098(%rip),%rsi        # 1edda <g_2807+0x172a>
   19d42:	48 89 c7             	mov    %rax,%rdi
   19d45:	e8 a9 19 ff ff       	callq  b6f3 <transparent_crc>
   19d4a:	8b 05 0c 84 00 00    	mov    0x840c(%rip),%eax        # 2215c <g_83>
   19d50:	89 c1                	mov    %eax,%ecx
   19d52:	8b 45 fc             	mov    -0x4(%rbp),%eax
   19d55:	89 c2                	mov    %eax,%edx
   19d57:	48 8d 35 81 50 00 00 	lea    0x5081(%rip),%rsi        # 1eddf <g_2807+0x172f>
   19d5e:	48 89 cf             	mov    %rcx,%rdi
   19d61:	e8 8d 19 ff ff       	callq  b6f3 <transparent_crc>
   19d66:	8b 05 f4 83 00 00    	mov    0x83f4(%rip),%eax        # 22160 <g_84>
   19d6c:	48 98                	cltq   
   19d6e:	8b 55 fc             	mov    -0x4(%rbp),%edx
   19d71:	48 8d 35 6c 50 00 00 	lea    0x506c(%rip),%rsi        # 1ede4 <g_2807+0x1734>
   19d78:	48 89 c7             	mov    %rax,%rdi
   19d7b:	e8 73 19 ff ff       	callq  b6f3 <transparent_crc>
   19d80:	0f b7 05 dd 83 00 00 	movzwl 0x83dd(%rip),%eax        # 22164 <g_84+0x4>
   19d87:	0f b7 c0             	movzwl %ax,%eax
   19d8a:	8b 55 fc             	mov    -0x4(%rbp),%edx
   19d8d:	48 8d 35 58 50 00 00 	lea    0x5058(%rip),%rsi        # 1edec <g_2807+0x173c>
   19d94:	48 89 c7             	mov    %rax,%rdi
   19d97:	e8 57 19 ff ff       	callq  b6f3 <transparent_crc>
   19d9c:	0f b7 05 c3 83 00 00 	movzwl 0x83c3(%rip),%eax        # 22166 <g_84+0x6>
   19da3:	0f b7 c0             	movzwl %ax,%eax
   19da6:	8b 55 fc             	mov    -0x4(%rbp),%edx
   19da9:	48 8d 35 44 50 00 00 	lea    0x5044(%rip),%rsi        # 1edf4 <g_2807+0x1744>
   19db0:	48 89 c7             	mov    %rax,%rdi
   19db3:	e8 3b 19 ff ff       	callq  b6f3 <transparent_crc>
   19db8:	8b 05 aa 83 00 00    	mov    0x83aa(%rip),%eax        # 22168 <g_84+0x8>
   19dbe:	48 98                	cltq   
   19dc0:	8b 55 fc             	mov    -0x4(%rbp),%edx
   19dc3:	48 8d 35 32 50 00 00 	lea    0x5032(%rip),%rsi        # 1edfc <g_2807+0x174c>
   19dca:	48 89 c7             	mov    %rax,%rdi
   19dcd:	e8 21 19 ff ff       	callq  b6f3 <transparent_crc>
   19dd2:	8b 05 94 83 00 00    	mov    0x8394(%rip),%eax        # 2216c <g_84+0xc>
   19dd8:	48 98                	cltq   
   19dda:	8b 55 fc             	mov    -0x4(%rbp),%edx
   19ddd:	48 8d 35 20 50 00 00 	lea    0x5020(%rip),%rsi        # 1ee04 <g_2807+0x1754>
   19de4:	48 89 c7             	mov    %rax,%rdi
   19de7:	e8 07 19 ff ff       	callq  b6f3 <transparent_crc>
   19dec:	0f b7 05 7d 83 00 00 	movzwl 0x837d(%rip),%eax        # 22170 <g_84+0x10>
   19df3:	48 0f bf c0          	movswq %ax,%rax
   19df7:	8b 55 fc             	mov    -0x4(%rbp),%edx
   19dfa:	48 8d 35 0b 50 00 00 	lea    0x500b(%rip),%rsi        # 1ee0c <g_2807+0x175c>
   19e01:	48 89 c7             	mov    %rax,%rdi
   19e04:	e8 ea 18 ff ff       	callq  b6f3 <transparent_crc>
   19e09:	0f b7 05 62 83 00 00 	movzwl 0x8362(%rip),%eax        # 22172 <g_84+0x12>
   19e10:	48 0f bf c0          	movswq %ax,%rax
   19e14:	8b 55 fc             	mov    -0x4(%rbp),%edx
   19e17:	48 8d 35 f6 4f 00 00 	lea    0x4ff6(%rip),%rsi        # 1ee14 <g_2807+0x1764>
   19e1e:	48 89 c7             	mov    %rax,%rdi
   19e21:	e8 cd 18 ff ff       	callq  b6f3 <transparent_crc>
   19e26:	0f b7 05 47 83 00 00 	movzwl 0x8347(%rip),%eax        # 22174 <g_84+0x14>
   19e2d:	0f b7 c0             	movzwl %ax,%eax
   19e30:	8b 55 fc             	mov    -0x4(%rbp),%edx
   19e33:	48 8d 35 e2 4f 00 00 	lea    0x4fe2(%rip),%rsi        # 1ee1c <g_2807+0x176c>
   19e3a:	48 89 c7             	mov    %rax,%rdi
   19e3d:	e8 b1 18 ff ff       	callq  b6f3 <transparent_crc>
   19e42:	0f b6 05 2d 83 00 00 	movzbl 0x832d(%rip),%eax        # 22176 <g_84+0x16>
   19e49:	48 0f be c0          	movsbq %al,%rax
   19e4d:	8b 55 fc             	mov    -0x4(%rbp),%edx
   19e50:	48 8d 35 cd 4f 00 00 	lea    0x4fcd(%rip),%rsi        # 1ee24 <g_2807+0x1774>
   19e57:	48 89 c7             	mov    %rax,%rdi
   19e5a:	e8 94 18 ff ff       	callq  b6f3 <transparent_crc>
   19e5f:	8b 05 13 83 00 00    	mov    0x8313(%rip),%eax        # 22178 <g_84+0x18>
   19e65:	89 c1                	mov    %eax,%ecx
   19e67:	8b 45 fc             	mov    -0x4(%rbp),%eax
   19e6a:	89 c2                	mov    %eax,%edx
   19e6c:	48 8d 35 b9 4f 00 00 	lea    0x4fb9(%rip),%rsi        # 1ee2c <g_2807+0x177c>
   19e73:	48 89 cf             	mov    %rcx,%rdi
   19e76:	e8 78 18 ff ff       	callq  b6f3 <transparent_crc>
   19e7b:	0f b6 05 fa 82 00 00 	movzbl 0x82fa(%rip),%eax        # 2217c <g_89>
   19e82:	48 0f be c0          	movsbq %al,%rax
   19e86:	8b 55 fc             	mov    -0x4(%rbp),%edx
   19e89:	48 8d 35 a4 4f 00 00 	lea    0x4fa4(%rip),%rsi        # 1ee34 <g_2807+0x1784>
   19e90:	48 89 c7             	mov    %rax,%rdi
   19e93:	e8 5b 18 ff ff       	callq  b6f3 <transparent_crc>
   19e98:	8b 05 e2 82 00 00    	mov    0x82e2(%rip),%eax        # 22180 <g_94>
   19e9e:	48 98                	cltq   
   19ea0:	8b 55 fc             	mov    -0x4(%rbp),%edx
   19ea3:	48 8d 35 8f 4f 00 00 	lea    0x4f8f(%rip),%rsi        # 1ee39 <g_2807+0x1789>
   19eaa:	48 89 c7             	mov    %rax,%rdi
   19ead:	e8 41 18 ff ff       	callq  b6f3 <transparent_crc>
   19eb2:	0f b6 05 cb 82 00 00 	movzbl 0x82cb(%rip),%eax        # 22184 <g_95>
   19eb9:	48 0f be c0          	movsbq %al,%rax
   19ebd:	8b 55 fc             	mov    -0x4(%rbp),%edx
   19ec0:	48 8d 35 77 4f 00 00 	lea    0x4f77(%rip),%rsi        # 1ee3e <g_2807+0x178e>
   19ec7:	48 89 c7             	mov    %rax,%rdi
   19eca:	e8 24 18 ff ff       	callq  b6f3 <transparent_crc>
   19ecf:	8b 05 b3 82 00 00    	mov    0x82b3(%rip),%eax        # 22188 <g_96>
   19ed5:	48 98                	cltq   
   19ed7:	8b 55 fc             	mov    -0x4(%rbp),%edx
   19eda:	48 8d 35 62 4f 00 00 	lea    0x4f62(%rip),%rsi        # 1ee43 <g_2807+0x1793>
   19ee1:	48 89 c7             	mov    %rax,%rdi
   19ee4:	e8 0a 18 ff ff       	callq  b6f3 <transparent_crc>
   19ee9:	8b 05 9d 82 00 00    	mov    0x829d(%rip),%eax        # 2218c <g_97>
   19eef:	89 c1                	mov    %eax,%ecx
   19ef1:	8b 45 fc             	mov    -0x4(%rbp),%eax
   19ef4:	89 c2                	mov    %eax,%edx
   19ef6:	48 8d 35 4b 4f 00 00 	lea    0x4f4b(%rip),%rsi        # 1ee48 <g_2807+0x1798>
   19efd:	48 89 cf             	mov    %rcx,%rdi
   19f00:	e8 ee 17 ff ff       	callq  b6f3 <transparent_crc>
   19f05:	8b 05 85 82 00 00    	mov    0x8285(%rip),%eax        # 22190 <g_100>
   19f0b:	48 98                	cltq   
   19f0d:	8b 55 fc             	mov    -0x4(%rbp),%edx
   19f10:	48 8d 35 36 4f 00 00 	lea    0x4f36(%rip),%rsi        # 1ee4d <g_2807+0x179d>
   19f17:	48 89 c7             	mov    %rax,%rdi
   19f1a:	e8 d4 17 ff ff       	callq  b6f3 <transparent_crc>
   19f1f:	0f b7 05 6e 82 00 00 	movzwl 0x826e(%rip),%eax        # 22194 <g_100+0x4>
   19f26:	0f b7 c0             	movzwl %ax,%eax
   19f29:	8b 55 fc             	mov    -0x4(%rbp),%edx
   19f2c:	48 8d 35 23 4f 00 00 	lea    0x4f23(%rip),%rsi        # 1ee56 <g_2807+0x17a6>
   19f33:	48 89 c7             	mov    %rax,%rdi
   19f36:	e8 b8 17 ff ff       	callq  b6f3 <transparent_crc>
   19f3b:	0f b7 05 54 82 00 00 	movzwl 0x8254(%rip),%eax        # 22196 <g_100+0x6>
   19f42:	0f b7 c0             	movzwl %ax,%eax
   19f45:	8b 55 fc             	mov    -0x4(%rbp),%edx
   19f48:	48 8d 35 10 4f 00 00 	lea    0x4f10(%rip),%rsi        # 1ee5f <g_2807+0x17af>
   19f4f:	48 89 c7             	mov    %rax,%rdi
   19f52:	e8 9c 17 ff ff       	callq  b6f3 <transparent_crc>
   19f57:	8b 05 3b 82 00 00    	mov    0x823b(%rip),%eax        # 22198 <g_100+0x8>
   19f5d:	48 98                	cltq   
   19f5f:	8b 55 fc             	mov    -0x4(%rbp),%edx
   19f62:	48 8d 35 ff 4e 00 00 	lea    0x4eff(%rip),%rsi        # 1ee68 <g_2807+0x17b8>
   19f69:	48 89 c7             	mov    %rax,%rdi
   19f6c:	e8 82 17 ff ff       	callq  b6f3 <transparent_crc>
   19f71:	8b 05 25 82 00 00    	mov    0x8225(%rip),%eax        # 2219c <g_100+0xc>
   19f77:	48 98                	cltq   
   19f79:	8b 55 fc             	mov    -0x4(%rbp),%edx
   19f7c:	48 8d 35 ee 4e 00 00 	lea    0x4eee(%rip),%rsi        # 1ee71 <g_2807+0x17c1>
   19f83:	48 89 c7             	mov    %rax,%rdi
   19f86:	e8 68 17 ff ff       	callq  b6f3 <transparent_crc>
   19f8b:	0f b7 05 0e 82 00 00 	movzwl 0x820e(%rip),%eax        # 221a0 <g_100+0x10>
   19f92:	48 0f bf c0          	movswq %ax,%rax
   19f96:	8b 55 fc             	mov    -0x4(%rbp),%edx
   19f99:	48 8d 35 da 4e 00 00 	lea    0x4eda(%rip),%rsi        # 1ee7a <g_2807+0x17ca>
   19fa0:	48 89 c7             	mov    %rax,%rdi
   19fa3:	e8 4b 17 ff ff       	callq  b6f3 <transparent_crc>
   19fa8:	0f b7 05 f3 81 00 00 	movzwl 0x81f3(%rip),%eax        # 221a2 <g_100+0x12>
   19faf:	48 0f bf c0          	movswq %ax,%rax
   19fb3:	8b 55 fc             	mov    -0x4(%rbp),%edx
   19fb6:	48 8d 35 c6 4e 00 00 	lea    0x4ec6(%rip),%rsi        # 1ee83 <g_2807+0x17d3>
   19fbd:	48 89 c7             	mov    %rax,%rdi
   19fc0:	e8 2e 17 ff ff       	callq  b6f3 <transparent_crc>
   19fc5:	0f b7 05 d8 81 00 00 	movzwl 0x81d8(%rip),%eax        # 221a4 <g_100+0x14>
   19fcc:	0f b7 c0             	movzwl %ax,%eax
   19fcf:	8b 55 fc             	mov    -0x4(%rbp),%edx
   19fd2:	48 8d 35 b3 4e 00 00 	lea    0x4eb3(%rip),%rsi        # 1ee8c <g_2807+0x17dc>
   19fd9:	48 89 c7             	mov    %rax,%rdi
   19fdc:	e8 12 17 ff ff       	callq  b6f3 <transparent_crc>
   19fe1:	0f b6 05 be 81 00 00 	movzbl 0x81be(%rip),%eax        # 221a6 <g_100+0x16>
   19fe8:	48 0f be c0          	movsbq %al,%rax
   19fec:	8b 55 fc             	mov    -0x4(%rbp),%edx
   19fef:	48 8d 35 9f 4e 00 00 	lea    0x4e9f(%rip),%rsi        # 1ee95 <g_2807+0x17e5>
   19ff6:	48 89 c7             	mov    %rax,%rdi
   19ff9:	e8 f5 16 ff ff       	callq  b6f3 <transparent_crc>
   19ffe:	8b 05 a4 81 00 00    	mov    0x81a4(%rip),%eax        # 221a8 <g_100+0x18>
   1a004:	89 c1                	mov    %eax,%ecx
   1a006:	8b 45 fc             	mov    -0x4(%rbp),%eax
   1a009:	89 c2                	mov    %eax,%edx
   1a00b:	48 8d 35 8c 4e 00 00 	lea    0x4e8c(%rip),%rsi        # 1ee9e <g_2807+0x17ee>
   1a012:	48 89 cf             	mov    %rcx,%rdi
   1a015:	e8 d9 16 ff ff       	callq  b6f3 <transparent_crc>
   1a01a:	c7 45 f0 00 00 00 00 	movl   $0x0,-0x10(%rbp)
   1a021:	eb 72                	jmp    1a095 <main+0x645>
   1a023:	c7 45 f4 00 00 00 00 	movl   $0x0,-0xc(%rbp)
   1a02a:	eb 5f                	jmp    1a08b <main+0x63b>
   1a02c:	8b 45 f4             	mov    -0xc(%rbp),%eax
   1a02f:	48 98                	cltq   
   1a031:	8b 55 f0             	mov    -0x10(%rbp),%edx
   1a034:	48 63 d2             	movslq %edx,%rdx
   1a037:	48 c1 e2 02          	shl    $0x2,%rdx
   1a03b:	48 01 d0             	add    %rdx,%rax
   1a03e:	48 8d 14 c5 00 00 00 	lea    0x0(,%rax,8),%rdx
   1a045:	00 
   1a046:	48 8d 05 73 81 00 00 	lea    0x8173(%rip),%rax        # 221c0 <g_152>
   1a04d:	48 8b 04 02          	mov    (%rdx,%rax,1),%rax
   1a051:	48 89 c1             	mov    %rax,%rcx
   1a054:	8b 45 fc             	mov    -0x4(%rbp),%eax
   1a057:	89 c2                	mov    %eax,%edx
   1a059:	48 8d 35 47 4e 00 00 	lea    0x4e47(%rip),%rsi        # 1eea7 <g_2807+0x17f7>
   1a060:	48 89 cf             	mov    %rcx,%rdi
   1a063:	e8 8b 16 ff ff       	callq  b6f3 <transparent_crc>
   1a068:	83 7d fc 00          	cmpl   $0x0,-0x4(%rbp)
   1a06c:	74 19                	je     1a087 <main+0x637>
   1a06e:	8b 55 f4             	mov    -0xc(%rbp),%edx
   1a071:	8b 45 f0             	mov    -0x10(%rbp),%eax
   1a074:	89 c6                	mov    %eax,%esi
   1a076:	48 8d 3d 30 4d 00 00 	lea    0x4d30(%rip),%rdi        # 1edad <g_2807+0x16fd>
   1a07d:	b8 00 00 00 00       	mov    $0x0,%eax
   1a082:	e8 f9 ff fe ff       	callq  a080 <printf@plt>
   1a087:	83 45 f4 01          	addl   $0x1,-0xc(%rbp)
   1a08b:	83 7d f4 03          	cmpl   $0x3,-0xc(%rbp)
   1a08f:	7e 9b                	jle    1a02c <main+0x5dc>
   1a091:	83 45 f0 01          	addl   $0x1,-0x10(%rbp)
   1a095:	83 7d f0 04          	cmpl   $0x4,-0x10(%rbp)
   1a099:	7e 88                	jle    1a023 <main+0x5d3>
   1a09b:	c7 45 f0 00 00 00 00 	movl   $0x0,-0x10(%rbp)
   1a0a2:	eb 49                	jmp    1a0ed <main+0x69d>
   1a0a4:	8b 45 f0             	mov    -0x10(%rbp),%eax
   1a0a7:	48 98                	cltq   
   1a0a9:	48 8d 14 00          	lea    (%rax,%rax,1),%rdx
   1a0ad:	48 8d 05 ac 81 00 00 	lea    0x81ac(%rip),%rax        # 22260 <g_177>
   1a0b4:	0f b7 04 02          	movzwl (%rdx,%rax,1),%eax
   1a0b8:	0f b7 c0             	movzwl %ax,%eax
   1a0bb:	8b 55 fc             	mov    -0x4(%rbp),%edx
   1a0be:	48 8d 35 ee 4d 00 00 	lea    0x4dee(%rip),%rsi        # 1eeb3 <g_2807+0x1803>
   1a0c5:	48 89 c7             	mov    %rax,%rdi
   1a0c8:	e8 26 16 ff ff       	callq  b6f3 <transparent_crc>
   1a0cd:	83 7d fc 00          	cmpl   $0x0,-0x4(%rbp)
   1a0d1:	74 16                	je     1a0e9 <main+0x699>
   1a0d3:	8b 45 f0             	mov    -0x10(%rbp),%eax
   1a0d6:	89 c6                	mov    %eax,%esi
   1a0d8:	48 8d 3d dd 4d 00 00 	lea    0x4ddd(%rip),%rdi        # 1eebc <g_2807+0x180c>
   1a0df:	b8 00 00 00 00       	mov    $0x0,%eax
   1a0e4:	e8 97 ff fe ff       	callq  a080 <printf@plt>
   1a0e9:	83 45 f0 01          	addl   $0x1,-0x10(%rbp)
   1a0ed:	83 7d f0 09          	cmpl   $0x9,-0x10(%rbp)
   1a0f1:	7e b1                	jle    1a0a4 <main+0x654>
   1a0f3:	c7 45 f0 00 00 00 00 	movl   $0x0,-0x10(%rbp)
   1a0fa:	e9 ac 00 00 00       	jmpq   1a1ab <main+0x75b>
   1a0ff:	c7 45 f4 00 00 00 00 	movl   $0x0,-0xc(%rbp)
   1a106:	e9 92 00 00 00       	jmpq   1a19d <main+0x74d>
   1a10b:	c7 45 f8 00 00 00 00 	movl   $0x0,-0x8(%rbp)
   1a112:	eb 7b                	jmp    1a18f <main+0x73f>
   1a114:	8b 45 f8             	mov    -0x8(%rbp),%eax
   1a117:	48 63 f0             	movslq %eax,%rsi
   1a11a:	8b 45 f0             	mov    -0x10(%rbp),%eax
   1a11d:	48 63 d0             	movslq %eax,%rdx
   1a120:	8b 45 f4             	mov    -0xc(%rbp),%eax
   1a123:	48 63 c8             	movslq %eax,%rcx
   1a126:	48 89 d0             	mov    %rdx,%rax
   1a129:	48 c1 e0 02          	shl    $0x2,%rax
   1a12d:	48 01 d0             	add    %rdx,%rax
   1a130:	48 01 c0             	add    %rax,%rax
   1a133:	48 89 ca             	mov    %rcx,%rdx
   1a136:	48 c1 e2 02          	shl    $0x2,%rdx
   1a13a:	48 01 ca             	add    %rcx,%rdx
   1a13d:	48 01 d0             	add    %rdx,%rax
   1a140:	48 01 f0             	add    %rsi,%rax
   1a143:	48 8d 14 85 00 00 00 	lea    0x0(,%rax,4),%rdx
   1a14a:	00 
   1a14b:	48 8d 05 2e 81 00 00 	lea    0x812e(%rip),%rax        # 22280 <g_179>
   1a152:	8b 04 02             	mov    (%rdx,%rax,1),%eax
   1a155:	48 98                	cltq   
   1a157:	8b 55 fc             	mov    -0x4(%rbp),%edx
   1a15a:	48 8d 35 69 4d 00 00 	lea    0x4d69(%rip),%rsi        # 1eeca <g_2807+0x181a>
   1a161:	48 89 c7             	mov    %rax,%rdi
   1a164:	e8 8a 15 ff ff       	callq  b6f3 <transparent_crc>
   1a169:	83 7d fc 00          	cmpl   $0x0,-0x4(%rbp)
   1a16d:	74 1c                	je     1a18b <main+0x73b>
   1a16f:	8b 4d f8             	mov    -0x8(%rbp),%ecx
   1a172:	8b 55 f4             	mov    -0xc(%rbp),%edx
   1a175:	8b 45 f0             	mov    -0x10(%rbp),%eax
   1a178:	89 c6                	mov    %eax,%esi
   1a17a:	48 8d 3d fe 4b 00 00 	lea    0x4bfe(%rip),%rdi        # 1ed7f <g_2807+0x16cf>
   1a181:	b8 00 00 00 00       	mov    $0x0,%eax
   1a186:	e8 f5 fe fe ff       	callq  a080 <printf@plt>
   1a18b:	83 45 f8 01          	addl   $0x1,-0x8(%rbp)
   1a18f:	83 7d f8 04          	cmpl   $0x4,-0x8(%rbp)
   1a193:	0f 8e 7b ff ff ff    	jle    1a114 <main+0x6c4>
   1a199:	83 45 f4 01          	addl   $0x1,-0xc(%rbp)
   1a19d:	83 7d f4 01          	cmpl   $0x1,-0xc(%rbp)
   1a1a1:	0f 8e 64 ff ff ff    	jle    1a10b <main+0x6bb>
   1a1a7:	83 45 f0 01          	addl   $0x1,-0x10(%rbp)
   1a1ab:	83 7d f0 06          	cmpl   $0x6,-0x10(%rbp)
   1a1af:	0f 8e 4a ff ff ff    	jle    1a0ff <main+0x6af>
   1a1b5:	8b 05 e5 81 00 00    	mov    0x81e5(%rip),%eax        # 223a0 <g_211>
   1a1bb:	48 98                	cltq   
   1a1bd:	8b 55 fc             	mov    -0x4(%rbp),%edx
   1a1c0:	48 8d 35 12 4d 00 00 	lea    0x4d12(%rip),%rsi        # 1eed9 <g_2807+0x1829>
   1a1c7:	48 89 c7             	mov    %rax,%rdi
   1a1ca:	e8 24 15 ff ff       	callq  b6f3 <transparent_crc>
   1a1cf:	0f b7 05 ce 81 00 00 	movzwl 0x81ce(%rip),%eax        # 223a4 <g_211+0x4>
   1a1d6:	0f b7 c0             	movzwl %ax,%eax
   1a1d9:	8b 55 fc             	mov    -0x4(%rbp),%edx
   1a1dc:	48 8d 35 ff 4c 00 00 	lea    0x4cff(%rip),%rsi        # 1eee2 <g_2807+0x1832>
   1a1e3:	48 89 c7             	mov    %rax,%rdi
   1a1e6:	e8 08 15 ff ff       	callq  b6f3 <transparent_crc>
   1a1eb:	0f b7 05 b4 81 00 00 	movzwl 0x81b4(%rip),%eax        # 223a6 <g_211+0x6>
   1a1f2:	0f b7 c0             	movzwl %ax,%eax
   1a1f5:	8b 55 fc             	mov    -0x4(%rbp),%edx
   1a1f8:	48 8d 35 ec 4c 00 00 	lea    0x4cec(%rip),%rsi        # 1eeeb <g_2807+0x183b>
   1a1ff:	48 89 c7             	mov    %rax,%rdi
   1a202:	e8 ec 14 ff ff       	callq  b6f3 <transparent_crc>
   1a207:	8b 05 9b 81 00 00    	mov    0x819b(%rip),%eax        # 223a8 <g_211+0x8>
   1a20d:	48 98                	cltq   
   1a20f:	8b 55 fc             	mov    -0x4(%rbp),%edx
   1a212:	48 8d 35 db 4c 00 00 	lea    0x4cdb(%rip),%rsi        # 1eef4 <g_2807+0x1844>
   1a219:	48 89 c7             	mov    %rax,%rdi
   1a21c:	e8 d2 14 ff ff       	callq  b6f3 <transparent_crc>
   1a221:	8b 05 85 81 00 00    	mov    0x8185(%rip),%eax        # 223ac <g_211+0xc>
   1a227:	48 98                	cltq   
   1a229:	8b 55 fc             	mov    -0x4(%rbp),%edx
   1a22c:	48 8d 35 ca 4c 00 00 	lea    0x4cca(%rip),%rsi        # 1eefd <g_2807+0x184d>
   1a233:	48 89 c7             	mov    %rax,%rdi
   1a236:	e8 b8 14 ff ff       	callq  b6f3 <transparent_crc>
   1a23b:	0f b7 05 6e 81 00 00 	movzwl 0x816e(%rip),%eax        # 223b0 <g_211+0x10>
   1a242:	48 0f bf c0          	movswq %ax,%rax
   1a246:	8b 55 fc             	mov    -0x4(%rbp),%edx
   1a249:	48 8d 35 b6 4c 00 00 	lea    0x4cb6(%rip),%rsi        # 1ef06 <g_2807+0x1856>
   1a250:	48 89 c7             	mov    %rax,%rdi
   1a253:	e8 9b 14 ff ff       	callq  b6f3 <transparent_crc>
   1a258:	0f b7 05 53 81 00 00 	movzwl 0x8153(%rip),%eax        # 223b2 <g_211+0x12>
   1a25f:	48 0f bf c0          	movswq %ax,%rax
   1a263:	8b 55 fc             	mov    -0x4(%rbp),%edx
   1a266:	48 8d 35 a2 4c 00 00 	lea    0x4ca2(%rip),%rsi        # 1ef0f <g_2807+0x185f>
   1a26d:	48 89 c7             	mov    %rax,%rdi
   1a270:	e8 7e 14 ff ff       	callq  b6f3 <transparent_crc>
   1a275:	0f b7 05 38 81 00 00 	movzwl 0x8138(%rip),%eax        # 223b4 <g_211+0x14>
   1a27c:	0f b7 c0             	movzwl %ax,%eax
   1a27f:	8b 55 fc             	mov    -0x4(%rbp),%edx
   1a282:	48 8d 35 8f 4c 00 00 	lea    0x4c8f(%rip),%rsi        # 1ef18 <g_2807+0x1868>
   1a289:	48 89 c7             	mov    %rax,%rdi
   1a28c:	e8 62 14 ff ff       	callq  b6f3 <transparent_crc>
   1a291:	0f b6 05 1e 81 00 00 	movzbl 0x811e(%rip),%eax        # 223b6 <g_211+0x16>
   1a298:	48 0f be c0          	movsbq %al,%rax
   1a29c:	8b 55 fc             	mov    -0x4(%rbp),%edx
   1a29f:	48 8d 35 7b 4c 00 00 	lea    0x4c7b(%rip),%rsi        # 1ef21 <g_2807+0x1871>
   1a2a6:	48 89 c7             	mov    %rax,%rdi
   1a2a9:	e8 45 14 ff ff       	callq  b6f3 <transparent_crc>
   1a2ae:	8b 05 04 81 00 00    	mov    0x8104(%rip),%eax        # 223b8 <g_211+0x18>
   1a2b4:	89 c1                	mov    %eax,%ecx
   1a2b6:	8b 45 fc             	mov    -0x4(%rbp),%eax
   1a2b9:	89 c2                	mov    %eax,%edx
   1a2bb:	48 8d 35 68 4c 00 00 	lea    0x4c68(%rip),%rsi        # 1ef2a <g_2807+0x187a>
   1a2c2:	48 89 cf             	mov    %rcx,%rdi
   1a2c5:	e8 29 14 ff ff       	callq  b6f3 <transparent_crc>
   1a2ca:	c7 45 f0 00 00 00 00 	movl   $0x0,-0x10(%rbp)
   1a2d1:	e9 43 02 00 00       	jmpq   1a519 <main+0xac9>
   1a2d6:	8b 45 f0             	mov    -0x10(%rbp),%eax
   1a2d9:	48 63 d0             	movslq %eax,%rdx
   1a2dc:	48 89 d0             	mov    %rdx,%rax
   1a2df:	48 c1 e0 03          	shl    $0x3,%rax
   1a2e3:	48 29 d0             	sub    %rdx,%rax
   1a2e6:	48 c1 e0 02          	shl    $0x2,%rax
   1a2ea:	48 89 c2             	mov    %rax,%rdx
   1a2ed:	48 8d 05 cc 80 00 00 	lea    0x80cc(%rip),%rax        # 223c0 <g_223>
   1a2f4:	8b 04 02             	mov    (%rdx,%rax,1),%eax
   1a2f7:	48 98                	cltq   
   1a2f9:	8b 55 fc             	mov    -0x4(%rbp),%edx
   1a2fc:	48 8d 35 30 4c 00 00 	lea    0x4c30(%rip),%rsi        # 1ef33 <g_2807+0x1883>
   1a303:	48 89 c7             	mov    %rax,%rdi
   1a306:	e8 e8 13 ff ff       	callq  b6f3 <transparent_crc>
   1a30b:	8b 45 f0             	mov    -0x10(%rbp),%eax
   1a30e:	48 63 d0             	movslq %eax,%rdx
   1a311:	48 89 d0             	mov    %rdx,%rax
   1a314:	48 c1 e0 03          	shl    $0x3,%rax
   1a318:	48 29 d0             	sub    %rdx,%rax
   1a31b:	48 c1 e0 02          	shl    $0x2,%rax
   1a31f:	48 89 c2             	mov    %rax,%rdx
   1a322:	48 8d 05 9b 80 00 00 	lea    0x809b(%rip),%rax        # 223c4 <g_223+0x4>
   1a329:	0f b7 04 02          	movzwl (%rdx,%rax,1),%eax
   1a32d:	0f b7 c0             	movzwl %ax,%eax
   1a330:	8b 55 fc             	mov    -0x4(%rbp),%edx
   1a333:	48 8d 35 05 4c 00 00 	lea    0x4c05(%rip),%rsi        # 1ef3f <g_2807+0x188f>
   1a33a:	48 89 c7             	mov    %rax,%rdi
   1a33d:	e8 b1 13 ff ff       	callq  b6f3 <transparent_crc>
   1a342:	8b 45 f0             	mov    -0x10(%rbp),%eax
   1a345:	48 63 d0             	movslq %eax,%rdx
   1a348:	48 89 d0             	mov    %rdx,%rax
   1a34b:	48 c1 e0 03          	shl    $0x3,%rax
   1a34f:	48 29 d0             	sub    %rdx,%rax
   1a352:	48 c1 e0 02          	shl    $0x2,%rax
   1a356:	48 89 c2             	mov    %rax,%rdx
   1a359:	48 8d 05 66 80 00 00 	lea    0x8066(%rip),%rax        # 223c6 <g_223+0x6>
   1a360:	0f b7 04 02          	movzwl (%rdx,%rax,1),%eax
   1a364:	0f b7 c0             	movzwl %ax,%eax
   1a367:	8b 55 fc             	mov    -0x4(%rbp),%edx
   1a36a:	48 8d 35 da 4b 00 00 	lea    0x4bda(%rip),%rsi        # 1ef4b <g_2807+0x189b>
   1a371:	48 89 c7             	mov    %rax,%rdi
   1a374:	e8 7a 13 ff ff       	callq  b6f3 <transparent_crc>
   1a379:	8b 45 f0             	mov    -0x10(%rbp),%eax
   1a37c:	48 63 d0             	movslq %eax,%rdx
   1a37f:	48 89 d0             	mov    %rdx,%rax
   1a382:	48 c1 e0 03          	shl    $0x3,%rax
   1a386:	48 29 d0             	sub    %rdx,%rax
   1a389:	48 c1 e0 02          	shl    $0x2,%rax
   1a38d:	48 89 c2             	mov    %rax,%rdx
   1a390:	48 8d 05 31 80 00 00 	lea    0x8031(%rip),%rax        # 223c8 <g_223+0x8>
   1a397:	8b 04 02             	mov    (%rdx,%rax,1),%eax
   1a39a:	48 98                	cltq   
   1a39c:	8b 55 fc             	mov    -0x4(%rbp),%edx
   1a39f:	48 8d 35 b1 4b 00 00 	lea    0x4bb1(%rip),%rsi        # 1ef57 <g_2807+0x18a7>
   1a3a6:	48 89 c7             	mov    %rax,%rdi
   1a3a9:	e8 45 13 ff ff       	callq  b6f3 <transparent_crc>
   1a3ae:	8b 45 f0             	mov    -0x10(%rbp),%eax
   1a3b1:	48 63 d0             	movslq %eax,%rdx
   1a3b4:	48 89 d0             	mov    %rdx,%rax
   1a3b7:	48 c1 e0 03          	shl    $0x3,%rax
   1a3bb:	48 29 d0             	sub    %rdx,%rax
   1a3be:	48 c1 e0 02          	shl    $0x2,%rax
   1a3c2:	48 89 c2             	mov    %rax,%rdx
   1a3c5:	48 8d 05 00 80 00 00 	lea    0x8000(%rip),%rax        # 223cc <g_223+0xc>
   1a3cc:	8b 04 02             	mov    (%rdx,%rax,1),%eax
   1a3cf:	48 98                	cltq   
   1a3d1:	8b 55 fc             	mov    -0x4(%rbp),%edx
   1a3d4:	48 8d 35 88 4b 00 00 	lea    0x4b88(%rip),%rsi        # 1ef63 <g_2807+0x18b3>
   1a3db:	48 89 c7             	mov    %rax,%rdi
   1a3de:	e8 10 13 ff ff       	callq  b6f3 <transparent_crc>
   1a3e3:	8b 45 f0             	mov    -0x10(%rbp),%eax
   1a3e6:	48 63 d0             	movslq %eax,%rdx
   1a3e9:	48 89 d0             	mov    %rdx,%rax
   1a3ec:	48 c1 e0 03          	shl    $0x3,%rax
   1a3f0:	48 29 d0             	sub    %rdx,%rax
   1a3f3:	48 c1 e0 02          	shl    $0x2,%rax
   1a3f7:	48 89 c2             	mov    %rax,%rdx
   1a3fa:	48 8d 05 cf 7f 00 00 	lea    0x7fcf(%rip),%rax        # 223d0 <g_223+0x10>
   1a401:	0f b7 04 02          	movzwl (%rdx,%rax,1),%eax
   1a405:	48 0f bf c0          	movswq %ax,%rax
   1a409:	8b 55 fc             	mov    -0x4(%rbp),%edx
   1a40c:	48 8d 35 5c 4b 00 00 	lea    0x4b5c(%rip),%rsi        # 1ef6f <g_2807+0x18bf>
   1a413:	48 89 c7             	mov    %rax,%rdi
   1a416:	e8 d8 12 ff ff       	callq  b6f3 <transparent_crc>
   1a41b:	8b 45 f0             	mov    -0x10(%rbp),%eax
   1a41e:	48 63 d0             	movslq %eax,%rdx
   1a421:	48 89 d0             	mov    %rdx,%rax
   1a424:	48 c1 e0 03          	shl    $0x3,%rax
   1a428:	48 29 d0             	sub    %rdx,%rax
   1a42b:	48 c1 e0 02          	shl    $0x2,%rax
   1a42f:	48 89 c2             	mov    %rax,%rdx
   1a432:	48 8d 05 99 7f 00 00 	lea    0x7f99(%rip),%rax        # 223d2 <g_223+0x12>
   1a439:	0f b7 04 02          	movzwl (%rdx,%rax,1),%eax
   1a43d:	48 0f bf c0          	movswq %ax,%rax
   1a441:	8b 55 fc             	mov    -0x4(%rbp),%edx
   1a444:	48 8d 35 30 4b 00 00 	lea    0x4b30(%rip),%rsi        # 1ef7b <g_2807+0x18cb>
   1a44b:	48 89 c7             	mov    %rax,%rdi
   1a44e:	e8 a0 12 ff ff       	callq  b6f3 <transparent_crc>
   1a453:	8b 45 f0             	mov    -0x10(%rbp),%eax
   1a456:	48 63 d0             	movslq %eax,%rdx
   1a459:	48 89 d0             	mov    %rdx,%rax
   1a45c:	48 c1 e0 03          	shl    $0x3,%rax
   1a460:	48 29 d0             	sub    %rdx,%rax
   1a463:	48 c1 e0 02          	shl    $0x2,%rax
   1a467:	48 89 c2             	mov    %rax,%rdx
   1a46a:	48 8d 05 63 7f 00 00 	lea    0x7f63(%rip),%rax        # 223d4 <g_223+0x14>
   1a471:	0f b7 04 02          	movzwl (%rdx,%rax,1),%eax
   1a475:	0f b7 c0             	movzwl %ax,%eax
   1a478:	8b 55 fc             	mov    -0x4(%rbp),%edx
   1a47b:	48 8d 35 05 4b 00 00 	lea    0x4b05(%rip),%rsi        # 1ef87 <g_2807+0x18d7>
   1a482:	48 89 c7             	mov    %rax,%rdi
   1a485:	e8 69 12 ff ff       	callq  b6f3 <transparent_crc>
   1a48a:	8b 45 f0             	mov    -0x10(%rbp),%eax
   1a48d:	48 63 d0             	movslq %eax,%rdx
   1a490:	48 89 d0             	mov    %rdx,%rax
   1a493:	48 c1 e0 03          	shl    $0x3,%rax
   1a497:	48 29 d0             	sub    %rdx,%rax
   1a49a:	48 c1 e0 02          	shl    $0x2,%rax
   1a49e:	48 89 c2             	mov    %rax,%rdx
   1a4a1:	48 8d 05 2e 7f 00 00 	lea    0x7f2e(%rip),%rax        # 223d6 <g_223+0x16>
   1a4a8:	0f b6 04 02          	movzbl (%rdx,%rax,1),%eax
   1a4ac:	48 0f be c0          	movsbq %al,%rax
   1a4b0:	8b 55 fc             	mov    -0x4(%rbp),%edx
   1a4b3:	48 8d 35 d9 4a 00 00 	lea    0x4ad9(%rip),%rsi        # 1ef93 <g_2807+0x18e3>
   1a4ba:	48 89 c7             	mov    %rax,%rdi
   1a4bd:	e8 31 12 ff ff       	callq  b6f3 <transparent_crc>
   1a4c2:	8b 45 f0             	mov    -0x10(%rbp),%eax
   1a4c5:	48 63 d0             	movslq %eax,%rdx
   1a4c8:	48 89 d0             	mov    %rdx,%rax
   1a4cb:	48 c1 e0 03          	shl    $0x3,%rax
   1a4cf:	48 29 d0             	sub    %rdx,%rax
   1a4d2:	48 c1 e0 02          	shl    $0x2,%rax
   1a4d6:	48 89 c2             	mov    %rax,%rdx
   1a4d9:	48 8d 05 f8 7e 00 00 	lea    0x7ef8(%rip),%rax        # 223d8 <g_223+0x18>
   1a4e0:	8b 04 02             	mov    (%rdx,%rax,1),%eax
   1a4e3:	89 c1                	mov    %eax,%ecx
   1a4e5:	8b 45 fc             	mov    -0x4(%rbp),%eax
   1a4e8:	89 c2                	mov    %eax,%edx
   1a4ea:	48 8d 35 ae 4a 00 00 	lea    0x4aae(%rip),%rsi        # 1ef9f <g_2807+0x18ef>
   1a4f1:	48 89 cf             	mov    %rcx,%rdi
   1a4f4:	e8 fa 11 ff ff       	callq  b6f3 <transparent_crc>
   1a4f9:	83 7d fc 00          	cmpl   $0x0,-0x4(%rbp)
   1a4fd:	74 16                	je     1a515 <main+0xac5>
   1a4ff:	8b 45 f0             	mov    -0x10(%rbp),%eax
   1a502:	89 c6                	mov    %eax,%esi
   1a504:	48 8d 3d b1 49 00 00 	lea    0x49b1(%rip),%rdi        # 1eebc <g_2807+0x180c>
   1a50b:	b8 00 00 00 00       	mov    $0x0,%eax
   1a510:	e8 6b fb fe ff       	callq  a080 <printf@plt>
   1a515:	83 45 f0 01          	addl   $0x1,-0x10(%rbp)
   1a519:	83 7d f0 02          	cmpl   $0x2,-0x10(%rbp)
   1a51d:	0f 8e b3 fd ff ff    	jle    1a2d6 <main+0x886>
   1a523:	8b 05 f7 7e 00 00    	mov    0x7ef7(%rip),%eax        # 22420 <g_248>
   1a529:	48 98                	cltq   
   1a52b:	8b 55 fc             	mov    -0x4(%rbp),%edx
   1a52e:	48 8d 35 76 4a 00 00 	lea    0x4a76(%rip),%rsi        # 1efab <g_2807+0x18fb>
   1a535:	48 89 c7             	mov    %rax,%rdi
   1a538:	e8 b6 11 ff ff       	callq  b6f3 <transparent_crc>
   1a53d:	0f b7 05 e0 7e 00 00 	movzwl 0x7ee0(%rip),%eax        # 22424 <g_248+0x4>
   1a544:	0f b7 c0             	movzwl %ax,%eax
   1a547:	8b 55 fc             	mov    -0x4(%rbp),%edx
   1a54a:	48 8d 35 63 4a 00 00 	lea    0x4a63(%rip),%rsi        # 1efb4 <g_2807+0x1904>
   1a551:	48 89 c7             	mov    %rax,%rdi
   1a554:	e8 9a 11 ff ff       	callq  b6f3 <transparent_crc>
   1a559:	0f b7 05 c6 7e 00 00 	movzwl 0x7ec6(%rip),%eax        # 22426 <g_248+0x6>
   1a560:	0f b7 c0             	movzwl %ax,%eax
   1a563:	8b 55 fc             	mov    -0x4(%rbp),%edx
   1a566:	48 8d 35 50 4a 00 00 	lea    0x4a50(%rip),%rsi        # 1efbd <g_2807+0x190d>
   1a56d:	48 89 c7             	mov    %rax,%rdi
   1a570:	e8 7e 11 ff ff       	callq  b6f3 <transparent_crc>
   1a575:	8b 05 ad 7e 00 00    	mov    0x7ead(%rip),%eax        # 22428 <g_248+0x8>
   1a57b:	48 98                	cltq   
   1a57d:	8b 55 fc             	mov    -0x4(%rbp),%edx
   1a580:	48 8d 35 3f 4a 00 00 	lea    0x4a3f(%rip),%rsi        # 1efc6 <g_2807+0x1916>
   1a587:	48 89 c7             	mov    %rax,%rdi
   1a58a:	e8 64 11 ff ff       	callq  b6f3 <transparent_crc>
   1a58f:	8b 05 97 7e 00 00    	mov    0x7e97(%rip),%eax        # 2242c <g_248+0xc>
   1a595:	48 98                	cltq   
   1a597:	8b 55 fc             	mov    -0x4(%rbp),%edx
   1a59a:	48 8d 35 2e 4a 00 00 	lea    0x4a2e(%rip),%rsi        # 1efcf <g_2807+0x191f>
   1a5a1:	48 89 c7             	mov    %rax,%rdi
   1a5a4:	e8 4a 11 ff ff       	callq  b6f3 <transparent_crc>
   1a5a9:	0f b7 05 80 7e 00 00 	movzwl 0x7e80(%rip),%eax        # 22430 <g_248+0x10>
   1a5b0:	48 0f bf c0          	movswq %ax,%rax
   1a5b4:	8b 55 fc             	mov    -0x4(%rbp),%edx
   1a5b7:	48 8d 35 1a 4a 00 00 	lea    0x4a1a(%rip),%rsi        # 1efd8 <g_2807+0x1928>
   1a5be:	48 89 c7             	mov    %rax,%rdi
   1a5c1:	e8 2d 11 ff ff       	callq  b6f3 <transparent_crc>
   1a5c6:	0f b7 05 65 7e 00 00 	movzwl 0x7e65(%rip),%eax        # 22432 <g_248+0x12>
   1a5cd:	48 0f bf c0          	movswq %ax,%rax
   1a5d1:	8b 55 fc             	mov    -0x4(%rbp),%edx
   1a5d4:	48 8d 35 06 4a 00 00 	lea    0x4a06(%rip),%rsi        # 1efe1 <g_2807+0x1931>
   1a5db:	48 89 c7             	mov    %rax,%rdi
   1a5de:	e8 10 11 ff ff       	callq  b6f3 <transparent_crc>
   1a5e3:	0f b7 05 4a 7e 00 00 	movzwl 0x7e4a(%rip),%eax        # 22434 <g_248+0x14>
   1a5ea:	0f b7 c0             	movzwl %ax,%eax
   1a5ed:	8b 55 fc             	mov    -0x4(%rbp),%edx
   1a5f0:	48 8d 35 f3 49 00 00 	lea    0x49f3(%rip),%rsi        # 1efea <g_2807+0x193a>
   1a5f7:	48 89 c7             	mov    %rax,%rdi
   1a5fa:	e8 f4 10 ff ff       	callq  b6f3 <transparent_crc>
   1a5ff:	0f b6 05 30 7e 00 00 	movzbl 0x7e30(%rip),%eax        # 22436 <g_248+0x16>
   1a606:	48 0f be c0          	movsbq %al,%rax
   1a60a:	8b 55 fc             	mov    -0x4(%rbp),%edx
   1a60d:	48 8d 35 df 49 00 00 	lea    0x49df(%rip),%rsi        # 1eff3 <g_2807+0x1943>
   1a614:	48 89 c7             	mov    %rax,%rdi
   1a617:	e8 d7 10 ff ff       	callq  b6f3 <transparent_crc>
   1a61c:	8b 05 16 7e 00 00    	mov    0x7e16(%rip),%eax        # 22438 <g_248+0x18>
   1a622:	89 c1                	mov    %eax,%ecx
   1a624:	8b 45 fc             	mov    -0x4(%rbp),%eax
   1a627:	89 c2                	mov    %eax,%edx
   1a629:	48 8d 35 cc 49 00 00 	lea    0x49cc(%rip),%rsi        # 1effc <g_2807+0x194c>
   1a630:	48 89 cf             	mov    %rcx,%rdi
   1a633:	e8 bb 10 ff ff       	callq  b6f3 <transparent_crc>
   1a638:	0f b7 05 fd 7d 00 00 	movzwl 0x7dfd(%rip),%eax        # 2243c <g_279>
   1a63f:	48 0f bf c0          	movswq %ax,%rax
   1a643:	8b 55 fc             	mov    -0x4(%rbp),%edx
   1a646:	48 8d 35 b8 49 00 00 	lea    0x49b8(%rip),%rsi        # 1f005 <g_2807+0x1955>
   1a64d:	48 89 c7             	mov    %rax,%rdi
   1a650:	e8 9e 10 ff ff       	callq  b6f3 <transparent_crc>
   1a655:	0f b6 05 e2 7d 00 00 	movzbl 0x7de2(%rip),%eax        # 2243e <g_293>
   1a65c:	0f b6 c0             	movzbl %al,%eax
   1a65f:	8b 55 fc             	mov    -0x4(%rbp),%edx
   1a662:	48 8d 35 a2 49 00 00 	lea    0x49a2(%rip),%rsi        # 1f00b <g_2807+0x195b>
   1a669:	48 89 c7             	mov    %rax,%rdi
   1a66c:	e8 82 10 ff ff       	callq  b6f3 <transparent_crc>
   1a671:	c7 45 f0 00 00 00 00 	movl   $0x0,-0x10(%rbp)
   1a678:	e9 43 02 00 00       	jmpq   1a8c0 <main+0xe70>
   1a67d:	8b 45 f0             	mov    -0x10(%rbp),%eax
   1a680:	48 63 d0             	movslq %eax,%rdx
   1a683:	48 89 d0             	mov    %rdx,%rax
   1a686:	48 c1 e0 03          	shl    $0x3,%rax
   1a68a:	48 29 d0             	sub    %rdx,%rax
   1a68d:	48 c1 e0 02          	shl    $0x2,%rax
   1a691:	48 89 c2             	mov    %rax,%rdx
   1a694:	48 8d 05 a5 7d 00 00 	lea    0x7da5(%rip),%rax        # 22440 <g_407>
   1a69b:	8b 04 02             	mov    (%rdx,%rax,1),%eax
   1a69e:	48 98                	cltq   
   1a6a0:	8b 55 fc             	mov    -0x4(%rbp),%edx
   1a6a3:	48 8d 35 67 49 00 00 	lea    0x4967(%rip),%rsi        # 1f011 <g_2807+0x1961>
   1a6aa:	48 89 c7             	mov    %rax,%rdi
   1a6ad:	e8 41 10 ff ff       	callq  b6f3 <transparent_crc>
   1a6b2:	8b 45 f0             	mov    -0x10(%rbp),%eax
   1a6b5:	48 63 d0             	movslq %eax,%rdx
   1a6b8:	48 89 d0             	mov    %rdx,%rax
   1a6bb:	48 c1 e0 03          	shl    $0x3,%rax
   1a6bf:	48 29 d0             	sub    %rdx,%rax
   1a6c2:	48 c1 e0 02          	shl    $0x2,%rax
   1a6c6:	48 89 c2             	mov    %rax,%rdx
   1a6c9:	48 8d 05 74 7d 00 00 	lea    0x7d74(%rip),%rax        # 22444 <g_407+0x4>
   1a6d0:	0f b7 04 02          	movzwl (%rdx,%rax,1),%eax
   1a6d4:	0f b7 c0             	movzwl %ax,%eax
   1a6d7:	8b 55 fc             	mov    -0x4(%rbp),%edx
   1a6da:	48 8d 35 3c 49 00 00 	lea    0x493c(%rip),%rsi        # 1f01d <g_2807+0x196d>
   1a6e1:	48 89 c7             	mov    %rax,%rdi
   1a6e4:	e8 0a 10 ff ff       	callq  b6f3 <transparent_crc>
   1a6e9:	8b 45 f0             	mov    -0x10(%rbp),%eax
   1a6ec:	48 63 d0             	movslq %eax,%rdx
   1a6ef:	48 89 d0             	mov    %rdx,%rax
   1a6f2:	48 c1 e0 03          	shl    $0x3,%rax
   1a6f6:	48 29 d0             	sub    %rdx,%rax
   1a6f9:	48 c1 e0 02          	shl    $0x2,%rax
   1a6fd:	48 89 c2             	mov    %rax,%rdx
   1a700:	48 8d 05 3f 7d 00 00 	lea    0x7d3f(%rip),%rax        # 22446 <g_407+0x6>
   1a707:	0f b7 04 02          	movzwl (%rdx,%rax,1),%eax
   1a70b:	0f b7 c0             	movzwl %ax,%eax
   1a70e:	8b 55 fc             	mov    -0x4(%rbp),%edx
   1a711:	48 8d 35 11 49 00 00 	lea    0x4911(%rip),%rsi        # 1f029 <g_2807+0x1979>
   1a718:	48 89 c7             	mov    %rax,%rdi
   1a71b:	e8 d3 0f ff ff       	callq  b6f3 <transparent_crc>
   1a720:	8b 45 f0             	mov    -0x10(%rbp),%eax
   1a723:	48 63 d0             	movslq %eax,%rdx
   1a726:	48 89 d0             	mov    %rdx,%rax
   1a729:	48 c1 e0 03          	shl    $0x3,%rax
   1a72d:	48 29 d0             	sub    %rdx,%rax
   1a730:	48 c1 e0 02          	shl    $0x2,%rax
   1a734:	48 89 c2             	mov    %rax,%rdx
   1a737:	48 8d 05 0a 7d 00 00 	lea    0x7d0a(%rip),%rax        # 22448 <g_407+0x8>
   1a73e:	8b 04 02             	mov    (%rdx,%rax,1),%eax
   1a741:	48 98                	cltq   
   1a743:	8b 55 fc             	mov    -0x4(%rbp),%edx
   1a746:	48 8d 35 e8 48 00 00 	lea    0x48e8(%rip),%rsi        # 1f035 <g_2807+0x1985>
   1a74d:	48 89 c7             	mov    %rax,%rdi
   1a750:	e8 9e 0f ff ff       	callq  b6f3 <transparent_crc>
   1a755:	8b 45 f0             	mov    -0x10(%rbp),%eax
   1a758:	48 63 d0             	movslq %eax,%rdx
   1a75b:	48 89 d0             	mov    %rdx,%rax
   1a75e:	48 c1 e0 03          	shl    $0x3,%rax
   1a762:	48 29 d0             	sub    %rdx,%rax
   1a765:	48 c1 e0 02          	shl    $0x2,%rax
   1a769:	48 89 c2             	mov    %rax,%rdx
   1a76c:	48 8d 05 d9 7c 00 00 	lea    0x7cd9(%rip),%rax        # 2244c <g_407+0xc>
   1a773:	8b 04 02             	mov    (%rdx,%rax,1),%eax
   1a776:	48 98                	cltq   
   1a778:	8b 55 fc             	mov    -0x4(%rbp),%edx
   1a77b:	48 8d 35 bf 48 00 00 	lea    0x48bf(%rip),%rsi        # 1f041 <g_2807+0x1991>
   1a782:	48 89 c7             	mov    %rax,%rdi
   1a785:	e8 69 0f ff ff       	callq  b6f3 <transparent_crc>
   1a78a:	8b 45 f0             	mov    -0x10(%rbp),%eax
   1a78d:	48 63 d0             	movslq %eax,%rdx
   1a790:	48 89 d0             	mov    %rdx,%rax
   1a793:	48 c1 e0 03          	shl    $0x3,%rax
   1a797:	48 29 d0             	sub    %rdx,%rax
   1a79a:	48 c1 e0 02          	shl    $0x2,%rax
   1a79e:	48 89 c2             	mov    %rax,%rdx
   1a7a1:	48 8d 05 a8 7c 00 00 	lea    0x7ca8(%rip),%rax        # 22450 <g_407+0x10>
   1a7a8:	0f b7 04 02          	movzwl (%rdx,%rax,1),%eax
   1a7ac:	48 0f bf c0          	movswq %ax,%rax
   1a7b0:	8b 55 fc             	mov    -0x4(%rbp),%edx
   1a7b3:	48 8d 35 93 48 00 00 	lea    0x4893(%rip),%rsi        # 1f04d <g_2807+0x199d>
   1a7ba:	48 89 c7             	mov    %rax,%rdi
   1a7bd:	e8 31 0f ff ff       	callq  b6f3 <transparent_crc>
   1a7c2:	8b 45 f0             	mov    -0x10(%rbp),%eax
   1a7c5:	48 63 d0             	movslq %eax,%rdx
   1a7c8:	48 89 d0             	mov    %rdx,%rax
   1a7cb:	48 c1 e0 03          	shl    $0x3,%rax
   1a7cf:	48 29 d0             	sub    %rdx,%rax
   1a7d2:	48 c1 e0 02          	shl    $0x2,%rax
   1a7d6:	48 89 c2             	mov    %rax,%rdx
   1a7d9:	48 8d 05 72 7c 00 00 	lea    0x7c72(%rip),%rax        # 22452 <g_407+0x12>
   1a7e0:	0f b7 04 02          	movzwl (%rdx,%rax,1),%eax
   1a7e4:	48 0f bf c0          	movswq %ax,%rax
   1a7e8:	8b 55 fc             	mov    -0x4(%rbp),%edx
   1a7eb:	48 8d 35 67 48 00 00 	lea    0x4867(%rip),%rsi        # 1f059 <g_2807+0x19a9>
   1a7f2:	48 89 c7             	mov    %rax,%rdi
   1a7f5:	e8 f9 0e ff ff       	callq  b6f3 <transparent_crc>
   1a7fa:	8b 45 f0             	mov    -0x10(%rbp),%eax
   1a7fd:	48 63 d0             	movslq %eax,%rdx
   1a800:	48 89 d0             	mov    %rdx,%rax
   1a803:	48 c1 e0 03          	shl    $0x3,%rax
   1a807:	48 29 d0             	sub    %rdx,%rax
   1a80a:	48 c1 e0 02          	shl    $0x2,%rax
   1a80e:	48 89 c2             	mov    %rax,%rdx
   1a811:	48 8d 05 3c 7c 00 00 	lea    0x7c3c(%rip),%rax        # 22454 <g_407+0x14>
   1a818:	0f b7 04 02          	movzwl (%rdx,%rax,1),%eax
   1a81c:	0f b7 c0             	movzwl %ax,%eax
   1a81f:	8b 55 fc             	mov    -0x4(%rbp),%edx
   1a822:	48 8d 35 3c 48 00 00 	lea    0x483c(%rip),%rsi        # 1f065 <g_2807+0x19b5>
   1a829:	48 89 c7             	mov    %rax,%rdi
   1a82c:	e8 c2 0e ff ff       	callq  b6f3 <transparent_crc>
   1a831:	8b 45 f0             	mov    -0x10(%rbp),%eax
   1a834:	48 63 d0             	movslq %eax,%rdx
   1a837:	48 89 d0             	mov    %rdx,%rax
   1a83a:	48 c1 e0 03          	shl    $0x3,%rax
   1a83e:	48 29 d0             	sub    %rdx,%rax
   1a841:	48 c1 e0 02          	shl    $0x2,%rax
   1a845:	48 89 c2             	mov    %rax,%rdx
   1a848:	48 8d 05 07 7c 00 00 	lea    0x7c07(%rip),%rax        # 22456 <g_407+0x16>
   1a84f:	0f b6 04 02          	movzbl (%rdx,%rax,1),%eax
   1a853:	48 0f be c0          	movsbq %al,%rax
   1a857:	8b 55 fc             	mov    -0x4(%rbp),%edx
   1a85a:	48 8d 35 10 48 00 00 	lea    0x4810(%rip),%rsi        # 1f071 <g_2807+0x19c1>
   1a861:	48 89 c7             	mov    %rax,%rdi
   1a864:	e8 8a 0e ff ff       	callq  b6f3 <transparent_crc>
   1a869:	8b 45 f0             	mov    -0x10(%rbp),%eax
   1a86c:	48 63 d0             	movslq %eax,%rdx
   1a86f:	48 89 d0             	mov    %rdx,%rax
   1a872:	48 c1 e0 03          	shl    $0x3,%rax
   1a876:	48 29 d0             	sub    %rdx,%rax
   1a879:	48 c1 e0 02          	shl    $0x2,%rax
   1a87d:	48 89 c2             	mov    %rax,%rdx
   1a880:	48 8d 05 d1 7b 00 00 	lea    0x7bd1(%rip),%rax        # 22458 <g_407+0x18>
   1a887:	8b 04 02             	mov    (%rdx,%rax,1),%eax
   1a88a:	89 c1                	mov    %eax,%ecx
   1a88c:	8b 45 fc             	mov    -0x4(%rbp),%eax
   1a88f:	89 c2                	mov    %eax,%edx
   1a891:	48 8d 35 e5 47 00 00 	lea    0x47e5(%rip),%rsi        # 1f07d <g_2807+0x19cd>
   1a898:	48 89 cf             	mov    %rcx,%rdi
   1a89b:	e8 53 0e ff ff       	callq  b6f3 <transparent_crc>
   1a8a0:	83 7d fc 00          	cmpl   $0x0,-0x4(%rbp)
   1a8a4:	74 16                	je     1a8bc <main+0xe6c>
   1a8a6:	8b 45 f0             	mov    -0x10(%rbp),%eax
   1a8a9:	89 c6                	mov    %eax,%esi
   1a8ab:	48 8d 3d 0a 46 00 00 	lea    0x460a(%rip),%rdi        # 1eebc <g_2807+0x180c>
   1a8b2:	b8 00 00 00 00       	mov    $0x0,%eax
   1a8b7:	e8 c4 f7 fe ff       	callq  a080 <printf@plt>
   1a8bc:	83 45 f0 01          	addl   $0x1,-0x10(%rbp)
   1a8c0:	83 7d f0 07          	cmpl   $0x7,-0x10(%rbp)
   1a8c4:	0f 8e b3 fd ff ff    	jle    1a67d <main+0xc2d>
   1a8ca:	8b 05 50 7c 00 00    	mov    0x7c50(%rip),%eax        # 22520 <g_410>
   1a8d0:	89 c1                	mov    %eax,%ecx
   1a8d2:	8b 45 fc             	mov    -0x4(%rbp),%eax
   1a8d5:	89 c2                	mov    %eax,%edx
   1a8d7:	48 8d 35 ab 47 00 00 	lea    0x47ab(%rip),%rsi        # 1f089 <g_2807+0x19d9>
   1a8de:	48 89 cf             	mov    %rcx,%rdi
   1a8e1:	e8 0d 0e ff ff       	callq  b6f3 <transparent_crc>
   1a8e6:	c7 45 f0 00 00 00 00 	movl   $0x0,-0x10(%rbp)
   1a8ed:	eb 4b                	jmp    1a93a <main+0xeea>
   1a8ef:	8b 45 f0             	mov    -0x10(%rbp),%eax
   1a8f2:	48 98                	cltq   
   1a8f4:	48 8d 14 85 00 00 00 	lea    0x0(,%rax,4),%rdx
   1a8fb:	00 
   1a8fc:	48 8d 05 3d 7c 00 00 	lea    0x7c3d(%rip),%rax        # 22540 <g_426>
   1a903:	8b 04 02             	mov    (%rdx,%rax,1),%eax
   1a906:	48 98                	cltq   
   1a908:	8b 55 fc             	mov    -0x4(%rbp),%edx
   1a90b:	48 8d 35 7d 47 00 00 	lea    0x477d(%rip),%rsi        # 1f08f <g_2807+0x19df>
   1a912:	48 89 c7             	mov    %rax,%rdi
   1a915:	e8 d9 0d ff ff       	callq  b6f3 <transparent_crc>
   1a91a:	83 7d fc 00          	cmpl   $0x0,-0x4(%rbp)
   1a91e:	74 16                	je     1a936 <main+0xee6>
   1a920:	8b 45 f0             	mov    -0x10(%rbp),%eax
   1a923:	89 c6                	mov    %eax,%esi
   1a925:	48 8d 3d 90 45 00 00 	lea    0x4590(%rip),%rdi        # 1eebc <g_2807+0x180c>
   1a92c:	b8 00 00 00 00       	mov    $0x0,%eax
   1a931:	e8 4a f7 fe ff       	callq  a080 <printf@plt>
   1a936:	83 45 f0 01          	addl   $0x1,-0x10(%rbp)
   1a93a:	83 7d f0 08          	cmpl   $0x8,-0x10(%rbp)
   1a93e:	7e af                	jle    1a8ef <main+0xe9f>
   1a940:	8b 05 2a 7c 00 00    	mov    0x7c2a(%rip),%eax        # 22570 <g_428>
   1a946:	48 98                	cltq   
   1a948:	8b 55 fc             	mov    -0x4(%rbp),%edx
   1a94b:	48 8d 35 46 47 00 00 	lea    0x4746(%rip),%rsi        # 1f098 <g_2807+0x19e8>
   1a952:	48 89 c7             	mov    %rax,%rdi
   1a955:	e8 99 0d ff ff       	callq  b6f3 <transparent_crc>
   1a95a:	0f b7 05 13 7c 00 00 	movzwl 0x7c13(%rip),%eax        # 22574 <g_428+0x4>
   1a961:	0f b7 c0             	movzwl %ax,%eax
   1a964:	8b 55 fc             	mov    -0x4(%rbp),%edx
   1a967:	48 8d 35 33 47 00 00 	lea    0x4733(%rip),%rsi        # 1f0a1 <g_2807+0x19f1>
   1a96e:	48 89 c7             	mov    %rax,%rdi
   1a971:	e8 7d 0d ff ff       	callq  b6f3 <transparent_crc>
   1a976:	0f b7 05 f9 7b 00 00 	movzwl 0x7bf9(%rip),%eax        # 22576 <g_428+0x6>
   1a97d:	0f b7 c0             	movzwl %ax,%eax
   1a980:	8b 55 fc             	mov    -0x4(%rbp),%edx
   1a983:	48 8d 35 20 47 00 00 	lea    0x4720(%rip),%rsi        # 1f0aa <g_2807+0x19fa>
   1a98a:	48 89 c7             	mov    %rax,%rdi
   1a98d:	e8 61 0d ff ff       	callq  b6f3 <transparent_crc>
   1a992:	8b 05 e0 7b 00 00    	mov    0x7be0(%rip),%eax        # 22578 <g_428+0x8>
   1a998:	48 98                	cltq   
   1a99a:	8b 55 fc             	mov    -0x4(%rbp),%edx
   1a99d:	48 8d 35 0f 47 00 00 	lea    0x470f(%rip),%rsi        # 1f0b3 <g_2807+0x1a03>
   1a9a4:	48 89 c7             	mov    %rax,%rdi
   1a9a7:	e8 47 0d ff ff       	callq  b6f3 <transparent_crc>
   1a9ac:	8b 05 ca 7b 00 00    	mov    0x7bca(%rip),%eax        # 2257c <g_428+0xc>
   1a9b2:	48 98                	cltq   
   1a9b4:	8b 55 fc             	mov    -0x4(%rbp),%edx
   1a9b7:	48 8d 35 fe 46 00 00 	lea    0x46fe(%rip),%rsi        # 1f0bc <g_2807+0x1a0c>
   1a9be:	48 89 c7             	mov    %rax,%rdi
   1a9c1:	e8 2d 0d ff ff       	callq  b6f3 <transparent_crc>
   1a9c6:	0f b7 05 b3 7b 00 00 	movzwl 0x7bb3(%rip),%eax        # 22580 <g_428+0x10>
   1a9cd:	48 0f bf c0          	movswq %ax,%rax
   1a9d1:	8b 55 fc             	mov    -0x4(%rbp),%edx
   1a9d4:	48 8d 35 ea 46 00 00 	lea    0x46ea(%rip),%rsi        # 1f0c5 <g_2807+0x1a15>
   1a9db:	48 89 c7             	mov    %rax,%rdi
   1a9de:	e8 10 0d ff ff       	callq  b6f3 <transparent_crc>
   1a9e3:	0f b7 05 98 7b 00 00 	movzwl 0x7b98(%rip),%eax        # 22582 <g_428+0x12>
   1a9ea:	48 0f bf c0          	movswq %ax,%rax
   1a9ee:	8b 55 fc             	mov    -0x4(%rbp),%edx
   1a9f1:	48 8d 35 d6 46 00 00 	lea    0x46d6(%rip),%rsi        # 1f0ce <g_2807+0x1a1e>
   1a9f8:	48 89 c7             	mov    %rax,%rdi
   1a9fb:	e8 f3 0c ff ff       	callq  b6f3 <transparent_crc>
   1aa00:	0f b7 05 7d 7b 00 00 	movzwl 0x7b7d(%rip),%eax        # 22584 <g_428+0x14>
   1aa07:	0f b7 c0             	movzwl %ax,%eax
   1aa0a:	8b 55 fc             	mov    -0x4(%rbp),%edx
   1aa0d:	48 8d 35 c3 46 00 00 	lea    0x46c3(%rip),%rsi        # 1f0d7 <g_2807+0x1a27>
   1aa14:	48 89 c7             	mov    %rax,%rdi
   1aa17:	e8 d7 0c ff ff       	callq  b6f3 <transparent_crc>
   1aa1c:	0f b6 05 63 7b 00 00 	movzbl 0x7b63(%rip),%eax        # 22586 <g_428+0x16>
   1aa23:	48 0f be c0          	movsbq %al,%rax
   1aa27:	8b 55 fc             	mov    -0x4(%rbp),%edx
   1aa2a:	48 8d 35 af 46 00 00 	lea    0x46af(%rip),%rsi        # 1f0e0 <g_2807+0x1a30>
   1aa31:	48 89 c7             	mov    %rax,%rdi
   1aa34:	e8 ba 0c ff ff       	callq  b6f3 <transparent_crc>
   1aa39:	8b 05 49 7b 00 00    	mov    0x7b49(%rip),%eax        # 22588 <g_428+0x18>
   1aa3f:	89 c1                	mov    %eax,%ecx
   1aa41:	8b 45 fc             	mov    -0x4(%rbp),%eax
   1aa44:	89 c2                	mov    %eax,%edx
   1aa46:	48 8d 35 9c 46 00 00 	lea    0x469c(%rip),%rsi        # 1f0e9 <g_2807+0x1a39>
   1aa4d:	48 89 cf             	mov    %rcx,%rdi
   1aa50:	e8 9e 0c ff ff       	callq  b6f3 <transparent_crc>
   1aa55:	8b 05 31 7b 00 00    	mov    0x7b31(%rip),%eax        # 2258c <g_567>
   1aa5b:	89 c1                	mov    %eax,%ecx
   1aa5d:	8b 45 fc             	mov    -0x4(%rbp),%eax
   1aa60:	89 c2                	mov    %eax,%edx
   1aa62:	48 8d 35 89 46 00 00 	lea    0x4689(%rip),%rsi        # 1f0f2 <g_2807+0x1a42>
   1aa69:	48 89 cf             	mov    %rcx,%rdi
   1aa6c:	e8 82 0c ff ff       	callq  b6f3 <transparent_crc>
   1aa71:	c7 45 f0 00 00 00 00 	movl   $0x0,-0x10(%rbp)
   1aa78:	eb 66                	jmp    1aae0 <main+0x1090>
   1aa7a:	c7 45 f4 00 00 00 00 	movl   $0x0,-0xc(%rbp)
   1aa81:	eb 53                	jmp    1aad6 <main+0x1086>
   1aa83:	8b 45 f4             	mov    -0xc(%rbp),%eax
   1aa86:	48 63 d0             	movslq %eax,%rdx
   1aa89:	8b 45 f0             	mov    -0x10(%rbp),%eax
   1aa8c:	48 98                	cltq   
   1aa8e:	48 01 c2             	add    %rax,%rdx
   1aa91:	48 8d 05 f8 7a 00 00 	lea    0x7af8(%rip),%rax        # 22590 <g_596>
   1aa98:	48 01 d0             	add    %rdx,%rax
   1aa9b:	0f b6 00             	movzbl (%rax),%eax
   1aa9e:	0f b6 c0             	movzbl %al,%eax
   1aaa1:	8b 55 fc             	mov    -0x4(%rbp),%edx
   1aaa4:	48 8d 35 4d 46 00 00 	lea    0x464d(%rip),%rsi        # 1f0f8 <g_2807+0x1a48>
   1aaab:	48 89 c7             	mov    %rax,%rdi
   1aaae:	e8 40 0c ff ff       	callq  b6f3 <transparent_crc>
   1aab3:	83 7d fc 00          	cmpl   $0x0,-0x4(%rbp)
   1aab7:	74 19                	je     1aad2 <main+0x1082>
   1aab9:	8b 55 f4             	mov    -0xc(%rbp),%edx
   1aabc:	8b 45 f0             	mov    -0x10(%rbp),%eax
   1aabf:	89 c6                	mov    %eax,%esi
   1aac1:	48 8d 3d e5 42 00 00 	lea    0x42e5(%rip),%rdi        # 1edad <g_2807+0x16fd>
   1aac8:	b8 00 00 00 00       	mov    $0x0,%eax
   1aacd:	e8 ae f5 fe ff       	callq  a080 <printf@plt>
   1aad2:	83 45 f4 01          	addl   $0x1,-0xc(%rbp)
   1aad6:	83 7d f4 00          	cmpl   $0x0,-0xc(%rbp)
   1aada:	7e a7                	jle    1aa83 <main+0x1033>
   1aadc:	83 45 f0 01          	addl   $0x1,-0x10(%rbp)
   1aae0:	83 7d f0 06          	cmpl   $0x6,-0x10(%rbp)
   1aae4:	7e 94                	jle    1aa7a <main+0x102a>
   1aae6:	8b 05 ac 7a 00 00    	mov    0x7aac(%rip),%eax        # 22598 <g_660>
   1aaec:	89 c1                	mov    %eax,%ecx
   1aaee:	8b 45 fc             	mov    -0x4(%rbp),%eax
   1aaf1:	89 c2                	mov    %eax,%edx
   1aaf3:	48 8d 35 0a 46 00 00 	lea    0x460a(%rip),%rsi        # 1f104 <g_2807+0x1a54>
   1aafa:	48 89 cf             	mov    %rcx,%rdi
   1aafd:	e8 f1 0b ff ff       	callq  b6f3 <transparent_crc>
   1ab02:	0f b7 05 93 7a 00 00 	movzwl 0x7a93(%rip),%eax        # 2259c <g_712>
   1ab09:	48 0f bf c0          	movswq %ax,%rax
   1ab0d:	8b 55 fc             	mov    -0x4(%rbp),%edx
   1ab10:	48 8d 35 f3 45 00 00 	lea    0x45f3(%rip),%rsi        # 1f10a <g_2807+0x1a5a>
   1ab17:	48 89 c7             	mov    %rax,%rdi
   1ab1a:	e8 d4 0b ff ff       	callq  b6f3 <transparent_crc>
   1ab1f:	8b 05 7b 7a 00 00    	mov    0x7a7b(%rip),%eax        # 225a0 <g_843>
   1ab25:	48 98                	cltq   
   1ab27:	8b 55 fc             	mov    -0x4(%rbp),%edx
   1ab2a:	48 8d 35 df 45 00 00 	lea    0x45df(%rip),%rsi        # 1f110 <g_2807+0x1a60>
   1ab31:	48 89 c7             	mov    %rax,%rdi
   1ab34:	e8 ba 0b ff ff       	callq  b6f3 <transparent_crc>
   1ab39:	0f b7 05 64 7a 00 00 	movzwl 0x7a64(%rip),%eax        # 225a4 <g_843+0x4>
   1ab40:	0f b7 c0             	movzwl %ax,%eax
   1ab43:	8b 55 fc             	mov    -0x4(%rbp),%edx
   1ab46:	48 8d 35 cc 45 00 00 	lea    0x45cc(%rip),%rsi        # 1f119 <g_2807+0x1a69>
   1ab4d:	48 89 c7             	mov    %rax,%rdi
   1ab50:	e8 9e 0b ff ff       	callq  b6f3 <transparent_crc>
   1ab55:	0f b7 05 4a 7a 00 00 	movzwl 0x7a4a(%rip),%eax        # 225a6 <g_843+0x6>
   1ab5c:	0f b7 c0             	movzwl %ax,%eax
   1ab5f:	8b 55 fc             	mov    -0x4(%rbp),%edx
   1ab62:	48 8d 35 b9 45 00 00 	lea    0x45b9(%rip),%rsi        # 1f122 <g_2807+0x1a72>
   1ab69:	48 89 c7             	mov    %rax,%rdi
   1ab6c:	e8 82 0b ff ff       	callq  b6f3 <transparent_crc>
   1ab71:	8b 05 31 7a 00 00    	mov    0x7a31(%rip),%eax        # 225a8 <g_843+0x8>
   1ab77:	48 98                	cltq   
   1ab79:	8b 55 fc             	mov    -0x4(%rbp),%edx
   1ab7c:	48 8d 35 a8 45 00 00 	lea    0x45a8(%rip),%rsi        # 1f12b <g_2807+0x1a7b>
   1ab83:	48 89 c7             	mov    %rax,%rdi
   1ab86:	e8 68 0b ff ff       	callq  b6f3 <transparent_crc>
   1ab8b:	8b 05 1b 7a 00 00    	mov    0x7a1b(%rip),%eax        # 225ac <g_843+0xc>
   1ab91:	48 98                	cltq   
   1ab93:	8b 55 fc             	mov    -0x4(%rbp),%edx
   1ab96:	48 8d 35 97 45 00 00 	lea    0x4597(%rip),%rsi        # 1f134 <g_2807+0x1a84>
   1ab9d:	48 89 c7             	mov    %rax,%rdi
   1aba0:	e8 4e 0b ff ff       	callq  b6f3 <transparent_crc>
   1aba5:	0f b7 05 04 7a 00 00 	movzwl 0x7a04(%rip),%eax        # 225b0 <g_843+0x10>
   1abac:	48 0f bf c0          	movswq %ax,%rax
   1abb0:	8b 55 fc             	mov    -0x4(%rbp),%edx
   1abb3:	48 8d 35 83 45 00 00 	lea    0x4583(%rip),%rsi        # 1f13d <g_2807+0x1a8d>
   1abba:	48 89 c7             	mov    %rax,%rdi
   1abbd:	e8 31 0b ff ff       	callq  b6f3 <transparent_crc>
   1abc2:	0f b7 05 e9 79 00 00 	movzwl 0x79e9(%rip),%eax        # 225b2 <g_843+0x12>
   1abc9:	48 0f bf c0          	movswq %ax,%rax
   1abcd:	8b 55 fc             	mov    -0x4(%rbp),%edx
   1abd0:	48 8d 35 6f 45 00 00 	lea    0x456f(%rip),%rsi        # 1f146 <g_2807+0x1a96>
   1abd7:	48 89 c7             	mov    %rax,%rdi
   1abda:	e8 14 0b ff ff       	callq  b6f3 <transparent_crc>
   1abdf:	0f b7 05 ce 79 00 00 	movzwl 0x79ce(%rip),%eax        # 225b4 <g_843+0x14>
   1abe6:	0f b7 c0             	movzwl %ax,%eax
   1abe9:	8b 55 fc             	mov    -0x4(%rbp),%edx
   1abec:	48 8d 35 5c 45 00 00 	lea    0x455c(%rip),%rsi        # 1f14f <g_2807+0x1a9f>
   1abf3:	48 89 c7             	mov    %rax,%rdi
   1abf6:	e8 f8 0a ff ff       	callq  b6f3 <transparent_crc>
   1abfb:	0f b6 05 b4 79 00 00 	movzbl 0x79b4(%rip),%eax        # 225b6 <g_843+0x16>
   1ac02:	48 0f be c0          	movsbq %al,%rax
   1ac06:	8b 55 fc             	mov    -0x4(%rbp),%edx
   1ac09:	48 8d 35 48 45 00 00 	lea    0x4548(%rip),%rsi        # 1f158 <g_2807+0x1aa8>
   1ac10:	48 89 c7             	mov    %rax,%rdi
   1ac13:	e8 db 0a ff ff       	callq  b6f3 <transparent_crc>
   1ac18:	8b 05 9a 79 00 00    	mov    0x799a(%rip),%eax        # 225b8 <g_843+0x18>
   1ac1e:	89 c1                	mov    %eax,%ecx
   1ac20:	8b 45 fc             	mov    -0x4(%rbp),%eax
   1ac23:	89 c2                	mov    %eax,%edx
   1ac25:	48 8d 35 35 45 00 00 	lea    0x4535(%rip),%rsi        # 1f161 <g_2807+0x1ab1>
   1ac2c:	48 89 cf             	mov    %rcx,%rdi
   1ac2f:	e8 bf 0a ff ff       	callq  b6f3 <transparent_crc>
   1ac34:	8b 05 82 79 00 00    	mov    0x7982(%rip),%eax        # 225bc <g_852>
   1ac3a:	48 98                	cltq   
   1ac3c:	8b 55 fc             	mov    -0x4(%rbp),%edx
   1ac3f:	48 8d 35 24 45 00 00 	lea    0x4524(%rip),%rsi        # 1f16a <g_2807+0x1aba>
   1ac46:	48 89 c7             	mov    %rax,%rdi
   1ac49:	e8 a5 0a ff ff       	callq  b6f3 <transparent_crc>
   1ac4e:	0f b6 05 6b 79 00 00 	movzbl 0x796b(%rip),%eax        # 225c0 <g_1015>
   1ac55:	48 0f be c0          	movsbq %al,%rax
   1ac59:	8b 55 fc             	mov    -0x4(%rbp),%edx
   1ac5c:	48 8d 35 0d 45 00 00 	lea    0x450d(%rip),%rsi        # 1f170 <g_2807+0x1ac0>
   1ac63:	48 89 c7             	mov    %rax,%rdi
   1ac66:	e8 88 0a ff ff       	callq  b6f3 <transparent_crc>
   1ac6b:	8b 05 5f 79 00 00    	mov    0x795f(%rip),%eax        # 225d0 <g_1055>
   1ac71:	48 98                	cltq   
   1ac73:	8b 55 fc             	mov    -0x4(%rbp),%edx
   1ac76:	48 8d 35 fa 44 00 00 	lea    0x44fa(%rip),%rsi        # 1f177 <g_2807+0x1ac7>
   1ac7d:	48 89 c7             	mov    %rax,%rdi
   1ac80:	e8 6e 0a ff ff       	callq  b6f3 <transparent_crc>
   1ac85:	0f b7 05 48 79 00 00 	movzwl 0x7948(%rip),%eax        # 225d4 <g_1055+0x4>
   1ac8c:	0f b7 c0             	movzwl %ax,%eax
   1ac8f:	8b 55 fc             	mov    -0x4(%rbp),%edx
   1ac92:	48 8d 35 e8 44 00 00 	lea    0x44e8(%rip),%rsi        # 1f181 <g_2807+0x1ad1>
   1ac99:	48 89 c7             	mov    %rax,%rdi
   1ac9c:	e8 52 0a ff ff       	callq  b6f3 <transparent_crc>
   1aca1:	0f b7 05 2e 79 00 00 	movzwl 0x792e(%rip),%eax        # 225d6 <g_1055+0x6>
   1aca8:	0f b7 c0             	movzwl %ax,%eax
   1acab:	8b 55 fc             	mov    -0x4(%rbp),%edx
   1acae:	48 8d 35 d6 44 00 00 	lea    0x44d6(%rip),%rsi        # 1f18b <g_2807+0x1adb>
   1acb5:	48 89 c7             	mov    %rax,%rdi
   1acb8:	e8 36 0a ff ff       	callq  b6f3 <transparent_crc>
   1acbd:	8b 05 15 79 00 00    	mov    0x7915(%rip),%eax        # 225d8 <g_1055+0x8>
   1acc3:	48 98                	cltq   
   1acc5:	8b 55 fc             	mov    -0x4(%rbp),%edx
   1acc8:	48 8d 35 c6 44 00 00 	lea    0x44c6(%rip),%rsi        # 1f195 <g_2807+0x1ae5>
   1accf:	48 89 c7             	mov    %rax,%rdi
   1acd2:	e8 1c 0a ff ff       	callq  b6f3 <transparent_crc>
   1acd7:	8b 05 ff 78 00 00    	mov    0x78ff(%rip),%eax        # 225dc <g_1055+0xc>
   1acdd:	48 98                	cltq   
   1acdf:	8b 55 fc             	mov    -0x4(%rbp),%edx
   1ace2:	48 8d 35 b6 44 00 00 	lea    0x44b6(%rip),%rsi        # 1f19f <g_2807+0x1aef>
   1ace9:	48 89 c7             	mov    %rax,%rdi
   1acec:	e8 02 0a ff ff       	callq  b6f3 <transparent_crc>
   1acf1:	0f b7 05 e8 78 00 00 	movzwl 0x78e8(%rip),%eax        # 225e0 <g_1055+0x10>
   1acf8:	48 0f bf c0          	movswq %ax,%rax
   1acfc:	8b 55 fc             	mov    -0x4(%rbp),%edx
   1acff:	48 8d 35 a3 44 00 00 	lea    0x44a3(%rip),%rsi        # 1f1a9 <g_2807+0x1af9>
   1ad06:	48 89 c7             	mov    %rax,%rdi
   1ad09:	e8 e5 09 ff ff       	callq  b6f3 <transparent_crc>
   1ad0e:	0f b7 05 cd 78 00 00 	movzwl 0x78cd(%rip),%eax        # 225e2 <g_1055+0x12>
   1ad15:	48 0f bf c0          	movswq %ax,%rax
   1ad19:	8b 55 fc             	mov    -0x4(%rbp),%edx
   1ad1c:	48 8d 35 90 44 00 00 	lea    0x4490(%rip),%rsi        # 1f1b3 <g_2807+0x1b03>
   1ad23:	48 89 c7             	mov    %rax,%rdi
   1ad26:	e8 c8 09 ff ff       	callq  b6f3 <transparent_crc>
   1ad2b:	0f b7 05 b2 78 00 00 	movzwl 0x78b2(%rip),%eax        # 225e4 <g_1055+0x14>
   1ad32:	0f b7 c0             	movzwl %ax,%eax
   1ad35:	8b 55 fc             	mov    -0x4(%rbp),%edx
   1ad38:	48 8d 35 7e 44 00 00 	lea    0x447e(%rip),%rsi        # 1f1bd <g_2807+0x1b0d>
   1ad3f:	48 89 c7             	mov    %rax,%rdi
   1ad42:	e8 ac 09 ff ff       	callq  b6f3 <transparent_crc>
   1ad47:	0f b6 05 98 78 00 00 	movzbl 0x7898(%rip),%eax        # 225e6 <g_1055+0x16>
   1ad4e:	48 0f be c0          	movsbq %al,%rax
   1ad52:	8b 55 fc             	mov    -0x4(%rbp),%edx
   1ad55:	48 8d 35 6b 44 00 00 	lea    0x446b(%rip),%rsi        # 1f1c7 <g_2807+0x1b17>
   1ad5c:	48 89 c7             	mov    %rax,%rdi
   1ad5f:	e8 8f 09 ff ff       	callq  b6f3 <transparent_crc>
   1ad64:	8b 05 7e 78 00 00    	mov    0x787e(%rip),%eax        # 225e8 <g_1055+0x18>
   1ad6a:	89 c1                	mov    %eax,%ecx
   1ad6c:	8b 45 fc             	mov    -0x4(%rbp),%eax
   1ad6f:	89 c2                	mov    %eax,%edx
   1ad71:	48 8d 35 59 44 00 00 	lea    0x4459(%rip),%rsi        # 1f1d1 <g_2807+0x1b21>
   1ad78:	48 89 cf             	mov    %rcx,%rdi
   1ad7b:	e8 73 09 ff ff       	callq  b6f3 <transparent_crc>
   1ad80:	48 8b 05 11 be 00 00 	mov    0xbe11(%rip),%rax        # 26b98 <g_1112>
   1ad87:	8b 55 fc             	mov    -0x4(%rbp),%edx
   1ad8a:	48 8d 35 4a 44 00 00 	lea    0x444a(%rip),%rsi        # 1f1db <g_2807+0x1b2b>
   1ad91:	48 89 c7             	mov    %rax,%rdi
   1ad94:	e8 5a 09 ff ff       	callq  b6f3 <transparent_crc>
   1ad99:	8b 05 01 be 00 00    	mov    0xbe01(%rip),%eax        # 26ba0 <g_1129>
   1ad9f:	48 98                	cltq   
   1ada1:	8b 55 fc             	mov    -0x4(%rbp),%edx
   1ada4:	48 8d 35 37 44 00 00 	lea    0x4437(%rip),%rsi        # 1f1e2 <g_2807+0x1b32>
   1adab:	48 89 c7             	mov    %rax,%rdi
   1adae:	e8 40 09 ff ff       	callq  b6f3 <transparent_crc>
   1adb3:	c7 45 f0 00 00 00 00 	movl   $0x0,-0x10(%rbp)
   1adba:	eb 4d                	jmp    1ae09 <main+0x13b9>
   1adbc:	8b 45 f0             	mov    -0x10(%rbp),%eax
   1adbf:	48 98                	cltq   
   1adc1:	48 8d 14 85 00 00 00 	lea    0x0(,%rax,4),%rdx
   1adc8:	00 
   1adc9:	48 8d 05 90 22 00 00 	lea    0x2290(%rip),%rax        # 1d060 <g_1146>
   1add0:	8b 04 02             	mov    (%rdx,%rax,1),%eax
   1add3:	89 c1                	mov    %eax,%ecx
   1add5:	8b 45 fc             	mov    -0x4(%rbp),%eax
   1add8:	89 c2                	mov    %eax,%edx
   1adda:	48 8d 35 08 44 00 00 	lea    0x4408(%rip),%rsi        # 1f1e9 <g_2807+0x1b39>
   1ade1:	48 89 cf             	mov    %rcx,%rdi
   1ade4:	e8 0a 09 ff ff       	callq  b6f3 <transparent_crc>
   1ade9:	83 7d fc 00          	cmpl   $0x0,-0x4(%rbp)
   1aded:	74 16                	je     1ae05 <main+0x13b5>
   1adef:	8b 45 f0             	mov    -0x10(%rbp),%eax
   1adf2:	89 c6                	mov    %eax,%esi
   1adf4:	48 8d 3d c1 40 00 00 	lea    0x40c1(%rip),%rdi        # 1eebc <g_2807+0x180c>
   1adfb:	b8 00 00 00 00       	mov    $0x0,%eax
   1ae00:	e8 7b f2 fe ff       	callq  a080 <printf@plt>
   1ae05:	83 45 f0 01          	addl   $0x1,-0x10(%rbp)
   1ae09:	83 7d f0 04          	cmpl   $0x4,-0x10(%rbp)
   1ae0d:	7e ad                	jle    1adbc <main+0x136c>
   1ae0f:	48 8b 05 da 77 00 00 	mov    0x77da(%rip),%rax        # 225f0 <g_1166>
   1ae16:	48 89 c1             	mov    %rax,%rcx
   1ae19:	8b 45 fc             	mov    -0x4(%rbp),%eax
   1ae1c:	89 c2                	mov    %eax,%edx
   1ae1e:	48 8d 35 ce 43 00 00 	lea    0x43ce(%rip),%rsi        # 1f1f3 <g_2807+0x1b43>
   1ae25:	48 89 cf             	mov    %rcx,%rdi
   1ae28:	e8 c6 08 ff ff       	callq  b6f3 <transparent_crc>
   1ae2d:	b8 d7 0f 00 00       	mov    $0xfd7,%eax
   1ae32:	0f b7 c0             	movzwl %ax,%eax
   1ae35:	8b 55 fc             	mov    -0x4(%rbp),%edx
   1ae38:	48 8d 35 be 43 00 00 	lea    0x43be(%rip),%rsi        # 1f1fd <g_2807+0x1b4d>
   1ae3f:	48 89 c7             	mov    %rax,%rdi
   1ae42:	e8 ac 08 ff ff       	callq  b6f3 <transparent_crc>
   1ae47:	48 8b 05 aa 77 00 00 	mov    0x77aa(%rip),%rax        # 225f8 <g_1268>
   1ae4e:	8b 55 fc             	mov    -0x4(%rbp),%edx
   1ae51:	48 8d 35 ac 43 00 00 	lea    0x43ac(%rip),%rsi        # 1f204 <g_2807+0x1b54>
   1ae58:	48 89 c7             	mov    %rax,%rdi
   1ae5b:	e8 93 08 ff ff       	callq  b6f3 <transparent_crc>
   1ae60:	0f b7 05 99 77 00 00 	movzwl 0x7799(%rip),%eax        # 22600 <g_1283>
   1ae67:	0f b7 c0             	movzwl %ax,%eax
   1ae6a:	8b 55 fc             	mov    -0x4(%rbp),%edx
   1ae6d:	48 8d 35 97 43 00 00 	lea    0x4397(%rip),%rsi        # 1f20b <g_2807+0x1b5b>
   1ae74:	48 89 c7             	mov    %rax,%rdi
   1ae77:	e8 77 08 ff ff       	callq  b6f3 <transparent_crc>
   1ae7c:	c7 45 f0 00 00 00 00 	movl   $0x0,-0x10(%rbp)
   1ae83:	e9 be 03 00 00       	jmpq   1b246 <main+0x17f6>
   1ae88:	c7 45 f4 00 00 00 00 	movl   $0x0,-0xc(%rbp)
   1ae8f:	e9 a4 03 00 00       	jmpq   1b238 <main+0x17e8>
   1ae94:	8b 45 f4             	mov    -0xc(%rbp),%eax
   1ae97:	48 98                	cltq   
   1ae99:	8b 55 f0             	mov    -0x10(%rbp),%edx
   1ae9c:	48 63 ca             	movslq %edx,%rcx
   1ae9f:	48 89 c2             	mov    %rax,%rdx
   1aea2:	48 c1 e2 03          	shl    $0x3,%rdx
   1aea6:	48 29 c2             	sub    %rax,%rdx
   1aea9:	48 8d 04 95 00 00 00 	lea    0x0(,%rdx,4),%rax
   1aeb0:	00 
   1aeb1:	48 89 c2             	mov    %rax,%rdx
   1aeb4:	48 89 c8             	mov    %rcx,%rax
   1aeb7:	48 c1 e0 02          	shl    $0x2,%rax
   1aebb:	48 01 c8             	add    %rcx,%rax
   1aebe:	48 c1 e0 02          	shl    $0x2,%rax
   1aec2:	48 01 c8             	add    %rcx,%rax
   1aec5:	48 c1 e0 03          	shl    $0x3,%rax
   1aec9:	48 01 c2             	add    %rax,%rdx
   1aecc:	48 8d 05 ad 21 00 00 	lea    0x21ad(%rip),%rax        # 1d080 <g_1318>
   1aed3:	48 01 d0             	add    %rdx,%rax
   1aed6:	8b 00                	mov    (%rax),%eax
   1aed8:	48 98                	cltq   
   1aeda:	8b 55 fc             	mov    -0x4(%rbp),%edx
   1aedd:	48 8d 35 2e 43 00 00 	lea    0x432e(%rip),%rsi        # 1f212 <g_2807+0x1b62>
   1aee4:	48 89 c7             	mov    %rax,%rdi
   1aee7:	e8 07 08 ff ff       	callq  b6f3 <transparent_crc>
   1aeec:	8b 45 f4             	mov    -0xc(%rbp),%eax
   1aeef:	48 98                	cltq   
   1aef1:	8b 55 f0             	mov    -0x10(%rbp),%edx
   1aef4:	48 63 ca             	movslq %edx,%rcx
   1aef7:	48 89 c2             	mov    %rax,%rdx
   1aefa:	48 c1 e2 03          	shl    $0x3,%rdx
   1aefe:	48 29 c2             	sub    %rax,%rdx
   1af01:	48 8d 04 95 00 00 00 	lea    0x0(,%rdx,4),%rax
   1af08:	00 
   1af09:	48 89 c2             	mov    %rax,%rdx
   1af0c:	48 89 c8             	mov    %rcx,%rax
   1af0f:	48 c1 e0 02          	shl    $0x2,%rax
   1af13:	48 01 c8             	add    %rcx,%rax
   1af16:	48 c1 e0 02          	shl    $0x2,%rax
   1af1a:	48 01 c8             	add    %rcx,%rax
   1af1d:	48 c1 e0 03          	shl    $0x3,%rax
   1af21:	48 01 c2             	add    %rax,%rdx
   1af24:	48 8d 05 59 21 00 00 	lea    0x2159(%rip),%rax        # 1d084 <g_1318+0x4>
   1af2b:	48 01 d0             	add    %rdx,%rax
   1af2e:	0f b7 00             	movzwl (%rax),%eax
   1af31:	0f b7 c0             	movzwl %ax,%eax
   1af34:	8b 55 fc             	mov    -0x4(%rbp),%edx
   1af37:	48 8d 35 e4 42 00 00 	lea    0x42e4(%rip),%rsi        # 1f222 <g_2807+0x1b72>
   1af3e:	48 89 c7             	mov    %rax,%rdi
   1af41:	e8 ad 07 ff ff       	callq  b6f3 <transparent_crc>
   1af46:	8b 45 f4             	mov    -0xc(%rbp),%eax
   1af49:	48 98                	cltq   
   1af4b:	8b 55 f0             	mov    -0x10(%rbp),%edx
   1af4e:	48 63 ca             	movslq %edx,%rcx
   1af51:	48 89 c2             	mov    %rax,%rdx
   1af54:	48 c1 e2 03          	shl    $0x3,%rdx
   1af58:	48 29 c2             	sub    %rax,%rdx
   1af5b:	48 8d 04 95 00 00 00 	lea    0x0(,%rdx,4),%rax
   1af62:	00 
   1af63:	48 89 c2             	mov    %rax,%rdx
   1af66:	48 89 c8             	mov    %rcx,%rax
   1af69:	48 c1 e0 02          	shl    $0x2,%rax
   1af6d:	48 01 c8             	add    %rcx,%rax
   1af70:	48 c1 e0 02          	shl    $0x2,%rax
   1af74:	48 01 c8             	add    %rcx,%rax
   1af77:	48 c1 e0 03          	shl    $0x3,%rax
   1af7b:	48 01 c2             	add    %rax,%rdx
   1af7e:	48 8d 05 01 21 00 00 	lea    0x2101(%rip),%rax        # 1d086 <g_1318+0x6>
   1af85:	48 01 d0             	add    %rdx,%rax
   1af88:	0f b7 00             	movzwl (%rax),%eax
   1af8b:	0f b7 c0             	movzwl %ax,%eax
   1af8e:	8b 55 fc             	mov    -0x4(%rbp),%edx
   1af91:	48 8d 35 9a 42 00 00 	lea    0x429a(%rip),%rsi        # 1f232 <g_2807+0x1b82>
   1af98:	48 89 c7             	mov    %rax,%rdi
   1af9b:	e8 53 07 ff ff       	callq  b6f3 <transparent_crc>
   1afa0:	8b 45 f4             	mov    -0xc(%rbp),%eax
   1afa3:	48 98                	cltq   
   1afa5:	8b 55 f0             	mov    -0x10(%rbp),%edx
   1afa8:	48 63 ca             	movslq %edx,%rcx
   1afab:	48 89 c2             	mov    %rax,%rdx
   1afae:	48 c1 e2 03          	shl    $0x3,%rdx
   1afb2:	48 29 c2             	sub    %rax,%rdx
   1afb5:	48 8d 04 95 00 00 00 	lea    0x0(,%rdx,4),%rax
   1afbc:	00 
   1afbd:	48 89 c2             	mov    %rax,%rdx
   1afc0:	48 89 c8             	mov    %rcx,%rax
   1afc3:	48 c1 e0 02          	shl    $0x2,%rax
   1afc7:	48 01 c8             	add    %rcx,%rax
   1afca:	48 c1 e0 02          	shl    $0x2,%rax
   1afce:	48 01 c8             	add    %rcx,%rax
   1afd1:	48 c1 e0 03          	shl    $0x3,%rax
   1afd5:	48 01 c2             	add    %rax,%rdx
   1afd8:	48 8d 05 a9 20 00 00 	lea    0x20a9(%rip),%rax        # 1d088 <g_1318+0x8>
   1afdf:	48 01 d0             	add    %rdx,%rax
   1afe2:	8b 00                	mov    (%rax),%eax
   1afe4:	48 98                	cltq   
   1afe6:	8b 55 fc             	mov    -0x4(%rbp),%edx
   1afe9:	48 8d 35 52 42 00 00 	lea    0x4252(%rip),%rsi        # 1f242 <g_2807+0x1b92>
   1aff0:	48 89 c7             	mov    %rax,%rdi
   1aff3:	e8 fb 06 ff ff       	callq  b6f3 <transparent_crc>
   1aff8:	8b 45 f4             	mov    -0xc(%rbp),%eax
   1affb:	48 98                	cltq   
   1affd:	8b 55 f0             	mov    -0x10(%rbp),%edx
   1b000:	48 63 ca             	movslq %edx,%rcx
   1b003:	48 89 c2             	mov    %rax,%rdx
   1b006:	48 c1 e2 03          	shl    $0x3,%rdx
   1b00a:	48 29 c2             	sub    %rax,%rdx
   1b00d:	48 8d 04 95 00 00 00 	lea    0x0(,%rdx,4),%rax
   1b014:	00 
   1b015:	48 89 c2             	mov    %rax,%rdx
   1b018:	48 89 c8             	mov    %rcx,%rax
   1b01b:	48 c1 e0 02          	shl    $0x2,%rax
   1b01f:	48 01 c8             	add    %rcx,%rax
   1b022:	48 c1 e0 02          	shl    $0x2,%rax
   1b026:	48 01 c8             	add    %rcx,%rax
   1b029:	48 c1 e0 03          	shl    $0x3,%rax
   1b02d:	48 01 c2             	add    %rax,%rdx
   1b030:	48 8d 05 55 20 00 00 	lea    0x2055(%rip),%rax        # 1d08c <g_1318+0xc>
   1b037:	48 01 d0             	add    %rdx,%rax
   1b03a:	8b 00                	mov    (%rax),%eax
   1b03c:	48 98                	cltq   
   1b03e:	8b 55 fc             	mov    -0x4(%rbp),%edx
   1b041:	48 8d 35 0a 42 00 00 	lea    0x420a(%rip),%rsi        # 1f252 <g_2807+0x1ba2>
   1b048:	48 89 c7             	mov    %rax,%rdi
   1b04b:	e8 a3 06 ff ff       	callq  b6f3 <transparent_crc>
   1b050:	8b 45 f4             	mov    -0xc(%rbp),%eax
   1b053:	48 98                	cltq   
   1b055:	8b 55 f0             	mov    -0x10(%rbp),%edx
   1b058:	48 63 ca             	movslq %edx,%rcx
   1b05b:	48 89 c2             	mov    %rax,%rdx
   1b05e:	48 c1 e2 03          	shl    $0x3,%rdx
   1b062:	48 29 c2             	sub    %rax,%rdx
   1b065:	48 8d 04 95 00 00 00 	lea    0x0(,%rdx,4),%rax
   1b06c:	00 
   1b06d:	48 89 c2             	mov    %rax,%rdx
   1b070:	48 89 c8             	mov    %rcx,%rax
   1b073:	48 c1 e0 02          	shl    $0x2,%rax
   1b077:	48 01 c8             	add    %rcx,%rax
   1b07a:	48 c1 e0 02          	shl    $0x2,%rax
   1b07e:	48 01 c8             	add    %rcx,%rax
   1b081:	48 c1 e0 03          	shl    $0x3,%rax
   1b085:	48 01 c2             	add    %rax,%rdx
   1b088:	48 8d 05 01 20 00 00 	lea    0x2001(%rip),%rax        # 1d090 <g_1318+0x10>
   1b08f:	48 01 d0             	add    %rdx,%rax
   1b092:	0f b7 00             	movzwl (%rax),%eax
   1b095:	48 0f bf c0          	movswq %ax,%rax
   1b099:	8b 55 fc             	mov    -0x4(%rbp),%edx
   1b09c:	48 8d 35 bf 41 00 00 	lea    0x41bf(%rip),%rsi        # 1f262 <g_2807+0x1bb2>
   1b0a3:	48 89 c7             	mov    %rax,%rdi
   1b0a6:	e8 48 06 ff ff       	callq  b6f3 <transparent_crc>
   1b0ab:	8b 45 f4             	mov    -0xc(%rbp),%eax
   1b0ae:	48 98                	cltq   
   1b0b0:	8b 55 f0             	mov    -0x10(%rbp),%edx
   1b0b3:	48 63 ca             	movslq %edx,%rcx
   1b0b6:	48 89 c2             	mov    %rax,%rdx
   1b0b9:	48 c1 e2 03          	shl    $0x3,%rdx
   1b0bd:	48 29 c2             	sub    %rax,%rdx
   1b0c0:	48 8d 04 95 00 00 00 	lea    0x0(,%rdx,4),%rax
   1b0c7:	00 
   1b0c8:	48 89 c2             	mov    %rax,%rdx
   1b0cb:	48 89 c8             	mov    %rcx,%rax
   1b0ce:	48 c1 e0 02          	shl    $0x2,%rax
   1b0d2:	48 01 c8             	add    %rcx,%rax
   1b0d5:	48 c1 e0 02          	shl    $0x2,%rax
   1b0d9:	48 01 c8             	add    %rcx,%rax
   1b0dc:	48 c1 e0 03          	shl    $0x3,%rax
   1b0e0:	48 01 c2             	add    %rax,%rdx
   1b0e3:	48 8d 05 a8 1f 00 00 	lea    0x1fa8(%rip),%rax        # 1d092 <g_1318+0x12>
   1b0ea:	48 01 d0             	add    %rdx,%rax
   1b0ed:	0f b7 00             	movzwl (%rax),%eax
   1b0f0:	48 0f bf c0          	movswq %ax,%rax
   1b0f4:	8b 55 fc             	mov    -0x4(%rbp),%edx
   1b0f7:	48 8d 35 74 41 00 00 	lea    0x4174(%rip),%rsi        # 1f272 <g_2807+0x1bc2>
   1b0fe:	48 89 c7             	mov    %rax,%rdi
   1b101:	e8 ed 05 ff ff       	callq  b6f3 <transparent_crc>
   1b106:	8b 45 f4             	mov    -0xc(%rbp),%eax
   1b109:	48 98                	cltq   
   1b10b:	8b 55 f0             	mov    -0x10(%rbp),%edx
   1b10e:	48 63 ca             	movslq %edx,%rcx
   1b111:	48 89 c2             	mov    %rax,%rdx
   1b114:	48 c1 e2 03          	shl    $0x3,%rdx
   1b118:	48 29 c2             	sub    %rax,%rdx
   1b11b:	48 8d 04 95 00 00 00 	lea    0x0(,%rdx,4),%rax
   1b122:	00 
   1b123:	48 89 c2             	mov    %rax,%rdx
   1b126:	48 89 c8             	mov    %rcx,%rax
   1b129:	48 c1 e0 02          	shl    $0x2,%rax
   1b12d:	48 01 c8             	add    %rcx,%rax
   1b130:	48 c1 e0 02          	shl    $0x2,%rax
   1b134:	48 01 c8             	add    %rcx,%rax
   1b137:	48 c1 e0 03          	shl    $0x3,%rax
   1b13b:	48 01 c2             	add    %rax,%rdx
   1b13e:	48 8d 05 4f 1f 00 00 	lea    0x1f4f(%rip),%rax        # 1d094 <g_1318+0x14>
   1b145:	48 01 d0             	add    %rdx,%rax
   1b148:	0f b7 00             	movzwl (%rax),%eax
   1b14b:	0f b7 c0             	movzwl %ax,%eax
   1b14e:	8b 55 fc             	mov    -0x4(%rbp),%edx
   1b151:	48 8d 35 2a 41 00 00 	lea    0x412a(%rip),%rsi        # 1f282 <g_2807+0x1bd2>
   1b158:	48 89 c7             	mov    %rax,%rdi
   1b15b:	e8 93 05 ff ff       	callq  b6f3 <transparent_crc>
   1b160:	8b 45 f4             	mov    -0xc(%rbp),%eax
   1b163:	48 98                	cltq   
   1b165:	8b 55 f0             	mov    -0x10(%rbp),%edx
   1b168:	48 63 ca             	movslq %edx,%rcx
   1b16b:	48 89 c2             	mov    %rax,%rdx
   1b16e:	48 c1 e2 03          	shl    $0x3,%rdx
   1b172:	48 29 c2             	sub    %rax,%rdx
   1b175:	48 8d 04 95 00 00 00 	lea    0x0(,%rdx,4),%rax
   1b17c:	00 
   1b17d:	48 89 c2             	mov    %rax,%rdx
   1b180:	48 89 c8             	mov    %rcx,%rax
   1b183:	48 c1 e0 02          	shl    $0x2,%rax
   1b187:	48 01 c8             	add    %rcx,%rax
   1b18a:	48 c1 e0 02          	shl    $0x2,%rax
   1b18e:	48 01 c8             	add    %rcx,%rax
   1b191:	48 c1 e0 03          	shl    $0x3,%rax
   1b195:	48 01 c2             	add    %rax,%rdx
   1b198:	48 8d 05 f7 1e 00 00 	lea    0x1ef7(%rip),%rax        # 1d096 <g_1318+0x16>
   1b19f:	48 01 d0             	add    %rdx,%rax
   1b1a2:	0f b6 00             	movzbl (%rax),%eax
   1b1a5:	48 0f be c0          	movsbq %al,%rax
   1b1a9:	8b 55 fc             	mov    -0x4(%rbp),%edx
   1b1ac:	48 8d 35 df 40 00 00 	lea    0x40df(%rip),%rsi        # 1f292 <g_2807+0x1be2>
   1b1b3:	48 89 c7             	mov    %rax,%rdi
   1b1b6:	e8 38 05 ff ff       	callq  b6f3 <transparent_crc>
   1b1bb:	8b 45 f4             	mov    -0xc(%rbp),%eax
   1b1be:	48 98                	cltq   
   1b1c0:	8b 55 f0             	mov    -0x10(%rbp),%edx
   1b1c3:	48 63 ca             	movslq %edx,%rcx
   1b1c6:	48 89 c2             	mov    %rax,%rdx
   1b1c9:	48 c1 e2 03          	shl    $0x3,%rdx
   1b1cd:	48 29 c2             	sub    %rax,%rdx
   1b1d0:	48 8d 04 95 00 00 00 	lea    0x0(,%rdx,4),%rax
   1b1d7:	00 
   1b1d8:	48 89 c2             	mov    %rax,%rdx
   1b1db:	48 89 c8             	mov    %rcx,%rax
   1b1de:	48 c1 e0 02          	shl    $0x2,%rax
   1b1e2:	48 01 c8             	add    %rcx,%rax
   1b1e5:	48 c1 e0 02          	shl    $0x2,%rax
   1b1e9:	48 01 c8             	add    %rcx,%rax
   1b1ec:	48 c1 e0 03          	shl    $0x3,%rax
   1b1f0:	48 01 c2             	add    %rax,%rdx
   1b1f3:	48 8d 05 9e 1e 00 00 	lea    0x1e9e(%rip),%rax        # 1d098 <g_1318+0x18>
   1b1fa:	48 01 d0             	add    %rdx,%rax
   1b1fd:	8b 00                	mov    (%rax),%eax
   1b1ff:	89 c1                	mov    %eax,%ecx
   1b201:	8b 45 fc             	mov    -0x4(%rbp),%eax
   1b204:	89 c2                	mov    %eax,%edx
   1b206:	48 8d 35 95 40 00 00 	lea    0x4095(%rip),%rsi        # 1f2a2 <g_2807+0x1bf2>
   1b20d:	48 89 cf             	mov    %rcx,%rdi
   1b210:	e8 de 04 ff ff       	callq  b6f3 <transparent_crc>
   1b215:	83 7d fc 00          	cmpl   $0x0,-0x4(%rbp)
   1b219:	74 19                	je     1b234 <main+0x17e4>
   1b21b:	8b 55 f4             	mov    -0xc(%rbp),%edx
   1b21e:	8b 45 f0             	mov    -0x10(%rbp),%eax
   1b221:	89 c6                	mov    %eax,%esi
   1b223:	48 8d 3d 83 3b 00 00 	lea    0x3b83(%rip),%rdi        # 1edad <g_2807+0x16fd>
   1b22a:	b8 00 00 00 00       	mov    $0x0,%eax
   1b22f:	e8 4c ee fe ff       	callq  a080 <printf@plt>
   1b234:	83 45 f4 01          	addl   $0x1,-0xc(%rbp)
   1b238:	83 7d f4 05          	cmpl   $0x5,-0xc(%rbp)
   1b23c:	0f 8e 52 fc ff ff    	jle    1ae94 <main+0x1444>
   1b242:	83 45 f0 01          	addl   $0x1,-0x10(%rbp)
   1b246:	83 7d f0 08          	cmpl   $0x8,-0x10(%rbp)
   1b24a:	0f 8e 38 fc ff ff    	jle    1ae88 <main+0x1438>
   1b250:	8b 05 ba 73 00 00    	mov    0x73ba(%rip),%eax        # 22610 <g_1325>
   1b256:	48 98                	cltq   
   1b258:	8b 55 fc             	mov    -0x4(%rbp),%edx
   1b25b:	48 8d 35 50 40 00 00 	lea    0x4050(%rip),%rsi        # 1f2b2 <g_2807+0x1c02>
   1b262:	48 89 c7             	mov    %rax,%rdi
   1b265:	e8 89 04 ff ff       	callq  b6f3 <transparent_crc>
   1b26a:	0f b7 05 a3 73 00 00 	movzwl 0x73a3(%rip),%eax        # 22614 <g_1325+0x4>
   1b271:	0f b7 c0             	movzwl %ax,%eax
   1b274:	8b 55 fc             	mov    -0x4(%rbp),%edx
   1b277:	48 8d 35 3e 40 00 00 	lea    0x403e(%rip),%rsi        # 1f2bc <g_2807+0x1c0c>
   1b27e:	48 89 c7             	mov    %rax,%rdi
   1b281:	e8 6d 04 ff ff       	callq  b6f3 <transparent_crc>
   1b286:	0f b7 05 89 73 00 00 	movzwl 0x7389(%rip),%eax        # 22616 <g_1325+0x6>
   1b28d:	0f b7 c0             	movzwl %ax,%eax
   1b290:	8b 55 fc             	mov    -0x4(%rbp),%edx
   1b293:	48 8d 35 2c 40 00 00 	lea    0x402c(%rip),%rsi        # 1f2c6 <g_2807+0x1c16>
   1b29a:	48 89 c7             	mov    %rax,%rdi
   1b29d:	e8 51 04 ff ff       	callq  b6f3 <transparent_crc>
   1b2a2:	8b 05 70 73 00 00    	mov    0x7370(%rip),%eax        # 22618 <g_1325+0x8>
   1b2a8:	48 98                	cltq   
   1b2aa:	8b 55 fc             	mov    -0x4(%rbp),%edx
   1b2ad:	48 8d 35 1c 40 00 00 	lea    0x401c(%rip),%rsi        # 1f2d0 <g_2807+0x1c20>
   1b2b4:	48 89 c7             	mov    %rax,%rdi
   1b2b7:	e8 37 04 ff ff       	callq  b6f3 <transparent_crc>
   1b2bc:	8b 05 5a 73 00 00    	mov    0x735a(%rip),%eax        # 2261c <g_1325+0xc>
   1b2c2:	48 98                	cltq   
   1b2c4:	8b 55 fc             	mov    -0x4(%rbp),%edx
   1b2c7:	48 8d 35 0c 40 00 00 	lea    0x400c(%rip),%rsi        # 1f2da <g_2807+0x1c2a>
   1b2ce:	48 89 c7             	mov    %rax,%rdi
   1b2d1:	e8 1d 04 ff ff       	callq  b6f3 <transparent_crc>
   1b2d6:	0f b7 05 43 73 00 00 	movzwl 0x7343(%rip),%eax        # 22620 <g_1325+0x10>
   1b2dd:	48 0f bf c0          	movswq %ax,%rax
   1b2e1:	8b 55 fc             	mov    -0x4(%rbp),%edx
   1b2e4:	48 8d 35 f9 3f 00 00 	lea    0x3ff9(%rip),%rsi        # 1f2e4 <g_2807+0x1c34>
   1b2eb:	48 89 c7             	mov    %rax,%rdi
   1b2ee:	e8 00 04 ff ff       	callq  b6f3 <transparent_crc>
   1b2f3:	0f b7 05 28 73 00 00 	movzwl 0x7328(%rip),%eax        # 22622 <g_1325+0x12>
   1b2fa:	48 0f bf c0          	movswq %ax,%rax
   1b2fe:	8b 55 fc             	mov    -0x4(%rbp),%edx
   1b301:	48 8d 35 e6 3f 00 00 	lea    0x3fe6(%rip),%rsi        # 1f2ee <g_2807+0x1c3e>
   1b308:	48 89 c7             	mov    %rax,%rdi
   1b30b:	e8 e3 03 ff ff       	callq  b6f3 <transparent_crc>
   1b310:	0f b7 05 0d 73 00 00 	movzwl 0x730d(%rip),%eax        # 22624 <g_1325+0x14>
   1b317:	0f b7 c0             	movzwl %ax,%eax
   1b31a:	8b 55 fc             	mov    -0x4(%rbp),%edx
   1b31d:	48 8d 35 d4 3f 00 00 	lea    0x3fd4(%rip),%rsi        # 1f2f8 <g_2807+0x1c48>
   1b324:	48 89 c7             	mov    %rax,%rdi
   1b327:	e8 c7 03 ff ff       	callq  b6f3 <transparent_crc>
   1b32c:	0f b6 05 f3 72 00 00 	movzbl 0x72f3(%rip),%eax        # 22626 <g_1325+0x16>
   1b333:	48 0f be c0          	movsbq %al,%rax
   1b337:	8b 55 fc             	mov    -0x4(%rbp),%edx
   1b33a:	48 8d 35 c1 3f 00 00 	lea    0x3fc1(%rip),%rsi        # 1f302 <g_2807+0x1c52>
   1b341:	48 89 c7             	mov    %rax,%rdi
   1b344:	e8 aa 03 ff ff       	callq  b6f3 <transparent_crc>
   1b349:	8b 05 d9 72 00 00    	mov    0x72d9(%rip),%eax        # 22628 <g_1325+0x18>
   1b34f:	89 c1                	mov    %eax,%ecx
   1b351:	8b 45 fc             	mov    -0x4(%rbp),%eax
   1b354:	89 c2                	mov    %eax,%edx
   1b356:	48 8d 35 af 3f 00 00 	lea    0x3faf(%rip),%rsi        # 1f30c <g_2807+0x1c5c>
   1b35d:	48 89 cf             	mov    %rcx,%rdi
   1b360:	e8 8e 03 ff ff       	callq  b6f3 <transparent_crc>
   1b365:	8b 05 c5 72 00 00    	mov    0x72c5(%rip),%eax        # 22630 <g_1365>
   1b36b:	48 98                	cltq   
   1b36d:	8b 55 fc             	mov    -0x4(%rbp),%edx
   1b370:	48 8d 35 9f 3f 00 00 	lea    0x3f9f(%rip),%rsi        # 1f316 <g_2807+0x1c66>
   1b377:	48 89 c7             	mov    %rax,%rdi
   1b37a:	e8 74 03 ff ff       	callq  b6f3 <transparent_crc>
   1b37f:	0f b7 05 ae 72 00 00 	movzwl 0x72ae(%rip),%eax        # 22634 <g_1365+0x4>
   1b386:	0f b7 c0             	movzwl %ax,%eax
   1b389:	8b 55 fc             	mov    -0x4(%rbp),%edx
   1b38c:	48 8d 35 8d 3f 00 00 	lea    0x3f8d(%rip),%rsi        # 1f320 <g_2807+0x1c70>
   1b393:	48 89 c7             	mov    %rax,%rdi
   1b396:	e8 58 03 ff ff       	callq  b6f3 <transparent_crc>
   1b39b:	0f b7 05 94 72 00 00 	movzwl 0x7294(%rip),%eax        # 22636 <g_1365+0x6>
   1b3a2:	0f b7 c0             	movzwl %ax,%eax
   1b3a5:	8b 55 fc             	mov    -0x4(%rbp),%edx
   1b3a8:	48 8d 35 7b 3f 00 00 	lea    0x3f7b(%rip),%rsi        # 1f32a <g_2807+0x1c7a>
   1b3af:	48 89 c7             	mov    %rax,%rdi
   1b3b2:	e8 3c 03 ff ff       	callq  b6f3 <transparent_crc>
   1b3b7:	8b 05 7b 72 00 00    	mov    0x727b(%rip),%eax        # 22638 <g_1365+0x8>
   1b3bd:	48 98                	cltq   
   1b3bf:	8b 55 fc             	mov    -0x4(%rbp),%edx
   1b3c2:	48 8d 35 6b 3f 00 00 	lea    0x3f6b(%rip),%rsi        # 1f334 <g_2807+0x1c84>
   1b3c9:	48 89 c7             	mov    %rax,%rdi
   1b3cc:	e8 22 03 ff ff       	callq  b6f3 <transparent_crc>
   1b3d1:	8b 05 65 72 00 00    	mov    0x7265(%rip),%eax        # 2263c <g_1365+0xc>
   1b3d7:	48 98                	cltq   
   1b3d9:	8b 55 fc             	mov    -0x4(%rbp),%edx
   1b3dc:	48 8d 35 5b 3f 00 00 	lea    0x3f5b(%rip),%rsi        # 1f33e <g_2807+0x1c8e>
   1b3e3:	48 89 c7             	mov    %rax,%rdi
   1b3e6:	e8 08 03 ff ff       	callq  b6f3 <transparent_crc>
   1b3eb:	0f b7 05 4e 72 00 00 	movzwl 0x724e(%rip),%eax        # 22640 <g_1365+0x10>
   1b3f2:	48 0f bf c0          	movswq %ax,%rax
   1b3f6:	8b 55 fc             	mov    -0x4(%rbp),%edx
   1b3f9:	48 8d 35 48 3f 00 00 	lea    0x3f48(%rip),%rsi        # 1f348 <g_2807+0x1c98>
   1b400:	48 89 c7             	mov    %rax,%rdi
   1b403:	e8 eb 02 ff ff       	callq  b6f3 <transparent_crc>
   1b408:	0f b7 05 33 72 00 00 	movzwl 0x7233(%rip),%eax        # 22642 <g_1365+0x12>
   1b40f:	48 0f bf c0          	movswq %ax,%rax
   1b413:	8b 55 fc             	mov    -0x4(%rbp),%edx
   1b416:	48 8d 35 35 3f 00 00 	lea    0x3f35(%rip),%rsi        # 1f352 <g_2807+0x1ca2>
   1b41d:	48 89 c7             	mov    %rax,%rdi
   1b420:	e8 ce 02 ff ff       	callq  b6f3 <transparent_crc>
   1b425:	0f b7 05 18 72 00 00 	movzwl 0x7218(%rip),%eax        # 22644 <g_1365+0x14>
   1b42c:	0f b7 c0             	movzwl %ax,%eax
   1b42f:	8b 55 fc             	mov    -0x4(%rbp),%edx
   1b432:	48 8d 35 23 3f 00 00 	lea    0x3f23(%rip),%rsi        # 1f35c <g_2807+0x1cac>
   1b439:	48 89 c7             	mov    %rax,%rdi
   1b43c:	e8 b2 02 ff ff       	callq  b6f3 <transparent_crc>
   1b441:	0f b6 05 fe 71 00 00 	movzbl 0x71fe(%rip),%eax        # 22646 <g_1365+0x16>
   1b448:	48 0f be c0          	movsbq %al,%rax
   1b44c:	8b 55 fc             	mov    -0x4(%rbp),%edx
   1b44f:	48 8d 35 10 3f 00 00 	lea    0x3f10(%rip),%rsi        # 1f366 <g_2807+0x1cb6>
   1b456:	48 89 c7             	mov    %rax,%rdi
   1b459:	e8 95 02 ff ff       	callq  b6f3 <transparent_crc>
   1b45e:	8b 05 e4 71 00 00    	mov    0x71e4(%rip),%eax        # 22648 <g_1365+0x18>
   1b464:	89 c1                	mov    %eax,%ecx
   1b466:	8b 45 fc             	mov    -0x4(%rbp),%eax
   1b469:	89 c2                	mov    %eax,%edx
   1b46b:	48 8d 35 fe 3e 00 00 	lea    0x3efe(%rip),%rsi        # 1f370 <g_2807+0x1cc0>
   1b472:	48 89 cf             	mov    %rcx,%rdi
   1b475:	e8 79 02 ff ff       	callq  b6f3 <transparent_crc>
   1b47a:	b8 00 00 00 00       	mov    $0x0,%eax
   1b47f:	48 98                	cltq   
   1b481:	8b 55 fc             	mov    -0x4(%rbp),%edx
   1b484:	48 8d 35 ef 3e 00 00 	lea    0x3eef(%rip),%rsi        # 1f37a <g_2807+0x1cca>
   1b48b:	48 89 c7             	mov    %rax,%rdi
   1b48e:	e8 60 02 ff ff       	callq  b6f3 <transparent_crc>
   1b493:	b8 e7 7c 00 00       	mov    $0x7ce7,%eax
   1b498:	0f b7 c0             	movzwl %ax,%eax
   1b49b:	8b 55 fc             	mov    -0x4(%rbp),%edx
   1b49e:	48 8d 35 df 3e 00 00 	lea    0x3edf(%rip),%rsi        # 1f384 <g_2807+0x1cd4>
   1b4a5:	48 89 c7             	mov    %rax,%rdi
   1b4a8:	e8 46 02 ff ff       	callq  b6f3 <transparent_crc>
   1b4ad:	b8 44 9c ff ff       	mov    $0xffff9c44,%eax
   1b4b2:	0f b7 c0             	movzwl %ax,%eax
   1b4b5:	8b 55 fc             	mov    -0x4(%rbp),%edx
   1b4b8:	48 8d 35 cf 3e 00 00 	lea    0x3ecf(%rip),%rsi        # 1f38e <g_2807+0x1cde>
   1b4bf:	48 89 c7             	mov    %rax,%rdi
   1b4c2:	e8 2c 02 ff ff       	callq  b6f3 <transparent_crc>
   1b4c7:	b8 06 59 9d 39       	mov    $0x399d5906,%eax
   1b4cc:	48 98                	cltq   
   1b4ce:	8b 55 fc             	mov    -0x4(%rbp),%edx
   1b4d1:	48 8d 35 c0 3e 00 00 	lea    0x3ec0(%rip),%rsi        # 1f398 <g_2807+0x1ce8>
   1b4d8:	48 89 c7             	mov    %rax,%rdi
   1b4db:	e8 13 02 ff ff       	callq  b6f3 <transparent_crc>
   1b4e0:	b8 00 00 00 00       	mov    $0x0,%eax
   1b4e5:	48 98                	cltq   
   1b4e7:	8b 55 fc             	mov    -0x4(%rbp),%edx
   1b4ea:	48 8d 35 b1 3e 00 00 	lea    0x3eb1(%rip),%rsi        # 1f3a2 <g_2807+0x1cf2>
   1b4f1:	48 89 c7             	mov    %rax,%rdi
   1b4f4:	e8 fa 01 ff ff       	callq  b6f3 <transparent_crc>
   1b4f9:	0f b7 05 80 21 00 00 	movzwl 0x2180(%rip),%eax        # 1d680 <g_1383+0x10>
   1b500:	48 0f bf c0          	movswq %ax,%rax
   1b504:	8b 55 fc             	mov    -0x4(%rbp),%edx
   1b507:	48 8d 35 9e 3e 00 00 	lea    0x3e9e(%rip),%rsi        # 1f3ac <g_2807+0x1cfc>
   1b50e:	48 89 c7             	mov    %rax,%rdi
   1b511:	e8 dd 01 ff ff       	callq  b6f3 <transparent_crc>
   1b516:	b8 fb ff ff ff       	mov    $0xfffffffb,%eax
   1b51b:	48 0f bf c0          	movswq %ax,%rax
   1b51f:	8b 55 fc             	mov    -0x4(%rbp),%edx
   1b522:	48 8d 35 8d 3e 00 00 	lea    0x3e8d(%rip),%rsi        # 1f3b6 <g_2807+0x1d06>
   1b529:	48 89 c7             	mov    %rax,%rdi
   1b52c:	e8 c2 01 ff ff       	callq  b6f3 <transparent_crc>
   1b531:	b8 90 de ff ff       	mov    $0xffffde90,%eax
   1b536:	0f b7 c0             	movzwl %ax,%eax
   1b539:	8b 55 fc             	mov    -0x4(%rbp),%edx
   1b53c:	48 8d 35 7d 3e 00 00 	lea    0x3e7d(%rip),%rsi        # 1f3c0 <g_2807+0x1d10>
   1b543:	48 89 c7             	mov    %rax,%rdi
   1b546:	e8 a8 01 ff ff       	callq  b6f3 <transparent_crc>
   1b54b:	0f b6 05 34 21 00 00 	movzbl 0x2134(%rip),%eax        # 1d686 <g_1383+0x16>
   1b552:	48 0f be c0          	movsbq %al,%rax
   1b556:	8b 55 fc             	mov    -0x4(%rbp),%edx
   1b559:	48 8d 35 6a 3e 00 00 	lea    0x3e6a(%rip),%rsi        # 1f3ca <g_2807+0x1d1a>
   1b560:	48 89 c7             	mov    %rax,%rdi
   1b563:	e8 8b 01 ff ff       	callq  b6f3 <transparent_crc>
   1b568:	b8 2b d0 7f 05       	mov    $0x57fd02b,%eax
   1b56d:	89 c1                	mov    %eax,%ecx
   1b56f:	8b 45 fc             	mov    -0x4(%rbp),%eax
   1b572:	89 c2                	mov    %eax,%edx
   1b574:	48 8d 35 59 3e 00 00 	lea    0x3e59(%rip),%rsi        # 1f3d4 <g_2807+0x1d24>
   1b57b:	48 89 cf             	mov    %rcx,%rdi
   1b57e:	e8 70 01 ff ff       	callq  b6f3 <transparent_crc>
   1b583:	48 8b 05 c6 70 00 00 	mov    0x70c6(%rip),%rax        # 22650 <g_1690>
   1b58a:	48 89 c1             	mov    %rax,%rcx
   1b58d:	8b 45 fc             	mov    -0x4(%rbp),%eax
   1b590:	89 c2                	mov    %eax,%edx
   1b592:	48 8d 35 45 3e 00 00 	lea    0x3e45(%rip),%rsi        # 1f3de <g_2807+0x1d2e>
   1b599:	48 89 cf             	mov    %rcx,%rdi
   1b59c:	e8 52 01 ff ff       	callq  b6f3 <transparent_crc>
   1b5a1:	c7 45 f0 00 00 00 00 	movl   $0x0,-0x10(%rbp)
   1b5a8:	e9 43 02 00 00       	jmpq   1b7f0 <main+0x1da0>
   1b5ad:	8b 45 f0             	mov    -0x10(%rbp),%eax
   1b5b0:	48 63 d0             	movslq %eax,%rdx
   1b5b3:	48 89 d0             	mov    %rdx,%rax
   1b5b6:	48 c1 e0 03          	shl    $0x3,%rax
   1b5ba:	48 29 d0             	sub    %rdx,%rax
   1b5bd:	48 c1 e0 02          	shl    $0x2,%rax
   1b5c1:	48 89 c2             	mov    %rax,%rdx
   1b5c4:	48 8d 05 95 70 00 00 	lea    0x7095(%rip),%rax        # 22660 <g_1757>
   1b5cb:	8b 04 02             	mov    (%rdx,%rax,1),%eax
   1b5ce:	48 98                	cltq   
   1b5d0:	8b 55 fc             	mov    -0x4(%rbp),%edx
   1b5d3:	48 8d 35 0b 3e 00 00 	lea    0x3e0b(%rip),%rsi        # 1f3e5 <g_2807+0x1d35>
   1b5da:	48 89 c7             	mov    %rax,%rdi
   1b5dd:	e8 11 01 ff ff       	callq  b6f3 <transparent_crc>
   1b5e2:	8b 45 f0             	mov    -0x10(%rbp),%eax
   1b5e5:	48 63 d0             	movslq %eax,%rdx
   1b5e8:	48 89 d0             	mov    %rdx,%rax
   1b5eb:	48 c1 e0 03          	shl    $0x3,%rax
   1b5ef:	48 29 d0             	sub    %rdx,%rax
   1b5f2:	48 c1 e0 02          	shl    $0x2,%rax
   1b5f6:	48 89 c2             	mov    %rax,%rdx
   1b5f9:	48 8d 05 64 70 00 00 	lea    0x7064(%rip),%rax        # 22664 <g_1757+0x4>
   1b600:	0f b7 04 02          	movzwl (%rdx,%rax,1),%eax
   1b604:	0f b7 c0             	movzwl %ax,%eax
   1b607:	8b 55 fc             	mov    -0x4(%rbp),%edx
   1b60a:	48 8d 35 e1 3d 00 00 	lea    0x3de1(%rip),%rsi        # 1f3f2 <g_2807+0x1d42>
   1b611:	48 89 c7             	mov    %rax,%rdi
   1b614:	e8 da 00 ff ff       	callq  b6f3 <transparent_crc>
   1b619:	8b 45 f0             	mov    -0x10(%rbp),%eax
   1b61c:	48 63 d0             	movslq %eax,%rdx
   1b61f:	48 89 d0             	mov    %rdx,%rax
   1b622:	48 c1 e0 03          	shl    $0x3,%rax
   1b626:	48 29 d0             	sub    %rdx,%rax
   1b629:	48 c1 e0 02          	shl    $0x2,%rax
   1b62d:	48 89 c2             	mov    %rax,%rdx
   1b630:	48 8d 05 2f 70 00 00 	lea    0x702f(%rip),%rax        # 22666 <g_1757+0x6>
   1b637:	0f b7 04 02          	movzwl (%rdx,%rax,1),%eax
   1b63b:	0f b7 c0             	movzwl %ax,%eax
   1b63e:	8b 55 fc             	mov    -0x4(%rbp),%edx
   1b641:	48 8d 35 b7 3d 00 00 	lea    0x3db7(%rip),%rsi        # 1f3ff <g_2807+0x1d4f>
   1b648:	48 89 c7             	mov    %rax,%rdi
   1b64b:	e8 a3 00 ff ff       	callq  b6f3 <transparent_crc>
   1b650:	8b 45 f0             	mov    -0x10(%rbp),%eax
   1b653:	48 63 d0             	movslq %eax,%rdx
   1b656:	48 89 d0             	mov    %rdx,%rax
   1b659:	48 c1 e0 03          	shl    $0x3,%rax
   1b65d:	48 29 d0             	sub    %rdx,%rax
   1b660:	48 c1 e0 02          	shl    $0x2,%rax
   1b664:	48 89 c2             	mov    %rax,%rdx
   1b667:	48 8d 05 fa 6f 00 00 	lea    0x6ffa(%rip),%rax        # 22668 <g_1757+0x8>
   1b66e:	8b 04 02             	mov    (%rdx,%rax,1),%eax
   1b671:	48 98                	cltq   
   1b673:	8b 55 fc             	mov    -0x4(%rbp),%edx
   1b676:	48 8d 35 8f 3d 00 00 	lea    0x3d8f(%rip),%rsi        # 1f40c <g_2807+0x1d5c>
   1b67d:	48 89 c7             	mov    %rax,%rdi
   1b680:	e8 6e 00 ff ff       	callq  b6f3 <transparent_crc>
   1b685:	8b 45 f0             	mov    -0x10(%rbp),%eax
   1b688:	48 63 d0             	movslq %eax,%rdx
   1b68b:	48 89 d0             	mov    %rdx,%rax
   1b68e:	48 c1 e0 03          	shl    $0x3,%rax
   1b692:	48 29 d0             	sub    %rdx,%rax
   1b695:	48 c1 e0 02          	shl    $0x2,%rax
   1b699:	48 89 c2             	mov    %rax,%rdx
   1b69c:	48 8d 05 c9 6f 00 00 	lea    0x6fc9(%rip),%rax        # 2266c <g_1757+0xc>
   1b6a3:	8b 04 02             	mov    (%rdx,%rax,1),%eax
   1b6a6:	48 98                	cltq   
   1b6a8:	8b 55 fc             	mov    -0x4(%rbp),%edx
   1b6ab:	48 8d 35 67 3d 00 00 	lea    0x3d67(%rip),%rsi        # 1f419 <g_2807+0x1d69>
   1b6b2:	48 89 c7             	mov    %rax,%rdi
   1b6b5:	e8 39 00 ff ff       	callq  b6f3 <transparent_crc>
   1b6ba:	8b 45 f0             	mov    -0x10(%rbp),%eax
   1b6bd:	48 63 d0             	movslq %eax,%rdx
   1b6c0:	48 89 d0             	mov    %rdx,%rax
   1b6c3:	48 c1 e0 03          	shl    $0x3,%rax
   1b6c7:	48 29 d0             	sub    %rdx,%rax
   1b6ca:	48 c1 e0 02          	shl    $0x2,%rax
   1b6ce:	48 89 c2             	mov    %rax,%rdx
   1b6d1:	48 8d 05 98 6f 00 00 	lea    0x6f98(%rip),%rax        # 22670 <g_1757+0x10>
   1b6d8:	0f b7 04 02          	movzwl (%rdx,%rax,1),%eax
   1b6dc:	48 0f bf c0          	movswq %ax,%rax
   1b6e0:	8b 55 fc             	mov    -0x4(%rbp),%edx
   1b6e3:	48 8d 35 3c 3d 00 00 	lea    0x3d3c(%rip),%rsi        # 1f426 <g_2807+0x1d76>
   1b6ea:	48 89 c7             	mov    %rax,%rdi
   1b6ed:	e8 01 00 ff ff       	callq  b6f3 <transparent_crc>
   1b6f2:	8b 45 f0             	mov    -0x10(%rbp),%eax
   1b6f5:	48 63 d0             	movslq %eax,%rdx
   1b6f8:	48 89 d0             	mov    %rdx,%rax
   1b6fb:	48 c1 e0 03          	shl    $0x3,%rax
   1b6ff:	48 29 d0             	sub    %rdx,%rax
   1b702:	48 c1 e0 02          	shl    $0x2,%rax
   1b706:	48 89 c2             	mov    %rax,%rdx
   1b709:	48 8d 05 62 6f 00 00 	lea    0x6f62(%rip),%rax        # 22672 <g_1757+0x12>
   1b710:	0f b7 04 02          	movzwl (%rdx,%rax,1),%eax
   1b714:	48 0f bf c0          	movswq %ax,%rax
   1b718:	8b 55 fc             	mov    -0x4(%rbp),%edx
   1b71b:	48 8d 35 11 3d 00 00 	lea    0x3d11(%rip),%rsi        # 1f433 <g_2807+0x1d83>
   1b722:	48 89 c7             	mov    %rax,%rdi
   1b725:	e8 c9 ff fe ff       	callq  b6f3 <transparent_crc>
   1b72a:	8b 45 f0             	mov    -0x10(%rbp),%eax
   1b72d:	48 63 d0             	movslq %eax,%rdx
   1b730:	48 89 d0             	mov    %rdx,%rax
   1b733:	48 c1 e0 03          	shl    $0x3,%rax
   1b737:	48 29 d0             	sub    %rdx,%rax
   1b73a:	48 c1 e0 02          	shl    $0x2,%rax
   1b73e:	48 89 c2             	mov    %rax,%rdx
   1b741:	48 8d 05 2c 6f 00 00 	lea    0x6f2c(%rip),%rax        # 22674 <g_1757+0x14>
   1b748:	0f b7 04 02          	movzwl (%rdx,%rax,1),%eax
   1b74c:	0f b7 c0             	movzwl %ax,%eax
   1b74f:	8b 55 fc             	mov    -0x4(%rbp),%edx
   1b752:	48 8d 35 e7 3c 00 00 	lea    0x3ce7(%rip),%rsi        # 1f440 <g_2807+0x1d90>
   1b759:	48 89 c7             	mov    %rax,%rdi
   1b75c:	e8 92 ff fe ff       	callq  b6f3 <transparent_crc>
   1b761:	8b 45 f0             	mov    -0x10(%rbp),%eax
   1b764:	48 63 d0             	movslq %eax,%rdx
   1b767:	48 89 d0             	mov    %rdx,%rax
   1b76a:	48 c1 e0 03          	shl    $0x3,%rax
   1b76e:	48 29 d0             	sub    %rdx,%rax
   1b771:	48 c1 e0 02          	shl    $0x2,%rax
   1b775:	48 89 c2             	mov    %rax,%rdx
   1b778:	48 8d 05 f7 6e 00 00 	lea    0x6ef7(%rip),%rax        # 22676 <g_1757+0x16>
   1b77f:	0f b6 04 02          	movzbl (%rdx,%rax,1),%eax
   1b783:	48 0f be c0          	movsbq %al,%rax
   1b787:	8b 55 fc             	mov    -0x4(%rbp),%edx
   1b78a:	48 8d 35 bc 3c 00 00 	lea    0x3cbc(%rip),%rsi        # 1f44d <g_2807+0x1d9d>
   1b791:	48 89 c7             	mov    %rax,%rdi
   1b794:	e8 5a ff fe ff       	callq  b6f3 <transparent_crc>
   1b799:	8b 45 f0             	mov    -0x10(%rbp),%eax
   1b79c:	48 63 d0             	movslq %eax,%rdx
   1b79f:	48 89 d0             	mov    %rdx,%rax
   1b7a2:	48 c1 e0 03          	shl    $0x3,%rax
   1b7a6:	48 29 d0             	sub    %rdx,%rax
   1b7a9:	48 c1 e0 02          	shl    $0x2,%rax
   1b7ad:	48 89 c2             	mov    %rax,%rdx
   1b7b0:	48 8d 05 c1 6e 00 00 	lea    0x6ec1(%rip),%rax        # 22678 <g_1757+0x18>
   1b7b7:	8b 04 02             	mov    (%rdx,%rax,1),%eax
   1b7ba:	89 c1                	mov    %eax,%ecx
   1b7bc:	8b 45 fc             	mov    -0x4(%rbp),%eax
   1b7bf:	89 c2                	mov    %eax,%edx
   1b7c1:	48 8d 35 92 3c 00 00 	lea    0x3c92(%rip),%rsi        # 1f45a <g_2807+0x1daa>
   1b7c8:	48 89 cf             	mov    %rcx,%rdi
   1b7cb:	e8 23 ff fe ff       	callq  b6f3 <transparent_crc>
   1b7d0:	83 7d fc 00          	cmpl   $0x0,-0x4(%rbp)
   1b7d4:	74 16                	je     1b7ec <main+0x1d9c>
   1b7d6:	8b 45 f0             	mov    -0x10(%rbp),%eax
   1b7d9:	89 c6                	mov    %eax,%esi
   1b7db:	48 8d 3d da 36 00 00 	lea    0x36da(%rip),%rdi        # 1eebc <g_2807+0x180c>
   1b7e2:	b8 00 00 00 00       	mov    $0x0,%eax
   1b7e7:	e8 94 e8 fe ff       	callq  a080 <printf@plt>
   1b7ec:	83 45 f0 01          	addl   $0x1,-0x10(%rbp)
   1b7f0:	83 7d f0 08          	cmpl   $0x8,-0x10(%rbp)
   1b7f4:	0f 8e b3 fd ff ff    	jle    1b5ad <main+0x1b5d>
   1b7fa:	0f b6 05 5b 6f 00 00 	movzbl 0x6f5b(%rip),%eax        # 2275c <g_1761>
   1b801:	0f b6 c0             	movzbl %al,%eax
   1b804:	8b 55 fc             	mov    -0x4(%rbp),%edx
   1b807:	48 8d 35 59 3c 00 00 	lea    0x3c59(%rip),%rsi        # 1f467 <g_2807+0x1db7>
   1b80e:	48 89 c7             	mov    %rax,%rdi
   1b811:	e8 dd fe fe ff       	callq  b6f3 <transparent_crc>
   1b816:	0f b6 05 a3 b3 00 00 	movzbl 0xb3a3(%rip),%eax        # 26bc0 <g_1869>
   1b81d:	48 0f be c0          	movsbq %al,%rax
   1b821:	8b 55 fc             	mov    -0x4(%rbp),%edx
   1b824:	48 8d 35 43 3c 00 00 	lea    0x3c43(%rip),%rsi        # 1f46e <g_2807+0x1dbe>
   1b82b:	48 89 c7             	mov    %rax,%rdi
   1b82e:	e8 c0 fe fe ff       	callq  b6f3 <transparent_crc>
   1b833:	0f b7 05 24 6f 00 00 	movzwl 0x6f24(%rip),%eax        # 2275e <g_1882>
   1b83a:	0f b7 c0             	movzwl %ax,%eax
   1b83d:	8b 55 fc             	mov    -0x4(%rbp),%edx
   1b840:	48 8d 35 2e 3c 00 00 	lea    0x3c2e(%rip),%rsi        # 1f475 <g_2807+0x1dc5>
   1b847:	48 89 c7             	mov    %rax,%rdi
   1b84a:	e8 a4 fe fe ff       	callq  b6f3 <transparent_crc>
   1b84f:	8b 05 0b 6f 00 00    	mov    0x6f0b(%rip),%eax        # 22760 <g_1923>
   1b855:	89 c1                	mov    %eax,%ecx
   1b857:	8b 45 fc             	mov    -0x4(%rbp),%eax
   1b85a:	89 c2                	mov    %eax,%edx
   1b85c:	48 8d 35 19 3c 00 00 	lea    0x3c19(%rip),%rsi        # 1f47c <g_2807+0x1dcc>
   1b863:	48 89 cf             	mov    %rcx,%rdi
   1b866:	e8 88 fe fe ff       	callq  b6f3 <transparent_crc>
   1b86b:	8b 05 ff 6e 00 00    	mov    0x6eff(%rip),%eax        # 22770 <g_1967>
   1b871:	48 98                	cltq   
   1b873:	8b 55 fc             	mov    -0x4(%rbp),%edx
   1b876:	48 8d 35 06 3c 00 00 	lea    0x3c06(%rip),%rsi        # 1f483 <g_2807+0x1dd3>
   1b87d:	48 89 c7             	mov    %rax,%rdi
   1b880:	e8 6e fe fe ff       	callq  b6f3 <transparent_crc>
   1b885:	0f b7 05 e8 6e 00 00 	movzwl 0x6ee8(%rip),%eax        # 22774 <g_1967+0x4>
   1b88c:	0f b7 c0             	movzwl %ax,%eax
   1b88f:	8b 55 fc             	mov    -0x4(%rbp),%edx
   1b892:	48 8d 35 f4 3b 00 00 	lea    0x3bf4(%rip),%rsi        # 1f48d <g_2807+0x1ddd>
   1b899:	48 89 c7             	mov    %rax,%rdi
   1b89c:	e8 52 fe fe ff       	callq  b6f3 <transparent_crc>
   1b8a1:	0f b7 05 ce 6e 00 00 	movzwl 0x6ece(%rip),%eax        # 22776 <g_1967+0x6>
   1b8a8:	0f b7 c0             	movzwl %ax,%eax
   1b8ab:	8b 55 fc             	mov    -0x4(%rbp),%edx
   1b8ae:	48 8d 35 e2 3b 00 00 	lea    0x3be2(%rip),%rsi        # 1f497 <g_2807+0x1de7>
   1b8b5:	48 89 c7             	mov    %rax,%rdi
   1b8b8:	e8 36 fe fe ff       	callq  b6f3 <transparent_crc>
   1b8bd:	8b 05 b5 6e 00 00    	mov    0x6eb5(%rip),%eax        # 22778 <g_1967+0x8>
   1b8c3:	48 98                	cltq   
   1b8c5:	8b 55 fc             	mov    -0x4(%rbp),%edx
   1b8c8:	48 8d 35 d2 3b 00 00 	lea    0x3bd2(%rip),%rsi        # 1f4a1 <g_2807+0x1df1>
   1b8cf:	48 89 c7             	mov    %rax,%rdi
   1b8d2:	e8 1c fe fe ff       	callq  b6f3 <transparent_crc>
   1b8d7:	8b 05 9f 6e 00 00    	mov    0x6e9f(%rip),%eax        # 2277c <g_1967+0xc>
   1b8dd:	48 98                	cltq   
   1b8df:	8b 55 fc             	mov    -0x4(%rbp),%edx
   1b8e2:	48 8d 35 c2 3b 00 00 	lea    0x3bc2(%rip),%rsi        # 1f4ab <g_2807+0x1dfb>
   1b8e9:	48 89 c7             	mov    %rax,%rdi
   1b8ec:	e8 02 fe fe ff       	callq  b6f3 <transparent_crc>
   1b8f1:	0f b7 05 88 6e 00 00 	movzwl 0x6e88(%rip),%eax        # 22780 <g_1967+0x10>
   1b8f8:	48 0f bf c0          	movswq %ax,%rax
   1b8fc:	8b 55 fc             	mov    -0x4(%rbp),%edx
   1b8ff:	48 8d 35 af 3b 00 00 	lea    0x3baf(%rip),%rsi        # 1f4b5 <g_2807+0x1e05>
   1b906:	48 89 c7             	mov    %rax,%rdi
   1b909:	e8 e5 fd fe ff       	callq  b6f3 <transparent_crc>
   1b90e:	0f b7 05 6d 6e 00 00 	movzwl 0x6e6d(%rip),%eax        # 22782 <g_1967+0x12>
   1b915:	48 0f bf c0          	movswq %ax,%rax
   1b919:	8b 55 fc             	mov    -0x4(%rbp),%edx
   1b91c:	48 8d 35 9c 3b 00 00 	lea    0x3b9c(%rip),%rsi        # 1f4bf <g_2807+0x1e0f>
   1b923:	48 89 c7             	mov    %rax,%rdi
   1b926:	e8 c8 fd fe ff       	callq  b6f3 <transparent_crc>
   1b92b:	0f b7 05 52 6e 00 00 	movzwl 0x6e52(%rip),%eax        # 22784 <g_1967+0x14>
   1b932:	0f b7 c0             	movzwl %ax,%eax
   1b935:	8b 55 fc             	mov    -0x4(%rbp),%edx
   1b938:	48 8d 35 8a 3b 00 00 	lea    0x3b8a(%rip),%rsi        # 1f4c9 <g_2807+0x1e19>
   1b93f:	48 89 c7             	mov    %rax,%rdi
   1b942:	e8 ac fd fe ff       	callq  b6f3 <transparent_crc>
   1b947:	0f b6 05 38 6e 00 00 	movzbl 0x6e38(%rip),%eax        # 22786 <g_1967+0x16>
   1b94e:	48 0f be c0          	movsbq %al,%rax
   1b952:	8b 55 fc             	mov    -0x4(%rbp),%edx
   1b955:	48 8d 35 77 3b 00 00 	lea    0x3b77(%rip),%rsi        # 1f4d3 <g_2807+0x1e23>
   1b95c:	48 89 c7             	mov    %rax,%rdi
   1b95f:	e8 8f fd fe ff       	callq  b6f3 <transparent_crc>
   1b964:	8b 05 1e 6e 00 00    	mov    0x6e1e(%rip),%eax        # 22788 <g_1967+0x18>
   1b96a:	89 c1                	mov    %eax,%ecx
   1b96c:	8b 45 fc             	mov    -0x4(%rbp),%eax
   1b96f:	89 c2                	mov    %eax,%edx
   1b971:	48 8d 35 65 3b 00 00 	lea    0x3b65(%rip),%rsi        # 1f4dd <g_2807+0x1e2d>
   1b978:	48 89 cf             	mov    %rcx,%rdi
   1b97b:	e8 73 fd fe ff       	callq  b6f3 <transparent_crc>
   1b980:	0f b7 05 05 6e 00 00 	movzwl 0x6e05(%rip),%eax        # 2278c <g_2044>
   1b987:	48 0f bf c0          	movswq %ax,%rax
   1b98b:	8b 55 fc             	mov    -0x4(%rbp),%edx
   1b98e:	48 8d 35 52 3b 00 00 	lea    0x3b52(%rip),%rsi        # 1f4e7 <g_2807+0x1e37>
   1b995:	48 89 c7             	mov    %rax,%rdi
   1b998:	e8 56 fd fe ff       	callq  b6f3 <transparent_crc>
   1b99d:	8b 05 ed 6d 00 00    	mov    0x6ded(%rip),%eax        # 22790 <g_2052>
   1b9a3:	48 98                	cltq   
   1b9a5:	8b 55 fc             	mov    -0x4(%rbp),%edx
   1b9a8:	48 8d 35 3f 3b 00 00 	lea    0x3b3f(%rip),%rsi        # 1f4ee <g_2807+0x1e3e>
   1b9af:	48 89 c7             	mov    %rax,%rdi
   1b9b2:	e8 3c fd fe ff       	callq  b6f3 <transparent_crc>
   1b9b7:	0f b7 05 d6 6d 00 00 	movzwl 0x6dd6(%rip),%eax        # 22794 <g_2052+0x4>
   1b9be:	0f b7 c0             	movzwl %ax,%eax
   1b9c1:	8b 55 fc             	mov    -0x4(%rbp),%edx
   1b9c4:	48 8d 35 2d 3b 00 00 	lea    0x3b2d(%rip),%rsi        # 1f4f8 <g_2807+0x1e48>
   1b9cb:	48 89 c7             	mov    %rax,%rdi
   1b9ce:	e8 20 fd fe ff       	callq  b6f3 <transparent_crc>
   1b9d3:	0f b7 05 bc 6d 00 00 	movzwl 0x6dbc(%rip),%eax        # 22796 <g_2052+0x6>
   1b9da:	0f b7 c0             	movzwl %ax,%eax
   1b9dd:	8b 55 fc             	mov    -0x4(%rbp),%edx
   1b9e0:	48 8d 35 1b 3b 00 00 	lea    0x3b1b(%rip),%rsi        # 1f502 <g_2807+0x1e52>
   1b9e7:	48 89 c7             	mov    %rax,%rdi
   1b9ea:	e8 04 fd fe ff       	callq  b6f3 <transparent_crc>
   1b9ef:	8b 05 a3 6d 00 00    	mov    0x6da3(%rip),%eax        # 22798 <g_2052+0x8>
   1b9f5:	48 98                	cltq   
   1b9f7:	8b 55 fc             	mov    -0x4(%rbp),%edx
   1b9fa:	48 8d 35 0b 3b 00 00 	lea    0x3b0b(%rip),%rsi        # 1f50c <g_2807+0x1e5c>
   1ba01:	48 89 c7             	mov    %rax,%rdi
   1ba04:	e8 ea fc fe ff       	callq  b6f3 <transparent_crc>
   1ba09:	8b 05 8d 6d 00 00    	mov    0x6d8d(%rip),%eax        # 2279c <g_2052+0xc>
   1ba0f:	48 98                	cltq   
   1ba11:	8b 55 fc             	mov    -0x4(%rbp),%edx
   1ba14:	48 8d 35 fb 3a 00 00 	lea    0x3afb(%rip),%rsi        # 1f516 <g_2807+0x1e66>
   1ba1b:	48 89 c7             	mov    %rax,%rdi
   1ba1e:	e8 d0 fc fe ff       	callq  b6f3 <transparent_crc>
   1ba23:	0f b7 05 76 6d 00 00 	movzwl 0x6d76(%rip),%eax        # 227a0 <g_2052+0x10>
   1ba2a:	48 0f bf c0          	movswq %ax,%rax
   1ba2e:	8b 55 fc             	mov    -0x4(%rbp),%edx
   1ba31:	48 8d 35 e8 3a 00 00 	lea    0x3ae8(%rip),%rsi        # 1f520 <g_2807+0x1e70>
   1ba38:	48 89 c7             	mov    %rax,%rdi
   1ba3b:	e8 b3 fc fe ff       	callq  b6f3 <transparent_crc>
   1ba40:	0f b7 05 5b 6d 00 00 	movzwl 0x6d5b(%rip),%eax        # 227a2 <g_2052+0x12>
   1ba47:	48 0f bf c0          	movswq %ax,%rax
   1ba4b:	8b 55 fc             	mov    -0x4(%rbp),%edx
   1ba4e:	48 8d 35 d5 3a 00 00 	lea    0x3ad5(%rip),%rsi        # 1f52a <g_2807+0x1e7a>
   1ba55:	48 89 c7             	mov    %rax,%rdi
   1ba58:	e8 96 fc fe ff       	callq  b6f3 <transparent_crc>
   1ba5d:	0f b7 05 40 6d 00 00 	movzwl 0x6d40(%rip),%eax        # 227a4 <g_2052+0x14>
   1ba64:	0f b7 c0             	movzwl %ax,%eax
   1ba67:	8b 55 fc             	mov    -0x4(%rbp),%edx
   1ba6a:	48 8d 35 c3 3a 00 00 	lea    0x3ac3(%rip),%rsi        # 1f534 <g_2807+0x1e84>
   1ba71:	48 89 c7             	mov    %rax,%rdi
   1ba74:	e8 7a fc fe ff       	callq  b6f3 <transparent_crc>
   1ba79:	0f b6 05 26 6d 00 00 	movzbl 0x6d26(%rip),%eax        # 227a6 <g_2052+0x16>
   1ba80:	48 0f be c0          	movsbq %al,%rax
   1ba84:	8b 55 fc             	mov    -0x4(%rbp),%edx
   1ba87:	48 8d 35 b0 3a 00 00 	lea    0x3ab0(%rip),%rsi        # 1f53e <g_2807+0x1e8e>
   1ba8e:	48 89 c7             	mov    %rax,%rdi
   1ba91:	e8 5d fc fe ff       	callq  b6f3 <transparent_crc>
   1ba96:	8b 05 0c 6d 00 00    	mov    0x6d0c(%rip),%eax        # 227a8 <g_2052+0x18>
   1ba9c:	89 c1                	mov    %eax,%ecx
   1ba9e:	8b 45 fc             	mov    -0x4(%rbp),%eax
   1baa1:	89 c2                	mov    %eax,%edx
   1baa3:	48 8d 35 9e 3a 00 00 	lea    0x3a9e(%rip),%rsi        # 1f548 <g_2807+0x1e98>
   1baaa:	48 89 cf             	mov    %rcx,%rdi
   1baad:	e8 41 fc fe ff       	callq  b6f3 <transparent_crc>
   1bab2:	8b 05 f8 6c 00 00    	mov    0x6cf8(%rip),%eax        # 227b0 <g_2053>
   1bab8:	48 98                	cltq   
   1baba:	8b 55 fc             	mov    -0x4(%rbp),%edx
   1babd:	48 8d 35 8e 3a 00 00 	lea    0x3a8e(%rip),%rsi        # 1f552 <g_2807+0x1ea2>
   1bac4:	48 89 c7             	mov    %rax,%rdi
   1bac7:	e8 27 fc fe ff       	callq  b6f3 <transparent_crc>
   1bacc:	0f b7 05 e1 6c 00 00 	movzwl 0x6ce1(%rip),%eax        # 227b4 <g_2053+0x4>
   1bad3:	0f b7 c0             	movzwl %ax,%eax
   1bad6:	8b 55 fc             	mov    -0x4(%rbp),%edx
   1bad9:	48 8d 35 7c 3a 00 00 	lea    0x3a7c(%rip),%rsi        # 1f55c <g_2807+0x1eac>
   1bae0:	48 89 c7             	mov    %rax,%rdi
   1bae3:	e8 0b fc fe ff       	callq  b6f3 <transparent_crc>
   1bae8:	0f b7 05 c7 6c 00 00 	movzwl 0x6cc7(%rip),%eax        # 227b6 <g_2053+0x6>
   1baef:	0f b7 c0             	movzwl %ax,%eax
   1baf2:	8b 55 fc             	mov    -0x4(%rbp),%edx
   1baf5:	48 8d 35 6a 3a 00 00 	lea    0x3a6a(%rip),%rsi        # 1f566 <g_2807+0x1eb6>
   1bafc:	48 89 c7             	mov    %rax,%rdi
   1baff:	e8 ef fb fe ff       	callq  b6f3 <transparent_crc>
   1bb04:	8b 05 ae 6c 00 00    	mov    0x6cae(%rip),%eax        # 227b8 <g_2053+0x8>
   1bb0a:	48 98                	cltq   
   1bb0c:	8b 55 fc             	mov    -0x4(%rbp),%edx
   1bb0f:	48 8d 35 5a 3a 00 00 	lea    0x3a5a(%rip),%rsi        # 1f570 <g_2807+0x1ec0>
   1bb16:	48 89 c7             	mov    %rax,%rdi
   1bb19:	e8 d5 fb fe ff       	callq  b6f3 <transparent_crc>
   1bb1e:	8b 05 98 6c 00 00    	mov    0x6c98(%rip),%eax        # 227bc <g_2053+0xc>
   1bb24:	48 98                	cltq   
   1bb26:	8b 55 fc             	mov    -0x4(%rbp),%edx
   1bb29:	48 8d 35 4a 3a 00 00 	lea    0x3a4a(%rip),%rsi        # 1f57a <g_2807+0x1eca>
   1bb30:	48 89 c7             	mov    %rax,%rdi
   1bb33:	e8 bb fb fe ff       	callq  b6f3 <transparent_crc>
   1bb38:	0f b7 05 81 6c 00 00 	movzwl 0x6c81(%rip),%eax        # 227c0 <g_2053+0x10>
   1bb3f:	48 0f bf c0          	movswq %ax,%rax
   1bb43:	8b 55 fc             	mov    -0x4(%rbp),%edx
   1bb46:	48 8d 35 37 3a 00 00 	lea    0x3a37(%rip),%rsi        # 1f584 <g_2807+0x1ed4>
   1bb4d:	48 89 c7             	mov    %rax,%rdi
   1bb50:	e8 9e fb fe ff       	callq  b6f3 <transparent_crc>
   1bb55:	0f b7 05 66 6c 00 00 	movzwl 0x6c66(%rip),%eax        # 227c2 <g_2053+0x12>
   1bb5c:	48 0f bf c0          	movswq %ax,%rax
   1bb60:	8b 55 fc             	mov    -0x4(%rbp),%edx
   1bb63:	48 8d 35 24 3a 00 00 	lea    0x3a24(%rip),%rsi        # 1f58e <g_2807+0x1ede>
   1bb6a:	48 89 c7             	mov    %rax,%rdi
   1bb6d:	e8 81 fb fe ff       	callq  b6f3 <transparent_crc>
   1bb72:	0f b7 05 4b 6c 00 00 	movzwl 0x6c4b(%rip),%eax        # 227c4 <g_2053+0x14>
   1bb79:	0f b7 c0             	movzwl %ax,%eax
   1bb7c:	8b 55 fc             	mov    -0x4(%rbp),%edx
   1bb7f:	48 8d 35 12 3a 00 00 	lea    0x3a12(%rip),%rsi        # 1f598 <g_2807+0x1ee8>
   1bb86:	48 89 c7             	mov    %rax,%rdi
   1bb89:	e8 65 fb fe ff       	callq  b6f3 <transparent_crc>
   1bb8e:	0f b6 05 31 6c 00 00 	movzbl 0x6c31(%rip),%eax        # 227c6 <g_2053+0x16>
   1bb95:	48 0f be c0          	movsbq %al,%rax
   1bb99:	8b 55 fc             	mov    -0x4(%rbp),%edx
   1bb9c:	48 8d 35 ff 39 00 00 	lea    0x39ff(%rip),%rsi        # 1f5a2 <g_2807+0x1ef2>
   1bba3:	48 89 c7             	mov    %rax,%rdi
   1bba6:	e8 48 fb fe ff       	callq  b6f3 <transparent_crc>
   1bbab:	8b 05 17 6c 00 00    	mov    0x6c17(%rip),%eax        # 227c8 <g_2053+0x18>
   1bbb1:	89 c1                	mov    %eax,%ecx
   1bbb3:	8b 45 fc             	mov    -0x4(%rbp),%eax
   1bbb6:	89 c2                	mov    %eax,%edx
   1bbb8:	48 8d 35 ed 39 00 00 	lea    0x39ed(%rip),%rsi        # 1f5ac <g_2807+0x1efc>
   1bbbf:	48 89 cf             	mov    %rcx,%rdi
   1bbc2:	e8 2c fb fe ff       	callq  b6f3 <transparent_crc>
   1bbc7:	c7 45 f0 00 00 00 00 	movl   $0x0,-0x10(%rbp)
   1bbce:	eb 4f                	jmp    1bc1f <main+0x21cf>
   1bbd0:	8b 45 f0             	mov    -0x10(%rbp),%eax
   1bbd3:	48 98                	cltq   
   1bbd5:	48 8d 14 c5 00 00 00 	lea    0x0(,%rax,8),%rdx
   1bbdc:	00 
   1bbdd:	48 8d 05 ec 6b 00 00 	lea    0x6bec(%rip),%rax        # 227d0 <g_2222>
   1bbe4:	48 8b 04 02          	mov    (%rdx,%rax,1),%rax
   1bbe8:	48 89 c1             	mov    %rax,%rcx
   1bbeb:	8b 45 fc             	mov    -0x4(%rbp),%eax
   1bbee:	89 c2                	mov    %eax,%edx
   1bbf0:	48 8d 35 bf 39 00 00 	lea    0x39bf(%rip),%rsi        # 1f5b6 <g_2807+0x1f06>
   1bbf7:	48 89 cf             	mov    %rcx,%rdi
   1bbfa:	e8 f4 fa fe ff       	callq  b6f3 <transparent_crc>
   1bbff:	83 7d fc 00          	cmpl   $0x0,-0x4(%rbp)
   1bc03:	74 16                	je     1bc1b <main+0x21cb>
   1bc05:	8b 45 f0             	mov    -0x10(%rbp),%eax
   1bc08:	89 c6                	mov    %eax,%esi
   1bc0a:	48 8d 3d ab 32 00 00 	lea    0x32ab(%rip),%rdi        # 1eebc <g_2807+0x180c>
   1bc11:	b8 00 00 00 00       	mov    $0x0,%eax
   1bc16:	e8 65 e4 fe ff       	callq  a080 <printf@plt>
   1bc1b:	83 45 f0 01          	addl   $0x1,-0x10(%rbp)
   1bc1f:	83 7d f0 02          	cmpl   $0x2,-0x10(%rbp)
   1bc23:	7e ab                	jle    1bbd0 <main+0x2180>
   1bc25:	8b 05 c5 6b 00 00    	mov    0x6bc5(%rip),%eax        # 227f0 <g_2237>
   1bc2b:	48 98                	cltq   
   1bc2d:	8b 55 fc             	mov    -0x4(%rbp),%edx
   1bc30:	48 8d 35 89 39 00 00 	lea    0x3989(%rip),%rsi        # 1f5c0 <g_2807+0x1f10>
   1bc37:	48 89 c7             	mov    %rax,%rdi
   1bc3a:	e8 b4 fa fe ff       	callq  b6f3 <transparent_crc>
   1bc3f:	0f b7 05 ae 6b 00 00 	movzwl 0x6bae(%rip),%eax        # 227f4 <g_2237+0x4>
   1bc46:	0f b7 c0             	movzwl %ax,%eax
   1bc49:	8b 55 fc             	mov    -0x4(%rbp),%edx
   1bc4c:	48 8d 35 77 39 00 00 	lea    0x3977(%rip),%rsi        # 1f5ca <g_2807+0x1f1a>
   1bc53:	48 89 c7             	mov    %rax,%rdi
   1bc56:	e8 98 fa fe ff       	callq  b6f3 <transparent_crc>
   1bc5b:	0f b7 05 94 6b 00 00 	movzwl 0x6b94(%rip),%eax        # 227f6 <g_2237+0x6>
   1bc62:	0f b7 c0             	movzwl %ax,%eax
   1bc65:	8b 55 fc             	mov    -0x4(%rbp),%edx
   1bc68:	48 8d 35 65 39 00 00 	lea    0x3965(%rip),%rsi        # 1f5d4 <g_2807+0x1f24>
   1bc6f:	48 89 c7             	mov    %rax,%rdi
   1bc72:	e8 7c fa fe ff       	callq  b6f3 <transparent_crc>
   1bc77:	8b 05 7b 6b 00 00    	mov    0x6b7b(%rip),%eax        # 227f8 <g_2237+0x8>
   1bc7d:	48 98                	cltq   
   1bc7f:	8b 55 fc             	mov    -0x4(%rbp),%edx
   1bc82:	48 8d 35 55 39 00 00 	lea    0x3955(%rip),%rsi        # 1f5de <g_2807+0x1f2e>
   1bc89:	48 89 c7             	mov    %rax,%rdi
   1bc8c:	e8 62 fa fe ff       	callq  b6f3 <transparent_crc>
   1bc91:	8b 05 65 6b 00 00    	mov    0x6b65(%rip),%eax        # 227fc <g_2237+0xc>
   1bc97:	48 98                	cltq   
   1bc99:	8b 55 fc             	mov    -0x4(%rbp),%edx
   1bc9c:	48 8d 35 45 39 00 00 	lea    0x3945(%rip),%rsi        # 1f5e8 <g_2807+0x1f38>
   1bca3:	48 89 c7             	mov    %rax,%rdi
   1bca6:	e8 48 fa fe ff       	callq  b6f3 <transparent_crc>
   1bcab:	0f b7 05 4e 6b 00 00 	movzwl 0x6b4e(%rip),%eax        # 22800 <g_2237+0x10>
   1bcb2:	48 0f bf c0          	movswq %ax,%rax
   1bcb6:	8b 55 fc             	mov    -0x4(%rbp),%edx
   1bcb9:	48 8d 35 32 39 00 00 	lea    0x3932(%rip),%rsi        # 1f5f2 <g_2807+0x1f42>
   1bcc0:	48 89 c7             	mov    %rax,%rdi
   1bcc3:	e8 2b fa fe ff       	callq  b6f3 <transparent_crc>
   1bcc8:	0f b7 05 33 6b 00 00 	movzwl 0x6b33(%rip),%eax        # 22802 <g_2237+0x12>
   1bccf:	48 0f bf c0          	movswq %ax,%rax
   1bcd3:	8b 55 fc             	mov    -0x4(%rbp),%edx
   1bcd6:	48 8d 35 1f 39 00 00 	lea    0x391f(%rip),%rsi        # 1f5fc <g_2807+0x1f4c>
   1bcdd:	48 89 c7             	mov    %rax,%rdi
   1bce0:	e8 0e fa fe ff       	callq  b6f3 <transparent_crc>
   1bce5:	0f b7 05 18 6b 00 00 	movzwl 0x6b18(%rip),%eax        # 22804 <g_2237+0x14>
   1bcec:	0f b7 c0             	movzwl %ax,%eax
   1bcef:	8b 55 fc             	mov    -0x4(%rbp),%edx
   1bcf2:	48 8d 35 0d 39 00 00 	lea    0x390d(%rip),%rsi        # 1f606 <g_2807+0x1f56>
   1bcf9:	48 89 c7             	mov    %rax,%rdi
   1bcfc:	e8 f2 f9 fe ff       	callq  b6f3 <transparent_crc>
   1bd01:	0f b6 05 fe 6a 00 00 	movzbl 0x6afe(%rip),%eax        # 22806 <g_2237+0x16>
   1bd08:	48 0f be c0          	movsbq %al,%rax
   1bd0c:	8b 55 fc             	mov    -0x4(%rbp),%edx
   1bd0f:	48 8d 35 fa 38 00 00 	lea    0x38fa(%rip),%rsi        # 1f610 <g_2807+0x1f60>
   1bd16:	48 89 c7             	mov    %rax,%rdi
   1bd19:	e8 d5 f9 fe ff       	callq  b6f3 <transparent_crc>
   1bd1e:	8b 05 e4 6a 00 00    	mov    0x6ae4(%rip),%eax        # 22808 <g_2237+0x18>
   1bd24:	89 c1                	mov    %eax,%ecx
   1bd26:	8b 45 fc             	mov    -0x4(%rbp),%eax
   1bd29:	89 c2                	mov    %eax,%edx
   1bd2b:	48 8d 35 e8 38 00 00 	lea    0x38e8(%rip),%rsi        # 1f61a <g_2807+0x1f6a>
   1bd32:	48 89 cf             	mov    %rcx,%rdi
   1bd35:	e8 b9 f9 fe ff       	callq  b6f3 <transparent_crc>
   1bd3a:	8b 05 d0 6a 00 00    	mov    0x6ad0(%rip),%eax        # 22810 <g_2238>
   1bd40:	48 98                	cltq   
   1bd42:	8b 55 fc             	mov    -0x4(%rbp),%edx
   1bd45:	48 8d 35 d8 38 00 00 	lea    0x38d8(%rip),%rsi        # 1f624 <g_2807+0x1f74>
   1bd4c:	48 89 c7             	mov    %rax,%rdi
   1bd4f:	e8 9f f9 fe ff       	callq  b6f3 <transparent_crc>
   1bd54:	0f b7 05 b9 6a 00 00 	movzwl 0x6ab9(%rip),%eax        # 22814 <g_2238+0x4>
   1bd5b:	0f b7 c0             	movzwl %ax,%eax
   1bd5e:	8b 55 fc             	mov    -0x4(%rbp),%edx
   1bd61:	48 8d 35 c6 38 00 00 	lea    0x38c6(%rip),%rsi        # 1f62e <g_2807+0x1f7e>
   1bd68:	48 89 c7             	mov    %rax,%rdi
   1bd6b:	e8 83 f9 fe ff       	callq  b6f3 <transparent_crc>
   1bd70:	0f b7 05 9f 6a 00 00 	movzwl 0x6a9f(%rip),%eax        # 22816 <g_2238+0x6>
   1bd77:	0f b7 c0             	movzwl %ax,%eax
   1bd7a:	8b 55 fc             	mov    -0x4(%rbp),%edx
   1bd7d:	48 8d 35 b4 38 00 00 	lea    0x38b4(%rip),%rsi        # 1f638 <g_2807+0x1f88>
   1bd84:	48 89 c7             	mov    %rax,%rdi
   1bd87:	e8 67 f9 fe ff       	callq  b6f3 <transparent_crc>
   1bd8c:	8b 05 86 6a 00 00    	mov    0x6a86(%rip),%eax        # 22818 <g_2238+0x8>
   1bd92:	48 98                	cltq   
   1bd94:	8b 55 fc             	mov    -0x4(%rbp),%edx
   1bd97:	48 8d 35 a4 38 00 00 	lea    0x38a4(%rip),%rsi        # 1f642 <g_2807+0x1f92>
   1bd9e:	48 89 c7             	mov    %rax,%rdi
   1bda1:	e8 4d f9 fe ff       	callq  b6f3 <transparent_crc>
   1bda6:	8b 05 70 6a 00 00    	mov    0x6a70(%rip),%eax        # 2281c <g_2238+0xc>
   1bdac:	48 98                	cltq   
   1bdae:	8b 55 fc             	mov    -0x4(%rbp),%edx
   1bdb1:	48 8d 35 94 38 00 00 	lea    0x3894(%rip),%rsi        # 1f64c <g_2807+0x1f9c>
   1bdb8:	48 89 c7             	mov    %rax,%rdi
   1bdbb:	e8 33 f9 fe ff       	callq  b6f3 <transparent_crc>
   1bdc0:	0f b7 05 59 6a 00 00 	movzwl 0x6a59(%rip),%eax        # 22820 <g_2238+0x10>
   1bdc7:	48 0f bf c0          	movswq %ax,%rax
   1bdcb:	8b 55 fc             	mov    -0x4(%rbp),%edx
   1bdce:	48 8d 35 81 38 00 00 	lea    0x3881(%rip),%rsi        # 1f656 <g_2807+0x1fa6>
   1bdd5:	48 89 c7             	mov    %rax,%rdi
   1bdd8:	e8 16 f9 fe ff       	callq  b6f3 <transparent_crc>
   1bddd:	0f b7 05 3e 6a 00 00 	movzwl 0x6a3e(%rip),%eax        # 22822 <g_2238+0x12>
   1bde4:	48 0f bf c0          	movswq %ax,%rax
   1bde8:	8b 55 fc             	mov    -0x4(%rbp),%edx
   1bdeb:	48 8d 35 6e 38 00 00 	lea    0x386e(%rip),%rsi        # 1f660 <g_2807+0x1fb0>
   1bdf2:	48 89 c7             	mov    %rax,%rdi
   1bdf5:	e8 f9 f8 fe ff       	callq  b6f3 <transparent_crc>
   1bdfa:	0f b7 05 23 6a 00 00 	movzwl 0x6a23(%rip),%eax        # 22824 <g_2238+0x14>
   1be01:	0f b7 c0             	movzwl %ax,%eax
   1be04:	8b 55 fc             	mov    -0x4(%rbp),%edx
   1be07:	48 8d 35 5c 38 00 00 	lea    0x385c(%rip),%rsi        # 1f66a <g_2807+0x1fba>
   1be0e:	48 89 c7             	mov    %rax,%rdi
   1be11:	e8 dd f8 fe ff       	callq  b6f3 <transparent_crc>
   1be16:	0f b6 05 09 6a 00 00 	movzbl 0x6a09(%rip),%eax        # 22826 <g_2238+0x16>
   1be1d:	48 0f be c0          	movsbq %al,%rax
   1be21:	8b 55 fc             	mov    -0x4(%rbp),%edx
   1be24:	48 8d 35 49 38 00 00 	lea    0x3849(%rip),%rsi        # 1f674 <g_2807+0x1fc4>
   1be2b:	48 89 c7             	mov    %rax,%rdi
   1be2e:	e8 c0 f8 fe ff       	callq  b6f3 <transparent_crc>
   1be33:	8b 05 ef 69 00 00    	mov    0x69ef(%rip),%eax        # 22828 <g_2238+0x18>
   1be39:	89 c1                	mov    %eax,%ecx
   1be3b:	8b 45 fc             	mov    -0x4(%rbp),%eax
   1be3e:	89 c2                	mov    %eax,%edx
   1be40:	48 8d 35 37 38 00 00 	lea    0x3837(%rip),%rsi        # 1f67e <g_2807+0x1fce>
   1be47:	48 89 cf             	mov    %rcx,%rdi
   1be4a:	e8 a4 f8 fe ff       	callq  b6f3 <transparent_crc>
   1be4f:	8b 05 d7 69 00 00    	mov    0x69d7(%rip),%eax        # 2282c <g_2275>
   1be55:	48 98                	cltq   
   1be57:	8b 55 fc             	mov    -0x4(%rbp),%edx
   1be5a:	48 8d 35 27 38 00 00 	lea    0x3827(%rip),%rsi        # 1f688 <g_2807+0x1fd8>
   1be61:	48 89 c7             	mov    %rax,%rdi
   1be64:	e8 8a f8 fe ff       	callq  b6f3 <transparent_crc>
   1be69:	8b 05 c1 69 00 00    	mov    0x69c1(%rip),%eax        # 22830 <g_2306>
   1be6f:	48 98                	cltq   
   1be71:	8b 55 fc             	mov    -0x4(%rbp),%edx
   1be74:	48 8d 35 14 38 00 00 	lea    0x3814(%rip),%rsi        # 1f68f <g_2807+0x1fdf>
   1be7b:	48 89 c7             	mov    %rax,%rdi
   1be7e:	e8 70 f8 fe ff       	callq  b6f3 <transparent_crc>
   1be83:	0f b7 05 aa 69 00 00 	movzwl 0x69aa(%rip),%eax        # 22834 <g_2306+0x4>
   1be8a:	0f b7 c0             	movzwl %ax,%eax
   1be8d:	8b 55 fc             	mov    -0x4(%rbp),%edx
   1be90:	48 8d 35 02 38 00 00 	lea    0x3802(%rip),%rsi        # 1f699 <g_2807+0x1fe9>
   1be97:	48 89 c7             	mov    %rax,%rdi
   1be9a:	e8 54 f8 fe ff       	callq  b6f3 <transparent_crc>
   1be9f:	0f b7 05 90 69 00 00 	movzwl 0x6990(%rip),%eax        # 22836 <g_2306+0x6>
   1bea6:	0f b7 c0             	movzwl %ax,%eax
   1bea9:	8b 55 fc             	mov    -0x4(%rbp),%edx
   1beac:	48 8d 35 f0 37 00 00 	lea    0x37f0(%rip),%rsi        # 1f6a3 <g_2807+0x1ff3>
   1beb3:	48 89 c7             	mov    %rax,%rdi
   1beb6:	e8 38 f8 fe ff       	callq  b6f3 <transparent_crc>
   1bebb:	8b 05 77 69 00 00    	mov    0x6977(%rip),%eax        # 22838 <g_2306+0x8>
   1bec1:	48 98                	cltq   
   1bec3:	8b 55 fc             	mov    -0x4(%rbp),%edx
   1bec6:	48 8d 35 e0 37 00 00 	lea    0x37e0(%rip),%rsi        # 1f6ad <g_2807+0x1ffd>
   1becd:	48 89 c7             	mov    %rax,%rdi
   1bed0:	e8 1e f8 fe ff       	callq  b6f3 <transparent_crc>
   1bed5:	8b 05 61 69 00 00    	mov    0x6961(%rip),%eax        # 2283c <g_2306+0xc>
   1bedb:	48 98                	cltq   
   1bedd:	8b 55 fc             	mov    -0x4(%rbp),%edx
   1bee0:	48 8d 35 d0 37 00 00 	lea    0x37d0(%rip),%rsi        # 1f6b7 <g_2807+0x2007>
   1bee7:	48 89 c7             	mov    %rax,%rdi
   1beea:	e8 04 f8 fe ff       	callq  b6f3 <transparent_crc>
   1beef:	0f b7 05 4a 69 00 00 	movzwl 0x694a(%rip),%eax        # 22840 <g_2306+0x10>
   1bef6:	48 0f bf c0          	movswq %ax,%rax
   1befa:	8b 55 fc             	mov    -0x4(%rbp),%edx
   1befd:	48 8d 35 bd 37 00 00 	lea    0x37bd(%rip),%rsi        # 1f6c1 <g_2807+0x2011>
   1bf04:	48 89 c7             	mov    %rax,%rdi
   1bf07:	e8 e7 f7 fe ff       	callq  b6f3 <transparent_crc>
   1bf0c:	0f b7 05 2f 69 00 00 	movzwl 0x692f(%rip),%eax        # 22842 <g_2306+0x12>
   1bf13:	48 0f bf c0          	movswq %ax,%rax
   1bf17:	8b 55 fc             	mov    -0x4(%rbp),%edx
   1bf1a:	48 8d 35 aa 37 00 00 	lea    0x37aa(%rip),%rsi        # 1f6cb <g_2807+0x201b>
   1bf21:	48 89 c7             	mov    %rax,%rdi
   1bf24:	e8 ca f7 fe ff       	callq  b6f3 <transparent_crc>
   1bf29:	0f b7 05 14 69 00 00 	movzwl 0x6914(%rip),%eax        # 22844 <g_2306+0x14>
   1bf30:	0f b7 c0             	movzwl %ax,%eax
   1bf33:	8b 55 fc             	mov    -0x4(%rbp),%edx
   1bf36:	48 8d 35 98 37 00 00 	lea    0x3798(%rip),%rsi        # 1f6d5 <g_2807+0x2025>
   1bf3d:	48 89 c7             	mov    %rax,%rdi
   1bf40:	e8 ae f7 fe ff       	callq  b6f3 <transparent_crc>
   1bf45:	0f b6 05 fa 68 00 00 	movzbl 0x68fa(%rip),%eax        # 22846 <g_2306+0x16>
   1bf4c:	48 0f be c0          	movsbq %al,%rax
   1bf50:	8b 55 fc             	mov    -0x4(%rbp),%edx
   1bf53:	48 8d 35 85 37 00 00 	lea    0x3785(%rip),%rsi        # 1f6df <g_2807+0x202f>
   1bf5a:	48 89 c7             	mov    %rax,%rdi
   1bf5d:	e8 91 f7 fe ff       	callq  b6f3 <transparent_crc>
   1bf62:	8b 05 e0 68 00 00    	mov    0x68e0(%rip),%eax        # 22848 <g_2306+0x18>
   1bf68:	89 c1                	mov    %eax,%ecx
   1bf6a:	8b 45 fc             	mov    -0x4(%rbp),%eax
   1bf6d:	89 c2                	mov    %eax,%edx
   1bf6f:	48 8d 35 73 37 00 00 	lea    0x3773(%rip),%rsi        # 1f6e9 <g_2807+0x2039>
   1bf76:	48 89 cf             	mov    %rcx,%rdi
   1bf79:	e8 75 f7 fe ff       	callq  b6f3 <transparent_crc>
   1bf7e:	8b 05 cc 68 00 00    	mov    0x68cc(%rip),%eax        # 22850 <g_2340>
   1bf84:	48 98                	cltq   
   1bf86:	8b 55 fc             	mov    -0x4(%rbp),%edx
   1bf89:	48 8d 35 63 37 00 00 	lea    0x3763(%rip),%rsi        # 1f6f3 <g_2807+0x2043>
   1bf90:	48 89 c7             	mov    %rax,%rdi
   1bf93:	e8 5b f7 fe ff       	callq  b6f3 <transparent_crc>
   1bf98:	0f b7 05 b5 68 00 00 	movzwl 0x68b5(%rip),%eax        # 22854 <g_2340+0x4>
   1bf9f:	0f b7 c0             	movzwl %ax,%eax
   1bfa2:	8b 55 fc             	mov    -0x4(%rbp),%edx
   1bfa5:	48 8d 35 51 37 00 00 	lea    0x3751(%rip),%rsi        # 1f6fd <g_2807+0x204d>
   1bfac:	48 89 c7             	mov    %rax,%rdi
   1bfaf:	e8 3f f7 fe ff       	callq  b6f3 <transparent_crc>
   1bfb4:	0f b7 05 9b 68 00 00 	movzwl 0x689b(%rip),%eax        # 22856 <g_2340+0x6>
   1bfbb:	0f b7 c0             	movzwl %ax,%eax
   1bfbe:	8b 55 fc             	mov    -0x4(%rbp),%edx
   1bfc1:	48 8d 35 3f 37 00 00 	lea    0x373f(%rip),%rsi        # 1f707 <g_2807+0x2057>
   1bfc8:	48 89 c7             	mov    %rax,%rdi
   1bfcb:	e8 23 f7 fe ff       	callq  b6f3 <transparent_crc>
   1bfd0:	8b 05 82 68 00 00    	mov    0x6882(%rip),%eax        # 22858 <g_2340+0x8>
   1bfd6:	48 98                	cltq   
   1bfd8:	8b 55 fc             	mov    -0x4(%rbp),%edx
   1bfdb:	48 8d 35 2f 37 00 00 	lea    0x372f(%rip),%rsi        # 1f711 <g_2807+0x2061>
   1bfe2:	48 89 c7             	mov    %rax,%rdi
   1bfe5:	e8 09 f7 fe ff       	callq  b6f3 <transparent_crc>
   1bfea:	8b 05 6c 68 00 00    	mov    0x686c(%rip),%eax        # 2285c <g_2340+0xc>
   1bff0:	48 98                	cltq   
   1bff2:	8b 55 fc             	mov    -0x4(%rbp),%edx
   1bff5:	48 8d 35 1f 37 00 00 	lea    0x371f(%rip),%rsi        # 1f71b <g_2807+0x206b>
   1bffc:	48 89 c7             	mov    %rax,%rdi
   1bfff:	e8 ef f6 fe ff       	callq  b6f3 <transparent_crc>
   1c004:	0f b7 05 55 68 00 00 	movzwl 0x6855(%rip),%eax        # 22860 <g_2340+0x10>
   1c00b:	48 0f bf c0          	movswq %ax,%rax
   1c00f:	8b 55 fc             	mov    -0x4(%rbp),%edx
   1c012:	48 8d 35 0c 37 00 00 	lea    0x370c(%rip),%rsi        # 1f725 <g_2807+0x2075>
   1c019:	48 89 c7             	mov    %rax,%rdi
   1c01c:	e8 d2 f6 fe ff       	callq  b6f3 <transparent_crc>
   1c021:	0f b7 05 3a 68 00 00 	movzwl 0x683a(%rip),%eax        # 22862 <g_2340+0x12>
   1c028:	48 0f bf c0          	movswq %ax,%rax
   1c02c:	8b 55 fc             	mov    -0x4(%rbp),%edx
   1c02f:	48 8d 35 f9 36 00 00 	lea    0x36f9(%rip),%rsi        # 1f72f <g_2807+0x207f>
   1c036:	48 89 c7             	mov    %rax,%rdi
   1c039:	e8 b5 f6 fe ff       	callq  b6f3 <transparent_crc>
   1c03e:	0f b7 05 1f 68 00 00 	movzwl 0x681f(%rip),%eax        # 22864 <g_2340+0x14>
   1c045:	0f b7 c0             	movzwl %ax,%eax
   1c048:	8b 55 fc             	mov    -0x4(%rbp),%edx
   1c04b:	48 8d 35 e7 36 00 00 	lea    0x36e7(%rip),%rsi        # 1f739 <g_2807+0x2089>
   1c052:	48 89 c7             	mov    %rax,%rdi
   1c055:	e8 99 f6 fe ff       	callq  b6f3 <transparent_crc>
   1c05a:	0f b6 05 05 68 00 00 	movzbl 0x6805(%rip),%eax        # 22866 <g_2340+0x16>
   1c061:	48 0f be c0          	movsbq %al,%rax
   1c065:	8b 55 fc             	mov    -0x4(%rbp),%edx
   1c068:	48 8d 35 d4 36 00 00 	lea    0x36d4(%rip),%rsi        # 1f743 <g_2807+0x2093>
   1c06f:	48 89 c7             	mov    %rax,%rdi
   1c072:	e8 7c f6 fe ff       	callq  b6f3 <transparent_crc>
   1c077:	8b 05 eb 67 00 00    	mov    0x67eb(%rip),%eax        # 22868 <g_2340+0x18>
   1c07d:	89 c1                	mov    %eax,%ecx
   1c07f:	8b 45 fc             	mov    -0x4(%rbp),%eax
   1c082:	89 c2                	mov    %eax,%edx
   1c084:	48 8d 35 c2 36 00 00 	lea    0x36c2(%rip),%rsi        # 1f74d <g_2807+0x209d>
   1c08b:	48 89 cf             	mov    %rcx,%rdi
   1c08e:	e8 60 f6 fe ff       	callq  b6f3 <transparent_crc>
   1c093:	c7 45 f0 00 00 00 00 	movl   $0x0,-0x10(%rbp)
   1c09a:	eb 4d                	jmp    1c0e9 <main+0x2699>
   1c09c:	8b 45 f0             	mov    -0x10(%rbp),%eax
   1c09f:	48 98                	cltq   
   1c0a1:	48 8d 14 85 00 00 00 	lea    0x0(,%rax,4),%rdx
   1c0a8:	00 
   1c0a9:	48 8d 05 38 ab 00 00 	lea    0xab38(%rip),%rax        # 26be8 <g_2371>
   1c0b0:	8b 04 02             	mov    (%rdx,%rax,1),%eax
   1c0b3:	89 c1                	mov    %eax,%ecx
   1c0b5:	8b 45 fc             	mov    -0x4(%rbp),%eax
   1c0b8:	89 c2                	mov    %eax,%edx
   1c0ba:	48 8d 35 96 36 00 00 	lea    0x3696(%rip),%rsi        # 1f757 <g_2807+0x20a7>
   1c0c1:	48 89 cf             	mov    %rcx,%rdi
   1c0c4:	e8 2a f6 fe ff       	callq  b6f3 <transparent_crc>
   1c0c9:	83 7d fc 00          	cmpl   $0x0,-0x4(%rbp)
   1c0cd:	74 16                	je     1c0e5 <main+0x2695>
   1c0cf:	8b 45 f0             	mov    -0x10(%rbp),%eax
   1c0d2:	89 c6                	mov    %eax,%esi
   1c0d4:	48 8d 3d e1 2d 00 00 	lea    0x2de1(%rip),%rdi        # 1eebc <g_2807+0x180c>
   1c0db:	b8 00 00 00 00       	mov    $0x0,%eax
   1c0e0:	e8 9b df fe ff       	callq  a080 <printf@plt>
   1c0e5:	83 45 f0 01          	addl   $0x1,-0x10(%rbp)
   1c0e9:	83 7d f0 02          	cmpl   $0x2,-0x10(%rbp)
   1c0ed:	7e ad                	jle    1c09c <main+0x264c>
   1c0ef:	c7 45 f0 00 00 00 00 	movl   $0x0,-0x10(%rbp)
   1c0f6:	e9 a2 00 00 00       	jmpq   1c19d <main+0x274d>
   1c0fb:	c7 45 f4 00 00 00 00 	movl   $0x0,-0xc(%rbp)
   1c102:	e9 88 00 00 00       	jmpq   1c18f <main+0x273f>
   1c107:	c7 45 f8 00 00 00 00 	movl   $0x0,-0x8(%rbp)
   1c10e:	eb 75                	jmp    1c185 <main+0x2735>
   1c110:	8b 45 f8             	mov    -0x8(%rbp),%eax
   1c113:	48 63 f0             	movslq %eax,%rsi
   1c116:	8b 45 f0             	mov    -0x10(%rbp),%eax
   1c119:	48 98                	cltq   
   1c11b:	8b 55 f4             	mov    -0xc(%rbp),%edx
   1c11e:	48 63 ca             	movslq %edx,%rcx
   1c121:	48 89 c2             	mov    %rax,%rdx
   1c124:	48 c1 e2 06          	shl    $0x6,%rdx
   1c128:	48 29 c2             	sub    %rax,%rdx
   1c12b:	48 89 c8             	mov    %rcx,%rax
   1c12e:	48 c1 e0 03          	shl    $0x3,%rax
   1c132:	48 29 c8             	sub    %rcx,%rax
   1c135:	48 01 d0             	add    %rdx,%rax
   1c138:	48 01 f0             	add    %rsi,%rax
   1c13b:	48 8d 14 00          	lea    (%rax,%rax,1),%rdx
   1c13f:	48 8d 05 3a 67 00 00 	lea    0x673a(%rip),%rax        # 22880 <g_2406>
   1c146:	0f b7 04 02          	movzwl (%rdx,%rax,1),%eax
   1c14a:	0f b7 c0             	movzwl %ax,%eax
   1c14d:	8b 55 fc             	mov    -0x4(%rbp),%edx
   1c150:	48 8d 35 0a 36 00 00 	lea    0x360a(%rip),%rsi        # 1f761 <g_2807+0x20b1>
   1c157:	48 89 c7             	mov    %rax,%rdi
   1c15a:	e8 94 f5 fe ff       	callq  b6f3 <transparent_crc>
   1c15f:	83 7d fc 00          	cmpl   $0x0,-0x4(%rbp)
   1c163:	74 1c                	je     1c181 <main+0x2731>
   1c165:	8b 4d f8             	mov    -0x8(%rbp),%ecx
   1c168:	8b 55 f4             	mov    -0xc(%rbp),%edx
   1c16b:	8b 45 f0             	mov    -0x10(%rbp),%eax
   1c16e:	89 c6                	mov    %eax,%esi
   1c170:	48 8d 3d 08 2c 00 00 	lea    0x2c08(%rip),%rdi        # 1ed7f <g_2807+0x16cf>
   1c177:	b8 00 00 00 00       	mov    $0x0,%eax
   1c17c:	e8 ff de fe ff       	callq  a080 <printf@plt>
   1c181:	83 45 f8 01          	addl   $0x1,-0x8(%rbp)
   1c185:	83 7d f8 06          	cmpl   $0x6,-0x8(%rbp)
   1c189:	7e 85                	jle    1c110 <main+0x26c0>
   1c18b:	83 45 f4 01          	addl   $0x1,-0xc(%rbp)
   1c18f:	83 7d f4 08          	cmpl   $0x8,-0xc(%rbp)
   1c193:	0f 8e 6e ff ff ff    	jle    1c107 <main+0x26b7>
   1c199:	83 45 f0 01          	addl   $0x1,-0x10(%rbp)
   1c19d:	83 7d f0 03          	cmpl   $0x3,-0x10(%rbp)
   1c1a1:	0f 8e 54 ff ff ff    	jle    1c0fb <main+0x26ab>
   1c1a7:	0f b6 05 ca 68 00 00 	movzbl 0x68ca(%rip),%eax        # 22a78 <g_2419>
   1c1ae:	0f b6 c0             	movzbl %al,%eax
   1c1b1:	8b 55 fc             	mov    -0x4(%rbp),%edx
   1c1b4:	48 8d 35 b6 35 00 00 	lea    0x35b6(%rip),%rsi        # 1f771 <g_2807+0x20c1>
   1c1bb:	48 89 c7             	mov    %rax,%rdi
   1c1be:	e8 30 f5 fe ff       	callq  b6f3 <transparent_crc>
   1c1c3:	8b 05 b7 68 00 00    	mov    0x68b7(%rip),%eax        # 22a80 <g_2424>
   1c1c9:	48 98                	cltq   
   1c1cb:	8b 55 fc             	mov    -0x4(%rbp),%edx
   1c1ce:	48 8d 35 a3 35 00 00 	lea    0x35a3(%rip),%rsi        # 1f778 <g_2807+0x20c8>
   1c1d5:	48 89 c7             	mov    %rax,%rdi
   1c1d8:	e8 16 f5 fe ff       	callq  b6f3 <transparent_crc>
   1c1dd:	0f b7 05 a0 68 00 00 	movzwl 0x68a0(%rip),%eax        # 22a84 <g_2424+0x4>
   1c1e4:	0f b7 c0             	movzwl %ax,%eax
   1c1e7:	8b 55 fc             	mov    -0x4(%rbp),%edx
   1c1ea:	48 8d 35 91 35 00 00 	lea    0x3591(%rip),%rsi        # 1f782 <g_2807+0x20d2>
   1c1f1:	48 89 c7             	mov    %rax,%rdi
   1c1f4:	e8 fa f4 fe ff       	callq  b6f3 <transparent_crc>
   1c1f9:	0f b7 05 86 68 00 00 	movzwl 0x6886(%rip),%eax        # 22a86 <g_2424+0x6>
   1c200:	0f b7 c0             	movzwl %ax,%eax
   1c203:	8b 55 fc             	mov    -0x4(%rbp),%edx
   1c206:	48 8d 35 7f 35 00 00 	lea    0x357f(%rip),%rsi        # 1f78c <g_2807+0x20dc>
   1c20d:	48 89 c7             	mov    %rax,%rdi
   1c210:	e8 de f4 fe ff       	callq  b6f3 <transparent_crc>
   1c215:	8b 05 6d 68 00 00    	mov    0x686d(%rip),%eax        # 22a88 <g_2424+0x8>
   1c21b:	48 98                	cltq   
   1c21d:	8b 55 fc             	mov    -0x4(%rbp),%edx
   1c220:	48 8d 35 6f 35 00 00 	lea    0x356f(%rip),%rsi        # 1f796 <g_2807+0x20e6>
   1c227:	48 89 c7             	mov    %rax,%rdi
   1c22a:	e8 c4 f4 fe ff       	callq  b6f3 <transparent_crc>
   1c22f:	8b 05 57 68 00 00    	mov    0x6857(%rip),%eax        # 22a8c <g_2424+0xc>
   1c235:	48 98                	cltq   
   1c237:	8b 55 fc             	mov    -0x4(%rbp),%edx
   1c23a:	48 8d 35 5f 35 00 00 	lea    0x355f(%rip),%rsi        # 1f7a0 <g_2807+0x20f0>
   1c241:	48 89 c7             	mov    %rax,%rdi
   1c244:	e8 aa f4 fe ff       	callq  b6f3 <transparent_crc>
   1c249:	0f b7 05 40 68 00 00 	movzwl 0x6840(%rip),%eax        # 22a90 <g_2424+0x10>
   1c250:	48 0f bf c0          	movswq %ax,%rax
   1c254:	8b 55 fc             	mov    -0x4(%rbp),%edx
   1c257:	48 8d 35 4c 35 00 00 	lea    0x354c(%rip),%rsi        # 1f7aa <g_2807+0x20fa>
   1c25e:	48 89 c7             	mov    %rax,%rdi
   1c261:	e8 8d f4 fe ff       	callq  b6f3 <transparent_crc>
   1c266:	0f b7 05 25 68 00 00 	movzwl 0x6825(%rip),%eax        # 22a92 <g_2424+0x12>
   1c26d:	48 0f bf c0          	movswq %ax,%rax
   1c271:	8b 55 fc             	mov    -0x4(%rbp),%edx
   1c274:	48 8d 35 39 35 00 00 	lea    0x3539(%rip),%rsi        # 1f7b4 <g_2807+0x2104>
   1c27b:	48 89 c7             	mov    %rax,%rdi
   1c27e:	e8 70 f4 fe ff       	callq  b6f3 <transparent_crc>
   1c283:	0f b7 05 0a 68 00 00 	movzwl 0x680a(%rip),%eax        # 22a94 <g_2424+0x14>
   1c28a:	0f b7 c0             	movzwl %ax,%eax
   1c28d:	8b 55 fc             	mov    -0x4(%rbp),%edx
   1c290:	48 8d 35 27 35 00 00 	lea    0x3527(%rip),%rsi        # 1f7be <g_2807+0x210e>
   1c297:	48 89 c7             	mov    %rax,%rdi
   1c29a:	e8 54 f4 fe ff       	callq  b6f3 <transparent_crc>
   1c29f:	0f b6 05 f0 67 00 00 	movzbl 0x67f0(%rip),%eax        # 22a96 <g_2424+0x16>
   1c2a6:	48 0f be c0          	movsbq %al,%rax
   1c2aa:	8b 55 fc             	mov    -0x4(%rbp),%edx
   1c2ad:	48 8d 35 14 35 00 00 	lea    0x3514(%rip),%rsi        # 1f7c8 <g_2807+0x2118>
   1c2b4:	48 89 c7             	mov    %rax,%rdi
   1c2b7:	e8 37 f4 fe ff       	callq  b6f3 <transparent_crc>
   1c2bc:	8b 05 d6 67 00 00    	mov    0x67d6(%rip),%eax        # 22a98 <g_2424+0x18>
   1c2c2:	89 c1                	mov    %eax,%ecx
   1c2c4:	8b 45 fc             	mov    -0x4(%rbp),%eax
   1c2c7:	89 c2                	mov    %eax,%edx
   1c2c9:	48 8d 35 02 35 00 00 	lea    0x3502(%rip),%rsi        # 1f7d2 <g_2807+0x2122>
   1c2d0:	48 89 cf             	mov    %rcx,%rdi
   1c2d3:	e8 1b f4 fe ff       	callq  b6f3 <transparent_crc>
   1c2d8:	c7 45 f0 00 00 00 00 	movl   $0x0,-0x10(%rbp)
   1c2df:	eb 4d                	jmp    1c32e <main+0x28de>
   1c2e1:	8b 45 f0             	mov    -0x10(%rbp),%eax
   1c2e4:	48 98                	cltq   
   1c2e6:	48 8d 14 85 00 00 00 	lea    0x0(,%rax,4),%rdx
   1c2ed:	00 
   1c2ee:	48 8d 05 0b a9 00 00 	lea    0xa90b(%rip),%rax        # 26c00 <g_2526>
   1c2f5:	8b 04 02             	mov    (%rdx,%rax,1),%eax
   1c2f8:	89 c1                	mov    %eax,%ecx
   1c2fa:	8b 45 fc             	mov    -0x4(%rbp),%eax
   1c2fd:	89 c2                	mov    %eax,%edx
   1c2ff:	48 8d 35 d6 34 00 00 	lea    0x34d6(%rip),%rsi        # 1f7dc <g_2807+0x212c>
   1c306:	48 89 cf             	mov    %rcx,%rdi
   1c309:	e8 e5 f3 fe ff       	callq  b6f3 <transparent_crc>
   1c30e:	83 7d fc 00          	cmpl   $0x0,-0x4(%rbp)
   1c312:	74 16                	je     1c32a <main+0x28da>
   1c314:	8b 45 f0             	mov    -0x10(%rbp),%eax
   1c317:	89 c6                	mov    %eax,%esi
   1c319:	48 8d 3d 9c 2b 00 00 	lea    0x2b9c(%rip),%rdi        # 1eebc <g_2807+0x180c>
   1c320:	b8 00 00 00 00       	mov    $0x0,%eax
   1c325:	e8 56 dd fe ff       	callq  a080 <printf@plt>
   1c32a:	83 45 f0 01          	addl   $0x1,-0x10(%rbp)
   1c32e:	83 7d f0 04          	cmpl   $0x4,-0x10(%rbp)
   1c332:	7e ad                	jle    1c2e1 <main+0x2891>
   1c334:	b8 17 b8 1c bc       	mov    $0xbc1cb817,%eax
   1c339:	48 98                	cltq   
   1c33b:	8b 55 fc             	mov    -0x4(%rbp),%edx
   1c33e:	48 8d 35 a1 34 00 00 	lea    0x34a1(%rip),%rsi        # 1f7e6 <g_2807+0x2136>
   1c345:	48 89 c7             	mov    %rax,%rdi
   1c348:	e8 a6 f3 fe ff       	callq  b6f3 <transparent_crc>
   1c34d:	b8 10 83 ff ff       	mov    $0xffff8310,%eax
   1c352:	0f b7 c0             	movzwl %ax,%eax
   1c355:	8b 55 fc             	mov    -0x4(%rbp),%edx
   1c358:	48 8d 35 91 34 00 00 	lea    0x3491(%rip),%rsi        # 1f7f0 <g_2807+0x2140>
   1c35f:	48 89 c7             	mov    %rax,%rdi
   1c362:	e8 8c f3 fe ff       	callq  b6f3 <transparent_crc>
   1c367:	b8 01 00 00 00       	mov    $0x1,%eax
   1c36c:	0f b7 c0             	movzwl %ax,%eax
   1c36f:	8b 55 fc             	mov    -0x4(%rbp),%edx
   1c372:	48 8d 35 81 34 00 00 	lea    0x3481(%rip),%rsi        # 1f7fa <g_2807+0x214a>
   1c379:	48 89 c7             	mov    %rax,%rdi
   1c37c:	e8 72 f3 fe ff       	callq  b6f3 <transparent_crc>
   1c381:	b8 b6 37 98 91       	mov    $0x919837b6,%eax
   1c386:	48 98                	cltq   
   1c388:	8b 55 fc             	mov    -0x4(%rbp),%edx
   1c38b:	48 8d 35 72 34 00 00 	lea    0x3472(%rip),%rsi        # 1f804 <g_2807+0x2154>
   1c392:	48 89 c7             	mov    %rax,%rdi
   1c395:	e8 59 f3 fe ff       	callq  b6f3 <transparent_crc>
   1c39a:	b8 12 fa 94 09       	mov    $0x994fa12,%eax
   1c39f:	48 98                	cltq   
   1c3a1:	8b 55 fc             	mov    -0x4(%rbp),%edx
   1c3a4:	48 8d 35 63 34 00 00 	lea    0x3463(%rip),%rsi        # 1f80e <g_2807+0x215e>
   1c3ab:	48 89 c7             	mov    %rax,%rdi
   1c3ae:	e8 40 f3 fe ff       	callq  b6f3 <transparent_crc>
   1c3b3:	0f b7 05 e6 12 00 00 	movzwl 0x12e6(%rip),%eax        # 1d6a0 <g_2600+0x10>
   1c3ba:	48 0f bf c0          	movswq %ax,%rax
   1c3be:	8b 55 fc             	mov    -0x4(%rbp),%edx
   1c3c1:	48 8d 35 50 34 00 00 	lea    0x3450(%rip),%rsi        # 1f818 <g_2807+0x2168>
   1c3c8:	48 89 c7             	mov    %rax,%rdi
   1c3cb:	e8 23 f3 fe ff       	callq  b6f3 <transparent_crc>
   1c3d0:	b8 89 98 ff ff       	mov    $0xffff9889,%eax
   1c3d5:	48 0f bf c0          	movswq %ax,%rax
   1c3d9:	8b 55 fc             	mov    -0x4(%rbp),%edx
   1c3dc:	48 8d 35 3f 34 00 00 	lea    0x343f(%rip),%rsi        # 1f822 <g_2807+0x2172>
   1c3e3:	48 89 c7             	mov    %rax,%rdi
   1c3e6:	e8 08 f3 fe ff       	callq  b6f3 <transparent_crc>
   1c3eb:	b8 ff ff ff ff       	mov    $0xffffffff,%eax
   1c3f0:	0f b7 c0             	movzwl %ax,%eax
   1c3f3:	8b 55 fc             	mov    -0x4(%rbp),%edx
   1c3f6:	48 8d 35 2f 34 00 00 	lea    0x342f(%rip),%rsi        # 1f82c <g_2807+0x217c>
   1c3fd:	48 89 c7             	mov    %rax,%rdi
   1c400:	e8 ee f2 fe ff       	callq  b6f3 <transparent_crc>
   1c405:	0f b6 05 9a 12 00 00 	movzbl 0x129a(%rip),%eax        # 1d6a6 <g_2600+0x16>
   1c40c:	48 0f be c0          	movsbq %al,%rax
   1c410:	8b 55 fc             	mov    -0x4(%rbp),%edx
   1c413:	48 8d 35 1c 34 00 00 	lea    0x341c(%rip),%rsi        # 1f836 <g_2807+0x2186>
   1c41a:	48 89 c7             	mov    %rax,%rdi
   1c41d:	e8 d1 f2 fe ff       	callq  b6f3 <transparent_crc>
   1c422:	b8 ff ff ff ff       	mov    $0xffffffff,%eax
   1c427:	89 c1                	mov    %eax,%ecx
   1c429:	8b 45 fc             	mov    -0x4(%rbp),%eax
   1c42c:	89 c2                	mov    %eax,%edx
   1c42e:	48 8d 35 0b 34 00 00 	lea    0x340b(%rip),%rsi        # 1f840 <g_2807+0x2190>
   1c435:	48 89 cf             	mov    %rcx,%rdi
   1c438:	e8 b6 f2 fe ff       	callq  b6f3 <transparent_crc>
   1c43d:	8b 05 59 66 00 00    	mov    0x6659(%rip),%eax        # 22a9c <g_2609>
   1c443:	89 c1                	mov    %eax,%ecx
   1c445:	8b 45 fc             	mov    -0x4(%rbp),%eax
   1c448:	89 c2                	mov    %eax,%edx
   1c44a:	48 8d 35 f9 33 00 00 	lea    0x33f9(%rip),%rsi        # 1f84a <g_2807+0x219a>
   1c451:	48 89 cf             	mov    %rcx,%rdi
   1c454:	e8 9a f2 fe ff       	callq  b6f3 <transparent_crc>
   1c459:	0f b6 05 40 66 00 00 	movzbl 0x6640(%rip),%eax        # 22aa0 <g_2685>
   1c460:	0f b6 c0             	movzbl %al,%eax
   1c463:	8b 55 fc             	mov    -0x4(%rbp),%edx
   1c466:	48 8d 35 e4 33 00 00 	lea    0x33e4(%rip),%rsi        # 1f851 <g_2807+0x21a1>
   1c46d:	48 89 c7             	mov    %rax,%rdi
   1c470:	e8 7e f2 fe ff       	callq  b6f3 <transparent_crc>
   1c475:	b8 c8 79 3b ef       	mov    $0xef3b79c8,%eax
   1c47a:	48 98                	cltq   
   1c47c:	8b 55 fc             	mov    -0x4(%rbp),%edx
   1c47f:	48 8d 35 d2 33 00 00 	lea    0x33d2(%rip),%rsi        # 1f858 <g_2807+0x21a8>
   1c486:	48 89 c7             	mov    %rax,%rdi
   1c489:	e8 65 f2 fe ff       	callq  b6f3 <transparent_crc>
   1c48e:	b8 05 00 00 00       	mov    $0x5,%eax
   1c493:	0f b7 c0             	movzwl %ax,%eax
   1c496:	8b 55 fc             	mov    -0x4(%rbp),%edx
   1c499:	48 8d 35 c2 33 00 00 	lea    0x33c2(%rip),%rsi        # 1f862 <g_2807+0x21b2>
   1c4a0:	48 89 c7             	mov    %rax,%rdi
   1c4a3:	e8 4b f2 fe ff       	callq  b6f3 <transparent_crc>
   1c4a8:	b8 01 00 00 00       	mov    $0x1,%eax
   1c4ad:	0f b7 c0             	movzwl %ax,%eax
   1c4b0:	8b 55 fc             	mov    -0x4(%rbp),%edx
   1c4b3:	48 8d 35 b2 33 00 00 	lea    0x33b2(%rip),%rsi        # 1f86c <g_2807+0x21bc>
   1c4ba:	48 89 c7             	mov    %rax,%rdi
   1c4bd:	e8 31 f2 fe ff       	callq  b6f3 <transparent_crc>
   1c4c2:	b8 68 f4 1b 6e       	mov    $0x6e1bf468,%eax
   1c4c7:	48 98                	cltq   
   1c4c9:	8b 55 fc             	mov    -0x4(%rbp),%edx
   1c4cc:	48 8d 35 a3 33 00 00 	lea    0x33a3(%rip),%rsi        # 1f876 <g_2807+0x21c6>
   1c4d3:	48 89 c7             	mov    %rax,%rdi
   1c4d6:	e8 18 f2 fe ff       	callq  b6f3 <transparent_crc>
   1c4db:	b8 01 00 00 00       	mov    $0x1,%eax
   1c4e0:	48 98                	cltq   
   1c4e2:	8b 55 fc             	mov    -0x4(%rbp),%edx
   1c4e5:	48 8d 35 94 33 00 00 	lea    0x3394(%rip),%rsi        # 1f880 <g_2807+0x21d0>
   1c4ec:	48 89 c7             	mov    %rax,%rdi
   1c4ef:	e8 ff f1 fe ff       	callq  b6f3 <transparent_crc>
   1c4f4:	0f b7 05 c5 11 00 00 	movzwl 0x11c5(%rip),%eax        # 1d6c0 <g_2807+0x10>
   1c4fb:	48 0f bf c0          	movswq %ax,%rax
   1c4ff:	8b 55 fc             	mov    -0x4(%rbp),%edx
   1c502:	48 8d 35 81 33 00 00 	lea    0x3381(%rip),%rsi        # 1f88a <g_2807+0x21da>
   1c509:	48 89 c7             	mov    %rax,%rdi
   1c50c:	e8 e2 f1 fe ff       	callq  b6f3 <transparent_crc>
   1c511:	b8 e5 8a ff ff       	mov    $0xffff8ae5,%eax
   1c516:	48 0f bf c0          	movswq %ax,%rax
   1c51a:	8b 55 fc             	mov    -0x4(%rbp),%edx
   1c51d:	48 8d 35 70 33 00 00 	lea    0x3370(%rip),%rsi        # 1f894 <g_2807+0x21e4>
   1c524:	48 89 c7             	mov    %rax,%rdi
   1c527:	e8 c7 f1 fe ff       	callq  b6f3 <transparent_crc>
   1c52c:	b8 07 00 00 00       	mov    $0x7,%eax
   1c531:	0f b7 c0             	movzwl %ax,%eax
   1c534:	8b 55 fc             	mov    -0x4(%rbp),%edx
   1c537:	48 8d 35 60 33 00 00 	lea    0x3360(%rip),%rsi        # 1f89e <g_2807+0x21ee>
   1c53e:	48 89 c7             	mov    %rax,%rdi
   1c541:	e8 ad f1 fe ff       	callq  b6f3 <transparent_crc>
   1c546:	0f b6 05 79 11 00 00 	movzbl 0x1179(%rip),%eax        # 1d6c6 <g_2807+0x16>
   1c54d:	48 0f be c0          	movsbq %al,%rax
   1c551:	8b 55 fc             	mov    -0x4(%rbp),%edx
   1c554:	48 8d 35 4d 33 00 00 	lea    0x334d(%rip),%rsi        # 1f8a8 <g_2807+0x21f8>
   1c55b:	48 89 c7             	mov    %rax,%rdi
   1c55e:	e8 90 f1 fe ff       	callq  b6f3 <transparent_crc>
   1c563:	b8 cd e4 b0 f5       	mov    $0xf5b0e4cd,%eax
   1c568:	89 c1                	mov    %eax,%ecx
   1c56a:	8b 45 fc             	mov    -0x4(%rbp),%eax
   1c56d:	89 c2                	mov    %eax,%edx
   1c56f:	48 8d 35 3c 33 00 00 	lea    0x333c(%rip),%rsi        # 1f8b2 <g_2807+0x2202>
   1c576:	48 89 cf             	mov    %rcx,%rdi
   1c579:	e8 75 f1 fe ff       	callq  b6f3 <transparent_crc>
   1c57e:	8b 05 9c 5a 00 00    	mov    0x5a9c(%rip),%eax        # 22020 <crc32_context>
   1c584:	f7 d0                	not    %eax
   1c586:	89 c2                	mov    %eax,%edx
   1c588:	8b 45 fc             	mov    -0x4(%rbp),%eax
   1c58b:	89 c6                	mov    %eax,%esi
   1c58d:	89 d7                	mov    %edx,%edi
   1c58f:	e8 00 dc fe ff       	callq  a194 <platform_main_end>
   1c594:	b8 00 00 00 00       	mov    $0x0,%eax
   1c599:	c9                   	leaveq 
   1c59a:	c3                   	retq   
   1c59b:	0f 1f 44 00 00       	nopl   0x0(%rax,%rax,1)

000000000001c5a0 <__libc_csu_init>:
   1c5a0:	f3 0f 1e fa          	endbr64 
   1c5a4:	41 57                	push   %r15
   1c5a6:	4c 8d 3d 03 56 00 00 	lea    0x5603(%rip),%r15        # 21bb0 <__frame_dummy_init_array_entry>
   1c5ad:	41 56                	push   %r14
   1c5af:	49 89 d6             	mov    %rdx,%r14
   1c5b2:	41 55                	push   %r13
   1c5b4:	49 89 f5             	mov    %rsi,%r13
   1c5b7:	41 54                	push   %r12
   1c5b9:	41 89 fc             	mov    %edi,%r12d
   1c5bc:	55                   	push   %rbp
   1c5bd:	48 8d 2d f4 55 00 00 	lea    0x55f4(%rip),%rbp        # 21bb8 <__do_global_dtors_aux_fini_array_entry>
   1c5c4:	53                   	push   %rbx
   1c5c5:	4c 29 fd             	sub    %r15,%rbp
   1c5c8:	48 83 ec 08          	sub    $0x8,%rsp
   1c5cc:	e8 2f da fe ff       	callq  a000 <_init>
   1c5d1:	48 c1 fd 03          	sar    $0x3,%rbp
   1c5d5:	74 1f                	je     1c5f6 <__libc_csu_init+0x56>
   1c5d7:	31 db                	xor    %ebx,%ebx
   1c5d9:	0f 1f 80 00 00 00 00 	nopl   0x0(%rax)
   1c5e0:	4c 89 f2             	mov    %r14,%rdx
   1c5e3:	4c 89 ee             	mov    %r13,%rsi
   1c5e6:	44 89 e7             	mov    %r12d,%edi
   1c5e9:	41 ff 14 df          	callq  *(%r15,%rbx,8)
   1c5ed:	48 83 c3 01          	add    $0x1,%rbx
   1c5f1:	48 39 dd             	cmp    %rbx,%rbp
   1c5f4:	75 ea                	jne    1c5e0 <__libc_csu_init+0x40>
   1c5f6:	48 83 c4 08          	add    $0x8,%rsp
   1c5fa:	5b                   	pop    %rbx
   1c5fb:	5d                   	pop    %rbp
   1c5fc:	41 5c                	pop    %r12
   1c5fe:	41 5d                	pop    %r13
   1c600:	41 5e                	pop    %r14
   1c602:	41 5f                	pop    %r15
   1c604:	c3                   	retq   
   1c605:	66 66 2e 0f 1f 84 00 	data16 nopw %cs:0x0(%rax,%rax,1)
   1c60c:	00 00 00 00 

000000000001c610 <__libc_csu_fini>:
   1c610:	f3 0f 1e fa          	endbr64 
   1c614:	c3                   	retq   
