


Disassembly of section .text:

000000000000c0a0 <_start>:
    c0a0:	f3 0f 1e fa          	endbr64 
    c0a4:	31 ed                	xor    %ebp,%ebp
    c0a6:	49 89 d1             	mov    %rdx,%r9
    c0a9:	5e                   	pop    %rsi
    c0aa:	48 89 e2             	mov    %rsp,%rdx
    c0ad:	48 83 e4 f0          	and    $0xfffffffffffffff0,%rsp
    c0b1:	50                   	push   %rax
    c0b2:	54                   	push   %rsp
    c0b3:	4c 8d 05 66 b0 00 00 	lea    0xb066(%rip),%r8        # 17120 <__libc_csu_fini>
    c0ba:	48 8d 0d ef af 00 00 	lea    0xafef(%rip),%rcx        # 170b0 <__libc_csu_init>
    c0c1:	48 8d 3d c3 83 00 00 	lea    0x83c3(%rip),%rdi        # 1448b <main>
    c0c8:	ff 15 0a ff 00 00    	callq  *0xff0a(%rip)        # 1bfd8 <__libc_start_main@GLIBC_2.2.5>
    c0ce:	f4                   	hlt    
    c0cf:	90                   	nop

000000000000c0d0 <deregister_tm_clones>:
    c0d0:	48 8d 3d e1 67 01 00 	lea    0x167e1(%rip),%rdi        # 228b8 <__TMC_END__>
    c0d7:	48 8d 05 da 67 01 00 	lea    0x167da(%rip),%rax        # 228b8 <__TMC_END__>
    c0de:	48 39 f8             	cmp    %rdi,%rax
    c0e1:	74 15                	je     c0f8 <deregister_tm_clones+0x28>
    c0e3:	48 8b 05 e6 fe 00 00 	mov    0xfee6(%rip),%rax        # 1bfd0 <_ITM_deregisterTMCloneTable>
    c0ea:	48 85 c0             	test   %rax,%rax
    c0ed:	74 09                	je     c0f8 <deregister_tm_clones+0x28>
    c0ef:	ff e0                	jmpq   *%rax
    c0f1:	0f 1f 80 00 00 00 00 	nopl   0x0(%rax)
    c0f8:	c3                   	retq   
    c0f9:	0f 1f 80 00 00 00 00 	nopl   0x0(%rax)

000000000000c100 <register_tm_clones>:
    c100:	48 8d 3d b1 67 01 00 	lea    0x167b1(%rip),%rdi        # 228b8 <__TMC_END__>
    c107:	48 8d 35 aa 67 01 00 	lea    0x167aa(%rip),%rsi        # 228b8 <__TMC_END__>
    c10e:	48 29 fe             	sub    %rdi,%rsi
    c111:	48 89 f0             	mov    %rsi,%rax
    c114:	48 c1 ee 3f          	shr    $0x3f,%rsi
    c118:	48 c1 f8 03          	sar    $0x3,%rax
    c11c:	48 01 c6             	add    %rax,%rsi
    c11f:	48 d1 fe             	sar    %rsi
    c122:	74 14                	je     c138 <register_tm_clones+0x38>
    c124:	48 8b 05 bd fe 00 00 	mov    0xfebd(%rip),%rax        # 1bfe8 <_ITM_registerTMCloneTable>
    c12b:	48 85 c0             	test   %rax,%rax
    c12e:	74 08                	je     c138 <register_tm_clones+0x38>
    c130:	ff e0                	jmpq   *%rax
    c132:	66 0f 1f 44 00 00    	nopw   0x0(%rax,%rax,1)
    c138:	c3                   	retq   
    c139:	0f 1f 80 00 00 00 00 	nopl   0x0(%rax)

000000000000c140 <__do_global_dtors_aux>:
    c140:	f3 0f 1e fa          	endbr64 
    c144:	80 3d 75 67 01 00 00 	cmpb   $0x0,0x16775(%rip)        # 228c0 <completed.8061>
    c14b:	75 2b                	jne    c178 <__do_global_dtors_aux+0x38>
    c14d:	55                   	push   %rbp
    c14e:	48 83 3d 9a fe 00 00 	cmpq   $0x0,0xfe9a(%rip)        # 1bff0 <__cxa_finalize@GLIBC_2.2.5>
    c155:	00 
    c156:	48 89 e5             	mov    %rsp,%rbp
    c159:	74 0c                	je     c167 <__do_global_dtors_aux+0x27>
    c15b:	48 8b 3d a6 fe 00 00 	mov    0xfea6(%rip),%rdi        # 1c008 <__dso_handle>
    c162:	e8 f9 fe ff ff       	callq  c060 <__cxa_finalize@plt>
    c167:	e8 64 ff ff ff       	callq  c0d0 <deregister_tm_clones>
    c16c:	c6 05 4d 67 01 00 01 	movb   $0x1,0x1674d(%rip)        # 228c0 <completed.8061>
    c173:	5d                   	pop    %rbp
    c174:	c3                   	retq   
    c175:	0f 1f 00             	nopl   (%rax)
    c178:	c3                   	retq   
    c179:	0f 1f 80 00 00 00 00 	nopl   0x0(%rax)

000000000000c180 <frame_dummy>:
    c180:	f3 0f 1e fa          	endbr64 
    c184:	e9 77 ff ff ff       	jmpq   c100 <register_tm_clones>

000000000000c189 <platform_main_begin>:
    c189:	f3 0f 1e fa          	endbr64 
    c18d:	55                   	push   %rbp
    c18e:	48 89 e5             	mov    %rsp,%rbp
    c191:	90                   	nop
    c192:	5d                   	pop    %rbp
    c193:	c3                   	retq   

000000000000c194 <platform_main_end>:
    c194:	f3 0f 1e fa          	endbr64 
    c198:	55                   	push   %rbp
    c199:	48 89 e5             	mov    %rsp,%rbp
    c19c:	48 83 ec 10          	sub    $0x10,%rsp
    c1a0:	89 7d fc             	mov    %edi,-0x4(%rbp)
    c1a3:	89 75 f8             	mov    %esi,-0x8(%rbp)
    c1a6:	8b 45 fc             	mov    -0x4(%rbp),%eax
    c1a9:	89 c6                	mov    %eax,%esi
    c1ab:	48 8d 3d 6e be 00 00 	lea    0xbe6e(%rip),%rdi        # 18020 <_IO_stdin_used+0x20>
    c1b2:	b8 00 00 00 00       	mov    $0x0,%eax
    c1b7:	e8 c4 fe ff ff       	callq  c080 <printf@plt>
    c1bc:	90                   	nop
    c1bd:	c9                   	leaveq 
    c1be:	c3                   	retq   

000000000000c1bf <safe_unary_minus_func_int8_t_s>:
    c1bf:	f3 0f 1e fa          	endbr64 
    c1c3:	55                   	push   %rbp
    c1c4:	48 89 e5             	mov    %rsp,%rbp
    c1c7:	89 f8                	mov    %edi,%eax
    c1c9:	88 45 fc             	mov    %al,-0x4(%rbp)
    c1cc:	0f b6 45 fc          	movzbl -0x4(%rbp),%eax
    c1d0:	f7 d8                	neg    %eax
    c1d2:	5d                   	pop    %rbp
    c1d3:	c3                   	retq   

000000000000c1d4 <safe_add_func_int8_t_s_s>:
    c1d4:	f3 0f 1e fa          	endbr64 
    c1d8:	55                   	push   %rbp
    c1d9:	48 89 e5             	mov    %rsp,%rbp
    c1dc:	89 fa                	mov    %edi,%edx
    c1de:	89 f0                	mov    %esi,%eax
    c1e0:	88 55 fc             	mov    %dl,-0x4(%rbp)
    c1e3:	88 45 f8             	mov    %al,-0x8(%rbp)
    c1e6:	0f b6 55 fc          	movzbl -0x4(%rbp),%edx
    c1ea:	0f b6 45 f8          	movzbl -0x8(%rbp),%eax
    c1ee:	01 d0                	add    %edx,%eax
    c1f0:	5d                   	pop    %rbp
    c1f1:	c3                   	retq   

000000000000c1f2 <safe_sub_func_int8_t_s_s>:
    c1f2:	f3 0f 1e fa          	endbr64 
    c1f6:	55                   	push   %rbp
    c1f7:	48 89 e5             	mov    %rsp,%rbp
    c1fa:	89 fa                	mov    %edi,%edx
    c1fc:	89 f0                	mov    %esi,%eax
    c1fe:	88 55 fc             	mov    %dl,-0x4(%rbp)
    c201:	88 45 f8             	mov    %al,-0x8(%rbp)
    c204:	0f b6 55 fc          	movzbl -0x4(%rbp),%edx
    c208:	0f b6 45 f8          	movzbl -0x8(%rbp),%eax
    c20c:	29 c2                	sub    %eax,%edx
    c20e:	89 d0                	mov    %edx,%eax
    c210:	5d                   	pop    %rbp
    c211:	c3                   	retq   

000000000000c212 <safe_mul_func_int8_t_s_s>:
    c212:	f3 0f 1e fa          	endbr64 
    c216:	55                   	push   %rbp
    c217:	48 89 e5             	mov    %rsp,%rbp
    c21a:	89 fa                	mov    %edi,%edx
    c21c:	89 f0                	mov    %esi,%eax
    c21e:	88 55 fc             	mov    %dl,-0x4(%rbp)
    c221:	88 45 f8             	mov    %al,-0x8(%rbp)
    c224:	0f b6 45 fc          	movzbl -0x4(%rbp),%eax
    c228:	0f b6 55 f8          	movzbl -0x8(%rbp),%edx
    c22c:	0f af c2             	imul   %edx,%eax
    c22f:	5d                   	pop    %rbp
    c230:	c3                   	retq   

000000000000c231 <safe_mod_func_int8_t_s_s>:
    c231:	f3 0f 1e fa          	endbr64 
    c235:	55                   	push   %rbp
    c236:	48 89 e5             	mov    %rsp,%rbp
    c239:	89 fa                	mov    %edi,%edx
    c23b:	89 f0                	mov    %esi,%eax
    c23d:	88 55 fc             	mov    %dl,-0x4(%rbp)
    c240:	88 45 f8             	mov    %al,-0x8(%rbp)
    c243:	80 7d f8 00          	cmpb   $0x0,-0x8(%rbp)
    c247:	74 1b                	je     c264 <safe_mod_func_int8_t_s_s+0x33>
    c249:	80 7d fc 80          	cmpb   $0x80,-0x4(%rbp)
    c24d:	75 06                	jne    c255 <safe_mod_func_int8_t_s_s+0x24>
    c24f:	80 7d f8 ff          	cmpb   $0xff,-0x8(%rbp)
    c253:	74 0f                	je     c264 <safe_mod_func_int8_t_s_s+0x33>
    c255:	0f be 45 fc          	movsbl -0x4(%rbp),%eax
    c259:	0f be 4d f8          	movsbl -0x8(%rbp),%ecx
    c25d:	99                   	cltd   
    c25e:	f7 f9                	idiv   %ecx
    c260:	89 d0                	mov    %edx,%eax
    c262:	eb 04                	jmp    c268 <safe_mod_func_int8_t_s_s+0x37>
    c264:	0f b6 45 fc          	movzbl -0x4(%rbp),%eax
    c268:	5d                   	pop    %rbp
    c269:	c3                   	retq   

000000000000c26a <safe_div_func_int8_t_s_s>:
    c26a:	f3 0f 1e fa          	endbr64 
    c26e:	55                   	push   %rbp
    c26f:	48 89 e5             	mov    %rsp,%rbp
    c272:	89 fa                	mov    %edi,%edx
    c274:	89 f0                	mov    %esi,%eax
    c276:	88 55 fc             	mov    %dl,-0x4(%rbp)
    c279:	88 45 f8             	mov    %al,-0x8(%rbp)
    c27c:	80 7d f8 00          	cmpb   $0x0,-0x8(%rbp)
    c280:	74 19                	je     c29b <safe_div_func_int8_t_s_s+0x31>
    c282:	80 7d fc 80          	cmpb   $0x80,-0x4(%rbp)
    c286:	75 06                	jne    c28e <safe_div_func_int8_t_s_s+0x24>
    c288:	80 7d f8 ff          	cmpb   $0xff,-0x8(%rbp)
    c28c:	74 0d                	je     c29b <safe_div_func_int8_t_s_s+0x31>
    c28e:	0f be 45 fc          	movsbl -0x4(%rbp),%eax
    c292:	0f be 4d f8          	movsbl -0x8(%rbp),%ecx
    c296:	99                   	cltd   
    c297:	f7 f9                	idiv   %ecx
    c299:	eb 04                	jmp    c29f <safe_div_func_int8_t_s_s+0x35>
    c29b:	0f b6 45 fc          	movzbl -0x4(%rbp),%eax
    c29f:	5d                   	pop    %rbp
    c2a0:	c3                   	retq   

000000000000c2a1 <safe_lshift_func_int8_t_s_s>:
    c2a1:	f3 0f 1e fa          	endbr64 
    c2a5:	55                   	push   %rbp
    c2a6:	48 89 e5             	mov    %rsp,%rbp
    c2a9:	89 f8                	mov    %edi,%eax
    c2ab:	89 75 f8             	mov    %esi,-0x8(%rbp)
    c2ae:	88 45 fc             	mov    %al,-0x4(%rbp)
    c2b1:	80 7d fc 00          	cmpb   $0x0,-0x4(%rbp)
    c2b5:	78 31                	js     c2e8 <safe_lshift_func_int8_t_s_s+0x47>
    c2b7:	83 7d f8 00          	cmpl   $0x0,-0x8(%rbp)
    c2bb:	78 2b                	js     c2e8 <safe_lshift_func_int8_t_s_s+0x47>
    c2bd:	83 7d f8 1f          	cmpl   $0x1f,-0x8(%rbp)
    c2c1:	7f 25                	jg     c2e8 <safe_lshift_func_int8_t_s_s+0x47>
    c2c3:	0f be 55 fc          	movsbl -0x4(%rbp),%edx
    c2c7:	8b 45 f8             	mov    -0x8(%rbp),%eax
    c2ca:	be 7f 00 00 00       	mov    $0x7f,%esi
    c2cf:	89 c1                	mov    %eax,%ecx
    c2d1:	d3 fe                	sar    %cl,%esi
    c2d3:	89 f0                	mov    %esi,%eax
    c2d5:	39 c2                	cmp    %eax,%edx
    c2d7:	7f 0f                	jg     c2e8 <safe_lshift_func_int8_t_s_s+0x47>
    c2d9:	0f be 55 fc          	movsbl -0x4(%rbp),%edx
    c2dd:	8b 45 f8             	mov    -0x8(%rbp),%eax
    c2e0:	89 c1                	mov    %eax,%ecx
    c2e2:	d3 e2                	shl    %cl,%edx
    c2e4:	89 d0                	mov    %edx,%eax
    c2e6:	eb 04                	jmp    c2ec <safe_lshift_func_int8_t_s_s+0x4b>
    c2e8:	0f b6 45 fc          	movzbl -0x4(%rbp),%eax
    c2ec:	5d                   	pop    %rbp
    c2ed:	c3                   	retq   

000000000000c2ee <safe_lshift_func_int8_t_s_u>:
    c2ee:	f3 0f 1e fa          	endbr64 
    c2f2:	55                   	push   %rbp
    c2f3:	48 89 e5             	mov    %rsp,%rbp
    c2f6:	89 f8                	mov    %edi,%eax
    c2f8:	89 75 f8             	mov    %esi,-0x8(%rbp)
    c2fb:	88 45 fc             	mov    %al,-0x4(%rbp)
    c2fe:	80 7d fc 00          	cmpb   $0x0,-0x4(%rbp)
    c302:	78 2b                	js     c32f <safe_lshift_func_int8_t_s_u+0x41>
    c304:	83 7d f8 1f          	cmpl   $0x1f,-0x8(%rbp)
    c308:	77 25                	ja     c32f <safe_lshift_func_int8_t_s_u+0x41>
    c30a:	0f be 55 fc          	movsbl -0x4(%rbp),%edx
    c30e:	8b 45 f8             	mov    -0x8(%rbp),%eax
    c311:	be 7f 00 00 00       	mov    $0x7f,%esi
    c316:	89 c1                	mov    %eax,%ecx
    c318:	d3 fe                	sar    %cl,%esi
    c31a:	89 f0                	mov    %esi,%eax
    c31c:	39 c2                	cmp    %eax,%edx
    c31e:	7f 0f                	jg     c32f <safe_lshift_func_int8_t_s_u+0x41>
    c320:	0f be 55 fc          	movsbl -0x4(%rbp),%edx
    c324:	8b 45 f8             	mov    -0x8(%rbp),%eax
    c327:	89 c1                	mov    %eax,%ecx
    c329:	d3 e2                	shl    %cl,%edx
    c32b:	89 d0                	mov    %edx,%eax
    c32d:	eb 04                	jmp    c333 <safe_lshift_func_int8_t_s_u+0x45>
    c32f:	0f b6 45 fc          	movzbl -0x4(%rbp),%eax
    c333:	5d                   	pop    %rbp
    c334:	c3                   	retq   

000000000000c335 <safe_rshift_func_int8_t_s_s>:
    c335:	f3 0f 1e fa          	endbr64 
    c339:	55                   	push   %rbp
    c33a:	48 89 e5             	mov    %rsp,%rbp
    c33d:	89 f8                	mov    %edi,%eax
    c33f:	89 75 f8             	mov    %esi,-0x8(%rbp)
    c342:	88 45 fc             	mov    %al,-0x4(%rbp)
    c345:	80 7d fc 00          	cmpb   $0x0,-0x4(%rbp)
    c349:	78 1b                	js     c366 <safe_rshift_func_int8_t_s_s+0x31>
    c34b:	83 7d f8 00          	cmpl   $0x0,-0x8(%rbp)
    c34f:	78 15                	js     c366 <safe_rshift_func_int8_t_s_s+0x31>
    c351:	83 7d f8 1f          	cmpl   $0x1f,-0x8(%rbp)
    c355:	7f 0f                	jg     c366 <safe_rshift_func_int8_t_s_s+0x31>
    c357:	0f be 55 fc          	movsbl -0x4(%rbp),%edx
    c35b:	8b 45 f8             	mov    -0x8(%rbp),%eax
    c35e:	89 c1                	mov    %eax,%ecx
    c360:	d3 fa                	sar    %cl,%edx
    c362:	89 d0                	mov    %edx,%eax
    c364:	eb 04                	jmp    c36a <safe_rshift_func_int8_t_s_s+0x35>
    c366:	0f b6 45 fc          	movzbl -0x4(%rbp),%eax
    c36a:	5d                   	pop    %rbp
    c36b:	c3                   	retq   

000000000000c36c <safe_rshift_func_int8_t_s_u>:
    c36c:	f3 0f 1e fa          	endbr64 
    c370:	55                   	push   %rbp
    c371:	48 89 e5             	mov    %rsp,%rbp
    c374:	89 f8                	mov    %edi,%eax
    c376:	89 75 f8             	mov    %esi,-0x8(%rbp)
    c379:	88 45 fc             	mov    %al,-0x4(%rbp)
    c37c:	80 7d fc 00          	cmpb   $0x0,-0x4(%rbp)
    c380:	78 15                	js     c397 <safe_rshift_func_int8_t_s_u+0x2b>
    c382:	83 7d f8 1f          	cmpl   $0x1f,-0x8(%rbp)
    c386:	77 0f                	ja     c397 <safe_rshift_func_int8_t_s_u+0x2b>
    c388:	0f be 55 fc          	movsbl -0x4(%rbp),%edx
    c38c:	8b 45 f8             	mov    -0x8(%rbp),%eax
    c38f:	89 c1                	mov    %eax,%ecx
    c391:	d3 fa                	sar    %cl,%edx
    c393:	89 d0                	mov    %edx,%eax
    c395:	eb 04                	jmp    c39b <safe_rshift_func_int8_t_s_u+0x2f>
    c397:	0f b6 45 fc          	movzbl -0x4(%rbp),%eax
    c39b:	5d                   	pop    %rbp
    c39c:	c3                   	retq   

000000000000c39d <safe_unary_minus_func_int16_t_s>:
    c39d:	f3 0f 1e fa          	endbr64 
    c3a1:	55                   	push   %rbp
    c3a2:	48 89 e5             	mov    %rsp,%rbp
    c3a5:	89 f8                	mov    %edi,%eax
    c3a7:	66 89 45 fc          	mov    %ax,-0x4(%rbp)
    c3ab:	0f b7 45 fc          	movzwl -0x4(%rbp),%eax
    c3af:	f7 d8                	neg    %eax
    c3b1:	5d                   	pop    %rbp
    c3b2:	c3                   	retq   

000000000000c3b3 <safe_add_func_int16_t_s_s>:
    c3b3:	f3 0f 1e fa          	endbr64 
    c3b7:	55                   	push   %rbp
    c3b8:	48 89 e5             	mov    %rsp,%rbp
    c3bb:	89 fa                	mov    %edi,%edx
    c3bd:	89 f0                	mov    %esi,%eax
    c3bf:	66 89 55 fc          	mov    %dx,-0x4(%rbp)
    c3c3:	66 89 45 f8          	mov    %ax,-0x8(%rbp)
    c3c7:	0f b7 55 fc          	movzwl -0x4(%rbp),%edx
    c3cb:	0f b7 45 f8          	movzwl -0x8(%rbp),%eax
    c3cf:	01 d0                	add    %edx,%eax
    c3d1:	5d                   	pop    %rbp
    c3d2:	c3                   	retq   

000000000000c3d3 <safe_sub_func_int16_t_s_s>:
    c3d3:	f3 0f 1e fa          	endbr64 
    c3d7:	55                   	push   %rbp
    c3d8:	48 89 e5             	mov    %rsp,%rbp
    c3db:	89 fa                	mov    %edi,%edx
    c3dd:	89 f0                	mov    %esi,%eax
    c3df:	66 89 55 fc          	mov    %dx,-0x4(%rbp)
    c3e3:	66 89 45 f8          	mov    %ax,-0x8(%rbp)
    c3e7:	0f b7 55 fc          	movzwl -0x4(%rbp),%edx
    c3eb:	0f b7 45 f8          	movzwl -0x8(%rbp),%eax
    c3ef:	29 c2                	sub    %eax,%edx
    c3f1:	89 d0                	mov    %edx,%eax
    c3f3:	5d                   	pop    %rbp
    c3f4:	c3                   	retq   

000000000000c3f5 <safe_mul_func_int16_t_s_s>:
    c3f5:	f3 0f 1e fa          	endbr64 
    c3f9:	55                   	push   %rbp
    c3fa:	48 89 e5             	mov    %rsp,%rbp
    c3fd:	89 fa                	mov    %edi,%edx
    c3ff:	89 f0                	mov    %esi,%eax
    c401:	66 89 55 fc          	mov    %dx,-0x4(%rbp)
    c405:	66 89 45 f8          	mov    %ax,-0x8(%rbp)
    c409:	0f b7 55 fc          	movzwl -0x4(%rbp),%edx
    c40d:	0f b7 45 f8          	movzwl -0x8(%rbp),%eax
    c411:	0f af c2             	imul   %edx,%eax
    c414:	5d                   	pop    %rbp
    c415:	c3                   	retq   

000000000000c416 <safe_mod_func_int16_t_s_s>:
    c416:	f3 0f 1e fa          	endbr64 
    c41a:	55                   	push   %rbp
    c41b:	48 89 e5             	mov    %rsp,%rbp
    c41e:	89 fa                	mov    %edi,%edx
    c420:	89 f0                	mov    %esi,%eax
    c422:	66 89 55 fc          	mov    %dx,-0x4(%rbp)
    c426:	66 89 45 f8          	mov    %ax,-0x8(%rbp)
    c42a:	66 83 7d f8 00       	cmpw   $0x0,-0x8(%rbp)
    c42f:	74 1e                	je     c44f <safe_mod_func_int16_t_s_s+0x39>
    c431:	66 81 7d fc 00 80    	cmpw   $0x8000,-0x4(%rbp)
    c437:	75 07                	jne    c440 <safe_mod_func_int16_t_s_s+0x2a>
    c439:	66 83 7d f8 ff       	cmpw   $0xffff,-0x8(%rbp)
    c43e:	74 0f                	je     c44f <safe_mod_func_int16_t_s_s+0x39>
    c440:	0f bf 45 fc          	movswl -0x4(%rbp),%eax
    c444:	0f bf 4d f8          	movswl -0x8(%rbp),%ecx
    c448:	99                   	cltd   
    c449:	f7 f9                	idiv   %ecx
    c44b:	89 d0                	mov    %edx,%eax
    c44d:	eb 04                	jmp    c453 <safe_mod_func_int16_t_s_s+0x3d>
    c44f:	0f b7 45 fc          	movzwl -0x4(%rbp),%eax
    c453:	5d                   	pop    %rbp
    c454:	c3                   	retq   

000000000000c455 <safe_div_func_int16_t_s_s>:
    c455:	f3 0f 1e fa          	endbr64 
    c459:	55                   	push   %rbp
    c45a:	48 89 e5             	mov    %rsp,%rbp
    c45d:	89 fa                	mov    %edi,%edx
    c45f:	89 f0                	mov    %esi,%eax
    c461:	66 89 55 fc          	mov    %dx,-0x4(%rbp)
    c465:	66 89 45 f8          	mov    %ax,-0x8(%rbp)
    c469:	66 83 7d f8 00       	cmpw   $0x0,-0x8(%rbp)
    c46e:	74 1c                	je     c48c <safe_div_func_int16_t_s_s+0x37>
    c470:	66 81 7d fc 00 80    	cmpw   $0x8000,-0x4(%rbp)
    c476:	75 07                	jne    c47f <safe_div_func_int16_t_s_s+0x2a>
    c478:	66 83 7d f8 ff       	cmpw   $0xffff,-0x8(%rbp)
    c47d:	74 0d                	je     c48c <safe_div_func_int16_t_s_s+0x37>
    c47f:	0f bf 45 fc          	movswl -0x4(%rbp),%eax
    c483:	0f bf 4d f8          	movswl -0x8(%rbp),%ecx
    c487:	99                   	cltd   
    c488:	f7 f9                	idiv   %ecx
    c48a:	eb 04                	jmp    c490 <safe_div_func_int16_t_s_s+0x3b>
    c48c:	0f b7 45 fc          	movzwl -0x4(%rbp),%eax
    c490:	5d                   	pop    %rbp
    c491:	c3                   	retq   

000000000000c492 <safe_lshift_func_int16_t_s_s>:
    c492:	f3 0f 1e fa          	endbr64 
    c496:	55                   	push   %rbp
    c497:	48 89 e5             	mov    %rsp,%rbp
    c49a:	89 f8                	mov    %edi,%eax
    c49c:	89 75 f8             	mov    %esi,-0x8(%rbp)
    c49f:	66 89 45 fc          	mov    %ax,-0x4(%rbp)
    c4a3:	66 83 7d fc 00       	cmpw   $0x0,-0x4(%rbp)
    c4a8:	78 31                	js     c4db <safe_lshift_func_int16_t_s_s+0x49>
    c4aa:	83 7d f8 00          	cmpl   $0x0,-0x8(%rbp)
    c4ae:	78 2b                	js     c4db <safe_lshift_func_int16_t_s_s+0x49>
    c4b0:	83 7d f8 1f          	cmpl   $0x1f,-0x8(%rbp)
    c4b4:	7f 25                	jg     c4db <safe_lshift_func_int16_t_s_s+0x49>
    c4b6:	0f bf 55 fc          	movswl -0x4(%rbp),%edx
    c4ba:	8b 45 f8             	mov    -0x8(%rbp),%eax
    c4bd:	be ff 7f 00 00       	mov    $0x7fff,%esi
    c4c2:	89 c1                	mov    %eax,%ecx
    c4c4:	d3 fe                	sar    %cl,%esi
    c4c6:	89 f0                	mov    %esi,%eax
    c4c8:	39 c2                	cmp    %eax,%edx
    c4ca:	7f 0f                	jg     c4db <safe_lshift_func_int16_t_s_s+0x49>
    c4cc:	0f bf 55 fc          	movswl -0x4(%rbp),%edx
    c4d0:	8b 45 f8             	mov    -0x8(%rbp),%eax
    c4d3:	89 c1                	mov    %eax,%ecx
    c4d5:	d3 e2                	shl    %cl,%edx
    c4d7:	89 d0                	mov    %edx,%eax
    c4d9:	eb 04                	jmp    c4df <safe_lshift_func_int16_t_s_s+0x4d>
    c4db:	0f b7 45 fc          	movzwl -0x4(%rbp),%eax
    c4df:	5d                   	pop    %rbp
    c4e0:	c3                   	retq   

000000000000c4e1 <safe_lshift_func_int16_t_s_u>:
    c4e1:	f3 0f 1e fa          	endbr64 
    c4e5:	55                   	push   %rbp
    c4e6:	48 89 e5             	mov    %rsp,%rbp
    c4e9:	89 f8                	mov    %edi,%eax
    c4eb:	89 75 f8             	mov    %esi,-0x8(%rbp)
    c4ee:	66 89 45 fc          	mov    %ax,-0x4(%rbp)
    c4f2:	66 83 7d fc 00       	cmpw   $0x0,-0x4(%rbp)
    c4f7:	78 2b                	js     c524 <safe_lshift_func_int16_t_s_u+0x43>
    c4f9:	83 7d f8 1f          	cmpl   $0x1f,-0x8(%rbp)
    c4fd:	77 25                	ja     c524 <safe_lshift_func_int16_t_s_u+0x43>
    c4ff:	0f bf 55 fc          	movswl -0x4(%rbp),%edx
    c503:	8b 45 f8             	mov    -0x8(%rbp),%eax
    c506:	be ff 7f 00 00       	mov    $0x7fff,%esi
    c50b:	89 c1                	mov    %eax,%ecx
    c50d:	d3 fe                	sar    %cl,%esi
    c50f:	89 f0                	mov    %esi,%eax
    c511:	39 c2                	cmp    %eax,%edx
    c513:	7f 0f                	jg     c524 <safe_lshift_func_int16_t_s_u+0x43>
    c515:	0f bf 55 fc          	movswl -0x4(%rbp),%edx
    c519:	8b 45 f8             	mov    -0x8(%rbp),%eax
    c51c:	89 c1                	mov    %eax,%ecx
    c51e:	d3 e2                	shl    %cl,%edx
    c520:	89 d0                	mov    %edx,%eax
    c522:	eb 04                	jmp    c528 <safe_lshift_func_int16_t_s_u+0x47>
    c524:	0f b7 45 fc          	movzwl -0x4(%rbp),%eax
    c528:	5d                   	pop    %rbp
    c529:	c3                   	retq   

000000000000c52a <safe_rshift_func_int16_t_s_s>:
    c52a:	f3 0f 1e fa          	endbr64 
    c52e:	55                   	push   %rbp
    c52f:	48 89 e5             	mov    %rsp,%rbp
    c532:	89 f8                	mov    %edi,%eax
    c534:	89 75 f8             	mov    %esi,-0x8(%rbp)
    c537:	66 89 45 fc          	mov    %ax,-0x4(%rbp)
    c53b:	66 83 7d fc 00       	cmpw   $0x0,-0x4(%rbp)
    c540:	78 1b                	js     c55d <safe_rshift_func_int16_t_s_s+0x33>
    c542:	83 7d f8 00          	cmpl   $0x0,-0x8(%rbp)
    c546:	78 15                	js     c55d <safe_rshift_func_int16_t_s_s+0x33>
    c548:	83 7d f8 1f          	cmpl   $0x1f,-0x8(%rbp)
    c54c:	7f 0f                	jg     c55d <safe_rshift_func_int16_t_s_s+0x33>
    c54e:	0f bf 55 fc          	movswl -0x4(%rbp),%edx
    c552:	8b 45 f8             	mov    -0x8(%rbp),%eax
    c555:	89 c1                	mov    %eax,%ecx
    c557:	d3 fa                	sar    %cl,%edx
    c559:	89 d0                	mov    %edx,%eax
    c55b:	eb 04                	jmp    c561 <safe_rshift_func_int16_t_s_s+0x37>
    c55d:	0f b7 45 fc          	movzwl -0x4(%rbp),%eax
    c561:	5d                   	pop    %rbp
    c562:	c3                   	retq   

000000000000c563 <safe_rshift_func_int16_t_s_u>:
    c563:	f3 0f 1e fa          	endbr64 
    c567:	55                   	push   %rbp
    c568:	48 89 e5             	mov    %rsp,%rbp
    c56b:	89 f8                	mov    %edi,%eax
    c56d:	89 75 f8             	mov    %esi,-0x8(%rbp)
    c570:	66 89 45 fc          	mov    %ax,-0x4(%rbp)
    c574:	66 83 7d fc 00       	cmpw   $0x0,-0x4(%rbp)
    c579:	78 15                	js     c590 <safe_rshift_func_int16_t_s_u+0x2d>
    c57b:	83 7d f8 1f          	cmpl   $0x1f,-0x8(%rbp)
    c57f:	77 0f                	ja     c590 <safe_rshift_func_int16_t_s_u+0x2d>
    c581:	0f bf 55 fc          	movswl -0x4(%rbp),%edx
    c585:	8b 45 f8             	mov    -0x8(%rbp),%eax
    c588:	89 c1                	mov    %eax,%ecx
    c58a:	d3 fa                	sar    %cl,%edx
    c58c:	89 d0                	mov    %edx,%eax
    c58e:	eb 04                	jmp    c594 <safe_rshift_func_int16_t_s_u+0x31>
    c590:	0f b7 45 fc          	movzwl -0x4(%rbp),%eax
    c594:	5d                   	pop    %rbp
    c595:	c3                   	retq   

000000000000c596 <safe_unary_minus_func_int32_t_s>:
    c596:	f3 0f 1e fa          	endbr64 
    c59a:	55                   	push   %rbp
    c59b:	48 89 e5             	mov    %rsp,%rbp
    c59e:	89 7d fc             	mov    %edi,-0x4(%rbp)
    c5a1:	81 7d fc 00 00 00 80 	cmpl   $0x80000000,-0x4(%rbp)
    c5a8:	74 07                	je     c5b1 <safe_unary_minus_func_int32_t_s+0x1b>
    c5aa:	8b 45 fc             	mov    -0x4(%rbp),%eax
    c5ad:	f7 d8                	neg    %eax
    c5af:	eb 03                	jmp    c5b4 <safe_unary_minus_func_int32_t_s+0x1e>
    c5b1:	8b 45 fc             	mov    -0x4(%rbp),%eax
    c5b4:	5d                   	pop    %rbp
    c5b5:	c3                   	retq   

000000000000c5b6 <safe_add_func_int32_t_s_s>:
    c5b6:	f3 0f 1e fa          	endbr64 
    c5ba:	55                   	push   %rbp
    c5bb:	48 89 e5             	mov    %rsp,%rbp
    c5be:	89 7d fc             	mov    %edi,-0x4(%rbp)
    c5c1:	89 75 f8             	mov    %esi,-0x8(%rbp)
    c5c4:	83 7d fc 00          	cmpl   $0x0,-0x4(%rbp)
    c5c8:	7e 13                	jle    c5dd <safe_add_func_int32_t_s_s+0x27>
    c5ca:	83 7d f8 00          	cmpl   $0x0,-0x8(%rbp)
    c5ce:	7e 0d                	jle    c5dd <safe_add_func_int32_t_s_s+0x27>
    c5d0:	b8 ff ff ff 7f       	mov    $0x7fffffff,%eax
    c5d5:	2b 45 f8             	sub    -0x8(%rbp),%eax
    c5d8:	39 45 fc             	cmp    %eax,-0x4(%rbp)
    c5db:	7f 23                	jg     c600 <safe_add_func_int32_t_s_s+0x4a>
    c5dd:	83 7d fc 00          	cmpl   $0x0,-0x4(%rbp)
    c5e1:	79 13                	jns    c5f6 <safe_add_func_int32_t_s_s+0x40>
    c5e3:	83 7d f8 00          	cmpl   $0x0,-0x8(%rbp)
    c5e7:	79 0d                	jns    c5f6 <safe_add_func_int32_t_s_s+0x40>
    c5e9:	b8 00 00 00 80       	mov    $0x80000000,%eax
    c5ee:	2b 45 f8             	sub    -0x8(%rbp),%eax
    c5f1:	39 45 fc             	cmp    %eax,-0x4(%rbp)
    c5f4:	7c 0a                	jl     c600 <safe_add_func_int32_t_s_s+0x4a>
    c5f6:	8b 55 fc             	mov    -0x4(%rbp),%edx
    c5f9:	8b 45 f8             	mov    -0x8(%rbp),%eax
    c5fc:	01 d0                	add    %edx,%eax
    c5fe:	eb 03                	jmp    c603 <safe_add_func_int32_t_s_s+0x4d>
    c600:	8b 45 fc             	mov    -0x4(%rbp),%eax
    c603:	5d                   	pop    %rbp
    c604:	c3                   	retq   

000000000000c605 <safe_sub_func_int32_t_s_s>:
    c605:	f3 0f 1e fa          	endbr64 
    c609:	55                   	push   %rbp
    c60a:	48 89 e5             	mov    %rsp,%rbp
    c60d:	89 7d fc             	mov    %edi,-0x4(%rbp)
    c610:	89 75 f8             	mov    %esi,-0x8(%rbp)
    c613:	8b 45 fc             	mov    -0x4(%rbp),%eax
    c616:	33 45 f8             	xor    -0x8(%rbp),%eax
    c619:	89 c2                	mov    %eax,%edx
    c61b:	8b 45 fc             	mov    -0x4(%rbp),%eax
    c61e:	33 45 f8             	xor    -0x8(%rbp),%eax
    c621:	25 00 00 00 80       	and    $0x80000000,%eax
    c626:	33 45 fc             	xor    -0x4(%rbp),%eax
    c629:	2b 45 f8             	sub    -0x8(%rbp),%eax
    c62c:	33 45 f8             	xor    -0x8(%rbp),%eax
    c62f:	21 d0                	and    %edx,%eax
    c631:	85 c0                	test   %eax,%eax
    c633:	78 08                	js     c63d <safe_sub_func_int32_t_s_s+0x38>
    c635:	8b 45 fc             	mov    -0x4(%rbp),%eax
    c638:	2b 45 f8             	sub    -0x8(%rbp),%eax
    c63b:	eb 03                	jmp    c640 <safe_sub_func_int32_t_s_s+0x3b>
    c63d:	8b 45 fc             	mov    -0x4(%rbp),%eax
    c640:	5d                   	pop    %rbp
    c641:	c3                   	retq   

000000000000c642 <safe_mul_func_int32_t_s_s>:
    c642:	f3 0f 1e fa          	endbr64 
    c646:	55                   	push   %rbp
    c647:	48 89 e5             	mov    %rsp,%rbp
    c64a:	89 7d fc             	mov    %edi,-0x4(%rbp)
    c64d:	89 75 f8             	mov    %esi,-0x8(%rbp)
    c650:	83 7d fc 00          	cmpl   $0x0,-0x4(%rbp)
    c654:	7e 14                	jle    c66a <safe_mul_func_int32_t_s_s+0x28>
    c656:	83 7d f8 00          	cmpl   $0x0,-0x8(%rbp)
    c65a:	7e 0e                	jle    c66a <safe_mul_func_int32_t_s_s+0x28>
    c65c:	b8 ff ff ff 7f       	mov    $0x7fffffff,%eax
    c661:	99                   	cltd   
    c662:	f7 7d f8             	idivl  -0x8(%rbp)
    c665:	39 45 fc             	cmp    %eax,-0x4(%rbp)
    c668:	7f 5d                	jg     c6c7 <safe_mul_func_int32_t_s_s+0x85>
    c66a:	83 7d fc 00          	cmpl   $0x0,-0x4(%rbp)
    c66e:	7e 14                	jle    c684 <safe_mul_func_int32_t_s_s+0x42>
    c670:	83 7d f8 00          	cmpl   $0x0,-0x8(%rbp)
    c674:	7f 0e                	jg     c684 <safe_mul_func_int32_t_s_s+0x42>
    c676:	b8 00 00 00 80       	mov    $0x80000000,%eax
    c67b:	99                   	cltd   
    c67c:	f7 7d fc             	idivl  -0x4(%rbp)
    c67f:	39 45 f8             	cmp    %eax,-0x8(%rbp)
    c682:	7c 43                	jl     c6c7 <safe_mul_func_int32_t_s_s+0x85>
    c684:	83 7d fc 00          	cmpl   $0x0,-0x4(%rbp)
    c688:	7f 14                	jg     c69e <safe_mul_func_int32_t_s_s+0x5c>
    c68a:	83 7d f8 00          	cmpl   $0x0,-0x8(%rbp)
    c68e:	7e 0e                	jle    c69e <safe_mul_func_int32_t_s_s+0x5c>
    c690:	b8 00 00 00 80       	mov    $0x80000000,%eax
    c695:	99                   	cltd   
    c696:	f7 7d f8             	idivl  -0x8(%rbp)
    c699:	39 45 fc             	cmp    %eax,-0x4(%rbp)
    c69c:	7c 29                	jl     c6c7 <safe_mul_func_int32_t_s_s+0x85>
    c69e:	83 7d fc 00          	cmpl   $0x0,-0x4(%rbp)
    c6a2:	7f 1a                	jg     c6be <safe_mul_func_int32_t_s_s+0x7c>
    c6a4:	83 7d f8 00          	cmpl   $0x0,-0x8(%rbp)
    c6a8:	7f 14                	jg     c6be <safe_mul_func_int32_t_s_s+0x7c>
    c6aa:	83 7d fc 00          	cmpl   $0x0,-0x4(%rbp)
    c6ae:	74 0e                	je     c6be <safe_mul_func_int32_t_s_s+0x7c>
    c6b0:	b8 ff ff ff 7f       	mov    $0x7fffffff,%eax
    c6b5:	99                   	cltd   
    c6b6:	f7 7d fc             	idivl  -0x4(%rbp)
    c6b9:	39 45 f8             	cmp    %eax,-0x8(%rbp)
    c6bc:	7c 09                	jl     c6c7 <safe_mul_func_int32_t_s_s+0x85>
    c6be:	8b 45 fc             	mov    -0x4(%rbp),%eax
    c6c1:	0f af 45 f8          	imul   -0x8(%rbp),%eax
    c6c5:	eb 03                	jmp    c6ca <safe_mul_func_int32_t_s_s+0x88>
    c6c7:	8b 45 fc             	mov    -0x4(%rbp),%eax
    c6ca:	5d                   	pop    %rbp
    c6cb:	c3                   	retq   

000000000000c6cc <safe_mod_func_int32_t_s_s>:
    c6cc:	f3 0f 1e fa          	endbr64 
    c6d0:	55                   	push   %rbp
    c6d1:	48 89 e5             	mov    %rsp,%rbp
    c6d4:	89 7d fc             	mov    %edi,-0x4(%rbp)
    c6d7:	89 75 f8             	mov    %esi,-0x8(%rbp)
    c6da:	83 7d f8 00          	cmpl   $0x0,-0x8(%rbp)
    c6de:	74 1a                	je     c6fa <safe_mod_func_int32_t_s_s+0x2e>
    c6e0:	81 7d fc 00 00 00 80 	cmpl   $0x80000000,-0x4(%rbp)
    c6e7:	75 06                	jne    c6ef <safe_mod_func_int32_t_s_s+0x23>
    c6e9:	83 7d f8 ff          	cmpl   $0xffffffff,-0x8(%rbp)
    c6ed:	74 0b                	je     c6fa <safe_mod_func_int32_t_s_s+0x2e>
    c6ef:	8b 45 fc             	mov    -0x4(%rbp),%eax
    c6f2:	99                   	cltd   
    c6f3:	f7 7d f8             	idivl  -0x8(%rbp)
    c6f6:	89 d0                	mov    %edx,%eax
    c6f8:	eb 03                	jmp    c6fd <safe_mod_func_int32_t_s_s+0x31>
    c6fa:	8b 45 fc             	mov    -0x4(%rbp),%eax
    c6fd:	5d                   	pop    %rbp
    c6fe:	c3                   	retq   

000000000000c6ff <safe_div_func_int32_t_s_s>:
    c6ff:	f3 0f 1e fa          	endbr64 
    c703:	55                   	push   %rbp
    c704:	48 89 e5             	mov    %rsp,%rbp
    c707:	89 7d fc             	mov    %edi,-0x4(%rbp)
    c70a:	89 75 f8             	mov    %esi,-0x8(%rbp)
    c70d:	83 7d f8 00          	cmpl   $0x0,-0x8(%rbp)
    c711:	74 18                	je     c72b <safe_div_func_int32_t_s_s+0x2c>
    c713:	81 7d fc 00 00 00 80 	cmpl   $0x80000000,-0x4(%rbp)
    c71a:	75 06                	jne    c722 <safe_div_func_int32_t_s_s+0x23>
    c71c:	83 7d f8 ff          	cmpl   $0xffffffff,-0x8(%rbp)
    c720:	74 09                	je     c72b <safe_div_func_int32_t_s_s+0x2c>
    c722:	8b 45 fc             	mov    -0x4(%rbp),%eax
    c725:	99                   	cltd   
    c726:	f7 7d f8             	idivl  -0x8(%rbp)
    c729:	eb 03                	jmp    c72e <safe_div_func_int32_t_s_s+0x2f>
    c72b:	8b 45 fc             	mov    -0x4(%rbp),%eax
    c72e:	5d                   	pop    %rbp
    c72f:	c3                   	retq   

000000000000c730 <safe_lshift_func_int32_t_s_s>:
    c730:	f3 0f 1e fa          	endbr64 
    c734:	55                   	push   %rbp
    c735:	48 89 e5             	mov    %rsp,%rbp
    c738:	89 7d fc             	mov    %edi,-0x4(%rbp)
    c73b:	89 75 f8             	mov    %esi,-0x8(%rbp)
    c73e:	83 7d fc 00          	cmpl   $0x0,-0x4(%rbp)
    c742:	78 2d                	js     c771 <safe_lshift_func_int32_t_s_s+0x41>
    c744:	83 7d f8 00          	cmpl   $0x0,-0x8(%rbp)
    c748:	78 27                	js     c771 <safe_lshift_func_int32_t_s_s+0x41>
    c74a:	83 7d f8 1f          	cmpl   $0x1f,-0x8(%rbp)
    c74e:	7f 21                	jg     c771 <safe_lshift_func_int32_t_s_s+0x41>
    c750:	8b 45 f8             	mov    -0x8(%rbp),%eax
    c753:	ba ff ff ff 7f       	mov    $0x7fffffff,%edx
    c758:	89 c1                	mov    %eax,%ecx
    c75a:	d3 fa                	sar    %cl,%edx
    c75c:	89 d0                	mov    %edx,%eax
    c75e:	39 45 fc             	cmp    %eax,-0x4(%rbp)
    c761:	7f 0e                	jg     c771 <safe_lshift_func_int32_t_s_s+0x41>
    c763:	8b 45 f8             	mov    -0x8(%rbp),%eax
    c766:	8b 55 fc             	mov    -0x4(%rbp),%edx
    c769:	89 c1                	mov    %eax,%ecx
    c76b:	d3 e2                	shl    %cl,%edx
    c76d:	89 d0                	mov    %edx,%eax
    c76f:	eb 03                	jmp    c774 <safe_lshift_func_int32_t_s_s+0x44>
    c771:	8b 45 fc             	mov    -0x4(%rbp),%eax
    c774:	5d                   	pop    %rbp
    c775:	c3                   	retq   

000000000000c776 <safe_lshift_func_int32_t_s_u>:
    c776:	f3 0f 1e fa          	endbr64 
    c77a:	55                   	push   %rbp
    c77b:	48 89 e5             	mov    %rsp,%rbp
    c77e:	89 7d fc             	mov    %edi,-0x4(%rbp)
    c781:	89 75 f8             	mov    %esi,-0x8(%rbp)
    c784:	83 7d fc 00          	cmpl   $0x0,-0x4(%rbp)
    c788:	78 27                	js     c7b1 <safe_lshift_func_int32_t_s_u+0x3b>
    c78a:	83 7d f8 1f          	cmpl   $0x1f,-0x8(%rbp)
    c78e:	77 21                	ja     c7b1 <safe_lshift_func_int32_t_s_u+0x3b>
    c790:	8b 45 f8             	mov    -0x8(%rbp),%eax
    c793:	ba ff ff ff 7f       	mov    $0x7fffffff,%edx
    c798:	89 c1                	mov    %eax,%ecx
    c79a:	d3 fa                	sar    %cl,%edx
    c79c:	89 d0                	mov    %edx,%eax
    c79e:	39 45 fc             	cmp    %eax,-0x4(%rbp)
    c7a1:	7f 0e                	jg     c7b1 <safe_lshift_func_int32_t_s_u+0x3b>
    c7a3:	8b 45 f8             	mov    -0x8(%rbp),%eax
    c7a6:	8b 55 fc             	mov    -0x4(%rbp),%edx
    c7a9:	89 c1                	mov    %eax,%ecx
    c7ab:	d3 e2                	shl    %cl,%edx
    c7ad:	89 d0                	mov    %edx,%eax
    c7af:	eb 03                	jmp    c7b4 <safe_lshift_func_int32_t_s_u+0x3e>
    c7b1:	8b 45 fc             	mov    -0x4(%rbp),%eax
    c7b4:	5d                   	pop    %rbp
    c7b5:	c3                   	retq   

000000000000c7b6 <safe_rshift_func_int32_t_s_s>:
    c7b6:	f3 0f 1e fa          	endbr64 
    c7ba:	55                   	push   %rbp
    c7bb:	48 89 e5             	mov    %rsp,%rbp
    c7be:	89 7d fc             	mov    %edi,-0x4(%rbp)
    c7c1:	89 75 f8             	mov    %esi,-0x8(%rbp)
    c7c4:	83 7d fc 00          	cmpl   $0x0,-0x4(%rbp)
    c7c8:	78 1a                	js     c7e4 <safe_rshift_func_int32_t_s_s+0x2e>
    c7ca:	83 7d f8 00          	cmpl   $0x0,-0x8(%rbp)
    c7ce:	78 14                	js     c7e4 <safe_rshift_func_int32_t_s_s+0x2e>
    c7d0:	83 7d f8 1f          	cmpl   $0x1f,-0x8(%rbp)
    c7d4:	7f 0e                	jg     c7e4 <safe_rshift_func_int32_t_s_s+0x2e>
    c7d6:	8b 45 f8             	mov    -0x8(%rbp),%eax
    c7d9:	8b 55 fc             	mov    -0x4(%rbp),%edx
    c7dc:	89 c1                	mov    %eax,%ecx
    c7de:	d3 fa                	sar    %cl,%edx
    c7e0:	89 d0                	mov    %edx,%eax
    c7e2:	eb 03                	jmp    c7e7 <safe_rshift_func_int32_t_s_s+0x31>
    c7e4:	8b 45 fc             	mov    -0x4(%rbp),%eax
    c7e7:	5d                   	pop    %rbp
    c7e8:	c3                   	retq   

000000000000c7e9 <safe_rshift_func_int32_t_s_u>:
    c7e9:	f3 0f 1e fa          	endbr64 
    c7ed:	55                   	push   %rbp
    c7ee:	48 89 e5             	mov    %rsp,%rbp
    c7f1:	89 7d fc             	mov    %edi,-0x4(%rbp)
    c7f4:	89 75 f8             	mov    %esi,-0x8(%rbp)
    c7f7:	83 7d fc 00          	cmpl   $0x0,-0x4(%rbp)
    c7fb:	78 14                	js     c811 <safe_rshift_func_int32_t_s_u+0x28>
    c7fd:	83 7d f8 1f          	cmpl   $0x1f,-0x8(%rbp)
    c801:	77 0e                	ja     c811 <safe_rshift_func_int32_t_s_u+0x28>
    c803:	8b 45 f8             	mov    -0x8(%rbp),%eax
    c806:	8b 55 fc             	mov    -0x4(%rbp),%edx
    c809:	89 c1                	mov    %eax,%ecx
    c80b:	d3 fa                	sar    %cl,%edx
    c80d:	89 d0                	mov    %edx,%eax
    c80f:	eb 03                	jmp    c814 <safe_rshift_func_int32_t_s_u+0x2b>
    c811:	8b 45 fc             	mov    -0x4(%rbp),%eax
    c814:	5d                   	pop    %rbp
    c815:	c3                   	retq   

000000000000c816 <safe_unary_minus_func_int64_t_s>:
    c816:	f3 0f 1e fa          	endbr64 
    c81a:	55                   	push   %rbp
    c81b:	48 89 e5             	mov    %rsp,%rbp
    c81e:	48 89 7d f8          	mov    %rdi,-0x8(%rbp)
    c822:	48 b8 00 00 00 00 00 	movabs $0x8000000000000000,%rax
    c829:	00 00 80 
    c82c:	48 39 45 f8          	cmp    %rax,-0x8(%rbp)
    c830:	74 09                	je     c83b <safe_unary_minus_func_int64_t_s+0x25>
    c832:	48 8b 45 f8          	mov    -0x8(%rbp),%rax
    c836:	48 f7 d8             	neg    %rax
    c839:	eb 04                	jmp    c83f <safe_unary_minus_func_int64_t_s+0x29>
    c83b:	48 8b 45 f8          	mov    -0x8(%rbp),%rax
    c83f:	5d                   	pop    %rbp
    c840:	c3                   	retq   

000000000000c841 <safe_add_func_int64_t_s_s>:
    c841:	f3 0f 1e fa          	endbr64 
    c845:	55                   	push   %rbp
    c846:	48 89 e5             	mov    %rsp,%rbp
    c849:	48 89 7d f8          	mov    %rdi,-0x8(%rbp)
    c84d:	48 89 75 f0          	mov    %rsi,-0x10(%rbp)
    c851:	48 83 7d f8 00       	cmpq   $0x0,-0x8(%rbp)
    c856:	7e 1b                	jle    c873 <safe_add_func_int64_t_s_s+0x32>
    c858:	48 83 7d f0 00       	cmpq   $0x0,-0x10(%rbp)
    c85d:	7e 14                	jle    c873 <safe_add_func_int64_t_s_s+0x32>
    c85f:	48 b8 ff ff ff ff ff 	movabs $0x7fffffffffffffff,%rax
    c866:	ff ff 7f 
    c869:	48 2b 45 f0          	sub    -0x10(%rbp),%rax
    c86d:	48 39 45 f8          	cmp    %rax,-0x8(%rbp)
    c871:	7f 2f                	jg     c8a2 <safe_add_func_int64_t_s_s+0x61>
    c873:	48 83 7d f8 00       	cmpq   $0x0,-0x8(%rbp)
    c878:	79 1b                	jns    c895 <safe_add_func_int64_t_s_s+0x54>
    c87a:	48 83 7d f0 00       	cmpq   $0x0,-0x10(%rbp)
    c87f:	79 14                	jns    c895 <safe_add_func_int64_t_s_s+0x54>
    c881:	48 b8 00 00 00 00 00 	movabs $0x8000000000000000,%rax
    c888:	00 00 80 
    c88b:	48 2b 45 f0          	sub    -0x10(%rbp),%rax
    c88f:	48 39 45 f8          	cmp    %rax,-0x8(%rbp)
    c893:	7c 0d                	jl     c8a2 <safe_add_func_int64_t_s_s+0x61>
    c895:	48 8b 55 f8          	mov    -0x8(%rbp),%rdx
    c899:	48 8b 45 f0          	mov    -0x10(%rbp),%rax
    c89d:	48 01 d0             	add    %rdx,%rax
    c8a0:	eb 04                	jmp    c8a6 <safe_add_func_int64_t_s_s+0x65>
    c8a2:	48 8b 45 f8          	mov    -0x8(%rbp),%rax
    c8a6:	5d                   	pop    %rbp
    c8a7:	c3                   	retq   

000000000000c8a8 <safe_sub_func_int64_t_s_s>:
    c8a8:	f3 0f 1e fa          	endbr64 
    c8ac:	55                   	push   %rbp
    c8ad:	48 89 e5             	mov    %rsp,%rbp
    c8b0:	48 89 7d f8          	mov    %rdi,-0x8(%rbp)
    c8b4:	48 89 75 f0          	mov    %rsi,-0x10(%rbp)
    c8b8:	48 8b 45 f8          	mov    -0x8(%rbp),%rax
    c8bc:	48 33 45 f0          	xor    -0x10(%rbp),%rax
    c8c0:	48 89 c2             	mov    %rax,%rdx
    c8c3:	48 8b 45 f8          	mov    -0x8(%rbp),%rax
    c8c7:	48 33 45 f0          	xor    -0x10(%rbp),%rax
    c8cb:	48 b9 00 00 00 00 00 	movabs $0x8000000000000000,%rcx
    c8d2:	00 00 80 
    c8d5:	48 21 c8             	and    %rcx,%rax
    c8d8:	48 33 45 f8          	xor    -0x8(%rbp),%rax
    c8dc:	48 2b 45 f0          	sub    -0x10(%rbp),%rax
    c8e0:	48 33 45 f0          	xor    -0x10(%rbp),%rax
    c8e4:	48 21 d0             	and    %rdx,%rax
    c8e7:	48 85 c0             	test   %rax,%rax
    c8ea:	78 0a                	js     c8f6 <safe_sub_func_int64_t_s_s+0x4e>
    c8ec:	48 8b 45 f8          	mov    -0x8(%rbp),%rax
    c8f0:	48 2b 45 f0          	sub    -0x10(%rbp),%rax
    c8f4:	eb 04                	jmp    c8fa <safe_sub_func_int64_t_s_s+0x52>
    c8f6:	48 8b 45 f8          	mov    -0x8(%rbp),%rax
    c8fa:	5d                   	pop    %rbp
    c8fb:	c3                   	retq   

000000000000c8fc <safe_mul_func_int64_t_s_s>:
    c8fc:	f3 0f 1e fa          	endbr64 
    c900:	55                   	push   %rbp
    c901:	48 89 e5             	mov    %rsp,%rbp
    c904:	48 89 7d f8          	mov    %rdi,-0x8(%rbp)
    c908:	48 89 75 f0          	mov    %rsi,-0x10(%rbp)
    c90c:	48 83 7d f8 00       	cmpq   $0x0,-0x8(%rbp)
    c911:	7e 1d                	jle    c930 <safe_mul_func_int64_t_s_s+0x34>
    c913:	48 83 7d f0 00       	cmpq   $0x0,-0x10(%rbp)
    c918:	7e 16                	jle    c930 <safe_mul_func_int64_t_s_s+0x34>
    c91a:	48 b8 ff ff ff ff ff 	movabs $0x7fffffffffffffff,%rax
    c921:	ff ff 7f 
    c924:	48 99                	cqto   
    c926:	48 f7 7d f0          	idivq  -0x10(%rbp)
    c92a:	48 39 45 f8          	cmp    %rax,-0x8(%rbp)
    c92e:	7f 7e                	jg     c9ae <safe_mul_func_int64_t_s_s+0xb2>
    c930:	48 83 7d f8 00       	cmpq   $0x0,-0x8(%rbp)
    c935:	7e 1d                	jle    c954 <safe_mul_func_int64_t_s_s+0x58>
    c937:	48 83 7d f0 00       	cmpq   $0x0,-0x10(%rbp)
    c93c:	7f 16                	jg     c954 <safe_mul_func_int64_t_s_s+0x58>
    c93e:	48 b8 00 00 00 00 00 	movabs $0x8000000000000000,%rax
    c945:	00 00 80 
    c948:	48 99                	cqto   
    c94a:	48 f7 7d f8          	idivq  -0x8(%rbp)
    c94e:	48 39 45 f0          	cmp    %rax,-0x10(%rbp)
    c952:	7c 5a                	jl     c9ae <safe_mul_func_int64_t_s_s+0xb2>
    c954:	48 83 7d f8 00       	cmpq   $0x0,-0x8(%rbp)
    c959:	7f 1d                	jg     c978 <safe_mul_func_int64_t_s_s+0x7c>
    c95b:	48 83 7d f0 00       	cmpq   $0x0,-0x10(%rbp)
    c960:	7e 16                	jle    c978 <safe_mul_func_int64_t_s_s+0x7c>
    c962:	48 b8 00 00 00 00 00 	movabs $0x8000000000000000,%rax
    c969:	00 00 80 
    c96c:	48 99                	cqto   
    c96e:	48 f7 7d f0          	idivq  -0x10(%rbp)
    c972:	48 39 45 f8          	cmp    %rax,-0x8(%rbp)
    c976:	7c 36                	jl     c9ae <safe_mul_func_int64_t_s_s+0xb2>
    c978:	48 83 7d f8 00       	cmpq   $0x0,-0x8(%rbp)
    c97d:	7f 24                	jg     c9a3 <safe_mul_func_int64_t_s_s+0xa7>
    c97f:	48 83 7d f0 00       	cmpq   $0x0,-0x10(%rbp)
    c984:	7f 1d                	jg     c9a3 <safe_mul_func_int64_t_s_s+0xa7>
    c986:	48 83 7d f8 00       	cmpq   $0x0,-0x8(%rbp)
    c98b:	74 16                	je     c9a3 <safe_mul_func_int64_t_s_s+0xa7>
    c98d:	48 b8 ff ff ff ff ff 	movabs $0x7fffffffffffffff,%rax
    c994:	ff ff 7f 
    c997:	48 99                	cqto   
    c999:	48 f7 7d f8          	idivq  -0x8(%rbp)
    c99d:	48 39 45 f0          	cmp    %rax,-0x10(%rbp)
    c9a1:	7c 0b                	jl     c9ae <safe_mul_func_int64_t_s_s+0xb2>
    c9a3:	48 8b 45 f8          	mov    -0x8(%rbp),%rax
    c9a7:	48 0f af 45 f0       	imul   -0x10(%rbp),%rax
    c9ac:	eb 04                	jmp    c9b2 <safe_mul_func_int64_t_s_s+0xb6>
    c9ae:	48 8b 45 f8          	mov    -0x8(%rbp),%rax
    c9b2:	5d                   	pop    %rbp
    c9b3:	c3                   	retq   

000000000000c9b4 <safe_mod_func_int64_t_s_s>:
    c9b4:	f3 0f 1e fa          	endbr64 
    c9b8:	55                   	push   %rbp
    c9b9:	48 89 e5             	mov    %rsp,%rbp
    c9bc:	48 89 7d f8          	mov    %rdi,-0x8(%rbp)
    c9c0:	48 89 75 f0          	mov    %rsi,-0x10(%rbp)
    c9c4:	48 83 7d f0 00       	cmpq   $0x0,-0x10(%rbp)
    c9c9:	74 26                	je     c9f1 <safe_mod_func_int64_t_s_s+0x3d>
    c9cb:	48 b8 00 00 00 00 00 	movabs $0x8000000000000000,%rax
    c9d2:	00 00 80 
    c9d5:	48 39 45 f8          	cmp    %rax,-0x8(%rbp)
    c9d9:	75 07                	jne    c9e2 <safe_mod_func_int64_t_s_s+0x2e>
    c9db:	48 83 7d f0 ff       	cmpq   $0xffffffffffffffff,-0x10(%rbp)
    c9e0:	74 0f                	je     c9f1 <safe_mod_func_int64_t_s_s+0x3d>
    c9e2:	48 8b 45 f8          	mov    -0x8(%rbp),%rax
    c9e6:	48 99                	cqto   
    c9e8:	48 f7 7d f0          	idivq  -0x10(%rbp)
    c9ec:	48 89 d0             	mov    %rdx,%rax
    c9ef:	eb 04                	jmp    c9f5 <safe_mod_func_int64_t_s_s+0x41>
    c9f1:	48 8b 45 f8          	mov    -0x8(%rbp),%rax
    c9f5:	5d                   	pop    %rbp
    c9f6:	c3                   	retq   

000000000000c9f7 <safe_div_func_int64_t_s_s>:
    c9f7:	f3 0f 1e fa          	endbr64 
    c9fb:	55                   	push   %rbp
    c9fc:	48 89 e5             	mov    %rsp,%rbp
    c9ff:	48 89 7d f8          	mov    %rdi,-0x8(%rbp)
    ca03:	48 89 75 f0          	mov    %rsi,-0x10(%rbp)
    ca07:	48 83 7d f0 00       	cmpq   $0x0,-0x10(%rbp)
    ca0c:	74 23                	je     ca31 <safe_div_func_int64_t_s_s+0x3a>
    ca0e:	48 b8 00 00 00 00 00 	movabs $0x8000000000000000,%rax
    ca15:	00 00 80 
    ca18:	48 39 45 f8          	cmp    %rax,-0x8(%rbp)
    ca1c:	75 07                	jne    ca25 <safe_div_func_int64_t_s_s+0x2e>
    ca1e:	48 83 7d f0 ff       	cmpq   $0xffffffffffffffff,-0x10(%rbp)
    ca23:	74 0c                	je     ca31 <safe_div_func_int64_t_s_s+0x3a>
    ca25:	48 8b 45 f8          	mov    -0x8(%rbp),%rax
    ca29:	48 99                	cqto   
    ca2b:	48 f7 7d f0          	idivq  -0x10(%rbp)
    ca2f:	eb 04                	jmp    ca35 <safe_div_func_int64_t_s_s+0x3e>
    ca31:	48 8b 45 f8          	mov    -0x8(%rbp),%rax
    ca35:	5d                   	pop    %rbp
    ca36:	c3                   	retq   

000000000000ca37 <safe_lshift_func_int64_t_s_s>:
    ca37:	f3 0f 1e fa          	endbr64 
    ca3b:	55                   	push   %rbp
    ca3c:	48 89 e5             	mov    %rsp,%rbp
    ca3f:	48 89 7d f8          	mov    %rdi,-0x8(%rbp)
    ca43:	89 75 f4             	mov    %esi,-0xc(%rbp)
    ca46:	48 83 7d f8 00       	cmpq   $0x0,-0x8(%rbp)
    ca4b:	78 38                	js     ca85 <safe_lshift_func_int64_t_s_s+0x4e>
    ca4d:	83 7d f4 00          	cmpl   $0x0,-0xc(%rbp)
    ca51:	78 32                	js     ca85 <safe_lshift_func_int64_t_s_s+0x4e>
    ca53:	83 7d f4 1f          	cmpl   $0x1f,-0xc(%rbp)
    ca57:	7f 2c                	jg     ca85 <safe_lshift_func_int64_t_s_s+0x4e>
    ca59:	8b 45 f4             	mov    -0xc(%rbp),%eax
    ca5c:	48 ba ff ff ff ff ff 	movabs $0x7fffffffffffffff,%rdx
    ca63:	ff ff 7f 
    ca66:	89 c1                	mov    %eax,%ecx
    ca68:	48 d3 fa             	sar    %cl,%rdx
    ca6b:	48 89 d0             	mov    %rdx,%rax
    ca6e:	48 39 45 f8          	cmp    %rax,-0x8(%rbp)
    ca72:	7f 11                	jg     ca85 <safe_lshift_func_int64_t_s_s+0x4e>
    ca74:	8b 45 f4             	mov    -0xc(%rbp),%eax
    ca77:	48 8b 55 f8          	mov    -0x8(%rbp),%rdx
    ca7b:	89 c1                	mov    %eax,%ecx
    ca7d:	48 d3 e2             	shl    %cl,%rdx
    ca80:	48 89 d0             	mov    %rdx,%rax
    ca83:	eb 04                	jmp    ca89 <safe_lshift_func_int64_t_s_s+0x52>
    ca85:	48 8b 45 f8          	mov    -0x8(%rbp),%rax
    ca89:	5d                   	pop    %rbp
    ca8a:	c3                   	retq   

000000000000ca8b <safe_lshift_func_int64_t_s_u>:
    ca8b:	f3 0f 1e fa          	endbr64 
    ca8f:	55                   	push   %rbp
    ca90:	48 89 e5             	mov    %rsp,%rbp
    ca93:	48 89 7d f8          	mov    %rdi,-0x8(%rbp)
    ca97:	89 75 f4             	mov    %esi,-0xc(%rbp)
    ca9a:	48 83 7d f8 00       	cmpq   $0x0,-0x8(%rbp)
    ca9f:	78 32                	js     cad3 <safe_lshift_func_int64_t_s_u+0x48>
    caa1:	83 7d f4 1f          	cmpl   $0x1f,-0xc(%rbp)
    caa5:	77 2c                	ja     cad3 <safe_lshift_func_int64_t_s_u+0x48>
    caa7:	8b 45 f4             	mov    -0xc(%rbp),%eax
    caaa:	48 ba ff ff ff ff ff 	movabs $0x7fffffffffffffff,%rdx
    cab1:	ff ff 7f 
    cab4:	89 c1                	mov    %eax,%ecx
    cab6:	48 d3 fa             	sar    %cl,%rdx
    cab9:	48 89 d0             	mov    %rdx,%rax
    cabc:	48 39 45 f8          	cmp    %rax,-0x8(%rbp)
    cac0:	7f 11                	jg     cad3 <safe_lshift_func_int64_t_s_u+0x48>
    cac2:	8b 45 f4             	mov    -0xc(%rbp),%eax
    cac5:	48 8b 55 f8          	mov    -0x8(%rbp),%rdx
    cac9:	89 c1                	mov    %eax,%ecx
    cacb:	48 d3 e2             	shl    %cl,%rdx
    cace:	48 89 d0             	mov    %rdx,%rax
    cad1:	eb 04                	jmp    cad7 <safe_lshift_func_int64_t_s_u+0x4c>
    cad3:	48 8b 45 f8          	mov    -0x8(%rbp),%rax
    cad7:	5d                   	pop    %rbp
    cad8:	c3                   	retq   

000000000000cad9 <safe_rshift_func_int64_t_s_s>:
    cad9:	f3 0f 1e fa          	endbr64 
    cadd:	55                   	push   %rbp
    cade:	48 89 e5             	mov    %rsp,%rbp
    cae1:	48 89 7d f8          	mov    %rdi,-0x8(%rbp)
    cae5:	89 75 f4             	mov    %esi,-0xc(%rbp)
    cae8:	48 83 7d f8 00       	cmpq   $0x0,-0x8(%rbp)
    caed:	78 1d                	js     cb0c <safe_rshift_func_int64_t_s_s+0x33>
    caef:	83 7d f4 00          	cmpl   $0x0,-0xc(%rbp)
    caf3:	78 17                	js     cb0c <safe_rshift_func_int64_t_s_s+0x33>
    caf5:	83 7d f4 1f          	cmpl   $0x1f,-0xc(%rbp)
    caf9:	7f 11                	jg     cb0c <safe_rshift_func_int64_t_s_s+0x33>
    cafb:	8b 45 f4             	mov    -0xc(%rbp),%eax
    cafe:	48 8b 55 f8          	mov    -0x8(%rbp),%rdx
    cb02:	89 c1                	mov    %eax,%ecx
    cb04:	48 d3 fa             	sar    %cl,%rdx
    cb07:	48 89 d0             	mov    %rdx,%rax
    cb0a:	eb 04                	jmp    cb10 <safe_rshift_func_int64_t_s_s+0x37>
    cb0c:	48 8b 45 f8          	mov    -0x8(%rbp),%rax
    cb10:	5d                   	pop    %rbp
    cb11:	c3                   	retq   

000000000000cb12 <safe_rshift_func_int64_t_s_u>:
    cb12:	f3 0f 1e fa          	endbr64 
    cb16:	55                   	push   %rbp
    cb17:	48 89 e5             	mov    %rsp,%rbp
    cb1a:	48 89 7d f8          	mov    %rdi,-0x8(%rbp)
    cb1e:	89 75 f4             	mov    %esi,-0xc(%rbp)
    cb21:	48 83 7d f8 00       	cmpq   $0x0,-0x8(%rbp)
    cb26:	78 17                	js     cb3f <safe_rshift_func_int64_t_s_u+0x2d>
    cb28:	83 7d f4 1f          	cmpl   $0x1f,-0xc(%rbp)
    cb2c:	77 11                	ja     cb3f <safe_rshift_func_int64_t_s_u+0x2d>
    cb2e:	8b 45 f4             	mov    -0xc(%rbp),%eax
    cb31:	48 8b 55 f8          	mov    -0x8(%rbp),%rdx
    cb35:	89 c1                	mov    %eax,%ecx
    cb37:	48 d3 fa             	sar    %cl,%rdx
    cb3a:	48 89 d0             	mov    %rdx,%rax
    cb3d:	eb 04                	jmp    cb43 <safe_rshift_func_int64_t_s_u+0x31>
    cb3f:	48 8b 45 f8          	mov    -0x8(%rbp),%rax
    cb43:	5d                   	pop    %rbp
    cb44:	c3                   	retq   

000000000000cb45 <safe_unary_minus_func_uint8_t_u>:
    cb45:	f3 0f 1e fa          	endbr64 
    cb49:	55                   	push   %rbp
    cb4a:	48 89 e5             	mov    %rsp,%rbp
    cb4d:	89 f8                	mov    %edi,%eax
    cb4f:	88 45 fc             	mov    %al,-0x4(%rbp)
    cb52:	0f b6 45 fc          	movzbl -0x4(%rbp),%eax
    cb56:	f7 d8                	neg    %eax
    cb58:	5d                   	pop    %rbp
    cb59:	c3                   	retq   

000000000000cb5a <safe_add_func_uint8_t_u_u>:
    cb5a:	f3 0f 1e fa          	endbr64 
    cb5e:	55                   	push   %rbp
    cb5f:	48 89 e5             	mov    %rsp,%rbp
    cb62:	89 fa                	mov    %edi,%edx
    cb64:	89 f0                	mov    %esi,%eax
    cb66:	88 55 fc             	mov    %dl,-0x4(%rbp)
    cb69:	88 45 f8             	mov    %al,-0x8(%rbp)
    cb6c:	0f b6 55 fc          	movzbl -0x4(%rbp),%edx
    cb70:	0f b6 45 f8          	movzbl -0x8(%rbp),%eax
    cb74:	01 d0                	add    %edx,%eax
    cb76:	5d                   	pop    %rbp
    cb77:	c3                   	retq   

000000000000cb78 <safe_sub_func_uint8_t_u_u>:
    cb78:	f3 0f 1e fa          	endbr64 
    cb7c:	55                   	push   %rbp
    cb7d:	48 89 e5             	mov    %rsp,%rbp
    cb80:	89 fa                	mov    %edi,%edx
    cb82:	89 f0                	mov    %esi,%eax
    cb84:	88 55 fc             	mov    %dl,-0x4(%rbp)
    cb87:	88 45 f8             	mov    %al,-0x8(%rbp)
    cb8a:	0f b6 45 fc          	movzbl -0x4(%rbp),%eax
    cb8e:	2a 45 f8             	sub    -0x8(%rbp),%al
    cb91:	5d                   	pop    %rbp
    cb92:	c3                   	retq   

000000000000cb93 <safe_mul_func_uint8_t_u_u>:
    cb93:	f3 0f 1e fa          	endbr64 
    cb97:	55                   	push   %rbp
    cb98:	48 89 e5             	mov    %rsp,%rbp
    cb9b:	89 fa                	mov    %edi,%edx
    cb9d:	89 f0                	mov    %esi,%eax
    cb9f:	88 55 fc             	mov    %dl,-0x4(%rbp)
    cba2:	88 45 f8             	mov    %al,-0x8(%rbp)
    cba5:	0f b6 45 fc          	movzbl -0x4(%rbp),%eax
    cba9:	f6 65 f8             	mulb   -0x8(%rbp)
    cbac:	5d                   	pop    %rbp
    cbad:	c3                   	retq   

000000000000cbae <safe_mod_func_uint8_t_u_u>:
    cbae:	f3 0f 1e fa          	endbr64 
    cbb2:	55                   	push   %rbp
    cbb3:	48 89 e5             	mov    %rsp,%rbp
    cbb6:	89 fa                	mov    %edi,%edx
    cbb8:	89 f0                	mov    %esi,%eax
    cbba:	88 55 fc             	mov    %dl,-0x4(%rbp)
    cbbd:	88 45 f8             	mov    %al,-0x8(%rbp)
    cbc0:	80 7d f8 00          	cmpb   $0x0,-0x8(%rbp)
    cbc4:	74 0f                	je     cbd5 <safe_mod_func_uint8_t_u_u+0x27>
    cbc6:	0f b6 45 fc          	movzbl -0x4(%rbp),%eax
    cbca:	0f b6 c0             	movzbl %al,%eax
    cbcd:	f6 75 f8             	divb   -0x8(%rbp)
    cbd0:	0f b6 c4             	movzbl %ah,%eax
    cbd3:	eb 04                	jmp    cbd9 <safe_mod_func_uint8_t_u_u+0x2b>
    cbd5:	0f b6 45 fc          	movzbl -0x4(%rbp),%eax
    cbd9:	5d                   	pop    %rbp
    cbda:	c3                   	retq   

000000000000cbdb <safe_div_func_uint8_t_u_u>:
    cbdb:	f3 0f 1e fa          	endbr64 
    cbdf:	55                   	push   %rbp
    cbe0:	48 89 e5             	mov    %rsp,%rbp
    cbe3:	89 fa                	mov    %edi,%edx
    cbe5:	89 f0                	mov    %esi,%eax
    cbe7:	88 55 fc             	mov    %dl,-0x4(%rbp)
    cbea:	88 45 f8             	mov    %al,-0x8(%rbp)
    cbed:	80 7d f8 00          	cmpb   $0x0,-0x8(%rbp)
    cbf1:	74 0c                	je     cbff <safe_div_func_uint8_t_u_u+0x24>
    cbf3:	0f b6 45 fc          	movzbl -0x4(%rbp),%eax
    cbf7:	0f b6 c0             	movzbl %al,%eax
    cbfa:	f6 75 f8             	divb   -0x8(%rbp)
    cbfd:	eb 04                	jmp    cc03 <safe_div_func_uint8_t_u_u+0x28>
    cbff:	0f b6 45 fc          	movzbl -0x4(%rbp),%eax
    cc03:	5d                   	pop    %rbp
    cc04:	c3                   	retq   

000000000000cc05 <safe_lshift_func_uint8_t_u_s>:
    cc05:	f3 0f 1e fa          	endbr64 
    cc09:	55                   	push   %rbp
    cc0a:	48 89 e5             	mov    %rsp,%rbp
    cc0d:	89 f8                	mov    %edi,%eax
    cc0f:	89 75 f8             	mov    %esi,-0x8(%rbp)
    cc12:	88 45 fc             	mov    %al,-0x4(%rbp)
    cc15:	83 7d f8 00          	cmpl   $0x0,-0x8(%rbp)
    cc19:	78 2b                	js     cc46 <safe_lshift_func_uint8_t_u_s+0x41>
    cc1b:	83 7d f8 1f          	cmpl   $0x1f,-0x8(%rbp)
    cc1f:	7f 25                	jg     cc46 <safe_lshift_func_uint8_t_u_s+0x41>
    cc21:	0f b6 55 fc          	movzbl -0x4(%rbp),%edx
    cc25:	8b 45 f8             	mov    -0x8(%rbp),%eax
    cc28:	be ff 00 00 00       	mov    $0xff,%esi
    cc2d:	89 c1                	mov    %eax,%ecx
    cc2f:	d3 fe                	sar    %cl,%esi
    cc31:	89 f0                	mov    %esi,%eax
    cc33:	39 c2                	cmp    %eax,%edx
    cc35:	7f 0f                	jg     cc46 <safe_lshift_func_uint8_t_u_s+0x41>
    cc37:	0f b6 55 fc          	movzbl -0x4(%rbp),%edx
    cc3b:	8b 45 f8             	mov    -0x8(%rbp),%eax
    cc3e:	89 c1                	mov    %eax,%ecx
    cc40:	d3 e2                	shl    %cl,%edx
    cc42:	89 d0                	mov    %edx,%eax
    cc44:	eb 04                	jmp    cc4a <safe_lshift_func_uint8_t_u_s+0x45>
    cc46:	0f b6 45 fc          	movzbl -0x4(%rbp),%eax
    cc4a:	5d                   	pop    %rbp
    cc4b:	c3                   	retq   

000000000000cc4c <safe_lshift_func_uint8_t_u_u>:
    cc4c:	f3 0f 1e fa          	endbr64 
    cc50:	55                   	push   %rbp
    cc51:	48 89 e5             	mov    %rsp,%rbp
    cc54:	89 f8                	mov    %edi,%eax
    cc56:	89 75 f8             	mov    %esi,-0x8(%rbp)
    cc59:	88 45 fc             	mov    %al,-0x4(%rbp)
    cc5c:	83 7d f8 1f          	cmpl   $0x1f,-0x8(%rbp)
    cc60:	77 25                	ja     cc87 <safe_lshift_func_uint8_t_u_u+0x3b>
    cc62:	0f b6 55 fc          	movzbl -0x4(%rbp),%edx
    cc66:	8b 45 f8             	mov    -0x8(%rbp),%eax
    cc69:	be ff 00 00 00       	mov    $0xff,%esi
    cc6e:	89 c1                	mov    %eax,%ecx
    cc70:	d3 fe                	sar    %cl,%esi
    cc72:	89 f0                	mov    %esi,%eax
    cc74:	39 c2                	cmp    %eax,%edx
    cc76:	7f 0f                	jg     cc87 <safe_lshift_func_uint8_t_u_u+0x3b>
    cc78:	0f b6 55 fc          	movzbl -0x4(%rbp),%edx
    cc7c:	8b 45 f8             	mov    -0x8(%rbp),%eax
    cc7f:	89 c1                	mov    %eax,%ecx
    cc81:	d3 e2                	shl    %cl,%edx
    cc83:	89 d0                	mov    %edx,%eax
    cc85:	eb 04                	jmp    cc8b <safe_lshift_func_uint8_t_u_u+0x3f>
    cc87:	0f b6 45 fc          	movzbl -0x4(%rbp),%eax
    cc8b:	5d                   	pop    %rbp
    cc8c:	c3                   	retq   

000000000000cc8d <safe_rshift_func_uint8_t_u_s>:
    cc8d:	f3 0f 1e fa          	endbr64 
    cc91:	55                   	push   %rbp
    cc92:	48 89 e5             	mov    %rsp,%rbp
    cc95:	89 f8                	mov    %edi,%eax
    cc97:	89 75 f8             	mov    %esi,-0x8(%rbp)
    cc9a:	88 45 fc             	mov    %al,-0x4(%rbp)
    cc9d:	83 7d f8 00          	cmpl   $0x0,-0x8(%rbp)
    cca1:	78 15                	js     ccb8 <safe_rshift_func_uint8_t_u_s+0x2b>
    cca3:	83 7d f8 1f          	cmpl   $0x1f,-0x8(%rbp)
    cca7:	7f 0f                	jg     ccb8 <safe_rshift_func_uint8_t_u_s+0x2b>
    cca9:	0f b6 55 fc          	movzbl -0x4(%rbp),%edx
    ccad:	8b 45 f8             	mov    -0x8(%rbp),%eax
    ccb0:	89 c1                	mov    %eax,%ecx
    ccb2:	d3 fa                	sar    %cl,%edx
    ccb4:	89 d0                	mov    %edx,%eax
    ccb6:	eb 04                	jmp    ccbc <safe_rshift_func_uint8_t_u_s+0x2f>
    ccb8:	0f b6 45 fc          	movzbl -0x4(%rbp),%eax
    ccbc:	5d                   	pop    %rbp
    ccbd:	c3                   	retq   

000000000000ccbe <safe_rshift_func_uint8_t_u_u>:
    ccbe:	f3 0f 1e fa          	endbr64 
    ccc2:	55                   	push   %rbp
    ccc3:	48 89 e5             	mov    %rsp,%rbp
    ccc6:	89 f8                	mov    %edi,%eax
    ccc8:	89 75 f8             	mov    %esi,-0x8(%rbp)
    cccb:	88 45 fc             	mov    %al,-0x4(%rbp)
    ccce:	83 7d f8 1f          	cmpl   $0x1f,-0x8(%rbp)
    ccd2:	77 0f                	ja     cce3 <safe_rshift_func_uint8_t_u_u+0x25>
    ccd4:	0f b6 55 fc          	movzbl -0x4(%rbp),%edx
    ccd8:	8b 45 f8             	mov    -0x8(%rbp),%eax
    ccdb:	89 c1                	mov    %eax,%ecx
    ccdd:	d3 fa                	sar    %cl,%edx
    ccdf:	89 d0                	mov    %edx,%eax
    cce1:	eb 04                	jmp    cce7 <safe_rshift_func_uint8_t_u_u+0x29>
    cce3:	0f b6 45 fc          	movzbl -0x4(%rbp),%eax
    cce7:	5d                   	pop    %rbp
    cce8:	c3                   	retq   

000000000000cce9 <safe_unary_minus_func_uint16_t_u>:
    cce9:	f3 0f 1e fa          	endbr64 
    cced:	55                   	push   %rbp
    ccee:	48 89 e5             	mov    %rsp,%rbp
    ccf1:	89 f8                	mov    %edi,%eax
    ccf3:	66 89 45 fc          	mov    %ax,-0x4(%rbp)
    ccf7:	0f b7 45 fc          	movzwl -0x4(%rbp),%eax
    ccfb:	f7 d8                	neg    %eax
    ccfd:	5d                   	pop    %rbp
    ccfe:	c3                   	retq   

000000000000ccff <safe_add_func_uint16_t_u_u>:
    ccff:	f3 0f 1e fa          	endbr64 
    cd03:	55                   	push   %rbp
    cd04:	48 89 e5             	mov    %rsp,%rbp
    cd07:	89 fa                	mov    %edi,%edx
    cd09:	89 f0                	mov    %esi,%eax
    cd0b:	66 89 55 fc          	mov    %dx,-0x4(%rbp)
    cd0f:	66 89 45 f8          	mov    %ax,-0x8(%rbp)
    cd13:	0f b7 55 fc          	movzwl -0x4(%rbp),%edx
    cd17:	0f b7 45 f8          	movzwl -0x8(%rbp),%eax
    cd1b:	01 d0                	add    %edx,%eax
    cd1d:	5d                   	pop    %rbp
    cd1e:	c3                   	retq   

000000000000cd1f <safe_sub_func_uint16_t_u_u>:
    cd1f:	f3 0f 1e fa          	endbr64 
    cd23:	55                   	push   %rbp
    cd24:	48 89 e5             	mov    %rsp,%rbp
    cd27:	89 fa                	mov    %edi,%edx
    cd29:	89 f0                	mov    %esi,%eax
    cd2b:	66 89 55 fc          	mov    %dx,-0x4(%rbp)
    cd2f:	66 89 45 f8          	mov    %ax,-0x8(%rbp)
    cd33:	0f b7 45 fc          	movzwl -0x4(%rbp),%eax
    cd37:	66 2b 45 f8          	sub    -0x8(%rbp),%ax
    cd3b:	5d                   	pop    %rbp
    cd3c:	c3                   	retq   

000000000000cd3d <safe_mul_func_uint16_t_u_u>:
    cd3d:	f3 0f 1e fa          	endbr64 
    cd41:	55                   	push   %rbp
    cd42:	48 89 e5             	mov    %rsp,%rbp
    cd45:	89 fa                	mov    %edi,%edx
    cd47:	89 f0                	mov    %esi,%eax
    cd49:	66 89 55 fc          	mov    %dx,-0x4(%rbp)
    cd4d:	66 89 45 f8          	mov    %ax,-0x8(%rbp)
    cd51:	0f b7 45 fc          	movzwl -0x4(%rbp),%eax
    cd55:	66 0f af 45 f8       	imul   -0x8(%rbp),%ax
    cd5a:	5d                   	pop    %rbp
    cd5b:	c3                   	retq   

000000000000cd5c <safe_mod_func_uint16_t_u_u>:
    cd5c:	f3 0f 1e fa          	endbr64 
    cd60:	55                   	push   %rbp
    cd61:	48 89 e5             	mov    %rsp,%rbp
    cd64:	89 fa                	mov    %edi,%edx
    cd66:	89 f0                	mov    %esi,%eax
    cd68:	66 89 55 fc          	mov    %dx,-0x4(%rbp)
    cd6c:	66 89 45 f8          	mov    %ax,-0x8(%rbp)
    cd70:	66 83 7d f8 00       	cmpw   $0x0,-0x8(%rbp)
    cd75:	74 11                	je     cd88 <safe_mod_func_uint16_t_u_u+0x2c>
    cd77:	0f b7 45 fc          	movzwl -0x4(%rbp),%eax
    cd7b:	ba 00 00 00 00       	mov    $0x0,%edx
    cd80:	66 f7 75 f8          	divw   -0x8(%rbp)
    cd84:	89 d0                	mov    %edx,%eax
    cd86:	eb 04                	jmp    cd8c <safe_mod_func_uint16_t_u_u+0x30>
    cd88:	0f b7 45 fc          	movzwl -0x4(%rbp),%eax
    cd8c:	5d                   	pop    %rbp
    cd8d:	c3                   	retq   

000000000000cd8e <safe_div_func_uint16_t_u_u>:
    cd8e:	f3 0f 1e fa          	endbr64 
    cd92:	55                   	push   %rbp
    cd93:	48 89 e5             	mov    %rsp,%rbp
    cd96:	89 fa                	mov    %edi,%edx
    cd98:	89 f0                	mov    %esi,%eax
    cd9a:	66 89 55 fc          	mov    %dx,-0x4(%rbp)
    cd9e:	66 89 45 f8          	mov    %ax,-0x8(%rbp)
    cda2:	66 83 7d f8 00       	cmpw   $0x0,-0x8(%rbp)
    cda7:	74 0f                	je     cdb8 <safe_div_func_uint16_t_u_u+0x2a>
    cda9:	0f b7 45 fc          	movzwl -0x4(%rbp),%eax
    cdad:	ba 00 00 00 00       	mov    $0x0,%edx
    cdb2:	66 f7 75 f8          	divw   -0x8(%rbp)
    cdb6:	eb 04                	jmp    cdbc <safe_div_func_uint16_t_u_u+0x2e>
    cdb8:	0f b7 45 fc          	movzwl -0x4(%rbp),%eax
    cdbc:	5d                   	pop    %rbp
    cdbd:	c3                   	retq   

000000000000cdbe <safe_lshift_func_uint16_t_u_s>:
    cdbe:	f3 0f 1e fa          	endbr64 
    cdc2:	55                   	push   %rbp
    cdc3:	48 89 e5             	mov    %rsp,%rbp
    cdc6:	89 f8                	mov    %edi,%eax
    cdc8:	89 75 f8             	mov    %esi,-0x8(%rbp)
    cdcb:	66 89 45 fc          	mov    %ax,-0x4(%rbp)
    cdcf:	83 7d f8 00          	cmpl   $0x0,-0x8(%rbp)
    cdd3:	78 2b                	js     ce00 <safe_lshift_func_uint16_t_u_s+0x42>
    cdd5:	83 7d f8 1f          	cmpl   $0x1f,-0x8(%rbp)
    cdd9:	7f 25                	jg     ce00 <safe_lshift_func_uint16_t_u_s+0x42>
    cddb:	0f b7 55 fc          	movzwl -0x4(%rbp),%edx
    cddf:	8b 45 f8             	mov    -0x8(%rbp),%eax
    cde2:	be ff ff 00 00       	mov    $0xffff,%esi
    cde7:	89 c1                	mov    %eax,%ecx
    cde9:	d3 fe                	sar    %cl,%esi
    cdeb:	89 f0                	mov    %esi,%eax
    cded:	39 c2                	cmp    %eax,%edx
    cdef:	7f 0f                	jg     ce00 <safe_lshift_func_uint16_t_u_s+0x42>
    cdf1:	0f b7 55 fc          	movzwl -0x4(%rbp),%edx
    cdf5:	8b 45 f8             	mov    -0x8(%rbp),%eax
    cdf8:	89 c1                	mov    %eax,%ecx
    cdfa:	d3 e2                	shl    %cl,%edx
    cdfc:	89 d0                	mov    %edx,%eax
    cdfe:	eb 04                	jmp    ce04 <safe_lshift_func_uint16_t_u_s+0x46>
    ce00:	0f b7 45 fc          	movzwl -0x4(%rbp),%eax
    ce04:	5d                   	pop    %rbp
    ce05:	c3                   	retq   

000000000000ce06 <safe_lshift_func_uint16_t_u_u>:
    ce06:	f3 0f 1e fa          	endbr64 
    ce0a:	55                   	push   %rbp
    ce0b:	48 89 e5             	mov    %rsp,%rbp
    ce0e:	89 f8                	mov    %edi,%eax
    ce10:	89 75 f8             	mov    %esi,-0x8(%rbp)
    ce13:	66 89 45 fc          	mov    %ax,-0x4(%rbp)
    ce17:	83 7d f8 1f          	cmpl   $0x1f,-0x8(%rbp)
    ce1b:	77 25                	ja     ce42 <safe_lshift_func_uint16_t_u_u+0x3c>
    ce1d:	0f b7 55 fc          	movzwl -0x4(%rbp),%edx
    ce21:	8b 45 f8             	mov    -0x8(%rbp),%eax
    ce24:	be ff ff 00 00       	mov    $0xffff,%esi
    ce29:	89 c1                	mov    %eax,%ecx
    ce2b:	d3 fe                	sar    %cl,%esi
    ce2d:	89 f0                	mov    %esi,%eax
    ce2f:	39 c2                	cmp    %eax,%edx
    ce31:	7f 0f                	jg     ce42 <safe_lshift_func_uint16_t_u_u+0x3c>
    ce33:	0f b7 55 fc          	movzwl -0x4(%rbp),%edx
    ce37:	8b 45 f8             	mov    -0x8(%rbp),%eax
    ce3a:	89 c1                	mov    %eax,%ecx
    ce3c:	d3 e2                	shl    %cl,%edx
    ce3e:	89 d0                	mov    %edx,%eax
    ce40:	eb 04                	jmp    ce46 <safe_lshift_func_uint16_t_u_u+0x40>
    ce42:	0f b7 45 fc          	movzwl -0x4(%rbp),%eax
    ce46:	5d                   	pop    %rbp
    ce47:	c3                   	retq   

000000000000ce48 <safe_rshift_func_uint16_t_u_s>:
    ce48:	f3 0f 1e fa          	endbr64 
    ce4c:	55                   	push   %rbp
    ce4d:	48 89 e5             	mov    %rsp,%rbp
    ce50:	89 f8                	mov    %edi,%eax
    ce52:	89 75 f8             	mov    %esi,-0x8(%rbp)
    ce55:	66 89 45 fc          	mov    %ax,-0x4(%rbp)
    ce59:	83 7d f8 00          	cmpl   $0x0,-0x8(%rbp)
    ce5d:	78 15                	js     ce74 <safe_rshift_func_uint16_t_u_s+0x2c>
    ce5f:	83 7d f8 1f          	cmpl   $0x1f,-0x8(%rbp)
    ce63:	7f 0f                	jg     ce74 <safe_rshift_func_uint16_t_u_s+0x2c>
    ce65:	0f b7 55 fc          	movzwl -0x4(%rbp),%edx
    ce69:	8b 45 f8             	mov    -0x8(%rbp),%eax
    ce6c:	89 c1                	mov    %eax,%ecx
    ce6e:	d3 fa                	sar    %cl,%edx
    ce70:	89 d0                	mov    %edx,%eax
    ce72:	eb 04                	jmp    ce78 <safe_rshift_func_uint16_t_u_s+0x30>
    ce74:	0f b7 45 fc          	movzwl -0x4(%rbp),%eax
    ce78:	5d                   	pop    %rbp
    ce79:	c3                   	retq   

000000000000ce7a <safe_rshift_func_uint16_t_u_u>:
    ce7a:	f3 0f 1e fa          	endbr64 
    ce7e:	55                   	push   %rbp
    ce7f:	48 89 e5             	mov    %rsp,%rbp
    ce82:	89 f8                	mov    %edi,%eax
    ce84:	89 75 f8             	mov    %esi,-0x8(%rbp)
    ce87:	66 89 45 fc          	mov    %ax,-0x4(%rbp)
    ce8b:	83 7d f8 1f          	cmpl   $0x1f,-0x8(%rbp)
    ce8f:	77 0f                	ja     cea0 <safe_rshift_func_uint16_t_u_u+0x26>
    ce91:	0f b7 55 fc          	movzwl -0x4(%rbp),%edx
    ce95:	8b 45 f8             	mov    -0x8(%rbp),%eax
    ce98:	89 c1                	mov    %eax,%ecx
    ce9a:	d3 fa                	sar    %cl,%edx
    ce9c:	89 d0                	mov    %edx,%eax
    ce9e:	eb 04                	jmp    cea4 <safe_rshift_func_uint16_t_u_u+0x2a>
    cea0:	0f b7 45 fc          	movzwl -0x4(%rbp),%eax
    cea4:	5d                   	pop    %rbp
    cea5:	c3                   	retq   

000000000000cea6 <safe_unary_minus_func_uint32_t_u>:
    cea6:	f3 0f 1e fa          	endbr64 
    ceaa:	55                   	push   %rbp
    ceab:	48 89 e5             	mov    %rsp,%rbp
    ceae:	89 7d fc             	mov    %edi,-0x4(%rbp)
    ceb1:	8b 45 fc             	mov    -0x4(%rbp),%eax
    ceb4:	f7 d8                	neg    %eax
    ceb6:	5d                   	pop    %rbp
    ceb7:	c3                   	retq   

000000000000ceb8 <safe_add_func_uint32_t_u_u>:
    ceb8:	f3 0f 1e fa          	endbr64 
    cebc:	55                   	push   %rbp
    cebd:	48 89 e5             	mov    %rsp,%rbp
    cec0:	89 7d fc             	mov    %edi,-0x4(%rbp)
    cec3:	89 75 f8             	mov    %esi,-0x8(%rbp)
    cec6:	8b 55 fc             	mov    -0x4(%rbp),%edx
    cec9:	8b 45 f8             	mov    -0x8(%rbp),%eax
    cecc:	01 d0                	add    %edx,%eax
    cece:	5d                   	pop    %rbp
    cecf:	c3                   	retq   

000000000000ced0 <safe_sub_func_uint32_t_u_u>:
    ced0:	f3 0f 1e fa          	endbr64 
    ced4:	55                   	push   %rbp
    ced5:	48 89 e5             	mov    %rsp,%rbp
    ced8:	89 7d fc             	mov    %edi,-0x4(%rbp)
    cedb:	89 75 f8             	mov    %esi,-0x8(%rbp)
    cede:	8b 45 fc             	mov    -0x4(%rbp),%eax
    cee1:	2b 45 f8             	sub    -0x8(%rbp),%eax
    cee4:	5d                   	pop    %rbp
    cee5:	c3                   	retq   

000000000000cee6 <safe_mul_func_uint32_t_u_u>:
    cee6:	f3 0f 1e fa          	endbr64 
    ceea:	55                   	push   %rbp
    ceeb:	48 89 e5             	mov    %rsp,%rbp
    ceee:	89 7d fc             	mov    %edi,-0x4(%rbp)
    cef1:	89 75 f8             	mov    %esi,-0x8(%rbp)
    cef4:	8b 45 fc             	mov    -0x4(%rbp),%eax
    cef7:	0f af 45 f8          	imul   -0x8(%rbp),%eax
    cefb:	5d                   	pop    %rbp
    cefc:	c3                   	retq   

000000000000cefd <safe_mod_func_uint32_t_u_u>:
    cefd:	f3 0f 1e fa          	endbr64 
    cf01:	55                   	push   %rbp
    cf02:	48 89 e5             	mov    %rsp,%rbp
    cf05:	89 7d fc             	mov    %edi,-0x4(%rbp)
    cf08:	89 75 f8             	mov    %esi,-0x8(%rbp)
    cf0b:	83 7d f8 00          	cmpl   $0x0,-0x8(%rbp)
    cf0f:	74 0f                	je     cf20 <safe_mod_func_uint32_t_u_u+0x23>
    cf11:	8b 45 fc             	mov    -0x4(%rbp),%eax
    cf14:	ba 00 00 00 00       	mov    $0x0,%edx
    cf19:	f7 75 f8             	divl   -0x8(%rbp)
    cf1c:	89 d0                	mov    %edx,%eax
    cf1e:	eb 03                	jmp    cf23 <safe_mod_func_uint32_t_u_u+0x26>
    cf20:	8b 45 fc             	mov    -0x4(%rbp),%eax
    cf23:	5d                   	pop    %rbp
    cf24:	c3                   	retq   

000000000000cf25 <safe_div_func_uint32_t_u_u>:
    cf25:	f3 0f 1e fa          	endbr64 
    cf29:	55                   	push   %rbp
    cf2a:	48 89 e5             	mov    %rsp,%rbp
    cf2d:	89 7d fc             	mov    %edi,-0x4(%rbp)
    cf30:	89 75 f8             	mov    %esi,-0x8(%rbp)
    cf33:	83 7d f8 00          	cmpl   $0x0,-0x8(%rbp)
    cf37:	74 0d                	je     cf46 <safe_div_func_uint32_t_u_u+0x21>
    cf39:	8b 45 fc             	mov    -0x4(%rbp),%eax
    cf3c:	ba 00 00 00 00       	mov    $0x0,%edx
    cf41:	f7 75 f8             	divl   -0x8(%rbp)
    cf44:	eb 03                	jmp    cf49 <safe_div_func_uint32_t_u_u+0x24>
    cf46:	8b 45 fc             	mov    -0x4(%rbp),%eax
    cf49:	5d                   	pop    %rbp
    cf4a:	c3                   	retq   

000000000000cf4b <safe_lshift_func_uint32_t_u_s>:
    cf4b:	f3 0f 1e fa          	endbr64 
    cf4f:	55                   	push   %rbp
    cf50:	48 89 e5             	mov    %rsp,%rbp
    cf53:	89 7d fc             	mov    %edi,-0x4(%rbp)
    cf56:	89 75 f8             	mov    %esi,-0x8(%rbp)
    cf59:	83 7d f8 00          	cmpl   $0x0,-0x8(%rbp)
    cf5d:	78 27                	js     cf86 <safe_lshift_func_uint32_t_u_s+0x3b>
    cf5f:	83 7d f8 1f          	cmpl   $0x1f,-0x8(%rbp)
    cf63:	7f 21                	jg     cf86 <safe_lshift_func_uint32_t_u_s+0x3b>
    cf65:	8b 45 f8             	mov    -0x8(%rbp),%eax
    cf68:	ba ff ff ff ff       	mov    $0xffffffff,%edx
    cf6d:	89 c1                	mov    %eax,%ecx
    cf6f:	d3 ea                	shr    %cl,%edx
    cf71:	89 d0                	mov    %edx,%eax
    cf73:	39 45 fc             	cmp    %eax,-0x4(%rbp)
    cf76:	77 0e                	ja     cf86 <safe_lshift_func_uint32_t_u_s+0x3b>
    cf78:	8b 45 f8             	mov    -0x8(%rbp),%eax
    cf7b:	8b 55 fc             	mov    -0x4(%rbp),%edx
    cf7e:	89 c1                	mov    %eax,%ecx
    cf80:	d3 e2                	shl    %cl,%edx
    cf82:	89 d0                	mov    %edx,%eax
    cf84:	eb 03                	jmp    cf89 <safe_lshift_func_uint32_t_u_s+0x3e>
    cf86:	8b 45 fc             	mov    -0x4(%rbp),%eax
    cf89:	5d                   	pop    %rbp
    cf8a:	c3                   	retq   

000000000000cf8b <safe_lshift_func_uint32_t_u_u>:
    cf8b:	f3 0f 1e fa          	endbr64 
    cf8f:	55                   	push   %rbp
    cf90:	48 89 e5             	mov    %rsp,%rbp
    cf93:	89 7d fc             	mov    %edi,-0x4(%rbp)
    cf96:	89 75 f8             	mov    %esi,-0x8(%rbp)
    cf99:	83 7d f8 1f          	cmpl   $0x1f,-0x8(%rbp)
    cf9d:	77 21                	ja     cfc0 <safe_lshift_func_uint32_t_u_u+0x35>
    cf9f:	8b 45 f8             	mov    -0x8(%rbp),%eax
    cfa2:	ba ff ff ff ff       	mov    $0xffffffff,%edx
    cfa7:	89 c1                	mov    %eax,%ecx
    cfa9:	d3 ea                	shr    %cl,%edx
    cfab:	89 d0                	mov    %edx,%eax
    cfad:	39 45 fc             	cmp    %eax,-0x4(%rbp)
    cfb0:	77 0e                	ja     cfc0 <safe_lshift_func_uint32_t_u_u+0x35>
    cfb2:	8b 45 f8             	mov    -0x8(%rbp),%eax
    cfb5:	8b 55 fc             	mov    -0x4(%rbp),%edx
    cfb8:	89 c1                	mov    %eax,%ecx
    cfba:	d3 e2                	shl    %cl,%edx
    cfbc:	89 d0                	mov    %edx,%eax
    cfbe:	eb 03                	jmp    cfc3 <safe_lshift_func_uint32_t_u_u+0x38>
    cfc0:	8b 45 fc             	mov    -0x4(%rbp),%eax
    cfc3:	5d                   	pop    %rbp
    cfc4:	c3                   	retq   

000000000000cfc5 <safe_rshift_func_uint32_t_u_s>:
    cfc5:	f3 0f 1e fa          	endbr64 
    cfc9:	55                   	push   %rbp
    cfca:	48 89 e5             	mov    %rsp,%rbp
    cfcd:	89 7d fc             	mov    %edi,-0x4(%rbp)
    cfd0:	89 75 f8             	mov    %esi,-0x8(%rbp)
    cfd3:	83 7d f8 00          	cmpl   $0x0,-0x8(%rbp)
    cfd7:	78 14                	js     cfed <safe_rshift_func_uint32_t_u_s+0x28>
    cfd9:	83 7d f8 1f          	cmpl   $0x1f,-0x8(%rbp)
    cfdd:	7f 0e                	jg     cfed <safe_rshift_func_uint32_t_u_s+0x28>
    cfdf:	8b 45 f8             	mov    -0x8(%rbp),%eax
    cfe2:	8b 55 fc             	mov    -0x4(%rbp),%edx
    cfe5:	89 c1                	mov    %eax,%ecx
    cfe7:	d3 ea                	shr    %cl,%edx
    cfe9:	89 d0                	mov    %edx,%eax
    cfeb:	eb 03                	jmp    cff0 <safe_rshift_func_uint32_t_u_s+0x2b>
    cfed:	8b 45 fc             	mov    -0x4(%rbp),%eax
    cff0:	5d                   	pop    %rbp
    cff1:	c3                   	retq   

000000000000cff2 <safe_rshift_func_uint32_t_u_u>:
    cff2:	f3 0f 1e fa          	endbr64 
    cff6:	55                   	push   %rbp
    cff7:	48 89 e5             	mov    %rsp,%rbp
    cffa:	89 7d fc             	mov    %edi,-0x4(%rbp)
    cffd:	89 75 f8             	mov    %esi,-0x8(%rbp)
    d000:	83 7d f8 1f          	cmpl   $0x1f,-0x8(%rbp)
    d004:	77 0e                	ja     d014 <safe_rshift_func_uint32_t_u_u+0x22>
    d006:	8b 45 f8             	mov    -0x8(%rbp),%eax
    d009:	8b 55 fc             	mov    -0x4(%rbp),%edx
    d00c:	89 c1                	mov    %eax,%ecx
    d00e:	d3 ea                	shr    %cl,%edx
    d010:	89 d0                	mov    %edx,%eax
    d012:	eb 03                	jmp    d017 <safe_rshift_func_uint32_t_u_u+0x25>
    d014:	8b 45 fc             	mov    -0x4(%rbp),%eax
    d017:	5d                   	pop    %rbp
    d018:	c3                   	retq   

000000000000d019 <safe_unary_minus_func_uint64_t_u>:
    d019:	f3 0f 1e fa          	endbr64 
    d01d:	55                   	push   %rbp
    d01e:	48 89 e5             	mov    %rsp,%rbp
    d021:	48 89 7d f8          	mov    %rdi,-0x8(%rbp)
    d025:	48 8b 45 f8          	mov    -0x8(%rbp),%rax
    d029:	48 f7 d8             	neg    %rax
    d02c:	5d                   	pop    %rbp
    d02d:	c3                   	retq   

000000000000d02e <safe_add_func_uint64_t_u_u>:
    d02e:	f3 0f 1e fa          	endbr64 
    d032:	55                   	push   %rbp
    d033:	48 89 e5             	mov    %rsp,%rbp
    d036:	48 89 7d f8          	mov    %rdi,-0x8(%rbp)
    d03a:	48 89 75 f0          	mov    %rsi,-0x10(%rbp)
    d03e:	48 8b 55 f8          	mov    -0x8(%rbp),%rdx
    d042:	48 8b 45 f0          	mov    -0x10(%rbp),%rax
    d046:	48 01 d0             	add    %rdx,%rax
    d049:	5d                   	pop    %rbp
    d04a:	c3                   	retq   

000000000000d04b <safe_sub_func_uint64_t_u_u>:
    d04b:	f3 0f 1e fa          	endbr64 
    d04f:	55                   	push   %rbp
    d050:	48 89 e5             	mov    %rsp,%rbp
    d053:	48 89 7d f8          	mov    %rdi,-0x8(%rbp)
    d057:	48 89 75 f0          	mov    %rsi,-0x10(%rbp)
    d05b:	48 8b 45 f8          	mov    -0x8(%rbp),%rax
    d05f:	48 2b 45 f0          	sub    -0x10(%rbp),%rax
    d063:	5d                   	pop    %rbp
    d064:	c3                   	retq   

000000000000d065 <safe_mul_func_uint64_t_u_u>:
    d065:	f3 0f 1e fa          	endbr64 
    d069:	55                   	push   %rbp
    d06a:	48 89 e5             	mov    %rsp,%rbp
    d06d:	48 89 7d f8          	mov    %rdi,-0x8(%rbp)
    d071:	48 89 75 f0          	mov    %rsi,-0x10(%rbp)
    d075:	48 8b 45 f8          	mov    -0x8(%rbp),%rax
    d079:	48 0f af 45 f0       	imul   -0x10(%rbp),%rax
    d07e:	5d                   	pop    %rbp
    d07f:	c3                   	retq   

000000000000d080 <safe_mod_func_uint64_t_u_u>:
    d080:	f3 0f 1e fa          	endbr64 
    d084:	55                   	push   %rbp
    d085:	48 89 e5             	mov    %rsp,%rbp
    d088:	48 89 7d f8          	mov    %rdi,-0x8(%rbp)
    d08c:	48 89 75 f0          	mov    %rsi,-0x10(%rbp)
    d090:	48 83 7d f0 00       	cmpq   $0x0,-0x10(%rbp)
    d095:	74 12                	je     d0a9 <safe_mod_func_uint64_t_u_u+0x29>
    d097:	48 8b 45 f8          	mov    -0x8(%rbp),%rax
    d09b:	ba 00 00 00 00       	mov    $0x0,%edx
    d0a0:	48 f7 75 f0          	divq   -0x10(%rbp)
    d0a4:	48 89 d0             	mov    %rdx,%rax
    d0a7:	eb 04                	jmp    d0ad <safe_mod_func_uint64_t_u_u+0x2d>
    d0a9:	48 8b 45 f8          	mov    -0x8(%rbp),%rax
    d0ad:	5d                   	pop    %rbp
    d0ae:	c3                   	retq   

000000000000d0af <safe_div_func_uint64_t_u_u>:
    d0af:	f3 0f 1e fa          	endbr64 
    d0b3:	55                   	push   %rbp
    d0b4:	48 89 e5             	mov    %rsp,%rbp
    d0b7:	48 89 7d f8          	mov    %rdi,-0x8(%rbp)
    d0bb:	48 89 75 f0          	mov    %rsi,-0x10(%rbp)
    d0bf:	48 83 7d f0 00       	cmpq   $0x0,-0x10(%rbp)
    d0c4:	74 0f                	je     d0d5 <safe_div_func_uint64_t_u_u+0x26>
    d0c6:	48 8b 45 f8          	mov    -0x8(%rbp),%rax
    d0ca:	ba 00 00 00 00       	mov    $0x0,%edx
    d0cf:	48 f7 75 f0          	divq   -0x10(%rbp)
    d0d3:	eb 04                	jmp    d0d9 <safe_div_func_uint64_t_u_u+0x2a>
    d0d5:	48 8b 45 f8          	mov    -0x8(%rbp),%rax
    d0d9:	5d                   	pop    %rbp
    d0da:	c3                   	retq   

000000000000d0db <safe_lshift_func_uint64_t_u_s>:
    d0db:	f3 0f 1e fa          	endbr64 
    d0df:	55                   	push   %rbp
    d0e0:	48 89 e5             	mov    %rsp,%rbp
    d0e3:	48 89 7d f8          	mov    %rdi,-0x8(%rbp)
    d0e7:	89 75 f4             	mov    %esi,-0xc(%rbp)
    d0ea:	83 7d f4 00          	cmpl   $0x0,-0xc(%rbp)
    d0ee:	78 2f                	js     d11f <safe_lshift_func_uint64_t_u_s+0x44>
    d0f0:	83 7d f4 1f          	cmpl   $0x1f,-0xc(%rbp)
    d0f4:	7f 29                	jg     d11f <safe_lshift_func_uint64_t_u_s+0x44>
    d0f6:	8b 45 f4             	mov    -0xc(%rbp),%eax
    d0f9:	48 c7 c2 ff ff ff ff 	mov    $0xffffffffffffffff,%rdx
    d100:	89 c1                	mov    %eax,%ecx
    d102:	48 d3 ea             	shr    %cl,%rdx
    d105:	48 89 d0             	mov    %rdx,%rax
    d108:	48 39 45 f8          	cmp    %rax,-0x8(%rbp)
    d10c:	77 11                	ja     d11f <safe_lshift_func_uint64_t_u_s+0x44>
    d10e:	8b 45 f4             	mov    -0xc(%rbp),%eax
    d111:	48 8b 55 f8          	mov    -0x8(%rbp),%rdx
    d115:	89 c1                	mov    %eax,%ecx
    d117:	48 d3 e2             	shl    %cl,%rdx
    d11a:	48 89 d0             	mov    %rdx,%rax
    d11d:	eb 04                	jmp    d123 <safe_lshift_func_uint64_t_u_s+0x48>
    d11f:	48 8b 45 f8          	mov    -0x8(%rbp),%rax
    d123:	5d                   	pop    %rbp
    d124:	c3                   	retq   

000000000000d125 <safe_lshift_func_uint64_t_u_u>:
    d125:	f3 0f 1e fa          	endbr64 
    d129:	55                   	push   %rbp
    d12a:	48 89 e5             	mov    %rsp,%rbp
    d12d:	48 89 7d f8          	mov    %rdi,-0x8(%rbp)
    d131:	89 75 f4             	mov    %esi,-0xc(%rbp)
    d134:	83 7d f4 1f          	cmpl   $0x1f,-0xc(%rbp)
    d138:	77 29                	ja     d163 <safe_lshift_func_uint64_t_u_u+0x3e>
    d13a:	8b 45 f4             	mov    -0xc(%rbp),%eax
    d13d:	48 c7 c2 ff ff ff ff 	mov    $0xffffffffffffffff,%rdx
    d144:	89 c1                	mov    %eax,%ecx
    d146:	48 d3 ea             	shr    %cl,%rdx
    d149:	48 89 d0             	mov    %rdx,%rax
    d14c:	48 39 45 f8          	cmp    %rax,-0x8(%rbp)
    d150:	77 11                	ja     d163 <safe_lshift_func_uint64_t_u_u+0x3e>
    d152:	8b 45 f4             	mov    -0xc(%rbp),%eax
    d155:	48 8b 55 f8          	mov    -0x8(%rbp),%rdx
    d159:	89 c1                	mov    %eax,%ecx
    d15b:	48 d3 e2             	shl    %cl,%rdx
    d15e:	48 89 d0             	mov    %rdx,%rax
    d161:	eb 04                	jmp    d167 <safe_lshift_func_uint64_t_u_u+0x42>
    d163:	48 8b 45 f8          	mov    -0x8(%rbp),%rax
    d167:	5d                   	pop    %rbp
    d168:	c3                   	retq   

000000000000d169 <safe_rshift_func_uint64_t_u_s>:
    d169:	f3 0f 1e fa          	endbr64 
    d16d:	55                   	push   %rbp
    d16e:	48 89 e5             	mov    %rsp,%rbp
    d171:	48 89 7d f8          	mov    %rdi,-0x8(%rbp)
    d175:	89 75 f4             	mov    %esi,-0xc(%rbp)
    d178:	83 7d f4 00          	cmpl   $0x0,-0xc(%rbp)
    d17c:	78 17                	js     d195 <safe_rshift_func_uint64_t_u_s+0x2c>
    d17e:	83 7d f4 1f          	cmpl   $0x1f,-0xc(%rbp)
    d182:	7f 11                	jg     d195 <safe_rshift_func_uint64_t_u_s+0x2c>
    d184:	8b 45 f4             	mov    -0xc(%rbp),%eax
    d187:	48 8b 55 f8          	mov    -0x8(%rbp),%rdx
    d18b:	89 c1                	mov    %eax,%ecx
    d18d:	48 d3 ea             	shr    %cl,%rdx
    d190:	48 89 d0             	mov    %rdx,%rax
    d193:	eb 04                	jmp    d199 <safe_rshift_func_uint64_t_u_s+0x30>
    d195:	48 8b 45 f8          	mov    -0x8(%rbp),%rax
    d199:	5d                   	pop    %rbp
    d19a:	c3                   	retq   

000000000000d19b <safe_rshift_func_uint64_t_u_u>:
    d19b:	f3 0f 1e fa          	endbr64 
    d19f:	55                   	push   %rbp
    d1a0:	48 89 e5             	mov    %rsp,%rbp
    d1a3:	48 89 7d f8          	mov    %rdi,-0x8(%rbp)
    d1a7:	89 75 f4             	mov    %esi,-0xc(%rbp)
    d1aa:	83 7d f4 1f          	cmpl   $0x1f,-0xc(%rbp)
    d1ae:	77 11                	ja     d1c1 <safe_rshift_func_uint64_t_u_u+0x26>
    d1b0:	8b 45 f4             	mov    -0xc(%rbp),%eax
    d1b3:	48 8b 55 f8          	mov    -0x8(%rbp),%rdx
    d1b7:	89 c1                	mov    %eax,%ecx
    d1b9:	48 d3 ea             	shr    %cl,%rdx
    d1bc:	48 89 d0             	mov    %rdx,%rax
    d1bf:	eb 04                	jmp    d1c5 <safe_rshift_func_uint64_t_u_u+0x2a>
    d1c1:	48 8b 45 f8          	mov    -0x8(%rbp),%rax
    d1c5:	5d                   	pop    %rbp
    d1c6:	c3                   	retq   

000000000000d1c7 <safe_add_func_float_f_f>:
    d1c7:	f3 0f 1e fa          	endbr64 
    d1cb:	55                   	push   %rbp
    d1cc:	48 89 e5             	mov    %rsp,%rbp
    d1cf:	f3 0f 11 45 fc       	movss  %xmm0,-0x4(%rbp)
    d1d4:	f3 0f 11 4d f8       	movss  %xmm1,-0x8(%rbp)
    d1d9:	f3 0f 10 4d fc       	movss  -0x4(%rbp),%xmm1
    d1de:	f3 0f 10 05 7a c5 00 	movss  0xc57a(%rip),%xmm0        # 19760 <g_2177+0x1704>
    d1e5:	00 
    d1e6:	f3 0f 59 c8          	mulss  %xmm0,%xmm1
    d1ea:	f3 0f 10 55 f8       	movss  -0x8(%rbp),%xmm2
    d1ef:	f3 0f 10 05 69 c5 00 	movss  0xc569(%rip),%xmm0        # 19760 <g_2177+0x1704>
    d1f6:	00 
    d1f7:	f3 0f 59 c2          	mulss  %xmm2,%xmm0
    d1fb:	f3 0f 58 c1          	addss  %xmm1,%xmm0
    d1ff:	f3 0f 10 0d 69 c5 00 	movss  0xc569(%rip),%xmm1        # 19770 <g_2177+0x1714>
    d206:	00 
    d207:	0f 54 c1             	andps  %xmm1,%xmm0
    d20a:	0f 2f 05 6f c5 00 00 	comiss 0xc56f(%rip),%xmm0        # 19780 <g_2177+0x1724>
    d211:	76 07                	jbe    d21a <safe_add_func_float_f_f+0x53>
    d213:	f3 0f 10 45 fc       	movss  -0x4(%rbp),%xmm0
    d218:	eb 0a                	jmp    d224 <safe_add_func_float_f_f+0x5d>
    d21a:	f3 0f 10 45 fc       	movss  -0x4(%rbp),%xmm0
    d21f:	f3 0f 58 45 f8       	addss  -0x8(%rbp),%xmm0
    d224:	5d                   	pop    %rbp
    d225:	c3                   	retq   

000000000000d226 <safe_sub_func_float_f_f>:
    d226:	f3 0f 1e fa          	endbr64 
    d22a:	55                   	push   %rbp
    d22b:	48 89 e5             	mov    %rsp,%rbp
    d22e:	f3 0f 11 45 fc       	movss  %xmm0,-0x4(%rbp)
    d233:	f3 0f 11 4d f8       	movss  %xmm1,-0x8(%rbp)
    d238:	f3 0f 10 4d fc       	movss  -0x4(%rbp),%xmm1
    d23d:	f3 0f 10 05 1b c5 00 	movss  0xc51b(%rip),%xmm0        # 19760 <g_2177+0x1704>
    d244:	00 
    d245:	f3 0f 59 c1          	mulss  %xmm1,%xmm0
    d249:	f3 0f 10 55 f8       	movss  -0x8(%rbp),%xmm2
    d24e:	f3 0f 10 0d 0a c5 00 	movss  0xc50a(%rip),%xmm1        # 19760 <g_2177+0x1704>
    d255:	00 
    d256:	f3 0f 59 ca          	mulss  %xmm2,%xmm1
    d25a:	f3 0f 5c c1          	subss  %xmm1,%xmm0
    d25e:	f3 0f 10 0d 0a c5 00 	movss  0xc50a(%rip),%xmm1        # 19770 <g_2177+0x1714>
    d265:	00 
    d266:	0f 54 c1             	andps  %xmm1,%xmm0
    d269:	0f 2f 05 10 c5 00 00 	comiss 0xc510(%rip),%xmm0        # 19780 <g_2177+0x1724>
    d270:	76 07                	jbe    d279 <safe_sub_func_float_f_f+0x53>
    d272:	f3 0f 10 45 fc       	movss  -0x4(%rbp),%xmm0
    d277:	eb 0a                	jmp    d283 <safe_sub_func_float_f_f+0x5d>
    d279:	f3 0f 10 45 fc       	movss  -0x4(%rbp),%xmm0
    d27e:	f3 0f 5c 45 f8       	subss  -0x8(%rbp),%xmm0
    d283:	5d                   	pop    %rbp
    d284:	c3                   	retq   

000000000000d285 <safe_mul_func_float_f_f>:
    d285:	f3 0f 1e fa          	endbr64 
    d289:	55                   	push   %rbp
    d28a:	48 89 e5             	mov    %rsp,%rbp
    d28d:	f3 0f 11 45 fc       	movss  %xmm0,-0x4(%rbp)
    d292:	f3 0f 11 4d f8       	movss  %xmm1,-0x8(%rbp)
    d297:	f3 0f 10 4d fc       	movss  -0x4(%rbp),%xmm1
    d29c:	f3 0f 10 05 e0 c4 00 	movss  0xc4e0(%rip),%xmm0        # 19784 <g_2177+0x1728>
    d2a3:	00 
    d2a4:	f3 0f 59 c8          	mulss  %xmm0,%xmm1
    d2a8:	f3 0f 10 55 f8       	movss  -0x8(%rbp),%xmm2
    d2ad:	f3 0f 10 05 d3 c4 00 	movss  0xc4d3(%rip),%xmm0        # 19788 <g_2177+0x172c>
    d2b4:	00 
    d2b5:	f3 0f 59 c2          	mulss  %xmm2,%xmm0
    d2b9:	f3 0f 59 c1          	mulss  %xmm1,%xmm0
    d2bd:	f3 0f 10 0d ab c4 00 	movss  0xc4ab(%rip),%xmm1        # 19770 <g_2177+0x1714>
    d2c4:	00 
    d2c5:	0f 54 c1             	andps  %xmm1,%xmm0
    d2c8:	0f 2f 05 bd c4 00 00 	comiss 0xc4bd(%rip),%xmm0        # 1978c <g_2177+0x1730>
    d2cf:	76 07                	jbe    d2d8 <safe_mul_func_float_f_f+0x53>
    d2d1:	f3 0f 10 45 fc       	movss  -0x4(%rbp),%xmm0
    d2d6:	eb 0a                	jmp    d2e2 <safe_mul_func_float_f_f+0x5d>
    d2d8:	f3 0f 10 45 fc       	movss  -0x4(%rbp),%xmm0
    d2dd:	f3 0f 59 45 f8       	mulss  -0x8(%rbp),%xmm0
    d2e2:	5d                   	pop    %rbp
    d2e3:	c3                   	retq   

000000000000d2e4 <safe_div_func_float_f_f>:
    d2e4:	f3 0f 1e fa          	endbr64 
    d2e8:	55                   	push   %rbp
    d2e9:	48 89 e5             	mov    %rsp,%rbp
    d2ec:	f3 0f 11 45 fc       	movss  %xmm0,-0x4(%rbp)
    d2f1:	f3 0f 11 4d f8       	movss  %xmm1,-0x8(%rbp)
    d2f6:	f3 0f 10 45 f8       	movss  -0x8(%rbp),%xmm0
    d2fb:	f3 0f 10 0d 6d c4 00 	movss  0xc46d(%rip),%xmm1        # 19770 <g_2177+0x1714>
    d302:	00 
    d303:	0f 54 c8             	andps  %xmm0,%xmm1
    d306:	f3 0f 10 05 82 c4 00 	movss  0xc482(%rip),%xmm0        # 19790 <g_2177+0x1734>
    d30d:	00 
    d30e:	0f 2f c1             	comiss %xmm1,%xmm0
    d311:	0f 97 c0             	seta   %al
    d314:	83 f0 01             	xor    $0x1,%eax
    d317:	84 c0                	test   %al,%al
    d319:	75 56                	jne    d371 <safe_div_func_float_f_f+0x8d>
    d31b:	66 0f ef c0          	pxor   %xmm0,%xmm0
    d31f:	0f 2e 45 f8          	ucomiss -0x8(%rbp),%xmm0
    d323:	7a 0a                	jp     d32f <safe_div_func_float_f_f+0x4b>
    d325:	66 0f ef c0          	pxor   %xmm0,%xmm0
    d329:	0f 2e 45 f8          	ucomiss -0x8(%rbp),%xmm0
    d32d:	74 4e                	je     d37d <safe_div_func_float_f_f+0x99>
    d32f:	f3 0f 10 4d fc       	movss  -0x4(%rbp),%xmm1
    d334:	f3 0f 10 05 58 c4 00 	movss  0xc458(%rip),%xmm0        # 19794 <g_2177+0x1738>
    d33b:	00 
    d33c:	f3 0f 59 c1          	mulss  %xmm1,%xmm0
    d340:	f3 0f 10 55 f8       	movss  -0x8(%rbp),%xmm2
    d345:	f3 0f 10 0d 4b c4 00 	movss  0xc44b(%rip),%xmm1        # 19798 <g_2177+0x173c>
    d34c:	00 
    d34d:	f3 0f 59 ca          	mulss  %xmm2,%xmm1
    d351:	f3 0f 5e c1          	divss  %xmm1,%xmm0
    d355:	f3 0f 10 0d 13 c4 00 	movss  0xc413(%rip),%xmm1        # 19770 <g_2177+0x1714>
    d35c:	00 
    d35d:	0f 54 c1             	andps  %xmm1,%xmm0
    d360:	0f 2f 05 35 c4 00 00 	comiss 0xc435(%rip),%xmm0        # 1979c <g_2177+0x1740>
    d367:	0f 97 c0             	seta   %al
    d36a:	83 f0 01             	xor    $0x1,%eax
    d36d:	84 c0                	test   %al,%al
    d36f:	74 0c                	je     d37d <safe_div_func_float_f_f+0x99>
    d371:	f3 0f 10 45 fc       	movss  -0x4(%rbp),%xmm0
    d376:	f3 0f 5e 45 f8       	divss  -0x8(%rbp),%xmm0
    d37b:	eb 05                	jmp    d382 <safe_div_func_float_f_f+0x9e>
    d37d:	f3 0f 10 45 fc       	movss  -0x4(%rbp),%xmm0
    d382:	5d                   	pop    %rbp
    d383:	c3                   	retq   

000000000000d384 <safe_add_func_double_f_f>:
    d384:	f3 0f 1e fa          	endbr64 
    d388:	55                   	push   %rbp
    d389:	48 89 e5             	mov    %rsp,%rbp
    d38c:	f2 0f 11 45 f8       	movsd  %xmm0,-0x8(%rbp)
    d391:	f2 0f 11 4d f0       	movsd  %xmm1,-0x10(%rbp)
    d396:	f2 0f 10 4d f8       	movsd  -0x8(%rbp),%xmm1
    d39b:	f2 0f 10 05 fd c3 00 	movsd  0xc3fd(%rip),%xmm0        # 197a0 <g_2177+0x1744>
    d3a2:	00 
    d3a3:	f2 0f 59 c8          	mulsd  %xmm0,%xmm1
    d3a7:	f2 0f 10 55 f0       	movsd  -0x10(%rbp),%xmm2
    d3ac:	f2 0f 10 05 ec c3 00 	movsd  0xc3ec(%rip),%xmm0        # 197a0 <g_2177+0x1744>
    d3b3:	00 
    d3b4:	f2 0f 59 c2          	mulsd  %xmm2,%xmm0
    d3b8:	f2 0f 58 c1          	addsd  %xmm1,%xmm0
    d3bc:	f3 0f 7e 0d ec c3 00 	movq   0xc3ec(%rip),%xmm1        # 197b0 <g_2177+0x1754>
    d3c3:	00 
    d3c4:	66 0f 54 c1          	andpd  %xmm1,%xmm0
    d3c8:	66 0f 2f 05 f0 c3 00 	comisd 0xc3f0(%rip),%xmm0        # 197c0 <g_2177+0x1764>
    d3cf:	00 
    d3d0:	76 07                	jbe    d3d9 <safe_add_func_double_f_f+0x55>
    d3d2:	f2 0f 10 45 f8       	movsd  -0x8(%rbp),%xmm0
    d3d7:	eb 0a                	jmp    d3e3 <safe_add_func_double_f_f+0x5f>
    d3d9:	f2 0f 10 45 f8       	movsd  -0x8(%rbp),%xmm0
    d3de:	f2 0f 58 45 f0       	addsd  -0x10(%rbp),%xmm0
    d3e3:	5d                   	pop    %rbp
    d3e4:	c3                   	retq   

000000000000d3e5 <safe_sub_func_double_f_f>:
    d3e5:	f3 0f 1e fa          	endbr64 
    d3e9:	55                   	push   %rbp
    d3ea:	48 89 e5             	mov    %rsp,%rbp
    d3ed:	f2 0f 11 45 f8       	movsd  %xmm0,-0x8(%rbp)
    d3f2:	f2 0f 11 4d f0       	movsd  %xmm1,-0x10(%rbp)
    d3f7:	f2 0f 10 4d f8       	movsd  -0x8(%rbp),%xmm1
    d3fc:	f2 0f 10 05 9c c3 00 	movsd  0xc39c(%rip),%xmm0        # 197a0 <g_2177+0x1744>
    d403:	00 
    d404:	f2 0f 59 c1          	mulsd  %xmm1,%xmm0
    d408:	f2 0f 10 55 f0       	movsd  -0x10(%rbp),%xmm2
    d40d:	f2 0f 10 0d 8b c3 00 	movsd  0xc38b(%rip),%xmm1        # 197a0 <g_2177+0x1744>
    d414:	00 
    d415:	f2 0f 59 ca          	mulsd  %xmm2,%xmm1
    d419:	f2 0f 5c c1          	subsd  %xmm1,%xmm0
    d41d:	f3 0f 7e 0d 8b c3 00 	movq   0xc38b(%rip),%xmm1        # 197b0 <g_2177+0x1754>
    d424:	00 
    d425:	66 0f 54 c1          	andpd  %xmm1,%xmm0
    d429:	66 0f 2f 05 8f c3 00 	comisd 0xc38f(%rip),%xmm0        # 197c0 <g_2177+0x1764>
    d430:	00 
    d431:	76 07                	jbe    d43a <safe_sub_func_double_f_f+0x55>
    d433:	f2 0f 10 45 f8       	movsd  -0x8(%rbp),%xmm0
    d438:	eb 0a                	jmp    d444 <safe_sub_func_double_f_f+0x5f>
    d43a:	f2 0f 10 45 f8       	movsd  -0x8(%rbp),%xmm0
    d43f:	f2 0f 5c 45 f0       	subsd  -0x10(%rbp),%xmm0
    d444:	5d                   	pop    %rbp
    d445:	c3                   	retq   

000000000000d446 <safe_mul_func_double_f_f>:
    d446:	f3 0f 1e fa          	endbr64 
    d44a:	55                   	push   %rbp
    d44b:	48 89 e5             	mov    %rsp,%rbp
    d44e:	f2 0f 11 45 f8       	movsd  %xmm0,-0x8(%rbp)
    d453:	f2 0f 11 4d f0       	movsd  %xmm1,-0x10(%rbp)
    d458:	f2 0f 10 4d f8       	movsd  -0x8(%rbp),%xmm1
    d45d:	f2 0f 10 05 63 c3 00 	movsd  0xc363(%rip),%xmm0        # 197c8 <g_2177+0x176c>
    d464:	00 
    d465:	f2 0f 59 c8          	mulsd  %xmm0,%xmm1
    d469:	f2 0f 10 55 f0       	movsd  -0x10(%rbp),%xmm2
    d46e:	f2 0f 10 05 5a c3 00 	movsd  0xc35a(%rip),%xmm0        # 197d0 <g_2177+0x1774>
    d475:	00 
    d476:	f2 0f 59 c2          	mulsd  %xmm2,%xmm0
    d47a:	f2 0f 59 c1          	mulsd  %xmm1,%xmm0
    d47e:	f3 0f 7e 0d 2a c3 00 	movq   0xc32a(%rip),%xmm1        # 197b0 <g_2177+0x1754>
    d485:	00 
    d486:	66 0f 54 c1          	andpd  %xmm1,%xmm0
    d48a:	66 0f 2f 05 46 c3 00 	comisd 0xc346(%rip),%xmm0        # 197d8 <g_2177+0x177c>
    d491:	00 
    d492:	76 07                	jbe    d49b <safe_mul_func_double_f_f+0x55>
    d494:	f2 0f 10 45 f8       	movsd  -0x8(%rbp),%xmm0
    d499:	eb 0a                	jmp    d4a5 <safe_mul_func_double_f_f+0x5f>
    d49b:	f2 0f 10 45 f8       	movsd  -0x8(%rbp),%xmm0
    d4a0:	f2 0f 59 45 f0       	mulsd  -0x10(%rbp),%xmm0
    d4a5:	5d                   	pop    %rbp
    d4a6:	c3                   	retq   

000000000000d4a7 <safe_div_func_double_f_f>:
    d4a7:	f3 0f 1e fa          	endbr64 
    d4ab:	55                   	push   %rbp
    d4ac:	48 89 e5             	mov    %rsp,%rbp
    d4af:	f2 0f 11 45 f8       	movsd  %xmm0,-0x8(%rbp)
    d4b4:	f2 0f 11 4d f0       	movsd  %xmm1,-0x10(%rbp)
    d4b9:	f2 0f 10 45 f0       	movsd  -0x10(%rbp),%xmm0
    d4be:	f3 0f 7e 0d ea c2 00 	movq   0xc2ea(%rip),%xmm1        # 197b0 <g_2177+0x1754>
    d4c5:	00 
    d4c6:	66 0f 54 c8          	andpd  %xmm0,%xmm1
    d4ca:	f2 0f 10 05 0e c3 00 	movsd  0xc30e(%rip),%xmm0        # 197e0 <g_2177+0x1784>
    d4d1:	00 
    d4d2:	66 0f 2f c1          	comisd %xmm1,%xmm0
    d4d6:	0f 97 c0             	seta   %al
    d4d9:	83 f0 01             	xor    $0x1,%eax
    d4dc:	84 c0                	test   %al,%al
    d4de:	75 5a                	jne    d53a <safe_div_func_double_f_f+0x93>
    d4e0:	66 0f ef c0          	pxor   %xmm0,%xmm0
    d4e4:	66 0f 2e 45 f0       	ucomisd -0x10(%rbp),%xmm0
    d4e9:	7a 0b                	jp     d4f6 <safe_div_func_double_f_f+0x4f>
    d4eb:	66 0f ef c0          	pxor   %xmm0,%xmm0
    d4ef:	66 0f 2e 45 f0       	ucomisd -0x10(%rbp),%xmm0
    d4f4:	74 50                	je     d546 <safe_div_func_double_f_f+0x9f>
    d4f6:	f2 0f 10 4d f8       	movsd  -0x8(%rbp),%xmm1
    d4fb:	f2 0f 10 05 e5 c2 00 	movsd  0xc2e5(%rip),%xmm0        # 197e8 <g_2177+0x178c>
    d502:	00 
    d503:	f2 0f 59 c1          	mulsd  %xmm1,%xmm0
    d507:	f2 0f 10 55 f0       	movsd  -0x10(%rbp),%xmm2
    d50c:	f2 0f 10 0d dc c2 00 	movsd  0xc2dc(%rip),%xmm1        # 197f0 <g_2177+0x1794>
    d513:	00 
    d514:	f2 0f 59 ca          	mulsd  %xmm2,%xmm1
    d518:	f2 0f 5e c1          	divsd  %xmm1,%xmm0
    d51c:	f3 0f 7e 0d 8c c2 00 	movq   0xc28c(%rip),%xmm1        # 197b0 <g_2177+0x1754>
    d523:	00 
    d524:	66 0f 54 c1          	andpd  %xmm1,%xmm0
    d528:	66 0f 2f 05 c8 c2 00 	comisd 0xc2c8(%rip),%xmm0        # 197f8 <g_2177+0x179c>
    d52f:	00 
    d530:	0f 97 c0             	seta   %al
    d533:	83 f0 01             	xor    $0x1,%eax
    d536:	84 c0                	test   %al,%al
    d538:	74 0c                	je     d546 <safe_div_func_double_f_f+0x9f>
    d53a:	f2 0f 10 45 f8       	movsd  -0x8(%rbp),%xmm0
    d53f:	f2 0f 5e 45 f0       	divsd  -0x10(%rbp),%xmm0
    d544:	eb 05                	jmp    d54b <safe_div_func_double_f_f+0xa4>
    d546:	f2 0f 10 45 f8       	movsd  -0x8(%rbp),%xmm0
    d54b:	5d                   	pop    %rbp
    d54c:	c3                   	retq   

000000000000d54d <safe_convert_func_float_to_int32_t>:
    d54d:	f3 0f 1e fa          	endbr64 
    d551:	55                   	push   %rbp
    d552:	48 89 e5             	mov    %rsp,%rbp
    d555:	f3 0f 11 45 fc       	movss  %xmm0,-0x4(%rbp)
    d55a:	f3 0f 10 05 9e c2 00 	movss  0xc29e(%rip),%xmm0        # 19800 <g_2177+0x17a4>
    d561:	00 
    d562:	0f 2f 45 fc          	comiss -0x4(%rbp),%xmm0
    d566:	0f 93 c0             	setae  %al
    d569:	83 f0 01             	xor    $0x1,%eax
    d56c:	84 c0                	test   %al,%al
    d56e:	74 21                	je     d591 <safe_convert_func_float_to_int32_t+0x44>
    d570:	f3 0f 10 45 fc       	movss  -0x4(%rbp),%xmm0
    d575:	0f 2f 05 88 c2 00 00 	comiss 0xc288(%rip),%xmm0        # 19804 <g_2177+0x17a8>
    d57c:	0f 93 c0             	setae  %al
    d57f:	83 f0 01             	xor    $0x1,%eax
    d582:	84 c0                	test   %al,%al
    d584:	74 0b                	je     d591 <safe_convert_func_float_to_int32_t+0x44>
    d586:	f3 0f 10 45 fc       	movss  -0x4(%rbp),%xmm0
    d58b:	f3 0f 2c c0          	cvttss2si %xmm0,%eax
    d58f:	eb 05                	jmp    d596 <safe_convert_func_float_to_int32_t+0x49>
    d591:	b8 ff ff ff 7f       	mov    $0x7fffffff,%eax
    d596:	5d                   	pop    %rbp
    d597:	c3                   	retq   

000000000000d598 <crc32_gentab>:
    d598:	f3 0f 1e fa          	endbr64 
    d59c:	55                   	push   %rbp
    d59d:	48 89 e5             	mov    %rsp,%rbp
    d5a0:	c7 45 fc 20 83 b8 ed 	movl   $0xedb88320,-0x4(%rbp)
    d5a7:	c7 45 f4 00 00 00 00 	movl   $0x0,-0xc(%rbp)
    d5ae:	eb 51                	jmp    d601 <crc32_gentab+0x69>
    d5b0:	8b 45 f4             	mov    -0xc(%rbp),%eax
    d5b3:	89 45 f0             	mov    %eax,-0x10(%rbp)
    d5b6:	c7 45 f8 08 00 00 00 	movl   $0x8,-0x8(%rbp)
    d5bd:	eb 1e                	jmp    d5dd <crc32_gentab+0x45>
    d5bf:	8b 45 f0             	mov    -0x10(%rbp),%eax
    d5c2:	83 e0 01             	and    $0x1,%eax
    d5c5:	85 c0                	test   %eax,%eax
    d5c7:	74 0d                	je     d5d6 <crc32_gentab+0x3e>
    d5c9:	8b 45 f0             	mov    -0x10(%rbp),%eax
    d5cc:	d1 e8                	shr    %eax
    d5ce:	33 45 fc             	xor    -0x4(%rbp),%eax
    d5d1:	89 45 f0             	mov    %eax,-0x10(%rbp)
    d5d4:	eb 03                	jmp    d5d9 <crc32_gentab+0x41>
    d5d6:	d1 6d f0             	shrl   -0x10(%rbp)
    d5d9:	83 6d f8 01          	subl   $0x1,-0x8(%rbp)
    d5dd:	83 7d f8 00          	cmpl   $0x0,-0x8(%rbp)
    d5e1:	7f dc                	jg     d5bf <crc32_gentab+0x27>
    d5e3:	8b 45 f4             	mov    -0xc(%rbp),%eax
    d5e6:	48 98                	cltq   
    d5e8:	48 8d 0c 85 00 00 00 	lea    0x0(,%rax,4),%rcx
    d5ef:	00 
    d5f0:	48 8d 15 e9 52 01 00 	lea    0x152e9(%rip),%rdx        # 228e0 <crc32_tab>
    d5f7:	8b 45 f0             	mov    -0x10(%rbp),%eax
    d5fa:	89 04 11             	mov    %eax,(%rcx,%rdx,1)
    d5fd:	83 45 f4 01          	addl   $0x1,-0xc(%rbp)
    d601:	81 7d f4 ff 00 00 00 	cmpl   $0xff,-0xc(%rbp)
    d608:	7e a6                	jle    d5b0 <crc32_gentab+0x18>
    d60a:	90                   	nop
    d60b:	90                   	nop
    d60c:	5d                   	pop    %rbp
    d60d:	c3                   	retq   

000000000000d60e <crc32_byte>:
    d60e:	f3 0f 1e fa          	endbr64 
    d612:	55                   	push   %rbp
    d613:	48 89 e5             	mov    %rsp,%rbp
    d616:	89 f8                	mov    %edi,%eax
    d618:	88 45 fc             	mov    %al,-0x4(%rbp)
    d61b:	8b 05 ff e9 00 00    	mov    0xe9ff(%rip),%eax        # 1c020 <crc32_context>
    d621:	c1 e8 08             	shr    $0x8,%eax
    d624:	89 c1                	mov    %eax,%ecx
    d626:	0f b6 55 fc          	movzbl -0x4(%rbp),%edx
    d62a:	8b 05 f0 e9 00 00    	mov    0xe9f0(%rip),%eax        # 1c020 <crc32_context>
    d630:	31 d0                	xor    %edx,%eax
    d632:	0f b6 c0             	movzbl %al,%eax
    d635:	89 c0                	mov    %eax,%eax
    d637:	48 8d 14 85 00 00 00 	lea    0x0(,%rax,4),%rdx
    d63e:	00 
    d63f:	48 8d 05 9a 52 01 00 	lea    0x1529a(%rip),%rax        # 228e0 <crc32_tab>
    d646:	8b 04 02             	mov    (%rdx,%rax,1),%eax
    d649:	31 c8                	xor    %ecx,%eax
    d64b:	89 05 cf e9 00 00    	mov    %eax,0xe9cf(%rip)        # 1c020 <crc32_context>
    d651:	90                   	nop
    d652:	5d                   	pop    %rbp
    d653:	c3                   	retq   

000000000000d654 <crc32_8bytes>:
    d654:	f3 0f 1e fa          	endbr64 
    d658:	55                   	push   %rbp
    d659:	48 89 e5             	mov    %rsp,%rbp
    d65c:	48 83 ec 08          	sub    $0x8,%rsp
    d660:	48 89 7d f8          	mov    %rdi,-0x8(%rbp)
    d664:	48 8b 45 f8          	mov    -0x8(%rbp),%rax
    d668:	0f b6 c0             	movzbl %al,%eax
    d66b:	89 c7                	mov    %eax,%edi
    d66d:	e8 9c ff ff ff       	callq  d60e <crc32_byte>
    d672:	48 8b 45 f8          	mov    -0x8(%rbp),%rax
    d676:	48 c1 e8 08          	shr    $0x8,%rax
    d67a:	0f b6 c0             	movzbl %al,%eax
    d67d:	89 c7                	mov    %eax,%edi
    d67f:	e8 8a ff ff ff       	callq  d60e <crc32_byte>
    d684:	48 8b 45 f8          	mov    -0x8(%rbp),%rax
    d688:	48 c1 e8 10          	shr    $0x10,%rax
    d68c:	0f b6 c0             	movzbl %al,%eax
    d68f:	89 c7                	mov    %eax,%edi
    d691:	e8 78 ff ff ff       	callq  d60e <crc32_byte>
    d696:	48 8b 45 f8          	mov    -0x8(%rbp),%rax
    d69a:	48 c1 e8 18          	shr    $0x18,%rax
    d69e:	0f b6 c0             	movzbl %al,%eax
    d6a1:	89 c7                	mov    %eax,%edi
    d6a3:	e8 66 ff ff ff       	callq  d60e <crc32_byte>
    d6a8:	48 8b 45 f8          	mov    -0x8(%rbp),%rax
    d6ac:	48 c1 e8 20          	shr    $0x20,%rax
    d6b0:	0f b6 c0             	movzbl %al,%eax
    d6b3:	89 c7                	mov    %eax,%edi
    d6b5:	e8 54 ff ff ff       	callq  d60e <crc32_byte>
    d6ba:	48 8b 45 f8          	mov    -0x8(%rbp),%rax
    d6be:	48 c1 e8 28          	shr    $0x28,%rax
    d6c2:	0f b6 c0             	movzbl %al,%eax
    d6c5:	89 c7                	mov    %eax,%edi
    d6c7:	e8 42 ff ff ff       	callq  d60e <crc32_byte>
    d6cc:	48 8b 45 f8          	mov    -0x8(%rbp),%rax
    d6d0:	48 c1 e8 30          	shr    $0x30,%rax
    d6d4:	0f b6 c0             	movzbl %al,%eax
    d6d7:	89 c7                	mov    %eax,%edi
    d6d9:	e8 30 ff ff ff       	callq  d60e <crc32_byte>
    d6de:	48 8b 45 f8          	mov    -0x8(%rbp),%rax
    d6e2:	48 c1 e8 38          	shr    $0x38,%rax
    d6e6:	0f b6 c0             	movzbl %al,%eax
    d6e9:	89 c7                	mov    %eax,%edi
    d6eb:	e8 1e ff ff ff       	callq  d60e <crc32_byte>
    d6f0:	90                   	nop
    d6f1:	c9                   	leaveq 
    d6f2:	c3                   	retq   

000000000000d6f3 <transparent_crc>:
    d6f3:	f3 0f 1e fa          	endbr64 
    d6f7:	55                   	push   %rbp
    d6f8:	48 89 e5             	mov    %rsp,%rbp
    d6fb:	48 83 ec 20          	sub    $0x20,%rsp
    d6ff:	48 89 7d f8          	mov    %rdi,-0x8(%rbp)
    d703:	48 89 75 f0          	mov    %rsi,-0x10(%rbp)
    d707:	89 55 ec             	mov    %edx,-0x14(%rbp)
    d70a:	48 8b 45 f8          	mov    -0x8(%rbp),%rax
    d70e:	48 89 c7             	mov    %rax,%rdi
    d711:	e8 3e ff ff ff       	callq  d654 <crc32_8bytes>
    d716:	83 7d ec 00          	cmpl   $0x0,-0x14(%rbp)
    d71a:	74 22                	je     d73e <transparent_crc+0x4b>
    d71c:	8b 05 fe e8 00 00    	mov    0xe8fe(%rip),%eax        # 1c020 <crc32_context>
    d722:	f7 d0                	not    %eax
    d724:	89 c2                	mov    %eax,%edx
    d726:	48 8b 45 f0          	mov    -0x10(%rbp),%rax
    d72a:	48 89 c6             	mov    %rax,%rsi
    d72d:	48 8d 3d fc a8 00 00 	lea    0xa8fc(%rip),%rdi        # 18030 <_IO_stdin_used+0x30>
    d734:	b8 00 00 00 00       	mov    $0x0,%eax
    d739:	e8 42 e9 ff ff       	callq  c080 <printf@plt>
    d73e:	90                   	nop
    d73f:	c9                   	leaveq 
    d740:	c3                   	retq   

000000000000d741 <transparent_crc_bytes>:
    d741:	f3 0f 1e fa          	endbr64 
    d745:	55                   	push   %rbp
    d746:	48 89 e5             	mov    %rsp,%rbp
    d749:	48 83 ec 30          	sub    $0x30,%rsp
    d74d:	48 89 7d e8          	mov    %rdi,-0x18(%rbp)
    d751:	89 75 e4             	mov    %esi,-0x1c(%rbp)
    d754:	48 89 55 d8          	mov    %rdx,-0x28(%rbp)
    d758:	89 4d e0             	mov    %ecx,-0x20(%rbp)
    d75b:	c7 45 fc 00 00 00 00 	movl   $0x0,-0x4(%rbp)
    d762:	eb 1e                	jmp    d782 <transparent_crc_bytes+0x41>
    d764:	8b 45 fc             	mov    -0x4(%rbp),%eax
    d767:	48 63 d0             	movslq %eax,%rdx
    d76a:	48 8b 45 e8          	mov    -0x18(%rbp),%rax
    d76e:	48 01 d0             	add    %rdx,%rax
    d771:	0f b6 00             	movzbl (%rax),%eax
    d774:	0f b6 c0             	movzbl %al,%eax
    d777:	89 c7                	mov    %eax,%edi
    d779:	e8 90 fe ff ff       	callq  d60e <crc32_byte>
    d77e:	83 45 fc 01          	addl   $0x1,-0x4(%rbp)
    d782:	8b 45 fc             	mov    -0x4(%rbp),%eax
    d785:	3b 45 e4             	cmp    -0x1c(%rbp),%eax
    d788:	7c da                	jl     d764 <transparent_crc_bytes+0x23>
    d78a:	83 7d e0 00          	cmpl   $0x0,-0x20(%rbp)
    d78e:	74 22                	je     d7b2 <transparent_crc_bytes+0x71>
    d790:	8b 05 8a e8 00 00    	mov    0xe88a(%rip),%eax        # 1c020 <crc32_context>
    d796:	f7 d0                	not    %eax
    d798:	89 c2                	mov    %eax,%edx
    d79a:	48 8b 45 d8          	mov    -0x28(%rbp),%rax
    d79e:	48 89 c6             	mov    %rax,%rsi
    d7a1:	48 8d 3d 88 a8 00 00 	lea    0xa888(%rip),%rdi        # 18030 <_IO_stdin_used+0x30>
    d7a8:	b8 00 00 00 00       	mov    $0x0,%eax
    d7ad:	e8 ce e8 ff ff       	callq  c080 <printf@plt>
    d7b2:	90                   	nop
    d7b3:	c9                   	leaveq 
    d7b4:	c3                   	retq   

000000000000d7b5 <func_1>:
    d7b5:	f3 0f 1e fa          	endbr64 
    d7b9:	55                   	push   %rbp
    d7ba:	48 89 e5             	mov    %rsp,%rbp
    d7bd:	41 57                	push   %r15
    d7bf:	41 56                	push   %r14
    d7c1:	41 55                	push   %r13
    d7c3:	41 54                	push   %r12
    d7c5:	53                   	push   %rbx
    d7c6:	48 81 ec 00 10 00 00 	sub    $0x1000,%rsp
    d7cd:	48 83 0c 24 00       	orq    $0x0,(%rsp)
    d7d2:	48 81 ec b8 0f 00 00 	sub    $0xfb8,%rsp
    d7d9:	64 48 8b 04 25 28 00 	mov    %fs:0x28,%rax
    d7e0:	00 00 
    d7e2:	48 89 45 c8          	mov    %rax,-0x38(%rbp)
    d7e6:	31 c0                	xor    %eax,%eax
    d7e8:	66 c7 85 60 e4 ff ff 	movw   $0x0,-0x1ba0(%rbp)
    d7ef:	00 00 
    d7f1:	66 c7 85 62 e4 ff ff 	movw   $0x543b,-0x1b9e(%rbp)
    d7f8:	3b 54 
    d7fa:	66 c7 85 64 e4 ff ff 	movw   $0x543b,-0x1b9c(%rbp)
    d801:	3b 54 
    d803:	66 c7 85 66 e4 ff ff 	movw   $0x0,-0x1b9a(%rbp)
    d80a:	00 00 
    d80c:	66 c7 85 68 e4 ff ff 	movw   $0x0,-0x1b98(%rbp)
    d813:	00 00 
    d815:	66 c7 85 6a e4 ff ff 	movw   $0x543b,-0x1b96(%rbp)
    d81c:	3b 54 
    d81e:	66 c7 85 6c e4 ff ff 	movw   $0x0,-0x1b94(%rbp)
    d825:	00 00 
    d827:	66 c7 85 6e e4 ff ff 	movw   $0x0,-0x1b92(%rbp)
    d82e:	00 00 
    d830:	66 c7 85 70 e4 ff ff 	movw   $0x543b,-0x1b90(%rbp)
    d837:	3b 54 
    d839:	66 c7 85 72 e4 ff ff 	movw   $0x543b,-0x1b8e(%rbp)
    d840:	3b 54 
    d842:	66 c7 85 74 e4 ff ff 	movw   $0x0,-0x1b8c(%rbp)
    d849:	00 00 
    d84b:	66 c7 85 76 e4 ff ff 	movw   $0x0,-0x1b8a(%rbp)
    d852:	00 00 
    d854:	66 c7 85 78 e4 ff ff 	movw   $0x0,-0x1b88(%rbp)
    d85b:	00 00 
    d85d:	66 c7 85 7a e4 ff ff 	movw   $0x543b,-0x1b86(%rbp)
    d864:	3b 54 
    d866:	66 c7 85 7c e4 ff ff 	movw   $0x543b,-0x1b84(%rbp)
    d86d:	3b 54 
    d86f:	66 c7 85 7e e4 ff ff 	movw   $0x0,-0x1b82(%rbp)
    d876:	00 00 
    d878:	66 c7 85 80 e4 ff ff 	movw   $0x0,-0x1b80(%rbp)
    d87f:	00 00 
    d881:	66 c7 85 82 e4 ff ff 	movw   $0x543b,-0x1b7e(%rbp)
    d888:	3b 54 
    d88a:	66 c7 85 84 e4 ff ff 	movw   $0x0,-0x1b7c(%rbp)
    d891:	00 00 
    d893:	66 c7 85 86 e4 ff ff 	movw   $0x0,-0x1b7a(%rbp)
    d89a:	00 00 
    d89c:	66 c7 85 88 e4 ff ff 	movw   $0x543b,-0x1b78(%rbp)
    d8a3:	3b 54 
    d8a5:	66 c7 85 8a e4 ff ff 	movw   $0x543b,-0x1b76(%rbp)
    d8ac:	3b 54 
    d8ae:	66 c7 85 8c e4 ff ff 	movw   $0x0,-0x1b74(%rbp)
    d8b5:	00 00 
    d8b7:	66 c7 85 8e e4 ff ff 	movw   $0x0,-0x1b72(%rbp)
    d8be:	00 00 
    d8c0:	66 c7 85 90 e4 ff ff 	movw   $0x0,-0x1b70(%rbp)
    d8c7:	00 00 
    d8c9:	66 c7 85 92 e4 ff ff 	movw   $0x543b,-0x1b6e(%rbp)
    d8d0:	3b 54 
    d8d2:	66 c7 85 94 e4 ff ff 	movw   $0x543b,-0x1b6c(%rbp)
    d8d9:	3b 54 
    d8db:	66 c7 85 96 e4 ff ff 	movw   $0x0,-0x1b6a(%rbp)
    d8e2:	00 00 
    d8e4:	66 c7 85 98 e4 ff ff 	movw   $0x0,-0x1b68(%rbp)
    d8eb:	00 00 
    d8ed:	66 c7 85 9a e4 ff ff 	movw   $0x543b,-0x1b66(%rbp)
    d8f4:	3b 54 
    d8f6:	66 c7 85 9c e4 ff ff 	movw   $0x0,-0x1b64(%rbp)
    d8fd:	00 00 
    d8ff:	66 c7 85 9e e4 ff ff 	movw   $0x0,-0x1b62(%rbp)
    d906:	00 00 
    d908:	66 c7 85 a0 e4 ff ff 	movw   $0x543b,-0x1b60(%rbp)
    d90f:	3b 54 
    d911:	66 c7 85 a2 e4 ff ff 	movw   $0x543b,-0x1b5e(%rbp)
    d918:	3b 54 
    d91a:	66 c7 85 a4 e4 ff ff 	movw   $0x0,-0x1b5c(%rbp)
    d921:	00 00 
    d923:	66 c7 85 a6 e4 ff ff 	movw   $0x0,-0x1b5a(%rbp)
    d92a:	00 00 
    d92c:	c7 85 84 e0 ff ff d8 	movl   $0xb88dcfd8,-0x1f7c(%rbp)
    d933:	cf 8d b8 
    d936:	c7 85 60 e0 ff ff 80 	movl   $0x22b60780,-0x1fa0(%rbp)
    d93d:	07 b6 22 
    d940:	48 8d 05 a1 53 01 00 	lea    0x153a1(%rip),%rax        # 22ce8 <g_55>
    d947:	48 89 85 80 e3 ff ff 	mov    %rax,-0x1c80(%rbp)
    d94e:	48 8d 05 93 53 01 00 	lea    0x15393(%rip),%rax        # 22ce8 <g_55>
    d955:	48 89 85 88 e3 ff ff 	mov    %rax,-0x1c78(%rbp)
    d95c:	48 8d 05 85 53 01 00 	lea    0x15385(%rip),%rax        # 22ce8 <g_55>
    d963:	48 89 85 90 e3 ff ff 	mov    %rax,-0x1c70(%rbp)
    d96a:	48 8d 05 77 53 01 00 	lea    0x15377(%rip),%rax        # 22ce8 <g_55>
    d971:	48 89 85 98 e3 ff ff 	mov    %rax,-0x1c68(%rbp)
    d978:	c7 85 6c e0 ff ff 00 	movl   $0x0,-0x1f94(%rbp)
    d97f:	00 00 00 
    d982:	c7 85 70 e0 ff ff 94 	movl   $0x14ae4594,-0x1f90(%rbp)
    d989:	45 ae 14 
    d98c:	48 8d 05 9f e7 00 00 	lea    0xe79f(%rip),%rax        # 1c132 <g_205+0x2>
    d993:	48 89 85 08 e1 ff ff 	mov    %rax,-0x1ef8(%rbp)
    d99a:	48 b8 75 19 52 4d 42 	movabs $0x564f29424d521975,%rax
    d9a1:	29 4f 56 
    d9a4:	48 89 85 10 e1 ff ff 	mov    %rax,-0x1ef0(%rbp)
    d9ab:	48 8d 05 96 2e 01 00 	lea    0x12e96(%rip),%rax        # 20848 <g_211>
    d9b2:	48 89 85 18 e1 ff ff 	mov    %rax,-0x1ee8(%rbp)
    d9b9:	48 8d 85 18 e1 ff ff 	lea    -0x1ee8(%rbp),%rax
    d9c0:	48 89 85 20 e1 ff ff 	mov    %rax,-0x1ee0(%rbp)
    d9c7:	48 8d 85 e0 f3 ff ff 	lea    -0xc20(%rbp),%rax
    d9ce:	48 8d 15 2b 03 01 00 	lea    0x1032b(%rip),%rdx        # 1dd00 <g_2335+0x1c>
    d9d5:	b9 b4 00 00 00       	mov    $0xb4,%ecx
    d9da:	48 89 c7             	mov    %rax,%rdi
    d9dd:	48 89 d6             	mov    %rdx,%rsi
    d9e0:	f3 48 a5             	rep movsq %ds:(%rsi),%es:(%rdi)
    d9e3:	48 8d 05 b6 36 01 00 	lea    0x136b6(%rip),%rax        # 210a0 <g_1342>
    d9ea:	48 89 85 a0 e1 ff ff 	mov    %rax,-0x1e60(%rbp)
    d9f1:	48 b8 b3 bd 0a 2a 13 	movabs $0x1aebda132a0abdb3,%rax
    d9f8:	da eb 1a 
    d9fb:	48 89 85 a8 e1 ff ff 	mov    %rax,-0x1e58(%rbp)
    da02:	48 8d 85 c0 ec ff ff 	lea    -0x1340(%rbp),%rax
    da09:	48 8d 15 50 a6 00 00 	lea    0xa650(%rip),%rdx        # 18060 <g_2177+0x4>
    da10:	b9 6c 00 00 00       	mov    $0x6c,%ecx
    da15:	48 89 c7             	mov    %rax,%rdi
    da18:	48 89 d6             	mov    %rdx,%rsi
    da1b:	f3 48 a5             	rep movsq %ds:(%rsi),%es:(%rdi)
    da1e:	66 c7 85 42 e0 ff ff 	movw   $0x9ae3,-0x1fbe(%rbp)
    da25:	e3 9a 
    da27:	48 c7 85 28 e1 ff ff 	movq   $0x0,-0x1ed8(%rbp)
    da2e:	00 00 00 00 
    da32:	48 8d 85 28 e1 ff ff 	lea    -0x1ed8(%rbp),%rax
    da39:	48 89 85 30 e1 ff ff 	mov    %rax,-0x1ed0(%rbp)
    da40:	48 8d 85 30 e1 ff ff 	lea    -0x1ed0(%rbp),%rax
    da47:	48 89 85 00 e5 ff ff 	mov    %rax,-0x1b00(%rbp)
    da4e:	48 8d 85 30 e1 ff ff 	lea    -0x1ed0(%rbp),%rax
    da55:	48 89 85 08 e5 ff ff 	mov    %rax,-0x1af8(%rbp)
    da5c:	48 8d 85 30 e1 ff ff 	lea    -0x1ed0(%rbp),%rax
    da63:	48 89 85 10 e5 ff ff 	mov    %rax,-0x1af0(%rbp)
    da6a:	48 8d 85 30 e1 ff ff 	lea    -0x1ed0(%rbp),%rax
    da71:	48 89 85 18 e5 ff ff 	mov    %rax,-0x1ae8(%rbp)
    da78:	48 8d 85 30 e1 ff ff 	lea    -0x1ed0(%rbp),%rax
    da7f:	48 89 85 20 e5 ff ff 	mov    %rax,-0x1ae0(%rbp)
    da86:	48 8d 85 30 e1 ff ff 	lea    -0x1ed0(%rbp),%rax
    da8d:	48 89 85 28 e5 ff ff 	mov    %rax,-0x1ad8(%rbp)
    da94:	48 8d 85 30 e1 ff ff 	lea    -0x1ed0(%rbp),%rax
    da9b:	48 89 85 30 e5 ff ff 	mov    %rax,-0x1ad0(%rbp)
    daa2:	48 8d 85 30 e1 ff ff 	lea    -0x1ed0(%rbp),%rax
    daa9:	48 89 85 38 e5 ff ff 	mov    %rax,-0x1ac8(%rbp)
    dab0:	48 8d 85 30 e1 ff ff 	lea    -0x1ed0(%rbp),%rax
    dab7:	48 89 85 40 e5 ff ff 	mov    %rax,-0x1ac0(%rbp)
    dabe:	48 8d 85 30 e1 ff ff 	lea    -0x1ed0(%rbp),%rax
    dac5:	48 89 85 48 e5 ff ff 	mov    %rax,-0x1ab8(%rbp)
    dacc:	48 8d 85 00 e5 ff ff 	lea    -0x1b00(%rbp),%rax
    dad3:	48 83 c0 40          	add    $0x40,%rax
    dad7:	48 89 85 50 e5 ff ff 	mov    %rax,-0x1ab0(%rbp)
    dade:	48 8d 85 00 e5 ff ff 	lea    -0x1b00(%rbp),%rax
    dae5:	48 83 c0 40          	add    $0x40,%rax
    dae9:	48 89 85 58 e5 ff ff 	mov    %rax,-0x1aa8(%rbp)
    daf0:	48 8d 85 00 e5 ff ff 	lea    -0x1b00(%rbp),%rax
    daf7:	48 83 c0 40          	add    $0x40,%rax
    dafb:	48 89 85 60 e5 ff ff 	mov    %rax,-0x1aa0(%rbp)
    db02:	48 8d 85 00 e5 ff ff 	lea    -0x1b00(%rbp),%rax
    db09:	48 83 c0 40          	add    $0x40,%rax
    db0d:	48 89 85 68 e5 ff ff 	mov    %rax,-0x1a98(%rbp)
    db14:	48 8d 85 00 e5 ff ff 	lea    -0x1b00(%rbp),%rax
    db1b:	48 83 c0 40          	add    $0x40,%rax
    db1f:	48 89 85 70 e5 ff ff 	mov    %rax,-0x1a90(%rbp)
    db26:	48 8d 85 00 e5 ff ff 	lea    -0x1b00(%rbp),%rax
    db2d:	48 83 c0 40          	add    $0x40,%rax
    db31:	48 89 85 78 e5 ff ff 	mov    %rax,-0x1a88(%rbp)
    db38:	48 8d 85 00 e5 ff ff 	lea    -0x1b00(%rbp),%rax
    db3f:	48 83 c0 40          	add    $0x40,%rax
    db43:	48 89 85 80 e5 ff ff 	mov    %rax,-0x1a80(%rbp)
    db4a:	48 8d 85 00 e5 ff ff 	lea    -0x1b00(%rbp),%rax
    db51:	48 83 c0 40          	add    $0x40,%rax
    db55:	48 89 85 88 e5 ff ff 	mov    %rax,-0x1a78(%rbp)
    db5c:	48 8d 85 00 e5 ff ff 	lea    -0x1b00(%rbp),%rax
    db63:	48 83 c0 40          	add    $0x40,%rax
    db67:	48 89 85 90 e5 ff ff 	mov    %rax,-0x1a70(%rbp)
    db6e:	48 8d 85 00 e5 ff ff 	lea    -0x1b00(%rbp),%rax
    db75:	48 83 c0 40          	add    $0x40,%rax
    db79:	48 89 85 98 e5 ff ff 	mov    %rax,-0x1a68(%rbp)
    db80:	c6 85 37 e0 ff ff 00 	movb   $0x0,-0x1fc9(%rbp)
    db87:	c6 85 38 e0 ff ff a5 	movb   $0xa5,-0x1fc8(%rbp)
    db8e:	48 8d 05 83 fa 00 00 	lea    0xfa83(%rip),%rax        # 1d618 <g_1809>
    db95:	48 89 85 38 e1 ff ff 	mov    %rax,-0x1ec8(%rbp)
    db9c:	c7 85 88 e0 ff ff 28 	movl   $0xce0c4628,-0x1f78(%rbp)
    dba3:	46 0c ce 
    dba6:	c6 85 36 e0 ff ff ff 	movb   $0xff,-0x1fca(%rbp)
    dbad:	c7 85 8c e0 ff ff ff 	movl   $0xffffffff,-0x1f74(%rbp)
    dbb4:	ff ff ff 
    dbb7:	48 8d 05 2a 32 01 00 	lea    0x1322a(%rip),%rax        # 20de8 <g_731>
    dbbe:	48 89 85 b0 e1 ff ff 	mov    %rax,-0x1e50(%rbp)
    dbc5:	48 c7 85 b8 e1 ff ff 	movq   $0x0,-0x1e48(%rbp)
    dbcc:	00 00 00 00 
    dbd0:	48 8d 05 21 51 01 00 	lea    0x15121(%rip),%rax        # 22cf8 <g_786>
    dbd7:	48 89 85 50 e6 ff ff 	mov    %rax,-0x19b0(%rbp)
    dbde:	48 8d 05 13 51 01 00 	lea    0x15113(%rip),%rax        # 22cf8 <g_786>
    dbe5:	48 89 85 58 e6 ff ff 	mov    %rax,-0x19a8(%rbp)
    dbec:	48 8d 05 05 51 01 00 	lea    0x15105(%rip),%rax        # 22cf8 <g_786>
    dbf3:	48 89 85 60 e6 ff ff 	mov    %rax,-0x19a0(%rbp)
    dbfa:	48 8d 05 f7 50 01 00 	lea    0x150f7(%rip),%rax        # 22cf8 <g_786>
    dc01:	48 89 85 68 e6 ff ff 	mov    %rax,-0x1998(%rbp)
    dc08:	48 8d 05 e9 50 01 00 	lea    0x150e9(%rip),%rax        # 22cf8 <g_786>
    dc0f:	48 89 85 70 e6 ff ff 	mov    %rax,-0x1990(%rbp)
    dc16:	48 8d 05 db 50 01 00 	lea    0x150db(%rip),%rax        # 22cf8 <g_786>
    dc1d:	48 89 85 78 e6 ff ff 	mov    %rax,-0x1988(%rbp)
    dc24:	48 8d 05 cd 50 01 00 	lea    0x150cd(%rip),%rax        # 22cf8 <g_786>
    dc2b:	48 89 85 80 e6 ff ff 	mov    %rax,-0x1980(%rbp)
    dc32:	48 8d 05 bf 50 01 00 	lea    0x150bf(%rip),%rax        # 22cf8 <g_786>
    dc39:	48 89 85 88 e6 ff ff 	mov    %rax,-0x1978(%rbp)
    dc40:	48 8d 05 b1 50 01 00 	lea    0x150b1(%rip),%rax        # 22cf8 <g_786>
    dc47:	48 89 85 90 e6 ff ff 	mov    %rax,-0x1970(%rbp)
    dc4e:	48 8d 05 a3 50 01 00 	lea    0x150a3(%rip),%rax        # 22cf8 <g_786>
    dc55:	48 89 85 98 e6 ff ff 	mov    %rax,-0x1968(%rbp)
    dc5c:	48 8d 05 95 50 01 00 	lea    0x15095(%rip),%rax        # 22cf8 <g_786>
    dc63:	48 89 85 a0 e6 ff ff 	mov    %rax,-0x1960(%rbp)
    dc6a:	48 8d 05 87 50 01 00 	lea    0x15087(%rip),%rax        # 22cf8 <g_786>
    dc71:	48 89 85 a8 e6 ff ff 	mov    %rax,-0x1958(%rbp)
    dc78:	48 8d 05 79 50 01 00 	lea    0x15079(%rip),%rax        # 22cf8 <g_786>
    dc7f:	48 89 85 b0 e6 ff ff 	mov    %rax,-0x1950(%rbp)
    dc86:	48 8d 05 6b 50 01 00 	lea    0x1506b(%rip),%rax        # 22cf8 <g_786>
    dc8d:	48 89 85 b8 e6 ff ff 	mov    %rax,-0x1948(%rbp)
    dc94:	48 8d 05 5d 50 01 00 	lea    0x1505d(%rip),%rax        # 22cf8 <g_786>
    dc9b:	48 89 85 c0 e6 ff ff 	mov    %rax,-0x1940(%rbp)
    dca2:	48 8d 05 4f 50 01 00 	lea    0x1504f(%rip),%rax        # 22cf8 <g_786>
    dca9:	48 89 85 c8 e6 ff ff 	mov    %rax,-0x1938(%rbp)
    dcb0:	48 8d 05 41 50 01 00 	lea    0x15041(%rip),%rax        # 22cf8 <g_786>
    dcb7:	48 89 85 d0 e6 ff ff 	mov    %rax,-0x1930(%rbp)
    dcbe:	48 8d 05 33 50 01 00 	lea    0x15033(%rip),%rax        # 22cf8 <g_786>
    dcc5:	48 89 85 d8 e6 ff ff 	mov    %rax,-0x1928(%rbp)
    dccc:	48 8d 05 25 50 01 00 	lea    0x15025(%rip),%rax        # 22cf8 <g_786>
    dcd3:	48 89 85 e0 e6 ff ff 	mov    %rax,-0x1920(%rbp)
    dcda:	48 8d 05 17 50 01 00 	lea    0x15017(%rip),%rax        # 22cf8 <g_786>
    dce1:	48 89 85 e8 e6 ff ff 	mov    %rax,-0x1918(%rbp)
    dce8:	48 8d 05 09 50 01 00 	lea    0x15009(%rip),%rax        # 22cf8 <g_786>
    dcef:	48 89 85 f0 e6 ff ff 	mov    %rax,-0x1910(%rbp)
    dcf6:	48 8d 05 fb 4f 01 00 	lea    0x14ffb(%rip),%rax        # 22cf8 <g_786>
    dcfd:	48 89 85 f8 e6 ff ff 	mov    %rax,-0x1908(%rbp)
    dd04:	48 8d 05 ed 4f 01 00 	lea    0x14fed(%rip),%rax        # 22cf8 <g_786>
    dd0b:	48 89 85 00 e7 ff ff 	mov    %rax,-0x1900(%rbp)
    dd12:	48 8d 05 df 4f 01 00 	lea    0x14fdf(%rip),%rax        # 22cf8 <g_786>
    dd19:	48 89 85 08 e7 ff ff 	mov    %rax,-0x18f8(%rbp)
    dd20:	48 8d 05 d1 4f 01 00 	lea    0x14fd1(%rip),%rax        # 22cf8 <g_786>
    dd27:	48 89 85 10 e7 ff ff 	mov    %rax,-0x18f0(%rbp)
    dd2e:	48 8d 05 c3 4f 01 00 	lea    0x14fc3(%rip),%rax        # 22cf8 <g_786>
    dd35:	48 89 85 18 e7 ff ff 	mov    %rax,-0x18e8(%rbp)
    dd3c:	48 8d 05 b5 4f 01 00 	lea    0x14fb5(%rip),%rax        # 22cf8 <g_786>
    dd43:	48 89 85 20 e7 ff ff 	mov    %rax,-0x18e0(%rbp)
    dd4a:	48 8d 05 a7 4f 01 00 	lea    0x14fa7(%rip),%rax        # 22cf8 <g_786>
    dd51:	48 89 85 c0 e1 ff ff 	mov    %rax,-0x1e40(%rbp)
    dd58:	c7 85 90 e0 ff ff f9 	movl   $0xfffffff9,-0x1f70(%rbp)
    dd5f:	ff ff ff 
    dd62:	48 c7 85 40 e1 ff ff 	movq   $0x0,-0x1ec0(%rbp)
    dd69:	00 00 00 00 
    dd6d:	48 8d 85 40 e1 ff ff 	lea    -0x1ec0(%rbp),%rax
    dd74:	48 89 85 c8 e1 ff ff 	mov    %rax,-0x1e38(%rbp)
    dd7b:	66 c7 85 44 e0 ff ff 	movw   $0x9048,-0x1fbc(%rbp)
    dd82:	48 90 
    dd84:	48 b8 09 77 51 a3 45 	movabs $0xc349b145a3517709,%rax
    dd8b:	b1 49 c3 
    dd8e:	48 89 85 d0 e1 ff ff 	mov    %rax,-0x1e30(%rbp)
    dd95:	66 c7 85 46 e0 ff ff 	movw   $0x0,-0x1fba(%rbp)
    dd9c:	00 00 
    dd9e:	48 8d 05 0b 33 01 00 	lea    0x1330b(%rip),%rax        # 210b0 <g_1340>
    dda5:	48 89 85 d8 e1 ff ff 	mov    %rax,-0x1e28(%rbp)
    ddac:	48 b8 8b 5e 4c 23 af 	movabs $0xc31a17af234c5e8b,%rax
    ddb3:	17 1a c3 
    ddb6:	48 89 85 e0 e1 ff ff 	mov    %rax,-0x1e20(%rbp)
    ddbd:	c7 85 94 e0 ff ff 01 	movl   $0x1,-0x1f6c(%rbp)
    ddc4:	00 00 00 
    ddc7:	48 8d 85 80 e3 ff ff 	lea    -0x1c80(%rbp),%rax
    ddce:	48 83 c0 10          	add    $0x10,%rax
    ddd2:	48 89 85 48 e1 ff ff 	mov    %rax,-0x1eb8(%rbp)
    ddd9:	48 8d 85 48 e1 ff ff 	lea    -0x1eb8(%rbp),%rax
    dde0:	48 89 85 30 e7 ff ff 	mov    %rax,-0x18d0(%rbp)
    dde7:	48 8d 85 48 e1 ff ff 	lea    -0x1eb8(%rbp),%rax
    ddee:	48 89 85 38 e7 ff ff 	mov    %rax,-0x18c8(%rbp)
    ddf5:	48 8d 85 48 e1 ff ff 	lea    -0x1eb8(%rbp),%rax
    ddfc:	48 89 85 40 e7 ff ff 	mov    %rax,-0x18c0(%rbp)
    de03:	48 c7 85 48 e7 ff ff 	movq   $0x0,-0x18b8(%rbp)
    de0a:	00 00 00 00 
    de0e:	48 8d 85 48 e1 ff ff 	lea    -0x1eb8(%rbp),%rax
    de15:	48 89 85 50 e7 ff ff 	mov    %rax,-0x18b0(%rbp)
    de1c:	48 8d 85 48 e1 ff ff 	lea    -0x1eb8(%rbp),%rax
    de23:	48 89 85 58 e7 ff ff 	mov    %rax,-0x18a8(%rbp)
    de2a:	48 c7 85 60 e7 ff ff 	movq   $0x0,-0x18a0(%rbp)
    de31:	00 00 00 00 
    de35:	48 8d 85 48 e1 ff ff 	lea    -0x1eb8(%rbp),%rax
    de3c:	48 89 85 68 e7 ff ff 	mov    %rax,-0x1898(%rbp)
    de43:	48 8d 85 48 e1 ff ff 	lea    -0x1eb8(%rbp),%rax
    de4a:	48 89 85 70 e7 ff ff 	mov    %rax,-0x1890(%rbp)
    de51:	48 8d 85 48 e1 ff ff 	lea    -0x1eb8(%rbp),%rax
    de58:	48 89 85 78 e7 ff ff 	mov    %rax,-0x1888(%rbp)
    de5f:	48 8d 85 48 e1 ff ff 	lea    -0x1eb8(%rbp),%rax
    de66:	48 89 85 80 e7 ff ff 	mov    %rax,-0x1880(%rbp)
    de6d:	48 8d 85 48 e1 ff ff 	lea    -0x1eb8(%rbp),%rax
    de74:	48 89 85 88 e7 ff ff 	mov    %rax,-0x1878(%rbp)
    de7b:	48 c7 85 90 e7 ff ff 	movq   $0x0,-0x1870(%rbp)
    de82:	00 00 00 00 
    de86:	48 8d 85 48 e1 ff ff 	lea    -0x1eb8(%rbp),%rax
    de8d:	48 89 85 98 e7 ff ff 	mov    %rax,-0x1868(%rbp)
    de94:	48 8d 85 48 e1 ff ff 	lea    -0x1eb8(%rbp),%rax
    de9b:	48 89 85 a0 e7 ff ff 	mov    %rax,-0x1860(%rbp)
    dea2:	48 c7 85 a8 e7 ff ff 	movq   $0x0,-0x1858(%rbp)
    dea9:	00 00 00 00 
    dead:	48 8d 85 48 e1 ff ff 	lea    -0x1eb8(%rbp),%rax
    deb4:	48 89 85 b0 e7 ff ff 	mov    %rax,-0x1850(%rbp)
    debb:	48 8d 85 48 e1 ff ff 	lea    -0x1eb8(%rbp),%rax
    dec2:	48 89 85 b8 e7 ff ff 	mov    %rax,-0x1848(%rbp)
    dec9:	48 8d 85 48 e1 ff ff 	lea    -0x1eb8(%rbp),%rax
    ded0:	48 89 85 c0 e7 ff ff 	mov    %rax,-0x1840(%rbp)
    ded7:	48 8d 85 48 e1 ff ff 	lea    -0x1eb8(%rbp),%rax
    dede:	48 89 85 c8 e7 ff ff 	mov    %rax,-0x1838(%rbp)
    dee5:	48 8d 85 48 e1 ff ff 	lea    -0x1eb8(%rbp),%rax
    deec:	48 89 85 d0 e7 ff ff 	mov    %rax,-0x1830(%rbp)
    def3:	48 8d 85 48 e1 ff ff 	lea    -0x1eb8(%rbp),%rax
    defa:	48 89 85 d8 e7 ff ff 	mov    %rax,-0x1828(%rbp)
    df01:	48 8d 85 48 e1 ff ff 	lea    -0x1eb8(%rbp),%rax
    df08:	48 89 85 e0 e7 ff ff 	mov    %rax,-0x1820(%rbp)
    df0f:	48 c7 85 e8 e7 ff ff 	movq   $0x0,-0x1818(%rbp)
    df16:	00 00 00 00 
    df1a:	48 8d 85 48 e1 ff ff 	lea    -0x1eb8(%rbp),%rax
    df21:	48 89 85 f0 e7 ff ff 	mov    %rax,-0x1810(%rbp)
    df28:	48 8d 85 48 e1 ff ff 	lea    -0x1eb8(%rbp),%rax
    df2f:	48 89 85 f8 e7 ff ff 	mov    %rax,-0x1808(%rbp)
    df36:	48 8d 85 48 e1 ff ff 	lea    -0x1eb8(%rbp),%rax
    df3d:	48 89 85 00 e8 ff ff 	mov    %rax,-0x1800(%rbp)
    df44:	48 8d 85 48 e1 ff ff 	lea    -0x1eb8(%rbp),%rax
    df4b:	48 89 85 08 e8 ff ff 	mov    %rax,-0x17f8(%rbp)
    df52:	48 8d 85 48 e1 ff ff 	lea    -0x1eb8(%rbp),%rax
    df59:	48 89 85 10 e8 ff ff 	mov    %rax,-0x17f0(%rbp)
    df60:	48 8d 85 48 e1 ff ff 	lea    -0x1eb8(%rbp),%rax
    df67:	48 89 85 18 e8 ff ff 	mov    %rax,-0x17e8(%rbp)
    df6e:	c7 85 98 e0 ff ff f9 	movl   $0xfffffff9,-0x1f68(%rbp)
    df75:	ff ff ff 
    df78:	48 8d 05 21 31 01 00 	lea    0x13121(%rip),%rax        # 210a0 <g_1342>
    df7f:	48 89 85 e8 e1 ff ff 	mov    %rax,-0x1e18(%rbp)
    df86:	c6 85 39 e0 ff ff 68 	movb   $0x68,-0x1fc7(%rbp)
    df8d:	66 c7 85 48 e0 ff ff 	movw   $0xffff,-0x1fb8(%rbp)
    df94:	ff ff 
    df96:	c7 85 9c e0 ff ff 10 	movl   $0xce8a9f10,-0x1f64(%rbp)
    df9d:	9f 8a ce 
    dfa0:	66 c7 85 4a e0 ff ff 	movw   $0x5,-0x1fb6(%rbp)
    dfa7:	05 00 
    dfa9:	48 c7 85 f0 e1 ff ff 	movq   $0xffffffffffffffff,-0x1e10(%rbp)
    dfb0:	ff ff ff ff 
    dfb4:	c7 85 68 e0 ff ff 00 	movl   $0x0,-0x1f98(%rbp)
    dfbb:	00 00 00 
    dfbe:	eb 1a                	jmp    dfda <func_1+0x825>
    dfc0:	8b 85 68 e0 ff ff    	mov    -0x1f98(%rbp),%eax
    dfc6:	48 98                	cltq   
    dfc8:	c7 84 85 3c e3 ff ff 	movl   $0xffffffff,-0x1cc4(%rbp,%rax,4)
    dfcf:	ff ff ff ff 
    dfd3:	83 85 68 e0 ff ff 01 	addl   $0x1,-0x1f98(%rbp)
    dfda:	83 bd 68 e0 ff ff 01 	cmpl   $0x1,-0x1f98(%rbp)
    dfe1:	7e dd                	jle    dfc0 <func_1+0x80b>
    dfe3:	c7 85 68 e0 ff ff 00 	movl   $0x0,-0x1f98(%rbp)
    dfea:	00 00 00 
    dfed:	eb 1b                	jmp    e00a <func_1+0x855>
    dfef:	8b 85 68 e0 ff ff    	mov    -0x1f98(%rbp),%eax
    dff5:	48 98                	cltq   
    dff7:	48 c7 84 c5 30 e3 ff 	movq   $0x0,-0x1cd0(%rbp,%rax,8)
    dffe:	ff 00 00 00 00 
    e003:	83 85 68 e0 ff ff 01 	addl   $0x1,-0x1f98(%rbp)
    e00a:	83 bd 68 e0 ff ff 00 	cmpl   $0x0,-0x1f98(%rbp)
    e011:	7e dc                	jle    dfef <func_1+0x83a>
    e013:	c7 85 68 e0 ff ff 00 	movl   $0x0,-0x1f98(%rbp)
    e01a:	00 00 00 
    e01d:	eb 1a                	jmp    e039 <func_1+0x884>
    e01f:	8b 85 68 e0 ff ff    	mov    -0x1f98(%rbp),%eax
    e025:	48 98                	cltq   
    e027:	c7 84 85 44 e3 ff ff 	movl   $0xfffffffd,-0x1cbc(%rbp,%rax,4)
    e02e:	fd ff ff ff 
    e032:	83 85 68 e0 ff ff 01 	addl   $0x1,-0x1f98(%rbp)
    e039:	83 bd 68 e0 ff ff 02 	cmpl   $0x2,-0x1f98(%rbp)
    e040:	7e dd                	jle    e01f <func_1+0x86a>
    e042:	0f b7 85 88 e4 ff ff 	movzwl -0x1b78(%rbp),%eax
    e049:	0f be d8             	movsbl %al,%ebx
    e04c:	0f b7 85 82 e4 ff ff 	movzwl -0x1b7e(%rbp),%eax
    e053:	44 0f b7 e0          	movzwl %ax,%r12d
    e057:	8b 05 d7 df 00 00    	mov    0xdfd7(%rip),%eax        # 1c034 <g_101>
    e05d:	89 85 2c e0 ff ff    	mov    %eax,-0x1fd4(%rbp)
    e063:	8b 85 84 e0 ff ff    	mov    -0x1f7c(%rbp),%eax
    e069:	44 0f bf e8          	movswl %ax,%r13d
    e06d:	48 8b 05 e4 27 01 00 	mov    0x127e4(%rip),%rax        # 20858 <g_217>
    e074:	44 8b 38             	mov    (%rax),%r15d
    e077:	0f b6 05 ba e0 00 00 	movzbl 0xe0ba(%rip),%eax        # 1c138 <g_207>
    e07e:	44 0f be f0          	movsbl %al,%r14d
    e082:	8b 85 60 e0 ff ff    	mov    -0x1fa0(%rbp),%eax
    e088:	0f bf f8             	movswl %ax,%edi
    e08b:	89 bd 28 e0 ff ff    	mov    %edi,-0x1fd8(%rbp)
    e091:	8b 8d 84 e0 ff ff    	mov    -0x1f7c(%rbp),%ecx
    e097:	89 8d 24 e0 ff ff    	mov    %ecx,-0x1fdc(%rbp)
    e09d:	48 8b 05 84 df 00 00 	mov    0xdf84(%rip),%rax        # 1c028 <g_7>
    e0a4:	89 c2                	mov    %eax,%edx
    e0a6:	48 8b 05 7b df 00 00 	mov    0xdf7b(%rip),%rax        # 1c028 <g_7>
    e0ad:	89 d6                	mov    %edx,%esi
    e0af:	89 c7                	mov    %eax,%edi
    e0b1:	e8 49 e6 ff ff       	callq  c6ff <safe_div_func_int32_t_s_s>
    e0b6:	89 c2                	mov    %eax,%edx
    e0b8:	48 8b 05 69 df 00 00 	mov    0xdf69(%rip),%rax        # 1c028 <g_7>
    e0bf:	0f b6 f0             	movzbl %al,%esi
    e0c2:	48 8b 05 5f df 00 00 	mov    0xdf5f(%rip),%rax        # 1c028 <g_7>
    e0c9:	0f b6 c0             	movzbl %al,%eax
    e0cc:	44 8b 85 28 e0 ff ff 	mov    -0x1fd8(%rbp),%r8d
    e0d3:	8b 8d 24 e0 ff ff    	mov    -0x1fdc(%rbp),%ecx
    e0d9:	89 c7                	mov    %eax,%edi
    e0db:	e8 8d 40 00 00       	callq  1216d <func_25>
    e0e0:	8b 85 84 e0 ff ff    	mov    -0x1f7c(%rbp),%eax
    e0e6:	44 89 f9             	mov    %r15d,%ecx
    e0e9:	89 c2                	mov    %eax,%edx
    e0eb:	44 89 f6             	mov    %r14d,%esi
    e0ee:	bf ea 9e 13 f6       	mov    $0xf6139eea,%edi
    e0f3:	e8 c6 2a 00 00       	callq  10bbe <func_20>
    e0f8:	89 c1                	mov    %eax,%ecx
    e0fa:	48 8b 05 27 df 00 00 	mov    0xdf27(%rip),%rax        # 1c028 <g_7>
    e101:	98                   	cwtl   
    e102:	44 89 ea             	mov    %r13d,%edx
    e105:	89 ce                	mov    %ecx,%esi
    e107:	89 c7                	mov    %eax,%edi
    e109:	e8 46 26 00 00       	callq  10754 <func_16>
    e10e:	0f b7 d0             	movzwl %ax,%edx
    e111:	48 8b 05 10 df 00 00 	mov    0xdf10(%rip),%rax        # 1c028 <g_7>
    e118:	0f b7 c0             	movzwl %ax,%eax
    e11b:	89 d6                	mov    %edx,%esi
    e11d:	89 c7                	mov    %eax,%edi
    e11f:	e8 56 ed ff ff       	callq  ce7a <safe_rshift_func_uint16_t_u_u>
    e124:	0f b7 c0             	movzwl %ax,%eax
    e127:	44 89 e2             	mov    %r12d,%edx
    e12a:	8b b5 2c e0 ff ff    	mov    -0x1fd4(%rbp),%esi
    e130:	89 c7                	mov    %eax,%edi
    e132:	e8 66 23 00 00       	callq  1049d <func_10>
    e137:	0f be c0             	movsbl %al,%eax
    e13a:	89 de                	mov    %ebx,%esi
    e13c:	89 c7                	mov    %eax,%edi
    e13e:	e8 27 e1 ff ff       	callq  c26a <safe_div_func_int8_t_s_s>
    e143:	48 0f be d0          	movsbq %al,%rdx
    e147:	48 8b 05 da de 00 00 	mov    0xdeda(%rip),%rax        # 1c028 <g_7>
    e14e:	48 39 c2             	cmp    %rax,%rdx
    e151:	0f 9d c0             	setge  %al
    e154:	0f b6 d0             	movzbl %al,%edx
    e157:	48 8b 05 ca de 00 00 	mov    0xdeca(%rip),%rax        # 1c028 <g_7>
    e15e:	0f b7 c8             	movzwl %ax,%ecx
    e161:	0f b7 85 6e e4 ff ff 	movzwl -0x1b92(%rbp),%eax
    e168:	98                   	cwtl   
    e169:	48 8b 1d d0 26 01 00 	mov    0x126d0(%rip),%rbx        # 20840 <g_70>
    e170:	89 ce                	mov    %ecx,%esi
    e172:	89 c7                	mov    %eax,%edi
    e174:	e8 96 1f 00 00       	callq  1010f <func_3>
    e179:	89 03                	mov    %eax,(%rbx)
    e17b:	8b 03                	mov    (%rbx),%eax
    e17d:	89 85 6c e0 ff ff    	mov    %eax,-0x1f94(%rbp)
    e183:	0f b6 05 6b f3 00 00 	movzbl 0xf36b(%rip),%eax        # 1d4f5 <g_1338+0x5>
    e18a:	84 c0                	test   %al,%al
    e18c:	90                   	nop
    e18d:	f3 0f 1e fa          	endbr64 
    e191:	48 8b 05 50 2a 01 00 	mov    0x12a50(%rip),%rax        # 20be8 <g_675>
    e198:	48 8d 95 60 e0 ff ff 	lea    -0x1fa0(%rbp),%rdx
    e19f:	48 89 10             	mov    %rdx,(%rax)
    e1a2:	c7 05 3c 4b 01 00 ee 	movl   $0xffffffee,0x14b3c(%rip)        # 22ce8 <g_55>
    e1a9:	ff ff ff 
    e1ac:	90                   	nop
    e1ad:	8b 05 35 4b 01 00    	mov    0x14b35(%rip),%eax        # 22ce8 <g_55>
    e1b3:	83 f8 fa             	cmp    $0xfffffffa,%eax
    e1b6:	74 29                	je     e1e1 <func_1+0xa2c>
    e1b8:	8b 05 8e f2 00 00    	mov    0xf28e(%rip),%eax        # 1d44c <g_874+0xc>
    e1be:	c1 e8 08             	shr    $0x8,%eax
    e1c1:	89 c2                	mov    %eax,%edx
    e1c3:	0f b6 05 86 f2 00 00 	movzbl 0xf286(%rip),%eax        # 1d450 <g_874+0x10>
    e1ca:	83 e0 7f             	and    $0x7f,%eax
    e1cd:	48 c1 e0 18          	shl    $0x18,%rax
    e1d1:	48 09 d0             	or     %rdx,%rax
    e1d4:	48 c1 e0 21          	shl    $0x21,%rax
    e1d8:	48 c1 f8 21          	sar    $0x21,%rax
    e1dc:	e9 08 1f 00 00       	jmpq   100e9 <func_1+0x2934>
    e1e1:	48 8b 05 f8 2b 01 00 	mov    0x12bf8(%rip),%rax        # 20de0 <g_728>
    e1e8:	48 8b 05 a9 2e 01 00 	mov    0x12ea9(%rip),%rax        # 21098 <g_1343>
    e1ef:	0f b7 00             	movzwl (%rax),%eax
    e1f2:	0f bf d8             	movswl %ax,%ebx
    e1f5:	48 8b 05 e4 29 01 00 	mov    0x129e4(%rip),%rax        # 20be0 <g_610>
    e1fc:	0f b6 00             	movzbl (%rax),%eax
    e1ff:	44 0f b6 e0          	movzbl %al,%r12d
    e203:	48 8b 05 fe 26 01 00 	mov    0x126fe(%rip),%rax        # 20908 <g_263>
    e20a:	48 8b 00             	mov    (%rax),%rax
    e20d:	48 8b 00             	mov    (%rax),%rax
    e210:	49 89 c5             	mov    %rax,%r13
    e213:	48 8b 05 b6 f2 00 00 	mov    0xf2b6(%rip),%rax        # 1d4d0 <g_1111+0x8>
    e21a:	c1 e0 07             	shl    $0x7,%eax
    e21d:	66 c1 f8 0e          	sar    $0xe,%ax
    e221:	0f be c0             	movsbl %al,%eax
    e224:	89 c7                	mov    %eax,%edi
    e226:	e8 7b ec ff ff       	callq  cea6 <safe_unary_minus_func_uint32_t_u>
    e22b:	48 8b 95 00 f4 ff ff 	mov    -0xc00(%rbp),%rdx
    e232:	48 8b 85 30 f8 ff ff 	mov    -0x7d0(%rbp),%rax
    e239:	48 39 c2             	cmp    %rax,%rdx
    e23c:	48 8b 05 75 2e 01 00 	mov    0x12e75(%rip),%rax        # 210b8 <g_1339>
    e243:	48 8b 00             	mov    (%rax),%rax
    e246:	48 8b 00             	mov    (%rax),%rax
    e249:	48 39 85 a0 e1 ff ff 	cmp    %rax,-0x1e60(%rbp)
    e250:	0f 94 c0             	sete   %al
    e253:	0f b6 c0             	movzbl %al,%eax
    e256:	4c 89 ee             	mov    %r13,%rsi
    e259:	48 89 c7             	mov    %rax,%rdi
    e25c:	e8 cd ed ff ff       	callq  d02e <safe_add_func_uint64_t_u_u>
    e261:	4c 09 e0             	or     %r12,%rax
    e264:	48 89 c7             	mov    %rax,%rdi
    e267:	e8 ad ed ff ff       	callq  d019 <safe_unary_minus_func_uint64_t_u>
    e26c:	48 85 c0             	test   %rax,%rax
    e26f:	74 11                	je     e282 <func_1+0xacd>
    e271:	48 83 bd a8 e1 ff ff 	cmpq   $0x0,-0x1e58(%rbp)
    e278:	00 
    e279:	74 07                	je     e282 <func_1+0xacd>
    e27b:	ba 01 00 00 00       	mov    $0x1,%edx
    e280:	eb 05                	jmp    e287 <func_1+0xad2>
    e282:	ba 00 00 00 00       	mov    $0x0,%edx
    e287:	8b 85 40 e3 ff ff    	mov    -0x1cc0(%rbp),%eax
    e28d:	09 d0                	or     %edx,%eax
    e28f:	48 63 d0             	movslq %eax,%rdx
    e292:	48 8b 85 30 e3 ff ff 	mov    -0x1cd0(%rbp),%rax
    e299:	48 39 c2             	cmp    %rax,%rdx
    e29c:	0f 9e c0             	setle  %al
    e29f:	0f b6 c0             	movzbl %al,%eax
    e2a2:	39 c3                	cmp    %eax,%ebx
    e2a4:	0f 94 c0             	sete   %al
    e2a7:	0f b6 d0             	movzbl %al,%edx
    e2aa:	0f b7 05 6f f2 00 00 	movzwl 0xf26f(%rip),%eax        # 1d520 <g_1456+0x8>
    e2b1:	c1 e0 07             	shl    $0x7,%eax
    e2b4:	66 c1 f8 0e          	sar    $0xe,%ax
    e2b8:	0f be c0             	movsbl %al,%eax
    e2bb:	39 c2                	cmp    %eax,%edx
    e2bd:	0f 9d c0             	setge  %al
    e2c0:	0f b6 d0             	movzbl %al,%edx
    e2c3:	48 8b 05 76 2b 01 00 	mov    0x12b76(%rip),%rax        # 20e40 <g_1074>
    e2ca:	0f b7 00             	movzwl (%rax),%eax
    e2cd:	98                   	cwtl   
    e2ce:	39 c2                	cmp    %eax,%edx
    e2d0:	0f 95 c0             	setne  %al
    e2d3:	0f b6 c0             	movzbl %al,%eax
    e2d6:	48 8b 95 20 e1 ff ff 	mov    -0x1ee0(%rbp),%rdx
    e2dd:	48 8b 8d 18 e1 ff ff 	mov    -0x1ee8(%rbp),%rcx
    e2e4:	48 89 0a             	mov    %rcx,(%rdx)
    e2e7:	89 c6                	mov    %eax,%esi
    e2e9:	bf 00 00 00 00       	mov    $0x0,%edi
    e2ee:	e8 a0 e8 ff ff       	callq  cb93 <safe_mul_func_uint8_t_u_u>
    e2f3:	0f b6 d0             	movzbl %al,%edx
    e2f6:	48 8b 05 eb 2a 01 00 	mov    0x12aeb(%rip),%rax        # 20de8 <g_731>
    e2fd:	0f b6 00             	movzbl (%rax),%eax
    e300:	0f be c0             	movsbl %al,%eax
    e303:	39 c2                	cmp    %eax,%edx
    e305:	74 5c                	je     e363 <func_1+0xbae>
    e307:	48 8d 05 22 dd 00 00 	lea    0xdd22(%rip),%rax        # 1c030 <g_96>
    e30e:	48 89 85 08 e3 ff ff 	mov    %rax,-0x1cf8(%rbp)
    e315:	c6 85 3f e0 ff ff ff 	movb   $0xff,-0x1fc1(%rbp)
    e31c:	48 8d 05 c7 f1 00 00 	lea    0xf1c7(%rip),%rax        # 1d4ea <g_1337>
    e323:	48 89 85 10 e3 ff ff 	mov    %rax,-0x1cf0(%rbp)
    e32a:	c7 85 04 e1 ff ff 86 	movl   $0x155fe186,-0x1efc(%rbp)
    e331:	e1 5f 15 
    e334:	48 b8 b6 43 85 79 96 	movabs $0x98827c96798543b6,%rax
    e33b:	7c 82 98 
    e33e:	48 89 85 18 e3 ff ff 	mov    %rax,-0x1ce8(%rbp)
    e345:	48 8d 85 08 e1 ff ff 	lea    -0x1ef8(%rbp),%rax
    e34c:	48 89 85 20 e3 ff ff 	mov    %rax,-0x1ce0(%rbp)
    e353:	48 c7 85 28 e3 ff ff 	movq   $0xffffffffffffffff,-0x1cd8(%rbp)
    e35a:	ff ff ff ff 
    e35e:	e9 77 1d 00 00       	jmpq   100da <func_1+0x2925>
    e363:	c6 85 3a e0 ff ff 01 	movb   $0x1,-0x1fc6(%rbp)
    e36a:	c7 85 64 e0 ff ff 51 	movl   $0x1970b451,-0x1f9c(%rbp)
    e371:	b4 70 19 
    e374:	c7 85 a0 e3 ff ff 02 	movl   $0x2,-0x1c60(%rbp)
    e37b:	00 00 00 
    e37e:	c7 85 a4 e3 ff ff 02 	movl   $0x2,-0x1c5c(%rbp)
    e385:	00 00 00 
    e388:	c7 85 a8 e3 ff ff 02 	movl   $0x2,-0x1c58(%rbp)
    e38f:	00 00 00 
    e392:	c7 85 ac e3 ff ff 02 	movl   $0x2,-0x1c54(%rbp)
    e399:	00 00 00 
    e39c:	c7 85 b0 e3 ff ff 02 	movl   $0x2,-0x1c50(%rbp)
    e3a3:	00 00 00 
    e3a6:	c7 85 b4 e3 ff ff 02 	movl   $0x2,-0x1c4c(%rbp)
    e3ad:	00 00 00 
    e3b0:	c7 85 b8 e3 ff ff 02 	movl   $0x2,-0x1c48(%rbp)
    e3b7:	00 00 00 
    e3ba:	c7 85 bc e3 ff ff 02 	movl   $0x2,-0x1c44(%rbp)
    e3c1:	00 00 00 
    e3c4:	48 8d 85 10 e1 ff ff 	lea    -0x1ef0(%rbp),%rax
    e3cb:	48 89 85 50 e1 ff ff 	mov    %rax,-0x1eb0(%rbp)
    e3d2:	48 8d 85 50 e1 ff ff 	lea    -0x1eb0(%rbp),%rax
    e3d9:	48 89 85 80 f9 ff ff 	mov    %rax,-0x680(%rbp)
    e3e0:	48 8d 85 50 e1 ff ff 	lea    -0x1eb0(%rbp),%rax
    e3e7:	48 89 85 88 f9 ff ff 	mov    %rax,-0x678(%rbp)
    e3ee:	48 8d 85 50 e1 ff ff 	lea    -0x1eb0(%rbp),%rax
    e3f5:	48 89 85 90 f9 ff ff 	mov    %rax,-0x670(%rbp)
    e3fc:	48 8d 85 50 e1 ff ff 	lea    -0x1eb0(%rbp),%rax
    e403:	48 89 85 98 f9 ff ff 	mov    %rax,-0x668(%rbp)
    e40a:	48 8d 85 50 e1 ff ff 	lea    -0x1eb0(%rbp),%rax
    e411:	48 89 85 a0 f9 ff ff 	mov    %rax,-0x660(%rbp)
    e418:	48 8d 85 50 e1 ff ff 	lea    -0x1eb0(%rbp),%rax
    e41f:	48 89 85 a8 f9 ff ff 	mov    %rax,-0x658(%rbp)
    e426:	48 8d 85 50 e1 ff ff 	lea    -0x1eb0(%rbp),%rax
    e42d:	48 89 85 b0 f9 ff ff 	mov    %rax,-0x650(%rbp)
    e434:	48 8d 85 50 e1 ff ff 	lea    -0x1eb0(%rbp),%rax
    e43b:	48 89 85 b8 f9 ff ff 	mov    %rax,-0x648(%rbp)
    e442:	48 8d 85 50 e1 ff ff 	lea    -0x1eb0(%rbp),%rax
    e449:	48 89 85 c0 f9 ff ff 	mov    %rax,-0x640(%rbp)
    e450:	48 8d 85 50 e1 ff ff 	lea    -0x1eb0(%rbp),%rax
    e457:	48 89 85 c8 f9 ff ff 	mov    %rax,-0x638(%rbp)
    e45e:	48 8d 85 50 e1 ff ff 	lea    -0x1eb0(%rbp),%rax
    e465:	48 89 85 d0 f9 ff ff 	mov    %rax,-0x630(%rbp)
    e46c:	48 8d 85 50 e1 ff ff 	lea    -0x1eb0(%rbp),%rax
    e473:	48 89 85 d8 f9 ff ff 	mov    %rax,-0x628(%rbp)
    e47a:	48 8d 85 50 e1 ff ff 	lea    -0x1eb0(%rbp),%rax
    e481:	48 89 85 e0 f9 ff ff 	mov    %rax,-0x620(%rbp)
    e488:	48 8d 85 50 e1 ff ff 	lea    -0x1eb0(%rbp),%rax
    e48f:	48 89 85 e8 f9 ff ff 	mov    %rax,-0x618(%rbp)
    e496:	48 8d 85 50 e1 ff ff 	lea    -0x1eb0(%rbp),%rax
    e49d:	48 89 85 f0 f9 ff ff 	mov    %rax,-0x610(%rbp)
    e4a4:	48 8d 85 50 e1 ff ff 	lea    -0x1eb0(%rbp),%rax
    e4ab:	48 89 85 f8 f9 ff ff 	mov    %rax,-0x608(%rbp)
    e4b2:	48 8d 85 50 e1 ff ff 	lea    -0x1eb0(%rbp),%rax
    e4b9:	48 89 85 00 fa ff ff 	mov    %rax,-0x600(%rbp)
    e4c0:	48 8d 85 50 e1 ff ff 	lea    -0x1eb0(%rbp),%rax
    e4c7:	48 89 85 08 fa ff ff 	mov    %rax,-0x5f8(%rbp)
    e4ce:	48 8d 85 50 e1 ff ff 	lea    -0x1eb0(%rbp),%rax
    e4d5:	48 89 85 10 fa ff ff 	mov    %rax,-0x5f0(%rbp)
    e4dc:	48 8d 85 50 e1 ff ff 	lea    -0x1eb0(%rbp),%rax
    e4e3:	48 89 85 18 fa ff ff 	mov    %rax,-0x5e8(%rbp)
    e4ea:	48 8d 85 50 e1 ff ff 	lea    -0x1eb0(%rbp),%rax
    e4f1:	48 89 85 20 fa ff ff 	mov    %rax,-0x5e0(%rbp)
    e4f8:	48 8d 85 50 e1 ff ff 	lea    -0x1eb0(%rbp),%rax
    e4ff:	48 89 85 28 fa ff ff 	mov    %rax,-0x5d8(%rbp)
    e506:	48 8d 85 50 e1 ff ff 	lea    -0x1eb0(%rbp),%rax
    e50d:	48 89 85 30 fa ff ff 	mov    %rax,-0x5d0(%rbp)
    e514:	48 8d 85 50 e1 ff ff 	lea    -0x1eb0(%rbp),%rax
    e51b:	48 89 85 38 fa ff ff 	mov    %rax,-0x5c8(%rbp)
    e522:	48 8d 85 50 e1 ff ff 	lea    -0x1eb0(%rbp),%rax
    e529:	48 89 85 40 fa ff ff 	mov    %rax,-0x5c0(%rbp)
    e530:	48 8d 85 50 e1 ff ff 	lea    -0x1eb0(%rbp),%rax
    e537:	48 89 85 48 fa ff ff 	mov    %rax,-0x5b8(%rbp)
    e53e:	48 8d 85 50 e1 ff ff 	lea    -0x1eb0(%rbp),%rax
    e545:	48 89 85 50 fa ff ff 	mov    %rax,-0x5b0(%rbp)
    e54c:	48 8d 85 50 e1 ff ff 	lea    -0x1eb0(%rbp),%rax
    e553:	48 89 85 58 fa ff ff 	mov    %rax,-0x5a8(%rbp)
    e55a:	48 8d 85 50 e1 ff ff 	lea    -0x1eb0(%rbp),%rax
    e561:	48 89 85 60 fa ff ff 	mov    %rax,-0x5a0(%rbp)
    e568:	48 8d 85 50 e1 ff ff 	lea    -0x1eb0(%rbp),%rax
    e56f:	48 89 85 68 fa ff ff 	mov    %rax,-0x598(%rbp)
    e576:	48 8d 85 50 e1 ff ff 	lea    -0x1eb0(%rbp),%rax
    e57d:	48 89 85 70 fa ff ff 	mov    %rax,-0x590(%rbp)
    e584:	48 8d 85 50 e1 ff ff 	lea    -0x1eb0(%rbp),%rax
    e58b:	48 89 85 78 fa ff ff 	mov    %rax,-0x588(%rbp)
    e592:	48 8d 85 50 e1 ff ff 	lea    -0x1eb0(%rbp),%rax
    e599:	48 89 85 80 fa ff ff 	mov    %rax,-0x580(%rbp)
    e5a0:	48 8d 85 50 e1 ff ff 	lea    -0x1eb0(%rbp),%rax
    e5a7:	48 89 85 88 fa ff ff 	mov    %rax,-0x578(%rbp)
    e5ae:	48 8d 85 50 e1 ff ff 	lea    -0x1eb0(%rbp),%rax
    e5b5:	48 89 85 90 fa ff ff 	mov    %rax,-0x570(%rbp)
    e5bc:	48 8d 85 50 e1 ff ff 	lea    -0x1eb0(%rbp),%rax
    e5c3:	48 89 85 98 fa ff ff 	mov    %rax,-0x568(%rbp)
    e5ca:	48 8d 85 50 e1 ff ff 	lea    -0x1eb0(%rbp),%rax
    e5d1:	48 89 85 a0 fa ff ff 	mov    %rax,-0x560(%rbp)
    e5d8:	48 8d 85 50 e1 ff ff 	lea    -0x1eb0(%rbp),%rax
    e5df:	48 89 85 a8 fa ff ff 	mov    %rax,-0x558(%rbp)
    e5e6:	48 8d 85 50 e1 ff ff 	lea    -0x1eb0(%rbp),%rax
    e5ed:	48 89 85 b0 fa ff ff 	mov    %rax,-0x550(%rbp)
    e5f4:	48 8d 85 50 e1 ff ff 	lea    -0x1eb0(%rbp),%rax
    e5fb:	48 89 85 b8 fa ff ff 	mov    %rax,-0x548(%rbp)
    e602:	48 8d 85 50 e1 ff ff 	lea    -0x1eb0(%rbp),%rax
    e609:	48 89 85 c0 fa ff ff 	mov    %rax,-0x540(%rbp)
    e610:	48 8d 85 50 e1 ff ff 	lea    -0x1eb0(%rbp),%rax
    e617:	48 89 85 c8 fa ff ff 	mov    %rax,-0x538(%rbp)
    e61e:	48 8d 85 50 e1 ff ff 	lea    -0x1eb0(%rbp),%rax
    e625:	48 89 85 d0 fa ff ff 	mov    %rax,-0x530(%rbp)
    e62c:	48 8d 85 50 e1 ff ff 	lea    -0x1eb0(%rbp),%rax
    e633:	48 89 85 d8 fa ff ff 	mov    %rax,-0x528(%rbp)
    e63a:	48 8d 85 50 e1 ff ff 	lea    -0x1eb0(%rbp),%rax
    e641:	48 89 85 e0 fa ff ff 	mov    %rax,-0x520(%rbp)
    e648:	48 8d 85 50 e1 ff ff 	lea    -0x1eb0(%rbp),%rax
    e64f:	48 89 85 e8 fa ff ff 	mov    %rax,-0x518(%rbp)
    e656:	48 8d 85 50 e1 ff ff 	lea    -0x1eb0(%rbp),%rax
    e65d:	48 89 85 f0 fa ff ff 	mov    %rax,-0x510(%rbp)
    e664:	48 8d 85 50 e1 ff ff 	lea    -0x1eb0(%rbp),%rax
    e66b:	48 89 85 f8 fa ff ff 	mov    %rax,-0x508(%rbp)
    e672:	48 8d 85 50 e1 ff ff 	lea    -0x1eb0(%rbp),%rax
    e679:	48 89 85 00 fb ff ff 	mov    %rax,-0x500(%rbp)
    e680:	48 8d 85 50 e1 ff ff 	lea    -0x1eb0(%rbp),%rax
    e687:	48 89 85 08 fb ff ff 	mov    %rax,-0x4f8(%rbp)
    e68e:	48 8d 85 50 e1 ff ff 	lea    -0x1eb0(%rbp),%rax
    e695:	48 89 85 10 fb ff ff 	mov    %rax,-0x4f0(%rbp)
    e69c:	48 8d 85 50 e1 ff ff 	lea    -0x1eb0(%rbp),%rax
    e6a3:	48 89 85 18 fb ff ff 	mov    %rax,-0x4e8(%rbp)
    e6aa:	48 8d 85 50 e1 ff ff 	lea    -0x1eb0(%rbp),%rax
    e6b1:	48 89 85 20 fb ff ff 	mov    %rax,-0x4e0(%rbp)
    e6b8:	48 8d 85 50 e1 ff ff 	lea    -0x1eb0(%rbp),%rax
    e6bf:	48 89 85 28 fb ff ff 	mov    %rax,-0x4d8(%rbp)
    e6c6:	48 8d 85 50 e1 ff ff 	lea    -0x1eb0(%rbp),%rax
    e6cd:	48 89 85 30 fb ff ff 	mov    %rax,-0x4d0(%rbp)
    e6d4:	48 8d 85 50 e1 ff ff 	lea    -0x1eb0(%rbp),%rax
    e6db:	48 89 85 38 fb ff ff 	mov    %rax,-0x4c8(%rbp)
    e6e2:	48 8d 85 50 e1 ff ff 	lea    -0x1eb0(%rbp),%rax
    e6e9:	48 89 85 40 fb ff ff 	mov    %rax,-0x4c0(%rbp)
    e6f0:	48 8d 85 50 e1 ff ff 	lea    -0x1eb0(%rbp),%rax
    e6f7:	48 89 85 48 fb ff ff 	mov    %rax,-0x4b8(%rbp)
    e6fe:	48 8d 85 50 e1 ff ff 	lea    -0x1eb0(%rbp),%rax
    e705:	48 89 85 50 fb ff ff 	mov    %rax,-0x4b0(%rbp)
    e70c:	48 8d 85 50 e1 ff ff 	lea    -0x1eb0(%rbp),%rax
    e713:	48 89 85 58 fb ff ff 	mov    %rax,-0x4a8(%rbp)
    e71a:	48 8d 85 50 e1 ff ff 	lea    -0x1eb0(%rbp),%rax
    e721:	48 89 85 60 fb ff ff 	mov    %rax,-0x4a0(%rbp)
    e728:	48 8d 85 50 e1 ff ff 	lea    -0x1eb0(%rbp),%rax
    e72f:	48 89 85 68 fb ff ff 	mov    %rax,-0x498(%rbp)
    e736:	48 8d 85 50 e1 ff ff 	lea    -0x1eb0(%rbp),%rax
    e73d:	48 89 85 70 fb ff ff 	mov    %rax,-0x490(%rbp)
    e744:	48 8d 85 50 e1 ff ff 	lea    -0x1eb0(%rbp),%rax
    e74b:	48 89 85 78 fb ff ff 	mov    %rax,-0x488(%rbp)
    e752:	48 8d 85 50 e1 ff ff 	lea    -0x1eb0(%rbp),%rax
    e759:	48 89 85 80 fb ff ff 	mov    %rax,-0x480(%rbp)
    e760:	48 8d 85 50 e1 ff ff 	lea    -0x1eb0(%rbp),%rax
    e767:	48 89 85 88 fb ff ff 	mov    %rax,-0x478(%rbp)
    e76e:	48 8d 85 50 e1 ff ff 	lea    -0x1eb0(%rbp),%rax
    e775:	48 89 85 90 fb ff ff 	mov    %rax,-0x470(%rbp)
    e77c:	48 8d 85 50 e1 ff ff 	lea    -0x1eb0(%rbp),%rax
    e783:	48 89 85 98 fb ff ff 	mov    %rax,-0x468(%rbp)
    e78a:	48 8d 85 50 e1 ff ff 	lea    -0x1eb0(%rbp),%rax
    e791:	48 89 85 a0 fb ff ff 	mov    %rax,-0x460(%rbp)
    e798:	48 8d 85 50 e1 ff ff 	lea    -0x1eb0(%rbp),%rax
    e79f:	48 89 85 a8 fb ff ff 	mov    %rax,-0x458(%rbp)
    e7a6:	48 8d 85 50 e1 ff ff 	lea    -0x1eb0(%rbp),%rax
    e7ad:	48 89 85 b0 fb ff ff 	mov    %rax,-0x450(%rbp)
    e7b4:	48 8d 85 50 e1 ff ff 	lea    -0x1eb0(%rbp),%rax
    e7bb:	48 89 85 b8 fb ff ff 	mov    %rax,-0x448(%rbp)
    e7c2:	48 8d 85 50 e1 ff ff 	lea    -0x1eb0(%rbp),%rax
    e7c9:	48 89 85 c0 fb ff ff 	mov    %rax,-0x440(%rbp)
    e7d0:	48 8d 85 50 e1 ff ff 	lea    -0x1eb0(%rbp),%rax
    e7d7:	48 89 85 c8 fb ff ff 	mov    %rax,-0x438(%rbp)
    e7de:	48 8d 85 50 e1 ff ff 	lea    -0x1eb0(%rbp),%rax
    e7e5:	48 89 85 d0 fb ff ff 	mov    %rax,-0x430(%rbp)
    e7ec:	48 8d 85 50 e1 ff ff 	lea    -0x1eb0(%rbp),%rax
    e7f3:	48 89 85 d8 fb ff ff 	mov    %rax,-0x428(%rbp)
    e7fa:	48 8d 85 50 e1 ff ff 	lea    -0x1eb0(%rbp),%rax
    e801:	48 89 85 e0 fb ff ff 	mov    %rax,-0x420(%rbp)
    e808:	48 8d 85 50 e1 ff ff 	lea    -0x1eb0(%rbp),%rax
    e80f:	48 89 85 e8 fb ff ff 	mov    %rax,-0x418(%rbp)
    e816:	48 8d 85 50 e1 ff ff 	lea    -0x1eb0(%rbp),%rax
    e81d:	48 89 85 f0 fb ff ff 	mov    %rax,-0x410(%rbp)
    e824:	48 8d 85 50 e1 ff ff 	lea    -0x1eb0(%rbp),%rax
    e82b:	48 89 85 f8 fb ff ff 	mov    %rax,-0x408(%rbp)
    e832:	48 8d 85 50 e1 ff ff 	lea    -0x1eb0(%rbp),%rax
    e839:	48 89 85 00 fc ff ff 	mov    %rax,-0x400(%rbp)
    e840:	48 8d 85 50 e1 ff ff 	lea    -0x1eb0(%rbp),%rax
    e847:	48 89 85 08 fc ff ff 	mov    %rax,-0x3f8(%rbp)
    e84e:	48 8d 85 50 e1 ff ff 	lea    -0x1eb0(%rbp),%rax
    e855:	48 89 85 10 fc ff ff 	mov    %rax,-0x3f0(%rbp)
    e85c:	48 8d 85 50 e1 ff ff 	lea    -0x1eb0(%rbp),%rax
    e863:	48 89 85 18 fc ff ff 	mov    %rax,-0x3e8(%rbp)
    e86a:	48 8d 85 50 e1 ff ff 	lea    -0x1eb0(%rbp),%rax
    e871:	48 89 85 20 fc ff ff 	mov    %rax,-0x3e0(%rbp)
    e878:	48 8d 85 50 e1 ff ff 	lea    -0x1eb0(%rbp),%rax
    e87f:	48 89 85 28 fc ff ff 	mov    %rax,-0x3d8(%rbp)
    e886:	48 8d 85 50 e1 ff ff 	lea    -0x1eb0(%rbp),%rax
    e88d:	48 89 85 30 fc ff ff 	mov    %rax,-0x3d0(%rbp)
    e894:	48 8d 85 50 e1 ff ff 	lea    -0x1eb0(%rbp),%rax
    e89b:	48 89 85 38 fc ff ff 	mov    %rax,-0x3c8(%rbp)
    e8a2:	48 8d 85 50 e1 ff ff 	lea    -0x1eb0(%rbp),%rax
    e8a9:	48 89 85 40 fc ff ff 	mov    %rax,-0x3c0(%rbp)
    e8b0:	48 8d 85 50 e1 ff ff 	lea    -0x1eb0(%rbp),%rax
    e8b7:	48 89 85 48 fc ff ff 	mov    %rax,-0x3b8(%rbp)
    e8be:	48 8d 85 50 e1 ff ff 	lea    -0x1eb0(%rbp),%rax
    e8c5:	48 89 85 50 fc ff ff 	mov    %rax,-0x3b0(%rbp)
    e8cc:	48 8d 85 50 e1 ff ff 	lea    -0x1eb0(%rbp),%rax
    e8d3:	48 89 85 58 fc ff ff 	mov    %rax,-0x3a8(%rbp)
    e8da:	48 8d 85 50 e1 ff ff 	lea    -0x1eb0(%rbp),%rax
    e8e1:	48 89 85 60 fc ff ff 	mov    %rax,-0x3a0(%rbp)
    e8e8:	48 8d 85 50 e1 ff ff 	lea    -0x1eb0(%rbp),%rax
    e8ef:	48 89 85 68 fc ff ff 	mov    %rax,-0x398(%rbp)
    e8f6:	48 8d 85 50 e1 ff ff 	lea    -0x1eb0(%rbp),%rax
    e8fd:	48 89 85 70 fc ff ff 	mov    %rax,-0x390(%rbp)
    e904:	48 8d 85 50 e1 ff ff 	lea    -0x1eb0(%rbp),%rax
    e90b:	48 89 85 78 fc ff ff 	mov    %rax,-0x388(%rbp)
    e912:	48 8d 85 50 e1 ff ff 	lea    -0x1eb0(%rbp),%rax
    e919:	48 89 85 80 fc ff ff 	mov    %rax,-0x380(%rbp)
    e920:	48 8d 85 50 e1 ff ff 	lea    -0x1eb0(%rbp),%rax
    e927:	48 89 85 88 fc ff ff 	mov    %rax,-0x378(%rbp)
    e92e:	48 8d 85 50 e1 ff ff 	lea    -0x1eb0(%rbp),%rax
    e935:	48 89 85 90 fc ff ff 	mov    %rax,-0x370(%rbp)
    e93c:	48 8d 85 50 e1 ff ff 	lea    -0x1eb0(%rbp),%rax
    e943:	48 89 85 98 fc ff ff 	mov    %rax,-0x368(%rbp)
    e94a:	48 8d 85 50 e1 ff ff 	lea    -0x1eb0(%rbp),%rax
    e951:	48 89 85 a0 fc ff ff 	mov    %rax,-0x360(%rbp)
    e958:	48 8d 85 50 e1 ff ff 	lea    -0x1eb0(%rbp),%rax
    e95f:	48 89 85 a8 fc ff ff 	mov    %rax,-0x358(%rbp)
    e966:	48 8d 85 50 e1 ff ff 	lea    -0x1eb0(%rbp),%rax
    e96d:	48 89 85 b0 fc ff ff 	mov    %rax,-0x350(%rbp)
    e974:	48 8d 85 50 e1 ff ff 	lea    -0x1eb0(%rbp),%rax
    e97b:	48 89 85 b8 fc ff ff 	mov    %rax,-0x348(%rbp)
    e982:	48 8d 85 50 e1 ff ff 	lea    -0x1eb0(%rbp),%rax
    e989:	48 89 85 c0 fc ff ff 	mov    %rax,-0x340(%rbp)
    e990:	48 8d 85 50 e1 ff ff 	lea    -0x1eb0(%rbp),%rax
    e997:	48 89 85 c8 fc ff ff 	mov    %rax,-0x338(%rbp)
    e99e:	48 8d 85 50 e1 ff ff 	lea    -0x1eb0(%rbp),%rax
    e9a5:	48 89 85 d0 fc ff ff 	mov    %rax,-0x330(%rbp)
    e9ac:	48 8d 85 50 e1 ff ff 	lea    -0x1eb0(%rbp),%rax
    e9b3:	48 89 85 d8 fc ff ff 	mov    %rax,-0x328(%rbp)
    e9ba:	48 8d 85 50 e1 ff ff 	lea    -0x1eb0(%rbp),%rax
    e9c1:	48 89 85 e0 fc ff ff 	mov    %rax,-0x320(%rbp)
    e9c8:	48 8d 85 50 e1 ff ff 	lea    -0x1eb0(%rbp),%rax
    e9cf:	48 89 85 e8 fc ff ff 	mov    %rax,-0x318(%rbp)
    e9d6:	48 8d 85 50 e1 ff ff 	lea    -0x1eb0(%rbp),%rax
    e9dd:	48 89 85 f0 fc ff ff 	mov    %rax,-0x310(%rbp)
    e9e4:	48 8d 85 50 e1 ff ff 	lea    -0x1eb0(%rbp),%rax
    e9eb:	48 89 85 f8 fc ff ff 	mov    %rax,-0x308(%rbp)
    e9f2:	48 8d 85 50 e1 ff ff 	lea    -0x1eb0(%rbp),%rax
    e9f9:	48 89 85 00 fd ff ff 	mov    %rax,-0x300(%rbp)
    ea00:	48 8d 85 50 e1 ff ff 	lea    -0x1eb0(%rbp),%rax
    ea07:	48 89 85 08 fd ff ff 	mov    %rax,-0x2f8(%rbp)
    ea0e:	48 8d 85 50 e1 ff ff 	lea    -0x1eb0(%rbp),%rax
    ea15:	48 89 85 10 fd ff ff 	mov    %rax,-0x2f0(%rbp)
    ea1c:	48 8d 85 50 e1 ff ff 	lea    -0x1eb0(%rbp),%rax
    ea23:	48 89 85 18 fd ff ff 	mov    %rax,-0x2e8(%rbp)
    ea2a:	48 8d 85 50 e1 ff ff 	lea    -0x1eb0(%rbp),%rax
    ea31:	48 89 85 20 fd ff ff 	mov    %rax,-0x2e0(%rbp)
    ea38:	48 8d 85 50 e1 ff ff 	lea    -0x1eb0(%rbp),%rax
    ea3f:	48 89 85 28 fd ff ff 	mov    %rax,-0x2d8(%rbp)
    ea46:	48 8d 85 50 e1 ff ff 	lea    -0x1eb0(%rbp),%rax
    ea4d:	48 89 85 30 fd ff ff 	mov    %rax,-0x2d0(%rbp)
    ea54:	48 8d 85 50 e1 ff ff 	lea    -0x1eb0(%rbp),%rax
    ea5b:	48 89 85 38 fd ff ff 	mov    %rax,-0x2c8(%rbp)
    ea62:	48 8d 85 50 e1 ff ff 	lea    -0x1eb0(%rbp),%rax
    ea69:	48 89 85 40 fd ff ff 	mov    %rax,-0x2c0(%rbp)
    ea70:	48 8d 85 50 e1 ff ff 	lea    -0x1eb0(%rbp),%rax
    ea77:	48 89 85 48 fd ff ff 	mov    %rax,-0x2b8(%rbp)
    ea7e:	48 8d 85 50 e1 ff ff 	lea    -0x1eb0(%rbp),%rax
    ea85:	48 89 85 50 fd ff ff 	mov    %rax,-0x2b0(%rbp)
    ea8c:	48 8d 85 50 e1 ff ff 	lea    -0x1eb0(%rbp),%rax
    ea93:	48 89 85 58 fd ff ff 	mov    %rax,-0x2a8(%rbp)
    ea9a:	48 8d 85 50 e1 ff ff 	lea    -0x1eb0(%rbp),%rax
    eaa1:	48 89 85 60 fd ff ff 	mov    %rax,-0x2a0(%rbp)
    eaa8:	48 8d 85 50 e1 ff ff 	lea    -0x1eb0(%rbp),%rax
    eaaf:	48 89 85 68 fd ff ff 	mov    %rax,-0x298(%rbp)
    eab6:	48 8d 85 50 e1 ff ff 	lea    -0x1eb0(%rbp),%rax
    eabd:	48 89 85 70 fd ff ff 	mov    %rax,-0x290(%rbp)
    eac4:	48 8d 85 50 e1 ff ff 	lea    -0x1eb0(%rbp),%rax
    eacb:	48 89 85 78 fd ff ff 	mov    %rax,-0x288(%rbp)
    ead2:	48 8d 85 50 e1 ff ff 	lea    -0x1eb0(%rbp),%rax
    ead9:	48 89 85 80 fd ff ff 	mov    %rax,-0x280(%rbp)
    eae0:	48 8d 85 50 e1 ff ff 	lea    -0x1eb0(%rbp),%rax
    eae7:	48 89 85 88 fd ff ff 	mov    %rax,-0x278(%rbp)
    eaee:	48 8d 85 50 e1 ff ff 	lea    -0x1eb0(%rbp),%rax
    eaf5:	48 89 85 90 fd ff ff 	mov    %rax,-0x270(%rbp)
    eafc:	48 8d 85 50 e1 ff ff 	lea    -0x1eb0(%rbp),%rax
    eb03:	48 89 85 98 fd ff ff 	mov    %rax,-0x268(%rbp)
    eb0a:	48 8d 85 50 e1 ff ff 	lea    -0x1eb0(%rbp),%rax
    eb11:	48 89 85 a0 fd ff ff 	mov    %rax,-0x260(%rbp)
    eb18:	48 8d 85 50 e1 ff ff 	lea    -0x1eb0(%rbp),%rax
    eb1f:	48 89 85 a8 fd ff ff 	mov    %rax,-0x258(%rbp)
    eb26:	48 8d 85 50 e1 ff ff 	lea    -0x1eb0(%rbp),%rax
    eb2d:	48 89 85 b0 fd ff ff 	mov    %rax,-0x250(%rbp)
    eb34:	48 8d 85 50 e1 ff ff 	lea    -0x1eb0(%rbp),%rax
    eb3b:	48 89 85 b8 fd ff ff 	mov    %rax,-0x248(%rbp)
    eb42:	48 8d 85 50 e1 ff ff 	lea    -0x1eb0(%rbp),%rax
    eb49:	48 89 85 c0 fd ff ff 	mov    %rax,-0x240(%rbp)
    eb50:	48 8d 85 50 e1 ff ff 	lea    -0x1eb0(%rbp),%rax
    eb57:	48 89 85 c8 fd ff ff 	mov    %rax,-0x238(%rbp)
    eb5e:	48 8d 85 50 e1 ff ff 	lea    -0x1eb0(%rbp),%rax
    eb65:	48 89 85 d0 fd ff ff 	mov    %rax,-0x230(%rbp)
    eb6c:	48 8d 85 50 e1 ff ff 	lea    -0x1eb0(%rbp),%rax
    eb73:	48 89 85 d8 fd ff ff 	mov    %rax,-0x228(%rbp)
    eb7a:	48 8d 85 50 e1 ff ff 	lea    -0x1eb0(%rbp),%rax
    eb81:	48 89 85 e0 fd ff ff 	mov    %rax,-0x220(%rbp)
    eb88:	48 8d 85 50 e1 ff ff 	lea    -0x1eb0(%rbp),%rax
    eb8f:	48 89 85 e8 fd ff ff 	mov    %rax,-0x218(%rbp)
    eb96:	48 8d 85 50 e1 ff ff 	lea    -0x1eb0(%rbp),%rax
    eb9d:	48 89 85 f0 fd ff ff 	mov    %rax,-0x210(%rbp)
    eba4:	48 8d 85 50 e1 ff ff 	lea    -0x1eb0(%rbp),%rax
    ebab:	48 89 85 f8 fd ff ff 	mov    %rax,-0x208(%rbp)
    ebb2:	48 8d 85 50 e1 ff ff 	lea    -0x1eb0(%rbp),%rax
    ebb9:	48 89 85 00 fe ff ff 	mov    %rax,-0x200(%rbp)
    ebc0:	48 8d 85 50 e1 ff ff 	lea    -0x1eb0(%rbp),%rax
    ebc7:	48 89 85 08 fe ff ff 	mov    %rax,-0x1f8(%rbp)
    ebce:	48 8d 85 50 e1 ff ff 	lea    -0x1eb0(%rbp),%rax
    ebd5:	48 89 85 10 fe ff ff 	mov    %rax,-0x1f0(%rbp)
    ebdc:	48 8d 85 50 e1 ff ff 	lea    -0x1eb0(%rbp),%rax
    ebe3:	48 89 85 18 fe ff ff 	mov    %rax,-0x1e8(%rbp)
    ebea:	48 8d 85 50 e1 ff ff 	lea    -0x1eb0(%rbp),%rax
    ebf1:	48 89 85 20 fe ff ff 	mov    %rax,-0x1e0(%rbp)
    ebf8:	48 8d 85 50 e1 ff ff 	lea    -0x1eb0(%rbp),%rax
    ebff:	48 89 85 28 fe ff ff 	mov    %rax,-0x1d8(%rbp)
    ec06:	48 8d 85 50 e1 ff ff 	lea    -0x1eb0(%rbp),%rax
    ec0d:	48 89 85 30 fe ff ff 	mov    %rax,-0x1d0(%rbp)
    ec14:	48 8d 85 50 e1 ff ff 	lea    -0x1eb0(%rbp),%rax
    ec1b:	48 89 85 38 fe ff ff 	mov    %rax,-0x1c8(%rbp)
    ec22:	48 8d 85 50 e1 ff ff 	lea    -0x1eb0(%rbp),%rax
    ec29:	48 89 85 40 fe ff ff 	mov    %rax,-0x1c0(%rbp)
    ec30:	48 8d 85 50 e1 ff ff 	lea    -0x1eb0(%rbp),%rax
    ec37:	48 89 85 48 fe ff ff 	mov    %rax,-0x1b8(%rbp)
    ec3e:	48 8d 85 50 e1 ff ff 	lea    -0x1eb0(%rbp),%rax
    ec45:	48 89 85 50 fe ff ff 	mov    %rax,-0x1b0(%rbp)
    ec4c:	48 8d 85 50 e1 ff ff 	lea    -0x1eb0(%rbp),%rax
    ec53:	48 89 85 58 fe ff ff 	mov    %rax,-0x1a8(%rbp)
    ec5a:	48 8d 85 50 e1 ff ff 	lea    -0x1eb0(%rbp),%rax
    ec61:	48 89 85 60 fe ff ff 	mov    %rax,-0x1a0(%rbp)
    ec68:	48 8d 85 50 e1 ff ff 	lea    -0x1eb0(%rbp),%rax
    ec6f:	48 89 85 68 fe ff ff 	mov    %rax,-0x198(%rbp)
    ec76:	48 8d 85 50 e1 ff ff 	lea    -0x1eb0(%rbp),%rax
    ec7d:	48 89 85 70 fe ff ff 	mov    %rax,-0x190(%rbp)
    ec84:	48 8d 85 50 e1 ff ff 	lea    -0x1eb0(%rbp),%rax
    ec8b:	48 89 85 78 fe ff ff 	mov    %rax,-0x188(%rbp)
    ec92:	48 8d 85 50 e1 ff ff 	lea    -0x1eb0(%rbp),%rax
    ec99:	48 89 85 80 fe ff ff 	mov    %rax,-0x180(%rbp)
    eca0:	48 8d 85 50 e1 ff ff 	lea    -0x1eb0(%rbp),%rax
    eca7:	48 89 85 88 fe ff ff 	mov    %rax,-0x178(%rbp)
    ecae:	48 8d 85 50 e1 ff ff 	lea    -0x1eb0(%rbp),%rax
    ecb5:	48 89 85 90 fe ff ff 	mov    %rax,-0x170(%rbp)
    ecbc:	48 8d 85 50 e1 ff ff 	lea    -0x1eb0(%rbp),%rax
    ecc3:	48 89 85 98 fe ff ff 	mov    %rax,-0x168(%rbp)
    ecca:	48 8d 85 50 e1 ff ff 	lea    -0x1eb0(%rbp),%rax
    ecd1:	48 89 85 a0 fe ff ff 	mov    %rax,-0x160(%rbp)
    ecd8:	48 8d 85 50 e1 ff ff 	lea    -0x1eb0(%rbp),%rax
    ecdf:	48 89 85 a8 fe ff ff 	mov    %rax,-0x158(%rbp)
    ece6:	48 8d 85 50 e1 ff ff 	lea    -0x1eb0(%rbp),%rax
    eced:	48 89 85 b0 fe ff ff 	mov    %rax,-0x150(%rbp)
    ecf4:	48 8d 85 50 e1 ff ff 	lea    -0x1eb0(%rbp),%rax
    ecfb:	48 89 85 b8 fe ff ff 	mov    %rax,-0x148(%rbp)
    ed02:	48 8d 85 50 e1 ff ff 	lea    -0x1eb0(%rbp),%rax
    ed09:	48 89 85 c0 fe ff ff 	mov    %rax,-0x140(%rbp)
    ed10:	48 8d 85 50 e1 ff ff 	lea    -0x1eb0(%rbp),%rax
    ed17:	48 89 85 c8 fe ff ff 	mov    %rax,-0x138(%rbp)
    ed1e:	48 8d 85 50 e1 ff ff 	lea    -0x1eb0(%rbp),%rax
    ed25:	48 89 85 d0 fe ff ff 	mov    %rax,-0x130(%rbp)
    ed2c:	48 8d 85 50 e1 ff ff 	lea    -0x1eb0(%rbp),%rax
    ed33:	48 89 85 d8 fe ff ff 	mov    %rax,-0x128(%rbp)
    ed3a:	48 8d 85 50 e1 ff ff 	lea    -0x1eb0(%rbp),%rax
    ed41:	48 89 85 e0 fe ff ff 	mov    %rax,-0x120(%rbp)
    ed48:	48 c7 85 e8 fe ff ff 	movq   $0x0,-0x118(%rbp)
    ed4f:	00 00 00 00 
    ed53:	48 8d 85 50 e1 ff ff 	lea    -0x1eb0(%rbp),%rax
    ed5a:	48 89 85 f0 fe ff ff 	mov    %rax,-0x110(%rbp)
    ed61:	48 8d 85 50 e1 ff ff 	lea    -0x1eb0(%rbp),%rax
    ed68:	48 89 85 f8 fe ff ff 	mov    %rax,-0x108(%rbp)
    ed6f:	48 8d 85 50 e1 ff ff 	lea    -0x1eb0(%rbp),%rax
    ed76:	48 89 85 00 ff ff ff 	mov    %rax,-0x100(%rbp)
    ed7d:	48 8d 85 50 e1 ff ff 	lea    -0x1eb0(%rbp),%rax
    ed84:	48 89 85 08 ff ff ff 	mov    %rax,-0xf8(%rbp)
    ed8b:	48 8d 85 50 e1 ff ff 	lea    -0x1eb0(%rbp),%rax
    ed92:	48 89 85 10 ff ff ff 	mov    %rax,-0xf0(%rbp)
    ed99:	48 c7 85 18 ff ff ff 	movq   $0x0,-0xe8(%rbp)
    eda0:	00 00 00 00 
    eda4:	48 8d 85 50 e1 ff ff 	lea    -0x1eb0(%rbp),%rax
    edab:	48 89 85 20 ff ff ff 	mov    %rax,-0xe0(%rbp)
    edb2:	48 8d 85 50 e1 ff ff 	lea    -0x1eb0(%rbp),%rax
    edb9:	48 89 85 28 ff ff ff 	mov    %rax,-0xd8(%rbp)
    edc0:	48 8d 85 50 e1 ff ff 	lea    -0x1eb0(%rbp),%rax
    edc7:	48 89 85 30 ff ff ff 	mov    %rax,-0xd0(%rbp)
    edce:	48 8d 85 50 e1 ff ff 	lea    -0x1eb0(%rbp),%rax
    edd5:	48 89 85 38 ff ff ff 	mov    %rax,-0xc8(%rbp)
    eddc:	48 8d 85 50 e1 ff ff 	lea    -0x1eb0(%rbp),%rax
    ede3:	48 89 85 40 ff ff ff 	mov    %rax,-0xc0(%rbp)
    edea:	48 c7 85 48 ff ff ff 	movq   $0x0,-0xb8(%rbp)
    edf1:	00 00 00 00 
    edf5:	48 8d 85 50 e1 ff ff 	lea    -0x1eb0(%rbp),%rax
    edfc:	48 89 85 50 ff ff ff 	mov    %rax,-0xb0(%rbp)
    ee03:	48 8d 85 50 e1 ff ff 	lea    -0x1eb0(%rbp),%rax
    ee0a:	48 89 85 58 ff ff ff 	mov    %rax,-0xa8(%rbp)
    ee11:	48 8d 85 50 e1 ff ff 	lea    -0x1eb0(%rbp),%rax
    ee18:	48 89 85 60 ff ff ff 	mov    %rax,-0xa0(%rbp)
    ee1f:	48 8d 85 50 e1 ff ff 	lea    -0x1eb0(%rbp),%rax
    ee26:	48 89 85 68 ff ff ff 	mov    %rax,-0x98(%rbp)
    ee2d:	48 8d 85 50 e1 ff ff 	lea    -0x1eb0(%rbp),%rax
    ee34:	48 89 85 70 ff ff ff 	mov    %rax,-0x90(%rbp)
    ee3b:	48 c7 85 78 ff ff ff 	movq   $0x0,-0x88(%rbp)
    ee42:	00 00 00 00 
    ee46:	48 8d 85 50 e1 ff ff 	lea    -0x1eb0(%rbp),%rax
    ee4d:	48 89 45 80          	mov    %rax,-0x80(%rbp)
    ee51:	48 8d 85 50 e1 ff ff 	lea    -0x1eb0(%rbp),%rax
    ee58:	48 89 45 88          	mov    %rax,-0x78(%rbp)
    ee5c:	48 8d 85 50 e1 ff ff 	lea    -0x1eb0(%rbp),%rax
    ee63:	48 89 45 90          	mov    %rax,-0x70(%rbp)
    ee67:	48 8d 85 50 e1 ff ff 	lea    -0x1eb0(%rbp),%rax
    ee6e:	48 89 45 98          	mov    %rax,-0x68(%rbp)
    ee72:	48 8d 85 50 e1 ff ff 	lea    -0x1eb0(%rbp),%rax
    ee79:	48 89 45 a0          	mov    %rax,-0x60(%rbp)
    ee7d:	48 c7 45 a8 00 00 00 	movq   $0x0,-0x58(%rbp)
    ee84:	00 
    ee85:	48 8d 85 50 e1 ff ff 	lea    -0x1eb0(%rbp),%rax
    ee8c:	48 89 45 b0          	mov    %rax,-0x50(%rbp)
    ee90:	48 8d 85 50 e1 ff ff 	lea    -0x1eb0(%rbp),%rax
    ee97:	48 89 45 b8          	mov    %rax,-0x48(%rbp)
    ee9b:	48 8d 85 80 f9 ff ff 	lea    -0x680(%rbp),%rax
    eea2:	48 05 60 03 00 00    	add    $0x360,%rax
    eea8:	48 89 85 58 e1 ff ff 	mov    %rax,-0x1ea8(%rbp)
    eeaf:	48 8d 85 58 e1 ff ff 	lea    -0x1ea8(%rbp),%rax
    eeb6:	48 89 85 f8 e1 ff ff 	mov    %rax,-0x1e08(%rbp)
    eebd:	48 8d 05 26 e6 00 00 	lea    0xe626(%rip),%rax        # 1d4ea <g_1337>
    eec4:	48 89 85 00 e2 ff ff 	mov    %rax,-0x1e00(%rbp)
    eecb:	66 c7 85 4c e0 ff ff 	movw   $0x1,-0x1fb4(%rbp)
    eed2:	01 00 
    eed4:	c7 85 74 e0 ff ff 3b 	movl   $0xf27e213b,-0x1f8c(%rbp)
    eedb:	21 7e f2 
    eede:	66 c7 85 4e e0 ff ff 	movw   $0x1,-0x1fb2(%rbp)
    eee5:	01 00 
    eee7:	66 c7 85 60 e3 ff ff 	movw   $0x46eb,-0x1ca0(%rbp)
    eeee:	eb 46 
    eef0:	66 c7 85 62 e3 ff ff 	movw   $0xc1a7,-0x1c9e(%rbp)
    eef7:	a7 c1 
    eef9:	66 c7 85 64 e3 ff ff 	movw   $0x46eb,-0x1c9c(%rbp)
    ef00:	eb 46 
    ef02:	66 c7 85 66 e3 ff ff 	movw   $0x46eb,-0x1c9a(%rbp)
    ef09:	eb 46 
    ef0b:	66 c7 85 68 e3 ff ff 	movw   $0xc1a7,-0x1c98(%rbp)
    ef12:	a7 c1 
    ef14:	66 c7 85 6a e3 ff ff 	movw   $0x46eb,-0x1c96(%rbp)
    ef1b:	eb 46 
    ef1d:	66 c7 85 6c e3 ff ff 	movw   $0x46eb,-0x1c94(%rbp)
    ef24:	eb 46 
    ef26:	66 c7 85 6e e3 ff ff 	movw   $0xc1a7,-0x1c92(%rbp)
    ef2d:	a7 c1 
    ef2f:	66 c7 85 70 e3 ff ff 	movw   $0x46eb,-0x1c90(%rbp)
    ef36:	eb 46 
    ef38:	48 c7 85 60 e1 ff ff 	movq   $0x0,-0x1ea0(%rbp)
    ef3f:	00 00 00 00 
    ef43:	48 8d 85 60 e1 ff ff 	lea    -0x1ea0(%rbp),%rax
    ef4a:	48 89 85 a0 e5 ff ff 	mov    %rax,-0x1a60(%rbp)
    ef51:	48 8d 85 60 e1 ff ff 	lea    -0x1ea0(%rbp),%rax
    ef58:	48 89 85 a8 e5 ff ff 	mov    %rax,-0x1a58(%rbp)
    ef5f:	48 8d 85 60 e1 ff ff 	lea    -0x1ea0(%rbp),%rax
    ef66:	48 89 85 b0 e5 ff ff 	mov    %rax,-0x1a50(%rbp)
    ef6d:	48 8d 85 60 e1 ff ff 	lea    -0x1ea0(%rbp),%rax
    ef74:	48 89 85 b8 e5 ff ff 	mov    %rax,-0x1a48(%rbp)
    ef7b:	48 8d 85 60 e1 ff ff 	lea    -0x1ea0(%rbp),%rax
    ef82:	48 89 85 c0 e5 ff ff 	mov    %rax,-0x1a40(%rbp)
    ef89:	48 8d 85 60 e1 ff ff 	lea    -0x1ea0(%rbp),%rax
    ef90:	48 89 85 c8 e5 ff ff 	mov    %rax,-0x1a38(%rbp)
    ef97:	48 8d 85 60 e1 ff ff 	lea    -0x1ea0(%rbp),%rax
    ef9e:	48 89 85 d0 e5 ff ff 	mov    %rax,-0x1a30(%rbp)
    efa5:	48 8d 85 60 e1 ff ff 	lea    -0x1ea0(%rbp),%rax
    efac:	48 89 85 d8 e5 ff ff 	mov    %rax,-0x1a28(%rbp)
    efb3:	48 8d 85 60 e1 ff ff 	lea    -0x1ea0(%rbp),%rax
    efba:	48 89 85 e0 e5 ff ff 	mov    %rax,-0x1a20(%rbp)
    efc1:	48 8d 85 60 e1 ff ff 	lea    -0x1ea0(%rbp),%rax
    efc8:	48 89 85 e8 e5 ff ff 	mov    %rax,-0x1a18(%rbp)
    efcf:	c7 85 a0 e0 ff ff 3b 	movl   $0xe922093b,-0x1f60(%rbp)
    efd6:	09 22 e9 
    efd9:	48 c7 85 08 e2 ff ff 	movq   $0x0,-0x1df8(%rbp)
    efe0:	00 00 00 00 
    efe4:	c7 85 a4 e0 ff ff f9 	movl   $0x922567f9,-0x1f5c(%rbp)
    efeb:	67 25 92 
    efee:	48 8d 85 20 e1 ff ff 	lea    -0x1ee0(%rbp),%rax
    eff5:	48 89 85 20 e4 ff ff 	mov    %rax,-0x1be0(%rbp)
    effc:	48 c7 85 28 e4 ff ff 	movq   $0x0,-0x1bd8(%rbp)
    f003:	00 00 00 00 
    f007:	48 8d 85 20 e1 ff ff 	lea    -0x1ee0(%rbp),%rax
    f00e:	48 89 85 30 e4 ff ff 	mov    %rax,-0x1bd0(%rbp)
    f015:	48 c7 85 38 e4 ff ff 	movq   $0x0,-0x1bc8(%rbp)
    f01c:	00 00 00 00 
    f020:	48 8d 85 20 e1 ff ff 	lea    -0x1ee0(%rbp),%rax
    f027:	48 89 85 40 e4 ff ff 	mov    %rax,-0x1bc0(%rbp)
    f02e:	48 c7 85 48 e4 ff ff 	movq   $0x0,-0x1bb8(%rbp)
    f035:	00 00 00 00 
    f039:	48 8d 85 20 e1 ff ff 	lea    -0x1ee0(%rbp),%rax
    f040:	48 89 85 50 e4 ff ff 	mov    %rax,-0x1bb0(%rbp)
    f047:	c7 85 a8 e0 ff ff d8 	movl   $0x291810d8,-0x1f58(%rbp)
    f04e:	10 18 29 
    f051:	48 c7 85 68 e1 ff ff 	movq   $0x0,-0x1e98(%rbp)
    f058:	00 00 00 00 
    f05c:	66 c7 85 50 e3 ff ff 	movw   $0x1,-0x1cb0(%rbp)
    f063:	01 00 
    f065:	66 c7 85 52 e3 ff ff 	movw   $0x1,-0x1cae(%rbp)
    f06c:	01 00 
    f06e:	66 c7 85 54 e3 ff ff 	movw   $0x1,-0x1cac(%rbp)
    f075:	01 00 
    f077:	66 c7 85 56 e3 ff ff 	movw   $0x1,-0x1caa(%rbp)
    f07e:	01 00 
    f080:	66 c7 85 58 e3 ff ff 	movw   $0x1,-0x1ca8(%rbp)
    f087:	01 00 
    f089:	66 c7 85 5a e3 ff ff 	movw   $0x1,-0x1ca6(%rbp)
    f090:	01 00 
    f092:	66 c7 85 5c e3 ff ff 	movw   $0x1,-0x1ca4(%rbp)
    f099:	01 00 
    f09b:	66 c7 85 5e e3 ff ff 	movw   $0x1,-0x1ca2(%rbp)
    f0a2:	01 00 
    f0a4:	c7 85 ac e0 ff ff 2d 	movl   $0xd7e22b2d,-0x1f54(%rbp)
    f0ab:	2b e2 d7 
    f0ae:	c7 85 b0 e0 ff ff d5 	movl   $0xdf2b2ed5,-0x1f50(%rbp)
    f0b5:	2e 2b df 
    f0b8:	c7 85 b4 e0 ff ff 01 	movl   $0x1,-0x1f4c(%rbp)
    f0bf:	00 00 00 
    f0c2:	48 8d 85 68 e1 ff ff 	lea    -0x1e98(%rbp),%rax
    f0c9:	48 89 85 10 e2 ff ff 	mov    %rax,-0x1df0(%rbp)
    f0d0:	66 c7 05 57 cf 00 00 	movw   $0x17,0xcf57(%rip)        # 1c030 <g_96>
    f0d7:	17 00 
    f0d9:	e9 29 0d 00 00       	jmpq   fe07 <func_1+0x2652>
    f0de:	48 b8 b3 82 a0 e6 cc 	movabs $0x51b230cce6a082b3,%rax
    f0e5:	30 b2 51 
    f0e8:	48 89 85 78 e2 ff ff 	mov    %rax,-0x1d88(%rbp)
    f0ef:	c7 85 d8 e0 ff ff 05 	movl   $0x5,-0x1f28(%rbp)
    f0f6:	00 00 00 
    f0f9:	c7 85 dc e0 ff ff 01 	movl   $0x1,-0x1f24(%rbp)
    f100:	00 00 00 
    f103:	c7 85 e0 e0 ff ff c7 	movl   $0x2958bcc7,-0x1f20(%rbp)
    f10a:	bc 58 29 
    f10d:	48 b8 8d a2 06 7f 71 	movabs $0x4d452e717f06a28d,%rax
    f114:	2e 45 4d 
    f117:	48 89 85 80 e2 ff ff 	mov    %rax,-0x1d80(%rbp)
    f11e:	c7 85 e4 e0 ff ff f8 	movl   $0xfffffff8,-0x1f1c(%rbp)
    f125:	ff ff ff 
    f128:	c7 85 e8 e0 ff ff 00 	movl   $0x0,-0x1f18(%rbp)
    f12f:	00 00 00 
    f132:	c7 85 ec e0 ff ff f7 	movl   $0x2ee42cf7,-0x1f14(%rbp)
    f139:	2c e4 2e 
    f13c:	48 c7 85 70 e1 ff ff 	movq   $0x0,-0x1e90(%rbp)
    f143:	00 00 00 00 
    f147:	48 8d 85 70 e1 ff ff 	lea    -0x1e90(%rbp),%rax
    f14e:	48 89 85 88 e2 ff ff 	mov    %rax,-0x1d78(%rbp)
    f155:	c6 85 3c e0 ff ff 85 	movb   $0x85,-0x1fc4(%rbp)
    f15c:	48 c7 85 90 e2 ff ff 	movq   $0x0,-0x1d70(%rbp)
    f163:	00 00 00 00 
    f167:	48 c7 85 78 e1 ff ff 	movq   $0x0,-0x1e88(%rbp)
    f16e:	00 00 00 00 
    f172:	48 8d 85 78 e1 ff ff 	lea    -0x1e88(%rbp),%rax
    f179:	48 89 85 80 e1 ff ff 	mov    %rax,-0x1e80(%rbp)
    f180:	48 8d 85 80 e1 ff ff 	lea    -0x1e80(%rbp),%rax
    f187:	48 89 85 88 e1 ff ff 	mov    %rax,-0x1e78(%rbp)
    f18e:	48 8d 85 88 e1 ff ff 	lea    -0x1e78(%rbp),%rax
    f195:	48 89 85 c0 e3 ff ff 	mov    %rax,-0x1c40(%rbp)
    f19c:	48 8d 85 88 e1 ff ff 	lea    -0x1e78(%rbp),%rax
    f1a3:	48 89 85 c8 e3 ff ff 	mov    %rax,-0x1c38(%rbp)
    f1aa:	48 8d 85 88 e1 ff ff 	lea    -0x1e78(%rbp),%rax
    f1b1:	48 89 85 d0 e3 ff ff 	mov    %rax,-0x1c30(%rbp)
    f1b8:	48 8d 85 88 e1 ff ff 	lea    -0x1e78(%rbp),%rax
    f1bf:	48 89 85 d8 e3 ff ff 	mov    %rax,-0x1c28(%rbp)
    f1c6:	48 8d 85 88 e1 ff ff 	lea    -0x1e78(%rbp),%rax
    f1cd:	48 89 85 e0 e3 ff ff 	mov    %rax,-0x1c20(%rbp)
    f1d4:	48 8d 85 20 ea ff ff 	lea    -0x15e0(%rbp),%rax
    f1db:	48 8d 15 be f0 00 00 	lea    0xf0be(%rip),%rdx        # 1e2a0 <g_2335+0x5bc>
    f1e2:	b9 54 00 00 00       	mov    $0x54,%ecx
    f1e7:	48 89 c7             	mov    %rax,%rdi
    f1ea:	48 89 d6             	mov    %rdx,%rsi
    f1ed:	f3 48 a5             	rep movsq %ds:(%rsi),%es:(%rdi)
    f1f0:	66 c7 85 40 e0 ff ff 	movw   $0x1,-0x1fc0(%rbp)
    f1f7:	01 00 
    f1f9:	c7 85 78 e0 ff ff 00 	movl   $0x0,-0x1f88(%rbp)
    f200:	00 00 00 
    f203:	eb 1b                	jmp    f220 <func_1+0x1a6b>
    f205:	8b 85 78 e0 ff ff    	mov    -0x1f88(%rbp),%eax
    f20b:	48 98                	cltq   
    f20d:	48 c7 84 c5 b0 e4 ff 	movq   $0x0,-0x1b50(%rbp,%rax,8)
    f214:	ff 00 00 00 00 
    f219:	83 85 78 e0 ff ff 01 	addl   $0x1,-0x1f88(%rbp)
    f220:	83 bd 78 e0 ff ff 08 	cmpl   $0x8,-0x1f88(%rbp)
    f227:	7e dc                	jle    f205 <func_1+0x1a50>
    f229:	83 85 ec e0 ff ff 01 	addl   $0x1,-0x1f14(%rbp)
    f230:	48 8b 05 31 26 01 00 	mov    0x12631(%rip),%rax        # 21868 <g_1773>
    f237:	48 89 05 2a 26 01 00 	mov    %rax,0x1262a(%rip)        # 21868 <g_1773>
    f23e:	c7 05 a0 3a 01 00 00 	movl   $0x0,0x13aa0(%rip)        # 22ce8 <g_55>
    f245:	00 00 00 
    f248:	e9 87 0b 00 00       	jmpq   fdd4 <func_1+0x261f>
    f24d:	c6 85 3d e0 ff ff 13 	movb   $0x13,-0x1fc3(%rbp)
    f254:	48 c7 85 98 e2 ff ff 	movq   $0x0,-0x1d68(%rbp)
    f25b:	00 00 00 00 
    f25f:	48 8d 85 10 e1 ff ff 	lea    -0x1ef0(%rbp),%rax
    f266:	48 89 85 90 e1 ff ff 	mov    %rax,-0x1e70(%rbp)
    f26d:	48 c7 85 20 e8 ff ff 	movq   $0x0,-0x17e0(%rbp)
    f274:	00 00 00 00 
    f278:	48 8d 85 90 e1 ff ff 	lea    -0x1e70(%rbp),%rax
    f27f:	48 89 85 28 e8 ff ff 	mov    %rax,-0x17d8(%rbp)
    f286:	48 c7 85 30 e8 ff ff 	movq   $0x0,-0x17d0(%rbp)
    f28d:	00 00 00 00 
    f291:	48 c7 85 38 e8 ff ff 	movq   $0x0,-0x17c8(%rbp)
    f298:	00 00 00 00 
    f29c:	48 8d 85 90 e1 ff ff 	lea    -0x1e70(%rbp),%rax
    f2a3:	48 89 85 40 e8 ff ff 	mov    %rax,-0x17c0(%rbp)
    f2aa:	48 8d 85 90 e1 ff ff 	lea    -0x1e70(%rbp),%rax
    f2b1:	48 89 85 48 e8 ff ff 	mov    %rax,-0x17b8(%rbp)
    f2b8:	48 8d 85 90 e1 ff ff 	lea    -0x1e70(%rbp),%rax
    f2bf:	48 89 85 50 e8 ff ff 	mov    %rax,-0x17b0(%rbp)
    f2c6:	48 8d 85 90 e1 ff ff 	lea    -0x1e70(%rbp),%rax
    f2cd:	48 89 85 58 e8 ff ff 	mov    %rax,-0x17a8(%rbp)
    f2d4:	48 8d 85 90 e1 ff ff 	lea    -0x1e70(%rbp),%rax
    f2db:	48 89 85 60 e8 ff ff 	mov    %rax,-0x17a0(%rbp)
    f2e2:	48 8d 85 90 e1 ff ff 	lea    -0x1e70(%rbp),%rax
    f2e9:	48 89 85 68 e8 ff ff 	mov    %rax,-0x1798(%rbp)
    f2f0:	48 8d 85 90 e1 ff ff 	lea    -0x1e70(%rbp),%rax
    f2f7:	48 89 85 70 e8 ff ff 	mov    %rax,-0x1790(%rbp)
    f2fe:	48 8d 85 90 e1 ff ff 	lea    -0x1e70(%rbp),%rax
    f305:	48 89 85 78 e8 ff ff 	mov    %rax,-0x1788(%rbp)
    f30c:	48 c7 85 80 e8 ff ff 	movq   $0x0,-0x1780(%rbp)
    f313:	00 00 00 00 
    f317:	48 8d 85 90 e1 ff ff 	lea    -0x1e70(%rbp),%rax
    f31e:	48 89 85 88 e8 ff ff 	mov    %rax,-0x1778(%rbp)
    f325:	48 8d 85 90 e1 ff ff 	lea    -0x1e70(%rbp),%rax
    f32c:	48 89 85 90 e8 ff ff 	mov    %rax,-0x1770(%rbp)
    f333:	48 8d 85 90 e1 ff ff 	lea    -0x1e70(%rbp),%rax
    f33a:	48 89 85 98 e8 ff ff 	mov    %rax,-0x1768(%rbp)
    f341:	48 8d 85 90 e1 ff ff 	lea    -0x1e70(%rbp),%rax
    f348:	48 89 85 a0 e8 ff ff 	mov    %rax,-0x1760(%rbp)
    f34f:	48 8d 85 90 e1 ff ff 	lea    -0x1e70(%rbp),%rax
    f356:	48 89 85 a8 e8 ff ff 	mov    %rax,-0x1758(%rbp)
    f35d:	48 8d 85 90 e1 ff ff 	lea    -0x1e70(%rbp),%rax
    f364:	48 89 85 b0 e8 ff ff 	mov    %rax,-0x1750(%rbp)
    f36b:	48 8d 85 90 e1 ff ff 	lea    -0x1e70(%rbp),%rax
    f372:	48 89 85 b8 e8 ff ff 	mov    %rax,-0x1748(%rbp)
    f379:	48 8d 05 90 3a 01 00 	lea    0x13a90(%rip),%rax        # 22e10 <g_1871>
    f380:	48 89 85 a0 e2 ff ff 	mov    %rax,-0x1d60(%rbp)
    f387:	48 8d 85 20 f0 ff ff 	lea    -0xfe0(%rbp),%rax
    f38e:	48 8d 15 2b 90 00 00 	lea    0x902b(%rip),%rdx        # 183c0 <g_2177+0x364>
    f395:	b9 64 00 00 00       	mov    $0x64,%ecx
    f39a:	48 89 c7             	mov    %rax,%rdi
    f39d:	48 89 d6             	mov    %rdx,%rsi
    f3a0:	f3 48 a5             	rep movsq %ds:(%rsi),%es:(%rdi)
    f3a3:	48 8d 05 1a e1 00 00 	lea    0xe11a(%rip),%rax        # 1d4c4 <g_998>
    f3aa:	48 89 85 a8 e2 ff ff 	mov    %rax,-0x1d58(%rbp)
    f3b1:	48 8d 05 44 d2 00 00 	lea    0xd244(%rip),%rax        # 1c5fc <g_445>
    f3b8:	48 89 85 b0 e2 ff ff 	mov    %rax,-0x1d50(%rbp)
    f3bf:	48 8d 05 8a cc 00 00 	lea    0xcc8a(%rip),%rax        # 1c050 <g_104+0x10>
    f3c6:	48 89 85 b8 e2 ff ff 	mov    %rax,-0x1d48(%rbp)
    f3cd:	48 8d 85 40 e0 ff ff 	lea    -0x1fc0(%rbp),%rax
    f3d4:	48 89 85 f0 e5 ff ff 	mov    %rax,-0x1a10(%rbp)
    f3db:	48 8d 85 40 e0 ff ff 	lea    -0x1fc0(%rbp),%rax
    f3e2:	48 89 85 f8 e5 ff ff 	mov    %rax,-0x1a08(%rbp)
    f3e9:	48 8d 85 40 e0 ff ff 	lea    -0x1fc0(%rbp),%rax
    f3f0:	48 89 85 00 e6 ff ff 	mov    %rax,-0x1a00(%rbp)
    f3f7:	48 8d 85 40 e0 ff ff 	lea    -0x1fc0(%rbp),%rax
    f3fe:	48 89 85 08 e6 ff ff 	mov    %rax,-0x19f8(%rbp)
    f405:	48 8d 85 40 e0 ff ff 	lea    -0x1fc0(%rbp),%rax
    f40c:	48 89 85 10 e6 ff ff 	mov    %rax,-0x19f0(%rbp)
    f413:	48 8d 85 40 e0 ff ff 	lea    -0x1fc0(%rbp),%rax
    f41a:	48 89 85 18 e6 ff ff 	mov    %rax,-0x19e8(%rbp)
    f421:	48 8d 85 40 e0 ff ff 	lea    -0x1fc0(%rbp),%rax
    f428:	48 89 85 20 e6 ff ff 	mov    %rax,-0x19e0(%rbp)
    f42f:	48 8d 85 40 e0 ff ff 	lea    -0x1fc0(%rbp),%rax
    f436:	48 89 85 28 e6 ff ff 	mov    %rax,-0x19d8(%rbp)
    f43d:	48 8d 85 40 e0 ff ff 	lea    -0x1fc0(%rbp),%rax
    f444:	48 89 85 30 e6 ff ff 	mov    %rax,-0x19d0(%rbp)
    f44b:	48 8d 85 40 e0 ff ff 	lea    -0x1fc0(%rbp),%rax
    f452:	48 89 85 38 e6 ff ff 	mov    %rax,-0x19c8(%rbp)
    f459:	48 8d 85 40 e0 ff ff 	lea    -0x1fc0(%rbp),%rax
    f460:	48 89 85 40 e6 ff ff 	mov    %rax,-0x19c0(%rbp)
    f467:	48 8d 85 40 e0 ff ff 	lea    -0x1fc0(%rbp),%rax
    f46e:	48 89 85 48 e6 ff ff 	mov    %rax,-0x19b8(%rbp)
    f475:	c7 85 f0 e0 ff ff 02 	movl   $0x2,-0x1f10(%rbp)
    f47c:	00 00 00 
    f47f:	c6 85 37 e0 ff ff 00 	movb   $0x0,-0x1fc9(%rbp)
    f486:	80 bd 37 e0 ff ff 0f 	cmpb   $0xf,-0x1fc9(%rbp)
    f48d:	0f 84 94 04 00 00    	je     f927 <func_1+0x2172>
    f493:	66 c7 85 5c e0 ff ff 	movw   $0x2346,-0x1fa4(%rbp)
    f49a:	46 23 
    f49c:	48 8d 85 60 e4 ff ff 	lea    -0x1ba0(%rbp),%rax
    f4a3:	48 83 c0 28          	add    $0x28,%rax
    f4a7:	48 89 85 e8 e2 ff ff 	mov    %rax,-0x1d18(%rbp)
    f4ae:	c7 85 f4 e0 ff ff 55 	movl   $0x76212255,-0x1f0c(%rbp)
    f4b5:	22 21 76 
    f4b8:	c7 85 f8 e0 ff ff 00 	movl   $0x0,-0x1f08(%rbp)
    f4bf:	00 00 00 
    f4c2:	66 c7 85 5e e0 ff ff 	movw   $0xfffc,-0x1fa2(%rbp)
    f4c9:	fc ff 
    f4cb:	c7 85 fc e0 ff ff ff 	movl   $0xffffffff,-0x1f04(%rbp)
    f4d2:	ff ff ff 
    f4d5:	48 8b 85 a0 e1 ff ff 	mov    -0x1e60(%rbp),%rax
    f4dc:	48 8b 00             	mov    (%rax),%rax
    f4df:	48 8b 00             	mov    (%rax),%rax
    f4e2:	0f b7 10             	movzwl (%rax),%edx
    f4e5:	8b 85 b8 e3 ff ff    	mov    -0x1c48(%rbp),%eax
    f4eb:	89 c1                	mov    %eax,%ecx
    f4ed:	48 8b 85 a0 e1 ff ff 	mov    -0x1e60(%rbp),%rax
    f4f4:	48 8b 00             	mov    (%rax),%rax
    f4f7:	48 8b 00             	mov    (%rax),%rax
    f4fa:	21 ca                	and    %ecx,%edx
    f4fc:	66 89 10             	mov    %dx,(%rax)
    f4ff:	0f b7 00             	movzwl (%rax),%eax
    f502:	66 85 c0             	test   %ax,%ax
    f505:	74 66                	je     f56d <func_1+0x1db8>
    f507:	8b 85 b8 e3 ff ff    	mov    -0x1c48(%rbp),%eax
    f50d:	be 01 00 00 00       	mov    $0x1,%esi
    f512:	89 c7                	mov    %eax,%edi
    f514:	e8 ec d0 ff ff       	callq  c605 <safe_sub_func_int32_t_s_s>
    f519:	85 c0                	test   %eax,%eax
    f51b:	0f b7 85 5c e0 ff ff 	movzwl -0x1fa4(%rbp),%eax
    f522:	0f be c0             	movsbl %al,%eax
    f525:	89 c7                	mov    %eax,%edi
    f527:	e8 93 cc ff ff       	callq  c1bf <safe_unary_minus_func_int8_t_s>
    f52c:	83 f0 01             	xor    $0x1,%eax
    f52f:	0f be d0             	movsbl %al,%edx
    f532:	0f bf 85 5c e0 ff ff 	movswl -0x1fa4(%rbp),%eax
    f539:	09 c2                	or     %eax,%edx
    f53b:	48 8b 85 e8 e2 ff ff 	mov    -0x1d18(%rbp),%rax
    f542:	0f b7 00             	movzwl (%rax),%eax
    f545:	89 c1                	mov    %eax,%ecx
    f547:	89 d0                	mov    %edx,%eax
    f549:	09 c8                	or     %ecx,%eax
    f54b:	89 c2                	mov    %eax,%edx
    f54d:	48 8b 85 e8 e2 ff ff 	mov    -0x1d18(%rbp),%rax
    f554:	66 89 10             	mov    %dx,(%rax)
    f557:	48 8b 85 e8 e2 ff ff 	mov    -0x1d18(%rbp),%rax
    f55e:	0f b7 00             	movzwl (%rax),%eax
    f561:	66 85 c0             	test   %ax,%ax
    f564:	74 07                	je     f56d <func_1+0x1db8>
    f566:	ba 01 00 00 00       	mov    $0x1,%edx
    f56b:	eb 05                	jmp    f572 <func_1+0x1dbd>
    f56d:	ba 00 00 00 00       	mov    $0x0,%edx
    f572:	8b 85 b8 e3 ff ff    	mov    -0x1c48(%rbp),%eax
    f578:	39 c2                	cmp    %eax,%edx
    f57a:	0f 8d fc 00 00 00    	jge    f67c <func_1+0x1ec7>
    f580:	48 8d 05 59 1a 01 00 	lea    0x11a59(%rip),%rax        # 20fe0 <g_1150>
    f587:	48 8b 00             	mov    (%rax),%rax
    f58a:	0f b7 00             	movzwl (%rax),%eax
    f58d:	44 0f bf f8          	movswl %ax,%r15d
    f591:	0f b6 05 14 e0 00 00 	movzbl 0xe014(%rip),%eax        # 1d5ac <g_1490>
    f598:	44 0f b6 e8          	movzbl %al,%r13d
    f59c:	48 8b 05 ad de 00 00 	mov    0xdead(%rip),%rax        # 1d450 <g_874+0x10>
    f5a3:	48 c1 e0 04          	shl    $0x4,%rax
    f5a7:	48 c1 f8 35          	sar    $0x35,%rax
    f5ab:	44 0f bf e0          	movswl %ax,%r12d
    f5af:	48 8b 05 2a 16 01 00 	mov    0x1162a(%rip),%rax        # 20be0 <g_610>
    f5b6:	0f b6 00             	movzbl (%rax),%eax
    f5b9:	0f b6 d8             	movzbl %al,%ebx
    f5bc:	80 bd 3c e0 ff ff ea 	cmpb   $0xea,-0x1fc4(%rbp)
    f5c3:	77 76                	ja     f63b <func_1+0x1e86>
    f5c5:	44 0f be b5 3d e0 ff 	movsbl -0x1fc3(%rbp),%r14d
    f5cc:	ff 
    f5cd:	48 8d 05 54 cb 00 00 	lea    0xcb54(%rip),%rax        # 1c128 <g_203>
    f5d4:	48 8b 10             	mov    (%rax),%rdx
    f5d7:	48 0f bf 85 5c e0 ff 	movswq -0x1fa4(%rbp),%rax
    f5de:	ff 
    f5df:	48 89 d6             	mov    %rdx,%rsi
    f5e2:	48 89 c7             	mov    %rax,%rdi
    f5e5:	e8 44 da ff ff       	callq  d02e <safe_add_func_uint64_t_u_u>
    f5ea:	44 89 f6             	mov    %r14d,%esi
    f5ed:	bf 00 00 00 00       	mov    $0x0,%edi
    f5f2:	e8 c1 d8 ff ff       	callq  ceb8 <safe_add_func_uint32_t_u_u>
    f5f7:	89 c2                	mov    %eax,%edx
    f5f9:	48 83 bd 90 e2 ff ff 	cmpq   $0x0,-0x1d70(%rbp)
    f600:	00 
    f601:	0f 94 c0             	sete   %al
    f604:	0f b6 c0             	movzbl %al,%eax
    f607:	89 d6                	mov    %edx,%esi
    f609:	89 c7                	mov    %eax,%edi
    f60b:	e8 7d d6 ff ff       	callq  cc8d <safe_rshift_func_uint8_t_u_s>
    f610:	48 83 bd 98 e2 ff ff 	cmpq   $0x0,-0x1d68(%rbp)
    f617:	00 
    f618:	0f b7 05 07 de 00 00 	movzwl 0xde07(%rip),%eax        # 1d426 <g_828+0x6>
    f61f:	0f b6 15 02 de 00 00 	movzbl 0xde02(%rip),%edx        # 1d428 <g_828+0x8>
    f626:	83 e2 7f             	and    $0x7f,%edx
    f629:	48 c1 e2 10          	shl    $0x10,%rdx
    f62d:	48 09 d0             	or     %rdx,%rax
    f630:	85 c0                	test   %eax,%eax
    f632:	74 07                	je     f63b <func_1+0x1e86>
    f634:	b8 01 00 00 00       	mov    $0x1,%eax
    f639:	eb 05                	jmp    f640 <func_1+0x1e8b>
    f63b:	b8 00 00 00 00       	mov    $0x0,%eax
    f640:	0f b6 c0             	movzbl %al,%eax
    f643:	45 89 f8             	mov    %r15d,%r8d
    f646:	44 89 e9             	mov    %r13d,%ecx
    f649:	44 89 e2             	mov    %r12d,%edx
    f64c:	89 de                	mov    %ebx,%esi
    f64e:	89 c7                	mov    %eax,%edi
    f650:	e8 18 2b 00 00       	callq  1216d <func_25>
    f655:	be ff ff 00 00       	mov    $0xffff,%esi
    f65a:	bf 00 00 00 00       	mov    $0x0,%edi
    f65f:	e8 d9 d6 ff ff       	callq  cd3d <safe_mul_func_uint16_t_u_u>
    f664:	66 85 c0             	test   %ax,%ax
    f667:	0f 94 c0             	sete   %al
    f66a:	88 85 38 e0 ff ff    	mov    %al,-0x1fc8(%rbp)
    f670:	83 ad f4 e0 ff ff 01 	subl   $0x1,-0x1f0c(%rbp)
    f677:	e9 9f 02 00 00       	jmpq   f91b <func_1+0x2166>
    f67c:	48 8d 05 55 de 00 00 	lea    0xde55(%rip),%rax        # 1d4d8 <g_1217>
    f683:	48 89 85 98 e1 ff ff 	mov    %rax,-0x1e68(%rbp)
    f68a:	48 8d 85 98 e1 ff ff 	lea    -0x1e68(%rbp),%rax
    f691:	48 89 85 f0 e2 ff ff 	mov    %rax,-0x1d10(%rbp)
    f698:	c7 85 00 e1 ff ff 01 	movl   $0x1,-0x1f00(%rbp)
    f69f:	00 00 00 
    f6a2:	c6 85 3e e0 ff ff b1 	movb   $0xb1,-0x1fc2(%rbp)
    f6a9:	48 8d 85 60 e4 ff ff 	lea    -0x1ba0(%rbp),%rax
    f6b0:	48 83 c0 28          	add    $0x28,%rax
    f6b4:	48 89 85 f8 e2 ff ff 	mov    %rax,-0x1d08(%rbp)
    f6bb:	48 8d 05 1e de 00 00 	lea    0xde1e(%rip),%rax        # 1d4e0 <g_1272>
    f6c2:	48 89 85 00 e3 ff ff 	mov    %rax,-0x1d00(%rbp)
    f6c9:	48 8b 05 98 21 01 00 	mov    0x12198(%rip),%rax        # 21868 <g_1773>
    f6d0:	48 8b 00             	mov    (%rax),%rax
    f6d3:	48 8b 00             	mov    (%rax),%rax
    f6d6:	48 8b 00             	mov    (%rax),%rax
    f6d9:	48 89 85 38 e1 ff ff 	mov    %rax,-0x1ec8(%rbp)
    f6e0:	44 0f be b5 3d e0 ff 	movsbl -0x1fc3(%rbp),%r14d
    f6e7:	ff 
    f6e8:	0f b6 05 47 ca 00 00 	movzbl 0xca47(%rip),%eax        # 1c136 <g_205+0x6>
    f6ef:	44 0f b6 e8          	movzbl %al,%r13d
    f6f3:	0f b6 05 23 de 00 00 	movzbl 0xde23(%rip),%eax        # 1d51d <g_1456+0x5>
    f6fa:	44 0f be e0          	movsbl %al,%r12d
    f6fe:	0f b7 85 5c e0 ff ff 	movzwl -0x1fa4(%rbp),%eax
    f705:	0f b6 d8             	movzbl %al,%ebx
    f708:	48 8b 05 f9 11 01 00 	mov    0x111f9(%rip),%rax        # 20908 <g_263>
    f70f:	48 8b 00             	mov    (%rax),%rax
    f712:	48 8b 85 88 e8 ff ff 	mov    -0x1778(%rbp),%rax
    f719:	48 39 85 f0 e2 ff ff 	cmp    %rax,-0x1d10(%rbp)
    f720:	0f 95 c0             	setne  %al
    f723:	0f b6 d0             	movzbl %al,%edx
    f726:	48 8b 05 0b 19 01 00 	mov    0x1190b(%rip),%rax        # 21038 <g_1308>
    f72d:	48 8b 00             	mov    (%rax),%rax
    f730:	0f b7 00             	movzwl (%rax),%eax
    f733:	98                   	cwtl   
    f734:	89 d6                	mov    %edx,%esi
    f736:	89 c7                	mov    %eax,%edi
    f738:	e8 ed cd ff ff       	callq  c52a <safe_rshift_func_int16_t_s_s>
    f73d:	66 83 bd 5c e0 ff ff 	cmpw   $0x0,-0x1fa4(%rbp)
    f744:	00 
    f745:	75 18                	jne    f75f <func_1+0x1faa>
    f747:	83 bd 00 e1 ff ff 00 	cmpl   $0x0,-0x1f00(%rbp)
    f74e:	0f 95 c0             	setne  %al
    f751:	0f b6 d0             	movzbl %al,%edx
    f754:	0f be 85 3d e0 ff ff 	movsbl -0x1fc3(%rbp),%eax
    f75b:	39 c2                	cmp    %eax,%edx
    f75d:	74 07                	je     f766 <func_1+0x1fb1>
    f75f:	b8 01 00 00 00       	mov    $0x1,%eax
    f764:	eb 05                	jmp    f76b <func_1+0x1fb6>
    f766:	b8 00 00 00 00       	mov    $0x0,%eax
    f76b:	48 98                	cltq   
    f76d:	48 89 c6             	mov    %rax,%rsi
    f770:	48 bf 6a 00 97 0a 63 	movabs $0x1bf65a630a97006a,%rdi
    f777:	5a f6 1b 
    f77a:	e8 af d8 ff ff       	callq  d02e <safe_add_func_uint64_t_u_u>
    f77f:	45 89 f0             	mov    %r14d,%r8d
    f782:	44 89 e9             	mov    %r13d,%ecx
    f785:	44 89 e2             	mov    %r12d,%edx
    f788:	89 de                	mov    %ebx,%esi
    f78a:	bf ff 00 00 00       	mov    $0xff,%edi
    f78f:	e8 d9 29 00 00       	callq  1216d <func_25>
    f794:	80 bd 3e e0 ff ff 00 	cmpb   $0x0,-0x1fc2(%rbp)
    f79b:	74 07                	je     f7a4 <func_1+0x1fef>
    f79d:	ba 01 00 00 00       	mov    $0x1,%edx
    f7a2:	eb 05                	jmp    f7a9 <func_1+0x1ff4>
    f7a4:	ba 00 00 00 00       	mov    $0x0,%edx
    f7a9:	48 8b 05 90 10 01 00 	mov    0x11090(%rip),%rax        # 20840 <g_70>
    f7b0:	8b 00                	mov    (%rax),%eax
    f7b2:	39 c2                	cmp    %eax,%edx
    f7b4:	0f 9c c0             	setl   %al
    f7b7:	0f b6 d8             	movzbl %al,%ebx
    f7ba:	48 8b 05 1f 14 01 00 	mov    0x1141f(%rip),%rax        # 20be0 <g_610>
    f7c1:	0f b6 00             	movzbl (%rax),%eax
    f7c4:	0f b6 c0             	movzbl %al,%eax
    f7c7:	be 03 00 00 00       	mov    $0x3,%esi
    f7cc:	89 c7                	mov    %eax,%edi
    f7ce:	e8 ba d4 ff ff       	callq  cc8d <safe_rshift_func_uint8_t_u_s>
    f7d3:	0f b6 c0             	movzbl %al,%eax
    f7d6:	89 c6                	mov    %eax,%esi
    f7d8:	bf f9 00 00 00       	mov    $0xf9,%edi
    f7dd:	e8 b1 d3 ff ff       	callq  cb93 <safe_mul_func_uint8_t_u_u>
    f7e2:	0f b6 c0             	movzbl %al,%eax
    f7e5:	89 de                	mov    %ebx,%esi
    f7e7:	89 c7                	mov    %eax,%edi
    f7e9:	e8 c8 cd ff ff       	callq  c5b6 <safe_add_func_int32_t_s_s>
    f7ee:	89 85 f8 e0 ff ff    	mov    %eax,-0x1f08(%rbp)
    f7f4:	48 8b 05 e5 13 01 00 	mov    0x113e5(%rip),%rax        # 20be0 <g_610>
    f7fb:	0f b6 00             	movzbl (%rax),%eax
    f7fe:	0f b6 d0             	movzbl %al,%edx
    f801:	0f b6 85 3d e0 ff ff 	movzbl -0x1fc3(%rbp),%eax
    f808:	0f b6 c0             	movzbl %al,%eax
    f80b:	89 d6                	mov    %edx,%esi
    f80d:	89 c7                	mov    %eax,%edi
    f80f:	e8 aa d4 ff ff       	callq  ccbe <safe_rshift_func_uint8_t_u_u>
    f814:	0f b6 d0             	movzbl %al,%edx
    f817:	0f b6 05 9f dc 00 00 	movzbl 0xdc9f(%rip),%eax        # 1d4bd <g_877+0x5>
    f81e:	0f be c0             	movsbl %al,%eax
    f821:	39 c2                	cmp    %eax,%edx
    f823:	0f 9c c0             	setl   %al
    f826:	0f b6 c0             	movzbl %al,%eax
    f829:	66 89 85 5e e0 ff ff 	mov    %ax,-0x1fa2(%rbp)
    f830:	66 83 bd 5e e0 ff ff 	cmpw   $0x0,-0x1fa2(%rbp)
    f837:	00 
    f838:	75 09                	jne    f843 <func_1+0x208e>
    f83a:	80 bd 3d e0 ff ff 00 	cmpb   $0x0,-0x1fc3(%rbp)
    f841:	74 08                	je     f84b <func_1+0x2096>
    f843:	41 bc 01 00 00 00    	mov    $0x1,%r12d
    f849:	eb 06                	jmp    f851 <func_1+0x209c>
    f84b:	41 bc 00 00 00 00    	mov    $0x0,%r12d
    f851:	48 8b 05 88 13 01 00 	mov    0x11388(%rip),%rax        # 20be0 <g_610>
    f858:	0f b6 00             	movzbl (%rax),%eax
    f85b:	0f be d8             	movsbl %al,%ebx
    f85e:	0f b7 05 a3 34 01 00 	movzwl 0x134a3(%rip),%eax        # 22d08 <g_985>
    f865:	8b 95 00 e1 ff ff    	mov    -0x1f00(%rbp),%edx
    f86b:	48 8b 85 08 e1 ff ff 	mov    -0x1ef8(%rbp),%rax
    f872:	0f b6 00             	movzbl (%rax),%eax
    f875:	89 c1                	mov    %eax,%ecx
    f877:	89 d0                	mov    %edx,%eax
    f879:	31 c1                	xor    %eax,%ecx
    f87b:	89 ca                	mov    %ecx,%edx
    f87d:	48 8b 85 08 e1 ff ff 	mov    -0x1ef8(%rbp),%rax
    f884:	88 10                	mov    %dl,(%rax)
    f886:	48 8b 05 63 15 01 00 	mov    0x11563(%rip),%rax        # 20df0 <g_730>
    f88d:	48 8b 00             	mov    (%rax),%rax
    f890:	0f b6 00             	movzbl (%rax),%eax
    f893:	0f b6 d0             	movzbl %al,%edx
    f896:	8b 85 fc e0 ff ff    	mov    -0x1f04(%rbp),%eax
    f89c:	0f b6 c0             	movzbl %al,%eax
    f89f:	89 d6                	mov    %edx,%esi
    f8a1:	89 c7                	mov    %eax,%edi
    f8a3:	e8 b2 d2 ff ff       	callq  cb5a <safe_add_func_uint8_t_u_u>
    f8a8:	48 8b 85 90 e1 ff ff 	mov    -0x1e70(%rbp),%rax
    f8af:	48 c7 00 00 00 00 00 	movq   $0x0,(%rax)
    f8b6:	48 8b 00             	mov    (%rax),%rax
    f8b9:	48 c7 c6 fc ff ff ff 	mov    $0xfffffffffffffffc,%rsi
    f8c0:	48 89 c7             	mov    %rax,%rdi
    f8c3:	e8 e7 d7 ff ff       	callq  d0af <safe_div_func_uint64_t_u_u>
    f8c8:	48 89 c1             	mov    %rax,%rcx
    f8cb:	48 83 bd f8 e2 ff ff 	cmpq   $0x0,-0x1d08(%rbp)
    f8d2:	00 
    f8d3:	0f 94 c0             	sete   %al
    f8d6:	0f b6 d0             	movzbl %al,%edx
    f8d9:	48 8b 85 00 e3 ff ff 	mov    -0x1d00(%rbp),%rax
    f8e0:	0f b6 00             	movzbl (%rax),%eax
    f8e3:	21 c1                	and    %eax,%ecx
    f8e5:	48 8b 85 00 e3 ff ff 	mov    -0x1d00(%rbp),%rax
    f8ec:	88 08                	mov    %cl,(%rax)
    f8ee:	48 8b 85 00 e3 ff ff 	mov    -0x1d00(%rbp),%rax
    f8f5:	0f b6 00             	movzbl (%rax),%eax
    f8f8:	0f b6 c0             	movzbl %al,%eax
    f8fb:	31 d0                	xor    %edx,%eax
    f8fd:	83 f8 ff             	cmp    $0xffffffff,%eax
    f900:	0f 94 c0             	sete   %al
    f903:	0f b6 c0             	movzbl %al,%eax
    f906:	89 de                	mov    %ebx,%esi
    f908:	89 c7                	mov    %eax,%edi
    f90a:	e8 5b c9 ff ff       	callq  c26a <safe_div_func_int8_t_s_s>
    f90f:	0f be c0             	movsbl %al,%eax
    f912:	44 09 e0             	or     %r12d,%eax
    f915:	89 85 e0 e0 ff ff    	mov    %eax,-0x1f20(%rbp)
    f91b:	0f b7 05 fe c7 00 00 	movzwl 0xc7fe(%rip),%eax        # 1c120 <g_146>
    f922:	e9 c2 07 00 00       	jmpq   100e9 <func_1+0x2934>
    f927:	c7 85 70 e0 ff ff 00 	movl   $0x0,-0x1f90(%rbp)
    f92e:	00 00 00 
    f931:	e9 1e 02 00 00       	jmpq   fb54 <func_1+0x239f>
    f936:	48 8d 85 88 e1 ff ff 	lea    -0x1e78(%rbp),%rax
    f93d:	48 89 85 c0 e2 ff ff 	mov    %rax,-0x1d40(%rbp)
    f944:	48 8d 05 c5 34 01 00 	lea    0x134c5(%rip),%rax        # 22e10 <g_1871>
    f94b:	48 89 85 c8 e2 ff ff 	mov    %rax,-0x1d38(%rbp)
    f952:	c7 85 6c e0 ff ff 00 	movl   $0x0,-0x1f94(%rbp)
    f959:	00 00 00 
    f95c:	e9 71 01 00 00       	jmpq   fad2 <func_1+0x231d>
    f961:	48 c7 85 d0 e2 ff ff 	movq   $0x0,-0x1d30(%rbp)
    f968:	00 00 00 00 
    f96c:	48 c7 85 d8 e2 ff ff 	movq   $0x0,-0x1d28(%rbp)
    f973:	00 00 00 00 
    f977:	48 8d 05 8a 34 01 00 	lea    0x1348a(%rip),%rax        # 22e08 <g_1850>
    f97e:	48 89 85 e0 e2 ff ff 	mov    %rax,-0x1d20(%rbp)
    f985:	c7 85 7c e0 ff ff 00 	movl   $0x0,-0x1f84(%rbp)
    f98c:	00 00 00 
    f98f:	eb 1e                	jmp    f9af <func_1+0x21fa>
    f991:	8b 85 7c e0 ff ff    	mov    -0x1f84(%rbp),%eax
    f997:	48 98                	cltq   
    f999:	48 8d 15 1c c7 00 00 	lea    0xc71c(%rip),%rdx        # 1c0bc <g_104+0x7c>
    f9a0:	48 89 94 c5 f0 e3 ff 	mov    %rdx,-0x1c10(%rbp,%rax,8)
    f9a7:	ff 
    f9a8:	83 85 7c e0 ff ff 01 	addl   $0x1,-0x1f84(%rbp)
    f9af:	83 bd 7c e0 ff ff 05 	cmpl   $0x5,-0x1f84(%rbp)
    f9b6:	7e d9                	jle    f991 <func_1+0x21dc>
    f9b8:	48 8b 85 e0 e3 ff ff 	mov    -0x1c20(%rbp),%rax
    f9bf:	48 8d 15 fa 0e 01 00 	lea    0x10efa(%rip),%rdx        # 208c0 <g_236+0x20>
    f9c6:	48 39 d0             	cmp    %rdx,%rax
    f9c9:	0f 95 c0             	setne  %al
    f9cc:	0f b6 c0             	movzbl %al,%eax
    f9cf:	66 89 05 14 c7 00 00 	mov    %ax,0xc714(%rip)        # 1c0ea <g_104+0xaa>
    f9d6:	b9 fe ff ff ff       	mov    $0xfffffffe,%ecx
    f9db:	48 8b 05 5e 0e 01 00 	mov    0x10e5e(%rip),%rax        # 20840 <g_70>
    f9e2:	8b 10                	mov    (%rax),%edx
    f9e4:	48 8b 05 55 0e 01 00 	mov    0x10e55(%rip),%rax        # 20840 <g_70>
    f9eb:	21 ca                	and    %ecx,%edx
    f9ed:	89 10                	mov    %edx,(%rax)
    f9ef:	48 8b 15 12 34 01 00 	mov    0x13412(%rip),%rdx        # 22e08 <g_1850>
    f9f6:	48 8b 85 e0 e2 ff ff 	mov    -0x1d20(%rbp),%rax
    f9fd:	48 89 10             	mov    %rdx,(%rax)
    fa00:	48 8b 05 39 0e 01 00 	mov    0x10e39(%rip),%rax        # 20840 <g_70>
    fa07:	c7 00 00 00 00 00    	movl   $0x0,(%rax)
    fa0d:	8b 85 6c e0 ff ff    	mov    -0x1f94(%rbp),%eax
    fa13:	48 98                	cltq   
    fa15:	8b 84 85 3c e3 ff ff 	mov    -0x1cc4(%rbp,%rax,4),%eax
    fa1c:	98                   	cwtl   
    fa1d:	be 0e 00 00 00       	mov    $0xe,%esi
    fa22:	89 c7                	mov    %eax,%edi
    fa24:	e8 69 ca ff ff       	callq  c492 <safe_lshift_func_int16_t_s_s>
    fa29:	0f b6 c0             	movzbl %al,%eax
    fa2c:	be 03 00 00 00       	mov    $0x3,%esi
    fa31:	89 c7                	mov    %eax,%edi
    fa33:	e8 55 d2 ff ff       	callq  cc8d <safe_rshift_func_uint8_t_u_s>
    fa38:	48 8b 85 c0 e2 ff ff 	mov    -0x1d40(%rbp),%rax
    fa3f:	48 3b 85 f8 e1 ff ff 	cmp    -0x1e08(%rbp),%rax
    fa46:	0f 94 c0             	sete   %al
    fa49:	0f b6 d0             	movzbl %al,%edx
    fa4c:	48 8b 05 1d 0e 01 00 	mov    0x10e1d(%rip),%rax        # 20870 <g_231>
    fa53:	48 8b 00             	mov    (%rax),%rax
    fa56:	48 8b 00             	mov    (%rax),%rax
    fa59:	48 8b 00             	mov    (%rax),%rax
    fa5c:	48 83 f8 ff          	cmp    $0xffffffffffffffff,%rax
    fa60:	75 1d                	jne    fa7f <func_1+0x22ca>
    fa62:	48 8b 05 3f 16 01 00 	mov    0x1163f(%rip),%rax        # 210a8 <g_1341>
    fa69:	48 8b 00             	mov    (%rax),%rax
    fa6c:	48 8b 00             	mov    (%rax),%rax
    fa6f:	66 c7 00 00 00       	movw   $0x0,(%rax)
    fa74:	0f b6 05 8d db 00 00 	movzbl 0xdb8d(%rip),%eax        # 1d608 <g_1631>
    fa7b:	84 c0                	test   %al,%al
    fa7d:	79 07                	jns    fa86 <func_1+0x22d1>
    fa7f:	b8 01 00 00 00       	mov    $0x1,%eax
    fa84:	eb 05                	jmp    fa8b <func_1+0x22d6>
    fa86:	b8 00 00 00 00       	mov    $0x0,%eax
    fa8b:	39 d0                	cmp    %edx,%eax
    fa8d:	0f 9f c0             	setg   %al
    fa90:	0f b6 c0             	movzbl %al,%eax
    fa93:	be 1c 00 00 00       	mov    $0x1c,%esi
    fa98:	89 c7                	mov    %eax,%edi
    fa9a:	e8 d9 d0 ff ff       	callq  cb78 <safe_sub_func_uint8_t_u_u>
    fa9f:	0f b6 c0             	movzbl %al,%eax
    faa2:	f7 d0                	not    %eax
    faa4:	48 63 d0             	movslq %eax,%rdx
    faa7:	48 8b 05 2a da 00 00 	mov    0xda2a(%rip),%rax        # 1d4d8 <g_1217>
    faae:	48 39 c2             	cmp    %rax,%rdx
    fab1:	0f 97 c0             	seta   %al
    fab4:	0f b6 c8             	movzbl %al,%ecx
    fab7:	48 8b 05 82 0d 01 00 	mov    0x10d82(%rip),%rax        # 20840 <g_70>
    fabe:	8b 10                	mov    (%rax),%edx
    fac0:	48 8b 05 79 0d 01 00 	mov    0x10d79(%rip),%rax        # 20840 <g_70>
    fac7:	31 ca                	xor    %ecx,%edx
    fac9:	89 10                	mov    %edx,(%rax)
    facb:	83 85 6c e0 ff ff 01 	addl   $0x1,-0x1f94(%rbp)
    fad2:	83 bd 6c e0 ff ff 01 	cmpl   $0x1,-0x1f94(%rbp)
    fad9:	0f 8e 82 fe ff ff    	jle    f961 <func_1+0x21ac>
    fadf:	48 8b 05 b2 1d 01 00 	mov    0x11db2(%rip),%rax        # 21898 <g_1870>
    fae6:	48 89 85 a0 e2 ff ff 	mov    %rax,-0x1d60(%rbp)
    faed:	48 8b 85 a0 e2 ff ff 	mov    -0x1d60(%rbp),%rax
    faf4:	48 89 85 c8 e2 ff ff 	mov    %rax,-0x1d38(%rbp)
    fafb:	48 8b 05 8e 1d 01 00 	mov    0x11d8e(%rip),%rax        # 21890 <g_1867>
    fb02:	48 39 85 c8 e2 ff ff 	cmp    %rax,-0x1d38(%rbp)
    fb09:	0f 94 c2             	sete   %dl
    fb0c:	48 8b 05 2d 0d 01 00 	mov    0x10d2d(%rip),%rax        # 20840 <g_70>
    fb13:	0f b6 d2             	movzbl %dl,%edx
    fb16:	89 10                	mov    %edx,(%rax)
    fb18:	48 8b 05 21 0d 01 00 	mov    0x10d21(%rip),%rax        # 20840 <g_70>
    fb1f:	8b 08                	mov    (%rax),%ecx
    fb21:	0f b7 85 40 e0 ff ff 	movzwl -0x1fc0(%rbp),%eax
    fb28:	0f bf d0             	movswl %ax,%edx
    fb2b:	48 8b 05 0e 0d 01 00 	mov    0x10d0e(%rip),%rax        # 20840 <g_70>
    fb32:	31 ca                	xor    %ecx,%edx
    fb34:	89 10                	mov    %edx,(%rax)
    fb36:	8b 85 70 e0 ff ff    	mov    -0x1f90(%rbp),%eax
    fb3c:	0f b7 c0             	movzwl %ax,%eax
    fb3f:	be 04 00 00 00       	mov    $0x4,%esi
    fb44:	89 c7                	mov    %eax,%edi
    fb46:	e8 b4 d1 ff ff       	callq  ccff <safe_add_func_uint16_t_u_u>
    fb4b:	0f b7 c0             	movzwl %ax,%eax
    fb4e:	89 85 70 e0 ff ff    	mov    %eax,-0x1f90(%rbp)
    fb54:	83 bd 70 e0 ff ff 06 	cmpl   $0x6,-0x1f90(%rbp)
    fb5b:	0f 84 d5 fd ff ff    	je     f936 <func_1+0x2181>
    fb61:	0f be b5 3d e0 ff ff 	movsbl -0x1fc3(%rbp),%esi
    fb68:	48 8b 85 a8 e2 ff ff 	mov    -0x1d58(%rbp),%rax
    fb6f:	8b 00                	mov    (%rax),%eax
    fb71:	8d 48 01             	lea    0x1(%rax),%ecx
    fb74:	48 8b 95 a8 e2 ff ff 	mov    -0x1d58(%rbp),%rdx
    fb7b:	89 0a                	mov    %ecx,(%rdx)
    fb7d:	89 f3                	mov    %esi,%ebx
    fb7f:	21 c3                	and    %eax,%ebx
    fb81:	66 0f be 85 3a e0 ff 	movsbw -0x1fc6(%rbp),%ax
    fb88:	ff 
    fb89:	0f b7 d0             	movzwl %ax,%edx
    fb8c:	48 8b 85 a0 e1 ff ff 	mov    -0x1e60(%rbp),%rax
    fb93:	48 8b 00             	mov    (%rax),%rax
    fb96:	48 8b 00             	mov    (%rax),%rax
    fb99:	48 85 c0             	test   %rax,%rax
    fb9c:	40 0f 95 c6          	setne  %sil
    fba0:	48 8b 05 89 14 01 00 	mov    0x11489(%rip),%rax        # 21030 <g_1309>
    fba7:	0f b7 00             	movzwl (%rax),%eax
    fbaa:	66 85 c0             	test   %ax,%ax
    fbad:	0f 85 a6 00 00 00    	jne    fc59 <func_1+0x24a4>
    fbb3:	48 8b 85 b0 e2 ff ff 	mov    -0x1d50(%rbp),%rax
    fbba:	8b 00                	mov    (%rax),%eax
    fbbc:	8d 48 01             	lea    0x1(%rax),%ecx
    fbbf:	48 8b 85 b0 e2 ff ff 	mov    -0x1d50(%rbp),%rax
    fbc6:	89 08                	mov    %ecx,(%rax)
    fbc8:	48 8b 85 b0 e2 ff ff 	mov    -0x1d50(%rbp),%rax
    fbcf:	8b 08                	mov    (%rax),%ecx
    fbd1:	48 8b 05 70 12 01 00 	mov    0x11270(%rip),%rax        # 20e48 <g_1073>
    fbd8:	48 8b 00             	mov    (%rax),%rax
    fbdb:	48 39 85 00 e2 ff ff 	cmp    %rax,-0x1e00(%rbp)
    fbe2:	0f 95 c0             	setne  %al
    fbe5:	0f b6 c0             	movzbl %al,%eax
    fbe8:	39 c1                	cmp    %eax,%ecx
    fbea:	48 8b 85 b8 e2 ff ff 	mov    -0x1d48(%rbp),%rax
    fbf1:	0f b7 00             	movzwl (%rax),%eax
    fbf4:	8d 48 ff             	lea    -0x1(%rax),%ecx
    fbf7:	48 8b 85 b8 e2 ff ff 	mov    -0x1d48(%rbp),%rax
    fbfe:	66 89 08             	mov    %cx,(%rax)
    fc01:	48 8b 05 b0 14 01 00 	mov    0x114b0(%rip),%rax        # 210b8 <g_1339>
    fc08:	48 8b 00             	mov    (%rax),%rax
    fc0b:	48 8b 00             	mov    (%rax),%rax
    fc0e:	48 8b 00             	mov    (%rax),%rax
    fc11:	48 8b 00             	mov    (%rax),%rax
    fc14:	48 89 85 00 e6 ff ff 	mov    %rax,-0x1a00(%rbp)
    fc1b:	48 8b 85 00 e6 ff ff 	mov    -0x1a00(%rbp),%rax
    fc22:	48 89 05 4f 1e 01 00 	mov    %rax,0x11e4f(%rip)        # 21a78 <g_1889+0x1d8>
    fc29:	48 8b 05 48 1e 01 00 	mov    0x11e48(%rip),%rax        # 21a78 <g_1889+0x1d8>
    fc30:	48 85 c0             	test   %rax,%rax
    fc33:	0f 94 c0             	sete   %al
    fc36:	0f b6 c0             	movzbl %al,%eax
    fc39:	89 85 64 e0 ff ff    	mov    %eax,-0x1f9c(%rbp)
    fc3f:	8b 85 64 e0 ff ff    	mov    -0x1f9c(%rbp),%eax
    fc45:	85 c0                	test   %eax,%eax
    fc47:	74 10                	je     fc59 <func_1+0x24a4>
    fc49:	0f b6 0d 41 d5 00 00 	movzbl 0xd541(%rip),%ecx        # 1d191 <g_517+0x971>
    fc50:	0f b6 05 99 d9 00 00 	movzbl 0xd999(%rip),%eax        # 1d5f0 <g_1628+0x30>
    fc57:	38 c1                	cmp    %al,%cl
    fc59:	b8 01 00 00 00       	mov    $0x1,%eax
    fc5e:	83 e0 01             	and    $0x1,%eax
    fc61:	21 f0                	and    %esi,%eax
    fc63:	0f b6 c0             	movzbl %al,%eax
    fc66:	89 d6                	mov    %edx,%esi
    fc68:	89 c7                	mov    %eax,%edi
    fc6a:	e8 90 d0 ff ff       	callq  ccff <safe_add_func_uint16_t_u_u>
    fc6f:	0f b7 c0             	movzwl %ax,%eax
    fc72:	39 c3                	cmp    %eax,%ebx
    fc74:	b9 b8 71 7b 8a       	mov    $0x8a7b71b8,%ecx
    fc79:	48 8b 05 c0 0b 01 00 	mov    0x10bc0(%rip),%rax        # 20840 <g_70>
    fc80:	8b 10                	mov    (%rax),%edx
    fc82:	48 8b 05 b7 0b 01 00 	mov    0x10bb7(%rip),%rax        # 20840 <g_70>
    fc89:	21 ca                	and    %ecx,%edx
    fc8b:	89 10                	mov    %edx,(%rax)
    fc8d:	0f be 9d 3a e0 ff ff 	movsbl -0x1fc6(%rbp),%ebx
    fc94:	0f b6 05 f1 d4 00 00 	movzbl 0xd4f1(%rip),%eax        # 1d18c <g_517+0x96c>
    fc9b:	66 98                	cbtw   
    fc9d:	66 89 05 a0 c4 00 00 	mov    %ax,0xc4a0(%rip)        # 1c144 <g_214>
    fca4:	0f b7 05 99 c4 00 00 	movzwl 0xc499(%rip),%eax        # 1c144 <g_214>
    fcab:	66 83 f8 01          	cmp    $0x1,%ax
    fcaf:	48 8b 05 b2 0b 01 00 	mov    0x10bb2(%rip),%rax        # 20868 <g_228>
    fcb6:	48 8b 00             	mov    (%rax),%rax
    fcb9:	48 8b 00             	mov    (%rax),%rax
    fcbc:	83 f0 01             	xor    $0x1,%eax
    fcbf:	0f be c0             	movsbl %al,%eax
    fcc2:	be fe ff ff ff       	mov    $0xfffffffe,%esi
    fcc7:	89 c7                	mov    %eax,%edi
    fcc9:	e8 9c c5 ff ff       	callq  c26a <safe_div_func_int8_t_s_s>
    fcce:	66 98                	cbtw   
    fcd0:	8b 95 00 f1 ff ff    	mov    -0xf00(%rbp),%edx
    fcd6:	21 d0                	and    %edx,%eax
    fcd8:	0f b7 c0             	movzwl %ax,%eax
    fcdb:	be 0f 00 00 00       	mov    $0xf,%esi
    fce0:	89 c7                	mov    %eax,%edi
    fce2:	e8 d7 d0 ff ff       	callq  cdbe <safe_lshift_func_uint16_t_u_s>
    fce7:	66 3d 92 a6          	cmp    $0xa692,%ax
    fceb:	77 1a                	ja     fd07 <func_1+0x2552>
    fced:	48 8b 05 54 11 01 00 	mov    0x11154(%rip),%rax        # 20e48 <g_1073>
    fcf4:	48 8b 00             	mov    (%rax),%rax
    fcf7:	0f b7 00             	movzwl (%rax),%eax
    fcfa:	66 85 c0             	test   %ax,%ax
    fcfd:	75 08                	jne    fd07 <func_1+0x2552>
    fcff:	8b 85 64 e0 ff ff    	mov    -0x1f9c(%rbp),%eax
    fd05:	85 c0                	test   %eax,%eax
    fd07:	90                   	nop
    fd08:	48 8b 05 d1 0e 01 00 	mov    0x10ed1(%rip),%rax        # 20be0 <g_610>
    fd0f:	0f b6 00             	movzbl (%rax),%eax
    fd12:	0f b6 c0             	movzbl %al,%eax
    fd15:	89 85 88 e0 ff ff    	mov    %eax,-0x1f78(%rbp)
    fd1b:	48 8b 05 16 13 01 00 	mov    0x11316(%rip),%rax        # 21038 <g_1308>
    fd22:	48 8b 00             	mov    (%rax),%rax
    fd25:	48 85 c0             	test   %rax,%rax
    fd28:	0f 94 c0             	sete   %al
    fd2b:	0f b6 c0             	movzbl %al,%eax
    fd2e:	be 05 00 00 00       	mov    $0x5,%esi
    fd33:	89 c7                	mov    %eax,%edi
    fd35:	e8 b4 c5 ff ff       	callq  c2ee <safe_lshift_func_int8_t_s_u>
    fd3a:	84 c0                	test   %al,%al
    fd3c:	74 07                	je     fd45 <func_1+0x2590>
    fd3e:	b8 01 00 00 00       	mov    $0x1,%eax
    fd43:	eb 05                	jmp    fd4a <func_1+0x2595>
    fd45:	b8 00 00 00 00       	mov    $0x0,%eax
    fd4a:	0f b6 c0             	movzbl %al,%eax
    fd4d:	be 02 00 00 00       	mov    $0x2,%esi
    fd52:	89 c7                	mov    %eax,%edi
    fd54:	e8 ac ce ff ff       	callq  cc05 <safe_lshift_func_uint8_t_u_s>
    fd59:	0f b6 c0             	movzbl %al,%eax
    fd5c:	09 c3                	or     %eax,%ebx
    fd5e:	89 da                	mov    %ebx,%edx
    fd60:	48 8b 05 99 d6 00 00 	mov    0xd699(%rip),%rax        # 1d400 <g_606>
    fd67:	48 c1 e0 19          	shl    $0x19,%rax
    fd6b:	48 c1 f8 21          	sar    $0x21,%rax
    fd6f:	89 c1                	mov    %eax,%ecx
    fd71:	48 8b 05 c8 0a 01 00 	mov    0x10ac8(%rip),%rax        # 20840 <g_70>
    fd78:	21 ca                	and    %ecx,%edx
    fd7a:	89 10                	mov    %edx,(%rax)
    fd7c:	8b 00                	mov    (%rax),%eax
    fd7e:	85 c0                	test   %eax,%eax
    fd80:	75 09                	jne    fd8b <func_1+0x25d6>
    fd82:	80 bd 3d e0 ff ff 00 	cmpb   $0x0,-0x1fc3(%rbp)
    fd89:	74 07                	je     fd92 <func_1+0x25dd>
    fd8b:	b8 01 00 00 00       	mov    $0x1,%eax
    fd90:	eb 05                	jmp    fd97 <func_1+0x25e2>
    fd92:	b8 00 00 00 00       	mov    $0x0,%eax
    fd97:	98                   	cwtl   
    fd98:	be 08 00 00 00       	mov    $0x8,%esi
    fd9d:	89 c7                	mov    %eax,%edi
    fd9f:	e8 ee c6 ff ff       	callq  c492 <safe_lshift_func_int16_t_s_s>
    fda4:	48 0f bf c0          	movswq %ax,%rax
    fda8:	48 c7 c6 f9 ff ff ff 	mov    $0xfffffffffffffff9,%rsi
    fdaf:	48 89 c7             	mov    %rax,%rdi
    fdb2:	e8 fd cb ff ff       	callq  c9b4 <safe_mod_func_int64_t_s_s>
    fdb7:	8b 15 af c7 00 00    	mov    0xc7af(%rip),%edx        # 1c56c <g_244+0x34c>
    fdbd:	31 d0                	xor    %edx,%eax
    fdbf:	89 05 a7 c7 00 00    	mov    %eax,0xc7a7(%rip)        # 1c56c <g_244+0x34c>
    fdc5:	8b 05 1d 2f 01 00    	mov    0x12f1d(%rip),%eax        # 22ce8 <g_55>
    fdcb:	83 e8 01             	sub    $0x1,%eax
    fdce:	89 05 14 2f 01 00    	mov    %eax,0x12f14(%rip)        # 22ce8 <g_55>
    fdd4:	8b 05 0e 2f 01 00    	mov    0x12f0e(%rip),%eax        # 22ce8 <g_55>
    fdda:	83 f8 fb             	cmp    $0xfffffffb,%eax
    fddd:	0f 8c 6a f4 ff ff    	jl     f24d <func_1+0x1a98>
    fde3:	83 85 74 e0 ff ff 01 	addl   $0x1,-0x1f8c(%rbp)
    fdea:	0f b7 05 3f c2 00 00 	movzwl 0xc23f(%rip),%eax        # 1c030 <g_96>
    fdf1:	0f b7 c0             	movzwl %ax,%eax
    fdf4:	be 01 00 00 00       	mov    $0x1,%esi
    fdf9:	89 c7                	mov    %eax,%edi
    fdfb:	e8 b8 d0 ff ff       	callq  ceb8 <safe_add_func_uint32_t_u_u>
    fe00:	66 89 05 29 c2 00 00 	mov    %ax,0xc229(%rip)        # 1c030 <g_96>
    fe07:	0f b7 05 22 c2 00 00 	movzwl 0xc222(%rip),%eax        # 1c030 <g_96>
    fe0e:	66 83 f8 3b          	cmp    $0x3b,%ax
    fe12:	0f 86 c6 f2 ff ff    	jbe    f0de <func_1+0x1929>
    fe18:	48 c7 85 10 e1 ff ff 	movq   $0x0,-0x1ef0(%rbp)
    fe1f:	00 00 00 00 
    fe23:	e9 b6 01 00 00       	jmpq   ffde <func_1+0x2829>
    fe28:	48 8d 85 20 ea ff ff 	lea    -0x15e0(%rbp),%rax
    fe2f:	48 8d 15 0a e7 00 00 	lea    0xe70a(%rip),%rdx        # 1e540 <g_2335+0x85c>
    fe36:	b9 48 00 00 00       	mov    $0x48,%ecx
    fe3b:	48 89 c7             	mov    %rax,%rdi
    fe3e:	48 89 d6             	mov    %rdx,%rsi
    fe41:	f3 48 a5             	rep movsq %ds:(%rsi),%es:(%rdi)
    fe44:	48 c7 85 18 e2 ff ff 	movq   $0x0,-0x1de8(%rbp)
    fe4b:	00 00 00 00 
    fe4f:	48 8d 85 64 e0 ff ff 	lea    -0x1f9c(%rbp),%rax
    fe56:	48 89 85 20 e2 ff ff 	mov    %rax,-0x1de0(%rbp)
    fe5d:	66 c7 85 50 e0 ff ff 	movw   $0x120b,-0x1fb0(%rbp)
    fe64:	0b 12 
    fe66:	48 8d 05 33 12 01 00 	lea    0x11233(%rip),%rax        # 210a0 <g_1342>
    fe6d:	48 89 85 28 e2 ff ff 	mov    %rax,-0x1dd8(%rbp)
    fe74:	c7 85 b8 e0 ff ff ff 	movl   $0xffffffff,-0x1f48(%rbp)
    fe7b:	ff ff ff 
    fe7e:	48 c7 85 30 e2 ff ff 	movq   $0x0,-0x1dd0(%rbp)
    fe85:	00 00 00 00 
    fe89:	48 8d 85 20 f0 ff ff 	lea    -0xfe0(%rbp),%rax
    fe90:	48 8d 15 e9 e8 00 00 	lea    0xe8e9(%rip),%rdx        # 1e780 <g_2335+0xa9c>
    fe97:	b9 78 00 00 00       	mov    $0x78,%ecx
    fe9c:	48 89 c7             	mov    %rax,%rdi
    fe9f:	48 89 d6             	mov    %rdx,%rsi
    fea2:	f3 48 a5             	rep movsq %ds:(%rsi),%es:(%rdi)
    fea5:	48 b8 f3 e2 b2 1d d3 	movabs $0xc90e1bd31db2e2f3,%rax
    feac:	1b 0e c9 
    feaf:	48 89 85 38 e2 ff ff 	mov    %rax,-0x1dc8(%rbp)
    feb6:	66 c7 85 52 e0 ff ff 	movw   $0x1,-0x1fae(%rbp)
    febd:	01 00 
    febf:	48 8d 85 36 e0 ff ff 	lea    -0x1fca(%rbp),%rax
    fec6:	48 89 85 40 e2 ff ff 	mov    %rax,-0x1dc0(%rbp)
    fecd:	48 8d 85 20 e8 ff ff 	lea    -0x17e0(%rbp),%rax
    fed4:	48 8d 15 65 ec 00 00 	lea    0xec65(%rip),%rdx        # 1eb40 <g_2335+0xe5c>
    fedb:	b9 3f 00 00 00       	mov    $0x3f,%ecx
    fee0:	48 89 c7             	mov    %rax,%rdi
    fee3:	48 89 d6             	mov    %rdx,%rsi
    fee6:	f3 48 a5             	rep movsq %ds:(%rsi),%es:(%rdi)
    fee9:	66 c7 85 54 e0 ff ff 	movw   $0xfffe,-0x1fac(%rbp)
    fef0:	fe ff 
    fef2:	c6 85 3b e0 ff ff f6 	movb   $0xf6,-0x1fc5(%rbp)
    fef9:	48 8d 85 a0 e3 ff ff 	lea    -0x1c60(%rbp),%rax
    ff00:	48 83 c0 18          	add    $0x18,%rax
    ff04:	48 89 85 48 e2 ff ff 	mov    %rax,-0x1db8(%rbp)
    ff0b:	66 c7 85 56 e0 ff ff 	movw   $0x5,-0x1faa(%rbp)
    ff12:	05 00 
    ff14:	66 c7 85 58 e0 ff ff 	movw   $0x36bf,-0x1fa8(%rbp)
    ff1b:	bf 36 
    ff1d:	c7 85 f0 e5 ff ff 39 	movl   $0x4fb4d539,-0x1a10(%rbp)
    ff24:	d5 b4 4f 
    ff27:	c7 85 f4 e5 ff ff 39 	movl   $0x4fb4d539,-0x1a0c(%rbp)
    ff2e:	d5 b4 4f 
    ff31:	c7 85 f8 e5 ff ff 36 	movl   $0xe5f1c336,-0x1a08(%rbp)
    ff38:	c3 f1 e5 
    ff3b:	c7 85 fc e5 ff ff 39 	movl   $0x4fb4d539,-0x1a04(%rbp)
    ff42:	d5 b4 4f 
    ff45:	c7 85 00 e6 ff ff 39 	movl   $0x4fb4d539,-0x1a00(%rbp)
    ff4c:	d5 b4 4f 
    ff4f:	c7 85 04 e6 ff ff 36 	movl   $0xe5f1c336,-0x19fc(%rbp)
    ff56:	c3 f1 e5 
    ff59:	c7 85 08 e6 ff ff 39 	movl   $0x4fb4d539,-0x19f8(%rbp)
    ff60:	d5 b4 4f 
    ff63:	c7 85 0c e6 ff ff 39 	movl   $0x4fb4d539,-0x19f4(%rbp)
    ff6a:	d5 b4 4f 
    ff6d:	c7 85 10 e6 ff ff 36 	movl   $0xe5f1c336,-0x19f0(%rbp)
    ff74:	c3 f1 e5 
    ff77:	c7 85 bc e0 ff ff 3e 	movl   $0x90a8c73e,-0x1f44(%rbp)
    ff7e:	c7 a8 90 
    ff81:	c7 85 c0 e0 ff ff d9 	movl   $0x49a0c9d9,-0x1f40(%rbp)
    ff88:	c9 a0 49 
    ff8b:	c7 85 80 e0 ff ff 00 	movl   $0x0,-0x1f80(%rbp)
    ff92:	00 00 00 
    ff95:	eb 1a                	jmp    ffb1 <func_1+0x27fc>
    ff97:	8b 85 80 e0 ff ff    	mov    -0x1f80(%rbp),%eax
    ff9d:	48 98                	cltq   
    ff9f:	c7 84 85 b0 e4 ff ff 	movl   $0x1467e472,-0x1b50(%rbp,%rax,4)
    ffa6:	72 e4 67 14 
    ffaa:	83 85 80 e0 ff ff 01 	addl   $0x1,-0x1f80(%rbp)
    ffb1:	83 bd 80 e0 ff ff 03 	cmpl   $0x3,-0x1f80(%rbp)
    ffb8:	7e dd                	jle    ff97 <func_1+0x27e2>
    ffba:	48 8b 85 10 e1 ff ff 	mov    -0x1ef0(%rbp),%rax
    ffc1:	8b 84 85 3c e3 ff ff 	mov    -0x1cc4(%rbp,%rax,4),%eax
    ffc8:	85 c0                	test   %eax,%eax
    ffca:	75 25                	jne    fff1 <func_1+0x283c>
    ffcc:	48 8b 85 10 e1 ff ff 	mov    -0x1ef0(%rbp),%rax
    ffd3:	48 83 c0 01          	add    $0x1,%rax
    ffd7:	48 89 85 10 e1 ff ff 	mov    %rax,-0x1ef0(%rbp)
    ffde:	48 8b 85 10 e1 ff ff 	mov    -0x1ef0(%rbp),%rax
    ffe5:	48 83 f8 01          	cmp    $0x1,%rax
    ffe9:	0f 86 39 fe ff ff    	jbe    fe28 <func_1+0x2673>
    ffef:	eb 01                	jmp    fff2 <func_1+0x283d>
    fff1:	90                   	nop
    fff2:	c7 05 00 c6 00 00 1a 	movl   $0x1a,0xc600(%rip)        # 1c5fc <g_445>
    fff9:	00 00 00 
    fffc:	e9 ca 00 00 00       	jmpq   100cb <func_1+0x2916>
   10001:	c7 85 c4 e0 ff ff 4d 	movl   $0x5e86104d,-0x1f3c(%rbp)
   10008:	10 86 5e 
   1000b:	66 c7 85 5a e0 ff ff 	movw   $0x5f66,-0x1fa6(%rbp)
   10012:	66 5f 
   10014:	c7 85 c8 e0 ff ff 04 	movl   $0x1ebcf204,-0x1f38(%rbp)
   1001b:	f2 bc 1e 
   1001e:	c7 85 cc e0 ff ff ed 	movl   $0x296acbed,-0x1f34(%rbp)
   10025:	cb 6a 29 
   10028:	c7 85 d0 e0 ff ff 68 	movl   $0x4e5b9968,-0x1f30(%rbp)
   1002f:	99 5b 4e 
   10032:	c7 85 d4 e0 ff ff 03 	movl   $0x2305c203,-0x1f2c(%rbp)
   10039:	c2 05 23 
   1003c:	48 8d 85 20 f0 ff ff 	lea    -0xfe0(%rbp),%rax
   10043:	48 8d 15 96 86 00 00 	lea    0x8696(%rip),%rdx        # 186e0 <g_2177+0x684>
   1004a:	b9 3f 00 00 00       	mov    $0x3f,%ecx
   1004f:	48 89 c7             	mov    %rax,%rdi
   10052:	48 89 d6             	mov    %rdx,%rsi
   10055:	f3 48 a5             	rep movsq %ds:(%rsi),%es:(%rdi)
   10058:	48 c7 85 50 e2 ff ff 	movq   $0x8,-0x1db0(%rbp)
   1005f:	08 00 00 00 
   10063:	48 8d 85 58 e1 ff ff 	lea    -0x1ea8(%rbp),%rax
   1006a:	48 89 85 58 e2 ff ff 	mov    %rax,-0x1da8(%rbp)
   10071:	48 c7 85 98 e1 ff ff 	movq   $0x0,-0x1e68(%rbp)
   10078:	00 00 00 00 
   1007c:	48 8d 85 98 e1 ff ff 	lea    -0x1e68(%rbp),%rax
   10083:	48 89 85 60 e2 ff ff 	mov    %rax,-0x1da0(%rbp)
   1008a:	48 8d 85 68 e1 ff ff 	lea    -0x1e98(%rbp),%rax
   10091:	48 89 85 68 e2 ff ff 	mov    %rax,-0x1d98(%rbp)
   10098:	48 8d 05 39 d4 00 00 	lea    0xd439(%rip),%rax        # 1d4d8 <g_1217>
   1009f:	48 89 85 70 e2 ff ff 	mov    %rax,-0x1d90(%rbp)
   100a6:	48 8b 05 fb 25 01 00 	mov    0x125fb(%rip),%rax        # 226a8 <g_2016>
   100ad:	c7 00 00 00 00 00    	movl   $0x0,(%rax)
   100b3:	8b 05 43 c5 00 00    	mov    0xc543(%rip),%eax        # 1c5fc <g_445>
   100b9:	be 01 00 00 00       	mov    $0x1,%esi
   100be:	89 c7                	mov    %eax,%edi
   100c0:	e8 0b ce ff ff       	callq  ced0 <safe_sub_func_uint32_t_u_u>
   100c5:	89 05 31 c5 00 00    	mov    %eax,0xc531(%rip)        # 1c5fc <g_445>
   100cb:	8b 05 2b c5 00 00    	mov    0xc52b(%rip),%eax        # 1c5fc <g_445>
   100d1:	83 f8 17             	cmp    $0x17,%eax
   100d4:	0f 87 27 ff ff ff    	ja     10001 <func_1+0x284c>
   100da:	8b 05 18 d4 00 00    	mov    0xd418(%rip),%eax        # 1d4f8 <g_1338+0x8>
   100e0:	c1 e8 09             	shr    $0x9,%eax
   100e3:	80 e4 ff             	and    $0xff,%ah
   100e6:	0f b6 c0             	movzbl %al,%eax
   100e9:	48 8b 5d c8          	mov    -0x38(%rbp),%rbx
   100ed:	64 48 33 1c 25 28 00 	xor    %fs:0x28,%rbx
   100f4:	00 00 
   100f6:	74 05                	je     100fd <func_1+0x2948>
   100f8:	e8 73 bf ff ff       	callq  c070 <__stack_chk_fail@plt>
   100fd:	48 81 c4 b8 1f 00 00 	add    $0x1fb8,%rsp
   10104:	5b                   	pop    %rbx
   10105:	41 5c                	pop    %r12
   10107:	41 5d                	pop    %r13
   10109:	41 5e                	pop    %r14
   1010b:	41 5f                	pop    %r15
   1010d:	5d                   	pop    %rbp
   1010e:	c3                   	retq   

000000000001010f <func_3>:
   1010f:	f3 0f 1e fa          	endbr64 
   10113:	55                   	push   %rbp
   10114:	48 89 e5             	mov    %rsp,%rbp
   10117:	48 81 ec 10 02 00 00 	sub    $0x210,%rsp
   1011e:	89 f9                	mov    %edi,%ecx
   10120:	89 f0                	mov    %esi,%eax
   10122:	48 89 95 f0 fd ff ff 	mov    %rdx,-0x210(%rbp)
   10129:	89 ca                	mov    %ecx,%edx
   1012b:	66 89 95 fc fd ff ff 	mov    %dx,-0x204(%rbp)
   10132:	66 89 85 f8 fd ff ff 	mov    %ax,-0x208(%rbp)
   10139:	64 48 8b 04 25 28 00 	mov    %fs:0x28,%rax
   10140:	00 00 
   10142:	48 89 45 f8          	mov    %rax,-0x8(%rbp)
   10146:	31 c0                	xor    %eax,%eax
   10148:	48 c7 85 20 fe ff ff 	movq   $0x0,-0x1e0(%rbp)
   1014f:	00 00 00 00 
   10153:	c7 85 18 fe ff ff f8 	movl   $0xfffffff8,-0x1e8(%rbp)
   1015a:	ff ff ff 
   1015d:	48 c7 85 28 fe ff ff 	movq   $0x0,-0x1d8(%rbp)
   10164:	00 00 00 00 
   10168:	c7 85 08 fe ff ff 57 	movl   $0xe37a7557,-0x1f8(%rbp)
   1016f:	75 7a e3 
   10172:	c7 85 0c fe ff ff f7 	movl   $0xfffffff7,-0x1f4(%rbp)
   10179:	ff ff ff 
   1017c:	c7 85 10 fe ff ff 46 	movl   $0x990c4046,-0x1f0(%rbp)
   10183:	40 0c 99 
   10186:	48 c7 85 30 fe ff ff 	movq   $0x0,-0x1d0(%rbp)
   1018d:	00 00 00 00 
   10191:	c7 85 1c fe ff ff ff 	movl   $0xffffffff,-0x1e4(%rbp)
   10198:	ff ff ff 
   1019b:	48 8d 85 10 fe ff ff 	lea    -0x1f0(%rbp),%rax
   101a2:	48 89 85 40 fe ff ff 	mov    %rax,-0x1c0(%rbp)
   101a9:	48 8d 85 10 fe ff ff 	lea    -0x1f0(%rbp),%rax
   101b0:	48 89 85 48 fe ff ff 	mov    %rax,-0x1b8(%rbp)
   101b7:	48 c7 85 50 fe ff ff 	movq   $0x0,-0x1b0(%rbp)
   101be:	00 00 00 00 
   101c2:	48 c7 85 58 fe ff ff 	movq   $0x0,-0x1a8(%rbp)
   101c9:	00 00 00 00 
   101cd:	48 8d 85 10 fe ff ff 	lea    -0x1f0(%rbp),%rax
   101d4:	48 89 85 60 fe ff ff 	mov    %rax,-0x1a0(%rbp)
   101db:	48 8d 85 10 fe ff ff 	lea    -0x1f0(%rbp),%rax
   101e2:	48 89 85 68 fe ff ff 	mov    %rax,-0x198(%rbp)
   101e9:	48 c7 85 70 fe ff ff 	movq   $0x0,-0x190(%rbp)
   101f0:	00 00 00 00 
   101f4:	48 c7 85 78 fe ff ff 	movq   $0x0,-0x188(%rbp)
   101fb:	00 00 00 00 
   101ff:	48 8d 85 10 fe ff ff 	lea    -0x1f0(%rbp),%rax
   10206:	48 89 85 80 fe ff ff 	mov    %rax,-0x180(%rbp)
   1020d:	48 8d 85 08 fe ff ff 	lea    -0x1f8(%rbp),%rax
   10214:	48 89 85 88 fe ff ff 	mov    %rax,-0x178(%rbp)
   1021b:	48 8d 85 0c fe ff ff 	lea    -0x1f4(%rbp),%rax
   10222:	48 89 85 90 fe ff ff 	mov    %rax,-0x170(%rbp)
   10229:	48 8d 85 08 fe ff ff 	lea    -0x1f8(%rbp),%rax
   10230:	48 89 85 98 fe ff ff 	mov    %rax,-0x168(%rbp)
   10237:	48 8d 85 0c fe ff ff 	lea    -0x1f4(%rbp),%rax
   1023e:	48 89 85 a0 fe ff ff 	mov    %rax,-0x160(%rbp)
   10245:	48 8d 85 08 fe ff ff 	lea    -0x1f8(%rbp),%rax
   1024c:	48 89 85 a8 fe ff ff 	mov    %rax,-0x158(%rbp)
   10253:	48 8d 85 0c fe ff ff 	lea    -0x1f4(%rbp),%rax
   1025a:	48 89 85 b0 fe ff ff 	mov    %rax,-0x150(%rbp)
   10261:	48 8d 85 08 fe ff ff 	lea    -0x1f8(%rbp),%rax
   10268:	48 89 85 b8 fe ff ff 	mov    %rax,-0x148(%rbp)
   1026f:	48 8d 85 0c fe ff ff 	lea    -0x1f4(%rbp),%rax
   10276:	48 89 85 c0 fe ff ff 	mov    %rax,-0x140(%rbp)
   1027d:	48 8d 85 08 fe ff ff 	lea    -0x1f8(%rbp),%rax
   10284:	48 89 85 c8 fe ff ff 	mov    %rax,-0x138(%rbp)
   1028b:	48 8d 85 10 fe ff ff 	lea    -0x1f0(%rbp),%rax
   10292:	48 89 85 d0 fe ff ff 	mov    %rax,-0x130(%rbp)
   10299:	48 c7 85 d8 fe ff ff 	movq   $0x0,-0x128(%rbp)
   102a0:	00 00 00 00 
   102a4:	48 c7 85 e0 fe ff ff 	movq   $0x0,-0x120(%rbp)
   102ab:	00 00 00 00 
   102af:	48 8d 85 10 fe ff ff 	lea    -0x1f0(%rbp),%rax
   102b6:	48 89 85 e8 fe ff ff 	mov    %rax,-0x118(%rbp)
   102bd:	48 8d 85 10 fe ff ff 	lea    -0x1f0(%rbp),%rax
   102c4:	48 89 85 f0 fe ff ff 	mov    %rax,-0x110(%rbp)
   102cb:	48 c7 85 f8 fe ff ff 	movq   $0x0,-0x108(%rbp)
   102d2:	00 00 00 00 
   102d6:	48 c7 85 00 ff ff ff 	movq   $0x0,-0x100(%rbp)
   102dd:	00 00 00 00 
   102e1:	48 8d 85 10 fe ff ff 	lea    -0x1f0(%rbp),%rax
   102e8:	48 89 85 08 ff ff ff 	mov    %rax,-0xf8(%rbp)
   102ef:	48 8d 85 10 fe ff ff 	lea    -0x1f0(%rbp),%rax
   102f6:	48 89 85 10 ff ff ff 	mov    %rax,-0xf0(%rbp)
   102fd:	48 8d 85 10 fe ff ff 	lea    -0x1f0(%rbp),%rax
   10304:	48 89 85 18 ff ff ff 	mov    %rax,-0xe8(%rbp)
   1030b:	48 8d 85 0c fe ff ff 	lea    -0x1f4(%rbp),%rax
   10312:	48 89 85 20 ff ff ff 	mov    %rax,-0xe0(%rbp)
   10319:	48 8d 85 10 fe ff ff 	lea    -0x1f0(%rbp),%rax
   10320:	48 89 85 28 ff ff ff 	mov    %rax,-0xd8(%rbp)
   10327:	48 8d 85 0c fe ff ff 	lea    -0x1f4(%rbp),%rax
   1032e:	48 89 85 30 ff ff ff 	mov    %rax,-0xd0(%rbp)
   10335:	48 8d 85 10 fe ff ff 	lea    -0x1f0(%rbp),%rax
   1033c:	48 89 85 38 ff ff ff 	mov    %rax,-0xc8(%rbp)
   10343:	48 8d 85 0c fe ff ff 	lea    -0x1f4(%rbp),%rax
   1034a:	48 89 85 40 ff ff ff 	mov    %rax,-0xc0(%rbp)
   10351:	48 8d 85 10 fe ff ff 	lea    -0x1f0(%rbp),%rax
   10358:	48 89 85 48 ff ff ff 	mov    %rax,-0xb8(%rbp)
   1035f:	48 8d 85 0c fe ff ff 	lea    -0x1f4(%rbp),%rax
   10366:	48 89 85 50 ff ff ff 	mov    %rax,-0xb0(%rbp)
   1036d:	48 8d 85 10 fe ff ff 	lea    -0x1f0(%rbp),%rax
   10374:	48 89 85 58 ff ff ff 	mov    %rax,-0xa8(%rbp)
   1037b:	48 8d 85 10 fe ff ff 	lea    -0x1f0(%rbp),%rax
   10382:	48 89 85 60 ff ff ff 	mov    %rax,-0xa0(%rbp)
   10389:	48 8d 85 10 fe ff ff 	lea    -0x1f0(%rbp),%rax
   10390:	48 89 85 68 ff ff ff 	mov    %rax,-0x98(%rbp)
   10397:	48 c7 85 70 ff ff ff 	movq   $0x0,-0x90(%rbp)
   1039e:	00 00 00 00 
   103a2:	48 c7 85 78 ff ff ff 	movq   $0x0,-0x88(%rbp)
   103a9:	00 00 00 00 
   103ad:	48 8d 85 10 fe ff ff 	lea    -0x1f0(%rbp),%rax
   103b4:	48 89 45 80          	mov    %rax,-0x80(%rbp)
   103b8:	48 8d 85 10 fe ff ff 	lea    -0x1f0(%rbp),%rax
   103bf:	48 89 45 88          	mov    %rax,-0x78(%rbp)
   103c3:	48 c7 45 90 00 00 00 	movq   $0x0,-0x70(%rbp)
   103ca:	00 
   103cb:	48 c7 45 98 00 00 00 	movq   $0x0,-0x68(%rbp)
   103d2:	00 
   103d3:	48 8d 85 10 fe ff ff 	lea    -0x1f0(%rbp),%rax
   103da:	48 89 45 a0          	mov    %rax,-0x60(%rbp)
   103de:	48 8d 85 08 fe ff ff 	lea    -0x1f8(%rbp),%rax
   103e5:	48 89 45 a8          	mov    %rax,-0x58(%rbp)
   103e9:	48 8d 85 0c fe ff ff 	lea    -0x1f4(%rbp),%rax
   103f0:	48 89 45 b0          	mov    %rax,-0x50(%rbp)
   103f4:	48 8d 85 08 fe ff ff 	lea    -0x1f8(%rbp),%rax
   103fb:	48 89 45 b8          	mov    %rax,-0x48(%rbp)
   103ff:	48 8d 85 0c fe ff ff 	lea    -0x1f4(%rbp),%rax
   10406:	48 89 45 c0          	mov    %rax,-0x40(%rbp)
   1040a:	48 8d 85 08 fe ff ff 	lea    -0x1f8(%rbp),%rax
   10411:	48 89 45 c8          	mov    %rax,-0x38(%rbp)
   10415:	48 8d 85 0c fe ff ff 	lea    -0x1f4(%rbp),%rax
   1041c:	48 89 45 d0          	mov    %rax,-0x30(%rbp)
   10420:	48 8d 85 08 fe ff ff 	lea    -0x1f8(%rbp),%rax
   10427:	48 89 45 d8          	mov    %rax,-0x28(%rbp)
   1042b:	48 8d 85 0c fe ff ff 	lea    -0x1f4(%rbp),%rax
   10432:	48 89 45 e0          	mov    %rax,-0x20(%rbp)
   10436:	48 8d 85 08 fe ff ff 	lea    -0x1f8(%rbp),%rax
   1043d:	48 89 45 e8          	mov    %rax,-0x18(%rbp)
   10441:	66 c7 85 06 fe ff ff 	movw   $0x0,-0x1fa(%rbp)
   10448:	00 00 
   1044a:	c7 85 14 fe ff ff 00 	movl   $0x0,-0x1ec(%rbp)
   10451:	00 00 00 
   10454:	eb 1a                	jmp    10470 <func_3+0x361>
   10456:	8b 85 14 fe ff ff    	mov    -0x1ec(%rbp),%eax
   1045c:	48 98                	cltq   
   1045e:	c7 84 85 3c fe ff ff 	movl   $0xa5899bb9,-0x1c4(%rbp,%rax,4)
   10465:	b9 9b 89 a5 
   10469:	83 85 14 fe ff ff 01 	addl   $0x1,-0x1ec(%rbp)
   10470:	83 bd 14 fe ff ff 00 	cmpl   $0x0,-0x1ec(%rbp)
   10477:	7e dd                	jle    10456 <func_3+0x347>
   10479:	66 83 ad 06 fe ff ff 	subw   $0x1,-0x1fa(%rbp)
   10480:	01 
   10481:	8b 85 3c fe ff ff    	mov    -0x1c4(%rbp),%eax
   10487:	48 8b 75 f8          	mov    -0x8(%rbp),%rsi
   1048b:	64 48 33 34 25 28 00 	xor    %fs:0x28,%rsi
   10492:	00 00 
   10494:	74 05                	je     1049b <func_3+0x38c>
   10496:	e8 d5 bb ff ff       	callq  c070 <__stack_chk_fail@plt>
   1049b:	c9                   	leaveq 
   1049c:	c3                   	retq   

000000000001049d <func_10>:
   1049d:	f3 0f 1e fa          	endbr64 
   104a1:	55                   	push   %rbp
   104a2:	48 89 e5             	mov    %rsp,%rbp
   104a5:	53                   	push   %rbx
   104a6:	48 81 ec f8 00 00 00 	sub    $0xf8,%rsp
   104ad:	89 bd 0c ff ff ff    	mov    %edi,-0xf4(%rbp)
   104b3:	89 b5 08 ff ff ff    	mov    %esi,-0xf8(%rbp)
   104b9:	89 95 04 ff ff ff    	mov    %edx,-0xfc(%rbp)
   104bf:	64 48 8b 04 25 28 00 	mov    %fs:0x28,%rax
   104c6:	00 00 
   104c8:	48 89 45 e8          	mov    %rax,-0x18(%rbp)
   104cc:	31 c0                	xor    %eax,%eax
   104ce:	48 8d 05 13 28 01 00 	lea    0x12813(%rip),%rax        # 22ce8 <g_55>
   104d5:	48 89 85 20 ff ff ff 	mov    %rax,-0xe0(%rbp)
   104dc:	66 c7 85 12 ff ff ff 	movw   $0x0,-0xee(%rbp)
   104e3:	00 00 
   104e5:	48 c7 85 28 ff ff ff 	movq   $0x0,-0xd8(%rbp)
   104ec:	00 00 00 00 
   104f0:	48 b8 ff 0d 95 96 52 	movabs $0x9596525296950dff,%rax
   104f7:	52 96 95 
   104fa:	48 89 85 40 ff ff ff 	mov    %rax,-0xc0(%rbp)
   10501:	66 c7 85 48 ff ff ff 	movw   $0xff0d,-0xb8(%rbp)
   10508:	0d ff 
   1050a:	48 bb 0d f6 fb 96 f2 	movabs $0x96f2fff296fbf60d,%rbx
   10511:	ff f2 96 
   10514:	48 89 9d 4a ff ff ff 	mov    %rbx,-0xb6(%rbp)
   1051b:	66 c7 85 52 ff ff ff 	movw   $0xf6fb,-0xae(%rbp)
   10522:	fb f6 
   10524:	48 b9 08 95 ff f6 f2 	movabs $0xf27979f2f6ff9508,%rcx
   1052b:	79 79 f2 
   1052e:	48 89 8d 54 ff ff ff 	mov    %rcx,-0xac(%rbp)
   10535:	66 c7 85 5c ff ff ff 	movw   $0xfff6,-0xa4(%rbp)
   1053c:	f6 ff 
   1053e:	48 bb f2 f2 0d 08 52 	movabs $0x79fb7952080df2f2,%rbx
   10545:	79 fb 79 
   10548:	48 89 9d 5e ff ff ff 	mov    %rbx,-0xa2(%rbp)
   1054f:	66 c7 85 66 ff ff ff 	movw   $0x852,-0x9a(%rbp)
   10556:	52 08 
   10558:	48 b9 08 02 08 79 96 	movabs $0xfbfbff9679080208,%rcx
   1055f:	ff fb fb 
   10562:	48 89 8d 68 ff ff ff 	mov    %rcx,-0x98(%rbp)
   10569:	66 c7 85 70 ff ff ff 	movw   $0x96ff,-0x90(%rbp)
   10570:	ff 96 
   10572:	48 be 0d f2 f2 0d 08 	movabs $0xfb7952080df2f20d,%rsi
   10579:	52 79 fb 
   1057c:	48 89 b5 72 ff ff ff 	mov    %rsi,-0x8e(%rbp)
   10583:	66 c7 85 7a ff ff ff 	movw   $0x5279,-0x86(%rbp)
   1058a:	79 52 
   1058c:	48 bf ff 95 08 95 ff 	movabs $0x79f2f6ff950895ff,%rdi
   10593:	f6 f2 79 
   10596:	48 89 bd 7c ff ff ff 	mov    %rdi,-0x84(%rbp)
   1059d:	66 c7 45 84 79 f2    	movw   $0xf279,-0x7c(%rbp)
   105a3:	48 bb fb f6 0d 0d f6 	movabs $0xf296fbf60d0df6fb,%rbx
   105aa:	fb 96 f2 
   105ad:	48 89 5d 86          	mov    %rbx,-0x7a(%rbp)
   105b1:	66 c7 45 8e ff f2    	movw   $0xf2ff,-0x72(%rbp)
   105b7:	48 ba 95 0d ff 79 ff 	movabs $0x96950dff79ff0d95,%rdx
   105be:	0d 95 96 
   105c1:	48 89 55 90          	mov    %rdx,-0x70(%rbp)
   105c5:	66 c7 45 98 52 52    	movw   $0x5252,-0x68(%rbp)
   105cb:	48 b9 95 52 fb 08 08 	movabs $0x9552fb0808fb5295,%rcx
   105d2:	fb 52 95 
   105d5:	48 89 4d 9a          	mov    %rcx,-0x66(%rbp)
   105d9:	66 c7 45 a2 f6 96    	movw   $0x96f6,-0x5e(%rbp)
   105df:	48 be fb 52 95 f6 96 	movabs $0x5295f696f69552fb,%rsi
   105e6:	f6 95 52 
   105e9:	48 89 75 a4          	mov    %rsi,-0x5c(%rbp)
   105ed:	66 c7 45 ac fb 08    	movw   $0x8fb,-0x54(%rbp)
   105f3:	48 89 45 ae          	mov    %rax,-0x52(%rbp)
   105f7:	66 c7 45 b6 0d ff    	movw   $0xff0d,-0x4a(%rbp)
   105fd:	48 b8 0d f6 fb 96 f2 	movabs $0x52f2fff296fbf60d,%rax
   10604:	ff f2 52 
   10607:	48 89 45 b8          	mov    %rax,-0x48(%rbp)
   1060b:	66 c7 45 c0 08 0d    	movw   $0xd08,-0x40(%rbp)
   10611:	48 b8 f6 02 fb 0d 79 	movabs $0x799595790dfb02f6,%rax
   10618:	95 95 79 
   1061b:	48 89 45 c2          	mov    %rax,-0x3e(%rbp)
   1061f:	66 c7 45 ca 0d fb    	movw   $0xfb0d,-0x36(%rbp)
   10625:	48 b8 79 79 f2 f6 ff 	movabs $0x950895fff6f27979,%rax
   1062c:	95 08 95 
   1062f:	48 89 45 cc          	mov    %rax,-0x34(%rbp)
   10633:	66 c7 45 d4 ff f6    	movw   $0xf6ff,-0x2c(%rbp)
   10639:	48 b8 f6 96 f6 95 52 	movabs $0x808fb5295f696f6,%rax
   10640:	fb 08 08 
   10643:	48 89 45 d6          	mov    %rax,-0x2a(%rbp)
   10647:	66 c7 45 de fb 52    	movw   $0x52fb,-0x22(%rbp)
   1064d:	48 8d 05 24 bd 00 00 	lea    0xbd24(%rip),%rax        # 1c378 <g_244+0x158>
   10654:	48 89 85 30 ff ff ff 	mov    %rax,-0xd0(%rbp)
   1065b:	48 8d 05 96 07 01 00 	lea    0x10796(%rip),%rax        # 20df8 <g_950>
   10662:	48 89 85 18 ff ff ff 	mov    %rax,-0xe8(%rbp)
   10669:	48 8d 85 18 ff ff ff 	lea    -0xe8(%rbp),%rax
   10670:	48 89 85 38 ff ff ff 	mov    %rax,-0xc8(%rbp)
   10677:	c7 85 14 ff ff ff 2f 	movl   $0xa587eb2f,-0xec(%rbp)
   1067e:	eb 87 a5 
   10681:	8b 85 0c ff ff ff    	mov    -0xf4(%rbp),%eax
   10687:	0f be d8             	movsbl %al,%ebx
   1068a:	48 8b 05 af 01 01 00 	mov    0x101af(%rip),%rax        # 20840 <g_70>
   10691:	8b 00                	mov    (%rax),%eax
   10693:	89 c2                	mov    %eax,%edx
   10695:	48 8b 05 f4 ca 00 00 	mov    0xcaf4(%rip),%rax        # 1d190 <g_517+0x970>
   1069c:	81 bd 0c ff ff ff f8 	cmpl   $0x74f8,-0xf4(%rbp)
   106a3:	74 00 00 
   106a6:	74 07                	je     106af <func_10+0x212>
   106a8:	b9 01 00 00 00       	mov    $0x1,%ecx
   106ad:	eb 05                	jmp    106b4 <func_10+0x217>
   106af:	b9 00 00 00 00       	mov    $0x0,%ecx
   106b4:	48 8b 85 20 ff ff ff 	mov    -0xe0(%rbp),%rax
   106bb:	89 08                	mov    %ecx,(%rax)
   106bd:	48 8b 85 20 ff ff ff 	mov    -0xe0(%rbp),%rax
   106c4:	8b 00                	mov    (%rax),%eax
   106c6:	89 d6                	mov    %edx,%esi
   106c8:	89 c7                	mov    %eax,%edi
   106ca:	e8 01 c8 ff ff       	callq  ced0 <safe_sub_func_uint32_t_u_u>
   106cf:	0f be c0             	movsbl %al,%eax
   106d2:	89 de                	mov    %ebx,%esi
   106d4:	89 c7                	mov    %eax,%edi
   106d6:	e8 37 bb ff ff       	callq  c212 <safe_mul_func_int8_t_s_s>
   106db:	0f b6 85 7b ff ff ff 	movzbl -0x85(%rbp),%eax
   106e2:	0f be c0             	movsbl %al,%eax
   106e5:	be d8 78 00 00       	mov    $0x78d8,%esi
   106ea:	89 c7                	mov    %eax,%edi
   106ec:	e8 04 bd ff ff       	callq  c3f5 <safe_mul_func_int16_t_s_s>
   106f1:	98                   	cwtl   
   106f2:	39 85 08 ff ff ff    	cmp    %eax,-0xf8(%rbp)
   106f8:	0f 94 c0             	sete   %al
   106fb:	0f b6 d0             	movzbl %al,%edx
   106fe:	48 8b 85 30 ff ff ff 	mov    -0xd0(%rbp),%rax
   10705:	8b 00                	mov    (%rax),%eax
   10707:	21 c2                	and    %eax,%edx
   10709:	48 8b 85 30 ff ff ff 	mov    -0xd0(%rbp),%rax
   10710:	89 10                	mov    %edx,(%rax)
   10712:	be 00 00 00 00       	mov    $0x0,%esi
   10717:	bf 00 00 00 00       	mov    $0x0,%edi
   1071c:	e8 1c c6 ff ff       	callq  cd3d <safe_mul_func_uint16_t_u_u>
   10721:	b8 01 00 00 00       	mov    $0x1,%eax
   10726:	21 85 14 ff ff ff    	and    %eax,-0xec(%rbp)
   1072c:	48 8b 05 b5 06 01 00 	mov    0x106b5(%rip),%rax        # 20de8 <g_731>
   10733:	0f b6 00             	movzbl (%rax),%eax
   10736:	48 8b 7d e8          	mov    -0x18(%rbp),%rdi
   1073a:	64 48 33 3c 25 28 00 	xor    %fs:0x28,%rdi
   10741:	00 00 
   10743:	74 05                	je     1074a <func_10+0x2ad>
   10745:	e8 26 b9 ff ff       	callq  c070 <__stack_chk_fail@plt>
   1074a:	48 81 c4 f8 00 00 00 	add    $0xf8,%rsp
   10751:	5b                   	pop    %rbx
   10752:	5d                   	pop    %rbp
   10753:	c3                   	retq   

0000000000010754 <func_16>:
   10754:	f3 0f 1e fa          	endbr64 
   10758:	55                   	push   %rbp
   10759:	48 89 e5             	mov    %rsp,%rbp
   1075c:	53                   	push   %rbx
   1075d:	48 81 ec 88 02 00 00 	sub    $0x288,%rsp
   10764:	89 f9                	mov    %edi,%ecx
   10766:	89 b5 78 fd ff ff    	mov    %esi,-0x288(%rbp)
   1076c:	89 d0                	mov    %edx,%eax
   1076e:	89 ca                	mov    %ecx,%edx
   10770:	66 89 95 7c fd ff ff 	mov    %dx,-0x284(%rbp)
   10777:	66 89 85 74 fd ff ff 	mov    %ax,-0x28c(%rbp)
   1077e:	64 48 8b 04 25 28 00 	mov    %fs:0x28,%rax
   10785:	00 00 
   10787:	48 89 45 e8          	mov    %rax,-0x18(%rbp)
   1078b:	31 c0                	xor    %eax,%eax
   1078d:	48 8d 05 dc b9 00 00 	lea    0xb9dc(%rip),%rax        # 1c170 <g_225+0x10>
   10794:	48 89 85 f0 fd ff ff 	mov    %rax,-0x210(%rbp)
   1079b:	48 8d 05 f6 08 01 00 	lea    0x108f6(%rip),%rax        # 21098 <g_1343>
   107a2:	48 89 85 c8 fd ff ff 	mov    %rax,-0x238(%rbp)
   107a9:	c7 85 70 fe ff ff de 	movl   $0x2a1b93de,-0x190(%rbp)
   107b0:	93 1b 2a 
   107b3:	c7 85 74 fe ff ff de 	movl   $0x2a1b93de,-0x18c(%rbp)
   107ba:	93 1b 2a 
   107bd:	c7 85 78 fe ff ff de 	movl   $0x2a1b93de,-0x188(%rbp)
   107c4:	93 1b 2a 
   107c7:	c7 85 7c fe ff ff de 	movl   $0x2a1b93de,-0x184(%rbp)
   107ce:	93 1b 2a 
   107d1:	c7 85 98 fd ff ff 02 	movl   $0x2,-0x268(%rbp)
   107d8:	00 00 00 
   107db:	c7 85 9c fd ff ff 44 	movl   $0x91021444,-0x264(%rbp)
   107e2:	14 02 91 
   107e5:	c7 85 a0 fd ff ff 7e 	movl   $0xc476e27e,-0x260(%rbp)
   107ec:	e2 76 c4 
   107ef:	66 c7 85 68 fe ff ff 	movw   $0xfffa,-0x198(%rbp)
   107f6:	fa ff 
   107f8:	66 c7 85 6a fe ff ff 	movw   $0x73d6,-0x196(%rbp)
   107ff:	d6 73 
   10801:	66 c7 85 6c fe ff ff 	movw   $0xfffa,-0x194(%rbp)
   10808:	fa ff 
   1080a:	66 c7 85 6e fe ff ff 	movw   $0x73d6,-0x192(%rbp)
   10811:	d6 73 
   10813:	48 8d 05 86 08 01 00 	lea    0x10886(%rip),%rax        # 210a0 <g_1342>
   1081a:	48 89 85 f8 fd ff ff 	mov    %rax,-0x208(%rbp)
   10821:	c7 85 90 fd ff ff f5 	movl   $0xdf4304f5,-0x270(%rbp)
   10828:	04 43 df 
   1082b:	c6 85 8c fd ff ff f9 	movb   $0xf9,-0x274(%rbp)
   10832:	48 b8 38 42 53 b1 e3 	movabs $0xc46924e3b1534238,%rax
   10839:	24 69 c4 
   1083c:	48 89 85 00 fe ff ff 	mov    %rax,-0x200(%rbp)
   10843:	c7 85 a4 fd ff ff 79 	movl   $0x78f8be79,-0x25c(%rbp)
   1084a:	be f8 78 
   1084d:	c7 85 94 fd ff ff 00 	movl   $0x0,-0x26c(%rbp)
   10854:	00 00 00 
   10857:	eb 19                	jmp    10872 <func_16+0x11e>
   10859:	8b 85 94 fd ff ff    	mov    -0x26c(%rbp),%eax
   1085f:	48 98                	cltq   
   10861:	66 c7 84 45 66 fe ff 	movw   $0x0,-0x19a(%rbp,%rax,2)
   10868:	ff 00 00 
   1086b:	83 85 94 fd ff ff 01 	addl   $0x1,-0x26c(%rbp)
   10872:	83 bd 94 fd ff ff 00 	cmpl   $0x0,-0x26c(%rbp)
   10879:	7e de                	jle    10859 <func_16+0x105>
   1087b:	c7 05 77 bd 00 00 00 	movl   $0x0,0xbd77(%rip)        # 1c5fc <g_445>
   10882:	00 00 00 
   10885:	e9 f7 02 00 00       	jmpq   10b81 <func_16+0x42d>
   1088a:	48 8d 05 57 24 01 00 	lea    0x12457(%rip),%rax        # 22ce8 <g_55>
   10891:	48 89 85 08 fe ff ff 	mov    %rax,-0x1f8(%rbp)
   10898:	48 c7 85 d0 fd ff ff 	movq   $0x0,-0x230(%rbp)
   1089f:	00 00 00 00 
   108a3:	48 8d 85 d0 fd ff ff 	lea    -0x230(%rbp),%rax
   108aa:	48 89 85 d8 fd ff ff 	mov    %rax,-0x228(%rbp)
   108b1:	48 8d 85 d8 fd ff ff 	lea    -0x228(%rbp),%rax
   108b8:	48 89 85 10 fe ff ff 	mov    %rax,-0x1f0(%rbp)
   108bf:	48 8d 85 80 fe ff ff 	lea    -0x180(%rbp),%rax
   108c6:	48 8d 15 13 80 00 00 	lea    0x8013(%rip),%rdx        # 188e0 <g_2177+0x884>
   108cd:	b9 2d 00 00 00       	mov    $0x2d,%ecx
   108d2:	48 89 c7             	mov    %rax,%rdi
   108d5:	48 89 d6             	mov    %rdx,%rsi
   108d8:	f3 48 a5             	rep movsq %ds:(%rsi),%es:(%rdi)
   108db:	48 8d 85 c8 fd ff ff 	lea    -0x238(%rbp),%rax
   108e2:	48 89 85 18 fe ff ff 	mov    %rax,-0x1e8(%rbp)
   108e9:	48 c7 85 20 fe ff ff 	movq   $0x7,-0x1e0(%rbp)
   108f0:	07 00 00 00 
   108f4:	48 8d 85 80 fe ff ff 	lea    -0x180(%rbp),%rax
   108fb:	48 83 c0 78          	add    $0x78,%rax
   108ff:	48 89 85 28 fe ff ff 	mov    %rax,-0x1d8(%rbp)
   10906:	66 c7 85 8e fd ff ff 	movw   $0xd6a8,-0x272(%rbp)
   1090d:	a8 d6 
   1090f:	48 8d 05 62 b8 00 00 	lea    0xb862(%rip),%rax        # 1c178 <g_225+0x18>
   10916:	48 89 85 30 fe ff ff 	mov    %rax,-0x1d0(%rbp)
   1091d:	48 c7 85 38 fe ff ff 	movq   $0x5,-0x1c8(%rbp)
   10924:	05 00 00 00 
   10928:	c6 85 8d fd ff ff ff 	movb   $0xff,-0x273(%rbp)
   1092f:	48 8d 05 00 b8 00 00 	lea    0xb800(%rip),%rax        # 1c136 <g_205+0x6>
   10936:	48 89 85 40 fe ff ff 	mov    %rax,-0x1c0(%rbp)
   1093d:	48 83 bd f0 fd ff ff 	cmpq   $0x0,-0x210(%rbp)
   10944:	00 
   10945:	0f 95 c2             	setne  %dl
   10948:	48 8b 05 f1 fe 00 00 	mov    0xfef1(%rip),%rax        # 20840 <g_70>
   1094f:	0f b6 d2             	movzbl %dl,%edx
   10952:	89 10                	mov    %edx,(%rax)
   10954:	66 c7 05 d3 b6 00 00 	movw   $0x0,0xb6d3(%rip)        # 1c030 <g_96>
   1095b:	00 00 
   1095d:	e9 cd 00 00 00       	jmpq   10a2f <func_16+0x2db>
   10962:	c7 85 a8 fd ff ff 00 	movl   $0x0,-0x258(%rbp)
   10969:	00 00 00 
   1096c:	c7 85 ac fd ff ff 5f 	movl   $0x1ebd425f,-0x254(%rbp)
   10973:	42 bd 1e 
   10976:	c7 85 b0 fd ff ff 01 	movl   $0x1,-0x250(%rbp)
   1097d:	00 00 00 
   10980:	c7 85 b4 fd ff ff 09 	movl   $0x9,-0x24c(%rbp)
   10987:	00 00 00 
   1098a:	c7 85 b8 fd ff ff 98 	movl   $0xf1244b98,-0x248(%rbp)
   10991:	4b 24 f1 
   10994:	c7 85 bc fd ff ff 03 	movl   $0x3,-0x244(%rbp)
   1099b:	00 00 00 
   1099e:	48 8d 85 c8 fd ff ff 	lea    -0x238(%rbp),%rax
   109a5:	48 89 85 48 fe ff ff 	mov    %rax,-0x1b8(%rbp)
   109ac:	c7 85 c0 fd ff ff 9b 	movl   $0x9a8c3e9b,-0x240(%rbp)
   109b3:	3e 8c 9a 
   109b6:	c7 85 c4 fd ff ff f8 	movl   $0xfffffff8,-0x23c(%rbp)
   109bd:	ff ff ff 
   109c0:	48 8d 05 d9 06 01 00 	lea    0x106d9(%rip),%rax        # 210a0 <g_1342>
   109c7:	48 89 85 e0 fd ff ff 	mov    %rax,-0x220(%rbp)
   109ce:	48 8d 85 e0 fd ff ff 	lea    -0x220(%rbp),%rax
   109d5:	48 89 85 e8 fd ff ff 	mov    %rax,-0x218(%rbp)
   109dc:	48 8d 85 e8 fd ff ff 	lea    -0x218(%rbp),%rax
   109e3:	48 89 85 50 fe ff ff 	mov    %rax,-0x1b0(%rbp)
   109ea:	48 8d 05 df 23 01 00 	lea    0x123df(%rip),%rax        # 22dd0 <g_1377>
   109f1:	48 89 85 58 fe ff ff 	mov    %rax,-0x1a8(%rbp)
   109f8:	0f b7 05 31 b6 00 00 	movzwl 0xb631(%rip),%eax        # 1c030 <g_96>
   109ff:	0f b7 c0             	movzwl %ax,%eax
   10a02:	83 c0 01             	add    $0x1,%eax
   10a05:	48 98                	cltq   
   10a07:	48 8d 15 22 b7 00 00 	lea    0xb722(%rip),%rdx        # 1c130 <g_205>
   10a0e:	0f b6 14 10          	movzbl (%rax,%rdx,1),%edx
   10a12:	48 8b 05 27 fe 00 00 	mov    0xfe27(%rip),%rax        # 20840 <g_70>
   10a19:	0f b6 d2             	movzbl %dl,%edx
   10a1c:	89 10                	mov    %edx,(%rax)
   10a1e:	0f b7 05 0b b6 00 00 	movzwl 0xb60b(%rip),%eax        # 1c030 <g_96>
   10a25:	83 c0 01             	add    $0x1,%eax
   10a28:	66 89 05 01 b6 00 00 	mov    %ax,0xb601(%rip)        # 1c030 <g_96>
   10a2f:	0f b7 05 fa b5 00 00 	movzwl 0xb5fa(%rip),%eax        # 1c030 <g_96>
   10a36:	66 83 f8 02          	cmp    $0x2,%ax
   10a3a:	0f 86 22 ff ff ff    	jbe    10962 <func_16+0x20e>
   10a40:	0f b7 85 7c fd ff ff 	movzwl -0x284(%rbp),%eax
   10a47:	0f b6 d0             	movzbl %al,%edx
   10a4a:	0f b7 85 7c fd ff ff 	movzwl -0x284(%rbp),%eax
   10a51:	89 c1                	mov    %eax,%ecx
   10a53:	8b 85 70 fe ff ff    	mov    -0x190(%rbp),%eax
   10a59:	21 c8                	and    %ecx,%eax
   10a5b:	0f b6 c0             	movzbl %al,%eax
   10a5e:	89 d6                	mov    %edx,%esi
   10a60:	89 c7                	mov    %eax,%edi
   10a62:	e8 74 c1 ff ff       	callq  cbdb <safe_div_func_uint8_t_u_u>
   10a67:	8b 9d 78 fd ff ff    	mov    -0x288(%rbp),%ebx
   10a6d:	48 8b 05 7c 03 01 00 	mov    0x1037c(%rip),%rax        # 20df0 <g_730>
   10a74:	48 8b 00             	mov    (%rax),%rax
   10a77:	0f b6 00             	movzbl (%rax),%eax
   10a7a:	0f be c0             	movsbl %al,%eax
   10a7d:	be 01 00 00 00       	mov    $0x1,%esi
   10a82:	89 c7                	mov    %eax,%edi
   10a84:	e8 89 b7 ff ff       	callq  c212 <safe_mul_func_int8_t_s_s>
   10a89:	89 c2                	mov    %eax,%edx
   10a8b:	48 8b 05 4e bb 00 00 	mov    0xbb4e(%rip),%rax        # 1c5e0 <g_322>
   10a92:	48 c1 e0 19          	shl    $0x19,%rax
   10a96:	48 c1 f8 21          	sar    $0x21,%rax
   10a9a:	31 c2                	xor    %eax,%edx
   10a9c:	48 8b 05 15 ca 00 00 	mov    0xca15(%rip),%rax        # 1d4b8 <g_877>
   10aa3:	48 c1 e0 19          	shl    $0x19,%rax
   10aa7:	48 c1 f8 21          	sar    $0x21,%rax
   10aab:	31 d0                	xor    %edx,%eax
   10aad:	0f b6 c0             	movzbl %al,%eax
   10ab0:	be 16 00 00 00       	mov    $0x16,%esi
   10ab5:	89 c7                	mov    %eax,%edi
   10ab7:	e8 1f c1 ff ff       	callq  cbdb <safe_div_func_uint8_t_u_u>
   10abc:	0f b6 c0             	movzbl %al,%eax
   10abf:	89 de                	mov    %ebx,%esi
   10ac1:	89 c7                	mov    %eax,%edi
   10ac3:	e8 5d c4 ff ff       	callq  cf25 <safe_div_func_uint32_t_u_u>
   10ac8:	48 8b 85 40 fe ff ff 	mov    -0x1c0(%rbp),%rax
   10acf:	0f b6 00             	movzbl (%rax),%eax
   10ad2:	8d 50 ff             	lea    -0x1(%rax),%edx
   10ad5:	48 8b 85 40 fe ff ff 	mov    -0x1c0(%rbp),%rax
   10adc:	88 10                	mov    %dl,(%rax)
   10ade:	48 8b 85 08 fe ff ff 	mov    -0x1f8(%rbp),%rax
   10ae5:	8b 00                	mov    (%rax),%eax
   10ae7:	89 85 a4 fd ff ff    	mov    %eax,-0x25c(%rbp)
   10aed:	8b 85 a4 fd ff ff    	mov    -0x25c(%rbp),%eax
   10af3:	be 01 00 00 00       	mov    $0x1,%esi
   10af8:	48 89 c7             	mov    %rax,%rdi
   10afb:	e8 2e c5 ff ff       	callq  d02e <safe_add_func_uint64_t_u_u>
   10b00:	48 89 c2             	mov    %rax,%rdx
   10b03:	48 8b 85 18 fe ff ff 	mov    -0x1e8(%rbp),%rax
   10b0a:	48 8b 00             	mov    (%rax),%rax
   10b0d:	48 8b 00             	mov    (%rax),%rax
   10b10:	66 89 10             	mov    %dx,(%rax)
   10b13:	0f b7 00             	movzwl (%rax),%eax
   10b16:	66 85 c0             	test   %ax,%ax
   10b19:	74 11                	je     10b2c <func_16+0x3d8>
   10b1b:	8b 85 78 fe ff ff    	mov    -0x188(%rbp),%eax
   10b21:	85 c0                	test   %eax,%eax
   10b23:	74 07                	je     10b2c <func_16+0x3d8>
   10b25:	ba 01 00 00 00       	mov    $0x1,%edx
   10b2a:	eb 05                	jmp    10b31 <func_16+0x3dd>
   10b2c:	ba 00 00 00 00       	mov    $0x0,%edx
   10b31:	48 8b 05 b8 02 01 00 	mov    0x102b8(%rip),%rax        # 20df0 <g_730>
   10b38:	48 8b 00             	mov    (%rax),%rax
   10b3b:	0f b6 00             	movzbl (%rax),%eax
   10b3e:	0f be c0             	movsbl %al,%eax
   10b41:	39 c2                	cmp    %eax,%edx
   10b43:	0f 95 c0             	setne  %al
   10b46:	0f b6 d0             	movzbl %al,%edx
   10b49:	48 8b 85 08 fe ff ff 	mov    -0x1f8(%rbp),%rax
   10b50:	8b 00                	mov    (%rax),%eax
   10b52:	39 c2                	cmp    %eax,%edx
   10b54:	0f 9e c0             	setle  %al
   10b57:	0f b6 d0             	movzbl %al,%edx
   10b5a:	0f bf 85 7c fd ff ff 	movswl -0x284(%rbp),%eax
   10b61:	39 c2                	cmp    %eax,%edx
   10b63:	0f 9d c0             	setge  %al
   10b66:	0f b6 d0             	movzbl %al,%edx
   10b69:	48 8b 05 d0 fc 00 00 	mov    0xfcd0(%rip),%rax        # 20840 <g_70>
   10b70:	89 10                	mov    %edx,(%rax)
   10b72:	8b 05 84 ba 00 00    	mov    0xba84(%rip),%eax        # 1c5fc <g_445>
   10b78:	83 c0 01             	add    $0x1,%eax
   10b7b:	89 05 7b ba 00 00    	mov    %eax,0xba7b(%rip)        # 1c5fc <g_445>
   10b81:	8b 05 75 ba 00 00    	mov    0xba75(%rip),%eax        # 1c5fc <g_445>
   10b87:	83 f8 06             	cmp    $0x6,%eax
   10b8a:	0f 86 fa fc ff ff    	jbe    1088a <func_16+0x136>
   10b90:	48 8b 05 b9 c8 00 00 	mov    0xc8b9(%rip),%rax        # 1d450 <g_874+0x10>
   10b97:	48 c1 e8 10          	shr    $0x10,%rax
   10b9b:	25 ff ff 7f 00       	and    $0x7fffff,%eax
   10ba0:	48 8b 5d e8          	mov    -0x18(%rbp),%rbx
   10ba4:	64 48 33 1c 25 28 00 	xor    %fs:0x28,%rbx
   10bab:	00 00 
   10bad:	74 05                	je     10bb4 <func_16+0x460>
   10baf:	e8 bc b4 ff ff       	callq  c070 <__stack_chk_fail@plt>
   10bb4:	48 81 c4 88 02 00 00 	add    $0x288,%rsp
   10bbb:	5b                   	pop    %rbx
   10bbc:	5d                   	pop    %rbp
   10bbd:	c3                   	retq   

0000000000010bbe <func_20>:
   10bbe:	f3 0f 1e fa          	endbr64 
   10bc2:	55                   	push   %rbp
   10bc3:	48 89 e5             	mov    %rsp,%rbp
   10bc6:	53                   	push   %rbx
   10bc7:	48 81 ec 00 10 00 00 	sub    $0x1000,%rsp
   10bce:	48 83 0c 24 00       	orq    $0x0,(%rsp)
   10bd3:	48 81 ec c8 02 00 00 	sub    $0x2c8,%rsp
   10bda:	89 bd 3c ed ff ff    	mov    %edi,-0x12c4(%rbp)
   10be0:	89 b5 38 ed ff ff    	mov    %esi,-0x12c8(%rbp)
   10be6:	89 95 34 ed ff ff    	mov    %edx,-0x12cc(%rbp)
   10bec:	89 8d 30 ed ff ff    	mov    %ecx,-0x12d0(%rbp)
   10bf2:	64 48 8b 04 25 28 00 	mov    %fs:0x28,%rax
   10bf9:	00 00 
   10bfb:	48 89 45 e8          	mov    %rax,-0x18(%rbp)
   10bff:	31 c0                	xor    %eax,%eax
   10c01:	48 b8 23 41 d3 73 99 	movabs $0xea735c9973d34123,%rax
   10c08:	5c 73 ea 
   10c0b:	48 89 85 88 ed ff ff 	mov    %rax,-0x1278(%rbp)
   10c12:	c7 85 4c ed ff ff f1 	movl   $0xbb037ef1,-0x12b4(%rbp)
   10c19:	7e 03 bb 
   10c1c:	48 c7 85 60 ed ff ff 	movq   $0x0,-0x12a0(%rbp)
   10c23:	00 00 00 00 
   10c27:	48 8d 85 60 ed ff ff 	lea    -0x12a0(%rbp),%rax
   10c2e:	48 89 85 90 ed ff ff 	mov    %rax,-0x1270(%rbp)
   10c35:	48 8d 05 3c b5 00 00 	lea    0xb53c(%rip),%rax        # 1c178 <g_225+0x18>
   10c3c:	48 89 85 98 ed ff ff 	mov    %rax,-0x1268(%rbp)
   10c43:	48 8d 05 b6 c7 00 00 	lea    0xc7b6(%rip),%rax        # 1d400 <g_606>
   10c4a:	48 89 85 a0 ed ff ff 	mov    %rax,-0x1260(%rbp)
   10c51:	48 c7 85 a8 ed ff ff 	movq   $0x0,-0x1258(%rbp)
   10c58:	00 00 00 00 
   10c5c:	48 8d 85 70 f1 ff ff 	lea    -0xe90(%rbp),%rax
   10c63:	48 8d 15 d6 e0 00 00 	lea    0xe0d6(%rip),%rdx        # 1ed40 <g_2335+0x105c>
   10c6a:	b9 d2 00 00 00       	mov    $0xd2,%ecx
   10c6f:	48 89 c7             	mov    %rax,%rdi
   10c72:	48 89 d6             	mov    %rdx,%rsi
   10c75:	f3 48 a5             	rep movsq %ds:(%rsi),%es:(%rdi)
   10c78:	48 8d 05 39 c8 00 00 	lea    0xc839(%rip),%rax        # 1d4b8 <g_877>
   10c7f:	48 89 85 68 ed ff ff 	mov    %rax,-0x1298(%rbp)
   10c86:	48 c7 85 00 f8 ff ff 	movq   $0x0,-0x800(%rbp)
   10c8d:	00 00 00 00 
   10c91:	48 8d 85 68 ed ff ff 	lea    -0x1298(%rbp),%rax
   10c98:	48 89 85 08 f8 ff ff 	mov    %rax,-0x7f8(%rbp)
   10c9f:	48 8d 85 68 ed ff ff 	lea    -0x1298(%rbp),%rax
   10ca6:	48 89 85 10 f8 ff ff 	mov    %rax,-0x7f0(%rbp)
   10cad:	48 c7 85 18 f8 ff ff 	movq   $0x0,-0x7e8(%rbp)
   10cb4:	00 00 00 00 
   10cb8:	48 8d 85 68 ed ff ff 	lea    -0x1298(%rbp),%rax
   10cbf:	48 89 85 20 f8 ff ff 	mov    %rax,-0x7e0(%rbp)
   10cc6:	48 c7 85 28 f8 ff ff 	movq   $0x0,-0x7d8(%rbp)
   10ccd:	00 00 00 00 
   10cd1:	48 8d 85 68 ed ff ff 	lea    -0x1298(%rbp),%rax
   10cd8:	48 89 85 30 f8 ff ff 	mov    %rax,-0x7d0(%rbp)
   10cdf:	48 c7 85 38 f8 ff ff 	movq   $0x0,-0x7c8(%rbp)
   10ce6:	00 00 00 00 
   10cea:	48 8d 85 68 ed ff ff 	lea    -0x1298(%rbp),%rax
   10cf1:	48 89 85 40 f8 ff ff 	mov    %rax,-0x7c0(%rbp)
   10cf8:	48 8d 85 68 ed ff ff 	lea    -0x1298(%rbp),%rax
   10cff:	48 89 85 48 f8 ff ff 	mov    %rax,-0x7b8(%rbp)
   10d06:	48 c7 85 50 f8 ff ff 	movq   $0x0,-0x7b0(%rbp)
   10d0d:	00 00 00 00 
   10d11:	48 c7 85 58 f8 ff ff 	movq   $0x0,-0x7a8(%rbp)
   10d18:	00 00 00 00 
   10d1c:	48 8d 85 68 ed ff ff 	lea    -0x1298(%rbp),%rax
   10d23:	48 89 85 60 f8 ff ff 	mov    %rax,-0x7a0(%rbp)
   10d2a:	48 8d 85 68 ed ff ff 	lea    -0x1298(%rbp),%rax
   10d31:	48 89 85 68 f8 ff ff 	mov    %rax,-0x798(%rbp)
   10d38:	48 8d 85 68 ed ff ff 	lea    -0x1298(%rbp),%rax
   10d3f:	48 89 85 70 f8 ff ff 	mov    %rax,-0x790(%rbp)
   10d46:	48 c7 85 78 f8 ff ff 	movq   $0x0,-0x788(%rbp)
   10d4d:	00 00 00 00 
   10d51:	48 8d 85 68 ed ff ff 	lea    -0x1298(%rbp),%rax
   10d58:	48 89 85 80 f8 ff ff 	mov    %rax,-0x780(%rbp)
   10d5f:	48 c7 85 88 f8 ff ff 	movq   $0x0,-0x778(%rbp)
   10d66:	00 00 00 00 
   10d6a:	48 c7 85 90 f8 ff ff 	movq   $0x0,-0x770(%rbp)
   10d71:	00 00 00 00 
   10d75:	48 8d 85 68 ed ff ff 	lea    -0x1298(%rbp),%rax
   10d7c:	48 89 85 98 f8 ff ff 	mov    %rax,-0x768(%rbp)
   10d83:	48 8d 85 68 ed ff ff 	lea    -0x1298(%rbp),%rax
   10d8a:	48 89 85 a0 f8 ff ff 	mov    %rax,-0x760(%rbp)
   10d91:	48 c7 85 a8 f8 ff ff 	movq   $0x0,-0x758(%rbp)
   10d98:	00 00 00 00 
   10d9c:	48 8d 85 68 ed ff ff 	lea    -0x1298(%rbp),%rax
   10da3:	48 89 85 b0 f8 ff ff 	mov    %rax,-0x750(%rbp)
   10daa:	48 8d 85 68 ed ff ff 	lea    -0x1298(%rbp),%rax
   10db1:	48 89 85 b8 f8 ff ff 	mov    %rax,-0x748(%rbp)
   10db8:	48 8d 85 68 ed ff ff 	lea    -0x1298(%rbp),%rax
   10dbf:	48 89 85 c0 f8 ff ff 	mov    %rax,-0x740(%rbp)
   10dc6:	48 8d 85 68 ed ff ff 	lea    -0x1298(%rbp),%rax
   10dcd:	48 89 85 c8 f8 ff ff 	mov    %rax,-0x738(%rbp)
   10dd4:	48 8d 85 68 ed ff ff 	lea    -0x1298(%rbp),%rax
   10ddb:	48 89 85 d0 f8 ff ff 	mov    %rax,-0x730(%rbp)
   10de2:	48 8d 85 68 ed ff ff 	lea    -0x1298(%rbp),%rax
   10de9:	48 89 85 d8 f8 ff ff 	mov    %rax,-0x728(%rbp)
   10df0:	48 8d 85 68 ed ff ff 	lea    -0x1298(%rbp),%rax
   10df7:	48 89 85 e0 f8 ff ff 	mov    %rax,-0x720(%rbp)
   10dfe:	48 c7 85 e8 f8 ff ff 	movq   $0x0,-0x718(%rbp)
   10e05:	00 00 00 00 
   10e09:	48 8d 85 68 ed ff ff 	lea    -0x1298(%rbp),%rax
   10e10:	48 89 85 f0 f8 ff ff 	mov    %rax,-0x710(%rbp)
   10e17:	48 8d 85 68 ed ff ff 	lea    -0x1298(%rbp),%rax
   10e1e:	48 89 85 f8 f8 ff ff 	mov    %rax,-0x708(%rbp)
   10e25:	48 c7 85 00 f9 ff ff 	movq   $0x0,-0x700(%rbp)
   10e2c:	00 00 00 00 
   10e30:	48 8d 85 68 ed ff ff 	lea    -0x1298(%rbp),%rax
   10e37:	48 89 85 08 f9 ff ff 	mov    %rax,-0x6f8(%rbp)
   10e3e:	48 8d 85 68 ed ff ff 	lea    -0x1298(%rbp),%rax
   10e45:	48 89 85 10 f9 ff ff 	mov    %rax,-0x6f0(%rbp)
   10e4c:	48 8d 85 68 ed ff ff 	lea    -0x1298(%rbp),%rax
   10e53:	48 89 85 18 f9 ff ff 	mov    %rax,-0x6e8(%rbp)
   10e5a:	48 c7 85 20 f9 ff ff 	movq   $0x0,-0x6e0(%rbp)
   10e61:	00 00 00 00 
   10e65:	48 8d 85 68 ed ff ff 	lea    -0x1298(%rbp),%rax
   10e6c:	48 89 85 28 f9 ff ff 	mov    %rax,-0x6d8(%rbp)
   10e73:	48 8d 85 68 ed ff ff 	lea    -0x1298(%rbp),%rax
   10e7a:	48 89 85 30 f9 ff ff 	mov    %rax,-0x6d0(%rbp)
   10e81:	48 8d 85 68 ed ff ff 	lea    -0x1298(%rbp),%rax
   10e88:	48 89 85 38 f9 ff ff 	mov    %rax,-0x6c8(%rbp)
   10e8f:	48 8d 85 68 ed ff ff 	lea    -0x1298(%rbp),%rax
   10e96:	48 89 85 40 f9 ff ff 	mov    %rax,-0x6c0(%rbp)
   10e9d:	48 c7 85 48 f9 ff ff 	movq   $0x0,-0x6b8(%rbp)
   10ea4:	00 00 00 00 
   10ea8:	48 8d 85 68 ed ff ff 	lea    -0x1298(%rbp),%rax
   10eaf:	48 89 85 50 f9 ff ff 	mov    %rax,-0x6b0(%rbp)
   10eb6:	48 c7 85 58 f9 ff ff 	movq   $0x0,-0x6a8(%rbp)
   10ebd:	00 00 00 00 
   10ec1:	48 8d 85 68 ed ff ff 	lea    -0x1298(%rbp),%rax
   10ec8:	48 89 85 60 f9 ff ff 	mov    %rax,-0x6a0(%rbp)
   10ecf:	48 8d 85 68 ed ff ff 	lea    -0x1298(%rbp),%rax
   10ed6:	48 89 85 68 f9 ff ff 	mov    %rax,-0x698(%rbp)
   10edd:	48 8d 85 68 ed ff ff 	lea    -0x1298(%rbp),%rax
   10ee4:	48 89 85 70 f9 ff ff 	mov    %rax,-0x690(%rbp)
   10eeb:	48 8d 85 68 ed ff ff 	lea    -0x1298(%rbp),%rax
   10ef2:	48 89 85 78 f9 ff ff 	mov    %rax,-0x688(%rbp)
   10ef9:	48 c7 85 80 f9 ff ff 	movq   $0x0,-0x680(%rbp)
   10f00:	00 00 00 00 
   10f04:	48 8d 85 68 ed ff ff 	lea    -0x1298(%rbp),%rax
   10f0b:	48 89 85 88 f9 ff ff 	mov    %rax,-0x678(%rbp)
   10f12:	48 8d 85 68 ed ff ff 	lea    -0x1298(%rbp),%rax
   10f19:	48 89 85 90 f9 ff ff 	mov    %rax,-0x670(%rbp)
   10f20:	48 8d 85 68 ed ff ff 	lea    -0x1298(%rbp),%rax
   10f27:	48 89 85 98 f9 ff ff 	mov    %rax,-0x668(%rbp)
   10f2e:	48 c7 85 a0 f9 ff ff 	movq   $0x0,-0x660(%rbp)
   10f35:	00 00 00 00 
   10f39:	48 8d 85 68 ed ff ff 	lea    -0x1298(%rbp),%rax
   10f40:	48 89 85 a8 f9 ff ff 	mov    %rax,-0x658(%rbp)
   10f47:	48 8d 85 68 ed ff ff 	lea    -0x1298(%rbp),%rax
   10f4e:	48 89 85 b0 f9 ff ff 	mov    %rax,-0x650(%rbp)
   10f55:	48 8d 85 68 ed ff ff 	lea    -0x1298(%rbp),%rax
   10f5c:	48 89 85 b8 f9 ff ff 	mov    %rax,-0x648(%rbp)
   10f63:	48 c7 85 c0 f9 ff ff 	movq   $0x0,-0x640(%rbp)
   10f6a:	00 00 00 00 
   10f6e:	48 8d 85 68 ed ff ff 	lea    -0x1298(%rbp),%rax
   10f75:	48 89 85 c8 f9 ff ff 	mov    %rax,-0x638(%rbp)
   10f7c:	48 8d 85 68 ed ff ff 	lea    -0x1298(%rbp),%rax
   10f83:	48 89 85 d0 f9 ff ff 	mov    %rax,-0x630(%rbp)
   10f8a:	48 8d 85 68 ed ff ff 	lea    -0x1298(%rbp),%rax
   10f91:	48 89 85 d8 f9 ff ff 	mov    %rax,-0x628(%rbp)
   10f98:	48 8d 85 68 ed ff ff 	lea    -0x1298(%rbp),%rax
   10f9f:	48 89 85 e0 f9 ff ff 	mov    %rax,-0x620(%rbp)
   10fa6:	48 8d 85 68 ed ff ff 	lea    -0x1298(%rbp),%rax
   10fad:	48 89 85 e8 f9 ff ff 	mov    %rax,-0x618(%rbp)
   10fb4:	48 c7 85 f0 f9 ff ff 	movq   $0x0,-0x610(%rbp)
   10fbb:	00 00 00 00 
   10fbf:	48 8d 85 68 ed ff ff 	lea    -0x1298(%rbp),%rax
   10fc6:	48 89 85 f8 f9 ff ff 	mov    %rax,-0x608(%rbp)
   10fcd:	48 8d 85 68 ed ff ff 	lea    -0x1298(%rbp),%rax
   10fd4:	48 89 85 00 fa ff ff 	mov    %rax,-0x600(%rbp)
   10fdb:	48 8d 85 68 ed ff ff 	lea    -0x1298(%rbp),%rax
   10fe2:	48 89 85 08 fa ff ff 	mov    %rax,-0x5f8(%rbp)
   10fe9:	48 8d 85 68 ed ff ff 	lea    -0x1298(%rbp),%rax
   10ff0:	48 89 85 10 fa ff ff 	mov    %rax,-0x5f0(%rbp)
   10ff7:	48 c7 85 18 fa ff ff 	movq   $0x0,-0x5e8(%rbp)
   10ffe:	00 00 00 00 
   11002:	48 8d 85 68 ed ff ff 	lea    -0x1298(%rbp),%rax
   11009:	48 89 85 20 fa ff ff 	mov    %rax,-0x5e0(%rbp)
   11010:	48 8d 85 68 ed ff ff 	lea    -0x1298(%rbp),%rax
   11017:	48 89 85 28 fa ff ff 	mov    %rax,-0x5d8(%rbp)
   1101e:	48 8d 85 68 ed ff ff 	lea    -0x1298(%rbp),%rax
   11025:	48 89 85 30 fa ff ff 	mov    %rax,-0x5d0(%rbp)
   1102c:	48 8d 85 68 ed ff ff 	lea    -0x1298(%rbp),%rax
   11033:	48 89 85 38 fa ff ff 	mov    %rax,-0x5c8(%rbp)
   1103a:	48 c7 85 40 fa ff ff 	movq   $0x0,-0x5c0(%rbp)
   11041:	00 00 00 00 
   11045:	48 8d 85 68 ed ff ff 	lea    -0x1298(%rbp),%rax
   1104c:	48 89 85 48 fa ff ff 	mov    %rax,-0x5b8(%rbp)
   11053:	48 c7 85 50 fa ff ff 	movq   $0x0,-0x5b0(%rbp)
   1105a:	00 00 00 00 
   1105e:	48 c7 85 58 fa ff ff 	movq   $0x0,-0x5a8(%rbp)
   11065:	00 00 00 00 
   11069:	48 8d 85 68 ed ff ff 	lea    -0x1298(%rbp),%rax
   11070:	48 89 85 60 fa ff ff 	mov    %rax,-0x5a0(%rbp)
   11077:	48 c7 85 68 fa ff ff 	movq   $0x0,-0x598(%rbp)
   1107e:	00 00 00 00 
   11082:	48 8d 85 68 ed ff ff 	lea    -0x1298(%rbp),%rax
   11089:	48 89 85 70 fa ff ff 	mov    %rax,-0x590(%rbp)
   11090:	48 c7 85 78 fa ff ff 	movq   $0x0,-0x588(%rbp)
   11097:	00 00 00 00 
   1109b:	48 8d 85 68 ed ff ff 	lea    -0x1298(%rbp),%rax
   110a2:	48 89 85 80 fa ff ff 	mov    %rax,-0x580(%rbp)
   110a9:	48 c7 85 88 fa ff ff 	movq   $0x0,-0x578(%rbp)
   110b0:	00 00 00 00 
   110b4:	48 8d 85 68 ed ff ff 	lea    -0x1298(%rbp),%rax
   110bb:	48 89 85 90 fa ff ff 	mov    %rax,-0x570(%rbp)
   110c2:	48 c7 85 98 fa ff ff 	movq   $0x0,-0x568(%rbp)
   110c9:	00 00 00 00 
   110cd:	48 8d 85 68 ed ff ff 	lea    -0x1298(%rbp),%rax
   110d4:	48 89 85 a0 fa ff ff 	mov    %rax,-0x560(%rbp)
   110db:	48 8d 85 68 ed ff ff 	lea    -0x1298(%rbp),%rax
   110e2:	48 89 85 a8 fa ff ff 	mov    %rax,-0x558(%rbp)
   110e9:	48 8d 85 68 ed ff ff 	lea    -0x1298(%rbp),%rax
   110f0:	48 89 85 b0 fa ff ff 	mov    %rax,-0x550(%rbp)
   110f7:	48 8d 85 68 ed ff ff 	lea    -0x1298(%rbp),%rax
   110fe:	48 89 85 b8 fa ff ff 	mov    %rax,-0x548(%rbp)
   11105:	48 c7 85 c0 fa ff ff 	movq   $0x0,-0x540(%rbp)
   1110c:	00 00 00 00 
   11110:	48 8d 85 68 ed ff ff 	lea    -0x1298(%rbp),%rax
   11117:	48 89 85 c8 fa ff ff 	mov    %rax,-0x538(%rbp)
   1111e:	48 c7 85 d0 fa ff ff 	movq   $0x0,-0x530(%rbp)
   11125:	00 00 00 00 
   11129:	48 8d 85 68 ed ff ff 	lea    -0x1298(%rbp),%rax
   11130:	48 89 85 d8 fa ff ff 	mov    %rax,-0x528(%rbp)
   11137:	48 c7 85 e0 fa ff ff 	movq   $0x0,-0x520(%rbp)
   1113e:	00 00 00 00 
   11142:	48 8d 85 68 ed ff ff 	lea    -0x1298(%rbp),%rax
   11149:	48 89 85 e8 fa ff ff 	mov    %rax,-0x518(%rbp)
   11150:	48 8d 85 68 ed ff ff 	lea    -0x1298(%rbp),%rax
   11157:	48 89 85 f0 fa ff ff 	mov    %rax,-0x510(%rbp)
   1115e:	48 c7 85 f8 fa ff ff 	movq   $0x0,-0x508(%rbp)
   11165:	00 00 00 00 
   11169:	48 8d 85 68 ed ff ff 	lea    -0x1298(%rbp),%rax
   11170:	48 89 85 00 fb ff ff 	mov    %rax,-0x500(%rbp)
   11177:	48 8d 85 68 ed ff ff 	lea    -0x1298(%rbp),%rax
   1117e:	48 89 85 08 fb ff ff 	mov    %rax,-0x4f8(%rbp)
   11185:	48 8d 85 68 ed ff ff 	lea    -0x1298(%rbp),%rax
   1118c:	48 89 85 10 fb ff ff 	mov    %rax,-0x4f0(%rbp)
   11193:	48 8d 85 68 ed ff ff 	lea    -0x1298(%rbp),%rax
   1119a:	48 89 85 18 fb ff ff 	mov    %rax,-0x4e8(%rbp)
   111a1:	48 8d 85 68 ed ff ff 	lea    -0x1298(%rbp),%rax
   111a8:	48 89 85 20 fb ff ff 	mov    %rax,-0x4e0(%rbp)
   111af:	48 c7 85 28 fb ff ff 	movq   $0x0,-0x4d8(%rbp)
   111b6:	00 00 00 00 
   111ba:	48 c7 85 30 fb ff ff 	movq   $0x0,-0x4d0(%rbp)
   111c1:	00 00 00 00 
   111c5:	48 c7 85 38 fb ff ff 	movq   $0x0,-0x4c8(%rbp)
   111cc:	00 00 00 00 
   111d0:	48 8d 85 68 ed ff ff 	lea    -0x1298(%rbp),%rax
   111d7:	48 89 85 40 fb ff ff 	mov    %rax,-0x4c0(%rbp)
   111de:	48 8d 85 68 ed ff ff 	lea    -0x1298(%rbp),%rax
   111e5:	48 89 85 48 fb ff ff 	mov    %rax,-0x4b8(%rbp)
   111ec:	48 c7 85 50 fb ff ff 	movq   $0x0,-0x4b0(%rbp)
   111f3:	00 00 00 00 
   111f7:	48 c7 85 58 fb ff ff 	movq   $0x0,-0x4a8(%rbp)
   111fe:	00 00 00 00 
   11202:	48 8d 85 68 ed ff ff 	lea    -0x1298(%rbp),%rax
   11209:	48 89 85 60 fb ff ff 	mov    %rax,-0x4a0(%rbp)
   11210:	48 8d 85 68 ed ff ff 	lea    -0x1298(%rbp),%rax
   11217:	48 89 85 68 fb ff ff 	mov    %rax,-0x498(%rbp)
   1121e:	48 8d 85 68 ed ff ff 	lea    -0x1298(%rbp),%rax
   11225:	48 89 85 70 fb ff ff 	mov    %rax,-0x490(%rbp)
   1122c:	48 c7 85 78 fb ff ff 	movq   $0x0,-0x488(%rbp)
   11233:	00 00 00 00 
   11237:	48 8d 85 68 ed ff ff 	lea    -0x1298(%rbp),%rax
   1123e:	48 89 85 80 fb ff ff 	mov    %rax,-0x480(%rbp)
   11245:	48 c7 85 88 fb ff ff 	movq   $0x0,-0x478(%rbp)
   1124c:	00 00 00 00 
   11250:	48 8d 85 68 ed ff ff 	lea    -0x1298(%rbp),%rax
   11257:	48 89 85 90 fb ff ff 	mov    %rax,-0x470(%rbp)
   1125e:	48 8d 85 68 ed ff ff 	lea    -0x1298(%rbp),%rax
   11265:	48 89 85 98 fb ff ff 	mov    %rax,-0x468(%rbp)
   1126c:	48 8d 85 68 ed ff ff 	lea    -0x1298(%rbp),%rax
   11273:	48 89 85 a0 fb ff ff 	mov    %rax,-0x460(%rbp)
   1127a:	48 8d 85 68 ed ff ff 	lea    -0x1298(%rbp),%rax
   11281:	48 89 85 a8 fb ff ff 	mov    %rax,-0x458(%rbp)
   11288:	48 8d 85 68 ed ff ff 	lea    -0x1298(%rbp),%rax
   1128f:	48 89 85 b0 fb ff ff 	mov    %rax,-0x450(%rbp)
   11296:	48 8d 85 68 ed ff ff 	lea    -0x1298(%rbp),%rax
   1129d:	48 89 85 b8 fb ff ff 	mov    %rax,-0x448(%rbp)
   112a4:	48 8d 85 68 ed ff ff 	lea    -0x1298(%rbp),%rax
   112ab:	48 89 85 c0 fb ff ff 	mov    %rax,-0x440(%rbp)
   112b2:	48 8d 85 68 ed ff ff 	lea    -0x1298(%rbp),%rax
   112b9:	48 89 85 c8 fb ff ff 	mov    %rax,-0x438(%rbp)
   112c0:	48 c7 85 d0 fb ff ff 	movq   $0x0,-0x430(%rbp)
   112c7:	00 00 00 00 
   112cb:	48 8d 85 68 ed ff ff 	lea    -0x1298(%rbp),%rax
   112d2:	48 89 85 d8 fb ff ff 	mov    %rax,-0x428(%rbp)
   112d9:	48 8d 85 68 ed ff ff 	lea    -0x1298(%rbp),%rax
   112e0:	48 89 85 e0 fb ff ff 	mov    %rax,-0x420(%rbp)
   112e7:	48 8d 85 68 ed ff ff 	lea    -0x1298(%rbp),%rax
   112ee:	48 89 85 e8 fb ff ff 	mov    %rax,-0x418(%rbp)
   112f5:	48 c7 85 f0 fb ff ff 	movq   $0x0,-0x410(%rbp)
   112fc:	00 00 00 00 
   11300:	48 8d 85 68 ed ff ff 	lea    -0x1298(%rbp),%rax
   11307:	48 89 85 f8 fb ff ff 	mov    %rax,-0x408(%rbp)
   1130e:	48 8d 85 68 ed ff ff 	lea    -0x1298(%rbp),%rax
   11315:	48 89 85 00 fc ff ff 	mov    %rax,-0x400(%rbp)
   1131c:	48 8d 85 68 ed ff ff 	lea    -0x1298(%rbp),%rax
   11323:	48 89 85 08 fc ff ff 	mov    %rax,-0x3f8(%rbp)
   1132a:	48 8d 85 68 ed ff ff 	lea    -0x1298(%rbp),%rax
   11331:	48 89 85 10 fc ff ff 	mov    %rax,-0x3f0(%rbp)
   11338:	48 8d 85 68 ed ff ff 	lea    -0x1298(%rbp),%rax
   1133f:	48 89 85 18 fc ff ff 	mov    %rax,-0x3e8(%rbp)
   11346:	48 8d 85 68 ed ff ff 	lea    -0x1298(%rbp),%rax
   1134d:	48 89 85 20 fc ff ff 	mov    %rax,-0x3e0(%rbp)
   11354:	48 8d 85 68 ed ff ff 	lea    -0x1298(%rbp),%rax
   1135b:	48 89 85 28 fc ff ff 	mov    %rax,-0x3d8(%rbp)
   11362:	48 c7 85 30 fc ff ff 	movq   $0x0,-0x3d0(%rbp)
   11369:	00 00 00 00 
   1136d:	48 8d 85 68 ed ff ff 	lea    -0x1298(%rbp),%rax
   11374:	48 89 85 38 fc ff ff 	mov    %rax,-0x3c8(%rbp)
   1137b:	48 8d 85 68 ed ff ff 	lea    -0x1298(%rbp),%rax
   11382:	48 89 85 40 fc ff ff 	mov    %rax,-0x3c0(%rbp)
   11389:	48 c7 85 48 fc ff ff 	movq   $0x0,-0x3b8(%rbp)
   11390:	00 00 00 00 
   11394:	48 8d 85 68 ed ff ff 	lea    -0x1298(%rbp),%rax
   1139b:	48 89 85 50 fc ff ff 	mov    %rax,-0x3b0(%rbp)
   113a2:	48 c7 85 58 fc ff ff 	movq   $0x0,-0x3a8(%rbp)
   113a9:	00 00 00 00 
   113ad:	48 8d 85 68 ed ff ff 	lea    -0x1298(%rbp),%rax
   113b4:	48 89 85 60 fc ff ff 	mov    %rax,-0x3a0(%rbp)
   113bb:	48 c7 85 68 fc ff ff 	movq   $0x0,-0x398(%rbp)
   113c2:	00 00 00 00 
   113c6:	48 8d 85 68 ed ff ff 	lea    -0x1298(%rbp),%rax
   113cd:	48 89 85 70 fc ff ff 	mov    %rax,-0x390(%rbp)
   113d4:	48 8d 85 68 ed ff ff 	lea    -0x1298(%rbp),%rax
   113db:	48 89 85 78 fc ff ff 	mov    %rax,-0x388(%rbp)
   113e2:	48 8d 85 68 ed ff ff 	lea    -0x1298(%rbp),%rax
   113e9:	48 89 85 80 fc ff ff 	mov    %rax,-0x380(%rbp)
   113f0:	48 8d 85 68 ed ff ff 	lea    -0x1298(%rbp),%rax
   113f7:	48 89 85 88 fc ff ff 	mov    %rax,-0x378(%rbp)
   113fe:	48 8d 85 68 ed ff ff 	lea    -0x1298(%rbp),%rax
   11405:	48 89 85 90 fc ff ff 	mov    %rax,-0x370(%rbp)
   1140c:	48 8d 85 68 ed ff ff 	lea    -0x1298(%rbp),%rax
   11413:	48 89 85 98 fc ff ff 	mov    %rax,-0x368(%rbp)
   1141a:	48 8d 85 68 ed ff ff 	lea    -0x1298(%rbp),%rax
   11421:	48 89 85 a0 fc ff ff 	mov    %rax,-0x360(%rbp)
   11428:	48 8d 85 68 ed ff ff 	lea    -0x1298(%rbp),%rax
   1142f:	48 89 85 a8 fc ff ff 	mov    %rax,-0x358(%rbp)
   11436:	48 8d 85 68 ed ff ff 	lea    -0x1298(%rbp),%rax
   1143d:	48 89 85 b0 fc ff ff 	mov    %rax,-0x350(%rbp)
   11444:	48 8d 85 68 ed ff ff 	lea    -0x1298(%rbp),%rax
   1144b:	48 89 85 b8 fc ff ff 	mov    %rax,-0x348(%rbp)
   11452:	48 c7 85 c0 fc ff ff 	movq   $0x0,-0x340(%rbp)
   11459:	00 00 00 00 
   1145d:	48 c7 85 c8 fc ff ff 	movq   $0x0,-0x338(%rbp)
   11464:	00 00 00 00 
   11468:	48 8d 85 68 ed ff ff 	lea    -0x1298(%rbp),%rax
   1146f:	48 89 85 d0 fc ff ff 	mov    %rax,-0x330(%rbp)
   11476:	48 c7 85 d8 fc ff ff 	movq   $0x0,-0x328(%rbp)
   1147d:	00 00 00 00 
   11481:	48 8d 85 68 ed ff ff 	lea    -0x1298(%rbp),%rax
   11488:	48 89 85 e0 fc ff ff 	mov    %rax,-0x320(%rbp)
   1148f:	48 8d 85 68 ed ff ff 	lea    -0x1298(%rbp),%rax
   11496:	48 89 85 e8 fc ff ff 	mov    %rax,-0x318(%rbp)
   1149d:	48 8d 85 68 ed ff ff 	lea    -0x1298(%rbp),%rax
   114a4:	48 89 85 f0 fc ff ff 	mov    %rax,-0x310(%rbp)
   114ab:	48 c7 85 f8 fc ff ff 	movq   $0x0,-0x308(%rbp)
   114b2:	00 00 00 00 
   114b6:	48 c7 85 00 fd ff ff 	movq   $0x0,-0x300(%rbp)
   114bd:	00 00 00 00 
   114c1:	48 8d 85 68 ed ff ff 	lea    -0x1298(%rbp),%rax
   114c8:	48 89 85 08 fd ff ff 	mov    %rax,-0x2f8(%rbp)
   114cf:	48 8d 85 68 ed ff ff 	lea    -0x1298(%rbp),%rax
   114d6:	48 89 85 10 fd ff ff 	mov    %rax,-0x2f0(%rbp)
   114dd:	48 8d 85 68 ed ff ff 	lea    -0x1298(%rbp),%rax
   114e4:	48 89 85 18 fd ff ff 	mov    %rax,-0x2e8(%rbp)
   114eb:	48 8d 85 68 ed ff ff 	lea    -0x1298(%rbp),%rax
   114f2:	48 89 85 20 fd ff ff 	mov    %rax,-0x2e0(%rbp)
   114f9:	48 8d 85 68 ed ff ff 	lea    -0x1298(%rbp),%rax
   11500:	48 89 85 28 fd ff ff 	mov    %rax,-0x2d8(%rbp)
   11507:	48 8d 85 68 ed ff ff 	lea    -0x1298(%rbp),%rax
   1150e:	48 89 85 30 fd ff ff 	mov    %rax,-0x2d0(%rbp)
   11515:	48 c7 85 38 fd ff ff 	movq   $0x0,-0x2c8(%rbp)
   1151c:	00 00 00 00 
   11520:	48 8d 85 68 ed ff ff 	lea    -0x1298(%rbp),%rax
   11527:	48 89 85 40 fd ff ff 	mov    %rax,-0x2c0(%rbp)
   1152e:	48 8d 85 68 ed ff ff 	lea    -0x1298(%rbp),%rax
   11535:	48 89 85 48 fd ff ff 	mov    %rax,-0x2b8(%rbp)
   1153c:	48 8d 85 68 ed ff ff 	lea    -0x1298(%rbp),%rax
   11543:	48 89 85 50 fd ff ff 	mov    %rax,-0x2b0(%rbp)
   1154a:	48 8d 85 68 ed ff ff 	lea    -0x1298(%rbp),%rax
   11551:	48 89 85 58 fd ff ff 	mov    %rax,-0x2a8(%rbp)
   11558:	48 8d 85 68 ed ff ff 	lea    -0x1298(%rbp),%rax
   1155f:	48 89 85 60 fd ff ff 	mov    %rax,-0x2a0(%rbp)
   11566:	48 8d 85 68 ed ff ff 	lea    -0x1298(%rbp),%rax
   1156d:	48 89 85 68 fd ff ff 	mov    %rax,-0x298(%rbp)
   11574:	48 c7 85 70 fd ff ff 	movq   $0x0,-0x290(%rbp)
   1157b:	00 00 00 00 
   1157f:	48 8d 85 68 ed ff ff 	lea    -0x1298(%rbp),%rax
   11586:	48 89 85 78 fd ff ff 	mov    %rax,-0x288(%rbp)
   1158d:	48 8d 85 68 ed ff ff 	lea    -0x1298(%rbp),%rax
   11594:	48 89 85 80 fd ff ff 	mov    %rax,-0x280(%rbp)
   1159b:	48 8d 85 68 ed ff ff 	lea    -0x1298(%rbp),%rax
   115a2:	48 89 85 88 fd ff ff 	mov    %rax,-0x278(%rbp)
   115a9:	48 8d 85 68 ed ff ff 	lea    -0x1298(%rbp),%rax
   115b0:	48 89 85 90 fd ff ff 	mov    %rax,-0x270(%rbp)
   115b7:	48 c7 85 98 fd ff ff 	movq   $0x0,-0x268(%rbp)
   115be:	00 00 00 00 
   115c2:	48 c7 85 a0 fd ff ff 	movq   $0x0,-0x260(%rbp)
   115c9:	00 00 00 00 
   115cd:	48 8d 85 68 ed ff ff 	lea    -0x1298(%rbp),%rax
   115d4:	48 89 85 a8 fd ff ff 	mov    %rax,-0x258(%rbp)
   115db:	48 8d 85 68 ed ff ff 	lea    -0x1298(%rbp),%rax
   115e2:	48 89 85 b0 fd ff ff 	mov    %rax,-0x250(%rbp)
   115e9:	48 8d 85 68 ed ff ff 	lea    -0x1298(%rbp),%rax
   115f0:	48 89 85 b8 fd ff ff 	mov    %rax,-0x248(%rbp)
   115f7:	48 c7 85 c0 fd ff ff 	movq   $0x0,-0x240(%rbp)
   115fe:	00 00 00 00 
   11602:	48 8d 85 68 ed ff ff 	lea    -0x1298(%rbp),%rax
   11609:	48 89 85 c8 fd ff ff 	mov    %rax,-0x238(%rbp)
   11610:	48 8d 85 68 ed ff ff 	lea    -0x1298(%rbp),%rax
   11617:	48 89 85 d0 fd ff ff 	mov    %rax,-0x230(%rbp)
   1161e:	48 8d 85 68 ed ff ff 	lea    -0x1298(%rbp),%rax
   11625:	48 89 85 d8 fd ff ff 	mov    %rax,-0x228(%rbp)
   1162c:	48 8d 85 68 ed ff ff 	lea    -0x1298(%rbp),%rax
   11633:	48 89 85 e0 fd ff ff 	mov    %rax,-0x220(%rbp)
   1163a:	48 8d 85 68 ed ff ff 	lea    -0x1298(%rbp),%rax
   11641:	48 89 85 e8 fd ff ff 	mov    %rax,-0x218(%rbp)
   11648:	48 8d 85 68 ed ff ff 	lea    -0x1298(%rbp),%rax
   1164f:	48 89 85 f0 fd ff ff 	mov    %rax,-0x210(%rbp)
   11656:	48 8d 85 68 ed ff ff 	lea    -0x1298(%rbp),%rax
   1165d:	48 89 85 f8 fd ff ff 	mov    %rax,-0x208(%rbp)
   11664:	48 8d 85 68 ed ff ff 	lea    -0x1298(%rbp),%rax
   1166b:	48 89 85 00 fe ff ff 	mov    %rax,-0x200(%rbp)
   11672:	48 8d 85 68 ed ff ff 	lea    -0x1298(%rbp),%rax
   11679:	48 89 85 08 fe ff ff 	mov    %rax,-0x1f8(%rbp)
   11680:	48 8d 85 68 ed ff ff 	lea    -0x1298(%rbp),%rax
   11687:	48 89 85 10 fe ff ff 	mov    %rax,-0x1f0(%rbp)
   1168e:	48 8d 85 68 ed ff ff 	lea    -0x1298(%rbp),%rax
   11695:	48 89 85 18 fe ff ff 	mov    %rax,-0x1e8(%rbp)
   1169c:	48 8d 85 68 ed ff ff 	lea    -0x1298(%rbp),%rax
   116a3:	48 89 85 20 fe ff ff 	mov    %rax,-0x1e0(%rbp)
   116aa:	48 8d 85 68 ed ff ff 	lea    -0x1298(%rbp),%rax
   116b1:	48 89 85 28 fe ff ff 	mov    %rax,-0x1d8(%rbp)
   116b8:	48 c7 85 30 fe ff ff 	movq   $0x0,-0x1d0(%rbp)
   116bf:	00 00 00 00 
   116c3:	48 8d 85 68 ed ff ff 	lea    -0x1298(%rbp),%rax
   116ca:	48 89 85 38 fe ff ff 	mov    %rax,-0x1c8(%rbp)
   116d1:	48 8d 85 68 ed ff ff 	lea    -0x1298(%rbp),%rax
   116d8:	48 89 85 40 fe ff ff 	mov    %rax,-0x1c0(%rbp)
   116df:	48 8d 85 68 ed ff ff 	lea    -0x1298(%rbp),%rax
   116e6:	48 89 85 48 fe ff ff 	mov    %rax,-0x1b8(%rbp)
   116ed:	48 c7 85 50 fe ff ff 	movq   $0x0,-0x1b0(%rbp)
   116f4:	00 00 00 00 
   116f8:	48 8d 85 68 ed ff ff 	lea    -0x1298(%rbp),%rax
   116ff:	48 89 85 58 fe ff ff 	mov    %rax,-0x1a8(%rbp)
   11706:	48 c7 85 60 fe ff ff 	movq   $0x0,-0x1a0(%rbp)
   1170d:	00 00 00 00 
   11711:	48 c7 85 68 fe ff ff 	movq   $0x0,-0x198(%rbp)
   11718:	00 00 00 00 
   1171c:	48 8d 85 68 ed ff ff 	lea    -0x1298(%rbp),%rax
   11723:	48 89 85 70 fe ff ff 	mov    %rax,-0x190(%rbp)
   1172a:	48 8d 85 68 ed ff ff 	lea    -0x1298(%rbp),%rax
   11731:	48 89 85 78 fe ff ff 	mov    %rax,-0x188(%rbp)
   11738:	48 8d 85 68 ed ff ff 	lea    -0x1298(%rbp),%rax
   1173f:	48 89 85 80 fe ff ff 	mov    %rax,-0x180(%rbp)
   11746:	48 8d 85 68 ed ff ff 	lea    -0x1298(%rbp),%rax
   1174d:	48 89 85 88 fe ff ff 	mov    %rax,-0x178(%rbp)
   11754:	48 8d 85 68 ed ff ff 	lea    -0x1298(%rbp),%rax
   1175b:	48 89 85 90 fe ff ff 	mov    %rax,-0x170(%rbp)
   11762:	48 8d 85 68 ed ff ff 	lea    -0x1298(%rbp),%rax
   11769:	48 89 85 98 fe ff ff 	mov    %rax,-0x168(%rbp)
   11770:	48 8d 85 68 ed ff ff 	lea    -0x1298(%rbp),%rax
   11777:	48 89 85 a0 fe ff ff 	mov    %rax,-0x160(%rbp)
   1177e:	48 c7 85 a8 fe ff ff 	movq   $0x0,-0x158(%rbp)
   11785:	00 00 00 00 
   11789:	48 c7 85 b0 fe ff ff 	movq   $0x0,-0x150(%rbp)
   11790:	00 00 00 00 
   11794:	48 8d 85 68 ed ff ff 	lea    -0x1298(%rbp),%rax
   1179b:	48 89 85 b8 fe ff ff 	mov    %rax,-0x148(%rbp)
   117a2:	48 8d 85 68 ed ff ff 	lea    -0x1298(%rbp),%rax
   117a9:	48 89 85 c0 fe ff ff 	mov    %rax,-0x140(%rbp)
   117b0:	48 8d 85 68 ed ff ff 	lea    -0x1298(%rbp),%rax
   117b7:	48 89 85 c8 fe ff ff 	mov    %rax,-0x138(%rbp)
   117be:	48 8d 85 68 ed ff ff 	lea    -0x1298(%rbp),%rax
   117c5:	48 89 85 d0 fe ff ff 	mov    %rax,-0x130(%rbp)
   117cc:	48 8d 85 68 ed ff ff 	lea    -0x1298(%rbp),%rax
   117d3:	48 89 85 d8 fe ff ff 	mov    %rax,-0x128(%rbp)
   117da:	48 8d 85 68 ed ff ff 	lea    -0x1298(%rbp),%rax
   117e1:	48 89 85 e0 fe ff ff 	mov    %rax,-0x120(%rbp)
   117e8:	48 c7 85 e8 fe ff ff 	movq   $0x0,-0x118(%rbp)
   117ef:	00 00 00 00 
   117f3:	48 8d 85 68 ed ff ff 	lea    -0x1298(%rbp),%rax
   117fa:	48 89 85 f0 fe ff ff 	mov    %rax,-0x110(%rbp)
   11801:	48 c7 85 f8 fe ff ff 	movq   $0x0,-0x108(%rbp)
   11808:	00 00 00 00 
   1180c:	48 8d 85 68 ed ff ff 	lea    -0x1298(%rbp),%rax
   11813:	48 89 85 00 ff ff ff 	mov    %rax,-0x100(%rbp)
   1181a:	48 8d 85 68 ed ff ff 	lea    -0x1298(%rbp),%rax
   11821:	48 89 85 08 ff ff ff 	mov    %rax,-0xf8(%rbp)
   11828:	48 c7 85 10 ff ff ff 	movq   $0x0,-0xf0(%rbp)
   1182f:	00 00 00 00 
   11833:	48 8d 85 68 ed ff ff 	lea    -0x1298(%rbp),%rax
   1183a:	48 89 85 18 ff ff ff 	mov    %rax,-0xe8(%rbp)
   11841:	48 c7 85 20 ff ff ff 	movq   $0x0,-0xe0(%rbp)
   11848:	00 00 00 00 
   1184c:	48 8d 85 68 ed ff ff 	lea    -0x1298(%rbp),%rax
   11853:	48 89 85 28 ff ff ff 	mov    %rax,-0xd8(%rbp)
   1185a:	48 8d 85 68 ed ff ff 	lea    -0x1298(%rbp),%rax
   11861:	48 89 85 30 ff ff ff 	mov    %rax,-0xd0(%rbp)
   11868:	48 8d 85 68 ed ff ff 	lea    -0x1298(%rbp),%rax
   1186f:	48 89 85 38 ff ff ff 	mov    %rax,-0xc8(%rbp)
   11876:	48 c7 85 40 ff ff ff 	movq   $0x0,-0xc0(%rbp)
   1187d:	00 00 00 00 
   11881:	48 c7 85 48 ff ff ff 	movq   $0x0,-0xb8(%rbp)
   11888:	00 00 00 00 
   1188c:	48 8d 85 68 ed ff ff 	lea    -0x1298(%rbp),%rax
   11893:	48 89 85 50 ff ff ff 	mov    %rax,-0xb0(%rbp)
   1189a:	48 8d 85 68 ed ff ff 	lea    -0x1298(%rbp),%rax
   118a1:	48 89 85 58 ff ff ff 	mov    %rax,-0xa8(%rbp)
   118a8:	48 8d 85 68 ed ff ff 	lea    -0x1298(%rbp),%rax
   118af:	48 89 85 60 ff ff ff 	mov    %rax,-0xa0(%rbp)
   118b6:	48 8d 85 68 ed ff ff 	lea    -0x1298(%rbp),%rax
   118bd:	48 89 85 68 ff ff ff 	mov    %rax,-0x98(%rbp)
   118c4:	48 c7 85 70 ff ff ff 	movq   $0x0,-0x90(%rbp)
   118cb:	00 00 00 00 
   118cf:	48 8d 85 68 ed ff ff 	lea    -0x1298(%rbp),%rax
   118d6:	48 89 85 78 ff ff ff 	mov    %rax,-0x88(%rbp)
   118dd:	48 8d 85 68 ed ff ff 	lea    -0x1298(%rbp),%rax
   118e4:	48 89 45 80          	mov    %rax,-0x80(%rbp)
   118e8:	48 8d 85 68 ed ff ff 	lea    -0x1298(%rbp),%rax
   118ef:	48 89 45 88          	mov    %rax,-0x78(%rbp)
   118f3:	48 8d 85 68 ed ff ff 	lea    -0x1298(%rbp),%rax
   118fa:	48 89 45 90          	mov    %rax,-0x70(%rbp)
   118fe:	48 8d 85 68 ed ff ff 	lea    -0x1298(%rbp),%rax
   11905:	48 89 45 98          	mov    %rax,-0x68(%rbp)
   11909:	48 8d 85 68 ed ff ff 	lea    -0x1298(%rbp),%rax
   11910:	48 89 45 a0          	mov    %rax,-0x60(%rbp)
   11914:	48 c7 45 a8 00 00 00 	movq   $0x0,-0x58(%rbp)
   1191b:	00 
   1191c:	48 8d 85 68 ed ff ff 	lea    -0x1298(%rbp),%rax
   11923:	48 89 45 b0          	mov    %rax,-0x50(%rbp)
   11927:	48 8d 85 68 ed ff ff 	lea    -0x1298(%rbp),%rax
   1192e:	48 89 45 b8          	mov    %rax,-0x48(%rbp)
   11932:	48 8d 85 68 ed ff ff 	lea    -0x1298(%rbp),%rax
   11939:	48 89 45 c0          	mov    %rax,-0x40(%rbp)
   1193d:	48 8d 85 68 ed ff ff 	lea    -0x1298(%rbp),%rax
   11944:	48 89 45 c8          	mov    %rax,-0x38(%rbp)
   11948:	48 c7 45 d0 00 00 00 	movq   $0x0,-0x30(%rbp)
   1194f:	00 
   11950:	48 8d 85 68 ed ff ff 	lea    -0x1298(%rbp),%rax
   11957:	48 89 45 d8          	mov    %rax,-0x28(%rbp)
   1195b:	c7 85 48 ed ff ff 72 	movl   $0xd5d11672,-0x12b8(%rbp)
   11962:	16 d1 d5 
   11965:	c7 85 a0 ef ff ff e0 	movl   $0x553087e0,-0x1060(%rbp)
   1196c:	87 30 55 
   1196f:	c7 85 a4 ef ff ff 00 	movl   $0x0,-0x105c(%rbp)
   11976:	00 00 00 
   11979:	c7 85 a8 ef ff ff e0 	movl   $0x553087e0,-0x1058(%rbp)
   11980:	87 30 55 
   11983:	c7 85 ac ef ff ff 9d 	movl   $0xc60d949d,-0x1054(%rbp)
   1198a:	94 0d c6 
   1198d:	c7 85 b0 ef ff ff 04 	movl   $0x4,-0x1050(%rbp)
   11994:	00 00 00 
   11997:	c7 85 b4 ef ff ff 04 	movl   $0x4,-0x104c(%rbp)
   1199e:	00 00 00 
   119a1:	c7 85 b8 ef ff ff 9d 	movl   $0xc60d949d,-0x1048(%rbp)
   119a8:	94 0d c6 
   119ab:	c7 85 bc ef ff ff e0 	movl   $0x553087e0,-0x1044(%rbp)
   119b2:	87 30 55 
   119b5:	c7 85 c0 ef ff ff 00 	movl   $0x0,-0x1040(%rbp)
   119bc:	00 00 00 
   119bf:	c7 85 c4 ef ff ff e0 	movl   $0x553087e0,-0x103c(%rbp)
   119c6:	87 30 55 
   119c9:	c7 85 c8 ef ff ff 9d 	movl   $0xc60d949d,-0x1038(%rbp)
   119d0:	94 0d c6 
   119d3:	c7 85 cc ef ff ff 04 	movl   $0x4,-0x1034(%rbp)
   119da:	00 00 00 
   119dd:	c7 85 d0 ef ff ff 04 	movl   $0x4,-0x1030(%rbp)
   119e4:	00 00 00 
   119e7:	c7 85 d4 ef ff ff 9d 	movl   $0xc60d949d,-0x102c(%rbp)
   119ee:	94 0d c6 
   119f1:	c7 85 d8 ef ff ff e0 	movl   $0x553087e0,-0x1028(%rbp)
   119f8:	87 30 55 
   119fb:	c7 85 dc ef ff ff 00 	movl   $0x0,-0x1024(%rbp)
   11a02:	00 00 00 
   11a05:	c7 85 e0 ef ff ff e0 	movl   $0x553087e0,-0x1020(%rbp)
   11a0c:	87 30 55 
   11a0f:	c7 85 e4 ef ff ff 9d 	movl   $0xc60d949d,-0x101c(%rbp)
   11a16:	94 0d c6 
   11a19:	c7 85 e8 ef ff ff 04 	movl   $0x4,-0x1018(%rbp)
   11a20:	00 00 00 
   11a23:	c7 85 ec ef ff ff 04 	movl   $0x4,-0x1014(%rbp)
   11a2a:	00 00 00 
   11a2d:	c7 85 f0 ef ff ff 9d 	movl   $0xc60d949d,-0x1010(%rbp)
   11a34:	94 0d c6 
   11a37:	c7 85 f4 ef ff ff e0 	movl   $0x553087e0,-0x100c(%rbp)
   11a3e:	87 30 55 
   11a41:	c7 85 f8 ef ff ff 00 	movl   $0x0,-0x1008(%rbp)
   11a48:	00 00 00 
   11a4b:	c7 85 fc ef ff ff e0 	movl   $0x553087e0,-0x1004(%rbp)
   11a52:	87 30 55 
   11a55:	c7 85 00 f0 ff ff 9d 	movl   $0xc60d949d,-0x1000(%rbp)
   11a5c:	94 0d c6 
   11a5f:	c7 85 04 f0 ff ff 04 	movl   $0x4,-0xffc(%rbp)
   11a66:	00 00 00 
   11a69:	c7 85 08 f0 ff ff 04 	movl   $0x4,-0xff8(%rbp)
   11a70:	00 00 00 
   11a73:	c7 85 0c f0 ff ff 9d 	movl   $0xc60d949d,-0xff4(%rbp)
   11a7a:	94 0d c6 
   11a7d:	c7 85 10 f0 ff ff e0 	movl   $0x553087e0,-0xff0(%rbp)
   11a84:	87 30 55 
   11a87:	c7 85 14 f0 ff ff 00 	movl   $0x0,-0xfec(%rbp)
   11a8e:	00 00 00 
   11a91:	c7 85 18 f0 ff ff e0 	movl   $0x553087e0,-0xfe8(%rbp)
   11a98:	87 30 55 
   11a9b:	c7 85 1c f0 ff ff 9d 	movl   $0xc60d949d,-0xfe4(%rbp)
   11aa2:	94 0d c6 
   11aa5:	c7 85 20 f0 ff ff 04 	movl   $0x4,-0xfe0(%rbp)
   11aac:	00 00 00 
   11aaf:	c7 85 24 f0 ff ff 04 	movl   $0x4,-0xfdc(%rbp)
   11ab6:	00 00 00 
   11ab9:	c7 85 28 f0 ff ff 9d 	movl   $0xc60d949d,-0xfd8(%rbp)
   11ac0:	94 0d c6 
   11ac3:	c7 85 2c f0 ff ff e0 	movl   $0x553087e0,-0xfd4(%rbp)
   11aca:	87 30 55 
   11acd:	66 c7 85 42 ed ff ff 	movw   $0x784e,-0x12be(%rbp)
   11ad4:	4e 78 
   11ad6:	c7 85 54 ed ff ff 46 	movl   $0xc6da4246,-0x12ac(%rbp)
   11add:	42 da c6 
   11ae0:	48 c7 85 b0 ed ff ff 	movq   $0xfffffffffffffffb,-0x1250(%rbp)
   11ae7:	fb ff ff ff 
   11aeb:	c7 85 30 ee ff ff fa 	movl   $0xfffffffa,-0x11d0(%rbp)
   11af2:	ff ff ff 
   11af5:	c7 85 34 ee ff ff fa 	movl   $0xfffffffa,-0x11cc(%rbp)
   11afc:	ff ff ff 
   11aff:	c7 85 38 ee ff ff ff 	movl   $0xffffffff,-0x11c8(%rbp)
   11b06:	ff ff ff 
   11b09:	c7 85 3c ee ff ff fa 	movl   $0xfffffffa,-0x11c4(%rbp)
   11b10:	ff ff ff 
   11b13:	c7 85 40 ee ff ff fa 	movl   $0xfffffffa,-0x11c0(%rbp)
   11b1a:	ff ff ff 
   11b1d:	c7 85 44 ee ff ff ff 	movl   $0xffffffff,-0x11bc(%rbp)
   11b24:	ff ff ff 
   11b27:	c7 85 48 ee ff ff fa 	movl   $0xfffffffa,-0x11b8(%rbp)
   11b2e:	ff ff ff 
   11b31:	c7 85 4c ee ff ff fa 	movl   $0xfffffffa,-0x11b4(%rbp)
   11b38:	ff ff ff 
   11b3b:	48 8d 05 9e f4 00 00 	lea    0xf49e(%rip),%rax        # 20fe0 <g_1150>
   11b42:	48 89 85 b8 ed ff ff 	mov    %rax,-0x1248(%rbp)
   11b49:	48 8d 05 a8 11 01 00 	lea    0x111a8(%rip),%rax        # 22cf8 <g_786>
   11b50:	48 89 85 c0 ed ff ff 	mov    %rax,-0x1240(%rbp)
   11b57:	48 8d 05 d2 f2 00 00 	lea    0xf2d2(%rip),%rax        # 20e30 <g_949+0x30>
   11b5e:	48 89 85 c8 ed ff ff 	mov    %rax,-0x1238(%rbp)
   11b65:	c7 85 e0 ee ff ff 04 	movl   $0x1042404,-0x1120(%rbp)
   11b6c:	24 04 01 
   11b6f:	66 c7 85 e4 ee ff ff 	movw   $0x194,-0x111c(%rbp)
   11b76:	94 01 
   11b78:	c7 85 e6 ee ff ff 00 	movl   $0xa6fd00,-0x111a(%rbp)
   11b7f:	fd a6 00 
   11b82:	66 c7 85 ea ee ff ff 	movw   $0x1,-0x1116(%rbp)
   11b89:	01 00 
   11b8b:	c7 85 ec ee ff ff ff 	movl   $0x1f8ff,-0x1114(%rbp)
   11b92:	f8 01 00 
   11b95:	66 c7 85 f0 ee ff ff 	movw   $0x1f6,-0x1110(%rbp)
   11b9c:	f6 01 
   11b9e:	c7 85 f2 ee ff ff 00 	movl   $0x1b20400,-0x110e(%rbp)
   11ba5:	04 b2 01 
   11ba8:	66 c7 85 f6 ee ff ff 	movw   $0xc001,-0x110a(%rbp)
   11baf:	01 c0 
   11bb1:	c7 85 f8 ee ff ff 04 	movl   $0xf71dc404,-0x1108(%rbp)
   11bb8:	c4 1d f7 
   11bbb:	66 c7 85 fc ee ff ff 	movw   $0x6eb2,-0x1104(%rbp)
   11bc2:	b2 6e 
   11bc4:	c7 85 fe ee ff ff fb 	movl   $0xb2ff94fb,-0x1102(%rbp)
   11bcb:	94 ff b2 
   11bce:	66 c7 85 02 ef ff ff 	movw   $0xffff,-0x10fe(%rbp)
   11bd5:	ff ff 
   11bd7:	c7 85 04 ef ff ff 35 	movl   $0x35eded35,-0x10fc(%rbp)
   11bde:	ed ed 35 
   11be1:	66 c7 85 08 ef ff ff 	movw   $0xb2,-0x10f8(%rbp)
   11be8:	b2 00 
   11bea:	c7 85 0a ef ff ff 94 	movl   $0x1ffff94,-0x10f6(%rbp)
   11bf1:	ff ff 01 
   11bf4:	66 c7 85 0e ef ff ff 	movw   $0x1d24,-0x10f2(%rbp)
   11bfb:	24 1d 
   11bfd:	c7 85 10 ef ff ff f6 	movl   $0x9f35f6,-0x10f0(%rbp)
   11c04:	35 9f 00 
   11c07:	66 c7 85 14 ef ff ff 	movw   $0x24,-0x10ec(%rbp)
   11c0e:	24 00 
   11c10:	c7 85 16 ef ff ff ff 	movl   $0xf8b2ffff,-0x10ea(%rbp)
   11c17:	ff b2 f8 
   11c1a:	66 c7 85 1a ef ff ff 	movw   $0x9b2,-0x10e6(%rbp)
   11c21:	b2 09 
   11c23:	c7 85 1c ef ff ff 06 	movl   $0x49fbed06,-0x10e4(%rbp)
   11c2a:	ed fb 49 
   11c2d:	66 c7 85 20 ef ff ff 	movw   $0x1ff,-0x10e0(%rbp)
   11c34:	ff 01 
   11c36:	c7 85 22 ef ff ff 00 	movl   $0xfff79400,-0x10de(%rbp)
   11c3d:	94 f7 ff 
   11c40:	66 c7 85 26 ef ff ff 	movw   $0xedb2,-0x10da(%rbp)
   11c47:	b2 ed 
   11c49:	c7 85 28 ef ff ff 01 	movl   $0xc409c401,-0x10d8(%rbp)
   11c50:	c4 09 c4 
   11c53:	66 c7 85 2c ef ff ff 	movw   $0x3501,-0x10d4(%rbp)
   11c5a:	01 35 
   11c5c:	c7 85 2e ef ff ff f6 	movl   $0xff4904f6,-0x10d2(%rbp)
   11c63:	04 49 ff 
   11c66:	66 c7 85 32 ef ff ff 	movw   $0xa6f6,-0x10ce(%rbp)
   11c6d:	f6 a6 
   11c6f:	48 c7 85 d0 ed ff ff 	movq   $0x0,-0x1230(%rbp)
   11c76:	00 00 00 00 
   11c7a:	66 c7 85 44 ed ff ff 	movw   $0x9f39,-0x12bc(%rbp)
   11c81:	39 9f 
   11c83:	48 c7 85 d8 ed ff ff 	movq   $0x0,-0x1228(%rbp)
   11c8a:	00 00 00 00 
   11c8e:	48 8d 05 1b f4 00 00 	lea    0xf41b(%rip),%rax        # 210b0 <g_1340>
   11c95:	48 89 85 e0 ed ff ff 	mov    %rax,-0x1220(%rbp)
   11c9c:	48 8b 9d 88 ed ff ff 	mov    -0x1278(%rbp),%rbx
   11ca3:	48 8d 05 36 ef 00 00 	lea    0xef36(%rip),%rax        # 20be0 <g_610>
   11caa:	48 39 85 90 ed ff ff 	cmp    %rax,-0x1270(%rbp)
   11cb1:	0f 94 c0             	sete   %al
   11cb4:	0f b6 c0             	movzbl %al,%eax
   11cb7:	0b 85 34 ed ff ff    	or     -0x12cc(%rbp),%eax
   11cbd:	83 e0 7d             	and    $0x7d,%eax
   11cc0:	89 c6                	mov    %eax,%esi
   11cc2:	bf 0c 7d 00 00       	mov    $0x7d0c,%edi
   11cc7:	e8 97 a8 ff ff       	callq  c563 <safe_rshift_func_int16_t_s_u>
   11ccc:	48 0f bf d0          	movswq %ax,%rdx
   11cd0:	48 8d 05 51 a4 00 00 	lea    0xa451(%rip),%rax        # 1c128 <g_203>
   11cd7:	48 8b 08             	mov    (%rax),%rcx
   11cda:	48 83 e9 01          	sub    $0x1,%rcx
   11cde:	48 89 08             	mov    %rcx,(%rax)
   11ce1:	48 8b 00             	mov    (%rax),%rax
   11ce4:	48 89 d6             	mov    %rdx,%rsi
   11ce7:	48 89 c7             	mov    %rax,%rdi
   11cea:	e8 3f b3 ff ff       	callq  d02e <safe_add_func_uint64_t_u_u>
   11cef:	0f be c0             	movsbl %al,%eax
   11cf2:	be 00 00 00 00       	mov    $0x0,%esi
   11cf7:	89 c7                	mov    %eax,%edi
   11cf9:	e8 f0 a5 ff ff       	callq  c2ee <safe_lshift_func_int8_t_s_u>
   11cfe:	83 bd 3c ed ff ff 00 	cmpl   $0x0,-0x12c4(%rbp)
   11d05:	74 10                	je     11d17 <func_20+0x1159>
   11d07:	83 bd 34 ed ff ff 00 	cmpl   $0x0,-0x12cc(%rbp)
   11d0e:	74 07                	je     11d17 <func_20+0x1159>
   11d10:	b8 01 00 00 00       	mov    $0x1,%eax
   11d15:	eb 05                	jmp    11d1c <func_20+0x115e>
   11d17:	b8 00 00 00 00       	mov    $0x0,%eax
   11d1c:	83 f8 01             	cmp    $0x1,%eax
   11d1f:	0f 9e c0             	setle  %al
   11d22:	0f b6 d0             	movzbl %al,%edx
   11d25:	8b 85 30 ed ff ff    	mov    -0x12d0(%rbp),%eax
   11d2b:	39 c2                	cmp    %eax,%edx
   11d2d:	0f 9e c0             	setle  %al
   11d30:	0f b6 d0             	movzbl %al,%edx
   11d33:	48 8b 85 98 ed ff ff 	mov    -0x1268(%rbp),%rax
   11d3a:	48 89 10             	mov    %rdx,(%rax)
   11d3d:	48 8b 85 98 ed ff ff 	mov    -0x1268(%rbp),%rax
   11d44:	48 8b 00             	mov    (%rax),%rax
   11d47:	48 89 de             	mov    %rbx,%rsi
   11d4a:	48 89 c7             	mov    %rax,%rdi
   11d4d:	e8 62 ac ff ff       	callq  c9b4 <safe_mod_func_int64_t_s_s>
   11d52:	48 83 bd a0 ed ff ff 	cmpq   $0x0,-0x1260(%rbp)
   11d59:	00 
   11d5a:	0f 95 c0             	setne  %al
   11d5d:	0f b6 d0             	movzbl %al,%edx
   11d60:	0f b6 05 79 a8 00 00 	movzbl 0xa879(%rip),%eax        # 1c5e0 <g_322>
   11d67:	66 98                	cbtw   
   11d69:	0f b7 c0             	movzwl %ax,%eax
   11d6c:	89 d6                	mov    %edx,%esi
   11d6e:	89 c7                	mov    %eax,%edi
   11d70:	e8 91 b0 ff ff       	callq  ce06 <safe_lshift_func_uint16_t_u_u>
   11d75:	0f b7 c0             	movzwl %ax,%eax
   11d78:	83 e0 03             	and    $0x3,%eax
   11d7b:	48 89 c2             	mov    %rax,%rdx
   11d7e:	48 8b 05 5b ee 00 00 	mov    0xee5b(%rip),%rax        # 20be0 <g_610>
   11d85:	0f b6 00             	movzbl (%rax),%eax
   11d88:	0f b6 c0             	movzbl %al,%eax
   11d8b:	48 39 c2             	cmp    %rax,%rdx
   11d8e:	0f 94 c0             	sete   %al
   11d91:	0f b6 d0             	movzbl %al,%edx
   11d94:	48 8b 05 45 ee 00 00 	mov    0xee45(%rip),%rax        # 20be0 <g_610>
   11d9b:	0f b6 00             	movzbl (%rax),%eax
   11d9e:	0f b6 c0             	movzbl %al,%eax
   11da1:	89 d6                	mov    %edx,%esi
   11da3:	89 c7                	mov    %eax,%edi
   11da5:	e8 14 af ff ff       	callq  ccbe <safe_rshift_func_uint8_t_u_u>
   11daa:	0f b6 c0             	movzbl %al,%eax
   11dad:	be 04 86 ff ff       	mov    $0xffff8604,%esi
   11db2:	89 c7                	mov    %eax,%edi
   11db4:	e8 5d a6 ff ff       	callq  c416 <safe_mod_func_int16_t_s_s>
   11db9:	66 85 c0             	test   %ax,%ax
   11dbc:	74 10                	je     11dce <func_20+0x1210>
   11dbe:	83 bd 4c ed ff ff 00 	cmpl   $0x0,-0x12b4(%rbp)
   11dc5:	74 07                	je     11dce <func_20+0x1210>
   11dc7:	b8 01 00 00 00       	mov    $0x1,%eax
   11dcc:	eb 05                	jmp    11dd3 <func_20+0x1215>
   11dce:	b8 00 00 00 00       	mov    $0x0,%eax
   11dd3:	89 85 4c ed ff ff    	mov    %eax,-0x12b4(%rbp)
   11dd9:	8b 85 4c ed ff ff    	mov    -0x12b4(%rbp),%eax
   11ddf:	0f bf d0             	movswl %ax,%edx
   11de2:	8b 85 3c ed ff ff    	mov    -0x12c4(%rbp),%eax
   11de8:	98                   	cwtl   
   11de9:	89 d6                	mov    %edx,%esi
   11deb:	89 c7                	mov    %eax,%edi
   11ded:	e8 24 a6 ff ff       	callq  c416 <safe_mod_func_int16_t_s_s>
   11df2:	48 8d 05 a3 b5 00 00 	lea    0xb5a3(%rip),%rax        # 1d39c <g_522>
   11df9:	48 89 85 e8 ed ff ff 	mov    %rax,-0x1218(%rbp)
   11e00:	48 c7 85 70 ed ff ff 	movq   $0x0,-0x1290(%rbp)
   11e07:	00 00 00 00 
   11e0b:	48 8d 85 70 ed ff ff 	lea    -0x1290(%rbp),%rax
   11e12:	48 89 85 f0 ed ff ff 	mov    %rax,-0x1210(%rbp)
   11e19:	c7 85 58 ed ff ff 01 	movl   $0x1,-0x12a8(%rbp)
   11e20:	00 00 00 
   11e23:	c7 85 5c ed ff ff ff 	movl   $0xffffffff,-0x12a4(%rbp)
   11e2a:	ff ff ff 
   11e2d:	c7 85 40 ef ff ff 00 	movl   $0x0,-0x10c0(%rbp)
   11e34:	00 00 00 
   11e37:	c7 85 44 ef ff ff 13 	movl   $0xa40bfc13,-0x10bc(%rbp)
   11e3e:	fc 0b a4 
   11e41:	c7 85 48 ef ff ff ff 	movl   $0xffffffff,-0x10b8(%rbp)
   11e48:	ff ff ff 
   11e4b:	c7 85 4c ef ff ff 01 	movl   $0x1,-0x10b4(%rbp)
   11e52:	00 00 00 
   11e55:	c7 85 50 ef ff ff ff 	movl   $0xffffffff,-0x10b0(%rbp)
   11e5c:	ff ff ff 
   11e5f:	c7 85 54 ef ff ff 13 	movl   $0xa40bfc13,-0x10ac(%rbp)
   11e66:	fc 0b a4 
   11e69:	c7 85 58 ef ff ff 00 	movl   $0x0,-0x10a8(%rbp)
   11e70:	00 00 00 
   11e73:	c7 85 5c ef ff ff 13 	movl   $0xa40bfc13,-0x10a4(%rbp)
   11e7a:	fc 0b a4 
   11e7d:	c7 85 60 ef ff ff ff 	movl   $0xffffffff,-0x10a0(%rbp)
   11e84:	ff ff ff 
   11e87:	c7 85 64 ef ff ff 01 	movl   $0x1,-0x109c(%rbp)
   11e8e:	00 00 00 
   11e91:	c7 85 68 ef ff ff ff 	movl   $0xffffffff,-0x1098(%rbp)
   11e98:	ff ff ff 
   11e9b:	c7 85 6c ef ff ff 13 	movl   $0xa40bfc13,-0x1094(%rbp)
   11ea2:	fc 0b a4 
   11ea5:	c7 85 70 ef ff ff 00 	movl   $0x0,-0x1090(%rbp)
   11eac:	00 00 00 
   11eaf:	c7 85 74 ef ff ff 13 	movl   $0xa40bfc13,-0x108c(%rbp)
   11eb6:	fc 0b a4 
   11eb9:	c7 85 78 ef ff ff ff 	movl   $0xffffffff,-0x1088(%rbp)
   11ec0:	ff ff ff 
   11ec3:	c7 85 7c ef ff ff 01 	movl   $0x1,-0x1084(%rbp)
   11eca:	00 00 00 
   11ecd:	c7 85 80 ef ff ff ff 	movl   $0xffffffff,-0x1080(%rbp)
   11ed4:	ff ff ff 
   11ed7:	c7 85 84 ef ff ff 13 	movl   $0xa40bfc13,-0x107c(%rbp)
   11ede:	fc 0b a4 
   11ee1:	c7 85 88 ef ff ff 00 	movl   $0x0,-0x1078(%rbp)
   11ee8:	00 00 00 
   11eeb:	c7 85 8c ef ff ff 13 	movl   $0xa40bfc13,-0x1074(%rbp)
   11ef2:	fc 0b a4 
   11ef5:	c7 85 90 ef ff ff ff 	movl   $0xffffffff,-0x1070(%rbp)
   11efc:	ff ff ff 
   11eff:	c7 85 94 ef ff ff 01 	movl   $0x1,-0x106c(%rbp)
   11f06:	00 00 00 
   11f09:	c7 85 98 ef ff ff ff 	movl   $0xffffffff,-0x1068(%rbp)
   11f10:	ff ff ff 
   11f13:	c7 85 9c ef ff ff 13 	movl   $0xa40bfc13,-0x1064(%rbp)
   11f1a:	fc 0b a4 
   11f1d:	c7 85 90 ee ff ff 00 	movl   $0x5d2bae00,-0x1170(%rbp)
   11f24:	ae 2b 5d 
   11f27:	66 c7 85 94 ee ff ff 	movw   $0x11f,-0x116c(%rbp)
   11f2e:	1f 01 
   11f30:	c6 85 96 ee ff ff 03 	movb   $0x3,-0x116a(%rbp)
   11f37:	c7 85 97 ee ff ff 03 	movl   $0x1ae0703,-0x1169(%rbp)
   11f3e:	07 ae 01 
   11f41:	66 c7 85 9b ee ff ff 	movw   $0xff5e,-0x1165(%rbp)
   11f48:	5e ff 
   11f4a:	c6 85 9d ee ff ff 00 	movb   $0x0,-0x1163(%rbp)
   11f51:	c7 85 9e ee ff ff ff 	movl   $0xffffffff,-0x1162(%rbp)
   11f58:	ff ff ff 
   11f5b:	66 c7 85 a2 ee ff ff 	movw   $0xfbae,-0x115e(%rbp)
   11f62:	ae fb 
   11f64:	c6 85 a4 ee ff ff ff 	movb   $0xff,-0x115c(%rbp)
   11f6b:	c7 85 a5 ee ff ff 03 	movl   $0x7ff0503,-0x115b(%rbp)
   11f72:	05 ff 07 
   11f75:	66 c7 85 a9 ee ff ff 	movw   $0xff1f,-0x1157(%rbp)
   11f7c:	1f ff 
   11f7e:	c6 85 ab ee ff ff 6f 	movb   $0x6f,-0x1155(%rbp)
   11f85:	c7 85 ac ee ff ff 1c 	movl   $0x104581c,-0x1154(%rbp)
   11f8c:	58 04 01 
   11f8f:	66 c7 85 b0 ee ff ff 	movw   $0x746,-0x1150(%rbp)
   11f96:	46 07 
   11f98:	c6 85 b2 ee ff ff 05 	movb   $0x5,-0x114e(%rbp)
   11f9f:	c7 85 b3 ee ff ff ff 	movl   $0xff07ff,-0x114d(%rbp)
   11fa6:	07 ff 00 
   11fa9:	66 c7 85 b7 ee ff ff 	movw   $0x582b,-0x1149(%rbp)
   11fb0:	2b 58 
   11fb2:	c6 85 b9 ee ff ff f0 	movb   $0xf0,-0x1147(%rbp)
   11fb9:	c7 85 ba ee ff ff 07 	movl   $0x1caef007,-0x1146(%rbp)
   11fc0:	f0 ae 1c 
   11fc3:	66 c7 85 be ee ff ff 	movw   $0xae1c,-0x1142(%rbp)
   11fca:	1c ae 
   11fcc:	c6 85 c0 ee ff ff f0 	movb   $0xf0,-0x1140(%rbp)
   11fd3:	c7 85 c1 ee ff ff 46 	movl   $0x5d010446,-0x113f(%rbp)
   11fda:	04 01 5d 
   11fdd:	66 c7 85 c5 ee ff ff 	movw   $0x1ff0,-0x113b(%rbp)
   11fe4:	f0 1f 
   11fe6:	c6 85 c7 ee ff ff 05 	movb   $0x5,-0x1139(%rbp)
   11fed:	c7 85 c8 ee ff ff 5e 	movl   $0xfff0ff5e,-0x1138(%rbp)
   11ff4:	ff f0 ff 
   11ff7:	66 c7 85 cc ee ff ff 	movw   $0x467d,-0x1134(%rbp)
   11ffe:	7d 46 
   12000:	c6 85 ce ee ff ff 6f 	movb   $0x6f,-0x1132(%rbp)
   12007:	c7 85 cf ee ff ff f0 	movl   $0x5d5800f0,-0x1131(%rbp)
   1200e:	00 58 5d 
   12011:	66 c7 85 d3 ee ff ff 	movw   $0x2b04,-0x112d(%rbp)
   12018:	04 2b 
   1201a:	c6 85 d5 ee ff ff ff 	movb   $0xff,-0x112b(%rbp)
   12021:	48 8d 85 30 f0 ff ff 	lea    -0xfd0(%rbp),%rax
   12028:	48 8d 15 b1 d3 00 00 	lea    0xd3b1(%rip),%rdx        # 1f3e0 <g_2335+0x16fc>
   1202f:	b9 28 00 00 00       	mov    $0x28,%ecx
   12034:	48 89 c7             	mov    %rax,%rdi
   12037:	48 89 d6             	mov    %rdx,%rsi
   1203a:	f3 48 a5             	rep movsq %ds:(%rsi),%es:(%rdi)
   1203d:	48 8d 05 f4 a0 00 00 	lea    0xa0f4(%rip),%rax        # 1c138 <g_207>
   12044:	48 89 85 f8 ed ff ff 	mov    %rax,-0x1208(%rbp)
   1204b:	48 8d 05 a6 0c 01 00 	lea    0x10ca6(%rip),%rax        # 22cf8 <g_786>
   12052:	48 89 85 50 ee ff ff 	mov    %rax,-0x11b0(%rbp)
   12059:	48 c7 85 58 ee ff ff 	movq   $0x0,-0x11a8(%rbp)
   12060:	00 00 00 00 
   12064:	48 c7 85 60 ee ff ff 	movq   $0x0,-0x11a0(%rbp)
   1206b:	00 00 00 00 
   1206f:	48 8d 05 82 0c 01 00 	lea    0x10c82(%rip),%rax        # 22cf8 <g_786>
   12076:	48 89 85 68 ee ff ff 	mov    %rax,-0x1198(%rbp)
   1207d:	48 c7 85 70 ee ff ff 	movq   $0x0,-0x1190(%rbp)
   12084:	00 00 00 00 
   12088:	48 c7 85 78 ee ff ff 	movq   $0x0,-0x1188(%rbp)
   1208f:	00 00 00 00 
   12093:	48 8d 05 5e 0c 01 00 	lea    0x10c5e(%rip),%rax        # 22cf8 <g_786>
   1209a:	48 89 85 80 ee ff ff 	mov    %rax,-0x1180(%rbp)
   120a1:	48 c7 85 88 ee ff ff 	movq   $0x0,-0x1178(%rbp)
   120a8:	00 00 00 00 
   120ac:	48 8d 05 4d e8 00 00 	lea    0xe84d(%rip),%rax        # 20900 <g_264>
   120b3:	48 89 85 78 ed ff ff 	mov    %rax,-0x1288(%rbp)
   120ba:	48 8d 85 78 ed ff ff 	lea    -0x1288(%rbp),%rax
   120c1:	48 89 85 80 ed ff ff 	mov    %rax,-0x1280(%rbp)
   120c8:	48 8d 85 80 ed ff ff 	lea    -0x1280(%rbp),%rax
   120cf:	48 89 85 00 ee ff ff 	mov    %rax,-0x1200(%rbp)
   120d6:	66 c7 85 46 ed ff ff 	movw   $0xffff,-0x12ba(%rbp)
   120dd:	ff ff 
   120df:	48 8d 85 48 ed ff ff 	lea    -0x12b8(%rbp),%rax
   120e6:	48 89 85 08 ee ff ff 	mov    %rax,-0x11f8(%rbp)
   120ed:	c7 85 50 ed ff ff 00 	movl   $0x0,-0x12b0(%rbp)
   120f4:	00 00 00 
   120f7:	eb 1e                	jmp    12117 <func_20+0x1559>
   120f9:	8b 85 50 ed ff ff    	mov    -0x12b0(%rbp),%eax
   120ff:	48 98                	cltq   
   12101:	48 8d 15 f8 0b 01 00 	lea    0x10bf8(%rip),%rdx        # 22d00 <g_951>
   12108:	48 89 94 c5 10 ee ff 	mov    %rdx,-0x11f0(%rbp,%rax,8)
   1210f:	ff 
   12110:	83 85 50 ed ff ff 01 	addl   $0x1,-0x12b0(%rbp)
   12117:	83 bd 50 ed ff ff 02 	cmpl   $0x2,-0x12b0(%rbp)
   1211e:	7e d9                	jle    120f9 <func_20+0x153b>
   12120:	48 8b 85 e8 ed ff ff 	mov    -0x1218(%rbp),%rax
   12127:	8b 00                	mov    (%rax),%eax
   12129:	8d 48 ff             	lea    -0x1(%rax),%ecx
   1212c:	48 8b 95 e8 ed ff ff 	mov    -0x1218(%rbp),%rdx
   12133:	89 0a                	mov    %ecx,(%rdx)
   12135:	3d 91 2c 55 1c       	cmp    $0x1c552c91,%eax
   1213a:	0f 95 c2             	setne  %dl
   1213d:	48 8b 05 fc e6 00 00 	mov    0xe6fc(%rip),%rax        # 20840 <g_70>
   12144:	0f b6 d2             	movzbl %dl,%edx
   12147:	89 10                	mov    %edx,(%rax)
   12149:	8b 85 38 ed ff ff    	mov    -0x12c8(%rbp),%eax
   1214f:	48 8b 5d e8          	mov    -0x18(%rbp),%rbx
   12153:	64 48 33 1c 25 28 00 	xor    %fs:0x28,%rbx
   1215a:	00 00 
   1215c:	74 05                	je     12163 <func_20+0x15a5>
   1215e:	e8 0d 9f ff ff       	callq  c070 <__stack_chk_fail@plt>
   12163:	48 81 c4 c8 12 00 00 	add    $0x12c8,%rsp
   1216a:	5b                   	pop    %rbx
   1216b:	5d                   	pop    %rbp
   1216c:	c3                   	retq   

000000000001216d <func_25>:
   1216d:	f3 0f 1e fa          	endbr64 
   12171:	55                   	push   %rbp
   12172:	48 89 e5             	mov    %rsp,%rbp
   12175:	48 81 ec 00 10 00 00 	sub    $0x1000,%rsp
   1217c:	48 83 0c 24 00       	orq    $0x0,(%rsp)
   12181:	48 81 ec 00 03 00 00 	sub    $0x300,%rsp
   12188:	89 95 24 ed ff ff    	mov    %edx,-0x12dc(%rbp)
   1218e:	89 8d 20 ed ff ff    	mov    %ecx,-0x12e0(%rbp)
   12194:	44 89 c0             	mov    %r8d,%eax
   12197:	89 fa                	mov    %edi,%edx
   12199:	88 95 2c ed ff ff    	mov    %dl,-0x12d4(%rbp)
   1219f:	89 f2                	mov    %esi,%edx
   121a1:	88 95 28 ed ff ff    	mov    %dl,-0x12d8(%rbp)
   121a7:	66 89 85 1c ed ff ff 	mov    %ax,-0x12e4(%rbp)
   121ae:	64 48 8b 04 25 28 00 	mov    %fs:0x28,%rax
   121b5:	00 00 
   121b7:	48 89 45 f8          	mov    %rax,-0x8(%rbp)
   121bb:	31 c0                	xor    %eax,%eax
   121bd:	c6 85 3d ed ff ff f5 	movb   $0xf5,-0x12c3(%rbp)
   121c4:	c7 85 4c ed ff ff 4e 	movl   $0x9fb4ff4e,-0x12b4(%rbp)
   121cb:	ff b4 9f 
   121ce:	c7 85 50 ed ff ff ff 	movl   $0xffffffff,-0x12b0(%rbp)
   121d5:	ff ff ff 
   121d8:	c7 85 10 ee ff ff f9 	movl   $0xfffffff9,-0x11f0(%rbp)
   121df:	ff ff ff 
   121e2:	c7 85 14 ee ff ff f9 	movl   $0xfffffff9,-0x11ec(%rbp)
   121e9:	ff ff ff 
   121ec:	c7 85 18 ee ff ff f7 	movl   $0xfffffff7,-0x11e8(%rbp)
   121f3:	ff ff ff 
   121f6:	c7 85 1c ee ff ff f9 	movl   $0xfffffff9,-0x11e4(%rbp)
   121fd:	ff ff ff 
   12200:	c7 85 20 ee ff ff f9 	movl   $0xfffffff9,-0x11e0(%rbp)
   12207:	ff ff ff 
   1220a:	c7 85 24 ee ff ff f7 	movl   $0xfffffff7,-0x11dc(%rbp)
   12211:	ff ff ff 
   12214:	c7 85 54 ed ff ff 9c 	movl   $0x5d2a539c,-0x12ac(%rbp)
   1221b:	53 2a 5d 
   1221e:	48 c7 85 68 ed ff ff 	movq   $0x2,-0x1298(%rbp)
   12225:	02 00 00 00 
   12229:	48 8d 05 e8 9e 00 00 	lea    0x9ee8(%rip),%rax        # 1c118 <g_114>
   12230:	48 89 85 50 ee ff ff 	mov    %rax,-0x11b0(%rbp)
   12237:	48 c7 85 58 ee ff ff 	movq   $0x0,-0x11a8(%rbp)
   1223e:	00 00 00 00 
   12242:	48 8d 05 cf 9e 00 00 	lea    0x9ecf(%rip),%rax        # 1c118 <g_114>
   12249:	48 89 85 60 ee ff ff 	mov    %rax,-0x11a0(%rbp)
   12250:	48 c7 85 68 ee ff ff 	movq   $0x0,-0x1198(%rbp)
   12257:	00 00 00 00 
   1225b:	48 8d 05 b6 9e 00 00 	lea    0x9eb6(%rip),%rax        # 1c118 <g_114>
   12262:	48 89 85 70 ee ff ff 	mov    %rax,-0x1190(%rbp)
   12269:	48 8d 85 3d ed ff ff 	lea    -0x12c3(%rbp),%rax
   12270:	48 89 85 78 ee ff ff 	mov    %rax,-0x1188(%rbp)
   12277:	48 8d 05 9a 9e 00 00 	lea    0x9e9a(%rip),%rax        # 1c118 <g_114>
   1227e:	48 89 85 80 ee ff ff 	mov    %rax,-0x1180(%rbp)
   12285:	48 c7 85 88 ee ff ff 	movq   $0x0,-0x1178(%rbp)
   1228c:	00 00 00 00 
   12290:	48 8d 05 81 9e 00 00 	lea    0x9e81(%rip),%rax        # 1c118 <g_114>
   12297:	48 89 85 90 ee ff ff 	mov    %rax,-0x1170(%rbp)
   1229e:	48 c7 85 98 ee ff ff 	movq   $0x0,-0x1168(%rbp)
   122a5:	00 00 00 00 
   122a9:	48 8d 05 68 9e 00 00 	lea    0x9e68(%rip),%rax        # 1c118 <g_114>
   122b0:	48 89 85 a0 ee ff ff 	mov    %rax,-0x1160(%rbp)
   122b7:	48 8d 05 5a 9e 00 00 	lea    0x9e5a(%rip),%rax        # 1c118 <g_114>
   122be:	48 89 85 a8 ee ff ff 	mov    %rax,-0x1158(%rbp)
   122c5:	48 8d 05 4c 9e 00 00 	lea    0x9e4c(%rip),%rax        # 1c118 <g_114>
   122cc:	48 89 85 b0 ee ff ff 	mov    %rax,-0x1150(%rbp)
   122d3:	48 c7 85 b8 ee ff ff 	movq   $0x0,-0x1148(%rbp)
   122da:	00 00 00 00 
   122de:	48 8d 05 33 9e 00 00 	lea    0x9e33(%rip),%rax        # 1c118 <g_114>
   122e5:	48 89 85 c0 ee ff ff 	mov    %rax,-0x1140(%rbp)
   122ec:	48 c7 85 c8 ee ff ff 	movq   $0x0,-0x1138(%rbp)
   122f3:	00 00 00 00 
   122f7:	48 8d 05 1a 9e 00 00 	lea    0x9e1a(%rip),%rax        # 1c118 <g_114>
   122fe:	48 89 85 d0 ee ff ff 	mov    %rax,-0x1130(%rbp)
   12305:	48 8d 85 3d ed ff ff 	lea    -0x12c3(%rbp),%rax
   1230c:	48 89 85 d8 ee ff ff 	mov    %rax,-0x1128(%rbp)
   12313:	48 8d 05 fe 9d 00 00 	lea    0x9dfe(%rip),%rax        # 1c118 <g_114>
   1231a:	48 89 85 e0 ee ff ff 	mov    %rax,-0x1120(%rbp)
   12321:	48 c7 85 e8 ee ff ff 	movq   $0x0,-0x1118(%rbp)
   12328:	00 00 00 00 
   1232c:	48 8d 05 e5 9d 00 00 	lea    0x9de5(%rip),%rax        # 1c118 <g_114>
   12333:	48 89 85 f0 ee ff ff 	mov    %rax,-0x1110(%rbp)
   1233a:	48 c7 85 f8 ee ff ff 	movq   $0x0,-0x1108(%rbp)
   12341:	00 00 00 00 
   12345:	48 8d 05 cc 9d 00 00 	lea    0x9dcc(%rip),%rax        # 1c118 <g_114>
   1234c:	48 89 85 00 ef ff ff 	mov    %rax,-0x1100(%rbp)
   12353:	48 8d 05 be 9d 00 00 	lea    0x9dbe(%rip),%rax        # 1c118 <g_114>
   1235a:	48 89 85 08 ef ff ff 	mov    %rax,-0x10f8(%rbp)
   12361:	48 8d 05 b0 9d 00 00 	lea    0x9db0(%rip),%rax        # 1c118 <g_114>
   12368:	48 89 85 10 ef ff ff 	mov    %rax,-0x10f0(%rbp)
   1236f:	48 c7 85 18 ef ff ff 	movq   $0x0,-0x10e8(%rbp)
   12376:	00 00 00 00 
   1237a:	48 8d 05 97 9d 00 00 	lea    0x9d97(%rip),%rax        # 1c118 <g_114>
   12381:	48 89 85 20 ef ff ff 	mov    %rax,-0x10e0(%rbp)
   12388:	48 c7 85 28 ef ff ff 	movq   $0x0,-0x10d8(%rbp)
   1238f:	00 00 00 00 
   12393:	48 8d 05 7e 9d 00 00 	lea    0x9d7e(%rip),%rax        # 1c118 <g_114>
   1239a:	48 89 85 30 ef ff ff 	mov    %rax,-0x10d0(%rbp)
   123a1:	48 8d 85 3d ed ff ff 	lea    -0x12c3(%rbp),%rax
   123a8:	48 89 85 38 ef ff ff 	mov    %rax,-0x10c8(%rbp)
   123af:	48 8d 05 62 9d 00 00 	lea    0x9d62(%rip),%rax        # 1c118 <g_114>
   123b6:	48 89 85 40 ef ff ff 	mov    %rax,-0x10c0(%rbp)
   123bd:	48 c7 85 48 ef ff ff 	movq   $0x0,-0x10b8(%rbp)
   123c4:	00 00 00 00 
   123c8:	48 8d 05 49 9d 00 00 	lea    0x9d49(%rip),%rax        # 1c118 <g_114>
   123cf:	48 89 85 50 ef ff ff 	mov    %rax,-0x10b0(%rbp)
   123d6:	48 c7 85 58 ef ff ff 	movq   $0x0,-0x10a8(%rbp)
   123dd:	00 00 00 00 
   123e1:	48 8d 05 30 9d 00 00 	lea    0x9d30(%rip),%rax        # 1c118 <g_114>
   123e8:	48 89 85 60 ef ff ff 	mov    %rax,-0x10a0(%rbp)
   123ef:	48 8d 05 22 9d 00 00 	lea    0x9d22(%rip),%rax        # 1c118 <g_114>
   123f6:	48 89 85 68 ef ff ff 	mov    %rax,-0x1098(%rbp)
   123fd:	48 8d 05 14 9d 00 00 	lea    0x9d14(%rip),%rax        # 1c118 <g_114>
   12404:	48 89 85 70 ef ff ff 	mov    %rax,-0x1090(%rbp)
   1240b:	48 c7 85 78 ef ff ff 	movq   $0x0,-0x1088(%rbp)
   12412:	00 00 00 00 
   12416:	48 8d 05 fb 9c 00 00 	lea    0x9cfb(%rip),%rax        # 1c118 <g_114>
   1241d:	48 89 85 80 ef ff ff 	mov    %rax,-0x1080(%rbp)
   12424:	48 c7 85 88 ef ff ff 	movq   $0x0,-0x1078(%rbp)
   1242b:	00 00 00 00 
   1242f:	48 8d 05 e2 9c 00 00 	lea    0x9ce2(%rip),%rax        # 1c118 <g_114>
   12436:	48 89 85 90 ef ff ff 	mov    %rax,-0x1070(%rbp)
   1243d:	48 8d 85 3d ed ff ff 	lea    -0x12c3(%rbp),%rax
   12444:	48 89 85 98 ef ff ff 	mov    %rax,-0x1068(%rbp)
   1244b:	48 8d 05 c6 9c 00 00 	lea    0x9cc6(%rip),%rax        # 1c118 <g_114>
   12452:	48 89 85 a0 ef ff ff 	mov    %rax,-0x1060(%rbp)
   12459:	48 c7 85 a8 ef ff ff 	movq   $0x0,-0x1058(%rbp)
   12460:	00 00 00 00 
   12464:	48 8d 05 ad 9c 00 00 	lea    0x9cad(%rip),%rax        # 1c118 <g_114>
   1246b:	48 89 85 b0 ef ff ff 	mov    %rax,-0x1050(%rbp)
   12472:	48 c7 85 b8 ef ff ff 	movq   $0x0,-0x1048(%rbp)
   12479:	00 00 00 00 
   1247d:	48 8d 05 94 9c 00 00 	lea    0x9c94(%rip),%rax        # 1c118 <g_114>
   12484:	48 89 85 c0 ef ff ff 	mov    %rax,-0x1040(%rbp)
   1248b:	48 8d 05 86 9c 00 00 	lea    0x9c86(%rip),%rax        # 1c118 <g_114>
   12492:	48 89 85 c8 ef ff ff 	mov    %rax,-0x1038(%rbp)
   12499:	48 8d 05 78 9c 00 00 	lea    0x9c78(%rip),%rax        # 1c118 <g_114>
   124a0:	48 89 85 d0 ef ff ff 	mov    %rax,-0x1030(%rbp)
   124a7:	48 c7 85 d8 ef ff ff 	movq   $0x0,-0x1028(%rbp)
   124ae:	00 00 00 00 
   124b2:	48 8d 05 5f 9c 00 00 	lea    0x9c5f(%rip),%rax        # 1c118 <g_114>
   124b9:	48 89 85 e0 ef ff ff 	mov    %rax,-0x1020(%rbp)
   124c0:	48 c7 85 e8 ef ff ff 	movq   $0x0,-0x1018(%rbp)
   124c7:	00 00 00 00 
   124cb:	48 8d 05 46 9c 00 00 	lea    0x9c46(%rip),%rax        # 1c118 <g_114>
   124d2:	48 89 85 f0 ef ff ff 	mov    %rax,-0x1010(%rbp)
   124d9:	48 8d 85 3d ed ff ff 	lea    -0x12c3(%rbp),%rax
   124e0:	48 89 85 f8 ef ff ff 	mov    %rax,-0x1008(%rbp)
   124e7:	48 8d 05 2a 9c 00 00 	lea    0x9c2a(%rip),%rax        # 1c118 <g_114>
   124ee:	48 89 85 00 f0 ff ff 	mov    %rax,-0x1000(%rbp)
   124f5:	48 c7 85 08 f0 ff ff 	movq   $0x0,-0xff8(%rbp)
   124fc:	00 00 00 00 
   12500:	48 8d 05 11 9c 00 00 	lea    0x9c11(%rip),%rax        # 1c118 <g_114>
   12507:	48 89 85 10 f0 ff ff 	mov    %rax,-0xff0(%rbp)
   1250e:	48 c7 85 18 f0 ff ff 	movq   $0x0,-0xfe8(%rbp)
   12515:	00 00 00 00 
   12519:	48 8d 05 f8 9b 00 00 	lea    0x9bf8(%rip),%rax        # 1c118 <g_114>
   12520:	48 89 85 20 f0 ff ff 	mov    %rax,-0xfe0(%rbp)
   12527:	48 8d 05 ea 9b 00 00 	lea    0x9bea(%rip),%rax        # 1c118 <g_114>
   1252e:	48 89 85 28 f0 ff ff 	mov    %rax,-0xfd8(%rbp)
   12535:	48 8d 05 dc 9b 00 00 	lea    0x9bdc(%rip),%rax        # 1c118 <g_114>
   1253c:	48 89 85 30 f0 ff ff 	mov    %rax,-0xfd0(%rbp)
   12543:	48 c7 85 38 f0 ff ff 	movq   $0x0,-0xfc8(%rbp)
   1254a:	00 00 00 00 
   1254e:	48 8d 05 c3 9b 00 00 	lea    0x9bc3(%rip),%rax        # 1c118 <g_114>
   12555:	48 89 85 40 f0 ff ff 	mov    %rax,-0xfc0(%rbp)
   1255c:	48 c7 85 48 f0 ff ff 	movq   $0x0,-0xfb8(%rbp)
   12563:	00 00 00 00 
   12567:	48 8d 05 aa 9b 00 00 	lea    0x9baa(%rip),%rax        # 1c118 <g_114>
   1256e:	48 89 85 50 f0 ff ff 	mov    %rax,-0xfb0(%rbp)
   12575:	48 8d 85 3d ed ff ff 	lea    -0x12c3(%rbp),%rax
   1257c:	48 89 85 58 f0 ff ff 	mov    %rax,-0xfa8(%rbp)
   12583:	48 8d 05 8e 9b 00 00 	lea    0x9b8e(%rip),%rax        # 1c118 <g_114>
   1258a:	48 89 85 60 f0 ff ff 	mov    %rax,-0xfa0(%rbp)
   12591:	48 c7 85 68 f0 ff ff 	movq   $0x0,-0xf98(%rbp)
   12598:	00 00 00 00 
   1259c:	48 8d 05 75 9b 00 00 	lea    0x9b75(%rip),%rax        # 1c118 <g_114>
   125a3:	48 89 85 70 f0 ff ff 	mov    %rax,-0xf90(%rbp)
   125aa:	48 c7 85 78 f0 ff ff 	movq   $0x0,-0xf88(%rbp)
   125b1:	00 00 00 00 
   125b5:	48 8d 05 5c 9b 00 00 	lea    0x9b5c(%rip),%rax        # 1c118 <g_114>
   125bc:	48 89 85 80 f0 ff ff 	mov    %rax,-0xf80(%rbp)
   125c3:	48 8d 05 4e 9b 00 00 	lea    0x9b4e(%rip),%rax        # 1c118 <g_114>
   125ca:	48 89 85 88 f0 ff ff 	mov    %rax,-0xf78(%rbp)
   125d1:	c7 85 58 ed ff ff b7 	movl   $0x1798e3b7,-0x12a8(%rbp)
   125d8:	e3 98 17 
   125db:	c7 85 5c ed ff ff a9 	movl   $0x846b3ca9,-0x12a4(%rbp)
   125e2:	3c 6b 84 
   125e5:	48 8d 05 5c e2 00 00 	lea    0xe25c(%rip),%rax        # 20848 <g_211>
   125ec:	48 89 85 80 ed ff ff 	mov    %rax,-0x1280(%rbp)
   125f3:	c7 85 60 ed ff ff 2c 	movl   $0xb63adb2c,-0x12a0(%rbp)
   125fa:	db 3a b6 
   125fd:	48 c7 85 88 ed ff ff 	movq   $0x0,-0x1278(%rbp)
   12604:	00 00 00 00 
   12608:	66 c7 85 3e ed ff ff 	movw   $0x69d8,-0x12c2(%rbp)
   1260f:	d8 69 
   12611:	48 8d 85 90 f0 ff ff 	lea    -0xf70(%rbp),%rax
   12618:	48 8d 15 01 cf 00 00 	lea    0xcf01(%rip),%rdx        # 1f520 <g_2335+0x183c>
   1261f:	b9 f0 00 00 00       	mov    $0xf0,%ecx
   12624:	48 89 c7             	mov    %rax,%rdi
   12627:	48 89 d6             	mov    %rdx,%rsi
   1262a:	f3 48 a5             	rep movsq %ds:(%rsi),%es:(%rdi)
   1262d:	48 8d 85 30 ee ff ff 	lea    -0x11d0(%rbp),%rax
   12634:	48 83 c0 10          	add    $0x10,%rax
   12638:	48 89 85 70 ed ff ff 	mov    %rax,-0x1290(%rbp)
   1263f:	48 8d 85 70 ed ff ff 	lea    -0x1290(%rbp),%rax
   12646:	48 89 85 78 ed ff ff 	mov    %rax,-0x1288(%rbp)
   1264d:	48 8d 85 78 ed ff ff 	lea    -0x1288(%rbp),%rax
   12654:	48 89 85 90 ed ff ff 	mov    %rax,-0x1270(%rbp)
   1265b:	66 c7 85 40 ed ff ff 	movw   $0x149e,-0x12c0(%rbp)
   12662:	9e 14 
   12664:	c7 85 44 ed ff ff 00 	movl   $0x0,-0x12bc(%rbp)
   1266b:	00 00 00 
   1266e:	eb 1e                	jmp    1268e <func_25+0x521>
   12670:	8b 85 44 ed ff ff    	mov    -0x12bc(%rbp),%eax
   12676:	48 98                	cltq   
   12678:	48 8d 95 68 ed ff ff 	lea    -0x1298(%rbp),%rdx
   1267f:	48 89 94 c5 30 ee ff 	mov    %rdx,-0x11d0(%rbp,%rax,8)
   12686:	ff 
   12687:	83 85 44 ed ff ff 01 	addl   $0x1,-0x12bc(%rbp)
   1268e:	83 bd 44 ed ff ff 03 	cmpl   $0x3,-0x12bc(%rbp)
   12695:	7e d9                	jle    12670 <func_25+0x503>
   12697:	c7 85 24 ed ff ff 00 	movl   $0x0,-0x12dc(%rbp)
   1269e:	00 00 00 
   126a1:	e9 58 01 00 00       	jmpq   127fe <func_25+0x691>
   126a6:	c7 85 64 ed ff ff 00 	movl   $0x0,-0x129c(%rbp)
   126ad:	00 00 00 
   126b0:	48 8d 85 10 f8 ff ff 	lea    -0x7f0(%rbp),%rax
   126b7:	48 8d 15 e2 d5 00 00 	lea    0xd5e2(%rip),%rdx        # 1fca0 <g_2335+0x1fbc>
   126be:	b9 fc 00 00 00       	mov    $0xfc,%ecx
   126c3:	48 89 c7             	mov    %rax,%rdi
   126c6:	48 89 d6             	mov    %rdx,%rsi
   126c9:	f3 48 a5             	rep movsq %ds:(%rsi),%es:(%rdi)
   126cc:	48 8d 05 55 9a 00 00 	lea    0x9a55(%rip),%rax        # 1c128 <g_203>
   126d3:	48 89 85 98 ed ff ff 	mov    %rax,-0x1268(%rbp)
   126da:	48 8d 05 d1 99 00 00 	lea    0x99d1(%rip),%rax        # 1c0b2 <g_104+0x72>
   126e1:	48 89 85 a0 ed ff ff 	mov    %rax,-0x1260(%rbp)
   126e8:	48 8d 05 33 9a 00 00 	lea    0x9a33(%rip),%rax        # 1c122 <g_190>
   126ef:	48 89 85 a8 ed ff ff 	mov    %rax,-0x1258(%rbp)
   126f6:	66 c7 85 f0 ed ff ff 	movw   $0xfcc9,-0x1210(%rbp)
   126fd:	c9 fc 
   126ff:	66 c7 85 f2 ed ff ff 	movw   $0xfcc9,-0x120e(%rbp)
   12706:	c9 fc 
   12708:	66 c7 85 f4 ed ff ff 	movw   $0xfcc9,-0x120c(%rbp)
   1270f:	c9 fc 
   12711:	66 c7 85 f6 ed ff ff 	movw   $0xfcc9,-0x120a(%rbp)
   12718:	c9 fc 
   1271a:	66 c7 85 f8 ed ff ff 	movw   $0xfcc9,-0x1208(%rbp)
   12721:	c9 fc 
   12723:	66 c7 85 fa ed ff ff 	movw   $0xfcc9,-0x1206(%rbp)
   1272a:	c9 fc 
   1272c:	66 c7 85 fc ed ff ff 	movw   $0xfcc9,-0x1204(%rbp)
   12733:	c9 fc 
   12735:	66 c7 85 fe ed ff ff 	movw   $0xfcc9,-0x1202(%rbp)
   1273c:	c9 fc 
   1273e:	66 c7 85 00 ee ff ff 	movw   $0xfcc9,-0x1200(%rbp)
   12745:	c9 fc 
   12747:	66 c7 85 02 ee ff ff 	movw   $0xfcc9,-0x11fe(%rbp)
   1274e:	c9 fc 
   12750:	66 c7 85 42 ed ff ff 	movw   $0x689a,-0x12be(%rbp)
   12757:	9a 68 
   12759:	48 8d 05 e8 e0 00 00 	lea    0xe0e8(%rip),%rax        # 20848 <g_211>
   12760:	48 89 85 b0 ed ff ff 	mov    %rax,-0x1250(%rbp)
   12767:	48 c7 85 c8 ed ff ff 	movq   $0x0,-0x1238(%rbp)
   1276e:	00 00 00 00 
   12772:	48 8d 85 c8 ed ff ff 	lea    -0x1238(%rbp),%rax
   12779:	48 89 85 b8 ed ff ff 	mov    %rax,-0x1248(%rbp)
   12780:	48 b8 ea fd d5 41 a2 	movabs $0x6e38faa241d5fdea,%rax
   12787:	fa 38 6e 
   1278a:	48 89 85 c0 ed ff ff 	mov    %rax,-0x1240(%rbp)
   12791:	c7 85 48 ed ff ff 00 	movl   $0x0,-0x12b8(%rbp)
   12798:	00 00 00 
   1279b:	eb 1e                	jmp    127bb <func_25+0x64e>
   1279d:	8b 85 48 ed ff ff    	mov    -0x12b8(%rbp),%eax
   127a3:	48 98                	cltq   
   127a5:	48 8d 15 3c 05 01 00 	lea    0x1053c(%rip),%rdx        # 22ce8 <g_55>
   127ac:	48 89 94 c5 e0 ed ff 	mov    %rdx,-0x1220(%rbp,%rax,8)
   127b3:	ff 
   127b4:	83 85 48 ed ff ff 01 	addl   $0x1,-0x12b8(%rbp)
   127bb:	83 bd 48 ed ff ff 01 	cmpl   $0x1,-0x12b8(%rbp)
   127c2:	7e d9                	jle    1279d <func_25+0x630>
   127c4:	c7 85 48 ed ff ff 00 	movl   $0x0,-0x12b8(%rbp)
   127cb:	00 00 00 
   127ce:	eb 1e                	jmp    127ee <func_25+0x681>
   127d0:	8b 85 48 ed ff ff    	mov    -0x12b8(%rbp),%eax
   127d6:	48 98                	cltq   
   127d8:	48 8d 15 39 99 00 00 	lea    0x9939(%rip),%rdx        # 1c118 <g_114>
   127df:	48 89 94 c5 d8 ed ff 	mov    %rdx,-0x1228(%rbp,%rax,8)
   127e6:	ff 
   127e7:	83 85 48 ed ff ff 01 	addl   $0x1,-0x12b8(%rbp)
   127ee:	83 bd 48 ed ff ff 00 	cmpl   $0x0,-0x12b8(%rbp)
   127f5:	7e d9                	jle    127d0 <func_25+0x663>
   127f7:	83 ad 24 ed ff ff 01 	subl   $0x1,-0x12dc(%rbp)
   127fe:	83 bd 24 ed ff ff f1 	cmpl   $0xfffffff1,-0x12dc(%rbp)
   12805:	0f 8c 9b fe ff ff    	jl     126a6 <func_25+0x539>
   1280b:	48 8b 05 36 e0 00 00 	mov    0xe036(%rip),%rax        # 20848 <g_211>
   12812:	48 8b 10             	mov    (%rax),%rdx
   12815:	48 89 95 c8 ed ff ff 	mov    %rdx,-0x1238(%rbp)
   1281c:	8b 40 08             	mov    0x8(%rax),%eax
   1281f:	89 85 d0 ed ff ff    	mov    %eax,-0x1230(%rbp)
   12825:	48 8b 85 c8 ed ff ff 	mov    -0x1238(%rbp),%rax
   1282c:	8b 8d d0 ed ff ff    	mov    -0x1230(%rbp),%ecx
   12832:	48 89 ca             	mov    %rcx,%rdx
   12835:	48 8b 4d f8          	mov    -0x8(%rbp),%rcx
   12839:	64 48 33 0c 25 28 00 	xor    %fs:0x28,%rcx
   12840:	00 00 
   12842:	74 05                	je     12849 <func_25+0x6dc>
   12844:	e8 27 98 ff ff       	callq  c070 <__stack_chk_fail@plt>
   12849:	c9                   	leaveq 
   1284a:	c3                   	retq   

000000000001284b <func_58>:
   1284b:	f3 0f 1e fa          	endbr64 
   1284f:	55                   	push   %rbp
   12850:	48 89 e5             	mov    %rsp,%rbp
   12853:	89 f8                	mov    %edi,%eax
   12855:	48 89 75 e0          	mov    %rsi,-0x20(%rbp)
   12859:	89 55 e8             	mov    %edx,-0x18(%rbp)
   1285c:	88 45 ec             	mov    %al,-0x14(%rbp)
   1285f:	66 c7 45 fe a2 80    	movw   $0x80a2,-0x2(%rbp)
   12865:	c7 05 7d 04 01 00 00 	movl   $0x0,0x1047d(%rip)        # 22cec <g_71>
   1286c:	00 00 00 
   1286f:	90                   	nop
   12870:	8b 05 76 04 01 00    	mov    0x10476(%rip),%eax        # 22cec <g_71>
   12876:	83 f8 02             	cmp    $0x2,%eax
   12879:	75 05                	jne    12880 <func_58+0x35>
   1287b:	8b 45 e8             	mov    -0x18(%rbp),%eax
   1287e:	eb 04                	jmp    12884 <func_58+0x39>
   12880:	0f b7 45 fe          	movzwl -0x2(%rbp),%eax
   12884:	5d                   	pop    %rbp
   12885:	c3                   	retq   

0000000000012886 <func_64>:
   12886:	f3 0f 1e fa          	endbr64 
   1288a:	55                   	push   %rbp
   1288b:	48 89 e5             	mov    %rsp,%rbp
   1288e:	41 55                	push   %r13
   12890:	41 54                	push   %r12
   12892:	53                   	push   %rbx
   12893:	48 81 ec 08 02 00 00 	sub    $0x208,%rsp
   1289a:	89 bd fc fd ff ff    	mov    %edi,-0x204(%rbp)
   128a0:	89 b5 f8 fd ff ff    	mov    %esi,-0x208(%rbp)
   128a6:	48 89 95 f0 fd ff ff 	mov    %rdx,-0x210(%rbp)
   128ad:	48 89 8d e8 fd ff ff 	mov    %rcx,-0x218(%rbp)
   128b4:	64 48 8b 04 25 28 00 	mov    %fs:0x28,%rax
   128bb:	00 00 
   128bd:	48 89 45 d8          	mov    %rax,-0x28(%rbp)
   128c1:	31 c0                	xor    %eax,%eax
   128c3:	c7 85 00 fe ff ff 7f 	movl   $0xd5bb0c7f,-0x200(%rbp)
   128ca:	0c bb d5 
   128cd:	48 8d 85 10 fe ff ff 	lea    -0x1f0(%rbp),%rax
   128d4:	48 8d 15 a5 db 00 00 	lea    0xdba5(%rip),%rdx        # 20480 <g_2335+0x279c>
   128db:	b9 38 00 00 00       	mov    $0x38,%ecx
   128e0:	48 89 c7             	mov    %rax,%rdi
   128e3:	48 89 d6             	mov    %rdx,%rsi
   128e6:	f3 48 a5             	rep movsq %ds:(%rsi),%es:(%rdi)
   128e9:	c7 85 04 fe ff ff 01 	movl   $0x1,-0x1fc(%rbp)
   128f0:	00 00 00 
   128f3:	48 8d 05 3a 97 00 00 	lea    0x973a(%rip),%rax        # 1c034 <g_101>
   128fa:	48 89 85 08 fe ff ff 	mov    %rax,-0x1f8(%rbp)
   12901:	48 8b 85 e8 fd ff ff 	mov    -0x218(%rbp),%rax
   12908:	44 0f b7 e8          	movzwl %ax,%r13d
   1290c:	48 8b 1d 2d df 00 00 	mov    0xdf2d(%rip),%rbx        # 20840 <g_70>
   12913:	44 8b a5 fc fd ff ff 	mov    -0x204(%rbp),%r12d
   1291a:	8b 05 cc 03 01 00    	mov    0x103cc(%rip),%eax        # 22cec <g_71>
   12920:	48 98                	cltq   
   12922:	48 8b 95 e8 fd ff ff 	mov    -0x218(%rbp),%rdx
   12929:	48 89 d6             	mov    %rdx,%rsi
   1292c:	48 89 c7             	mov    %rax,%rdi
   1292f:	e8 80 a0 ff ff       	callq  c9b4 <safe_mod_func_int64_t_s_s>
   12934:	48 89 c2             	mov    %rax,%rdx
   12937:	48 b8 2d 33 6c cd b8 	movabs $0x913db3b8cd6c332d,%rax
   1293e:	b3 3d 91 
   12941:	48 39 c2             	cmp    %rax,%rdx
   12944:	76 09                	jbe    1294f <func_64+0xc9>
   12946:	83 bd 00 fe ff ff 00 	cmpl   $0x0,-0x200(%rbp)
   1294d:	74 07                	je     12956 <func_64+0xd0>
   1294f:	b8 01 00 00 00       	mov    $0x1,%eax
   12954:	eb 05                	jmp    1295b <func_64+0xd5>
   12956:	b8 00 00 00 00       	mov    $0x0,%eax
   1295b:	23 85 00 fe ff ff    	and    -0x200(%rbp),%eax
   12961:	23 85 00 fe ff ff    	and    -0x200(%rbp),%eax
   12967:	83 c8 01             	or     $0x1,%eax
   1296a:	83 f0 08             	xor    $0x8,%eax
   1296d:	89 c2                	mov    %eax,%edx
   1296f:	8b 05 77 03 01 00    	mov    0x10377(%rip),%eax        # 22cec <g_71>
   12975:	89 85 04 fe ff ff    	mov    %eax,-0x1fc(%rbp)
   1297b:	8b 85 04 fe ff ff    	mov    -0x1fc(%rbp),%eax
   12981:	0f b7 c0             	movzwl %ax,%eax
   12984:	89 d6                	mov    %edx,%esi
   12986:	89 c7                	mov    %eax,%edi
   12988:	e8 bb a4 ff ff       	callq  ce48 <safe_rshift_func_uint16_t_u_s>
   1298d:	0f b7 d0             	movzwl %ax,%edx
   12990:	8b 85 00 fe ff ff    	mov    -0x200(%rbp),%eax
   12996:	0f be c0             	movsbl %al,%eax
   12999:	89 d6                	mov    %edx,%esi
   1299b:	89 c7                	mov    %eax,%edi
   1299d:	e8 ca 99 ff ff       	callq  c36c <safe_rshift_func_int8_t_s_u>
   129a2:	84 c0                	test   %al,%al
   129a4:	0f 94 c0             	sete   %al
   129a7:	0f b6 c0             	movzbl %al,%eax
   129aa:	8b 95 00 fe ff ff    	mov    -0x200(%rbp),%edx
   129b0:	09 d0                	or     %edx,%eax
   129b2:	0f b7 c0             	movzwl %ax,%eax
   129b5:	be 4f ec 00 00       	mov    $0xec4f,%esi
   129ba:	89 c7                	mov    %eax,%edi
   129bc:	e8 3e a3 ff ff       	callq  ccff <safe_add_func_uint16_t_u_u>
   129c1:	0f b6 c0             	movzbl %al,%eax
   129c4:	44 89 e6             	mov    %r12d,%esi
   129c7:	89 c7                	mov    %eax,%edi
   129c9:	e8 f0 a2 ff ff       	callq  ccbe <safe_rshift_func_uint8_t_u_u>
   129ce:	be a3 ee aa fb       	mov    $0xfbaaeea3,%esi
   129d3:	bf c1 c1 e4 a6       	mov    $0xa6e4c1c1,%edi
   129d8:	e8 f3 a4 ff ff       	callq  ced0 <safe_sub_func_uint32_t_u_u>
   129dd:	85 c0                	test   %eax,%eax
   129df:	0f 94 c0             	sete   %al
   129e2:	0f b6 c0             	movzbl %al,%eax
   129e5:	48 8b 15 3c 96 00 00 	mov    0x963c(%rip),%rdx        # 1c028 <g_7>
   129ec:	21 d0                	and    %edx,%eax
   129ee:	98                   	cwtl   
   129ef:	89 c6                	mov    %eax,%esi
   129f1:	bf 0b 99 ff ff       	mov    $0xffff990b,%edi
   129f6:	e8 d8 99 ff ff       	callq  c3d3 <safe_sub_func_int16_t_s_s>
   129fb:	89 c2                	mov    %eax,%edx
   129fd:	48 8b 05 3c de 00 00 	mov    0xde3c(%rip),%rax        # 20840 <g_70>
   12a04:	0f bf d2             	movswl %dx,%edx
   12a07:	89 10                	mov    %edx,(%rax)
   12a09:	8b 00                	mov    (%rax),%eax
   12a0b:	48 8b 95 08 fe ff ff 	mov    -0x1f8(%rbp),%rdx
   12a12:	48 8b b5 f0 fd ff ff 	mov    -0x210(%rbp),%rsi
   12a19:	45 89 e8             	mov    %r13d,%r8d
   12a1c:	48 89 d1             	mov    %rdx,%rcx
   12a1f:	48 89 da             	mov    %rbx,%rdx
   12a22:	89 c7                	mov    %eax,%edi
   12a24:	e8 c2 02 00 00       	callq  12ceb <func_75>
   12a29:	48 89 c7             	mov    %rax,%rdi
   12a2c:	e8 61 00 00 00       	callq  12a92 <func_73>
   12a31:	0f b6 c0             	movzbl %al,%eax
   12a34:	39 85 00 fe ff ff    	cmp    %eax,-0x200(%rbp)
   12a3a:	0f 96 c0             	setbe  %al
   12a3d:	0f b6 c0             	movzbl %al,%eax
   12a40:	39 85 f8 fd ff ff    	cmp    %eax,-0x208(%rbp)
   12a46:	0f 95 c0             	setne  %al
   12a49:	0f b6 d0             	movzbl %al,%edx
   12a4c:	48 8b 85 f0 fd ff ff 	mov    -0x210(%rbp),%rax
   12a53:	89 10                	mov    %edx,(%rax)
   12a55:	48 8b 85 f0 fd ff ff 	mov    -0x210(%rbp),%rax
   12a5c:	8b 10                	mov    (%rax),%edx
   12a5e:	48 8b 85 08 fe ff ff 	mov    -0x1f8(%rbp),%rax
   12a65:	89 10                	mov    %edx,(%rax)
   12a67:	48 8b 05 ea dd 00 00 	mov    0xddea(%rip),%rax        # 20858 <g_217>
   12a6e:	8b 00                	mov    (%rax),%eax
   12a70:	48 8b 5d d8          	mov    -0x28(%rbp),%rbx
   12a74:	64 48 33 1c 25 28 00 	xor    %fs:0x28,%rbx
   12a7b:	00 00 
   12a7d:	74 05                	je     12a84 <func_64+0x1fe>
   12a7f:	e8 ec 95 ff ff       	callq  c070 <__stack_chk_fail@plt>
   12a84:	48 81 c4 08 02 00 00 	add    $0x208,%rsp
   12a8b:	5b                   	pop    %rbx
   12a8c:	41 5c                	pop    %r12
   12a8e:	41 5d                	pop    %r13
   12a90:	5d                   	pop    %rbp
   12a91:	c3                   	retq   

0000000000012a92 <func_73>:
   12a92:	f3 0f 1e fa          	endbr64 
   12a96:	55                   	push   %rbp
   12a97:	48 89 e5             	mov    %rsp,%rbp
   12a9a:	41 57                	push   %r15
   12a9c:	41 56                	push   %r14
   12a9e:	41 55                	push   %r13
   12aa0:	41 54                	push   %r12
   12aa2:	53                   	push   %rbx
   12aa3:	48 83 ec 40          	sub    $0x40,%rsp
   12aa7:	48 89 7d a0          	mov    %rdi,-0x60(%rbp)
   12aab:	48 8d 05 66 96 00 00 	lea    0x9666(%rip),%rax        # 1c118 <g_114>
   12ab2:	48 89 45 c8          	mov    %rax,-0x38(%rbp)
   12ab6:	c7 45 b4 14 df 3b 72 	movl   $0x723bdf14,-0x4c(%rbp)
   12abd:	48 8d 05 54 96 00 00 	lea    0x9654(%rip),%rax        # 1c118 <g_114>
   12ac4:	48 89 45 b8          	mov    %rax,-0x48(%rbp)
   12ac8:	c7 45 ac fe ff ff ff 	movl   $0xfffffffe,-0x54(%rbp)
   12acf:	c7 45 b0 84 9f da 8c 	movl   $0x8cda9f84,-0x50(%rbp)
   12ad6:	48 8d 05 85 95 00 00 	lea    0x9585(%rip),%rax        # 1c062 <g_104+0x22>
   12add:	48 89 45 c0          	mov    %rax,-0x40(%rbp)
   12ae1:	c6 05 3a 96 00 00 00 	movb   $0x0,0x963a(%rip)        # 1c122 <g_190>
   12ae8:	90                   	nop
   12ae9:	0f b6 05 32 96 00 00 	movzbl 0x9632(%rip),%eax        # 1c122 <g_190>
   12af0:	3c 06                	cmp    $0x6,%al
   12af2:	76 47                	jbe    12b3b <func_73+0xa9>
   12af4:	48 b8 07 89 fc 7c 23 	movabs $0x1c2cf4237cfc8907,%rax
   12afb:	f4 2c 1c 
   12afe:	48 89 45 d0          	mov    %rax,-0x30(%rbp)
   12b02:	48 c7 05 1b 96 00 00 	movq   $0xfffffffffffffff8,0x961b(%rip)        # 1c128 <g_203>
   12b09:	f8 ff ff ff 
   12b0d:	90                   	nop
   12b0e:	48 8b 05 13 96 00 00 	mov    0x9613(%rip),%rax        # 1c128 <g_203>
   12b15:	48 83 f8 25          	cmp    $0x25,%rax
   12b19:	74 14                	je     12b2f <func_73+0x9d>
   12b1b:	48 8b 45 a0          	mov    -0x60(%rbp),%rax
   12b1f:	8b 00                	mov    (%rax),%eax
   12b21:	85 c0                	test   %eax,%eax
   12b23:	75 09                	jne    12b2e <func_73+0x9c>
   12b25:	48 8b 45 d0          	mov    -0x30(%rbp),%rax
   12b29:	e9 ae 01 00 00       	jmpq   12cdc <func_73+0x24a>
   12b2e:	90                   	nop
   12b2f:	0f b7 05 0e 96 00 00 	movzwl 0x960e(%rip),%eax        # 1c144 <g_214>
   12b36:	e9 a1 01 00 00       	jmpq   12cdc <func_73+0x24a>
   12b3b:	8b 05 db 95 00 00    	mov    0x95db(%rip),%eax        # 1c11c <g_122>
   12b41:	0f be d8             	movsbl %al,%ebx
   12b44:	8b 45 b4             	mov    -0x4c(%rbp),%eax
   12b47:	44 0f bf e0          	movswl %ax,%r12d
   12b4b:	48 8b 05 06 dd 00 00 	mov    0xdd06(%rip),%rax        # 20858 <g_217>
   12b52:	44 8b 28             	mov    (%rax),%r13d
   12b55:	8b 05 e5 95 00 00    	mov    0x95e5(%rip),%eax        # 1c140 <g_207+0x8>
   12b5b:	c1 e8 09             	shr    $0x9,%eax
   12b5e:	80 e4 ff             	and    $0xff,%ah
   12b61:	44 0f b6 f0          	movzbl %al,%r14d
   12b65:	8b 45 b4             	mov    -0x4c(%rbp),%eax
   12b68:	44 0f b7 f8          	movzwl %ax,%r15d
   12b6c:	48 8b 45 b8          	mov    -0x48(%rbp),%rax
   12b70:	0f b6 00             	movzbl (%rax),%eax
   12b73:	83 e0 01             	and    $0x1,%eax
   12b76:	89 c2                	mov    %eax,%edx
   12b78:	48 8b 45 b8          	mov    -0x48(%rbp),%rax
   12b7c:	88 10                	mov    %dl,(%rax)
   12b7e:	8b 45 b4             	mov    -0x4c(%rbp),%eax
   12b81:	0f b7 c0             	movzwl %ax,%eax
   12b84:	89 45 9c             	mov    %eax,-0x64(%rbp)
   12b87:	8b 45 b4             	mov    -0x4c(%rbp),%eax
   12b8a:	48 98                	cltq   
   12b8c:	48 89 c6             	mov    %rax,%rsi
   12b8f:	48 c7 c7 ff ff ff ff 	mov    $0xffffffffffffffff,%rdi
   12b96:	e8 19 9e ff ff       	callq  c9b4 <safe_mod_func_int64_t_s_s>
   12b9b:	0f b7 c0             	movzwl %ax,%eax
   12b9e:	83 e0 09             	and    $0x9,%eax
   12ba1:	8b 75 9c             	mov    -0x64(%rbp),%esi
   12ba4:	89 c7                	mov    %eax,%edi
   12ba6:	e8 e3 a1 ff ff       	callq  cd8e <safe_div_func_uint16_t_u_u>
   12bab:	0f b7 c0             	movzwl %ax,%eax
   12bae:	89 45 ac             	mov    %eax,-0x54(%rbp)
   12bb1:	8b 45 ac             	mov    -0x54(%rbp),%eax
   12bb4:	48 8b 15 45 dd 00 00 	mov    0xdd45(%rip),%rdx        # 20900 <g_264>
   12bbb:	48 8b 12             	mov    (%rdx),%rdx
   12bbe:	09 45 b0             	or     %eax,-0x50(%rbp)
   12bc1:	8b 45 b0             	mov    -0x50(%rbp),%eax
   12bc4:	3b 45 b4             	cmp    -0x4c(%rbp),%eax
   12bc7:	0f 94 c0             	sete   %al
   12bca:	0f b6 c0             	movzbl %al,%eax
   12bcd:	23 45 b4             	and    -0x4c(%rbp),%eax
   12bd0:	48 98                	cltq   
   12bd2:	48 39 c2             	cmp    %rax,%rdx
   12bd5:	0f 9e c0             	setle  %al
   12bd8:	0f b6 d0             	movzbl %al,%edx
   12bdb:	48 8b 45 c0          	mov    -0x40(%rbp),%rax
   12bdf:	0f b7 00             	movzwl (%rax),%eax
   12be2:	89 c1                	mov    %eax,%ecx
   12be4:	89 d0                	mov    %edx,%eax
   12be6:	09 c8                	or     %ecx,%eax
   12be8:	89 c2                	mov    %eax,%edx
   12bea:	48 8b 45 c0          	mov    -0x40(%rbp),%rax
   12bee:	66 89 10             	mov    %dx,(%rax)
   12bf1:	48 8b 45 c0          	mov    -0x40(%rbp),%rax
   12bf5:	0f b7 00             	movzwl (%rax),%eax
   12bf8:	0f b7 c0             	movzwl %ax,%eax
   12bfb:	be 01 00 00 00       	mov    $0x1,%esi
   12c00:	89 c7                	mov    %eax,%edi
   12c02:	e8 87 a1 ff ff       	callq  cd8e <safe_div_func_uint16_t_u_u>
   12c07:	b8 04 00 00 00       	mov    $0x4,%eax
   12c0c:	0f b7 c0             	movzwl %ax,%eax
   12c0f:	44 89 fe             	mov    %r15d,%esi
   12c12:	89 c7                	mov    %eax,%edi
   12c14:	e8 06 a1 ff ff       	callq  cd1f <safe_sub_func_uint16_t_u_u>
   12c19:	44 89 f6             	mov    %r14d,%esi
   12c1c:	bf 14 da ff ff       	mov    $0xffffda14,%edi
   12c21:	e8 04 99 ff ff       	callq  c52a <safe_rshift_func_int16_t_s_s>
   12c26:	8b 55 b4             	mov    -0x4c(%rbp),%edx
   12c29:	09 d0                	or     %edx,%eax
   12c2b:	0f b7 c0             	movzwl %ax,%eax
   12c2e:	be 04 00 00 00       	mov    $0x4,%esi
   12c33:	89 c7                	mov    %eax,%edi
   12c35:	e8 84 a1 ff ff       	callq  cdbe <safe_lshift_func_uint16_t_u_s>
   12c3a:	8b 45 b4             	mov    -0x4c(%rbp),%eax
   12c3d:	98                   	cwtl   
   12c3e:	be 07 00 00 00       	mov    $0x7,%esi
   12c43:	89 c7                	mov    %eax,%edi
   12c45:	e8 19 99 ff ff       	callq  c563 <safe_rshift_func_int16_t_s_u>
   12c4a:	0f bf d0             	movswl %ax,%edx
   12c4d:	48 8b 45 a0          	mov    -0x60(%rbp),%rax
   12c51:	8b 00                	mov    (%rax),%eax
   12c53:	39 45 ac             	cmp    %eax,-0x54(%rbp)
   12c56:	0f 9c c0             	setl   %al
   12c59:	0f b6 c0             	movzbl %al,%eax
   12c5c:	09 d0                	or     %edx,%eax
   12c5e:	39 45 b4             	cmp    %eax,-0x4c(%rbp)
   12c61:	0f 9c c0             	setl   %al
   12c64:	0f b6 c0             	movzbl %al,%eax
   12c67:	44 89 ee             	mov    %r13d,%esi
   12c6a:	89 c7                	mov    %eax,%edi
   12c6c:	e8 45 99 ff ff       	callq  c5b6 <safe_add_func_int32_t_s_s>
   12c71:	b8 04 00 00 00       	mov    $0x4,%eax
   12c76:	39 45 b0             	cmp    %eax,-0x50(%rbp)
   12c79:	0f 94 c0             	sete   %al
   12c7c:	0f b6 c0             	movzbl %al,%eax
   12c7f:	44 89 e6             	mov    %r12d,%esi
   12c82:	89 c7                	mov    %eax,%edi
   12c84:	e8 6c 97 ff ff       	callq  c3f5 <safe_mul_func_int16_t_s_s>
   12c89:	89 de                	mov    %ebx,%esi
   12c8b:	bf 01 00 00 00       	mov    $0x1,%edi
   12c90:	e8 7d 95 ff ff       	callq  c212 <safe_mul_func_int8_t_s_s>
   12c95:	66 98                	cbtw   
   12c97:	8b 55 b4             	mov    -0x4c(%rbp),%edx
   12c9a:	31 d0                	xor    %edx,%eax
   12c9c:	0f b7 c0             	movzwl %ax,%eax
   12c9f:	be ad dc 00 00       	mov    $0xdcad,%esi
   12ca4:	89 c7                	mov    %eax,%edi
   12ca6:	e8 b1 a0 ff ff       	callq  cd5c <safe_mod_func_uint16_t_u_u>
   12cab:	0f b7 d0             	movzwl %ax,%edx
   12cae:	48 8b 45 a0          	mov    -0x60(%rbp),%rax
   12cb2:	8b 00                	mov    (%rax),%eax
   12cb4:	39 c2                	cmp    %eax,%edx
   12cb6:	0f 9c c0             	setl   %al
   12cb9:	0f b6 d0             	movzbl %al,%edx
   12cbc:	48 83 7d c8 00       	cmpq   $0x0,-0x38(%rbp)
   12cc1:	0f 94 c0             	sete   %al
   12cc4:	0f b6 c0             	movzbl %al,%eax
   12cc7:	89 d6                	mov    %edx,%esi
   12cc9:	89 c7                	mov    %eax,%edi
   12ccb:	e8 8a 9e ff ff       	callq  cb5a <safe_add_func_uint8_t_u_u>
   12cd0:	0f b6 d0             	movzbl %al,%edx
   12cd3:	48 8b 45 a0          	mov    -0x60(%rbp),%rax
   12cd7:	89 10                	mov    %edx,(%rax)
   12cd9:	8b 45 ac             	mov    -0x54(%rbp),%eax
   12cdc:	48 83 c4 40          	add    $0x40,%rsp
   12ce0:	5b                   	pop    %rbx
   12ce1:	41 5c                	pop    %r12
   12ce3:	41 5d                	pop    %r13
   12ce5:	41 5e                	pop    %r14
   12ce7:	41 5f                	pop    %r15
   12ce9:	5d                   	pop    %rbp
   12cea:	c3                   	retq   

0000000000012ceb <func_75>:
   12ceb:	f3 0f 1e fa          	endbr64 
   12cef:	55                   	push   %rbp
   12cf0:	48 89 e5             	mov    %rsp,%rbp
   12cf3:	41 54                	push   %r12
   12cf5:	53                   	push   %rbx
   12cf6:	48 81 ec 30 0d 00 00 	sub    $0xd30,%rsp
   12cfd:	89 bd dc f2 ff ff    	mov    %edi,-0xd24(%rbp)
   12d03:	48 89 b5 d0 f2 ff ff 	mov    %rsi,-0xd30(%rbp)
   12d0a:	48 89 95 c8 f2 ff ff 	mov    %rdx,-0xd38(%rbp)
   12d11:	48 89 8d c0 f2 ff ff 	mov    %rcx,-0xd40(%rbp)
   12d18:	44 89 c0             	mov    %r8d,%eax
   12d1b:	66 89 85 d8 f2 ff ff 	mov    %ax,-0xd28(%rbp)
   12d22:	64 48 8b 04 25 28 00 	mov    %fs:0x28,%rax
   12d29:	00 00 
   12d2b:	48 89 45 e8          	mov    %rax,-0x18(%rbp)
   12d2f:	31 c0                	xor    %eax,%eax
   12d31:	66 c7 85 e8 f2 ff ff 	movw   $0x6426,-0xd18(%rbp)
   12d38:	26 64 
   12d3a:	c7 85 ec f2 ff ff ff 	movl   $0xffffffff,-0xd14(%rbp)
   12d41:	ff ff ff 
   12d44:	48 8d 05 d5 93 00 00 	lea    0x93d5(%rip),%rax        # 1c120 <g_146>
   12d4b:	48 89 85 38 f3 ff ff 	mov    %rax,-0xcc8(%rbp)
   12d52:	48 8d 05 db 92 00 00 	lea    0x92db(%rip),%rax        # 1c034 <g_101>
   12d59:	48 89 85 40 f3 ff ff 	mov    %rax,-0xcc0(%rbp)
   12d60:	48 8d 05 c1 93 00 00 	lea    0x93c1(%rip),%rax        # 1c128 <g_203>
   12d67:	48 89 85 28 f3 ff ff 	mov    %rax,-0xcd8(%rbp)
   12d6e:	48 8d 85 28 f3 ff ff 	lea    -0xcd8(%rbp),%rax
   12d75:	48 89 85 30 f3 ff ff 	mov    %rax,-0xcd0(%rbp)
   12d7c:	48 8d 85 30 f3 ff ff 	lea    -0xcd0(%rbp),%rax
   12d83:	48 89 85 d0 f3 ff ff 	mov    %rax,-0xc30(%rbp)
   12d8a:	48 8d 85 30 f3 ff ff 	lea    -0xcd0(%rbp),%rax
   12d91:	48 89 85 d8 f3 ff ff 	mov    %rax,-0xc28(%rbp)
   12d98:	48 8d 85 30 f3 ff ff 	lea    -0xcd0(%rbp),%rax
   12d9f:	48 89 85 e0 f3 ff ff 	mov    %rax,-0xc20(%rbp)
   12da6:	48 8d 85 30 f3 ff ff 	lea    -0xcd0(%rbp),%rax
   12dad:	48 89 85 e8 f3 ff ff 	mov    %rax,-0xc18(%rbp)
   12db4:	48 8d 85 30 f3 ff ff 	lea    -0xcd0(%rbp),%rax
   12dbb:	48 89 85 f0 f3 ff ff 	mov    %rax,-0xc10(%rbp)
   12dc2:	48 8d 85 30 f3 ff ff 	lea    -0xcd0(%rbp),%rax
   12dc9:	48 89 85 f8 f3 ff ff 	mov    %rax,-0xc08(%rbp)
   12dd0:	66 c7 85 00 f4 ff ff 	movw   $0x0,-0xc00(%rbp)
   12dd7:	00 00 
   12dd9:	66 c7 85 02 f4 ff ff 	movw   $0x0,-0xbfe(%rbp)
   12de0:	00 00 
   12de2:	66 c7 85 04 f4 ff ff 	movw   $0x40ab,-0xbfc(%rbp)
   12de9:	ab 40 
   12deb:	66 c7 85 06 f4 ff ff 	movw   $0x0,-0xbfa(%rbp)
   12df2:	00 00 
   12df4:	66 c7 85 08 f4 ff ff 	movw   $0x40ab,-0xbf8(%rbp)
   12dfb:	ab 40 
   12dfd:	66 c7 85 0a f4 ff ff 	movw   $0x40ab,-0xbf6(%rbp)
   12e04:	ab 40 
   12e06:	66 c7 85 0c f4 ff ff 	movw   $0x40ab,-0xbf4(%rbp)
   12e0d:	ab 40 
   12e0f:	66 c7 85 0e f4 ff ff 	movw   $0x0,-0xbf2(%rbp)
   12e16:	00 00 
   12e18:	66 c7 85 10 f4 ff ff 	movw   $0x1,-0xbf0(%rbp)
   12e1f:	01 00 
   12e21:	66 c7 85 12 f4 ff ff 	movw   $0x0,-0xbee(%rbp)
   12e28:	00 00 
   12e2a:	66 c7 85 14 f4 ff ff 	movw   $0x0,-0xbec(%rbp)
   12e31:	00 00 
   12e33:	66 c7 85 16 f4 ff ff 	movw   $0x0,-0xbea(%rbp)
   12e3a:	00 00 
   12e3c:	66 c7 85 18 f4 ff ff 	movw   $0x0,-0xbe8(%rbp)
   12e43:	00 00 
   12e45:	66 c7 85 1a f4 ff ff 	movw   $0x40ab,-0xbe6(%rbp)
   12e4c:	ab 40 
   12e4e:	66 c7 85 1c f4 ff ff 	movw   $0x1,-0xbe4(%rbp)
   12e55:	01 00 
   12e57:	66 c7 85 1e f4 ff ff 	movw   $0x0,-0xbe2(%rbp)
   12e5e:	00 00 
   12e60:	66 c7 85 20 f4 ff ff 	movw   $0x0,-0xbe0(%rbp)
   12e67:	00 00 
   12e69:	66 c7 85 22 f4 ff ff 	movw   $0x40ab,-0xbde(%rbp)
   12e70:	ab 40 
   12e72:	66 c7 85 24 f4 ff ff 	movw   $0x0,-0xbdc(%rbp)
   12e79:	00 00 
   12e7b:	66 c7 85 26 f4 ff ff 	movw   $0x40ab,-0xbda(%rbp)
   12e82:	ab 40 
   12e84:	66 c7 85 28 f4 ff ff 	movw   $0x0,-0xbd8(%rbp)
   12e8b:	00 00 
   12e8d:	66 c7 85 2a f4 ff ff 	movw   $0x0,-0xbd6(%rbp)
   12e94:	00 00 
   12e96:	66 c7 85 2c f4 ff ff 	movw   $0x0,-0xbd4(%rbp)
   12e9d:	00 00 
   12e9f:	66 c7 85 2e f4 ff ff 	movw   $0x0,-0xbd2(%rbp)
   12ea6:	00 00 
   12ea8:	66 c7 85 30 f4 ff ff 	movw   $0x1,-0xbd0(%rbp)
   12eaf:	01 00 
   12eb1:	66 c7 85 32 f4 ff ff 	movw   $0x0,-0xbce(%rbp)
   12eb8:	00 00 
   12eba:	66 c7 85 34 f4 ff ff 	movw   $0x1,-0xbcc(%rbp)
   12ec1:	01 00 
   12ec3:	66 c7 85 36 f4 ff ff 	movw   $0x40ab,-0xbca(%rbp)
   12eca:	ab 40 
   12ecc:	66 c7 85 38 f4 ff ff 	movw   $0x0,-0xbc8(%rbp)
   12ed3:	00 00 
   12ed5:	66 c7 85 3a f4 ff ff 	movw   $0x0,-0xbc6(%rbp)
   12edc:	00 00 
   12ede:	48 c7 85 48 f3 ff ff 	movq   $0x0,-0xcb8(%rbp)
   12ee5:	00 00 00 00 
   12ee9:	c7 85 f0 f2 ff ff 00 	movl   $0x0,-0xd10(%rbp)
   12ef0:	00 00 00 
   12ef3:	eb 42                	jmp    12f37 <func_75+0x24c>
   12ef5:	c7 85 f4 f2 ff ff 00 	movl   $0x0,-0xd0c(%rbp)
   12efc:	00 00 00 
   12eff:	eb 26                	jmp    12f27 <func_75+0x23c>
   12f01:	8b 85 f4 f2 ff ff    	mov    -0xd0c(%rbp),%eax
   12f07:	48 63 d0             	movslq %eax,%rdx
   12f0a:	8b 85 f0 f2 ff ff    	mov    -0xd10(%rbp),%eax
   12f10:	48 98                	cltq   
   12f12:	48 01 d0             	add    %rdx,%rax
   12f15:	c7 84 85 a0 f3 ff ff 	movl   $0x1,-0xc60(%rbp,%rax,4)
   12f1c:	01 00 00 00 
   12f20:	83 85 f4 f2 ff ff 01 	addl   $0x1,-0xd0c(%rbp)
   12f27:	83 bd f4 f2 ff ff 00 	cmpl   $0x0,-0xd0c(%rbp)
   12f2e:	7e d1                	jle    12f01 <func_75+0x216>
   12f30:	83 85 f0 f2 ff ff 01 	addl   $0x1,-0xd10(%rbp)
   12f37:	83 bd f0 f2 ff ff 03 	cmpl   $0x3,-0xd10(%rbp)
   12f3e:	7e b5                	jle    12ef5 <func_75+0x20a>
   12f40:	48 8b 85 c0 f2 ff ff 	mov    -0xd40(%rbp),%rax
   12f47:	8b 10                	mov    (%rax),%edx
   12f49:	48 8b 85 c0 f2 ff ff 	mov    -0xd40(%rbp),%rax
   12f50:	89 10                	mov    %edx,(%rax)
   12f52:	c7 85 dc f2 ff ff 0b 	movl   $0xb,-0xd24(%rbp)
   12f59:	00 00 00 
   12f5c:	e9 f4 02 00 00       	jmpq   13255 <func_75+0x56a>
   12f61:	c7 85 f8 f2 ff ff a5 	movl   $0x3918a5,-0xd08(%rbp)
   12f68:	18 39 00 
   12f6b:	c7 85 14 f3 ff ff 01 	movl   $0x1,-0xcec(%rbp)
   12f72:	00 00 00 
   12f75:	48 c7 85 80 f3 ff ff 	movq   $0x0,-0xc80(%rbp)
   12f7c:	00 00 00 00 
   12f80:	48 8d 85 00 f8 ff ff 	lea    -0x800(%rbp),%rax
   12f87:	48 8d 15 b2 d6 00 00 	lea    0xd6b2(%rip),%rdx        # 20640 <g_2335+0x295c>
   12f8e:	b9 3f 00 00 00       	mov    $0x3f,%ecx
   12f93:	48 89 c7             	mov    %rax,%rdi
   12f96:	48 89 d6             	mov    %rdx,%rsi
   12f99:	f3 48 a5             	rep movsq %ds:(%rsi),%es:(%rdi)
   12f9c:	c7 85 40 f4 ff ff b6 	movl   $0xc764a6b6,-0xbc0(%rbp)
   12fa3:	a6 64 c7 
   12fa6:	c7 85 44 f4 ff ff b6 	movl   $0xc764a6b6,-0xbbc(%rbp)
   12fad:	a6 64 c7 
   12fb0:	c7 85 48 f4 ff ff b6 	movl   $0xc764a6b6,-0xbb8(%rbp)
   12fb7:	a6 64 c7 
   12fba:	c7 85 4c f4 ff ff b6 	movl   $0xc764a6b6,-0xbb4(%rbp)
   12fc1:	a6 64 c7 
   12fc4:	c7 85 50 f4 ff ff b6 	movl   $0xc764a6b6,-0xbb0(%rbp)
   12fcb:	a6 64 c7 
   12fce:	c7 85 54 f4 ff ff b6 	movl   $0xc764a6b6,-0xbac(%rbp)
   12fd5:	a6 64 c7 
   12fd8:	c7 85 58 f4 ff ff b6 	movl   $0xc764a6b6,-0xba8(%rbp)
   12fdf:	a6 64 c7 
   12fe2:	c7 85 5c f4 ff ff b6 	movl   $0xc764a6b6,-0xba4(%rbp)
   12fe9:	a6 64 c7 
   12fec:	c7 85 60 f4 ff ff b6 	movl   $0xc764a6b6,-0xba0(%rbp)
   12ff3:	a6 64 c7 
   12ff6:	66 c7 85 d8 f2 ff ff 	movw   $0x0,-0xd28(%rbp)
   12ffd:	00 00 
   12fff:	e9 e0 01 00 00       	jmpq   131e4 <func_75+0x4f9>
   13004:	48 c7 85 90 f3 ff ff 	movq   $0x0,-0xc70(%rbp)
   1300b:	00 00 00 00 
   1300f:	c7 85 1c f3 ff ff 00 	movl   $0x0,-0xce4(%rbp)
   13016:	00 00 00 
   13019:	c7 05 c9 fc 00 00 02 	movl   $0x2,0xfcc9(%rip)        # 22cec <g_71>
   13020:	00 00 00 
   13023:	eb 35                	jmp    1305a <func_75+0x36f>
   13025:	0f b7 05 04 90 00 00 	movzwl 0x9004(%rip),%eax        # 1c030 <g_96>
   1302c:	0f bf d0             	movswl %ax,%edx
   1302f:	8b 85 f8 f2 ff ff    	mov    -0xd08(%rbp),%eax
   13035:	98                   	cwtl   
   13036:	89 d6                	mov    %edx,%esi
   13038:	89 c7                	mov    %eax,%edi
   1303a:	e8 b6 93 ff ff       	callq  c3f5 <safe_mul_func_int16_t_s_s>
   1303f:	0f bf d0             	movswl %ax,%edx
   13042:	48 8b 85 c0 f2 ff ff 	mov    -0xd40(%rbp),%rax
   13049:	89 10                	mov    %edx,(%rax)
   1304b:	8b 05 9b fc 00 00    	mov    0xfc9b(%rip),%eax        # 22cec <g_71>
   13051:	83 e8 01             	sub    $0x1,%eax
   13054:	89 05 92 fc 00 00    	mov    %eax,0xfc92(%rip)        # 22cec <g_71>
   1305a:	8b 05 8c fc 00 00    	mov    0xfc8c(%rip),%eax        # 22cec <g_71>
   13060:	85 c0                	test   %eax,%eax
   13062:	79 c1                	jns    13025 <func_75+0x33a>
   13064:	c7 85 f8 f2 ff ff 00 	movl   $0x0,-0xd08(%rbp)
   1306b:	00 00 00 
   1306e:	e9 50 01 00 00       	jmpq   131c3 <func_75+0x4d8>
   13073:	c7 85 20 f3 ff ff 40 	movl   $0xf7af1640,-0xce0(%rbp)
   1307a:	16 af f7 
   1307d:	48 8d 05 94 90 00 00 	lea    0x9094(%rip),%rax        # 1c118 <g_114>
   13084:	48 89 85 98 f3 ff ff 	mov    %rax,-0xc68(%rbp)
   1308b:	c7 85 24 f3 ff ff f0 	movl   $0x28ad0af0,-0xcdc(%rbp)
   13092:	0a ad 28 
   13095:	c7 85 fc f2 ff ff 00 	movl   $0x0,-0xd04(%rbp)
   1309c:	00 00 00 
   1309f:	eb 1b                	jmp    130bc <func_75+0x3d1>
   130a1:	8b 85 fc f2 ff ff    	mov    -0xd04(%rbp),%eax
   130a7:	48 98                	cltq   
   130a9:	48 c7 84 c5 b0 f3 ff 	movq   $0x0,-0xc50(%rbp,%rax,8)
   130b0:	ff 00 00 00 00 
   130b5:	83 85 fc f2 ff ff 01 	addl   $0x1,-0xd04(%rbp)
   130bc:	83 bd fc f2 ff ff 02 	cmpl   $0x2,-0xd04(%rbp)
   130c3:	7e dc                	jle    130a1 <func_75+0x3b6>
   130c5:	48 8b 85 d0 f2 ff ff 	mov    -0xd30(%rbp),%rax
   130cc:	8b 00                	mov    (%rax),%eax
   130ce:	85 c0                	test   %eax,%eax
   130d0:	0f 85 fc 00 00 00    	jne    131d2 <func_75+0x4e7>
   130d6:	48 8b 85 c8 f2 ff ff 	mov    -0xd38(%rbp),%rax
   130dd:	c7 00 00 00 00 00    	movl   $0x0,(%rax)
   130e3:	48 8b 85 c8 f2 ff ff 	mov    -0xd38(%rbp),%rax
   130ea:	8b 10                	mov    (%rax),%edx
   130ec:	48 8b 85 c0 f2 ff ff 	mov    -0xd40(%rbp),%rax
   130f3:	89 10                	mov    %edx,(%rax)
   130f5:	0f b7 85 d8 f2 ff ff 	movzwl -0xd28(%rbp),%eax
   130fc:	0f b7 d8             	movzwl %ax,%ebx
   130ff:	48 83 bd 90 f3 ff ff 	cmpq   $0x0,-0xc70(%rbp)
   13106:	00 
   13107:	0f 95 c0             	setne  %al
   1310a:	0f b6 c0             	movzbl %al,%eax
   1310d:	09 85 20 f3 ff ff    	or     %eax,-0xce0(%rbp)
   13113:	8b 85 20 f3 ff ff    	mov    -0xce0(%rbp),%eax
   13119:	89 c2                	mov    %eax,%edx
   1311b:	48 8b 85 98 f3 ff ff 	mov    -0xc68(%rbp),%rax
   13122:	88 10                	mov    %dl,(%rax)
   13124:	48 8b 85 98 f3 ff ff 	mov    -0xc68(%rbp),%rax
   1312b:	0f b6 00             	movzbl (%rax),%eax
   1312e:	44 0f be e0          	movsbl %al,%r12d
   13132:	8b 85 1c f3 ff ff    	mov    -0xce4(%rbp),%eax
   13138:	0f be d0             	movsbl %al,%edx
   1313b:	83 bd 24 f3 ff ff 60 	cmpl   $0x60,-0xcdc(%rbp)
   13142:	0f 9e c0             	setle  %al
   13145:	0f b6 c0             	movzbl %al,%eax
   13148:	89 d6                	mov    %edx,%esi
   1314a:	89 c7                	mov    %eax,%edi
   1314c:	e8 c1 90 ff ff       	callq  c212 <safe_mul_func_int8_t_s_s>
   13151:	8b 05 dd 8e 00 00    	mov    0x8edd(%rip),%eax        # 1c034 <g_101>
   13157:	0f b7 c0             	movzwl %ax,%eax
   1315a:	89 c6                	mov    %eax,%esi
   1315c:	bf 86 a6 00 00       	mov    $0xa686,%edi
   13161:	e8 d7 9b ff ff       	callq  cd3d <safe_mul_func_uint16_t_u_u>
   13166:	0f b7 c0             	movzwl %ax,%eax
   13169:	39 85 1c f3 ff ff    	cmp    %eax,-0xce4(%rbp)
   1316f:	0f 95 c0             	setne  %al
   13172:	0f b6 c0             	movzbl %al,%eax
   13175:	41 39 c4             	cmp    %eax,%r12d
   13178:	0f 9d c0             	setge  %al
   1317b:	0f b6 d0             	movzbl %al,%edx
   1317e:	0f b7 85 d8 f2 ff ff 	movzwl -0xd28(%rbp),%eax
   13185:	0f b7 c0             	movzwl %ax,%eax
   13188:	39 c2                	cmp    %eax,%edx
   1318a:	0f 9c c0             	setl   %al
   1318d:	0f b6 c0             	movzbl %al,%eax
   13190:	f7 d0                	not    %eax
   13192:	89 c2                	mov    %eax,%edx
   13194:	8b 05 52 fb 00 00    	mov    0xfb52(%rip),%eax        # 22cec <g_71>
   1319a:	39 c2                	cmp    %eax,%edx
   1319c:	0f 9c c0             	setl   %al
   1319f:	0f b6 c0             	movzbl %al,%eax
   131a2:	89 de                	mov    %ebx,%esi
   131a4:	89 c7                	mov    %eax,%edi
   131a6:	e8 43 91 ff ff       	callq  c2ee <safe_lshift_func_int8_t_s_u>
   131ab:	0f be d0             	movsbl %al,%edx
   131ae:	8b 05 68 8f 00 00    	mov    0x8f68(%rip),%eax        # 1c11c <g_122>
   131b4:	21 d0                	and    %edx,%eax
   131b6:	89 05 60 8f 00 00    	mov    %eax,0x8f60(%rip)        # 1c11c <g_122>
   131bc:	83 85 f8 f2 ff ff 01 	addl   $0x1,-0xd08(%rbp)
   131c3:	83 bd f8 f2 ff ff 02 	cmpl   $0x2,-0xd08(%rbp)
   131ca:	0f 86 a3 fe ff ff    	jbe    13073 <func_75+0x388>
   131d0:	eb 01                	jmp    131d3 <func_75+0x4e8>
   131d2:	90                   	nop
   131d3:	0f b7 85 d8 f2 ff ff 	movzwl -0xd28(%rbp),%eax
   131da:	83 c0 01             	add    $0x1,%eax
   131dd:	66 89 85 d8 f2 ff ff 	mov    %ax,-0xd28(%rbp)
   131e4:	0f b7 85 d8 f2 ff ff 	movzwl -0xd28(%rbp),%eax
   131eb:	66 83 f8 02          	cmp    $0x2,%ax
   131ef:	0f 86 0f fe ff ff    	jbe    13004 <func_75+0x319>
   131f5:	66 c7 85 d8 f2 ff ff 	movw   $0x0,-0xd28(%rbp)
   131fc:	00 00 
   131fe:	eb 36                	jmp    13236 <func_75+0x54b>
   13200:	c7 85 18 f3 ff ff 79 	movl   $0x48860579,-0xce8(%rbp)
   13207:	05 86 48 
   1320a:	48 8d 05 0f 8f 00 00 	lea    0x8f0f(%rip),%rax        # 1c120 <g_146>
   13211:	48 89 85 88 f3 ff ff 	mov    %rax,-0xc78(%rbp)
   13218:	48 8b 85 d0 f2 ff ff 	mov    -0xd30(%rbp),%rax
   1321f:	8b 00                	mov    (%rax),%eax
   13221:	85 c0                	test   %eax,%eax
   13223:	75 20                	jne    13245 <func_75+0x55a>
   13225:	0f b7 85 d8 f2 ff ff 	movzwl -0xd28(%rbp),%eax
   1322c:	83 c0 01             	add    $0x1,%eax
   1322f:	66 89 85 d8 f2 ff ff 	mov    %ax,-0xd28(%rbp)
   13236:	0f b7 85 d8 f2 ff ff 	movzwl -0xd28(%rbp),%eax
   1323d:	66 83 f8 02          	cmp    $0x2,%ax
   13241:	76 bd                	jbe    13200 <func_75+0x515>
   13243:	eb 01                	jmp    13246 <func_75+0x55b>
   13245:	90                   	nop
   13246:	8b 85 dc f2 ff ff    	mov    -0xd24(%rbp),%eax
   1324c:	83 e8 01             	sub    $0x1,%eax
   1324f:	89 85 dc f2 ff ff    	mov    %eax,-0xd24(%rbp)
   13255:	8b 85 dc f2 ff ff    	mov    -0xd24(%rbp),%eax
   1325b:	83 f8 ea             	cmp    $0xffffffea,%eax
   1325e:	0f 8c fd fc ff ff    	jl     12f61 <func_75+0x276>
   13264:	48 8b 85 c0 f2 ff ff 	mov    -0xd40(%rbp),%rax
   1326b:	8b 00                	mov    (%rax),%eax
   1326d:	85 c0                	test   %eax,%eax
   1326f:	0f 84 a2 11 00 00    	je     14417 <func_75+0x172c>
   13275:	c7 85 00 f3 ff ff 8e 	movl   $0x3832468e,-0xd00(%rbp)
   1327c:	46 32 38 
   1327f:	c7 85 b0 f3 ff ff 2b 	movl   $0x8586082b,-0xc50(%rbp)
   13286:	08 86 85 
   13289:	c7 85 b4 f3 ff ff 2b 	movl   $0x8586082b,-0xc4c(%rbp)
   13290:	08 86 85 
   13293:	c7 85 b8 f3 ff ff 2b 	movl   $0x8586082b,-0xc48(%rbp)
   1329a:	08 86 85 
   1329d:	c7 85 bc f3 ff ff 2b 	movl   $0x8586082b,-0xc44(%rbp)
   132a4:	08 86 85 
   132a7:	c7 85 c0 f3 ff ff 2b 	movl   $0x8586082b,-0xc40(%rbp)
   132ae:	08 86 85 
   132b1:	c7 85 c4 f3 ff ff 2b 	movl   $0x8586082b,-0xc3c(%rbp)
   132b8:	08 86 85 
   132bb:	c7 85 c8 f3 ff ff 2b 	movl   $0x8586082b,-0xc38(%rbp)
   132c2:	08 86 85 
   132c5:	c7 85 cc f3 ff ff 2b 	movl   $0x8586082b,-0xc34(%rbp)
   132cc:	08 86 85 
   132cf:	66 c7 05 6c 8e 00 00 	movw   $0x0,0x8e6c(%rip)        # 1c144 <g_214>
   132d6:	00 00 
   132d8:	e9 27 11 00 00       	jmpq   14404 <func_75+0x1719>
   132dd:	48 8d 85 d0 f3 ff ff 	lea    -0xc30(%rbp),%rax
   132e4:	48 83 c0 10          	add    $0x10,%rax
   132e8:	48 89 85 50 f3 ff ff 	mov    %rax,-0xcb0(%rbp)
   132ef:	48 8d 05 ca d5 00 00 	lea    0xd5ca(%rip),%rax        # 208c0 <g_236+0x20>
   132f6:	48 89 85 58 f3 ff ff 	mov    %rax,-0xca8(%rbp)
   132fd:	48 c7 85 60 f3 ff ff 	movq   $0x0,-0xca0(%rbp)
   13304:	00 00 00 00 
   13308:	48 8d 85 ec f2 ff ff 	lea    -0xd14(%rbp),%rax
   1330f:	48 89 85 68 f3 ff ff 	mov    %rax,-0xc98(%rbp)
   13316:	48 8d 05 17 8d 00 00 	lea    0x8d17(%rip),%rax        # 1c034 <g_101>
   1331d:	48 89 85 00 f8 ff ff 	mov    %rax,-0x800(%rbp)
   13324:	48 c7 85 08 f8 ff ff 	movq   $0x0,-0x7f8(%rbp)
   1332b:	00 00 00 00 
   1332f:	48 8d 85 ec f2 ff ff 	lea    -0xd14(%rbp),%rax
   13336:	48 89 85 10 f8 ff ff 	mov    %rax,-0x7f0(%rbp)
   1333d:	48 8d 05 f0 8c 00 00 	lea    0x8cf0(%rip),%rax        # 1c034 <g_101>
   13344:	48 89 85 18 f8 ff ff 	mov    %rax,-0x7e8(%rbp)
   1334b:	48 8d 05 9a f9 00 00 	lea    0xf99a(%rip),%rax        # 22cec <g_71>
   13352:	48 89 85 20 f8 ff ff 	mov    %rax,-0x7e0(%rbp)
   13359:	48 8d 85 a0 f3 ff ff 	lea    -0xc60(%rbp),%rax
   13360:	48 89 85 28 f8 ff ff 	mov    %rax,-0x7d8(%rbp)
   13367:	48 c7 85 30 f8 ff ff 	movq   $0x0,-0x7d0(%rbp)
   1336e:	00 00 00 00 
   13372:	48 8d 85 ec f2 ff ff 	lea    -0xd14(%rbp),%rax
   13379:	48 89 85 38 f8 ff ff 	mov    %rax,-0x7c8(%rbp)
   13380:	48 8d 85 a0 f3 ff ff 	lea    -0xc60(%rbp),%rax
   13387:	48 83 c0 0c          	add    $0xc,%rax
   1338b:	48 89 85 40 f8 ff ff 	mov    %rax,-0x7c0(%rbp)
   13392:	48 8d 85 a0 f3 ff ff 	lea    -0xc60(%rbp),%rax
   13399:	48 83 c0 04          	add    $0x4,%rax
   1339d:	48 89 85 48 f8 ff ff 	mov    %rax,-0x7b8(%rbp)
   133a4:	48 8d 05 89 8c 00 00 	lea    0x8c89(%rip),%rax        # 1c034 <g_101>
   133ab:	48 89 85 50 f8 ff ff 	mov    %rax,-0x7b0(%rbp)
   133b2:	48 8d 05 33 f9 00 00 	lea    0xf933(%rip),%rax        # 22cec <g_71>
   133b9:	48 89 85 58 f8 ff ff 	mov    %rax,-0x7a8(%rbp)
   133c0:	48 8d 85 a0 f3 ff ff 	lea    -0xc60(%rbp),%rax
   133c7:	48 83 c0 04          	add    $0x4,%rax
   133cb:	48 89 85 60 f8 ff ff 	mov    %rax,-0x7a0(%rbp)
   133d2:	48 c7 85 68 f8 ff ff 	movq   $0x0,-0x798(%rbp)
   133d9:	00 00 00 00 
   133dd:	48 c7 85 70 f8 ff ff 	movq   $0x0,-0x790(%rbp)
   133e4:	00 00 00 00 
   133e8:	48 c7 85 78 f8 ff ff 	movq   $0x0,-0x788(%rbp)
   133ef:	00 00 00 00 
   133f3:	48 8d 05 f2 f8 00 00 	lea    0xf8f2(%rip),%rax        # 22cec <g_71>
   133fa:	48 89 85 80 f8 ff ff 	mov    %rax,-0x780(%rbp)
   13401:	48 8d 05 e4 f8 00 00 	lea    0xf8e4(%rip),%rax        # 22cec <g_71>
   13408:	48 89 85 88 f8 ff ff 	mov    %rax,-0x778(%rbp)
   1340f:	48 8d 85 a0 f3 ff ff 	lea    -0xc60(%rbp),%rax
   13416:	48 83 c0 0c          	add    $0xc,%rax
   1341a:	48 89 85 90 f8 ff ff 	mov    %rax,-0x770(%rbp)
   13421:	48 c7 85 98 f8 ff ff 	movq   $0x0,-0x768(%rbp)
   13428:	00 00 00 00 
   1342c:	48 8d 85 ec f2 ff ff 	lea    -0xd14(%rbp),%rax
   13433:	48 89 85 a0 f8 ff ff 	mov    %rax,-0x760(%rbp)
   1343a:	48 8d 05 f3 8b 00 00 	lea    0x8bf3(%rip),%rax        # 1c034 <g_101>
   13441:	48 89 85 a8 f8 ff ff 	mov    %rax,-0x758(%rbp)
   13448:	48 8d 85 a0 f3 ff ff 	lea    -0xc60(%rbp),%rax
   1344f:	48 83 c0 0c          	add    $0xc,%rax
   13453:	48 89 85 b0 f8 ff ff 	mov    %rax,-0x750(%rbp)
   1345a:	48 8d 85 a0 f3 ff ff 	lea    -0xc60(%rbp),%rax
   13461:	48 83 c0 0c          	add    $0xc,%rax
   13465:	48 89 85 b8 f8 ff ff 	mov    %rax,-0x748(%rbp)
   1346c:	48 8d 05 79 f8 00 00 	lea    0xf879(%rip),%rax        # 22cec <g_71>
   13473:	48 89 85 c0 f8 ff ff 	mov    %rax,-0x740(%rbp)
   1347a:	48 8d 05 b3 8b 00 00 	lea    0x8bb3(%rip),%rax        # 1c034 <g_101>
   13481:	48 89 85 c8 f8 ff ff 	mov    %rax,-0x738(%rbp)
   13488:	48 8d 85 ec f2 ff ff 	lea    -0xd14(%rbp),%rax
   1348f:	48 89 85 d0 f8 ff ff 	mov    %rax,-0x730(%rbp)
   13496:	48 8d 85 a0 f3 ff ff 	lea    -0xc60(%rbp),%rax
   1349d:	48 83 c0 0c          	add    $0xc,%rax
   134a1:	48 89 85 d8 f8 ff ff 	mov    %rax,-0x728(%rbp)
   134a8:	48 c7 85 e0 f8 ff ff 	movq   $0x0,-0x720(%rbp)
   134af:	00 00 00 00 
   134b3:	48 8d 05 32 f8 00 00 	lea    0xf832(%rip),%rax        # 22cec <g_71>
   134ba:	48 89 85 e8 f8 ff ff 	mov    %rax,-0x718(%rbp)
   134c1:	48 8d 05 6c 8b 00 00 	lea    0x8b6c(%rip),%rax        # 1c034 <g_101>
   134c8:	48 89 85 f0 f8 ff ff 	mov    %rax,-0x710(%rbp)
   134cf:	48 c7 85 f8 f8 ff ff 	movq   $0x0,-0x708(%rbp)
   134d6:	00 00 00 00 
   134da:	48 8d 85 a0 f3 ff ff 	lea    -0xc60(%rbp),%rax
   134e1:	48 83 c0 0c          	add    $0xc,%rax
   134e5:	48 89 85 00 f9 ff ff 	mov    %rax,-0x700(%rbp)
   134ec:	48 8d 85 a0 f3 ff ff 	lea    -0xc60(%rbp),%rax
   134f3:	48 83 c0 0c          	add    $0xc,%rax
   134f7:	48 89 85 08 f9 ff ff 	mov    %rax,-0x6f8(%rbp)
   134fe:	48 8d 85 ec f2 ff ff 	lea    -0xd14(%rbp),%rax
   13505:	48 89 85 10 f9 ff ff 	mov    %rax,-0x6f0(%rbp)
   1350c:	48 8d 85 a0 f3 ff ff 	lea    -0xc60(%rbp),%rax
   13513:	48 83 c0 0c          	add    $0xc,%rax
   13517:	48 89 85 18 f9 ff ff 	mov    %rax,-0x6e8(%rbp)
   1351e:	48 8d 85 ec f2 ff ff 	lea    -0xd14(%rbp),%rax
   13525:	48 89 85 20 f9 ff ff 	mov    %rax,-0x6e0(%rbp)
   1352c:	48 8d 05 01 8b 00 00 	lea    0x8b01(%rip),%rax        # 1c034 <g_101>
   13533:	48 89 85 28 f9 ff ff 	mov    %rax,-0x6d8(%rbp)
   1353a:	48 8d 85 ec f2 ff ff 	lea    -0xd14(%rbp),%rax
   13541:	48 89 85 30 f9 ff ff 	mov    %rax,-0x6d0(%rbp)
   13548:	48 8d 85 ec f2 ff ff 	lea    -0xd14(%rbp),%rax
   1354f:	48 89 85 38 f9 ff ff 	mov    %rax,-0x6c8(%rbp)
   13556:	48 8d 85 a0 f3 ff ff 	lea    -0xc60(%rbp),%rax
   1355d:	48 83 c0 0c          	add    $0xc,%rax
   13561:	48 89 85 40 f9 ff ff 	mov    %rax,-0x6c0(%rbp)
   13568:	48 8d 85 ec f2 ff ff 	lea    -0xd14(%rbp),%rax
   1356f:	48 89 85 48 f9 ff ff 	mov    %rax,-0x6b8(%rbp)
   13576:	48 c7 85 50 f9 ff ff 	movq   $0x0,-0x6b0(%rbp)
   1357d:	00 00 00 00 
   13581:	48 c7 85 58 f9 ff ff 	movq   $0x0,-0x6a8(%rbp)
   13588:	00 00 00 00 
   1358c:	48 c7 85 60 f9 ff ff 	movq   $0x0,-0x6a0(%rbp)
   13593:	00 00 00 00 
   13597:	48 8d 05 96 8a 00 00 	lea    0x8a96(%rip),%rax        # 1c034 <g_101>
   1359e:	48 89 85 68 f9 ff ff 	mov    %rax,-0x698(%rbp)
   135a5:	48 8d 05 40 f7 00 00 	lea    0xf740(%rip),%rax        # 22cec <g_71>
   135ac:	48 89 85 70 f9 ff ff 	mov    %rax,-0x690(%rbp)
   135b3:	48 c7 85 78 f9 ff ff 	movq   $0x0,-0x688(%rbp)
   135ba:	00 00 00 00 
   135be:	48 c7 85 80 f9 ff ff 	movq   $0x0,-0x680(%rbp)
   135c5:	00 00 00 00 
   135c9:	48 8d 85 a0 f3 ff ff 	lea    -0xc60(%rbp),%rax
   135d0:	48 83 c0 04          	add    $0x4,%rax
   135d4:	48 89 85 88 f9 ff ff 	mov    %rax,-0x678(%rbp)
   135db:	48 8d 85 a0 f3 ff ff 	lea    -0xc60(%rbp),%rax
   135e2:	48 83 c0 0c          	add    $0xc,%rax
   135e6:	48 89 85 90 f9 ff ff 	mov    %rax,-0x670(%rbp)
   135ed:	48 8d 05 40 8a 00 00 	lea    0x8a40(%rip),%rax        # 1c034 <g_101>
   135f4:	48 89 85 98 f9 ff ff 	mov    %rax,-0x668(%rbp)
   135fb:	48 8d 85 a0 f3 ff ff 	lea    -0xc60(%rbp),%rax
   13602:	48 83 c0 0c          	add    $0xc,%rax
   13606:	48 89 85 a0 f9 ff ff 	mov    %rax,-0x660(%rbp)
   1360d:	48 8d 85 a0 f3 ff ff 	lea    -0xc60(%rbp),%rax
   13614:	48 83 c0 04          	add    $0x4,%rax
   13618:	48 89 85 a8 f9 ff ff 	mov    %rax,-0x658(%rbp)
   1361f:	48 8d 85 a0 f3 ff ff 	lea    -0xc60(%rbp),%rax
   13626:	48 89 85 b0 f9 ff ff 	mov    %rax,-0x650(%rbp)
   1362d:	48 8d 05 00 8a 00 00 	lea    0x8a00(%rip),%rax        # 1c034 <g_101>
   13634:	48 89 85 b8 f9 ff ff 	mov    %rax,-0x648(%rbp)
   1363b:	48 c7 85 c0 f9 ff ff 	movq   $0x0,-0x640(%rbp)
   13642:	00 00 00 00 
   13646:	48 8d 05 9f f6 00 00 	lea    0xf69f(%rip),%rax        # 22cec <g_71>
   1364d:	48 89 85 c8 f9 ff ff 	mov    %rax,-0x638(%rbp)
   13654:	48 8d 05 d9 89 00 00 	lea    0x89d9(%rip),%rax        # 1c034 <g_101>
   1365b:	48 89 85 d0 f9 ff ff 	mov    %rax,-0x630(%rbp)
   13662:	48 8d 05 cb 89 00 00 	lea    0x89cb(%rip),%rax        # 1c034 <g_101>
   13669:	48 89 85 d8 f9 ff ff 	mov    %rax,-0x628(%rbp)
   13670:	48 c7 85 e0 f9 ff ff 	movq   $0x0,-0x620(%rbp)
   13677:	00 00 00 00 
   1367b:	48 8d 05 6a f6 00 00 	lea    0xf66a(%rip),%rax        # 22cec <g_71>
   13682:	48 89 85 e8 f9 ff ff 	mov    %rax,-0x618(%rbp)
   13689:	48 c7 85 f0 f9 ff ff 	movq   $0x0,-0x610(%rbp)
   13690:	00 00 00 00 
   13694:	48 8d 05 99 89 00 00 	lea    0x8999(%rip),%rax        # 1c034 <g_101>
   1369b:	48 89 85 f8 f9 ff ff 	mov    %rax,-0x608(%rbp)
   136a2:	48 8d 85 a0 f3 ff ff 	lea    -0xc60(%rbp),%rax
   136a9:	48 83 c0 0c          	add    $0xc,%rax
   136ad:	48 89 85 00 fa ff ff 	mov    %rax,-0x600(%rbp)
   136b4:	48 8d 05 31 f6 00 00 	lea    0xf631(%rip),%rax        # 22cec <g_71>
   136bb:	48 89 85 08 fa ff ff 	mov    %rax,-0x5f8(%rbp)
   136c2:	48 8d 05 6b 89 00 00 	lea    0x896b(%rip),%rax        # 1c034 <g_101>
   136c9:	48 89 85 10 fa ff ff 	mov    %rax,-0x5f0(%rbp)
   136d0:	48 c7 85 18 fa ff ff 	movq   $0x0,-0x5e8(%rbp)
   136d7:	00 00 00 00 
   136db:	48 c7 85 20 fa ff ff 	movq   $0x0,-0x5e0(%rbp)
   136e2:	00 00 00 00 
   136e6:	48 8d 85 a0 f3 ff ff 	lea    -0xc60(%rbp),%rax
   136ed:	48 83 c0 0c          	add    $0xc,%rax
   136f1:	48 89 85 28 fa ff ff 	mov    %rax,-0x5d8(%rbp)
   136f8:	48 c7 85 30 fa ff ff 	movq   $0x0,-0x5d0(%rbp)
   136ff:	00 00 00 00 
   13703:	48 8d 05 2a 89 00 00 	lea    0x892a(%rip),%rax        # 1c034 <g_101>
   1370a:	48 89 85 38 fa ff ff 	mov    %rax,-0x5c8(%rbp)
   13711:	48 c7 85 40 fa ff ff 	movq   $0x0,-0x5c0(%rbp)
   13718:	00 00 00 00 
   1371c:	48 8d 85 a0 f3 ff ff 	lea    -0xc60(%rbp),%rax
   13723:	48 83 c0 04          	add    $0x4,%rax
   13727:	48 89 85 48 fa ff ff 	mov    %rax,-0x5b8(%rbp)
   1372e:	48 8d 05 ff 88 00 00 	lea    0x88ff(%rip),%rax        # 1c034 <g_101>
   13735:	48 89 85 50 fa ff ff 	mov    %rax,-0x5b0(%rbp)
   1373c:	48 c7 85 58 fa ff ff 	movq   $0x0,-0x5a8(%rbp)
   13743:	00 00 00 00 
   13747:	48 c7 85 60 fa ff ff 	movq   $0x0,-0x5a0(%rbp)
   1374e:	00 00 00 00 
   13752:	48 8d 85 a0 f3 ff ff 	lea    -0xc60(%rbp),%rax
   13759:	48 83 c0 04          	add    $0x4,%rax
   1375d:	48 89 85 68 fa ff ff 	mov    %rax,-0x598(%rbp)
   13764:	48 8d 05 81 f5 00 00 	lea    0xf581(%rip),%rax        # 22cec <g_71>
   1376b:	48 89 85 70 fa ff ff 	mov    %rax,-0x590(%rbp)
   13772:	48 8d 85 a0 f3 ff ff 	lea    -0xc60(%rbp),%rax
   13779:	48 83 c0 0c          	add    $0xc,%rax
   1377d:	48 89 85 78 fa ff ff 	mov    %rax,-0x588(%rbp)
   13784:	48 8d 85 ec f2 ff ff 	lea    -0xd14(%rbp),%rax
   1378b:	48 89 85 80 fa ff ff 	mov    %rax,-0x580(%rbp)
   13792:	48 8d 85 ec f2 ff ff 	lea    -0xd14(%rbp),%rax
   13799:	48 89 85 88 fa ff ff 	mov    %rax,-0x578(%rbp)
   137a0:	48 8d 85 a0 f3 ff ff 	lea    -0xc60(%rbp),%rax
   137a7:	48 83 c0 08          	add    $0x8,%rax
   137ab:	48 89 85 90 fa ff ff 	mov    %rax,-0x570(%rbp)
   137b2:	48 8d 85 ec f2 ff ff 	lea    -0xd14(%rbp),%rax
   137b9:	48 89 85 98 fa ff ff 	mov    %rax,-0x568(%rbp)
   137c0:	48 8d 05 6d 88 00 00 	lea    0x886d(%rip),%rax        # 1c034 <g_101>
   137c7:	48 89 85 a0 fa ff ff 	mov    %rax,-0x560(%rbp)
   137ce:	48 8d 05 5f 88 00 00 	lea    0x885f(%rip),%rax        # 1c034 <g_101>
   137d5:	48 89 85 a8 fa ff ff 	mov    %rax,-0x558(%rbp)
   137dc:	48 8d 05 51 88 00 00 	lea    0x8851(%rip),%rax        # 1c034 <g_101>
   137e3:	48 89 85 b0 fa ff ff 	mov    %rax,-0x550(%rbp)
   137ea:	48 8d 05 43 88 00 00 	lea    0x8843(%rip),%rax        # 1c034 <g_101>
   137f1:	48 89 85 b8 fa ff ff 	mov    %rax,-0x548(%rbp)
   137f8:	48 8d 85 a0 f3 ff ff 	lea    -0xc60(%rbp),%rax
   137ff:	48 83 c0 0c          	add    $0xc,%rax
   13803:	48 89 85 c0 fa ff ff 	mov    %rax,-0x540(%rbp)
   1380a:	48 8d 85 a0 f3 ff ff 	lea    -0xc60(%rbp),%rax
   13811:	48 83 c0 0c          	add    $0xc,%rax
   13815:	48 89 85 c8 fa ff ff 	mov    %rax,-0x538(%rbp)
   1381c:	48 8d 05 c9 f4 00 00 	lea    0xf4c9(%rip),%rax        # 22cec <g_71>
   13823:	48 89 85 d0 fa ff ff 	mov    %rax,-0x530(%rbp)
   1382a:	48 8d 05 bb f4 00 00 	lea    0xf4bb(%rip),%rax        # 22cec <g_71>
   13831:	48 89 85 d8 fa ff ff 	mov    %rax,-0x528(%rbp)
   13838:	48 8d 05 ad f4 00 00 	lea    0xf4ad(%rip),%rax        # 22cec <g_71>
   1383f:	48 89 85 e0 fa ff ff 	mov    %rax,-0x520(%rbp)
   13846:	48 8d 05 e7 87 00 00 	lea    0x87e7(%rip),%rax        # 1c034 <g_101>
   1384d:	48 89 85 e8 fa ff ff 	mov    %rax,-0x518(%rbp)
   13854:	48 8d 85 a0 f3 ff ff 	lea    -0xc60(%rbp),%rax
   1385b:	48 83 c0 0c          	add    $0xc,%rax
   1385f:	48 89 85 f0 fa ff ff 	mov    %rax,-0x510(%rbp)
   13866:	48 8d 85 a0 f3 ff ff 	lea    -0xc60(%rbp),%rax
   1386d:	48 83 c0 0c          	add    $0xc,%rax
   13871:	48 89 85 f8 fa ff ff 	mov    %rax,-0x508(%rbp)
   13878:	48 8d 85 a0 f3 ff ff 	lea    -0xc60(%rbp),%rax
   1387f:	48 83 c0 04          	add    $0x4,%rax
   13883:	48 89 85 00 fb ff ff 	mov    %rax,-0x500(%rbp)
   1388a:	48 8d 85 a0 f3 ff ff 	lea    -0xc60(%rbp),%rax
   13891:	48 83 c0 0c          	add    $0xc,%rax
   13895:	48 89 85 08 fb ff ff 	mov    %rax,-0x4f8(%rbp)
   1389c:	48 8d 85 a0 f3 ff ff 	lea    -0xc60(%rbp),%rax
   138a3:	48 83 c0 0c          	add    $0xc,%rax
   138a7:	48 89 85 10 fb ff ff 	mov    %rax,-0x4f0(%rbp)
   138ae:	48 c7 85 18 fb ff ff 	movq   $0x0,-0x4e8(%rbp)
   138b5:	00 00 00 00 
   138b9:	48 8d 85 a0 f3 ff ff 	lea    -0xc60(%rbp),%rax
   138c0:	48 83 c0 0c          	add    $0xc,%rax
   138c4:	48 89 85 20 fb ff ff 	mov    %rax,-0x4e0(%rbp)
   138cb:	48 8d 05 1a f4 00 00 	lea    0xf41a(%rip),%rax        # 22cec <g_71>
   138d2:	48 89 85 28 fb ff ff 	mov    %rax,-0x4d8(%rbp)
   138d9:	48 c7 85 30 fb ff ff 	movq   $0x0,-0x4d0(%rbp)
   138e0:	00 00 00 00 
   138e4:	48 c7 85 38 fb ff ff 	movq   $0x0,-0x4c8(%rbp)
   138eb:	00 00 00 00 
   138ef:	48 c7 85 40 fb ff ff 	movq   $0x0,-0x4c0(%rbp)
   138f6:	00 00 00 00 
   138fa:	48 8d 85 a0 f3 ff ff 	lea    -0xc60(%rbp),%rax
   13901:	48 83 c0 04          	add    $0x4,%rax
   13905:	48 89 85 48 fb ff ff 	mov    %rax,-0x4b8(%rbp)
   1390c:	48 8d 05 21 87 00 00 	lea    0x8721(%rip),%rax        # 1c034 <g_101>
   13913:	48 89 85 50 fb ff ff 	mov    %rax,-0x4b0(%rbp)
   1391a:	48 8d 05 13 87 00 00 	lea    0x8713(%rip),%rax        # 1c034 <g_101>
   13921:	48 89 85 58 fb ff ff 	mov    %rax,-0x4a8(%rbp)
   13928:	48 8d 85 a0 f3 ff ff 	lea    -0xc60(%rbp),%rax
   1392f:	48 83 c0 04          	add    $0x4,%rax
   13933:	48 89 85 60 fb ff ff 	mov    %rax,-0x4a0(%rbp)
   1393a:	48 8d 85 a0 f3 ff ff 	lea    -0xc60(%rbp),%rax
   13941:	48 89 85 68 fb ff ff 	mov    %rax,-0x498(%rbp)
   13948:	48 8d 85 a0 f3 ff ff 	lea    -0xc60(%rbp),%rax
   1394f:	48 83 c0 0c          	add    $0xc,%rax
   13953:	48 89 85 70 fb ff ff 	mov    %rax,-0x490(%rbp)
   1395a:	48 8d 85 a0 f3 ff ff 	lea    -0xc60(%rbp),%rax
   13961:	48 83 c0 0c          	add    $0xc,%rax
   13965:	48 89 85 78 fb ff ff 	mov    %rax,-0x488(%rbp)
   1396c:	48 8d 05 79 f3 00 00 	lea    0xf379(%rip),%rax        # 22cec <g_71>
   13973:	48 89 85 80 fb ff ff 	mov    %rax,-0x480(%rbp)
   1397a:	48 c7 85 88 fb ff ff 	movq   $0x0,-0x478(%rbp)
   13981:	00 00 00 00 
   13985:	48 8d 05 60 f3 00 00 	lea    0xf360(%rip),%rax        # 22cec <g_71>
   1398c:	48 89 85 90 fb ff ff 	mov    %rax,-0x470(%rbp)
   13993:	48 8d 05 9a 86 00 00 	lea    0x869a(%rip),%rax        # 1c034 <g_101>
   1399a:	48 89 85 98 fb ff ff 	mov    %rax,-0x468(%rbp)
   139a1:	48 8d 05 44 f3 00 00 	lea    0xf344(%rip),%rax        # 22cec <g_71>
   139a8:	48 89 85 a0 fb ff ff 	mov    %rax,-0x460(%rbp)
   139af:	48 8d 85 a0 f3 ff ff 	lea    -0xc60(%rbp),%rax
   139b6:	48 83 c0 08          	add    $0x8,%rax
   139ba:	48 89 85 a8 fb ff ff 	mov    %rax,-0x458(%rbp)
   139c1:	48 c7 85 b0 fb ff ff 	movq   $0x0,-0x450(%rbp)
   139c8:	00 00 00 00 
   139cc:	48 8d 05 61 86 00 00 	lea    0x8661(%rip),%rax        # 1c034 <g_101>
   139d3:	48 89 85 b8 fb ff ff 	mov    %rax,-0x448(%rbp)
   139da:	48 8d 85 a0 f3 ff ff 	lea    -0xc60(%rbp),%rax
   139e1:	48 83 c0 0c          	add    $0xc,%rax
   139e5:	48 89 85 c0 fb ff ff 	mov    %rax,-0x440(%rbp)
   139ec:	48 8d 85 a0 f3 ff ff 	lea    -0xc60(%rbp),%rax
   139f3:	48 83 c0 0c          	add    $0xc,%rax
   139f7:	48 89 85 c8 fb ff ff 	mov    %rax,-0x438(%rbp)
   139fe:	48 8d 05 2f 86 00 00 	lea    0x862f(%rip),%rax        # 1c034 <g_101>
   13a05:	48 89 85 d0 fb ff ff 	mov    %rax,-0x430(%rbp)
   13a0c:	48 c7 85 d8 fb ff ff 	movq   $0x0,-0x428(%rbp)
   13a13:	00 00 00 00 
   13a17:	48 8d 85 a0 f3 ff ff 	lea    -0xc60(%rbp),%rax
   13a1e:	48 83 c0 0c          	add    $0xc,%rax
   13a22:	48 89 85 e0 fb ff ff 	mov    %rax,-0x420(%rbp)
   13a29:	48 8d 85 a0 f3 ff ff 	lea    -0xc60(%rbp),%rax
   13a30:	48 83 c0 0c          	add    $0xc,%rax
   13a34:	48 89 85 e8 fb ff ff 	mov    %rax,-0x418(%rbp)
   13a3b:	48 8d 85 a0 f3 ff ff 	lea    -0xc60(%rbp),%rax
   13a42:	48 83 c0 0c          	add    $0xc,%rax
   13a46:	48 89 85 f0 fb ff ff 	mov    %rax,-0x410(%rbp)
   13a4d:	48 c7 85 f8 fb ff ff 	movq   $0x0,-0x408(%rbp)
   13a54:	00 00 00 00 
   13a58:	48 8d 05 d5 85 00 00 	lea    0x85d5(%rip),%rax        # 1c034 <g_101>
   13a5f:	48 89 85 00 fc ff ff 	mov    %rax,-0x400(%rbp)
   13a66:	48 8d 85 a0 f3 ff ff 	lea    -0xc60(%rbp),%rax
   13a6d:	48 83 c0 08          	add    $0x8,%rax
   13a71:	48 89 85 08 fc ff ff 	mov    %rax,-0x3f8(%rbp)
   13a78:	48 c7 85 10 fc ff ff 	movq   $0x0,-0x3f0(%rbp)
   13a7f:	00 00 00 00 
   13a83:	48 c7 85 18 fc ff ff 	movq   $0x0,-0x3e8(%rbp)
   13a8a:	00 00 00 00 
   13a8e:	48 c7 85 20 fc ff ff 	movq   $0x0,-0x3e0(%rbp)
   13a95:	00 00 00 00 
   13a99:	48 8d 85 ec f2 ff ff 	lea    -0xd14(%rbp),%rax
   13aa0:	48 89 85 28 fc ff ff 	mov    %rax,-0x3d8(%rbp)
   13aa7:	48 8d 85 a0 f3 ff ff 	lea    -0xc60(%rbp),%rax
   13aae:	48 83 c0 04          	add    $0x4,%rax
   13ab2:	48 89 85 30 fc ff ff 	mov    %rax,-0x3d0(%rbp)
   13ab9:	48 8d 85 a0 f3 ff ff 	lea    -0xc60(%rbp),%rax
   13ac0:	48 83 c0 04          	add    $0x4,%rax
   13ac4:	48 89 85 38 fc ff ff 	mov    %rax,-0x3c8(%rbp)
   13acb:	48 8d 85 ec f2 ff ff 	lea    -0xd14(%rbp),%rax
   13ad2:	48 89 85 40 fc ff ff 	mov    %rax,-0x3c0(%rbp)
   13ad9:	48 8d 05 0c f2 00 00 	lea    0xf20c(%rip),%rax        # 22cec <g_71>
   13ae0:	48 89 85 48 fc ff ff 	mov    %rax,-0x3b8(%rbp)
   13ae7:	48 8d 05 46 85 00 00 	lea    0x8546(%rip),%rax        # 1c034 <g_101>
   13aee:	48 89 85 50 fc ff ff 	mov    %rax,-0x3b0(%rbp)
   13af5:	48 8d 85 a0 f3 ff ff 	lea    -0xc60(%rbp),%rax
   13afc:	48 83 c0 0c          	add    $0xc,%rax
   13b00:	48 89 85 58 fc ff ff 	mov    %rax,-0x3a8(%rbp)
   13b07:	48 c7 85 60 fc ff ff 	movq   $0x0,-0x3a0(%rbp)
   13b0e:	00 00 00 00 
   13b12:	48 8d 85 ec f2 ff ff 	lea    -0xd14(%rbp),%rax
   13b19:	48 89 85 68 fc ff ff 	mov    %rax,-0x398(%rbp)
   13b20:	48 8d 85 a0 f3 ff ff 	lea    -0xc60(%rbp),%rax
   13b27:	48 83 c0 0c          	add    $0xc,%rax
   13b2b:	48 89 85 70 fc ff ff 	mov    %rax,-0x390(%rbp)
   13b32:	48 8d 05 fb 84 00 00 	lea    0x84fb(%rip),%rax        # 1c034 <g_101>
   13b39:	48 89 85 78 fc ff ff 	mov    %rax,-0x388(%rbp)
   13b40:	48 8d 85 a0 f3 ff ff 	lea    -0xc60(%rbp),%rax
   13b47:	48 83 c0 0c          	add    $0xc,%rax
   13b4b:	48 89 85 80 fc ff ff 	mov    %rax,-0x380(%rbp)
   13b52:	48 c7 85 88 fc ff ff 	movq   $0x0,-0x378(%rbp)
   13b59:	00 00 00 00 
   13b5d:	48 8d 05 88 f1 00 00 	lea    0xf188(%rip),%rax        # 22cec <g_71>
   13b64:	48 89 85 90 fc ff ff 	mov    %rax,-0x370(%rbp)
   13b6b:	48 8d 85 a0 f3 ff ff 	lea    -0xc60(%rbp),%rax
   13b72:	48 83 c0 04          	add    $0x4,%rax
   13b76:	48 89 85 98 fc ff ff 	mov    %rax,-0x368(%rbp)
   13b7d:	48 8d 05 b0 84 00 00 	lea    0x84b0(%rip),%rax        # 1c034 <g_101>
   13b84:	48 89 85 a0 fc ff ff 	mov    %rax,-0x360(%rbp)
   13b8b:	48 8d 85 a0 f3 ff ff 	lea    -0xc60(%rbp),%rax
   13b92:	48 83 c0 0c          	add    $0xc,%rax
   13b96:	48 89 85 a8 fc ff ff 	mov    %rax,-0x358(%rbp)
   13b9d:	48 8d 85 a0 f3 ff ff 	lea    -0xc60(%rbp),%rax
   13ba4:	48 83 c0 0c          	add    $0xc,%rax
   13ba8:	48 89 85 b0 fc ff ff 	mov    %rax,-0x350(%rbp)
   13baf:	48 8d 05 7e 84 00 00 	lea    0x847e(%rip),%rax        # 1c034 <g_101>
   13bb6:	48 89 85 b8 fc ff ff 	mov    %rax,-0x348(%rbp)
   13bbd:	48 8d 85 a0 f3 ff ff 	lea    -0xc60(%rbp),%rax
   13bc4:	48 83 c0 04          	add    $0x4,%rax
   13bc8:	48 89 85 c0 fc ff ff 	mov    %rax,-0x340(%rbp)
   13bcf:	48 8d 85 ec f2 ff ff 	lea    -0xd14(%rbp),%rax
   13bd6:	48 89 85 c8 fc ff ff 	mov    %rax,-0x338(%rbp)
   13bdd:	48 8d 85 a0 f3 ff ff 	lea    -0xc60(%rbp),%rax
   13be4:	48 83 c0 0c          	add    $0xc,%rax
   13be8:	48 89 85 d0 fc ff ff 	mov    %rax,-0x330(%rbp)
   13bef:	48 8d 85 a0 f3 ff ff 	lea    -0xc60(%rbp),%rax
   13bf6:	48 83 c0 0c          	add    $0xc,%rax
   13bfa:	48 89 85 d8 fc ff ff 	mov    %rax,-0x328(%rbp)
   13c01:	48 c7 85 e0 fc ff ff 	movq   $0x0,-0x320(%rbp)
   13c08:	00 00 00 00 
   13c0c:	48 8d 85 a0 f3 ff ff 	lea    -0xc60(%rbp),%rax
   13c13:	48 89 85 e8 fc ff ff 	mov    %rax,-0x318(%rbp)
   13c1a:	48 c7 85 f0 fc ff ff 	movq   $0x0,-0x310(%rbp)
   13c21:	00 00 00 00 
   13c25:	48 c7 85 f8 fc ff ff 	movq   $0x0,-0x308(%rbp)
   13c2c:	00 00 00 00 
   13c30:	48 8d 85 a0 f3 ff ff 	lea    -0xc60(%rbp),%rax
   13c37:	48 89 85 00 fd ff ff 	mov    %rax,-0x300(%rbp)
   13c3e:	48 8d 05 a7 f0 00 00 	lea    0xf0a7(%rip),%rax        # 22cec <g_71>
   13c45:	48 89 85 08 fd ff ff 	mov    %rax,-0x2f8(%rbp)
   13c4c:	48 8d 05 e1 83 00 00 	lea    0x83e1(%rip),%rax        # 1c034 <g_101>
   13c53:	48 89 85 10 fd ff ff 	mov    %rax,-0x2f0(%rbp)
   13c5a:	48 8d 05 8b f0 00 00 	lea    0xf08b(%rip),%rax        # 22cec <g_71>
   13c61:	48 89 85 18 fd ff ff 	mov    %rax,-0x2e8(%rbp)
   13c68:	48 8d 85 a0 f3 ff ff 	lea    -0xc60(%rbp),%rax
   13c6f:	48 83 c0 0c          	add    $0xc,%rax
   13c73:	48 89 85 20 fd ff ff 	mov    %rax,-0x2e0(%rbp)
   13c7a:	48 8d 05 6b f0 00 00 	lea    0xf06b(%rip),%rax        # 22cec <g_71>
   13c81:	48 89 85 28 fd ff ff 	mov    %rax,-0x2d8(%rbp)
   13c88:	48 8d 05 a5 83 00 00 	lea    0x83a5(%rip),%rax        # 1c034 <g_101>
   13c8f:	48 89 85 30 fd ff ff 	mov    %rax,-0x2d0(%rbp)
   13c96:	48 8d 85 ec f2 ff ff 	lea    -0xd14(%rbp),%rax
   13c9d:	48 89 85 38 fd ff ff 	mov    %rax,-0x2c8(%rbp)
   13ca4:	48 8d 85 a0 f3 ff ff 	lea    -0xc60(%rbp),%rax
   13cab:	48 83 c0 08          	add    $0x8,%rax
   13caf:	48 89 85 40 fd ff ff 	mov    %rax,-0x2c0(%rbp)
   13cb6:	48 8d 85 ec f2 ff ff 	lea    -0xd14(%rbp),%rax
   13cbd:	48 89 85 48 fd ff ff 	mov    %rax,-0x2b8(%rbp)
   13cc4:	48 8d 05 69 83 00 00 	lea    0x8369(%rip),%rax        # 1c034 <g_101>
   13ccb:	48 89 85 50 fd ff ff 	mov    %rax,-0x2b0(%rbp)
   13cd2:	48 c7 85 58 fd ff ff 	movq   $0x0,-0x2a8(%rbp)
   13cd9:	00 00 00 00 
   13cdd:	48 c7 85 60 fd ff ff 	movq   $0x0,-0x2a0(%rbp)
   13ce4:	00 00 00 00 
   13ce8:	48 8d 85 a0 f3 ff ff 	lea    -0xc60(%rbp),%rax
   13cef:	48 83 c0 0c          	add    $0xc,%rax
   13cf3:	48 89 85 68 fd ff ff 	mov    %rax,-0x298(%rbp)
   13cfa:	48 c7 85 70 fd ff ff 	movq   $0x0,-0x290(%rbp)
   13d01:	00 00 00 00 
   13d05:	48 8d 85 a0 f3 ff ff 	lea    -0xc60(%rbp),%rax
   13d0c:	48 83 c0 04          	add    $0x4,%rax
   13d10:	48 89 85 78 fd ff ff 	mov    %rax,-0x288(%rbp)
   13d17:	48 8d 05 16 83 00 00 	lea    0x8316(%rip),%rax        # 1c034 <g_101>
   13d1e:	48 89 85 80 fd ff ff 	mov    %rax,-0x280(%rbp)
   13d25:	48 8d 85 ec f2 ff ff 	lea    -0xd14(%rbp),%rax
   13d2c:	48 89 85 88 fd ff ff 	mov    %rax,-0x278(%rbp)
   13d33:	48 8d 05 fa 82 00 00 	lea    0x82fa(%rip),%rax        # 1c034 <g_101>
   13d3a:	48 89 85 90 fd ff ff 	mov    %rax,-0x270(%rbp)
   13d41:	48 c7 85 98 fd ff ff 	movq   $0x0,-0x268(%rbp)
   13d48:	00 00 00 00 
   13d4c:	48 8d 05 e1 82 00 00 	lea    0x82e1(%rip),%rax        # 1c034 <g_101>
   13d53:	48 89 85 a0 fd ff ff 	mov    %rax,-0x260(%rbp)
   13d5a:	48 8d 05 d3 82 00 00 	lea    0x82d3(%rip),%rax        # 1c034 <g_101>
   13d61:	48 89 85 a8 fd ff ff 	mov    %rax,-0x258(%rbp)
   13d68:	48 8d 05 7d ef 00 00 	lea    0xef7d(%rip),%rax        # 22cec <g_71>
   13d6f:	48 89 85 b0 fd ff ff 	mov    %rax,-0x250(%rbp)
   13d76:	48 8d 05 6f ef 00 00 	lea    0xef6f(%rip),%rax        # 22cec <g_71>
   13d7d:	48 89 85 b8 fd ff ff 	mov    %rax,-0x248(%rbp)
   13d84:	48 8d 85 ec f2 ff ff 	lea    -0xd14(%rbp),%rax
   13d8b:	48 89 85 c0 fd ff ff 	mov    %rax,-0x240(%rbp)
   13d92:	48 8d 05 53 ef 00 00 	lea    0xef53(%rip),%rax        # 22cec <g_71>
   13d99:	48 89 85 c8 fd ff ff 	mov    %rax,-0x238(%rbp)
   13da0:	48 8d 05 45 ef 00 00 	lea    0xef45(%rip),%rax        # 22cec <g_71>
   13da7:	48 89 85 d0 fd ff ff 	mov    %rax,-0x230(%rbp)
   13dae:	48 c7 85 d8 fd ff ff 	movq   $0x0,-0x228(%rbp)
   13db5:	00 00 00 00 
   13db9:	48 8d 85 ec f2 ff ff 	lea    -0xd14(%rbp),%rax
   13dc0:	48 89 85 e0 fd ff ff 	mov    %rax,-0x220(%rbp)
   13dc7:	48 8d 85 ec f2 ff ff 	lea    -0xd14(%rbp),%rax
   13dce:	48 89 85 e8 fd ff ff 	mov    %rax,-0x218(%rbp)
   13dd5:	48 8d 85 ec f2 ff ff 	lea    -0xd14(%rbp),%rax
   13ddc:	48 89 85 f0 fd ff ff 	mov    %rax,-0x210(%rbp)
   13de3:	48 8d 85 ec f2 ff ff 	lea    -0xd14(%rbp),%rax
   13dea:	48 89 85 f8 fd ff ff 	mov    %rax,-0x208(%rbp)
   13df1:	48 8d 05 f4 ee 00 00 	lea    0xeef4(%rip),%rax        # 22cec <g_71>
   13df8:	48 89 85 00 fe ff ff 	mov    %rax,-0x200(%rbp)
   13dff:	48 8d 05 2e 82 00 00 	lea    0x822e(%rip),%rax        # 1c034 <g_101>
   13e06:	48 89 85 08 fe ff ff 	mov    %rax,-0x1f8(%rbp)
   13e0d:	48 8d 85 a0 f3 ff ff 	lea    -0xc60(%rbp),%rax
   13e14:	48 83 c0 04          	add    $0x4,%rax
   13e18:	48 89 85 10 fe ff ff 	mov    %rax,-0x1f0(%rbp)
   13e1f:	48 8d 85 ec f2 ff ff 	lea    -0xd14(%rbp),%rax
   13e26:	48 89 85 18 fe ff ff 	mov    %rax,-0x1e8(%rbp)
   13e2d:	48 8d 05 00 82 00 00 	lea    0x8200(%rip),%rax        # 1c034 <g_101>
   13e34:	48 89 85 20 fe ff ff 	mov    %rax,-0x1e0(%rbp)
   13e3b:	48 c7 85 28 fe ff ff 	movq   $0x0,-0x1d8(%rbp)
   13e42:	00 00 00 00 
   13e46:	48 8d 85 a0 f3 ff ff 	lea    -0xc60(%rbp),%rax
   13e4d:	48 83 c0 0c          	add    $0xc,%rax
   13e51:	48 89 85 30 fe ff ff 	mov    %rax,-0x1d0(%rbp)
   13e58:	48 8d 85 a0 f3 ff ff 	lea    -0xc60(%rbp),%rax
   13e5f:	48 83 c0 04          	add    $0x4,%rax
   13e63:	48 89 85 38 fe ff ff 	mov    %rax,-0x1c8(%rbp)
   13e6a:	48 8d 85 ec f2 ff ff 	lea    -0xd14(%rbp),%rax
   13e71:	48 89 85 40 fe ff ff 	mov    %rax,-0x1c0(%rbp)
   13e78:	48 c7 85 48 fe ff ff 	movq   $0x0,-0x1b8(%rbp)
   13e7f:	00 00 00 00 
   13e83:	48 c7 85 50 fe ff ff 	movq   $0x0,-0x1b0(%rbp)
   13e8a:	00 00 00 00 
   13e8e:	48 8d 85 a0 f3 ff ff 	lea    -0xc60(%rbp),%rax
   13e95:	48 83 c0 0c          	add    $0xc,%rax
   13e99:	48 89 85 58 fe ff ff 	mov    %rax,-0x1a8(%rbp)
   13ea0:	48 8d 85 a0 f3 ff ff 	lea    -0xc60(%rbp),%rax
   13ea7:	48 83 c0 0c          	add    $0xc,%rax
   13eab:	48 89 85 60 fe ff ff 	mov    %rax,-0x1a0(%rbp)
   13eb2:	48 8d 85 a0 f3 ff ff 	lea    -0xc60(%rbp),%rax
   13eb9:	48 83 c0 0c          	add    $0xc,%rax
   13ebd:	48 89 85 68 fe ff ff 	mov    %rax,-0x198(%rbp)
   13ec4:	48 8d 85 a0 f3 ff ff 	lea    -0xc60(%rbp),%rax
   13ecb:	48 83 c0 04          	add    $0x4,%rax
   13ecf:	48 89 85 70 fe ff ff 	mov    %rax,-0x190(%rbp)
   13ed6:	48 c7 85 78 fe ff ff 	movq   $0x0,-0x188(%rbp)
   13edd:	00 00 00 00 
   13ee1:	48 8d 05 4c 81 00 00 	lea    0x814c(%rip),%rax        # 1c034 <g_101>
   13ee8:	48 89 85 80 fe ff ff 	mov    %rax,-0x180(%rbp)
   13eef:	48 c7 85 88 fe ff ff 	movq   $0x0,-0x178(%rbp)
   13ef6:	00 00 00 00 
   13efa:	48 8d 85 ec f2 ff ff 	lea    -0xd14(%rbp),%rax
   13f01:	48 89 85 90 fe ff ff 	mov    %rax,-0x170(%rbp)
   13f08:	48 8d 05 25 81 00 00 	lea    0x8125(%rip),%rax        # 1c034 <g_101>
   13f0f:	48 89 85 98 fe ff ff 	mov    %rax,-0x168(%rbp)
   13f16:	48 8d 85 a0 f3 ff ff 	lea    -0xc60(%rbp),%rax
   13f1d:	48 83 c0 08          	add    $0x8,%rax
   13f21:	48 89 85 a0 fe ff ff 	mov    %rax,-0x160(%rbp)
   13f28:	48 c7 85 a8 fe ff ff 	movq   $0x0,-0x158(%rbp)
   13f2f:	00 00 00 00 
   13f33:	48 8d 85 a0 f3 ff ff 	lea    -0xc60(%rbp),%rax
   13f3a:	48 83 c0 0c          	add    $0xc,%rax
   13f3e:	48 89 85 b0 fe ff ff 	mov    %rax,-0x150(%rbp)
   13f45:	48 c7 85 b8 fe ff ff 	movq   $0x0,-0x148(%rbp)
   13f4c:	00 00 00 00 
   13f50:	48 8d 85 a0 f3 ff ff 	lea    -0xc60(%rbp),%rax
   13f57:	48 83 c0 08          	add    $0x8,%rax
   13f5b:	48 89 85 c0 fe ff ff 	mov    %rax,-0x140(%rbp)
   13f62:	48 c7 85 c8 fe ff ff 	movq   $0x0,-0x138(%rbp)
   13f69:	00 00 00 00 
   13f6d:	48 c7 85 d0 fe ff ff 	movq   $0x0,-0x130(%rbp)
   13f74:	00 00 00 00 
   13f78:	48 8d 85 a0 f3 ff ff 	lea    -0xc60(%rbp),%rax
   13f7f:	48 83 c0 0c          	add    $0xc,%rax
   13f83:	48 89 85 d8 fe ff ff 	mov    %rax,-0x128(%rbp)
   13f8a:	48 8d 85 a0 f3 ff ff 	lea    -0xc60(%rbp),%rax
   13f91:	48 83 c0 0c          	add    $0xc,%rax
   13f95:	48 89 85 e0 fe ff ff 	mov    %rax,-0x120(%rbp)
   13f9c:	48 8d 85 ec f2 ff ff 	lea    -0xd14(%rbp),%rax
   13fa3:	48 89 85 e8 fe ff ff 	mov    %rax,-0x118(%rbp)
   13faa:	48 8d 85 a0 f3 ff ff 	lea    -0xc60(%rbp),%rax
   13fb1:	48 83 c0 0c          	add    $0xc,%rax
   13fb5:	48 89 85 f0 fe ff ff 	mov    %rax,-0x110(%rbp)
   13fbc:	48 8d 85 a0 f3 ff ff 	lea    -0xc60(%rbp),%rax
   13fc3:	48 83 c0 04          	add    $0x4,%rax
   13fc7:	48 89 85 f8 fe ff ff 	mov    %rax,-0x108(%rbp)
   13fce:	48 8d 85 a0 f3 ff ff 	lea    -0xc60(%rbp),%rax
   13fd5:	48 83 c0 08          	add    $0x8,%rax
   13fd9:	48 89 85 00 ff ff ff 	mov    %rax,-0x100(%rbp)
   13fe0:	48 8d 85 a0 f3 ff ff 	lea    -0xc60(%rbp),%rax
   13fe7:	48 83 c0 04          	add    $0x4,%rax
   13feb:	48 89 85 08 ff ff ff 	mov    %rax,-0xf8(%rbp)
   13ff2:	48 8d 05 f3 ec 00 00 	lea    0xecf3(%rip),%rax        # 22cec <g_71>
   13ff9:	48 89 85 10 ff ff ff 	mov    %rax,-0xf0(%rbp)
   14000:	48 8d 85 a0 f3 ff ff 	lea    -0xc60(%rbp),%rax
   14007:	48 83 c0 0c          	add    $0xc,%rax
   1400b:	48 89 85 18 ff ff ff 	mov    %rax,-0xe8(%rbp)
   14012:	48 c7 85 20 ff ff ff 	movq   $0x0,-0xe0(%rbp)
   14019:	00 00 00 00 
   1401d:	48 8d 85 a0 f3 ff ff 	lea    -0xc60(%rbp),%rax
   14024:	48 83 c0 08          	add    $0x8,%rax
   14028:	48 89 85 28 ff ff ff 	mov    %rax,-0xd8(%rbp)
   1402f:	48 8d 85 a0 f3 ff ff 	lea    -0xc60(%rbp),%rax
   14036:	48 89 85 30 ff ff ff 	mov    %rax,-0xd0(%rbp)
   1403d:	48 8d 05 f0 7f 00 00 	lea    0x7ff0(%rip),%rax        # 1c034 <g_101>
   14044:	48 89 85 38 ff ff ff 	mov    %rax,-0xc8(%rbp)
   1404b:	48 8d 05 9a ec 00 00 	lea    0xec9a(%rip),%rax        # 22cec <g_71>
   14052:	48 89 85 40 ff ff ff 	mov    %rax,-0xc0(%rbp)
   14059:	48 8d 05 8c ec 00 00 	lea    0xec8c(%rip),%rax        # 22cec <g_71>
   14060:	48 89 85 48 ff ff ff 	mov    %rax,-0xb8(%rbp)
   14067:	48 8d 05 7e ec 00 00 	lea    0xec7e(%rip),%rax        # 22cec <g_71>
   1406e:	48 89 85 50 ff ff ff 	mov    %rax,-0xb0(%rbp)
   14075:	48 8d 85 ec f2 ff ff 	lea    -0xd14(%rbp),%rax
   1407c:	48 89 85 58 ff ff ff 	mov    %rax,-0xa8(%rbp)
   14083:	48 8d 85 a0 f3 ff ff 	lea    -0xc60(%rbp),%rax
   1408a:	48 83 c0 0c          	add    $0xc,%rax
   1408e:	48 89 85 60 ff ff ff 	mov    %rax,-0xa0(%rbp)
   14095:	48 8d 05 50 ec 00 00 	lea    0xec50(%rip),%rax        # 22cec <g_71>
   1409c:	48 89 85 68 ff ff ff 	mov    %rax,-0x98(%rbp)
   140a3:	48 8d 05 42 ec 00 00 	lea    0xec42(%rip),%rax        # 22cec <g_71>
   140aa:	48 89 85 70 ff ff ff 	mov    %rax,-0x90(%rbp)
   140b1:	48 8d 85 ec f2 ff ff 	lea    -0xd14(%rbp),%rax
   140b8:	48 89 85 78 ff ff ff 	mov    %rax,-0x88(%rbp)
   140bf:	48 8d 05 6e 7f 00 00 	lea    0x7f6e(%rip),%rax        # 1c034 <g_101>
   140c6:	48 89 45 80          	mov    %rax,-0x80(%rbp)
   140ca:	48 c7 45 88 00 00 00 	movq   $0x0,-0x78(%rbp)
   140d1:	00 
   140d2:	48 8d 85 a0 f3 ff ff 	lea    -0xc60(%rbp),%rax
   140d9:	48 83 c0 0c          	add    $0xc,%rax
   140dd:	48 89 45 90          	mov    %rax,-0x70(%rbp)
   140e1:	48 c7 45 98 00 00 00 	movq   $0x0,-0x68(%rbp)
   140e8:	00 
   140e9:	48 c7 45 a0 00 00 00 	movq   $0x0,-0x60(%rbp)
   140f0:	00 
   140f1:	48 8d 05 f4 eb 00 00 	lea    0xebf4(%rip),%rax        # 22cec <g_71>
   140f8:	48 89 45 a8          	mov    %rax,-0x58(%rbp)
   140fc:	48 8d 85 a0 f3 ff ff 	lea    -0xc60(%rbp),%rax
   14103:	48 83 c0 0c          	add    $0xc,%rax
   14107:	48 89 45 b0          	mov    %rax,-0x50(%rbp)
   1410b:	48 8d 85 a0 f3 ff ff 	lea    -0xc60(%rbp),%rax
   14112:	48 83 c0 0c          	add    $0xc,%rax
   14116:	48 89 45 b8          	mov    %rax,-0x48(%rbp)
   1411a:	48 8d 05 13 7f 00 00 	lea    0x7f13(%rip),%rax        # 1c034 <g_101>
   14121:	48 89 45 c0          	mov    %rax,-0x40(%rbp)
   14125:	48 c7 45 c8 00 00 00 	movq   $0x0,-0x38(%rbp)
   1412c:	00 
   1412d:	48 8d 85 a0 f3 ff ff 	lea    -0xc60(%rbp),%rax
   14134:	48 83 c0 04          	add    $0x4,%rax
   14138:	48 89 45 d0          	mov    %rax,-0x30(%rbp)
   1413c:	48 8d 85 a0 f3 ff ff 	lea    -0xc60(%rbp),%rax
   14143:	48 83 c0 0c          	add    $0xc,%rax
   14147:	48 89 45 d8          	mov    %rax,-0x28(%rbp)
   1414b:	48 8d 05 ee c6 00 00 	lea    0xc6ee(%rip),%rax        # 20840 <g_70>
   14152:	48 89 85 70 f3 ff ff 	mov    %rax,-0xc90(%rbp)
   14159:	48 8b 95 e0 f3 ff ff 	mov    -0xc20(%rbp),%rdx
   14160:	48 8b 85 50 f3 ff ff 	mov    -0xcb0(%rbp),%rax
   14167:	48 89 10             	mov    %rdx,(%rax)
   1416a:	48 8b 85 50 f3 ff ff 	mov    -0xcb0(%rbp),%rax
   14171:	48 8b 08             	mov    (%rax),%rcx
   14174:	48 8b 15 45 c7 00 00 	mov    0xc745(%rip),%rdx        # 208c0 <g_236+0x20>
   1417b:	48 8b 85 58 f3 ff ff 	mov    -0xca8(%rbp),%rax
   14182:	48 89 10             	mov    %rdx,(%rax)
   14185:	48 8b 85 58 f3 ff ff 	mov    -0xca8(%rbp),%rax
   1418c:	48 8b 00             	mov    (%rax),%rax
   1418f:	48 39 c1             	cmp    %rax,%rcx
   14192:	0f 94 c0             	sete   %al
   14195:	0f b6 d0             	movzbl %al,%edx
   14198:	48 8b 85 d0 f2 ff ff 	mov    -0xd30(%rbp),%rax
   1419f:	8b 00                	mov    (%rax),%eax
   141a1:	09 c2                	or     %eax,%edx
   141a3:	48 8b 85 d0 f2 ff ff 	mov    -0xd30(%rbp),%rax
   141aa:	89 10                	mov    %edx,(%rax)
   141ac:	48 8b 85 c8 f2 ff ff 	mov    -0xd38(%rbp),%rax
   141b3:	8b 00                	mov    (%rax),%eax
   141b5:	0f b7 15 88 7f 00 00 	movzwl 0x7f88(%rip),%edx        # 1c144 <g_214>
   141bc:	0f b7 d2             	movzwl %dx,%edx
   141bf:	48 63 d2             	movslq %edx,%rdx
   141c2:	48 8d 0c d5 00 00 00 	lea    0x0(,%rdx,8),%rcx
   141c9:	00 
   141ca:	48 8d 15 8f 7f 00 00 	lea    0x7f8f(%rip),%rdx        # 1c160 <g_225>
   141d1:	48 8b 14 11          	mov    (%rcx,%rdx,1),%rdx
   141d5:	09 c2                	or     %eax,%edx
   141d7:	48 8b 85 c8 f2 ff ff 	mov    -0xd38(%rbp),%rax
   141de:	89 10                	mov    %edx,(%rax)
   141e0:	0f b7 85 3a f4 ff ff 	movzwl -0xbc6(%rbp),%eax
   141e7:	83 c0 01             	add    $0x1,%eax
   141ea:	66 89 85 3a f4 ff ff 	mov    %ax,-0xbc6(%rbp)
   141f1:	48 8b 85 38 f3 ff ff 	mov    -0xcc8(%rbp),%rax
   141f8:	0f b7 00             	movzwl (%rax),%eax
   141fb:	83 f0 01             	xor    $0x1,%eax
   141fe:	89 c2                	mov    %eax,%edx
   14200:	48 8b 85 38 f3 ff ff 	mov    -0xcc8(%rbp),%rax
   14207:	66 89 10             	mov    %dx,(%rax)
   1420a:	48 8b 85 38 f3 ff ff 	mov    -0xcc8(%rbp),%rax
   14211:	0f b7 00             	movzwl (%rax),%eax
   14214:	44 0f bf e0          	movswl %ax,%r12d
   14218:	48 8b 85 68 f3 ff ff 	mov    -0xc98(%rbp),%rax
   1421f:	8b 18                	mov    (%rax),%ebx
   14221:	8b 05 0d 7e 00 00    	mov    0x7e0d(%rip),%eax        # 1c034 <g_101>
   14227:	0f b6 c0             	movzbl %al,%eax
   1422a:	be 04 00 00 00       	mov    $0x4,%esi
   1422f:	89 c7                	mov    %eax,%edi
   14231:	e8 57 8a ff ff       	callq  cc8d <safe_rshift_func_uint8_t_u_s>
   14236:	0f b6 c0             	movzbl %al,%eax
   14239:	89 de                	mov    %ebx,%esi
   1423b:	89 c7                	mov    %eax,%edi
   1423d:	e8 c3 89 ff ff       	callq  cc05 <safe_lshift_func_uint8_t_u_s>
   14242:	0f b6 d0             	movzbl %al,%edx
   14245:	0f b7 85 d8 f2 ff ff 	movzwl -0xd28(%rbp),%eax
   1424c:	09 d0                	or     %edx,%eax
   1424e:	98                   	cwtl   
   1424f:	89 c7                	mov    %eax,%edi
   14251:	e8 47 81 ff ff       	callq  c39d <safe_unary_minus_func_int16_t_s>
   14256:	66 85 c0             	test   %ax,%ax
   14259:	0f 94 c0             	sete   %al
   1425c:	0f b6 d0             	movzbl %al,%edx
   1425f:	0f b6 05 ca 7e 00 00 	movzbl 0x7eca(%rip),%eax        # 1c130 <g_205>
   14266:	0f b6 c0             	movzbl %al,%eax
   14269:	39 c2                	cmp    %eax,%edx
   1426b:	0f b7 05 d2 7e 00 00 	movzwl 0x7ed2(%rip),%eax        # 1c144 <g_214>
   14272:	0f b7 c0             	movzwl %ax,%eax
   14275:	48 98                	cltq   
   14277:	48 8d 14 c5 00 00 00 	lea    0x0(,%rax,8),%rdx
   1427e:	00 
   1427f:	48 8d 05 da 7e 00 00 	lea    0x7eda(%rip),%rax        # 1c160 <g_225>
   14286:	48 8b 04 02          	mov    (%rdx,%rax,1),%rax
   1428a:	0f be c0             	movsbl %al,%eax
   1428d:	be f7 ff ff ff       	mov    $0xfffffff7,%esi
   14292:	89 c7                	mov    %eax,%edi
   14294:	e8 3b 7f ff ff       	callq  c1d4 <safe_add_func_int8_t_s_s>
   14299:	48 8b 85 70 f3 ff ff 	mov    -0xc90(%rbp),%rax
   142a0:	48 c7 00 00 00 00 00 	movq   $0x0,(%rax)
   142a7:	48 8b 85 70 f3 ff ff 	mov    -0xc90(%rbp),%rax
   142ae:	48 8b 00             	mov    (%rax),%rax
   142b1:	48 39 85 48 f3 ff ff 	cmp    %rax,-0xcb8(%rbp)
   142b8:	0f 94 c0             	sete   %al
   142bb:	0f b6 c0             	movzbl %al,%eax
   142be:	41 39 c4             	cmp    %eax,%r12d
   142c1:	0f 9d c0             	setge  %al
   142c4:	0f b6 c0             	movzbl %al,%eax
   142c7:	f7 d0                	not    %eax
   142c9:	89 c2                	mov    %eax,%edx
   142cb:	48 8b 85 c8 f2 ff ff 	mov    -0xd38(%rbp),%rax
   142d2:	8b 00                	mov    (%rax),%eax
   142d4:	31 c2                	xor    %eax,%edx
   142d6:	48 8b 85 c8 f2 ff ff 	mov    -0xd38(%rbp),%rax
   142dd:	89 10                	mov    %edx,(%rax)
   142df:	c7 05 4b 7d 00 00 03 	movl   $0x3,0x7d4b(%rip)        # 1c034 <g_101>
   142e6:	00 00 00 
   142e9:	e9 f7 00 00 00       	jmpq   143e5 <func_75+0x16fa>
   142ee:	48 8d 85 40 f4 ff ff 	lea    -0xbc0(%rbp),%rax
   142f5:	48 8d 15 64 47 00 00 	lea    0x4764(%rip),%rdx        # 18a60 <g_2177+0xa04>
   142fc:	b9 78 00 00 00       	mov    $0x78,%ecx
   14301:	48 89 c7             	mov    %rax,%rdi
   14304:	48 89 d6             	mov    %rdx,%rsi
   14307:	f3 48 a5             	rep movsq %ds:(%rsi),%es:(%rdi)
   1430a:	c7 85 04 f3 ff ff 01 	movl   $0x1,-0xcfc(%rbp)
   14311:	00 00 00 
   14314:	c7 85 08 f3 ff ff ff 	movl   $0xffffffff,-0xcf8(%rbp)
   1431b:	ff ff ff 
   1431e:	48 c7 05 ff 7d 00 00 	movq   $0x0,0x7dff(%rip)        # 1c128 <g_203>
   14325:	00 00 00 00 
   14329:	90                   	nop
   1432a:	48 8b 05 f7 7d 00 00 	mov    0x7df7(%rip),%rax        # 1c128 <g_203>
   14331:	48 83 f8 04          	cmp    $0x4,%rax
   14335:	0f 87 9b 00 00 00    	ja     143d6 <func_75+0x16eb>
   1433b:	66 c7 85 ea f2 ff ff 	movw   $0xefdd,-0xd16(%rbp)
   14342:	dd ef 
   14344:	c7 85 0c f3 ff ff c5 	movl   $0x50440ac5,-0xcf4(%rbp)
   1434b:	0a 44 50 
   1434e:	c7 85 10 f3 ff ff fe 	movl   $0x67729ffe,-0xcf0(%rbp)
   14355:	9f 72 67 
   14358:	c7 85 00 f3 ff ff 06 	movl   $0x6,-0xd00(%rbp)
   1435f:	00 00 00 
   14362:	eb 56                	jmp    143ba <func_75+0x16cf>
   14364:	48 8d 05 9d c5 00 00 	lea    0xc59d(%rip),%rax        # 20908 <g_263>
   1436b:	48 89 85 78 f3 ff ff 	mov    %rax,-0xc88(%rbp)
   14372:	48 8d 85 dc f2 ff ff 	lea    -0xd24(%rbp),%rax
   14379:	48 89 85 d0 f2 ff ff 	mov    %rax,-0xd30(%rbp)
   14380:	48 8b 15 81 c5 00 00 	mov    0xc581(%rip),%rdx        # 20908 <g_263>
   14387:	48 8b 85 78 f3 ff ff 	mov    -0xc88(%rbp),%rax
   1438e:	48 89 10             	mov    %rdx,(%rax)
   14391:	48 8b 05 90 7d 00 00 	mov    0x7d90(%rip),%rax        # 1c128 <g_203>
   14398:	48 8d 50 02          	lea    0x2(%rax),%rdx
   1439c:	48 8d 05 8d 7d 00 00 	lea    0x7d8d(%rip),%rax        # 1c130 <g_205>
   143a3:	0f b6 04 02          	movzbl (%rdx,%rax,1),%eax
   143a7:	0f b6 d0             	movzbl %al,%edx
   143aa:	48 8b 85 c8 f2 ff ff 	mov    -0xd38(%rbp),%rax
   143b1:	89 10                	mov    %edx,(%rax)
   143b3:	83 ad 00 f3 ff ff 01 	subl   $0x1,-0xd00(%rbp)
   143ba:	83 bd 00 f3 ff ff 00 	cmpl   $0x0,-0xd00(%rbp)
   143c1:	79 a1                	jns    14364 <func_75+0x1679>
   143c3:	83 85 10 f3 ff ff 01 	addl   $0x1,-0xcf0(%rbp)
   143ca:	48 8d 05 1b e9 00 00 	lea    0xe91b(%rip),%rax        # 22cec <g_71>
   143d1:	e9 95 00 00 00       	jmpq   1446b <func_75+0x1780>
   143d6:	8b 05 58 7c 00 00    	mov    0x7c58(%rip),%eax        # 1c034 <g_101>
   143dc:	83 e8 01             	sub    $0x1,%eax
   143df:	89 05 4f 7c 00 00    	mov    %eax,0x7c4f(%rip)        # 1c034 <g_101>
   143e5:	8b 05 49 7c 00 00    	mov    0x7c49(%rip),%eax        # 1c034 <g_101>
   143eb:	85 c0                	test   %eax,%eax
   143ed:	0f 89 fb fe ff ff    	jns    142ee <func_75+0x1603>
   143f3:	0f b7 05 4a 7d 00 00 	movzwl 0x7d4a(%rip),%eax        # 1c144 <g_214>
   143fa:	83 c0 01             	add    $0x1,%eax
   143fd:	66 89 05 40 7d 00 00 	mov    %ax,0x7d40(%rip)        # 1c144 <g_214>
   14404:	0f b7 05 39 7d 00 00 	movzwl 0x7d39(%rip),%eax        # 1c144 <g_214>
   1440b:	66 83 f8 04          	cmp    $0x4,%ax
   1440f:	0f 86 c8 ee ff ff    	jbe    132dd <func_75+0x5f2>
   14415:	eb 3f                	jmp    14456 <func_75+0x176b>
   14417:	c6 85 e7 f2 ff ff 40 	movb   $0x40,-0xd19(%rbp)
   1441e:	48 8b 85 c0 f2 ff ff 	mov    -0xd40(%rbp),%rax
   14425:	c7 00 34 03 fd fa    	movl   $0xfafd0334,(%rax)
   1442b:	0f b6 95 e7 f2 ff ff 	movzbl -0xd19(%rbp),%edx
   14432:	48 8b 85 c8 f2 ff ff 	mov    -0xd38(%rbp),%rax
   14439:	89 10                	mov    %edx,(%rax)
   1443b:	48 8b 85 c8 f2 ff ff 	mov    -0xd38(%rbp),%rax
   14442:	8b 10                	mov    (%rax),%edx
   14444:	48 8b 85 c0 f2 ff ff 	mov    -0xd40(%rbp),%rax
   1444b:	89 10                	mov    %edx,(%rax)
   1444d:	48 8d 05 e0 7b 00 00 	lea    0x7be0(%rip),%rax        # 1c034 <g_101>
   14454:	eb 15                	jmp    1446b <func_75+0x1780>
   14456:	48 8d 05 7b 81 00 00 	lea    0x817b(%rip),%rax        # 1c5d8 <g_244+0x3b8>
   1445d:	48 89 85 40 f3 ff ff 	mov    %rax,-0xcc0(%rbp)
   14464:	48 8d 05 81 e8 00 00 	lea    0xe881(%rip),%rax        # 22cec <g_71>
   1446b:	48 8b 5d e8          	mov    -0x18(%rbp),%rbx
   1446f:	64 48 33 1c 25 28 00 	xor    %fs:0x28,%rbx
   14476:	00 00 
   14478:	74 05                	je     1447f <func_75+0x1794>
   1447a:	e8 f1 7b ff ff       	callq  c070 <__stack_chk_fail@plt>
   1447f:	48 81 c4 30 0d 00 00 	add    $0xd30,%rsp
   14486:	5b                   	pop    %rbx
   14487:	41 5c                	pop    %r12
   14489:	5d                   	pop    %rbp
   1448a:	c3                   	retq   

000000000001448b <main>:
   1448b:	f3 0f 1e fa          	endbr64 
   1448f:	55                   	push   %rbp
   14490:	48 89 e5             	mov    %rsp,%rbp
   14493:	48 83 ec 20          	sub    $0x20,%rsp
   14497:	89 7d ec             	mov    %edi,-0x14(%rbp)
   1449a:	48 89 75 e0          	mov    %rsi,-0x20(%rbp)
   1449e:	c7 45 fc 00 00 00 00 	movl   $0x0,-0x4(%rbp)
   144a5:	83 7d ec 02          	cmpl   $0x2,-0x14(%rbp)
   144a9:	75 25                	jne    144d0 <main+0x45>
   144ab:	48 8b 45 e0          	mov    -0x20(%rbp),%rax
   144af:	48 83 c0 08          	add    $0x8,%rax
   144b3:	48 8b 00             	mov    (%rax),%rax
   144b6:	48 8d 35 63 49 00 00 	lea    0x4963(%rip),%rsi        # 18e20 <g_2177+0xdc4>
   144bd:	48 89 c7             	mov    %rax,%rdi
   144c0:	e8 cb 7b ff ff       	callq  c090 <strcmp@plt>
   144c5:	85 c0                	test   %eax,%eax
   144c7:	75 07                	jne    144d0 <main+0x45>
   144c9:	c7 45 fc 01 00 00 00 	movl   $0x1,-0x4(%rbp)
   144d0:	e8 b4 7c ff ff       	callq  c189 <platform_main_begin>
   144d5:	e8 be 90 ff ff       	callq  d598 <crc32_gentab>
   144da:	e8 d6 92 ff ff       	callq  d7b5 <func_1>
   144df:	48 8b 05 42 7b 00 00 	mov    0x7b42(%rip),%rax        # 1c028 <g_7>
   144e6:	48 89 c1             	mov    %rax,%rcx
   144e9:	8b 45 fc             	mov    -0x4(%rbp),%eax
   144ec:	89 c2                	mov    %eax,%edx
   144ee:	48 8d 35 2d 49 00 00 	lea    0x492d(%rip),%rsi        # 18e22 <g_2177+0xdc6>
   144f5:	48 89 cf             	mov    %rcx,%rdi
   144f8:	e8 f6 91 ff ff       	callq  d6f3 <transparent_crc>
   144fd:	8b 05 e5 e7 00 00    	mov    0xe7e5(%rip),%eax        # 22ce8 <g_55>
   14503:	48 98                	cltq   
   14505:	8b 55 fc             	mov    -0x4(%rbp),%edx
   14508:	48 8d 35 17 49 00 00 	lea    0x4917(%rip),%rsi        # 18e26 <g_2177+0xdca>
   1450f:	48 89 c7             	mov    %rax,%rdi
   14512:	e8 dc 91 ff ff       	callq  d6f3 <transparent_crc>
   14517:	8b 05 cf e7 00 00    	mov    0xe7cf(%rip),%eax        # 22cec <g_71>
   1451d:	48 98                	cltq   
   1451f:	8b 55 fc             	mov    -0x4(%rbp),%edx
   14522:	48 8d 35 02 49 00 00 	lea    0x4902(%rip),%rsi        # 18e2b <g_2177+0xdcf>
   14529:	48 89 c7             	mov    %rax,%rdi
   1452c:	e8 c2 91 ff ff       	callq  d6f3 <transparent_crc>
   14531:	0f b7 05 f8 7a 00 00 	movzwl 0x7af8(%rip),%eax        # 1c030 <g_96>
   14538:	0f b7 c0             	movzwl %ax,%eax
   1453b:	8b 55 fc             	mov    -0x4(%rbp),%edx
   1453e:	48 8d 35 eb 48 00 00 	lea    0x48eb(%rip),%rsi        # 18e30 <g_2177+0xdd4>
   14545:	48 89 c7             	mov    %rax,%rdi
   14548:	e8 a6 91 ff ff       	callq  d6f3 <transparent_crc>
   1454d:	8b 05 e1 7a 00 00    	mov    0x7ae1(%rip),%eax        # 1c034 <g_101>
   14553:	48 98                	cltq   
   14555:	8b 55 fc             	mov    -0x4(%rbp),%edx
   14558:	48 8d 35 d6 48 00 00 	lea    0x48d6(%rip),%rsi        # 18e35 <g_2177+0xdd9>
   1455f:	48 89 c7             	mov    %rax,%rdi
   14562:	e8 8c 91 ff ff       	callq  d6f3 <transparent_crc>
   14567:	c7 45 f0 00 00 00 00 	movl   $0x0,-0x10(%rbp)
   1456e:	e9 b4 00 00 00       	jmpq   14627 <main+0x19c>
   14573:	c7 45 f4 00 00 00 00 	movl   $0x0,-0xc(%rbp)
   1457a:	e9 9a 00 00 00       	jmpq   14619 <main+0x18e>
   1457f:	c7 45 f8 00 00 00 00 	movl   $0x0,-0x8(%rbp)
   14586:	e9 80 00 00 00       	jmpq   1460b <main+0x180>
   1458b:	8b 45 f8             	mov    -0x8(%rbp),%eax
   1458e:	48 63 f0             	movslq %eax,%rsi
   14591:	8b 45 f0             	mov    -0x10(%rbp),%eax
   14594:	48 63 d0             	movslq %eax,%rdx
   14597:	8b 45 f4             	mov    -0xc(%rbp),%eax
   1459a:	48 63 c8             	movslq %eax,%rcx
   1459d:	48 89 d0             	mov    %rdx,%rax
   145a0:	48 01 c0             	add    %rax,%rax
   145a3:	48 01 d0             	add    %rdx,%rax
   145a6:	48 8d 14 c5 00 00 00 	lea    0x0(,%rax,8),%rdx
   145ad:	00 
   145ae:	48 01 d0             	add    %rdx,%rax
   145b1:	48 89 ca             	mov    %rcx,%rdx
   145b4:	48 c1 e2 03          	shl    $0x3,%rdx
   145b8:	48 01 ca             	add    %rcx,%rdx
   145bb:	48 01 d0             	add    %rdx,%rax
   145be:	48 01 f0             	add    %rsi,%rax
   145c1:	48 8d 14 00          	lea    (%rax,%rax,1),%rdx
   145c5:	48 8d 05 74 7a 00 00 	lea    0x7a74(%rip),%rax        # 1c040 <g_104>
   145cc:	0f b7 04 02          	movzwl (%rdx,%rax,1),%eax
   145d0:	0f b7 c0             	movzwl %ax,%eax
   145d3:	8b 55 fc             	mov    -0x4(%rbp),%edx
   145d6:	48 8d 35 5e 48 00 00 	lea    0x485e(%rip),%rsi        # 18e3b <g_2177+0xddf>
   145dd:	48 89 c7             	mov    %rax,%rdi
   145e0:	e8 0e 91 ff ff       	callq  d6f3 <transparent_crc>
   145e5:	83 7d fc 00          	cmpl   $0x0,-0x4(%rbp)
   145e9:	74 1c                	je     14607 <main+0x17c>
   145eb:	8b 4d f8             	mov    -0x8(%rbp),%ecx
   145ee:	8b 55 f4             	mov    -0xc(%rbp),%edx
   145f1:	8b 45 f0             	mov    -0x10(%rbp),%eax
   145f4:	89 c6                	mov    %eax,%esi
   145f6:	48 8d 3d 4d 48 00 00 	lea    0x484d(%rip),%rdi        # 18e4a <g_2177+0xdee>
   145fd:	b8 00 00 00 00       	mov    $0x0,%eax
   14602:	e8 79 7a ff ff       	callq  c080 <printf@plt>
   14607:	83 45 f8 01          	addl   $0x1,-0x8(%rbp)
   1460b:	83 7d f8 08          	cmpl   $0x8,-0x8(%rbp)
   1460f:	0f 8e 76 ff ff ff    	jle    1458b <main+0x100>
   14615:	83 45 f4 01          	addl   $0x1,-0xc(%rbp)
   14619:	83 7d f4 02          	cmpl   $0x2,-0xc(%rbp)
   1461d:	0f 8e 5c ff ff ff    	jle    1457f <main+0xf4>
   14623:	83 45 f0 01          	addl   $0x1,-0x10(%rbp)
   14627:	83 7d f0 03          	cmpl   $0x3,-0x10(%rbp)
   1462b:	0f 8e 42 ff ff ff    	jle    14573 <main+0xe8>
   14631:	0f b6 05 e0 7a 00 00 	movzbl 0x7ae0(%rip),%eax        # 1c118 <g_114>
   14638:	48 0f be c0          	movsbq %al,%rax
   1463c:	8b 55 fc             	mov    -0x4(%rbp),%edx
   1463f:	48 8d 35 1a 48 00 00 	lea    0x481a(%rip),%rsi        # 18e60 <g_2177+0xe04>
   14646:	48 89 c7             	mov    %rax,%rdi
   14649:	e8 a5 90 ff ff       	callq  d6f3 <transparent_crc>
   1464e:	8b 05 c8 7a 00 00    	mov    0x7ac8(%rip),%eax        # 1c11c <g_122>
   14654:	89 c1                	mov    %eax,%ecx
   14656:	8b 45 fc             	mov    -0x4(%rbp),%eax
   14659:	89 c2                	mov    %eax,%edx
   1465b:	48 8d 35 04 48 00 00 	lea    0x4804(%rip),%rsi        # 18e66 <g_2177+0xe0a>
   14662:	48 89 cf             	mov    %rcx,%rdi
   14665:	e8 89 90 ff ff       	callq  d6f3 <transparent_crc>
   1466a:	0f b7 05 af 7a 00 00 	movzwl 0x7aaf(%rip),%eax        # 1c120 <g_146>
   14671:	48 0f bf c0          	movswq %ax,%rax
   14675:	8b 55 fc             	mov    -0x4(%rbp),%edx
   14678:	48 8d 35 ed 47 00 00 	lea    0x47ed(%rip),%rsi        # 18e6c <g_2177+0xe10>
   1467f:	48 89 c7             	mov    %rax,%rdi
   14682:	e8 6c 90 ff ff       	callq  d6f3 <transparent_crc>
   14687:	0f b6 05 94 7a 00 00 	movzbl 0x7a94(%rip),%eax        # 1c122 <g_190>
   1468e:	0f b6 c0             	movzbl %al,%eax
   14691:	8b 55 fc             	mov    -0x4(%rbp),%edx
   14694:	48 8d 35 d7 47 00 00 	lea    0x47d7(%rip),%rsi        # 18e72 <g_2177+0xe16>
   1469b:	48 89 c7             	mov    %rax,%rdi
   1469e:	e8 50 90 ff ff       	callq  d6f3 <transparent_crc>
   146a3:	48 8b 05 7e 7a 00 00 	mov    0x7a7e(%rip),%rax        # 1c128 <g_203>
   146aa:	8b 55 fc             	mov    -0x4(%rbp),%edx
   146ad:	48 8d 35 c4 47 00 00 	lea    0x47c4(%rip),%rsi        # 18e78 <g_2177+0xe1c>
   146b4:	48 89 c7             	mov    %rax,%rdi
   146b7:	e8 37 90 ff ff       	callq  d6f3 <transparent_crc>
   146bc:	c7 45 f0 00 00 00 00 	movl   $0x0,-0x10(%rbp)
   146c3:	eb 45                	jmp    1470a <main+0x27f>
   146c5:	8b 45 f0             	mov    -0x10(%rbp),%eax
   146c8:	48 98                	cltq   
   146ca:	48 8d 15 5f 7a 00 00 	lea    0x7a5f(%rip),%rdx        # 1c130 <g_205>
   146d1:	0f b6 04 10          	movzbl (%rax,%rdx,1),%eax
   146d5:	0f b6 c0             	movzbl %al,%eax
   146d8:	8b 55 fc             	mov    -0x4(%rbp),%edx
   146db:	48 8d 35 9c 47 00 00 	lea    0x479c(%rip),%rsi        # 18e7e <g_2177+0xe22>
   146e2:	48 89 c7             	mov    %rax,%rdi
   146e5:	e8 09 90 ff ff       	callq  d6f3 <transparent_crc>
   146ea:	83 7d fc 00          	cmpl   $0x0,-0x4(%rbp)
   146ee:	74 16                	je     14706 <main+0x27b>
   146f0:	8b 45 f0             	mov    -0x10(%rbp),%eax
   146f3:	89 c6                	mov    %eax,%esi
   146f5:	48 8d 3d 8b 47 00 00 	lea    0x478b(%rip),%rdi        # 18e87 <g_2177+0xe2b>
   146fc:	b8 00 00 00 00       	mov    $0x0,%eax
   14701:	e8 7a 79 ff ff       	callq  c080 <printf@plt>
   14706:	83 45 f0 01          	addl   $0x1,-0x10(%rbp)
   1470a:	83 7d f0 06          	cmpl   $0x6,-0x10(%rbp)
   1470e:	7e b5                	jle    146c5 <main+0x23a>
   14710:	0f b6 05 21 7a 00 00 	movzbl 0x7a21(%rip),%eax        # 1c138 <g_207>
   14717:	48 0f be c0          	movsbq %al,%rax
   1471b:	8b 55 fc             	mov    -0x4(%rbp),%edx
   1471e:	48 8d 35 70 47 00 00 	lea    0x4770(%rip),%rsi        # 18e95 <g_2177+0xe39>
   14725:	48 89 c7             	mov    %rax,%rdi
   14728:	e8 c6 8f ff ff       	callq  d6f3 <transparent_crc>
   1472d:	48 8b 05 04 7a 00 00 	mov    0x7a04(%rip),%rax        # 1c138 <g_207>
   14734:	48 c1 e0 19          	shl    $0x19,%rax
   14738:	48 c1 f8 21          	sar    $0x21,%rax
   1473c:	48 98                	cltq   
   1473e:	8b 55 fc             	mov    -0x4(%rbp),%edx
   14741:	48 8d 35 56 47 00 00 	lea    0x4756(%rip),%rsi        # 18e9e <g_2177+0xe42>
   14748:	48 89 c7             	mov    %rax,%rdi
   1474b:	e8 a3 8f ff ff       	callq  d6f3 <transparent_crc>
   14750:	0f b6 05 e6 79 00 00 	movzbl 0x79e6(%rip),%eax        # 1c13d <g_207+0x5>
   14757:	48 0f be c0          	movsbq %al,%rax
   1475b:	8b 55 fc             	mov    -0x4(%rbp),%edx
   1475e:	48 8d 35 42 47 00 00 	lea    0x4742(%rip),%rsi        # 18ea7 <g_2177+0xe4b>
   14765:	48 89 c7             	mov    %rax,%rdi
   14768:	e8 86 8f ff ff       	callq  d6f3 <transparent_crc>
   1476d:	0f b7 05 ca 79 00 00 	movzwl 0x79ca(%rip),%eax        # 1c13e <g_207+0x6>
   14774:	0f b6 15 c5 79 00 00 	movzbl 0x79c5(%rip),%edx        # 1c140 <g_207+0x8>
   1477b:	83 e2 7f             	and    $0x7f,%edx
   1477e:	48 c1 e2 10          	shl    $0x10,%rdx
   14782:	48 09 d0             	or     %rdx,%rax
   14785:	89 c1                	mov    %eax,%ecx
   14787:	8b 45 fc             	mov    -0x4(%rbp),%eax
   1478a:	89 c2                	mov    %eax,%edx
   1478c:	48 8d 35 1d 47 00 00 	lea    0x471d(%rip),%rsi        # 18eb0 <g_2177+0xe54>
   14793:	48 89 cf             	mov    %rcx,%rdi
   14796:	e8 58 8f ff ff       	callq  d6f3 <transparent_crc>
   1479b:	0f b7 05 9e 79 00 00 	movzwl 0x799e(%rip),%eax        # 1c140 <g_207+0x8>
   147a2:	c1 e0 07             	shl    $0x7,%eax
   147a5:	66 c1 f8 0e          	sar    $0xe,%ax
   147a9:	48 0f be c0          	movsbq %al,%rax
   147ad:	8b 55 fc             	mov    -0x4(%rbp),%edx
   147b0:	48 8d 35 02 47 00 00 	lea    0x4702(%rip),%rsi        # 18eb9 <g_2177+0xe5d>
   147b7:	48 89 c7             	mov    %rax,%rdi
   147ba:	e8 34 8f ff ff       	callq  d6f3 <transparent_crc>
   147bf:	8b 05 7b 79 00 00    	mov    0x797b(%rip),%eax        # 1c140 <g_207+0x8>
   147c5:	c1 e8 09             	shr    $0x9,%eax
   147c8:	80 e4 ff             	and    $0xff,%ah
   147cb:	0f b6 c0             	movzbl %al,%eax
   147ce:	8b 55 fc             	mov    -0x4(%rbp),%edx
   147d1:	48 8d 35 ea 46 00 00 	lea    0x46ea(%rip),%rsi        # 18ec2 <g_2177+0xe66>
   147d8:	48 89 c7             	mov    %rax,%rdi
   147db:	e8 13 8f ff ff       	callq  d6f3 <transparent_crc>
   147e0:	48 8b 05 59 79 00 00 	mov    0x7959(%rip),%rax        # 1c140 <g_207+0x8>
   147e7:	c1 e0 04             	shl    $0x4,%eax
   147ea:	c1 f8 15             	sar    $0x15,%eax
   147ed:	48 0f bf c0          	movswq %ax,%rax
   147f1:	8b 55 fc             	mov    -0x4(%rbp),%edx
   147f4:	48 8d 35 d0 46 00 00 	lea    0x46d0(%rip),%rsi        # 18ecb <g_2177+0xe6f>
   147fb:	48 89 c7             	mov    %rax,%rdi
   147fe:	e8 f0 8e ff ff       	callq  d6f3 <transparent_crc>
   14803:	0f b7 05 3a 79 00 00 	movzwl 0x793a(%rip),%eax        # 1c144 <g_214>
   1480a:	0f b7 c0             	movzwl %ax,%eax
   1480d:	8b 55 fc             	mov    -0x4(%rbp),%edx
   14810:	48 8d 35 bd 46 00 00 	lea    0x46bd(%rip),%rsi        # 18ed4 <g_2177+0xe78>
   14817:	48 89 c7             	mov    %rax,%rdi
   1481a:	e8 d4 8e ff ff       	callq  d6f3 <transparent_crc>
   1481f:	b8 04 00 00 00       	mov    $0x4,%eax
   14824:	48 98                	cltq   
   14826:	8b 55 fc             	mov    -0x4(%rbp),%edx
   14829:	48 8d 35 aa 46 00 00 	lea    0x46aa(%rip),%rsi        # 18eda <g_2177+0xe7e>
   14830:	48 89 c7             	mov    %rax,%rdi
   14833:	e8 bb 8e ff ff       	callq  d6f3 <transparent_crc>
   14838:	c7 45 f0 00 00 00 00 	movl   $0x0,-0x10(%rbp)
   1483f:	eb 4f                	jmp    14890 <main+0x405>
   14841:	8b 45 f0             	mov    -0x10(%rbp),%eax
   14844:	48 98                	cltq   
   14846:	48 8d 14 c5 00 00 00 	lea    0x0(,%rax,8),%rdx
   1484d:	00 
   1484e:	48 8d 05 0b 79 00 00 	lea    0x790b(%rip),%rax        # 1c160 <g_225>
   14855:	48 8b 04 02          	mov    (%rdx,%rax,1),%rax
   14859:	48 89 c1             	mov    %rax,%rcx
   1485c:	8b 45 fc             	mov    -0x4(%rbp),%eax
   1485f:	89 c2                	mov    %eax,%edx
   14861:	48 8d 35 78 46 00 00 	lea    0x4678(%rip),%rsi        # 18ee0 <g_2177+0xe84>
   14868:	48 89 cf             	mov    %rcx,%rdi
   1486b:	e8 83 8e ff ff       	callq  d6f3 <transparent_crc>
   14870:	83 7d fc 00          	cmpl   $0x0,-0x4(%rbp)
   14874:	74 16                	je     1488c <main+0x401>
   14876:	8b 45 f0             	mov    -0x10(%rbp),%eax
   14879:	89 c6                	mov    %eax,%esi
   1487b:	48 8d 3d 05 46 00 00 	lea    0x4605(%rip),%rdi        # 18e87 <g_2177+0xe2b>
   14882:	b8 00 00 00 00       	mov    $0x0,%eax
   14887:	e8 f4 77 ff ff       	callq  c080 <printf@plt>
   1488c:	83 45 f0 01          	addl   $0x1,-0x10(%rbp)
   14890:	83 7d f0 04          	cmpl   $0x4,-0x10(%rbp)
   14894:	7e ab                	jle    14841 <main+0x3b6>
   14896:	c7 45 f0 00 00 00 00 	movl   $0x0,-0x10(%rbp)
   1489d:	eb 6d                	jmp    1490c <main+0x481>
   1489f:	c7 45 f4 00 00 00 00 	movl   $0x0,-0xc(%rbp)
   148a6:	eb 5a                	jmp    14902 <main+0x477>
   148a8:	8b 45 f4             	mov    -0xc(%rbp),%eax
   148ab:	48 98                	cltq   
   148ad:	8b 55 f0             	mov    -0x10(%rbp),%edx
   148b0:	48 63 d2             	movslq %edx,%rdx
   148b3:	48 c1 e2 03          	shl    $0x3,%rdx
   148b7:	48 01 d0             	add    %rdx,%rax
   148ba:	48 8d 14 c5 00 00 00 	lea    0x0(,%rax,8),%rdx
   148c1:	00 
   148c2:	48 8d 05 d7 78 00 00 	lea    0x78d7(%rip),%rax        # 1c1a0 <g_230>
   148c9:	48 8b 04 02          	mov    (%rdx,%rax,1),%rax
   148cd:	8b 55 fc             	mov    -0x4(%rbp),%edx
   148d0:	48 8d 35 12 46 00 00 	lea    0x4612(%rip),%rsi        # 18ee9 <g_2177+0xe8d>
   148d7:	48 89 c7             	mov    %rax,%rdi
   148da:	e8 14 8e ff ff       	callq  d6f3 <transparent_crc>
   148df:	83 7d fc 00          	cmpl   $0x0,-0x4(%rbp)
   148e3:	74 19                	je     148fe <main+0x473>
   148e5:	8b 55 f4             	mov    -0xc(%rbp),%edx
   148e8:	8b 45 f0             	mov    -0x10(%rbp),%eax
   148eb:	89 c6                	mov    %eax,%esi
   148ed:	48 8d 3d 01 46 00 00 	lea    0x4601(%rip),%rdi        # 18ef5 <g_2177+0xe99>
   148f4:	b8 00 00 00 00       	mov    $0x0,%eax
   148f9:	e8 82 77 ff ff       	callq  c080 <printf@plt>
   148fe:	83 45 f4 01          	addl   $0x1,-0xc(%rbp)
   14902:	83 7d f4 07          	cmpl   $0x7,-0xc(%rbp)
   14906:	7e a0                	jle    148a8 <main+0x41d>
   14908:	83 45 f0 01          	addl   $0x1,-0x10(%rbp)
   1490c:	83 7d f0 01          	cmpl   $0x1,-0x10(%rbp)
   14910:	7e 8d                	jle    1489f <main+0x414>
   14912:	c7 45 f0 00 00 00 00 	movl   $0x0,-0x10(%rbp)
   14919:	e9 9e 00 00 00       	jmpq   149bc <main+0x531>
   1491e:	c7 45 f4 00 00 00 00 	movl   $0x0,-0xc(%rbp)
   14925:	e9 84 00 00 00       	jmpq   149ae <main+0x523>
   1492a:	c7 45 f8 00 00 00 00 	movl   $0x0,-0x8(%rbp)
   14931:	eb 71                	jmp    149a4 <main+0x519>
   14933:	8b 45 f8             	mov    -0x8(%rbp),%eax
   14936:	48 63 c8             	movslq %eax,%rcx
   14939:	8b 45 f0             	mov    -0x10(%rbp),%eax
   1493c:	48 63 d0             	movslq %eax,%rdx
   1493f:	8b 45 f4             	mov    -0xc(%rbp),%eax
   14942:	48 63 f0             	movslq %eax,%rsi
   14945:	48 89 d0             	mov    %rdx,%rax
   14948:	48 01 c0             	add    %rax,%rax
   1494b:	48 01 d0             	add    %rdx,%rax
   1494e:	48 01 f0             	add    %rsi,%rax
   14951:	48 c1 e0 03          	shl    $0x3,%rax
   14955:	48 01 c8             	add    %rcx,%rax
   14958:	48 8d 14 85 00 00 00 	lea    0x0(,%rax,4),%rdx
   1495f:	00 
   14960:	48 8d 05 b9 78 00 00 	lea    0x78b9(%rip),%rax        # 1c220 <g_244>
   14967:	8b 04 02             	mov    (%rdx,%rax,1),%eax
   1496a:	48 98                	cltq   
   1496c:	8b 55 fc             	mov    -0x4(%rbp),%edx
   1496f:	48 8d 35 91 45 00 00 	lea    0x4591(%rip),%rsi        # 18f07 <g_2177+0xeab>
   14976:	48 89 c7             	mov    %rax,%rdi
   14979:	e8 75 8d ff ff       	callq  d6f3 <transparent_crc>
   1497e:	83 7d fc 00          	cmpl   $0x0,-0x4(%rbp)
   14982:	74 1c                	je     149a0 <main+0x515>
   14984:	8b 4d f8             	mov    -0x8(%rbp),%ecx
   14987:	8b 55 f4             	mov    -0xc(%rbp),%edx
   1498a:	8b 45 f0             	mov    -0x10(%rbp),%eax
   1498d:	89 c6                	mov    %eax,%esi
   1498f:	48 8d 3d b4 44 00 00 	lea    0x44b4(%rip),%rdi        # 18e4a <g_2177+0xdee>
   14996:	b8 00 00 00 00       	mov    $0x0,%eax
   1499b:	e8 e0 76 ff ff       	callq  c080 <printf@plt>
   149a0:	83 45 f8 01          	addl   $0x1,-0x8(%rbp)
   149a4:	83 7d f8 07          	cmpl   $0x7,-0x8(%rbp)
   149a8:	7e 89                	jle    14933 <main+0x4a8>
   149aa:	83 45 f4 01          	addl   $0x1,-0xc(%rbp)
   149ae:	83 7d f4 02          	cmpl   $0x2,-0xc(%rbp)
   149b2:	0f 8e 72 ff ff ff    	jle    1492a <main+0x49f>
   149b8:	83 45 f0 01          	addl   $0x1,-0x10(%rbp)
   149bc:	83 7d f0 09          	cmpl   $0x9,-0x10(%rbp)
   149c0:	0f 8e 58 ff ff ff    	jle    1491e <main+0x493>
   149c6:	0f b6 05 13 7c 00 00 	movzbl 0x7c13(%rip),%eax        # 1c5e0 <g_322>
   149cd:	48 0f be c0          	movsbq %al,%rax
   149d1:	8b 55 fc             	mov    -0x4(%rbp),%edx
   149d4:	48 8d 35 3b 45 00 00 	lea    0x453b(%rip),%rsi        # 18f16 <g_2177+0xeba>
   149db:	48 89 c7             	mov    %rax,%rdi
   149de:	e8 10 8d ff ff       	callq  d6f3 <transparent_crc>
   149e3:	48 8b 05 f6 7b 00 00 	mov    0x7bf6(%rip),%rax        # 1c5e0 <g_322>
   149ea:	48 c1 e0 19          	shl    $0x19,%rax
   149ee:	48 c1 f8 21          	sar    $0x21,%rax
   149f2:	48 98                	cltq   
   149f4:	8b 55 fc             	mov    -0x4(%rbp),%edx
   149f7:	48 8d 35 21 45 00 00 	lea    0x4521(%rip),%rsi        # 18f1f <g_2177+0xec3>
   149fe:	48 89 c7             	mov    %rax,%rdi
   14a01:	e8 ed 8c ff ff       	callq  d6f3 <transparent_crc>
   14a06:	0f b6 05 d8 7b 00 00 	movzbl 0x7bd8(%rip),%eax        # 1c5e5 <g_322+0x5>
   14a0d:	48 0f be c0          	movsbq %al,%rax
   14a11:	8b 55 fc             	mov    -0x4(%rbp),%edx
   14a14:	48 8d 35 0d 45 00 00 	lea    0x450d(%rip),%rsi        # 18f28 <g_2177+0xecc>
   14a1b:	48 89 c7             	mov    %rax,%rdi
   14a1e:	e8 d0 8c ff ff       	callq  d6f3 <transparent_crc>
   14a23:	0f b7 05 bc 7b 00 00 	movzwl 0x7bbc(%rip),%eax        # 1c5e6 <g_322+0x6>
   14a2a:	0f b6 15 b7 7b 00 00 	movzbl 0x7bb7(%rip),%edx        # 1c5e8 <g_322+0x8>
   14a31:	83 e2 7f             	and    $0x7f,%edx
   14a34:	48 c1 e2 10          	shl    $0x10,%rdx
   14a38:	48 09 d0             	or     %rdx,%rax
   14a3b:	89 c1                	mov    %eax,%ecx
   14a3d:	8b 45 fc             	mov    -0x4(%rbp),%eax
   14a40:	89 c2                	mov    %eax,%edx
   14a42:	48 8d 35 e8 44 00 00 	lea    0x44e8(%rip),%rsi        # 18f31 <g_2177+0xed5>
   14a49:	48 89 cf             	mov    %rcx,%rdi
   14a4c:	e8 a2 8c ff ff       	callq  d6f3 <transparent_crc>
   14a51:	0f b7 05 90 7b 00 00 	movzwl 0x7b90(%rip),%eax        # 1c5e8 <g_322+0x8>
   14a58:	c1 e0 07             	shl    $0x7,%eax
   14a5b:	66 c1 f8 0e          	sar    $0xe,%ax
   14a5f:	48 0f be c0          	movsbq %al,%rax
   14a63:	8b 55 fc             	mov    -0x4(%rbp),%edx
   14a66:	48 8d 35 cd 44 00 00 	lea    0x44cd(%rip),%rsi        # 18f3a <g_2177+0xede>
   14a6d:	48 89 c7             	mov    %rax,%rdi
   14a70:	e8 7e 8c ff ff       	callq  d6f3 <transparent_crc>
   14a75:	8b 05 6d 7b 00 00    	mov    0x7b6d(%rip),%eax        # 1c5e8 <g_322+0x8>
   14a7b:	c1 e8 09             	shr    $0x9,%eax
   14a7e:	80 e4 ff             	and    $0xff,%ah
   14a81:	0f b6 c0             	movzbl %al,%eax
   14a84:	8b 55 fc             	mov    -0x4(%rbp),%edx
   14a87:	48 8d 35 b5 44 00 00 	lea    0x44b5(%rip),%rsi        # 18f43 <g_2177+0xee7>
   14a8e:	48 89 c7             	mov    %rax,%rdi
   14a91:	e8 5d 8c ff ff       	callq  d6f3 <transparent_crc>
   14a96:	48 8b 05 4b 7b 00 00 	mov    0x7b4b(%rip),%rax        # 1c5e8 <g_322+0x8>
   14a9d:	c1 e0 04             	shl    $0x4,%eax
   14aa0:	c1 f8 15             	sar    $0x15,%eax
   14aa3:	48 0f bf c0          	movswq %ax,%rax
   14aa7:	8b 55 fc             	mov    -0x4(%rbp),%edx
   14aaa:	48 8d 35 9b 44 00 00 	lea    0x449b(%rip),%rsi        # 18f4c <g_2177+0xef0>
   14ab1:	48 89 c7             	mov    %rax,%rdi
   14ab4:	e8 3a 8c ff ff       	callq  d6f3 <transparent_crc>
   14ab9:	0f b6 05 30 7b 00 00 	movzbl 0x7b30(%rip),%eax        # 1c5f0 <g_413>
   14ac0:	48 0f be c0          	movsbq %al,%rax
   14ac4:	8b 55 fc             	mov    -0x4(%rbp),%edx
   14ac7:	48 8d 35 87 44 00 00 	lea    0x4487(%rip),%rsi        # 18f55 <g_2177+0xef9>
   14ace:	48 89 c7             	mov    %rax,%rdi
   14ad1:	e8 1d 8c ff ff       	callq  d6f3 <transparent_crc>
   14ad6:	48 8b 05 13 7b 00 00 	mov    0x7b13(%rip),%rax        # 1c5f0 <g_413>
   14add:	48 c1 e0 19          	shl    $0x19,%rax
   14ae1:	48 c1 f8 21          	sar    $0x21,%rax
   14ae5:	48 98                	cltq   
   14ae7:	8b 55 fc             	mov    -0x4(%rbp),%edx
   14aea:	48 8d 35 6d 44 00 00 	lea    0x446d(%rip),%rsi        # 18f5e <g_2177+0xf02>
   14af1:	48 89 c7             	mov    %rax,%rdi
   14af4:	e8 fa 8b ff ff       	callq  d6f3 <transparent_crc>
   14af9:	0f b6 05 f5 7a 00 00 	movzbl 0x7af5(%rip),%eax        # 1c5f5 <g_413+0x5>
   14b00:	48 0f be c0          	movsbq %al,%rax
   14b04:	8b 55 fc             	mov    -0x4(%rbp),%edx
   14b07:	48 8d 35 59 44 00 00 	lea    0x4459(%rip),%rsi        # 18f67 <g_2177+0xf0b>
   14b0e:	48 89 c7             	mov    %rax,%rdi
   14b11:	e8 dd 8b ff ff       	callq  d6f3 <transparent_crc>
   14b16:	0f b7 05 d9 7a 00 00 	movzwl 0x7ad9(%rip),%eax        # 1c5f6 <g_413+0x6>
   14b1d:	0f b6 15 d4 7a 00 00 	movzbl 0x7ad4(%rip),%edx        # 1c5f8 <g_413+0x8>
   14b24:	83 e2 7f             	and    $0x7f,%edx
   14b27:	48 c1 e2 10          	shl    $0x10,%rdx
   14b2b:	48 09 d0             	or     %rdx,%rax
   14b2e:	89 c1                	mov    %eax,%ecx
   14b30:	8b 45 fc             	mov    -0x4(%rbp),%eax
   14b33:	89 c2                	mov    %eax,%edx
   14b35:	48 8d 35 34 44 00 00 	lea    0x4434(%rip),%rsi        # 18f70 <g_2177+0xf14>
   14b3c:	48 89 cf             	mov    %rcx,%rdi
   14b3f:	e8 af 8b ff ff       	callq  d6f3 <transparent_crc>
   14b44:	0f b7 05 ad 7a 00 00 	movzwl 0x7aad(%rip),%eax        # 1c5f8 <g_413+0x8>
   14b4b:	c1 e0 07             	shl    $0x7,%eax
   14b4e:	66 c1 f8 0e          	sar    $0xe,%ax
   14b52:	48 0f be c0          	movsbq %al,%rax
   14b56:	8b 55 fc             	mov    -0x4(%rbp),%edx
   14b59:	48 8d 35 19 44 00 00 	lea    0x4419(%rip),%rsi        # 18f79 <g_2177+0xf1d>
   14b60:	48 89 c7             	mov    %rax,%rdi
   14b63:	e8 8b 8b ff ff       	callq  d6f3 <transparent_crc>
   14b68:	8b 05 8a 7a 00 00    	mov    0x7a8a(%rip),%eax        # 1c5f8 <g_413+0x8>
   14b6e:	c1 e8 09             	shr    $0x9,%eax
   14b71:	80 e4 ff             	and    $0xff,%ah
   14b74:	0f b6 c0             	movzbl %al,%eax
   14b77:	8b 55 fc             	mov    -0x4(%rbp),%edx
   14b7a:	48 8d 35 01 44 00 00 	lea    0x4401(%rip),%rsi        # 18f82 <g_2177+0xf26>
   14b81:	48 89 c7             	mov    %rax,%rdi
   14b84:	e8 6a 8b ff ff       	callq  d6f3 <transparent_crc>
   14b89:	48 8b 05 68 7a 00 00 	mov    0x7a68(%rip),%rax        # 1c5f8 <g_413+0x8>
   14b90:	c1 e0 04             	shl    $0x4,%eax
   14b93:	c1 f8 15             	sar    $0x15,%eax
   14b96:	48 0f bf c0          	movswq %ax,%rax
   14b9a:	8b 55 fc             	mov    -0x4(%rbp),%edx
   14b9d:	48 8d 35 e7 43 00 00 	lea    0x43e7(%rip),%rsi        # 18f8b <g_2177+0xf2f>
   14ba4:	48 89 c7             	mov    %rax,%rdi
   14ba7:	e8 47 8b ff ff       	callq  d6f3 <transparent_crc>
   14bac:	8b 05 4a 7a 00 00    	mov    0x7a4a(%rip),%eax        # 1c5fc <g_445>
   14bb2:	89 c1                	mov    %eax,%ecx
   14bb4:	8b 45 fc             	mov    -0x4(%rbp),%eax
   14bb7:	89 c2                	mov    %eax,%edx
   14bb9:	48 8d 35 d4 43 00 00 	lea    0x43d4(%rip),%rsi        # 18f94 <g_2177+0xf38>
   14bc0:	48 89 cf             	mov    %rcx,%rdi
   14bc3:	e8 2b 8b ff ff       	callq  d6f3 <transparent_crc>
   14bc8:	c7 45 f0 00 00 00 00 	movl   $0x0,-0x10(%rbp)
   14bcf:	e9 9c 00 00 00       	jmpq   14c70 <main+0x7e5>
   14bd4:	c7 45 f4 00 00 00 00 	movl   $0x0,-0xc(%rbp)
   14bdb:	e9 82 00 00 00       	jmpq   14c62 <main+0x7d7>
   14be0:	c7 45 f8 00 00 00 00 	movl   $0x0,-0x8(%rbp)
   14be7:	eb 6f                	jmp    14c58 <main+0x7cd>
   14be9:	8b 45 f8             	mov    -0x8(%rbp),%eax
   14bec:	48 98                	cltq   
   14bee:	8b 55 f0             	mov    -0x10(%rbp),%edx
   14bf1:	48 63 ca             	movslq %edx,%rcx
   14bf4:	8b 55 f4             	mov    -0xc(%rbp),%edx
   14bf7:	48 63 d2             	movslq %edx,%rdx
   14bfa:	48 c1 e1 03          	shl    $0x3,%rcx
   14bfe:	48 01 ca             	add    %rcx,%rdx
   14c01:	48 c1 e2 03          	shl    $0x3,%rdx
   14c05:	48 01 d0             	add    %rdx,%rax
   14c08:	48 8d 14 c5 00 00 00 	lea    0x0(,%rax,8),%rdx
   14c0f:	00 
   14c10:	48 8d 05 e9 79 00 00 	lea    0x79e9(%rip),%rax        # 1c600 <g_463>
   14c17:	48 8b 04 02          	mov    (%rdx,%rax,1),%rax
   14c1b:	48 89 c1             	mov    %rax,%rcx
   14c1e:	8b 45 fc             	mov    -0x4(%rbp),%eax
   14c21:	89 c2                	mov    %eax,%edx
   14c23:	48 8d 35 70 43 00 00 	lea    0x4370(%rip),%rsi        # 18f9a <g_2177+0xf3e>
   14c2a:	48 89 cf             	mov    %rcx,%rdi
   14c2d:	e8 c1 8a ff ff       	callq  d6f3 <transparent_crc>
   14c32:	83 7d fc 00          	cmpl   $0x0,-0x4(%rbp)
   14c36:	74 1c                	je     14c54 <main+0x7c9>
   14c38:	8b 4d f8             	mov    -0x8(%rbp),%ecx
   14c3b:	8b 55 f4             	mov    -0xc(%rbp),%edx
   14c3e:	8b 45 f0             	mov    -0x10(%rbp),%eax
   14c41:	89 c6                	mov    %eax,%esi
   14c43:	48 8d 3d 00 42 00 00 	lea    0x4200(%rip),%rdi        # 18e4a <g_2177+0xdee>
   14c4a:	b8 00 00 00 00       	mov    $0x0,%eax
   14c4f:	e8 2c 74 ff ff       	callq  c080 <printf@plt>
   14c54:	83 45 f8 01          	addl   $0x1,-0x8(%rbp)
   14c58:	83 7d f8 07          	cmpl   $0x7,-0x8(%rbp)
   14c5c:	7e 8b                	jle    14be9 <main+0x75e>
   14c5e:	83 45 f4 01          	addl   $0x1,-0xc(%rbp)
   14c62:	83 7d f4 07          	cmpl   $0x7,-0xc(%rbp)
   14c66:	0f 8e 74 ff ff ff    	jle    14be0 <main+0x755>
   14c6c:	83 45 f0 01          	addl   $0x1,-0x10(%rbp)
   14c70:	83 7d f0 00          	cmpl   $0x0,-0x10(%rbp)
   14c74:	0f 8e 5a ff ff ff    	jle    14bd4 <main+0x749>
   14c7a:	8b 05 80 7b 00 00    	mov    0x7b80(%rip),%eax        # 1c800 <g_472>
   14c80:	48 98                	cltq   
   14c82:	8b 55 fc             	mov    -0x4(%rbp),%edx
   14c85:	48 8d 35 1d 43 00 00 	lea    0x431d(%rip),%rsi        # 18fa9 <g_2177+0xf4d>
   14c8c:	48 89 c7             	mov    %rax,%rdi
   14c8f:	e8 5f 8a ff ff       	callq  d6f3 <transparent_crc>
   14c94:	c7 45 f0 00 00 00 00 	movl   $0x0,-0x10(%rbp)
   14c9b:	e9 7f 03 00 00       	jmpq   1501f <main+0xb94>
   14ca0:	c7 45 f4 00 00 00 00 	movl   $0x0,-0xc(%rbp)
   14ca7:	e9 65 03 00 00       	jmpq   15011 <main+0xb86>
   14cac:	c7 45 f8 00 00 00 00 	movl   $0x0,-0x8(%rbp)
   14cb3:	e9 4b 03 00 00       	jmpq   15003 <main+0xb78>
   14cb8:	8b 45 f8             	mov    -0x8(%rbp),%eax
   14cbb:	48 98                	cltq   
   14cbd:	8b 55 f4             	mov    -0xc(%rbp),%edx
   14cc0:	48 63 ca             	movslq %edx,%rcx
   14cc3:	8b 55 f0             	mov    -0x10(%rbp),%edx
   14cc6:	48 63 f2             	movslq %edx,%rsi
   14cc9:	48 89 c2             	mov    %rax,%rdx
   14ccc:	48 01 d2             	add    %rdx,%rdx
   14ccf:	48 01 c2             	add    %rax,%rdx
   14cd2:	48 8d 04 95 00 00 00 	lea    0x0(,%rdx,4),%rax
   14cd9:	00 
   14cda:	48 89 c2             	mov    %rax,%rdx
   14cdd:	48 89 c8             	mov    %rcx,%rax
   14ce0:	48 c1 e0 02          	shl    $0x2,%rax
   14ce4:	48 01 c8             	add    %rcx,%rax
   14ce7:	48 c1 e0 02          	shl    $0x2,%rax
   14ceb:	48 01 c8             	add    %rcx,%rax
   14cee:	48 c1 e0 02          	shl    $0x2,%rax
   14cf2:	48 01 c2             	add    %rax,%rdx
   14cf5:	48 69 c6 a4 01 00 00 	imul   $0x1a4,%rsi,%rax
   14cfc:	48 01 c2             	add    %rax,%rdx
   14cff:	48 8d 05 1a 7b 00 00 	lea    0x7b1a(%rip),%rax        # 1c820 <g_517>
   14d06:	48 01 d0             	add    %rdx,%rax
   14d09:	0f b6 00             	movzbl (%rax),%eax
   14d0c:	48 0f be c0          	movsbq %al,%rax
   14d10:	8b 55 fc             	mov    -0x4(%rbp),%edx
   14d13:	48 8d 35 95 42 00 00 	lea    0x4295(%rip),%rsi        # 18faf <g_2177+0xf53>
   14d1a:	48 89 c7             	mov    %rax,%rdi
   14d1d:	e8 d1 89 ff ff       	callq  d6f3 <transparent_crc>
   14d22:	8b 45 f8             	mov    -0x8(%rbp),%eax
   14d25:	48 98                	cltq   
   14d27:	8b 55 f4             	mov    -0xc(%rbp),%edx
   14d2a:	48 63 ca             	movslq %edx,%rcx
   14d2d:	8b 55 f0             	mov    -0x10(%rbp),%edx
   14d30:	48 63 f2             	movslq %edx,%rsi
   14d33:	48 89 c2             	mov    %rax,%rdx
   14d36:	48 01 d2             	add    %rdx,%rdx
   14d39:	48 01 c2             	add    %rax,%rdx
   14d3c:	48 8d 04 95 00 00 00 	lea    0x0(,%rdx,4),%rax
   14d43:	00 
   14d44:	48 89 c2             	mov    %rax,%rdx
   14d47:	48 89 c8             	mov    %rcx,%rax
   14d4a:	48 c1 e0 02          	shl    $0x2,%rax
   14d4e:	48 01 c8             	add    %rcx,%rax
   14d51:	48 c1 e0 02          	shl    $0x2,%rax
   14d55:	48 01 c8             	add    %rcx,%rax
   14d58:	48 c1 e0 02          	shl    $0x2,%rax
   14d5c:	48 01 c2             	add    %rax,%rdx
   14d5f:	48 69 c6 a4 01 00 00 	imul   $0x1a4,%rsi,%rax
   14d66:	48 01 c2             	add    %rax,%rdx
   14d69:	48 8d 05 b0 7a 00 00 	lea    0x7ab0(%rip),%rax        # 1c820 <g_517>
   14d70:	48 01 d0             	add    %rdx,%rax
   14d73:	8b 10                	mov    (%rax),%edx
   14d75:	c1 ea 08             	shr    $0x8,%edx
   14d78:	89 d2                	mov    %edx,%edx
   14d7a:	8b 40 04             	mov    0x4(%rax),%eax
   14d7d:	89 c0                	mov    %eax,%eax
   14d7f:	83 e0 7f             	and    $0x7f,%eax
   14d82:	48 c1 e0 18          	shl    $0x18,%rax
   14d86:	48 09 d0             	or     %rdx,%rax
   14d89:	48 c1 e0 21          	shl    $0x21,%rax
   14d8d:	48 c1 f8 21          	sar    $0x21,%rax
   14d91:	48 98                	cltq   
   14d93:	8b 55 fc             	mov    -0x4(%rbp),%edx
   14d96:	48 8d 35 24 42 00 00 	lea    0x4224(%rip),%rsi        # 18fc1 <g_2177+0xf65>
   14d9d:	48 89 c7             	mov    %rax,%rdi
   14da0:	e8 4e 89 ff ff       	callq  d6f3 <transparent_crc>
   14da5:	8b 45 f8             	mov    -0x8(%rbp),%eax
   14da8:	48 98                	cltq   
   14daa:	8b 55 f4             	mov    -0xc(%rbp),%edx
   14dad:	48 63 ca             	movslq %edx,%rcx
   14db0:	8b 55 f0             	mov    -0x10(%rbp),%edx
   14db3:	48 63 f2             	movslq %edx,%rsi
   14db6:	48 89 c2             	mov    %rax,%rdx
   14db9:	48 01 d2             	add    %rdx,%rdx
   14dbc:	48 01 c2             	add    %rax,%rdx
   14dbf:	48 8d 04 95 00 00 00 	lea    0x0(,%rdx,4),%rax
   14dc6:	00 
   14dc7:	48 89 c2             	mov    %rax,%rdx
   14dca:	48 89 c8             	mov    %rcx,%rax
   14dcd:	48 c1 e0 02          	shl    $0x2,%rax
   14dd1:	48 01 c8             	add    %rcx,%rax
   14dd4:	48 c1 e0 02          	shl    $0x2,%rax
   14dd8:	48 01 c8             	add    %rcx,%rax
   14ddb:	48 c1 e0 02          	shl    $0x2,%rax
   14ddf:	48 01 c2             	add    %rax,%rdx
   14de2:	48 69 c6 a4 01 00 00 	imul   $0x1a4,%rsi,%rax
   14de9:	48 01 c2             	add    %rax,%rdx
   14dec:	48 8d 05 32 7a 00 00 	lea    0x7a32(%rip),%rax        # 1c825 <g_517+0x5>
   14df3:	48 01 d0             	add    %rdx,%rax
   14df6:	0f b6 00             	movzbl (%rax),%eax
   14df9:	48 0f be c0          	movsbq %al,%rax
   14dfd:	8b 55 fc             	mov    -0x4(%rbp),%edx
   14e00:	48 8d 35 cc 41 00 00 	lea    0x41cc(%rip),%rsi        # 18fd3 <g_2177+0xf77>
   14e07:	48 89 c7             	mov    %rax,%rdi
   14e0a:	e8 e4 88 ff ff       	callq  d6f3 <transparent_crc>
   14e0f:	8b 45 f8             	mov    -0x8(%rbp),%eax
   14e12:	48 98                	cltq   
   14e14:	8b 55 f4             	mov    -0xc(%rbp),%edx
   14e17:	48 63 ca             	movslq %edx,%rcx
   14e1a:	8b 55 f0             	mov    -0x10(%rbp),%edx
   14e1d:	48 63 f2             	movslq %edx,%rsi
   14e20:	48 89 c2             	mov    %rax,%rdx
   14e23:	48 01 d2             	add    %rdx,%rdx
   14e26:	48 01 c2             	add    %rax,%rdx
   14e29:	48 8d 04 95 00 00 00 	lea    0x0(,%rdx,4),%rax
   14e30:	00 
   14e31:	48 89 c2             	mov    %rax,%rdx
   14e34:	48 89 c8             	mov    %rcx,%rax
   14e37:	48 c1 e0 02          	shl    $0x2,%rax
   14e3b:	48 01 c8             	add    %rcx,%rax
   14e3e:	48 c1 e0 02          	shl    $0x2,%rax
   14e42:	48 01 c8             	add    %rcx,%rax
   14e45:	48 c1 e0 02          	shl    $0x2,%rax
   14e49:	48 01 c2             	add    %rax,%rdx
   14e4c:	48 69 c6 a4 01 00 00 	imul   $0x1a4,%rsi,%rax
   14e53:	48 01 c2             	add    %rax,%rdx
   14e56:	48 8d 05 c3 79 00 00 	lea    0x79c3(%rip),%rax        # 1c820 <g_517>
   14e5d:	48 01 d0             	add    %rdx,%rax
   14e60:	8b 50 04             	mov    0x4(%rax),%edx
   14e63:	c1 ea 10             	shr    $0x10,%edx
   14e66:	89 d2                	mov    %edx,%edx
   14e68:	8b 40 08             	mov    0x8(%rax),%eax
   14e6b:	89 c0                	mov    %eax,%eax
   14e6d:	83 e0 7f             	and    $0x7f,%eax
   14e70:	48 c1 e0 10          	shl    $0x10,%rax
   14e74:	48 09 d0             	or     %rdx,%rax
   14e77:	89 c1                	mov    %eax,%ecx
   14e79:	8b 45 fc             	mov    -0x4(%rbp),%eax
   14e7c:	89 c2                	mov    %eax,%edx
   14e7e:	48 8d 35 60 41 00 00 	lea    0x4160(%rip),%rsi        # 18fe5 <g_2177+0xf89>
   14e85:	48 89 cf             	mov    %rcx,%rdi
   14e88:	e8 66 88 ff ff       	callq  d6f3 <transparent_crc>
   14e8d:	8b 45 f8             	mov    -0x8(%rbp),%eax
   14e90:	48 98                	cltq   
   14e92:	8b 55 f4             	mov    -0xc(%rbp),%edx
   14e95:	48 63 ca             	movslq %edx,%rcx
   14e98:	8b 55 f0             	mov    -0x10(%rbp),%edx
   14e9b:	48 63 f2             	movslq %edx,%rsi
   14e9e:	48 89 c2             	mov    %rax,%rdx
   14ea1:	48 01 d2             	add    %rdx,%rdx
   14ea4:	48 01 c2             	add    %rax,%rdx
   14ea7:	48 8d 04 95 00 00 00 	lea    0x0(,%rdx,4),%rax
   14eae:	00 
   14eaf:	48 89 c2             	mov    %rax,%rdx
   14eb2:	48 89 c8             	mov    %rcx,%rax
   14eb5:	48 c1 e0 02          	shl    $0x2,%rax
   14eb9:	48 01 c8             	add    %rcx,%rax
   14ebc:	48 c1 e0 02          	shl    $0x2,%rax
   14ec0:	48 01 c8             	add    %rcx,%rax
   14ec3:	48 c1 e0 02          	shl    $0x2,%rax
   14ec7:	48 01 c2             	add    %rax,%rdx
   14eca:	48 69 c6 a4 01 00 00 	imul   $0x1a4,%rsi,%rax
   14ed1:	48 01 c2             	add    %rax,%rdx
   14ed4:	48 8d 05 45 79 00 00 	lea    0x7945(%rip),%rax        # 1c820 <g_517>
   14edb:	48 01 d0             	add    %rdx,%rax
   14ede:	8b 40 08             	mov    0x8(%rax),%eax
   14ee1:	c1 e0 07             	shl    $0x7,%eax
   14ee4:	66 c1 f8 0e          	sar    $0xe,%ax
   14ee8:	48 0f be c0          	movsbq %al,%rax
   14eec:	8b 55 fc             	mov    -0x4(%rbp),%edx
   14eef:	48 8d 35 01 41 00 00 	lea    0x4101(%rip),%rsi        # 18ff7 <g_2177+0xf9b>
   14ef6:	48 89 c7             	mov    %rax,%rdi
   14ef9:	e8 f5 87 ff ff       	callq  d6f3 <transparent_crc>
   14efe:	8b 45 f8             	mov    -0x8(%rbp),%eax
   14f01:	48 98                	cltq   
   14f03:	8b 55 f4             	mov    -0xc(%rbp),%edx
   14f06:	48 63 ca             	movslq %edx,%rcx
   14f09:	8b 55 f0             	mov    -0x10(%rbp),%edx
   14f0c:	48 63 f2             	movslq %edx,%rsi
   14f0f:	48 89 c2             	mov    %rax,%rdx
   14f12:	48 01 d2             	add    %rdx,%rdx
   14f15:	48 01 c2             	add    %rax,%rdx
   14f18:	48 8d 04 95 00 00 00 	lea    0x0(,%rdx,4),%rax
   14f1f:	00 
   14f20:	48 89 c2             	mov    %rax,%rdx
   14f23:	48 89 c8             	mov    %rcx,%rax
   14f26:	48 c1 e0 02          	shl    $0x2,%rax
   14f2a:	48 01 c8             	add    %rcx,%rax
   14f2d:	48 c1 e0 02          	shl    $0x2,%rax
   14f31:	48 01 c8             	add    %rcx,%rax
   14f34:	48 c1 e0 02          	shl    $0x2,%rax
   14f38:	48 01 c2             	add    %rax,%rdx
   14f3b:	48 69 c6 a4 01 00 00 	imul   $0x1a4,%rsi,%rax
   14f42:	48 01 c2             	add    %rax,%rdx
   14f45:	48 8d 05 d4 78 00 00 	lea    0x78d4(%rip),%rax        # 1c820 <g_517>
   14f4c:	48 01 d0             	add    %rdx,%rax
   14f4f:	8b 40 08             	mov    0x8(%rax),%eax
   14f52:	c1 e8 09             	shr    $0x9,%eax
   14f55:	80 e4 ff             	and    $0xff,%ah
   14f58:	0f b6 c0             	movzbl %al,%eax
   14f5b:	8b 55 fc             	mov    -0x4(%rbp),%edx
   14f5e:	48 8d 35 a4 40 00 00 	lea    0x40a4(%rip),%rsi        # 19009 <g_2177+0xfad>
   14f65:	48 89 c7             	mov    %rax,%rdi
   14f68:	e8 86 87 ff ff       	callq  d6f3 <transparent_crc>
   14f6d:	8b 45 f8             	mov    -0x8(%rbp),%eax
   14f70:	48 98                	cltq   
   14f72:	8b 55 f4             	mov    -0xc(%rbp),%edx
   14f75:	48 63 ca             	movslq %edx,%rcx
   14f78:	8b 55 f0             	mov    -0x10(%rbp),%edx
   14f7b:	48 63 f2             	movslq %edx,%rsi
   14f7e:	48 89 c2             	mov    %rax,%rdx
   14f81:	48 01 d2             	add    %rdx,%rdx
   14f84:	48 01 c2             	add    %rax,%rdx
   14f87:	48 8d 04 95 00 00 00 	lea    0x0(,%rdx,4),%rax
   14f8e:	00 
   14f8f:	48 89 c2             	mov    %rax,%rdx
   14f92:	48 89 c8             	mov    %rcx,%rax
   14f95:	48 c1 e0 02          	shl    $0x2,%rax
   14f99:	48 01 c8             	add    %rcx,%rax
   14f9c:	48 c1 e0 02          	shl    $0x2,%rax
   14fa0:	48 01 c8             	add    %rcx,%rax
   14fa3:	48 c1 e0 02          	shl    $0x2,%rax
   14fa7:	48 01 c2             	add    %rax,%rdx
   14faa:	48 69 c6 a4 01 00 00 	imul   $0x1a4,%rsi,%rax
   14fb1:	48 01 c2             	add    %rax,%rdx
   14fb4:	48 8d 05 65 78 00 00 	lea    0x7865(%rip),%rax        # 1c820 <g_517>
   14fbb:	48 01 d0             	add    %rdx,%rax
   14fbe:	8b 40 08             	mov    0x8(%rax),%eax
   14fc1:	c1 e0 04             	shl    $0x4,%eax
   14fc4:	c1 f8 15             	sar    $0x15,%eax
   14fc7:	48 0f bf c0          	movswq %ax,%rax
   14fcb:	8b 55 fc             	mov    -0x4(%rbp),%edx
   14fce:	48 8d 35 46 40 00 00 	lea    0x4046(%rip),%rsi        # 1901b <g_2177+0xfbf>
   14fd5:	48 89 c7             	mov    %rax,%rdi
   14fd8:	e8 16 87 ff ff       	callq  d6f3 <transparent_crc>
   14fdd:	83 7d fc 00          	cmpl   $0x0,-0x4(%rbp)
   14fe1:	74 1c                	je     14fff <main+0xb74>
   14fe3:	8b 4d f8             	mov    -0x8(%rbp),%ecx
   14fe6:	8b 55 f4             	mov    -0xc(%rbp),%edx
   14fe9:	8b 45 f0             	mov    -0x10(%rbp),%eax
   14fec:	89 c6                	mov    %eax,%esi
   14fee:	48 8d 3d 55 3e 00 00 	lea    0x3e55(%rip),%rdi        # 18e4a <g_2177+0xdee>
   14ff5:	b8 00 00 00 00       	mov    $0x0,%eax
   14ffa:	e8 81 70 ff ff       	callq  c080 <printf@plt>
   14fff:	83 45 f8 01          	addl   $0x1,-0x8(%rbp)
   15003:	83 7d f8 06          	cmpl   $0x6,-0x8(%rbp)
   15007:	0f 8e ab fc ff ff    	jle    14cb8 <main+0x82d>
   1500d:	83 45 f4 01          	addl   $0x1,-0xc(%rbp)
   15011:	83 7d f4 04          	cmpl   $0x4,-0xc(%rbp)
   15015:	0f 8e 91 fc ff ff    	jle    14cac <main+0x821>
   1501b:	83 45 f0 01          	addl   $0x1,-0x10(%rbp)
   1501f:	83 7d f0 06          	cmpl   $0x6,-0x10(%rbp)
   15023:	0f 8e 77 fc ff ff    	jle    14ca0 <main+0x815>
   15029:	8b 05 6d 83 00 00    	mov    0x836d(%rip),%eax        # 1d39c <g_522>
   1502f:	89 c1                	mov    %eax,%ecx
   15031:	8b 45 fc             	mov    -0x4(%rbp),%eax
   15034:	89 c2                	mov    %eax,%edx
   15036:	48 8d 35 f0 3f 00 00 	lea    0x3ff0(%rip),%rsi        # 1902d <g_2177+0xfd1>
   1503d:	48 89 cf             	mov    %rcx,%rdi
   15040:	e8 ae 86 ff ff       	callq  d6f3 <transparent_crc>
   15045:	c7 45 f0 00 00 00 00 	movl   $0x0,-0x10(%rbp)
   1504c:	e9 dd 01 00 00       	jmpq   1522e <main+0xda3>
   15051:	8b 45 f0             	mov    -0x10(%rbp),%eax
   15054:	48 63 d0             	movslq %eax,%rdx
   15057:	48 89 d0             	mov    %rdx,%rax
   1505a:	48 01 c0             	add    %rax,%rax
   1505d:	48 01 d0             	add    %rdx,%rax
   15060:	48 c1 e0 02          	shl    $0x2,%rax
   15064:	48 89 c2             	mov    %rax,%rdx
   15067:	48 8d 05 32 83 00 00 	lea    0x8332(%rip),%rax        # 1d3a0 <g_551>
   1506e:	0f b6 04 02          	movzbl (%rdx,%rax,1),%eax
   15072:	48 0f be c0          	movsbq %al,%rax
   15076:	8b 55 fc             	mov    -0x4(%rbp),%edx
   15079:	48 8d 35 b3 3f 00 00 	lea    0x3fb3(%rip),%rsi        # 19033 <g_2177+0xfd7>
   15080:	48 89 c7             	mov    %rax,%rdi
   15083:	e8 6b 86 ff ff       	callq  d6f3 <transparent_crc>
   15088:	8b 45 f0             	mov    -0x10(%rbp),%eax
   1508b:	48 63 d0             	movslq %eax,%rdx
   1508e:	48 89 d0             	mov    %rdx,%rax
   15091:	48 01 c0             	add    %rax,%rax
   15094:	48 01 d0             	add    %rdx,%rax
   15097:	48 c1 e0 02          	shl    $0x2,%rax
   1509b:	48 89 c2             	mov    %rax,%rdx
   1509e:	48 8d 05 fb 82 00 00 	lea    0x82fb(%rip),%rax        # 1d3a0 <g_551>
   150a5:	8b 0c 02             	mov    (%rdx,%rax,1),%ecx
   150a8:	c1 e9 08             	shr    $0x8,%ecx
   150ab:	89 c9                	mov    %ecx,%ecx
   150ad:	0f b6 44 02 04       	movzbl 0x4(%rdx,%rax,1),%eax
   150b2:	83 e0 7f             	and    $0x7f,%eax
   150b5:	48 c1 e0 18          	shl    $0x18,%rax
   150b9:	48 09 c8             	or     %rcx,%rax
   150bc:	48 c1 e0 21          	shl    $0x21,%rax
   150c0:	48 c1 f8 21          	sar    $0x21,%rax
   150c4:	48 98                	cltq   
   150c6:	8b 55 fc             	mov    -0x4(%rbp),%edx
   150c9:	48 8d 35 6f 3f 00 00 	lea    0x3f6f(%rip),%rsi        # 1903f <g_2177+0xfe3>
   150d0:	48 89 c7             	mov    %rax,%rdi
   150d3:	e8 1b 86 ff ff       	callq  d6f3 <transparent_crc>
   150d8:	8b 45 f0             	mov    -0x10(%rbp),%eax
   150db:	48 63 d0             	movslq %eax,%rdx
   150de:	48 89 d0             	mov    %rdx,%rax
   150e1:	48 01 c0             	add    %rax,%rax
   150e4:	48 01 d0             	add    %rdx,%rax
   150e7:	48 c1 e0 02          	shl    $0x2,%rax
   150eb:	48 89 c2             	mov    %rax,%rdx
   150ee:	48 8d 05 b0 82 00 00 	lea    0x82b0(%rip),%rax        # 1d3a5 <g_551+0x5>
   150f5:	0f b6 04 02          	movzbl (%rdx,%rax,1),%eax
   150f9:	48 0f be c0          	movsbq %al,%rax
   150fd:	8b 55 fc             	mov    -0x4(%rbp),%edx
   15100:	48 8d 35 44 3f 00 00 	lea    0x3f44(%rip),%rsi        # 1904b <g_2177+0xfef>
   15107:	48 89 c7             	mov    %rax,%rdi
   1510a:	e8 e4 85 ff ff       	callq  d6f3 <transparent_crc>
   1510f:	8b 45 f0             	mov    -0x10(%rbp),%eax
   15112:	48 63 d0             	movslq %eax,%rdx
   15115:	48 89 d0             	mov    %rdx,%rax
   15118:	48 01 c0             	add    %rax,%rax
   1511b:	48 01 d0             	add    %rdx,%rax
   1511e:	48 c1 e0 02          	shl    $0x2,%rax
   15122:	48 89 c2             	mov    %rax,%rdx
   15125:	48 8d 05 74 82 00 00 	lea    0x8274(%rip),%rax        # 1d3a0 <g_551>
   1512c:	0f b7 4c 02 06       	movzwl 0x6(%rdx,%rax,1),%ecx
   15131:	0f b6 44 02 08       	movzbl 0x8(%rdx,%rax,1),%eax
   15136:	83 e0 7f             	and    $0x7f,%eax
   15139:	48 c1 e0 10          	shl    $0x10,%rax
   1513d:	48 09 c8             	or     %rcx,%rax
   15140:	89 c1                	mov    %eax,%ecx
   15142:	8b 45 fc             	mov    -0x4(%rbp),%eax
   15145:	89 c2                	mov    %eax,%edx
   15147:	48 8d 35 09 3f 00 00 	lea    0x3f09(%rip),%rsi        # 19057 <g_2177+0xffb>
   1514e:	48 89 cf             	mov    %rcx,%rdi
   15151:	e8 9d 85 ff ff       	callq  d6f3 <transparent_crc>
   15156:	8b 45 f0             	mov    -0x10(%rbp),%eax
   15159:	48 63 d0             	movslq %eax,%rdx
   1515c:	48 89 d0             	mov    %rdx,%rax
   1515f:	48 01 c0             	add    %rax,%rax
   15162:	48 01 d0             	add    %rdx,%rax
   15165:	48 c1 e0 02          	shl    $0x2,%rax
   15169:	48 89 c2             	mov    %rax,%rdx
   1516c:	48 8d 05 2d 82 00 00 	lea    0x822d(%rip),%rax        # 1d3a0 <g_551>
   15173:	0f b7 44 02 08       	movzwl 0x8(%rdx,%rax,1),%eax
   15178:	c1 e0 07             	shl    $0x7,%eax
   1517b:	66 c1 f8 0e          	sar    $0xe,%ax
   1517f:	48 0f be c0          	movsbq %al,%rax
   15183:	8b 55 fc             	mov    -0x4(%rbp),%edx
   15186:	48 8d 35 d6 3e 00 00 	lea    0x3ed6(%rip),%rsi        # 19063 <g_2177+0x1007>
   1518d:	48 89 c7             	mov    %rax,%rdi
   15190:	e8 5e 85 ff ff       	callq  d6f3 <transparent_crc>
   15195:	8b 45 f0             	mov    -0x10(%rbp),%eax
   15198:	48 63 d0             	movslq %eax,%rdx
   1519b:	48 89 d0             	mov    %rdx,%rax
   1519e:	48 01 c0             	add    %rax,%rax
   151a1:	48 01 d0             	add    %rdx,%rax
   151a4:	48 c1 e0 02          	shl    $0x2,%rax
   151a8:	48 89 c2             	mov    %rax,%rdx
   151ab:	48 8d 05 ee 81 00 00 	lea    0x81ee(%rip),%rax        # 1d3a0 <g_551>
   151b2:	8b 44 02 08          	mov    0x8(%rdx,%rax,1),%eax
   151b6:	c1 e8 09             	shr    $0x9,%eax
   151b9:	80 e4 ff             	and    $0xff,%ah
   151bc:	0f b6 c0             	movzbl %al,%eax
   151bf:	8b 55 fc             	mov    -0x4(%rbp),%edx
   151c2:	48 8d 35 a6 3e 00 00 	lea    0x3ea6(%rip),%rsi        # 1906f <g_2177+0x1013>
   151c9:	48 89 c7             	mov    %rax,%rdi
   151cc:	e8 22 85 ff ff       	callq  d6f3 <transparent_crc>
   151d1:	8b 45 f0             	mov    -0x10(%rbp),%eax
   151d4:	48 63 d0             	movslq %eax,%rdx
   151d7:	48 89 d0             	mov    %rdx,%rax
   151da:	48 01 c0             	add    %rax,%rax
   151dd:	48 01 d0             	add    %rdx,%rax
   151e0:	48 c1 e0 02          	shl    $0x2,%rax
   151e4:	48 89 c2             	mov    %rax,%rdx
   151e7:	48 8d 05 b2 81 00 00 	lea    0x81b2(%rip),%rax        # 1d3a0 <g_551>
   151ee:	8b 44 02 08          	mov    0x8(%rdx,%rax,1),%eax
   151f2:	c1 e0 04             	shl    $0x4,%eax
   151f5:	c1 f8 15             	sar    $0x15,%eax
   151f8:	48 0f bf c0          	movswq %ax,%rax
   151fc:	8b 55 fc             	mov    -0x4(%rbp),%edx
   151ff:	48 8d 35 75 3e 00 00 	lea    0x3e75(%rip),%rsi        # 1907b <g_2177+0x101f>
   15206:	48 89 c7             	mov    %rax,%rdi
   15209:	e8 e5 84 ff ff       	callq  d6f3 <transparent_crc>
   1520e:	83 7d fc 00          	cmpl   $0x0,-0x4(%rbp)
   15212:	74 16                	je     1522a <main+0xd9f>
   15214:	8b 45 f0             	mov    -0x10(%rbp),%eax
   15217:	89 c6                	mov    %eax,%esi
   15219:	48 8d 3d 67 3c 00 00 	lea    0x3c67(%rip),%rdi        # 18e87 <g_2177+0xe2b>
   15220:	b8 00 00 00 00       	mov    $0x0,%eax
   15225:	e8 56 6e ff ff       	callq  c080 <printf@plt>
   1522a:	83 45 f0 01          	addl   $0x1,-0x10(%rbp)
   1522e:	83 7d f0 07          	cmpl   $0x7,-0x10(%rbp)
   15232:	0f 8e 19 fe ff ff    	jle    15051 <main+0xbc6>
   15238:	0f b6 05 c1 81 00 00 	movzbl 0x81c1(%rip),%eax        # 1d400 <g_606>
   1523f:	48 0f be c0          	movsbq %al,%rax
   15243:	8b 55 fc             	mov    -0x4(%rbp),%edx
   15246:	48 8d 35 3a 3e 00 00 	lea    0x3e3a(%rip),%rsi        # 19087 <g_2177+0x102b>
   1524d:	48 89 c7             	mov    %rax,%rdi
   15250:	e8 9e 84 ff ff       	callq  d6f3 <transparent_crc>
   15255:	48 8b 05 a4 81 00 00 	mov    0x81a4(%rip),%rax        # 1d400 <g_606>
   1525c:	48 c1 e0 19          	shl    $0x19,%rax
   15260:	48 c1 f8 21          	sar    $0x21,%rax
   15264:	48 98                	cltq   
   15266:	8b 55 fc             	mov    -0x4(%rbp),%edx
   15269:	48 8d 35 20 3e 00 00 	lea    0x3e20(%rip),%rsi        # 19090 <g_2177+0x1034>
   15270:	48 89 c7             	mov    %rax,%rdi
   15273:	e8 7b 84 ff ff       	callq  d6f3 <transparent_crc>
   15278:	0f b6 05 86 81 00 00 	movzbl 0x8186(%rip),%eax        # 1d405 <g_606+0x5>
   1527f:	48 0f be c0          	movsbq %al,%rax
   15283:	8b 55 fc             	mov    -0x4(%rbp),%edx
   15286:	48 8d 35 0c 3e 00 00 	lea    0x3e0c(%rip),%rsi        # 19099 <g_2177+0x103d>
   1528d:	48 89 c7             	mov    %rax,%rdi
   15290:	e8 5e 84 ff ff       	callq  d6f3 <transparent_crc>
   15295:	0f b7 05 6a 81 00 00 	movzwl 0x816a(%rip),%eax        # 1d406 <g_606+0x6>
   1529c:	0f b6 15 65 81 00 00 	movzbl 0x8165(%rip),%edx        # 1d408 <g_606+0x8>
   152a3:	83 e2 7f             	and    $0x7f,%edx
   152a6:	48 c1 e2 10          	shl    $0x10,%rdx
   152aa:	48 09 d0             	or     %rdx,%rax
   152ad:	89 c1                	mov    %eax,%ecx
   152af:	8b 45 fc             	mov    -0x4(%rbp),%eax
   152b2:	89 c2                	mov    %eax,%edx
   152b4:	48 8d 35 e7 3d 00 00 	lea    0x3de7(%rip),%rsi        # 190a2 <g_2177+0x1046>
   152bb:	48 89 cf             	mov    %rcx,%rdi
   152be:	e8 30 84 ff ff       	callq  d6f3 <transparent_crc>
   152c3:	0f b7 05 3e 81 00 00 	movzwl 0x813e(%rip),%eax        # 1d408 <g_606+0x8>
   152ca:	c1 e0 07             	shl    $0x7,%eax
   152cd:	66 c1 f8 0e          	sar    $0xe,%ax
   152d1:	48 0f be c0          	movsbq %al,%rax
   152d5:	8b 55 fc             	mov    -0x4(%rbp),%edx
   152d8:	48 8d 35 cc 3d 00 00 	lea    0x3dcc(%rip),%rsi        # 190ab <g_2177+0x104f>
   152df:	48 89 c7             	mov    %rax,%rdi
   152e2:	e8 0c 84 ff ff       	callq  d6f3 <transparent_crc>
   152e7:	8b 05 1b 81 00 00    	mov    0x811b(%rip),%eax        # 1d408 <g_606+0x8>
   152ed:	c1 e8 09             	shr    $0x9,%eax
   152f0:	80 e4 ff             	and    $0xff,%ah
   152f3:	0f b6 c0             	movzbl %al,%eax
   152f6:	8b 55 fc             	mov    -0x4(%rbp),%edx
   152f9:	48 8d 35 b4 3d 00 00 	lea    0x3db4(%rip),%rsi        # 190b4 <g_2177+0x1058>
   15300:	48 89 c7             	mov    %rax,%rdi
   15303:	e8 eb 83 ff ff       	callq  d6f3 <transparent_crc>
   15308:	48 8b 05 f9 80 00 00 	mov    0x80f9(%rip),%rax        # 1d408 <g_606+0x8>
   1530f:	c1 e0 04             	shl    $0x4,%eax
   15312:	c1 f8 15             	sar    $0x15,%eax
   15315:	48 0f bf c0          	movswq %ax,%rax
   15319:	8b 55 fc             	mov    -0x4(%rbp),%edx
   1531c:	48 8d 35 9a 3d 00 00 	lea    0x3d9a(%rip),%rsi        # 190bd <g_2177+0x1061>
   15323:	48 89 c7             	mov    %rax,%rdi
   15326:	e8 c8 83 ff ff       	callq  d6f3 <transparent_crc>
   1532b:	b8 bc ff ff ff       	mov    $0xffffffbc,%eax
   15330:	0f b6 c0             	movzbl %al,%eax
   15333:	8b 55 fc             	mov    -0x4(%rbp),%edx
   15336:	48 8d 35 89 3d 00 00 	lea    0x3d89(%rip),%rsi        # 190c6 <g_2177+0x106a>
   1533d:	48 89 c7             	mov    %rax,%rdi
   15340:	e8 ae 83 ff ff       	callq  d6f3 <transparent_crc>
   15345:	0f b6 05 c4 80 00 00 	movzbl 0x80c4(%rip),%eax        # 1d410 <g_655>
   1534c:	48 0f be c0          	movsbq %al,%rax
   15350:	8b 55 fc             	mov    -0x4(%rbp),%edx
   15353:	48 8d 35 72 3d 00 00 	lea    0x3d72(%rip),%rsi        # 190cc <g_2177+0x1070>
   1535a:	48 89 c7             	mov    %rax,%rdi
   1535d:	e8 91 83 ff ff       	callq  d6f3 <transparent_crc>
   15362:	48 8b 05 a7 80 00 00 	mov    0x80a7(%rip),%rax        # 1d410 <g_655>
   15369:	48 c1 e0 19          	shl    $0x19,%rax
   1536d:	48 c1 f8 21          	sar    $0x21,%rax
   15371:	48 98                	cltq   
   15373:	8b 55 fc             	mov    -0x4(%rbp),%edx
   15376:	48 8d 35 58 3d 00 00 	lea    0x3d58(%rip),%rsi        # 190d5 <g_2177+0x1079>
   1537d:	48 89 c7             	mov    %rax,%rdi
   15380:	e8 6e 83 ff ff       	callq  d6f3 <transparent_crc>
   15385:	0f b6 05 89 80 00 00 	movzbl 0x8089(%rip),%eax        # 1d415 <g_655+0x5>
   1538c:	48 0f be c0          	movsbq %al,%rax
   15390:	8b 55 fc             	mov    -0x4(%rbp),%edx
   15393:	48 8d 35 44 3d 00 00 	lea    0x3d44(%rip),%rsi        # 190de <g_2177+0x1082>
   1539a:	48 89 c7             	mov    %rax,%rdi
   1539d:	e8 51 83 ff ff       	callq  d6f3 <transparent_crc>
   153a2:	0f b7 05 6d 80 00 00 	movzwl 0x806d(%rip),%eax        # 1d416 <g_655+0x6>
   153a9:	0f b6 15 68 80 00 00 	movzbl 0x8068(%rip),%edx        # 1d418 <g_655+0x8>
   153b0:	83 e2 7f             	and    $0x7f,%edx
   153b3:	48 c1 e2 10          	shl    $0x10,%rdx
   153b7:	48 09 d0             	or     %rdx,%rax
   153ba:	89 c1                	mov    %eax,%ecx
   153bc:	8b 45 fc             	mov    -0x4(%rbp),%eax
   153bf:	89 c2                	mov    %eax,%edx
   153c1:	48 8d 35 1f 3d 00 00 	lea    0x3d1f(%rip),%rsi        # 190e7 <g_2177+0x108b>
   153c8:	48 89 cf             	mov    %rcx,%rdi
   153cb:	e8 23 83 ff ff       	callq  d6f3 <transparent_crc>
   153d0:	0f b7 05 41 80 00 00 	movzwl 0x8041(%rip),%eax        # 1d418 <g_655+0x8>
   153d7:	c1 e0 07             	shl    $0x7,%eax
   153da:	66 c1 f8 0e          	sar    $0xe,%ax
   153de:	48 0f be c0          	movsbq %al,%rax
   153e2:	8b 55 fc             	mov    -0x4(%rbp),%edx
   153e5:	48 8d 35 04 3d 00 00 	lea    0x3d04(%rip),%rsi        # 190f0 <g_2177+0x1094>
   153ec:	48 89 c7             	mov    %rax,%rdi
   153ef:	e8 ff 82 ff ff       	callq  d6f3 <transparent_crc>
   153f4:	8b 05 1e 80 00 00    	mov    0x801e(%rip),%eax        # 1d418 <g_655+0x8>
   153fa:	c1 e8 09             	shr    $0x9,%eax
   153fd:	80 e4 ff             	and    $0xff,%ah
   15400:	0f b6 c0             	movzbl %al,%eax
   15403:	8b 55 fc             	mov    -0x4(%rbp),%edx
   15406:	48 8d 35 ec 3c 00 00 	lea    0x3cec(%rip),%rsi        # 190f9 <g_2177+0x109d>
   1540d:	48 89 c7             	mov    %rax,%rdi
   15410:	e8 de 82 ff ff       	callq  d6f3 <transparent_crc>
   15415:	48 8b 05 fc 7f 00 00 	mov    0x7ffc(%rip),%rax        # 1d418 <g_655+0x8>
   1541c:	c1 e0 04             	shl    $0x4,%eax
   1541f:	c1 f8 15             	sar    $0x15,%eax
   15422:	48 0f bf c0          	movswq %ax,%rax
   15426:	8b 55 fc             	mov    -0x4(%rbp),%edx
   15429:	48 8d 35 d2 3c 00 00 	lea    0x3cd2(%rip),%rsi        # 19102 <g_2177+0x10a6>
   15430:	48 89 c7             	mov    %rax,%rdi
   15433:	e8 bb 82 ff ff       	callq  d6f3 <transparent_crc>
   15438:	0f b6 05 e1 7f 00 00 	movzbl 0x7fe1(%rip),%eax        # 1d420 <g_828>
   1543f:	48 0f be c0          	movsbq %al,%rax
   15443:	8b 55 fc             	mov    -0x4(%rbp),%edx
   15446:	48 8d 35 be 3c 00 00 	lea    0x3cbe(%rip),%rsi        # 1910b <g_2177+0x10af>
   1544d:	48 89 c7             	mov    %rax,%rdi
   15450:	e8 9e 82 ff ff       	callq  d6f3 <transparent_crc>
   15455:	48 8b 05 c4 7f 00 00 	mov    0x7fc4(%rip),%rax        # 1d420 <g_828>
   1545c:	48 c1 e0 19          	shl    $0x19,%rax
   15460:	48 c1 f8 21          	sar    $0x21,%rax
   15464:	48 98                	cltq   
   15466:	8b 55 fc             	mov    -0x4(%rbp),%edx
   15469:	48 8d 35 a4 3c 00 00 	lea    0x3ca4(%rip),%rsi        # 19114 <g_2177+0x10b8>
   15470:	48 89 c7             	mov    %rax,%rdi
   15473:	e8 7b 82 ff ff       	callq  d6f3 <transparent_crc>
   15478:	0f b6 05 a6 7f 00 00 	movzbl 0x7fa6(%rip),%eax        # 1d425 <g_828+0x5>
   1547f:	48 0f be c0          	movsbq %al,%rax
   15483:	8b 55 fc             	mov    -0x4(%rbp),%edx
   15486:	48 8d 35 90 3c 00 00 	lea    0x3c90(%rip),%rsi        # 1911d <g_2177+0x10c1>
   1548d:	48 89 c7             	mov    %rax,%rdi
   15490:	e8 5e 82 ff ff       	callq  d6f3 <transparent_crc>
   15495:	0f b7 05 8a 7f 00 00 	movzwl 0x7f8a(%rip),%eax        # 1d426 <g_828+0x6>
   1549c:	0f b6 15 85 7f 00 00 	movzbl 0x7f85(%rip),%edx        # 1d428 <g_828+0x8>
   154a3:	83 e2 7f             	and    $0x7f,%edx
   154a6:	48 c1 e2 10          	shl    $0x10,%rdx
   154aa:	48 09 d0             	or     %rdx,%rax
   154ad:	89 c1                	mov    %eax,%ecx
   154af:	8b 45 fc             	mov    -0x4(%rbp),%eax
   154b2:	89 c2                	mov    %eax,%edx
   154b4:	48 8d 35 6b 3c 00 00 	lea    0x3c6b(%rip),%rsi        # 19126 <g_2177+0x10ca>
   154bb:	48 89 cf             	mov    %rcx,%rdi
   154be:	e8 30 82 ff ff       	callq  d6f3 <transparent_crc>
   154c3:	0f b7 05 5e 7f 00 00 	movzwl 0x7f5e(%rip),%eax        # 1d428 <g_828+0x8>
   154ca:	c1 e0 07             	shl    $0x7,%eax
   154cd:	66 c1 f8 0e          	sar    $0xe,%ax
   154d1:	48 0f be c0          	movsbq %al,%rax
   154d5:	8b 55 fc             	mov    -0x4(%rbp),%edx
   154d8:	48 8d 35 50 3c 00 00 	lea    0x3c50(%rip),%rsi        # 1912f <g_2177+0x10d3>
   154df:	48 89 c7             	mov    %rax,%rdi
   154e2:	e8 0c 82 ff ff       	callq  d6f3 <transparent_crc>
   154e7:	8b 05 3b 7f 00 00    	mov    0x7f3b(%rip),%eax        # 1d428 <g_828+0x8>
   154ed:	c1 e8 09             	shr    $0x9,%eax
   154f0:	80 e4 ff             	and    $0xff,%ah
   154f3:	0f b6 c0             	movzbl %al,%eax
   154f6:	8b 55 fc             	mov    -0x4(%rbp),%edx
   154f9:	48 8d 35 38 3c 00 00 	lea    0x3c38(%rip),%rsi        # 19138 <g_2177+0x10dc>
   15500:	48 89 c7             	mov    %rax,%rdi
   15503:	e8 eb 81 ff ff       	callq  d6f3 <transparent_crc>
   15508:	48 8b 05 19 7f 00 00 	mov    0x7f19(%rip),%rax        # 1d428 <g_828+0x8>
   1550f:	c1 e0 04             	shl    $0x4,%eax
   15512:	c1 f8 15             	sar    $0x15,%eax
   15515:	48 0f bf c0          	movswq %ax,%rax
   15519:	8b 55 fc             	mov    -0x4(%rbp),%edx
   1551c:	48 8d 35 1e 3c 00 00 	lea    0x3c1e(%rip),%rsi        # 19141 <g_2177+0x10e5>
   15523:	48 89 c7             	mov    %rax,%rdi
   15526:	e8 c8 81 ff ff       	callq  d6f3 <transparent_crc>
   1552b:	c7 45 f0 00 00 00 00 	movl   $0x0,-0x10(%rbp)
   15532:	e9 dd 01 00 00       	jmpq   15714 <main+0x1289>
   15537:	8b 45 f0             	mov    -0x10(%rbp),%eax
   1553a:	48 63 d0             	movslq %eax,%rdx
   1553d:	48 89 d0             	mov    %rdx,%rax
   15540:	48 01 c0             	add    %rax,%rax
   15543:	48 01 d0             	add    %rdx,%rax
   15546:	48 c1 e0 02          	shl    $0x2,%rax
   1554a:	48 89 c2             	mov    %rax,%rdx
   1554d:	48 8d 05 ec 7e 00 00 	lea    0x7eec(%rip),%rax        # 1d440 <g_874>
   15554:	0f b6 04 02          	movzbl (%rdx,%rax,1),%eax
   15558:	48 0f be c0          	movsbq %al,%rax
   1555c:	8b 55 fc             	mov    -0x4(%rbp),%edx
   1555f:	48 8d 35 e4 3b 00 00 	lea    0x3be4(%rip),%rsi        # 1914a <g_2177+0x10ee>
   15566:	48 89 c7             	mov    %rax,%rdi
   15569:	e8 85 81 ff ff       	callq  d6f3 <transparent_crc>
   1556e:	8b 45 f0             	mov    -0x10(%rbp),%eax
   15571:	48 63 d0             	movslq %eax,%rdx
   15574:	48 89 d0             	mov    %rdx,%rax
   15577:	48 01 c0             	add    %rax,%rax
   1557a:	48 01 d0             	add    %rdx,%rax
   1557d:	48 c1 e0 02          	shl    $0x2,%rax
   15581:	48 89 c2             	mov    %rax,%rdx
   15584:	48 8d 05 b5 7e 00 00 	lea    0x7eb5(%rip),%rax        # 1d440 <g_874>
   1558b:	8b 0c 02             	mov    (%rdx,%rax,1),%ecx
   1558e:	c1 e9 08             	shr    $0x8,%ecx
   15591:	89 c9                	mov    %ecx,%ecx
   15593:	0f b6 44 02 04       	movzbl 0x4(%rdx,%rax,1),%eax
   15598:	83 e0 7f             	and    $0x7f,%eax
   1559b:	48 c1 e0 18          	shl    $0x18,%rax
   1559f:	48 09 c8             	or     %rcx,%rax
   155a2:	48 c1 e0 21          	shl    $0x21,%rax
   155a6:	48 c1 f8 21          	sar    $0x21,%rax
   155aa:	48 98                	cltq   
   155ac:	8b 55 fc             	mov    -0x4(%rbp),%edx
   155af:	48 8d 35 a0 3b 00 00 	lea    0x3ba0(%rip),%rsi        # 19156 <g_2177+0x10fa>
   155b6:	48 89 c7             	mov    %rax,%rdi
   155b9:	e8 35 81 ff ff       	callq  d6f3 <transparent_crc>
   155be:	8b 45 f0             	mov    -0x10(%rbp),%eax
   155c1:	48 63 d0             	movslq %eax,%rdx
   155c4:	48 89 d0             	mov    %rdx,%rax
   155c7:	48 01 c0             	add    %rax,%rax
   155ca:	48 01 d0             	add    %rdx,%rax
   155cd:	48 c1 e0 02          	shl    $0x2,%rax
   155d1:	48 89 c2             	mov    %rax,%rdx
   155d4:	48 8d 05 6a 7e 00 00 	lea    0x7e6a(%rip),%rax        # 1d445 <g_874+0x5>
   155db:	0f b6 04 02          	movzbl (%rdx,%rax,1),%eax
   155df:	48 0f be c0          	movsbq %al,%rax
   155e3:	8b 55 fc             	mov    -0x4(%rbp),%edx
   155e6:	48 8d 35 75 3b 00 00 	lea    0x3b75(%rip),%rsi        # 19162 <g_2177+0x1106>
   155ed:	48 89 c7             	mov    %rax,%rdi
   155f0:	e8 fe 80 ff ff       	callq  d6f3 <transparent_crc>
   155f5:	8b 45 f0             	mov    -0x10(%rbp),%eax
   155f8:	48 63 d0             	movslq %eax,%rdx
   155fb:	48 89 d0             	mov    %rdx,%rax
   155fe:	48 01 c0             	add    %rax,%rax
   15601:	48 01 d0             	add    %rdx,%rax
   15604:	48 c1 e0 02          	shl    $0x2,%rax
   15608:	48 89 c2             	mov    %rax,%rdx
   1560b:	48 8d 05 2e 7e 00 00 	lea    0x7e2e(%rip),%rax        # 1d440 <g_874>
   15612:	0f b7 4c 02 06       	movzwl 0x6(%rdx,%rax,1),%ecx
   15617:	0f b6 44 02 08       	movzbl 0x8(%rdx,%rax,1),%eax
   1561c:	83 e0 7f             	and    $0x7f,%eax
   1561f:	48 c1 e0 10          	shl    $0x10,%rax
   15623:	48 09 c8             	or     %rcx,%rax
   15626:	89 c1                	mov    %eax,%ecx
   15628:	8b 45 fc             	mov    -0x4(%rbp),%eax
   1562b:	89 c2                	mov    %eax,%edx
   1562d:	48 8d 35 3a 3b 00 00 	lea    0x3b3a(%rip),%rsi        # 1916e <g_2177+0x1112>
   15634:	48 89 cf             	mov    %rcx,%rdi
   15637:	e8 b7 80 ff ff       	callq  d6f3 <transparent_crc>
   1563c:	8b 45 f0             	mov    -0x10(%rbp),%eax
   1563f:	48 63 d0             	movslq %eax,%rdx
   15642:	48 89 d0             	mov    %rdx,%rax
   15645:	48 01 c0             	add    %rax,%rax
   15648:	48 01 d0             	add    %rdx,%rax
   1564b:	48 c1 e0 02          	shl    $0x2,%rax
   1564f:	48 89 c2             	mov    %rax,%rdx
   15652:	48 8d 05 e7 7d 00 00 	lea    0x7de7(%rip),%rax        # 1d440 <g_874>
   15659:	0f b7 44 02 08       	movzwl 0x8(%rdx,%rax,1),%eax
   1565e:	c1 e0 07             	shl    $0x7,%eax
   15661:	66 c1 f8 0e          	sar    $0xe,%ax
   15665:	48 0f be c0          	movsbq %al,%rax
   15669:	8b 55 fc             	mov    -0x4(%rbp),%edx
   1566c:	48 8d 35 07 3b 00 00 	lea    0x3b07(%rip),%rsi        # 1917a <g_2177+0x111e>
   15673:	48 89 c7             	mov    %rax,%rdi
   15676:	e8 78 80 ff ff       	callq  d6f3 <transparent_crc>
   1567b:	8b 45 f0             	mov    -0x10(%rbp),%eax
   1567e:	48 63 d0             	movslq %eax,%rdx
   15681:	48 89 d0             	mov    %rdx,%rax
   15684:	48 01 c0             	add    %rax,%rax
   15687:	48 01 d0             	add    %rdx,%rax
   1568a:	48 c1 e0 02          	shl    $0x2,%rax
   1568e:	48 89 c2             	mov    %rax,%rdx
   15691:	48 8d 05 a8 7d 00 00 	lea    0x7da8(%rip),%rax        # 1d440 <g_874>
   15698:	8b 44 02 08          	mov    0x8(%rdx,%rax,1),%eax
   1569c:	c1 e8 09             	shr    $0x9,%eax
   1569f:	80 e4 ff             	and    $0xff,%ah
   156a2:	0f b6 c0             	movzbl %al,%eax
   156a5:	8b 55 fc             	mov    -0x4(%rbp),%edx
   156a8:	48 8d 35 d7 3a 00 00 	lea    0x3ad7(%rip),%rsi        # 19186 <g_2177+0x112a>
   156af:	48 89 c7             	mov    %rax,%rdi
   156b2:	e8 3c 80 ff ff       	callq  d6f3 <transparent_crc>
   156b7:	8b 45 f0             	mov    -0x10(%rbp),%eax
   156ba:	48 63 d0             	movslq %eax,%rdx
   156bd:	48 89 d0             	mov    %rdx,%rax
   156c0:	48 01 c0             	add    %rax,%rax
   156c3:	48 01 d0             	add    %rdx,%rax
   156c6:	48 c1 e0 02          	shl    $0x2,%rax
   156ca:	48 89 c2             	mov    %rax,%rdx
   156cd:	48 8d 05 6c 7d 00 00 	lea    0x7d6c(%rip),%rax        # 1d440 <g_874>
   156d4:	8b 44 02 08          	mov    0x8(%rdx,%rax,1),%eax
   156d8:	c1 e0 04             	shl    $0x4,%eax
   156db:	c1 f8 15             	sar    $0x15,%eax
   156de:	48 0f bf c0          	movswq %ax,%rax
   156e2:	8b 55 fc             	mov    -0x4(%rbp),%edx
   156e5:	48 8d 35 a6 3a 00 00 	lea    0x3aa6(%rip),%rsi        # 19192 <g_2177+0x1136>
   156ec:	48 89 c7             	mov    %rax,%rdi
   156ef:	e8 ff 7f ff ff       	callq  d6f3 <transparent_crc>
   156f4:	83 7d fc 00          	cmpl   $0x0,-0x4(%rbp)
   156f8:	74 16                	je     15710 <main+0x1285>
   156fa:	8b 45 f0             	mov    -0x10(%rbp),%eax
   156fd:	89 c6                	mov    %eax,%esi
   156ff:	48 8d 3d 81 37 00 00 	lea    0x3781(%rip),%rdi        # 18e87 <g_2177+0xe2b>
   15706:	b8 00 00 00 00       	mov    $0x0,%eax
   1570b:	e8 70 69 ff ff       	callq  c080 <printf@plt>
   15710:	83 45 f0 01          	addl   $0x1,-0x10(%rbp)
   15714:	83 7d f0 09          	cmpl   $0x9,-0x10(%rbp)
   15718:	0f 8e 19 fe ff ff    	jle    15537 <main+0x10ac>
   1571e:	0f b6 05 93 7d 00 00 	movzbl 0x7d93(%rip),%eax        # 1d4b8 <g_877>
   15725:	48 0f be c0          	movsbq %al,%rax
   15729:	8b 55 fc             	mov    -0x4(%rbp),%edx
   1572c:	48 8d 35 6b 3a 00 00 	lea    0x3a6b(%rip),%rsi        # 1919e <g_2177+0x1142>
   15733:	48 89 c7             	mov    %rax,%rdi
   15736:	e8 b8 7f ff ff       	callq  d6f3 <transparent_crc>
   1573b:	48 8b 05 76 7d 00 00 	mov    0x7d76(%rip),%rax        # 1d4b8 <g_877>
   15742:	48 c1 e0 19          	shl    $0x19,%rax
   15746:	48 c1 f8 21          	sar    $0x21,%rax
   1574a:	48 98                	cltq   
   1574c:	8b 55 fc             	mov    -0x4(%rbp),%edx
   1574f:	48 8d 35 51 3a 00 00 	lea    0x3a51(%rip),%rsi        # 191a7 <g_2177+0x114b>
   15756:	48 89 c7             	mov    %rax,%rdi
   15759:	e8 95 7f ff ff       	callq  d6f3 <transparent_crc>
   1575e:	0f b6 05 58 7d 00 00 	movzbl 0x7d58(%rip),%eax        # 1d4bd <g_877+0x5>
   15765:	48 0f be c0          	movsbq %al,%rax
   15769:	8b 55 fc             	mov    -0x4(%rbp),%edx
   1576c:	48 8d 35 3d 3a 00 00 	lea    0x3a3d(%rip),%rsi        # 191b0 <g_2177+0x1154>
   15773:	48 89 c7             	mov    %rax,%rdi
   15776:	e8 78 7f ff ff       	callq  d6f3 <transparent_crc>
   1577b:	0f b7 05 3c 7d 00 00 	movzwl 0x7d3c(%rip),%eax        # 1d4be <g_877+0x6>
   15782:	0f b6 15 37 7d 00 00 	movzbl 0x7d37(%rip),%edx        # 1d4c0 <g_877+0x8>
   15789:	83 e2 7f             	and    $0x7f,%edx
   1578c:	48 c1 e2 10          	shl    $0x10,%rdx
   15790:	48 09 d0             	or     %rdx,%rax
   15793:	89 c1                	mov    %eax,%ecx
   15795:	8b 45 fc             	mov    -0x4(%rbp),%eax
   15798:	89 c2                	mov    %eax,%edx
   1579a:	48 8d 35 18 3a 00 00 	lea    0x3a18(%rip),%rsi        # 191b9 <g_2177+0x115d>
   157a1:	48 89 cf             	mov    %rcx,%rdi
   157a4:	e8 4a 7f ff ff       	callq  d6f3 <transparent_crc>
   157a9:	0f b7 05 10 7d 00 00 	movzwl 0x7d10(%rip),%eax        # 1d4c0 <g_877+0x8>
   157b0:	c1 e0 07             	shl    $0x7,%eax
   157b3:	66 c1 f8 0e          	sar    $0xe,%ax
   157b7:	48 0f be c0          	movsbq %al,%rax
   157bb:	8b 55 fc             	mov    -0x4(%rbp),%edx
   157be:	48 8d 35 fd 39 00 00 	lea    0x39fd(%rip),%rsi        # 191c2 <g_2177+0x1166>
   157c5:	48 89 c7             	mov    %rax,%rdi
   157c8:	e8 26 7f ff ff       	callq  d6f3 <transparent_crc>
   157cd:	8b 05 ed 7c 00 00    	mov    0x7ced(%rip),%eax        # 1d4c0 <g_877+0x8>
   157d3:	c1 e8 09             	shr    $0x9,%eax
   157d6:	80 e4 ff             	and    $0xff,%ah
   157d9:	0f b6 c0             	movzbl %al,%eax
   157dc:	8b 55 fc             	mov    -0x4(%rbp),%edx
   157df:	48 8d 35 e5 39 00 00 	lea    0x39e5(%rip),%rsi        # 191cb <g_2177+0x116f>
   157e6:	48 89 c7             	mov    %rax,%rdi
   157e9:	e8 05 7f ff ff       	callq  d6f3 <transparent_crc>
   157ee:	48 8b 05 cb 7c 00 00 	mov    0x7ccb(%rip),%rax        # 1d4c0 <g_877+0x8>
   157f5:	c1 e0 04             	shl    $0x4,%eax
   157f8:	c1 f8 15             	sar    $0x15,%eax
   157fb:	48 0f bf c0          	movswq %ax,%rax
   157ff:	8b 55 fc             	mov    -0x4(%rbp),%edx
   15802:	48 8d 35 cb 39 00 00 	lea    0x39cb(%rip),%rsi        # 191d4 <g_2177+0x1178>
   15809:	48 89 c7             	mov    %rax,%rdi
   1580c:	e8 e2 7e ff ff       	callq  d6f3 <transparent_crc>
   15811:	c7 45 f0 00 00 00 00 	movl   $0x0,-0x10(%rbp)
   15818:	eb 49                	jmp    15863 <main+0x13d8>
   1581a:	8b 45 f0             	mov    -0x10(%rbp),%eax
   1581d:	48 98                	cltq   
   1581f:	48 8d 14 00          	lea    (%rax,%rax,1),%rdx
   15823:	48 8d 05 de d4 00 00 	lea    0xd4de(%rip),%rax        # 22d08 <g_985>
   1582a:	0f b7 04 02          	movzwl (%rdx,%rax,1),%eax
   1582e:	0f b7 c0             	movzwl %ax,%eax
   15831:	8b 55 fc             	mov    -0x4(%rbp),%edx
   15834:	48 8d 35 a2 39 00 00 	lea    0x39a2(%rip),%rsi        # 191dd <g_2177+0x1181>
   1583b:	48 89 c7             	mov    %rax,%rdi
   1583e:	e8 b0 7e ff ff       	callq  d6f3 <transparent_crc>
   15843:	83 7d fc 00          	cmpl   $0x0,-0x4(%rbp)
   15847:	74 16                	je     1585f <main+0x13d4>
   15849:	8b 45 f0             	mov    -0x10(%rbp),%eax
   1584c:	89 c6                	mov    %eax,%esi
   1584e:	48 8d 3d 32 36 00 00 	lea    0x3632(%rip),%rdi        # 18e87 <g_2177+0xe2b>
   15855:	b8 00 00 00 00       	mov    $0x0,%eax
   1585a:	e8 21 68 ff ff       	callq  c080 <printf@plt>
   1585f:	83 45 f0 01          	addl   $0x1,-0x10(%rbp)
   15863:	83 7d f0 00          	cmpl   $0x0,-0x10(%rbp)
   15867:	7e b1                	jle    1581a <main+0x138f>
   15869:	8b 05 55 7c 00 00    	mov    0x7c55(%rip),%eax        # 1d4c4 <g_998>
   1586f:	89 c1                	mov    %eax,%ecx
   15871:	8b 45 fc             	mov    -0x4(%rbp),%eax
   15874:	89 c2                	mov    %eax,%edx
   15876:	48 8d 35 69 39 00 00 	lea    0x3969(%rip),%rsi        # 191e6 <g_2177+0x118a>
   1587d:	48 89 cf             	mov    %rcx,%rdi
   15880:	e8 6e 7e ff ff       	callq  d6f3 <transparent_crc>
   15885:	0f b6 05 3c 7c 00 00 	movzbl 0x7c3c(%rip),%eax        # 1d4c8 <g_1111>
   1588c:	48 0f be c0          	movsbq %al,%rax
   15890:	8b 55 fc             	mov    -0x4(%rbp),%edx
   15893:	48 8d 35 52 39 00 00 	lea    0x3952(%rip),%rsi        # 191ec <g_2177+0x1190>
   1589a:	48 89 c7             	mov    %rax,%rdi
   1589d:	e8 51 7e ff ff       	callq  d6f3 <transparent_crc>
   158a2:	48 8b 05 1f 7c 00 00 	mov    0x7c1f(%rip),%rax        # 1d4c8 <g_1111>
   158a9:	48 c1 e0 19          	shl    $0x19,%rax
   158ad:	48 c1 f8 21          	sar    $0x21,%rax
   158b1:	48 98                	cltq   
   158b3:	8b 55 fc             	mov    -0x4(%rbp),%edx
   158b6:	48 8d 35 39 39 00 00 	lea    0x3939(%rip),%rsi        # 191f6 <g_2177+0x119a>
   158bd:	48 89 c7             	mov    %rax,%rdi
   158c0:	e8 2e 7e ff ff       	callq  d6f3 <transparent_crc>
   158c5:	0f b6 05 01 7c 00 00 	movzbl 0x7c01(%rip),%eax        # 1d4cd <g_1111+0x5>
   158cc:	48 0f be c0          	movsbq %al,%rax
   158d0:	8b 55 fc             	mov    -0x4(%rbp),%edx
   158d3:	48 8d 35 26 39 00 00 	lea    0x3926(%rip),%rsi        # 19200 <g_2177+0x11a4>
   158da:	48 89 c7             	mov    %rax,%rdi
   158dd:	e8 11 7e ff ff       	callq  d6f3 <transparent_crc>
   158e2:	48 8b 05 df 7b 00 00 	mov    0x7bdf(%rip),%rax        # 1d4c8 <g_1111>
   158e9:	48 c1 e8 30          	shr    $0x30,%rax
   158ed:	48 89 c2             	mov    %rax,%rdx
   158f0:	48 8b 05 d9 7b 00 00 	mov    0x7bd9(%rip),%rax        # 1d4d0 <g_1111+0x8>
   158f7:	83 e0 7f             	and    $0x7f,%eax
   158fa:	48 c1 e0 10          	shl    $0x10,%rax
   158fe:	48 09 d0             	or     %rdx,%rax
   15901:	89 c1                	mov    %eax,%ecx
   15903:	8b 45 fc             	mov    -0x4(%rbp),%eax
   15906:	89 c2                	mov    %eax,%edx
   15908:	48 8d 35 fb 38 00 00 	lea    0x38fb(%rip),%rsi        # 1920a <g_2177+0x11ae>
   1590f:	48 89 cf             	mov    %rcx,%rdi
   15912:	e8 dc 7d ff ff       	callq  d6f3 <transparent_crc>
   15917:	48 8b 05 b2 7b 00 00 	mov    0x7bb2(%rip),%rax        # 1d4d0 <g_1111+0x8>
   1591e:	c1 e0 07             	shl    $0x7,%eax
   15921:	66 c1 f8 0e          	sar    $0xe,%ax
   15925:	48 0f be c0          	movsbq %al,%rax
   15929:	8b 55 fc             	mov    -0x4(%rbp),%edx
   1592c:	48 8d 35 e1 38 00 00 	lea    0x38e1(%rip),%rsi        # 19214 <g_2177+0x11b8>
   15933:	48 89 c7             	mov    %rax,%rdi
   15936:	e8 b8 7d ff ff       	callq  d6f3 <transparent_crc>
   1593b:	48 8b 05 8e 7b 00 00 	mov    0x7b8e(%rip),%rax        # 1d4d0 <g_1111+0x8>
   15942:	48 c1 e8 09          	shr    $0x9,%rax
   15946:	80 e4 ff             	and    $0xff,%ah
   15949:	0f b6 c0             	movzbl %al,%eax
   1594c:	8b 55 fc             	mov    -0x4(%rbp),%edx
   1594f:	48 8d 35 c8 38 00 00 	lea    0x38c8(%rip),%rsi        # 1921e <g_2177+0x11c2>
   15956:	48 89 c7             	mov    %rax,%rdi
   15959:	e8 95 7d ff ff       	callq  d6f3 <transparent_crc>
   1595e:	48 8b 05 6b 7b 00 00 	mov    0x7b6b(%rip),%rax        # 1d4d0 <g_1111+0x8>
   15965:	c1 e0 04             	shl    $0x4,%eax
   15968:	c1 f8 15             	sar    $0x15,%eax
   1596b:	48 0f bf c0          	movswq %ax,%rax
   1596f:	8b 55 fc             	mov    -0x4(%rbp),%edx
   15972:	48 8d 35 af 38 00 00 	lea    0x38af(%rip),%rsi        # 19228 <g_2177+0x11cc>
   15979:	48 89 c7             	mov    %rax,%rdi
   1597c:	e8 72 7d ff ff       	callq  d6f3 <transparent_crc>
   15981:	b8 f6 39 00 00       	mov    $0x39f6,%eax
   15986:	48 0f bf c0          	movswq %ax,%rax
   1598a:	8b 55 fc             	mov    -0x4(%rbp),%edx
   1598d:	48 8d 35 9e 38 00 00 	lea    0x389e(%rip),%rsi        # 19232 <g_2177+0x11d6>
   15994:	48 89 c7             	mov    %rax,%rdi
   15997:	e8 57 7d ff ff       	callq  d6f3 <transparent_crc>
   1599c:	0f b6 05 8d d3 00 00 	movzbl 0xd38d(%rip),%eax        # 22d30 <g_1197>
   159a3:	48 0f be c0          	movsbq %al,%rax
   159a7:	8b 55 fc             	mov    -0x4(%rbp),%edx
   159aa:	48 8d 35 88 38 00 00 	lea    0x3888(%rip),%rsi        # 19239 <g_2177+0x11dd>
   159b1:	48 89 c7             	mov    %rax,%rdi
   159b4:	e8 3a 7d ff ff       	callq  d6f3 <transparent_crc>
   159b9:	48 8b 05 18 7b 00 00 	mov    0x7b18(%rip),%rax        # 1d4d8 <g_1217>
   159c0:	8b 55 fc             	mov    -0x4(%rbp),%edx
   159c3:	48 8d 35 76 38 00 00 	lea    0x3876(%rip),%rsi        # 19240 <g_2177+0x11e4>
   159ca:	48 89 c7             	mov    %rax,%rdi
   159cd:	e8 21 7d ff ff       	callq  d6f3 <transparent_crc>
   159d2:	0f b6 05 07 7b 00 00 	movzbl 0x7b07(%rip),%eax        # 1d4e0 <g_1272>
   159d9:	0f b6 c0             	movzbl %al,%eax
   159dc:	8b 55 fc             	mov    -0x4(%rbp),%edx
   159df:	48 8d 35 61 38 00 00 	lea    0x3861(%rip),%rsi        # 19247 <g_2177+0x11eb>
   159e6:	48 89 c7             	mov    %rax,%rdi
   159e9:	e8 05 7d ff ff       	callq  d6f3 <transparent_crc>
   159ee:	8b 05 f0 7a 00 00    	mov    0x7af0(%rip),%eax        # 1d4e4 <g_1297>
   159f4:	48 98                	cltq   
   159f6:	8b 55 fc             	mov    -0x4(%rbp),%edx
   159f9:	48 8d 35 4e 38 00 00 	lea    0x384e(%rip),%rsi        # 1924e <g_2177+0x11f2>
   15a00:	48 89 c7             	mov    %rax,%rdi
   15a03:	e8 eb 7c ff ff       	callq  d6f3 <transparent_crc>
   15a08:	0f b7 05 d9 7a 00 00 	movzwl 0x7ad9(%rip),%eax        # 1d4e8 <g_1310>
   15a0f:	48 0f bf c0          	movswq %ax,%rax
   15a13:	8b 55 fc             	mov    -0x4(%rbp),%edx
   15a16:	48 8d 35 38 38 00 00 	lea    0x3838(%rip),%rsi        # 19255 <g_2177+0x11f9>
   15a1d:	48 89 c7             	mov    %rax,%rdi
   15a20:	e8 ce 7c ff ff       	callq  d6f3 <transparent_crc>
   15a25:	0f b7 05 be 7a 00 00 	movzwl 0x7abe(%rip),%eax        # 1d4ea <g_1337>
   15a2c:	48 0f bf c0          	movswq %ax,%rax
   15a30:	8b 55 fc             	mov    -0x4(%rbp),%edx
   15a33:	48 8d 35 22 38 00 00 	lea    0x3822(%rip),%rsi        # 1925c <g_2177+0x1200>
   15a3a:	48 89 c7             	mov    %rax,%rdi
   15a3d:	e8 b1 7c ff ff       	callq  d6f3 <transparent_crc>
   15a42:	0f b6 05 a7 7a 00 00 	movzbl 0x7aa7(%rip),%eax        # 1d4f0 <g_1338>
   15a49:	48 0f be c0          	movsbq %al,%rax
   15a4d:	8b 55 fc             	mov    -0x4(%rbp),%edx
   15a50:	48 8d 35 0c 38 00 00 	lea    0x380c(%rip),%rsi        # 19263 <g_2177+0x1207>
   15a57:	48 89 c7             	mov    %rax,%rdi
   15a5a:	e8 94 7c ff ff       	callq  d6f3 <transparent_crc>
   15a5f:	48 8b 05 8a 7a 00 00 	mov    0x7a8a(%rip),%rax        # 1d4f0 <g_1338>
   15a66:	48 c1 e0 19          	shl    $0x19,%rax
   15a6a:	48 c1 f8 21          	sar    $0x21,%rax
   15a6e:	48 98                	cltq   
   15a70:	8b 55 fc             	mov    -0x4(%rbp),%edx
   15a73:	48 8d 35 f3 37 00 00 	lea    0x37f3(%rip),%rsi        # 1926d <g_2177+0x1211>
   15a7a:	48 89 c7             	mov    %rax,%rdi
   15a7d:	e8 71 7c ff ff       	callq  d6f3 <transparent_crc>
   15a82:	0f b6 05 6c 7a 00 00 	movzbl 0x7a6c(%rip),%eax        # 1d4f5 <g_1338+0x5>
   15a89:	48 0f be c0          	movsbq %al,%rax
   15a8d:	8b 55 fc             	mov    -0x4(%rbp),%edx
   15a90:	48 8d 35 e0 37 00 00 	lea    0x37e0(%rip),%rsi        # 19277 <g_2177+0x121b>
   15a97:	48 89 c7             	mov    %rax,%rdi
   15a9a:	e8 54 7c ff ff       	callq  d6f3 <transparent_crc>
   15a9f:	0f b7 05 50 7a 00 00 	movzwl 0x7a50(%rip),%eax        # 1d4f6 <g_1338+0x6>
   15aa6:	0f b6 15 4b 7a 00 00 	movzbl 0x7a4b(%rip),%edx        # 1d4f8 <g_1338+0x8>
   15aad:	83 e2 7f             	and    $0x7f,%edx
   15ab0:	48 c1 e2 10          	shl    $0x10,%rdx
   15ab4:	48 09 d0             	or     %rdx,%rax
   15ab7:	89 c1                	mov    %eax,%ecx
   15ab9:	8b 45 fc             	mov    -0x4(%rbp),%eax
   15abc:	89 c2                	mov    %eax,%edx
   15abe:	48 8d 35 bc 37 00 00 	lea    0x37bc(%rip),%rsi        # 19281 <g_2177+0x1225>
   15ac5:	48 89 cf             	mov    %rcx,%rdi
   15ac8:	e8 26 7c ff ff       	callq  d6f3 <transparent_crc>
   15acd:	0f b7 05 24 7a 00 00 	movzwl 0x7a24(%rip),%eax        # 1d4f8 <g_1338+0x8>
   15ad4:	c1 e0 07             	shl    $0x7,%eax
   15ad7:	66 c1 f8 0e          	sar    $0xe,%ax
   15adb:	48 0f be c0          	movsbq %al,%rax
   15adf:	8b 55 fc             	mov    -0x4(%rbp),%edx
   15ae2:	48 8d 35 a2 37 00 00 	lea    0x37a2(%rip),%rsi        # 1928b <g_2177+0x122f>
   15ae9:	48 89 c7             	mov    %rax,%rdi
   15aec:	e8 02 7c ff ff       	callq  d6f3 <transparent_crc>
   15af1:	8b 05 01 7a 00 00    	mov    0x7a01(%rip),%eax        # 1d4f8 <g_1338+0x8>
   15af7:	c1 e8 09             	shr    $0x9,%eax
   15afa:	80 e4 ff             	and    $0xff,%ah
   15afd:	0f b6 c0             	movzbl %al,%eax
   15b00:	8b 55 fc             	mov    -0x4(%rbp),%edx
   15b03:	48 8d 35 8b 37 00 00 	lea    0x378b(%rip),%rsi        # 19295 <g_2177+0x1239>
   15b0a:	48 89 c7             	mov    %rax,%rdi
   15b0d:	e8 e1 7b ff ff       	callq  d6f3 <transparent_crc>
   15b12:	48 8b 05 df 79 00 00 	mov    0x79df(%rip),%rax        # 1d4f8 <g_1338+0x8>
   15b19:	c1 e0 04             	shl    $0x4,%eax
   15b1c:	c1 f8 15             	sar    $0x15,%eax
   15b1f:	48 0f bf c0          	movswq %ax,%rax
   15b23:	8b 55 fc             	mov    -0x4(%rbp),%edx
   15b26:	48 8d 35 72 37 00 00 	lea    0x3772(%rip),%rsi        # 1929f <g_2177+0x1243>
   15b2d:	48 89 c7             	mov    %rax,%rdi
   15b30:	e8 be 7b ff ff       	callq  d6f3 <transparent_crc>
   15b35:	8b 05 c1 79 00 00    	mov    0x79c1(%rip),%eax        # 1d4fc <g_1347>
   15b3b:	89 c1                	mov    %eax,%ecx
   15b3d:	8b 45 fc             	mov    -0x4(%rbp),%eax
   15b40:	89 c2                	mov    %eax,%edx
   15b42:	48 8d 35 60 37 00 00 	lea    0x3760(%rip),%rsi        # 192a9 <g_2177+0x124d>
   15b49:	48 89 cf             	mov    %rcx,%rdi
   15b4c:	e8 a2 7b ff ff       	callq  d6f3 <transparent_crc>
   15b51:	0f b6 05 a8 79 00 00 	movzbl 0x79a8(%rip),%eax        # 1d500 <g_1381>
   15b58:	48 0f be c0          	movsbq %al,%rax
   15b5c:	8b 55 fc             	mov    -0x4(%rbp),%edx
   15b5f:	48 8d 35 4a 37 00 00 	lea    0x374a(%rip),%rsi        # 192b0 <g_2177+0x1254>
   15b66:	48 89 c7             	mov    %rax,%rdi
   15b69:	e8 85 7b ff ff       	callq  d6f3 <transparent_crc>
   15b6e:	48 8b 05 8b 79 00 00 	mov    0x798b(%rip),%rax        # 1d500 <g_1381>
   15b75:	48 c1 e0 19          	shl    $0x19,%rax
   15b79:	48 c1 f8 21          	sar    $0x21,%rax
   15b7d:	48 98                	cltq   
   15b7f:	8b 55 fc             	mov    -0x4(%rbp),%edx
   15b82:	48 8d 35 31 37 00 00 	lea    0x3731(%rip),%rsi        # 192ba <g_2177+0x125e>
   15b89:	48 89 c7             	mov    %rax,%rdi
   15b8c:	e8 62 7b ff ff       	callq  d6f3 <transparent_crc>
   15b91:	0f b6 05 6d 79 00 00 	movzbl 0x796d(%rip),%eax        # 1d505 <g_1381+0x5>
   15b98:	48 0f be c0          	movsbq %al,%rax
   15b9c:	8b 55 fc             	mov    -0x4(%rbp),%edx
   15b9f:	48 8d 35 1e 37 00 00 	lea    0x371e(%rip),%rsi        # 192c4 <g_2177+0x1268>
   15ba6:	48 89 c7             	mov    %rax,%rdi
   15ba9:	e8 45 7b ff ff       	callq  d6f3 <transparent_crc>
   15bae:	0f b7 05 51 79 00 00 	movzwl 0x7951(%rip),%eax        # 1d506 <g_1381+0x6>
   15bb5:	0f b6 15 4c 79 00 00 	movzbl 0x794c(%rip),%edx        # 1d508 <g_1381+0x8>
   15bbc:	83 e2 7f             	and    $0x7f,%edx
   15bbf:	48 c1 e2 10          	shl    $0x10,%rdx
   15bc3:	48 09 d0             	or     %rdx,%rax
   15bc6:	89 c1                	mov    %eax,%ecx
   15bc8:	8b 45 fc             	mov    -0x4(%rbp),%eax
   15bcb:	89 c2                	mov    %eax,%edx
   15bcd:	48 8d 35 fa 36 00 00 	lea    0x36fa(%rip),%rsi        # 192ce <g_2177+0x1272>
   15bd4:	48 89 cf             	mov    %rcx,%rdi
   15bd7:	e8 17 7b ff ff       	callq  d6f3 <transparent_crc>
   15bdc:	0f b7 05 25 79 00 00 	movzwl 0x7925(%rip),%eax        # 1d508 <g_1381+0x8>
   15be3:	c1 e0 07             	shl    $0x7,%eax
   15be6:	66 c1 f8 0e          	sar    $0xe,%ax
   15bea:	48 0f be c0          	movsbq %al,%rax
   15bee:	8b 55 fc             	mov    -0x4(%rbp),%edx
   15bf1:	48 8d 35 e0 36 00 00 	lea    0x36e0(%rip),%rsi        # 192d8 <g_2177+0x127c>
   15bf8:	48 89 c7             	mov    %rax,%rdi
   15bfb:	e8 f3 7a ff ff       	callq  d6f3 <transparent_crc>
   15c00:	8b 05 02 79 00 00    	mov    0x7902(%rip),%eax        # 1d508 <g_1381+0x8>
   15c06:	c1 e8 09             	shr    $0x9,%eax
   15c09:	80 e4 ff             	and    $0xff,%ah
   15c0c:	0f b6 c0             	movzbl %al,%eax
   15c0f:	8b 55 fc             	mov    -0x4(%rbp),%edx
   15c12:	48 8d 35 c9 36 00 00 	lea    0x36c9(%rip),%rsi        # 192e2 <g_2177+0x1286>
   15c19:	48 89 c7             	mov    %rax,%rdi
   15c1c:	e8 d2 7a ff ff       	callq  d6f3 <transparent_crc>
   15c21:	48 8b 05 e0 78 00 00 	mov    0x78e0(%rip),%rax        # 1d508 <g_1381+0x8>
   15c28:	c1 e0 04             	shl    $0x4,%eax
   15c2b:	c1 f8 15             	sar    $0x15,%eax
   15c2e:	48 0f bf c0          	movswq %ax,%rax
   15c32:	8b 55 fc             	mov    -0x4(%rbp),%edx
   15c35:	48 8d 35 b0 36 00 00 	lea    0x36b0(%rip),%rsi        # 192ec <g_2177+0x1290>
   15c3c:	48 89 c7             	mov    %rax,%rdi
   15c3f:	e8 af 7a ff ff       	callq  d6f3 <transparent_crc>
   15c44:	48 8b 05 c5 78 00 00 	mov    0x78c5(%rip),%rax        # 1d510 <g_1440>
   15c4b:	48 89 c1             	mov    %rax,%rcx
   15c4e:	8b 45 fc             	mov    -0x4(%rbp),%eax
   15c51:	89 c2                	mov    %eax,%edx
   15c53:	48 8d 35 9c 36 00 00 	lea    0x369c(%rip),%rsi        # 192f6 <g_2177+0x129a>
   15c5a:	48 89 cf             	mov    %rcx,%rdi
   15c5d:	e8 91 7a ff ff       	callq  d6f3 <transparent_crc>
   15c62:	0f b6 05 af 78 00 00 	movzbl 0x78af(%rip),%eax        # 1d518 <g_1456>
   15c69:	48 0f be c0          	movsbq %al,%rax
   15c6d:	8b 55 fc             	mov    -0x4(%rbp),%edx
   15c70:	48 8d 35 86 36 00 00 	lea    0x3686(%rip),%rsi        # 192fd <g_2177+0x12a1>
   15c77:	48 89 c7             	mov    %rax,%rdi
   15c7a:	e8 74 7a ff ff       	callq  d6f3 <transparent_crc>
   15c7f:	48 8b 05 92 78 00 00 	mov    0x7892(%rip),%rax        # 1d518 <g_1456>
   15c86:	48 c1 e0 19          	shl    $0x19,%rax
   15c8a:	48 c1 f8 21          	sar    $0x21,%rax
   15c8e:	48 98                	cltq   
   15c90:	8b 55 fc             	mov    -0x4(%rbp),%edx
   15c93:	48 8d 35 6d 36 00 00 	lea    0x366d(%rip),%rsi        # 19307 <g_2177+0x12ab>
   15c9a:	48 89 c7             	mov    %rax,%rdi
   15c9d:	e8 51 7a ff ff       	callq  d6f3 <transparent_crc>
   15ca2:	0f b6 05 74 78 00 00 	movzbl 0x7874(%rip),%eax        # 1d51d <g_1456+0x5>
   15ca9:	48 0f be c0          	movsbq %al,%rax
   15cad:	8b 55 fc             	mov    -0x4(%rbp),%edx
   15cb0:	48 8d 35 5a 36 00 00 	lea    0x365a(%rip),%rsi        # 19311 <g_2177+0x12b5>
   15cb7:	48 89 c7             	mov    %rax,%rdi
   15cba:	e8 34 7a ff ff       	callq  d6f3 <transparent_crc>
   15cbf:	0f b7 05 58 78 00 00 	movzwl 0x7858(%rip),%eax        # 1d51e <g_1456+0x6>
   15cc6:	0f b6 15 53 78 00 00 	movzbl 0x7853(%rip),%edx        # 1d520 <g_1456+0x8>
   15ccd:	83 e2 7f             	and    $0x7f,%edx
   15cd0:	48 c1 e2 10          	shl    $0x10,%rdx
   15cd4:	48 09 d0             	or     %rdx,%rax
   15cd7:	89 c1                	mov    %eax,%ecx
   15cd9:	8b 45 fc             	mov    -0x4(%rbp),%eax
   15cdc:	89 c2                	mov    %eax,%edx
   15cde:	48 8d 35 36 36 00 00 	lea    0x3636(%rip),%rsi        # 1931b <g_2177+0x12bf>
   15ce5:	48 89 cf             	mov    %rcx,%rdi
   15ce8:	e8 06 7a ff ff       	callq  d6f3 <transparent_crc>
   15ced:	0f b7 05 2c 78 00 00 	movzwl 0x782c(%rip),%eax        # 1d520 <g_1456+0x8>
   15cf4:	c1 e0 07             	shl    $0x7,%eax
   15cf7:	66 c1 f8 0e          	sar    $0xe,%ax
   15cfb:	48 0f be c0          	movsbq %al,%rax
   15cff:	8b 55 fc             	mov    -0x4(%rbp),%edx
   15d02:	48 8d 35 1c 36 00 00 	lea    0x361c(%rip),%rsi        # 19325 <g_2177+0x12c9>
   15d09:	48 89 c7             	mov    %rax,%rdi
   15d0c:	e8 e2 79 ff ff       	callq  d6f3 <transparent_crc>
   15d11:	8b 05 09 78 00 00    	mov    0x7809(%rip),%eax        # 1d520 <g_1456+0x8>
   15d17:	c1 e8 09             	shr    $0x9,%eax
   15d1a:	80 e4 ff             	and    $0xff,%ah
   15d1d:	0f b6 c0             	movzbl %al,%eax
   15d20:	8b 55 fc             	mov    -0x4(%rbp),%edx
   15d23:	48 8d 35 05 36 00 00 	lea    0x3605(%rip),%rsi        # 1932f <g_2177+0x12d3>
   15d2a:	48 89 c7             	mov    %rax,%rdi
   15d2d:	e8 c1 79 ff ff       	callq  d6f3 <transparent_crc>
   15d32:	48 8b 05 e7 77 00 00 	mov    0x77e7(%rip),%rax        # 1d520 <g_1456+0x8>
   15d39:	c1 e0 04             	shl    $0x4,%eax
   15d3c:	c1 f8 15             	sar    $0x15,%eax
   15d3f:	48 0f bf c0          	movswq %ax,%rax
   15d43:	8b 55 fc             	mov    -0x4(%rbp),%edx
   15d46:	48 8d 35 ec 35 00 00 	lea    0x35ec(%rip),%rsi        # 19339 <g_2177+0x12dd>
   15d4d:	48 89 c7             	mov    %rax,%rdi
   15d50:	e8 9e 79 ff ff       	callq  d6f3 <transparent_crc>
   15d55:	c7 45 f0 00 00 00 00 	movl   $0x0,-0x10(%rbp)
   15d5c:	e9 e2 01 00 00       	jmpq   15f43 <main+0x1ab8>
   15d61:	8b 45 f0             	mov    -0x10(%rbp),%eax
   15d64:	48 63 d0             	movslq %eax,%rdx
   15d67:	48 89 d0             	mov    %rdx,%rax
   15d6a:	48 01 c0             	add    %rax,%rax
   15d6d:	48 01 d0             	add    %rdx,%rax
   15d70:	48 c1 e0 02          	shl    $0x2,%rax
   15d74:	48 89 c2             	mov    %rax,%rdx
   15d77:	48 8d 05 c2 77 00 00 	lea    0x77c2(%rip),%rax        # 1d540 <g_1488>
   15d7e:	0f b6 04 02          	movzbl (%rdx,%rax,1),%eax
   15d82:	48 0f be c0          	movsbq %al,%rax
   15d86:	8b 55 fc             	mov    -0x4(%rbp),%edx
   15d89:	48 8d 35 b3 35 00 00 	lea    0x35b3(%rip),%rsi        # 19343 <g_2177+0x12e7>
   15d90:	48 89 c7             	mov    %rax,%rdi
   15d93:	e8 5b 79 ff ff       	callq  d6f3 <transparent_crc>
   15d98:	8b 45 f0             	mov    -0x10(%rbp),%eax
   15d9b:	48 63 d0             	movslq %eax,%rdx
   15d9e:	48 89 d0             	mov    %rdx,%rax
   15da1:	48 01 c0             	add    %rax,%rax
   15da4:	48 01 d0             	add    %rdx,%rax
   15da7:	48 c1 e0 02          	shl    $0x2,%rax
   15dab:	48 89 c2             	mov    %rax,%rdx
   15dae:	48 8d 05 8b 77 00 00 	lea    0x778b(%rip),%rax        # 1d540 <g_1488>
   15db5:	8b 0c 02             	mov    (%rdx,%rax,1),%ecx
   15db8:	c1 e9 08             	shr    $0x8,%ecx
   15dbb:	89 c9                	mov    %ecx,%ecx
   15dbd:	8b 44 02 04          	mov    0x4(%rdx,%rax,1),%eax
   15dc1:	89 c0                	mov    %eax,%eax
   15dc3:	83 e0 7f             	and    $0x7f,%eax
   15dc6:	48 c1 e0 18          	shl    $0x18,%rax
   15dca:	48 09 c8             	or     %rcx,%rax
   15dcd:	48 c1 e0 21          	shl    $0x21,%rax
   15dd1:	48 c1 f8 21          	sar    $0x21,%rax
   15dd5:	48 98                	cltq   
   15dd7:	8b 55 fc             	mov    -0x4(%rbp),%edx
   15dda:	48 8d 35 6f 35 00 00 	lea    0x356f(%rip),%rsi        # 19350 <g_2177+0x12f4>
   15de1:	48 89 c7             	mov    %rax,%rdi
   15de4:	e8 0a 79 ff ff       	callq  d6f3 <transparent_crc>
   15de9:	8b 45 f0             	mov    -0x10(%rbp),%eax
   15dec:	48 63 d0             	movslq %eax,%rdx
   15def:	48 89 d0             	mov    %rdx,%rax
   15df2:	48 01 c0             	add    %rax,%rax
   15df5:	48 01 d0             	add    %rdx,%rax
   15df8:	48 c1 e0 02          	shl    $0x2,%rax
   15dfc:	48 89 c2             	mov    %rax,%rdx
   15dff:	48 8d 05 3f 77 00 00 	lea    0x773f(%rip),%rax        # 1d545 <g_1488+0x5>
   15e06:	0f b6 04 02          	movzbl (%rdx,%rax,1),%eax
   15e0a:	48 0f be c0          	movsbq %al,%rax
   15e0e:	8b 55 fc             	mov    -0x4(%rbp),%edx
   15e11:	48 8d 35 45 35 00 00 	lea    0x3545(%rip),%rsi        # 1935d <g_2177+0x1301>
   15e18:	48 89 c7             	mov    %rax,%rdi
   15e1b:	e8 d3 78 ff ff       	callq  d6f3 <transparent_crc>
   15e20:	8b 45 f0             	mov    -0x10(%rbp),%eax
   15e23:	48 63 d0             	movslq %eax,%rdx
   15e26:	48 89 d0             	mov    %rdx,%rax
   15e29:	48 01 c0             	add    %rax,%rax
   15e2c:	48 01 d0             	add    %rdx,%rax
   15e2f:	48 c1 e0 02          	shl    $0x2,%rax
   15e33:	48 89 c2             	mov    %rax,%rdx
   15e36:	48 8d 05 03 77 00 00 	lea    0x7703(%rip),%rax        # 1d540 <g_1488>
   15e3d:	8b 4c 02 04          	mov    0x4(%rdx,%rax,1),%ecx
   15e41:	c1 e9 10             	shr    $0x10,%ecx
   15e44:	89 c9                	mov    %ecx,%ecx
   15e46:	8b 44 02 08          	mov    0x8(%rdx,%rax,1),%eax
   15e4a:	89 c0                	mov    %eax,%eax
   15e4c:	83 e0 7f             	and    $0x7f,%eax
   15e4f:	48 c1 e0 10          	shl    $0x10,%rax
   15e53:	48 09 c8             	or     %rcx,%rax
   15e56:	89 c1                	mov    %eax,%ecx
   15e58:	8b 45 fc             	mov    -0x4(%rbp),%eax
   15e5b:	89 c2                	mov    %eax,%edx
   15e5d:	48 8d 35 06 35 00 00 	lea    0x3506(%rip),%rsi        # 1936a <g_2177+0x130e>
   15e64:	48 89 cf             	mov    %rcx,%rdi
   15e67:	e8 87 78 ff ff       	callq  d6f3 <transparent_crc>
   15e6c:	8b 45 f0             	mov    -0x10(%rbp),%eax
   15e6f:	48 63 d0             	movslq %eax,%rdx
   15e72:	48 89 d0             	mov    %rdx,%rax
   15e75:	48 01 c0             	add    %rax,%rax
   15e78:	48 01 d0             	add    %rdx,%rax
   15e7b:	48 c1 e0 02          	shl    $0x2,%rax
   15e7f:	48 89 c2             	mov    %rax,%rdx
   15e82:	48 8d 05 b7 76 00 00 	lea    0x76b7(%rip),%rax        # 1d540 <g_1488>
   15e89:	8b 44 02 08          	mov    0x8(%rdx,%rax,1),%eax
   15e8d:	c1 e0 07             	shl    $0x7,%eax
   15e90:	66 c1 f8 0e          	sar    $0xe,%ax
   15e94:	48 0f be c0          	movsbq %al,%rax
   15e98:	8b 55 fc             	mov    -0x4(%rbp),%edx
   15e9b:	48 8d 35 d5 34 00 00 	lea    0x34d5(%rip),%rsi        # 19377 <g_2177+0x131b>
   15ea2:	48 89 c7             	mov    %rax,%rdi
   15ea5:	e8 49 78 ff ff       	callq  d6f3 <transparent_crc>
   15eaa:	8b 45 f0             	mov    -0x10(%rbp),%eax
   15ead:	48 63 d0             	movslq %eax,%rdx
   15eb0:	48 89 d0             	mov    %rdx,%rax
   15eb3:	48 01 c0             	add    %rax,%rax
   15eb6:	48 01 d0             	add    %rdx,%rax
   15eb9:	48 c1 e0 02          	shl    $0x2,%rax
   15ebd:	48 89 c2             	mov    %rax,%rdx
   15ec0:	48 8d 05 79 76 00 00 	lea    0x7679(%rip),%rax        # 1d540 <g_1488>
   15ec7:	8b 44 02 08          	mov    0x8(%rdx,%rax,1),%eax
   15ecb:	c1 e8 09             	shr    $0x9,%eax
   15ece:	80 e4 ff             	and    $0xff,%ah
   15ed1:	0f b6 c0             	movzbl %al,%eax
   15ed4:	8b 55 fc             	mov    -0x4(%rbp),%edx
   15ed7:	48 8d 35 a6 34 00 00 	lea    0x34a6(%rip),%rsi        # 19384 <g_2177+0x1328>
   15ede:	48 89 c7             	mov    %rax,%rdi
   15ee1:	e8 0d 78 ff ff       	callq  d6f3 <transparent_crc>
   15ee6:	8b 45 f0             	mov    -0x10(%rbp),%eax
   15ee9:	48 63 d0             	movslq %eax,%rdx
   15eec:	48 89 d0             	mov    %rdx,%rax
   15eef:	48 01 c0             	add    %rax,%rax
   15ef2:	48 01 d0             	add    %rdx,%rax
   15ef5:	48 c1 e0 02          	shl    $0x2,%rax
   15ef9:	48 89 c2             	mov    %rax,%rdx
   15efc:	48 8d 05 3d 76 00 00 	lea    0x763d(%rip),%rax        # 1d540 <g_1488>
   15f03:	8b 44 02 08          	mov    0x8(%rdx,%rax,1),%eax
   15f07:	c1 e0 04             	shl    $0x4,%eax
   15f0a:	c1 f8 15             	sar    $0x15,%eax
   15f0d:	48 0f bf c0          	movswq %ax,%rax
   15f11:	8b 55 fc             	mov    -0x4(%rbp),%edx
   15f14:	48 8d 35 76 34 00 00 	lea    0x3476(%rip),%rsi        # 19391 <g_2177+0x1335>
   15f1b:	48 89 c7             	mov    %rax,%rdi
   15f1e:	e8 d0 77 ff ff       	callq  d6f3 <transparent_crc>
   15f23:	83 7d fc 00          	cmpl   $0x0,-0x4(%rbp)
   15f27:	74 16                	je     15f3f <main+0x1ab4>
   15f29:	8b 45 f0             	mov    -0x10(%rbp),%eax
   15f2c:	89 c6                	mov    %eax,%esi
   15f2e:	48 8d 3d 52 2f 00 00 	lea    0x2f52(%rip),%rdi        # 18e87 <g_2177+0xe2b>
   15f35:	b8 00 00 00 00       	mov    $0x0,%eax
   15f3a:	e8 41 61 ff ff       	callq  c080 <printf@plt>
   15f3f:	83 45 f0 01          	addl   $0x1,-0x10(%rbp)
   15f43:	83 7d f0 08          	cmpl   $0x8,-0x10(%rbp)
   15f47:	0f 8e 14 fe ff ff    	jle    15d61 <main+0x18d6>
   15f4d:	0f b6 05 58 76 00 00 	movzbl 0x7658(%rip),%eax        # 1d5ac <g_1490>
   15f54:	0f b6 c0             	movzbl %al,%eax
   15f57:	8b 55 fc             	mov    -0x4(%rbp),%edx
   15f5a:	48 8d 35 3d 34 00 00 	lea    0x343d(%rip),%rsi        # 1939e <g_2177+0x1342>
   15f61:	48 89 c7             	mov    %rax,%rdi
   15f64:	e8 8a 77 ff ff       	callq  d6f3 <transparent_crc>
   15f69:	c7 45 f0 00 00 00 00 	movl   $0x0,-0x10(%rbp)
   15f70:	e9 dd 01 00 00       	jmpq   16152 <main+0x1cc7>
   15f75:	8b 45 f0             	mov    -0x10(%rbp),%eax
   15f78:	48 63 d0             	movslq %eax,%rdx
   15f7b:	48 89 d0             	mov    %rdx,%rax
   15f7e:	48 01 c0             	add    %rax,%rax
   15f81:	48 01 d0             	add    %rdx,%rax
   15f84:	48 c1 e0 02          	shl    $0x2,%rax
   15f88:	48 89 c2             	mov    %rax,%rdx
   15f8b:	48 8d 05 2e 76 00 00 	lea    0x762e(%rip),%rax        # 1d5c0 <g_1628>
   15f92:	0f b6 04 02          	movzbl (%rdx,%rax,1),%eax
   15f96:	48 0f be c0          	movsbq %al,%rax
   15f9a:	8b 55 fc             	mov    -0x4(%rbp),%edx
   15f9d:	48 8d 35 01 34 00 00 	lea    0x3401(%rip),%rsi        # 193a5 <g_2177+0x1349>
   15fa4:	48 89 c7             	mov    %rax,%rdi
   15fa7:	e8 47 77 ff ff       	callq  d6f3 <transparent_crc>
   15fac:	8b 45 f0             	mov    -0x10(%rbp),%eax
   15faf:	48 63 d0             	movslq %eax,%rdx
   15fb2:	48 89 d0             	mov    %rdx,%rax
   15fb5:	48 01 c0             	add    %rax,%rax
   15fb8:	48 01 d0             	add    %rdx,%rax
   15fbb:	48 c1 e0 02          	shl    $0x2,%rax
   15fbf:	48 89 c2             	mov    %rax,%rdx
   15fc2:	48 8d 05 f7 75 00 00 	lea    0x75f7(%rip),%rax        # 1d5c0 <g_1628>
   15fc9:	8b 0c 02             	mov    (%rdx,%rax,1),%ecx
   15fcc:	c1 e9 08             	shr    $0x8,%ecx
   15fcf:	89 c9                	mov    %ecx,%ecx
   15fd1:	0f b6 44 02 04       	movzbl 0x4(%rdx,%rax,1),%eax
   15fd6:	83 e0 7f             	and    $0x7f,%eax
   15fd9:	48 c1 e0 18          	shl    $0x18,%rax
   15fdd:	48 09 c8             	or     %rcx,%rax
   15fe0:	48 c1 e0 21          	shl    $0x21,%rax
   15fe4:	48 c1 f8 21          	sar    $0x21,%rax
   15fe8:	48 98                	cltq   
   15fea:	8b 55 fc             	mov    -0x4(%rbp),%edx
   15fed:	48 8d 35 be 33 00 00 	lea    0x33be(%rip),%rsi        # 193b2 <g_2177+0x1356>
   15ff4:	48 89 c7             	mov    %rax,%rdi
   15ff7:	e8 f7 76 ff ff       	callq  d6f3 <transparent_crc>
   15ffc:	8b 45 f0             	mov    -0x10(%rbp),%eax
   15fff:	48 63 d0             	movslq %eax,%rdx
   16002:	48 89 d0             	mov    %rdx,%rax
   16005:	48 01 c0             	add    %rax,%rax
   16008:	48 01 d0             	add    %rdx,%rax
   1600b:	48 c1 e0 02          	shl    $0x2,%rax
   1600f:	48 89 c2             	mov    %rax,%rdx
   16012:	48 8d 05 ac 75 00 00 	lea    0x75ac(%rip),%rax        # 1d5c5 <g_1628+0x5>
   16019:	0f b6 04 02          	movzbl (%rdx,%rax,1),%eax
   1601d:	48 0f be c0          	movsbq %al,%rax
   16021:	8b 55 fc             	mov    -0x4(%rbp),%edx
   16024:	48 8d 35 94 33 00 00 	lea    0x3394(%rip),%rsi        # 193bf <g_2177+0x1363>
   1602b:	48 89 c7             	mov    %rax,%rdi
   1602e:	e8 c0 76 ff ff       	callq  d6f3 <transparent_crc>
   16033:	8b 45 f0             	mov    -0x10(%rbp),%eax
   16036:	48 63 d0             	movslq %eax,%rdx
   16039:	48 89 d0             	mov    %rdx,%rax
   1603c:	48 01 c0             	add    %rax,%rax
   1603f:	48 01 d0             	add    %rdx,%rax
   16042:	48 c1 e0 02          	shl    $0x2,%rax
   16046:	48 89 c2             	mov    %rax,%rdx
   16049:	48 8d 05 70 75 00 00 	lea    0x7570(%rip),%rax        # 1d5c0 <g_1628>
   16050:	0f b7 4c 02 06       	movzwl 0x6(%rdx,%rax,1),%ecx
   16055:	0f b6 44 02 08       	movzbl 0x8(%rdx,%rax,1),%eax
   1605a:	83 e0 7f             	and    $0x7f,%eax
   1605d:	48 c1 e0 10          	shl    $0x10,%rax
   16061:	48 09 c8             	or     %rcx,%rax
   16064:	89 c1                	mov    %eax,%ecx
   16066:	8b 45 fc             	mov    -0x4(%rbp),%eax
   16069:	89 c2                	mov    %eax,%edx
   1606b:	48 8d 35 5a 33 00 00 	lea    0x335a(%rip),%rsi        # 193cc <g_2177+0x1370>
   16072:	48 89 cf             	mov    %rcx,%rdi
   16075:	e8 79 76 ff ff       	callq  d6f3 <transparent_crc>
   1607a:	8b 45 f0             	mov    -0x10(%rbp),%eax
   1607d:	48 63 d0             	movslq %eax,%rdx
   16080:	48 89 d0             	mov    %rdx,%rax
   16083:	48 01 c0             	add    %rax,%rax
   16086:	48 01 d0             	add    %rdx,%rax
   16089:	48 c1 e0 02          	shl    $0x2,%rax
   1608d:	48 89 c2             	mov    %rax,%rdx
   16090:	48 8d 05 29 75 00 00 	lea    0x7529(%rip),%rax        # 1d5c0 <g_1628>
   16097:	0f b7 44 02 08       	movzwl 0x8(%rdx,%rax,1),%eax
   1609c:	c1 e0 07             	shl    $0x7,%eax
   1609f:	66 c1 f8 0e          	sar    $0xe,%ax
   160a3:	48 0f be c0          	movsbq %al,%rax
   160a7:	8b 55 fc             	mov    -0x4(%rbp),%edx
   160aa:	48 8d 35 28 33 00 00 	lea    0x3328(%rip),%rsi        # 193d9 <g_2177+0x137d>
   160b1:	48 89 c7             	mov    %rax,%rdi
   160b4:	e8 3a 76 ff ff       	callq  d6f3 <transparent_crc>
   160b9:	8b 45 f0             	mov    -0x10(%rbp),%eax
   160bc:	48 63 d0             	movslq %eax,%rdx
   160bf:	48 89 d0             	mov    %rdx,%rax
   160c2:	48 01 c0             	add    %rax,%rax
   160c5:	48 01 d0             	add    %rdx,%rax
   160c8:	48 c1 e0 02          	shl    $0x2,%rax
   160cc:	48 89 c2             	mov    %rax,%rdx
   160cf:	48 8d 05 ea 74 00 00 	lea    0x74ea(%rip),%rax        # 1d5c0 <g_1628>
   160d6:	8b 44 02 08          	mov    0x8(%rdx,%rax,1),%eax
   160da:	c1 e8 09             	shr    $0x9,%eax
   160dd:	80 e4 ff             	and    $0xff,%ah
   160e0:	0f b6 c0             	movzbl %al,%eax
   160e3:	8b 55 fc             	mov    -0x4(%rbp),%edx
   160e6:	48 8d 35 f9 32 00 00 	lea    0x32f9(%rip),%rsi        # 193e6 <g_2177+0x138a>
   160ed:	48 89 c7             	mov    %rax,%rdi
   160f0:	e8 fe 75 ff ff       	callq  d6f3 <transparent_crc>
   160f5:	8b 45 f0             	mov    -0x10(%rbp),%eax
   160f8:	48 63 d0             	movslq %eax,%rdx
   160fb:	48 89 d0             	mov    %rdx,%rax
   160fe:	48 01 c0             	add    %rax,%rax
   16101:	48 01 d0             	add    %rdx,%rax
   16104:	48 c1 e0 02          	shl    $0x2,%rax
   16108:	48 89 c2             	mov    %rax,%rdx
   1610b:	48 8d 05 ae 74 00 00 	lea    0x74ae(%rip),%rax        # 1d5c0 <g_1628>
   16112:	8b 44 02 08          	mov    0x8(%rdx,%rax,1),%eax
   16116:	c1 e0 04             	shl    $0x4,%eax
   16119:	c1 f8 15             	sar    $0x15,%eax
   1611c:	48 0f bf c0          	movswq %ax,%rax
   16120:	8b 55 fc             	mov    -0x4(%rbp),%edx
   16123:	48 8d 35 c9 32 00 00 	lea    0x32c9(%rip),%rsi        # 193f3 <g_2177+0x1397>
   1612a:	48 89 c7             	mov    %rax,%rdi
   1612d:	e8 c1 75 ff ff       	callq  d6f3 <transparent_crc>
   16132:	83 7d fc 00          	cmpl   $0x0,-0x4(%rbp)
   16136:	74 16                	je     1614e <main+0x1cc3>
   16138:	8b 45 f0             	mov    -0x10(%rbp),%eax
   1613b:	89 c6                	mov    %eax,%esi
   1613d:	48 8d 3d 43 2d 00 00 	lea    0x2d43(%rip),%rdi        # 18e87 <g_2177+0xe2b>
   16144:	b8 00 00 00 00       	mov    $0x0,%eax
   16149:	e8 32 5f ff ff       	callq  c080 <printf@plt>
   1614e:	83 45 f0 01          	addl   $0x1,-0x10(%rbp)
   16152:	83 7d f0 05          	cmpl   $0x5,-0x10(%rbp)
   16156:	0f 8e 19 fe ff ff    	jle    15f75 <main+0x1aea>
   1615c:	0f b6 05 a5 74 00 00 	movzbl 0x74a5(%rip),%eax        # 1d608 <g_1631>
   16163:	48 0f be c0          	movsbq %al,%rax
   16167:	8b 55 fc             	mov    -0x4(%rbp),%edx
   1616a:	48 8d 35 8f 32 00 00 	lea    0x328f(%rip),%rsi        # 19400 <g_2177+0x13a4>
   16171:	48 89 c7             	mov    %rax,%rdi
   16174:	e8 7a 75 ff ff       	callq  d6f3 <transparent_crc>
   16179:	48 8b 05 88 74 00 00 	mov    0x7488(%rip),%rax        # 1d608 <g_1631>
   16180:	48 c1 e0 19          	shl    $0x19,%rax
   16184:	48 c1 f8 21          	sar    $0x21,%rax
   16188:	48 98                	cltq   
   1618a:	8b 55 fc             	mov    -0x4(%rbp),%edx
   1618d:	48 8d 35 76 32 00 00 	lea    0x3276(%rip),%rsi        # 1940a <g_2177+0x13ae>
   16194:	48 89 c7             	mov    %rax,%rdi
   16197:	e8 57 75 ff ff       	callq  d6f3 <transparent_crc>
   1619c:	0f b6 05 6a 74 00 00 	movzbl 0x746a(%rip),%eax        # 1d60d <g_1631+0x5>
   161a3:	48 0f be c0          	movsbq %al,%rax
   161a7:	8b 55 fc             	mov    -0x4(%rbp),%edx
   161aa:	48 8d 35 63 32 00 00 	lea    0x3263(%rip),%rsi        # 19414 <g_2177+0x13b8>
   161b1:	48 89 c7             	mov    %rax,%rdi
   161b4:	e8 3a 75 ff ff       	callq  d6f3 <transparent_crc>
   161b9:	48 8b 05 48 74 00 00 	mov    0x7448(%rip),%rax        # 1d608 <g_1631>
   161c0:	48 c1 e8 30          	shr    $0x30,%rax
   161c4:	48 89 c2             	mov    %rax,%rdx
   161c7:	48 8b 05 42 74 00 00 	mov    0x7442(%rip),%rax        # 1d610 <g_1631+0x8>
   161ce:	83 e0 7f             	and    $0x7f,%eax
   161d1:	48 c1 e0 10          	shl    $0x10,%rax
   161d5:	48 09 d0             	or     %rdx,%rax
   161d8:	89 c1                	mov    %eax,%ecx
   161da:	8b 45 fc             	mov    -0x4(%rbp),%eax
   161dd:	89 c2                	mov    %eax,%edx
   161df:	48 8d 35 38 32 00 00 	lea    0x3238(%rip),%rsi        # 1941e <g_2177+0x13c2>
   161e6:	48 89 cf             	mov    %rcx,%rdi
   161e9:	e8 05 75 ff ff       	callq  d6f3 <transparent_crc>
   161ee:	48 8b 05 1b 74 00 00 	mov    0x741b(%rip),%rax        # 1d610 <g_1631+0x8>
   161f5:	c1 e0 07             	shl    $0x7,%eax
   161f8:	66 c1 f8 0e          	sar    $0xe,%ax
   161fc:	48 0f be c0          	movsbq %al,%rax
   16200:	8b 55 fc             	mov    -0x4(%rbp),%edx
   16203:	48 8d 35 1e 32 00 00 	lea    0x321e(%rip),%rsi        # 19428 <g_2177+0x13cc>
   1620a:	48 89 c7             	mov    %rax,%rdi
   1620d:	e8 e1 74 ff ff       	callq  d6f3 <transparent_crc>
   16212:	48 8b 05 f7 73 00 00 	mov    0x73f7(%rip),%rax        # 1d610 <g_1631+0x8>
   16219:	48 c1 e8 09          	shr    $0x9,%rax
   1621d:	80 e4 ff             	and    $0xff,%ah
   16220:	0f b6 c0             	movzbl %al,%eax
   16223:	8b 55 fc             	mov    -0x4(%rbp),%edx
   16226:	48 8d 35 05 32 00 00 	lea    0x3205(%rip),%rsi        # 19432 <g_2177+0x13d6>
   1622d:	48 89 c7             	mov    %rax,%rdi
   16230:	e8 be 74 ff ff       	callq  d6f3 <transparent_crc>
   16235:	48 8b 05 d4 73 00 00 	mov    0x73d4(%rip),%rax        # 1d610 <g_1631+0x8>
   1623c:	c1 e0 04             	shl    $0x4,%eax
   1623f:	c1 f8 15             	sar    $0x15,%eax
   16242:	48 0f bf c0          	movswq %ax,%rax
   16246:	8b 55 fc             	mov    -0x4(%rbp),%edx
   16249:	48 8d 35 ec 31 00 00 	lea    0x31ec(%rip),%rsi        # 1943c <g_2177+0x13e0>
   16250:	48 89 c7             	mov    %rax,%rdi
   16253:	e8 9b 74 ff ff       	callq  d6f3 <transparent_crc>
   16258:	0f b6 05 b9 73 00 00 	movzbl 0x73b9(%rip),%eax        # 1d618 <g_1809>
   1625f:	48 0f be c0          	movsbq %al,%rax
   16263:	8b 55 fc             	mov    -0x4(%rbp),%edx
   16266:	48 8d 35 d9 31 00 00 	lea    0x31d9(%rip),%rsi        # 19446 <g_2177+0x13ea>
   1626d:	48 89 c7             	mov    %rax,%rdi
   16270:	e8 7e 74 ff ff       	callq  d6f3 <transparent_crc>
   16275:	48 8b 05 9c 73 00 00 	mov    0x739c(%rip),%rax        # 1d618 <g_1809>
   1627c:	48 c1 e0 19          	shl    $0x19,%rax
   16280:	48 c1 f8 21          	sar    $0x21,%rax
   16284:	48 98                	cltq   
   16286:	8b 55 fc             	mov    -0x4(%rbp),%edx
   16289:	48 8d 35 c0 31 00 00 	lea    0x31c0(%rip),%rsi        # 19450 <g_2177+0x13f4>
   16290:	48 89 c7             	mov    %rax,%rdi
   16293:	e8 5b 74 ff ff       	callq  d6f3 <transparent_crc>
   16298:	0f b6 05 7e 73 00 00 	movzbl 0x737e(%rip),%eax        # 1d61d <g_1809+0x5>
   1629f:	48 0f be c0          	movsbq %al,%rax
   162a3:	8b 55 fc             	mov    -0x4(%rbp),%edx
   162a6:	48 8d 35 ad 31 00 00 	lea    0x31ad(%rip),%rsi        # 1945a <g_2177+0x13fe>
   162ad:	48 89 c7             	mov    %rax,%rdi
   162b0:	e8 3e 74 ff ff       	callq  d6f3 <transparent_crc>
   162b5:	0f b7 05 62 73 00 00 	movzwl 0x7362(%rip),%eax        # 1d61e <g_1809+0x6>
   162bc:	0f b6 15 5d 73 00 00 	movzbl 0x735d(%rip),%edx        # 1d620 <g_1809+0x8>
   162c3:	83 e2 7f             	and    $0x7f,%edx
   162c6:	48 c1 e2 10          	shl    $0x10,%rdx
   162ca:	48 09 d0             	or     %rdx,%rax
   162cd:	89 c1                	mov    %eax,%ecx
   162cf:	8b 45 fc             	mov    -0x4(%rbp),%eax
   162d2:	89 c2                	mov    %eax,%edx
   162d4:	48 8d 35 89 31 00 00 	lea    0x3189(%rip),%rsi        # 19464 <g_2177+0x1408>
   162db:	48 89 cf             	mov    %rcx,%rdi
   162de:	e8 10 74 ff ff       	callq  d6f3 <transparent_crc>
   162e3:	0f b7 05 36 73 00 00 	movzwl 0x7336(%rip),%eax        # 1d620 <g_1809+0x8>
   162ea:	c1 e0 07             	shl    $0x7,%eax
   162ed:	66 c1 f8 0e          	sar    $0xe,%ax
   162f1:	48 0f be c0          	movsbq %al,%rax
   162f5:	8b 55 fc             	mov    -0x4(%rbp),%edx
   162f8:	48 8d 35 6f 31 00 00 	lea    0x316f(%rip),%rsi        # 1946e <g_2177+0x1412>
   162ff:	48 89 c7             	mov    %rax,%rdi
   16302:	e8 ec 73 ff ff       	callq  d6f3 <transparent_crc>
   16307:	8b 05 13 73 00 00    	mov    0x7313(%rip),%eax        # 1d620 <g_1809+0x8>
   1630d:	c1 e8 09             	shr    $0x9,%eax
   16310:	80 e4 ff             	and    $0xff,%ah
   16313:	0f b6 c0             	movzbl %al,%eax
   16316:	8b 55 fc             	mov    -0x4(%rbp),%edx
   16319:	48 8d 35 58 31 00 00 	lea    0x3158(%rip),%rsi        # 19478 <g_2177+0x141c>
   16320:	48 89 c7             	mov    %rax,%rdi
   16323:	e8 cb 73 ff ff       	callq  d6f3 <transparent_crc>
   16328:	48 8b 05 f1 72 00 00 	mov    0x72f1(%rip),%rax        # 1d620 <g_1809+0x8>
   1632f:	c1 e0 04             	shl    $0x4,%eax
   16332:	c1 f8 15             	sar    $0x15,%eax
   16335:	48 0f bf c0          	movswq %ax,%rax
   16339:	8b 55 fc             	mov    -0x4(%rbp),%edx
   1633c:	48 8d 35 3f 31 00 00 	lea    0x313f(%rip),%rsi        # 19482 <g_2177+0x1426>
   16343:	48 89 c7             	mov    %rax,%rdi
   16346:	e8 a8 73 ff ff       	callq  d6f3 <transparent_crc>
   1634b:	8b 05 d3 72 00 00    	mov    0x72d3(%rip),%eax        # 1d624 <g_1928>
   16351:	89 c1                	mov    %eax,%ecx
   16353:	8b 45 fc             	mov    -0x4(%rbp),%eax
   16356:	89 c2                	mov    %eax,%edx
   16358:	48 8d 35 2d 31 00 00 	lea    0x312d(%rip),%rsi        # 1948c <g_2177+0x1430>
   1635f:	48 89 cf             	mov    %rcx,%rdi
   16362:	e8 8c 73 ff ff       	callq  d6f3 <transparent_crc>
   16367:	8b 05 bb 72 00 00    	mov    0x72bb(%rip),%eax        # 1d628 <g_1992>
   1636d:	48 98                	cltq   
   1636f:	8b 55 fc             	mov    -0x4(%rbp),%edx
   16372:	48 8d 35 1a 31 00 00 	lea    0x311a(%rip),%rsi        # 19493 <g_2177+0x1437>
   16379:	48 89 c7             	mov    %rax,%rdi
   1637c:	e8 72 73 ff ff       	callq  d6f3 <transparent_crc>
   16381:	0f b6 05 a8 72 00 00 	movzbl 0x72a8(%rip),%eax        # 1d630 <g_2004>
   16388:	48 0f be c0          	movsbq %al,%rax
   1638c:	8b 55 fc             	mov    -0x4(%rbp),%edx
   1638f:	48 8d 35 04 31 00 00 	lea    0x3104(%rip),%rsi        # 1949a <g_2177+0x143e>
   16396:	48 89 c7             	mov    %rax,%rdi
   16399:	e8 55 73 ff ff       	callq  d6f3 <transparent_crc>
   1639e:	48 8b 05 8b 72 00 00 	mov    0x728b(%rip),%rax        # 1d630 <g_2004>
   163a5:	48 c1 e0 19          	shl    $0x19,%rax
   163a9:	48 c1 f8 21          	sar    $0x21,%rax
   163ad:	48 98                	cltq   
   163af:	8b 55 fc             	mov    -0x4(%rbp),%edx
   163b2:	48 8d 35 eb 30 00 00 	lea    0x30eb(%rip),%rsi        # 194a4 <g_2177+0x1448>
   163b9:	48 89 c7             	mov    %rax,%rdi
   163bc:	e8 32 73 ff ff       	callq  d6f3 <transparent_crc>
   163c1:	0f b6 05 6d 72 00 00 	movzbl 0x726d(%rip),%eax        # 1d635 <g_2004+0x5>
   163c8:	48 0f be c0          	movsbq %al,%rax
   163cc:	8b 55 fc             	mov    -0x4(%rbp),%edx
   163cf:	48 8d 35 d8 30 00 00 	lea    0x30d8(%rip),%rsi        # 194ae <g_2177+0x1452>
   163d6:	48 89 c7             	mov    %rax,%rdi
   163d9:	e8 15 73 ff ff       	callq  d6f3 <transparent_crc>
   163de:	48 8b 05 4b 72 00 00 	mov    0x724b(%rip),%rax        # 1d630 <g_2004>
   163e5:	48 c1 e8 30          	shr    $0x30,%rax
   163e9:	48 89 c2             	mov    %rax,%rdx
   163ec:	48 8b 05 45 72 00 00 	mov    0x7245(%rip),%rax        # 1d638 <g_2004+0x8>
   163f3:	83 e0 7f             	and    $0x7f,%eax
   163f6:	48 c1 e0 10          	shl    $0x10,%rax
   163fa:	48 09 d0             	or     %rdx,%rax
   163fd:	89 c1                	mov    %eax,%ecx
   163ff:	8b 45 fc             	mov    -0x4(%rbp),%eax
   16402:	89 c2                	mov    %eax,%edx
   16404:	48 8d 35 ad 30 00 00 	lea    0x30ad(%rip),%rsi        # 194b8 <g_2177+0x145c>
   1640b:	48 89 cf             	mov    %rcx,%rdi
   1640e:	e8 e0 72 ff ff       	callq  d6f3 <transparent_crc>
   16413:	48 8b 05 1e 72 00 00 	mov    0x721e(%rip),%rax        # 1d638 <g_2004+0x8>
   1641a:	c1 e0 07             	shl    $0x7,%eax
   1641d:	66 c1 f8 0e          	sar    $0xe,%ax
   16421:	48 0f be c0          	movsbq %al,%rax
   16425:	8b 55 fc             	mov    -0x4(%rbp),%edx
   16428:	48 8d 35 93 30 00 00 	lea    0x3093(%rip),%rsi        # 194c2 <g_2177+0x1466>
   1642f:	48 89 c7             	mov    %rax,%rdi
   16432:	e8 bc 72 ff ff       	callq  d6f3 <transparent_crc>
   16437:	48 8b 05 fa 71 00 00 	mov    0x71fa(%rip),%rax        # 1d638 <g_2004+0x8>
   1643e:	48 c1 e8 09          	shr    $0x9,%rax
   16442:	80 e4 ff             	and    $0xff,%ah
   16445:	0f b6 c0             	movzbl %al,%eax
   16448:	8b 55 fc             	mov    -0x4(%rbp),%edx
   1644b:	48 8d 35 7a 30 00 00 	lea    0x307a(%rip),%rsi        # 194cc <g_2177+0x1470>
   16452:	48 89 c7             	mov    %rax,%rdi
   16455:	e8 99 72 ff ff       	callq  d6f3 <transparent_crc>
   1645a:	48 8b 05 d7 71 00 00 	mov    0x71d7(%rip),%rax        # 1d638 <g_2004+0x8>
   16461:	c1 e0 04             	shl    $0x4,%eax
   16464:	c1 f8 15             	sar    $0x15,%eax
   16467:	48 0f bf c0          	movswq %ax,%rax
   1646b:	8b 55 fc             	mov    -0x4(%rbp),%edx
   1646e:	48 8d 35 61 30 00 00 	lea    0x3061(%rip),%rsi        # 194d6 <g_2177+0x147a>
   16475:	48 89 c7             	mov    %rax,%rdi
   16478:	e8 76 72 ff ff       	callq  d6f3 <transparent_crc>
   1647d:	0f b6 05 b8 71 00 00 	movzbl 0x71b8(%rip),%eax        # 1d63c <g_2057>
   16484:	48 0f be c0          	movsbq %al,%rax
   16488:	8b 55 fc             	mov    -0x4(%rbp),%edx
   1648b:	48 8d 35 4e 30 00 00 	lea    0x304e(%rip),%rsi        # 194e0 <g_2177+0x1484>
   16492:	48 89 c7             	mov    %rax,%rdi
   16495:	e8 59 72 ff ff       	callq  d6f3 <transparent_crc>
   1649a:	8b 05 b0 c9 00 00    	mov    0xc9b0(%rip),%eax        # 22e50 <g_2080>
   164a0:	48 98                	cltq   
   164a2:	8b 55 fc             	mov    -0x4(%rbp),%edx
   164a5:	48 8d 35 3b 30 00 00 	lea    0x303b(%rip),%rsi        # 194e7 <g_2177+0x148b>
   164ac:	48 89 c7             	mov    %rax,%rdi
   164af:	e8 3f 72 ff ff       	callq  d6f3 <transparent_crc>
   164b4:	8b 05 86 71 00 00    	mov    0x7186(%rip),%eax        # 1d640 <g_2126>
   164ba:	48 98                	cltq   
   164bc:	8b 55 fc             	mov    -0x4(%rbp),%edx
   164bf:	48 8d 35 28 30 00 00 	lea    0x3028(%rip),%rsi        # 194ee <g_2177+0x1492>
   164c6:	48 89 c7             	mov    %rax,%rdi
   164c9:	e8 25 72 ff ff       	callq  d6f3 <transparent_crc>
   164ce:	0f b6 05 73 71 00 00 	movzbl 0x7173(%rip),%eax        # 1d648 <g_2161>
   164d5:	48 0f be c0          	movsbq %al,%rax
   164d9:	8b 55 fc             	mov    -0x4(%rbp),%edx
   164dc:	48 8d 35 12 30 00 00 	lea    0x3012(%rip),%rsi        # 194f5 <g_2177+0x1499>
   164e3:	48 89 c7             	mov    %rax,%rdi
   164e6:	e8 08 72 ff ff       	callq  d6f3 <transparent_crc>
   164eb:	48 8b 05 56 71 00 00 	mov    0x7156(%rip),%rax        # 1d648 <g_2161>
   164f2:	48 c1 e0 19          	shl    $0x19,%rax
   164f6:	48 c1 f8 21          	sar    $0x21,%rax
   164fa:	48 98                	cltq   
   164fc:	8b 55 fc             	mov    -0x4(%rbp),%edx
   164ff:	48 8d 35 f9 2f 00 00 	lea    0x2ff9(%rip),%rsi        # 194ff <g_2177+0x14a3>
   16506:	48 89 c7             	mov    %rax,%rdi
   16509:	e8 e5 71 ff ff       	callq  d6f3 <transparent_crc>
   1650e:	0f b6 05 38 71 00 00 	movzbl 0x7138(%rip),%eax        # 1d64d <g_2161+0x5>
   16515:	48 0f be c0          	movsbq %al,%rax
   16519:	8b 55 fc             	mov    -0x4(%rbp),%edx
   1651c:	48 8d 35 e6 2f 00 00 	lea    0x2fe6(%rip),%rsi        # 19509 <g_2177+0x14ad>
   16523:	48 89 c7             	mov    %rax,%rdi
   16526:	e8 c8 71 ff ff       	callq  d6f3 <transparent_crc>
   1652b:	0f b7 05 1c 71 00 00 	movzwl 0x711c(%rip),%eax        # 1d64e <g_2161+0x6>
   16532:	0f b6 15 17 71 00 00 	movzbl 0x7117(%rip),%edx        # 1d650 <g_2161+0x8>
   16539:	83 e2 7f             	and    $0x7f,%edx
   1653c:	48 c1 e2 10          	shl    $0x10,%rdx
   16540:	48 09 d0             	or     %rdx,%rax
   16543:	89 c1                	mov    %eax,%ecx
   16545:	8b 45 fc             	mov    -0x4(%rbp),%eax
   16548:	89 c2                	mov    %eax,%edx
   1654a:	48 8d 35 c2 2f 00 00 	lea    0x2fc2(%rip),%rsi        # 19513 <g_2177+0x14b7>
   16551:	48 89 cf             	mov    %rcx,%rdi
   16554:	e8 9a 71 ff ff       	callq  d6f3 <transparent_crc>
   16559:	0f b7 05 f0 70 00 00 	movzwl 0x70f0(%rip),%eax        # 1d650 <g_2161+0x8>
   16560:	c1 e0 07             	shl    $0x7,%eax
   16563:	66 c1 f8 0e          	sar    $0xe,%ax
   16567:	48 0f be c0          	movsbq %al,%rax
   1656b:	8b 55 fc             	mov    -0x4(%rbp),%edx
   1656e:	48 8d 35 a8 2f 00 00 	lea    0x2fa8(%rip),%rsi        # 1951d <g_2177+0x14c1>
   16575:	48 89 c7             	mov    %rax,%rdi
   16578:	e8 76 71 ff ff       	callq  d6f3 <transparent_crc>
   1657d:	8b 05 cd 70 00 00    	mov    0x70cd(%rip),%eax        # 1d650 <g_2161+0x8>
   16583:	c1 e8 09             	shr    $0x9,%eax
   16586:	80 e4 ff             	and    $0xff,%ah
   16589:	0f b6 c0             	movzbl %al,%eax
   1658c:	8b 55 fc             	mov    -0x4(%rbp),%edx
   1658f:	48 8d 35 91 2f 00 00 	lea    0x2f91(%rip),%rsi        # 19527 <g_2177+0x14cb>
   16596:	48 89 c7             	mov    %rax,%rdi
   16599:	e8 55 71 ff ff       	callq  d6f3 <transparent_crc>
   1659e:	48 8b 05 ab 70 00 00 	mov    0x70ab(%rip),%rax        # 1d650 <g_2161+0x8>
   165a5:	c1 e0 04             	shl    $0x4,%eax
   165a8:	c1 f8 15             	sar    $0x15,%eax
   165ab:	48 0f bf c0          	movswq %ax,%rax
   165af:	8b 55 fc             	mov    -0x4(%rbp),%edx
   165b2:	48 8d 35 78 2f 00 00 	lea    0x2f78(%rip),%rsi        # 19531 <g_2177+0x14d5>
   165b9:	48 89 c7             	mov    %rax,%rdi
   165bc:	e8 32 71 ff ff       	callq  d6f3 <transparent_crc>
   165c1:	c7 45 f0 00 00 00 00 	movl   $0x0,-0x10(%rbp)
   165c8:	e9 b5 02 00 00       	jmpq   16882 <main+0x23f7>
   165cd:	c7 45 f4 00 00 00 00 	movl   $0x0,-0xc(%rbp)
   165d4:	e9 9b 02 00 00       	jmpq   16874 <main+0x23e9>
   165d9:	8b 45 f4             	mov    -0xc(%rbp),%eax
   165dc:	48 98                	cltq   
   165de:	8b 55 f0             	mov    -0x10(%rbp),%edx
   165e1:	48 63 ca             	movslq %edx,%rcx
   165e4:	48 89 c2             	mov    %rax,%rdx
   165e7:	48 01 d2             	add    %rdx,%rdx
   165ea:	48 01 c2             	add    %rax,%rdx
   165ed:	48 8d 04 95 00 00 00 	lea    0x0(,%rdx,4),%rax
   165f4:	00 
   165f5:	48 89 c2             	mov    %rax,%rdx
   165f8:	48 89 c8             	mov    %rcx,%rax
   165fb:	48 01 c0             	add    %rax,%rax
   165fe:	48 01 c8             	add    %rcx,%rax
   16601:	48 c1 e0 05          	shl    $0x5,%rax
   16605:	48 01 c2             	add    %rax,%rdx
   16608:	48 8d 05 51 70 00 00 	lea    0x7051(%rip),%rax        # 1d660 <g_2162>
   1660f:	48 01 d0             	add    %rdx,%rax
   16612:	0f b6 00             	movzbl (%rax),%eax
   16615:	48 0f be c0          	movsbq %al,%rax
   16619:	8b 55 fc             	mov    -0x4(%rbp),%edx
   1661c:	48 8d 35 18 2f 00 00 	lea    0x2f18(%rip),%rsi        # 1953b <g_2177+0x14df>
   16623:	48 89 c7             	mov    %rax,%rdi
   16626:	e8 c8 70 ff ff       	callq  d6f3 <transparent_crc>
   1662b:	8b 45 f4             	mov    -0xc(%rbp),%eax
   1662e:	48 98                	cltq   
   16630:	8b 55 f0             	mov    -0x10(%rbp),%edx
   16633:	48 63 ca             	movslq %edx,%rcx
   16636:	48 89 c2             	mov    %rax,%rdx
   16639:	48 01 d2             	add    %rdx,%rdx
   1663c:	48 01 c2             	add    %rax,%rdx
   1663f:	48 8d 04 95 00 00 00 	lea    0x0(,%rdx,4),%rax
   16646:	00 
   16647:	48 89 c2             	mov    %rax,%rdx
   1664a:	48 89 c8             	mov    %rcx,%rax
   1664d:	48 01 c0             	add    %rax,%rax
   16650:	48 01 c8             	add    %rcx,%rax
   16653:	48 c1 e0 05          	shl    $0x5,%rax
   16657:	48 01 c2             	add    %rax,%rdx
   1665a:	48 8d 05 ff 6f 00 00 	lea    0x6fff(%rip),%rax        # 1d660 <g_2162>
   16661:	48 01 d0             	add    %rdx,%rax
   16664:	8b 10                	mov    (%rax),%edx
   16666:	c1 ea 08             	shr    $0x8,%edx
   16669:	89 d2                	mov    %edx,%edx
   1666b:	0f b6 40 04          	movzbl 0x4(%rax),%eax
   1666f:	83 e0 7f             	and    $0x7f,%eax
   16672:	48 c1 e0 18          	shl    $0x18,%rax
   16676:	48 09 d0             	or     %rdx,%rax
   16679:	48 c1 e0 21          	shl    $0x21,%rax
   1667d:	48 c1 f8 21          	sar    $0x21,%rax
   16681:	48 98                	cltq   
   16683:	8b 55 fc             	mov    -0x4(%rbp),%edx
   16686:	48 8d 35 be 2e 00 00 	lea    0x2ebe(%rip),%rsi        # 1954b <g_2177+0x14ef>
   1668d:	48 89 c7             	mov    %rax,%rdi
   16690:	e8 5e 70 ff ff       	callq  d6f3 <transparent_crc>
   16695:	8b 45 f4             	mov    -0xc(%rbp),%eax
   16698:	48 98                	cltq   
   1669a:	8b 55 f0             	mov    -0x10(%rbp),%edx
   1669d:	48 63 ca             	movslq %edx,%rcx
   166a0:	48 89 c2             	mov    %rax,%rdx
   166a3:	48 01 d2             	add    %rdx,%rdx
   166a6:	48 01 c2             	add    %rax,%rdx
   166a9:	48 8d 04 95 00 00 00 	lea    0x0(,%rdx,4),%rax
   166b0:	00 
   166b1:	48 89 c2             	mov    %rax,%rdx
   166b4:	48 89 c8             	mov    %rcx,%rax
   166b7:	48 01 c0             	add    %rax,%rax
   166ba:	48 01 c8             	add    %rcx,%rax
   166bd:	48 c1 e0 05          	shl    $0x5,%rax
   166c1:	48 01 c2             	add    %rax,%rdx
   166c4:	48 8d 05 9a 6f 00 00 	lea    0x6f9a(%rip),%rax        # 1d665 <g_2162+0x5>
   166cb:	48 01 d0             	add    %rdx,%rax
   166ce:	0f b6 00             	movzbl (%rax),%eax
   166d1:	48 0f be c0          	movsbq %al,%rax
   166d5:	8b 55 fc             	mov    -0x4(%rbp),%edx
   166d8:	48 8d 35 7c 2e 00 00 	lea    0x2e7c(%rip),%rsi        # 1955b <g_2177+0x14ff>
   166df:	48 89 c7             	mov    %rax,%rdi
   166e2:	e8 0c 70 ff ff       	callq  d6f3 <transparent_crc>
   166e7:	8b 45 f4             	mov    -0xc(%rbp),%eax
   166ea:	48 98                	cltq   
   166ec:	8b 55 f0             	mov    -0x10(%rbp),%edx
   166ef:	48 63 ca             	movslq %edx,%rcx
   166f2:	48 89 c2             	mov    %rax,%rdx
   166f5:	48 01 d2             	add    %rdx,%rdx
   166f8:	48 01 c2             	add    %rax,%rdx
   166fb:	48 8d 04 95 00 00 00 	lea    0x0(,%rdx,4),%rax
   16702:	00 
   16703:	48 89 c2             	mov    %rax,%rdx
   16706:	48 89 c8             	mov    %rcx,%rax
   16709:	48 01 c0             	add    %rax,%rax
   1670c:	48 01 c8             	add    %rcx,%rax
   1670f:	48 c1 e0 05          	shl    $0x5,%rax
   16713:	48 01 c2             	add    %rax,%rdx
   16716:	48 8d 05 43 6f 00 00 	lea    0x6f43(%rip),%rax        # 1d660 <g_2162>
   1671d:	48 01 d0             	add    %rdx,%rax
   16720:	0f b7 50 06          	movzwl 0x6(%rax),%edx
   16724:	0f b6 40 08          	movzbl 0x8(%rax),%eax
   16728:	83 e0 7f             	and    $0x7f,%eax
   1672b:	48 c1 e0 10          	shl    $0x10,%rax
   1672f:	48 09 d0             	or     %rdx,%rax
   16732:	89 c1                	mov    %eax,%ecx
   16734:	8b 45 fc             	mov    -0x4(%rbp),%eax
   16737:	89 c2                	mov    %eax,%edx
   16739:	48 8d 35 2b 2e 00 00 	lea    0x2e2b(%rip),%rsi        # 1956b <g_2177+0x150f>
   16740:	48 89 cf             	mov    %rcx,%rdi
   16743:	e8 ab 6f ff ff       	callq  d6f3 <transparent_crc>
   16748:	8b 45 f4             	mov    -0xc(%rbp),%eax
   1674b:	48 98                	cltq   
   1674d:	8b 55 f0             	mov    -0x10(%rbp),%edx
   16750:	48 63 ca             	movslq %edx,%rcx
   16753:	48 89 c2             	mov    %rax,%rdx
   16756:	48 01 d2             	add    %rdx,%rdx
   16759:	48 01 c2             	add    %rax,%rdx
   1675c:	48 8d 04 95 00 00 00 	lea    0x0(,%rdx,4),%rax
   16763:	00 
   16764:	48 89 c2             	mov    %rax,%rdx
   16767:	48 89 c8             	mov    %rcx,%rax
   1676a:	48 01 c0             	add    %rax,%rax
   1676d:	48 01 c8             	add    %rcx,%rax
   16770:	48 c1 e0 05          	shl    $0x5,%rax
   16774:	48 01 c2             	add    %rax,%rdx
   16777:	48 8d 05 e2 6e 00 00 	lea    0x6ee2(%rip),%rax        # 1d660 <g_2162>
   1677e:	48 01 d0             	add    %rdx,%rax
   16781:	0f b7 40 08          	movzwl 0x8(%rax),%eax
   16785:	c1 e0 07             	shl    $0x7,%eax
   16788:	66 c1 f8 0e          	sar    $0xe,%ax
   1678c:	48 0f be c0          	movsbq %al,%rax
   16790:	8b 55 fc             	mov    -0x4(%rbp),%edx
   16793:	48 8d 35 e1 2d 00 00 	lea    0x2de1(%rip),%rsi        # 1957b <g_2177+0x151f>
   1679a:	48 89 c7             	mov    %rax,%rdi
   1679d:	e8 51 6f ff ff       	callq  d6f3 <transparent_crc>
   167a2:	8b 45 f4             	mov    -0xc(%rbp),%eax
   167a5:	48 98                	cltq   
   167a7:	8b 55 f0             	mov    -0x10(%rbp),%edx
   167aa:	48 63 ca             	movslq %edx,%rcx
   167ad:	48 89 c2             	mov    %rax,%rdx
   167b0:	48 01 d2             	add    %rdx,%rdx
   167b3:	48 01 c2             	add    %rax,%rdx
   167b6:	48 8d 04 95 00 00 00 	lea    0x0(,%rdx,4),%rax
   167bd:	00 
   167be:	48 89 c2             	mov    %rax,%rdx
   167c1:	48 89 c8             	mov    %rcx,%rax
   167c4:	48 01 c0             	add    %rax,%rax
   167c7:	48 01 c8             	add    %rcx,%rax
   167ca:	48 c1 e0 05          	shl    $0x5,%rax
   167ce:	48 01 c2             	add    %rax,%rdx
   167d1:	48 8d 05 88 6e 00 00 	lea    0x6e88(%rip),%rax        # 1d660 <g_2162>
   167d8:	48 01 d0             	add    %rdx,%rax
   167db:	8b 40 08             	mov    0x8(%rax),%eax
   167de:	c1 e8 09             	shr    $0x9,%eax
   167e1:	80 e4 ff             	and    $0xff,%ah
   167e4:	0f b6 c0             	movzbl %al,%eax
   167e7:	8b 55 fc             	mov    -0x4(%rbp),%edx
   167ea:	48 8d 35 9a 2d 00 00 	lea    0x2d9a(%rip),%rsi        # 1958b <g_2177+0x152f>
   167f1:	48 89 c7             	mov    %rax,%rdi
   167f4:	e8 fa 6e ff ff       	callq  d6f3 <transparent_crc>
   167f9:	8b 45 f4             	mov    -0xc(%rbp),%eax
   167fc:	48 98                	cltq   
   167fe:	8b 55 f0             	mov    -0x10(%rbp),%edx
   16801:	48 63 ca             	movslq %edx,%rcx
   16804:	48 89 c2             	mov    %rax,%rdx
   16807:	48 01 d2             	add    %rdx,%rdx
   1680a:	48 01 c2             	add    %rax,%rdx
   1680d:	48 8d 04 95 00 00 00 	lea    0x0(,%rdx,4),%rax
   16814:	00 
   16815:	48 89 c2             	mov    %rax,%rdx
   16818:	48 89 c8             	mov    %rcx,%rax
   1681b:	48 01 c0             	add    %rax,%rax
   1681e:	48 01 c8             	add    %rcx,%rax
   16821:	48 c1 e0 05          	shl    $0x5,%rax
   16825:	48 01 c2             	add    %rax,%rdx
   16828:	48 8d 05 31 6e 00 00 	lea    0x6e31(%rip),%rax        # 1d660 <g_2162>
   1682f:	48 01 d0             	add    %rdx,%rax
   16832:	8b 40 08             	mov    0x8(%rax),%eax
   16835:	c1 e0 04             	shl    $0x4,%eax
   16838:	c1 f8 15             	sar    $0x15,%eax
   1683b:	48 0f bf c0          	movswq %ax,%rax
   1683f:	8b 55 fc             	mov    -0x4(%rbp),%edx
   16842:	48 8d 35 52 2d 00 00 	lea    0x2d52(%rip),%rsi        # 1959b <g_2177+0x153f>
   16849:	48 89 c7             	mov    %rax,%rdi
   1684c:	e8 a2 6e ff ff       	callq  d6f3 <transparent_crc>
   16851:	83 7d fc 00          	cmpl   $0x0,-0x4(%rbp)
   16855:	74 19                	je     16870 <main+0x23e5>
   16857:	8b 55 f4             	mov    -0xc(%rbp),%edx
   1685a:	8b 45 f0             	mov    -0x10(%rbp),%eax
   1685d:	89 c6                	mov    %eax,%esi
   1685f:	48 8d 3d 8f 26 00 00 	lea    0x268f(%rip),%rdi        # 18ef5 <g_2177+0xe99>
   16866:	b8 00 00 00 00       	mov    $0x0,%eax
   1686b:	e8 10 58 ff ff       	callq  c080 <printf@plt>
   16870:	83 45 f4 01          	addl   $0x1,-0xc(%rbp)
   16874:	83 7d f4 07          	cmpl   $0x7,-0xc(%rbp)
   16878:	0f 8e 5b fd ff ff    	jle    165d9 <main+0x214e>
   1687e:	83 45 f0 01          	addl   $0x1,-0x10(%rbp)
   16882:	83 7d f0 09          	cmpl   $0x9,-0x10(%rbp)
   16886:	0f 8e 41 fd ff ff    	jle    165cd <main+0x2142>
   1688c:	0f b6 05 8d 71 00 00 	movzbl 0x718d(%rip),%eax        # 1da20 <g_2163>
   16893:	48 0f be c0          	movsbq %al,%rax
   16897:	8b 55 fc             	mov    -0x4(%rbp),%edx
   1689a:	48 8d 35 0a 2d 00 00 	lea    0x2d0a(%rip),%rsi        # 195ab <g_2177+0x154f>
   168a1:	48 89 c7             	mov    %rax,%rdi
   168a4:	e8 4a 6e ff ff       	callq  d6f3 <transparent_crc>
   168a9:	48 8b 05 70 71 00 00 	mov    0x7170(%rip),%rax        # 1da20 <g_2163>
   168b0:	48 c1 e0 19          	shl    $0x19,%rax
   168b4:	48 c1 f8 21          	sar    $0x21,%rax
   168b8:	48 98                	cltq   
   168ba:	8b 55 fc             	mov    -0x4(%rbp),%edx
   168bd:	48 8d 35 f1 2c 00 00 	lea    0x2cf1(%rip),%rsi        # 195b5 <g_2177+0x1559>
   168c4:	48 89 c7             	mov    %rax,%rdi
   168c7:	e8 27 6e ff ff       	callq  d6f3 <transparent_crc>
   168cc:	0f b6 05 52 71 00 00 	movzbl 0x7152(%rip),%eax        # 1da25 <g_2163+0x5>
   168d3:	48 0f be c0          	movsbq %al,%rax
   168d7:	8b 55 fc             	mov    -0x4(%rbp),%edx
   168da:	48 8d 35 de 2c 00 00 	lea    0x2cde(%rip),%rsi        # 195bf <g_2177+0x1563>
   168e1:	48 89 c7             	mov    %rax,%rdi
   168e4:	e8 0a 6e ff ff       	callq  d6f3 <transparent_crc>
   168e9:	0f b7 05 36 71 00 00 	movzwl 0x7136(%rip),%eax        # 1da26 <g_2163+0x6>
   168f0:	0f b6 15 31 71 00 00 	movzbl 0x7131(%rip),%edx        # 1da28 <g_2163+0x8>
   168f7:	83 e2 7f             	and    $0x7f,%edx
   168fa:	48 c1 e2 10          	shl    $0x10,%rdx
   168fe:	48 09 d0             	or     %rdx,%rax
   16901:	89 c1                	mov    %eax,%ecx
   16903:	8b 45 fc             	mov    -0x4(%rbp),%eax
   16906:	89 c2                	mov    %eax,%edx
   16908:	48 8d 35 ba 2c 00 00 	lea    0x2cba(%rip),%rsi        # 195c9 <g_2177+0x156d>
   1690f:	48 89 cf             	mov    %rcx,%rdi
   16912:	e8 dc 6d ff ff       	callq  d6f3 <transparent_crc>
   16917:	0f b7 05 0a 71 00 00 	movzwl 0x710a(%rip),%eax        # 1da28 <g_2163+0x8>
   1691e:	c1 e0 07             	shl    $0x7,%eax
   16921:	66 c1 f8 0e          	sar    $0xe,%ax
   16925:	48 0f be c0          	movsbq %al,%rax
   16929:	8b 55 fc             	mov    -0x4(%rbp),%edx
   1692c:	48 8d 35 a0 2c 00 00 	lea    0x2ca0(%rip),%rsi        # 195d3 <g_2177+0x1577>
   16933:	48 89 c7             	mov    %rax,%rdi
   16936:	e8 b8 6d ff ff       	callq  d6f3 <transparent_crc>
   1693b:	8b 05 e7 70 00 00    	mov    0x70e7(%rip),%eax        # 1da28 <g_2163+0x8>
   16941:	c1 e8 09             	shr    $0x9,%eax
   16944:	80 e4 ff             	and    $0xff,%ah
   16947:	0f b6 c0             	movzbl %al,%eax
   1694a:	8b 55 fc             	mov    -0x4(%rbp),%edx
   1694d:	48 8d 35 89 2c 00 00 	lea    0x2c89(%rip),%rsi        # 195dd <g_2177+0x1581>
   16954:	48 89 c7             	mov    %rax,%rdi
   16957:	e8 97 6d ff ff       	callq  d6f3 <transparent_crc>
   1695c:	48 8b 05 c5 70 00 00 	mov    0x70c5(%rip),%rax        # 1da28 <g_2163+0x8>
   16963:	c1 e0 04             	shl    $0x4,%eax
   16966:	c1 f8 15             	sar    $0x15,%eax
   16969:	48 0f bf c0          	movswq %ax,%rax
   1696d:	8b 55 fc             	mov    -0x4(%rbp),%edx
   16970:	48 8d 35 70 2c 00 00 	lea    0x2c70(%rip),%rsi        # 195e7 <g_2177+0x158b>
   16977:	48 89 c7             	mov    %rax,%rdi
   1697a:	e8 74 6d ff ff       	callq  d6f3 <transparent_crc>
   1697f:	0f b6 05 aa 70 00 00 	movzbl 0x70aa(%rip),%eax        # 1da30 <g_2164>
   16986:	48 0f be c0          	movsbq %al,%rax
   1698a:	8b 55 fc             	mov    -0x4(%rbp),%edx
   1698d:	48 8d 35 5d 2c 00 00 	lea    0x2c5d(%rip),%rsi        # 195f1 <g_2177+0x1595>
   16994:	48 89 c7             	mov    %rax,%rdi
   16997:	e8 57 6d ff ff       	callq  d6f3 <transparent_crc>
   1699c:	48 8b 05 8d 70 00 00 	mov    0x708d(%rip),%rax        # 1da30 <g_2164>
   169a3:	48 c1 e0 19          	shl    $0x19,%rax
   169a7:	48 c1 f8 21          	sar    $0x21,%rax
   169ab:	48 98                	cltq   
   169ad:	8b 55 fc             	mov    -0x4(%rbp),%edx
   169b0:	48 8d 35 44 2c 00 00 	lea    0x2c44(%rip),%rsi        # 195fb <g_2177+0x159f>
   169b7:	48 89 c7             	mov    %rax,%rdi
   169ba:	e8 34 6d ff ff       	callq  d6f3 <transparent_crc>
   169bf:	0f b6 05 6f 70 00 00 	movzbl 0x706f(%rip),%eax        # 1da35 <g_2164+0x5>
   169c6:	48 0f be c0          	movsbq %al,%rax
   169ca:	8b 55 fc             	mov    -0x4(%rbp),%edx
   169cd:	48 8d 35 31 2c 00 00 	lea    0x2c31(%rip),%rsi        # 19605 <g_2177+0x15a9>
   169d4:	48 89 c7             	mov    %rax,%rdi
   169d7:	e8 17 6d ff ff       	callq  d6f3 <transparent_crc>
   169dc:	0f b7 05 53 70 00 00 	movzwl 0x7053(%rip),%eax        # 1da36 <g_2164+0x6>
   169e3:	0f b6 15 4e 70 00 00 	movzbl 0x704e(%rip),%edx        # 1da38 <g_2164+0x8>
   169ea:	83 e2 7f             	and    $0x7f,%edx
   169ed:	48 c1 e2 10          	shl    $0x10,%rdx
   169f1:	48 09 d0             	or     %rdx,%rax
   169f4:	89 c1                	mov    %eax,%ecx
   169f6:	8b 45 fc             	mov    -0x4(%rbp),%eax
   169f9:	89 c2                	mov    %eax,%edx
   169fb:	48 8d 35 0d 2c 00 00 	lea    0x2c0d(%rip),%rsi        # 1960f <g_2177+0x15b3>
   16a02:	48 89 cf             	mov    %rcx,%rdi
   16a05:	e8 e9 6c ff ff       	callq  d6f3 <transparent_crc>
   16a0a:	0f b7 05 27 70 00 00 	movzwl 0x7027(%rip),%eax        # 1da38 <g_2164+0x8>
   16a11:	c1 e0 07             	shl    $0x7,%eax
   16a14:	66 c1 f8 0e          	sar    $0xe,%ax
   16a18:	48 0f be c0          	movsbq %al,%rax
   16a1c:	8b 55 fc             	mov    -0x4(%rbp),%edx
   16a1f:	48 8d 35 f3 2b 00 00 	lea    0x2bf3(%rip),%rsi        # 19619 <g_2177+0x15bd>
   16a26:	48 89 c7             	mov    %rax,%rdi
   16a29:	e8 c5 6c ff ff       	callq  d6f3 <transparent_crc>
   16a2e:	8b 05 04 70 00 00    	mov    0x7004(%rip),%eax        # 1da38 <g_2164+0x8>
   16a34:	c1 e8 09             	shr    $0x9,%eax
   16a37:	80 e4 ff             	and    $0xff,%ah
   16a3a:	0f b6 c0             	movzbl %al,%eax
   16a3d:	8b 55 fc             	mov    -0x4(%rbp),%edx
   16a40:	48 8d 35 dc 2b 00 00 	lea    0x2bdc(%rip),%rsi        # 19623 <g_2177+0x15c7>
   16a47:	48 89 c7             	mov    %rax,%rdi
   16a4a:	e8 a4 6c ff ff       	callq  d6f3 <transparent_crc>
   16a4f:	48 8b 05 e2 6f 00 00 	mov    0x6fe2(%rip),%rax        # 1da38 <g_2164+0x8>
   16a56:	c1 e0 04             	shl    $0x4,%eax
   16a59:	c1 f8 15             	sar    $0x15,%eax
   16a5c:	48 0f bf c0          	movswq %ax,%rax
   16a60:	8b 55 fc             	mov    -0x4(%rbp),%edx
   16a63:	48 8d 35 c3 2b 00 00 	lea    0x2bc3(%rip),%rsi        # 1962d <g_2177+0x15d1>
   16a6a:	48 89 c7             	mov    %rax,%rdi
   16a6d:	e8 81 6c ff ff       	callq  d6f3 <transparent_crc>
   16a72:	c7 45 f0 00 00 00 00 	movl   $0x0,-0x10(%rbp)
   16a79:	e9 c7 03 00 00       	jmpq   16e45 <main+0x29ba>
   16a7e:	c7 45 f4 00 00 00 00 	movl   $0x0,-0xc(%rbp)
   16a85:	e9 ad 03 00 00       	jmpq   16e37 <main+0x29ac>
   16a8a:	c7 45 f8 00 00 00 00 	movl   $0x0,-0x8(%rbp)
   16a91:	e9 93 03 00 00       	jmpq   16e29 <main+0x299e>
   16a96:	8b 45 f8             	mov    -0x8(%rbp),%eax
   16a99:	48 98                	cltq   
   16a9b:	8b 55 f4             	mov    -0xc(%rbp),%edx
   16a9e:	48 63 f2             	movslq %edx,%rsi
   16aa1:	8b 55 f0             	mov    -0x10(%rbp),%edx
   16aa4:	48 63 ca             	movslq %edx,%rcx
   16aa7:	48 89 c2             	mov    %rax,%rdx
   16aaa:	48 01 d2             	add    %rdx,%rdx
   16aad:	48 01 c2             	add    %rax,%rdx
   16ab0:	48 8d 04 95 00 00 00 	lea    0x0(,%rdx,4),%rax
   16ab7:	00 
   16ab8:	48 89 c2             	mov    %rax,%rdx
   16abb:	48 89 f0             	mov    %rsi,%rax
   16abe:	48 01 c0             	add    %rax,%rax
   16ac1:	48 01 f0             	add    %rsi,%rax
   16ac4:	48 c1 e0 03          	shl    $0x3,%rax
   16ac8:	48 8d 34 02          	lea    (%rdx,%rax,1),%rsi
   16acc:	48 89 c8             	mov    %rcx,%rax
   16acf:	48 01 c0             	add    %rax,%rax
   16ad2:	48 01 c8             	add    %rcx,%rax
   16ad5:	48 8d 14 c5 00 00 00 	lea    0x0(,%rax,8),%rdx
   16adc:	00 
   16add:	48 01 d0             	add    %rdx,%rax
   16ae0:	48 c1 e0 03          	shl    $0x3,%rax
   16ae4:	48 8d 14 06          	lea    (%rsi,%rax,1),%rdx
   16ae8:	48 8d 05 51 6f 00 00 	lea    0x6f51(%rip),%rax        # 1da40 <g_2165>
   16aef:	48 01 d0             	add    %rdx,%rax
   16af2:	0f b6 00             	movzbl (%rax),%eax
   16af5:	48 0f be c0          	movsbq %al,%rax
   16af9:	8b 55 fc             	mov    -0x4(%rbp),%edx
   16afc:	48 8d 35 34 2b 00 00 	lea    0x2b34(%rip),%rsi        # 19637 <g_2177+0x15db>
   16b03:	48 89 c7             	mov    %rax,%rdi
   16b06:	e8 e8 6b ff ff       	callq  d6f3 <transparent_crc>
   16b0b:	8b 45 f8             	mov    -0x8(%rbp),%eax
   16b0e:	48 98                	cltq   
   16b10:	8b 55 f4             	mov    -0xc(%rbp),%edx
   16b13:	48 63 f2             	movslq %edx,%rsi
   16b16:	8b 55 f0             	mov    -0x10(%rbp),%edx
   16b19:	48 63 ca             	movslq %edx,%rcx
   16b1c:	48 89 c2             	mov    %rax,%rdx
   16b1f:	48 01 d2             	add    %rdx,%rdx
   16b22:	48 01 c2             	add    %rax,%rdx
   16b25:	48 8d 04 95 00 00 00 	lea    0x0(,%rdx,4),%rax
   16b2c:	00 
   16b2d:	48 89 c2             	mov    %rax,%rdx
   16b30:	48 89 f0             	mov    %rsi,%rax
   16b33:	48 01 c0             	add    %rax,%rax
   16b36:	48 01 f0             	add    %rsi,%rax
   16b39:	48 c1 e0 03          	shl    $0x3,%rax
   16b3d:	48 8d 34 02          	lea    (%rdx,%rax,1),%rsi
   16b41:	48 89 c8             	mov    %rcx,%rax
   16b44:	48 01 c0             	add    %rax,%rax
   16b47:	48 01 c8             	add    %rcx,%rax
   16b4a:	48 8d 14 c5 00 00 00 	lea    0x0(,%rax,8),%rdx
   16b51:	00 
   16b52:	48 01 d0             	add    %rdx,%rax
   16b55:	48 c1 e0 03          	shl    $0x3,%rax
   16b59:	48 8d 14 06          	lea    (%rsi,%rax,1),%rdx
   16b5d:	48 8d 05 dc 6e 00 00 	lea    0x6edc(%rip),%rax        # 1da40 <g_2165>
   16b64:	48 01 d0             	add    %rdx,%rax
   16b67:	8b 10                	mov    (%rax),%edx
   16b69:	c1 ea 08             	shr    $0x8,%edx
   16b6c:	89 d2                	mov    %edx,%edx
   16b6e:	0f b6 40 04          	movzbl 0x4(%rax),%eax
   16b72:	83 e0 7f             	and    $0x7f,%eax
   16b75:	48 c1 e0 18          	shl    $0x18,%rax
   16b79:	48 09 d0             	or     %rdx,%rax
   16b7c:	48 c1 e0 21          	shl    $0x21,%rax
   16b80:	48 c1 f8 21          	sar    $0x21,%rax
   16b84:	48 98                	cltq   
   16b86:	8b 55 fc             	mov    -0x4(%rbp),%edx
   16b89:	48 8d 35 ba 2a 00 00 	lea    0x2aba(%rip),%rsi        # 1964a <g_2177+0x15ee>
   16b90:	48 89 c7             	mov    %rax,%rdi
   16b93:	e8 5b 6b ff ff       	callq  d6f3 <transparent_crc>
   16b98:	8b 45 f8             	mov    -0x8(%rbp),%eax
   16b9b:	48 98                	cltq   
   16b9d:	8b 55 f4             	mov    -0xc(%rbp),%edx
   16ba0:	48 63 f2             	movslq %edx,%rsi
   16ba3:	8b 55 f0             	mov    -0x10(%rbp),%edx
   16ba6:	48 63 ca             	movslq %edx,%rcx
   16ba9:	48 89 c2             	mov    %rax,%rdx
   16bac:	48 01 d2             	add    %rdx,%rdx
   16baf:	48 01 c2             	add    %rax,%rdx
   16bb2:	48 8d 04 95 00 00 00 	lea    0x0(,%rdx,4),%rax
   16bb9:	00 
   16bba:	48 89 c2             	mov    %rax,%rdx
   16bbd:	48 89 f0             	mov    %rsi,%rax
   16bc0:	48 01 c0             	add    %rax,%rax
   16bc3:	48 01 f0             	add    %rsi,%rax
   16bc6:	48 c1 e0 03          	shl    $0x3,%rax
   16bca:	48 8d 34 02          	lea    (%rdx,%rax,1),%rsi
   16bce:	48 89 c8             	mov    %rcx,%rax
   16bd1:	48 01 c0             	add    %rax,%rax
   16bd4:	48 01 c8             	add    %rcx,%rax
   16bd7:	48 8d 14 c5 00 00 00 	lea    0x0(,%rax,8),%rdx
   16bde:	00 
   16bdf:	48 01 d0             	add    %rdx,%rax
   16be2:	48 c1 e0 03          	shl    $0x3,%rax
   16be6:	48 8d 14 06          	lea    (%rsi,%rax,1),%rdx
   16bea:	48 8d 05 54 6e 00 00 	lea    0x6e54(%rip),%rax        # 1da45 <g_2165+0x5>
   16bf1:	48 01 d0             	add    %rdx,%rax
   16bf4:	0f b6 00             	movzbl (%rax),%eax
   16bf7:	48 0f be c0          	movsbq %al,%rax
   16bfb:	8b 55 fc             	mov    -0x4(%rbp),%edx
   16bfe:	48 8d 35 58 2a 00 00 	lea    0x2a58(%rip),%rsi        # 1965d <g_2177+0x1601>
   16c05:	48 89 c7             	mov    %rax,%rdi
   16c08:	e8 e6 6a ff ff       	callq  d6f3 <transparent_crc>
   16c0d:	8b 45 f8             	mov    -0x8(%rbp),%eax
   16c10:	48 98                	cltq   
   16c12:	8b 55 f4             	mov    -0xc(%rbp),%edx
   16c15:	48 63 f2             	movslq %edx,%rsi
   16c18:	8b 55 f0             	mov    -0x10(%rbp),%edx
   16c1b:	48 63 ca             	movslq %edx,%rcx
   16c1e:	48 89 c2             	mov    %rax,%rdx
   16c21:	48 01 d2             	add    %rdx,%rdx
   16c24:	48 01 c2             	add    %rax,%rdx
   16c27:	48 8d 04 95 00 00 00 	lea    0x0(,%rdx,4),%rax
   16c2e:	00 
   16c2f:	48 89 c2             	mov    %rax,%rdx
   16c32:	48 89 f0             	mov    %rsi,%rax
   16c35:	48 01 c0             	add    %rax,%rax
   16c38:	48 01 f0             	add    %rsi,%rax
   16c3b:	48 c1 e0 03          	shl    $0x3,%rax
   16c3f:	48 8d 34 02          	lea    (%rdx,%rax,1),%rsi
   16c43:	48 89 c8             	mov    %rcx,%rax
   16c46:	48 01 c0             	add    %rax,%rax
   16c49:	48 01 c8             	add    %rcx,%rax
   16c4c:	48 8d 14 c5 00 00 00 	lea    0x0(,%rax,8),%rdx
   16c53:	00 
   16c54:	48 01 d0             	add    %rdx,%rax
   16c57:	48 c1 e0 03          	shl    $0x3,%rax
   16c5b:	48 8d 14 06          	lea    (%rsi,%rax,1),%rdx
   16c5f:	48 8d 05 da 6d 00 00 	lea    0x6dda(%rip),%rax        # 1da40 <g_2165>
   16c66:	48 01 d0             	add    %rdx,%rax
   16c69:	0f b7 50 06          	movzwl 0x6(%rax),%edx
   16c6d:	0f b6 40 08          	movzbl 0x8(%rax),%eax
   16c71:	83 e0 7f             	and    $0x7f,%eax
   16c74:	48 c1 e0 10          	shl    $0x10,%rax
   16c78:	48 09 d0             	or     %rdx,%rax
   16c7b:	89 c1                	mov    %eax,%ecx
   16c7d:	8b 45 fc             	mov    -0x4(%rbp),%eax
   16c80:	89 c2                	mov    %eax,%edx
   16c82:	48 8d 35 e7 29 00 00 	lea    0x29e7(%rip),%rsi        # 19670 <g_2177+0x1614>
   16c89:	48 89 cf             	mov    %rcx,%rdi
   16c8c:	e8 62 6a ff ff       	callq  d6f3 <transparent_crc>
   16c91:	8b 45 f8             	mov    -0x8(%rbp),%eax
   16c94:	48 98                	cltq   
   16c96:	8b 55 f4             	mov    -0xc(%rbp),%edx
   16c99:	48 63 f2             	movslq %edx,%rsi
   16c9c:	8b 55 f0             	mov    -0x10(%rbp),%edx
   16c9f:	48 63 ca             	movslq %edx,%rcx
   16ca2:	48 89 c2             	mov    %rax,%rdx
   16ca5:	48 01 d2             	add    %rdx,%rdx
   16ca8:	48 01 c2             	add    %rax,%rdx
   16cab:	48 8d 04 95 00 00 00 	lea    0x0(,%rdx,4),%rax
   16cb2:	00 
   16cb3:	48 89 c2             	mov    %rax,%rdx
   16cb6:	48 89 f0             	mov    %rsi,%rax
   16cb9:	48 01 c0             	add    %rax,%rax
   16cbc:	48 01 f0             	add    %rsi,%rax
   16cbf:	48 c1 e0 03          	shl    $0x3,%rax
   16cc3:	48 8d 34 02          	lea    (%rdx,%rax,1),%rsi
   16cc7:	48 89 c8             	mov    %rcx,%rax
   16cca:	48 01 c0             	add    %rax,%rax
   16ccd:	48 01 c8             	add    %rcx,%rax
   16cd0:	48 8d 14 c5 00 00 00 	lea    0x0(,%rax,8),%rdx
   16cd7:	00 
   16cd8:	48 01 d0             	add    %rdx,%rax
   16cdb:	48 c1 e0 03          	shl    $0x3,%rax
   16cdf:	48 8d 14 06          	lea    (%rsi,%rax,1),%rdx
   16ce3:	48 8d 05 56 6d 00 00 	lea    0x6d56(%rip),%rax        # 1da40 <g_2165>
   16cea:	48 01 d0             	add    %rdx,%rax
   16ced:	0f b7 40 08          	movzwl 0x8(%rax),%eax
   16cf1:	c1 e0 07             	shl    $0x7,%eax
   16cf4:	66 c1 f8 0e          	sar    $0xe,%ax
   16cf8:	48 0f be c0          	movsbq %al,%rax
   16cfc:	8b 55 fc             	mov    -0x4(%rbp),%edx
   16cff:	48 8d 35 7d 29 00 00 	lea    0x297d(%rip),%rsi        # 19683 <g_2177+0x1627>
   16d06:	48 89 c7             	mov    %rax,%rdi
   16d09:	e8 e5 69 ff ff       	callq  d6f3 <transparent_crc>
   16d0e:	8b 45 f8             	mov    -0x8(%rbp),%eax
   16d11:	48 98                	cltq   
   16d13:	8b 55 f4             	mov    -0xc(%rbp),%edx
   16d16:	48 63 f2             	movslq %edx,%rsi
   16d19:	8b 55 f0             	mov    -0x10(%rbp),%edx
   16d1c:	48 63 ca             	movslq %edx,%rcx
   16d1f:	48 89 c2             	mov    %rax,%rdx
   16d22:	48 01 d2             	add    %rdx,%rdx
   16d25:	48 01 c2             	add    %rax,%rdx
   16d28:	48 8d 04 95 00 00 00 	lea    0x0(,%rdx,4),%rax
   16d2f:	00 
   16d30:	48 89 c2             	mov    %rax,%rdx
   16d33:	48 89 f0             	mov    %rsi,%rax
   16d36:	48 01 c0             	add    %rax,%rax
   16d39:	48 01 f0             	add    %rsi,%rax
   16d3c:	48 c1 e0 03          	shl    $0x3,%rax
   16d40:	48 8d 34 02          	lea    (%rdx,%rax,1),%rsi
   16d44:	48 89 c8             	mov    %rcx,%rax
   16d47:	48 01 c0             	add    %rax,%rax
   16d4a:	48 01 c8             	add    %rcx,%rax
   16d4d:	48 8d 14 c5 00 00 00 	lea    0x0(,%rax,8),%rdx
   16d54:	00 
   16d55:	48 01 d0             	add    %rdx,%rax
   16d58:	48 c1 e0 03          	shl    $0x3,%rax
   16d5c:	48 8d 14 06          	lea    (%rsi,%rax,1),%rdx
   16d60:	48 8d 05 d9 6c 00 00 	lea    0x6cd9(%rip),%rax        # 1da40 <g_2165>
   16d67:	48 01 d0             	add    %rdx,%rax
   16d6a:	8b 40 08             	mov    0x8(%rax),%eax
   16d6d:	c1 e8 09             	shr    $0x9,%eax
   16d70:	80 e4 ff             	and    $0xff,%ah
   16d73:	0f b6 c0             	movzbl %al,%eax
   16d76:	8b 55 fc             	mov    -0x4(%rbp),%edx
   16d79:	48 8d 35 16 29 00 00 	lea    0x2916(%rip),%rsi        # 19696 <g_2177+0x163a>
   16d80:	48 89 c7             	mov    %rax,%rdi
   16d83:	e8 6b 69 ff ff       	callq  d6f3 <transparent_crc>
   16d88:	8b 45 f8             	mov    -0x8(%rbp),%eax
   16d8b:	48 98                	cltq   
   16d8d:	8b 55 f4             	mov    -0xc(%rbp),%edx
   16d90:	48 63 f2             	movslq %edx,%rsi
   16d93:	8b 55 f0             	mov    -0x10(%rbp),%edx
   16d96:	48 63 ca             	movslq %edx,%rcx
   16d99:	48 89 c2             	mov    %rax,%rdx
   16d9c:	48 01 d2             	add    %rdx,%rdx
   16d9f:	48 01 c2             	add    %rax,%rdx
   16da2:	48 8d 04 95 00 00 00 	lea    0x0(,%rdx,4),%rax
   16da9:	00 
   16daa:	48 89 c2             	mov    %rax,%rdx
   16dad:	48 89 f0             	mov    %rsi,%rax
   16db0:	48 01 c0             	add    %rax,%rax
   16db3:	48 01 f0             	add    %rsi,%rax
   16db6:	48 c1 e0 03          	shl    $0x3,%rax
   16dba:	48 8d 34 02          	lea    (%rdx,%rax,1),%rsi
   16dbe:	48 89 c8             	mov    %rcx,%rax
   16dc1:	48 01 c0             	add    %rax,%rax
   16dc4:	48 01 c8             	add    %rcx,%rax
   16dc7:	48 8d 14 c5 00 00 00 	lea    0x0(,%rax,8),%rdx
   16dce:	00 
   16dcf:	48 01 d0             	add    %rdx,%rax
   16dd2:	48 c1 e0 03          	shl    $0x3,%rax
   16dd6:	48 8d 14 06          	lea    (%rsi,%rax,1),%rdx
   16dda:	48 8d 05 5f 6c 00 00 	lea    0x6c5f(%rip),%rax        # 1da40 <g_2165>
   16de1:	48 01 d0             	add    %rdx,%rax
   16de4:	8b 40 08             	mov    0x8(%rax),%eax
   16de7:	c1 e0 04             	shl    $0x4,%eax
   16dea:	c1 f8 15             	sar    $0x15,%eax
   16ded:	48 0f bf c0          	movswq %ax,%rax
   16df1:	8b 55 fc             	mov    -0x4(%rbp),%edx
   16df4:	48 8d 35 ae 28 00 00 	lea    0x28ae(%rip),%rsi        # 196a9 <g_2177+0x164d>
   16dfb:	48 89 c7             	mov    %rax,%rdi
   16dfe:	e8 f0 68 ff ff       	callq  d6f3 <transparent_crc>
   16e03:	83 7d fc 00          	cmpl   $0x0,-0x4(%rbp)
   16e07:	74 1c                	je     16e25 <main+0x299a>
   16e09:	8b 4d f8             	mov    -0x8(%rbp),%ecx
   16e0c:	8b 55 f4             	mov    -0xc(%rbp),%edx
   16e0f:	8b 45 f0             	mov    -0x10(%rbp),%eax
   16e12:	89 c6                	mov    %eax,%esi
   16e14:	48 8d 3d 2f 20 00 00 	lea    0x202f(%rip),%rdi        # 18e4a <g_2177+0xdee>
   16e1b:	b8 00 00 00 00       	mov    $0x0,%eax
   16e20:	e8 5b 52 ff ff       	callq  c080 <printf@plt>
   16e25:	83 45 f8 01          	addl   $0x1,-0x8(%rbp)
   16e29:	83 7d f8 01          	cmpl   $0x1,-0x8(%rbp)
   16e2d:	0f 8e 63 fc ff ff    	jle    16a96 <main+0x260b>
   16e33:	83 45 f4 01          	addl   $0x1,-0xc(%rbp)
   16e37:	83 7d f4 08          	cmpl   $0x8,-0xc(%rbp)
   16e3b:	0f 8e 49 fc ff ff    	jle    16a8a <main+0x25ff>
   16e41:	83 45 f0 01          	addl   $0x1,-0x10(%rbp)
   16e45:	83 7d f0 02          	cmpl   $0x2,-0x10(%rbp)
   16e49:	0f 8e 2f fc ff ff    	jle    16a7e <main+0x25f3>
   16e4f:	0f b6 05 72 6e 00 00 	movzbl 0x6e72(%rip),%eax        # 1dcc8 <g_2166>
   16e56:	48 0f be c0          	movsbq %al,%rax
   16e5a:	8b 55 fc             	mov    -0x4(%rbp),%edx
   16e5d:	48 8d 35 58 28 00 00 	lea    0x2858(%rip),%rsi        # 196bc <g_2177+0x1660>
   16e64:	48 89 c7             	mov    %rax,%rdi
   16e67:	e8 87 68 ff ff       	callq  d6f3 <transparent_crc>
   16e6c:	48 8b 05 55 6e 00 00 	mov    0x6e55(%rip),%rax        # 1dcc8 <g_2166>
   16e73:	48 c1 e0 19          	shl    $0x19,%rax
   16e77:	48 c1 f8 21          	sar    $0x21,%rax
   16e7b:	48 98                	cltq   
   16e7d:	8b 55 fc             	mov    -0x4(%rbp),%edx
   16e80:	48 8d 35 3f 28 00 00 	lea    0x283f(%rip),%rsi        # 196c6 <g_2177+0x166a>
   16e87:	48 89 c7             	mov    %rax,%rdi
   16e8a:	e8 64 68 ff ff       	callq  d6f3 <transparent_crc>
   16e8f:	0f b6 05 37 6e 00 00 	movzbl 0x6e37(%rip),%eax        # 1dccd <g_2166+0x5>
   16e96:	48 0f be c0          	movsbq %al,%rax
   16e9a:	8b 55 fc             	mov    -0x4(%rbp),%edx
   16e9d:	48 8d 35 2c 28 00 00 	lea    0x282c(%rip),%rsi        # 196d0 <g_2177+0x1674>
   16ea4:	48 89 c7             	mov    %rax,%rdi
   16ea7:	e8 47 68 ff ff       	callq  d6f3 <transparent_crc>
   16eac:	0f b7 05 1b 6e 00 00 	movzwl 0x6e1b(%rip),%eax        # 1dcce <g_2166+0x6>
   16eb3:	0f b6 15 16 6e 00 00 	movzbl 0x6e16(%rip),%edx        # 1dcd0 <g_2166+0x8>
   16eba:	83 e2 7f             	and    $0x7f,%edx
   16ebd:	48 c1 e2 10          	shl    $0x10,%rdx
   16ec1:	48 09 d0             	or     %rdx,%rax
   16ec4:	89 c1                	mov    %eax,%ecx
   16ec6:	8b 45 fc             	mov    -0x4(%rbp),%eax
   16ec9:	89 c2                	mov    %eax,%edx
   16ecb:	48 8d 35 08 28 00 00 	lea    0x2808(%rip),%rsi        # 196da <g_2177+0x167e>
   16ed2:	48 89 cf             	mov    %rcx,%rdi
   16ed5:	e8 19 68 ff ff       	callq  d6f3 <transparent_crc>
   16eda:	0f b7 05 ef 6d 00 00 	movzwl 0x6def(%rip),%eax        # 1dcd0 <g_2166+0x8>
   16ee1:	c1 e0 07             	shl    $0x7,%eax
   16ee4:	66 c1 f8 0e          	sar    $0xe,%ax
   16ee8:	48 0f be c0          	movsbq %al,%rax
   16eec:	8b 55 fc             	mov    -0x4(%rbp),%edx
   16eef:	48 8d 35 ee 27 00 00 	lea    0x27ee(%rip),%rsi        # 196e4 <g_2177+0x1688>
   16ef6:	48 89 c7             	mov    %rax,%rdi
   16ef9:	e8 f5 67 ff ff       	callq  d6f3 <transparent_crc>
   16efe:	8b 05 cc 6d 00 00    	mov    0x6dcc(%rip),%eax        # 1dcd0 <g_2166+0x8>
   16f04:	c1 e8 09             	shr    $0x9,%eax
   16f07:	80 e4 ff             	and    $0xff,%ah
   16f0a:	0f b6 c0             	movzbl %al,%eax
   16f0d:	8b 55 fc             	mov    -0x4(%rbp),%edx
   16f10:	48 8d 35 d7 27 00 00 	lea    0x27d7(%rip),%rsi        # 196ee <g_2177+0x1692>
   16f17:	48 89 c7             	mov    %rax,%rdi
   16f1a:	e8 d4 67 ff ff       	callq  d6f3 <transparent_crc>
   16f1f:	48 8b 05 aa 6d 00 00 	mov    0x6daa(%rip),%rax        # 1dcd0 <g_2166+0x8>
   16f26:	c1 e0 04             	shl    $0x4,%eax
   16f29:	c1 f8 15             	sar    $0x15,%eax
   16f2c:	48 0f bf c0          	movswq %ax,%rax
   16f30:	8b 55 fc             	mov    -0x4(%rbp),%edx
   16f33:	48 8d 35 be 27 00 00 	lea    0x27be(%rip),%rsi        # 196f8 <g_2177+0x169c>
   16f3a:	48 89 c7             	mov    %rax,%rdi
   16f3d:	e8 b1 67 ff ff       	callq  d6f3 <transparent_crc>
   16f42:	0f b6 05 8f 6d 00 00 	movzbl 0x6d8f(%rip),%eax        # 1dcd8 <g_2167>
   16f49:	48 0f be c0          	movsbq %al,%rax
   16f4d:	8b 55 fc             	mov    -0x4(%rbp),%edx
   16f50:	48 8d 35 ab 27 00 00 	lea    0x27ab(%rip),%rsi        # 19702 <g_2177+0x16a6>
   16f57:	48 89 c7             	mov    %rax,%rdi
   16f5a:	e8 94 67 ff ff       	callq  d6f3 <transparent_crc>
   16f5f:	48 8b 05 72 6d 00 00 	mov    0x6d72(%rip),%rax        # 1dcd8 <g_2167>
   16f66:	48 c1 e0 19          	shl    $0x19,%rax
   16f6a:	48 c1 f8 21          	sar    $0x21,%rax
   16f6e:	48 98                	cltq   
   16f70:	8b 55 fc             	mov    -0x4(%rbp),%edx
   16f73:	48 8d 35 92 27 00 00 	lea    0x2792(%rip),%rsi        # 1970c <g_2177+0x16b0>
   16f7a:	48 89 c7             	mov    %rax,%rdi
   16f7d:	e8 71 67 ff ff       	callq  d6f3 <transparent_crc>
   16f82:	0f b6 05 54 6d 00 00 	movzbl 0x6d54(%rip),%eax        # 1dcdd <g_2167+0x5>
   16f89:	48 0f be c0          	movsbq %al,%rax
   16f8d:	8b 55 fc             	mov    -0x4(%rbp),%edx
   16f90:	48 8d 35 7f 27 00 00 	lea    0x277f(%rip),%rsi        # 19716 <g_2177+0x16ba>
   16f97:	48 89 c7             	mov    %rax,%rdi
   16f9a:	e8 54 67 ff ff       	callq  d6f3 <transparent_crc>
   16f9f:	0f b7 05 38 6d 00 00 	movzwl 0x6d38(%rip),%eax        # 1dcde <g_2167+0x6>
   16fa6:	0f b6 15 33 6d 00 00 	movzbl 0x6d33(%rip),%edx        # 1dce0 <g_2167+0x8>
   16fad:	83 e2 7f             	and    $0x7f,%edx
   16fb0:	48 c1 e2 10          	shl    $0x10,%rdx
   16fb4:	48 09 d0             	or     %rdx,%rax
   16fb7:	89 c1                	mov    %eax,%ecx
   16fb9:	8b 45 fc             	mov    -0x4(%rbp),%eax
   16fbc:	89 c2                	mov    %eax,%edx
   16fbe:	48 8d 35 5b 27 00 00 	lea    0x275b(%rip),%rsi        # 19720 <g_2177+0x16c4>
   16fc5:	48 89 cf             	mov    %rcx,%rdi
   16fc8:	e8 26 67 ff ff       	callq  d6f3 <transparent_crc>
   16fcd:	0f b7 05 0c 6d 00 00 	movzwl 0x6d0c(%rip),%eax        # 1dce0 <g_2167+0x8>
   16fd4:	c1 e0 07             	shl    $0x7,%eax
   16fd7:	66 c1 f8 0e          	sar    $0xe,%ax
   16fdb:	48 0f be c0          	movsbq %al,%rax
   16fdf:	8b 55 fc             	mov    -0x4(%rbp),%edx
   16fe2:	48 8d 35 41 27 00 00 	lea    0x2741(%rip),%rsi        # 1972a <g_2177+0x16ce>
   16fe9:	48 89 c7             	mov    %rax,%rdi
   16fec:	e8 02 67 ff ff       	callq  d6f3 <transparent_crc>
   16ff1:	8b 05 e9 6c 00 00    	mov    0x6ce9(%rip),%eax        # 1dce0 <g_2167+0x8>
   16ff7:	c1 e8 09             	shr    $0x9,%eax
   16ffa:	80 e4 ff             	and    $0xff,%ah
   16ffd:	0f b6 c0             	movzbl %al,%eax
   17000:	8b 55 fc             	mov    -0x4(%rbp),%edx
   17003:	48 8d 35 2a 27 00 00 	lea    0x272a(%rip),%rsi        # 19734 <g_2177+0x16d8>
   1700a:	48 89 c7             	mov    %rax,%rdi
   1700d:	e8 e1 66 ff ff       	callq  d6f3 <transparent_crc>
   17012:	48 8b 05 c7 6c 00 00 	mov    0x6cc7(%rip),%rax        # 1dce0 <g_2167+0x8>
   17019:	c1 e0 04             	shl    $0x4,%eax
   1701c:	c1 f8 15             	sar    $0x15,%eax
   1701f:	48 0f bf c0          	movswq %ax,%rax
   17023:	8b 55 fc             	mov    -0x4(%rbp),%edx
   17026:	48 8d 35 11 27 00 00 	lea    0x2711(%rip),%rsi        # 1973e <g_2177+0x16e2>
   1702d:	48 89 c7             	mov    %rax,%rdi
   17030:	e8 be 66 ff ff       	callq  d6f3 <transparent_crc>
   17035:	b8 00 00 00 00       	mov    $0x0,%eax
   1703a:	48 98                	cltq   
   1703c:	8b 55 fc             	mov    -0x4(%rbp),%edx
   1703f:	48 8d 35 02 27 00 00 	lea    0x2702(%rip),%rsi        # 19748 <g_2177+0x16ec>
   17046:	48 89 c7             	mov    %rax,%rdi
   17049:	e8 a5 66 ff ff       	callq  d6f3 <transparent_crc>
   1704e:	8b 05 90 6c 00 00    	mov    0x6c90(%rip),%eax        # 1dce4 <g_2335>
   17054:	48 98                	cltq   
   17056:	8b 55 fc             	mov    -0x4(%rbp),%edx
   17059:	48 8d 35 ef 26 00 00 	lea    0x26ef(%rip),%rsi        # 1974f <g_2177+0x16f3>
   17060:	48 89 c7             	mov    %rax,%rdi
   17063:	e8 8b 66 ff ff       	callq  d6f3 <transparent_crc>
   17068:	0f b7 05 e5 bd 00 00 	movzwl 0xbde5(%rip),%eax        # 22e54 <g_2415>
   1706f:	0f b7 c0             	movzwl %ax,%eax
   17072:	8b 55 fc             	mov    -0x4(%rbp),%edx
   17075:	48 8d 35 da 26 00 00 	lea    0x26da(%rip),%rsi        # 19756 <g_2177+0x16fa>
   1707c:	48 89 c7             	mov    %rax,%rdi
   1707f:	e8 6f 66 ff ff       	callq  d6f3 <transparent_crc>
   17084:	8b 05 96 4f 00 00    	mov    0x4f96(%rip),%eax        # 1c020 <crc32_context>
   1708a:	f7 d0                	not    %eax
   1708c:	89 c2                	mov    %eax,%edx
   1708e:	8b 45 fc             	mov    -0x4(%rbp),%eax
   17091:	89 c6                	mov    %eax,%esi
   17093:	89 d7                	mov    %edx,%edi
   17095:	e8 fa 50 ff ff       	callq  c194 <platform_main_end>
   1709a:	b8 00 00 00 00       	mov    $0x0,%eax
   1709f:	c9                   	leaveq 
   170a0:	c3                   	retq   
   170a1:	66 2e 0f 1f 84 00 00 	nopw   %cs:0x0(%rax,%rax,1)
   170a8:	00 00 00 
   170ab:	0f 1f 44 00 00       	nopl   0x0(%rax,%rax,1)

00000000000170b0 <__libc_csu_init>:
   170b0:	f3 0f 1e fa          	endbr64 
   170b4:	41 57                	push   %r15
   170b6:	4c 8d 3d f3 4b 00 00 	lea    0x4bf3(%rip),%r15        # 1bcb0 <__frame_dummy_init_array_entry>
   170bd:	41 56                	push   %r14
   170bf:	49 89 d6             	mov    %rdx,%r14
   170c2:	41 55                	push   %r13
   170c4:	49 89 f5             	mov    %rsi,%r13
   170c7:	41 54                	push   %r12
   170c9:	41 89 fc             	mov    %edi,%r12d
   170cc:	55                   	push   %rbp
   170cd:	48 8d 2d e4 4b 00 00 	lea    0x4be4(%rip),%rbp        # 1bcb8 <__do_global_dtors_aux_fini_array_entry>
   170d4:	53                   	push   %rbx
   170d5:	4c 29 fd             	sub    %r15,%rbp
   170d8:	48 83 ec 08          	sub    $0x8,%rsp
   170dc:	e8 1f 4f ff ff       	callq  c000 <_init>
   170e1:	48 c1 fd 03          	sar    $0x3,%rbp
   170e5:	74 1f                	je     17106 <__libc_csu_init+0x56>
   170e7:	31 db                	xor    %ebx,%ebx
   170e9:	0f 1f 80 00 00 00 00 	nopl   0x0(%rax)
   170f0:	4c 89 f2             	mov    %r14,%rdx
   170f3:	4c 89 ee             	mov    %r13,%rsi
   170f6:	44 89 e7             	mov    %r12d,%edi
   170f9:	41 ff 14 df          	callq  *(%r15,%rbx,8)
   170fd:	48 83 c3 01          	add    $0x1,%rbx
   17101:	48 39 dd             	cmp    %rbx,%rbp
   17104:	75 ea                	jne    170f0 <__libc_csu_init+0x40>
   17106:	48 83 c4 08          	add    $0x8,%rsp
   1710a:	5b                   	pop    %rbx
   1710b:	5d                   	pop    %rbp
   1710c:	41 5c                	pop    %r12
   1710e:	41 5d                	pop    %r13
   17110:	41 5e                	pop    %r14
   17112:	41 5f                	pop    %r15
   17114:	c3                   	retq   
   17115:	66 66 2e 0f 1f 84 00 	data16 nopw %cs:0x0(%rax,%rax,1)
   1711c:	00 00 00 00 

0000000000017120 <__libc_csu_fini>:
   17120:	f3 0f 1e fa          	endbr64 
   17124:	c3                   	retq   
