


Disassembly of section .text:

000000000000b0a0 <_start>:
    b0a0:	f3 0f 1e fa          	endbr64 
    b0a4:	31 ed                	xor    %ebp,%ebp
    b0a6:	49 89 d1             	mov    %rdx,%r9
    b0a9:	5e                   	pop    %rsi
    b0aa:	48 89 e2             	mov    %rsp,%rdx
    b0ad:	48 83 e4 f0          	and    $0xfffffffffffffff0,%rsp
    b0b1:	50                   	push   %rax
    b0b2:	54                   	push   %rsp
    b0b3:	4c 8d 05 56 1a 01 00 	lea    0x11a56(%rip),%r8        # 1cb10 <__libc_csu_fini>
    b0ba:	48 8d 0d df 19 01 00 	lea    0x119df(%rip),%rcx        # 1caa0 <__libc_csu_init>
    b0c1:	48 8d 3d 4b 0d 01 00 	lea    0x10d4b(%rip),%rdi        # 1be13 <main>
    b0c8:	ff 15 0a 7f 01 00    	callq  *0x17f0a(%rip)        # 22fd8 <__libc_start_main@GLIBC_2.2.5>
    b0ce:	f4                   	hlt    
    b0cf:	90                   	nop

000000000000b0d0 <deregister_tm_clones>:
    b0d0:	48 8d 3d c9 ce 01 00 	lea    0x1cec9(%rip),%rdi        # 27fa0 <__TMC_END__>
    b0d7:	48 8d 05 c2 ce 01 00 	lea    0x1cec2(%rip),%rax        # 27fa0 <__TMC_END__>
    b0de:	48 39 f8             	cmp    %rdi,%rax
    b0e1:	74 15                	je     b0f8 <deregister_tm_clones+0x28>
    b0e3:	48 8b 05 e6 7e 01 00 	mov    0x17ee6(%rip),%rax        # 22fd0 <_ITM_deregisterTMCloneTable>
    b0ea:	48 85 c0             	test   %rax,%rax
    b0ed:	74 09                	je     b0f8 <deregister_tm_clones+0x28>
    b0ef:	ff e0                	jmpq   *%rax
    b0f1:	0f 1f 80 00 00 00 00 	nopl   0x0(%rax)
    b0f8:	c3                   	retq   
    b0f9:	0f 1f 80 00 00 00 00 	nopl   0x0(%rax)

000000000000b100 <register_tm_clones>:
    b100:	48 8d 3d 99 ce 01 00 	lea    0x1ce99(%rip),%rdi        # 27fa0 <__TMC_END__>
    b107:	48 8d 35 92 ce 01 00 	lea    0x1ce92(%rip),%rsi        # 27fa0 <__TMC_END__>
    b10e:	48 29 fe             	sub    %rdi,%rsi
    b111:	48 89 f0             	mov    %rsi,%rax
    b114:	48 c1 ee 3f          	shr    $0x3f,%rsi
    b118:	48 c1 f8 03          	sar    $0x3,%rax
    b11c:	48 01 c6             	add    %rax,%rsi
    b11f:	48 d1 fe             	sar    %rsi
    b122:	74 14                	je     b138 <register_tm_clones+0x38>
    b124:	48 8b 05 bd 7e 01 00 	mov    0x17ebd(%rip),%rax        # 22fe8 <_ITM_registerTMCloneTable>
    b12b:	48 85 c0             	test   %rax,%rax
    b12e:	74 08                	je     b138 <register_tm_clones+0x38>
    b130:	ff e0                	jmpq   *%rax
    b132:	66 0f 1f 44 00 00    	nopw   0x0(%rax,%rax,1)
    b138:	c3                   	retq   
    b139:	0f 1f 80 00 00 00 00 	nopl   0x0(%rax)

000000000000b140 <__do_global_dtors_aux>:
    b140:	f3 0f 1e fa          	endbr64 
    b144:	80 3d 55 ce 01 00 00 	cmpb   $0x0,0x1ce55(%rip)        # 27fa0 <__TMC_END__>
    b14b:	75 2b                	jne    b178 <__do_global_dtors_aux+0x38>
    b14d:	55                   	push   %rbp
    b14e:	48 83 3d 9a 7e 01 00 	cmpq   $0x0,0x17e9a(%rip)        # 22ff0 <__cxa_finalize@GLIBC_2.2.5>
    b155:	00 
    b156:	48 89 e5             	mov    %rsp,%rbp
    b159:	74 0c                	je     b167 <__do_global_dtors_aux+0x27>
    b15b:	48 8b 3d a6 7e 01 00 	mov    0x17ea6(%rip),%rdi        # 23008 <__dso_handle>
    b162:	e8 f9 fe ff ff       	callq  b060 <__cxa_finalize@plt>
    b167:	e8 64 ff ff ff       	callq  b0d0 <deregister_tm_clones>
    b16c:	c6 05 2d ce 01 00 01 	movb   $0x1,0x1ce2d(%rip)        # 27fa0 <__TMC_END__>
    b173:	5d                   	pop    %rbp
    b174:	c3                   	retq   
    b175:	0f 1f 00             	nopl   (%rax)
    b178:	c3                   	retq   
    b179:	0f 1f 80 00 00 00 00 	nopl   0x0(%rax)

000000000000b180 <frame_dummy>:
    b180:	f3 0f 1e fa          	endbr64 
    b184:	e9 77 ff ff ff       	jmpq   b100 <register_tm_clones>

000000000000b189 <platform_main_begin>:
    b189:	f3 0f 1e fa          	endbr64 
    b18d:	55                   	push   %rbp
    b18e:	48 89 e5             	mov    %rsp,%rbp
    b191:	90                   	nop
    b192:	5d                   	pop    %rbp
    b193:	c3                   	retq   

000000000000b194 <platform_main_end>:
    b194:	f3 0f 1e fa          	endbr64 
    b198:	55                   	push   %rbp
    b199:	48 89 e5             	mov    %rsp,%rbp
    b19c:	48 83 ec 10          	sub    $0x10,%rsp
    b1a0:	89 7d fc             	mov    %edi,-0x4(%rbp)
    b1a3:	89 75 f8             	mov    %esi,-0x8(%rbp)
    b1a6:	8b 45 fc             	mov    -0x4(%rbp),%eax
    b1a9:	89 c6                	mov    %eax,%esi
    b1ab:	48 8d 3d 6e 1e 01 00 	lea    0x11e6e(%rip),%rdi        # 1d020 <_IO_stdin_used+0x20>
    b1b2:	b8 00 00 00 00       	mov    $0x0,%eax
    b1b7:	e8 c4 fe ff ff       	callq  b080 <printf@plt>
    b1bc:	90                   	nop
    b1bd:	c9                   	leaveq 
    b1be:	c3                   	retq   

000000000000b1bf <safe_unary_minus_func_int8_t_s>:
    b1bf:	f3 0f 1e fa          	endbr64 
    b1c3:	55                   	push   %rbp
    b1c4:	48 89 e5             	mov    %rsp,%rbp
    b1c7:	89 f8                	mov    %edi,%eax
    b1c9:	88 45 fc             	mov    %al,-0x4(%rbp)
    b1cc:	0f b6 45 fc          	movzbl -0x4(%rbp),%eax
    b1d0:	f7 d8                	neg    %eax
    b1d2:	5d                   	pop    %rbp
    b1d3:	c3                   	retq   

000000000000b1d4 <safe_add_func_int8_t_s_s>:
    b1d4:	f3 0f 1e fa          	endbr64 
    b1d8:	55                   	push   %rbp
    b1d9:	48 89 e5             	mov    %rsp,%rbp
    b1dc:	89 fa                	mov    %edi,%edx
    b1de:	89 f0                	mov    %esi,%eax
    b1e0:	88 55 fc             	mov    %dl,-0x4(%rbp)
    b1e3:	88 45 f8             	mov    %al,-0x8(%rbp)
    b1e6:	0f b6 55 fc          	movzbl -0x4(%rbp),%edx
    b1ea:	0f b6 45 f8          	movzbl -0x8(%rbp),%eax
    b1ee:	01 d0                	add    %edx,%eax
    b1f0:	5d                   	pop    %rbp
    b1f1:	c3                   	retq   

000000000000b1f2 <safe_sub_func_int8_t_s_s>:
    b1f2:	f3 0f 1e fa          	endbr64 
    b1f6:	55                   	push   %rbp
    b1f7:	48 89 e5             	mov    %rsp,%rbp
    b1fa:	89 fa                	mov    %edi,%edx
    b1fc:	89 f0                	mov    %esi,%eax
    b1fe:	88 55 fc             	mov    %dl,-0x4(%rbp)
    b201:	88 45 f8             	mov    %al,-0x8(%rbp)
    b204:	0f b6 55 fc          	movzbl -0x4(%rbp),%edx
    b208:	0f b6 45 f8          	movzbl -0x8(%rbp),%eax
    b20c:	29 c2                	sub    %eax,%edx
    b20e:	89 d0                	mov    %edx,%eax
    b210:	5d                   	pop    %rbp
    b211:	c3                   	retq   

000000000000b212 <safe_mul_func_int8_t_s_s>:
    b212:	f3 0f 1e fa          	endbr64 
    b216:	55                   	push   %rbp
    b217:	48 89 e5             	mov    %rsp,%rbp
    b21a:	89 fa                	mov    %edi,%edx
    b21c:	89 f0                	mov    %esi,%eax
    b21e:	88 55 fc             	mov    %dl,-0x4(%rbp)
    b221:	88 45 f8             	mov    %al,-0x8(%rbp)
    b224:	0f b6 45 fc          	movzbl -0x4(%rbp),%eax
    b228:	0f b6 55 f8          	movzbl -0x8(%rbp),%edx
    b22c:	0f af c2             	imul   %edx,%eax
    b22f:	5d                   	pop    %rbp
    b230:	c3                   	retq   

000000000000b231 <safe_mod_func_int8_t_s_s>:
    b231:	f3 0f 1e fa          	endbr64 
    b235:	55                   	push   %rbp
    b236:	48 89 e5             	mov    %rsp,%rbp
    b239:	89 fa                	mov    %edi,%edx
    b23b:	89 f0                	mov    %esi,%eax
    b23d:	88 55 fc             	mov    %dl,-0x4(%rbp)
    b240:	88 45 f8             	mov    %al,-0x8(%rbp)
    b243:	80 7d f8 00          	cmpb   $0x0,-0x8(%rbp)
    b247:	74 1b                	je     b264 <safe_mod_func_int8_t_s_s+0x33>
    b249:	80 7d fc 80          	cmpb   $0x80,-0x4(%rbp)
    b24d:	75 06                	jne    b255 <safe_mod_func_int8_t_s_s+0x24>
    b24f:	80 7d f8 ff          	cmpb   $0xff,-0x8(%rbp)
    b253:	74 0f                	je     b264 <safe_mod_func_int8_t_s_s+0x33>
    b255:	0f be 45 fc          	movsbl -0x4(%rbp),%eax
    b259:	0f be 4d f8          	movsbl -0x8(%rbp),%ecx
    b25d:	99                   	cltd   
    b25e:	f7 f9                	idiv   %ecx
    b260:	89 d0                	mov    %edx,%eax
    b262:	eb 04                	jmp    b268 <safe_mod_func_int8_t_s_s+0x37>
    b264:	0f b6 45 fc          	movzbl -0x4(%rbp),%eax
    b268:	5d                   	pop    %rbp
    b269:	c3                   	retq   

000000000000b26a <safe_div_func_int8_t_s_s>:
    b26a:	f3 0f 1e fa          	endbr64 
    b26e:	55                   	push   %rbp
    b26f:	48 89 e5             	mov    %rsp,%rbp
    b272:	89 fa                	mov    %edi,%edx
    b274:	89 f0                	mov    %esi,%eax
    b276:	88 55 fc             	mov    %dl,-0x4(%rbp)
    b279:	88 45 f8             	mov    %al,-0x8(%rbp)
    b27c:	80 7d f8 00          	cmpb   $0x0,-0x8(%rbp)
    b280:	74 19                	je     b29b <safe_div_func_int8_t_s_s+0x31>
    b282:	80 7d fc 80          	cmpb   $0x80,-0x4(%rbp)
    b286:	75 06                	jne    b28e <safe_div_func_int8_t_s_s+0x24>
    b288:	80 7d f8 ff          	cmpb   $0xff,-0x8(%rbp)
    b28c:	74 0d                	je     b29b <safe_div_func_int8_t_s_s+0x31>
    b28e:	0f be 45 fc          	movsbl -0x4(%rbp),%eax
    b292:	0f be 4d f8          	movsbl -0x8(%rbp),%ecx
    b296:	99                   	cltd   
    b297:	f7 f9                	idiv   %ecx
    b299:	eb 04                	jmp    b29f <safe_div_func_int8_t_s_s+0x35>
    b29b:	0f b6 45 fc          	movzbl -0x4(%rbp),%eax
    b29f:	5d                   	pop    %rbp
    b2a0:	c3                   	retq   

000000000000b2a1 <safe_lshift_func_int8_t_s_s>:
    b2a1:	f3 0f 1e fa          	endbr64 
    b2a5:	55                   	push   %rbp
    b2a6:	48 89 e5             	mov    %rsp,%rbp
    b2a9:	89 f8                	mov    %edi,%eax
    b2ab:	89 75 f8             	mov    %esi,-0x8(%rbp)
    b2ae:	88 45 fc             	mov    %al,-0x4(%rbp)
    b2b1:	80 7d fc 00          	cmpb   $0x0,-0x4(%rbp)
    b2b5:	78 31                	js     b2e8 <safe_lshift_func_int8_t_s_s+0x47>
    b2b7:	83 7d f8 00          	cmpl   $0x0,-0x8(%rbp)
    b2bb:	78 2b                	js     b2e8 <safe_lshift_func_int8_t_s_s+0x47>
    b2bd:	83 7d f8 1f          	cmpl   $0x1f,-0x8(%rbp)
    b2c1:	7f 25                	jg     b2e8 <safe_lshift_func_int8_t_s_s+0x47>
    b2c3:	0f be 55 fc          	movsbl -0x4(%rbp),%edx
    b2c7:	8b 45 f8             	mov    -0x8(%rbp),%eax
    b2ca:	be 7f 00 00 00       	mov    $0x7f,%esi
    b2cf:	89 c1                	mov    %eax,%ecx
    b2d1:	d3 fe                	sar    %cl,%esi
    b2d3:	89 f0                	mov    %esi,%eax
    b2d5:	39 c2                	cmp    %eax,%edx
    b2d7:	7f 0f                	jg     b2e8 <safe_lshift_func_int8_t_s_s+0x47>
    b2d9:	0f be 55 fc          	movsbl -0x4(%rbp),%edx
    b2dd:	8b 45 f8             	mov    -0x8(%rbp),%eax
    b2e0:	89 c1                	mov    %eax,%ecx
    b2e2:	d3 e2                	shl    %cl,%edx
    b2e4:	89 d0                	mov    %edx,%eax
    b2e6:	eb 04                	jmp    b2ec <safe_lshift_func_int8_t_s_s+0x4b>
    b2e8:	0f b6 45 fc          	movzbl -0x4(%rbp),%eax
    b2ec:	5d                   	pop    %rbp
    b2ed:	c3                   	retq   

000000000000b2ee <safe_lshift_func_int8_t_s_u>:
    b2ee:	f3 0f 1e fa          	endbr64 
    b2f2:	55                   	push   %rbp
    b2f3:	48 89 e5             	mov    %rsp,%rbp
    b2f6:	89 f8                	mov    %edi,%eax
    b2f8:	89 75 f8             	mov    %esi,-0x8(%rbp)
    b2fb:	88 45 fc             	mov    %al,-0x4(%rbp)
    b2fe:	80 7d fc 00          	cmpb   $0x0,-0x4(%rbp)
    b302:	78 2b                	js     b32f <safe_lshift_func_int8_t_s_u+0x41>
    b304:	83 7d f8 1f          	cmpl   $0x1f,-0x8(%rbp)
    b308:	77 25                	ja     b32f <safe_lshift_func_int8_t_s_u+0x41>
    b30a:	0f be 55 fc          	movsbl -0x4(%rbp),%edx
    b30e:	8b 45 f8             	mov    -0x8(%rbp),%eax
    b311:	be 7f 00 00 00       	mov    $0x7f,%esi
    b316:	89 c1                	mov    %eax,%ecx
    b318:	d3 fe                	sar    %cl,%esi
    b31a:	89 f0                	mov    %esi,%eax
    b31c:	39 c2                	cmp    %eax,%edx
    b31e:	7f 0f                	jg     b32f <safe_lshift_func_int8_t_s_u+0x41>
    b320:	0f be 55 fc          	movsbl -0x4(%rbp),%edx
    b324:	8b 45 f8             	mov    -0x8(%rbp),%eax
    b327:	89 c1                	mov    %eax,%ecx
    b329:	d3 e2                	shl    %cl,%edx
    b32b:	89 d0                	mov    %edx,%eax
    b32d:	eb 04                	jmp    b333 <safe_lshift_func_int8_t_s_u+0x45>
    b32f:	0f b6 45 fc          	movzbl -0x4(%rbp),%eax
    b333:	5d                   	pop    %rbp
    b334:	c3                   	retq   

000000000000b335 <safe_rshift_func_int8_t_s_s>:
    b335:	f3 0f 1e fa          	endbr64 
    b339:	55                   	push   %rbp
    b33a:	48 89 e5             	mov    %rsp,%rbp
    b33d:	89 f8                	mov    %edi,%eax
    b33f:	89 75 f8             	mov    %esi,-0x8(%rbp)
    b342:	88 45 fc             	mov    %al,-0x4(%rbp)
    b345:	80 7d fc 00          	cmpb   $0x0,-0x4(%rbp)
    b349:	78 1b                	js     b366 <safe_rshift_func_int8_t_s_s+0x31>
    b34b:	83 7d f8 00          	cmpl   $0x0,-0x8(%rbp)
    b34f:	78 15                	js     b366 <safe_rshift_func_int8_t_s_s+0x31>
    b351:	83 7d f8 1f          	cmpl   $0x1f,-0x8(%rbp)
    b355:	7f 0f                	jg     b366 <safe_rshift_func_int8_t_s_s+0x31>
    b357:	0f be 55 fc          	movsbl -0x4(%rbp),%edx
    b35b:	8b 45 f8             	mov    -0x8(%rbp),%eax
    b35e:	89 c1                	mov    %eax,%ecx
    b360:	d3 fa                	sar    %cl,%edx
    b362:	89 d0                	mov    %edx,%eax
    b364:	eb 04                	jmp    b36a <safe_rshift_func_int8_t_s_s+0x35>
    b366:	0f b6 45 fc          	movzbl -0x4(%rbp),%eax
    b36a:	5d                   	pop    %rbp
    b36b:	c3                   	retq   

000000000000b36c <safe_rshift_func_int8_t_s_u>:
    b36c:	f3 0f 1e fa          	endbr64 
    b370:	55                   	push   %rbp
    b371:	48 89 e5             	mov    %rsp,%rbp
    b374:	89 f8                	mov    %edi,%eax
    b376:	89 75 f8             	mov    %esi,-0x8(%rbp)
    b379:	88 45 fc             	mov    %al,-0x4(%rbp)
    b37c:	80 7d fc 00          	cmpb   $0x0,-0x4(%rbp)
    b380:	78 15                	js     b397 <safe_rshift_func_int8_t_s_u+0x2b>
    b382:	83 7d f8 1f          	cmpl   $0x1f,-0x8(%rbp)
    b386:	77 0f                	ja     b397 <safe_rshift_func_int8_t_s_u+0x2b>
    b388:	0f be 55 fc          	movsbl -0x4(%rbp),%edx
    b38c:	8b 45 f8             	mov    -0x8(%rbp),%eax
    b38f:	89 c1                	mov    %eax,%ecx
    b391:	d3 fa                	sar    %cl,%edx
    b393:	89 d0                	mov    %edx,%eax
    b395:	eb 04                	jmp    b39b <safe_rshift_func_int8_t_s_u+0x2f>
    b397:	0f b6 45 fc          	movzbl -0x4(%rbp),%eax
    b39b:	5d                   	pop    %rbp
    b39c:	c3                   	retq   

000000000000b39d <safe_unary_minus_func_int16_t_s>:
    b39d:	f3 0f 1e fa          	endbr64 
    b3a1:	55                   	push   %rbp
    b3a2:	48 89 e5             	mov    %rsp,%rbp
    b3a5:	89 f8                	mov    %edi,%eax
    b3a7:	66 89 45 fc          	mov    %ax,-0x4(%rbp)
    b3ab:	0f b7 45 fc          	movzwl -0x4(%rbp),%eax
    b3af:	f7 d8                	neg    %eax
    b3b1:	5d                   	pop    %rbp
    b3b2:	c3                   	retq   

000000000000b3b3 <safe_add_func_int16_t_s_s>:
    b3b3:	f3 0f 1e fa          	endbr64 
    b3b7:	55                   	push   %rbp
    b3b8:	48 89 e5             	mov    %rsp,%rbp
    b3bb:	89 fa                	mov    %edi,%edx
    b3bd:	89 f0                	mov    %esi,%eax
    b3bf:	66 89 55 fc          	mov    %dx,-0x4(%rbp)
    b3c3:	66 89 45 f8          	mov    %ax,-0x8(%rbp)
    b3c7:	0f b7 55 fc          	movzwl -0x4(%rbp),%edx
    b3cb:	0f b7 45 f8          	movzwl -0x8(%rbp),%eax
    b3cf:	01 d0                	add    %edx,%eax
    b3d1:	5d                   	pop    %rbp
    b3d2:	c3                   	retq   

000000000000b3d3 <safe_sub_func_int16_t_s_s>:
    b3d3:	f3 0f 1e fa          	endbr64 
    b3d7:	55                   	push   %rbp
    b3d8:	48 89 e5             	mov    %rsp,%rbp
    b3db:	89 fa                	mov    %edi,%edx
    b3dd:	89 f0                	mov    %esi,%eax
    b3df:	66 89 55 fc          	mov    %dx,-0x4(%rbp)
    b3e3:	66 89 45 f8          	mov    %ax,-0x8(%rbp)
    b3e7:	0f b7 55 fc          	movzwl -0x4(%rbp),%edx
    b3eb:	0f b7 45 f8          	movzwl -0x8(%rbp),%eax
    b3ef:	29 c2                	sub    %eax,%edx
    b3f1:	89 d0                	mov    %edx,%eax
    b3f3:	5d                   	pop    %rbp
    b3f4:	c3                   	retq   

000000000000b3f5 <safe_mul_func_int16_t_s_s>:
    b3f5:	f3 0f 1e fa          	endbr64 
    b3f9:	55                   	push   %rbp
    b3fa:	48 89 e5             	mov    %rsp,%rbp
    b3fd:	89 fa                	mov    %edi,%edx
    b3ff:	89 f0                	mov    %esi,%eax
    b401:	66 89 55 fc          	mov    %dx,-0x4(%rbp)
    b405:	66 89 45 f8          	mov    %ax,-0x8(%rbp)
    b409:	0f b7 55 fc          	movzwl -0x4(%rbp),%edx
    b40d:	0f b7 45 f8          	movzwl -0x8(%rbp),%eax
    b411:	0f af c2             	imul   %edx,%eax
    b414:	5d                   	pop    %rbp
    b415:	c3                   	retq   

000000000000b416 <safe_mod_func_int16_t_s_s>:
    b416:	f3 0f 1e fa          	endbr64 
    b41a:	55                   	push   %rbp
    b41b:	48 89 e5             	mov    %rsp,%rbp
    b41e:	89 fa                	mov    %edi,%edx
    b420:	89 f0                	mov    %esi,%eax
    b422:	66 89 55 fc          	mov    %dx,-0x4(%rbp)
    b426:	66 89 45 f8          	mov    %ax,-0x8(%rbp)
    b42a:	66 83 7d f8 00       	cmpw   $0x0,-0x8(%rbp)
    b42f:	74 1e                	je     b44f <safe_mod_func_int16_t_s_s+0x39>
    b431:	66 81 7d fc 00 80    	cmpw   $0x8000,-0x4(%rbp)
    b437:	75 07                	jne    b440 <safe_mod_func_int16_t_s_s+0x2a>
    b439:	66 83 7d f8 ff       	cmpw   $0xffff,-0x8(%rbp)
    b43e:	74 0f                	je     b44f <safe_mod_func_int16_t_s_s+0x39>
    b440:	0f bf 45 fc          	movswl -0x4(%rbp),%eax
    b444:	0f bf 4d f8          	movswl -0x8(%rbp),%ecx
    b448:	99                   	cltd   
    b449:	f7 f9                	idiv   %ecx
    b44b:	89 d0                	mov    %edx,%eax
    b44d:	eb 04                	jmp    b453 <safe_mod_func_int16_t_s_s+0x3d>
    b44f:	0f b7 45 fc          	movzwl -0x4(%rbp),%eax
    b453:	5d                   	pop    %rbp
    b454:	c3                   	retq   

000000000000b455 <safe_div_func_int16_t_s_s>:
    b455:	f3 0f 1e fa          	endbr64 
    b459:	55                   	push   %rbp
    b45a:	48 89 e5             	mov    %rsp,%rbp
    b45d:	89 fa                	mov    %edi,%edx
    b45f:	89 f0                	mov    %esi,%eax
    b461:	66 89 55 fc          	mov    %dx,-0x4(%rbp)
    b465:	66 89 45 f8          	mov    %ax,-0x8(%rbp)
    b469:	66 83 7d f8 00       	cmpw   $0x0,-0x8(%rbp)
    b46e:	74 1c                	je     b48c <safe_div_func_int16_t_s_s+0x37>
    b470:	66 81 7d fc 00 80    	cmpw   $0x8000,-0x4(%rbp)
    b476:	75 07                	jne    b47f <safe_div_func_int16_t_s_s+0x2a>
    b478:	66 83 7d f8 ff       	cmpw   $0xffff,-0x8(%rbp)
    b47d:	74 0d                	je     b48c <safe_div_func_int16_t_s_s+0x37>
    b47f:	0f bf 45 fc          	movswl -0x4(%rbp),%eax
    b483:	0f bf 4d f8          	movswl -0x8(%rbp),%ecx
    b487:	99                   	cltd   
    b488:	f7 f9                	idiv   %ecx
    b48a:	eb 04                	jmp    b490 <safe_div_func_int16_t_s_s+0x3b>
    b48c:	0f b7 45 fc          	movzwl -0x4(%rbp),%eax
    b490:	5d                   	pop    %rbp
    b491:	c3                   	retq   

000000000000b492 <safe_lshift_func_int16_t_s_s>:
    b492:	f3 0f 1e fa          	endbr64 
    b496:	55                   	push   %rbp
    b497:	48 89 e5             	mov    %rsp,%rbp
    b49a:	89 f8                	mov    %edi,%eax
    b49c:	89 75 f8             	mov    %esi,-0x8(%rbp)
    b49f:	66 89 45 fc          	mov    %ax,-0x4(%rbp)
    b4a3:	66 83 7d fc 00       	cmpw   $0x0,-0x4(%rbp)
    b4a8:	78 31                	js     b4db <safe_lshift_func_int16_t_s_s+0x49>
    b4aa:	83 7d f8 00          	cmpl   $0x0,-0x8(%rbp)
    b4ae:	78 2b                	js     b4db <safe_lshift_func_int16_t_s_s+0x49>
    b4b0:	83 7d f8 1f          	cmpl   $0x1f,-0x8(%rbp)
    b4b4:	7f 25                	jg     b4db <safe_lshift_func_int16_t_s_s+0x49>
    b4b6:	0f bf 55 fc          	movswl -0x4(%rbp),%edx
    b4ba:	8b 45 f8             	mov    -0x8(%rbp),%eax
    b4bd:	be ff 7f 00 00       	mov    $0x7fff,%esi
    b4c2:	89 c1                	mov    %eax,%ecx
    b4c4:	d3 fe                	sar    %cl,%esi
    b4c6:	89 f0                	mov    %esi,%eax
    b4c8:	39 c2                	cmp    %eax,%edx
    b4ca:	7f 0f                	jg     b4db <safe_lshift_func_int16_t_s_s+0x49>
    b4cc:	0f bf 55 fc          	movswl -0x4(%rbp),%edx
    b4d0:	8b 45 f8             	mov    -0x8(%rbp),%eax
    b4d3:	89 c1                	mov    %eax,%ecx
    b4d5:	d3 e2                	shl    %cl,%edx
    b4d7:	89 d0                	mov    %edx,%eax
    b4d9:	eb 04                	jmp    b4df <safe_lshift_func_int16_t_s_s+0x4d>
    b4db:	0f b7 45 fc          	movzwl -0x4(%rbp),%eax
    b4df:	5d                   	pop    %rbp
    b4e0:	c3                   	retq   

000000000000b4e1 <safe_lshift_func_int16_t_s_u>:
    b4e1:	f3 0f 1e fa          	endbr64 
    b4e5:	55                   	push   %rbp
    b4e6:	48 89 e5             	mov    %rsp,%rbp
    b4e9:	89 f8                	mov    %edi,%eax
    b4eb:	89 75 f8             	mov    %esi,-0x8(%rbp)
    b4ee:	66 89 45 fc          	mov    %ax,-0x4(%rbp)
    b4f2:	66 83 7d fc 00       	cmpw   $0x0,-0x4(%rbp)
    b4f7:	78 2b                	js     b524 <safe_lshift_func_int16_t_s_u+0x43>
    b4f9:	83 7d f8 1f          	cmpl   $0x1f,-0x8(%rbp)
    b4fd:	77 25                	ja     b524 <safe_lshift_func_int16_t_s_u+0x43>
    b4ff:	0f bf 55 fc          	movswl -0x4(%rbp),%edx
    b503:	8b 45 f8             	mov    -0x8(%rbp),%eax
    b506:	be ff 7f 00 00       	mov    $0x7fff,%esi
    b50b:	89 c1                	mov    %eax,%ecx
    b50d:	d3 fe                	sar    %cl,%esi
    b50f:	89 f0                	mov    %esi,%eax
    b511:	39 c2                	cmp    %eax,%edx
    b513:	7f 0f                	jg     b524 <safe_lshift_func_int16_t_s_u+0x43>
    b515:	0f bf 55 fc          	movswl -0x4(%rbp),%edx
    b519:	8b 45 f8             	mov    -0x8(%rbp),%eax
    b51c:	89 c1                	mov    %eax,%ecx
    b51e:	d3 e2                	shl    %cl,%edx
    b520:	89 d0                	mov    %edx,%eax
    b522:	eb 04                	jmp    b528 <safe_lshift_func_int16_t_s_u+0x47>
    b524:	0f b7 45 fc          	movzwl -0x4(%rbp),%eax
    b528:	5d                   	pop    %rbp
    b529:	c3                   	retq   

000000000000b52a <safe_rshift_func_int16_t_s_s>:
    b52a:	f3 0f 1e fa          	endbr64 
    b52e:	55                   	push   %rbp
    b52f:	48 89 e5             	mov    %rsp,%rbp
    b532:	89 f8                	mov    %edi,%eax
    b534:	89 75 f8             	mov    %esi,-0x8(%rbp)
    b537:	66 89 45 fc          	mov    %ax,-0x4(%rbp)
    b53b:	66 83 7d fc 00       	cmpw   $0x0,-0x4(%rbp)
    b540:	78 1b                	js     b55d <safe_rshift_func_int16_t_s_s+0x33>
    b542:	83 7d f8 00          	cmpl   $0x0,-0x8(%rbp)
    b546:	78 15                	js     b55d <safe_rshift_func_int16_t_s_s+0x33>
    b548:	83 7d f8 1f          	cmpl   $0x1f,-0x8(%rbp)
    b54c:	7f 0f                	jg     b55d <safe_rshift_func_int16_t_s_s+0x33>
    b54e:	0f bf 55 fc          	movswl -0x4(%rbp),%edx
    b552:	8b 45 f8             	mov    -0x8(%rbp),%eax
    b555:	89 c1                	mov    %eax,%ecx
    b557:	d3 fa                	sar    %cl,%edx
    b559:	89 d0                	mov    %edx,%eax
    b55b:	eb 04                	jmp    b561 <safe_rshift_func_int16_t_s_s+0x37>
    b55d:	0f b7 45 fc          	movzwl -0x4(%rbp),%eax
    b561:	5d                   	pop    %rbp
    b562:	c3                   	retq   

000000000000b563 <safe_rshift_func_int16_t_s_u>:
    b563:	f3 0f 1e fa          	endbr64 
    b567:	55                   	push   %rbp
    b568:	48 89 e5             	mov    %rsp,%rbp
    b56b:	89 f8                	mov    %edi,%eax
    b56d:	89 75 f8             	mov    %esi,-0x8(%rbp)
    b570:	66 89 45 fc          	mov    %ax,-0x4(%rbp)
    b574:	66 83 7d fc 00       	cmpw   $0x0,-0x4(%rbp)
    b579:	78 15                	js     b590 <safe_rshift_func_int16_t_s_u+0x2d>
    b57b:	83 7d f8 1f          	cmpl   $0x1f,-0x8(%rbp)
    b57f:	77 0f                	ja     b590 <safe_rshift_func_int16_t_s_u+0x2d>
    b581:	0f bf 55 fc          	movswl -0x4(%rbp),%edx
    b585:	8b 45 f8             	mov    -0x8(%rbp),%eax
    b588:	89 c1                	mov    %eax,%ecx
    b58a:	d3 fa                	sar    %cl,%edx
    b58c:	89 d0                	mov    %edx,%eax
    b58e:	eb 04                	jmp    b594 <safe_rshift_func_int16_t_s_u+0x31>
    b590:	0f b7 45 fc          	movzwl -0x4(%rbp),%eax
    b594:	5d                   	pop    %rbp
    b595:	c3                   	retq   

000000000000b596 <safe_unary_minus_func_int32_t_s>:
    b596:	f3 0f 1e fa          	endbr64 
    b59a:	55                   	push   %rbp
    b59b:	48 89 e5             	mov    %rsp,%rbp
    b59e:	89 7d fc             	mov    %edi,-0x4(%rbp)
    b5a1:	81 7d fc 00 00 00 80 	cmpl   $0x80000000,-0x4(%rbp)
    b5a8:	74 07                	je     b5b1 <safe_unary_minus_func_int32_t_s+0x1b>
    b5aa:	8b 45 fc             	mov    -0x4(%rbp),%eax
    b5ad:	f7 d8                	neg    %eax
    b5af:	eb 03                	jmp    b5b4 <safe_unary_minus_func_int32_t_s+0x1e>
    b5b1:	8b 45 fc             	mov    -0x4(%rbp),%eax
    b5b4:	5d                   	pop    %rbp
    b5b5:	c3                   	retq   

000000000000b5b6 <safe_add_func_int32_t_s_s>:
    b5b6:	f3 0f 1e fa          	endbr64 
    b5ba:	55                   	push   %rbp
    b5bb:	48 89 e5             	mov    %rsp,%rbp
    b5be:	89 7d fc             	mov    %edi,-0x4(%rbp)
    b5c1:	89 75 f8             	mov    %esi,-0x8(%rbp)
    b5c4:	83 7d fc 00          	cmpl   $0x0,-0x4(%rbp)
    b5c8:	7e 13                	jle    b5dd <safe_add_func_int32_t_s_s+0x27>
    b5ca:	83 7d f8 00          	cmpl   $0x0,-0x8(%rbp)
    b5ce:	7e 0d                	jle    b5dd <safe_add_func_int32_t_s_s+0x27>
    b5d0:	b8 ff ff ff 7f       	mov    $0x7fffffff,%eax
    b5d5:	2b 45 f8             	sub    -0x8(%rbp),%eax
    b5d8:	39 45 fc             	cmp    %eax,-0x4(%rbp)
    b5db:	7f 23                	jg     b600 <safe_add_func_int32_t_s_s+0x4a>
    b5dd:	83 7d fc 00          	cmpl   $0x0,-0x4(%rbp)
    b5e1:	79 13                	jns    b5f6 <safe_add_func_int32_t_s_s+0x40>
    b5e3:	83 7d f8 00          	cmpl   $0x0,-0x8(%rbp)
    b5e7:	79 0d                	jns    b5f6 <safe_add_func_int32_t_s_s+0x40>
    b5e9:	b8 00 00 00 80       	mov    $0x80000000,%eax
    b5ee:	2b 45 f8             	sub    -0x8(%rbp),%eax
    b5f1:	39 45 fc             	cmp    %eax,-0x4(%rbp)
    b5f4:	7c 0a                	jl     b600 <safe_add_func_int32_t_s_s+0x4a>
    b5f6:	8b 55 fc             	mov    -0x4(%rbp),%edx
    b5f9:	8b 45 f8             	mov    -0x8(%rbp),%eax
    b5fc:	01 d0                	add    %edx,%eax
    b5fe:	eb 03                	jmp    b603 <safe_add_func_int32_t_s_s+0x4d>
    b600:	8b 45 fc             	mov    -0x4(%rbp),%eax
    b603:	5d                   	pop    %rbp
    b604:	c3                   	retq   

000000000000b605 <safe_sub_func_int32_t_s_s>:
    b605:	f3 0f 1e fa          	endbr64 
    b609:	55                   	push   %rbp
    b60a:	48 89 e5             	mov    %rsp,%rbp
    b60d:	89 7d fc             	mov    %edi,-0x4(%rbp)
    b610:	89 75 f8             	mov    %esi,-0x8(%rbp)
    b613:	8b 45 fc             	mov    -0x4(%rbp),%eax
    b616:	33 45 f8             	xor    -0x8(%rbp),%eax
    b619:	89 c2                	mov    %eax,%edx
    b61b:	8b 45 fc             	mov    -0x4(%rbp),%eax
    b61e:	33 45 f8             	xor    -0x8(%rbp),%eax
    b621:	25 00 00 00 80       	and    $0x80000000,%eax
    b626:	33 45 fc             	xor    -0x4(%rbp),%eax
    b629:	2b 45 f8             	sub    -0x8(%rbp),%eax
    b62c:	33 45 f8             	xor    -0x8(%rbp),%eax
    b62f:	21 d0                	and    %edx,%eax
    b631:	85 c0                	test   %eax,%eax
    b633:	78 08                	js     b63d <safe_sub_func_int32_t_s_s+0x38>
    b635:	8b 45 fc             	mov    -0x4(%rbp),%eax
    b638:	2b 45 f8             	sub    -0x8(%rbp),%eax
    b63b:	eb 03                	jmp    b640 <safe_sub_func_int32_t_s_s+0x3b>
    b63d:	8b 45 fc             	mov    -0x4(%rbp),%eax
    b640:	5d                   	pop    %rbp
    b641:	c3                   	retq   

000000000000b642 <safe_mul_func_int32_t_s_s>:
    b642:	f3 0f 1e fa          	endbr64 
    b646:	55                   	push   %rbp
    b647:	48 89 e5             	mov    %rsp,%rbp
    b64a:	89 7d fc             	mov    %edi,-0x4(%rbp)
    b64d:	89 75 f8             	mov    %esi,-0x8(%rbp)
    b650:	83 7d fc 00          	cmpl   $0x0,-0x4(%rbp)
    b654:	7e 14                	jle    b66a <safe_mul_func_int32_t_s_s+0x28>
    b656:	83 7d f8 00          	cmpl   $0x0,-0x8(%rbp)
    b65a:	7e 0e                	jle    b66a <safe_mul_func_int32_t_s_s+0x28>
    b65c:	b8 ff ff ff 7f       	mov    $0x7fffffff,%eax
    b661:	99                   	cltd   
    b662:	f7 7d f8             	idivl  -0x8(%rbp)
    b665:	39 45 fc             	cmp    %eax,-0x4(%rbp)
    b668:	7f 5d                	jg     b6c7 <safe_mul_func_int32_t_s_s+0x85>
    b66a:	83 7d fc 00          	cmpl   $0x0,-0x4(%rbp)
    b66e:	7e 14                	jle    b684 <safe_mul_func_int32_t_s_s+0x42>
    b670:	83 7d f8 00          	cmpl   $0x0,-0x8(%rbp)
    b674:	7f 0e                	jg     b684 <safe_mul_func_int32_t_s_s+0x42>
    b676:	b8 00 00 00 80       	mov    $0x80000000,%eax
    b67b:	99                   	cltd   
    b67c:	f7 7d fc             	idivl  -0x4(%rbp)
    b67f:	39 45 f8             	cmp    %eax,-0x8(%rbp)
    b682:	7c 43                	jl     b6c7 <safe_mul_func_int32_t_s_s+0x85>
    b684:	83 7d fc 00          	cmpl   $0x0,-0x4(%rbp)
    b688:	7f 14                	jg     b69e <safe_mul_func_int32_t_s_s+0x5c>
    b68a:	83 7d f8 00          	cmpl   $0x0,-0x8(%rbp)
    b68e:	7e 0e                	jle    b69e <safe_mul_func_int32_t_s_s+0x5c>
    b690:	b8 00 00 00 80       	mov    $0x80000000,%eax
    b695:	99                   	cltd   
    b696:	f7 7d f8             	idivl  -0x8(%rbp)
    b699:	39 45 fc             	cmp    %eax,-0x4(%rbp)
    b69c:	7c 29                	jl     b6c7 <safe_mul_func_int32_t_s_s+0x85>
    b69e:	83 7d fc 00          	cmpl   $0x0,-0x4(%rbp)
    b6a2:	7f 1a                	jg     b6be <safe_mul_func_int32_t_s_s+0x7c>
    b6a4:	83 7d f8 00          	cmpl   $0x0,-0x8(%rbp)
    b6a8:	7f 14                	jg     b6be <safe_mul_func_int32_t_s_s+0x7c>
    b6aa:	83 7d fc 00          	cmpl   $0x0,-0x4(%rbp)
    b6ae:	74 0e                	je     b6be <safe_mul_func_int32_t_s_s+0x7c>
    b6b0:	b8 ff ff ff 7f       	mov    $0x7fffffff,%eax
    b6b5:	99                   	cltd   
    b6b6:	f7 7d fc             	idivl  -0x4(%rbp)
    b6b9:	39 45 f8             	cmp    %eax,-0x8(%rbp)
    b6bc:	7c 09                	jl     b6c7 <safe_mul_func_int32_t_s_s+0x85>
    b6be:	8b 45 fc             	mov    -0x4(%rbp),%eax
    b6c1:	0f af 45 f8          	imul   -0x8(%rbp),%eax
    b6c5:	eb 03                	jmp    b6ca <safe_mul_func_int32_t_s_s+0x88>
    b6c7:	8b 45 fc             	mov    -0x4(%rbp),%eax
    b6ca:	5d                   	pop    %rbp
    b6cb:	c3                   	retq   

000000000000b6cc <safe_mod_func_int32_t_s_s>:
    b6cc:	f3 0f 1e fa          	endbr64 
    b6d0:	55                   	push   %rbp
    b6d1:	48 89 e5             	mov    %rsp,%rbp
    b6d4:	89 7d fc             	mov    %edi,-0x4(%rbp)
    b6d7:	89 75 f8             	mov    %esi,-0x8(%rbp)
    b6da:	83 7d f8 00          	cmpl   $0x0,-0x8(%rbp)
    b6de:	74 1a                	je     b6fa <safe_mod_func_int32_t_s_s+0x2e>
    b6e0:	81 7d fc 00 00 00 80 	cmpl   $0x80000000,-0x4(%rbp)
    b6e7:	75 06                	jne    b6ef <safe_mod_func_int32_t_s_s+0x23>
    b6e9:	83 7d f8 ff          	cmpl   $0xffffffff,-0x8(%rbp)
    b6ed:	74 0b                	je     b6fa <safe_mod_func_int32_t_s_s+0x2e>
    b6ef:	8b 45 fc             	mov    -0x4(%rbp),%eax
    b6f2:	99                   	cltd   
    b6f3:	f7 7d f8             	idivl  -0x8(%rbp)
    b6f6:	89 d0                	mov    %edx,%eax
    b6f8:	eb 03                	jmp    b6fd <safe_mod_func_int32_t_s_s+0x31>
    b6fa:	8b 45 fc             	mov    -0x4(%rbp),%eax
    b6fd:	5d                   	pop    %rbp
    b6fe:	c3                   	retq   

000000000000b6ff <safe_div_func_int32_t_s_s>:
    b6ff:	f3 0f 1e fa          	endbr64 
    b703:	55                   	push   %rbp
    b704:	48 89 e5             	mov    %rsp,%rbp
    b707:	89 7d fc             	mov    %edi,-0x4(%rbp)
    b70a:	89 75 f8             	mov    %esi,-0x8(%rbp)
    b70d:	83 7d f8 00          	cmpl   $0x0,-0x8(%rbp)
    b711:	74 18                	je     b72b <safe_div_func_int32_t_s_s+0x2c>
    b713:	81 7d fc 00 00 00 80 	cmpl   $0x80000000,-0x4(%rbp)
    b71a:	75 06                	jne    b722 <safe_div_func_int32_t_s_s+0x23>
    b71c:	83 7d f8 ff          	cmpl   $0xffffffff,-0x8(%rbp)
    b720:	74 09                	je     b72b <safe_div_func_int32_t_s_s+0x2c>
    b722:	8b 45 fc             	mov    -0x4(%rbp),%eax
    b725:	99                   	cltd   
    b726:	f7 7d f8             	idivl  -0x8(%rbp)
    b729:	eb 03                	jmp    b72e <safe_div_func_int32_t_s_s+0x2f>
    b72b:	8b 45 fc             	mov    -0x4(%rbp),%eax
    b72e:	5d                   	pop    %rbp
    b72f:	c3                   	retq   

000000000000b730 <safe_lshift_func_int32_t_s_s>:
    b730:	f3 0f 1e fa          	endbr64 
    b734:	55                   	push   %rbp
    b735:	48 89 e5             	mov    %rsp,%rbp
    b738:	89 7d fc             	mov    %edi,-0x4(%rbp)
    b73b:	89 75 f8             	mov    %esi,-0x8(%rbp)
    b73e:	83 7d fc 00          	cmpl   $0x0,-0x4(%rbp)
    b742:	78 2d                	js     b771 <safe_lshift_func_int32_t_s_s+0x41>
    b744:	83 7d f8 00          	cmpl   $0x0,-0x8(%rbp)
    b748:	78 27                	js     b771 <safe_lshift_func_int32_t_s_s+0x41>
    b74a:	83 7d f8 1f          	cmpl   $0x1f,-0x8(%rbp)
    b74e:	7f 21                	jg     b771 <safe_lshift_func_int32_t_s_s+0x41>
    b750:	8b 45 f8             	mov    -0x8(%rbp),%eax
    b753:	ba ff ff ff 7f       	mov    $0x7fffffff,%edx
    b758:	89 c1                	mov    %eax,%ecx
    b75a:	d3 fa                	sar    %cl,%edx
    b75c:	89 d0                	mov    %edx,%eax
    b75e:	39 45 fc             	cmp    %eax,-0x4(%rbp)
    b761:	7f 0e                	jg     b771 <safe_lshift_func_int32_t_s_s+0x41>
    b763:	8b 45 f8             	mov    -0x8(%rbp),%eax
    b766:	8b 55 fc             	mov    -0x4(%rbp),%edx
    b769:	89 c1                	mov    %eax,%ecx
    b76b:	d3 e2                	shl    %cl,%edx
    b76d:	89 d0                	mov    %edx,%eax
    b76f:	eb 03                	jmp    b774 <safe_lshift_func_int32_t_s_s+0x44>
    b771:	8b 45 fc             	mov    -0x4(%rbp),%eax
    b774:	5d                   	pop    %rbp
    b775:	c3                   	retq   

000000000000b776 <safe_lshift_func_int32_t_s_u>:
    b776:	f3 0f 1e fa          	endbr64 
    b77a:	55                   	push   %rbp
    b77b:	48 89 e5             	mov    %rsp,%rbp
    b77e:	89 7d fc             	mov    %edi,-0x4(%rbp)
    b781:	89 75 f8             	mov    %esi,-0x8(%rbp)
    b784:	83 7d fc 00          	cmpl   $0x0,-0x4(%rbp)
    b788:	78 27                	js     b7b1 <safe_lshift_func_int32_t_s_u+0x3b>
    b78a:	83 7d f8 1f          	cmpl   $0x1f,-0x8(%rbp)
    b78e:	77 21                	ja     b7b1 <safe_lshift_func_int32_t_s_u+0x3b>
    b790:	8b 45 f8             	mov    -0x8(%rbp),%eax
    b793:	ba ff ff ff 7f       	mov    $0x7fffffff,%edx
    b798:	89 c1                	mov    %eax,%ecx
    b79a:	d3 fa                	sar    %cl,%edx
    b79c:	89 d0                	mov    %edx,%eax
    b79e:	39 45 fc             	cmp    %eax,-0x4(%rbp)
    b7a1:	7f 0e                	jg     b7b1 <safe_lshift_func_int32_t_s_u+0x3b>
    b7a3:	8b 45 f8             	mov    -0x8(%rbp),%eax
    b7a6:	8b 55 fc             	mov    -0x4(%rbp),%edx
    b7a9:	89 c1                	mov    %eax,%ecx
    b7ab:	d3 e2                	shl    %cl,%edx
    b7ad:	89 d0                	mov    %edx,%eax
    b7af:	eb 03                	jmp    b7b4 <safe_lshift_func_int32_t_s_u+0x3e>
    b7b1:	8b 45 fc             	mov    -0x4(%rbp),%eax
    b7b4:	5d                   	pop    %rbp
    b7b5:	c3                   	retq   

000000000000b7b6 <safe_rshift_func_int32_t_s_s>:
    b7b6:	f3 0f 1e fa          	endbr64 
    b7ba:	55                   	push   %rbp
    b7bb:	48 89 e5             	mov    %rsp,%rbp
    b7be:	89 7d fc             	mov    %edi,-0x4(%rbp)
    b7c1:	89 75 f8             	mov    %esi,-0x8(%rbp)
    b7c4:	83 7d fc 00          	cmpl   $0x0,-0x4(%rbp)
    b7c8:	78 1a                	js     b7e4 <safe_rshift_func_int32_t_s_s+0x2e>
    b7ca:	83 7d f8 00          	cmpl   $0x0,-0x8(%rbp)
    b7ce:	78 14                	js     b7e4 <safe_rshift_func_int32_t_s_s+0x2e>
    b7d0:	83 7d f8 1f          	cmpl   $0x1f,-0x8(%rbp)
    b7d4:	7f 0e                	jg     b7e4 <safe_rshift_func_int32_t_s_s+0x2e>
    b7d6:	8b 45 f8             	mov    -0x8(%rbp),%eax
    b7d9:	8b 55 fc             	mov    -0x4(%rbp),%edx
    b7dc:	89 c1                	mov    %eax,%ecx
    b7de:	d3 fa                	sar    %cl,%edx
    b7e0:	89 d0                	mov    %edx,%eax
    b7e2:	eb 03                	jmp    b7e7 <safe_rshift_func_int32_t_s_s+0x31>
    b7e4:	8b 45 fc             	mov    -0x4(%rbp),%eax
    b7e7:	5d                   	pop    %rbp
    b7e8:	c3                   	retq   

000000000000b7e9 <safe_rshift_func_int32_t_s_u>:
    b7e9:	f3 0f 1e fa          	endbr64 
    b7ed:	55                   	push   %rbp
    b7ee:	48 89 e5             	mov    %rsp,%rbp
    b7f1:	89 7d fc             	mov    %edi,-0x4(%rbp)
    b7f4:	89 75 f8             	mov    %esi,-0x8(%rbp)
    b7f7:	83 7d fc 00          	cmpl   $0x0,-0x4(%rbp)
    b7fb:	78 14                	js     b811 <safe_rshift_func_int32_t_s_u+0x28>
    b7fd:	83 7d f8 1f          	cmpl   $0x1f,-0x8(%rbp)
    b801:	77 0e                	ja     b811 <safe_rshift_func_int32_t_s_u+0x28>
    b803:	8b 45 f8             	mov    -0x8(%rbp),%eax
    b806:	8b 55 fc             	mov    -0x4(%rbp),%edx
    b809:	89 c1                	mov    %eax,%ecx
    b80b:	d3 fa                	sar    %cl,%edx
    b80d:	89 d0                	mov    %edx,%eax
    b80f:	eb 03                	jmp    b814 <safe_rshift_func_int32_t_s_u+0x2b>
    b811:	8b 45 fc             	mov    -0x4(%rbp),%eax
    b814:	5d                   	pop    %rbp
    b815:	c3                   	retq   

000000000000b816 <safe_unary_minus_func_int64_t_s>:
    b816:	f3 0f 1e fa          	endbr64 
    b81a:	55                   	push   %rbp
    b81b:	48 89 e5             	mov    %rsp,%rbp
    b81e:	48 89 7d f8          	mov    %rdi,-0x8(%rbp)
    b822:	48 b8 00 00 00 00 00 	movabs $0x8000000000000000,%rax
    b829:	00 00 80 
    b82c:	48 39 45 f8          	cmp    %rax,-0x8(%rbp)
    b830:	74 09                	je     b83b <safe_unary_minus_func_int64_t_s+0x25>
    b832:	48 8b 45 f8          	mov    -0x8(%rbp),%rax
    b836:	48 f7 d8             	neg    %rax
    b839:	eb 04                	jmp    b83f <safe_unary_minus_func_int64_t_s+0x29>
    b83b:	48 8b 45 f8          	mov    -0x8(%rbp),%rax
    b83f:	5d                   	pop    %rbp
    b840:	c3                   	retq   

000000000000b841 <safe_add_func_int64_t_s_s>:
    b841:	f3 0f 1e fa          	endbr64 
    b845:	55                   	push   %rbp
    b846:	48 89 e5             	mov    %rsp,%rbp
    b849:	48 89 7d f8          	mov    %rdi,-0x8(%rbp)
    b84d:	48 89 75 f0          	mov    %rsi,-0x10(%rbp)
    b851:	48 83 7d f8 00       	cmpq   $0x0,-0x8(%rbp)
    b856:	7e 1b                	jle    b873 <safe_add_func_int64_t_s_s+0x32>
    b858:	48 83 7d f0 00       	cmpq   $0x0,-0x10(%rbp)
    b85d:	7e 14                	jle    b873 <safe_add_func_int64_t_s_s+0x32>
    b85f:	48 b8 ff ff ff ff ff 	movabs $0x7fffffffffffffff,%rax
    b866:	ff ff 7f 
    b869:	48 2b 45 f0          	sub    -0x10(%rbp),%rax
    b86d:	48 39 45 f8          	cmp    %rax,-0x8(%rbp)
    b871:	7f 2f                	jg     b8a2 <safe_add_func_int64_t_s_s+0x61>
    b873:	48 83 7d f8 00       	cmpq   $0x0,-0x8(%rbp)
    b878:	79 1b                	jns    b895 <safe_add_func_int64_t_s_s+0x54>
    b87a:	48 83 7d f0 00       	cmpq   $0x0,-0x10(%rbp)
    b87f:	79 14                	jns    b895 <safe_add_func_int64_t_s_s+0x54>
    b881:	48 b8 00 00 00 00 00 	movabs $0x8000000000000000,%rax
    b888:	00 00 80 
    b88b:	48 2b 45 f0          	sub    -0x10(%rbp),%rax
    b88f:	48 39 45 f8          	cmp    %rax,-0x8(%rbp)
    b893:	7c 0d                	jl     b8a2 <safe_add_func_int64_t_s_s+0x61>
    b895:	48 8b 55 f8          	mov    -0x8(%rbp),%rdx
    b899:	48 8b 45 f0          	mov    -0x10(%rbp),%rax
    b89d:	48 01 d0             	add    %rdx,%rax
    b8a0:	eb 04                	jmp    b8a6 <safe_add_func_int64_t_s_s+0x65>
    b8a2:	48 8b 45 f8          	mov    -0x8(%rbp),%rax
    b8a6:	5d                   	pop    %rbp
    b8a7:	c3                   	retq   

000000000000b8a8 <safe_sub_func_int64_t_s_s>:
    b8a8:	f3 0f 1e fa          	endbr64 
    b8ac:	55                   	push   %rbp
    b8ad:	48 89 e5             	mov    %rsp,%rbp
    b8b0:	48 89 7d f8          	mov    %rdi,-0x8(%rbp)
    b8b4:	48 89 75 f0          	mov    %rsi,-0x10(%rbp)
    b8b8:	48 8b 45 f8          	mov    -0x8(%rbp),%rax
    b8bc:	48 33 45 f0          	xor    -0x10(%rbp),%rax
    b8c0:	48 89 c2             	mov    %rax,%rdx
    b8c3:	48 8b 45 f8          	mov    -0x8(%rbp),%rax
    b8c7:	48 33 45 f0          	xor    -0x10(%rbp),%rax
    b8cb:	48 b9 00 00 00 00 00 	movabs $0x8000000000000000,%rcx
    b8d2:	00 00 80 
    b8d5:	48 21 c8             	and    %rcx,%rax
    b8d8:	48 33 45 f8          	xor    -0x8(%rbp),%rax
    b8dc:	48 2b 45 f0          	sub    -0x10(%rbp),%rax
    b8e0:	48 33 45 f0          	xor    -0x10(%rbp),%rax
    b8e4:	48 21 d0             	and    %rdx,%rax
    b8e7:	48 85 c0             	test   %rax,%rax
    b8ea:	78 0a                	js     b8f6 <safe_sub_func_int64_t_s_s+0x4e>
    b8ec:	48 8b 45 f8          	mov    -0x8(%rbp),%rax
    b8f0:	48 2b 45 f0          	sub    -0x10(%rbp),%rax
    b8f4:	eb 04                	jmp    b8fa <safe_sub_func_int64_t_s_s+0x52>
    b8f6:	48 8b 45 f8          	mov    -0x8(%rbp),%rax
    b8fa:	5d                   	pop    %rbp
    b8fb:	c3                   	retq   

000000000000b8fc <safe_mul_func_int64_t_s_s>:
    b8fc:	f3 0f 1e fa          	endbr64 
    b900:	55                   	push   %rbp
    b901:	48 89 e5             	mov    %rsp,%rbp
    b904:	48 89 7d f8          	mov    %rdi,-0x8(%rbp)
    b908:	48 89 75 f0          	mov    %rsi,-0x10(%rbp)
    b90c:	48 83 7d f8 00       	cmpq   $0x0,-0x8(%rbp)
    b911:	7e 1d                	jle    b930 <safe_mul_func_int64_t_s_s+0x34>
    b913:	48 83 7d f0 00       	cmpq   $0x0,-0x10(%rbp)
    b918:	7e 16                	jle    b930 <safe_mul_func_int64_t_s_s+0x34>
    b91a:	48 b8 ff ff ff ff ff 	movabs $0x7fffffffffffffff,%rax
    b921:	ff ff 7f 
    b924:	48 99                	cqto   
    b926:	48 f7 7d f0          	idivq  -0x10(%rbp)
    b92a:	48 39 45 f8          	cmp    %rax,-0x8(%rbp)
    b92e:	7f 7e                	jg     b9ae <safe_mul_func_int64_t_s_s+0xb2>
    b930:	48 83 7d f8 00       	cmpq   $0x0,-0x8(%rbp)
    b935:	7e 1d                	jle    b954 <safe_mul_func_int64_t_s_s+0x58>
    b937:	48 83 7d f0 00       	cmpq   $0x0,-0x10(%rbp)
    b93c:	7f 16                	jg     b954 <safe_mul_func_int64_t_s_s+0x58>
    b93e:	48 b8 00 00 00 00 00 	movabs $0x8000000000000000,%rax
    b945:	00 00 80 
    b948:	48 99                	cqto   
    b94a:	48 f7 7d f8          	idivq  -0x8(%rbp)
    b94e:	48 39 45 f0          	cmp    %rax,-0x10(%rbp)
    b952:	7c 5a                	jl     b9ae <safe_mul_func_int64_t_s_s+0xb2>
    b954:	48 83 7d f8 00       	cmpq   $0x0,-0x8(%rbp)
    b959:	7f 1d                	jg     b978 <safe_mul_func_int64_t_s_s+0x7c>
    b95b:	48 83 7d f0 00       	cmpq   $0x0,-0x10(%rbp)
    b960:	7e 16                	jle    b978 <safe_mul_func_int64_t_s_s+0x7c>
    b962:	48 b8 00 00 00 00 00 	movabs $0x8000000000000000,%rax
    b969:	00 00 80 
    b96c:	48 99                	cqto   
    b96e:	48 f7 7d f0          	idivq  -0x10(%rbp)
    b972:	48 39 45 f8          	cmp    %rax,-0x8(%rbp)
    b976:	7c 36                	jl     b9ae <safe_mul_func_int64_t_s_s+0xb2>
    b978:	48 83 7d f8 00       	cmpq   $0x0,-0x8(%rbp)
    b97d:	7f 24                	jg     b9a3 <safe_mul_func_int64_t_s_s+0xa7>
    b97f:	48 83 7d f0 00       	cmpq   $0x0,-0x10(%rbp)
    b984:	7f 1d                	jg     b9a3 <safe_mul_func_int64_t_s_s+0xa7>
    b986:	48 83 7d f8 00       	cmpq   $0x0,-0x8(%rbp)
    b98b:	74 16                	je     b9a3 <safe_mul_func_int64_t_s_s+0xa7>
    b98d:	48 b8 ff ff ff ff ff 	movabs $0x7fffffffffffffff,%rax
    b994:	ff ff 7f 
    b997:	48 99                	cqto   
    b999:	48 f7 7d f8          	idivq  -0x8(%rbp)
    b99d:	48 39 45 f0          	cmp    %rax,-0x10(%rbp)
    b9a1:	7c 0b                	jl     b9ae <safe_mul_func_int64_t_s_s+0xb2>
    b9a3:	48 8b 45 f8          	mov    -0x8(%rbp),%rax
    b9a7:	48 0f af 45 f0       	imul   -0x10(%rbp),%rax
    b9ac:	eb 04                	jmp    b9b2 <safe_mul_func_int64_t_s_s+0xb6>
    b9ae:	48 8b 45 f8          	mov    -0x8(%rbp),%rax
    b9b2:	5d                   	pop    %rbp
    b9b3:	c3                   	retq   

000000000000b9b4 <safe_mod_func_int64_t_s_s>:
    b9b4:	f3 0f 1e fa          	endbr64 
    b9b8:	55                   	push   %rbp
    b9b9:	48 89 e5             	mov    %rsp,%rbp
    b9bc:	48 89 7d f8          	mov    %rdi,-0x8(%rbp)
    b9c0:	48 89 75 f0          	mov    %rsi,-0x10(%rbp)
    b9c4:	48 83 7d f0 00       	cmpq   $0x0,-0x10(%rbp)
    b9c9:	74 26                	je     b9f1 <safe_mod_func_int64_t_s_s+0x3d>
    b9cb:	48 b8 00 00 00 00 00 	movabs $0x8000000000000000,%rax
    b9d2:	00 00 80 
    b9d5:	48 39 45 f8          	cmp    %rax,-0x8(%rbp)
    b9d9:	75 07                	jne    b9e2 <safe_mod_func_int64_t_s_s+0x2e>
    b9db:	48 83 7d f0 ff       	cmpq   $0xffffffffffffffff,-0x10(%rbp)
    b9e0:	74 0f                	je     b9f1 <safe_mod_func_int64_t_s_s+0x3d>
    b9e2:	48 8b 45 f8          	mov    -0x8(%rbp),%rax
    b9e6:	48 99                	cqto   
    b9e8:	48 f7 7d f0          	idivq  -0x10(%rbp)
    b9ec:	48 89 d0             	mov    %rdx,%rax
    b9ef:	eb 04                	jmp    b9f5 <safe_mod_func_int64_t_s_s+0x41>
    b9f1:	48 8b 45 f8          	mov    -0x8(%rbp),%rax
    b9f5:	5d                   	pop    %rbp
    b9f6:	c3                   	retq   

000000000000b9f7 <safe_div_func_int64_t_s_s>:
    b9f7:	f3 0f 1e fa          	endbr64 
    b9fb:	55                   	push   %rbp
    b9fc:	48 89 e5             	mov    %rsp,%rbp
    b9ff:	48 89 7d f8          	mov    %rdi,-0x8(%rbp)
    ba03:	48 89 75 f0          	mov    %rsi,-0x10(%rbp)
    ba07:	48 83 7d f0 00       	cmpq   $0x0,-0x10(%rbp)
    ba0c:	74 23                	je     ba31 <safe_div_func_int64_t_s_s+0x3a>
    ba0e:	48 b8 00 00 00 00 00 	movabs $0x8000000000000000,%rax
    ba15:	00 00 80 
    ba18:	48 39 45 f8          	cmp    %rax,-0x8(%rbp)
    ba1c:	75 07                	jne    ba25 <safe_div_func_int64_t_s_s+0x2e>
    ba1e:	48 83 7d f0 ff       	cmpq   $0xffffffffffffffff,-0x10(%rbp)
    ba23:	74 0c                	je     ba31 <safe_div_func_int64_t_s_s+0x3a>
    ba25:	48 8b 45 f8          	mov    -0x8(%rbp),%rax
    ba29:	48 99                	cqto   
    ba2b:	48 f7 7d f0          	idivq  -0x10(%rbp)
    ba2f:	eb 04                	jmp    ba35 <safe_div_func_int64_t_s_s+0x3e>
    ba31:	48 8b 45 f8          	mov    -0x8(%rbp),%rax
    ba35:	5d                   	pop    %rbp
    ba36:	c3                   	retq   

000000000000ba37 <safe_lshift_func_int64_t_s_s>:
    ba37:	f3 0f 1e fa          	endbr64 
    ba3b:	55                   	push   %rbp
    ba3c:	48 89 e5             	mov    %rsp,%rbp
    ba3f:	48 89 7d f8          	mov    %rdi,-0x8(%rbp)
    ba43:	89 75 f4             	mov    %esi,-0xc(%rbp)
    ba46:	48 83 7d f8 00       	cmpq   $0x0,-0x8(%rbp)
    ba4b:	78 38                	js     ba85 <safe_lshift_func_int64_t_s_s+0x4e>
    ba4d:	83 7d f4 00          	cmpl   $0x0,-0xc(%rbp)
    ba51:	78 32                	js     ba85 <safe_lshift_func_int64_t_s_s+0x4e>
    ba53:	83 7d f4 1f          	cmpl   $0x1f,-0xc(%rbp)
    ba57:	7f 2c                	jg     ba85 <safe_lshift_func_int64_t_s_s+0x4e>
    ba59:	8b 45 f4             	mov    -0xc(%rbp),%eax
    ba5c:	48 ba ff ff ff ff ff 	movabs $0x7fffffffffffffff,%rdx
    ba63:	ff ff 7f 
    ba66:	89 c1                	mov    %eax,%ecx
    ba68:	48 d3 fa             	sar    %cl,%rdx
    ba6b:	48 89 d0             	mov    %rdx,%rax
    ba6e:	48 39 45 f8          	cmp    %rax,-0x8(%rbp)
    ba72:	7f 11                	jg     ba85 <safe_lshift_func_int64_t_s_s+0x4e>
    ba74:	8b 45 f4             	mov    -0xc(%rbp),%eax
    ba77:	48 8b 55 f8          	mov    -0x8(%rbp),%rdx
    ba7b:	89 c1                	mov    %eax,%ecx
    ba7d:	48 d3 e2             	shl    %cl,%rdx
    ba80:	48 89 d0             	mov    %rdx,%rax
    ba83:	eb 04                	jmp    ba89 <safe_lshift_func_int64_t_s_s+0x52>
    ba85:	48 8b 45 f8          	mov    -0x8(%rbp),%rax
    ba89:	5d                   	pop    %rbp
    ba8a:	c3                   	retq   

000000000000ba8b <safe_lshift_func_int64_t_s_u>:
    ba8b:	f3 0f 1e fa          	endbr64 
    ba8f:	55                   	push   %rbp
    ba90:	48 89 e5             	mov    %rsp,%rbp
    ba93:	48 89 7d f8          	mov    %rdi,-0x8(%rbp)
    ba97:	89 75 f4             	mov    %esi,-0xc(%rbp)
    ba9a:	48 83 7d f8 00       	cmpq   $0x0,-0x8(%rbp)
    ba9f:	78 32                	js     bad3 <safe_lshift_func_int64_t_s_u+0x48>
    baa1:	83 7d f4 1f          	cmpl   $0x1f,-0xc(%rbp)
    baa5:	77 2c                	ja     bad3 <safe_lshift_func_int64_t_s_u+0x48>
    baa7:	8b 45 f4             	mov    -0xc(%rbp),%eax
    baaa:	48 ba ff ff ff ff ff 	movabs $0x7fffffffffffffff,%rdx
    bab1:	ff ff 7f 
    bab4:	89 c1                	mov    %eax,%ecx
    bab6:	48 d3 fa             	sar    %cl,%rdx
    bab9:	48 89 d0             	mov    %rdx,%rax
    babc:	48 39 45 f8          	cmp    %rax,-0x8(%rbp)
    bac0:	7f 11                	jg     bad3 <safe_lshift_func_int64_t_s_u+0x48>
    bac2:	8b 45 f4             	mov    -0xc(%rbp),%eax
    bac5:	48 8b 55 f8          	mov    -0x8(%rbp),%rdx
    bac9:	89 c1                	mov    %eax,%ecx
    bacb:	48 d3 e2             	shl    %cl,%rdx
    bace:	48 89 d0             	mov    %rdx,%rax
    bad1:	eb 04                	jmp    bad7 <safe_lshift_func_int64_t_s_u+0x4c>
    bad3:	48 8b 45 f8          	mov    -0x8(%rbp),%rax
    bad7:	5d                   	pop    %rbp
    bad8:	c3                   	retq   

000000000000bad9 <safe_rshift_func_int64_t_s_s>:
    bad9:	f3 0f 1e fa          	endbr64 
    badd:	55                   	push   %rbp
    bade:	48 89 e5             	mov    %rsp,%rbp
    bae1:	48 89 7d f8          	mov    %rdi,-0x8(%rbp)
    bae5:	89 75 f4             	mov    %esi,-0xc(%rbp)
    bae8:	48 83 7d f8 00       	cmpq   $0x0,-0x8(%rbp)
    baed:	78 1d                	js     bb0c <safe_rshift_func_int64_t_s_s+0x33>
    baef:	83 7d f4 00          	cmpl   $0x0,-0xc(%rbp)
    baf3:	78 17                	js     bb0c <safe_rshift_func_int64_t_s_s+0x33>
    baf5:	83 7d f4 1f          	cmpl   $0x1f,-0xc(%rbp)
    baf9:	7f 11                	jg     bb0c <safe_rshift_func_int64_t_s_s+0x33>
    bafb:	8b 45 f4             	mov    -0xc(%rbp),%eax
    bafe:	48 8b 55 f8          	mov    -0x8(%rbp),%rdx
    bb02:	89 c1                	mov    %eax,%ecx
    bb04:	48 d3 fa             	sar    %cl,%rdx
    bb07:	48 89 d0             	mov    %rdx,%rax
    bb0a:	eb 04                	jmp    bb10 <safe_rshift_func_int64_t_s_s+0x37>
    bb0c:	48 8b 45 f8          	mov    -0x8(%rbp),%rax
    bb10:	5d                   	pop    %rbp
    bb11:	c3                   	retq   

000000000000bb12 <safe_rshift_func_int64_t_s_u>:
    bb12:	f3 0f 1e fa          	endbr64 
    bb16:	55                   	push   %rbp
    bb17:	48 89 e5             	mov    %rsp,%rbp
    bb1a:	48 89 7d f8          	mov    %rdi,-0x8(%rbp)
    bb1e:	89 75 f4             	mov    %esi,-0xc(%rbp)
    bb21:	48 83 7d f8 00       	cmpq   $0x0,-0x8(%rbp)
    bb26:	78 17                	js     bb3f <safe_rshift_func_int64_t_s_u+0x2d>
    bb28:	83 7d f4 1f          	cmpl   $0x1f,-0xc(%rbp)
    bb2c:	77 11                	ja     bb3f <safe_rshift_func_int64_t_s_u+0x2d>
    bb2e:	8b 45 f4             	mov    -0xc(%rbp),%eax
    bb31:	48 8b 55 f8          	mov    -0x8(%rbp),%rdx
    bb35:	89 c1                	mov    %eax,%ecx
    bb37:	48 d3 fa             	sar    %cl,%rdx
    bb3a:	48 89 d0             	mov    %rdx,%rax
    bb3d:	eb 04                	jmp    bb43 <safe_rshift_func_int64_t_s_u+0x31>
    bb3f:	48 8b 45 f8          	mov    -0x8(%rbp),%rax
    bb43:	5d                   	pop    %rbp
    bb44:	c3                   	retq   

000000000000bb45 <safe_unary_minus_func_uint8_t_u>:
    bb45:	f3 0f 1e fa          	endbr64 
    bb49:	55                   	push   %rbp
    bb4a:	48 89 e5             	mov    %rsp,%rbp
    bb4d:	89 f8                	mov    %edi,%eax
    bb4f:	88 45 fc             	mov    %al,-0x4(%rbp)
    bb52:	0f b6 45 fc          	movzbl -0x4(%rbp),%eax
    bb56:	f7 d8                	neg    %eax
    bb58:	5d                   	pop    %rbp
    bb59:	c3                   	retq   

000000000000bb5a <safe_add_func_uint8_t_u_u>:
    bb5a:	f3 0f 1e fa          	endbr64 
    bb5e:	55                   	push   %rbp
    bb5f:	48 89 e5             	mov    %rsp,%rbp
    bb62:	89 fa                	mov    %edi,%edx
    bb64:	89 f0                	mov    %esi,%eax
    bb66:	88 55 fc             	mov    %dl,-0x4(%rbp)
    bb69:	88 45 f8             	mov    %al,-0x8(%rbp)
    bb6c:	0f b6 55 fc          	movzbl -0x4(%rbp),%edx
    bb70:	0f b6 45 f8          	movzbl -0x8(%rbp),%eax
    bb74:	01 d0                	add    %edx,%eax
    bb76:	5d                   	pop    %rbp
    bb77:	c3                   	retq   

000000000000bb78 <safe_sub_func_uint8_t_u_u>:
    bb78:	f3 0f 1e fa          	endbr64 
    bb7c:	55                   	push   %rbp
    bb7d:	48 89 e5             	mov    %rsp,%rbp
    bb80:	89 fa                	mov    %edi,%edx
    bb82:	89 f0                	mov    %esi,%eax
    bb84:	88 55 fc             	mov    %dl,-0x4(%rbp)
    bb87:	88 45 f8             	mov    %al,-0x8(%rbp)
    bb8a:	0f b6 45 fc          	movzbl -0x4(%rbp),%eax
    bb8e:	2a 45 f8             	sub    -0x8(%rbp),%al
    bb91:	5d                   	pop    %rbp
    bb92:	c3                   	retq   

000000000000bb93 <safe_mul_func_uint8_t_u_u>:
    bb93:	f3 0f 1e fa          	endbr64 
    bb97:	55                   	push   %rbp
    bb98:	48 89 e5             	mov    %rsp,%rbp
    bb9b:	89 fa                	mov    %edi,%edx
    bb9d:	89 f0                	mov    %esi,%eax
    bb9f:	88 55 fc             	mov    %dl,-0x4(%rbp)
    bba2:	88 45 f8             	mov    %al,-0x8(%rbp)
    bba5:	0f b6 45 fc          	movzbl -0x4(%rbp),%eax
    bba9:	f6 65 f8             	mulb   -0x8(%rbp)
    bbac:	5d                   	pop    %rbp
    bbad:	c3                   	retq   

000000000000bbae <safe_mod_func_uint8_t_u_u>:
    bbae:	f3 0f 1e fa          	endbr64 
    bbb2:	55                   	push   %rbp
    bbb3:	48 89 e5             	mov    %rsp,%rbp
    bbb6:	89 fa                	mov    %edi,%edx
    bbb8:	89 f0                	mov    %esi,%eax
    bbba:	88 55 fc             	mov    %dl,-0x4(%rbp)
    bbbd:	88 45 f8             	mov    %al,-0x8(%rbp)
    bbc0:	80 7d f8 00          	cmpb   $0x0,-0x8(%rbp)
    bbc4:	74 0f                	je     bbd5 <safe_mod_func_uint8_t_u_u+0x27>
    bbc6:	0f b6 45 fc          	movzbl -0x4(%rbp),%eax
    bbca:	0f b6 c0             	movzbl %al,%eax
    bbcd:	f6 75 f8             	divb   -0x8(%rbp)
    bbd0:	0f b6 c4             	movzbl %ah,%eax
    bbd3:	eb 04                	jmp    bbd9 <safe_mod_func_uint8_t_u_u+0x2b>
    bbd5:	0f b6 45 fc          	movzbl -0x4(%rbp),%eax
    bbd9:	5d                   	pop    %rbp
    bbda:	c3                   	retq   

000000000000bbdb <safe_div_func_uint8_t_u_u>:
    bbdb:	f3 0f 1e fa          	endbr64 
    bbdf:	55                   	push   %rbp
    bbe0:	48 89 e5             	mov    %rsp,%rbp
    bbe3:	89 fa                	mov    %edi,%edx
    bbe5:	89 f0                	mov    %esi,%eax
    bbe7:	88 55 fc             	mov    %dl,-0x4(%rbp)
    bbea:	88 45 f8             	mov    %al,-0x8(%rbp)
    bbed:	80 7d f8 00          	cmpb   $0x0,-0x8(%rbp)
    bbf1:	74 0c                	je     bbff <safe_div_func_uint8_t_u_u+0x24>
    bbf3:	0f b6 45 fc          	movzbl -0x4(%rbp),%eax
    bbf7:	0f b6 c0             	movzbl %al,%eax
    bbfa:	f6 75 f8             	divb   -0x8(%rbp)
    bbfd:	eb 04                	jmp    bc03 <safe_div_func_uint8_t_u_u+0x28>
    bbff:	0f b6 45 fc          	movzbl -0x4(%rbp),%eax
    bc03:	5d                   	pop    %rbp
    bc04:	c3                   	retq   

000000000000bc05 <safe_lshift_func_uint8_t_u_s>:
    bc05:	f3 0f 1e fa          	endbr64 
    bc09:	55                   	push   %rbp
    bc0a:	48 89 e5             	mov    %rsp,%rbp
    bc0d:	89 f8                	mov    %edi,%eax
    bc0f:	89 75 f8             	mov    %esi,-0x8(%rbp)
    bc12:	88 45 fc             	mov    %al,-0x4(%rbp)
    bc15:	83 7d f8 00          	cmpl   $0x0,-0x8(%rbp)
    bc19:	78 2b                	js     bc46 <safe_lshift_func_uint8_t_u_s+0x41>
    bc1b:	83 7d f8 1f          	cmpl   $0x1f,-0x8(%rbp)
    bc1f:	7f 25                	jg     bc46 <safe_lshift_func_uint8_t_u_s+0x41>
    bc21:	0f b6 55 fc          	movzbl -0x4(%rbp),%edx
    bc25:	8b 45 f8             	mov    -0x8(%rbp),%eax
    bc28:	be ff 00 00 00       	mov    $0xff,%esi
    bc2d:	89 c1                	mov    %eax,%ecx
    bc2f:	d3 fe                	sar    %cl,%esi
    bc31:	89 f0                	mov    %esi,%eax
    bc33:	39 c2                	cmp    %eax,%edx
    bc35:	7f 0f                	jg     bc46 <safe_lshift_func_uint8_t_u_s+0x41>
    bc37:	0f b6 55 fc          	movzbl -0x4(%rbp),%edx
    bc3b:	8b 45 f8             	mov    -0x8(%rbp),%eax
    bc3e:	89 c1                	mov    %eax,%ecx
    bc40:	d3 e2                	shl    %cl,%edx
    bc42:	89 d0                	mov    %edx,%eax
    bc44:	eb 04                	jmp    bc4a <safe_lshift_func_uint8_t_u_s+0x45>
    bc46:	0f b6 45 fc          	movzbl -0x4(%rbp),%eax
    bc4a:	5d                   	pop    %rbp
    bc4b:	c3                   	retq   

000000000000bc4c <safe_lshift_func_uint8_t_u_u>:
    bc4c:	f3 0f 1e fa          	endbr64 
    bc50:	55                   	push   %rbp
    bc51:	48 89 e5             	mov    %rsp,%rbp
    bc54:	89 f8                	mov    %edi,%eax
    bc56:	89 75 f8             	mov    %esi,-0x8(%rbp)
    bc59:	88 45 fc             	mov    %al,-0x4(%rbp)
    bc5c:	83 7d f8 1f          	cmpl   $0x1f,-0x8(%rbp)
    bc60:	77 25                	ja     bc87 <safe_lshift_func_uint8_t_u_u+0x3b>
    bc62:	0f b6 55 fc          	movzbl -0x4(%rbp),%edx
    bc66:	8b 45 f8             	mov    -0x8(%rbp),%eax
    bc69:	be ff 00 00 00       	mov    $0xff,%esi
    bc6e:	89 c1                	mov    %eax,%ecx
    bc70:	d3 fe                	sar    %cl,%esi
    bc72:	89 f0                	mov    %esi,%eax
    bc74:	39 c2                	cmp    %eax,%edx
    bc76:	7f 0f                	jg     bc87 <safe_lshift_func_uint8_t_u_u+0x3b>
    bc78:	0f b6 55 fc          	movzbl -0x4(%rbp),%edx
    bc7c:	8b 45 f8             	mov    -0x8(%rbp),%eax
    bc7f:	89 c1                	mov    %eax,%ecx
    bc81:	d3 e2                	shl    %cl,%edx
    bc83:	89 d0                	mov    %edx,%eax
    bc85:	eb 04                	jmp    bc8b <safe_lshift_func_uint8_t_u_u+0x3f>
    bc87:	0f b6 45 fc          	movzbl -0x4(%rbp),%eax
    bc8b:	5d                   	pop    %rbp
    bc8c:	c3                   	retq   

000000000000bc8d <safe_rshift_func_uint8_t_u_s>:
    bc8d:	f3 0f 1e fa          	endbr64 
    bc91:	55                   	push   %rbp
    bc92:	48 89 e5             	mov    %rsp,%rbp
    bc95:	89 f8                	mov    %edi,%eax
    bc97:	89 75 f8             	mov    %esi,-0x8(%rbp)
    bc9a:	88 45 fc             	mov    %al,-0x4(%rbp)
    bc9d:	83 7d f8 00          	cmpl   $0x0,-0x8(%rbp)
    bca1:	78 15                	js     bcb8 <safe_rshift_func_uint8_t_u_s+0x2b>
    bca3:	83 7d f8 1f          	cmpl   $0x1f,-0x8(%rbp)
    bca7:	7f 0f                	jg     bcb8 <safe_rshift_func_uint8_t_u_s+0x2b>
    bca9:	0f b6 55 fc          	movzbl -0x4(%rbp),%edx
    bcad:	8b 45 f8             	mov    -0x8(%rbp),%eax
    bcb0:	89 c1                	mov    %eax,%ecx
    bcb2:	d3 fa                	sar    %cl,%edx
    bcb4:	89 d0                	mov    %edx,%eax
    bcb6:	eb 04                	jmp    bcbc <safe_rshift_func_uint8_t_u_s+0x2f>
    bcb8:	0f b6 45 fc          	movzbl -0x4(%rbp),%eax
    bcbc:	5d                   	pop    %rbp
    bcbd:	c3                   	retq   

000000000000bcbe <safe_rshift_func_uint8_t_u_u>:
    bcbe:	f3 0f 1e fa          	endbr64 
    bcc2:	55                   	push   %rbp
    bcc3:	48 89 e5             	mov    %rsp,%rbp
    bcc6:	89 f8                	mov    %edi,%eax
    bcc8:	89 75 f8             	mov    %esi,-0x8(%rbp)
    bccb:	88 45 fc             	mov    %al,-0x4(%rbp)
    bcce:	83 7d f8 1f          	cmpl   $0x1f,-0x8(%rbp)
    bcd2:	77 0f                	ja     bce3 <safe_rshift_func_uint8_t_u_u+0x25>
    bcd4:	0f b6 55 fc          	movzbl -0x4(%rbp),%edx
    bcd8:	8b 45 f8             	mov    -0x8(%rbp),%eax
    bcdb:	89 c1                	mov    %eax,%ecx
    bcdd:	d3 fa                	sar    %cl,%edx
    bcdf:	89 d0                	mov    %edx,%eax
    bce1:	eb 04                	jmp    bce7 <safe_rshift_func_uint8_t_u_u+0x29>
    bce3:	0f b6 45 fc          	movzbl -0x4(%rbp),%eax
    bce7:	5d                   	pop    %rbp
    bce8:	c3                   	retq   

000000000000bce9 <safe_unary_minus_func_uint16_t_u>:
    bce9:	f3 0f 1e fa          	endbr64 
    bced:	55                   	push   %rbp
    bcee:	48 89 e5             	mov    %rsp,%rbp
    bcf1:	89 f8                	mov    %edi,%eax
    bcf3:	66 89 45 fc          	mov    %ax,-0x4(%rbp)
    bcf7:	0f b7 45 fc          	movzwl -0x4(%rbp),%eax
    bcfb:	f7 d8                	neg    %eax
    bcfd:	5d                   	pop    %rbp
    bcfe:	c3                   	retq   

000000000000bcff <safe_add_func_uint16_t_u_u>:
    bcff:	f3 0f 1e fa          	endbr64 
    bd03:	55                   	push   %rbp
    bd04:	48 89 e5             	mov    %rsp,%rbp
    bd07:	89 fa                	mov    %edi,%edx
    bd09:	89 f0                	mov    %esi,%eax
    bd0b:	66 89 55 fc          	mov    %dx,-0x4(%rbp)
    bd0f:	66 89 45 f8          	mov    %ax,-0x8(%rbp)
    bd13:	0f b7 55 fc          	movzwl -0x4(%rbp),%edx
    bd17:	0f b7 45 f8          	movzwl -0x8(%rbp),%eax
    bd1b:	01 d0                	add    %edx,%eax
    bd1d:	5d                   	pop    %rbp
    bd1e:	c3                   	retq   

000000000000bd1f <safe_sub_func_uint16_t_u_u>:
    bd1f:	f3 0f 1e fa          	endbr64 
    bd23:	55                   	push   %rbp
    bd24:	48 89 e5             	mov    %rsp,%rbp
    bd27:	89 fa                	mov    %edi,%edx
    bd29:	89 f0                	mov    %esi,%eax
    bd2b:	66 89 55 fc          	mov    %dx,-0x4(%rbp)
    bd2f:	66 89 45 f8          	mov    %ax,-0x8(%rbp)
    bd33:	0f b7 45 fc          	movzwl -0x4(%rbp),%eax
    bd37:	66 2b 45 f8          	sub    -0x8(%rbp),%ax
    bd3b:	5d                   	pop    %rbp
    bd3c:	c3                   	retq   

000000000000bd3d <safe_mul_func_uint16_t_u_u>:
    bd3d:	f3 0f 1e fa          	endbr64 
    bd41:	55                   	push   %rbp
    bd42:	48 89 e5             	mov    %rsp,%rbp
    bd45:	89 fa                	mov    %edi,%edx
    bd47:	89 f0                	mov    %esi,%eax
    bd49:	66 89 55 fc          	mov    %dx,-0x4(%rbp)
    bd4d:	66 89 45 f8          	mov    %ax,-0x8(%rbp)
    bd51:	0f b7 45 fc          	movzwl -0x4(%rbp),%eax
    bd55:	66 0f af 45 f8       	imul   -0x8(%rbp),%ax
    bd5a:	5d                   	pop    %rbp
    bd5b:	c3                   	retq   

000000000000bd5c <safe_mod_func_uint16_t_u_u>:
    bd5c:	f3 0f 1e fa          	endbr64 
    bd60:	55                   	push   %rbp
    bd61:	48 89 e5             	mov    %rsp,%rbp
    bd64:	89 fa                	mov    %edi,%edx
    bd66:	89 f0                	mov    %esi,%eax
    bd68:	66 89 55 fc          	mov    %dx,-0x4(%rbp)
    bd6c:	66 89 45 f8          	mov    %ax,-0x8(%rbp)
    bd70:	66 83 7d f8 00       	cmpw   $0x0,-0x8(%rbp)
    bd75:	74 11                	je     bd88 <safe_mod_func_uint16_t_u_u+0x2c>
    bd77:	0f b7 45 fc          	movzwl -0x4(%rbp),%eax
    bd7b:	ba 00 00 00 00       	mov    $0x0,%edx
    bd80:	66 f7 75 f8          	divw   -0x8(%rbp)
    bd84:	89 d0                	mov    %edx,%eax
    bd86:	eb 04                	jmp    bd8c <safe_mod_func_uint16_t_u_u+0x30>
    bd88:	0f b7 45 fc          	movzwl -0x4(%rbp),%eax
    bd8c:	5d                   	pop    %rbp
    bd8d:	c3                   	retq   

000000000000bd8e <safe_div_func_uint16_t_u_u>:
    bd8e:	f3 0f 1e fa          	endbr64 
    bd92:	55                   	push   %rbp
    bd93:	48 89 e5             	mov    %rsp,%rbp
    bd96:	89 fa                	mov    %edi,%edx
    bd98:	89 f0                	mov    %esi,%eax
    bd9a:	66 89 55 fc          	mov    %dx,-0x4(%rbp)
    bd9e:	66 89 45 f8          	mov    %ax,-0x8(%rbp)
    bda2:	66 83 7d f8 00       	cmpw   $0x0,-0x8(%rbp)
    bda7:	74 0f                	je     bdb8 <safe_div_func_uint16_t_u_u+0x2a>
    bda9:	0f b7 45 fc          	movzwl -0x4(%rbp),%eax
    bdad:	ba 00 00 00 00       	mov    $0x0,%edx
    bdb2:	66 f7 75 f8          	divw   -0x8(%rbp)
    bdb6:	eb 04                	jmp    bdbc <safe_div_func_uint16_t_u_u+0x2e>
    bdb8:	0f b7 45 fc          	movzwl -0x4(%rbp),%eax
    bdbc:	5d                   	pop    %rbp
    bdbd:	c3                   	retq   

000000000000bdbe <safe_lshift_func_uint16_t_u_s>:
    bdbe:	f3 0f 1e fa          	endbr64 
    bdc2:	55                   	push   %rbp
    bdc3:	48 89 e5             	mov    %rsp,%rbp
    bdc6:	89 f8                	mov    %edi,%eax
    bdc8:	89 75 f8             	mov    %esi,-0x8(%rbp)
    bdcb:	66 89 45 fc          	mov    %ax,-0x4(%rbp)
    bdcf:	83 7d f8 00          	cmpl   $0x0,-0x8(%rbp)
    bdd3:	78 2b                	js     be00 <safe_lshift_func_uint16_t_u_s+0x42>
    bdd5:	83 7d f8 1f          	cmpl   $0x1f,-0x8(%rbp)
    bdd9:	7f 25                	jg     be00 <safe_lshift_func_uint16_t_u_s+0x42>
    bddb:	0f b7 55 fc          	movzwl -0x4(%rbp),%edx
    bddf:	8b 45 f8             	mov    -0x8(%rbp),%eax
    bde2:	be ff ff 00 00       	mov    $0xffff,%esi
    bde7:	89 c1                	mov    %eax,%ecx
    bde9:	d3 fe                	sar    %cl,%esi
    bdeb:	89 f0                	mov    %esi,%eax
    bded:	39 c2                	cmp    %eax,%edx
    bdef:	7f 0f                	jg     be00 <safe_lshift_func_uint16_t_u_s+0x42>
    bdf1:	0f b7 55 fc          	movzwl -0x4(%rbp),%edx
    bdf5:	8b 45 f8             	mov    -0x8(%rbp),%eax
    bdf8:	89 c1                	mov    %eax,%ecx
    bdfa:	d3 e2                	shl    %cl,%edx
    bdfc:	89 d0                	mov    %edx,%eax
    bdfe:	eb 04                	jmp    be04 <safe_lshift_func_uint16_t_u_s+0x46>
    be00:	0f b7 45 fc          	movzwl -0x4(%rbp),%eax
    be04:	5d                   	pop    %rbp
    be05:	c3                   	retq   

000000000000be06 <safe_lshift_func_uint16_t_u_u>:
    be06:	f3 0f 1e fa          	endbr64 
    be0a:	55                   	push   %rbp
    be0b:	48 89 e5             	mov    %rsp,%rbp
    be0e:	89 f8                	mov    %edi,%eax
    be10:	89 75 f8             	mov    %esi,-0x8(%rbp)
    be13:	66 89 45 fc          	mov    %ax,-0x4(%rbp)
    be17:	83 7d f8 1f          	cmpl   $0x1f,-0x8(%rbp)
    be1b:	77 25                	ja     be42 <safe_lshift_func_uint16_t_u_u+0x3c>
    be1d:	0f b7 55 fc          	movzwl -0x4(%rbp),%edx
    be21:	8b 45 f8             	mov    -0x8(%rbp),%eax
    be24:	be ff ff 00 00       	mov    $0xffff,%esi
    be29:	89 c1                	mov    %eax,%ecx
    be2b:	d3 fe                	sar    %cl,%esi
    be2d:	89 f0                	mov    %esi,%eax
    be2f:	39 c2                	cmp    %eax,%edx
    be31:	7f 0f                	jg     be42 <safe_lshift_func_uint16_t_u_u+0x3c>
    be33:	0f b7 55 fc          	movzwl -0x4(%rbp),%edx
    be37:	8b 45 f8             	mov    -0x8(%rbp),%eax
    be3a:	89 c1                	mov    %eax,%ecx
    be3c:	d3 e2                	shl    %cl,%edx
    be3e:	89 d0                	mov    %edx,%eax
    be40:	eb 04                	jmp    be46 <safe_lshift_func_uint16_t_u_u+0x40>
    be42:	0f b7 45 fc          	movzwl -0x4(%rbp),%eax
    be46:	5d                   	pop    %rbp
    be47:	c3                   	retq   

000000000000be48 <safe_rshift_func_uint16_t_u_s>:
    be48:	f3 0f 1e fa          	endbr64 
    be4c:	55                   	push   %rbp
    be4d:	48 89 e5             	mov    %rsp,%rbp
    be50:	89 f8                	mov    %edi,%eax
    be52:	89 75 f8             	mov    %esi,-0x8(%rbp)
    be55:	66 89 45 fc          	mov    %ax,-0x4(%rbp)
    be59:	83 7d f8 00          	cmpl   $0x0,-0x8(%rbp)
    be5d:	78 15                	js     be74 <safe_rshift_func_uint16_t_u_s+0x2c>
    be5f:	83 7d f8 1f          	cmpl   $0x1f,-0x8(%rbp)
    be63:	7f 0f                	jg     be74 <safe_rshift_func_uint16_t_u_s+0x2c>
    be65:	0f b7 55 fc          	movzwl -0x4(%rbp),%edx
    be69:	8b 45 f8             	mov    -0x8(%rbp),%eax
    be6c:	89 c1                	mov    %eax,%ecx
    be6e:	d3 fa                	sar    %cl,%edx
    be70:	89 d0                	mov    %edx,%eax
    be72:	eb 04                	jmp    be78 <safe_rshift_func_uint16_t_u_s+0x30>
    be74:	0f b7 45 fc          	movzwl -0x4(%rbp),%eax
    be78:	5d                   	pop    %rbp
    be79:	c3                   	retq   

000000000000be7a <safe_rshift_func_uint16_t_u_u>:
    be7a:	f3 0f 1e fa          	endbr64 
    be7e:	55                   	push   %rbp
    be7f:	48 89 e5             	mov    %rsp,%rbp
    be82:	89 f8                	mov    %edi,%eax
    be84:	89 75 f8             	mov    %esi,-0x8(%rbp)
    be87:	66 89 45 fc          	mov    %ax,-0x4(%rbp)
    be8b:	83 7d f8 1f          	cmpl   $0x1f,-0x8(%rbp)
    be8f:	77 0f                	ja     bea0 <safe_rshift_func_uint16_t_u_u+0x26>
    be91:	0f b7 55 fc          	movzwl -0x4(%rbp),%edx
    be95:	8b 45 f8             	mov    -0x8(%rbp),%eax
    be98:	89 c1                	mov    %eax,%ecx
    be9a:	d3 fa                	sar    %cl,%edx
    be9c:	89 d0                	mov    %edx,%eax
    be9e:	eb 04                	jmp    bea4 <safe_rshift_func_uint16_t_u_u+0x2a>
    bea0:	0f b7 45 fc          	movzwl -0x4(%rbp),%eax
    bea4:	5d                   	pop    %rbp
    bea5:	c3                   	retq   

000000000000bea6 <safe_unary_minus_func_uint32_t_u>:
    bea6:	f3 0f 1e fa          	endbr64 
    beaa:	55                   	push   %rbp
    beab:	48 89 e5             	mov    %rsp,%rbp
    beae:	89 7d fc             	mov    %edi,-0x4(%rbp)
    beb1:	8b 45 fc             	mov    -0x4(%rbp),%eax
    beb4:	f7 d8                	neg    %eax
    beb6:	5d                   	pop    %rbp
    beb7:	c3                   	retq   

000000000000beb8 <safe_add_func_uint32_t_u_u>:
    beb8:	f3 0f 1e fa          	endbr64 
    bebc:	55                   	push   %rbp
    bebd:	48 89 e5             	mov    %rsp,%rbp
    bec0:	89 7d fc             	mov    %edi,-0x4(%rbp)
    bec3:	89 75 f8             	mov    %esi,-0x8(%rbp)
    bec6:	8b 55 fc             	mov    -0x4(%rbp),%edx
    bec9:	8b 45 f8             	mov    -0x8(%rbp),%eax
    becc:	01 d0                	add    %edx,%eax
    bece:	5d                   	pop    %rbp
    becf:	c3                   	retq   

000000000000bed0 <safe_sub_func_uint32_t_u_u>:
    bed0:	f3 0f 1e fa          	endbr64 
    bed4:	55                   	push   %rbp
    bed5:	48 89 e5             	mov    %rsp,%rbp
    bed8:	89 7d fc             	mov    %edi,-0x4(%rbp)
    bedb:	89 75 f8             	mov    %esi,-0x8(%rbp)
    bede:	8b 45 fc             	mov    -0x4(%rbp),%eax
    bee1:	2b 45 f8             	sub    -0x8(%rbp),%eax
    bee4:	5d                   	pop    %rbp
    bee5:	c3                   	retq   

000000000000bee6 <safe_mul_func_uint32_t_u_u>:
    bee6:	f3 0f 1e fa          	endbr64 
    beea:	55                   	push   %rbp
    beeb:	48 89 e5             	mov    %rsp,%rbp
    beee:	89 7d fc             	mov    %edi,-0x4(%rbp)
    bef1:	89 75 f8             	mov    %esi,-0x8(%rbp)
    bef4:	8b 45 fc             	mov    -0x4(%rbp),%eax
    bef7:	0f af 45 f8          	imul   -0x8(%rbp),%eax
    befb:	5d                   	pop    %rbp
    befc:	c3                   	retq   

000000000000befd <safe_mod_func_uint32_t_u_u>:
    befd:	f3 0f 1e fa          	endbr64 
    bf01:	55                   	push   %rbp
    bf02:	48 89 e5             	mov    %rsp,%rbp
    bf05:	89 7d fc             	mov    %edi,-0x4(%rbp)
    bf08:	89 75 f8             	mov    %esi,-0x8(%rbp)
    bf0b:	83 7d f8 00          	cmpl   $0x0,-0x8(%rbp)
    bf0f:	74 0f                	je     bf20 <safe_mod_func_uint32_t_u_u+0x23>
    bf11:	8b 45 fc             	mov    -0x4(%rbp),%eax
    bf14:	ba 00 00 00 00       	mov    $0x0,%edx
    bf19:	f7 75 f8             	divl   -0x8(%rbp)
    bf1c:	89 d0                	mov    %edx,%eax
    bf1e:	eb 03                	jmp    bf23 <safe_mod_func_uint32_t_u_u+0x26>
    bf20:	8b 45 fc             	mov    -0x4(%rbp),%eax
    bf23:	5d                   	pop    %rbp
    bf24:	c3                   	retq   

000000000000bf25 <safe_div_func_uint32_t_u_u>:
    bf25:	f3 0f 1e fa          	endbr64 
    bf29:	55                   	push   %rbp
    bf2a:	48 89 e5             	mov    %rsp,%rbp
    bf2d:	89 7d fc             	mov    %edi,-0x4(%rbp)
    bf30:	89 75 f8             	mov    %esi,-0x8(%rbp)
    bf33:	83 7d f8 00          	cmpl   $0x0,-0x8(%rbp)
    bf37:	74 0d                	je     bf46 <safe_div_func_uint32_t_u_u+0x21>
    bf39:	8b 45 fc             	mov    -0x4(%rbp),%eax
    bf3c:	ba 00 00 00 00       	mov    $0x0,%edx
    bf41:	f7 75 f8             	divl   -0x8(%rbp)
    bf44:	eb 03                	jmp    bf49 <safe_div_func_uint32_t_u_u+0x24>
    bf46:	8b 45 fc             	mov    -0x4(%rbp),%eax
    bf49:	5d                   	pop    %rbp
    bf4a:	c3                   	retq   

000000000000bf4b <safe_lshift_func_uint32_t_u_s>:
    bf4b:	f3 0f 1e fa          	endbr64 
    bf4f:	55                   	push   %rbp
    bf50:	48 89 e5             	mov    %rsp,%rbp
    bf53:	89 7d fc             	mov    %edi,-0x4(%rbp)
    bf56:	89 75 f8             	mov    %esi,-0x8(%rbp)
    bf59:	83 7d f8 00          	cmpl   $0x0,-0x8(%rbp)
    bf5d:	78 27                	js     bf86 <safe_lshift_func_uint32_t_u_s+0x3b>
    bf5f:	83 7d f8 1f          	cmpl   $0x1f,-0x8(%rbp)
    bf63:	7f 21                	jg     bf86 <safe_lshift_func_uint32_t_u_s+0x3b>
    bf65:	8b 45 f8             	mov    -0x8(%rbp),%eax
    bf68:	ba ff ff ff ff       	mov    $0xffffffff,%edx
    bf6d:	89 c1                	mov    %eax,%ecx
    bf6f:	d3 ea                	shr    %cl,%edx
    bf71:	89 d0                	mov    %edx,%eax
    bf73:	39 45 fc             	cmp    %eax,-0x4(%rbp)
    bf76:	77 0e                	ja     bf86 <safe_lshift_func_uint32_t_u_s+0x3b>
    bf78:	8b 45 f8             	mov    -0x8(%rbp),%eax
    bf7b:	8b 55 fc             	mov    -0x4(%rbp),%edx
    bf7e:	89 c1                	mov    %eax,%ecx
    bf80:	d3 e2                	shl    %cl,%edx
    bf82:	89 d0                	mov    %edx,%eax
    bf84:	eb 03                	jmp    bf89 <safe_lshift_func_uint32_t_u_s+0x3e>
    bf86:	8b 45 fc             	mov    -0x4(%rbp),%eax
    bf89:	5d                   	pop    %rbp
    bf8a:	c3                   	retq   

000000000000bf8b <safe_lshift_func_uint32_t_u_u>:
    bf8b:	f3 0f 1e fa          	endbr64 
    bf8f:	55                   	push   %rbp
    bf90:	48 89 e5             	mov    %rsp,%rbp
    bf93:	89 7d fc             	mov    %edi,-0x4(%rbp)
    bf96:	89 75 f8             	mov    %esi,-0x8(%rbp)
    bf99:	83 7d f8 1f          	cmpl   $0x1f,-0x8(%rbp)
    bf9d:	77 21                	ja     bfc0 <safe_lshift_func_uint32_t_u_u+0x35>
    bf9f:	8b 45 f8             	mov    -0x8(%rbp),%eax
    bfa2:	ba ff ff ff ff       	mov    $0xffffffff,%edx
    bfa7:	89 c1                	mov    %eax,%ecx
    bfa9:	d3 ea                	shr    %cl,%edx
    bfab:	89 d0                	mov    %edx,%eax
    bfad:	39 45 fc             	cmp    %eax,-0x4(%rbp)
    bfb0:	77 0e                	ja     bfc0 <safe_lshift_func_uint32_t_u_u+0x35>
    bfb2:	8b 45 f8             	mov    -0x8(%rbp),%eax
    bfb5:	8b 55 fc             	mov    -0x4(%rbp),%edx
    bfb8:	89 c1                	mov    %eax,%ecx
    bfba:	d3 e2                	shl    %cl,%edx
    bfbc:	89 d0                	mov    %edx,%eax
    bfbe:	eb 03                	jmp    bfc3 <safe_lshift_func_uint32_t_u_u+0x38>
    bfc0:	8b 45 fc             	mov    -0x4(%rbp),%eax
    bfc3:	5d                   	pop    %rbp
    bfc4:	c3                   	retq   

000000000000bfc5 <safe_rshift_func_uint32_t_u_s>:
    bfc5:	f3 0f 1e fa          	endbr64 
    bfc9:	55                   	push   %rbp
    bfca:	48 89 e5             	mov    %rsp,%rbp
    bfcd:	89 7d fc             	mov    %edi,-0x4(%rbp)
    bfd0:	89 75 f8             	mov    %esi,-0x8(%rbp)
    bfd3:	83 7d f8 00          	cmpl   $0x0,-0x8(%rbp)
    bfd7:	78 14                	js     bfed <safe_rshift_func_uint32_t_u_s+0x28>
    bfd9:	83 7d f8 1f          	cmpl   $0x1f,-0x8(%rbp)
    bfdd:	7f 0e                	jg     bfed <safe_rshift_func_uint32_t_u_s+0x28>
    bfdf:	8b 45 f8             	mov    -0x8(%rbp),%eax
    bfe2:	8b 55 fc             	mov    -0x4(%rbp),%edx
    bfe5:	89 c1                	mov    %eax,%ecx
    bfe7:	d3 ea                	shr    %cl,%edx
    bfe9:	89 d0                	mov    %edx,%eax
    bfeb:	eb 03                	jmp    bff0 <safe_rshift_func_uint32_t_u_s+0x2b>
    bfed:	8b 45 fc             	mov    -0x4(%rbp),%eax
    bff0:	5d                   	pop    %rbp
    bff1:	c3                   	retq   

000000000000bff2 <safe_rshift_func_uint32_t_u_u>:
    bff2:	f3 0f 1e fa          	endbr64 
    bff6:	55                   	push   %rbp
    bff7:	48 89 e5             	mov    %rsp,%rbp
    bffa:	89 7d fc             	mov    %edi,-0x4(%rbp)
    bffd:	89 75 f8             	mov    %esi,-0x8(%rbp)
    c000:	83 7d f8 1f          	cmpl   $0x1f,-0x8(%rbp)
    c004:	77 0e                	ja     c014 <safe_rshift_func_uint32_t_u_u+0x22>
    c006:	8b 45 f8             	mov    -0x8(%rbp),%eax
    c009:	8b 55 fc             	mov    -0x4(%rbp),%edx
    c00c:	89 c1                	mov    %eax,%ecx
    c00e:	d3 ea                	shr    %cl,%edx
    c010:	89 d0                	mov    %edx,%eax
    c012:	eb 03                	jmp    c017 <safe_rshift_func_uint32_t_u_u+0x25>
    c014:	8b 45 fc             	mov    -0x4(%rbp),%eax
    c017:	5d                   	pop    %rbp
    c018:	c3                   	retq   

000000000000c019 <safe_unary_minus_func_uint64_t_u>:
    c019:	f3 0f 1e fa          	endbr64 
    c01d:	55                   	push   %rbp
    c01e:	48 89 e5             	mov    %rsp,%rbp
    c021:	48 89 7d f8          	mov    %rdi,-0x8(%rbp)
    c025:	48 8b 45 f8          	mov    -0x8(%rbp),%rax
    c029:	48 f7 d8             	neg    %rax
    c02c:	5d                   	pop    %rbp
    c02d:	c3                   	retq   

000000000000c02e <safe_add_func_uint64_t_u_u>:
    c02e:	f3 0f 1e fa          	endbr64 
    c032:	55                   	push   %rbp
    c033:	48 89 e5             	mov    %rsp,%rbp
    c036:	48 89 7d f8          	mov    %rdi,-0x8(%rbp)
    c03a:	48 89 75 f0          	mov    %rsi,-0x10(%rbp)
    c03e:	48 8b 55 f8          	mov    -0x8(%rbp),%rdx
    c042:	48 8b 45 f0          	mov    -0x10(%rbp),%rax
    c046:	48 01 d0             	add    %rdx,%rax
    c049:	5d                   	pop    %rbp
    c04a:	c3                   	retq   

000000000000c04b <safe_sub_func_uint64_t_u_u>:
    c04b:	f3 0f 1e fa          	endbr64 
    c04f:	55                   	push   %rbp
    c050:	48 89 e5             	mov    %rsp,%rbp
    c053:	48 89 7d f8          	mov    %rdi,-0x8(%rbp)
    c057:	48 89 75 f0          	mov    %rsi,-0x10(%rbp)
    c05b:	48 8b 45 f8          	mov    -0x8(%rbp),%rax
    c05f:	48 2b 45 f0          	sub    -0x10(%rbp),%rax
    c063:	5d                   	pop    %rbp
    c064:	c3                   	retq   

000000000000c065 <safe_mul_func_uint64_t_u_u>:
    c065:	f3 0f 1e fa          	endbr64 
    c069:	55                   	push   %rbp
    c06a:	48 89 e5             	mov    %rsp,%rbp
    c06d:	48 89 7d f8          	mov    %rdi,-0x8(%rbp)
    c071:	48 89 75 f0          	mov    %rsi,-0x10(%rbp)
    c075:	48 8b 45 f8          	mov    -0x8(%rbp),%rax
    c079:	48 0f af 45 f0       	imul   -0x10(%rbp),%rax
    c07e:	5d                   	pop    %rbp
    c07f:	c3                   	retq   

000000000000c080 <safe_mod_func_uint64_t_u_u>:
    c080:	f3 0f 1e fa          	endbr64 
    c084:	55                   	push   %rbp
    c085:	48 89 e5             	mov    %rsp,%rbp
    c088:	48 89 7d f8          	mov    %rdi,-0x8(%rbp)
    c08c:	48 89 75 f0          	mov    %rsi,-0x10(%rbp)
    c090:	48 83 7d f0 00       	cmpq   $0x0,-0x10(%rbp)
    c095:	74 12                	je     c0a9 <safe_mod_func_uint64_t_u_u+0x29>
    c097:	48 8b 45 f8          	mov    -0x8(%rbp),%rax
    c09b:	ba 00 00 00 00       	mov    $0x0,%edx
    c0a0:	48 f7 75 f0          	divq   -0x10(%rbp)
    c0a4:	48 89 d0             	mov    %rdx,%rax
    c0a7:	eb 04                	jmp    c0ad <safe_mod_func_uint64_t_u_u+0x2d>
    c0a9:	48 8b 45 f8          	mov    -0x8(%rbp),%rax
    c0ad:	5d                   	pop    %rbp
    c0ae:	c3                   	retq   

000000000000c0af <safe_div_func_uint64_t_u_u>:
    c0af:	f3 0f 1e fa          	endbr64 
    c0b3:	55                   	push   %rbp
    c0b4:	48 89 e5             	mov    %rsp,%rbp
    c0b7:	48 89 7d f8          	mov    %rdi,-0x8(%rbp)
    c0bb:	48 89 75 f0          	mov    %rsi,-0x10(%rbp)
    c0bf:	48 83 7d f0 00       	cmpq   $0x0,-0x10(%rbp)
    c0c4:	74 0f                	je     c0d5 <safe_div_func_uint64_t_u_u+0x26>
    c0c6:	48 8b 45 f8          	mov    -0x8(%rbp),%rax
    c0ca:	ba 00 00 00 00       	mov    $0x0,%edx
    c0cf:	48 f7 75 f0          	divq   -0x10(%rbp)
    c0d3:	eb 04                	jmp    c0d9 <safe_div_func_uint64_t_u_u+0x2a>
    c0d5:	48 8b 45 f8          	mov    -0x8(%rbp),%rax
    c0d9:	5d                   	pop    %rbp
    c0da:	c3                   	retq   

000000000000c0db <safe_lshift_func_uint64_t_u_s>:
    c0db:	f3 0f 1e fa          	endbr64 
    c0df:	55                   	push   %rbp
    c0e0:	48 89 e5             	mov    %rsp,%rbp
    c0e3:	48 89 7d f8          	mov    %rdi,-0x8(%rbp)
    c0e7:	89 75 f4             	mov    %esi,-0xc(%rbp)
    c0ea:	83 7d f4 00          	cmpl   $0x0,-0xc(%rbp)
    c0ee:	78 2f                	js     c11f <safe_lshift_func_uint64_t_u_s+0x44>
    c0f0:	83 7d f4 1f          	cmpl   $0x1f,-0xc(%rbp)
    c0f4:	7f 29                	jg     c11f <safe_lshift_func_uint64_t_u_s+0x44>
    c0f6:	8b 45 f4             	mov    -0xc(%rbp),%eax
    c0f9:	48 c7 c2 ff ff ff ff 	mov    $0xffffffffffffffff,%rdx
    c100:	89 c1                	mov    %eax,%ecx
    c102:	48 d3 ea             	shr    %cl,%rdx
    c105:	48 89 d0             	mov    %rdx,%rax
    c108:	48 39 45 f8          	cmp    %rax,-0x8(%rbp)
    c10c:	77 11                	ja     c11f <safe_lshift_func_uint64_t_u_s+0x44>
    c10e:	8b 45 f4             	mov    -0xc(%rbp),%eax
    c111:	48 8b 55 f8          	mov    -0x8(%rbp),%rdx
    c115:	89 c1                	mov    %eax,%ecx
    c117:	48 d3 e2             	shl    %cl,%rdx
    c11a:	48 89 d0             	mov    %rdx,%rax
    c11d:	eb 04                	jmp    c123 <safe_lshift_func_uint64_t_u_s+0x48>
    c11f:	48 8b 45 f8          	mov    -0x8(%rbp),%rax
    c123:	5d                   	pop    %rbp
    c124:	c3                   	retq   

000000000000c125 <safe_lshift_func_uint64_t_u_u>:
    c125:	f3 0f 1e fa          	endbr64 
    c129:	55                   	push   %rbp
    c12a:	48 89 e5             	mov    %rsp,%rbp
    c12d:	48 89 7d f8          	mov    %rdi,-0x8(%rbp)
    c131:	89 75 f4             	mov    %esi,-0xc(%rbp)
    c134:	83 7d f4 1f          	cmpl   $0x1f,-0xc(%rbp)
    c138:	77 29                	ja     c163 <safe_lshift_func_uint64_t_u_u+0x3e>
    c13a:	8b 45 f4             	mov    -0xc(%rbp),%eax
    c13d:	48 c7 c2 ff ff ff ff 	mov    $0xffffffffffffffff,%rdx
    c144:	89 c1                	mov    %eax,%ecx
    c146:	48 d3 ea             	shr    %cl,%rdx
    c149:	48 89 d0             	mov    %rdx,%rax
    c14c:	48 39 45 f8          	cmp    %rax,-0x8(%rbp)
    c150:	77 11                	ja     c163 <safe_lshift_func_uint64_t_u_u+0x3e>
    c152:	8b 45 f4             	mov    -0xc(%rbp),%eax
    c155:	48 8b 55 f8          	mov    -0x8(%rbp),%rdx
    c159:	89 c1                	mov    %eax,%ecx
    c15b:	48 d3 e2             	shl    %cl,%rdx
    c15e:	48 89 d0             	mov    %rdx,%rax
    c161:	eb 04                	jmp    c167 <safe_lshift_func_uint64_t_u_u+0x42>
    c163:	48 8b 45 f8          	mov    -0x8(%rbp),%rax
    c167:	5d                   	pop    %rbp
    c168:	c3                   	retq   

000000000000c169 <safe_rshift_func_uint64_t_u_s>:
    c169:	f3 0f 1e fa          	endbr64 
    c16d:	55                   	push   %rbp
    c16e:	48 89 e5             	mov    %rsp,%rbp
    c171:	48 89 7d f8          	mov    %rdi,-0x8(%rbp)
    c175:	89 75 f4             	mov    %esi,-0xc(%rbp)
    c178:	83 7d f4 00          	cmpl   $0x0,-0xc(%rbp)
    c17c:	78 17                	js     c195 <safe_rshift_func_uint64_t_u_s+0x2c>
    c17e:	83 7d f4 1f          	cmpl   $0x1f,-0xc(%rbp)
    c182:	7f 11                	jg     c195 <safe_rshift_func_uint64_t_u_s+0x2c>
    c184:	8b 45 f4             	mov    -0xc(%rbp),%eax
    c187:	48 8b 55 f8          	mov    -0x8(%rbp),%rdx
    c18b:	89 c1                	mov    %eax,%ecx
    c18d:	48 d3 ea             	shr    %cl,%rdx
    c190:	48 89 d0             	mov    %rdx,%rax
    c193:	eb 04                	jmp    c199 <safe_rshift_func_uint64_t_u_s+0x30>
    c195:	48 8b 45 f8          	mov    -0x8(%rbp),%rax
    c199:	5d                   	pop    %rbp
    c19a:	c3                   	retq   

000000000000c19b <safe_rshift_func_uint64_t_u_u>:
    c19b:	f3 0f 1e fa          	endbr64 
    c19f:	55                   	push   %rbp
    c1a0:	48 89 e5             	mov    %rsp,%rbp
    c1a3:	48 89 7d f8          	mov    %rdi,-0x8(%rbp)
    c1a7:	89 75 f4             	mov    %esi,-0xc(%rbp)
    c1aa:	83 7d f4 1f          	cmpl   $0x1f,-0xc(%rbp)
    c1ae:	77 11                	ja     c1c1 <safe_rshift_func_uint64_t_u_u+0x26>
    c1b0:	8b 45 f4             	mov    -0xc(%rbp),%eax
    c1b3:	48 8b 55 f8          	mov    -0x8(%rbp),%rdx
    c1b7:	89 c1                	mov    %eax,%ecx
    c1b9:	48 d3 ea             	shr    %cl,%rdx
    c1bc:	48 89 d0             	mov    %rdx,%rax
    c1bf:	eb 04                	jmp    c1c5 <safe_rshift_func_uint64_t_u_u+0x2a>
    c1c1:	48 8b 45 f8          	mov    -0x8(%rbp),%rax
    c1c5:	5d                   	pop    %rbp
    c1c6:	c3                   	retq   

000000000000c1c7 <safe_add_func_float_f_f>:
    c1c7:	f3 0f 1e fa          	endbr64 
    c1cb:	55                   	push   %rbp
    c1cc:	48 89 e5             	mov    %rsp,%rbp
    c1cf:	f3 0f 11 45 fc       	movss  %xmm0,-0x4(%rbp)
    c1d4:	f3 0f 11 4d f8       	movss  %xmm1,-0x8(%rbp)
    c1d9:	f3 0f 10 4d fc       	movss  -0x4(%rbp),%xmm1
    c1de:	f3 0f 10 05 8a 38 01 	movss  0x1388a(%rip),%xmm0        # 1fa70 <l_1086.5382+0x50>
    c1e5:	00 
    c1e6:	f3 0f 59 c8          	mulss  %xmm0,%xmm1
    c1ea:	f3 0f 10 55 f8       	movss  -0x8(%rbp),%xmm2
    c1ef:	f3 0f 10 05 79 38 01 	movss  0x13879(%rip),%xmm0        # 1fa70 <l_1086.5382+0x50>
    c1f6:	00 
    c1f7:	f3 0f 59 c2          	mulss  %xmm2,%xmm0
    c1fb:	f3 0f 58 c1          	addss  %xmm1,%xmm0
    c1ff:	f3 0f 10 0d 79 38 01 	movss  0x13879(%rip),%xmm1        # 1fa80 <l_1086.5382+0x60>
    c206:	00 
    c207:	0f 54 c1             	andps  %xmm1,%xmm0
    c20a:	0f 2f 05 7f 38 01 00 	comiss 0x1387f(%rip),%xmm0        # 1fa90 <l_1086.5382+0x70>
    c211:	76 07                	jbe    c21a <safe_add_func_float_f_f+0x53>
    c213:	f3 0f 10 45 fc       	movss  -0x4(%rbp),%xmm0
    c218:	eb 0a                	jmp    c224 <safe_add_func_float_f_f+0x5d>
    c21a:	f3 0f 10 45 fc       	movss  -0x4(%rbp),%xmm0
    c21f:	f3 0f 58 45 f8       	addss  -0x8(%rbp),%xmm0
    c224:	5d                   	pop    %rbp
    c225:	c3                   	retq   

000000000000c226 <safe_sub_func_float_f_f>:
    c226:	f3 0f 1e fa          	endbr64 
    c22a:	55                   	push   %rbp
    c22b:	48 89 e5             	mov    %rsp,%rbp
    c22e:	f3 0f 11 45 fc       	movss  %xmm0,-0x4(%rbp)
    c233:	f3 0f 11 4d f8       	movss  %xmm1,-0x8(%rbp)
    c238:	f3 0f 10 4d fc       	movss  -0x4(%rbp),%xmm1
    c23d:	f3 0f 10 05 2b 38 01 	movss  0x1382b(%rip),%xmm0        # 1fa70 <l_1086.5382+0x50>
    c244:	00 
    c245:	f3 0f 59 c1          	mulss  %xmm1,%xmm0
    c249:	f3 0f 10 55 f8       	movss  -0x8(%rbp),%xmm2
    c24e:	f3 0f 10 0d 1a 38 01 	movss  0x1381a(%rip),%xmm1        # 1fa70 <l_1086.5382+0x50>
    c255:	00 
    c256:	f3 0f 59 ca          	mulss  %xmm2,%xmm1
    c25a:	f3 0f 5c c1          	subss  %xmm1,%xmm0
    c25e:	f3 0f 10 0d 1a 38 01 	movss  0x1381a(%rip),%xmm1        # 1fa80 <l_1086.5382+0x60>
    c265:	00 
    c266:	0f 54 c1             	andps  %xmm1,%xmm0
    c269:	0f 2f 05 20 38 01 00 	comiss 0x13820(%rip),%xmm0        # 1fa90 <l_1086.5382+0x70>
    c270:	76 07                	jbe    c279 <safe_sub_func_float_f_f+0x53>
    c272:	f3 0f 10 45 fc       	movss  -0x4(%rbp),%xmm0
    c277:	eb 0a                	jmp    c283 <safe_sub_func_float_f_f+0x5d>
    c279:	f3 0f 10 45 fc       	movss  -0x4(%rbp),%xmm0
    c27e:	f3 0f 5c 45 f8       	subss  -0x8(%rbp),%xmm0
    c283:	5d                   	pop    %rbp
    c284:	c3                   	retq   

000000000000c285 <safe_mul_func_float_f_f>:
    c285:	f3 0f 1e fa          	endbr64 
    c289:	55                   	push   %rbp
    c28a:	48 89 e5             	mov    %rsp,%rbp
    c28d:	f3 0f 11 45 fc       	movss  %xmm0,-0x4(%rbp)
    c292:	f3 0f 11 4d f8       	movss  %xmm1,-0x8(%rbp)
    c297:	f3 0f 10 4d fc       	movss  -0x4(%rbp),%xmm1
    c29c:	f3 0f 10 05 f0 37 01 	movss  0x137f0(%rip),%xmm0        # 1fa94 <l_1086.5382+0x74>
    c2a3:	00 
    c2a4:	f3 0f 59 c8          	mulss  %xmm0,%xmm1
    c2a8:	f3 0f 10 55 f8       	movss  -0x8(%rbp),%xmm2
    c2ad:	f3 0f 10 05 e3 37 01 	movss  0x137e3(%rip),%xmm0        # 1fa98 <l_1086.5382+0x78>
    c2b4:	00 
    c2b5:	f3 0f 59 c2          	mulss  %xmm2,%xmm0
    c2b9:	f3 0f 59 c1          	mulss  %xmm1,%xmm0
    c2bd:	f3 0f 10 0d bb 37 01 	movss  0x137bb(%rip),%xmm1        # 1fa80 <l_1086.5382+0x60>
    c2c4:	00 
    c2c5:	0f 54 c1             	andps  %xmm1,%xmm0
    c2c8:	0f 2f 05 cd 37 01 00 	comiss 0x137cd(%rip),%xmm0        # 1fa9c <l_1086.5382+0x7c>
    c2cf:	76 07                	jbe    c2d8 <safe_mul_func_float_f_f+0x53>
    c2d1:	f3 0f 10 45 fc       	movss  -0x4(%rbp),%xmm0
    c2d6:	eb 0a                	jmp    c2e2 <safe_mul_func_float_f_f+0x5d>
    c2d8:	f3 0f 10 45 fc       	movss  -0x4(%rbp),%xmm0
    c2dd:	f3 0f 59 45 f8       	mulss  -0x8(%rbp),%xmm0
    c2e2:	5d                   	pop    %rbp
    c2e3:	c3                   	retq   

000000000000c2e4 <safe_div_func_float_f_f>:
    c2e4:	f3 0f 1e fa          	endbr64 
    c2e8:	55                   	push   %rbp
    c2e9:	48 89 e5             	mov    %rsp,%rbp
    c2ec:	f3 0f 11 45 fc       	movss  %xmm0,-0x4(%rbp)
    c2f1:	f3 0f 11 4d f8       	movss  %xmm1,-0x8(%rbp)
    c2f6:	f3 0f 10 45 f8       	movss  -0x8(%rbp),%xmm0
    c2fb:	f3 0f 10 0d 7d 37 01 	movss  0x1377d(%rip),%xmm1        # 1fa80 <l_1086.5382+0x60>
    c302:	00 
    c303:	0f 54 c8             	andps  %xmm0,%xmm1
    c306:	f3 0f 10 05 92 37 01 	movss  0x13792(%rip),%xmm0        # 1faa0 <l_1086.5382+0x80>
    c30d:	00 
    c30e:	0f 2f c1             	comiss %xmm1,%xmm0
    c311:	0f 97 c0             	seta   %al
    c314:	83 f0 01             	xor    $0x1,%eax
    c317:	84 c0                	test   %al,%al
    c319:	75 56                	jne    c371 <safe_div_func_float_f_f+0x8d>
    c31b:	66 0f ef c0          	pxor   %xmm0,%xmm0
    c31f:	0f 2e 45 f8          	ucomiss -0x8(%rbp),%xmm0
    c323:	7a 0a                	jp     c32f <safe_div_func_float_f_f+0x4b>
    c325:	66 0f ef c0          	pxor   %xmm0,%xmm0
    c329:	0f 2e 45 f8          	ucomiss -0x8(%rbp),%xmm0
    c32d:	74 4e                	je     c37d <safe_div_func_float_f_f+0x99>
    c32f:	f3 0f 10 4d fc       	movss  -0x4(%rbp),%xmm1
    c334:	f3 0f 10 05 68 37 01 	movss  0x13768(%rip),%xmm0        # 1faa4 <l_1086.5382+0x84>
    c33b:	00 
    c33c:	f3 0f 59 c1          	mulss  %xmm1,%xmm0
    c340:	f3 0f 10 55 f8       	movss  -0x8(%rbp),%xmm2
    c345:	f3 0f 10 0d 5b 37 01 	movss  0x1375b(%rip),%xmm1        # 1faa8 <l_1086.5382+0x88>
    c34c:	00 
    c34d:	f3 0f 59 ca          	mulss  %xmm2,%xmm1
    c351:	f3 0f 5e c1          	divss  %xmm1,%xmm0
    c355:	f3 0f 10 0d 23 37 01 	movss  0x13723(%rip),%xmm1        # 1fa80 <l_1086.5382+0x60>
    c35c:	00 
    c35d:	0f 54 c1             	andps  %xmm1,%xmm0
    c360:	0f 2f 05 45 37 01 00 	comiss 0x13745(%rip),%xmm0        # 1faac <l_1086.5382+0x8c>
    c367:	0f 97 c0             	seta   %al
    c36a:	83 f0 01             	xor    $0x1,%eax
    c36d:	84 c0                	test   %al,%al
    c36f:	74 0c                	je     c37d <safe_div_func_float_f_f+0x99>
    c371:	f3 0f 10 45 fc       	movss  -0x4(%rbp),%xmm0
    c376:	f3 0f 5e 45 f8       	divss  -0x8(%rbp),%xmm0
    c37b:	eb 05                	jmp    c382 <safe_div_func_float_f_f+0x9e>
    c37d:	f3 0f 10 45 fc       	movss  -0x4(%rbp),%xmm0
    c382:	5d                   	pop    %rbp
    c383:	c3                   	retq   

000000000000c384 <safe_add_func_double_f_f>:
    c384:	f3 0f 1e fa          	endbr64 
    c388:	55                   	push   %rbp
    c389:	48 89 e5             	mov    %rsp,%rbp
    c38c:	f2 0f 11 45 f8       	movsd  %xmm0,-0x8(%rbp)
    c391:	f2 0f 11 4d f0       	movsd  %xmm1,-0x10(%rbp)
    c396:	f2 0f 10 4d f8       	movsd  -0x8(%rbp),%xmm1
    c39b:	f2 0f 10 05 0d 37 01 	movsd  0x1370d(%rip),%xmm0        # 1fab0 <l_1086.5382+0x90>
    c3a2:	00 
    c3a3:	f2 0f 59 c8          	mulsd  %xmm0,%xmm1
    c3a7:	f2 0f 10 55 f0       	movsd  -0x10(%rbp),%xmm2
    c3ac:	f2 0f 10 05 fc 36 01 	movsd  0x136fc(%rip),%xmm0        # 1fab0 <l_1086.5382+0x90>
    c3b3:	00 
    c3b4:	f2 0f 59 c2          	mulsd  %xmm2,%xmm0
    c3b8:	f2 0f 58 c1          	addsd  %xmm1,%xmm0
    c3bc:	f3 0f 7e 0d fc 36 01 	movq   0x136fc(%rip),%xmm1        # 1fac0 <l_1086.5382+0xa0>
    c3c3:	00 
    c3c4:	66 0f 54 c1          	andpd  %xmm1,%xmm0
    c3c8:	66 0f 2f 05 00 37 01 	comisd 0x13700(%rip),%xmm0        # 1fad0 <l_1086.5382+0xb0>
    c3cf:	00 
    c3d0:	76 07                	jbe    c3d9 <safe_add_func_double_f_f+0x55>
    c3d2:	f2 0f 10 45 f8       	movsd  -0x8(%rbp),%xmm0
    c3d7:	eb 0a                	jmp    c3e3 <safe_add_func_double_f_f+0x5f>
    c3d9:	f2 0f 10 45 f8       	movsd  -0x8(%rbp),%xmm0
    c3de:	f2 0f 58 45 f0       	addsd  -0x10(%rbp),%xmm0
    c3e3:	5d                   	pop    %rbp
    c3e4:	c3                   	retq   

000000000000c3e5 <safe_sub_func_double_f_f>:
    c3e5:	f3 0f 1e fa          	endbr64 
    c3e9:	55                   	push   %rbp
    c3ea:	48 89 e5             	mov    %rsp,%rbp
    c3ed:	f2 0f 11 45 f8       	movsd  %xmm0,-0x8(%rbp)
    c3f2:	f2 0f 11 4d f0       	movsd  %xmm1,-0x10(%rbp)
    c3f7:	f2 0f 10 4d f8       	movsd  -0x8(%rbp),%xmm1
    c3fc:	f2 0f 10 05 ac 36 01 	movsd  0x136ac(%rip),%xmm0        # 1fab0 <l_1086.5382+0x90>
    c403:	00 
    c404:	f2 0f 59 c1          	mulsd  %xmm1,%xmm0
    c408:	f2 0f 10 55 f0       	movsd  -0x10(%rbp),%xmm2
    c40d:	f2 0f 10 0d 9b 36 01 	movsd  0x1369b(%rip),%xmm1        # 1fab0 <l_1086.5382+0x90>
    c414:	00 
    c415:	f2 0f 59 ca          	mulsd  %xmm2,%xmm1
    c419:	f2 0f 5c c1          	subsd  %xmm1,%xmm0
    c41d:	f3 0f 7e 0d 9b 36 01 	movq   0x1369b(%rip),%xmm1        # 1fac0 <l_1086.5382+0xa0>
    c424:	00 
    c425:	66 0f 54 c1          	andpd  %xmm1,%xmm0
    c429:	66 0f 2f 05 9f 36 01 	comisd 0x1369f(%rip),%xmm0        # 1fad0 <l_1086.5382+0xb0>
    c430:	00 
    c431:	76 07                	jbe    c43a <safe_sub_func_double_f_f+0x55>
    c433:	f2 0f 10 45 f8       	movsd  -0x8(%rbp),%xmm0
    c438:	eb 0a                	jmp    c444 <safe_sub_func_double_f_f+0x5f>
    c43a:	f2 0f 10 45 f8       	movsd  -0x8(%rbp),%xmm0
    c43f:	f2 0f 5c 45 f0       	subsd  -0x10(%rbp),%xmm0
    c444:	5d                   	pop    %rbp
    c445:	c3                   	retq   

000000000000c446 <safe_mul_func_double_f_f>:
    c446:	f3 0f 1e fa          	endbr64 
    c44a:	55                   	push   %rbp
    c44b:	48 89 e5             	mov    %rsp,%rbp
    c44e:	f2 0f 11 45 f8       	movsd  %xmm0,-0x8(%rbp)
    c453:	f2 0f 11 4d f0       	movsd  %xmm1,-0x10(%rbp)
    c458:	f2 0f 10 4d f8       	movsd  -0x8(%rbp),%xmm1
    c45d:	f2 0f 10 05 73 36 01 	movsd  0x13673(%rip),%xmm0        # 1fad8 <l_1086.5382+0xb8>
    c464:	00 
    c465:	f2 0f 59 c8          	mulsd  %xmm0,%xmm1
    c469:	f2 0f 10 55 f0       	movsd  -0x10(%rbp),%xmm2
    c46e:	f2 0f 10 05 6a 36 01 	movsd  0x1366a(%rip),%xmm0        # 1fae0 <l_1086.5382+0xc0>
    c475:	00 
    c476:	f2 0f 59 c2          	mulsd  %xmm2,%xmm0
    c47a:	f2 0f 59 c1          	mulsd  %xmm1,%xmm0
    c47e:	f3 0f 7e 0d 3a 36 01 	movq   0x1363a(%rip),%xmm1        # 1fac0 <l_1086.5382+0xa0>
    c485:	00 
    c486:	66 0f 54 c1          	andpd  %xmm1,%xmm0
    c48a:	66 0f 2f 05 56 36 01 	comisd 0x13656(%rip),%xmm0        # 1fae8 <l_1086.5382+0xc8>
    c491:	00 
    c492:	76 07                	jbe    c49b <safe_mul_func_double_f_f+0x55>
    c494:	f2 0f 10 45 f8       	movsd  -0x8(%rbp),%xmm0
    c499:	eb 0a                	jmp    c4a5 <safe_mul_func_double_f_f+0x5f>
    c49b:	f2 0f 10 45 f8       	movsd  -0x8(%rbp),%xmm0
    c4a0:	f2 0f 59 45 f0       	mulsd  -0x10(%rbp),%xmm0
    c4a5:	5d                   	pop    %rbp
    c4a6:	c3                   	retq   

000000000000c4a7 <safe_div_func_double_f_f>:
    c4a7:	f3 0f 1e fa          	endbr64 
    c4ab:	55                   	push   %rbp
    c4ac:	48 89 e5             	mov    %rsp,%rbp
    c4af:	f2 0f 11 45 f8       	movsd  %xmm0,-0x8(%rbp)
    c4b4:	f2 0f 11 4d f0       	movsd  %xmm1,-0x10(%rbp)
    c4b9:	f2 0f 10 45 f0       	movsd  -0x10(%rbp),%xmm0
    c4be:	f3 0f 7e 0d fa 35 01 	movq   0x135fa(%rip),%xmm1        # 1fac0 <l_1086.5382+0xa0>
    c4c5:	00 
    c4c6:	66 0f 54 c8          	andpd  %xmm0,%xmm1
    c4ca:	f2 0f 10 05 1e 36 01 	movsd  0x1361e(%rip),%xmm0        # 1faf0 <l_1086.5382+0xd0>
    c4d1:	00 
    c4d2:	66 0f 2f c1          	comisd %xmm1,%xmm0
    c4d6:	0f 97 c0             	seta   %al
    c4d9:	83 f0 01             	xor    $0x1,%eax
    c4dc:	84 c0                	test   %al,%al
    c4de:	75 5a                	jne    c53a <safe_div_func_double_f_f+0x93>
    c4e0:	66 0f ef c0          	pxor   %xmm0,%xmm0
    c4e4:	66 0f 2e 45 f0       	ucomisd -0x10(%rbp),%xmm0
    c4e9:	7a 0b                	jp     c4f6 <safe_div_func_double_f_f+0x4f>
    c4eb:	66 0f ef c0          	pxor   %xmm0,%xmm0
    c4ef:	66 0f 2e 45 f0       	ucomisd -0x10(%rbp),%xmm0
    c4f4:	74 50                	je     c546 <safe_div_func_double_f_f+0x9f>
    c4f6:	f2 0f 10 4d f8       	movsd  -0x8(%rbp),%xmm1
    c4fb:	f2 0f 10 05 f5 35 01 	movsd  0x135f5(%rip),%xmm0        # 1faf8 <l_1086.5382+0xd8>
    c502:	00 
    c503:	f2 0f 59 c1          	mulsd  %xmm1,%xmm0
    c507:	f2 0f 10 55 f0       	movsd  -0x10(%rbp),%xmm2
    c50c:	f2 0f 10 0d ec 35 01 	movsd  0x135ec(%rip),%xmm1        # 1fb00 <l_1086.5382+0xe0>
    c513:	00 
    c514:	f2 0f 59 ca          	mulsd  %xmm2,%xmm1
    c518:	f2 0f 5e c1          	divsd  %xmm1,%xmm0
    c51c:	f3 0f 7e 0d 9c 35 01 	movq   0x1359c(%rip),%xmm1        # 1fac0 <l_1086.5382+0xa0>
    c523:	00 
    c524:	66 0f 54 c1          	andpd  %xmm1,%xmm0
    c528:	66 0f 2f 05 d8 35 01 	comisd 0x135d8(%rip),%xmm0        # 1fb08 <l_1086.5382+0xe8>
    c52f:	00 
    c530:	0f 97 c0             	seta   %al
    c533:	83 f0 01             	xor    $0x1,%eax
    c536:	84 c0                	test   %al,%al
    c538:	74 0c                	je     c546 <safe_div_func_double_f_f+0x9f>
    c53a:	f2 0f 10 45 f8       	movsd  -0x8(%rbp),%xmm0
    c53f:	f2 0f 5e 45 f0       	divsd  -0x10(%rbp),%xmm0
    c544:	eb 05                	jmp    c54b <safe_div_func_double_f_f+0xa4>
    c546:	f2 0f 10 45 f8       	movsd  -0x8(%rbp),%xmm0
    c54b:	5d                   	pop    %rbp
    c54c:	c3                   	retq   

000000000000c54d <safe_convert_func_float_to_int32_t>:
    c54d:	f3 0f 1e fa          	endbr64 
    c551:	55                   	push   %rbp
    c552:	48 89 e5             	mov    %rsp,%rbp
    c555:	f3 0f 11 45 fc       	movss  %xmm0,-0x4(%rbp)
    c55a:	f3 0f 10 05 ae 35 01 	movss  0x135ae(%rip),%xmm0        # 1fb10 <l_1086.5382+0xf0>
    c561:	00 
    c562:	0f 2f 45 fc          	comiss -0x4(%rbp),%xmm0
    c566:	0f 93 c0             	setae  %al
    c569:	83 f0 01             	xor    $0x1,%eax
    c56c:	84 c0                	test   %al,%al
    c56e:	74 21                	je     c591 <safe_convert_func_float_to_int32_t+0x44>
    c570:	f3 0f 10 45 fc       	movss  -0x4(%rbp),%xmm0
    c575:	0f 2f 05 98 35 01 00 	comiss 0x13598(%rip),%xmm0        # 1fb14 <l_1086.5382+0xf4>
    c57c:	0f 93 c0             	setae  %al
    c57f:	83 f0 01             	xor    $0x1,%eax
    c582:	84 c0                	test   %al,%al
    c584:	74 0b                	je     c591 <safe_convert_func_float_to_int32_t+0x44>
    c586:	f3 0f 10 45 fc       	movss  -0x4(%rbp),%xmm0
    c58b:	f3 0f 2c c0          	cvttss2si %xmm0,%eax
    c58f:	eb 05                	jmp    c596 <safe_convert_func_float_to_int32_t+0x49>
    c591:	b8 ff ff ff 7f       	mov    $0x7fffffff,%eax
    c596:	5d                   	pop    %rbp
    c597:	c3                   	retq   

000000000000c598 <crc32_gentab>:
    c598:	f3 0f 1e fa          	endbr64 
    c59c:	55                   	push   %rbp
    c59d:	48 89 e5             	mov    %rsp,%rbp
    c5a0:	c7 45 fc 20 83 b8 ed 	movl   $0xedb88320,-0x4(%rbp)
    c5a7:	c7 45 f4 00 00 00 00 	movl   $0x0,-0xc(%rbp)
    c5ae:	eb 51                	jmp    c601 <crc32_gentab+0x69>
    c5b0:	8b 45 f4             	mov    -0xc(%rbp),%eax
    c5b3:	89 45 f0             	mov    %eax,-0x10(%rbp)
    c5b6:	c7 45 f8 08 00 00 00 	movl   $0x8,-0x8(%rbp)
    c5bd:	eb 1e                	jmp    c5dd <crc32_gentab+0x45>
    c5bf:	8b 45 f0             	mov    -0x10(%rbp),%eax
    c5c2:	83 e0 01             	and    $0x1,%eax
    c5c5:	85 c0                	test   %eax,%eax
    c5c7:	74 0d                	je     c5d6 <crc32_gentab+0x3e>
    c5c9:	8b 45 f0             	mov    -0x10(%rbp),%eax
    c5cc:	d1 e8                	shr    %eax
    c5ce:	33 45 fc             	xor    -0x4(%rbp),%eax
    c5d1:	89 45 f0             	mov    %eax,-0x10(%rbp)
    c5d4:	eb 03                	jmp    c5d9 <crc32_gentab+0x41>
    c5d6:	d1 6d f0             	shrl   -0x10(%rbp)
    c5d9:	83 6d f8 01          	subl   $0x1,-0x8(%rbp)
    c5dd:	83 7d f8 00          	cmpl   $0x0,-0x8(%rbp)
    c5e1:	7f dc                	jg     c5bf <crc32_gentab+0x27>
    c5e3:	8b 45 f4             	mov    -0xc(%rbp),%eax
    c5e6:	48 98                	cltq   
    c5e8:	48 8d 0c 85 00 00 00 	lea    0x0(,%rax,4),%rcx
    c5ef:	00 
    c5f0:	48 8d 15 c9 b9 01 00 	lea    0x1b9c9(%rip),%rdx        # 27fc0 <crc32_tab>
    c5f7:	8b 45 f0             	mov    -0x10(%rbp),%eax
    c5fa:	89 04 11             	mov    %eax,(%rcx,%rdx,1)
    c5fd:	83 45 f4 01          	addl   $0x1,-0xc(%rbp)
    c601:	81 7d f4 ff 00 00 00 	cmpl   $0xff,-0xc(%rbp)
    c608:	7e a6                	jle    c5b0 <crc32_gentab+0x18>
    c60a:	90                   	nop
    c60b:	90                   	nop
    c60c:	5d                   	pop    %rbp
    c60d:	c3                   	retq   

000000000000c60e <crc32_byte>:
    c60e:	f3 0f 1e fa          	endbr64 
    c612:	55                   	push   %rbp
    c613:	48 89 e5             	mov    %rsp,%rbp
    c616:	89 f8                	mov    %edi,%eax
    c618:	88 45 fc             	mov    %al,-0x4(%rbp)
    c61b:	8b 05 ff 69 01 00    	mov    0x169ff(%rip),%eax        # 23020 <crc32_context>
    c621:	c1 e8 08             	shr    $0x8,%eax
    c624:	89 c1                	mov    %eax,%ecx
    c626:	0f b6 55 fc          	movzbl -0x4(%rbp),%edx
    c62a:	8b 05 f0 69 01 00    	mov    0x169f0(%rip),%eax        # 23020 <crc32_context>
    c630:	31 d0                	xor    %edx,%eax
    c632:	0f b6 c0             	movzbl %al,%eax
    c635:	89 c0                	mov    %eax,%eax
    c637:	48 8d 14 85 00 00 00 	lea    0x0(,%rax,4),%rdx
    c63e:	00 
    c63f:	48 8d 05 7a b9 01 00 	lea    0x1b97a(%rip),%rax        # 27fc0 <crc32_tab>
    c646:	8b 04 02             	mov    (%rdx,%rax,1),%eax
    c649:	31 c8                	xor    %ecx,%eax
    c64b:	89 05 cf 69 01 00    	mov    %eax,0x169cf(%rip)        # 23020 <crc32_context>
    c651:	90                   	nop
    c652:	5d                   	pop    %rbp
    c653:	c3                   	retq   

000000000000c654 <crc32_8bytes>:
    c654:	f3 0f 1e fa          	endbr64 
    c658:	55                   	push   %rbp
    c659:	48 89 e5             	mov    %rsp,%rbp
    c65c:	48 83 ec 08          	sub    $0x8,%rsp
    c660:	48 89 7d f8          	mov    %rdi,-0x8(%rbp)
    c664:	48 8b 45 f8          	mov    -0x8(%rbp),%rax
    c668:	0f b6 c0             	movzbl %al,%eax
    c66b:	89 c7                	mov    %eax,%edi
    c66d:	e8 9c ff ff ff       	callq  c60e <crc32_byte>
    c672:	48 8b 45 f8          	mov    -0x8(%rbp),%rax
    c676:	48 c1 e8 08          	shr    $0x8,%rax
    c67a:	0f b6 c0             	movzbl %al,%eax
    c67d:	89 c7                	mov    %eax,%edi
    c67f:	e8 8a ff ff ff       	callq  c60e <crc32_byte>
    c684:	48 8b 45 f8          	mov    -0x8(%rbp),%rax
    c688:	48 c1 e8 10          	shr    $0x10,%rax
    c68c:	0f b6 c0             	movzbl %al,%eax
    c68f:	89 c7                	mov    %eax,%edi
    c691:	e8 78 ff ff ff       	callq  c60e <crc32_byte>
    c696:	48 8b 45 f8          	mov    -0x8(%rbp),%rax
    c69a:	48 c1 e8 18          	shr    $0x18,%rax
    c69e:	0f b6 c0             	movzbl %al,%eax
    c6a1:	89 c7                	mov    %eax,%edi
    c6a3:	e8 66 ff ff ff       	callq  c60e <crc32_byte>
    c6a8:	48 8b 45 f8          	mov    -0x8(%rbp),%rax
    c6ac:	48 c1 e8 20          	shr    $0x20,%rax
    c6b0:	0f b6 c0             	movzbl %al,%eax
    c6b3:	89 c7                	mov    %eax,%edi
    c6b5:	e8 54 ff ff ff       	callq  c60e <crc32_byte>
    c6ba:	48 8b 45 f8          	mov    -0x8(%rbp),%rax
    c6be:	48 c1 e8 28          	shr    $0x28,%rax
    c6c2:	0f b6 c0             	movzbl %al,%eax
    c6c5:	89 c7                	mov    %eax,%edi
    c6c7:	e8 42 ff ff ff       	callq  c60e <crc32_byte>
    c6cc:	48 8b 45 f8          	mov    -0x8(%rbp),%rax
    c6d0:	48 c1 e8 30          	shr    $0x30,%rax
    c6d4:	0f b6 c0             	movzbl %al,%eax
    c6d7:	89 c7                	mov    %eax,%edi
    c6d9:	e8 30 ff ff ff       	callq  c60e <crc32_byte>
    c6de:	48 8b 45 f8          	mov    -0x8(%rbp),%rax
    c6e2:	48 c1 e8 38          	shr    $0x38,%rax
    c6e6:	0f b6 c0             	movzbl %al,%eax
    c6e9:	89 c7                	mov    %eax,%edi
    c6eb:	e8 1e ff ff ff       	callq  c60e <crc32_byte>
    c6f0:	90                   	nop
    c6f1:	c9                   	leaveq 
    c6f2:	c3                   	retq   

000000000000c6f3 <transparent_crc>:
    c6f3:	f3 0f 1e fa          	endbr64 
    c6f7:	55                   	push   %rbp
    c6f8:	48 89 e5             	mov    %rsp,%rbp
    c6fb:	48 83 ec 20          	sub    $0x20,%rsp
    c6ff:	48 89 7d f8          	mov    %rdi,-0x8(%rbp)
    c703:	48 89 75 f0          	mov    %rsi,-0x10(%rbp)
    c707:	89 55 ec             	mov    %edx,-0x14(%rbp)
    c70a:	48 8b 45 f8          	mov    -0x8(%rbp),%rax
    c70e:	48 89 c7             	mov    %rax,%rdi
    c711:	e8 3e ff ff ff       	callq  c654 <crc32_8bytes>
    c716:	83 7d ec 00          	cmpl   $0x0,-0x14(%rbp)
    c71a:	74 22                	je     c73e <transparent_crc+0x4b>
    c71c:	8b 05 fe 68 01 00    	mov    0x168fe(%rip),%eax        # 23020 <crc32_context>
    c722:	f7 d0                	not    %eax
    c724:	89 c2                	mov    %eax,%edx
    c726:	48 8b 45 f0          	mov    -0x10(%rbp),%rax
    c72a:	48 89 c6             	mov    %rax,%rsi
    c72d:	48 8d 3d fc 08 01 00 	lea    0x108fc(%rip),%rdi        # 1d030 <_IO_stdin_used+0x30>
    c734:	b8 00 00 00 00       	mov    $0x0,%eax
    c739:	e8 42 e9 ff ff       	callq  b080 <printf@plt>
    c73e:	90                   	nop
    c73f:	c9                   	leaveq 
    c740:	c3                   	retq   

000000000000c741 <transparent_crc_bytes>:
    c741:	f3 0f 1e fa          	endbr64 
    c745:	55                   	push   %rbp
    c746:	48 89 e5             	mov    %rsp,%rbp
    c749:	48 83 ec 30          	sub    $0x30,%rsp
    c74d:	48 89 7d e8          	mov    %rdi,-0x18(%rbp)
    c751:	89 75 e4             	mov    %esi,-0x1c(%rbp)
    c754:	48 89 55 d8          	mov    %rdx,-0x28(%rbp)
    c758:	89 4d e0             	mov    %ecx,-0x20(%rbp)
    c75b:	c7 45 fc 00 00 00 00 	movl   $0x0,-0x4(%rbp)
    c762:	eb 1e                	jmp    c782 <transparent_crc_bytes+0x41>
    c764:	8b 45 fc             	mov    -0x4(%rbp),%eax
    c767:	48 63 d0             	movslq %eax,%rdx
    c76a:	48 8b 45 e8          	mov    -0x18(%rbp),%rax
    c76e:	48 01 d0             	add    %rdx,%rax
    c771:	0f b6 00             	movzbl (%rax),%eax
    c774:	0f b6 c0             	movzbl %al,%eax
    c777:	89 c7                	mov    %eax,%edi
    c779:	e8 90 fe ff ff       	callq  c60e <crc32_byte>
    c77e:	83 45 fc 01          	addl   $0x1,-0x4(%rbp)
    c782:	8b 45 fc             	mov    -0x4(%rbp),%eax
    c785:	3b 45 e4             	cmp    -0x1c(%rbp),%eax
    c788:	7c da                	jl     c764 <transparent_crc_bytes+0x23>
    c78a:	83 7d e0 00          	cmpl   $0x0,-0x20(%rbp)
    c78e:	74 22                	je     c7b2 <transparent_crc_bytes+0x71>
    c790:	8b 05 8a 68 01 00    	mov    0x1688a(%rip),%eax        # 23020 <crc32_context>
    c796:	f7 d0                	not    %eax
    c798:	89 c2                	mov    %eax,%edx
    c79a:	48 8b 45 d8          	mov    -0x28(%rbp),%rax
    c79e:	48 89 c6             	mov    %rax,%rsi
    c7a1:	48 8d 3d 88 08 01 00 	lea    0x10888(%rip),%rdi        # 1d030 <_IO_stdin_used+0x30>
    c7a8:	b8 00 00 00 00       	mov    $0x0,%eax
    c7ad:	e8 ce e8 ff ff       	callq  b080 <printf@plt>
    c7b2:	90                   	nop
    c7b3:	c9                   	leaveq 
    c7b4:	c3                   	retq   

000000000000c7b5 <func_1>:
    c7b5:	f3 0f 1e fa          	endbr64 
    c7b9:	55                   	push   %rbp
    c7ba:	48 89 e5             	mov    %rsp,%rbp
    c7bd:	48 81 ec 80 0c 00 00 	sub    $0xc80,%rsp
    c7c4:	64 48 8b 04 25 28 00 	mov    %fs:0x28,%rax
    c7cb:	00 00 
    c7cd:	48 89 45 f8          	mov    %rax,-0x8(%rbp)
    c7d1:	31 c0                	xor    %eax,%eax
    c7d3:	c7 85 94 f3 ff ff 62 	movl   $0x6e838462,-0xc6c(%rbp)
    c7da:	84 83 6e 
    c7dd:	c7 85 98 f3 ff ff 09 	movl   $0x9,-0xc68(%rbp)
    c7e4:	00 00 00 
    c7e7:	48 8d 05 4a 6e 01 00 	lea    0x16e4a(%rip),%rax        # 23638 <g_1162>
    c7ee:	48 89 85 b0 f3 ff ff 	mov    %rax,-0xc50(%rbp)
    c7f5:	c7 85 9c f3 ff ff fe 	movl   $0xfffffffe,-0xc64(%rbp)
    c7fc:	ff ff ff 
    c7ff:	48 b8 46 c7 7e 96 9b 	movabs $0x44bd5d9b967ec746,%rax
    c806:	5d bd 44 
    c809:	48 89 85 b8 f3 ff ff 	mov    %rax,-0xc48(%rbp)
    c810:	c7 85 a0 f3 ff ff 07 	movl   $0x7,-0xc60(%rbp)
    c817:	00 00 00 
    c81a:	48 8d 85 60 f4 ff ff 	lea    -0xba0(%rbp),%rax
    c821:	48 8d 15 38 09 01 00 	lea    0x10938(%rip),%rdx        # 1d160 <g_3481+0xc0>
    c828:	b9 28 00 00 00       	mov    $0x28,%ecx
    c82d:	48 89 c7             	mov    %rax,%rdi
    c830:	48 89 d6             	mov    %rdx,%rsi
    c833:	f3 48 a5             	rep movsq %ds:(%rsi),%es:(%rdi)
    c836:	c7 85 a4 f3 ff ff ff 	movl   $0xffffffff,-0xc5c(%rbp)
    c83d:	ff ff ff 
    c840:	66 c7 85 8c f3 ff ff 	movw   $0x0,-0xc74(%rbp)
    c847:	00 00 
    c849:	48 c7 85 c0 f3 ff ff 	movq   $0x0,-0xc40(%rbp)
    c850:	00 00 00 00 
    c854:	48 8d 05 85 b0 01 00 	lea    0x1b085(%rip),%rax        # 278e0 <g_846>
    c85b:	48 89 85 c8 f3 ff ff 	mov    %rax,-0xc38(%rbp)
    c862:	66 c7 85 10 f4 ff ff 	movw   $0x1eb3,-0xbf0(%rbp)
    c869:	b3 1e 
    c86b:	66 c7 85 12 f4 ff ff 	movw   $0x1eb3,-0xbee(%rbp)
    c872:	b3 1e 
    c874:	66 c7 85 14 f4 ff ff 	movw   $0x1eb3,-0xbec(%rbp)
    c87b:	b3 1e 
    c87d:	66 c7 85 16 f4 ff ff 	movw   $0x1eb3,-0xbea(%rbp)
    c884:	b3 1e 
    c886:	66 c7 85 18 f4 ff ff 	movw   $0x1eb3,-0xbe8(%rbp)
    c88d:	b3 1e 
    c88f:	66 c7 85 1a f4 ff ff 	movw   $0x1eb3,-0xbe6(%rbp)
    c896:	b3 1e 
    c898:	66 c7 85 1c f4 ff ff 	movw   $0x1eb3,-0xbe4(%rbp)
    c89f:	b3 1e 
    c8a1:	66 c7 85 1e f4 ff ff 	movw   $0x1eb3,-0xbe2(%rbp)
    c8a8:	b3 1e 
    c8aa:	66 c7 85 20 f4 ff ff 	movw   $0x1eb3,-0xbe0(%rbp)
    c8b1:	b3 1e 
    c8b3:	66 c7 85 22 f4 ff ff 	movw   $0x1eb3,-0xbde(%rbp)
    c8ba:	b3 1e 
    c8bc:	66 c7 85 24 f4 ff ff 	movw   $0x1eb3,-0xbdc(%rbp)
    c8c3:	b3 1e 
    c8c5:	66 c7 85 26 f4 ff ff 	movw   $0x1eb3,-0xbda(%rbp)
    c8cc:	b3 1e 
    c8ce:	66 c7 85 28 f4 ff ff 	movw   $0x1eb3,-0xbd8(%rbp)
    c8d5:	b3 1e 
    c8d7:	66 c7 85 2a f4 ff ff 	movw   $0x1eb3,-0xbd6(%rbp)
    c8de:	b3 1e 
    c8e0:	48 8d 05 f1 ba 01 00 	lea    0x1baf1(%rip),%rax        # 283d8 <g_247>
    c8e7:	48 89 85 d0 f3 ff ff 	mov    %rax,-0xc30(%rbp)
    c8ee:	c7 85 a8 f3 ff ff a2 	movl   $0x3919dca2,-0xc58(%rbp)
    c8f5:	dc 19 39 
    c8f8:	c6 85 8b f3 ff ff bd 	movb   $0xbd,-0xc75(%rbp)
    c8ff:	66 c7 85 8e f3 ff ff 	movw   $0x2ed6,-0xc72(%rbp)
    c906:	d6 2e 
    c908:	48 8d 05 99 67 01 00 	lea    0x16799(%rip),%rax        # 230a8 <g_361>
    c90f:	48 89 85 d8 f3 ff ff 	mov    %rax,-0xc28(%rbp)
    c916:	c7 85 ac f3 ff ff c3 	movl   $0xdbd961c3,-0xc54(%rbp)
    c91d:	61 d9 db 
    c920:	48 8d 05 69 67 01 00 	lea    0x16769(%rip),%rax        # 23090 <g_78+0x10>
    c927:	48 89 85 e0 f3 ff ff 	mov    %rax,-0xc20(%rbp)
    c92e:	48 8d 85 b0 f3 ff ff 	lea    -0xc50(%rbp),%rax
    c935:	48 89 85 a0 f5 ff ff 	mov    %rax,-0xa60(%rbp)
    c93c:	48 8d 85 b0 f3 ff ff 	lea    -0xc50(%rbp),%rax
    c943:	48 89 85 a8 f5 ff ff 	mov    %rax,-0xa58(%rbp)
    c94a:	48 8d 85 b0 f3 ff ff 	lea    -0xc50(%rbp),%rax
    c951:	48 89 85 b0 f5 ff ff 	mov    %rax,-0xa50(%rbp)
    c958:	48 8d 85 b0 f3 ff ff 	lea    -0xc50(%rbp),%rax
    c95f:	48 89 85 b8 f5 ff ff 	mov    %rax,-0xa48(%rbp)
    c966:	48 8d 85 b0 f3 ff ff 	lea    -0xc50(%rbp),%rax
    c96d:	48 89 85 c0 f5 ff ff 	mov    %rax,-0xa40(%rbp)
    c974:	48 8d 85 b0 f3 ff ff 	lea    -0xc50(%rbp),%rax
    c97b:	48 89 85 c8 f5 ff ff 	mov    %rax,-0xa38(%rbp)
    c982:	48 8d 85 b0 f3 ff ff 	lea    -0xc50(%rbp),%rax
    c989:	48 89 85 d0 f5 ff ff 	mov    %rax,-0xa30(%rbp)
    c990:	48 8d 85 b0 f3 ff ff 	lea    -0xc50(%rbp),%rax
    c997:	48 89 85 d8 f5 ff ff 	mov    %rax,-0xa28(%rbp)
    c99e:	48 8d 85 b0 f3 ff ff 	lea    -0xc50(%rbp),%rax
    c9a5:	48 89 85 e0 f5 ff ff 	mov    %rax,-0xa20(%rbp)
    c9ac:	48 8d 85 b0 f3 ff ff 	lea    -0xc50(%rbp),%rax
    c9b3:	48 89 85 e8 f5 ff ff 	mov    %rax,-0xa18(%rbp)
    c9ba:	48 8d 85 b0 f3 ff ff 	lea    -0xc50(%rbp),%rax
    c9c1:	48 89 85 f0 f5 ff ff 	mov    %rax,-0xa10(%rbp)
    c9c8:	48 8d 85 b0 f3 ff ff 	lea    -0xc50(%rbp),%rax
    c9cf:	48 89 85 f8 f5 ff ff 	mov    %rax,-0xa08(%rbp)
    c9d6:	48 8d 85 b0 f3 ff ff 	lea    -0xc50(%rbp),%rax
    c9dd:	48 89 85 00 f6 ff ff 	mov    %rax,-0xa00(%rbp)
    c9e4:	48 8d 85 b0 f3 ff ff 	lea    -0xc50(%rbp),%rax
    c9eb:	48 89 85 08 f6 ff ff 	mov    %rax,-0x9f8(%rbp)
    c9f2:	48 8d 85 b0 f3 ff ff 	lea    -0xc50(%rbp),%rax
    c9f9:	48 89 85 10 f6 ff ff 	mov    %rax,-0x9f0(%rbp)
    ca00:	48 8d 85 b0 f3 ff ff 	lea    -0xc50(%rbp),%rax
    ca07:	48 89 85 18 f6 ff ff 	mov    %rax,-0x9e8(%rbp)
    ca0e:	48 8d 85 b0 f3 ff ff 	lea    -0xc50(%rbp),%rax
    ca15:	48 89 85 20 f6 ff ff 	mov    %rax,-0x9e0(%rbp)
    ca1c:	48 8d 85 b0 f3 ff ff 	lea    -0xc50(%rbp),%rax
    ca23:	48 89 85 28 f6 ff ff 	mov    %rax,-0x9d8(%rbp)
    ca2a:	48 8d 85 b0 f3 ff ff 	lea    -0xc50(%rbp),%rax
    ca31:	48 89 85 30 f6 ff ff 	mov    %rax,-0x9d0(%rbp)
    ca38:	48 8d 85 b0 f3 ff ff 	lea    -0xc50(%rbp),%rax
    ca3f:	48 89 85 38 f6 ff ff 	mov    %rax,-0x9c8(%rbp)
    ca46:	48 8d 85 b0 f3 ff ff 	lea    -0xc50(%rbp),%rax
    ca4d:	48 89 85 40 f6 ff ff 	mov    %rax,-0x9c0(%rbp)
    ca54:	48 8d 85 b0 f3 ff ff 	lea    -0xc50(%rbp),%rax
    ca5b:	48 89 85 48 f6 ff ff 	mov    %rax,-0x9b8(%rbp)
    ca62:	48 8d 85 b0 f3 ff ff 	lea    -0xc50(%rbp),%rax
    ca69:	48 89 85 50 f6 ff ff 	mov    %rax,-0x9b0(%rbp)
    ca70:	48 8d 85 b0 f3 ff ff 	lea    -0xc50(%rbp),%rax
    ca77:	48 89 85 58 f6 ff ff 	mov    %rax,-0x9a8(%rbp)
    ca7e:	48 8d 85 b0 f3 ff ff 	lea    -0xc50(%rbp),%rax
    ca85:	48 89 85 60 f6 ff ff 	mov    %rax,-0x9a0(%rbp)
    ca8c:	48 8d 85 b0 f3 ff ff 	lea    -0xc50(%rbp),%rax
    ca93:	48 89 85 68 f6 ff ff 	mov    %rax,-0x998(%rbp)
    ca9a:	48 8d 85 b0 f3 ff ff 	lea    -0xc50(%rbp),%rax
    caa1:	48 89 85 70 f6 ff ff 	mov    %rax,-0x990(%rbp)
    caa8:	48 8d 85 b0 f3 ff ff 	lea    -0xc50(%rbp),%rax
    caaf:	48 89 85 78 f6 ff ff 	mov    %rax,-0x988(%rbp)
    cab6:	48 8d 85 b0 f3 ff ff 	lea    -0xc50(%rbp),%rax
    cabd:	48 89 85 80 f6 ff ff 	mov    %rax,-0x980(%rbp)
    cac4:	48 8d 85 b0 f3 ff ff 	lea    -0xc50(%rbp),%rax
    cacb:	48 89 85 88 f6 ff ff 	mov    %rax,-0x978(%rbp)
    cad2:	48 8d 85 b0 f3 ff ff 	lea    -0xc50(%rbp),%rax
    cad9:	48 89 85 90 f6 ff ff 	mov    %rax,-0x970(%rbp)
    cae0:	48 8d 85 b0 f3 ff ff 	lea    -0xc50(%rbp),%rax
    cae7:	48 89 85 98 f6 ff ff 	mov    %rax,-0x968(%rbp)
    caee:	48 8d 85 b0 f3 ff ff 	lea    -0xc50(%rbp),%rax
    caf5:	48 89 85 a0 f6 ff ff 	mov    %rax,-0x960(%rbp)
    cafc:	48 8d 85 b0 f3 ff ff 	lea    -0xc50(%rbp),%rax
    cb03:	48 89 85 a8 f6 ff ff 	mov    %rax,-0x958(%rbp)
    cb0a:	48 8d 85 b0 f3 ff ff 	lea    -0xc50(%rbp),%rax
    cb11:	48 89 85 b0 f6 ff ff 	mov    %rax,-0x950(%rbp)
    cb18:	48 8d 85 b0 f3 ff ff 	lea    -0xc50(%rbp),%rax
    cb1f:	48 89 85 b8 f6 ff ff 	mov    %rax,-0x948(%rbp)
    cb26:	48 8d 85 b0 f3 ff ff 	lea    -0xc50(%rbp),%rax
    cb2d:	48 89 85 c0 f6 ff ff 	mov    %rax,-0x940(%rbp)
    cb34:	48 8d 85 b0 f3 ff ff 	lea    -0xc50(%rbp),%rax
    cb3b:	48 89 85 c8 f6 ff ff 	mov    %rax,-0x938(%rbp)
    cb42:	48 8d 85 b0 f3 ff ff 	lea    -0xc50(%rbp),%rax
    cb49:	48 89 85 d0 f6 ff ff 	mov    %rax,-0x930(%rbp)
    cb50:	48 8d 85 b0 f3 ff ff 	lea    -0xc50(%rbp),%rax
    cb57:	48 89 85 d8 f6 ff ff 	mov    %rax,-0x928(%rbp)
    cb5e:	48 8d 85 b0 f3 ff ff 	lea    -0xc50(%rbp),%rax
    cb65:	48 89 85 e0 f6 ff ff 	mov    %rax,-0x920(%rbp)
    cb6c:	48 8d 85 b0 f3 ff ff 	lea    -0xc50(%rbp),%rax
    cb73:	48 89 85 e8 f6 ff ff 	mov    %rax,-0x918(%rbp)
    cb7a:	48 8d 85 b0 f3 ff ff 	lea    -0xc50(%rbp),%rax
    cb81:	48 89 85 f0 f6 ff ff 	mov    %rax,-0x910(%rbp)
    cb88:	48 8d 85 b0 f3 ff ff 	lea    -0xc50(%rbp),%rax
    cb8f:	48 89 85 f8 f6 ff ff 	mov    %rax,-0x908(%rbp)
    cb96:	48 8d 85 b0 f3 ff ff 	lea    -0xc50(%rbp),%rax
    cb9d:	48 89 85 00 f7 ff ff 	mov    %rax,-0x900(%rbp)
    cba4:	48 8d 85 b0 f3 ff ff 	lea    -0xc50(%rbp),%rax
    cbab:	48 89 85 08 f7 ff ff 	mov    %rax,-0x8f8(%rbp)
    cbb2:	48 8d 85 b0 f3 ff ff 	lea    -0xc50(%rbp),%rax
    cbb9:	48 89 85 10 f7 ff ff 	mov    %rax,-0x8f0(%rbp)
    cbc0:	48 8d 85 b0 f3 ff ff 	lea    -0xc50(%rbp),%rax
    cbc7:	48 89 85 18 f7 ff ff 	mov    %rax,-0x8e8(%rbp)
    cbce:	48 8d 85 b0 f3 ff ff 	lea    -0xc50(%rbp),%rax
    cbd5:	48 89 85 20 f7 ff ff 	mov    %rax,-0x8e0(%rbp)
    cbdc:	48 8d 85 b0 f3 ff ff 	lea    -0xc50(%rbp),%rax
    cbe3:	48 89 85 28 f7 ff ff 	mov    %rax,-0x8d8(%rbp)
    cbea:	48 8d 85 b0 f3 ff ff 	lea    -0xc50(%rbp),%rax
    cbf1:	48 89 85 30 f7 ff ff 	mov    %rax,-0x8d0(%rbp)
    cbf8:	48 8d 85 b0 f3 ff ff 	lea    -0xc50(%rbp),%rax
    cbff:	48 89 85 38 f7 ff ff 	mov    %rax,-0x8c8(%rbp)
    cc06:	48 8d 85 b0 f3 ff ff 	lea    -0xc50(%rbp),%rax
    cc0d:	48 89 85 40 f7 ff ff 	mov    %rax,-0x8c0(%rbp)
    cc14:	48 8d 85 b0 f3 ff ff 	lea    -0xc50(%rbp),%rax
    cc1b:	48 89 85 48 f7 ff ff 	mov    %rax,-0x8b8(%rbp)
    cc22:	48 8d 85 b0 f3 ff ff 	lea    -0xc50(%rbp),%rax
    cc29:	48 89 85 50 f7 ff ff 	mov    %rax,-0x8b0(%rbp)
    cc30:	48 8d 85 b0 f3 ff ff 	lea    -0xc50(%rbp),%rax
    cc37:	48 89 85 58 f7 ff ff 	mov    %rax,-0x8a8(%rbp)
    cc3e:	48 8d 85 b0 f3 ff ff 	lea    -0xc50(%rbp),%rax
    cc45:	48 89 85 60 f7 ff ff 	mov    %rax,-0x8a0(%rbp)
    cc4c:	48 8d 85 b0 f3 ff ff 	lea    -0xc50(%rbp),%rax
    cc53:	48 89 85 68 f7 ff ff 	mov    %rax,-0x898(%rbp)
    cc5a:	48 8d 85 b0 f3 ff ff 	lea    -0xc50(%rbp),%rax
    cc61:	48 89 85 70 f7 ff ff 	mov    %rax,-0x890(%rbp)
    cc68:	48 8d 85 b0 f3 ff ff 	lea    -0xc50(%rbp),%rax
    cc6f:	48 89 85 78 f7 ff ff 	mov    %rax,-0x888(%rbp)
    cc76:	48 8d 85 b0 f3 ff ff 	lea    -0xc50(%rbp),%rax
    cc7d:	48 89 85 80 f7 ff ff 	mov    %rax,-0x880(%rbp)
    cc84:	48 8d 85 b0 f3 ff ff 	lea    -0xc50(%rbp),%rax
    cc8b:	48 89 85 88 f7 ff ff 	mov    %rax,-0x878(%rbp)
    cc92:	48 8d 85 b0 f3 ff ff 	lea    -0xc50(%rbp),%rax
    cc99:	48 89 85 90 f7 ff ff 	mov    %rax,-0x870(%rbp)
    cca0:	48 8d 85 b0 f3 ff ff 	lea    -0xc50(%rbp),%rax
    cca7:	48 89 85 98 f7 ff ff 	mov    %rax,-0x868(%rbp)
    ccae:	48 8d 85 b0 f3 ff ff 	lea    -0xc50(%rbp),%rax
    ccb5:	48 89 85 a0 f7 ff ff 	mov    %rax,-0x860(%rbp)
    ccbc:	48 8d 85 b0 f3 ff ff 	lea    -0xc50(%rbp),%rax
    ccc3:	48 89 85 a8 f7 ff ff 	mov    %rax,-0x858(%rbp)
    ccca:	48 8d 85 b0 f3 ff ff 	lea    -0xc50(%rbp),%rax
    ccd1:	48 89 85 b0 f7 ff ff 	mov    %rax,-0x850(%rbp)
    ccd8:	48 8d 85 b0 f3 ff ff 	lea    -0xc50(%rbp),%rax
    ccdf:	48 89 85 b8 f7 ff ff 	mov    %rax,-0x848(%rbp)
    cce6:	48 8d 85 b0 f3 ff ff 	lea    -0xc50(%rbp),%rax
    cced:	48 89 85 c0 f7 ff ff 	mov    %rax,-0x840(%rbp)
    ccf4:	48 8d 85 b0 f3 ff ff 	lea    -0xc50(%rbp),%rax
    ccfb:	48 89 85 c8 f7 ff ff 	mov    %rax,-0x838(%rbp)
    cd02:	48 8d 85 b0 f3 ff ff 	lea    -0xc50(%rbp),%rax
    cd09:	48 89 85 d0 f7 ff ff 	mov    %rax,-0x830(%rbp)
    cd10:	48 8d 85 b0 f3 ff ff 	lea    -0xc50(%rbp),%rax
    cd17:	48 89 85 d8 f7 ff ff 	mov    %rax,-0x828(%rbp)
    cd1e:	48 8d 85 b0 f3 ff ff 	lea    -0xc50(%rbp),%rax
    cd25:	48 89 85 e0 f7 ff ff 	mov    %rax,-0x820(%rbp)
    cd2c:	48 8d 85 b0 f3 ff ff 	lea    -0xc50(%rbp),%rax
    cd33:	48 89 85 e8 f7 ff ff 	mov    %rax,-0x818(%rbp)
    cd3a:	48 8d 85 b0 f3 ff ff 	lea    -0xc50(%rbp),%rax
    cd41:	48 89 85 f0 f7 ff ff 	mov    %rax,-0x810(%rbp)
    cd48:	48 8d 85 b0 f3 ff ff 	lea    -0xc50(%rbp),%rax
    cd4f:	48 89 85 f8 f7 ff ff 	mov    %rax,-0x808(%rbp)
    cd56:	48 8d 85 b0 f3 ff ff 	lea    -0xc50(%rbp),%rax
    cd5d:	48 89 85 00 f8 ff ff 	mov    %rax,-0x800(%rbp)
    cd64:	48 8d 85 b0 f3 ff ff 	lea    -0xc50(%rbp),%rax
    cd6b:	48 89 85 08 f8 ff ff 	mov    %rax,-0x7f8(%rbp)
    cd72:	48 8d 85 b0 f3 ff ff 	lea    -0xc50(%rbp),%rax
    cd79:	48 89 85 10 f8 ff ff 	mov    %rax,-0x7f0(%rbp)
    cd80:	48 8d 85 b0 f3 ff ff 	lea    -0xc50(%rbp),%rax
    cd87:	48 89 85 18 f8 ff ff 	mov    %rax,-0x7e8(%rbp)
    cd8e:	48 8d 85 b0 f3 ff ff 	lea    -0xc50(%rbp),%rax
    cd95:	48 89 85 20 f8 ff ff 	mov    %rax,-0x7e0(%rbp)
    cd9c:	48 8d 85 b0 f3 ff ff 	lea    -0xc50(%rbp),%rax
    cda3:	48 89 85 28 f8 ff ff 	mov    %rax,-0x7d8(%rbp)
    cdaa:	48 8d 85 b0 f3 ff ff 	lea    -0xc50(%rbp),%rax
    cdb1:	48 89 85 30 f8 ff ff 	mov    %rax,-0x7d0(%rbp)
    cdb8:	48 8d 85 b0 f3 ff ff 	lea    -0xc50(%rbp),%rax
    cdbf:	48 89 85 38 f8 ff ff 	mov    %rax,-0x7c8(%rbp)
    cdc6:	48 8d 85 b0 f3 ff ff 	lea    -0xc50(%rbp),%rax
    cdcd:	48 89 85 40 f8 ff ff 	mov    %rax,-0x7c0(%rbp)
    cdd4:	48 8d 85 b0 f3 ff ff 	lea    -0xc50(%rbp),%rax
    cddb:	48 89 85 48 f8 ff ff 	mov    %rax,-0x7b8(%rbp)
    cde2:	48 8d 85 b0 f3 ff ff 	lea    -0xc50(%rbp),%rax
    cde9:	48 89 85 50 f8 ff ff 	mov    %rax,-0x7b0(%rbp)
    cdf0:	48 8d 85 b0 f3 ff ff 	lea    -0xc50(%rbp),%rax
    cdf7:	48 89 85 58 f8 ff ff 	mov    %rax,-0x7a8(%rbp)
    cdfe:	48 8d 85 b0 f3 ff ff 	lea    -0xc50(%rbp),%rax
    ce05:	48 89 85 60 f8 ff ff 	mov    %rax,-0x7a0(%rbp)
    ce0c:	48 8d 85 b0 f3 ff ff 	lea    -0xc50(%rbp),%rax
    ce13:	48 89 85 68 f8 ff ff 	mov    %rax,-0x798(%rbp)
    ce1a:	48 8d 85 b0 f3 ff ff 	lea    -0xc50(%rbp),%rax
    ce21:	48 89 85 70 f8 ff ff 	mov    %rax,-0x790(%rbp)
    ce28:	48 8d 85 b0 f3 ff ff 	lea    -0xc50(%rbp),%rax
    ce2f:	48 89 85 78 f8 ff ff 	mov    %rax,-0x788(%rbp)
    ce36:	48 8d 85 b0 f3 ff ff 	lea    -0xc50(%rbp),%rax
    ce3d:	48 89 85 80 f8 ff ff 	mov    %rax,-0x780(%rbp)
    ce44:	48 8d 85 b0 f3 ff ff 	lea    -0xc50(%rbp),%rax
    ce4b:	48 89 85 88 f8 ff ff 	mov    %rax,-0x778(%rbp)
    ce52:	48 8d 85 b0 f3 ff ff 	lea    -0xc50(%rbp),%rax
    ce59:	48 89 85 90 f8 ff ff 	mov    %rax,-0x770(%rbp)
    ce60:	48 8d 85 b0 f3 ff ff 	lea    -0xc50(%rbp),%rax
    ce67:	48 89 85 98 f8 ff ff 	mov    %rax,-0x768(%rbp)
    ce6e:	48 8d 85 b0 f3 ff ff 	lea    -0xc50(%rbp),%rax
    ce75:	48 89 85 a0 f8 ff ff 	mov    %rax,-0x760(%rbp)
    ce7c:	48 8d 85 b0 f3 ff ff 	lea    -0xc50(%rbp),%rax
    ce83:	48 89 85 a8 f8 ff ff 	mov    %rax,-0x758(%rbp)
    ce8a:	48 8d 85 b0 f3 ff ff 	lea    -0xc50(%rbp),%rax
    ce91:	48 89 85 b0 f8 ff ff 	mov    %rax,-0x750(%rbp)
    ce98:	48 8d 85 b0 f3 ff ff 	lea    -0xc50(%rbp),%rax
    ce9f:	48 89 85 b8 f8 ff ff 	mov    %rax,-0x748(%rbp)
    cea6:	48 8d 85 b0 f3 ff ff 	lea    -0xc50(%rbp),%rax
    cead:	48 89 85 c0 f8 ff ff 	mov    %rax,-0x740(%rbp)
    ceb4:	48 8d 85 b0 f3 ff ff 	lea    -0xc50(%rbp),%rax
    cebb:	48 89 85 c8 f8 ff ff 	mov    %rax,-0x738(%rbp)
    cec2:	48 8d 85 b0 f3 ff ff 	lea    -0xc50(%rbp),%rax
    cec9:	48 89 85 d0 f8 ff ff 	mov    %rax,-0x730(%rbp)
    ced0:	48 8d 85 b0 f3 ff ff 	lea    -0xc50(%rbp),%rax
    ced7:	48 89 85 d8 f8 ff ff 	mov    %rax,-0x728(%rbp)
    cede:	48 8d 85 b0 f3 ff ff 	lea    -0xc50(%rbp),%rax
    cee5:	48 89 85 e0 f8 ff ff 	mov    %rax,-0x720(%rbp)
    ceec:	48 8d 85 b0 f3 ff ff 	lea    -0xc50(%rbp),%rax
    cef3:	48 89 85 e8 f8 ff ff 	mov    %rax,-0x718(%rbp)
    cefa:	48 8d 85 b0 f3 ff ff 	lea    -0xc50(%rbp),%rax
    cf01:	48 89 85 f0 f8 ff ff 	mov    %rax,-0x710(%rbp)
    cf08:	48 8d 85 b0 f3 ff ff 	lea    -0xc50(%rbp),%rax
    cf0f:	48 89 85 f8 f8 ff ff 	mov    %rax,-0x708(%rbp)
    cf16:	48 8d 85 b0 f3 ff ff 	lea    -0xc50(%rbp),%rax
    cf1d:	48 89 85 00 f9 ff ff 	mov    %rax,-0x700(%rbp)
    cf24:	48 8d 85 b0 f3 ff ff 	lea    -0xc50(%rbp),%rax
    cf2b:	48 89 85 08 f9 ff ff 	mov    %rax,-0x6f8(%rbp)
    cf32:	48 8d 85 b0 f3 ff ff 	lea    -0xc50(%rbp),%rax
    cf39:	48 89 85 10 f9 ff ff 	mov    %rax,-0x6f0(%rbp)
    cf40:	48 8d 85 b0 f3 ff ff 	lea    -0xc50(%rbp),%rax
    cf47:	48 89 85 18 f9 ff ff 	mov    %rax,-0x6e8(%rbp)
    cf4e:	48 8d 85 b0 f3 ff ff 	lea    -0xc50(%rbp),%rax
    cf55:	48 89 85 20 f9 ff ff 	mov    %rax,-0x6e0(%rbp)
    cf5c:	48 8d 85 b0 f3 ff ff 	lea    -0xc50(%rbp),%rax
    cf63:	48 89 85 28 f9 ff ff 	mov    %rax,-0x6d8(%rbp)
    cf6a:	48 8d 85 b0 f3 ff ff 	lea    -0xc50(%rbp),%rax
    cf71:	48 89 85 30 f9 ff ff 	mov    %rax,-0x6d0(%rbp)
    cf78:	48 8d 85 b0 f3 ff ff 	lea    -0xc50(%rbp),%rax
    cf7f:	48 89 85 38 f9 ff ff 	mov    %rax,-0x6c8(%rbp)
    cf86:	48 8d 85 b0 f3 ff ff 	lea    -0xc50(%rbp),%rax
    cf8d:	48 89 85 40 f9 ff ff 	mov    %rax,-0x6c0(%rbp)
    cf94:	48 8d 85 b0 f3 ff ff 	lea    -0xc50(%rbp),%rax
    cf9b:	48 89 85 48 f9 ff ff 	mov    %rax,-0x6b8(%rbp)
    cfa2:	48 8d 85 b0 f3 ff ff 	lea    -0xc50(%rbp),%rax
    cfa9:	48 89 85 50 f9 ff ff 	mov    %rax,-0x6b0(%rbp)
    cfb0:	48 8d 85 b0 f3 ff ff 	lea    -0xc50(%rbp),%rax
    cfb7:	48 89 85 58 f9 ff ff 	mov    %rax,-0x6a8(%rbp)
    cfbe:	48 c7 85 60 f9 ff ff 	movq   $0x0,-0x6a0(%rbp)
    cfc5:	00 00 00 00 
    cfc9:	48 8d 85 a0 f5 ff ff 	lea    -0xa60(%rbp),%rax
    cfd0:	48 05 a8 03 00 00    	add    $0x3a8,%rax
    cfd6:	48 89 85 68 f9 ff ff 	mov    %rax,-0x698(%rbp)
    cfdd:	48 8d 85 a0 f5 ff ff 	lea    -0xa60(%rbp),%rax
    cfe4:	48 05 a8 03 00 00    	add    $0x3a8,%rax
    cfea:	48 89 85 70 f9 ff ff 	mov    %rax,-0x690(%rbp)
    cff1:	48 8d 85 a0 f5 ff ff 	lea    -0xa60(%rbp),%rax
    cff8:	48 05 a8 03 00 00    	add    $0x3a8,%rax
    cffe:	48 89 85 78 f9 ff ff 	mov    %rax,-0x688(%rbp)
    d005:	48 8d 85 a0 f5 ff ff 	lea    -0xa60(%rbp),%rax
    d00c:	48 05 a8 03 00 00    	add    $0x3a8,%rax
    d012:	48 89 85 80 f9 ff ff 	mov    %rax,-0x680(%rbp)
    d019:	48 8d 85 a0 f5 ff ff 	lea    -0xa60(%rbp),%rax
    d020:	48 05 a8 03 00 00    	add    $0x3a8,%rax
    d026:	48 89 85 88 f9 ff ff 	mov    %rax,-0x678(%rbp)
    d02d:	48 8d 85 a0 f5 ff ff 	lea    -0xa60(%rbp),%rax
    d034:	48 05 a8 03 00 00    	add    $0x3a8,%rax
    d03a:	48 89 85 90 f9 ff ff 	mov    %rax,-0x670(%rbp)
    d041:	48 c7 85 98 f9 ff ff 	movq   $0x0,-0x668(%rbp)
    d048:	00 00 00 00 
    d04c:	48 8d 85 a0 f5 ff ff 	lea    -0xa60(%rbp),%rax
    d053:	48 05 a8 03 00 00    	add    $0x3a8,%rax
    d059:	48 89 85 a0 f9 ff ff 	mov    %rax,-0x660(%rbp)
    d060:	48 8d 85 a0 f5 ff ff 	lea    -0xa60(%rbp),%rax
    d067:	48 05 a8 03 00 00    	add    $0x3a8,%rax
    d06d:	48 89 85 a8 f9 ff ff 	mov    %rax,-0x658(%rbp)
    d074:	48 8d 85 a0 f5 ff ff 	lea    -0xa60(%rbp),%rax
    d07b:	48 05 a8 03 00 00    	add    $0x3a8,%rax
    d081:	48 89 85 b0 f9 ff ff 	mov    %rax,-0x650(%rbp)
    d088:	48 8d 85 a0 f5 ff ff 	lea    -0xa60(%rbp),%rax
    d08f:	48 05 a8 03 00 00    	add    $0x3a8,%rax
    d095:	48 89 85 b8 f9 ff ff 	mov    %rax,-0x648(%rbp)
    d09c:	48 8d 85 a0 f5 ff ff 	lea    -0xa60(%rbp),%rax
    d0a3:	48 05 a8 03 00 00    	add    $0x3a8,%rax
    d0a9:	48 89 85 c0 f9 ff ff 	mov    %rax,-0x640(%rbp)
    d0b0:	48 8d 85 a0 f5 ff ff 	lea    -0xa60(%rbp),%rax
    d0b7:	48 05 a8 03 00 00    	add    $0x3a8,%rax
    d0bd:	48 89 85 c8 f9 ff ff 	mov    %rax,-0x638(%rbp)
    d0c4:	48 c7 85 d0 f9 ff ff 	movq   $0x0,-0x630(%rbp)
    d0cb:	00 00 00 00 
    d0cf:	48 c7 85 d8 f9 ff ff 	movq   $0x0,-0x628(%rbp)
    d0d6:	00 00 00 00 
    d0da:	48 8d 85 a0 f5 ff ff 	lea    -0xa60(%rbp),%rax
    d0e1:	48 05 a8 03 00 00    	add    $0x3a8,%rax
    d0e7:	48 89 85 e0 f9 ff ff 	mov    %rax,-0x620(%rbp)
    d0ee:	48 c7 85 e8 f9 ff ff 	movq   $0x0,-0x618(%rbp)
    d0f5:	00 00 00 00 
    d0f9:	48 c7 85 f0 f9 ff ff 	movq   $0x0,-0x610(%rbp)
    d100:	00 00 00 00 
    d104:	48 c7 85 f8 f9 ff ff 	movq   $0x0,-0x608(%rbp)
    d10b:	00 00 00 00 
    d10f:	48 8d 85 a0 f5 ff ff 	lea    -0xa60(%rbp),%rax
    d116:	48 05 a8 03 00 00    	add    $0x3a8,%rax
    d11c:	48 89 85 00 fa ff ff 	mov    %rax,-0x600(%rbp)
    d123:	48 8d 85 a0 f5 ff ff 	lea    -0xa60(%rbp),%rax
    d12a:	48 05 a8 03 00 00    	add    $0x3a8,%rax
    d130:	48 89 85 08 fa ff ff 	mov    %rax,-0x5f8(%rbp)
    d137:	48 8d 85 a0 f5 ff ff 	lea    -0xa60(%rbp),%rax
    d13e:	48 05 a8 03 00 00    	add    $0x3a8,%rax
    d144:	48 89 85 10 fa ff ff 	mov    %rax,-0x5f0(%rbp)
    d14b:	48 8d 85 a0 f5 ff ff 	lea    -0xa60(%rbp),%rax
    d152:	48 05 a8 03 00 00    	add    $0x3a8,%rax
    d158:	48 89 85 18 fa ff ff 	mov    %rax,-0x5e8(%rbp)
    d15f:	48 c7 85 20 fa ff ff 	movq   $0x0,-0x5e0(%rbp)
    d166:	00 00 00 00 
    d16a:	48 8d 85 a0 f5 ff ff 	lea    -0xa60(%rbp),%rax
    d171:	48 05 a8 03 00 00    	add    $0x3a8,%rax
    d177:	48 89 85 28 fa ff ff 	mov    %rax,-0x5d8(%rbp)
    d17e:	48 c7 85 30 fa ff ff 	movq   $0x0,-0x5d0(%rbp)
    d185:	00 00 00 00 
    d189:	48 c7 85 38 fa ff ff 	movq   $0x0,-0x5c8(%rbp)
    d190:	00 00 00 00 
    d194:	48 c7 85 40 fa ff ff 	movq   $0x0,-0x5c0(%rbp)
    d19b:	00 00 00 00 
    d19f:	48 8d 85 a0 f5 ff ff 	lea    -0xa60(%rbp),%rax
    d1a6:	48 05 a8 03 00 00    	add    $0x3a8,%rax
    d1ac:	48 89 85 48 fa ff ff 	mov    %rax,-0x5b8(%rbp)
    d1b3:	48 c7 85 50 fa ff ff 	movq   $0x0,-0x5b0(%rbp)
    d1ba:	00 00 00 00 
    d1be:	48 8d 85 a0 f5 ff ff 	lea    -0xa60(%rbp),%rax
    d1c5:	48 05 a8 03 00 00    	add    $0x3a8,%rax
    d1cb:	48 89 85 58 fa ff ff 	mov    %rax,-0x5a8(%rbp)
    d1d2:	48 8d 85 a0 f5 ff ff 	lea    -0xa60(%rbp),%rax
    d1d9:	48 05 a8 03 00 00    	add    $0x3a8,%rax
    d1df:	48 89 85 60 fa ff ff 	mov    %rax,-0x5a0(%rbp)
    d1e6:	48 8d 85 a0 f5 ff ff 	lea    -0xa60(%rbp),%rax
    d1ed:	48 05 a8 03 00 00    	add    $0x3a8,%rax
    d1f3:	48 89 85 68 fa ff ff 	mov    %rax,-0x598(%rbp)
    d1fa:	48 8d 85 a0 f5 ff ff 	lea    -0xa60(%rbp),%rax
    d201:	48 05 a8 03 00 00    	add    $0x3a8,%rax
    d207:	48 89 85 70 fa ff ff 	mov    %rax,-0x590(%rbp)
    d20e:	48 c7 85 78 fa ff ff 	movq   $0x0,-0x588(%rbp)
    d215:	00 00 00 00 
    d219:	48 c7 85 80 fa ff ff 	movq   $0x0,-0x580(%rbp)
    d220:	00 00 00 00 
    d224:	48 c7 85 88 fa ff ff 	movq   $0x0,-0x578(%rbp)
    d22b:	00 00 00 00 
    d22f:	48 8d 85 a0 f5 ff ff 	lea    -0xa60(%rbp),%rax
    d236:	48 05 a8 03 00 00    	add    $0x3a8,%rax
    d23c:	48 89 85 90 fa ff ff 	mov    %rax,-0x570(%rbp)
    d243:	48 c7 85 98 fa ff ff 	movq   $0x0,-0x568(%rbp)
    d24a:	00 00 00 00 
    d24e:	48 c7 85 a0 fa ff ff 	movq   $0x0,-0x560(%rbp)
    d255:	00 00 00 00 
    d259:	48 8d 85 a0 f5 ff ff 	lea    -0xa60(%rbp),%rax
    d260:	48 05 a8 03 00 00    	add    $0x3a8,%rax
    d266:	48 89 85 a8 fa ff ff 	mov    %rax,-0x558(%rbp)
    d26d:	48 8d 85 a0 f5 ff ff 	lea    -0xa60(%rbp),%rax
    d274:	48 05 a8 03 00 00    	add    $0x3a8,%rax
    d27a:	48 89 85 b0 fa ff ff 	mov    %rax,-0x550(%rbp)
    d281:	48 8d 85 a0 f5 ff ff 	lea    -0xa60(%rbp),%rax
    d288:	48 05 a8 03 00 00    	add    $0x3a8,%rax
    d28e:	48 89 85 b8 fa ff ff 	mov    %rax,-0x548(%rbp)
    d295:	48 8d 85 a0 f5 ff ff 	lea    -0xa60(%rbp),%rax
    d29c:	48 05 a8 03 00 00    	add    $0x3a8,%rax
    d2a2:	48 89 85 c0 fa ff ff 	mov    %rax,-0x540(%rbp)
    d2a9:	48 8d 85 a0 f5 ff ff 	lea    -0xa60(%rbp),%rax
    d2b0:	48 05 a8 03 00 00    	add    $0x3a8,%rax
    d2b6:	48 89 85 c8 fa ff ff 	mov    %rax,-0x538(%rbp)
    d2bd:	48 8d 85 a0 f5 ff ff 	lea    -0xa60(%rbp),%rax
    d2c4:	48 05 a8 03 00 00    	add    $0x3a8,%rax
    d2ca:	48 89 85 d0 fa ff ff 	mov    %rax,-0x530(%rbp)
    d2d1:	48 c7 85 d8 fa ff ff 	movq   $0x0,-0x528(%rbp)
    d2d8:	00 00 00 00 
    d2dc:	48 8d 85 a0 f5 ff ff 	lea    -0xa60(%rbp),%rax
    d2e3:	48 05 a8 03 00 00    	add    $0x3a8,%rax
    d2e9:	48 89 85 e0 fa ff ff 	mov    %rax,-0x520(%rbp)
    d2f0:	48 8d 85 a0 f5 ff ff 	lea    -0xa60(%rbp),%rax
    d2f7:	48 05 a8 03 00 00    	add    $0x3a8,%rax
    d2fd:	48 89 85 e8 fa ff ff 	mov    %rax,-0x518(%rbp)
    d304:	48 8d 85 a0 f5 ff ff 	lea    -0xa60(%rbp),%rax
    d30b:	48 05 a8 03 00 00    	add    $0x3a8,%rax
    d311:	48 89 85 f0 fa ff ff 	mov    %rax,-0x510(%rbp)
    d318:	48 8d 85 a0 f5 ff ff 	lea    -0xa60(%rbp),%rax
    d31f:	48 05 a8 03 00 00    	add    $0x3a8,%rax
    d325:	48 89 85 f8 fa ff ff 	mov    %rax,-0x508(%rbp)
    d32c:	48 8d 85 a0 f5 ff ff 	lea    -0xa60(%rbp),%rax
    d333:	48 05 a8 03 00 00    	add    $0x3a8,%rax
    d339:	48 89 85 00 fb ff ff 	mov    %rax,-0x500(%rbp)
    d340:	48 8d 85 a0 f5 ff ff 	lea    -0xa60(%rbp),%rax
    d347:	48 05 a8 03 00 00    	add    $0x3a8,%rax
    d34d:	48 89 85 08 fb ff ff 	mov    %rax,-0x4f8(%rbp)
    d354:	48 c7 85 10 fb ff ff 	movq   $0x0,-0x4f0(%rbp)
    d35b:	00 00 00 00 
    d35f:	48 c7 85 18 fb ff ff 	movq   $0x0,-0x4e8(%rbp)
    d366:	00 00 00 00 
    d36a:	48 8d 85 a0 f5 ff ff 	lea    -0xa60(%rbp),%rax
    d371:	48 05 a8 03 00 00    	add    $0x3a8,%rax
    d377:	48 89 85 20 fb ff ff 	mov    %rax,-0x4e0(%rbp)
    d37e:	48 c7 85 28 fb ff ff 	movq   $0x0,-0x4d8(%rbp)
    d385:	00 00 00 00 
    d389:	48 c7 85 30 fb ff ff 	movq   $0x0,-0x4d0(%rbp)
    d390:	00 00 00 00 
    d394:	48 c7 85 38 fb ff ff 	movq   $0x0,-0x4c8(%rbp)
    d39b:	00 00 00 00 
    d39f:	48 8d 85 a0 f5 ff ff 	lea    -0xa60(%rbp),%rax
    d3a6:	48 05 a8 03 00 00    	add    $0x3a8,%rax
    d3ac:	48 89 85 40 fb ff ff 	mov    %rax,-0x4c0(%rbp)
    d3b3:	48 8d 85 a0 f5 ff ff 	lea    -0xa60(%rbp),%rax
    d3ba:	48 05 a8 03 00 00    	add    $0x3a8,%rax
    d3c0:	48 89 85 48 fb ff ff 	mov    %rax,-0x4b8(%rbp)
    d3c7:	48 8d 85 a0 f5 ff ff 	lea    -0xa60(%rbp),%rax
    d3ce:	48 05 a8 03 00 00    	add    $0x3a8,%rax
    d3d4:	48 89 85 50 fb ff ff 	mov    %rax,-0x4b0(%rbp)
    d3db:	48 8d 85 a0 f5 ff ff 	lea    -0xa60(%rbp),%rax
    d3e2:	48 05 a8 03 00 00    	add    $0x3a8,%rax
    d3e8:	48 89 85 58 fb ff ff 	mov    %rax,-0x4a8(%rbp)
    d3ef:	48 c7 85 60 fb ff ff 	movq   $0x0,-0x4a0(%rbp)
    d3f6:	00 00 00 00 
    d3fa:	48 8d 85 a0 f5 ff ff 	lea    -0xa60(%rbp),%rax
    d401:	48 05 a8 03 00 00    	add    $0x3a8,%rax
    d407:	48 89 85 68 fb ff ff 	mov    %rax,-0x498(%rbp)
    d40e:	48 c7 85 70 fb ff ff 	movq   $0x0,-0x490(%rbp)
    d415:	00 00 00 00 
    d419:	48 c7 85 78 fb ff ff 	movq   $0x0,-0x488(%rbp)
    d420:	00 00 00 00 
    d424:	48 c7 85 80 fb ff ff 	movq   $0x0,-0x480(%rbp)
    d42b:	00 00 00 00 
    d42f:	48 8d 85 a0 f5 ff ff 	lea    -0xa60(%rbp),%rax
    d436:	48 05 a8 03 00 00    	add    $0x3a8,%rax
    d43c:	48 89 85 88 fb ff ff 	mov    %rax,-0x478(%rbp)
    d443:	48 c7 85 90 fb ff ff 	movq   $0x0,-0x470(%rbp)
    d44a:	00 00 00 00 
    d44e:	48 8d 85 a0 f5 ff ff 	lea    -0xa60(%rbp),%rax
    d455:	48 05 a8 03 00 00    	add    $0x3a8,%rax
    d45b:	48 89 85 98 fb ff ff 	mov    %rax,-0x468(%rbp)
    d462:	48 8d 85 a0 f5 ff ff 	lea    -0xa60(%rbp),%rax
    d469:	48 05 a8 03 00 00    	add    $0x3a8,%rax
    d46f:	48 89 85 a0 fb ff ff 	mov    %rax,-0x460(%rbp)
    d476:	48 8d 85 a0 f5 ff ff 	lea    -0xa60(%rbp),%rax
    d47d:	48 05 a8 03 00 00    	add    $0x3a8,%rax
    d483:	48 89 85 a8 fb ff ff 	mov    %rax,-0x458(%rbp)
    d48a:	48 8d 85 a0 f5 ff ff 	lea    -0xa60(%rbp),%rax
    d491:	48 05 a8 03 00 00    	add    $0x3a8,%rax
    d497:	48 89 85 b0 fb ff ff 	mov    %rax,-0x450(%rbp)
    d49e:	48 c7 85 b8 fb ff ff 	movq   $0x0,-0x448(%rbp)
    d4a5:	00 00 00 00 
    d4a9:	48 c7 85 c0 fb ff ff 	movq   $0x0,-0x440(%rbp)
    d4b0:	00 00 00 00 
    d4b4:	48 c7 85 c8 fb ff ff 	movq   $0x0,-0x438(%rbp)
    d4bb:	00 00 00 00 
    d4bf:	48 8d 85 a0 f5 ff ff 	lea    -0xa60(%rbp),%rax
    d4c6:	48 05 a8 03 00 00    	add    $0x3a8,%rax
    d4cc:	48 89 85 d0 fb ff ff 	mov    %rax,-0x430(%rbp)
    d4d3:	48 c7 85 d8 fb ff ff 	movq   $0x0,-0x428(%rbp)
    d4da:	00 00 00 00 
    d4de:	48 c7 85 e0 fb ff ff 	movq   $0x0,-0x420(%rbp)
    d4e5:	00 00 00 00 
    d4e9:	48 8d 85 a0 f5 ff ff 	lea    -0xa60(%rbp),%rax
    d4f0:	48 05 a8 03 00 00    	add    $0x3a8,%rax
    d4f6:	48 89 85 e8 fb ff ff 	mov    %rax,-0x418(%rbp)
    d4fd:	48 8d 85 a0 f5 ff ff 	lea    -0xa60(%rbp),%rax
    d504:	48 05 a8 03 00 00    	add    $0x3a8,%rax
    d50a:	48 89 85 f0 fb ff ff 	mov    %rax,-0x410(%rbp)
    d511:	48 8d 85 a0 f5 ff ff 	lea    -0xa60(%rbp),%rax
    d518:	48 05 a8 03 00 00    	add    $0x3a8,%rax
    d51e:	48 89 85 f8 fb ff ff 	mov    %rax,-0x408(%rbp)
    d525:	48 8d 85 a0 f5 ff ff 	lea    -0xa60(%rbp),%rax
    d52c:	48 05 a8 03 00 00    	add    $0x3a8,%rax
    d532:	48 89 85 00 fc ff ff 	mov    %rax,-0x400(%rbp)
    d539:	48 8d 85 a0 f5 ff ff 	lea    -0xa60(%rbp),%rax
    d540:	48 05 a8 03 00 00    	add    $0x3a8,%rax
    d546:	48 89 85 08 fc ff ff 	mov    %rax,-0x3f8(%rbp)
    d54d:	48 8d 85 a0 f5 ff ff 	lea    -0xa60(%rbp),%rax
    d554:	48 05 a8 03 00 00    	add    $0x3a8,%rax
    d55a:	48 89 85 10 fc ff ff 	mov    %rax,-0x3f0(%rbp)
    d561:	48 c7 85 18 fc ff ff 	movq   $0x0,-0x3e8(%rbp)
    d568:	00 00 00 00 
    d56c:	48 8d 85 a0 f5 ff ff 	lea    -0xa60(%rbp),%rax
    d573:	48 05 a8 03 00 00    	add    $0x3a8,%rax
    d579:	48 89 85 20 fc ff ff 	mov    %rax,-0x3e0(%rbp)
    d580:	48 8d 85 a0 f5 ff ff 	lea    -0xa60(%rbp),%rax
    d587:	48 05 a8 03 00 00    	add    $0x3a8,%rax
    d58d:	48 89 85 28 fc ff ff 	mov    %rax,-0x3d8(%rbp)
    d594:	48 8d 85 a0 f5 ff ff 	lea    -0xa60(%rbp),%rax
    d59b:	48 05 a8 03 00 00    	add    $0x3a8,%rax
    d5a1:	48 89 85 30 fc ff ff 	mov    %rax,-0x3d0(%rbp)
    d5a8:	48 8d 85 a0 f5 ff ff 	lea    -0xa60(%rbp),%rax
    d5af:	48 05 a8 03 00 00    	add    $0x3a8,%rax
    d5b5:	48 89 85 38 fc ff ff 	mov    %rax,-0x3c8(%rbp)
    d5bc:	48 8d 85 a0 f5 ff ff 	lea    -0xa60(%rbp),%rax
    d5c3:	48 05 a8 03 00 00    	add    $0x3a8,%rax
    d5c9:	48 89 85 40 fc ff ff 	mov    %rax,-0x3c0(%rbp)
    d5d0:	48 8d 85 a0 f5 ff ff 	lea    -0xa60(%rbp),%rax
    d5d7:	48 05 a8 03 00 00    	add    $0x3a8,%rax
    d5dd:	48 89 85 48 fc ff ff 	mov    %rax,-0x3b8(%rbp)
    d5e4:	48 c7 85 50 fc ff ff 	movq   $0x0,-0x3b0(%rbp)
    d5eb:	00 00 00 00 
    d5ef:	48 c7 85 58 fc ff ff 	movq   $0x0,-0x3a8(%rbp)
    d5f6:	00 00 00 00 
    d5fa:	48 8d 85 a0 f5 ff ff 	lea    -0xa60(%rbp),%rax
    d601:	48 05 a8 03 00 00    	add    $0x3a8,%rax
    d607:	48 89 85 60 fc ff ff 	mov    %rax,-0x3a0(%rbp)
    d60e:	48 c7 85 68 fc ff ff 	movq   $0x0,-0x398(%rbp)
    d615:	00 00 00 00 
    d619:	48 c7 85 70 fc ff ff 	movq   $0x0,-0x390(%rbp)
    d620:	00 00 00 00 
    d624:	48 c7 85 78 fc ff ff 	movq   $0x0,-0x388(%rbp)
    d62b:	00 00 00 00 
    d62f:	48 8d 85 a0 f5 ff ff 	lea    -0xa60(%rbp),%rax
    d636:	48 05 a8 03 00 00    	add    $0x3a8,%rax
    d63c:	48 89 85 80 fc ff ff 	mov    %rax,-0x380(%rbp)
    d643:	48 8d 85 a0 f5 ff ff 	lea    -0xa60(%rbp),%rax
    d64a:	48 05 a8 03 00 00    	add    $0x3a8,%rax
    d650:	48 89 85 88 fc ff ff 	mov    %rax,-0x378(%rbp)
    d657:	48 8d 85 a0 f5 ff ff 	lea    -0xa60(%rbp),%rax
    d65e:	48 05 a8 03 00 00    	add    $0x3a8,%rax
    d664:	48 89 85 90 fc ff ff 	mov    %rax,-0x370(%rbp)
    d66b:	48 8d 85 a0 f5 ff ff 	lea    -0xa60(%rbp),%rax
    d672:	48 05 a8 03 00 00    	add    $0x3a8,%rax
    d678:	48 89 85 98 fc ff ff 	mov    %rax,-0x368(%rbp)
    d67f:	48 c7 85 a0 fc ff ff 	movq   $0x0,-0x360(%rbp)
    d686:	00 00 00 00 
    d68a:	48 8d 85 a0 f5 ff ff 	lea    -0xa60(%rbp),%rax
    d691:	48 05 a8 03 00 00    	add    $0x3a8,%rax
    d697:	48 89 85 a8 fc ff ff 	mov    %rax,-0x358(%rbp)
    d69e:	48 c7 85 b0 fc ff ff 	movq   $0x0,-0x350(%rbp)
    d6a5:	00 00 00 00 
    d6a9:	48 c7 85 b8 fc ff ff 	movq   $0x0,-0x348(%rbp)
    d6b0:	00 00 00 00 
    d6b4:	48 c7 85 c0 fc ff ff 	movq   $0x0,-0x340(%rbp)
    d6bb:	00 00 00 00 
    d6bf:	48 8d 85 a0 f5 ff ff 	lea    -0xa60(%rbp),%rax
    d6c6:	48 05 a8 03 00 00    	add    $0x3a8,%rax
    d6cc:	48 89 85 c8 fc ff ff 	mov    %rax,-0x338(%rbp)
    d6d3:	48 c7 85 d0 fc ff ff 	movq   $0x0,-0x330(%rbp)
    d6da:	00 00 00 00 
    d6de:	48 8d 85 a0 f5 ff ff 	lea    -0xa60(%rbp),%rax
    d6e5:	48 05 a8 03 00 00    	add    $0x3a8,%rax
    d6eb:	48 89 85 d8 fc ff ff 	mov    %rax,-0x328(%rbp)
    d6f2:	48 8d 85 a0 f5 ff ff 	lea    -0xa60(%rbp),%rax
    d6f9:	48 05 a8 03 00 00    	add    $0x3a8,%rax
    d6ff:	48 89 85 e0 fc ff ff 	mov    %rax,-0x320(%rbp)
    d706:	48 8d 85 a0 f5 ff ff 	lea    -0xa60(%rbp),%rax
    d70d:	48 05 a8 03 00 00    	add    $0x3a8,%rax
    d713:	48 89 85 e8 fc ff ff 	mov    %rax,-0x318(%rbp)
    d71a:	48 8d 85 a0 f5 ff ff 	lea    -0xa60(%rbp),%rax
    d721:	48 05 a8 03 00 00    	add    $0x3a8,%rax
    d727:	48 89 85 f0 fc ff ff 	mov    %rax,-0x310(%rbp)
    d72e:	48 c7 85 f8 fc ff ff 	movq   $0x0,-0x308(%rbp)
    d735:	00 00 00 00 
    d739:	48 c7 85 00 fd ff ff 	movq   $0x0,-0x300(%rbp)
    d740:	00 00 00 00 
    d744:	48 c7 85 08 fd ff ff 	movq   $0x0,-0x2f8(%rbp)
    d74b:	00 00 00 00 
    d74f:	48 8d 85 a0 f5 ff ff 	lea    -0xa60(%rbp),%rax
    d756:	48 05 a8 03 00 00    	add    $0x3a8,%rax
    d75c:	48 89 85 10 fd ff ff 	mov    %rax,-0x2f0(%rbp)
    d763:	48 c7 85 18 fd ff ff 	movq   $0x0,-0x2e8(%rbp)
    d76a:	00 00 00 00 
    d76e:	48 c7 85 20 fd ff ff 	movq   $0x0,-0x2e0(%rbp)
    d775:	00 00 00 00 
    d779:	48 8d 85 a0 f5 ff ff 	lea    -0xa60(%rbp),%rax
    d780:	48 05 a8 03 00 00    	add    $0x3a8,%rax
    d786:	48 89 85 28 fd ff ff 	mov    %rax,-0x2d8(%rbp)
    d78d:	48 8d 85 a0 f5 ff ff 	lea    -0xa60(%rbp),%rax
    d794:	48 05 a8 03 00 00    	add    $0x3a8,%rax
    d79a:	48 89 85 30 fd ff ff 	mov    %rax,-0x2d0(%rbp)
    d7a1:	48 8d 85 a0 f5 ff ff 	lea    -0xa60(%rbp),%rax
    d7a8:	48 05 a8 03 00 00    	add    $0x3a8,%rax
    d7ae:	48 89 85 38 fd ff ff 	mov    %rax,-0x2c8(%rbp)
    d7b5:	48 8d 85 a0 f5 ff ff 	lea    -0xa60(%rbp),%rax
    d7bc:	48 05 a8 03 00 00    	add    $0x3a8,%rax
    d7c2:	48 89 85 40 fd ff ff 	mov    %rax,-0x2c0(%rbp)
    d7c9:	48 8d 85 a0 f5 ff ff 	lea    -0xa60(%rbp),%rax
    d7d0:	48 05 a8 03 00 00    	add    $0x3a8,%rax
    d7d6:	48 89 85 48 fd ff ff 	mov    %rax,-0x2b8(%rbp)
    d7dd:	48 8d 85 a0 f5 ff ff 	lea    -0xa60(%rbp),%rax
    d7e4:	48 05 a8 03 00 00    	add    $0x3a8,%rax
    d7ea:	48 89 85 50 fd ff ff 	mov    %rax,-0x2b0(%rbp)
    d7f1:	48 c7 85 58 fd ff ff 	movq   $0x0,-0x2a8(%rbp)
    d7f8:	00 00 00 00 
    d7fc:	48 8d 85 a0 f5 ff ff 	lea    -0xa60(%rbp),%rax
    d803:	48 05 a8 03 00 00    	add    $0x3a8,%rax
    d809:	48 89 85 60 fd ff ff 	mov    %rax,-0x2a0(%rbp)
    d810:	48 8d 85 a0 f5 ff ff 	lea    -0xa60(%rbp),%rax
    d817:	48 05 a8 03 00 00    	add    $0x3a8,%rax
    d81d:	48 89 85 68 fd ff ff 	mov    %rax,-0x298(%rbp)
    d824:	48 8d 85 a0 f5 ff ff 	lea    -0xa60(%rbp),%rax
    d82b:	48 05 a8 03 00 00    	add    $0x3a8,%rax
    d831:	48 89 85 70 fd ff ff 	mov    %rax,-0x290(%rbp)
    d838:	48 8d 85 a0 f5 ff ff 	lea    -0xa60(%rbp),%rax
    d83f:	48 05 a8 03 00 00    	add    $0x3a8,%rax
    d845:	48 89 85 78 fd ff ff 	mov    %rax,-0x288(%rbp)
    d84c:	48 8d 85 a0 f5 ff ff 	lea    -0xa60(%rbp),%rax
    d853:	48 05 a8 03 00 00    	add    $0x3a8,%rax
    d859:	48 89 85 80 fd ff ff 	mov    %rax,-0x280(%rbp)
    d860:	48 8d 85 a0 f5 ff ff 	lea    -0xa60(%rbp),%rax
    d867:	48 05 a8 03 00 00    	add    $0x3a8,%rax
    d86d:	48 89 85 88 fd ff ff 	mov    %rax,-0x278(%rbp)
    d874:	48 c7 85 90 fd ff ff 	movq   $0x0,-0x270(%rbp)
    d87b:	00 00 00 00 
    d87f:	48 c7 85 98 fd ff ff 	movq   $0x0,-0x268(%rbp)
    d886:	00 00 00 00 
    d88a:	48 8d 85 a0 f5 ff ff 	lea    -0xa60(%rbp),%rax
    d891:	48 05 a8 03 00 00    	add    $0x3a8,%rax
    d897:	48 89 85 a0 fd ff ff 	mov    %rax,-0x260(%rbp)
    d89e:	48 c7 85 a8 fd ff ff 	movq   $0x0,-0x258(%rbp)
    d8a5:	00 00 00 00 
    d8a9:	48 c7 85 b0 fd ff ff 	movq   $0x0,-0x250(%rbp)
    d8b0:	00 00 00 00 
    d8b4:	48 c7 85 b8 fd ff ff 	movq   $0x0,-0x248(%rbp)
    d8bb:	00 00 00 00 
    d8bf:	48 8d 85 a0 f5 ff ff 	lea    -0xa60(%rbp),%rax
    d8c6:	48 05 a8 03 00 00    	add    $0x3a8,%rax
    d8cc:	48 89 85 c0 fd ff ff 	mov    %rax,-0x240(%rbp)
    d8d3:	48 8d 85 a0 f5 ff ff 	lea    -0xa60(%rbp),%rax
    d8da:	48 05 a8 03 00 00    	add    $0x3a8,%rax
    d8e0:	48 89 85 c8 fd ff ff 	mov    %rax,-0x238(%rbp)
    d8e7:	48 8d 85 a0 f5 ff ff 	lea    -0xa60(%rbp),%rax
    d8ee:	48 05 a8 03 00 00    	add    $0x3a8,%rax
    d8f4:	48 89 85 d0 fd ff ff 	mov    %rax,-0x230(%rbp)
    d8fb:	48 8d 85 a0 f5 ff ff 	lea    -0xa60(%rbp),%rax
    d902:	48 05 a8 03 00 00    	add    $0x3a8,%rax
    d908:	48 89 85 d8 fd ff ff 	mov    %rax,-0x228(%rbp)
    d90f:	48 c7 85 e0 fd ff ff 	movq   $0x0,-0x220(%rbp)
    d916:	00 00 00 00 
    d91a:	48 8d 85 a0 f5 ff ff 	lea    -0xa60(%rbp),%rax
    d921:	48 05 a8 03 00 00    	add    $0x3a8,%rax
    d927:	48 89 85 e8 fd ff ff 	mov    %rax,-0x218(%rbp)
    d92e:	48 c7 85 f0 fd ff ff 	movq   $0x0,-0x210(%rbp)
    d935:	00 00 00 00 
    d939:	48 c7 85 f8 fd ff ff 	movq   $0x0,-0x208(%rbp)
    d940:	00 00 00 00 
    d944:	48 c7 85 00 fe ff ff 	movq   $0x0,-0x200(%rbp)
    d94b:	00 00 00 00 
    d94f:	48 8d 85 a0 f5 ff ff 	lea    -0xa60(%rbp),%rax
    d956:	48 05 a8 03 00 00    	add    $0x3a8,%rax
    d95c:	48 89 85 08 fe ff ff 	mov    %rax,-0x1f8(%rbp)
    d963:	48 c7 85 10 fe ff ff 	movq   $0x0,-0x1f0(%rbp)
    d96a:	00 00 00 00 
    d96e:	48 8d 85 a0 f5 ff ff 	lea    -0xa60(%rbp),%rax
    d975:	48 05 a8 03 00 00    	add    $0x3a8,%rax
    d97b:	48 89 85 18 fe ff ff 	mov    %rax,-0x1e8(%rbp)
    d982:	48 8d 85 a0 f5 ff ff 	lea    -0xa60(%rbp),%rax
    d989:	48 05 a8 03 00 00    	add    $0x3a8,%rax
    d98f:	48 89 85 20 fe ff ff 	mov    %rax,-0x1e0(%rbp)
    d996:	48 8d 85 a0 f5 ff ff 	lea    -0xa60(%rbp),%rax
    d99d:	48 05 a8 03 00 00    	add    $0x3a8,%rax
    d9a3:	48 89 85 28 fe ff ff 	mov    %rax,-0x1d8(%rbp)
    d9aa:	48 8d 85 a0 f5 ff ff 	lea    -0xa60(%rbp),%rax
    d9b1:	48 05 a8 03 00 00    	add    $0x3a8,%rax
    d9b7:	48 89 85 30 fe ff ff 	mov    %rax,-0x1d0(%rbp)
    d9be:	48 c7 85 38 fe ff ff 	movq   $0x0,-0x1c8(%rbp)
    d9c5:	00 00 00 00 
    d9c9:	48 c7 85 40 fe ff ff 	movq   $0x0,-0x1c0(%rbp)
    d9d0:	00 00 00 00 
    d9d4:	48 c7 85 48 fe ff ff 	movq   $0x0,-0x1b8(%rbp)
    d9db:	00 00 00 00 
    d9df:	48 8d 85 a0 f5 ff ff 	lea    -0xa60(%rbp),%rax
    d9e6:	48 05 a8 03 00 00    	add    $0x3a8,%rax
    d9ec:	48 89 85 50 fe ff ff 	mov    %rax,-0x1b0(%rbp)
    d9f3:	48 c7 85 58 fe ff ff 	movq   $0x0,-0x1a8(%rbp)
    d9fa:	00 00 00 00 
    d9fe:	48 c7 85 60 fe ff ff 	movq   $0x0,-0x1a0(%rbp)
    da05:	00 00 00 00 
    da09:	48 8d 85 a0 f5 ff ff 	lea    -0xa60(%rbp),%rax
    da10:	48 05 a8 03 00 00    	add    $0x3a8,%rax
    da16:	48 89 85 68 fe ff ff 	mov    %rax,-0x198(%rbp)
    da1d:	48 8d 85 a0 f5 ff ff 	lea    -0xa60(%rbp),%rax
    da24:	48 05 a8 03 00 00    	add    $0x3a8,%rax
    da2a:	48 89 85 70 fe ff ff 	mov    %rax,-0x190(%rbp)
    da31:	48 8d 85 a0 f5 ff ff 	lea    -0xa60(%rbp),%rax
    da38:	48 05 a8 03 00 00    	add    $0x3a8,%rax
    da3e:	48 89 85 78 fe ff ff 	mov    %rax,-0x188(%rbp)
    da45:	48 8d 85 a0 f5 ff ff 	lea    -0xa60(%rbp),%rax
    da4c:	48 05 a8 03 00 00    	add    $0x3a8,%rax
    da52:	48 89 85 80 fe ff ff 	mov    %rax,-0x180(%rbp)
    da59:	48 8d 85 a0 f5 ff ff 	lea    -0xa60(%rbp),%rax
    da60:	48 05 a8 03 00 00    	add    $0x3a8,%rax
    da66:	48 89 85 88 fe ff ff 	mov    %rax,-0x178(%rbp)
    da6d:	48 8d 85 a0 f5 ff ff 	lea    -0xa60(%rbp),%rax
    da74:	48 05 a8 03 00 00    	add    $0x3a8,%rax
    da7a:	48 89 85 90 fe ff ff 	mov    %rax,-0x170(%rbp)
    da81:	48 c7 85 98 fe ff ff 	movq   $0x0,-0x168(%rbp)
    da88:	00 00 00 00 
    da8c:	48 8d 85 a0 f5 ff ff 	lea    -0xa60(%rbp),%rax
    da93:	48 05 a8 03 00 00    	add    $0x3a8,%rax
    da99:	48 89 85 a0 fe ff ff 	mov    %rax,-0x160(%rbp)
    daa0:	48 8d 85 a0 f5 ff ff 	lea    -0xa60(%rbp),%rax
    daa7:	48 05 a8 03 00 00    	add    $0x3a8,%rax
    daad:	48 89 85 a8 fe ff ff 	mov    %rax,-0x158(%rbp)
    dab4:	48 8d 85 a0 f5 ff ff 	lea    -0xa60(%rbp),%rax
    dabb:	48 05 a8 03 00 00    	add    $0x3a8,%rax
    dac1:	48 89 85 b0 fe ff ff 	mov    %rax,-0x150(%rbp)
    dac8:	48 8d 85 a0 f5 ff ff 	lea    -0xa60(%rbp),%rax
    dacf:	48 05 a8 03 00 00    	add    $0x3a8,%rax
    dad5:	48 89 85 b8 fe ff ff 	mov    %rax,-0x148(%rbp)
    dadc:	48 8d 85 a0 f5 ff ff 	lea    -0xa60(%rbp),%rax
    dae3:	48 05 a8 03 00 00    	add    $0x3a8,%rax
    dae9:	48 89 85 c0 fe ff ff 	mov    %rax,-0x140(%rbp)
    daf0:	48 8d 85 a0 f5 ff ff 	lea    -0xa60(%rbp),%rax
    daf7:	48 05 a8 03 00 00    	add    $0x3a8,%rax
    dafd:	48 89 85 c8 fe ff ff 	mov    %rax,-0x138(%rbp)
    db04:	48 c7 85 d0 fe ff ff 	movq   $0x0,-0x130(%rbp)
    db0b:	00 00 00 00 
    db0f:	48 c7 85 d8 fe ff ff 	movq   $0x0,-0x128(%rbp)
    db16:	00 00 00 00 
    db1a:	48 8d 85 a0 f5 ff ff 	lea    -0xa60(%rbp),%rax
    db21:	48 05 a8 03 00 00    	add    $0x3a8,%rax
    db27:	48 89 85 e0 fe ff ff 	mov    %rax,-0x120(%rbp)
    db2e:	48 c7 85 e8 fe ff ff 	movq   $0x0,-0x118(%rbp)
    db35:	00 00 00 00 
    db39:	48 c7 85 f0 fe ff ff 	movq   $0x0,-0x110(%rbp)
    db40:	00 00 00 00 
    db44:	48 c7 85 f8 fe ff ff 	movq   $0x0,-0x108(%rbp)
    db4b:	00 00 00 00 
    db4f:	48 8d 85 a0 f5 ff ff 	lea    -0xa60(%rbp),%rax
    db56:	48 05 a8 03 00 00    	add    $0x3a8,%rax
    db5c:	48 89 85 00 ff ff ff 	mov    %rax,-0x100(%rbp)
    db63:	48 8d 85 a0 f5 ff ff 	lea    -0xa60(%rbp),%rax
    db6a:	48 05 a8 03 00 00    	add    $0x3a8,%rax
    db70:	48 89 85 08 ff ff ff 	mov    %rax,-0xf8(%rbp)
    db77:	48 8d 85 a0 f5 ff ff 	lea    -0xa60(%rbp),%rax
    db7e:	48 05 a8 03 00 00    	add    $0x3a8,%rax
    db84:	48 89 85 10 ff ff ff 	mov    %rax,-0xf0(%rbp)
    db8b:	48 8d 85 a0 f5 ff ff 	lea    -0xa60(%rbp),%rax
    db92:	48 05 a8 03 00 00    	add    $0x3a8,%rax
    db98:	48 89 85 18 ff ff ff 	mov    %rax,-0xe8(%rbp)
    db9f:	48 c7 85 20 ff ff ff 	movq   $0x0,-0xe0(%rbp)
    dba6:	00 00 00 00 
    dbaa:	48 8d 85 a0 f5 ff ff 	lea    -0xa60(%rbp),%rax
    dbb1:	48 05 a8 03 00 00    	add    $0x3a8,%rax
    dbb7:	48 89 85 28 ff ff ff 	mov    %rax,-0xd8(%rbp)
    dbbe:	48 c7 85 30 ff ff ff 	movq   $0x0,-0xd0(%rbp)
    dbc5:	00 00 00 00 
    dbc9:	48 c7 85 38 ff ff ff 	movq   $0x0,-0xc8(%rbp)
    dbd0:	00 00 00 00 
    dbd4:	48 c7 85 40 ff ff ff 	movq   $0x0,-0xc0(%rbp)
    dbdb:	00 00 00 00 
    dbdf:	48 8d 85 a0 f5 ff ff 	lea    -0xa60(%rbp),%rax
    dbe6:	48 05 a8 03 00 00    	add    $0x3a8,%rax
    dbec:	48 89 85 48 ff ff ff 	mov    %rax,-0xb8(%rbp)
    dbf3:	48 c7 85 50 ff ff ff 	movq   $0x0,-0xb0(%rbp)
    dbfa:	00 00 00 00 
    dbfe:	48 8d 85 a0 f5 ff ff 	lea    -0xa60(%rbp),%rax
    dc05:	48 05 a8 03 00 00    	add    $0x3a8,%rax
    dc0b:	48 89 85 58 ff ff ff 	mov    %rax,-0xa8(%rbp)
    dc12:	48 8d 85 a0 f5 ff ff 	lea    -0xa60(%rbp),%rax
    dc19:	48 05 a8 03 00 00    	add    $0x3a8,%rax
    dc1f:	48 89 85 60 ff ff ff 	mov    %rax,-0xa0(%rbp)
    dc26:	48 8d 85 a0 f5 ff ff 	lea    -0xa60(%rbp),%rax
    dc2d:	48 05 a8 03 00 00    	add    $0x3a8,%rax
    dc33:	48 89 85 68 ff ff ff 	mov    %rax,-0x98(%rbp)
    dc3a:	48 8d 85 a0 f5 ff ff 	lea    -0xa60(%rbp),%rax
    dc41:	48 05 a8 03 00 00    	add    $0x3a8,%rax
    dc47:	48 89 85 70 ff ff ff 	mov    %rax,-0x90(%rbp)
    dc4e:	48 c7 85 78 ff ff ff 	movq   $0x0,-0x88(%rbp)
    dc55:	00 00 00 00 
    dc59:	48 c7 45 80 00 00 00 	movq   $0x0,-0x80(%rbp)
    dc60:	00 
    dc61:	48 c7 45 88 00 00 00 	movq   $0x0,-0x78(%rbp)
    dc68:	00 
    dc69:	48 8d 85 a0 f5 ff ff 	lea    -0xa60(%rbp),%rax
    dc70:	48 05 a8 03 00 00    	add    $0x3a8,%rax
    dc76:	48 89 45 90          	mov    %rax,-0x70(%rbp)
    dc7a:	48 c7 45 98 00 00 00 	movq   $0x0,-0x68(%rbp)
    dc81:	00 
    dc82:	48 c7 45 a0 00 00 00 	movq   $0x0,-0x60(%rbp)
    dc89:	00 
    dc8a:	48 8d 85 a0 f5 ff ff 	lea    -0xa60(%rbp),%rax
    dc91:	48 05 a8 03 00 00    	add    $0x3a8,%rax
    dc97:	48 89 45 a8          	mov    %rax,-0x58(%rbp)
    dc9b:	48 8d 85 a0 f5 ff ff 	lea    -0xa60(%rbp),%rax
    dca2:	48 05 a8 03 00 00    	add    $0x3a8,%rax
    dca8:	48 89 45 b0          	mov    %rax,-0x50(%rbp)
    dcac:	48 8d 85 a0 f5 ff ff 	lea    -0xa60(%rbp),%rax
    dcb3:	48 05 a8 03 00 00    	add    $0x3a8,%rax
    dcb9:	48 89 45 b8          	mov    %rax,-0x48(%rbp)
    dcbd:	48 8d 85 a0 f5 ff ff 	lea    -0xa60(%rbp),%rax
    dcc4:	48 05 a8 03 00 00    	add    $0x3a8,%rax
    dcca:	48 89 45 c0          	mov    %rax,-0x40(%rbp)
    dcce:	48 8d 85 a0 f5 ff ff 	lea    -0xa60(%rbp),%rax
    dcd5:	48 05 a8 03 00 00    	add    $0x3a8,%rax
    dcdb:	48 89 45 c8          	mov    %rax,-0x38(%rbp)
    dcdf:	48 8d 85 a0 f5 ff ff 	lea    -0xa60(%rbp),%rax
    dce6:	48 05 a8 03 00 00    	add    $0x3a8,%rax
    dcec:	48 89 45 d0          	mov    %rax,-0x30(%rbp)
    dcf0:	48 c7 45 d8 00 00 00 	movq   $0x0,-0x28(%rbp)
    dcf7:	00 
    dcf8:	48 8d 85 a0 f5 ff ff 	lea    -0xa60(%rbp),%rax
    dcff:	48 05 a8 03 00 00    	add    $0x3a8,%rax
    dd05:	48 89 45 e0          	mov    %rax,-0x20(%rbp)
    dd09:	48 8d 85 a0 f5 ff ff 	lea    -0xa60(%rbp),%rax
    dd10:	48 05 a8 03 00 00    	add    $0x3a8,%rax
    dd16:	48 89 45 e8          	mov    %rax,-0x18(%rbp)
    dd1a:	48 8d 05 7b 53 01 00 	lea    0x1537b(%rip),%rax        # 2309c <g_78+0x1c>
    dd21:	48 89 85 e8 f3 ff ff 	mov    %rax,-0xc18(%rbp)
    dd28:	c7 85 90 f3 ff ff 00 	movl   $0x0,-0xc70(%rbp)
    dd2f:	00 00 00 
    dd32:	eb 1e                	jmp    dd52 <func_1+0x159d>
    dd34:	8b 85 90 f3 ff ff    	mov    -0xc70(%rbp),%eax
    dd3a:	48 98                	cltq   
    dd3c:	48 8d 15 e5 52 01 00 	lea    0x152e5(%rip),%rdx        # 23028 <g_7>
    dd43:	48 89 94 c5 f0 f3 ff 	mov    %rdx,-0xc10(%rbp,%rax,8)
    dd4a:	ff 
    dd4b:	83 85 90 f3 ff ff 01 	addl   $0x1,-0xc70(%rbp)
    dd52:	83 bd 90 f3 ff ff 02 	cmpl   $0x2,-0xc70(%rbp)
    dd59:	7e d9                	jle    dd34 <func_1+0x157f>
    dd5b:	c7 85 90 f3 ff ff 00 	movl   $0x0,-0xc70(%rbp)
    dd62:	00 00 00 
    dd65:	eb 1e                	jmp    dd85 <func_1+0x15d0>
    dd67:	8b 85 90 f3 ff ff    	mov    -0xc70(%rbp),%eax
    dd6d:	48 98                	cltq   
    dd6f:	48 8d 15 26 53 01 00 	lea    0x15326(%rip),%rdx        # 2309c <g_78+0x1c>
    dd76:	48 89 94 c5 30 f4 ff 	mov    %rdx,-0xbd0(%rbp,%rax,8)
    dd7d:	ff 
    dd7e:	83 85 90 f3 ff ff 01 	addl   $0x1,-0xc70(%rbp)
    dd85:	83 bd 90 f3 ff ff 05 	cmpl   $0x5,-0xc70(%rbp)
    dd8c:	7e d9                	jle    dd67 <func_1+0x15b2>
    dd8e:	48 8b 85 e8 f3 ff ff 	mov    -0xc18(%rbp),%rax
    dd95:	8b 00                	mov    (%rax),%eax
    dd97:	48 8b 4d f8          	mov    -0x8(%rbp),%rcx
    dd9b:	64 48 33 0c 25 28 00 	xor    %fs:0x28,%rcx
    dda2:	00 00 
    dda4:	74 05                	je     ddab <func_1+0x15f6>
    dda6:	e8 c5 d2 ff ff       	callq  b070 <__stack_chk_fail@plt>
    ddab:	c9                   	leaveq 
    ddac:	c3                   	retq   

000000000000ddad <func_3>:
    ddad:	f3 0f 1e fa          	endbr64 
    ddb1:	55                   	push   %rbp
    ddb2:	48 89 e5             	mov    %rsp,%rbp
    ddb5:	48 83 ec 60          	sub    $0x60,%rsp
    ddb9:	89 7d ac             	mov    %edi,-0x54(%rbp)
    ddbc:	64 48 8b 04 25 28 00 	mov    %fs:0x28,%rax
    ddc3:	00 00 
    ddc5:	48 89 45 f8          	mov    %rax,-0x8(%rbp)
    ddc9:	31 c0                	xor    %eax,%eax
    ddcb:	66 c7 45 be 00 00    	movw   $0x0,-0x42(%rbp)
    ddd1:	c7 05 4d 52 01 00 00 	movl   $0x0,0x1524d(%rip)        # 23028 <g_7>
    ddd8:	00 00 00 
    dddb:	eb 73                	jmp    de50 <func_3+0xa3>
    dddd:	48 8d 45 e0          	lea    -0x20(%rbp),%rax
    dde1:	48 89 45 c8          	mov    %rax,-0x38(%rbp)
    dde5:	48 c7 45 d0 00 00 00 	movq   $0x0,-0x30(%rbp)
    ddec:	00 
    dded:	48 8d 05 b0 58 01 00 	lea    0x158b0(%rip),%rax        # 236a4 <g_3247>
    ddf4:	48 89 45 d8          	mov    %rax,-0x28(%rbp)
    ddf8:	c7 45 c0 00 00 00 00 	movl   $0x0,-0x40(%rbp)
    ddff:	eb 31                	jmp    de32 <func_3+0x85>
    de01:	c7 45 c4 00 00 00 00 	movl   $0x0,-0x3c(%rbp)
    de08:	eb 1e                	jmp    de28 <func_3+0x7b>
    de0a:	8b 45 c4             	mov    -0x3c(%rbp),%eax
    de0d:	48 63 d0             	movslq %eax,%rdx
    de10:	8b 45 c0             	mov    -0x40(%rbp),%eax
    de13:	48 98                	cltq   
    de15:	48 01 d0             	add    %rdx,%rax
    de18:	48 8d 15 7d 52 01 00 	lea    0x1527d(%rip),%rdx        # 2309c <g_78+0x1c>
    de1f:	48 89 54 c5 e0       	mov    %rdx,-0x20(%rbp,%rax,8)
    de24:	83 45 c4 01          	addl   $0x1,-0x3c(%rbp)
    de28:	83 7d c4 00          	cmpl   $0x0,-0x3c(%rbp)
    de2c:	7e dc                	jle    de0a <func_3+0x5d>
    de2e:	83 45 c0 01          	addl   $0x1,-0x40(%rbp)
    de32:	83 7d c0 02          	cmpl   $0x2,-0x40(%rbp)
    de36:	7e c9                	jle    de01 <func_3+0x54>
    de38:	8b 05 ea 51 01 00    	mov    0x151ea(%rip),%eax        # 23028 <g_7>
    de3e:	be 04 00 00 00       	mov    $0x4,%esi
    de43:	89 c7                	mov    %eax,%edi
    de45:	e8 86 e0 ff ff       	callq  bed0 <safe_sub_func_uint32_t_u_u>
    de4a:	89 05 d8 51 01 00    	mov    %eax,0x151d8(%rip)        # 23028 <g_7>
    de50:	8b 05 d2 51 01 00    	mov    0x151d2(%rip),%eax        # 23028 <g_7>
    de56:	83 f8 f8             	cmp    $0xfffffff8,%eax
    de59:	7d 82                	jge    dddd <func_3+0x30>
    de5b:	8b 45 ac             	mov    -0x54(%rbp),%eax
    de5e:	48 8b 4d f8          	mov    -0x8(%rbp),%rcx
    de62:	64 48 33 0c 25 28 00 	xor    %fs:0x28,%rcx
    de69:	00 00 
    de6b:	74 05                	je     de72 <func_3+0xc5>
    de6d:	e8 fe d1 ff ff       	callq  b070 <__stack_chk_fail@plt>
    de72:	c9                   	leaveq 
    de73:	c3                   	retq   

000000000000de74 <func_11>:
    de74:	f3 0f 1e fa          	endbr64 
    de78:	55                   	push   %rbp
    de79:	48 89 e5             	mov    %rsp,%rbp
    de7c:	41 57                	push   %r15
    de7e:	41 56                	push   %r14
    de80:	41 55                	push   %r13
    de82:	41 54                	push   %r12
    de84:	53                   	push   %rbx
    de85:	48 81 ec 00 10 00 00 	sub    $0x1000,%rsp
    de8c:	48 83 0c 24 00       	orq    $0x0,(%rsp)
    de91:	48 81 ec 28 0c 00 00 	sub    $0xc28,%rsp
    de98:	89 f8                	mov    %edi,%eax
    de9a:	89 f1                	mov    %esi,%ecx
    de9c:	89 95 c4 e3 ff ff    	mov    %edx,-0x1c3c(%rbp)
    dea2:	66 89 85 cc e3 ff ff 	mov    %ax,-0x1c34(%rbp)
    dea9:	89 c8                	mov    %ecx,%eax
    deab:	88 85 c8 e3 ff ff    	mov    %al,-0x1c38(%rbp)
    deb1:	64 48 8b 04 25 28 00 	mov    %fs:0x28,%rax
    deb8:	00 00 
    deba:	48 89 45 c8          	mov    %rax,-0x38(%rbp)
    debe:	31 c0                	xor    %eax,%eax
    dec0:	48 8d 05 99 95 01 00 	lea    0x19599(%rip),%rax        # 27460 <g_246>
    dec7:	48 89 85 d8 e4 ff ff 	mov    %rax,-0x1b28(%rbp)
    dece:	48 8d 85 d8 e4 ff ff 	lea    -0x1b28(%rbp),%rax
    ded5:	48 89 85 68 e5 ff ff 	mov    %rax,-0x1a98(%rbp)
    dedc:	c7 85 e4 e3 ff ff 00 	movl   $0x0,-0x1c1c(%rbp)
    dee3:	00 00 00 
    dee6:	c7 85 e8 e3 ff ff 00 	movl   $0x0,-0x1c18(%rbp)
    deed:	00 00 00 
    def0:	c7 85 f4 e3 ff ff 09 	movl   $0x9,-0x1c0c(%rbp)
    def7:	00 00 00 
    defa:	48 8d 05 a3 57 01 00 	lea    0x157a3(%rip),%rax        # 236a4 <g_3247>
    df01:	48 89 85 70 e5 ff ff 	mov    %rax,-0x1a90(%rbp)
    df08:	48 8d 05 41 95 01 00 	lea    0x19541(%rip),%rax        # 27450 <g_208+0x10>
    df0f:	48 89 85 e0 e4 ff ff 	mov    %rax,-0x1b20(%rbp)
    df16:	66 c7 85 da e3 ff ff 	movw   $0x4,-0x1c26(%rbp)
    df1d:	04 00 
    df1f:	c7 85 40 e4 ff ff 50 	movl   $0x61418550,-0x1bc0(%rbp)
    df26:	85 41 61 
    df29:	c7 85 f8 e3 ff ff dd 	movl   $0x5869dfdd,-0x1c08(%rbp)
    df30:	df 69 58 
    df33:	c7 85 fc e3 ff ff 00 	movl   $0x0,-0x1c04(%rbp)
    df3a:	00 00 00 
    df3d:	c7 85 ec e3 ff ff f6 	movl   $0xfffffff6,-0x1c14(%rbp)
    df44:	ff ff ff 
    df47:	c7 85 f0 e3 ff ff 2e 	movl   $0xe5b4c72e,-0x1c10(%rbp)
    df4e:	c7 b4 e5 
    df51:	c7 85 96 e7 ff ff 9e 	movl   $0x9e9e9e9e,-0x186a(%rbp)
    df58:	9e 9e 9e 
    df5b:	c6 85 9a e7 ff ff 9e 	movb   $0x9e,-0x1866(%rbp)
    df62:	c7 85 9b e7 ff ff 01 	movl   $0x1010101,-0x1865(%rbp)
    df69:	01 01 01 
    df6c:	c6 85 9f e7 ff ff 01 	movb   $0x1,-0x1861(%rbp)
    df73:	48 8d 85 30 ec ff ff 	lea    -0x13d0(%rbp),%rax
    df7a:	48 8d 15 9f 5b 01 00 	lea    0x15b9f(%rip),%rdx        # 23b20 <g_4082+0x20>
    df81:	b9 46 00 00 00       	mov    $0x46,%ecx
    df86:	48 89 c7             	mov    %rax,%rdi
    df89:	48 89 d6             	mov    %rdx,%rsi
    df8c:	f3 48 a5             	rep movsq %ds:(%rsi),%es:(%rdi)
    df8f:	48 8d 05 2a 9a 01 00 	lea    0x19a2a(%rip),%rax        # 279c0 <g_2754>
    df96:	48 89 85 78 e5 ff ff 	mov    %rax,-0x1a88(%rbp)
    df9d:	48 8d 05 ac a4 01 00 	lea    0x1a4ac(%rip),%rax        # 28450 <g_2668>
    dfa4:	48 89 85 e8 e4 ff ff 	mov    %rax,-0x1b18(%rbp)
    dfab:	48 c7 85 f0 e4 ff ff 	movq   $0x0,-0x1b10(%rbp)
    dfb2:	00 00 00 00 
    dfb6:	48 b8 d1 b2 e4 1c 86 	movabs $0xe528f8861ce4b2d1,%rax
    dfbd:	f8 28 e5 
    dfc0:	48 89 85 80 e5 ff ff 	mov    %rax,-0x1a80(%rbp)
    dfc7:	48 8d 05 6a 56 01 00 	lea    0x1566a(%rip),%rax        # 23638 <g_1162>
    dfce:	48 89 85 88 e5 ff ff 	mov    %rax,-0x1a78(%rbp)
    dfd5:	c7 85 00 e4 ff ff 00 	movl   $0x0,-0x1c00(%rbp)
    dfdc:	00 00 00 
    dfdf:	eb 52                	jmp    e033 <func_11+0x1bf>
    dfe1:	c7 85 04 e4 ff ff 00 	movl   $0x0,-0x1bfc(%rbp)
    dfe8:	00 00 00 
    dfeb:	eb 36                	jmp    e023 <func_11+0x1af>
    dfed:	8b 85 04 e4 ff ff    	mov    -0x1bfc(%rbp),%eax
    dff3:	48 63 c8             	movslq %eax,%rcx
    dff6:	8b 85 00 e4 ff ff    	mov    -0x1c00(%rbp),%eax
    dffc:	48 63 d0             	movslq %eax,%rdx
    dfff:	48 89 d0             	mov    %rdx,%rax
    e002:	48 c1 e0 02          	shl    $0x2,%rax
    e006:	48 01 d0             	add    %rdx,%rax
    e009:	48 8d 14 08          	lea    (%rax,%rcx,1),%rdx
    e00d:	48 8d 85 f0 e3 ff ff 	lea    -0x1c10(%rbp),%rax
    e014:	48 89 84 d5 10 e8 ff 	mov    %rax,-0x17f0(%rbp,%rdx,8)
    e01b:	ff 
    e01c:	83 85 04 e4 ff ff 01 	addl   $0x1,-0x1bfc(%rbp)
    e023:	83 bd 04 e4 ff ff 04 	cmpl   $0x4,-0x1bfc(%rbp)
    e02a:	7e c1                	jle    dfed <func_11+0x179>
    e02c:	83 85 00 e4 ff ff 01 	addl   $0x1,-0x1c00(%rbp)
    e033:	83 bd 00 e4 ff ff 00 	cmpl   $0x0,-0x1c00(%rbp)
    e03a:	7e a5                	jle    dfe1 <func_11+0x16d>
    e03c:	48 c7 05 21 50 01 00 	movq   $0x0,0x15021(%rip)        # 23068 <g_63>
    e043:	00 00 00 00 
    e047:	e9 f4 36 00 00       	jmpq   11740 <func_11+0x38cc>
    e04c:	66 c7 85 20 e9 ff ff 	movw   $0xe200,-0x16e0(%rbp)
    e053:	00 e2 
    e055:	c6 85 22 e9 ff ff fe 	movb   $0xfe,-0x16de(%rbp)
    e05c:	66 c7 85 23 e9 ff ff 	movw   $0x207,-0x16dd(%rbp)
    e063:	07 02 
    e065:	c6 85 25 e9 ff ff 00 	movb   $0x0,-0x16db(%rbp)
    e06c:	66 c7 85 26 e9 ff ff 	movw   $0xd8,-0x16da(%rbp)
    e073:	d8 00 
    e075:	c6 85 28 e9 ff ff fe 	movb   $0xfe,-0x16d8(%rbp)
    e07c:	66 c7 85 29 e9 ff ff 	movw   $0xa8fe,-0x16d7(%rbp)
    e083:	fe a8 
    e085:	c6 85 2b e9 ff ff fe 	movb   $0xfe,-0x16d5(%rbp)
    e08c:	66 c7 85 2c e9 ff ff 	movw   $0xfead,-0x16d4(%rbp)
    e093:	ad fe 
    e095:	c6 85 2e e9 ff ff f5 	movb   $0xf5,-0x16d2(%rbp)
    e09c:	66 c7 85 2f e9 ff ff 	movw   $0xa807,-0x16d1(%rbp)
    e0a3:	07 a8 
    e0a5:	c6 85 31 e9 ff ff 08 	movb   $0x8,-0x16cf(%rbp)
    e0ac:	66 c7 85 32 e9 ff ff 	movw   $0xf7,-0x16ce(%rbp)
    e0b3:	f7 00 
    e0b5:	c6 85 34 e9 ff ff f2 	movb   $0xf2,-0x16cc(%rbp)
    e0bc:	66 c7 85 35 e9 ff ff 	movw   $0x205,-0x16cb(%rbp)
    e0c3:	05 02 
    e0c5:	c6 85 37 e9 ff ff fe 	movb   $0xfe,-0x16c9(%rbp)
    e0cc:	66 c7 85 38 e9 ff ff 	movw   $0xe2f7,-0x16c8(%rbp)
    e0d3:	f7 e2 
    e0d5:	c6 85 3a e9 ff ff e2 	movb   $0xe2,-0x16c6(%rbp)
    e0dc:	66 c7 85 3b e9 ff ff 	movw   $0x7207,-0x16c5(%rbp)
    e0e3:	07 72 
    e0e5:	c6 85 3d e9 ff ff 00 	movb   $0x0,-0x16c3(%rbp)
    e0ec:	66 c7 85 3e e9 ff ff 	movw   $0xad,-0x16c2(%rbp)
    e0f3:	ad 00 
    e0f5:	c6 85 40 e9 ff ff e2 	movb   $0xe2,-0x16c0(%rbp)
    e0fc:	66 c7 85 41 e9 ff ff 	movw   $0xfffe,-0x16bf(%rbp)
    e103:	fe ff 
    e105:	c6 85 43 e9 ff ff fe 	movb   $0xfe,-0x16bd(%rbp)
    e10c:	66 c7 85 44 e9 ff ff 	movw   $0xfed8,-0x16bc(%rbp)
    e113:	d8 fe 
    e115:	c6 85 46 e9 ff ff f2 	movb   $0xf2,-0x16ba(%rbp)
    e11c:	66 c7 85 47 e9 ff ff 	movw   $0xff07,-0x16b9(%rbp)
    e123:	07 ff 
    e125:	c6 85 49 e9 ff ff 08 	movb   $0x8,-0x16b7(%rbp)
    e12c:	66 c7 85 4a e9 ff ff 	movw   $0x0,-0x16b6(%rbp)
    e133:	00 00 
    e135:	c6 85 4c e9 ff ff f5 	movb   $0xf5,-0x16b4(%rbp)
    e13c:	66 c7 85 4d e9 ff ff 	movw   $0x7205,-0x16b3(%rbp)
    e143:	05 72 
    e145:	c6 85 4f e9 ff ff fe 	movb   $0xfe,-0x16b1(%rbp)
    e14c:	66 c7 85 50 e9 ff ff 	movw   $0xe200,-0x16b0(%rbp)
    e153:	00 e2 
    e155:	c6 85 52 e9 ff ff fe 	movb   $0xfe,-0x16ae(%rbp)
    e15c:	66 c7 85 53 e9 ff ff 	movw   $0x207,-0x16ad(%rbp)
    e163:	07 02 
    e165:	c6 85 55 e9 ff ff 00 	movb   $0x0,-0x16ab(%rbp)
    e16c:	66 c7 85 56 e9 ff ff 	movw   $0xd8,-0x16aa(%rbp)
    e173:	d8 00 
    e175:	c6 85 58 e9 ff ff fe 	movb   $0xfe,-0x16a8(%rbp)
    e17c:	66 c7 85 59 e9 ff ff 	movw   $0xa8fe,-0x16a7(%rbp)
    e183:	fe a8 
    e185:	c6 85 5b e9 ff ff fe 	movb   $0xfe,-0x16a5(%rbp)
    e18c:	66 c7 85 5c e9 ff ff 	movw   $0xfead,-0x16a4(%rbp)
    e193:	ad fe 
    e195:	c6 85 5e e9 ff ff f5 	movb   $0xf5,-0x16a2(%rbp)
    e19c:	66 c7 85 5f e9 ff ff 	movw   $0xa807,-0x16a1(%rbp)
    e1a3:	07 a8 
    e1a5:	c6 85 61 e9 ff ff 08 	movb   $0x8,-0x169f(%rbp)
    e1ac:	66 c7 85 62 e9 ff ff 	movw   $0xf7,-0x169e(%rbp)
    e1b3:	f7 00 
    e1b5:	c6 85 64 e9 ff ff f2 	movb   $0xf2,-0x169c(%rbp)
    e1bc:	66 c7 85 65 e9 ff ff 	movw   $0x205,-0x169b(%rbp)
    e1c3:	05 02 
    e1c5:	c6 85 67 e9 ff ff fe 	movb   $0xfe,-0x1699(%rbp)
    e1cc:	66 c7 85 68 e9 ff ff 	movw   $0xe2f7,-0x1698(%rbp)
    e1d3:	f7 e2 
    e1d5:	c6 85 6a e9 ff ff e2 	movb   $0xe2,-0x1696(%rbp)
    e1dc:	66 c7 85 6b e9 ff ff 	movw   $0x7207,-0x1695(%rbp)
    e1e3:	07 72 
    e1e5:	c6 85 6d e9 ff ff 00 	movb   $0x0,-0x1693(%rbp)
    e1ec:	66 c7 85 6e e9 ff ff 	movw   $0xad,-0x1692(%rbp)
    e1f3:	ad 00 
    e1f5:	c6 85 70 e9 ff ff e2 	movb   $0xe2,-0x1690(%rbp)
    e1fc:	66 c7 85 71 e9 ff ff 	movw   $0xfffe,-0x168f(%rbp)
    e203:	fe ff 
    e205:	c6 85 73 e9 ff ff fe 	movb   $0xfe,-0x168d(%rbp)
    e20c:	66 c7 85 74 e9 ff ff 	movw   $0xfed8,-0x168c(%rbp)
    e213:	d8 fe 
    e215:	c6 85 76 e9 ff ff f2 	movb   $0xf2,-0x168a(%rbp)
    e21c:	66 c7 85 77 e9 ff ff 	movw   $0xff07,-0x1689(%rbp)
    e223:	07 ff 
    e225:	c6 85 79 e9 ff ff 08 	movb   $0x8,-0x1687(%rbp)
    e22c:	66 c7 85 7a e9 ff ff 	movw   $0x0,-0x1686(%rbp)
    e233:	00 00 
    e235:	c6 85 7c e9 ff ff f5 	movb   $0xf5,-0x1684(%rbp)
    e23c:	66 c7 85 7d e9 ff ff 	movw   $0x7205,-0x1683(%rbp)
    e243:	05 72 
    e245:	c6 85 7f e9 ff ff fe 	movb   $0xfe,-0x1681(%rbp)
    e24c:	c6 85 d2 e3 ff ff 52 	movb   $0x52,-0x1c2e(%rbp)
    e253:	48 8d 05 96 a1 01 00 	lea    0x1a196(%rip),%rax        # 283f0 <g_1117>
    e25a:	48 89 85 90 e5 ff ff 	mov    %rax,-0x1a70(%rbp)
    e261:	c7 85 44 e4 ff ff a6 	movl   $0x6d1973a6,-0x1bbc(%rbp)
    e268:	73 19 6d 
    e26b:	c7 85 30 ea ff ff 9e 	movl   $0x18a83f9e,-0x15d0(%rbp)
    e272:	3f a8 18 
    e275:	c7 85 34 ea ff ff 00 	movl   $0x0,-0x15cc(%rbp)
    e27c:	00 00 00 
    e27f:	c7 85 38 ea ff ff d9 	movl   $0x73efebd9,-0x15c8(%rbp)
    e286:	eb ef 73 
    e289:	c7 85 3c ea ff ff ad 	movl   $0x52f53ead,-0x15c4(%rbp)
    e290:	3e f5 52 
    e293:	c7 85 40 ea ff ff f1 	movl   $0xf6723df1,-0x15c0(%rbp)
    e29a:	3d 72 f6 
    e29d:	c7 85 44 ea ff ff ad 	movl   $0x52f53ead,-0x15bc(%rbp)
    e2a4:	3e f5 52 
    e2a7:	c7 85 48 ea ff ff ea 	movl   $0x610e41ea,-0x15b8(%rbp)
    e2ae:	41 0e 61 
    e2b1:	c7 85 4c ea ff ff 70 	movl   $0xa50e670,-0x15b4(%rbp)
    e2b8:	e6 50 0a 
    e2bb:	c7 85 50 ea ff ff ea 	movl   $0x610e41ea,-0x15b0(%rbp)
    e2c2:	41 0e 61 
    e2c5:	c7 85 54 ea ff ff 08 	movl   $0x8,-0x15ac(%rbp)
    e2cc:	00 00 00 
    e2cf:	c7 85 58 ea ff ff ff 	movl   $0xffffffff,-0x15a8(%rbp)
    e2d6:	ff ff ff 
    e2d9:	c7 85 5c ea ff ff a7 	movl   $0x23c06aa7,-0x15a4(%rbp)
    e2e0:	6a c0 23 
    e2e3:	c7 85 60 ea ff ff ea 	movl   $0x610e41ea,-0x15a0(%rbp)
    e2ea:	41 0e 61 
    e2ed:	c7 85 64 ea ff ff 67 	movl   $0x283ffe67,-0x159c(%rbp)
    e2f4:	fe 3f 28 
    e2f7:	c7 85 68 ea ff ff fb 	movl   $0xfffffffb,-0x1598(%rbp)
    e2fe:	ff ff ff 
    e301:	c7 85 6c ea ff ff ad 	movl   $0x52f53ead,-0x1594(%rbp)
    e308:	3e f5 52 
    e30b:	c7 85 70 ea ff ff 67 	movl   $0x283ffe67,-0x1590(%rbp)
    e312:	fe 3f 28 
    e315:	c7 85 74 ea ff ff a5 	movl   $0x6b6e51a5,-0x158c(%rbp)
    e31c:	51 6e 6b 
    e31f:	c7 85 78 ea ff ff 9e 	movl   $0x18a83f9e,-0x1588(%rbp)
    e326:	3f a8 18 
    e329:	c7 85 7c ea ff ff f1 	movl   $0xf6723df1,-0x1584(%rbp)
    e330:	3d 72 f6 
    e333:	c7 85 80 ea ff ff 00 	movl   $0x0,-0x1580(%rbp)
    e33a:	00 00 00 
    e33d:	c7 85 84 ea ff ff ad 	movl   $0x52f53ead,-0x157c(%rbp)
    e344:	3e f5 52 
    e347:	c7 85 88 ea ff ff ea 	movl   $0x610e41ea,-0x1578(%rbp)
    e34e:	41 0e 61 
    e351:	c7 85 8c ea ff ff 03 	movl   $0x3,-0x1574(%rbp)
    e358:	00 00 00 
    e35b:	c7 85 90 ea ff ff f9 	movl   $0xe7e8d5f9,-0x1570(%rbp)
    e362:	d5 e8 e7 
    e365:	c7 85 94 ea ff ff 00 	movl   $0x0,-0x156c(%rbp)
    e36c:	00 00 00 
    e36f:	c7 85 98 ea ff ff d1 	movl   $0xee084bd1,-0x1568(%rbp)
    e376:	4b 08 ee 
    e379:	c7 85 9c ea ff ff 03 	movl   $0x3,-0x1564(%rbp)
    e380:	00 00 00 
    e383:	c7 85 a0 ea ff ff a7 	movl   $0x23c06aa7,-0x1560(%rbp)
    e38a:	6a c0 23 
    e38d:	c7 85 a4 ea ff ff ed 	movl   $0x59b213ed,-0x155c(%rbp)
    e394:	13 b2 59 
    e397:	c7 85 a8 ea ff ff f9 	movl   $0xe7e8d5f9,-0x1558(%rbp)
    e39e:	d5 e8 e7 
    e3a1:	c7 85 ac ea ff ff fb 	movl   $0xfffffffb,-0x1554(%rbp)
    e3a8:	ff ff ff 
    e3ab:	c7 85 b0 ea ff ff fb 	movl   $0xfffffffb,-0x1550(%rbp)
    e3b2:	ff ff ff 
    e3b5:	c7 85 b4 ea ff ff fb 	movl   $0xfffffffb,-0x154c(%rbp)
    e3bc:	ff ff ff 
    e3bf:	c7 85 b8 ea ff ff fb 	movl   $0xfffffffb,-0x1548(%rbp)
    e3c6:	ff ff ff 
    e3c9:	c7 85 bc ea ff ff f9 	movl   $0xe7e8d5f9,-0x1544(%rbp)
    e3d0:	d5 e8 e7 
    e3d3:	c7 85 c0 ea ff ff d1 	movl   $0xee084bd1,-0x1540(%rbp)
    e3da:	4b 08 ee 
    e3dd:	c7 85 c4 ea ff ff ea 	movl   $0x610e41ea,-0x153c(%rbp)
    e3e4:	41 0e 61 
    e3e7:	c7 85 c8 ea ff ff 01 	movl   $0x1,-0x1538(%rbp)
    e3ee:	00 00 00 
    e3f1:	c7 85 cc ea ff ff fb 	movl   $0xfffffffb,-0x1534(%rbp)
    e3f8:	ff ff ff 
    e3fb:	c7 85 d0 ea ff ff a5 	movl   $0x6b6e51a5,-0x1530(%rbp)
    e402:	51 6e 6b 
    e405:	c7 85 d4 ea ff ff 01 	movl   $0x1,-0x152c(%rbp)
    e40c:	00 00 00 
    e40f:	c7 85 d8 ea ff ff f9 	movl   $0xe7e8d5f9,-0x1528(%rbp)
    e416:	d5 e8 e7 
    e419:	c7 85 dc ea ff ff d9 	movl   $0x73efebd9,-0x1524(%rbp)
    e420:	eb ef 73 
    e423:	c7 85 e0 ea ff ff c9 	movl   $0x2a7447c9,-0x1520(%rbp)
    e42a:	47 74 2a 
    e42d:	c7 85 e4 ea ff ff 03 	movl   $0x3,-0x151c(%rbp)
    e434:	00 00 00 
    e437:	c7 85 e8 ea ff ff 00 	movl   $0x0,-0x1518(%rbp)
    e43e:	00 00 00 
    e441:	c7 85 ec ea ff ff f9 	movl   $0xfffffff9,-0x1514(%rbp)
    e448:	ff ff ff 
    e44b:	c7 85 f0 ea ff ff f9 	movl   $0xe7e8d5f9,-0x1510(%rbp)
    e452:	d5 e8 e7 
    e455:	c7 85 f4 ea ff ff 08 	movl   $0x8,-0x150c(%rbp)
    e45c:	00 00 00 
    e45f:	c7 85 f8 ea ff ff 03 	movl   $0x3,-0x1508(%rbp)
    e466:	00 00 00 
    e469:	c7 85 fc ea ff ff fb 	movl   $0xfffffffb,-0x1504(%rbp)
    e470:	ff ff ff 
    e473:	c7 85 00 eb ff ff 08 	movl   $0x8,-0x1500(%rbp)
    e47a:	00 00 00 
    e47d:	c7 85 04 eb ff ff d1 	movl   $0xee084bd1,-0x14fc(%rbp)
    e484:	4b 08 ee 
    e487:	48 8d 05 f2 4b 01 00 	lea    0x14bf2(%rip),%rax        # 23080 <g_78>
    e48e:	48 89 85 98 e5 ff ff 	mov    %rax,-0x1a68(%rbp)
    e495:	48 8d 85 60 ee ff ff 	lea    -0x11a0(%rbp),%rax
    e49c:	48 8d 15 bd 58 01 00 	lea    0x158bd(%rip),%rdx        # 23d60 <g_4082+0x260>
    e4a3:	b9 90 00 00 00       	mov    $0x90,%ecx
    e4a8:	48 89 c7             	mov    %rax,%rdi
    e4ab:	48 89 d6             	mov    %rdx,%rsi
    e4ae:	f3 48 a5             	rep movsq %ds:(%rsi),%es:(%rdi)
    e4b1:	48 c7 85 a0 e5 ff ff 	movq   $0x0,-0x1a60(%rbp)
    e4b8:	00 00 00 00 
    e4bc:	c7 85 48 e4 ff ff 7e 	movl   $0x6e349f7e,-0x1bb8(%rbp)
    e4c3:	9f 34 6e 
    e4c6:	c7 85 4c e4 ff ff f8 	movl   $0xfffffff8,-0x1bb4(%rbp)
    e4cd:	ff ff ff 
    e4d0:	48 8d 05 79 93 01 00 	lea    0x19379(%rip),%rax        # 27850 <g_416+0x190>
    e4d7:	48 89 85 a8 e5 ff ff 	mov    %rax,-0x1a58(%rbp)
    e4de:	48 8d 05 73 51 01 00 	lea    0x15173(%rip),%rax        # 23658 <g_1911>
    e4e5:	48 89 85 f8 e4 ff ff 	mov    %rax,-0x1b08(%rbp)
    e4ec:	48 8d 85 ec e3 ff ff 	lea    -0x1c14(%rbp),%rax
    e4f3:	48 89 85 a0 e8 ff ff 	mov    %rax,-0x1760(%rbp)
    e4fa:	48 8d 85 e8 e3 ff ff 	lea    -0x1c18(%rbp),%rax
    e501:	48 89 85 a8 e8 ff ff 	mov    %rax,-0x1758(%rbp)
    e508:	48 8d 85 ec e3 ff ff 	lea    -0x1c14(%rbp),%rax
    e50f:	48 89 85 b0 e8 ff ff 	mov    %rax,-0x1750(%rbp)
    e516:	48 8d 85 ec e3 ff ff 	lea    -0x1c14(%rbp),%rax
    e51d:	48 89 85 b8 e8 ff ff 	mov    %rax,-0x1748(%rbp)
    e524:	48 8d 85 e8 e3 ff ff 	lea    -0x1c18(%rbp),%rax
    e52b:	48 89 85 c0 e8 ff ff 	mov    %rax,-0x1740(%rbp)
    e532:	48 8d 85 ec e3 ff ff 	lea    -0x1c14(%rbp),%rax
    e539:	48 89 85 c8 e8 ff ff 	mov    %rax,-0x1738(%rbp)
    e540:	48 8d 85 ec e3 ff ff 	lea    -0x1c14(%rbp),%rax
    e547:	48 89 85 d0 e8 ff ff 	mov    %rax,-0x1730(%rbp)
    e54e:	48 8d 05 5f eb 00 00 	lea    0xeb5f(%rip),%rax        # 1d0b4 <g_3481+0x14>
    e555:	48 89 85 b0 e5 ff ff 	mov    %rax,-0x1a50(%rbp)
    e55c:	c7 85 50 e4 ff ff d3 	movl   $0x49be01d3,-0x1bb0(%rbp)
    e563:	01 be 49 
    e566:	48 8d 05 eb 93 01 00 	lea    0x193eb(%rip),%rax        # 27958 <g_2173>
    e56d:	48 89 85 b8 e5 ff ff 	mov    %rax,-0x1a48(%rbp)
    e574:	48 8d 05 6d 93 01 00 	lea    0x1936d(%rip),%rax        # 278e8 <g_845>
    e57b:	48 89 85 c0 e5 ff ff 	mov    %rax,-0x1a40(%rbp)
    e582:	48 c7 85 c8 e5 ff ff 	movq   $0x0,-0x1a38(%rbp)
    e589:	00 00 00 00 
    e58d:	48 8d 85 f8 e4 ff ff 	lea    -0x1b08(%rbp),%rax
    e594:	48 89 85 00 e5 ff ff 	mov    %rax,-0x1b00(%rbp)
    e59b:	48 8d 85 00 e5 ff ff 	lea    -0x1b00(%rbp),%rax
    e5a2:	48 89 85 08 e5 ff ff 	mov    %rax,-0x1af8(%rbp)
    e5a9:	48 8d 85 08 e5 ff ff 	lea    -0x1af8(%rbp),%rax
    e5b0:	48 89 85 d0 e5 ff ff 	mov    %rax,-0x1a30(%rbp)
    e5b7:	48 c7 85 e0 e8 ff ff 	movq   $0x1,-0x1720(%rbp)
    e5be:	01 00 00 00 
    e5c2:	48 c7 85 e8 e8 ff ff 	movq   $0x1,-0x1718(%rbp)
    e5c9:	01 00 00 00 
    e5cd:	48 c7 85 f0 e8 ff ff 	movq   $0x1,-0x1710(%rbp)
    e5d4:	01 00 00 00 
    e5d8:	48 c7 85 f8 e8 ff ff 	movq   $0x1,-0x1708(%rbp)
    e5df:	01 00 00 00 
    e5e3:	48 c7 85 00 e9 ff ff 	movq   $0x1,-0x1700(%rbp)
    e5ea:	01 00 00 00 
    e5ee:	48 c7 85 08 e9 ff ff 	movq   $0x1,-0x16f8(%rbp)
    e5f5:	01 00 00 00 
    e5f9:	48 c7 85 10 e9 ff ff 	movq   $0x1,-0x16f0(%rbp)
    e600:	01 00 00 00 
    e604:	48 c7 85 18 e9 ff ff 	movq   $0x1,-0x16e8(%rbp)
    e60b:	01 00 00 00 
    e60f:	c7 85 08 e4 ff ff 00 	movl   $0x0,-0x1bf8(%rbp)
    e616:	00 00 00 
    e619:	eb 1a                	jmp    e635 <func_11+0x7c1>
    e61b:	8b 85 08 e4 ff ff    	mov    -0x1bf8(%rbp),%eax
    e621:	48 98                	cltq   
    e623:	c7 84 85 a0 e7 ff ff 	movl   $0x1b8e7bb0,-0x1860(%rbp,%rax,4)
    e62a:	b0 7b 8e 1b 
    e62e:	83 85 08 e4 ff ff 01 	addl   $0x1,-0x1bf8(%rbp)
    e635:	83 bd 08 e4 ff ff 07 	cmpl   $0x7,-0x1bf8(%rbp)
    e63c:	7e dd                	jle    e61b <func_11+0x7a7>
    e63e:	48 83 bd 68 e5 ff ff 	cmpq   $0x0,-0x1a98(%rbp)
    e645:	00 
    e646:	74 79                	je     e6c1 <func_11+0x84d>
    e648:	48 0f be 9d d2 e3 ff 	movsbq -0x1c2e(%rbp),%rbx
    e64f:	ff 
    e650:	44 0f bf a5 cc e3 ff 	movswl -0x1c34(%rbp),%r12d
    e657:	ff 
    e658:	0f b6 85 7b e9 ff ff 	movzbl -0x1685(%rbp),%eax
    e65f:	0f b6 c0             	movzbl %al,%eax
    e662:	89 c6                	mov    %eax,%esi
    e664:	bf 00 00 00 00       	mov    $0x0,%edi
    e669:	e8 50 d6 ff ff       	callq  bcbe <safe_rshift_func_uint8_t_u_u>
    e66e:	0f b6 d0             	movzbl %al,%edx
    e671:	8b 85 c4 e3 ff ff    	mov    -0x1c3c(%rbp),%eax
    e677:	39 c2                	cmp    %eax,%edx
    e679:	7e 1e                	jle    e699 <func_11+0x825>
    e67b:	48 8b 05 3e 93 01 00 	mov    0x1933e(%rip),%rax        # 279c0 <g_2754>
    e682:	48 8b 00             	mov    (%rax),%rax
    e685:	48 8b 00             	mov    (%rax),%rax
    e688:	48 8b 00             	mov    (%rax),%rax
    e68b:	0f b6 00             	movzbl (%rax),%eax
    e68e:	84 c0                	test   %al,%al
    e690:	74 07                	je     e699 <func_11+0x825>
    e692:	b8 01 00 00 00       	mov    $0x1,%eax
    e697:	eb 05                	jmp    e69e <func_11+0x82a>
    e699:	b8 00 00 00 00       	mov    $0x0,%eax
    e69e:	44 39 e0             	cmp    %r12d,%eax
    e6a1:	0f 9d c0             	setge  %al
    e6a4:	0f b6 c0             	movzbl %al,%eax
    e6a7:	89 c6                	mov    %eax,%esi
    e6a9:	bf d1 ab 00 00       	mov    $0xabd1,%edi
    e6ae:	e8 95 d7 ff ff       	callq  be48 <safe_rshift_func_uint16_t_u_s>
    e6b3:	0f b7 c0             	movzwl %ax,%eax
    e6b6:	48 89 de             	mov    %rbx,%rsi
    e6b9:	48 89 c7             	mov    %rax,%rdi
    e6bc:	e8 ee d9 ff ff       	callq  c0af <safe_div_func_uint64_t_u_u>
    e6c1:	b8 01 00 00 00       	mov    $0x1,%eax
    e6c6:	89 c2                	mov    %eax,%edx
    e6c8:	0f b6 85 c8 e3 ff ff 	movzbl -0x1c38(%rbp),%eax
    e6cf:	31 c2                	xor    %eax,%edx
    e6d1:	48 8b 85 90 e5 ff ff 	mov    -0x1a70(%rbp),%rax
    e6d8:	66 89 10             	mov    %dx,(%rax)
    e6db:	48 8b 85 90 e5 ff ff 	mov    -0x1a70(%rbp),%rax
    e6e2:	0f b7 00             	movzwl (%rax),%eax
    e6e5:	98                   	cwtl   
    e6e6:	be 04 00 00 00       	mov    $0x4,%esi
    e6eb:	89 c7                	mov    %eax,%edi
    e6ed:	e8 a0 cd ff ff       	callq  b492 <safe_lshift_func_int16_t_s_s>
    e6f2:	8b 85 e4 e3 ff ff    	mov    -0x1c1c(%rbp),%eax
    e6f8:	3d 38 b1 89 38       	cmp    $0x3889b138,%eax
    e6fd:	0f 9e c0             	setle  %al
    e700:	0f b6 d0             	movzbl %al,%edx
    e703:	0f bf 85 cc e3 ff ff 	movswl -0x1c34(%rbp),%eax
    e70a:	09 d0                	or     %edx,%eax
    e70c:	85 c0                	test   %eax,%eax
    e70e:	0f 84 0d 0e 00 00    	je     f521 <func_11+0x16ad>
    e714:	c6 85 d4 e3 ff ff 09 	movb   $0x9,-0x1c2c(%rbp)
    e71b:	c7 85 5c e4 ff ff 01 	movl   $0x1,-0x1ba4(%rbp)
    e722:	00 00 00 
    e725:	c7 85 60 e4 ff ff 00 	movl   $0x0,-0x1ba0(%rbp)
    e72c:	00 00 00 
    e72f:	c7 85 e0 e7 ff ff 01 	movl   $0x1,-0x1820(%rbp)
    e736:	00 00 00 
    e739:	c7 85 e4 e7 ff ff b6 	movl   $0xbe94fab6,-0x181c(%rbp)
    e740:	fa 94 be 
    e743:	c7 85 e8 e7 ff ff 01 	movl   $0x1,-0x1818(%rbp)
    e74a:	00 00 00 
    e74d:	c7 85 ec e7 ff ff b6 	movl   $0xbe94fab6,-0x1814(%rbp)
    e754:	fa 94 be 
    e757:	c7 85 f0 e7 ff ff 01 	movl   $0x1,-0x1810(%rbp)
    e75e:	00 00 00 
    e761:	c7 85 f4 e7 ff ff b6 	movl   $0xbe94fab6,-0x180c(%rbp)
    e768:	fa 94 be 
    e76b:	c7 85 f8 e7 ff ff 01 	movl   $0x1,-0x1808(%rbp)
    e772:	00 00 00 
    e775:	c7 85 fc e7 ff ff b6 	movl   $0xbe94fab6,-0x1804(%rbp)
    e77c:	fa 94 be 
    e77f:	c7 85 00 e8 ff ff 01 	movl   $0x1,-0x1800(%rbp)
    e786:	00 00 00 
    e789:	48 b8 84 1e 52 db 3f 	movabs $0x8177303fdb521e84,%rax
    e790:	30 77 81 
    e793:	48 89 85 10 e5 ff ff 	mov    %rax,-0x1af0(%rbp)
    e79a:	48 c7 85 18 e5 ff ff 	movq   $0x0,-0x1ae8(%rbp)
    e7a1:	00 00 00 00 
    e7a5:	48 8d 85 18 e5 ff ff 	lea    -0x1ae8(%rbp),%rax
    e7ac:	48 89 85 80 e9 ff ff 	mov    %rax,-0x1680(%rbp)
    e7b3:	48 c7 85 88 e9 ff ff 	movq   $0x0,-0x1678(%rbp)
    e7ba:	00 00 00 00 
    e7be:	48 8d 85 18 e5 ff ff 	lea    -0x1ae8(%rbp),%rax
    e7c5:	48 89 85 90 e9 ff ff 	mov    %rax,-0x1670(%rbp)
    e7cc:	48 8d 85 18 e5 ff ff 	lea    -0x1ae8(%rbp),%rax
    e7d3:	48 89 85 98 e9 ff ff 	mov    %rax,-0x1668(%rbp)
    e7da:	48 c7 85 a0 e9 ff ff 	movq   $0x0,-0x1660(%rbp)
    e7e1:	00 00 00 00 
    e7e5:	48 8d 85 18 e5 ff ff 	lea    -0x1ae8(%rbp),%rax
    e7ec:	48 89 85 a8 e9 ff ff 	mov    %rax,-0x1658(%rbp)
    e7f3:	48 8d 85 18 e5 ff ff 	lea    -0x1ae8(%rbp),%rax
    e7fa:	48 89 85 b0 e9 ff ff 	mov    %rax,-0x1650(%rbp)
    e801:	48 8d 85 80 e9 ff ff 	lea    -0x1680(%rbp),%rax
    e808:	48 83 c0 18          	add    $0x18,%rax
    e80c:	48 89 85 20 e5 ff ff 	mov    %rax,-0x1ae0(%rbp)
    e813:	48 8d 85 20 e5 ff ff 	lea    -0x1ae0(%rbp),%rax
    e81a:	48 89 85 28 e5 ff ff 	mov    %rax,-0x1ad8(%rbp)
    e821:	48 8d 05 c8 4c 01 00 	lea    0x14cc8(%rip),%rax        # 234f0 <g_610>
    e828:	48 89 85 50 e6 ff ff 	mov    %rax,-0x19b0(%rbp)
    e82f:	c7 85 64 e4 ff ff 5f 	movl   $0x8f98495f,-0x1b9c(%rbp)
    e836:	49 98 8f 
    e839:	48 8d 05 10 9c 01 00 	lea    0x19c10(%rip),%rax        # 28450 <g_2668>
    e840:	48 89 85 58 e6 ff ff 	mov    %rax,-0x19a8(%rbp)
    e847:	48 8d 85 e0 e7 ff ff 	lea    -0x1820(%rbp),%rax
    e84e:	48 89 85 60 e6 ff ff 	mov    %rax,-0x19a0(%rbp)
    e855:	66 c7 85 cc e3 ff ff 	movw   $0xfff6,-0x1c34(%rbp)
    e85c:	f6 ff 
    e85e:	e9 fe 00 00 00       	jmpq   e961 <func_11+0xaed>
    e863:	48 c7 85 f0 e6 ff ff 	movq   $0x0,-0x1910(%rbp)
    e86a:	00 00 00 00 
    e86e:	c7 85 90 e4 ff ff f8 	movl   $0xfffffff8,-0x1b70(%rbp)
    e875:	ff ff ff 
    e878:	c6 05 24 48 01 00 07 	movb   $0x7,0x14824(%rip)        # 230a3 <g_159>
    e87f:	e9 b2 00 00 00       	jmpq   e936 <func_11+0xac2>
    e884:	48 8d 85 e4 e3 ff ff 	lea    -0x1c1c(%rbp),%rax
    e88b:	48 89 85 f8 e6 ff ff 	mov    %rax,-0x1908(%rbp)
    e892:	48 8d 05 f7 47 01 00 	lea    0x147f7(%rip),%rax        # 23090 <g_78+0x10>
    e899:	48 89 85 e0 f7 ff ff 	mov    %rax,-0x820(%rbp)
    e8a0:	48 8d 05 e9 47 01 00 	lea    0x147e9(%rip),%rax        # 23090 <g_78+0x10>
    e8a7:	48 89 85 e8 f7 ff ff 	mov    %rax,-0x818(%rbp)
    e8ae:	48 8d 05 db 47 01 00 	lea    0x147db(%rip),%rax        # 23090 <g_78+0x10>
    e8b5:	48 89 85 f0 f7 ff ff 	mov    %rax,-0x810(%rbp)
    e8bc:	48 8d 05 cd 47 01 00 	lea    0x147cd(%rip),%rax        # 23090 <g_78+0x10>
    e8c3:	48 89 85 f8 f7 ff ff 	mov    %rax,-0x808(%rbp)
    e8ca:	48 c7 05 93 9b 01 00 	movq   $0x3,0x19b93(%rip)        # 28468 <g_2816>
    e8d1:	03 00 00 00 
    e8d5:	90                   	nop
    e8d6:	48 8b 05 8b 9b 01 00 	mov    0x19b8b(%rip),%rax        # 28468 <g_2816>
    e8dd:	48 83 f8 08          	cmp    $0x8,%rax
    e8e1:	77 0c                	ja     e8ef <func_11+0xa7b>
    e8e3:	48 8b 85 f0 e6 ff ff 	mov    -0x1910(%rbp),%rax
    e8ea:	e9 75 2e 00 00       	jmpq   11764 <func_11+0x38f0>
    e8ef:	48 8b 85 10 e5 ff ff 	mov    -0x1af0(%rbp),%rax
    e8f6:	48 83 c0 01          	add    $0x1,%rax
    e8fa:	48 89 85 10 e5 ff ff 	mov    %rax,-0x1af0(%rbp)
    e901:	48 8b 05 d8 90 01 00 	mov    0x190d8(%rip),%rax        # 279e0 <g_3287>
    e908:	48 8b 95 28 e5 ff ff 	mov    -0x1ad8(%rbp),%rdx
    e90f:	48 89 10             	mov    %rdx,(%rax)
    e912:	48 8b 05 3f 8b 01 00 	mov    0x18b3f(%rip),%rax        # 27458 <g_207>
    e919:	48 8b 00             	mov    (%rax),%rax
    e91c:	48 8d 95 c4 e3 ff ff 	lea    -0x1c3c(%rbp),%rdx
    e923:	48 89 10             	mov    %rdx,(%rax)
    e926:	0f b6 05 76 47 01 00 	movzbl 0x14776(%rip),%eax        # 230a3 <g_159>
    e92d:	83 e8 01             	sub    $0x1,%eax
    e930:	88 05 6d 47 01 00    	mov    %al,0x1476d(%rip)        # 230a3 <g_159>
    e936:	0f b6 05 66 47 01 00 	movzbl 0x14766(%rip),%eax        # 230a3 <g_159>
    e93d:	3c fd                	cmp    $0xfd,%al
    e93f:	0f 84 3f ff ff ff    	je     e884 <func_11+0xa10>
    e945:	48 0f bf 85 cc e3 ff 	movswq -0x1c34(%rbp),%rax
    e94c:	ff 
    e94d:	be 03 00 00 00       	mov    $0x3,%esi
    e952:	48 89 c7             	mov    %rax,%rdi
    e955:	e8 d4 d6 ff ff       	callq  c02e <safe_add_func_uint64_t_u_u>
    e95a:	66 89 85 cc e3 ff ff 	mov    %ax,-0x1c34(%rbp)
    e961:	66 83 bd cc e3 ff ff 	cmpw   $0x1c,-0x1c34(%rbp)
    e968:	1c 
    e969:	0f 8f f4 fe ff ff    	jg     e863 <func_11+0x9ef>
    e96f:	48 8b 85 10 e5 ff ff 	mov    -0x1af0(%rbp),%rax
    e976:	48 85 c0             	test   %rax,%rax
    e979:	0f 84 dc 0a 00 00    	je     f45b <func_11+0x15e7>
    e97f:	48 c7 85 40 e8 ff ff 	movq   $0x0,-0x17c0(%rbp)
    e986:	00 00 00 00 
    e98a:	48 c7 85 48 e8 ff ff 	movq   $0x0,-0x17b8(%rbp)
    e991:	00 00 00 00 
    e995:	48 c7 85 50 e8 ff ff 	movq   $0x0,-0x17b0(%rbp)
    e99c:	00 00 00 00 
    e9a0:	48 8d 05 a1 4c 01 00 	lea    0x14ca1(%rip),%rax        # 23648 <g_1499>
    e9a7:	48 89 85 58 e8 ff ff 	mov    %rax,-0x17a8(%rbp)
    e9ae:	48 8d 05 93 4c 01 00 	lea    0x14c93(%rip),%rax        # 23648 <g_1499>
    e9b5:	48 89 85 60 e8 ff ff 	mov    %rax,-0x17a0(%rbp)
    e9bc:	48 8d 05 85 4c 01 00 	lea    0x14c85(%rip),%rax        # 23648 <g_1499>
    e9c3:	48 89 85 68 e8 ff ff 	mov    %rax,-0x1798(%rbp)
    e9ca:	48 8d 85 40 e8 ff ff 	lea    -0x17c0(%rbp),%rax
    e9d1:	48 83 c0 28          	add    $0x28,%rax
    e9d5:	48 89 85 70 e6 ff ff 	mov    %rax,-0x1990(%rbp)
    e9dc:	c7 85 6c e4 ff ff ff 	movl   $0xffffffff,-0x1b94(%rbp)
    e9e3:	ff ff ff 
    e9e6:	48 8d 05 a3 e6 00 00 	lea    0xe6a3(%rip),%rax        # 1d090 <g_2072+0x10>
    e9ed:	48 89 85 78 e6 ff ff 	mov    %rax,-0x1988(%rbp)
    e9f4:	48 8d 05 4d 8f 01 00 	lea    0x18f4d(%rip),%rax        # 27948 <g_1770>
    e9fb:	48 89 85 30 e5 ff ff 	mov    %rax,-0x1ad0(%rbp)
    ea02:	48 8d 05 c7 8f 01 00 	lea    0x18fc7(%rip),%rax        # 279d0 <g_2759>
    ea09:	48 89 85 10 eb ff ff 	mov    %rax,-0x14f0(%rbp)
    ea10:	48 c7 85 18 eb ff ff 	movq   $0x0,-0x14e8(%rbp)
    ea17:	00 00 00 00 
    ea1b:	48 8d 05 ae 8f 01 00 	lea    0x18fae(%rip),%rax        # 279d0 <g_2759>
    ea22:	48 89 85 20 eb ff ff 	mov    %rax,-0x14e0(%rbp)
    ea29:	48 c7 85 28 eb ff ff 	movq   $0x0,-0x14d8(%rbp)
    ea30:	00 00 00 00 
    ea34:	48 8d 05 95 8f 01 00 	lea    0x18f95(%rip),%rax        # 279d0 <g_2759>
    ea3b:	48 89 85 30 eb ff ff 	mov    %rax,-0x14d0(%rbp)
    ea42:	48 c7 85 38 eb ff ff 	movq   $0x0,-0x14c8(%rbp)
    ea49:	00 00 00 00 
    ea4d:	48 8d 05 7c 8f 01 00 	lea    0x18f7c(%rip),%rax        # 279d0 <g_2759>
    ea54:	48 89 85 40 eb ff ff 	mov    %rax,-0x14c0(%rbp)
    ea5b:	48 c7 85 48 eb ff ff 	movq   $0x0,-0x14b8(%rbp)
    ea62:	00 00 00 00 
    ea66:	48 8d 85 c0 e7 ff ff 	lea    -0x1840(%rbp),%rax
    ea6d:	48 83 c0 08          	add    $0x8,%rax
    ea71:	48 89 85 80 e6 ff ff 	mov    %rax,-0x1980(%rbp)
    ea78:	66 c7 85 dc e3 ff ff 	movw   $0xfffb,-0x1c24(%rbp)
    ea7f:	fb ff 
    ea81:	c7 85 0c e4 ff ff 00 	movl   $0x0,-0x1bf4(%rbp)
    ea88:	00 00 00 
    ea8b:	eb 1e                	jmp    eaab <func_11+0xc37>
    ea8d:	8b 85 0c e4 ff ff    	mov    -0x1bf4(%rbp),%eax
    ea93:	48 98                	cltq   
    ea95:	48 8d 15 94 89 01 00 	lea    0x18994(%rip),%rdx        # 27430 <g_209>
    ea9c:	48 89 94 c5 c0 e7 ff 	mov    %rdx,-0x1840(%rbp,%rax,8)
    eaa3:	ff 
    eaa4:	83 85 0c e4 ff ff 01 	addl   $0x1,-0x1bf4(%rbp)
    eaab:	83 bd 0c e4 ff ff 03 	cmpl   $0x3,-0x1bf4(%rbp)
    eab2:	7e d9                	jle    ea8d <func_11+0xc19>
    eab4:	48 8d 15 65 99 01 00 	lea    0x19965(%rip),%rdx        # 28420 <g_2320>
    eabb:	48 8b 85 70 e6 ff ff 	mov    -0x1990(%rbp),%rax
    eac2:	48 89 02             	mov    %rax,(%rdx)
    eac5:	48 0f bf 85 cc e3 ff 	movswq -0x1c34(%rbp),%rax
    eacc:	ff 
    eacd:	48 be 3a a3 df c3 81 	movabs $0x62e32f81c3dfa33a,%rsi
    ead4:	2f e3 62 
    ead7:	48 89 c7             	mov    %rax,%rdi
    eada:	e8 c9 cd ff ff       	callq  b8a8 <safe_sub_func_int64_t_s_s>
    eadf:	0f b6 c0             	movzbl %al,%eax
    eae2:	be 07 00 00 00       	mov    $0x7,%esi
    eae7:	89 c7                	mov    %eax,%edi
    eae9:	e8 9f d1 ff ff       	callq  bc8d <safe_rshift_func_uint8_t_u_s>
    eaee:	0f bf 95 cc e3 ff ff 	movswl -0x1c34(%rbp),%edx
    eaf5:	0f bf 85 cc e3 ff ff 	movswl -0x1c34(%rbp),%eax
    eafc:	89 d6                	mov    %edx,%esi
    eafe:	89 c7                	mov    %eax,%edi
    eb00:	e8 f0 c8 ff ff       	callq  b3f5 <safe_mul_func_int16_t_s_s>
    eb05:	83 bd 6c e4 ff ff 01 	cmpl   $0x1,-0x1b94(%rbp)
    eb0c:	0f 8f 87 07 00 00    	jg     f299 <func_11+0x1425>
    eb12:	66 c7 85 de e3 ff ff 	movw   $0x25b0,-0x1c22(%rbp)
    eb19:	b0 25 
    eb1b:	48 8d 05 d6 98 01 00 	lea    0x198d6(%rip),%rax        # 283f8 <g_1233>
    eb22:	48 89 85 38 e5 ff ff 	mov    %rax,-0x1ac8(%rbp)
    eb29:	48 8d 85 38 e5 ff ff 	lea    -0x1ac8(%rbp),%rax
    eb30:	48 89 85 40 e5 ff ff 	mov    %rax,-0x1ac0(%rbp)
    eb37:	48 c7 85 98 e6 ff ff 	movq   $0x0,-0x1968(%rbp)
    eb3e:	00 00 00 00 
    eb42:	c7 85 84 e4 ff ff fc 	movl   $0xfffffffc,-0x1b7c(%rbp)
    eb49:	ff ff ff 
    eb4c:	48 c7 85 48 e5 ff ff 	movq   $0x0,-0x1ab8(%rbp)
    eb53:	00 00 00 00 
    eb57:	48 8d 85 48 e5 ff ff 	lea    -0x1ab8(%rbp),%rax
    eb5e:	48 89 85 50 e5 ff ff 	mov    %rax,-0x1ab0(%rbp)
    eb65:	48 8d 85 50 e5 ff ff 	lea    -0x1ab0(%rbp),%rax
    eb6c:	48 89 85 58 e5 ff ff 	mov    %rax,-0x1aa8(%rbp)
    eb73:	48 8d 85 58 e5 ff ff 	lea    -0x1aa8(%rbp),%rax
    eb7a:	48 89 85 a0 e6 ff ff 	mov    %rax,-0x1960(%rbp)
    eb81:	c7 85 10 e4 ff ff 00 	movl   $0x0,-0x1bf0(%rbp)
    eb88:	00 00 00 
    eb8b:	eb 1e                	jmp    ebab <func_11+0xd37>
    eb8d:	8b 85 10 e4 ff ff    	mov    -0x1bf0(%rbp),%eax
    eb93:	48 98                	cltq   
    eb95:	48 8d 15 5c 49 01 00 	lea    0x1495c(%rip),%rdx        # 234f8 <g_626+0x5>
    eb9c:	48 89 94 c5 e0 f7 ff 	mov    %rdx,-0x820(%rbp,%rax,8)
    eba3:	ff 
    eba4:	83 85 10 e4 ff ff 01 	addl   $0x1,-0x1bf0(%rbp)
    ebab:	83 bd 10 e4 ff ff 09 	cmpl   $0x9,-0x1bf0(%rbp)
    ebb2:	7e d9                	jle    eb8d <func_11+0xd19>
    ebb4:	48 8b 05 0d 8d 01 00 	mov    0x18d0d(%rip),%rax        # 278c8 <g_656>
    ebbb:	c7 00 01 00 00 00    	movl   $0x1,(%rax)
    ebc1:	66 0f be 85 d2 e3 ff 	movsbw -0x1c2e(%rbp),%ax
    ebc8:	ff 
    ebc9:	0f b7 d8             	movzwl %ax,%ebx
    ebcc:	0f bf 95 de e3 ff ff 	movswl -0x1c22(%rbp),%edx
    ebd3:	8b 85 c4 e3 ff ff    	mov    -0x1c3c(%rbp),%eax
    ebd9:	09 c2                	or     %eax,%edx
    ebdb:	41 89 d4             	mov    %edx,%r12d
    ebde:	48 8b 05 4b 8d 01 00 	mov    0x18d4b(%rip),%rax        # 27930 <g_1546>
    ebe5:	48 8b 00             	mov    (%rax),%rax
    ebe8:	0f bf 85 de e3 ff ff 	movswl -0x1c22(%rbp),%eax
    ebef:	be 70 29 02 37       	mov    $0x37022970,%esi
    ebf4:	89 c7                	mov    %eax,%edi
    ebf6:	e8 bd d2 ff ff       	callq  beb8 <safe_add_func_uint32_t_u_u>
    ebfb:	41 89 c5             	mov    %eax,%r13d
    ebfe:	0f bf 85 de e3 ff ff 	movswl -0x1c22(%rbp),%eax
    ec05:	89 c6                	mov    %eax,%esi
    ec07:	bf 01 00 00 00       	mov    $0x1,%edi
    ec0c:	e8 a2 c7 ff ff       	callq  b3b3 <safe_add_func_int16_t_s_s>
    ec11:	48 0f bf c0          	movswq %ax,%rax
    ec15:	4c 89 ee             	mov    %r13,%rsi
    ec18:	48 89 c7             	mov    %rax,%rdi
    ec1b:	e8 8f d4 ff ff       	callq  c0af <safe_div_func_uint64_t_u_u>
    ec20:	8b 95 7c ea ff ff    	mov    -0x1584(%rbp),%edx
    ec26:	48 63 d2             	movslq %edx,%rdx
    ec29:	48 39 d0             	cmp    %rdx,%rax
    ec2c:	0f 92 c0             	setb   %al
    ec2f:	0f b6 d0             	movzbl %al,%edx
    ec32:	48 8b 05 6f 8c 01 00 	mov    0x18c6f(%rip),%rax        # 278a8 <g_431>
    ec39:	0f b6 00             	movzbl (%rax),%eax
    ec3c:	0f b6 c0             	movzbl %al,%eax
    ec3f:	39 c2                	cmp    %eax,%edx
    ec41:	0f 9e c0             	setle  %al
    ec44:	0f b6 d0             	movzbl %al,%edx
    ec47:	0f bf 85 de e3 ff ff 	movswl -0x1c22(%rbp),%eax
    ec4e:	39 c2                	cmp    %eax,%edx
    ec50:	0f 9f c0             	setg   %al
    ec53:	0f b6 c0             	movzbl %al,%eax
    ec56:	41 39 c4             	cmp    %eax,%r12d
    ec59:	0f 94 c0             	sete   %al
    ec5c:	0f b6 c0             	movzbl %al,%eax
    ec5f:	89 de                	mov    %ebx,%esi
    ec61:	89 c7                	mov    %eax,%edi
    ec63:	e8 26 d1 ff ff       	callq  bd8e <safe_div_func_uint16_t_u_u>
    ec68:	ba 00 00 00 00       	mov    $0x0,%edx
    ec6d:	8b 85 c4 e3 ff ff    	mov    -0x1c3c(%rbp),%eax
    ec73:	39 c2                	cmp    %eax,%edx
    ec75:	0f 95 c0             	setne  %al
    ec78:	0f b6 c0             	movzbl %al,%eax
    ec7b:	be 02 00 00 00       	mov    $0x2,%esi
    ec80:	89 c7                	mov    %eax,%edi
    ec82:	e8 06 d0 ff ff       	callq  bc8d <safe_rshift_func_uint8_t_u_s>
    ec87:	84 c0                	test   %al,%al
    ec89:	74 34                	je     ecbf <func_11+0xe4b>
    ec8b:	0f b6 85 c8 e3 ff ff 	movzbl -0x1c38(%rbp),%eax
    ec92:	0f be c0             	movsbl %al,%eax
    ec95:	89 c6                	mov    %eax,%esi
    ec97:	bf 45 00 00 00       	mov    $0x45,%edi
    ec9c:	e8 71 c5 ff ff       	callq  b212 <safe_mul_func_int8_t_s_s>
    eca1:	89 c2                	mov    %eax,%edx
    eca3:	48 8b 05 1e 8c 01 00 	mov    0x18c1e(%rip),%rax        # 278c8 <g_656>
    ecaa:	8b 08                	mov    (%rax),%ecx
    ecac:	0f be d2             	movsbl %dl,%edx
    ecaf:	31 ca                	xor    %ecx,%edx
    ecb1:	89 10                	mov    %edx,(%rax)
    ecb3:	48 8b 85 98 e5 ff ff 	mov    -0x1a68(%rbp),%rax
    ecba:	e9 a5 2a 00 00       	jmpq   11764 <func_11+0x38f0>
    ecbf:	48 8d 05 2a 48 01 00 	lea    0x1482a(%rip),%rax        # 234f0 <g_610>
    ecc6:	48 89 85 a8 e6 ff ff 	mov    %rax,-0x1958(%rbp)
    eccd:	48 8d 85 30 e5 ff ff 	lea    -0x1ad0(%rbp),%rax
    ecd4:	48 89 85 b0 e6 ff ff 	mov    %rax,-0x1950(%rbp)
    ecdb:	48 8d 05 de 8c 01 00 	lea    0x18cde(%rip),%rax        # 279c0 <g_2754>
    ece2:	48 89 85 e0 f2 ff ff 	mov    %rax,-0xd20(%rbp)
    ece9:	48 8d 05 d0 8c 01 00 	lea    0x18cd0(%rip),%rax        # 279c0 <g_2754>
    ecf0:	48 89 85 e8 f2 ff ff 	mov    %rax,-0xd18(%rbp)
    ecf7:	48 8d 05 ca 8c 01 00 	lea    0x18cca(%rip),%rax        # 279c8 <g_2756>
    ecfe:	48 89 85 f0 f2 ff ff 	mov    %rax,-0xd10(%rbp)
    ed05:	48 8d 05 b4 8c 01 00 	lea    0x18cb4(%rip),%rax        # 279c0 <g_2754>
    ed0c:	48 89 85 f8 f2 ff ff 	mov    %rax,-0xd08(%rbp)
    ed13:	48 8d 05 a6 8c 01 00 	lea    0x18ca6(%rip),%rax        # 279c0 <g_2754>
    ed1a:	48 89 85 00 f3 ff ff 	mov    %rax,-0xd00(%rbp)
    ed21:	48 8d 05 a0 8c 01 00 	lea    0x18ca0(%rip),%rax        # 279c8 <g_2756>
    ed28:	48 89 85 08 f3 ff ff 	mov    %rax,-0xcf8(%rbp)
    ed2f:	48 8d 05 8a 8c 01 00 	lea    0x18c8a(%rip),%rax        # 279c0 <g_2754>
    ed36:	48 89 85 10 f3 ff ff 	mov    %rax,-0xcf0(%rbp)
    ed3d:	48 8d 05 7c 8c 01 00 	lea    0x18c7c(%rip),%rax        # 279c0 <g_2754>
    ed44:	48 89 85 18 f3 ff ff 	mov    %rax,-0xce8(%rbp)
    ed4b:	48 8d 05 7e 47 01 00 	lea    0x1477e(%rip),%rax        # 234d0 <g_608+0x30>
    ed52:	48 89 85 b8 e6 ff ff 	mov    %rax,-0x1948(%rbp)
    ed59:	48 8d 85 40 e5 ff ff 	lea    -0x1ac0(%rbp),%rax
    ed60:	48 89 85 c0 e6 ff ff 	mov    %rax,-0x1940(%rbp)
    ed67:	48 8d 05 da 86 01 00 	lea    0x186da(%rip),%rax        # 27448 <g_208+0x8>
    ed6e:	48 89 85 c8 e6 ff ff 	mov    %rax,-0x1938(%rbp)
    ed75:	48 8d 05 dc 86 01 00 	lea    0x186dc(%rip),%rax        # 27458 <g_207>
    ed7c:	48 89 85 70 e8 ff ff 	mov    %rax,-0x1790(%rbp)
    ed83:	48 8d 05 ce 86 01 00 	lea    0x186ce(%rip),%rax        # 27458 <g_207>
    ed8a:	48 89 85 78 e8 ff ff 	mov    %rax,-0x1788(%rbp)
    ed91:	48 8d 05 c0 86 01 00 	lea    0x186c0(%rip),%rax        # 27458 <g_207>
    ed98:	48 89 85 80 e8 ff ff 	mov    %rax,-0x1780(%rbp)
    ed9f:	48 8d 05 b2 86 01 00 	lea    0x186b2(%rip),%rax        # 27458 <g_207>
    eda6:	48 89 85 88 e8 ff ff 	mov    %rax,-0x1778(%rbp)
    edad:	48 8d 05 a4 86 01 00 	lea    0x186a4(%rip),%rax        # 27458 <g_207>
    edb4:	48 89 85 90 e8 ff ff 	mov    %rax,-0x1770(%rbp)
    edbb:	48 8d 05 96 86 01 00 	lea    0x18696(%rip),%rax        # 27458 <g_207>
    edc2:	48 89 85 98 e8 ff ff 	mov    %rax,-0x1768(%rbp)
    edc9:	c7 85 14 e4 ff ff 00 	movl   $0x0,-0x1bec(%rbp)
    edd0:	00 00 00 
    edd3:	eb 1a                	jmp    edef <func_11+0xf7b>
    edd5:	8b 85 14 e4 ff ff    	mov    -0x1bec(%rbp),%eax
    eddb:	48 98                	cltq   
    eddd:	c7 84 85 8c e7 ff ff 	movl   $0xfffffffd,-0x1874(%rbp,%rax,4)
    ede4:	fd ff ff ff 
    ede8:	83 85 14 e4 ff ff 01 	addl   $0x1,-0x1bec(%rbp)
    edef:	83 bd 14 e4 ff ff 01 	cmpl   $0x1,-0x1bec(%rbp)
    edf6:	7e dd                	jle    edd5 <func_11+0xf61>
    edf8:	48 8b 05 a1 8a 01 00 	mov    0x18aa1(%rip),%rax        # 278a0 <g_421>
    edff:	48 8b 95 a8 e6 ff ff 	mov    -0x1958(%rbp),%rdx
    ee06:	48 89 10             	mov    %rdx,(%rax)
    ee09:	48 8b 00             	mov    (%rax),%rax
    ee0c:	48 39 85 50 e6 ff ff 	cmp    %rax,-0x19b0(%rbp)
    ee13:	0f 95 c0             	setne  %al
    ee16:	0f b6 c0             	movzbl %al,%eax
    ee19:	be 03 00 00 00       	mov    $0x3,%esi
    ee1e:	89 c7                	mov    %eax,%edi
    ee20:	e8 27 ce ff ff       	callq  bc4c <safe_lshift_func_uint8_t_u_u>
    ee25:	0f b7 85 de e3 ff ff 	movzwl -0x1c22(%rbp),%eax
    ee2c:	0f be d8             	movsbl %al,%ebx
    ee2f:	8b 85 c4 e3 ff ff    	mov    -0x1c3c(%rbp),%eax
    ee35:	0f b7 d0             	movzwl %ax,%edx
    ee38:	48 8b 8d 30 e5 ff ff 	mov    -0x1ad0(%rbp),%rcx
    ee3f:	48 8b 85 b0 e6 ff ff 	mov    -0x1950(%rbp),%rax
    ee46:	48 89 08             	mov    %rcx,(%rax)
    ee49:	48 8b 85 b0 e6 ff ff 	mov    -0x1950(%rbp),%rax
    ee50:	48 8b 00             	mov    (%rax),%rax
    ee53:	48 89 85 18 eb ff ff 	mov    %rax,-0x14e8(%rbp)
    ee5a:	48 8b 8d 18 eb ff ff 	mov    -0x14e8(%rbp),%rcx
    ee61:	48 8b 85 20 f1 ff ff 	mov    -0xee0(%rbp),%rax
    ee68:	48 39 c1             	cmp    %rax,%rcx
    ee6b:	74 11                	je     ee7e <func_11+0x100a>
    ee6d:	66 83 bd cc e3 ff ff 	cmpw   $0x0,-0x1c34(%rbp)
    ee74:	00 
    ee75:	74 07                	je     ee7e <func_11+0x100a>
    ee77:	b8 01 00 00 00       	mov    $0x1,%eax
    ee7c:	eb 05                	jmp    ee83 <func_11+0x100f>
    ee7e:	b8 00 00 00 00       	mov    $0x0,%eax
    ee83:	0f b7 c0             	movzwl %ax,%eax
    ee86:	89 d6                	mov    %edx,%esi
    ee88:	89 c7                	mov    %eax,%edi
    ee8a:	e8 cd ce ff ff       	callq  bd5c <safe_mod_func_uint16_t_u_u>
    ee8f:	0f b7 d0             	movzwl %ax,%edx
    ee92:	8b 85 e4 e3 ff ff    	mov    -0x1c1c(%rbp),%eax
    ee98:	39 c2                	cmp    %eax,%edx
    ee9a:	0f 9e c0             	setle  %al
    ee9d:	0f b6 c0             	movzbl %al,%eax
    eea0:	89 de                	mov    %ebx,%esi
    eea2:	89 c7                	mov    %eax,%edi
    eea4:	e8 49 c3 ff ff       	callq  b1f2 <safe_sub_func_int8_t_s_s>
    eea9:	66 98                	cbtw   
    eeab:	0f b7 d0             	movzwl %ax,%edx
    eeae:	48 8b 85 a8 e6 ff ff 	mov    -0x1958(%rbp),%rax
    eeb5:	0f b7 00             	movzwl (%rax),%eax
    eeb8:	8d 48 ff             	lea    -0x1(%rax),%ecx
    eebb:	48 8b 85 a8 e6 ff ff 	mov    -0x1958(%rbp),%rax
    eec2:	66 89 08             	mov    %cx,(%rax)
    eec5:	48 8b 85 a8 e6 ff ff 	mov    -0x1958(%rbp),%rax
    eecc:	0f b7 00             	movzwl (%rax),%eax
    eecf:	0f b7 c0             	movzwl %ax,%eax
    eed2:	89 d6                	mov    %edx,%esi
    eed4:	89 c7                	mov    %eax,%edi
    eed6:	e8 24 ce ff ff       	callq  bcff <safe_add_func_uint16_t_u_u>
    eedb:	48 8b 85 98 e5 ff ff 	mov    -0x1a68(%rbp),%rax
    eee2:	c7 00 00 00 00 00    	movl   $0x0,(%rax)
    eee8:	0f b6 95 c8 e3 ff ff 	movzbl -0x1c38(%rbp),%edx
    eeef:	48 8b 05 da 8a 01 00 	mov    0x18ada(%rip),%rax        # 279d0 <g_2759>
    eef6:	48 8b 00             	mov    (%rax),%rax
    eef9:	48 8b 00             	mov    (%rax),%rax
    eefc:	48 89 85 20 f8 ff ff 	mov    %rax,-0x7e0(%rbp)
    ef03:	48 8b 8d 20 f8 ff ff 	mov    -0x7e0(%rbp),%rcx
    ef0a:	48 8b 85 18 e5 ff ff 	mov    -0x1ae8(%rbp),%rax
    ef11:	48 39 c1             	cmp    %rax,%rcx
    ef14:	0f 94 c0             	sete   %al
    ef17:	0f b6 c0             	movzbl %al,%eax
    ef1a:	09 d0                	or     %edx,%eax
    ef1c:	85 c0                	test   %eax,%eax
    ef1e:	74 08                	je     ef28 <func_11+0x10b4>
    ef20:	8b 85 e0 e7 ff ff    	mov    -0x1820(%rbp),%eax
    ef26:	85 c0                	test   %eax,%eax
    ef28:	be 82 00 00 00       	mov    $0x82,%esi
    ef2d:	bf f7 00 00 00       	mov    $0xf7,%edi
    ef32:	e8 23 cc ff ff       	callq  bb5a <safe_add_func_uint8_t_u_u>
    ef37:	ba 00 00 00 00       	mov    $0x0,%edx
    ef3c:	8b 05 36 47 01 00    	mov    0x14736(%rip),%eax        # 23678 <g_2134+0x18>
    ef42:	09 d0                	or     %edx,%eax
    ef44:	89 05 2e 47 01 00    	mov    %eax,0x1472e(%rip)        # 23678 <g_2134+0x18>
    ef4a:	8b 15 28 47 01 00    	mov    0x14728(%rip),%edx        # 23678 <g_2134+0x18>
    ef50:	48 8b 85 b8 e6 ff ff 	mov    -0x1948(%rbp),%rax
    ef57:	89 10                	mov    %edx,(%rax)
    ef59:	8b 85 e4 e3 ff ff    	mov    -0x1c1c(%rbp),%eax
    ef5f:	0f b7 c8             	movzwl %ax,%ecx
    ef62:	8b 85 6c e4 ff ff    	mov    -0x1b94(%rbp),%eax
    ef68:	0f be d0             	movsbl %al,%edx
    ef6b:	48 8b 05 d6 89 01 00 	mov    0x189d6(%rip),%rax        # 27948 <g_1770>
    ef72:	48 8b 00             	mov    (%rax),%rax
    ef75:	48 8b 00             	mov    (%rax),%rax
    ef78:	0f b6 00             	movzbl (%rax),%eax
    ef7b:	0f b6 f0             	movzbl %al,%esi
    ef7e:	48 0f bf 85 de e3 ff 	movswq -0x1c22(%rbp),%rax
    ef85:	ff 
    ef86:	48 8b 1d 5b 8a 01 00 	mov    0x18a5b(%rip),%rbx        # 279e8 <g_3340>
    ef8d:	48 89 c7             	mov    %rax,%rdi
    ef90:	e8 89 b0 00 00       	callq  1a01e <func_64>
    ef95:	48 89 03             	mov    %rax,(%rbx)
    ef98:	48 8b 95 40 e5 ff ff 	mov    -0x1ac0(%rbp),%rdx
    ef9f:	48 8b 85 c0 e6 ff ff 	mov    -0x1940(%rbp),%rax
    efa6:	48 89 10             	mov    %rdx,(%rax)
    efa9:	48 8b 85 c8 e6 ff ff 	mov    -0x1938(%rbp),%rax
    efb0:	48 89 85 e0 e4 ff ff 	mov    %rax,-0x1b20(%rbp)
    efb7:	8b 05 83 46 01 00    	mov    0x14683(%rip),%eax        # 23640 <g_1374>
    efbd:	0f bf d0             	movswl %ax,%edx
    efc0:	0f b7 85 de e3 ff ff 	movzwl -0x1c22(%rbp),%eax
    efc7:	f7 d0                	not    %eax
    efc9:	66 c1 e8 0f          	shr    $0xf,%ax
    efcd:	0f b6 c0             	movzbl %al,%eax
    efd0:	66 21 85 cc e3 ff ff 	and    %ax,-0x1c34(%rbp)
    efd7:	0f bf 85 cc e3 ff ff 	movswl -0x1c34(%rbp),%eax
    efde:	89 d6                	mov    %edx,%esi
    efe0:	89 c7                	mov    %eax,%edi
    efe2:	e8 ec c3 ff ff       	callq  b3d3 <safe_sub_func_int16_t_s_s>
    efe7:	0f bf 95 de e3 ff ff 	movswl -0x1c22(%rbp),%edx
    efee:	8b 85 c4 e3 ff ff    	mov    -0x1c3c(%rbp),%eax
    eff4:	09 c2                	or     %eax,%edx
    eff6:	48 8b 85 98 e5 ff ff 	mov    -0x1a68(%rbp),%rax
    effd:	89 10                	mov    %edx,(%rax)
    efff:	48 8b 85 98 e5 ff ff 	mov    -0x1a68(%rbp),%rax
    f006:	8b 00                	mov    (%rax),%eax
    f008:	3d 71 7e a9 6d       	cmp    $0x6da97e71,%eax
    f00d:	0f 95 c0             	setne  %al
    f010:	0f b6 c0             	movzbl %al,%eax
    f013:	be f9 ff ff ff       	mov    $0xfffffff9,%esi
    f018:	89 c7                	mov    %eax,%edi
    f01a:	e8 f7 c3 ff ff       	callq  b416 <safe_mod_func_int16_t_s_s>
    f01f:	89 c2                	mov    %eax,%edx
    f021:	48 8b 05 90 88 01 00 	mov    0x18890(%rip),%rax        # 278b8 <g_464>
    f028:	88 10                	mov    %dl,(%rax)
    f02a:	0f b6 00             	movzbl (%rax),%eax
    f02d:	0f b6 d0             	movzbl %al,%edx
    f030:	8b 85 90 e7 ff ff    	mov    -0x1870(%rbp),%eax
    f036:	09 c2                	or     %eax,%edx
    f038:	48 8b 85 98 e6 ff ff 	mov    -0x1968(%rbp),%rax
    f03f:	48 3b 85 a0 e5 ff ff 	cmp    -0x1a60(%rbp),%rax
    f046:	0f 95 c0             	setne  %al
    f049:	0f b6 c0             	movzbl %al,%eax
    f04c:	31 d0                	xor    %edx,%eax
    f04e:	89 85 84 e4 ff ff    	mov    %eax,-0x1b7c(%rbp)
    f054:	48 8b 85 a0 e6 ff ff 	mov    -0x1960(%rbp),%rax
    f05b:	48 c7 00 00 00 00 00 	movq   $0x0,(%rax)
    f062:	48 83 bd 80 e6 ff ff 	cmpq   $0x0,-0x1980(%rbp)
    f069:	00 
    f06a:	75 1a                	jne    f086 <func_11+0x1212>
    f06c:	48 8b 05 e5 83 01 00 	mov    0x183e5(%rip),%rax        # 27458 <g_207>
    f073:	48 8b 00             	mov    (%rax),%rax
    f076:	48 8b 00             	mov    (%rax),%rax
    f079:	8b 00                	mov    (%rax),%eax
    f07b:	31 85 60 e4 ff ff    	xor    %eax,-0x1ba0(%rbp)
    f081:	e9 f1 01 00 00       	jmpq   f277 <func_11+0x1403>
    f086:	48 8d 85 80 e9 ff ff 	lea    -0x1680(%rbp),%rax
    f08d:	48 83 c0 18          	add    $0x18,%rax
    f091:	48 89 85 d0 e6 ff ff 	mov    %rax,-0x1930(%rbp)
    f098:	48 8d 05 91 45 01 00 	lea    0x14591(%rip),%rax        # 23630 <g_1066>
    f09f:	48 89 85 d8 e6 ff ff 	mov    %rax,-0x1928(%rbp)
    f0a6:	c7 85 88 e4 ff ff b8 	movl   $0x349b42b8,-0x1b78(%rbp)
    f0ad:	42 9b 34 
    f0b0:	48 c7 85 e0 e6 ff ff 	movq   $0x0,-0x1920(%rbp)
    f0b7:	00 00 00 00 
    f0bb:	48 8d 05 30 44 01 00 	lea    0x14430(%rip),%rax        # 234f2 <g_622>
    f0c2:	48 89 85 e8 e6 ff ff 	mov    %rax,-0x1918(%rbp)
    f0c9:	c7 85 8c e4 ff ff 00 	movl   $0x0,-0x1b74(%rbp)
    f0d0:	00 00 00 
    f0d3:	48 8b 05 7e 83 01 00 	mov    0x1837e(%rip),%rax        # 27458 <g_207>
    f0da:	48 8b 00             	mov    (%rax),%rax
    f0dd:	48 8b 00             	mov    (%rax),%rax
    f0e0:	8b 00                	mov    (%rax),%eax
    f0e2:	85 c0                	test   %eax,%eax
    f0e4:	0f 85 69 26 00 00    	jne    11753 <func_11+0x38df>
    f0ea:	48 83 bd d0 e6 ff ff 	cmpq   $0x0,-0x1930(%rbp)
    f0f1:	00 
    f0f2:	41 0f 95 c5          	setne  %r13b
    f0f6:	0f b6 95 c8 e3 ff ff 	movzbl -0x1c38(%rbp),%edx
    f0fd:	48 8b 85 d8 e6 ff ff 	mov    -0x1928(%rbp),%rax
    f104:	48 89 10             	mov    %rdx,(%rax)
    f107:	48 8b 85 d8 e6 ff ff 	mov    -0x1928(%rbp),%rax
    f10e:	48 8b 00             	mov    (%rax),%rax
    f111:	83 e0 07             	and    $0x7,%eax
    f114:	48 89 c2             	mov    %rax,%rdx
    f117:	0f b6 85 c8 e3 ff ff 	movzbl -0x1c38(%rbp),%eax
    f11e:	48 39 c2             	cmp    %rax,%rdx
    f121:	0f 92 c0             	setb   %al
    f124:	0f b6 d8             	movzbl %al,%ebx
    f127:	8b 85 88 e4 ff ff    	mov    -0x1b78(%rbp),%eax
    f12d:	4c 63 e0             	movslq %eax,%r12
    f130:	48 8b 85 98 e5 ff ff 	mov    -0x1a68(%rbp),%rax
    f137:	8b 00                	mov    (%rax),%eax
    f139:	83 f8 01             	cmp    $0x1,%eax
    f13c:	0f 9e c0             	setle  %al
    f13f:	0f b6 c0             	movzbl %al,%eax
    f142:	be 73 00 00 00       	mov    $0x73,%esi
    f147:	89 c7                	mov    %eax,%edi
    f149:	e8 c4 c0 ff ff       	callq  b212 <safe_mul_func_int8_t_s_s>
    f14e:	0f b7 85 cc e3 ff ff 	movzwl -0x1c34(%rbp),%eax
    f155:	0f bf d0             	movswl %ax,%edx
    f158:	8b 85 e4 e3 ff ff    	mov    -0x1c1c(%rbp),%eax
    f15e:	09 d0                	or     %edx,%eax
    f160:	89 85 e4 e3 ff ff    	mov    %eax,-0x1c1c(%rbp)
    f166:	8b 85 e4 e3 ff ff    	mov    -0x1c1c(%rbp),%eax
    f16c:	89 c2                	mov    %eax,%edx
    f16e:	48 8b 05 e3 82 01 00 	mov    0x182e3(%rip),%rax        # 27458 <g_207>
    f175:	48 8b 00             	mov    (%rax),%rax
    f178:	48 8b 00             	mov    (%rax),%rax
    f17b:	8b 00                	mov    (%rax),%eax
    f17d:	09 d0                	or     %edx,%eax
    f17f:	0f b6 c0             	movzbl %al,%eax
    f182:	be d9 00 00 00       	mov    $0xd9,%esi
    f187:	89 c7                	mov    %eax,%edi
    f189:	e8 cc c9 ff ff       	callq  bb5a <safe_add_func_uint8_t_u_u>
    f18e:	0f b6 d0             	movzbl %al,%edx
    f191:	48 8b 85 e0 e4 ff ff 	mov    -0x1b20(%rbp),%rax
    f198:	48 8b 00             	mov    (%rax),%rax
    f19b:	48 8b 00             	mov    (%rax),%rax
    f19e:	8b 00                	mov    (%rax),%eax
    f1a0:	39 c2                	cmp    %eax,%edx
    f1a2:	0f 9d c0             	setge  %al
    f1a5:	0f b6 d0             	movzbl %al,%edx
    f1a8:	0f b6 85 c8 e3 ff ff 	movzbl -0x1c38(%rbp),%eax
    f1af:	39 c2                	cmp    %eax,%edx
    f1b1:	75 09                	jne    f1bc <func_11+0x1348>
    f1b3:	80 bd c8 e3 ff ff 00 	cmpb   $0x0,-0x1c38(%rbp)
    f1ba:	74 07                	je     f1c3 <func_11+0x134f>
    f1bc:	b8 01 00 00 00       	mov    $0x1,%eax
    f1c1:	eb 05                	jmp    f1c8 <func_11+0x1354>
    f1c3:	b8 00 00 00 00       	mov    $0x0,%eax
    f1c8:	83 f0 73             	xor    $0x73,%eax
    f1cb:	89 c2                	mov    %eax,%edx
    f1cd:	48 8b 85 e0 e4 ff ff 	mov    -0x1b20(%rbp),%rax
    f1d4:	48 8b 00             	mov    (%rax),%rax
    f1d7:	48 8b 00             	mov    (%rax),%rax
    f1da:	8b 00                	mov    (%rax),%eax
    f1dc:	21 d0                	and    %edx,%eax
    f1de:	89 c2                	mov    %eax,%edx
    f1e0:	8b 85 c4 e3 ff ff    	mov    -0x1c3c(%rbp),%eax
    f1e6:	39 c2                	cmp    %eax,%edx
    f1e8:	0f 96 c0             	setbe  %al
    f1eb:	0f b6 d0             	movzbl %al,%edx
    f1ee:	0f b6 85 c8 e3 ff ff 	movzbl -0x1c38(%rbp),%eax
    f1f5:	39 c2                	cmp    %eax,%edx
    f1f7:	7d 09                	jge    f202 <func_11+0x138e>
    f1f9:	48 c7 c0 fd ff ff ff 	mov    $0xfffffffffffffffd,%rax
    f200:	eb 07                	jmp    f209 <func_11+0x1395>
    f202:	48 c7 c0 fc ff ff ff 	mov    $0xfffffffffffffffc,%rax
    f209:	4c 39 e0             	cmp    %r12,%rax
    f20c:	0f 97 c0             	seta   %al
    f20f:	0f b6 d0             	movzbl %al,%edx
    f212:	48 8b 05 3f 82 01 00 	mov    0x1823f(%rip),%rax        # 27458 <g_207>
    f219:	48 8b 00             	mov    (%rax),%rax
    f21c:	48 8b 00             	mov    (%rax),%rax
    f21f:	8b 00                	mov    (%rax),%eax
    f221:	31 d0                	xor    %edx,%eax
    f223:	0f b7 c0             	movzwl %ax,%eax
    f226:	be 97 73 00 00       	mov    $0x7397,%esi
    f22b:	89 c7                	mov    %eax,%edi
    f22d:	e8 0b cb ff ff       	callq  bd3d <safe_mul_func_uint16_t_u_u>
    f232:	89 c2                	mov    %eax,%edx
    f234:	48 8b 85 90 e5 ff ff 	mov    -0x1a70(%rbp),%rax
    f23b:	66 89 10             	mov    %dx,(%rax)
    f23e:	48 8b 85 90 e5 ff ff 	mov    -0x1a70(%rbp),%rax
    f245:	0f b7 00             	movzwl (%rax),%eax
    f248:	98                   	cwtl   
    f249:	39 c3                	cmp    %eax,%ebx
    f24b:	0f 9f c0             	setg   %al
    f24e:	44 31 e8             	xor    %r13d,%eax
    f251:	89 c2                	mov    %eax,%edx
    f253:	48 8b 85 e8 e6 ff ff 	mov    -0x1918(%rbp),%rax
    f25a:	88 10                	mov    %dl,(%rax)
    f25c:	8b 85 e0 e7 ff ff    	mov    -0x1820(%rbp),%eax
    f262:	83 c8 01             	or     $0x1,%eax
    f265:	39 85 48 e4 ff ff    	cmp    %eax,-0x1bb8(%rbp)
    f26b:	0f 92 c0             	setb   %al
    f26e:	0f b6 c0             	movzbl %al,%eax
    f271:	31 85 8c e4 ff ff    	xor    %eax,-0x1b74(%rbp)
    f277:	48 8b 85 98 e5 ff ff 	mov    -0x1a68(%rbp),%rax
    f27e:	8b 10                	mov    (%rax),%edx
    f280:	8b 85 c4 e3 ff ff    	mov    -0x1c3c(%rbp),%eax
    f286:	39 c2                	cmp    %eax,%edx
    f288:	0f 9f c0             	setg   %al
    f28b:	0f b6 c0             	movzbl %al,%eax
    f28e:	89 85 64 e4 ff ff    	mov    %eax,-0x1b9c(%rbp)
    f294:	e9 ea 0c 00 00       	jmpq   ff83 <func_11+0x210f>
    f299:	48 8d 05 b8 43 01 00 	lea    0x143b8(%rip),%rax        # 23658 <g_1911>
    f2a0:	48 89 85 88 e6 ff ff 	mov    %rax,-0x1978(%rbp)
    f2a7:	c7 85 70 e4 ff ff f0 	movl   $0xf041ff0,-0x1b90(%rbp)
    f2ae:	1f 04 0f 
    f2b1:	c7 85 74 e4 ff ff fe 	movl   $0xfffffffe,-0x1b8c(%rbp)
    f2b8:	ff ff ff 
    f2bb:	c7 85 78 e4 ff ff eb 	movl   $0xb63b19eb,-0x1b88(%rbp)
    f2c2:	19 3b b6 
    f2c5:	c7 85 7c e4 ff ff 01 	movl   $0x1,-0x1b84(%rbp)
    f2cc:	00 00 00 
    f2cf:	c6 85 d5 e3 ff ff 8e 	movb   $0x8e,-0x1c2b(%rbp)
    f2d6:	c7 85 80 e4 ff ff f8 	movl   $0xfffffff8,-0x1b80(%rbp)
    f2dd:	ff ff ff 
    f2e0:	0f b6 9d c8 e3 ff ff 	movzbl -0x1c38(%rbp),%ebx
    f2e7:	48 83 bd 58 e6 ff ff 	cmpq   $0x0,-0x19a8(%rbp)
    f2ee:	00 
    f2ef:	0f 94 c0             	sete   %al
    f2f2:	0f b6 d0             	movzbl %al,%edx
    f2f5:	48 8b 85 88 e6 ff ff 	mov    -0x1978(%rbp),%rax
    f2fc:	48 8b 00             	mov    (%rax),%rax
    f2ff:	48 8d 48 01          	lea    0x1(%rax),%rcx
    f303:	48 8b 85 88 e6 ff ff 	mov    -0x1978(%rbp),%rax
    f30a:	48 89 08             	mov    %rcx,(%rax)
    f30d:	48 8b 85 88 e6 ff ff 	mov    -0x1978(%rbp),%rax
    f314:	48 8b 00             	mov    (%rax),%rax
    f317:	48 21 c2             	and    %rax,%rdx
    f31a:	49 89 d4             	mov    %rdx,%r12
    f31d:	0f b6 85 c8 e3 ff ff 	movzbl -0x1c38(%rbp),%eax
    f324:	0f be d0             	movsbl %al,%edx
    f327:	0f b7 85 cc e3 ff ff 	movzwl -0x1c34(%rbp),%eax
    f32e:	0f be c0             	movsbl %al,%eax
    f331:	89 d6                	mov    %edx,%esi
    f333:	89 c7                	mov    %eax,%edi
    f335:	e8 30 bf ff ff       	callq  b26a <safe_div_func_int8_t_s_s>
    f33a:	44 89 e2             	mov    %r12d,%edx
    f33d:	0f b7 85 da e3 ff ff 	movzwl -0x1c26(%rbp),%eax
    f344:	31 d0                	xor    %edx,%eax
    f346:	66 89 85 da e3 ff ff 	mov    %ax,-0x1c26(%rbp)
    f34d:	8b 85 c4 e3 ff ff    	mov    -0x1c3c(%rbp),%eax
    f353:	48 98                	cltq   
    f355:	8b 15 a1 41 01 00    	mov    0x141a1(%rip),%edx        # 234fc <g_682>
    f35b:	89 d2                	mov    %edx,%edx
    f35d:	48 89 c6             	mov    %rax,%rsi
    f360:	48 89 d7             	mov    %rdx,%rdi
    f363:	e8 4c c6 ff ff       	callq  b9b4 <safe_mod_func_int64_t_s_s>
    f368:	89 c2                	mov    %eax,%edx
    f36a:	8b 85 c4 e3 ff ff    	mov    -0x1c3c(%rbp),%eax
    f370:	89 d6                	mov    %edx,%esi
    f372:	89 c7                	mov    %eax,%edi
    f374:	e8 8c c2 ff ff       	callq  b605 <safe_sub_func_int32_t_s_s>
    f379:	89 c2                	mov    %eax,%edx
    f37b:	48 8b 05 d6 42 01 00 	mov    0x142d6(%rip),%rax        # 23658 <g_1911>
    f382:	89 d6                	mov    %edx,%esi
    f384:	89 c7                	mov    %eax,%edi
    f386:	e8 9a cb ff ff       	callq  bf25 <safe_div_func_uint32_t_u_u>
    f38b:	80 bd c8 e3 ff ff 01 	cmpb   $0x1,-0x1c38(%rbp)
    f392:	76 14                	jbe    f3a8 <func_11+0x1534>
    f394:	48 8b 85 98 e5 ff ff 	mov    -0x1a68(%rbp),%rax
    f39b:	8b 00                	mov    (%rax),%eax
    f39d:	85 c0                	test   %eax,%eax
    f39f:	75 07                	jne    f3a8 <func_11+0x1534>
    f3a1:	b8 01 00 00 00       	mov    $0x1,%eax
    f3a6:	eb 05                	jmp    f3ad <func_11+0x1539>
    f3a8:	b8 00 00 00 00       	mov    $0x0,%eax
    f3ad:	83 c8 f6             	or     $0xfffffff6,%eax
    f3b0:	89 c2                	mov    %eax,%edx
    f3b2:	48 8b 85 90 e5 ff ff 	mov    -0x1a70(%rbp),%rax
    f3b9:	66 89 10             	mov    %dx,(%rax)
    f3bc:	b8 00 00 00 00       	mov    $0x0,%eax
    f3c1:	31 85 60 e4 ff ff    	xor    %eax,-0x1ba0(%rbp)
    f3c7:	8b 95 60 e4 ff ff    	mov    -0x1ba0(%rbp),%edx
    f3cd:	48 8b 85 70 e5 ff ff 	mov    -0x1a90(%rbp),%rax
    f3d4:	89 10                	mov    %edx,(%rax)
    f3d6:	48 8b 85 98 e5 ff ff 	mov    -0x1a68(%rbp),%rax
    f3dd:	8b 00                	mov    (%rax),%eax
    f3df:	66 35 5f ef          	xor    $0xef5f,%ax
    f3e3:	98                   	cwtl   
    f3e4:	89 de                	mov    %ebx,%esi
    f3e6:	89 c7                	mov    %eax,%edi
    f3e8:	e8 08 c0 ff ff       	callq  b3f5 <safe_mul_func_int16_t_s_s>
    f3ed:	8b 95 f0 e7 ff ff    	mov    -0x1810(%rbp),%edx
    f3f3:	98                   	cwtl   
    f3f4:	21 d0                	and    %edx,%eax
    f3f6:	89 85 f0 e7 ff ff    	mov    %eax,-0x1810(%rbp)
    f3fc:	0f b7 85 dc e3 ff ff 	movzwl -0x1c24(%rbp),%eax
    f403:	83 e8 01             	sub    $0x1,%eax
    f406:	66 89 85 dc e3 ff ff 	mov    %ax,-0x1c24(%rbp)
    f40d:	c7 85 78 e4 ff ff 00 	movl   $0x0,-0x1b88(%rbp)
    f414:	00 00 00 
    f417:	83 bd 78 e4 ff ff ee 	cmpl   $0xffffffee,-0x1b88(%rbp)
    f41e:	7d 28                	jge    f448 <func_11+0x15d4>
    f420:	c6 85 d6 e3 ff ff 40 	movb   $0x40,-0x1c2a(%rbp)
    f427:	48 8d 05 26 3c 01 00 	lea    0x13c26(%rip),%rax        # 23054 <g_22+0x14>
    f42e:	48 89 85 90 e6 ff ff 	mov    %rax,-0x1970(%rbp)
    f435:	80 ad d6 e3 ff ff 01 	subb   $0x1,-0x1c2a(%rbp)
    f43c:	48 8b 85 90 e6 ff ff 	mov    -0x1970(%rbp),%rax
    f443:	e9 1c 23 00 00       	jmpq   11764 <func_11+0x38f0>
    f448:	8b 85 c4 e3 ff ff    	mov    -0x1c3c(%rbp),%eax
    f44e:	85 c0                	test   %eax,%eax
    f450:	0f 84 2d 0b 00 00    	je     ff83 <func_11+0x210f>
    f456:	e9 c6 22 00 00       	jmpq   11721 <func_11+0x38ad>
    f45b:	48 8d 85 10 e5 ff ff 	lea    -0x1af0(%rbp),%rax
    f462:	48 89 85 68 e6 ff ff 	mov    %rax,-0x1998(%rbp)
    f469:	c7 85 68 e4 ff ff 01 	movl   $0x1,-0x1b98(%rbp)
    f470:	00 00 00 
    f473:	8b 85 a4 e7 ff ff    	mov    -0x185c(%rbp),%eax
    f479:	85 c0                	test   %eax,%eax
    f47b:	0f 85 d5 22 00 00    	jne    11756 <func_11+0x38e2>
    f481:	8b 85 f4 e3 ff ff    	mov    -0x1c0c(%rbp),%eax
    f487:	89 c2                	mov    %eax,%edx
    f489:	48 8b 85 90 e5 ff ff 	mov    -0x1a70(%rbp),%rax
    f490:	66 89 10             	mov    %dx,(%rax)
    f493:	48 8b 85 90 e5 ff ff 	mov    -0x1a70(%rbp),%rax
    f49a:	0f b7 00             	movzwl (%rax),%eax
    f49d:	0f bf d0             	movswl %ax,%edx
    f4a0:	0f b6 85 c8 e3 ff ff 	movzbl -0x1c38(%rbp),%eax
    f4a7:	39 c2                	cmp    %eax,%edx
    f4a9:	74 1a                	je     f4c5 <func_11+0x1651>
    f4ab:	48 8b 85 50 e6 ff ff 	mov    -0x19b0(%rbp),%rax
    f4b2:	0f b7 00             	movzwl (%rax),%eax
    f4b5:	8d 48 ff             	lea    -0x1(%rax),%ecx
    f4b8:	48 8b 95 50 e6 ff ff 	mov    -0x19b0(%rbp),%rdx
    f4bf:	66 89 0a             	mov    %cx,(%rdx)
    f4c2:	66 85 c0             	test   %ax,%ax
    f4c5:	48 8b 85 60 e6 ff ff 	mov    -0x19a0(%rbp),%rax
    f4cc:	8b 00                	mov    (%rax),%eax
    f4ce:	0f b7 c8             	movzwl %ax,%ecx
    f4d1:	48 8b 05 d8 8f 01 00 	mov    0x18fd8(%rip),%rax        # 284b0 <g_3419>
    f4d8:	48 85 c0             	test   %rax,%rax
    f4db:	0f 94 c0             	sete   %al
    f4de:	0f b6 d0             	movzbl %al,%edx
    f4e1:	8b 85 68 e4 ff ff    	mov    -0x1b98(%rbp),%eax
    f4e7:	0f b6 f0             	movzbl %al,%esi
    f4ea:	8b 85 c4 e3 ff ff    	mov    -0x1c3c(%rbp),%eax
    f4f0:	48 63 f8             	movslq %eax,%rdi
    f4f3:	48 8b 85 68 e6 ff ff 	mov    -0x1998(%rbp),%rax
    f4fa:	48 89 38             	mov    %rdi,(%rax)
    f4fd:	48 8b 85 68 e6 ff ff 	mov    -0x1998(%rbp),%rax
    f504:	48 8b 00             	mov    (%rax),%rax
    f507:	48 8b bd e0 e4 ff ff 	mov    -0x1b20(%rbp),%rdi
    f50e:	48 8b 1f             	mov    (%rdi),%rbx
    f511:	48 89 c7             	mov    %rax,%rdi
    f514:	e8 05 ab 00 00       	callq  1a01e <func_64>
    f519:	48 89 03             	mov    %rax,(%rbx)
    f51c:	e9 62 0a 00 00       	jmpq   ff83 <func_11+0x210f>
    f521:	c6 85 d1 e3 ff ff d0 	movb   $0xd0,-0x1c2f(%rbp)
    f528:	48 8d 05 f1 40 01 00 	lea    0x140f1(%rip),%rax        # 23620 <g_833>
    f52f:	48 89 85 d8 e5 ff ff 	mov    %rax,-0x1a28(%rbp)
    f536:	48 8d 05 bf 3f 01 00 	lea    0x13fbf(%rip),%rax        # 234fc <g_682>
    f53d:	48 89 85 e0 e5 ff ff 	mov    %rax,-0x1a20(%rbp)
    f544:	48 8d 05 64 40 01 00 	lea    0x14064(%rip),%rax        # 235af <g_800+0x8f>
    f54b:	48 89 85 e8 e5 ff ff 	mov    %rax,-0x1a18(%rbp)
    f552:	48 8d 85 e0 f7 ff ff 	lea    -0x820(%rbp),%rax
    f559:	48 8d 15 80 4c 01 00 	lea    0x14c80(%rip),%rdx        # 241e0 <g_4082+0x6e0>
    f560:	b9 a8 00 00 00       	mov    $0xa8,%ecx
    f565:	48 89 c7             	mov    %rax,%rdi
    f568:	48 89 d6             	mov    %rdx,%rsi
    f56b:	f3 48 a5             	rep movsq %ds:(%rsi),%es:(%rdi)
    f56e:	48 8d 85 e0 f7 ff ff 	lea    -0x820(%rbp),%rax
    f575:	48 05 d0 03 00 00    	add    $0x3d0,%rax
    f57b:	48 89 85 f0 e5 ff ff 	mov    %rax,-0x1a10(%rbp)
    f582:	48 8d 05 97 7e 01 00 	lea    0x17e97(%rip),%rax        # 27420 <g_95>
    f589:	48 89 85 f8 e5 ff ff 	mov    %rax,-0x1a08(%rbp)
    f590:	48 8d 85 e0 e4 ff ff 	lea    -0x1b20(%rbp),%rax
    f597:	48 89 85 00 e6 ff ff 	mov    %rax,-0x1a00(%rbp)
    f59e:	0f b6 85 9e e7 ff ff 	movzbl -0x1862(%rbp),%eax
    f5a5:	0f b6 d8             	movzbl %al,%ebx
    f5a8:	0f b6 95 d1 e3 ff ff 	movzbl -0x1c2f(%rbp),%edx
    f5af:	48 8b 85 70 e5 ff ff 	mov    -0x1a90(%rbp),%rax
    f5b6:	89 10                	mov    %edx,(%rax)
    f5b8:	48 8b 85 70 e5 ff ff 	mov    -0x1a90(%rbp),%rax
    f5bf:	44 8b 20             	mov    (%rax),%r12d
    f5c2:	48 8b 85 d8 e5 ff ff 	mov    -0x1a28(%rbp),%rax
    f5c9:	48 8b 00             	mov    (%rax),%rax
    f5cc:	48 8d 48 ff          	lea    -0x1(%rax),%rcx
    f5d0:	48 8b 95 d8 e5 ff ff 	mov    -0x1a28(%rbp),%rdx
    f5d7:	48 89 0a             	mov    %rcx,(%rdx)
    f5da:	48 85 c0             	test   %rax,%rax
    f5dd:	75 0d                	jne    f5ec <func_11+0x1778>
    f5df:	48 8b 85 98 e5 ff ff 	mov    -0x1a68(%rbp),%rax
    f5e6:	8b 00                	mov    (%rax),%eax
    f5e8:	85 c0                	test   %eax,%eax
    f5ea:	74 07                	je     f5f3 <func_11+0x177f>
    f5ec:	ba 01 00 00 00       	mov    $0x1,%edx
    f5f1:	eb 05                	jmp    f5f8 <func_11+0x1784>
    f5f3:	ba 00 00 00 00       	mov    $0x0,%edx
    f5f8:	0f b6 85 c8 e3 ff ff 	movzbl -0x1c38(%rbp),%eax
    f5ff:	39 c2                	cmp    %eax,%edx
    f601:	0f 95 c0             	setne  %al
    f604:	0f b6 d0             	movzbl %al,%edx
    f607:	48 8b 85 e0 e5 ff ff 	mov    -0x1a20(%rbp),%rax
    f60e:	89 10                	mov    %edx,(%rax)
    f610:	48 8b 85 e0 e5 ff ff 	mov    -0x1a20(%rbp),%rax
    f617:	8b 00                	mov    (%rax),%eax
    f619:	be 69 f3 3c 0a       	mov    $0xa3cf369,%esi
    f61e:	89 c7                	mov    %eax,%edi
    f620:	e8 00 c9 ff ff       	callq  bf25 <safe_div_func_uint32_t_u_u>
    f625:	44 09 e0             	or     %r12d,%eax
    f628:	31 d8                	xor    %ebx,%eax
    f62a:	89 85 c4 e3 ff ff    	mov    %eax,-0x1c3c(%rbp)
    f630:	8b 85 c4 e3 ff ff    	mov    -0x1c3c(%rbp),%eax
    f636:	85 c0                	test   %eax,%eax
    f638:	0f 84 f9 01 00 00    	je     f837 <func_11+0x19c3>
    f63e:	48 8d 85 e0 f2 ff ff 	lea    -0xd20(%rbp),%rax
    f645:	48 8d 15 d4 50 01 00 	lea    0x150d4(%rip),%rdx        # 24720 <g_4082+0xc20>
    f64c:	b9 a0 00 00 00       	mov    $0xa0,%ecx
    f651:	48 89 c7             	mov    %rax,%rdi
    f654:	48 89 d6             	mov    %rdx,%rsi
    f657:	f3 48 a5             	rep movsq %ds:(%rsi),%es:(%rdi)
    f65a:	48 8d 85 e0 f2 ff ff 	lea    -0xd20(%rbp),%rax
    f661:	48 83 c0 48          	add    $0x48,%rax
    f665:	48 89 85 40 e5 ff ff 	mov    %rax,-0x1ac0(%rbp)
    f66c:	48 8d 85 10 eb ff ff 	lea    -0x14f0(%rbp),%rax
    f673:	48 83 c0 18          	add    $0x18,%rax
    f677:	48 89 85 48 e5 ff ff 	mov    %rax,-0x1ab8(%rbp)
    f67e:	48 8d 05 2a 3f 01 00 	lea    0x13f2a(%rip),%rax        # 235af <g_800+0x8f>
    f685:	48 89 85 50 e5 ff ff 	mov    %rax,-0x1ab0(%rbp)
    f68c:	48 8d 85 50 e5 ff ff 	lea    -0x1ab0(%rbp),%rax
    f693:	48 89 85 10 e6 ff ff 	mov    %rax,-0x19f0(%rbp)
    f69a:	c7 85 18 e4 ff ff 00 	movl   $0x0,-0x1be8(%rbp)
    f6a1:	00 00 00 
    f6a4:	c7 85 1c e4 ff ff 00 	movl   $0x0,-0x1be4(%rbp)
    f6ab:	00 00 00 
    f6ae:	eb 1e                	jmp    f6ce <func_11+0x185a>
    f6b0:	8b 85 1c e4 ff ff    	mov    -0x1be4(%rbp),%eax
    f6b6:	48 98                	cltq   
    f6b8:	48 8d 95 40 e5 ff ff 	lea    -0x1ac0(%rbp),%rdx
    f6bf:	48 89 94 c5 10 eb ff 	mov    %rdx,-0x14f0(%rbp,%rax,8)
    f6c6:	ff 
    f6c7:	83 85 1c e4 ff ff 01 	addl   $0x1,-0x1be4(%rbp)
    f6ce:	83 bd 1c e4 ff ff 03 	cmpl   $0x3,-0x1be4(%rbp)
    f6d5:	7e d9                	jle    f6b0 <func_11+0x183c>
    f6d7:	c7 85 fc e3 ff ff 00 	movl   $0x0,-0x1c04(%rbp)
    f6de:	00 00 00 
    f6e1:	e9 42 01 00 00       	jmpq   f828 <func_11+0x19b4>
    f6e6:	48 8d 85 48 e5 ff ff 	lea    -0x1ab8(%rbp),%rax
    f6ed:	48 89 85 18 e6 ff ff 	mov    %rax,-0x19e8(%rbp)
    f6f4:	48 8d 05 fd 80 01 00 	lea    0x180fd(%rip),%rax        # 277f8 <g_416+0x138>
    f6fb:	48 89 85 20 e6 ff ff 	mov    %rax,-0x19e0(%rbp)
    f702:	48 8b 95 48 e5 ff ff 	mov    -0x1ab8(%rbp),%rdx
    f709:	48 8b 85 18 e6 ff ff 	mov    -0x19e8(%rbp),%rax
    f710:	48 89 10             	mov    %rdx,(%rax)
    f713:	66 c7 05 88 39 01 00 	movw   $0x2,0x13988(%rip)        # 230a4 <g_206>
    f71a:	02 00 
    f71c:	e9 ed 00 00 00       	jmpq   f80e <func_11+0x199a>
    f721:	48 8d 05 73 3f 01 00 	lea    0x13f73(%rip),%rax        # 2369b <g_3137+0x3>
    f728:	48 89 85 58 e5 ff ff 	mov    %rax,-0x1aa8(%rbp)
    f72f:	48 8d 85 58 e5 ff ff 	lea    -0x1aa8(%rbp),%rax
    f736:	48 89 85 28 e6 ff ff 	mov    %rax,-0x19d8(%rbp)
    f73d:	0f bf 9d cc e3 ff ff 	movswl -0x1c34(%rbp),%ebx
    f744:	66 83 bd cc e3 ff ff 	cmpw   $0x0,-0x1c34(%rbp)
    f74b:	00 
    f74c:	74 11                	je     f75f <func_11+0x18eb>
    f74e:	8b 85 c4 e3 ff ff    	mov    -0x1c3c(%rbp),%eax
    f754:	85 c0                	test   %eax,%eax
    f756:	74 07                	je     f75f <func_11+0x18eb>
    f758:	b8 01 00 00 00       	mov    $0x1,%eax
    f75d:	eb 05                	jmp    f764 <func_11+0x18f0>
    f75f:	b8 00 00 00 00       	mov    $0x0,%eax
    f764:	98                   	cwtl   
    f765:	48 8b 95 90 e5 ff ff 	mov    -0x1a70(%rbp),%rdx
    f76c:	66 c7 02 00 00       	movw   $0x0,(%rdx)
    f771:	89 c6                	mov    %eax,%esi
    f773:	bf 00 00 00 00       	mov    $0x0,%edi
    f778:	e8 36 bc ff ff       	callq  b3b3 <safe_add_func_int16_t_s_s>
    f77d:	66 85 c0             	test   %ax,%ax
    f780:	75 10                	jne    f792 <func_11+0x191e>
    f782:	48 8d 05 73 3d 01 00 	lea    0x13d73(%rip),%rax        # 234fc <g_682>
    f789:	48 39 85 70 e5 ff ff 	cmp    %rax,-0x1a90(%rbp)
    f790:	75 07                	jne    f799 <func_11+0x1925>
    f792:	b8 01 00 00 00       	mov    $0x1,%eax
    f797:	eb 05                	jmp    f79e <func_11+0x192a>
    f799:	b8 00 00 00 00       	mov    $0x0,%eax
    f79e:	48 98                	cltq   
    f7a0:	be 00 00 00 00       	mov    $0x0,%esi
    f7a5:	48 89 c7             	mov    %rax,%rdi
    f7a8:	e8 94 c0 ff ff       	callq  b841 <safe_add_func_int64_t_s_s>
    f7ad:	83 bd 4c e4 ff ff 00 	cmpl   $0x0,-0x1bb4(%rbp)
    f7b4:	74 07                	je     f7bd <func_11+0x1949>
    f7b6:	b8 01 00 00 00       	mov    $0x1,%eax
    f7bb:	eb 05                	jmp    f7c2 <func_11+0x194e>
    f7bd:	b8 00 00 00 00       	mov    $0x0,%eax
    f7c2:	39 d8                	cmp    %ebx,%eax
    f7c4:	0f 9e c0             	setle  %al
    f7c7:	0f b6 d0             	movzbl %al,%edx
    f7ca:	48 8b 85 98 e5 ff ff 	mov    -0x1a68(%rbp),%rax
    f7d1:	89 10                	mov    %edx,(%rax)
    f7d3:	48 8b 85 98 e5 ff ff 	mov    -0x1a68(%rbp),%rax
    f7da:	8b 00                	mov    (%rax),%eax
    f7dc:	31 85 18 e4 ff ff    	xor    %eax,-0x1be8(%rbp)
    f7e2:	48 8b 85 a8 e5 ff ff 	mov    -0x1a58(%rbp),%rax
    f7e9:	48 89 85 20 e6 ff ff 	mov    %rax,-0x19e0(%rbp)
    f7f0:	48 8b 05 d1 80 01 00 	mov    0x180d1(%rip),%rax        # 278c8 <g_656>
    f7f7:	8b 00                	mov    (%rax),%eax
    f7f9:	85 c0                	test   %eax,%eax
    f7fb:	75 23                	jne    f820 <func_11+0x19ac>
    f7fd:	0f b7 05 a0 38 01 00 	movzwl 0x138a0(%rip),%eax        # 230a4 <g_206>
    f804:	83 e8 01             	sub    $0x1,%eax
    f807:	66 89 05 96 38 01 00 	mov    %ax,0x13896(%rip)        # 230a4 <g_206>
    f80e:	0f b7 05 8f 38 01 00 	movzwl 0x1388f(%rip),%eax        # 230a4 <g_206>
    f815:	66 85 c0             	test   %ax,%ax
    f818:	0f 89 03 ff ff ff    	jns    f721 <func_11+0x18ad>
    f81e:	eb 01                	jmp    f821 <func_11+0x19ad>
    f820:	90                   	nop
    f821:	83 85 fc e3 ff ff 01 	addl   $0x1,-0x1c04(%rbp)
    f828:	83 bd fc e3 ff ff 05 	cmpl   $0x5,-0x1c04(%rbp)
    f82f:	0f 8e b1 fe ff ff    	jle    f6e6 <func_11+0x1872>
    f835:	eb 57                	jmp    f88e <func_11+0x1a1a>
    f837:	c7 05 63 3e 01 00 00 	movl   $0x0,0x13e63(%rip)        # 236a4 <g_3247>
    f83e:	00 00 00 
    f841:	eb 40                	jmp    f883 <func_11+0x1a0f>
    f843:	48 b8 53 63 20 dc d5 	movabs $0x27961ed5dc206353,%rax
    f84a:	1e 96 27 
    f84d:	48 89 85 08 e6 ff ff 	mov    %rax,-0x19f8(%rbp)
    f854:	48 8d 05 6d 81 01 00 	lea    0x1816d(%rip),%rax        # 279c8 <g_2756>
    f85b:	48 89 05 8e 81 01 00 	mov    %rax,0x1818e(%rip)        # 279f0 <g_3452>
    f862:	48 8b 85 08 e6 ff ff 	mov    -0x19f8(%rbp),%rax
    f869:	89 c2                	mov    %eax,%edx
    f86b:	48 8b 85 98 e5 ff ff 	mov    -0x1a68(%rbp),%rax
    f872:	89 10                	mov    %edx,(%rax)
    f874:	8b 05 2a 3e 01 00    	mov    0x13e2a(%rip),%eax        # 236a4 <g_3247>
    f87a:	83 c0 01             	add    $0x1,%eax
    f87d:	89 05 21 3e 01 00    	mov    %eax,0x13e21(%rip)        # 236a4 <g_3247>
    f883:	8b 05 1b 3e 01 00    	mov    0x13e1b(%rip),%eax        # 236a4 <g_3247>
    f889:	83 f8 1a             	cmp    $0x1a,%eax
    f88c:	77 b5                	ja     f843 <func_11+0x19cf>
    f88e:	c7 05 0c 3e 01 00 01 	movl   $0x1,0x13e0c(%rip)        # 236a4 <g_3247>
    f895:	00 00 00 
    f898:	e9 c3 06 00 00       	jmpq   ff60 <func_11+0x20ec>
    f89d:	c7 85 50 e5 ff ff 3e 	movl   $0xac5b523e,-0x1ab0(%rbp)
    f8a4:	52 5b ac 
    f8a7:	c7 85 54 e4 ff ff ff 	movl   $0xffffffff,-0x1bac(%rbp)
    f8ae:	ff ff ff 
    f8b1:	c7 85 20 e4 ff ff 00 	movl   $0x0,-0x1be0(%rbp)
    f8b8:	00 00 00 
    f8bb:	eb 4c                	jmp    f909 <func_11+0x1a95>
    f8bd:	c7 85 24 e4 ff ff 00 	movl   $0x0,-0x1bdc(%rbp)
    f8c4:	00 00 00 
    f8c7:	eb 30                	jmp    f8f9 <func_11+0x1a85>
    f8c9:	8b 85 24 e4 ff ff    	mov    -0x1bdc(%rbp),%eax
    f8cf:	48 63 c8             	movslq %eax,%rcx
    f8d2:	8b 85 20 e4 ff ff    	mov    -0x1be0(%rbp),%eax
    f8d8:	48 63 d0             	movslq %eax,%rdx
    f8db:	48 89 d0             	mov    %rdx,%rax
    f8de:	48 c1 e0 02          	shl    $0x2,%rax
    f8e2:	48 01 d0             	add    %rdx,%rax
    f8e5:	48 01 c8             	add    %rcx,%rax
    f8e8:	66 c7 84 45 10 eb ff 	movw   $0xffff,-0x14f0(%rbp,%rax,2)
    f8ef:	ff ff ff 
    f8f2:	83 85 24 e4 ff ff 01 	addl   $0x1,-0x1bdc(%rbp)
    f8f9:	83 bd 24 e4 ff ff 04 	cmpl   $0x4,-0x1bdc(%rbp)
    f900:	7e c7                	jle    f8c9 <func_11+0x1a55>
    f902:	83 85 20 e4 ff ff 01 	addl   $0x1,-0x1be0(%rbp)
    f909:	83 bd 20 e4 ff ff 00 	cmpl   $0x0,-0x1be0(%rbp)
    f910:	7e ab                	jle    f8bd <func_11+0x1a49>
    f912:	48 8b 85 98 e5 ff ff 	mov    -0x1a68(%rbp),%rax
    f919:	8b 00                	mov    (%rax),%eax
    f91b:	85 c0                	test   %eax,%eax
    f91d:	0f 85 4e 06 00 00    	jne    ff71 <func_11+0x20fd>
    f923:	c6 05 78 37 01 00 00 	movb   $0x0,0x13778(%rip)        # 230a2 <g_111>
    f92a:	e9 6b 03 00 00       	jmpq   fc9a <func_11+0x1e26>
    f92f:	c6 85 d3 e3 ff ff 5f 	movb   $0x5f,-0x1c2d(%rbp)
    f936:	c7 85 58 e4 ff ff 09 	movl   $0x9,-0x1ba8(%rbp)
    f93d:	00 00 00 
    f940:	48 c7 85 40 e6 ff ff 	movq   $0x0,-0x19c0(%rbp)
    f947:	00 00 00 00 
    f94b:	48 8d 05 46 d7 00 00 	lea    0xd746(%rip),%rax        # 1d098 <g_2263>
    f952:	48 89 85 58 e5 ff ff 	mov    %rax,-0x1aa8(%rbp)
    f959:	c7 85 28 e4 ff ff 00 	movl   $0x0,-0x1bd8(%rbp)
    f960:	00 00 00 
    f963:	eb 1e                	jmp    f983 <func_11+0x1b0f>
    f965:	8b 85 28 e4 ff ff    	mov    -0x1bd8(%rbp),%eax
    f96b:	48 98                	cltq   
    f96d:	48 8d 95 58 e5 ff ff 	lea    -0x1aa8(%rbp),%rdx
    f974:	48 89 94 c5 e0 f2 ff 	mov    %rdx,-0xd20(%rbp,%rax,8)
    f97b:	ff 
    f97c:	83 85 28 e4 ff ff 01 	addl   $0x1,-0x1bd8(%rbp)
    f983:	83 bd 28 e4 ff ff 01 	cmpl   $0x1,-0x1bd8(%rbp)
    f98a:	7e d9                	jle    f965 <func_11+0x1af1>
    f98c:	c7 85 e4 e3 ff ff 00 	movl   $0x0,-0x1c1c(%rbp)
    f993:	00 00 00 
    f996:	90                   	nop
    f997:	8b 85 e4 e3 ff ff    	mov    -0x1c1c(%rbp),%eax
    f99d:	83 f8 02             	cmp    $0x2,%eax
    f9a0:	0f 8f b4 01 00 00    	jg     fb5a <func_11+0x1ce6>
    f9a6:	48 8d 05 23 8a 01 00 	lea    0x18a23(%rip),%rax        # 283d0 <g_229>
    f9ad:	48 89 85 48 e6 ff ff 	mov    %rax,-0x19b8(%rbp)
    f9b4:	0f b6 85 c8 e3 ff ff 	movzbl -0x1c38(%rbp),%eax
    f9bb:	0f be d8             	movsbl %al,%ebx
    f9be:	48 8b 85 f8 e4 ff ff 	mov    -0x1b08(%rbp),%rax
    f9c5:	48 85 c0             	test   %rax,%rax
    f9c8:	0f 94 c0             	sete   %al
    f9cb:	44 0f b6 e0          	movzbl %al,%r12d
    f9cf:	8b 85 e4 e3 ff ff    	mov    -0x1c1c(%rbp),%eax
    f9d5:	8d 48 01             	lea    0x1(%rax),%ecx
    f9d8:	8b 85 e4 e3 ff ff    	mov    -0x1c1c(%rbp),%eax
    f9de:	8d 50 02             	lea    0x2(%rax),%edx
    f9e1:	8b 05 bd 3c 01 00    	mov    0x13cbd(%rip),%eax        # 236a4 <g_3247>
    f9e7:	89 c6                	mov    %eax,%esi
    f9e9:	48 63 c1             	movslq %ecx,%rax
    f9ec:	48 63 ca             	movslq %edx,%rcx
    f9ef:	48 89 c2             	mov    %rax,%rdx
    f9f2:	48 c1 e2 03          	shl    $0x3,%rdx
    f9f6:	48 01 c2             	add    %rax,%rdx
    f9f9:	48 8d 04 95 00 00 00 	lea    0x0(,%rdx,4),%rax
    fa00:	00 
    fa01:	48 89 c2             	mov    %rax,%rdx
    fa04:	48 89 c8             	mov    %rcx,%rax
    fa07:	48 01 c0             	add    %rax,%rax
    fa0a:	48 01 c8             	add    %rcx,%rax
    fa0d:	48 01 c0             	add    %rax,%rax
    fa10:	48 01 d0             	add    %rdx,%rax
    fa13:	48 8d 14 30          	lea    (%rax,%rsi,1),%rdx
    fa17:	48 8d 05 02 3b 01 00 	lea    0x13b02(%rip),%rax        # 23520 <g_800>
    fa1e:	48 01 d0             	add    %rdx,%rax
    fa21:	0f b6 00             	movzbl (%rax),%eax
    fa24:	44 0f be e8          	movsbl %al,%r13d
    fa28:	48 8b 85 f8 e4 ff ff 	mov    -0x1b08(%rbp),%rax
    fa2f:	48 8b 10             	mov    (%rax),%rdx
    fa32:	48 83 ea 01          	sub    $0x1,%rdx
    fa36:	48 89 10             	mov    %rdx,(%rax)
    fa39:	4c 8b 30             	mov    (%rax),%r14
    fa3c:	44 0f b6 bd d1 e3 ff 	movzbl -0x1c2f(%rbp),%r15d
    fa43:	ff 
    fa44:	48 8b 85 98 e5 ff ff 	mov    -0x1a68(%rbp),%rax
    fa4b:	8b 00                	mov    (%rax),%eax
    fa4d:	89 c1                	mov    %eax,%ecx
    fa4f:	48 8d 05 ca 7e 01 00 	lea    0x17eca(%rip),%rax        # 27920 <g_1539+0x10>
    fa56:	48 39 85 f8 e5 ff ff 	cmp    %rax,-0x1a08(%rbp)
    fa5d:	0f 95 c0             	setne  %al
    fa60:	0f b6 d0             	movzbl %al,%edx
    fa63:	0f b6 85 d1 e3 ff ff 	movzbl -0x1c2f(%rbp),%eax
    fa6a:	83 f0 8f             	xor    $0xffffff8f,%eax
    fa6d:	0f b6 c0             	movzbl %al,%eax
    fa70:	48 39 c2             	cmp    %rax,%rdx
    fa73:	0f 9c c0             	setl   %al
    fa76:	0f b6 c0             	movzbl %al,%eax
    fa79:	89 ce                	mov    %ecx,%esi
    fa7b:	89 c7                	mov    %eax,%edi
    fa7d:	e8 6c b8 ff ff       	callq  b2ee <safe_lshift_func_int8_t_s_u>
    fa82:	0f be c0             	movsbl %al,%eax
    fa85:	41 39 c7             	cmp    %eax,%r15d
    fa88:	0f 9e c0             	setle  %al
    fa8b:	0f b6 c0             	movzbl %al,%eax
    fa8e:	4c 89 f2             	mov    %r14,%rdx
    fa91:	48 09 c2             	or     %rax,%rdx
    fa94:	0f b7 85 12 eb ff ff 	movzwl -0x14ee(%rbp),%eax
    fa9b:	48 0f bf c0          	movswq %ax,%rax
    fa9f:	48 39 c2             	cmp    %rax,%rdx
    faa2:	0f 97 c0             	seta   %al
    faa5:	0f b6 c0             	movzbl %al,%eax
    faa8:	44 89 ea             	mov    %r13d,%edx
    faab:	31 c2                	xor    %eax,%edx
    faad:	48 8b 85 48 e6 ff ff 	mov    -0x19b8(%rbp),%rax
    fab4:	0f b7 00             	movzwl (%rax),%eax
    fab7:	89 c1                	mov    %eax,%ecx
    fab9:	89 d0                	mov    %edx,%eax
    fabb:	21 c8                	and    %ecx,%eax
    fabd:	89 c2                	mov    %eax,%edx
    fabf:	48 8b 85 48 e6 ff ff 	mov    -0x19b8(%rbp),%rax
    fac6:	66 89 10             	mov    %dx,(%rax)
    fac9:	0f b6 85 c8 e3 ff ff 	movzbl -0x1c38(%rbp),%eax
    fad0:	be b8 f4 74 de       	mov    $0xde74f4b8,%esi
    fad5:	89 c7                	mov    %eax,%edi
    fad7:	e8 f4 c3 ff ff       	callq  bed0 <safe_sub_func_uint32_t_u_u>
    fadc:	0f b6 95 d1 e3 ff ff 	movzbl -0x1c2f(%rbp),%edx
    fae3:	39 d0                	cmp    %edx,%eax
    fae5:	0f 96 c0             	setbe  %al
    fae8:	0f b6 c0             	movzbl %al,%eax
    faeb:	be 5d 00 00 00       	mov    $0x5d,%esi
    faf0:	89 c7                	mov    %eax,%edi
    faf2:	e8 b7 c0 ff ff       	callq  bbae <safe_mod_func_uint8_t_u_u>
    faf7:	0f b6 c0             	movzbl %al,%eax
    fafa:	f7 d0                	not    %eax
    fafc:	41 39 c4             	cmp    %eax,%r12d
    faff:	0f 9d c0             	setge  %al
    fb02:	0f b6 c0             	movzbl %al,%eax
    fb05:	89 de                	mov    %ebx,%esi
    fb07:	89 c7                	mov    %eax,%edi
    fb09:	e8 04 b7 ff ff       	callq  b212 <safe_mul_func_int8_t_s_s>
    fb0e:	0f be d0             	movsbl %al,%edx
    fb11:	48 8b 85 e0 e5 ff ff 	mov    -0x1a20(%rbp),%rax
    fb18:	8b 00                	mov    (%rax),%eax
    fb1a:	8d 48 01             	lea    0x1(%rax),%ecx
    fb1d:	48 8b 85 e0 e5 ff ff 	mov    -0x1a20(%rbp),%rax
    fb24:	89 08                	mov    %ecx,(%rax)
    fb26:	48 8b 85 e0 e5 ff ff 	mov    -0x1a20(%rbp),%rax
    fb2d:	8b 00                	mov    (%rax),%eax
    fb2f:	89 d6                	mov    %edx,%esi
    fb31:	89 c7                	mov    %eax,%edi
    fb33:	e8 80 c3 ff ff       	callq  beb8 <safe_add_func_uint32_t_u_u>
    fb38:	85 c0                	test   %eax,%eax
    fb3a:	0f 95 c0             	setne  %al
    fb3d:	0f b6 d0             	movzbl %al,%edx
    fb40:	8b 85 50 e5 ff ff    	mov    -0x1ab0(%rbp),%eax
    fb46:	09 d0                	or     %edx,%eax
    fb48:	89 85 50 e5 ff ff    	mov    %eax,-0x1ab0(%rbp)
    fb4e:	48 8b 85 e0 e5 ff ff 	mov    -0x1a20(%rbp),%rax
    fb55:	e9 0a 1c 00 00       	jmpq   11764 <func_11+0x38f0>
    fb5a:	c6 85 d1 e3 ff ff 00 	movb   $0x0,-0x1c2f(%rbp)
    fb61:	e9 8d 00 00 00       	jmpq   fbf3 <func_11+0x1d7f>
    fb66:	0f b6 05 35 35 01 00 	movzbl 0x13535(%rip),%eax        # 230a2 <g_111>
    fb6d:	0f b6 c0             	movzbl %al,%eax
    fb70:	8d 48 01             	lea    0x1(%rax),%ecx
    fb73:	0f b6 05 28 35 01 00 	movzbl 0x13528(%rip),%eax        # 230a2 <g_111>
    fb7a:	0f b6 d0             	movzbl %al,%edx
    fb7d:	8b 05 21 3b 01 00    	mov    0x13b21(%rip),%eax        # 236a4 <g_3247>
    fb83:	89 c6                	mov    %eax,%esi
    fb85:	48 63 c1             	movslq %ecx,%rax
    fb88:	48 63 ca             	movslq %edx,%rcx
    fb8b:	48 89 c2             	mov    %rax,%rdx
    fb8e:	48 c1 e2 03          	shl    $0x3,%rdx
    fb92:	48 01 c2             	add    %rax,%rdx
    fb95:	48 8d 04 95 00 00 00 	lea    0x0(,%rdx,4),%rax
    fb9c:	00 
    fb9d:	48 89 c2             	mov    %rax,%rdx
    fba0:	48 89 c8             	mov    %rcx,%rax
    fba3:	48 01 c0             	add    %rax,%rax
    fba6:	48 01 c8             	add    %rcx,%rax
    fba9:	48 01 c0             	add    %rax,%rax
    fbac:	48 01 d0             	add    %rdx,%rax
    fbaf:	48 8d 14 30          	lea    (%rax,%rsi,1),%rdx
    fbb3:	48 8d 05 66 39 01 00 	lea    0x13966(%rip),%rax        # 23520 <g_800>
    fbba:	48 01 d0             	add    %rdx,%rax
    fbbd:	0f b6 00             	movzbl (%rax),%eax
    fbc0:	0f be c0             	movsbl %al,%eax
    fbc3:	89 85 58 e4 ff ff    	mov    %eax,-0x1ba8(%rbp)
    fbc9:	8b 95 58 e4 ff ff    	mov    -0x1ba8(%rbp),%edx
    fbcf:	8b 85 c4 e3 ff ff    	mov    -0x1c3c(%rbp),%eax
    fbd5:	21 d0                	and    %edx,%eax
    fbd7:	89 85 c4 e3 ff ff    	mov    %eax,-0x1c3c(%rbp)
    fbdd:	8b 95 c4 e3 ff ff    	mov    -0x1c3c(%rbp),%edx
    fbe3:	48 8b 85 98 e5 ff ff 	mov    -0x1a68(%rbp),%rax
    fbea:	89 10                	mov    %edx,(%rax)
    fbec:	80 85 d1 e3 ff ff 01 	addb   $0x1,-0x1c2f(%rbp)
    fbf3:	80 bd d1 e3 ff ff 01 	cmpb   $0x1,-0x1c2f(%rbp)
    fbfa:	0f 86 66 ff ff ff    	jbe    fb66 <func_11+0x1cf2>
    fc00:	48 8d 85 50 e5 ff ff 	lea    -0x1ab0(%rbp),%rax
    fc07:	48 89 85 b0 e5 ff ff 	mov    %rax,-0x1a50(%rbp)
    fc0e:	48 8b 85 b0 e5 ff ff 	mov    -0x1a50(%rbp),%rax
    fc15:	48 89 05 dc 7d 01 00 	mov    %rax,0x17ddc(%rip)        # 279f8 <g_3482>
    fc1c:	48 8b 85 98 e5 ff ff 	mov    -0x1a68(%rbp),%rax
    fc23:	8b 08                	mov    (%rax),%ecx
    fc25:	8b 05 79 3a 01 00    	mov    0x13a79(%rip),%eax        # 236a4 <g_3247>
    fc2b:	8d 78 01             	lea    0x1(%rax),%edi
    fc2e:	8b 15 70 3a 01 00    	mov    0x13a70(%rip),%edx        # 236a4 <g_3247>
    fc34:	0f b6 05 67 34 01 00 	movzbl 0x13467(%rip),%eax        # 230a2 <g_111>
    fc3b:	0f b6 c0             	movzbl %al,%eax
    fc3e:	48 63 f0             	movslq %eax,%rsi
    fc41:	89 f8                	mov    %edi,%eax
    fc43:	89 d7                	mov    %edx,%edi
    fc45:	48 89 c2             	mov    %rax,%rdx
    fc48:	48 c1 e2 03          	shl    $0x3,%rdx
    fc4c:	48 01 c2             	add    %rax,%rdx
    fc4f:	48 8d 04 95 00 00 00 	lea    0x0(,%rdx,4),%rax
    fc56:	00 
    fc57:	48 89 c2             	mov    %rax,%rdx
    fc5a:	48 89 f8             	mov    %rdi,%rax
    fc5d:	48 01 c0             	add    %rax,%rax
    fc60:	48 01 f8             	add    %rdi,%rax
    fc63:	48 01 c0             	add    %rax,%rax
    fc66:	48 01 d0             	add    %rdx,%rax
    fc69:	48 8d 14 30          	lea    (%rax,%rsi,1),%rdx
    fc6d:	48 8d 05 ac 38 01 00 	lea    0x138ac(%rip),%rax        # 23520 <g_800>
    fc74:	48 01 d0             	add    %rdx,%rax
    fc77:	0f b6 00             	movzbl (%rax),%eax
    fc7a:	0f be c0             	movsbl %al,%eax
    fc7d:	31 c1                	xor    %eax,%ecx
    fc7f:	89 ca                	mov    %ecx,%edx
    fc81:	48 8b 85 98 e5 ff ff 	mov    -0x1a68(%rbp),%rax
    fc88:	89 10                	mov    %edx,(%rax)
    fc8a:	0f b6 05 11 34 01 00 	movzbl 0x13411(%rip),%eax        # 230a2 <g_111>
    fc91:	83 c0 01             	add    $0x1,%eax
    fc94:	88 05 08 34 01 00    	mov    %al,0x13408(%rip)        # 230a2 <g_111>
    fc9a:	0f b6 05 01 34 01 00 	movzbl 0x13401(%rip),%eax        # 230a2 <g_111>
    fca1:	3c 05                	cmp    $0x5,%al
    fca3:	0f 86 86 fc ff ff    	jbe    f92f <func_11+0x1abb>
    fca9:	c6 05 e0 39 01 00 00 	movb   $0x0,0x139e0(%rip)        # 23690 <g_3038>
    fcb0:	e9 8d 02 00 00       	jmpq   ff42 <func_11+0x20ce>
    fcb5:	48 8d 05 e1 39 01 00 	lea    0x139e1(%rip),%rax        # 2369d <g_3137+0x5>
    fcbc:	48 89 85 30 e6 ff ff 	mov    %rax,-0x19d0(%rbp)
    fcc3:	48 8d 05 46 87 01 00 	lea    0x18746(%rip),%rax        # 28410 <g_1862>
    fcca:	48 89 85 38 e6 ff ff 	mov    %rax,-0x19c8(%rbp)
    fcd1:	8b 85 c4 e3 ff ff    	mov    -0x1c3c(%rbp),%eax
    fcd7:	0f b7 d8             	movzwl %ax,%ebx
    fcda:	44 8b 25 9f 37 01 00 	mov    0x1379f(%rip),%r12d        # 23480 <g_486>
    fce1:	8b 85 54 e4 ff ff    	mov    -0x1bac(%rbp),%eax
    fce7:	44 0f b6 e8          	movzbl %al,%r13d
    fceb:	48 8b 05 5e 7c 01 00 	mov    0x17c5e(%rip),%rax        # 27950 <g_2137>
    fcf2:	48 8b 00             	mov    (%rax),%rax
    fcf5:	48 8b 00             	mov    (%rax),%rax
    fcf8:	4c 8b 30             	mov    (%rax),%r14
    fcfb:	8b 05 a3 39 01 00    	mov    0x139a3(%rip),%eax        # 236a4 <g_3247>
    fd01:	8b 15 9d 39 01 00    	mov    0x1399d(%rip),%edx        # 236a4 <g_3247>
    fd07:	8b 0d 97 39 01 00    	mov    0x13997(%rip),%ecx        # 236a4 <g_3247>
    fd0d:	89 ce                	mov    %ecx,%esi
    fd0f:	89 c0                	mov    %eax,%eax
    fd11:	89 d1                	mov    %edx,%ecx
    fd13:	48 89 c2             	mov    %rax,%rdx
    fd16:	48 c1 e2 03          	shl    $0x3,%rdx
    fd1a:	48 01 c2             	add    %rax,%rdx
    fd1d:	48 8d 04 95 00 00 00 	lea    0x0(,%rdx,4),%rax
    fd24:	00 
    fd25:	48 89 c2             	mov    %rax,%rdx
    fd28:	48 89 c8             	mov    %rcx,%rax
    fd2b:	48 01 c0             	add    %rax,%rax
    fd2e:	48 01 c8             	add    %rcx,%rax
    fd31:	48 01 c0             	add    %rax,%rax
    fd34:	48 01 d0             	add    %rdx,%rax
    fd37:	48 8d 14 30          	lea    (%rax,%rsi,1),%rdx
    fd3b:	48 8d 05 de 37 01 00 	lea    0x137de(%rip),%rax        # 23520 <g_800>
    fd42:	48 01 d0             	add    %rdx,%rax
    fd45:	0f b6 00             	movzbl (%rax),%eax
    fd48:	8b 95 c4 e3 ff ff    	mov    -0x1c3c(%rbp),%edx
    fd4e:	44 8b 05 4f 39 01 00 	mov    0x1394f(%rip),%r8d        # 236a4 <g_3247>
    fd55:	8b 3d 49 39 01 00    	mov    0x13949(%rip),%edi        # 236a4 <g_3247>
    fd5b:	44 8b 0d 42 39 01 00 	mov    0x13942(%rip),%r9d        # 236a4 <g_3247>
    fd62:	21 d0                	and    %edx,%eax
    fd64:	89 c6                	mov    %eax,%esi
    fd66:	45 89 ca             	mov    %r9d,%r10d
    fd69:	44 89 c0             	mov    %r8d,%eax
    fd6c:	89 f9                	mov    %edi,%ecx
    fd6e:	48 89 c2             	mov    %rax,%rdx
    fd71:	48 c1 e2 03          	shl    $0x3,%rdx
    fd75:	48 01 c2             	add    %rax,%rdx
    fd78:	48 8d 04 95 00 00 00 	lea    0x0(,%rdx,4),%rax
    fd7f:	00 
    fd80:	48 89 c2             	mov    %rax,%rdx
    fd83:	48 89 c8             	mov    %rcx,%rax
    fd86:	48 01 c0             	add    %rax,%rax
    fd89:	48 01 c8             	add    %rcx,%rax
    fd8c:	48 01 c0             	add    %rax,%rax
    fd8f:	48 01 d0             	add    %rdx,%rax
    fd92:	4a 8d 14 10          	lea    (%rax,%r10,1),%rdx
    fd96:	48 8d 05 83 37 01 00 	lea    0x13783(%rip),%rax        # 23520 <g_800>
    fd9d:	48 01 d0             	add    %rdx,%rax
    fda0:	40 88 30             	mov    %sil,(%rax)
    fda3:	44 89 ce             	mov    %r9d,%esi
    fda6:	44 89 c0             	mov    %r8d,%eax
    fda9:	89 f9                	mov    %edi,%ecx
    fdab:	48 89 c2             	mov    %rax,%rdx
    fdae:	48 c1 e2 03          	shl    $0x3,%rdx
    fdb2:	48 01 c2             	add    %rax,%rdx
    fdb5:	48 8d 04 95 00 00 00 	lea    0x0(,%rdx,4),%rax
    fdbc:	00 
    fdbd:	48 89 c2             	mov    %rax,%rdx
    fdc0:	48 89 c8             	mov    %rcx,%rax
    fdc3:	48 01 c0             	add    %rax,%rax
    fdc6:	48 01 c8             	add    %rcx,%rax
    fdc9:	48 01 c0             	add    %rax,%rax
    fdcc:	48 01 d0             	add    %rdx,%rax
    fdcf:	48 8d 14 30          	lea    (%rax,%rsi,1),%rdx
    fdd3:	48 8d 05 46 37 01 00 	lea    0x13746(%rip),%rax        # 23520 <g_800>
    fdda:	48 01 d0             	add    %rdx,%rax
    fddd:	0f b6 10             	movzbl (%rax),%edx
    fde0:	48 8b 85 30 e6 ff ff 	mov    -0x19d0(%rbp),%rax
    fde7:	0f b6 00             	movzbl (%rax),%eax
    fdea:	31 c2                	xor    %eax,%edx
    fdec:	48 8b 85 30 e6 ff ff 	mov    -0x19d0(%rbp),%rax
    fdf3:	88 10                	mov    %dl,(%rax)
    fdf5:	48 8b 85 30 e6 ff ff 	mov    -0x19d0(%rbp),%rax
    fdfc:	0f b6 00             	movzbl (%rax),%eax
    fdff:	0f b6 d0             	movzbl %al,%edx
    fe02:	48 8b 85 38 e6 ff ff 	mov    -0x19c8(%rbp),%rax
    fe09:	48 c7 00 00 00 00 00 	movq   $0x0,(%rax)
    fe10:	48 8b 85 38 e6 ff ff 	mov    -0x19c8(%rbp),%rax
    fe17:	48 8b 00             	mov    (%rax),%rax
    fe1a:	48 39 85 00 e6 ff ff 	cmp    %rax,-0x1a00(%rbp)
    fe21:	0f 94 c0             	sete   %al
    fe24:	0f b6 c0             	movzbl %al,%eax
    fe27:	89 d6                	mov    %edx,%esi
    fe29:	89 c7                	mov    %eax,%edi
    fe2b:	e8 7e bd ff ff       	callq  bbae <safe_mod_func_uint8_t_u_u>
    fe30:	44 0f b6 f8          	movzbl %al,%r15d
    fe34:	0f b7 85 12 eb ff ff 	movzwl -0x14ee(%rbp),%eax
    fe3b:	0f b7 d0             	movzwl %ax,%edx
    fe3e:	80 bd c8 e3 ff ff 00 	cmpb   $0x0,-0x1c38(%rbp)
    fe45:	75 0a                	jne    fe51 <func_11+0x1fdd>
    fe47:	8b 85 50 e5 ff ff    	mov    -0x1ab0(%rbp),%eax
    fe4d:	85 c0                	test   %eax,%eax
    fe4f:	74 07                	je     fe58 <func_11+0x1fe4>
    fe51:	b8 01 00 00 00       	mov    $0x1,%eax
    fe56:	eb 05                	jmp    fe5d <func_11+0x1fe9>
    fe58:	b8 00 00 00 00       	mov    $0x0,%eax
    fe5d:	0f b7 c0             	movzwl %ax,%eax
    fe60:	89 d6                	mov    %edx,%esi
    fe62:	89 c7                	mov    %eax,%edi
    fe64:	e8 d4 be ff ff       	callq  bd3d <safe_mul_func_uint16_t_u_u>
    fe69:	0f b7 d0             	movzwl %ax,%edx
    fe6c:	0f bf 85 cc e3 ff ff 	movswl -0x1c34(%rbp),%eax
    fe73:	39 c2                	cmp    %eax,%edx
    fe75:	0f 9d c0             	setge  %al
    fe78:	0f b6 c0             	movzbl %al,%eax
    fe7b:	44 21 f8             	and    %r15d,%eax
    fe7e:	48 98                	cltq   
    fe80:	4c 89 f6             	mov    %r14,%rsi
    fe83:	48 89 c7             	mov    %rax,%rdi
    fe86:	e8 f5 c1 ff ff       	callq  c080 <safe_mod_func_uint64_t_u_u>
    fe8b:	48 8b 15 b6 37 01 00 	mov    0x137b6(%rip),%rdx        # 23648 <g_1499>
    fe92:	48 21 d0             	and    %rdx,%rax
    fe95:	48 89 05 ac 37 01 00 	mov    %rax,0x137ac(%rip)        # 23648 <g_1499>
    fe9c:	48 8b 05 a5 37 01 00 	mov    0x137a5(%rip),%rax        # 23648 <g_1499>
    fea3:	48 89 c2             	mov    %rax,%rdx
    fea6:	48 8b 05 33 7a 01 00 	mov    0x17a33(%rip),%rax        # 278e0 <g_846>
    fead:	48 8b 00             	mov    (%rax),%rax
    feb0:	48 39 c2             	cmp    %rax,%rdx
    feb3:	0f 92 c0             	setb   %al
    feb6:	0f b6 c0             	movzbl %al,%eax
    feb9:	44 89 ee             	mov    %r13d,%esi
    febc:	89 c7                	mov    %eax,%edi
    febe:	e8 eb bc ff ff       	callq  bbae <safe_mod_func_uint8_t_u_u>
    fec3:	0f b6 c0             	movzbl %al,%eax
    fec6:	44 89 e6             	mov    %r12d,%esi
    fec9:	89 c7                	mov    %eax,%edi
    fecb:	e8 e8 bf ff ff       	callq  beb8 <safe_add_func_uint32_t_u_u>
    fed0:	0f be d0             	movsbl %al,%edx
    fed3:	48 8b 05 16 7b 01 00 	mov    0x17b16(%rip),%rax        # 279f0 <g_3452>
    feda:	48 8b 00             	mov    (%rax),%rax
    fedd:	48 8b 00             	mov    (%rax),%rax
    fee0:	48 8b 00             	mov    (%rax),%rax
    fee3:	48 8b 00             	mov    (%rax),%rax
    fee6:	0f b6 00             	movzbl (%rax),%eax
    fee9:	0f b6 f0             	movzbl %al,%esi
    feec:	48 8b 85 f8 e4 ff ff 	mov    -0x1b08(%rbp),%rax
    fef3:	48 8b 38             	mov    (%rax),%rdi
    fef6:	48 8b 85 e8 e5 ff ff 	mov    -0x1a18(%rbp),%rax
    fefd:	48 3b 85 30 e6 ff ff 	cmp    -0x19d0(%rbp),%rax
    ff04:	0f 94 c0             	sete   %al
    ff07:	0f b6 c8             	movzbl %al,%ecx
    ff0a:	48 8b 85 f8 e4 ff ff 	mov    -0x1b08(%rbp),%rax
    ff11:	48 21 f9             	and    %rdi,%rcx
    ff14:	48 89 08             	mov    %rcx,(%rax)
    ff17:	48 8b 00             	mov    (%rax),%rax
    ff1a:	48 8b 8d e0 e4 ff ff 	mov    -0x1b20(%rbp),%rcx
    ff21:	4c 8b 21             	mov    (%rcx),%r12
    ff24:	89 d9                	mov    %ebx,%ecx
    ff26:	48 89 c7             	mov    %rax,%rdi
    ff29:	e8 f0 a0 00 00       	callq  1a01e <func_64>
    ff2e:	49 89 04 24          	mov    %rax,(%r12)
    ff32:	0f b6 05 57 37 01 00 	movzbl 0x13757(%rip),%eax        # 23690 <g_3038>
    ff39:	83 c0 01             	add    $0x1,%eax
    ff3c:	88 05 4e 37 01 00    	mov    %al,0x1374e(%rip)        # 23690 <g_3038>
    ff42:	0f b6 05 47 37 01 00 	movzbl 0x13747(%rip),%eax        # 23690 <g_3038>
    ff49:	3c 01                	cmp    $0x1,%al
    ff4b:	0f 86 64 fd ff ff    	jbe    fcb5 <func_11+0x1e41>
    ff51:	8b 05 4d 37 01 00    	mov    0x1374d(%rip),%eax        # 236a4 <g_3247>
    ff57:	83 c0 01             	add    $0x1,%eax
    ff5a:	89 05 44 37 01 00    	mov    %eax,0x13744(%rip)        # 236a4 <g_3247>
    ff60:	8b 05 3e 37 01 00    	mov    0x1373e(%rip),%eax        # 236a4 <g_3247>
    ff66:	83 f8 05             	cmp    $0x5,%eax
    ff69:	0f 86 2e f9 ff ff    	jbe    f89d <func_11+0x1a29>
    ff6f:	eb 01                	jmp    ff72 <func_11+0x20fe>
    ff71:	90                   	nop
    ff72:	48 8b 05 4f 79 01 00 	mov    0x1794f(%rip),%rax        # 278c8 <g_656>
    ff79:	8b 00                	mov    (%rax),%eax
    ff7b:	85 c0                	test   %eax,%eax
    ff7d:	0f 85 9d 17 00 00    	jne    11720 <func_11+0x38ac>
    ff83:	48 c7 05 92 36 01 00 	movq   $0x0,0x13692(%rip)        # 23620 <g_833>
    ff8a:	00 00 00 00 
    ff8e:	e9 ca 0a 00 00       	jmpq   10a5d <func_11+0x2be9>
    ff93:	c7 85 80 e9 ff ff 10 	movl   $0xc4f42a10,-0x1680(%rbp)
    ff9a:	2a f4 c4 
    ff9d:	c7 85 84 e9 ff ff ff 	movl   $0xffffffff,-0x167c(%rbp)
    ffa4:	ff ff ff 
    ffa7:	c7 85 88 e9 ff ff 71 	movl   $0x33502371,-0x1678(%rbp)
    ffae:	23 50 33 
    ffb1:	c7 85 8c e9 ff ff 4b 	movl   $0x2dc78e4b,-0x1674(%rbp)
    ffb8:	8e c7 2d 
    ffbb:	c7 85 90 e9 ff ff 71 	movl   $0x33502371,-0x1670(%rbp)
    ffc2:	23 50 33 
    ffc5:	c7 85 94 e9 ff ff f7 	movl   $0x225924f7,-0x166c(%rbp)
    ffcc:	24 59 22 
    ffcf:	c7 85 98 e9 ff ff ff 	movl   $0xffffffff,-0x1668(%rbp)
    ffd6:	ff ff ff 
    ffd9:	c7 85 9c e9 ff ff ff 	movl   $0xffffffff,-0x1664(%rbp)
    ffe0:	ff ff ff 
    ffe3:	c7 85 a0 e9 ff ff 76 	movl   $0x27576b76,-0x1660(%rbp)
    ffea:	6b 57 27 
    ffed:	c7 85 a4 e9 ff ff c8 	movl   $0x7f42fcc8,-0x165c(%rbp)
    fff4:	fc 42 7f 
    fff7:	c7 85 a8 e9 ff ff 10 	movl   $0xc4f42a10,-0x1658(%rbp)
    fffe:	2a f4 c4 
   10001:	c7 85 ac e9 ff ff 05 	movl   $0x5,-0x1654(%rbp)
   10008:	00 00 00 
   1000b:	c7 85 b0 e9 ff ff 71 	movl   $0x33502371,-0x1650(%rbp)
   10012:	23 50 33 
   10015:	c7 85 b4 e9 ff ff 05 	movl   $0x5,-0x164c(%rbp)
   1001c:	00 00 00 
   1001f:	c7 85 b8 e9 ff ff 76 	movl   $0x27576b76,-0x1648(%rbp)
   10026:	6b 57 27 
   10029:	c7 85 bc e9 ff ff 05 	movl   $0x5,-0x1644(%rbp)
   10030:	00 00 00 
   10033:	c7 85 c0 e9 ff ff 71 	movl   $0x33502371,-0x1640(%rbp)
   1003a:	23 50 33 
   1003d:	c7 85 c4 e9 ff ff f7 	movl   $0x225924f7,-0x163c(%rbp)
   10044:	24 59 22 
   10047:	c7 85 c8 e9 ff ff c4 	movl   $0xd3d83ec4,-0x1638(%rbp)
   1004e:	3e d8 d3 
   10051:	c7 85 cc e9 ff ff 05 	movl   $0x5,-0x1634(%rbp)
   10058:	00 00 00 
   1005b:	c7 85 d0 e9 ff ff ff 	movl   $0xffffffff,-0x1630(%rbp)
   10062:	ff ff ff 
   10065:	c7 85 d4 e9 ff ff 4b 	movl   $0x2dc78e4b,-0x162c(%rbp)
   1006c:	8e c7 2d 
   1006f:	c7 85 d8 e9 ff ff 10 	movl   $0xc4f42a10,-0x1628(%rbp)
   10076:	2a f4 c4 
   10079:	c7 85 dc e9 ff ff 4b 	movl   $0x2dc78e4b,-0x1624(%rbp)
   10080:	8e c7 2d 
   10083:	c7 85 e0 e9 ff ff c4 	movl   $0xd3d83ec4,-0x1620(%rbp)
   1008a:	3e d8 d3 
   1008d:	c7 85 e4 e9 ff ff ff 	movl   $0xffffffff,-0x161c(%rbp)
   10094:	ff ff ff 
   10097:	c7 85 e8 e9 ff ff c4 	movl   $0xd3d83ec4,-0x1618(%rbp)
   1009e:	3e d8 d3 
   100a1:	c7 85 ec e9 ff ff 05 	movl   $0x5,-0x1614(%rbp)
   100a8:	00 00 00 
   100ab:	c7 85 f0 e9 ff ff ff 	movl   $0xffffffff,-0x1610(%rbp)
   100b2:	ff ff ff 
   100b5:	c7 85 f4 e9 ff ff 4b 	movl   $0x2dc78e4b,-0x160c(%rbp)
   100bc:	8e c7 2d 
   100bf:	c7 85 f8 e9 ff ff 71 	movl   $0x33502371,-0x1608(%rbp)
   100c6:	23 50 33 
   100c9:	c7 85 fc e9 ff ff f7 	movl   $0x225924f7,-0x1604(%rbp)
   100d0:	24 59 22 
   100d3:	c7 85 00 ea ff ff ff 	movl   $0xffffffff,-0x1600(%rbp)
   100da:	ff ff ff 
   100dd:	c7 85 04 ea ff ff c8 	movl   $0x7f42fcc8,-0x15fc(%rbp)
   100e4:	fc 42 7f 
   100e7:	c7 85 08 ea ff ff ff 	movl   $0xffffffff,-0x15f8(%rbp)
   100ee:	ff ff ff 
   100f1:	c7 85 0c ea ff ff f7 	movl   $0x225924f7,-0x15f4(%rbp)
   100f8:	24 59 22 
   100fb:	c7 85 10 ea ff ff ff 	movl   $0xffffffff,-0x15f0(%rbp)
   10102:	ff ff ff 
   10105:	c7 85 14 ea ff ff ff 	movl   $0xffffffff,-0x15ec(%rbp)
   1010c:	ff ff ff 
   1010f:	c7 85 18 ea ff ff 76 	movl   $0x27576b76,-0x15e8(%rbp)
   10116:	6b 57 27 
   10119:	c7 85 1c ea ff ff c8 	movl   $0x7f42fcc8,-0x15e4(%rbp)
   10120:	fc 42 7f 
   10123:	c7 85 20 ea ff ff 10 	movl   $0xc4f42a10,-0x15e0(%rbp)
   1012a:	2a f4 c4 
   1012d:	c7 85 24 ea ff ff 05 	movl   $0x5,-0x15dc(%rbp)
   10134:	00 00 00 
   10137:	48 8d 85 e0 f2 ff ff 	lea    -0xd20(%rbp),%rax
   1013e:	48 8d 15 db 4a 01 00 	lea    0x14adb(%rip),%rdx        # 24c20 <g_4082+0x1120>
   10145:	b9 28 00 00 00       	mov    $0x28,%ecx
   1014a:	48 89 c7             	mov    %rax,%rdi
   1014d:	48 89 d6             	mov    %rdx,%rsi
   10150:	f3 48 a5             	rep movsq %ds:(%rsi),%es:(%rdi)
   10153:	c7 85 48 e5 ff ff 7d 	movl   $0x5a5a6d7d,-0x1ab8(%rbp)
   1015a:	6d 5a 5a 
   1015d:	48 c7 85 60 e5 ff ff 	movq   $0x8,-0x1aa0(%rbp)
   10164:	08 00 00 00 
   10168:	48 c7 05 f5 82 01 00 	movq   $0x0,0x182f5(%rip)        # 28468 <g_2816>
   1016f:	00 00 00 00 
   10173:	eb 48                	jmp    101bd <func_11+0x2349>
   10175:	66 c7 85 e2 e3 ff ff 	movw   $0x6bb8,-0x1c1e(%rbp)
   1017c:	b8 6b 
   1017e:	48 8d 85 f0 e3 ff ff 	lea    -0x1c10(%rbp),%rax
   10185:	48 89 85 80 e7 ff ff 	mov    %rax,-0x1880(%rbp)
   1018c:	0f b7 85 e2 e3 ff ff 	movzwl -0x1c1e(%rbp),%eax
   10193:	83 c0 01             	add    $0x1,%eax
   10196:	66 89 85 e2 e3 ff ff 	mov    %ax,-0x1c1e(%rbp)
   1019d:	48 8d 85 c4 e3 ff ff 	lea    -0x1c3c(%rbp),%rax
   101a4:	48 89 85 80 e7 ff ff 	mov    %rax,-0x1880(%rbp)
   101ab:	48 8b 05 b6 82 01 00 	mov    0x182b6(%rip),%rax        # 28468 <g_2816>
   101b2:	48 83 c0 01          	add    $0x1,%rax
   101b6:	48 89 05 ab 82 01 00 	mov    %rax,0x182ab(%rip)        # 28468 <g_2816>
   101bd:	48 8b 05 a4 82 01 00 	mov    0x182a4(%rip),%rax        # 28468 <g_2816>
   101c4:	48 83 f8 33          	cmp    $0x33,%rax
   101c8:	76 ab                	jbe    10175 <func_11+0x2301>
   101ca:	48 c7 05 63 34 01 00 	movq   $0x0,0x13463(%rip)        # 23638 <g_1162>
   101d1:	00 00 00 00 
   101d5:	e9 5d 08 00 00       	jmpq   10a37 <func_11+0x2bc3>
   101da:	48 8d 05 17 76 01 00 	lea    0x17617(%rip),%rax        # 277f8 <g_416+0x138>
   101e1:	48 89 85 50 e5 ff ff 	mov    %rax,-0x1ab0(%rbp)
   101e8:	48 8d 05 41 34 01 00 	lea    0x13441(%rip),%rax        # 23630 <g_1066>
   101ef:	48 89 85 58 e7 ff ff 	mov    %rax,-0x18a8(%rbp)
   101f6:	48 c7 85 60 e7 ff ff 	movq   $0x0,-0x18a0(%rbp)
   101fd:	00 00 00 00 
   10201:	48 c7 85 58 e5 ff ff 	movq   $0x0,-0x1aa8(%rbp)
   10208:	00 00 00 00 
   1020c:	48 8d 85 58 e5 ff ff 	lea    -0x1aa8(%rbp),%rax
   10213:	48 89 85 68 e7 ff ff 	mov    %rax,-0x1898(%rbp)
   1021a:	c7 85 2c e4 ff ff 00 	movl   $0x0,-0x1bd4(%rbp)
   10221:	00 00 00 
   10224:	eb 1a                	jmp    10240 <func_11+0x23cc>
   10226:	8b 85 2c e4 ff ff    	mov    -0x1bd4(%rbp),%eax
   1022c:	48 98                	cltq   
   1022e:	c7 84 85 40 e8 ff ff 	movl   $0x5,-0x17c0(%rbp,%rax,4)
   10235:	05 00 00 00 
   10239:	83 85 2c e4 ff ff 01 	addl   $0x1,-0x1bd4(%rbp)
   10240:	83 bd 2c e4 ff ff 00 	cmpl   $0x0,-0x1bd4(%rbp)
   10247:	7e dd                	jle    10226 <func_11+0x23b2>
   10249:	8b 85 c4 e3 ff ff    	mov    -0x1c3c(%rbp),%eax
   1024f:	85 c0                	test   %eax,%eax
   10251:	0f 84 b9 02 00 00    	je     10510 <func_11+0x269c>
   10257:	48 8d 85 50 e5 ff ff 	lea    -0x1ab0(%rbp),%rax
   1025e:	48 89 85 70 e7 ff ff 	mov    %rax,-0x1890(%rbp)
   10265:	c7 85 d4 e4 ff ff 01 	movl   $0x1,-0x1b2c(%rbp)
   1026c:	00 00 00 
   1026f:	48 8b 95 50 e5 ff ff 	mov    -0x1ab0(%rbp),%rdx
   10276:	48 8b 85 70 e7 ff ff 	mov    -0x1890(%rbp),%rax
   1027d:	48 89 10             	mov    %rdx,(%rax)
   10280:	48 8b 85 70 e7 ff ff 	mov    -0x1890(%rbp),%rax
   10287:	48 8b 00             	mov    (%rax),%rax
   1028a:	48 85 c0             	test   %rax,%rax
   1028d:	0f 84 b8 01 00 00    	je     1044b <func_11+0x25d7>
   10293:	48 8b 05 be 71 01 00 	mov    0x171be(%rip),%rax        # 27458 <g_207>
   1029a:	48 8b 00             	mov    (%rax),%rax
   1029d:	48 8d 95 c4 e3 ff ff 	lea    -0x1c3c(%rbp),%rdx
   102a4:	48 89 10             	mov    %rdx,(%rax)
   102a7:	48 8b 05 aa 71 01 00 	mov    0x171aa(%rip),%rax        # 27458 <g_207>
   102ae:	48 8b 00             	mov    (%rax),%rax
   102b1:	48 8b 00             	mov    (%rax),%rax
   102b4:	8b 00                	mov    (%rax),%eax
   102b6:	85 c0                	test   %eax,%eax
   102b8:	0f 85 8c 07 00 00    	jne    10a4a <func_11+0x2bd6>
   102be:	8b 85 40 e8 ff ff    	mov    -0x17c0(%rbp),%eax
   102c4:	44 0f b7 e8          	movzwl %ax,%r13d
   102c8:	0f b6 85 c8 e3 ff ff 	movzbl -0x1c38(%rbp),%eax
   102cf:	44 0f be e0          	movsbl %al,%r12d
   102d3:	0f b7 85 cc e3 ff ff 	movzwl -0x1c34(%rbp),%eax
   102da:	0f b6 d8             	movzbl %al,%ebx
   102dd:	48 8b 85 98 e5 ff ff 	mov    -0x1a68(%rbp),%rax
   102e4:	8b 00                	mov    (%rax),%eax
   102e6:	4c 63 f0             	movslq %eax,%r14
   102e9:	8b 85 40 e8 ff ff    	mov    -0x17c0(%rbp),%eax
   102ef:	4c 63 f8             	movslq %eax,%r15
   102f2:	8b 85 40 e8 ff ff    	mov    -0x17c0(%rbp),%eax
   102f8:	89 85 c0 e3 ff ff    	mov    %eax,-0x1c40(%rbp)
   102fe:	48 8b 05 c3 76 01 00 	mov    0x176c3(%rip),%rax        # 279c8 <g_2756>
   10305:	48 8b 00             	mov    (%rax),%rax
   10308:	48 8b 00             	mov    (%rax),%rax
   1030b:	48 8b 00             	mov    (%rax),%rax
   1030e:	0f b6 95 c8 e3 ff ff 	movzbl -0x1c38(%rbp),%edx
   10315:	88 10                	mov    %dl,(%rax)
   10317:	48 8b 85 e0 e4 ff ff 	mov    -0x1b20(%rbp),%rax
   1031e:	48 8b 00             	mov    (%rax),%rax
   10321:	48 8b 00             	mov    (%rax),%rax
   10324:	8b 00                	mov    (%rax),%eax
   10326:	0f bf d0             	movswl %ax,%edx
   10329:	48 8b 05 d0 76 01 00 	mov    0x176d0(%rip),%rax        # 27a00 <g_3523>
   10330:	48 85 c0             	test   %rax,%rax
   10333:	0f 94 c0             	sete   %al
   10336:	0f b6 c0             	movzbl %al,%eax
   10339:	89 d6                	mov    %edx,%esi
   1033b:	89 c7                	mov    %eax,%edi
   1033d:	e8 91 b0 ff ff       	callq  b3d3 <safe_sub_func_int16_t_s_s>
   10342:	0f b7 85 cc e3 ff ff 	movzwl -0x1c34(%rbp),%eax
   10349:	0f be d0             	movsbl %al,%edx
   1034c:	48 8b 85 f8 e4 ff ff 	mov    -0x1b08(%rbp),%rax
   10353:	48 8b 30             	mov    (%rax),%rsi
   10356:	48 8b 85 f8 e4 ff ff 	mov    -0x1b08(%rbp),%rax
   1035d:	48 39 85 58 e7 ff ff 	cmp    %rax,-0x18a8(%rbp)
   10364:	0f 94 c0             	sete   %al
   10367:	0f b6 c8             	movzbl %al,%ecx
   1036a:	48 8b 85 f8 e4 ff ff 	mov    -0x1b08(%rbp),%rax
   10371:	48 21 f1             	and    %rsi,%rcx
   10374:	48 89 08             	mov    %rcx,(%rax)
   10377:	48 8b 00             	mov    (%rax),%rax
   1037a:	83 f0 01             	xor    $0x1,%eax
   1037d:	0f be c0             	movsbl %al,%eax
   10380:	89 d6                	mov    %edx,%esi
   10382:	89 c7                	mov    %eax,%edi
   10384:	e8 e1 ae ff ff       	callq  b26a <safe_div_func_int8_t_s_s>
   10389:	be 9f 3c 00 00       	mov    $0x3c9f,%esi
   1038e:	bf 01 00 00 00       	mov    $0x1,%edi
   10393:	e8 f6 b9 ff ff       	callq  bd8e <safe_div_func_uint16_t_u_u>
   10398:	0f b6 85 c8 e3 ff ff 	movzbl -0x1c38(%rbp),%eax
   1039f:	8b 95 d4 e4 ff ff    	mov    -0x1b2c(%rbp),%edx
   103a5:	21 d0                	and    %edx,%eax
   103a7:	98                   	cwtl   
   103a8:	be 01 00 00 00       	mov    $0x1,%esi
   103ad:	89 c7                	mov    %eax,%edi
   103af:	e8 de b0 ff ff       	callq  b492 <safe_lshift_func_int16_t_s_s>
   103b4:	0f b7 c0             	movzwl %ax,%eax
   103b7:	be 0a 00 00 00       	mov    $0xa,%esi
   103bc:	89 c7                	mov    %eax,%edi
   103be:	e8 b7 ba ff ff       	callq  be7a <safe_rshift_func_uint16_t_u_u>
   103c3:	66 3d bd 00          	cmp    $0xbd,%ax
   103c7:	0f 95 c0             	setne  %al
   103ca:	0f b6 c0             	movzbl %al,%eax
   103cd:	be e8 00 00 00       	mov    $0xe8,%esi
   103d2:	89 c7                	mov    %eax,%edi
   103d4:	e8 81 b7 ff ff       	callq  bb5a <safe_add_func_uint8_t_u_u>
   103d9:	3c 02                	cmp    $0x2,%al
   103db:	0f 97 c0             	seta   %al
   103de:	0f b6 c0             	movzbl %al,%eax
   103e1:	39 85 c0 e3 ff ff    	cmp    %eax,-0x1c40(%rbp)
   103e7:	0f 9e c0             	setle  %al
   103ea:	0f b6 c0             	movzbl %al,%eax
   103ed:	4c 89 fe             	mov    %r15,%rsi
   103f0:	48 89 c7             	mov    %rax,%rdi
   103f3:	e8 53 bc ff ff       	callq  c04b <safe_sub_func_uint64_t_u_u>
   103f8:	48 8b 95 e0 e4 ff ff 	mov    -0x1b20(%rbp),%rdx
   103ff:	48 8b 12             	mov    (%rdx),%rdx
   10402:	48 8b 12             	mov    (%rdx),%rdx
   10405:	8b 12                	mov    (%rdx),%edx
   10407:	48 63 d2             	movslq %edx,%rdx
   1040a:	48 39 d0             	cmp    %rdx,%rax
   1040d:	0f 93 c0             	setae  %al
   10410:	0f b6 d0             	movzbl %al,%edx
   10413:	0f bf 85 cc e3 ff ff 	movswl -0x1c34(%rbp),%eax
   1041a:	21 d0                	and    %edx,%eax
   1041c:	48 98                	cltq   
   1041e:	4c 89 f6             	mov    %r14,%rsi
   10421:	48 89 c7             	mov    %rax,%rdi
   10424:	e8 ce b5 ff ff       	callq  b9f7 <safe_div_func_int64_t_s_s>
   10429:	48 89 c7             	mov    %rax,%rdi
   1042c:	48 8b 85 e0 e4 ff ff 	mov    -0x1b20(%rbp),%rax
   10433:	4c 8b 30             	mov    (%rax),%r14
   10436:	44 89 e9             	mov    %r13d,%ecx
   10439:	44 89 e2             	mov    %r12d,%edx
   1043c:	89 de                	mov    %ebx,%esi
   1043e:	e8 db 9b 00 00       	callq  1a01e <func_64>
   10443:	49 89 06             	mov    %rax,(%r14)
   10446:	e9 d4 00 00 00       	jmpq   1051f <func_11+0x26ab>
   1044b:	c7 85 e0 f7 ff ff 61 	movl   $0xfbdf9561,-0x820(%rbp)
   10452:	95 df fb 
   10455:	c7 85 e4 f7 ff ff 8b 	movl   $0xf8e4f28b,-0x81c(%rbp)
   1045c:	f2 e4 f8 
   1045f:	c7 85 e8 f7 ff ff e9 	movl   $0xf791a2e9,-0x818(%rbp)
   10466:	a2 91 f7 
   10469:	c7 85 ec f7 ff ff 5b 	movl   $0xc3d4745b,-0x814(%rbp)
   10470:	74 d4 c3 
   10473:	c7 85 f0 f7 ff ff fb 	movl   $0xfffffffb,-0x810(%rbp)
   1047a:	ff ff ff 
   1047d:	c7 85 f4 f7 ff ff 04 	movl   $0x4,-0x80c(%rbp)
   10484:	00 00 00 
   10487:	c7 85 f8 f7 ff ff 61 	movl   $0xfbdf9561,-0x808(%rbp)
   1048e:	95 df fb 
   10491:	c7 85 fc f7 ff ff 61 	movl   $0xfbdf9561,-0x804(%rbp)
   10498:	95 df fb 
   1049b:	c7 85 00 f8 ff ff 04 	movl   $0x4,-0x800(%rbp)
   104a2:	00 00 00 
   104a5:	c7 85 04 f8 ff ff fb 	movl   $0xfffffffb,-0x7fc(%rbp)
   104ac:	ff ff ff 
   104af:	c7 85 08 f8 ff ff 5b 	movl   $0xc3d4745b,-0x7f8(%rbp)
   104b6:	74 d4 c3 
   104b9:	c7 85 0c f8 ff ff e9 	movl   $0xf791a2e9,-0x7f4(%rbp)
   104c0:	a2 91 f7 
   104c3:	c7 85 10 f8 ff ff 8b 	movl   $0xf8e4f28b,-0x7f0(%rbp)
   104ca:	f2 e4 f8 
   104cd:	c7 85 14 f8 ff ff 61 	movl   $0xfbdf9561,-0x7ec(%rbp)
   104d4:	95 df fb 
   104d7:	c7 85 18 f8 ff ff 8b 	movl   $0xf8e4f28b,-0x7e8(%rbp)
   104de:	f2 e4 f8 
   104e1:	c7 85 1c f8 ff ff 8b 	movl   $0xf8e4f28b,-0x7e4(%rbp)
   104e8:	f2 e4 f8 
   104eb:	c7 85 20 f8 ff ff fb 	movl   $0xfffffffb,-0x7e0(%rbp)
   104f2:	ff ff ff 
   104f5:	c7 85 24 f8 ff ff 61 	movl   $0xfbdf9561,-0x7dc(%rbp)
   104fc:	95 df fb 
   104ff:	8b 85 0c f8 ff ff    	mov    -0x7f4(%rbp),%eax
   10505:	83 c0 01             	add    $0x1,%eax
   10508:	89 85 0c f8 ff ff    	mov    %eax,-0x7f4(%rbp)
   1050e:	eb 0f                	jmp    1051f <func_11+0x26ab>
   10510:	8b 05 92 31 01 00    	mov    0x13192(%rip),%eax        # 236a8 <g_3534>
   10516:	83 c0 01             	add    $0x1,%eax
   10519:	89 05 89 31 01 00    	mov    %eax,0x13189(%rip)        # 236a8 <g_3534>
   1051f:	c7 85 e8 e3 ff ff fd 	movl   $0xfffffffd,-0x1c18(%rbp)
   10526:	ff ff ff 
   10529:	e9 e9 04 00 00       	jmpq   10a17 <func_11+0x2ba3>
   1052e:	c6 85 40 e5 ff ff 00 	movb   $0x0,-0x1ac0(%rbp)
   10535:	c7 85 30 e4 ff ff f7 	movl   $0xfffffff7,-0x1bd0(%rbp)
   1053c:	ff ff ff 
   1053f:	48 8d 85 e0 f7 ff ff 	lea    -0x820(%rbp),%rax
   10546:	48 8d 15 13 48 01 00 	lea    0x14813(%rip),%rdx        # 24d60 <g_4082+0x1260>
   1054d:	b9 fc 00 00 00       	mov    $0xfc,%ecx
   10552:	48 89 c7             	mov    %rax,%rdi
   10555:	48 89 d6             	mov    %rdx,%rsi
   10558:	f3 48 a5             	rep movsq %ds:(%rsi),%es:(%rdi)
   1055b:	c7 85 c4 e3 ff ff 00 	movl   $0x0,-0x1c3c(%rbp)
   10562:	00 00 00 
   10565:	e9 56 03 00 00       	jmpq   108c0 <func_11+0x2a4c>
   1056a:	48 8d 05 7f 2f 01 00 	lea    0x12f7f(%rip),%rax        # 234f0 <g_610>
   10571:	48 89 85 78 e7 ff ff 	mov    %rax,-0x1888(%rbp)
   10578:	48 8d 85 10 eb ff ff 	lea    -0x14f0(%rbp),%rax
   1057f:	48 8d 15 1a cd 00 00 	lea    0xcd1a(%rip),%rdx        # 1d2a0 <g_3481+0x200>
   10586:	b9 24 00 00 00       	mov    $0x24,%ecx
   1058b:	48 89 c7             	mov    %rax,%rdi
   1058e:	48 89 d6             	mov    %rdx,%rsi
   10591:	f3 48 a5             	rep movsq %ds:(%rsi),%es:(%rdi)
   10594:	c7 85 34 e4 ff ff 00 	movl   $0x0,-0x1bcc(%rbp)
   1059b:	00 00 00 
   1059e:	eb 1a                	jmp    105ba <func_11+0x2746>
   105a0:	8b 85 34 e4 ff ff    	mov    -0x1bcc(%rbp),%eax
   105a6:	48 98                	cltq   
   105a8:	c7 84 85 70 e8 ff ff 	movl   $0x136360fb,-0x1790(%rbp,%rax,4)
   105af:	fb 60 63 13 
   105b3:	83 85 34 e4 ff ff 01 	addl   $0x1,-0x1bcc(%rbp)
   105ba:	83 bd 34 e4 ff ff 02 	cmpl   $0x2,-0x1bcc(%rbp)
   105c1:	7e dd                	jle    105a0 <func_11+0x272c>
   105c3:	0f b6 85 40 e5 ff ff 	movzbl -0x1ac0(%rbp),%eax
   105ca:	66 98                	cbtw   
   105cc:	0f b7 d8             	movzwl %ax,%ebx
   105cf:	44 0f b6 a5 c8 e3 ff 	movzbl -0x1c38(%rbp),%r12d
   105d6:	ff 
   105d7:	44 0f b6 ad c8 e3 ff 	movzbl -0x1c38(%rbp),%r13d
   105de:	ff 
   105df:	44 8b b5 04 ea ff ff 	mov    -0x15fc(%rbp),%r14d
   105e6:	48 8b 05 03 74 01 00 	mov    0x17403(%rip),%rax        # 279f0 <g_3452>
   105ed:	48 8b 00             	mov    (%rax),%rax
   105f0:	48 8b 00             	mov    (%rax),%rax
   105f3:	48 8b 00             	mov    (%rax),%rax
   105f6:	48 8b 00             	mov    (%rax),%rax
   105f9:	0f b6 00             	movzbl (%rax),%eax
   105fc:	44 0f be f8          	movsbl %al,%r15d
   10600:	0f b7 85 66 eb ff ff 	movzwl -0x149a(%rbp),%eax
   10607:	0f b7 c0             	movzwl %ax,%eax
   1060a:	89 85 c0 e3 ff ff    	mov    %eax,-0x1c40(%rbp)
   10610:	48 8b 85 78 e7 ff ff 	mov    -0x1888(%rbp),%rax
   10617:	0f b7 00             	movzwl (%rax),%eax
   1061a:	8d 50 01             	lea    0x1(%rax),%edx
   1061d:	48 8b 85 78 e7 ff ff 	mov    -0x1888(%rbp),%rax
   10624:	66 89 10             	mov    %dx,(%rax)
   10627:	48 8b 85 78 e7 ff ff 	mov    -0x1888(%rbp),%rax
   1062e:	0f b7 00             	movzwl (%rax),%eax
   10631:	0f bf d0             	movswl %ax,%edx
   10634:	8b 85 c4 e3 ff ff    	mov    -0x1c3c(%rbp),%eax
   1063a:	89 c1                	mov    %eax,%ecx
   1063c:	48 8b 85 90 e5 ff ff 	mov    -0x1a70(%rbp),%rax
   10643:	66 89 08             	mov    %cx,(%rax)
   10646:	48 8b 85 90 e5 ff ff 	mov    -0x1a70(%rbp),%rax
   1064d:	0f b7 00             	movzwl (%rax),%eax
   10650:	98                   	cwtl   
   10651:	89 d6                	mov    %edx,%esi
   10653:	89 c7                	mov    %eax,%edi
   10655:	e8 bc ad ff ff       	callq  b416 <safe_mod_func_int16_t_s_s>
   1065a:	0f bf d0             	movswl %ax,%edx
   1065d:	48 8b 85 98 e5 ff ff 	mov    -0x1a68(%rbp),%rax
   10664:	89 10                	mov    %edx,(%rax)
   10666:	0f b6 85 c8 e3 ff ff 	movzbl -0x1c38(%rbp),%eax
   1066d:	0f be c0             	movsbl %al,%eax
   10670:	89 85 bc e3 ff ff    	mov    %eax,-0x1c44(%rbp)
   10676:	48 8b 85 98 e5 ff ff 	mov    -0x1a68(%rbp),%rax
   1067d:	8b 00                	mov    (%rax),%eax
   1067f:	89 85 b8 e3 ff ff    	mov    %eax,-0x1c48(%rbp)
   10685:	8b 8d c4 e3 ff ff    	mov    -0x1c3c(%rbp),%ecx
   1068b:	89 8d b4 e3 ff ff    	mov    %ecx,-0x1c4c(%rbp)
   10691:	48 8b 85 70 e5 ff ff 	mov    -0x1a90(%rbp),%rax
   10698:	8b 00                	mov    (%rax),%eax
   1069a:	8d 50 01             	lea    0x1(%rax),%edx
   1069d:	48 8b 85 70 e5 ff ff 	mov    -0x1a90(%rbp),%rax
   106a4:	89 10                	mov    %edx,(%rax)
   106a6:	0f b6 95 c8 e3 ff ff 	movzbl -0x1c38(%rbp),%edx
   106ad:	0f b7 85 cc e3 ff ff 	movzwl -0x1c34(%rbp),%eax
   106b4:	0f be c0             	movsbl %al,%eax
   106b7:	89 d6                	mov    %edx,%esi
   106b9:	89 c7                	mov    %eax,%edi
   106bb:	e8 ac ac ff ff       	callq  b36c <safe_rshift_func_int8_t_s_u>
   106c0:	0f be c0             	movsbl %al,%eax
   106c3:	83 f8 fa             	cmp    $0xfffffffa,%eax
   106c6:	48 8b 85 c0 f3 ff ff 	mov    -0xc40(%rbp),%rax
   106cd:	48 39 85 60 e7 ff ff 	cmp    %rax,-0x18a0(%rbp)
   106d4:	0f 95 c0             	setne  %al
   106d7:	0f b6 c0             	movzbl %al,%eax
   106da:	8b b5 b4 e3 ff ff    	mov    -0x1c4c(%rbp),%esi
   106e0:	89 c7                	mov    %eax,%edi
   106e2:	e8 e5 af ff ff       	callq  b6cc <safe_mod_func_int32_t_s_s>
   106e7:	8b b5 b8 e3 ff ff    	mov    -0x1c48(%rbp),%esi
   106ed:	89 c7                	mov    %eax,%edi
   106ef:	e8 c4 b7 ff ff       	callq  beb8 <safe_add_func_uint32_t_u_u>
   106f4:	be 00 00 00 00       	mov    $0x0,%esi
   106f9:	89 c7                	mov    %eax,%edi
   106fb:	e8 b6 ae ff ff       	callq  b5b6 <safe_add_func_int32_t_s_s>
   10700:	0f be c0             	movsbl %al,%eax
   10703:	8b b5 bc e3 ff ff    	mov    -0x1c44(%rbp),%esi
   10709:	89 c7                	mov    %eax,%edi
   1070b:	e8 21 ab ff ff       	callq  b231 <safe_mod_func_int8_t_s_s>
   10710:	0f b6 85 40 e5 ff ff 	movzbl -0x1ac0(%rbp),%eax
   10717:	84 c0                	test   %al,%al
   10719:	74 07                	je     10722 <func_11+0x28ae>
   1071b:	b8 01 00 00 00       	mov    $0x1,%eax
   10720:	eb 05                	jmp    10727 <func_11+0x28b3>
   10722:	b8 00 00 00 00       	mov    $0x0,%eax
   10727:	89 c2                	mov    %eax,%edx
   10729:	8b 05 51 2d 01 00    	mov    0x12d51(%rip),%eax        # 23480 <g_486>
   1072f:	31 c2                	xor    %eax,%edx
   10731:	0f b7 85 60 eb ff ff 	movzwl -0x14a0(%rbp),%eax
   10738:	0f b7 c0             	movzwl %ax,%eax
   1073b:	39 c2                	cmp    %eax,%edx
   1073d:	0f 92 c0             	setb   %al
   10740:	0f b6 d0             	movzbl %al,%edx
   10743:	0f bf 85 cc e3 ff ff 	movswl -0x1c34(%rbp),%eax
   1074a:	39 c2                	cmp    %eax,%edx
   1074c:	0f 9e c0             	setle  %al
   1074f:	0f b6 c0             	movzbl %al,%eax
   10752:	8b b5 c0 e3 ff ff    	mov    -0x1c40(%rbp),%esi
   10758:	89 c7                	mov    %eax,%edi
   1075a:	e8 42 ab ff ff       	callq  b2a1 <safe_lshift_func_int8_t_s_s>
   1075f:	0f be d0             	movsbl %al,%edx
   10762:	8b 85 c4 e3 ff ff    	mov    -0x1c3c(%rbp),%eax
   10768:	39 c2                	cmp    %eax,%edx
   1076a:	0f 9e c0             	setle  %al
   1076d:	0f b6 c0             	movzbl %al,%eax
   10770:	44 89 fe             	mov    %r15d,%esi
   10773:	89 c7                	mov    %eax,%edi
   10775:	e8 f0 aa ff ff       	callq  b26a <safe_div_func_int8_t_s_s>
   1077a:	8b 85 c4 e3 ff ff    	mov    -0x1c3c(%rbp),%eax
   10780:	48 63 d0             	movslq %eax,%rdx
   10783:	8b 85 40 e8 ff ff    	mov    -0x17c0(%rbp),%eax
   10789:	48 98                	cltq   
   1078b:	48 89 d6             	mov    %rdx,%rsi
   1078e:	48 89 c7             	mov    %rax,%rdi
   10791:	e8 12 b1 ff ff       	callq  b8a8 <safe_sub_func_int64_t_s_s>
   10796:	89 c2                	mov    %eax,%edx
   10798:	8b 85 c4 e3 ff ff    	mov    -0x1c3c(%rbp),%eax
   1079e:	89 d6                	mov    %edx,%esi
   107a0:	89 c7                	mov    %eax,%edi
   107a2:	e8 11 b7 ff ff       	callq  beb8 <safe_add_func_uint32_t_u_u>
   107a7:	8b 95 c4 e3 ff ff    	mov    -0x1c3c(%rbp),%edx
   107ad:	39 d0                	cmp    %edx,%eax
   107af:	0f 97 c0             	seta   %al
   107b2:	89 c2                	mov    %eax,%edx
   107b4:	8b 85 c4 e3 ff ff    	mov    -0x1c3c(%rbp),%eax
   107ba:	31 d0                	xor    %edx,%eax
   107bc:	0f b6 c0             	movzbl %al,%eax
   107bf:	44 89 f6             	mov    %r14d,%esi
   107c2:	89 c7                	mov    %eax,%edi
   107c4:	e8 3c b4 ff ff       	callq  bc05 <safe_lshift_func_uint8_t_u_s>
   107c9:	0f b6 c0             	movzbl %al,%eax
   107cc:	4c 89 ee             	mov    %r13,%rsi
   107cf:	48 89 c7             	mov    %rax,%rdi
   107d2:	e8 d1 b0 ff ff       	callq  b8a8 <safe_sub_func_int64_t_s_s>
   107d7:	4c 89 e6             	mov    %r12,%rsi
   107da:	bf 01 00 00 00       	mov    $0x1,%edi
   107df:	e8 67 b8 ff ff       	callq  c04b <safe_sub_func_uint64_t_u_u>
   107e4:	0f b7 c0             	movzwl %ax,%eax
   107e7:	89 de                	mov    %ebx,%esi
   107e9:	89 c7                	mov    %eax,%edi
   107eb:	e8 4d b5 ff ff       	callq  bd3d <safe_mul_func_uint16_t_u_u>
   107f0:	89 c2                	mov    %eax,%edx
   107f2:	48 8b 05 cf 71 01 00 	mov    0x171cf(%rip),%rax        # 279c8 <g_2756>
   107f9:	48 8b 00             	mov    (%rax),%rax
   107fc:	48 8b 00             	mov    (%rax),%rax
   107ff:	48 8b 00             	mov    (%rax),%rax
   10802:	88 10                	mov    %dl,(%rax)
   10804:	0f b6 00             	movzbl (%rax),%eax
   10807:	38 85 c8 e3 ff ff    	cmp    %al,-0x1c38(%rbp)
   1080d:	0f 95 c0             	setne  %al
   10810:	0f b6 d0             	movzbl %al,%edx
   10813:	8b 85 c4 e3 ff ff    	mov    -0x1c3c(%rbp),%eax
   10819:	39 c2                	cmp    %eax,%edx
   1081b:	0f b6 85 40 e5 ff ff 	movzbl -0x1ac0(%rbp),%eax
   10822:	66 98                	cbtw   
   10824:	0f b7 95 60 eb ff ff 	movzwl -0x14a0(%rbp),%edx
   1082b:	31 d0                	xor    %edx,%eax
   1082d:	0f b7 c0             	movzwl %ax,%eax
   10830:	be ff ff 00 00       	mov    $0xffff,%esi
   10835:	89 c7                	mov    %eax,%edi
   10837:	e8 01 b5 ff ff       	callq  bd3d <safe_mul_func_uint16_t_u_u>
   1083c:	0f b7 c0             	movzwl %ax,%eax
   1083f:	39 85 50 e4 ff ff    	cmp    %eax,-0x1bb0(%rbp)
   10845:	0f 95 c0             	setne  %al
   10848:	0f b6 c0             	movzbl %al,%eax
   1084b:	31 85 30 e4 ff ff    	xor    %eax,-0x1bd0(%rbp)
   10851:	8b 95 30 e4 ff ff    	mov    -0x1bd0(%rbp),%edx
   10857:	8b 85 48 e5 ff ff    	mov    -0x1ab8(%rbp),%eax
   1085d:	09 d0                	or     %edx,%eax
   1085f:	89 85 48 e5 ff ff    	mov    %eax,-0x1ab8(%rbp)
   10865:	8b 95 48 e5 ff ff    	mov    -0x1ab8(%rbp),%edx
   1086b:	8b 85 78 e8 ff ff    	mov    -0x1788(%rbp),%eax
   10871:	31 d0                	xor    %edx,%eax
   10873:	89 85 78 e8 ff ff    	mov    %eax,-0x1788(%rbp)
   10879:	8b 85 48 e5 ff ff    	mov    -0x1ab8(%rbp),%eax
   1087f:	85 c0                	test   %eax,%eax
   10881:	75 4e                	jne    108d1 <func_11+0x2a5d>
   10883:	48 8b 05 8e 71 01 00 	mov    0x1718e(%rip),%rax        # 27a18 <g_3586>
   1088a:	48 89 85 68 e7 ff ff 	mov    %rax,-0x1898(%rbp)
   10891:	48 8b 85 e0 e4 ff ff 	mov    -0x1b20(%rbp),%rax
   10898:	48 8b 00             	mov    (%rax),%rax
   1089b:	48 8d 95 48 e5 ff ff 	lea    -0x1ab8(%rbp),%rdx
   108a2:	48 89 10             	mov    %rdx,(%rax)
   108a5:	8b 85 c4 e3 ff ff    	mov    -0x1c3c(%rbp),%eax
   108ab:	48 98                	cltq   
   108ad:	be 01 00 00 00       	mov    $0x1,%esi
   108b2:	48 89 c7             	mov    %rax,%rdi
   108b5:	e8 74 b7 ff ff       	callq  c02e <safe_add_func_uint64_t_u_u>
   108ba:	89 85 c4 e3 ff ff    	mov    %eax,-0x1c3c(%rbp)
   108c0:	8b 85 c4 e3 ff ff    	mov    -0x1c3c(%rbp),%eax
   108c6:	83 f8 1a             	cmp    $0x1a,%eax
   108c9:	0f 8f 9b fc ff ff    	jg     1056a <func_11+0x26f6>
   108cf:	eb 01                	jmp    108d2 <func_11+0x2a5e>
   108d1:	90                   	nop
   108d2:	8b 85 30 e4 ff ff    	mov    -0x1bd0(%rbp),%eax
   108d8:	35 31 11 e8 0f       	xor    $0xfe81131,%eax
   108dd:	89 85 30 e4 ff ff    	mov    %eax,-0x1bd0(%rbp)
   108e3:	83 bd 30 e4 ff ff 00 	cmpl   $0x0,-0x1bd0(%rbp)
   108ea:	0f 84 f6 00 00 00    	je     109e6 <func_11+0x2b72>
   108f0:	0f b6 85 c8 e3 ff ff 	movzbl -0x1c38(%rbp),%eax
   108f7:	0f be d8             	movsbl %al,%ebx
   108fa:	44 8b ad e4 e9 ff ff 	mov    -0x161c(%rbp),%r13d
   10901:	80 bd c8 e3 ff ff 01 	cmpb   $0x1,-0x1c38(%rbp)
   10908:	74 69                	je     10973 <func_11+0x2aff>
   1090a:	8b 85 30 e4 ff ff    	mov    -0x1bd0(%rbp),%eax
   10910:	44 0f be e0          	movsbl %al,%r12d
   10914:	0f b7 85 cc e3 ff ff 	movzwl -0x1c34(%rbp),%eax
   1091b:	0f b7 c0             	movzwl %ax,%eax
   1091e:	be 0f 00 00 00       	mov    $0xf,%esi
   10923:	89 c7                	mov    %eax,%edi
   10925:	e8 50 b5 ff ff       	callq  be7a <safe_rshift_func_uint16_t_u_u>
   1092a:	0f be c0             	movsbl %al,%eax
   1092d:	44 89 e6             	mov    %r12d,%esi
   10930:	89 c7                	mov    %eax,%edi
   10932:	e8 bb a8 ff ff       	callq  b1f2 <safe_sub_func_int8_t_s_s>
   10937:	8b 85 c4 e3 ff ff    	mov    -0x1c3c(%rbp),%eax
   1093d:	89 c2                	mov    %eax,%edx
   1093f:	0f b6 85 40 e5 ff ff 	movzbl -0x1ac0(%rbp),%eax
   10946:	31 d0                	xor    %edx,%eax
   10948:	44 0f be e0          	movsbl %al,%r12d
   1094c:	be 06 00 00 00       	mov    $0x6,%esi
   10951:	bf 00 00 00 00       	mov    $0x0,%edi
   10956:	e8 f1 b2 ff ff       	callq  bc4c <safe_lshift_func_uint8_t_u_u>
   1095b:	0f be c0             	movsbl %al,%eax
   1095e:	44 89 e6             	mov    %r12d,%esi
   10961:	89 c7                	mov    %eax,%edi
   10963:	e8 8a a8 ff ff       	callq  b1f2 <safe_sub_func_int8_t_s_s>
   10968:	84 c0                	test   %al,%al
   1096a:	74 07                	je     10973 <func_11+0x2aff>
   1096c:	ba 01 00 00 00       	mov    $0x1,%edx
   10971:	eb 05                	jmp    10978 <func_11+0x2b04>
   10973:	ba 00 00 00 00       	mov    $0x0,%edx
   10978:	8b 85 c4 e3 ff ff    	mov    -0x1c3c(%rbp),%eax
   1097e:	39 c2                	cmp    %eax,%edx
   10980:	0f 9d c0             	setge  %al
   10983:	0f b6 c0             	movzbl %al,%eax
   10986:	44 21 e8             	and    %r13d,%eax
   10989:	85 c0                	test   %eax,%eax
   1098b:	74 07                	je     10994 <func_11+0x2b20>
   1098d:	b8 01 00 00 00       	mov    $0x1,%eax
   10992:	eb 05                	jmp    10999 <func_11+0x2b25>
   10994:	b8 00 00 00 00       	mov    $0x0,%eax
   10999:	0f be c0             	movsbl %al,%eax
   1099c:	89 de                	mov    %ebx,%esi
   1099e:	89 c7                	mov    %eax,%edi
   109a0:	e8 c5 a8 ff ff       	callq  b26a <safe_div_func_int8_t_s_s>
   109a5:	84 c0                	test   %al,%al
   109a7:	74 11                	je     109ba <func_11+0x2b46>
   109a9:	66 83 bd cc e3 ff ff 	cmpw   $0x0,-0x1c34(%rbp)
   109b0:	00 
   109b1:	74 07                	je     109ba <func_11+0x2b46>
   109b3:	b8 01 00 00 00       	mov    $0x1,%eax
   109b8:	eb 05                	jmp    109bf <func_11+0x2b4b>
   109ba:	b8 00 00 00 00       	mov    $0x0,%eax
   109bf:	0f be d0             	movsbl %al,%edx
   109c2:	8b 85 c4 e3 ff ff    	mov    -0x1c3c(%rbp),%eax
   109c8:	0f be c0             	movsbl %al,%eax
   109cb:	89 d6                	mov    %edx,%esi
   109cd:	89 c7                	mov    %eax,%edi
   109cf:	e8 3e a8 ff ff       	callq  b212 <safe_mul_func_int8_t_s_s>
   109d4:	be e1 f5 00 00       	mov    $0xf5e1,%esi
   109d9:	bf 00 00 00 00       	mov    $0x0,%edi
   109de:	e8 79 b3 ff ff       	callq  bd5c <safe_mod_func_uint16_t_u_u>
   109e3:	66 85 c0             	test   %ax,%ax
   109e6:	8b 95 c4 e3 ff ff    	mov    -0x1c3c(%rbp),%edx
   109ec:	48 8b 85 98 e5 ff ff 	mov    -0x1a68(%rbp),%rax
   109f3:	8b 00                	mov    (%rax),%eax
   109f5:	09 c2                	or     %eax,%edx
   109f7:	48 8b 85 98 e5 ff ff 	mov    -0x1a68(%rbp),%rax
   109fe:	89 10                	mov    %edx,(%rax)
   10a00:	48 83 ad 60 e5 ff ff 	subq   $0x1,-0x1aa0(%rbp)
   10a07:	01 
   10a08:	8b 85 e8 e3 ff ff    	mov    -0x1c18(%rbp),%eax
   10a0e:	83 c0 01             	add    $0x1,%eax
   10a11:	89 85 e8 e3 ff ff    	mov    %eax,-0x1c18(%rbp)
   10a17:	8b 85 e8 e3 ff ff    	mov    -0x1c18(%rbp),%eax
   10a1d:	85 c0                	test   %eax,%eax
   10a1f:	0f 89 09 fb ff ff    	jns    1052e <func_11+0x26ba>
   10a25:	48 8b 05 0c 2c 01 00 	mov    0x12c0c(%rip),%rax        # 23638 <g_1162>
   10a2c:	48 83 e8 01          	sub    $0x1,%rax
   10a30:	48 89 05 01 2c 01 00 	mov    %rax,0x12c01(%rip)        # 23638 <g_1162>
   10a37:	48 8b 05 fa 2b 01 00 	mov    0x12bfa(%rip),%rax        # 23638 <g_1162>
   10a3e:	48 83 f8 f6          	cmp    $0xfffffffffffffff6,%rax
   10a42:	0f 8d 92 f7 ff ff    	jge    101da <func_11+0x2366>
   10a48:	eb 01                	jmp    10a4b <func_11+0x2bd7>
   10a4a:	90                   	nop
   10a4b:	48 8b 05 ce 2b 01 00 	mov    0x12bce(%rip),%rax        # 23620 <g_833>
   10a52:	48 83 c0 01          	add    $0x1,%rax
   10a56:	48 89 05 c3 2b 01 00 	mov    %rax,0x12bc3(%rip)        # 23620 <g_833>
   10a5d:	48 8b 05 bc 2b 01 00 	mov    0x12bbc(%rip),%rax        # 23620 <g_833>
   10a64:	48 83 f8 35          	cmp    $0x35,%rax
   10a68:	0f 87 25 f5 ff ff    	ja     ff93 <func_11+0x211f>
   10a6e:	48 8b 95 f0 ed ff ff 	mov    -0x1210(%rbp),%rdx
   10a75:	48 8b 85 b8 e5 ff ff 	mov    -0x1a48(%rbp),%rax
   10a7c:	48 89 10             	mov    %rdx,(%rax)
   10a7f:	66 83 bd cc e3 ff ff 	cmpw   $0x0,-0x1c34(%rbp)
   10a86:	00 
   10a87:	0f 8e 23 03 00 00    	jle    10db0 <func_11+0x2f3c>
   10a8d:	48 c7 85 38 e7 ff ff 	movq   $0x0,-0x18c8(%rbp)
   10a94:	00 00 00 00 
   10a98:	c7 85 cc e4 ff ff 00 	movl   $0x0,-0x1b34(%rbp)
   10a9f:	00 00 00 
   10aa2:	c7 85 d0 e4 ff ff 0d 	movl   $0xf4e99b0d,-0x1b30(%rbp)
   10aa9:	9b e9 f4 
   10aac:	48 8b 85 38 e7 ff ff 	mov    -0x18c8(%rbp),%rax
   10ab3:	89 c2                	mov    %eax,%edx
   10ab5:	8b 85 cc e4 ff ff    	mov    -0x1b34(%rbp),%eax
   10abb:	21 d0                	and    %edx,%eax
   10abd:	89 85 cc e4 ff ff    	mov    %eax,-0x1b34(%rbp)
   10ac3:	8b 85 cc e4 ff ff    	mov    -0x1b34(%rbp),%eax
   10ac9:	89 85 d0 e4 ff ff    	mov    %eax,-0x1b30(%rbp)
   10acf:	48 83 bd 38 e7 ff ff 	cmpq   $0x0,-0x18c8(%rbp)
   10ad6:	00 
   10ad7:	0f 85 7c 0c 00 00    	jne    11759 <func_11+0x38e5>
   10add:	c7 85 f4 e3 ff ff 00 	movl   $0x0,-0x1c0c(%rbp)
   10ae4:	00 00 00 
   10ae7:	e9 b2 02 00 00       	jmpq   10d9e <func_11+0x2f2a>
   10aec:	66 c7 85 e0 e3 ff ff 	movw   $0x375e,-0x1c20(%rbp)
   10af3:	5e 37 
   10af5:	48 8d 85 f0 e4 ff ff 	lea    -0x1b10(%rbp),%rax
   10afc:	48 89 85 40 e7 ff ff 	mov    %rax,-0x18c0(%rbp)
   10b03:	c7 85 38 e4 ff ff 00 	movl   $0x0,-0x1bc8(%rbp)
   10b0a:	00 00 00 
   10b0d:	eb 1e                	jmp    10b2d <func_11+0x2cb9>
   10b0f:	8b 85 38 e4 ff ff    	mov    -0x1bc8(%rbp),%eax
   10b15:	48 98                	cltq   
   10b17:	48 8d 95 e8 e4 ff ff 	lea    -0x1b18(%rbp),%rdx
   10b1e:	48 89 94 c5 e0 f7 ff 	mov    %rdx,-0x820(%rbp,%rax,8)
   10b25:	ff 
   10b26:	83 85 38 e4 ff ff 01 	addl   $0x1,-0x1bc8(%rbp)
   10b2d:	83 bd 38 e4 ff ff 00 	cmpl   $0x0,-0x1bc8(%rbp)
   10b34:	7e d9                	jle    10b0f <func_11+0x2c9b>
   10b36:	48 8b 05 93 6e 01 00 	mov    0x16e93(%rip),%rax        # 279d0 <g_2759>
   10b3d:	48 8b 00             	mov    (%rax),%rax
   10b40:	48 8b 00             	mov    (%rax),%rax
   10b43:	0f b6 10             	movzbl (%rax),%edx
   10b46:	83 c2 01             	add    $0x1,%edx
   10b49:	88 10                	mov    %dl,(%rax)
   10b4b:	8b 1d 73 29 01 00    	mov    0x12973(%rip),%ebx        # 234c4 <g_608+0x24>
   10b51:	44 0f b6 a5 c8 e3 ff 	movzbl -0x1c38(%rbp),%r12d
   10b58:	ff 
   10b59:	be 07 00 00 00       	mov    $0x7,%esi
   10b5e:	bf 7c 00 00 00       	mov    $0x7c,%edi
   10b63:	e8 cd a7 ff ff       	callq  b335 <safe_rshift_func_int8_t_s_s>
   10b68:	0f be c0             	movsbl %al,%eax
   10b6b:	44 89 e1             	mov    %r12d,%ecx
   10b6e:	21 c1                	and    %eax,%ecx
   10b70:	48 8b 85 70 e5 ff ff 	mov    -0x1a90(%rbp),%rax
   10b77:	8b 00                	mov    (%rax),%eax
   10b79:	89 da                	mov    %ebx,%edx
   10b7b:	31 c2                	xor    %eax,%edx
   10b7d:	48 8b 85 70 e5 ff ff 	mov    -0x1a90(%rbp),%rax
   10b84:	89 10                	mov    %edx,(%rax)
   10b86:	48 8b 85 70 e5 ff ff 	mov    -0x1a90(%rbp),%rax
   10b8d:	8b 10                	mov    (%rax),%edx
   10b8f:	0f b6 85 c8 e3 ff ff 	movzbl -0x1c38(%rbp),%eax
   10b96:	39 c2                	cmp    %eax,%edx
   10b98:	0f 93 c0             	setae  %al
   10b9b:	0f b6 c0             	movzbl %al,%eax
   10b9e:	39 c1                	cmp    %eax,%ecx
   10ba0:	0f 9c c0             	setl   %al
   10ba3:	0f b6 c0             	movzbl %al,%eax
   10ba6:	89 85 cc e4 ff ff    	mov    %eax,-0x1b34(%rbp)
   10bac:	8b 85 cc e4 ff ff    	mov    -0x1b34(%rbp),%eax
   10bb2:	0f bf d0             	movswl %ax,%edx
   10bb5:	0f bf 85 e0 e3 ff ff 	movswl -0x1c20(%rbp),%eax
   10bbc:	89 d6                	mov    %edx,%esi
   10bbe:	89 c7                	mov    %eax,%edi
   10bc0:	e8 30 a8 ff ff       	callq  b3f5 <safe_mul_func_int16_t_s_s>
   10bc5:	66 83 f8 03          	cmp    $0x3,%ax
   10bc9:	0f 94 c0             	sete   %al
   10bcc:	0f b6 d8             	movzbl %al,%ebx
   10bcf:	8b 85 d0 e4 ff ff    	mov    -0x1b30(%rbp),%eax
   10bd5:	0f b7 d0             	movzwl %ax,%edx
   10bd8:	48 8b 85 78 e5 ff ff 	mov    -0x1a88(%rbp),%rax
   10bdf:	48 8b 00             	mov    (%rax),%rax
   10be2:	48 8b 00             	mov    (%rax),%rax
   10be5:	48 39 85 c8 e5 ff ff 	cmp    %rax,-0x1a38(%rbp)
   10bec:	0f 94 c0             	sete   %al
   10bef:	0f b6 c0             	movzbl %al,%eax
   10bf2:	89 d6                	mov    %edx,%esi
   10bf4:	89 c7                	mov    %eax,%edi
   10bf6:	e8 42 b1 ff ff       	callq  bd3d <safe_mul_func_uint16_t_u_u>
   10bfb:	66 85 c0             	test   %ax,%ax
   10bfe:	0f 95 c0             	setne  %al
   10c01:	0f b6 c0             	movzbl %al,%eax
   10c04:	89 de                	mov    %ebx,%esi
   10c06:	89 c7                	mov    %eax,%edi
   10c08:	e8 e8 a7 ff ff       	callq  b3f5 <safe_mul_func_int16_t_s_s>
   10c0d:	98                   	cwtl   
   10c0e:	be 0d 00 00 00       	mov    $0xd,%esi
   10c13:	89 c7                	mov    %eax,%edi
   10c15:	e8 c7 a8 ff ff       	callq  b4e1 <safe_lshift_func_int16_t_s_u>
   10c1a:	0f bf d0             	movswl %ax,%edx
   10c1d:	48 8b 85 98 e5 ff ff 	mov    -0x1a68(%rbp),%rax
   10c24:	89 10                	mov    %edx,(%rax)
   10c26:	48 8b 85 e8 e4 ff ff 	mov    -0x1b18(%rbp),%rax
   10c2d:	48 89 85 d0 e5 ff ff 	mov    %rax,-0x1a30(%rbp)
   10c34:	48 8b 95 f0 e4 ff ff 	mov    -0x1b10(%rbp),%rdx
   10c3b:	48 8b 85 40 e7 ff ff 	mov    -0x18c0(%rbp),%rax
   10c42:	48 89 10             	mov    %rdx,(%rax)
   10c45:	48 8b 85 40 e7 ff ff 	mov    -0x18c0(%rbp),%rax
   10c4c:	48 8b 00             	mov    (%rax),%rax
   10c4f:	48 39 85 d0 e5 ff ff 	cmp    %rax,-0x1a30(%rbp)
   10c56:	0f 94 c0             	sete   %al
   10c59:	0f b6 d0             	movzbl %al,%edx
   10c5c:	48 8b 85 98 e5 ff ff 	mov    -0x1a68(%rbp),%rax
   10c63:	8b 00                	mov    (%rax),%eax
   10c65:	09 c2                	or     %eax,%edx
   10c67:	48 8b 85 98 e5 ff ff 	mov    -0x1a68(%rbp),%rax
   10c6e:	89 10                	mov    %edx,(%rax)
   10c70:	c7 05 2a 2a 01 00 00 	movl   $0x0,0x12a2a(%rip)        # 236a4 <g_3247>
   10c77:	00 00 00 
   10c7a:	90                   	nop
   10c7b:	8b 05 23 2a 01 00    	mov    0x12a23(%rip),%eax        # 236a4 <g_3247>
   10c81:	83 f8 39             	cmp    $0x39,%eax
   10c84:	0f 86 f1 00 00 00    	jbe    10d7b <func_11+0x2f07>
   10c8a:	48 b8 f3 82 c9 66 e3 	movabs $0xd8d76e366c982f3,%rax
   10c91:	76 8d 0d 
   10c94:	48 89 85 48 e7 ff ff 	mov    %rax,-0x18b8(%rbp)
   10c9b:	48 8d 05 fa 23 01 00 	lea    0x123fa(%rip),%rax        # 2309c <g_78+0x1c>
   10ca2:	48 89 85 50 e7 ff ff 	mov    %rax,-0x18b0(%rbp)
   10ca9:	66 83 bd cc e3 ff ff 	cmpw   $0x1,-0x1c34(%rbp)
   10cb0:	01 
   10cb1:	0f 95 c0             	setne  %al
   10cb4:	0f b6 d0             	movzbl %al,%edx
   10cb7:	0f b6 85 c8 e3 ff ff 	movzbl -0x1c38(%rbp),%eax
   10cbe:	39 c2                	cmp    %eax,%edx
   10cc0:	0f 9c c0             	setl   %al
   10cc3:	0f b6 d0             	movzbl %al,%edx
   10cc6:	0f b6 85 c8 e3 ff ff 	movzbl -0x1c38(%rbp),%eax
   10ccd:	0f be c0             	movsbl %al,%eax
   10cd0:	89 d6                	mov    %edx,%esi
   10cd2:	89 c7                	mov    %eax,%edi
   10cd4:	e8 19 a5 ff ff       	callq  b1f2 <safe_sub_func_int8_t_s_s>
   10cd9:	0f be d8             	movsbl %al,%ebx
   10cdc:	8b 85 c4 e3 ff ff    	mov    -0x1c3c(%rbp),%eax
   10ce2:	98                   	cwtl   
   10ce3:	be 0c 00 00 00       	mov    $0xc,%esi
   10ce8:	89 c7                	mov    %eax,%edi
   10cea:	e8 74 a8 ff ff       	callq  b563 <safe_rshift_func_int16_t_s_u>
   10cef:	44 0f bf e0          	movswl %ax,%r12d
   10cf3:	83 bd cc e4 ff ff ff 	cmpl   $0xffffffff,-0x1b34(%rbp)
   10cfa:	0f 9c c0             	setl   %al
   10cfd:	0f b6 d0             	movzbl %al,%edx
   10d00:	0f b7 85 cc e3 ff ff 	movzwl -0x1c34(%rbp),%eax
   10d07:	0f b7 c0             	movzwl %ax,%eax
   10d0a:	89 d6                	mov    %edx,%esi
   10d0c:	89 c7                	mov    %eax,%edi
   10d0e:	e8 2a b0 ff ff       	callq  bd3d <safe_mul_func_uint16_t_u_u>
   10d13:	66 83 f8 03          	cmp    $0x3,%ax
   10d17:	0f 96 c0             	setbe  %al
   10d1a:	0f b6 c0             	movzbl %al,%eax
   10d1d:	41 39 c4             	cmp    %eax,%r12d
   10d20:	0f 94 c0             	sete   %al
   10d23:	0f b6 c0             	movzbl %al,%eax
   10d26:	48 39 85 48 e7 ff ff 	cmp    %rax,-0x18b8(%rbp)
   10d2d:	0f 9e c0             	setle  %al
   10d30:	0f b6 d0             	movzbl %al,%edx
   10d33:	8b 05 9f 2a 01 00    	mov    0x12a9f(%rip),%eax        # 237d8 <g_3651+0x118>
   10d39:	39 c2                	cmp    %eax,%edx
   10d3b:	0f 92 c0             	setb   %al
   10d3e:	0f b6 c0             	movzbl %al,%eax
   10d41:	21 d8                	and    %ebx,%eax
   10d43:	48 98                	cltq   
   10d45:	48 f7 d0             	not    %rax
   10d48:	89 c2                	mov    %eax,%edx
   10d4a:	8b 85 d0 e4 ff ff    	mov    -0x1b30(%rbp),%eax
   10d50:	31 d0                	xor    %edx,%eax
   10d52:	89 85 d0 e4 ff ff    	mov    %eax,-0x1b30(%rbp)
   10d58:	48 8b 05 f9 66 01 00 	mov    0x166f9(%rip),%rax        # 27458 <g_207>
   10d5f:	48 8b 00             	mov    (%rax),%rax
   10d62:	48 8b 95 50 e7 ff ff 	mov    -0x18b0(%rbp),%rdx
   10d69:	48 89 10             	mov    %rdx,(%rax)
   10d6c:	48 8b 05 75 6c 01 00 	mov    0x16c75(%rip),%rax        # 279e8 <g_3340>
   10d73:	48 8b 00             	mov    (%rax),%rax
   10d76:	e9 e9 09 00 00       	jmpq   11764 <func_11+0x38f0>
   10d7b:	8b 85 c4 e3 ff ff    	mov    -0x1c3c(%rbp),%eax
   10d81:	85 c0                	test   %eax,%eax
   10d83:	8b 85 f4 e3 ff ff    	mov    -0x1c0c(%rbp),%eax
   10d89:	48 98                	cltq   
   10d8b:	be 05 00 00 00       	mov    $0x5,%esi
   10d90:	48 89 c7             	mov    %rax,%rdi
   10d93:	e8 a9 aa ff ff       	callq  b841 <safe_add_func_int64_t_s_s>
   10d98:	89 85 f4 e3 ff ff    	mov    %eax,-0x1c0c(%rbp)
   10d9e:	83 bd f4 e3 ff ff 1c 	cmpl   $0x1c,-0x1c0c(%rbp)
   10da5:	0f 8f 41 fd ff ff    	jg     10aec <func_11+0x2c78>
   10dab:	e9 71 09 00 00       	jmpq   11721 <func_11+0x38ad>
   10db0:	48 8d 05 58 28 01 00 	lea    0x12858(%rip),%rax        # 2360f <g_800+0xef>
   10db7:	48 89 85 00 e7 ff ff 	mov    %rax,-0x1900(%rbp)
   10dbe:	c7 85 94 e4 ff ff ff 	movl   $0xffffffff,-0x1b6c(%rbp)
   10dc5:	ff ff ff 
   10dc8:	48 8d 05 69 28 01 00 	lea    0x12869(%rip),%rax        # 23638 <g_1162>
   10dcf:	48 89 85 08 e7 ff ff 	mov    %rax,-0x18f8(%rbp)
   10dd6:	48 8d 85 e0 f2 ff ff 	lea    -0xd20(%rbp),%rax
   10ddd:	48 8d 15 dc c5 00 00 	lea    0xc5dc(%rip),%rdx        # 1d3c0 <g_3481+0x320>
   10de4:	b9 1f 00 00 00       	mov    $0x1f,%ecx
   10de9:	48 89 c7             	mov    %rax,%rdi
   10dec:	48 89 d6             	mov    %rdx,%rsi
   10def:	f3 48 a5             	rep movsq %ds:(%rsi),%es:(%rdi)
   10df2:	48 89 f2             	mov    %rsi,%rdx
   10df5:	48 89 f8             	mov    %rdi,%rax
   10df8:	8b 0a                	mov    (%rdx),%ecx
   10dfa:	89 08                	mov    %ecx,(%rax)
   10dfc:	c7 85 3c e4 ff ff 00 	movl   $0x0,-0x1bc4(%rbp)
   10e03:	00 00 00 
   10e06:	eb 1a                	jmp    10e22 <func_11+0x2fae>
   10e08:	8b 85 3c e4 ff ff    	mov    -0x1bc4(%rbp),%eax
   10e0e:	48 98                	cltq   
   10e10:	c7 84 85 80 e9 ff ff 	movl   $0xf8e960f7,-0x1680(%rbp,%rax,4)
   10e17:	f7 60 e9 f8 
   10e1b:	83 85 3c e4 ff ff 01 	addl   $0x1,-0x1bc4(%rbp)
   10e22:	83 bd 3c e4 ff ff 02 	cmpl   $0x2,-0x1bc4(%rbp)
   10e29:	7e dd                	jle    10e08 <func_11+0x2f94>
   10e2b:	44 0f b6 ad c8 e3 ff 	movzbl -0x1c38(%rbp),%r13d
   10e32:	ff 
   10e33:	8b 85 94 e4 ff ff    	mov    -0x1b6c(%rbp),%eax
   10e39:	44 0f be e0          	movsbl %al,%r12d
   10e3d:	8b 85 c4 e3 ff ff    	mov    -0x1c3c(%rbp),%eax
   10e43:	0f b6 d8             	movzbl %al,%ebx
   10e46:	8b 85 f8 e3 ff ff    	mov    -0x1c08(%rbp),%eax
   10e4c:	0f b7 c0             	movzwl %ax,%eax
   10e4f:	89 c6                	mov    %eax,%esi
   10e51:	bf ff ff 00 00       	mov    $0xffff,%edi
   10e56:	e8 a4 ae ff ff       	callq  bcff <safe_add_func_uint16_t_u_u>
   10e5b:	0f b6 c0             	movzbl %al,%eax
   10e5e:	be 6d 00 00 00       	mov    $0x6d,%esi
   10e63:	89 c7                	mov    %eax,%edi
   10e65:	e8 44 ad ff ff       	callq  bbae <safe_mod_func_uint8_t_u_u>
   10e6a:	44 0f b6 f0          	movzbl %al,%r14d
   10e6e:	48 8b 05 73 6a 01 00 	mov    0x16a73(%rip),%rax        # 278e8 <g_845>
   10e75:	48 8b 00             	mov    (%rax),%rax
   10e78:	48 8b 10             	mov    (%rax),%rdx
   10e7b:	0f b6 85 c8 e3 ff ff 	movzbl -0x1c38(%rbp),%eax
   10e82:	48 0b 85 80 e5 ff ff 	or     -0x1a80(%rbp),%rax
   10e89:	48 89 d6             	mov    %rdx,%rsi
   10e8c:	48 89 c7             	mov    %rax,%rdi
   10e8f:	e8 1b b2 ff ff       	callq  c0af <safe_div_func_uint64_t_u_u>
   10e94:	48 85 c0             	test   %rax,%rax
   10e97:	75 08                	jne    10ea1 <func_11+0x302d>
   10e99:	8b 85 c4 e3 ff ff    	mov    -0x1c3c(%rbp),%eax
   10e9f:	85 c0                	test   %eax,%eax
   10ea1:	48 8b 05 c0 21 01 00 	mov    0x121c0(%rip),%rax        # 23068 <g_63>
   10ea8:	89 c6                	mov    %eax,%esi
   10eaa:	bf 01 00 00 00       	mov    $0x1,%edi
   10eaf:	e8 1c b0 ff ff       	callq  bed0 <safe_sub_func_uint32_t_u_u>
   10eb4:	0f b7 c0             	movzwl %ax,%eax
   10eb7:	83 e0 07             	and    $0x7,%eax
   10eba:	be 04 00 00 00       	mov    $0x4,%esi
   10ebf:	89 c7                	mov    %eax,%edi
   10ec1:	e8 b4 af ff ff       	callq  be7a <safe_rshift_func_uint16_t_u_u>
   10ec6:	89 c1                	mov    %eax,%ecx
   10ec8:	48 8b 05 81 70 01 00 	mov    0x17081(%rip),%rax        # 27f50 <g_3661>
   10ecf:	48 8d 15 72 70 01 00 	lea    0x17072(%rip),%rdx        # 27f48 <g_3662>
   10ed6:	48 39 d0             	cmp    %rdx,%rax
   10ed9:	48 8b 85 00 e7 ff ff 	mov    -0x1900(%rbp),%rax
   10ee0:	0f b6 00             	movzbl (%rax),%eax
   10ee3:	89 ca                	mov    %ecx,%edx
   10ee5:	21 c2                	and    %eax,%edx
   10ee7:	48 8b 85 00 e7 ff ff 	mov    -0x1900(%rbp),%rax
   10eee:	88 10                	mov    %dl,(%rax)
   10ef0:	0f b7 05 f9 29 01 00 	movzwl 0x129f9(%rip),%eax        # 238f0 <g_3675>
   10ef7:	98                   	cwtl   
   10ef8:	ba 0f 56 03 cc       	mov    $0xcc03560f,%edx
   10efd:	21 c2                	and    %eax,%edx
   10eff:	8b 85 94 e4 ff ff    	mov    -0x1b6c(%rbp),%eax
   10f05:	89 c6                	mov    %eax,%esi
   10f07:	89 d7                	mov    %edx,%edi
   10f09:	e8 f7 a6 ff ff       	callq  b605 <safe_sub_func_int32_t_s_s>
   10f0e:	41 39 c6             	cmp    %eax,%r14d
   10f11:	0f 95 c0             	setne  %al
   10f14:	0f b6 c0             	movzbl %al,%eax
   10f17:	48 8b 95 e0 e4 ff ff 	mov    -0x1b20(%rbp),%rdx
   10f1e:	4c 8b 32             	mov    (%rdx),%r14
   10f21:	44 89 e9             	mov    %r13d,%ecx
   10f24:	44 89 e2             	mov    %r12d,%edx
   10f27:	89 de                	mov    %ebx,%esi
   10f29:	48 89 c7             	mov    %rax,%rdi
   10f2c:	e8 ed 90 00 00       	callq  1a01e <func_64>
   10f31:	49 89 06             	mov    %rax,(%r14)
   10f34:	48 8b 05 05 6a 01 00 	mov    0x16a05(%rip),%rax        # 27940 <g_1548>
   10f3b:	48 8b 00             	mov    (%rax),%rax
   10f3e:	8b 00                	mov    (%rax),%eax
   10f40:	85 c0                	test   %eax,%eax
   10f42:	0f 85 14 08 00 00    	jne    1175c <func_11+0x38e8>
   10f48:	8b 85 80 e9 ff ff    	mov    -0x1680(%rbp),%eax
   10f4e:	44 0f b7 e0          	movzwl %ax,%r12d
   10f52:	48 8b 85 e0 e4 ff ff 	mov    -0x1b20(%rbp),%rax
   10f59:	48 8b 00             	mov    (%rax),%rax
   10f5c:	48 8b 00             	mov    (%rax),%rax
   10f5f:	8b 00                	mov    (%rax),%eax
   10f61:	0f be d8             	movsbl %al,%ebx
   10f64:	44 0f b6 ad c8 e3 ff 	movzbl -0x1c38(%rbp),%r13d
   10f6b:	ff 
   10f6c:	8b 85 80 e9 ff ff    	mov    -0x1680(%rbp),%eax
   10f72:	48 63 d0             	movslq %eax,%rdx
   10f75:	48 8b 85 e0 e4 ff ff 	mov    -0x1b20(%rbp),%rax
   10f7c:	48 8b 00             	mov    (%rax),%rax
   10f7f:	48 8b 00             	mov    (%rax),%rax
   10f82:	8b 00                	mov    (%rax),%eax
   10f84:	48 98                	cltq   
   10f86:	48 89 d6             	mov    %rdx,%rsi
   10f89:	48 89 c7             	mov    %rax,%rdi
   10f8c:	e8 23 aa ff ff       	callq  b9b4 <safe_mod_func_int64_t_s_s>
   10f91:	0f b7 c0             	movzwl %ax,%eax
   10f94:	44 89 ee             	mov    %r13d,%esi
   10f97:	89 c7                	mov    %eax,%edi
   10f99:	e8 68 ae ff ff       	callq  be06 <safe_lshift_func_uint16_t_u_u>
   10f9e:	be 07 00 00 00       	mov    $0x7,%esi
   10fa3:	bf 01 00 00 00       	mov    $0x1,%edi
   10fa8:	e8 9f ac ff ff       	callq  bc4c <safe_lshift_func_uint8_t_u_u>
   10fad:	84 c0                	test   %al,%al
   10faf:	74 07                	je     10fb8 <func_11+0x3144>
   10fb1:	ba 01 00 00 00       	mov    $0x1,%edx
   10fb6:	eb 05                	jmp    10fbd <func_11+0x3149>
   10fb8:	ba 00 00 00 00       	mov    $0x0,%edx
   10fbd:	0f bf 85 cc e3 ff ff 	movswl -0x1c34(%rbp),%eax
   10fc4:	39 c2                	cmp    %eax,%edx
   10fc6:	0f 9c c0             	setl   %al
   10fc9:	0f b6 d0             	movzbl %al,%edx
   10fcc:	0f bf 85 cc e3 ff ff 	movswl -0x1c34(%rbp),%eax
   10fd3:	89 85 94 e4 ff ff    	mov    %eax,-0x1b6c(%rbp)
   10fd9:	8b 85 94 e4 ff ff    	mov    -0x1b6c(%rbp),%eax
   10fdf:	0f b7 c0             	movzwl %ax,%eax
   10fe2:	89 d6                	mov    %edx,%esi
   10fe4:	89 c7                	mov    %eax,%edi
   10fe6:	e8 52 ad ff ff       	callq  bd3d <safe_mul_func_uint16_t_u_u>
   10feb:	be 00 00 00 00       	mov    $0x0,%esi
   10ff0:	bf 00 00 00 00       	mov    $0x0,%edi
   10ff5:	e8 fb a3 ff ff       	callq  b3f5 <safe_mul_func_int16_t_s_s>
   10ffa:	48 0f bf d0          	movswq %ax,%rdx
   10ffe:	48 8b 05 4b 69 01 00 	mov    0x1694b(%rip),%rax        # 27950 <g_2137>
   11005:	48 8b 00             	mov    (%rax),%rax
   11008:	48 8b 00             	mov    (%rax),%rax
   1100b:	48 8b 00             	mov    (%rax),%rax
   1100e:	48 89 d6             	mov    %rdx,%rsi
   11011:	48 89 c7             	mov    %rax,%rdi
   11014:	e8 32 b0 ff ff       	callq  c04b <safe_sub_func_uint64_t_u_u>
   11019:	8b 85 c4 e3 ff ff    	mov    -0x1c3c(%rbp),%eax
   1101f:	0f b6 c0             	movzbl %al,%eax
   11022:	be 06 00 00 00       	mov    $0x6,%esi
   11027:	89 c7                	mov    %eax,%edi
   11029:	e8 5f ac ff ff       	callq  bc8d <safe_rshift_func_uint8_t_u_s>
   1102e:	0f b6 d0             	movzbl %al,%edx
   11031:	48 8b 05 10 69 01 00 	mov    0x16910(%rip),%rax        # 27948 <g_1770>
   11038:	48 8b 00             	mov    (%rax),%rax
   1103b:	48 8b 00             	mov    (%rax),%rax
   1103e:	0f b6 00             	movzbl (%rax),%eax
   11041:	3c ea                	cmp    $0xea,%al
   11043:	0f 95 c0             	setne  %al
   11046:	0f b6 c0             	movzbl %al,%eax
   11049:	89 d6                	mov    %edx,%esi
   1104b:	89 c7                	mov    %eax,%edi
   1104d:	e8 ad ac ff ff       	callq  bcff <safe_add_func_uint16_t_u_u>
   11052:	0f b7 d0             	movzwl %ax,%edx
   11055:	8b 85 88 e9 ff ff    	mov    -0x1678(%rbp),%eax
   1105b:	09 c2                	or     %eax,%edx
   1105d:	8b 85 84 e9 ff ff    	mov    -0x167c(%rbp),%eax
   11063:	39 c2                	cmp    %eax,%edx
   11065:	0f 9d c0             	setge  %al
   11068:	89 c2                	mov    %eax,%edx
   1106a:	48 8b 85 98 e5 ff ff 	mov    -0x1a68(%rbp),%rax
   11071:	8b 00                	mov    (%rax),%eax
   11073:	09 d0                	or     %edx,%eax
   11075:	0f b6 f0             	movzbl %al,%esi
   11078:	48 8b 85 e0 e4 ff ff 	mov    -0x1b20(%rbp),%rax
   1107f:	48 8b 00             	mov    (%rax),%rax
   11082:	48 8b 00             	mov    (%rax),%rax
   11085:	8b 00                	mov    (%rax),%eax
   11087:	48 98                	cltq   
   11089:	44 89 e1             	mov    %r12d,%ecx
   1108c:	89 da                	mov    %ebx,%edx
   1108e:	48 89 c7             	mov    %rax,%rdi
   11091:	e8 88 8f 00 00       	callq  1a01e <func_64>
   11096:	48 89 85 b0 e5 ff ff 	mov    %rax,-0x1a50(%rbp)
   1109d:	c6 85 c8 e3 ff ff 00 	movb   $0x0,-0x1c38(%rbp)
   110a4:	e9 68 06 00 00       	jmpq   11711 <func_11+0x389d>
   110a9:	c6 85 d7 e3 ff ff cf 	movb   $0xcf,-0x1c29(%rbp)
   110b0:	48 c7 85 10 e7 ff ff 	movq   $0x0,-0x18f0(%rbp)
   110b7:	00 00 00 00 
   110bb:	c7 85 98 e4 ff ff 01 	movl   $0x1,-0x1b68(%rbp)
   110c2:	00 00 00 
   110c5:	48 8d 05 9c 73 01 00 	lea    0x1739c(%rip),%rax        # 28468 <g_2816>
   110cc:	48 89 85 48 e5 ff ff 	mov    %rax,-0x1ab8(%rbp)
   110d3:	48 8d 85 48 e5 ff ff 	lea    -0x1ab8(%rbp),%rax
   110da:	48 89 85 50 e5 ff ff 	mov    %rax,-0x1ab0(%rbp)
   110e1:	48 8d 85 50 e5 ff ff 	lea    -0x1ab0(%rbp),%rax
   110e8:	48 89 85 10 eb ff ff 	mov    %rax,-0x14f0(%rbp)
   110ef:	48 8d 85 50 e5 ff ff 	lea    -0x1ab0(%rbp),%rax
   110f6:	48 89 85 18 eb ff ff 	mov    %rax,-0x14e8(%rbp)
   110fd:	48 8d 85 50 e5 ff ff 	lea    -0x1ab0(%rbp),%rax
   11104:	48 89 85 20 eb ff ff 	mov    %rax,-0x14e0(%rbp)
   1110b:	48 8d 85 50 e5 ff ff 	lea    -0x1ab0(%rbp),%rax
   11112:	48 89 85 28 eb ff ff 	mov    %rax,-0x14d8(%rbp)
   11119:	48 8d 85 50 e5 ff ff 	lea    -0x1ab0(%rbp),%rax
   11120:	48 89 85 30 eb ff ff 	mov    %rax,-0x14d0(%rbp)
   11127:	48 8d 85 10 eb ff ff 	lea    -0x14f0(%rbp),%rax
   1112e:	48 83 c0 20          	add    $0x20,%rax
   11132:	48 89 85 18 e7 ff ff 	mov    %rax,-0x18e8(%rbp)
   11139:	c7 85 40 e5 ff ff d6 	movl   $0xe23478d6,-0x1ac0(%rbp)
   11140:	78 34 e2 
   11143:	c7 85 9c e4 ff ff 01 	movl   $0x1,-0x1b64(%rbp)
   1114a:	00 00 00 
   1114d:	c7 85 a0 e4 ff ff f7 	movl   $0xfffffff7,-0x1b60(%rbp)
   11154:	ff ff ff 
   11157:	c7 85 a4 e4 ff ff 6d 	movl   $0xd969b96d,-0x1b5c(%rbp)
   1115e:	b9 69 d9 
   11161:	48 8b 85 e0 e4 ff ff 	mov    -0x1b20(%rbp),%rax
   11168:	48 8b 00             	mov    (%rax),%rax
   1116b:	48 8b 00             	mov    (%rax),%rax
   1116e:	8b 00                	mov    (%rax),%eax
   11170:	48 63 d8             	movslq %eax,%rbx
   11173:	8b 85 88 e9 ff ff    	mov    -0x1678(%rbp),%eax
   11179:	83 f0 01             	xor    $0x1,%eax
   1117c:	41 89 c4             	mov    %eax,%r12d
   1117f:	0f be 95 d7 e3 ff ff 	movsbl -0x1c29(%rbp),%edx
   11186:	48 8b 05 7b 68 01 00 	mov    0x1687b(%rip),%rax        # 27a08 <g_3589>
   1118d:	48 8b 00             	mov    (%rax),%rax
   11190:	48 39 85 10 e7 ff ff 	cmp    %rax,-0x18f0(%rbp)
   11197:	0f 95 c0             	setne  %al
   1119a:	0f b6 c8             	movzbl %al,%ecx
   1119d:	0f be 85 d7 e3 ff ff 	movsbl -0x1c29(%rbp),%eax
   111a4:	39 c1                	cmp    %eax,%ecx
   111a6:	0f 9f c0             	setg   %al
   111a9:	0f b6 c0             	movzbl %al,%eax
   111ac:	39 c2                	cmp    %eax,%edx
   111ae:	0f 9f c0             	setg   %al
   111b1:	0f b6 d0             	movzbl %al,%edx
   111b4:	0f b6 85 d7 e3 ff ff 	movzbl -0x1c29(%rbp),%eax
   111bb:	0f b6 c0             	movzbl %al,%eax
   111be:	89 d6                	mov    %edx,%esi
   111c0:	89 c7                	mov    %eax,%edi
   111c2:	e8 cc a9 ff ff       	callq  bb93 <safe_mul_func_uint8_t_u_u>
   111c7:	0f b6 d0             	movzbl %al,%edx
   111ca:	8b 85 c4 e3 ff ff    	mov    -0x1c3c(%rbp),%eax
   111d0:	09 d0                	or     %edx,%eax
   111d2:	89 85 c4 e3 ff ff    	mov    %eax,-0x1c3c(%rbp)
   111d8:	8b 85 c4 e3 ff ff    	mov    -0x1c3c(%rbp),%eax
   111de:	44 89 e6             	mov    %r12d,%esi
   111e1:	89 c7                	mov    %eax,%edi
   111e3:	e8 e4 a4 ff ff       	callq  b6cc <safe_mod_func_int32_t_s_s>
   111e8:	48 98                	cltq   
   111ea:	48 89 de             	mov    %rbx,%rsi
   111ed:	48 89 c7             	mov    %rax,%rdi
   111f0:	e8 bf a7 ff ff       	callq  b9b4 <safe_mod_func_int64_t_s_s>
   111f5:	48 89 c2             	mov    %rax,%rdx
   111f8:	48 8b 05 c9 66 01 00 	mov    0x166c9(%rip),%rax        # 278c8 <g_656>
   111ff:	89 10                	mov    %edx,(%rax)
   11201:	8b 00                	mov    (%rax),%eax
   11203:	85 c0                	test   %eax,%eax
   11205:	74 2b                	je     11232 <func_11+0x33be>
   11207:	66 83 bd cc e3 ff ff 	cmpw   $0x0,-0x1c34(%rbp)
   1120e:	00 
   1120f:	74 0f                	je     11220 <func_11+0x33ac>
   11211:	48 8b 05 d0 67 01 00 	mov    0x167d0(%rip),%rax        # 279e8 <g_3340>
   11218:	48 8b 00             	mov    (%rax),%rax
   1121b:	e9 44 05 00 00       	jmpq   11764 <func_11+0x38f0>
   11220:	48 8b 05 31 62 01 00 	mov    0x16231(%rip),%rax        # 27458 <g_207>
   11227:	48 8b 00             	mov    (%rax),%rax
   1122a:	48 8b 00             	mov    (%rax),%rax
   1122d:	e9 32 05 00 00       	jmpq   11764 <func_11+0x38f0>
   11232:	c6 85 d8 e3 ff ff cf 	movb   $0xcf,-0x1c28(%rbp)
   11239:	c7 85 a8 e4 ff ff 72 	movl   $0xc470a072,-0x1b58(%rbp)
   11240:	a0 70 c4 
   11243:	c7 85 ac e4 ff ff f8 	movl   $0xfffffff8,-0x1b54(%rbp)
   1124a:	ff ff ff 
   1124d:	c7 85 b0 e4 ff ff 6a 	movl   $0x3b1ee96a,-0x1b50(%rbp)
   11254:	e9 1e 3b 
   11257:	48 8d 85 e0 f7 ff ff 	lea    -0x820(%rbp),%rax
   1125e:	48 8d 15 5b c2 00 00 	lea    0xc25b(%rip),%rdx        # 1d4c0 <g_3481+0x420>
   11265:	b9 3c 00 00 00       	mov    $0x3c,%ecx
   1126a:	48 89 c7             	mov    %rax,%rdi
   1126d:	48 89 d6             	mov    %rdx,%rsi
   11270:	f3 48 a5             	rep movsq %ds:(%rsi),%es:(%rdi)
   11273:	66 c7 85 cc e3 ff ff 	movw   $0x7,-0x1c34(%rbp)
   1127a:	07 00 
   1127c:	e9 dd 01 00 00       	jmpq   1145e <func_11+0x35ea>
   11281:	c7 85 c8 e4 ff ff fa 	movl   $0xfffffffa,-0x1b38(%rbp)
   11288:	ff ff ff 
   1128b:	48 8d 05 66 66 01 00 	lea    0x16666(%rip),%rax        # 278f8 <g_912>
   11292:	48 89 85 58 e5 ff ff 	mov    %rax,-0x1aa8(%rbp)
   11299:	48 8d 85 58 e5 ff ff 	lea    -0x1aa8(%rbp),%rax
   112a0:	48 89 85 30 e7 ff ff 	mov    %rax,-0x18d0(%rbp)
   112a7:	83 85 c8 e4 ff ff 01 	addl   $0x1,-0x1b38(%rbp)
   112ae:	8b 05 40 26 01 00    	mov    0x12640(%rip),%eax        # 238f4 <g_3732>
   112b4:	44 0f b7 e0          	movzwl %ax,%r12d
   112b8:	0f b6 85 c8 e3 ff ff 	movzbl -0x1c38(%rbp),%eax
   112bf:	0f be d8             	movsbl %al,%ebx
   112c2:	44 0f b6 ad d8 e3 ff 	movzbl -0x1c28(%rbp),%r13d
   112c9:	ff 
   112ca:	48 8b 85 e0 e4 ff ff 	mov    -0x1b20(%rbp),%rax
   112d1:	48 8b 00             	mov    (%rax),%rax
   112d4:	48 8b 00             	mov    (%rax),%rax
   112d7:	8b 00                	mov    (%rax),%eax
   112d9:	44 0f be f0          	movsbl %al,%r14d
   112dd:	48 8b 05 e4 65 01 00 	mov    0x165e4(%rip),%rax        # 278c8 <g_656>
   112e4:	0f b6 85 d8 e3 ff ff 	movzbl -0x1c28(%rbp),%eax
   112eb:	0f be d0             	movsbl %al,%edx
   112ee:	8b 85 80 e9 ff ff    	mov    -0x1680(%rbp),%eax
   112f4:	0f be c0             	movsbl %al,%eax
   112f7:	89 d6                	mov    %edx,%esi
   112f9:	89 c7                	mov    %eax,%edi
   112fb:	e8 12 9f ff ff       	callq  b212 <safe_mul_func_int8_t_s_s>
   11300:	84 c0                	test   %al,%al
   11302:	75 07                	jne    1130b <func_11+0x3497>
   11304:	83 bd c8 e4 ff ff 00 	cmpl   $0x0,-0x1b38(%rbp)
   1130b:	be 01 00 00 00       	mov    $0x1,%esi
   11310:	bf 01 00 00 00       	mov    $0x1,%edi
   11315:	e8 99 a0 ff ff       	callq  b3b3 <safe_add_func_int16_t_s_s>
   1131a:	0f bf d0             	movswl %ax,%edx
   1131d:	8b 85 c4 e3 ff ff    	mov    -0x1c3c(%rbp),%eax
   11323:	31 d0                	xor    %edx,%eax
   11325:	0d c5 9e 79 2e       	or     $0x2e799ec5,%eax
   1132a:	89 c2                	mov    %eax,%edx
   1132c:	0f bf 85 cc e3 ff ff 	movswl -0x1c34(%rbp),%eax
   11333:	39 c2                	cmp    %eax,%edx
   11335:	0f 94 c0             	sete   %al
   11338:	0f b6 d0             	movzbl %al,%edx
   1133b:	0f b6 85 c8 e3 ff ff 	movzbl -0x1c38(%rbp),%eax
   11342:	39 c2                	cmp    %eax,%edx
   11344:	0f 95 c0             	setne  %al
   11347:	0f b6 c0             	movzbl %al,%eax
   1134a:	89 85 c4 e3 ff ff    	mov    %eax,-0x1c3c(%rbp)
   11350:	8b 95 c4 e3 ff ff    	mov    -0x1c3c(%rbp),%edx
   11356:	0f b6 85 c8 e3 ff ff 	movzbl -0x1c38(%rbp),%eax
   1135d:	39 c2                	cmp    %eax,%edx
   1135f:	74 11                	je     11372 <func_11+0x34fe>
   11361:	8b 85 c4 e3 ff ff    	mov    -0x1c3c(%rbp),%eax
   11367:	85 c0                	test   %eax,%eax
   11369:	74 07                	je     11372 <func_11+0x34fe>
   1136b:	b8 01 00 00 00       	mov    $0x1,%eax
   11370:	eb 05                	jmp    11377 <func_11+0x3503>
   11372:	b8 00 00 00 00       	mov    $0x0,%eax
   11377:	48 98                	cltq   
   11379:	48 c7 c6 ff ff ff ff 	mov    $0xffffffffffffffff,%rsi
   11380:	48 89 c7             	mov    %rax,%rdi
   11383:	e8 27 ad ff ff       	callq  c0af <safe_div_func_uint64_t_u_u>
   11388:	48 89 c2             	mov    %rax,%rdx
   1138b:	48 0f bf 85 cc e3 ff 	movswq -0x1c34(%rbp),%rax
   11392:	ff 
   11393:	48 89 d6             	mov    %rdx,%rsi
   11396:	48 89 c7             	mov    %rax,%rdi
   11399:	e8 ad ac ff ff       	callq  c04b <safe_sub_func_uint64_t_u_u>
   1139e:	49 89 c7             	mov    %rax,%r15
   113a1:	48 8b 85 98 e5 ff ff 	mov    -0x1a68(%rbp),%rax
   113a8:	8b 00                	mov    (%rax),%eax
   113aa:	0f be c0             	movsbl %al,%eax
   113ad:	be 91 ff ff ff       	mov    $0xffffff91,%esi
   113b2:	89 c7                	mov    %eax,%edi
   113b4:	e8 59 9e ff ff       	callq  b212 <safe_mul_func_int8_t_s_s>
   113b9:	48 0f be c0          	movsbq %al,%rax
   113bd:	4c 89 fe             	mov    %r15,%rsi
   113c0:	48 89 c7             	mov    %rax,%rdi
   113c3:	e8 79 a4 ff ff       	callq  b841 <safe_add_func_int64_t_s_s>
   113c8:	8b 85 04 f3 ff ff    	mov    -0xcfc(%rbp),%eax
   113ce:	85 c0                	test   %eax,%eax
   113d0:	74 09                	je     113db <func_11+0x3567>
   113d2:	0f b6 05 ca 1c 01 00 	movzbl 0x11cca(%rip),%eax        # 230a3 <g_159>
   113d9:	84 c0                	test   %al,%al
   113db:	48 8b 05 d6 64 01 00 	mov    0x164d6(%rip),%rax        # 278b8 <g_464>
   113e2:	0f b6 00             	movzbl (%rax),%eax
   113e5:	0f be c0             	movsbl %al,%eax
   113e8:	44 89 f6             	mov    %r14d,%esi
   113eb:	89 c7                	mov    %eax,%edi
   113ed:	e8 20 9e ff ff       	callq  b212 <safe_mul_func_int8_t_s_s>
   113f2:	0f be c0             	movsbl %al,%eax
   113f5:	89 85 98 e4 ff ff    	mov    %eax,-0x1b68(%rbp)
   113fb:	48 8b 05 e6 64 01 00 	mov    0x164e6(%rip),%rax        # 278e8 <g_845>
   11402:	48 8b 00             	mov    (%rax),%rax
   11405:	48 8b 10             	mov    (%rax),%rdx
   11408:	0f b6 85 d8 e3 ff ff 	movzbl -0x1c28(%rbp),%eax
   1140f:	48 39 c2             	cmp    %rax,%rdx
   11412:	0f 95 c0             	setne  %al
   11415:	0f b6 c0             	movzbl %al,%eax
   11418:	44 89 ee             	mov    %r13d,%esi
   1141b:	89 c7                	mov    %eax,%edi
   1141d:	e8 38 a7 ff ff       	callq  bb5a <safe_add_func_uint8_t_u_u>
   11422:	0f b6 f0             	movzbl %al,%esi
   11425:	48 8b 05 bc 64 01 00 	mov    0x164bc(%rip),%rax        # 278e8 <g_845>
   1142c:	48 8b 00             	mov    (%rax),%rax
   1142f:	48 8b 00             	mov    (%rax),%rax
   11432:	48 8b 95 e0 e4 ff ff 	mov    -0x1b20(%rbp),%rdx
   11439:	4c 8b 2a             	mov    (%rdx),%r13
   1143c:	44 89 e1             	mov    %r12d,%ecx
   1143f:	89 da                	mov    %ebx,%edx
   11441:	48 89 c7             	mov    %rax,%rdi
   11444:	e8 d5 8b 00 00       	callq  1a01e <func_64>
   11449:	49 89 45 00          	mov    %rax,0x0(%r13)
   1144d:	0f b7 85 cc e3 ff ff 	movzwl -0x1c34(%rbp),%eax
   11454:	83 e8 01             	sub    $0x1,%eax
   11457:	66 89 85 cc e3 ff ff 	mov    %ax,-0x1c34(%rbp)
   1145e:	66 83 bd cc e3 ff ff 	cmpw   $0xfff7,-0x1c34(%rbp)
   11465:	f7 
   11466:	0f 8d 15 fe ff ff    	jge    11281 <func_11+0x340d>
   1146c:	c6 05 2f 1c 01 00 00 	movb   $0x0,0x11c2f(%rip)        # 230a2 <g_111>
   11473:	eb 4f                	jmp    114c4 <func_11+0x3650>
   11475:	48 8b 05 b4 5f 01 00 	mov    0x15fb4(%rip),%rax        # 27430 <g_209>
   1147c:	8b 10                	mov    (%rax),%edx
   1147e:	48 8b 85 98 e5 ff ff 	mov    -0x1a68(%rbp),%rax
   11485:	89 10                	mov    %edx,(%rax)
   11487:	48 8b 85 98 e5 ff ff 	mov    -0x1a68(%rbp),%rax
   1148e:	8b 10                	mov    (%rax),%edx
   11490:	48 8b 85 78 e5 ff ff 	mov    -0x1a88(%rbp),%rax
   11497:	48 8b 00             	mov    (%rax),%rax
   1149a:	48 8b 00             	mov    (%rax),%rax
   1149d:	48 8b 00             	mov    (%rax),%rax
   114a0:	48 85 c0             	test   %rax,%rax
   114a3:	0f 94 c0             	sete   %al
   114a6:	0f b6 c0             	movzbl %al,%eax
   114a9:	21 c2                	and    %eax,%edx
   114ab:	48 8b 85 98 e5 ff ff 	mov    -0x1a68(%rbp),%rax
   114b2:	89 10                	mov    %edx,(%rax)
   114b4:	0f b6 05 e7 1b 01 00 	movzbl 0x11be7(%rip),%eax        # 230a2 <g_111>
   114bb:	83 c0 01             	add    $0x1,%eax
   114be:	88 05 de 1b 01 00    	mov    %al,0x11bde(%rip)        # 230a2 <g_111>
   114c4:	0f b6 05 d7 1b 01 00 	movzbl 0x11bd7(%rip),%eax        # 230a2 <g_111>
   114cb:	3c 16                	cmp    $0x16,%al
   114cd:	76 a6                	jbe    11475 <func_11+0x3601>
   114cf:	c7 05 a7 1f 01 00 ef 	movl   $0xffffffef,0x11fa7(%rip)        # 23480 <g_486>
   114d6:	ff ff ff 
   114d9:	eb 20                	jmp    114fb <func_11+0x3687>
   114db:	c7 85 c4 e4 ff ff 00 	movl   $0x0,-0x1b3c(%rbp)
   114e2:	00 00 00 
   114e5:	83 ad c4 e4 ff ff 01 	subl   $0x1,-0x1b3c(%rbp)
   114ec:	8b 05 8e 1f 01 00    	mov    0x11f8e(%rip),%eax        # 23480 <g_486>
   114f2:	83 c0 01             	add    $0x1,%eax
   114f5:	89 05 85 1f 01 00    	mov    %eax,0x11f85(%rip)        # 23480 <g_486>
   114fb:	8b 05 7f 1f 01 00    	mov    0x11f7f(%rip),%eax        # 23480 <g_486>
   11501:	83 f8 35             	cmp    $0x35,%eax
   11504:	74 d5                	je     114db <func_11+0x3667>
   11506:	48 83 bd 18 e7 ff ff 	cmpq   $0x0,-0x18e8(%rbp)
   1150d:	00 
   1150e:	0f 94 c0             	sete   %al
   11511:	0f b6 d8             	movzbl %al,%ebx
   11514:	0f bf 85 cc e3 ff ff 	movswl -0x1c34(%rbp),%eax
   1151b:	89 c6                	mov    %eax,%esi
   1151d:	bf 00 00 00 00       	mov    $0x0,%edi
   11522:	e8 97 a7 ff ff       	callq  bcbe <safe_rshift_func_uint8_t_u_u>
   11527:	0f b6 c0             	movzbl %al,%eax
   1152a:	be 01 00 00 00       	mov    $0x1,%esi
   1152f:	89 c7                	mov    %eax,%edi
   11531:	e8 c9 a7 ff ff       	callq  bcff <safe_add_func_uint16_t_u_u>
   11536:	48 8b 95 00 e5 ff ff 	mov    -0x1b00(%rbp),%rdx
   1153d:	48 8b 12             	mov    (%rdx),%rdx
   11540:	48 8b 0a             	mov    (%rdx),%rcx
   11543:	0f b7 d0             	movzwl %ax,%edx
   11546:	48 8b 85 00 e5 ff ff 	mov    -0x1b00(%rbp),%rax
   1154d:	48 8b 00             	mov    (%rax),%rax
   11550:	48 31 ca             	xor    %rcx,%rdx
   11553:	48 89 10             	mov    %rdx,(%rax)
   11556:	48 8b 00             	mov    (%rax),%rax
   11559:	48 85 c0             	test   %rax,%rax
   1155c:	48 8b 85 b0 e5 ff ff 	mov    -0x1a50(%rbp),%rax
   11563:	8b 00                	mov    (%rax),%eax
   11565:	89 c2                	mov    %eax,%edx
   11567:	48 8b 05 4a 63 01 00 	mov    0x1634a(%rip),%rax        # 278b8 <g_464>
   1156e:	0f b6 00             	movzbl (%rax),%eax
   11571:	3c 85                	cmp    $0x85,%al
   11573:	0f 96 c0             	setbe  %al
   11576:	21 d0                	and    %edx,%eax
   11578:	0f b6 d0             	movzbl %al,%edx
   1157b:	8b 85 a8 e4 ff ff    	mov    -0x1b58(%rbp),%eax
   11581:	0f b6 c0             	movzbl %al,%eax
   11584:	89 d6                	mov    %edx,%esi
   11586:	89 c7                	mov    %eax,%edi
   11588:	e8 06 a6 ff ff       	callq  bb93 <safe_mul_func_uint8_t_u_u>
   1158d:	0f b6 c0             	movzbl %al,%eax
   11590:	39 c3                	cmp    %eax,%ebx
   11592:	0f 9c c0             	setl   %al
   11595:	89 c2                	mov    %eax,%edx
   11597:	48 8b 85 00 e7 ff ff 	mov    -0x1900(%rbp),%rax
   1159e:	88 10                	mov    %dl,(%rax)
   115a0:	48 8b 85 00 e7 ff ff 	mov    -0x1900(%rbp),%rax
   115a7:	0f b6 00             	movzbl (%rax),%eax
   115aa:	0f be c0             	movsbl %al,%eax
   115ad:	89 85 f8 e3 ff ff    	mov    %eax,-0x1c08(%rbp)
   115b3:	83 bd f8 e3 ff ff 00 	cmpl   $0x0,-0x1c08(%rbp)
   115ba:	0f 84 8c 00 00 00    	je     1164c <func_11+0x37d8>
   115c0:	c6 85 d9 e3 ff ff 08 	movb   $0x8,-0x1c27(%rbp)
   115c7:	c7 85 b4 e4 ff ff bb 	movl   $0x717b8bbb,-0x1b4c(%rbp)
   115ce:	8b 7b 71 
   115d1:	c7 85 b8 e4 ff ff bd 	movl   $0x4002f3bd,-0x1b48(%rbp)
   115d8:	f3 02 40 
   115db:	c7 85 bc e4 ff ff 96 	movl   $0xeabc9096,-0x1b44(%rbp)
   115e2:	90 bc ea 
   115e5:	c7 85 c0 e4 ff ff 87 	movl   $0x6a532987,-0x1b40(%rbp)
   115ec:	29 53 6a 
   115ef:	48 c7 85 28 e7 ff ff 	movq   $0x0,-0x18d8(%rbp)
   115f6:	00 00 00 00 
   115fa:	48 8b 85 00 e9 ff ff 	mov    -0x1700(%rbp),%rax
   11601:	48 83 e8 01          	sub    $0x1,%rax
   11605:	48 89 85 00 e9 ff ff 	mov    %rax,-0x1700(%rbp)
   1160c:	48 83 ad 28 e7 ff ff 	subq   $0x1,-0x18d8(%rbp)
   11613:	01 
   11614:	48 8b 85 98 e5 ff ff 	mov    -0x1a68(%rbp),%rax
   1161b:	8b 00                	mov    (%rax),%eax
   1161d:	0b 85 a0 e4 ff ff    	or     -0x1b60(%rbp),%eax
   11623:	89 c2                	mov    %eax,%edx
   11625:	48 8b 85 98 e5 ff ff 	mov    -0x1a68(%rbp),%rax
   1162c:	89 10                	mov    %edx,(%rax)
   1162e:	0f b6 85 c8 e3 ff ff 	movzbl -0x1c38(%rbp),%eax
   11635:	be 06 00 00 00       	mov    $0x6,%esi
   1163a:	89 c7                	mov    %eax,%edi
   1163c:	e8 77 a8 ff ff       	callq  beb8 <safe_add_func_uint32_t_u_u>
   11641:	88 85 c8 e3 ff ff    	mov    %al,-0x1c38(%rbp)
   11647:	e9 c5 00 00 00       	jmpq   11711 <func_11+0x389d>
   1164c:	48 c7 85 20 e7 ff ff 	movq   $0x0,-0x18e0(%rbp)
   11653:	00 00 00 00 
   11657:	48 8b 85 98 e5 ff ff 	mov    -0x1a68(%rbp),%rax
   1165e:	c7 00 01 00 00 00    	movl   $0x1,(%rax)
   11664:	0f b6 85 c8 e3 ff ff 	movzbl -0x1c38(%rbp),%eax
   1166b:	66 89 85 cc e3 ff ff 	mov    %ax,-0x1c34(%rbp)
   11672:	48 8b 85 08 e5 ff ff 	mov    -0x1af8(%rbp),%rax
   11679:	48 8b 00             	mov    (%rax),%rax
   1167c:	48 8b 00             	mov    (%rax),%rax
   1167f:	48 c7 00 00 00 00 00 	movq   $0x0,(%rax)
   11686:	48 c7 c6 fe ff ff ff 	mov    $0xfffffffffffffffe,%rsi
   1168d:	bf 00 00 00 00       	mov    $0x0,%edi
   11692:	e8 e9 a9 ff ff       	callq  c080 <safe_mod_func_uint64_t_u_u>
   11697:	0f be c0             	movsbl %al,%eax
   1169a:	be 06 00 00 00       	mov    $0x6,%esi
   1169f:	89 c7                	mov    %eax,%edi
   116a1:	e8 8b 9b ff ff       	callq  b231 <safe_mod_func_int8_t_s_s>
   116a6:	48 0f be c0          	movsbq %al,%rax
   116aa:	48 c7 c6 f8 ff ff ff 	mov    $0xfffffffffffffff8,%rsi
   116b1:	48 89 c7             	mov    %rax,%rdi
   116b4:	e8 c7 a9 ff ff       	callq  c080 <safe_mod_func_uint64_t_u_u>
   116b9:	48 8b 85 90 e5 ff ff 	mov    -0x1a70(%rbp),%rax
   116c0:	0f b7 00             	movzwl (%rax),%eax
   116c3:	83 e0 02             	and    $0x2,%eax
   116c6:	89 c2                	mov    %eax,%edx
   116c8:	48 8b 85 90 e5 ff ff 	mov    -0x1a70(%rbp),%rax
   116cf:	66 89 10             	mov    %dx,(%rax)
   116d2:	48 8b 85 90 e5 ff ff 	mov    -0x1a70(%rbp),%rax
   116d9:	0f b7 00             	movzwl (%rax),%eax
   116dc:	0f bf d0             	movswl %ax,%edx
   116df:	48 8b 85 b0 e5 ff ff 	mov    -0x1a50(%rbp),%rax
   116e6:	8b 00                	mov    (%rax),%eax
   116e8:	39 c2                	cmp    %eax,%edx
   116ea:	7e 08                	jle    116f4 <func_11+0x3880>
   116ec:	66 83 bd cc e3 ff ff 	cmpw   $0x0,-0x1c34(%rbp)
   116f3:	00 
   116f4:	48 8b 05 5d 5d 01 00 	mov    0x15d5d(%rip),%rax        # 27458 <g_207>
   116fb:	48 8b 00             	mov    (%rax),%rax
   116fe:	48 8d 95 40 e5 ff ff 	lea    -0x1ac0(%rbp),%rdx
   11705:	48 89 10             	mov    %rdx,(%rax)
   11708:	48 8b 85 20 e7 ff ff 	mov    -0x18e0(%rbp),%rax
   1170f:	eb 53                	jmp    11764 <func_11+0x38f0>
   11711:	80 bd c8 e3 ff ff 16 	cmpb   $0x16,-0x1c38(%rbp)
   11718:	0f 87 8b f9 ff ff    	ja     110a9 <func_11+0x3235>
   1171e:	eb 01                	jmp    11721 <func_11+0x38ad>
   11720:	90                   	nop
   11721:	48 8b 05 40 19 01 00 	mov    0x11940(%rip),%rax        # 23068 <g_63>
   11728:	98                   	cwtl   
   11729:	be 03 00 00 00       	mov    $0x3,%esi
   1172e:	89 c7                	mov    %eax,%edi
   11730:	e8 7e 9c ff ff       	callq  b3b3 <safe_add_func_int16_t_s_s>
   11735:	48 0f bf c0          	movswq %ax,%rax
   11739:	48 89 05 28 19 01 00 	mov    %rax,0x11928(%rip)        # 23068 <g_63>
   11740:	48 8b 05 21 19 01 00 	mov    0x11921(%rip),%rax        # 23068 <g_63>
   11747:	48 83 f8 30          	cmp    $0x30,%rax
   1174b:	0f 85 fb c8 ff ff    	jne    e04c <func_11+0x1d8>
   11751:	eb 0a                	jmp    1175d <func_11+0x38e9>
   11753:	90                   	nop
   11754:	eb 07                	jmp    1175d <func_11+0x38e9>
   11756:	90                   	nop
   11757:	eb 04                	jmp    1175d <func_11+0x38e9>
   11759:	90                   	nop
   1175a:	eb 01                	jmp    1175d <func_11+0x38e9>
   1175c:	90                   	nop
   1175d:	48 8b 05 f4 67 01 00 	mov    0x167f4(%rip),%rax        # 27f58 <g_3778>
   11764:	48 8b 5d c8          	mov    -0x38(%rbp),%rbx
   11768:	64 48 33 1c 25 28 00 	xor    %fs:0x28,%rbx
   1176f:	00 00 
   11771:	74 05                	je     11778 <func_11+0x3904>
   11773:	e8 f8 98 ff ff       	callq  b070 <__stack_chk_fail@plt>
   11778:	48 81 c4 28 1c 00 00 	add    $0x1c28,%rsp
   1177f:	5b                   	pop    %rbx
   11780:	41 5c                	pop    %r12
   11782:	41 5d                	pop    %r13
   11784:	41 5e                	pop    %r14
   11786:	41 5f                	pop    %r15
   11788:	5d                   	pop    %rbp
   11789:	c3                   	retq   

000000000001178a <func_17>:
   1178a:	f3 0f 1e fa          	endbr64 
   1178e:	55                   	push   %rbp
   1178f:	48 89 e5             	mov    %rsp,%rbp
   11792:	41 57                	push   %r15
   11794:	41 56                	push   %r14
   11796:	41 55                	push   %r13
   11798:	41 54                	push   %r12
   1179a:	53                   	push   %rbx
   1179b:	48 81 ec 00 10 00 00 	sub    $0x1000,%rsp
   117a2:	48 83 0c 24 00       	orq    $0x0,(%rsp)
   117a7:	48 81 ec 98 00 00 00 	sub    $0x98,%rsp
   117ae:	89 f8                	mov    %edi,%eax
   117b0:	88 85 4c ef ff ff    	mov    %al,-0x10b4(%rbp)
   117b6:	64 48 8b 04 25 28 00 	mov    %fs:0x28,%rax
   117bd:	00 00 
   117bf:	48 89 45 c8          	mov    %rax,-0x38(%rbp)
   117c3:	31 c0                	xor    %eax,%eax
   117c5:	c7 85 7c ef ff ff e9 	movl   $0xd7d2a7e9,-0x1084(%rbp)
   117cc:	a7 d2 d7 
   117cf:	c7 85 a0 ef ff ff 00 	movl   $0x0,-0x1060(%rbp)
   117d6:	00 00 00 
   117d9:	c7 85 64 ef ff ff 95 	movl   $0x27163995,-0x109c(%rbp)
   117e0:	39 16 27 
   117e3:	c7 85 68 ef ff ff 42 	movl   $0x2c7a2e42,-0x1098(%rbp)
   117ea:	2e 7a 2c 
   117ed:	c7 85 6c ef ff ff de 	movl   $0x597618de,-0x1094(%rbp)
   117f4:	18 76 59 
   117f7:	48 8d 85 30 f3 ff ff 	lea    -0xcd0(%rbp),%rax
   117fe:	48 8d 15 9b be 00 00 	lea    0xbe9b(%rip),%rdx        # 1d6a0 <g_3481+0x600>
   11805:	b9 23 00 00 00       	mov    $0x23,%ecx
   1180a:	48 89 c7             	mov    %rax,%rdi
   1180d:	48 89 d6             	mov    %rdx,%rsi
   11810:	f3 48 a5             	rep movsq %ds:(%rsi),%es:(%rdi)
   11813:	c7 85 70 ef ff ff 01 	movl   $0x1,-0x1090(%rbp)
   1181a:	00 00 00 
   1181d:	c6 85 50 ef ff ff f7 	movb   $0xf7,-0x10b0(%rbp)
   11824:	48 8d 05 55 1c 01 00 	lea    0x11c55(%rip),%rax        # 23480 <g_486>
   1182b:	48 89 85 40 f0 ff ff 	mov    %rax,-0xfc0(%rbp)
   11832:	48 c7 85 00 f0 ff ff 	movq   $0x0,-0x1000(%rbp)
   11839:	00 00 00 00 
   1183d:	48 8d 05 1c 5c 01 00 	lea    0x15c1c(%rip),%rax        # 27460 <g_246>
   11844:	48 89 85 48 f0 ff ff 	mov    %rax,-0xfb8(%rbp)
   1184b:	c7 85 a4 ef ff ff fa 	movl   $0xfffffffa,-0x105c(%rbp)
   11852:	ff ff ff 
   11855:	c7 85 a8 ef ff ff 4f 	movl   $0x36c46f4f,-0x1058(%rbp)
   1185c:	6f c4 36 
   1185f:	48 8d 05 e2 60 01 00 	lea    0x160e2(%rip),%rax        # 27948 <g_1770>
   11866:	48 89 85 50 f0 ff ff 	mov    %rax,-0xfb0(%rbp)
   1186d:	c7 85 ac ef ff ff cb 	movl   $0xcb5c66cb,-0x1054(%rbp)
   11874:	66 5c cb 
   11877:	66 c7 85 58 ef ff ff 	movw   $0xf8a4,-0x10a8(%rbp)
   1187e:	a4 f8 
   11880:	48 8d 85 6c ef ff ff 	lea    -0x1094(%rbp),%rax
   11887:	48 89 85 58 f0 ff ff 	mov    %rax,-0xfa8(%rbp)
   1188e:	48 8d 05 63 60 01 00 	lea    0x16063(%rip),%rax        # 278f8 <g_912>
   11895:	48 89 85 60 f0 ff ff 	mov    %rax,-0xfa0(%rbp)
   1189c:	48 8d 85 00 f0 ff ff 	lea    -0x1000(%rbp),%rax
   118a3:	48 89 85 08 f0 ff ff 	mov    %rax,-0xff8(%rbp)
   118aa:	48 8d 85 08 f0 ff ff 	lea    -0xff8(%rbp),%rax
   118b1:	48 89 85 68 f0 ff ff 	mov    %rax,-0xf98(%rbp)
   118b8:	c7 85 b0 ef ff ff f1 	movl   $0x308c50f1,-0x1050(%rbp)
   118bf:	50 8c 30 
   118c2:	c7 85 b4 ef ff ff ff 	movl   $0xffffffff,-0x104c(%rbp)
   118c9:	ff ff ff 
   118cc:	c6 85 51 ef ff ff 03 	movb   $0x3,-0x10af(%rbp)
   118d3:	66 c7 85 5a ef ff ff 	movw   $0xc4ab,-0x10a6(%rbp)
   118da:	ab c4 
   118dc:	48 c7 85 10 f0 ff ff 	movq   $0x1,-0xff0(%rbp)
   118e3:	01 00 00 00 
   118e7:	66 c7 85 5c ef ff ff 	movw   $0x9b62,-0x10a4(%rbp)
   118ee:	62 9b 
   118f0:	48 8d 05 19 6b 01 00 	lea    0x16b19(%rip),%rax        # 28410 <g_1862>
   118f7:	48 89 85 70 f0 ff ff 	mov    %rax,-0xf90(%rbp)
   118fe:	48 8d 05 3b 5b 01 00 	lea    0x15b3b(%rip),%rax        # 27440 <g_208>
   11905:	48 89 85 78 f0 ff ff 	mov    %rax,-0xf88(%rbp)
   1190c:	48 8d 05 1d 5b 01 00 	lea    0x15b1d(%rip),%rax        # 27430 <g_209>
   11913:	48 89 85 18 f0 ff ff 	mov    %rax,-0xfe8(%rbp)
   1191a:	48 8d 85 18 f0 ff ff 	lea    -0xfe8(%rbp),%rax
   11921:	48 89 85 80 f0 ff ff 	mov    %rax,-0xf80(%rbp)
   11928:	66 c7 85 5e ef ff ff 	movw   $0xffff,-0x10a2(%rbp)
   1192f:	ff ff 
   11931:	c7 85 80 ef ff ff 00 	movl   $0x0,-0x1080(%rbp)
   11938:	00 00 00 
   1193b:	eb 4d                	jmp    1198a <func_17+0x200>
   1193d:	c7 85 84 ef ff ff 00 	movl   $0x0,-0x107c(%rbp)
   11944:	00 00 00 
   11947:	eb 31                	jmp    1197a <func_17+0x1f0>
   11949:	8b 85 84 ef ff ff    	mov    -0x107c(%rbp),%eax
   1194f:	48 63 c8             	movslq %eax,%rcx
   11952:	8b 85 80 ef ff ff    	mov    -0x1080(%rbp),%eax
   11958:	48 63 d0             	movslq %eax,%rdx
   1195b:	48 89 d0             	mov    %rdx,%rax
   1195e:	48 c1 e0 02          	shl    $0x2,%rax
   11962:	48 01 d0             	add    %rdx,%rax
   11965:	48 01 c8             	add    %rcx,%rax
   11968:	c7 84 85 b0 f1 ff ff 	movl   $0xfffffffb,-0xe50(%rbp,%rax,4)
   1196f:	fb ff ff ff 
   11973:	83 85 84 ef ff ff 01 	addl   $0x1,-0x107c(%rbp)
   1197a:	83 bd 84 ef ff ff 04 	cmpl   $0x4,-0x107c(%rbp)
   11981:	7e c6                	jle    11949 <func_17+0x1bf>
   11983:	83 85 80 ef ff ff 01 	addl   $0x1,-0x1080(%rbp)
   1198a:	83 bd 80 ef ff ff 00 	cmpl   $0x0,-0x1080(%rbp)
   11991:	7e aa                	jle    1193d <func_17+0x1b3>
   11993:	c6 85 4c ef ff ff 00 	movb   $0x0,-0x10b4(%rbp)
   1199a:	e9 14 01 00 00       	jmpq   11ab3 <func_17+0x329>
   1199f:	48 c7 85 40 f8 ff ff 	movq   $0x0,-0x7c0(%rbp)
   119a6:	00 00 00 00 
   119aa:	48 8d 05 8f 16 01 00 	lea    0x1168f(%rip),%rax        # 23040 <g_22>
   119b1:	48 89 85 48 f8 ff ff 	mov    %rax,-0x7b8(%rbp)
   119b8:	48 c7 85 50 f8 ff ff 	movq   $0x0,-0x7b0(%rbp)
   119bf:	00 00 00 00 
   119c3:	48 c7 85 58 f8 ff ff 	movq   $0x0,-0x7a8(%rbp)
   119ca:	00 00 00 00 
   119ce:	48 c7 85 60 f8 ff ff 	movq   $0x0,-0x7a0(%rbp)
   119d5:	00 00 00 00 
   119d9:	48 c7 85 68 f8 ff ff 	movq   $0x0,-0x798(%rbp)
   119e0:	00 00 00 00 
   119e4:	48 8d 05 55 16 01 00 	lea    0x11655(%rip),%rax        # 23040 <g_22>
   119eb:	48 89 85 70 f8 ff ff 	mov    %rax,-0x790(%rbp)
   119f2:	48 c7 85 78 f8 ff ff 	movq   $0x0,-0x788(%rbp)
   119f9:	00 00 00 00 
   119fd:	48 c7 85 80 f8 ff ff 	movq   $0x0,-0x780(%rbp)
   11a04:	00 00 00 00 
   11a08:	48 c7 85 88 f8 ff ff 	movq   $0x0,-0x778(%rbp)
   11a0f:	00 00 00 00 
   11a13:	66 c7 85 62 ef ff ff 	movw   $0xfffe,-0x109e(%rbp)
   11a1a:	fe ff 
   11a1c:	c7 85 f4 ef ff ff 04 	movl   $0x4,-0x100c(%rbp)
   11a23:	00 00 00 
   11a26:	c7 85 f8 ef ff ff ff 	movl   $0xffffffff,-0x1008(%rbp)
   11a2d:	ff ff ff 
   11a30:	83 ad f8 ef ff ff 01 	subl   $0x1,-0x1008(%rbp)
   11a37:	c7 85 70 ef ff ff 00 	movl   $0x0,-0x1090(%rbp)
   11a3e:	00 00 00 
   11a41:	eb 5b                	jmp    11a9e <func_17+0x314>
   11a43:	48 8d 05 1e 16 01 00 	lea    0x1161e(%rip),%rax        # 23068 <g_63>
   11a4a:	48 89 85 80 f1 ff ff 	mov    %rax,-0xe80(%rbp)
   11a51:	48 8d 05 fc b5 00 00 	lea    0xb5fc(%rip),%rax        # 1d054 <g_74>
   11a58:	48 89 85 38 f0 ff ff 	mov    %rax,-0xfc8(%rbp)
   11a5f:	48 8d 85 38 f0 ff ff 	lea    -0xfc8(%rbp),%rax
   11a66:	48 89 85 88 f1 ff ff 	mov    %rax,-0xe78(%rbp)
   11a6d:	c7 85 fc ef ff ff 3f 	movl   $0xae0f1b3f,-0x1004(%rbp)
   11a74:	1b 0f ae 
   11a77:	48 8d 85 68 ef ff ff 	lea    -0x1098(%rbp),%rax
   11a7e:	48 89 85 90 f1 ff ff 	mov    %rax,-0xe70(%rbp)
   11a85:	8b 05 c9 15 01 00    	mov    0x115c9(%rip),%eax        # 23054 <g_22+0x14>
   11a8b:	85 c0                	test   %eax,%eax
   11a8d:	75 1c                	jne    11aab <func_17+0x321>
   11a8f:	8b 85 70 ef ff ff    	mov    -0x1090(%rbp),%eax
   11a95:	83 c0 01             	add    $0x1,%eax
   11a98:	89 85 70 ef ff ff    	mov    %eax,-0x1090(%rbp)
   11a9e:	8b 85 70 ef ff ff    	mov    -0x1090(%rbp),%eax
   11aa4:	83 f8 1c             	cmp    $0x1c,%eax
   11aa7:	7e 9a                	jle    11a43 <func_17+0x2b9>
   11aa9:	eb 01                	jmp    11aac <func_17+0x322>
   11aab:	90                   	nop
   11aac:	80 85 4c ef ff ff 01 	addb   $0x1,-0x10b4(%rbp)
   11ab3:	80 bd 4c ef ff ff 0b 	cmpb   $0xb,-0x10b4(%rbp)
   11aba:	0f 87 df fe ff ff    	ja     1199f <func_17+0x215>
   11ac0:	48 8b 85 40 f0 ff ff 	mov    -0xfc0(%rbp),%rax
   11ac7:	8b 10                	mov    (%rax),%edx
   11ac9:	0f b6 85 4c ef ff ff 	movzbl -0x10b4(%rbp),%eax
   11ad0:	31 c2                	xor    %eax,%edx
   11ad2:	48 8b 85 40 f0 ff ff 	mov    -0xfc0(%rbp),%rax
   11ad9:	89 10                	mov    %edx,(%rax)
   11adb:	48 8b 85 40 f0 ff ff 	mov    -0xfc0(%rbp),%rax
   11ae2:	8b 08                	mov    (%rax),%ecx
   11ae4:	48 8b 85 00 f0 ff ff 	mov    -0x1000(%rbp),%rax
   11aeb:	48 85 c0             	test   %rax,%rax
   11aee:	0f 94 c2             	sete   %dl
   11af1:	8b 85 b0 f1 ff ff    	mov    -0xe50(%rbp),%eax
   11af7:	85 c0                	test   %eax,%eax
   11af9:	0f 9e c0             	setle  %al
   11afc:	09 d0                	or     %edx,%eax
   11afe:	0f b6 d0             	movzbl %al,%edx
   11b01:	8b 85 9c f3 ff ff    	mov    -0xc64(%rbp),%eax
   11b07:	39 c2                	cmp    %eax,%edx
   11b09:	0f 95 c2             	setne  %dl
   11b0c:	48 8b 05 45 59 01 00 	mov    0x15945(%rip),%rax        # 27458 <g_207>
   11b13:	48 8b 00             	mov    (%rax),%rax
   11b16:	48 8b 00             	mov    (%rax),%rax
   11b19:	0f b6 d2             	movzbl %dl,%edx
   11b1c:	89 10                	mov    %edx,(%rax)
   11b1e:	8b 00                	mov    (%rax),%eax
   11b20:	39 c1                	cmp    %eax,%ecx
   11b22:	0f 95 c0             	setne  %al
   11b25:	0f b6 c0             	movzbl %al,%eax
   11b28:	39 85 7c ef ff ff    	cmp    %eax,-0x1084(%rbp)
   11b2e:	0f 9e c0             	setle  %al
   11b31:	0f b6 d0             	movzbl %al,%edx
   11b34:	0f b6 85 4c ef ff ff 	movzbl -0x10b4(%rbp),%eax
   11b3b:	39 c2                	cmp    %eax,%edx
   11b3d:	7f 08                	jg     11b47 <func_17+0x3bd>
   11b3f:	8b 85 68 ef ff ff    	mov    -0x1098(%rbp),%eax
   11b45:	85 c0                	test   %eax,%eax
   11b47:	80 bd 4c ef ff ff 00 	cmpb   $0x0,-0x10b4(%rbp)
   11b4e:	74 07                	je     11b57 <func_17+0x3cd>
   11b50:	b8 01 00 00 00       	mov    $0x1,%eax
   11b55:	eb 05                	jmp    11b5c <func_17+0x3d2>
   11b57:	b8 00 00 00 00       	mov    $0x0,%eax
   11b5c:	48 98                	cltq   
   11b5e:	48 ba 24 e7 5a 10 ed 	movabs $0xec198ced105ae724,%rdx
   11b65:	8c 19 ec 
   11b68:	48 21 d0             	and    %rdx,%rax
   11b6b:	48 85 c0             	test   %rax,%rax
   11b6e:	74 08                	je     11b78 <func_17+0x3ee>
   11b70:	8b 85 c0 f1 ff ff    	mov    -0xe40(%rbp),%eax
   11b76:	85 c0                	test   %eax,%eax
   11b78:	c7 85 64 ef ff ff be 	movl   $0x87cdf4be,-0x109c(%rbp)
   11b7f:	f4 cd 87 
   11b82:	c7 85 64 ef ff ff 00 	movl   $0x0,-0x109c(%rbp)
   11b89:	00 00 00 
   11b8c:	e9 41 04 00 00       	jmpq   11fd2 <func_17+0x848>
   11b91:	66 c7 85 60 ef ff ff 	movw   $0xbe72,-0x10a0(%rbp)
   11b98:	72 be 
   11b9a:	c7 85 d0 ef ff ff 89 	movl   $0xd9d4ac89,-0x1030(%rbp)
   11ba1:	ac d4 d9 
   11ba4:	c7 85 d4 ef ff ff 15 	movl   $0x8eb32115,-0x102c(%rbp)
   11bab:	21 b3 8e 
   11bae:	c7 85 d8 ef ff ff 05 	movl   $0x5,-0x1028(%rbp)
   11bb5:	00 00 00 
   11bb8:	48 8d 85 50 f4 ff ff 	lea    -0xbb0(%rbp),%rax
   11bbf:	48 8d 15 fa bb 00 00 	lea    0xbbfa(%rip),%rdx        # 1d7c0 <g_3481+0x720>
   11bc6:	b9 7e 00 00 00       	mov    $0x7e,%ecx
   11bcb:	48 89 c7             	mov    %rax,%rdi
   11bce:	48 89 d6             	mov    %rdx,%rsi
   11bd1:	f3 48 a5             	rep movsq %ds:(%rsi),%es:(%rdi)
   11bd4:	48 b8 04 53 8a d0 67 	movabs $0x39cd9867d08a5304,%rax
   11bdb:	98 cd 39 
   11bde:	48 89 85 38 f1 ff ff 	mov    %rax,-0xec8(%rbp)
   11be5:	48 c7 85 40 f1 ff ff 	movq   $0x0,-0xec0(%rbp)
   11bec:	00 00 00 00 
   11bf0:	48 c7 85 48 f1 ff ff 	movq   $0x0,-0xeb8(%rbp)
   11bf7:	00 00 00 00 
   11bfb:	c7 85 dc ef ff ff 00 	movl   $0x0,-0x1024(%rbp)
   11c02:	00 00 00 
   11c05:	c6 85 54 ef ff ff 49 	movb   $0x49,-0x10ac(%rbp)
   11c0c:	c7 85 e0 ef ff ff 74 	movl   $0xce43ae74,-0x1020(%rbp)
   11c13:	ae 43 ce 
   11c16:	48 8d 05 43 58 01 00 	lea    0x15843(%rip),%rax        # 27460 <g_246>
   11c1d:	48 89 85 50 f1 ff ff 	mov    %rax,-0xeb0(%rbp)
   11c24:	48 8d 05 d5 5c 01 00 	lea    0x15cd5(%rip),%rax        # 27900 <g_1455>
   11c2b:	48 89 85 58 f1 ff ff 	mov    %rax,-0xea8(%rbp)
   11c32:	c7 85 e4 ef ff ff 01 	movl   $0x1,-0x101c(%rbp)
   11c39:	00 00 00 
   11c3c:	48 8d 05 ed 57 01 00 	lea    0x157ed(%rip),%rax        # 27430 <g_209>
   11c43:	48 89 85 60 f1 ff ff 	mov    %rax,-0xea0(%rbp)
   11c4a:	c7 85 88 ef ff ff 00 	movl   $0x0,-0x1078(%rbp)
   11c51:	00 00 00 
   11c54:	eb 1e                	jmp    11c74 <func_17+0x4ea>
   11c56:	8b 85 88 ef ff ff    	mov    -0x1078(%rbp),%eax
   11c5c:	48 98                	cltq   
   11c5e:	48 8d 95 70 ef ff ff 	lea    -0x1090(%rbp),%rdx
   11c65:	48 89 94 c5 a8 f1 ff 	mov    %rdx,-0xe58(%rbp,%rax,8)
   11c6c:	ff 
   11c6d:	83 85 88 ef ff ff 01 	addl   $0x1,-0x1078(%rbp)
   11c74:	83 bd 88 ef ff ff 00 	cmpl   $0x0,-0x1078(%rbp)
   11c7b:	7e d9                	jle    11c56 <func_17+0x4cc>
   11c7d:	c7 85 88 ef ff ff 00 	movl   $0x0,-0x1078(%rbp)
   11c84:	00 00 00 
   11c87:	eb 1e                	jmp    11ca7 <func_17+0x51d>
   11c89:	8b 85 88 ef ff ff    	mov    -0x1078(%rbp),%eax
   11c8f:	48 98                	cltq   
   11c91:	48 8d 15 5a 18 01 00 	lea    0x1185a(%rip),%rdx        # 234f2 <g_622>
   11c98:	48 89 94 c5 20 f2 ff 	mov    %rdx,-0xde0(%rbp,%rax,8)
   11c9f:	ff 
   11ca0:	83 85 88 ef ff ff 01 	addl   $0x1,-0x1078(%rbp)
   11ca7:	83 bd 88 ef ff ff 09 	cmpl   $0x9,-0x1078(%rbp)
   11cae:	7e d9                	jle    11c89 <func_17+0x4ff>
   11cb0:	c7 85 7c ef ff ff 00 	movl   $0x0,-0x1084(%rbp)
   11cb7:	00 00 00 
   11cba:	e9 d9 02 00 00       	jmpq   11f98 <func_17+0x80e>
   11cbf:	66 c7 85 d0 f1 ff ff 	movw   $0x9d19,-0xe30(%rbp)
   11cc6:	19 9d 
   11cc8:	66 c7 85 d2 f1 ff ff 	movw   $0x9d19,-0xe2e(%rbp)
   11ccf:	19 9d 
   11cd1:	66 c7 85 d4 f1 ff ff 	movw   $0x9d19,-0xe2c(%rbp)
   11cd8:	19 9d 
   11cda:	66 c7 85 d6 f1 ff ff 	movw   $0x9d19,-0xe2a(%rbp)
   11ce1:	19 9d 
   11ce3:	66 c7 85 d8 f1 ff ff 	movw   $0x9d19,-0xe28(%rbp)
   11cea:	19 9d 
   11cec:	66 c7 85 da f1 ff ff 	movw   $0x9d19,-0xe26(%rbp)
   11cf3:	19 9d 
   11cf5:	c7 85 e8 ef ff ff 8d 	movl   $0x8f882c8d,-0x1018(%rbp)
   11cfc:	2c 88 8f 
   11cff:	c7 85 ec ef ff ff fb 	movl   $0x919b0efb,-0x1014(%rbp)
   11d06:	0e 9b 91 
   11d09:	c7 85 70 f2 ff ff a3 	movl   $0x8077c0a3,-0xd90(%rbp)
   11d10:	c0 77 80 
   11d13:	c7 85 74 f2 ff ff e1 	movl   $0x49aedbe1,-0xd8c(%rbp)
   11d1a:	db ae 49 
   11d1d:	c7 85 78 f2 ff ff 03 	movl   $0x3,-0xd88(%rbp)
   11d24:	00 00 00 
   11d27:	c7 85 7c f2 ff ff fe 	movl   $0x406c6efe,-0xd84(%rbp)
   11d2e:	6e 6c 40 
   11d31:	c7 85 80 f2 ff ff e1 	movl   $0x49aedbe1,-0xd80(%rbp)
   11d38:	db ae 49 
   11d3b:	c7 85 84 f2 ff ff fe 	movl   $0x406c6efe,-0xd7c(%rbp)
   11d42:	6e 6c 40 
   11d45:	c7 85 88 f2 ff ff 03 	movl   $0x3,-0xd78(%rbp)
   11d4c:	00 00 00 
   11d4f:	c7 85 8c f2 ff ff e1 	movl   $0x49aedbe1,-0xd74(%rbp)
   11d56:	db ae 49 
   11d59:	c7 85 90 f2 ff ff a3 	movl   $0x8077c0a3,-0xd70(%rbp)
   11d60:	c0 77 80 
   11d63:	c7 85 94 f2 ff ff a3 	movl   $0x8077c0a3,-0xd6c(%rbp)
   11d6a:	c0 77 80 
   11d6d:	c7 85 98 f2 ff ff a3 	movl   $0x8077c0a3,-0xd68(%rbp)
   11d74:	c0 77 80 
   11d77:	c7 85 9c f2 ff ff e1 	movl   $0x49aedbe1,-0xd64(%rbp)
   11d7e:	db ae 49 
   11d81:	c7 85 a0 f2 ff ff 03 	movl   $0x3,-0xd60(%rbp)
   11d88:	00 00 00 
   11d8b:	c7 85 a4 f2 ff ff fe 	movl   $0x406c6efe,-0xd5c(%rbp)
   11d92:	6e 6c 40 
   11d95:	c7 85 a8 f2 ff ff e1 	movl   $0x49aedbe1,-0xd58(%rbp)
   11d9c:	db ae 49 
   11d9f:	c7 85 ac f2 ff ff fe 	movl   $0x406c6efe,-0xd54(%rbp)
   11da6:	6e 6c 40 
   11da9:	c7 85 b0 f2 ff ff 03 	movl   $0x3,-0xd50(%rbp)
   11db0:	00 00 00 
   11db3:	c7 85 b4 f2 ff ff e1 	movl   $0x49aedbe1,-0xd4c(%rbp)
   11dba:	db ae 49 
   11dbd:	c7 85 b8 f2 ff ff a3 	movl   $0x8077c0a3,-0xd48(%rbp)
   11dc4:	c0 77 80 
   11dc7:	c7 85 bc f2 ff ff a3 	movl   $0x8077c0a3,-0xd44(%rbp)
   11dce:	c0 77 80 
   11dd1:	c7 85 c0 f2 ff ff a3 	movl   $0x8077c0a3,-0xd40(%rbp)
   11dd8:	c0 77 80 
   11ddb:	c7 85 c4 f2 ff ff e1 	movl   $0x49aedbe1,-0xd3c(%rbp)
   11de2:	db ae 49 
   11de5:	c7 85 c8 f2 ff ff 03 	movl   $0x3,-0xd38(%rbp)
   11dec:	00 00 00 
   11def:	c7 85 cc f2 ff ff fe 	movl   $0x406c6efe,-0xd34(%rbp)
   11df6:	6e 6c 40 
   11df9:	c7 85 d0 f2 ff ff e1 	movl   $0x49aedbe1,-0xd30(%rbp)
   11e00:	db ae 49 
   11e03:	c7 85 d4 f2 ff ff fe 	movl   $0x406c6efe,-0xd2c(%rbp)
   11e0a:	6e 6c 40 
   11e0d:	c7 85 d8 f2 ff ff 03 	movl   $0x3,-0xd28(%rbp)
   11e14:	00 00 00 
   11e17:	c7 85 dc f2 ff ff e1 	movl   $0x49aedbe1,-0xd24(%rbp)
   11e1e:	db ae 49 
   11e21:	c7 85 e0 f2 ff ff a3 	movl   $0x8077c0a3,-0xd20(%rbp)
   11e28:	c0 77 80 
   11e2b:	c7 85 e4 f2 ff ff a3 	movl   $0x8077c0a3,-0xd1c(%rbp)
   11e32:	c0 77 80 
   11e35:	c7 85 e8 f2 ff ff a3 	movl   $0x8077c0a3,-0xd18(%rbp)
   11e3c:	c0 77 80 
   11e3f:	c7 85 ec f2 ff ff e1 	movl   $0x49aedbe1,-0xd14(%rbp)
   11e46:	db ae 49 
   11e49:	c7 85 f0 f2 ff ff 03 	movl   $0x3,-0xd10(%rbp)
   11e50:	00 00 00 
   11e53:	c7 85 f4 f2 ff ff fe 	movl   $0x406c6efe,-0xd0c(%rbp)
   11e5a:	6e 6c 40 
   11e5d:	c7 85 f8 f2 ff ff e1 	movl   $0x49aedbe1,-0xd08(%rbp)
   11e64:	db ae 49 
   11e67:	c7 85 fc f2 ff ff fe 	movl   $0x406c6efe,-0xd04(%rbp)
   11e6e:	6e 6c 40 
   11e71:	c7 85 00 f3 ff ff 03 	movl   $0x3,-0xd00(%rbp)
   11e78:	00 00 00 
   11e7b:	c7 85 04 f3 ff ff e1 	movl   $0x49aedbe1,-0xcfc(%rbp)
   11e82:	db ae 49 
   11e85:	c7 85 08 f3 ff ff a3 	movl   $0x8077c0a3,-0xcf8(%rbp)
   11e8c:	c0 77 80 
   11e8f:	c7 85 0c f3 ff ff a3 	movl   $0x8077c0a3,-0xcf4(%rbp)
   11e96:	c0 77 80 
   11e99:	c7 85 10 f3 ff ff a3 	movl   $0x8077c0a3,-0xcf0(%rbp)
   11ea0:	c0 77 80 
   11ea3:	c7 85 14 f3 ff ff e1 	movl   $0x49aedbe1,-0xcec(%rbp)
   11eaa:	db ae 49 
   11ead:	c7 85 18 f3 ff ff 03 	movl   $0x3,-0xce8(%rbp)
   11eb4:	00 00 00 
   11eb7:	c7 85 1c f3 ff ff fe 	movl   $0x406c6efe,-0xce4(%rbp)
   11ebe:	6e 6c 40 
   11ec1:	c7 85 20 f3 ff ff e1 	movl   $0x49aedbe1,-0xce0(%rbp)
   11ec8:	db ae 49 
   11ecb:	c7 85 24 f3 ff ff fe 	movl   $0x406c6efe,-0xcdc(%rbp)
   11ed2:	6e 6c 40 
   11ed5:	c7 85 28 f3 ff ff 03 	movl   $0x3,-0xcd8(%rbp)
   11edc:	00 00 00 
   11edf:	c7 85 2c f3 ff ff e1 	movl   $0x49aedbe1,-0xcd4(%rbp)
   11ee6:	db ae 49 
   11ee9:	48 8d 85 6c ef ff ff 	lea    -0x1094(%rbp),%rax
   11ef0:	48 89 85 f0 f1 ff ff 	mov    %rax,-0xe10(%rbp)
   11ef7:	48 8d 85 6c ef ff ff 	lea    -0x1094(%rbp),%rax
   11efe:	48 89 85 f8 f1 ff ff 	mov    %rax,-0xe08(%rbp)
   11f05:	48 8d 85 6c ef ff ff 	lea    -0x1094(%rbp),%rax
   11f0c:	48 89 85 00 f2 ff ff 	mov    %rax,-0xe00(%rbp)
   11f13:	48 8d 85 6c ef ff ff 	lea    -0x1094(%rbp),%rax
   11f1a:	48 89 85 08 f2 ff ff 	mov    %rax,-0xdf8(%rbp)
   11f21:	48 8d 85 6c ef ff ff 	lea    -0x1094(%rbp),%rax
   11f28:	48 89 85 10 f2 ff ff 	mov    %rax,-0xdf0(%rbp)
   11f2f:	48 c7 85 68 f1 ff ff 	movq   $0x0,-0xe98(%rbp)
   11f36:	00 00 00 00 
   11f3a:	c6 85 55 ef ff ff ff 	movb   $0xff,-0x10ab(%rbp)
   11f41:	c6 85 56 ef ff ff 00 	movb   $0x0,-0x10aa(%rbp)
   11f48:	48 8d 85 40 f8 ff ff 	lea    -0x7c0(%rbp),%rax
   11f4f:	48 8d 15 6a bc 00 00 	lea    0xbc6a(%rip),%rdx        # 1dbc0 <g_3481+0xb20>
   11f56:	b9 f0 00 00 00       	mov    $0xf0,%ecx
   11f5b:	48 89 c7             	mov    %rax,%rdi
   11f5e:	48 89 d6             	mov    %rdx,%rsi
   11f61:	f3 48 a5             	rep movsq %ds:(%rsi),%es:(%rdi)
   11f64:	48 8d 05 b5 54 01 00 	lea    0x154b5(%rip),%rax        # 27420 <g_95>
   11f6b:	48 89 85 70 f1 ff ff 	mov    %rax,-0xe90(%rbp)
   11f72:	48 8d 05 af 54 01 00 	lea    0x154af(%rip),%rax        # 27428 <g_94>
   11f79:	48 89 85 78 f1 ff ff 	mov    %rax,-0xe88(%rbp)
   11f80:	c7 85 f0 ef ff ff c0 	movl   $0x28928cc0,-0x1010(%rbp)
   11f87:	8c 92 28 
   11f8a:	c6 85 57 ef ff ff ff 	movb   $0xff,-0x10a9(%rbp)
   11f91:	83 85 7c ef ff ff 01 	addl   $0x1,-0x1084(%rbp)
   11f98:	83 bd 7c ef ff ff 00 	cmpl   $0x0,-0x1084(%rbp)
   11f9f:	0f 8e 1a fd ff ff    	jle    11cbf <func_17+0x535>
   11fa5:	8b 85 64 ef ff ff    	mov    -0x109c(%rbp),%eax
   11fab:	85 c0                	test   %eax,%eax
   11fad:	74 05                	je     11fb4 <func_17+0x82a>
   11faf:	e9 ce fb ff ff       	jmpq   11b82 <func_17+0x3f8>
   11fb4:	8b 85 64 ef ff ff    	mov    -0x109c(%rbp),%eax
   11fba:	0f b6 c0             	movzbl %al,%eax
   11fbd:	be 03 00 00 00       	mov    $0x3,%esi
   11fc2:	89 c7                	mov    %eax,%edi
   11fc4:	e8 af 9b ff ff       	callq  bb78 <safe_sub_func_uint8_t_u_u>
   11fc9:	0f b6 c0             	movzbl %al,%eax
   11fcc:	89 85 64 ef ff ff    	mov    %eax,-0x109c(%rbp)
   11fd2:	8b 85 64 ef ff ff    	mov    -0x109c(%rbp),%eax
   11fd8:	83 f8 f0             	cmp    $0xfffffff0,%eax
   11fdb:	0f 8d b0 fb ff ff    	jge    11b91 <func_17+0x407>
   11fe1:	66 c7 05 06 15 01 00 	movw   $0x0,0x11506(%rip)        # 234f0 <g_610>
   11fe8:	00 00 
   11fea:	e9 46 0f 00 00       	jmpq   12f35 <func_17+0x17ab>
   11fef:	48 b8 38 da 55 46 d3 	movabs $0xa5a11fd34655da38,%rax
   11ff6:	1f a1 a5 
   11ff9:	48 89 85 88 f0 ff ff 	mov    %rax,-0xf78(%rbp)
   12000:	48 8d 05 f9 58 01 00 	lea    0x158f9(%rip),%rax        # 27900 <g_1455>
   12007:	48 89 85 90 f0 ff ff 	mov    %rax,-0xf70(%rbp)
   1200e:	c7 85 74 ef ff ff 6f 	movl   $0x2c7eb56f,-0x108c(%rbp)
   12015:	b5 7e 2c 
   12018:	c7 85 78 ef ff ff f9 	movl   $0xfffffff9,-0x1088(%rbp)
   1201f:	ff ff ff 
   12022:	48 8d 05 77 10 01 00 	lea    0x11077(%rip),%rax        # 230a0 <g_104>
   12029:	48 89 85 98 f0 ff ff 	mov    %rax,-0xf68(%rbp)
   12030:	48 c7 85 20 f0 ff ff 	movq   $0x0,-0xfe0(%rbp)
   12037:	00 00 00 00 
   1203b:	48 8d 85 20 f0 ff ff 	lea    -0xfe0(%rbp),%rax
   12042:	48 89 85 28 f0 ff ff 	mov    %rax,-0xfd8(%rbp)
   12049:	48 8d 85 28 f0 ff ff 	lea    -0xfd8(%rbp),%rax
   12050:	48 89 85 a0 f0 ff ff 	mov    %rax,-0xf60(%rbp)
   12057:	48 c7 85 50 f4 ff ff 	movq   $0x0,-0xbb0(%rbp)
   1205e:	00 00 00 00 
   12062:	48 c7 85 58 f4 ff ff 	movq   $0x0,-0xba8(%rbp)
   12069:	00 00 00 00 
   1206d:	48 8d 05 f4 63 01 00 	lea    0x163f4(%rip),%rax        # 28468 <g_2816>
   12074:	48 89 85 60 f4 ff ff 	mov    %rax,-0xba0(%rbp)
   1207b:	48 c7 85 68 f4 ff ff 	movq   $0x0,-0xb98(%rbp)
   12082:	00 00 00 00 
   12086:	48 8d 05 db 63 01 00 	lea    0x163db(%rip),%rax        # 28468 <g_2816>
   1208d:	48 89 85 70 f4 ff ff 	mov    %rax,-0xb90(%rbp)
   12094:	48 c7 85 78 f4 ff ff 	movq   $0x0,-0xb88(%rbp)
   1209b:	00 00 00 00 
   1209f:	48 c7 85 80 f4 ff ff 	movq   $0x0,-0xb80(%rbp)
   120a6:	00 00 00 00 
   120aa:	48 8d 05 7f 15 01 00 	lea    0x1157f(%rip),%rax        # 23630 <g_1066>
   120b1:	48 89 85 88 f4 ff ff 	mov    %rax,-0xb78(%rbp)
   120b8:	48 8d 85 10 f0 ff ff 	lea    -0xff0(%rbp),%rax
   120bf:	48 89 85 90 f4 ff ff 	mov    %rax,-0xb70(%rbp)
   120c6:	48 c7 85 98 f4 ff ff 	movq   $0x0,-0xb68(%rbp)
   120cd:	00 00 00 00 
   120d1:	48 8d 85 10 f0 ff ff 	lea    -0xff0(%rbp),%rax
   120d8:	48 89 85 a0 f4 ff ff 	mov    %rax,-0xb60(%rbp)
   120df:	48 8d 05 4a 15 01 00 	lea    0x1154a(%rip),%rax        # 23630 <g_1066>
   120e6:	48 89 85 a8 f4 ff ff 	mov    %rax,-0xb58(%rbp)
   120ed:	48 8d 05 3c 15 01 00 	lea    0x1153c(%rip),%rax        # 23630 <g_1066>
   120f4:	48 89 85 b0 f4 ff ff 	mov    %rax,-0xb50(%rbp)
   120fb:	48 8d 85 10 f0 ff ff 	lea    -0xff0(%rbp),%rax
   12102:	48 89 85 b8 f4 ff ff 	mov    %rax,-0xb48(%rbp)
   12109:	48 8d 05 58 63 01 00 	lea    0x16358(%rip),%rax        # 28468 <g_2816>
   12110:	48 89 85 c0 f4 ff ff 	mov    %rax,-0xb40(%rbp)
   12117:	48 c7 85 c8 f4 ff ff 	movq   $0x0,-0xb38(%rbp)
   1211e:	00 00 00 00 
   12122:	48 8d 05 3f 63 01 00 	lea    0x1633f(%rip),%rax        # 28468 <g_2816>
   12129:	48 89 85 d0 f4 ff ff 	mov    %rax,-0xb30(%rbp)
   12130:	48 8d 05 31 63 01 00 	lea    0x16331(%rip),%rax        # 28468 <g_2816>
   12137:	48 89 85 d8 f4 ff ff 	mov    %rax,-0xb28(%rbp)
   1213e:	48 8d 05 23 63 01 00 	lea    0x16323(%rip),%rax        # 28468 <g_2816>
   12145:	48 89 85 e0 f4 ff ff 	mov    %rax,-0xb20(%rbp)
   1214c:	48 8d 05 15 63 01 00 	lea    0x16315(%rip),%rax        # 28468 <g_2816>
   12153:	48 89 85 e8 f4 ff ff 	mov    %rax,-0xb18(%rbp)
   1215a:	48 c7 85 f0 f4 ff ff 	movq   $0x0,-0xb10(%rbp)
   12161:	00 00 00 00 
   12165:	48 8d 85 10 f0 ff ff 	lea    -0xff0(%rbp),%rax
   1216c:	48 89 85 f8 f4 ff ff 	mov    %rax,-0xb08(%rbp)
   12173:	48 c7 85 00 f5 ff ff 	movq   $0x0,-0xb00(%rbp)
   1217a:	00 00 00 00 
   1217e:	48 c7 85 08 f5 ff ff 	movq   $0x0,-0xaf8(%rbp)
   12185:	00 00 00 00 
   12189:	48 c7 85 10 f5 ff ff 	movq   $0x0,-0xaf0(%rbp)
   12190:	00 00 00 00 
   12194:	48 8d 05 95 14 01 00 	lea    0x11495(%rip),%rax        # 23630 <g_1066>
   1219b:	48 89 85 18 f5 ff ff 	mov    %rax,-0xae8(%rbp)
   121a2:	48 8d 05 77 14 01 00 	lea    0x11477(%rip),%rax        # 23620 <g_833>
   121a9:	48 89 85 20 f5 ff ff 	mov    %rax,-0xae0(%rbp)
   121b0:	48 8d 05 79 14 01 00 	lea    0x11479(%rip),%rax        # 23630 <g_1066>
   121b7:	48 89 85 28 f5 ff ff 	mov    %rax,-0xad8(%rbp)
   121be:	c7 85 8c ef ff ff fd 	movl   $0xfffffffd,-0x1074(%rbp)
   121c5:	ff ff ff 
   121c8:	48 8d 05 f2 13 01 00 	lea    0x113f2(%rip),%rax        # 235c1 <g_800+0xa1>
   121cf:	48 89 85 30 f0 ff ff 	mov    %rax,-0xfd0(%rbp)
   121d6:	48 8d 85 30 f0 ff ff 	lea    -0xfd0(%rbp),%rax
   121dd:	48 89 85 38 f0 ff ff 	mov    %rax,-0xfc8(%rbp)
   121e4:	48 8d 85 38 f0 ff ff 	lea    -0xfc8(%rbp),%rax
   121eb:	48 89 85 f0 f1 ff ff 	mov    %rax,-0xe10(%rbp)
   121f2:	48 8d 85 38 f0 ff ff 	lea    -0xfc8(%rbp),%rax
   121f9:	48 89 85 f8 f1 ff ff 	mov    %rax,-0xe08(%rbp)
   12200:	48 8d 85 38 f0 ff ff 	lea    -0xfc8(%rbp),%rax
   12207:	48 89 85 00 f2 ff ff 	mov    %rax,-0xe00(%rbp)
   1220e:	48 8d 85 38 f0 ff ff 	lea    -0xfc8(%rbp),%rax
   12215:	48 89 85 08 f2 ff ff 	mov    %rax,-0xdf8(%rbp)
   1221c:	48 8d 85 38 f0 ff ff 	lea    -0xfc8(%rbp),%rax
   12223:	48 89 85 10 f2 ff ff 	mov    %rax,-0xdf0(%rbp)
   1222a:	48 8d 85 38 f0 ff ff 	lea    -0xfc8(%rbp),%rax
   12231:	48 89 85 18 f2 ff ff 	mov    %rax,-0xde8(%rbp)
   12238:	48 8d 85 f0 f1 ff ff 	lea    -0xe10(%rbp),%rax
   1223f:	48 83 c0 18          	add    $0x18,%rax
   12243:	48 89 85 20 f2 ff ff 	mov    %rax,-0xde0(%rbp)
   1224a:	48 8d 85 f0 f1 ff ff 	lea    -0xe10(%rbp),%rax
   12251:	48 83 c0 18          	add    $0x18,%rax
   12255:	48 89 85 28 f2 ff ff 	mov    %rax,-0xdd8(%rbp)
   1225c:	48 8d 85 f0 f1 ff ff 	lea    -0xe10(%rbp),%rax
   12263:	48 83 c0 18          	add    $0x18,%rax
   12267:	48 89 85 30 f2 ff ff 	mov    %rax,-0xdd0(%rbp)
   1226e:	48 8d 85 f0 f1 ff ff 	lea    -0xe10(%rbp),%rax
   12275:	48 83 c0 18          	add    $0x18,%rax
   12279:	48 89 85 38 f2 ff ff 	mov    %rax,-0xdc8(%rbp)
   12280:	48 8d 85 f0 f1 ff ff 	lea    -0xe10(%rbp),%rax
   12287:	48 83 c0 18          	add    $0x18,%rax
   1228b:	48 89 85 40 f2 ff ff 	mov    %rax,-0xdc0(%rbp)
   12292:	48 8d 85 f0 f1 ff ff 	lea    -0xe10(%rbp),%rax
   12299:	48 83 c0 18          	add    $0x18,%rax
   1229d:	48 89 85 48 f2 ff ff 	mov    %rax,-0xdb8(%rbp)
   122a4:	48 8d 85 20 f2 ff ff 	lea    -0xde0(%rbp),%rax
   122ab:	48 83 c0 08          	add    $0x8,%rax
   122af:	48 89 85 a8 f0 ff ff 	mov    %rax,-0xf58(%rbp)
   122b6:	c7 85 b8 ef ff ff 02 	movl   $0x2,-0x1048(%rbp)
   122bd:	00 00 00 
   122c0:	c7 85 90 ef ff ff 00 	movl   $0x0,-0x1070(%rbp)
   122c7:	00 00 00 
   122ca:	eb 1a                	jmp    122e6 <func_17+0xb5c>
   122cc:	8b 85 90 ef ff ff    	mov    -0x1070(%rbp),%eax
   122d2:	48 98                	cltq   
   122d4:	c7 84 85 98 f1 ff ff 	movl   $0xfffffffe,-0xe68(%rbp,%rax,4)
   122db:	fe ff ff ff 
   122df:	83 85 90 ef ff ff 01 	addl   $0x1,-0x1070(%rbp)
   122e6:	83 bd 90 ef ff ff 00 	cmpl   $0x0,-0x1070(%rbp)
   122ed:	7e dd                	jle    122cc <func_17+0xb42>
   122ef:	48 8b 85 58 f0 ff ff 	mov    -0xfa8(%rbp),%rax
   122f6:	8b 00                	mov    (%rax),%eax
   122f8:	85 c0                	test   %eax,%eax
   122fa:	0f 84 9b 05 00 00    	je     1289b <func_17+0x1111>
   12300:	48 8d 05 51 56 01 00 	lea    0x15651(%rip),%rax        # 27958 <g_2173>
   12307:	48 89 85 c0 f0 ff ff 	mov    %rax,-0xf40(%rbp)
   1230e:	48 8d 85 40 f8 ff ff 	lea    -0x7c0(%rbp),%rax
   12315:	48 8d 15 24 32 01 00 	lea    0x13224(%rip),%rdx        # 25540 <g_4082+0x1a40>
   1231c:	b9 3c 00 00 00       	mov    $0x3c,%ecx
   12321:	48 89 c7             	mov    %rax,%rdi
   12324:	48 89 d6             	mov    %rdx,%rsi
   12327:	f3 48 a5             	rep movsq %ds:(%rsi),%es:(%rdi)
   1232a:	48 c7 85 c8 f0 ff ff 	movq   $0x0,-0xf38(%rbp)
   12331:	00 00 00 00 
   12335:	c7 85 94 ef ff ff 00 	movl   $0x0,-0x106c(%rbp)
   1233c:	00 00 00 
   1233f:	eb 42                	jmp    12383 <func_17+0xbf9>
   12341:	c7 85 98 ef ff ff 00 	movl   $0x0,-0x1068(%rbp)
   12348:	00 00 00 
   1234b:	eb 26                	jmp    12373 <func_17+0xbe9>
   1234d:	8b 85 98 ef ff ff    	mov    -0x1068(%rbp),%eax
   12353:	48 63 d0             	movslq %eax,%rdx
   12356:	8b 85 94 ef ff ff    	mov    -0x106c(%rbp),%eax
   1235c:	48 98                	cltq   
   1235e:	48 01 d0             	add    %rdx,%rax
   12361:	c7 84 85 9c f1 ff ff 	movl   $0x55d35964,-0xe64(%rbp,%rax,4)
   12368:	64 59 d3 55 
   1236c:	83 85 98 ef ff ff 01 	addl   $0x1,-0x1068(%rbp)
   12373:	83 bd 98 ef ff ff 00 	cmpl   $0x0,-0x1068(%rbp)
   1237a:	7e d1                	jle    1234d <func_17+0xbc3>
   1237c:	83 85 94 ef ff ff 01 	addl   $0x1,-0x106c(%rbp)
   12383:	83 bd 94 ef ff ff 00 	cmpl   $0x0,-0x106c(%rbp)
   1238a:	7e b5                	jle    12341 <func_17+0xbb7>
   1238c:	0f b6 9d 4c ef ff ff 	movzbl -0x10b4(%rbp),%ebx
   12393:	48 8b 85 58 f0 ff ff 	mov    -0xfa8(%rbp),%rax
   1239a:	8b 00                	mov    (%rax),%eax
   1239c:	4c 63 e0             	movslq %eax,%r12
   1239f:	8b 05 c7 12 01 00    	mov    0x112c7(%rip),%eax        # 2366c <g_2134+0xc>
   123a5:	44 0f bf e8          	movswl %ax,%r13d
   123a9:	0f b6 05 e0 12 01 00 	movzbl 0x112e0(%rip),%eax        # 23690 <g_3038>
   123b0:	44 0f b6 f8          	movzbl %al,%r15d
   123b4:	48 8b 85 58 f0 ff ff 	mov    -0xfa8(%rbp),%rax
   123bb:	8b 00                	mov    (%rax),%eax
   123bd:	44 0f b6 f0          	movzbl %al,%r14d
   123c1:	0f b6 95 4c ef ff ff 	movzbl -0x10b4(%rbp),%edx
   123c8:	48 83 bd 90 f0 ff ff 	cmpq   $0x0,-0xf70(%rbp)
   123cf:	00 
   123d0:	0f 95 c0             	setne  %al
   123d3:	0f b6 c0             	movzbl %al,%eax
   123d6:	89 d6                	mov    %edx,%esi
   123d8:	89 c7                	mov    %eax,%edi
   123da:	e8 26 92 ff ff       	callq  b605 <safe_sub_func_int32_t_s_s>
   123df:	0f b6 c0             	movzbl %al,%eax
   123e2:	44 89 f6             	mov    %r14d,%esi
   123e5:	89 c7                	mov    %eax,%edi
   123e7:	e8 8c 97 ff ff       	callq  bb78 <safe_sub_func_uint8_t_u_u>
   123ec:	3c 01                	cmp    $0x1,%al
   123ee:	0f 95 c0             	setne  %al
   123f1:	0f b6 d0             	movzbl %al,%edx
   123f4:	0f b6 85 4c ef ff ff 	movzbl -0x10b4(%rbp),%eax
   123fb:	31 d0                	xor    %edx,%eax
   123fd:	41 39 c7             	cmp    %eax,%r15d
   12400:	44 89 ee             	mov    %r13d,%esi
   12403:	bf 00 00 00 00       	mov    $0x0,%edi
   12408:	e8 09 90 ff ff       	callq  b416 <safe_mod_func_int16_t_s_s>
   1240d:	0f b6 d0             	movzbl %al,%edx
   12410:	48 8b 85 88 f0 ff ff 	mov    -0xf78(%rbp),%rax
   12417:	0f b6 c0             	movzbl %al,%eax
   1241a:	89 d6                	mov    %edx,%esi
   1241c:	89 c7                	mov    %eax,%edi
   1241e:	e8 70 97 ff ff       	callq  bb93 <safe_mul_func_uint8_t_u_u>
   12423:	0f b6 c0             	movzbl %al,%eax
   12426:	4c 89 e6             	mov    %r12,%rsi
   12429:	48 89 c7             	mov    %rax,%rdi
   1242c:	e8 10 94 ff ff       	callq  b841 <safe_add_func_int64_t_s_s>
   12431:	0f b6 c0             	movzbl %al,%eax
   12434:	89 c6                	mov    %eax,%esi
   12436:	bf 03 00 00 00       	mov    $0x3,%edi
   1243b:	e8 6e 97 ff ff       	callq  bbae <safe_mod_func_uint8_t_u_u>
   12440:	0f b6 c0             	movzbl %al,%eax
   12443:	89 85 98 f1 ff ff    	mov    %eax,-0xe68(%rbp)
   12449:	8b 85 98 f1 ff ff    	mov    -0xe68(%rbp),%eax
   1244f:	89 de                	mov    %ebx,%esi
   12451:	89 c7                	mov    %eax,%edi
   12453:	e8 74 92 ff ff       	callq  b6cc <safe_mod_func_int32_t_s_s>
   12458:	8b 85 b0 ef ff ff    	mov    -0x1050(%rbp),%eax
   1245e:	89 c2                	mov    %eax,%edx
   12460:	8b 85 b4 ef ff ff    	mov    -0x104c(%rbp),%eax
   12466:	09 d0                	or     %edx,%eax
   12468:	0f b6 c0             	movzbl %al,%eax
   1246b:	be 00 00 00 00       	mov    $0x0,%esi
   12470:	89 c7                	mov    %eax,%edi
   12472:	e8 d5 97 ff ff       	callq  bc4c <safe_lshift_func_uint8_t_u_u>
   12477:	48 8b 85 c0 f0 ff ff 	mov    -0xf40(%rbp),%rax
   1247e:	48 89 05 eb 5f 01 00 	mov    %rax,0x15feb(%rip)        # 28470 <g_3024>
   12485:	48 8b 05 e4 5f 01 00 	mov    0x15fe4(%rip),%rax        # 28470 <g_3024>
   1248c:	48 39 85 68 f0 ff ff 	cmp    %rax,-0xf98(%rbp)
   12493:	0f 95 c0             	setne  %al
   12496:	0f b6 c0             	movzbl %al,%eax
   12499:	be 01 00 00 00       	mov    $0x1,%esi
   1249e:	89 c7                	mov    %eax,%edi
   124a0:	e8 61 99 ff ff       	callq  be06 <safe_lshift_func_uint16_t_u_u>
   124a5:	8b 85 9c f1 ff ff    	mov    -0xe64(%rbp),%eax
   124ab:	89 85 74 ef ff ff    	mov    %eax,-0x108c(%rbp)
   124b1:	8b 85 74 ef ff ff    	mov    -0x108c(%rbp),%eax
   124b7:	89 85 78 ef ff ff    	mov    %eax,-0x1088(%rbp)
   124bd:	8b 85 78 ef ff ff    	mov    -0x1088(%rbp),%eax
   124c3:	48 63 d0             	movslq %eax,%rdx
   124c6:	48 8b 05 7b 11 01 00 	mov    0x1117b(%rip),%rax        # 23648 <g_1499>
   124cd:	48 21 d0             	and    %rdx,%rax
   124d0:	48 89 05 71 11 01 00 	mov    %rax,0x11171(%rip)        # 23648 <g_1499>
   124d7:	48 8b 05 6a 11 01 00 	mov    0x1116a(%rip),%rax        # 23648 <g_1499>
   124de:	48 83 f8 01          	cmp    $0x1,%rax
   124e2:	0f 9e c0             	setle  %al
   124e5:	0f b6 d0             	movzbl %al,%edx
   124e8:	48 8b 85 58 f0 ff ff 	mov    -0xfa8(%rbp),%rax
   124ef:	89 10                	mov    %edx,(%rax)
   124f1:	c6 05 aa 0b 01 00 1a 	movb   $0x1a,0x10baa(%rip)        # 230a2 <g_111>
   124f8:	e9 8a 03 00 00       	jmpq   12887 <func_17+0x10fd>
   124fd:	c6 85 52 ef ff ff 5c 	movb   $0x5c,-0x10ae(%rbp)
   12504:	c7 85 bc ef ff ff 00 	movl   $0x0,-0x1044(%rbp)
   1250b:	00 00 00 
   1250e:	c7 85 d0 f1 ff ff ee 	movl   $0x1b9ad0ee,-0xe30(%rbp)
   12515:	d0 9a 1b 
   12518:	c7 85 d4 f1 ff ff ee 	movl   $0x1b9ad0ee,-0xe2c(%rbp)
   1251f:	d0 9a 1b 
   12522:	c7 85 d8 f1 ff ff ee 	movl   $0x1b9ad0ee,-0xe28(%rbp)
   12529:	d0 9a 1b 
   1252c:	c7 85 dc f1 ff ff ee 	movl   $0x1b9ad0ee,-0xe24(%rbp)
   12533:	d0 9a 1b 
   12536:	c7 85 e0 f1 ff ff ee 	movl   $0x1b9ad0ee,-0xe20(%rbp)
   1253d:	d0 9a 1b 
   12540:	c7 85 e4 f1 ff ff ee 	movl   $0x1b9ad0ee,-0xe1c(%rbp)
   12547:	d0 9a 1b 
   1254a:	c7 85 e8 f1 ff ff ee 	movl   $0x1b9ad0ee,-0xe18(%rbp)
   12551:	d0 9a 1b 
   12554:	66 c7 05 43 0b 01 00 	movw   $0x0,0x10b43(%rip)        # 230a0 <g_104>
   1255b:	00 00 
   1255d:	e9 04 03 00 00       	jmpq   12866 <func_17+0x10dc>
   12562:	48 c7 85 d0 f0 ff ff 	movq   $0x1,-0xf30(%rbp)
   12569:	01 00 00 00 
   1256d:	48 8d 85 68 ef ff ff 	lea    -0x1098(%rbp),%rax
   12574:	48 89 85 d8 f0 ff ff 	mov    %rax,-0xf28(%rbp)
   1257b:	c7 85 c0 ef ff ff 0e 	movl   $0x17c87f0e,-0x1040(%rbp)
   12582:	7f c8 17 
   12585:	48 8d 85 70 ef ff ff 	lea    -0x1090(%rbp),%rax
   1258c:	48 89 85 e0 f0 ff ff 	mov    %rax,-0xf20(%rbp)
   12593:	48 8d 85 74 ef ff ff 	lea    -0x108c(%rbp),%rax
   1259a:	48 89 85 e8 f0 ff ff 	mov    %rax,-0xf18(%rbp)
   125a1:	48 8d 85 68 ef ff ff 	lea    -0x1098(%rbp),%rax
   125a8:	48 89 85 f0 f0 ff ff 	mov    %rax,-0xf10(%rbp)
   125af:	48 8d 85 78 ef ff ff 	lea    -0x1088(%rbp),%rax
   125b6:	48 89 85 f8 f0 ff ff 	mov    %rax,-0xf08(%rbp)
   125bd:	48 c7 85 70 f2 ff ff 	movq   $0x0,-0xd90(%rbp)
   125c4:	00 00 00 00 
   125c8:	48 c7 85 78 f2 ff ff 	movq   $0x0,-0xd88(%rbp)
   125cf:	00 00 00 00 
   125d3:	48 c7 85 80 f2 ff ff 	movq   $0x0,-0xd80(%rbp)
   125da:	00 00 00 00 
   125de:	48 c7 85 88 f2 ff ff 	movq   $0x0,-0xd78(%rbp)
   125e5:	00 00 00 00 
   125e9:	48 c7 85 90 f2 ff ff 	movq   $0x0,-0xd70(%rbp)
   125f0:	00 00 00 00 
   125f4:	48 c7 85 98 f2 ff ff 	movq   $0x0,-0xd68(%rbp)
   125fb:	00 00 00 00 
   125ff:	48 c7 85 a0 f2 ff ff 	movq   $0x0,-0xd60(%rbp)
   12606:	00 00 00 00 
   1260a:	48 c7 85 a8 f2 ff ff 	movq   $0x0,-0xd58(%rbp)
   12611:	00 00 00 00 
   12615:	c6 85 53 ef ff ff 88 	movb   $0x88,-0x10ad(%rbp)
   1261c:	c7 05 d6 0e 01 00 00 	movl   $0x0,0x10ed6(%rip)        # 234fc <g_682>
   12623:	00 00 00 
   12626:	90                   	nop
   12627:	8b 05 cf 0e 01 00    	mov    0x10ecf(%rip),%eax        # 234fc <g_682>
   1262d:	83 f8 22             	cmp    $0x22,%eax
   12630:	0f 87 0f 02 00 00    	ja     12845 <func_17+0x10bb>
   12636:	48 8d 85 98 f1 ff ff 	lea    -0xe68(%rbp),%rax
   1263d:	48 89 85 00 f1 ff ff 	mov    %rax,-0xf00(%rbp)
   12644:	48 8d 85 68 ef ff ff 	lea    -0x1098(%rbp),%rax
   1264b:	48 89 85 08 f1 ff ff 	mov    %rax,-0xef8(%rbp)
   12652:	48 8d 05 fb 09 01 00 	lea    0x109fb(%rip),%rax        # 23054 <g_22+0x14>
   12659:	48 89 85 10 f1 ff ff 	mov    %rax,-0xef0(%rbp)
   12660:	48 8d 05 35 0a 01 00 	lea    0x10a35(%rip),%rax        # 2309c <g_78+0x1c>
   12667:	48 89 85 18 f1 ff ff 	mov    %rax,-0xee8(%rbp)
   1266e:	48 8d 85 64 ef ff ff 	lea    -0x109c(%rbp),%rax
   12675:	48 89 85 20 f1 ff ff 	mov    %rax,-0xee0(%rbp)
   1267c:	48 8d 05 15 0a 01 00 	lea    0x10a15(%rip),%rax        # 23098 <g_78+0x18>
   12683:	48 89 85 28 f1 ff ff 	mov    %rax,-0xed8(%rbp)
   1268a:	48 8d 85 9c f1 ff ff 	lea    -0xe64(%rbp),%rax
   12691:	48 89 85 30 f1 ff ff 	mov    %rax,-0xed0(%rbp)
   12698:	c7 85 9c ef ff ff 00 	movl   $0x0,-0x1064(%rbp)
   1269f:	00 00 00 
   126a2:	eb 1a                	jmp    126be <func_17+0xf34>
   126a4:	8b 85 9c ef ff ff    	mov    -0x1064(%rbp),%eax
   126aa:	48 98                	cltq   
   126ac:	c7 84 85 a8 f1 ff ff 	movl   $0xaa85094b,-0xe58(%rbp,%rax,4)
   126b3:	4b 09 85 aa 
   126b7:	83 85 9c ef ff ff 01 	addl   $0x1,-0x1064(%rbp)
   126be:	83 bd 9c ef ff ff 01 	cmpl   $0x1,-0x1064(%rbp)
   126c5:	7e dd                	jle    126a4 <func_17+0xf1a>
   126c7:	c7 85 9c ef ff ff 00 	movl   $0x0,-0x1064(%rbp)
   126ce:	00 00 00 
   126d1:	eb 1e                	jmp    126f1 <func_17+0xf67>
   126d3:	8b 85 9c ef ff ff    	mov    -0x1064(%rbp),%eax
   126d9:	48 98                	cltq   
   126db:	48 8d 95 64 ef ff ff 	lea    -0x109c(%rbp),%rdx
   126e2:	48 89 94 c5 a0 f1 ff 	mov    %rdx,-0xe60(%rbp,%rax,8)
   126e9:	ff 
   126ea:	83 85 9c ef ff ff 01 	addl   $0x1,-0x1064(%rbp)
   126f1:	83 bd 9c ef ff ff 00 	cmpl   $0x0,-0x1064(%rbp)
   126f8:	7e d9                	jle    126d3 <func_17+0xf49>
   126fa:	44 0f b6 a5 4c ef ff 	movzbl -0x10b4(%rbp),%r12d
   12701:	ff 
   12702:	8b 05 f8 0d 01 00    	mov    0x10df8(%rip),%eax        # 23500 <g_704>
   12708:	85 c0                	test   %eax,%eax
   1270a:	0f 85 c2 00 00 00    	jne    127d2 <func_17+0x1048>
   12710:	48 8b 85 58 f0 ff ff 	mov    -0xfa8(%rbp),%rax
   12717:	8b 00                	mov    (%rax),%eax
   12719:	0f be d8             	movsbl %al,%ebx
   1271c:	8b 85 78 ef ff ff    	mov    -0x1088(%rbp),%eax
   12722:	44 0f b6 e8          	movzbl %al,%r13d
   12726:	8b 85 9c f1 ff ff    	mov    -0xe64(%rbp),%eax
   1272c:	44 0f bf f0          	movswl %ax,%r14d
   12730:	48 8b 05 99 52 01 00 	mov    0x15299(%rip),%rax        # 279d0 <g_2759>
   12737:	48 8b 00             	mov    (%rax),%rax
   1273a:	48 8b 00             	mov    (%rax),%rax
   1273d:	0f b6 00             	movzbl (%rax),%eax
   12740:	0f b6 d0             	movzbl %al,%edx
   12743:	48 8b 85 c8 f0 ff ff 	mov    -0xf38(%rbp),%rax
   1274a:	48 3b 85 98 f0 ff ff 	cmp    -0xf68(%rbp),%rax
   12751:	0f 95 c0             	setne  %al
   12754:	0f b6 c0             	movzbl %al,%eax
   12757:	89 d6                	mov    %edx,%esi
   12759:	89 c7                	mov    %eax,%edi
   1275b:	e8 4e 94 ff ff       	callq  bbae <safe_mod_func_uint8_t_u_u>
   12760:	38 85 4c ef ff ff    	cmp    %al,-0x10b4(%rbp)
   12766:	0f 92 c0             	setb   %al
   12769:	0f b6 c0             	movzbl %al,%eax
   1276c:	44 89 f6             	mov    %r14d,%esi
   1276f:	89 c7                	mov    %eax,%edi
   12771:	e8 7f 8c ff ff       	callq  b3f5 <safe_mul_func_int16_t_s_s>
   12776:	44 89 ee             	mov    %r13d,%esi
   12779:	bf 01 00 00 00       	mov    $0x1,%edi
   1277e:	e8 10 94 ff ff       	callq  bb93 <safe_mul_func_uint8_t_u_u>
   12783:	0f b6 d0             	movzbl %al,%edx
   12786:	48 8b 05 63 51 01 00 	mov    0x15163(%rip),%rax        # 278f0 <g_844>
   1278d:	48 8b 00             	mov    (%rax),%rax
   12790:	48 8b 00             	mov    (%rax),%rax
   12793:	48 8b 00             	mov    (%rax),%rax
   12796:	48 39 c2             	cmp    %rax,%rdx
   12799:	0f 92 c0             	setb   %al
   1279c:	44 0f b6 e8          	movzbl %al,%r13d
   127a0:	0f b6 85 4c ef ff ff 	movzbl -0x10b4(%rbp),%eax
   127a7:	48 89 c7             	mov    %rax,%rdi
   127aa:	e8 6a 98 ff ff       	callq  c019 <safe_unary_minus_func_uint64_t_u>
   127af:	0f b6 c0             	movzbl %al,%eax
   127b2:	44 89 ee             	mov    %r13d,%esi
   127b5:	89 c7                	mov    %eax,%edi
   127b7:	e8 02 95 ff ff       	callq  bcbe <safe_rshift_func_uint8_t_u_u>
   127bc:	0f be c0             	movsbl %al,%eax
   127bf:	89 de                	mov    %ebx,%esi
   127c1:	89 c7                	mov    %eax,%edi
   127c3:	e8 0c 8a ff ff       	callq  b1d4 <safe_add_func_int8_t_s_s>
   127c8:	48 83 bd d0 f0 ff ff 	cmpq   $0x0,-0xf30(%rbp)
   127cf:	00 
   127d0:	74 07                	je     127d9 <func_17+0x104f>
   127d2:	b8 01 00 00 00       	mov    $0x1,%eax
   127d7:	eb 05                	jmp    127de <func_17+0x1054>
   127d9:	b8 00 00 00 00       	mov    $0x0,%eax
   127de:	48 63 d8             	movslq %eax,%rbx
   127e1:	0f b6 85 4c ef ff ff 	movzbl -0x10b4(%rbp),%eax
   127e8:	be 00 00 00 00       	mov    $0x0,%esi
   127ed:	89 c7                	mov    %eax,%edi
   127ef:	e8 99 94 ff ff       	callq  bc8d <safe_rshift_func_uint8_t_u_s>
   127f4:	0f b6 c0             	movzbl %al,%eax
   127f7:	48 8b 15 5a 4c 01 00 	mov    0x14c5a(%rip),%rdx        # 27458 <g_207>
   127fe:	4c 8b 2a             	mov    (%rdx),%r13
   12801:	48 8b 8d 00 f1 ff ff 	mov    -0xf00(%rbp),%rcx
   12808:	48 8b 95 00 f1 ff ff 	mov    -0xf00(%rbp),%rdx
   1280f:	49 89 c8             	mov    %rcx,%r8
   12812:	48 89 d1             	mov    %rdx,%rcx
   12815:	44 89 e2             	mov    %r12d,%edx
   12818:	48 89 de             	mov    %rbx,%rsi
   1281b:	48 89 c7             	mov    %rax,%rdi
   1281e:	e8 20 09 00 00       	callq  13143 <func_42>
   12823:	49 89 45 00          	mov    %rax,0x0(%r13)
   12827:	0f b6 85 52 ef ff ff 	movzbl -0x10ae(%rbp),%eax
   1282e:	83 e8 01             	sub    $0x1,%eax
   12831:	88 85 52 ef ff ff    	mov    %al,-0x10ae(%rbp)
   12837:	48 8b 85 18 f1 ff ff 	mov    -0xee8(%rbp),%rax
   1283e:	8b 00                	mov    (%rax),%eax
   12840:	e9 14 07 00 00       	jmpq   12f59 <func_17+0x17cf>
   12845:	0f b6 85 53 ef ff ff 	movzbl -0x10ad(%rbp),%eax
   1284c:	83 c0 01             	add    $0x1,%eax
   1284f:	88 85 53 ef ff ff    	mov    %al,-0x10ad(%rbp)
   12855:	0f b7 05 44 08 01 00 	movzwl 0x10844(%rip),%eax        # 230a0 <g_104>
   1285c:	83 c0 01             	add    $0x1,%eax
   1285f:	66 89 05 3a 08 01 00 	mov    %ax,0x1083a(%rip)        # 230a0 <g_104>
   12866:	0f b7 05 33 08 01 00 	movzwl 0x10833(%rip),%eax        # 230a0 <g_104>
   1286d:	66 83 f8 0d          	cmp    $0xd,%ax
   12871:	0f 86 eb fc ff ff    	jbe    12562 <func_17+0xdd8>
   12877:	0f b6 05 24 08 01 00 	movzbl 0x10824(%rip),%eax        # 230a2 <g_111>
   1287e:	83 c0 01             	add    $0x1,%eax
   12881:	88 05 1b 08 01 00    	mov    %al,0x1081b(%rip)        # 230a2 <g_111>
   12887:	0f b6 05 14 08 01 00 	movzbl 0x10814(%rip),%eax        # 230a2 <g_111>
   1288e:	3c 3c                	cmp    $0x3c,%al
   12890:	0f 86 67 fc ff ff    	jbe    124fd <func_17+0xd73>
   12896:	e9 e5 01 00 00       	jmpq   12a80 <func_17+0x12f6>
   1289b:	48 c7 85 b0 f0 ff ff 	movq   $0x3,-0xf50(%rbp)
   128a2:	03 00 00 00 
   128a6:	48 8d 85 68 ef ff ff 	lea    -0x1098(%rbp),%rax
   128ad:	48 89 85 b8 f0 ff ff 	mov    %rax,-0xf48(%rbp)
   128b4:	48 8b 05 85 50 01 00 	mov    0x15085(%rip),%rax        # 27940 <g_1548>
   128bb:	48 8b 00             	mov    (%rax),%rax
   128be:	8b 00                	mov    (%rax),%eax
   128c0:	85 c0                	test   %eax,%eax
   128c2:	0f 85 80 06 00 00    	jne    12f48 <func_17+0x17be>
   128c8:	c7 85 7c ef ff ff 00 	movl   $0x0,-0x1084(%rbp)
   128cf:	00 00 00 
   128d2:	eb 5c                	jmp    12930 <func_17+0x11a6>
   128d4:	48 8b 05 e5 50 01 00 	mov    0x150e5(%rip),%rax        # 279c0 <g_2754>
   128db:	48 8b 00             	mov    (%rax),%rax
   128de:	48 8b 00             	mov    (%rax),%rax
   128e1:	48 8b 00             	mov    (%rax),%rax
   128e4:	0f b6 00             	movzbl (%rax),%eax
   128e7:	83 f0 de             	xor    $0xffffffde,%eax
   128ea:	0f b6 d0             	movzbl %al,%edx
   128ed:	48 8b 85 58 f0 ff ff 	mov    -0xfa8(%rbp),%rax
   128f4:	89 10                	mov    %edx,(%rax)
   128f6:	48 8b 05 5b 4b 01 00 	mov    0x14b5b(%rip),%rax        # 27458 <g_207>
   128fd:	48 8b 00             	mov    (%rax),%rax
   12900:	48 8b 00             	mov    (%rax),%rax
   12903:	48 8b 95 58 f0 ff ff 	mov    -0xfa8(%rbp),%rdx
   1290a:	8b 12                	mov    (%rdx),%edx
   1290c:	89 10                	mov    %edx,(%rax)
   1290e:	80 bd 4c ef ff ff 00 	cmpb   $0x0,-0x10b4(%rbp)
   12915:	8b 85 7c ef ff ff    	mov    -0x1084(%rbp),%eax
   1291b:	48 98                	cltq   
   1291d:	be 06 00 00 00       	mov    $0x6,%esi
   12922:	48 89 c7             	mov    %rax,%rdi
   12925:	e8 04 97 ff ff       	callq  c02e <safe_add_func_uint64_t_u_u>
   1292a:	89 85 7c ef ff ff    	mov    %eax,-0x1084(%rbp)
   12930:	83 bd 7c ef ff ff 17 	cmpl   $0x17,-0x1084(%rbp)
   12937:	7f 9b                	jg     128d4 <func_17+0x114a>
   12939:	0f b7 05 90 5a 01 00 	movzwl 0x15a90(%rip),%eax        # 283d0 <g_229>
   12940:	0f b7 d8             	movzwl %ax,%ebx
   12943:	80 bd 4c ef ff ff 00 	cmpb   $0x0,-0x10b4(%rbp)
   1294a:	0f 84 91 00 00 00    	je     129e1 <func_17+0x1257>
   12950:	48 8b 05 69 50 01 00 	mov    0x15069(%rip),%rax        # 279c0 <g_2754>
   12957:	48 8b 00             	mov    (%rax),%rax
   1295a:	48 8b 00             	mov    (%rax),%rax
   1295d:	48 8b 00             	mov    (%rax),%rax
   12960:	48 8b 95 b0 f0 ff ff 	mov    -0xf50(%rbp),%rdx
   12967:	88 10                	mov    %dl,(%rax)
   12969:	0f b6 00             	movzbl (%rax),%eax
   1296c:	84 c0                	test   %al,%al
   1296e:	74 71                	je     129e1 <func_17+0x1257>
   12970:	48 8b 85 b0 f0 ff ff 	mov    -0xf50(%rbp),%rax
   12977:	44 0f b6 e0          	movzbl %al,%r12d
   1297b:	48 8b 05 be 4f 01 00 	mov    0x14fbe(%rip),%rax        # 27940 <g_1548>
   12982:	48 8b 08             	mov    (%rax),%rcx
   12985:	48 8b 85 b0 f0 ff ff 	mov    -0xf50(%rbp),%rax
   1298c:	89 c6                	mov    %eax,%esi
   1298e:	48 8b 85 10 f0 ff ff 	mov    -0xff0(%rbp),%rax
   12995:	8b 15 c5 5a 01 00    	mov    0x15ac5(%rip),%edx        # 28460 <g_2802+0x8>
   1299b:	89 d7                	mov    %edx,%edi
   1299d:	48 8d 95 98 f1 ff ff 	lea    -0xe68(%rbp),%rdx
   129a4:	49 89 c8             	mov    %rcx,%r8
   129a7:	48 89 d1             	mov    %rdx,%rcx
   129aa:	89 f2                	mov    %esi,%edx
   129ac:	48 89 c6             	mov    %rax,%rsi
   129af:	e8 8f 07 00 00       	callq  13143 <func_42>
   129b4:	80 bd 4c ef ff ff 00 	cmpb   $0x0,-0x10b4(%rbp)
   129bb:	74 07                	je     129c4 <func_17+0x123a>
   129bd:	b8 01 00 00 00       	mov    $0x1,%eax
   129c2:	eb 05                	jmp    129c9 <func_17+0x123f>
   129c4:	b8 00 00 00 00       	mov    $0x0,%eax
   129c9:	0f b6 c0             	movzbl %al,%eax
   129cc:	44 89 e6             	mov    %r12d,%esi
   129cf:	89 c7                	mov    %eax,%edi
   129d1:	e8 a2 91 ff ff       	callq  bb78 <safe_sub_func_uint8_t_u_u>
   129d6:	84 c0                	test   %al,%al
   129d8:	74 07                	je     129e1 <func_17+0x1257>
   129da:	b8 01 00 00 00       	mov    $0x1,%eax
   129df:	eb 05                	jmp    129e6 <func_17+0x125c>
   129e1:	b8 00 00 00 00       	mov    $0x0,%eax
   129e6:	98                   	cwtl   
   129e7:	89 de                	mov    %ebx,%esi
   129e9:	89 c7                	mov    %eax,%edi
   129eb:	e8 a2 8a ff ff       	callq  b492 <safe_lshift_func_int16_t_s_s>
   129f0:	0f b7 c0             	movzwl %ax,%eax
   129f3:	be 00 00 00 00       	mov    $0x0,%esi
   129f8:	89 c7                	mov    %eax,%edi
   129fa:	e8 bf 93 ff ff       	callq  bdbe <safe_lshift_func_uint16_t_u_s>
   129ff:	8b 85 98 f1 ff ff    	mov    -0xe68(%rbp),%eax
   12a05:	85 c0                	test   %eax,%eax
   12a07:	74 12                	je     12a1b <func_17+0x1291>
   12a09:	0f b6 05 80 0c 01 00 	movzbl 0x10c80(%rip),%eax        # 23690 <g_3038>
   12a10:	84 c0                	test   %al,%al
   12a12:	74 07                	je     12a1b <func_17+0x1291>
   12a14:	b8 01 00 00 00       	mov    $0x1,%eax
   12a19:	eb 05                	jmp    12a20 <func_17+0x1296>
   12a1b:	b8 00 00 00 00       	mov    $0x0,%eax
   12a20:	48 98                	cltq   
   12a22:	48 be e0 15 e0 0b e4 	movabs $0x4c25aae40be015e0,%rsi
   12a29:	aa 25 4c 
   12a2c:	48 89 c7             	mov    %rax,%rdi
   12a2f:	e8 0d 8e ff ff       	callq  b841 <safe_add_func_int64_t_s_s>
   12a34:	89 c3                	mov    %eax,%ebx
   12a36:	48 8b 85 58 f0 ff ff 	mov    -0xfa8(%rbp),%rax
   12a3d:	8b 00                	mov    (%rax),%eax
   12a3f:	0f b7 d0             	movzwl %ax,%edx
   12a42:	0f b6 85 4c ef ff ff 	movzbl -0x10b4(%rbp),%eax
   12a49:	89 d6                	mov    %edx,%esi
   12a4b:	89 c7                	mov    %eax,%edi
   12a4d:	e8 eb 92 ff ff       	callq  bd3d <safe_mul_func_uint16_t_u_u>
   12a52:	48 8b 85 58 f0 ff ff 	mov    -0xfa8(%rbp),%rax
   12a59:	8b 00                	mov    (%rax),%eax
   12a5b:	89 de                	mov    %ebx,%esi
   12a5d:	89 c7                	mov    %eax,%edi
   12a5f:	e8 99 94 ff ff       	callq  befd <safe_mod_func_uint32_t_u_u>
   12a64:	89 c0                	mov    %eax,%eax
   12a66:	48 f7 d0             	not    %rax
   12a69:	48 89 c2             	mov    %rax,%rdx
   12a6c:	48 8b 85 b8 f0 ff ff 	mov    -0xf48(%rbp),%rax
   12a73:	8b 00                	mov    (%rax),%eax
   12a75:	21 c2                	and    %eax,%edx
   12a77:	48 8b 85 b8 f0 ff ff 	mov    -0xf48(%rbp),%rax
   12a7e:	89 10                	mov    %edx,(%rax)
   12a80:	44 0f b6 a5 4c ef ff 	movzbl -0x10b4(%rbp),%r12d
   12a87:	ff 
   12a88:	48 8b 85 58 f0 ff ff 	mov    -0xfa8(%rbp),%rax
   12a8f:	8b 00                	mov    (%rax),%eax
   12a91:	85 c0                	test   %eax,%eax
   12a93:	0f 85 18 01 00 00    	jne    12bb1 <func_17+0x1427>
   12a99:	48 8b 85 58 f0 ff ff 	mov    -0xfa8(%rbp),%rax
   12aa0:	8b 00                	mov    (%rax),%eax
   12aa2:	21 85 8c ef ff ff    	and    %eax,-0x1074(%rbp)
   12aa8:	8b 85 8c ef ff ff    	mov    -0x1074(%rbp),%eax
   12aae:	48 63 d0             	movslq %eax,%rdx
   12ab1:	48 8b 85 88 f0 ff ff 	mov    -0xf78(%rbp),%rax
   12ab8:	48 89 d6             	mov    %rdx,%rsi
   12abb:	48 89 c7             	mov    %rax,%rdi
   12abe:	e8 7e 8d ff ff       	callq  b841 <safe_add_func_int64_t_s_s>
   12ac3:	49 89 c5             	mov    %rax,%r13
   12ac6:	48 8b 05 7b 4e 01 00 	mov    0x14e7b(%rip),%rax        # 27948 <g_1770>
   12acd:	48 8b 00             	mov    (%rax),%rax
   12ad0:	48 8b 00             	mov    (%rax),%rax
   12ad3:	0f b6 00             	movzbl (%rax),%eax
   12ad6:	0f b6 d8             	movzbl %al,%ebx
   12ad9:	48 8b 05 50 0b 01 00 	mov    0x10b50(%rip),%rax        # 23630 <g_1066>
   12ae0:	89 85 78 ef ff ff    	mov    %eax,-0x1088(%rbp)
   12ae6:	8b 95 78 ef ff ff    	mov    -0x1088(%rbp),%edx
   12aec:	0f b6 85 4c ef ff ff 	movzbl -0x10b4(%rbp),%eax
   12af3:	89 d6                	mov    %edx,%esi
   12af5:	89 c7                	mov    %eax,%edi
   12af7:	e8 96 89 ff ff       	callq  b492 <safe_lshift_func_int16_t_s_s>
   12afc:	98                   	cwtl   
   12afd:	09 d8                	or     %ebx,%eax
   12aff:	3d e2 05 5b 64       	cmp    $0x645b05e2,%eax
   12b04:	0f 9f c0             	setg   %al
   12b07:	0f b6 c0             	movzbl %al,%eax
   12b0a:	be 06 00 00 00       	mov    $0x6,%esi
   12b0f:	89 c7                	mov    %eax,%edi
   12b11:	e8 a8 92 ff ff       	callq  bdbe <safe_lshift_func_uint16_t_u_s>
   12b16:	89 c2                	mov    %eax,%edx
   12b18:	48 8b 05 c9 4d 01 00 	mov    0x14dc9(%rip),%rax        # 278e8 <g_845>
   12b1f:	48 8b 00             	mov    (%rax),%rax
   12b22:	0f b7 d2             	movzwl %dx,%edx
   12b25:	48 89 10             	mov    %rdx,(%rax)
   12b28:	48 8b 00             	mov    (%rax),%rax
   12b2b:	89 85 98 f1 ff ff    	mov    %eax,-0xe68(%rbp)
   12b31:	8b 95 98 f1 ff ff    	mov    -0xe68(%rbp),%edx
   12b37:	8b 85 74 ef ff ff    	mov    -0x108c(%rbp),%eax
   12b3d:	31 d0                	xor    %edx,%eax
   12b3f:	89 85 74 ef ff ff    	mov    %eax,-0x108c(%rbp)
   12b45:	8b 85 74 ef ff ff    	mov    -0x108c(%rbp),%eax
   12b4b:	48 98                	cltq   
   12b4d:	4c 89 ee             	mov    %r13,%rsi
   12b50:	48 89 c7             	mov    %rax,%rdi
   12b53:	e8 28 95 ff ff       	callq  c080 <safe_mod_func_uint64_t_u_u>
   12b58:	48 89 c3             	mov    %rax,%rbx
   12b5b:	48 8b 85 58 f0 ff ff 	mov    -0xfa8(%rbp),%rax
   12b62:	8b 00                	mov    (%rax),%eax
   12b64:	48 63 d0             	movslq %eax,%rdx
   12b67:	48 8b 85 58 f0 ff ff 	mov    -0xfa8(%rbp),%rax
   12b6e:	8b 00                	mov    (%rax),%eax
   12b70:	83 f8 01             	cmp    $0x1,%eax
   12b73:	0f 95 c0             	setne  %al
   12b76:	0f b6 c0             	movzbl %al,%eax
   12b79:	f7 d0                	not    %eax
   12b7b:	48 98                	cltq   
   12b7d:	48 89 d6             	mov    %rdx,%rsi
   12b80:	48 89 c7             	mov    %rax,%rdi
   12b83:	e8 a6 94 ff ff       	callq  c02e <safe_add_func_uint64_t_u_u>
   12b88:	0f b6 15 11 0b 01 00 	movzbl 0x10b11(%rip),%edx        # 236a0 <g_3137+0x8>
   12b8f:	48 0f be d2          	movsbq %dl,%rdx
   12b93:	48 39 d0             	cmp    %rdx,%rax
   12b96:	0f 97 c0             	seta   %al
   12b99:	0f b6 c0             	movzbl %al,%eax
   12b9c:	48 39 c3             	cmp    %rax,%rbx
   12b9f:	74 10                	je     12bb1 <func_17+0x1427>
   12ba1:	80 bd 4c ef ff ff 00 	cmpb   $0x0,-0x10b4(%rbp)
   12ba8:	74 07                	je     12bb1 <func_17+0x1427>
   12baa:	ba 01 00 00 00       	mov    $0x1,%edx
   12baf:	eb 05                	jmp    12bb6 <func_17+0x142c>
   12bb1:	ba 00 00 00 00       	mov    $0x0,%edx
   12bb6:	0f b6 85 4c ef ff ff 	movzbl -0x10b4(%rbp),%eax
   12bbd:	21 d0                	and    %edx,%eax
   12bbf:	41 39 c4             	cmp    %eax,%r12d
   12bc2:	0f 94 c0             	sete   %al
   12bc5:	0f b6 c8             	movzbl %al,%ecx
   12bc8:	48 8b 05 89 48 01 00 	mov    0x14889(%rip),%rax        # 27458 <g_207>
   12bcf:	48 8b 00             	mov    (%rax),%rax
   12bd2:	48 8b 00             	mov    (%rax),%rax
   12bd5:	8b 10                	mov    (%rax),%edx
   12bd7:	48 8b 05 7a 48 01 00 	mov    0x1487a(%rip),%rax        # 27458 <g_207>
   12bde:	48 8b 00             	mov    (%rax),%rax
   12be1:	48 8b 00             	mov    (%rax),%rax
   12be4:	21 ca                	and    %ecx,%edx
   12be6:	89 10                	mov    %edx,(%rax)
   12be8:	48 8b 85 58 f0 ff ff 	mov    -0xfa8(%rbp),%rax
   12bef:	8b 00                	mov    (%rax),%eax
   12bf1:	f7 d0                	not    %eax
   12bf3:	c1 e8 1f             	shr    $0x1f,%eax
   12bf6:	0f b6 c0             	movzbl %al,%eax
   12bf9:	8b 95 98 f1 ff ff    	mov    -0xe68(%rbp),%edx
   12bff:	09 d0                	or     %edx,%eax
   12c01:	0f b7 d0             	movzwl %ax,%edx
   12c04:	8b 85 74 ef ff ff    	mov    -0x108c(%rbp),%eax
   12c0a:	0f b7 c0             	movzwl %ax,%eax
   12c0d:	89 d6                	mov    %edx,%esi
   12c0f:	89 c7                	mov    %eax,%edi
   12c11:	e8 27 91 ff ff       	callq  bd3d <safe_mul_func_uint16_t_u_u>
   12c16:	66 85 c0             	test   %ax,%ax
   12c19:	0f 85 b5 00 00 00    	jne    12cd4 <func_17+0x154a>
   12c1f:	48 8b 05 0a 48 01 00 	mov    0x1480a(%rip),%rax        # 27430 <g_209>
   12c26:	8b 18                	mov    (%rax),%ebx
   12c28:	48 8b 85 58 f0 ff ff 	mov    -0xfa8(%rbp),%rax
   12c2f:	c7 00 57 9a 00 00    	movl   $0x9a57,(%rax)
   12c35:	48 8d 85 20 f2 ff ff 	lea    -0xde0(%rbp),%rax
   12c3c:	48 83 c0 08          	add    $0x8,%rax
   12c40:	48 39 85 a8 f0 ff ff 	cmp    %rax,-0xf58(%rbp)
   12c47:	0f 94 c0             	sete   %al
   12c4a:	0f b6 d0             	movzbl %al,%edx
   12c4d:	8b 85 78 ef ff ff    	mov    -0x1088(%rbp),%eax
   12c53:	31 c2                	xor    %eax,%edx
   12c55:	8b 85 78 ef ff ff    	mov    -0x1088(%rbp),%eax
   12c5b:	89 d6                	mov    %edx,%esi
   12c5d:	89 c7                	mov    %eax,%edi
   12c5f:	e8 52 89 ff ff       	callq  b5b6 <safe_add_func_int32_t_s_s>
   12c64:	0f b7 85 5c ef ff ff 	movzwl -0x10a4(%rbp),%eax
   12c6b:	66 0d 57 9a          	or     $0x9a57,%ax
   12c6f:	0f b7 c0             	movzwl %ax,%eax
   12c72:	89 c6                	mov    %eax,%esi
   12c74:	bf 57 e3 00 00       	mov    $0xe357,%edi
   12c79:	e8 bf 90 ff ff       	callq  bd3d <safe_mul_func_uint16_t_u_u>
   12c7e:	66 85 c0             	test   %ax,%ax
   12c81:	75 08                	jne    12c8b <func_17+0x1501>
   12c83:	8b 85 74 ef ff ff    	mov    -0x108c(%rbp),%eax
   12c89:	85 c0                	test   %eax,%eax
   12c8b:	48 83 bd 70 f0 ff ff 	cmpq   $0x0,-0xf90(%rbp)
   12c92:	00 
   12c93:	0f 94 c0             	sete   %al
   12c96:	0f b6 c0             	movzbl %al,%eax
   12c99:	8b 95 8c ef ff ff    	mov    -0x1074(%rbp),%edx
   12c9f:	89 d6                	mov    %edx,%esi
   12ca1:	89 c7                	mov    %eax,%edi
   12ca3:	e8 5d 8f ff ff       	callq  bc05 <safe_lshift_func_uint8_t_u_s>
   12ca8:	0f b6 c0             	movzbl %al,%eax
   12cab:	89 85 78 ef ff ff    	mov    %eax,-0x1088(%rbp)
   12cb1:	8b 95 78 ef ff ff    	mov    -0x1088(%rbp),%edx
   12cb7:	0f b7 85 5c ef ff ff 	movzwl -0x10a4(%rbp),%eax
   12cbe:	39 c2                	cmp    %eax,%edx
   12cc0:	0f 9c c0             	setl   %al
   12cc3:	0f b6 c0             	movzbl %al,%eax
   12cc6:	89 de                	mov    %ebx,%esi
   12cc8:	89 c7                	mov    %eax,%edi
   12cca:	e8 30 8a ff ff       	callq  b6ff <safe_div_func_int32_t_s_s>
   12ccf:	83 f8 01             	cmp    $0x1,%eax
   12cd2:	7e 07                	jle    12cdb <func_17+0x1551>
   12cd4:	b8 01 00 00 00       	mov    $0x1,%eax
   12cd9:	eb 05                	jmp    12ce0 <func_17+0x1556>
   12cdb:	b8 00 00 00 00       	mov    $0x0,%eax
   12ce0:	0f b6 c0             	movzbl %al,%eax
   12ce3:	be 07 00 00 00       	mov    $0x7,%esi
   12ce8:	89 c7                	mov    %eax,%edi
   12cea:	e8 9e 8f ff ff       	callq  bc8d <safe_rshift_func_uint8_t_u_s>
   12cef:	0f be c0             	movsbl %al,%eax
   12cf2:	be 01 00 00 00       	mov    $0x1,%esi
   12cf7:	89 c7                	mov    %eax,%edi
   12cf9:	e8 37 86 ff ff       	callq  b335 <safe_rshift_func_int8_t_s_s>
   12cfe:	0f be d0             	movsbl %al,%edx
   12d01:	48 8b 05 c0 4b 01 00 	mov    0x14bc0(%rip),%rax        # 278c8 <g_656>
   12d08:	8b 00                	mov    (%rax),%eax
   12d0a:	39 c2                	cmp    %eax,%edx
   12d0c:	0f 84 89 01 00 00    	je     12e9b <func_17+0x1711>
   12d12:	48 8d 05 2f 47 01 00 	lea    0x1472f(%rip),%rax        # 27448 <g_208+0x8>
   12d19:	48 89 85 70 f2 ff ff 	mov    %rax,-0xd90(%rbp)
   12d20:	48 8d 05 21 47 01 00 	lea    0x14721(%rip),%rax        # 27448 <g_208+0x8>
   12d27:	48 89 85 78 f2 ff ff 	mov    %rax,-0xd88(%rbp)
   12d2e:	48 8d 05 13 47 01 00 	lea    0x14713(%rip),%rax        # 27448 <g_208+0x8>
   12d35:	48 89 85 80 f2 ff ff 	mov    %rax,-0xd80(%rbp)
   12d3c:	48 8d 05 05 47 01 00 	lea    0x14705(%rip),%rax        # 27448 <g_208+0x8>
   12d43:	48 89 85 88 f2 ff ff 	mov    %rax,-0xd78(%rbp)
   12d4a:	48 8d 85 40 f8 ff ff 	lea    -0x7c0(%rbp),%rax
   12d51:	48 8d 15 c8 29 01 00 	lea    0x129c8(%rip),%rdx        # 25720 <g_4082+0x1c20>
   12d58:	b9 51 00 00 00       	mov    $0x51,%ecx
   12d5d:	48 89 c7             	mov    %rax,%rdi
   12d60:	48 89 d6             	mov    %rdx,%rsi
   12d63:	f3 48 a5             	rep movsq %ds:(%rsi),%es:(%rdi)
   12d66:	80 bd 4c ef ff ff 00 	cmpb   $0x0,-0x10b4(%rbp)
   12d6d:	0f 94 c2             	sete   %dl
   12d70:	48 8b 05 e1 46 01 00 	mov    0x146e1(%rip),%rax        # 27458 <g_207>
   12d77:	48 8b 00             	mov    (%rax),%rax
   12d7a:	48 8b 00             	mov    (%rax),%rax
   12d7d:	0f b6 d2             	movzbl %dl,%edx
   12d80:	89 10                	mov    %edx,(%rax)
   12d82:	80 bd 4c ef ff ff 00 	cmpb   $0x0,-0x10b4(%rbp)
   12d89:	74 10                	je     12d9b <func_17+0x1611>
   12d8b:	80 bd 4c ef ff ff 00 	cmpb   $0x0,-0x10b4(%rbp)
   12d92:	74 07                	je     12d9b <func_17+0x1611>
   12d94:	b9 01 00 00 00       	mov    $0x1,%ecx
   12d99:	eb 05                	jmp    12da0 <func_17+0x1616>
   12d9b:	b9 00 00 00 00       	mov    $0x0,%ecx
   12da0:	48 8b 85 80 f2 ff ff 	mov    -0xd80(%rbp),%rax
   12da7:	48 89 85 78 f0 ff ff 	mov    %rax,-0xf88(%rbp)
   12dae:	48 8b 85 78 f0 ff ff 	mov    -0xf88(%rbp),%rax
   12db5:	48 3b 85 80 f0 ff ff 	cmp    -0xf80(%rbp),%rax
   12dbc:	0f 95 c0             	setne  %al
   12dbf:	0f b6 d0             	movzbl %al,%edx
   12dc2:	0f b6 85 4c ef ff ff 	movzbl -0x10b4(%rbp),%eax
   12dc9:	39 c2                	cmp    %eax,%edx
   12dcb:	0f 9c c0             	setl   %al
   12dce:	0f b6 c0             	movzbl %al,%eax
   12dd1:	39 c1                	cmp    %eax,%ecx
   12dd3:	0f 8e 8d 00 00 00    	jle    12e66 <func_17+0x16dc>
   12dd9:	0f b6 9d 4c ef ff ff 	movzbl -0x10b4(%rbp),%ebx
   12de0:	0f b7 95 5e ef ff ff 	movzwl -0x10a2(%rbp),%edx
   12de7:	0f b6 85 4c ef ff ff 	movzbl -0x10b4(%rbp),%eax
   12dee:	48 89 d6             	mov    %rdx,%rsi
   12df1:	48 89 c7             	mov    %rax,%rdi
   12df4:	e8 fe 8b ff ff       	callq  b9f7 <safe_div_func_int64_t_s_s>
   12df9:	48 3d 63 36 a0 71    	cmp    $0x71a03663,%rax
   12dff:	0f 9e c0             	setle  %al
   12e02:	0f b6 c0             	movzbl %al,%eax
   12e05:	48 be b6 71 4d a0 6f 	movabs $0xe102d06fa04d71b6,%rsi
   12e0c:	d0 02 e1 
   12e0f:	48 89 c7             	mov    %rax,%rdi
   12e12:	e8 98 92 ff ff       	callq  c0af <safe_div_func_uint64_t_u_u>
   12e17:	48 8b 95 78 f0 ff ff 	mov    -0xf88(%rbp),%rdx
   12e1e:	48 8b 12             	mov    (%rdx),%rdx
   12e21:	48 8b 12             	mov    (%rdx),%rdx
   12e24:	8b 12                	mov    (%rdx),%edx
   12e26:	48 63 d2             	movslq %edx,%rdx
   12e29:	48 39 d0             	cmp    %rdx,%rax
   12e2c:	0f 93 c0             	setae  %al
   12e2f:	0f b6 d0             	movzbl %al,%edx
   12e32:	8b 05 70 02 01 00    	mov    0x10270(%rip),%eax        # 230a8 <g_361>
   12e38:	21 d0                	and    %edx,%eax
   12e3a:	48 98                	cltq   
   12e3c:	48 89 de             	mov    %rbx,%rsi
   12e3f:	48 89 c7             	mov    %rax,%rdi
   12e42:	e8 61 8a ff ff       	callq  b8a8 <safe_sub_func_int64_t_s_s>
   12e47:	0f b6 85 4c ef ff ff 	movzbl -0x10b4(%rbp),%eax
   12e4e:	0f be c0             	movsbl %al,%eax
   12e51:	be 04 00 00 00       	mov    $0x4,%esi
   12e56:	89 c7                	mov    %eax,%edi
   12e58:	e8 d8 84 ff ff       	callq  b335 <safe_rshift_func_int8_t_s_s>
   12e5d:	80 bd 4c ef ff ff 00 	cmpb   $0x0,-0x10b4(%rbp)
   12e64:	74 07                	je     12e6d <func_17+0x16e3>
   12e66:	ba 01 00 00 00       	mov    $0x1,%edx
   12e6b:	eb 05                	jmp    12e72 <func_17+0x16e8>
   12e6d:	ba 00 00 00 00       	mov    $0x0,%edx
   12e72:	b8 f9 ff ff ff       	mov    $0xfffffff9,%eax
   12e77:	0f be c0             	movsbl %al,%eax
   12e7a:	39 c2                	cmp    %eax,%edx
   12e7c:	0f 9f c0             	setg   %al
   12e7f:	0f b6 d0             	movzbl %al,%edx
   12e82:	48 8b 85 58 f0 ff ff 	mov    -0xfa8(%rbp),%rax
   12e89:	8b 00                	mov    (%rax),%eax
   12e8b:	09 c2                	or     %eax,%edx
   12e8d:	48 8b 85 58 f0 ff ff 	mov    -0xfa8(%rbp),%rax
   12e94:	89 10                	mov    %edx,(%rax)
   12e96:	e9 89 00 00 00       	jmpq   12f24 <func_17+0x179a>
   12e9b:	c7 85 40 f8 ff ff 00 	movl   $0x0,-0x7c0(%rbp)
   12ea2:	00 00 00 
   12ea5:	c7 85 44 f8 ff ff 00 	movl   $0x0,-0x7bc(%rbp)
   12eac:	00 00 00 
   12eaf:	c7 85 48 f8 ff ff 04 	movl   $0x17c1a104,-0x7b8(%rbp)
   12eb6:	a1 c1 17 
   12eb9:	c7 85 4c f8 ff ff 00 	movl   $0x0,-0x7b4(%rbp)
   12ec0:	00 00 00 
   12ec3:	c7 85 50 f8 ff ff 00 	movl   $0x0,-0x7b0(%rbp)
   12eca:	00 00 00 
   12ecd:	c7 85 54 f8 ff ff 04 	movl   $0x17c1a104,-0x7ac(%rbp)
   12ed4:	a1 c1 17 
   12ed7:	c7 85 c4 ef ff ff 1f 	movl   $0x6001af1f,-0x103c(%rbp)
   12ede:	af 01 60 
   12ee1:	66 c7 85 58 ef ff ff 	movw   $0x0,-0x10a8(%rbp)
   12ee8:	00 00 
   12eea:	eb 2e                	jmp    12f1a <func_17+0x1790>
   12eec:	c7 85 c8 ef ff ff ff 	movl   $0xffffffff,-0x1038(%rbp)
   12ef3:	ff ff ff 
   12ef6:	c7 85 cc ef ff ff ff 	movl   $0xffffffff,-0x1034(%rbp)
   12efd:	ff ff ff 
   12f00:	0f b7 85 58 ef ff ff 	movzwl -0x10a8(%rbp),%eax
   12f07:	be 05 00 00 00       	mov    $0x5,%esi
   12f0c:	89 c7                	mov    %eax,%edi
   12f0e:	e8 a3 86 ff ff       	callq  b5b6 <safe_add_func_int32_t_s_s>
   12f13:	66 89 85 58 ef ff ff 	mov    %ax,-0x10a8(%rbp)
   12f1a:	66 83 bd 58 ef ff ff 	cmpw   $0x3a,-0x10a8(%rbp)
   12f21:	3a 
   12f22:	74 c8                	je     12eec <func_17+0x1762>
   12f24:	0f b7 05 c5 05 01 00 	movzwl 0x105c5(%rip),%eax        # 234f0 <g_610>
   12f2b:	83 c0 01             	add    $0x1,%eax
   12f2e:	66 89 05 bb 05 01 00 	mov    %ax,0x105bb(%rip)        # 234f0 <g_610>
   12f35:	0f b7 05 b4 05 01 00 	movzwl 0x105b4(%rip),%eax        # 234f0 <g_610>
   12f3c:	66 83 f8 2d          	cmp    $0x2d,%ax
   12f40:	0f 86 a9 f0 ff ff    	jbe    11fef <func_17+0x865>
   12f46:	eb 01                	jmp    12f49 <func_17+0x17bf>
   12f48:	90                   	nop
   12f49:	48 8b 05 80 4a 01 00 	mov    0x14a80(%rip),%rax        # 279d0 <g_2759>
   12f50:	48 8b 00             	mov    (%rax),%rax
   12f53:	48 8b 00             	mov    (%rax),%rax
   12f56:	0f b6 00             	movzbl (%rax),%eax
   12f59:	48 8b 5d c8          	mov    -0x38(%rbp),%rbx
   12f5d:	64 48 33 1c 25 28 00 	xor    %fs:0x28,%rbx
   12f64:	00 00 
   12f66:	74 05                	je     12f6d <func_17+0x17e3>
   12f68:	e8 03 81 ff ff       	callq  b070 <__stack_chk_fail@plt>
   12f6d:	48 81 c4 98 10 00 00 	add    $0x1098,%rsp
   12f74:	5b                   	pop    %rbx
   12f75:	41 5c                	pop    %r12
   12f77:	41 5d                	pop    %r13
   12f79:	41 5e                	pop    %r14
   12f7b:	41 5f                	pop    %r15
   12f7d:	5d                   	pop    %rbp
   12f7e:	c3                   	retq   

0000000000012f7f <func_39>:
   12f7f:	f3 0f 1e fa          	endbr64 
   12f83:	55                   	push   %rbp
   12f84:	48 89 e5             	mov    %rsp,%rbp
   12f87:	53                   	push   %rbx
   12f88:	48 81 ec a8 00 00 00 	sub    $0xa8,%rsp
   12f8f:	48 89 bd 58 ff ff ff 	mov    %rdi,-0xa8(%rbp)
   12f96:	89 b5 54 ff ff ff    	mov    %esi,-0xac(%rbp)
   12f9c:	64 48 8b 04 25 28 00 	mov    %fs:0x28,%rax
   12fa3:	00 00 
   12fa5:	48 89 45 e8          	mov    %rax,-0x18(%rbp)
   12fa9:	31 c0                	xor    %eax,%eax
   12fab:	c6 85 6f ff ff ff ff 	movb   $0xff,-0x91(%rbp)
   12fb2:	48 8d 05 17 54 01 00 	lea    0x15417(%rip),%rax        # 283d0 <g_229>
   12fb9:	48 89 85 70 ff ff ff 	mov    %rax,-0x90(%rbp)
   12fc0:	48 b8 20 34 97 34 20 	movabs $0x5b5b972034973420,%rax
   12fc7:	97 5b 5b 
   12fca:	48 89 45 80          	mov    %rax,-0x80(%rbp)
   12fce:	c6 45 88 97          	movb   $0x97,-0x78(%rbp)
   12fd2:	48 b8 01 be 01 be ff 	movabs $0x10101ffbe01be01,%rax
   12fd9:	01 01 01 
   12fdc:	48 89 45 89          	mov    %rax,-0x77(%rbp)
   12fe0:	c6 45 91 01          	movb   $0x1,-0x6f(%rbp)
   12fe4:	48 b8 d4 3b 5b 3b d4 	movabs $0x2025bd43b5b3bd4,%rax
   12feb:	5b 02 02 
   12fee:	48 89 45 92          	mov    %rax,-0x6e(%rbp)
   12ff2:	c6 45 9a 5b          	movb   $0x5b,-0x66(%rbp)
   12ff6:	48 bb ff be 01 be ff 	movabs $0x10101ffbe01beff,%rbx
   12ffd:	01 01 01 
   13000:	48 89 5d 9b          	mov    %rbx,-0x65(%rbp)
   13004:	c6 45 a3 01          	movb   $0x1,-0x5d(%rbp)
   13008:	48 89 45 a4          	mov    %rax,-0x5c(%rbp)
   1300c:	c6 45 ac 5b          	movb   $0x5b,-0x54(%rbp)
   13010:	48 89 5d ad          	mov    %rbx,-0x53(%rbp)
   13014:	c6 45 b5 01          	movb   $0x1,-0x4b(%rbp)
   13018:	48 89 45 b6          	mov    %rax,-0x4a(%rbp)
   1301c:	c6 45 be 5b          	movb   $0x5b,-0x42(%rbp)
   13020:	48 89 5d bf          	mov    %rbx,-0x41(%rbp)
   13024:	c6 45 c7 01          	movb   $0x1,-0x39(%rbp)
   13028:	48 89 45 c8          	mov    %rax,-0x38(%rbp)
   1302c:	c6 45 d0 5b          	movb   $0x5b,-0x30(%rbp)
   13030:	48 89 5d d1          	mov    %rbx,-0x2f(%rbp)
   13034:	c6 45 d9 01          	movb   $0x1,-0x27(%rbp)
   13038:	48 8d 05 0d 00 01 00 	lea    0x1000d(%rip),%rax        # 2304c <g_22+0xc>
   1303f:	48 89 85 78 ff ff ff 	mov    %rax,-0x88(%rbp)
   13046:	0f b6 45 82          	movzbl -0x7e(%rbp),%eax
   1304a:	0f be d0             	movsbl %al,%edx
   1304d:	48 8b 05 64 48 01 00 	mov    0x14864(%rip),%rax        # 278b8 <g_464>
   13054:	0f b6 00             	movzbl (%rax),%eax
   13057:	0f b6 c0             	movzbl %al,%eax
   1305a:	39 85 54 ff ff ff    	cmp    %eax,-0xac(%rbp)
   13060:	0f 93 c0             	setae  %al
   13063:	0f b6 c0             	movzbl %al,%eax
   13066:	89 d6                	mov    %edx,%esi
   13068:	89 c7                	mov    %eax,%edi
   1306a:	e8 86 83 ff ff       	callq  b3f5 <safe_mul_func_int16_t_s_s>
   1306f:	8b 05 87 04 01 00    	mov    0x10487(%rip),%eax        # 234fc <g_682>
   13075:	39 85 54 ff ff ff    	cmp    %eax,-0xac(%rbp)
   1307b:	0f 96 c0             	setbe  %al
   1307e:	0f b6 c0             	movzbl %al,%eax
   13081:	39 85 54 ff ff ff    	cmp    %eax,-0xac(%rbp)
   13087:	0f 96 c0             	setbe  %al
   1308a:	0f b6 d8             	movzbl %al,%ebx
   1308d:	8b 85 54 ff ff ff    	mov    -0xac(%rbp),%eax
   13093:	0f bf d0             	movswl %ax,%edx
   13096:	80 bd 6f ff ff ff 00 	cmpb   $0x0,-0x91(%rbp)
   1309d:	0f 9f c0             	setg   %al
   130a0:	0f b6 c0             	movzbl %al,%eax
   130a3:	8b 8d 54 ff ff ff    	mov    -0xac(%rbp),%ecx
   130a9:	21 c8                	and    %ecx,%eax
   130ab:	98                   	cwtl   
   130ac:	89 d6                	mov    %edx,%esi
   130ae:	89 c7                	mov    %eax,%edi
   130b0:	e8 fe 82 ff ff       	callq  b3b3 <safe_add_func_int16_t_s_s>
   130b5:	48 8b 05 0c 48 01 00 	mov    0x1480c(%rip),%rax        # 278c8 <g_656>
   130bc:	8b 00                	mov    (%rax),%eax
   130be:	39 85 54 ff ff ff    	cmp    %eax,-0xac(%rbp)
   130c4:	0f 93 c0             	setae  %al
   130c7:	0f b6 d0             	movzbl %al,%edx
   130ca:	48 8b 85 70 ff ff ff 	mov    -0x90(%rbp),%rax
   130d1:	66 89 10             	mov    %dx,(%rax)
   130d4:	48 8b 85 70 ff ff ff 	mov    -0x90(%rbp),%rax
   130db:	0f b7 00             	movzwl (%rax),%eax
   130de:	0f b7 c0             	movzwl %ax,%eax
   130e1:	89 de                	mov    %ebx,%esi
   130e3:	89 c7                	mov    %eax,%edi
   130e5:	e8 53 8c ff ff       	callq  bd3d <safe_mul_func_uint16_t_u_u>
   130ea:	89 c2                	mov    %eax,%edx
   130ec:	8b 85 54 ff ff ff    	mov    -0xac(%rbp),%eax
   130f2:	09 d0                	or     %edx,%eax
   130f4:	0f be c0             	movsbl %al,%eax
   130f7:	be 54 00 00 00       	mov    $0x54,%esi
   130fc:	89 c7                	mov    %eax,%edi
   130fe:	e8 0f 81 ff ff       	callq  b212 <safe_mul_func_int8_t_s_s>
   13103:	ba 00 00 00 00       	mov    $0x0,%edx
   13108:	48 8b 85 78 ff ff ff 	mov    -0x88(%rbp),%rax
   1310f:	8b 00                	mov    (%rax),%eax
   13111:	21 c2                	and    %eax,%edx
   13113:	48 8b 85 78 ff ff ff 	mov    -0x88(%rbp),%rax
   1311a:	89 10                	mov    %edx,(%rax)
   1311c:	48 8b 85 78 ff ff ff 	mov    -0x88(%rbp),%rax
   13123:	8b 00                	mov    (%rax),%eax
   13125:	48 8b 4d e8          	mov    -0x18(%rbp),%rcx
   13129:	64 48 33 0c 25 28 00 	xor    %fs:0x28,%rcx
   13130:	00 00 
   13132:	74 05                	je     13139 <func_39+0x1ba>
   13134:	e8 37 7f ff ff       	callq  b070 <__stack_chk_fail@plt>
   13139:	48 81 c4 a8 00 00 00 	add    $0xa8,%rsp
   13140:	5b                   	pop    %rbx
   13141:	5d                   	pop    %rbp
   13142:	c3                   	retq   

0000000000013143 <func_42>:
   13143:	f3 0f 1e fa          	endbr64 
   13147:	55                   	push   %rbp
   13148:	48 89 e5             	mov    %rsp,%rbp
   1314b:	41 57                	push   %r15
   1314d:	41 56                	push   %r14
   1314f:	41 55                	push   %r13
   13151:	41 54                	push   %r12
   13153:	53                   	push   %rbx
   13154:	48 81 ec c8 01 00 00 	sub    $0x1c8,%rsp
   1315b:	48 89 bd 38 fe ff ff 	mov    %rdi,-0x1c8(%rbp)
   13162:	48 89 b5 30 fe ff ff 	mov    %rsi,-0x1d0(%rbp)
   13169:	89 95 2c fe ff ff    	mov    %edx,-0x1d4(%rbp)
   1316f:	48 89 8d 20 fe ff ff 	mov    %rcx,-0x1e0(%rbp)
   13176:	4c 89 85 18 fe ff ff 	mov    %r8,-0x1e8(%rbp)
   1317d:	64 48 8b 04 25 28 00 	mov    %fs:0x28,%rax
   13184:	00 00 
   13186:	48 89 45 c8          	mov    %rax,-0x38(%rbp)
   1318a:	31 c0                	xor    %eax,%eax
   1318c:	66 c7 85 48 fe ff ff 	movw   $0xffff,-0x1b8(%rbp)
   13193:	ff ff 
   13195:	c7 85 54 fe ff ff c1 	movl   $0x307045c1,-0x1ac(%rbp)
   1319c:	45 70 30 
   1319f:	66 c7 85 4a fe ff ff 	movw   $0x6,-0x1b6(%rbp)
   131a6:	06 00 
   131a8:	48 8d 85 a0 fe ff ff 	lea    -0x160(%rbp),%rax
   131af:	48 8d 15 8a b1 00 00 	lea    0xb18a(%rip),%rdx        # 1e340 <g_3481+0x12a0>
   131b6:	b9 24 00 00 00       	mov    $0x24,%ecx
   131bb:	48 89 c7             	mov    %rax,%rdi
   131be:	48 89 d6             	mov    %rdx,%rsi
   131c1:	f3 48 a5             	rep movsq %ds:(%rsi),%es:(%rdi)
   131c4:	c7 85 58 fe ff ff 3b 	movl   $0xc42ac63b,-0x1a8(%rbp)
   131cb:	c6 2a c4 
   131ce:	c7 85 5c fe ff ff cd 	movl   $0x4074cccd,-0x1a4(%rbp)
   131d5:	cc 74 40 
   131d8:	48 c7 85 60 fe ff ff 	movq   $0x0,-0x1a0(%rbp)
   131df:	00 00 00 00 
   131e3:	48 8d 85 60 fe ff ff 	lea    -0x1a0(%rbp),%rax
   131ea:	48 89 85 80 fe ff ff 	mov    %rax,-0x180(%rbp)
   131f1:	48 c7 85 68 fe ff ff 	movq   $0x0,-0x198(%rbp)
   131f8:	00 00 00 00 
   131fc:	48 8d 85 68 fe ff ff 	lea    -0x198(%rbp),%rax
   13203:	48 89 85 88 fe ff ff 	mov    %rax,-0x178(%rbp)
   1320a:	c6 85 47 fe ff ff 4b 	movb   $0x4b,-0x1b9(%rbp)
   13211:	48 8d 05 d0 46 01 00 	lea    0x146d0(%rip),%rax        # 278e8 <g_845>
   13218:	48 89 85 70 fe ff ff 	mov    %rax,-0x190(%rbp)
   1321f:	48 8d 85 70 fe ff ff 	lea    -0x190(%rbp),%rax
   13226:	48 89 85 78 fe ff ff 	mov    %rax,-0x188(%rbp)
   1322d:	c7 85 4c fe ff ff 00 	movl   $0x0,-0x1b4(%rbp)
   13234:	00 00 00 
   13237:	eb 42                	jmp    1327b <func_42+0x138>
   13239:	c7 85 50 fe ff ff 00 	movl   $0x0,-0x1b0(%rbp)
   13240:	00 00 00 
   13243:	eb 26                	jmp    1326b <func_42+0x128>
   13245:	8b 85 50 fe ff ff    	mov    -0x1b0(%rbp),%eax
   1324b:	48 63 d0             	movslq %eax,%rdx
   1324e:	8b 85 4c fe ff ff    	mov    -0x1b4(%rbp),%eax
   13254:	48 98                	cltq   
   13256:	48 01 d0             	add    %rdx,%rax
   13259:	c7 84 85 94 fe ff ff 	movl   $0xfffffffc,-0x16c(%rbp,%rax,4)
   13260:	fc ff ff ff 
   13264:	83 85 50 fe ff ff 01 	addl   $0x1,-0x1b0(%rbp)
   1326b:	83 bd 50 fe ff ff 00 	cmpl   $0x0,-0x1b0(%rbp)
   13272:	7e d1                	jle    13245 <func_42+0x102>
   13274:	83 85 4c fe ff ff 01 	addl   $0x1,-0x1b4(%rbp)
   1327b:	83 bd 4c fe ff ff 00 	cmpl   $0x0,-0x1b4(%rbp)
   13282:	7e b5                	jle    13239 <func_42+0xf6>
   13284:	c7 85 4c fe ff ff 00 	movl   $0x0,-0x1b4(%rbp)
   1328b:	00 00 00 
   1328e:	eb 1e                	jmp    132ae <func_42+0x16b>
   13290:	8b 85 4c fe ff ff    	mov    -0x1b4(%rbp),%eax
   13296:	48 98                	cltq   
   13298:	48 8d 95 78 fe ff ff 	lea    -0x188(%rbp),%rdx
   1329f:	48 89 94 c5 98 fe ff 	mov    %rdx,-0x168(%rbp,%rax,8)
   132a6:	ff 
   132a7:	83 85 4c fe ff ff 01 	addl   $0x1,-0x1b4(%rbp)
   132ae:	83 bd 4c fe ff ff 00 	cmpl   $0x0,-0x1b4(%rbp)
   132b5:	7e d9                	jle    13290 <func_42+0x14d>
   132b7:	48 8b 85 30 fe ff ff 	mov    -0x1d0(%rbp),%rax
   132be:	0f b7 d8             	movzwl %ax,%ebx
   132c1:	48 8b 05 80 46 01 00 	mov    0x14680(%rip),%rax        # 27948 <g_1770>
   132c8:	48 8b 00             	mov    (%rax),%rax
   132cb:	48 8b 00             	mov    (%rax),%rax
   132ce:	0f b6 00             	movzbl (%rax),%eax
   132d1:	44 0f be e0          	movsbl %al,%r12d
   132d5:	48 8b 05 04 46 01 00 	mov    0x14604(%rip),%rax        # 278e0 <g_846>
   132dc:	4c 8b 28             	mov    (%rax),%r13
   132df:	8b 85 a4 fe ff ff    	mov    -0x15c(%rbp),%eax
   132e5:	44 0f b7 f0          	movzwl %ax,%r14d
   132e9:	44 8b bd 54 fe ff ff 	mov    -0x1ac(%rbp),%r15d
   132f0:	66 83 bd 48 fe ff ff 	cmpw   $0x0,-0x1b8(%rbp)
   132f7:	00 
   132f8:	0f 84 80 00 00 00    	je     1337e <func_42+0x23b>
   132fe:	8b 45 a0             	mov    -0x60(%rbp),%eax
   13301:	48 98                	cltq   
   13303:	48 89 85 10 fe ff ff 	mov    %rax,-0x1f0(%rbp)
   1330a:	66 83 bd 48 fe ff ff 	cmpw   $0x0,-0x1b8(%rbp)
   13311:	00 
   13312:	74 2d                	je     13341 <func_42+0x1fe>
   13314:	48 8b 85 30 fe ff ff 	mov    -0x1d0(%rbp),%rax
   1331b:	0f b7 d0             	movzwl %ax,%edx
   1331e:	8b 85 2c fe ff ff    	mov    -0x1d4(%rbp),%eax
   13324:	3b 85 54 fe ff ff    	cmp    -0x1ac(%rbp),%eax
   1332a:	0f 9f c0             	setg   %al
   1332d:	0f b6 c0             	movzbl %al,%eax
   13330:	89 d6                	mov    %edx,%esi
   13332:	89 c7                	mov    %eax,%edi
   13334:	e8 04 8a ff ff       	callq  bd3d <safe_mul_func_uint16_t_u_u>
   13339:	66 83 bd 4a fe ff ff 	cmpw   $0x0,-0x1b6(%rbp)
   13340:	00 
   13341:	48 8b 05 80 45 01 00 	mov    0x14580(%rip),%rax        # 278c8 <g_656>
   13348:	48 8b b5 10 fe ff ff 	mov    -0x1f0(%rbp),%rsi
   1334f:	bf 00 00 00 00       	mov    $0x0,%edi
   13354:	e8 4f 85 ff ff       	callq  b8a8 <safe_sub_func_int64_t_s_s>
   13359:	48 8b 95 18 fe ff ff 	mov    -0x1e8(%rbp),%rdx
   13360:	8b 12                	mov    (%rdx),%edx
   13362:	48 63 d2             	movslq %edx,%rdx
   13365:	48 09 c2             	or     %rax,%rdx
   13368:	8b 85 54 fe ff ff    	mov    -0x1ac(%rbp),%eax
   1336e:	48 98                	cltq   
   13370:	48 21 c2             	and    %rax,%rdx
   13373:	8b 85 54 fe ff ff    	mov    -0x1ac(%rbp),%eax
   13379:	48 98                	cltq   
   1337b:	48 39 c2             	cmp    %rax,%rdx
   1337e:	8b 85 58 fe ff ff    	mov    -0x1a8(%rbp),%eax
   13384:	89 c6                	mov    %eax,%esi
   13386:	bf 00 00 00 00       	mov    $0x0,%edi
   1338b:	e8 6f 83 ff ff       	callq  b6ff <safe_div_func_int32_t_s_s>
   13390:	83 f8 01             	cmp    $0x1,%eax
   13393:	74 11                	je     133a6 <func_42+0x263>
   13395:	8b 05 8d 50 01 00    	mov    0x1508d(%rip),%eax        # 28428 <g_2356>
   1339b:	85 c0                	test   %eax,%eax
   1339d:	74 07                	je     133a6 <func_42+0x263>
   1339f:	b8 01 00 00 00       	mov    $0x1,%eax
   133a4:	eb 05                	jmp    133ab <func_42+0x268>
   133a6:	b8 00 00 00 00       	mov    $0x0,%eax
   133ab:	44 89 fe             	mov    %r15d,%esi
   133ae:	89 c7                	mov    %eax,%edi
   133b0:	e8 1b 8b ff ff       	callq  bed0 <safe_sub_func_uint32_t_u_u>
   133b5:	8b 95 58 fe ff ff    	mov    -0x1a8(%rbp),%edx
   133bb:	39 d0                	cmp    %edx,%eax
   133bd:	0f 92 c0             	setb   %al
   133c0:	0f b6 d0             	movzbl %al,%edx
   133c3:	48 8b 05 f6 44 01 00 	mov    0x144f6(%rip),%rax        # 278c0 <g_463>
   133ca:	48 8b 00             	mov    (%rax),%rax
   133cd:	0f b6 00             	movzbl (%rax),%eax
   133d0:	0f b6 c0             	movzbl %al,%eax
   133d3:	39 c2                	cmp    %eax,%edx
   133d5:	0f 9c c0             	setl   %al
   133d8:	0f b6 c0             	movzbl %al,%eax
   133db:	44 89 f6             	mov    %r14d,%esi
   133de:	89 c7                	mov    %eax,%edi
   133e0:	e8 77 89 ff ff       	callq  bd5c <safe_mod_func_uint16_t_u_u>
   133e5:	0f b7 c0             	movzwl %ax,%eax
   133e8:	4c 89 ee             	mov    %r13,%rsi
   133eb:	48 89 c7             	mov    %rax,%rdi
   133ee:	e8 bc 8c ff ff       	callq  c0af <safe_div_func_uint64_t_u_u>
   133f3:	0f be c0             	movsbl %al,%eax
   133f6:	44 89 e6             	mov    %r12d,%esi
   133f9:	89 c7                	mov    %eax,%edi
   133fb:	e8 d4 7d ff ff       	callq  b1d4 <safe_add_func_int8_t_s_s>
   13400:	b8 00 00 00 00       	mov    $0x0,%eax
   13405:	21 85 5c fe ff ff    	and    %eax,-0x1a4(%rbp)
   1340b:	66 83 bd 48 fe ff ff 	cmpw   $0x0,-0x1b8(%rbp)
   13412:	00 
   13413:	0f 95 c0             	setne  %al
   13416:	0f b6 c0             	movzbl %al,%eax
   13419:	48 39 85 30 fe ff ff 	cmp    %rax,-0x1d0(%rbp)
   13420:	0f 92 c2             	setb   %dl
   13423:	48 8b 05 b6 44 01 00 	mov    0x144b6(%rip),%rax        # 278e0 <g_846>
   1342a:	0f b6 d2             	movzbl %dl,%edx
   1342d:	48 89 10             	mov    %rdx,(%rax)
   13430:	48 8b 00             	mov    (%rax),%rax
   13433:	8b 95 94 fe ff ff    	mov    -0x16c(%rbp),%edx
   13439:	21 d0                	and    %edx,%eax
   1343b:	89 85 94 fe ff ff    	mov    %eax,-0x16c(%rbp)
   13441:	89 de                	mov    %ebx,%esi
   13443:	bf ee 45 00 00       	mov    $0x45ee,%edi
   13448:	e8 d2 88 ff ff       	callq  bd1f <safe_sub_func_uint16_t_u_u>
   1344d:	48 0f bf 85 48 fe ff 	movswq -0x1b8(%rbp),%rax
   13454:	ff 
   13455:	8b 55 a0             	mov    -0x60(%rbp),%edx
   13458:	48 63 ca             	movslq %edx,%rcx
   1345b:	48 8b 95 38 fe ff ff 	mov    -0x1c8(%rbp),%rdx
   13462:	48 09 ca             	or     %rcx,%rdx
   13465:	48 31 d0             	xor    %rdx,%rax
   13468:	48 85 c0             	test   %rax,%rax
   1346b:	0f 9f c0             	setg   %al
   1346e:	0f b6 d0             	movzbl %al,%edx
   13471:	8b 85 2c fe ff ff    	mov    -0x1d4(%rbp),%eax
   13477:	f7 d0                	not    %eax
   13479:	0f be c0             	movsbl %al,%eax
   1347c:	89 d6                	mov    %edx,%esi
   1347e:	89 c7                	mov    %eax,%edi
   13480:	e8 8d 7d ff ff       	callq  b212 <safe_mul_func_int8_t_s_s>
   13485:	84 c0                	test   %al,%al
   13487:	75 0a                	jne    13493 <func_42+0x350>
   13489:	48 83 bd 30 fe ff ff 	cmpq   $0x0,-0x1d0(%rbp)
   13490:	00 
   13491:	74 07                	je     1349a <func_42+0x357>
   13493:	ba 01 00 00 00       	mov    $0x1,%edx
   13498:	eb 05                	jmp    1349f <func_42+0x35c>
   1349a:	ba 00 00 00 00       	mov    $0x0,%edx
   1349f:	48 8b 85 18 fe ff ff 	mov    -0x1e8(%rbp),%rax
   134a6:	89 10                	mov    %edx,(%rax)
   134a8:	66 83 bd 4a fe ff ff 	cmpw   $0x0,-0x1b6(%rbp)
   134af:	00 
   134b0:	0f 84 d1 00 00 00    	je     13587 <func_42+0x444>
   134b6:	48 83 bd 30 fe ff ff 	cmpq   $0x0,-0x1d0(%rbp)
   134bd:	00 
   134be:	0f 95 c0             	setne  %al
   134c1:	0f b6 c0             	movzbl %al,%eax
   134c4:	89 c7                	mov    %eax,%edi
   134c6:	e8 7a 86 ff ff       	callq  bb45 <safe_unary_minus_func_uint8_t_u>
   134cb:	0f b6 d8             	movzbl %al,%ebx
   134ce:	8b 85 2c fe ff ff    	mov    -0x1d4(%rbp),%eax
   134d4:	0f b7 c0             	movzwl %ax,%eax
   134d7:	89 c7                	mov    %eax,%edi
   134d9:	e8 0b 88 ff ff       	callq  bce9 <safe_unary_minus_func_uint16_t_u>
   134de:	0f b7 c0             	movzwl %ax,%eax
   134e1:	89 de                	mov    %ebx,%esi
   134e3:	89 c7                	mov    %eax,%edi
   134e5:	e8 3b 8a ff ff       	callq  bf25 <safe_div_func_uint32_t_u_u>
   134ea:	8b 85 94 fe ff ff    	mov    -0x16c(%rbp),%eax
   134f0:	0f bf d0             	movswl %ax,%edx
   134f3:	8b 85 2c fe ff ff    	mov    -0x1d4(%rbp),%eax
   134f9:	98                   	cwtl   
   134fa:	89 d6                	mov    %edx,%esi
   134fc:	89 c7                	mov    %eax,%edi
   134fe:	e8 52 7f ff ff       	callq  b455 <safe_div_func_int16_t_s_s>
   13503:	48 8b 95 60 fe ff ff 	mov    -0x1a0(%rbp),%rdx
   1350a:	48 8b 85 80 fe ff ff 	mov    -0x180(%rbp),%rax
   13511:	48 89 10             	mov    %rdx,(%rax)
   13514:	48 8b 85 80 fe ff ff 	mov    -0x180(%rbp),%rax
   1351b:	48 8b 10             	mov    (%rax),%rdx
   1351e:	48 8b 85 88 fe ff ff 	mov    -0x178(%rbp),%rax
   13525:	48 89 10             	mov    %rdx,(%rax)
   13528:	48 8b 85 88 fe ff ff 	mov    -0x178(%rbp),%rax
   1352f:	48 8b 10             	mov    (%rax),%rdx
   13532:	48 8d 85 38 fe ff ff 	lea    -0x1c8(%rbp),%rax
   13539:	48 39 c2             	cmp    %rax,%rdx
   1353c:	0f 94 c0             	sete   %al
   1353f:	0f b6 c0             	movzbl %al,%eax
   13542:	48 63 d0             	movslq %eax,%rdx
   13545:	48 8b 85 38 fe ff ff 	mov    -0x1c8(%rbp),%rax
   1354c:	48 31 d0             	xor    %rdx,%rax
   1354f:	48 89 85 38 fe ff ff 	mov    %rax,-0x1c8(%rbp)
   13556:	48 8b 85 38 fe ff ff 	mov    -0x1c8(%rbp),%rax
   1355d:	48 89 c2             	mov    %rax,%rdx
   13560:	48 8b 05 89 43 01 00 	mov    0x14389(%rip),%rax        # 278f0 <g_844>
   13567:	48 8b 00             	mov    (%rax),%rax
   1356a:	48 8b 00             	mov    (%rax),%rax
   1356d:	48 8b 00             	mov    (%rax),%rax
   13570:	48 89 d6             	mov    %rdx,%rsi
   13573:	48 89 c7             	mov    %rax,%rdi
   13576:	e8 05 8b ff ff       	callq  c080 <safe_mod_func_uint64_t_u_u>
   1357b:	48 85 c0             	test   %rax,%rax
   1357e:	74 07                	je     13587 <func_42+0x444>
   13580:	ba 01 00 00 00       	mov    $0x1,%edx
   13585:	eb 05                	jmp    1358c <func_42+0x449>
   13587:	ba 00 00 00 00       	mov    $0x0,%edx
   1358c:	0f be 85 47 fe ff ff 	movsbl -0x1b9(%rbp),%eax
   13593:	39 c2                	cmp    %eax,%edx
   13595:	0f 94 c0             	sete   %al
   13598:	0f b6 c0             	movzbl %al,%eax
   1359b:	89 c7                	mov    %eax,%edi
   1359d:	e8 fb 7d ff ff       	callq  b39d <safe_unary_minus_func_int16_t_s>
   135a2:	be 11 32 00 00       	mov    $0x3211,%esi
   135a7:	bf 01 00 00 00       	mov    $0x1,%edi
   135ac:	e8 02 7e ff ff       	callq  b3b3 <safe_add_func_int16_t_s_s>
   135b1:	48 8b 95 18 fe ff ff 	mov    -0x1e8(%rbp),%rdx
   135b8:	8b 12                	mov    (%rdx),%edx
   135ba:	98                   	cwtl   
   135bb:	31 c2                	xor    %eax,%edx
   135bd:	48 8b 85 18 fe ff ff 	mov    -0x1e8(%rbp),%rax
   135c4:	89 10                	mov    %edx,(%rax)
   135c6:	48 8b 85 78 fe ff ff 	mov    -0x188(%rbp),%rax
   135cd:	48 89 05 74 4e 01 00 	mov    %rax,0x14e74(%rip)        # 28448 <g_2666>
   135d4:	48 8b 05 6d 4e 01 00 	mov    0x14e6d(%rip),%rax        # 28448 <g_2666>
   135db:	48 89 05 d6 43 01 00 	mov    %rax,0x143d6(%rip)        # 279b8 <g_2667>
   135e2:	48 8b 85 18 fe ff ff 	mov    -0x1e8(%rbp),%rax
   135e9:	48 8b 5d c8          	mov    -0x38(%rbp),%rbx
   135ed:	64 48 33 1c 25 28 00 	xor    %fs:0x28,%rbx
   135f4:	00 00 
   135f6:	74 05                	je     135fd <func_42+0x4ba>
   135f8:	e8 73 7a ff ff       	callq  b070 <__stack_chk_fail@plt>
   135fd:	48 81 c4 c8 01 00 00 	add    $0x1c8,%rsp
   13604:	5b                   	pop    %rbx
   13605:	41 5c                	pop    %r12
   13607:	41 5d                	pop    %r13
   13609:	41 5e                	pop    %r14
   1360b:	41 5f                	pop    %r15
   1360d:	5d                   	pop    %rbp
   1360e:	c3                   	retq   

000000000001360f <func_48>:
   1360f:	f3 0f 1e fa          	endbr64 
   13613:	55                   	push   %rbp
   13614:	48 89 e5             	mov    %rsp,%rbp
   13617:	48 81 ec 40 05 00 00 	sub    $0x540,%rsp
   1361e:	89 bd dc fa ff ff    	mov    %edi,-0x524(%rbp)
   13624:	89 b5 d8 fa ff ff    	mov    %esi,-0x528(%rbp)
   1362a:	48 89 95 d0 fa ff ff 	mov    %rdx,-0x530(%rbp)
   13631:	48 89 8d c8 fa ff ff 	mov    %rcx,-0x538(%rbp)
   13638:	64 48 8b 04 25 28 00 	mov    %fs:0x28,%rax
   1363f:	00 00 
   13641:	48 89 45 f8          	mov    %rax,-0x8(%rbp)
   13645:	31 c0                	xor    %eax,%eax
   13647:	48 c7 85 e0 fa ff ff 	movq   $0x0,-0x520(%rbp)
   1364e:	00 00 00 00 
   13652:	48 8d 85 e0 fa ff ff 	lea    -0x520(%rbp),%rax
   13659:	48 89 85 f0 fa ff ff 	mov    %rax,-0x510(%rbp)
   13660:	48 8d 85 e0 fa ff ff 	lea    -0x520(%rbp),%rax
   13667:	48 89 85 f8 fa ff ff 	mov    %rax,-0x508(%rbp)
   1366e:	48 8d 85 e0 fa ff ff 	lea    -0x520(%rbp),%rax
   13675:	48 89 85 00 fb ff ff 	mov    %rax,-0x500(%rbp)
   1367c:	48 8d 85 e0 fa ff ff 	lea    -0x520(%rbp),%rax
   13683:	48 89 85 08 fb ff ff 	mov    %rax,-0x4f8(%rbp)
   1368a:	48 8d 85 e0 fa ff ff 	lea    -0x520(%rbp),%rax
   13691:	48 89 85 10 fb ff ff 	mov    %rax,-0x4f0(%rbp)
   13698:	48 8d 85 e0 fa ff ff 	lea    -0x520(%rbp),%rax
   1369f:	48 89 85 18 fb ff ff 	mov    %rax,-0x4e8(%rbp)
   136a6:	48 8d 85 e0 fa ff ff 	lea    -0x520(%rbp),%rax
   136ad:	48 89 85 20 fb ff ff 	mov    %rax,-0x4e0(%rbp)
   136b4:	48 8d 85 e0 fa ff ff 	lea    -0x520(%rbp),%rax
   136bb:	48 89 85 28 fb ff ff 	mov    %rax,-0x4d8(%rbp)
   136c2:	48 8d 85 e0 fa ff ff 	lea    -0x520(%rbp),%rax
   136c9:	48 89 85 30 fb ff ff 	mov    %rax,-0x4d0(%rbp)
   136d0:	48 8d 85 e0 fa ff ff 	lea    -0x520(%rbp),%rax
   136d7:	48 89 85 38 fb ff ff 	mov    %rax,-0x4c8(%rbp)
   136de:	48 c7 85 40 fb ff ff 	movq   $0x0,-0x4c0(%rbp)
   136e5:	00 00 00 00 
   136e9:	48 8d 85 e0 fa ff ff 	lea    -0x520(%rbp),%rax
   136f0:	48 89 85 48 fb ff ff 	mov    %rax,-0x4b8(%rbp)
   136f7:	48 8d 85 e0 fa ff ff 	lea    -0x520(%rbp),%rax
   136fe:	48 89 85 50 fb ff ff 	mov    %rax,-0x4b0(%rbp)
   13705:	48 8d 85 e0 fa ff ff 	lea    -0x520(%rbp),%rax
   1370c:	48 89 85 58 fb ff ff 	mov    %rax,-0x4a8(%rbp)
   13713:	48 c7 85 60 fb ff ff 	movq   $0x0,-0x4a0(%rbp)
   1371a:	00 00 00 00 
   1371e:	48 8d 85 e0 fa ff ff 	lea    -0x520(%rbp),%rax
   13725:	48 89 85 68 fb ff ff 	mov    %rax,-0x498(%rbp)
   1372c:	48 8d 85 e0 fa ff ff 	lea    -0x520(%rbp),%rax
   13733:	48 89 85 70 fb ff ff 	mov    %rax,-0x490(%rbp)
   1373a:	48 8d 85 e0 fa ff ff 	lea    -0x520(%rbp),%rax
   13741:	48 89 85 78 fb ff ff 	mov    %rax,-0x488(%rbp)
   13748:	48 8d 85 e0 fa ff ff 	lea    -0x520(%rbp),%rax
   1374f:	48 89 85 80 fb ff ff 	mov    %rax,-0x480(%rbp)
   13756:	48 c7 85 88 fb ff ff 	movq   $0x0,-0x478(%rbp)
   1375d:	00 00 00 00 
   13761:	48 8d 85 e0 fa ff ff 	lea    -0x520(%rbp),%rax
   13768:	48 89 85 90 fb ff ff 	mov    %rax,-0x470(%rbp)
   1376f:	48 8d 85 e0 fa ff ff 	lea    -0x520(%rbp),%rax
   13776:	48 89 85 98 fb ff ff 	mov    %rax,-0x468(%rbp)
   1377d:	48 c7 85 a0 fb ff ff 	movq   $0x0,-0x460(%rbp)
   13784:	00 00 00 00 
   13788:	48 c7 85 a8 fb ff ff 	movq   $0x0,-0x458(%rbp)
   1378f:	00 00 00 00 
   13793:	48 8d 85 e0 fa ff ff 	lea    -0x520(%rbp),%rax
   1379a:	48 89 85 b0 fb ff ff 	mov    %rax,-0x450(%rbp)
   137a1:	48 8d 85 e0 fa ff ff 	lea    -0x520(%rbp),%rax
   137a8:	48 89 85 b8 fb ff ff 	mov    %rax,-0x448(%rbp)
   137af:	48 8d 85 e0 fa ff ff 	lea    -0x520(%rbp),%rax
   137b6:	48 89 85 c0 fb ff ff 	mov    %rax,-0x440(%rbp)
   137bd:	48 8d 85 e0 fa ff ff 	lea    -0x520(%rbp),%rax
   137c4:	48 89 85 c8 fb ff ff 	mov    %rax,-0x438(%rbp)
   137cb:	48 8d 85 e0 fa ff ff 	lea    -0x520(%rbp),%rax
   137d2:	48 89 85 d0 fb ff ff 	mov    %rax,-0x430(%rbp)
   137d9:	48 8d 85 e0 fa ff ff 	lea    -0x520(%rbp),%rax
   137e0:	48 89 85 d8 fb ff ff 	mov    %rax,-0x428(%rbp)
   137e7:	48 8d 85 e0 fa ff ff 	lea    -0x520(%rbp),%rax
   137ee:	48 89 85 e0 fb ff ff 	mov    %rax,-0x420(%rbp)
   137f5:	48 8d 85 e0 fa ff ff 	lea    -0x520(%rbp),%rax
   137fc:	48 89 85 e8 fb ff ff 	mov    %rax,-0x418(%rbp)
   13803:	48 8d 85 e0 fa ff ff 	lea    -0x520(%rbp),%rax
   1380a:	48 89 85 f0 fb ff ff 	mov    %rax,-0x410(%rbp)
   13811:	48 8d 85 e0 fa ff ff 	lea    -0x520(%rbp),%rax
   13818:	48 89 85 f8 fb ff ff 	mov    %rax,-0x408(%rbp)
   1381f:	48 8d 85 e0 fa ff ff 	lea    -0x520(%rbp),%rax
   13826:	48 89 85 00 fc ff ff 	mov    %rax,-0x400(%rbp)
   1382d:	48 8d 85 e0 fa ff ff 	lea    -0x520(%rbp),%rax
   13834:	48 89 85 08 fc ff ff 	mov    %rax,-0x3f8(%rbp)
   1383b:	48 8d 85 e0 fa ff ff 	lea    -0x520(%rbp),%rax
   13842:	48 89 85 10 fc ff ff 	mov    %rax,-0x3f0(%rbp)
   13849:	48 c7 85 18 fc ff ff 	movq   $0x0,-0x3e8(%rbp)
   13850:	00 00 00 00 
   13854:	48 8d 85 e0 fa ff ff 	lea    -0x520(%rbp),%rax
   1385b:	48 89 85 20 fc ff ff 	mov    %rax,-0x3e0(%rbp)
   13862:	48 c7 85 28 fc ff ff 	movq   $0x0,-0x3d8(%rbp)
   13869:	00 00 00 00 
   1386d:	48 8d 85 e0 fa ff ff 	lea    -0x520(%rbp),%rax
   13874:	48 89 85 30 fc ff ff 	mov    %rax,-0x3d0(%rbp)
   1387b:	48 c7 85 38 fc ff ff 	movq   $0x0,-0x3c8(%rbp)
   13882:	00 00 00 00 
   13886:	48 8d 85 e0 fa ff ff 	lea    -0x520(%rbp),%rax
   1388d:	48 89 85 40 fc ff ff 	mov    %rax,-0x3c0(%rbp)
   13894:	48 8d 85 e0 fa ff ff 	lea    -0x520(%rbp),%rax
   1389b:	48 89 85 48 fc ff ff 	mov    %rax,-0x3b8(%rbp)
   138a2:	48 8d 85 e0 fa ff ff 	lea    -0x520(%rbp),%rax
   138a9:	48 89 85 50 fc ff ff 	mov    %rax,-0x3b0(%rbp)
   138b0:	48 8d 85 e0 fa ff ff 	lea    -0x520(%rbp),%rax
   138b7:	48 89 85 58 fc ff ff 	mov    %rax,-0x3a8(%rbp)
   138be:	48 8d 85 e0 fa ff ff 	lea    -0x520(%rbp),%rax
   138c5:	48 89 85 60 fc ff ff 	mov    %rax,-0x3a0(%rbp)
   138cc:	48 8d 85 e0 fa ff ff 	lea    -0x520(%rbp),%rax
   138d3:	48 89 85 68 fc ff ff 	mov    %rax,-0x398(%rbp)
   138da:	48 8d 85 e0 fa ff ff 	lea    -0x520(%rbp),%rax
   138e1:	48 89 85 70 fc ff ff 	mov    %rax,-0x390(%rbp)
   138e8:	48 8d 85 e0 fa ff ff 	lea    -0x520(%rbp),%rax
   138ef:	48 89 85 78 fc ff ff 	mov    %rax,-0x388(%rbp)
   138f6:	48 8d 85 e0 fa ff ff 	lea    -0x520(%rbp),%rax
   138fd:	48 89 85 80 fc ff ff 	mov    %rax,-0x380(%rbp)
   13904:	48 c7 85 88 fc ff ff 	movq   $0x0,-0x378(%rbp)
   1390b:	00 00 00 00 
   1390f:	48 8d 85 e0 fa ff ff 	lea    -0x520(%rbp),%rax
   13916:	48 89 85 90 fc ff ff 	mov    %rax,-0x370(%rbp)
   1391d:	48 8d 85 e0 fa ff ff 	lea    -0x520(%rbp),%rax
   13924:	48 89 85 98 fc ff ff 	mov    %rax,-0x368(%rbp)
   1392b:	48 8d 85 e0 fa ff ff 	lea    -0x520(%rbp),%rax
   13932:	48 89 85 a0 fc ff ff 	mov    %rax,-0x360(%rbp)
   13939:	48 8d 85 e0 fa ff ff 	lea    -0x520(%rbp),%rax
   13940:	48 89 85 a8 fc ff ff 	mov    %rax,-0x358(%rbp)
   13947:	48 8d 85 e0 fa ff ff 	lea    -0x520(%rbp),%rax
   1394e:	48 89 85 b0 fc ff ff 	mov    %rax,-0x350(%rbp)
   13955:	48 8d 85 e0 fa ff ff 	lea    -0x520(%rbp),%rax
   1395c:	48 89 85 b8 fc ff ff 	mov    %rax,-0x348(%rbp)
   13963:	48 8d 85 e0 fa ff ff 	lea    -0x520(%rbp),%rax
   1396a:	48 89 85 c0 fc ff ff 	mov    %rax,-0x340(%rbp)
   13971:	48 8d 85 e0 fa ff ff 	lea    -0x520(%rbp),%rax
   13978:	48 89 85 c8 fc ff ff 	mov    %rax,-0x338(%rbp)
   1397f:	48 c7 85 d0 fc ff ff 	movq   $0x0,-0x330(%rbp)
   13986:	00 00 00 00 
   1398a:	48 8d 85 e0 fa ff ff 	lea    -0x520(%rbp),%rax
   13991:	48 89 85 d8 fc ff ff 	mov    %rax,-0x328(%rbp)
   13998:	48 8d 85 e0 fa ff ff 	lea    -0x520(%rbp),%rax
   1399f:	48 89 85 e0 fc ff ff 	mov    %rax,-0x320(%rbp)
   139a6:	48 8d 85 e0 fa ff ff 	lea    -0x520(%rbp),%rax
   139ad:	48 89 85 e8 fc ff ff 	mov    %rax,-0x318(%rbp)
   139b4:	48 8d 85 e0 fa ff ff 	lea    -0x520(%rbp),%rax
   139bb:	48 89 85 f0 fc ff ff 	mov    %rax,-0x310(%rbp)
   139c2:	48 8d 85 e0 fa ff ff 	lea    -0x520(%rbp),%rax
   139c9:	48 89 85 f8 fc ff ff 	mov    %rax,-0x308(%rbp)
   139d0:	48 8d 85 e0 fa ff ff 	lea    -0x520(%rbp),%rax
   139d7:	48 89 85 00 fd ff ff 	mov    %rax,-0x300(%rbp)
   139de:	48 8d 85 e0 fa ff ff 	lea    -0x520(%rbp),%rax
   139e5:	48 89 85 08 fd ff ff 	mov    %rax,-0x2f8(%rbp)
   139ec:	48 8d 85 e0 fa ff ff 	lea    -0x520(%rbp),%rax
   139f3:	48 89 85 10 fd ff ff 	mov    %rax,-0x2f0(%rbp)
   139fa:	48 8d 85 e0 fa ff ff 	lea    -0x520(%rbp),%rax
   13a01:	48 89 85 18 fd ff ff 	mov    %rax,-0x2e8(%rbp)
   13a08:	48 8d 85 e0 fa ff ff 	lea    -0x520(%rbp),%rax
   13a0f:	48 89 85 20 fd ff ff 	mov    %rax,-0x2e0(%rbp)
   13a16:	48 8d 85 e0 fa ff ff 	lea    -0x520(%rbp),%rax
   13a1d:	48 89 85 28 fd ff ff 	mov    %rax,-0x2d8(%rbp)
   13a24:	48 8d 85 e0 fa ff ff 	lea    -0x520(%rbp),%rax
   13a2b:	48 89 85 30 fd ff ff 	mov    %rax,-0x2d0(%rbp)
   13a32:	48 8d 85 e0 fa ff ff 	lea    -0x520(%rbp),%rax
   13a39:	48 89 85 38 fd ff ff 	mov    %rax,-0x2c8(%rbp)
   13a40:	48 8d 85 e0 fa ff ff 	lea    -0x520(%rbp),%rax
   13a47:	48 89 85 40 fd ff ff 	mov    %rax,-0x2c0(%rbp)
   13a4e:	48 8d 85 e0 fa ff ff 	lea    -0x520(%rbp),%rax
   13a55:	48 89 85 48 fd ff ff 	mov    %rax,-0x2b8(%rbp)
   13a5c:	48 8d 85 e0 fa ff ff 	lea    -0x520(%rbp),%rax
   13a63:	48 89 85 50 fd ff ff 	mov    %rax,-0x2b0(%rbp)
   13a6a:	48 8d 85 e0 fa ff ff 	lea    -0x520(%rbp),%rax
   13a71:	48 89 85 58 fd ff ff 	mov    %rax,-0x2a8(%rbp)
   13a78:	48 c7 85 60 fd ff ff 	movq   $0x0,-0x2a0(%rbp)
   13a7f:	00 00 00 00 
   13a83:	48 8d 85 e0 fa ff ff 	lea    -0x520(%rbp),%rax
   13a8a:	48 89 85 68 fd ff ff 	mov    %rax,-0x298(%rbp)
   13a91:	48 8d 85 e0 fa ff ff 	lea    -0x520(%rbp),%rax
   13a98:	48 89 85 70 fd ff ff 	mov    %rax,-0x290(%rbp)
   13a9f:	48 8d 85 e0 fa ff ff 	lea    -0x520(%rbp),%rax
   13aa6:	48 89 85 78 fd ff ff 	mov    %rax,-0x288(%rbp)
   13aad:	48 8d 85 e0 fa ff ff 	lea    -0x520(%rbp),%rax
   13ab4:	48 89 85 80 fd ff ff 	mov    %rax,-0x280(%rbp)
   13abb:	48 8d 85 e0 fa ff ff 	lea    -0x520(%rbp),%rax
   13ac2:	48 89 85 88 fd ff ff 	mov    %rax,-0x278(%rbp)
   13ac9:	48 8d 85 e0 fa ff ff 	lea    -0x520(%rbp),%rax
   13ad0:	48 89 85 90 fd ff ff 	mov    %rax,-0x270(%rbp)
   13ad7:	48 c7 85 98 fd ff ff 	movq   $0x0,-0x268(%rbp)
   13ade:	00 00 00 00 
   13ae2:	48 8d 85 e0 fa ff ff 	lea    -0x520(%rbp),%rax
   13ae9:	48 89 85 a0 fd ff ff 	mov    %rax,-0x260(%rbp)
   13af0:	48 8d 85 e0 fa ff ff 	lea    -0x520(%rbp),%rax
   13af7:	48 89 85 a8 fd ff ff 	mov    %rax,-0x258(%rbp)
   13afe:	48 8d 85 e0 fa ff ff 	lea    -0x520(%rbp),%rax
   13b05:	48 89 85 b0 fd ff ff 	mov    %rax,-0x250(%rbp)
   13b0c:	48 8d 85 e0 fa ff ff 	lea    -0x520(%rbp),%rax
   13b13:	48 89 85 b8 fd ff ff 	mov    %rax,-0x248(%rbp)
   13b1a:	48 8d 85 e0 fa ff ff 	lea    -0x520(%rbp),%rax
   13b21:	48 89 85 c0 fd ff ff 	mov    %rax,-0x240(%rbp)
   13b28:	48 8d 85 e0 fa ff ff 	lea    -0x520(%rbp),%rax
   13b2f:	48 89 85 c8 fd ff ff 	mov    %rax,-0x238(%rbp)
   13b36:	48 8d 85 e0 fa ff ff 	lea    -0x520(%rbp),%rax
   13b3d:	48 89 85 d0 fd ff ff 	mov    %rax,-0x230(%rbp)
   13b44:	48 8d 85 e0 fa ff ff 	lea    -0x520(%rbp),%rax
   13b4b:	48 89 85 d8 fd ff ff 	mov    %rax,-0x228(%rbp)
   13b52:	48 8d 85 e0 fa ff ff 	lea    -0x520(%rbp),%rax
   13b59:	48 89 85 e0 fd ff ff 	mov    %rax,-0x220(%rbp)
   13b60:	48 8d 85 e0 fa ff ff 	lea    -0x520(%rbp),%rax
   13b67:	48 89 85 e8 fd ff ff 	mov    %rax,-0x218(%rbp)
   13b6e:	48 8d 85 e0 fa ff ff 	lea    -0x520(%rbp),%rax
   13b75:	48 89 85 f0 fd ff ff 	mov    %rax,-0x210(%rbp)
   13b7c:	48 8d 85 e0 fa ff ff 	lea    -0x520(%rbp),%rax
   13b83:	48 89 85 f8 fd ff ff 	mov    %rax,-0x208(%rbp)
   13b8a:	48 8d 85 e0 fa ff ff 	lea    -0x520(%rbp),%rax
   13b91:	48 89 85 00 fe ff ff 	mov    %rax,-0x200(%rbp)
   13b98:	48 8d 85 e0 fa ff ff 	lea    -0x520(%rbp),%rax
   13b9f:	48 89 85 08 fe ff ff 	mov    %rax,-0x1f8(%rbp)
   13ba6:	48 8d 85 e0 fa ff ff 	lea    -0x520(%rbp),%rax
   13bad:	48 89 85 10 fe ff ff 	mov    %rax,-0x1f0(%rbp)
   13bb4:	48 8d 85 e0 fa ff ff 	lea    -0x520(%rbp),%rax
   13bbb:	48 89 85 18 fe ff ff 	mov    %rax,-0x1e8(%rbp)
   13bc2:	48 8d 85 e0 fa ff ff 	lea    -0x520(%rbp),%rax
   13bc9:	48 89 85 20 fe ff ff 	mov    %rax,-0x1e0(%rbp)
   13bd0:	48 8d 85 e0 fa ff ff 	lea    -0x520(%rbp),%rax
   13bd7:	48 89 85 28 fe ff ff 	mov    %rax,-0x1d8(%rbp)
   13bde:	48 8d 85 e0 fa ff ff 	lea    -0x520(%rbp),%rax
   13be5:	48 89 85 30 fe ff ff 	mov    %rax,-0x1d0(%rbp)
   13bec:	48 8d 85 e0 fa ff ff 	lea    -0x520(%rbp),%rax
   13bf3:	48 89 85 38 fe ff ff 	mov    %rax,-0x1c8(%rbp)
   13bfa:	48 8d 85 e0 fa ff ff 	lea    -0x520(%rbp),%rax
   13c01:	48 89 85 40 fe ff ff 	mov    %rax,-0x1c0(%rbp)
   13c08:	48 c7 85 48 fe ff ff 	movq   $0x0,-0x1b8(%rbp)
   13c0f:	00 00 00 00 
   13c13:	48 8d 85 e0 fa ff ff 	lea    -0x520(%rbp),%rax
   13c1a:	48 89 85 50 fe ff ff 	mov    %rax,-0x1b0(%rbp)
   13c21:	48 8d 85 e0 fa ff ff 	lea    -0x520(%rbp),%rax
   13c28:	48 89 85 58 fe ff ff 	mov    %rax,-0x1a8(%rbp)
   13c2f:	48 8d 85 e0 fa ff ff 	lea    -0x520(%rbp),%rax
   13c36:	48 89 85 60 fe ff ff 	mov    %rax,-0x1a0(%rbp)
   13c3d:	48 8d 85 e0 fa ff ff 	lea    -0x520(%rbp),%rax
   13c44:	48 89 85 68 fe ff ff 	mov    %rax,-0x198(%rbp)
   13c4b:	48 8d 85 e0 fa ff ff 	lea    -0x520(%rbp),%rax
   13c52:	48 89 85 70 fe ff ff 	mov    %rax,-0x190(%rbp)
   13c59:	48 8d 85 e0 fa ff ff 	lea    -0x520(%rbp),%rax
   13c60:	48 89 85 78 fe ff ff 	mov    %rax,-0x188(%rbp)
   13c67:	48 8d 85 e0 fa ff ff 	lea    -0x520(%rbp),%rax
   13c6e:	48 89 85 80 fe ff ff 	mov    %rax,-0x180(%rbp)
   13c75:	48 8d 85 e0 fa ff ff 	lea    -0x520(%rbp),%rax
   13c7c:	48 89 85 88 fe ff ff 	mov    %rax,-0x178(%rbp)
   13c83:	48 c7 85 90 fe ff ff 	movq   $0x0,-0x170(%rbp)
   13c8a:	00 00 00 00 
   13c8e:	48 8d 85 e0 fa ff ff 	lea    -0x520(%rbp),%rax
   13c95:	48 89 85 98 fe ff ff 	mov    %rax,-0x168(%rbp)
   13c9c:	48 8d 85 e0 fa ff ff 	lea    -0x520(%rbp),%rax
   13ca3:	48 89 85 a0 fe ff ff 	mov    %rax,-0x160(%rbp)
   13caa:	48 c7 85 a8 fe ff ff 	movq   $0x0,-0x158(%rbp)
   13cb1:	00 00 00 00 
   13cb5:	48 8d 85 e0 fa ff ff 	lea    -0x520(%rbp),%rax
   13cbc:	48 89 85 b0 fe ff ff 	mov    %rax,-0x150(%rbp)
   13cc3:	48 c7 85 b8 fe ff ff 	movq   $0x0,-0x148(%rbp)
   13cca:	00 00 00 00 
   13cce:	48 8d 85 e0 fa ff ff 	lea    -0x520(%rbp),%rax
   13cd5:	48 89 85 c0 fe ff ff 	mov    %rax,-0x140(%rbp)
   13cdc:	48 8d 85 e0 fa ff ff 	lea    -0x520(%rbp),%rax
   13ce3:	48 89 85 c8 fe ff ff 	mov    %rax,-0x138(%rbp)
   13cea:	48 8d 85 e0 fa ff ff 	lea    -0x520(%rbp),%rax
   13cf1:	48 89 85 d0 fe ff ff 	mov    %rax,-0x130(%rbp)
   13cf8:	48 8d 85 e0 fa ff ff 	lea    -0x520(%rbp),%rax
   13cff:	48 89 85 d8 fe ff ff 	mov    %rax,-0x128(%rbp)
   13d06:	48 8d 85 e0 fa ff ff 	lea    -0x520(%rbp),%rax
   13d0d:	48 89 85 e0 fe ff ff 	mov    %rax,-0x120(%rbp)
   13d14:	48 8d 85 e0 fa ff ff 	lea    -0x520(%rbp),%rax
   13d1b:	48 89 85 e8 fe ff ff 	mov    %rax,-0x118(%rbp)
   13d22:	48 8d 85 e0 fa ff ff 	lea    -0x520(%rbp),%rax
   13d29:	48 89 85 f0 fe ff ff 	mov    %rax,-0x110(%rbp)
   13d30:	48 8d 85 e0 fa ff ff 	lea    -0x520(%rbp),%rax
   13d37:	48 89 85 f8 fe ff ff 	mov    %rax,-0x108(%rbp)
   13d3e:	48 8d 85 e0 fa ff ff 	lea    -0x520(%rbp),%rax
   13d45:	48 89 85 00 ff ff ff 	mov    %rax,-0x100(%rbp)
   13d4c:	48 8d 85 e0 fa ff ff 	lea    -0x520(%rbp),%rax
   13d53:	48 89 85 08 ff ff ff 	mov    %rax,-0xf8(%rbp)
   13d5a:	48 8d 85 e0 fa ff ff 	lea    -0x520(%rbp),%rax
   13d61:	48 89 85 10 ff ff ff 	mov    %rax,-0xf0(%rbp)
   13d68:	48 8d 85 e0 fa ff ff 	lea    -0x520(%rbp),%rax
   13d6f:	48 89 85 18 ff ff ff 	mov    %rax,-0xe8(%rbp)
   13d76:	48 8d 85 e0 fa ff ff 	lea    -0x520(%rbp),%rax
   13d7d:	48 89 85 20 ff ff ff 	mov    %rax,-0xe0(%rbp)
   13d84:	48 8d 85 e0 fa ff ff 	lea    -0x520(%rbp),%rax
   13d8b:	48 89 85 28 ff ff ff 	mov    %rax,-0xd8(%rbp)
   13d92:	48 8d 85 e0 fa ff ff 	lea    -0x520(%rbp),%rax
   13d99:	48 89 85 30 ff ff ff 	mov    %rax,-0xd0(%rbp)
   13da0:	48 8d 85 e0 fa ff ff 	lea    -0x520(%rbp),%rax
   13da7:	48 89 85 38 ff ff ff 	mov    %rax,-0xc8(%rbp)
   13dae:	48 8d 85 e0 fa ff ff 	lea    -0x520(%rbp),%rax
   13db5:	48 89 85 40 ff ff ff 	mov    %rax,-0xc0(%rbp)
   13dbc:	48 8d 85 e0 fa ff ff 	lea    -0x520(%rbp),%rax
   13dc3:	48 89 85 48 ff ff ff 	mov    %rax,-0xb8(%rbp)
   13dca:	48 8d 85 e0 fa ff ff 	lea    -0x520(%rbp),%rax
   13dd1:	48 89 85 50 ff ff ff 	mov    %rax,-0xb0(%rbp)
   13dd8:	48 8d 85 e0 fa ff ff 	lea    -0x520(%rbp),%rax
   13ddf:	48 89 85 58 ff ff ff 	mov    %rax,-0xa8(%rbp)
   13de6:	48 8d 85 e0 fa ff ff 	lea    -0x520(%rbp),%rax
   13ded:	48 89 85 60 ff ff ff 	mov    %rax,-0xa0(%rbp)
   13df4:	48 8d 85 e0 fa ff ff 	lea    -0x520(%rbp),%rax
   13dfb:	48 89 85 68 ff ff ff 	mov    %rax,-0x98(%rbp)
   13e02:	48 8d 85 e0 fa ff ff 	lea    -0x520(%rbp),%rax
   13e09:	48 89 85 70 ff ff ff 	mov    %rax,-0x90(%rbp)
   13e10:	48 8d 85 e0 fa ff ff 	lea    -0x520(%rbp),%rax
   13e17:	48 89 85 78 ff ff ff 	mov    %rax,-0x88(%rbp)
   13e1e:	48 8d 85 e0 fa ff ff 	lea    -0x520(%rbp),%rax
   13e25:	48 89 45 80          	mov    %rax,-0x80(%rbp)
   13e29:	48 8d 85 e0 fa ff ff 	lea    -0x520(%rbp),%rax
   13e30:	48 89 45 88          	mov    %rax,-0x78(%rbp)
   13e34:	48 8d 85 e0 fa ff ff 	lea    -0x520(%rbp),%rax
   13e3b:	48 89 45 90          	mov    %rax,-0x70(%rbp)
   13e3f:	48 8d 85 e0 fa ff ff 	lea    -0x520(%rbp),%rax
   13e46:	48 89 45 98          	mov    %rax,-0x68(%rbp)
   13e4a:	48 8d 85 e0 fa ff ff 	lea    -0x520(%rbp),%rax
   13e51:	48 89 45 a0          	mov    %rax,-0x60(%rbp)
   13e55:	48 c7 45 a8 00 00 00 	movq   $0x0,-0x58(%rbp)
   13e5c:	00 
   13e5d:	48 8d 85 e0 fa ff ff 	lea    -0x520(%rbp),%rax
   13e64:	48 89 45 b0          	mov    %rax,-0x50(%rbp)
   13e68:	48 8d 85 e0 fa ff ff 	lea    -0x520(%rbp),%rax
   13e6f:	48 89 45 b8          	mov    %rax,-0x48(%rbp)
   13e73:	48 c7 45 c0 00 00 00 	movq   $0x0,-0x40(%rbp)
   13e7a:	00 
   13e7b:	48 8d 85 e0 fa ff ff 	lea    -0x520(%rbp),%rax
   13e82:	48 89 45 c8          	mov    %rax,-0x38(%rbp)
   13e86:	48 8d 85 e0 fa ff ff 	lea    -0x520(%rbp),%rax
   13e8d:	48 89 45 d0          	mov    %rax,-0x30(%rbp)
   13e91:	48 8d 85 e0 fa ff ff 	lea    -0x520(%rbp),%rax
   13e98:	48 89 45 d8          	mov    %rax,-0x28(%rbp)
   13e9c:	48 8d 85 e0 fa ff ff 	lea    -0x520(%rbp),%rax
   13ea3:	48 89 45 e0          	mov    %rax,-0x20(%rbp)
   13ea7:	48 8d 85 e0 fa ff ff 	lea    -0x520(%rbp),%rax
   13eae:	48 89 45 e8          	mov    %rax,-0x18(%rbp)
   13eb2:	48 8d 05 a7 35 01 00 	lea    0x135a7(%rip),%rax        # 27460 <g_246>
   13eb9:	48 89 85 e8 fa ff ff 	mov    %rax,-0x518(%rbp)
   13ec0:	48 8b 05 91 35 01 00 	mov    0x13591(%rip),%rax        # 27458 <g_207>
   13ec7:	48 8b 00             	mov    (%rax),%rax
   13eca:	48 8d 95 d8 fa ff ff 	lea    -0x528(%rbp),%rdx
   13ed1:	48 89 10             	mov    %rdx,(%rax)
   13ed4:	48 8b 85 e0 fa ff ff 	mov    -0x520(%rbp),%rax
   13edb:	48 89 85 e8 fa ff ff 	mov    %rax,-0x518(%rbp)
   13ee2:	8b 85 dc fa ff ff    	mov    -0x524(%rbp),%eax
   13ee8:	48 8b 4d f8          	mov    -0x8(%rbp),%rcx
   13eec:	64 48 33 0c 25 28 00 	xor    %fs:0x28,%rcx
   13ef3:	00 00 
   13ef5:	74 05                	je     13efc <func_48+0x8ed>
   13ef7:	e8 74 71 ff ff       	callq  b070 <__stack_chk_fail@plt>
   13efc:	c9                   	leaveq 
   13efd:	c3                   	retq   

0000000000013efe <func_53>:
   13efe:	f3 0f 1e fa          	endbr64 
   13f02:	55                   	push   %rbp
   13f03:	48 89 e5             	mov    %rsp,%rbp
   13f06:	41 56                	push   %r14
   13f08:	41 55                	push   %r13
   13f0a:	41 54                	push   %r12
   13f0c:	53                   	push   %rbx
   13f0d:	48 81 ec 00 10 00 00 	sub    $0x1000,%rsp
   13f14:	48 83 0c 24 00       	orq    $0x0,(%rsp)
   13f19:	48 81 ec 00 10 00 00 	sub    $0x1000,%rsp
   13f20:	48 83 0c 24 00       	orq    $0x0,(%rsp)
   13f25:	48 81 ec b0 01 00 00 	sub    $0x1b0,%rsp
   13f2c:	48 89 bd 48 de ff ff 	mov    %rdi,-0x21b8(%rbp)
   13f33:	48 89 b5 40 de ff ff 	mov    %rsi,-0x21c0(%rbp)
   13f3a:	48 89 95 38 de ff ff 	mov    %rdx,-0x21c8(%rbp)
   13f41:	89 8d 34 de ff ff    	mov    %ecx,-0x21cc(%rbp)
   13f47:	64 48 8b 04 25 28 00 	mov    %fs:0x28,%rax
   13f4e:	00 00 
   13f50:	48 89 45 d8          	mov    %rax,-0x28(%rbp)
   13f54:	31 c0                	xor    %eax,%eax
   13f56:	c6 85 53 de ff ff 9b 	movb   $0x9b,-0x21ad(%rbp)
   13f5d:	48 8d 05 bc f6 00 00 	lea    0xf6bc(%rip),%rax        # 23620 <g_833>
   13f64:	48 89 85 e8 e0 ff ff 	mov    %rax,-0x1f18(%rbp)
   13f6b:	c7 85 94 de ff ff 0c 	movl   $0x60ebe10c,-0x216c(%rbp)
   13f72:	e1 eb 60 
   13f75:	c6 85 55 de ff ff 09 	movb   $0x9,-0x21ab(%rbp)
   13f7c:	48 8d 05 2c f6 00 00 	lea    0xf62c(%rip),%rax        # 235af <g_800+0x8f>
   13f83:	48 89 85 40 e0 ff ff 	mov    %rax,-0x1fc0(%rbp)
   13f8a:	c7 85 78 de ff ff f8 	movl   $0x9de4ecf8,-0x2188(%rbp)
   13f91:	ec e4 9d 
   13f94:	c7 85 e0 de ff ff 03 	movl   $0x3,-0x2120(%rbp)
   13f9b:	00 00 00 
   13f9e:	48 8d 85 20 ea ff ff 	lea    -0x15e0(%rbp),%rax
   13fa5:	48 8d 15 14 1a 01 00 	lea    0x11a14(%rip),%rdx        # 259c0 <g_4082+0x1ec0>
   13fac:	b9 3f 00 00 00       	mov    $0x3f,%ecx
   13fb1:	48 89 c7             	mov    %rax,%rdi
   13fb4:	48 89 d6             	mov    %rdx,%rsi
   13fb7:	f3 48 a5             	rep movsq %ds:(%rsi),%es:(%rdi)
   13fba:	c7 85 90 de ff ff 68 	movl   $0xefdcb268,-0x2170(%rbp)
   13fc1:	b2 dc ef 
   13fc4:	48 8d 05 c9 f0 00 00 	lea    0xf0c9(%rip),%rax        # 23094 <g_78+0x14>
   13fcb:	48 89 85 48 e0 ff ff 	mov    %rax,-0x1fb8(%rbp)
   13fd2:	48 8d 05 e7 38 01 00 	lea    0x138e7(%rip),%rax        # 278c0 <g_463>
   13fd9:	48 89 85 50 e0 ff ff 	mov    %rax,-0x1fb0(%rbp)
   13fe0:	c7 85 e4 de ff ff 00 	movl   $0x0,-0x211c(%rbp)
   13fe7:	00 00 00 
   13fea:	c7 85 98 de ff ff fc 	movl   $0xfffffffc,-0x2168(%rbp)
   13ff1:	ff ff ff 
   13ff4:	c6 85 54 de ff ff 00 	movb   $0x0,-0x21ac(%rbp)
   13ffb:	66 c7 85 60 de ff ff 	movw   $0x0,-0x21a0(%rbp)
   14002:	00 00 
   14004:	c7 85 e8 de ff ff 3d 	movl   $0x366a0d3d,-0x2118(%rbp)
   1400b:	0d 6a 36 
   1400e:	c7 85 ec de ff ff 3c 	movl   $0xea68273c,-0x2114(%rbp)
   14015:	27 68 ea 
   14018:	c7 85 7c de ff ff 01 	movl   $0x1,-0x2184(%rbp)
   1401f:	00 00 00 
   14022:	c7 85 f0 de ff ff 05 	movl   $0x5,-0x2110(%rbp)
   14029:	00 00 00 
   1402c:	c7 85 80 de ff ff 51 	movl   $0xe0431551,-0x2180(%rbp)
   14033:	15 43 e0 
   14036:	c7 85 84 de ff ff 9e 	movl   $0x44ae109e,-0x217c(%rbp)
   1403d:	10 ae 44 
   14040:	48 8d 85 20 ec ff ff 	lea    -0x13e0(%rbp),%rax
   14047:	48 8d 15 72 1b 01 00 	lea    0x11b72(%rip),%rdx        # 25bc0 <g_4082+0x20c0>
   1404e:	b9 50 00 00 00       	mov    $0x50,%ecx
   14053:	48 89 c7             	mov    %rax,%rdi
   14056:	48 89 d6             	mov    %rdx,%rsi
   14059:	f3 48 a5             	rep movsq %ds:(%rsi),%es:(%rdi)
   1405c:	c7 85 88 de ff ff fb 	movl   $0xfffffffb,-0x2178(%rbp)
   14063:	ff ff ff 
   14066:	48 8d 85 70 e8 ff ff 	lea    -0x1790(%rbp),%rax
   1406d:	48 8d 15 cc 1d 01 00 	lea    0x11dcc(%rip),%rdx        # 25e40 <g_4082+0x2340>
   14074:	b9 36 00 00 00       	mov    $0x36,%ecx
   14079:	48 89 c7             	mov    %rax,%rdi
   1407c:	48 89 d6             	mov    %rdx,%rsi
   1407f:	f3 48 a5             	rep movsq %ds:(%rsi),%es:(%rdi)
   14082:	48 8d 85 70 e8 ff ff 	lea    -0x1790(%rbp),%rax
   14089:	48 05 b8 00 00 00    	add    $0xb8,%rax
   1408f:	48 89 85 f0 e0 ff ff 	mov    %rax,-0x1f10(%rbp)
   14096:	48 c7 85 30 e4 ff ff 	movq   $0x0,-0x1bd0(%rbp)
   1409d:	00 00 00 00 
   140a1:	48 c7 85 38 e4 ff ff 	movq   $0x0,-0x1bc8(%rbp)
   140a8:	00 00 00 00 
   140ac:	48 c7 85 40 e4 ff ff 	movq   $0x0,-0x1bc0(%rbp)
   140b3:	00 00 00 00 
   140b7:	48 c7 85 48 e4 ff ff 	movq   $0x0,-0x1bb8(%rbp)
   140be:	00 00 00 00 
   140c2:	48 c7 85 50 e4 ff ff 	movq   $0x0,-0x1bb0(%rbp)
   140c9:	00 00 00 00 
   140cd:	48 c7 85 58 e4 ff ff 	movq   $0x0,-0x1ba8(%rbp)
   140d4:	00 00 00 00 
   140d8:	48 c7 85 60 e4 ff ff 	movq   $0x0,-0x1ba0(%rbp)
   140df:	00 00 00 00 
   140e3:	48 c7 85 68 e4 ff ff 	movq   $0x0,-0x1b98(%rbp)
   140ea:	00 00 00 00 
   140ee:	48 c7 85 70 e4 ff ff 	movq   $0x0,-0x1b90(%rbp)
   140f5:	00 00 00 00 
   140f9:	48 8d 05 d0 42 01 00 	lea    0x142d0(%rip),%rax        # 283d0 <g_229>
   14100:	48 89 85 f8 e0 ff ff 	mov    %rax,-0x1f08(%rbp)
   14107:	c7 85 f4 de ff ff ff 	movl   $0xffffffff,-0x210c(%rbp)
   1410e:	ff ff ff 
   14111:	66 c7 85 64 de ff ff 	movw   $0x6bd8,-0x219c(%rbp)
   14118:	d8 6b 
   1411a:	48 c7 85 00 e1 ff ff 	movq   $0x0,-0x1f00(%rbp)
   14121:	00 00 00 00 
   14125:	c7 85 f8 de ff ff fc 	movl   $0xfffffffc,-0x2108(%rbp)
   1412c:	ff ff ff 
   1412f:	48 8d 85 80 de ff ff 	lea    -0x2180(%rbp),%rax
   14136:	48 89 85 08 e1 ff ff 	mov    %rax,-0x1ef8(%rbp)
   1413d:	c7 85 30 e3 ff ff ae 	movl   $0xfafaaeae,-0x1cd0(%rbp)
   14144:	ae fa fa 
   14147:	66 c7 85 34 e3 ff ff 	movw   $0xaeae,-0x1ccc(%rbp)
   1414e:	ae ae 
   14150:	c7 85 36 e3 ff ff ae 	movl   $0xaefafaae,-0x1cca(%rbp)
   14157:	fa fa ae 
   1415a:	66 c7 85 3a e3 ff ff 	movw   $0xfaae,-0x1cc6(%rbp)
   14161:	ae fa 
   14163:	c7 85 3c e3 ff ff ae 	movl   $0xfafaaeae,-0x1cc4(%rbp)
   1416a:	ae fa fa 
   1416d:	66 c7 85 40 e3 ff ff 	movw   $0xaeae,-0x1cc0(%rbp)
   14174:	ae ae 
   14176:	c7 85 42 e3 ff ff ae 	movl   $0xaefafaae,-0x1cbe(%rbp)
   1417d:	fa fa ae 
   14180:	66 c7 85 46 e3 ff ff 	movw   $0xfaae,-0x1cba(%rbp)
   14187:	ae fa 
   14189:	c7 85 48 e3 ff ff ae 	movl   $0xfafaaeae,-0x1cb8(%rbp)
   14190:	ae fa fa 
   14193:	66 c7 85 4c e3 ff ff 	movw   $0xaeae,-0x1cb4(%rbp)
   1419a:	ae ae 
   1419c:	48 8d 85 70 f2 ff ff 	lea    -0xd90(%rbp),%rax
   141a3:	48 8d 15 b6 a2 00 00 	lea    0xa2b6(%rip),%rdx        # 1e460 <g_3481+0x13c0>
   141aa:	b9 d2 00 00 00       	mov    $0xd2,%ecx
   141af:	48 89 c7             	mov    %rax,%rdi
   141b2:	48 89 d6             	mov    %rdx,%rsi
   141b5:	f3 48 a5             	rep movsq %ds:(%rsi),%es:(%rdi)
   141b8:	c7 85 00 e6 ff ff 01 	movl   $0x5a56c401,-0x1a00(%rbp)
   141bf:	c4 56 5a 
   141c2:	c7 85 04 e6 ff ff 5a 	movl   $0xff5a075a,-0x19fc(%rbp)
   141c9:	07 5a ff 
   141cc:	c7 85 08 e6 ff ff 07 	movl   $0x5076207,-0x19f8(%rbp)
   141d3:	62 07 05 
   141d6:	c7 85 0c e6 ff ff 00 	movl   $0xc4565a00,-0x19f4(%rbp)
   141dd:	5a 56 c4 
   141e0:	c7 85 10 e6 ff ff f9 	movl   $0x5a0500f9,-0x19f0(%rbp)
   141e7:	00 05 5a 
   141ea:	c7 85 14 e6 ff ff ff 	movl   $0x105cfff,-0x19ec(%rbp)
   141f1:	cf 05 01 
   141f4:	c7 85 18 e6 ff ff f9 	movl   $0xf95656f9,-0x19e8(%rbp)
   141fb:	56 56 f9 
   141fe:	c7 85 1c e6 ff ff 00 	movl   $0x107ff00,-0x19e4(%rbp)
   14205:	ff 07 01 
   14208:	c7 85 20 e6 ff ff 07 	movl   $0xcf5a0107,-0x19e0(%rbp)
   1420f:	01 5a cf 
   14212:	c7 85 24 e6 ff ff 01 	movl   $0xcf01f901,-0x19dc(%rbp)
   14219:	f9 01 cf 
   1421c:	c7 85 28 e6 ff ff c4 	movl   $0x10101c4,-0x19d8(%rbp)
   14223:	01 01 01 
   14226:	c7 85 2c e6 ff ff 00 	movl   $0xf962ff00,-0x19d4(%rbp)
   1422d:	ff 62 f9 
   14230:	c7 85 30 e6 ff ff 5a 	movl   $0x1c4565a,-0x19d0(%rbp)
   14237:	56 c4 01 
   1423a:	c7 85 34 e6 ff ff f9 	movl   $0x5a01cff9,-0x19cc(%rbp)
   14241:	cf 01 5a 
   14244:	c7 85 38 e6 ff ff f9 	movl   $0xc4c400f9,-0x19c8(%rbp)
   1424b:	00 c4 c4 
   1424e:	c7 85 3c e6 ff ff 5a 	movl   $0x5625a5a,-0x19c4(%rbp)
   14255:	5a 62 05 
   14258:	c7 85 40 e6 ff ff 00 	movl   $0xff016200,-0x19c0(%rbp)
   1425f:	62 01 ff 
   14262:	c7 85 44 e6 ff ff c4 	movl   $0x10107c4,-0x19bc(%rbp)
   14269:	07 01 01 
   1426c:	c7 85 48 e6 ff ff 01 	movl   $0xff5a0701,-0x19b8(%rbp)
   14273:	07 5a ff 
   14276:	c7 85 4c e6 ff ff 07 	movl   $0x5076207,-0x19b4(%rbp)
   1427d:	62 07 05 
   14280:	c7 85 50 e6 ff ff 00 	movl   $0xc4565a00,-0x19b0(%rbp)
   14287:	5a 56 c4 
   1428a:	c7 85 54 e6 ff ff f9 	movl   $0x5a0500f9,-0x19ac(%rbp)
   14291:	00 05 5a 
   14294:	c7 85 58 e6 ff ff ff 	movl   $0x105cfff,-0x19a8(%rbp)
   1429b:	cf 05 01 
   1429e:	c7 85 5c e6 ff ff f9 	movl   $0xf95656f9,-0x19a4(%rbp)
   142a5:	56 56 f9 
   142a8:	c7 85 60 e6 ff ff 00 	movl   $0x107ff00,-0x19a0(%rbp)
   142af:	ff 07 01 
   142b2:	c7 85 64 e6 ff ff 07 	movl   $0xcf5a0107,-0x199c(%rbp)
   142b9:	01 5a cf 
   142bc:	c7 85 68 e6 ff ff 01 	movl   $0xcf01f901,-0x1998(%rbp)
   142c3:	f9 01 cf 
   142c6:	c7 85 6c e6 ff ff c4 	movl   $0x10101c4,-0x1994(%rbp)
   142cd:	01 01 01 
   142d0:	c7 85 70 e6 ff ff 00 	movl   $0xf962ff00,-0x1990(%rbp)
   142d7:	ff 62 f9 
   142da:	c7 85 74 e6 ff ff 5a 	movl   $0x1c4565a,-0x198c(%rbp)
   142e1:	56 c4 01 
   142e4:	c7 85 78 e6 ff ff f9 	movl   $0x5a01cff9,-0x1988(%rbp)
   142eb:	cf 01 5a 
   142ee:	c7 85 7c e6 ff ff f9 	movl   $0xc4c400f9,-0x1984(%rbp)
   142f5:	00 c4 c4 
   142f8:	c7 85 80 e6 ff ff 5a 	movl   $0x5625a5a,-0x1980(%rbp)
   142ff:	5a 62 05 
   14302:	c7 85 84 e6 ff ff 00 	movl   $0xff016200,-0x197c(%rbp)
   14309:	62 01 ff 
   1430c:	c7 85 88 e6 ff ff c4 	movl   $0x10107c4,-0x1978(%rbp)
   14313:	07 01 01 
   14316:	c7 85 8c e6 ff ff 01 	movl   $0xff5a0701,-0x1974(%rbp)
   1431d:	07 5a ff 
   14320:	c7 85 90 e6 ff ff 07 	movl   $0x5076207,-0x1970(%rbp)
   14327:	62 07 05 
   1432a:	c7 85 94 e6 ff ff 00 	movl   $0xc4565a00,-0x196c(%rbp)
   14331:	5a 56 c4 
   14334:	c7 85 98 e6 ff ff f9 	movl   $0x5a0500f9,-0x1968(%rbp)
   1433b:	00 05 5a 
   1433e:	c7 85 9c e6 ff ff ff 	movl   $0x105cfff,-0x1964(%rbp)
   14345:	cf 05 01 
   14348:	c7 85 a0 e6 ff ff f9 	movl   $0xf95656f9,-0x1960(%rbp)
   1434f:	56 56 f9 
   14352:	c7 85 a4 e6 ff ff 00 	movl   $0x107ff00,-0x195c(%rbp)
   14359:	ff 07 01 
   1435c:	c7 85 a8 e6 ff ff 07 	movl   $0xcf5a0107,-0x1958(%rbp)
   14363:	01 5a cf 
   14366:	c7 85 ac e6 ff ff 01 	movl   $0xcf01f901,-0x1954(%rbp)
   1436d:	f9 01 cf 
   14370:	c7 85 b0 e6 ff ff c4 	movl   $0x10101c4,-0x1950(%rbp)
   14377:	01 01 01 
   1437a:	c7 85 b4 e6 ff ff 00 	movl   $0xf962ff00,-0x194c(%rbp)
   14381:	ff 62 f9 
   14384:	c7 85 b8 e6 ff ff 5a 	movl   $0x1c4565a,-0x1948(%rbp)
   1438b:	56 c4 01 
   1438e:	c7 85 bc e6 ff ff f9 	movl   $0x5a01cff9,-0x1944(%rbp)
   14395:	cf 01 5a 
   14398:	48 c7 85 58 e0 ff ff 	movq   $0x0,-0x1fa8(%rbp)
   1439f:	00 00 00 00 
   143a3:	48 8d 85 58 e0 ff ff 	lea    -0x1fa8(%rbp),%rax
   143aa:	48 89 85 10 e1 ff ff 	mov    %rax,-0x1ef0(%rbp)
   143b1:	48 8d 85 78 de ff ff 	lea    -0x2188(%rbp),%rax
   143b8:	48 89 85 18 e1 ff ff 	mov    %rax,-0x1ee8(%rbp)
   143bf:	c7 85 fc de ff ff ff 	movl   $0xffffffff,-0x2104(%rbp)
   143c6:	ff ff ff 
   143c9:	48 8d 05 90 30 01 00 	lea    0x13090(%rip),%rax        # 27460 <g_246>
   143d0:	48 89 85 60 e0 ff ff 	mov    %rax,-0x1fa0(%rbp)
   143d7:	48 8d 85 60 e0 ff ff 	lea    -0x1fa0(%rbp),%rax
   143de:	48 89 85 20 e1 ff ff 	mov    %rax,-0x1ee0(%rbp)
   143e5:	48 c7 85 68 e0 ff ff 	movq   $0x0,-0x1f98(%rbp)
   143ec:	00 00 00 00 
   143f0:	48 8d 85 68 e0 ff ff 	lea    -0x1f98(%rbp),%rax
   143f7:	48 89 85 28 e1 ff ff 	mov    %rax,-0x1ed8(%rbp)
   143fe:	c7 45 ce 7e 7e 7e 7e 	movl   $0x7e7e7e7e,-0x32(%rbp)
   14405:	c6 45 d2 7e          	movb   $0x7e,-0x2e(%rbp)
   14409:	c7 85 00 df ff ff 03 	movl   $0x3,-0x2100(%rbp)
   14410:	00 00 00 
   14413:	c6 85 56 de ff ff 00 	movb   $0x0,-0x21aa(%rbp)
   1441a:	48 8d 85 20 ec ff ff 	lea    -0x13e0(%rbp),%rax
   14421:	48 05 08 02 00 00    	add    $0x208,%rax
   14427:	48 89 85 70 e0 ff ff 	mov    %rax,-0x1f90(%rbp)
   1442e:	48 8d 85 d8 e2 ff ff 	lea    -0x1d28(%rbp),%rax
   14435:	48 89 85 78 e0 ff ff 	mov    %rax,-0x1f88(%rbp)
   1443c:	48 8d 85 78 e0 ff ff 	lea    -0x1f88(%rbp),%rax
   14443:	48 89 85 30 e1 ff ff 	mov    %rax,-0x1ed0(%rbp)
   1444a:	66 c7 85 66 de ff ff 	movw   $0xf8e2,-0x219a(%rbp)
   14451:	e2 f8 
   14453:	c7 85 9c de ff ff 07 	movl   $0x7,-0x2164(%rbp)
   1445a:	00 00 00 
   1445d:	48 8d 05 ac 34 01 00 	lea    0x134ac(%rip),%rax        # 27910 <g_1539>
   14464:	48 89 85 38 e1 ff ff 	mov    %rax,-0x1ec8(%rbp)
   1446b:	c6 85 57 de ff ff 01 	movb   $0x1,-0x21a9(%rbp)
   14472:	48 c7 85 40 e1 ff ff 	movq   $0x6,-0x1ec0(%rbp)
   14479:	06 00 00 00 
   1447d:	66 c7 85 62 de ff ff 	movw   $0x3f1d,-0x219e(%rbp)
   14484:	1d 3f 
   14486:	c7 85 a0 de ff ff 00 	movl   $0x0,-0x2160(%rbp)
   1448d:	00 00 00 
   14490:	eb 1b                	jmp    144ad <func_53+0x5af>
   14492:	8b 85 a0 de ff ff    	mov    -0x2160(%rbp),%eax
   14498:	48 98                	cltq   
   1449a:	48 c7 84 c5 90 e3 ff 	movq   $0x0,-0x1c70(%rbp,%rax,8)
   144a1:	ff 00 00 00 00 
   144a6:	83 85 a0 de ff ff 01 	addl   $0x1,-0x2160(%rbp)
   144ad:	83 bd a0 de ff ff 04 	cmpl   $0x4,-0x2160(%rbp)
   144b4:	7e dc                	jle    14492 <func_53+0x594>
   144b6:	c7 85 a0 de ff ff 00 	movl   $0x0,-0x2160(%rbp)
   144bd:	00 00 00 
   144c0:	eb 1e                	jmp    144e0 <func_53+0x5e2>
   144c2:	8b 85 a0 de ff ff    	mov    -0x2160(%rbp),%eax
   144c8:	48 98                	cltq   
   144ca:	48 8d 95 70 e0 ff ff 	lea    -0x1f90(%rbp),%rdx
   144d1:	48 89 94 c5 d8 e2 ff 	mov    %rdx,-0x1d28(%rbp,%rax,8)
   144d8:	ff 
   144d9:	83 85 a0 de ff ff 01 	addl   $0x1,-0x2160(%rbp)
   144e0:	83 bd a0 de ff ff 00 	cmpl   $0x0,-0x2160(%rbp)
   144e7:	7e d9                	jle    144c2 <func_53+0x5c4>
   144e9:	90                   	nop
   144ea:	8b 85 34 de ff ff    	mov    -0x21cc(%rbp),%eax
   144f0:	0f b6 d8             	movzbl %al,%ebx
   144f3:	80 bd 55 de ff ff 00 	cmpb   $0x0,-0x21ab(%rbp)
   144fa:	74 75                	je     14571 <func_53+0x673>
   144fc:	8b 85 34 de ff ff    	mov    -0x21cc(%rbp),%eax
   14502:	44 0f b6 e0          	movzbl %al,%r12d
   14506:	b8 01 00 00 00       	mov    $0x1,%eax
   1450b:	0f bf d0             	movswl %ax,%edx
   1450e:	0f b6 85 53 de ff ff 	movzbl -0x21ad(%rbp),%eax
   14515:	0f be c0             	movsbl %al,%eax
   14518:	89 d6                	mov    %edx,%esi
   1451a:	89 c7                	mov    %eax,%edi
   1451c:	e8 dc 79 ff ff       	callq  befd <safe_mod_func_uint32_t_u_u>
   14521:	0f b6 95 53 de ff ff 	movzbl -0x21ad(%rbp),%edx
   14528:	0f be d2             	movsbl %dl,%edx
   1452b:	39 d0                	cmp    %edx,%eax
   1452d:	0f 97 c2             	seta   %dl
   14530:	48 8b 85 40 e0 ff ff 	mov    -0x1fc0(%rbp),%rax
   14537:	88 10                	mov    %dl,(%rax)
   14539:	0f b6 00             	movzbl (%rax),%eax
   1453c:	0f be c0             	movsbl %al,%eax
   1453f:	89 85 78 de ff ff    	mov    %eax,-0x2188(%rbp)
   14545:	8b 85 78 de ff ff    	mov    -0x2188(%rbp),%eax
   1454b:	3d c3 00 00 00       	cmp    $0xc3,%eax
   14550:	0f 9e c0             	setle  %al
   14553:	0f b6 c0             	movzbl %al,%eax
   14556:	89 85 e0 de ff ff    	mov    %eax,-0x2120(%rbp)
   1455c:	8b 85 e0 de ff ff    	mov    -0x2120(%rbp),%eax
   14562:	0f b6 c0             	movzbl %al,%eax
   14565:	44 89 e6             	mov    %r12d,%esi
   14568:	89 c7                	mov    %eax,%edi
   1456a:	e8 eb 75 ff ff       	callq  bb5a <safe_add_func_uint8_t_u_u>
   1456f:	84 c0                	test   %al,%al
   14571:	8b 85 34 de ff ff    	mov    -0x21cc(%rbp),%eax
   14577:	0f be d0             	movsbl %al,%edx
   1457a:	8b 85 94 de ff ff    	mov    -0x216c(%rbp),%eax
   14580:	0f be c0             	movsbl %al,%eax
   14583:	89 d6                	mov    %edx,%esi
   14585:	89 c7                	mov    %eax,%edi
   14587:	e8 86 6c ff ff       	callq  b212 <safe_mul_func_int8_t_s_s>
   1458c:	0f b6 95 53 de ff ff 	movzbl -0x21ad(%rbp),%edx
   14593:	31 d0                	xor    %edx,%eax
   14595:	48 0f be c0          	movsbq %al,%rax
   14599:	48 89 05 98 f0 00 00 	mov    %rax,0xf098(%rip)        # 23638 <g_1162>
   145a0:	48 8b 05 91 f0 00 00 	mov    0xf091(%rip),%rax        # 23638 <g_1162>
   145a7:	48 39 85 40 de ff ff 	cmp    %rax,-0x21c0(%rbp)
   145ae:	0f 9e c0             	setle  %al
   145b1:	0f b6 c0             	movzbl %al,%eax
   145b4:	09 85 90 de ff ff    	or     %eax,-0x2170(%rbp)
   145ba:	8b 85 90 de ff ff    	mov    -0x2170(%rbp),%eax
   145c0:	be ff ff ff ff       	mov    $0xffffffff,%esi
   145c5:	89 c7                	mov    %eax,%edi
   145c7:	e8 ec 78 ff ff       	callq  beb8 <safe_add_func_uint32_t_u_u>
   145cc:	89 c0                	mov    %eax,%eax
   145ce:	48 39 85 40 de ff ff 	cmp    %rax,-0x21c0(%rbp)
   145d5:	0f 9d c0             	setge  %al
   145d8:	0f b6 c0             	movzbl %al,%eax
   145db:	be 07 00 00 00       	mov    $0x7,%esi
   145e0:	89 c7                	mov    %eax,%edi
   145e2:	e8 a6 76 ff ff       	callq  bc8d <safe_rshift_func_uint8_t_u_s>
   145e7:	0f b6 c0             	movzbl %al,%eax
   145ea:	89 de                	mov    %ebx,%esi
   145ec:	89 c7                	mov    %eax,%edi
   145ee:	e8 67 75 ff ff       	callq  bb5a <safe_add_func_uint8_t_u_u>
   145f3:	0f b6 d8             	movzbl %al,%ebx
   145f6:	48 8b 05 eb 32 01 00 	mov    0x132eb(%rip),%rax        # 278e8 <g_845>
   145fd:	48 8b 00             	mov    (%rax),%rax
   14600:	48 8b 10             	mov    (%rax),%rdx
   14603:	48 83 c2 01          	add    $0x1,%rdx
   14607:	48 89 10             	mov    %rdx,(%rax)
   1460a:	4c 8b 20             	mov    (%rax),%r12
   1460d:	48 8b 85 e8 e0 ff ff 	mov    -0x1f18(%rbp),%rax
   14614:	48 8b 10             	mov    (%rax),%rdx
   14617:	0f b6 85 53 de ff ff 	movzbl -0x21ad(%rbp),%eax
   1461e:	48 0f be c0          	movsbq %al,%rax
   14622:	48 31 c2             	xor    %rax,%rdx
   14625:	48 8b 85 e8 e0 ff ff 	mov    -0x1f18(%rbp),%rax
   1462c:	48 89 10             	mov    %rdx,(%rax)
   1462f:	48 8b 85 e8 e0 ff ff 	mov    -0x1f18(%rbp),%rax
   14636:	4c 8b 28             	mov    (%rax),%r13
   14639:	0f b6 85 53 de ff ff 	movzbl -0x21ad(%rbp),%eax
   14640:	0f be d0             	movsbl %al,%edx
   14643:	8b 85 34 de ff ff    	mov    -0x21cc(%rbp),%eax
   14649:	0f b6 c0             	movzbl %al,%eax
   1464c:	89 d6                	mov    %edx,%esi
   1464e:	89 c7                	mov    %eax,%edi
   14650:	e8 b0 75 ff ff       	callq  bc05 <safe_lshift_func_uint8_t_u_s>
   14655:	0f b6 c0             	movzbl %al,%eax
   14658:	4c 31 e8             	xor    %r13,%rax
   1465b:	49 39 c4             	cmp    %rax,%r12
   1465e:	0f 95 c0             	setne  %al
   14661:	0f b6 c0             	movzbl %al,%eax
   14664:	89 de                	mov    %ebx,%esi
   14666:	89 c7                	mov    %eax,%edi
   14668:	e8 88 6d ff ff       	callq  b3f5 <safe_mul_func_int16_t_s_s>
   1466d:	0f b7 c0             	movzwl %ax,%eax
   14670:	be 0c 00 00 00       	mov    $0xc,%esi
   14675:	89 c7                	mov    %eax,%edi
   14677:	e8 fe 77 ff ff       	callq  be7a <safe_rshift_func_uint16_t_u_u>
   1467c:	0f b7 c8             	movzwl %ax,%ecx
   1467f:	48 8b 85 48 e0 ff ff 	mov    -0x1fb8(%rbp),%rax
   14686:	8b 10                	mov    (%rax),%edx
   14688:	48 8b 85 48 e0 ff ff 	mov    -0x1fb8(%rbp),%rax
   1468f:	09 ca                	or     %ecx,%edx
   14691:	89 10                	mov    %edx,(%rax)
   14693:	83 bd 34 de ff ff 00 	cmpl   $0x0,-0x21cc(%rbp)
   1469a:	74 14                	je     146b0 <func_53+0x7b2>
   1469c:	48 8b 85 48 e0 ff ff 	mov    -0x1fb8(%rbp),%rax
   146a3:	8b 00                	mov    (%rax),%eax
   146a5:	85 c0                	test   %eax,%eax
   146a7:	74 07                	je     146b0 <func_53+0x7b2>
   146a9:	b8 01 00 00 00       	mov    $0x1,%eax
   146ae:	eb 05                	jmp    146b5 <func_53+0x7b7>
   146b0:	b8 00 00 00 00       	mov    $0x0,%eax
   146b5:	48 63 d8             	movslq %eax,%rbx
   146b8:	8b 05 fe ed 00 00    	mov    0xedfe(%rip),%eax        # 234bc <g_608+0x1c>
   146be:	48 98                	cltq   
   146c0:	48 89 c7             	mov    %rax,%rdi
   146c3:	e8 4e 71 ff ff       	callq  b816 <safe_unary_minus_func_int64_t_s>
   146c8:	48 39 c3             	cmp    %rax,%rbx
   146cb:	0f 8e fe 35 00 00    	jle    17ccf <func_53+0x3dd1>
   146d1:	48 8d 05 58 ef 00 00 	lea    0xef58(%rip),%rax        # 23630 <g_1066>
   146d8:	48 89 85 d8 e0 ff ff 	mov    %rax,-0x1f28(%rbp)
   146df:	c7 85 08 df ff ff ae 	movl   $0x6f7612ae,-0x20f8(%rbp)
   146e6:	12 76 6f 
   146e9:	48 8d 85 78 de ff ff 	lea    -0x2188(%rbp),%rax
   146f0:	48 89 85 e0 e0 ff ff 	mov    %rax,-0x1f20(%rbp)
   146f7:	48 8d 05 fe ed 00 00 	lea    0xedfe(%rip),%rax        # 234fc <g_682>
   146fe:	48 89 85 80 e0 ff ff 	mov    %rax,-0x1f80(%rbp)
   14705:	66 c7 85 68 de ff ff 	movw   $0xdb0c,-0x2198(%rbp)
   1470c:	0c db 
   1470e:	66 c7 85 5e de ff ff 	movw   $0x5ed8,-0x21a2(%rbp)
   14715:	d8 5e 
   14717:	48 8d 05 da 31 01 00 	lea    0x131da(%rip),%rax        # 278f8 <g_912>
   1471e:	48 89 85 58 e1 ff ff 	mov    %rax,-0x1ea8(%rbp)
   14725:	c7 85 0c df ff ff ad 	movl   $0xffc6b4ad,-0x20f4(%rbp)
   1472c:	b4 c6 ff 
   1472f:	48 8d 85 a0 ee ff ff 	lea    -0x1160(%rbp),%rax
   14736:	48 8d 15 c3 a3 00 00 	lea    0xa3c3(%rip),%rdx        # 1eb00 <g_3481+0x1a60>
   1473d:	b9 79 00 00 00       	mov    $0x79,%ecx
   14742:	48 89 c7             	mov    %rax,%rdi
   14745:	48 89 d6             	mov    %rdx,%rsi
   14748:	f3 48 a5             	rep movsq %ds:(%rsi),%es:(%rdi)
   1474b:	48 89 f2             	mov    %rsi,%rdx
   1474e:	48 89 f8             	mov    %rdi,%rax
   14751:	8b 0a                	mov    (%rdx),%ecx
   14753:	89 08                	mov    %ecx,(%rax)
   14755:	48 8d 40 04          	lea    0x4(%rax),%rax
   14759:	48 8d 52 04          	lea    0x4(%rdx),%rdx
   1475d:	c7 85 c0 e6 ff ff b2 	movl   $0x91008cb2,-0x1940(%rbp)
   14764:	8c 00 91 
   14767:	c7 85 c4 e6 ff ff ff 	movl   $0xffffffff,-0x193c(%rbp)
   1476e:	ff ff ff 
   14771:	c7 85 c8 e6 ff ff f6 	movl   $0xfffffff6,-0x1938(%rbp)
   14778:	ff ff ff 
   1477b:	c7 85 cc e6 ff ff 10 	movl   $0xbb85db10,-0x1934(%rbp)
   14782:	db 85 bb 
   14785:	c7 85 d0 e6 ff ff 00 	movl   $0x0,-0x1930(%rbp)
   1478c:	00 00 00 
   1478f:	c7 85 d4 e6 ff ff 1c 	movl   $0xb0d68e1c,-0x192c(%rbp)
   14796:	8e d6 b0 
   14799:	c7 85 d8 e6 ff ff b2 	movl   $0x91008cb2,-0x1928(%rbp)
   147a0:	8c 00 91 
   147a3:	c7 85 dc e6 ff ff 53 	movl   $0xa7ab4d53,-0x1924(%rbp)
   147aa:	4d ab a7 
   147ad:	c7 85 e0 e6 ff ff ff 	movl   $0xffffffff,-0x1920(%rbp)
   147b4:	ff ff ff 
   147b7:	c7 85 e4 e6 ff ff 41 	movl   $0xafcaf241,-0x191c(%rbp)
   147be:	f2 ca af 
   147c1:	c7 85 e8 e6 ff ff 64 	movl   $0x4077e264,-0x1918(%rbp)
   147c8:	e2 77 40 
   147cb:	c7 85 ec e6 ff ff 00 	movl   $0x0,-0x1914(%rbp)
   147d2:	00 00 00 
   147d5:	c7 85 f0 e6 ff ff f0 	movl   $0xaa54cff0,-0x1910(%rbp)
   147dc:	cf 54 aa 
   147df:	c7 85 f4 e6 ff ff 53 	movl   $0xa7ab4d53,-0x190c(%rbp)
   147e6:	4d ab a7 
   147e9:	c7 85 f8 e6 ff ff 53 	movl   $0xa7ab4d53,-0x1908(%rbp)
   147f0:	4d ab a7 
   147f3:	c7 85 fc e6 ff ff 1c 	movl   $0xb0d68e1c,-0x1904(%rbp)
   147fa:	8e d6 b0 
   147fd:	c7 85 00 e7 ff ff f6 	movl   $0xfffffff6,-0x1900(%rbp)
   14804:	ff ff ff 
   14807:	c7 85 04 e7 ff ff 64 	movl   $0x4077e264,-0x18fc(%rbp)
   1480e:	e2 77 40 
   14811:	c7 85 08 e7 ff ff f6 	movl   $0xfffffff6,-0x18f8(%rbp)
   14818:	ff ff ff 
   1481b:	c7 85 0c e7 ff ff 1c 	movl   $0xb0d68e1c,-0x18f4(%rbp)
   14822:	8e d6 b0 
   14825:	c7 85 10 e7 ff ff 53 	movl   $0xa7ab4d53,-0x18f0(%rbp)
   1482c:	4d ab a7 
   1482f:	c7 85 14 e7 ff ff b2 	movl   $0x91008cb2,-0x18ec(%rbp)
   14836:	8c 00 91 
   14839:	c7 85 18 e7 ff ff ff 	movl   $0xffffffff,-0x18e8(%rbp)
   14840:	ff ff ff 
   14843:	c7 85 1c e7 ff ff f6 	movl   $0xfffffff6,-0x18e4(%rbp)
   1484a:	ff ff ff 
   1484d:	c7 85 20 e7 ff ff 10 	movl   $0xbb85db10,-0x18e0(%rbp)
   14854:	db 85 bb 
   14857:	c7 85 24 e7 ff ff 00 	movl   $0x0,-0x18dc(%rbp)
   1485e:	00 00 00 
   14861:	c7 85 28 e7 ff ff 1c 	movl   $0xb0d68e1c,-0x18d8(%rbp)
   14868:	8e d6 b0 
   1486b:	c7 85 2c e7 ff ff b2 	movl   $0x91008cb2,-0x18d4(%rbp)
   14872:	8c 00 91 
   14875:	c7 85 30 e7 ff ff 53 	movl   $0xa7ab4d53,-0x18d0(%rbp)
   1487c:	4d ab a7 
   1487f:	c7 85 34 e7 ff ff ff 	movl   $0xffffffff,-0x18cc(%rbp)
   14886:	ff ff ff 
   14889:	c7 85 38 e7 ff ff 41 	movl   $0xafcaf241,-0x18c8(%rbp)
   14890:	f2 ca af 
   14893:	c7 85 3c e7 ff ff 64 	movl   $0x4077e264,-0x18c4(%rbp)
   1489a:	e2 77 40 
   1489d:	c7 85 40 e7 ff ff 00 	movl   $0x0,-0x18c0(%rbp)
   148a4:	00 00 00 
   148a7:	c7 85 44 e7 ff ff f0 	movl   $0xaa54cff0,-0x18bc(%rbp)
   148ae:	cf 54 aa 
   148b1:	c7 85 48 e7 ff ff 53 	movl   $0xa7ab4d53,-0x18b8(%rbp)
   148b8:	4d ab a7 
   148bb:	c7 85 4c e7 ff ff 53 	movl   $0xa7ab4d53,-0x18b4(%rbp)
   148c2:	4d ab a7 
   148c5:	c7 85 50 e7 ff ff 1c 	movl   $0xb0d68e1c,-0x18b0(%rbp)
   148cc:	8e d6 b0 
   148cf:	c7 85 54 e7 ff ff f6 	movl   $0xfffffff6,-0x18ac(%rbp)
   148d6:	ff ff ff 
   148d9:	c7 85 58 e7 ff ff 64 	movl   $0x4077e264,-0x18a8(%rbp)
   148e0:	e2 77 40 
   148e3:	c7 85 5c e7 ff ff f6 	movl   $0xfffffff6,-0x18a4(%rbp)
   148ea:	ff ff ff 
   148ed:	c7 85 60 e7 ff ff 1c 	movl   $0xb0d68e1c,-0x18a0(%rbp)
   148f4:	8e d6 b0 
   148f7:	c7 85 64 e7 ff ff 53 	movl   $0xa7ab4d53,-0x189c(%rbp)
   148fe:	4d ab a7 
   14901:	c7 85 68 e7 ff ff b2 	movl   $0x91008cb2,-0x1898(%rbp)
   14908:	8c 00 91 
   1490b:	c7 85 6c e7 ff ff ff 	movl   $0xffffffff,-0x1894(%rbp)
   14912:	ff ff ff 
   14915:	c7 85 70 e7 ff ff f6 	movl   $0xfffffff6,-0x1890(%rbp)
   1491c:	ff ff ff 
   1491f:	c7 85 74 e7 ff ff 10 	movl   $0xbb85db10,-0x188c(%rbp)
   14926:	db 85 bb 
   14929:	c7 85 78 e7 ff ff 00 	movl   $0x0,-0x1888(%rbp)
   14930:	00 00 00 
   14933:	c7 85 7c e7 ff ff 1c 	movl   $0xb0d68e1c,-0x1884(%rbp)
   1493a:	8e d6 b0 
   1493d:	c7 85 80 e7 ff ff b2 	movl   $0x91008cb2,-0x1880(%rbp)
   14944:	8c 00 91 
   14947:	c7 85 10 df ff ff 19 	movl   $0x2d08f019,-0x20f0(%rbp)
   1494e:	f0 08 2d 
   14951:	c7 85 a4 de ff ff f6 	movl   $0x712998f6,-0x215c(%rbp)
   14958:	98 29 71 
   1495b:	48 8d 85 40 e0 ff ff 	lea    -0x1fc0(%rbp),%rax
   14962:	48 89 85 88 e0 ff ff 	mov    %rax,-0x1f78(%rbp)
   14969:	48 8d 85 88 e0 ff ff 	lea    -0x1f78(%rbp),%rax
   14970:	48 89 85 90 e0 ff ff 	mov    %rax,-0x1f70(%rbp)
   14977:	48 8d 85 90 e0 ff ff 	lea    -0x1f70(%rbp),%rax
   1497e:	48 89 85 98 e0 ff ff 	mov    %rax,-0x1f68(%rbp)
   14985:	48 8d 85 98 e0 ff ff 	lea    -0x1f68(%rbp),%rax
   1498c:	48 89 85 60 e1 ff ff 	mov    %rax,-0x1ea0(%rbp)
   14993:	66 c7 85 90 e7 ff ff 	movw   $0x71fb,-0x1870(%rbp)
   1499a:	fb 71 
   1499c:	c6 85 92 e7 ff ff 0a 	movb   $0xa,-0x186e(%rbp)
   149a3:	66 c7 85 93 e7 ff ff 	movw   $0xf92a,-0x186d(%rbp)
   149aa:	2a f9 
   149ac:	c6 85 95 e7 ff ff 01 	movb   $0x1,-0x186b(%rbp)
   149b3:	66 c7 85 96 e7 ff ff 	movw   $0x1ed9,-0x186a(%rbp)
   149ba:	d9 1e 
   149bc:	c6 85 98 e7 ff ff fb 	movb   $0xfb,-0x1868(%rbp)
   149c3:	66 c7 85 99 e7 ff ff 	movw   $0x507,-0x1867(%rbp)
   149ca:	07 05 
   149cc:	c6 85 9b e7 ff ff f6 	movb   $0xf6,-0x1865(%rbp)
   149d3:	66 c7 85 9c e7 ff ff 	movw   $0xf8ff,-0x1864(%rbp)
   149da:	ff f8 
   149dc:	c6 85 9e e7 ff ff 01 	movb   $0x1,-0x1862(%rbp)
   149e3:	66 c7 85 9f e7 ff ff 	movw   $0xff03,-0x1861(%rbp)
   149ea:	03 ff 
   149ec:	c6 85 a1 e7 ff ff 06 	movb   $0x6,-0x185f(%rbp)
   149f3:	66 c7 85 a2 e7 ff ff 	movw   $0x88fb,-0x185e(%rbp)
   149fa:	fb 88 
   149fc:	c6 85 a4 e7 ff ff ff 	movb   $0xff,-0x185c(%rbp)
   14a03:	66 c7 85 a5 e7 ff ff 	movw   $0xf6f6,-0x185b(%rbp)
   14a0a:	f6 f6 
   14a0c:	c6 85 a7 e7 ff ff 12 	movb   $0x12,-0x1859(%rbp)
   14a13:	66 c7 85 a8 e7 ff ff 	movw   $0xfbf8,-0x1858(%rbp)
   14a1a:	f8 fb 
   14a1c:	c6 85 aa e7 ff ff b6 	movb   $0xb6,-0x1856(%rbp)
   14a23:	66 c7 85 ab e7 ff ff 	movw   $0xff5a,-0x1855(%rbp)
   14a2a:	5a ff 
   14a2c:	c6 85 ad e7 ff ff 0a 	movb   $0xa,-0x1853(%rbp)
   14a33:	66 c7 85 ae e7 ff ff 	movw   $0xfb5d,-0x1852(%rbp)
   14a3a:	5d fb 
   14a3c:	c6 85 b0 e7 ff ff 2e 	movb   $0x2e,-0x1850(%rbp)
   14a43:	66 c7 85 b1 e7 ff ff 	movw   $0x5a3d,-0x184f(%rbp)
   14a4a:	3d 5a 
   14a4c:	c6 85 b3 e7 ff ff 0a 	movb   $0xa,-0x184d(%rbp)
   14a53:	66 c7 85 b4 e7 ff ff 	movw   $0x38ac,-0x184c(%rbp)
   14a5a:	ac 38 
   14a5c:	c6 85 b6 e7 ff ff b6 	movb   $0xb6,-0x184a(%rbp)
   14a63:	66 c7 85 b7 e7 ff ff 	movw   $0xf601,-0x1849(%rbp)
   14a6a:	01 f6 
   14a6c:	c6 85 b9 e7 ff ff 12 	movb   $0x12,-0x1847(%rbp)
   14a73:	66 c7 85 ba e7 ff ff 	movw   $0xff7e,-0x1846(%rbp)
   14a7a:	7e ff 
   14a7c:	c6 85 bc e7 ff ff ff 	movb   $0xff,-0x1844(%rbp)
   14a83:	66 c7 85 bd e7 ff ff 	movw   $0xfff9,-0x1843(%rbp)
   14a8a:	f9 ff 
   14a8c:	c6 85 bf e7 ff ff 06 	movb   $0x6,-0x1841(%rbp)
   14a93:	66 c7 85 c0 e7 ff ff 	movw   $0x2e,-0x1840(%rbp)
   14a9a:	2e 00 
   14a9c:	c6 85 c2 e7 ff ff 01 	movb   $0x1,-0x183e(%rbp)
   14aa3:	66 c7 85 c3 e7 ff ff 	movw   $0x3b46,-0x183d(%rbp)
   14aaa:	46 3b 
   14aac:	c6 85 c5 e7 ff ff f6 	movb   $0xf6,-0x183b(%rbp)
   14ab3:	66 c7 85 c6 e7 ff ff 	movw   $0x3ff,-0x183a(%rbp)
   14aba:	ff 03 
   14abc:	c6 85 c8 e7 ff ff fb 	movb   $0xfb,-0x1838(%rbp)
   14ac3:	66 c7 85 c9 e7 ff ff 	movw   $0xf6ad,-0x1837(%rbp)
   14aca:	ad f6 
   14acc:	c6 85 cb e7 ff ff 01 	movb   $0x1,-0x1835(%rbp)
   14ad3:	66 c7 85 cc e7 ff ff 	movw   $0x166,-0x1834(%rbp)
   14ada:	66 01 
   14adc:	c6 85 ce e7 ff ff 0a 	movb   $0xa,-0x1832(%rbp)
   14ae3:	66 c7 85 cf e7 ff ff 	movw   $0xdf00,-0x1831(%rbp)
   14aea:	00 df 
   14aec:	c6 85 d1 e7 ff ff 88 	movb   $0x88,-0x182f(%rbp)
   14af3:	66 c7 85 d2 e7 ff ff 	movw   $0xb60a,-0x182e(%rbp)
   14afa:	0a b6 
   14afc:	c6 85 d4 e7 ff ff 9e 	movb   $0x9e,-0x182c(%rbp)
   14b03:	66 c7 85 d5 e7 ff ff 	movw   $0xf701,-0x182b(%rbp)
   14b0a:	01 f7 
   14b0c:	c6 85 d7 e7 ff ff 05 	movb   $0x5,-0x1829(%rbp)
   14b13:	66 c7 85 d8 e7 ff ff 	movw   $0xd71e,-0x1828(%rbp)
   14b1a:	1e d7 
   14b1c:	c6 85 da e7 ff ff d7 	movb   $0xd7,-0x1826(%rbp)
   14b23:	66 c7 85 db e7 ff ff 	movw   $0x1f8,-0x1825(%rbp)
   14b2a:	f8 01 
   14b2c:	c6 85 dd e7 ff ff 00 	movb   $0x0,-0x1823(%rbp)
   14b33:	66 c7 85 de e7 ff ff 	movw   $0x5d00,-0x1822(%rbp)
   14b3a:	00 5d 
   14b3c:	c6 85 e0 e7 ff ff ac 	movb   $0xac,-0x1820(%rbp)
   14b43:	66 c7 85 e1 e7 ff ff 	movw   $0x22,-0x181f(%rbp)
   14b4a:	22 00 
   14b4c:	c6 85 e3 e7 ff ff 73 	movb   $0x73,-0x181d(%rbp)
   14b53:	66 c7 85 e4 e7 ff ff 	movw   $0xf6fc,-0x181c(%rbp)
   14b5a:	fc f6 
   14b5c:	c6 85 e6 e7 ff ff 00 	movb   $0x0,-0x181a(%rbp)
   14b63:	66 c7 85 e7 e7 ff ff 	movw   $0xc3f6,-0x1819(%rbp)
   14b6a:	f6 c3 
   14b6c:	c6 85 e9 e7 ff ff 05 	movb   $0x5,-0x1817(%rbp)
   14b73:	66 c7 85 ea e7 ff ff 	movw   $0x9eff,-0x1816(%rbp)
   14b7a:	ff 9e 
   14b7c:	c6 85 ec e7 ff ff 31 	movb   $0x31,-0x1814(%rbp)
   14b83:	66 c7 85 ed e7 ff ff 	movw   $0x1,-0x1813(%rbp)
   14b8a:	01 00 
   14b8c:	c6 85 ef e7 ff ff 01 	movb   $0x1,-0x1811(%rbp)
   14b93:	66 c7 85 f0 e7 ff ff 	movw   $0xfb00,-0x1810(%rbp)
   14b9a:	00 fb 
   14b9c:	c6 85 f2 e7 ff ff 19 	movb   $0x19,-0x180e(%rbp)
   14ba3:	66 c7 85 f3 e7 ff ff 	movw   $0xf673,-0x180d(%rbp)
   14baa:	73 f6 
   14bac:	c6 85 f5 e7 ff ff 2a 	movb   $0x2a,-0x180b(%rbp)
   14bb3:	66 c7 85 f6 e7 ff ff 	movw   $0xf900,-0x180a(%rbp)
   14bba:	00 f9 
   14bbc:	c6 85 f8 e7 ff ff 00 	movb   $0x0,-0x1808(%rbp)
   14bc3:	66 c7 85 f9 e7 ff ff 	movw   $0x156,-0x1807(%rbp)
   14bca:	56 01 
   14bcc:	c6 85 fb e7 ff ff 00 	movb   $0x0,-0x1805(%rbp)
   14bd3:	66 c7 85 fc e7 ff ff 	movw   $0x1e,-0x1804(%rbp)
   14bda:	1e 00 
   14bdc:	c6 85 fe e7 ff ff 2e 	movb   $0x2e,-0x1802(%rbp)
   14be3:	66 c7 85 ff e7 ff ff 	movw   $0x1208,-0x1801(%rbp)
   14bea:	08 12 
   14bec:	c6 85 01 e8 ff ff 01 	movb   $0x1,-0x17ff(%rbp)
   14bf3:	66 c7 85 02 e8 ff ff 	movw   $0x885d,-0x17fe(%rbp)
   14bfa:	5d 88 
   14bfc:	c6 85 04 e8 ff ff fb 	movb   $0xfb,-0x17fc(%rbp)
   14c03:	66 c7 85 05 e8 ff ff 	movw   $0xf605,-0x17fb(%rbp)
   14c0a:	05 f6 
   14c0c:	c6 85 07 e8 ff ff f6 	movb   $0xf6,-0x17f9(%rbp)
   14c13:	66 c7 85 08 e8 ff ff 	movw   $0x5bfb,-0x17f8(%rbp)
   14c1a:	fb 5b 
   14c1c:	c6 85 0a e8 ff ff 38 	movb   $0x38,-0x17f6(%rbp)
   14c23:	66 c7 85 0b e8 ff ff 	movw   $0x2203,-0x17f5(%rbp)
   14c2a:	03 22 
   14c2c:	c6 85 0d e8 ff ff ff 	movb   $0xff,-0x17f3(%rbp)
   14c33:	66 c7 85 0e e8 ff ff 	movw   $0x7e00,-0x17f2(%rbp)
   14c3a:	00 7e 
   14c3c:	c6 85 10 e8 ff ff 00 	movb   $0x0,-0x17f0(%rbp)
   14c43:	66 c7 85 11 e8 ff ff 	movw   $0x4683,-0x17ef(%rbp)
   14c4a:	83 46 
   14c4c:	c6 85 13 e8 ff ff 08 	movb   $0x8,-0x17ed(%rbp)
   14c53:	66 c7 85 14 e8 ff ff 	movw   $0x5d7e,-0x17ec(%rbp)
   14c5a:	7e 5d 
   14c5c:	c6 85 16 e8 ff ff f9 	movb   $0xf9,-0x17ea(%rbp)
   14c63:	66 c7 85 17 e8 ff ff 	movw   $0xb088,-0x17e9(%rbp)
   14c6a:	88 b0 
   14c6c:	c6 85 19 e8 ff ff fe 	movb   $0xfe,-0x17e7(%rbp)
   14c73:	66 c7 85 1a e8 ff ff 	movw   $0x5df8,-0x17e6(%rbp)
   14c7a:	f8 5d 
   14c7c:	c6 85 1c e8 ff ff d7 	movb   $0xd7,-0x17e4(%rbp)
   14c83:	66 c7 85 1d e8 ff ff 	movw   $0x7388,-0x17e3(%rbp)
   14c8a:	88 73 
   14c8c:	c6 85 1f e8 ff ff fa 	movb   $0xfa,-0x17e1(%rbp)
   14c93:	66 c7 85 20 e8 ff ff 	movw   $0x717e,-0x17e0(%rbp)
   14c9a:	7e 71 
   14c9c:	c6 85 22 e8 ff ff ff 	movb   $0xff,-0x17de(%rbp)
   14ca3:	66 c7 85 23 e8 ff ff 	movw   $0x183,-0x17dd(%rbp)
   14caa:	83 01 
   14cac:	c6 85 25 e8 ff ff 58 	movb   $0x58,-0x17db(%rbp)
   14cb3:	66 c7 85 26 e8 ff ff 	movw   $0x6600,-0x17da(%rbp)
   14cba:	00 66 
   14cbc:	c6 85 28 e8 ff ff 73 	movb   $0x73,-0x17d8(%rbp)
   14cc3:	66 c7 85 29 e8 ff ff 	movw   $0x3,-0x17d7(%rbp)
   14cca:	03 00 
   14ccc:	c6 85 2b e8 ff ff 01 	movb   $0x1,-0x17d5(%rbp)
   14cd3:	66 c7 85 2c e8 ff ff 	movw   $0xfbfb,-0x17d4(%rbp)
   14cda:	fb fb 
   14cdc:	c6 85 2e e8 ff ff 88 	movb   $0x88,-0x17d2(%rbp)
   14ce3:	66 c7 85 2f e8 ff ff 	movw   $0x8305,-0x17d1(%rbp)
   14cea:	05 83 
   14cec:	c6 85 31 e8 ff ff 3d 	movb   $0x3d,-0x17cf(%rbp)
   14cf3:	66 c7 85 32 e8 ff ff 	movw   $0xf65d,-0x17ce(%rbp)
   14cfa:	5d f6 
   14cfc:	c6 85 34 e8 ff ff 66 	movb   $0x66,-0x17cc(%rbp)
   14d03:	66 c7 85 35 e8 ff ff 	movw   $0x8,-0x17cb(%rbp)
   14d0a:	08 00 
   14d0c:	c6 85 37 e8 ff ff 73 	movb   $0x73,-0x17c9(%rbp)
   14d13:	66 c7 85 38 e8 ff ff 	movw   $0x731e,-0x17c8(%rbp)
   14d1a:	1e 73 
   14d1c:	c6 85 3a e8 ff ff 2d 	movb   $0x2d,-0x17c6(%rbp)
   14d23:	66 c7 85 3b e8 ff ff 	movw   $0x156,-0x17c5(%rbp)
   14d2a:	56 01 
   14d2c:	c6 85 3d e8 ff ff f6 	movb   $0xf6,-0x17c3(%rbp)
   14d33:	66 c7 85 3e e8 ff ff 	movw   $0x0,-0x17c2(%rbp)
   14d3a:	00 00 
   14d3c:	c6 85 40 e8 ff ff 9e 	movb   $0x9e,-0x17c0(%rbp)
   14d43:	66 c7 85 41 e8 ff ff 	movw   $0xad73,-0x17bf(%rbp)
   14d4a:	73 ad 
   14d4c:	c6 85 43 e8 ff ff 56 	movb   $0x56,-0x17bd(%rbp)
   14d53:	66 c7 85 44 e8 ff ff 	movw   $0x0,-0x17bc(%rbp)
   14d5a:	00 00 
   14d5c:	c6 85 46 e8 ff ff 01 	movb   $0x1,-0x17ba(%rbp)
   14d63:	66 c7 85 47 e8 ff ff 	movw   $0x501,-0x17b9(%rbp)
   14d6a:	01 05 
   14d6c:	c6 85 49 e8 ff ff df 	movb   $0xdf,-0x17b7(%rbp)
   14d73:	66 c7 85 4a e8 ff ff 	movw   $0xff,-0x17b6(%rbp)
   14d7a:	ff 00 
   14d7c:	c6 85 4c e8 ff ff f8 	movb   $0xf8,-0x17b4(%rbp)
   14d83:	66 c7 85 4d e8 ff ff 	movw   $0x71f6,-0x17b3(%rbp)
   14d8a:	f6 71 
   14d8c:	c6 85 4f e8 ff ff 00 	movb   $0x0,-0x17b1(%rbp)
   14d93:	66 c7 85 50 e8 ff ff 	movw   $0xff19,-0x17b0(%rbp)
   14d9a:	19 ff 
   14d9c:	c6 85 52 e8 ff ff f8 	movb   $0xf8,-0x17ae(%rbp)
   14da3:	66 c7 85 53 e8 ff ff 	movw   $0x6fa,-0x17ad(%rbp)
   14daa:	fa 06 
   14dac:	c6 85 55 e8 ff ff df 	movb   $0xdf,-0x17ab(%rbp)
   14db3:	66 c7 85 56 e8 ff ff 	movw   $0xaff,-0x17aa(%rbp)
   14dba:	ff 0a 
   14dbc:	c6 85 58 e8 ff ff 01 	movb   $0x1,-0x17a8(%rbp)
   14dc3:	66 c7 85 59 e8 ff ff 	movw   $0xf8ff,-0x17a7(%rbp)
   14dca:	ff f8 
   14dcc:	c6 85 5b e8 ff ff 56 	movb   $0x56,-0x17a5(%rbp)
   14dd3:	66 c7 85 5c e8 ff ff 	movw   $0xacf6,-0x17a4(%rbp)
   14dda:	f6 ac 
   14ddc:	c6 85 5e e8 ff ff 9e 	movb   $0x9e,-0x17a2(%rbp)
   14de3:	66 c7 85 5f e8 ff ff 	movw   $0xfe00,-0x17a1(%rbp)
   14dea:	00 fe 
   14dec:	c6 85 61 e8 ff ff f6 	movb   $0xf6,-0x179f(%rbp)
   14df3:	66 c7 85 62 e8 ff ff 	movw   $0x5fc,-0x179e(%rbp)
   14dfa:	fc 05 
   14dfc:	c6 85 64 e8 ff ff 2d 	movb   $0x2d,-0x179c(%rbp)
   14e03:	66 c7 85 65 e8 ff ff 	movw   $0x105,-0x179b(%rbp)
   14e0a:	05 01 
   14e0c:	c6 85 67 e8 ff ff 73 	movb   $0x73,-0x1799(%rbp)
   14e13:	66 c7 85 6a de ff ff 	movw   $0x0,-0x2196(%rbp)
   14e1a:	00 00 
   14e1c:	48 8d 85 a0 ee ff ff 	lea    -0x1160(%rbp),%rax
   14e23:	48 83 c0 08          	add    $0x8,%rax
   14e27:	48 89 85 68 e1 ff ff 	mov    %rax,-0x1e98(%rbp)
   14e2e:	48 8d 85 50 e0 ff ff 	lea    -0x1fb0(%rbp),%rax
   14e35:	48 89 85 70 e1 ff ff 	mov    %rax,-0x1e90(%rbp)
   14e3c:	48 8d 05 15 26 01 00 	lea    0x12615(%rip),%rax        # 27458 <g_207>
   14e43:	48 89 85 78 e1 ff ff 	mov    %rax,-0x1e88(%rbp)
   14e4a:	48 c7 85 80 e1 ff ff 	movq   $0x0,-0x1e80(%rbp)
   14e51:	00 00 00 00 
   14e55:	48 c7 85 a0 e0 ff ff 	movq   $0xfffffffffffffff9,-0x1f60(%rbp)
   14e5c:	f9 ff ff ff 
   14e60:	48 8d 05 81 2a 01 00 	lea    0x12a81(%rip),%rax        # 278e8 <g_845>
   14e67:	48 89 85 a8 e0 ff ff 	mov    %rax,-0x1f58(%rbp)
   14e6e:	48 8d 05 23 2a 01 00 	lea    0x12a23(%rip),%rax        # 27898 <g_416+0x1d8>
   14e75:	48 89 85 b0 e0 ff ff 	mov    %rax,-0x1f50(%rbp)
   14e7c:	48 8d 85 b0 e0 ff ff 	lea    -0x1f50(%rbp),%rax
   14e83:	48 89 85 88 e1 ff ff 	mov    %rax,-0x1e78(%rbp)
   14e8a:	48 c7 85 d0 e4 ff ff 	movq   $0x1,-0x1b30(%rbp)
   14e91:	01 00 00 00 
   14e95:	48 c7 85 d8 e4 ff ff 	movq   $0x1,-0x1b28(%rbp)
   14e9c:	01 00 00 00 
   14ea0:	48 c7 85 e0 e4 ff ff 	movq   $0x1,-0x1b20(%rbp)
   14ea7:	01 00 00 00 
   14eab:	48 c7 85 e8 e4 ff ff 	movq   $0x1,-0x1b18(%rbp)
   14eb2:	01 00 00 00 
   14eb6:	48 c7 85 f0 e4 ff ff 	movq   $0x1,-0x1b10(%rbp)
   14ebd:	01 00 00 00 
   14ec1:	48 c7 85 f8 e4 ff ff 	movq   $0x1,-0x1b08(%rbp)
   14ec8:	01 00 00 00 
   14ecc:	48 c7 85 00 e5 ff ff 	movq   $0x1,-0x1b00(%rbp)
   14ed3:	01 00 00 00 
   14ed7:	48 c7 85 08 e5 ff ff 	movq   $0x1,-0x1af8(%rbp)
   14ede:	01 00 00 00 
   14ee2:	48 c7 85 10 e5 ff ff 	movq   $0x1,-0x1af0(%rbp)
   14ee9:	01 00 00 00 
   14eed:	48 c7 85 18 e5 ff ff 	movq   $0x1,-0x1ae8(%rbp)
   14ef4:	01 00 00 00 
   14ef8:	c6 85 59 de ff ff ff 	movb   $0xff,-0x21a7(%rbp)
   14eff:	48 8d 05 22 25 01 00 	lea    0x12522(%rip),%rax        # 27428 <g_94>
   14f06:	48 89 85 90 e1 ff ff 	mov    %rax,-0x1e70(%rbp)
   14f0d:	c7 45 d3 d1 d1 d1 d1 	movl   $0xd1d1d1d1,-0x2d(%rbp)
   14f14:	c6 45 d7 d1          	movb   $0xd1,-0x29(%rbp)
   14f18:	48 8d 85 80 de ff ff 	lea    -0x2180(%rbp),%rax
   14f1f:	48 89 85 b8 e0 ff ff 	mov    %rax,-0x1f48(%rbp)
   14f26:	48 b8 fe 79 fe fe 79 	movabs $0x79fefe79fefe79fe,%rax
   14f2d:	fe fe 79 
   14f30:	48 89 85 80 e4 ff ff 	mov    %rax,-0x1b80(%rbp)
   14f37:	48 b8 79 fe fe 79 fe 	movabs $0x179fefe79fefe79,%rax
   14f3e:	fe 79 01 
   14f41:	48 89 85 88 e4 ff ff 	mov    %rax,-0x1b78(%rbp)
   14f48:	48 b8 fe fe 79 fe fe 	movabs $0xfefe79fefe79fefe,%rax
   14f4f:	79 fe fe 
   14f52:	48 89 85 90 e4 ff ff 	mov    %rax,-0x1b70(%rbp)
   14f59:	48 bb 01 fe 01 01 fe 	movabs $0xfe0101fe0101fe01,%rbx
   14f60:	01 01 fe 
   14f63:	48 89 9d 98 e4 ff ff 	mov    %rbx,-0x1b68(%rbp)
   14f6a:	48 b9 fe 01 01 fe 01 	movabs $0x1fe0101fe0101fe,%rcx
   14f71:	01 fe 01 
   14f74:	48 89 8d a0 e4 ff ff 	mov    %rcx,-0x1b60(%rbp)
   14f7b:	48 89 85 a8 e4 ff ff 	mov    %rax,-0x1b58(%rbp)
   14f82:	48 89 9d b0 e4 ff ff 	mov    %rbx,-0x1b50(%rbp)
   14f89:	48 89 8d b8 e4 ff ff 	mov    %rcx,-0x1b48(%rbp)
   14f90:	48 89 85 c0 e4 ff ff 	mov    %rax,-0x1b40(%rbp)
   14f97:	c7 85 a8 de ff ff 00 	movl   $0x0,-0x2158(%rbp)
   14f9e:	00 00 00 
   14fa1:	eb 1e                	jmp    14fc1 <func_53+0x10c3>
   14fa3:	8b 85 a8 de ff ff    	mov    -0x2158(%rbp),%eax
   14fa9:	48 98                	cltq   
   14fab:	48 8d 95 a8 e0 ff ff 	lea    -0x1f58(%rbp),%rdx
   14fb2:	48 89 94 c5 50 e3 ff 	mov    %rdx,-0x1cb0(%rbp,%rax,8)
   14fb9:	ff 
   14fba:	83 85 a8 de ff ff 01 	addl   $0x1,-0x2158(%rbp)
   14fc1:	83 bd a8 de ff ff 03 	cmpl   $0x3,-0x2158(%rbp)
   14fc8:	7e d9                	jle    14fa3 <func_53+0x10a5>
   14fca:	c7 85 a8 de ff ff 00 	movl   $0x0,-0x2158(%rbp)
   14fd1:	00 00 00 
   14fd4:	eb 4d                	jmp    15023 <func_53+0x1125>
   14fd6:	c7 85 ac de ff ff 00 	movl   $0x0,-0x2154(%rbp)
   14fdd:	00 00 00 
   14fe0:	eb 31                	jmp    15013 <func_53+0x1115>
   14fe2:	8b 85 ac de ff ff    	mov    -0x2154(%rbp),%eax
   14fe8:	48 63 c8             	movslq %eax,%rcx
   14feb:	8b 85 a8 de ff ff    	mov    -0x2158(%rbp),%eax
   14ff1:	48 63 d0             	movslq %eax,%rdx
   14ff4:	48 89 d0             	mov    %rdx,%rax
   14ff7:	48 c1 e0 03          	shl    $0x3,%rax
   14ffb:	48 29 d0             	sub    %rdx,%rax
   14ffe:	48 01 c8             	add    %rcx,%rax
   15001:	c7 84 85 10 e3 ff ff 	movl   $0x14511b3e,-0x1cf0(%rbp,%rax,4)
   15008:	3e 1b 51 14 
   1500c:	83 85 ac de ff ff 01 	addl   $0x1,-0x2154(%rbp)
   15013:	83 bd ac de ff ff 06 	cmpl   $0x6,-0x2154(%rbp)
   1501a:	7e c6                	jle    14fe2 <func_53+0x10e4>
   1501c:	83 85 a8 de ff ff 01 	addl   $0x1,-0x2158(%rbp)
   15023:	83 bd a8 de ff ff 00 	cmpl   $0x0,-0x2158(%rbp)
   1502a:	7e aa                	jle    14fd6 <func_53+0x10d8>
   1502c:	c7 85 a8 de ff ff 00 	movl   $0x0,-0x2158(%rbp)
   15033:	00 00 00 
   15036:	eb 1a                	jmp    15052 <func_53+0x1154>
   15038:	8b 85 a8 de ff ff    	mov    -0x2158(%rbp),%eax
   1503e:	48 98                	cltq   
   15040:	c7 84 85 e0 e2 ff ff 	movl   $0xb58bf23d,-0x1d20(%rbp,%rax,4)
   15047:	3d f2 8b b5 
   1504b:	83 85 a8 de ff ff 01 	addl   $0x1,-0x2158(%rbp)
   15052:	83 bd a8 de ff ff 01 	cmpl   $0x1,-0x2158(%rbp)
   15059:	7e dd                	jle    15038 <func_53+0x113a>
   1505b:	c7 85 94 de ff ff f2 	movl   $0xfffffff2,-0x216c(%rbp)
   15062:	ff ff ff 
   15065:	e9 f3 1b 00 00       	jmpq   16c5d <func_53+0x2d5f>
   1506a:	c7 85 8c de ff ff 01 	movl   $0x1,-0x2174(%rbp)
   15071:	00 00 00 
   15074:	48 c7 85 48 e2 ff ff 	movq   $0x0,-0x1db8(%rbp)
   1507b:	00 00 00 00 
   1507f:	48 8d 85 20 ea ff ff 	lea    -0x15e0(%rbp),%rax
   15086:	48 05 b8 01 00 00    	add    $0x1b8,%rax
   1508c:	48 89 85 50 e2 ff ff 	mov    %rax,-0x1db0(%rbp)
   15093:	c7 85 80 e5 ff ff 01 	movl   $0x46b77b01,-0x1a80(%rbp)
   1509a:	7b b7 46 
   1509d:	66 c7 85 84 e5 ff ff 	movw   $0xb746,-0x1a7c(%rbp)
   150a4:	46 b7 
   150a6:	c7 85 86 e5 ff ff 01 	movl   $0x2460101,-0x1a7a(%rbp)
   150ad:	01 46 02 
   150b0:	66 c7 85 8a e5 ff ff 	movw   $0x200,-0x1a76(%rbp)
   150b7:	00 02 
   150b9:	c7 85 8c e5 ff ff 7b 	movl   $0xb77b017b,-0x1a74(%rbp)
   150c0:	01 7b b7 
   150c3:	66 c7 85 90 e5 ff ff 	movw   $0x4646,-0x1a70(%rbp)
   150ca:	46 46 
   150cc:	c7 85 92 e5 ff ff ba 	movl   $0xba7b7bba,-0x1a6e(%rbp)
   150d3:	7b 7b ba 
   150d6:	66 c7 85 96 e5 ff ff 	movw   $0x201,-0x1a6a(%rbp)
   150dd:	01 02 
   150df:	c7 85 98 e5 ff ff 02 	movl   $0xba46ba02,-0x1a68(%rbp)
   150e6:	ba 46 ba 
   150e9:	66 c7 85 9c e5 ff ff 	movw   $0xb702,-0x1a64(%rbp)
   150f0:	02 b7 
   150f2:	c7 85 9e e5 ff ff ba 	movl   $0xb7b702ba,-0x1a62(%rbp)
   150f9:	02 b7 b7 
   150fc:	66 c7 85 a2 e5 ff ff 	movw   $0xba02,-0x1a5e(%rbp)
   15103:	02 ba 
   15105:	c7 85 a4 e5 ff ff 7b 	movl   $0x201ba7b,-0x1a5c(%rbp)
   1510c:	ba 01 02 
   1510f:	66 c7 85 a8 e5 ff ff 	movw   $0xba01,-0x1a58(%rbp)
   15116:	01 ba 
   15118:	c7 85 aa e5 ff ff 01 	movl   $0x46b77b01,-0x1a56(%rbp)
   1511f:	7b b7 46 
   15122:	66 c7 85 ae e5 ff ff 	movw   $0xb746,-0x1a52(%rbp)
   15129:	46 b7 
   1512b:	c7 85 b0 e5 ff ff 01 	movl   $0x2460101,-0x1a50(%rbp)
   15132:	01 46 02 
   15135:	66 c7 85 b4 e5 ff ff 	movw   $0x200,-0x1a4c(%rbp)
   1513c:	00 02 
   1513e:	c7 85 b6 e5 ff ff 7b 	movl   $0xb77b017b,-0x1a4a(%rbp)
   15145:	01 7b b7 
   15148:	66 c7 85 ba e5 ff ff 	movw   $0x4646,-0x1a46(%rbp)
   1514f:	46 46 
   15151:	c7 85 bc e5 ff ff ba 	movl   $0xba7b7bba,-0x1a44(%rbp)
   15158:	7b 7b ba 
   1515b:	66 c7 85 c0 e5 ff ff 	movw   $0x201,-0x1a40(%rbp)
   15162:	01 02 
   15164:	c7 85 c2 e5 ff ff 02 	movl   $0xba46ba02,-0x1a3e(%rbp)
   1516b:	ba 46 ba 
   1516e:	66 c7 85 c6 e5 ff ff 	movw   $0xb702,-0x1a3a(%rbp)
   15175:	02 b7 
   15177:	c7 85 c8 e5 ff ff ba 	movl   $0xb7b702ba,-0x1a38(%rbp)
   1517e:	02 b7 b7 
   15181:	66 c7 85 cc e5 ff ff 	movw   $0xba02,-0x1a34(%rbp)
   15188:	02 ba 
   1518a:	c7 85 ce e5 ff ff 7b 	movl   $0x201ba7b,-0x1a32(%rbp)
   15191:	ba 01 02 
   15194:	66 c7 85 d2 e5 ff ff 	movw   $0xba01,-0x1a2e(%rbp)
   1519b:	01 ba 
   1519d:	c7 85 d4 e5 ff ff 01 	movl   $0x46b77b01,-0x1a2c(%rbp)
   151a4:	7b b7 46 
   151a7:	66 c7 85 d8 e5 ff ff 	movw   $0xb746,-0x1a28(%rbp)
   151ae:	46 b7 
   151b0:	c7 85 da e5 ff ff 01 	movl   $0x2460101,-0x1a26(%rbp)
   151b7:	01 46 02 
   151ba:	66 c7 85 de e5 ff ff 	movw   $0x200,-0x1a22(%rbp)
   151c1:	00 02 
   151c3:	c7 85 e0 e5 ff ff 7b 	movl   $0xb77b017b,-0x1a20(%rbp)
   151ca:	01 7b b7 
   151cd:	66 c7 85 e4 e5 ff ff 	movw   $0x4646,-0x1a1c(%rbp)
   151d4:	46 46 
   151d6:	c7 85 e6 e5 ff ff ba 	movl   $0xba7b7bba,-0x1a1a(%rbp)
   151dd:	7b 7b ba 
   151e0:	66 c7 85 ea e5 ff ff 	movw   $0x201,-0x1a16(%rbp)
   151e7:	01 02 
   151e9:	c7 85 ec e5 ff ff 02 	movl   $0xba46ba02,-0x1a14(%rbp)
   151f0:	ba 46 ba 
   151f3:	66 c7 85 f0 e5 ff ff 	movw   $0xb702,-0x1a10(%rbp)
   151fa:	02 b7 
   151fc:	c7 85 f2 e5 ff ff ba 	movl   $0xb7b702ba,-0x1a0e(%rbp)
   15203:	02 b7 b7 
   15206:	66 c7 85 f6 e5 ff ff 	movw   $0xba02,-0x1a0a(%rbp)
   1520d:	02 ba 
   1520f:	c6 85 5c de ff ff 21 	movb   $0x21,-0x21a4(%rbp)
   15216:	c7 85 b0 de ff ff 00 	movl   $0x0,-0x2150(%rbp)
   1521d:	00 00 00 
   15220:	eb 1e                	jmp    15240 <func_53+0x1342>
   15222:	8b 85 b0 de ff ff    	mov    -0x2150(%rbp),%eax
   15228:	48 98                	cltq   
   1522a:	48 8d 95 48 e0 ff ff 	lea    -0x1fb8(%rbp),%rdx
   15231:	48 89 94 c5 f0 e3 ff 	mov    %rdx,-0x1c10(%rbp,%rax,8)
   15238:	ff 
   15239:	83 85 b0 de ff ff 01 	addl   $0x1,-0x2150(%rbp)
   15240:	83 bd b0 de ff ff 07 	cmpl   $0x7,-0x2150(%rbp)
   15247:	7e d9                	jle    15222 <func_53+0x1324>
   15249:	8b 85 34 de ff ff    	mov    -0x21cc(%rbp),%eax
   1524f:	44 0f b7 e8          	movzwl %ax,%r13d
   15253:	8b 85 34 de ff ff    	mov    -0x21cc(%rbp),%eax
   15259:	44 0f be e0          	movsbl %al,%r12d
   1525d:	8b 85 34 de ff ff    	mov    -0x21cc(%rbp),%eax
   15263:	0f b6 d8             	movzbl %al,%ebx
   15266:	8b 85 08 df ff ff    	mov    -0x20f8(%rbp),%eax
   1526c:	44 0f b6 f0          	movzbl %al,%r14d
   15270:	8b 85 8c de ff ff    	mov    -0x2174(%rbp),%eax
   15276:	85 c0                	test   %eax,%eax
   15278:	0f 85 91 00 00 00    	jne    1530f <func_53+0x1411>
   1527e:	48 8b 85 48 e0 ff ff 	mov    -0x1fb8(%rbp),%rax
   15285:	8b 00                	mov    (%rax),%eax
   15287:	0f be c0             	movsbl %al,%eax
   1528a:	89 c6                	mov    %eax,%esi
   1528c:	bf 02 00 00 00       	mov    $0x2,%edi
   15291:	e8 5c 5f ff ff       	callq  b1f2 <safe_sub_func_int8_t_s_s>
   15296:	0f be d0             	movsbl %al,%edx
   15299:	8b 85 8c de ff ff    	mov    -0x2174(%rbp),%eax
   1529f:	85 c0                	test   %eax,%eax
   152a1:	0f 95 c0             	setne  %al
   152a4:	89 c6                	mov    %eax,%esi
   152a6:	48 8b 85 40 e0 ff ff 	mov    -0x1fc0(%rbp),%rax
   152ad:	0f b6 08             	movzbl (%rax),%ecx
   152b0:	48 8b 85 40 e0 ff ff 	mov    -0x1fc0(%rbp),%rax
   152b7:	83 f1 0a             	xor    $0xa,%ecx
   152ba:	88 08                	mov    %cl,(%rax)
   152bc:	0f b6 00             	movzbl (%rax),%eax
   152bf:	09 f0                	or     %esi,%eax
   152c1:	0f be c0             	movsbl %al,%eax
   152c4:	89 d6                	mov    %edx,%esi
   152c6:	89 c7                	mov    %eax,%edi
   152c8:	e8 45 5f ff ff       	callq  b212 <safe_mul_func_int8_t_s_s>
   152cd:	0f be c0             	movsbl %al,%eax
   152d0:	be 0a 00 00 00       	mov    $0xa,%esi
   152d5:	89 c7                	mov    %eax,%edi
   152d7:	e8 05 62 ff ff       	callq  b4e1 <safe_lshift_func_int16_t_s_u>
   152dc:	48 8b 85 48 e2 ff ff 	mov    -0x1db8(%rbp),%rax
   152e3:	48 89 85 d8 e0 ff ff 	mov    %rax,-0x1f28(%rbp)
   152ea:	48 8b 05 f7 25 01 00 	mov    0x125f7(%rip),%rax        # 278e8 <g_845>
   152f1:	48 8b 00             	mov    (%rax),%rax
   152f4:	48 39 85 d8 e0 ff ff 	cmp    %rax,-0x1f28(%rbp)
   152fb:	0f 94 c2             	sete   %dl
   152fe:	48 8b 05 bb 25 01 00 	mov    0x125bb(%rip),%rax        # 278c0 <g_463>
   15305:	48 8b 00             	mov    (%rax),%rax
   15308:	88 10                	mov    %dl,(%rax)
   1530a:	0f b6 00             	movzbl (%rax),%eax
   1530d:	84 c0                	test   %al,%al
   1530f:	b8 01 00 00 00       	mov    $0x1,%eax
   15314:	0f b6 c0             	movzbl %al,%eax
   15317:	44 89 f6             	mov    %r14d,%esi
   1531a:	89 c7                	mov    %eax,%edi
   1531c:	e8 72 68 ff ff       	callq  bb93 <safe_mul_func_uint8_t_u_u>
   15321:	0f b6 c0             	movzbl %al,%eax
   15324:	39 85 34 de ff ff    	cmp    %eax,-0x21cc(%rbp)
   1532a:	0f 92 c2             	setb   %dl
   1532d:	48 8b 05 ac 25 01 00 	mov    0x125ac(%rip),%rax        # 278e0 <g_846>
   15334:	0f b6 d2             	movzbl %dl,%edx
   15337:	48 89 10             	mov    %rdx,(%rax)
   1533a:	48 8b 00             	mov    (%rax),%rax
   1533d:	44 89 e9             	mov    %r13d,%ecx
   15340:	44 89 e2             	mov    %r12d,%edx
   15343:	89 de                	mov    %ebx,%esi
   15345:	48 89 c7             	mov    %rax,%rdi
   15348:	e8 d1 4c 00 00       	callq  1a01e <func_64>
   1534d:	48 89 85 e0 e0 ff ff 	mov    %rax,-0x1f20(%rbp)
   15354:	c6 05 47 dd 00 00 02 	movb   $0x2,0xdd47(%rip)        # 230a2 <g_111>
   1535b:	e9 35 18 00 00       	jmpq   16b95 <func_53+0x2c97>
   15360:	48 c7 85 c0 e0 ff ff 	movq   $0x1,-0x1f40(%rbp)
   15367:	01 00 00 00 
   1536b:	c7 85 cc df ff ff d4 	movl   $0x54799bd4,-0x2034(%rbp)
   15372:	9b 79 54 
   15375:	c7 85 d0 df ff ff 98 	movl   $0x4ad6fc98,-0x2030(%rbp)
   1537c:	fc d6 4a 
   1537f:	c7 85 d4 df ff ff 4f 	movl   $0xe67bf24f,-0x202c(%rbp)
   15386:	f2 7b e6 
   15389:	48 8d 85 53 de ff ff 	lea    -0x21ad(%rbp),%rax
   15390:	48 89 85 58 e2 ff ff 	mov    %rax,-0x1da8(%rbp)
   15397:	48 8d 05 02 dd 00 00 	lea    0xdd02(%rip),%rax        # 230a0 <g_104>
   1539e:	48 89 85 00 f9 ff ff 	mov    %rax,-0x700(%rbp)
   153a5:	48 8d 05 44 e1 00 00 	lea    0xe144(%rip),%rax        # 234f0 <g_610>
   153ac:	48 89 85 08 f9 ff ff 	mov    %rax,-0x6f8(%rbp)
   153b3:	48 8d 05 16 30 01 00 	lea    0x13016(%rip),%rax        # 283d0 <g_229>
   153ba:	48 89 85 10 f9 ff ff 	mov    %rax,-0x6f0(%rbp)
   153c1:	48 8d 05 28 e1 00 00 	lea    0xe128(%rip),%rax        # 234f0 <g_610>
   153c8:	48 89 85 18 f9 ff ff 	mov    %rax,-0x6e8(%rbp)
   153cf:	48 8d 05 ca dc 00 00 	lea    0xdcca(%rip),%rax        # 230a0 <g_104>
   153d6:	48 89 85 20 f9 ff ff 	mov    %rax,-0x6e0(%rbp)
   153dd:	48 c7 85 28 f9 ff ff 	movq   $0x0,-0x6d8(%rbp)
   153e4:	00 00 00 00 
   153e8:	48 8d 05 01 e1 00 00 	lea    0xe101(%rip),%rax        # 234f0 <g_610>
   153ef:	48 89 85 30 f9 ff ff 	mov    %rax,-0x6d0(%rbp)
   153f6:	48 8d 05 f3 e0 00 00 	lea    0xe0f3(%rip),%rax        # 234f0 <g_610>
   153fd:	48 89 85 38 f9 ff ff 	mov    %rax,-0x6c8(%rbp)
   15404:	48 8d 85 5e de ff ff 	lea    -0x21a2(%rbp),%rax
   1540b:	48 89 85 40 f9 ff ff 	mov    %rax,-0x6c0(%rbp)
   15412:	48 8d 05 b7 2f 01 00 	lea    0x12fb7(%rip),%rax        # 283d0 <g_229>
   15419:	48 89 85 48 f9 ff ff 	mov    %rax,-0x6b8(%rbp)
   15420:	48 8d 85 5e de ff ff 	lea    -0x21a2(%rbp),%rax
   15427:	48 89 85 50 f9 ff ff 	mov    %rax,-0x6b0(%rbp)
   1542e:	48 8d 05 bb e0 00 00 	lea    0xe0bb(%rip),%rax        # 234f0 <g_610>
   15435:	48 89 85 58 f9 ff ff 	mov    %rax,-0x6a8(%rbp)
   1543c:	48 c7 85 60 f9 ff ff 	movq   $0x0,-0x6a0(%rbp)
   15443:	00 00 00 00 
   15447:	48 8d 05 82 2f 01 00 	lea    0x12f82(%rip),%rax        # 283d0 <g_229>
   1544e:	48 89 85 68 f9 ff ff 	mov    %rax,-0x698(%rbp)
   15455:	48 c7 85 70 f9 ff ff 	movq   $0x0,-0x690(%rbp)
   1545c:	00 00 00 00 
   15460:	48 c7 85 78 f9 ff ff 	movq   $0x0,-0x688(%rbp)
   15467:	00 00 00 00 
   1546b:	48 c7 85 80 f9 ff ff 	movq   $0x0,-0x680(%rbp)
   15472:	00 00 00 00 
   15476:	48 c7 85 88 f9 ff ff 	movq   $0x0,-0x678(%rbp)
   1547d:	00 00 00 00 
   15481:	48 8d 05 18 dc 00 00 	lea    0xdc18(%rip),%rax        # 230a0 <g_104>
   15488:	48 89 85 90 f9 ff ff 	mov    %rax,-0x670(%rbp)
   1548f:	48 c7 85 98 f9 ff ff 	movq   $0x0,-0x668(%rbp)
   15496:	00 00 00 00 
   1549a:	48 8d 05 4f e0 00 00 	lea    0xe04f(%rip),%rax        # 234f0 <g_610>
   154a1:	48 89 85 a0 f9 ff ff 	mov    %rax,-0x660(%rbp)
   154a8:	48 8d 05 f1 db 00 00 	lea    0xdbf1(%rip),%rax        # 230a0 <g_104>
   154af:	48 89 85 a8 f9 ff ff 	mov    %rax,-0x658(%rbp)
   154b6:	48 c7 85 b0 f9 ff ff 	movq   $0x0,-0x650(%rbp)
   154bd:	00 00 00 00 
   154c1:	48 8d 85 5e de ff ff 	lea    -0x21a2(%rbp),%rax
   154c8:	48 89 85 b8 f9 ff ff 	mov    %rax,-0x648(%rbp)
   154cf:	48 8d 05 1a e0 00 00 	lea    0xe01a(%rip),%rax        # 234f0 <g_610>
   154d6:	48 89 85 c0 f9 ff ff 	mov    %rax,-0x640(%rbp)
   154dd:	48 8d 85 5e de ff ff 	lea    -0x21a2(%rbp),%rax
   154e4:	48 89 85 c8 f9 ff ff 	mov    %rax,-0x638(%rbp)
   154eb:	48 c7 85 d0 f9 ff ff 	movq   $0x0,-0x630(%rbp)
   154f2:	00 00 00 00 
   154f6:	48 c7 85 d8 f9 ff ff 	movq   $0x0,-0x628(%rbp)
   154fd:	00 00 00 00 
   15501:	48 8d 05 c8 2e 01 00 	lea    0x12ec8(%rip),%rax        # 283d0 <g_229>
   15508:	48 89 85 e0 f9 ff ff 	mov    %rax,-0x620(%rbp)
   1550f:	48 8d 85 5e de ff ff 	lea    -0x21a2(%rbp),%rax
   15516:	48 89 85 e8 f9 ff ff 	mov    %rax,-0x618(%rbp)
   1551d:	48 8d 05 ac 2e 01 00 	lea    0x12eac(%rip),%rax        # 283d0 <g_229>
   15524:	48 89 85 f0 f9 ff ff 	mov    %rax,-0x610(%rbp)
   1552b:	48 8d 05 9e 2e 01 00 	lea    0x12e9e(%rip),%rax        # 283d0 <g_229>
   15532:	48 89 85 f8 f9 ff ff 	mov    %rax,-0x608(%rbp)
   15539:	48 c7 85 00 fa ff ff 	movq   $0x0,-0x600(%rbp)
   15540:	00 00 00 00 
   15544:	48 8d 05 a5 df 00 00 	lea    0xdfa5(%rip),%rax        # 234f0 <g_610>
   1554b:	48 89 85 08 fa ff ff 	mov    %rax,-0x5f8(%rbp)
   15552:	48 8d 05 77 2e 01 00 	lea    0x12e77(%rip),%rax        # 283d0 <g_229>
   15559:	48 89 85 10 fa ff ff 	mov    %rax,-0x5f0(%rbp)
   15560:	48 8d 85 5e de ff ff 	lea    -0x21a2(%rbp),%rax
   15567:	48 89 85 18 fa ff ff 	mov    %rax,-0x5e8(%rbp)
   1556e:	48 8d 05 2b db 00 00 	lea    0xdb2b(%rip),%rax        # 230a0 <g_104>
   15575:	48 89 85 20 fa ff ff 	mov    %rax,-0x5e0(%rbp)
   1557c:	48 8d 85 5e de ff ff 	lea    -0x21a2(%rbp),%rax
   15583:	48 89 85 28 fa ff ff 	mov    %rax,-0x5d8(%rbp)
   1558a:	48 8d 05 5f df 00 00 	lea    0xdf5f(%rip),%rax        # 234f0 <g_610>
   15591:	48 89 85 30 fa ff ff 	mov    %rax,-0x5d0(%rbp)
   15598:	48 8d 05 01 db 00 00 	lea    0xdb01(%rip),%rax        # 230a0 <g_104>
   1559f:	48 89 85 38 fa ff ff 	mov    %rax,-0x5c8(%rbp)
   155a6:	48 c7 85 40 fa ff ff 	movq   $0x0,-0x5c0(%rbp)
   155ad:	00 00 00 00 
   155b1:	48 c7 85 48 fa ff ff 	movq   $0x0,-0x5b8(%rbp)
   155b8:	00 00 00 00 
   155bc:	48 8d 05 dd da 00 00 	lea    0xdadd(%rip),%rax        # 230a0 <g_104>
   155c3:	48 89 85 50 fa ff ff 	mov    %rax,-0x5b0(%rbp)
   155ca:	48 c7 85 58 fa ff ff 	movq   $0x0,-0x5a8(%rbp)
   155d1:	00 00 00 00 
   155d5:	48 8d 05 c4 da 00 00 	lea    0xdac4(%rip),%rax        # 230a0 <g_104>
   155dc:	48 89 85 60 fa ff ff 	mov    %rax,-0x5a0(%rbp)
   155e3:	48 8d 85 5e de ff ff 	lea    -0x21a2(%rbp),%rax
   155ea:	48 89 85 68 fa ff ff 	mov    %rax,-0x598(%rbp)
   155f1:	48 8d 05 a8 da 00 00 	lea    0xdaa8(%rip),%rax        # 230a0 <g_104>
   155f8:	48 89 85 70 fa ff ff 	mov    %rax,-0x590(%rbp)
   155ff:	48 8d 85 5e de ff ff 	lea    -0x21a2(%rbp),%rax
   15606:	48 89 85 78 fa ff ff 	mov    %rax,-0x588(%rbp)
   1560d:	48 8d 05 dc de 00 00 	lea    0xdedc(%rip),%rax        # 234f0 <g_610>
   15614:	48 89 85 80 fa ff ff 	mov    %rax,-0x580(%rbp)
   1561b:	48 8d 85 5e de ff ff 	lea    -0x21a2(%rbp),%rax
   15622:	48 89 85 88 fa ff ff 	mov    %rax,-0x578(%rbp)
   15629:	48 8d 05 c0 de 00 00 	lea    0xdec0(%rip),%rax        # 234f0 <g_610>
   15630:	48 89 85 90 fa ff ff 	mov    %rax,-0x570(%rbp)
   15637:	48 8d 05 b2 de 00 00 	lea    0xdeb2(%rip),%rax        # 234f0 <g_610>
   1563e:	48 89 85 98 fa ff ff 	mov    %rax,-0x568(%rbp)
   15645:	48 8d 05 84 2d 01 00 	lea    0x12d84(%rip),%rax        # 283d0 <g_229>
   1564c:	48 89 85 a0 fa ff ff 	mov    %rax,-0x560(%rbp)
   15653:	48 8d 05 46 da 00 00 	lea    0xda46(%rip),%rax        # 230a0 <g_104>
   1565a:	48 89 85 a8 fa ff ff 	mov    %rax,-0x558(%rbp)
   15661:	48 8d 85 5e de ff ff 	lea    -0x21a2(%rbp),%rax
   15668:	48 89 85 b0 fa ff ff 	mov    %rax,-0x550(%rbp)
   1566f:	48 8d 05 5a 2d 01 00 	lea    0x12d5a(%rip),%rax        # 283d0 <g_229>
   15676:	48 89 85 b8 fa ff ff 	mov    %rax,-0x548(%rbp)
   1567d:	48 8d 05 1c da 00 00 	lea    0xda1c(%rip),%rax        # 230a0 <g_104>
   15684:	48 89 85 c0 fa ff ff 	mov    %rax,-0x540(%rbp)
   1568b:	48 c7 85 c8 fa ff ff 	movq   $0x0,-0x538(%rbp)
   15692:	00 00 00 00 
   15696:	48 c7 85 d0 fa ff ff 	movq   $0x0,-0x530(%rbp)
   1569d:	00 00 00 00 
   156a1:	48 8d 05 f8 d9 00 00 	lea    0xd9f8(%rip),%rax        # 230a0 <g_104>
   156a8:	48 89 85 d8 fa ff ff 	mov    %rax,-0x528(%rbp)
   156af:	48 c7 85 e0 fa ff ff 	movq   $0x0,-0x520(%rbp)
   156b6:	00 00 00 00 
   156ba:	48 8d 05 0f 2d 01 00 	lea    0x12d0f(%rip),%rax        # 283d0 <g_229>
   156c1:	48 89 85 e8 fa ff ff 	mov    %rax,-0x518(%rbp)
   156c8:	48 c7 85 f0 fa ff ff 	movq   $0x0,-0x510(%rbp)
   156cf:	00 00 00 00 
   156d3:	48 8d 05 c6 d9 00 00 	lea    0xd9c6(%rip),%rax        # 230a0 <g_104>
   156da:	48 89 85 f8 fa ff ff 	mov    %rax,-0x508(%rbp)
   156e1:	48 8d 05 b8 d9 00 00 	lea    0xd9b8(%rip),%rax        # 230a0 <g_104>
   156e8:	48 89 85 00 fb ff ff 	mov    %rax,-0x500(%rbp)
   156ef:	48 8d 05 da 2c 01 00 	lea    0x12cda(%rip),%rax        # 283d0 <g_229>
   156f6:	48 89 85 08 fb ff ff 	mov    %rax,-0x4f8(%rbp)
   156fd:	48 8d 85 5e de ff ff 	lea    -0x21a2(%rbp),%rax
   15704:	48 89 85 10 fb ff ff 	mov    %rax,-0x4f0(%rbp)
   1570b:	48 8d 05 be 2c 01 00 	lea    0x12cbe(%rip),%rax        # 283d0 <g_229>
   15712:	48 89 85 18 fb ff ff 	mov    %rax,-0x4e8(%rbp)
   15719:	48 8d 05 b0 2c 01 00 	lea    0x12cb0(%rip),%rax        # 283d0 <g_229>
   15720:	48 89 85 20 fb ff ff 	mov    %rax,-0x4e0(%rbp)
   15727:	48 8d 05 a2 2c 01 00 	lea    0x12ca2(%rip),%rax        # 283d0 <g_229>
   1572e:	48 89 85 28 fb ff ff 	mov    %rax,-0x4d8(%rbp)
   15735:	48 8d 05 b4 dd 00 00 	lea    0xddb4(%rip),%rax        # 234f0 <g_610>
   1573c:	48 89 85 30 fb ff ff 	mov    %rax,-0x4d0(%rbp)
   15743:	48 8d 05 86 2c 01 00 	lea    0x12c86(%rip),%rax        # 283d0 <g_229>
   1574a:	48 89 85 38 fb ff ff 	mov    %rax,-0x4c8(%rbp)
   15751:	48 8d 05 98 dd 00 00 	lea    0xdd98(%rip),%rax        # 234f0 <g_610>
   15758:	48 89 85 40 fb ff ff 	mov    %rax,-0x4c0(%rbp)
   1575f:	48 8d 05 6a 2c 01 00 	lea    0x12c6a(%rip),%rax        # 283d0 <g_229>
   15766:	48 89 85 48 fb ff ff 	mov    %rax,-0x4b8(%rbp)
   1576d:	48 8d 05 2c d9 00 00 	lea    0xd92c(%rip),%rax        # 230a0 <g_104>
   15774:	48 89 85 50 fb ff ff 	mov    %rax,-0x4b0(%rbp)
   1577b:	48 c7 85 58 fb ff ff 	movq   $0x0,-0x4a8(%rbp)
   15782:	00 00 00 00 
   15786:	48 8d 05 13 d9 00 00 	lea    0xd913(%rip),%rax        # 230a0 <g_104>
   1578d:	48 89 85 60 fb ff ff 	mov    %rax,-0x4a0(%rbp)
   15794:	48 8d 05 05 d9 00 00 	lea    0xd905(%rip),%rax        # 230a0 <g_104>
   1579b:	48 89 85 68 fb ff ff 	mov    %rax,-0x498(%rbp)
   157a2:	48 8d 05 f7 d8 00 00 	lea    0xd8f7(%rip),%rax        # 230a0 <g_104>
   157a9:	48 89 85 70 fb ff ff 	mov    %rax,-0x490(%rbp)
   157b0:	48 8d 05 19 2c 01 00 	lea    0x12c19(%rip),%rax        # 283d0 <g_229>
   157b7:	48 89 85 78 fb ff ff 	mov    %rax,-0x488(%rbp)
   157be:	48 c7 85 80 fb ff ff 	movq   $0x0,-0x480(%rbp)
   157c5:	00 00 00 00 
   157c9:	48 8d 85 5e de ff ff 	lea    -0x21a2(%rbp),%rax
   157d0:	48 89 85 88 fb ff ff 	mov    %rax,-0x478(%rbp)
   157d7:	48 8d 05 12 dd 00 00 	lea    0xdd12(%rip),%rax        # 234f0 <g_610>
   157de:	48 89 85 90 fb ff ff 	mov    %rax,-0x470(%rbp)
   157e5:	48 c7 85 98 fb ff ff 	movq   $0x0,-0x468(%rbp)
   157ec:	00 00 00 00 
   157f0:	48 8d 05 a9 d8 00 00 	lea    0xd8a9(%rip),%rax        # 230a0 <g_104>
   157f7:	48 89 85 a0 fb ff ff 	mov    %rax,-0x460(%rbp)
   157fe:	48 8d 85 5e de ff ff 	lea    -0x21a2(%rbp),%rax
   15805:	48 89 85 a8 fb ff ff 	mov    %rax,-0x458(%rbp)
   1580c:	48 8d 05 bd 2b 01 00 	lea    0x12bbd(%rip),%rax        # 283d0 <g_229>
   15813:	48 89 85 b0 fb ff ff 	mov    %rax,-0x450(%rbp)
   1581a:	48 8d 05 7f d8 00 00 	lea    0xd87f(%rip),%rax        # 230a0 <g_104>
   15821:	48 89 85 b8 fb ff ff 	mov    %rax,-0x448(%rbp)
   15828:	48 c7 85 c0 fb ff ff 	movq   $0x0,-0x440(%rbp)
   1582f:	00 00 00 00 
   15833:	48 8d 05 96 2b 01 00 	lea    0x12b96(%rip),%rax        # 283d0 <g_229>
   1583a:	48 89 85 c8 fb ff ff 	mov    %rax,-0x438(%rbp)
   15841:	48 8d 05 88 2b 01 00 	lea    0x12b88(%rip),%rax        # 283d0 <g_229>
   15848:	48 89 85 d0 fb ff ff 	mov    %rax,-0x430(%rbp)
   1584f:	48 c7 85 d8 fb ff ff 	movq   $0x0,-0x428(%rbp)
   15856:	00 00 00 00 
   1585a:	48 8d 05 6f 2b 01 00 	lea    0x12b6f(%rip),%rax        # 283d0 <g_229>
   15861:	48 89 85 e0 fb ff ff 	mov    %rax,-0x420(%rbp)
   15868:	48 8d 05 81 dc 00 00 	lea    0xdc81(%rip),%rax        # 234f0 <g_610>
   1586f:	48 89 85 e8 fb ff ff 	mov    %rax,-0x418(%rbp)
   15876:	48 c7 85 f0 fb ff ff 	movq   $0x0,-0x410(%rbp)
   1587d:	00 00 00 00 
   15881:	48 8d 85 5e de ff ff 	lea    -0x21a2(%rbp),%rax
   15888:	48 89 85 f8 fb ff ff 	mov    %rax,-0x408(%rbp)
   1588f:	48 8d 05 5a dc 00 00 	lea    0xdc5a(%rip),%rax        # 234f0 <g_610>
   15896:	48 89 85 00 fc ff ff 	mov    %rax,-0x400(%rbp)
   1589d:	48 8d 85 5e de ff ff 	lea    -0x21a2(%rbp),%rax
   158a4:	48 89 85 08 fc ff ff 	mov    %rax,-0x3f8(%rbp)
   158ab:	48 c7 85 10 fc ff ff 	movq   $0x0,-0x3f0(%rbp)
   158b2:	00 00 00 00 
   158b6:	48 8d 05 13 2b 01 00 	lea    0x12b13(%rip),%rax        # 283d0 <g_229>
   158bd:	48 89 85 18 fc ff ff 	mov    %rax,-0x3e8(%rbp)
   158c4:	48 8d 05 25 dc 00 00 	lea    0xdc25(%rip),%rax        # 234f0 <g_610>
   158cb:	48 89 85 20 fc ff ff 	mov    %rax,-0x3e0(%rbp)
   158d2:	48 c7 85 28 fc ff ff 	movq   $0x0,-0x3d8(%rbp)
   158d9:	00 00 00 00 
   158dd:	48 8d 05 bc d7 00 00 	lea    0xd7bc(%rip),%rax        # 230a0 <g_104>
   158e4:	48 89 85 30 fc ff ff 	mov    %rax,-0x3d0(%rbp)
   158eb:	48 8d 05 de 2a 01 00 	lea    0x12ade(%rip),%rax        # 283d0 <g_229>
   158f2:	48 89 85 38 fc ff ff 	mov    %rax,-0x3c8(%rbp)
   158f9:	48 c7 85 40 fc ff ff 	movq   $0x0,-0x3c0(%rbp)
   15900:	00 00 00 00 
   15904:	48 c7 85 48 fc ff ff 	movq   $0x0,-0x3b8(%rbp)
   1590b:	00 00 00 00 
   1590f:	48 c7 85 50 fc ff ff 	movq   $0x0,-0x3b0(%rbp)
   15916:	00 00 00 00 
   1591a:	48 8d 05 af 2a 01 00 	lea    0x12aaf(%rip),%rax        # 283d0 <g_229>
   15921:	48 89 85 58 fc ff ff 	mov    %rax,-0x3a8(%rbp)
   15928:	48 8d 05 71 d7 00 00 	lea    0xd771(%rip),%rax        # 230a0 <g_104>
   1592f:	48 89 85 60 fc ff ff 	mov    %rax,-0x3a0(%rbp)
   15936:	48 8d 05 93 2a 01 00 	lea    0x12a93(%rip),%rax        # 283d0 <g_229>
   1593d:	48 89 85 68 fc ff ff 	mov    %rax,-0x398(%rbp)
   15944:	48 8d 05 a5 db 00 00 	lea    0xdba5(%rip),%rax        # 234f0 <g_610>
   1594b:	48 89 85 70 fc ff ff 	mov    %rax,-0x390(%rbp)
   15952:	48 8d 85 5e de ff ff 	lea    -0x21a2(%rbp),%rax
   15959:	48 89 85 78 fc ff ff 	mov    %rax,-0x388(%rbp)
   15960:	48 c7 85 80 fc ff ff 	movq   $0x0,-0x380(%rbp)
   15967:	00 00 00 00 
   1596b:	48 c7 85 88 fc ff ff 	movq   $0x0,-0x378(%rbp)
   15972:	00 00 00 00 
   15976:	48 8d 05 73 db 00 00 	lea    0xdb73(%rip),%rax        # 234f0 <g_610>
   1597d:	48 89 85 90 fc ff ff 	mov    %rax,-0x370(%rbp)
   15984:	48 8d 05 45 2a 01 00 	lea    0x12a45(%rip),%rax        # 283d0 <g_229>
   1598b:	48 89 85 98 fc ff ff 	mov    %rax,-0x368(%rbp)
   15992:	48 8d 05 57 db 00 00 	lea    0xdb57(%rip),%rax        # 234f0 <g_610>
   15999:	48 89 85 a0 fc ff ff 	mov    %rax,-0x360(%rbp)
   159a0:	48 c7 85 a8 fc ff ff 	movq   $0x0,-0x358(%rbp)
   159a7:	00 00 00 00 
   159ab:	48 8d 85 5e de ff ff 	lea    -0x21a2(%rbp),%rax
   159b2:	48 89 85 b0 fc ff ff 	mov    %rax,-0x350(%rbp)
   159b9:	48 8d 05 e0 d6 00 00 	lea    0xd6e0(%rip),%rax        # 230a0 <g_104>
   159c0:	48 89 85 b8 fc ff ff 	mov    %rax,-0x348(%rbp)
   159c7:	48 8d 85 5e de ff ff 	lea    -0x21a2(%rbp),%rax
   159ce:	48 89 85 c0 fc ff ff 	mov    %rax,-0x340(%rbp)
   159d5:	48 8d 05 f4 29 01 00 	lea    0x129f4(%rip),%rax        # 283d0 <g_229>
   159dc:	48 89 85 c8 fc ff ff 	mov    %rax,-0x338(%rbp)
   159e3:	48 8d 05 b6 d6 00 00 	lea    0xd6b6(%rip),%rax        # 230a0 <g_104>
   159ea:	48 89 85 d0 fc ff ff 	mov    %rax,-0x330(%rbp)
   159f1:	48 8d 85 5e de ff ff 	lea    -0x21a2(%rbp),%rax
   159f8:	48 89 85 d8 fc ff ff 	mov    %rax,-0x328(%rbp)
   159ff:	48 8d 05 ca 29 01 00 	lea    0x129ca(%rip),%rax        # 283d0 <g_229>
   15a06:	48 89 85 e0 fc ff ff 	mov    %rax,-0x320(%rbp)
   15a0d:	48 8d 05 8c d6 00 00 	lea    0xd68c(%rip),%rax        # 230a0 <g_104>
   15a14:	48 89 85 e8 fc ff ff 	mov    %rax,-0x318(%rbp)
   15a1b:	48 8d 05 ae 29 01 00 	lea    0x129ae(%rip),%rax        # 283d0 <g_229>
   15a22:	48 89 85 f0 fc ff ff 	mov    %rax,-0x310(%rbp)
   15a29:	48 8d 05 a0 29 01 00 	lea    0x129a0(%rip),%rax        # 283d0 <g_229>
   15a30:	48 89 85 f8 fc ff ff 	mov    %rax,-0x308(%rbp)
   15a37:	48 8d 05 b2 da 00 00 	lea    0xdab2(%rip),%rax        # 234f0 <g_610>
   15a3e:	48 89 85 00 fd ff ff 	mov    %rax,-0x300(%rbp)
   15a45:	48 8d 85 5e de ff ff 	lea    -0x21a2(%rbp),%rax
   15a4c:	48 89 85 08 fd ff ff 	mov    %rax,-0x2f8(%rbp)
   15a53:	48 c7 85 10 fd ff ff 	movq   $0x0,-0x2f0(%rbp)
   15a5a:	00 00 00 00 
   15a5e:	48 8d 85 5e de ff ff 	lea    -0x21a2(%rbp),%rax
   15a65:	48 89 85 18 fd ff ff 	mov    %rax,-0x2e8(%rbp)
   15a6c:	48 8d 05 5d 29 01 00 	lea    0x1295d(%rip),%rax        # 283d0 <g_229>
   15a73:	48 89 85 20 fd ff ff 	mov    %rax,-0x2e0(%rbp)
   15a7a:	48 8d 85 5e de ff ff 	lea    -0x21a2(%rbp),%rax
   15a81:	48 89 85 28 fd ff ff 	mov    %rax,-0x2d8(%rbp)
   15a88:	48 8d 05 61 da 00 00 	lea    0xda61(%rip),%rax        # 234f0 <g_610>
   15a8f:	48 89 85 30 fd ff ff 	mov    %rax,-0x2d0(%rbp)
   15a96:	48 c7 85 38 fd ff ff 	movq   $0x0,-0x2c8(%rbp)
   15a9d:	00 00 00 00 
   15aa1:	48 c7 85 40 fd ff ff 	movq   $0x0,-0x2c0(%rbp)
   15aa8:	00 00 00 00 
   15aac:	48 c7 85 48 fd ff ff 	movq   $0x0,-0x2b8(%rbp)
   15ab3:	00 00 00 00 
   15ab7:	48 8d 05 12 29 01 00 	lea    0x12912(%rip),%rax        # 283d0 <g_229>
   15abe:	48 89 85 50 fd ff ff 	mov    %rax,-0x2b0(%rbp)
   15ac5:	48 c7 85 58 fd ff ff 	movq   $0x0,-0x2a8(%rbp)
   15acc:	00 00 00 00 
   15ad0:	48 c7 85 60 fd ff ff 	movq   $0x0,-0x2a0(%rbp)
   15ad7:	00 00 00 00 
   15adb:	48 8d 05 be d5 00 00 	lea    0xd5be(%rip),%rax        # 230a0 <g_104>
   15ae2:	48 89 85 68 fd ff ff 	mov    %rax,-0x298(%rbp)
   15ae9:	48 8d 05 b0 d5 00 00 	lea    0xd5b0(%rip),%rax        # 230a0 <g_104>
   15af0:	48 89 85 70 fd ff ff 	mov    %rax,-0x290(%rbp)
   15af7:	48 c7 85 78 fd ff ff 	movq   $0x0,-0x288(%rbp)
   15afe:	00 00 00 00 
   15b02:	48 8d 05 e7 d9 00 00 	lea    0xd9e7(%rip),%rax        # 234f0 <g_610>
   15b09:	48 89 85 80 fd ff ff 	mov    %rax,-0x280(%rbp)
   15b10:	48 8d 85 5e de ff ff 	lea    -0x21a2(%rbp),%rax
   15b17:	48 89 85 88 fd ff ff 	mov    %rax,-0x278(%rbp)
   15b1e:	48 c7 85 90 fd ff ff 	movq   $0x0,-0x270(%rbp)
   15b25:	00 00 00 00 
   15b29:	48 8d 05 c0 d9 00 00 	lea    0xd9c0(%rip),%rax        # 234f0 <g_610>
   15b30:	48 89 85 98 fd ff ff 	mov    %rax,-0x268(%rbp)
   15b37:	48 8d 05 92 28 01 00 	lea    0x12892(%rip),%rax        # 283d0 <g_229>
   15b3e:	48 89 85 a0 fd ff ff 	mov    %rax,-0x260(%rbp)
   15b45:	48 8d 85 5e de ff ff 	lea    -0x21a2(%rbp),%rax
   15b4c:	48 89 85 a8 fd ff ff 	mov    %rax,-0x258(%rbp)
   15b53:	48 8d 05 96 d9 00 00 	lea    0xd996(%rip),%rax        # 234f0 <g_610>
   15b5a:	48 89 85 b0 fd ff ff 	mov    %rax,-0x250(%rbp)
   15b61:	48 8d 05 68 28 01 00 	lea    0x12868(%rip),%rax        # 283d0 <g_229>
   15b68:	48 89 85 b8 fd ff ff 	mov    %rax,-0x248(%rbp)
   15b6f:	48 8d 05 5a 28 01 00 	lea    0x1285a(%rip),%rax        # 283d0 <g_229>
   15b76:	48 89 85 c0 fd ff ff 	mov    %rax,-0x240(%rbp)
   15b7d:	48 c7 85 c8 fd ff ff 	movq   $0x0,-0x238(%rbp)
   15b84:	00 00 00 00 
   15b88:	48 8d 05 11 d5 00 00 	lea    0xd511(%rip),%rax        # 230a0 <g_104>
   15b8f:	48 89 85 d0 fd ff ff 	mov    %rax,-0x230(%rbp)
   15b96:	48 8d 05 33 28 01 00 	lea    0x12833(%rip),%rax        # 283d0 <g_229>
   15b9d:	48 89 85 d8 fd ff ff 	mov    %rax,-0x228(%rbp)
   15ba4:	48 8d 05 25 28 01 00 	lea    0x12825(%rip),%rax        # 283d0 <g_229>
   15bab:	48 89 85 e0 fd ff ff 	mov    %rax,-0x220(%rbp)
   15bb2:	48 8d 85 5e de ff ff 	lea    -0x21a2(%rbp),%rax
   15bb9:	48 89 85 e8 fd ff ff 	mov    %rax,-0x218(%rbp)
   15bc0:	48 8d 05 09 28 01 00 	lea    0x12809(%rip),%rax        # 283d0 <g_229>
   15bc7:	48 89 85 f0 fd ff ff 	mov    %rax,-0x210(%rbp)
   15bce:	48 8d 05 1b d9 00 00 	lea    0xd91b(%rip),%rax        # 234f0 <g_610>
   15bd5:	48 89 85 f8 fd ff ff 	mov    %rax,-0x208(%rbp)
   15bdc:	48 8d 85 5e de ff ff 	lea    -0x21a2(%rbp),%rax
   15be3:	48 89 85 00 fe ff ff 	mov    %rax,-0x200(%rbp)
   15bea:	48 8d 85 5e de ff ff 	lea    -0x21a2(%rbp),%rax
   15bf1:	48 89 85 08 fe ff ff 	mov    %rax,-0x1f8(%rbp)
   15bf8:	48 8d 05 f1 d8 00 00 	lea    0xd8f1(%rip),%rax        # 234f0 <g_610>
   15bff:	48 89 85 10 fe ff ff 	mov    %rax,-0x1f0(%rbp)
   15c06:	48 c7 85 18 fe ff ff 	movq   $0x0,-0x1e8(%rbp)
   15c0d:	00 00 00 00 
   15c11:	48 c7 85 20 fe ff ff 	movq   $0x0,-0x1e0(%rbp)
   15c18:	00 00 00 00 
   15c1c:	48 8d 05 7d d4 00 00 	lea    0xd47d(%rip),%rax        # 230a0 <g_104>
   15c23:	48 89 85 28 fe ff ff 	mov    %rax,-0x1d8(%rbp)
   15c2a:	48 8d 05 bf d8 00 00 	lea    0xd8bf(%rip),%rax        # 234f0 <g_610>
   15c31:	48 89 85 30 fe ff ff 	mov    %rax,-0x1d0(%rbp)
   15c38:	48 c7 85 38 fe ff ff 	movq   $0x0,-0x1c8(%rbp)
   15c3f:	00 00 00 00 
   15c43:	48 8d 85 5e de ff ff 	lea    -0x21a2(%rbp),%rax
   15c4a:	48 89 85 40 fe ff ff 	mov    %rax,-0x1c0(%rbp)
   15c51:	48 c7 85 48 fe ff ff 	movq   $0x0,-0x1b8(%rbp)
   15c58:	00 00 00 00 
   15c5c:	48 8d 05 3d d4 00 00 	lea    0xd43d(%rip),%rax        # 230a0 <g_104>
   15c63:	48 89 85 50 fe ff ff 	mov    %rax,-0x1b0(%rbp)
   15c6a:	48 c7 85 58 fe ff ff 	movq   $0x0,-0x1a8(%rbp)
   15c71:	00 00 00 00 
   15c75:	48 8d 85 5e de ff ff 	lea    -0x21a2(%rbp),%rax
   15c7c:	48 89 85 60 fe ff ff 	mov    %rax,-0x1a0(%rbp)
   15c83:	48 8d 85 5e de ff ff 	lea    -0x21a2(%rbp),%rax
   15c8a:	48 89 85 68 fe ff ff 	mov    %rax,-0x198(%rbp)
   15c91:	48 8d 05 58 d8 00 00 	lea    0xd858(%rip),%rax        # 234f0 <g_610>
   15c98:	48 89 85 70 fe ff ff 	mov    %rax,-0x190(%rbp)
   15c9f:	48 8d 85 5e de ff ff 	lea    -0x21a2(%rbp),%rax
   15ca6:	48 89 85 78 fe ff ff 	mov    %rax,-0x188(%rbp)
   15cad:	48 8d 05 1c 27 01 00 	lea    0x1271c(%rip),%rax        # 283d0 <g_229>
   15cb4:	48 89 85 80 fe ff ff 	mov    %rax,-0x180(%rbp)
   15cbb:	48 8d 85 5e de ff ff 	lea    -0x21a2(%rbp),%rax
   15cc2:	48 89 85 88 fe ff ff 	mov    %rax,-0x178(%rbp)
   15cc9:	48 8d 05 d0 d3 00 00 	lea    0xd3d0(%rip),%rax        # 230a0 <g_104>
   15cd0:	48 89 85 90 fe ff ff 	mov    %rax,-0x170(%rbp)
   15cd7:	48 8d 05 f2 26 01 00 	lea    0x126f2(%rip),%rax        # 283d0 <g_229>
   15cde:	48 89 85 98 fe ff ff 	mov    %rax,-0x168(%rbp)
   15ce5:	48 8d 05 b4 d3 00 00 	lea    0xd3b4(%rip),%rax        # 230a0 <g_104>
   15cec:	48 89 85 a0 fe ff ff 	mov    %rax,-0x160(%rbp)
   15cf3:	48 8d 05 a6 d3 00 00 	lea    0xd3a6(%rip),%rax        # 230a0 <g_104>
   15cfa:	48 89 85 a8 fe ff ff 	mov    %rax,-0x158(%rbp)
   15d01:	48 c7 85 b0 fe ff ff 	movq   $0x0,-0x150(%rbp)
   15d08:	00 00 00 00 
   15d0c:	48 8d 85 5e de ff ff 	lea    -0x21a2(%rbp),%rax
   15d13:	48 89 85 b8 fe ff ff 	mov    %rax,-0x148(%rbp)
   15d1a:	48 8d 05 7f d3 00 00 	lea    0xd37f(%rip),%rax        # 230a0 <g_104>
   15d21:	48 89 85 c0 fe ff ff 	mov    %rax,-0x140(%rbp)
   15d28:	48 8d 05 a1 26 01 00 	lea    0x126a1(%rip),%rax        # 283d0 <g_229>
   15d2f:	48 89 85 c8 fe ff ff 	mov    %rax,-0x138(%rbp)
   15d36:	48 c7 85 d0 fe ff ff 	movq   $0x0,-0x130(%rbp)
   15d3d:	00 00 00 00 
   15d41:	48 8d 05 58 d3 00 00 	lea    0xd358(%rip),%rax        # 230a0 <g_104>
   15d48:	48 89 85 d8 fe ff ff 	mov    %rax,-0x128(%rbp)
   15d4f:	48 8d 05 4a d3 00 00 	lea    0xd34a(%rip),%rax        # 230a0 <g_104>
   15d56:	48 89 85 e0 fe ff ff 	mov    %rax,-0x120(%rbp)
   15d5d:	48 c7 85 e8 fe ff ff 	movq   $0x0,-0x118(%rbp)
   15d64:	00 00 00 00 
   15d68:	48 8d 05 31 d3 00 00 	lea    0xd331(%rip),%rax        # 230a0 <g_104>
   15d6f:	48 89 85 f0 fe ff ff 	mov    %rax,-0x110(%rbp)
   15d76:	48 8d 05 53 26 01 00 	lea    0x12653(%rip),%rax        # 283d0 <g_229>
   15d7d:	48 89 85 f8 fe ff ff 	mov    %rax,-0x108(%rbp)
   15d84:	48 8d 05 65 d7 00 00 	lea    0xd765(%rip),%rax        # 234f0 <g_610>
   15d8b:	48 89 85 00 ff ff ff 	mov    %rax,-0x100(%rbp)
   15d92:	48 c7 85 08 ff ff ff 	movq   $0x0,-0xf8(%rbp)
   15d99:	00 00 00 00 
   15d9d:	48 8d 05 4c d7 00 00 	lea    0xd74c(%rip),%rax        # 234f0 <g_610>
   15da4:	48 89 85 10 ff ff ff 	mov    %rax,-0xf0(%rbp)
   15dab:	48 8d 85 5e de ff ff 	lea    -0x21a2(%rbp),%rax
   15db2:	48 89 85 18 ff ff ff 	mov    %rax,-0xe8(%rbp)
   15db9:	48 8d 85 5e de ff ff 	lea    -0x21a2(%rbp),%rax
   15dc0:	48 89 85 20 ff ff ff 	mov    %rax,-0xe0(%rbp)
   15dc7:	48 8d 05 02 26 01 00 	lea    0x12602(%rip),%rax        # 283d0 <g_229>
   15dce:	48 89 85 28 ff ff ff 	mov    %rax,-0xd8(%rbp)
   15dd5:	48 8d 05 f4 25 01 00 	lea    0x125f4(%rip),%rax        # 283d0 <g_229>
   15ddc:	48 89 85 30 ff ff ff 	mov    %rax,-0xd0(%rbp)
   15de3:	48 8d 05 e6 25 01 00 	lea    0x125e6(%rip),%rax        # 283d0 <g_229>
   15dea:	48 89 85 38 ff ff ff 	mov    %rax,-0xc8(%rbp)
   15df1:	48 8d 05 a8 d2 00 00 	lea    0xd2a8(%rip),%rax        # 230a0 <g_104>
   15df8:	48 89 85 40 ff ff ff 	mov    %rax,-0xc0(%rbp)
   15dff:	48 c7 85 48 ff ff ff 	movq   $0x0,-0xb8(%rbp)
   15e06:	00 00 00 00 
   15e0a:	48 8d 05 df d6 00 00 	lea    0xd6df(%rip),%rax        # 234f0 <g_610>
   15e11:	48 89 85 50 ff ff ff 	mov    %rax,-0xb0(%rbp)
   15e18:	48 8d 05 b1 25 01 00 	lea    0x125b1(%rip),%rax        # 283d0 <g_229>
   15e1f:	48 89 85 58 ff ff ff 	mov    %rax,-0xa8(%rbp)
   15e26:	48 8d 05 a3 25 01 00 	lea    0x125a3(%rip),%rax        # 283d0 <g_229>
   15e2d:	48 89 85 60 ff ff ff 	mov    %rax,-0xa0(%rbp)
   15e34:	48 8d 05 95 25 01 00 	lea    0x12595(%rip),%rax        # 283d0 <g_229>
   15e3b:	48 89 85 68 ff ff ff 	mov    %rax,-0x98(%rbp)
   15e42:	48 8d 85 5e de ff ff 	lea    -0x21a2(%rbp),%rax
   15e49:	48 89 85 70 ff ff ff 	mov    %rax,-0x90(%rbp)
   15e50:	48 8d 05 49 d2 00 00 	lea    0xd249(%rip),%rax        # 230a0 <g_104>
   15e57:	48 89 85 78 ff ff ff 	mov    %rax,-0x88(%rbp)
   15e5e:	48 8d 05 3b d2 00 00 	lea    0xd23b(%rip),%rax        # 230a0 <g_104>
   15e65:	48 89 45 80          	mov    %rax,-0x80(%rbp)
   15e69:	48 c7 45 88 00 00 00 	movq   $0x0,-0x78(%rbp)
   15e70:	00 
   15e71:	48 8d 85 5e de ff ff 	lea    -0x21a2(%rbp),%rax
   15e78:	48 89 45 90          	mov    %rax,-0x70(%rbp)
   15e7c:	48 8d 05 6d d6 00 00 	lea    0xd66d(%rip),%rax        # 234f0 <g_610>
   15e83:	48 89 45 98          	mov    %rax,-0x68(%rbp)
   15e87:	48 8d 85 5e de ff ff 	lea    -0x21a2(%rbp),%rax
   15e8e:	48 89 45 a0          	mov    %rax,-0x60(%rbp)
   15e92:	48 8d 05 37 25 01 00 	lea    0x12537(%rip),%rax        # 283d0 <g_229>
   15e99:	48 89 45 a8          	mov    %rax,-0x58(%rbp)
   15e9d:	48 8d 05 fc d1 00 00 	lea    0xd1fc(%rip),%rax        # 230a0 <g_104>
   15ea4:	48 89 45 b0          	mov    %rax,-0x50(%rbp)
   15ea8:	48 8d 05 41 d6 00 00 	lea    0xd641(%rip),%rax        # 234f0 <g_610>
   15eaf:	48 89 45 b8          	mov    %rax,-0x48(%rbp)
   15eb3:	c7 85 d8 df ff ff 08 	movl   $0xf33b8808,-0x2028(%rbp)
   15eba:	88 3b f3 
   15ebd:	c7 85 dc df ff ff e4 	movl   $0xfdc8ece4,-0x2024(%rbp)
   15ec4:	ec c8 fd 
   15ec7:	c7 85 e0 df ff ff 04 	movl   $0x4,-0x2020(%rbp)
   15ece:	00 00 00 
   15ed1:	48 8d 85 8c de ff ff 	lea    -0x2174(%rbp),%rax
   15ed8:	48 89 85 c0 e3 ff ff 	mov    %rax,-0x1c40(%rbp)
   15edf:	48 8d 85 8c de ff ff 	lea    -0x2174(%rbp),%rax
   15ee6:	48 89 85 c8 e3 ff ff 	mov    %rax,-0x1c38(%rbp)
   15eed:	48 8d 85 8c de ff ff 	lea    -0x2174(%rbp),%rax
   15ef4:	48 89 85 d0 e3 ff ff 	mov    %rax,-0x1c30(%rbp)
   15efb:	48 8d 85 8c de ff ff 	lea    -0x2174(%rbp),%rax
   15f02:	48 89 85 d8 e3 ff ff 	mov    %rax,-0x1c28(%rbp)
   15f09:	c7 85 e4 df ff ff 21 	movl   $0x4f5d3c21,-0x201c(%rbp)
   15f10:	3c 5d 4f 
   15f13:	c7 85 e8 df ff ff 02 	movl   $0x2,-0x2018(%rbp)
   15f1a:	00 00 00 
   15f1d:	c7 85 ec df ff ff 07 	movl   $0x7,-0x2014(%rbp)
   15f24:	00 00 00 
   15f27:	48 8d 85 c0 e0 ff ff 	lea    -0x1f40(%rbp),%rax
   15f2e:	48 89 85 60 e2 ff ff 	mov    %rax,-0x1da0(%rbp)
   15f35:	48 c7 85 68 e2 ff ff 	movq   $0x0,-0x1d98(%rbp)
   15f3c:	00 00 00 00 
   15f40:	0f b6 05 5b d1 00 00 	movzbl 0xd15b(%rip),%eax        # 230a2 <g_111>
   15f47:	0f b6 c0             	movzbl %al,%eax
   15f4a:	48 98                	cltq   
   15f4c:	48 8d 15 a0 d5 00 00 	lea    0xd5a0(%rip),%rdx        # 234f3 <g_626>
   15f53:	0f b6 04 10          	movzbl (%rax,%rdx,1),%eax
   15f57:	0f b6 d8             	movzbl %al,%ebx
   15f5a:	48 8b 05 57 19 01 00 	mov    0x11957(%rip),%rax        # 278b8 <g_464>
   15f61:	0f b6 00             	movzbl (%rax),%eax
   15f64:	0f be d0             	movsbl %al,%edx
   15f67:	8b 85 34 de ff ff    	mov    -0x21cc(%rbp),%eax
   15f6d:	0f be c0             	movsbl %al,%eax
   15f70:	89 d6                	mov    %edx,%esi
   15f72:	89 c7                	mov    %eax,%edi
   15f74:	e8 b8 52 ff ff       	callq  b231 <safe_mod_func_int8_t_s_s>
   15f79:	0f be c0             	movsbl %al,%eax
   15f7c:	39 c3                	cmp    %eax,%ebx
   15f7e:	0f 85 b2 04 00 00    	jne    16436 <func_53+0x2538>
   15f84:	48 8d 85 80 e0 ff ff 	lea    -0x1f80(%rbp),%rax
   15f8b:	48 89 85 78 e2 ff ff 	mov    %rax,-0x1d88(%rbp)
   15f92:	c7 85 00 e0 ff ff 40 	movl   $0x32acb240,-0x2000(%rbp)
   15f99:	b2 ac 32 
   15f9c:	48 8d 05 fd d0 00 00 	lea    0xd0fd(%rip),%rax        # 230a0 <g_104>
   15fa3:	48 89 85 80 e2 ff ff 	mov    %rax,-0x1d80(%rbp)
   15faa:	c7 85 04 e0 ff ff 04 	movl   $0x4,-0x1ffc(%rbp)
   15fb1:	00 00 00 
   15fb4:	48 8d 05 a5 14 01 00 	lea    0x114a5(%rip),%rax        # 27460 <g_246>
   15fbb:	48 89 85 88 e2 ff ff 	mov    %rax,-0x1d78(%rbp)
   15fc2:	48 8d 05 2f 19 01 00 	lea    0x1192f(%rip),%rax        # 278f8 <g_912>
   15fc9:	48 89 85 90 e2 ff ff 	mov    %rax,-0x1d70(%rbp)
   15fd0:	48 c7 85 c8 e0 ff ff 	movq   $0x0,-0x1f38(%rbp)
   15fd7:	00 00 00 00 
   15fdb:	48 8b 05 d6 18 01 00 	mov    0x118d6(%rip),%rax        # 278b8 <g_464>
   15fe2:	0f b6 00             	movzbl (%rax),%eax
   15fe5:	0f b6 d8             	movzbl %al,%ebx
   15fe8:	48 8b 05 c9 18 01 00 	mov    0x118c9(%rip),%rax        # 278b8 <g_464>
   15fef:	0f b6 00             	movzbl (%rax),%eax
   15ff2:	44 0f b6 e0          	movzbl %al,%r12d
   15ff6:	48 8b 85 40 de ff ff 	mov    -0x21c0(%rbp),%rax
   15ffd:	0f be c0             	movsbl %al,%eax
   16000:	be 0d 00 00 00       	mov    $0xd,%esi
   16005:	89 c7                	mov    %eax,%edi
   16007:	e8 25 52 ff ff       	callq  b231 <safe_mod_func_int8_t_s_s>
   1600c:	0f be c8             	movsbl %al,%ecx
   1600f:	0f b6 05 8c d0 00 00 	movzbl 0xd08c(%rip),%eax        # 230a2 <g_111>
   16016:	0f b6 c0             	movzbl %al,%eax
   16019:	0f b6 15 82 d0 00 00 	movzbl 0xd082(%rip),%edx        # 230a2 <g_111>
   16020:	0f b6 d2             	movzbl %dl,%edx
   16023:	83 c2 01             	add    $0x1,%edx
   16026:	48 63 f2             	movslq %edx,%rsi
   16029:	48 63 d0             	movslq %eax,%rdx
   1602c:	48 89 d0             	mov    %rdx,%rax
   1602f:	48 c1 e0 03          	shl    $0x3,%rax
   16033:	48 01 d0             	add    %rdx,%rax
   16036:	48 01 f0             	add    %rsi,%rax
   16039:	48 8b b4 c5 20 ea ff 	mov    -0x15e0(%rbp,%rax,8),%rsi
   16040:	ff 
   16041:	48 8b 95 80 e0 ff ff 	mov    -0x1f80(%rbp),%rdx
   16048:	48 8b 85 78 e2 ff ff 	mov    -0x1d88(%rbp),%rax
   1604f:	48 89 10             	mov    %rdx,(%rax)
   16052:	48 8b 85 78 e2 ff ff 	mov    -0x1d88(%rbp),%rax
   16059:	48 8b 00             	mov    (%rax),%rax
   1605c:	48 39 c6             	cmp    %rax,%rsi
   1605f:	0f 95 c0             	setne  %al
   16062:	0f b6 c0             	movzbl %al,%eax
   16065:	39 c1                	cmp    %eax,%ecx
   16067:	0f 9e c0             	setle  %al
   1606a:	0f b6 d0             	movzbl %al,%edx
   1606d:	48 8b 85 48 e0 ff ff 	mov    -0x1fb8(%rbp),%rax
   16074:	8b 00                	mov    (%rax),%eax
   16076:	39 c2                	cmp    %eax,%edx
   16078:	0f 9e c0             	setle  %al
   1607b:	0f b6 c0             	movzbl %al,%eax
   1607e:	41 39 c4             	cmp    %eax,%r12d
   16081:	0f 9f c0             	setg   %al
   16084:	41 89 c5             	mov    %eax,%r13d
   16087:	8b 85 00 e0 ff ff    	mov    -0x2000(%rbp),%eax
   1608d:	44 0f b6 e0          	movzbl %al,%r12d
   16091:	48 83 bd 50 e2 ff ff 	cmpq   $0x0,-0x1db0(%rbp)
   16098:	00 
   16099:	75 31                	jne    160cc <func_53+0x21ce>
   1609b:	48 8b 85 c0 e0 ff ff 	mov    -0x1f40(%rbp),%rax
   160a2:	0f be c0             	movsbl %al,%eax
   160a5:	8b 95 00 e0 ff ff    	mov    -0x2000(%rbp),%edx
   160ab:	89 d6                	mov    %edx,%esi
   160ad:	89 c7                	mov    %eax,%edi
   160af:	e8 81 52 ff ff       	callq  b335 <safe_rshift_func_int8_t_s_s>
   160b4:	48 8b 85 e0 e0 ff ff 	mov    -0x1f20(%rbp),%rax
   160bb:	8b 00                	mov    (%rax),%eax
   160bd:	39 85 34 de ff ff    	cmp    %eax,-0x21cc(%rbp)
   160c3:	72 07                	jb     160cc <func_53+0x21ce>
   160c5:	b8 01 00 00 00       	mov    $0x1,%eax
   160ca:	eb 05                	jmp    160d1 <func_53+0x21d3>
   160cc:	b8 00 00 00 00       	mov    $0x0,%eax
   160d1:	89 c2                	mov    %eax,%edx
   160d3:	48 8b 85 80 e2 ff ff 	mov    -0x1d80(%rbp),%rax
   160da:	66 89 10             	mov    %dx,(%rax)
   160dd:	48 8b 85 80 e2 ff ff 	mov    -0x1d80(%rbp),%rax
   160e4:	0f b7 00             	movzwl (%rax),%eax
   160e7:	89 c2                	mov    %eax,%edx
   160e9:	8b 85 00 e0 ff ff    	mov    -0x2000(%rbp),%eax
   160ef:	21 d0                	and    %edx,%eax
   160f1:	83 c8 1e             	or     $0x1e,%eax
   160f4:	0f b6 c0             	movzbl %al,%eax
   160f7:	44 89 e6             	mov    %r12d,%esi
   160fa:	89 c7                	mov    %eax,%edi
   160fc:	e8 ad 5a ff ff       	callq  bbae <safe_mod_func_uint8_t_u_u>
   16101:	0f be c0             	movsbl %al,%eax
   16104:	be f9 ff ff ff       	mov    $0xfffffff9,%esi
   16109:	89 c7                	mov    %eax,%edi
   1610b:	e8 21 51 ff ff       	callq  b231 <safe_mod_func_int8_t_s_s>
   16110:	44 21 e8             	and    %r13d,%eax
   16113:	0f be c0             	movsbl %al,%eax
   16116:	89 de                	mov    %ebx,%esi
   16118:	89 c7                	mov    %eax,%edi
   1611a:	e8 cf 51 ff ff       	callq  b2ee <safe_lshift_func_int8_t_s_u>
   1611f:	0f be c0             	movsbl %al,%eax
   16122:	31 85 04 e0 ff ff    	xor    %eax,-0x1ffc(%rbp)
   16128:	48 8b 05 b9 17 01 00 	mov    0x117b9(%rip),%rax        # 278e8 <g_845>
   1612f:	48 8b 00             	mov    (%rax),%rax
   16132:	48 8b 18             	mov    (%rax),%rbx
   16135:	48 8b 95 50 e0 ff ff 	mov    -0x1fb0(%rbp),%rdx
   1613c:	48 8b 85 c8 e0 ff ff 	mov    -0x1f38(%rbp),%rax
   16143:	48 39 c2             	cmp    %rax,%rdx
   16146:	0f 95 c0             	setne  %al
   16149:	0f b6 c0             	movzbl %al,%eax
   1614c:	8b 95 e4 de ff ff    	mov    -0x211c(%rbp),%edx
   16152:	89 d6                	mov    %edx,%esi
   16154:	89 c7                	mov    %eax,%edi
   16156:	e8 a2 5d ff ff       	callq  befd <safe_mod_func_uint32_t_u_u>
   1615b:	89 c1                	mov    %eax,%ecx
   1615d:	48 8b 05 cc 12 01 00 	mov    0x112cc(%rip),%rax        # 27430 <g_209>
   16164:	8b 00                	mov    (%rax),%eax
   16166:	09 85 00 e0 ff ff    	or     %eax,-0x2000(%rbp)
   1616c:	48 8b 85 90 e2 ff ff 	mov    -0x1d70(%rbp),%rax
   16173:	48 8d 15 ae d1 00 00 	lea    0xd1ae(%rip),%rdx        # 23328 <g_434+0x268>
   1617a:	48 89 10             	mov    %rdx,(%rax)
   1617d:	48 8b 85 90 e2 ff ff 	mov    -0x1d70(%rbp),%rax
   16184:	48 8b 00             	mov    (%rax),%rax
   16187:	48 8d 15 72 d3 00 00 	lea    0xd372(%rip),%rdx        # 23500 <g_704>
   1618e:	48 39 d0             	cmp    %rdx,%rax
   16191:	0f 95 c0             	setne  %al
   16194:	0f b6 c0             	movzbl %al,%eax
   16197:	0b 85 00 e0 ff ff    	or     -0x2000(%rbp),%eax
   1619d:	48 98                	cltq   
   1619f:	48 89 ce             	mov    %rcx,%rsi
   161a2:	48 89 c7             	mov    %rax,%rdi
   161a5:	e8 a1 5e ff ff       	callq  c04b <safe_sub_func_uint64_t_u_u>
   161aa:	48 89 c6             	mov    %rax,%rsi
   161ad:	bf 00 00 00 00       	mov    $0x0,%edi
   161b2:	e8 8a 56 ff ff       	callq  b841 <safe_add_func_int64_t_s_s>
   161b7:	48 89 de             	mov    %rbx,%rsi
   161ba:	48 89 c7             	mov    %rax,%rdi
   161bd:	e8 6c 5e ff ff       	callq  c02e <safe_add_func_uint64_t_u_u>
   161c2:	48 89 c2             	mov    %rax,%rdx
   161c5:	48 8b 85 48 e0 ff ff 	mov    -0x1fb8(%rbp),%rax
   161cc:	89 10                	mov    %edx,(%rax)
   161ce:	8b 00                	mov    (%rax),%eax
   161d0:	85 c0                	test   %eax,%eax
   161d2:	74 10                	je     161e4 <func_53+0x22e6>
   161d4:	c6 85 5d de ff ff d2 	movb   $0xd2,-0x21a3(%rbp)
   161db:	80 85 5d de ff ff 01 	addb   $0x1,-0x21a3(%rbp)
   161e2:	eb 39                	jmp    1621d <func_53+0x231f>
   161e4:	c7 85 08 e0 ff ff ff 	movl   $0xffffffff,-0x1ff8(%rbp)
   161eb:	ff ff ff 
   161ee:	c7 85 0c e0 ff ff 87 	movl   $0x112f6587,-0x1ff4(%rbp)
   161f5:	65 2f 11 
   161f8:	c7 85 10 e0 ff ff 54 	movl   $0x493a1654,-0x1ff0(%rbp)
   161ff:	16 3a 49 
   16202:	c7 85 14 e0 ff ff 00 	movl   $0x0,-0x1fec(%rbp)
   16209:	00 00 00 
   1620c:	0f b7 85 5e de ff ff 	movzwl -0x21a2(%rbp),%eax
   16213:	83 e8 01             	sub    $0x1,%eax
   16216:	66 89 85 5e de ff ff 	mov    %ax,-0x21a2(%rbp)
   1621d:	48 83 bd 40 de ff ff 	cmpq   $0x0,-0x21c0(%rbp)
   16224:	00 
   16225:	74 27                	je     1624e <func_53+0x2350>
   16227:	c7 85 20 e0 ff ff 73 	movl   $0x69713573,-0x1fe0(%rbp)
   1622e:	35 71 69 
   16231:	48 8b 05 f8 11 01 00 	mov    0x111f8(%rip),%rax        # 27430 <g_209>
   16238:	8b 00                	mov    (%rax),%eax
   1623a:	85 c0                	test   %eax,%eax
   1623c:	0f 85 64 09 00 00    	jne    16ba6 <func_53+0x2ca8>
   16242:	83 85 20 e0 ff ff 01 	addl   $0x1,-0x1fe0(%rbp)
   16249:	e9 d2 01 00 00       	jmpq   16420 <func_53+0x2522>
   1624e:	48 8d 05 6b 16 01 00 	lea    0x1166b(%rip),%rax        # 278c0 <g_463>
   16255:	48 89 85 d0 e0 ff ff 	mov    %rax,-0x1f30(%rbp)
   1625c:	48 8d 85 c8 e0 ff ff 	lea    -0x1f38(%rbp),%rax
   16263:	48 89 85 98 e2 ff ff 	mov    %rax,-0x1d68(%rbp)
   1626a:	48 8d 85 d0 e0 ff ff 	lea    -0x1f30(%rbp),%rax
   16271:	48 89 85 a0 e2 ff ff 	mov    %rax,-0x1d60(%rbp)
   16278:	c7 85 18 e0 ff ff 5d 	movl   $0xfb39b65d,-0x1fe8(%rbp)
   1627f:	b6 39 fb 
   16282:	c7 85 1c e0 ff ff 00 	movl   $0x0,-0x1fe4(%rbp)
   16289:	00 00 00 
   1628c:	48 8d 05 65 16 01 00 	lea    0x11665(%rip),%rax        # 278f8 <g_912>
   16293:	48 39 85 58 e1 ff ff 	cmp    %rax,-0x1ea8(%rbp)
   1629a:	0f 94 c0             	sete   %al
   1629d:	0f b6 c0             	movzbl %al,%eax
   162a0:	39 85 34 de ff ff    	cmp    %eax,-0x21cc(%rbp)
   162a6:	0f 95 c0             	setne  %al
   162a9:	0f b6 c0             	movzbl %al,%eax
   162ac:	be 05 00 00 00       	mov    $0x5,%esi
   162b1:	89 c7                	mov    %eax,%edi
   162b3:	e8 e9 4f ff ff       	callq  b2a1 <safe_lshift_func_int8_t_s_s>
   162b8:	89 c2                	mov    %eax,%edx
   162ba:	48 8b 85 48 e0 ff ff 	mov    -0x1fb8(%rbp),%rax
   162c1:	0f be d2             	movsbl %dl,%edx
   162c4:	89 10                	mov    %edx,(%rax)
   162c6:	83 bd 00 e0 ff ff 00 	cmpl   $0x0,-0x2000(%rbp)
   162cd:	0f 85 b2 08 00 00    	jne    16b85 <func_53+0x2c87>
   162d3:	83 bd 98 de ff ff 00 	cmpl   $0x0,-0x2168(%rbp)
   162da:	0f 85 2b 01 00 00    	jne    1640b <func_53+0x250d>
   162e0:	8b 85 34 de ff ff    	mov    -0x21cc(%rbp),%eax
   162e6:	0f b7 d8             	movzwl %ax,%ebx
   162e9:	48 8b 85 e0 e0 ff ff 	mov    -0x1f20(%rbp),%rax
   162f0:	8b 00                	mov    (%rax),%eax
   162f2:	44 0f b6 e0          	movzbl %al,%r12d
   162f6:	48 8b 05 bb 15 01 00 	mov    0x115bb(%rip),%rax        # 278b8 <g_464>
   162fd:	0f b6 00             	movzbl (%rax),%eax
   16300:	0f be d0             	movsbl %al,%edx
   16303:	8b 85 18 e0 ff ff    	mov    -0x1fe8(%rbp),%eax
   16309:	0f be c0             	movsbl %al,%eax
   1630c:	89 d6                	mov    %edx,%esi
   1630e:	89 c7                	mov    %eax,%edi
   16310:	e8 dd 4e ff ff       	callq  b1f2 <safe_sub_func_int8_t_s_s>
   16315:	0f be c0             	movsbl %al,%eax
   16318:	31 85 1c e0 ff ff    	xor    %eax,-0x1fe4(%rbp)
   1631e:	48 8b 85 40 e0 ff ff 	mov    -0x1fc0(%rbp),%rax
   16325:	8b 95 1c e0 ff ff    	mov    -0x1fe4(%rbp),%edx
   1632b:	88 10                	mov    %dl,(%rax)
   1632d:	0f b6 00             	movzbl (%rax),%eax
   16330:	0f be c0             	movsbl %al,%eax
   16333:	be 07 00 00 00       	mov    $0x7,%esi
   16338:	89 c7                	mov    %eax,%edi
   1633a:	e8 af 4f ff ff       	callq  b2ee <safe_lshift_func_int8_t_s_u>
   1633f:	0f b6 c0             	movzbl %al,%eax
   16342:	44 89 e6             	mov    %r12d,%esi
   16345:	89 c7                	mov    %eax,%edi
   16347:	e8 2c 58 ff ff       	callq  bb78 <safe_sub_func_uint8_t_u_u>
   1634c:	48 8b 05 5d 15 01 00 	mov    0x1155d(%rip),%rax        # 278b0 <g_430>
   16353:	48 8b 00             	mov    (%rax),%rax
   16356:	0f b6 00             	movzbl (%rax),%eax
   16359:	0f b6 d0             	movzbl %al,%edx
   1635c:	48 8b 8d d0 e0 ff ff 	mov    -0x1f30(%rbp),%rcx
   16363:	48 8b 85 98 e2 ff ff 	mov    -0x1d68(%rbp),%rax
   1636a:	48 89 08             	mov    %rcx,(%rax)
   1636d:	48 8b 85 98 e2 ff ff 	mov    -0x1d68(%rbp),%rax
   16374:	48 8b 08             	mov    (%rax),%rcx
   16377:	48 8b 85 a0 e2 ff ff 	mov    -0x1d60(%rbp),%rax
   1637e:	48 89 08             	mov    %rcx,(%rax)
   16381:	48 8b 85 a0 e2 ff ff 	mov    -0x1d60(%rbp),%rax
   16388:	48 8b 00             	mov    (%rax),%rax
   1638b:	48 8d 0d 1e 15 01 00 	lea    0x1151e(%rip),%rcx        # 278b0 <g_430>
   16392:	48 39 c8             	cmp    %rcx,%rax
   16395:	0f 95 c0             	setne  %al
   16398:	0f b6 c0             	movzbl %al,%eax
   1639b:	89 d6                	mov    %edx,%esi
   1639d:	89 c7                	mov    %eax,%edi
   1639f:	e8 37 58 ff ff       	callq  bbdb <safe_div_func_uint8_t_u_u>
   163a4:	84 c0                	test   %al,%al
   163a6:	0f 95 c0             	setne  %al
   163a9:	0f b6 c0             	movzbl %al,%eax
   163ac:	89 c7                	mov    %eax,%edi
   163ae:	e8 0c 4e ff ff       	callq  b1bf <safe_unary_minus_func_int8_t_s>
   163b3:	48 0f be c0          	movsbq %al,%rax
   163b7:	48 be 74 17 b0 27 1b 	movabs $0x597fba1b27b01774,%rsi
   163be:	ba 7f 59 
   163c1:	48 89 c7             	mov    %rax,%rdi
   163c4:	e8 65 5c ff ff       	callq  c02e <safe_add_func_uint64_t_u_u>
   163c9:	48 8b 85 40 de ff ff 	mov    -0x21c0(%rbp),%rax
   163d0:	98                   	cwtl   
   163d1:	be 00 00 00 00       	mov    $0x0,%esi
   163d6:	89 c7                	mov    %eax,%edi
   163d8:	e8 18 50 ff ff       	callq  b3f5 <safe_mul_func_int16_t_s_s>
   163dd:	66 83 f8 02          	cmp    $0x2,%ax
   163e1:	0f 94 c0             	sete   %al
   163e4:	0f b6 d0             	movzbl %al,%edx
   163e7:	8b 85 04 e0 ff ff    	mov    -0x1ffc(%rbp),%eax
   163ed:	48 98                	cltq   
   163ef:	48 89 d6             	mov    %rdx,%rsi
   163f2:	48 89 c7             	mov    %rax,%rdi
   163f5:	e8 34 5c ff ff       	callq  c02e <safe_add_func_uint64_t_u_u>
   163fa:	0f b7 c0             	movzwl %ax,%eax
   163fd:	89 de                	mov    %ebx,%esi
   163ff:	89 c7                	mov    %eax,%edi
   16401:	e8 19 59 ff ff       	callq  bd1f <safe_sub_func_uint16_t_u_u>
   16406:	66 85 c0             	test   %ax,%ax
   16409:	74 07                	je     16412 <func_53+0x2514>
   1640b:	ba 01 00 00 00       	mov    $0x1,%edx
   16410:	eb 05                	jmp    16417 <func_53+0x2519>
   16412:	ba 00 00 00 00       	mov    $0x0,%edx
   16417:	48 8b 85 48 e0 ff ff 	mov    -0x1fb8(%rbp),%rax
   1641e:	89 10                	mov    %edx,(%rax)
   16420:	48 8b 85 e0 e0 ff ff 	mov    -0x1f20(%rbp),%rax
   16427:	8b 00                	mov    (%rax),%eax
   16429:	85 c0                	test   %eax,%eax
   1642b:	0f 84 44 01 00 00    	je     16575 <func_53+0x2677>
   16431:	e9 71 07 00 00       	jmpq   16ba7 <func_53+0x2ca9>
   16436:	c7 85 b4 de ff ff 01 	movl   $0x1,-0x214c(%rbp)
   1643d:	00 00 00 
   16440:	48 c7 85 70 e2 ff ff 	movq   $0x3,-0x1d90(%rbp)
   16447:	03 00 00 00 
   1644b:	c7 85 f0 df ff ff bc 	movl   $0x64529ebc,-0x2010(%rbp)
   16452:	9e 52 64 
   16455:	c7 85 f4 df ff ff fd 	movl   $0xfffffffd,-0x200c(%rbp)
   1645c:	ff ff ff 
   1645f:	66 c7 05 88 d0 00 00 	movw   $0x1,0xd088(%rip)        # 234f0 <g_610>
   16466:	01 00 
   16468:	eb 79                	jmp    164e3 <func_53+0x25e5>
   1646a:	c7 85 f8 df ff ff 87 	movl   $0x29623387,-0x2008(%rbp)
   16471:	33 62 29 
   16474:	c7 85 fc df ff ff 08 	movl   $0x8,-0x2004(%rbp)
   1647b:	00 00 00 
   1647e:	c7 85 b8 de ff ff 00 	movl   $0x0,-0x2148(%rbp)
   16485:	00 00 00 
   16488:	eb 19                	jmp    164a3 <func_53+0x25a5>
   1648a:	8b 85 b8 de ff ff    	mov    -0x2148(%rbp),%eax
   16490:	48 98                	cltq   
   16492:	66 c7 84 45 20 e5 ff 	movw   $0x5547,-0x1ae0(%rbp,%rax,2)
   16499:	ff 47 55 
   1649c:	83 85 b8 de ff ff 01 	addl   $0x1,-0x2148(%rbp)
   164a3:	83 bd b8 de ff ff 00 	cmpl   $0x0,-0x2148(%rbp)
   164aa:	7e de                	jle    1648a <func_53+0x258c>
   164ac:	83 85 b4 de ff ff 01 	addl   $0x1,-0x214c(%rbp)
   164b3:	48 8b 85 48 e0 ff ff 	mov    -0x1fb8(%rbp),%rax
   164ba:	8b 00                	mov    (%rax),%eax
   164bc:	85 c0                	test   %eax,%eax
   164be:	75 11                	jne    164d1 <func_53+0x25d3>
   164c0:	8b 85 58 e7 ff ff    	mov    -0x18a8(%rbp),%eax
   164c6:	83 e8 01             	sub    $0x1,%eax
   164c9:	89 85 58 e7 ff ff    	mov    %eax,-0x18a8(%rbp)
   164cf:	eb 01                	jmp    164d2 <func_53+0x25d4>
   164d1:	90                   	nop
   164d2:	0f b7 05 17 d0 00 00 	movzwl 0xd017(%rip),%eax        # 234f0 <g_610>
   164d9:	83 c0 01             	add    $0x1,%eax
   164dc:	66 89 05 0d d0 00 00 	mov    %ax,0xd00d(%rip)        # 234f0 <g_610>
   164e3:	0f b7 05 06 d0 00 00 	movzwl 0xd006(%rip),%eax        # 234f0 <g_610>
   164ea:	66 83 f8 06          	cmp    $0x6,%ax
   164ee:	0f 86 76 ff ff ff    	jbe    1646a <func_53+0x256c>
   164f4:	48 c7 05 69 cb 00 00 	movq   $0x0,0xcb69(%rip)        # 23068 <g_63>
   164fb:	00 00 00 00 
   164ff:	eb 67                	jmp    16568 <func_53+0x266a>
   16501:	66 c7 05 c6 1e 01 00 	movw   $0x0,0x11ec6(%rip)        # 283d0 <g_229>
   16508:	00 00 
   1650a:	eb 3d                	jmp    16549 <func_53+0x264b>
   1650c:	48 8b 15 55 cb 00 00 	mov    0xcb55(%rip),%rdx        # 23068 <g_63>
   16513:	0f b7 05 b6 1e 01 00 	movzwl 0x11eb6(%rip),%eax        # 283d0 <g_229>
   1651a:	0f b7 c0             	movzwl %ax,%eax
   1651d:	48 63 c8             	movslq %eax,%rcx
   16520:	48 89 d0             	mov    %rdx,%rax
   16523:	48 c1 e0 03          	shl    $0x3,%rax
   16527:	48 29 d0             	sub    %rdx,%rax
   1652a:	48 01 c8             	add    %rcx,%rax
   1652d:	c7 84 85 c0 e6 ff ff 	movl   $0x17f997bc,-0x1940(%rbp,%rax,4)
   16534:	bc 97 f9 17 
   16538:	0f b7 05 91 1e 01 00 	movzwl 0x11e91(%rip),%eax        # 283d0 <g_229>
   1653f:	83 c0 01             	add    $0x1,%eax
   16542:	66 89 05 87 1e 01 00 	mov    %ax,0x11e87(%rip)        # 283d0 <g_229>
   16549:	0f b7 05 80 1e 01 00 	movzwl 0x11e80(%rip),%eax        # 283d0 <g_229>
   16550:	66 83 f8 06          	cmp    $0x6,%ax
   16554:	76 b6                	jbe    1650c <func_53+0x260e>
   16556:	48 8b 05 0b cb 00 00 	mov    0xcb0b(%rip),%rax        # 23068 <g_63>
   1655d:	48 83 c0 01          	add    $0x1,%rax
   16561:	48 89 05 00 cb 00 00 	mov    %rax,0xcb00(%rip)        # 23068 <g_63>
   16568:	48 8b 05 f9 ca 00 00 	mov    0xcaf9(%rip),%rax        # 23068 <g_63>
   1656f:	48 83 f8 06          	cmp    $0x6,%rax
   16573:	76 8c                	jbe    16501 <func_53+0x2603>
   16575:	48 8b 85 40 e0 ff ff 	mov    -0x1fc0(%rbp),%rax
   1657c:	48 8b 95 40 de ff ff 	mov    -0x21c0(%rbp),%rdx
   16583:	88 10                	mov    %dl,(%rax)
   16585:	0f b6 10             	movzbl (%rax),%edx
   16588:	48 8b 85 58 e2 ff ff 	mov    -0x1da8(%rbp),%rax
   1658f:	88 10                	mov    %dl,(%rax)
   16591:	83 85 a4 de ff ff 01 	addl   $0x1,-0x215c(%rbp)
   16598:	8b 85 a4 de ff ff    	mov    -0x215c(%rbp),%eax
   1659e:	98                   	cwtl   
   1659f:	89 c6                	mov    %eax,%esi
   165a1:	bf 4e 69 00 00       	mov    $0x694e,%edi
   165a6:	e8 28 4e ff ff       	callq  b3d3 <safe_sub_func_int16_t_s_s>
   165ab:	0f b6 c0             	movzbl %al,%eax
   165ae:	be 04 00 00 00       	mov    $0x4,%esi
   165b3:	89 c7                	mov    %eax,%edi
   165b5:	e8 d3 56 ff ff       	callq  bc8d <safe_rshift_func_uint8_t_u_s>
   165ba:	48 8b 05 07 13 01 00 	mov    0x11307(%rip),%rax        # 278c8 <g_656>
   165c1:	8b 00                	mov    (%rax),%eax
   165c3:	89 c6                	mov    %eax,%esi
   165c5:	bf fd ff ff ff       	mov    $0xfffffffd,%edi
   165ca:	e8 2e 59 ff ff       	callq  befd <safe_mod_func_uint32_t_u_u>
   165cf:	0f b6 15 1d cf 00 00 	movzbl 0xcf1d(%rip),%edx        # 234f3 <g_626>
   165d6:	0f b6 85 8f e5 ff ff 	movzbl -0x1a71(%rbp),%eax
   165dd:	38 c2                	cmp    %al,%dl
   165df:	0f 93 c0             	setae  %al
   165e2:	0f b6 c0             	movzbl %al,%eax
   165e5:	39 85 d4 df ff ff    	cmp    %eax,-0x202c(%rbp)
   165eb:	0f 95 c0             	setne  %al
   165ee:	0f b6 c0             	movzbl %al,%eax
   165f1:	66 21 85 60 de ff ff 	and    %ax,-0x21a0(%rbp)
   165f8:	0f bf 85 60 de ff ff 	movswl -0x21a0(%rbp),%eax
   165ff:	39 85 e0 df ff ff    	cmp    %eax,-0x2020(%rbp)
   16605:	0f 94 c0             	sete   %al
   16608:	0f b6 c0             	movzbl %al,%eax
   1660b:	89 c7                	mov    %eax,%edi
   1660d:	e8 d7 56 ff ff       	callq  bce9 <safe_unary_minus_func_uint16_t_u>
   16612:	48 8b 85 e0 e0 ff ff 	mov    -0x1f20(%rbp),%rax
   16619:	8b 00                	mov    (%rax),%eax
   1661b:	85 c0                	test   %eax,%eax
   1661d:	7f 07                	jg     16626 <func_53+0x2728>
   1661f:	b8 01 00 00 00       	mov    $0x1,%eax
   16624:	eb 05                	jmp    1662b <func_53+0x272d>
   16626:	b8 00 00 00 00       	mov    $0x0,%eax
   1662b:	39 85 e0 df ff ff    	cmp    %eax,-0x2020(%rbp)
   16631:	0f 92 c0             	setb   %al
   16634:	0f b6 c0             	movzbl %al,%eax
   16637:	48 39 85 40 de ff ff 	cmp    %rax,-0x21c0(%rbp)
   1663e:	75 57                	jne    16697 <func_53+0x2799>
   16640:	48 8d 85 8c de ff ff 	lea    -0x2174(%rbp),%rax
   16647:	48 89 85 c0 e2 ff ff 	mov    %rax,-0x1d40(%rbp)
   1664e:	c7 85 98 de ff ff 00 	movl   $0x0,-0x2168(%rbp)
   16655:	00 00 00 
   16658:	83 bd 98 de ff ff 02 	cmpl   $0x2,-0x2168(%rbp)
   1665f:	77 20                	ja     16681 <func_53+0x2783>
   16661:	48 8b 05 f0 0d 01 00 	mov    0x10df0(%rip),%rax        # 27458 <g_207>
   16668:	48 8b 00             	mov    (%rax),%rax
   1666b:	48 8b 95 48 de ff ff 	mov    -0x21b8(%rbp),%rdx
   16672:	48 89 10             	mov    %rdx,(%rax)
   16675:	48 8b 85 48 de ff ff 	mov    -0x21b8(%rbp),%rax
   1667c:	e9 eb 18 00 00       	jmpq   17f6c <func_53+0x406e>
   16681:	48 8b 05 40 12 01 00 	mov    0x11240(%rip),%rax        # 278c8 <g_656>
   16688:	8b 00                	mov    (%rax),%eax
   1668a:	85 c0                	test   %eax,%eax
   1668c:	0f 84 f3 04 00 00    	je     16b85 <func_53+0x2c87>
   16692:	e9 10 05 00 00       	jmpq   16ba7 <func_53+0x2ca9>
   16697:	c7 85 24 e0 ff ff 00 	movl   $0x0,-0x1fdc(%rbp)
   1669e:	00 00 00 
   166a1:	c7 85 28 e0 ff ff 00 	movl   $0x0,-0x1fd8(%rbp)
   166a8:	00 00 00 
   166ab:	c7 85 2c e0 ff ff 66 	movl   $0x3a4b6e66,-0x1fd4(%rbp)
   166b2:	6e 4b 3a 
   166b5:	c7 85 30 e0 ff ff f7 	movl   $0xfffffff7,-0x1fd0(%rbp)
   166bc:	ff ff ff 
   166bf:	48 8d 85 84 de ff ff 	lea    -0x217c(%rbp),%rax
   166c6:	48 89 85 a8 e2 ff ff 	mov    %rax,-0x1d58(%rbp)
   166cd:	48 c7 85 d0 e0 ff ff 	movq   $0x0,-0x1f30(%rbp)
   166d4:	00 00 00 00 
   166d8:	48 8d 85 d0 e0 ff ff 	lea    -0x1f30(%rbp),%rax
   166df:	48 89 85 b0 e2 ff ff 	mov    %rax,-0x1d50(%rbp)
   166e6:	c7 85 bc de ff ff 00 	movl   $0x0,-0x2144(%rbp)
   166ed:	00 00 00 
   166f0:	eb 1a                	jmp    1670c <func_53+0x280e>
   166f2:	8b 85 bc de ff ff    	mov    -0x2144(%rbp),%eax
   166f8:	48 98                	cltq   
   166fa:	c7 84 85 e8 e2 ff ff 	movl   $0x97234391,-0x1d18(%rbp,%rax,4)
   16701:	91 43 23 97 
   16705:	83 85 bc de ff ff 01 	addl   $0x1,-0x2144(%rbp)
   1670c:	83 bd bc de ff ff 01 	cmpl   $0x1,-0x2144(%rbp)
   16713:	7e dd                	jle    166f2 <func_53+0x27f4>
   16715:	c7 85 bc de ff ff 00 	movl   $0x0,-0x2144(%rbp)
   1671c:	00 00 00 
   1671f:	eb 1b                	jmp    1673c <func_53+0x283e>
   16721:	8b 85 bc de ff ff    	mov    -0x2144(%rbp),%eax
   16727:	48 98                	cltq   
   16729:	48 c7 84 c5 70 e3 ff 	movq   $0x0,-0x1c90(%rbp,%rax,8)
   16730:	ff 00 00 00 00 
   16735:	83 85 bc de ff ff 01 	addl   $0x1,-0x2144(%rbp)
   1673c:	83 bd bc de ff ff 02 	cmpl   $0x2,-0x2144(%rbp)
   16743:	7e dc                	jle    16721 <func_53+0x2823>
   16745:	48 8b 85 40 de ff ff 	mov    -0x21c0(%rbp),%rax
   1674c:	41 89 c4             	mov    %eax,%r12d
   1674f:	83 bd d8 df ff ff 00 	cmpl   $0x0,-0x2028(%rbp)
   16756:	75 62                	jne    167ba <func_53+0x28bc>
   16758:	8b 85 24 e0 ff ff    	mov    -0x1fdc(%rbp),%eax
   1675e:	48 63 d0             	movslq %eax,%rdx
   16761:	48 8b 05 58 11 01 00 	mov    0x11158(%rip),%rax        # 278c0 <g_463>
   16768:	48 8b 00             	mov    (%rax),%rax
   1676b:	0f b6 00             	movzbl (%rax),%eax
   1676e:	0f b6 c8             	movzbl %al,%ecx
   16771:	48 8b 85 48 e0 ff ff 	mov    -0x1fb8(%rbp),%rax
   16778:	8b 00                	mov    (%rax),%eax
   1677a:	39 c1                	cmp    %eax,%ecx
   1677c:	0f 9e c0             	setle  %al
   1677f:	0f b6 c0             	movzbl %al,%eax
   16782:	48 89 d6             	mov    %rdx,%rsi
   16785:	48 89 c7             	mov    %rax,%rdi
   16788:	e8 be 58 ff ff       	callq  c04b <safe_sub_func_uint64_t_u_u>
   1678d:	48 89 c3             	mov    %rax,%rbx
   16790:	48 8b 85 40 de ff ff 	mov    -0x21c0(%rbp),%rax
   16797:	98                   	cwtl   
   16798:	be ff ff ff ff       	mov    $0xffffffff,%esi
   1679d:	89 c7                	mov    %eax,%edi
   1679f:	e8 51 4c ff ff       	callq  b3f5 <safe_mul_func_int16_t_s_s>
   167a4:	48 8b 85 40 e0 ff ff 	mov    -0x1fc0(%rbp),%rax
   167ab:	c6 00 0a             	movb   $0xa,(%rax)
   167ae:	0f b6 00             	movzbl (%rax),%eax
   167b1:	48 0f be c0          	movsbq %al,%rax
   167b5:	48 39 c3             	cmp    %rax,%rbx
   167b8:	75 07                	jne    167c1 <func_53+0x28c3>
   167ba:	ba 01 00 00 00       	mov    $0x1,%edx
   167bf:	eb 05                	jmp    167c6 <func_53+0x28c8>
   167c1:	ba 00 00 00 00       	mov    $0x0,%edx
   167c6:	b8 01 00 00 00       	mov    $0x1,%eax
   167cb:	98                   	cwtl   
   167cc:	39 c2                	cmp    %eax,%edx
   167ce:	0f 9f c0             	setg   %al
   167d1:	89 c2                	mov    %eax,%edx
   167d3:	48 8b 85 58 e2 ff ff 	mov    -0x1da8(%rbp),%rax
   167da:	88 10                	mov    %dl,(%rax)
   167dc:	8b 85 34 de ff ff    	mov    -0x21cc(%rbp),%eax
   167e2:	83 e0 79             	and    $0x79,%eax
   167e5:	48 8b 95 40 de ff ff 	mov    -0x21c0(%rbp),%rdx
   167ec:	21 d0                	and    %edx,%eax
   167ee:	0f be c0             	movsbl %al,%eax
   167f1:	be 03 00 00 00       	mov    $0x3,%esi
   167f6:	89 c7                	mov    %eax,%edi
   167f8:	e8 f1 4a ff ff       	callq  b2ee <safe_lshift_func_int8_t_s_u>
   167fd:	48 0f be c0          	movsbq %al,%rax
   16801:	48 39 85 40 de ff ff 	cmp    %rax,-0x21c0(%rbp)
   16808:	0f 9e c0             	setle  %al
   1680b:	0f b6 c0             	movzbl %al,%eax
   1680e:	44 89 e6             	mov    %r12d,%esi
   16811:	89 c7                	mov    %eax,%edi
   16813:	e8 e7 4e ff ff       	callq  b6ff <safe_div_func_int32_t_s_s>
   16818:	0f be d0             	movsbl %al,%edx
   1681b:	48 8b 85 40 de ff ff 	mov    -0x21c0(%rbp),%rax
   16822:	0f be c0             	movsbl %al,%eax
   16825:	89 d6                	mov    %edx,%esi
   16827:	89 c7                	mov    %eax,%edi
   16829:	e8 e4 49 ff ff       	callq  b212 <safe_mul_func_int8_t_s_s>
   1682e:	0f be d0             	movsbl %al,%edx
   16831:	8b 85 34 de ff ff    	mov    -0x21cc(%rbp),%eax
   16837:	0f be c0             	movsbl %al,%eax
   1683a:	89 d6                	mov    %edx,%esi
   1683c:	89 c7                	mov    %eax,%edi
   1683e:	e8 af 49 ff ff       	callq  b1f2 <safe_sub_func_int8_t_s_s>
   16843:	c7 85 20 e5 ff ff 09 	movl   $0x85034409,-0x1ae0(%rbp)
   1684a:	44 03 85 
   1684d:	c7 85 24 e5 ff ff 3a 	movl   $0xffc9093a,-0x1adc(%rbp)
   16854:	09 c9 ff 
   16857:	c7 85 28 e5 ff ff 00 	movl   $0xff00fd00,-0x1ad8(%rbp)
   1685e:	fd 00 ff 
   16861:	c7 85 2c e5 ff ff c9 	movl   $0x853a09c9,-0x1ad4(%rbp)
   16868:	09 3a 85 
   1686b:	c7 85 30 e5 ff ff 03 	movl   $0x9094403,-0x1ad0(%rbp)
   16872:	44 09 09 
   16875:	c7 85 34 e5 ff ff fc 	movl   $0x9fcfc,-0x1acc(%rbp)
   1687c:	fc 09 00 
   1687f:	c7 85 38 e5 ff ff 03 	movl   $0x443a6003,-0x1ac8(%rbp)
   16886:	60 3a 44 
   16889:	c7 85 3c e5 ff ff c9 	movl   $0x3a003ac9,-0x1ac4(%rbp)
   16890:	3a 00 3a 
   16893:	c7 85 40 e5 ff ff 00 	movl   $0x44c93a00,-0x1ac0(%rbp)
   1689a:	3a c9 44 
   1689d:	c7 85 44 e5 ff ff 3a 	movl   $0x3603a,-0x1abc(%rbp)
   168a4:	60 03 00 
   168a7:	c7 85 48 e5 ff ff 09 	movl   $0x9fcfc09,-0x1ab8(%rbp)
   168ae:	fc fc 09 
   168b1:	c7 85 4c e5 ff ff 09 	movl   $0x85034409,-0x1ab4(%rbp)
   168b8:	44 03 85 
   168bb:	c7 85 50 e5 ff ff 3a 	movl   $0xffc9093a,-0x1ab0(%rbp)
   168c2:	09 c9 ff 
   168c5:	c7 85 54 e5 ff ff 00 	movl   $0xff00fd00,-0x1aac(%rbp)
   168cc:	fd 00 ff 
   168cf:	c7 85 58 e5 ff ff c9 	movl   $0x853a09c9,-0x1aa8(%rbp)
   168d6:	09 3a 85 
   168d9:	c7 85 5c e5 ff ff 03 	movl   $0x9094403,-0x1aa4(%rbp)
   168e0:	44 09 09 
   168e3:	c7 85 60 e5 ff ff fc 	movl   $0x9fcfc,-0x1aa0(%rbp)
   168ea:	fc 09 00 
   168ed:	c7 85 64 e5 ff ff 03 	movl   $0x443a6003,-0x1a9c(%rbp)
   168f4:	60 3a 44 
   168f7:	c7 85 68 e5 ff ff c9 	movl   $0x3a003ac9,-0x1a98(%rbp)
   168fe:	3a 00 3a 
   16901:	c7 85 6c e5 ff ff 00 	movl   $0x44c93a00,-0x1a94(%rbp)
   16908:	3a c9 44 
   1690b:	c7 85 70 e5 ff ff 3a 	movl   $0x3603a,-0x1a90(%rbp)
   16912:	60 03 00 
   16915:	c7 85 74 e5 ff ff 09 	movl   $0x9fcfc09,-0x1a8c(%rbp)
   1691c:	fc fc 09 
   1691f:	c7 85 78 e5 ff ff 09 	movl   $0x85034409,-0x1a88(%rbp)
   16926:	44 03 85 
   16929:	c7 85 7c e5 ff ff 3a 	movl   $0xffc9093a,-0x1a84(%rbp)
   16930:	09 c9 ff 
   16933:	48 8b 05 f6 0a 01 00 	mov    0x10af6(%rip),%rax        # 27430 <g_209>
   1693a:	8b 00                	mov    (%rax),%eax
   1693c:	85 c0                	test   %eax,%eax
   1693e:	0f 85 63 02 00 00    	jne    16ba7 <func_53+0x2ca9>
   16944:	0f b6 85 4a e5 ff ff 	movzbl -0x1ab6(%rbp),%eax
   1694b:	83 e8 01             	sub    $0x1,%eax
   1694e:	88 85 4a e5 ff ff    	mov    %al,-0x1ab6(%rbp)
   16954:	c7 85 90 de ff ff 06 	movl   $0x6,-0x2170(%rbp)
   1695b:	00 00 00 
   1695e:	e9 e7 00 00 00       	jmpq   16a4a <func_53+0x2b4c>
   16963:	48 8d 05 ee 0a 01 00 	lea    0x10aee(%rip),%rax        # 27458 <g_207>
   1696a:	48 89 85 b8 e2 ff ff 	mov    %rax,-0x1d48(%rbp)
   16971:	c7 85 34 e0 ff ff 82 	movl   $0x157fca82,-0x1fcc(%rbp)
   16978:	ca 7f 15 
   1697b:	c7 85 38 e0 ff ff 01 	movl   $0x1,-0x1fc8(%rbp)
   16982:	00 00 00 
   16985:	c7 85 20 e5 ff ff 3a 	movl   $0x8540893a,-0x1ae0(%rbp)
   1698c:	89 40 85 
   1698f:	c7 85 24 e5 ff ff 3a 	movl   $0x8540893a,-0x1adc(%rbp)
   16996:	89 40 85 
   16999:	c7 85 28 e5 ff ff 01 	movl   $0x1,-0x1ad8(%rbp)
   169a0:	00 00 00 
   169a3:	c7 85 2c e5 ff ff 3a 	movl   $0x8540893a,-0x1ad4(%rbp)
   169aa:	89 40 85 
   169ad:	c7 85 30 e5 ff ff 3a 	movl   $0x8540893a,-0x1ad0(%rbp)
   169b4:	89 40 85 
   169b7:	c7 85 34 e5 ff ff 01 	movl   $0x1,-0x1acc(%rbp)
   169be:	00 00 00 
   169c1:	c7 85 38 e5 ff ff 3a 	movl   $0x8540893a,-0x1ac8(%rbp)
   169c8:	89 40 85 
   169cb:	c7 85 3c e5 ff ff 3a 	movl   $0x8540893a,-0x1ac4(%rbp)
   169d2:	89 40 85 
   169d5:	c7 85 40 e5 ff ff 01 	movl   $0x1,-0x1ac0(%rbp)
   169dc:	00 00 00 
   169df:	c7 85 c0 de ff ff 00 	movl   $0x0,-0x2140(%rbp)
   169e6:	00 00 00 
   169e9:	eb 1a                	jmp    16a05 <func_53+0x2b07>
   169eb:	8b 85 c0 de ff ff    	mov    -0x2140(%rbp),%eax
   169f1:	48 98                	cltq   
   169f3:	c7 84 85 f0 e2 ff ff 	movl   $0x1,-0x1d10(%rbp,%rax,4)
   169fa:	01 00 00 00 
   169fe:	83 85 c0 de ff ff 01 	addl   $0x1,-0x2140(%rbp)
   16a05:	83 bd c0 de ff ff 01 	cmpl   $0x1,-0x2140(%rbp)
   16a0c:	7e dd                	jle    169eb <func_53+0x2aed>
   16a0e:	48 8b 85 b8 e2 ff ff 	mov    -0x1d48(%rbp),%rax
   16a15:	48 8d 15 2c 0a 01 00 	lea    0x10a2c(%rip),%rdx        # 27448 <g_208+0x8>
   16a1c:	48 89 10             	mov    %rdx,(%rax)
   16a1f:	48 83 bd 40 de ff ff 	cmpq   $0x0,-0x21c0(%rbp)
   16a26:	00 
   16a27:	75 30                	jne    16a59 <func_53+0x2b5b>
   16a29:	0f b6 85 ce e7 ff ff 	movzbl -0x1832(%rbp),%eax
   16a30:	83 e8 01             	sub    $0x1,%eax
   16a33:	88 85 ce e7 ff ff    	mov    %al,-0x1832(%rbp)
   16a39:	c7 85 e4 df ff ff 50 	movl   $0x93a37750,-0x201c(%rbp)
   16a40:	77 a3 93 
   16a43:	83 ad 90 de ff ff 01 	subl   $0x1,-0x2170(%rbp)
   16a4a:	83 bd 90 de ff ff 01 	cmpl   $0x1,-0x2170(%rbp)
   16a51:	0f 8f 0c ff ff ff    	jg     16963 <func_53+0x2a65>
   16a57:	eb 01                	jmp    16a5a <func_53+0x2b5c>
   16a59:	90                   	nop
   16a5a:	48 8b 85 38 de ff ff 	mov    -0x21c8(%rbp),%rax
   16a61:	48 89 85 a8 e2 ff ff 	mov    %rax,-0x1d58(%rbp)
   16a68:	48 8b 85 e0 e0 ff ff 	mov    -0x1f20(%rbp),%rax
   16a6f:	8b 00                	mov    (%rax),%eax
   16a71:	48 63 d8             	movslq %eax,%rbx
   16a74:	48 8b 85 b0 e2 ff ff 	mov    -0x1d50(%rbp),%rax
   16a7b:	48 8d 15 b6 cb 00 00 	lea    0xcbb6(%rip),%rdx        # 23638 <g_1162>
   16a82:	48 89 10             	mov    %rdx,(%rax)
   16a85:	48 8b 85 d8 e0 ff ff 	mov    -0x1f28(%rbp),%rax
   16a8c:	48 89 85 60 e2 ff ff 	mov    %rax,-0x1da0(%rbp)
   16a93:	48 8d 05 9e cb 00 00 	lea    0xcb9e(%rip),%rax        # 23638 <g_1162>
   16a9a:	48 39 85 60 e2 ff ff 	cmp    %rax,-0x1da0(%rbp)
   16aa1:	0f 95 c0             	setne  %al
   16aa4:	0f b6 c0             	movzbl %al,%eax
   16aa7:	be 0f 00 00 00       	mov    $0xf,%esi
   16aac:	89 c7                	mov    %eax,%edi
   16aae:	e8 c7 53 ff ff       	callq  be7a <safe_rshift_func_uint16_t_u_u>
   16ab3:	48 83 bd 40 de ff ff 	cmpq   $0x0,-0x21c0(%rbp)
   16aba:	00 
   16abb:	0f 9f c1             	setg   %cl
   16abe:	48 83 bd e8 e0 ff ff 	cmpq   $0x0,-0x1f18(%rbp)
   16ac5:	00 
   16ac6:	0f 95 c2             	setne  %dl
   16ac9:	0f b6 d2             	movzbl %dl,%edx
   16acc:	39 95 34 de ff ff    	cmp    %edx,-0x21cc(%rbp)
   16ad2:	0f 94 c2             	sete   %dl
   16ad5:	31 ca                	xor    %ecx,%edx
   16ad7:	0f b6 d2             	movzbl %dl,%edx
   16ada:	66 39 d0             	cmp    %dx,%ax
   16add:	0f 92 c0             	setb   %al
   16ae0:	0f b6 c0             	movzbl %al,%eax
   16ae3:	39 85 34 de ff ff    	cmp    %eax,-0x21cc(%rbp)
   16ae9:	0f 93 c0             	setae  %al
   16aec:	0f b6 d0             	movzbl %al,%edx
   16aef:	48 8b 05 12 0e 01 00 	mov    0x10e12(%rip),%rax        # 27908 <g_1454>
   16af6:	48 85 c0             	test   %rax,%rax
   16af9:	0f 95 c0             	setne  %al
   16afc:	0f b6 c0             	movzbl %al,%eax
   16aff:	48 89 d6             	mov    %rdx,%rsi
   16b02:	48 89 c7             	mov    %rax,%rdi
   16b05:	e8 24 55 ff ff       	callq  c02e <safe_add_func_uint64_t_u_u>
   16b0a:	48 8b 05 cf 0d 01 00 	mov    0x10dcf(%rip),%rax        # 278e0 <g_846>
   16b11:	48 8b 00             	mov    (%rax),%rax
   16b14:	48 89 de             	mov    %rbx,%rsi
   16b17:	48 89 c7             	mov    %rax,%rdi
   16b1a:	e8 90 55 ff ff       	callq  c0af <safe_div_func_uint64_t_u_u>
   16b1f:	48 8b 85 e0 e0 ff ff 	mov    -0x1f20(%rbp),%rax
   16b26:	8b 00                	mov    (%rax),%eax
   16b28:	98                   	cwtl   
   16b29:	be 02 00 00 00       	mov    $0x2,%esi
   16b2e:	89 c7                	mov    %eax,%edi
   16b30:	e8 f5 49 ff ff       	callq  b52a <safe_rshift_func_int16_t_s_s>
   16b35:	f7 d0                	not    %eax
   16b37:	66 c1 e8 0f          	shr    $0xf,%ax
   16b3b:	89 c2                	mov    %eax,%edx
   16b3d:	48 8b 85 48 e0 ff ff 	mov    -0x1fb8(%rbp),%rax
   16b44:	0f b6 d2             	movzbl %dl,%edx
   16b47:	89 10                	mov    %edx,(%rax)
   16b49:	8b 00                	mov    (%rax),%eax
   16b4b:	85 c0                	test   %eax,%eax
   16b4d:	74 0f                	je     16b5e <func_53+0x2c60>
   16b4f:	48 8b 05 d2 08 01 00 	mov    0x108d2(%rip),%rax        # 27428 <g_94>
   16b56:	48 8b 00             	mov    (%rax),%rax
   16b59:	e9 0e 14 00 00       	jmpq   17f6c <func_53+0x406e>
   16b5e:	48 c7 85 68 e2 ff ff 	movq   $0x0,-0x1d98(%rbp)
   16b65:	00 00 00 00 
   16b69:	48 8b 05 b0 ca 00 00 	mov    0xcab0(%rip),%rax        # 23620 <g_833>
   16b70:	48 85 c0             	test   %rax,%rax
   16b73:	74 05                	je     16b7a <func_53+0x2c7c>
   16b75:	e9 70 d9 ff ff       	jmpq   144ea <func_53+0x5ec>
   16b7a:	48 8b 85 48 e0 ff ff 	mov    -0x1fb8(%rbp),%rax
   16b81:	8b 00                	mov    (%rax),%eax
   16b83:	85 c0                	test   %eax,%eax
   16b85:	0f b6 05 16 c5 00 00 	movzbl 0xc516(%rip),%eax        # 230a2 <g_111>
   16b8c:	83 c0 01             	add    $0x1,%eax
   16b8f:	88 05 0d c5 00 00    	mov    %al,0xc50d(%rip)        # 230a2 <g_111>
   16b95:	0f b6 05 06 c5 00 00 	movzbl 0xc506(%rip),%eax        # 230a2 <g_111>
   16b9c:	3c 06                	cmp    $0x6,%al
   16b9e:	0f 86 bc e7 ff ff    	jbe    15360 <func_53+0x1462>
   16ba4:	eb 01                	jmp    16ba7 <func_53+0x2ca9>
   16ba6:	90                   	nop
   16ba7:	c7 85 98 de ff ff 00 	movl   $0x0,-0x2168(%rbp)
   16bae:	00 00 00 
   16bb1:	e9 93 00 00 00       	jmpq   16c49 <func_53+0x2d4b>
   16bb6:	c7 85 3c e0 ff ff 8b 	movl   $0x225ad58b,-0x1fc4(%rbp)
   16bbd:	d5 5a 22 
   16bc0:	83 ad 3c e0 ff ff 01 	subl   $0x1,-0x1fc4(%rbp)
   16bc7:	66 c7 05 d0 c4 00 00 	movw   $0xffe9,0xc4d0(%rip)        # 230a0 <g_104>
   16bce:	e9 ff 
   16bd0:	eb 63                	jmp    16c35 <func_53+0x2d37>
   16bd2:	48 8d 05 4f c4 00 00 	lea    0xc44f(%rip),%rax        # 23028 <g_7>
   16bd9:	48 89 85 c8 e2 ff ff 	mov    %rax,-0x1d38(%rbp)
   16be0:	48 8d 05 f1 17 01 00 	lea    0x117f1(%rip),%rax        # 283d8 <g_247>
   16be7:	48 89 85 d0 e2 ff ff 	mov    %rax,-0x1d30(%rbp)
   16bee:	c7 85 90 de ff ff 00 	movl   $0x0,-0x2170(%rbp)
   16bf5:	00 00 00 
   16bf8:	83 bd 90 de ff ff 0f 	cmpl   $0xf,-0x2170(%rbp)
   16bff:	7e 0c                	jle    16c0d <func_53+0x2d0f>
   16c01:	48 8b 85 c8 e2 ff ff 	mov    -0x1d38(%rbp),%rax
   16c08:	e9 5f 13 00 00       	jmpq   17f6c <func_53+0x406e>
   16c0d:	48 83 bd d0 e2 ff ff 	cmpq   $0x0,-0x1d30(%rbp)
   16c14:	00 
   16c15:	0f 95 c2             	setne  %dl
   16c18:	48 8b 85 48 e0 ff ff 	mov    -0x1fb8(%rbp),%rax
   16c1f:	0f b6 d2             	movzbl %dl,%edx
   16c22:	89 10                	mov    %edx,(%rax)
   16c24:	0f b7 05 75 c4 00 00 	movzwl 0xc475(%rip),%eax        # 230a0 <g_104>
   16c2b:	83 c0 01             	add    $0x1,%eax
   16c2e:	66 89 05 6b c4 00 00 	mov    %ax,0xc46b(%rip)        # 230a0 <g_104>
   16c35:	0f b7 05 64 c4 00 00 	movzwl 0xc464(%rip),%eax        # 230a0 <g_104>
   16c3c:	66 83 f8 17          	cmp    $0x17,%ax
   16c40:	76 90                	jbe    16bd2 <func_53+0x2cd4>
   16c42:	83 85 98 de ff ff 01 	addl   $0x1,-0x2168(%rbp)
   16c49:	83 bd 98 de ff ff 3a 	cmpl   $0x3a,-0x2168(%rbp)
   16c50:	0f 84 60 ff ff ff    	je     16bb6 <func_53+0x2cb8>
   16c56:	83 85 94 de ff ff 01 	addl   $0x1,-0x216c(%rbp)
   16c5d:	83 bd 94 de ff ff 0e 	cmpl   $0xe,-0x216c(%rbp)
   16c64:	0f 84 00 e4 ff ff    	je     1506a <func_53+0x116c>
   16c6a:	48 8b 85 e0 e0 ff ff 	mov    -0x1f20(%rbp),%rax
   16c71:	8b 00                	mov    (%rax),%eax
   16c73:	0f be d8             	movsbl %al,%ebx
   16c76:	48 8b 85 40 de ff ff 	mov    -0x21c0(%rbp),%rax
   16c7d:	44 0f b6 e0          	movzbl %al,%r12d
   16c81:	48 8b 05 c0 c9 00 00 	mov    0xc9c0(%rip),%rax        # 23648 <g_1499>
   16c88:	89 c6                	mov    %eax,%esi
   16c8a:	bf 6d 28 c7 bc       	mov    $0xbcc7286d,%edi
   16c8f:	e8 71 49 ff ff       	callq  b605 <safe_sub_func_int32_t_s_s>
   16c94:	0f b6 c0             	movzbl %al,%eax
   16c97:	be 03 00 00 00       	mov    $0x3,%esi
   16c9c:	89 c7                	mov    %eax,%edi
   16c9e:	e8 ea 4f ff ff       	callq  bc8d <safe_rshift_func_uint8_t_u_s>
   16ca3:	0f b6 c0             	movzbl %al,%eax
   16ca6:	48 39 85 40 de ff ff 	cmp    %rax,-0x21c0(%rbp)
   16cad:	0f 9c c0             	setl   %al
   16cb0:	0f b6 c0             	movzbl %al,%eax
   16cb3:	66 89 85 6a de ff ff 	mov    %ax,-0x2196(%rbp)
   16cba:	66 83 bd 6a de ff ff 	cmpw   $0x0,-0x2196(%rbp)
   16cc1:	00 
   16cc2:	74 0b                	je     16ccf <func_53+0x2dd1>
   16cc4:	48 8b 85 e0 e0 ff ff 	mov    -0x1f20(%rbp),%rax
   16ccb:	8b 00                	mov    (%rax),%eax
   16ccd:	85 c0                	test   %eax,%eax
   16ccf:	0f b6 05 52 c9 00 00 	movzbl 0xc952(%rip),%eax        # 23628 <g_927>
   16cd6:	be 04 00 00 00       	mov    $0x4,%esi
   16cdb:	bf ff 00 00 00       	mov    $0xff,%edi
   16ce0:	e8 d9 4f ff ff       	callq  bcbe <safe_rshift_func_uint8_t_u_u>
   16ce5:	0f b6 c0             	movzbl %al,%eax
   16ce8:	f7 d0                	not    %eax
   16cea:	89 c2                	mov    %eax,%edx
   16cec:	48 8b 85 68 e1 ff ff 	mov    -0x1e98(%rbp),%rax
   16cf3:	89 10                	mov    %edx,(%rax)
   16cf5:	48 8b 85 68 e1 ff ff 	mov    -0x1e98(%rbp),%rax
   16cfc:	8b 00                	mov    (%rax),%eax
   16cfe:	85 c0                	test   %eax,%eax
   16d00:	75 09                	jne    16d0b <func_53+0x2e0d>
   16d02:	83 bd 34 de ff ff 00 	cmpl   $0x0,-0x21cc(%rbp)
   16d09:	74 07                	je     16d12 <func_53+0x2e14>
   16d0b:	b8 01 00 00 00       	mov    $0x1,%eax
   16d10:	eb 05                	jmp    16d17 <func_53+0x2e19>
   16d12:	b8 00 00 00 00       	mov    $0x0,%eax
   16d17:	0f be c0             	movsbl %al,%eax
   16d1a:	be 50 00 00 00       	mov    $0x50,%esi
   16d1f:	89 c7                	mov    %eax,%edi
   16d21:	e8 ec 44 ff ff       	callq  b212 <safe_mul_func_int8_t_s_s>
   16d26:	48 8b 85 48 e0 ff ff 	mov    -0x1fb8(%rbp),%rax
   16d2d:	c7 00 11 aa fa b3    	movl   $0xb3faaa11,(%rax)
   16d33:	48 8d 85 54 de ff ff 	lea    -0x21ac(%rbp),%rax
   16d3a:	48 89 85 f8 ec ff ff 	mov    %rax,-0x1308(%rbp)
   16d41:	48 8b 95 f8 ec ff ff 	mov    -0x1308(%rbp),%rdx
   16d48:	48 8b 85 90 e0 ff ff 	mov    -0x1f70(%rbp),%rax
   16d4f:	48 8b 00             	mov    (%rax),%rax
   16d52:	48 8b 00             	mov    (%rax),%rax
   16d55:	48 39 c2             	cmp    %rax,%rdx
   16d58:	0f 94 c0             	sete   %al
   16d5b:	0f b6 c0             	movzbl %al,%eax
   16d5e:	be 11 aa fa b3       	mov    $0xb3faaa11,%esi
   16d63:	89 c7                	mov    %eax,%edi
   16d65:	e8 bb 51 ff ff       	callq  bf25 <safe_div_func_uint32_t_u_u>
   16d6a:	48 8b 85 40 de ff ff 	mov    -0x21c0(%rbp),%rax
   16d71:	98                   	cwtl   
   16d72:	be 00 00 00 00       	mov    $0x0,%esi
   16d77:	89 c7                	mov    %eax,%edi
   16d79:	e8 77 46 ff ff       	callq  b3f5 <safe_mul_func_int16_t_s_s>
   16d7e:	0f b6 c0             	movzbl %al,%eax
   16d81:	44 89 e6             	mov    %r12d,%esi
   16d84:	89 c7                	mov    %eax,%edi
   16d86:	e8 cf 4d ff ff       	callq  bb5a <safe_add_func_uint8_t_u_u>
   16d8b:	48 8b 85 40 e0 ff ff 	mov    -0x1fc0(%rbp),%rax
   16d92:	c6 00 01             	movb   $0x1,(%rax)
   16d95:	0f b6 00             	movzbl (%rax),%eax
   16d98:	0f be c0             	movsbl %al,%eax
   16d9b:	89 de                	mov    %ebx,%esi
   16d9d:	89 c7                	mov    %eax,%edi
   16d9f:	e8 8d 44 ff ff       	callq  b231 <safe_mod_func_int8_t_s_s>
   16da4:	48 0f be c0          	movsbq %al,%rax
   16da8:	48 39 85 40 de ff ff 	cmp    %rax,-0x21c0(%rbp)
   16daf:	0f 9f c0             	setg   %al
   16db2:	0f b6 c0             	movzbl %al,%eax
   16db5:	be ff ff ff ff       	mov    $0xffffffff,%esi
   16dba:	89 c7                	mov    %eax,%edi
   16dbc:	e8 94 46 ff ff       	callq  b455 <safe_div_func_int16_t_s_s>
   16dc1:	c6 85 5a de ff ff f6 	movb   $0xf6,-0x21a6(%rbp)
   16dc8:	48 c7 85 98 e1 ff ff 	movq   $0x0,-0x1e68(%rbp)
   16dcf:	00 00 00 00 
   16dd3:	48 8d 05 e2 c6 00 00 	lea    0xc6e2(%rip),%rax        # 234bc <g_608+0x1c>
   16dda:	48 89 85 a0 e1 ff ff 	mov    %rax,-0x1e60(%rbp)
   16de1:	48 8d 85 84 de ff ff 	lea    -0x217c(%rbp),%rax
   16de8:	48 89 85 c0 e3 ff ff 	mov    %rax,-0x1c40(%rbp)
   16def:	48 8d 85 84 de ff ff 	lea    -0x217c(%rbp),%rax
   16df6:	48 89 85 c8 e3 ff ff 	mov    %rax,-0x1c38(%rbp)
   16dfd:	48 8d 85 84 de ff ff 	lea    -0x217c(%rbp),%rax
   16e04:	48 89 85 d0 e3 ff ff 	mov    %rax,-0x1c30(%rbp)
   16e0b:	48 8d 85 84 de ff ff 	lea    -0x217c(%rbp),%rax
   16e12:	48 89 85 d8 e3 ff ff 	mov    %rax,-0x1c28(%rbp)
   16e19:	48 8d 85 84 de ff ff 	lea    -0x217c(%rbp),%rax
   16e20:	48 89 85 e0 e3 ff ff 	mov    %rax,-0x1c20(%rbp)
   16e27:	c7 85 14 df ff ff dd 	movl   $0xd0ea42dd,-0x20ec(%rbp)
   16e2e:	42 ea d0 
   16e31:	c7 85 18 df ff ff fd 	movl   $0xfffffffd,-0x20e8(%rbp)
   16e38:	ff ff ff 
   16e3b:	c7 85 1c df ff ff 22 	movl   $0x5bc10022,-0x20e4(%rbp)
   16e42:	00 c1 5b 
   16e45:	c7 85 20 df ff ff ff 	movl   $0xffffffff,-0x20e0(%rbp)
   16e4c:	ff ff ff 
   16e4f:	c7 85 24 df ff ff fd 	movl   $0xfffffffd,-0x20dc(%rbp)
   16e56:	ff ff ff 
   16e59:	c7 85 28 df ff ff 69 	movl   $0x9ac31469,-0x20d8(%rbp)
   16e60:	14 c3 9a 
   16e63:	c7 85 80 e5 ff ff f9 	movl   $0xfffffff9,-0x1a80(%rbp)
   16e6a:	ff ff ff 
   16e6d:	c7 85 84 e5 ff ff a1 	movl   $0x73d44ba1,-0x1a7c(%rbp)
   16e74:	4b d4 73 
   16e77:	c7 85 88 e5 ff ff a1 	movl   $0x73d44ba1,-0x1a78(%rbp)
   16e7e:	4b d4 73 
   16e81:	c7 85 8c e5 ff ff f9 	movl   $0xfffffff9,-0x1a74(%rbp)
   16e88:	ff ff ff 
   16e8b:	c7 85 90 e5 ff ff 7a 	movl   $0xa6006c7a,-0x1a70(%rbp)
   16e92:	6c 00 a6 
   16e95:	c7 85 94 e5 ff ff f9 	movl   $0xfffffff9,-0x1a6c(%rbp)
   16e9c:	ff ff ff 
   16e9f:	c7 85 98 e5 ff ff a1 	movl   $0x73d44ba1,-0x1a68(%rbp)
   16ea6:	4b d4 73 
   16ea9:	c7 85 9c e5 ff ff a1 	movl   $0x73d44ba1,-0x1a64(%rbp)
   16eb0:	4b d4 73 
   16eb3:	c7 85 a0 e5 ff ff a1 	movl   $0x73d44ba1,-0x1a60(%rbp)
   16eba:	4b d4 73 
   16ebd:	c7 85 a4 e5 ff ff 7a 	movl   $0xa6006c7a,-0x1a5c(%rbp)
   16ec4:	6c 00 a6 
   16ec7:	c7 85 a8 e5 ff ff 06 	movl   $0x6,-0x1a58(%rbp)
   16ece:	00 00 00 
   16ed1:	c7 85 ac e5 ff ff 06 	movl   $0x6,-0x1a54(%rbp)
   16ed8:	00 00 00 
   16edb:	c7 85 b0 e5 ff ff 7a 	movl   $0xa6006c7a,-0x1a50(%rbp)
   16ee2:	6c 00 a6 
   16ee5:	c7 85 b4 e5 ff ff a1 	movl   $0x73d44ba1,-0x1a4c(%rbp)
   16eec:	4b d4 73 
   16eef:	c7 85 b8 e5 ff ff 7a 	movl   $0xa6006c7a,-0x1a48(%rbp)
   16ef6:	6c 00 a6 
   16ef9:	c7 85 bc e5 ff ff 06 	movl   $0x6,-0x1a44(%rbp)
   16f00:	00 00 00 
   16f03:	c7 85 c0 e5 ff ff f9 	movl   $0xfffffff9,-0x1a40(%rbp)
   16f0a:	ff ff ff 
   16f0d:	c7 85 c4 e5 ff ff 7a 	movl   $0xa6006c7a,-0x1a3c(%rbp)
   16f14:	6c 00 a6 
   16f17:	c7 85 c8 e5 ff ff f9 	movl   $0xfffffff9,-0x1a38(%rbp)
   16f1e:	ff ff ff 
   16f21:	c7 85 cc e5 ff ff a1 	movl   $0x73d44ba1,-0x1a34(%rbp)
   16f28:	4b d4 73 
   16f2b:	c7 85 d0 e5 ff ff a1 	movl   $0x73d44ba1,-0x1a30(%rbp)
   16f32:	4b d4 73 
   16f35:	c7 85 d4 e5 ff ff f9 	movl   $0xfffffff9,-0x1a2c(%rbp)
   16f3c:	ff ff ff 
   16f3f:	c7 85 d8 e5 ff ff 7a 	movl   $0xa6006c7a,-0x1a28(%rbp)
   16f46:	6c 00 a6 
   16f49:	c7 85 dc e5 ff ff f9 	movl   $0xfffffff9,-0x1a24(%rbp)
   16f50:	ff ff ff 
   16f53:	66 c7 85 6c de ff ff 	movw   $0x1ae2,-0x2194(%rbp)
   16f5a:	e2 1a 
   16f5c:	c7 85 2c df ff ff 6d 	movl   $0xae649f6d,-0x20d4(%rbp)
   16f63:	9f 64 ae 
   16f66:	c7 85 30 df ff ff 06 	movl   $0x6,-0x20d0(%rbp)
   16f6d:	00 00 00 
   16f70:	48 8d 85 b8 e0 ff ff 	lea    -0x1f48(%rbp),%rax
   16f77:	48 89 85 a8 e1 ff ff 	mov    %rax,-0x1e58(%rbp)
   16f7e:	c6 85 f0 e2 ff ff 0d 	movb   $0xd,-0x1d10(%rbp)
   16f85:	c6 85 f1 e2 ff ff 01 	movb   $0x1,-0x1d0f(%rbp)
   16f8c:	c6 85 f2 e2 ff ff 06 	movb   $0x6,-0x1d0e(%rbp)
   16f93:	c6 85 f3 e2 ff ff 0d 	movb   $0xd,-0x1d0d(%rbp)
   16f9a:	c6 85 f4 e2 ff ff ff 	movb   $0xff,-0x1d0c(%rbp)
   16fa1:	c6 85 f5 e2 ff ff ff 	movb   $0xff,-0x1d0b(%rbp)
   16fa8:	c6 85 f6 e2 ff ff 0d 	movb   $0xd,-0x1d0a(%rbp)
   16faf:	c6 85 f7 e2 ff ff 06 	movb   $0x6,-0x1d09(%rbp)
   16fb6:	c6 85 f8 e2 ff ff 01 	movb   $0x1,-0x1d08(%rbp)
   16fbd:	c6 85 f9 e2 ff ff 0d 	movb   $0xd,-0x1d07(%rbp)
   16fc4:	c6 85 fa e2 ff ff 01 	movb   $0x1,-0x1d06(%rbp)
   16fcb:	c6 85 fb e2 ff ff 06 	movb   $0x6,-0x1d05(%rbp)
   16fd2:	c6 85 fc e2 ff ff 0d 	movb   $0xd,-0x1d04(%rbp)
   16fd9:	c6 85 fd e2 ff ff ff 	movb   $0xff,-0x1d03(%rbp)
   16fe0:	c6 85 fe e2 ff ff ff 	movb   $0xff,-0x1d02(%rbp)
   16fe7:	c6 85 ff e2 ff ff 0d 	movb   $0xd,-0x1d01(%rbp)
   16fee:	c6 85 00 e3 ff ff 06 	movb   $0x6,-0x1d00(%rbp)
   16ff5:	c6 85 01 e3 ff ff 01 	movb   $0x1,-0x1cff(%rbp)
   16ffc:	c6 85 02 e3 ff ff 0d 	movb   $0xd,-0x1cfe(%rbp)
   17003:	c6 85 03 e3 ff ff 01 	movb   $0x1,-0x1cfd(%rbp)
   1700a:	48 8d 05 d7 08 01 00 	lea    0x108d7(%rip),%rax        # 278e8 <g_845>
   17011:	48 89 85 b0 e1 ff ff 	mov    %rax,-0x1e50(%rbp)
   17018:	c6 85 e8 e2 ff ff 00 	movb   $0x0,-0x1d18(%rbp)
   1701f:	c6 85 e9 e2 ff ff f6 	movb   $0xf6,-0x1d17(%rbp)
   17026:	c6 85 ea e2 ff ff 00 	movb   $0x0,-0x1d16(%rbp)
   1702d:	c6 85 eb e2 ff ff f6 	movb   $0xf6,-0x1d15(%rbp)
   17034:	c6 85 ec e2 ff ff 00 	movb   $0x0,-0x1d14(%rbp)
   1703b:	c6 85 ed e2 ff ff f6 	movb   $0xf6,-0x1d13(%rbp)
   17042:	c6 85 ee e2 ff ff 00 	movb   $0x0,-0x1d12(%rbp)
   17049:	66 c7 85 6e de ff ff 	movw   $0x6,-0x2192(%rbp)
   17050:	06 00 
   17052:	48 8d 05 67 08 01 00 	lea    0x10867(%rip),%rax        # 278c0 <g_463>
   17059:	48 89 85 b8 e1 ff ff 	mov    %rax,-0x1e48(%rbp)
   17060:	66 c7 85 5e de ff ff 	movw   $0x1,-0x21a2(%rbp)
   17067:	01 00 
   17069:	e9 34 03 00 00       	jmpq   173a2 <func_53+0x34a4>
   1706e:	48 8d 05 8b 08 01 00 	lea    0x1088b(%rip),%rax        # 27900 <g_1455>
   17075:	48 89 85 70 e3 ff ff 	mov    %rax,-0x1c90(%rbp)
   1707c:	48 8d 05 7d 08 01 00 	lea    0x1087d(%rip),%rax        # 27900 <g_1455>
   17083:	48 89 85 78 e3 ff ff 	mov    %rax,-0x1c88(%rbp)
   1708a:	48 8d 05 6f 08 01 00 	lea    0x1086f(%rip),%rax        # 27900 <g_1455>
   17091:	48 89 85 80 e3 ff ff 	mov    %rax,-0x1c80(%rbp)
   17098:	48 8d 05 61 08 01 00 	lea    0x10861(%rip),%rax        # 27900 <g_1455>
   1709f:	48 89 85 88 e3 ff ff 	mov    %rax,-0x1c78(%rbp)
   170a6:	48 8d 85 70 e3 ff ff 	lea    -0x1c90(%rbp),%rax
   170ad:	48 83 c0 18          	add    $0x18,%rax
   170b1:	48 89 85 c0 e0 ff ff 	mov    %rax,-0x1f40(%rbp)
   170b8:	48 c7 85 20 e5 ff ff 	movq   $0x0,-0x1ae0(%rbp)
   170bf:	00 00 00 00 
   170c3:	48 8d 85 c0 e0 ff ff 	lea    -0x1f40(%rbp),%rax
   170ca:	48 89 85 28 e5 ff ff 	mov    %rax,-0x1ad8(%rbp)
   170d1:	48 c7 85 30 e5 ff ff 	movq   $0x0,-0x1ad0(%rbp)
   170d8:	00 00 00 00 
   170dc:	48 8d 85 c0 e0 ff ff 	lea    -0x1f40(%rbp),%rax
   170e3:	48 89 85 38 e5 ff ff 	mov    %rax,-0x1ac8(%rbp)
   170ea:	48 c7 85 40 e5 ff ff 	movq   $0x0,-0x1ac0(%rbp)
   170f1:	00 00 00 00 
   170f5:	48 8d 85 c0 e0 ff ff 	lea    -0x1f40(%rbp),%rax
   170fc:	48 89 85 48 e5 ff ff 	mov    %rax,-0x1ab8(%rbp)
   17103:	48 c7 85 50 e5 ff ff 	movq   $0x0,-0x1ab0(%rbp)
   1710a:	00 00 00 00 
   1710e:	48 8d 85 c0 e0 ff ff 	lea    -0x1f40(%rbp),%rax
   17115:	48 89 85 58 e5 ff ff 	mov    %rax,-0x1aa8(%rbp)
   1711c:	48 c7 85 60 e5 ff ff 	movq   $0x0,-0x1aa0(%rbp)
   17123:	00 00 00 00 
   17127:	48 8d 85 a0 e0 ff ff 	lea    -0x1f60(%rbp),%rax
   1712e:	48 89 85 c8 e0 ff ff 	mov    %rax,-0x1f38(%rbp)
   17135:	48 8d 85 c8 e0 ff ff 	lea    -0x1f38(%rbp),%rax
   1713c:	48 89 85 d0 e0 ff ff 	mov    %rax,-0x1f30(%rbp)
   17143:	c7 85 c4 de ff ff 00 	movl   $0x0,-0x213c(%rbp)
   1714a:	00 00 00 
   1714d:	eb 1a                	jmp    17169 <func_53+0x326b>
   1714f:	8b 85 c4 de ff ff    	mov    -0x213c(%rbp),%eax
   17155:	48 98                	cltq   
   17157:	c7 84 85 f0 e3 ff ff 	movl   $0x168fce8f,-0x1c10(%rbp,%rax,4)
   1715e:	8f ce 8f 16 
   17162:	83 85 c4 de ff ff 01 	addl   $0x1,-0x213c(%rbp)
   17169:	83 bd c4 de ff ff 09 	cmpl   $0x9,-0x213c(%rbp)
   17170:	7e dd                	jle    1714f <func_53+0x3251>
   17172:	48 8b 85 48 e0 ff ff 	mov    -0x1fb8(%rbp),%rax
   17179:	48 8b 95 40 de ff ff 	mov    -0x21c0(%rbp),%rdx
   17180:	89 10                	mov    %edx,(%rax)
   17182:	48 8b 05 cf 02 01 00 	mov    0x102cf(%rip),%rax        # 27458 <g_207>
   17189:	48 8b 00             	mov    (%rax),%rax
   1718c:	48 8b 00             	mov    (%rax),%rax
   1718f:	8b 00                	mov    (%rax),%eax
   17191:	85 c0                	test   %eax,%eax
   17193:	0f 85 f1 01 00 00    	jne    1738a <func_53+0x348c>
   17199:	c7 85 a4 de ff ff 00 	movl   $0x0,-0x215c(%rbp)
   171a0:	00 00 00 
   171a3:	e9 d3 01 00 00       	jmpq   1737b <func_53+0x347d>
   171a8:	48 c7 85 28 e2 ff ff 	movq   $0x0,-0x1dd8(%rbp)
   171af:	00 00 00 00 
   171b3:	48 8d 85 54 de ff ff 	lea    -0x21ac(%rbp),%rax
   171ba:	48 89 85 30 e2 ff ff 	mov    %rax,-0x1dd0(%rbp)
   171c1:	48 8d 85 d0 e0 ff ff 	lea    -0x1f30(%rbp),%rax
   171c8:	48 89 85 38 e2 ff ff 	mov    %rax,-0x1dc8(%rbp)
   171cf:	48 8d 85 00 f9 ff ff 	lea    -0x700(%rbp),%rax
   171d6:	48 8d 15 03 7d 00 00 	lea    0x7d03(%rip),%rdx        # 1eee0 <g_3481+0x1e40>
   171dd:	b9 78 00 00 00       	mov    $0x78,%ecx
   171e2:	48 89 c7             	mov    %rax,%rdi
   171e5:	48 89 d6             	mov    %rdx,%rsi
   171e8:	f3 48 a5             	rep movsq %ds:(%rsi),%es:(%rdi)
   171eb:	48 8b 85 28 e5 ff ff 	mov    -0x1ad8(%rbp),%rax
   171f2:	48 89 05 b7 07 01 00 	mov    %rax,0x107b7(%rip)        # 279b0 <g_2197>
   171f9:	48 8b 85 40 de ff ff 	mov    -0x21c0(%rbp),%rax
   17200:	89 c3                	mov    %eax,%ebx
   17202:	48 8b 05 1f 02 01 00 	mov    0x1021f(%rip),%rax        # 27428 <g_94>
   17209:	48 c7 00 00 00 00 00 	movq   $0x0,(%rax)
   17210:	48 8b 00             	mov    (%rax),%rax
   17213:	48 39 85 48 de ff ff 	cmp    %rax,-0x21b8(%rbp)
   1721a:	0f 95 c0             	setne  %al
   1721d:	89 c2                	mov    %eax,%edx
   1721f:	48 8b 85 30 e2 ff ff 	mov    -0x1dd0(%rbp),%rax
   17226:	88 10                	mov    %dl,(%rax)
   17228:	48 8b 85 30 e2 ff ff 	mov    -0x1dd0(%rbp),%rax
   1722f:	0f b6 00             	movzbl (%rax),%eax
   17232:	0f be c0             	movsbl %al,%eax
   17235:	be 02 00 00 00       	mov    $0x2,%esi
   1723a:	89 c7                	mov    %eax,%edi
   1723c:	e8 f4 40 ff ff       	callq  b335 <safe_rshift_func_int8_t_s_s>
   17241:	8b 85 f8 e3 ff ff    	mov    -0x1c08(%rbp),%eax
   17247:	41 89 c4             	mov    %eax,%r12d
   1724a:	48 8b 05 57 06 01 00 	mov    0x10657(%rip),%rax        # 278a8 <g_431>
   17251:	0f b6 00             	movzbl (%rax),%eax
   17254:	84 c0                	test   %al,%al
   17256:	75 08                	jne    17260 <func_53+0x3362>
   17258:	0f b6 45 d0          	movzbl -0x30(%rbp),%eax
   1725c:	84 c0                	test   %al,%al
   1725e:	74 07                	je     17267 <func_53+0x3369>
   17260:	b8 01 00 00 00       	mov    $0x1,%eax
   17265:	eb 05                	jmp    1726c <func_53+0x336e>
   17267:	b8 00 00 00 00       	mov    $0x0,%eax
   1726c:	0f b7 c0             	movzwl %ax,%eax
   1726f:	be 04 00 00 00       	mov    $0x4,%esi
   17274:	89 c7                	mov    %eax,%edi
   17276:	e8 43 4b ff ff       	callq  bdbe <safe_lshift_func_uint16_t_u_s>
   1727b:	0f b7 c0             	movzwl %ax,%eax
   1727e:	4c 89 e6             	mov    %r12,%rsi
   17281:	48 89 c7             	mov    %rax,%rdi
   17284:	e8 f7 4d ff ff       	callq  c080 <safe_mod_func_uint64_t_u_u>
   17289:	48 89 c2             	mov    %rax,%rdx
   1728c:	48 8b 85 98 e0 ff ff 	mov    -0x1f68(%rbp),%rax
   17293:	48 8b 00             	mov    (%rax),%rax
   17296:	48 8b 00             	mov    (%rax),%rax
   17299:	48 8b 00             	mov    (%rax),%rax
   1729c:	88 10                	mov    %dl,(%rax)
   1729e:	0f b6 00             	movzbl (%rax),%eax
   172a1:	3c 01                	cmp    $0x1,%al
   172a3:	0f 9e c0             	setle  %al
   172a6:	0f b6 c8             	movzbl %al,%ecx
   172a9:	48 8b 95 d0 e0 ff ff 	mov    -0x1f30(%rbp),%rdx
   172b0:	48 8b 85 38 e2 ff ff 	mov    -0x1dc8(%rbp),%rax
   172b7:	48 89 10             	mov    %rdx,(%rax)
   172ba:	48 8b 85 38 e2 ff ff 	mov    -0x1dc8(%rbp),%rax
   172c1:	48 8b 10             	mov    (%rax),%rdx
   172c4:	48 8d 85 c8 e0 ff ff 	lea    -0x1f38(%rbp),%rax
   172cb:	48 39 c2             	cmp    %rax,%rdx
   172ce:	0f 94 c0             	sete   %al
   172d1:	0f b6 c0             	movzbl %al,%eax
   172d4:	39 c1                	cmp    %eax,%ecx
   172d6:	0f 9f c0             	setg   %al
   172d9:	89 c2                	mov    %eax,%edx
   172db:	48 8b 85 40 de ff ff 	mov    -0x21c0(%rbp),%rax
   172e2:	31 d0                	xor    %edx,%eax
   172e4:	0f b6 c0             	movzbl %al,%eax
   172e7:	89 de                	mov    %ebx,%esi
   172e9:	89 c7                	mov    %eax,%edi
   172eb:	e8 9d 49 ff ff       	callq  bc8d <safe_rshift_func_uint8_t_u_s>
   172f0:	84 c0                	test   %al,%al
   172f2:	74 1e                	je     17312 <func_53+0x3414>
   172f4:	48 8d 85 10 e3 ff ff 	lea    -0x1cf0(%rbp),%rax
   172fb:	48 83 c0 0c          	add    $0xc,%rax
   172ff:	48 89 85 40 e2 ff ff 	mov    %rax,-0x1dc0(%rbp)
   17306:	48 8b 85 48 de ff ff 	mov    -0x21b8(%rbp),%rax
   1730d:	e9 5a 0c 00 00       	jmpq   17f6c <func_53+0x406e>
   17312:	48 83 bd 40 de ff ff 	cmpq   $0x0,-0x21c0(%rbp)
   17319:	00 
   1731a:	75 71                	jne    1738d <func_53+0x348f>
   1731c:	8b 85 f8 e3 ff ff    	mov    -0x1c08(%rbp),%eax
   17322:	85 c0                	test   %eax,%eax
   17324:	75 6a                	jne    17390 <func_53+0x3492>
   17326:	be 00 00 00 00       	mov    $0x0,%esi
   1732b:	bf 01 00 00 00       	mov    $0x1,%edi
   17330:	e8 58 49 ff ff       	callq  bc8d <safe_rshift_func_uint8_t_u_s>
   17335:	0f b6 c0             	movzbl %al,%eax
   17338:	be 04 00 00 00       	mov    $0x4,%esi
   1733d:	89 c7                	mov    %eax,%edi
   1733f:	e8 1f 42 ff ff       	callq  b563 <safe_rshift_func_int16_t_s_u>
   17344:	0f b7 d0             	movzwl %ax,%edx
   17347:	8b 85 a0 fc ff ff    	mov    -0x360(%rbp),%eax
   1734d:	0f b7 c0             	movzwl %ax,%eax
   17350:	89 d6                	mov    %edx,%esi
   17352:	89 c7                	mov    %eax,%edi
   17354:	e8 03 4a ff ff       	callq  bd5c <safe_mod_func_uint16_t_u_u>
   17359:	0f b7 c0             	movzwl %ax,%eax
   1735c:	f7 d0                	not    %eax
   1735e:	89 c2                	mov    %eax,%edx
   17360:	48 8b 85 18 e1 ff ff 	mov    -0x1ee8(%rbp),%rax
   17367:	8b 00                	mov    (%rax),%eax
   17369:	21 c2                	and    %eax,%edx
   1736b:	48 8b 85 18 e1 ff ff 	mov    -0x1ee8(%rbp),%rax
   17372:	89 10                	mov    %edx,(%rax)
   17374:	83 85 a4 de ff ff 01 	addl   $0x1,-0x215c(%rbp)
   1737b:	83 bd a4 de ff ff 05 	cmpl   $0x5,-0x215c(%rbp)
   17382:	0f 86 20 fe ff ff    	jbe    171a8 <func_53+0x32aa>
   17388:	eb 07                	jmp    17391 <func_53+0x3493>
   1738a:	90                   	nop
   1738b:	eb 04                	jmp    17391 <func_53+0x3493>
   1738d:	90                   	nop
   1738e:	eb 01                	jmp    17391 <func_53+0x3493>
   17390:	90                   	nop
   17391:	0f b7 85 5e de ff ff 	movzwl -0x21a2(%rbp),%eax
   17398:	83 c0 01             	add    $0x1,%eax
   1739b:	66 89 85 5e de ff ff 	mov    %ax,-0x21a2(%rbp)
   173a2:	0f b7 85 5e de ff ff 	movzwl -0x21a2(%rbp),%eax
   173a9:	66 83 f8 05          	cmp    $0x5,%ax
   173ad:	0f 86 bb fc ff ff    	jbe    1706e <func_53+0x3170>
   173b3:	0f b6 85 5a de ff ff 	movzbl -0x21a6(%rbp),%eax
   173ba:	89 c6                	mov    %eax,%esi
   173bc:	bf 44 00 00 00       	mov    $0x44,%edi
   173c1:	e8 cd 47 ff ff       	callq  bb93 <safe_mul_func_uint8_t_u_u>
   173c6:	0f b6 55 d3          	movzbl -0x2d(%rbp),%edx
   173ca:	48 8b 85 f8 e0 ff ff 	mov    -0x1f08(%rbp),%rax
   173d1:	0f b7 00             	movzwl (%rax),%eax
   173d4:	89 c1                	mov    %eax,%ecx
   173d6:	66 0f be c2          	movsbw %dl,%ax
   173da:	31 c8                	xor    %ecx,%eax
   173dc:	89 c2                	mov    %eax,%edx
   173de:	48 8b 85 f8 e0 ff ff 	mov    -0x1f08(%rbp),%rax
   173e5:	66 89 10             	mov    %dx,(%rax)
   173e8:	48 8b 85 f8 e0 ff ff 	mov    -0x1f08(%rbp),%rax
   173ef:	0f b7 00             	movzwl (%rax),%eax
   173f2:	0f b7 c0             	movzwl %ax,%eax
   173f5:	89 c6                	mov    %eax,%esi
   173f7:	bf 00 00 00 00       	mov    $0x0,%edi
   173fc:	e8 05 4a ff ff       	callq  be06 <safe_lshift_func_uint16_t_u_u>
   17401:	48 8b 05 d8 04 01 00 	mov    0x104d8(%rip),%rax        # 278e0 <g_846>
   17408:	48 8b 00             	mov    (%rax),%rax
   1740b:	48 85 c0             	test   %rax,%rax
   1740e:	74 17                	je     17427 <func_53+0x3529>
   17410:	48 8d 05 31 05 01 00 	lea    0x10531(%rip),%rax        # 27948 <g_1770>
   17417:	48 39 85 70 e1 ff ff 	cmp    %rax,-0x1e90(%rbp)
   1741e:	74 07                	je     17427 <func_53+0x3529>
   17420:	b8 01 00 00 00       	mov    $0x1,%eax
   17425:	eb 05                	jmp    1742c <func_53+0x352e>
   17427:	b8 00 00 00 00       	mov    $0x0,%eax
   1742c:	85 c0                	test   %eax,%eax
   1742e:	0f 95 c0             	setne  %al
   17431:	0f b6 c0             	movzbl %al,%eax
   17434:	be 52 00 00 00       	mov    $0x52,%esi
   17439:	89 c7                	mov    %eax,%edi
   1743b:	e8 53 47 ff ff       	callq  bb93 <safe_mul_func_uint8_t_u_u>
   17440:	0f b6 d0             	movzbl %al,%edx
   17443:	0f b7 05 5a bc 00 00 	movzwl 0xbc5a(%rip),%eax        # 230a4 <g_206>
   1744a:	31 d0                	xor    %edx,%eax
   1744c:	66 89 05 51 bc 00 00 	mov    %ax,0xbc51(%rip)        # 230a4 <g_206>
   17453:	0f b7 05 4a bc 00 00 	movzwl 0xbc4a(%rip),%eax        # 230a4 <g_206>
   1745a:	98                   	cwtl   
   1745b:	be e4 ce ff ff       	mov    $0xffffcee4,%esi
   17460:	89 c7                	mov    %eax,%edi
   17462:	e8 4c 3f ff ff       	callq  b3b3 <safe_add_func_int16_t_s_s>
   17467:	66 85 c0             	test   %ax,%ax
   1746a:	0f 84 fb 05 00 00    	je     17a6b <func_53+0x3b6d>
   17470:	c6 85 5b de ff ff 00 	movb   $0x0,-0x21a5(%rbp)
   17477:	48 8d 05 7a 04 01 00 	lea    0x1047a(%rip),%rax        # 278f8 <g_912>
   1747e:	48 89 85 c0 e1 ff ff 	mov    %rax,-0x1e40(%rbp)
   17485:	c7 85 50 df ff ff 64 	movl   $0x3aed9c64,-0x20b0(%rbp)
   1748c:	9c ed 3a 
   1748f:	48 8d 05 02 5c 00 00 	lea    0x5c02(%rip),%rax        # 1d098 <g_2263>
   17496:	48 89 85 c0 e0 ff ff 	mov    %rax,-0x1f40(%rbp)
   1749d:	48 8d 85 c0 e0 ff ff 	lea    -0x1f40(%rbp),%rax
   174a4:	48 89 85 c8 e1 ff ff 	mov    %rax,-0x1e38(%rbp)
   174ab:	c7 85 54 df ff ff f7 	movl   $0xfffffff7,-0x20ac(%rbp)
   174b2:	ff ff ff 
   174b5:	c7 85 58 df ff ff 18 	movl   $0x934ee118,-0x20a8(%rbp)
   174bc:	e1 4e 93 
   174bf:	c7 85 5c df ff ff 01 	movl   $0x1,-0x20a4(%rbp)
   174c6:	00 00 00 
   174c9:	c7 85 60 df ff ff 85 	movl   $0x78199d85,-0x20a0(%rbp)
   174d0:	9d 19 78 
   174d3:	c7 85 64 df ff ff dd 	movl   $0x16ab16dd,-0x209c(%rbp)
   174da:	16 ab 16 
   174dd:	c7 85 68 df ff ff 42 	movl   $0x5e27bf42,-0x2098(%rbp)
   174e4:	bf 27 5e 
   174e7:	c7 85 6c df ff ff 06 	movl   $0x6,-0x2094(%rbp)
   174ee:	00 00 00 
   174f1:	c7 85 70 df ff ff 07 	movl   $0x7,-0x2090(%rbp)
   174f8:	00 00 00 
   174fb:	c7 85 c8 de ff ff 6f 	movl   $0xc7381f6f,-0x2138(%rbp)
   17502:	1f 38 c7 
   17505:	c7 85 74 df ff ff ff 	movl   $0xffffffff,-0x208c(%rbp)
   1750c:	ff ff ff 
   1750f:	c7 85 78 df ff ff c6 	movl   $0xc379bcc6,-0x2088(%rbp)
   17516:	bc 79 c3 
   17519:	c7 85 7c df ff ff ff 	movl   $0xffffffff,-0x2084(%rbp)
   17520:	ff ff ff 
   17523:	c7 85 80 df ff ff ff 	movl   $0xffffffff,-0x2080(%rbp)
   1752a:	ff ff ff 
   1752d:	c7 85 84 df ff ff 01 	movl   $0x1,-0x207c(%rbp)
   17534:	00 00 00 
   17537:	c7 85 88 df ff ff 00 	movl   $0x0,-0x2078(%rbp)
   1753e:	00 00 00 
   17541:	c7 85 8c df ff ff 00 	movl   $0x0,-0x2074(%rbp)
   17548:	00 00 00 
   1754b:	c7 85 90 df ff ff 00 	movl   $0x0,-0x2070(%rbp)
   17552:	00 00 00 
   17555:	c7 85 94 df ff ff 06 	movl   $0x6,-0x206c(%rbp)
   1755c:	00 00 00 
   1755f:	c7 85 98 df ff ff ff 	movl   $0xffffffff,-0x2068(%rbp)
   17566:	ff ff ff 
   17569:	c7 85 9c df ff ff 00 	movl   $0x0,-0x2064(%rbp)
   17570:	00 00 00 
   17573:	66 c7 85 70 de ff ff 	movw   $0xf402,-0x2190(%rbp)
   1757a:	02 f4 
   1757c:	c7 85 a0 df ff ff 8c 	movl   $0x3a21b78c,-0x2060(%rbp)
   17583:	b7 21 3a 
   17586:	c7 85 a4 df ff ff 01 	movl   $0x1,-0x205c(%rbp)
   1758d:	00 00 00 
   17590:	c7 85 a8 df ff ff 03 	movl   $0x7b8a5f03,-0x2058(%rbp)
   17597:	5f 8a 7b 
   1759a:	c7 85 ac df ff ff 7d 	movl   $0x50e6e27d,-0x2054(%rbp)
   175a1:	e2 e6 50 
   175a4:	c7 85 b0 df ff ff 5a 	movl   $0x60f1475a,-0x2050(%rbp)
   175ab:	47 f1 60 
   175ae:	c7 85 b4 df ff ff ec 	movl   $0xf746a6ec,-0x204c(%rbp)
   175b5:	a6 46 f7 
   175b8:	c7 85 00 f9 ff ff fd 	movl   $0xfffffffd,-0x700(%rbp)
   175bf:	ff ff ff 
   175c2:	c7 85 04 f9 ff ff fd 	movl   $0xfffffffd,-0x6fc(%rbp)
   175c9:	ff ff ff 
   175cc:	c7 85 08 f9 ff ff f9 	movl   $0xfffffff9,-0x6f8(%rbp)
   175d3:	ff ff ff 
   175d6:	c7 85 0c f9 ff ff f9 	movl   $0xfffffff9,-0x6f4(%rbp)
   175dd:	ff ff ff 
   175e0:	c7 85 10 f9 ff ff fd 	movl   $0xfffffffd,-0x6f0(%rbp)
   175e7:	ff ff ff 
   175ea:	c7 85 14 f9 ff ff fd 	movl   $0xfffffffd,-0x6ec(%rbp)
   175f1:	ff ff ff 
   175f4:	c7 85 18 f9 ff ff f9 	movl   $0xfffffff9,-0x6e8(%rbp)
   175fb:	ff ff ff 
   175fe:	c7 85 1c f9 ff ff f7 	movl   $0xfffffff7,-0x6e4(%rbp)
   17605:	ff ff ff 
   17608:	c7 85 20 f9 ff ff 00 	movl   $0x0,-0x6e0(%rbp)
   1760f:	00 00 00 
   17612:	c7 85 24 f9 ff ff f7 	movl   $0xfffffff7,-0x6dc(%rbp)
   17619:	ff ff ff 
   1761c:	c7 85 28 f9 ff ff 00 	movl   $0x0,-0x6d8(%rbp)
   17623:	00 00 00 
   17626:	c7 85 2c f9 ff ff f7 	movl   $0xfffffff7,-0x6d4(%rbp)
   1762d:	ff ff ff 
   17630:	c7 85 30 f9 ff ff 00 	movl   $0x0,-0x6d0(%rbp)
   17637:	00 00 00 
   1763a:	c7 85 34 f9 ff ff f7 	movl   $0xfffffff7,-0x6cc(%rbp)
   17641:	ff ff ff 
   17644:	c7 85 38 f9 ff ff fd 	movl   $0xfffffffd,-0x6c8(%rbp)
   1764b:	ff ff ff 
   1764e:	c7 85 3c f9 ff ff f9 	movl   $0xfffffff9,-0x6c4(%rbp)
   17655:	ff ff ff 
   17658:	c7 85 40 f9 ff ff f9 	movl   $0xfffffff9,-0x6c0(%rbp)
   1765f:	ff ff ff 
   17662:	c7 85 44 f9 ff ff fd 	movl   $0xfffffffd,-0x6bc(%rbp)
   17669:	ff ff ff 
   1766c:	c7 85 48 f9 ff ff fd 	movl   $0xfffffffd,-0x6b8(%rbp)
   17673:	ff ff ff 
   17676:	c7 85 4c f9 ff ff f9 	movl   $0xfffffff9,-0x6b4(%rbp)
   1767d:	ff ff ff 
   17680:	c7 85 50 f9 ff ff f9 	movl   $0xfffffff9,-0x6b0(%rbp)
   17687:	ff ff ff 
   1768a:	c7 85 54 f9 ff ff 01 	movl   $0x1,-0x6ac(%rbp)
   17691:	00 00 00 
   17694:	c7 85 58 f9 ff ff 00 	movl   $0x0,-0x6a8(%rbp)
   1769b:	00 00 00 
   1769e:	c7 85 5c f9 ff ff 01 	movl   $0x1,-0x6a4(%rbp)
   176a5:	00 00 00 
   176a8:	c7 85 60 f9 ff ff 00 	movl   $0x0,-0x6a0(%rbp)
   176af:	00 00 00 
   176b2:	c7 85 64 f9 ff ff 01 	movl   $0x1,-0x69c(%rbp)
   176b9:	00 00 00 
   176bc:	c7 85 68 f9 ff ff 00 	movl   $0x0,-0x698(%rbp)
   176c3:	00 00 00 
   176c6:	c7 85 6c f9 ff ff 01 	movl   $0x1,-0x694(%rbp)
   176cd:	00 00 00 
   176d0:	c7 85 70 f9 ff ff fd 	movl   $0xfffffffd,-0x690(%rbp)
   176d7:	ff ff ff 
   176da:	c7 85 74 f9 ff ff fd 	movl   $0xfffffffd,-0x68c(%rbp)
   176e1:	ff ff ff 
   176e4:	c7 85 78 f9 ff ff f9 	movl   $0xfffffff9,-0x688(%rbp)
   176eb:	ff ff ff 
   176ee:	c7 85 7c f9 ff ff f9 	movl   $0xfffffff9,-0x684(%rbp)
   176f5:	ff ff ff 
   176f8:	c7 85 80 f9 ff ff fd 	movl   $0xfffffffd,-0x680(%rbp)
   176ff:	ff ff ff 
   17702:	c7 85 84 f9 ff ff fd 	movl   $0xfffffffd,-0x67c(%rbp)
   17709:	ff ff ff 
   1770c:	c7 85 88 f9 ff ff f9 	movl   $0xfffffff9,-0x678(%rbp)
   17713:	ff ff ff 
   17716:	c7 85 8c f9 ff ff f7 	movl   $0xfffffff7,-0x674(%rbp)
   1771d:	ff ff ff 
   17720:	c7 85 90 f9 ff ff 00 	movl   $0x0,-0x670(%rbp)
   17727:	00 00 00 
   1772a:	c7 85 94 f9 ff ff f7 	movl   $0xfffffff7,-0x66c(%rbp)
   17731:	ff ff ff 
   17734:	c7 85 98 f9 ff ff 00 	movl   $0x0,-0x668(%rbp)
   1773b:	00 00 00 
   1773e:	c7 85 9c f9 ff ff f7 	movl   $0xfffffff7,-0x664(%rbp)
   17745:	ff ff ff 
   17748:	c7 85 a0 f9 ff ff 00 	movl   $0x0,-0x660(%rbp)
   1774f:	00 00 00 
   17752:	c7 85 a4 f9 ff ff f7 	movl   $0xfffffff7,-0x65c(%rbp)
   17759:	ff ff ff 
   1775c:	c7 85 a8 f9 ff ff fd 	movl   $0xfffffffd,-0x658(%rbp)
   17763:	ff ff ff 
   17766:	c7 85 ac f9 ff ff f9 	movl   $0xfffffff9,-0x654(%rbp)
   1776d:	ff ff ff 
   17770:	c7 85 b0 f9 ff ff f9 	movl   $0xfffffff9,-0x650(%rbp)
   17777:	ff ff ff 
   1777a:	c7 85 b4 f9 ff ff fd 	movl   $0xfffffffd,-0x64c(%rbp)
   17781:	ff ff ff 
   17784:	c7 85 b8 f9 ff ff fd 	movl   $0xfffffffd,-0x648(%rbp)
   1778b:	ff ff ff 
   1778e:	c7 85 bc f9 ff ff f9 	movl   $0xfffffff9,-0x644(%rbp)
   17795:	ff ff ff 
   17798:	c7 85 c0 f9 ff ff f9 	movl   $0xfffffff9,-0x640(%rbp)
   1779f:	ff ff ff 
   177a2:	c7 85 c4 f9 ff ff 01 	movl   $0x1,-0x63c(%rbp)
   177a9:	00 00 00 
   177ac:	c7 85 c8 f9 ff ff 00 	movl   $0x0,-0x638(%rbp)
   177b3:	00 00 00 
   177b6:	c7 85 cc f9 ff ff 01 	movl   $0x1,-0x634(%rbp)
   177bd:	00 00 00 
   177c0:	c7 85 d0 f9 ff ff 00 	movl   $0x0,-0x630(%rbp)
   177c7:	00 00 00 
   177ca:	c7 85 d4 f9 ff ff 01 	movl   $0x1,-0x62c(%rbp)
   177d1:	00 00 00 
   177d4:	c7 85 d8 f9 ff ff 00 	movl   $0x0,-0x628(%rbp)
   177db:	00 00 00 
   177de:	c7 85 dc f9 ff ff 01 	movl   $0x1,-0x624(%rbp)
   177e5:	00 00 00 
   177e8:	48 c7 85 d0 e1 ff ff 	movq   $0xfffffffffffffff6,-0x1e30(%rbp)
   177ef:	f6 ff ff ff 
   177f3:	66 c7 85 72 de ff ff 	movw   $0xfff7,-0x218e(%rbp)
   177fa:	f7 ff 
   177fc:	48 8d 05 e5 00 01 00 	lea    0x100e5(%rip),%rax        # 278e8 <g_845>
   17803:	48 89 85 c8 e0 ff ff 	mov    %rax,-0x1f38(%rbp)
   1780a:	48 8d 85 c8 e0 ff ff 	lea    -0x1f38(%rbp),%rax
   17811:	48 89 85 d0 e0 ff ff 	mov    %rax,-0x1f30(%rbp)
   17818:	48 8d 85 d0 e0 ff ff 	lea    -0x1f30(%rbp),%rax
   1781f:	48 89 85 d8 e1 ff ff 	mov    %rax,-0x1e28(%rbp)
   17826:	c7 85 cc de ff ff 00 	movl   $0x0,-0x2134(%rbp)
   1782d:	00 00 00 
   17830:	eb 19                	jmp    1784b <func_53+0x394d>
   17832:	8b 85 cc de ff ff    	mov    -0x2134(%rbp),%eax
   17838:	48 98                	cltq   
   1783a:	66 c7 84 45 20 e5 ff 	movw   $0x8588,-0x1ae0(%rbp,%rax,2)
   17841:	ff 88 85 
   17844:	83 85 cc de ff ff 01 	addl   $0x1,-0x2134(%rbp)
   1784b:	83 bd cc de ff ff 02 	cmpl   $0x2,-0x2134(%rbp)
   17852:	7e de                	jle    17832 <func_53+0x3934>
   17854:	48 8b 85 78 e1 ff ff 	mov    -0x1e88(%rbp),%rax
   1785b:	48 8b 00             	mov    (%rax),%rax
   1785e:	48 8b 00             	mov    (%rax),%rax
   17861:	48 8b 95 48 de ff ff 	mov    -0x21b8(%rbp),%rdx
   17868:	48 89 10             	mov    %rdx,(%rax)
   1786b:	48 8b 85 c8 e1 ff ff 	mov    -0x1e38(%rbp),%rax
   17872:	48 8b 95 38 de ff ff 	mov    -0x21c8(%rbp),%rdx
   17879:	48 89 10             	mov    %rdx,(%rax)
   1787c:	48 8b 85 c8 e1 ff ff 	mov    -0x1e38(%rbp),%rax
   17883:	48 8b 00             	mov    (%rax),%rax
   17886:	48 89 85 e0 e3 ff ff 	mov    %rax,-0x1c20(%rbp)
   1788d:	48 83 ad d0 e1 ff ff 	subq   $0x1,-0x1e30(%rbp)
   17894:	01 
   17895:	48 8b 05 8c fb 00 00 	mov    0xfb8c(%rip),%rax        # 27428 <g_94>
   1789c:	48 8b 00             	mov    (%rax),%rax
   1789f:	48 85 c0             	test   %rax,%rax
   178a2:	0f 94 c0             	sete   %al
   178a5:	44 0f b6 e0          	movzbl %al,%r12d
   178a9:	48 8b 85 e0 e0 ff ff 	mov    -0x1f20(%rbp),%rax
   178b0:	8b 00                	mov    (%rax),%eax
   178b2:	0f be d8             	movsbl %al,%ebx
   178b5:	48 8b 05 f4 ff 00 00 	mov    0xfff4(%rip),%rax        # 278b0 <g_430>
   178bc:	48 8b 00             	mov    (%rax),%rax
   178bf:	0f b6 00             	movzbl (%rax),%eax
   178c2:	0f b6 c0             	movzbl %al,%eax
   178c5:	be 02 00 00 00       	mov    $0x2,%esi
   178ca:	89 c7                	mov    %eax,%edi
   178cc:	e8 ed 43 ff ff       	callq  bcbe <safe_rshift_func_uint8_t_u_u>
   178d1:	f7 d0                	not    %eax
   178d3:	0f be c0             	movsbl %al,%eax
   178d6:	89 de                	mov    %ebx,%esi
   178d8:	89 c7                	mov    %eax,%edi
   178da:	e8 33 39 ff ff       	callq  b212 <safe_mul_func_int8_t_s_s>
   178df:	0f be d0             	movsbl %al,%edx
   178e2:	0f bf 85 72 de ff ff 	movswl -0x218e(%rbp),%eax
   178e9:	89 d6                	mov    %edx,%esi
   178eb:	89 c7                	mov    %eax,%edi
   178ed:	e8 63 3b ff ff       	callq  b455 <safe_div_func_int16_t_s_s>
   178f2:	98                   	cwtl   
   178f3:	41 39 c4             	cmp    %eax,%r12d
   178f6:	0f 8d ba 00 00 00    	jge    179b6 <func_53+0x3ab8>
   178fc:	48 c7 85 e8 e1 ff ff 	movq   $0x0,-0x1e18(%rbp)
   17903:	00 00 00 00 
   17907:	48 8d 05 22 fb 00 00 	lea    0xfb22(%rip),%rax        # 27430 <g_209>
   1790e:	48 89 85 f0 e1 ff ff 	mov    %rax,-0x1e10(%rbp)
   17915:	48 8b 85 f0 e1 ff ff 	mov    -0x1e10(%rbp),%rax
   1791c:	48 8b 95 e8 e1 ff ff 	mov    -0x1e18(%rbp),%rdx
   17923:	48 89 10             	mov    %rdx,(%rax)
   17926:	48 c7 85 a0 e0 ff ff 	movq   $0x16,-0x1f60(%rbp)
   1792d:	16 00 00 00 
   17931:	eb 71                	jmp    179a4 <func_53+0x3aa6>
   17933:	c7 85 b8 df ff ff 33 	movl   $0x2485d133,-0x2048(%rbp)
   1793a:	d1 85 24 
   1793d:	48 8b 85 68 e1 ff ff 	mov    -0x1e98(%rbp),%rax
   17944:	8b 00                	mov    (%rax),%eax
   17946:	48 8d 15 d3 0a 01 00 	lea    0x10ad3(%rip),%rdx        # 28420 <g_2320>
   1794d:	48 85 d2             	test   %rdx,%rdx
   17950:	0f 95 c2             	setne  %dl
   17953:	0f b6 d2             	movzbl %dl,%edx
   17956:	f7 d2                	not    %edx
   17958:	21 c2                	and    %eax,%edx
   1795a:	48 8b 85 68 e1 ff ff 	mov    -0x1e98(%rbp),%rax
   17961:	89 10                	mov    %edx,(%rax)
   17963:	48 8b 85 48 e0 ff ff 	mov    -0x1fb8(%rbp),%rax
   1796a:	8b 10                	mov    (%rax),%edx
   1796c:	48 8b 85 48 e0 ff ff 	mov    -0x1fb8(%rbp),%rax
   17973:	81 e2 dd d6 40 aa    	and    $0xaa40d6dd,%edx
   17979:	89 10                	mov    %edx,(%rax)
   1797b:	48 8b 85 78 e1 ff ff 	mov    -0x1e88(%rbp),%rax
   17982:	48 8b 00             	mov    (%rax),%rax
   17985:	48 8b 00             	mov    (%rax),%rax
   17988:	48 8b 95 48 de ff ff 	mov    -0x21b8(%rbp),%rdx
   1798f:	48 89 10             	mov    %rdx,(%rax)
   17992:	48 8b 85 a0 e0 ff ff 	mov    -0x1f60(%rbp),%rax
   17999:	48 83 e8 01          	sub    $0x1,%rax
   1799d:	48 89 85 a0 e0 ff ff 	mov    %rax,-0x1f60(%rbp)
   179a4:	48 8b 85 a0 e0 ff ff 	mov    -0x1f60(%rbp),%rax
   179ab:	48 83 f8 08          	cmp    $0x8,%rax
   179af:	7f 82                	jg     17933 <func_53+0x3a35>
   179b1:	e9 09 02 00 00       	jmpq   17bbf <func_53+0x3cc1>
   179b6:	66 c7 85 74 de ff ff 	movw   $0xe7ff,-0x218c(%rbp)
   179bd:	ff e7 
   179bf:	c7 85 c8 de ff ff e9 	movl   $0xffffffe9,-0x2138(%rbp)
   179c6:	ff ff ff 
   179c9:	eb 71                	jmp    17a3c <func_53+0x3b3e>
   179cb:	48 c7 85 e0 e1 ff ff 	movq   $0x0,-0x1e20(%rbp)
   179d2:	00 00 00 00 
   179d6:	48 c7 85 d8 e1 ff ff 	movq   $0x0,-0x1e28(%rbp)
   179dd:	00 00 00 00 
   179e1:	48 8b 85 e0 e1 ff ff 	mov    -0x1e20(%rbp),%rax
   179e8:	48 89 85 30 e1 ff ff 	mov    %rax,-0x1ed0(%rbp)
   179ef:	48 8b 05 f2 09 01 00 	mov    0x109f2(%rip),%rax        # 283e8 <g_828>
   179f6:	48 39 85 30 e1 ff ff 	cmp    %rax,-0x1ed0(%rbp)
   179fd:	0f 94 c0             	sete   %al
   17a00:	0f b6 c0             	movzbl %al,%eax
   17a03:	8b 95 34 de ff ff    	mov    -0x21cc(%rbp),%edx
   17a09:	89 d6                	mov    %edx,%esi
   17a0b:	89 c7                	mov    %eax,%edi
   17a0d:	e8 68 44 ff ff       	callq  be7a <safe_rshift_func_uint16_t_u_u>
   17a12:	0f b7 d0             	movzwl %ax,%edx
   17a15:	48 8b 85 68 e1 ff ff 	mov    -0x1e98(%rbp),%rax
   17a1c:	89 10                	mov    %edx,(%rax)
   17a1e:	8b 85 c8 de ff ff    	mov    -0x2138(%rbp),%eax
   17a24:	0f be c0             	movsbl %al,%eax
   17a27:	be 02 00 00 00       	mov    $0x2,%esi
   17a2c:	89 c7                	mov    %eax,%edi
   17a2e:	e8 a1 37 ff ff       	callq  b1d4 <safe_add_func_int8_t_s_s>
   17a33:	0f be c0             	movsbl %al,%eax
   17a36:	89 85 c8 de ff ff    	mov    %eax,-0x2138(%rbp)
   17a3c:	83 bd c8 de ff ff 17 	cmpl   $0x17,-0x2138(%rbp)
   17a43:	75 86                	jne    179cb <func_53+0x3acd>
   17a45:	48 8b 85 48 e0 ff ff 	mov    -0x1fb8(%rbp),%rax
   17a4c:	8b 08                	mov    (%rax),%ecx
   17a4e:	b8 09 00 00 00       	mov    $0x9,%eax
   17a53:	85 c0                	test   %eax,%eax
   17a55:	0f 9e c0             	setle  %al
   17a58:	0f b6 d0             	movzbl %al,%edx
   17a5b:	48 8b 85 48 e0 ff ff 	mov    -0x1fb8(%rbp),%rax
   17a62:	21 ca                	and    %ecx,%edx
   17a64:	89 10                	mov    %edx,(%rax)
   17a66:	e9 54 01 00 00       	jmpq   17bbf <func_53+0x3cc1>
   17a6b:	c7 85 f0 e3 ff ff 01 	movl   $0x1,-0x1c10(%rbp)
   17a72:	00 00 00 
   17a75:	c7 85 f4 e3 ff ff 01 	movl   $0x1,-0x1c0c(%rbp)
   17a7c:	00 00 00 
   17a7f:	c7 85 f8 e3 ff ff 01 	movl   $0x1,-0x1c08(%rbp)
   17a86:	00 00 00 
   17a89:	c7 85 fc e3 ff ff 01 	movl   $0x1,-0x1c04(%rbp)
   17a90:	00 00 00 
   17a93:	c7 85 00 e4 ff ff 01 	movl   $0x1,-0x1c00(%rbp)
   17a9a:	00 00 00 
   17a9d:	c7 85 04 e4 ff ff 01 	movl   $0x1,-0x1bfc(%rbp)
   17aa4:	00 00 00 
   17aa7:	c7 85 08 e4 ff ff 01 	movl   $0x1,-0x1bf8(%rbp)
   17aae:	00 00 00 
   17ab1:	c7 85 34 df ff ff 05 	movl   $0x5,-0x20cc(%rbp)
   17ab8:	00 00 00 
   17abb:	c7 85 38 df ff ff 00 	movl   $0x0,-0x20c8(%rbp)
   17ac2:	00 00 00 
   17ac5:	c7 85 3c df ff ff 39 	movl   $0x7ff4ed39,-0x20c4(%rbp)
   17acc:	ed f4 7f 
   17acf:	c7 85 d0 de ff ff 00 	movl   $0x0,-0x2130(%rbp)
   17ad6:	00 00 00 
   17ad9:	eb 1a                	jmp    17af5 <func_53+0x3bf7>
   17adb:	8b 85 d0 de ff ff    	mov    -0x2130(%rbp),%eax
   17ae1:	48 98                	cltq   
   17ae3:	c7 84 85 20 e5 ff ff 	movl   $0x1,-0x1ae0(%rbp,%rax,4)
   17aea:	01 00 00 00 
   17aee:	83 85 d0 de ff ff 01 	addl   $0x1,-0x2130(%rbp)
   17af5:	83 bd d0 de ff ff 06 	cmpl   $0x6,-0x2130(%rbp)
   17afc:	7e dd                	jle    17adb <func_53+0x3bdd>
   17afe:	66 c7 85 60 de ff ff 	movw   $0x0,-0x21a0(%rbp)
   17b05:	00 00 
   17b07:	e9 a5 00 00 00       	jmpq   17bb1 <func_53+0x3cb3>
   17b0c:	c7 85 40 df ff ff fd 	movl   $0xfffffffd,-0x20c0(%rbp)
   17b13:	ff ff ff 
   17b16:	c7 85 44 df ff ff 04 	movl   $0x4,-0x20bc(%rbp)
   17b1d:	00 00 00 
   17b20:	c7 85 48 df ff ff f9 	movl   $0xfffffff9,-0x20b8(%rbp)
   17b27:	ff ff ff 
   17b2a:	c7 85 4c df ff ff 01 	movl   $0x1,-0x20b4(%rbp)
   17b31:	00 00 00 
   17b34:	c7 85 d4 de ff ff 00 	movl   $0x0,-0x212c(%rbp)
   17b3b:	00 00 00 
   17b3e:	eb 50                	jmp    17b90 <func_53+0x3c92>
   17b40:	c7 85 d8 de ff ff 00 	movl   $0x0,-0x2128(%rbp)
   17b47:	00 00 00 
   17b4a:	eb 34                	jmp    17b80 <func_53+0x3c82>
   17b4c:	8b 85 d8 de ff ff    	mov    -0x2128(%rbp),%eax
   17b52:	48 63 c8             	movslq %eax,%rcx
   17b55:	8b 85 d4 de ff ff    	mov    -0x212c(%rbp),%eax
   17b5b:	48 63 d0             	movslq %eax,%rdx
   17b5e:	48 89 d0             	mov    %rdx,%rax
   17b61:	48 c1 e0 02          	shl    $0x2,%rax
   17b65:	48 01 d0             	add    %rdx,%rax
   17b68:	48 01 c0             	add    %rax,%rax
   17b6b:	48 01 c8             	add    %rcx,%rax
   17b6e:	c7 84 85 00 f9 ff ff 	movl   $0x2ed70b56,-0x700(%rbp,%rax,4)
   17b75:	56 0b d7 2e 
   17b79:	83 85 d8 de ff ff 01 	addl   $0x1,-0x2128(%rbp)
   17b80:	83 bd d8 de ff ff 09 	cmpl   $0x9,-0x2128(%rbp)
   17b87:	7e c3                	jle    17b4c <func_53+0x3c4e>
   17b89:	83 85 d4 de ff ff 01 	addl   $0x1,-0x212c(%rbp)
   17b90:	83 bd d4 de ff ff 00 	cmpl   $0x0,-0x212c(%rbp)
   17b97:	7e a7                	jle    17b40 <func_53+0x3c42>
   17b99:	83 ad 9c de ff ff 01 	subl   $0x1,-0x2164(%rbp)
   17ba0:	0f b7 85 60 de ff ff 	movzwl -0x21a0(%rbp),%eax
   17ba7:	83 c0 01             	add    $0x1,%eax
   17baa:	66 89 85 60 de ff ff 	mov    %ax,-0x21a0(%rbp)
   17bb1:	66 83 bd 60 de ff ff 	cmpw   $0x2,-0x21a0(%rbp)
   17bb8:	02 
   17bb9:	0f 8e 4d ff ff ff    	jle    17b0c <func_53+0x3c0e>
   17bbf:	66 c7 85 60 de ff ff 	movw   $0x0,-0x21a0(%rbp)
   17bc6:	00 00 
   17bc8:	e9 ef 00 00 00       	jmpq   17cbc <func_53+0x3dbe>
   17bcd:	48 c7 85 f8 e1 ff ff 	movq   $0x1,-0x1e08(%rbp)
   17bd4:	01 00 00 00 
   17bd8:	c7 85 bc df ff ff 02 	movl   $0x1df1b902,-0x2044(%rbp)
   17bdf:	b9 f1 1d 
   17be2:	c7 85 c0 df ff ff 36 	movl   $0x735a5136,-0x2040(%rbp)
   17be9:	51 5a 73 
   17bec:	48 c7 85 00 e2 ff ff 	movq   $0x0,-0x1e00(%rbp)
   17bf3:	00 00 00 00 
   17bf7:	66 c7 85 76 de ff ff 	movw   $0x4988,-0x218a(%rbp)
   17bfe:	88 49 
   17c00:	c7 85 c4 df ff ff 8f 	movl   $0xbd58738f,-0x203c(%rbp)
   17c07:	73 58 bd 
   17c0a:	48 8d 05 cb b8 00 00 	lea    0xb8cb(%rip),%rax        # 234dc <g_608+0x3c>
   17c11:	48 89 85 08 e2 ff ff 	mov    %rax,-0x1df8(%rbp)
   17c18:	48 8d 05 e9 fc 00 00 	lea    0xfce9(%rip),%rax        # 27908 <g_1454>
   17c1f:	48 89 85 10 e2 ff ff 	mov    %rax,-0x1df0(%rbp)
   17c26:	c7 85 c8 df ff ff 00 	movl   $0x0,-0x2038(%rbp)
   17c2d:	00 00 00 
   17c30:	48 8d 05 b9 07 01 00 	lea    0x107b9(%rip),%rax        # 283f0 <g_1117>
   17c37:	48 89 85 18 e2 ff ff 	mov    %rax,-0x1de8(%rbp)
   17c3e:	48 c7 85 c8 e0 ff ff 	movq   $0x0,-0x1f38(%rbp)
   17c45:	00 00 00 00 
   17c49:	48 8d 85 c8 e0 ff ff 	lea    -0x1f38(%rbp),%rax
   17c50:	48 89 85 d0 e0 ff ff 	mov    %rax,-0x1f30(%rbp)
   17c57:	48 8d 85 d0 e0 ff ff 	lea    -0x1f30(%rbp),%rax
   17c5e:	48 89 85 20 e2 ff ff 	mov    %rax,-0x1de0(%rbp)
   17c65:	c7 85 dc de ff ff 00 	movl   $0x0,-0x2124(%rbp)
   17c6c:	00 00 00 
   17c6f:	eb 22                	jmp    17c93 <func_53+0x3d95>
   17c71:	8b 85 dc de ff ff    	mov    -0x2124(%rbp),%eax
   17c77:	48 98                	cltq   
   17c79:	48 8d 95 80 e4 ff ff 	lea    -0x1b80(%rbp),%rdx
   17c80:	48 83 c2 23          	add    $0x23,%rdx
   17c84:	48 89 94 c5 00 f9 ff 	mov    %rdx,-0x700(%rbp,%rax,8)
   17c8b:	ff 
   17c8c:	83 85 dc de ff ff 01 	addl   $0x1,-0x2124(%rbp)
   17c93:	83 bd dc de ff ff 05 	cmpl   $0x5,-0x2124(%rbp)
   17c9a:	7e d5                	jle    17c71 <func_53+0x3d73>
   17c9c:	0f b7 85 60 de ff ff 	movzwl -0x21a0(%rbp),%eax
   17ca3:	0f b6 c0             	movzbl %al,%eax
   17ca6:	be 02 00 00 00       	mov    $0x2,%esi
   17cab:	89 c7                	mov    %eax,%edi
   17cad:	e8 a8 3e ff ff       	callq  bb5a <safe_add_func_uint8_t_u_u>
   17cb2:	0f b6 c0             	movzbl %al,%eax
   17cb5:	66 89 85 60 de ff ff 	mov    %ax,-0x21a0(%rbp)
   17cbc:	66 83 bd 60 de ff ff 	cmpw   $0x18,-0x21a0(%rbp)
   17cc3:	18 
   17cc4:	0f 8e 03 ff ff ff    	jle    17bcd <func_53+0x3ccf>
   17cca:	e9 96 02 00 00       	jmpq   17f65 <func_53+0x4067>
   17ccf:	c6 85 58 de ff ff c2 	movb   $0xc2,-0x21a8(%rbp)
   17cd6:	48 8d 85 00 f9 ff ff 	lea    -0x700(%rbp),%rax
   17cdd:	48 8d 15 bc 75 00 00 	lea    0x75bc(%rip),%rdx        # 1f2a0 <g_3481+0x2200>
   17ce4:	b9 3c 00 00 00       	mov    $0x3c,%ecx
   17ce9:	48 89 c7             	mov    %rax,%rdi
   17cec:	48 89 d6             	mov    %rdx,%rsi
   17cef:	f3 48 a5             	rep movsq %ds:(%rsi),%es:(%rdi)
   17cf2:	48 c7 05 33 b9 00 00 	movq   $0x0,0xb933(%rip)        # 23630 <g_1066>
   17cf9:	00 00 00 00 
   17cfd:	e9 52 02 00 00       	jmpq   17f54 <func_53+0x4056>
   17d02:	66 c7 85 a0 ee ff ff 	movw   $0xffff,-0x1160(%rbp)
   17d09:	ff ff 
   17d0b:	66 c7 85 a2 ee ff ff 	movw   $0xffff,-0x115e(%rbp)
   17d12:	ff ff 
   17d14:	66 c7 85 a4 ee ff ff 	movw   $0x9f92,-0x115c(%rbp)
   17d1b:	92 9f 
   17d1d:	66 c7 85 a6 ee ff ff 	movw   $0xffff,-0x115a(%rbp)
   17d24:	ff ff 
   17d26:	66 c7 85 a8 ee ff ff 	movw   $0xffff,-0x1158(%rbp)
   17d2d:	ff ff 
   17d2f:	66 c7 85 aa ee ff ff 	movw   $0x9f92,-0x1156(%rbp)
   17d36:	92 9f 
   17d38:	66 c7 85 ac ee ff ff 	movw   $0xffff,-0x1154(%rbp)
   17d3f:	ff ff 
   17d41:	48 8d 05 10 fc 00 00 	lea    0xfc10(%rip),%rax        # 27958 <g_2173>
   17d48:	48 89 85 48 e1 ff ff 	mov    %rax,-0x1eb8(%rbp)
   17d4f:	c7 85 04 df ff ff 07 	movl   $0x7,-0x20fc(%rbp)
   17d56:	00 00 00 
   17d59:	48 8d 85 88 de ff ff 	lea    -0x2178(%rbp),%rax
   17d60:	48 89 85 50 e1 ff ff 	mov    %rax,-0x1eb0(%rbp)
   17d67:	48 8b 05 ea f6 00 00 	mov    0xf6ea(%rip),%rax        # 27458 <g_207>
   17d6e:	48 8b 00             	mov    (%rax),%rax
   17d71:	48 c7 00 00 00 00 00 	movq   $0x0,(%rax)
   17d78:	8b 85 34 de ff ff    	mov    -0x21cc(%rbp),%eax
   17d7e:	0f b7 d8             	movzwl %ax,%ebx
   17d81:	44 0f b6 a5 58 de ff 	movzbl -0x21a8(%rbp),%r12d
   17d88:	ff 
   17d89:	48 8b 85 08 e1 ff ff 	mov    -0x1ef8(%rbp),%rax
   17d90:	8b 00                	mov    (%rax),%eax
   17d92:	89 c2                	mov    %eax,%edx
   17d94:	8b 85 34 de ff ff    	mov    -0x21cc(%rbp),%eax
   17d9a:	09 d0                	or     %edx,%eax
   17d9c:	98                   	cwtl   
   17d9d:	8b 95 34 de ff ff    	mov    -0x21cc(%rbp),%edx
   17da3:	89 d6                	mov    %edx,%esi
   17da5:	89 c7                	mov    %eax,%edi
   17da7:	e8 35 37 ff ff       	callq  b4e1 <safe_lshift_func_int16_t_s_u>
   17dac:	48 8b 05 3d fb 00 00 	mov    0xfb3d(%rip),%rax        # 278f0 <g_844>
   17db3:	48 8b 00             	mov    (%rax),%rax
   17db6:	48 8b 00             	mov    (%rax),%rax
   17db9:	48 8b 00             	mov    (%rax),%rax
   17dbc:	48 8b 15 85 b8 00 00 	mov    0xb885(%rip),%rdx        # 23648 <g_1499>
   17dc3:	48 39 d0             	cmp    %rdx,%rax
   17dc6:	48 8b 85 18 e1 ff ff 	mov    -0x1ee8(%rbp),%rax
   17dcd:	8b 00                	mov    (%rax),%eax
   17dcf:	85 c0                	test   %eax,%eax
   17dd1:	74 10                	je     17de3 <func_53+0x3ee5>
   17dd3:	80 bd 58 de ff ff 00 	cmpb   $0x0,-0x21a8(%rbp)
   17dda:	74 07                	je     17de3 <func_53+0x3ee5>
   17ddc:	b8 01 00 00 00       	mov    $0x1,%eax
   17de1:	eb 05                	jmp    17de8 <func_53+0x3eea>
   17de3:	b8 00 00 00 00       	mov    $0x0,%eax
   17de8:	44 09 e0             	or     %r12d,%eax
   17deb:	89 c2                	mov    %eax,%edx
   17ded:	48 8b 85 f8 e0 ff ff 	mov    -0x1f08(%rbp),%rax
   17df4:	0f b7 00             	movzwl (%rax),%eax
   17df7:	89 c1                	mov    %eax,%ecx
   17df9:	89 d0                	mov    %edx,%eax
   17dfb:	09 c8                	or     %ecx,%eax
   17dfd:	89 c2                	mov    %eax,%edx
   17dff:	48 8b 85 f8 e0 ff ff 	mov    -0x1f08(%rbp),%rax
   17e06:	66 89 10             	mov    %dx,(%rax)
   17e09:	48 8b 85 f8 e0 ff ff 	mov    -0x1f08(%rbp),%rax
   17e10:	0f b7 00             	movzwl (%rax),%eax
   17e13:	0f b7 c0             	movzwl %ax,%eax
   17e16:	48 0b 85 40 e1 ff ff 	or     -0x1ec0(%rbp),%rax
   17e1d:	48 89 c2             	mov    %rax,%rdx
   17e20:	48 8b 85 40 de ff ff 	mov    -0x21c0(%rbp),%rax
   17e27:	48 39 c2             	cmp    %rax,%rdx
   17e2a:	0f 95 c0             	setne  %al
   17e2d:	0f b6 c0             	movzbl %al,%eax
   17e30:	89 de                	mov    %ebx,%esi
   17e32:	89 c7                	mov    %eax,%edi
   17e34:	e8 c6 3e ff ff       	callq  bcff <safe_add_func_uint16_t_u_u>
   17e39:	89 c2                	mov    %eax,%edx
   17e3b:	8b 85 34 de ff ff    	mov    -0x21cc(%rbp),%eax
   17e41:	31 d0                	xor    %edx,%eax
   17e43:	0f b6 c0             	movzbl %al,%eax
   17e46:	89 c6                	mov    %eax,%esi
   17e48:	bf c1 00 00 00       	mov    $0xc1,%edi
   17e4d:	e8 5c 3d ff ff       	callq  bbae <safe_mod_func_uint8_t_u_u>
   17e52:	84 c0                	test   %al,%al
   17e54:	74 10                	je     17e66 <func_53+0x3f68>
   17e56:	83 bd 34 de ff ff 00 	cmpl   $0x0,-0x21cc(%rbp)
   17e5d:	74 07                	je     17e66 <func_53+0x3f68>
   17e5f:	ba 01 00 00 00       	mov    $0x1,%edx
   17e64:	eb 05                	jmp    17e6b <func_53+0x3f6d>
   17e66:	ba 00 00 00 00       	mov    $0x0,%edx
   17e6b:	0f b6 85 58 de ff ff 	movzbl -0x21a8(%rbp),%eax
   17e72:	0f be c0             	movsbl %al,%eax
   17e75:	89 d6                	mov    %edx,%esi
   17e77:	89 c7                	mov    %eax,%edi
   17e79:	e8 b7 34 ff ff       	callq  b335 <safe_rshift_func_int8_t_s_s>
   17e7e:	89 c2                	mov    %eax,%edx
   17e80:	48 8b 85 50 e0 ff ff 	mov    -0x1fb0(%rbp),%rax
   17e87:	48 8b 00             	mov    (%rax),%rax
   17e8a:	48 8b 00             	mov    (%rax),%rax
   17e8d:	0f b6 00             	movzbl (%rax),%eax
   17e90:	09 c2                	or     %eax,%edx
   17e92:	48 8b 85 50 e0 ff ff 	mov    -0x1fb0(%rbp),%rax
   17e99:	48 8b 00             	mov    (%rax),%rax
   17e9c:	48 8b 00             	mov    (%rax),%rax
   17e9f:	88 10                	mov    %dl,(%rax)
   17ea1:	0f b6 00             	movzbl (%rax),%eax
   17ea4:	3c 63                	cmp    $0x63,%al
   17ea6:	0f 94 c0             	sete   %al
   17ea9:	0f b6 d0             	movzbl %al,%edx
   17eac:	48 8b 85 08 e1 ff ff 	mov    -0x1ef8(%rbp),%rax
   17eb3:	8b 00                	mov    (%rax),%eax
   17eb5:	39 c2                	cmp    %eax,%edx
   17eb7:	0f 9e c0             	setle  %al
   17eba:	0f b6 d0             	movzbl %al,%edx
   17ebd:	0f b7 85 a2 ee ff ff 	movzwl -0x115e(%rbp),%eax
   17ec4:	0f b7 c0             	movzwl %ax,%eax
   17ec7:	89 d6                	mov    %edx,%esi
   17ec9:	89 c7                	mov    %eax,%edi
   17ecb:	e8 2f 3e ff ff       	callq  bcff <safe_add_func_uint16_t_u_u>
   17ed0:	66 85 c0             	test   %ax,%ax
   17ed3:	0f b6 85 58 de ff ff 	movzbl -0x21a8(%rbp),%eax
   17eda:	be 9a 42 00 00       	mov    $0x429a,%esi
   17edf:	89 c7                	mov    %eax,%edi
   17ee1:	e8 76 3e ff ff       	callq  bd5c <safe_mod_func_uint16_t_u_u>
   17ee6:	98                   	cwtl   
   17ee7:	89 c7                	mov    %eax,%edi
   17ee9:	e8 af 34 ff ff       	callq  b39d <safe_unary_minus_func_int16_t_s>
   17eee:	66 85 c0             	test   %ax,%ax
   17ef1:	74 13                	je     17f06 <func_53+0x4008>
   17ef3:	0f b7 05 a6 b1 00 00 	movzwl 0xb1a6(%rip),%eax        # 230a0 <g_104>
   17efa:	66 85 c0             	test   %ax,%ax
   17efd:	74 07                	je     17f06 <func_53+0x4008>
   17eff:	b8 01 00 00 00       	mov    $0x1,%eax
   17f04:	eb 05                	jmp    17f0b <func_53+0x400d>
   17f06:	b8 00 00 00 00       	mov    $0x0,%eax
   17f0b:	0f be c0             	movsbl %al,%eax
   17f0e:	89 c6                	mov    %eax,%esi
   17f10:	bf 25 00 00 00       	mov    $0x25,%edi
   17f15:	e8 ba 32 ff ff       	callq  b1d4 <safe_add_func_int8_t_s_s>
   17f1a:	0f be c0             	movsbl %al,%eax
   17f1d:	89 85 04 df ff ff    	mov    %eax,-0x20fc(%rbp)
   17f23:	48 8b 85 48 de ff ff 	mov    -0x21b8(%rbp),%rax
   17f2a:	48 89 85 50 e1 ff ff 	mov    %rax,-0x1eb0(%rbp)
   17f31:	66 83 ad 62 de ff ff 	subw   $0x1,-0x219e(%rbp)
   17f38:	01 
   17f39:	48 8b 05 f0 b6 00 00 	mov    0xb6f0(%rip),%rax        # 23630 <g_1066>
   17f40:	be 03 00 00 00       	mov    $0x3,%esi
   17f45:	48 89 c7             	mov    %rax,%rdi
   17f48:	e8 f4 38 ff ff       	callq  b841 <safe_add_func_int64_t_s_s>
   17f4d:	48 89 05 dc b6 00 00 	mov    %rax,0xb6dc(%rip)        # 23630 <g_1066>
   17f54:	48 8b 05 d5 b6 00 00 	mov    0xb6d5(%rip),%rax        # 23630 <g_1066>
   17f5b:	48 83 f8 13          	cmp    $0x13,%rax
   17f5f:	0f 86 9d fd ff ff    	jbe    17d02 <func_53+0x3e04>
   17f65:	48 8b 85 38 de ff ff 	mov    -0x21c8(%rbp),%rax
   17f6c:	48 8b 5d d8          	mov    -0x28(%rbp),%rbx
   17f70:	64 48 33 1c 25 28 00 	xor    %fs:0x28,%rbx
   17f77:	00 00 
   17f79:	74 05                	je     17f80 <func_53+0x4082>
   17f7b:	e8 f0 30 ff ff       	callq  b070 <__stack_chk_fail@plt>
   17f80:	48 81 c4 b0 21 00 00 	add    $0x21b0,%rsp
   17f87:	5b                   	pop    %rbx
   17f88:	41 5c                	pop    %r12
   17f8a:	41 5d                	pop    %r13
   17f8c:	41 5e                	pop    %r14
   17f8e:	5d                   	pop    %rbp
   17f8f:	c3                   	retq   

0000000000017f90 <func_58>:
   17f90:	f3 0f 1e fa          	endbr64 
   17f94:	55                   	push   %rbp
   17f95:	48 89 e5             	mov    %rsp,%rbp
   17f98:	41 57                	push   %r15
   17f9a:	41 56                	push   %r14
   17f9c:	41 55                	push   %r13
   17f9e:	41 54                	push   %r12
   17fa0:	53                   	push   %rbx
   17fa1:	48 81 ec 00 10 00 00 	sub    $0x1000,%rsp
   17fa8:	48 83 0c 24 00       	orq    $0x0,(%rsp)
   17fad:	48 81 ec 98 06 00 00 	sub    $0x698,%rsp
   17fb4:	89 f8                	mov    %edi,%eax
   17fb6:	48 89 b5 50 e9 ff ff 	mov    %rsi,-0x16b0(%rbp)
   17fbd:	48 89 95 48 e9 ff ff 	mov    %rdx,-0x16b8(%rbp)
   17fc4:	66 89 85 5c e9 ff ff 	mov    %ax,-0x16a4(%rbp)
   17fcb:	64 48 8b 04 25 28 00 	mov    %fs:0x28,%rax
   17fd2:	00 00 
   17fd4:	48 89 45 c8          	mov    %rax,-0x38(%rbp)
   17fd8:	31 c0                	xor    %eax,%eax
   17fda:	66 c7 85 68 e9 ff ff 	movw   $0x7,-0x1698(%rbp)
   17fe1:	07 00 
   17fe3:	48 8d 05 76 f5 00 00 	lea    0xf576(%rip),%rax        # 27560 <g_417+0xe0>
   17fea:	48 89 85 e0 e9 ff ff 	mov    %rax,-0x1620(%rbp)
   17ff1:	48 8d 05 68 f5 00 00 	lea    0xf568(%rip),%rax        # 27560 <g_417+0xe0>
   17ff8:	48 89 85 e8 e9 ff ff 	mov    %rax,-0x1618(%rbp)
   17fff:	48 c7 85 b0 eb ff ff 	movq   $0x0,-0x1450(%rbp)
   18006:	00 00 00 00 
   1800a:	48 c7 85 b8 eb ff ff 	movq   $0x0,-0x1448(%rbp)
   18011:	00 00 00 00 
   18015:	48 c7 85 c0 eb ff ff 	movq   $0x0,-0x1440(%rbp)
   1801c:	00 00 00 00 
   18020:	48 c7 85 c8 eb ff ff 	movq   $0x0,-0x1438(%rbp)
   18027:	00 00 00 00 
   1802b:	48 c7 85 d0 eb ff ff 	movq   $0x0,-0x1430(%rbp)
   18032:	00 00 00 00 
   18036:	48 c7 85 d8 eb ff ff 	movq   $0x0,-0x1428(%rbp)
   1803d:	00 00 00 00 
   18041:	48 c7 85 e0 eb ff ff 	movq   $0x0,-0x1420(%rbp)
   18048:	00 00 00 00 
   1804c:	48 8d 85 d0 ed ff ff 	lea    -0x1230(%rbp),%rax
   18053:	48 8d 15 26 74 00 00 	lea    0x7426(%rip),%rdx        # 1f480 <g_3481+0x23e0>
   1805a:	b9 70 00 00 00       	mov    $0x70,%ecx
   1805f:	48 89 c7             	mov    %rax,%rdi
   18062:	48 89 d6             	mov    %rdx,%rsi
   18065:	f3 48 a5             	rep movsq %ds:(%rsi),%es:(%rdi)
   18068:	48 89 f2             	mov    %rsi,%rdx
   1806b:	48 89 f8             	mov    %rdi,%rax
   1806e:	8b 0a                	mov    (%rdx),%ecx
   18070:	89 08                	mov    %ecx,(%rax)
   18072:	c7 85 74 e9 ff ff 1e 	movl   $0x5949a21e,-0x168c(%rbp)
   18079:	a2 49 59 
   1807c:	48 b8 5e e0 5b e7 ac 	movabs $0x9c8aa3ace75be05e,%rax
   18083:	a3 8a 9c 
   18086:	48 89 85 f0 e9 ff ff 	mov    %rax,-0x1610(%rbp)
   1808d:	48 8d 05 9c f3 00 00 	lea    0xf39c(%rip),%rax        # 27430 <g_209>
   18094:	48 89 85 f8 e9 ff ff 	mov    %rax,-0x1608(%rbp)
   1809b:	48 b8 c4 6a b9 35 a0 	movabs $0x9db10da035b96ac4,%rax
   180a2:	0d b1 9d 
   180a5:	48 89 85 d8 e9 ff ff 	mov    %rax,-0x1628(%rbp)
   180ac:	66 c7 85 6c e9 ff ff 	movw   $0xa658,-0x1694(%rbp)
   180b3:	58 a6 
   180b5:	48 8d 85 60 f1 ff ff 	lea    -0xea0(%rbp),%rax
   180bc:	48 8d 15 3d df 00 00 	lea    0xdf3d(%rip),%rdx        # 26000 <g_4082+0x2500>
   180c3:	b9 96 00 00 00       	mov    $0x96,%ecx
   180c8:	48 89 c7             	mov    %rax,%rdi
   180cb:	48 89 d6             	mov    %rdx,%rsi
   180ce:	f3 48 a5             	rep movsq %ds:(%rsi),%es:(%rdi)
   180d1:	48 b8 1a 79 2a f6 5b 	movabs $0x6788205bf62a791a,%rax
   180d8:	20 88 67 
   180db:	48 89 85 a8 e9 ff ff 	mov    %rax,-0x1658(%rbp)
   180e2:	48 8d 05 09 b4 00 00 	lea    0xb409(%rip),%rax        # 234f2 <g_622>
   180e9:	48 89 85 b0 e9 ff ff 	mov    %rax,-0x1650(%rbp)
   180f0:	48 8d 85 b0 e9 ff ff 	lea    -0x1650(%rbp),%rax
   180f7:	48 89 85 c0 fa ff ff 	mov    %rax,-0x540(%rbp)
   180fe:	48 8d 85 b0 e9 ff ff 	lea    -0x1650(%rbp),%rax
   18105:	48 89 85 c8 fa ff ff 	mov    %rax,-0x538(%rbp)
   1810c:	48 c7 85 d0 fa ff ff 	movq   $0x0,-0x530(%rbp)
   18113:	00 00 00 00 
   18117:	48 8d 85 b0 e9 ff ff 	lea    -0x1650(%rbp),%rax
   1811e:	48 89 85 d8 fa ff ff 	mov    %rax,-0x528(%rbp)
   18125:	48 8d 85 b0 e9 ff ff 	lea    -0x1650(%rbp),%rax
   1812c:	48 89 85 e0 fa ff ff 	mov    %rax,-0x520(%rbp)
   18133:	48 8d 85 b0 e9 ff ff 	lea    -0x1650(%rbp),%rax
   1813a:	48 89 85 e8 fa ff ff 	mov    %rax,-0x518(%rbp)
   18141:	48 8d 85 b0 e9 ff ff 	lea    -0x1650(%rbp),%rax
   18148:	48 89 85 f0 fa ff ff 	mov    %rax,-0x510(%rbp)
   1814f:	48 8d 85 b0 e9 ff ff 	lea    -0x1650(%rbp),%rax
   18156:	48 89 85 f8 fa ff ff 	mov    %rax,-0x508(%rbp)
   1815d:	48 8d 85 b0 e9 ff ff 	lea    -0x1650(%rbp),%rax
   18164:	48 89 85 00 fb ff ff 	mov    %rax,-0x500(%rbp)
   1816b:	48 8d 85 b0 e9 ff ff 	lea    -0x1650(%rbp),%rax
   18172:	48 89 85 08 fb ff ff 	mov    %rax,-0x4f8(%rbp)
   18179:	48 8d 85 b0 e9 ff ff 	lea    -0x1650(%rbp),%rax
   18180:	48 89 85 10 fb ff ff 	mov    %rax,-0x4f0(%rbp)
   18187:	48 8d 85 b0 e9 ff ff 	lea    -0x1650(%rbp),%rax
   1818e:	48 89 85 18 fb ff ff 	mov    %rax,-0x4e8(%rbp)
   18195:	48 c7 85 20 fb ff ff 	movq   $0x0,-0x4e0(%rbp)
   1819c:	00 00 00 00 
   181a0:	48 8d 85 b0 e9 ff ff 	lea    -0x1650(%rbp),%rax
   181a7:	48 89 85 28 fb ff ff 	mov    %rax,-0x4d8(%rbp)
   181ae:	48 8d 85 b0 e9 ff ff 	lea    -0x1650(%rbp),%rax
   181b5:	48 89 85 30 fb ff ff 	mov    %rax,-0x4d0(%rbp)
   181bc:	48 8d 85 b0 e9 ff ff 	lea    -0x1650(%rbp),%rax
   181c3:	48 89 85 38 fb ff ff 	mov    %rax,-0x4c8(%rbp)
   181ca:	48 8d 85 b0 e9 ff ff 	lea    -0x1650(%rbp),%rax
   181d1:	48 89 85 40 fb ff ff 	mov    %rax,-0x4c0(%rbp)
   181d8:	48 8d 85 b0 e9 ff ff 	lea    -0x1650(%rbp),%rax
   181df:	48 89 85 48 fb ff ff 	mov    %rax,-0x4b8(%rbp)
   181e6:	48 8d 85 b0 e9 ff ff 	lea    -0x1650(%rbp),%rax
   181ed:	48 89 85 50 fb ff ff 	mov    %rax,-0x4b0(%rbp)
   181f4:	48 8d 85 b0 e9 ff ff 	lea    -0x1650(%rbp),%rax
   181fb:	48 89 85 58 fb ff ff 	mov    %rax,-0x4a8(%rbp)
   18202:	48 c7 85 60 fb ff ff 	movq   $0x0,-0x4a0(%rbp)
   18209:	00 00 00 00 
   1820d:	48 8d 85 b0 e9 ff ff 	lea    -0x1650(%rbp),%rax
   18214:	48 89 85 68 fb ff ff 	mov    %rax,-0x498(%rbp)
   1821b:	48 8d 85 b0 e9 ff ff 	lea    -0x1650(%rbp),%rax
   18222:	48 89 85 70 fb ff ff 	mov    %rax,-0x490(%rbp)
   18229:	48 c7 85 78 fb ff ff 	movq   $0x0,-0x488(%rbp)
   18230:	00 00 00 00 
   18234:	48 8d 85 b0 e9 ff ff 	lea    -0x1650(%rbp),%rax
   1823b:	48 89 85 80 fb ff ff 	mov    %rax,-0x480(%rbp)
   18242:	48 8d 85 b0 e9 ff ff 	lea    -0x1650(%rbp),%rax
   18249:	48 89 85 88 fb ff ff 	mov    %rax,-0x478(%rbp)
   18250:	48 8d 85 b0 e9 ff ff 	lea    -0x1650(%rbp),%rax
   18257:	48 89 85 90 fb ff ff 	mov    %rax,-0x470(%rbp)
   1825e:	48 8d 85 b0 e9 ff ff 	lea    -0x1650(%rbp),%rax
   18265:	48 89 85 98 fb ff ff 	mov    %rax,-0x468(%rbp)
   1826c:	48 8d 85 b0 e9 ff ff 	lea    -0x1650(%rbp),%rax
   18273:	48 89 85 a0 fb ff ff 	mov    %rax,-0x460(%rbp)
   1827a:	48 8d 85 b0 e9 ff ff 	lea    -0x1650(%rbp),%rax
   18281:	48 89 85 a8 fb ff ff 	mov    %rax,-0x458(%rbp)
   18288:	48 8d 85 b0 e9 ff ff 	lea    -0x1650(%rbp),%rax
   1828f:	48 89 85 b0 fb ff ff 	mov    %rax,-0x450(%rbp)
   18296:	48 8d 85 b0 e9 ff ff 	lea    -0x1650(%rbp),%rax
   1829d:	48 89 85 b8 fb ff ff 	mov    %rax,-0x448(%rbp)
   182a4:	48 8d 85 b0 e9 ff ff 	lea    -0x1650(%rbp),%rax
   182ab:	48 89 85 c0 fb ff ff 	mov    %rax,-0x440(%rbp)
   182b2:	48 8d 85 b0 e9 ff ff 	lea    -0x1650(%rbp),%rax
   182b9:	48 89 85 c8 fb ff ff 	mov    %rax,-0x438(%rbp)
   182c0:	48 8d 85 b0 e9 ff ff 	lea    -0x1650(%rbp),%rax
   182c7:	48 89 85 d0 fb ff ff 	mov    %rax,-0x430(%rbp)
   182ce:	48 8d 85 b0 e9 ff ff 	lea    -0x1650(%rbp),%rax
   182d5:	48 89 85 d8 fb ff ff 	mov    %rax,-0x428(%rbp)
   182dc:	48 8d 85 b0 e9 ff ff 	lea    -0x1650(%rbp),%rax
   182e3:	48 89 85 e0 fb ff ff 	mov    %rax,-0x420(%rbp)
   182ea:	48 8d 85 b0 e9 ff ff 	lea    -0x1650(%rbp),%rax
   182f1:	48 89 85 e8 fb ff ff 	mov    %rax,-0x418(%rbp)
   182f8:	48 8d 85 b0 e9 ff ff 	lea    -0x1650(%rbp),%rax
   182ff:	48 89 85 f0 fb ff ff 	mov    %rax,-0x410(%rbp)
   18306:	48 8d 85 b0 e9 ff ff 	lea    -0x1650(%rbp),%rax
   1830d:	48 89 85 f8 fb ff ff 	mov    %rax,-0x408(%rbp)
   18314:	48 8d 85 b0 e9 ff ff 	lea    -0x1650(%rbp),%rax
   1831b:	48 89 85 00 fc ff ff 	mov    %rax,-0x400(%rbp)
   18322:	48 8d 85 b0 e9 ff ff 	lea    -0x1650(%rbp),%rax
   18329:	48 89 85 08 fc ff ff 	mov    %rax,-0x3f8(%rbp)
   18330:	48 8d 85 b0 e9 ff ff 	lea    -0x1650(%rbp),%rax
   18337:	48 89 85 10 fc ff ff 	mov    %rax,-0x3f0(%rbp)
   1833e:	48 8d 85 b0 e9 ff ff 	lea    -0x1650(%rbp),%rax
   18345:	48 89 85 18 fc ff ff 	mov    %rax,-0x3e8(%rbp)
   1834c:	48 c7 85 20 fc ff ff 	movq   $0x0,-0x3e0(%rbp)
   18353:	00 00 00 00 
   18357:	48 8d 85 b0 e9 ff ff 	lea    -0x1650(%rbp),%rax
   1835e:	48 89 85 28 fc ff ff 	mov    %rax,-0x3d8(%rbp)
   18365:	48 8d 85 b0 e9 ff ff 	lea    -0x1650(%rbp),%rax
   1836c:	48 89 85 30 fc ff ff 	mov    %rax,-0x3d0(%rbp)
   18373:	48 8d 85 b0 e9 ff ff 	lea    -0x1650(%rbp),%rax
   1837a:	48 89 85 38 fc ff ff 	mov    %rax,-0x3c8(%rbp)
   18381:	48 8d 85 b0 e9 ff ff 	lea    -0x1650(%rbp),%rax
   18388:	48 89 85 40 fc ff ff 	mov    %rax,-0x3c0(%rbp)
   1838f:	48 8d 85 b0 e9 ff ff 	lea    -0x1650(%rbp),%rax
   18396:	48 89 85 48 fc ff ff 	mov    %rax,-0x3b8(%rbp)
   1839d:	48 8d 85 b0 e9 ff ff 	lea    -0x1650(%rbp),%rax
   183a4:	48 89 85 50 fc ff ff 	mov    %rax,-0x3b0(%rbp)
   183ab:	48 8d 85 b0 e9 ff ff 	lea    -0x1650(%rbp),%rax
   183b2:	48 89 85 58 fc ff ff 	mov    %rax,-0x3a8(%rbp)
   183b9:	48 8d 85 b0 e9 ff ff 	lea    -0x1650(%rbp),%rax
   183c0:	48 89 85 60 fc ff ff 	mov    %rax,-0x3a0(%rbp)
   183c7:	48 8d 85 b0 e9 ff ff 	lea    -0x1650(%rbp),%rax
   183ce:	48 89 85 68 fc ff ff 	mov    %rax,-0x398(%rbp)
   183d5:	48 c7 85 70 fc ff ff 	movq   $0x0,-0x390(%rbp)
   183dc:	00 00 00 00 
   183e0:	48 c7 85 78 fc ff ff 	movq   $0x0,-0x388(%rbp)
   183e7:	00 00 00 00 
   183eb:	48 8d 85 b0 e9 ff ff 	lea    -0x1650(%rbp),%rax
   183f2:	48 89 85 80 fc ff ff 	mov    %rax,-0x380(%rbp)
   183f9:	48 8d 85 b0 e9 ff ff 	lea    -0x1650(%rbp),%rax
   18400:	48 89 85 88 fc ff ff 	mov    %rax,-0x378(%rbp)
   18407:	48 c7 85 90 fc ff ff 	movq   $0x0,-0x370(%rbp)
   1840e:	00 00 00 00 
   18412:	48 8d 85 b0 e9 ff ff 	lea    -0x1650(%rbp),%rax
   18419:	48 89 85 98 fc ff ff 	mov    %rax,-0x368(%rbp)
   18420:	48 8d 85 b0 e9 ff ff 	lea    -0x1650(%rbp),%rax
   18427:	48 89 85 a0 fc ff ff 	mov    %rax,-0x360(%rbp)
   1842e:	48 8d 85 b0 e9 ff ff 	lea    -0x1650(%rbp),%rax
   18435:	48 89 85 a8 fc ff ff 	mov    %rax,-0x358(%rbp)
   1843c:	48 8d 85 b0 e9 ff ff 	lea    -0x1650(%rbp),%rax
   18443:	48 89 85 b0 fc ff ff 	mov    %rax,-0x350(%rbp)
   1844a:	48 8d 85 b0 e9 ff ff 	lea    -0x1650(%rbp),%rax
   18451:	48 89 85 b8 fc ff ff 	mov    %rax,-0x348(%rbp)
   18458:	48 8d 85 b0 e9 ff ff 	lea    -0x1650(%rbp),%rax
   1845f:	48 89 85 c0 fc ff ff 	mov    %rax,-0x340(%rbp)
   18466:	48 8d 85 b0 e9 ff ff 	lea    -0x1650(%rbp),%rax
   1846d:	48 89 85 c8 fc ff ff 	mov    %rax,-0x338(%rbp)
   18474:	48 8d 85 b0 e9 ff ff 	lea    -0x1650(%rbp),%rax
   1847b:	48 89 85 d0 fc ff ff 	mov    %rax,-0x330(%rbp)
   18482:	48 8d 85 b0 e9 ff ff 	lea    -0x1650(%rbp),%rax
   18489:	48 89 85 d8 fc ff ff 	mov    %rax,-0x328(%rbp)
   18490:	48 8d 85 b0 e9 ff ff 	lea    -0x1650(%rbp),%rax
   18497:	48 89 85 e0 fc ff ff 	mov    %rax,-0x320(%rbp)
   1849e:	48 8d 85 b0 e9 ff ff 	lea    -0x1650(%rbp),%rax
   184a5:	48 89 85 e8 fc ff ff 	mov    %rax,-0x318(%rbp)
   184ac:	48 c7 85 f0 fc ff ff 	movq   $0x0,-0x310(%rbp)
   184b3:	00 00 00 00 
   184b7:	48 8d 85 b0 e9 ff ff 	lea    -0x1650(%rbp),%rax
   184be:	48 89 85 f8 fc ff ff 	mov    %rax,-0x308(%rbp)
   184c5:	48 8d 85 b0 e9 ff ff 	lea    -0x1650(%rbp),%rax
   184cc:	48 89 85 00 fd ff ff 	mov    %rax,-0x300(%rbp)
   184d3:	48 8d 85 b0 e9 ff ff 	lea    -0x1650(%rbp),%rax
   184da:	48 89 85 08 fd ff ff 	mov    %rax,-0x2f8(%rbp)
   184e1:	48 8d 85 b0 e9 ff ff 	lea    -0x1650(%rbp),%rax
   184e8:	48 89 85 10 fd ff ff 	mov    %rax,-0x2f0(%rbp)
   184ef:	48 8d 85 b0 e9 ff ff 	lea    -0x1650(%rbp),%rax
   184f6:	48 89 85 18 fd ff ff 	mov    %rax,-0x2e8(%rbp)
   184fd:	48 8d 85 b0 e9 ff ff 	lea    -0x1650(%rbp),%rax
   18504:	48 89 85 20 fd ff ff 	mov    %rax,-0x2e0(%rbp)
   1850b:	48 8d 85 b0 e9 ff ff 	lea    -0x1650(%rbp),%rax
   18512:	48 89 85 28 fd ff ff 	mov    %rax,-0x2d8(%rbp)
   18519:	48 8d 85 b0 e9 ff ff 	lea    -0x1650(%rbp),%rax
   18520:	48 89 85 30 fd ff ff 	mov    %rax,-0x2d0(%rbp)
   18527:	48 c7 85 38 fd ff ff 	movq   $0x0,-0x2c8(%rbp)
   1852e:	00 00 00 00 
   18532:	48 8d 85 b0 e9 ff ff 	lea    -0x1650(%rbp),%rax
   18539:	48 89 85 40 fd ff ff 	mov    %rax,-0x2c0(%rbp)
   18540:	48 8d 85 b0 e9 ff ff 	lea    -0x1650(%rbp),%rax
   18547:	48 89 85 48 fd ff ff 	mov    %rax,-0x2b8(%rbp)
   1854e:	48 8d 85 b0 e9 ff ff 	lea    -0x1650(%rbp),%rax
   18555:	48 89 85 50 fd ff ff 	mov    %rax,-0x2b0(%rbp)
   1855c:	48 8d 85 b0 e9 ff ff 	lea    -0x1650(%rbp),%rax
   18563:	48 89 85 58 fd ff ff 	mov    %rax,-0x2a8(%rbp)
   1856a:	48 8d 85 b0 e9 ff ff 	lea    -0x1650(%rbp),%rax
   18571:	48 89 85 60 fd ff ff 	mov    %rax,-0x2a0(%rbp)
   18578:	48 8d 85 b0 e9 ff ff 	lea    -0x1650(%rbp),%rax
   1857f:	48 89 85 68 fd ff ff 	mov    %rax,-0x298(%rbp)
   18586:	48 8d 85 b0 e9 ff ff 	lea    -0x1650(%rbp),%rax
   1858d:	48 89 85 70 fd ff ff 	mov    %rax,-0x290(%rbp)
   18594:	48 8d 85 b0 e9 ff ff 	lea    -0x1650(%rbp),%rax
   1859b:	48 89 85 78 fd ff ff 	mov    %rax,-0x288(%rbp)
   185a2:	48 c7 85 80 fd ff ff 	movq   $0x0,-0x280(%rbp)
   185a9:	00 00 00 00 
   185ad:	48 8d 85 b0 e9 ff ff 	lea    -0x1650(%rbp),%rax
   185b4:	48 89 85 88 fd ff ff 	mov    %rax,-0x278(%rbp)
   185bb:	48 8d 85 b0 e9 ff ff 	lea    -0x1650(%rbp),%rax
   185c2:	48 89 85 90 fd ff ff 	mov    %rax,-0x270(%rbp)
   185c9:	48 8d 85 b0 e9 ff ff 	lea    -0x1650(%rbp),%rax
   185d0:	48 89 85 98 fd ff ff 	mov    %rax,-0x268(%rbp)
   185d7:	48 8d 85 b0 e9 ff ff 	lea    -0x1650(%rbp),%rax
   185de:	48 89 85 a0 fd ff ff 	mov    %rax,-0x260(%rbp)
   185e5:	48 8d 85 b0 e9 ff ff 	lea    -0x1650(%rbp),%rax
   185ec:	48 89 85 a8 fd ff ff 	mov    %rax,-0x258(%rbp)
   185f3:	48 8d 85 b0 e9 ff ff 	lea    -0x1650(%rbp),%rax
   185fa:	48 89 85 b0 fd ff ff 	mov    %rax,-0x250(%rbp)
   18601:	48 8d 85 b0 e9 ff ff 	lea    -0x1650(%rbp),%rax
   18608:	48 89 85 b8 fd ff ff 	mov    %rax,-0x248(%rbp)
   1860f:	48 8d 85 b0 e9 ff ff 	lea    -0x1650(%rbp),%rax
   18616:	48 89 85 c0 fd ff ff 	mov    %rax,-0x240(%rbp)
   1861d:	48 8d 85 b0 e9 ff ff 	lea    -0x1650(%rbp),%rax
   18624:	48 89 85 c8 fd ff ff 	mov    %rax,-0x238(%rbp)
   1862b:	48 8d 85 b0 e9 ff ff 	lea    -0x1650(%rbp),%rax
   18632:	48 89 85 d0 fd ff ff 	mov    %rax,-0x230(%rbp)
   18639:	48 8d 85 b0 e9 ff ff 	lea    -0x1650(%rbp),%rax
   18640:	48 89 85 d8 fd ff ff 	mov    %rax,-0x228(%rbp)
   18647:	48 8d 85 b0 e9 ff ff 	lea    -0x1650(%rbp),%rax
   1864e:	48 89 85 e0 fd ff ff 	mov    %rax,-0x220(%rbp)
   18655:	48 8d 85 b0 e9 ff ff 	lea    -0x1650(%rbp),%rax
   1865c:	48 89 85 e8 fd ff ff 	mov    %rax,-0x218(%rbp)
   18663:	48 8d 85 b0 e9 ff ff 	lea    -0x1650(%rbp),%rax
   1866a:	48 89 85 f0 fd ff ff 	mov    %rax,-0x210(%rbp)
   18671:	48 8d 85 b0 e9 ff ff 	lea    -0x1650(%rbp),%rax
   18678:	48 89 85 f8 fd ff ff 	mov    %rax,-0x208(%rbp)
   1867f:	48 8d 85 b0 e9 ff ff 	lea    -0x1650(%rbp),%rax
   18686:	48 89 85 00 fe ff ff 	mov    %rax,-0x200(%rbp)
   1868d:	48 8d 85 b0 e9 ff ff 	lea    -0x1650(%rbp),%rax
   18694:	48 89 85 08 fe ff ff 	mov    %rax,-0x1f8(%rbp)
   1869b:	48 c7 85 10 fe ff ff 	movq   $0x0,-0x1f0(%rbp)
   186a2:	00 00 00 00 
   186a6:	48 8d 85 b0 e9 ff ff 	lea    -0x1650(%rbp),%rax
   186ad:	48 89 85 18 fe ff ff 	mov    %rax,-0x1e8(%rbp)
   186b4:	48 8d 85 b0 e9 ff ff 	lea    -0x1650(%rbp),%rax
   186bb:	48 89 85 20 fe ff ff 	mov    %rax,-0x1e0(%rbp)
   186c2:	48 8d 85 b0 e9 ff ff 	lea    -0x1650(%rbp),%rax
   186c9:	48 89 85 28 fe ff ff 	mov    %rax,-0x1d8(%rbp)
   186d0:	48 c7 85 30 fe ff ff 	movq   $0x0,-0x1d0(%rbp)
   186d7:	00 00 00 00 
   186db:	48 c7 85 38 fe ff ff 	movq   $0x0,-0x1c8(%rbp)
   186e2:	00 00 00 00 
   186e6:	48 8d 85 b0 e9 ff ff 	lea    -0x1650(%rbp),%rax
   186ed:	48 89 85 40 fe ff ff 	mov    %rax,-0x1c0(%rbp)
   186f4:	48 8d 85 b0 e9 ff ff 	lea    -0x1650(%rbp),%rax
   186fb:	48 89 85 48 fe ff ff 	mov    %rax,-0x1b8(%rbp)
   18702:	48 8d 85 b0 e9 ff ff 	lea    -0x1650(%rbp),%rax
   18709:	48 89 85 50 fe ff ff 	mov    %rax,-0x1b0(%rbp)
   18710:	48 8d 85 b0 e9 ff ff 	lea    -0x1650(%rbp),%rax
   18717:	48 89 85 58 fe ff ff 	mov    %rax,-0x1a8(%rbp)
   1871e:	48 8d 85 b0 e9 ff ff 	lea    -0x1650(%rbp),%rax
   18725:	48 89 85 60 fe ff ff 	mov    %rax,-0x1a0(%rbp)
   1872c:	48 8d 85 b0 e9 ff ff 	lea    -0x1650(%rbp),%rax
   18733:	48 89 85 68 fe ff ff 	mov    %rax,-0x198(%rbp)
   1873a:	48 8d 85 b0 e9 ff ff 	lea    -0x1650(%rbp),%rax
   18741:	48 89 85 70 fe ff ff 	mov    %rax,-0x190(%rbp)
   18748:	48 8d 85 b0 e9 ff ff 	lea    -0x1650(%rbp),%rax
   1874f:	48 89 85 78 fe ff ff 	mov    %rax,-0x188(%rbp)
   18756:	48 8d 85 b0 e9 ff ff 	lea    -0x1650(%rbp),%rax
   1875d:	48 89 85 80 fe ff ff 	mov    %rax,-0x180(%rbp)
   18764:	48 8d 85 b0 e9 ff ff 	lea    -0x1650(%rbp),%rax
   1876b:	48 89 85 88 fe ff ff 	mov    %rax,-0x178(%rbp)
   18772:	48 8d 85 b0 e9 ff ff 	lea    -0x1650(%rbp),%rax
   18779:	48 89 85 90 fe ff ff 	mov    %rax,-0x170(%rbp)
   18780:	48 8d 85 b0 e9 ff ff 	lea    -0x1650(%rbp),%rax
   18787:	48 89 85 98 fe ff ff 	mov    %rax,-0x168(%rbp)
   1878e:	48 8d 85 b0 e9 ff ff 	lea    -0x1650(%rbp),%rax
   18795:	48 89 85 a0 fe ff ff 	mov    %rax,-0x160(%rbp)
   1879c:	48 8d 85 b0 e9 ff ff 	lea    -0x1650(%rbp),%rax
   187a3:	48 89 85 a8 fe ff ff 	mov    %rax,-0x158(%rbp)
   187aa:	48 8d 85 b0 e9 ff ff 	lea    -0x1650(%rbp),%rax
   187b1:	48 89 85 b0 fe ff ff 	mov    %rax,-0x150(%rbp)
   187b8:	48 8d 85 b0 e9 ff ff 	lea    -0x1650(%rbp),%rax
   187bf:	48 89 85 b8 fe ff ff 	mov    %rax,-0x148(%rbp)
   187c6:	48 8d 85 b0 e9 ff ff 	lea    -0x1650(%rbp),%rax
   187cd:	48 89 85 c0 fe ff ff 	mov    %rax,-0x140(%rbp)
   187d4:	48 8d 85 b0 e9 ff ff 	lea    -0x1650(%rbp),%rax
   187db:	48 89 85 c8 fe ff ff 	mov    %rax,-0x138(%rbp)
   187e2:	48 8d 85 b0 e9 ff ff 	lea    -0x1650(%rbp),%rax
   187e9:	48 89 85 d0 fe ff ff 	mov    %rax,-0x130(%rbp)
   187f0:	48 8d 85 b0 e9 ff ff 	lea    -0x1650(%rbp),%rax
   187f7:	48 89 85 d8 fe ff ff 	mov    %rax,-0x128(%rbp)
   187fe:	48 8d 85 b0 e9 ff ff 	lea    -0x1650(%rbp),%rax
   18805:	48 89 85 e0 fe ff ff 	mov    %rax,-0x120(%rbp)
   1880c:	48 8d 85 b0 e9 ff ff 	lea    -0x1650(%rbp),%rax
   18813:	48 89 85 e8 fe ff ff 	mov    %rax,-0x118(%rbp)
   1881a:	48 c7 85 f0 fe ff ff 	movq   $0x0,-0x110(%rbp)
   18821:	00 00 00 00 
   18825:	48 8d 85 b0 e9 ff ff 	lea    -0x1650(%rbp),%rax
   1882c:	48 89 85 f8 fe ff ff 	mov    %rax,-0x108(%rbp)
   18833:	48 8d 85 b0 e9 ff ff 	lea    -0x1650(%rbp),%rax
   1883a:	48 89 85 00 ff ff ff 	mov    %rax,-0x100(%rbp)
   18841:	48 c7 85 08 ff ff ff 	movq   $0x0,-0xf8(%rbp)
   18848:	00 00 00 00 
   1884c:	48 8d 85 b0 e9 ff ff 	lea    -0x1650(%rbp),%rax
   18853:	48 89 85 10 ff ff ff 	mov    %rax,-0xf0(%rbp)
   1885a:	48 8d 85 b0 e9 ff ff 	lea    -0x1650(%rbp),%rax
   18861:	48 89 85 18 ff ff ff 	mov    %rax,-0xe8(%rbp)
   18868:	48 8d 85 b0 e9 ff ff 	lea    -0x1650(%rbp),%rax
   1886f:	48 89 85 20 ff ff ff 	mov    %rax,-0xe0(%rbp)
   18876:	48 c7 85 28 ff ff ff 	movq   $0x0,-0xd8(%rbp)
   1887d:	00 00 00 00 
   18881:	48 c7 85 30 ff ff ff 	movq   $0x0,-0xd0(%rbp)
   18888:	00 00 00 00 
   1888c:	48 8d 85 b0 e9 ff ff 	lea    -0x1650(%rbp),%rax
   18893:	48 89 85 38 ff ff ff 	mov    %rax,-0xc8(%rbp)
   1889a:	48 8d 85 b0 e9 ff ff 	lea    -0x1650(%rbp),%rax
   188a1:	48 89 85 40 ff ff ff 	mov    %rax,-0xc0(%rbp)
   188a8:	48 8d 85 b0 e9 ff ff 	lea    -0x1650(%rbp),%rax
   188af:	48 89 85 48 ff ff ff 	mov    %rax,-0xb8(%rbp)
   188b6:	48 8d 85 b0 e9 ff ff 	lea    -0x1650(%rbp),%rax
   188bd:	48 89 85 50 ff ff ff 	mov    %rax,-0xb0(%rbp)
   188c4:	48 8d 85 b0 e9 ff ff 	lea    -0x1650(%rbp),%rax
   188cb:	48 89 85 58 ff ff ff 	mov    %rax,-0xa8(%rbp)
   188d2:	48 8d 85 b0 e9 ff ff 	lea    -0x1650(%rbp),%rax
   188d9:	48 89 85 60 ff ff ff 	mov    %rax,-0xa0(%rbp)
   188e0:	48 c7 85 68 ff ff ff 	movq   $0x0,-0x98(%rbp)
   188e7:	00 00 00 00 
   188eb:	48 c7 85 70 ff ff ff 	movq   $0x0,-0x90(%rbp)
   188f2:	00 00 00 00 
   188f6:	48 8d 85 b0 e9 ff ff 	lea    -0x1650(%rbp),%rax
   188fd:	48 89 85 78 ff ff ff 	mov    %rax,-0x88(%rbp)
   18904:	48 8d 85 b0 e9 ff ff 	lea    -0x1650(%rbp),%rax
   1890b:	48 89 45 80          	mov    %rax,-0x80(%rbp)
   1890f:	48 8d 85 b0 e9 ff ff 	lea    -0x1650(%rbp),%rax
   18916:	48 89 45 88          	mov    %rax,-0x78(%rbp)
   1891a:	48 8d 85 b0 e9 ff ff 	lea    -0x1650(%rbp),%rax
   18921:	48 89 45 90          	mov    %rax,-0x70(%rbp)
   18925:	48 8d 85 b0 e9 ff ff 	lea    -0x1650(%rbp),%rax
   1892c:	48 89 45 98          	mov    %rax,-0x68(%rbp)
   18930:	48 8d 85 b0 e9 ff ff 	lea    -0x1650(%rbp),%rax
   18937:	48 89 45 a0          	mov    %rax,-0x60(%rbp)
   1893b:	48 8d 85 b0 e9 ff ff 	lea    -0x1650(%rbp),%rax
   18942:	48 89 45 a8          	mov    %rax,-0x58(%rbp)
   18946:	48 c7 45 b0 00 00 00 	movq   $0x0,-0x50(%rbp)
   1894d:	00 
   1894e:	48 8d 85 b0 e9 ff ff 	lea    -0x1650(%rbp),%rax
   18955:	48 89 45 b8          	mov    %rax,-0x48(%rbp)
   18959:	48 8d 85 c0 fa ff ff 	lea    -0x540(%rbp),%rax
   18960:	48 05 40 03 00 00    	add    $0x340,%rax
   18966:	48 89 85 b8 e9 ff ff 	mov    %rax,-0x1648(%rbp)
   1896d:	48 8d 85 b8 e9 ff ff 	lea    -0x1648(%rbp),%rax
   18974:	48 89 85 00 ea ff ff 	mov    %rax,-0x1600(%rbp)
   1897b:	48 c7 85 08 ea ff ff 	movq   $0x0,-0x15f8(%rbp)
   18982:	00 00 00 00 
   18986:	48 c7 85 f0 eb ff ff 	movq   $0x0,-0x1410(%rbp)
   1898d:	00 00 00 00 
   18991:	48 c7 85 f8 eb ff ff 	movq   $0x0,-0x1408(%rbp)
   18998:	00 00 00 00 
   1899c:	48 c7 85 00 ec ff ff 	movq   $0x0,-0x1400(%rbp)
   189a3:	00 00 00 00 
   189a7:	48 c7 85 08 ec ff ff 	movq   $0x0,-0x13f8(%rbp)
   189ae:	00 00 00 00 
   189b2:	48 c7 85 10 ec ff ff 	movq   $0x0,-0x13f0(%rbp)
   189b9:	00 00 00 00 
   189bd:	48 c7 85 18 ec ff ff 	movq   $0x0,-0x13e8(%rbp)
   189c4:	00 00 00 00 
   189c8:	48 c7 85 20 ec ff ff 	movq   $0x0,-0x13e0(%rbp)
   189cf:	00 00 00 00 
   189d3:	48 c7 85 28 ec ff ff 	movq   $0x0,-0x13d8(%rbp)
   189da:	00 00 00 00 
   189de:	48 8d 05 03 ef 00 00 	lea    0xef03(%rip),%rax        # 278e8 <g_845>
   189e5:	48 89 85 80 ec ff ff 	mov    %rax,-0x1380(%rbp)
   189ec:	48 8d 05 f5 ee 00 00 	lea    0xeef5(%rip),%rax        # 278e8 <g_845>
   189f3:	48 89 85 88 ec ff ff 	mov    %rax,-0x1378(%rbp)
   189fa:	48 8d 05 e7 ee 00 00 	lea    0xeee7(%rip),%rax        # 278e8 <g_845>
   18a01:	48 89 85 90 ec ff ff 	mov    %rax,-0x1370(%rbp)
   18a08:	48 8d 05 d9 ee 00 00 	lea    0xeed9(%rip),%rax        # 278e8 <g_845>
   18a0f:	48 89 85 98 ec ff ff 	mov    %rax,-0x1368(%rbp)
   18a16:	48 8d 05 cb ee 00 00 	lea    0xeecb(%rip),%rax        # 278e8 <g_845>
   18a1d:	48 89 85 a0 ec ff ff 	mov    %rax,-0x1360(%rbp)
   18a24:	48 8d 05 bd ee 00 00 	lea    0xeebd(%rip),%rax        # 278e8 <g_845>
   18a2b:	48 89 85 a8 ec ff ff 	mov    %rax,-0x1358(%rbp)
   18a32:	48 8d 05 af ee 00 00 	lea    0xeeaf(%rip),%rax        # 278e8 <g_845>
   18a39:	48 89 85 b0 ec ff ff 	mov    %rax,-0x1350(%rbp)
   18a40:	48 8d 05 a1 ee 00 00 	lea    0xeea1(%rip),%rax        # 278e8 <g_845>
   18a47:	48 89 85 b8 ec ff ff 	mov    %rax,-0x1348(%rbp)
   18a4e:	48 8d 05 93 ee 00 00 	lea    0xee93(%rip),%rax        # 278e8 <g_845>
   18a55:	48 89 85 c0 ec ff ff 	mov    %rax,-0x1340(%rbp)
   18a5c:	48 8d 05 85 ee 00 00 	lea    0xee85(%rip),%rax        # 278e8 <g_845>
   18a63:	48 89 85 c8 ec ff ff 	mov    %rax,-0x1338(%rbp)
   18a6a:	66 c7 85 6a e9 ff ff 	movw   $0x1,-0x1696(%rbp)
   18a71:	01 00 
   18a73:	c7 85 78 e9 ff ff ff 	movl   $0xffffffff,-0x1688(%rbp)
   18a7a:	ff ff ff 
   18a7d:	c6 85 65 e9 ff ff 05 	movb   $0x5,-0x169b(%rbp)
   18a84:	48 c7 85 50 e9 ff ff 	movq   $0x15,-0x16b0(%rbp)
   18a8b:	15 00 00 00 
   18a8f:	e9 07 01 00 00       	jmpq   18b9b <func_58+0xc0b>
   18a94:	66 c7 85 72 e9 ff ff 	movw   $0x122a,-0x168e(%rbp)
   18a9b:	2a 12 
   18a9d:	c7 85 9c e9 ff ff fc 	movl   $0xfffffffc,-0x1664(%rbp)
   18aa4:	ff ff ff 
   18aa7:	48 8d 05 2a f9 00 00 	lea    0xf92a(%rip),%rax        # 283d8 <g_247>
   18aae:	48 89 85 90 eb ff ff 	mov    %rax,-0x1470(%rbp)
   18ab5:	c7 85 a0 e9 ff ff ff 	movl   $0xffffffff,-0x1660(%rbp)
   18abc:	ff ff ff 
   18abf:	48 c7 85 c0 e9 ff ff 	movq   $0x0,-0x1640(%rbp)
   18ac6:	00 00 00 00 
   18aca:	48 8d 85 c0 e9 ff ff 	lea    -0x1640(%rbp),%rax
   18ad1:	48 89 85 d0 ec ff ff 	mov    %rax,-0x1330(%rbp)
   18ad8:	48 c7 85 d8 ec ff ff 	movq   $0x0,-0x1328(%rbp)
   18adf:	00 00 00 00 
   18ae3:	48 8d 85 c0 e9 ff ff 	lea    -0x1640(%rbp),%rax
   18aea:	48 89 85 e0 ec ff ff 	mov    %rax,-0x1320(%rbp)
   18af1:	48 c7 85 e8 ec ff ff 	movq   $0x0,-0x1318(%rbp)
   18af8:	00 00 00 00 
   18afc:	c7 85 a4 e9 ff ff ff 	movl   $0xffffffff,-0x165c(%rbp)
   18b03:	ff ff ff 
   18b06:	48 c7 85 c8 e9 ff ff 	movq   $0x0,-0x1638(%rbp)
   18b0d:	00 00 00 00 
   18b11:	48 8d 85 c8 e9 ff ff 	lea    -0x1638(%rbp),%rax
   18b18:	48 89 85 10 f6 ff ff 	mov    %rax,-0x9f0(%rbp)
   18b1f:	48 8d 85 c8 e9 ff ff 	lea    -0x1638(%rbp),%rax
   18b26:	48 89 85 18 f6 ff ff 	mov    %rax,-0x9e8(%rbp)
   18b2d:	48 8d 85 c8 e9 ff ff 	lea    -0x1638(%rbp),%rax
   18b34:	48 89 85 20 f6 ff ff 	mov    %rax,-0x9e0(%rbp)
   18b3b:	48 8d 85 c8 e9 ff ff 	lea    -0x1638(%rbp),%rax
   18b42:	48 89 85 28 f6 ff ff 	mov    %rax,-0x9d8(%rbp)
   18b49:	48 8d 85 c8 e9 ff ff 	lea    -0x1638(%rbp),%rax
   18b50:	48 89 85 30 f6 ff ff 	mov    %rax,-0x9d0(%rbp)
   18b57:	48 c7 85 98 eb ff ff 	movq   $0x1,-0x1468(%rbp)
   18b5e:	01 00 00 00 
   18b62:	48 8d 05 ef e8 00 00 	lea    0xe8ef(%rip),%rax        # 27458 <g_207>
   18b69:	48 89 85 d0 e9 ff ff 	mov    %rax,-0x1630(%rbp)
   18b70:	48 8d 85 d0 e9 ff ff 	lea    -0x1630(%rbp),%rax
   18b77:	48 89 85 a0 eb ff ff 	mov    %rax,-0x1460(%rbp)
   18b7e:	c6 85 67 e9 ff ff ff 	movb   $0xff,-0x1699(%rbp)
   18b85:	48 8d 05 10 a5 00 00 	lea    0xa510(%rip),%rax        # 2309c <g_78+0x1c>
   18b8c:	48 89 85 a8 eb ff ff 	mov    %rax,-0x1458(%rbp)
   18b93:	48 83 85 50 e9 ff ff 	addq   $0x1,-0x16b0(%rbp)
   18b9a:	01 
   18b9b:	48 83 bd 50 e9 ff ff 	cmpq   $0x2e,-0x16b0(%rbp)
   18ba2:	2e 
   18ba3:	0f 87 eb fe ff ff    	ja     18a94 <func_58+0xb04>
   18ba9:	48 c7 85 50 e9 ff ff 	movq   $0x0,-0x16b0(%rbp)
   18bb0:	00 00 00 00 
   18bb4:	e9 03 04 00 00       	jmpq   18fbc <func_58+0x102c>
   18bb9:	48 8d 85 d0 ed ff ff 	lea    -0x1230(%rbp),%rax
   18bc0:	48 05 a4 01 00 00    	add    $0x1a4,%rax
   18bc6:	48 89 85 e0 ea ff ff 	mov    %rax,-0x1520(%rbp)
   18bcd:	48 8d 05 bc a4 00 00 	lea    0xa4bc(%rip),%rax        # 23090 <g_78+0x10>
   18bd4:	48 89 85 e8 ea ff ff 	mov    %rax,-0x1518(%rbp)
   18bdb:	48 8d 85 d0 ed ff ff 	lea    -0x1230(%rbp),%rax
   18be2:	48 83 c0 2c          	add    $0x2c,%rax
   18be6:	48 89 85 f0 ea ff ff 	mov    %rax,-0x1510(%rbp)
   18bed:	48 8d 05 a0 a4 00 00 	lea    0xa4a0(%rip),%rax        # 23094 <g_78+0x14>
   18bf4:	48 89 85 f8 ea ff ff 	mov    %rax,-0x1508(%rbp)
   18bfb:	48 8d 05 82 a4 00 00 	lea    0xa482(%rip),%rax        # 23084 <g_78+0x4>
   18c02:	48 89 85 00 eb ff ff 	mov    %rax,-0x1500(%rbp)
   18c09:	c7 85 c0 e9 ff ff 00 	movl   $0x0,-0x1640(%rbp)
   18c10:	00 00 00 
   18c13:	48 8d 85 d0 ed ff ff 	lea    -0x1230(%rbp),%rax
   18c1a:	48 83 e8 80          	sub    $0xffffffffffffff80,%rax
   18c1e:	48 89 85 08 eb ff ff 	mov    %rax,-0x14f8(%rbp)
   18c25:	48 8d 85 d0 ed ff ff 	lea    -0x1230(%rbp),%rax
   18c2c:	48 05 a4 01 00 00    	add    $0x1a4,%rax
   18c32:	48 89 85 10 eb ff ff 	mov    %rax,-0x14f0(%rbp)
   18c39:	48 8d 85 74 e9 ff ff 	lea    -0x168c(%rbp),%rax
   18c40:	48 89 85 18 eb ff ff 	mov    %rax,-0x14e8(%rbp)
   18c47:	48 8d 05 3e a4 00 00 	lea    0xa43e(%rip),%rax        # 2308c <g_78+0xc>
   18c4e:	48 89 85 20 eb ff ff 	mov    %rax,-0x14e0(%rbp)
   18c55:	48 8d 05 40 a4 00 00 	lea    0xa440(%rip),%rax        # 2309c <g_78+0x1c>
   18c5c:	48 89 85 28 eb ff ff 	mov    %rax,-0x14d8(%rbp)
   18c63:	48 8d 05 32 a4 00 00 	lea    0xa432(%rip),%rax        # 2309c <g_78+0x1c>
   18c6a:	48 89 85 30 eb ff ff 	mov    %rax,-0x14d0(%rbp)
   18c71:	48 c7 85 38 eb ff ff 	movq   $0x0,-0x14c8(%rbp)
   18c78:	00 00 00 00 
   18c7c:	48 8d 85 d0 ed ff ff 	lea    -0x1230(%rbp),%rax
   18c83:	48 05 dc 00 00 00    	add    $0xdc,%rax
   18c89:	48 89 85 40 eb ff ff 	mov    %rax,-0x14c0(%rbp)
   18c90:	48 8d 85 d0 ed ff ff 	lea    -0x1230(%rbp),%rax
   18c97:	48 05 a4 01 00 00    	add    $0x1a4,%rax
   18c9d:	48 89 85 48 eb ff ff 	mov    %rax,-0x14b8(%rbp)
   18ca4:	48 8d 85 74 e9 ff ff 	lea    -0x168c(%rbp),%rax
   18cab:	48 89 85 50 eb ff ff 	mov    %rax,-0x14b0(%rbp)
   18cb2:	48 8d 85 c0 e9 ff ff 	lea    -0x1640(%rbp),%rax
   18cb9:	48 89 85 58 eb ff ff 	mov    %rax,-0x14a8(%rbp)
   18cc0:	48 8d 85 d0 ed ff ff 	lea    -0x1230(%rbp),%rax
   18cc7:	48 05 a8 00 00 00    	add    $0xa8,%rax
   18ccd:	48 89 85 60 eb ff ff 	mov    %rax,-0x14a0(%rbp)
   18cd4:	48 8d 05 c1 a3 00 00 	lea    0xa3c1(%rip),%rax        # 2309c <g_78+0x1c>
   18cdb:	48 89 85 68 eb ff ff 	mov    %rax,-0x1498(%rbp)
   18ce2:	48 c7 85 10 f6 ff ff 	movq   $0x0,-0x9f0(%rbp)
   18ce9:	00 00 00 00 
   18ced:	48 8d 85 d0 ed ff ff 	lea    -0x1230(%rbp),%rax
   18cf4:	48 05 a8 01 00 00    	add    $0x1a8,%rax
   18cfa:	48 89 85 18 f6 ff ff 	mov    %rax,-0x9e8(%rbp)
   18d01:	48 c7 85 20 f6 ff ff 	movq   $0x0,-0x9e0(%rbp)
   18d08:	00 00 00 00 
   18d0c:	48 8d 85 c0 e9 ff ff 	lea    -0x1640(%rbp),%rax
   18d13:	48 89 85 28 f6 ff ff 	mov    %rax,-0x9d8(%rbp)
   18d1a:	48 8d 85 c0 e9 ff ff 	lea    -0x1640(%rbp),%rax
   18d21:	48 89 85 30 f6 ff ff 	mov    %rax,-0x9d0(%rbp)
   18d28:	48 8d 05 25 a3 00 00 	lea    0xa325(%rip),%rax        # 23054 <g_22+0x14>
   18d2f:	48 89 85 38 f6 ff ff 	mov    %rax,-0x9c8(%rbp)
   18d36:	48 c7 85 40 f6 ff ff 	movq   $0x0,-0x9c0(%rbp)
   18d3d:	00 00 00 00 
   18d41:	48 8d 05 0c a3 00 00 	lea    0xa30c(%rip),%rax        # 23054 <g_22+0x14>
   18d48:	48 89 85 48 f6 ff ff 	mov    %rax,-0x9b8(%rbp)
   18d4f:	48 8d 05 fe a2 00 00 	lea    0xa2fe(%rip),%rax        # 23054 <g_22+0x14>
   18d56:	48 89 85 50 f6 ff ff 	mov    %rax,-0x9b0(%rbp)
   18d5d:	48 8d 05 f0 a2 00 00 	lea    0xa2f0(%rip),%rax        # 23054 <g_22+0x14>
   18d64:	48 89 85 58 f6 ff ff 	mov    %rax,-0x9a8(%rbp)
   18d6b:	48 c7 85 60 f6 ff ff 	movq   $0x0,-0x9a0(%rbp)
   18d72:	00 00 00 00 
   18d76:	48 8d 85 d0 ed ff ff 	lea    -0x1230(%rbp),%rax
   18d7d:	48 05 a4 01 00 00    	add    $0x1a4,%rax
   18d83:	48 89 85 68 f6 ff ff 	mov    %rax,-0x998(%rbp)
   18d8a:	48 c7 85 70 f6 ff ff 	movq   $0x0,-0x990(%rbp)
   18d91:	00 00 00 00 
   18d95:	48 c7 85 78 f6 ff ff 	movq   $0x0,-0x988(%rbp)
   18d9c:	00 00 00 00 
   18da0:	48 c7 85 80 f6 ff ff 	movq   $0x0,-0x980(%rbp)
   18da7:	00 00 00 00 
   18dab:	48 8d 85 c0 e9 ff ff 	lea    -0x1640(%rbp),%rax
   18db2:	48 89 85 88 f6 ff ff 	mov    %rax,-0x978(%rbp)
   18db9:	48 8d 05 dc a2 00 00 	lea    0xa2dc(%rip),%rax        # 2309c <g_78+0x1c>
   18dc0:	48 89 85 90 f6 ff ff 	mov    %rax,-0x970(%rbp)
   18dc7:	48 8d 85 c0 e9 ff ff 	lea    -0x1640(%rbp),%rax
   18dce:	48 89 85 98 f6 ff ff 	mov    %rax,-0x968(%rbp)
   18dd5:	48 8d 05 78 a2 00 00 	lea    0xa278(%rip),%rax        # 23054 <g_22+0x14>
   18ddc:	48 89 85 a0 f6 ff ff 	mov    %rax,-0x960(%rbp)
   18de3:	48 8d 05 6a a2 00 00 	lea    0xa26a(%rip),%rax        # 23054 <g_22+0x14>
   18dea:	48 89 85 a8 f6 ff ff 	mov    %rax,-0x958(%rbp)
   18df1:	48 c7 85 b0 f6 ff ff 	movq   $0x0,-0x950(%rbp)
   18df8:	00 00 00 00 
   18dfc:	48 8d 85 d0 ed ff ff 	lea    -0x1230(%rbp),%rax
   18e03:	48 05 a4 01 00 00    	add    $0x1a4,%rax
   18e09:	48 89 85 b8 f6 ff ff 	mov    %rax,-0x948(%rbp)
   18e10:	48 c7 85 c0 f6 ff ff 	movq   $0x0,-0x940(%rbp)
   18e17:	00 00 00 00 
   18e1b:	48 c7 85 c8 f6 ff ff 	movq   $0x0,-0x938(%rbp)
   18e22:	00 00 00 00 
   18e26:	48 c7 85 d0 f6 ff ff 	movq   $0x0,-0x930(%rbp)
   18e2d:	00 00 00 00 
   18e31:	48 8d 85 c0 e9 ff ff 	lea    -0x1640(%rbp),%rax
   18e38:	48 89 85 d8 f6 ff ff 	mov    %rax,-0x928(%rbp)
   18e3f:	48 8d 05 56 a2 00 00 	lea    0xa256(%rip),%rax        # 2309c <g_78+0x1c>
   18e46:	48 89 85 e0 f6 ff ff 	mov    %rax,-0x920(%rbp)
   18e4d:	48 8d 85 c0 e9 ff ff 	lea    -0x1640(%rbp),%rax
   18e54:	48 89 85 e8 f6 ff ff 	mov    %rax,-0x918(%rbp)
   18e5b:	48 8d 05 f2 a1 00 00 	lea    0xa1f2(%rip),%rax        # 23054 <g_22+0x14>
   18e62:	48 89 85 f0 f6 ff ff 	mov    %rax,-0x910(%rbp)
   18e69:	48 8d 05 e4 a1 00 00 	lea    0xa1e4(%rip),%rax        # 23054 <g_22+0x14>
   18e70:	48 89 85 f8 f6 ff ff 	mov    %rax,-0x908(%rbp)
   18e77:	48 c7 85 00 f7 ff ff 	movq   $0x0,-0x900(%rbp)
   18e7e:	00 00 00 00 
   18e82:	48 8d 85 d0 ed ff ff 	lea    -0x1230(%rbp),%rax
   18e89:	48 05 a4 01 00 00    	add    $0x1a4,%rax
   18e8f:	48 89 85 08 f7 ff ff 	mov    %rax,-0x8f8(%rbp)
   18e96:	48 c7 85 10 f7 ff ff 	movq   $0x0,-0x8f0(%rbp)
   18e9d:	00 00 00 00 
   18ea1:	48 c7 85 18 f7 ff ff 	movq   $0x0,-0x8e8(%rbp)
   18ea8:	00 00 00 00 
   18eac:	48 c7 85 20 f7 ff ff 	movq   $0x0,-0x8e0(%rbp)
   18eb3:	00 00 00 00 
   18eb7:	48 8d 85 c0 e9 ff ff 	lea    -0x1640(%rbp),%rax
   18ebe:	48 89 85 28 f7 ff ff 	mov    %rax,-0x8d8(%rbp)
   18ec5:	48 8d 05 d0 a1 00 00 	lea    0xa1d0(%rip),%rax        # 2309c <g_78+0x1c>
   18ecc:	48 89 85 30 f7 ff ff 	mov    %rax,-0x8d0(%rbp)
   18ed3:	48 8d 85 c0 e9 ff ff 	lea    -0x1640(%rbp),%rax
   18eda:	48 89 85 38 f7 ff ff 	mov    %rax,-0x8c8(%rbp)
   18ee1:	48 8d 05 6c a1 00 00 	lea    0xa16c(%rip),%rax        # 23054 <g_22+0x14>
   18ee8:	48 89 85 40 f7 ff ff 	mov    %rax,-0x8c0(%rbp)
   18eef:	48 8d 05 5e a1 00 00 	lea    0xa15e(%rip),%rax        # 23054 <g_22+0x14>
   18ef6:	48 89 85 48 f7 ff ff 	mov    %rax,-0x8b8(%rbp)
   18efd:	c7 85 98 e9 ff ff 00 	movl   $0x0,-0x1668(%rbp)
   18f04:	00 00 00 
   18f07:	48 c7 85 70 eb ff ff 	movq   $0x0,-0x1490(%rbp)
   18f0e:	00 00 00 00 
   18f12:	c6 85 66 e9 ff ff d5 	movb   $0xd5,-0x169a(%rbp)
   18f19:	48 8d 85 68 e9 ff ff 	lea    -0x1698(%rbp),%rax
   18f20:	48 89 85 78 eb ff ff 	mov    %rax,-0x1488(%rbp)
   18f27:	48 c7 85 c8 e9 ff ff 	movq   $0x0,-0x1638(%rbp)
   18f2e:	00 00 00 00 
   18f32:	48 8d 85 c8 e9 ff ff 	lea    -0x1638(%rbp),%rax
   18f39:	48 89 85 80 eb ff ff 	mov    %rax,-0x1480(%rbp)
   18f40:	66 c7 85 d0 ec ff ff 	movw   $0xffff,-0x1330(%rbp)
   18f47:	ff ff 
   18f49:	66 c7 85 d2 ec ff ff 	movw   $0xffff,-0x132e(%rbp)
   18f50:	ff ff 
   18f52:	66 c7 85 d4 ec ff ff 	movw   $0xffff,-0x132c(%rbp)
   18f59:	ff ff 
   18f5b:	66 c7 85 d6 ec ff ff 	movw   $0xffff,-0x132a(%rbp)
   18f62:	ff ff 
   18f64:	66 c7 85 d8 ec ff ff 	movw   $0xffff,-0x1328(%rbp)
   18f6b:	ff ff 
   18f6d:	66 c7 85 da ec ff ff 	movw   $0xffff,-0x1326(%rbp)
   18f74:	ff ff 
   18f76:	66 c7 85 dc ec ff ff 	movw   $0xffff,-0x1324(%rbp)
   18f7d:	ff ff 
   18f7f:	66 c7 85 de ec ff ff 	movw   $0xffff,-0x1322(%rbp)
   18f86:	ff ff 
   18f88:	66 c7 85 e0 ec ff ff 	movw   $0xffff,-0x1320(%rbp)
   18f8f:	ff ff 
   18f91:	48 8d 05 40 f4 00 00 	lea    0xf440(%rip),%rax        # 283d8 <g_247>
   18f98:	48 89 85 d0 e9 ff ff 	mov    %rax,-0x1630(%rbp)
   18f9f:	48 8d 85 d0 e9 ff ff 	lea    -0x1630(%rbp),%rax
   18fa6:	48 89 85 88 eb ff ff 	mov    %rax,-0x1478(%rbp)
   18fad:	83 ad 98 e9 ff ff 01 	subl   $0x1,-0x1668(%rbp)
   18fb4:	48 83 85 50 e9 ff ff 	addq   $0x1,-0x16b0(%rbp)
   18fbb:	01 
   18fbc:	48 83 bd 50 e9 ff ff 	cmpq   $0x32,-0x16b0(%rbp)
   18fc3:	32 
   18fc4:	0f 86 ef fb ff ff    	jbe    18bb9 <func_58+0xc29>
   18fca:	48 c7 05 4b a6 00 00 	movq   $0xfffffffffffffff7,0xa64b(%rip)        # 23620 <g_833>
   18fd1:	f7 ff ff ff 
   18fd5:	e9 ef 0f 00 00       	jmpq   19fc9 <func_58+0x2039>
   18fda:	48 8d 85 74 e9 ff ff 	lea    -0x168c(%rbp),%rax
   18fe1:	48 89 85 10 ea ff ff 	mov    %rax,-0x15f0(%rbp)
   18fe8:	48 c7 85 30 ec ff ff 	movq   $0x0,-0x13d0(%rbp)
   18fef:	00 00 00 00 
   18ff3:	48 c7 85 38 ec ff ff 	movq   $0x0,-0x13c8(%rbp)
   18ffa:	00 00 00 00 
   18ffe:	48 c7 85 40 ec ff ff 	movq   $0x0,-0x13c0(%rbp)
   19005:	00 00 00 00 
   19009:	48 c7 85 48 ec ff ff 	movq   $0x0,-0x13b8(%rbp)
   19010:	00 00 00 00 
   19014:	48 c7 85 50 ec ff ff 	movq   $0x0,-0x13b0(%rbp)
   1901b:	00 00 00 00 
   1901f:	48 c7 85 58 ec ff ff 	movq   $0x0,-0x13a8(%rbp)
   19026:	00 00 00 00 
   1902a:	48 c7 85 60 ec ff ff 	movq   $0x0,-0x13a0(%rbp)
   19031:	00 00 00 00 
   19035:	48 c7 85 68 ec ff ff 	movq   $0x0,-0x1398(%rbp)
   1903c:	00 00 00 00 
   19040:	48 c7 85 70 ec ff ff 	movq   $0x0,-0x1390(%rbp)
   19047:	00 00 00 00 
   1904b:	c7 85 80 e9 ff ff a5 	movl   $0xb6210fa5,-0x1680(%rbp)
   19052:	0f 21 b6 
   19055:	48 c7 85 c0 e9 ff ff 	movq   $0x0,-0x1640(%rbp)
   1905c:	00 00 00 00 
   19060:	48 8d 85 c0 e9 ff ff 	lea    -0x1640(%rbp),%rax
   19067:	48 89 85 18 ea ff ff 	mov    %rax,-0x15e8(%rbp)
   1906e:	48 8d 05 ab e3 00 00 	lea    0xe3ab(%rip),%rax        # 27420 <g_95>
   19075:	48 89 85 20 ea ff ff 	mov    %rax,-0x15e0(%rbp)
   1907c:	48 c7 85 c8 e9 ff ff 	movq   $0x0,-0x1638(%rbp)
   19083:	00 00 00 00 
   19087:	48 8d 85 c8 e9 ff ff 	lea    -0x1638(%rbp),%rax
   1908e:	48 89 85 28 ea ff ff 	mov    %rax,-0x15d8(%rbp)
   19095:	48 b8 e2 33 b0 89 87 	movabs $0x2713aa8789b033e2,%rax
   1909c:	aa 13 27 
   1909f:	48 89 85 30 ea ff ff 	mov    %rax,-0x15d0(%rbp)
   190a6:	48 8b 85 10 ea ff ff 	mov    -0x15f0(%rbp),%rax
   190ad:	8b 00                	mov    (%rax),%eax
   190af:	89 c2                	mov    %eax,%edx
   190b1:	48 8b 85 50 e9 ff ff 	mov    -0x16b0(%rbp),%rax
   190b8:	09 d0                	or     %edx,%eax
   190ba:	89 c2                	mov    %eax,%edx
   190bc:	48 8b 85 10 ea ff ff 	mov    -0x15f0(%rbp),%rax
   190c3:	89 10                	mov    %edx,(%rax)
   190c5:	66 c7 05 02 f3 00 00 	movw   $0x0,0xf302(%rip)        # 283d0 <g_229>
   190cc:	00 00 
   190ce:	e9 f9 04 00 00       	jmpq   195cc <func_58+0x163c>
   190d3:	48 8d 05 22 a4 00 00 	lea    0xa422(%rip),%rax        # 234fc <g_682>
   190da:	48 89 85 b0 ea ff ff 	mov    %rax,-0x1550(%rbp)
   190e1:	48 c7 85 b8 ea ff ff 	movq   $0x0,-0x1548(%rbp)
   190e8:	00 00 00 00 
   190ec:	c7 85 7c e9 ff ff 2f 	movl   $0xf617032f,-0x1684(%rbp)
   190f3:	03 17 f6 
   190f6:	48 8d 05 2b e3 00 00 	lea    0xe32b(%rip),%rax        # 27428 <g_94>
   190fd:	48 89 85 c0 ea ff ff 	mov    %rax,-0x1540(%rbp)
   19104:	48 8b 05 dd e7 00 00 	mov    0xe7dd(%rip),%rax        # 278e8 <g_845>
   1910b:	48 8b 10             	mov    (%rax),%rdx
   1910e:	48 8b 02             	mov    (%rdx),%rax
   19111:	48 8d 48 ff          	lea    -0x1(%rax),%rcx
   19115:	48 89 0a             	mov    %rcx,(%rdx)
   19118:	48 85 c0             	test   %rax,%rax
   1911b:	0f 85 10 01 00 00    	jne    19231 <func_58+0x12a1>
   19121:	0f b7 85 5c e9 ff ff 	movzwl -0x16a4(%rbp),%eax
   19128:	44 0f bf e0          	movswl %ax,%r12d
   1912c:	48 8b 05 85 e7 00 00 	mov    0xe785(%rip),%rax        # 278b8 <g_464>
   19133:	0f b6 00             	movzbl (%rax),%eax
   19136:	44 0f b6 e8          	movzbl %al,%r13d
   1913a:	8b 85 78 e9 ff ff    	mov    -0x1688(%rbp),%eax
   19140:	0f b6 d8             	movzbl %al,%ebx
   19143:	48 8b 85 10 ea ff ff 	mov    -0x15f0(%rbp),%rax
   1914a:	8b 00                	mov    (%rax),%eax
   1914c:	89 c2                	mov    %eax,%edx
   1914e:	0f b7 05 4f 9f 00 00 	movzwl 0x9f4f(%rip),%eax        # 230a4 <g_206>
   19155:	21 d0                	and    %edx,%eax
   19157:	66 89 05 46 9f 00 00 	mov    %ax,0x9f46(%rip)        # 230a4 <g_206>
   1915e:	48 8b 05 43 e7 00 00 	mov    0xe743(%rip),%rax        # 278a8 <g_431>
   19165:	0f b6 00             	movzbl (%rax),%eax
   19168:	48 8b 05 49 e7 00 00 	mov    0xe749(%rip),%rax        # 278b8 <g_464>
   1916f:	0f b6 00             	movzbl (%rax),%eax
   19172:	0f b6 c0             	movzbl %al,%eax
   19175:	48 8b 15 4c e7 00 00 	mov    0xe74c(%rip),%rdx        # 278c8 <g_656>
   1917c:	89 c6                	mov    %eax,%esi
   1917e:	bf ff ff ff ff       	mov    $0xffffffff,%edi
   19183:	e8 66 21 ff ff       	callq  b2ee <safe_lshift_func_int8_t_s_u>
   19188:	0f be d0             	movsbl %al,%edx
   1918b:	48 8b 85 f8 e9 ff ff 	mov    -0x1608(%rbp),%rax
   19192:	48 8b 00             	mov    (%rax),%rax
   19195:	8b 00                	mov    (%rax),%eax
   19197:	0f be c0             	movsbl %al,%eax
   1919a:	89 d6                	mov    %edx,%esi
   1919c:	89 c7                	mov    %eax,%edi
   1919e:	e8 4f 20 ff ff       	callq  b1f2 <safe_sub_func_int8_t_s_s>
   191a3:	0f b6 05 9a 68 00 00 	movzbl 0x689a(%rip),%eax        # 1fa44 <l_1086.5382+0x24>
   191aa:	0f b6 c0             	movzbl %al,%eax
   191ad:	be 00 00 00 00       	mov    $0x0,%esi
   191b2:	89 c7                	mov    %eax,%edi
   191b4:	e8 3c 22 ff ff       	callq  b3f5 <safe_mul_func_int16_t_s_s>
   191b9:	89 de                	mov    %ebx,%esi
   191bb:	bf ff 00 00 00       	mov    $0xff,%edi
   191c0:	e8 b3 29 ff ff       	callq  bb78 <safe_sub_func_uint8_t_u_u>
   191c5:	0f b6 d0             	movzbl %al,%edx
   191c8:	8b 05 b2 a2 00 00    	mov    0xa2b2(%rip),%eax        # 23480 <g_486>
   191ce:	31 d0                	xor    %edx,%eax
   191d0:	89 05 aa a2 00 00    	mov    %eax,0xa2aa(%rip)        # 23480 <g_486>
   191d6:	8b 15 a4 a2 00 00    	mov    0xa2a4(%rip),%edx        # 23480 <g_486>
   191dc:	48 8b 85 b0 ea ff ff 	mov    -0x1550(%rbp),%rax
   191e3:	8b 00                	mov    (%rax),%eax
   191e5:	09 c2                	or     %eax,%edx
   191e7:	48 8b 85 b0 ea ff ff 	mov    -0x1550(%rbp),%rax
   191ee:	89 10                	mov    %edx,(%rax)
   191f0:	48 8b 85 b0 ea ff ff 	mov    -0x1550(%rbp),%rax
   191f7:	8b 00                	mov    (%rax),%eax
   191f9:	be ff ff ff ff       	mov    $0xffffffff,%esi
   191fe:	89 c7                	mov    %eax,%edi
   19200:	e8 20 2d ff ff       	callq  bf25 <safe_div_func_uint32_t_u_u>
   19205:	0f b7 95 5c e9 ff ff 	movzwl -0x16a4(%rbp),%edx
   1920c:	0f bf d2             	movswl %dx,%edx
   1920f:	39 d0                	cmp    %edx,%eax
   19211:	0f 97 c0             	seta   %al
   19214:	0f b6 c0             	movzbl %al,%eax
   19217:	41 39 c5             	cmp    %eax,%r13d
   1921a:	0f 9f c0             	setg   %al
   1921d:	0f b6 c0             	movzbl %al,%eax
   19220:	41 39 c4             	cmp    %eax,%r12d
   19223:	75 0c                	jne    19231 <func_58+0x12a1>
   19225:	0f b7 85 5c e9 ff ff 	movzwl -0x16a4(%rbp),%eax
   1922c:	66 85 c0             	test   %ax,%ax
   1922f:	74 07                	je     19238 <func_58+0x12a8>
   19231:	b8 01 00 00 00       	mov    $0x1,%eax
   19236:	eb 05                	jmp    1923d <func_58+0x12ad>
   19238:	b8 00 00 00 00       	mov    $0x0,%eax
   1923d:	89 c6                	mov    %eax,%esi
   1923f:	bf 85 69 00 00       	mov    $0x6985,%edi
   19244:	e8 1a 23 ff ff       	callq  b563 <safe_rshift_func_int16_t_s_u>
   19249:	0f b7 95 5c e9 ff ff 	movzwl -0x16a4(%rbp),%edx
   19250:	66 39 d0             	cmp    %dx,%ax
   19253:	7f 6d                	jg     192c2 <func_58+0x1332>
   19255:	48 8b 85 38 ec ff ff 	mov    -0x13c8(%rbp),%rax
   1925c:	48 85 c0             	test   %rax,%rax
   1925f:	0f 94 c0             	sete   %al
   19262:	0f b6 c0             	movzbl %al,%eax
   19265:	48 89 85 50 e9 ff ff 	mov    %rax,-0x16b0(%rbp)
   1926c:	48 8b 05 6d e6 00 00 	mov    0xe66d(%rip),%rax        # 278e0 <g_846>
   19273:	48 8b 95 50 e9 ff ff 	mov    -0x16b0(%rbp),%rdx
   1927a:	48 89 10             	mov    %rdx,(%rax)
   1927d:	48 8b 00             	mov    (%rax),%rax
   19280:	48 89 c2             	mov    %rax,%rdx
   19283:	0f b7 85 5c e9 ff ff 	movzwl -0x16a4(%rbp),%eax
   1928a:	48 0f bf c0          	movswq %ax,%rax
   1928e:	48 89 d6             	mov    %rdx,%rsi
   19291:	48 89 c7             	mov    %rax,%rdi
   19294:	e8 0f 26 ff ff       	callq  b8a8 <safe_sub_func_int64_t_s_s>
   19299:	89 c2                	mov    %eax,%edx
   1929b:	48 8b 85 10 ea ff ff 	mov    -0x15f0(%rbp),%rax
   192a2:	89 10                	mov    %edx,(%rax)
   192a4:	48 8b 05 1d e6 00 00 	mov    0xe61d(%rip),%rax        # 278c8 <g_656>
   192ab:	48 8b 95 10 ea ff ff 	mov    -0x15f0(%rbp),%rdx
   192b2:	8b 12                	mov    (%rdx),%edx
   192b4:	89 10                	mov    %edx,(%rax)
   192b6:	48 8b 85 b8 ea ff ff 	mov    -0x1548(%rbp),%rax
   192bd:	e9 36 0d 00 00       	jmpq   19ff8 <func_58+0x2068>
   192c2:	c6 85 64 e9 ff ff 00 	movb   $0x0,-0x169c(%rbp)
   192c9:	48 8d 05 cc 9d 00 00 	lea    0x9dcc(%rip),%rax        # 2309c <g_78+0x1c>
   192d0:	48 89 85 c8 ea ff ff 	mov    %rax,-0x1538(%rbp)
   192d7:	48 c7 85 50 e9 ff ff 	movq   $0x19,-0x16b0(%rbp)
   192de:	19 00 00 00 
   192e2:	e9 c0 01 00 00       	jmpq   194a7 <func_58+0x1517>
   192e7:	66 c7 85 70 e9 ff ff 	movw   $0xfff9,-0x1690(%rbp)
   192ee:	f9 ff 
   192f0:	48 c7 85 d8 e9 ff ff 	movq   $0x0,-0x1628(%rbp)
   192f7:	00 00 00 00 
   192fb:	e9 80 01 00 00       	jmpq   19480 <func_58+0x14f0>
   19300:	48 c7 85 d0 e9 ff ff 	movq   $0x0,-0x1630(%rbp)
   19307:	00 00 00 00 
   1930b:	48 8d 85 d0 e9 ff ff 	lea    -0x1630(%rbp),%rax
   19312:	48 89 85 d0 ea ff ff 	mov    %rax,-0x1530(%rbp)
   19319:	48 8d 85 a8 e9 ff ff 	lea    -0x1658(%rbp),%rax
   19320:	48 89 85 d8 ea ff ff 	mov    %rax,-0x1528(%rbp)
   19327:	48 8b 85 50 e9 ff ff 	mov    -0x16b0(%rbp),%rax
   1932e:	41 89 c6             	mov    %eax,%r14d
   19331:	48 8b 85 d0 ea ff ff 	mov    -0x1530(%rbp),%rax
   19338:	48 8d 15 19 e1 00 00 	lea    0xe119(%rip),%rdx        # 27458 <g_207>
   1933f:	48 89 10             	mov    %rdx,(%rax)
   19342:	48 8b 85 50 e9 ff ff 	mov    -0x16b0(%rbp),%rax
   19349:	0f b6 d8             	movzbl %al,%ebx
   1934c:	0f b6 05 04 67 00 00 	movzbl 0x6704(%rip),%eax        # 1fa57 <l_1086.5382+0x37>
   19353:	44 0f b6 e0          	movzbl %al,%r12d
   19357:	4c 0f bf ad 70 e9 ff 	movswq -0x1690(%rbp),%r13
   1935e:	ff 
   1935f:	0f b7 85 5c e9 ff ff 	movzwl -0x16a4(%rbp),%eax
   19366:	34 fd                	xor    $0xfd,%al
   19368:	48 0f bf d0          	movswq %ax,%rdx
   1936c:	48 8b 85 d8 ea ff ff 	mov    -0x1528(%rbp),%rax
   19373:	48 89 10             	mov    %rdx,(%rax)
   19376:	48 83 bd 50 e9 ff ff 	cmpq   $0x0,-0x16b0(%rbp)
   1937d:	00 
   1937e:	0f 94 c0             	sete   %al
   19381:	0f b6 c0             	movzbl %al,%eax
   19384:	be ae 00 00 00       	mov    $0xae,%esi
   19389:	89 c7                	mov    %eax,%edi
   1938b:	e8 03 28 ff ff       	callq  bb93 <safe_mul_func_uint8_t_u_u>
   19390:	0f b6 c0             	movzbl %al,%eax
   19393:	89 85 7c e9 ff ff    	mov    %eax,-0x1684(%rbp)
   19399:	0f b6 15 c1 66 00 00 	movzbl 0x66c1(%rip),%edx        # 1fa61 <l_1086.5382+0x41>
   193a0:	48 8b 85 b0 e9 ff ff 	mov    -0x1650(%rbp),%rax
   193a7:	88 10                	mov    %dl,(%rax)
   193a9:	0f b6 00             	movzbl (%rax),%eax
   193ac:	88 05 4d a2 00 00    	mov    %al,0xa24d(%rip)        # 235ff <g_800+0xdf>
   193b2:	0f b7 15 37 f0 00 00 	movzwl 0xf037(%rip),%edx        # 283f0 <g_1117>
   193b9:	0f b7 85 5c e9 ff ff 	movzwl -0x16a4(%rbp),%eax
   193c0:	09 d0                	or     %edx,%eax
   193c2:	66 89 05 27 f0 00 00 	mov    %ax,0xf027(%rip)        # 283f0 <g_1117>
   193c9:	0f b7 05 20 f0 00 00 	movzwl 0xf020(%rip),%eax        # 283f0 <g_1117>
   193d0:	0f b7 c0             	movzwl %ax,%eax
   193d3:	be 06 00 00 00       	mov    $0x6,%esi
   193d8:	89 c7                	mov    %eax,%edi
   193da:	e8 69 2a ff ff       	callq  be48 <safe_rshift_func_uint16_t_u_s>
   193df:	0f b7 d0             	movzwl %ax,%edx
   193e2:	48 8b 05 6f e0 00 00 	mov    0xe06f(%rip),%rax        # 27458 <g_207>
   193e9:	48 8b 00             	mov    (%rax),%rax
   193ec:	48 8b 00             	mov    (%rax),%rax
   193ef:	8b 00                	mov    (%rax),%eax
   193f1:	39 c2                	cmp    %eax,%edx
   193f3:	0f 9c c0             	setl   %al
   193f6:	0f b6 c0             	movzbl %al,%eax
   193f9:	48 39 85 50 e9 ff ff 	cmp    %rax,-0x16b0(%rbp)
   19400:	0f 92 c0             	setb   %al
   19403:	0f b6 c0             	movzbl %al,%eax
   19406:	4c 89 ee             	mov    %r13,%rsi
   19409:	48 89 c7             	mov    %rax,%rdi
   1940c:	e8 97 24 ff ff       	callq  b8a8 <safe_sub_func_int64_t_s_s>
   19411:	0f be c0             	movsbl %al,%eax
   19414:	be 03 00 00 00       	mov    $0x3,%esi
   19419:	89 c7                	mov    %eax,%edi
   1941b:	e8 81 1e ff ff       	callq  b2a1 <safe_lshift_func_int8_t_s_s>
   19420:	0f be d0             	movsbl %al,%edx
   19423:	48 8b 05 2e e0 00 00 	mov    0xe02e(%rip),%rax        # 27458 <g_207>
   1942a:	48 8b 00             	mov    (%rax),%rax
   1942d:	48 8b 00             	mov    (%rax),%rax
   19430:	8b 00                	mov    (%rax),%eax
   19432:	39 c2                	cmp    %eax,%edx
   19434:	0f 9e c0             	setle  %al
   19437:	0f b6 c0             	movzbl %al,%eax
   1943a:	44 89 e6             	mov    %r12d,%esi
   1943d:	89 c7                	mov    %eax,%edi
   1943f:	e8 34 27 ff ff       	callq  bb78 <safe_sub_func_uint8_t_u_u>
   19444:	0f b6 c0             	movzbl %al,%eax
   19447:	89 de                	mov    %ebx,%esi
   19449:	89 c7                	mov    %eax,%edi
   1944b:	e8 0a 27 ff ff       	callq  bb5a <safe_add_func_uint8_t_u_u>
   19450:	0f b6 c0             	movzbl %al,%eax
   19453:	39 85 80 e9 ff ff    	cmp    %eax,-0x1680(%rbp)
   19459:	44 89 f6             	mov    %r14d,%esi
   1945c:	bf f7 ff 00 00       	mov    $0xfff7,%edi
   19461:	e8 97 2a ff ff       	callq  befd <safe_mod_func_uint32_t_u_u>
   19466:	89 c2                	mov    %eax,%edx
   19468:	48 8b 85 10 ea ff ff 	mov    -0x15f0(%rbp),%rax
   1946f:	89 10                	mov    %edx,(%rax)
   19471:	80 85 64 e9 ff ff 01 	addb   $0x1,-0x169c(%rbp)
   19478:	48 83 85 d8 e9 ff ff 	addq   $0x1,-0x1628(%rbp)
   1947f:	01 
   19480:	48 83 bd d8 e9 ff ff 	cmpq   $0xc,-0x1628(%rbp)
   19487:	0c 
   19488:	0f 84 72 fe ff ff    	je     19300 <func_58+0x1370>
   1948e:	48 8b 85 f8 e9 ff ff 	mov    -0x1608(%rbp),%rax
   19495:	48 8b 95 c8 ea ff ff 	mov    -0x1538(%rbp),%rdx
   1949c:	48 89 10             	mov    %rdx,(%rax)
   1949f:	48 83 85 50 e9 ff ff 	addq   $0x1,-0x16b0(%rbp)
   194a6:	01 
   194a7:	48 83 bd 50 e9 ff ff 	cmpq   $0x26,-0x16b0(%rbp)
   194ae:	26 
   194af:	0f 85 32 fe ff ff    	jne    192e7 <func_58+0x1357>
   194b5:	0f b7 85 5c e9 ff ff 	movzwl -0x16a4(%rbp),%eax
   194bc:	0f bf d8             	movswl %ax,%ebx
   194bf:	0f b7 85 5c e9 ff ff 	movzwl -0x16a4(%rbp),%eax
   194c6:	0f bf d0             	movswl %ax,%edx
   194c9:	48 8b 05 f0 e3 00 00 	mov    0xe3f0(%rip),%rax        # 278c0 <g_463>
   194d0:	48 8b 00             	mov    (%rax),%rax
   194d3:	0f b6 00             	movzbl (%rax),%eax
   194d6:	89 c1                	mov    %eax,%ecx
   194d8:	48 8b 85 f8 e9 ff ff 	mov    -0x1608(%rbp),%rax
   194df:	48 8b 00             	mov    (%rax),%rax
   194e2:	8b 00                	mov    (%rax),%eax
   194e4:	85 c0                	test   %eax,%eax
   194e6:	0f 94 c0             	sete   %al
   194e9:	31 c1                	xor    %eax,%ecx
   194eb:	48 8b 05 ce e3 00 00 	mov    0xe3ce(%rip),%rax        # 278c0 <g_463>
   194f2:	48 8b 00             	mov    (%rax),%rax
   194f5:	88 08                	mov    %cl,(%rax)
   194f7:	0f b6 00             	movzbl (%rax),%eax
   194fa:	0f b6 c0             	movzbl %al,%eax
   194fd:	39 c2                	cmp    %eax,%edx
   194ff:	0f 95 c0             	setne  %al
   19502:	41 89 c5             	mov    %eax,%r13d
   19505:	48 8b 85 f8 e9 ff ff 	mov    -0x1608(%rbp),%rax
   1950c:	48 8b 00             	mov    (%rax),%rax
   1950f:	8b 00                	mov    (%rax),%eax
   19511:	41 89 c4             	mov    %eax,%r12d
   19514:	48 8b 85 50 e9 ff ff 	mov    -0x16b0(%rbp),%rax
   1951b:	83 c8 01             	or     $0x1,%eax
   1951e:	98                   	cwtl   
   1951f:	be 00 00 00 00       	mov    $0x0,%esi
   19524:	89 c7                	mov    %eax,%edi
   19526:	e8 ca 1e ff ff       	callq  b3f5 <safe_mul_func_int16_t_s_s>
   1952b:	48 0f bf c0          	movswq %ax,%rax
   1952f:	48 35 ff ff 00 00    	xor    $0xffff,%rax
   19535:	48 89 c2             	mov    %rax,%rdx
   19538:	0f b7 85 5c e9 ff ff 	movzwl -0x16a4(%rbp),%eax
   1953f:	48 0f bf c0          	movswq %ax,%rax
   19543:	48 39 c2             	cmp    %rax,%rdx
   19546:	0f 94 c0             	sete   %al
   19549:	0f b6 c0             	movzbl %al,%eax
   1954c:	44 89 e6             	mov    %r12d,%esi
   1954f:	89 c7                	mov    %eax,%edi
   19551:	e8 0d 20 ff ff       	callq  b563 <safe_rshift_func_int16_t_s_u>
   19556:	44 31 e8             	xor    %r13d,%eax
   19559:	f7 d0                	not    %eax
   1955b:	0f b6 c0             	movzbl %al,%eax
   1955e:	89 de                	mov    %ebx,%esi
   19560:	89 c7                	mov    %eax,%edi
   19562:	e8 9e 26 ff ff       	callq  bc05 <safe_lshift_func_uint8_t_u_s>
   19567:	0f b6 d0             	movzbl %al,%edx
   1956a:	48 8b 05 7f e3 00 00 	mov    0xe37f(%rip),%rax        # 278f0 <g_844>
   19571:	48 8b 00             	mov    (%rax),%rax
   19574:	48 8b 00             	mov    (%rax),%rax
   19577:	48 8b 00             	mov    (%rax),%rax
   1957a:	48 09 d0             	or     %rdx,%rax
   1957d:	48 39 85 50 e9 ff ff 	cmp    %rax,-0x16b0(%rbp)
   19584:	0f 97 c0             	seta   %al
   19587:	0f b6 c0             	movzbl %al,%eax
   1958a:	be 00 00 00 00       	mov    $0x0,%esi
   1958f:	89 c7                	mov    %eax,%edi
   19591:	e8 20 20 ff ff       	callq  b5b6 <safe_add_func_int32_t_s_s>
   19596:	48 8b 95 10 ea ff ff 	mov    -0x15f0(%rbp),%rdx
   1959d:	8b 12                	mov    (%rdx),%edx
   1959f:	31 d0                	xor    %edx,%eax
   195a1:	21 85 7c e9 ff ff    	and    %eax,-0x1684(%rbp)
   195a7:	48 8b 85 f8 e9 ff ff 	mov    -0x1608(%rbp),%rax
   195ae:	48 8b 10             	mov    (%rax),%rdx
   195b1:	48 8b 85 f8 e9 ff ff 	mov    -0x1608(%rbp),%rax
   195b8:	48 89 10             	mov    %rdx,(%rax)
   195bb:	0f b7 05 0e ee 00 00 	movzwl 0xee0e(%rip),%eax        # 283d0 <g_229>
   195c2:	83 c0 01             	add    $0x1,%eax
   195c5:	66 89 05 04 ee 00 00 	mov    %ax,0xee04(%rip)        # 283d0 <g_229>
   195cc:	0f b7 05 fd ed 00 00 	movzwl 0xedfd(%rip),%eax        # 283d0 <g_229>
   195d3:	66 83 f8 11          	cmp    $0x11,%ax
   195d7:	0f 85 f6 fa ff ff    	jne    190d3 <func_58+0x1143>
   195dd:	c7 05 19 9f 00 00 00 	movl   $0x0,0x9f19(%rip)        # 23500 <g_704>
   195e4:	00 00 00 
   195e7:	e9 ab 09 00 00       	jmpq   19f97 <func_58+0x2007>
   195ec:	48 8d 05 45 a0 00 00 	lea    0xa045(%rip),%rax        # 23638 <g_1162>
   195f3:	48 89 85 38 ea ff ff 	mov    %rax,-0x15c8(%rbp)
   195fa:	48 8d 05 2f de 00 00 	lea    0xde2f(%rip),%rax        # 27430 <g_209>
   19601:	48 89 85 40 ea ff ff 	mov    %rax,-0x15c0(%rbp)
   19608:	48 c7 85 48 ea ff ff 	movq   $0x0,-0x15b8(%rbp)
   1960f:	00 00 00 00 
   19613:	48 8d 85 6a e9 ff ff 	lea    -0x1696(%rbp),%rax
   1961a:	48 89 85 50 ea ff ff 	mov    %rax,-0x15b0(%rbp)
   19621:	48 8d 85 74 e9 ff ff 	lea    -0x168c(%rbp),%rax
   19628:	48 89 85 58 ea ff ff 	mov    %rax,-0x15a8(%rbp)
   1962f:	c7 85 84 e9 ff ff 1e 	movl   $0xfa84391e,-0x167c(%rbp)
   19636:	39 84 fa 
   19639:	c7 85 88 e9 ff ff ff 	movl   $0xffffffff,-0x1678(%rbp)
   19640:	ff ff ff 
   19643:	c7 85 8c e9 ff ff 00 	movl   $0x0,-0x1674(%rbp)
   1964a:	00 00 00 
   1964d:	48 c7 85 60 ea ff ff 	movq   $0x1,-0x15a0(%rbp)
   19654:	01 00 00 00 
   19658:	48 b8 2c 66 20 89 ac 	movabs $0x5cd788ac8920662c,%rax
   1965f:	88 d7 5c 
   19662:	48 89 85 68 ea ff ff 	mov    %rax,-0x1598(%rbp)
   19669:	66 c7 85 6e e9 ff ff 	movw   $0xa587,-0x1692(%rbp)
   19670:	87 a5 
   19672:	0f b7 85 5c e9 ff ff 	movzwl -0x16a4(%rbp),%eax
   19679:	44 0f b7 e8          	movzwl %ax,%r13d
   1967d:	48 8b 85 40 ea ff ff 	mov    -0x15c0(%rbp),%rax
   19684:	48 8b 00             	mov    (%rax),%rax
   19687:	8b 00                	mov    (%rax),%eax
   19689:	44 0f be e0          	movsbl %al,%r12d
   1968d:	48 8b 85 40 ea ff ff 	mov    -0x15c0(%rbp),%rax
   19694:	48 8b 00             	mov    (%rax),%rax
   19697:	8b 00                	mov    (%rax),%eax
   19699:	0f b6 d8             	movzbl %al,%ebx
   1969c:	48 8b 85 40 ea ff ff 	mov    -0x15c0(%rbp),%rax
   196a3:	48 8b 00             	mov    (%rax),%rax
   196a6:	8b 00                	mov    (%rax),%eax
   196a8:	41 89 c6             	mov    %eax,%r14d
   196ab:	48 8b 85 c0 e9 ff ff 	mov    -0x1640(%rbp),%rax
   196b2:	48 85 c0             	test   %rax,%rax
   196b5:	0f 95 c0             	setne  %al
   196b8:	0f b6 d0             	movzbl %al,%edx
   196bb:	48 8b 85 f8 e9 ff ff 	mov    -0x1608(%rbp),%rax
   196c2:	48 8b 00             	mov    (%rax),%rax
   196c5:	8b 00                	mov    (%rax),%eax
   196c7:	48 98                	cltq   
   196c9:	48 89 d6             	mov    %rdx,%rsi
   196cc:	48 89 c7             	mov    %rax,%rdi
   196cf:	e8 d4 21 ff ff       	callq  b8a8 <safe_sub_func_int64_t_s_s>
   196d4:	48 8b 95 38 ea ff ff 	mov    -0x15c8(%rbp),%rdx
   196db:	48 89 02             	mov    %rax,(%rdx)
   196de:	48 8b 05 73 dd 00 00 	mov    0xdd73(%rip),%rax        # 27458 <g_207>
   196e5:	48 8b 95 f8 e9 ff ff 	mov    -0x1608(%rbp),%rdx
   196ec:	48 89 10             	mov    %rdx,(%rax)
   196ef:	48 8b 00             	mov    (%rax),%rax
   196f2:	48 39 85 40 ea ff ff 	cmp    %rax,-0x15c0(%rbp)
   196f9:	74 09                	je     19704 <func_58+0x1774>
   196fb:	48 c7 c0 fd ff ff ff 	mov    $0xfffffffffffffffd,%rax
   19702:	eb 07                	jmp    1970b <func_58+0x177b>
   19704:	48 c7 c0 fc ff ff ff 	mov    $0xfffffffffffffffc,%rax
   1970b:	48 23 85 50 e9 ff ff 	and    -0x16b0(%rbp),%rax
   19712:	ba cf f8 53 df       	mov    $0xdf53f8cf,%edx
   19717:	48 39 d0             	cmp    %rdx,%rax
   1971a:	0f 96 c0             	setbe  %al
   1971d:	0f b6 c0             	movzbl %al,%eax
   19720:	89 c6                	mov    %eax,%esi
   19722:	bf 01 00 00 00       	mov    $0x1,%edi
   19727:	e8 c9 1c ff ff       	callq  b3f5 <safe_mul_func_int16_t_s_s>
   1972c:	b9 00 00 00 00       	mov    $0x0,%ecx
   19731:	48 8b 85 50 ea ff ff 	mov    -0x15b0(%rbp),%rax
   19738:	0f b7 00             	movzwl (%rax),%eax
   1973b:	89 c2                	mov    %eax,%edx
   1973d:	89 c8                	mov    %ecx,%eax
   1973f:	31 d0                	xor    %edx,%eax
   19741:	89 c2                	mov    %eax,%edx
   19743:	48 8b 85 50 ea ff ff 	mov    -0x15b0(%rbp),%rax
   1974a:	66 89 10             	mov    %dx,(%rax)
   1974d:	48 8b 85 50 ea ff ff 	mov    -0x15b0(%rbp),%rax
   19754:	0f b7 00             	movzwl (%rax),%eax
   19757:	66 85 c0             	test   %ax,%ax
   1975a:	75 09                	jne    19765 <func_58+0x17d5>
   1975c:	b8 fb ff ff ff       	mov    $0xfffffffb,%eax
   19761:	85 c0                	test   %eax,%eax
   19763:	74 07                	je     1976c <func_58+0x17dc>
   19765:	b8 01 00 00 00       	mov    $0x1,%eax
   1976a:	eb 05                	jmp    19771 <func_58+0x17e1>
   1976c:	b8 00 00 00 00       	mov    $0x0,%eax
   19771:	0f b6 c0             	movzbl %al,%eax
   19774:	44 89 f6             	mov    %r14d,%esi
   19777:	89 c7                	mov    %eax,%edi
   19779:	e8 40 25 ff ff       	callq  bcbe <safe_rshift_func_uint8_t_u_u>
   1977e:	0f b6 d0             	movzbl %al,%edx
   19781:	8b 05 79 9d 00 00    	mov    0x9d79(%rip),%eax        # 23500 <g_704>
   19787:	89 c0                	mov    %eax,%eax
   19789:	48 8d 0c 85 00 00 00 	lea    0x0(,%rax,4),%rcx
   19790:	00 
   19791:	48 8d 05 e8 98 00 00 	lea    0x98e8(%rip),%rax        # 23080 <g_78>
   19798:	8b 04 01             	mov    (%rcx,%rax,1),%eax
   1979b:	98                   	cwtl   
   1979c:	89 d6                	mov    %edx,%esi
   1979e:	89 c7                	mov    %eax,%edi
   197a0:	e8 50 1c ff ff       	callq  b3f5 <safe_mul_func_int16_t_s_s>
   197a5:	48 0f bf c0          	movswq %ax,%rax
   197a9:	44 89 e9             	mov    %r13d,%ecx
   197ac:	44 89 e2             	mov    %r12d,%edx
   197af:	89 de                	mov    %ebx,%esi
   197b1:	48 89 c7             	mov    %rax,%rdi
   197b4:	e8 65 08 00 00       	callq  1a01e <func_64>
   197b9:	48 8b 95 40 ea ff ff 	mov    -0x15c0(%rbp),%rdx
   197c0:	48 89 02             	mov    %rax,(%rdx)
   197c3:	48 8b 85 40 ea ff ff 	mov    -0x15c0(%rbp),%rax
   197ca:	48 8b 00             	mov    (%rax),%rax
   197cd:	48 89 85 58 ea ff ff 	mov    %rax,-0x15a8(%rbp)
   197d4:	48 8b 85 50 e9 ff ff 	mov    -0x16b0(%rbp),%rax
   197db:	89 c2                	mov    %eax,%edx
   197dd:	48 8b 85 10 ea ff ff 	mov    -0x15f0(%rbp),%rax
   197e4:	89 10                	mov    %edx,(%rax)
   197e6:	48 83 ad 60 ea ff ff 	subq   $0x1,-0x15a0(%rbp)
   197ed:	01 
   197ee:	48 8b 05 3b dc 00 00 	mov    0xdc3b(%rip),%rax        # 27430 <g_209>
   197f5:	8b 00                	mov    (%rax),%eax
   197f7:	85 c0                	test   %eax,%eax
   197f9:	0f 85 a9 07 00 00    	jne    19fa8 <func_58+0x2018>
   197ff:	c6 05 ec 9c 00 00 00 	movb   $0x0,0x9cec(%rip)        # 234f2 <g_622>
   19806:	e9 6e 07 00 00       	jmpq   19f79 <func_58+0x1fe9>
   1980b:	48 c7 85 70 ea ff ff 	movq   $0x0,-0x1590(%rbp)
   19812:	00 00 00 00 
   19816:	c7 85 90 e9 ff ff ff 	movl   $0xffffffff,-0x1670(%rbp)
   1981d:	ff ff ff 
   19820:	48 8d 05 7d 98 00 00 	lea    0x987d(%rip),%rax        # 230a4 <g_206>
   19827:	48 89 85 78 ea ff ff 	mov    %rax,-0x1588(%rbp)
   1982e:	48 c7 85 80 ea ff ff 	movq   $0x0,-0x1580(%rbp)
   19835:	00 00 00 00 
   19839:	48 c7 85 88 ea ff ff 	movq   $0x0,-0x1578(%rbp)
   19840:	00 00 00 00 
   19844:	48 8d 85 10 f6 ff ff 	lea    -0x9f0(%rbp),%rax
   1984b:	48 8d 15 6e cc 00 00 	lea    0xcc6e(%rip),%rdx        # 264c0 <g_4082+0x29c0>
   19852:	b9 96 00 00 00       	mov    $0x96,%ecx
   19857:	48 89 c7             	mov    %rax,%rdi
   1985a:	48 89 d6             	mov    %rdx,%rsi
   1985d:	f3 48 a5             	rep movsq %ds:(%rsi),%es:(%rdi)
   19860:	48 8d 05 91 e0 00 00 	lea    0xe091(%rip),%rax        # 278f8 <g_912>
   19867:	48 89 85 d0 ec ff ff 	mov    %rax,-0x1330(%rbp)
   1986e:	48 8d 05 83 e0 00 00 	lea    0xe083(%rip),%rax        # 278f8 <g_912>
   19875:	48 89 85 d8 ec ff ff 	mov    %rax,-0x1328(%rbp)
   1987c:	48 8d 05 75 e0 00 00 	lea    0xe075(%rip),%rax        # 278f8 <g_912>
   19883:	48 89 85 e0 ec ff ff 	mov    %rax,-0x1320(%rbp)
   1988a:	48 8d 05 67 e0 00 00 	lea    0xe067(%rip),%rax        # 278f8 <g_912>
   19891:	48 89 85 e8 ec ff ff 	mov    %rax,-0x1318(%rbp)
   19898:	48 8d 05 59 e0 00 00 	lea    0xe059(%rip),%rax        # 278f8 <g_912>
   1989f:	48 89 85 f0 ec ff ff 	mov    %rax,-0x1310(%rbp)
   198a6:	48 8d 05 4b e0 00 00 	lea    0xe04b(%rip),%rax        # 278f8 <g_912>
   198ad:	48 89 85 f8 ec ff ff 	mov    %rax,-0x1308(%rbp)
   198b4:	48 8d 05 3d e0 00 00 	lea    0xe03d(%rip),%rax        # 278f8 <g_912>
   198bb:	48 89 85 00 ed ff ff 	mov    %rax,-0x1300(%rbp)
   198c2:	48 8d 05 2f e0 00 00 	lea    0xe02f(%rip),%rax        # 278f8 <g_912>
   198c9:	48 89 85 08 ed ff ff 	mov    %rax,-0x12f8(%rbp)
   198d0:	48 8d 05 21 e0 00 00 	lea    0xe021(%rip),%rax        # 278f8 <g_912>
   198d7:	48 89 85 10 ed ff ff 	mov    %rax,-0x12f0(%rbp)
   198de:	48 8d 05 13 e0 00 00 	lea    0xe013(%rip),%rax        # 278f8 <g_912>
   198e5:	48 89 85 18 ed ff ff 	mov    %rax,-0x12e8(%rbp)
   198ec:	48 8d 05 05 e0 00 00 	lea    0xe005(%rip),%rax        # 278f8 <g_912>
   198f3:	48 89 85 20 ed ff ff 	mov    %rax,-0x12e0(%rbp)
   198fa:	48 8d 05 f7 df 00 00 	lea    0xdff7(%rip),%rax        # 278f8 <g_912>
   19901:	48 89 85 28 ed ff ff 	mov    %rax,-0x12d8(%rbp)
   19908:	48 8d 05 e9 df 00 00 	lea    0xdfe9(%rip),%rax        # 278f8 <g_912>
   1990f:	48 89 85 30 ed ff ff 	mov    %rax,-0x12d0(%rbp)
   19916:	48 8d 05 db df 00 00 	lea    0xdfdb(%rip),%rax        # 278f8 <g_912>
   1991d:	48 89 85 38 ed ff ff 	mov    %rax,-0x12c8(%rbp)
   19924:	48 8d 05 cd df 00 00 	lea    0xdfcd(%rip),%rax        # 278f8 <g_912>
   1992b:	48 89 85 40 ed ff ff 	mov    %rax,-0x12c0(%rbp)
   19932:	48 8d 05 bf df 00 00 	lea    0xdfbf(%rip),%rax        # 278f8 <g_912>
   19939:	48 89 85 48 ed ff ff 	mov    %rax,-0x12b8(%rbp)
   19940:	48 8d 05 b1 df 00 00 	lea    0xdfb1(%rip),%rax        # 278f8 <g_912>
   19947:	48 89 85 50 ed ff ff 	mov    %rax,-0x12b0(%rbp)
   1994e:	48 8d 05 a3 df 00 00 	lea    0xdfa3(%rip),%rax        # 278f8 <g_912>
   19955:	48 89 85 58 ed ff ff 	mov    %rax,-0x12a8(%rbp)
   1995c:	48 8d 05 95 df 00 00 	lea    0xdf95(%rip),%rax        # 278f8 <g_912>
   19963:	48 89 85 60 ed ff ff 	mov    %rax,-0x12a0(%rbp)
   1996a:	48 8d 05 87 df 00 00 	lea    0xdf87(%rip),%rax        # 278f8 <g_912>
   19971:	48 89 85 68 ed ff ff 	mov    %rax,-0x1298(%rbp)
   19978:	48 8d 05 79 df 00 00 	lea    0xdf79(%rip),%rax        # 278f8 <g_912>
   1997f:	48 89 85 70 ed ff ff 	mov    %rax,-0x1290(%rbp)
   19986:	48 8d 05 6b df 00 00 	lea    0xdf6b(%rip),%rax        # 278f8 <g_912>
   1998d:	48 89 85 78 ed ff ff 	mov    %rax,-0x1288(%rbp)
   19994:	48 8d 05 5d df 00 00 	lea    0xdf5d(%rip),%rax        # 278f8 <g_912>
   1999b:	48 89 85 80 ed ff ff 	mov    %rax,-0x1280(%rbp)
   199a2:	48 8d 05 4f df 00 00 	lea    0xdf4f(%rip),%rax        # 278f8 <g_912>
   199a9:	48 89 85 88 ed ff ff 	mov    %rax,-0x1278(%rbp)
   199b0:	48 8d 05 41 df 00 00 	lea    0xdf41(%rip),%rax        # 278f8 <g_912>
   199b7:	48 89 85 90 ed ff ff 	mov    %rax,-0x1270(%rbp)
   199be:	48 8d 05 33 df 00 00 	lea    0xdf33(%rip),%rax        # 278f8 <g_912>
   199c5:	48 89 85 98 ed ff ff 	mov    %rax,-0x1268(%rbp)
   199cc:	48 8d 05 25 df 00 00 	lea    0xdf25(%rip),%rax        # 278f8 <g_912>
   199d3:	48 89 85 a0 ed ff ff 	mov    %rax,-0x1260(%rbp)
   199da:	48 8d 05 17 df 00 00 	lea    0xdf17(%rip),%rax        # 278f8 <g_912>
   199e1:	48 89 85 a8 ed ff ff 	mov    %rax,-0x1258(%rbp)
   199e8:	48 8d 05 09 df 00 00 	lea    0xdf09(%rip),%rax        # 278f8 <g_912>
   199ef:	48 89 85 b0 ed ff ff 	mov    %rax,-0x1250(%rbp)
   199f6:	48 8d 05 fb de 00 00 	lea    0xdefb(%rip),%rax        # 278f8 <g_912>
   199fd:	48 89 85 b8 ed ff ff 	mov    %rax,-0x1248(%rbp)
   19a04:	48 8d 05 ed de 00 00 	lea    0xdeed(%rip),%rax        # 278f8 <g_912>
   19a0b:	48 89 85 c0 ed ff ff 	mov    %rax,-0x1240(%rbp)
   19a12:	48 8d 05 df de 00 00 	lea    0xdedf(%rip),%rax        # 278f8 <g_912>
   19a19:	48 89 85 c8 ed ff ff 	mov    %rax,-0x1238(%rbp)
   19a20:	48 8d 85 d0 ec ff ff 	lea    -0x1330(%rbp),%rax
   19a27:	48 83 c0 28          	add    $0x28,%rax
   19a2b:	48 89 85 90 ea ff ff 	mov    %rax,-0x1570(%rbp)
   19a32:	66 c7 05 65 96 00 00 	movw   $0x0,0x9665(%rip)        # 230a0 <g_104>
   19a39:	00 00 
   19a3b:	e9 e2 02 00 00       	jmpq   19d22 <func_58+0x1d92>
   19a40:	48 c7 85 98 ea ff ff 	movq   $0x0,-0x1568(%rbp)
   19a47:	00 00 00 00 
   19a4b:	48 8d 85 78 e9 ff ff 	lea    -0x1688(%rbp),%rax
   19a52:	48 89 85 a0 ea ff ff 	mov    %rax,-0x1560(%rbp)
   19a59:	48 8d 05 20 9a 00 00 	lea    0x9a20(%rip),%rax        # 23480 <g_486>
   19a60:	48 89 85 a8 ea ff ff 	mov    %rax,-0x1558(%rbp)
   19a67:	c7 85 94 e9 ff ff fc 	movl   $0xb8023cfc,-0x166c(%rbp)
   19a6e:	3c 02 b8 
   19a71:	48 8b 05 68 de 00 00 	mov    0xde68(%rip),%rax        # 278e0 <g_846>
   19a78:	48 8b 08             	mov    (%rax),%rcx
   19a7b:	0f b6 05 70 9a 00 00 	movzbl 0x9a70(%rip),%eax        # 234f2 <g_622>
   19a82:	0f be d0             	movsbl %al,%edx
   19a85:	0f b6 05 66 9a 00 00 	movzbl 0x9a66(%rip),%eax        # 234f2 <g_622>
   19a8c:	0f be c0             	movsbl %al,%eax
   19a8f:	0f b7 35 0a 96 00 00 	movzwl 0x960a(%rip),%esi        # 230a0 <g_104>
   19a96:	0f b7 f6             	movzwl %si,%esi
   19a99:	48 63 f6             	movslq %esi,%rsi
   19a9c:	48 63 d2             	movslq %edx,%rdx
   19a9f:	48 63 f8             	movslq %eax,%rdi
   19aa2:	48 89 d0             	mov    %rdx,%rax
   19aa5:	48 01 c0             	add    %rax,%rax
   19aa8:	48 01 d0             	add    %rdx,%rax
   19aab:	48 01 f8             	add    %rdi,%rax
   19aae:	48 c1 e0 03          	shl    $0x3,%rax
   19ab2:	48 01 f0             	add    %rsi,%rax
   19ab5:	48 8d 14 85 00 00 00 	lea    0x0(,%rax,4),%rdx
   19abc:	00 
   19abd:	48 8d 05 fc 95 00 00 	lea    0x95fc(%rip),%rax        # 230c0 <g_434>
   19ac4:	8b 04 02             	mov    (%rdx,%rax,1),%eax
   19ac7:	89 c2                	mov    %eax,%edx
   19ac9:	48 8b 05 10 de 00 00 	mov    0xde10(%rip),%rax        # 278e0 <g_846>
   19ad0:	48 09 ca             	or     %rcx,%rdx
   19ad3:	48 89 10             	mov    %rdx,(%rax)
   19ad6:	48 8b 00             	mov    (%rax),%rax
   19ad9:	48 31 85 50 e9 ff ff 	xor    %rax,-0x16b0(%rbp)
   19ae0:	0f b7 05 b9 95 00 00 	movzwl 0x95b9(%rip),%eax        # 230a0 <g_104>
   19ae7:	0f b7 c0             	movzwl %ax,%eax
   19aea:	48 98                	cltq   
   19aec:	48 8d 14 c5 00 00 00 	lea    0x0(,%rax,8),%rdx
   19af3:	00 
   19af4:	48 8d 05 45 d9 00 00 	lea    0xd945(%rip),%rax        # 27440 <g_208>
   19afb:	48 8b 04 02          	mov    (%rdx,%rax,1),%rax
   19aff:	48 85 c0             	test   %rax,%rax
   19b02:	0f 95 c0             	setne  %al
   19b05:	0f b6 c0             	movzbl %al,%eax
   19b08:	48 0b 85 50 e9 ff ff 	or     -0x16b0(%rbp),%rax
   19b0f:	49 89 c7             	mov    %rax,%r15
   19b12:	48 8b 05 97 dd 00 00 	mov    0xdd97(%rip),%rax        # 278b0 <g_430>
   19b19:	48 8b 00             	mov    (%rax),%rax
   19b1c:	0f b6 00             	movzbl (%rax),%eax
   19b1f:	0f be d8             	movsbl %al,%ebx
   19b22:	48 8b 85 28 ea ff ff 	mov    -0x15d8(%rbp),%rax
   19b29:	48 89 85 70 ea ff ff 	mov    %rax,-0x1590(%rbp)
   19b30:	48 8b 85 f8 e9 ff ff 	mov    -0x1608(%rbp),%rax
   19b37:	48 8b 00             	mov    (%rax),%rax
   19b3a:	8b 00                	mov    (%rax),%eax
   19b3c:	44 0f be e0          	movsbl %al,%r12d
   19b40:	0f b7 85 5c e9 ff ff 	movzwl -0x16a4(%rbp),%eax
   19b47:	44 0f bf e8          	movswl %ax,%r13d
   19b4b:	0f b7 85 5c e9 ff ff 	movzwl -0x16a4(%rbp),%eax
   19b52:	44 0f bf f0          	movswl %ax,%r14d
   19b56:	48 8b 85 a0 ea ff ff 	mov    -0x1560(%rbp),%rax
   19b5d:	8b 00                	mov    (%rax),%eax
   19b5f:	8d 50 ff             	lea    -0x1(%rax),%edx
   19b62:	48 8b 85 a0 ea ff ff 	mov    -0x1560(%rbp),%rax
   19b69:	89 10                	mov    %edx,(%rax)
   19b6b:	0f b7 85 5c e9 ff ff 	movzwl -0x16a4(%rbp),%eax
   19b72:	0f be d0             	movsbl %al,%edx
   19b75:	0f b6 0d 41 9a 00 00 	movzbl 0x9a41(%rip),%ecx        # 235bd <g_800+0x9d>
   19b7c:	48 8b 85 f8 e9 ff ff 	mov    -0x1608(%rbp),%rax
   19b83:	48 8b 00             	mov    (%rax),%rax
   19b86:	8b 00                	mov    (%rax),%eax
   19b88:	21 c8                	and    %ecx,%eax
   19b8a:	88 05 2d 9a 00 00    	mov    %al,0x9a2d(%rip)        # 235bd <g_800+0x9d>
   19b90:	0f b6 05 26 9a 00 00 	movzbl 0x9a26(%rip),%eax        # 235bd <g_800+0x9d>
   19b97:	0f be c0             	movsbl %al,%eax
   19b9a:	89 d6                	mov    %edx,%esi
   19b9c:	89 c7                	mov    %eax,%edi
   19b9e:	e8 8e 16 ff ff       	callq  b231 <safe_mod_func_int8_t_s_s>
   19ba3:	84 c0                	test   %al,%al
   19ba5:	75 0c                	jne    19bb3 <func_58+0x1c23>
   19ba7:	0f b7 85 5c e9 ff ff 	movzwl -0x16a4(%rbp),%eax
   19bae:	66 85 c0             	test   %ax,%ax
   19bb1:	74 07                	je     19bba <func_58+0x1c2a>
   19bb3:	b8 01 00 00 00       	mov    $0x1,%eax
   19bb8:	eb 05                	jmp    19bbf <func_58+0x1c2f>
   19bba:	b8 00 00 00 00       	mov    $0x0,%eax
   19bbf:	f7 d0                	not    %eax
   19bc1:	0f b7 c0             	movzwl %ax,%eax
   19bc4:	44 89 f6             	mov    %r14d,%esi
   19bc7:	89 c7                	mov    %eax,%edi
   19bc9:	e8 38 22 ff ff       	callq  be06 <safe_lshift_func_uint16_t_u_u>
   19bce:	0f b7 c0             	movzwl %ax,%eax
   19bd1:	44 89 ee             	mov    %r13d,%esi
   19bd4:	89 c7                	mov    %eax,%edi
   19bd6:	e8 f1 1a ff ff       	callq  b6cc <safe_mod_func_int32_t_s_s>
   19bdb:	0f b7 85 5c e9 ff ff 	movzwl -0x16a4(%rbp),%eax
   19be2:	66 83 f8 1a          	cmp    $0x1a,%ax
   19be6:	0f 9e c0             	setle  %al
   19be9:	0f b6 d0             	movzbl %al,%edx
   19bec:	8b 05 aa 94 00 00    	mov    0x94aa(%rip),%eax        # 2309c <g_78+0x1c>
   19bf2:	39 c2                	cmp    %eax,%edx
   19bf4:	0f 9c c0             	setl   %al
   19bf7:	0f b6 c0             	movzbl %al,%eax
   19bfa:	44 89 e6             	mov    %r12d,%esi
   19bfd:	89 c7                	mov    %eax,%edi
   19bff:	e8 66 16 ff ff       	callq  b26a <safe_div_func_int8_t_s_s>
   19c04:	b8 01 00 00 00       	mov    $0x1,%eax
   19c09:	89 c6                	mov    %eax,%esi
   19c0b:	0f b6 05 e0 98 00 00 	movzbl 0x98e0(%rip),%eax        # 234f2 <g_622>
   19c12:	0f be c0             	movsbl %al,%eax
   19c15:	8d 50 03             	lea    0x3(%rax),%edx
   19c18:	0f b7 05 81 94 00 00 	movzwl 0x9481(%rip),%eax        # 230a0 <g_104>
   19c1f:	0f b7 c0             	movzwl %ax,%eax
   19c22:	8b 0d d8 98 00 00    	mov    0x98d8(%rip),%ecx        # 23500 <g_704>
   19c28:	89 cf                	mov    %ecx,%edi
   19c2a:	48 63 d2             	movslq %edx,%rdx
   19c2d:	48 63 c8             	movslq %eax,%rcx
   19c30:	48 89 d0             	mov    %rdx,%rax
   19c33:	48 01 c0             	add    %rax,%rax
   19c36:	48 01 d0             	add    %rdx,%rax
   19c39:	48 01 c8             	add    %rcx,%rax
   19c3c:	48 c1 e0 03          	shl    $0x3,%rax
   19c40:	48 01 f8             	add    %rdi,%rax
   19c43:	48 8d 14 85 00 00 00 	lea    0x0(,%rax,4),%rdx
   19c4a:	00 
   19c4b:	48 8d 05 6e 94 00 00 	lea    0x946e(%rip),%rax        # 230c0 <g_434>
   19c52:	8b 04 02             	mov    (%rdx,%rax,1),%eax
   19c55:	98                   	cwtl   
   19c56:	89 c7                	mov    %eax,%edi
   19c58:	e8 84 18 ff ff       	callq  b4e1 <safe_lshift_func_int16_t_s_u>
   19c5d:	48 8b 95 a8 ea ff ff 	mov    -0x1558(%rbp),%rdx
   19c64:	8b 12                	mov    (%rdx),%edx
   19c66:	98                   	cwtl   
   19c67:	09 c2                	or     %eax,%edx
   19c69:	48 8b 85 a8 ea ff ff 	mov    -0x1558(%rbp),%rax
   19c70:	89 10                	mov    %edx,(%rax)
   19c72:	48 8b 85 a8 ea ff ff 	mov    -0x1558(%rbp),%rax
   19c79:	8b 00                	mov    (%rax),%eax
   19c7b:	85 c0                	test   %eax,%eax
   19c7d:	74 07                	je     19c86 <func_58+0x1cf6>
   19c7f:	83 bd 90 e9 ff ff 00 	cmpl   $0x0,-0x1670(%rbp)
   19c86:	48 8b 85 40 ea ff ff 	mov    -0x15c0(%rbp),%rax
   19c8d:	48 8b 00             	mov    (%rax),%rax
   19c90:	8b 00                	mov    (%rax),%eax
   19c92:	83 f8 02             	cmp    $0x2,%eax
   19c95:	0f 9e c0             	setle  %al
   19c98:	0f b6 c0             	movzbl %al,%eax
   19c9b:	be 00 00 00 00       	mov    $0x0,%esi
   19ca0:	89 c7                	mov    %eax,%edi
   19ca2:	e8 d1 1e ff ff       	callq  bb78 <safe_sub_func_uint8_t_u_u>
   19ca7:	0f b6 d0             	movzbl %al,%edx
   19caa:	0f b7 85 5c e9 ff ff 	movzwl -0x16a4(%rbp),%eax
   19cb1:	98                   	cwtl   
   19cb2:	39 c2                	cmp    %eax,%edx
   19cb4:	0f 9d c0             	setge  %al
   19cb7:	0f b6 d0             	movzbl %al,%edx
   19cba:	48 8b 85 10 ea ff ff 	mov    -0x15f0(%rbp),%rax
   19cc1:	8b 00                	mov    (%rax),%eax
   19cc3:	21 c2                	and    %eax,%edx
   19cc5:	48 8b 85 10 ea ff ff 	mov    -0x15f0(%rbp),%rax
   19ccc:	89 10                	mov    %edx,(%rax)
   19cce:	89 de                	mov    %ebx,%esi
   19cd0:	bf 00 00 00 00       	mov    $0x0,%edi
   19cd5:	e8 18 15 ff ff       	callq  b1f2 <safe_sub_func_int8_t_s_s>
   19cda:	48 0f be c0          	movsbq %al,%rax
   19cde:	49 39 c7             	cmp    %rax,%r15
   19ce1:	0f 93 c0             	setae  %al
   19ce4:	0f b6 c0             	movzbl %al,%eax
   19ce7:	be 3e 29 00 00       	mov    $0x293e,%esi
   19cec:	89 c7                	mov    %eax,%edi
   19cee:	e8 23 17 ff ff       	callq  b416 <safe_mod_func_int16_t_s_s>
   19cf3:	8b 85 90 e9 ff ff    	mov    -0x1670(%rbp),%eax
   19cf9:	0f be c0             	movsbl %al,%eax
   19cfc:	be 04 00 00 00       	mov    $0x4,%esi
   19d01:	89 c7                	mov    %eax,%edi
   19d03:	e8 64 16 ff ff       	callq  b36c <safe_rshift_func_int8_t_s_u>
   19d08:	0f be c0             	movsbl %al,%eax
   19d0b:	09 85 94 e9 ff ff    	or     %eax,-0x166c(%rbp)
   19d11:	0f b7 05 88 93 00 00 	movzwl 0x9388(%rip),%eax        # 230a0 <g_104>
   19d18:	83 c0 01             	add    $0x1,%eax
   19d1b:	66 89 05 7e 93 00 00 	mov    %ax,0x937e(%rip)        # 230a0 <g_104>
   19d22:	0f b7 05 77 93 00 00 	movzwl 0x9377(%rip),%eax        # 230a0 <g_104>
   19d29:	66 83 f8 02          	cmp    $0x2,%ax
   19d2d:	0f 86 0d fd ff ff    	jbe    19a40 <func_58+0x1ab0>
   19d33:	0f bf 9d 6e e9 ff ff 	movswl -0x1692(%rbp),%ebx
   19d3a:	48 8b 85 58 ea ff ff 	mov    -0x15a8(%rbp),%rax
   19d41:	8b 00                	mov    (%rax),%eax
   19d43:	44 0f be e0          	movsbl %al,%r12d
   19d47:	c6 05 55 93 00 00 80 	movb   $0x80,0x9355(%rip)        # 230a3 <g_159>
   19d4e:	be 05 00 00 00       	mov    $0x5,%esi
   19d53:	bf 80 ff ff ff       	mov    $0xffffff80,%edi
   19d58:	e8 91 15 ff ff       	callq  b2ee <safe_lshift_func_int8_t_s_u>
   19d5d:	44 0f be f8          	movsbl %al,%r15d
   19d61:	0f b6 05 8a 97 00 00 	movzbl 0x978a(%rip),%eax        # 234f2 <g_622>
   19d68:	0f be c0             	movsbl %al,%eax
   19d6b:	8d 70 04             	lea    0x4(%rax),%esi
   19d6e:	0f b6 05 7d 97 00 00 	movzbl 0x977d(%rip),%eax        # 234f2 <g_622>
   19d75:	0f be c0             	movsbl %al,%eax
   19d78:	0f b6 15 73 97 00 00 	movzbl 0x9773(%rip),%edx        # 234f2 <g_622>
   19d7f:	0f be d2             	movsbl %dl,%edx
   19d82:	48 63 ca             	movslq %edx,%rcx
   19d85:	48 63 d6             	movslq %esi,%rdx
   19d88:	48 63 f0             	movslq %eax,%rsi
   19d8b:	48 89 d0             	mov    %rdx,%rax
   19d8e:	48 01 c0             	add    %rax,%rax
   19d91:	48 01 d0             	add    %rdx,%rax
   19d94:	48 01 f0             	add    %rsi,%rax
   19d97:	48 c1 e0 03          	shl    $0x3,%rax
   19d9b:	48 01 c8             	add    %rcx,%rax
   19d9e:	48 8d 14 85 00 00 00 	lea    0x0(,%rax,4),%rdx
   19da5:	00 
   19da6:	48 8d 05 13 93 00 00 	lea    0x9313(%rip),%rax        # 230c0 <g_434>
   19dad:	8b 04 02             	mov    (%rdx,%rax,1),%eax
   19db0:	0f b7 c0             	movzwl %ax,%eax
   19db3:	be 06 00 00 00       	mov    $0x6,%esi
   19db8:	89 c7                	mov    %eax,%edi
   19dba:	e8 47 20 ff ff       	callq  be06 <safe_lshift_func_uint16_t_u_u>
   19dbf:	0f b7 c0             	movzwl %ax,%eax
   19dc2:	48 89 c7             	mov    %rax,%rdi
   19dc5:	e8 4f 22 ff ff       	callq  c019 <safe_unary_minus_func_uint64_t_u>
   19dca:	48 89 c2             	mov    %rax,%rdx
   19dcd:	48 8b 05 ec da 00 00 	mov    0xdaec(%rip),%rax        # 278c0 <g_463>
   19dd4:	48 8b 00             	mov    (%rax),%rax
   19dd7:	88 10                	mov    %dl,(%rax)
   19dd9:	0f b6 00             	movzbl (%rax),%eax
   19ddc:	88 05 16 97 00 00    	mov    %al,0x9716(%rip)        # 234f8 <g_626+0x5>
   19de2:	0f b6 05 0f 97 00 00 	movzbl 0x970f(%rip),%eax        # 234f8 <g_626+0x5>
   19de9:	0f b6 c0             	movzbl %al,%eax
   19dec:	48 89 85 40 e9 ff ff 	mov    %rax,-0x16c0(%rbp)
   19df3:	4c 8b ad 50 e9 ff ff 	mov    -0x16b0(%rbp),%r13
   19dfa:	0f b6 05 f1 96 00 00 	movzbl 0x96f1(%rip),%eax        # 234f2 <g_622>
   19e01:	0f be c0             	movsbl %al,%eax
   19e04:	8d 70 04             	lea    0x4(%rax),%esi
   19e07:	0f b6 05 e4 96 00 00 	movzbl 0x96e4(%rip),%eax        # 234f2 <g_622>
   19e0e:	0f be c0             	movsbl %al,%eax
   19e11:	0f b6 15 da 96 00 00 	movzbl 0x96da(%rip),%edx        # 234f2 <g_622>
   19e18:	0f be d2             	movsbl %dl,%edx
   19e1b:	48 63 ca             	movslq %edx,%rcx
   19e1e:	48 63 d6             	movslq %esi,%rdx
   19e21:	48 63 f0             	movslq %eax,%rsi
   19e24:	48 89 d0             	mov    %rdx,%rax
   19e27:	48 01 c0             	add    %rax,%rax
   19e2a:	48 01 d0             	add    %rdx,%rax
   19e2d:	48 01 f0             	add    %rsi,%rax
   19e30:	48 c1 e0 03          	shl    $0x3,%rax
   19e34:	48 01 c8             	add    %rcx,%rax
   19e37:	48 8d 14 85 00 00 00 	lea    0x0(,%rax,4),%rdx
   19e3e:	00 
   19e3f:	48 8d 05 7a 92 00 00 	lea    0x927a(%rip),%rax        # 230c0 <g_434>
   19e46:	8b 04 02             	mov    (%rdx,%rax,1),%eax
   19e49:	89 c0                	mov    %eax,%eax
   19e4b:	48 be f4 8e aa b2 db 	movabs $0x731a70dbb2aa8ef4,%rsi
   19e52:	70 1a 73 
   19e55:	48 89 c7             	mov    %rax,%rdi
   19e58:	e8 52 22 ff ff       	callq  c0af <safe_div_func_uint64_t_u_u>
   19e5d:	49 89 c6             	mov    %rax,%r14
   19e60:	48 83 bd 50 e9 ff ff 	cmpq   $0x0,-0x16b0(%rbp)
   19e67:	00 
   19e68:	75 7b                	jne    19ee5 <func_58+0x1f55>
   19e6a:	48 8b 85 18 ea ff ff 	mov    -0x15e8(%rbp),%rax
   19e71:	48 8b 95 78 ea ff ff 	mov    -0x1588(%rbp),%rdx
   19e78:	48 89 10             	mov    %rdx,(%rax)
   19e7b:	48 8b 85 78 ea ff ff 	mov    -0x1588(%rbp),%rax
   19e82:	48 89 05 6f e5 00 00 	mov    %rax,0xe56f(%rip)        # 283f8 <g_1233>
   19e89:	48 8b 05 68 e5 00 00 	mov    0xe568(%rip),%rax        # 283f8 <g_1233>
   19e90:	0f b7 00             	movzwl (%rax),%eax
   19e93:	0f b7 d0             	movzwl %ax,%edx
   19e96:	48 8b 85 50 e9 ff ff 	mov    -0x16b0(%rbp),%rax
   19e9d:	0f b7 c0             	movzwl %ax,%eax
   19ea0:	89 d6                	mov    %edx,%esi
   19ea2:	89 c7                	mov    %eax,%edi
   19ea4:	e8 b3 1e ff ff       	callq  bd5c <safe_mod_func_uint16_t_u_u>
   19ea9:	0f b7 c0             	movzwl %ax,%eax
   19eac:	89 85 88 e9 ff ff    	mov    %eax,-0x1678(%rbp)
   19eb2:	48 8b 85 f8 e9 ff ff 	mov    -0x1608(%rbp),%rax
   19eb9:	48 8b 00             	mov    (%rax),%rax
   19ebc:	8b 00                	mov    (%rax),%eax
   19ebe:	85 c0                	test   %eax,%eax
   19ec0:	75 09                	jne    19ecb <func_58+0x1f3b>
   19ec2:	0f b6 05 e3 91 00 00 	movzbl 0x91e3(%rip),%eax        # 230ac <g_432>
   19ec9:	84 c0                	test   %al,%al
   19ecb:	48 83 bd f8 e9 ff ff 	cmpq   $0x0,-0x1608(%rbp)
   19ed2:	00 
   19ed3:	0f 95 c0             	setne  %al
   19ed6:	0f b6 d0             	movzbl %al,%edx
   19ed9:	0f b7 85 5c e9 ff ff 	movzwl -0x16a4(%rbp),%eax
   19ee0:	98                   	cwtl   
   19ee1:	39 c2                	cmp    %eax,%edx
   19ee3:	74 07                	je     19eec <func_58+0x1f5c>
   19ee5:	b8 01 00 00 00       	mov    $0x1,%eax
   19eea:	eb 05                	jmp    19ef1 <func_58+0x1f61>
   19eec:	b8 00 00 00 00       	mov    $0x0,%eax
   19ef1:	48 98                	cltq   
   19ef3:	49 39 c6             	cmp    %rax,%r14
   19ef6:	0f 93 c0             	setae  %al
   19ef9:	0f b6 c0             	movzbl %al,%eax
   19efc:	4c 89 ee             	mov    %r13,%rsi
   19eff:	48 89 c7             	mov    %rax,%rdi
   19f02:	e8 a1 19 ff ff       	callq  b8a8 <safe_sub_func_int64_t_s_s>
   19f07:	48 39 85 40 e9 ff ff 	cmp    %rax,-0x16c0(%rbp)
   19f0e:	0f 9d c0             	setge  %al
   19f11:	0f b6 c0             	movzbl %al,%eax
   19f14:	41 39 c7             	cmp    %eax,%r15d
   19f17:	0f 9d c0             	setge  %al
   19f1a:	0f b6 c0             	movzbl %al,%eax
   19f1d:	44 89 e6             	mov    %r12d,%esi
   19f20:	89 c7                	mov    %eax,%edi
   19f22:	e8 43 13 ff ff       	callq  b26a <safe_div_func_int8_t_s_s>
   19f27:	48 8b 85 50 e9 ff ff 	mov    -0x16b0(%rbp),%rax
   19f2e:	89 de                	mov    %ebx,%esi
   19f30:	89 c7                	mov    %eax,%edi
   19f32:	e8 7f 16 ff ff       	callq  b5b6 <safe_add_func_int32_t_s_s>
   19f37:	48 83 bd 50 e9 ff ff 	cmpq   $0x1,-0x16b0(%rbp)
   19f3e:	01 
   19f3f:	0f 95 c0             	setne  %al
   19f42:	0f b6 c0             	movzbl %al,%eax
   19f45:	48 39 85 30 ea ff ff 	cmp    %rax,-0x15d0(%rbp)
   19f4c:	0f 9c c0             	setl   %al
   19f4f:	0f b6 d0             	movzbl %al,%edx
   19f52:	48 8b 85 10 ea ff ff 	mov    -0x15f0(%rbp),%rax
   19f59:	89 10                	mov    %edx,(%rax)
   19f5b:	48 8b 85 90 ea ff ff 	mov    -0x1570(%rbp),%rax
   19f62:	48 c7 00 00 00 00 00 	movq   $0x0,(%rax)
   19f69:	0f b6 05 82 95 00 00 	movzbl 0x9582(%rip),%eax        # 234f2 <g_622>
   19f70:	83 c0 01             	add    $0x1,%eax
   19f73:	88 05 79 95 00 00    	mov    %al,0x9579(%rip)        # 234f2 <g_622>
   19f79:	0f b6 05 72 95 00 00 	movzbl 0x9572(%rip),%eax        # 234f2 <g_622>
   19f80:	3c 02                	cmp    $0x2,%al
   19f82:	0f 8e 83 f8 ff ff    	jle    1980b <func_58+0x187b>
   19f88:	8b 05 72 95 00 00    	mov    0x9572(%rip),%eax        # 23500 <g_704>
   19f8e:	83 c0 01             	add    $0x1,%eax
   19f91:	89 05 69 95 00 00    	mov    %eax,0x9569(%rip)        # 23500 <g_704>
   19f97:	8b 05 63 95 00 00    	mov    0x9563(%rip),%eax        # 23500 <g_704>
   19f9d:	83 f8 07             	cmp    $0x7,%eax
   19fa0:	0f 86 46 f6 ff ff    	jbe    195ec <func_58+0x165c>
   19fa6:	eb 01                	jmp    19fa9 <func_58+0x2019>
   19fa8:	90                   	nop
   19fa9:	48 8b 05 70 96 00 00 	mov    0x9670(%rip),%rax        # 23620 <g_833>
   19fb0:	0f b7 c0             	movzwl %ax,%eax
   19fb3:	be 02 00 00 00       	mov    $0x2,%esi
   19fb8:	89 c7                	mov    %eax,%edi
   19fba:	e8 40 1d ff ff       	callq  bcff <safe_add_func_uint16_t_u_u>
   19fbf:	0f b7 c0             	movzwl %ax,%eax
   19fc2:	48 89 05 57 96 00 00 	mov    %rax,0x9657(%rip)        # 23620 <g_833>
   19fc9:	48 8b 05 50 96 00 00 	mov    0x9650(%rip),%rax        # 23620 <g_833>
   19fd0:	48 83 f8 03          	cmp    $0x3,%rax
   19fd4:	0f 86 00 f0 ff ff    	jbe    18fda <func_58+0x104a>
   19fda:	48 8b 85 f8 e9 ff ff 	mov    -0x1608(%rbp),%rax
   19fe1:	48 8b 10             	mov    (%rax),%rdx
   19fe4:	48 8b 85 f8 e9 ff ff 	mov    -0x1608(%rbp),%rax
   19feb:	48 89 10             	mov    %rdx,(%rax)
   19fee:	48 8b 05 33 d4 00 00 	mov    0xd433(%rip),%rax        # 27428 <g_94>
   19ff5:	48 8b 00             	mov    (%rax),%rax
   19ff8:	48 8b 5d c8          	mov    -0x38(%rbp),%rbx
   19ffc:	64 48 33 1c 25 28 00 	xor    %fs:0x28,%rbx
   1a003:	00 00 
   1a005:	74 05                	je     1a00c <func_58+0x207c>
   1a007:	e8 64 10 ff ff       	callq  b070 <__stack_chk_fail@plt>
   1a00c:	48 81 c4 98 16 00 00 	add    $0x1698,%rsp
   1a013:	5b                   	pop    %rbx
   1a014:	41 5c                	pop    %r12
   1a016:	41 5d                	pop    %r13
   1a018:	41 5e                	pop    %r14
   1a01a:	41 5f                	pop    %r15
   1a01c:	5d                   	pop    %rbp
   1a01d:	c3                   	retq   

000000000001a01e <func_64>:
   1a01e:	f3 0f 1e fa          	endbr64 
   1a022:	55                   	push   %rbp
   1a023:	48 89 e5             	mov    %rsp,%rbp
   1a026:	41 56                	push   %r14
   1a028:	41 55                	push   %r13
   1a02a:	41 54                	push   %r12
   1a02c:	53                   	push   %rbx
   1a02d:	48 81 ec 00 10 00 00 	sub    $0x1000,%rsp
   1a034:	48 83 0c 24 00       	orq    $0x0,(%rsp)
   1a039:	48 81 ec 70 06 00 00 	sub    $0x670,%rsp
   1a040:	48 89 bd 88 e9 ff ff 	mov    %rdi,-0x1678(%rbp)
   1a047:	89 c8                	mov    %ecx,%eax
   1a049:	89 f1                	mov    %esi,%ecx
   1a04b:	88 8d 84 e9 ff ff    	mov    %cl,-0x167c(%rbp)
   1a051:	88 95 80 e9 ff ff    	mov    %dl,-0x1680(%rbp)
   1a057:	66 89 85 7c e9 ff ff 	mov    %ax,-0x1684(%rbp)
   1a05e:	64 48 8b 04 25 28 00 	mov    %fs:0x28,%rax
   1a065:	00 00 
   1a067:	48 89 45 d8          	mov    %rax,-0x28(%rbp)
   1a06b:	31 c0                	xor    %eax,%eax
   1a06d:	66 c7 85 b0 eb ff ff 	movw   $0xfff7,-0x1450(%rbp)
   1a074:	f7 ff 
   1a076:	66 c7 85 b2 eb ff ff 	movw   $0xfffb,-0x144e(%rbp)
   1a07d:	fb ff 
   1a07f:	66 c7 85 b4 eb ff ff 	movw   $0xfffb,-0x144c(%rbp)
   1a086:	fb ff 
   1a088:	66 c7 85 b6 eb ff ff 	movw   $0xfff7,-0x144a(%rbp)
   1a08f:	f7 ff 
   1a091:	66 c7 85 b8 eb ff ff 	movw   $0xfffd,-0x1448(%rbp)
   1a098:	fd ff 
   1a09a:	66 c7 85 ba eb ff ff 	movw   $0xfff7,-0x1446(%rbp)
   1a0a1:	f7 ff 
   1a0a3:	66 c7 85 bc eb ff ff 	movw   $0xfffb,-0x1444(%rbp)
   1a0aa:	fb ff 
   1a0ac:	66 c7 85 be eb ff ff 	movw   $0xfffb,-0x1442(%rbp)
   1a0b3:	fb ff 
   1a0b5:	66 c7 85 c0 eb ff ff 	movw   $0xfff7,-0x1440(%rbp)
   1a0bc:	f7 ff 
   1a0be:	66 c7 85 c2 eb ff ff 	movw   $0xfffd,-0x143e(%rbp)
   1a0c5:	fd ff 
   1a0c7:	66 c7 85 c4 eb ff ff 	movw   $0xfff7,-0x143c(%rbp)
   1a0ce:	f7 ff 
   1a0d0:	66 c7 85 c6 eb ff ff 	movw   $0xfffb,-0x143a(%rbp)
   1a0d7:	fb ff 
   1a0d9:	66 c7 85 c8 eb ff ff 	movw   $0xfffb,-0x1438(%rbp)
   1a0e0:	fb ff 
   1a0e2:	66 c7 85 ca eb ff ff 	movw   $0xfff7,-0x1436(%rbp)
   1a0e9:	f7 ff 
   1a0eb:	66 c7 85 cc eb ff ff 	movw   $0xfffd,-0x1434(%rbp)
   1a0f2:	fd ff 
   1a0f4:	66 c7 85 ce eb ff ff 	movw   $0xfff7,-0x1432(%rbp)
   1a0fb:	f7 ff 
   1a0fd:	66 c7 85 d0 eb ff ff 	movw   $0xfffb,-0x1430(%rbp)
   1a104:	fb ff 
   1a106:	66 c7 85 d2 eb ff ff 	movw   $0xfffb,-0x142e(%rbp)
   1a10d:	fb ff 
   1a10f:	66 c7 85 d4 eb ff ff 	movw   $0xfff7,-0x142c(%rbp)
   1a116:	f7 ff 
   1a118:	66 c7 85 d6 eb ff ff 	movw   $0xfffd,-0x142a(%rbp)
   1a11f:	fd ff 
   1a121:	66 c7 85 d8 eb ff ff 	movw   $0xfff7,-0x1428(%rbp)
   1a128:	f7 ff 
   1a12a:	66 c7 85 da eb ff ff 	movw   $0xfffb,-0x1426(%rbp)
   1a131:	fb ff 
   1a133:	66 c7 85 dc eb ff ff 	movw   $0xfffb,-0x1424(%rbp)
   1a13a:	fb ff 
   1a13c:	66 c7 85 de eb ff ff 	movw   $0xfff7,-0x1422(%rbp)
   1a143:	f7 ff 
   1a145:	66 c7 85 e0 eb ff ff 	movw   $0xfffd,-0x1420(%rbp)
   1a14c:	fd ff 
   1a14e:	c7 85 c4 e9 ff ff 9a 	movl   $0x6262bb9a,-0x163c(%rbp)
   1a155:	bb 62 62 
   1a158:	c7 85 c8 e9 ff ff 37 	movl   $0x96282f37,-0x1638(%rbp)
   1a15f:	2f 28 96 
   1a162:	c7 85 ac e9 ff ff fc 	movl   $0xfffffffc,-0x1654(%rbp)
   1a169:	ff ff ff 
   1a16c:	c7 85 a4 e9 ff ff 04 	movl   $0xde63df04,-0x165c(%rbp)
   1a173:	df 63 de 
   1a176:	c7 85 80 eb ff ff 01 	movl   $0x1,-0x1480(%rbp)
   1a17d:	00 00 00 
   1a180:	c7 85 84 eb ff ff 3f 	movl   $0x14b7e93f,-0x147c(%rbp)
   1a187:	e9 b7 14 
   1a18a:	c7 85 88 eb ff ff 3f 	movl   $0x14b7e93f,-0x1478(%rbp)
   1a191:	e9 b7 14 
   1a194:	c7 85 8c eb ff ff 01 	movl   $0x1,-0x1474(%rbp)
   1a19b:	00 00 00 
   1a19e:	c7 85 90 eb ff ff fd 	movl   $0xfffffffd,-0x1470(%rbp)
   1a1a5:	ff ff ff 
   1a1a8:	c7 85 94 eb ff ff 3f 	movl   $0x14b7e93f,-0x146c(%rbp)
   1a1af:	e9 b7 14 
   1a1b2:	c7 85 98 eb ff ff 00 	movl   $0x0,-0x1468(%rbp)
   1a1b9:	00 00 00 
   1a1bc:	c7 85 9c eb ff ff 3f 	movl   $0x14b7e93f,-0x1464(%rbp)
   1a1c3:	e9 b7 14 
   1a1c6:	c7 85 a0 eb ff ff 3f 	movl   $0x14b7e93f,-0x1460(%rbp)
   1a1cd:	e9 b7 14 
   1a1d0:	c7 85 a4 eb ff ff 41 	movl   $0x5b8fda41,-0x145c(%rbp)
   1a1d7:	da 8f 5b 
   1a1da:	c7 85 a8 eb ff ff 00 	movl   $0x0,-0x1458(%rbp)
   1a1e1:	00 00 00 
   1a1e4:	c7 85 ac eb ff ff 00 	movl   $0x0,-0x1454(%rbp)
   1a1eb:	00 00 00 
   1a1ee:	c7 85 cc e9 ff ff fd 	movl   $0xfffffffd,-0x1634(%rbp)
   1a1f5:	ff ff ff 
   1a1f8:	48 8d 05 29 8e 00 00 	lea    0x8e29(%rip),%rax        # 23028 <g_7>
   1a1ff:	48 89 85 40 ea ff ff 	mov    %rax,-0x15c0(%rbp)
   1a206:	48 8d 05 1b 8e 00 00 	lea    0x8e1b(%rip),%rax        # 23028 <g_7>
   1a20d:	48 89 85 f8 e9 ff ff 	mov    %rax,-0x1608(%rbp)
   1a214:	48 8d 05 87 8e 00 00 	lea    0x8e87(%rip),%rax        # 230a2 <g_111>
   1a21b:	48 89 85 00 ea ff ff 	mov    %rax,-0x1600(%rbp)
   1a222:	48 c7 85 48 ea ff ff 	movq   $0x1,-0x15b8(%rbp)
   1a229:	01 00 00 00 
   1a22d:	c7 85 d0 e9 ff ff 01 	movl   $0x1,-0x1630(%rbp)
   1a234:	00 00 00 
   1a237:	c7 85 b0 e9 ff ff 00 	movl   $0x0,-0x1650(%rbp)
   1a23e:	00 00 00 
   1a241:	eb 1b                	jmp    1a25e <func_64+0x240>
   1a243:	8b 85 b0 e9 ff ff    	mov    -0x1650(%rbp),%eax
   1a249:	48 98                	cltq   
   1a24b:	48 c7 84 c5 f0 eb ff 	movq   $0xfffffffffffffffc,-0x1410(%rbp,%rax,8)
   1a252:	ff fc ff ff ff 
   1a257:	83 85 b0 e9 ff ff 01 	addl   $0x1,-0x1650(%rbp)
   1a25e:	83 bd b0 e9 ff ff 07 	cmpl   $0x7,-0x1650(%rbp)
   1a265:	7e dc                	jle    1a243 <func_64+0x225>
   1a267:	c6 85 84 e9 ff ff 01 	movb   $0x1,-0x167c(%rbp)
   1a26e:	80 bd 84 e9 ff ff 04 	cmpb   $0x4,-0x167c(%rbp)
   1a275:	0f 87 6d 1b 00 00    	ja     1bde8 <func_64+0x1dca>
   1a27b:	48 8d 05 1a 8e 00 00 	lea    0x8e1a(%rip),%rax        # 2309c <g_78+0x1c>
   1a282:	48 89 85 08 ea ff ff 	mov    %rax,-0x15f8(%rbp)
   1a289:	48 c7 85 10 ea ff ff 	movq   $0x0,-0x15f0(%rbp)
   1a290:	00 00 00 00 
   1a294:	48 c7 85 50 ea ff ff 	movq   $0x0,-0x15b0(%rbp)
   1a29b:	00 00 00 00 
   1a29f:	48 8d 85 50 ed ff ff 	lea    -0x12b0(%rbp),%rax
   1a2a6:	48 8d 15 d3 c6 00 00 	lea    0xc6d3(%rip),%rdx        # 26980 <g_4082+0x2e80>
   1a2ad:	b9 64 00 00 00       	mov    $0x64,%ecx
   1a2b2:	48 89 c7             	mov    %rax,%rdi
   1a2b5:	48 89 d6             	mov    %rdx,%rsi
   1a2b8:	f3 48 a5             	rep movsq %ds:(%rsi),%es:(%rdi)
   1a2bb:	c7 85 a8 e9 ff ff 02 	movl   $0x92194a02,-0x1658(%rbp)
   1a2c2:	4a 19 92 
   1a2c5:	48 8d 85 30 eb ff ff 	lea    -0x14d0(%rbp),%rax
   1a2cc:	48 83 c0 18          	add    $0x18,%rax
   1a2d0:	48 89 85 18 ea ff ff 	mov    %rax,-0x15e8(%rbp)
   1a2d7:	48 b8 8b d6 bf 46 15 	movabs $0x13d7b71546bfd68b,%rax
   1a2de:	b7 d7 13 
   1a2e1:	48 89 85 58 ea ff ff 	mov    %rax,-0x15a8(%rbp)
   1a2e8:	48 8d 85 08 ea ff ff 	lea    -0x15f8(%rbp),%rax
   1a2ef:	48 89 85 60 ea ff ff 	mov    %rax,-0x15a0(%rbp)
   1a2f6:	48 8d 85 18 ea ff ff 	lea    -0x15e8(%rbp),%rax
   1a2fd:	48 89 85 20 ea ff ff 	mov    %rax,-0x15e0(%rbp)
   1a304:	48 8d 85 20 ea ff ff 	lea    -0x15e0(%rbp),%rax
   1a30b:	48 89 85 68 ea ff ff 	mov    %rax,-0x1598(%rbp)
   1a312:	48 b8 b4 61 ff 27 48 	movabs $0x1372984827ff61b4,%rax
   1a319:	98 72 13 
   1a31c:	48 89 85 70 ea ff ff 	mov    %rax,-0x1590(%rbp)
   1a323:	66 c7 85 d0 ec ff ff 	movw   $0x8144,-0x1330(%rbp)
   1a32a:	44 81 
   1a32c:	66 c7 85 d2 ec ff ff 	movw   $0x181,-0x132e(%rbp)
   1a333:	81 01 
   1a335:	66 c7 85 d4 ec ff ff 	movw   $0x1ff,-0x132c(%rbp)
   1a33c:	ff 01 
   1a33e:	66 c7 85 d6 ec ff ff 	movw   $0x8181,-0x132a(%rbp)
   1a345:	81 81 
   1a347:	66 c7 85 d8 ec ff ff 	movw   $0x6d44,-0x1328(%rbp)
   1a34e:	44 6d 
   1a350:	66 c7 85 da ec ff ff 	movw   $0xfffd,-0x1326(%rbp)
   1a357:	fd ff 
   1a359:	66 c7 85 dc ec ff ff 	movw   $0x127,-0x1324(%rbp)
   1a360:	27 01 
   1a362:	66 c7 85 de ec ff ff 	movw   $0x2701,-0x1322(%rbp)
   1a369:	01 27 
   1a36b:	66 c7 85 e0 ec ff ff 	movw   $0xbd01,-0x1320(%rbp)
   1a372:	01 bd 
   1a374:	66 c7 85 e2 ec ff ff 	movw   $0x2701,-0x131e(%rbp)
   1a37b:	01 27 
   1a37d:	66 c7 85 e4 ec ff ff 	movw   $0x101,-0x131c(%rbp)
   1a384:	01 01 
   1a386:	66 c7 85 e6 ec ff ff 	movw   $0xff27,-0x131a(%rbp)
   1a38d:	27 ff 
   1a38f:	66 c7 85 e8 ec ff ff 	movw   $0x6dfd,-0x1318(%rbp)
   1a396:	fd 6d 
   1a398:	66 c7 85 ea ec ff ff 	movw   $0x8144,-0x1316(%rbp)
   1a39f:	44 81 
   1a3a1:	66 c7 85 ec ec ff ff 	movw   $0x181,-0x1314(%rbp)
   1a3a8:	81 01 
   1a3aa:	66 c7 85 ee ec ff ff 	movw   $0x1ff,-0x1312(%rbp)
   1a3b1:	ff 01 
   1a3b3:	66 c7 85 f0 ec ff ff 	movw   $0x8181,-0x1310(%rbp)
   1a3ba:	81 81 
   1a3bc:	66 c7 85 f2 ec ff ff 	movw   $0x6d44,-0x130e(%rbp)
   1a3c3:	44 6d 
   1a3c5:	66 c7 85 f4 ec ff ff 	movw   $0xfffd,-0x130c(%rbp)
   1a3cc:	fd ff 
   1a3ce:	66 c7 85 f6 ec ff ff 	movw   $0x127,-0x130a(%rbp)
   1a3d5:	27 01 
   1a3d7:	66 c7 85 f8 ec ff ff 	movw   $0x2701,-0x1308(%rbp)
   1a3de:	01 27 
   1a3e0:	66 c7 85 fa ec ff ff 	movw   $0xbd01,-0x1306(%rbp)
   1a3e7:	01 bd 
   1a3e9:	66 c7 85 fc ec ff ff 	movw   $0x2701,-0x1304(%rbp)
   1a3f0:	01 27 
   1a3f2:	66 c7 85 fe ec ff ff 	movw   $0x101,-0x1302(%rbp)
   1a3f9:	01 01 
   1a3fb:	66 c7 85 00 ed ff ff 	movw   $0xff27,-0x1300(%rbp)
   1a402:	27 ff 
   1a404:	66 c7 85 02 ed ff ff 	movw   $0x6dfd,-0x12fe(%rbp)
   1a40b:	fd 6d 
   1a40d:	66 c7 85 04 ed ff ff 	movw   $0x8144,-0x12fc(%rbp)
   1a414:	44 81 
   1a416:	66 c7 85 06 ed ff ff 	movw   $0x181,-0x12fa(%rbp)
   1a41d:	81 01 
   1a41f:	66 c7 85 08 ed ff ff 	movw   $0x1ff,-0x12f8(%rbp)
   1a426:	ff 01 
   1a428:	66 c7 85 0a ed ff ff 	movw   $0x8181,-0x12f6(%rbp)
   1a42f:	81 81 
   1a431:	66 c7 85 0c ed ff ff 	movw   $0x6d44,-0x12f4(%rbp)
   1a438:	44 6d 
   1a43a:	66 c7 85 0e ed ff ff 	movw   $0xfffd,-0x12f2(%rbp)
   1a441:	fd ff 
   1a443:	66 c7 85 10 ed ff ff 	movw   $0x127,-0x12f0(%rbp)
   1a44a:	27 01 
   1a44c:	66 c7 85 12 ed ff ff 	movw   $0x2701,-0x12ee(%rbp)
   1a453:	01 27 
   1a455:	66 c7 85 14 ed ff ff 	movw   $0xbd01,-0x12ec(%rbp)
   1a45c:	01 bd 
   1a45e:	66 c7 85 16 ed ff ff 	movw   $0x2701,-0x12ea(%rbp)
   1a465:	01 27 
   1a467:	66 c7 85 18 ed ff ff 	movw   $0x101,-0x12e8(%rbp)
   1a46e:	01 01 
   1a470:	66 c7 85 1a ed ff ff 	movw   $0xff27,-0x12e6(%rbp)
   1a477:	27 ff 
   1a479:	66 c7 85 1c ed ff ff 	movw   $0x6dfd,-0x12e4(%rbp)
   1a480:	fd 6d 
   1a482:	66 c7 85 1e ed ff ff 	movw   $0x8144,-0x12e2(%rbp)
   1a489:	44 81 
   1a48b:	66 c7 85 20 ed ff ff 	movw   $0x181,-0x12e0(%rbp)
   1a492:	81 01 
   1a494:	66 c7 85 22 ed ff ff 	movw   $0x1ff,-0x12de(%rbp)
   1a49b:	ff 01 
   1a49d:	66 c7 85 24 ed ff ff 	movw   $0x8181,-0x12dc(%rbp)
   1a4a4:	81 81 
   1a4a6:	66 c7 85 26 ed ff ff 	movw   $0x6d44,-0x12da(%rbp)
   1a4ad:	44 6d 
   1a4af:	66 c7 85 28 ed ff ff 	movw   $0xfffd,-0x12d8(%rbp)
   1a4b6:	fd ff 
   1a4b8:	66 c7 85 2a ed ff ff 	movw   $0x127,-0x12d6(%rbp)
   1a4bf:	27 01 
   1a4c1:	66 c7 85 2c ed ff ff 	movw   $0x2701,-0x12d4(%rbp)
   1a4c8:	01 27 
   1a4ca:	66 c7 85 2e ed ff ff 	movw   $0xbd01,-0x12d2(%rbp)
   1a4d1:	01 bd 
   1a4d3:	66 c7 85 30 ed ff ff 	movw   $0x2701,-0x12d0(%rbp)
   1a4da:	01 27 
   1a4dc:	66 c7 85 32 ed ff ff 	movw   $0x101,-0x12ce(%rbp)
   1a4e3:	01 01 
   1a4e5:	66 c7 85 34 ed ff ff 	movw   $0xff27,-0x12cc(%rbp)
   1a4ec:	27 ff 
   1a4ee:	66 c7 85 36 ed ff ff 	movw   $0x6dfd,-0x12ca(%rbp)
   1a4f5:	fd 6d 
   1a4f7:	66 c7 85 38 ed ff ff 	movw   $0x8144,-0x12c8(%rbp)
   1a4fe:	44 81 
   1a500:	66 c7 85 3a ed ff ff 	movw   $0x181,-0x12c6(%rbp)
   1a507:	81 01 
   1a509:	66 c7 85 3c ed ff ff 	movw   $0xff81,-0x12c4(%rbp)
   1a510:	81 ff 
   1a512:	66 c7 85 3e ed ff ff 	movw   $0xbdbd,-0x12c2(%rbp)
   1a519:	bd bd 
   1a51b:	66 c7 85 40 ed ff ff 	movw   $0x16d,-0x12c0(%rbp)
   1a522:	6d 01 
   1a524:	66 c7 85 42 ed ff ff 	movw   $0x101,-0x12be(%rbp)
   1a52b:	01 01 
   1a52d:	66 c7 85 44 ed ff ff 	movw   $0xf944,-0x12bc(%rbp)
   1a534:	44 f9 
   1a536:	66 c7 85 46 ed ff ff 	movw   $0x44ff,-0x12ba(%rbp)
   1a53d:	ff 44 
   1a53f:	48 c7 85 78 ea ff ff 	movq   $0x0,-0x1588(%rbp)
   1a546:	00 00 00 00 
   1a54a:	c7 85 d4 e9 ff ff fd 	movl   $0xa2ba30fd,-0x162c(%rbp)
   1a551:	30 ba a2 
   1a554:	48 8d 85 00 ea ff ff 	lea    -0x1600(%rbp),%rax
   1a55b:	48 89 85 80 ec ff ff 	mov    %rax,-0x1380(%rbp)
   1a562:	48 8d 85 00 ea ff ff 	lea    -0x1600(%rbp),%rax
   1a569:	48 89 85 88 ec ff ff 	mov    %rax,-0x1378(%rbp)
   1a570:	48 8d 85 00 ea ff ff 	lea    -0x1600(%rbp),%rax
   1a577:	48 89 85 90 ec ff ff 	mov    %rax,-0x1370(%rbp)
   1a57e:	48 8d 85 00 ea ff ff 	lea    -0x1600(%rbp),%rax
   1a585:	48 89 85 98 ec ff ff 	mov    %rax,-0x1368(%rbp)
   1a58c:	48 8d 85 00 ea ff ff 	lea    -0x1600(%rbp),%rax
   1a593:	48 89 85 a0 ec ff ff 	mov    %rax,-0x1360(%rbp)
   1a59a:	48 8d 85 00 ea ff ff 	lea    -0x1600(%rbp),%rax
   1a5a1:	48 89 85 a8 ec ff ff 	mov    %rax,-0x1358(%rbp)
   1a5a8:	48 8d 85 00 ea ff ff 	lea    -0x1600(%rbp),%rax
   1a5af:	48 89 85 b0 ec ff ff 	mov    %rax,-0x1350(%rbp)
   1a5b6:	48 8d 85 00 ea ff ff 	lea    -0x1600(%rbp),%rax
   1a5bd:	48 89 85 b8 ec ff ff 	mov    %rax,-0x1348(%rbp)
   1a5c4:	48 8d 85 00 ea ff ff 	lea    -0x1600(%rbp),%rax
   1a5cb:	48 89 85 c0 ec ff ff 	mov    %rax,-0x1340(%rbp)
   1a5d2:	48 8d 85 00 ea ff ff 	lea    -0x1600(%rbp),%rax
   1a5d9:	48 89 85 c8 ec ff ff 	mov    %rax,-0x1338(%rbp)
   1a5e0:	48 8d 85 f0 eb ff ff 	lea    -0x1410(%rbp),%rax
   1a5e7:	48 83 c0 10          	add    $0x10,%rax
   1a5eb:	48 89 85 80 ea ff ff 	mov    %rax,-0x1580(%rbp)
   1a5f2:	c7 85 b4 e9 ff ff 00 	movl   $0x0,-0x164c(%rbp)
   1a5f9:	00 00 00 
   1a5fc:	eb 75                	jmp    1a673 <func_64+0x655>
   1a5fe:	c7 85 b8 e9 ff ff 00 	movl   $0x0,-0x1648(%rbp)
   1a605:	00 00 00 
   1a608:	eb 59                	jmp    1a663 <func_64+0x645>
   1a60a:	c7 85 bc e9 ff ff 00 	movl   $0x0,-0x1644(%rbp)
   1a611:	00 00 00 
   1a614:	eb 3d                	jmp    1a653 <func_64+0x635>
   1a616:	8b 85 bc e9 ff ff    	mov    -0x1644(%rbp),%eax
   1a61c:	48 98                	cltq   
   1a61e:	8b 95 b4 e9 ff ff    	mov    -0x164c(%rbp),%edx
   1a624:	48 63 ca             	movslq %edx,%rcx
   1a627:	8b 95 b8 e9 ff ff    	mov    -0x1648(%rbp),%edx
   1a62d:	48 63 d2             	movslq %edx,%rdx
   1a630:	48 01 c9             	add    %rcx,%rcx
   1a633:	48 01 ca             	add    %rcx,%rdx
   1a636:	48 01 d2             	add    %rdx,%rdx
   1a639:	48 8d 4d e0          	lea    -0x20(%rbp),%rcx
   1a63d:	48 01 ca             	add    %rcx,%rdx
   1a640:	48 01 d0             	add    %rdx,%rax
   1a643:	48 2d b0 14 00 00    	sub    $0x14b0,%rax
   1a649:	c6 00 06             	movb   $0x6,(%rax)
   1a64c:	83 85 bc e9 ff ff 01 	addl   $0x1,-0x1644(%rbp)
   1a653:	83 bd bc e9 ff ff 01 	cmpl   $0x1,-0x1644(%rbp)
   1a65a:	7e ba                	jle    1a616 <func_64+0x5f8>
   1a65c:	83 85 b8 e9 ff ff 01 	addl   $0x1,-0x1648(%rbp)
   1a663:	83 bd b8 e9 ff ff 01 	cmpl   $0x1,-0x1648(%rbp)
   1a66a:	7e 9e                	jle    1a60a <func_64+0x5ec>
   1a66c:	83 85 b4 e9 ff ff 01 	addl   $0x1,-0x164c(%rbp)
   1a673:	83 bd b4 e9 ff ff 06 	cmpl   $0x6,-0x164c(%rbp)
   1a67a:	7e 82                	jle    1a5fe <func_64+0x5e0>
   1a67c:	83 ad cc e9 ff ff 01 	subl   $0x1,-0x1634(%rbp)
   1a683:	0f be 85 80 e9 ff ff 	movsbl -0x1680(%rbp),%eax
   1a68a:	89 c6                	mov    %eax,%esi
   1a68c:	bf 00 00 00 00       	mov    $0x0,%edi
   1a691:	e8 58 0c ff ff       	callq  b2ee <safe_lshift_func_int8_t_s_u>
   1a696:	0f be d0             	movsbl %al,%edx
   1a699:	48 8b 05 88 cd 00 00 	mov    0xcd88(%rip),%rax        # 27428 <g_94>
   1a6a0:	48 85 c0             	test   %rax,%rax
   1a6a3:	0f 94 c0             	sete   %al
   1a6a6:	0f b6 c0             	movzbl %al,%eax
   1a6a9:	89 d6                	mov    %edx,%esi
   1a6ab:	89 c7                	mov    %eax,%edi
   1a6ad:	e8 53 15 ff ff       	callq  bc05 <safe_lshift_func_uint8_t_u_s>
   1a6b2:	8b 05 8c 89 00 00    	mov    0x898c(%rip),%eax        # 23044 <g_22+0x4>
   1a6b8:	0f be c0             	movsbl %al,%eax
   1a6bb:	be fd ff ff ff       	mov    $0xfffffffd,%esi
   1a6c0:	89 c7                	mov    %eax,%edi
   1a6c2:	e8 a3 0b ff ff       	callq  b26a <safe_div_func_int8_t_s_s>
   1a6c7:	0f be c0             	movsbl %al,%eax
   1a6ca:	be ff ff ff ff       	mov    $0xffffffff,%esi
   1a6cf:	89 c7                	mov    %eax,%edi
   1a6d1:	e8 40 0d ff ff       	callq  b416 <safe_mod_func_int16_t_s_s>
   1a6d6:	89 c2                	mov    %eax,%edx
   1a6d8:	48 8b 85 18 ea ff ff 	mov    -0x15e8(%rbp),%rax
   1a6df:	88 10                	mov    %dl,(%rax)
   1a6e1:	48 8b 85 08 ea ff ff 	mov    -0x15f8(%rbp),%rax
   1a6e8:	8b 00                	mov    (%rax),%eax
   1a6ea:	89 c2                	mov    %eax,%edx
   1a6ec:	0f b7 05 ad 89 00 00 	movzwl 0x89ad(%rip),%eax        # 230a0 <g_104>
   1a6f3:	21 d0                	and    %edx,%eax
   1a6f5:	66 89 05 a4 89 00 00 	mov    %ax,0x89a4(%rip)        # 230a0 <g_104>
   1a6fc:	0f b7 15 9d 89 00 00 	movzwl 0x899d(%rip),%edx        # 230a0 <g_104>
   1a703:	48 8b 85 08 ea ff ff 	mov    -0x15f8(%rbp),%rax
   1a70a:	0f b7 d2             	movzwl %dx,%edx
   1a70d:	89 10                	mov    %edx,(%rax)
   1a70f:	8b 85 c4 e9 ff ff    	mov    -0x163c(%rbp),%eax
   1a715:	48 98                	cltq   
   1a717:	48 39 85 58 ea ff ff 	cmp    %rax,-0x15a8(%rbp)
   1a71e:	0f 9e c0             	setle  %al
   1a721:	0f b6 c0             	movzbl %al,%eax
   1a724:	ba fb ff ff ff       	mov    $0xfffffffb,%edx
   1a729:	39 d0                	cmp    %edx,%eax
   1a72b:	7d 15                	jge    1a742 <func_64+0x724>
   1a72d:	0f b7 05 6c 89 00 00 	movzwl 0x896c(%rip),%eax        # 230a0 <g_104>
   1a734:	66 85 c0             	test   %ax,%ax
   1a737:	0f 84 a2 16 00 00    	je     1bddf <func_64+0x1dc1>
   1a73d:	e9 a6 16 00 00       	jmpq   1bde8 <func_64+0x1dca>
   1a742:	c7 85 d8 e9 ff ff 6f 	movl   $0x13ae606f,-0x1628(%rbp)
   1a749:	60 ae 13 
   1a74c:	c7 85 dc e9 ff ff bf 	movl   $0x4c9b6cbf,-0x1624(%rbp)
   1a753:	6c 9b 4c 
   1a756:	48 c7 85 f0 f7 ff ff 	movq   $0x0,-0x810(%rbp)
   1a75d:	00 00 00 00 
   1a761:	48 8d 05 b8 cc 00 00 	lea    0xccb8(%rip),%rax        # 27420 <g_95>
   1a768:	48 89 85 f8 f7 ff ff 	mov    %rax,-0x808(%rbp)
   1a76f:	48 8d 05 aa cc 00 00 	lea    0xccaa(%rip),%rax        # 27420 <g_95>
   1a776:	48 89 85 00 f8 ff ff 	mov    %rax,-0x800(%rbp)
   1a77d:	48 8d 05 9c cc 00 00 	lea    0xcc9c(%rip),%rax        # 27420 <g_95>
   1a784:	48 89 85 08 f8 ff ff 	mov    %rax,-0x7f8(%rbp)
   1a78b:	48 8d 05 8e cc 00 00 	lea    0xcc8e(%rip),%rax        # 27420 <g_95>
   1a792:	48 89 85 10 f8 ff ff 	mov    %rax,-0x7f0(%rbp)
   1a799:	48 8d 05 80 cc 00 00 	lea    0xcc80(%rip),%rax        # 27420 <g_95>
   1a7a0:	48 89 85 18 f8 ff ff 	mov    %rax,-0x7e8(%rbp)
   1a7a7:	48 8d 05 72 cc 00 00 	lea    0xcc72(%rip),%rax        # 27420 <g_95>
   1a7ae:	48 89 85 20 f8 ff ff 	mov    %rax,-0x7e0(%rbp)
   1a7b5:	48 8d 05 64 cc 00 00 	lea    0xcc64(%rip),%rax        # 27420 <g_95>
   1a7bc:	48 89 85 28 f8 ff ff 	mov    %rax,-0x7d8(%rbp)
   1a7c3:	48 8d 85 f8 e9 ff ff 	lea    -0x1608(%rbp),%rax
   1a7ca:	48 89 85 30 f8 ff ff 	mov    %rax,-0x7d0(%rbp)
   1a7d1:	48 8d 85 f8 e9 ff ff 	lea    -0x1608(%rbp),%rax
   1a7d8:	48 89 85 38 f8 ff ff 	mov    %rax,-0x7c8(%rbp)
   1a7df:	48 c7 85 40 f8 ff ff 	movq   $0x0,-0x7c0(%rbp)
   1a7e6:	00 00 00 00 
   1a7ea:	48 c7 85 48 f8 ff ff 	movq   $0x0,-0x7b8(%rbp)
   1a7f1:	00 00 00 00 
   1a7f5:	48 8d 05 24 cc 00 00 	lea    0xcc24(%rip),%rax        # 27420 <g_95>
   1a7fc:	48 89 85 50 f8 ff ff 	mov    %rax,-0x7b0(%rbp)
   1a803:	48 8d 05 16 cc 00 00 	lea    0xcc16(%rip),%rax        # 27420 <g_95>
   1a80a:	48 89 85 58 f8 ff ff 	mov    %rax,-0x7a8(%rbp)
   1a811:	48 c7 85 60 f8 ff ff 	movq   $0x0,-0x7a0(%rbp)
   1a818:	00 00 00 00 
   1a81c:	48 8d 05 fd cb 00 00 	lea    0xcbfd(%rip),%rax        # 27420 <g_95>
   1a823:	48 89 85 68 f8 ff ff 	mov    %rax,-0x798(%rbp)
   1a82a:	48 8d 05 ef cb 00 00 	lea    0xcbef(%rip),%rax        # 27420 <g_95>
   1a831:	48 89 85 70 f8 ff ff 	mov    %rax,-0x790(%rbp)
   1a838:	48 8d 05 e1 cb 00 00 	lea    0xcbe1(%rip),%rax        # 27420 <g_95>
   1a83f:	48 89 85 78 f8 ff ff 	mov    %rax,-0x788(%rbp)
   1a846:	48 8d 05 d3 cb 00 00 	lea    0xcbd3(%rip),%rax        # 27420 <g_95>
   1a84d:	48 89 85 80 f8 ff ff 	mov    %rax,-0x780(%rbp)
   1a854:	48 8d 05 c5 cb 00 00 	lea    0xcbc5(%rip),%rax        # 27420 <g_95>
   1a85b:	48 89 85 88 f8 ff ff 	mov    %rax,-0x778(%rbp)
   1a862:	48 c7 85 90 f8 ff ff 	movq   $0x0,-0x770(%rbp)
   1a869:	00 00 00 00 
   1a86d:	48 8d 85 f8 e9 ff ff 	lea    -0x1608(%rbp),%rax
   1a874:	48 89 85 98 f8 ff ff 	mov    %rax,-0x768(%rbp)
   1a87b:	48 8d 85 f8 e9 ff ff 	lea    -0x1608(%rbp),%rax
   1a882:	48 89 85 a0 f8 ff ff 	mov    %rax,-0x760(%rbp)
   1a889:	48 8d 05 90 cb 00 00 	lea    0xcb90(%rip),%rax        # 27420 <g_95>
   1a890:	48 89 85 a8 f8 ff ff 	mov    %rax,-0x758(%rbp)
   1a897:	48 8d 05 82 cb 00 00 	lea    0xcb82(%rip),%rax        # 27420 <g_95>
   1a89e:	48 89 85 b0 f8 ff ff 	mov    %rax,-0x750(%rbp)
   1a8a5:	48 c7 85 b8 f8 ff ff 	movq   $0x0,-0x748(%rbp)
   1a8ac:	00 00 00 00 
   1a8b0:	48 c7 85 c0 f8 ff ff 	movq   $0x0,-0x740(%rbp)
   1a8b7:	00 00 00 00 
   1a8bb:	48 8d 05 5e cb 00 00 	lea    0xcb5e(%rip),%rax        # 27420 <g_95>
   1a8c2:	48 89 85 c8 f8 ff ff 	mov    %rax,-0x738(%rbp)
   1a8c9:	48 8d 05 50 cb 00 00 	lea    0xcb50(%rip),%rax        # 27420 <g_95>
   1a8d0:	48 89 85 d0 f8 ff ff 	mov    %rax,-0x730(%rbp)
   1a8d7:	48 c7 85 d8 f8 ff ff 	movq   $0x0,-0x728(%rbp)
   1a8de:	00 00 00 00 
   1a8e2:	48 c7 85 e0 f8 ff ff 	movq   $0x0,-0x720(%rbp)
   1a8e9:	00 00 00 00 
   1a8ed:	48 8d 05 2c cb 00 00 	lea    0xcb2c(%rip),%rax        # 27420 <g_95>
   1a8f4:	48 89 85 e8 f8 ff ff 	mov    %rax,-0x718(%rbp)
   1a8fb:	48 c7 85 f0 f8 ff ff 	movq   $0x0,-0x710(%rbp)
   1a902:	00 00 00 00 
   1a906:	48 8d 05 13 cb 00 00 	lea    0xcb13(%rip),%rax        # 27420 <g_95>
   1a90d:	48 89 85 f8 f8 ff ff 	mov    %rax,-0x708(%rbp)
   1a914:	48 8d 85 f8 e9 ff ff 	lea    -0x1608(%rbp),%rax
   1a91b:	48 89 85 00 f9 ff ff 	mov    %rax,-0x700(%rbp)
   1a922:	48 8d 05 f7 ca 00 00 	lea    0xcaf7(%rip),%rax        # 27420 <g_95>
   1a929:	48 89 85 08 f9 ff ff 	mov    %rax,-0x6f8(%rbp)
   1a930:	48 8d 05 e9 ca 00 00 	lea    0xcae9(%rip),%rax        # 27420 <g_95>
   1a937:	48 89 85 10 f9 ff ff 	mov    %rax,-0x6f0(%rbp)
   1a93e:	48 8d 05 db ca 00 00 	lea    0xcadb(%rip),%rax        # 27420 <g_95>
   1a945:	48 89 85 18 f9 ff ff 	mov    %rax,-0x6e8(%rbp)
   1a94c:	48 8d 05 cd ca 00 00 	lea    0xcacd(%rip),%rax        # 27420 <g_95>
   1a953:	48 89 85 20 f9 ff ff 	mov    %rax,-0x6e0(%rbp)
   1a95a:	48 8d 85 f8 e9 ff ff 	lea    -0x1608(%rbp),%rax
   1a961:	48 89 85 28 f9 ff ff 	mov    %rax,-0x6d8(%rbp)
   1a968:	48 8d 85 f8 e9 ff ff 	lea    -0x1608(%rbp),%rax
   1a96f:	48 89 85 30 f9 ff ff 	mov    %rax,-0x6d0(%rbp)
   1a976:	48 c7 85 38 f9 ff ff 	movq   $0x0,-0x6c8(%rbp)
   1a97d:	00 00 00 00 
   1a981:	48 c7 85 40 f9 ff ff 	movq   $0x0,-0x6c0(%rbp)
   1a988:	00 00 00 00 
   1a98c:	48 8d 85 f8 e9 ff ff 	lea    -0x1608(%rbp),%rax
   1a993:	48 89 85 48 f9 ff ff 	mov    %rax,-0x6b8(%rbp)
   1a99a:	48 8d 05 7f ca 00 00 	lea    0xca7f(%rip),%rax        # 27420 <g_95>
   1a9a1:	48 89 85 50 f9 ff ff 	mov    %rax,-0x6b0(%rbp)
   1a9a8:	48 8d 05 71 ca 00 00 	lea    0xca71(%rip),%rax        # 27420 <g_95>
   1a9af:	48 89 85 58 f9 ff ff 	mov    %rax,-0x6a8(%rbp)
   1a9b6:	48 8d 85 f8 e9 ff ff 	lea    -0x1608(%rbp),%rax
   1a9bd:	48 89 85 60 f9 ff ff 	mov    %rax,-0x6a0(%rbp)
   1a9c4:	48 c7 85 68 f9 ff ff 	movq   $0x0,-0x698(%rbp)
   1a9cb:	00 00 00 00 
   1a9cf:	48 8d 05 4a ca 00 00 	lea    0xca4a(%rip),%rax        # 27420 <g_95>
   1a9d6:	48 89 85 70 f9 ff ff 	mov    %rax,-0x690(%rbp)
   1a9dd:	48 8d 85 f8 e9 ff ff 	lea    -0x1608(%rbp),%rax
   1a9e4:	48 89 85 78 f9 ff ff 	mov    %rax,-0x688(%rbp)
   1a9eb:	48 8d 05 2e ca 00 00 	lea    0xca2e(%rip),%rax        # 27420 <g_95>
   1a9f2:	48 89 85 80 f9 ff ff 	mov    %rax,-0x680(%rbp)
   1a9f9:	48 8d 85 f8 e9 ff ff 	lea    -0x1608(%rbp),%rax
   1aa00:	48 89 85 88 f9 ff ff 	mov    %rax,-0x678(%rbp)
   1aa07:	48 8d 85 f8 e9 ff ff 	lea    -0x1608(%rbp),%rax
   1aa0e:	48 89 85 90 f9 ff ff 	mov    %rax,-0x670(%rbp)
   1aa15:	48 c7 85 98 f9 ff ff 	movq   $0x0,-0x668(%rbp)
   1aa1c:	00 00 00 00 
   1aa20:	48 8d 05 f9 c9 00 00 	lea    0xc9f9(%rip),%rax        # 27420 <g_95>
   1aa27:	48 89 85 a0 f9 ff ff 	mov    %rax,-0x660(%rbp)
   1aa2e:	48 c7 85 a8 f9 ff ff 	movq   $0x0,-0x658(%rbp)
   1aa35:	00 00 00 00 
   1aa39:	48 8d 05 e0 c9 00 00 	lea    0xc9e0(%rip),%rax        # 27420 <g_95>
   1aa40:	48 89 85 b0 f9 ff ff 	mov    %rax,-0x650(%rbp)
   1aa47:	48 8d 05 d2 c9 00 00 	lea    0xc9d2(%rip),%rax        # 27420 <g_95>
   1aa4e:	48 89 85 b8 f9 ff ff 	mov    %rax,-0x648(%rbp)
   1aa55:	48 8d 05 c4 c9 00 00 	lea    0xc9c4(%rip),%rax        # 27420 <g_95>
   1aa5c:	48 89 85 c0 f9 ff ff 	mov    %rax,-0x640(%rbp)
   1aa63:	48 8d 05 b6 c9 00 00 	lea    0xc9b6(%rip),%rax        # 27420 <g_95>
   1aa6a:	48 89 85 c8 f9 ff ff 	mov    %rax,-0x638(%rbp)
   1aa71:	48 8d 05 a8 c9 00 00 	lea    0xc9a8(%rip),%rax        # 27420 <g_95>
   1aa78:	48 89 85 d0 f9 ff ff 	mov    %rax,-0x630(%rbp)
   1aa7f:	48 8d 85 f8 e9 ff ff 	lea    -0x1608(%rbp),%rax
   1aa86:	48 89 85 d8 f9 ff ff 	mov    %rax,-0x628(%rbp)
   1aa8d:	48 8d 05 8c c9 00 00 	lea    0xc98c(%rip),%rax        # 27420 <g_95>
   1aa94:	48 89 85 e0 f9 ff ff 	mov    %rax,-0x620(%rbp)
   1aa9b:	48 8d 85 f8 e9 ff ff 	lea    -0x1608(%rbp),%rax
   1aaa2:	48 89 85 e8 f9 ff ff 	mov    %rax,-0x618(%rbp)
   1aaa9:	48 8d 85 f8 e9 ff ff 	lea    -0x1608(%rbp),%rax
   1aab0:	48 89 85 f0 f9 ff ff 	mov    %rax,-0x610(%rbp)
   1aab7:	48 8d 85 f8 e9 ff ff 	lea    -0x1608(%rbp),%rax
   1aabe:	48 89 85 f8 f9 ff ff 	mov    %rax,-0x608(%rbp)
   1aac5:	48 8d 05 54 c9 00 00 	lea    0xc954(%rip),%rax        # 27420 <g_95>
   1aacc:	48 89 85 00 fa ff ff 	mov    %rax,-0x600(%rbp)
   1aad3:	48 8d 05 46 c9 00 00 	lea    0xc946(%rip),%rax        # 27420 <g_95>
   1aada:	48 89 85 08 fa ff ff 	mov    %rax,-0x5f8(%rbp)
   1aae1:	48 8d 05 38 c9 00 00 	lea    0xc938(%rip),%rax        # 27420 <g_95>
   1aae8:	48 89 85 10 fa ff ff 	mov    %rax,-0x5f0(%rbp)
   1aaef:	48 8d 05 2a c9 00 00 	lea    0xc92a(%rip),%rax        # 27420 <g_95>
   1aaf6:	48 89 85 18 fa ff ff 	mov    %rax,-0x5e8(%rbp)
   1aafd:	48 8d 85 f8 e9 ff ff 	lea    -0x1608(%rbp),%rax
   1ab04:	48 89 85 20 fa ff ff 	mov    %rax,-0x5e0(%rbp)
   1ab0b:	48 8d 05 0e c9 00 00 	lea    0xc90e(%rip),%rax        # 27420 <g_95>
   1ab12:	48 89 85 28 fa ff ff 	mov    %rax,-0x5d8(%rbp)
   1ab19:	48 8d 05 00 c9 00 00 	lea    0xc900(%rip),%rax        # 27420 <g_95>
   1ab20:	48 89 85 30 fa ff ff 	mov    %rax,-0x5d0(%rbp)
   1ab27:	48 8d 85 f8 e9 ff ff 	lea    -0x1608(%rbp),%rax
   1ab2e:	48 89 85 38 fa ff ff 	mov    %rax,-0x5c8(%rbp)
   1ab35:	48 8d 05 e4 c8 00 00 	lea    0xc8e4(%rip),%rax        # 27420 <g_95>
   1ab3c:	48 89 85 40 fa ff ff 	mov    %rax,-0x5c0(%rbp)
   1ab43:	48 c7 85 48 fa ff ff 	movq   $0x0,-0x5b8(%rbp)
   1ab4a:	00 00 00 00 
   1ab4e:	48 8d 05 cb c8 00 00 	lea    0xc8cb(%rip),%rax        # 27420 <g_95>
   1ab55:	48 89 85 50 fa ff ff 	mov    %rax,-0x5b0(%rbp)
   1ab5c:	48 8d 05 bd c8 00 00 	lea    0xc8bd(%rip),%rax        # 27420 <g_95>
   1ab63:	48 89 85 58 fa ff ff 	mov    %rax,-0x5a8(%rbp)
   1ab6a:	48 c7 85 60 fa ff ff 	movq   $0x0,-0x5a0(%rbp)
   1ab71:	00 00 00 00 
   1ab75:	48 8d 05 a4 c8 00 00 	lea    0xc8a4(%rip),%rax        # 27420 <g_95>
   1ab7c:	48 89 85 68 fa ff ff 	mov    %rax,-0x598(%rbp)
   1ab83:	48 c7 85 70 fa ff ff 	movq   $0x0,-0x590(%rbp)
   1ab8a:	00 00 00 00 
   1ab8e:	48 8d 05 8b c8 00 00 	lea    0xc88b(%rip),%rax        # 27420 <g_95>
   1ab95:	48 89 85 78 fa ff ff 	mov    %rax,-0x588(%rbp)
   1ab9c:	48 8d 85 f8 e9 ff ff 	lea    -0x1608(%rbp),%rax
   1aba3:	48 89 85 80 fa ff ff 	mov    %rax,-0x580(%rbp)
   1abaa:	48 c7 85 88 fa ff ff 	movq   $0x0,-0x578(%rbp)
   1abb1:	00 00 00 00 
   1abb5:	48 8d 05 64 c8 00 00 	lea    0xc864(%rip),%rax        # 27420 <g_95>
   1abbc:	48 89 85 90 fa ff ff 	mov    %rax,-0x570(%rbp)
   1abc3:	48 8d 05 56 c8 00 00 	lea    0xc856(%rip),%rax        # 27420 <g_95>
   1abca:	48 89 85 98 fa ff ff 	mov    %rax,-0x568(%rbp)
   1abd1:	48 8d 05 48 c8 00 00 	lea    0xc848(%rip),%rax        # 27420 <g_95>
   1abd8:	48 89 85 a0 fa ff ff 	mov    %rax,-0x560(%rbp)
   1abdf:	48 c7 85 a8 fa ff ff 	movq   $0x0,-0x558(%rbp)
   1abe6:	00 00 00 00 
   1abea:	48 8d 85 f8 e9 ff ff 	lea    -0x1608(%rbp),%rax
   1abf1:	48 89 85 b0 fa ff ff 	mov    %rax,-0x550(%rbp)
   1abf8:	48 8d 05 21 c8 00 00 	lea    0xc821(%rip),%rax        # 27420 <g_95>
   1abff:	48 89 85 b8 fa ff ff 	mov    %rax,-0x548(%rbp)
   1ac06:	48 8d 05 13 c8 00 00 	lea    0xc813(%rip),%rax        # 27420 <g_95>
   1ac0d:	48 89 85 c0 fa ff ff 	mov    %rax,-0x540(%rbp)
   1ac14:	48 8d 05 05 c8 00 00 	lea    0xc805(%rip),%rax        # 27420 <g_95>
   1ac1b:	48 89 85 c8 fa ff ff 	mov    %rax,-0x538(%rbp)
   1ac22:	48 c7 85 d0 fa ff ff 	movq   $0x0,-0x530(%rbp)
   1ac29:	00 00 00 00 
   1ac2d:	48 8d 05 ec c7 00 00 	lea    0xc7ec(%rip),%rax        # 27420 <g_95>
   1ac34:	48 89 85 d8 fa ff ff 	mov    %rax,-0x528(%rbp)
   1ac3b:	48 8d 05 de c7 00 00 	lea    0xc7de(%rip),%rax        # 27420 <g_95>
   1ac42:	48 89 85 e0 fa ff ff 	mov    %rax,-0x520(%rbp)
   1ac49:	48 8d 05 d0 c7 00 00 	lea    0xc7d0(%rip),%rax        # 27420 <g_95>
   1ac50:	48 89 85 e8 fa ff ff 	mov    %rax,-0x518(%rbp)
   1ac57:	48 8d 05 c2 c7 00 00 	lea    0xc7c2(%rip),%rax        # 27420 <g_95>
   1ac5e:	48 89 85 f0 fa ff ff 	mov    %rax,-0x510(%rbp)
   1ac65:	48 c7 85 f8 fa ff ff 	movq   $0x0,-0x508(%rbp)
   1ac6c:	00 00 00 00 
   1ac70:	48 c7 85 00 fb ff ff 	movq   $0x0,-0x500(%rbp)
   1ac77:	00 00 00 00 
   1ac7b:	48 c7 85 08 fb ff ff 	movq   $0x0,-0x4f8(%rbp)
   1ac82:	00 00 00 00 
   1ac86:	48 8d 05 93 c7 00 00 	lea    0xc793(%rip),%rax        # 27420 <g_95>
   1ac8d:	48 89 85 10 fb ff ff 	mov    %rax,-0x4f0(%rbp)
   1ac94:	48 8d 85 f8 e9 ff ff 	lea    -0x1608(%rbp),%rax
   1ac9b:	48 89 85 18 fb ff ff 	mov    %rax,-0x4e8(%rbp)
   1aca2:	48 8d 85 f8 e9 ff ff 	lea    -0x1608(%rbp),%rax
   1aca9:	48 89 85 20 fb ff ff 	mov    %rax,-0x4e0(%rbp)
   1acb0:	48 8d 85 f8 e9 ff ff 	lea    -0x1608(%rbp),%rax
   1acb7:	48 89 85 28 fb ff ff 	mov    %rax,-0x4d8(%rbp)
   1acbe:	48 8d 85 f8 e9 ff ff 	lea    -0x1608(%rbp),%rax
   1acc5:	48 89 85 30 fb ff ff 	mov    %rax,-0x4d0(%rbp)
   1accc:	48 8d 05 4d c7 00 00 	lea    0xc74d(%rip),%rax        # 27420 <g_95>
   1acd3:	48 89 85 38 fb ff ff 	mov    %rax,-0x4c8(%rbp)
   1acda:	48 8d 05 3f c7 00 00 	lea    0xc73f(%rip),%rax        # 27420 <g_95>
   1ace1:	48 89 85 40 fb ff ff 	mov    %rax,-0x4c0(%rbp)
   1ace8:	48 8d 05 31 c7 00 00 	lea    0xc731(%rip),%rax        # 27420 <g_95>
   1acef:	48 89 85 48 fb ff ff 	mov    %rax,-0x4b8(%rbp)
   1acf6:	48 8d 85 f8 e9 ff ff 	lea    -0x1608(%rbp),%rax
   1acfd:	48 89 85 50 fb ff ff 	mov    %rax,-0x4b0(%rbp)
   1ad04:	48 8d 05 15 c7 00 00 	lea    0xc715(%rip),%rax        # 27420 <g_95>
   1ad0b:	48 89 85 58 fb ff ff 	mov    %rax,-0x4a8(%rbp)
   1ad12:	48 8d 85 f8 e9 ff ff 	lea    -0x1608(%rbp),%rax
   1ad19:	48 89 85 60 fb ff ff 	mov    %rax,-0x4a0(%rbp)
   1ad20:	48 8d 05 f9 c6 00 00 	lea    0xc6f9(%rip),%rax        # 27420 <g_95>
   1ad27:	48 89 85 68 fb ff ff 	mov    %rax,-0x498(%rbp)
   1ad2e:	48 8d 85 f8 e9 ff ff 	lea    -0x1608(%rbp),%rax
   1ad35:	48 89 85 70 fb ff ff 	mov    %rax,-0x490(%rbp)
   1ad3c:	48 8d 85 f8 e9 ff ff 	lea    -0x1608(%rbp),%rax
   1ad43:	48 89 85 78 fb ff ff 	mov    %rax,-0x488(%rbp)
   1ad4a:	48 8d 05 cf c6 00 00 	lea    0xc6cf(%rip),%rax        # 27420 <g_95>
   1ad51:	48 89 85 80 fb ff ff 	mov    %rax,-0x480(%rbp)
   1ad58:	48 8d 85 f8 e9 ff ff 	lea    -0x1608(%rbp),%rax
   1ad5f:	48 89 85 88 fb ff ff 	mov    %rax,-0x478(%rbp)
   1ad66:	48 8d 05 b3 c6 00 00 	lea    0xc6b3(%rip),%rax        # 27420 <g_95>
   1ad6d:	48 89 85 90 fb ff ff 	mov    %rax,-0x470(%rbp)
   1ad74:	48 c7 85 98 fb ff ff 	movq   $0x0,-0x468(%rbp)
   1ad7b:	00 00 00 00 
   1ad7f:	48 c7 85 a0 fb ff ff 	movq   $0x0,-0x460(%rbp)
   1ad86:	00 00 00 00 
   1ad8a:	48 c7 85 a8 fb ff ff 	movq   $0x0,-0x458(%rbp)
   1ad91:	00 00 00 00 
   1ad95:	48 8d 05 84 c6 00 00 	lea    0xc684(%rip),%rax        # 27420 <g_95>
   1ad9c:	48 89 85 b0 fb ff ff 	mov    %rax,-0x450(%rbp)
   1ada3:	48 8d 05 76 c6 00 00 	lea    0xc676(%rip),%rax        # 27420 <g_95>
   1adaa:	48 89 85 b8 fb ff ff 	mov    %rax,-0x448(%rbp)
   1adb1:	48 8d 05 68 c6 00 00 	lea    0xc668(%rip),%rax        # 27420 <g_95>
   1adb8:	48 89 85 c0 fb ff ff 	mov    %rax,-0x440(%rbp)
   1adbf:	48 8d 05 5a c6 00 00 	lea    0xc65a(%rip),%rax        # 27420 <g_95>
   1adc6:	48 89 85 c8 fb ff ff 	mov    %rax,-0x438(%rbp)
   1adcd:	48 8d 85 f8 e9 ff ff 	lea    -0x1608(%rbp),%rax
   1add4:	48 89 85 d0 fb ff ff 	mov    %rax,-0x430(%rbp)
   1addb:	48 8d 05 3e c6 00 00 	lea    0xc63e(%rip),%rax        # 27420 <g_95>
   1ade2:	48 89 85 d8 fb ff ff 	mov    %rax,-0x428(%rbp)
   1ade9:	48 8d 05 30 c6 00 00 	lea    0xc630(%rip),%rax        # 27420 <g_95>
   1adf0:	48 89 85 e0 fb ff ff 	mov    %rax,-0x420(%rbp)
   1adf7:	48 8d 05 22 c6 00 00 	lea    0xc622(%rip),%rax        # 27420 <g_95>
   1adfe:	48 89 85 e8 fb ff ff 	mov    %rax,-0x418(%rbp)
   1ae05:	48 8d 85 f8 e9 ff ff 	lea    -0x1608(%rbp),%rax
   1ae0c:	48 89 85 f0 fb ff ff 	mov    %rax,-0x410(%rbp)
   1ae13:	48 c7 85 f8 fb ff ff 	movq   $0x0,-0x408(%rbp)
   1ae1a:	00 00 00 00 
   1ae1e:	48 8d 85 f8 e9 ff ff 	lea    -0x1608(%rbp),%rax
   1ae25:	48 89 85 00 fc ff ff 	mov    %rax,-0x400(%rbp)
   1ae2c:	48 8d 05 ed c5 00 00 	lea    0xc5ed(%rip),%rax        # 27420 <g_95>
   1ae33:	48 89 85 08 fc ff ff 	mov    %rax,-0x3f8(%rbp)
   1ae3a:	48 8d 05 df c5 00 00 	lea    0xc5df(%rip),%rax        # 27420 <g_95>
   1ae41:	48 89 85 10 fc ff ff 	mov    %rax,-0x3f0(%rbp)
   1ae48:	48 c7 85 18 fc ff ff 	movq   $0x0,-0x3e8(%rbp)
   1ae4f:	00 00 00 00 
   1ae53:	48 c7 85 20 fc ff ff 	movq   $0x0,-0x3e0(%rbp)
   1ae5a:	00 00 00 00 
   1ae5e:	48 c7 85 28 fc ff ff 	movq   $0x0,-0x3d8(%rbp)
   1ae65:	00 00 00 00 
   1ae69:	48 c7 85 30 fc ff ff 	movq   $0x0,-0x3d0(%rbp)
   1ae70:	00 00 00 00 
   1ae74:	48 c7 85 38 fc ff ff 	movq   $0x0,-0x3c8(%rbp)
   1ae7b:	00 00 00 00 
   1ae7f:	48 8d 85 f8 e9 ff ff 	lea    -0x1608(%rbp),%rax
   1ae86:	48 89 85 40 fc ff ff 	mov    %rax,-0x3c0(%rbp)
   1ae8d:	48 8d 05 8c c5 00 00 	lea    0xc58c(%rip),%rax        # 27420 <g_95>
   1ae94:	48 89 85 48 fc ff ff 	mov    %rax,-0x3b8(%rbp)
   1ae9b:	48 8d 05 7e c5 00 00 	lea    0xc57e(%rip),%rax        # 27420 <g_95>
   1aea2:	48 89 85 50 fc ff ff 	mov    %rax,-0x3b0(%rbp)
   1aea9:	48 8d 05 70 c5 00 00 	lea    0xc570(%rip),%rax        # 27420 <g_95>
   1aeb0:	48 89 85 58 fc ff ff 	mov    %rax,-0x3a8(%rbp)
   1aeb7:	48 8d 05 62 c5 00 00 	lea    0xc562(%rip),%rax        # 27420 <g_95>
   1aebe:	48 89 85 60 fc ff ff 	mov    %rax,-0x3a0(%rbp)
   1aec5:	48 8d 85 f8 e9 ff ff 	lea    -0x1608(%rbp),%rax
   1aecc:	48 89 85 68 fc ff ff 	mov    %rax,-0x398(%rbp)
   1aed3:	48 c7 85 70 fc ff ff 	movq   $0x0,-0x390(%rbp)
   1aeda:	00 00 00 00 
   1aede:	48 8d 05 3b c5 00 00 	lea    0xc53b(%rip),%rax        # 27420 <g_95>
   1aee5:	48 89 85 78 fc ff ff 	mov    %rax,-0x388(%rbp)
   1aeec:	48 8d 85 f8 e9 ff ff 	lea    -0x1608(%rbp),%rax
   1aef3:	48 89 85 80 fc ff ff 	mov    %rax,-0x380(%rbp)
   1aefa:	48 8d 05 1f c5 00 00 	lea    0xc51f(%rip),%rax        # 27420 <g_95>
   1af01:	48 89 85 88 fc ff ff 	mov    %rax,-0x378(%rbp)
   1af08:	48 8d 05 11 c5 00 00 	lea    0xc511(%rip),%rax        # 27420 <g_95>
   1af0f:	48 89 85 90 fc ff ff 	mov    %rax,-0x370(%rbp)
   1af16:	48 8d 05 03 c5 00 00 	lea    0xc503(%rip),%rax        # 27420 <g_95>
   1af1d:	48 89 85 98 fc ff ff 	mov    %rax,-0x368(%rbp)
   1af24:	48 8d 05 f5 c4 00 00 	lea    0xc4f5(%rip),%rax        # 27420 <g_95>
   1af2b:	48 89 85 a0 fc ff ff 	mov    %rax,-0x360(%rbp)
   1af32:	48 c7 85 a8 fc ff ff 	movq   $0x0,-0x358(%rbp)
   1af39:	00 00 00 00 
   1af3d:	48 8d 05 dc c4 00 00 	lea    0xc4dc(%rip),%rax        # 27420 <g_95>
   1af44:	48 89 85 b0 fc ff ff 	mov    %rax,-0x350(%rbp)
   1af4b:	48 8d 85 f8 e9 ff ff 	lea    -0x1608(%rbp),%rax
   1af52:	48 89 85 b8 fc ff ff 	mov    %rax,-0x348(%rbp)
   1af59:	48 8d 05 c0 c4 00 00 	lea    0xc4c0(%rip),%rax        # 27420 <g_95>
   1af60:	48 89 85 c0 fc ff ff 	mov    %rax,-0x340(%rbp)
   1af67:	48 8d 85 f8 e9 ff ff 	lea    -0x1608(%rbp),%rax
   1af6e:	48 89 85 c8 fc ff ff 	mov    %rax,-0x338(%rbp)
   1af75:	48 8d 05 a4 c4 00 00 	lea    0xc4a4(%rip),%rax        # 27420 <g_95>
   1af7c:	48 89 85 d0 fc ff ff 	mov    %rax,-0x330(%rbp)
   1af83:	48 8d 05 96 c4 00 00 	lea    0xc496(%rip),%rax        # 27420 <g_95>
   1af8a:	48 89 85 d8 fc ff ff 	mov    %rax,-0x328(%rbp)
   1af91:	48 c7 85 e0 fc ff ff 	movq   $0x0,-0x320(%rbp)
   1af98:	00 00 00 00 
   1af9c:	48 8d 05 7d c4 00 00 	lea    0xc47d(%rip),%rax        # 27420 <g_95>
   1afa3:	48 89 85 e8 fc ff ff 	mov    %rax,-0x318(%rbp)
   1afaa:	48 8d 05 6f c4 00 00 	lea    0xc46f(%rip),%rax        # 27420 <g_95>
   1afb1:	48 89 85 f0 fc ff ff 	mov    %rax,-0x310(%rbp)
   1afb8:	48 c7 85 f8 fc ff ff 	movq   $0x0,-0x308(%rbp)
   1afbf:	00 00 00 00 
   1afc3:	48 8d 85 f8 e9 ff ff 	lea    -0x1608(%rbp),%rax
   1afca:	48 89 85 00 fd ff ff 	mov    %rax,-0x300(%rbp)
   1afd1:	48 8d 05 48 c4 00 00 	lea    0xc448(%rip),%rax        # 27420 <g_95>
   1afd8:	48 89 85 08 fd ff ff 	mov    %rax,-0x2f8(%rbp)
   1afdf:	48 8d 85 f8 e9 ff ff 	lea    -0x1608(%rbp),%rax
   1afe6:	48 89 85 10 fd ff ff 	mov    %rax,-0x2f0(%rbp)
   1afed:	48 8d 85 f8 e9 ff ff 	lea    -0x1608(%rbp),%rax
   1aff4:	48 89 85 18 fd ff ff 	mov    %rax,-0x2e8(%rbp)
   1affb:	48 8d 05 1e c4 00 00 	lea    0xc41e(%rip),%rax        # 27420 <g_95>
   1b002:	48 89 85 20 fd ff ff 	mov    %rax,-0x2e0(%rbp)
   1b009:	48 8d 85 f8 e9 ff ff 	lea    -0x1608(%rbp),%rax
   1b010:	48 89 85 28 fd ff ff 	mov    %rax,-0x2d8(%rbp)
   1b017:	48 8d 85 f8 e9 ff ff 	lea    -0x1608(%rbp),%rax
   1b01e:	48 89 85 30 fd ff ff 	mov    %rax,-0x2d0(%rbp)
   1b025:	48 8d 85 f8 e9 ff ff 	lea    -0x1608(%rbp),%rax
   1b02c:	48 89 85 38 fd ff ff 	mov    %rax,-0x2c8(%rbp)
   1b033:	48 c7 85 40 fd ff ff 	movq   $0x0,-0x2c0(%rbp)
   1b03a:	00 00 00 00 
   1b03e:	48 c7 85 48 fd ff ff 	movq   $0x0,-0x2b8(%rbp)
   1b045:	00 00 00 00 
   1b049:	48 8d 05 d0 c3 00 00 	lea    0xc3d0(%rip),%rax        # 27420 <g_95>
   1b050:	48 89 85 50 fd ff ff 	mov    %rax,-0x2b0(%rbp)
   1b057:	48 c7 85 58 fd ff ff 	movq   $0x0,-0x2a8(%rbp)
   1b05e:	00 00 00 00 
   1b062:	48 c7 85 60 fd ff ff 	movq   $0x0,-0x2a0(%rbp)
   1b069:	00 00 00 00 
   1b06d:	48 8d 85 f8 e9 ff ff 	lea    -0x1608(%rbp),%rax
   1b074:	48 89 85 68 fd ff ff 	mov    %rax,-0x298(%rbp)
   1b07b:	48 8d 85 f8 e9 ff ff 	lea    -0x1608(%rbp),%rax
   1b082:	48 89 85 70 fd ff ff 	mov    %rax,-0x290(%rbp)
   1b089:	48 8d 05 90 c3 00 00 	lea    0xc390(%rip),%rax        # 27420 <g_95>
   1b090:	48 89 85 78 fd ff ff 	mov    %rax,-0x288(%rbp)
   1b097:	48 8d 05 82 c3 00 00 	lea    0xc382(%rip),%rax        # 27420 <g_95>
   1b09e:	48 89 85 80 fd ff ff 	mov    %rax,-0x280(%rbp)
   1b0a5:	48 8d 05 74 c3 00 00 	lea    0xc374(%rip),%rax        # 27420 <g_95>
   1b0ac:	48 89 85 88 fd ff ff 	mov    %rax,-0x278(%rbp)
   1b0b3:	48 8d 05 66 c3 00 00 	lea    0xc366(%rip),%rax        # 27420 <g_95>
   1b0ba:	48 89 85 90 fd ff ff 	mov    %rax,-0x270(%rbp)
   1b0c1:	48 8d 85 f8 e9 ff ff 	lea    -0x1608(%rbp),%rax
   1b0c8:	48 89 85 98 fd ff ff 	mov    %rax,-0x268(%rbp)
   1b0cf:	48 8d 85 f8 e9 ff ff 	lea    -0x1608(%rbp),%rax
   1b0d6:	48 89 85 a0 fd ff ff 	mov    %rax,-0x260(%rbp)
   1b0dd:	48 8d 05 3c c3 00 00 	lea    0xc33c(%rip),%rax        # 27420 <g_95>
   1b0e4:	48 89 85 a8 fd ff ff 	mov    %rax,-0x258(%rbp)
   1b0eb:	48 8d 05 2e c3 00 00 	lea    0xc32e(%rip),%rax        # 27420 <g_95>
   1b0f2:	48 89 85 b0 fd ff ff 	mov    %rax,-0x250(%rbp)
   1b0f9:	48 8d 05 20 c3 00 00 	lea    0xc320(%rip),%rax        # 27420 <g_95>
   1b100:	48 89 85 b8 fd ff ff 	mov    %rax,-0x248(%rbp)
   1b107:	48 8d 05 12 c3 00 00 	lea    0xc312(%rip),%rax        # 27420 <g_95>
   1b10e:	48 89 85 c0 fd ff ff 	mov    %rax,-0x240(%rbp)
   1b115:	48 8d 05 04 c3 00 00 	lea    0xc304(%rip),%rax        # 27420 <g_95>
   1b11c:	48 89 85 c8 fd ff ff 	mov    %rax,-0x238(%rbp)
   1b123:	48 8d 05 f6 c2 00 00 	lea    0xc2f6(%rip),%rax        # 27420 <g_95>
   1b12a:	48 89 85 d0 fd ff ff 	mov    %rax,-0x230(%rbp)
   1b131:	48 8d 85 f8 e9 ff ff 	lea    -0x1608(%rbp),%rax
   1b138:	48 89 85 d8 fd ff ff 	mov    %rax,-0x228(%rbp)
   1b13f:	48 8d 05 da c2 00 00 	lea    0xc2da(%rip),%rax        # 27420 <g_95>
   1b146:	48 89 85 e0 fd ff ff 	mov    %rax,-0x220(%rbp)
   1b14d:	48 c7 85 e8 fd ff ff 	movq   $0x0,-0x218(%rbp)
   1b154:	00 00 00 00 
   1b158:	48 8d 85 f8 e9 ff ff 	lea    -0x1608(%rbp),%rax
   1b15f:	48 89 85 f0 fd ff ff 	mov    %rax,-0x210(%rbp)
   1b166:	48 8d 05 b3 c2 00 00 	lea    0xc2b3(%rip),%rax        # 27420 <g_95>
   1b16d:	48 89 85 f8 fd ff ff 	mov    %rax,-0x208(%rbp)
   1b174:	48 8d 85 f8 e9 ff ff 	lea    -0x1608(%rbp),%rax
   1b17b:	48 89 85 00 fe ff ff 	mov    %rax,-0x200(%rbp)
   1b182:	48 8d 05 97 c2 00 00 	lea    0xc297(%rip),%rax        # 27420 <g_95>
   1b189:	48 89 85 08 fe ff ff 	mov    %rax,-0x1f8(%rbp)
   1b190:	48 8d 05 89 c2 00 00 	lea    0xc289(%rip),%rax        # 27420 <g_95>
   1b197:	48 89 85 10 fe ff ff 	mov    %rax,-0x1f0(%rbp)
   1b19e:	48 c7 85 18 fe ff ff 	movq   $0x0,-0x1e8(%rbp)
   1b1a5:	00 00 00 00 
   1b1a9:	48 8d 05 70 c2 00 00 	lea    0xc270(%rip),%rax        # 27420 <g_95>
   1b1b0:	48 89 85 20 fe ff ff 	mov    %rax,-0x1e0(%rbp)
   1b1b7:	48 8d 05 62 c2 00 00 	lea    0xc262(%rip),%rax        # 27420 <g_95>
   1b1be:	48 89 85 28 fe ff ff 	mov    %rax,-0x1d8(%rbp)
   1b1c5:	48 8d 05 54 c2 00 00 	lea    0xc254(%rip),%rax        # 27420 <g_95>
   1b1cc:	48 89 85 30 fe ff ff 	mov    %rax,-0x1d0(%rbp)
   1b1d3:	48 8d 85 f8 e9 ff ff 	lea    -0x1608(%rbp),%rax
   1b1da:	48 89 85 38 fe ff ff 	mov    %rax,-0x1c8(%rbp)
   1b1e1:	48 8d 05 38 c2 00 00 	lea    0xc238(%rip),%rax        # 27420 <g_95>
   1b1e8:	48 89 85 40 fe ff ff 	mov    %rax,-0x1c0(%rbp)
   1b1ef:	48 8d 05 2a c2 00 00 	lea    0xc22a(%rip),%rax        # 27420 <g_95>
   1b1f6:	48 89 85 48 fe ff ff 	mov    %rax,-0x1b8(%rbp)
   1b1fd:	48 8d 85 f8 e9 ff ff 	lea    -0x1608(%rbp),%rax
   1b204:	48 89 85 50 fe ff ff 	mov    %rax,-0x1b0(%rbp)
   1b20b:	48 c7 85 58 fe ff ff 	movq   $0x0,-0x1a8(%rbp)
   1b212:	00 00 00 00 
   1b216:	48 8d 05 03 c2 00 00 	lea    0xc203(%rip),%rax        # 27420 <g_95>
   1b21d:	48 89 85 60 fe ff ff 	mov    %rax,-0x1a0(%rbp)
   1b224:	48 c7 85 68 fe ff ff 	movq   $0x0,-0x198(%rbp)
   1b22b:	00 00 00 00 
   1b22f:	48 8d 05 ea c1 00 00 	lea    0xc1ea(%rip),%rax        # 27420 <g_95>
   1b236:	48 89 85 70 fe ff ff 	mov    %rax,-0x190(%rbp)
   1b23d:	48 8d 05 dc c1 00 00 	lea    0xc1dc(%rip),%rax        # 27420 <g_95>
   1b244:	48 89 85 78 fe ff ff 	mov    %rax,-0x188(%rbp)
   1b24b:	48 8d 05 ce c1 00 00 	lea    0xc1ce(%rip),%rax        # 27420 <g_95>
   1b252:	48 89 85 80 fe ff ff 	mov    %rax,-0x180(%rbp)
   1b259:	48 8d 05 c0 c1 00 00 	lea    0xc1c0(%rip),%rax        # 27420 <g_95>
   1b260:	48 89 85 88 fe ff ff 	mov    %rax,-0x178(%rbp)
   1b267:	48 8d 05 b2 c1 00 00 	lea    0xc1b2(%rip),%rax        # 27420 <g_95>
   1b26e:	48 89 85 90 fe ff ff 	mov    %rax,-0x170(%rbp)
   1b275:	48 8d 05 a4 c1 00 00 	lea    0xc1a4(%rip),%rax        # 27420 <g_95>
   1b27c:	48 89 85 98 fe ff ff 	mov    %rax,-0x168(%rbp)
   1b283:	48 8d 05 96 c1 00 00 	lea    0xc196(%rip),%rax        # 27420 <g_95>
   1b28a:	48 89 85 a0 fe ff ff 	mov    %rax,-0x160(%rbp)
   1b291:	48 8d 05 88 c1 00 00 	lea    0xc188(%rip),%rax        # 27420 <g_95>
   1b298:	48 89 85 a8 fe ff ff 	mov    %rax,-0x158(%rbp)
   1b29f:	48 8d 85 f8 e9 ff ff 	lea    -0x1608(%rbp),%rax
   1b2a6:	48 89 85 b0 fe ff ff 	mov    %rax,-0x150(%rbp)
   1b2ad:	48 8d 85 f8 e9 ff ff 	lea    -0x1608(%rbp),%rax
   1b2b4:	48 89 85 b8 fe ff ff 	mov    %rax,-0x148(%rbp)
   1b2bb:	48 8d 05 5e c1 00 00 	lea    0xc15e(%rip),%rax        # 27420 <g_95>
   1b2c2:	48 89 85 c0 fe ff ff 	mov    %rax,-0x140(%rbp)
   1b2c9:	48 8d 05 50 c1 00 00 	lea    0xc150(%rip),%rax        # 27420 <g_95>
   1b2d0:	48 89 85 c8 fe ff ff 	mov    %rax,-0x138(%rbp)
   1b2d7:	48 8d 05 42 c1 00 00 	lea    0xc142(%rip),%rax        # 27420 <g_95>
   1b2de:	48 89 85 d0 fe ff ff 	mov    %rax,-0x130(%rbp)
   1b2e5:	48 8d 85 f8 e9 ff ff 	lea    -0x1608(%rbp),%rax
   1b2ec:	48 89 85 d8 fe ff ff 	mov    %rax,-0x128(%rbp)
   1b2f3:	48 c7 85 e0 fe ff ff 	movq   $0x0,-0x120(%rbp)
   1b2fa:	00 00 00 00 
   1b2fe:	48 8d 85 f8 e9 ff ff 	lea    -0x1608(%rbp),%rax
   1b305:	48 89 85 e8 fe ff ff 	mov    %rax,-0x118(%rbp)
   1b30c:	48 8d 05 0d c1 00 00 	lea    0xc10d(%rip),%rax        # 27420 <g_95>
   1b313:	48 89 85 f0 fe ff ff 	mov    %rax,-0x110(%rbp)
   1b31a:	48 c7 85 f8 fe ff ff 	movq   $0x0,-0x108(%rbp)
   1b321:	00 00 00 00 
   1b325:	48 8d 85 f8 e9 ff ff 	lea    -0x1608(%rbp),%rax
   1b32c:	48 89 85 00 ff ff ff 	mov    %rax,-0x100(%rbp)
   1b333:	48 8d 05 e6 c0 00 00 	lea    0xc0e6(%rip),%rax        # 27420 <g_95>
   1b33a:	48 89 85 08 ff ff ff 	mov    %rax,-0xf8(%rbp)
   1b341:	48 c7 85 10 ff ff ff 	movq   $0x0,-0xf0(%rbp)
   1b348:	00 00 00 00 
   1b34c:	48 8d 05 cd c0 00 00 	lea    0xc0cd(%rip),%rax        # 27420 <g_95>
   1b353:	48 89 85 18 ff ff ff 	mov    %rax,-0xe8(%rbp)
   1b35a:	48 c7 85 20 ff ff ff 	movq   $0x0,-0xe0(%rbp)
   1b361:	00 00 00 00 
   1b365:	48 8d 05 b4 c0 00 00 	lea    0xc0b4(%rip),%rax        # 27420 <g_95>
   1b36c:	48 89 85 28 ff ff ff 	mov    %rax,-0xd8(%rbp)
   1b373:	48 8d 05 a6 c0 00 00 	lea    0xc0a6(%rip),%rax        # 27420 <g_95>
   1b37a:	48 89 85 30 ff ff ff 	mov    %rax,-0xd0(%rbp)
   1b381:	48 c7 85 38 ff ff ff 	movq   $0x0,-0xc8(%rbp)
   1b388:	00 00 00 00 
   1b38c:	48 8d 85 f8 e9 ff ff 	lea    -0x1608(%rbp),%rax
   1b393:	48 89 85 40 ff ff ff 	mov    %rax,-0xc0(%rbp)
   1b39a:	48 8d 05 7f c0 00 00 	lea    0xc07f(%rip),%rax        # 27420 <g_95>
   1b3a1:	48 89 85 48 ff ff ff 	mov    %rax,-0xb8(%rbp)
   1b3a8:	48 8d 85 f8 e9 ff ff 	lea    -0x1608(%rbp),%rax
   1b3af:	48 89 85 50 ff ff ff 	mov    %rax,-0xb0(%rbp)
   1b3b6:	48 8d 85 f8 e9 ff ff 	lea    -0x1608(%rbp),%rax
   1b3bd:	48 89 85 58 ff ff ff 	mov    %rax,-0xa8(%rbp)
   1b3c4:	48 8d 05 55 c0 00 00 	lea    0xc055(%rip),%rax        # 27420 <g_95>
   1b3cb:	48 89 85 60 ff ff ff 	mov    %rax,-0xa0(%rbp)
   1b3d2:	48 8d 05 47 c0 00 00 	lea    0xc047(%rip),%rax        # 27420 <g_95>
   1b3d9:	48 89 85 68 ff ff ff 	mov    %rax,-0x98(%rbp)
   1b3e0:	48 8d 05 39 c0 00 00 	lea    0xc039(%rip),%rax        # 27420 <g_95>
   1b3e7:	48 89 85 70 ff ff ff 	mov    %rax,-0x90(%rbp)
   1b3ee:	48 8d 05 2b c0 00 00 	lea    0xc02b(%rip),%rax        # 27420 <g_95>
   1b3f5:	48 89 85 78 ff ff ff 	mov    %rax,-0x88(%rbp)
   1b3fc:	48 8d 05 1d c0 00 00 	lea    0xc01d(%rip),%rax        # 27420 <g_95>
   1b403:	48 89 45 80          	mov    %rax,-0x80(%rbp)
   1b407:	48 8d 05 12 c0 00 00 	lea    0xc012(%rip),%rax        # 27420 <g_95>
   1b40e:	48 89 45 88          	mov    %rax,-0x78(%rbp)
   1b412:	48 c7 45 90 00 00 00 	movq   $0x0,-0x70(%rbp)
   1b419:	00 
   1b41a:	48 8d 05 ff bf 00 00 	lea    0xbfff(%rip),%rax        # 27420 <g_95>
   1b421:	48 89 45 98          	mov    %rax,-0x68(%rbp)
   1b425:	48 8d 85 f8 e9 ff ff 	lea    -0x1608(%rbp),%rax
   1b42c:	48 89 45 a0          	mov    %rax,-0x60(%rbp)
   1b430:	48 8d 05 e9 bf 00 00 	lea    0xbfe9(%rip),%rax        # 27420 <g_95>
   1b437:	48 89 45 a8          	mov    %rax,-0x58(%rbp)
   1b43b:	48 8d 85 f8 e9 ff ff 	lea    -0x1608(%rbp),%rax
   1b442:	48 89 45 b0          	mov    %rax,-0x50(%rbp)
   1b446:	48 8d 85 f8 e9 ff ff 	lea    -0x1608(%rbp),%rax
   1b44d:	48 89 45 b8          	mov    %rax,-0x48(%rbp)
   1b451:	48 8d 85 f8 e9 ff ff 	lea    -0x1608(%rbp),%rax
   1b458:	48 89 45 c0          	mov    %rax,-0x40(%rbp)
   1b45c:	48 8d 85 f8 e9 ff ff 	lea    -0x1608(%rbp),%rax
   1b463:	48 89 45 c8          	mov    %rax,-0x38(%rbp)
   1b467:	c7 85 e0 e9 ff ff 33 	movl   $0x28faee33,-0x1620(%rbp)
   1b46e:	ee fa 28 
   1b471:	48 c7 85 88 ea ff ff 	movq   $0x0,-0x1578(%rbp)
   1b478:	00 00 00 00 
   1b47c:	48 8d 05 55 cf 00 00 	lea    0xcf55(%rip),%rax        # 283d8 <g_247>
   1b483:	48 89 85 90 ea ff ff 	mov    %rax,-0x1570(%rbp)
   1b48a:	66 c7 85 a2 e9 ff ff 	movw   $0x1,-0x165e(%rbp)
   1b491:	01 00 
   1b493:	c7 85 e4 e9 ff ff 07 	movl   $0x7,-0x161c(%rbp)
   1b49a:	00 00 00 
   1b49d:	48 c7 85 50 eb ff ff 	movq   $0x0,-0x14b0(%rbp)
   1b4a4:	00 00 00 00 
   1b4a8:	48 c7 85 58 eb ff ff 	movq   $0x0,-0x14a8(%rbp)
   1b4af:	00 00 00 00 
   1b4b3:	48 c7 85 60 eb ff ff 	movq   $0x0,-0x14a0(%rbp)
   1b4ba:	00 00 00 00 
   1b4be:	48 c7 85 68 eb ff ff 	movq   $0x0,-0x1498(%rbp)
   1b4c5:	00 00 00 00 
   1b4c9:	48 c7 85 70 eb ff ff 	movq   $0x0,-0x1490(%rbp)
   1b4d0:	00 00 00 00 
   1b4d4:	48 8d 85 70 f0 ff ff 	lea    -0xf90(%rbp),%rax
   1b4db:	48 8d 15 be b7 00 00 	lea    0xb7be(%rip),%rdx        # 26ca0 <g_4082+0x31a0>
   1b4e2:	b9 f0 00 00 00       	mov    $0xf0,%ecx
   1b4e7:	48 89 c7             	mov    %rax,%rdi
   1b4ea:	48 89 d6             	mov    %rdx,%rsi
   1b4ed:	f3 48 a5             	rep movsq %ds:(%rsi),%es:(%rdi)
   1b4f0:	c7 85 a8 e9 ff ff 04 	movl   $0x4,-0x1658(%rbp)
   1b4f7:	00 00 00 
   1b4fa:	e9 5c 02 00 00       	jmpq   1b75b <func_64+0x173d>
   1b4ff:	c6 85 a1 e9 ff ff 02 	movb   $0x2,-0x165f(%rbp)
   1b506:	c7 85 f4 e9 ff ff b4 	movl   $0xc352afb4,-0x160c(%rbp)
   1b50d:	af 52 c3 
   1b510:	c7 85 c0 e9 ff ff 00 	movl   $0x0,-0x1640(%rbp)
   1b517:	00 00 00 
   1b51a:	eb 1a                	jmp    1b536 <func_64+0x1518>
   1b51c:	8b 85 c0 e9 ff ff    	mov    -0x1640(%rbp),%eax
   1b522:	48 98                	cltq   
   1b524:	c7 84 85 10 eb ff ff 	movl   $0x175c34aa,-0x14f0(%rbp,%rax,4)
   1b52b:	aa 34 5c 17 
   1b52f:	83 85 c0 e9 ff ff 01 	addl   $0x1,-0x1640(%rbp)
   1b536:	83 bd c0 e9 ff ff 00 	cmpl   $0x0,-0x1640(%rbp)
   1b53d:	7e dd                	jle    1b51c <func_64+0x14fe>
   1b53f:	c7 85 ac e9 ff ff 04 	movl   $0x4,-0x1654(%rbp)
   1b546:	00 00 00 
   1b549:	e9 92 01 00 00       	jmpq   1b6e0 <func_64+0x16c2>
   1b54e:	c6 85 30 ec ff ff ff 	movb   $0xff,-0x13d0(%rbp)
   1b555:	c6 85 31 ec ff ff dd 	movb   $0xdd,-0x13cf(%rbp)
   1b55c:	c6 85 32 ec ff ff 03 	movb   $0x3,-0x13ce(%rbp)
   1b563:	c6 85 33 ec ff ff dd 	movb   $0xdd,-0x13cd(%rbp)
   1b56a:	c6 85 34 ec ff ff ff 	movb   $0xff,-0x13cc(%rbp)
   1b571:	c6 85 35 ec ff ff 00 	movb   $0x0,-0x13cb(%rbp)
   1b578:	c6 85 36 ec ff ff ff 	movb   $0xff,-0x13ca(%rbp)
   1b57f:	c6 85 37 ec ff ff dd 	movb   $0xdd,-0x13c9(%rbp)
   1b586:	c6 85 38 ec ff ff 03 	movb   $0x3,-0x13c8(%rbp)
   1b58d:	c6 85 39 ec ff ff dd 	movb   $0xdd,-0x13c7(%rbp)
   1b594:	c6 85 3a ec ff ff ff 	movb   $0xff,-0x13c6(%rbp)
   1b59b:	c6 85 3b ec ff ff 00 	movb   $0x0,-0x13c5(%rbp)
   1b5a2:	c6 85 3c ec ff ff ff 	movb   $0xff,-0x13c4(%rbp)
   1b5a9:	c6 85 3d ec ff ff dd 	movb   $0xdd,-0x13c3(%rbp)
   1b5b0:	c6 85 3e ec ff ff 03 	movb   $0x3,-0x13c2(%rbp)
   1b5b7:	c6 85 3f ec ff ff dd 	movb   $0xdd,-0x13c1(%rbp)
   1b5be:	c6 85 40 ec ff ff ff 	movb   $0xff,-0x13c0(%rbp)
   1b5c5:	c6 85 41 ec ff ff 00 	movb   $0x0,-0x13bf(%rbp)
   1b5cc:	c6 85 42 ec ff ff ff 	movb   $0xff,-0x13be(%rbp)
   1b5d3:	c6 85 43 ec ff ff dd 	movb   $0xdd,-0x13bd(%rbp)
   1b5da:	c6 85 44 ec ff ff 03 	movb   $0x3,-0x13bc(%rbp)
   1b5e1:	c6 85 45 ec ff ff dd 	movb   $0xdd,-0x13bb(%rbp)
   1b5e8:	c6 85 46 ec ff ff ff 	movb   $0xff,-0x13ba(%rbp)
   1b5ef:	c6 85 47 ec ff ff 00 	movb   $0x0,-0x13b9(%rbp)
   1b5f6:	48 c7 85 00 eb ff ff 	movq   $0x0,-0x1500(%rbp)
   1b5fd:	00 00 00 00 
   1b601:	48 8d 05 9a 7a 00 00 	lea    0x7a9a(%rip),%rax        # 230a2 <g_111>
   1b608:	48 89 85 08 eb ff ff 	mov    %rax,-0x14f8(%rbp)
   1b60f:	66 c7 05 88 7a 00 00 	movw   $0x0,0x7a88(%rip)        # 230a0 <g_104>
   1b616:	00 00 
   1b618:	90                   	nop
   1b619:	0f b7 05 80 7a 00 00 	movzwl 0x7a80(%rip),%eax        # 230a0 <g_104>
   1b620:	66 83 f8 04          	cmp    $0x4,%ax
   1b624:	77 0c                	ja     1b632 <func_64+0x1614>
   1b626:	48 8b 85 f8 e9 ff ff 	mov    -0x1608(%rbp),%rax
   1b62d:	e9 bd 07 00 00       	jmpq   1bdef <func_64+0x1dd1>
   1b632:	48 8b 85 08 eb ff ff 	mov    -0x14f8(%rbp),%rax
   1b639:	0f b6 00             	movzbl (%rax),%eax
   1b63c:	8d 50 01             	lea    0x1(%rax),%edx
   1b63f:	48 8b 85 08 eb ff ff 	mov    -0x14f8(%rbp),%rax
   1b646:	88 10                	mov    %dl,(%rax)
   1b648:	48 8b 85 08 eb ff ff 	mov    -0x14f8(%rbp),%rax
   1b64f:	0f b6 00             	movzbl (%rax),%eax
   1b652:	0f b6 c0             	movzbl %al,%eax
   1b655:	ba fb ff ff ff       	mov    $0xfffffffb,%edx
   1b65a:	39 d0                	cmp    %edx,%eax
   1b65c:	74 71                	je     1b6cf <func_64+0x16b1>
   1b65e:	8b 05 c4 79 00 00    	mov    0x79c4(%rip),%eax        # 23028 <g_7>
   1b664:	0f b6 d8             	movzbl %al,%ebx
   1b667:	48 be 4b 51 51 e2 65 	movabs $0x12790765e251514b,%rsi
   1b66e:	07 79 12 
   1b671:	48 bf a1 15 d3 3c ac 	movabs $0x1f7b4fac3cd315a1,%rdi
   1b678:	4f 7b 1f 
   1b67b:	e8 00 0a ff ff       	callq  c080 <safe_mod_func_uint64_t_u_u>
   1b680:	48 85 c0             	test   %rax,%rax
   1b683:	74 11                	je     1b696 <func_64+0x1678>
   1b685:	8b 05 d9 79 00 00    	mov    0x79d9(%rip),%eax        # 23064 <g_22+0x24>
   1b68b:	85 c0                	test   %eax,%eax
   1b68d:	74 07                	je     1b696 <func_64+0x1678>
   1b68f:	ba 01 00 00 00       	mov    $0x1,%edx
   1b694:	eb 05                	jmp    1b69b <func_64+0x167d>
   1b696:	ba 00 00 00 00       	mov    $0x0,%edx
   1b69b:	8b 05 f7 79 00 00    	mov    0x79f7(%rip),%eax        # 23098 <g_78+0x18>
   1b6a1:	39 c2                	cmp    %eax,%edx
   1b6a3:	7c 10                	jl     1b6b5 <func_64+0x1697>
   1b6a5:	80 bd a1 e9 ff ff 00 	cmpb   $0x0,-0x165f(%rbp)
   1b6ac:	74 07                	je     1b6b5 <func_64+0x1697>
   1b6ae:	b8 01 00 00 00       	mov    $0x1,%eax
   1b6b3:	eb 05                	jmp    1b6ba <func_64+0x169c>
   1b6b5:	b8 00 00 00 00       	mov    $0x0,%eax
   1b6ba:	3d 75 f9 00 00       	cmp    $0xf975,%eax
   1b6bf:	0f 9e c0             	setle  %al
   1b6c2:	0f b6 c0             	movzbl %al,%eax
   1b6c5:	89 de                	mov    %ebx,%esi
   1b6c7:	89 c7                	mov    %eax,%edi
   1b6c9:	e8 aa 04 ff ff       	callq  bb78 <safe_sub_func_uint8_t_u_u>
   1b6ce:	90                   	nop
   1b6cf:	c7 05 c3 79 00 00 01 	movl   $0x1,0x79c3(%rip)        # 2309c <g_78+0x1c>
   1b6d6:	00 00 00 
   1b6d9:	83 ad ac e9 ff ff 01 	subl   $0x1,-0x1654(%rbp)
   1b6e0:	83 bd ac e9 ff ff 00 	cmpl   $0x0,-0x1654(%rbp)
   1b6e7:	0f 89 61 fe ff ff    	jns    1b54e <func_64+0x1530>
   1b6ed:	48 8b 85 08 ea ff ff 	mov    -0x15f8(%rbp),%rax
   1b6f4:	8b 08                	mov    (%rax),%ecx
   1b6f6:	8b 05 2c 79 00 00    	mov    0x792c(%rip),%eax        # 23028 <g_7>
   1b6fc:	39 85 d8 e9 ff ff    	cmp    %eax,-0x1628(%rbp)
   1b702:	0f 95 c0             	setne  %al
   1b705:	0f b6 d0             	movzbl %al,%edx
   1b708:	48 8b 85 08 ea ff ff 	mov    -0x15f8(%rbp),%rax
   1b70f:	31 ca                	xor    %ecx,%edx
   1b711:	89 10                	mov    %edx,(%rax)
   1b713:	c7 85 ac e9 ff ff 00 	movl   $0x0,-0x1654(%rbp)
   1b71a:	00 00 00 
   1b71d:	eb 24                	jmp    1b743 <func_64+0x1725>
   1b71f:	48 c7 85 f8 ea ff ff 	movq   $0x0,-0x1508(%rbp)
   1b726:	00 00 00 00 
   1b72a:	48 8b 85 00 ec ff ff 	mov    -0x1400(%rbp),%rax
   1b731:	48 83 e8 01          	sub    $0x1,%rax
   1b735:	48 89 85 00 ec ff ff 	mov    %rax,-0x1400(%rbp)
   1b73c:	83 85 ac e9 ff ff 01 	addl   $0x1,-0x1654(%rbp)
   1b743:	83 bd ac e9 ff ff 04 	cmpl   $0x4,-0x1654(%rbp)
   1b74a:	7e d3                	jle    1b71f <func_64+0x1701>
   1b74c:	8b 85 a8 e9 ff ff    	mov    -0x1658(%rbp),%eax
   1b752:	83 e8 01             	sub    $0x1,%eax
   1b755:	89 85 a8 e9 ff ff    	mov    %eax,-0x1658(%rbp)
   1b75b:	8b 85 a8 e9 ff ff    	mov    -0x1658(%rbp),%eax
   1b761:	85 c0                	test   %eax,%eax
   1b763:	0f 89 96 fd ff ff    	jns    1b4ff <func_64+0x14e1>
   1b769:	c7 85 ac e9 ff ff 04 	movl   $0x4,-0x1654(%rbp)
   1b770:	00 00 00 
   1b773:	e9 5a 06 00 00       	jmpq   1bdd2 <func_64+0x1db4>
   1b778:	c6 85 9f e9 ff ff 9f 	movb   $0x9f,-0x1661(%rbp)
   1b77f:	48 c7 85 98 ea ff ff 	movq   $0xfffffffffffffffe,-0x1568(%rbp)
   1b786:	fe ff ff ff 
   1b78a:	c7 85 e8 e9 ff ff 01 	movl   $0x1,-0x1618(%rbp)
   1b791:	00 00 00 
   1b794:	c7 85 ec e9 ff ff 3a 	movl   $0x8b7b8e3a,-0x1614(%rbp)
   1b79b:	8e 7b 8b 
   1b79e:	c7 85 10 eb ff ff 01 	movl   $0x1,-0x14f0(%rbp)
   1b7a5:	00 00 00 
   1b7a8:	c7 85 14 eb ff ff 01 	movl   $0x1,-0x14ec(%rbp)
   1b7af:	00 00 00 
   1b7b2:	c7 85 18 eb ff ff 01 	movl   $0x1,-0x14e8(%rbp)
   1b7b9:	00 00 00 
   1b7bc:	c7 85 1c eb ff ff 01 	movl   $0x1,-0x14e4(%rbp)
   1b7c3:	00 00 00 
   1b7c6:	c7 85 20 eb ff ff 01 	movl   $0x1,-0x14e0(%rbp)
   1b7cd:	00 00 00 
   1b7d0:	c7 85 24 eb ff ff 01 	movl   $0x1,-0x14dc(%rbp)
   1b7d7:	00 00 00 
   1b7da:	c6 85 a0 e9 ff ff 40 	movb   $0x40,-0x1660(%rbp)
   1b7e1:	48 b8 81 31 27 11 33 	movabs $0x3841933311273181,%rax
   1b7e8:	93 41 38 
   1b7eb:	48 89 85 a0 ea ff ff 	mov    %rax,-0x1560(%rbp)
   1b7f2:	48 8d 85 18 ea ff ff 	lea    -0x15e8(%rbp),%rax
   1b7f9:	48 89 85 a8 ea ff ff 	mov    %rax,-0x1558(%rbp)
   1b800:	48 8d 85 a4 e9 ff ff 	lea    -0x165c(%rbp),%rax
   1b807:	48 89 85 b0 ea ff ff 	mov    %rax,-0x1550(%rbp)
   1b80e:	be 06 00 00 00       	mov    $0x6,%esi
   1b813:	bf 60 00 00 00       	mov    $0x60,%edi
   1b818:	e8 2f 04 ff ff       	callq  bc4c <safe_lshift_func_uint8_t_u_u>
   1b81d:	0f b7 9d 7c e9 ff ff 	movzwl -0x1684(%rbp),%ebx
   1b824:	8b 05 2e 78 00 00    	mov    0x782e(%rip),%eax        # 23058 <g_22+0x18>
   1b82a:	89 c1                	mov    %eax,%ecx
   1b82c:	8b 15 1e 78 00 00    	mov    0x781e(%rip),%edx        # 23050 <g_22+0x10>
   1b832:	0f b6 05 69 78 00 00 	movzbl 0x7869(%rip),%eax        # 230a2 <g_111>
   1b839:	0f b6 c0             	movzbl %al,%eax
   1b83c:	39 c2                	cmp    %eax,%edx
   1b83e:	0f 9c c0             	setl   %al
   1b841:	0f b6 d0             	movzbl %al,%edx
   1b844:	48 8b 85 20 ec ff ff 	mov    -0x13e0(%rbp),%rax
   1b84b:	48 21 c2             	and    %rax,%rdx
   1b84e:	8b 05 48 78 00 00    	mov    0x7848(%rip),%eax        # 2309c <g_78+0x1c>
   1b854:	48 98                	cltq   
   1b856:	48 09 c2             	or     %rax,%rdx
   1b859:	0f b6 85 84 e9 ff ff 	movzbl -0x167c(%rbp),%eax
   1b860:	48 39 c2             	cmp    %rax,%rdx
   1b863:	0f 97 c0             	seta   %al
   1b866:	0f b6 c0             	movzbl %al,%eax
   1b869:	21 c8                	and    %ecx,%eax
   1b86b:	0f b7 d0             	movzwl %ax,%edx
   1b86e:	8b 85 d8 e9 ff ff    	mov    -0x1628(%rbp),%eax
   1b874:	0f b7 c0             	movzwl %ax,%eax
   1b877:	89 d6                	mov    %edx,%esi
   1b879:	89 c7                	mov    %eax,%edi
   1b87b:	e8 9f 04 ff ff       	callq  bd1f <safe_sub_func_uint16_t_u_u>
   1b880:	44 0f b7 e0          	movzwl %ax,%r12d
   1b884:	8b 05 d6 77 00 00    	mov    0x77d6(%rip),%eax        # 23060 <g_22+0x20>
   1b88a:	0f b6 c0             	movzbl %al,%eax
   1b88d:	be 01 00 00 00       	mov    $0x1,%esi
   1b892:	89 c7                	mov    %eax,%edi
   1b894:	e8 42 03 ff ff       	callq  bbdb <safe_div_func_uint8_t_u_u>
   1b899:	0f b6 c0             	movzbl %al,%eax
   1b89c:	44 89 e6             	mov    %r12d,%esi
   1b89f:	89 c7                	mov    %eax,%edi
   1b8a1:	e8 79 04 ff ff       	callq  bd1f <safe_sub_func_uint16_t_u_u>
   1b8a6:	0f b6 85 9f e9 ff ff 	movzbl -0x1661(%rbp),%eax
   1b8ad:	be 05 00 00 00       	mov    $0x5,%esi
   1b8b2:	89 c7                	mov    %eax,%edi
   1b8b4:	e8 c1 05 ff ff       	callq  be7a <safe_rshift_func_uint16_t_u_u>
   1b8b9:	0f b7 d0             	movzwl %ax,%edx
   1b8bc:	8b 05 66 77 00 00    	mov    0x7766(%rip),%eax        # 23028 <g_7>
   1b8c2:	39 c2                	cmp    %eax,%edx
   1b8c4:	0f 94 c0             	sete   %al
   1b8c7:	0f b6 c0             	movzbl %al,%eax
   1b8ca:	89 de                	mov    %ebx,%esi
   1b8cc:	89 c7                	mov    %eax,%edi
   1b8ce:	e8 bf fb fe ff       	callq  b492 <safe_lshift_func_int16_t_s_s>
   1b8d3:	48 0f bf c0          	movswq %ax,%rax
   1b8d7:	48 89 c7             	mov    %rax,%rdi
   1b8da:	e8 3a 07 ff ff       	callq  c019 <safe_unary_minus_func_uint64_t_u>
   1b8df:	48 89 c2             	mov    %rax,%rdx
   1b8e2:	48 8b 85 18 ea ff ff 	mov    -0x15e8(%rbp),%rax
   1b8e9:	88 10                	mov    %dl,(%rax)
   1b8eb:	48 8b 85 88 e9 ff ff 	mov    -0x1678(%rbp),%rax
   1b8f2:	48 85 c0             	test   %rax,%rax
   1b8f5:	0f 84 1f 04 00 00    	je     1bd1a <func_64+0x1cfc>
   1b8fb:	48 c7 85 c8 ea ff ff 	movq   $0x0,-0x1538(%rbp)
   1b902:	00 00 00 00 
   1b906:	48 8d 85 00 ea ff ff 	lea    -0x1600(%rbp),%rax
   1b90d:	48 89 85 d0 ea ff ff 	mov    %rax,-0x1530(%rbp)
   1b914:	c7 85 f0 e9 ff ff 04 	movl   $0x4,-0x1610(%rbp)
   1b91b:	00 00 00 
   1b91e:	48 8d 85 08 ea ff ff 	lea    -0x15f8(%rbp),%rax
   1b925:	48 89 85 28 ea ff ff 	mov    %rax,-0x15d8(%rbp)
   1b92c:	48 c7 85 d8 ea ff ff 	movq   $0x0,-0x1528(%rbp)
   1b933:	00 00 00 00 
   1b937:	48 8d 85 10 ea ff ff 	lea    -0x15f0(%rbp),%rax
   1b93e:	48 89 85 e0 ea ff ff 	mov    %rax,-0x1520(%rbp)
   1b945:	48 c7 85 e8 ea ff ff 	movq   $0x0,-0x1518(%rbp)
   1b94c:	00 00 00 00 
   1b950:	48 c7 85 30 ea ff ff 	movq   $0x0,-0x15d0(%rbp)
   1b957:	00 00 00 00 
   1b95b:	48 8d 85 30 ea ff ff 	lea    -0x15d0(%rbp),%rax
   1b962:	48 89 85 38 ea ff ff 	mov    %rax,-0x15c8(%rbp)
   1b969:	48 8d 85 38 ea ff ff 	lea    -0x15c8(%rbp),%rax
   1b970:	48 89 85 f0 ea ff ff 	mov    %rax,-0x1510(%rbp)
   1b977:	48 c7 85 30 ec ff ff 	movq   $0x0,-0x13d0(%rbp)
   1b97e:	00 00 00 00 
   1b982:	48 c7 85 38 ec ff ff 	movq   $0x0,-0x13c8(%rbp)
   1b989:	00 00 00 00 
   1b98d:	48 8d 85 28 ea ff ff 	lea    -0x15d8(%rbp),%rax
   1b994:	48 89 85 40 ec ff ff 	mov    %rax,-0x13c0(%rbp)
   1b99b:	48 c7 85 48 ec ff ff 	movq   $0x0,-0x13b8(%rbp)
   1b9a2:	00 00 00 00 
   1b9a6:	48 c7 85 50 ec ff ff 	movq   $0x0,-0x13b0(%rbp)
   1b9ad:	00 00 00 00 
   1b9b1:	48 8d 85 28 ea ff ff 	lea    -0x15d8(%rbp),%rax
   1b9b8:	48 89 85 58 ec ff ff 	mov    %rax,-0x13a8(%rbp)
   1b9bf:	48 8d 85 28 ea ff ff 	lea    -0x15d8(%rbp),%rax
   1b9c6:	48 89 85 60 ec ff ff 	mov    %rax,-0x13a0(%rbp)
   1b9cd:	48 c7 85 68 ec ff ff 	movq   $0x0,-0x1398(%rbp)
   1b9d4:	00 00 00 00 
   1b9d8:	8b 9d f0 e9 ff ff    	mov    -0x1610(%rbp),%ebx
   1b9de:	b8 fb ff ff ff       	mov    $0xfffffffb,%eax
   1b9e3:	4c 63 e0             	movslq %eax,%r12
   1b9e6:	0f b6 05 b6 76 00 00 	movzbl 0x76b6(%rip),%eax        # 230a3 <g_159>
   1b9ed:	44 0f be e8          	movsbl %al,%r13d
   1b9f1:	44 0f b6 b5 9f e9 ff 	movzbl -0x1661(%rbp),%r14d
   1b9f8:	ff 
   1b9f9:	48 8b 05 c8 c9 00 00 	mov    0xc9c8(%rip),%rax        # 283c8 <g_166>
   1ba00:	48 8d 95 f0 eb ff ff 	lea    -0x1410(%rbp),%rdx
   1ba07:	48 83 c2 18          	add    $0x18,%rdx
   1ba0b:	48 39 d0             	cmp    %rdx,%rax
   1ba0e:	0f 95 c0             	setne  %al
   1ba11:	0f b6 c0             	movzbl %al,%eax
   1ba14:	be fb 00 00 00       	mov    $0xfb,%esi
   1ba19:	89 c7                	mov    %eax,%edi
   1ba1b:	e8 3a 01 ff ff       	callq  bb5a <safe_add_func_uint8_t_u_u>
   1ba20:	0f b6 c0             	movzbl %al,%eax
   1ba23:	be f0 00 00 00       	mov    $0xf0,%esi
   1ba28:	89 c7                	mov    %eax,%edi
   1ba2a:	e8 2b 01 ff ff       	callq  bb5a <safe_add_func_uint8_t_u_u>
   1ba2f:	0f b6 c0             	movzbl %al,%eax
   1ba32:	44 89 f6             	mov    %r14d,%esi
   1ba35:	89 c7                	mov    %eax,%edi
   1ba37:	e8 1e 01 ff ff       	callq  bb5a <safe_add_func_uint8_t_u_u>
   1ba3c:	48 8b 95 00 ea ff ff 	mov    -0x1600(%rbp),%rdx
   1ba43:	48 8b 85 d0 ea ff ff 	mov    -0x1530(%rbp),%rax
   1ba4a:	48 89 10             	mov    %rdx,(%rax)
   1ba4d:	48 8b 85 d0 ea ff ff 	mov    -0x1530(%rbp),%rax
   1ba54:	48 8b 00             	mov    (%rax),%rax
   1ba57:	48 8d 15 44 76 00 00 	lea    0x7644(%rip),%rdx        # 230a2 <g_111>
   1ba5e:	48 39 d0             	cmp    %rdx,%rax
   1ba61:	0f 95 c0             	setne  %al
   1ba64:	0f b6 d0             	movzbl %al,%edx
   1ba67:	48 8b 05 22 73 00 00 	mov    0x7322(%rip),%rax        # 22d90 <l_158.5463+0x10>
   1ba6e:	48 85 c0             	test   %rax,%rax
   1ba71:	0f 94 c0             	sete   %al
   1ba74:	0f b6 c0             	movzbl %al,%eax
   1ba77:	39 c2                	cmp    %eax,%edx
   1ba79:	0f 9e c0             	setle  %al
   1ba7c:	0f b6 c0             	movzbl %al,%eax
   1ba7f:	be 03 00 00 00       	mov    $0x3,%esi
   1ba84:	89 c7                	mov    %eax,%edi
   1ba86:	e8 2d 04 ff ff       	callq  beb8 <safe_add_func_uint32_t_u_u>
   1ba8b:	83 bd f0 e9 ff ff 00 	cmpl   $0x0,-0x1610(%rbp)
   1ba92:	74 07                	je     1ba9b <func_64+0x1a7d>
   1ba94:	b8 01 00 00 00       	mov    $0x1,%eax
   1ba99:	eb 05                	jmp    1baa0 <func_64+0x1a82>
   1ba9b:	b8 00 00 00 00       	mov    $0x0,%eax
   1baa0:	44 89 ee             	mov    %r13d,%esi
   1baa3:	89 c7                	mov    %eax,%edi
   1baa5:	e8 26 04 ff ff       	callq  bed0 <safe_sub_func_uint32_t_u_u>
   1baaa:	89 c0                	mov    %eax,%eax
   1baac:	4c 89 e6             	mov    %r12,%rsi
   1baaf:	48 89 c7             	mov    %rax,%rdi
   1bab2:	e8 94 05 ff ff       	callq  c04b <safe_sub_func_uint64_t_u_u>
   1bab7:	0f b7 c0             	movzwl %ax,%eax
   1baba:	89 de                	mov    %ebx,%esi
   1babc:	89 c7                	mov    %eax,%edi
   1babe:	e8 43 03 ff ff       	callq  be06 <safe_lshift_func_uint16_t_u_u>
   1bac3:	66 85 c0             	test   %ax,%ax
   1bac6:	0f 94 c0             	sete   %al
   1bac9:	0f b6 c0             	movzbl %al,%eax
   1bacc:	89 c7                	mov    %eax,%edi
   1bace:	e8 72 00 ff ff       	callq  bb45 <safe_unary_minus_func_uint8_t_u>
   1bad3:	be 01 00 00 00       	mov    $0x1,%esi
   1bad8:	bf 01 00 00 00       	mov    $0x1,%edi
   1badd:	e8 dc 01 ff ff       	callq  bcbe <safe_rshift_func_uint8_t_u_u>
   1bae2:	84 c0                	test   %al,%al
   1bae4:	74 0f                	je     1baf5 <func_64+0x1ad7>
   1bae6:	48 8b 05 3b b9 00 00 	mov    0xb93b(%rip),%rax        # 27428 <g_94>
   1baed:	48 8b 00             	mov    (%rax),%rax
   1baf0:	e9 fa 02 00 00       	jmpq   1bdef <func_64+0x1dd1>
   1baf5:	0f b6 9d 84 e9 ff ff 	movzbl -0x167c(%rbp),%ebx
   1bafc:	b8 fb ff ff ff       	mov    $0xfffffffb,%eax
   1bb01:	0f be d0             	movsbl %al,%edx
   1bb04:	0f b6 85 9f e9 ff ff 	movzbl -0x1661(%rbp),%eax
   1bb0b:	0f be c0             	movsbl %al,%eax
   1bb0e:	89 d6                	mov    %edx,%esi
   1bb10:	89 c7                	mov    %eax,%edi
   1bb12:	e8 db f6 fe ff       	callq  b1f2 <safe_sub_func_int8_t_s_s>
   1bb17:	66 98                	cbtw   
   1bb19:	0f b7 c0             	movzwl %ax,%eax
   1bb1c:	89 de                	mov    %ebx,%esi
   1bb1e:	89 c7                	mov    %eax,%edi
   1bb20:	e8 69 02 ff ff       	callq  bd8e <safe_div_func_uint16_t_u_u>
   1bb25:	66 85 c0             	test   %ax,%ax
   1bb28:	75 41                	jne    1bb6b <func_64+0x1b4d>
   1bb2a:	be 3f 6d 00 00       	mov    $0x6d3f,%esi
   1bb2f:	bf 19 fd ff ff       	mov    $0xfffffd19,%edi
   1bb34:	e8 dd f8 fe ff       	callq  b416 <safe_mod_func_int16_t_s_s>
   1bb39:	48 0f be 85 80 e9 ff 	movsbq -0x1680(%rbp),%rax
   1bb40:	ff 
   1bb41:	48 39 85 48 ea ff ff 	cmp    %rax,-0x15b8(%rbp)
   1bb48:	80 bd 80 e9 ff ff 08 	cmpb   $0x8,-0x1680(%rbp)
   1bb4f:	0f 9f c0             	setg   %al
   1bb52:	0f b6 c0             	movzbl %al,%eax
   1bb55:	0f b7 15 44 75 00 00 	movzwl 0x7544(%rip),%edx        # 230a0 <g_104>
   1bb5c:	31 d0                	xor    %edx,%eax
   1bb5e:	98                   	cwtl   
   1bb5f:	be 06 00 00 00       	mov    $0x6,%esi
   1bb64:	89 c7                	mov    %eax,%edi
   1bb66:	e8 27 f9 fe ff       	callq  b492 <safe_lshift_func_int16_t_s_s>
   1bb6b:	b8 01 00 00 00       	mov    $0x1,%eax
   1bb70:	0f be c0             	movsbl %al,%eax
   1bb73:	89 c6                	mov    %eax,%esi
   1bb75:	bf 00 00 00 00       	mov    $0x0,%edi
   1bb7a:	e8 93 f6 fe ff       	callq  b212 <safe_mul_func_int8_t_s_s>
   1bb7f:	66 83 bd 7c e9 ff ff 	cmpw   $0x0,-0x1684(%rbp)
   1bb86:	00 
   1bb87:	74 12                	je     1bb9b <func_64+0x1b7d>
   1bb89:	0f b6 05 12 75 00 00 	movzbl 0x7512(%rip),%eax        # 230a2 <g_111>
   1bb90:	84 c0                	test   %al,%al
   1bb92:	74 07                	je     1bb9b <func_64+0x1b7d>
   1bb94:	b8 01 00 00 00       	mov    $0x1,%eax
   1bb99:	eb 05                	jmp    1bba0 <func_64+0x1b82>
   1bb9b:	b8 00 00 00 00       	mov    $0x0,%eax
   1bba0:	89 c2                	mov    %eax,%edx
   1bba2:	48 8b 85 88 e9 ff ff 	mov    -0x1678(%rbp),%rax
   1bba9:	09 d0                	or     %edx,%eax
   1bbab:	89 c6                	mov    %eax,%esi
   1bbad:	bf c8 ed 00 00       	mov    $0xedc8,%edi
   1bbb2:	e8 4f 02 ff ff       	callq  be06 <safe_lshift_func_uint16_t_u_u>
   1bbb7:	0f b7 c0             	movzwl %ax,%eax
   1bbba:	31 85 e8 e9 ff ff    	xor    %eax,-0x1618(%rbp)
   1bbc0:	48 8b 85 28 ea ff ff 	mov    -0x15d8(%rbp),%rax
   1bbc7:	48 8d 95 a8 e9 ff ff 	lea    -0x1658(%rbp),%rdx
   1bbce:	48 89 10             	mov    %rdx,(%rax)
   1bbd1:	48 8b 10             	mov    (%rax),%rdx
   1bbd4:	48 8b 85 e0 ea ff ff 	mov    -0x1520(%rbp),%rax
   1bbdb:	48 89 10             	mov    %rdx,(%rax)
   1bbde:	8b 1d 9c 74 00 00    	mov    0x749c(%rip),%ebx        # 23080 <g_78>
   1bbe4:	0f b6 05 b8 74 00 00 	movzbl 0x74b8(%rip),%eax        # 230a3 <g_159>
   1bbeb:	0f be d0             	movsbl %al,%edx
   1bbee:	b8 f9 ff ff ff       	mov    $0xfffffff9,%eax
   1bbf3:	0f be c8             	movsbl %al,%ecx
   1bbf6:	48 8b 85 e8 ea ff ff 	mov    -0x1518(%rbp),%rax
   1bbfd:	48 89 85 50 ff ff ff 	mov    %rax,-0xb0(%rbp)
   1bc04:	48 8b 85 50 ff ff ff 	mov    -0xb0(%rbp),%rax
   1bc0b:	48 8d 35 0e b8 00 00 	lea    0xb80e(%rip),%rsi        # 27420 <g_95>
   1bc12:	48 39 f0             	cmp    %rsi,%rax
   1bc15:	74 36                	je     1bc4d <func_64+0x1c2f>
   1bc17:	48 8b 85 f0 ea ff ff 	mov    -0x1510(%rbp),%rax
   1bc1e:	48 c7 00 00 00 00 00 	movq   $0x0,(%rax)
   1bc25:	48 8b 85 f0 ea ff ff 	mov    -0x1510(%rbp),%rax
   1bc2c:	48 8b 00             	mov    (%rax),%rax
   1bc2f:	48 8d b5 50 ed ff ff 	lea    -0x12b0(%rbp),%rsi
   1bc36:	48 81 c6 18 02 00 00 	add    $0x218,%rsi
   1bc3d:	48 89 b5 60 ea ff ff 	mov    %rsi,-0x15a0(%rbp)
   1bc44:	48 39 85 60 ea ff ff 	cmp    %rax,-0x15a0(%rbp)
   1bc4b:	75 2a                	jne    1bc77 <func_64+0x1c59>
   1bc4d:	80 bd 84 e9 ff ff 00 	cmpb   $0x0,-0x167c(%rbp)
   1bc54:	74 21                	je     1bc77 <func_64+0x1c59>
   1bc56:	0f b7 05 47 74 00 00 	movzwl 0x7447(%rip),%eax        # 230a4 <g_206>
   1bc5d:	66 89 05 40 74 00 00 	mov    %ax,0x7440(%rip)        # 230a4 <g_206>
   1bc64:	0f b7 05 39 74 00 00 	movzwl 0x7439(%rip),%eax        # 230a4 <g_206>
   1bc6b:	66 85 c0             	test   %ax,%ax
   1bc6e:	74 07                	je     1bc77 <func_64+0x1c59>
   1bc70:	be 01 00 00 00       	mov    $0x1,%esi
   1bc75:	eb 05                	jmp    1bc7c <func_64+0x1c5e>
   1bc77:	be 00 00 00 00       	mov    $0x0,%esi
   1bc7c:	8b 05 fe 73 00 00    	mov    0x73fe(%rip),%eax        # 23080 <g_78>
   1bc82:	31 f0                	xor    %esi,%eax
   1bc84:	39 c1                	cmp    %eax,%ecx
   1bc86:	0f 9e c0             	setle  %al
   1bc89:	0f b6 c0             	movzbl %al,%eax
   1bc8c:	89 d6                	mov    %edx,%esi
   1bc8e:	89 c7                	mov    %eax,%edi
   1bc90:	e8 b7 ff fe ff       	callq  bc4c <safe_lshift_func_uint8_t_u_u>
   1bc95:	0f b6 85 80 e9 ff ff 	movzbl -0x1680(%rbp),%eax
   1bc9c:	0f b6 c0             	movzbl %al,%eax
   1bc9f:	be 06 00 00 00       	mov    $0x6,%esi
   1bca4:	89 c7                	mov    %eax,%edi
   1bca6:	e8 a1 ff fe ff       	callq  bc4c <safe_lshift_func_uint8_t_u_u>
   1bcab:	0f b7 05 ee 73 00 00 	movzwl 0x73ee(%rip),%eax        # 230a0 <g_104>
   1bcb2:	0f be c0             	movsbl %al,%eax
   1bcb5:	be ff ff ff ff       	mov    $0xffffffff,%esi
   1bcba:	89 c7                	mov    %eax,%edi
   1bcbc:	e8 51 f5 fe ff       	callq  b212 <safe_mul_func_int8_t_s_s>
   1bcc1:	0f be c0             	movsbl %al,%eax
   1bcc4:	39 c3                	cmp    %eax,%ebx
   1bcc6:	0f 9d c0             	setge  %al
   1bcc9:	0f b6 c0             	movzbl %al,%eax
   1bccc:	be 05 00 00 00       	mov    $0x5,%esi
   1bcd1:	89 c7                	mov    %eax,%edi
   1bcd3:	e8 52 f8 fe ff       	callq  b52a <safe_rshift_func_int16_t_s_s>
   1bcd8:	ba 01 00 00 00       	mov    $0x1,%edx
   1bcdd:	0f b7 05 bc 73 00 00 	movzwl 0x73bc(%rip),%eax        # 230a0 <g_104>
   1bce4:	0f b7 c0             	movzwl %ax,%eax
   1bce7:	21 c2                	and    %eax,%edx
   1bce9:	0f b6 05 b2 73 00 00 	movzbl 0x73b2(%rip),%eax        # 230a2 <g_111>
   1bcf0:	0f b6 c0             	movzbl %al,%eax
   1bcf3:	39 c2                	cmp    %eax,%edx
   1bcf5:	0f 9c c0             	setl   %al
   1bcf8:	0f b6 c8             	movzbl %al,%ecx
   1bcfb:	48 8b 85 e0 ea ff ff 	mov    -0x1520(%rbp),%rax
   1bd02:	48 8b 00             	mov    (%rax),%rax
   1bd05:	8b 10                	mov    (%rax),%edx
   1bd07:	48 8b 85 e0 ea ff ff 	mov    -0x1520(%rbp),%rax
   1bd0e:	48 8b 00             	mov    (%rax),%rax
   1bd11:	31 ca                	xor    %ecx,%edx
   1bd13:	89 10                	mov    %edx,(%rax)
   1bd15:	e9 b1 00 00 00       	jmpq   1bdcb <func_64+0x1dad>
   1bd1a:	48 8d 05 37 b7 00 00 	lea    0xb737(%rip),%rax        # 27458 <g_207>
   1bd21:	48 89 85 b8 ea ff ff 	mov    %rax,-0x1548(%rbp)
   1bd28:	48 b8 a1 61 24 ab a0 	movabs $0x83461fa0ab2461a1,%rax
   1bd2f:	1f 46 83 
   1bd32:	48 89 85 30 ec ff ff 	mov    %rax,-0x13d0(%rbp)
   1bd39:	48 bb d5 d8 d6 7b 1f 	movabs $0xb2ce5e1f7bd6d8d5,%rbx
   1bd40:	5e ce b2 
   1bd43:	48 89 9d 38 ec ff ff 	mov    %rbx,-0x13c8(%rbp)
   1bd4a:	48 89 85 40 ec ff ff 	mov    %rax,-0x13c0(%rbp)
   1bd51:	48 89 9d 48 ec ff ff 	mov    %rbx,-0x13b8(%rbp)
   1bd58:	48 89 85 50 ec ff ff 	mov    %rax,-0x13b0(%rbp)
   1bd5f:	48 89 9d 58 ec ff ff 	mov    %rbx,-0x13a8(%rbp)
   1bd66:	48 89 85 60 ec ff ff 	mov    %rax,-0x13a0(%rbp)
   1bd6d:	48 89 9d 68 ec ff ff 	mov    %rbx,-0x1398(%rbp)
   1bd74:	48 89 85 70 ec ff ff 	mov    %rax,-0x1390(%rbp)
   1bd7b:	48 8d 85 18 ea ff ff 	lea    -0x15e8(%rbp),%rax
   1bd82:	48 89 85 38 ea ff ff 	mov    %rax,-0x15c8(%rbp)
   1bd89:	48 8d 85 38 ea ff ff 	lea    -0x15c8(%rbp),%rax
   1bd90:	48 89 85 c0 ea ff ff 	mov    %rax,-0x1540(%rbp)
   1bd97:	48 8b 15 ba b6 00 00 	mov    0xb6ba(%rip),%rdx        # 27458 <g_207>
   1bd9e:	48 8b 85 b8 ea ff ff 	mov    -0x1548(%rbp),%rax
   1bda5:	48 89 10             	mov    %rdx,(%rax)
   1bda8:	48 8b 85 60 ec ff ff 	mov    -0x13a0(%rbp),%rax
   1bdaf:	48 83 e8 01          	sub    $0x1,%rax
   1bdb3:	48 89 85 60 ec ff ff 	mov    %rax,-0x13a0(%rbp)
   1bdba:	48 8b 95 38 ea ff ff 	mov    -0x15c8(%rbp),%rdx
   1bdc1:	48 8b 85 c0 ea ff ff 	mov    -0x1540(%rbp),%rax
   1bdc8:	48 89 10             	mov    %rdx,(%rax)
   1bdcb:	83 ad ac e9 ff ff 01 	subl   $0x1,-0x1654(%rbp)
   1bdd2:	83 bd ac e9 ff ff 00 	cmpl   $0x0,-0x1654(%rbp)
   1bdd9:	0f 89 99 f9 ff ff    	jns    1b778 <func_64+0x175a>
   1bddf:	48 8b 85 f8 e9 ff ff 	mov    -0x1608(%rbp),%rax
   1bde6:	eb 07                	jmp    1bdef <func_64+0x1dd1>
   1bde8:	48 8b 85 f8 e9 ff ff 	mov    -0x1608(%rbp),%rax
   1bdef:	48 8b 4d d8          	mov    -0x28(%rbp),%rcx
   1bdf3:	64 48 33 0c 25 28 00 	xor    %fs:0x28,%rcx
   1bdfa:	00 00 
   1bdfc:	74 05                	je     1be03 <func_64+0x1de5>
   1bdfe:	e8 6d f2 fe ff       	callq  b070 <__stack_chk_fail@plt>
   1be03:	48 81 c4 70 16 00 00 	add    $0x1670,%rsp
   1be0a:	5b                   	pop    %rbx
   1be0b:	41 5c                	pop    %r12
   1be0d:	41 5d                	pop    %r13
   1be0f:	41 5e                	pop    %r14
   1be11:	5d                   	pop    %rbp
   1be12:	c3                   	retq   

000000000001be13 <main>:
   1be13:	f3 0f 1e fa          	endbr64 
   1be17:	55                   	push   %rbp
   1be18:	48 89 e5             	mov    %rsp,%rbp
   1be1b:	48 83 ec 20          	sub    $0x20,%rsp
   1be1f:	89 7d ec             	mov    %edi,-0x14(%rbp)
   1be22:	48 89 75 e0          	mov    %rsi,-0x20(%rbp)
   1be26:	c7 45 fc 00 00 00 00 	movl   $0x0,-0x4(%rbp)
   1be2d:	83 7d ec 02          	cmpl   $0x2,-0x14(%rbp)
   1be31:	75 25                	jne    1be58 <main+0x45>
   1be33:	48 8b 45 e0          	mov    -0x20(%rbp),%rax
   1be37:	48 83 c0 08          	add    $0x8,%rax
   1be3b:	48 8b 00             	mov    (%rax),%rax
   1be3e:	48 8d 35 bf 39 00 00 	lea    0x39bf(%rip),%rsi        # 1f804 <g_3481+0x2764>
   1be45:	48 89 c7             	mov    %rax,%rdi
   1be48:	e8 43 f2 fe ff       	callq  b090 <strcmp@plt>
   1be4d:	85 c0                	test   %eax,%eax
   1be4f:	75 07                	jne    1be58 <main+0x45>
   1be51:	c7 45 fc 01 00 00 00 	movl   $0x1,-0x4(%rbp)
   1be58:	e8 2c f3 fe ff       	callq  b189 <platform_main_begin>
   1be5d:	e8 36 07 ff ff       	callq  c598 <crc32_gentab>
   1be62:	e8 4e 09 ff ff       	callq  c7b5 <func_1>
   1be67:	0f b6 05 b6 71 00 00 	movzbl 0x71b6(%rip),%eax        # 23024 <g_2>
   1be6e:	48 0f be c0          	movsbq %al,%rax
   1be72:	8b 55 fc             	mov    -0x4(%rbp),%edx
   1be75:	48 8d 35 8a 39 00 00 	lea    0x398a(%rip),%rsi        # 1f806 <g_3481+0x2766>
   1be7c:	48 89 c7             	mov    %rax,%rdi
   1be7f:	e8 6f 08 ff ff       	callq  c6f3 <transparent_crc>
   1be84:	8b 05 9e 71 00 00    	mov    0x719e(%rip),%eax        # 23028 <g_7>
   1be8a:	48 98                	cltq   
   1be8c:	8b 55 fc             	mov    -0x4(%rbp),%edx
   1be8f:	48 8d 35 74 39 00 00 	lea    0x3974(%rip),%rsi        # 1f80a <g_3481+0x276a>
   1be96:	48 89 c7             	mov    %rax,%rdi
   1be99:	e8 55 08 ff ff       	callq  c6f3 <transparent_crc>
   1be9e:	c7 45 f0 00 00 00 00 	movl   $0x0,-0x10(%rbp)
   1bea5:	eb 4b                	jmp    1bef2 <main+0xdf>
   1bea7:	8b 45 f0             	mov    -0x10(%rbp),%eax
   1beaa:	48 98                	cltq   
   1beac:	48 8d 14 85 00 00 00 	lea    0x0(,%rax,4),%rdx
   1beb3:	00 
   1beb4:	48 8d 05 85 71 00 00 	lea    0x7185(%rip),%rax        # 23040 <g_22>
   1bebb:	8b 04 02             	mov    (%rdx,%rax,1),%eax
   1bebe:	48 98                	cltq   
   1bec0:	8b 55 fc             	mov    -0x4(%rbp),%edx
   1bec3:	48 8d 35 44 39 00 00 	lea    0x3944(%rip),%rsi        # 1f80e <g_3481+0x276e>
   1beca:	48 89 c7             	mov    %rax,%rdi
   1becd:	e8 21 08 ff ff       	callq  c6f3 <transparent_crc>
   1bed2:	83 7d fc 00          	cmpl   $0x0,-0x4(%rbp)
   1bed6:	74 16                	je     1beee <main+0xdb>
   1bed8:	8b 45 f0             	mov    -0x10(%rbp),%eax
   1bedb:	89 c6                	mov    %eax,%esi
   1bedd:	48 8d 3d 32 39 00 00 	lea    0x3932(%rip),%rdi        # 1f816 <g_3481+0x2776>
   1bee4:	b8 00 00 00 00       	mov    $0x0,%eax
   1bee9:	e8 92 f1 fe ff       	callq  b080 <printf@plt>
   1beee:	83 45 f0 01          	addl   $0x1,-0x10(%rbp)
   1bef2:	83 7d f0 09          	cmpl   $0x9,-0x10(%rbp)
   1bef6:	7e af                	jle    1bea7 <main+0x94>
   1bef8:	48 8b 05 69 71 00 00 	mov    0x7169(%rip),%rax        # 23068 <g_63>
   1beff:	8b 55 fc             	mov    -0x4(%rbp),%edx
   1bf02:	48 8d 35 1b 39 00 00 	lea    0x391b(%rip),%rsi        # 1f824 <g_3481+0x2784>
   1bf09:	48 89 c7             	mov    %rax,%rdi
   1bf0c:	e8 e2 07 ff ff       	callq  c6f3 <transparent_crc>
   1bf11:	b8 fb ff ff ff       	mov    $0xfffffffb,%eax
   1bf16:	48 98                	cltq   
   1bf18:	8b 55 fc             	mov    -0x4(%rbp),%edx
   1bf1b:	48 8d 35 07 39 00 00 	lea    0x3907(%rip),%rsi        # 1f829 <g_3481+0x2789>
   1bf22:	48 89 c7             	mov    %rax,%rdi
   1bf25:	e8 c9 07 ff ff       	callq  c6f3 <transparent_crc>
   1bf2a:	c7 45 f0 00 00 00 00 	movl   $0x0,-0x10(%rbp)
   1bf31:	eb 4b                	jmp    1bf7e <main+0x16b>
   1bf33:	8b 45 f0             	mov    -0x10(%rbp),%eax
   1bf36:	48 98                	cltq   
   1bf38:	48 8d 14 85 00 00 00 	lea    0x0(,%rax,4),%rdx
   1bf3f:	00 
   1bf40:	48 8d 05 39 71 00 00 	lea    0x7139(%rip),%rax        # 23080 <g_78>
   1bf47:	8b 04 02             	mov    (%rdx,%rax,1),%eax
   1bf4a:	48 98                	cltq   
   1bf4c:	8b 55 fc             	mov    -0x4(%rbp),%edx
   1bf4f:	48 8d 35 d8 38 00 00 	lea    0x38d8(%rip),%rsi        # 1f82e <g_3481+0x278e>
   1bf56:	48 89 c7             	mov    %rax,%rdi
   1bf59:	e8 95 07 ff ff       	callq  c6f3 <transparent_crc>
   1bf5e:	83 7d fc 00          	cmpl   $0x0,-0x4(%rbp)
   1bf62:	74 16                	je     1bf7a <main+0x167>
   1bf64:	8b 45 f0             	mov    -0x10(%rbp),%eax
   1bf67:	89 c6                	mov    %eax,%esi
   1bf69:	48 8d 3d a6 38 00 00 	lea    0x38a6(%rip),%rdi        # 1f816 <g_3481+0x2776>
   1bf70:	b8 00 00 00 00       	mov    $0x0,%eax
   1bf75:	e8 06 f1 fe ff       	callq  b080 <printf@plt>
   1bf7a:	83 45 f0 01          	addl   $0x1,-0x10(%rbp)
   1bf7e:	83 7d f0 07          	cmpl   $0x7,-0x10(%rbp)
   1bf82:	7e af                	jle    1bf33 <main+0x120>
   1bf84:	0f b7 05 15 71 00 00 	movzwl 0x7115(%rip),%eax        # 230a0 <g_104>
   1bf8b:	0f b7 c0             	movzwl %ax,%eax
   1bf8e:	8b 55 fc             	mov    -0x4(%rbp),%edx
   1bf91:	48 8d 35 9e 38 00 00 	lea    0x389e(%rip),%rsi        # 1f836 <g_3481+0x2796>
   1bf98:	48 89 c7             	mov    %rax,%rdi
   1bf9b:	e8 53 07 ff ff       	callq  c6f3 <transparent_crc>
   1bfa0:	0f b6 05 fb 70 00 00 	movzbl 0x70fb(%rip),%eax        # 230a2 <g_111>
   1bfa7:	0f b6 c0             	movzbl %al,%eax
   1bfaa:	8b 55 fc             	mov    -0x4(%rbp),%edx
   1bfad:	48 8d 35 88 38 00 00 	lea    0x3888(%rip),%rsi        # 1f83c <g_3481+0x279c>
   1bfb4:	48 89 c7             	mov    %rax,%rdi
   1bfb7:	e8 37 07 ff ff       	callq  c6f3 <transparent_crc>
   1bfbc:	c7 45 f0 00 00 00 00 	movl   $0x0,-0x10(%rbp)
   1bfc3:	eb 76                	jmp    1c03b <main+0x228>
   1bfc5:	c7 45 f4 00 00 00 00 	movl   $0x0,-0xc(%rbp)
   1bfcc:	eb 63                	jmp    1c031 <main+0x21e>
   1bfce:	8b 45 f4             	mov    -0xc(%rbp),%eax
   1bfd1:	48 63 c8             	movslq %eax,%rcx
   1bfd4:	8b 45 f0             	mov    -0x10(%rbp),%eax
   1bfd7:	48 63 d0             	movslq %eax,%rdx
   1bfda:	48 89 d0             	mov    %rdx,%rax
   1bfdd:	48 c1 e0 02          	shl    $0x2,%rax
   1bfe1:	48 01 d0             	add    %rdx,%rax
   1bfe4:	48 01 c0             	add    %rax,%rax
   1bfe7:	48 8d 14 08          	lea    (%rax,%rcx,1),%rdx
   1bfeb:	48 8d 05 6e 10 00 00 	lea    0x106e(%rip),%rax        # 1d060 <g_145>
   1bff2:	48 01 d0             	add    %rdx,%rax
   1bff5:	0f b6 00             	movzbl (%rax),%eax
   1bff8:	48 0f be c0          	movsbq %al,%rax
   1bffc:	8b 55 fc             	mov    -0x4(%rbp),%edx
   1bfff:	48 8d 35 3c 38 00 00 	lea    0x383c(%rip),%rsi        # 1f842 <g_3481+0x27a2>
   1c006:	48 89 c7             	mov    %rax,%rdi
   1c009:	e8 e5 06 ff ff       	callq  c6f3 <transparent_crc>
   1c00e:	83 7d fc 00          	cmpl   $0x0,-0x4(%rbp)
   1c012:	74 19                	je     1c02d <main+0x21a>
   1c014:	8b 55 f4             	mov    -0xc(%rbp),%edx
   1c017:	8b 45 f0             	mov    -0x10(%rbp),%eax
   1c01a:	89 c6                	mov    %eax,%esi
   1c01c:	48 8d 3d 2b 38 00 00 	lea    0x382b(%rip),%rdi        # 1f84e <g_3481+0x27ae>
   1c023:	b8 00 00 00 00       	mov    $0x0,%eax
   1c028:	e8 53 f0 fe ff       	callq  b080 <printf@plt>
   1c02d:	83 45 f4 01          	addl   $0x1,-0xc(%rbp)
   1c031:	83 7d f4 09          	cmpl   $0x9,-0xc(%rbp)
   1c035:	7e 97                	jle    1bfce <main+0x1bb>
   1c037:	83 45 f0 01          	addl   $0x1,-0x10(%rbp)
   1c03b:	83 7d f0 01          	cmpl   $0x1,-0x10(%rbp)
   1c03f:	7e 84                	jle    1bfc5 <main+0x1b2>
   1c041:	0f b6 05 5b 70 00 00 	movzbl 0x705b(%rip),%eax        # 230a3 <g_159>
   1c048:	48 0f be c0          	movsbq %al,%rax
   1c04c:	8b 55 fc             	mov    -0x4(%rbp),%edx
   1c04f:	48 8d 35 0a 38 00 00 	lea    0x380a(%rip),%rsi        # 1f860 <g_3481+0x27c0>
   1c056:	48 89 c7             	mov    %rax,%rdi
   1c059:	e8 95 06 ff ff       	callq  c6f3 <transparent_crc>
   1c05e:	0f b7 05 3f 70 00 00 	movzwl 0x703f(%rip),%eax        # 230a4 <g_206>
   1c065:	48 0f bf c0          	movswq %ax,%rax
   1c069:	8b 55 fc             	mov    -0x4(%rbp),%edx
   1c06c:	48 8d 35 f3 37 00 00 	lea    0x37f3(%rip),%rsi        # 1f866 <g_3481+0x27c6>
   1c073:	48 89 c7             	mov    %rax,%rdi
   1c076:	e8 78 06 ff ff       	callq  c6f3 <transparent_crc>
   1c07b:	0f b7 05 4e c3 00 00 	movzwl 0xc34e(%rip),%eax        # 283d0 <g_229>
   1c082:	0f b7 c0             	movzwl %ax,%eax
   1c085:	8b 55 fc             	mov    -0x4(%rbp),%edx
   1c088:	48 8d 35 dd 37 00 00 	lea    0x37dd(%rip),%rsi        # 1f86c <g_3481+0x27cc>
   1c08f:	48 89 c7             	mov    %rax,%rdi
   1c092:	e8 5c 06 ff ff       	callq  c6f3 <transparent_crc>
   1c097:	8b 05 0b 70 00 00    	mov    0x700b(%rip),%eax        # 230a8 <g_361>
   1c09d:	48 98                	cltq   
   1c09f:	8b 55 fc             	mov    -0x4(%rbp),%edx
   1c0a2:	48 8d 35 c9 37 00 00 	lea    0x37c9(%rip),%rsi        # 1f872 <g_3481+0x27d2>
   1c0a9:	48 89 c7             	mov    %rax,%rdi
   1c0ac:	e8 42 06 ff ff       	callq  c6f3 <transparent_crc>
   1c0b1:	0f b6 05 f4 6f 00 00 	movzbl 0x6ff4(%rip),%eax        # 230ac <g_432>
   1c0b8:	0f b6 c0             	movzbl %al,%eax
   1c0bb:	8b 55 fc             	mov    -0x4(%rbp),%edx
   1c0be:	48 8d 35 b3 37 00 00 	lea    0x37b3(%rip),%rsi        # 1f878 <g_3481+0x27d8>
   1c0c5:	48 89 c7             	mov    %rax,%rdi
   1c0c8:	e8 26 06 ff ff       	callq  c6f3 <transparent_crc>
   1c0cd:	c7 45 f0 00 00 00 00 	movl   $0x0,-0x10(%rbp)
   1c0d4:	e9 a0 00 00 00       	jmpq   1c179 <main+0x366>
   1c0d9:	c7 45 f4 00 00 00 00 	movl   $0x0,-0xc(%rbp)
   1c0e0:	e9 86 00 00 00       	jmpq   1c16b <main+0x358>
   1c0e5:	c7 45 f8 00 00 00 00 	movl   $0x0,-0x8(%rbp)
   1c0ec:	eb 73                	jmp    1c161 <main+0x34e>
   1c0ee:	8b 45 f8             	mov    -0x8(%rbp),%eax
   1c0f1:	48 63 c8             	movslq %eax,%rcx
   1c0f4:	8b 45 f0             	mov    -0x10(%rbp),%eax
   1c0f7:	48 63 d0             	movslq %eax,%rdx
   1c0fa:	8b 45 f4             	mov    -0xc(%rbp),%eax
   1c0fd:	48 63 f0             	movslq %eax,%rsi
   1c100:	48 89 d0             	mov    %rdx,%rax
   1c103:	48 01 c0             	add    %rax,%rax
   1c106:	48 01 d0             	add    %rdx,%rax
   1c109:	48 01 f0             	add    %rsi,%rax
   1c10c:	48 c1 e0 03          	shl    $0x3,%rax
   1c110:	48 01 c8             	add    %rcx,%rax
   1c113:	48 8d 14 85 00 00 00 	lea    0x0(,%rax,4),%rdx
   1c11a:	00 
   1c11b:	48 8d 05 9e 6f 00 00 	lea    0x6f9e(%rip),%rax        # 230c0 <g_434>
   1c122:	8b 04 02             	mov    (%rdx,%rax,1),%eax
   1c125:	89 c1                	mov    %eax,%ecx
   1c127:	8b 45 fc             	mov    -0x4(%rbp),%eax
   1c12a:	89 c2                	mov    %eax,%edx
   1c12c:	48 8d 35 4b 37 00 00 	lea    0x374b(%rip),%rsi        # 1f87e <g_3481+0x27de>
   1c133:	48 89 cf             	mov    %rcx,%rdi
   1c136:	e8 b8 05 ff ff       	callq  c6f3 <transparent_crc>
   1c13b:	83 7d fc 00          	cmpl   $0x0,-0x4(%rbp)
   1c13f:	74 1c                	je     1c15d <main+0x34a>
   1c141:	8b 4d f8             	mov    -0x8(%rbp),%ecx
   1c144:	8b 55 f4             	mov    -0xc(%rbp),%edx
   1c147:	8b 45 f0             	mov    -0x10(%rbp),%eax
   1c14a:	89 c6                	mov    %eax,%esi
   1c14c:	48 8d 3d 3a 37 00 00 	lea    0x373a(%rip),%rdi        # 1f88d <g_3481+0x27ed>
   1c153:	b8 00 00 00 00       	mov    $0x0,%eax
   1c158:	e8 23 ef fe ff       	callq  b080 <printf@plt>
   1c15d:	83 45 f8 01          	addl   $0x1,-0x8(%rbp)
   1c161:	83 7d f8 07          	cmpl   $0x7,-0x8(%rbp)
   1c165:	7e 87                	jle    1c0ee <main+0x2db>
   1c167:	83 45 f4 01          	addl   $0x1,-0xc(%rbp)
   1c16b:	83 7d f4 02          	cmpl   $0x2,-0xc(%rbp)
   1c16f:	0f 8e 70 ff ff ff    	jle    1c0e5 <main+0x2d2>
   1c175:	83 45 f0 01          	addl   $0x1,-0x10(%rbp)
   1c179:	83 7d f0 09          	cmpl   $0x9,-0x10(%rbp)
   1c17d:	0f 8e 56 ff ff ff    	jle    1c0d9 <main+0x2c6>
   1c183:	8b 05 f7 72 00 00    	mov    0x72f7(%rip),%eax        # 23480 <g_486>
   1c189:	89 c1                	mov    %eax,%ecx
   1c18b:	8b 45 fc             	mov    -0x4(%rbp),%eax
   1c18e:	89 c2                	mov    %eax,%edx
   1c190:	48 8d 35 0c 37 00 00 	lea    0x370c(%rip),%rsi        # 1f8a3 <g_3481+0x2803>
   1c197:	48 89 cf             	mov    %rcx,%rdi
   1c19a:	e8 54 05 ff ff       	callq  c6f3 <transparent_crc>
   1c19f:	b8 00 00 00 00       	mov    $0x0,%eax
   1c1a4:	0f b7 c0             	movzwl %ax,%eax
   1c1a7:	8b 55 fc             	mov    -0x4(%rbp),%edx
   1c1aa:	48 8d 35 f8 36 00 00 	lea    0x36f8(%rip),%rsi        # 1f8a9 <g_3481+0x2809>
   1c1b1:	48 89 c7             	mov    %rax,%rdi
   1c1b4:	e8 3a 05 ff ff       	callq  c6f3 <transparent_crc>
   1c1b9:	c7 45 f0 00 00 00 00 	movl   $0x0,-0x10(%rbp)
   1c1c0:	eb 6d                	jmp    1c22f <main+0x41c>
   1c1c2:	c7 45 f4 00 00 00 00 	movl   $0x0,-0xc(%rbp)
   1c1c9:	eb 5a                	jmp    1c225 <main+0x412>
   1c1cb:	8b 45 f4             	mov    -0xc(%rbp),%eax
   1c1ce:	48 98                	cltq   
   1c1d0:	8b 55 f0             	mov    -0x10(%rbp),%edx
   1c1d3:	48 63 d2             	movslq %edx,%rdx
   1c1d6:	48 01 d2             	add    %rdx,%rdx
   1c1d9:	48 01 d0             	add    %rdx,%rax
   1c1dc:	48 8d 14 85 00 00 00 	lea    0x0(,%rax,4),%rdx
   1c1e3:	00 
   1c1e4:	48 8d 05 b5 72 00 00 	lea    0x72b5(%rip),%rax        # 234a0 <g_608>
   1c1eb:	8b 04 02             	mov    (%rdx,%rax,1),%eax
   1c1ee:	48 98                	cltq   
   1c1f0:	8b 55 fc             	mov    -0x4(%rbp),%edx
   1c1f3:	48 8d 35 b5 36 00 00 	lea    0x36b5(%rip),%rsi        # 1f8af <g_3481+0x280f>
   1c1fa:	48 89 c7             	mov    %rax,%rdi
   1c1fd:	e8 f1 04 ff ff       	callq  c6f3 <transparent_crc>
   1c202:	83 7d fc 00          	cmpl   $0x0,-0x4(%rbp)
   1c206:	74 19                	je     1c221 <main+0x40e>
   1c208:	8b 55 f4             	mov    -0xc(%rbp),%edx
   1c20b:	8b 45 f0             	mov    -0x10(%rbp),%eax
   1c20e:	89 c6                	mov    %eax,%esi
   1c210:	48 8d 3d 37 36 00 00 	lea    0x3637(%rip),%rdi        # 1f84e <g_3481+0x27ae>
   1c217:	b8 00 00 00 00       	mov    $0x0,%eax
   1c21c:	e8 5f ee fe ff       	callq  b080 <printf@plt>
   1c221:	83 45 f4 01          	addl   $0x1,-0xc(%rbp)
   1c225:	83 7d f4 01          	cmpl   $0x1,-0xc(%rbp)
   1c229:	7e a0                	jle    1c1cb <main+0x3b8>
   1c22b:	83 45 f0 01          	addl   $0x1,-0x10(%rbp)
   1c22f:	83 7d f0 09          	cmpl   $0x9,-0x10(%rbp)
   1c233:	7e 8d                	jle    1c1c2 <main+0x3af>
   1c235:	0f b7 05 b4 72 00 00 	movzwl 0x72b4(%rip),%eax        # 234f0 <g_610>
   1c23c:	0f b7 c0             	movzwl %ax,%eax
   1c23f:	8b 55 fc             	mov    -0x4(%rbp),%edx
   1c242:	48 8d 35 72 36 00 00 	lea    0x3672(%rip),%rsi        # 1f8bb <g_3481+0x281b>
   1c249:	48 89 c7             	mov    %rax,%rdi
   1c24c:	e8 a2 04 ff ff       	callq  c6f3 <transparent_crc>
   1c251:	0f b6 05 9a 72 00 00 	movzbl 0x729a(%rip),%eax        # 234f2 <g_622>
   1c258:	48 0f be c0          	movsbq %al,%rax
   1c25c:	8b 55 fc             	mov    -0x4(%rbp),%edx
   1c25f:	48 8d 35 5b 36 00 00 	lea    0x365b(%rip),%rsi        # 1f8c1 <g_3481+0x2821>
   1c266:	48 89 c7             	mov    %rax,%rdi
   1c269:	e8 85 04 ff ff       	callq  c6f3 <transparent_crc>
   1c26e:	c7 45 f0 00 00 00 00 	movl   $0x0,-0x10(%rbp)
   1c275:	eb 45                	jmp    1c2bc <main+0x4a9>
   1c277:	8b 45 f0             	mov    -0x10(%rbp),%eax
   1c27a:	48 98                	cltq   
   1c27c:	48 8d 15 70 72 00 00 	lea    0x7270(%rip),%rdx        # 234f3 <g_626>
   1c283:	0f b6 04 10          	movzbl (%rax,%rdx,1),%eax
   1c287:	0f b6 c0             	movzbl %al,%eax
   1c28a:	8b 55 fc             	mov    -0x4(%rbp),%edx
   1c28d:	48 8d 35 33 36 00 00 	lea    0x3633(%rip),%rsi        # 1f8c7 <g_3481+0x2827>
   1c294:	48 89 c7             	mov    %rax,%rdi
   1c297:	e8 57 04 ff ff       	callq  c6f3 <transparent_crc>
   1c29c:	83 7d fc 00          	cmpl   $0x0,-0x4(%rbp)
   1c2a0:	74 16                	je     1c2b8 <main+0x4a5>
   1c2a2:	8b 45 f0             	mov    -0x10(%rbp),%eax
   1c2a5:	89 c6                	mov    %eax,%esi
   1c2a7:	48 8d 3d 68 35 00 00 	lea    0x3568(%rip),%rdi        # 1f816 <g_3481+0x2776>
   1c2ae:	b8 00 00 00 00       	mov    $0x0,%eax
   1c2b3:	e8 c8 ed fe ff       	callq  b080 <printf@plt>
   1c2b8:	83 45 f0 01          	addl   $0x1,-0x10(%rbp)
   1c2bc:	83 7d f0 06          	cmpl   $0x6,-0x10(%rbp)
   1c2c0:	7e b5                	jle    1c277 <main+0x464>
   1c2c2:	8b 05 34 72 00 00    	mov    0x7234(%rip),%eax        # 234fc <g_682>
   1c2c8:	89 c1                	mov    %eax,%ecx
   1c2ca:	8b 45 fc             	mov    -0x4(%rbp),%eax
   1c2cd:	89 c2                	mov    %eax,%edx
   1c2cf:	48 8d 35 fa 35 00 00 	lea    0x35fa(%rip),%rsi        # 1f8d0 <g_3481+0x2830>
   1c2d6:	48 89 cf             	mov    %rcx,%rdi
   1c2d9:	e8 15 04 ff ff       	callq  c6f3 <transparent_crc>
   1c2de:	8b 05 1c 72 00 00    	mov    0x721c(%rip),%eax        # 23500 <g_704>
   1c2e4:	89 c1                	mov    %eax,%ecx
   1c2e6:	8b 45 fc             	mov    -0x4(%rbp),%eax
   1c2e9:	89 c2                	mov    %eax,%edx
   1c2eb:	48 8d 35 e4 35 00 00 	lea    0x35e4(%rip),%rsi        # 1f8d6 <g_3481+0x2836>
   1c2f2:	48 89 cf             	mov    %rcx,%rdi
   1c2f5:	e8 f9 03 ff ff       	callq  c6f3 <transparent_crc>
   1c2fa:	b8 01 00 00 00       	mov    $0x1,%eax
   1c2ff:	48 0f bf c0          	movswq %ax,%rax
   1c303:	8b 55 fc             	mov    -0x4(%rbp),%edx
   1c306:	48 8d 35 cf 35 00 00 	lea    0x35cf(%rip),%rsi        # 1f8dc <g_3481+0x283c>
   1c30d:	48 89 c7             	mov    %rax,%rdi
   1c310:	e8 de 03 ff ff       	callq  c6f3 <transparent_crc>
   1c315:	c7 45 f0 00 00 00 00 	movl   $0x0,-0x10(%rbp)
   1c31c:	e9 b6 00 00 00       	jmpq   1c3d7 <main+0x5c4>
   1c321:	c7 45 f4 00 00 00 00 	movl   $0x0,-0xc(%rbp)
   1c328:	e9 9c 00 00 00       	jmpq   1c3c9 <main+0x5b6>
   1c32d:	c7 45 f8 00 00 00 00 	movl   $0x0,-0x8(%rbp)
   1c334:	e9 82 00 00 00       	jmpq   1c3bb <main+0x5a8>
   1c339:	8b 45 f8             	mov    -0x8(%rbp),%eax
   1c33c:	48 63 f0             	movslq %eax,%rsi
   1c33f:	8b 45 f0             	mov    -0x10(%rbp),%eax
   1c342:	48 98                	cltq   
   1c344:	8b 55 f4             	mov    -0xc(%rbp),%edx
   1c347:	48 63 ca             	movslq %edx,%rcx
   1c34a:	48 89 c2             	mov    %rax,%rdx
   1c34d:	48 c1 e2 03          	shl    $0x3,%rdx
   1c351:	48 01 c2             	add    %rax,%rdx
   1c354:	48 8d 04 95 00 00 00 	lea    0x0(,%rdx,4),%rax
   1c35b:	00 
   1c35c:	48 89 c2             	mov    %rax,%rdx
   1c35f:	48 89 c8             	mov    %rcx,%rax
   1c362:	48 01 c0             	add    %rax,%rax
   1c365:	48 01 c8             	add    %rcx,%rax
   1c368:	48 01 c0             	add    %rax,%rax
   1c36b:	48 01 d0             	add    %rdx,%rax
   1c36e:	48 8d 14 30          	lea    (%rax,%rsi,1),%rdx
   1c372:	48 8d 05 a7 71 00 00 	lea    0x71a7(%rip),%rax        # 23520 <g_800>
   1c379:	48 01 d0             	add    %rdx,%rax
   1c37c:	0f b6 00             	movzbl (%rax),%eax
   1c37f:	48 0f be c0          	movsbq %al,%rax
   1c383:	8b 55 fc             	mov    -0x4(%rbp),%edx
   1c386:	48 8d 35 55 35 00 00 	lea    0x3555(%rip),%rsi        # 1f8e2 <g_3481+0x2842>
   1c38d:	48 89 c7             	mov    %rax,%rdi
   1c390:	e8 5e 03 ff ff       	callq  c6f3 <transparent_crc>
   1c395:	83 7d fc 00          	cmpl   $0x0,-0x4(%rbp)
   1c399:	74 1c                	je     1c3b7 <main+0x5a4>
   1c39b:	8b 4d f8             	mov    -0x8(%rbp),%ecx
   1c39e:	8b 55 f4             	mov    -0xc(%rbp),%edx
   1c3a1:	8b 45 f0             	mov    -0x10(%rbp),%eax
   1c3a4:	89 c6                	mov    %eax,%esi
   1c3a6:	48 8d 3d e0 34 00 00 	lea    0x34e0(%rip),%rdi        # 1f88d <g_3481+0x27ed>
   1c3ad:	b8 00 00 00 00       	mov    $0x0,%eax
   1c3b2:	e8 c9 ec fe ff       	callq  b080 <printf@plt>
   1c3b7:	83 45 f8 01          	addl   $0x1,-0x8(%rbp)
   1c3bb:	83 7d f8 05          	cmpl   $0x5,-0x8(%rbp)
   1c3bf:	0f 8e 74 ff ff ff    	jle    1c339 <main+0x526>
   1c3c5:	83 45 f4 01          	addl   $0x1,-0xc(%rbp)
   1c3c9:	83 7d f4 05          	cmpl   $0x5,-0xc(%rbp)
   1c3cd:	0f 8e 5a ff ff ff    	jle    1c32d <main+0x51a>
   1c3d3:	83 45 f0 01          	addl   $0x1,-0x10(%rbp)
   1c3d7:	83 7d f0 06          	cmpl   $0x6,-0x10(%rbp)
   1c3db:	0f 8e 40 ff ff ff    	jle    1c321 <main+0x50e>
   1c3e1:	48 8b 05 38 72 00 00 	mov    0x7238(%rip),%rax        # 23620 <g_833>
   1c3e8:	8b 55 fc             	mov    -0x4(%rbp),%edx
   1c3eb:	48 8d 35 ff 34 00 00 	lea    0x34ff(%rip),%rsi        # 1f8f1 <g_3481+0x2851>
   1c3f2:	48 89 c7             	mov    %rax,%rdi
   1c3f5:	e8 f9 02 ff ff       	callq  c6f3 <transparent_crc>
   1c3fa:	0f b6 05 27 72 00 00 	movzbl 0x7227(%rip),%eax        # 23628 <g_927>
   1c401:	48 0f be c0          	movsbq %al,%rax
   1c405:	8b 55 fc             	mov    -0x4(%rbp),%edx
   1c408:	48 8d 35 e8 34 00 00 	lea    0x34e8(%rip),%rsi        # 1f8f7 <g_3481+0x2857>
   1c40f:	48 89 c7             	mov    %rax,%rdi
   1c412:	e8 dc 02 ff ff       	callq  c6f3 <transparent_crc>
   1c417:	48 8b 05 12 72 00 00 	mov    0x7212(%rip),%rax        # 23630 <g_1066>
   1c41e:	8b 55 fc             	mov    -0x4(%rbp),%edx
   1c421:	48 8d 35 d5 34 00 00 	lea    0x34d5(%rip),%rsi        # 1f8fd <g_3481+0x285d>
   1c428:	48 89 c7             	mov    %rax,%rdi
   1c42b:	e8 c3 02 ff ff       	callq  c6f3 <transparent_crc>
   1c430:	0f b7 05 b9 bf 00 00 	movzwl 0xbfb9(%rip),%eax        # 283f0 <g_1117>
   1c437:	48 0f bf c0          	movswq %ax,%rax
   1c43b:	8b 55 fc             	mov    -0x4(%rbp),%edx
   1c43e:	48 8d 35 bf 34 00 00 	lea    0x34bf(%rip),%rsi        # 1f904 <g_3481+0x2864>
   1c445:	48 89 c7             	mov    %rax,%rdi
   1c448:	e8 a6 02 ff ff       	callq  c6f3 <transparent_crc>
   1c44d:	48 8b 05 e4 71 00 00 	mov    0x71e4(%rip),%rax        # 23638 <g_1162>
   1c454:	48 89 c1             	mov    %rax,%rcx
   1c457:	8b 45 fc             	mov    -0x4(%rbp),%eax
   1c45a:	89 c2                	mov    %eax,%edx
   1c45c:	48 8d 35 a8 34 00 00 	lea    0x34a8(%rip),%rsi        # 1f90b <g_3481+0x286b>
   1c463:	48 89 cf             	mov    %rcx,%rdi
   1c466:	e8 88 02 ff ff       	callq  c6f3 <transparent_crc>
   1c46b:	8b 05 cf 71 00 00    	mov    0x71cf(%rip),%eax        # 23640 <g_1374>
   1c471:	48 98                	cltq   
   1c473:	8b 55 fc             	mov    -0x4(%rbp),%edx
   1c476:	48 8d 35 95 34 00 00 	lea    0x3495(%rip),%rsi        # 1f912 <g_3481+0x2872>
   1c47d:	48 89 c7             	mov    %rax,%rdi
   1c480:	e8 6e 02 ff ff       	callq  c6f3 <transparent_crc>
   1c485:	b8 05 00 00 00       	mov    $0x5,%eax
   1c48a:	48 0f be c0          	movsbq %al,%rax
   1c48e:	8b 55 fc             	mov    -0x4(%rbp),%edx
   1c491:	48 8d 35 81 34 00 00 	lea    0x3481(%rip),%rsi        # 1f919 <g_3481+0x2879>
   1c498:	48 89 c7             	mov    %rax,%rdi
   1c49b:	e8 53 02 ff ff       	callq  c6f3 <transparent_crc>
   1c4a0:	48 8b 05 a1 71 00 00 	mov    0x71a1(%rip),%rax        # 23648 <g_1499>
   1c4a7:	48 89 c1             	mov    %rax,%rcx
   1c4aa:	8b 45 fc             	mov    -0x4(%rbp),%eax
   1c4ad:	89 c2                	mov    %eax,%edx
   1c4af:	48 8d 35 6a 34 00 00 	lea    0x346a(%rip),%rsi        # 1f920 <g_3481+0x2880>
   1c4b6:	48 89 cf             	mov    %rcx,%rdi
   1c4b9:	e8 35 02 ff ff       	callq  c6f3 <transparent_crc>
   1c4be:	0f b7 05 3b bf 00 00 	movzwl 0xbf3b(%rip),%eax        # 28400 <g_1533>
   1c4c5:	0f b7 c0             	movzwl %ax,%eax
   1c4c8:	8b 55 fc             	mov    -0x4(%rbp),%edx
   1c4cb:	48 8d 35 55 34 00 00 	lea    0x3455(%rip),%rsi        # 1f927 <g_3481+0x2887>
   1c4d2:	48 89 c7             	mov    %rax,%rdi
   1c4d5:	e8 19 02 ff ff       	callq  c6f3 <transparent_crc>
   1c4da:	0f b7 05 6f 71 00 00 	movzwl 0x716f(%rip),%eax        # 23650 <g_1816>
   1c4e1:	48 0f bf c0          	movswq %ax,%rax
   1c4e5:	8b 55 fc             	mov    -0x4(%rbp),%edx
   1c4e8:	48 8d 35 3f 34 00 00 	lea    0x343f(%rip),%rsi        # 1f92e <g_3481+0x288e>
   1c4ef:	48 89 c7             	mov    %rax,%rdi
   1c4f2:	e8 fc 01 ff ff       	callq  c6f3 <transparent_crc>
   1c4f7:	8b 05 57 71 00 00    	mov    0x7157(%rip),%eax        # 23654 <g_1892>
   1c4fd:	48 98                	cltq   
   1c4ff:	8b 55 fc             	mov    -0x4(%rbp),%edx
   1c502:	48 8d 35 2c 34 00 00 	lea    0x342c(%rip),%rsi        # 1f935 <g_3481+0x2895>
   1c509:	48 89 c7             	mov    %rax,%rdi
   1c50c:	e8 e2 01 ff ff       	callq  c6f3 <transparent_crc>
   1c511:	48 8b 05 40 71 00 00 	mov    0x7140(%rip),%rax        # 23658 <g_1911>
   1c518:	8b 55 fc             	mov    -0x4(%rbp),%edx
   1c51b:	48 8d 35 1a 34 00 00 	lea    0x341a(%rip),%rsi        # 1f93c <g_3481+0x289c>
   1c522:	48 89 c7             	mov    %rax,%rdi
   1c525:	e8 c9 01 ff ff       	callq  c6f3 <transparent_crc>
   1c52a:	c7 45 f0 00 00 00 00 	movl   $0x0,-0x10(%rbp)
   1c531:	eb 4b                	jmp    1c57e <main+0x76b>
   1c533:	8b 45 f0             	mov    -0x10(%rbp),%eax
   1c536:	48 98                	cltq   
   1c538:	48 8d 14 85 00 00 00 	lea    0x0(,%rax,4),%rdx
   1c53f:	00 
   1c540:	48 8d 05 19 71 00 00 	lea    0x7119(%rip),%rax        # 23660 <g_2134>
   1c547:	8b 04 02             	mov    (%rdx,%rax,1),%eax
   1c54a:	48 98                	cltq   
   1c54c:	8b 55 fc             	mov    -0x4(%rbp),%edx
   1c54f:	48 8d 35 ed 33 00 00 	lea    0x33ed(%rip),%rsi        # 1f943 <g_3481+0x28a3>
   1c556:	48 89 c7             	mov    %rax,%rdi
   1c559:	e8 95 01 ff ff       	callq  c6f3 <transparent_crc>
   1c55e:	83 7d fc 00          	cmpl   $0x0,-0x4(%rbp)
   1c562:	74 16                	je     1c57a <main+0x767>
   1c564:	8b 45 f0             	mov    -0x10(%rbp),%eax
   1c567:	89 c6                	mov    %eax,%esi
   1c569:	48 8d 3d a6 32 00 00 	lea    0x32a6(%rip),%rdi        # 1f816 <g_3481+0x2776>
   1c570:	b8 00 00 00 00       	mov    $0x0,%eax
   1c575:	e8 06 eb fe ff       	callq  b080 <printf@plt>
   1c57a:	83 45 f0 01          	addl   $0x1,-0x10(%rbp)
   1c57e:	83 7d f0 06          	cmpl   $0x6,-0x10(%rbp)
   1c582:	7e af                	jle    1c533 <main+0x720>
   1c584:	b8 09 00 00 00       	mov    $0x9,%eax
   1c589:	48 98                	cltq   
   1c58b:	8b 55 fc             	mov    -0x4(%rbp),%edx
   1c58e:	48 8d 35 b8 33 00 00 	lea    0x33b8(%rip),%rsi        # 1f94d <g_3481+0x28ad>
   1c595:	48 89 c7             	mov    %rax,%rdi
   1c598:	e8 56 01 ff ff       	callq  c6f3 <transparent_crc>
   1c59d:	8b 05 85 be 00 00    	mov    0xbe85(%rip),%eax        # 28428 <g_2356>
   1c5a3:	48 98                	cltq   
   1c5a5:	8b 55 fc             	mov    -0x4(%rbp),%edx
   1c5a8:	48 8d 35 a5 33 00 00 	lea    0x33a5(%rip),%rsi        # 1f954 <g_3481+0x28b4>
   1c5af:	48 89 c7             	mov    %rax,%rdi
   1c5b2:	e8 3c 01 ff ff       	callq  c6f3 <transparent_crc>
   1c5b7:	8b 05 bf 70 00 00    	mov    0x70bf(%rip),%eax        # 2367c <g_2401>
   1c5bd:	89 c1                	mov    %eax,%ecx
   1c5bf:	8b 45 fc             	mov    -0x4(%rbp),%eax
   1c5c2:	89 c2                	mov    %eax,%edx
   1c5c4:	48 8d 35 90 33 00 00 	lea    0x3390(%rip),%rsi        # 1f95b <g_3481+0x28bb>
   1c5cb:	48 89 cf             	mov    %rcx,%rdi
   1c5ce:	e8 20 01 ff ff       	callq  c6f3 <transparent_crc>
   1c5d3:	48 8b 05 a6 70 00 00 	mov    0x70a6(%rip),%rax        # 23680 <g_2742>
   1c5da:	48 89 c1             	mov    %rax,%rcx
   1c5dd:	8b 45 fc             	mov    -0x4(%rbp),%eax
   1c5e0:	89 c2                	mov    %eax,%edx
   1c5e2:	48 8d 35 79 33 00 00 	lea    0x3379(%rip),%rsi        # 1f962 <g_3481+0x28c2>
   1c5e9:	48 89 cf             	mov    %rcx,%rdi
   1c5ec:	e8 02 01 ff ff       	callq  c6f3 <transparent_crc>
   1c5f1:	c7 45 f0 00 00 00 00 	movl   $0x0,-0x10(%rbp)
   1c5f8:	eb 4d                	jmp    1c647 <main+0x834>
   1c5fa:	8b 45 f0             	mov    -0x10(%rbp),%eax
   1c5fd:	48 98                	cltq   
   1c5ff:	48 8d 14 85 00 00 00 	lea    0x0(,%rax,4),%rdx
   1c606:	00 
   1c607:	48 8d 05 4a be 00 00 	lea    0xbe4a(%rip),%rax        # 28458 <g_2802>
   1c60e:	8b 04 02             	mov    (%rdx,%rax,1),%eax
   1c611:	89 c1                	mov    %eax,%ecx
   1c613:	8b 45 fc             	mov    -0x4(%rbp),%eax
   1c616:	89 c2                	mov    %eax,%edx
   1c618:	48 8d 35 4a 33 00 00 	lea    0x334a(%rip),%rsi        # 1f969 <g_3481+0x28c9>
   1c61f:	48 89 cf             	mov    %rcx,%rdi
   1c622:	e8 cc 00 ff ff       	callq  c6f3 <transparent_crc>
   1c627:	83 7d fc 00          	cmpl   $0x0,-0x4(%rbp)
   1c62b:	74 16                	je     1c643 <main+0x830>
   1c62d:	8b 45 f0             	mov    -0x10(%rbp),%eax
   1c630:	89 c6                	mov    %eax,%esi
   1c632:	48 8d 3d dd 31 00 00 	lea    0x31dd(%rip),%rdi        # 1f816 <g_3481+0x2776>
   1c639:	b8 00 00 00 00       	mov    $0x0,%eax
   1c63e:	e8 3d ea fe ff       	callq  b080 <printf@plt>
   1c643:	83 45 f0 01          	addl   $0x1,-0x10(%rbp)
   1c647:	83 7d f0 02          	cmpl   $0x2,-0x10(%rbp)
   1c64b:	7e ad                	jle    1c5fa <main+0x7e7>
   1c64d:	48 8b 05 14 be 00 00 	mov    0xbe14(%rip),%rax        # 28468 <g_2816>
   1c654:	8b 55 fc             	mov    -0x4(%rbp),%edx
   1c657:	48 8d 35 15 33 00 00 	lea    0x3315(%rip),%rsi        # 1f973 <g_3481+0x28d3>
   1c65e:	48 89 c7             	mov    %rax,%rdi
   1c661:	e8 8d 00 ff ff       	callq  c6f3 <transparent_crc>
   1c666:	48 8b 05 1b 70 00 00 	mov    0x701b(%rip),%rax        # 23688 <g_2907>
   1c66d:	8b 55 fc             	mov    -0x4(%rbp),%edx
   1c670:	48 8d 35 03 33 00 00 	lea    0x3303(%rip),%rsi        # 1f97a <g_3481+0x28da>
   1c677:	48 89 c7             	mov    %rax,%rdi
   1c67a:	e8 74 00 ff ff       	callq  c6f3 <transparent_crc>
   1c67f:	0f b6 05 0a 70 00 00 	movzbl 0x700a(%rip),%eax        # 23690 <g_3038>
   1c686:	0f b6 c0             	movzbl %al,%eax
   1c689:	8b 55 fc             	mov    -0x4(%rbp),%edx
   1c68c:	48 8d 35 ee 32 00 00 	lea    0x32ee(%rip),%rsi        # 1f981 <g_3481+0x28e1>
   1c693:	48 89 c7             	mov    %rax,%rdi
   1c696:	e8 58 00 ff ff       	callq  c6f3 <transparent_crc>
   1c69b:	c7 45 f0 00 00 00 00 	movl   $0x0,-0x10(%rbp)
   1c6a2:	eb 46                	jmp    1c6ea <main+0x8d7>
   1c6a4:	8b 45 f0             	mov    -0x10(%rbp),%eax
   1c6a7:	48 98                	cltq   
   1c6a9:	48 8d 15 e8 6f 00 00 	lea    0x6fe8(%rip),%rdx        # 23698 <g_3137>
   1c6b0:	0f b6 04 10          	movzbl (%rax,%rdx,1),%eax
   1c6b4:	48 0f be c0          	movsbq %al,%rax
   1c6b8:	8b 55 fc             	mov    -0x4(%rbp),%edx
   1c6bb:	48 8d 35 c6 32 00 00 	lea    0x32c6(%rip),%rsi        # 1f988 <g_3481+0x28e8>
   1c6c2:	48 89 c7             	mov    %rax,%rdi
   1c6c5:	e8 29 00 ff ff       	callq  c6f3 <transparent_crc>
   1c6ca:	83 7d fc 00          	cmpl   $0x0,-0x4(%rbp)
   1c6ce:	74 16                	je     1c6e6 <main+0x8d3>
   1c6d0:	8b 45 f0             	mov    -0x10(%rbp),%eax
   1c6d3:	89 c6                	mov    %eax,%esi
   1c6d5:	48 8d 3d 3a 31 00 00 	lea    0x313a(%rip),%rdi        # 1f816 <g_3481+0x2776>
   1c6dc:	b8 00 00 00 00       	mov    $0x0,%eax
   1c6e1:	e8 9a e9 fe ff       	callq  b080 <printf@plt>
   1c6e6:	83 45 f0 01          	addl   $0x1,-0x10(%rbp)
   1c6ea:	83 7d f0 08          	cmpl   $0x8,-0x10(%rbp)
   1c6ee:	7e b4                	jle    1c6a4 <main+0x891>
   1c6f0:	0f b7 05 ab 6f 00 00 	movzwl 0x6fab(%rip),%eax        # 236a2 <g_3176>
   1c6f7:	48 0f bf c0          	movswq %ax,%rax
   1c6fb:	8b 55 fc             	mov    -0x4(%rbp),%edx
   1c6fe:	48 8d 35 8d 32 00 00 	lea    0x328d(%rip),%rsi        # 1f992 <g_3481+0x28f2>
   1c705:	48 89 c7             	mov    %rax,%rdi
   1c708:	e8 e6 ff fe ff       	callq  c6f3 <transparent_crc>
   1c70d:	8b 05 91 6f 00 00    	mov    0x6f91(%rip),%eax        # 236a4 <g_3247>
   1c713:	89 c1                	mov    %eax,%ecx
   1c715:	8b 45 fc             	mov    -0x4(%rbp),%eax
   1c718:	89 c2                	mov    %eax,%edx
   1c71a:	48 8d 35 78 32 00 00 	lea    0x3278(%rip),%rsi        # 1f999 <g_3481+0x28f9>
   1c721:	48 89 cf             	mov    %rcx,%rdi
   1c724:	e8 ca ff fe ff       	callq  c6f3 <transparent_crc>
   1c729:	c7 45 f0 00 00 00 00 	movl   $0x0,-0x10(%rbp)
   1c730:	eb 77                	jmp    1c7a9 <main+0x996>
   1c732:	c7 45 f4 00 00 00 00 	movl   $0x0,-0xc(%rbp)
   1c739:	eb 64                	jmp    1c79f <main+0x98c>
   1c73b:	8b 45 f4             	mov    -0xc(%rbp),%eax
   1c73e:	48 63 c8             	movslq %eax,%rcx
   1c741:	8b 45 f0             	mov    -0x10(%rbp),%eax
   1c744:	48 63 d0             	movslq %eax,%rdx
   1c747:	48 89 d0             	mov    %rdx,%rax
   1c74a:	48 01 c0             	add    %rax,%rax
   1c74d:	48 01 d0             	add    %rdx,%rax
   1c750:	48 01 c0             	add    %rax,%rax
   1c753:	48 01 c8             	add    %rcx,%rax
   1c756:	48 8d 14 85 00 00 00 	lea    0x0(,%rax,4),%rdx
   1c75d:	00 
   1c75e:	48 8d 05 3b 09 00 00 	lea    0x93b(%rip),%rax        # 1d0a0 <g_3481>
   1c765:	8b 04 02             	mov    (%rdx,%rax,1),%eax
   1c768:	48 98                	cltq   
   1c76a:	8b 55 fc             	mov    -0x4(%rbp),%edx
   1c76d:	48 8d 35 2c 32 00 00 	lea    0x322c(%rip),%rsi        # 1f9a0 <g_3481+0x2900>
   1c774:	48 89 c7             	mov    %rax,%rdi
   1c777:	e8 77 ff fe ff       	callq  c6f3 <transparent_crc>
   1c77c:	83 7d fc 00          	cmpl   $0x0,-0x4(%rbp)
   1c780:	74 19                	je     1c79b <main+0x988>
   1c782:	8b 55 f4             	mov    -0xc(%rbp),%edx
   1c785:	8b 45 f0             	mov    -0x10(%rbp),%eax
   1c788:	89 c6                	mov    %eax,%esi
   1c78a:	48 8d 3d bd 30 00 00 	lea    0x30bd(%rip),%rdi        # 1f84e <g_3481+0x27ae>
   1c791:	b8 00 00 00 00       	mov    $0x0,%eax
   1c796:	e8 e5 e8 fe ff       	callq  b080 <printf@plt>
   1c79b:	83 45 f4 01          	addl   $0x1,-0xc(%rbp)
   1c79f:	83 7d f4 05          	cmpl   $0x5,-0xc(%rbp)
   1c7a3:	7e 96                	jle    1c73b <main+0x928>
   1c7a5:	83 45 f0 01          	addl   $0x1,-0x10(%rbp)
   1c7a9:	83 7d f0 06          	cmpl   $0x6,-0x10(%rbp)
   1c7ad:	7e 83                	jle    1c732 <main+0x91f>
   1c7af:	8b 05 f3 6e 00 00    	mov    0x6ef3(%rip),%eax        # 236a8 <g_3534>
   1c7b5:	89 c1                	mov    %eax,%ecx
   1c7b7:	8b 45 fc             	mov    -0x4(%rbp),%eax
   1c7ba:	89 c2                	mov    %eax,%edx
   1c7bc:	48 8d 35 ea 31 00 00 	lea    0x31ea(%rip),%rsi        # 1f9ad <g_3481+0x290d>
   1c7c3:	48 89 cf             	mov    %rcx,%rdi
   1c7c6:	e8 28 ff fe ff       	callq  c6f3 <transparent_crc>
   1c7cb:	c7 45 f0 00 00 00 00 	movl   $0x0,-0x10(%rbp)
   1c7d2:	e9 bb 00 00 00       	jmpq   1c892 <main+0xa7f>
   1c7d7:	c7 45 f4 00 00 00 00 	movl   $0x0,-0xc(%rbp)
   1c7de:	e9 a1 00 00 00       	jmpq   1c884 <main+0xa71>
   1c7e3:	c7 45 f8 00 00 00 00 	movl   $0x0,-0x8(%rbp)
   1c7ea:	e9 87 00 00 00       	jmpq   1c876 <main+0xa63>
   1c7ef:	8b 45 f8             	mov    -0x8(%rbp),%eax
   1c7f2:	48 63 f0             	movslq %eax,%rsi
   1c7f5:	8b 45 f0             	mov    -0x10(%rbp),%eax
   1c7f8:	48 98                	cltq   
   1c7fa:	8b 55 f4             	mov    -0xc(%rbp),%edx
   1c7fd:	48 63 ca             	movslq %edx,%rcx
   1c800:	48 89 c2             	mov    %rax,%rdx
   1c803:	48 c1 e2 02          	shl    $0x2,%rdx
   1c807:	48 01 c2             	add    %rax,%rdx
   1c80a:	48 8d 04 95 00 00 00 	lea    0x0(,%rdx,4),%rax
   1c811:	00 
   1c812:	48 89 c2             	mov    %rax,%rdx
   1c815:	48 89 c8             	mov    %rcx,%rax
   1c818:	48 c1 e0 02          	shl    $0x2,%rax
   1c81c:	48 01 c8             	add    %rcx,%rax
   1c81f:	48 01 c0             	add    %rax,%rax
   1c822:	48 01 d0             	add    %rdx,%rax
   1c825:	48 01 f0             	add    %rsi,%rax
   1c828:	48 8d 14 85 00 00 00 	lea    0x0(,%rax,4),%rdx
   1c82f:	00 
   1c830:	48 8d 05 89 6e 00 00 	lea    0x6e89(%rip),%rax        # 236c0 <g_3651>
   1c837:	8b 04 02             	mov    (%rdx,%rax,1),%eax
   1c83a:	89 c1                	mov    %eax,%ecx
   1c83c:	8b 45 fc             	mov    -0x4(%rbp),%eax
   1c83f:	89 c2                	mov    %eax,%edx
   1c841:	48 8d 35 6c 31 00 00 	lea    0x316c(%rip),%rsi        # 1f9b4 <g_3481+0x2914>
   1c848:	48 89 cf             	mov    %rcx,%rdi
   1c84b:	e8 a3 fe fe ff       	callq  c6f3 <transparent_crc>
   1c850:	83 7d fc 00          	cmpl   $0x0,-0x4(%rbp)
   1c854:	74 1c                	je     1c872 <main+0xa5f>
   1c856:	8b 4d f8             	mov    -0x8(%rbp),%ecx
   1c859:	8b 55 f4             	mov    -0xc(%rbp),%edx
   1c85c:	8b 45 f0             	mov    -0x10(%rbp),%eax
   1c85f:	89 c6                	mov    %eax,%esi
   1c861:	48 8d 3d 25 30 00 00 	lea    0x3025(%rip),%rdi        # 1f88d <g_3481+0x27ed>
   1c868:	b8 00 00 00 00       	mov    $0x0,%eax
   1c86d:	e8 0e e8 fe ff       	callq  b080 <printf@plt>
   1c872:	83 45 f8 01          	addl   $0x1,-0x8(%rbp)
   1c876:	83 7d f8 09          	cmpl   $0x9,-0x8(%rbp)
   1c87a:	0f 8e 6f ff ff ff    	jle    1c7ef <main+0x9dc>
   1c880:	83 45 f4 01          	addl   $0x1,-0xc(%rbp)
   1c884:	83 7d f4 01          	cmpl   $0x1,-0xc(%rbp)
   1c888:	0f 8e 55 ff ff ff    	jle    1c7e3 <main+0x9d0>
   1c88e:	83 45 f0 01          	addl   $0x1,-0x10(%rbp)
   1c892:	83 7d f0 06          	cmpl   $0x6,-0x10(%rbp)
   1c896:	0f 8e 3b ff ff ff    	jle    1c7d7 <main+0x9c4>
   1c89c:	0f b7 05 4d 70 00 00 	movzwl 0x704d(%rip),%eax        # 238f0 <g_3675>
   1c8a3:	48 0f bf c0          	movswq %ax,%rax
   1c8a7:	8b 55 fc             	mov    -0x4(%rbp),%edx
   1c8aa:	48 8d 35 13 31 00 00 	lea    0x3113(%rip),%rsi        # 1f9c4 <g_3481+0x2924>
   1c8b1:	48 89 c7             	mov    %rax,%rdi
   1c8b4:	e8 3a fe fe ff       	callq  c6f3 <transparent_crc>
   1c8b9:	8b 05 35 70 00 00    	mov    0x7035(%rip),%eax        # 238f4 <g_3732>
   1c8bf:	48 98                	cltq   
   1c8c1:	8b 55 fc             	mov    -0x4(%rbp),%edx
   1c8c4:	48 8d 35 00 31 00 00 	lea    0x3100(%rip),%rsi        # 1f9cb <g_3481+0x292b>
   1c8cb:	48 89 c7             	mov    %rax,%rdi
   1c8ce:	e8 20 fe fe ff       	callq  c6f3 <transparent_crc>
   1c8d3:	0f b7 05 1e 70 00 00 	movzwl 0x701e(%rip),%eax        # 238f8 <g_3839>
   1c8da:	48 0f bf c0          	movswq %ax,%rax
   1c8de:	8b 55 fc             	mov    -0x4(%rbp),%edx
   1c8e1:	48 8d 35 ea 30 00 00 	lea    0x30ea(%rip),%rsi        # 1f9d2 <g_3481+0x2932>
   1c8e8:	48 89 c7             	mov    %rax,%rdi
   1c8eb:	e8 03 fe fe ff       	callq  c6f3 <transparent_crc>
   1c8f0:	c7 45 f0 00 00 00 00 	movl   $0x0,-0x10(%rbp)
   1c8f7:	eb 7b                	jmp    1c974 <main+0xb61>
   1c8f9:	c7 45 f4 00 00 00 00 	movl   $0x0,-0xc(%rbp)
   1c900:	eb 68                	jmp    1c96a <main+0xb57>
   1c902:	8b 45 f4             	mov    -0xc(%rbp),%eax
   1c905:	48 63 c8             	movslq %eax,%rcx
   1c908:	8b 45 f0             	mov    -0x10(%rbp),%eax
   1c90b:	48 63 d0             	movslq %eax,%rdx
   1c90e:	48 89 d0             	mov    %rdx,%rax
   1c911:	48 01 c0             	add    %rax,%rax
   1c914:	48 01 d0             	add    %rdx,%rax
   1c917:	48 01 c0             	add    %rax,%rax
   1c91a:	48 01 c8             	add    %rcx,%rax
   1c91d:	48 8d 14 c5 00 00 00 	lea    0x0(,%rax,8),%rdx
   1c924:	00 
   1c925:	48 8d 05 d4 6f 00 00 	lea    0x6fd4(%rip),%rax        # 23900 <g_3863>
   1c92c:	48 8b 04 02          	mov    (%rdx,%rax,1),%rax
   1c930:	48 89 c1             	mov    %rax,%rcx
   1c933:	8b 45 fc             	mov    -0x4(%rbp),%eax
   1c936:	89 c2                	mov    %eax,%edx
   1c938:	48 8d 35 9a 30 00 00 	lea    0x309a(%rip),%rsi        # 1f9d9 <g_3481+0x2939>
   1c93f:	48 89 cf             	mov    %rcx,%rdi
   1c942:	e8 ac fd fe ff       	callq  c6f3 <transparent_crc>
   1c947:	83 7d fc 00          	cmpl   $0x0,-0x4(%rbp)
   1c94b:	74 19                	je     1c966 <main+0xb53>
   1c94d:	8b 55 f4             	mov    -0xc(%rbp),%edx
   1c950:	8b 45 f0             	mov    -0x10(%rbp),%eax
   1c953:	89 c6                	mov    %eax,%esi
   1c955:	48 8d 3d f2 2e 00 00 	lea    0x2ef2(%rip),%rdi        # 1f84e <g_3481+0x27ae>
   1c95c:	b8 00 00 00 00       	mov    $0x0,%eax
   1c961:	e8 1a e7 fe ff       	callq  b080 <printf@plt>
   1c966:	83 45 f4 01          	addl   $0x1,-0xc(%rbp)
   1c96a:	83 7d f4 05          	cmpl   $0x5,-0xc(%rbp)
   1c96e:	7e 92                	jle    1c902 <main+0xaef>
   1c970:	83 45 f0 01          	addl   $0x1,-0x10(%rbp)
   1c974:	83 7d f0 09          	cmpl   $0x9,-0x10(%rbp)
   1c978:	0f 8e 7b ff ff ff    	jle    1c8f9 <main+0xae6>
   1c97e:	8b 05 3c bb 00 00    	mov    0xbb3c(%rip),%eax        # 284c0 <g_3874>
   1c984:	48 98                	cltq   
   1c986:	8b 55 fc             	mov    -0x4(%rbp),%edx
   1c989:	48 8d 35 56 30 00 00 	lea    0x3056(%rip),%rsi        # 1f9e6 <g_3481+0x2946>
   1c990:	48 89 c7             	mov    %rax,%rdi
   1c993:	e8 5b fd fe ff       	callq  c6f3 <transparent_crc>
   1c998:	8b 05 42 71 00 00    	mov    0x7142(%rip),%eax        # 23ae0 <g_3876>
   1c99e:	48 98                	cltq   
   1c9a0:	8b 55 fc             	mov    -0x4(%rbp),%edx
   1c9a3:	48 8d 35 43 30 00 00 	lea    0x3043(%rip),%rsi        # 1f9ed <g_3481+0x294d>
   1c9aa:	48 89 c7             	mov    %rax,%rdi
   1c9ad:	e8 41 fd fe ff       	callq  c6f3 <transparent_crc>
   1c9b2:	0f b7 05 2b 71 00 00 	movzwl 0x712b(%rip),%eax        # 23ae4 <g_3883>
   1c9b9:	0f b7 c0             	movzwl %ax,%eax
   1c9bc:	8b 55 fc             	mov    -0x4(%rbp),%edx
   1c9bf:	48 8d 35 2e 30 00 00 	lea    0x302e(%rip),%rsi        # 1f9f4 <g_3481+0x2954>
   1c9c6:	48 89 c7             	mov    %rax,%rdi
   1c9c9:	e8 25 fd fe ff       	callq  c6f3 <transparent_crc>
   1c9ce:	48 8b 05 13 71 00 00 	mov    0x7113(%rip),%rax        # 23ae8 <g_3934>
   1c9d5:	8b 55 fc             	mov    -0x4(%rbp),%edx
   1c9d8:	48 8d 35 1c 30 00 00 	lea    0x301c(%rip),%rsi        # 1f9fb <g_3481+0x295b>
   1c9df:	48 89 c7             	mov    %rax,%rdi
   1c9e2:	e8 0c fd fe ff       	callq  c6f3 <transparent_crc>
   1c9e7:	8b 05 03 71 00 00    	mov    0x7103(%rip),%eax        # 23af0 <g_4059>
   1c9ed:	48 98                	cltq   
   1c9ef:	8b 55 fc             	mov    -0x4(%rbp),%edx
   1c9f2:	48 8d 35 09 30 00 00 	lea    0x3009(%rip),%rsi        # 1fa02 <g_3481+0x2962>
   1c9f9:	48 89 c7             	mov    %rax,%rdi
   1c9fc:	e8 f2 fc fe ff       	callq  c6f3 <transparent_crc>
   1ca01:	0f b7 05 ec 70 00 00 	movzwl 0x70ec(%rip),%eax        # 23af4 <g_4069>
   1ca08:	48 0f bf c0          	movswq %ax,%rax
   1ca0c:	8b 55 fc             	mov    -0x4(%rbp),%edx
   1ca0f:	48 8d 35 f3 2f 00 00 	lea    0x2ff3(%rip),%rsi        # 1fa09 <g_3481+0x2969>
   1ca16:	48 89 c7             	mov    %rax,%rdi
   1ca19:	e8 d5 fc fe ff       	callq  c6f3 <transparent_crc>
   1ca1e:	c7 45 f0 00 00 00 00 	movl   $0x0,-0x10(%rbp)
   1ca25:	eb 4a                	jmp    1ca71 <main+0xc5e>
   1ca27:	8b 45 f0             	mov    -0x10(%rbp),%eax
   1ca2a:	48 98                	cltq   
   1ca2c:	48 8d 14 c5 00 00 00 	lea    0x0(,%rax,8),%rdx
   1ca33:	00 
   1ca34:	48 8d 05 c5 70 00 00 	lea    0x70c5(%rip),%rax        # 23b00 <g_4082>
   1ca3b:	48 8b 04 02          	mov    (%rdx,%rax,1),%rax
   1ca3f:	8b 55 fc             	mov    -0x4(%rbp),%edx
   1ca42:	48 8d 35 c7 2f 00 00 	lea    0x2fc7(%rip),%rsi        # 1fa10 <g_3481+0x2970>
   1ca49:	48 89 c7             	mov    %rax,%rdi
   1ca4c:	e8 a2 fc fe ff       	callq  c6f3 <transparent_crc>
   1ca51:	83 7d fc 00          	cmpl   $0x0,-0x4(%rbp)
   1ca55:	74 16                	je     1ca6d <main+0xc5a>
   1ca57:	8b 45 f0             	mov    -0x10(%rbp),%eax
   1ca5a:	89 c6                	mov    %eax,%esi
   1ca5c:	48 8d 3d b3 2d 00 00 	lea    0x2db3(%rip),%rdi        # 1f816 <g_3481+0x2776>
   1ca63:	b8 00 00 00 00       	mov    $0x0,%eax
   1ca68:	e8 13 e6 fe ff       	callq  b080 <printf@plt>
   1ca6d:	83 45 f0 01          	addl   $0x1,-0x10(%rbp)
   1ca71:	83 7d f0 02          	cmpl   $0x2,-0x10(%rbp)
   1ca75:	7e b0                	jle    1ca27 <main+0xc14>
   1ca77:	8b 05 a3 65 00 00    	mov    0x65a3(%rip),%eax        # 23020 <crc32_context>
   1ca7d:	f7 d0                	not    %eax
   1ca7f:	89 c2                	mov    %eax,%edx
   1ca81:	8b 45 fc             	mov    -0x4(%rbp),%eax
   1ca84:	89 c6                	mov    %eax,%esi
   1ca86:	89 d7                	mov    %edx,%edi
   1ca88:	e8 07 e7 fe ff       	callq  b194 <platform_main_end>
   1ca8d:	b8 00 00 00 00       	mov    $0x0,%eax
   1ca92:	c9                   	leaveq 
   1ca93:	c3                   	retq   
   1ca94:	66 2e 0f 1f 84 00 00 	nopw   %cs:0x0(%rax,%rax,1)
   1ca9b:	00 00 00 
   1ca9e:	66 90                	xchg   %ax,%ax

000000000001caa0 <__libc_csu_init>:
   1caa0:	f3 0f 1e fa          	endbr64 
   1caa4:	41 57                	push   %r15
   1caa6:	4c 8d 3d 23 60 00 00 	lea    0x6023(%rip),%r15        # 22ad0 <__frame_dummy_init_array_entry>
   1caad:	41 56                	push   %r14
   1caaf:	49 89 d6             	mov    %rdx,%r14
   1cab2:	41 55                	push   %r13
   1cab4:	49 89 f5             	mov    %rsi,%r13
   1cab7:	41 54                	push   %r12
   1cab9:	41 89 fc             	mov    %edi,%r12d
   1cabc:	55                   	push   %rbp
   1cabd:	48 8d 2d 14 60 00 00 	lea    0x6014(%rip),%rbp        # 22ad8 <__do_global_dtors_aux_fini_array_entry>
   1cac4:	53                   	push   %rbx
   1cac5:	4c 29 fd             	sub    %r15,%rbp
   1cac8:	48 83 ec 08          	sub    $0x8,%rsp
   1cacc:	e8 2f e5 fe ff       	callq  b000 <_init>
   1cad1:	48 c1 fd 03          	sar    $0x3,%rbp
   1cad5:	74 1f                	je     1caf6 <__libc_csu_init+0x56>
   1cad7:	31 db                	xor    %ebx,%ebx
   1cad9:	0f 1f 80 00 00 00 00 	nopl   0x0(%rax)
   1cae0:	4c 89 f2             	mov    %r14,%rdx
   1cae3:	4c 89 ee             	mov    %r13,%rsi
   1cae6:	44 89 e7             	mov    %r12d,%edi
   1cae9:	41 ff 14 df          	callq  *(%r15,%rbx,8)
   1caed:	48 83 c3 01          	add    $0x1,%rbx
   1caf1:	48 39 dd             	cmp    %rbx,%rbp
   1caf4:	75 ea                	jne    1cae0 <__libc_csu_init+0x40>
   1caf6:	48 83 c4 08          	add    $0x8,%rsp
   1cafa:	5b                   	pop    %rbx
   1cafb:	5d                   	pop    %rbp
   1cafc:	41 5c                	pop    %r12
   1cafe:	41 5d                	pop    %r13
   1cb00:	41 5e                	pop    %r14
   1cb02:	41 5f                	pop    %r15
   1cb04:	c3                   	retq   
   1cb05:	66 66 2e 0f 1f 84 00 	data16 nopw %cs:0x0(%rax,%rax,1)
   1cb0c:	00 00 00 00 

000000000001cb10 <__libc_csu_fini>:
   1cb10:	f3 0f 1e fa          	endbr64 
   1cb14:	c3                   	retq   
